MODULE Linux arm64 B96079CD8A058B190CE8D6C7EBA7A17A0 camila314.pathfinder.android64.so
INFO CODE_ID CD7960B9058A198B0CE8D6C7EBA7A17A28496811
INFO GENERATOR mozilla/dump_syms 2.3.4
PUBLIC 200a0 0 __on_dlclose
PUBLIC 200b0 0 __emutls_unregister_key
PUBLIC 200b8 0 __on_dlclose_late
PUBLIC 200c0 0 __atexit_handler_wrapper
PUBLIC 200d4 0 atexit
PUBLIC 200f0 0 pthread_atfork
PUBLIC 20100 0 unwind_phase2
PUBLIC 20234 0 _Unwind_Resume
PUBLIC 202b8 0 unwind_phase2_forced
PUBLIC m 203ac 0 __unw_init_local
PUBLIC m 20454 0 __unw_get_reg
PUBLIC 204d0 0 __unw_step_stage2
PUBLIC m 204e4 0 __unw_get_proc_info
PUBLIC m 20524 0 __unw_resume
PUBLIC 2054c 0 libunwind::CFI_Parser<libunwind::LocalAddressSpace>::decodeFDE(libunwind::LocalAddressSpace&, unsigned long, libunwind::CFI_Parser<libunwind::LocalAddressSpace>::FDE_Info*, libunwind::CFI_Parser<libunwind::LocalAddressSpace>::CIE_Info*, bool)
PUBLIC 206dc 0 libunwind::CFI_Parser<libunwind::LocalAddressSpace>::parseCIE(libunwind::LocalAddressSpace&, unsigned long, libunwind::CFI_Parser<libunwind::LocalAddressSpace>::CIE_Info*)
PUBLIC 209a4 0 libunwind::AbstractUnwindCursor::~AbstractUnwindCursor()
PUBLIC 209ac 0 libunwind::UnwindCursor<libunwind::LocalAddressSpace, libunwind::Registers_arm64>::~UnwindCursor()
PUBLIC 209b4 0 libunwind::UnwindCursor<libunwind::LocalAddressSpace, libunwind::Registers_arm64>::validReg(int)
PUBLIC 209f8 0 libunwind::UnwindCursor<libunwind::LocalAddressSpace, libunwind::Registers_arm64>::getReg(int)
PUBLIC 20ae0 0 libunwind::UnwindCursor<libunwind::LocalAddressSpace, libunwind::Registers_arm64>::setReg(int, unsigned long)
PUBLIC 20bc8 0 libunwind::UnwindCursor<libunwind::LocalAddressSpace, libunwind::Registers_arm64>::validFloatReg(int)
PUBLIC 20bdc 0 libunwind::UnwindCursor<libunwind::LocalAddressSpace, libunwind::Registers_arm64>::getFloatReg(int)
PUBLIC 20bec 0 libunwind::UnwindCursor<libunwind::LocalAddressSpace, libunwind::Registers_arm64>::setFloatReg(int, double)
PUBLIC 20bfc 0 libunwind::UnwindCursor<libunwind::LocalAddressSpace, libunwind::Registers_arm64>::step(bool)
PUBLIC 20cec 0 libunwind::UnwindCursor<libunwind::LocalAddressSpace, libunwind::Registers_arm64>::getInfo(unw_proc_info_t*)
PUBLIC 20d30 0 libunwind::UnwindCursor<libunwind::LocalAddressSpace, libunwind::Registers_arm64>::jumpto()
PUBLIC 20d3c 0 libunwind::UnwindCursor<libunwind::LocalAddressSpace, libunwind::Registers_arm64>::isSignalFrame()
PUBLIC 20d48 0 libunwind::UnwindCursor<libunwind::LocalAddressSpace, libunwind::Registers_arm64>::getFunctionName(char*, unsigned long, unsigned long*)
PUBLIC 20d74 0 libunwind::UnwindCursor<libunwind::LocalAddressSpace, libunwind::Registers_arm64>::setInfoBasedOnIPRegister(bool)
PUBLIC 20ff4 0 libunwind::UnwindCursor<libunwind::LocalAddressSpace, libunwind::Registers_arm64>::getRegisterName(int)
PUBLIC 21000 0 libunwind::UnwindCursor<libunwind::LocalAddressSpace, libunwind::Registers_arm64>::stepThroughSigReturn(libunwind::Registers_arm64&)
PUBLIC 21120 0 libunwind::DwarfInstructions<libunwind::LocalAddressSpace, libunwind::Registers_arm64>::stepWithDwarf(libunwind::LocalAddressSpace&, unsigned long, unsigned long, libunwind::Registers_arm64&, bool&, bool)
PUBLIC 215a8 0 libunwind::CFI_Parser<libunwind::LocalAddressSpace>::parseFDEInstructions(libunwind::LocalAddressSpace&, libunwind::CFI_Parser<libunwind::LocalAddressSpace>::FDE_Info const&, libunwind::CFI_Parser<libunwind::LocalAddressSpace>::CIE_Info const&, unsigned long, int, libunwind::CFI_Parser<libunwind::LocalAddressSpace>::PrologInfo*)
PUBLIC 221f0 0 libunwind::DwarfInstructions<libunwind::LocalAddressSpace, libunwind::Registers_arm64>::getCFA(libunwind::LocalAddressSpace&, libunwind::CFI_Parser<libunwind::LocalAddressSpace>::PrologInfo const&, libunwind::Registers_arm64 const&)
PUBLIC 22324 0 libunwind::DwarfInstructions<libunwind::LocalAddressSpace, libunwind::Registers_arm64>::getSavedRegister(libunwind::LocalAddressSpace&, libunwind::Registers_arm64 const&, unsigned long, libunwind::CFI_Parser<libunwind::LocalAddressSpace>::RegisterLocation const&)
PUBLIC 22534 0 libunwind::LocalAddressSpace::getEncodedP(unsigned long&, unsigned long, unsigned char, unsigned long)
PUBLIC 228c0 0 libunwind::LocalAddressSpace::getULEB128(unsigned long&, unsigned long)
PUBLIC 22a88 0 libunwind::DwarfInstructions<libunwind::LocalAddressSpace, libunwind::Registers_arm64>::evaluateExpression(unsigned long, libunwind::LocalAddressSpace&, libunwind::Registers_arm64 const&, unsigned long)
PUBLIC 23444 0 libunwind::UnwindCursor<libunwind::LocalAddressSpace, libunwind::Registers_arm64>::getInfoFromDwarfSection(unsigned long, libunwind::UnwindInfoSections const&, unsigned int)
PUBLIC 23718 0 libunwind::findUnwindSectionsByPhdr(dl_phdr_info*, unsigned long, void*)
PUBLIC 2384c 0 libunwind::EHHeaderParser<libunwind::LocalAddressSpace>::decodeEHHdr(libunwind::LocalAddressSpace&, unsigned long, unsigned long, libunwind::EHHeaderParser<libunwind::LocalAddressSpace>::EHHeaderInfo&)
PUBLIC 2396c 0 libunwind::CFI_Parser<libunwind::LocalAddressSpace>::findFDE(libunwind::LocalAddressSpace&, unsigned long, unsigned long, unsigned long, unsigned long, libunwind::CFI_Parser<libunwind::LocalAddressSpace>::FDE_Info*, libunwind::CFI_Parser<libunwind::LocalAddressSpace>::CIE_Info*)
PUBLIC 23b34 0 libunwind::EHHeaderParser<libunwind::LocalAddressSpace>::findFDE(libunwind::LocalAddressSpace&, unsigned long, unsigned long, unsigned int, libunwind::CFI_Parser<libunwind::LocalAddressSpace>::FDE_Info*, libunwind::CFI_Parser<libunwind::LocalAddressSpace>::CIE_Info*)
PUBLIC 23c9c 0 libunwind::EHHeaderParser<libunwind::LocalAddressSpace>::getTableEntrySize(unsigned char)
PUBLIC 23d98 0 libunwind::Registers_arm64::getRegisterName(int)
PUBLIC 23dc8 0 __libunwind_Registers_arm64_jumpto
PUBLIC m 23e58 0 __unw_getcontext
PUBLIC 23f00 0 __aarch64_ldadd8_relax
PUBLIC 23f30 0 init_have_lse_atomics
PUBLIC 23fc8 0 __init_cpu_features_constructor
PUBLIC 24564 0 __init_cpu_features
PUBLIC 245f0 0 __aarch64_ldadd8_acq_rel
PUBLIC 24620 0 __cxx_global_var_init
PUBLIC 24678 0 std::__ndk1::vector<void*, std::__ndk1::allocator<void*> >::~vector[abi:ne180000]()
PUBLIC 24690 0 __cxx_global_var_init.1
PUBLIC 24acc 0 __cxx_global_var_init.2
PUBLIC 24f08 0 geode::modifier::ModifyBase<geode::modifier::ModifyDerive<hook133<(anonymous namespace)::hook133Parent>, EditLevelLayer> >::~ModifyBase()
PUBLIC 24f20 0 geode::modifier::ModifyBase<geode::modifier::ModifyDerive<hook161<(anonymous namespace)::hook161Parent>, LevelInfoLayer> >::~ModifyBase()
PUBLIC 24f38 0 __clang_call_terminate
PUBLIC 24f44 0 geode::modifier::ModifyDerive<hook133<(anonymous namespace)::hook133Parent>, EditLevelLayer>::apply()
PUBLIC 25290 0 std::__ndk1::shared_ptr<geode::Hook>::~shared_ptr[abi:ne180000]()
PUBLIC 252d0 0 geode::impl::ResultData<geode::Hook*, std::__ndk1::basic_string<char, std::__ndk1::char_traits<char>, std::__ndk1::allocator<char> > >::~ResultData()
PUBLIC 25340 0 std::__ndk1::vector<std::__ndk1::basic_string<char, std::__ndk1::char_traits<char>, std::__ndk1::allocator<char> >, std::__ndk1::allocator<std::__ndk1::basic_string<char, std::__ndk1::char_traits<char>, std::__ndk1::allocator<char> > > >::~vector[abi:ne180000]()
PUBLIC 253ac 0 geode::modifier::ModifyBase<geode::modifier::ModifyDerive<hook133<(anonymous namespace)::hook133Parent>, EditLevelLayer> >::apply()
PUBLIC 253b0 0 _ZN5geode15UnwrapExceptionC2IRPNS_4HookEQsr4implE18IsStringStreamableIT_EEENS_4impl5OkTagEOS5_
PUBLIC 25500 0 std::__ndk1::__throw_bad_variant_access[abi:ne180000]()
PUBLIC 25530 0 std::__ndk1::basic_stringstream<char, std::__ndk1::char_traits<char>, std::__ndk1::allocator<char> >::basic_stringstream[abi:ne180000]()
PUBLIC m 25658 0 std::__ndk1::basic_stringstream<char, std::__ndk1::char_traits<char>, std::__ndk1::allocator<char> >::~basic_stringstream()
PUBLIC 256cc 0 geode::UnwrapException::~UnwrapException()
PUBLIC 256e4 0 std::__ndk1::__put_character_sequence[abi:ne180000]<char, std::__ndk1::char_traits<char> >(std::__ndk1::basic_ostream<char, std::__ndk1::char_traits<char> >, std::__ndk1::basic_ostream const*, unsigned long)
PUBLIC 25884 0 std::__ndk1::__pad_and_output[abi:ne180000]<char, std::__ndk1::char_traits<char> >(std::__ndk1::char_traits<char>, std::__ndk1::ostreambuf_iterator const*, std::__ndk1::ostreambuf_iterator const, std::__ndk1::ostreambuf_iterator const, std::__ndk1::ios_base&, std::__ndk1::ostreambuf_iterator)
PUBLIC 25a54 0 std::__ndk1::basic_string<char, std::__ndk1::char_traits<char>, std::__ndk1::allocator<char> >::__throw_length_error[abi:ne180000]() const
PUBLIC 25a64 0 std::__ndk1::__throw_length_error[abi:ne180000](char const*)
PUBLIC 25ab0 0 std::length_error::length_error[abi:ne180000](char const*)
PUBLIC 25ad4 0 std::__throw_bad_array_new_length([abi:ne180000], void)
PUBLIC 25b00 0 std::__ndk1::basic_stringbuf<char, std::__ndk1::char_traits<char>, std::__ndk1::allocator<char> >::str[abi:ne180000]() &&
PUBLIC 25c6c 0 std::__ndk1::basic_stringbuf<char, std::__ndk1::char_traits<char>, std::__ndk1::allocator<char> >::__init_buf_ptrs[abi:ne180000]()
PUBLIC 25da8 0 std::__ndk1::vector<std::__ndk1::basic_string<char, std::__ndk1::char_traits<char>, std::__ndk1::allocator<char> >, std::__ndk1::allocator<std::__ndk1::basic_string<char, std::__ndk1::char_traits<char>, std::__ndk1::allocator<char> > > >::__push_back_slow_path<std::__ndk1::basic_string<char, std::__ndk1::char_traits<char>, std::__ndk1::allocator<char> > const&>(std::__ndk1::basic_string<char, std::__ndk1::char_traits<char>, std::__ndk1::allocator<char> > const&)
PUBLIC 25fc0 0 std::__ndk1::basic_string<char, std::__ndk1::char_traits<char>, std::__ndk1::allocator<char> >::__init_copy_ctor_external(char const*, unsigned long)
PUBLIC 2603c 0 std::__ndk1::__split_buffer<std::__ndk1::basic_string<char, std::__ndk1::char_traits<char>, std::__ndk1::allocator<char> >, std::__ndk1::allocator<std::__ndk1::basic_string<char, std::__ndk1::char_traits<char>, std::__ndk1::allocator<char> > >&>::~__split_buffer()
PUBLIC 260a0 0 std::__ndk1::vector<std::__ndk1::basic_string<char, std::__ndk1::char_traits<char>, std::__ndk1::allocator<char> >, std::__ndk1::allocator<std::__ndk1::basic_string<char, std::__ndk1::char_traits<char>, std::__ndk1::allocator<char> > > >::__throw_length_error[abi:ne180000]() const
PUBLIC 260b0 0 std::__ndk1::__variant_detail::__visitation::__base::__dispatcher<(unsigned long)0>::__dispatch[abi:ne180000]<std::__ndk1::__variant_detail::__dtor<std::__ndk1::__variant_detail::__traits<geode::Hook*, std::__ndk1::basic_string<char, std::__ndk1::char_traits<char>, std::__ndk1::allocator<char> > >, (std::__ndk1::__variant_detail::_Trait)1>::__destroy[abi:ne180000]()::{lambda(auto:1&)#1}, std::__ndk1::__variant_detail::__base<(std::__ndk1::__variant_detail::__traits<geode::Hook*, std::__ndk1::basic_string<char, std::__ndk1::char_traits<char>, std::__ndk1::allocator<char> > >)1, geode::Hook, std::__ndk1::allocator<char> >&>(std::__ndk1::__variant_detail::__dtor<std::__ndk1::__variant_detail::__traits<geode::Hook*, std::__ndk1::basic_string<char, std::__ndk1::char_traits<char>, std::__ndk1::allocator<char> > >, (std::__ndk1::__variant_detail::_Trait)1>, std::__ndk1::__variant_detail::__base<(std::__ndk1::__variant_detail::__traits<geode::Hook*, std::__ndk1::basic_string<char, std::__ndk1::char_traits<char>, std::__ndk1::allocator<char> > >)1, geode::Hook, std::__ndk1::allocator<char> >&)
PUBLIC 260b4 0 std::__ndk1::__variant_detail::__visitation::__base::__dispatcher<(unsigned long)1>::__dispatch[abi:ne180000]<std::__ndk1::__variant_detail::__dtor<std::__ndk1::__variant_detail::__traits<geode::Hook*, std::__ndk1::basic_string<char, std::__ndk1::char_traits<char>, std::__ndk1::allocator<char> > >, (std::__ndk1::__variant_detail::_Trait)1>::__destroy[abi:ne180000]()::{lambda(auto:1&)#1}, std::__ndk1::__variant_detail::__base<(std::__ndk1::__variant_detail::__traits<geode::Hook*, std::__ndk1::basic_string<char, std::__ndk1::char_traits<char>, std::__ndk1::allocator<char> > >)1, geode::Hook, std::__ndk1::allocator<char> >&>(std::__ndk1::__variant_detail::__dtor<std::__ndk1::__variant_detail::__traits<geode::Hook*, std::__ndk1::basic_string<char, std::__ndk1::char_traits<char>, std::__ndk1::allocator<char> > >, (std::__ndk1::__variant_detail::_Trait)1>, std::__ndk1::__variant_detail::__base<(std::__ndk1::__variant_detail::__traits<geode::Hook*, std::__ndk1::basic_string<char, std::__ndk1::char_traits<char>, std::__ndk1::allocator<char> > >)1, geode::Hook, std::__ndk1::allocator<char> >&)
PUBLIC 260c8 0 std::__ndk1::__tree<std::__ndk1::__value_type<std::__ndk1::basic_string<char, std::__ndk1::char_traits<char>, std::__ndk1::allocator<char> >, std::__ndk1::shared_ptr<geode::Hook> >, std::__ndk1::__map_value_compare<std::__ndk1::basic_string<char, std::__ndk1::char_traits<char>, std::__ndk1::allocator<char> >, std::__ndk1::__value_type<std::__ndk1::basic_string<char, std::__ndk1::char_traits<char>, std::__ndk1::allocator<char> >, std::__ndk1::shared_ptr<geode::Hook> >, std::__ndk1::less<std::__ndk1::basic_string<char, std::__ndk1::char_traits<char>, std::__ndk1::allocator<char> > >, true>, std::__ndk1::allocator<std::__ndk1::__value_type<std::__ndk1::basic_string<char, std::__ndk1::char_traits<char>, std::__ndk1::allocator<char> >, std::__ndk1::shared_ptr<geode::Hook> > > >::find<std::__ndk1::basic_string<char, std::__ndk1::char_traits<char>, std::__ndk1::allocator<char> > >(std::__ndk1::basic_string<char, std::__ndk1::char_traits<char>, std::__ndk1::allocator<char> > const&)
PUBLIC 261e4 0 std::__ndk1::__tree<std::__ndk1::__value_type<std::__ndk1::basic_string<char, std::__ndk1::char_traits<char>, std::__ndk1::allocator<char> >, std::__ndk1::shared_ptr<geode::Hook> >, std::__ndk1::__map_value_compare<std::__ndk1::basic_string<char, std::__ndk1::char_traits<char>, std::__ndk1::allocator<char> >, std::__ndk1::__value_type<std::__ndk1::basic_string<char, std::__ndk1::char_traits<char>, std::__ndk1::allocator<char> >, std::__ndk1::shared_ptr<geode::Hook> >, std::__ndk1::less<std::__ndk1::basic_string<char, std::__ndk1::char_traits<char>, std::__ndk1::allocator<char> > >, true>, std::__ndk1::allocator<std::__ndk1::__value_type<std::__ndk1::basic_string<char, std::__ndk1::char_traits<char>, std::__ndk1::allocator<char> >, std::__ndk1::shared_ptr<geode::Hook> > > >::erase(std::__ndk1::__tree_const_iterator<std::__ndk1::__value_type<std::__ndk1::basic_string<char, std::__ndk1::char_traits<char>, std::__ndk1::allocator<char> >, std::__ndk1::shared_ptr<geode::Hook> >, std::__ndk1::__tree_node<std::__ndk1::__value_type<std::__ndk1::basic_string<char, std::__ndk1::char_traits<char>, std::__ndk1::allocator<char> >, std::__ndk1::shared_ptr<geode::Hook> >, void*>*, long>)
PUBLIC 262a4 0 std::__ndk1::__tree_remove[abi:ne180000]<std::__ndk1::__tree_node_base<void*>*>(std::__ndk1::__tree_node_base<void*>*, std::__ndk1::__tree_node_base<void*>*)
PUBLIC 2666c 0 std::__ndk1::__tree<std::__ndk1::__value_type<std::__ndk1::basic_string<char, std::__ndk1::char_traits<char>, std::__ndk1::allocator<char> >, std::__ndk1::shared_ptr<geode::Hook> >, std::__ndk1::__map_value_compare<std::__ndk1::basic_string<char, std::__ndk1::char_traits<char>, std::__ndk1::allocator<char> >, std::__ndk1::__value_type<std::__ndk1::basic_string<char, std::__ndk1::char_traits<char>, std::__ndk1::allocator<char> >, std::__ndk1::shared_ptr<geode::Hook> >, std::__ndk1::less<std::__ndk1::basic_string<char, std::__ndk1::char_traits<char>, std::__ndk1::allocator<char> > >, true>, std::__ndk1::allocator<std::__ndk1::__value_type<std::__ndk1::basic_string<char, std::__ndk1::char_traits<char>, std::__ndk1::allocator<char> >, std::__ndk1::shared_ptr<geode::Hook> > > >::destroy(std::__ndk1::__tree_node<std::__ndk1::__value_type<std::__ndk1::basic_string<char, std::__ndk1::char_traits<char>, std::__ndk1::allocator<char> >, std::__ndk1::shared_ptr<geode::Hook> >, void*>*)
PUBLIC 266ec 0 geode::modifier::AsStaticFunction_init<hook133<(anonymous namespace)::hook133Parent>, bool (hook133<(anonymous namespace)::hook133Parent>::*)(GJGameLevel*)>::Impl<bool (hook133<(anonymous namespace)::hook133Parent>::*)(GJGameLevel*)>::function(hook133<(anonymous namespace)::hook133Parent>*, GJGameLevel*)
PUBLIC 26acc 0 std::__ndk1::shared_ptr<tulip::hook::CallingConvention>::~shared_ptr[abi:ne180000]()
PUBLIC 26b0c 0 tulip::hook::HandlerMetadata::~HandlerMetadata()
PUBLIC 26b60 0 _ZN9uibuilder5BuildIN5geode17BasedButtonSpriteEE12intoMenuItemITkNSt6__ndk112derived_fromIN7cocos2d6CCNodeEEES2_EENS0_I21CCMenuItemSpriteExtraEENS5_8functionIFvvEEE
PUBLIC 26e00 0 uibuilder::BuildCallback<CCMenuItemSpriteExtra>::create(std::__ndk1::function<void (CCMenuItemSpriteExtra*)>)
PUBLIC 27090 0 uibuilder::BuildCallback<CCMenuItemSpriteExtra>::onCallback(cocos2d::CCObject*)
PUBLIC 270f4 0 cocos2d::CCCopying::copyWithZone(cocos2d::CCZone*)
PUBLIC 270fc 0 uibuilder::BuildCallback<CCMenuItemSpriteExtra>::~BuildCallback()
PUBLIC 2714c 0 uibuilder::BuildCallback<CCMenuItemSpriteExtra>::~BuildCallback()
PUBLIC 271a4 0 _ZNSt6__ndk110__function6__funcIZN9uibuilder5BuildIN5geode17BasedButtonSpriteEE12intoMenuItemITkNS_12derived_fromIN7cocos2d6CCNodeEEES5_EENS3_I21CCMenuItemSpriteExtraEENS_8functionIFvvEEEEUlT_E_NS_9allocatorISH_EEFvPSB_EED2Ev
PUBLIC 271f0 0 _ZNSt6__ndk110__function6__funcIZN9uibuilder5BuildIN5geode17BasedButtonSpriteEE12intoMenuItemITkNS_12derived_fromIN7cocos2d6CCNodeEEES5_EENS3_I21CCMenuItemSpriteExtraEENS_8functionIFvvEEEEUlT_E_NS_9allocatorISH_EEFvPSB_EED0Ev
PUBLIC 27240 0 _ZNKSt6__ndk110__function6__funcIZN9uibuilder5BuildIN5geode17BasedButtonSpriteEE12intoMenuItemITkNS_12derived_fromIN7cocos2d6CCNodeEEES5_EENS3_I21CCMenuItemSpriteExtraEENS_8functionIFvvEEEEUlT_E_NS_9allocatorISH_EEFvPSB_EE7__cloneEv
PUBLIC 272d0 0 _ZNKSt6__ndk110__function6__funcIZN9uibuilder5BuildIN5geode17BasedButtonSpriteEE12intoMenuItemITkNS_12derived_fromIN7cocos2d6CCNodeEEES5_EENS3_I21CCMenuItemSpriteExtraEENS_8functionIFvvEEEEUlT_E_NS_9allocatorISH_EEFvPSB_EE7__cloneEPNS0_6__baseISL_EE
PUBLIC 27338 0 _ZNSt6__ndk110__function6__funcIZN9uibuilder5BuildIN5geode17BasedButtonSpriteEE12intoMenuItemITkNS_12derived_fromIN7cocos2d6CCNodeEEES5_EENS3_I21CCMenuItemSpriteExtraEENS_8functionIFvvEEEEUlT_E_NS_9allocatorISH_EEFvPSB_EE7destroyEv
PUBLIC 27378 0 _ZNSt6__ndk110__function6__funcIZN9uibuilder5BuildIN5geode17BasedButtonSpriteEE12intoMenuItemITkNS_12derived_fromIN7cocos2d6CCNodeEEES5_EENS3_I21CCMenuItemSpriteExtraEENS_8functionIFvvEEEEUlT_E_NS_9allocatorISH_EEFvPSB_EE18destroy_deallocateEv
PUBLIC 273bc 0 _ZNSt6__ndk110__function6__funcIZN9uibuilder5BuildIN5geode17BasedButtonSpriteEE12intoMenuItemITkNS_12derived_fromIN7cocos2d6CCNodeEEES5_EENS3_I21CCMenuItemSpriteExtraEENS_8functionIFvvEEEEUlT_E_NS_9allocatorISH_EEFvPSB_EEclEOSK_
PUBLIC 273d8 0 _ZNKSt6__ndk110__function6__funcIZN9uibuilder5BuildIN5geode17BasedButtonSpriteEE12intoMenuItemITkNS_12derived_fromIN7cocos2d6CCNodeEEES5_EENS3_I21CCMenuItemSpriteExtraEENS_8functionIFvvEEEEUlT_E_NS_9allocatorISH_EEFvPSB_EE6targetERKSt9type_info
PUBLIC 273f4 0 _ZNKSt6__ndk110__function6__funcIZN9uibuilder5BuildIN5geode17BasedButtonSpriteEE12intoMenuItemITkNS_12derived_fromIN7cocos2d6CCNodeEEES5_EENS3_I21CCMenuItemSpriteExtraEENS_8functionIFvvEEEEUlT_E_NS_9allocatorISH_EEFvPSB_EE11target_typeEv
PUBLIC 27400 0 std::__ndk1::__throw_bad_function_call[abi:ne180000]()
PUBLIC 27430 0 std::__ndk1::bad_function_call::~bad_function_call()
PUBLIC 27448 0 std::__ndk1::__function::__func<hook133<(anonymous namespace)::hook133Parent>::init(GJGameLevel*)::{lambda()#1}, std::__ndk1::allocator<hook133<(anonymous namespace)::hook133Parent>::init(GJGameLevel*)::{lambda()#1}>, void ()>::~__func()
PUBLIC 2744c 0 std::__ndk1::__function::__func<hook133<(anonymous namespace)::hook133Parent>::init(GJGameLevel*)::{lambda()#1}, std::__ndk1::allocator<hook133<(anonymous namespace)::hook133Parent>::init(GJGameLevel*)::{lambda()#1}>, void ()>::__clone() const
PUBLIC 27474 0 std::__ndk1::__function::__func<hook133<(anonymous namespace)::hook133Parent>::init(GJGameLevel*)::{lambda()#1}, std::__ndk1::allocator<hook133<(anonymous namespace)::hook133Parent>::init(GJGameLevel*)::{lambda()#1}>, void ()>::__clone(std::__ndk1::__function::__base<void ()>*) const
PUBLIC 27488 0 std::__ndk1::__function::__func<hook133<(anonymous namespace)::hook133Parent>::init(GJGameLevel*)::{lambda()#1}, std::__ndk1::allocator<hook133<(anonymous namespace)::hook133Parent>::init(GJGameLevel*)::{lambda()#1}>, void ()>::destroy()
PUBLIC 2748c 0 std::__ndk1::__function::__func<hook133<(anonymous namespace)::hook133Parent>::init(GJGameLevel*)::{lambda()#1}, std::__ndk1::allocator<hook133<(anonymous namespace)::hook133Parent>::init(GJGameLevel*)::{lambda()#1}>, void ()>::destroy_deallocate()
PUBLIC 27490 0 std::__ndk1::__function::__func<hook133<(anonymous namespace)::hook133Parent>::init(GJGameLevel*)::{lambda()#1}, std::__ndk1::allocator<hook133<(anonymous namespace)::hook133Parent>::init(GJGameLevel*)::{lambda()#1}>, void ()>::operator()()
PUBLIC 27598 0 std::__ndk1::__function::__func<hook133<(anonymous namespace)::hook133Parent>::init(GJGameLevel*)::{lambda()#1}, std::__ndk1::allocator<hook133<(anonymous namespace)::hook133Parent>::init(GJGameLevel*)::{lambda()#1}>, void ()>::target(std::type_info const&) const
PUBLIC 275b4 0 std::__ndk1::__function::__func<hook133<(anonymous namespace)::hook133Parent>::init(GJGameLevel*)::{lambda()#1}, std::__ndk1::allocator<hook133<(anonymous namespace)::hook133Parent>::init(GJGameLevel*)::{lambda()#1}>, void ()>::target_type() const
PUBLIC 275c0 0 _ZN9uibuilder5BuildI14PathfinderNodeE6createIJN2gd6stringES5_EQrQDpTL0___XclsrT_6createspfL0p_EEEES2_DpT_
PUBLIC 286a4 0 PathfinderNode::~PathfinderNode()
PUBLIC 287dc 0 PathfinderNode::~PathfinderNode()
PUBLIC 287f4 0 PathfinderNode::keyBackClicked()
PUBLIC 28824 0 cocos2d::CCLayerRGBA::setOpacityModifyRGB(bool)
PUBLIC 28828 0 cocos2d::CCLayerRGBA::isOpacityModifyRGB()
PUBLIC 28830 0 {virtual override thunk({offset(-320)}, PathfinderNode::~PathfinderNode())}
PUBLIC 28838 0 {virtual override thunk({offset(-320)}, PathfinderNode::~PathfinderNode())}
PUBLIC 28854 0 {virtual override thunk({offset(-336)}, PathfinderNode::keyBackClicked())}
PUBLIC 28888 0 cocos2d::CCKeyboardDelegate::keyUp(cocos2d::enumKeyCodes)
PUBLIC 2888c 0 cocos2d::CCMouseDelegate::rightKeyDown()
PUBLIC 28890 0 cocos2d::CCMouseDelegate::rightKeyUp()
PUBLIC 28894 0 cocos2d::CCMouseDelegate::scrollWheel(float, float)
PUBLIC 28898 0 {virtual override thunk({offset(-408)}, cocos2d::CCLayerRGBA::setOpacityModifyRGB(bool))}
PUBLIC 2889c 0 {virtual override thunk({offset(-408)}, cocos2d::CCLayerRGBA::isOpacityModifyRGB())}
PUBLIC 288a4 0 std::__ndk1::__assoc_state<std::__ndk1::vector<unsigned char, std::__ndk1::allocator<unsigned char> > >::move()
PUBLIC 289b0 0 _ZN9uibuilder5BuildI12ButtonSpriteE12intoMenuItemITkNSt6__ndk112derived_fromIN7cocos2d6CCNodeEEES1_EENS0_I21CCMenuItemSpriteExtraEENS4_8functionIFvvEEE
PUBLIC 28c50 0 std::__ndk1::basic_string<char, std::__ndk1::char_traits<char>, std::__ndk1::allocator<char> >::__assign_no_alias<true>(char const*, unsigned long)
PUBLIC 28d04 0 std::__ndk1::basic_string<char, std::__ndk1::char_traits<char>, std::__ndk1::allocator<char> >::__assign_no_alias<false>(char const*, unsigned long)
PUBLIC 28e10 0 std::__ndk1::__async_assoc_state<std::__ndk1::vector<unsigned char, std::__ndk1::allocator<unsigned char> >, std::__ndk1::__async_func<PathfinderNode::init(std::__ndk1::basic_string<char, std::__ndk1::char_traits<char>, std::__ndk1::allocator<char> > const&, std::__ndk1::basic_string<char, std::__ndk1::char_traits<char>, std::__ndk1::allocator<char> > const&)::{lambda()#1}, > >::~__async_assoc_state()
PUBLIC 28e74 0 std::__ndk1::__async_assoc_state<std::__ndk1::vector<unsigned char, std::__ndk1::allocator<unsigned char> >, std::__ndk1::__async_func<PathfinderNode::init(std::__ndk1::basic_string<char, std::__ndk1::char_traits<char>, std::__ndk1::allocator<char> > const&, std::__ndk1::basic_string<char, std::__ndk1::char_traits<char>, std::__ndk1::allocator<char> > const&)::{lambda()#1}, > >::~__async_assoc_state()
PUBLIC 28ee0 0 std::__ndk1::__async_assoc_state<std::__ndk1::vector<unsigned char, std::__ndk1::allocator<unsigned char> >, std::__ndk1::__async_func<PathfinderNode::init(std::__ndk1::basic_string<char, std::__ndk1::char_traits<char>, std::__ndk1::allocator<char> > const&, std::__ndk1::basic_string<char, std::__ndk1::char_traits<char>, std::__ndk1::allocator<char> > const&)::{lambda()#1}, > >::__on_zero_shared()
PUBLIC 28f1c 0 std::__ndk1::__async_assoc_state<std::__ndk1::vector<unsigned char, std::__ndk1::allocator<unsigned char> >, std::__ndk1::__async_func<PathfinderNode::init(std::__ndk1::basic_string<char, std::__ndk1::char_traits<char>, std::__ndk1::allocator<char> > const&, std::__ndk1::basic_string<char, std::__ndk1::char_traits<char>, std::__ndk1::allocator<char> > const&)::{lambda()#1}, > >::__execute()
PUBLIC 29008 0 std::__ndk1::__assoc_sub_state::~__assoc_sub_state()
PUBLIC 29050 0 std::__ndk1::__assoc_state<std::__ndk1::vector<unsigned char, std::__ndk1::allocator<unsigned char> > >::set_value<std::__ndk1::vector<unsigned char, std::__ndk1::allocator<unsigned char> > >(std::__ndk1::vector<unsigned char, std::__ndk1::allocator<unsigned char> >&&)
PUBLIC 2913c 0 std::__ndk1::__throw_future_error[abi:ne180000](std::__ndk1::future_errc)
PUBLIC 29194 0 PathfinderNode::init(std::__ndk1::basic_string<char, std::__ndk1::char_traits<char>, std::__ndk1::allocator<char> > const&, std::__ndk1::basic_string<char, std::__ndk1::char_traits<char>, std::__ndk1::allocator<char> > const&)::{lambda()#1}::operator()() const
PUBLIC 292d8 0 geode::log::error<char const*>(fmt::v11::basic_format_string<char, fmt::v11::type_identity<std::__ndk1::conditional<IsWrappedCocos<char const*>, decltype ((wrapCocosObj<char const*>)((std::declval<char const*>)())), char const*>::type>::type>, char const*&&)
PUBLIC 29358 0 std::__ndk1::__function::__base<void (double)>::~__base()
PUBLIC 2935c 0 std::__ndk1::__function::__func<PathfinderNode::init(std::__ndk1::basic_string<char, std::__ndk1::char_traits<char>, std::__ndk1::allocator<char> > const&, std::__ndk1::basic_string<char, std::__ndk1::char_traits<char>, std::__ndk1::allocator<char> > const&)::{lambda()#1}::operator()() const::{lambda(double)#1}, std::__ndk1::allocator<PathfinderNode::init(std::__ndk1::basic_string<char, std::__ndk1::char_traits<char>, std::__ndk1::allocator<char> > const&, std::__ndk1::basic_string<char, std::__ndk1::char_traits<char>, std::__ndk1::allocator<char> > const&)::{lambda()#1}::operator()() const::{lambda(double)#1}>, void (double)>::~__func()
PUBLIC 29360 0 std::__ndk1::__function::__func<PathfinderNode::init(std::__ndk1::basic_string<char, std::__ndk1::char_traits<char>, std::__ndk1::allocator<char> > const&, std::__ndk1::basic_string<char, std::__ndk1::char_traits<char>, std::__ndk1::allocator<char> > const&)::{lambda()#1}::operator()() const::{lambda(double)#1}, std::__ndk1::allocator<PathfinderNode::init(std::__ndk1::basic_string<char, std::__ndk1::char_traits<char>, std::__ndk1::allocator<char> > const&, std::__ndk1::basic_string<char, std::__ndk1::char_traits<char>, std::__ndk1::allocator<char> > const&)::{lambda()#1}::operator()() const::{lambda(double)#1}>, void (double)>::__clone() const
PUBLIC 29388 0 std::__ndk1::__function::__func<PathfinderNode::init(std::__ndk1::basic_string<char, std::__ndk1::char_traits<char>, std::__ndk1::allocator<char> > const&, std::__ndk1::basic_string<char, std::__ndk1::char_traits<char>, std::__ndk1::allocator<char> > const&)::{lambda()#1}::operator()() const::{lambda(double)#1}, std::__ndk1::allocator<PathfinderNode::init(std::__ndk1::basic_string<char, std::__ndk1::char_traits<char>, std::__ndk1::allocator<char> > const&, std::__ndk1::basic_string<char, std::__ndk1::char_traits<char>, std::__ndk1::allocator<char> > const&)::{lambda()#1}::operator()() const::{lambda(double)#1}>, void (double)>::__clone(std::__ndk1::__function::__base<void (double)>*) const
PUBLIC 2939c 0 std::__ndk1::__function::__func<PathfinderNode::init(std::__ndk1::basic_string<char, std::__ndk1::char_traits<char>, std::__ndk1::allocator<char> > const&, std::__ndk1::basic_string<char, std::__ndk1::char_traits<char>, std::__ndk1::allocator<char> > const&)::{lambda()#1}::operator()() const::{lambda(double)#1}, std::__ndk1::allocator<PathfinderNode::init(std::__ndk1::basic_string<char, std::__ndk1::char_traits<char>, std::__ndk1::allocator<char> > const&, std::__ndk1::basic_string<char, std::__ndk1::char_traits<char>, std::__ndk1::allocator<char> > const&)::{lambda()#1}::operator()() const::{lambda(double)#1}>, void (double)>::destroy()
PUBLIC 293a0 0 std::__ndk1::__function::__func<PathfinderNode::init(std::__ndk1::basic_string<char, std::__ndk1::char_traits<char>, std::__ndk1::allocator<char> > const&, std::__ndk1::basic_string<char, std::__ndk1::char_traits<char>, std::__ndk1::allocator<char> > const&)::{lambda()#1}::operator()() const::{lambda(double)#1}, std::__ndk1::allocator<PathfinderNode::init(std::__ndk1::basic_string<char, std::__ndk1::char_traits<char>, std::__ndk1::allocator<char> > const&, std::__ndk1::basic_string<char, std::__ndk1::char_traits<char>, std::__ndk1::allocator<char> > const&)::{lambda()#1}::operator()() const::{lambda(double)#1}>, void (double)>::destroy_deallocate()
PUBLIC 293a4 0 std::__ndk1::__function::__func<PathfinderNode::init(std::__ndk1::basic_string<char, std::__ndk1::char_traits<char>, std::__ndk1::allocator<char> > const&, std::__ndk1::basic_string<char, std::__ndk1::char_traits<char>, std::__ndk1::allocator<char> > const&)::{lambda()#1}::operator()() const::{lambda(double)#1}, std::__ndk1::allocator<PathfinderNode::init(std::__ndk1::basic_string<char, std::__ndk1::char_traits<char>, std::__ndk1::allocator<char> > const&, std::__ndk1::basic_string<char, std::__ndk1::char_traits<char>, std::__ndk1::allocator<char> > const&)::{lambda()#1}::operator()() const::{lambda(double)#1}>, void (double)>::operator()(double&&)
PUBLIC 293cc 0 std::__ndk1::__function::__func<PathfinderNode::init(std::__ndk1::basic_string<char, std::__ndk1::char_traits<char>, std::__ndk1::allocator<char> > const&, std::__ndk1::basic_string<char, std::__ndk1::char_traits<char>, std::__ndk1::allocator<char> > const&)::{lambda()#1}::operator()() const::{lambda(double)#1}, std::__ndk1::allocator<PathfinderNode::init(std::__ndk1::basic_string<char, std::__ndk1::char_traits<char>, std::__ndk1::allocator<char> > const&, std::__ndk1::basic_string<char, std::__ndk1::char_traits<char>, std::__ndk1::allocator<char> > const&)::{lambda()#1}::operator()() const::{lambda(double)#1}>, void (double)>::target(std::type_info const&) const
PUBLIC 293e8 0 std::__ndk1::__function::__func<PathfinderNode::init(std::__ndk1::basic_string<char, std::__ndk1::char_traits<char>, std::__ndk1::allocator<char> > const&, std::__ndk1::basic_string<char, std::__ndk1::char_traits<char>, std::__ndk1::allocator<char> > const&)::{lambda()#1}::operator()() const::{lambda(double)#1}, std::__ndk1::allocator<PathfinderNode::init(std::__ndk1::basic_string<char, std::__ndk1::char_traits<char>, std::__ndk1::allocator<char> > const&, std::__ndk1::basic_string<char, std::__ndk1::char_traits<char>, std::__ndk1::allocator<char> > const&)::{lambda()#1}::operator()() const::{lambda(double)#1}>, void (double)>::target_type() const
PUBLIC 293f4 0 std::__ndk1::__thread_proxy[abi:ne180000]<std::__ndk1::tuple<std::__ndk1::unique_ptr<std::__ndk1::__thread_struct, std::__ndk1::default_delete<std::__ndk1::unique_ptr> >, void (std::__ndk1::__async_assoc_state<std::__ndk1::vector<unsigned char, std::__ndk1::allocator<unsigned char> >, std::__ndk1::__async_func<PathfinderNode::init(std::__ndk1::basic_string<char, std::__ndk1::char_traits<char>, std::__ndk1::vector<char> > const&, std::__ndk1::basic_string<char, std::__ndk1::char_traits<char>, std::__ndk1::vector<char> > const)::{lambda()#1}, > >::*)(), std::__ndk1::__async_func<PathfinderNode::init(std::__ndk1::basic_string<char, std::__ndk1::char_traits<char>, std::__ndk1::vector<char> > const&, std::__ndk1::basic_string<char, std::__ndk1::char_traits<char>, std::__ndk1::vector<char> > const)::{lambda()#1}, >*> >(std::__ndk1::tuple<std::__ndk1::unique_ptr<std::__ndk1::__thread_struct, std::__ndk1::default_delete<std::__ndk1::unique_ptr> >, void (std::__ndk1::__async_assoc_state<std::__ndk1::vector<unsigned char, std::__ndk1::allocator<unsigned char> >, std::__ndk1::__async_func<PathfinderNode::init(std::__ndk1::basic_string<char, std::__ndk1::char_traits<char>, std::__ndk1::vector<char> > const&, std::__ndk1::basic_string<char, std::__ndk1::char_traits<char>, std::__ndk1::vector<char> > const)::{lambda()#1}, > >::*)(), std::__ndk1::__async_func<PathfinderNode::init(std::__ndk1::basic_string<char, std::__ndk1::char_traits<char>, std::__ndk1::vector<char> > const&, std::__ndk1::basic_string<char, std::__ndk1::char_traits<char>, std::__ndk1::vector<char> > const)::{lambda()#1}, >*>)
PUBLIC 294b4 0 std::__ndk1::unique_ptr<std::__ndk1::tuple<std::__ndk1::unique_ptr<std::__ndk1::__thread_struct, std::__ndk1::default_delete<std::__ndk1::__thread_struct> >, void (std::__ndk1::__async_assoc_state<std::__ndk1::vector<unsigned char, std::__ndk1::allocator<unsigned char> >, std::__ndk1::__async_func<PathfinderNode::init(std::__ndk1::basic_string<char, std::__ndk1::char_traits<char>, std::__ndk1::allocator<char> > const&, std::__ndk1::basic_string<char, std::__ndk1::char_traits<char>, std::__ndk1::allocator<char> > const&)::{lambda()#1}, > >::*)(), std::__ndk1::__async_assoc_state<std::__ndk1::vector<unsigned char, std::__ndk1::allocator<unsigned char> >, std::__ndk1::__async_func<PathfinderNode::init(std::__ndk1::basic_string<char, std::__ndk1::char_traits<char>, std::__ndk1::allocator<char> > const&, std::__ndk1::basic_string<char, std::__ndk1::char_traits<char>, std::__ndk1::allocator<char> > const&)::{lambda()#1}, > >*>, std::__ndk1::default_delete<std::__ndk1::tuple<std::__ndk1::unique_ptr<std::__ndk1::__thread_struct, std::__ndk1::default_delete<std::__ndk1::__thread_struct> >, void (std::__ndk1::__async_assoc_state<std::__ndk1::vector<unsigned char, std::__ndk1::allocator<unsigned char> >, std::__ndk1::__async_func<PathfinderNode::init(std::__ndk1::basic_string<char, std::__ndk1::char_traits<char>, std::__ndk1::allocator<char> > const&, std::__ndk1::basic_string<char, std::__ndk1::char_traits<char>, std::__ndk1::allocator<char> > const&)::{lambda()#1}, > >::*)(), std::__ndk1::__async_assoc_state<std::__ndk1::vector<unsigned char, std::__ndk1::allocator<unsigned char> >, std::__ndk1::__async_func<PathfinderNode::init(std::__ndk1::basic_string<char, std::__ndk1::char_traits<char>, std::__ndk1::allocator<char> > const&, std::__ndk1::basic_string<char, std::__ndk1::char_traits<char>, std::__ndk1::allocator<char> > const&)::{lambda()#1}, > >*> > >::~unique_ptr[abi:ne180000]()
PUBLIC 29500 0 std::__ndk1::unique_ptr<std::__ndk1::__thread_struct, std::__ndk1::default_delete<std::__ndk1::__thread_struct> >::~unique_ptr[abi:ne180000]()
PUBLIC 2952c 0 uibuilder::BuildSchedule::onSchedule(float)
PUBLIC 29590 0 uibuilder::BuildSchedule::~BuildSchedule()
PUBLIC 295e0 0 uibuilder::BuildSchedule::~BuildSchedule()
PUBLIC 29638 0 std::__ndk1::__function::__base<void (float)>::~__base()
PUBLIC 2963c 0 std::__ndk1::__function::__func<PathfinderNode::init(std::__ndk1::basic_string<char, std::__ndk1::char_traits<char>, std::__ndk1::allocator<char> > const&, std::__ndk1::basic_string<char, std::__ndk1::char_traits<char>, std::__ndk1::allocator<char> > const&)::{lambda(float)#1}, std::__ndk1::allocator<PathfinderNode::init(std::__ndk1::basic_string<char, std::__ndk1::char_traits<char>, std::__ndk1::allocator<char> > const&, std::__ndk1::basic_string<char, std::__ndk1::char_traits<char>, std::__ndk1::allocator<char> > const&)::{lambda(float)#1}>, void (float)>::~__func()
PUBLIC 29640 0 std::__ndk1::__function::__func<PathfinderNode::init(std::__ndk1::basic_string<char, std::__ndk1::char_traits<char>, std::__ndk1::allocator<char> > const&, std::__ndk1::basic_string<char, std::__ndk1::char_traits<char>, std::__ndk1::allocator<char> > const&)::{lambda(float)#1}, std::__ndk1::allocator<PathfinderNode::init(std::__ndk1::basic_string<char, std::__ndk1::char_traits<char>, std::__ndk1::allocator<char> > const&, std::__ndk1::basic_string<char, std::__ndk1::char_traits<char>, std::__ndk1::allocator<char> > const&)::{lambda(float)#1}>, void (float)>::__clone() const
PUBLIC 29668 0 std::__ndk1::__function::__func<PathfinderNode::init(std::__ndk1::basic_string<char, std::__ndk1::char_traits<char>, std::__ndk1::allocator<char> > const&, std::__ndk1::basic_string<char, std::__ndk1::char_traits<char>, std::__ndk1::allocator<char> > const&)::{lambda(float)#1}, std::__ndk1::allocator<PathfinderNode::init(std::__ndk1::basic_string<char, std::__ndk1::char_traits<char>, std::__ndk1::allocator<char> > const&, std::__ndk1::basic_string<char, std::__ndk1::char_traits<char>, std::__ndk1::allocator<char> > const&)::{lambda(float)#1}>, void (float)>::__clone(std::__ndk1::__function::__base<void (float)>*) const
PUBLIC 2967c 0 std::__ndk1::__function::__func<PathfinderNode::init(std::__ndk1::basic_string<char, std::__ndk1::char_traits<char>, std::__ndk1::allocator<char> > const&, std::__ndk1::basic_string<char, std::__ndk1::char_traits<char>, std::__ndk1::allocator<char> > const&)::{lambda(float)#1}, std::__ndk1::allocator<PathfinderNode::init(std::__ndk1::basic_string<char, std::__ndk1::char_traits<char>, std::__ndk1::allocator<char> > const&, std::__ndk1::basic_string<char, std::__ndk1::char_traits<char>, std::__ndk1::allocator<char> > const&)::{lambda(float)#1}>, void (float)>::destroy()
PUBLIC 29680 0 std::__ndk1::__function::__func<PathfinderNode::init(std::__ndk1::basic_string<char, std::__ndk1::char_traits<char>, std::__ndk1::allocator<char> > const&, std::__ndk1::basic_string<char, std::__ndk1::char_traits<char>, std::__ndk1::allocator<char> > const&)::{lambda(float)#1}, std::__ndk1::allocator<PathfinderNode::init(std::__ndk1::basic_string<char, std::__ndk1::char_traits<char>, std::__ndk1::allocator<char> > const&, std::__ndk1::basic_string<char, std::__ndk1::char_traits<char>, std::__ndk1::allocator<char> > const&)::{lambda(float)#1}>, void (float)>::destroy_deallocate()
PUBLIC 29684 0 std::__ndk1::__function::__func<PathfinderNode::init(std::__ndk1::basic_string<char, std::__ndk1::char_traits<char>, std::__ndk1::allocator<char> > const&, std::__ndk1::basic_string<char, std::__ndk1::char_traits<char>, std::__ndk1::allocator<char> > const&)::{lambda(float)#1}, std::__ndk1::allocator<PathfinderNode::init(std::__ndk1::basic_string<char, std::__ndk1::char_traits<char>, std::__ndk1::allocator<char> > const&, std::__ndk1::basic_string<char, std::__ndk1::char_traits<char>, std::__ndk1::allocator<char> > const&)::{lambda(float)#1}>, void (float)>::operator()(float&&)
PUBLIC 29a68 0 std::__ndk1::__function::__func<PathfinderNode::init(std::__ndk1::basic_string<char, std::__ndk1::char_traits<char>, std::__ndk1::allocator<char> > const&, std::__ndk1::basic_string<char, std::__ndk1::char_traits<char>, std::__ndk1::allocator<char> > const&)::{lambda(float)#1}, std::__ndk1::allocator<PathfinderNode::init(std::__ndk1::basic_string<char, std::__ndk1::char_traits<char>, std::__ndk1::allocator<char> > const&, std::__ndk1::basic_string<char, std::__ndk1::char_traits<char>, std::__ndk1::allocator<char> > const&)::{lambda(float)#1}>, void (float)>::target(std::type_info const&) const
PUBLIC 29a84 0 std::__ndk1::__function::__func<PathfinderNode::init(std::__ndk1::basic_string<char, std::__ndk1::char_traits<char>, std::__ndk1::allocator<char> > const&, std::__ndk1::basic_string<char, std::__ndk1::char_traits<char>, std::__ndk1::allocator<char> > const&)::{lambda(float)#1}, std::__ndk1::allocator<PathfinderNode::init(std::__ndk1::basic_string<char, std::__ndk1::char_traits<char>, std::__ndk1::allocator<char> > const&, std::__ndk1::basic_string<char, std::__ndk1::char_traits<char>, std::__ndk1::allocator<char> > const&)::{lambda(float)#1}>, void (float)>::target_type() const
PUBLIC 29a90 0 PathfinderNode::finalize(std::__ndk1::vector<unsigned char, std::__ndk1::allocator<unsigned char> >)
PUBLIC 29d04 0 fmt::v11::detail::value<fmt::v11::context>::format_custom_arg<std::__ndk1::atomic<double>, fmt::v11::formatter<std::__ndk1::atomic<double>, char, void> >(void*, fmt::v11::basic_format_parse_context<char>&, fmt::v11::context&)
PUBLIC 29ec4 0 fmt::v11::detail::parse_format_specs<char>(char const*, char const*, fmt::v11::detail::dynamic_format_specs<char>&, fmt::v11::basic_format_parse_context<char>&, fmt::v11::detail::type)
PUBLIC 2a374 0 fmt::v11::detail::parse_dynamic_spec<char>(char const*, char const*, int&, fmt::v11::detail::arg_ref<char>&, fmt::v11::basic_format_parse_context<char>&)
PUBLIC 2a514 0 fmt::v11::detail::do_parse_arg_id<char, fmt::v11::detail::dynamic_spec_id_handler<char>&>(char const*, char const*, fmt::v11::detail::dynamic_spec_id_handler<char>&)
PUBLIC 2a6a4 0 fmt::v11::detail::handle_dynamic_spec<fmt::v11::detail::width_checker, fmt::v11::context>(int&, fmt::v11::detail::arg_ref<fmt::v11::context::char_type>, fmt::v11::context&)
PUBLIC 2a7ac 0 fmt::v11::detail::handle_dynamic_spec<fmt::v11::detail::precision_checker, fmt::v11::context>(int&, fmt::v11::detail::arg_ref<fmt::v11::context::char_type>, fmt::v11::context&)
PUBLIC 2a8b4 0 fmt::v11::detail::write_float<char, fmt::v11::basic_appender<char>, double>(fmt::v11::basic_appender<char>, double, fmt::v11::format_specs, fmt::v11::detail::locale_ref)
PUBLIC 2ac34 0 _ZN3fmt3v116detail15format_hexfloatIdTnNSt6__ndk19enable_ifIXntsr16is_double_doubleIT_EE5valueEiE4typeELi0EEEvS5_NS0_12format_specsERNS1_6bufferIcEE
PUBLIC 2b150 0 fmt::v11::detail::format_float<double>(double, int, fmt::v11::detail::float_specs, fmt::v11::detail::buffer<char>&)
PUBLIC 2b944 0 fmt::v11::detail::write_padded<char, (fmt::v11::align::type)1, fmt::v11::basic_appender<char>, fmt::v11::detail::write_nonfinite<char, fmt::v11::basic_appender<char> >(fmt::v11::basic_appender<char>, bool, fmt::v11::format_specs, fmt::v11::sign::type)::{lambda(fmt::v11::basic_appender<char>&)#1}>(fmt::v11::basic_appender<char>, fmt::v11::format_specs const&, unsigned long, unsigned long, fmt::v11::detail::write_nonfinite<char, fmt::v11::basic_appender<char> >(fmt::v11::basic_appender<char>, bool, fmt::v11::format_specs, fmt::v11::sign::type)::{lambda(fmt::v11::basic_appender<char>&)#1})
PUBLIC 2bb98 0 fmt::v11::detail::fill<char, fmt::v11::basic_appender<char> >(fmt::v11::basic_appender<char>, unsigned long, fmt::v11::detail::fill_t const&)
PUBLIC 2bd5c 0 fmt::v11::basic_memory_buffer<char, (unsigned long)500, std::__ndk1::allocator<char> >::grow(fmt::v11::detail::buffer<char>&, unsigned long)
PUBLIC 2bdd0 0 fmt::v11::detail::copy_noinline<char, char*, fmt::v11::basic_appender<char> >(char*, char*, fmt::v11::basic_appender<char>)
PUBLIC 2bf1c 0 fmt::v11::detail::write_padded<char, (fmt::v11::align::type)2, fmt::v11::basic_appender<char>, fmt::v11::detail::write_bytes<char, (fmt::v11::align::type)2, fmt::v11::basic_appender<char> >(fmt::v11::basic_appender<char>, fmt::v11::basic_string_view<char>, fmt::v11::format_specs const&)::{lambda(fmt::v11::basic_appender<char>&)#1}>(fmt::v11::basic_appender<char>, fmt::v11::format_specs const&, unsigned long, unsigned long, fmt::v11::detail::write_bytes<char, (fmt::v11::align::type)2, fmt::v11::basic_appender<char> >(fmt::v11::basic_appender<char>, fmt::v11::basic_string_view<char>, fmt::v11::format_specs const&)::{lambda(fmt::v11::basic_appender<char>&)#1})
PUBLIC 2c100 0 _ZN3fmt3v116detail5writeIcNS0_14basic_appenderIcEEjTnNSt6__ndk19enable_ifIXaaaasr11is_integralIT1_EE5valuentsr3std7is_sameIS7_bEE5valuentsr3std7is_sameIS7_T_EE5valueEiE4typeELi0EEET0_SB_S7_
PUBLIC 2c2e0 0 _ZN3fmt3v116detail5writeIcNS0_14basic_appenderIcEEmTnNSt6__ndk19enable_ifIXaaaasr11is_integralIT1_EE5valuentsr3std7is_sameIS7_bEE5valuentsr3std7is_sameIS7_T_EE5valueEiE4typeELi0EEET0_SB_S7_
PUBLIC 2c4e8 0 fmt::v11::detail::format_dragon(fmt::v11::detail::basic_fp<unsigned __int128>, unsigned int, int, fmt::v11::detail::buffer<char>&, int&)
PUBLIC 2d904 0 fmt::v11::format_error::runtime_error(char const*)
PUBLIC 2d924 0 fmt::v11::format_error::~format_error()
PUBLIC 2d93c 0 fmt::v11::detail::bigint::operator<<=(int)
PUBLIC 2da5c 0 fmt::v11::detail::bigint::assign_pow10(int)
PUBLIC 2dbec 0 fmt::v11::detail::bigint::divmod_assign(fmt::v11::detail::bigint const&)
PUBLIC 2df08 0 fmt::v11::basic_memory_buffer<unsigned int, (unsigned long)32, std::__ndk1::allocator<unsigned int> >::grow(fmt::v11::detail::buffer<unsigned int>&, unsigned long)
PUBLIC 2dfa4 0 fmt::v11::detail::bigint::square()
PUBLIC 2e544 0 fmt::v11::detail::do_write_float<char, fmt::v11::basic_appender<char>, fmt::v11::detail::big_decimal_fp, fmt::v11::detail::digit_grouping<char> >(fmt::v11::basic_appender<char>, fmt::v11::detail::big_decimal_fp const&, fmt::v11::format_specs const&, fmt::v11::detail::float_specs, fmt::v11::detail::locale_ref)
PUBLIC 2ec0c 0 fmt::v11::detail::do_write_float<char, fmt::v11::basic_appender<char>, fmt::v11::detail::big_decimal_fp, fmt::v11::detail::digit_grouping<char> >(fmt::v11::basic_appender<char>, fmt::v11::detail::big_decimal_fp const&, fmt::v11::format_specs const&, fmt::v11::detail::float_specs, fmt::v11::detail::locale_ref)::{lambda(fmt::v11::basic_appender<char>(fmt::v11::basic_appender<char>))#1}::operator() const
PUBLIC 2ed68 0 fmt::v11::detail::digit_grouping<char>::digit_grouping(fmt::v11::detail::locale_ref, bool)
PUBLIC 2ef14 0 fmt::v11::detail::digit_grouping<char>::~digit_grouping()
PUBLIC 2ef48 0 fmt::v11::detail::write_exponent<char, fmt::v11::basic_appender<char> >(int, fmt::v11::basic_appender<char>)
PUBLIC 2f114 0 fmt::v11::detail::copy_noinline<char, char const*, fmt::v11::basic_appender<char> >(char const*, char const*, fmt::v11::basic_appender<char>)
PUBLIC 2f260 0 fmt::v11::detail::do_write_float<char, fmt::v11::basic_appender<char>, fmt::v11::detail::big_decimal_fp, fmt::v11::detail::digit_grouping<char> >(fmt::v11::basic_appender<char>, fmt::v11::detail::big_decimal_fp const&, fmt::v11::format_specs const&, fmt::v11::detail::float_specs, fmt::v11::detail::locale_ref)::{lambda(fmt::v11::basic_appender<char>(fmt::v11::basic_appender<char>))#2}::operator() const
PUBLIC 2f390 0 fmt::v11::detail::write_significand<char, fmt::v11::basic_appender<char>, char const*, fmt::v11::detail::digit_grouping<char> >(fmt::v11::basic_appender<char>, char const*, int, int, fmt::v11::detail::digit_grouping<char> const&)
PUBLIC 2f76c 0 fmt::v11::detail::digit_grouping<char>::apply<fmt::v11::basic_appender<char>, char>(fmt::v11::basic_appender<char>, fmt::v11::basic_string_view<char>) const
PUBLIC 2fb18 0 fmt::v11::basic_memory_buffer<int, (unsigned long)500, std::__ndk1::allocator<int> >::grow(fmt::v11::detail::buffer<int>&, unsigned long)
PUBLIC 2fbb4 0 fmt::v11::detail::write_padded<char, (fmt::v11::align::type)2, fmt::v11::basic_appender<char>, fmt::v11::detail::do_write_float<char, fmt::v11::basic_appender<char>, fmt::v11::detail::big_decimal_fp, fmt::v11::detail::digit_grouping<char> >(fmt::v11::basic_appender<char>, fmt::v11::detail::big_decimal_fp const&, fmt::v11::format_specs const&, fmt::v11::detail::float_specs, fmt::v11::detail::locale_ref)::{lambda(fmt::v11::basic_appender<char>&)#3}>(fmt::v11::basic_appender<char>, fmt::v11::format_specs const&, unsigned long, unsigned long, fmt::v11::detail::do_write_float<char, fmt::v11::basic_appender<char>, fmt::v11::detail::big_decimal_fp, fmt::v11::detail::digit_grouping<char> >(fmt::v11::basic_appender<char>, fmt::v11::detail::big_decimal_fp const&, fmt::v11::format_specs const&, fmt::v11::detail::float_specs, fmt::v11::detail::locale_ref)::{lambda(fmt::v11::basic_appender<char>&)#3})
PUBLIC 2fd34 0 fmt::v11::detail::write_significand<fmt::v11::basic_appender<char>, char, char const*, fmt::v11::detail::digit_grouping<char> >(fmt::v11::basic_appender<char>, char const*, int, int, char, fmt::v11::detail::digit_grouping<char> const&)
PUBLIC 2ff44 0 fmt::v11::detail::do_write_float<char, fmt::v11::basic_appender<char>, fmt::v11::detail::big_decimal_fp, fmt::v11::detail::digit_grouping<char> >(fmt::v11::basic_appender<char>, fmt::v11::detail::big_decimal_fp const&, fmt::v11::format_specs const&, fmt::v11::detail::float_specs, fmt::v11::detail::locale_ref)::{lambda(fmt::v11::basic_appender<char>(fmt::v11::basic_appender<char>))#4}::operator() const
PUBLIC 301b8 0 fmt::v11::detail::get_dynamic_spec<fmt::v11::detail::width_checker, fmt::v11::basic_format_arg<fmt::v11::context> >(fmt::v11::basic_format_arg<fmt::v11::context>)
PUBLIC 30248 0 fmt::v11::basic_format_args<fmt::v11::context>::get<char>(fmt::v11::basic_string_view<char>) const
PUBLIC 30394 0 fmt::v11::detail::get_dynamic_spec<fmt::v11::detail::precision_checker, fmt::v11::basic_format_arg<fmt::v11::context> >(fmt::v11::basic_format_arg<fmt::v11::context>)
PUBLIC 30424 0 std::__ndk1::vector<unsigned char, std::__ndk1::allocator<unsigned char> >::__throw_length_error[abi:ne180000]() const
PUBLIC 30434 0 std::__ndk1::__function::__func<PathfinderNode::finalize(std::__ndk1::vector<unsigned char, std::__ndk1::allocator<unsigned char> >)::{lambda()#1}, std::__ndk1::allocator<PathfinderNode::finalize(std::__ndk1::vector<unsigned char, std::__ndk1::allocator<unsigned char> >)::{lambda()#1}>, void ()>::~__func()
PUBLIC 30458 0 std::__ndk1::__function::__func<PathfinderNode::finalize(std::__ndk1::vector<unsigned char, std::__ndk1::allocator<unsigned char> >)::{lambda()#1}, std::__ndk1::allocator<PathfinderNode::finalize(std::__ndk1::vector<unsigned char, std::__ndk1::allocator<unsigned char> >)::{lambda()#1}>, void ()>::~__func()
PUBLIC 3048c 0 std::__ndk1::__function::__func<PathfinderNode::finalize(std::__ndk1::vector<unsigned char, std::__ndk1::allocator<unsigned char> >)::{lambda()#1}, std::__ndk1::allocator<PathfinderNode::finalize(std::__ndk1::vector<unsigned char, std::__ndk1::allocator<unsigned char> >)::{lambda()#1}>, void ()>::__clone() const
PUBLIC 3053c 0 std::__ndk1::__function::__func<PathfinderNode::finalize(std::__ndk1::vector<unsigned char, std::__ndk1::allocator<unsigned char> >)::{lambda()#1}, std::__ndk1::allocator<PathfinderNode::finalize(std::__ndk1::vector<unsigned char, std::__ndk1::allocator<unsigned char> >)::{lambda()#1}>, void ()>::__clone(std::__ndk1::__function::__base<void ()>*) const
PUBLIC 305d4 0 std::__ndk1::__function::__func<PathfinderNode::finalize(std::__ndk1::vector<unsigned char, std::__ndk1::allocator<unsigned char> >)::{lambda()#1}, std::__ndk1::allocator<PathfinderNode::finalize(std::__ndk1::vector<unsigned char, std::__ndk1::allocator<unsigned char> >)::{lambda()#1}>, void ()>::destroy()
PUBLIC 305ec 0 std::__ndk1::__function::__func<PathfinderNode::finalize(std::__ndk1::vector<unsigned char, std::__ndk1::allocator<unsigned char> >)::{lambda()#1}, std::__ndk1::allocator<PathfinderNode::finalize(std::__ndk1::vector<unsigned char, std::__ndk1::allocator<unsigned char> >)::{lambda()#1}>, void ()>::destroy_deallocate()
PUBLIC 30614 0 std::__ndk1::__function::__func<PathfinderNode::finalize(std::__ndk1::vector<unsigned char, std::__ndk1::allocator<unsigned char> >)::{lambda()#1}, std::__ndk1::allocator<PathfinderNode::finalize(std::__ndk1::vector<unsigned char, std::__ndk1::allocator<unsigned char> >)::{lambda()#1}>, void ()>::operator()()
PUBLIC 3139c 0 std::__ndk1::__function::__func<PathfinderNode::finalize(std::__ndk1::vector<unsigned char, std::__ndk1::allocator<unsigned char> >)::{lambda()#1}, std::__ndk1::allocator<PathfinderNode::finalize(std::__ndk1::vector<unsigned char, std::__ndk1::allocator<unsigned char> >)::{lambda()#1}>, void ()>::target(std::type_info const&) const
PUBLIC 313b8 0 std::__ndk1::__function::__func<PathfinderNode::finalize(std::__ndk1::vector<unsigned char, std::__ndk1::allocator<unsigned char> >)::{lambda()#1}, std::__ndk1::allocator<PathfinderNode::finalize(std::__ndk1::vector<unsigned char, std::__ndk1::allocator<unsigned char> >)::{lambda()#1}>, void ()>::target_type() const
PUBLIC 313c4 0 geode::Task<geode::Result<std::__ndk1::__fs::filesystem::path, std::__ndk1::basic_string<char, std::__ndk1::char_traits<char>, std::__ndk1::allocator<char> > >, std::__ndk1::monostate>::~Task()
PUBLIC 31404 0 geode::utils::file::FilePickOptions::~FilePickOptions()
PUBLIC 31488 0 geode::utils::file::FilePickOptions::Filter::~Filter()
PUBLIC 314f8 0 std::__ndk1::__fs::filesystem::path::operator/=[abi:ne180000](std::__ndk1::__fs::filesystem::path const&)
PUBLIC 315dc 0 std::__ndk1::__hash_table<std::__ndk1::basic_string<char, std::__ndk1::char_traits<char>, std::__ndk1::allocator<char> >, std::__ndk1::hash<std::__ndk1::basic_string<char, std::__ndk1::char_traits<char>, std::__ndk1::allocator<char> > >, std::__ndk1::equal_to<std::__ndk1::basic_string<char, std::__ndk1::char_traits<char>, std::__ndk1::allocator<char> > >, std::__ndk1::allocator<std::__ndk1::basic_string<char, std::__ndk1::char_traits<char>, std::__ndk1::allocator<char> > > >::~__hash_table()
PUBLIC 3163c 0 std::__ndk1::__hash_table<std::__ndk1::basic_string<char, std::__ndk1::char_traits<char>, std::__ndk1::allocator<char> >, std::__ndk1::hash<std::__ndk1::basic_string<char, std::__ndk1::char_traits<char>, std::__ndk1::allocator<char> > >, std::__ndk1::equal_to<std::__ndk1::basic_string<char, std::__ndk1::char_traits<char>, std::__ndk1::allocator<char> > >, std::__ndk1::allocator<std::__ndk1::basic_string<char, std::__ndk1::char_traits<char>, std::__ndk1::allocator<char> > > >::__emplace_unique_key_args<std::__ndk1::basic_string<char, std::__ndk1::char_traits<char>, std::__ndk1::allocator<char> >, std::__ndk1::basic_string<char, std::__ndk1::char_traits<char>, std::__ndk1::allocator<char> > const&>(std::__ndk1::basic_string<char, std::__ndk1::char_traits<char>, std::__ndk1::allocator<char> > const&, std::__ndk1::basic_string<char, std::__ndk1::char_traits<char>, std::__ndk1::allocator<char> > const&)
PUBLIC 31a9c 0 std::__ndk1::unique_ptr<std::__ndk1::__hash_node<std::__ndk1::basic_string<char, std::__ndk1::char_traits<char>, std::__ndk1::allocator<char> >, void*>, std::__ndk1::__hash_node_destructor<std::__ndk1::allocator<std::__ndk1::__hash_node<std::__ndk1::basic_string<char, std::__ndk1::char_traits<char>, std::__ndk1::allocator<char> >, void*> > > >::~unique_ptr[abi:ne180000]()
PUBLIC 31ae0 0 std::__ndk1::__murmur2_or_cityhash<unsigned long, (unsigned long)64>::operator()[abi:ne180000](void const*, unsigned long) const
PUBLIC 31f2c 0 std::__ndk1::__hash_table<std::__ndk1::basic_string<char, std::__ndk1::char_traits<char>, std::__ndk1::allocator<char> >, std::__ndk1::hash<std::__ndk1::basic_string<char, std::__ndk1::char_traits<char>, std::__ndk1::allocator<char> > >, std::__ndk1::equal_to<std::__ndk1::basic_string<char, std::__ndk1::char_traits<char>, std::__ndk1::allocator<char> > >, std::__ndk1::allocator<std::__ndk1::basic_string<char, std::__ndk1::char_traits<char>, std::__ndk1::allocator<char> > > >::__do_rehash<true>(unsigned long)
PUBLIC 320d4 0 std::__ndk1::__exception_guard_exceptions<std::__ndk1::_AllocatorDestroyRangeReverse<std::__ndk1::allocator<geode::utils::file::FilePickOptions::Filter>, geode::utils::file::FilePickOptions::Filter*> >::~__exception_guard_exceptions[abi:ne180000]()
PUBLIC 32174 0 std::__ndk1::vector<geode::utils::file::FilePickOptions::Filter, std::__ndk1::allocator<geode::utils::file::FilePickOptions::Filter> >::__destroy_vector::operator()[abi:ne180000]()
PUBLIC 32254 0 geode::EventListener<geode::Task<geode::Result<std::__ndk1::__fs::filesystem::path, std::__ndk1::basic_string<char, std::__ndk1::char_traits<char>, std::__ndk1::allocator<char> > >, std::__ndk1::monostate> >::getPool() const
PUBLIC 32258 0 geode::EventListener<geode::Task<geode::Result<std::__ndk1::__fs::filesystem::path, std::__ndk1::basic_string<char, std::__ndk1::char_traits<char>, std::__ndk1::allocator<char> > >, std::__ndk1::monostate> >::handle(geode::Event*)
PUBLIC 323f8 0 geode::EventListener<geode::Task<geode::Result<std::__ndk1::__fs::filesystem::path, std::__ndk1::basic_string<char, std::__ndk1::char_traits<char>, std::__ndk1::allocator<char> > >, std::__ndk1::monostate> >::~EventListener()
PUBLIC 32490 0 geode::EventListener<geode::Task<geode::Result<std::__ndk1::__fs::filesystem::path, std::__ndk1::basic_string<char, std::__ndk1::char_traits<char>, std::__ndk1::allocator<char> > >, std::__ndk1::monostate> >::~EventListener()
PUBLIC 32530 0 geode::Task<geode::Result<std::__ndk1::__fs::filesystem::path, std::__ndk1::basic_string<char, std::__ndk1::char_traits<char>, std::__ndk1::allocator<char> > >, std::__ndk1::monostate>::setListener(geode::EventListenerProtocol*)::{lambda()#1}::~{lambda()#1}()
PUBLIC 32570 0 std::__ndk1::__function::__func<geode::Task<geode::Result<std::__ndk1::__fs::filesystem::path, std::__ndk1::basic_string<char, std::__ndk1::char_traits<char>, std::__ndk1::allocator<char> > >, std::__ndk1::monostate>::setListener(geode::EventListenerProtocol*)::{lambda()#1}, std::__ndk1::allocator<geode::Task<geode::Result<std::__ndk1::__fs::filesystem::path, std::__ndk1::basic_string<char, std::__ndk1::char_traits<char>, std::__ndk1::allocator<char> > >, std::__ndk1::monostate>::setListener(geode::EventListenerProtocol*)::{lambda()#1}>, void ()>::~__func()
PUBLIC 325bc 0 std::__ndk1::__function::__func<geode::Task<geode::Result<std::__ndk1::__fs::filesystem::path, std::__ndk1::basic_string<char, std::__ndk1::char_traits<char>, std::__ndk1::allocator<char> > >, std::__ndk1::monostate>::setListener(geode::EventListenerProtocol*)::{lambda()#1}, std::__ndk1::allocator<geode::Task<geode::Result<std::__ndk1::__fs::filesystem::path, std::__ndk1::basic_string<char, std::__ndk1::char_traits<char>, std::__ndk1::allocator<char> > >, std::__ndk1::monostate>::setListener(geode::EventListenerProtocol*)::{lambda()#1}>, void ()>::~__func()
PUBLIC 32624 0 std::__ndk1::__function::__func<geode::Task<geode::Result<std::__ndk1::__fs::filesystem::path, std::__ndk1::basic_string<char, std::__ndk1::char_traits<char>, std::__ndk1::allocator<char> > >, std::__ndk1::monostate>::setListener(geode::EventListenerProtocol*)::{lambda()#1}, std::__ndk1::allocator<geode::Task<geode::Result<std::__ndk1::__fs::filesystem::path, std::__ndk1::basic_string<char, std::__ndk1::char_traits<char>, std::__ndk1::allocator<char> > >, std::__ndk1::monostate>::setListener(geode::EventListenerProtocol*)::{lambda()#1}>, void ()>::__clone() const
PUBLIC 32678 0 std::__ndk1::__function::__func<geode::Task<geode::Result<std::__ndk1::__fs::filesystem::path, std::__ndk1::basic_string<char, std::__ndk1::char_traits<char>, std::__ndk1::allocator<char> > >, std::__ndk1::monostate>::setListener(geode::EventListenerProtocol*)::{lambda()#1}, std::__ndk1::allocator<geode::Task<geode::Result<std::__ndk1::__fs::filesystem::path, std::__ndk1::basic_string<char, std::__ndk1::char_traits<char>, std::__ndk1::allocator<char> > >, std::__ndk1::monostate>::setListener(geode::EventListenerProtocol*)::{lambda()#1}>, void ()>::__clone(std::__ndk1::__function::__base<void ()>*) const
PUBLIC 326c0 0 std::__ndk1::__function::__func<geode::Task<geode::Result<std::__ndk1::__fs::filesystem::path, std::__ndk1::basic_string<char, std::__ndk1::char_traits<char>, std::__ndk1::allocator<char> > >, std::__ndk1::monostate>::setListener(geode::EventListenerProtocol*)::{lambda()#1}, std::__ndk1::allocator<geode::Task<geode::Result<std::__ndk1::__fs::filesystem::path, std::__ndk1::basic_string<char, std::__ndk1::char_traits<char>, std::__ndk1::allocator<char> > >, std::__ndk1::monostate>::setListener(geode::EventListenerProtocol*)::{lambda()#1}>, void ()>::destroy()
PUBLIC 32700 0 std::__ndk1::__function::__func<geode::Task<geode::Result<std::__ndk1::__fs::filesystem::path, std::__ndk1::basic_string<char, std::__ndk1::char_traits<char>, std::__ndk1::allocator<char> > >, std::__ndk1::monostate>::setListener(geode::EventListenerProtocol*)::{lambda()#1}, std::__ndk1::allocator<geode::Task<geode::Result<std::__ndk1::__fs::filesystem::path, std::__ndk1::basic_string<char, std::__ndk1::char_traits<char>, std::__ndk1::allocator<char> > >, std::__ndk1::monostate>::setListener(geode::EventListenerProtocol*)::{lambda()#1}>, void ()>::destroy_deallocate()
PUBLIC 3275c 0 std::__ndk1::__function::__func<geode::Task<geode::Result<std::__ndk1::__fs::filesystem::path, std::__ndk1::basic_string<char, std::__ndk1::char_traits<char>, std::__ndk1::allocator<char> > >, std::__ndk1::monostate>::setListener(geode::EventListenerProtocol*)::{lambda()#1}, std::__ndk1::allocator<geode::Task<geode::Result<std::__ndk1::__fs::filesystem::path, std::__ndk1::basic_string<char, std::__ndk1::char_traits<char>, std::__ndk1::allocator<char> > >, std::__ndk1::monostate>::setListener(geode::EventListenerProtocol*)::{lambda()#1}>, void ()>::operator()()
PUBLIC 32920 0 std::__ndk1::__function::__func<geode::Task<geode::Result<std::__ndk1::__fs::filesystem::path, std::__ndk1::basic_string<char, std::__ndk1::char_traits<char>, std::__ndk1::allocator<char> > >, std::__ndk1::monostate>::setListener(geode::EventListenerProtocol*)::{lambda()#1}, std::__ndk1::allocator<geode::Task<geode::Result<std::__ndk1::__fs::filesystem::path, std::__ndk1::basic_string<char, std::__ndk1::char_traits<char>, std::__ndk1::allocator<char> > >, std::__ndk1::monostate>::setListener(geode::EventListenerProtocol*)::{lambda()#1}>, void ()>::target(std::type_info const&) const
PUBLIC 3293c 0 std::__ndk1::__function::__func<geode::Task<geode::Result<std::__ndk1::__fs::filesystem::path, std::__ndk1::basic_string<char, std::__ndk1::char_traits<char>, std::__ndk1::allocator<char> > >, std::__ndk1::monostate>::setListener(geode::EventListenerProtocol*)::{lambda()#1}, std::__ndk1::allocator<geode::Task<geode::Result<std::__ndk1::__fs::filesystem::path, std::__ndk1::basic_string<char, std::__ndk1::char_traits<char>, std::__ndk1::allocator<char> > >, std::__ndk1::monostate>::setListener(geode::EventListenerProtocol*)::{lambda()#1}>, void ()>::target_type() const
PUBLIC 32948 0 geode::Task<geode::Result<std::__ndk1::__fs::filesystem::path, std::__ndk1::basic_string<char, std::__ndk1::char_traits<char>, std::__ndk1::allocator<char> > >, std::__ndk1::monostate>::Event::~Event()
PUBLIC 329a4 0 geode::Task<geode::Result<std::__ndk1::__fs::filesystem::path, std::__ndk1::basic_string<char, std::__ndk1::char_traits<char>, std::__ndk1::allocator<char> > >, std::__ndk1::monostate>::Event::~Event()
PUBLIC 32a10 0 std::__ndk1::__function::__func<geode::Task<geode::Result<std::__ndk1::__fs::filesystem::path, std::__ndk1::basic_string<char, std::__ndk1::char_traits<char>, std::__ndk1::allocator<char> > >, std::__ndk1::monostate>::setListener(geode::EventListenerProtocol*)::{lambda()#2}, std::__ndk1::allocator<geode::Task<geode::Result<std::__ndk1::__fs::filesystem::path, std::__ndk1::basic_string<char, std::__ndk1::char_traits<char>, std::__ndk1::allocator<char> > >, std::__ndk1::monostate>::setListener(geode::EventListenerProtocol*)::{lambda()#2}>, void ()>::~__func()
PUBLIC 32a5c 0 std::__ndk1::__function::__func<geode::Task<geode::Result<std::__ndk1::__fs::filesystem::path, std::__ndk1::basic_string<char, std::__ndk1::char_traits<char>, std::__ndk1::allocator<char> > >, std::__ndk1::monostate>::setListener(geode::EventListenerProtocol*)::{lambda()#2}, std::__ndk1::allocator<geode::Task<geode::Result<std::__ndk1::__fs::filesystem::path, std::__ndk1::basic_string<char, std::__ndk1::char_traits<char>, std::__ndk1::allocator<char> > >, std::__ndk1::monostate>::setListener(geode::EventListenerProtocol*)::{lambda()#2}>, void ()>::~__func()
PUBLIC 32ac4 0 std::__ndk1::__function::__func<geode::Task<geode::Result<std::__ndk1::__fs::filesystem::path, std::__ndk1::basic_string<char, std::__ndk1::char_traits<char>, std::__ndk1::allocator<char> > >, std::__ndk1::monostate>::setListener(geode::EventListenerProtocol*)::{lambda()#2}, std::__ndk1::allocator<geode::Task<geode::Result<std::__ndk1::__fs::filesystem::path, std::__ndk1::basic_string<char, std::__ndk1::char_traits<char>, std::__ndk1::allocator<char> > >, std::__ndk1::monostate>::setListener(geode::EventListenerProtocol*)::{lambda()#2}>, void ()>::__clone() const
PUBLIC 32b18 0 std::__ndk1::__function::__func<geode::Task<geode::Result<std::__ndk1::__fs::filesystem::path, std::__ndk1::basic_string<char, std::__ndk1::char_traits<char>, std::__ndk1::allocator<char> > >, std::__ndk1::monostate>::setListener(geode::EventListenerProtocol*)::{lambda()#2}, std::__ndk1::allocator<geode::Task<geode::Result<std::__ndk1::__fs::filesystem::path, std::__ndk1::basic_string<char, std::__ndk1::char_traits<char>, std::__ndk1::allocator<char> > >, std::__ndk1::monostate>::setListener(geode::EventListenerProtocol*)::{lambda()#2}>, void ()>::__clone(std::__ndk1::__function::__base<void ()>*) const
PUBLIC 32b60 0 std::__ndk1::__function::__func<geode::Task<geode::Result<std::__ndk1::__fs::filesystem::path, std::__ndk1::basic_string<char, std::__ndk1::char_traits<char>, std::__ndk1::allocator<char> > >, std::__ndk1::monostate>::setListener(geode::EventListenerProtocol*)::{lambda()#2}, std::__ndk1::allocator<geode::Task<geode::Result<std::__ndk1::__fs::filesystem::path, std::__ndk1::basic_string<char, std::__ndk1::char_traits<char>, std::__ndk1::allocator<char> > >, std::__ndk1::monostate>::setListener(geode::EventListenerProtocol*)::{lambda()#2}>, void ()>::destroy()
PUBLIC 32ba0 0 std::__ndk1::__function::__func<geode::Task<geode::Result<std::__ndk1::__fs::filesystem::path, std::__ndk1::basic_string<char, std::__ndk1::char_traits<char>, std::__ndk1::allocator<char> > >, std::__ndk1::monostate>::setListener(geode::EventListenerProtocol*)::{lambda()#2}, std::__ndk1::allocator<geode::Task<geode::Result<std::__ndk1::__fs::filesystem::path, std::__ndk1::basic_string<char, std::__ndk1::char_traits<char>, std::__ndk1::allocator<char> > >, std::__ndk1::monostate>::setListener(geode::EventListenerProtocol*)::{lambda()#2}>, void ()>::destroy_deallocate()
PUBLIC 32bfc 0 std::__ndk1::__function::__func<geode::Task<geode::Result<std::__ndk1::__fs::filesystem::path, std::__ndk1::basic_string<char, std::__ndk1::char_traits<char>, std::__ndk1::allocator<char> > >, std::__ndk1::monostate>::setListener(geode::EventListenerProtocol*)::{lambda()#2}, std::__ndk1::allocator<geode::Task<geode::Result<std::__ndk1::__fs::filesystem::path, std::__ndk1::basic_string<char, std::__ndk1::char_traits<char>, std::__ndk1::allocator<char> > >, std::__ndk1::monostate>::setListener(geode::EventListenerProtocol*)::{lambda()#2}>, void ()>::operator()()
PUBLIC 32dbc 0 std::__ndk1::__function::__func<geode::Task<geode::Result<std::__ndk1::__fs::filesystem::path, std::__ndk1::basic_string<char, std::__ndk1::char_traits<char>, std::__ndk1::allocator<char> > >, std::__ndk1::monostate>::setListener(geode::EventListenerProtocol*)::{lambda()#2}, std::__ndk1::allocator<geode::Task<geode::Result<std::__ndk1::__fs::filesystem::path, std::__ndk1::basic_string<char, std::__ndk1::char_traits<char>, std::__ndk1::allocator<char> > >, std::__ndk1::monostate>::setListener(geode::EventListenerProtocol*)::{lambda()#2}>, void ()>::target(std::type_info const&) const
PUBLIC 32dd8 0 std::__ndk1::__function::__func<geode::Task<geode::Result<std::__ndk1::__fs::filesystem::path, std::__ndk1::basic_string<char, std::__ndk1::char_traits<char>, std::__ndk1::allocator<char> > >, std::__ndk1::monostate>::setListener(geode::EventListenerProtocol*)::{lambda()#2}, std::__ndk1::allocator<geode::Task<geode::Result<std::__ndk1::__fs::filesystem::path, std::__ndk1::basic_string<char, std::__ndk1::char_traits<char>, std::__ndk1::allocator<char> > >, std::__ndk1::monostate>::setListener(geode::EventListenerProtocol*)::{lambda()#2}>, void ()>::target_type() const
PUBLIC 32de4 0 geode::cast::traverseTypeinfoFor(void*, geode::cast::ClassTypeinfoType const*, char const*)
PUBLIC 32ecc 0 std::__ndk1::__function::__func<geode::Task<geode::Result<std::__ndk1::__fs::filesystem::path, std::__ndk1::basic_string<char, std::__ndk1::char_traits<char>, std::__ndk1::allocator<char> > >, std::__ndk1::monostate>::listen<PathfinderNode::finalize(std::__ndk1::vector<unsigned char, std::__ndk1::allocator<unsigned char> >)::{lambda()#1}::operator()() const::{lambda(auto:1)#1}, PathfinderNode::finalize(std::__ndk1::vector<unsigned char, std::__ndk1::allocator<unsigned char> >)::{lambda()#1}::operator()() const::{lambda(auto:1)#2}, PathfinderNode::finalize(std::__ndk1::vector<unsigned char, std::__ndk1::allocator<unsigned char> >)::{lambda()#1}::operator()() const::{lambda()#1}>(PathfinderNode::finalize(std::__ndk1::vector<unsigned char, std::__ndk1::allocator<unsigned char> >)::{lambda()#1}::operator()() const::{lambda(auto:1)#1}&&, PathfinderNode::finalize(std::__ndk1::vector<unsigned char, std::__ndk1::allocator<unsigned char> >)::{lambda()#1}::operator()() const::{lambda(auto:1)#2}&&, PathfinderNode::finalize(std::__ndk1::vector<unsigned char, std::__ndk1::allocator<unsigned char> >)::{lambda()#1}::operator()() const::{lambda()#1}&&) const::{lambda(geode::Task<geode::Result<std::__ndk1::__fs::filesystem::path, std::__ndk1::basic_string<char, std::__ndk1::char_traits<char>, std::__ndk1::allocator<char> > >, std::__ndk1::monostate>::Event*)#1}, std::__ndk1::allocator<geode::Task<geode::Result<std::__ndk1::__fs::filesystem::path, std::__ndk1::basic_string<char, std::__ndk1::char_traits<char>, std::__ndk1::allocator<char> > >, std::__ndk1::monostate>::listen<PathfinderNode::finalize(std::__ndk1::vector<unsigned char, std::__ndk1::allocator<unsigned char> >)::{lambda()#1}::operator()() const::{lambda(auto:1)#1}, PathfinderNode::finalize(std::__ndk1::vector<unsigned char, std::__ndk1::allocator<unsigned char> >)::{lambda()#1}::operator()() const::{lambda(auto:1)#2}, PathfinderNode::finalize(std::__ndk1::vector<unsigned char, std::__ndk1::allocator<unsigned char> >)::{lambda()#1}::operator()() const::{lambda()#1}>(PathfinderNode::finalize(std::__ndk1::vector<unsigned char, std::__ndk1::allocator<unsigned char> >)::{lambda()#1}::operator()() const::{lambda(auto:1)#1}&&, PathfinderNode::finalize(std::__ndk1::vector<unsigned char, std::__ndk1::allocator<unsigned char> >)::{lambda()#1}::operator()() const::{lambda(auto:1)#2}&&, PathfinderNode::finalize(std::__ndk1::vector<unsigned char, std::__ndk1::allocator<unsigned char> >)::{lambda()#1}::operator()() const::{lambda()#1}&&) const::{lambda(geode::Task<geode::Result<std::__ndk1::__fs::filesystem::path, std::__ndk1::basic_string<char, std::__ndk1::char_traits<char>, std::__ndk1::allocator<char> > >, std::__ndk1::monostate>::Event*)#1}>, void (geode::Task<geode::Result<std::__ndk1::__fs::filesystem::path, std::__ndk1::basic_string<char, std::__ndk1::char_traits<char>, std::__ndk1::allocator<char> > >, std::__ndk1::monostate>::Event*)>::~__func()
PUBLIC 32ef0 0 std::__ndk1::__function::__func<geode::Task<geode::Result<std::__ndk1::__fs::filesystem::path, std::__ndk1::basic_string<char, std::__ndk1::char_traits<char>, std::__ndk1::allocator<char> > >, std::__ndk1::monostate>::listen<PathfinderNode::finalize(std::__ndk1::vector<unsigned char, std::__ndk1::allocator<unsigned char> >)::{lambda()#1}::operator()() const::{lambda(auto:1)#1}, PathfinderNode::finalize(std::__ndk1::vector<unsigned char, std::__ndk1::allocator<unsigned char> >)::{lambda()#1}::operator()() const::{lambda(auto:1)#2}, PathfinderNode::finalize(std::__ndk1::vector<unsigned char, std::__ndk1::allocator<unsigned char> >)::{lambda()#1}::operator()() const::{lambda()#1}>(PathfinderNode::finalize(std::__ndk1::vector<unsigned char, std::__ndk1::allocator<unsigned char> >)::{lambda()#1}::operator()() const::{lambda(auto:1)#1}&&, PathfinderNode::finalize(std::__ndk1::vector<unsigned char, std::__ndk1::allocator<unsigned char> >)::{lambda()#1}::operator()() const::{lambda(auto:1)#2}&&, PathfinderNode::finalize(std::__ndk1::vector<unsigned char, std::__ndk1::allocator<unsigned char> >)::{lambda()#1}::operator()() const::{lambda()#1}&&) const::{lambda(geode::Task<geode::Result<std::__ndk1::__fs::filesystem::path, std::__ndk1::basic_string<char, std::__ndk1::char_traits<char>, std::__ndk1::allocator<char> > >, std::__ndk1::monostate>::Event*)#1}, std::__ndk1::allocator<geode::Task<geode::Result<std::__ndk1::__fs::filesystem::path, std::__ndk1::basic_string<char, std::__ndk1::char_traits<char>, std::__ndk1::allocator<char> > >, std::__ndk1::monostate>::listen<PathfinderNode::finalize(std::__ndk1::vector<unsigned char, std::__ndk1::allocator<unsigned char> >)::{lambda()#1}::operator()() const::{lambda(auto:1)#1}, PathfinderNode::finalize(std::__ndk1::vector<unsigned char, std::__ndk1::allocator<unsigned char> >)::{lambda()#1}::operator()() const::{lambda(auto:1)#2}, PathfinderNode::finalize(std::__ndk1::vector<unsigned char, std::__ndk1::allocator<unsigned char> >)::{lambda()#1}::operator()() const::{lambda()#1}>(PathfinderNode::finalize(std::__ndk1::vector<unsigned char, std::__ndk1::allocator<unsigned char> >)::{lambda()#1}::operator()() const::{lambda(auto:1)#1}&&, PathfinderNode::finalize(std::__ndk1::vector<unsigned char, std::__ndk1::allocator<unsigned char> >)::{lambda()#1}::operator()() const::{lambda(auto:1)#2}&&, PathfinderNode::finalize(std::__ndk1::vector<unsigned char, std::__ndk1::allocator<unsigned char> >)::{lambda()#1}::operator()() const::{lambda()#1}&&) const::{lambda(geode::Task<geode::Result<std::__ndk1::__fs::filesystem::path, std::__ndk1::basic_string<char, std::__ndk1::char_traits<char>, std::__ndk1::allocator<char> > >, std::__ndk1::monostate>::Event*)#1}>, void (geode::Task<geode::Result<std::__ndk1::__fs::filesystem::path, std::__ndk1::basic_string<char, std::__ndk1::char_traits<char>, std::__ndk1::allocator<char> > >, std::__ndk1::monostate>::Event*)>::~__func()
PUBLIC 32f24 0 std::__ndk1::__function::__func<geode::Task<geode::Result<std::__ndk1::__fs::filesystem::path, std::__ndk1::basic_string<char, std::__ndk1::char_traits<char>, std::__ndk1::allocator<char> > >, std::__ndk1::monostate>::listen<PathfinderNode::finalize(std::__ndk1::vector<unsigned char, std::__ndk1::allocator<unsigned char> >)::{lambda()#1}::operator()() const::{lambda(auto:1)#1}, PathfinderNode::finalize(std::__ndk1::vector<unsigned char, std::__ndk1::allocator<unsigned char> >)::{lambda()#1}::operator()() const::{lambda(auto:1)#2}, PathfinderNode::finalize(std::__ndk1::vector<unsigned char, std::__ndk1::allocator<unsigned char> >)::{lambda()#1}::operator()() const::{lambda()#1}>(PathfinderNode::finalize(std::__ndk1::vector<unsigned char, std::__ndk1::allocator<unsigned char> >)::{lambda()#1}::operator()() const::{lambda(auto:1)#1}&&, PathfinderNode::finalize(std::__ndk1::vector<unsigned char, std::__ndk1::allocator<unsigned char> >)::{lambda()#1}::operator()() const::{lambda(auto:1)#2}&&, PathfinderNode::finalize(std::__ndk1::vector<unsigned char, std::__ndk1::allocator<unsigned char> >)::{lambda()#1}::operator()() const::{lambda()#1}&&) const::{lambda(geode::Task<geode::Result<std::__ndk1::__fs::filesystem::path, std::__ndk1::basic_string<char, std::__ndk1::char_traits<char>, std::__ndk1::allocator<char> > >, std::__ndk1::monostate>::Event*)#1}, std::__ndk1::allocator<geode::Task<geode::Result<std::__ndk1::__fs::filesystem::path, std::__ndk1::basic_string<char, std::__ndk1::char_traits<char>, std::__ndk1::allocator<char> > >, std::__ndk1::monostate>::listen<PathfinderNode::finalize(std::__ndk1::vector<unsigned char, std::__ndk1::allocator<unsigned char> >)::{lambda()#1}::operator()() const::{lambda(auto:1)#1}, PathfinderNode::finalize(std::__ndk1::vector<unsigned char, std::__ndk1::allocator<unsigned char> >)::{lambda()#1}::operator()() const::{lambda(auto:1)#2}, PathfinderNode::finalize(std::__ndk1::vector<unsigned char, std::__ndk1::allocator<unsigned char> >)::{lambda()#1}::operator()() const::{lambda()#1}>(PathfinderNode::finalize(std::__ndk1::vector<unsigned char, std::__ndk1::allocator<unsigned char> >)::{lambda()#1}::operator()() const::{lambda(auto:1)#1}&&, PathfinderNode::finalize(std::__ndk1::vector<unsigned char, std::__ndk1::allocator<unsigned char> >)::{lambda()#1}::operator()() const::{lambda(auto:1)#2}&&, PathfinderNode::finalize(std::__ndk1::vector<unsigned char, std::__ndk1::allocator<unsigned char> >)::{lambda()#1}::operator()() const::{lambda()#1}&&) const::{lambda(geode::Task<geode::Result<std::__ndk1::__fs::filesystem::path, std::__ndk1::basic_string<char, std::__ndk1::char_traits<char>, std::__ndk1::allocator<char> > >, std::__ndk1::monostate>::Event*)#1}>, void (geode::Task<geode::Result<std::__ndk1::__fs::filesystem::path, std::__ndk1::basic_string<char, std::__ndk1::char_traits<char>, std::__ndk1::allocator<char> > >, std::__ndk1::monostate>::Event*)>::__clone() const
PUBLIC 32fdc 0 std::__ndk1::__function::__func<geode::Task<geode::Result<std::__ndk1::__fs::filesystem::path, std::__ndk1::basic_string<char, std::__ndk1::char_traits<char>, std::__ndk1::allocator<char> > >, std::__ndk1::monostate>::listen<PathfinderNode::finalize(std::__ndk1::vector<unsigned char, std::__ndk1::allocator<unsigned char> >)::{lambda()#1}::operator()() const::{lambda(auto:1)#1}, PathfinderNode::finalize(std::__ndk1::vector<unsigned char, std::__ndk1::allocator<unsigned char> >)::{lambda()#1}::operator()() const::{lambda(auto:1)#2}, PathfinderNode::finalize(std::__ndk1::vector<unsigned char, std::__ndk1::allocator<unsigned char> >)::{lambda()#1}::operator()() const::{lambda()#1}>(PathfinderNode::finalize(std::__ndk1::vector<unsigned char, std::__ndk1::allocator<unsigned char> >)::{lambda()#1}::operator()() const::{lambda(auto:1)#1}&&, PathfinderNode::finalize(std::__ndk1::vector<unsigned char, std::__ndk1::allocator<unsigned char> >)::{lambda()#1}::operator()() const::{lambda(auto:1)#2}&&, PathfinderNode::finalize(std::__ndk1::vector<unsigned char, std::__ndk1::allocator<unsigned char> >)::{lambda()#1}::operator()() const::{lambda()#1}&&) const::{lambda(geode::Task<geode::Result<std::__ndk1::__fs::filesystem::path, std::__ndk1::basic_string<char, std::__ndk1::char_traits<char>, std::__ndk1::allocator<char> > >, std::__ndk1::monostate>::Event*)#1}, std::__ndk1::allocator<geode::Task<geode::Result<std::__ndk1::__fs::filesystem::path, std::__ndk1::basic_string<char, std::__ndk1::char_traits<char>, std::__ndk1::allocator<char> > >, std::__ndk1::monostate>::listen<PathfinderNode::finalize(std::__ndk1::vector<unsigned char, std::__ndk1::allocator<unsigned char> >)::{lambda()#1}::operator()() const::{lambda(auto:1)#1}, PathfinderNode::finalize(std::__ndk1::vector<unsigned char, std::__ndk1::allocator<unsigned char> >)::{lambda()#1}::operator()() const::{lambda(auto:1)#2}, PathfinderNode::finalize(std::__ndk1::vector<unsigned char, std::__ndk1::allocator<unsigned char> >)::{lambda()#1}::operator()() const::{lambda()#1}>(PathfinderNode::finalize(std::__ndk1::vector<unsigned char, std::__ndk1::allocator<unsigned char> >)::{lambda()#1}::operator()() const::{lambda(auto:1)#1}&&, PathfinderNode::finalize(std::__ndk1::vector<unsigned char, std::__ndk1::allocator<unsigned char> >)::{lambda()#1}::operator()() const::{lambda(auto:1)#2}&&, PathfinderNode::finalize(std::__ndk1::vector<unsigned char, std::__ndk1::allocator<unsigned char> >)::{lambda()#1}::operator()() const::{lambda()#1}&&) const::{lambda(geode::Task<geode::Result<std::__ndk1::__fs::filesystem::path, std::__ndk1::basic_string<char, std::__ndk1::char_traits<char>, std::__ndk1::allocator<char> > >, std::__ndk1::monostate>::Event*)#1}>, void (geode::Task<geode::Result<std::__ndk1::__fs::filesystem::path, std::__ndk1::basic_string<char, std::__ndk1::char_traits<char>, std::__ndk1::allocator<char> > >, std::__ndk1::monostate>::Event*)>::__clone(std::__ndk1::__function::__base<void (geode::Task<geode::Result<std::__ndk1::__fs::filesystem::path, std::__ndk1::basic_string<char, std::__ndk1::char_traits<char>, std::__ndk1::allocator<char> > >, std::__ndk1::monostate>::Event*)>*) const
PUBLIC 33080 0 std::__ndk1::__function::__func<geode::Task<geode::Result<std::__ndk1::__fs::filesystem::path, std::__ndk1::basic_string<char, std::__ndk1::char_traits<char>, std::__ndk1::allocator<char> > >, std::__ndk1::monostate>::listen<PathfinderNode::finalize(std::__ndk1::vector<unsigned char, std::__ndk1::allocator<unsigned char> >)::{lambda()#1}::operator()() const::{lambda(auto:1)#1}, PathfinderNode::finalize(std::__ndk1::vector<unsigned char, std::__ndk1::allocator<unsigned char> >)::{lambda()#1}::operator()() const::{lambda(auto:1)#2}, PathfinderNode::finalize(std::__ndk1::vector<unsigned char, std::__ndk1::allocator<unsigned char> >)::{lambda()#1}::operator()() const::{lambda()#1}>(PathfinderNode::finalize(std::__ndk1::vector<unsigned char, std::__ndk1::allocator<unsigned char> >)::{lambda()#1}::operator()() const::{lambda(auto:1)#1}&&, PathfinderNode::finalize(std::__ndk1::vector<unsigned char, std::__ndk1::allocator<unsigned char> >)::{lambda()#1}::operator()() const::{lambda(auto:1)#2}&&, PathfinderNode::finalize(std::__ndk1::vector<unsigned char, std::__ndk1::allocator<unsigned char> >)::{lambda()#1}::operator()() const::{lambda()#1}&&) const::{lambda(geode::Task<geode::Result<std::__ndk1::__fs::filesystem::path, std::__ndk1::basic_string<char, std::__ndk1::char_traits<char>, std::__ndk1::allocator<char> > >, std::__ndk1::monostate>::Event*)#1}, std::__ndk1::allocator<geode::Task<geode::Result<std::__ndk1::__fs::filesystem::path, std::__ndk1::basic_string<char, std::__ndk1::char_traits<char>, std::__ndk1::allocator<char> > >, std::__ndk1::monostate>::listen<PathfinderNode::finalize(std::__ndk1::vector<unsigned char, std::__ndk1::allocator<unsigned char> >)::{lambda()#1}::operator()() const::{lambda(auto:1)#1}, PathfinderNode::finalize(std::__ndk1::vector<unsigned char, std::__ndk1::allocator<unsigned char> >)::{lambda()#1}::operator()() const::{lambda(auto:1)#2}, PathfinderNode::finalize(std::__ndk1::vector<unsigned char, std::__ndk1::allocator<unsigned char> >)::{lambda()#1}::operator()() const::{lambda()#1}>(PathfinderNode::finalize(std::__ndk1::vector<unsigned char, std::__ndk1::allocator<unsigned char> >)::{lambda()#1}::operator()() const::{lambda(auto:1)#1}&&, PathfinderNode::finalize(std::__ndk1::vector<unsigned char, std::__ndk1::allocator<unsigned char> >)::{lambda()#1}::operator()() const::{lambda(auto:1)#2}&&, PathfinderNode::finalize(std::__ndk1::vector<unsigned char, std::__ndk1::allocator<unsigned char> >)::{lambda()#1}::operator()() const::{lambda()#1}&&) const::{lambda(geode::Task<geode::Result<std::__ndk1::__fs::filesystem::path, std::__ndk1::basic_string<char, std::__ndk1::char_traits<char>, std::__ndk1::allocator<char> > >, std::__ndk1::monostate>::Event*)#1}>, void (geode::Task<geode::Result<std::__ndk1::__fs::filesystem::path, std::__ndk1::basic_string<char, std::__ndk1::char_traits<char>, std::__ndk1::allocator<char> > >, std::__ndk1::monostate>::Event*)>::destroy()
PUBLIC 33098 0 std::__ndk1::__function::__func<geode::Task<geode::Result<std::__ndk1::__fs::filesystem::path, std::__ndk1::basic_string<char, std::__ndk1::char_traits<char>, std::__ndk1::allocator<char> > >, std::__ndk1::monostate>::listen<PathfinderNode::finalize(std::__ndk1::vector<unsigned char, std::__ndk1::allocator<unsigned char> >)::{lambda()#1}::operator()() const::{lambda(auto:1)#1}, PathfinderNode::finalize(std::__ndk1::vector<unsigned char, std::__ndk1::allocator<unsigned char> >)::{lambda()#1}::operator()() const::{lambda(auto:1)#2}, PathfinderNode::finalize(std::__ndk1::vector<unsigned char, std::__ndk1::allocator<unsigned char> >)::{lambda()#1}::operator()() const::{lambda()#1}>(PathfinderNode::finalize(std::__ndk1::vector<unsigned char, std::__ndk1::allocator<unsigned char> >)::{lambda()#1}::operator()() const::{lambda(auto:1)#1}&&, PathfinderNode::finalize(std::__ndk1::vector<unsigned char, std::__ndk1::allocator<unsigned char> >)::{lambda()#1}::operator()() const::{lambda(auto:1)#2}&&, PathfinderNode::finalize(std::__ndk1::vector<unsigned char, std::__ndk1::allocator<unsigned char> >)::{lambda()#1}::operator()() const::{lambda()#1}&&) const::{lambda(geode::Task<geode::Result<std::__ndk1::__fs::filesystem::path, std::__ndk1::basic_string<char, std::__ndk1::char_traits<char>, std::__ndk1::allocator<char> > >, std::__ndk1::monostate>::Event*)#1}, std::__ndk1::allocator<geode::Task<geode::Result<std::__ndk1::__fs::filesystem::path, std::__ndk1::basic_string<char, std::__ndk1::char_traits<char>, std::__ndk1::allocator<char> > >, std::__ndk1::monostate>::listen<PathfinderNode::finalize(std::__ndk1::vector<unsigned char, std::__ndk1::allocator<unsigned char> >)::{lambda()#1}::operator()() const::{lambda(auto:1)#1}, PathfinderNode::finalize(std::__ndk1::vector<unsigned char, std::__ndk1::allocator<unsigned char> >)::{lambda()#1}::operator()() const::{lambda(auto:1)#2}, PathfinderNode::finalize(std::__ndk1::vector<unsigned char, std::__ndk1::allocator<unsigned char> >)::{lambda()#1}::operator()() const::{lambda()#1}>(PathfinderNode::finalize(std::__ndk1::vector<unsigned char, std::__ndk1::allocator<unsigned char> >)::{lambda()#1}::operator()() const::{lambda(auto:1)#1}&&, PathfinderNode::finalize(std::__ndk1::vector<unsigned char, std::__ndk1::allocator<unsigned char> >)::{lambda()#1}::operator()() const::{lambda(auto:1)#2}&&, PathfinderNode::finalize(std::__ndk1::vector<unsigned char, std::__ndk1::allocator<unsigned char> >)::{lambda()#1}::operator()() const::{lambda()#1}&&) const::{lambda(geode::Task<geode::Result<std::__ndk1::__fs::filesystem::path, std::__ndk1::basic_string<char, std::__ndk1::char_traits<char>, std::__ndk1::allocator<char> > >, std::__ndk1::monostate>::Event*)#1}>, void (geode::Task<geode::Result<std::__ndk1::__fs::filesystem::path, std::__ndk1::basic_string<char, std::__ndk1::char_traits<char>, std::__ndk1::allocator<char> > >, std::__ndk1::monostate>::Event*)>::destroy_deallocate()
PUBLIC 330c0 0 std::__ndk1::__function::__func<geode::Task<geode::Result<std::__ndk1::__fs::filesystem::path, std::__ndk1::basic_string<char, std::__ndk1::char_traits<char>, std::__ndk1::allocator<char> > >, std::__ndk1::monostate>::listen<PathfinderNode::finalize(std::__ndk1::vector<unsigned char, std::__ndk1::allocator<unsigned char> >)::{lambda()#1}::operator()() const::{lambda(auto:1)#1}, PathfinderNode::finalize(std::__ndk1::vector<unsigned char, std::__ndk1::allocator<unsigned char> >)::{lambda()#1}::operator()() const::{lambda(auto:1)#2}, PathfinderNode::finalize(std::__ndk1::vector<unsigned char, std::__ndk1::allocator<unsigned char> >)::{lambda()#1}::operator()() const::{lambda()#1}>(PathfinderNode::finalize(std::__ndk1::vector<unsigned char, std::__ndk1::allocator<unsigned char> >)::{lambda()#1}::operator()() const::{lambda(auto:1)#1}&&, PathfinderNode::finalize(std::__ndk1::vector<unsigned char, std::__ndk1::allocator<unsigned char> >)::{lambda()#1}::operator()() const::{lambda(auto:1)#2}&&, PathfinderNode::finalize(std::__ndk1::vector<unsigned char, std::__ndk1::allocator<unsigned char> >)::{lambda()#1}::operator()() const::{lambda()#1}&&) const::{lambda(geode::Task<geode::Result<std::__ndk1::__fs::filesystem::path, std::__ndk1::basic_string<char, std::__ndk1::char_traits<char>, std::__ndk1::allocator<char> > >, std::__ndk1::monostate>::Event*)#1}, std::__ndk1::allocator<geode::Task<geode::Result<std::__ndk1::__fs::filesystem::path, std::__ndk1::basic_string<char, std::__ndk1::char_traits<char>, std::__ndk1::allocator<char> > >, std::__ndk1::monostate>::listen<PathfinderNode::finalize(std::__ndk1::vector<unsigned char, std::__ndk1::allocator<unsigned char> >)::{lambda()#1}::operator()() const::{lambda(auto:1)#1}, PathfinderNode::finalize(std::__ndk1::vector<unsigned char, std::__ndk1::allocator<unsigned char> >)::{lambda()#1}::operator()() const::{lambda(auto:1)#2}, PathfinderNode::finalize(std::__ndk1::vector<unsigned char, std::__ndk1::allocator<unsigned char> >)::{lambda()#1}::operator()() const::{lambda()#1}>(PathfinderNode::finalize(std::__ndk1::vector<unsigned char, std::__ndk1::allocator<unsigned char> >)::{lambda()#1}::operator()() const::{lambda(auto:1)#1}&&, PathfinderNode::finalize(std::__ndk1::vector<unsigned char, std::__ndk1::allocator<unsigned char> >)::{lambda()#1}::operator()() const::{lambda(auto:1)#2}&&, PathfinderNode::finalize(std::__ndk1::vector<unsigned char, std::__ndk1::allocator<unsigned char> >)::{lambda()#1}::operator()() const::{lambda()#1}&&) const::{lambda(geode::Task<geode::Result<std::__ndk1::__fs::filesystem::path, std::__ndk1::basic_string<char, std::__ndk1::char_traits<char>, std::__ndk1::allocator<char> > >, std::__ndk1::monostate>::Event*)#1}>, void (geode::Task<geode::Result<std::__ndk1::__fs::filesystem::path, std::__ndk1::basic_string<char, std::__ndk1::char_traits<char>, std::__ndk1::allocator<char> > >, std::__ndk1::monostate>::Event*)>::operator()(geode::Task<geode::Result<std::__ndk1::__fs::filesystem::path, std::__ndk1::basic_string<char, std::__ndk1::char_traits<char>, std::__ndk1::allocator<char> > >, std::__ndk1::monostate>::Event*&&)
PUBLIC 33224 0 std::__ndk1::__function::__func<geode::Task<geode::Result<std::__ndk1::__fs::filesystem::path, std::__ndk1::basic_string<char, std::__ndk1::char_traits<char>, std::__ndk1::allocator<char> > >, std::__ndk1::monostate>::listen<PathfinderNode::finalize(std::__ndk1::vector<unsigned char, std::__ndk1::allocator<unsigned char> >)::{lambda()#1}::operator()() const::{lambda(auto:1)#1}, PathfinderNode::finalize(std::__ndk1::vector<unsigned char, std::__ndk1::allocator<unsigned char> >)::{lambda()#1}::operator()() const::{lambda(auto:1)#2}, PathfinderNode::finalize(std::__ndk1::vector<unsigned char, std::__ndk1::allocator<unsigned char> >)::{lambda()#1}::operator()() const::{lambda()#1}>(PathfinderNode::finalize(std::__ndk1::vector<unsigned char, std::__ndk1::allocator<unsigned char> >)::{lambda()#1}::operator()() const::{lambda(auto:1)#1}&&, PathfinderNode::finalize(std::__ndk1::vector<unsigned char, std::__ndk1::allocator<unsigned char> >)::{lambda()#1}::operator()() const::{lambda(auto:1)#2}&&, PathfinderNode::finalize(std::__ndk1::vector<unsigned char, std::__ndk1::allocator<unsigned char> >)::{lambda()#1}::operator()() const::{lambda()#1}&&) const::{lambda(geode::Task<geode::Result<std::__ndk1::__fs::filesystem::path, std::__ndk1::basic_string<char, std::__ndk1::char_traits<char>, std::__ndk1::allocator<char> > >, std::__ndk1::monostate>::Event*)#1}, std::__ndk1::allocator<geode::Task<geode::Result<std::__ndk1::__fs::filesystem::path, std::__ndk1::basic_string<char, std::__ndk1::char_traits<char>, std::__ndk1::allocator<char> > >, std::__ndk1::monostate>::listen<PathfinderNode::finalize(std::__ndk1::vector<unsigned char, std::__ndk1::allocator<unsigned char> >)::{lambda()#1}::operator()() const::{lambda(auto:1)#1}, PathfinderNode::finalize(std::__ndk1::vector<unsigned char, std::__ndk1::allocator<unsigned char> >)::{lambda()#1}::operator()() const::{lambda(auto:1)#2}, PathfinderNode::finalize(std::__ndk1::vector<unsigned char, std::__ndk1::allocator<unsigned char> >)::{lambda()#1}::operator()() const::{lambda()#1}>(PathfinderNode::finalize(std::__ndk1::vector<unsigned char, std::__ndk1::allocator<unsigned char> >)::{lambda()#1}::operator()() const::{lambda(auto:1)#1}&&, PathfinderNode::finalize(std::__ndk1::vector<unsigned char, std::__ndk1::allocator<unsigned char> >)::{lambda()#1}::operator()() const::{lambda(auto:1)#2}&&, PathfinderNode::finalize(std::__ndk1::vector<unsigned char, std::__ndk1::allocator<unsigned char> >)::{lambda()#1}::operator()() const::{lambda()#1}&&) const::{lambda(geode::Task<geode::Result<std::__ndk1::__fs::filesystem::path, std::__ndk1::basic_string<char, std::__ndk1::char_traits<char>, std::__ndk1::allocator<char> > >, std::__ndk1::monostate>::Event*)#1}>, void (geode::Task<geode::Result<std::__ndk1::__fs::filesystem::path, std::__ndk1::basic_string<char, std::__ndk1::char_traits<char>, std::__ndk1::allocator<char> > >, std::__ndk1::monostate>::Event*)>::target(std::type_info const&) const
PUBLIC 33240 0 std::__ndk1::__function::__func<geode::Task<geode::Result<std::__ndk1::__fs::filesystem::path, std::__ndk1::basic_string<char, std::__ndk1::char_traits<char>, std::__ndk1::allocator<char> > >, std::__ndk1::monostate>::listen<PathfinderNode::finalize(std::__ndk1::vector<unsigned char, std::__ndk1::allocator<unsigned char> >)::{lambda()#1}::operator()() const::{lambda(auto:1)#1}, PathfinderNode::finalize(std::__ndk1::vector<unsigned char, std::__ndk1::allocator<unsigned char> >)::{lambda()#1}::operator()() const::{lambda(auto:1)#2}, PathfinderNode::finalize(std::__ndk1::vector<unsigned char, std::__ndk1::allocator<unsigned char> >)::{lambda()#1}::operator()() const::{lambda()#1}>(PathfinderNode::finalize(std::__ndk1::vector<unsigned char, std::__ndk1::allocator<unsigned char> >)::{lambda()#1}::operator()() const::{lambda(auto:1)#1}&&, PathfinderNode::finalize(std::__ndk1::vector<unsigned char, std::__ndk1::allocator<unsigned char> >)::{lambda()#1}::operator()() const::{lambda(auto:1)#2}&&, PathfinderNode::finalize(std::__ndk1::vector<unsigned char, std::__ndk1::allocator<unsigned char> >)::{lambda()#1}::operator()() const::{lambda()#1}&&) const::{lambda(geode::Task<geode::Result<std::__ndk1::__fs::filesystem::path, std::__ndk1::basic_string<char, std::__ndk1::char_traits<char>, std::__ndk1::allocator<char> > >, std::__ndk1::monostate>::Event*)#1}, std::__ndk1::allocator<geode::Task<geode::Result<std::__ndk1::__fs::filesystem::path, std::__ndk1::basic_string<char, std::__ndk1::char_traits<char>, std::__ndk1::allocator<char> > >, std::__ndk1::monostate>::listen<PathfinderNode::finalize(std::__ndk1::vector<unsigned char, std::__ndk1::allocator<unsigned char> >)::{lambda()#1}::operator()() const::{lambda(auto:1)#1}, PathfinderNode::finalize(std::__ndk1::vector<unsigned char, std::__ndk1::allocator<unsigned char> >)::{lambda()#1}::operator()() const::{lambda(auto:1)#2}, PathfinderNode::finalize(std::__ndk1::vector<unsigned char, std::__ndk1::allocator<unsigned char> >)::{lambda()#1}::operator()() const::{lambda()#1}>(PathfinderNode::finalize(std::__ndk1::vector<unsigned char, std::__ndk1::allocator<unsigned char> >)::{lambda()#1}::operator()() const::{lambda(auto:1)#1}&&, PathfinderNode::finalize(std::__ndk1::vector<unsigned char, std::__ndk1::allocator<unsigned char> >)::{lambda()#1}::operator()() const::{lambda(auto:1)#2}&&, PathfinderNode::finalize(std::__ndk1::vector<unsigned char, std::__ndk1::allocator<unsigned char> >)::{lambda()#1}::operator()() const::{lambda()#1}&&) const::{lambda(geode::Task<geode::Result<std::__ndk1::__fs::filesystem::path, std::__ndk1::basic_string<char, std::__ndk1::char_traits<char>, std::__ndk1::allocator<char> > >, std::__ndk1::monostate>::Event*)#1}>, void (geode::Task<geode::Result<std::__ndk1::__fs::filesystem::path, std::__ndk1::basic_string<char, std::__ndk1::char_traits<char>, std::__ndk1::allocator<char> > >, std::__ndk1::monostate>::Event*)>::target_type() const
PUBLIC 3324c 0 std::__ndk1::__variant_detail::__visitation::__base::__dispatcher<(unsigned long)0>::__dispatch[abi:ne180000]<std::__ndk1::__variant_detail::__dtor<std::__ndk1::__variant_detail::__traits<std::__ndk1::monostate, std::__ndk1::basic_string<char, std::__ndk1::char_traits<char>, std::__ndk1::allocator<char> > >, (std::__ndk1::__variant_detail::_Trait)1>::__destroy[abi:ne180000]()::{lambda(auto:1&)#1}, std::__ndk1::__variant_detail::__base<(std::__ndk1::__variant_detail::__traits<std::__ndk1::monostate, std::__ndk1::basic_string<char, std::__ndk1::char_traits<char>, std::__ndk1::allocator<char> > >)1, std::__ndk1::__variant_detail::__traits, std::__ndk1::allocator<char> >&>(std::__ndk1::__variant_detail::__dtor<std::__ndk1::__variant_detail::__traits<std::__ndk1::monostate, std::__ndk1::basic_string<char, std::__ndk1::char_traits<char>, std::__ndk1::allocator<char> > >, (std::__ndk1::__variant_detail::_Trait)1>, std::__ndk1::__variant_detail::__base<(std::__ndk1::__variant_detail::__traits<std::__ndk1::monostate, std::__ndk1::basic_string<char, std::__ndk1::char_traits<char>, std::__ndk1::allocator<char> > >)1, std::__ndk1::__variant_detail::__traits, std::__ndk1::allocator<char> >&)
PUBLIC 33250 0 std::__ndk1::__variant_detail::__visitation::__base::__dispatcher<(unsigned long)1>::__dispatch[abi:ne180000]<std::__ndk1::__variant_detail::__dtor<std::__ndk1::__variant_detail::__traits<std::__ndk1::monostate, std::__ndk1::basic_string<char, std::__ndk1::char_traits<char>, std::__ndk1::allocator<char> > >, (std::__ndk1::__variant_detail::_Trait)1>::__destroy[abi:ne180000]()::{lambda(auto:1&)#1}, std::__ndk1::__variant_detail::__base<(std::__ndk1::__variant_detail::__traits<std::__ndk1::monostate, std::__ndk1::basic_string<char, std::__ndk1::char_traits<char>, std::__ndk1::allocator<char> > >)1, std::__ndk1::__variant_detail::__traits, std::__ndk1::allocator<char> >&>(std::__ndk1::__variant_detail::__dtor<std::__ndk1::__variant_detail::__traits<std::__ndk1::monostate, std::__ndk1::basic_string<char, std::__ndk1::char_traits<char>, std::__ndk1::allocator<char> > >, (std::__ndk1::__variant_detail::_Trait)1>, std::__ndk1::__variant_detail::__base<(std::__ndk1::__variant_detail::__traits<std::__ndk1::monostate, std::__ndk1::basic_string<char, std::__ndk1::char_traits<char>, std::__ndk1::allocator<char> > >)1, std::__ndk1::__variant_detail::__traits, std::__ndk1::allocator<char> >&)
PUBLIC 33264 0 std::__ndk1::__function::__func<geode::Task<geode::Result<std::__ndk1::__fs::filesystem::path, std::__ndk1::basic_string<char, std::__ndk1::char_traits<char>, std::__ndk1::allocator<char> > >, std::__ndk1::monostate>::listen<PathfinderNode::finalize(std::__ndk1::vector<unsigned char, std::__ndk1::allocator<unsigned char> >)::{lambda()#1}::operator()() const::{lambda(auto:1)#1}, PathfinderNode::finalize(std::__ndk1::vector<unsigned char, std::__ndk1::allocator<unsigned char> >)::{lambda()#1}::operator()() const::{lambda(auto:1)#2}, PathfinderNode::finalize(std::__ndk1::vector<unsigned char, std::__ndk1::allocator<unsigned char> >)::{lambda()#1}::operator()() const::{lambda()#1}>(PathfinderNode::finalize(std::__ndk1::vector<unsigned char, std::__ndk1::allocator<unsigned char> >)::{lambda()#1}::operator()() const::{lambda(auto:1)#1}&&, PathfinderNode::finalize(std::__ndk1::vector<unsigned char, std::__ndk1::allocator<unsigned char> >)::{lambda()#1}::operator()() const::{lambda(auto:1)#2}&&, PathfinderNode::finalize(std::__ndk1::vector<unsigned char, std::__ndk1::allocator<unsigned char> >)::{lambda()#1}::operator()() const::{lambda()#1}&&) const::{lambda(geode::Task<geode::Result<std::__ndk1::__fs::filesystem::path, std::__ndk1::basic_string<char, std::__ndk1::char_traits<char>, std::__ndk1::allocator<char> > >, std::__ndk1::monostate>::Event*)#1}::operator()(geode::Task<geode::Result<std::__ndk1::__fs::filesystem::path, std::__ndk1::basic_string<char, std::__ndk1::char_traits<char>, std::__ndk1::allocator<char> > >, std::__ndk1::monostate>::Event*)::{lambda()#1}, std::__ndk1::allocator<geode::Task<geode::Result<std::__ndk1::__fs::filesystem::path, std::__ndk1::basic_string<char, std::__ndk1::char_traits<char>, std::__ndk1::allocator<char> > >, std::__ndk1::monostate>::listen<PathfinderNode::finalize(std::__ndk1::vector<unsigned char, std::__ndk1::allocator<unsigned char> >)::{lambda()#1}::operator()() const::{lambda(auto:1)#1}, PathfinderNode::finalize(std::__ndk1::vector<unsigned char, std::__ndk1::allocator<unsigned char> >)::{lambda()#1}::operator()() const::{lambda(auto:1)#2}, PathfinderNode::finalize(std::__ndk1::vector<unsigned char, std::__ndk1::allocator<unsigned char> >)::{lambda()#1}::operator()() const::{lambda()#1}>(PathfinderNode::finalize(std::__ndk1::vector<unsigned char, std::__ndk1::allocator<unsigned char> >)::{lambda()#1}::operator()() const::{lambda(auto:1)#1}&&, PathfinderNode::finalize(std::__ndk1::vector<unsigned char, std::__ndk1::allocator<unsigned char> >)::{lambda()#1}::operator()() const::{lambda(auto:1)#2}&&, PathfinderNode::finalize(std::__ndk1::vector<unsigned char, std::__ndk1::allocator<unsigned char> >)::{lambda()#1}::operator()() const::{lambda()#1}&&) const::{lambda(geode::Task<geode::Result<std::__ndk1::__fs::filesystem::path, std::__ndk1::basic_string<char, std::__ndk1::char_traits<char>, std::__ndk1::allocator<char> > >, std::__ndk1::monostate>::Event*)#1}::operator()(geode::Task<geode::Result<std::__ndk1::__fs::filesystem::path, std::__ndk1::basic_string<char, std::__ndk1::char_traits<char>, std::__ndk1::allocator<char> > >, std::__ndk1::monostate>::Event*)::{lambda()#1}>, void ()>::~__func()
PUBLIC 33268 0 std::__ndk1::__function::__func<geode::Task<geode::Result<std::__ndk1::__fs::filesystem::path, std::__ndk1::basic_string<char, std::__ndk1::char_traits<char>, std::__ndk1::allocator<char> > >, std::__ndk1::monostate>::listen<PathfinderNode::finalize(std::__ndk1::vector<unsigned char, std::__ndk1::allocator<unsigned char> >)::{lambda()#1}::operator()() const::{lambda(auto:1)#1}, PathfinderNode::finalize(std::__ndk1::vector<unsigned char, std::__ndk1::allocator<unsigned char> >)::{lambda()#1}::operator()() const::{lambda(auto:1)#2}, PathfinderNode::finalize(std::__ndk1::vector<unsigned char, std::__ndk1::allocator<unsigned char> >)::{lambda()#1}::operator()() const::{lambda()#1}>(PathfinderNode::finalize(std::__ndk1::vector<unsigned char, std::__ndk1::allocator<unsigned char> >)::{lambda()#1}::operator()() const::{lambda(auto:1)#1}&&, PathfinderNode::finalize(std::__ndk1::vector<unsigned char, std::__ndk1::allocator<unsigned char> >)::{lambda()#1}::operator()() const::{lambda(auto:1)#2}&&, PathfinderNode::finalize(std::__ndk1::vector<unsigned char, std::__ndk1::allocator<unsigned char> >)::{lambda()#1}::operator()() const::{lambda()#1}&&) const::{lambda(geode::Task<geode::Result<std::__ndk1::__fs::filesystem::path, std::__ndk1::basic_string<char, std::__ndk1::char_traits<char>, std::__ndk1::allocator<char> > >, std::__ndk1::monostate>::Event*)#1}::operator()(geode::Task<geode::Result<std::__ndk1::__fs::filesystem::path, std::__ndk1::basic_string<char, std::__ndk1::char_traits<char>, std::__ndk1::allocator<char> > >, std::__ndk1::monostate>::Event*)::{lambda()#1}, std::__ndk1::allocator<geode::Task<geode::Result<std::__ndk1::__fs::filesystem::path, std::__ndk1::basic_string<char, std::__ndk1::char_traits<char>, std::__ndk1::allocator<char> > >, std::__ndk1::monostate>::listen<PathfinderNode::finalize(std::__ndk1::vector<unsigned char, std::__ndk1::allocator<unsigned char> >)::{lambda()#1}::operator()() const::{lambda(auto:1)#1}, PathfinderNode::finalize(std::__ndk1::vector<unsigned char, std::__ndk1::allocator<unsigned char> >)::{lambda()#1}::operator()() const::{lambda(auto:1)#2}, PathfinderNode::finalize(std::__ndk1::vector<unsigned char, std::__ndk1::allocator<unsigned char> >)::{lambda()#1}::operator()() const::{lambda()#1}>(PathfinderNode::finalize(std::__ndk1::vector<unsigned char, std::__ndk1::allocator<unsigned char> >)::{lambda()#1}::operator()() const::{lambda(auto:1)#1}&&, PathfinderNode::finalize(std::__ndk1::vector<unsigned char, std::__ndk1::allocator<unsigned char> >)::{lambda()#1}::operator()() const::{lambda(auto:1)#2}&&, PathfinderNode::finalize(std::__ndk1::vector<unsigned char, std::__ndk1::allocator<unsigned char> >)::{lambda()#1}::operator()() const::{lambda()#1}&&) const::{lambda(geode::Task<geode::Result<std::__ndk1::__fs::filesystem::path, std::__ndk1::basic_string<char, std::__ndk1::char_traits<char>, std::__ndk1::allocator<char> > >, std::__ndk1::monostate>::Event*)#1}::operator()(geode::Task<geode::Result<std::__ndk1::__fs::filesystem::path, std::__ndk1::basic_string<char, std::__ndk1::char_traits<char>, std::__ndk1::allocator<char> > >, std::__ndk1::monostate>::Event*)::{lambda()#1}>, void ()>::__clone() const
PUBLIC 33290 0 std::__ndk1::__function::__func<geode::Task<geode::Result<std::__ndk1::__fs::filesystem::path, std::__ndk1::basic_string<char, std::__ndk1::char_traits<char>, std::__ndk1::allocator<char> > >, std::__ndk1::monostate>::listen<PathfinderNode::finalize(std::__ndk1::vector<unsigned char, std::__ndk1::allocator<unsigned char> >)::{lambda()#1}::operator()() const::{lambda(auto:1)#1}, PathfinderNode::finalize(std::__ndk1::vector<unsigned char, std::__ndk1::allocator<unsigned char> >)::{lambda()#1}::operator()() const::{lambda(auto:1)#2}, PathfinderNode::finalize(std::__ndk1::vector<unsigned char, std::__ndk1::allocator<unsigned char> >)::{lambda()#1}::operator()() const::{lambda()#1}>(PathfinderNode::finalize(std::__ndk1::vector<unsigned char, std::__ndk1::allocator<unsigned char> >)::{lambda()#1}::operator()() const::{lambda(auto:1)#1}&&, PathfinderNode::finalize(std::__ndk1::vector<unsigned char, std::__ndk1::allocator<unsigned char> >)::{lambda()#1}::operator()() const::{lambda(auto:1)#2}&&, PathfinderNode::finalize(std::__ndk1::vector<unsigned char, std::__ndk1::allocator<unsigned char> >)::{lambda()#1}::operator()() const::{lambda()#1}&&) const::{lambda(geode::Task<geode::Result<std::__ndk1::__fs::filesystem::path, std::__ndk1::basic_string<char, std::__ndk1::char_traits<char>, std::__ndk1::allocator<char> > >, std::__ndk1::monostate>::Event*)#1}::operator()(geode::Task<geode::Result<std::__ndk1::__fs::filesystem::path, std::__ndk1::basic_string<char, std::__ndk1::char_traits<char>, std::__ndk1::allocator<char> > >, std::__ndk1::monostate>::Event*)::{lambda()#1}, std::__ndk1::allocator<geode::Task<geode::Result<std::__ndk1::__fs::filesystem::path, std::__ndk1::basic_string<char, std::__ndk1::char_traits<char>, std::__ndk1::allocator<char> > >, std::__ndk1::monostate>::listen<PathfinderNode::finalize(std::__ndk1::vector<unsigned char, std::__ndk1::allocator<unsigned char> >)::{lambda()#1}::operator()() const::{lambda(auto:1)#1}, PathfinderNode::finalize(std::__ndk1::vector<unsigned char, std::__ndk1::allocator<unsigned char> >)::{lambda()#1}::operator()() const::{lambda(auto:1)#2}, PathfinderNode::finalize(std::__ndk1::vector<unsigned char, std::__ndk1::allocator<unsigned char> >)::{lambda()#1}::operator()() const::{lambda()#1}>(PathfinderNode::finalize(std::__ndk1::vector<unsigned char, std::__ndk1::allocator<unsigned char> >)::{lambda()#1}::operator()() const::{lambda(auto:1)#1}&&, PathfinderNode::finalize(std::__ndk1::vector<unsigned char, std::__ndk1::allocator<unsigned char> >)::{lambda()#1}::operator()() const::{lambda(auto:1)#2}&&, PathfinderNode::finalize(std::__ndk1::vector<unsigned char, std::__ndk1::allocator<unsigned char> >)::{lambda()#1}::operator()() const::{lambda()#1}&&) const::{lambda(geode::Task<geode::Result<std::__ndk1::__fs::filesystem::path, std::__ndk1::basic_string<char, std::__ndk1::char_traits<char>, std::__ndk1::allocator<char> > >, std::__ndk1::monostate>::Event*)#1}::operator()(geode::Task<geode::Result<std::__ndk1::__fs::filesystem::path, std::__ndk1::basic_string<char, std::__ndk1::char_traits<char>, std::__ndk1::allocator<char> > >, std::__ndk1::monostate>::Event*)::{lambda()#1}>, void ()>::__clone(std::__ndk1::__function::__base<void ()>*) const
PUBLIC 332a4 0 std::__ndk1::__function::__func<geode::Task<geode::Result<std::__ndk1::__fs::filesystem::path, std::__ndk1::basic_string<char, std::__ndk1::char_traits<char>, std::__ndk1::allocator<char> > >, std::__ndk1::monostate>::listen<PathfinderNode::finalize(std::__ndk1::vector<unsigned char, std::__ndk1::allocator<unsigned char> >)::{lambda()#1}::operator()() const::{lambda(auto:1)#1}, PathfinderNode::finalize(std::__ndk1::vector<unsigned char, std::__ndk1::allocator<unsigned char> >)::{lambda()#1}::operator()() const::{lambda(auto:1)#2}, PathfinderNode::finalize(std::__ndk1::vector<unsigned char, std::__ndk1::allocator<unsigned char> >)::{lambda()#1}::operator()() const::{lambda()#1}>(PathfinderNode::finalize(std::__ndk1::vector<unsigned char, std::__ndk1::allocator<unsigned char> >)::{lambda()#1}::operator()() const::{lambda(auto:1)#1}&&, PathfinderNode::finalize(std::__ndk1::vector<unsigned char, std::__ndk1::allocator<unsigned char> >)::{lambda()#1}::operator()() const::{lambda(auto:1)#2}&&, PathfinderNode::finalize(std::__ndk1::vector<unsigned char, std::__ndk1::allocator<unsigned char> >)::{lambda()#1}::operator()() const::{lambda()#1}&&) const::{lambda(geode::Task<geode::Result<std::__ndk1::__fs::filesystem::path, std::__ndk1::basic_string<char, std::__ndk1::char_traits<char>, std::__ndk1::allocator<char> > >, std::__ndk1::monostate>::Event*)#1}::operator()(geode::Task<geode::Result<std::__ndk1::__fs::filesystem::path, std::__ndk1::basic_string<char, std::__ndk1::char_traits<char>, std::__ndk1::allocator<char> > >, std::__ndk1::monostate>::Event*)::{lambda()#1}, std::__ndk1::allocator<geode::Task<geode::Result<std::__ndk1::__fs::filesystem::path, std::__ndk1::basic_string<char, std::__ndk1::char_traits<char>, std::__ndk1::allocator<char> > >, std::__ndk1::monostate>::listen<PathfinderNode::finalize(std::__ndk1::vector<unsigned char, std::__ndk1::allocator<unsigned char> >)::{lambda()#1}::operator()() const::{lambda(auto:1)#1}, PathfinderNode::finalize(std::__ndk1::vector<unsigned char, std::__ndk1::allocator<unsigned char> >)::{lambda()#1}::operator()() const::{lambda(auto:1)#2}, PathfinderNode::finalize(std::__ndk1::vector<unsigned char, std::__ndk1::allocator<unsigned char> >)::{lambda()#1}::operator()() const::{lambda()#1}>(PathfinderNode::finalize(std::__ndk1::vector<unsigned char, std::__ndk1::allocator<unsigned char> >)::{lambda()#1}::operator()() const::{lambda(auto:1)#1}&&, PathfinderNode::finalize(std::__ndk1::vector<unsigned char, std::__ndk1::allocator<unsigned char> >)::{lambda()#1}::operator()() const::{lambda(auto:1)#2}&&, PathfinderNode::finalize(std::__ndk1::vector<unsigned char, std::__ndk1::allocator<unsigned char> >)::{lambda()#1}::operator()() const::{lambda()#1}&&) const::{lambda(geode::Task<geode::Result<std::__ndk1::__fs::filesystem::path, std::__ndk1::basic_string<char, std::__ndk1::char_traits<char>, std::__ndk1::allocator<char> > >, std::__ndk1::monostate>::Event*)#1}::operator()(geode::Task<geode::Result<std::__ndk1::__fs::filesystem::path, std::__ndk1::basic_string<char, std::__ndk1::char_traits<char>, std::__ndk1::allocator<char> > >, std::__ndk1::monostate>::Event*)::{lambda()#1}>, void ()>::destroy()
PUBLIC 332a8 0 std::__ndk1::__function::__func<geode::Task<geode::Result<std::__ndk1::__fs::filesystem::path, std::__ndk1::basic_string<char, std::__ndk1::char_traits<char>, std::__ndk1::allocator<char> > >, std::__ndk1::monostate>::listen<PathfinderNode::finalize(std::__ndk1::vector<unsigned char, std::__ndk1::allocator<unsigned char> >)::{lambda()#1}::operator()() const::{lambda(auto:1)#1}, PathfinderNode::finalize(std::__ndk1::vector<unsigned char, std::__ndk1::allocator<unsigned char> >)::{lambda()#1}::operator()() const::{lambda(auto:1)#2}, PathfinderNode::finalize(std::__ndk1::vector<unsigned char, std::__ndk1::allocator<unsigned char> >)::{lambda()#1}::operator()() const::{lambda()#1}>(PathfinderNode::finalize(std::__ndk1::vector<unsigned char, std::__ndk1::allocator<unsigned char> >)::{lambda()#1}::operator()() const::{lambda(auto:1)#1}&&, PathfinderNode::finalize(std::__ndk1::vector<unsigned char, std::__ndk1::allocator<unsigned char> >)::{lambda()#1}::operator()() const::{lambda(auto:1)#2}&&, PathfinderNode::finalize(std::__ndk1::vector<unsigned char, std::__ndk1::allocator<unsigned char> >)::{lambda()#1}::operator()() const::{lambda()#1}&&) const::{lambda(geode::Task<geode::Result<std::__ndk1::__fs::filesystem::path, std::__ndk1::basic_string<char, std::__ndk1::char_traits<char>, std::__ndk1::allocator<char> > >, std::__ndk1::monostate>::Event*)#1}::operator()(geode::Task<geode::Result<std::__ndk1::__fs::filesystem::path, std::__ndk1::basic_string<char, std::__ndk1::char_traits<char>, std::__ndk1::allocator<char> > >, std::__ndk1::monostate>::Event*)::{lambda()#1}, std::__ndk1::allocator<geode::Task<geode::Result<std::__ndk1::__fs::filesystem::path, std::__ndk1::basic_string<char, std::__ndk1::char_traits<char>, std::__ndk1::allocator<char> > >, std::__ndk1::monostate>::listen<PathfinderNode::finalize(std::__ndk1::vector<unsigned char, std::__ndk1::allocator<unsigned char> >)::{lambda()#1}::operator()() const::{lambda(auto:1)#1}, PathfinderNode::finalize(std::__ndk1::vector<unsigned char, std::__ndk1::allocator<unsigned char> >)::{lambda()#1}::operator()() const::{lambda(auto:1)#2}, PathfinderNode::finalize(std::__ndk1::vector<unsigned char, std::__ndk1::allocator<unsigned char> >)::{lambda()#1}::operator()() const::{lambda()#1}>(PathfinderNode::finalize(std::__ndk1::vector<unsigned char, std::__ndk1::allocator<unsigned char> >)::{lambda()#1}::operator()() const::{lambda(auto:1)#1}&&, PathfinderNode::finalize(std::__ndk1::vector<unsigned char, std::__ndk1::allocator<unsigned char> >)::{lambda()#1}::operator()() const::{lambda(auto:1)#2}&&, PathfinderNode::finalize(std::__ndk1::vector<unsigned char, std::__ndk1::allocator<unsigned char> >)::{lambda()#1}::operator()() const::{lambda()#1}&&) const::{lambda(geode::Task<geode::Result<std::__ndk1::__fs::filesystem::path, std::__ndk1::basic_string<char, std::__ndk1::char_traits<char>, std::__ndk1::allocator<char> > >, std::__ndk1::monostate>::Event*)#1}::operator()(geode::Task<geode::Result<std::__ndk1::__fs::filesystem::path, std::__ndk1::basic_string<char, std::__ndk1::char_traits<char>, std::__ndk1::allocator<char> > >, std::__ndk1::monostate>::Event*)::{lambda()#1}>, void ()>::destroy_deallocate()
PUBLIC 332ac 0 std::__ndk1::__function::__func<geode::Task<geode::Result<std::__ndk1::__fs::filesystem::path, std::__ndk1::basic_string<char, std::__ndk1::char_traits<char>, std::__ndk1::allocator<char> > >, std::__ndk1::monostate>::listen<PathfinderNode::finalize(std::__ndk1::vector<unsigned char, std::__ndk1::allocator<unsigned char> >)::{lambda()#1}::operator()() const::{lambda(auto:1)#1}, PathfinderNode::finalize(std::__ndk1::vector<unsigned char, std::__ndk1::allocator<unsigned char> >)::{lambda()#1}::operator()() const::{lambda(auto:1)#2}, PathfinderNode::finalize(std::__ndk1::vector<unsigned char, std::__ndk1::allocator<unsigned char> >)::{lambda()#1}::operator()() const::{lambda()#1}>(PathfinderNode::finalize(std::__ndk1::vector<unsigned char, std::__ndk1::allocator<unsigned char> >)::{lambda()#1}::operator()() const::{lambda(auto:1)#1}&&, PathfinderNode::finalize(std::__ndk1::vector<unsigned char, std::__ndk1::allocator<unsigned char> >)::{lambda()#1}::operator()() const::{lambda(auto:1)#2}&&, PathfinderNode::finalize(std::__ndk1::vector<unsigned char, std::__ndk1::allocator<unsigned char> >)::{lambda()#1}::operator()() const::{lambda()#1}&&) const::{lambda(geode::Task<geode::Result<std::__ndk1::__fs::filesystem::path, std::__ndk1::basic_string<char, std::__ndk1::char_traits<char>, std::__ndk1::allocator<char> > >, std::__ndk1::monostate>::Event*)#1}::operator()(geode::Task<geode::Result<std::__ndk1::__fs::filesystem::path, std::__ndk1::basic_string<char, std::__ndk1::char_traits<char>, std::__ndk1::allocator<char> > >, std::__ndk1::monostate>::Event*)::{lambda()#1}, std::__ndk1::allocator<geode::Task<geode::Result<std::__ndk1::__fs::filesystem::path, std::__ndk1::basic_string<char, std::__ndk1::char_traits<char>, std::__ndk1::allocator<char> > >, std::__ndk1::monostate>::listen<PathfinderNode::finalize(std::__ndk1::vector<unsigned char, std::__ndk1::allocator<unsigned char> >)::{lambda()#1}::operator()() const::{lambda(auto:1)#1}, PathfinderNode::finalize(std::__ndk1::vector<unsigned char, std::__ndk1::allocator<unsigned char> >)::{lambda()#1}::operator()() const::{lambda(auto:1)#2}, PathfinderNode::finalize(std::__ndk1::vector<unsigned char, std::__ndk1::allocator<unsigned char> >)::{lambda()#1}::operator()() const::{lambda()#1}>(PathfinderNode::finalize(std::__ndk1::vector<unsigned char, std::__ndk1::allocator<unsigned char> >)::{lambda()#1}::operator()() const::{lambda(auto:1)#1}&&, PathfinderNode::finalize(std::__ndk1::vector<unsigned char, std::__ndk1::allocator<unsigned char> >)::{lambda()#1}::operator()() const::{lambda(auto:1)#2}&&, PathfinderNode::finalize(std::__ndk1::vector<unsigned char, std::__ndk1::allocator<unsigned char> >)::{lambda()#1}::operator()() const::{lambda()#1}&&) const::{lambda(geode::Task<geode::Result<std::__ndk1::__fs::filesystem::path, std::__ndk1::basic_string<char, std::__ndk1::char_traits<char>, std::__ndk1::allocator<char> > >, std::__ndk1::monostate>::Event*)#1}::operator()(geode::Task<geode::Result<std::__ndk1::__fs::filesystem::path, std::__ndk1::basic_string<char, std::__ndk1::char_traits<char>, std::__ndk1::allocator<char> > >, std::__ndk1::monostate>::Event*)::{lambda()#1}>, void ()>::operator()()
PUBLIC 332c4 0 std::__ndk1::__function::__func<geode::Task<geode::Result<std::__ndk1::__fs::filesystem::path, std::__ndk1::basic_string<char, std::__ndk1::char_traits<char>, std::__ndk1::allocator<char> > >, std::__ndk1::monostate>::listen<PathfinderNode::finalize(std::__ndk1::vector<unsigned char, std::__ndk1::allocator<unsigned char> >)::{lambda()#1}::operator()() const::{lambda(auto:1)#1}, PathfinderNode::finalize(std::__ndk1::vector<unsigned char, std::__ndk1::allocator<unsigned char> >)::{lambda()#1}::operator()() const::{lambda(auto:1)#2}, PathfinderNode::finalize(std::__ndk1::vector<unsigned char, std::__ndk1::allocator<unsigned char> >)::{lambda()#1}::operator()() const::{lambda()#1}>(PathfinderNode::finalize(std::__ndk1::vector<unsigned char, std::__ndk1::allocator<unsigned char> >)::{lambda()#1}::operator()() const::{lambda(auto:1)#1}&&, PathfinderNode::finalize(std::__ndk1::vector<unsigned char, std::__ndk1::allocator<unsigned char> >)::{lambda()#1}::operator()() const::{lambda(auto:1)#2}&&, PathfinderNode::finalize(std::__ndk1::vector<unsigned char, std::__ndk1::allocator<unsigned char> >)::{lambda()#1}::operator()() const::{lambda()#1}&&) const::{lambda(geode::Task<geode::Result<std::__ndk1::__fs::filesystem::path, std::__ndk1::basic_string<char, std::__ndk1::char_traits<char>, std::__ndk1::allocator<char> > >, std::__ndk1::monostate>::Event*)#1}::operator()(geode::Task<geode::Result<std::__ndk1::__fs::filesystem::path, std::__ndk1::basic_string<char, std::__ndk1::char_traits<char>, std::__ndk1::allocator<char> > >, std::__ndk1::monostate>::Event*)::{lambda()#1}, std::__ndk1::allocator<geode::Task<geode::Result<std::__ndk1::__fs::filesystem::path, std::__ndk1::basic_string<char, std::__ndk1::char_traits<char>, std::__ndk1::allocator<char> > >, std::__ndk1::monostate>::listen<PathfinderNode::finalize(std::__ndk1::vector<unsigned char, std::__ndk1::allocator<unsigned char> >)::{lambda()#1}::operator()() const::{lambda(auto:1)#1}, PathfinderNode::finalize(std::__ndk1::vector<unsigned char, std::__ndk1::allocator<unsigned char> >)::{lambda()#1}::operator()() const::{lambda(auto:1)#2}, PathfinderNode::finalize(std::__ndk1::vector<unsigned char, std::__ndk1::allocator<unsigned char> >)::{lambda()#1}::operator()() const::{lambda()#1}>(PathfinderNode::finalize(std::__ndk1::vector<unsigned char, std::__ndk1::allocator<unsigned char> >)::{lambda()#1}::operator()() const::{lambda(auto:1)#1}&&, PathfinderNode::finalize(std::__ndk1::vector<unsigned char, std::__ndk1::allocator<unsigned char> >)::{lambda()#1}::operator()() const::{lambda(auto:1)#2}&&, PathfinderNode::finalize(std::__ndk1::vector<unsigned char, std::__ndk1::allocator<unsigned char> >)::{lambda()#1}::operator()() const::{lambda()#1}&&) const::{lambda(geode::Task<geode::Result<std::__ndk1::__fs::filesystem::path, std::__ndk1::basic_string<char, std::__ndk1::char_traits<char>, std::__ndk1::allocator<char> > >, std::__ndk1::monostate>::Event*)#1}::operator()(geode::Task<geode::Result<std::__ndk1::__fs::filesystem::path, std::__ndk1::basic_string<char, std::__ndk1::char_traits<char>, std::__ndk1::allocator<char> > >, std::__ndk1::monostate>::Event*)::{lambda()#1}>, void ()>::target(std::type_info const&) const
PUBLIC 332e0 0 std::__ndk1::__function::__func<geode::Task<geode::Result<std::__ndk1::__fs::filesystem::path, std::__ndk1::basic_string<char, std::__ndk1::char_traits<char>, std::__ndk1::allocator<char> > >, std::__ndk1::monostate>::listen<PathfinderNode::finalize(std::__ndk1::vector<unsigned char, std::__ndk1::allocator<unsigned char> >)::{lambda()#1}::operator()() const::{lambda(auto:1)#1}, PathfinderNode::finalize(std::__ndk1::vector<unsigned char, std::__ndk1::allocator<unsigned char> >)::{lambda()#1}::operator()() const::{lambda(auto:1)#2}, PathfinderNode::finalize(std::__ndk1::vector<unsigned char, std::__ndk1::allocator<unsigned char> >)::{lambda()#1}::operator()() const::{lambda()#1}>(PathfinderNode::finalize(std::__ndk1::vector<unsigned char, std::__ndk1::allocator<unsigned char> >)::{lambda()#1}::operator()() const::{lambda(auto:1)#1}&&, PathfinderNode::finalize(std::__ndk1::vector<unsigned char, std::__ndk1::allocator<unsigned char> >)::{lambda()#1}::operator()() const::{lambda(auto:1)#2}&&, PathfinderNode::finalize(std::__ndk1::vector<unsigned char, std::__ndk1::allocator<unsigned char> >)::{lambda()#1}::operator()() const::{lambda()#1}&&) const::{lambda(geode::Task<geode::Result<std::__ndk1::__fs::filesystem::path, std::__ndk1::basic_string<char, std::__ndk1::char_traits<char>, std::__ndk1::allocator<char> > >, std::__ndk1::monostate>::Event*)#1}::operator()(geode::Task<geode::Result<std::__ndk1::__fs::filesystem::path, std::__ndk1::basic_string<char, std::__ndk1::char_traits<char>, std::__ndk1::allocator<char> > >, std::__ndk1::monostate>::Event*)::{lambda()#1}, std::__ndk1::allocator<geode::Task<geode::Result<std::__ndk1::__fs::filesystem::path, std::__ndk1::basic_string<char, std::__ndk1::char_traits<char>, std::__ndk1::allocator<char> > >, std::__ndk1::monostate>::listen<PathfinderNode::finalize(std::__ndk1::vector<unsigned char, std::__ndk1::allocator<unsigned char> >)::{lambda()#1}::operator()() const::{lambda(auto:1)#1}, PathfinderNode::finalize(std::__ndk1::vector<unsigned char, std::__ndk1::allocator<unsigned char> >)::{lambda()#1}::operator()() const::{lambda(auto:1)#2}, PathfinderNode::finalize(std::__ndk1::vector<unsigned char, std::__ndk1::allocator<unsigned char> >)::{lambda()#1}::operator()() const::{lambda()#1}>(PathfinderNode::finalize(std::__ndk1::vector<unsigned char, std::__ndk1::allocator<unsigned char> >)::{lambda()#1}::operator()() const::{lambda(auto:1)#1}&&, PathfinderNode::finalize(std::__ndk1::vector<unsigned char, std::__ndk1::allocator<unsigned char> >)::{lambda()#1}::operator()() const::{lambda(auto:1)#2}&&, PathfinderNode::finalize(std::__ndk1::vector<unsigned char, std::__ndk1::allocator<unsigned char> >)::{lambda()#1}::operator()() const::{lambda()#1}&&) const::{lambda(geode::Task<geode::Result<std::__ndk1::__fs::filesystem::path, std::__ndk1::basic_string<char, std::__ndk1::char_traits<char>, std::__ndk1::allocator<char> > >, std::__ndk1::monostate>::Event*)#1}::operator()(geode::Task<geode::Result<std::__ndk1::__fs::filesystem::path, std::__ndk1::basic_string<char, std::__ndk1::char_traits<char>, std::__ndk1::allocator<char> > >, std::__ndk1::monostate>::Event*)::{lambda()#1}>, void ()>::target_type() const
PUBLIC 332ec 0 _ZNSt6__ndk110__function6__funcIZN9uibuilder5BuildI12ButtonSpriteE12intoMenuItemITkNS_12derived_fromIN7cocos2d6CCNodeEEES4_EENS3_I21CCMenuItemSpriteExtraEENS_8functionIFvvEEEEUlT_E_NS_9allocatorISG_EEFvPSA_EED2Ev
PUBLIC 33338 0 _ZNSt6__ndk110__function6__funcIZN9uibuilder5BuildI12ButtonSpriteE12intoMenuItemITkNS_12derived_fromIN7cocos2d6CCNodeEEES4_EENS3_I21CCMenuItemSpriteExtraEENS_8functionIFvvEEEEUlT_E_NS_9allocatorISG_EEFvPSA_EED0Ev
PUBLIC 33388 0 _ZNKSt6__ndk110__function6__funcIZN9uibuilder5BuildI12ButtonSpriteE12intoMenuItemITkNS_12derived_fromIN7cocos2d6CCNodeEEES4_EENS3_I21CCMenuItemSpriteExtraEENS_8functionIFvvEEEEUlT_E_NS_9allocatorISG_EEFvPSA_EE7__cloneEv
PUBLIC 33418 0 _ZNKSt6__ndk110__function6__funcIZN9uibuilder5BuildI12ButtonSpriteE12intoMenuItemITkNS_12derived_fromIN7cocos2d6CCNodeEEES4_EENS3_I21CCMenuItemSpriteExtraEENS_8functionIFvvEEEEUlT_E_NS_9allocatorISG_EEFvPSA_EE7__cloneEPNS0_6__baseISK_EE
PUBLIC 33480 0 _ZNSt6__ndk110__function6__funcIZN9uibuilder5BuildI12ButtonSpriteE12intoMenuItemITkNS_12derived_fromIN7cocos2d6CCNodeEEES4_EENS3_I21CCMenuItemSpriteExtraEENS_8functionIFvvEEEEUlT_E_NS_9allocatorISG_EEFvPSA_EE7destroyEv
PUBLIC 334c0 0 _ZNSt6__ndk110__function6__funcIZN9uibuilder5BuildI12ButtonSpriteE12intoMenuItemITkNS_12derived_fromIN7cocos2d6CCNodeEEES4_EENS3_I21CCMenuItemSpriteExtraEENS_8functionIFvvEEEEUlT_E_NS_9allocatorISG_EEFvPSA_EE18destroy_deallocateEv
PUBLIC 33504 0 _ZNSt6__ndk110__function6__funcIZN9uibuilder5BuildI12ButtonSpriteE12intoMenuItemITkNS_12derived_fromIN7cocos2d6CCNodeEEES4_EENS3_I21CCMenuItemSpriteExtraEENS_8functionIFvvEEEEUlT_E_NS_9allocatorISG_EEFvPSA_EEclEOSJ_
PUBLIC 33520 0 _ZNKSt6__ndk110__function6__funcIZN9uibuilder5BuildI12ButtonSpriteE12intoMenuItemITkNS_12derived_fromIN7cocos2d6CCNodeEEES4_EENS3_I21CCMenuItemSpriteExtraEENS_8functionIFvvEEEEUlT_E_NS_9allocatorISG_EEFvPSA_EE6targetERKSt9type_info
PUBLIC 3353c 0 _ZNKSt6__ndk110__function6__funcIZN9uibuilder5BuildI12ButtonSpriteE12intoMenuItemITkNS_12derived_fromIN7cocos2d6CCNodeEEES4_EENS3_I21CCMenuItemSpriteExtraEENS_8functionIFvvEEEEUlT_E_NS_9allocatorISG_EEFvPSA_EE11target_typeEv
PUBLIC 33548 0 std::__ndk1::__function::__func<PathfinderNode::init(std::__ndk1::basic_string<char, std::__ndk1::char_traits<char>, std::__ndk1::allocator<char> > const&, std::__ndk1::basic_string<char, std::__ndk1::char_traits<char>, std::__ndk1::allocator<char> > const&)::{lambda()#2}, std::__ndk1::allocator<PathfinderNode::init(std::__ndk1::basic_string<char, std::__ndk1::char_traits<char>, std::__ndk1::allocator<char> > const&, std::__ndk1::basic_string<char, std::__ndk1::char_traits<char>, std::__ndk1::allocator<char> > const&)::{lambda()#2}>, void ()>::~__func()
PUBLIC 3354c 0 std::__ndk1::__function::__func<PathfinderNode::init(std::__ndk1::basic_string<char, std::__ndk1::char_traits<char>, std::__ndk1::allocator<char> > const&, std::__ndk1::basic_string<char, std::__ndk1::char_traits<char>, std::__ndk1::allocator<char> > const&)::{lambda()#2}, std::__ndk1::allocator<PathfinderNode::init(std::__ndk1::basic_string<char, std::__ndk1::char_traits<char>, std::__ndk1::allocator<char> > const&, std::__ndk1::basic_string<char, std::__ndk1::char_traits<char>, std::__ndk1::allocator<char> > const&)::{lambda()#2}>, void ()>::__clone() const
PUBLIC 33574 0 std::__ndk1::__function::__func<PathfinderNode::init(std::__ndk1::basic_string<char, std::__ndk1::char_traits<char>, std::__ndk1::allocator<char> > const&, std::__ndk1::basic_string<char, std::__ndk1::char_traits<char>, std::__ndk1::allocator<char> > const&)::{lambda()#2}, std::__ndk1::allocator<PathfinderNode::init(std::__ndk1::basic_string<char, std::__ndk1::char_traits<char>, std::__ndk1::allocator<char> > const&, std::__ndk1::basic_string<char, std::__ndk1::char_traits<char>, std::__ndk1::allocator<char> > const&)::{lambda()#2}>, void ()>::__clone(std::__ndk1::__function::__base<void ()>*) const
PUBLIC 33588 0 std::__ndk1::__function::__func<PathfinderNode::init(std::__ndk1::basic_string<char, std::__ndk1::char_traits<char>, std::__ndk1::allocator<char> > const&, std::__ndk1::basic_string<char, std::__ndk1::char_traits<char>, std::__ndk1::allocator<char> > const&)::{lambda()#2}, std::__ndk1::allocator<PathfinderNode::init(std::__ndk1::basic_string<char, std::__ndk1::char_traits<char>, std::__ndk1::allocator<char> > const&, std::__ndk1::basic_string<char, std::__ndk1::char_traits<char>, std::__ndk1::allocator<char> > const&)::{lambda()#2}>, void ()>::destroy()
PUBLIC 3358c 0 std::__ndk1::__function::__func<PathfinderNode::init(std::__ndk1::basic_string<char, std::__ndk1::char_traits<char>, std::__ndk1::allocator<char> > const&, std::__ndk1::basic_string<char, std::__ndk1::char_traits<char>, std::__ndk1::allocator<char> > const&)::{lambda()#2}, std::__ndk1::allocator<PathfinderNode::init(std::__ndk1::basic_string<char, std::__ndk1::char_traits<char>, std::__ndk1::allocator<char> > const&, std::__ndk1::basic_string<char, std::__ndk1::char_traits<char>, std::__ndk1::allocator<char> > const&)::{lambda()#2}>, void ()>::destroy_deallocate()
PUBLIC 33590 0 std::__ndk1::__function::__func<PathfinderNode::init(std::__ndk1::basic_string<char, std::__ndk1::char_traits<char>, std::__ndk1::allocator<char> > const&, std::__ndk1::basic_string<char, std::__ndk1::char_traits<char>, std::__ndk1::allocator<char> > const&)::{lambda()#2}, std::__ndk1::allocator<PathfinderNode::init(std::__ndk1::basic_string<char, std::__ndk1::char_traits<char>, std::__ndk1::allocator<char> > const&, std::__ndk1::basic_string<char, std::__ndk1::char_traits<char>, std::__ndk1::allocator<char> > const&)::{lambda()#2}>, void ()>::operator()()
PUBLIC 336a0 0 std::__ndk1::__function::__func<PathfinderNode::init(std::__ndk1::basic_string<char, std::__ndk1::char_traits<char>, std::__ndk1::allocator<char> > const&, std::__ndk1::basic_string<char, std::__ndk1::char_traits<char>, std::__ndk1::allocator<char> > const&)::{lambda()#2}, std::__ndk1::allocator<PathfinderNode::init(std::__ndk1::basic_string<char, std::__ndk1::char_traits<char>, std::__ndk1::allocator<char> > const&, std::__ndk1::basic_string<char, std::__ndk1::char_traits<char>, std::__ndk1::allocator<char> > const&)::{lambda()#2}>, void ()>::target(std::type_info const&) const
PUBLIC 336bc 0 std::__ndk1::__function::__func<PathfinderNode::init(std::__ndk1::basic_string<char, std::__ndk1::char_traits<char>, std::__ndk1::allocator<char> > const&, std::__ndk1::basic_string<char, std::__ndk1::char_traits<char>, std::__ndk1::allocator<char> > const&)::{lambda()#2}, std::__ndk1::allocator<PathfinderNode::init(std::__ndk1::basic_string<char, std::__ndk1::char_traits<char>, std::__ndk1::allocator<char> > const&, std::__ndk1::basic_string<char, std::__ndk1::char_traits<char>, std::__ndk1::allocator<char> > const&)::{lambda()#2}>, void ()>::target_type() const
PUBLIC 336c8 0 _ZNSt6__ndk110__function6__funcIZN9uibuilder5BuildIN7cocos2d8CCSpriteEE12intoMenuItemITkNS_12derived_fromINS4_6CCNodeEEES5_EENS3_I21CCMenuItemSpriteExtraEENS_8functionIFvvEEEEUlT_E_NS_9allocatorISG_EEFvPSA_EED2Ev
PUBLIC 33714 0 _ZNSt6__ndk110__function6__funcIZN9uibuilder5BuildIN7cocos2d8CCSpriteEE12intoMenuItemITkNS_12derived_fromINS4_6CCNodeEEES5_EENS3_I21CCMenuItemSpriteExtraEENS_8functionIFvvEEEEUlT_E_NS_9allocatorISG_EEFvPSA_EED0Ev
PUBLIC 33764 0 _ZNKSt6__ndk110__function6__funcIZN9uibuilder5BuildIN7cocos2d8CCSpriteEE12intoMenuItemITkNS_12derived_fromINS4_6CCNodeEEES5_EENS3_I21CCMenuItemSpriteExtraEENS_8functionIFvvEEEEUlT_E_NS_9allocatorISG_EEFvPSA_EE7__cloneEv
PUBLIC 337f4 0 _ZNKSt6__ndk110__function6__funcIZN9uibuilder5BuildIN7cocos2d8CCSpriteEE12intoMenuItemITkNS_12derived_fromINS4_6CCNodeEEES5_EENS3_I21CCMenuItemSpriteExtraEENS_8functionIFvvEEEEUlT_E_NS_9allocatorISG_EEFvPSA_EE7__cloneEPNS0_6__baseISK_EE
PUBLIC 3385c 0 _ZNSt6__ndk110__function6__funcIZN9uibuilder5BuildIN7cocos2d8CCSpriteEE12intoMenuItemITkNS_12derived_fromINS4_6CCNodeEEES5_EENS3_I21CCMenuItemSpriteExtraEENS_8functionIFvvEEEEUlT_E_NS_9allocatorISG_EEFvPSA_EE7destroyEv
PUBLIC 3389c 0 _ZNSt6__ndk110__function6__funcIZN9uibuilder5BuildIN7cocos2d8CCSpriteEE12intoMenuItemITkNS_12derived_fromINS4_6CCNodeEEES5_EENS3_I21CCMenuItemSpriteExtraEENS_8functionIFvvEEEEUlT_E_NS_9allocatorISG_EEFvPSA_EE18destroy_deallocateEv
PUBLIC 338e0 0 _ZNSt6__ndk110__function6__funcIZN9uibuilder5BuildIN7cocos2d8CCSpriteEE12intoMenuItemITkNS_12derived_fromINS4_6CCNodeEEES5_EENS3_I21CCMenuItemSpriteExtraEENS_8functionIFvvEEEEUlT_E_NS_9allocatorISG_EEFvPSA_EEclEOSJ_
PUBLIC 338fc 0 _ZNKSt6__ndk110__function6__funcIZN9uibuilder5BuildIN7cocos2d8CCSpriteEE12intoMenuItemITkNS_12derived_fromINS4_6CCNodeEEES5_EENS3_I21CCMenuItemSpriteExtraEENS_8functionIFvvEEEEUlT_E_NS_9allocatorISG_EEFvPSA_EE6targetERKSt9type_info
PUBLIC 33918 0 _ZNKSt6__ndk110__function6__funcIZN9uibuilder5BuildIN7cocos2d8CCSpriteEE12intoMenuItemITkNS_12derived_fromINS4_6CCNodeEEES5_EENS3_I21CCMenuItemSpriteExtraEENS_8functionIFvvEEEEUlT_E_NS_9allocatorISG_EEFvPSA_EE11target_typeEv
PUBLIC 33924 0 std::__ndk1::__function::__func<PathfinderNode::init(std::__ndk1::basic_string<char, std::__ndk1::char_traits<char>, std::__ndk1::allocator<char> > const&, std::__ndk1::basic_string<char, std::__ndk1::char_traits<char>, std::__ndk1::allocator<char> > const&)::{lambda()#3}, std::__ndk1::allocator<PathfinderNode::init(std::__ndk1::basic_string<char, std::__ndk1::char_traits<char>, std::__ndk1::allocator<char> > const&, std::__ndk1::basic_string<char, std::__ndk1::char_traits<char>, std::__ndk1::allocator<char> > const&)::{lambda()#3}>, void ()>::~__func()
PUBLIC 33928 0 std::__ndk1::__function::__func<PathfinderNode::init(std::__ndk1::basic_string<char, std::__ndk1::char_traits<char>, std::__ndk1::allocator<char> > const&, std::__ndk1::basic_string<char, std::__ndk1::char_traits<char>, std::__ndk1::allocator<char> > const&)::{lambda()#3}, std::__ndk1::allocator<PathfinderNode::init(std::__ndk1::basic_string<char, std::__ndk1::char_traits<char>, std::__ndk1::allocator<char> > const&, std::__ndk1::basic_string<char, std::__ndk1::char_traits<char>, std::__ndk1::allocator<char> > const&)::{lambda()#3}>, void ()>::__clone() const
PUBLIC 33950 0 std::__ndk1::__function::__func<PathfinderNode::init(std::__ndk1::basic_string<char, std::__ndk1::char_traits<char>, std::__ndk1::allocator<char> > const&, std::__ndk1::basic_string<char, std::__ndk1::char_traits<char>, std::__ndk1::allocator<char> > const&)::{lambda()#3}, std::__ndk1::allocator<PathfinderNode::init(std::__ndk1::basic_string<char, std::__ndk1::char_traits<char>, std::__ndk1::allocator<char> > const&, std::__ndk1::basic_string<char, std::__ndk1::char_traits<char>, std::__ndk1::allocator<char> > const&)::{lambda()#3}>, void ()>::__clone(std::__ndk1::__function::__base<void ()>*) const
PUBLIC 33964 0 std::__ndk1::__function::__func<PathfinderNode::init(std::__ndk1::basic_string<char, std::__ndk1::char_traits<char>, std::__ndk1::allocator<char> > const&, std::__ndk1::basic_string<char, std::__ndk1::char_traits<char>, std::__ndk1::allocator<char> > const&)::{lambda()#3}, std::__ndk1::allocator<PathfinderNode::init(std::__ndk1::basic_string<char, std::__ndk1::char_traits<char>, std::__ndk1::allocator<char> > const&, std::__ndk1::basic_string<char, std::__ndk1::char_traits<char>, std::__ndk1::allocator<char> > const&)::{lambda()#3}>, void ()>::destroy()
PUBLIC 33968 0 std::__ndk1::__function::__func<PathfinderNode::init(std::__ndk1::basic_string<char, std::__ndk1::char_traits<char>, std::__ndk1::allocator<char> > const&, std::__ndk1::basic_string<char, std::__ndk1::char_traits<char>, std::__ndk1::allocator<char> > const&)::{lambda()#3}, std::__ndk1::allocator<PathfinderNode::init(std::__ndk1::basic_string<char, std::__ndk1::char_traits<char>, std::__ndk1::allocator<char> > const&, std::__ndk1::basic_string<char, std::__ndk1::char_traits<char>, std::__ndk1::allocator<char> > const&)::{lambda()#3}>, void ()>::destroy_deallocate()
PUBLIC 3396c 0 std::__ndk1::__function::__func<PathfinderNode::init(std::__ndk1::basic_string<char, std::__ndk1::char_traits<char>, std::__ndk1::allocator<char> > const&, std::__ndk1::basic_string<char, std::__ndk1::char_traits<char>, std::__ndk1::allocator<char> > const&)::{lambda()#3}, std::__ndk1::allocator<PathfinderNode::init(std::__ndk1::basic_string<char, std::__ndk1::char_traits<char>, std::__ndk1::allocator<char> > const&, std::__ndk1::basic_string<char, std::__ndk1::char_traits<char>, std::__ndk1::allocator<char> > const&)::{lambda()#3}>, void ()>::operator()()
PUBLIC 3398c 0 std::__ndk1::__function::__func<PathfinderNode::init(std::__ndk1::basic_string<char, std::__ndk1::char_traits<char>, std::__ndk1::allocator<char> > const&, std::__ndk1::basic_string<char, std::__ndk1::char_traits<char>, std::__ndk1::allocator<char> > const&)::{lambda()#3}, std::__ndk1::allocator<PathfinderNode::init(std::__ndk1::basic_string<char, std::__ndk1::char_traits<char>, std::__ndk1::allocator<char> > const&, std::__ndk1::basic_string<char, std::__ndk1::char_traits<char>, std::__ndk1::allocator<char> > const&)::{lambda()#3}>, void ()>::target(std::type_info const&) const
PUBLIC 339a8 0 std::__ndk1::__function::__func<PathfinderNode::init(std::__ndk1::basic_string<char, std::__ndk1::char_traits<char>, std::__ndk1::allocator<char> > const&, std::__ndk1::basic_string<char, std::__ndk1::char_traits<char>, std::__ndk1::allocator<char> > const&)::{lambda()#3}, std::__ndk1::allocator<PathfinderNode::init(std::__ndk1::basic_string<char, std::__ndk1::char_traits<char>, std::__ndk1::allocator<char> > const&, std::__ndk1::basic_string<char, std::__ndk1::char_traits<char>, std::__ndk1::allocator<char> > const&)::{lambda()#3}>, void ()>::target_type() const
PUBLIC 339b4 0 std::__ndk1::__tree<std::__ndk1::__value_type<std::__ndk1::basic_string<char, std::__ndk1::char_traits<char>, std::__ndk1::allocator<char> >, std::__ndk1::shared_ptr<geode::Hook> >, std::__ndk1::__map_value_compare<std::__ndk1::basic_string<char, std::__ndk1::char_traits<char>, std::__ndk1::allocator<char> >, std::__ndk1::__value_type<std::__ndk1::basic_string<char, std::__ndk1::char_traits<char>, std::__ndk1::allocator<char> >, std::__ndk1::shared_ptr<geode::Hook> >, std::__ndk1::less<std::__ndk1::basic_string<char, std::__ndk1::char_traits<char>, std::__ndk1::allocator<char> > >, true>, std::__ndk1::allocator<std::__ndk1::__value_type<std::__ndk1::basic_string<char, std::__ndk1::char_traits<char>, std::__ndk1::allocator<char> >, std::__ndk1::shared_ptr<geode::Hook> > > >::__emplace_unique_key_args<std::__ndk1::basic_string<char, std::__ndk1::char_traits<char>, std::__ndk1::allocator<char> >, std::__ndk1::piecewise_construct_t const&, std::__ndk1::tuple<std::__ndk1::basic_string<char, std::__ndk1::char_traits<char>, std::__ndk1::allocator<char> >&&>, std::__ndk1::tuple<> >(std::__ndk1::basic_string<char, std::__ndk1::char_traits<char>, std::__ndk1::allocator<char> > const&, std::__ndk1::piecewise_construct_t const&, std::__ndk1::tuple<std::__ndk1::basic_string<char, std::__ndk1::char_traits<char>, std::__ndk1::allocator<char> >&&>, std::__ndk1::tuple<>)
PUBLIC 33b18 0 std::__ndk1::__tree_balance_after_insert[abi:ne180000]<std::__ndk1::__tree_node_base<void*>*>(std::__ndk1::__tree_node_base<void*>*, std::__ndk1::__tree_node_base<void*>*)
PUBLIC 33cc8 0 geode::modifier::ModifyDerive<hook161<(anonymous namespace)::hook161Parent>, LevelInfoLayer>::apply()
PUBLIC 34058 0 geode::modifier::ModifyBase<geode::modifier::ModifyDerive<hook161<(anonymous namespace)::hook161Parent>, LevelInfoLayer> >::apply()
PUBLIC 3405c 0 geode::modifier::AsStaticFunction_init<hook161<(anonymous namespace)::hook161Parent>, bool (hook161<(anonymous namespace)::hook161Parent>::*)(GJGameLevel*, bool)>::Impl<bool (hook161<(anonymous namespace)::hook161Parent>::*)(GJGameLevel*, bool)>::function(hook161<(anonymous namespace)::hook161Parent>*, GJGameLevel*, bool)
PUBLIC 34394 0 std::__ndk1::__function::__base<void ()>::~__base()
PUBLIC 34398 0 std::__ndk1::__function::__func<hook161<(anonymous namespace)::hook161Parent>::init(GJGameLevel*, bool)::{lambda()#1}, std::__ndk1::allocator<hook161<(anonymous namespace)::hook161Parent>::init(GJGameLevel*, bool)::{lambda()#1}>, void ()>::~__func()
PUBLIC 3439c 0 std::__ndk1::__function::__func<hook161<(anonymous namespace)::hook161Parent>::init(GJGameLevel*, bool)::{lambda()#1}, std::__ndk1::allocator<hook161<(anonymous namespace)::hook161Parent>::init(GJGameLevel*, bool)::{lambda()#1}>, void ()>::__clone() const
PUBLIC 343c4 0 std::__ndk1::__function::__func<hook161<(anonymous namespace)::hook161Parent>::init(GJGameLevel*, bool)::{lambda()#1}, std::__ndk1::allocator<hook161<(anonymous namespace)::hook161Parent>::init(GJGameLevel*, bool)::{lambda()#1}>, void ()>::__clone(std::__ndk1::__function::__base<void ()>*) const
PUBLIC 343d8 0 std::__ndk1::__function::__func<hook161<(anonymous namespace)::hook161Parent>::init(GJGameLevel*, bool)::{lambda()#1}, std::__ndk1::allocator<hook161<(anonymous namespace)::hook161Parent>::init(GJGameLevel*, bool)::{lambda()#1}>, void ()>::destroy()
PUBLIC 343dc 0 std::__ndk1::__function::__func<hook161<(anonymous namespace)::hook161Parent>::init(GJGameLevel*, bool)::{lambda()#1}, std::__ndk1::allocator<hook161<(anonymous namespace)::hook161Parent>::init(GJGameLevel*, bool)::{lambda()#1}>, void ()>::destroy_deallocate()
PUBLIC 343e0 0 std::__ndk1::__function::__func<hook161<(anonymous namespace)::hook161Parent>::init(GJGameLevel*, bool)::{lambda()#1}, std::__ndk1::allocator<hook161<(anonymous namespace)::hook161Parent>::init(GJGameLevel*, bool)::{lambda()#1}>, void ()>::operator()()
PUBLIC 344e8 0 std::__ndk1::__function::__func<hook161<(anonymous namespace)::hook161Parent>::init(GJGameLevel*, bool)::{lambda()#1}, std::__ndk1::allocator<hook161<(anonymous namespace)::hook161Parent>::init(GJGameLevel*, bool)::{lambda()#1}>, void ()>::target(std::type_info const&) const
PUBLIC 34504 0 std::__ndk1::__function::__func<hook161<(anonymous namespace)::hook161Parent>::init(GJGameLevel*, bool)::{lambda()#1}, std::__ndk1::allocator<hook161<(anonymous namespace)::hook161Parent>::init(GJGameLevel*, bool)::{lambda()#1}>, void ()>::target_type() const
PUBLIC 34510 0 pathfind(std::__ndk1::basic_string<char, std::__ndk1::char_traits<char>, std::__ndk1::allocator<char> > const&, std::__ndk1::atomic<bool>&, std::__ndk1::function<void (double)>)
PUBLIC 37734 0 gdr::Replay<Replay2, gdr::Input>::~Replay()
PUBLIC 377d4 0 Level::~Level()
PUBLIC 37878 0 std::__ndk1::vector<Player, std::__ndk1::allocator<Player> >::~vector[abi:ne180000]()
PUBLIC 378d0 0 _ZNSt6__ndk112__destroy_atB8ne180000I6PlayerTnNS_9enable_ifIXntsr8is_arrayIT_EE5valueEiE4typeELi0EEEvPS3_
PUBLIC 37a30 0 cow_set<int>::~cow_set()
PUBLIC 37a70 0 Vehicle::~Vehicle()
PUBLIC 37b20 0 std::__ndk1::__exception_guard_exceptions<std::__ndk1::vector<Player, std::__ndk1::allocator<Player> >::__destroy_vector>::~__exception_guard_exceptions[abi:ne180000]()
PUBLIC 37b98 0 std::__ndk1::vector<Player, std::__ndk1::allocator<Player> >::__throw_length_error[abi:ne180000]() const
PUBLIC 37ba8 0 std::__ndk1::construct_at[abi:ne180000]<Player, std::__ndk1::construct_at[abi:ne180000]&, std::__ndk1::construct_at[abi:ne180000]*>(Player, std::__ndk1::construct_at[abi:ne180000]&)
PUBLIC 37cec 0 Vehicle::Vehicle(Vehicle const&)
PUBLIC 37e80 0 std::__ndk1::vector<std::__ndk1::function<void (Player&)>, std::__ndk1::allocator<std::__ndk1::function<void (Player&)> > >::__init_with_size[abi:ne180000]<std::__ndk1::function<void (Player&)>*, std::__ndk1::vector<std::__ndk1::function<void (Player&)>, std::__ndk1::allocator<std::__ndk1::function<void (Player&)> > >::__init_with_size[abi:ne180000]>(std::__ndk1::function<void (Player&)>*, std::__ndk1::vector<std::__ndk1::function<void (Player&)>, std::__ndk1::allocator<std::__ndk1::function<void (Player&)> > >::__init_with_size[abi:ne180000], unsigned long)
PUBLIC 37ff4 0 std::__ndk1::__exception_guard_exceptions<std::__ndk1::vector<std::__ndk1::function<void (Player&)>, std::__ndk1::allocator<std::__ndk1::function<void (Player&)> > >::__destroy_vector>::~__exception_guard_exceptions[abi:ne180000]()
PUBLIC 380a0 0 std::__ndk1::vector<std::__ndk1::function<void (Player&)>, std::__ndk1::allocator<std::__ndk1::function<void (Player&)> > >::__throw_length_error[abi:ne180000]() const
PUBLIC 380b0 0 std::__ndk1::__exception_guard_exceptions<std::__ndk1::_AllocatorDestroyRangeReverse<std::__ndk1::allocator<std::__ndk1::function<void (Player&)> >, std::__ndk1::function<void (Player&)>*> >::~__exception_guard_exceptions[abi:ne180000]()
PUBLIC 38118 0 std::__ndk1::__exception_guard_exceptions<std::__ndk1::vector<std::__ndk1::vector<ObjectContainer, std::__ndk1::allocator<ObjectContainer> >, std::__ndk1::allocator<std::__ndk1::vector<ObjectContainer, std::__ndk1::allocator<ObjectContainer> > > >::__destroy_vector>::~__exception_guard_exceptions[abi:ne180000]()
PUBLIC 381a0 0 std::__ndk1::vector<std::__ndk1::vector<ObjectContainer, std::__ndk1::allocator<ObjectContainer> >, std::__ndk1::allocator<std::__ndk1::vector<ObjectContainer, std::__ndk1::allocator<ObjectContainer> > > >::__throw_length_error[abi:ne180000]() const
PUBLIC 381b0 0 std::__ndk1::__uninitialized_allocator_copy_impl[abi:ne180000]<std::__ndk1::allocator<std::__ndk1::vector<ObjectContainer, std::__ndk1::__uninitialized_allocator_copy_impl[abi:ne180000]<std::__ndk1::vector> > >, std::__ndk1::__uninitialized_allocator_copy_impl[abi:ne180000]<std::__ndk1::vector>*, std::__ndk1::allocator<std::__ndk1::vector<ObjectContainer, std::__ndk1::__uninitialized_allocator_copy_impl[abi:ne180000]<std::__ndk1::vector> > >, std::__ndk1::allocator<std::__ndk1::vector<ObjectContainer, std::__ndk1::__uninitialized_allocator_copy_impl[abi:ne180000]<std::__ndk1::vector> > > >(std::__ndk1::allocator<std::__ndk1::vector<ObjectContainer, std::__ndk1::__uninitialized_allocator_copy_impl[abi:ne180000]<std::__ndk1::vector> > >&, std::__ndk1::__uninitialized_allocator_copy_impl[abi:ne180000]<std::__ndk1::vector>*, std::__ndk1::allocator<std::__ndk1::vector<ObjectContainer, std::__ndk1::__uninitialized_allocator_copy_impl[abi:ne180000]<std::__ndk1::vector> > >, std::__ndk1::__uninitialized_allocator_copy_impl[abi:ne180000]<std::__ndk1::vector>*)
PUBLIC 38310 0 std::__ndk1::__exception_guard_exceptions<std::__ndk1::_AllocatorDestroyRangeReverse<std::__ndk1::allocator<std::__ndk1::vector<ObjectContainer, std::__ndk1::allocator<ObjectContainer> > >, std::__ndk1::vector<ObjectContainer, std::__ndk1::allocator<ObjectContainer> >*> >::~__exception_guard_exceptions[abi:ne180000]()
PUBLIC 3836c 0 std::__ndk1::vector<ObjectContainer, std::__ndk1::allocator<ObjectContainer> >::__throw_length_error[abi:ne180000]() const
PUBLIC 3837c 0 Player::operator=(Player const&)
PUBLIC 38b18 0 std::__ndk1::__function::__value_func<void (Player&, Object const*, bool)>::swap[abi:ne180000](std::__ndk1::__function::__value_func<void (Player&, Object const*, bool)>&)
PUBLIC 38ca4 0 std::__ndk1::__function::__value_func<void (Player&)>::swap[abi:ne180000](std::__ndk1::__function::__value_func<void (Player&)>&)
PUBLIC 38e30 0 std::__ndk1::vector<ObjectContainer, std::__ndk1::allocator<ObjectContainer> >::__assign_with_size[abi:ne180000]<ObjectContainer*, std::__ndk1::vector<ObjectContainer, std::__ndk1::allocator<ObjectContainer> >::__assign_with_size[abi:ne180000]>(ObjectContainer*, std::__ndk1::vector<ObjectContainer, std::__ndk1::allocator<ObjectContainer> >::__assign_with_size[abi:ne180000], long)
PUBLIC 39014 0 gdr::Replay<Replay2, gdr::Input>::parseExtension(std::__ndk1::map<std::__ndk1::basic_string<char, std::__ndk1::char_traits<char>, std::__ndk1::allocator<char> >, nlohmann::json_abi_v3_11_3::basic_json<std::__ndk1::map, std::__ndk1::vector, std::__ndk1::basic_string<char, std::__ndk1::char_traits<char>, std::__ndk1::allocator<char> >, bool, long, unsigned long, double, std::__ndk1::allocator, nlohmann::json_abi_v3_11_3::adl_serializer, std::__ndk1::vector<unsigned char, std::__ndk1::allocator<unsigned char> >, void>, std::__ndk1::less<void>, std::__ndk1::allocator<std::__ndk1::pair<std::__ndk1::basic_string<char, std::__ndk1::char_traits<char>, std::__ndk1::allocator<char> > const, nlohmann::json_abi_v3_11_3::basic_json<std::__ndk1::map, std::__ndk1::vector, std::__ndk1::basic_string<char, std::__ndk1::char_traits<char>, std::__ndk1::allocator<char> >, bool, long, unsigned long, double, std::__ndk1::allocator, nlohmann::json_abi_v3_11_3::adl_serializer, std::__ndk1::vector<unsigned char, std::__ndk1::allocator<unsigned char> >, void> > > >)
PUBLIC 39018 0 gdr::Replay<Replay2, gdr::Input>::saveExtension() const
PUBLIC 3902c 0 gdr::Input::parseExtension(std::__ndk1::map<std::__ndk1::basic_string<char, std::__ndk1::char_traits<char>, std::__ndk1::allocator<char> >, nlohmann::json_abi_v3_11_3::basic_json<std::__ndk1::map, std::__ndk1::vector, std::__ndk1::basic_string<char, std::__ndk1::char_traits<char>, std::__ndk1::allocator<char> >, bool, long, unsigned long, double, std::__ndk1::allocator, nlohmann::json_abi_v3_11_3::adl_serializer, std::__ndk1::vector<unsigned char, std::__ndk1::allocator<unsigned char> >, void>, std::__ndk1::less<void>, std::__ndk1::allocator<std::__ndk1::pair<std::__ndk1::basic_string<char, std::__ndk1::char_traits<char>, std::__ndk1::allocator<char> > const, nlohmann::json_abi_v3_11_3::basic_json<std::__ndk1::map, std::__ndk1::vector, std::__ndk1::basic_string<char, std::__ndk1::char_traits<char>, std::__ndk1::allocator<char> >, bool, long, unsigned long, double, std::__ndk1::allocator, nlohmann::json_abi_v3_11_3::adl_serializer, std::__ndk1::vector<unsigned char, std::__ndk1::allocator<unsigned char> >, void> > > >)
PUBLIC 39030 0 gdr::Input::saveExtension() const
PUBLIC 39044 0 std::__ndk1::vector<gdr::Input, std::__ndk1::allocator<gdr::Input> >::__throw_length_error[abi:ne180000]() const
PUBLIC 39054 0 std::__ndk1::__tree<unsigned short, std::__ndk1::less<unsigned short>, std::__ndk1::allocator<unsigned short> >::destroy(std::__ndk1::__tree_node<unsigned short, void*>*)
PUBLIC 39084 0 nlohmann::json_abi_v3_11_3::basic_json<std::__ndk1::map, std::__ndk1::vector, std::__ndk1::basic_string<char, std::__ndk1::char_traits<char>, std::__ndk1::allocator<char> >, bool, long, unsigned long, double, std::__ndk1::allocator, nlohmann::json_abi_v3_11_3::adl_serializer, std::__ndk1::vector<unsigned char, std::__ndk1::allocator<unsigned char> >, void>::operator[]<char const>(char const*)
PUBLIC 393dc 0 nlohmann::json_abi_v3_11_3::basic_json<std::__ndk1::map, std::__ndk1::vector, std::__ndk1::basic_string<char, std::__ndk1::char_traits<char>, std::__ndk1::allocator<char> >, bool, long, unsigned long, double, std::__ndk1::allocator, nlohmann::json_abi_v3_11_3::adl_serializer, std::__ndk1::vector<unsigned char, std::__ndk1::allocator<unsigned char> >, void>::~basic_json()
PUBLIC 393f4 0 nlohmann::json_abi_v3_11_3::basic_json<std::__ndk1::map, std::__ndk1::vector, std::__ndk1::basic_string<char, std::__ndk1::char_traits<char>, std::__ndk1::allocator<char> >, bool, long, unsigned long, double, std::__ndk1::allocator, nlohmann::json_abi_v3_11_3::adl_serializer, std::__ndk1::vector<unsigned char, std::__ndk1::allocator<unsigned char> >, void>::data::~data()
PUBLIC 3940c 0 nlohmann::json_abi_v3_11_3::basic_json<std::__ndk1::map, std::__ndk1::vector, std::__ndk1::basic_string<char, std::__ndk1::char_traits<char>, std::__ndk1::allocator<char> >, bool, long, unsigned long, double, std::__ndk1::allocator, nlohmann::json_abi_v3_11_3::adl_serializer, std::__ndk1::vector<unsigned char, std::__ndk1::allocator<unsigned char> >, void>::json_value::destroy(nlohmann::json_abi_v3_11_3::detail::value_t)
PUBLIC 39908 0 std::__ndk1::vector<nlohmann::json_abi_v3_11_3::basic_json<std::__ndk1::map, std::__ndk1::vector, std::__ndk1::basic_string<char, std::__ndk1::char_traits<char>, std::__ndk1::allocator<char> >, bool, long, unsigned long, double, std::__ndk1::allocator, nlohmann::json_abi_v3_11_3::adl_serializer, std::__ndk1::vector<unsigned char, std::__ndk1::allocator<unsigned char> >, void>, std::__ndk1::allocator<nlohmann::json_abi_v3_11_3::basic_json<std::__ndk1::map, std::__ndk1::vector, std::__ndk1::basic_string<char, std::__ndk1::char_traits<char>, std::__ndk1::allocator<char> >, bool, long, unsigned long, double, std::__ndk1::allocator, nlohmann::json_abi_v3_11_3::adl_serializer, std::__ndk1::vector<unsigned char, std::__ndk1::allocator<unsigned char> >, void> > >::~vector[abi:ne180000]()
PUBLIC 3995c 0 std::__ndk1::vector<nlohmann::json_abi_v3_11_3::basic_json<std::__ndk1::map, std::__ndk1::vector, std::__ndk1::basic_string<char, std::__ndk1::char_traits<char>, std::__ndk1::allocator<char> >, bool, long, unsigned long, double, std::__ndk1::allocator, nlohmann::json_abi_v3_11_3::adl_serializer, std::__ndk1::vector<unsigned char, std::__ndk1::allocator<unsigned char> >, void>, std::__ndk1::allocator<nlohmann::json_abi_v3_11_3::basic_json<std::__ndk1::map, std::__ndk1::vector, std::__ndk1::basic_string<char, std::__ndk1::char_traits<char>, std::__ndk1::allocator<char> >, bool, long, unsigned long, double, std::__ndk1::allocator, nlohmann::json_abi_v3_11_3::adl_serializer, std::__ndk1::vector<unsigned char, std::__ndk1::allocator<unsigned char> >, void> > >::__throw_length_error[abi:ne180000]() const
PUBLIC 3996c 0 std::__ndk1::__split_buffer<nlohmann::json_abi_v3_11_3::basic_json<std::__ndk1::map, std::__ndk1::vector, std::__ndk1::basic_string<char, std::__ndk1::char_traits<char>, std::__ndk1::allocator<char> >, bool, long, unsigned long, double, std::__ndk1::allocator, nlohmann::json_abi_v3_11_3::adl_serializer, std::__ndk1::vector<unsigned char, std::__ndk1::allocator<unsigned char> >, void>, std::__ndk1::allocator<nlohmann::json_abi_v3_11_3::basic_json<std::__ndk1::map, std::__ndk1::vector, std::__ndk1::basic_string<char, std::__ndk1::char_traits<char>, std::__ndk1::allocator<char> >, bool, long, unsigned long, double, std::__ndk1::allocator, nlohmann::json_abi_v3_11_3::adl_serializer, std::__ndk1::vector<unsigned char, std::__ndk1::allocator<unsigned char> >, void> >&>::~__split_buffer()
PUBLIC 399c0 0 std::__ndk1::vector<nlohmann::json_abi_v3_11_3::basic_json<std::__ndk1::map, std::__ndk1::vector, std::__ndk1::basic_string<char, std::__ndk1::char_traits<char>, std::__ndk1::allocator<char> >, bool, long, unsigned long, double, std::__ndk1::allocator, nlohmann::json_abi_v3_11_3::adl_serializer, std::__ndk1::vector<unsigned char, std::__ndk1::allocator<unsigned char> >, void>, std::__ndk1::allocator<nlohmann::json_abi_v3_11_3::basic_json<std::__ndk1::map, std::__ndk1::vector, std::__ndk1::basic_string<char, std::__ndk1::char_traits<char>, std::__ndk1::allocator<char> >, bool, long, unsigned long, double, std::__ndk1::allocator, nlohmann::json_abi_v3_11_3::adl_serializer, std::__ndk1::vector<unsigned char, std::__ndk1::allocator<unsigned char> >, void> > >::__push_back_slow_path<nlohmann::json_abi_v3_11_3::basic_json<std::__ndk1::map, std::__ndk1::vector, std::__ndk1::basic_string<char, std::__ndk1::char_traits<char>, std::__ndk1::allocator<char> >, bool, long, unsigned long, double, std::__ndk1::allocator, nlohmann::json_abi_v3_11_3::adl_serializer, std::__ndk1::vector<unsigned char, std::__ndk1::allocator<unsigned char> >, void> >(nlohmann::json_abi_v3_11_3::basic_json<std::__ndk1::map, std::__ndk1::vector, std::__ndk1::basic_string<char, std::__ndk1::char_traits<char>, std::__ndk1::allocator<char> >, bool, long, unsigned long, double, std::__ndk1::allocator, nlohmann::json_abi_v3_11_3::adl_serializer, std::__ndk1::vector<unsigned char, std::__ndk1::allocator<unsigned char> >, void>&&)
PUBLIC 39ad0 0 std::__ndk1::__tree<std::__ndk1::__value_type<std::__ndk1::basic_string<char, std::__ndk1::char_traits<char>, std::__ndk1::allocator<char> >, nlohmann::json_abi_v3_11_3::basic_json<std::__ndk1::map, std::__ndk1::vector, std::__ndk1::basic_string<char, std::__ndk1::char_traits<char>, std::__ndk1::allocator<char> >, bool, long, unsigned long, double, std::__ndk1::allocator, nlohmann::json_abi_v3_11_3::adl_serializer, std::__ndk1::vector<unsigned char, std::__ndk1::allocator<unsigned char> >, void> >, std::__ndk1::__map_value_compare<std::__ndk1::basic_string<char, std::__ndk1::char_traits<char>, std::__ndk1::allocator<char> >, std::__ndk1::__value_type<std::__ndk1::basic_string<char, std::__ndk1::char_traits<char>, std::__ndk1::allocator<char> >, nlohmann::json_abi_v3_11_3::basic_json<std::__ndk1::map, std::__ndk1::vector, std::__ndk1::basic_string<char, std::__ndk1::char_traits<char>, std::__ndk1::allocator<char> >, bool, long, unsigned long, double, std::__ndk1::allocator, nlohmann::json_abi_v3_11_3::adl_serializer, std::__ndk1::vector<unsigned char, std::__ndk1::allocator<unsigned char> >, void> >, std::__ndk1::less<void>, true>, std::__ndk1::allocator<std::__ndk1::__value_type<std::__ndk1::basic_string<char, std::__ndk1::char_traits<char>, std::__ndk1::allocator<char> >, nlohmann::json_abi_v3_11_3::basic_json<std::__ndk1::map, std::__ndk1::vector, std::__ndk1::basic_string<char, std::__ndk1::char_traits<char>, std::__ndk1::allocator<char> >, bool, long, unsigned long, double, std::__ndk1::allocator, nlohmann::json_abi_v3_11_3::adl_serializer, std::__ndk1::vector<unsigned char, std::__ndk1::allocator<unsigned char> >, void> > > >::destroy(std::__ndk1::__tree_node<std::__ndk1::__value_type<std::__ndk1::basic_string<char, std::__ndk1::char_traits<char>, std::__ndk1::allocator<char> >, nlohmann::json_abi_v3_11_3::basic_json<std::__ndk1::map, std::__ndk1::vector, std::__ndk1::basic_string<char, std::__ndk1::char_traits<char>, std::__ndk1::allocator<char> >, bool, long, unsigned long, double, std::__ndk1::allocator, nlohmann::json_abi_v3_11_3::adl_serializer, std::__ndk1::vector<unsigned char, std::__ndk1::allocator<unsigned char> >, void> >, void*>*)
PUBLIC 39b20 0 _ZN8nlohmann16json_abi_v3_11_36detail10type_error6createIPNS0_10basic_jsonINSt6__ndk13mapENS5_6vectorENS5_12basic_stringIcNS5_11char_traitsIcEENS5_9allocatorIcEEEEblmdSB_NS0_14adl_serializerENS7_IhNSB_IhEEEEvEETnNS5_9enable_ifIXsr21is_basic_json_contextIT_EE5valueEiE4typeELi0EEES2_iRKSD_SK_
PUBLIC 39e94 0 nlohmann::json_abi_v3_11_3::detail::concat<std::__ndk1::basic_string<char, std::__ndk1::char_traits<char>, std::__ndk1::allocator<char> >, char const (&) [51], char const*>(char const (&) [51], char const*)
PUBLIC 39f30 0 nlohmann::json_abi_v3_11_3::basic_json<std::__ndk1::map, std::__ndk1::vector, std::__ndk1::basic_string<char, std::__ndk1::char_traits<char>, std::__ndk1::allocator<char> >, bool, long, unsigned long, double, std::__ndk1::allocator, nlohmann::json_abi_v3_11_3::adl_serializer, std::__ndk1::vector<unsigned char, std::__ndk1::allocator<unsigned char> >, void>::type_name() const
PUBLIC 39f60 0 nlohmann::json_abi_v3_11_3::detail::exception::~exception()
PUBLIC 39f84 0 std::__ndk1::unique_ptr<std::__ndk1::__tree_node<std::__ndk1::__value_type<std::__ndk1::basic_string<char, std::__ndk1::char_traits<char>, std::__ndk1::allocator<char> >, nlohmann::json_abi_v3_11_3::basic_json<std::__ndk1::map, std::__ndk1::vector, std::__ndk1::basic_string<char, std::__ndk1::char_traits<char>, std::__ndk1::allocator<char> >, bool, long, unsigned long, double, std::__ndk1::allocator, nlohmann::json_abi_v3_11_3::adl_serializer, std::__ndk1::vector<unsigned char, std::__ndk1::allocator<unsigned char> >, void> >, void*>, std::__ndk1::__tree_node_destructor<std::__ndk1::allocator<std::__ndk1::__tree_node<std::__ndk1::__value_type<std::__ndk1::basic_string<char, std::__ndk1::char_traits<char>, std::__ndk1::allocator<char> >, nlohmann::json_abi_v3_11_3::basic_json<std::__ndk1::map, std::__ndk1::vector, std::__ndk1::basic_string<char, std::__ndk1::char_traits<char>, std::__ndk1::allocator<char> >, bool, long, unsigned long, double, std::__ndk1::allocator, nlohmann::json_abi_v3_11_3::adl_serializer, std::__ndk1::vector<unsigned char, std::__ndk1::allocator<unsigned char> >, void> >, void*> > > >::~unique_ptr[abi:ne180000]()
PUBLIC 39fd0 0 nlohmann::json_abi_v3_11_3::detail::exception::what() const
PUBLIC 39fd8 0 nlohmann::json_abi_v3_11_3::detail::exception::~exception()
PUBLIC 3a004 0 nlohmann::json_abi_v3_11_3::detail::type_error::~type_error()
PUBLIC 3a030 0 nlohmann::json_abi_v3_11_3::detail::concat<std::__ndk1::basic_string<char, std::__ndk1::char_traits<char>, std::__ndk1::allocator<char> >, char const (&) [29], char const*>(char const (&) [29], char const*)
PUBLIC 3a0cc 0 nlohmann::json_abi_v3_11_3::basic_json<std::__ndk1::map, std::__ndk1::vector, std::__ndk1::basic_string<char, std::__ndk1::char_traits<char>, std::__ndk1::allocator<char> >, bool, long, unsigned long, double, std::__ndk1::allocator, nlohmann::json_abi_v3_11_3::adl_serializer, std::__ndk1::vector<unsigned char, std::__ndk1::allocator<unsigned char> >, void>::basic_json(nlohmann::json_abi_v3_11_3::basic_json<std::__ndk1::map, std::__ndk1::vector, std::__ndk1::basic_string<char, std::__ndk1::char_traits<char>, std::__ndk1::allocator<char> >, bool, long, unsigned long, double, std::__ndk1::allocator, nlohmann::json_abi_v3_11_3::adl_serializer, std::__ndk1::vector<unsigned char, std::__ndk1::allocator<unsigned char> >, void> const&)
PUBLIC 3a630 0 std::__ndk1::__exception_guard_exceptions<std::__ndk1::vector<nlohmann::json_abi_v3_11_3::basic_json<std::__ndk1::map, std::__ndk1::vector, std::__ndk1::basic_string<char, std::__ndk1::char_traits<char>, std::__ndk1::allocator<char> >, bool, long, unsigned long, double, std::__ndk1::allocator, nlohmann::json_abi_v3_11_3::adl_serializer, std::__ndk1::vector<unsigned char, std::__ndk1::allocator<unsigned char> >, void>, std::__ndk1::allocator<nlohmann::json_abi_v3_11_3::basic_json<std::__ndk1::map, std::__ndk1::vector, std::__ndk1::basic_string<char, std::__ndk1::char_traits<char>, std::__ndk1::allocator<char> >, bool, long, unsigned long, double, std::__ndk1::allocator, nlohmann::json_abi_v3_11_3::adl_serializer, std::__ndk1::vector<unsigned char, std::__ndk1::allocator<unsigned char> >, void> > >::__destroy_vector>::~__exception_guard_exceptions[abi:ne180000]()
PUBLIC 3a6a0 0 std::__ndk1::__exception_guard_exceptions<std::__ndk1::_AllocatorDestroyRangeReverse<std::__ndk1::allocator<nlohmann::json_abi_v3_11_3::basic_json<std::__ndk1::map, std::__ndk1::vector, std::__ndk1::basic_string<char, std::__ndk1::char_traits<char>, std::__ndk1::allocator<char> >, bool, long, unsigned long, double, std::__ndk1::allocator, nlohmann::json_abi_v3_11_3::adl_serializer, std::__ndk1::vector<unsigned char, std::__ndk1::allocator<unsigned char> >, void> >, nlohmann::json_abi_v3_11_3::basic_json<std::__ndk1::map, std::__ndk1::vector, std::__ndk1::basic_string<char, std::__ndk1::char_traits<char>, std::__ndk1::allocator<char> >, bool, long, unsigned long, double, std::__ndk1::allocator, nlohmann::json_abi_v3_11_3::adl_serializer, std::__ndk1::vector<unsigned char, std::__ndk1::allocator<unsigned char> >, void>*> >::~__exception_guard_exceptions[abi:ne180000]()
PUBLIC 3a6e4 0 nlohmann::json_abi_v3_11_3::detail::binary_writer<nlohmann::json_abi_v3_11_3::basic_json<std::__ndk1::map, std::__ndk1::vector, std::__ndk1::basic_string<char, std::__ndk1::char_traits<char>, std::__ndk1::allocator<char> >, bool, long, unsigned long, double, std::__ndk1::allocator, nlohmann::json_abi_v3_11_3::adl_serializer, std::__ndk1::vector<unsigned char, std::__ndk1::allocator<unsigned char> >, void>, unsigned char>::write_msgpack(nlohmann::json_abi_v3_11_3::basic_json<std::__ndk1::map, std::__ndk1::vector, std::__ndk1::basic_string<char, std::__ndk1::char_traits<char>, std::__ndk1::allocator<char> >, bool, long, unsigned long, double, std::__ndk1::allocator, nlohmann::json_abi_v3_11_3::adl_serializer, std::__ndk1::vector<unsigned char, std::__ndk1::allocator<unsigned char> >, void> const&)
PUBLIC 3b370 0 nlohmann::json_abi_v3_11_3::detail::binary_writer<nlohmann::json_abi_v3_11_3::basic_json<std::__ndk1::map, std::__ndk1::vector, std::__ndk1::basic_string<char, std::__ndk1::char_traits<char>, std::__ndk1::allocator<char> >, bool, long, unsigned long, double, std::__ndk1::allocator, nlohmann::json_abi_v3_11_3::adl_serializer, std::__ndk1::vector<unsigned char, std::__ndk1::allocator<unsigned char> >, void>, unsigned char>::~binary_writer()
PUBLIC 3b3b0 0 std::__ndk1::__shared_ptr_emplace<nlohmann::json_abi_v3_11_3::detail::output_vector_adapter<unsigned char, std::__ndk1::allocator<unsigned char> >, std::__ndk1::allocator<nlohmann::json_abi_v3_11_3::detail::output_vector_adapter<unsigned char, std::__ndk1::allocator<unsigned char> > > >::~__shared_ptr_emplace()
PUBLIC 3b3c0 0 std::__ndk1::__shared_ptr_emplace<nlohmann::json_abi_v3_11_3::detail::output_vector_adapter<unsigned char, std::__ndk1::allocator<unsigned char> >, std::__ndk1::allocator<nlohmann::json_abi_v3_11_3::detail::output_vector_adapter<unsigned char, std::__ndk1::allocator<unsigned char> > > >::~__shared_ptr_emplace()
PUBLIC 3b3e4 0 std::__ndk1::__shared_ptr_emplace<nlohmann::json_abi_v3_11_3::detail::output_vector_adapter<unsigned char, std::__ndk1::allocator<unsigned char> >, std::__ndk1::allocator<nlohmann::json_abi_v3_11_3::detail::output_vector_adapter<unsigned char, std::__ndk1::allocator<unsigned char> > > >::__on_zero_shared()
PUBLIC 3b3f0 0 std::__ndk1::__shared_ptr_emplace<nlohmann::json_abi_v3_11_3::detail::output_vector_adapter<unsigned char, std::__ndk1::allocator<unsigned char> >, std::__ndk1::allocator<nlohmann::json_abi_v3_11_3::detail::output_vector_adapter<unsigned char, std::__ndk1::allocator<unsigned char> > > >::__on_zero_shared_weak()
PUBLIC 3b3f4 0 nlohmann::json_abi_v3_11_3::detail::output_vector_adapter<unsigned char, std::__ndk1::allocator<unsigned char> >::write_character(unsigned char)
PUBLIC 3b5b4 0 nlohmann::json_abi_v3_11_3::detail::output_vector_adapter<unsigned char, std::__ndk1::allocator<unsigned char> >::write_characters(unsigned char const*, unsigned long)
PUBLIC 3b8a0 0 nlohmann::json_abi_v3_11_3::detail::output_adapter_protocol<unsigned char>::~output_adapter_protocol()
PUBLIC 3b8a4 0 nlohmann::json_abi_v3_11_3::detail::output_vector_adapter<unsigned char, std::__ndk1::allocator<unsigned char> >::~output_vector_adapter()
PUBLIC m 3b8a8 0 geodeImplicitEntry
PUBLIC 3b8d4 0 EffectObject::touching(Player const&) const
PUBLIC 3ba8c 0 cow_set<int>::insert(int const&)
PUBLIC 3bb50 0 std::__ndk1::__shared_ptr_emplace<std::__ndk1::unordered_set<int, std::__ndk1::hash<int>, std::__ndk1::equal_to<int>, std::__ndk1::allocator<int> >, std::__ndk1::allocator<std::__ndk1::unordered_set<int, std::__ndk1::hash<int>, std::__ndk1::equal_to<int>, std::__ndk1::allocator<int> > > >::~__shared_ptr_emplace()
PUBLIC 3bb60 0 std::__ndk1::__shared_ptr_emplace<std::__ndk1::unordered_set<int, std::__ndk1::hash<int>, std::__ndk1::equal_to<int>, std::__ndk1::allocator<int> >, std::__ndk1::allocator<std::__ndk1::unordered_set<int, std::__ndk1::hash<int>, std::__ndk1::equal_to<int>, std::__ndk1::allocator<int> > > >::~__shared_ptr_emplace()
PUBLIC 3bb84 0 std::__ndk1::__shared_ptr_emplace<std::__ndk1::unordered_set<int, std::__ndk1::hash<int>, std::__ndk1::equal_to<int>, std::__ndk1::allocator<int> >, std::__ndk1::allocator<std::__ndk1::unordered_set<int, std::__ndk1::hash<int>, std::__ndk1::equal_to<int>, std::__ndk1::allocator<int> > > >::__on_zero_shared()
PUBLIC 3bbcc 0 std::__ndk1::__shared_ptr_emplace<std::__ndk1::unordered_set<int, std::__ndk1::hash<int>, std::__ndk1::equal_to<int>, std::__ndk1::allocator<int> >, std::__ndk1::allocator<std::__ndk1::unordered_set<int, std::__ndk1::hash<int>, std::__ndk1::equal_to<int>, std::__ndk1::allocator<int> > > >::__on_zero_shared_weak()
PUBLIC 3bbd0 0 std::__ndk1::unordered_set<int, std::__ndk1::hash<int>, std::__ndk1::equal_to<int>, std::__ndk1::allocator<int> >::unordered_set(std::__ndk1::unordered_set<int, std::__ndk1::hash<int>, std::__ndk1::equal_to<int>, std::__ndk1::allocator<int> > const&)
PUBLIC 3bd08 0 std::__ndk1::__hash_table<int, std::__ndk1::hash<int>, std::__ndk1::equal_to<int>, std::__ndk1::allocator<int> >::~__hash_table()
PUBLIC 3bd50 0 std::__ndk1::__hash_table<int, std::__ndk1::hash<int>, std::__ndk1::equal_to<int>, std::__ndk1::allocator<int> >::__do_rehash<true>(unsigned long)
PUBLIC 3bef8 0 std::__ndk1::__hash_table<int, std::__ndk1::hash<int>, std::__ndk1::equal_to<int>, std::__ndk1::allocator<int> >::__emplace_unique_key_args<int, int const&>(int const&, int const&)
PUBLIC 3c218 0 std::__ndk1::basic_stringstream<char, std::__ndk1::char_traits<char>, std::__ndk1::allocator<char> >::basic_stringstream[abi:ne180000](std::__ndk1::basic_string<char, std::__ndk1::char_traits<char>, std::__ndk1::allocator<char> > const&, unsigned int)
PUBLIC 3c3a0 0 std::__ndk1::getline[abi:ne180000]<char, std::__ndk1::char_traits<char>, std::__ndk1::allocator<char> >(std::__ndk1::basic_istream<char, std::__ndk1::char_traits<char> >, std::__ndk1::basic_string<std::__ndk1::basic_istream, char, std::__ndk1::allocator<char> >&, std::__ndk1::basic_istream)
PUBLIC 3c550 0 Vehicle::operator=(Vehicle&&)
PUBLIC 3c710 0 std::__ndk1::unordered_map<std::__ndk1::basic_string<char, std::__ndk1::char_traits<char>, std::__ndk1::allocator<char> >, std::__ndk1::basic_string<char, std::__ndk1::char_traits<char>, std::__ndk1::allocator<char> >, std::__ndk1::hash<std::__ndk1::basic_string<char, std::__ndk1::char_traits<char>, std::__ndk1::allocator<char> > >, std::__ndk1::equal_to<std::__ndk1::basic_string<char, std::__ndk1::char_traits<char>, std::__ndk1::allocator<char> > >, std::__ndk1::allocator<std::__ndk1::pair<std::__ndk1::basic_string<char, std::__ndk1::char_traits<char>, std::__ndk1::allocator<char> > const, std::__ndk1::basic_string<char, std::__ndk1::char_traits<char>, std::__ndk1::allocator<char> > > > >::~unordered_map[abi:ne180000]()
PUBLIC 3c78c 0 Level::Level(std::__ndk1::basic_string<char, std::__ndk1::char_traits<char>, std::__ndk1::allocator<char> > const&)
PUBLIC 3dce0 0 std::__ndk1::unordered_map<int, std::__ndk1::basic_string<char, std::__ndk1::char_traits<char>, std::__ndk1::allocator<char> >, std::__ndk1::hash<int>, std::__ndk1::equal_to<int>, std::__ndk1::allocator<std::__ndk1::pair<int const, std::__ndk1::basic_string<char, std::__ndk1::char_traits<char>, std::__ndk1::allocator<char> > > > >::~unordered_map[abi:ne180000]()
PUBLIC 3dd40 0 Player::~Player()
PUBLIC 3dea0 0 std::__ndk1::vector<std::__ndk1::vector<ObjectContainer, std::__ndk1::allocator<ObjectContainer> >, std::__ndk1::allocator<std::__ndk1::vector<ObjectContainer, std::__ndk1::allocator<ObjectContainer> > > >::~vector[abi:ne180000]()
PUBLIC 3df0c 0 Level::runFrame(bool, float)
PUBLIC 3e9a8 0 std::__ndk1::__hash_table<std::__ndk1::__hash_value_type<std::__ndk1::basic_string<char, std::__ndk1::char_traits<char>, std::__ndk1::allocator<char> >, std::__ndk1::basic_string<char, std::__ndk1::char_traits<char>, std::__ndk1::allocator<char> > >, std::__ndk1::__unordered_map_hasher<std::__ndk1::basic_string<char, std::__ndk1::char_traits<char>, std::__ndk1::allocator<char> >, std::__ndk1::__hash_value_type<std::__ndk1::basic_string<char, std::__ndk1::char_traits<char>, std::__ndk1::allocator<char> >, std::__ndk1::basic_string<char, std::__ndk1::char_traits<char>, std::__ndk1::allocator<char> > >, std::__ndk1::hash<std::__ndk1::basic_string<char, std::__ndk1::char_traits<char>, std::__ndk1::allocator<char> > >, std::__ndk1::equal_to<std::__ndk1::basic_string<char, std::__ndk1::char_traits<char>, std::__ndk1::allocator<char> > >, true>, std::__ndk1::__unordered_map_equal<std::__ndk1::basic_string<char, std::__ndk1::char_traits<char>, std::__ndk1::allocator<char> >, std::__ndk1::__hash_value_type<std::__ndk1::basic_string<char, std::__ndk1::char_traits<char>, std::__ndk1::allocator<char> >, std::__ndk1::basic_string<char, std::__ndk1::char_traits<char>, std::__ndk1::allocator<char> > >, std::__ndk1::equal_to<std::__ndk1::basic_string<char, std::__ndk1::char_traits<char>, std::__ndk1::allocator<char> > >, std::__ndk1::hash<std::__ndk1::basic_string<char, std::__ndk1::char_traits<char>, std::__ndk1::allocator<char> > >, true>, std::__ndk1::allocator<std::__ndk1::__hash_value_type<std::__ndk1::basic_string<char, std::__ndk1::char_traits<char>, std::__ndk1::allocator<char> >, std::__ndk1::basic_string<char, std::__ndk1::char_traits<char>, std::__ndk1::allocator<char> > > > >::find<std::__ndk1::basic_string<char, std::__ndk1::char_traits<char>, std::__ndk1::allocator<char> > >(std::__ndk1::basic_string<char, std::__ndk1::char_traits<char>, std::__ndk1::allocator<char> > const&)
PUBLIC 3ebf0 0 std::__ndk1::vector<ObjectContainer, std::__ndk1::allocator<ObjectContainer> >::__push_back_slow_path<ObjectContainer const&>(ObjectContainer const&)
PUBLIC 3ed08 0 std::__ndk1::vector<Player, std::__ndk1::allocator<Player> >::__push_back_slow_path<Player const&>(Player const&)
PUBLIC 3ef04 0 std::__ndk1::construct_at[abi:ne180000]<Player, std::__ndk1::construct_at[abi:ne180000] const&, std::__ndk1::construct_at[abi:ne180000]*>(Player, std::__ndk1::construct_at[abi:ne180000] const&)
PUBLIC 3f048 0 std::__ndk1::__split_buffer<Player, std::__ndk1::allocator<Player>&>::~__split_buffer()
PUBLIC 3f098 0 std::__ndk1::vector<Player, std::__ndk1::allocator<Player> >::__append(unsigned long)
PUBLIC 3f4b8 0 std::__ndk1::unique_ptr<std::__ndk1::__hash_node<std::__ndk1::__hash_value_type<std::__ndk1::basic_string<char, std::__ndk1::char_traits<char>, std::__ndk1::allocator<char> >, std::__ndk1::basic_string<char, std::__ndk1::char_traits<char>, std::__ndk1::allocator<char> > >, void*>, std::__ndk1::__hash_node_destructor<std::__ndk1::allocator<std::__ndk1::__hash_node<std::__ndk1::__hash_value_type<std::__ndk1::basic_string<char, std::__ndk1::char_traits<char>, std::__ndk1::allocator<char> >, std::__ndk1::basic_string<char, std::__ndk1::char_traits<char>, std::__ndk1::allocator<char> > >, void*> > > >::~unique_ptr[abi:ne180000]()
PUBLIC 3f504 0 std::__ndk1::__hash_table<std::__ndk1::__hash_value_type<int, std::__ndk1::basic_string<char, std::__ndk1::char_traits<char>, std::__ndk1::allocator<char> > >, std::__ndk1::__unordered_map_hasher<int, std::__ndk1::__hash_value_type<int, std::__ndk1::basic_string<char, std::__ndk1::char_traits<char>, std::__ndk1::allocator<char> > >, std::__ndk1::hash<int>, std::__ndk1::equal_to<int>, true>, std::__ndk1::__unordered_map_equal<int, std::__ndk1::__hash_value_type<int, std::__ndk1::basic_string<char, std::__ndk1::char_traits<char>, std::__ndk1::allocator<char> > >, std::__ndk1::equal_to<int>, std::__ndk1::hash<int>, true>, std::__ndk1::allocator<std::__ndk1::__hash_value_type<int, std::__ndk1::basic_string<char, std::__ndk1::char_traits<char>, std::__ndk1::allocator<char> > > > >::__emplace_unique_key_args<int, std::__ndk1::piecewise_construct_t const&, std::__ndk1::tuple<int&&>, std::__ndk1::tuple<> >(int const&, std::__ndk1::piecewise_construct_t const&, std::__ndk1::tuple<int&&>, std::__ndk1::tuple<>)
PUBLIC 3f87c 0 std::__ndk1::unique_ptr<std::__ndk1::__hash_node<std::__ndk1::__hash_value_type<int, std::__ndk1::basic_string<char, std::__ndk1::char_traits<char>, std::__ndk1::allocator<char> > >, void*>, std::__ndk1::__hash_node_destructor<std::__ndk1::allocator<std::__ndk1::__hash_node<std::__ndk1::__hash_value_type<int, std::__ndk1::basic_string<char, std::__ndk1::char_traits<char>, std::__ndk1::allocator<char> > >, void*> > > >::~unique_ptr[abi:ne180000]()
PUBLIC 3f8c0 0 std::__ndk1::__hash_table<std::__ndk1::__hash_value_type<int, std::__ndk1::basic_string<char, std::__ndk1::char_traits<char>, std::__ndk1::allocator<char> > >, std::__ndk1::__unordered_map_hasher<int, std::__ndk1::__hash_value_type<int, std::__ndk1::basic_string<char, std::__ndk1::char_traits<char>, std::__ndk1::allocator<char> > >, std::__ndk1::hash<int>, std::__ndk1::equal_to<int>, true>, std::__ndk1::__unordered_map_equal<int, std::__ndk1::__hash_value_type<int, std::__ndk1::basic_string<char, std::__ndk1::char_traits<char>, std::__ndk1::allocator<char> > >, std::__ndk1::equal_to<int>, std::__ndk1::hash<int>, true>, std::__ndk1::allocator<std::__ndk1::__hash_value_type<int, std::__ndk1::basic_string<char, std::__ndk1::char_traits<char>, std::__ndk1::allocator<char> > > > >::__do_rehash<true>(unsigned long)
PUBLIC 3fa68 0 unroll(std::__ndk1::vector<range, std::__ndk1::allocator<range> >)
PUBLIC 3fca4 0 Object::create(std::__ndk1::unordered_map<int, std::__ndk1::basic_string<char, std::__ndk1::char_traits<char>, std::__ndk1::allocator<char> >, std::__ndk1::hash<int>, std::__ndk1::equal_to<int>, std::__ndk1::allocator<std::__ndk1::pair<int const, std::__ndk1::basic_string<char, std::__ndk1::char_traits<char>, std::__ndk1::allocator<char> > > > >&&)
PUBLIC 43e78 0 std::__ndk1::vector<range, std::__ndk1::allocator<range> >::vector[abi:ne180000](std::initializer_list<range>)
PUBLIC 43f70 0 Object::Object(Vec2D, std::__ndk1::unordered_map<int, std::__ndk1::basic_string<char, std::__ndk1::char_traits<char>, std::__ndk1::allocator<char> >, std::__ndk1::hash<int>, std::__ndk1::equal_to<int>, std::__ndk1::allocator<std::__ndk1::pair<int const, std::__ndk1::basic_string<char, std::__ndk1::char_traits<char>, std::__ndk1::allocator<char> > > > >&&)
PUBLIC 440bc 0 Object::touching(Player const&) const
PUBLIC 44184 0 Object::collide(Player&) const
PUBLIC 4418c 0 std::__ndk1::vector<int, std::__ndk1::allocator<int> >::__throw_length_error[abi:ne180000]() const
PUBLIC 4419c 0 std::__ndk1::vector<range, std::__ndk1::allocator<range> >::__throw_length_error[abi:ne180000]() const
PUBLIC m 441ac 0 Block::Block(Vec2D, std::__ndk1::unordered_map<int, std::__ndk1::basic_string<char, std::__ndk1::char_traits<char>, std::__ndk1::allocator<char> >, std::__ndk1::hash<int>, std::__ndk1::equal_to<int>, std::__ndk1::allocator<std::__ndk1::pair<int const, std::__ndk1::basic_string<char, std::__ndk1::char_traits<char>, std::__ndk1::allocator<char> > > > >&&)
PUBLIC 442d4 0 trySnap(Block const&, Player&)
PUBLIC 448a4 0 Block::collide(Player&) const
PUBLIC 44cc4 0 Sawblade::touching(Player const&) const
PUBLIC 44e8c 0 Hazard::collide(Player&) const
PUBLIC 44e98 0 GravityPortal::GravityPortal(Vec2D, std::__ndk1::unordered_map<int, std::__ndk1::basic_string<char, std::__ndk1::char_traits<char>, std::__ndk1::allocator<char> >, std::__ndk1::hash<int>, std::__ndk1::equal_to<int>, std::__ndk1::allocator<std::__ndk1::pair<int const, std::__ndk1::basic_string<char, std::__ndk1::char_traits<char>, std::__ndk1::allocator<char> > > > >&&)
PUBLIC 44f34 0 GravityPortal::collide(Player&) const
PUBLIC 44f88 0 BreakableBlock::touching(Player const&) const
PUBLIC 45140 0 BreakableBlock::collide(Player&) const
PUBLIC 4525c 0 Orb::Orb(Vec2D, std::__ndk1::unordered_map<int, std::__ndk1::basic_string<char, std::__ndk1::char_traits<char>, std::__ndk1::allocator<char> >, std::__ndk1::hash<int>, std::__ndk1::equal_to<int>, std::__ndk1::allocator<std::__ndk1::pair<int const, std::__ndk1::basic_string<char, std::__ndk1::char_traits<char>, std::__ndk1::allocator<char> > > > >&&)
PUBLIC 45304 0 Orb::touching(Player const&) const
PUBLIC 453a8 0 std::__ndk1::unordered_map<std::__ndk1::tuple<OrbType, VehicleType, bool>, std::__ndk1::vector<double, std::__ndk1::allocator<double> >, hash_tuple, std::__ndk1::equal_to<std::__ndk1::tuple<OrbType, VehicleType, bool> >, std::__ndk1::allocator<std::__ndk1::pair<std::__ndk1::tuple<OrbType, VehicleType, bool> const, std::__ndk1::vector<double, std::__ndk1::allocator<double> > > > >::~unordered_map[abi:ne180000]()
PUBLIC 45408 0 Orb::collide(Player&) const
PUBLIC 455ec 0 std::__ndk1::vector<double, std::__ndk1::allocator<double> >::__throw_length_error[abi:ne180000]() const
PUBLIC 455fc 0 std::__ndk1::__hash_table<std::__ndk1::__hash_value_type<std::__ndk1::tuple<OrbType, VehicleType, bool>, std::__ndk1::vector<double, std::__ndk1::allocator<double> > >, std::__ndk1::__unordered_map_hasher<std::__ndk1::tuple<OrbType, VehicleType, bool>, std::__ndk1::__hash_value_type<std::__ndk1::tuple<OrbType, VehicleType, bool>, std::__ndk1::vector<double, std::__ndk1::allocator<double> > >, hash_tuple, std::__ndk1::equal_to<std::__ndk1::tuple<OrbType, VehicleType, bool> >, true>, std::__ndk1::__unordered_map_equal<std::__ndk1::tuple<OrbType, VehicleType, bool>, std::__ndk1::__hash_value_type<std::__ndk1::tuple<OrbType, VehicleType, bool>, std::__ndk1::vector<double, std::__ndk1::allocator<double> > >, std::__ndk1::equal_to<std::__ndk1::tuple<OrbType, VehicleType, bool> >, hash_tuple, true>, std::__ndk1::allocator<std::__ndk1::__hash_value_type<std::__ndk1::tuple<OrbType, VehicleType, bool>, std::__ndk1::vector<double, std::__ndk1::allocator<double> > > > >::~__hash_table()
PUBLIC 45660 0 std::__ndk1::__hash_table<std::__ndk1::__hash_value_type<std::__ndk1::tuple<OrbType, VehicleType, bool>, std::__ndk1::vector<double, std::__ndk1::allocator<double> > >, std::__ndk1::__unordered_map_hasher<std::__ndk1::tuple<OrbType, VehicleType, bool>, std::__ndk1::__hash_value_type<std::__ndk1::tuple<OrbType, VehicleType, bool>, std::__ndk1::vector<double, std::__ndk1::allocator<double> > >, hash_tuple, std::__ndk1::equal_to<std::__ndk1::tuple<OrbType, VehicleType, bool> >, true>, std::__ndk1::__unordered_map_equal<std::__ndk1::tuple<OrbType, VehicleType, bool>, std::__ndk1::__hash_value_type<std::__ndk1::tuple<OrbType, VehicleType, bool>, std::__ndk1::vector<double, std::__ndk1::allocator<double> > >, std::__ndk1::equal_to<std::__ndk1::tuple<OrbType, VehicleType, bool> >, hash_tuple, true>, std::__ndk1::allocator<std::__ndk1::__hash_value_type<std::__ndk1::tuple<OrbType, VehicleType, bool>, std::__ndk1::vector<double, std::__ndk1::allocator<double> > > > >::__emplace_unique_key_args<std::__ndk1::tuple<OrbType, VehicleType, bool>, std::__ndk1::pair<std::__ndk1::tuple<OrbType, VehicleType, bool> const, std::__ndk1::vector<double, std::__ndk1::allocator<double> > > const&>(std::__ndk1::tuple<OrbType, VehicleType, bool> const&, std::__ndk1::pair<std::__ndk1::tuple<OrbType, VehicleType, bool> const, std::__ndk1::vector<double, std::__ndk1::allocator<double> > > const&)
PUBLIC 45ba8 0 std::__ndk1::unique_ptr<std::__ndk1::__hash_node<std::__ndk1::__hash_value_type<std::__ndk1::tuple<OrbType, VehicleType, bool>, std::__ndk1::vector<double, std::__ndk1::allocator<double> > >, void*>, std::__ndk1::__hash_node_destructor<std::__ndk1::allocator<std::__ndk1::__hash_node<std::__ndk1::__hash_value_type<std::__ndk1::tuple<OrbType, VehicleType, bool>, std::__ndk1::vector<double, std::__ndk1::allocator<double> > >, void*> > > >::~unique_ptr[abi:ne180000]()
PUBLIC 45be4 0 std::__ndk1::__throw_out_of_range[abi:ne180000](char const*)
PUBLIC 45c30 0 std::out_of_range::out_of_range[abi:ne180000](char const*)
PUBLIC 45c54 0 _GLOBAL__sub_I_Orb.cpp
PUBLIC 46890 0 Pad::Pad(Vec2D, std::__ndk1::unordered_map<int, std::__ndk1::basic_string<char, std::__ndk1::char_traits<char>, std::__ndk1::allocator<char> >, std::__ndk1::hash<int>, std::__ndk1::equal_to<int>, std::__ndk1::allocator<std::__ndk1::pair<int const, std::__ndk1::basic_string<char, std::__ndk1::char_traits<char>, std::__ndk1::allocator<char> > > > >&&)
PUBLIC 469a8 0 std::__ndk1::unordered_map<std::__ndk1::tuple<PadType, VehicleType, bool>, std::__ndk1::vector<double, std::__ndk1::allocator<double> >, hash_tuple, std::__ndk1::equal_to<std::__ndk1::tuple<PadType, VehicleType, bool> >, std::__ndk1::allocator<std::__ndk1::pair<std::__ndk1::tuple<PadType, VehicleType, bool> const, std::__ndk1::vector<double, std::__ndk1::allocator<double> > > > >::~unordered_map[abi:ne180000]()
PUBLIC 46a08 0 Pad::collide(Player&) const
PUBLIC 46c08 0 std::__ndk1::__hash_table<std::__ndk1::__hash_value_type<std::__ndk1::tuple<PadType, VehicleType, bool>, std::__ndk1::vector<double, std::__ndk1::allocator<double> > >, std::__ndk1::__unordered_map_hasher<std::__ndk1::tuple<PadType, VehicleType, bool>, std::__ndk1::__hash_value_type<std::__ndk1::tuple<PadType, VehicleType, bool>, std::__ndk1::vector<double, std::__ndk1::allocator<double> > >, hash_tuple, std::__ndk1::equal_to<std::__ndk1::tuple<PadType, VehicleType, bool> >, true>, std::__ndk1::__unordered_map_equal<std::__ndk1::tuple<PadType, VehicleType, bool>, std::__ndk1::__hash_value_type<std::__ndk1::tuple<PadType, VehicleType, bool>, std::__ndk1::vector<double, std::__ndk1::allocator<double> > >, std::__ndk1::equal_to<std::__ndk1::tuple<PadType, VehicleType, bool> >, hash_tuple, true>, std::__ndk1::allocator<std::__ndk1::__hash_value_type<std::__ndk1::tuple<PadType, VehicleType, bool>, std::__ndk1::vector<double, std::__ndk1::allocator<double> > > > >::~__hash_table()
PUBLIC 46c6c 0 std::__ndk1::__hash_table<std::__ndk1::__hash_value_type<std::__ndk1::tuple<PadType, VehicleType, bool>, std::__ndk1::vector<double, std::__ndk1::allocator<double> > >, std::__ndk1::__unordered_map_hasher<std::__ndk1::tuple<PadType, VehicleType, bool>, std::__ndk1::__hash_value_type<std::__ndk1::tuple<PadType, VehicleType, bool>, std::__ndk1::vector<double, std::__ndk1::allocator<double> > >, hash_tuple, std::__ndk1::equal_to<std::__ndk1::tuple<PadType, VehicleType, bool> >, true>, std::__ndk1::__unordered_map_equal<std::__ndk1::tuple<PadType, VehicleType, bool>, std::__ndk1::__hash_value_type<std::__ndk1::tuple<PadType, VehicleType, bool>, std::__ndk1::vector<double, std::__ndk1::allocator<double> > >, std::__ndk1::equal_to<std::__ndk1::tuple<PadType, VehicleType, bool> >, hash_tuple, true>, std::__ndk1::allocator<std::__ndk1::__hash_value_type<std::__ndk1::tuple<PadType, VehicleType, bool>, std::__ndk1::vector<double, std::__ndk1::allocator<double> > > > >::__emplace_unique_key_args<std::__ndk1::tuple<PadType, VehicleType, bool>, std::__ndk1::pair<std::__ndk1::tuple<PadType, VehicleType, bool> const, std::__ndk1::vector<double, std::__ndk1::allocator<double> > > const&>(std::__ndk1::tuple<PadType, VehicleType, bool> const&, std::__ndk1::pair<std::__ndk1::tuple<PadType, VehicleType, bool> const, std::__ndk1::vector<double, std::__ndk1::allocator<double> > > const&)
PUBLIC 471b4 0 std::__ndk1::unique_ptr<std::__ndk1::__hash_node<std::__ndk1::__hash_value_type<std::__ndk1::tuple<PadType, VehicleType, bool>, std::__ndk1::vector<double, std::__ndk1::allocator<double> > >, void*>, std::__ndk1::__hash_node_destructor<std::__ndk1::allocator<std::__ndk1::__hash_node<std::__ndk1::__hash_value_type<std::__ndk1::tuple<PadType, VehicleType, bool>, std::__ndk1::vector<double, std::__ndk1::allocator<double> > >, void*> > > >::~unique_ptr[abi:ne180000]()
PUBLIC 471f0 0 _GLOBAL__sub_I_Pad.cpp
PUBLIC 47eec 0 SizePortal::SizePortal(Vec2D, std::__ndk1::unordered_map<int, std::__ndk1::basic_string<char, std::__ndk1::char_traits<char>, std::__ndk1::allocator<char> >, std::__ndk1::hash<int>, std::__ndk1::equal_to<int>, std::__ndk1::allocator<std::__ndk1::pair<int const, std::__ndk1::basic_string<char, std::__ndk1::char_traits<char>, std::__ndk1::allocator<char> > > > >&&)
PUBLIC 47f88 0 SizePortal::collide(Player&) const
PUBLIC 47fb8 0 Slope::Slope(Vec2D, std::__ndk1::unordered_map<int, std::__ndk1::basic_string<char, std::__ndk1::char_traits<char>, std::__ndk1::allocator<char> >, std::__ndk1::hash<int>, std::__ndk1::equal_to<int>, std::__ndk1::allocator<std::__ndk1::pair<int const, std::__ndk1::basic_string<char, std::__ndk1::char_traits<char>, std::__ndk1::allocator<char> > > > >&&)
PUBLIC 48204 0 Slope::expectedY(Player const&) const
PUBLIC 48318 0 Slope::calc(Player&) const
PUBLIC 48980 0 Slope::collide(Player&) const
PUBLIC 48e5c 0 Slope::touching(Player const&) const
PUBLIC 4902c 0 std::__ndk1::vector<std::__ndk1::function<void (Player&)>, std::__ndk1::allocator<std::__ndk1::function<void (Player&)> > >::__push_back_slow_path<std::__ndk1::function<void (Player&)> >(std::__ndk1::function<void (Player&)>&&)
PUBLIC 4924c 0 Slope::calc(Player&) const::$_0::__invoke(Player&)
PUBLIC 49264 0 Slope::calc(Player&) const::$_2::__invoke(Player&)
PUBLIC 4927c 0 std::__ndk1::__function::__func<void (*)(Player&), std::__ndk1::allocator<void (*)(Player&)>, void (Player&)>::~__func()
PUBLIC 49280 0 std::__ndk1::__function::__func<void (*)(Player&), std::__ndk1::allocator<void (*)(Player&)>, void (Player&)>::__clone() const
PUBLIC 492a8 0 std::__ndk1::__function::__func<void (*)(Player&), std::__ndk1::allocator<void (*)(Player&)>, void (Player&)>::__clone(std::__ndk1::__function::__base<void (Player&)>*) const
PUBLIC 492bc 0 std::__ndk1::__function::__func<void (*)(Player&), std::__ndk1::allocator<void (*)(Player&)>, void (Player&)>::destroy()
PUBLIC 492c0 0 std::__ndk1::__function::__func<void (*)(Player&), std::__ndk1::allocator<void (*)(Player&)>, void (Player&)>::destroy_deallocate()
PUBLIC 492c4 0 std::__ndk1::__function::__func<void (*)(Player&), std::__ndk1::allocator<void (*)(Player&)>, void (Player&)>::operator()(Player&)
PUBLIC 492d0 0 std::__ndk1::__function::__func<Slope::calc(Player&) const::$_1, std::__ndk1::allocator<Slope::calc(Player&) const::$_1>, void (Player&)>::~__func()
PUBLIC 492d4 0 std::__ndk1::__function::__func<Slope::calc(Player&) const::$_1, std::__ndk1::allocator<Slope::calc(Player&) const::$_1>, void (Player&)>::__clone() const
PUBLIC 492fc 0 std::__ndk1::__function::__func<Slope::calc(Player&) const::$_1, std::__ndk1::allocator<Slope::calc(Player&) const::$_1>, void (Player&)>::__clone(std::__ndk1::__function::__base<void (Player&)>*) const
PUBLIC 49310 0 std::__ndk1::__function::__func<Slope::calc(Player&) const::$_1, std::__ndk1::allocator<Slope::calc(Player&) const::$_1>, void (Player&)>::destroy()
PUBLIC 49314 0 std::__ndk1::__function::__func<Slope::calc(Player&) const::$_1, std::__ndk1::allocator<Slope::calc(Player&) const::$_1>, void (Player&)>::destroy_deallocate()
PUBLIC 49318 0 std::__ndk1::__function::__func<Slope::calc(Player&) const::$_1, std::__ndk1::allocator<Slope::calc(Player&) const::$_1>, void (Player&)>::operator()(Player&)
PUBLIC 49338 0 std::__ndk1::__function::__base<void (Player&)>::~__base()
PUBLIC 4933c 0 std::__ndk1::__function::__func<Slope::calc(Player&) const::$_3, std::__ndk1::allocator<Slope::calc(Player&) const::$_3>, void (Player&)>::~__func()
PUBLIC 49340 0 std::__ndk1::__function::__func<Slope::calc(Player&) const::$_3, std::__ndk1::allocator<Slope::calc(Player&) const::$_3>, void (Player&)>::__clone() const
PUBLIC 49368 0 std::__ndk1::__function::__func<Slope::calc(Player&) const::$_3, std::__ndk1::allocator<Slope::calc(Player&) const::$_3>, void (Player&)>::__clone(std::__ndk1::__function::__base<void (Player&)>*) const
PUBLIC 4937c 0 std::__ndk1::__function::__func<Slope::calc(Player&) const::$_3, std::__ndk1::allocator<Slope::calc(Player&) const::$_3>, void (Player&)>::destroy()
PUBLIC 49380 0 std::__ndk1::__function::__func<Slope::calc(Player&) const::$_3, std::__ndk1::allocator<Slope::calc(Player&) const::$_3>, void (Player&)>::destroy_deallocate()
PUBLIC 49384 0 std::__ndk1::__function::__func<Slope::calc(Player&) const::$_3, std::__ndk1::allocator<Slope::calc(Player&) const::$_3>, void (Player&)>::operator()(Player&)
PUBLIC 493a4 0 SpeedPortal::SpeedPortal(Vec2D, std::__ndk1::unordered_map<int, std::__ndk1::basic_string<char, std::__ndk1::char_traits<char>, std::__ndk1::allocator<char> >, std::__ndk1::hash<int>, std::__ndk1::equal_to<int>, std::__ndk1::allocator<std::__ndk1::pair<int const, std::__ndk1::basic_string<char, std::__ndk1::char_traits<char>, std::__ndk1::allocator<char> > > > >&&)
PUBLIC 49494 0 SpeedPortal::collide(Player&) const
PUBLIC 494c4 0 VehiclePortal::VehiclePortal(Vec2D, std::__ndk1::unordered_map<int, std::__ndk1::basic_string<char, std::__ndk1::char_traits<char>, std::__ndk1::allocator<char> >, std::__ndk1::hash<int>, std::__ndk1::equal_to<int>, std::__ndk1::allocator<std::__ndk1::pair<int const, std::__ndk1::basic_string<char, std::__ndk1::char_traits<char>, std::__ndk1::allocator<char> > > > >&&)
PUBLIC 495a8 0 VehiclePortal::collide(Player&) const
PUBLIC 49784 0 Player::preCollision(bool)
PUBLIC 498bc 0 Player::postCollision()
PUBLIC 4a0a0 0 cube()
PUBLIC 4a1ec 0 ship()
PUBLIC 4a33c 0 ball()
PUBLIC 4a48c 0 ufo()
PUBLIC 4a5dc 0 wave()
PUBLIC 4a728 0 cube()::$_0::__invoke(Player&, Object const*, bool)
PUBLIC 4a81c 0 cube()::$_1::__invoke(Player&)
PUBLIC 4a87c 0 cube()::$_2::__invoke(Player&)
PUBLIC 4aad0 0 ship()::$_0::__invoke(Player&, Object const*, bool)
PUBLIC 4abb4 0 ship()::$_1::__invoke(Player&)
PUBLIC 4ac64 0 ship()::$_2::__invoke(Player&)
PUBLIC 4ad38 0 ball()::$_0::__invoke(Player&)
PUBLIC 4adac 0 ball()::$_1::__invoke(Player&, Object const*, bool)
PUBLIC 4ae9c 0 ball()::$_2::__invoke(Player&)
PUBLIC 4b09c 0 ufo()::$_0::__invoke(Player&, Object const*, bool)
PUBLIC 4b1b0 0 ufo()::$_1::__invoke(Player&)
PUBLIC 4b264 0 ufo()::$_2::__invoke(Player&)
PUBLIC 4b320 0 wave()::$_0::__invoke(Player&, Object const*, bool)
PUBLIC 4b49c 0 wave()::$_0::operator()(Player&, Object const*, bool) const::{lambda(Player&)#1}::__invoke(Player&)
PUBLIC 4b4a8 0 wave()::$_1::__invoke(Player&)
PUBLIC 4b540 0 wave()::$_2::__invoke(Player&)
PUBLIC 4b548 0 std::__ndk1::__function::__base<void (Player&, Object const*, bool)>::~__base()
PUBLIC 4b54c 0 std::__ndk1::__function::__func<void (*)(Player&, Object const*, bool), std::__ndk1::allocator<void (*)(Player&, Object const*, bool)>, void (Player&, Object const*, bool)>::~__func()
PUBLIC 4b550 0 std::__ndk1::__function::__func<void (*)(Player&, Object const*, bool), std::__ndk1::allocator<void (*)(Player&, Object const*, bool)>, void (Player&, Object const*, bool)>::__clone() const
PUBLIC 4b578 0 std::__ndk1::__function::__func<void (*)(Player&, Object const*, bool), std::__ndk1::allocator<void (*)(Player&, Object const*, bool)>, void (Player&, Object const*, bool)>::__clone(std::__ndk1::__function::__base<void (Player&, Object const*, bool)>*) const
PUBLIC 4b58c 0 std::__ndk1::__function::__func<void (*)(Player&, Object const*, bool), std::__ndk1::allocator<void (*)(Player&, Object const*, bool)>, void (Player&, Object const*, bool)>::destroy()
PUBLIC 4b590 0 std::__ndk1::__function::__func<void (*)(Player&, Object const*, bool), std::__ndk1::allocator<void (*)(Player&, Object const*, bool)>, void (Player&, Object const*, bool)>::destroy_deallocate()
PUBLIC 4b594 0 std::__ndk1::__function::__func<void (*)(Player&, Object const*, bool), std::__ndk1::allocator<void (*)(Player&, Object const*, bool)>, void (Player&, Object const*, bool)>::operator()(Player&, Object const*&&, bool&&)
PUBLIC 4b5ac 0 intersectOneWay(Entity const&, Entity const&)
PUBLIC 4b974 0 std::__ndk1::unordered_map<void*, bool, std::__ndk1::hash<void*>, std::__ndk1::equal_to<void*>, std::__ndk1::allocator<std::__ndk1::pair<void* const, bool> > >::~unordered_map[abi:ne180000]()
PUBLIC 4b9c0 0 wrapFunction(unsigned long, tulip::hook::WrapperMetadata const&)
PUBLIC 4baf4 0 geode::impl::ResultData<void*, std::__ndk1::basic_string<char, std::__ndk1::char_traits<char>, std::__ndk1::allocator<char> > >::unwrapErr() &
PUBLIC 4bb6c 0 geode::impl::ResultData<void*, std::__ndk1::basic_string<char, std::__ndk1::char_traits<char>, std::__ndk1::allocator<char> > >::~ResultData()
PUBLIC 4bbe0 0 tulip::hook::WrapperMetadata::~WrapperMetadata()
PUBLIC 4bc44 0 cocos2d::CCObject::~CCObject()
PUBLIC 4bc68 0 cocos2d::CCNode::CCNode()
PUBLIC 4bec4 0 cocos2d::CCNode::~CCNode()
PUBLIC 4bee8 0 {virtual override thunk({offset(-320)}, cocos2d::CCLayer::~CCLayer())}
PUBLIC 4bef0 0 cocos2d::CCLayer::~CCLayer()
PUBLIC 4bf14 0 {virtual override thunk({offset(-320)}, cocos2d::CCLayer::~CCLayer())}
PUBLIC 4bf3c 0 cocos2d::CCLayerRGBA::~CCLayerRGBA()
PUBLIC 4c23c 0 {virtual override thunk({offset(-320)}, cocos2d::CCLayerRGBA::~CCLayerRGBA())}
PUBLIC 4c244 0 cocos2d::CCLayerRGBA::~CCLayerRGBA()
PUBLIC 4c268 0 {virtual override thunk({offset(-320)}, cocos2d::CCLayerRGBA::~CCLayerRGBA())}
PUBLIC 4c290 0 cocos2d::CCLayerColor::CCLayerColor()
PUBLIC 4c4f4 0 {virtual override thunk({offset(-320)}, cocos2d::CCLayerColor::~CCLayerColor())}
PUBLIC 4c4fc 0 cocos2d::CCLayerColor::~CCLayerColor()
PUBLIC 4c520 0 {virtual override thunk({offset(-320)}, cocos2d::CCLayerColor::~CCLayerColor())}
PUBLIC 4c548 0 tulip::hook::AbstractFunction::from<gd::string, gd::string const&, bool, int>(gd::string (*)(gd::string const&, bool, int))
PUBLIC 4c644 0 cocos2d::ZipUtils::decompressString(gd::string const&, bool, int)
PUBLIC 4c7ac 0 cocos2d::CCObject::update(float)
PUBLIC 4c7b0 0 cocos2d::CCLayerColor::~CCLayerColor()
PUBLIC 4ca94 0 cocos2d::CCNode::~CCNode()
PUBLIC 4cd34 0 cocos2d::CCLayer::~CCLayer()
PUBLIC 4d024 0 cocos2d::CCObject::~CCObject()
PUBLIC 4d518 0 _ZN5geode15UnwrapExceptionC2IRPvQsr4implE18IsStringStreamableIT_EEENS_4impl5OkTagEOS4_
PUBLIC 4d66c 0 _ZN5geode15UnwrapExceptionC2IRNSt6__ndk112basic_stringIcNS2_11char_traitsIcEENS2_9allocatorIcEEEEQsr4implE18IsStringStreamableIT_EEENS_4impl6ErrTagEOSA_
PUBLIC 4d7d4 0 std::__ndk1::__variant_detail::__visitation::__base::__dispatcher<(unsigned long)0>::__dispatch[abi:ne180000]<std::__ndk1::__variant_detail::__dtor<std::__ndk1::__variant_detail::__traits<void*, std::__ndk1::basic_string<char, std::__ndk1::char_traits<char>, std::__ndk1::allocator<char> > >, (std::__ndk1::__variant_detail::_Trait)1>::__destroy[abi:ne180000]()::{lambda(auto:1&)#1}, std::__ndk1::__variant_detail::__base<(std::__ndk1::__variant_detail::__traits<void*, std::__ndk1::basic_string<char, std::__ndk1::char_traits<char>, std::__ndk1::allocator<char> > >)1, std::__ndk1::__variant_detail::__traits, std::__ndk1::allocator<char> >&>(std::__ndk1::__variant_detail::__dtor<std::__ndk1::__variant_detail::__traits<void*, std::__ndk1::basic_string<char, std::__ndk1::char_traits<char>, std::__ndk1::allocator<char> > >, (std::__ndk1::__variant_detail::_Trait)1>, std::__ndk1::__variant_detail::__base<(std::__ndk1::__variant_detail::__traits<void*, std::__ndk1::basic_string<char, std::__ndk1::char_traits<char>, std::__ndk1::allocator<char> > >)1, std::__ndk1::__variant_detail::__traits, std::__ndk1::allocator<char> >&)
PUBLIC 4d7d8 0 std::__ndk1::__variant_detail::__visitation::__base::__dispatcher<(unsigned long)1>::__dispatch[abi:ne180000]<std::__ndk1::__variant_detail::__dtor<std::__ndk1::__variant_detail::__traits<void*, std::__ndk1::basic_string<char, std::__ndk1::char_traits<char>, std::__ndk1::allocator<char> > >, (std::__ndk1::__variant_detail::_Trait)1>::__destroy[abi:ne180000]()::{lambda(auto:1&)#1}, std::__ndk1::__variant_detail::__base<(std::__ndk1::__variant_detail::__traits<void*, std::__ndk1::basic_string<char, std::__ndk1::char_traits<char>, std::__ndk1::allocator<char> > >)1, std::__ndk1::__variant_detail::__traits, std::__ndk1::allocator<char> >&>(std::__ndk1::__variant_detail::__dtor<std::__ndk1::__variant_detail::__traits<void*, std::__ndk1::basic_string<char, std::__ndk1::char_traits<char>, std::__ndk1::allocator<char> > >, (std::__ndk1::__variant_detail::_Trait)1>, std::__ndk1::__variant_detail::__base<(std::__ndk1::__variant_detail::__traits<void*, std::__ndk1::basic_string<char, std::__ndk1::char_traits<char>, std::__ndk1::allocator<char> > >)1, std::__ndk1::__variant_detail::__traits, std::__ndk1::allocator<char> >&)
PUBLIC 4d7ec 0 std::__ndk1::__hash_table<std::__ndk1::__hash_value_type<void*, bool>, std::__ndk1::__unordered_map_hasher<void*, std::__ndk1::__hash_value_type<void*, bool>, std::__ndk1::hash<void*>, std::__ndk1::equal_to<void*>, true>, std::__ndk1::__unordered_map_equal<void*, std::__ndk1::__hash_value_type<void*, bool>, std::__ndk1::equal_to<void*>, std::__ndk1::hash<void*>, true>, std::__ndk1::allocator<std::__ndk1::__hash_value_type<void*, bool> > >::__emplace_unique_key_args<void*, std::__ndk1::piecewise_construct_t const&, std::__ndk1::tuple<void* const&>, std::__ndk1::tuple<> >(void* const&, std::__ndk1::piecewise_construct_t const&, std::__ndk1::tuple<void* const&>, std::__ndk1::tuple<>)
PUBLIC 4dcf8 0 __udivti3
PUBLIC 4dd04 0 __udivmodti4
PUBLIC m 4df50 0 __eqtf2
PUBLIC 4dff0 0 __unordtf2
PUBLIC 4e028 0 fmt::v11::detail::write_loc(fmt::v11::basic_appender<char>, fmt::v11::loc_value, fmt::v11::format_specs const&, fmt::v11::detail::locale_ref)
PUBLIC 4e1b4 0 fmt::v11::format_facet<std::__ndk1::locale>::format_facet(std::__ndk1::locale&)
PUBLIC 4e340 0 fmt::v11::format_facet<std::__ndk1::locale>::~format_facet()
PUBLIC 4e3bc 0 fmt::v11::report_error(char const*)
PUBLIC 4e40c 0 fmt::v11::format_facet<std::__ndk1::locale>::do_put(fmt::v11::basic_appender<char>, fmt::v11::loc_value, fmt::v11::format_specs const&) const
PUBLIC 4ebcc 0 fmt::v11::detail::loc_writer<char>::~loc_writer()
PUBLIC 4ec30 0 fmt::v11::detail::vformat_to<char>(fmt::v11::detail::buffer<char>&, fmt::v11::basic_string_view<char>, fmt::v11::detail::vformat_args<char>::type, fmt::v11::detail::locale_ref)
PUBLIC 4f1a0 0 fmt::v11::detail::is_printable(unsigned int)
PUBLIC 4f3c8 0 fmt::v11::detail::dragonbox::to_decimal<float>(float)
PUBLIC 4f6a4 0 fmt::v11::detail::dragonbox::to_decimal<double>(double)
PUBLIC 4fbe0 0 fmt::v11::detail::thousands_sep_impl<char>(fmt::v11::detail::locale_ref)
PUBLIC 4fcf8 0 fmt::v11::format_facet<std::__ndk1::locale>::~format_facet()
PUBLIC 4fd84 0 fmt::v11::detail::default_arg_formatter<char>::operator()<bool>(bool)
PUBLIC 4fdec 0 fmt::v11::detail::default_arg_formatter<char>::operator()<char>(char)
PUBLIC 4fe7c 0 fmt::v11::detail::default_arg_formatter<char>::operator()<float>(float)
PUBLIC 4ff68 0 fmt::v11::detail::default_arg_formatter<char>::operator()<double>(double)
PUBLIC 50054 0 fmt::v11::detail::default_arg_formatter<char>::operator()<char const*>(char const*)
PUBLIC 5009c 0 fmt::v11::detail::default_arg_formatter<char>::operator()<void const*>(void const*)
PUBLIC 50134 0 _ZN3fmt3v116detail5writeIcNS0_14basic_appenderIcEEiTnNSt6__ndk19enable_ifIXaaaasr11is_integralIT1_EE5valuentsr3std7is_sameIS7_bEE5valuentsr3std7is_sameIS7_T_EE5valueEiE4typeELi0EEET0_SB_S7_
PUBLIC 50390 0 _ZN3fmt3v116detail5writeIcNS0_14basic_appenderIcEExTnNSt6__ndk19enable_ifIXaaaasr11is_integralIT1_EE5valuentsr3std7is_sameIS7_bEE5valuentsr3std7is_sameIS7_T_EE5valueEiE4typeELi0EEET0_SB_S7_
PUBLIC 50610 0 _ZN3fmt3v116detail5writeIcNS0_14basic_appenderIcEEyTnNSt6__ndk19enable_ifIXaaaasr11is_integralIT1_EE5valuentsr3std7is_sameIS7_bEE5valuentsr3std7is_sameIS7_T_EE5valueEiE4typeELi0EEET0_SB_S7_
PUBLIC 50814 0 _ZN3fmt3v116detail5writeIcNS0_14basic_appenderIcEEnTnNSt6__ndk19enable_ifIXaaaasr11is_integralIT1_EE5valuentsr3std7is_sameIS7_bEE5valuentsr3std7is_sameIS7_T_EE5valueEiE4typeELi0EEET0_SB_S7_
PUBLIC 50b70 0 _ZN3fmt3v116detail5writeIcNS0_14basic_appenderIcEEoTnNSt6__ndk19enable_ifIXaaaasr11is_integralIT1_EE5valuentsr3std7is_sameIS7_bEE5valuentsr3std7is_sameIS7_T_EE5valueEiE4typeELi0EEET0_SB_S7_
PUBLIC 50e80 0 _ZN3fmt3v116detail5writeIcNS0_14basic_appenderIcEEbTnNSt6__ndk19enable_ifIXsr3std7is_sameIT1_bEE5valueEiE4typeELi0EEET0_SA_S7_RKNS0_12format_specsENS1_10locale_refE
PUBLIC 51134 0 fmt::v11::detail::write_int_noinline<char, fmt::v11::basic_appender<char>, unsigned int>(fmt::v11::basic_appender<char>, fmt::v11::detail::write_int_arg<unsigned int>, fmt::v11::format_specs const&, fmt::v11::detail::locale_ref)
PUBLIC 51f3c 0 fmt::v11::detail::write_padded<char, (fmt::v11::align::type)1, fmt::v11::basic_appender<char>, fmt::v11::detail::write_char<char, fmt::v11::basic_appender<char> >(fmt::v11::basic_appender<char>, char, fmt::v11::format_specs const&)::{lambda(fmt::v11::basic_appender<char>&)#1}>(fmt::v11::basic_appender<char>, fmt::v11::format_specs const&, unsigned long, unsigned long, fmt::v11::detail::write_char<char, fmt::v11::basic_appender<char> >(fmt::v11::basic_appender<char>, char, fmt::v11::format_specs const&)::{lambda(fmt::v11::basic_appender<char>&)#1})
PUBLIC 5219c 0 fmt::v11::detail::write_escaped_cp<fmt::v11::basic_appender<char>, char>(fmt::v11::basic_appender<char>, fmt::v11::detail::find_escape_result<char> const&)
PUBLIC 524a8 0 fmt::v11::detail::write_codepoint<(unsigned long)2, char, fmt::v11::basic_appender<char> >(fmt::v11::basic_appender<char>, char, unsigned int)
PUBLIC 52620 0 fmt::v11::detail::write_codepoint<(unsigned long)8, char, fmt::v11::basic_appender<char> >(fmt::v11::basic_appender<char>, char, unsigned int)
PUBLIC 52798 0 fmt::v11::detail::do_write_float<char, fmt::v11::basic_appender<char>, fmt::v11::detail::dragonbox::decimal_fp<float>, fmt::v11::detail::digit_grouping<char> >(fmt::v11::basic_appender<char>, fmt::v11::detail::dragonbox::decimal_fp<float> const&, fmt::v11::format_specs const&, fmt::v11::detail::float_specs, fmt::v11::detail::locale_ref)
PUBLIC 5343c 0 fmt::v11::detail::do_write_float<char, fmt::v11::basic_appender<char>, fmt::v11::detail::dragonbox::decimal_fp<float>, fmt::v11::detail::digit_grouping<char> >(fmt::v11::basic_appender<char>, fmt::v11::detail::dragonbox::decimal_fp<float> const&, fmt::v11::format_specs const&, fmt::v11::detail::float_specs, fmt::v11::detail::locale_ref)::{lambda(fmt::v11::basic_appender<char>(fmt::v11::basic_appender<char>))#1}::operator() const
PUBLIC 53590 0 _ZN3fmt3v116detail17write_significandIcjTnNSt6__ndk19enable_ifIXsr3std11is_integralIT0_EE5valueEiE4typeELi0EEEPT_S9_S5_iiS8_
PUBLIC 5370c 0 fmt::v11::detail::do_write_float<char, fmt::v11::basic_appender<char>, fmt::v11::detail::dragonbox::decimal_fp<double>, fmt::v11::detail::digit_grouping<char> >(fmt::v11::basic_appender<char>, fmt::v11::detail::dragonbox::decimal_fp<double> const&, fmt::v11::format_specs const&, fmt::v11::detail::float_specs, fmt::v11::detail::locale_ref)
PUBLIC 543dc 0 fmt::v11::detail::do_write_float<char, fmt::v11::basic_appender<char>, fmt::v11::detail::dragonbox::decimal_fp<double>, fmt::v11::detail::digit_grouping<char> >(fmt::v11::basic_appender<char>, fmt::v11::detail::dragonbox::decimal_fp<double> const&, fmt::v11::format_specs const&, fmt::v11::detail::float_specs, fmt::v11::detail::locale_ref)::{lambda(fmt::v11::basic_appender<char>(fmt::v11::basic_appender<char>))#1}::operator() const
PUBLIC 54534 0 _ZN3fmt3v116detail17write_significandIcmTnNSt6__ndk19enable_ifIXsr3std11is_integralIT0_EE5valueEiE4typeELi0EEEPT_S9_S5_iiS8_
PUBLIC 546c4 0 fmt::v11::detail::write_float<char, fmt::v11::basic_appender<char>, long double>(fmt::v11::basic_appender<char>, long double, fmt::v11::format_specs, fmt::v11::detail::locale_ref)
PUBLIC 5519c 0 fmt::v11::detail::write_padded<char, (fmt::v11::align::type)2, fmt::v11::basic_appender<char>, fmt::v11::detail::write_ptr<char, fmt::v11::basic_appender<char>, unsigned long>(fmt::v11::basic_appender<char>, unsigned long, fmt::v11::format_specs const*)::{lambda(fmt::v11::basic_appender<char>&)#1}>(fmt::v11::basic_appender<char>, fmt::v11::format_specs const&, unsigned long, unsigned long, fmt::v11::detail::write_ptr<char, fmt::v11::basic_appender<char>, unsigned long>(fmt::v11::basic_appender<char>, unsigned long, fmt::v11::format_specs const*)::{lambda(fmt::v11::basic_appender<char>&)#1})
PUBLIC 553b4 0 fmt::v11::detail::parse_replacement_field<char, fmt::v11::detail::vformat_to<char>(fmt::v11::detail::buffer<char>&, fmt::v11::basic_string_view<char>, fmt::v11::detail::vformat_args<char>::type, fmt::v11::detail::locale_ref)::format_handler&>(char const*, char const*, fmt::v11::detail::vformat_to<char>(fmt::v11::detail::buffer<char>&, fmt::v11::basic_string_view<char>, fmt::v11::detail::vformat_args<char>::type, fmt::v11::detail::locale_ref)::format_handler&)
PUBLIC 56574 0 fmt::v11::detail::write_int_noinline<char, fmt::v11::basic_appender<char>, unsigned long>(fmt::v11::basic_appender<char>, fmt::v11::detail::write_int_arg<unsigned long>, fmt::v11::format_specs const&, fmt::v11::detail::locale_ref)
PUBLIC 573e8 0 fmt::v11::detail::write_int_noinline<char, fmt::v11::basic_appender<char>, unsigned __int128>(fmt::v11::basic_appender<char>, fmt::v11::detail::write_int_arg<unsigned __int128>, fmt::v11::format_specs const&, fmt::v11::detail::locale_ref)
PUBLIC 58430 0 fmt::v11::detail::write<char, fmt::v11::basic_appender<char> >(fmt::v11::basic_appender<char>, fmt::v11::basic_string_view<char>, fmt::v11::format_specs const&)
PUBLIC 5979c 0 fmt::v11::detail::for_each_codepoint<fmt::v11::detail::compute_width(fmt::v11::basic_string_view<char>)::count_code_points>(fmt::v11::basic_string_view<char>, fmt::v11::detail::compute_width(fmt::v11::basic_string_view<char>)::count_code_points)::{lambda(char const*, char const*)#1}::operator()(char const*, char const*) const
PUBLIC 59954 0 fmt::v11::detail::write_int<fmt::v11::basic_appender<char>, unsigned long, char>(fmt::v11::basic_appender<char>, unsigned long, unsigned int, fmt::v11::format_specs const&, fmt::v11::detail::digit_grouping<char> const&)
PUBLIC 59ecc 0 fmt::v11::detail::write_int<fmt::v11::basic_appender<char>, unsigned __int128, char>(fmt::v11::basic_appender<char>, unsigned __int128, unsigned int, fmt::v11::format_specs const&, fmt::v11::detail::digit_grouping<char> const&)
PUBLIC 5a550 0 <.plt ELF section in camila314.pathfinder.android64.so>
STACK CFI INIT 200a0 10 .cfa: sp 0 +
STACK CFI INIT 200b0 8 .cfa: sp 0 +
STACK CFI INIT 200b8 8 .cfa: sp 0 +
STACK CFI INIT 200c0 14 .cfa: sp 0 +
STACK CFI INIT 200d4 1c .cfa: sp 0 +
STACK CFI INIT 200f0 10 .cfa: sp 0 +
STACK CFI INIT 20100 134 .cfa: sp 0 +
STACK CFI INIT 20234 84 .cfa: sp 0 +
STACK CFI INIT 202b8 f4 .cfa: sp 0 +
STACK CFI INIT 203ac a8 .cfa: sp 0 +
STACK CFI INIT 20454 7c .cfa: sp 0 +
STACK CFI INIT 204d0 14 .cfa: sp 0 +
STACK CFI INIT 204e4 40 .cfa: sp 0 +
STACK CFI INIT 20524 28 .cfa: sp 0 +
STACK CFI INIT 2054c 190 .cfa: sp 0 +
STACK CFI INIT 206dc 2c8 .cfa: sp 0 +
STACK CFI INIT 209a4 8 .cfa: sp 0 +
STACK CFI INIT 209ac 8 .cfa: sp 0 +
STACK CFI INIT 209b4 44 .cfa: sp 0 +
STACK CFI INIT 209f8 e8 .cfa: sp 0 +
STACK CFI INIT 20ae0 e8 .cfa: sp 0 +
STACK CFI INIT 20bc8 14 .cfa: sp 0 +
STACK CFI INIT 20bdc 10 .cfa: sp 0 +
STACK CFI INIT 20bec 10 .cfa: sp 0 +
STACK CFI INIT 20bfc f0 .cfa: sp 0 +
STACK CFI INIT 20cec 44 .cfa: sp 0 +
STACK CFI INIT 20d30 c .cfa: sp 0 +
STACK CFI INIT 20d3c c .cfa: sp 0 +
STACK CFI INIT 20d48 2c .cfa: sp 0 +
STACK CFI INIT 20d74 280 .cfa: sp 0 +
STACK CFI INIT 20ff4 c .cfa: sp 0 +
STACK CFI INIT 21000 120 .cfa: sp 0 +
STACK CFI INIT 21120 488 .cfa: sp 0 +
STACK CFI INIT 215a8 c48 .cfa: sp 0 +
STACK CFI INIT 221f0 134 .cfa: sp 0 +
STACK CFI INIT 22324 210 .cfa: sp 0 +
STACK CFI INIT 22534 38c .cfa: sp 0 +
STACK CFI INIT 228c0 1c8 .cfa: sp 0 +
STACK CFI INIT 22a88 9bc .cfa: sp 0 +
STACK CFI INIT 23444 2d4 .cfa: sp 0 +
STACK CFI INIT 23718 134 .cfa: sp 0 +
STACK CFI INIT 2384c 120 .cfa: sp 0 +
STACK CFI INIT 2396c 1c8 .cfa: sp 0 +
STACK CFI INIT 23b34 168 .cfa: sp 0 +
STACK CFI INIT 23c9c fc .cfa: sp 0 +
STACK CFI INIT 23d98 30 .cfa: sp 0 +
STACK CFI INIT 23f00 30 .cfa: sp 0 +
STACK CFI INIT 23f30 98 .cfa: sp 0 +
STACK CFI INIT 23fc8 59c .cfa: sp 0 +
STACK CFI INIT 24564 8c .cfa: sp 0 +
STACK CFI INIT 245f0 30 .cfa: sp 0 +
STACK CFI INIT 24620 58 .cfa: sp 0 +
STACK CFI 24624 .cfa: sp 16 + .ra: .cfa -16 + ^
STACK CFI 2466c .cfa: sp 0 +
STACK CFI 24670 .cfa: sp 16 +
STACK CFI 24674 .cfa: sp 0 +
STACK CFI INIT 24678 18 .cfa: sp 0 +
STACK CFI INIT 24f08 18 .cfa: sp 0 +
STACK CFI INIT 24f20 18 .cfa: sp 0 +
STACK CFI INIT 24f38 c .cfa: sp 0 +
STACK CFI 24f3c .cfa: sp 16 + .ra: .cfa -16 + ^
STACK CFI INIT 25290 40 .cfa: sp 0 +
STACK CFI 25294 .cfa: sp 16 + x19: .cfa -8 + ^ .ra: .cfa -16 + ^
STACK CFI 252b0 .cfa: sp 0 +
STACK CFI 252b4 .cfa: sp 16 +
STACK CFI 252cc .cfa: sp 0 +
STACK CFI INIT 25340 6c .cfa: sp 0 +
STACK CFI 25344 .cfa: sp 32 +
STACK CFI 25348 x19: .cfa -8 + ^ x20: .cfa -16 + ^ x21: .cfa -24 + ^ .ra: .cfa -32 + ^
STACK CFI 2539c .cfa: sp 0 +
STACK CFI 253a0 .cfa: sp 32 +
STACK CFI 253a8 .cfa: sp 0 +
STACK CFI INIT 253ac 4 .cfa: sp 0 +
STACK CFI INIT 25500 30 .cfa: sp 0 +
STACK CFI 25504 .cfa: sp 16 + .ra: .cfa -16 + ^
STACK CFI INIT 25658 74 .cfa: sp 0 +
STACK CFI 2565c .cfa: sp 32 +
STACK CFI 25660 x19: .cfa -8 + ^ x20: .cfa -16 + ^ x21: .cfa -24 + ^ .ra: .cfa -32 + ^
STACK CFI 256c8 .cfa: sp 0 +
STACK CFI INIT 256cc 18 .cfa: sp 0 +
STACK CFI 256d0 .cfa: sp 16 + x19: .cfa -8 + ^ .ra: .cfa -16 + ^
STACK CFI 256e0 .cfa: sp 0 +
STACK CFI INIT 25a54 10 .cfa: sp 0 +
STACK CFI 25a58 .cfa: sp 16 + .ra: .cfa -16 + ^
STACK CFI INIT 25ab0 24 .cfa: sp 0 +
STACK CFI 25ab4 .cfa: sp 16 + x19: .cfa -8 + ^ .ra: .cfa -16 + ^
STACK CFI 25ad0 .cfa: sp 0 +
STACK CFI INIT 25ad4 2c .cfa: sp 0 +
STACK CFI 25ad8 .cfa: sp 16 + x19: .cfa -8 + ^ .ra: .cfa -16 + ^
STACK CFI INIT 25c6c 13c .cfa: sp 0 +
STACK CFI 25c70 .cfa: sp 32 +
STACK CFI 25c74 x19: .cfa -8 + ^ x20: .cfa -16 + ^ x21: .cfa -24 + ^ .ra: .cfa -32 + ^
STACK CFI 25da4 .cfa: sp 0 +
STACK CFI INIT 25fc0 7c .cfa: sp 0 +
STACK CFI 25fc4 .cfa: sp 48 +
STACK CFI 25fcc x19: .cfa -8 + ^ x20: .cfa -16 + ^ x21: .cfa -24 + ^ x22: .cfa -32 + ^ .ra: .cfa -48 + ^
STACK CFI 25ff0 .cfa: sp 0 +
STACK CFI 25ff4 .cfa: sp 48 +
STACK CFI 26030 .cfa: sp 0 +
STACK CFI 26034 .cfa: sp 48 +
STACK CFI INIT 2603c 64 .cfa: sp 0 +
STACK CFI 26040 .cfa: sp 32 +
STACK CFI 26044 x19: .cfa -8 + ^ x20: .cfa -16 + ^ .ra: .cfa -32 + ^
STACK CFI 26064 .cfa: sp 0 +
STACK CFI 26068 .cfa: sp 32 +
STACK CFI 2609c .cfa: sp 0 +
STACK CFI INIT 260a0 10 .cfa: sp 0 +
STACK CFI 260a4 .cfa: sp 16 + .ra: .cfa -16 + ^
STACK CFI INIT 260b0 4 .cfa: sp 0 +
STACK CFI INIT 260b4 14 .cfa: sp 0 +
STACK CFI INIT 260c8 11c .cfa: sp 0 +
STACK CFI 260cc .cfa: sp 64 +
STACK CFI 260d8 x19: .cfa -8 + ^ x20: .cfa -16 + ^ x21: .cfa -24 + ^ x22: .cfa -32 + ^ x23: .cfa -40 + ^ x24: .cfa -48 + ^ .ra: .cfa -64 + ^
STACK CFI 261e0 .cfa: sp 0 +
STACK CFI INIT 261e4 c0 .cfa: sp 0 +
STACK CFI 261e8 .cfa: sp 32 +
STACK CFI 261ec x19: .cfa -8 + ^ x20: .cfa -16 + ^ .ra: .cfa -32 + ^
STACK CFI 2627c .cfa: sp 0 +
STACK CFI 26280 .cfa: sp 32 +
STACK CFI INIT 262a4 3c8 .cfa: sp 0 +
STACK CFI INIT 2666c 80 .cfa: sp 0 +
STACK CFI 26674 .cfa: sp 32 +
STACK CFI 26678 x19: .cfa -8 + ^ x20: .cfa -16 + ^ .ra: .cfa -32 + ^
STACK CFI 266c0 .cfa: sp 0 +
STACK CFI 266c8 .cfa: sp 32 +
STACK CFI INIT 26acc 40 .cfa: sp 0 +
STACK CFI 26ad0 .cfa: sp 16 + x19: .cfa -8 + ^ .ra: .cfa -16 + ^
STACK CFI 26aec .cfa: sp 0 +
STACK CFI 26af0 .cfa: sp 16 +
STACK CFI 26b08 .cfa: sp 0 +
STACK CFI INIT 26b0c 54 .cfa: sp 0 +
STACK CFI 26b10 .cfa: sp 16 + x19: .cfa -8 + ^ .ra: .cfa -16 + ^
STACK CFI 26b40 .cfa: sp 0 +
STACK CFI 26b44 .cfa: sp 16 +
STACK CFI 26b5c .cfa: sp 0 +
STACK CFI INIT 27090 64 .cfa: sp 0 +
STACK CFI 27094 .cfa: sp 32 +
STACK CFI 27098 x19: .cfa -8 + ^ .ra: .cfa -16 + ^
STACK CFI 270d8 .cfa: sp 0 +
STACK CFI 270dc .cfa: sp 32 +
STACK CFI INIT 270f4 8 .cfa: sp 0 +
STACK CFI INIT 270fc 50 .cfa: sp 0 +
STACK CFI 27100 .cfa: sp 16 + x19: .cfa -8 + ^ .ra: .cfa -16 + ^
STACK CFI 27148 .cfa: sp 0 +
STACK CFI INIT 2714c 58 .cfa: sp 0 +
STACK CFI 27150 .cfa: sp 16 + x19: .cfa -8 + ^ .ra: .cfa -16 + ^
STACK CFI 271a0 .cfa: sp 0 +
STACK CFI INIT 271a4 4c .cfa: sp 0 +
STACK CFI INIT 271f0 50 .cfa: sp 0 +
STACK CFI 271f4 .cfa: sp 16 + x19: .cfa -8 + ^ .ra: .cfa -16 + ^
STACK CFI 2723c .cfa: sp 0 +
STACK CFI INIT 272d0 68 .cfa: sp 0 +
STACK CFI 272d4 .cfa: sp 16 + x19: .cfa -8 + ^ .ra: .cfa -16 + ^
STACK CFI 27310 .cfa: sp 0 +
STACK CFI 27314 .cfa: sp 16 +
STACK CFI 2731c .cfa: sp 0 +
STACK CFI 27320 .cfa: sp 16 +
STACK CFI 27334 .cfa: sp 0 +
STACK CFI INIT 27338 40 .cfa: sp 0 +
STACK CFI INIT 27378 44 .cfa: sp 0 +
STACK CFI 2737c .cfa: sp 16 + x19: .cfa -8 + ^ .ra: .cfa -16 + ^
STACK CFI 273b8 .cfa: sp 0 +
STACK CFI INIT 273bc 1c .cfa: sp 0 +
STACK CFI 273d4 .cfa: sp 16 + .ra: .cfa -16 + ^
STACK CFI INIT 273d8 1c .cfa: sp 0 +
STACK CFI INIT 273f4 c .cfa: sp 0 +
STACK CFI INIT 27400 30 .cfa: sp 0 +
STACK CFI 27404 .cfa: sp 16 + .ra: .cfa -16 + ^
STACK CFI INIT 27430 18 .cfa: sp 0 +
STACK CFI 27434 .cfa: sp 16 + x19: .cfa -8 + ^ .ra: .cfa -16 + ^
STACK CFI 27444 .cfa: sp 0 +
STACK CFI INIT 27448 4 .cfa: sp 0 +
STACK CFI INIT 2744c 28 .cfa: sp 0 +
STACK CFI 27450 .cfa: sp 16 + x19: .cfa -8 + ^ .ra: .cfa -16 + ^
STACK CFI 27470 .cfa: sp 0 +
STACK CFI INIT 27474 14 .cfa: sp 0 +
STACK CFI INIT 27488 4 .cfa: sp 0 +
STACK CFI INIT 2748c 4 .cfa: sp 0 +
STACK CFI INIT 27598 1c .cfa: sp 0 +
STACK CFI INIT 275b4 c .cfa: sp 0 +
STACK CFI INIT 287dc 18 .cfa: sp 0 +
STACK CFI 287e0 .cfa: sp 16 + x19: .cfa -8 + ^ .ra: .cfa -16 + ^
STACK CFI 287f0 .cfa: sp 0 +
STACK CFI INIT 287f4 30 .cfa: sp 0 +
STACK CFI 287f8 .cfa: sp 16 + x19: .cfa -8 + ^ .ra: .cfa -16 + ^
STACK CFI 28820 .cfa: sp 0 +
STACK CFI INIT 28824 4 .cfa: sp 0 +
STACK CFI INIT 28828 8 .cfa: sp 0 +
STACK CFI INIT 28830 8 .cfa: sp 0 +
STACK CFI INIT 28838 1c .cfa: sp 0 +
STACK CFI 2883c .cfa: sp 16 + x19: .cfa -8 + ^ .ra: .cfa -16 + ^
STACK CFI 28850 .cfa: sp 0 +
STACK CFI INIT 28854 34 .cfa: sp 0 +
STACK CFI 28858 .cfa: sp 16 + x19: .cfa -8 + ^ .ra: .cfa -16 + ^
STACK CFI 28884 .cfa: sp 0 +
STACK CFI INIT 28888 4 .cfa: sp 0 +
STACK CFI INIT 2888c 4 .cfa: sp 0 +
STACK CFI INIT 28890 4 .cfa: sp 0 +
STACK CFI INIT 28894 4 .cfa: sp 0 +
STACK CFI INIT 28898 4 .cfa: sp 0 +
STACK CFI INIT 2889c 8 .cfa: sp 0 +
STACK CFI INIT 28c50 b4 .cfa: sp 0 +
STACK CFI 28c54 .cfa: sp 48 +
STACK CFI 28c5c x19: .cfa -8 + ^ x20: .cfa -16 + ^ x21: .cfa -24 + ^ x22: .cfa -32 + ^ x23: .cfa -40 + ^ .ra: .cfa -48 + ^
STACK CFI 28c9c .cfa: sp 0 +
STACK CFI 28ca0 .cfa: sp 48 +
STACK CFI 28cf8 .cfa: sp 0 +
STACK CFI 28cfc .cfa: sp 48 +
STACK CFI INIT 28d04 10c .cfa: sp 0 +
STACK CFI 28d08 .cfa: sp 64 +
STACK CFI 28d14 x19: .cfa -8 + ^ x20: .cfa -16 + ^ x21: .cfa -24 + ^ x22: .cfa -32 + ^ x23: .cfa -40 + ^ x24: .cfa -48 + ^ .ra: .cfa -64 + ^
STACK CFI 28e04 .cfa: sp 0 +
STACK CFI 28e08 .cfa: sp 64 +
STACK CFI INIT 28e10 64 .cfa: sp 0 +
STACK CFI 28e14 .cfa: sp 32 +
STACK CFI 28e18 x19: .cfa -8 + ^ x20: .cfa -16 + ^ .ra: .cfa -32 + ^
STACK CFI 28e70 .cfa: sp 0 +
STACK CFI INIT 28e74 6c .cfa: sp 0 +
STACK CFI 28e78 .cfa: sp 32 +
STACK CFI 28e7c x19: .cfa -8 + ^ x20: .cfa -16 + ^ .ra: .cfa -32 + ^
STACK CFI 28edc .cfa: sp 0 +
STACK CFI INIT 29008 48 .cfa: sp 0 +
STACK CFI 2900c .cfa: sp 32 +
STACK CFI 29010 x19: .cfa -8 + ^ x20: .cfa -16 + ^ .ra: .cfa -32 + ^
STACK CFI 2904c .cfa: sp 0 +
STACK CFI INIT 292d8 80 .cfa: sp 0 +
STACK CFI 292dc .cfa: sp 64 +
STACK CFI 292e4 x19: .cfa -8 + ^ x20: .cfa -16 + ^ x21: .cfa -24 + ^ .ra: .cfa -32 + ^
STACK CFI 29350 .cfa: sp 0 +
STACK CFI 29354 .cfa: sp 64 +
STACK CFI INIT 29358 4 .cfa: sp 0 +
STACK CFI INIT 2935c 4 .cfa: sp 0 +
STACK CFI INIT 29360 28 .cfa: sp 0 +
STACK CFI 29364 .cfa: sp 16 + x19: .cfa -8 + ^ .ra: .cfa -16 + ^
STACK CFI 29384 .cfa: sp 0 +
STACK CFI INIT 29388 14 .cfa: sp 0 +
STACK CFI INIT 2939c 4 .cfa: sp 0 +
STACK CFI INIT 293a0 4 .cfa: sp 0 +
STACK CFI INIT 293a4 28 .cfa: sp 0 +
STACK CFI INIT 293cc 1c .cfa: sp 0 +
STACK CFI INIT 293e8 c .cfa: sp 0 +
STACK CFI INIT 294b4 4c .cfa: sp 0 +
STACK CFI 294b8 .cfa: sp 32 +
STACK CFI 294bc x19: .cfa -8 + ^ x20: .cfa -16 + ^ .ra: .cfa -32 + ^
STACK CFI 294f0 .cfa: sp 0 +
STACK CFI 294f4 .cfa: sp 32 +
STACK CFI 294fc .cfa: sp 0 +
STACK CFI INIT 29500 2c .cfa: sp 0 +
STACK CFI 29504 .cfa: sp 16 + x19: .cfa -8 + ^ .ra: .cfa -16 + ^
STACK CFI 29520 .cfa: sp 0 +
STACK CFI 29524 .cfa: sp 16 +
STACK CFI 29528 .cfa: sp 0 +
STACK CFI INIT 2952c 64 .cfa: sp 0 +
STACK CFI 29530 .cfa: sp 32 +
STACK CFI 29534 x19: .cfa -8 + ^ .ra: .cfa -16 + ^
STACK CFI 29574 .cfa: sp 0 +
STACK CFI 29578 .cfa: sp 32 +
STACK CFI INIT 29590 50 .cfa: sp 0 +
STACK CFI 29594 .cfa: sp 16 + x19: .cfa -8 + ^ .ra: .cfa -16 + ^
STACK CFI 295dc .cfa: sp 0 +
STACK CFI INIT 295e0 58 .cfa: sp 0 +
STACK CFI 295e4 .cfa: sp 16 + x19: .cfa -8 + ^ .ra: .cfa -16 + ^
STACK CFI 29634 .cfa: sp 0 +
STACK CFI INIT 29638 4 .cfa: sp 0 +
STACK CFI INIT 2963c 4 .cfa: sp 0 +
STACK CFI INIT 29640 28 .cfa: sp 0 +
STACK CFI 29644 .cfa: sp 16 + x19: .cfa -8 + ^ .ra: .cfa -16 + ^
STACK CFI 29664 .cfa: sp 0 +
STACK CFI INIT 29668 14 .cfa: sp 0 +
STACK CFI INIT 2967c 4 .cfa: sp 0 +
STACK CFI INIT 29680 4 .cfa: sp 0 +
STACK CFI INIT 29a68 1c .cfa: sp 0 +
STACK CFI INIT 29a84 c .cfa: sp 0 +
STACK CFI INIT 29d04 1c0 .cfa: sp 0 +
STACK CFI 29d08 .cfa: sp 320 +
STACK CFI 29d18 x19: .cfa -8 + ^ x20: .cfa -16 + ^ x21: .cfa -24 + ^ x22: .cfa -32 + ^ .ra: .cfa -40 + ^ x29: .cfa -48 + ^ v8: .cfa -64 + ^
STACK CFI 29ebc .cfa: sp 0 +
STACK CFI 29ec0 .cfa: sp 320 +
STACK CFI INIT 29ec4 4b0 .cfa: sp 0 +
STACK CFI 29ec8 .cfa: sp 96 +
STACK CFI 29edc x19: .cfa -8 + ^ x20: .cfa -16 + ^ x21: .cfa -24 + ^ x22: .cfa -32 + ^ x23: .cfa -40 + ^ x24: .cfa -48 + ^ x25: .cfa -56 + ^ x26: .cfa -64 + ^ x27: .cfa -72 + ^ x28: .cfa -80 + ^ .ra: .cfa -96 + ^
STACK CFI 2a33c .cfa: sp 0 +
STACK CFI 2a340 .cfa: sp 96 +
STACK CFI INIT 2a374 1a0 .cfa: sp 0 +
STACK CFI 2a378 .cfa: sp 64 +
STACK CFI 2a380 x19: .cfa -8 + ^ x20: .cfa -16 + ^ .ra: .cfa -32 + ^
STACK CFI 2a4b8 .cfa: sp 0 +
STACK CFI 2a4bc .cfa: sp 64 +
STACK CFI INIT 2a514 190 .cfa: sp 0 +
STACK CFI 2a518 .cfa: sp 16 + .ra: .cfa -16 + ^
STACK CFI 2a5b4 .cfa: sp 0 +
STACK CFI 2a5b8 .cfa: sp 16 +
STACK CFI 2a688 .cfa: sp 0 +
STACK CFI 2a68c .cfa: sp 16 +
STACK CFI INIT 2a6a4 108 .cfa: sp 0 +
STACK CFI 2a6a8 .cfa: sp 112 +
STACK CFI 2a6b0 x19: .cfa -8 + ^ x20: .cfa -16 + ^ x21: .cfa -24 + ^ .ra: .cfa -32 + ^
STACK CFI 2a788 .cfa: sp 0 +
STACK CFI 2a78c .cfa: sp 112 +
STACK CFI INIT 2a7ac 108 .cfa: sp 0 +
STACK CFI 2a7b0 .cfa: sp 112 +
STACK CFI 2a7b8 x19: .cfa -8 + ^ x20: .cfa -16 + ^ x21: .cfa -24 + ^ .ra: .cfa -32 + ^
STACK CFI 2a890 .cfa: sp 0 +
STACK CFI 2a894 .cfa: sp 112 +
STACK CFI INIT 2ac34 51c .cfa: sp 0 +
STACK CFI 2ac38 .cfa: sp 144 +
STACK CFI 2ac50 x19: .cfa -8 + ^ x20: .cfa -16 + ^ x21: .cfa -24 + ^ x22: .cfa -32 + ^ x23: .cfa -40 + ^ x24: .cfa -48 + ^ x25: .cfa -56 + ^ x26: .cfa -64 + ^ x27: .cfa -72 + ^ x28: .cfa -80 + ^ .ra: .cfa -96 + ^
STACK CFI 2b148 .cfa: sp 0 +
STACK CFI 2b14c .cfa: sp 144 +
STACK CFI INIT 2b944 254 .cfa: sp 0 +
STACK CFI 2b948 .cfa: sp 96 +
STACK CFI 2b95c x19: .cfa -8 + ^ x20: .cfa -16 + ^ x21: .cfa -24 + ^ x22: .cfa -32 + ^ x23: .cfa -40 + ^ x24: .cfa -48 + ^ x25: .cfa -56 + ^ x26: .cfa -64 + ^ x27: .cfa -72 + ^ x28: .cfa -80 + ^ .ra: .cfa -96 + ^
STACK CFI 2bb6c .cfa: sp 0 +
STACK CFI 2bb70 .cfa: sp 96 +
STACK CFI 2bb94 .cfa: sp 0 +
STACK CFI INIT 2bb98 1c4 .cfa: sp 0 +
STACK CFI 2bb9c .cfa: sp 64 +
STACK CFI 2bba8 x19: .cfa -8 + ^ x20: .cfa -16 + ^ x21: .cfa -24 + ^ x22: .cfa -32 + ^ x23: .cfa -40 + ^ x24: .cfa -48 + ^ x25: .cfa -56 + ^ .ra: .cfa -64 + ^
STACK CFI 2bd58 .cfa: sp 0 +
STACK CFI INIT 2bd5c 74 .cfa: sp 0 +
STACK CFI 2bd60 .cfa: sp 48 +
STACK CFI 2bd68 x19: .cfa -8 + ^ x20: .cfa -16 + ^ x21: .cfa -24 + ^ x22: .cfa -32 + ^ .ra: .cfa -48 + ^
STACK CFI 2bdbc .cfa: sp 0 +
STACK CFI 2bdc0 .cfa: sp 48 +
STACK CFI 2bdcc .cfa: sp 0 +
STACK CFI INIT 2bdd0 14c .cfa: sp 0 +
STACK CFI 2bdd4 .cfa: sp 48 +
STACK CFI 2bddc x19: .cfa -8 + ^ x20: .cfa -16 + ^ x21: .cfa -24 + ^ x22: .cfa -32 + ^ .ra: .cfa -48 + ^
STACK CFI 2bf18 .cfa: sp 0 +
STACK CFI INIT 2bf1c 1e4 .cfa: sp 0 +
STACK CFI 2bf20 .cfa: sp 64 +
STACK CFI 2bf2c x19: .cfa -8 + ^ x20: .cfa -16 + ^ x21: .cfa -24 + ^ x22: .cfa -32 + ^ x23: .cfa -40 + ^ x24: .cfa -48 + ^ x25: .cfa -56 + ^ .ra: .cfa -64 + ^
STACK CFI 2c0dc .cfa: sp 0 +
STACK CFI 2c0e0 .cfa: sp 64 +
STACK CFI 2c0fc .cfa: sp 0 +
STACK CFI INIT 2c100 1e0 .cfa: sp 0 +
STACK CFI 2c104 .cfa: sp 96 +
STACK CFI 2c114 x19: .cfa -8 + ^ x20: .cfa -16 + ^ x21: .cfa -24 + ^ x22: .cfa -32 + ^ x23: .cfa -40 + ^ x24: .cfa -48 + ^ .ra: .cfa -64 + ^
STACK CFI 2c2ac .cfa: sp 0 +
STACK CFI 2c2b0 .cfa: sp 96 +
STACK CFI INIT 2c2e0 208 .cfa: sp 0 +
STACK CFI 2c2e4 .cfa: sp 96 +
STACK CFI 2c2f4 x19: .cfa -8 + ^ x20: .cfa -16 + ^ x21: .cfa -24 + ^ x22: .cfa -32 + ^ x23: .cfa -40 + ^ x24: .cfa -48 + ^ .ra: .cfa -64 + ^
STACK CFI 2c4b4 .cfa: sp 0 +
STACK CFI 2c4b8 .cfa: sp 96 +
STACK CFI INIT 2d904 20 .cfa: sp 0 +
STACK CFI 2d908 .cfa: sp 16 + x19: .cfa -8 + ^ .ra: .cfa -16 + ^
STACK CFI 2d920 .cfa: sp 0 +
STACK CFI INIT 2d924 18 .cfa: sp 0 +
STACK CFI 2d928 .cfa: sp 16 + x19: .cfa -8 + ^ .ra: .cfa -16 + ^
STACK CFI 2d938 .cfa: sp 0 +
STACK CFI INIT 2d93c 120 .cfa: sp 0 +
STACK CFI 2d96c .cfa: sp 32 +
STACK CFI 2d970 x19: .cfa -8 + ^ x20: .cfa -16 + ^ .ra: .cfa -32 + ^
STACK CFI 2da58 .cfa: sp 0 +
STACK CFI INIT 2da5c 190 .cfa: sp 0 +
STACK CFI 2da60 .cfa: sp 48 +
STACK CFI 2da68 x19: .cfa -8 + ^ x20: .cfa -16 + ^ x21: .cfa -24 + ^ x22: .cfa -32 + ^ .ra: .cfa -48 + ^
STACK CFI 2dadc .cfa: sp 0 +
STACK CFI 2dae0 .cfa: sp 48 +
STACK CFI 2db20 .cfa: sp 0 +
STACK CFI 2db24 .cfa: sp 48 +
STACK CFI 2dbe8 .cfa: sp 0 +
STACK CFI INIT 2dbec 31c .cfa: sp 0 +
STACK CFI 2dbf0 .cfa: sp 64 +
STACK CFI 2dbfc x19: .cfa -8 + ^ x20: .cfa -16 + ^ x21: .cfa -24 + ^ x22: .cfa -32 + ^ x23: .cfa -40 + ^ x24: .cfa -48 + ^ .ra: .cfa -64 + ^
STACK CFI 2dc88 .cfa: sp 0 +
STACK CFI 2dc8c .cfa: sp 64 +
STACK CFI 2de70 .cfa: sp 0 +
STACK CFI 2de74 .cfa: sp 64 +
STACK CFI 2de94 .cfa: sp 0 +
STACK CFI 2de98 .cfa: sp 64 +
STACK CFI INIT 2df08 9c .cfa: sp 0 +
STACK CFI 2df0c .cfa: sp 48 +
STACK CFI 2df14 x19: .cfa -8 + ^ x20: .cfa -16 + ^ x21: .cfa -24 + ^ x22: .cfa -32 + ^ .ra: .cfa -48 + ^
STACK CFI 2df8c .cfa: sp 0 +
STACK CFI 2df90 .cfa: sp 48 +
STACK CFI 2df9c .cfa: sp 0 +
STACK CFI 2dfa0 .cfa: sp 48 +
STACK CFI INIT 2ec0c 15c .cfa: sp 0 +
STACK CFI 2ec10 .cfa: sp 48 +
STACK CFI 2ec18 x19: .cfa -8 + ^ x20: .cfa -16 + ^ x21: .cfa -24 + ^ x22: .cfa -32 + ^ x23: .cfa -40 + ^ .ra: .cfa -48 + ^
STACK CFI 2ed24 .cfa: sp 0 +
STACK CFI 2ed28 .cfa: sp 48 +
STACK CFI INIT 2ef14 34 .cfa: sp 0 +
STACK CFI 2ef18 .cfa: sp 16 + x19: .cfa -8 + ^ .ra: .cfa -16 + ^
STACK CFI 2ef38 .cfa: sp 0 +
STACK CFI 2ef3c .cfa: sp 16 +
STACK CFI 2ef44 .cfa: sp 0 +
STACK CFI INIT 2ef48 1cc .cfa: sp 0 +
STACK CFI 2ef4c .cfa: sp 64 +
STACK CFI 2ef58 x19: .cfa -8 + ^ x20: .cfa -16 + ^ x21: .cfa -24 + ^ x22: .cfa -32 + ^ x23: .cfa -40 + ^ x24: .cfa -48 + ^ .ra: .cfa -64 + ^
STACK CFI 2f028 .cfa: sp 0 +
STACK CFI 2f02c .cfa: sp 64 +
STACK CFI INIT 2f114 14c .cfa: sp 0 +
STACK CFI 2f118 .cfa: sp 48 +
STACK CFI 2f120 x19: .cfa -8 + ^ x20: .cfa -16 + ^ x21: .cfa -24 + ^ x22: .cfa -32 + ^ .ra: .cfa -48 + ^
STACK CFI 2f25c .cfa: sp 0 +
STACK CFI INIT 2f260 130 .cfa: sp 0 +
STACK CFI 2f264 .cfa: sp 48 +
STACK CFI 2f26c x19: .cfa -8 + ^ x20: .cfa -16 + ^ x21: .cfa -24 + ^ x22: .cfa -32 + ^ .ra: .cfa -48 + ^
STACK CFI 2f38c .cfa: sp 0 +
STACK CFI INIT 2fb18 9c .cfa: sp 0 +
STACK CFI 2fb1c .cfa: sp 48 +
STACK CFI 2fb24 x19: .cfa -8 + ^ x20: .cfa -16 + ^ x21: .cfa -24 + ^ x22: .cfa -32 + ^ .ra: .cfa -48 + ^
STACK CFI 2fb9c .cfa: sp 0 +
STACK CFI 2fba0 .cfa: sp 48 +
STACK CFI 2fbac .cfa: sp 0 +
STACK CFI 2fbb0 .cfa: sp 48 +
STACK CFI INIT 2fbb4 180 .cfa: sp 0 +
STACK CFI 2fbb8 .cfa: sp 64 +
STACK CFI 2fbc4 x19: .cfa -8 + ^ x20: .cfa -16 + ^ x21: .cfa -24 + ^ x22: .cfa -32 + ^ x23: .cfa -40 + ^ x24: .cfa -48 + ^ x25: .cfa -56 + ^ .ra: .cfa -64 + ^
STACK CFI 2fd10 .cfa: sp 0 +
STACK CFI 2fd14 .cfa: sp 64 +
STACK CFI 2fd30 .cfa: sp 0 +
STACK CFI INIT 2ff44 274 .cfa: sp 0 +
STACK CFI 2ff48 .cfa: sp 48 +
STACK CFI 2ff50 x19: .cfa -8 + ^ x20: .cfa -16 + ^ x21: .cfa -24 + ^ x22: .cfa -32 + ^ x23: .cfa -40 + ^ .ra: .cfa -48 + ^
STACK CFI 301b4 .cfa: sp 0 +
STACK CFI INIT 301b8 90 .cfa: sp 0 +
STACK CFI 301bc .cfa: sp 16 + .ra: .cfa -16 + ^
STACK CFI 30214 .cfa: sp 0 +
STACK CFI 30218 .cfa: sp 16 +
STACK CFI INIT 30248 14c .cfa: sp 0 +
STACK CFI 3024c .cfa: sp 112 +
STACK CFI 30264 x19: .cfa -8 + ^ x20: .cfa -16 + ^ x21: .cfa -24 + ^ x22: .cfa -32 + ^ x23: .cfa -40 + ^ x24: .cfa -48 + ^ x25: .cfa -56 + ^ x26: .cfa -64 + ^ x27: .cfa -72 + ^ x28: .cfa -80 + ^ .ra: .cfa -88 + ^ x29: .cfa -96 + ^
STACK CFI 3036c .cfa: sp 0 +
STACK CFI 30370 .cfa: sp 112 +
STACK CFI INIT 30394 90 .cfa: sp 0 +
STACK CFI 30398 .cfa: sp 16 + .ra: .cfa -16 + ^
STACK CFI 303f0 .cfa: sp 0 +
STACK CFI 303f4 .cfa: sp 16 +
STACK CFI INIT 30424 10 .cfa: sp 0 +
STACK CFI 30428 .cfa: sp 16 + .ra: .cfa -16 + ^
STACK CFI INIT 30434 24 .cfa: sp 0 +
STACK CFI INIT 30458 34 .cfa: sp 0 +
STACK CFI 30470 .cfa: sp 16 + x19: .cfa -8 + ^ .ra: .cfa -16 + ^
STACK CFI 30488 .cfa: sp 0 +
STACK CFI INIT 305d4 18 .cfa: sp 0 +
STACK CFI INIT 305ec 28 .cfa: sp 0 +
STACK CFI 305f8 .cfa: sp 16 + x19: .cfa -8 + ^ .ra: .cfa -16 + ^
STACK CFI 30610 .cfa: sp 0 +
STACK CFI INIT 3139c 1c .cfa: sp 0 +
STACK CFI INIT 313b8 c .cfa: sp 0 +
STACK CFI INIT 313c4 40 .cfa: sp 0 +
STACK CFI 313c8 .cfa: sp 16 + x19: .cfa -8 + ^ .ra: .cfa -16 + ^
STACK CFI 313e4 .cfa: sp 0 +
STACK CFI 313e8 .cfa: sp 16 +
STACK CFI 31400 .cfa: sp 0 +
STACK CFI INIT 31404 84 .cfa: sp 0 +
STACK CFI 31408 .cfa: sp 48 +
STACK CFI 31410 x19: .cfa -8 + ^ x20: .cfa -16 + ^ .ra: .cfa -32 + ^
STACK CFI 3145c .cfa: sp 0 +
STACK CFI 31460 .cfa: sp 48 +
STACK CFI 31480 .cfa: sp 0 +
STACK CFI 31484 .cfa: sp 48 +
STACK CFI INIT 31488 70 .cfa: sp 0 +
STACK CFI 3148c .cfa: sp 32 +
STACK CFI 31490 x19: .cfa -8 + ^ x20: .cfa -16 + ^ x21: .cfa -24 + ^ .ra: .cfa -32 + ^
STACK CFI 314bc .cfa: sp 0 +
STACK CFI 314c0 .cfa: sp 32 +
STACK CFI 314f4 .cfa: sp 0 +
STACK CFI INIT 314f8 e4 .cfa: sp 0 +
STACK CFI 314fc .cfa: sp 32 +
STACK CFI 31500 x19: .cfa -8 + ^ x20: .cfa -16 + ^ .ra: .cfa -32 + ^
STACK CFI 31548 .cfa: sp 0 +
STACK CFI 3154c .cfa: sp 32 +
STACK CFI 31590 .cfa: sp 0 +
STACK CFI 31594 .cfa: sp 32 +
STACK CFI 315bc .cfa: sp 0 +
STACK CFI 315c0 .cfa: sp 32 +
STACK CFI 315d8 .cfa: sp 0 +
STACK CFI INIT 315dc 60 .cfa: sp 0 +
STACK CFI 315e0 .cfa: sp 32 +
STACK CFI 315e4 x19: .cfa -8 + ^ x20: .cfa -16 + ^ x21: .cfa -24 + ^ .ra: .cfa -32 + ^
STACK CFI 31604 .cfa: sp 0 +
STACK CFI 31608 .cfa: sp 32 +
STACK CFI 31638 .cfa: sp 0 +
STACK CFI INIT 31a9c 44 .cfa: sp 0 +
STACK CFI 31ac0 .cfa: sp 16 + x19: .cfa -8 + ^ .ra: .cfa -16 + ^
STACK CFI 31ad8 .cfa: sp 0 +
STACK CFI INIT 31ae0 44c .cfa: sp 0 +
STACK CFI INIT 31f2c 1a8 .cfa: sp 0 +
STACK CFI 31f30 .cfa: sp 32 +
STACK CFI 31f34 x19: .cfa -8 + ^ x20: .cfa -16 + ^ .ra: .cfa -32 + ^
STACK CFI 3202c .cfa: sp 0 +
STACK CFI 32030 .cfa: sp 32 +
STACK CFI INIT 320d4 a0 .cfa: sp 0 +
STACK CFI 320e4 .cfa: sp 48 +
STACK CFI 320ec x19: .cfa -8 + ^ x20: .cfa -16 + ^ x21: .cfa -24 + ^ x22: .cfa -32 + ^ .ra: .cfa -48 + ^
STACK CFI 3210c .cfa: sp 0 +
STACK CFI 32110 .cfa: sp 48 +
STACK CFI INIT 32174 e0 .cfa: sp 0 +
STACK CFI 32178 .cfa: sp 64 +
STACK CFI 32184 x19: .cfa -8 + ^ x20: .cfa -16 + ^ x21: .cfa -24 + ^ x22: .cfa -32 + ^ x23: .cfa -40 + ^ x24: .cfa -48 + ^ .ra: .cfa -64 + ^
STACK CFI 321b8 .cfa: sp 0 +
STACK CFI 321bc .cfa: sp 64 +
STACK CFI 3223c .cfa: sp 0 +
STACK CFI 32240 .cfa: sp 64 +
STACK CFI 32250 .cfa: sp 0 +
STACK CFI INIT 32254 4 .cfa: sp 0 +
STACK CFI INIT 323f8 98 .cfa: sp 0 +
STACK CFI 323fc .cfa: sp 32 +
STACK CFI 32400 x19: .cfa -8 + ^ x20: .cfa -16 + ^ .ra: .cfa -32 + ^
STACK CFI 3248c .cfa: sp 0 +
STACK CFI INIT 32490 a0 .cfa: sp 0 +
STACK CFI 32494 .cfa: sp 32 +
STACK CFI 32498 x19: .cfa -8 + ^ x20: .cfa -16 + ^ .ra: .cfa -32 + ^
STACK CFI 3252c .cfa: sp 0 +
STACK CFI INIT 32530 40 .cfa: sp 0 +
STACK CFI 32534 .cfa: sp 16 + x19: .cfa -8 + ^ .ra: .cfa -16 + ^
STACK CFI 32550 .cfa: sp 0 +
STACK CFI 32554 .cfa: sp 16 +
STACK CFI 3256c .cfa: sp 0 +
STACK CFI INIT 32570 4c .cfa: sp 0 +
STACK CFI 32574 .cfa: sp 16 + x19: .cfa -8 + ^ .ra: .cfa -16 + ^
STACK CFI 3259c .cfa: sp 0 +
STACK CFI 325a0 .cfa: sp 16 +
STACK CFI 325b8 .cfa: sp 0 +
STACK CFI INIT 325bc 68 .cfa: sp 0 +
STACK CFI 325c0 .cfa: sp 32 +
STACK CFI 325c4 x19: .cfa -8 + ^ x20: .cfa -16 + ^ .ra: .cfa -32 + ^
STACK CFI 325f8 .cfa: sp 0 +
STACK CFI 325fc .cfa: sp 32 +
STACK CFI 32620 .cfa: sp 0 +
STACK CFI INIT 32624 54 .cfa: sp 0 +
STACK CFI 32628 .cfa: sp 32 +
STACK CFI 3262c x19: .cfa -8 + ^ x20: .cfa -16 + ^ .ra: .cfa -32 + ^
STACK CFI 32674 .cfa: sp 0 +
STACK CFI INIT 32678 48 .cfa: sp 0 +
STACK CFI 3267c .cfa: sp 32 +
STACK CFI 32680 x19: .cfa -8 + ^ x20: .cfa -16 + ^ .ra: .cfa -32 + ^
STACK CFI 326bc .cfa: sp 0 +
STACK CFI INIT 326c0 40 .cfa: sp 0 +
STACK CFI 326c4 .cfa: sp 16 + x19: .cfa -8 + ^ .ra: .cfa -16 + ^
STACK CFI 326e0 .cfa: sp 0 +
STACK CFI 326e4 .cfa: sp 16 +
STACK CFI 326fc .cfa: sp 0 +
STACK CFI INIT 32700 5c .cfa: sp 0 +
STACK CFI 32704 .cfa: sp 32 +
STACK CFI 32708 x19: .cfa -8 + ^ x20: .cfa -16 + ^ .ra: .cfa -32 + ^
STACK CFI 32730 .cfa: sp 0 +
STACK CFI 32734 .cfa: sp 32 +
STACK CFI 32758 .cfa: sp 0 +
STACK CFI INIT 32920 1c .cfa: sp 0 +
STACK CFI INIT 3293c c .cfa: sp 0 +
STACK CFI INIT 32948 5c .cfa: sp 0 +
STACK CFI 3294c .cfa: sp 32 +
STACK CFI 32950 x19: .cfa -8 + ^ x20: .cfa -16 + ^ .ra: .cfa -32 + ^
STACK CFI 32978 .cfa: sp 0 +
STACK CFI 3297c .cfa: sp 32 +
STACK CFI 329a0 .cfa: sp 0 +
STACK CFI INIT 329a4 6c .cfa: sp 0 +
STACK CFI 329a8 .cfa: sp 32 +
STACK CFI 329ac x19: .cfa -8 + ^ x20: .cfa -16 + ^ .ra: .cfa -32 + ^
STACK CFI 329dc .cfa: sp 0 +
STACK CFI 329e0 .cfa: sp 32 +
STACK CFI 32a0c .cfa: sp 0 +
STACK CFI INIT 32a10 4c .cfa: sp 0 +
STACK CFI 32a14 .cfa: sp 16 + x19: .cfa -8 + ^ .ra: .cfa -16 + ^
STACK CFI 32a3c .cfa: sp 0 +
STACK CFI 32a40 .cfa: sp 16 +
STACK CFI 32a58 .cfa: sp 0 +
STACK CFI INIT 32a5c 68 .cfa: sp 0 +
STACK CFI 32a60 .cfa: sp 32 +
STACK CFI 32a64 x19: .cfa -8 + ^ x20: .cfa -16 + ^ .ra: .cfa -32 + ^
STACK CFI 32a98 .cfa: sp 0 +
STACK CFI 32a9c .cfa: sp 32 +
STACK CFI 32ac0 .cfa: sp 0 +
STACK CFI INIT 32ac4 54 .cfa: sp 0 +
STACK CFI 32ac8 .cfa: sp 32 +
STACK CFI 32acc x19: .cfa -8 + ^ x20: .cfa -16 + ^ .ra: .cfa -32 + ^
STACK CFI 32b14 .cfa: sp 0 +
STACK CFI INIT 32b18 48 .cfa: sp 0 +
STACK CFI 32b1c .cfa: sp 32 +
STACK CFI 32b20 x19: .cfa -8 + ^ x20: .cfa -16 + ^ .ra: .cfa -32 + ^
STACK CFI 32b5c .cfa: sp 0 +
STACK CFI INIT 32b60 40 .cfa: sp 0 +
STACK CFI 32b64 .cfa: sp 16 + x19: .cfa -8 + ^ .ra: .cfa -16 + ^
STACK CFI 32b80 .cfa: sp 0 +
STACK CFI 32b84 .cfa: sp 16 +
STACK CFI 32b9c .cfa: sp 0 +
STACK CFI INIT 32ba0 5c .cfa: sp 0 +
STACK CFI 32ba4 .cfa: sp 32 +
STACK CFI 32ba8 x19: .cfa -8 + ^ x20: .cfa -16 + ^ .ra: .cfa -32 + ^
STACK CFI 32bd0 .cfa: sp 0 +
STACK CFI 32bd4 .cfa: sp 32 +
STACK CFI 32bf8 .cfa: sp 0 +
STACK CFI INIT 32dbc 1c .cfa: sp 0 +
STACK CFI INIT 32dd8 c .cfa: sp 0 +
STACK CFI INIT 32de4 e8 .cfa: sp 0 +
STACK CFI 32de8 .cfa: sp 48 +
STACK CFI 32df0 x19: .cfa -8 + ^ x20: .cfa -16 + ^ x21: .cfa -24 + ^ x22: .cfa -32 + ^ x23: .cfa -40 + ^ .ra: .cfa -48 + ^
STACK CFI 32e60 .cfa: sp 0 +
STACK CFI 32e64 .cfa: sp 48 +
STACK CFI 32e8c .cfa: sp 0 +
STACK CFI 32e90 .cfa: sp 48 +
STACK CFI 32ec8 .cfa: sp 0 +
STACK CFI INIT 32ecc 24 .cfa: sp 0 +
STACK CFI INIT 32ef0 34 .cfa: sp 0 +
STACK CFI 32f08 .cfa: sp 16 + x19: .cfa -8 + ^ .ra: .cfa -16 + ^
STACK CFI 32f20 .cfa: sp 0 +
STACK CFI INIT 33080 18 .cfa: sp 0 +
STACK CFI INIT 33098 28 .cfa: sp 0 +
STACK CFI 330a4 .cfa: sp 16 + x19: .cfa -8 + ^ .ra: .cfa -16 + ^
STACK CFI 330bc .cfa: sp 0 +
STACK CFI INIT 33224 1c .cfa: sp 0 +
STACK CFI INIT 33240 c .cfa: sp 0 +
STACK CFI INIT 3324c 4 .cfa: sp 0 +
STACK CFI INIT 33250 14 .cfa: sp 0 +
STACK CFI INIT 33264 4 .cfa: sp 0 +
STACK CFI INIT 33268 28 .cfa: sp 0 +
STACK CFI 3326c .cfa: sp 16 + x19: .cfa -8 + ^ .ra: .cfa -16 + ^
STACK CFI 3328c .cfa: sp 0 +
STACK CFI INIT 33290 14 .cfa: sp 0 +
STACK CFI INIT 332a4 4 .cfa: sp 0 +
STACK CFI INIT 332a8 4 .cfa: sp 0 +
STACK CFI INIT 332ac 18 .cfa: sp 0 +
STACK CFI INIT 332c4 1c .cfa: sp 0 +
STACK CFI INIT 332e0 c .cfa: sp 0 +
STACK CFI INIT 332ec 4c .cfa: sp 0 +
STACK CFI INIT 33338 50 .cfa: sp 0 +
STACK CFI 3333c .cfa: sp 16 + x19: .cfa -8 + ^ .ra: .cfa -16 + ^
STACK CFI 33384 .cfa: sp 0 +
STACK CFI INIT 33418 68 .cfa: sp 0 +
STACK CFI 3341c .cfa: sp 16 + x19: .cfa -8 + ^ .ra: .cfa -16 + ^
STACK CFI 33458 .cfa: sp 0 +
STACK CFI 3345c .cfa: sp 16 +
STACK CFI 33464 .cfa: sp 0 +
STACK CFI 33468 .cfa: sp 16 +
STACK CFI 3347c .cfa: sp 0 +
STACK CFI INIT 33480 40 .cfa: sp 0 +
STACK CFI INIT 334c0 44 .cfa: sp 0 +
STACK CFI 334c4 .cfa: sp 16 + x19: .cfa -8 + ^ .ra: .cfa -16 + ^
STACK CFI 33500 .cfa: sp 0 +
STACK CFI INIT 33504 1c .cfa: sp 0 +
STACK CFI 3351c .cfa: sp 16 + .ra: .cfa -16 + ^
STACK CFI INIT 33520 1c .cfa: sp 0 +
STACK CFI INIT 3353c c .cfa: sp 0 +
STACK CFI INIT 33548 4 .cfa: sp 0 +
STACK CFI INIT 3354c 28 .cfa: sp 0 +
STACK CFI 33550 .cfa: sp 16 + x19: .cfa -8 + ^ .ra: .cfa -16 + ^
STACK CFI 33570 .cfa: sp 0 +
STACK CFI INIT 33574 14 .cfa: sp 0 +
STACK CFI INIT 33588 4 .cfa: sp 0 +
STACK CFI INIT 3358c 4 .cfa: sp 0 +
STACK CFI INIT 336a0 1c .cfa: sp 0 +
STACK CFI INIT 336bc c .cfa: sp 0 +
STACK CFI INIT 336c8 4c .cfa: sp 0 +
STACK CFI INIT 33714 50 .cfa: sp 0 +
STACK CFI 33718 .cfa: sp 16 + x19: .cfa -8 + ^ .ra: .cfa -16 + ^
STACK CFI 33760 .cfa: sp 0 +
STACK CFI INIT 337f4 68 .cfa: sp 0 +
STACK CFI 337f8 .cfa: sp 16 + x19: .cfa -8 + ^ .ra: .cfa -16 + ^
STACK CFI 33834 .cfa: sp 0 +
STACK CFI 33838 .cfa: sp 16 +
STACK CFI 33840 .cfa: sp 0 +
STACK CFI 33844 .cfa: sp 16 +
STACK CFI 33858 .cfa: sp 0 +
STACK CFI INIT 3385c 40 .cfa: sp 0 +
STACK CFI INIT 3389c 44 .cfa: sp 0 +
STACK CFI 338a0 .cfa: sp 16 + x19: .cfa -8 + ^ .ra: .cfa -16 + ^
STACK CFI 338dc .cfa: sp 0 +
STACK CFI INIT 338e0 1c .cfa: sp 0 +
STACK CFI 338f8 .cfa: sp 16 + .ra: .cfa -16 + ^
STACK CFI INIT 338fc 1c .cfa: sp 0 +
STACK CFI INIT 33918 c .cfa: sp 0 +
STACK CFI INIT 33924 4 .cfa: sp 0 +
STACK CFI INIT 33928 28 .cfa: sp 0 +
STACK CFI 3392c .cfa: sp 16 + x19: .cfa -8 + ^ .ra: .cfa -16 + ^
STACK CFI 3394c .cfa: sp 0 +
STACK CFI INIT 33950 14 .cfa: sp 0 +
STACK CFI INIT 33964 4 .cfa: sp 0 +
STACK CFI INIT 33968 4 .cfa: sp 0 +
STACK CFI INIT 3396c 20 .cfa: sp 0 +
STACK CFI INIT 3398c 1c .cfa: sp 0 +
STACK CFI INIT 339a8 c .cfa: sp 0 +
STACK CFI INIT 339b4 164 .cfa: sp 0 +
STACK CFI 339b8 .cfa: sp 80 +
STACK CFI 339c8 x19: .cfa -8 + ^ x20: .cfa -16 + ^ x21: .cfa -24 + ^ x22: .cfa -32 + ^ x23: .cfa -40 + ^ x24: .cfa -48 + ^ x25: .cfa -56 + ^ x26: .cfa -64 + ^ .ra: .cfa -80 + ^
STACK CFI 33b14 .cfa: sp 0 +
STACK CFI INIT 33b18 1b0 .cfa: sp 0 +
STACK CFI INIT 34058 4 .cfa: sp 0 +
STACK CFI INIT 34394 4 .cfa: sp 0 +
STACK CFI INIT 34398 4 .cfa: sp 0 +
STACK CFI INIT 3439c 28 .cfa: sp 0 +
STACK CFI 343a0 .cfa: sp 16 + x19: .cfa -8 + ^ .ra: .cfa -16 + ^
STACK CFI 343c0 .cfa: sp 0 +
STACK CFI INIT 343c4 14 .cfa: sp 0 +
STACK CFI INIT 343d8 4 .cfa: sp 0 +
STACK CFI INIT 343dc 4 .cfa: sp 0 +
STACK CFI INIT 344e8 1c .cfa: sp 0 +
STACK CFI INIT 34504 c .cfa: sp 0 +
STACK CFI INIT 37734 a0 .cfa: sp 0 +
STACK CFI 37738 .cfa: sp 16 + x19: .cfa -8 + ^ .ra: .cfa -16 + ^
STACK CFI 37784 .cfa: sp 0 +
STACK CFI 37788 .cfa: sp 16 +
STACK CFI 377d0 .cfa: sp 0 +
STACK CFI INIT 377d4 a4 .cfa: sp 0 +
STACK CFI 377d8 .cfa: sp 32 +
STACK CFI 377dc x19: .cfa -8 + ^ x20: .cfa -16 + ^ x21: .cfa -24 + ^ .ra: .cfa -32 + ^
STACK CFI 37868 .cfa: sp 0 +
STACK CFI 3786c .cfa: sp 32 +
STACK CFI 37874 .cfa: sp 0 +
STACK CFI INIT 37878 58 .cfa: sp 0 +
STACK CFI 3787c .cfa: sp 32 +
STACK CFI 37880 x19: .cfa -8 + ^ x20: .cfa -16 + ^ x21: .cfa -24 + ^ .ra: .cfa -32 + ^
STACK CFI 378c0 .cfa: sp 0 +
STACK CFI 378c4 .cfa: sp 32 +
STACK CFI 378cc .cfa: sp 0 +
STACK CFI INIT 378d0 160 .cfa: sp 0 +
STACK CFI 378d4 .cfa: sp 32 +
STACK CFI 378d8 x19: .cfa -8 + ^ x20: .cfa -16 + ^ x21: .cfa -24 + ^ .ra: .cfa -32 + ^
STACK CFI 37a04 .cfa: sp 0 +
STACK CFI 37a08 .cfa: sp 32 +
STACK CFI 37a20 .cfa: sp 0 +
STACK CFI 37a24 .cfa: sp 32 +
STACK CFI 37a2c .cfa: sp 0 +
STACK CFI INIT 37a30 40 .cfa: sp 0 +
STACK CFI 37a34 .cfa: sp 16 + x19: .cfa -8 + ^ .ra: .cfa -16 + ^
STACK CFI 37a50 .cfa: sp 0 +
STACK CFI 37a54 .cfa: sp 16 +
STACK CFI 37a6c .cfa: sp 0 +
STACK CFI INIT 37a70 b0 .cfa: sp 0 +
STACK CFI 37a74 .cfa: sp 16 + x19: .cfa -8 + ^ .ra: .cfa -16 + ^
STACK CFI 37afc .cfa: sp 0 +
STACK CFI 37b00 .cfa: sp 16 +
STACK CFI 37b14 .cfa: sp 0 +
STACK CFI 37b18 .cfa: sp 16 +
STACK CFI 37b1c .cfa: sp 0 +
STACK CFI INIT 37b20 78 .cfa: sp 0 +
STACK CFI 37b24 .cfa: sp 48 +
STACK CFI 37b2c x19: .cfa -8 + ^ x20: .cfa -16 + ^ x21: .cfa -24 + ^ x22: .cfa -32 + ^ .ra: .cfa -48 + ^
STACK CFI 37b40 .cfa: sp 0 +
STACK CFI 37b44 .cfa: sp 48 +
STACK CFI 37b94 .cfa: sp 0 +
STACK CFI INIT 37b98 10 .cfa: sp 0 +
STACK CFI 37b9c .cfa: sp 16 + .ra: .cfa -16 + ^
STACK CFI INIT 37ff4 ac .cfa: sp 0 +
STACK CFI 37ff8 .cfa: sp 48 +
STACK CFI 38000 x19: .cfa -8 + ^ x20: .cfa -16 + ^ x21: .cfa -24 + ^ x22: .cfa -32 + ^ .ra: .cfa -48 + ^
STACK CFI 38014 .cfa: sp 0 +
STACK CFI 38018 .cfa: sp 48 +
STACK CFI 38048 .cfa: sp 0 +
STACK CFI 3804c .cfa: sp 48 +
STACK CFI 3809c .cfa: sp 0 +
STACK CFI INIT 380a0 10 .cfa: sp 0 +
STACK CFI 380a4 .cfa: sp 16 + .ra: .cfa -16 + ^
STACK CFI INIT 380b0 68 .cfa: sp 0 +
STACK CFI 380c0 .cfa: sp 32 +
STACK CFI 380c4 x19: .cfa -8 + ^ x20: .cfa -16 + ^ .ra: .cfa -32 + ^
STACK CFI 38114 .cfa: sp 0 +
STACK CFI INIT 38118 88 .cfa: sp 0 +
STACK CFI 3811c .cfa: sp 48 +
STACK CFI 38124 x19: .cfa -8 + ^ x20: .cfa -16 + ^ x21: .cfa -24 + ^ x22: .cfa -32 + ^ .ra: .cfa -48 + ^
STACK CFI 38138 .cfa: sp 0 +
STACK CFI 3813c .cfa: sp 48 +
STACK CFI 3819c .cfa: sp 0 +
STACK CFI INIT 381a0 10 .cfa: sp 0 +
STACK CFI 381a4 .cfa: sp 16 + .ra: .cfa -16 + ^
STACK CFI INIT 38310 5c .cfa: sp 0 +
STACK CFI 38320 .cfa: sp 32 +
STACK CFI 38324 x19: .cfa -8 + ^ x20: .cfa -16 + ^ .ra: .cfa -32 + ^
STACK CFI 38368 .cfa: sp 0 +
STACK CFI INIT 3836c 10 .cfa: sp 0 +
STACK CFI 38370 .cfa: sp 16 + .ra: .cfa -16 + ^
STACK CFI INIT 38e30 1e4 .cfa: sp 0 +
STACK CFI 38e34 .cfa: sp 48 +
STACK CFI 38e3c x19: .cfa -8 + ^ x20: .cfa -16 + ^ x21: .cfa -24 + ^ x22: .cfa -32 + ^ .ra: .cfa -48 + ^
STACK CFI 38f20 .cfa: sp 0 +
STACK CFI 38f24 .cfa: sp 48 +
STACK CFI 38fb8 .cfa: sp 0 +
STACK CFI 38fbc .cfa: sp 48 +
STACK CFI 38ff4 .cfa: sp 0 +
STACK CFI 38ff8 .cfa: sp 48 +
STACK CFI 39008 .cfa: sp 0 +
STACK CFI 3900c .cfa: sp 48 +
STACK CFI INIT 39014 4 .cfa: sp 0 +
STACK CFI INIT 39018 14 .cfa: sp 0 +
STACK CFI INIT 3902c 4 .cfa: sp 0 +
STACK CFI INIT 39030 14 .cfa: sp 0 +
STACK CFI INIT 39044 10 .cfa: sp 0 +
STACK CFI 39048 .cfa: sp 16 + .ra: .cfa -16 + ^
STACK CFI INIT 39054 30 .cfa: sp 0 +
STACK CFI 3905c .cfa: sp 16 + x19: .cfa -8 + ^ .ra: .cfa -16 + ^
STACK CFI 3907c .cfa: sp 0 +
STACK CFI INIT 3995c 10 .cfa: sp 0 +
STACK CFI 39960 .cfa: sp 16 + .ra: .cfa -16 + ^
STACK CFI INIT 39f30 30 .cfa: sp 0 +
STACK CFI INIT 39f60 24 .cfa: sp 0 +
STACK CFI 39f64 .cfa: sp 16 + x19: .cfa -8 + ^ .ra: .cfa -16 + ^
STACK CFI 39f80 .cfa: sp 0 +
STACK CFI INIT 39fd0 8 .cfa: sp 0 +
STACK CFI INIT 39fd8 2c .cfa: sp 0 +
STACK CFI 39fdc .cfa: sp 16 + x19: .cfa -8 + ^ .ra: .cfa -16 + ^
STACK CFI 3a000 .cfa: sp 0 +
STACK CFI INIT 3a004 2c .cfa: sp 0 +
STACK CFI 3a008 .cfa: sp 16 + x19: .cfa -8 + ^ .ra: .cfa -16 + ^
STACK CFI 3a02c .cfa: sp 0 +
STACK CFI INIT 3b370 40 .cfa: sp 0 +
STACK CFI 3b374 .cfa: sp 16 + x19: .cfa -8 + ^ .ra: .cfa -16 + ^
STACK CFI 3b390 .cfa: sp 0 +
STACK CFI 3b394 .cfa: sp 16 +
STACK CFI 3b3ac .cfa: sp 0 +
STACK CFI INIT 3b3b0 10 .cfa: sp 0 +
STACK CFI INIT 3b3c0 24 .cfa: sp 0 +
STACK CFI 3b3c4 .cfa: sp 16 + x19: .cfa -8 + ^ .ra: .cfa -16 + ^
STACK CFI 3b3e0 .cfa: sp 0 +
STACK CFI INIT 3b3e4 c .cfa: sp 0 +
STACK CFI INIT 3b3f0 4 .cfa: sp 0 +
STACK CFI INIT 3b3f4 1c0 .cfa: sp 0 +
STACK CFI 3b3f8 .cfa: sp 64 +
STACK CFI 3b404 x19: .cfa -8 + ^ x20: .cfa -16 + ^ x21: .cfa -24 + ^ x22: .cfa -32 + ^ x23: .cfa -40 + ^ x24: .cfa -48 + ^ x25: .cfa -56 + ^ .ra: .cfa -64 + ^
STACK CFI 3b434 .cfa: sp 0 +
STACK CFI 3b438 .cfa: sp 64 +
STACK CFI 3b5a8 .cfa: sp 0 +
STACK CFI 3b5ac .cfa: sp 64 +
STACK CFI INIT 3b5b4 2ec .cfa: sp 0 +
STACK CFI 3b5b8 .cfa: sp 80 +
STACK CFI 3b5c8 x19: .cfa -8 + ^ x20: .cfa -16 + ^ x21: .cfa -24 + ^ x22: .cfa -32 + ^ x23: .cfa -40 + ^ x24: .cfa -48 + ^ x25: .cfa -56 + ^ x26: .cfa -64 + ^ .ra: .cfa -80 + ^
STACK CFI 3b748 .cfa: sp 0 +
STACK CFI 3b74c .cfa: sp 80 +
STACK CFI 3b87c .cfa: sp 0 +
STACK CFI 3b880 .cfa: sp 80 +
STACK CFI 3b894 .cfa: sp 0 +
STACK CFI 3b898 .cfa: sp 80 +
STACK CFI INIT 3b8a0 4 .cfa: sp 0 +
STACK CFI INIT 3b8a4 4 .cfa: sp 0 +
STACK CFI INIT 3b8a8 2c .cfa: sp 0 +
STACK CFI 3b8ac .cfa: sp 16 + x19: .cfa -8 + ^ .ra: .cfa -16 + ^
STACK CFI 3b8bc .cfa: sp 0 +
STACK CFI 3b8c0 .cfa: sp 16 +
STACK CFI 3b8d0 .cfa: sp 0 +
STACK CFI INIT 3b8d4 1b8 .cfa: sp 0 +
STACK CFI 3b8d8 .cfa: sp 64 +
STACK CFI 3b8e0 x19: .cfa -8 + ^ x20: .cfa -16 + ^ x21: .cfa -24 + ^ .ra: .cfa -32 + ^
STACK CFI 3ba84 .cfa: sp 0 +
STACK CFI 3ba88 .cfa: sp 64 +
STACK CFI INIT 3bb50 10 .cfa: sp 0 +
STACK CFI INIT 3bb60 24 .cfa: sp 0 +
STACK CFI 3bb64 .cfa: sp 16 + x19: .cfa -8 + ^ .ra: .cfa -16 + ^
STACK CFI 3bb80 .cfa: sp 0 +
STACK CFI INIT 3bb84 48 .cfa: sp 0 +
STACK CFI 3bb88 .cfa: sp 32 +
STACK CFI 3bb8c x19: .cfa -8 + ^ x20: .cfa -16 + ^ .ra: .cfa -32 + ^
STACK CFI 3bbbc .cfa: sp 0 +
STACK CFI 3bbc0 .cfa: sp 32 +
STACK CFI 3bbc8 .cfa: sp 0 +
STACK CFI INIT 3bbcc 4 .cfa: sp 0 +
STACK CFI INIT 3bd08 48 .cfa: sp 0 +
STACK CFI 3bd0c .cfa: sp 32 +
STACK CFI 3bd10 x19: .cfa -8 + ^ x20: .cfa -16 + ^ .ra: .cfa -32 + ^
STACK CFI 3bd40 .cfa: sp 0 +
STACK CFI 3bd44 .cfa: sp 32 +
STACK CFI 3bd4c .cfa: sp 0 +
STACK CFI INIT 3bd50 1a8 .cfa: sp 0 +
STACK CFI 3bd54 .cfa: sp 32 +
STACK CFI 3bd58 x19: .cfa -8 + ^ x20: .cfa -16 + ^ .ra: .cfa -32 + ^
STACK CFI 3be50 .cfa: sp 0 +
STACK CFI 3be54 .cfa: sp 32 +
STACK CFI INIT 3c710 7c .cfa: sp 0 +
STACK CFI 3c714 .cfa: sp 32 +
STACK CFI 3c718 x19: .cfa -8 + ^ x20: .cfa -16 + ^ x21: .cfa -24 + ^ .ra: .cfa -32 + ^
STACK CFI 3c738 .cfa: sp 0 +
STACK CFI 3c73c .cfa: sp 32 +
STACK CFI 3c788 .cfa: sp 0 +
STACK CFI INIT 3dce0 60 .cfa: sp 0 +
STACK CFI 3dce4 .cfa: sp 32 +
STACK CFI 3dce8 x19: .cfa -8 + ^ x20: .cfa -16 + ^ x21: .cfa -24 + ^ .ra: .cfa -32 + ^
STACK CFI 3dd08 .cfa: sp 0 +
STACK CFI 3dd0c .cfa: sp 32 +
STACK CFI 3dd3c .cfa: sp 0 +
STACK CFI INIT 3dd40 160 .cfa: sp 0 +
STACK CFI 3dd44 .cfa: sp 32 +
STACK CFI 3dd48 x19: .cfa -8 + ^ x20: .cfa -16 + ^ x21: .cfa -24 + ^ .ra: .cfa -32 + ^
STACK CFI 3de74 .cfa: sp 0 +
STACK CFI 3de78 .cfa: sp 32 +
STACK CFI 3de90 .cfa: sp 0 +
STACK CFI 3de94 .cfa: sp 32 +
STACK CFI 3de9c .cfa: sp 0 +
STACK CFI INIT 3dea0 6c .cfa: sp 0 +
STACK CFI 3dea4 .cfa: sp 32 +
STACK CFI 3dea8 x19: .cfa -8 + ^ x20: .cfa -16 + ^ x21: .cfa -24 + ^ .ra: .cfa -32 + ^
STACK CFI 3defc .cfa: sp 0 +
STACK CFI 3df00 .cfa: sp 32 +
STACK CFI 3df08 .cfa: sp 0 +
STACK CFI INIT 3ebf0 118 .cfa: sp 0 +
STACK CFI 3ebf4 .cfa: sp 64 +
STACK CFI 3ec00 x19: .cfa -8 + ^ x20: .cfa -16 + ^ x21: .cfa -24 + ^ x22: .cfa -32 + ^ x23: .cfa -40 + ^ x24: .cfa -48 + ^ .ra: .cfa -64 + ^
STACK CFI 3ecf8 .cfa: sp 0 +
STACK CFI 3ecfc .cfa: sp 64 +
STACK CFI INIT 3f048 50 .cfa: sp 0 +
STACK CFI 3f04c .cfa: sp 32 +
STACK CFI 3f050 x19: .cfa -8 + ^ x20: .cfa -16 + ^ .ra: .cfa -32 + ^
STACK CFI 3f088 .cfa: sp 0 +
STACK CFI 3f08c .cfa: sp 32 +
STACK CFI 3f094 .cfa: sp 0 +
STACK CFI INIT 3f4b8 4c .cfa: sp 0 +
STACK CFI 3f4bc .cfa: sp 16 + x19: .cfa -8 + ^ .ra: .cfa -16 + ^
STACK CFI 3f4f8 .cfa: sp 0 +
STACK CFI 3f4fc .cfa: sp 16 +
STACK CFI 3f500 .cfa: sp 0 +
STACK CFI INIT 3f87c 44 .cfa: sp 0 +
STACK CFI 3f8a0 .cfa: sp 16 + x19: .cfa -8 + ^ .ra: .cfa -16 + ^
STACK CFI 3f8b8 .cfa: sp 0 +
STACK CFI INIT 3f8c0 1a8 .cfa: sp 0 +
STACK CFI 3f8c4 .cfa: sp 32 +
STACK CFI 3f8c8 x19: .cfa -8 + ^ x20: .cfa -16 + ^ .ra: .cfa -32 + ^
STACK CFI 3f9c0 .cfa: sp 0 +
STACK CFI 3f9c4 .cfa: sp 32 +
STACK CFI INIT 440bc c8 .cfa: sp 0 +
STACK CFI 440c0 .cfa: sp 64 +
STACK CFI 440c8 x19: .cfa -8 + ^ x20: .cfa -16 + ^ .ra: .cfa -32 + ^
STACK CFI 4417c .cfa: sp 0 +
STACK CFI 44180 .cfa: sp 64 +
STACK CFI INIT 44184 8 .cfa: sp 0 +
STACK CFI 44188 .cfa: sp 16 + .ra: .cfa -16 + ^
STACK CFI INIT 4418c 10 .cfa: sp 0 +
STACK CFI 44190 .cfa: sp 16 + .ra: .cfa -16 + ^
STACK CFI INIT 4419c 10 .cfa: sp 0 +
STACK CFI 441a0 .cfa: sp 16 + .ra: .cfa -16 + ^
STACK CFI INIT 441ac 128 .cfa: sp 0 +
STACK CFI 441b0 .cfa: sp 64 +
STACK CFI 441b8 x19: .cfa -8 + ^ x20: .cfa -16 + ^ x21: .cfa -24 + ^ .ra: .cfa -32 + ^
STACK CFI 442cc .cfa: sp 0 +
STACK CFI 442d0 .cfa: sp 64 +
STACK CFI INIT 448a4 420 .cfa: sp 0 +
STACK CFI 448a8 .cfa: sp 192 +
STACK CFI 448cc x19: .cfa -8 + ^ x20: .cfa -16 + ^ x21: .cfa -24 + ^ x22: .cfa -32 + ^ x23: .cfa -40 + ^ x24: .cfa -48 + ^ x25: .cfa -56 + ^ x26: .cfa -64 + ^ x27: .cfa -72 + ^ x28: .cfa -80 + ^ .ra: .cfa -88 + ^ x29: .cfa -96 + ^ v8: .cfa -104 + ^ v9: .cfa -112 + ^ v10: .cfa -120 + ^ v11: .cfa -128 + ^ v12: .cfa -136 + ^ v13: .cfa -144 + ^
STACK CFI 44be0 .cfa: sp 0 +
STACK CFI 44be4 .cfa: sp 192 +
STACK CFI INIT 44cc4 1c8 .cfa: sp 0 +
STACK CFI 44cc8 .cfa: sp 80 +
STACK CFI 44cd8 x19: .cfa -8 + ^ .ra: .cfa -16 + ^ v8: .cfa -24 + ^ v9: .cfa -32 + ^ v10: .cfa -40 + ^ v11: .cfa -48 + ^ v12: .cfa -56 + ^ v13: .cfa -64 + ^
STACK CFI 44e6c .cfa: sp 0 +
STACK CFI 44e70 .cfa: sp 80 +
STACK CFI 44e88 .cfa: sp 0 +
STACK CFI INIT 44e8c c .cfa: sp 0 +
STACK CFI INIT 44e98 9c .cfa: sp 0 +
STACK CFI 44e9c .cfa: sp 64 +
STACK CFI 44ea4 x19: .cfa -8 + ^ x20: .cfa -16 + ^ x21: .cfa -24 + ^ .ra: .cfa -32 + ^
STACK CFI 44f2c .cfa: sp 0 +
STACK CFI 44f30 .cfa: sp 64 +
STACK CFI INIT 44f34 54 .cfa: sp 0 +
STACK CFI 44f38 .cfa: sp 32 +
STACK CFI 44f3c x19: .cfa -8 + ^ x20: .cfa -16 + ^ .ra: .cfa -32 + ^
STACK CFI 44f84 .cfa: sp 0 +
STACK CFI INIT 44f88 1b8 .cfa: sp 0 +
STACK CFI 44f8c .cfa: sp 64 +
STACK CFI 44f94 x19: .cfa -8 + ^ x20: .cfa -16 + ^ x21: .cfa -24 + ^ .ra: .cfa -32 + ^
STACK CFI 45138 .cfa: sp 0 +
STACK CFI 4513c .cfa: sp 64 +
STACK CFI INIT 45140 11c .cfa: sp 0 +
STACK CFI 45144 .cfa: sp 32 +
STACK CFI 45148 x19: .cfa -8 + ^ x20: .cfa -16 + ^ .ra: .cfa -32 + ^
STACK CFI 4524c .cfa: sp 0 +
STACK CFI 45250 .cfa: sp 32 +
STACK CFI 45258 .cfa: sp 0 +
STACK CFI INIT 4525c a8 .cfa: sp 0 +
STACK CFI 45260 .cfa: sp 64 +
STACK CFI 45268 x19: .cfa -8 + ^ x20: .cfa -16 + ^ x21: .cfa -24 + ^ .ra: .cfa -32 + ^
STACK CFI 452fc .cfa: sp 0 +
STACK CFI 45300 .cfa: sp 64 +
STACK CFI INIT 45304 a4 .cfa: sp 0 +
STACK CFI 45308 .cfa: sp 32 +
STACK CFI 4530c x19: .cfa -8 + ^ x20: .cfa -16 + ^ .ra: .cfa -32 + ^
STACK CFI 45328 .cfa: sp 0 +
STACK CFI 4532c .cfa: sp 32 +
STACK CFI 45374 .cfa: sp 0 +
STACK CFI 45378 .cfa: sp 32 +
STACK CFI 45388 .cfa: sp 0 +
STACK CFI 4538c .cfa: sp 32 +
STACK CFI 453a4 .cfa: sp 0 +
STACK CFI INIT 453a8 60 .cfa: sp 0 +
STACK CFI 453ac .cfa: sp 32 +
STACK CFI 453b0 x19: .cfa -8 + ^ x20: .cfa -16 + ^ x21: .cfa -24 + ^ .ra: .cfa -32 + ^
STACK CFI 453d0 .cfa: sp 0 +
STACK CFI 453d4 .cfa: sp 32 +
STACK CFI 45404 .cfa: sp 0 +
STACK CFI INIT 45408 1e4 .cfa: sp 0 +
STACK CFI 4540c .cfa: sp 32 +
STACK CFI 45410 x19: .cfa -8 + ^ x20: .cfa -16 + ^ .ra: .cfa -32 + ^
STACK CFI 455dc .cfa: sp 0 +
STACK CFI 455e0 .cfa: sp 32 +
STACK CFI INIT 455ec 10 .cfa: sp 0 +
STACK CFI 455f0 .cfa: sp 16 + .ra: .cfa -16 + ^
STACK CFI INIT 455fc 64 .cfa: sp 0 +
STACK CFI 45600 .cfa: sp 32 +
STACK CFI 45604 x19: .cfa -8 + ^ x20: .cfa -16 + ^ .ra: .cfa -32 + ^
STACK CFI 45628 .cfa: sp 0 +
STACK CFI 4562c .cfa: sp 32 +
STACK CFI 4565c .cfa: sp 0 +
STACK CFI INIT 45ba8 3c .cfa: sp 0 +
STACK CFI 45bac .cfa: sp 16 + x19: .cfa -8 + ^ .ra: .cfa -16 + ^
STACK CFI 45bd8 .cfa: sp 0 +
STACK CFI 45bdc .cfa: sp 16 +
STACK CFI 45be0 .cfa: sp 0 +
STACK CFI INIT 45c30 24 .cfa: sp 0 +
STACK CFI 45c34 .cfa: sp 16 + x19: .cfa -8 + ^ .ra: .cfa -16 + ^
STACK CFI 45c50 .cfa: sp 0 +
STACK CFI INIT 46890 118 .cfa: sp 0 +
STACK CFI 46894 .cfa: sp 80 +
STACK CFI 468a0 x19: .cfa -8 + ^ x20: .cfa -16 + ^ x21: .cfa -24 + ^ x22: .cfa -32 + ^ x23: .cfa -40 + ^ .ra: .cfa -48 + ^
STACK CFI 469a0 .cfa: sp 0 +
STACK CFI 469a4 .cfa: sp 80 +
STACK CFI INIT 469a8 60 .cfa: sp 0 +
STACK CFI 469ac .cfa: sp 32 +
STACK CFI 469b0 x19: .cfa -8 + ^ x20: .cfa -16 + ^ x21: .cfa -24 + ^ .ra: .cfa -32 + ^
STACK CFI 469d0 .cfa: sp 0 +
STACK CFI 469d4 .cfa: sp 32 +
STACK CFI 46a04 .cfa: sp 0 +
STACK CFI INIT 46a08 200 .cfa: sp 0 +
STACK CFI 46a0c .cfa: sp 16 + .ra: .cfa -16 + ^
STACK CFI 46bd8 .cfa: sp 0 +
STACK CFI 46bdc .cfa: sp 16 +
STACK CFI 46bf8 .cfa: sp 0 +
STACK CFI 46bfc .cfa: sp 16 +
STACK CFI INIT 46c08 64 .cfa: sp 0 +
STACK CFI 46c0c .cfa: sp 32 +
STACK CFI 46c10 x19: .cfa -8 + ^ x20: .cfa -16 + ^ .ra: .cfa -32 + ^
STACK CFI 46c34 .cfa: sp 0 +
STACK CFI 46c38 .cfa: sp 32 +
STACK CFI 46c68 .cfa: sp 0 +
STACK CFI INIT 471b4 3c .cfa: sp 0 +
STACK CFI 471b8 .cfa: sp 16 + x19: .cfa -8 + ^ .ra: .cfa -16 + ^
STACK CFI 471e4 .cfa: sp 0 +
STACK CFI 471e8 .cfa: sp 16 +
STACK CFI 471ec .cfa: sp 0 +
STACK CFI INIT 47eec 9c .cfa: sp 0 +
STACK CFI 47ef0 .cfa: sp 64 +
STACK CFI 47ef8 x19: .cfa -8 + ^ x20: .cfa -16 + ^ x21: .cfa -24 + ^ .ra: .cfa -32 + ^
STACK CFI 47f80 .cfa: sp 0 +
STACK CFI 47f84 .cfa: sp 64 +
STACK CFI INIT 47f88 30 .cfa: sp 0 +
STACK CFI 47f8c .cfa: sp 32 +
STACK CFI 47f90 x19: .cfa -8 + ^ x20: .cfa -16 + ^ .ra: .cfa -32 + ^
STACK CFI 47fb4 .cfa: sp 0 +
STACK CFI INIT 48204 114 .cfa: sp 0 +
STACK CFI 48208 .cfa: sp 80 +
STACK CFI 48218 x19: .cfa -8 + ^ x20: .cfa -16 + ^ x21: .cfa -24 + ^ .ra: .cfa -32 + ^ v8: .cfa -40 + ^ v9: .cfa -48 + ^ v10: .cfa -56 + ^ v11: .cfa -64 + ^ v12: .cfa -72 + ^ v13: .cfa -80 + ^
STACK CFI 48314 .cfa: sp 0 +
STACK CFI INIT 48980 4dc .cfa: sp 0 +
STACK CFI 48984 .cfa: sp 192 +
STACK CFI 489a4 x19: .cfa -8 + ^ x20: .cfa -16 + ^ x21: .cfa -24 + ^ x22: .cfa -32 + ^ x23: .cfa -40 + ^ x24: .cfa -48 + ^ x25: .cfa -56 + ^ x26: .cfa -64 + ^ x27: .cfa -72 + ^ x28: .cfa -80 + ^ .ra: .cfa -88 + ^ x29: .cfa -96 + ^ v8: .cfa -104 + ^ v9: .cfa -112 + ^ v10: .cfa -120 + ^ v11: .cfa -128 + ^
STACK CFI 48e54 .cfa: sp 0 +
STACK CFI 48e58 .cfa: sp 192 +
STACK CFI INIT 48e5c 1d0 .cfa: sp 0 +
STACK CFI 48e60 .cfa: sp 80 +
STACK CFI 48e6c x19: .cfa -8 + ^ x20: .cfa -16 + ^ x21: .cfa -24 + ^ x22: .cfa -32 + ^ .ra: .cfa -48 + ^
STACK CFI 48f4c .cfa: sp 0 +
STACK CFI 48f50 .cfa: sp 80 +
STACK CFI INIT 4924c 18 .cfa: sp 0 +
STACK CFI INIT 49264 18 .cfa: sp 0 +
STACK CFI INIT 4927c 4 .cfa: sp 0 +
STACK CFI INIT 49280 28 .cfa: sp 0 +
STACK CFI 49284 .cfa: sp 16 + x19: .cfa -8 + ^ .ra: .cfa -16 + ^
STACK CFI 492a4 .cfa: sp 0 +
STACK CFI INIT 492a8 14 .cfa: sp 0 +
STACK CFI INIT 492bc 4 .cfa: sp 0 +
STACK CFI INIT 492c0 4 .cfa: sp 0 +
STACK CFI INIT 492c4 c .cfa: sp 0 +
STACK CFI INIT 492d0 4 .cfa: sp 0 +
STACK CFI INIT 492d4 28 .cfa: sp 0 +
STACK CFI 492d8 .cfa: sp 16 + x19: .cfa -8 + ^ .ra: .cfa -16 + ^
STACK CFI 492f8 .cfa: sp 0 +
STACK CFI INIT 492fc 14 .cfa: sp 0 +
STACK CFI INIT 49310 4 .cfa: sp 0 +
STACK CFI INIT 49314 4 .cfa: sp 0 +
STACK CFI INIT 49318 20 .cfa: sp 0 +
STACK CFI INIT 49338 4 .cfa: sp 0 +
STACK CFI INIT 4933c 4 .cfa: sp 0 +
STACK CFI INIT 49340 28 .cfa: sp 0 +
STACK CFI 49344 .cfa: sp 16 + x19: .cfa -8 + ^ .ra: .cfa -16 + ^
STACK CFI 49364 .cfa: sp 0 +
STACK CFI INIT 49368 14 .cfa: sp 0 +
STACK CFI INIT 4937c 4 .cfa: sp 0 +
STACK CFI INIT 49380 4 .cfa: sp 0 +
STACK CFI INIT 49384 20 .cfa: sp 0 +
STACK CFI INIT 493a4 f0 .cfa: sp 0 +
STACK CFI 493a8 .cfa: sp 64 +
STACK CFI 493b0 x19: .cfa -8 + ^ x20: .cfa -16 + ^ x21: .cfa -24 + ^ .ra: .cfa -32 + ^
STACK CFI 4948c .cfa: sp 0 +
STACK CFI 49490 .cfa: sp 64 +
STACK CFI INIT 49494 30 .cfa: sp 0 +
STACK CFI 49498 .cfa: sp 32 +
STACK CFI 4949c x19: .cfa -8 + ^ x20: .cfa -16 + ^ .ra: .cfa -32 + ^
STACK CFI 494c0 .cfa: sp 0 +
STACK CFI INIT 494c4 e4 .cfa: sp 0 +
STACK CFI 494c8 .cfa: sp 64 +
STACK CFI 494d0 x19: .cfa -8 + ^ x20: .cfa -16 + ^ x21: .cfa -24 + ^ .ra: .cfa -32 + ^
STACK CFI 495a0 .cfa: sp 0 +
STACK CFI 495a4 .cfa: sp 64 +
STACK CFI INIT 495a8 1dc .cfa: sp 0 +
STACK CFI 495ac .cfa: sp 256 +
STACK CFI 495bc x19: .cfa -8 + ^ x20: .cfa -16 + ^ x21: .cfa -24 + ^ x22: .cfa -32 + ^ x23: .cfa -40 + ^ x24: .cfa -48 + ^ x25: .cfa -56 + ^ .ra: .cfa -64 + ^
STACK CFI 49768 .cfa: sp 0 +
STACK CFI 4976c .cfa: sp 256 +
STACK CFI INIT 49784 138 .cfa: sp 0 +
STACK CFI 49788 .cfa: sp 32 +
STACK CFI 4978c x19: .cfa -8 + ^ x20: .cfa -16 + ^ x21: .cfa -24 + ^ .ra: .cfa -32 + ^
STACK CFI 498b4 .cfa: sp 0 +
STACK CFI 498b8 .cfa: sp 32 +
STACK CFI INIT 498bc 7e4 .cfa: sp 0 +
STACK CFI 498c0 .cfa: sp 16 + x19: .cfa -8 + ^ .ra: .cfa -16 + ^
STACK CFI 49a1c .cfa: sp 0 +
STACK CFI 49a20 .cfa: sp 16 +
STACK CFI 49cf4 .cfa: sp 0 +
STACK CFI 49cf8 .cfa: sp 16 +
STACK CFI INIT 4a0a0 14c .cfa: sp 0 +
STACK CFI 4a0a4 .cfa: sp 112 +
STACK CFI 4a0b0 x19: .cfa -8 + ^ x20: .cfa -16 + ^ x21: .cfa -24 + ^ x22: .cfa -32 + ^ .ra: .cfa -48 + ^
STACK CFI 4a1e4 .cfa: sp 0 +
STACK CFI 4a1e8 .cfa: sp 112 +
STACK CFI INIT 4a1ec 150 .cfa: sp 0 +
STACK CFI 4a1f0 .cfa: sp 112 +
STACK CFI 4a1fc x19: .cfa -8 + ^ x20: .cfa -16 + ^ x21: .cfa -24 + ^ x22: .cfa -32 + ^ .ra: .cfa -48 + ^
STACK CFI 4a334 .cfa: sp 0 +
STACK CFI 4a338 .cfa: sp 112 +
STACK CFI INIT 4a33c 150 .cfa: sp 0 +
STACK CFI 4a340 .cfa: sp 112 +
STACK CFI 4a34c x19: .cfa -8 + ^ x20: .cfa -16 + ^ x21: .cfa -24 + ^ x22: .cfa -32 + ^ .ra: .cfa -48 + ^
STACK CFI 4a484 .cfa: sp 0 +
STACK CFI 4a488 .cfa: sp 112 +
STACK CFI INIT 4a48c 150 .cfa: sp 0 +
STACK CFI 4a490 .cfa: sp 112 +
STACK CFI 4a49c x19: .cfa -8 + ^ x20: .cfa -16 + ^ x21: .cfa -24 + ^ x22: .cfa -32 + ^ .ra: .cfa -48 + ^
STACK CFI 4a5d4 .cfa: sp 0 +
STACK CFI 4a5d8 .cfa: sp 112 +
STACK CFI INIT 4a5dc 14c .cfa: sp 0 +
STACK CFI 4a5e0 .cfa: sp 112 +
STACK CFI 4a5ec x19: .cfa -8 + ^ x20: .cfa -16 + ^ x21: .cfa -24 + ^ x22: .cfa -32 + ^ .ra: .cfa -48 + ^
STACK CFI 4a720 .cfa: sp 0 +
STACK CFI 4a724 .cfa: sp 112 +
STACK CFI INIT 4a728 f4 .cfa: sp 0 +
STACK CFI INIT 4a81c 60 .cfa: sp 0 +
STACK CFI INIT 4a87c 254 .cfa: sp 0 +
STACK CFI INIT 4aad0 e4 .cfa: sp 0 +
STACK CFI INIT 4abb4 b0 .cfa: sp 0 +
STACK CFI INIT 4ac64 d4 .cfa: sp 0 +
STACK CFI INIT 4ad38 74 .cfa: sp 0 +
STACK CFI INIT 4adac f0 .cfa: sp 0 +
STACK CFI INIT 4ae9c 200 .cfa: sp 0 +
STACK CFI INIT 4b09c 114 .cfa: sp 0 +
STACK CFI INIT 4b1b0 b4 .cfa: sp 0 +
STACK CFI INIT 4b264 bc .cfa: sp 0 +
STACK CFI INIT 4b49c c .cfa: sp 0 +
STACK CFI INIT 4b4a8 98 .cfa: sp 0 +
STACK CFI INIT 4b540 8 .cfa: sp 0 +
STACK CFI INIT 4b548 4 .cfa: sp 0 +
STACK CFI INIT 4b54c 4 .cfa: sp 0 +
STACK CFI INIT 4b550 28 .cfa: sp 0 +
STACK CFI 4b554 .cfa: sp 16 + x19: .cfa -8 + ^ .ra: .cfa -16 + ^
STACK CFI 4b574 .cfa: sp 0 +
STACK CFI INIT 4b578 14 .cfa: sp 0 +
STACK CFI INIT 4b58c 4 .cfa: sp 0 +
STACK CFI INIT 4b590 4 .cfa: sp 0 +
STACK CFI INIT 4b594 18 .cfa: sp 0 +
STACK CFI INIT 4b5ac 3c8 .cfa: sp 0 +
STACK CFI 4b5b0 .cfa: sp 96 +
STACK CFI 4b5c4 .ra: .cfa -16 + ^ v8: .cfa -24 + ^ v9: .cfa -32 + ^ v10: .cfa -40 + ^ v11: .cfa -48 + ^ v12: .cfa -56 + ^ v13: .cfa -64 + ^ v14: .cfa -72 + ^ v15: .cfa -80 + ^
STACK CFI 4b970 .cfa: sp 0 +
STACK CFI INIT 4b974 4c .cfa: sp 0 +
STACK CFI 4b978 .cfa: sp 32 +
STACK CFI 4b980 .cfa: x29 32 + x19: .cfa -8 + ^ x20: .cfa -16 + ^ .ra: .cfa -24 + ^ x29: .cfa -32 + ^
STACK CFI 4b9a8 .cfa: sp 32 +
STACK CFI 4b9b0 .cfa: sp 0 +
STACK CFI 4b9b4 .cfa: sp 32 +
STACK CFI 4b9bc .cfa: sp 0 +
STACK CFI INIT 4bbe0 64 .cfa: sp 0 +
STACK CFI 4bbe4 .cfa: sp 32 +
STACK CFI 4bbec .cfa: x29 32 + x19: .cfa -16 + ^ .ra: .cfa -24 + ^ x29: .cfa -32 + ^
STACK CFI 4bc18 .cfa: sp 32 +
STACK CFI 4bc20 .cfa: sp 0 +
STACK CFI 4bc24 .cfa: x29 32 +
STACK CFI 4bc38 .cfa: sp 32 +
STACK CFI 4bc40 .cfa: sp 0 +
STACK CFI INIT 4bc44 24 .cfa: sp 0 +
STACK CFI 4bc48 .cfa: sp 32 +
STACK CFI 4bc50 .cfa: x29 32 + x19: .cfa -16 + ^ .ra: .cfa -24 + ^ x29: .cfa -32 + ^
STACK CFI 4bc5c .cfa: sp 32 +
STACK CFI 4bc64 .cfa: sp 0 +
STACK CFI INIT 4bec4 24 .cfa: sp 0 +
STACK CFI 4bec8 .cfa: sp 32 +
STACK CFI 4bed0 .cfa: x29 32 + x19: .cfa -16 + ^ .ra: .cfa -24 + ^ x29: .cfa -32 + ^
STACK CFI 4bedc .cfa: sp 32 +
STACK CFI 4bee4 .cfa: sp 0 +
STACK CFI INIT 4bee8 8 .cfa: sp 0 +
STACK CFI INIT 4bef0 24 .cfa: sp 0 +
STACK CFI 4bef4 .cfa: sp 32 +
STACK CFI 4befc .cfa: x29 32 + x19: .cfa -16 + ^ .ra: .cfa -24 + ^ x29: .cfa -32 + ^
STACK CFI 4bf08 .cfa: sp 32 +
STACK CFI 4bf10 .cfa: sp 0 +
STACK CFI INIT 4bf14 28 .cfa: sp 0 +
STACK CFI 4bf18 .cfa: sp 32 +
STACK CFI 4bf20 .cfa: x29 32 + x19: .cfa -16 + ^ .ra: .cfa -24 + ^ x29: .cfa -32 + ^
STACK CFI 4bf30 .cfa: sp 32 +
STACK CFI 4bf38 .cfa: sp 0 +
STACK CFI INIT 4c23c 8 .cfa: sp 0 +
STACK CFI INIT 4c244 24 .cfa: sp 0 +
STACK CFI 4c248 .cfa: sp 32 +
STACK CFI 4c250 .cfa: x29 32 + x19: .cfa -16 + ^ .ra: .cfa -24 + ^ x29: .cfa -32 + ^
STACK CFI 4c25c .cfa: sp 32 +
STACK CFI 4c264 .cfa: sp 0 +
STACK CFI INIT 4c268 28 .cfa: sp 0 +
STACK CFI 4c26c .cfa: sp 32 +
STACK CFI 4c274 .cfa: x29 32 + x19: .cfa -16 + ^ .ra: .cfa -24 + ^ x29: .cfa -32 + ^
STACK CFI 4c284 .cfa: sp 32 +
STACK CFI 4c28c .cfa: sp 0 +
STACK CFI INIT 4c4f4 8 .cfa: sp 0 +
STACK CFI INIT 4c4fc 24 .cfa: sp 0 +
STACK CFI 4c500 .cfa: sp 32 +
STACK CFI 4c508 .cfa: x29 32 + x19: .cfa -16 + ^ .ra: .cfa -24 + ^ x29: .cfa -32 + ^
STACK CFI 4c514 .cfa: sp 32 +
STACK CFI 4c51c .cfa: sp 0 +
STACK CFI INIT 4c520 28 .cfa: sp 0 +
STACK CFI 4c524 .cfa: sp 32 +
STACK CFI 4c52c .cfa: x29 32 + x19: .cfa -16 + ^ .ra: .cfa -24 + ^ x29: .cfa -32 + ^
STACK CFI 4c53c .cfa: sp 32 +
STACK CFI 4c544 .cfa: sp 0 +
STACK CFI INIT 4c7ac 4 .cfa: sp 0 +
STACK CFI INIT 4d7d4 4 .cfa: sp 0 +
STACK CFI INIT 4d7d8 14 .cfa: sp 0 +
STACK CFI INIT 4dcf8 c .cfa: sp 0 +
STACK CFI INIT 4dd04 24c .cfa: sp 0 +
STACK CFI INIT 4df50 a0 .cfa: sp 0 +
STACK CFI 4df5c .cfa: sp 32 +
STACK CFI 4dfb4 .cfa: sp 0 +
STACK CFI 4dfb8 .cfa: sp 32 +
STACK CFI 4dfc0 .cfa: sp 0 +
STACK CFI 4dfc4 .cfa: sp 32 +
STACK CFI 4dfd8 .cfa: sp 0 +
STACK CFI 4dfdc .cfa: sp 32 +
STACK CFI 4dfec .cfa: sp 0 +
STACK CFI INIT 4dff0 38 .cfa: sp 0 +
STACK CFI 4dffc .cfa: sp 32 +
STACK CFI 4e024 .cfa: sp 0 +
STACK CFI INIT 4e340 7c .cfa: sp 0 +
STACK CFI 4e344 .cfa: sp 32 +
STACK CFI 4e34c .cfa: x29 32 + x19: .cfa -16 + ^ .ra: .cfa -24 + ^ x29: .cfa -32 + ^
STACK CFI 4e378 .cfa: sp 32 +
STACK CFI 4e380 .cfa: sp 0 +
STACK CFI 4e384 .cfa: x29 32 +
STACK CFI 4e3b0 .cfa: sp 32 +
STACK CFI 4e3b8 .cfa: sp 0 +
STACK CFI INIT 4ebcc 64 .cfa: sp 0 +
STACK CFI 4ebd0 .cfa: sp 32 +
STACK CFI 4ebd8 .cfa: x29 32 + x19: .cfa -16 + ^ .ra: .cfa -24 + ^ x29: .cfa -32 + ^
STACK CFI 4ebf4 .cfa: sp 32 +
STACK CFI 4ebfc .cfa: sp 0 +
STACK CFI 4ec00 .cfa: x29 32 +
STACK CFI 4ec24 .cfa: sp 32 +
STACK CFI 4ec2c .cfa: sp 0 +
STACK CFI INIT 4ec30 570 .cfa: sp 0 +
STACK CFI 4ec34 .cfa: sp 176 +
STACK CFI 4ec48 .cfa: x29 64 + x19: .cfa -8 + ^ x20: .cfa -16 + ^ x21: .cfa -24 + ^ x22: .cfa -32 + ^ x23: .cfa -40 + ^ x24: .cfa -48 + ^ .ra: .cfa -56 + ^ x29: .cfa -64 + ^
STACK CFI 4ee78 .cfa: sp 176 +
STACK CFI 4ee8c .cfa: sp 0 +
STACK CFI 4ee90 .cfa: x29 64 +
STACK CFI 4eedc .cfa: sp 176 +
STACK CFI 4eef0 .cfa: sp 0 +
STACK CFI 4eef4 .cfa: x29 64 +
STACK CFI 4ef2c .cfa: sp 176 +
STACK CFI 4ef40 .cfa: sp 0 +
STACK CFI 4ef44 .cfa: x29 64 +
STACK CFI 4ef5c .cfa: sp 176 +
STACK CFI 4ef70 .cfa: sp 0 +
STACK CFI 4ef74 .cfa: x29 64 +
STACK CFI 4ef94 .cfa: sp 176 +
STACK CFI 4efa8 .cfa: sp 0 +
STACK CFI 4efac .cfa: x29 64 +
STACK CFI 4efc4 .cfa: sp 176 +
STACK CFI 4efd8 .cfa: sp 0 +
STACK CFI 4efdc .cfa: x29 64 +
STACK CFI 4eff0 .cfa: sp 176 +
STACK CFI 4f004 .cfa: sp 0 +
STACK CFI 4f008 .cfa: x29 64 +
STACK CFI 4f01c .cfa: sp 176 +
STACK CFI 4f030 .cfa: sp 0 +
STACK CFI 4f034 .cfa: x29 64 +
STACK CFI 4f044 .cfa: sp 176 +
STACK CFI 4f058 .cfa: sp 0 +
STACK CFI 4f05c .cfa: x29 64 +
STACK CFI 4f06c .cfa: sp 176 +
STACK CFI 4f080 .cfa: sp 0 +
STACK CFI 4f084 .cfa: x29 64 +
STACK CFI 4f09c .cfa: sp 176 +
STACK CFI 4f0b0 .cfa: sp 0 +
STACK CFI 4f0b4 .cfa: x29 64 +
STACK CFI 4f0c8 .cfa: sp 176 +
STACK CFI 4f0dc .cfa: sp 0 +
STACK CFI 4f0e0 .cfa: x29 64 +
STACK CFI 4f0f8 .cfa: sp 176 +
STACK CFI 4f10c .cfa: sp 0 +
STACK CFI 4f110 .cfa: x29 64 +
STACK CFI 4f13c .cfa: sp 176 +
STACK CFI 4f150 .cfa: sp 0 +
STACK CFI 4f154 .cfa: x29 64 +
STACK CFI 4f168 .cfa: sp 176 +
STACK CFI 4f17c .cfa: sp 0 +
STACK CFI 4f180 .cfa: x29 64 +
STACK CFI INIT 4f1a0 228 .cfa: sp 0 +
STACK CFI INIT 4f3c8 2dc .cfa: sp 0 +
STACK CFI INIT 4f6a4 53c .cfa: sp 0 +
STACK CFI INIT 4fcf8 8c .cfa: sp 0 +
STACK CFI 4fcfc .cfa: sp 32 +
STACK CFI 4fd04 .cfa: x29 32 + x19: .cfa -16 + ^ .ra: .cfa -24 + ^ x29: .cfa -32 + ^
STACK CFI 4fd38 .cfa: sp 32 +
STACK CFI 4fd40 .cfa: sp 0 +
STACK CFI 4fd44 .cfa: x29 32 +
STACK CFI 4fd78 .cfa: sp 32 +
STACK CFI 4fd80 .cfa: sp 0 +
STACK CFI INIT 4fd84 68 .cfa: sp 0 +
STACK CFI 4fd88 .cfa: sp 64 +
STACK CFI 4fd94 .cfa: x29 32 + x19: .cfa -16 + ^ .ra: .cfa -24 + ^ x29: .cfa -32 + ^
STACK CFI 4fdd8 .cfa: sp 64 +
STACK CFI 4fde4 .cfa: sp 0 +
STACK CFI 4fde8 .cfa: x29 32 +
STACK CFI INIT 4fdec 90 .cfa: sp 0 +
STACK CFI 4fdf0 .cfa: sp 32 +
STACK CFI 4fdf8 .cfa: x29 32 + x19: .cfa -8 + ^ x20: .cfa -16 + ^ .ra: .cfa -24 + ^ x29: .cfa -32 + ^
STACK CFI 4fe24 .cfa: sp 32 +
STACK CFI 4fe2c .cfa: sp 0 +
STACK CFI 4fe30 .cfa: x29 32 +
STACK CFI 4fe70 .cfa: sp 32 +
STACK CFI 4fe78 .cfa: sp 0 +
STACK CFI INIT 4fe7c ec .cfa: sp 0 +
STACK CFI 4fe80 .cfa: sp 112 +
STACK CFI 4fe90 .cfa: x29 48 + x19: .cfa -8 + ^ x20: .cfa -16 + ^ x21: .cfa -32 + ^ .ra: .cfa -40 + ^ x29: .cfa -48 + ^
STACK CFI 4ff50 .cfa: sp 112 +
STACK CFI 4ff60 .cfa: sp 0 +
STACK CFI 4ff64 .cfa: x29 48 +
STACK CFI INIT 4ff68 ec .cfa: sp 0 +
STACK CFI 4ff6c .cfa: sp 112 +
STACK CFI 4ff7c .cfa: x29 48 + x19: .cfa -8 + ^ x20: .cfa -16 + ^ x21: .cfa -32 + ^ .ra: .cfa -40 + ^ x29: .cfa -48 + ^
STACK CFI 5003c .cfa: sp 112 +
STACK CFI 5004c .cfa: sp 0 +
STACK CFI 50050 .cfa: x29 48 +
STACK CFI INIT 50054 48 .cfa: sp 0 +
STACK CFI 50058 .cfa: sp 32 +
STACK CFI 50060 .cfa: x29 32 + x19: .cfa -8 + ^ x20: .cfa -16 + ^ .ra: .cfa -24 + ^ x29: .cfa -32 + ^
STACK CFI 50084 .cfa: sp 32 +
STACK CFI 5008c .cfa: sp 0 +
STACK CFI 50090 .cfa: x29 32 +
STACK CFI INIT 5009c 98 .cfa: sp 0 +
STACK CFI 500a0 .cfa: sp 80 +
STACK CFI 500ac .cfa: x29 32 + x19: .cfa -16 + ^ .ra: .cfa -24 + ^ x29: .cfa -32 + ^
STACK CFI 50120 .cfa: sp 80 +
STACK CFI 5012c .cfa: sp 0 +
STACK CFI 50130 .cfa: x29 32 +
STACK CFI INIT 50134 25c .cfa: sp 0 +
STACK CFI 50138 .cfa: sp 112 +
STACK CFI 50150 .cfa: x29 80 + x19: .cfa -8 + ^ x20: .cfa -16 + ^ x21: .cfa -24 + ^ x22: .cfa -32 + ^ x23: .cfa -40 + ^ x24: .cfa -48 + ^ x25: .cfa -64 + ^ .ra: .cfa -72 + ^ x29: .cfa -80 + ^
STACK CFI 50330 .cfa: sp 112 +
STACK CFI 50348 .cfa: sp 0 +
STACK CFI 5034c .cfa: x29 80 +
STACK CFI INIT 50390 280 .cfa: sp 0 +
STACK CFI 50394 .cfa: sp 112 +
STACK CFI 503ac .cfa: x29 80 + x19: .cfa -8 + ^ x20: .cfa -16 + ^ x21: .cfa -24 + ^ x22: .cfa -32 + ^ x23: .cfa -40 + ^ x24: .cfa -48 + ^ x25: .cfa -64 + ^ .ra: .cfa -72 + ^ x29: .cfa -80 + ^
STACK CFI 505b0 .cfa: sp 112 +
STACK CFI 505c8 .cfa: sp 0 +
STACK CFI 505cc .cfa: x29 80 +
STACK CFI INIT 50610 204 .cfa: sp 0 +
STACK CFI 50614 .cfa: sp 96 +
STACK CFI 50628 .cfa: x29 64 + x19: .cfa -8 + ^ x20: .cfa -16 + ^ x21: .cfa -24 + ^ x22: .cfa -32 + ^ x23: .cfa -40 + ^ x24: .cfa -48 + ^ .ra: .cfa -56 + ^ x29: .cfa -64 + ^
STACK CFI 507cc .cfa: sp 96 +
STACK CFI 507e0 .cfa: sp 0 +
STACK CFI 507e4 .cfa: x29 64 +
STACK CFI INIT 50814 35c .cfa: sp 0 +
STACK CFI 50818 .cfa: sp 160 +
STACK CFI 50834 .cfa: x29 96 + x19: .cfa -8 + ^ x20: .cfa -16 + ^ x21: .cfa -24 + ^ x22: .cfa -32 + ^ x23: .cfa -40 + ^ x24: .cfa -48 + ^ x25: .cfa -56 + ^ x26: .cfa -64 + ^ x27: .cfa -72 + ^ x28: .cfa -80 + ^ .ra: .cfa -88 + ^ x29: .cfa -96 + ^
STACK CFI 50afc .cfa: sp 160 +
STACK CFI 50b18 .cfa: sp 0 +
STACK CFI 50b1c .cfa: x29 96 +
STACK CFI INIT 50b70 310 .cfa: sp 0 +
STACK CFI 50b74 .cfa: sp 144 +
STACK CFI 50b90 .cfa: x29 96 + x19: .cfa -8 + ^ x20: .cfa -16 + ^ x21: .cfa -24 + ^ x22: .cfa -32 + ^ x23: .cfa -40 + ^ x24: .cfa -48 + ^ x25: .cfa -56 + ^ x26: .cfa -64 + ^ x27: .cfa -72 + ^ x28: .cfa -80 + ^ .ra: .cfa -88 + ^ x29: .cfa -96 + ^
STACK CFI 50e08 .cfa: sp 144 +
STACK CFI 50e24 .cfa: sp 0 +
STACK CFI 50e28 .cfa: x29 96 +
STACK CFI INIT 50e80 2b4 .cfa: sp 0 +
STACK CFI 50e84 .cfa: sp 128 +
STACK CFI 50e9c .cfa: x29 80 + x19: .cfa -8 + ^ x20: .cfa -16 + ^ x21: .cfa -24 + ^ x22: .cfa -32 + ^ x23: .cfa -40 + ^ x24: .cfa -48 + ^ x25: .cfa -56 + ^ x26: .cfa -64 + ^ .ra: .cfa -72 + ^ x29: .cfa -80 + ^
STACK CFI 51090 .cfa: sp 128 +
STACK CFI 510a8 .cfa: sp 0 +
STACK CFI 510ac .cfa: x29 80 +
STACK CFI 51114 .cfa: sp 128 +
STACK CFI 5112c .cfa: sp 0 +
STACK CFI 51130 .cfa: x29 80 +
STACK CFI INIT 51134 e08 .cfa: sp 0 +
STACK CFI 51138 .cfa: sp 144 +
STACK CFI 51154 .cfa: x29 96 + x19: .cfa -8 + ^ x20: .cfa -16 + ^ x21: .cfa -24 + ^ x22: .cfa -32 + ^ x23: .cfa -40 + ^ x24: .cfa -48 + ^ x25: .cfa -56 + ^ x26: .cfa -64 + ^ x27: .cfa -72 + ^ x28: .cfa -80 + ^ .ra: .cfa -88 + ^ x29: .cfa -96 + ^
STACK CFI 51f18 .cfa: sp 144 +
STACK CFI 51f34 .cfa: sp 0 +
STACK CFI 51f38 .cfa: x29 96 +
STACK CFI INIT 51f3c 260 .cfa: sp 0 +
STACK CFI 51f40 .cfa: sp 112 +
STACK CFI 51f54 .cfa: x29 64 + x19: .cfa -8 + ^ x20: .cfa -16 + ^ x21: .cfa -24 + ^ x22: .cfa -32 + ^ x23: .cfa -40 + ^ x24: .cfa -48 + ^ .ra: .cfa -56 + ^ x29: .cfa -64 + ^
STACK CFI 520d0 .cfa: sp 112 +
STACK CFI 520e4 .cfa: sp 0 +
STACK CFI 520e8 .cfa: x29 64 +
STACK CFI 52154 .cfa: sp 112 +
STACK CFI 52168 .cfa: sp 0 +
STACK CFI 5216c .cfa: x29 64 +
STACK CFI INIT 5219c 30c .cfa: sp 0 +
STACK CFI 521a0 .cfa: sp 80 +
STACK CFI 521b4 .cfa: x29 64 + x19: .cfa -8 + ^ x20: .cfa -16 + ^ x21: .cfa -24 + ^ x22: .cfa -32 + ^ x23: .cfa -40 + ^ x24: .cfa -48 + ^ .ra: .cfa -56 + ^ x29: .cfa -64 + ^
STACK CFI 52330 .cfa: sp 80 +
STACK CFI 52344 .cfa: sp 0 +
STACK CFI 52348 .cfa: x29 64 +
STACK CFI INIT 524a8 178 .cfa: sp 0 +
STACK CFI 524ac .cfa: sp 80 +
STACK CFI 524c0 .cfa: x29 64 + x19: .cfa -8 + ^ x20: .cfa -16 + ^ x21: .cfa -24 + ^ x22: .cfa -32 + ^ x23: .cfa -40 + ^ x24: .cfa -48 + ^ .ra: .cfa -56 + ^ x29: .cfa -64 + ^
STACK CFI 52604 .cfa: sp 80 +
STACK CFI 52618 .cfa: sp 0 +
STACK CFI 5261c .cfa: x29 64 +
STACK CFI INIT 52620 178 .cfa: sp 0 +
STACK CFI 52624 .cfa: sp 80 +
STACK CFI 52638 .cfa: x29 64 + x19: .cfa -8 + ^ x20: .cfa -16 + ^ x21: .cfa -24 + ^ x22: .cfa -32 + ^ x23: .cfa -40 + ^ x24: .cfa -48 + ^ .ra: .cfa -56 + ^ x29: .cfa -64 + ^
STACK CFI 5277c .cfa: sp 80 +
STACK CFI 52790 .cfa: sp 0 +
STACK CFI 52794 .cfa: x29 64 +
STACK CFI INIT 5343c 154 .cfa: sp 0 +
STACK CFI 53440 .cfa: sp 96 +
STACK CFI 53454 .cfa: x29 64 + x19: .cfa -8 + ^ x20: .cfa -16 + ^ x21: .cfa -24 + ^ x22: .cfa -32 + ^ x23: .cfa -48 + ^ .ra: .cfa -56 + ^ x29: .cfa -64 + ^
STACK CFI 53534 .cfa: sp 96 +
STACK CFI 53548 .cfa: sp 0 +
STACK CFI 5354c .cfa: x29 64 +
STACK CFI INIT 53590 17c .cfa: sp 0 +
STACK CFI INIT 543dc 158 .cfa: sp 0 +
STACK CFI 543e0 .cfa: sp 96 +
STACK CFI 543f4 .cfa: x29 64 + x19: .cfa -8 + ^ x20: .cfa -16 + ^ x21: .cfa -24 + ^ x22: .cfa -32 + ^ x23: .cfa -48 + ^ .ra: .cfa -56 + ^ x29: .cfa -64 + ^
STACK CFI 544d8 .cfa: sp 96 +
STACK CFI 544ec .cfa: sp 0 +
STACK CFI 544f0 .cfa: x29 64 +
STACK CFI INIT 54534 190 .cfa: sp 0 +
STACK CFI INIT 5519c 218 .cfa: sp 0 +
STACK CFI 551a0 .cfa: sp 128 +
STACK CFI 551bc .cfa: x29 96 + x19: .cfa -8 + ^ x20: .cfa -16 + ^ x21: .cfa -24 + ^ x22: .cfa -32 + ^ x23: .cfa -40 + ^ x24: .cfa -48 + ^ x25: .cfa -56 + ^ x26: .cfa -64 + ^ x27: .cfa -80 + ^ .ra: .cfa -88 + ^ x29: .cfa -96 + ^
STACK CFI 55338 .cfa: sp 128 +
STACK CFI 55354 .cfa: sp 0 +
STACK CFI 55358 .cfa: x29 96 +
STACK CFI INIT 56574 e74 .cfa: sp 0 +
STACK CFI 56578 .cfa: sp 192 +
STACK CFI 56594 .cfa: x29 96 + x19: .cfa -8 + ^ x20: .cfa -16 + ^ x21: .cfa -24 + ^ x22: .cfa -32 + ^ x23: .cfa -40 + ^ x24: .cfa -48 + ^ x25: .cfa -56 + ^ x26: .cfa -64 + ^ x27: .cfa -72 + ^ x28: .cfa -80 + ^ .ra: .cfa -88 + ^ x29: .cfa -96 + ^
STACK CFI 572d0 .cfa: sp 192 +
STACK CFI 572ec .cfa: sp 0 +
STACK CFI 572f0 .cfa: x29 96 +
STACK CFI INIT 573e8 1048 .cfa: sp 0 +
STACK CFI 573ec .cfa: sp 288 +
STACK CFI 57408 .cfa: x29 96 + x19: .cfa -8 + ^ x20: .cfa -16 + ^ x21: .cfa -24 + ^ x22: .cfa -32 + ^ x23: .cfa -40 + ^ x24: .cfa -48 + ^ x25: .cfa -56 + ^ x26: .cfa -64 + ^ x27: .cfa -72 + ^ x28: .cfa -80 + ^ .ra: .cfa -88 + ^ x29: .cfa -96 + ^
STACK CFI 5840c .cfa: sp 288 +
STACK CFI 58428 .cfa: sp 0 +
STACK CFI 5842c .cfa: x29 96 +
STACK CFI INIT 58430 136c .cfa: sp 0 +
STACK CFI 58434 .cfa: sp 224 +
STACK CFI 58450 .cfa: x29 96 + x19: .cfa -8 + ^ x20: .cfa -16 + ^ x21: .cfa -24 + ^ x22: .cfa -32 + ^ x23: .cfa -40 + ^ x24: .cfa -48 + ^ x25: .cfa -56 + ^ x26: .cfa -64 + ^ x27: .cfa -72 + ^ x28: .cfa -80 + ^ .ra: .cfa -88 + ^ x29: .cfa -96 + ^
STACK CFI 59778 .cfa: sp 224 +
STACK CFI 59794 .cfa: sp 0 +
STACK CFI 59798 .cfa: x29 96 +
STACK CFI INIT 5979c 1b8 .cfa: sp 0 +
STACK CFI INIT 24690 43c .cfa: sp 0 +
STACK CFI 24694 .cfa: sp 224 +
STACK CFI 246ac x19: .cfa -8 + ^ x20: .cfa -16 + ^ x21: .cfa -24 + ^ x22: .cfa -32 + ^ x23: .cfa -40 + ^ x24: .cfa -48 + ^ x25: .cfa -56 + ^ x26: .cfa -64 + ^ x27: .cfa -72 + ^ x28: .cfa -80 + ^ .ra: .cfa -88 + ^ x29: .cfa -96 + ^
STACK CFI 249e0 .cfa: sp 0 +
STACK CFI 249e4 .cfa: sp 224 +
STACK CFI INIT 24acc 43c .cfa: sp 0 +
STACK CFI 24ad0 .cfa: sp 224 +
STACK CFI 24ae8 x19: .cfa -8 + ^ x20: .cfa -16 + ^ x21: .cfa -24 + ^ x22: .cfa -32 + ^ x23: .cfa -40 + ^ x24: .cfa -48 + ^ x25: .cfa -56 + ^ x26: .cfa -64 + ^ x27: .cfa -72 + ^ x28: .cfa -80 + ^ .ra: .cfa -88 + ^ x29: .cfa -96 + ^
STACK CFI 24e1c .cfa: sp 0 +
STACK CFI 24e20 .cfa: sp 224 +
STACK CFI INIT 24f44 34c .cfa: sp 0 +
STACK CFI 24f48 .cfa: sp 192 +
STACK CFI 24f54 x19: .cfa -8 + ^ x20: .cfa -16 + ^ x21: .cfa -24 + ^ x22: .cfa -32 + ^ x23: .cfa -40 + ^ .ra: .cfa -48 + ^
STACK CFI 25180 .cfa: sp 0 +
STACK CFI 25184 .cfa: sp 192 +
STACK CFI INIT 252d0 70 .cfa: sp 0 +
STACK CFI 252d4 .cfa: sp 48 +
STACK CFI 252dc x19: .cfa -8 + ^ x20: .cfa -16 + ^ .ra: .cfa -32 + ^
STACK CFI 25334 .cfa: sp 0 +
STACK CFI 25338 .cfa: sp 48 +
STACK CFI INIT 253b0 150 .cfa: sp 0 +
STACK CFI 253b4 .cfa: sp 384 +
STACK CFI 253c4 x19: .cfa -8 + ^ x20: .cfa -16 + ^ x21: .cfa -24 + ^ x22: .cfa -32 + ^ x23: .cfa -40 + ^ .ra: .cfa -48 + ^ x29: .cfa -64 + ^
STACK CFI 254bc .cfa: sp 0 +
STACK CFI 254c0 .cfa: sp 384 +
STACK CFI INIT 25530 128 .cfa: sp 0 +
STACK CFI 25534 .cfa: sp 80 +
STACK CFI 25544 x19: .cfa -8 + ^ x20: .cfa -16 + ^ x21: .cfa -24 + ^ x22: .cfa -32 + ^ x23: .cfa -40 + ^ x24: .cfa -48 + ^ x25: .cfa -56 + ^ x26: .cfa -64 + ^ .ra: .cfa -80 + ^
STACK CFI 25620 .cfa: sp 0 +
STACK CFI 25624 .cfa: sp 80 +
STACK CFI INIT 256e4 1a0 .cfa: sp 0 +
STACK CFI 256e8 .cfa: sp 112 +
STACK CFI 256fc x19: .cfa -8 + ^ x20: .cfa -16 + ^ x21: .cfa -24 + ^ x22: .cfa -32 + ^ x23: .cfa -40 + ^ x24: .cfa -48 + ^ x25: .cfa -56 + ^ x26: .cfa -64 + ^ .ra: .cfa -80 + ^
STACK CFI 25804 .cfa: sp 0 +
STACK CFI 25808 .cfa: sp 112 +
STACK CFI INIT 25884 1d0 .cfa: sp 0 +
STACK CFI 25888 .cfa: sp 112 +
STACK CFI 2589c x19: .cfa -8 + ^ x20: .cfa -16 + ^ x21: .cfa -24 + ^ x22: .cfa -32 + ^ x23: .cfa -40 + ^ x24: .cfa -48 + ^ x25: .cfa -56 + ^ x26: .cfa -64 + ^ x27: .cfa -72 + ^ .ra: .cfa -80 + ^
STACK CFI 25a20 .cfa: sp 0 +
STACK CFI 25a24 .cfa: sp 112 +
STACK CFI INIT 25a64 4c .cfa: sp 0 +
STACK CFI 25a68 .cfa: sp 32 +
STACK CFI 25a6c x19: .cfa -8 + ^ x20: .cfa -16 + ^ .ra: .cfa -32 + ^
STACK CFI INIT 25b00 16c .cfa: sp 0 +
STACK CFI 25b04 .cfa: sp 64 +
STACK CFI 25b10 x19: .cfa -8 + ^ x20: .cfa -16 + ^ x21: .cfa -24 + ^ x22: .cfa -32 + ^ x23: .cfa -40 + ^ x24: .cfa -48 + ^ x25: .cfa -56 + ^ .ra: .cfa -64 + ^
STACK CFI 25c4c .cfa: sp 0 +
STACK CFI 25c50 .cfa: sp 64 +
STACK CFI INIT 25da8 218 .cfa: sp 0 +
STACK CFI 25dac .cfa: sp 112 +
STACK CFI 25dbc x19: .cfa -8 + ^ x20: .cfa -16 + ^ x21: .cfa -24 + ^ x22: .cfa -32 + ^ x23: .cfa -40 + ^ x24: .cfa -48 + ^ x25: .cfa -56 + ^ .ra: .cfa -64 + ^
STACK CFI 25f6c .cfa: sp 0 +
STACK CFI 25f70 .cfa: sp 112 +
STACK CFI INIT 266ec 3e0 .cfa: sp 0 +
STACK CFI 266f0 .cfa: sp 192 +
STACK CFI 26700 x19: .cfa -8 + ^ x20: .cfa -16 + ^ x21: .cfa -24 + ^ x22: .cfa -32 + ^ .ra: .cfa -40 + ^ v8: .cfa -48 + ^
STACK CFI 26a18 .cfa: sp 0 +
STACK CFI 26a1c .cfa: sp 192 +
STACK CFI INIT 26b60 2a0 .cfa: sp 0 +
STACK CFI 26b64 .cfa: sp 160 +
STACK CFI 26b70 x19: .cfa -8 + ^ x20: .cfa -16 + ^ x21: .cfa -24 + ^ x22: .cfa -32 + ^ .ra: .cfa -48 + ^
STACK CFI 26d6c .cfa: sp 0 +
STACK CFI 26d70 .cfa: sp 160 +
STACK CFI INIT 26e00 290 .cfa: sp 0 +
STACK CFI 26e04 .cfa: sp 144 +
STACK CFI 26e10 x19: .cfa -8 + ^ x20: .cfa -16 + ^ x21: .cfa -24 + ^ x22: .cfa -32 + ^ .ra: .cfa -48 + ^
STACK CFI 27060 .cfa: sp 0 +
STACK CFI 27064 .cfa: sp 144 +
STACK CFI INIT 27240 90 .cfa: sp 0 +
STACK CFI 27244 .cfa: sp 32 +
STACK CFI 27248 x19: .cfa -8 + ^ x20: .cfa -16 + ^ .ra: .cfa -32 + ^
STACK CFI 27298 .cfa: sp 0 +
STACK CFI 2729c .cfa: sp 32 +
STACK CFI 272b8 .cfa: sp 0 +
STACK CFI 272bc .cfa: sp 32 +
STACK CFI INIT 27490 108 .cfa: sp 0 +
STACK CFI 27494 .cfa: sp 64 +
STACK CFI 2749c x19: .cfa -8 + ^ x20: .cfa -16 + ^ x21: .cfa -24 + ^ .ra: .cfa -32 + ^
STACK CFI 2754c .cfa: sp 0 +
STACK CFI 27550 .cfa: sp 64 +
STACK CFI INIT 275c0 10e4 .cfa: sp 0 +
STACK CFI 275c4 .cfa: sp 448 +
STACK CFI 275d8 x19: .cfa -8 + ^ x20: .cfa -16 + ^ x21: .cfa -24 + ^ x22: .cfa -32 + ^ x23: .cfa -40 + ^ .ra: .cfa -48 + ^ x29: .cfa -56 + ^ v8: .cfa -64 + ^
STACK CFI 28298 .cfa: sp 0 +
STACK CFI 2829c .cfa: sp 448 +
STACK CFI INIT 286a4 138 .cfa: sp 0 +
STACK CFI 286a8 .cfa: sp 64 +
STACK CFI 286b0 x19: .cfa -8 + ^ x20: .cfa -16 + ^ x21: .cfa -24 + ^ .ra: .cfa -32 + ^
STACK CFI 287a8 .cfa: sp 0 +
STACK CFI 287ac .cfa: sp 64 +
STACK CFI INIT 288a4 10c .cfa: sp 0 +
STACK CFI 288a8 .cfa: sp 96 +
STACK CFI 288b4 x19: .cfa -8 + ^ x20: .cfa -16 + ^ x21: .cfa -24 + ^ x22: .cfa -32 + ^ x23: .cfa -40 + ^ .ra: .cfa -48 + ^
STACK CFI 28948 .cfa: sp 0 +
STACK CFI 2894c .cfa: sp 96 +
STACK CFI INIT 289b0 2a0 .cfa: sp 0 +
STACK CFI 289b4 .cfa: sp 160 +
STACK CFI 289c0 x19: .cfa -8 + ^ x20: .cfa -16 + ^ x21: .cfa -24 + ^ x22: .cfa -32 + ^ .ra: .cfa -48 + ^
STACK CFI 28bbc .cfa: sp 0 +
STACK CFI 28bc0 .cfa: sp 160 +
STACK CFI INIT 28ee0 3c .cfa: sp 0 +
STACK CFI 28ee4 .cfa: sp 16 + x19: .cfa -8 + ^ .ra: .cfa -16 + ^
STACK CFI 28f14 .cfa: sp 0 +
STACK CFI 28f18 .cfa: sp 16 +
STACK CFI INIT 28f1c ec .cfa: sp 0 +
STACK CFI 28f20 .cfa: sp 80 +
STACK CFI 28f28 x19: .cfa -8 + ^ x20: .cfa -16 + ^ x21: .cfa -24 + ^ .ra: .cfa -32 + ^
STACK CFI 28f7c .cfa: sp 0 +
STACK CFI 28f80 .cfa: sp 80 +
STACK CFI INIT 29050 ec .cfa: sp 0 +
STACK CFI 29054 .cfa: sp 64 +
STACK CFI 29060 x19: .cfa -8 + ^ x20: .cfa -16 + ^ x21: .cfa -24 + ^ x22: .cfa -32 + ^ .ra: .cfa -48 + ^
STACK CFI 290f8 .cfa: sp 0 +
STACK CFI 290fc .cfa: sp 64 +
STACK CFI INIT 2913c 58 .cfa: sp 0 +
STACK CFI 29140 .cfa: sp 32 +
STACK CFI 29144 x19: .cfa -8 + ^ x20: .cfa -16 + ^ .ra: .cfa -32 + ^
STACK CFI INIT 29194 144 .cfa: sp 0 +
STACK CFI 29198 .cfa: sp 128 +
STACK CFI 291a4 x19: .cfa -8 + ^ x20: .cfa -16 + ^ x21: .cfa -24 + ^ x22: .cfa -32 + ^ .ra: .cfa -48 + ^
STACK CFI 29230 .cfa: sp 0 +
STACK CFI 29234 .cfa: sp 128 +
STACK CFI INIT 293f4 c0 .cfa: sp 0 +
STACK CFI 293f8 .cfa: sp 48 +
STACK CFI 29400 x19: .cfa -8 + ^ x20: .cfa -16 + ^ x21: .cfa -24 + ^ .ra: .cfa -32 + ^
STACK CFI 29488 .cfa: sp 0 +
STACK CFI 2948c .cfa: sp 48 +
STACK CFI INIT 29684 3e4 .cfa: sp 0 +
STACK CFI 29688 .cfa: sp 80 +
STACK CFI 29698 x19: .cfa -8 + ^ x20: .cfa -16 + ^ x21: .cfa -24 + ^ x22: .cfa -32 + ^ x23: .cfa -40 + ^ x24: .cfa -48 + ^ x25: .cfa -56 + ^ x26: .cfa -64 + ^ .ra: .cfa -72 + ^ x29: .cfa -80 + ^
STACK CFI 2969c .cfa: sp 688 +
STACK CFI 299b0 .cfa: sp 80 +
STACK CFI 299c4 .cfa: sp 0 +
STACK CFI 299c8 .cfa: sp 688 +
STACK CFI INIT 29a90 274 .cfa: sp 0 +
STACK CFI 29a94 .cfa: sp 176 +
STACK CFI 29aa8 x19: .cfa -8 + ^ x20: .cfa -16 + ^ x21: .cfa -24 + ^ x22: .cfa -32 + ^ x23: .cfa -40 + ^ x24: .cfa -48 + ^ .ra: .cfa -56 + ^ v8: .cfa -64 + ^
STACK CFI 29c68 .cfa: sp 0 +
STACK CFI 29c6c .cfa: sp 176 +
STACK CFI INIT 2a8b4 380 .cfa: sp 0 +
STACK CFI 2a8b8 .cfa: sp 96 +
STACK CFI 2a8cc x19: .cfa -8 + ^ x20: .cfa -16 + ^ x21: .cfa -24 + ^ x22: .cfa -32 + ^ x23: .cfa -40 + ^ x24: .cfa -48 + ^ x25: .cfa -56 + ^ x26: .cfa -64 + ^ .ra: .cfa -72 + ^ x29: .cfa -80 + ^ v8: .cfa -96 + ^
STACK CFI 2a8d0 .cfa: sp 672 +
STACK CFI 2abc0 .cfa: sp 96 +
STACK CFI 2abd8 .cfa: sp 0 +
STACK CFI 2abdc .cfa: sp 672 +
STACK CFI INIT 2b150 7f4 .cfa: sp 0 +
STACK CFI 2b154 .cfa: sp 128 +
STACK CFI 2b164 x19: .cfa -8 + ^ x20: .cfa -16 + ^ x21: .cfa -24 + ^ x22: .cfa -32 + ^ x23: .cfa -40 + ^ x24: .cfa -48 + ^ .ra: .cfa -64 + ^
STACK CFI 2b8b4 .cfa: sp 0 +
STACK CFI 2b8b8 .cfa: sp 128 +
STACK CFI INIT 2c4e8 141c .cfa: sp 0 +
STACK CFI 2c4ec .cfa: sp 96 +
STACK CFI 2c500 x19: .cfa -8 + ^ x20: .cfa -16 + ^ x21: .cfa -24 + ^ x22: .cfa -32 + ^ x23: .cfa -40 + ^ x24: .cfa -48 + ^ x25: .cfa -56 + ^ x26: .cfa -64 + ^ x27: .cfa -72 + ^ x28: .cfa -80 + ^ .ra: .cfa -88 + ^ x29: .cfa -96 + ^
STACK CFI 2c504 .cfa: sp 848 +
STACK CFI 2d78c .cfa: sp 96 +
STACK CFI 2d7a4 .cfa: sp 0 +
STACK CFI 2d7a8 .cfa: sp 848 +
STACK CFI INIT 2dfa4 5a0 .cfa: sp 0 +
STACK CFI 2dfa8 .cfa: sp 304 +
STACK CFI 2dfc0 x19: .cfa -8 + ^ x20: .cfa -16 + ^ x21: .cfa -24 + ^ x22: .cfa -32 + ^ x23: .cfa -40 + ^ x24: .cfa -48 + ^ x25: .cfa -56 + ^ x26: .cfa -64 + ^ x27: .cfa -72 + ^ x28: .cfa -80 + ^ .ra: .cfa -88 + ^ x29: .cfa -96 + ^
STACK CFI 2e4e4 .cfa: sp 0 +
STACK CFI 2e4e8 .cfa: sp 304 +
STACK CFI INIT 2e544 6c8 .cfa: sp 0 +
STACK CFI 2e548 .cfa: sp 288 +
STACK CFI 2e560 x19: .cfa -8 + ^ x20: .cfa -16 + ^ x21: .cfa -24 + ^ x22: .cfa -32 + ^ x23: .cfa -40 + ^ x24: .cfa -48 + ^ x25: .cfa -56 + ^ x26: .cfa -64 + ^ x27: .cfa -72 + ^ x28: .cfa -80 + ^ .ra: .cfa -88 + ^ x29: .cfa -96 + ^
STACK CFI 2eac8 .cfa: sp 0 +
STACK CFI 2eacc .cfa: sp 288 +
STACK CFI INIT 2ed68 1ac .cfa: sp 0 +
STACK CFI 2ed6c .cfa: sp 112 +
STACK CFI 2ed74 x19: .cfa -8 + ^ x20: .cfa -16 + ^ x21: .cfa -24 + ^ .ra: .cfa -32 + ^
STACK CFI 2ee8c .cfa: sp 0 +
STACK CFI 2ee90 .cfa: sp 112 +
STACK CFI INIT 2f390 3dc .cfa: sp 0 +
STACK CFI 2f394 .cfa: sp 80 +
STACK CFI 2f3a4 x19: .cfa -8 + ^ x20: .cfa -16 + ^ x21: .cfa -24 + ^ x22: .cfa -32 + ^ x23: .cfa -40 + ^ x24: .cfa -48 + ^ x25: .cfa -56 + ^ x26: .cfa -64 + ^ .ra: .cfa -72 + ^ x29: .cfa -80 + ^
STACK CFI 2f3a8 .cfa: sp 624 +
STACK CFI 2f71c .cfa: sp 80 +
STACK CFI 2f730 .cfa: sp 0 +
STACK CFI 2f734 .cfa: sp 624 +
STACK CFI INIT 2f76c 3ac .cfa: sp 0 +
STACK CFI 2f770 .cfa: sp 96 +
STACK CFI 2f784 x19: .cfa -8 + ^ x20: .cfa -16 + ^ x21: .cfa -24 + ^ x22: .cfa -32 + ^ x23: .cfa -40 + ^ x24: .cfa -48 + ^ x25: .cfa -56 + ^ x26: .cfa -64 + ^ x27: .cfa -72 + ^ x28: .cfa -80 + ^ .ra: .cfa -88 + ^ x29: .cfa -96 + ^
STACK CFI 2f788 .cfa: sp 2160 +
STACK CFI 2fab8 .cfa: sp 96 +
STACK CFI 2fad0 .cfa: sp 0 +
STACK CFI 2fad4 .cfa: sp 2160 +
STACK CFI INIT 2fd34 210 .cfa: sp 0 +
STACK CFI 2fd38 .cfa: sp 96 +
STACK CFI 2fd4c x19: .cfa -8 + ^ x20: .cfa -16 + ^ x21: .cfa -24 + ^ x22: .cfa -32 + ^ x23: .cfa -40 + ^ x24: .cfa -48 + ^ x25: .cfa -56 + ^ x26: .cfa -64 + ^ x27: .cfa -72 + ^ x28: .cfa -80 + ^ .ra: .cfa -88 + ^ x29: .cfa -96 + ^
STACK CFI 2fd50 .cfa: sp 640 +
STACK CFI 2fec0 .cfa: sp 96 +
STACK CFI 2fed8 .cfa: sp 0 +
STACK CFI 2fedc .cfa: sp 640 +
STACK CFI 2fef4 .cfa: sp 96 +
STACK CFI 2ff0c .cfa: sp 0 +
STACK CFI 2ff10 .cfa: sp 640 +
STACK CFI INIT 3048c b0 .cfa: sp 0 +
STACK CFI 30490 .cfa: sp 48 +
STACK CFI 30498 x19: .cfa -8 + ^ x20: .cfa -16 + ^ x21: .cfa -24 + ^ x22: .cfa -32 + ^ .ra: .cfa -48 + ^
STACK CFI 30508 .cfa: sp 0 +
STACK CFI 3050c .cfa: sp 48 +
STACK CFI INIT 3053c 98 .cfa: sp 0 +
STACK CFI 30540 .cfa: sp 48 +
STACK CFI 30548 x19: .cfa -8 + ^ x20: .cfa -16 + ^ x21: .cfa -24 + ^ x22: .cfa -32 + ^ .ra: .cfa -48 + ^
STACK CFI 305a8 .cfa: sp 0 +
STACK CFI 305ac .cfa: sp 48 +
STACK CFI INIT 30614 d88 .cfa: sp 0 +
STACK CFI 30618 .cfa: sp 96 +
STACK CFI 3062c x19: .cfa -8 + ^ x20: .cfa -16 + ^ x21: .cfa -24 + ^ x22: .cfa -32 + ^ x23: .cfa -40 + ^ x24: .cfa -48 + ^ x25: .cfa -56 + ^ x26: .cfa -64 + ^ x27: .cfa -72 + ^ x28: .cfa -80 + ^ .ra: .cfa -88 + ^ x29: .cfa -96 + ^
STACK CFI 30630 .cfa: sp 1040 +
STACK CFI 30fb8 .cfa: sp 96 +
STACK CFI 30fd0 .cfa: sp 0 +
STACK CFI 30fd4 .cfa: sp 1040 +
STACK CFI INIT 3163c 460 .cfa: sp 0 +
STACK CFI 31640 .cfa: sp 128 +
STACK CFI 31658 x19: .cfa -8 + ^ x20: .cfa -16 + ^ x21: .cfa -24 + ^ x22: .cfa -32 + ^ x23: .cfa -40 + ^ x24: .cfa -48 + ^ x25: .cfa -56 + ^ x26: .cfa -64 + ^ x27: .cfa -72 + ^ x28: .cfa -80 + ^ .ra: .cfa -96 + ^
STACK CFI 31a68 .cfa: sp 0 +
STACK CFI 31a6c .cfa: sp 128 +
STACK CFI INIT 32258 1a0 .cfa: sp 0 +
STACK CFI 3225c .cfa: sp 128 +
STACK CFI 32268 x19: .cfa -8 + ^ x20: .cfa -16 + ^ x21: .cfa -24 + ^ x22: .cfa -32 + ^ .ra: .cfa -48 + ^
STACK CFI 3238c .cfa: sp 0 +
STACK CFI 32390 .cfa: sp 128 +
STACK CFI INIT 3275c 1c4 .cfa: sp 0 +
STACK CFI 32760 .cfa: sp 112 +
STACK CFI 3276c x19: .cfa -8 + ^ x20: .cfa -16 + ^ x21: .cfa -24 + ^ x22: .cfa -32 + ^ x23: .cfa -40 + ^ .ra: .cfa -48 + ^
STACK CFI 328f4 .cfa: sp 0 +
STACK CFI 328f8 .cfa: sp 112 +
STACK CFI INIT 32bfc 1c0 .cfa: sp 0 +
STACK CFI 32c00 .cfa: sp 112 +
STACK CFI 32c0c x19: .cfa -8 + ^ x20: .cfa -16 + ^ x21: .cfa -24 + ^ x22: .cfa -32 + ^ .ra: .cfa -48 + ^
STACK CFI 32d90 .cfa: sp 0 +
STACK CFI 32d94 .cfa: sp 112 +
STACK CFI INIT 32f24 b8 .cfa: sp 0 +
STACK CFI 32f28 .cfa: sp 48 +
STACK CFI 32f30 x19: .cfa -8 + ^ x20: .cfa -16 + ^ x21: .cfa -24 + ^ x22: .cfa -32 + ^ x23: .cfa -40 + ^ .ra: .cfa -48 + ^
STACK CFI 32fa8 .cfa: sp 0 +
STACK CFI 32fac .cfa: sp 48 +
STACK CFI INIT 32fdc a4 .cfa: sp 0 +
STACK CFI 32fe0 .cfa: sp 48 +
STACK CFI 32fe8 x19: .cfa -8 + ^ x20: .cfa -16 + ^ x21: .cfa -24 + ^ x22: .cfa -32 + ^ x23: .cfa -40 + ^ .ra: .cfa -48 + ^
STACK CFI 33054 .cfa: sp 0 +
STACK CFI 33058 .cfa: sp 48 +
STACK CFI INIT 330c0 164 .cfa: sp 0 +
STACK CFI 330c4 .cfa: sp 112 +
STACK CFI 330cc x19: .cfa -8 + ^ x20: .cfa -16 + ^ x21: .cfa -24 + ^ .ra: .cfa -32 + ^
STACK CFI 331cc .cfa: sp 0 +
STACK CFI 331d0 .cfa: sp 112 +
STACK CFI INIT 33388 90 .cfa: sp 0 +
STACK CFI 3338c .cfa: sp 32 +
STACK CFI 33390 x19: .cfa -8 + ^ x20: .cfa -16 + ^ .ra: .cfa -32 + ^
STACK CFI 333e0 .cfa: sp 0 +
STACK CFI 333e4 .cfa: sp 32 +
STACK CFI 33400 .cfa: sp 0 +
STACK CFI 33404 .cfa: sp 32 +
STACK CFI INIT 33590 110 .cfa: sp 0 +
STACK CFI 33594 .cfa: sp 64 +
STACK CFI 3359c x19: .cfa -8 + ^ x20: .cfa -16 + ^ x21: .cfa -24 + ^ .ra: .cfa -32 + ^
STACK CFI 3361c .cfa: sp 0 +
STACK CFI 33620 .cfa: sp 64 +
STACK CFI 3363c .cfa: sp 0 +
STACK CFI 33640 .cfa: sp 64 +
STACK CFI INIT 33764 90 .cfa: sp 0 +
STACK CFI 33768 .cfa: sp 32 +
STACK CFI 3376c x19: .cfa -8 + ^ x20: .cfa -16 + ^ .ra: .cfa -32 + ^
STACK CFI 337bc .cfa: sp 0 +
STACK CFI 337c0 .cfa: sp 32 +
STACK CFI 337dc .cfa: sp 0 +
STACK CFI 337e0 .cfa: sp 32 +
STACK CFI INIT 33cc8 390 .cfa: sp 0 +
STACK CFI 33ccc .cfa: sp 208 +
STACK CFI 33cd8 x19: .cfa -8 + ^ x20: .cfa -16 + ^ x21: .cfa -24 + ^ x22: .cfa -32 + ^ x23: .cfa -40 + ^ .ra: .cfa -48 + ^
STACK CFI 33f3c .cfa: sp 0 +
STACK CFI 33f40 .cfa: sp 208 +
STACK CFI INIT 3405c 338 .cfa: sp 0 +
STACK CFI 34060 .cfa: sp 160 +
STACK CFI 34070 x19: .cfa -8 + ^ x20: .cfa -16 + ^ x21: .cfa -24 + ^ x22: .cfa -32 + ^ .ra: .cfa -40 + ^ v8: .cfa -48 + ^
STACK CFI 34328 .cfa: sp 0 +
STACK CFI 3432c .cfa: sp 160 +
STACK CFI INIT 343e0 108 .cfa: sp 0 +
STACK CFI 343e4 .cfa: sp 64 +
STACK CFI 343ec x19: .cfa -8 + ^ x20: .cfa -16 + ^ x21: .cfa -24 + ^ .ra: .cfa -32 + ^
STACK CFI 3449c .cfa: sp 0 +
STACK CFI 344a0 .cfa: sp 64 +
STACK CFI INIT 34510 3224 .cfa: sp 0 +
STACK CFI 34514 .cfa: sp 112 +
STACK CFI 3452c x19: .cfa -8 + ^ x20: .cfa -16 + ^ x21: .cfa -24 + ^ x22: .cfa -32 + ^ x23: .cfa -40 + ^ x24: .cfa -48 + ^ x25: .cfa -56 + ^ x26: .cfa -64 + ^ x27: .cfa -72 + ^ x28: .cfa -80 + ^ .ra: .cfa -88 + ^ x29: .cfa -96 + ^ v8: .cfa -104 + ^ v9: .cfa -112 + ^
STACK CFI 34530 .cfa: sp 4208 +
STACK CFI 34534 .cfa: sp 5984 +
STACK CFI 37070 .cfa: sp 1888 +
STACK CFI 37074 .cfa: sp 112 +
STACK CFI 37090 .cfa: sp 0 +
STACK CFI 37094 .cfa: sp 5984 +
STACK CFI INIT 37ba8 144 .cfa: sp 0 +
STACK CFI 37bac .cfa: sp 32 +
STACK CFI 37bb0 x19: .cfa -8 + ^ x20: .cfa -16 + ^ .ra: .cfa -32 + ^
STACK CFI 37ccc .cfa: sp 0 +
STACK CFI 37cd0 .cfa: sp 32 +
STACK CFI INIT 37cec 194 .cfa: sp 0 +
STACK CFI 37cf0 .cfa: sp 48 +
STACK CFI 37cf8 x19: .cfa -8 + ^ x20: .cfa -16 + ^ x21: .cfa -24 + ^ x22: .cfa -32 + ^ .ra: .cfa -48 + ^
STACK CFI 37de0 .cfa: sp 0 +
STACK CFI 37de4 .cfa: sp 48 +
STACK CFI 37e08 .cfa: sp 0 +
STACK CFI 37e0c .cfa: sp 48 +
STACK CFI INIT 37e80 174 .cfa: sp 0 +
STACK CFI 37e84 .cfa: sp 144 +
STACK CFI 37e94 x19: .cfa -8 + ^ x20: .cfa -16 + ^ x21: .cfa -24 + ^ x22: .cfa -32 + ^ x23: .cfa -40 + ^ x24: .cfa -48 + ^ .ra: .cfa -64 + ^
STACK CFI 37f9c .cfa: sp 0 +
STACK CFI 37fa0 .cfa: sp 144 +
STACK CFI INIT 381b0 160 .cfa: sp 0 +
STACK CFI 381b4 .cfa: sp 144 +
STACK CFI 381c8 x19: .cfa -8 + ^ x20: .cfa -16 + ^ x21: .cfa -24 + ^ x22: .cfa -32 + ^ x23: .cfa -40 + ^ x24: .cfa -48 + ^ x25: .cfa -56 + ^ x26: .cfa -64 + ^ x27: .cfa -72 + ^ .ra: .cfa -80 + ^
STACK CFI 382b0 .cfa: sp 0 +
STACK CFI 382b4 .cfa: sp 144 +
STACK CFI INIT 3837c 79c .cfa: sp 0 +
STACK CFI 38380 .cfa: sp 176 +
STACK CFI 38398 x19: .cfa -8 + ^ x20: .cfa -16 + ^ x21: .cfa -24 + ^ x22: .cfa -32 + ^ x23: .cfa -40 + ^ x24: .cfa -48 + ^ x25: .cfa -56 + ^ x26: .cfa -64 + ^ x27: .cfa -72 + ^ x28: .cfa -80 + ^ .ra: .cfa -88 + ^ x29: .cfa -96 + ^
STACK CFI 38a74 .cfa: sp 0 +
STACK CFI 38a78 .cfa: sp 176 +
STACK CFI INIT 38b18 18c .cfa: sp 0 +
STACK CFI 38b1c .cfa: sp 80 +
STACK CFI 38b24 x19: .cfa -8 + ^ x20: .cfa -16 + ^ x21: .cfa -24 + ^ .ra: .cfa -32 + ^
STACK CFI 38c0c .cfa: sp 0 +
STACK CFI 38c10 .cfa: sp 80 +
STACK CFI INIT 38ca4 18c .cfa: sp 0 +
STACK CFI 38ca8 .cfa: sp 80 +
STACK CFI 38cb0 x19: .cfa -8 + ^ x20: .cfa -16 + ^ x21: .cfa -24 + ^ .ra: .cfa -32 + ^
STACK CFI 38d98 .cfa: sp 0 +
STACK CFI 38d9c .cfa: sp 80 +
STACK CFI INIT 39084 358 .cfa: sp 0 +
STACK CFI 39088 .cfa: sp 160 +
STACK CFI 390a0 x19: .cfa -8 + ^ x20: .cfa -16 + ^ x21: .cfa -24 + ^ x22: .cfa -32 + ^ x23: .cfa -40 + ^ x24: .cfa -48 + ^ x25: .cfa -56 + ^ x26: .cfa -64 + ^ x27: .cfa -72 + ^ x28: .cfa -80 + ^ .ra: .cfa -96 + ^
STACK CFI 392e8 .cfa: sp 0 +
STACK CFI 392ec .cfa: sp 160 +
STACK CFI INIT 393dc 18 .cfa: sp 0 +
STACK CFI 393e0 .cfa: sp 16 + .ra: .cfa -16 + ^
STACK CFI 393ec .cfa: sp 0 +
STACK CFI 393f0 .cfa: sp 16 +
STACK CFI INIT 393f4 18 .cfa: sp 0 +
STACK CFI 393f8 .cfa: sp 16 + .ra: .cfa -16 + ^
STACK CFI 39404 .cfa: sp 0 +
STACK CFI 39408 .cfa: sp 16 +
STACK CFI INIT 3940c 4fc .cfa: sp 0 +
STACK CFI 39410 .cfa: sp 128 +
STACK CFI 39424 x19: .cfa -8 + ^ x20: .cfa -16 + ^ x21: .cfa -24 + ^ x22: .cfa -32 + ^ x23: .cfa -40 + ^ x24: .cfa -48 + ^ x25: .cfa -56 + ^ x26: .cfa -64 + ^ .ra: .cfa -80 + ^
STACK CFI 39484 .cfa: sp 0 +
STACK CFI 39488 .cfa: sp 128 +
STACK CFI 3989c .cfa: sp 0 +
STACK CFI 398a0 .cfa: sp 128 +
STACK CFI INIT 39908 54 .cfa: sp 0 +
STACK CFI 3990c .cfa: sp 32 +
STACK CFI 39910 x19: .cfa -8 + ^ x20: .cfa -16 + ^ x21: .cfa -24 + ^ .ra: .cfa -32 + ^
STACK CFI 39948 .cfa: sp 0 +
STACK CFI 3994c .cfa: sp 32 +
STACK CFI 39954 .cfa: sp 0 +
STACK CFI 39958 .cfa: sp 32 +
STACK CFI INIT 3996c 54 .cfa: sp 0 +
STACK CFI 39970 .cfa: sp 32 +
STACK CFI 39974 x19: .cfa -8 + ^ x20: .cfa -16 + ^ .ra: .cfa -32 + ^
STACK CFI 399ac .cfa: sp 0 +
STACK CFI 399b0 .cfa: sp 32 +
STACK CFI 399b8 .cfa: sp 0 +
STACK CFI 399bc .cfa: sp 32 +
STACK CFI INIT 399c0 110 .cfa: sp 0 +
STACK CFI 399c4 .cfa: sp 48 +
STACK CFI 399cc x19: .cfa -8 + ^ x20: .cfa -16 + ^ x21: .cfa -24 + ^ x22: .cfa -32 + ^ x23: .cfa -40 + ^ .ra: .cfa -48 + ^
STACK CFI 39ac0 .cfa: sp 0 +
STACK CFI 39ac4 .cfa: sp 48 +
STACK CFI INIT 39ad0 50 .cfa: sp 0 +
STACK CFI 39ad4 .cfa: sp 16 + x19: .cfa -8 + ^ .ra: .cfa -16 + ^
STACK CFI 39b10 .cfa: sp 0 +
STACK CFI 39b14 .cfa: sp 16 +
STACK CFI 39b18 .cfa: sp 0 +
STACK CFI 39b1c .cfa: sp 16 +
STACK CFI INIT 39b20 374 .cfa: sp 0 +
STACK CFI 39b24 .cfa: sp 192 +
STACK CFI 39b38 x19: .cfa -8 + ^ x20: .cfa -16 + ^ x21: .cfa -24 + ^ x22: .cfa -32 + ^ x23: .cfa -40 + ^ x24: .cfa -48 + ^ x25: .cfa -56 + ^ x26: .cfa -64 + ^ x27: .cfa -72 + ^ .ra: .cfa -80 + ^
STACK CFI 39db0 .cfa: sp 0 +
STACK CFI 39db4 .cfa: sp 192 +
STACK CFI INIT 39e94 9c .cfa: sp 0 +
STACK CFI 39e98 .cfa: sp 32 +
STACK CFI 39e9c x19: .cfa -8 + ^ x20: .cfa -16 + ^ x21: .cfa -24 + ^ .ra: .cfa -32 + ^
STACK CFI 39f10 .cfa: sp 0 +
STACK CFI 39f14 .cfa: sp 32 +
STACK CFI INIT 39f84 4c .cfa: sp 0 +
STACK CFI 39f88 .cfa: sp 16 + x19: .cfa -8 + ^ .ra: .cfa -16 + ^
STACK CFI 39fc0 .cfa: sp 0 +
STACK CFI 39fc4 .cfa: sp 16 +
STACK CFI 39fc8 .cfa: sp 0 +
STACK CFI 39fcc .cfa: sp 16 +
STACK CFI INIT 3a030 9c .cfa: sp 0 +
STACK CFI 3a034 .cfa: sp 32 +
STACK CFI 3a038 x19: .cfa -8 + ^ x20: .cfa -16 + ^ x21: .cfa -24 + ^ .ra: .cfa -32 + ^
STACK CFI 3a0ac .cfa: sp 0 +
STACK CFI 3a0b0 .cfa: sp 32 +
STACK CFI INIT 3a0cc 564 .cfa: sp 0 +
STACK CFI 3a0d0 .cfa: sp 192 +
STACK CFI 3a0e8 x19: .cfa -8 + ^ x20: .cfa -16 + ^ x21: .cfa -24 + ^ x22: .cfa -32 + ^ x23: .cfa -40 + ^ x24: .cfa -48 + ^ x25: .cfa -56 + ^ x26: .cfa -64 + ^ x27: .cfa -72 + ^ x28: .cfa -80 + ^ .ra: .cfa -88 + ^ x29: .cfa -96 + ^
STACK CFI 3a520 .cfa: sp 0 +
STACK CFI 3a524 .cfa: sp 192 +
STACK CFI INIT 3a630 70 .cfa: sp 0 +
STACK CFI 3a634 .cfa: sp 48 +
STACK CFI 3a63c x19: .cfa -8 + ^ x20: .cfa -16 + ^ x21: .cfa -24 + ^ x22: .cfa -32 + ^ .ra: .cfa -48 + ^
STACK CFI 3a650 .cfa: sp 0 +
STACK CFI 3a654 .cfa: sp 48 +
STACK CFI 3a698 .cfa: sp 0 +
STACK CFI 3a69c .cfa: sp 48 +
STACK CFI INIT 3a6a0 44 .cfa: sp 0 +
STACK CFI 3a6a4 .cfa: sp 32 +
STACK CFI 3a6a8 x19: .cfa -8 + ^ x20: .cfa -16 + ^ .ra: .cfa -32 + ^
STACK CFI 3a6b8 .cfa: sp 0 +
STACK CFI 3a6bc .cfa: sp 32 +
STACK CFI INIT 3a6e4 c8c .cfa: sp 0 +
STACK CFI 3a6e8 .cfa: sp 112 +
STACK CFI 3a6fc x19: .cfa -8 + ^ x20: .cfa -16 + ^ x21: .cfa -24 + ^ x22: .cfa -32 + ^ x23: .cfa -40 + ^ x24: .cfa -48 + ^ x25: .cfa -56 + ^ .ra: .cfa -64 + ^ v8: .cfa -72 + ^ v9: .cfa -80 + ^
STACK CFI 3a9ec .cfa: sp 0 +
STACK CFI 3a9f0 .cfa: sp 112 +
STACK CFI 3b21c .cfa: sp 0 +
STACK CFI 3b220 .cfa: sp 112 +
STACK CFI INIT 3ba8c c4 .cfa: sp 0 +
STACK CFI 3ba90 .cfa: sp 48 +
STACK CFI 3ba98 x19: .cfa -8 + ^ x20: .cfa -16 + ^ x21: .cfa -24 + ^ x22: .cfa -32 + ^ x23: .cfa -40 + ^ .ra: .cfa -48 + ^
STACK CFI 3bb30 .cfa: sp 0 +
STACK CFI 3bb34 .cfa: sp 48 +
STACK CFI INIT 3bbd0 138 .cfa: sp 0 +
STACK CFI 3bbd4 .cfa: sp 48 +
STACK CFI 3bbdc x19: .cfa -8 + ^ x20: .cfa -16 + ^ x21: .cfa -24 + ^ x22: .cfa -32 + ^ .ra: .cfa -48 + ^
STACK CFI 3bcdc .cfa: sp 0 +
STACK CFI 3bce0 .cfa: sp 48 +
STACK CFI INIT 3bef8 320 .cfa: sp 0 +
STACK CFI 3befc .cfa: sp 64 +
STACK CFI 3bf08 x19: .cfa -8 + ^ x20: .cfa -16 + ^ x21: .cfa -24 + ^ x22: .cfa -32 + ^ x23: .cfa -40 + ^ x24: .cfa -48 + ^ .ra: .cfa -64 + ^
STACK CFI 3c000 .cfa: sp 0 +
STACK CFI 3c004 .cfa: sp 64 +
STACK CFI 3c200 .cfa: sp 0 +
STACK CFI 3c204 .cfa: sp 64 +
STACK CFI INIT 3c218 188 .cfa: sp 0 +
STACK CFI 3c21c .cfa: sp 80 +
STACK CFI 3c22c x19: .cfa -8 + ^ x20: .cfa -16 + ^ x21: .cfa -24 + ^ x22: .cfa -32 + ^ x23: .cfa -40 + ^ x24: .cfa -48 + ^ x25: .cfa -56 + ^ x26: .cfa -64 + ^ x27: .cfa -72 + ^ .ra: .cfa -80 + ^
STACK CFI 3c348 .cfa: sp 0 +
STACK CFI 3c34c .cfa: sp 80 +
STACK CFI INIT 3c3a0 1b0 .cfa: sp 0 +
STACK CFI 3c3a4 .cfa: sp 80 +
STACK CFI 3c3b4 x19: .cfa -8 + ^ x20: .cfa -16 + ^ x21: .cfa -24 + ^ x22: .cfa -32 + ^ x23: .cfa -40 + ^ x24: .cfa -48 + ^ .ra: .cfa -64 + ^
STACK CFI 3c4d4 .cfa: sp 0 +
STACK CFI 3c4d8 .cfa: sp 80 +
STACK CFI INIT 3c550 1c0 .cfa: sp 0 +
STACK CFI 3c554 .cfa: sp 48 +
STACK CFI 3c55c x19: .cfa -8 + ^ x20: .cfa -16 + ^ x21: .cfa -24 + ^ x22: .cfa -32 + ^ x23: .cfa -40 + ^ .ra: .cfa -48 + ^
STACK CFI 3c6d4 .cfa: sp 0 +
STACK CFI 3c6d8 .cfa: sp 48 +
STACK CFI 3c700 .cfa: sp 0 +
STACK CFI 3c704 .cfa: sp 48 +
STACK CFI INIT 3c78c 1554 .cfa: sp 0 +
STACK CFI 3c790 .cfa: sp 112 +
STACK CFI 3c7a8 x19: .cfa -8 + ^ x20: .cfa -16 + ^ x21: .cfa -24 + ^ x22: .cfa -32 + ^ x23: .cfa -40 + ^ x24: .cfa -48 + ^ x25: .cfa -56 + ^ x26: .cfa -64 + ^ x27: .cfa -72 + ^ x28: .cfa -80 + ^ .ra: .cfa -88 + ^ x29: .cfa -96 + ^ v8: .cfa -112 + ^
STACK CFI 3c7ac .cfa: sp 1552 +
STACK CFI 3d234 .cfa: sp 112 +
STACK CFI 3d250 .cfa: sp 0 +
STACK CFI 3d254 .cfa: sp 1552 +
STACK CFI INIT 3df0c a9c .cfa: sp 0 +
STACK CFI 3df10 .cfa: sp 112 +
STACK CFI 3df28 x19: .cfa -8 + ^ x20: .cfa -16 + ^ x21: .cfa -24 + ^ x22: .cfa -32 + ^ x23: .cfa -40 + ^ x24: .cfa -48 + ^ x25: .cfa -56 + ^ x26: .cfa -64 + ^ x27: .cfa -72 + ^ x28: .cfa -80 + ^ .ra: .cfa -88 + ^ x29: .cfa -96 + ^ v8: .cfa -112 + ^
STACK CFI 3df2c .cfa: sp 608 +
STACK CFI 3e8e4 .cfa: sp 112 +
STACK CFI 3e900 .cfa: sp 0 +
STACK CFI 3e904 .cfa: sp 608 +
STACK CFI INIT 3e9a8 248 .cfa: sp 0 +
STACK CFI 3e9ac .cfa: sp 80 +
STACK CFI 3e9bc x19: .cfa -8 + ^ x20: .cfa -16 + ^ x21: .cfa -24 + ^ x22: .cfa -32 + ^ x23: .cfa -40 + ^ x24: .cfa -48 + ^ x25: .cfa -56 + ^ .ra: .cfa -64 + ^
STACK CFI 3ebe4 .cfa: sp 0 +
STACK CFI 3ebe8 .cfa: sp 80 +
STACK CFI INIT 3ed08 1fc .cfa: sp 0 +
STACK CFI 3ed0c .cfa: sp 128 +
STACK CFI 3ed1c x19: .cfa -8 + ^ x20: .cfa -16 + ^ x21: .cfa -24 + ^ x22: .cfa -32 + ^ x23: .cfa -40 + ^ x24: .cfa -48 + ^ .ra: .cfa -64 + ^
STACK CFI 3ee88 .cfa: sp 0 +
STACK CFI 3ee8c .cfa: sp 128 +
STACK CFI INIT 3ef04 144 .cfa: sp 0 +
STACK CFI 3ef08 .cfa: sp 32 +
STACK CFI 3ef0c x19: .cfa -8 + ^ x20: .cfa -16 + ^ .ra: .cfa -32 + ^
STACK CFI 3f028 .cfa: sp 0 +
STACK CFI 3f02c .cfa: sp 32 +
STACK CFI INIT 3f098 420 .cfa: sp 0 +
STACK CFI 3f09c .cfa: sp 160 +
STACK CFI 3f0b8 x19: .cfa -8 + ^ x20: .cfa -16 + ^ x21: .cfa -24 + ^ x22: .cfa -32 + ^ x23: .cfa -40 + ^ x24: .cfa -48 + ^ x25: .cfa -56 + ^ x26: .cfa -64 + ^ x27: .cfa -72 + ^ x28: .cfa -80 + ^ .ra: .cfa -88 + ^ v8: .cfa -96 + ^
STACK CFI 3f3fc .cfa: sp 0 +
STACK CFI 3f400 .cfa: sp 160 +
STACK CFI INIT 3f504 378 .cfa: sp 0 +
STACK CFI 3f508 .cfa: sp 112 +
STACK CFI 3f51c x19: .cfa -8 + ^ x20: .cfa -16 + ^ x21: .cfa -24 + ^ x22: .cfa -32 + ^ x23: .cfa -40 + ^ x24: .cfa -48 + ^ x25: .cfa -56 + ^ x26: .cfa -64 + ^ .ra: .cfa -80 + ^
STACK CFI 3f850 .cfa: sp 0 +
STACK CFI 3f854 .cfa: sp 112 +
STACK CFI INIT 3fa68 23c .cfa: sp 0 +
STACK CFI 3fa6c .cfa: sp 112 +
STACK CFI 3fa84 x19: .cfa -8 + ^ x20: .cfa -16 + ^ x21: .cfa -24 + ^ x22: .cfa -32 + ^ x23: .cfa -40 + ^ x24: .cfa -48 + ^ x25: .cfa -56 + ^ x26: .cfa -64 + ^ x27: .cfa -72 + ^ x28: .cfa -80 + ^ .ra: .cfa -88 + ^ x29: .cfa -96 + ^
STACK CFI 3fc74 .cfa: sp 0 +
STACK CFI 3fc78 .cfa: sp 112 +
STACK CFI INIT 3fca4 41d4 .cfa: sp 0 +
STACK CFI 3fca8 .cfa: sp 64 +
STACK CFI 3fcb4 x19: .cfa -8 + ^ x20: .cfa -16 + ^ x21: .cfa -24 + ^ x22: .cfa -32 + ^ x23: .cfa -40 + ^ x24: .cfa -48 + ^ .ra: .cfa -56 + ^ x29: .cfa -64 + ^
STACK CFI 3fcb8 .cfa: sp 3728 +
STACK CFI 42810 .cfa: sp 64 +
STACK CFI 42820 .cfa: sp 0 +
STACK CFI 42824 .cfa: sp 3728 +
STACK CFI INIT 43e78 f8 .cfa: sp 0 +
STACK CFI 43e7c .cfa: sp 48 +
STACK CFI 43e84 x19: .cfa -8 + ^ x20: .cfa -16 + ^ x21: .cfa -24 + ^ x22: .cfa -32 + ^ .ra: .cfa -48 + ^
STACK CFI 43f48 .cfa: sp 0 +
STACK CFI 43f4c .cfa: sp 48 +
STACK CFI INIT 43f70 14c .cfa: sp 0 +
STACK CFI 43f74 .cfa: sp 64 +
STACK CFI 43f7c x19: .cfa -8 + ^ x20: .cfa -16 + ^ x21: .cfa -24 + ^ .ra: .cfa -32 + ^
STACK CFI 44084 .cfa: sp 0 +
STACK CFI 44088 .cfa: sp 64 +
STACK CFI INIT 442d4 5d0 .cfa: sp 0 +
STACK CFI 442d8 .cfa: sp 96 +
STACK CFI 442ec x19: .cfa -8 + ^ x20: .cfa -16 + ^ x21: .cfa -24 + ^ x22: .cfa -32 + ^ x23: .cfa -40 + ^ .ra: .cfa -48 + ^ x29: .cfa -64 + ^ v8: .cfa -72 + ^ v9: .cfa -80 + ^ v10: .cfa -88 + ^ v11: .cfa -96 + ^
STACK CFI 442f0 .cfa: sp 528 +
STACK CFI 44844 .cfa: sp 96 +
STACK CFI 4485c .cfa: sp 0 +
STACK CFI 44860 .cfa: sp 528 +
STACK CFI INIT 45660 548 .cfa: sp 0 +
STACK CFI 45664 .cfa: sp 112 +
STACK CFI 45678 x19: .cfa -8 + ^ x20: .cfa -16 + ^ x21: .cfa -24 + ^ x22: .cfa -32 + ^ x23: .cfa -40 + ^ x24: .cfa -48 + ^ x25: .cfa -56 + ^ x26: .cfa -64 + ^ .ra: .cfa -80 + ^
STACK CFI 45af8 .cfa: sp 0 +
STACK CFI 45afc .cfa: sp 112 +
STACK CFI INIT 45be4 4c .cfa: sp 0 +
STACK CFI 45be8 .cfa: sp 32 +
STACK CFI 45bec x19: .cfa -8 + ^ x20: .cfa -16 + ^ .ra: .cfa -32 + ^
STACK CFI INIT 45c54 c3c .cfa: sp 0 +
STACK CFI 45c58 .cfa: sp 112 +
STACK CFI 45c70 x19: .cfa -8 + ^ x20: .cfa -16 + ^ x21: .cfa -24 + ^ x22: .cfa -32 + ^ x23: .cfa -40 + ^ x24: .cfa -48 + ^ x25: .cfa -56 + ^ x26: .cfa -64 + ^ x27: .cfa -72 + ^ x28: .cfa -80 + ^ .ra: .cfa -88 + ^ x29: .cfa -96 + ^ v8: .cfa -112 + ^
STACK CFI 45c74 .cfa: sp 1232 +
STACK CFI 46574 .cfa: sp 112 +
STACK CFI 46590 .cfa: sp 0 +
STACK CFI 46594 .cfa: sp 1232 +
STACK CFI INIT 46c6c 548 .cfa: sp 0 +
STACK CFI 46c70 .cfa: sp 112 +
STACK CFI 46c84 x19: .cfa -8 + ^ x20: .cfa -16 + ^ x21: .cfa -24 + ^ x22: .cfa -32 + ^ x23: .cfa -40 + ^ x24: .cfa -48 + ^ x25: .cfa -56 + ^ x26: .cfa -64 + ^ .ra: .cfa -80 + ^
STACK CFI 47104 .cfa: sp 0 +
STACK CFI 47108 .cfa: sp 112 +
STACK CFI INIT 471f0 cfc .cfa: sp 0 +
STACK CFI 471f4 .cfa: sp 112 +
STACK CFI 4720c x19: .cfa -8 + ^ x20: .cfa -16 + ^ x21: .cfa -24 + ^ x22: .cfa -32 + ^ x23: .cfa -40 + ^ x24: .cfa -48 + ^ x25: .cfa -56 + ^ x26: .cfa -64 + ^ x27: .cfa -72 + ^ x28: .cfa -80 + ^ .ra: .cfa -88 + ^ x29: .cfa -96 + ^ v8: .cfa -112 + ^
STACK CFI 47210 .cfa: sp 1216 +
STACK CFI 47be0 .cfa: sp 112 +
STACK CFI 47bfc .cfa: sp 0 +
STACK CFI 47c00 .cfa: sp 1216 +
STACK CFI INIT 47fb8 24c .cfa: sp 0 +
STACK CFI 47fbc .cfa: sp 144 +
STACK CFI 47fd0 x19: .cfa -8 + ^ x20: .cfa -16 + ^ x21: .cfa -24 + ^ x22: .cfa -32 + ^ x23: .cfa -40 + ^ x24: .cfa -48 + ^ x25: .cfa -56 + ^ .ra: .cfa -64 + ^ v8: .cfa -80 + ^
STACK CFI 481a8 .cfa: sp 0 +
STACK CFI 481ac .cfa: sp 144 +
STACK CFI INIT 48318 668 .cfa: sp 0 +
STACK CFI 4831c .cfa: sp 144 +
STACK CFI 48334 x19: .cfa -8 + ^ x20: .cfa -16 + ^ x21: .cfa -24 + ^ x22: .cfa -32 + ^ .ra: .cfa -40 + ^ v8: .cfa -48 + ^ v9: .cfa -56 + ^ v10: .cfa -64 + ^ v11: .cfa -72 + ^ v12: .cfa -80 + ^
STACK CFI 488e4 .cfa: sp 0 +
STACK CFI 488e8 .cfa: sp 144 +
STACK CFI INIT 4902c 220 .cfa: sp 0 +
STACK CFI 49030 .cfa: sp 80 +
STACK CFI 49040 x19: .cfa -8 + ^ x20: .cfa -16 + ^ x21: .cfa -24 + ^ x22: .cfa -32 + ^ x23: .cfa -40 + ^ x24: .cfa -48 + ^ x25: .cfa -56 + ^ x26: .cfa -64 + ^ x27: .cfa -72 + ^ .ra: .cfa -80 + ^
STACK CFI 491f8 .cfa: sp 0 +
STACK CFI 491fc .cfa: sp 80 +
STACK CFI INIT 4b320 17c .cfa: sp 0 +
STACK CFI 4b324 .cfa: sp 112 +
STACK CFI 4b330 x19: .cfa -8 + ^ x20: .cfa -16 + ^ x21: .cfa -24 + ^ x22: .cfa -32 + ^ .ra: .cfa -48 + ^
STACK CFI 4b444 .cfa: sp 0 +
STACK CFI 4b448 .cfa: sp 112 +
STACK CFI INIT 4b9c0 134 .cfa: sp 0 +
STACK CFI 4b9c4 .cfa: sp 80 +
STACK CFI 4b9d0 .cfa: x29 32 + x19: .cfa -8 + ^ x20: .cfa -16 + ^ .ra: .cfa -24 + ^ x29: .cfa -32 + ^
STACK CFI 4ba00 .cfa: sp 80 +
STACK CFI 4ba0c .cfa: sp 0 +
STACK CFI 4ba10 .cfa: x29 32 +
STACK CFI INIT 4baf4 78 .cfa: sp 0 +
STACK CFI 4baf8 .cfa: sp 32 +
STACK CFI 4bb00 .cfa: x29 32 + x19: .cfa -8 + ^ x20: .cfa -16 + ^ .ra: .cfa -24 + ^ x29: .cfa -32 + ^
STACK CFI 4bb0c .cfa: sp 32 +
STACK CFI 4bb14 .cfa: sp 0 +
STACK CFI 4bb18 .cfa: x29 32 +
STACK CFI INIT 4bb6c 74 .cfa: sp 0 +
STACK CFI 4bb70 .cfa: sp 48 +
STACK CFI 4bb7c .cfa: x29 32 + x19: .cfa -8 + ^ x20: .cfa -16 + ^ .ra: .cfa -24 + ^ x29: .cfa -32 + ^
STACK CFI 4bbc8 .cfa: sp 48 +
STACK CFI 4bbd4 .cfa: sp 0 +
STACK CFI 4bbd8 .cfa: x29 32 +
STACK CFI INIT 4bc68 25c .cfa: sp 0 +
STACK CFI 4bc6c .cfa: sp 128 +
STACK CFI 4bc7c .cfa: x29 48 + x19: .cfa -8 + ^ x20: .cfa -16 + ^ x21: .cfa -32 + ^ .ra: .cfa -40 + ^ x29: .cfa -48 + ^
STACK CFI 4bd64 .cfa: sp 128 +
STACK CFI 4bd74 .cfa: sp 0 +
STACK CFI 4bd78 .cfa: x29 48 +
STACK CFI INIT 4bf3c 300 .cfa: sp 0 +
STACK CFI 4bf40 .cfa: sp 144 +
STACK CFI 4bf54 .cfa: x29 64 + x19: .cfa -8 + ^ x20: .cfa -16 + ^ x21: .cfa -24 + ^ x22: .cfa -32 + ^ x23: .cfa -48 + ^ .ra: .cfa -56 + ^ x29: .cfa -64 + ^
STACK CFI 4c0e8 .cfa: sp 144 +
STACK CFI 4c0fc .cfa: sp 0 +
STACK CFI 4c100 .cfa: x29 64 +
STACK CFI INIT 4c290 264 .cfa: sp 0 +
STACK CFI 4c294 .cfa: sp 128 +
STACK CFI 4c2a4 .cfa: x29 48 + x19: .cfa -8 + ^ x20: .cfa -16 + ^ x21: .cfa -32 + ^ .ra: .cfa -40 + ^ x29: .cfa -48 + ^
STACK CFI 4c39c .cfa: sp 128 +
STACK CFI 4c3ac .cfa: sp 0 +
STACK CFI 4c3b0 .cfa: x29 48 +
STACK CFI INIT 4c548 fc .cfa: sp 0 +
STACK CFI 4c54c .cfa: sp 48 +
STACK CFI 4c558 .cfa: x29 48 + x19: .cfa -8 + ^ x20: .cfa -16 + ^ x21: .cfa -24 + ^ x22: .cfa -32 + ^ .ra: .cfa -40 + ^ x29: .cfa -48 + ^
STACK CFI 4c600 .cfa: sp 48 +
STACK CFI 4c60c .cfa: sp 0 +
STACK CFI 4c610 .cfa: x29 48 +
STACK CFI INIT 4c644 168 .cfa: sp 0 +
STACK CFI 4c648 .cfa: sp 144 +
STACK CFI 4c65c .cfa: x29 64 + x19: .cfa -8 + ^ x20: .cfa -16 + ^ x21: .cfa -24 + ^ x22: .cfa -32 + ^ x23: .cfa -40 + ^ x24: .cfa -48 + ^ .ra: .cfa -56 + ^ x29: .cfa -64 + ^
STACK CFI 4c6b4 .cfa: sp 144 +
STACK CFI 4c6c8 .cfa: sp 0 +
STACK CFI 4c6cc .cfa: x29 64 +
STACK CFI INIT 4c7b0 2e4 .cfa: sp 0 +
STACK CFI 4c7b4 .cfa: sp 144 +
STACK CFI 4c7c8 .cfa: x29 64 + x19: .cfa -8 + ^ x20: .cfa -16 + ^ x21: .cfa -24 + ^ x22: .cfa -32 + ^ x23: .cfa -48 + ^ .ra: .cfa -56 + ^ x29: .cfa -64 + ^
STACK CFI 4c940 .cfa: sp 144 +
STACK CFI 4c954 .cfa: sp 0 +
STACK CFI 4c958 .cfa: x29 64 +
STACK CFI INIT 4ca94 2a0 .cfa: sp 0 +
STACK CFI 4ca98 .cfa: sp 144 +
STACK CFI 4caac .cfa: x29 64 + x19: .cfa -8 + ^ x20: .cfa -16 + ^ x21: .cfa -24 + ^ x22: .cfa -32 + ^ x23: .cfa -48 + ^ .ra: .cfa -56 + ^ x29: .cfa -64 + ^
STACK CFI 4cbe0 .cfa: sp 144 +
STACK CFI 4cbf4 .cfa: sp 0 +
STACK CFI 4cbf8 .cfa: x29 64 +
STACK CFI INIT 4cd34 2f0 .cfa: sp 0 +
STACK CFI 4cd38 .cfa: sp 144 +
STACK CFI 4cd4c .cfa: x29 64 + x19: .cfa -8 + ^ x20: .cfa -16 + ^ x21: .cfa -24 + ^ x22: .cfa -32 + ^ x23: .cfa -48 + ^ .ra: .cfa -56 + ^ x29: .cfa -64 + ^
STACK CFI 4ced0 .cfa: sp 144 +
STACK CFI 4cee4 .cfa: sp 0 +
STACK CFI 4cee8 .cfa: x29 64 +
STACK CFI INIT 4d024 4f4 .cfa: sp 0 +
STACK CFI 4d028 .cfa: sp 144 +
STACK CFI 4d03c .cfa: x29 64 + x19: .cfa -8 + ^ x20: .cfa -16 + ^ x21: .cfa -24 + ^ x22: .cfa -32 + ^ x23: .cfa -48 + ^ .ra: .cfa -56 + ^ x29: .cfa -64 + ^
STACK CFI 4d370 .cfa: sp 144 +
STACK CFI 4d384 .cfa: sp 0 +
STACK CFI 4d388 .cfa: x29 64 +
STACK CFI INIT 4d518 154 .cfa: sp 0 +
STACK CFI 4d51c .cfa: sp 384 +
STACK CFI 4d530 .cfa: x29 64 + x19: .cfa -8 + ^ x20: .cfa -16 + ^ x21: .cfa -24 + ^ x22: .cfa -32 + ^ x23: .cfa -40 + ^ x28: .cfa -48 + ^ .ra: .cfa -56 + ^ x29: .cfa -64 + ^
STACK CFI 4d614 .cfa: sp 384 +
STACK CFI 4d628 .cfa: sp 0 +
STACK CFI 4d62c .cfa: x29 64 +
STACK CFI INIT 4d66c 168 .cfa: sp 0 +
STACK CFI 4d670 .cfa: sp 384 +
STACK CFI 4d684 .cfa: x29 64 + x19: .cfa -8 + ^ x20: .cfa -16 + ^ x21: .cfa -24 + ^ x22: .cfa -32 + ^ x23: .cfa -40 + ^ x28: .cfa -48 + ^ .ra: .cfa -56 + ^ x29: .cfa -64 + ^
STACK CFI 4d77c .cfa: sp 384 +
STACK CFI 4d790 .cfa: sp 0 +
STACK CFI 4d794 .cfa: x29 64 +
STACK CFI INIT 4d7ec 50c .cfa: sp 0 +
STACK CFI 4d7f0 .cfa: sp 64 +
STACK CFI 4d800 .cfa: x29 64 + x19: .cfa -8 + ^ x20: .cfa -16 + ^ x21: .cfa -24 + ^ x22: .cfa -32 + ^ x23: .cfa -40 + ^ x24: .cfa -48 + ^ .ra: .cfa -56 + ^ x29: .cfa -64 + ^
STACK CFI 4d920 .cfa: sp 64 +
STACK CFI 4d930 .cfa: sp 0 +
STACK CFI 4d934 .cfa: x29 64 +
STACK CFI 4dccc .cfa: sp 64 +
STACK CFI 4dcdc .cfa: sp 0 +
STACK CFI 4dce0 .cfa: x29 64 +
STACK CFI INIT 4e028 18c .cfa: sp 0 +
STACK CFI 4e02c .cfa: sp 208 +
STACK CFI 4e03c .cfa: x29 48 + x19: .cfa -8 + ^ x20: .cfa -16 + ^ x21: .cfa -24 + ^ x22: .cfa -32 + ^ .ra: .cfa -40 + ^ x29: .cfa -48 + ^
STACK CFI 4e13c .cfa: sp 208 +
STACK CFI 4e14c .cfa: sp 0 +
STACK CFI 4e150 .cfa: x29 48 +
STACK CFI INIT 4e1b4 18c .cfa: sp 0 +
STACK CFI 4e1b8 .cfa: sp 80 +
STACK CFI 4e1c8 .cfa: x29 48 + x19: .cfa -8 + ^ x20: .cfa -16 + ^ x21: .cfa -24 + ^ x22: .cfa -32 + ^ .ra: .cfa -40 + ^ x29: .cfa -48 + ^
STACK CFI 4e2a4 .cfa: sp 80 +
STACK CFI 4e2b4 .cfa: sp 0 +
STACK CFI 4e2b8 .cfa: x29 48 +
STACK CFI INIT 4e3bc 50 .cfa: sp 0 +
STACK CFI 4e3c0 .cfa: sp 32 +
STACK CFI 4e3c8 .cfa: x29 32 + x19: .cfa -8 + ^ x20: .cfa -16 + ^ .ra: .cfa -24 + ^ x29: .cfa -32 + ^
STACK CFI INIT 4e40c 7c0 .cfa: sp 0 +
STACK CFI 4e410 .cfa: sp 320 +
STACK CFI 4e42c .cfa: x29 96 + x19: .cfa -8 + ^ x20: .cfa -16 + ^ x21: .cfa -24 + ^ x22: .cfa -32 + ^ x23: .cfa -40 + ^ x24: .cfa -48 + ^ x25: .cfa -56 + ^ x26: .cfa -64 + ^ x27: .cfa -72 + ^ x28: .cfa -80 + ^ .ra: .cfa -88 + ^ x29: .cfa -96 + ^
STACK CFI 4ea7c .cfa: sp 320 +
STACK CFI 4ea98 .cfa: sp 0 +
STACK CFI 4ea9c .cfa: x29 96 +
STACK CFI INIT 4fbe0 118 .cfa: sp 0 +
STACK CFI 4fbe4 .cfa: sp 80 +
STACK CFI 4fbf4 .cfa: x29 48 + x19: .cfa -8 + ^ x20: .cfa -16 + ^ x21: .cfa -32 + ^ .ra: .cfa -40 + ^ x29: .cfa -48 + ^
STACK CFI 4fca4 .cfa: sp 80 +
STACK CFI 4fcb4 .cfa: sp 0 +
STACK CFI 4fcb8 .cfa: x29 48 +
STACK CFI INIT 52798 ca4 .cfa: sp 0 +
STACK CFI 5279c .cfa: sp 96 +
STACK CFI 527b4 .cfa: x29 96 + x19: .cfa -8 + ^ x20: .cfa -16 + ^ x21: .cfa -24 + ^ x22: .cfa -32 + ^ x23: .cfa -40 + ^ x24: .cfa -48 + ^ x25: .cfa -56 + ^ x26: .cfa -64 + ^ x27: .cfa -72 + ^ x28: .cfa -80 + ^ .ra: .cfa -88 + ^ x29: .cfa -96 + ^
STACK CFI 53258 .cfa: sp 96 +
STACK CFI 53270 .cfa: sp 0 +
STACK CFI 53274 .cfa: x29 96 +
STACK CFI INIT 5370c cd0 .cfa: sp 0 +
STACK CFI 53710 .cfa: sp 96 +
STACK CFI 53728 .cfa: x29 96 + x19: .cfa -8 + ^ x20: .cfa -16 + ^ x21: .cfa -24 + ^ x22: .cfa -32 + ^ x23: .cfa -40 + ^ x24: .cfa -48 + ^ x25: .cfa -56 + ^ x26: .cfa -64 + ^ x27: .cfa -72 + ^ x28: .cfa -80 + ^ .ra: .cfa -88 + ^ x29: .cfa -96 + ^
STACK CFI 54208 .cfa: sp 96 +
STACK CFI 54220 .cfa: sp 0 +
STACK CFI 54224 .cfa: x29 96 +
STACK CFI INIT 546c4 ad8 .cfa: sp 0 +
STACK CFI 546c8 .cfa: sp 96 +
STACK CFI 546e0 .cfa: x29 96 + x19: .cfa -8 + ^ x20: .cfa -16 + ^ x21: .cfa -24 + ^ x22: .cfa -32 + ^ x23: .cfa -40 + ^ x24: .cfa -48 + ^ x25: .cfa -56 + ^ x26: .cfa -64 + ^ x27: .cfa -72 + ^ x28: .cfa -80 + ^ .ra: .cfa -88 + ^ x29: .cfa -96 + ^
STACK CFI 550ec .cfa: sp 96 +
STACK CFI 55104 .cfa: sp 0 +
STACK CFI 55108 .cfa: x29 96 +
STACK CFI INIT 553b4 11c0 .cfa: sp 0 +
STACK CFI 553b8 .cfa: sp 112 +
STACK CFI 553d4 .cfa: x29 96 + x19: .cfa -8 + ^ x20: .cfa -16 + ^ x21: .cfa -24 + ^ x22: .cfa -32 + ^ x23: .cfa -40 + ^ x24: .cfa -48 + ^ x25: .cfa -56 + ^ x26: .cfa -64 + ^ x27: .cfa -72 + ^ x28: .cfa -80 + ^ .ra: .cfa -88 + ^ x29: .cfa -96 + ^ v8: .cfa -112 + ^
STACK CFI 557b4 .cfa: sp 112 +
STACK CFI 557d0 .cfa: sp 0 +
STACK CFI 557d4 .cfa: x29 96 +
STACK CFI INIT 59954 578 .cfa: sp 0 +
STACK CFI 59958 .cfa: sp 96 +
STACK CFI 59970 .cfa: x29 96 + x19: .cfa -8 + ^ x20: .cfa -16 + ^ x21: .cfa -24 + ^ x22: .cfa -32 + ^ x23: .cfa -40 + ^ x24: .cfa -48 + ^ x25: .cfa -56 + ^ x26: .cfa -64 + ^ x27: .cfa -72 + ^ x28: .cfa -80 + ^ .ra: .cfa -88 + ^ x29: .cfa -96 + ^
STACK CFI 59e30 .cfa: sp 96 +
STACK CFI 59e48 .cfa: sp 0 +
STACK CFI 59e4c .cfa: x29 96 +
STACK CFI INIT 59ecc 678 .cfa: sp 0 +
STACK CFI 59ed0 .cfa: sp 96 +
STACK CFI 59ee8 .cfa: x29 96 + x19: .cfa -8 + ^ x20: .cfa -16 + ^ x21: .cfa -24 + ^ x22: .cfa -32 + ^ x23: .cfa -40 + ^ x24: .cfa -48 + ^ x25: .cfa -56 + ^ x26: .cfa -64 + ^ x27: .cfa -72 + ^ x28: .cfa -80 + ^ .ra: .cfa -88 + ^ x29: .cfa -96 + ^
STACK CFI 5a4a8 .cfa: sp 96 +
STACK CFI 5a4c0 .cfa: sp 0 +
STACK CFI 5a4c4 .cfa: x29 96 +
