MODULE Linux arm64 EFC6A1D29744045CF98E3BDF924EB37A0 sheepdotcom.leaderboard_in_pause_menu.android64.so
INFO CODE_ID D2A1C6EF44975C04F98E3BDF924EB37A3E6F19D7
INFO GENERATOR mozilla/dump_syms 2.3.4
PUBLIC 5810 0 __on_dlclose
PUBLIC 5820 0 __emutls_unregister_key
PUBLIC 5828 0 __on_dlclose_late
PUBLIC 5830 0 __atexit_handler_wrapper
PUBLIC 5844 0 atexit
PUBLIC 5860 0 pthread_atfork
PUBLIC 5870 0 unwind_phase2
PUBLIC 59a4 0 _Unwind_Resume
PUBLIC 5a28 0 unwind_phase2_forced
PUBLIC m 5b1c 0 __unw_init_local
PUBLIC m 5bc4 0 __unw_get_reg
PUBLIC 5c40 0 __unw_step_stage2
PUBLIC m 5c54 0 __unw_get_proc_info
PUBLIC m 5c94 0 __unw_resume
PUBLIC 5cbc 0 libunwind::CFI_Parser<libunwind::LocalAddressSpace>::decodeFDE(libunwind::LocalAddressSpace&, unsigned long, libunwind::CFI_Parser<libunwind::LocalAddressSpace>::FDE_Info*, libunwind::CFI_Parser<libunwind::LocalAddressSpace>::CIE_Info*, bool)
PUBLIC 5e4c 0 libunwind::CFI_Parser<libunwind::LocalAddressSpace>::parseCIE(libunwind::LocalAddressSpace&, unsigned long, libunwind::CFI_Parser<libunwind::LocalAddressSpace>::CIE_Info*)
PUBLIC 6114 0 libunwind::AbstractUnwindCursor::~AbstractUnwindCursor()
PUBLIC 611c 0 libunwind::UnwindCursor<libunwind::LocalAddressSpace, libunwind::Registers_arm64>::~UnwindCursor()
PUBLIC 6124 0 libunwind::UnwindCursor<libunwind::LocalAddressSpace, libunwind::Registers_arm64>::validReg(int)
PUBLIC 6168 0 libunwind::UnwindCursor<libunwind::LocalAddressSpace, libunwind::Registers_arm64>::getReg(int)
PUBLIC 6250 0 libunwind::UnwindCursor<libunwind::LocalAddressSpace, libunwind::Registers_arm64>::setReg(int, unsigned long)
PUBLIC 6338 0 libunwind::UnwindCursor<libunwind::LocalAddressSpace, libunwind::Registers_arm64>::validFloatReg(int)
PUBLIC 634c 0 libunwind::UnwindCursor<libunwind::LocalAddressSpace, libunwind::Registers_arm64>::getFloatReg(int)
PUBLIC 635c 0 libunwind::UnwindCursor<libunwind::LocalAddressSpace, libunwind::Registers_arm64>::setFloatReg(int, double)
PUBLIC 636c 0 libunwind::UnwindCursor<libunwind::LocalAddressSpace, libunwind::Registers_arm64>::step(bool)
PUBLIC 645c 0 libunwind::UnwindCursor<libunwind::LocalAddressSpace, libunwind::Registers_arm64>::getInfo(unw_proc_info_t*)
PUBLIC 64a0 0 libunwind::UnwindCursor<libunwind::LocalAddressSpace, libunwind::Registers_arm64>::jumpto()
PUBLIC 64ac 0 libunwind::UnwindCursor<libunwind::LocalAddressSpace, libunwind::Registers_arm64>::isSignalFrame()
PUBLIC 64b8 0 libunwind::UnwindCursor<libunwind::LocalAddressSpace, libunwind::Registers_arm64>::getFunctionName(char*, unsigned long, unsigned long*)
PUBLIC 64e4 0 libunwind::UnwindCursor<libunwind::LocalAddressSpace, libunwind::Registers_arm64>::setInfoBasedOnIPRegister(bool)
PUBLIC 6764 0 libunwind::UnwindCursor<libunwind::LocalAddressSpace, libunwind::Registers_arm64>::getRegisterName(int)
PUBLIC 6770 0 libunwind::UnwindCursor<libunwind::LocalAddressSpace, libunwind::Registers_arm64>::stepThroughSigReturn(libunwind::Registers_arm64&)
PUBLIC 6890 0 libunwind::DwarfInstructions<libunwind::LocalAddressSpace, libunwind::Registers_arm64>::stepWithDwarf(libunwind::LocalAddressSpace&, unsigned long, unsigned long, libunwind::Registers_arm64&, bool&, bool)
PUBLIC 6d18 0 libunwind::CFI_Parser<libunwind::LocalAddressSpace>::parseFDEInstructions(libunwind::LocalAddressSpace&, libunwind::CFI_Parser<libunwind::LocalAddressSpace>::FDE_Info const&, libunwind::CFI_Parser<libunwind::LocalAddressSpace>::CIE_Info const&, unsigned long, int, libunwind::CFI_Parser<libunwind::LocalAddressSpace>::PrologInfo*)
PUBLIC 7960 0 libunwind::DwarfInstructions<libunwind::LocalAddressSpace, libunwind::Registers_arm64>::getCFA(libunwind::LocalAddressSpace&, libunwind::CFI_Parser<libunwind::LocalAddressSpace>::PrologInfo const&, libunwind::Registers_arm64 const&)
PUBLIC 7a94 0 libunwind::DwarfInstructions<libunwind::LocalAddressSpace, libunwind::Registers_arm64>::getSavedRegister(libunwind::LocalAddressSpace&, libunwind::Registers_arm64 const&, unsigned long, libunwind::CFI_Parser<libunwind::LocalAddressSpace>::RegisterLocation const&)
PUBLIC 7ca4 0 libunwind::LocalAddressSpace::getEncodedP(unsigned long&, unsigned long, unsigned char, unsigned long)
PUBLIC 8030 0 libunwind::LocalAddressSpace::getULEB128(unsigned long&, unsigned long)
PUBLIC 81f8 0 libunwind::DwarfInstructions<libunwind::LocalAddressSpace, libunwind::Registers_arm64>::evaluateExpression(unsigned long, libunwind::LocalAddressSpace&, libunwind::Registers_arm64 const&, unsigned long)
PUBLIC 8bb4 0 libunwind::UnwindCursor<libunwind::LocalAddressSpace, libunwind::Registers_arm64>::getInfoFromDwarfSection(unsigned long, libunwind::UnwindInfoSections const&, unsigned int)
PUBLIC 8e88 0 libunwind::findUnwindSectionsByPhdr(dl_phdr_info*, unsigned long, void*)
PUBLIC 8fbc 0 libunwind::EHHeaderParser<libunwind::LocalAddressSpace>::decodeEHHdr(libunwind::LocalAddressSpace&, unsigned long, unsigned long, libunwind::EHHeaderParser<libunwind::LocalAddressSpace>::EHHeaderInfo&)
PUBLIC 90dc 0 libunwind::CFI_Parser<libunwind::LocalAddressSpace>::findFDE(libunwind::LocalAddressSpace&, unsigned long, unsigned long, unsigned long, unsigned long, libunwind::CFI_Parser<libunwind::LocalAddressSpace>::FDE_Info*, libunwind::CFI_Parser<libunwind::LocalAddressSpace>::CIE_Info*)
PUBLIC 92a4 0 libunwind::EHHeaderParser<libunwind::LocalAddressSpace>::findFDE(libunwind::LocalAddressSpace&, unsigned long, unsigned long, unsigned int, libunwind::CFI_Parser<libunwind::LocalAddressSpace>::FDE_Info*, libunwind::CFI_Parser<libunwind::LocalAddressSpace>::CIE_Info*)
PUBLIC 940c 0 libunwind::EHHeaderParser<libunwind::LocalAddressSpace>::getTableEntrySize(unsigned char)
PUBLIC 9508 0 libunwind::Registers_arm64::getRegisterName(int)
PUBLIC 9538 0 __libunwind_Registers_arm64_jumpto
PUBLIC m 95c8 0 __unw_getcontext
PUBLIC 9670 0 __aarch64_ldadd8_relax
PUBLIC 96a0 0 init_have_lse_atomics
PUBLIC 9738 0 __init_cpu_features_constructor
PUBLIC 9cd4 0 __init_cpu_features
PUBLIC 9d60 0 __aarch64_ldadd8_acq_rel
PUBLIC 9d90 0 __cxx_global_var_init
PUBLIC a214 0 geode::modifier::ModifyBase<geode::modifier::ModifyDerive<LDPauseLayer, PauseLayer> >::~ModifyBase()
PUBLIC a22c 0 __cxx_global_var_init.1
PUBLIC a6b0 0 geode::modifier::ModifyBase<geode::modifier::ModifyDerive<LDLevelLeaderboard, LevelLeaderboard> >::~ModifyBase()
PUBLIC a6c8 0 geode::modifier::ModifyDerive<LDPauseLayer, PauseLayer>::apply()
PUBLIC a9e4 0 std::__ndk1::shared_ptr<geode::Hook>::~shared_ptr[abi:ne180000]()
PUBLIC aa34 0 geode::impl::ResultData<geode::Hook*, std::__ndk1::basic_string<char, std::__ndk1::char_traits<char>, std::__ndk1::allocator<char> > >::~ResultData()
PUBLIC aaa8 0 std::__ndk1::vector<std::__ndk1::basic_string<char, std::__ndk1::char_traits<char>, std::__ndk1::allocator<char> >, std::__ndk1::allocator<std::__ndk1::basic_string<char, std::__ndk1::char_traits<char>, std::__ndk1::allocator<char> > > >::~vector[abi:ne180000]()
PUBLIC ab24 0 geode::modifier::ModifyBase<geode::modifier::ModifyDerive<LDPauseLayer, PauseLayer> >::apply()
PUBLIC ab28 0 __clang_call_terminate
PUBLIC ab38 0 _ZN5geode15UnwrapExceptionC2IRPNS_4HookEQsr4implE18IsStringStreamableIT_EEENS_4impl5OkTagEOS5_
PUBLIC ac8c 0 std::__ndk1::__throw_bad_variant_access[abi:ne180000]()
PUBLIC acc0 0 std::__ndk1::basic_stringstream<char, std::__ndk1::char_traits<char>, std::__ndk1::allocator<char> >::basic_stringstream[abi:ne180000]()
PUBLIC m adec 0 std::__ndk1::basic_stringstream<char, std::__ndk1::char_traits<char>, std::__ndk1::allocator<char> >::~basic_stringstream()
PUBLIC ae6c 0 geode::UnwrapException::~UnwrapException()
PUBLIC ae90 0 std::__ndk1::__put_character_sequence[abi:ne180000]<char, std::__ndk1::char_traits<char> >(std::__ndk1::basic_ostream<char, std::__ndk1::char_traits<char> >, std::__ndk1::basic_ostream const*, unsigned long)
PUBLIC b034 0 std::__ndk1::__pad_and_output[abi:ne180000]<char, std::__ndk1::char_traits<char> >(std::__ndk1::char_traits<char>, std::__ndk1::ostreambuf_iterator const*, std::__ndk1::ostreambuf_iterator const, std::__ndk1::ostreambuf_iterator const, std::__ndk1::ios_base&, std::__ndk1::ostreambuf_iterator)
PUBLIC b210 0 std::__ndk1::basic_string<char, std::__ndk1::char_traits<char>, std::__ndk1::allocator<char> >::__throw_length_error[abi:ne180000]() const
PUBLIC b224 0 std::__ndk1::__throw_length_error[abi:ne180000](char const*)
PUBLIC b274 0 std::length_error::length_error[abi:ne180000](char const*)
PUBLIC b2a4 0 std::__throw_bad_array_new_length([abi:ne180000], void)
PUBLIC b2d8 0 std::__ndk1::basic_stringbuf<char, std::__ndk1::char_traits<char>, std::__ndk1::allocator<char> >::str[abi:ne180000]() &&
PUBLIC b450 0 std::__ndk1::basic_stringbuf<char, std::__ndk1::char_traits<char>, std::__ndk1::allocator<char> >::__init_buf_ptrs[abi:ne180000]()
PUBLIC b598 0 std::__ndk1::vector<std::__ndk1::basic_string<char, std::__ndk1::char_traits<char>, std::__ndk1::allocator<char> >, std::__ndk1::allocator<std::__ndk1::basic_string<char, std::__ndk1::char_traits<char>, std::__ndk1::allocator<char> > > >::__push_back_slow_path<std::__ndk1::basic_string<char, std::__ndk1::char_traits<char>, std::__ndk1::allocator<char> > const&>(std::__ndk1::basic_string<char, std::__ndk1::char_traits<char>, std::__ndk1::allocator<char> > const&)
PUBLIC b7bc 0 std::__ndk1::basic_string<char, std::__ndk1::char_traits<char>, std::__ndk1::allocator<char> >::__init_copy_ctor_external(char const*, unsigned long)
PUBLIC b83c 0 std::__ndk1::__split_buffer<std::__ndk1::basic_string<char, std::__ndk1::char_traits<char>, std::__ndk1::allocator<char> >, std::__ndk1::allocator<std::__ndk1::basic_string<char, std::__ndk1::char_traits<char>, std::__ndk1::allocator<char> > >&>::~__split_buffer()
PUBLIC b8a4 0 std::__ndk1::vector<std::__ndk1::basic_string<char, std::__ndk1::char_traits<char>, std::__ndk1::allocator<char> >, std::__ndk1::allocator<std::__ndk1::basic_string<char, std::__ndk1::char_traits<char>, std::__ndk1::allocator<char> > > >::__throw_length_error[abi:ne180000]() const
PUBLIC b8b8 0 std::__ndk1::__variant_detail::__visitation::__base::__dispatcher<(unsigned long)0>::__dispatch[abi:ne180000]<std::__ndk1::__variant_detail::__dtor<std::__ndk1::__variant_detail::__traits<geode::Hook*, std::__ndk1::basic_string<char, std::__ndk1::char_traits<char>, std::__ndk1::allocator<char> > >, (std::__ndk1::__variant_detail::_Trait)1>::__destroy[abi:ne180000]()::{lambda(auto:1&)#1}, std::__ndk1::__variant_detail::__base<(std::__ndk1::__variant_detail::__traits<geode::Hook*, std::__ndk1::basic_string<char, std::__ndk1::char_traits<char>, std::__ndk1::allocator<char> > >)1, geode::Hook, std::__ndk1::allocator<char> >&>(std::__ndk1::__variant_detail::__dtor<std::__ndk1::__variant_detail::__traits<geode::Hook*, std::__ndk1::basic_string<char, std::__ndk1::char_traits<char>, std::__ndk1::allocator<char> > >, (std::__ndk1::__variant_detail::_Trait)1>, std::__ndk1::__variant_detail::__base<(std::__ndk1::__variant_detail::__traits<geode::Hook*, std::__ndk1::basic_string<char, std::__ndk1::char_traits<char>, std::__ndk1::allocator<char> > >)1, geode::Hook, std::__ndk1::allocator<char> >&)
PUBLIC b8bc 0 std::__ndk1::__variant_detail::__visitation::__base::__dispatcher<(unsigned long)1>::__dispatch[abi:ne180000]<std::__ndk1::__variant_detail::__dtor<std::__ndk1::__variant_detail::__traits<geode::Hook*, std::__ndk1::basic_string<char, std::__ndk1::char_traits<char>, std::__ndk1::allocator<char> > >, (std::__ndk1::__variant_detail::_Trait)1>::__destroy[abi:ne180000]()::{lambda(auto:1&)#1}, std::__ndk1::__variant_detail::__base<(std::__ndk1::__variant_detail::__traits<geode::Hook*, std::__ndk1::basic_string<char, std::__ndk1::char_traits<char>, std::__ndk1::allocator<char> > >)1, geode::Hook, std::__ndk1::allocator<char> >&>(std::__ndk1::__variant_detail::__dtor<std::__ndk1::__variant_detail::__traits<geode::Hook*, std::__ndk1::basic_string<char, std::__ndk1::char_traits<char>, std::__ndk1::allocator<char> > >, (std::__ndk1::__variant_detail::_Trait)1>, std::__ndk1::__variant_detail::__base<(std::__ndk1::__variant_detail::__traits<geode::Hook*, std::__ndk1::basic_string<char, std::__ndk1::char_traits<char>, std::__ndk1::allocator<char> > >)1, geode::Hook, std::__ndk1::allocator<char> >&)
PUBLIC b8d0 0 std::__ndk1::__tree<std::__ndk1::__value_type<std::__ndk1::basic_string<char, std::__ndk1::char_traits<char>, std::__ndk1::allocator<char> >, std::__ndk1::shared_ptr<geode::Hook> >, std::__ndk1::__map_value_compare<std::__ndk1::basic_string<char, std::__ndk1::char_traits<char>, std::__ndk1::allocator<char> >, std::__ndk1::__value_type<std::__ndk1::basic_string<char, std::__ndk1::char_traits<char>, std::__ndk1::allocator<char> >, std::__ndk1::shared_ptr<geode::Hook> >, std::__ndk1::less<std::__ndk1::basic_string<char, std::__ndk1::char_traits<char>, std::__ndk1::allocator<char> > >, true>, std::__ndk1::allocator<std::__ndk1::__value_type<std::__ndk1::basic_string<char, std::__ndk1::char_traits<char>, std::__ndk1::allocator<char> >, std::__ndk1::shared_ptr<geode::Hook> > > >::find<std::__ndk1::basic_string<char, std::__ndk1::char_traits<char>, std::__ndk1::allocator<char> > >(std::__ndk1::basic_string<char, std::__ndk1::char_traits<char>, std::__ndk1::allocator<char> > const&)
PUBLIC b9f0 0 std::__ndk1::__tree<std::__ndk1::__value_type<std::__ndk1::basic_string<char, std::__ndk1::char_traits<char>, std::__ndk1::allocator<char> >, std::__ndk1::shared_ptr<geode::Hook> >, std::__ndk1::__map_value_compare<std::__ndk1::basic_string<char, std::__ndk1::char_traits<char>, std::__ndk1::allocator<char> >, std::__ndk1::__value_type<std::__ndk1::basic_string<char, std::__ndk1::char_traits<char>, std::__ndk1::allocator<char> >, std::__ndk1::shared_ptr<geode::Hook> >, std::__ndk1::less<std::__ndk1::basic_string<char, std::__ndk1::char_traits<char>, std::__ndk1::allocator<char> > >, true>, std::__ndk1::allocator<std::__ndk1::__value_type<std::__ndk1::basic_string<char, std::__ndk1::char_traits<char>, std::__ndk1::allocator<char> >, std::__ndk1::shared_ptr<geode::Hook> > > >::erase(std::__ndk1::__tree_const_iterator<std::__ndk1::__value_type<std::__ndk1::basic_string<char, std::__ndk1::char_traits<char>, std::__ndk1::allocator<char> >, std::__ndk1::shared_ptr<geode::Hook> >, std::__ndk1::__tree_node<std::__ndk1::__value_type<std::__ndk1::basic_string<char, std::__ndk1::char_traits<char>, std::__ndk1::allocator<char> >, std::__ndk1::shared_ptr<geode::Hook> >, void*>*, long>)
PUBLIC be94 0 std::__ndk1::__tree<std::__ndk1::__value_type<std::__ndk1::basic_string<char, std::__ndk1::char_traits<char>, std::__ndk1::allocator<char> >, std::__ndk1::shared_ptr<geode::Hook> >, std::__ndk1::__map_value_compare<std::__ndk1::basic_string<char, std::__ndk1::char_traits<char>, std::__ndk1::allocator<char> >, std::__ndk1::__value_type<std::__ndk1::basic_string<char, std::__ndk1::char_traits<char>, std::__ndk1::allocator<char> >, std::__ndk1::shared_ptr<geode::Hook> >, std::__ndk1::less<std::__ndk1::basic_string<char, std::__ndk1::char_traits<char>, std::__ndk1::allocator<char> > >, true>, std::__ndk1::allocator<std::__ndk1::__value_type<std::__ndk1::basic_string<char, std::__ndk1::char_traits<char>, std::__ndk1::allocator<char> >, std::__ndk1::shared_ptr<geode::Hook> > > >::destroy(std::__ndk1::__tree_node<std::__ndk1::__value_type<std::__ndk1::basic_string<char, std::__ndk1::char_traits<char>, std::__ndk1::allocator<char> >, std::__ndk1::shared_ptr<geode::Hook> >, void*>*)
PUBLIC bf18 0 geode::modifier::AsStaticFunction_customSetup<LDPauseLayer, void (LDPauseLayer::*)()>::Impl<void (LDPauseLayer::*)()>::function(LDPauseLayer*)
PUBLIC c06c 0 geode::addresser::Addresser::addressOfVirtual<void, PauseLayer, >(void (PauseLayer::*)())
PUBLIC c114 0 PauseLayer::PauseLayer(geode::ZeroConstructorType)
PUBLIC c1a0 0 std::__ndk1::shared_ptr<tulip::hook::CallingConvention>::~shared_ptr[abi:ne180000]()
PUBLIC c1f0 0 tulip::hook::HandlerMetadata::~HandlerMetadata()
PUBLIC c254 0 std::__ndk1::vector<tulip::hook::AbstractType, std::__ndk1::allocator<tulip::hook::AbstractType> >::__throw_length_error[abi:ne180000]() const
PUBLIC c268 0 LDPauseLayer::onLeaderboard(cocos2d::CCObject*)
PUBLIC c3c4 0 std::__ndk1::__tree<std::__ndk1::__value_type<std::__ndk1::basic_string<char, std::__ndk1::char_traits<char>, std::__ndk1::allocator<char> >, std::__ndk1::shared_ptr<geode::Hook> >, std::__ndk1::__map_value_compare<std::__ndk1::basic_string<char, std::__ndk1::char_traits<char>, std::__ndk1::allocator<char> >, std::__ndk1::__value_type<std::__ndk1::basic_string<char, std::__ndk1::char_traits<char>, std::__ndk1::allocator<char> >, std::__ndk1::shared_ptr<geode::Hook> >, std::__ndk1::less<std::__ndk1::basic_string<char, std::__ndk1::char_traits<char>, std::__ndk1::allocator<char> > >, true>, std::__ndk1::allocator<std::__ndk1::__value_type<std::__ndk1::basic_string<char, std::__ndk1::char_traits<char>, std::__ndk1::allocator<char> >, std::__ndk1::shared_ptr<geode::Hook> > > >::__emplace_unique_key_args<std::__ndk1::basic_string<char, std::__ndk1::char_traits<char>, std::__ndk1::allocator<char> >, std::__ndk1::piecewise_construct_t const&, std::__ndk1::tuple<std::__ndk1::basic_string<char, std::__ndk1::char_traits<char>, std::__ndk1::allocator<char> >&&>, std::__ndk1::tuple<> >(std::__ndk1::basic_string<char, std::__ndk1::char_traits<char>, std::__ndk1::allocator<char> > const&, std::__ndk1::piecewise_construct_t const&, std::__ndk1::tuple<std::__ndk1::basic_string<char, std::__ndk1::char_traits<char>, std::__ndk1::allocator<char> >&&>, std::__ndk1::tuple<>)
PUBLIC c52c 0 std::__ndk1::__tree_balance_after_insert[abi:ne180000]<std::__ndk1::__tree_node_base<void*>*>(std::__ndk1::__tree_node_base<void*>*, std::__ndk1::__tree_node_base<void*>*)
PUBLIC c6dc 0 geode::modifier::ModifyDerive<LDLevelLeaderboard, LevelLeaderboard>::apply()
PUBLIC ca80 0 geode::modifier::ModifyBase<geode::modifier::ModifyDerive<LDLevelLeaderboard, LevelLeaderboard> >::apply()
PUBLIC ca84 0 geode::modifier::AsStaticFunction_init<LDLevelLeaderboard, bool (LDLevelLeaderboard::*)(GJGameLevel*, LevelLeaderboardType, LevelLeaderboardMode)>::Impl<bool (LDLevelLeaderboard::*)(GJGameLevel*, LevelLeaderboardType, LevelLeaderboardMode)>::function(LDLevelLeaderboard*, GJGameLevel*, LevelLeaderboardType, LevelLeaderboardMode)
PUBLIC m cad8 0 geodeImplicitEntry
PUBLIC cb14 0 wrapFunction(unsigned long, tulip::hook::WrapperMetadata const&)
PUBLIC cc48 0 geode::impl::ResultData<void*, std::__ndk1::basic_string<char, std::__ndk1::char_traits<char>, std::__ndk1::allocator<char> > >::unwrapErr() &
PUBLIC ccc0 0 geode::impl::ResultData<void*, std::__ndk1::basic_string<char, std::__ndk1::char_traits<char>, std::__ndk1::allocator<char> > >::~ResultData()
PUBLIC cd34 0 tulip::hook::WrapperMetadata::~WrapperMetadata()
PUBLIC cd98 0 FLAlertLayer::create(FLAlertLayerProtocol*, char const*, gd::string, char const*, char const*, float)
PUBLIC cf50 0 tulip::hook::AbstractFunction::from<FLAlertLayer*, FLAlertLayerProtocol*, char const*, gd::string, char const*, char const*, float>(FLAlertLayer* (*)(FLAlertLayerProtocol*, char const*, gd::string, char const*, char const*, float))
PUBLIC d434 0 _ZN5geode15UnwrapExceptionC2IRPvQsr4implE18IsStringStreamableIT_EEENS_4impl5OkTagEOS4_
PUBLIC d588 0 _ZN5geode15UnwrapExceptionC2IRNSt6__ndk112basic_stringIcNS2_11char_traitsIcEENS2_9allocatorIcEEEEQsr4implE18IsStringStreamableIT_EEENS_4impl6ErrTagEOSA_
PUBLIC d6f0 0 std::__ndk1::__variant_detail::__visitation::__base::__dispatcher<(unsigned long)0>::__dispatch[abi:ne180000]<std::__ndk1::__variant_detail::__dtor<std::__ndk1::__variant_detail::__traits<void*, std::__ndk1::basic_string<char, std::__ndk1::char_traits<char>, std::__ndk1::allocator<char> > >, (std::__ndk1::__variant_detail::_Trait)1>::__destroy[abi:ne180000]()::{lambda(auto:1&)#1}, std::__ndk1::__variant_detail::__base<(std::__ndk1::__variant_detail::__traits<void*, std::__ndk1::basic_string<char, std::__ndk1::char_traits<char>, std::__ndk1::allocator<char> > >)1, std::__ndk1::__variant_detail::__traits, std::__ndk1::allocator<char> >&>(std::__ndk1::__variant_detail::__dtor<std::__ndk1::__variant_detail::__traits<void*, std::__ndk1::basic_string<char, std::__ndk1::char_traits<char>, std::__ndk1::allocator<char> > >, (std::__ndk1::__variant_detail::_Trait)1>, std::__ndk1::__variant_detail::__base<(std::__ndk1::__variant_detail::__traits<void*, std::__ndk1::basic_string<char, std::__ndk1::char_traits<char>, std::__ndk1::allocator<char> > >)1, std::__ndk1::__variant_detail::__traits, std::__ndk1::allocator<char> >&)
PUBLIC d6f4 0 std::__ndk1::__variant_detail::__visitation::__base::__dispatcher<(unsigned long)1>::__dispatch[abi:ne180000]<std::__ndk1::__variant_detail::__dtor<std::__ndk1::__variant_detail::__traits<void*, std::__ndk1::basic_string<char, std::__ndk1::char_traits<char>, std::__ndk1::allocator<char> > >, (std::__ndk1::__variant_detail::_Trait)1>::__destroy[abi:ne180000]()::{lambda(auto:1&)#1}, std::__ndk1::__variant_detail::__base<(std::__ndk1::__variant_detail::__traits<void*, std::__ndk1::basic_string<char, std::__ndk1::char_traits<char>, std::__ndk1::allocator<char> > >)1, std::__ndk1::__variant_detail::__traits, std::__ndk1::allocator<char> >&>(std::__ndk1::__variant_detail::__dtor<std::__ndk1::__variant_detail::__traits<void*, std::__ndk1::basic_string<char, std::__ndk1::char_traits<char>, std::__ndk1::allocator<char> > >, (std::__ndk1::__variant_detail::_Trait)1>, std::__ndk1::__variant_detail::__base<(std::__ndk1::__variant_detail::__traits<void*, std::__ndk1::basic_string<char, std::__ndk1::char_traits<char>, std::__ndk1::allocator<char> > >)1, std::__ndk1::__variant_detail::__traits, std::__ndk1::allocator<char> >&)
PUBLIC d710 0 <.plt ELF section in sheepdotcom.leaderboard_in_pause_menu.android64.so>
STACK CFI INIT 5810 10 .cfa: sp 0 +
STACK CFI INIT 5820 8 .cfa: sp 0 +
STACK CFI INIT 5828 8 .cfa: sp 0 +
STACK CFI INIT 5830 14 .cfa: sp 0 +
STACK CFI INIT 5844 1c .cfa: sp 0 +
STACK CFI INIT 5860 10 .cfa: sp 0 +
STACK CFI INIT 5870 134 .cfa: sp 0 +
STACK CFI INIT 59a4 84 .cfa: sp 0 +
STACK CFI INIT 5a28 f4 .cfa: sp 0 +
STACK CFI INIT 5b1c a8 .cfa: sp 0 +
STACK CFI INIT 5bc4 7c .cfa: sp 0 +
STACK CFI INIT 5c40 14 .cfa: sp 0 +
STACK CFI INIT 5c54 40 .cfa: sp 0 +
STACK CFI INIT 5c94 28 .cfa: sp 0 +
STACK CFI INIT 5cbc 190 .cfa: sp 0 +
STACK CFI INIT 5e4c 2c8 .cfa: sp 0 +
STACK CFI INIT 6114 8 .cfa: sp 0 +
STACK CFI INIT 611c 8 .cfa: sp 0 +
STACK CFI INIT 6124 44 .cfa: sp 0 +
STACK CFI INIT 6168 e8 .cfa: sp 0 +
STACK CFI INIT 6250 e8 .cfa: sp 0 +
STACK CFI INIT 6338 14 .cfa: sp 0 +
STACK CFI INIT 634c 10 .cfa: sp 0 +
STACK CFI INIT 635c 10 .cfa: sp 0 +
STACK CFI INIT 636c f0 .cfa: sp 0 +
STACK CFI INIT 645c 44 .cfa: sp 0 +
STACK CFI INIT 64a0 c .cfa: sp 0 +
STACK CFI INIT 64ac c .cfa: sp 0 +
STACK CFI INIT 64b8 2c .cfa: sp 0 +
STACK CFI INIT 64e4 280 .cfa: sp 0 +
STACK CFI INIT 6764 c .cfa: sp 0 +
STACK CFI INIT 6770 120 .cfa: sp 0 +
STACK CFI INIT 6890 488 .cfa: sp 0 +
STACK CFI INIT 6d18 c48 .cfa: sp 0 +
STACK CFI INIT 7960 134 .cfa: sp 0 +
STACK CFI INIT 7a94 210 .cfa: sp 0 +
STACK CFI INIT 7ca4 38c .cfa: sp 0 +
STACK CFI INIT 8030 1c8 .cfa: sp 0 +
STACK CFI INIT 81f8 9bc .cfa: sp 0 +
STACK CFI INIT 8bb4 2d4 .cfa: sp 0 +
STACK CFI INIT 8e88 134 .cfa: sp 0 +
STACK CFI INIT 8fbc 120 .cfa: sp 0 +
STACK CFI INIT 90dc 1c8 .cfa: sp 0 +
STACK CFI INIT 92a4 168 .cfa: sp 0 +
STACK CFI INIT 940c fc .cfa: sp 0 +
STACK CFI INIT 9508 30 .cfa: sp 0 +
STACK CFI INIT 9670 30 .cfa: sp 0 +
STACK CFI INIT 96a0 98 .cfa: sp 0 +
STACK CFI INIT 9738 59c .cfa: sp 0 +
STACK CFI INIT 9cd4 8c .cfa: sp 0 +
STACK CFI INIT 9d60 30 .cfa: sp 0 +
STACK CFI INIT a214 18 .cfa: sp 0 +
STACK CFI INIT a6b0 18 .cfa: sp 0 +
STACK CFI INIT a9e4 50 .cfa: sp 0 +
STACK CFI a9e8 .cfa: sp 32 +
STACK CFI a9f0 .cfa: x29 32 + x19: .cfa -16 + ^ .ra: .cfa -24 + ^ x29: .cfa -32 + ^
STACK CFI aa08 .cfa: sp 32 +
STACK CFI aa10 .cfa: sp 0 +
STACK CFI aa14 .cfa: x29 32 +
STACK CFI aa28 .cfa: sp 32 +
STACK CFI aa30 .cfa: sp 0 +
STACK CFI INIT aaa8 7c .cfa: sp 0 +
STACK CFI aaac .cfa: sp 48 +
STACK CFI aab8 .cfa: x29 48 + x19: .cfa -8 + ^ x20: .cfa -16 + ^ x21: .cfa -32 + ^ .ra: .cfa -40 + ^ x29: .cfa -48 + ^
STACK CFI ab04 .cfa: sp 48 +
STACK CFI ab10 .cfa: sp 0 +
STACK CFI ab14 .cfa: sp 48 +
STACK CFI ab20 .cfa: sp 0 +
STACK CFI INIT ab24 4 .cfa: sp 0 +
STACK CFI INIT ab28 10 .cfa: sp 0 +
STACK CFI ab2c .cfa: sp 16 +
STACK CFI ab30 .cfa: x29 16 + .ra: .cfa -8 + ^ x29: .cfa -16 + ^
STACK CFI INIT ac8c 34 .cfa: sp 0 +
STACK CFI ac90 .cfa: sp 16 +
STACK CFI ac94 .cfa: x29 16 + .ra: .cfa -8 + ^ x29: .cfa -16 + ^
STACK CFI INIT adec 80 .cfa: sp 0 +
STACK CFI adf0 .cfa: sp 48 +
STACK CFI adfc .cfa: x29 48 + x19: .cfa -8 + ^ x20: .cfa -16 + ^ x21: .cfa -32 + ^ .ra: .cfa -40 + ^ x29: .cfa -48 + ^
STACK CFI ae5c .cfa: sp 48 +
STACK CFI ae68 .cfa: sp 0 +
STACK CFI INIT ae6c 24 .cfa: sp 0 +
STACK CFI ae70 .cfa: sp 32 +
STACK CFI ae78 .cfa: x29 32 + x19: .cfa -16 + ^ .ra: .cfa -24 + ^ x29: .cfa -32 + ^
STACK CFI ae84 .cfa: sp 32 +
STACK CFI ae8c .cfa: sp 0 +
STACK CFI INIT b210 14 .cfa: sp 0 +
STACK CFI b214 .cfa: sp 16 +
STACK CFI b218 .cfa: x29 16 + .ra: .cfa -8 + ^ x29: .cfa -16 + ^
STACK CFI INIT b274 30 .cfa: sp 0 +
STACK CFI b278 .cfa: sp 32 +
STACK CFI b280 .cfa: x29 32 + x19: .cfa -16 + ^ .ra: .cfa -24 + ^ x29: .cfa -32 + ^
STACK CFI b298 .cfa: sp 32 +
STACK CFI b2a0 .cfa: sp 0 +
STACK CFI INIT b2a4 34 .cfa: sp 0 +
STACK CFI b2a8 .cfa: sp 32 +
STACK CFI b2b0 .cfa: x29 32 + x19: .cfa -16 + ^ .ra: .cfa -24 + ^ x29: .cfa -32 + ^
STACK CFI INIT b450 148 .cfa: sp 0 +
STACK CFI b454 .cfa: sp 48 +
STACK CFI b460 .cfa: x29 48 + x19: .cfa -8 + ^ x20: .cfa -16 + ^ x21: .cfa -32 + ^ .ra: .cfa -40 + ^ x29: .cfa -48 + ^
STACK CFI b588 .cfa: sp 48 +
STACK CFI b594 .cfa: sp 0 +
STACK CFI INIT b7bc 80 .cfa: sp 0 +
STACK CFI b7c0 .cfa: sp 48 +
STACK CFI b7cc .cfa: x29 48 + x19: .cfa -8 + ^ x20: .cfa -16 + ^ x21: .cfa -24 + ^ x22: .cfa -32 + ^ .ra: .cfa -40 + ^ x29: .cfa -48 + ^
STACK CFI b7e4 .cfa: sp 48 +
STACK CFI b7f0 .cfa: sp 0 +
STACK CFI b7f4 .cfa: x29 48 +
STACK CFI b824 .cfa: sp 48 +
STACK CFI b830 .cfa: sp 0 +
STACK CFI b834 .cfa: x29 48 +
STACK CFI INIT b83c 68 .cfa: sp 0 +
STACK CFI b840 .cfa: sp 32 +
STACK CFI b848 .cfa: x29 32 + x19: .cfa -8 + ^ x20: .cfa -16 + ^ .ra: .cfa -24 + ^ x29: .cfa -32 + ^
STACK CFI b860 .cfa: sp 32 +
STACK CFI b868 .cfa: sp 0 +
STACK CFI b86c .cfa: x29 32 +
STACK CFI b898 .cfa: sp 32 +
STACK CFI b8a0 .cfa: sp 0 +
STACK CFI INIT b8a4 14 .cfa: sp 0 +
STACK CFI b8a8 .cfa: sp 16 +
STACK CFI b8ac .cfa: x29 16 + .ra: .cfa -8 + ^ x29: .cfa -16 + ^
STACK CFI INIT b8b8 4 .cfa: sp 0 +
STACK CFI INIT b8bc 14 .cfa: sp 0 +
STACK CFI INIT b8d0 120 .cfa: sp 0 +
STACK CFI b8d4 .cfa: sp 64 +
STACK CFI b8e4 .cfa: x29 64 + x19: .cfa -8 + ^ x20: .cfa -16 + ^ x21: .cfa -24 + ^ x22: .cfa -32 + ^ x23: .cfa -40 + ^ x24: .cfa -48 + ^ .ra: .cfa -56 + ^ x29: .cfa -64 + ^
STACK CFI b9dc .cfa: sp 64 +
STACK CFI b9ec .cfa: sp 0 +
STACK CFI INIT b9f0 4a4 .cfa: sp 0 +
STACK CFI b9f4 .cfa: sp 32 +
STACK CFI b9fc .cfa: x29 32 + x19: .cfa -8 + ^ x20: .cfa -16 + ^ .ra: .cfa -24 + ^ x29: .cfa -32 + ^
STACK CFI bddc .cfa: sp 32 +
STACK CFI bde4 .cfa: sp 0 +
STACK CFI bde8 .cfa: x29 32 +
STACK CFI INIT be94 84 .cfa: sp 0 +
STACK CFI be9c .cfa: sp 32 +
STACK CFI bea4 .cfa: x29 32 + x19: .cfa -8 + ^ x20: .cfa -16 + ^ .ra: .cfa -24 + ^ x29: .cfa -32 + ^
STACK CFI bee4 .cfa: sp 32 +
STACK CFI beec .cfa: sp 0 +
STACK CFI bef4 .cfa: x29 32 +
STACK CFI INIT c114 8c .cfa: sp 0 +
STACK CFI c118 .cfa: sp 32 +
STACK CFI c120 .cfa: x29 32 + x19: .cfa -16 + ^ .ra: .cfa -24 + ^ x29: .cfa -32 + ^
STACK CFI c194 .cfa: sp 32 +
STACK CFI c19c .cfa: sp 0 +
STACK CFI INIT c1a0 50 .cfa: sp 0 +
STACK CFI c1a4 .cfa: sp 32 +
STACK CFI c1ac .cfa: x29 32 + x19: .cfa -16 + ^ .ra: .cfa -24 + ^ x29: .cfa -32 + ^
STACK CFI c1c4 .cfa: sp 32 +
STACK CFI c1cc .cfa: sp 0 +
STACK CFI c1d0 .cfa: x29 32 +
STACK CFI c1e4 .cfa: sp 32 +
STACK CFI c1ec .cfa: sp 0 +
STACK CFI INIT c1f0 64 .cfa: sp 0 +
STACK CFI c1f4 .cfa: sp 32 +
STACK CFI c1fc .cfa: x29 32 + x19: .cfa -16 + ^ .ra: .cfa -24 + ^ x29: .cfa -32 + ^
STACK CFI c228 .cfa: sp 32 +
STACK CFI c230 .cfa: sp 0 +
STACK CFI c234 .cfa: x29 32 +
STACK CFI c248 .cfa: sp 32 +
STACK CFI c250 .cfa: sp 0 +
STACK CFI INIT c254 14 .cfa: sp 0 +
STACK CFI c258 .cfa: sp 16 +
STACK CFI c25c .cfa: x29 16 + .ra: .cfa -8 + ^ x29: .cfa -16 + ^
STACK CFI INIT c3c4 168 .cfa: sp 0 +
STACK CFI c3c8 .cfa: sp 80 +
STACK CFI c3dc .cfa: x29 80 + x19: .cfa -8 + ^ x20: .cfa -16 + ^ x21: .cfa -24 + ^ x22: .cfa -32 + ^ x23: .cfa -40 + ^ x24: .cfa -48 + ^ x25: .cfa -56 + ^ x26: .cfa -64 + ^ .ra: .cfa -72 + ^ x29: .cfa -80 + ^
STACK CFI c514 .cfa: sp 80 +
STACK CFI c528 .cfa: sp 0 +
STACK CFI INIT c52c 1b0 .cfa: sp 0 +
STACK CFI INIT ca80 4 .cfa: sp 0 +
STACK CFI INIT ca84 54 .cfa: sp 0 +
STACK CFI ca88 .cfa: sp 32 +
STACK CFI ca90 .cfa: x29 32 + x19: .cfa -8 + ^ x20: .cfa -16 + ^ .ra: .cfa -24 + ^ x29: .cfa -32 + ^
STACK CFI cacc .cfa: sp 32 +
STACK CFI cad4 .cfa: sp 0 +
STACK CFI INIT cad8 3c .cfa: sp 0 +
STACK CFI cadc .cfa: sp 32 +
STACK CFI cae4 .cfa: x29 32 + x19: .cfa -16 + ^ .ra: .cfa -24 + ^ x29: .cfa -32 + ^
STACK CFI caf0 .cfa: sp 32 +
STACK CFI caf8 .cfa: sp 0 +
STACK CFI cafc .cfa: x29 32 +
STACK CFI cb08 .cfa: sp 32 +
STACK CFI cb10 .cfa: sp 0 +
STACK CFI INIT cd34 64 .cfa: sp 0 +
STACK CFI cd38 .cfa: sp 32 +
STACK CFI cd40 .cfa: x29 32 + x19: .cfa -16 + ^ .ra: .cfa -24 + ^ x29: .cfa -32 + ^
STACK CFI cd6c .cfa: sp 32 +
STACK CFI cd74 .cfa: sp 0 +
STACK CFI cd78 .cfa: x29 32 +
STACK CFI cd8c .cfa: sp 32 +
STACK CFI cd94 .cfa: sp 0 +
STACK CFI INIT d6f0 4 .cfa: sp 0 +
STACK CFI INIT d6f4 14 .cfa: sp 0 +
STACK CFI INIT 9d90 484 .cfa: sp 0 +
STACK CFI 9d94 .cfa: sp 224 +
STACK CFI 9db0 .cfa: x29 96 + x19: .cfa -8 + ^ x20: .cfa -16 + ^ x21: .cfa -24 + ^ x22: .cfa -32 + ^ x23: .cfa -40 + ^ x24: .cfa -48 + ^ x25: .cfa -56 + ^ x26: .cfa -64 + ^ x27: .cfa -72 + ^ x28: .cfa -80 + ^ .ra: .cfa -88 + ^ x29: .cfa -96 + ^
STACK CFI a020 .cfa: sp 224 +
STACK CFI a03c .cfa: sp 0 +
STACK CFI a040 .cfa: x29 96 +
STACK CFI a10c .cfa: sp 224 +
STACK CFI a128 .cfa: sp 0 +
STACK CFI a12c .cfa: x29 96 +
STACK CFI INIT a22c 484 .cfa: sp 0 +
STACK CFI a230 .cfa: sp 224 +
STACK CFI a24c .cfa: x29 96 + x19: .cfa -8 + ^ x20: .cfa -16 + ^ x21: .cfa -24 + ^ x22: .cfa -32 + ^ x23: .cfa -40 + ^ x24: .cfa -48 + ^ x25: .cfa -56 + ^ x26: .cfa -64 + ^ x27: .cfa -72 + ^ x28: .cfa -80 + ^ .ra: .cfa -88 + ^ x29: .cfa -96 + ^
STACK CFI a4bc .cfa: sp 224 +
STACK CFI a4d8 .cfa: sp 0 +
STACK CFI a4dc .cfa: x29 96 +
STACK CFI a5a8 .cfa: sp 224 +
STACK CFI a5c4 .cfa: sp 0 +
STACK CFI a5c8 .cfa: x29 96 +
STACK CFI INIT a6c8 31c .cfa: sp 0 +
STACK CFI a6cc .cfa: sp 224 +
STACK CFI a6e0 .cfa: x29 64 + x19: .cfa -8 + ^ x20: .cfa -16 + ^ x21: .cfa -24 + ^ x22: .cfa -32 + ^ x23: .cfa -48 + ^ .ra: .cfa -56 + ^ x29: .cfa -64 + ^
STACK CFI a8d4 .cfa: sp 224 +
STACK CFI a8e8 .cfa: sp 0 +
STACK CFI a8ec .cfa: x29 64 +
STACK CFI INIT aa34 74 .cfa: sp 0 +
STACK CFI aa38 .cfa: sp 48 +
STACK CFI aa44 .cfa: x29 32 + x19: .cfa -8 + ^ x20: .cfa -16 + ^ .ra: .cfa -24 + ^ x29: .cfa -32 + ^
STACK CFI aa90 .cfa: sp 48 +
STACK CFI aa9c .cfa: sp 0 +
STACK CFI aaa0 .cfa: x29 32 +
STACK CFI INIT ab38 154 .cfa: sp 0 +
STACK CFI ab3c .cfa: sp 384 +
STACK CFI ab50 .cfa: x29 64 + x19: .cfa -8 + ^ x20: .cfa -16 + ^ x21: .cfa -24 + ^ x22: .cfa -32 + ^ x23: .cfa -40 + ^ x28: .cfa -48 + ^ .ra: .cfa -56 + ^ x29: .cfa -64 + ^
STACK CFI ac34 .cfa: sp 384 +
STACK CFI ac48 .cfa: sp 0 +
STACK CFI ac4c .cfa: x29 64 +
STACK CFI INIT acc0 12c .cfa: sp 0 +
STACK CFI acc4 .cfa: sp 80 +
STACK CFI acd8 .cfa: x29 80 + x19: .cfa -8 + ^ x20: .cfa -16 + ^ x21: .cfa -24 + ^ x22: .cfa -32 + ^ x23: .cfa -40 + ^ x24: .cfa -48 + ^ x25: .cfa -56 + ^ x26: .cfa -64 + ^ .ra: .cfa -72 + ^ x29: .cfa -80 + ^
STACK CFI ada0 .cfa: sp 80 +
STACK CFI adb4 .cfa: sp 0 +
STACK CFI adb8 .cfa: x29 80 +
STACK CFI INIT ae90 1a4 .cfa: sp 0 +
STACK CFI ae94 .cfa: sp 112 +
STACK CFI aeac .cfa: x29 80 + x19: .cfa -8 + ^ x20: .cfa -16 + ^ x21: .cfa -24 + ^ x22: .cfa -32 + ^ x23: .cfa -40 + ^ x24: .cfa -48 + ^ x25: .cfa -56 + ^ x26: .cfa -64 + ^ .ra: .cfa -72 + ^ x29: .cfa -80 + ^
STACK CFI af9c .cfa: sp 112 +
STACK CFI afb4 .cfa: sp 0 +
STACK CFI afb8 .cfa: x29 80 +
STACK CFI INIT b034 1dc .cfa: sp 0 +
STACK CFI b038 .cfa: sp 128 +
STACK CFI b054 .cfa: x29 96 + x19: .cfa -8 + ^ x20: .cfa -16 + ^ x21: .cfa -24 + ^ x22: .cfa -32 + ^ x23: .cfa -40 + ^ x24: .cfa -48 + ^ x25: .cfa -56 + ^ x26: .cfa -64 + ^ x27: .cfa -80 + ^ .ra: .cfa -88 + ^ x29: .cfa -96 + ^
STACK CFI b1c0 .cfa: sp 128 +
STACK CFI b1dc .cfa: sp 0 +
STACK CFI b1e0 .cfa: x29 96 +
STACK CFI INIT b224 50 .cfa: sp 0 +
STACK CFI b228 .cfa: sp 32 +
STACK CFI b230 .cfa: x29 32 + x19: .cfa -8 + ^ x20: .cfa -16 + ^ .ra: .cfa -24 + ^ x29: .cfa -32 + ^
STACK CFI INIT b2d8 178 .cfa: sp 0 +
STACK CFI b2dc .cfa: sp 80 +
STACK CFI b2f0 .cfa: x29 80 + x19: .cfa -8 + ^ x20: .cfa -16 + ^ x21: .cfa -24 + ^ x22: .cfa -32 + ^ x23: .cfa -40 + ^ x24: .cfa -48 + ^ x25: .cfa -64 + ^ .ra: .cfa -72 + ^ x29: .cfa -80 + ^
STACK CFI b41c .cfa: sp 80 +
STACK CFI b430 .cfa: sp 0 +
STACK CFI b434 .cfa: x29 80 +
STACK CFI INIT b598 224 .cfa: sp 0 +
STACK CFI b59c .cfa: sp 128 +
STACK CFI b5b4 .cfa: x29 80 + x19: .cfa -8 + ^ x20: .cfa -16 + ^ x21: .cfa -24 + ^ x22: .cfa -32 + ^ x23: .cfa -40 + ^ x24: .cfa -48 + ^ x25: .cfa -64 + ^ .ra: .cfa -72 + ^ x29: .cfa -80 + ^
STACK CFI b750 .cfa: sp 128 +
STACK CFI b768 .cfa: sp 0 +
STACK CFI b76c .cfa: x29 80 +
STACK CFI INIT bf18 154 .cfa: sp 0 +
STACK CFI bf1c .cfa: sp 80 +
STACK CFI bf2c .cfa: x29 48 + x19: .cfa -8 + ^ x20: .cfa -16 + ^ x21: .cfa -24 + ^ x22: .cfa -32 + ^ .ra: .cfa -40 + ^ x29: .cfa -48 + ^
STACK CFI c028 .cfa: sp 80 +
STACK CFI c038 .cfa: sp 0 +
STACK CFI c03c .cfa: x29 48 +
STACK CFI INIT c06c a8 .cfa: sp 0 +
STACK CFI c070 .cfa: sp 32 +
STACK CFI c078 .cfa: x29 32 + x19: .cfa -16 + ^ .ra: .cfa -24 + ^ x29: .cfa -32 + ^
STACK CFI c0ac .cfa: sp 32 +
STACK CFI c0b4 .cfa: sp 0 +
STACK CFI c0b8 .cfa: x29 32 +
STACK CFI c0bc .cfa: sp 32 +
STACK CFI c0c4 .cfa: sp 0 +
STACK CFI c0c8 .cfa: x29 32 +
STACK CFI INIT c268 15c .cfa: sp 0 +
STACK CFI c26c .cfa: sp 80 +
STACK CFI c27c .cfa: x29 48 + x19: .cfa -8 + ^ x20: .cfa -16 + ^ x21: .cfa -32 + ^ .ra: .cfa -40 + ^ x29: .cfa -48 + ^
STACK CFI c2ec .cfa: sp 80 +
STACK CFI c2fc .cfa: sp 0 +
STACK CFI c300 .cfa: x29 48 +
STACK CFI c378 .cfa: sp 80 +
STACK CFI c388 .cfa: sp 0 +
STACK CFI c38c .cfa: x29 48 +
STACK CFI INIT c6dc 3a4 .cfa: sp 0 +
STACK CFI c6e0 .cfa: sp 224 +
STACK CFI c6f8 .cfa: x29 80 + x19: .cfa -8 + ^ x20: .cfa -16 + ^ x21: .cfa -24 + ^ x22: .cfa -32 + ^ x23: .cfa -40 + ^ x24: .cfa -48 + ^ x25: .cfa -64 + ^ .ra: .cfa -72 + ^ x29: .cfa -80 + ^
STACK CFI c94c .cfa: sp 224 +
STACK CFI c964 .cfa: sp 0 +
STACK CFI c968 .cfa: x29 80 +
STACK CFI INIT cb14 134 .cfa: sp 0 +
STACK CFI cb18 .cfa: sp 80 +
STACK CFI cb24 .cfa: x29 32 + x19: .cfa -8 + ^ x20: .cfa -16 + ^ .ra: .cfa -24 + ^ x29: .cfa -32 + ^
STACK CFI cb54 .cfa: sp 80 +
STACK CFI cb60 .cfa: sp 0 +
STACK CFI cb64 .cfa: x29 32 +
STACK CFI INIT cc48 78 .cfa: sp 0 +
STACK CFI cc4c .cfa: sp 32 +
STACK CFI cc54 .cfa: x29 32 + x19: .cfa -8 + ^ x20: .cfa -16 + ^ .ra: .cfa -24 + ^ x29: .cfa -32 + ^
STACK CFI cc60 .cfa: sp 32 +
STACK CFI cc68 .cfa: sp 0 +
STACK CFI cc6c .cfa: x29 32 +
STACK CFI INIT ccc0 74 .cfa: sp 0 +
STACK CFI ccc4 .cfa: sp 48 +
STACK CFI ccd0 .cfa: x29 32 + x19: .cfa -8 + ^ x20: .cfa -16 + ^ .ra: .cfa -24 + ^ x29: .cfa -32 + ^
STACK CFI cd1c .cfa: sp 48 +
STACK CFI cd28 .cfa: sp 0 +
STACK CFI cd2c .cfa: x29 32 +
STACK CFI INIT cd98 1b8 .cfa: sp 0 +
STACK CFI cd9c .cfa: sp 160 +
STACK CFI cdb8 .cfa: x29 72 + x19: .cfa -8 + ^ x20: .cfa -16 + ^ x21: .cfa -24 + ^ x22: .cfa -32 + ^ x23: .cfa -40 + ^ x24: .cfa -48 + ^ x25: .cfa -56 + ^ .ra: .cfa -64 + ^ x29: .cfa -72 + ^ v8: .cfa -80 + ^
STACK CFI ce3c .cfa: sp 160 +
STACK CFI ce58 .cfa: sp 0 +
STACK CFI ce5c .cfa: x29 72 +
STACK CFI INIT cf50 4e4 .cfa: sp 0 +
STACK CFI cf54 .cfa: sp 96 +
STACK CFI cf6c .cfa: x29 80 + x19: .cfa -8 + ^ x20: .cfa -16 + ^ x21: .cfa -24 + ^ x22: .cfa -32 + ^ x23: .cfa -40 + ^ x24: .cfa -48 + ^ x25: .cfa -64 + ^ .ra: .cfa -72 + ^ x29: .cfa -80 + ^
STACK CFI d3b0 .cfa: sp 96 +
STACK CFI d3c8 .cfa: sp 0 +
STACK CFI d3cc .cfa: x29 80 +
STACK CFI INIT d434 154 .cfa: sp 0 +
STACK CFI d438 .cfa: sp 384 +
STACK CFI d44c .cfa: x29 64 + x19: .cfa -8 + ^ x20: .cfa -16 + ^ x21: .cfa -24 + ^ x22: .cfa -32 + ^ x23: .cfa -40 + ^ x28: .cfa -48 + ^ .ra: .cfa -56 + ^ x29: .cfa -64 + ^
STACK CFI d530 .cfa: sp 384 +
STACK CFI d544 .cfa: sp 0 +
STACK CFI d548 .cfa: x29 64 +
STACK CFI INIT d588 168 .cfa: sp 0 +
STACK CFI d58c .cfa: sp 384 +
STACK CFI d5a0 .cfa: x29 64 + x19: .cfa -8 + ^ x20: .cfa -16 + ^ x21: .cfa -24 + ^ x22: .cfa -32 + ^ x23: .cfa -40 + ^ x28: .cfa -48 + ^ .ra: .cfa -56 + ^ x29: .cfa -64 + ^
STACK CFI d698 .cfa: sp 384 +
STACK CFI d6ac .cfa: sp 0 +
STACK CFI d6b0 .cfa: x29 64 +
