MODULE Linux arm64 182D9B8E0A731ABF62573503117DA4170 legowiifun.cheat_api.android64.so
INFO CODE_ID 8E9B2D18730ABF1A62573503117DA4176F2EF257
INFO GENERATOR mozilla/dump_syms 2.3.4
PUBLIC 3b30 0 __on_dlclose
PUBLIC 3b40 0 __emutls_unregister_key
PUBLIC 3b48 0 __on_dlclose_late
PUBLIC 3b50 0 __atexit_handler_wrapper
PUBLIC 3b64 0 atexit
PUBLIC 3b80 0 pthread_atfork
PUBLIC 3b90 0 __aarch64_ldadd8_relax
PUBLIC 3bc0 0 init_have_lse_atomics
PUBLIC 3c58 0 __init_cpu_features_constructor
PUBLIC 41f4 0 __init_cpu_features
PUBLIC 4280 0 __aarch64_ldadd8_acq_rel
PUBLIC m 42b0 0 cheatAPI::setSetting()
PUBLIC 4580 0 geode::Mod::getSettingValue<std::__ndk1::basic_string<char, std::__ndk1::char_traits<char>, std::__ndk1::allocator<char> > >(std::__ndk1::basic_string_view<char, std::__ndk1::char_traits<char> >) const
PUBLIC m 4708 0 cheatAPI::isCheating(rulesets)
PUBLIC m 4794 0 cheatAPI::isCheating()
PUBLIC m 47c0 0 cheatAPI::setCheat(rulesets)
PUBLIC m 47e4 0 cheatAPI::setCheat()
PUBLIC m 4848 0 cheatAPI::endCheat(rulesets)
PUBLIC m 486c 0 cheatAPI::endCheat()
PUBLIC 48d0 0 __clang_call_terminate
PUBLIC 48e0 0 std::__ndk1::shared_ptr<geode::StringSettingV3>::~shared_ptr[abi:ne180000]()
PUBLIC 4930 0 geode::cast::traverseTypeinfoFor(void*, geode::cast::ClassTypeinfoType const*, char const*)
PUBLIC 4a34 0 std::__ndk1::basic_string<char, std::__ndk1::char_traits<char>, std::__ndk1::allocator<char> >::__init_copy_ctor_external(char const*, unsigned long)
PUBLIC 4ab4 0 std::__ndk1::basic_string<char, std::__ndk1::char_traits<char>, std::__ndk1::allocator<char> >::__throw_length_error[abi:ne180000]() const
PUBLIC 4ac8 0 std::__ndk1::__throw_length_error[abi:ne180000](char const*)
PUBLIC 4b18 0 std::length_error::length_error[abi:ne180000](char const*)
PUBLIC 4b48 0 geode::EventListener<geode::DispatchFilter<> >::EventListener(geode::ListenerResult (*)(), geode::DispatchFilter<>)
PUBLIC 4c30 0 geode::EventListener<geode::DispatchFilter<std::__ndk1::basic_string<char, std::__ndk1::char_traits<char>, std::__ndk1::allocator<char> > > >::EventListener(geode::ListenerResult (*)(std::__ndk1::basic_string<char, std::__ndk1::char_traits<char>, std::__ndk1::allocator<char> >), geode::DispatchFilter<std::__ndk1::basic_string<char, std::__ndk1::char_traits<char>, std::__ndk1::allocator<char> > >)
PUBLIC 4d18 0 geodeExecFunction23<(anonymous namespace)::ExecFuncUnique23>()::{lambda()#1}::__invoke()
PUBLIC 4d80 0 std::__throw_bad_array_new_length([abi:ne180000], void)
PUBLIC 4db4 0 geode::EventListener<geode::DispatchFilter<> >::getPool() const
PUBLIC 4e18 0 geode::EventListener<geode::DispatchFilter<> >::handle(geode::Event*)
PUBLIC 50bc 0 geode::EventListener<geode::DispatchFilter<> >::~EventListener()
PUBLIC 5128 0 geode::EventListener<geode::DispatchFilter<> >::~EventListener()
PUBLIC 519c 0 std::__ndk1::__function::__base<geode::ListenerResult()>::~__base()
PUBLIC 51a0 0 std::__ndk1::__function::__func<geode::ListenerResult (*)(), std::__ndk1::allocator<geode::ListenerResult (*)()>, geode::ListenerResult()>::~__func()
PUBLIC 51a4 0 std::__ndk1::__function::__func<geode::ListenerResult (*)(), std::__ndk1::allocator<geode::ListenerResult (*)()>, geode::ListenerResult()>::__clone() const
PUBLIC 51d8 0 std::__ndk1::__function::__func<geode::ListenerResult (*)(), std::__ndk1::allocator<geode::ListenerResult (*)()>, geode::ListenerResult()>::__clone(std::__ndk1::__function::__base<geode::ListenerResult()>*) const
PUBLIC 51ec 0 std::__ndk1::__function::__func<geode::ListenerResult (*)(), std::__ndk1::allocator<geode::ListenerResult (*)()>, geode::ListenerResult()>::destroy()
PUBLIC 51f0 0 std::__ndk1::__function::__func<geode::ListenerResult (*)(), std::__ndk1::allocator<geode::ListenerResult (*)()>, geode::ListenerResult()>::destroy_deallocate()
PUBLIC 51f4 0 std::__ndk1::__function::__func<geode::ListenerResult (*)(), std::__ndk1::allocator<geode::ListenerResult (*)()>, geode::ListenerResult()>::operator()()
PUBLIC 51fc 0 std::__ndk1::__function::__func<geode::ListenerResult (*)(), std::__ndk1::allocator<geode::ListenerResult (*)()>, geode::ListenerResult()>::target(std::type_info const&) const
PUBLIC 5218 0 std::__ndk1::__function::__func<geode::ListenerResult (*)(), std::__ndk1::allocator<geode::ListenerResult (*)()>, geode::ListenerResult()>::target_type() const
PUBLIC 5224 0 std::__ndk1::__hash_table<std::__ndk1::__hash_value_type<std::__ndk1::basic_string<char, std::__ndk1::char_traits<char>, std::__ndk1::allocator<char> >, geode::EventListenerPool*>, std::__ndk1::__unordered_map_hasher<std::__ndk1::basic_string<char, std::__ndk1::char_traits<char>, std::__ndk1::allocator<char> >, std::__ndk1::__hash_value_type<std::__ndk1::basic_string<char, std::__ndk1::char_traits<char>, std::__ndk1::allocator<char> >, geode::EventListenerPool*>, std::__ndk1::hash<std::__ndk1::basic_string<char, std::__ndk1::char_traits<char>, std::__ndk1::allocator<char> > >, std::__ndk1::equal_to<std::__ndk1::basic_string<char, std::__ndk1::char_traits<char>, std::__ndk1::allocator<char> > >, true>, std::__ndk1::__unordered_map_equal<std::__ndk1::basic_string<char, std::__ndk1::char_traits<char>, std::__ndk1::allocator<char> >, std::__ndk1::__hash_value_type<std::__ndk1::basic_string<char, std::__ndk1::char_traits<char>, std::__ndk1::allocator<char> >, geode::EventListenerPool*>, std::__ndk1::equal_to<std::__ndk1::basic_string<char, std::__ndk1::char_traits<char>, std::__ndk1::allocator<char> > >, std::__ndk1::hash<std::__ndk1::basic_string<char, std::__ndk1::char_traits<char>, std::__ndk1::allocator<char> > >, true>, std::__ndk1::allocator<std::__ndk1::__hash_value_type<std::__ndk1::basic_string<char, std::__ndk1::char_traits<char>, std::__ndk1::allocator<char> >, geode::EventListenerPool*> > >::find<std::__ndk1::basic_string<char, std::__ndk1::char_traits<char>, std::__ndk1::allocator<char> > >(std::__ndk1::basic_string<char, std::__ndk1::char_traits<char>, std::__ndk1::allocator<char> > const&) const
PUBLIC 5454 0 std::__ndk1::__murmur2_or_cityhash<unsigned long, (unsigned long)64>::operator()[abi:ne180000](void const*, unsigned long) const
PUBLIC 58ac 0 std::__ndk1::__hash_table<std::__ndk1::__hash_value_type<std::__ndk1::basic_string<char, std::__ndk1::char_traits<char>, std::__ndk1::allocator<char> >, geode::EventListenerPool*>, std::__ndk1::__unordered_map_hasher<std::__ndk1::basic_string<char, std::__ndk1::char_traits<char>, std::__ndk1::allocator<char> >, std::__ndk1::__hash_value_type<std::__ndk1::basic_string<char, std::__ndk1::char_traits<char>, std::__ndk1::allocator<char> >, geode::EventListenerPool*>, std::__ndk1::hash<std::__ndk1::basic_string<char, std::__ndk1::char_traits<char>, std::__ndk1::allocator<char> > >, std::__ndk1::equal_to<std::__ndk1::basic_string<char, std::__ndk1::char_traits<char>, std::__ndk1::allocator<char> > >, true>, std::__ndk1::__unordered_map_equal<std::__ndk1::basic_string<char, std::__ndk1::char_traits<char>, std::__ndk1::allocator<char> >, std::__ndk1::__hash_value_type<std::__ndk1::basic_string<char, std::__ndk1::char_traits<char>, std::__ndk1::allocator<char> >, geode::EventListenerPool*>, std::__ndk1::equal_to<std::__ndk1::basic_string<char, std::__ndk1::char_traits<char>, std::__ndk1::allocator<char> > >, std::__ndk1::hash<std::__ndk1::basic_string<char, std::__ndk1::char_traits<char>, std::__ndk1::allocator<char> > >, true>, std::__ndk1::allocator<std::__ndk1::__hash_value_type<std::__ndk1::basic_string<char, std::__ndk1::char_traits<char>, std::__ndk1::allocator<char> >, geode::EventListenerPool*> > >::__emplace_unique_key_args<std::__ndk1::basic_string<char, std::__ndk1::char_traits<char>, std::__ndk1::allocator<char> >, std::__ndk1::piecewise_construct_t const&, std::__ndk1::tuple<std::__ndk1::basic_string<char, std::__ndk1::char_traits<char>, std::__ndk1::allocator<char> > const&>, std::__ndk1::tuple<> >(std::__ndk1::basic_string<char, std::__ndk1::char_traits<char>, std::__ndk1::allocator<char> > const&, std::__ndk1::piecewise_construct_t const&, std::__ndk1::tuple<std::__ndk1::basic_string<char, std::__ndk1::char_traits<char>, std::__ndk1::allocator<char> > const&>, std::__ndk1::tuple<>)
PUBLIC 5ee0 0 std::__ndk1::unique_ptr<std::__ndk1::__hash_node<std::__ndk1::__hash_value_type<std::__ndk1::basic_string<char, std::__ndk1::char_traits<char>, std::__ndk1::allocator<char> >, geode::EventListenerPool*>, void*>, std::__ndk1::__hash_node_destructor<std::__ndk1::allocator<std::__ndk1::__hash_node<std::__ndk1::__hash_value_type<std::__ndk1::basic_string<char, std::__ndk1::char_traits<char>, std::__ndk1::allocator<char> >, geode::EventListenerPool*>, void*> > > >::~unique_ptr[abi:ne180000]()
PUBLIC 5f30 0 std::__ndk1::__throw_bad_function_call[abi:ne180000]()
PUBLIC 5f64 0 std::__ndk1::bad_function_call::~bad_function_call()
PUBLIC 5f88 0 geodeExecFunction23<(anonymous namespace)::ExecFuncUnique23>()::{lambda(std::__ndk1::basic_string<char, std::__ndk1::char_traits<char>, std::__ndk1::allocator<char> >(std::__ndk1::basic_string<char, std::__ndk1::char_traits<char>, std::__ndk1::allocator<char> >))#1}::__invoke
PUBLIC 61cc 0 geode::EventListener<geode::DispatchFilter<std::__ndk1::basic_string<char, std::__ndk1::char_traits<char>, std::__ndk1::allocator<char> > > >::getPool() const
PUBLIC 6230 0 geode::EventListener<geode::DispatchFilter<std::__ndk1::basic_string<char, std::__ndk1::char_traits<char>, std::__ndk1::allocator<char> > > >::handle(geode::Event*)
PUBLIC 658c 0 geode::EventListener<geode::DispatchFilter<std::__ndk1::basic_string<char, std::__ndk1::char_traits<char>, std::__ndk1::allocator<char> > > >::~EventListener()
PUBLIC 65f8 0 geode::EventListener<geode::DispatchFilter<std::__ndk1::basic_string<char, std::__ndk1::char_traits<char>, std::__ndk1::allocator<char> > > >::~EventListener()
PUBLIC 666c 0 std::__ndk1::__function::__base<geode::ListenerResult(std::__ndk1::basic_string<char, std::__ndk1::char_traits<char>, std::__ndk1::allocator<char> >)>::~__base()
PUBLIC 6670 0 std::__ndk1::__function::__func<geode::ListenerResult (*)(std::__ndk1::basic_string<char, std::__ndk1::char_traits<char>, std::__ndk1::allocator<char> >), std::__ndk1::allocator<geode::ListenerResult (*)(std::__ndk1::basic_string<char, std::__ndk1::char_traits<char>, std::__ndk1::allocator<char> >)>, geode::ListenerResult(std::__ndk1::basic_string<char, std::__ndk1::char_traits<char>, std::__ndk1::allocator<char> >)>::~__func()
PUBLIC 6674 0 std::__ndk1::__function::__func<geode::ListenerResult (*)(std::__ndk1::basic_string<char, std::__ndk1::char_traits<char>, std::__ndk1::allocator<char> >), std::__ndk1::allocator<geode::ListenerResult (*)(std::__ndk1::basic_string<char, std::__ndk1::char_traits<char>, std::__ndk1::allocator<char> >)>, geode::ListenerResult(std::__ndk1::basic_string<char, std::__ndk1::char_traits<char>, std::__ndk1::allocator<char> >)>::__clone() const
PUBLIC 66a8 0 std::__ndk1::__function::__func<geode::ListenerResult (*)(std::__ndk1::basic_string<char, std::__ndk1::char_traits<char>, std::__ndk1::allocator<char> >), std::__ndk1::allocator<geode::ListenerResult (*)(std::__ndk1::basic_string<char, std::__ndk1::char_traits<char>, std::__ndk1::allocator<char> >)>, geode::ListenerResult(std::__ndk1::basic_string<char, std::__ndk1::char_traits<char>, std::__ndk1::allocator<char> >)>::__clone(std::__ndk1::__function::__base<geode::ListenerResult(std::__ndk1::basic_string<char, std::__ndk1::char_traits<char>, std::__ndk1::allocator<char> >)>*) const
PUBLIC 66bc 0 std::__ndk1::__function::__func<geode::ListenerResult (*)(std::__ndk1::basic_string<char, std::__ndk1::char_traits<char>, std::__ndk1::allocator<char> >), std::__ndk1::allocator<geode::ListenerResult (*)(std::__ndk1::basic_string<char, std::__ndk1::char_traits<char>, std::__ndk1::allocator<char> >)>, geode::ListenerResult(std::__ndk1::basic_string<char, std::__ndk1::char_traits<char>, std::__ndk1::allocator<char> >)>::destroy()
PUBLIC 66c0 0 std::__ndk1::__function::__func<geode::ListenerResult (*)(std::__ndk1::basic_string<char, std::__ndk1::char_traits<char>, std::__ndk1::allocator<char> >), std::__ndk1::allocator<geode::ListenerResult (*)(std::__ndk1::basic_string<char, std::__ndk1::char_traits<char>, std::__ndk1::allocator<char> >)>, geode::ListenerResult(std::__ndk1::basic_string<char, std::__ndk1::char_traits<char>, std::__ndk1::allocator<char> >)>::destroy_deallocate()
PUBLIC 66c4 0 std::__ndk1::__function::__func<geode::ListenerResult (*)(std::__ndk1::basic_string<char, std::__ndk1::char_traits<char>, std::__ndk1::allocator<char> >), std::__ndk1::allocator<geode::ListenerResult (*)(std::__ndk1::basic_string<char, std::__ndk1::char_traits<char>, std::__ndk1::allocator<char> >)>, geode::ListenerResult(std::__ndk1::basic_string<char, std::__ndk1::char_traits<char>, std::__ndk1::allocator<char> >)>::operator()(std::__ndk1::basic_string<char, std::__ndk1::char_traits<char>, std::__ndk1::allocator<char> >&&)
PUBLIC 6770 0 std::__ndk1::__function::__func<geode::ListenerResult (*)(std::__ndk1::basic_string<char, std::__ndk1::char_traits<char>, std::__ndk1::allocator<char> >), std::__ndk1::allocator<geode::ListenerResult (*)(std::__ndk1::basic_string<char, std::__ndk1::char_traits<char>, std::__ndk1::allocator<char> >)>, geode::ListenerResult(std::__ndk1::basic_string<char, std::__ndk1::char_traits<char>, std::__ndk1::allocator<char> >)>::target(std::type_info const&) const
PUBLIC 678c 0 std::__ndk1::__function::__func<geode::ListenerResult (*)(std::__ndk1::basic_string<char, std::__ndk1::char_traits<char>, std::__ndk1::allocator<char> >), std::__ndk1::allocator<geode::ListenerResult (*)(std::__ndk1::basic_string<char, std::__ndk1::char_traits<char>, std::__ndk1::allocator<char> >)>, geode::ListenerResult(std::__ndk1::basic_string<char, std::__ndk1::char_traits<char>, std::__ndk1::allocator<char> >)>::target_type() const
PUBLIC 6798 0 geodeExecFunction23<(anonymous namespace)::ExecFuncUnique23>()::{lambda()#2}::__invoke()
PUBLIC 6800 0 geodeExecFunction23<(anonymous namespace)::ExecFuncUnique23>()::{lambda(std::__ndk1::basic_string<char, std::__ndk1::char_traits<char>, std::__ndk1::allocator<char> >(std::__ndk1::basic_string<char, std::__ndk1::char_traits<char>, std::__ndk1::allocator<char> >))#2}::__invoke
PUBLIC 6a44 0 geodeExecFunction23<(anonymous namespace)::ExecFuncUnique23>()::{lambda(bool*)#1}::__invoke(bool*)
PUBLIC 6a84 0 geode::EventListener<geode::DispatchFilter<bool*> >::getPool() const
PUBLIC 6ae8 0 geode::EventListener<geode::DispatchFilter<bool*> >::handle(geode::Event*)
PUBLIC 6d98 0 geode::EventListener<geode::DispatchFilter<bool*> >::~EventListener()
PUBLIC 6e04 0 geode::EventListener<geode::DispatchFilter<bool*> >::~EventListener()
PUBLIC 6e78 0 std::__ndk1::__function::__base<geode::ListenerResult(bool*)>::~__base()
PUBLIC 6e7c 0 std::__ndk1::__function::__func<geode::ListenerResult (*)(bool*), std::__ndk1::allocator<geode::ListenerResult (*)(bool*)>, geode::ListenerResult(bool*)>::~__func()
PUBLIC 6e80 0 std::__ndk1::__function::__func<geode::ListenerResult (*)(bool*), std::__ndk1::allocator<geode::ListenerResult (*)(bool*)>, geode::ListenerResult(bool*)>::__clone() const
PUBLIC 6eb4 0 std::__ndk1::__function::__func<geode::ListenerResult (*)(bool*), std::__ndk1::allocator<geode::ListenerResult (*)(bool*)>, geode::ListenerResult(bool*)>::__clone(std::__ndk1::__function::__base<geode::ListenerResult(bool*)>*) const
PUBLIC 6ec8 0 std::__ndk1::__function::__func<geode::ListenerResult (*)(bool*), std::__ndk1::allocator<geode::ListenerResult (*)(bool*)>, geode::ListenerResult(bool*)>::destroy()
PUBLIC 6ecc 0 std::__ndk1::__function::__func<geode::ListenerResult (*)(bool*), std::__ndk1::allocator<geode::ListenerResult (*)(bool*)>, geode::ListenerResult(bool*)>::destroy_deallocate()
PUBLIC 6ed0 0 std::__ndk1::__function::__func<geode::ListenerResult (*)(bool*), std::__ndk1::allocator<geode::ListenerResult (*)(bool*)>, geode::ListenerResult(bool*)>::operator()(bool*&&)
PUBLIC 6ee0 0 std::__ndk1::__function::__func<geode::ListenerResult (*)(bool*), std::__ndk1::allocator<geode::ListenerResult (*)(bool*)>, geode::ListenerResult(bool*)>::target(std::type_info const&) const
PUBLIC 6efc 0 std::__ndk1::__function::__func<geode::ListenerResult (*)(bool*), std::__ndk1::allocator<geode::ListenerResult (*)(bool*)>, geode::ListenerResult(bool*)>::target_type() const
PUBLIC 6f08 0 geodeExecFunction23<(anonymous namespace)::ExecFuncUnique23>()::{lambda(std::__ndk1::basic_string<char, std::__ndk1::char_traits<char>, std::__ndk1::allocator<char> >(std::__ndk1::basic_string<char, std::__ndk1::char_traits<char>, std::__ndk1::allocator<char> >, bool*), bool*)#1}::__invoke
PUBLIC 70d8 0 geode::EventListener<geode::DispatchFilter<std::__ndk1::basic_string<char, std::__ndk1::char_traits<char>, std::__ndk1::allocator<char> >, bool*> >::getPool() const
PUBLIC 713c 0 geode::EventListener<geode::DispatchFilter<std::__ndk1::basic_string<char, std::__ndk1::char_traits<char>, std::__ndk1::allocator<char> >, bool*> >::handle(geode::Event*)
PUBLIC 74a0 0 geode::EventListener<geode::DispatchFilter<std::__ndk1::basic_string<char, std::__ndk1::char_traits<char>, std::__ndk1::allocator<char> >, bool*> >::~EventListener()
PUBLIC 750c 0 geode::EventListener<geode::DispatchFilter<std::__ndk1::basic_string<char, std::__ndk1::char_traits<char>, std::__ndk1::allocator<char> >, bool*> >::~EventListener()
PUBLIC 7580 0 std::__ndk1::__function::__base<geode::ListenerResult(std::__ndk1::basic_string<char, std::__ndk1::char_traits<char>, std::__ndk1::allocator<char> >, bool*)>::~__base()
PUBLIC 7584 0 std::__ndk1::__function::__func<geode::ListenerResult (*)(std::__ndk1::basic_string<char, std::__ndk1::char_traits<char>, std::__ndk1::allocator<char> >, bool*), std::__ndk1::allocator<geode::ListenerResult (*)(std::__ndk1::basic_string<char, std::__ndk1::char_traits<char>, std::__ndk1::allocator<char> >, bool*)>, geode::ListenerResult(std::__ndk1::basic_string<char, std::__ndk1::char_traits<char>, std::__ndk1::allocator<char> >, bool*)>::~__func()
PUBLIC 7588 0 std::__ndk1::__function::__func<geode::ListenerResult (*)(std::__ndk1::basic_string<char, std::__ndk1::char_traits<char>, std::__ndk1::allocator<char> >, bool*), std::__ndk1::allocator<geode::ListenerResult (*)(std::__ndk1::basic_string<char, std::__ndk1::char_traits<char>, std::__ndk1::allocator<char> >, bool*)>, geode::ListenerResult(std::__ndk1::basic_string<char, std::__ndk1::char_traits<char>, std::__ndk1::allocator<char> >, bool*)>::__clone() const
PUBLIC 75bc 0 std::__ndk1::__function::__func<geode::ListenerResult (*)(std::__ndk1::basic_string<char, std::__ndk1::char_traits<char>, std::__ndk1::allocator<char> >, bool*), std::__ndk1::allocator<geode::ListenerResult (*)(std::__ndk1::basic_string<char, std::__ndk1::char_traits<char>, std::__ndk1::allocator<char> >, bool*)>, geode::ListenerResult(std::__ndk1::basic_string<char, std::__ndk1::char_traits<char>, std::__ndk1::allocator<char> >, bool*)>::__clone(std::__ndk1::__function::__base<geode::ListenerResult(std::__ndk1::basic_string<char, std::__ndk1::char_traits<char>, std::__ndk1::allocator<char> >, bool*)>*) const
PUBLIC 75d0 0 std::__ndk1::__function::__func<geode::ListenerResult (*)(std::__ndk1::basic_string<char, std::__ndk1::char_traits<char>, std::__ndk1::allocator<char> >, bool*), std::__ndk1::allocator<geode::ListenerResult (*)(std::__ndk1::basic_string<char, std::__ndk1::char_traits<char>, std::__ndk1::allocator<char> >, bool*)>, geode::ListenerResult(std::__ndk1::basic_string<char, std::__ndk1::char_traits<char>, std::__ndk1::allocator<char> >, bool*)>::destroy()
PUBLIC 75d4 0 std::__ndk1::__function::__func<geode::ListenerResult (*)(std::__ndk1::basic_string<char, std::__ndk1::char_traits<char>, std::__ndk1::allocator<char> >, bool*), std::__ndk1::allocator<geode::ListenerResult (*)(std::__ndk1::basic_string<char, std::__ndk1::char_traits<char>, std::__ndk1::allocator<char> >, bool*)>, geode::ListenerResult(std::__ndk1::basic_string<char, std::__ndk1::char_traits<char>, std::__ndk1::allocator<char> >, bool*)>::destroy_deallocate()
PUBLIC 75d8 0 std::__ndk1::__function::__func<geode::ListenerResult (*)(std::__ndk1::basic_string<char, std::__ndk1::char_traits<char>, std::__ndk1::allocator<char> >, bool*), std::__ndk1::allocator<geode::ListenerResult (*)(std::__ndk1::basic_string<char, std::__ndk1::char_traits<char>, std::__ndk1::allocator<char> >, bool*)>, geode::ListenerResult(std::__ndk1::basic_string<char, std::__ndk1::char_traits<char>, std::__ndk1::allocator<char> >, bool*)>::operator()(std::__ndk1::basic_string<char, std::__ndk1::char_traits<char>, std::__ndk1::allocator<char> >&&, bool*&&)
PUBLIC 7688 0 std::__ndk1::__function::__func<geode::ListenerResult (*)(std::__ndk1::basic_string<char, std::__ndk1::char_traits<char>, std::__ndk1::allocator<char> >, bool*), std::__ndk1::allocator<geode::ListenerResult (*)(std::__ndk1::basic_string<char, std::__ndk1::char_traits<char>, std::__ndk1::allocator<char> >, bool*)>, geode::ListenerResult(std::__ndk1::basic_string<char, std::__ndk1::char_traits<char>, std::__ndk1::allocator<char> >, bool*)>::target(std::type_info const&) const
PUBLIC 76a4 0 std::__ndk1::__function::__func<geode::ListenerResult (*)(std::__ndk1::basic_string<char, std::__ndk1::char_traits<char>, std::__ndk1::allocator<char> >, bool*), std::__ndk1::allocator<geode::ListenerResult (*)(std::__ndk1::basic_string<char, std::__ndk1::char_traits<char>, std::__ndk1::allocator<char> >, bool*)>, geode::ListenerResult(std::__ndk1::basic_string<char, std::__ndk1::char_traits<char>, std::__ndk1::allocator<char> >, bool*)>::target_type() const
PUBLIC 76b0 0 _GLOBAL__sub_I_optionalEvents.cpp
PUBLIC m 7c00 0 geodeImplicitEntry
PUBLIC 7c40 0 <.plt ELF section in legowiifun.cheat_api.android64.so>
STACK CFI INIT 3b30 10 .cfa: sp 0 +
STACK CFI INIT 3b40 8 .cfa: sp 0 +
STACK CFI INIT 3b48 8 .cfa: sp 0 +
STACK CFI INIT 3b50 14 .cfa: sp 0 +
STACK CFI INIT 3b64 1c .cfa: sp 0 +
STACK CFI INIT 3b80 10 .cfa: sp 0 +
STACK CFI INIT 3b90 30 .cfa: sp 0 +
STACK CFI INIT 3bc0 98 .cfa: sp 0 +
STACK CFI INIT 3c58 59c .cfa: sp 0 +
STACK CFI INIT 41f4 8c .cfa: sp 0 +
STACK CFI INIT 4280 30 .cfa: sp 0 +
STACK CFI INIT 42b0 2d0 .cfa: sp 0 +
STACK CFI 42b4 .cfa: sp 64 +
STACK CFI 42c0 .cfa: x29 32 + x19: .cfa -8 + ^ x20: .cfa -16 + ^ .ra: .cfa -24 + ^ x29: .cfa -32 + ^
STACK CFI 4524 .cfa: sp 64 +
STACK CFI 4530 .cfa: sp 0 +
STACK CFI 4534 .cfa: x29 32 +
STACK CFI INIT 4708 8c .cfa: sp 0 +
STACK CFI INIT 4794 2c .cfa: sp 0 +
STACK CFI 4798 .cfa: sp 16 +
STACK CFI 479c .cfa: x29 16 + .ra: .cfa -8 + ^ x29: .cfa -16 + ^
STACK CFI 47b8 .cfa: sp 16 +
STACK CFI 47bc .cfa: sp 0 +
STACK CFI INIT 47c0 24 .cfa: sp 0 +
STACK CFI INIT 47e4 64 .cfa: sp 0 +
STACK CFI INIT 4848 24 .cfa: sp 0 +
STACK CFI INIT 486c 64 .cfa: sp 0 +
STACK CFI INIT 48d0 10 .cfa: sp 0 +
STACK CFI 48d4 .cfa: sp 16 +
STACK CFI 48d8 .cfa: x29 16 + .ra: .cfa -8 + ^ x29: .cfa -16 + ^
STACK CFI INIT 48e0 50 .cfa: sp 0 +
STACK CFI 48e4 .cfa: sp 32 +
STACK CFI 48ec .cfa: x29 32 + x19: .cfa -16 + ^ .ra: .cfa -24 + ^ x29: .cfa -32 + ^
STACK CFI 4904 .cfa: sp 32 +
STACK CFI 490c .cfa: sp 0 +
STACK CFI 4910 .cfa: x29 32 +
STACK CFI 4924 .cfa: sp 32 +
STACK CFI 492c .cfa: sp 0 +
STACK CFI INIT 4930 104 .cfa: sp 0 +
STACK CFI 4934 .cfa: sp 64 +
STACK CFI 4944 .cfa: x29 64 + x19: .cfa -8 + ^ x20: .cfa -16 + ^ x21: .cfa -24 + ^ x22: .cfa -32 + ^ x23: .cfa -48 + ^ .ra: .cfa -56 + ^ x29: .cfa -64 + ^
STACK CFI 49a0 .cfa: sp 64 +
STACK CFI 49b0 .cfa: sp 0 +
STACK CFI 49b4 .cfa: x29 64 +
STACK CFI 49d0 .cfa: sp 64 +
STACK CFI 49e0 .cfa: sp 0 +
STACK CFI 49e4 .cfa: x29 64 +
STACK CFI 4a20 .cfa: sp 64 +
STACK CFI 4a30 .cfa: sp 0 +
STACK CFI INIT 4a34 80 .cfa: sp 0 +
STACK CFI 4a38 .cfa: sp 48 +
STACK CFI 4a44 .cfa: x29 48 + x19: .cfa -8 + ^ x20: .cfa -16 + ^ x21: .cfa -24 + ^ x22: .cfa -32 + ^ .ra: .cfa -40 + ^ x29: .cfa -48 + ^
STACK CFI 4a5c .cfa: sp 48 +
STACK CFI 4a68 .cfa: sp 0 +
STACK CFI 4a6c .cfa: x29 48 +
STACK CFI 4a9c .cfa: sp 48 +
STACK CFI 4aa8 .cfa: sp 0 +
STACK CFI 4aac .cfa: x29 48 +
STACK CFI INIT 4ab4 14 .cfa: sp 0 +
STACK CFI 4ab8 .cfa: sp 16 +
STACK CFI 4abc .cfa: x29 16 + .ra: .cfa -8 + ^ x29: .cfa -16 + ^
STACK CFI INIT 4b18 30 .cfa: sp 0 +
STACK CFI 4b1c .cfa: sp 32 +
STACK CFI 4b24 .cfa: x29 32 + x19: .cfa -16 + ^ .ra: .cfa -24 + ^ x29: .cfa -32 + ^
STACK CFI 4b3c .cfa: sp 32 +
STACK CFI 4b44 .cfa: sp 0 +
STACK CFI INIT 4d18 68 .cfa: sp 0 +
STACK CFI INIT 4d80 34 .cfa: sp 0 +
STACK CFI 4d84 .cfa: sp 32 +
STACK CFI 4d8c .cfa: x29 32 + x19: .cfa -16 + ^ .ra: .cfa -24 + ^ x29: .cfa -32 + ^
STACK CFI INIT 4db4 64 .cfa: sp 0 +
STACK CFI 4db8 .cfa: sp 32 +
STACK CFI 4dc0 .cfa: x29 32 + x19: .cfa -8 + ^ x20: .cfa -16 + ^ .ra: .cfa -24 + ^ x29: .cfa -32 + ^
STACK CFI 4e0c .cfa: sp 32 +
STACK CFI 4e14 .cfa: sp 0 +
STACK CFI INIT 50bc 6c .cfa: sp 0 +
STACK CFI 50c0 .cfa: sp 32 +
STACK CFI 50c8 .cfa: x29 32 + x19: .cfa -16 + ^ .ra: .cfa -24 + ^ x29: .cfa -32 + ^
STACK CFI 511c .cfa: sp 32 +
STACK CFI 5124 .cfa: sp 0 +
STACK CFI INIT 5128 74 .cfa: sp 0 +
STACK CFI 512c .cfa: sp 32 +
STACK CFI 5134 .cfa: x29 32 + x19: .cfa -16 + ^ .ra: .cfa -24 + ^ x29: .cfa -32 + ^
STACK CFI 5190 .cfa: sp 32 +
STACK CFI 5198 .cfa: sp 0 +
STACK CFI INIT 519c 4 .cfa: sp 0 +
STACK CFI INIT 51a0 4 .cfa: sp 0 +
STACK CFI INIT 51a4 34 .cfa: sp 0 +
STACK CFI 51a8 .cfa: sp 32 +
STACK CFI 51b0 .cfa: x29 32 + x19: .cfa -16 + ^ .ra: .cfa -24 + ^ x29: .cfa -32 + ^
STACK CFI 51cc .cfa: sp 32 +
STACK CFI 51d4 .cfa: sp 0 +
STACK CFI INIT 51d8 14 .cfa: sp 0 +
STACK CFI INIT 51ec 4 .cfa: sp 0 +
STACK CFI INIT 51f0 4 .cfa: sp 0 +
STACK CFI INIT 51f4 8 .cfa: sp 0 +
STACK CFI INIT 51fc 1c .cfa: sp 0 +
STACK CFI INIT 5218 c .cfa: sp 0 +
STACK CFI INIT 5224 230 .cfa: sp 0 +
STACK CFI 5228 .cfa: sp 64 +
STACK CFI 5238 .cfa: x29 64 + x19: .cfa -8 + ^ x20: .cfa -16 + ^ x21: .cfa -24 + ^ x22: .cfa -32 + ^ x23: .cfa -40 + ^ x24: .cfa -48 + ^ .ra: .cfa -56 + ^ x29: .cfa -64 + ^
STACK CFI 5294 .cfa: sp 64 +
STACK CFI 52a4 .cfa: sp 0 +
STACK CFI 52a8 .cfa: x29 64 +
STACK CFI 5424 .cfa: sp 64 +
STACK CFI 5434 .cfa: sp 0 +
STACK CFI 5438 .cfa: x29 64 +
STACK CFI 5440 .cfa: sp 64 +
STACK CFI 5450 .cfa: sp 0 +
STACK CFI INIT 5454 458 .cfa: sp 0 +
STACK CFI INIT 5ee0 50 .cfa: sp 0 +
STACK CFI 5f04 .cfa: sp 32 +
STACK CFI 5f0c .cfa: x29 32 + x19: .cfa -16 + ^ .ra: .cfa -24 + ^ x29: .cfa -32 + ^
STACK CFI 5f20 .cfa: sp 32 +
STACK CFI 5f28 .cfa: sp 0 +
STACK CFI INIT 5f30 34 .cfa: sp 0 +
STACK CFI 5f34 .cfa: sp 16 +
STACK CFI 5f38 .cfa: x29 16 + .ra: .cfa -8 + ^ x29: .cfa -16 + ^
STACK CFI INIT 5f64 24 .cfa: sp 0 +
STACK CFI 5f68 .cfa: sp 32 +
STACK CFI 5f70 .cfa: x29 32 + x19: .cfa -16 + ^ .ra: .cfa -24 + ^ x29: .cfa -32 + ^
STACK CFI 5f7c .cfa: sp 32 +
STACK CFI 5f84 .cfa: sp 0 +
STACK CFI INIT 5f88 244 .cfa: sp 0 +
STACK CFI INIT 61cc 64 .cfa: sp 0 +
STACK CFI 61d0 .cfa: sp 32 +
STACK CFI 61d8 .cfa: x29 32 + x19: .cfa -8 + ^ x20: .cfa -16 + ^ .ra: .cfa -24 + ^ x29: .cfa -32 + ^
STACK CFI 6224 .cfa: sp 32 +
STACK CFI 622c .cfa: sp 0 +
STACK CFI INIT 658c 6c .cfa: sp 0 +
STACK CFI 6590 .cfa: sp 32 +
STACK CFI 6598 .cfa: x29 32 + x19: .cfa -16 + ^ .ra: .cfa -24 + ^ x29: .cfa -32 + ^
STACK CFI 65ec .cfa: sp 32 +
STACK CFI 65f4 .cfa: sp 0 +
STACK CFI INIT 65f8 74 .cfa: sp 0 +
STACK CFI 65fc .cfa: sp 32 +
STACK CFI 6604 .cfa: x29 32 + x19: .cfa -16 + ^ .ra: .cfa -24 + ^ x29: .cfa -32 + ^
STACK CFI 6660 .cfa: sp 32 +
STACK CFI 6668 .cfa: sp 0 +
STACK CFI INIT 666c 4 .cfa: sp 0 +
STACK CFI INIT 6670 4 .cfa: sp 0 +
STACK CFI INIT 6674 34 .cfa: sp 0 +
STACK CFI 6678 .cfa: sp 32 +
STACK CFI 6680 .cfa: x29 32 + x19: .cfa -16 + ^ .ra: .cfa -24 + ^ x29: .cfa -32 + ^
STACK CFI 669c .cfa: sp 32 +
STACK CFI 66a4 .cfa: sp 0 +
STACK CFI INIT 66a8 14 .cfa: sp 0 +
STACK CFI INIT 66bc 4 .cfa: sp 0 +
STACK CFI INIT 66c0 4 .cfa: sp 0 +
STACK CFI INIT 6770 1c .cfa: sp 0 +
STACK CFI INIT 678c c .cfa: sp 0 +
STACK CFI INIT 6798 68 .cfa: sp 0 +
STACK CFI INIT 6800 244 .cfa: sp 0 +
STACK CFI INIT 6a44 40 .cfa: sp 0 +
STACK CFI 6a48 .cfa: sp 32 +
STACK CFI 6a50 .cfa: x29 32 + x19: .cfa -16 + ^ .ra: .cfa -24 + ^ x29: .cfa -32 + ^
STACK CFI 6a78 .cfa: sp 32 +
STACK CFI 6a80 .cfa: sp 0 +
STACK CFI INIT 6a84 64 .cfa: sp 0 +
STACK CFI 6a88 .cfa: sp 32 +
STACK CFI 6a90 .cfa: x29 32 + x19: .cfa -8 + ^ x20: .cfa -16 + ^ .ra: .cfa -24 + ^ x29: .cfa -32 + ^
STACK CFI 6adc .cfa: sp 32 +
STACK CFI 6ae4 .cfa: sp 0 +
STACK CFI INIT 6d98 6c .cfa: sp 0 +
STACK CFI 6d9c .cfa: sp 32 +
STACK CFI 6da4 .cfa: x29 32 + x19: .cfa -16 + ^ .ra: .cfa -24 + ^ x29: .cfa -32 + ^
STACK CFI 6df8 .cfa: sp 32 +
STACK CFI 6e00 .cfa: sp 0 +
STACK CFI INIT 6e04 74 .cfa: sp 0 +
STACK CFI 6e08 .cfa: sp 32 +
STACK CFI 6e10 .cfa: x29 32 + x19: .cfa -16 + ^ .ra: .cfa -24 + ^ x29: .cfa -32 + ^
STACK CFI 6e6c .cfa: sp 32 +
STACK CFI 6e74 .cfa: sp 0 +
STACK CFI INIT 6e78 4 .cfa: sp 0 +
STACK CFI INIT 6e7c 4 .cfa: sp 0 +
STACK CFI INIT 6e80 34 .cfa: sp 0 +
STACK CFI 6e84 .cfa: sp 32 +
STACK CFI 6e8c .cfa: x29 32 + x19: .cfa -16 + ^ .ra: .cfa -24 + ^ x29: .cfa -32 + ^
STACK CFI 6ea8 .cfa: sp 32 +
STACK CFI 6eb0 .cfa: sp 0 +
STACK CFI INIT 6eb4 14 .cfa: sp 0 +
STACK CFI INIT 6ec8 4 .cfa: sp 0 +
STACK CFI INIT 6ecc 4 .cfa: sp 0 +
STACK CFI INIT 6ed0 10 .cfa: sp 0 +
STACK CFI INIT 6ee0 1c .cfa: sp 0 +
STACK CFI INIT 6efc c .cfa: sp 0 +
STACK CFI INIT 6f08 1d0 .cfa: sp 0 +
STACK CFI 6f0c .cfa: sp 32 +
STACK CFI 6f14 .cfa: x29 32 + x19: .cfa -16 + ^ .ra: .cfa -24 + ^ x29: .cfa -32 + ^
STACK CFI 70b4 .cfa: sp 32 +
STACK CFI 70bc .cfa: sp 0 +
STACK CFI 70c0 .cfa: x29 32 +
STACK CFI INIT 70d8 64 .cfa: sp 0 +
STACK CFI 70dc .cfa: sp 32 +
STACK CFI 70e4 .cfa: x29 32 + x19: .cfa -8 + ^ x20: .cfa -16 + ^ .ra: .cfa -24 + ^ x29: .cfa -32 + ^
STACK CFI 7130 .cfa: sp 32 +
STACK CFI 7138 .cfa: sp 0 +
STACK CFI INIT 74a0 6c .cfa: sp 0 +
STACK CFI 74a4 .cfa: sp 32 +
STACK CFI 74ac .cfa: x29 32 + x19: .cfa -16 + ^ .ra: .cfa -24 + ^ x29: .cfa -32 + ^
STACK CFI 7500 .cfa: sp 32 +
STACK CFI 7508 .cfa: sp 0 +
STACK CFI INIT 750c 74 .cfa: sp 0 +
STACK CFI 7510 .cfa: sp 32 +
STACK CFI 7518 .cfa: x29 32 + x19: .cfa -16 + ^ .ra: .cfa -24 + ^ x29: .cfa -32 + ^
STACK CFI 7574 .cfa: sp 32 +
STACK CFI 757c .cfa: sp 0 +
STACK CFI INIT 7580 4 .cfa: sp 0 +
STACK CFI INIT 7584 4 .cfa: sp 0 +
STACK CFI INIT 7588 34 .cfa: sp 0 +
STACK CFI 758c .cfa: sp 32 +
STACK CFI 7594 .cfa: x29 32 + x19: .cfa -16 + ^ .ra: .cfa -24 + ^ x29: .cfa -32 + ^
STACK CFI 75b0 .cfa: sp 32 +
STACK CFI 75b8 .cfa: sp 0 +
STACK CFI INIT 75bc 14 .cfa: sp 0 +
STACK CFI INIT 75d0 4 .cfa: sp 0 +
STACK CFI INIT 75d4 4 .cfa: sp 0 +
STACK CFI INIT 7688 1c .cfa: sp 0 +
STACK CFI INIT 76a4 c .cfa: sp 0 +
STACK CFI INIT 7c00 3c .cfa: sp 0 +
STACK CFI 7c04 .cfa: sp 32 +
STACK CFI 7c0c .cfa: x29 32 + x19: .cfa -16 + ^ .ra: .cfa -24 + ^ x29: .cfa -32 + ^
STACK CFI 7c18 .cfa: sp 32 +
STACK CFI 7c20 .cfa: sp 0 +
STACK CFI 7c24 .cfa: x29 32 +
STACK CFI 7c30 .cfa: sp 32 +
STACK CFI 7c38 .cfa: sp 0 +
STACK CFI INIT 4580 188 .cfa: sp 0 +
STACK CFI 4584 .cfa: sp 96 +
STACK CFI 4598 .cfa: x29 64 + x19: .cfa -8 + ^ x20: .cfa -16 + ^ x21: .cfa -24 + ^ x22: .cfa -32 + ^ x23: .cfa -48 + ^ .ra: .cfa -56 + ^ x29: .cfa -64 + ^
STACK CFI 4684 .cfa: sp 96 +
STACK CFI 4698 .cfa: sp 0 +
STACK CFI 469c .cfa: x29 64 +
STACK CFI INIT 4ac8 50 .cfa: sp 0 +
STACK CFI 4acc .cfa: sp 32 +
STACK CFI 4ad4 .cfa: x29 32 + x19: .cfa -8 + ^ x20: .cfa -16 + ^ .ra: .cfa -24 + ^ x29: .cfa -32 + ^
STACK CFI INIT 4b48 e8 .cfa: sp 0 +
STACK CFI 4b4c .cfa: sp 48 +
STACK CFI 4b58 .cfa: x29 48 + x19: .cfa -8 + ^ x20: .cfa -16 + ^ x21: .cfa -32 + ^ .ra: .cfa -40 + ^ x29: .cfa -48 + ^
STACK CFI 4bc4 .cfa: sp 48 +
STACK CFI 4bd0 .cfa: sp 0 +
STACK CFI 4bd4 .cfa: x29 48 +
STACK CFI INIT 4c30 e8 .cfa: sp 0 +
STACK CFI 4c34 .cfa: sp 48 +
STACK CFI 4c40 .cfa: x29 48 + x19: .cfa -8 + ^ x20: .cfa -16 + ^ x21: .cfa -32 + ^ .ra: .cfa -40 + ^ x29: .cfa -48 + ^
STACK CFI 4cac .cfa: sp 48 +
STACK CFI 4cb8 .cfa: sp 0 +
STACK CFI 4cbc .cfa: x29 48 +
STACK CFI INIT 4e18 2a4 .cfa: sp 0 +
STACK CFI 4e1c .cfa: sp 144 +
STACK CFI 4e2c .cfa: x29 48 + x19: .cfa -8 + ^ x20: .cfa -16 + ^ x21: .cfa -32 + ^ .ra: .cfa -40 + ^ x29: .cfa -48 + ^
STACK CFI 5018 .cfa: sp 144 +
STACK CFI 5028 .cfa: sp 0 +
STACK CFI 502c .cfa: x29 48 +
STACK CFI INIT 58ac 634 .cfa: sp 0 +
STACK CFI 58b0 .cfa: sp 128 +
STACK CFI 58cc .cfa: x29 96 + x19: .cfa -8 + ^ x20: .cfa -16 + ^ x21: .cfa -24 + ^ x22: .cfa -32 + ^ x23: .cfa -40 + ^ x24: .cfa -48 + ^ x25: .cfa -56 + ^ x26: .cfa -64 + ^ x27: .cfa -72 + ^ x28: .cfa -80 + ^ .ra: .cfa -88 + ^ x29: .cfa -96 + ^
STACK CFI 5e80 .cfa: sp 128 +
STACK CFI 5e9c .cfa: sp 0 +
STACK CFI 5ea0 .cfa: x29 96 +
STACK CFI INIT 6230 35c .cfa: sp 0 +
STACK CFI 6234 .cfa: sp 176 +
STACK CFI 6244 .cfa: x29 48 + x19: .cfa -8 + ^ x20: .cfa -16 + ^ x21: .cfa -24 + ^ x22: .cfa -32 + ^ .ra: .cfa -40 + ^ x29: .cfa -48 + ^
STACK CFI 6420 .cfa: sp 176 +
STACK CFI 6430 .cfa: sp 0 +
STACK CFI 6434 .cfa: x29 48 +
STACK CFI INIT 66c4 ac .cfa: sp 0 +
STACK CFI 66c8 .cfa: sp 64 +
STACK CFI 66d4 .cfa: x29 32 + x19: .cfa -8 + ^ x20: .cfa -16 + ^ .ra: .cfa -24 + ^ x29: .cfa -32 + ^
STACK CFI 6730 .cfa: sp 64 +
STACK CFI 673c .cfa: sp 0 +
STACK CFI 6740 .cfa: x29 32 +
STACK CFI INIT 6ae8 2b0 .cfa: sp 0 +
STACK CFI 6aec .cfa: sp 144 +
STACK CFI 6afc .cfa: x29 48 + x19: .cfa -8 + ^ x20: .cfa -16 + ^ x21: .cfa -24 + ^ x22: .cfa -32 + ^ .ra: .cfa -40 + ^ x29: .cfa -48 + ^
STACK CFI 6cf4 .cfa: sp 144 +
STACK CFI 6d04 .cfa: sp 0 +
STACK CFI 6d08 .cfa: x29 48 +
STACK CFI INIT 713c 364 .cfa: sp 0 +
STACK CFI 7140 .cfa: sp 176 +
STACK CFI 7150 .cfa: x29 48 + x19: .cfa -8 + ^ x20: .cfa -16 + ^ x21: .cfa -24 + ^ x22: .cfa -32 + ^ .ra: .cfa -40 + ^ x29: .cfa -48 + ^
STACK CFI 732c .cfa: sp 176 +
STACK CFI 733c .cfa: sp 0 +
STACK CFI 7340 .cfa: x29 48 +
STACK CFI INIT 75d8 b0 .cfa: sp 0 +
STACK CFI 75dc .cfa: sp 64 +
STACK CFI 75e8 .cfa: x29 32 + x19: .cfa -8 + ^ x20: .cfa -16 + ^ .ra: .cfa -24 + ^ x29: .cfa -32 + ^
STACK CFI 7648 .cfa: sp 64 +
STACK CFI 7654 .cfa: sp 0 +
STACK CFI 7658 .cfa: x29 32 +
STACK CFI INIT 76b0 550 .cfa: sp 0 +
STACK CFI 76b4 .cfa: sp 272 +
STACK CFI 76c8 .cfa: x29 64 + x19: .cfa -8 + ^ x20: .cfa -16 + ^ x21: .cfa -24 + ^ x22: .cfa -32 + ^ x23: .cfa -40 + ^ x28: .cfa -48 + ^ .ra: .cfa -56 + ^ x29: .cfa -64 + ^
STACK CFI 7a4c .cfa: sp 272 +
STACK CFI 7a60 .cfa: sp 0 +
STACK CFI 7a64 .cfa: x29 64 +
