MODULE Linux arm64 1107F90BD5C024632AED81DDB5306E4F0 thesillydoggo.animatedprofiles.android64.so
INFO CODE_ID 0BF90711C0D563242AED81DDB5306E4FB2A5381E
INFO GENERATOR mozilla/dump_syms 2.3.4
FILE 0 /home/runner/work/AnimatedProfiles/AnimatedProfiles/geode-sdk-clone/loader/include/Geode/utils/addresser.hpp
FILE 1 /home/runner/work/AnimatedProfiles/AnimatedProfiles/geode-sdk-clone/loader/include/Geode/platform/ItaniumCast.hpp
FILE 2 /usr/local/lib/android/sdk/ndk/27.0.12077973/toolchains/llvm/prebuilt/linux-x86_64/sysroot/usr/include/c++/v1/__tree
FILE 3 /usr/local/lib/android/sdk/ndk/27.0.12077973/toolchains/llvm/prebuilt/linux-x86_64/sysroot/usr/include/c++/v1/stdexcept
FILE 4 /usr/local/lib/android/sdk/ndk/27.0.12077973/toolchains/llvm/prebuilt/linux-x86_64/sysroot/usr/include/c++/v1/new
FILE 5 /home/runner/work/AnimatedProfiles/AnimatedProfiles/build/bindings/bindings/Geode/modify/CCAnimatedSprite.hpp
FILE 6 /home/runner/work/AnimatedProfiles/AnimatedProfiles/build/bindings/bindings/Geode/modify/ProfilePage.hpp
FILE 7 /home/runner/work/AnimatedProfiles/AnimatedProfiles/build/bindings/bindings/Geode/modify/CommentCell.hpp
FILE 8 /home/runner/work/AnimatedProfiles/AnimatedProfiles/build/bindings/bindings/Geode/modify/ShardsPage.hpp
FILE 9 /home/runner/work/AnimatedProfiles/AnimatedProfiles/build/bindings/bindings/Geode/modify/ItemInfoPopup.hpp
FILE 10 /home/runner/work/AnimatedProfiles/AnimatedProfiles/build/bindings/bindings/Geode/modify/CommunityCreditsPage.hpp
FILE 11 /home/runner/work/AnimatedProfiles/AnimatedProfiles/build/bindings/bindings/Geode/modify/GJShopLayer.hpp
FILE 12 /home/runner/work/AnimatedProfiles/AnimatedProfiles/build/bindings/bindings/Geode/modify/PurchaseItemPopup.hpp
FILE 13 /home/runner/work/AnimatedProfiles/AnimatedProfiles/build/bindings/bindings/Geode/modify/GJGarageLayer.hpp
FILE 14 /home/runner/work/AnimatedProfiles/AnimatedProfiles/geode-sdk-clone/loader/include/Geode/modify/Modify.hpp
FILE 15 /usr/local/lib/android/sdk/ndk/27.0.12077973/toolchains/llvm/prebuilt/linux-x86_64/sysroot/usr/include/c++/v1/vector
FILE 16 /usr/local/lib/android/sdk/ndk/27.0.12077973/toolchains/llvm/prebuilt/linux-x86_64/sysroot/usr/include/c++/v1/string
FILE 17 /usr/local/lib/android/sdk/ndk/27.0.12077973/toolchains/llvm/prebuilt/linux-x86_64/sysroot/usr/include/c++/v1/__memory/shared_ptr.h
FILE 18 /home/runner/work/AnimatedProfiles/AnimatedProfiles/cpm-cache/tuliphook/4d3ed56cf0cffd3cd1ddd947368145c251baf914/include/tulip/HandlerData.hpp
FILE 19 /usr/local/lib/android/sdk/ndk/27.0.12077973/toolchains/llvm/prebuilt/linux-x86_64/sysroot/usr/include/c++/v1/__split_buffer
FILE 20 /home/runner/work/AnimatedProfiles/AnimatedProfiles/build/bindings/bindings/Geode/binding/CCAnimatedSprite.hpp
FILE 21 /home/runner/work/AnimatedProfiles/AnimatedProfiles/src/main.cpp
FILE 22 /home/runner/work/AnimatedProfiles/AnimatedProfiles/build/bindings/bindings/Geode/binding/ShardsPage.hpp
FILE 23 /home/runner/work/AnimatedProfiles/AnimatedProfiles/geode-sdk-clone/loader/include/Geode/utils/cocos.hpp
FILE 24 /home/runner/work/AnimatedProfiles/AnimatedProfiles/build/bindings/bindings/Geode/binding/CommunityCreditsPage.hpp
FILE 25 /home/runner/work/AnimatedProfiles/AnimatedProfiles/build/bindings/bindings/Geode/binding/GJGarageLayer.hpp
FILE 26 /home/runner/work/AnimatedProfiles/AnimatedProfiles/geode-sdk-clone/entry.cpp
FILE 27 /home/runner/work/AnimatedProfiles/AnimatedProfiles/build/bindings/bindings/Geode/GeneratedSource.cpp
FILE 28 /usr/local/lib/android/sdk/ndk/27.0.12077973/toolchains/llvm/prebuilt/linux-x86_64/sysroot/usr/include/c++/v1/__hash_table
FILE 29 /home/runner/work/AnimatedProfiles/AnimatedProfiles/cpm-cache/tuliphook/4d3ed56cf0cffd3cd1ddd947368145c251baf914/include/tulip/WrapperData.hpp
FILE 30 /home/runner/work/AnimatedProfiles/AnimatedProfiles/cpm-cache/tuliphook/4d3ed56cf0cffd3cd1ddd947368145c251baf914/include/tulip/AbstractFunction.hpp
FILE 31 /home/runner/work/AnimatedProfiles/AnimatedProfiles/geode-sdk-clone/loader/include/Geode/cocos/cocoa/CCObject.h
FILE 32 /home/runner/work/AnimatedProfiles/AnimatedProfiles/geode-sdk-clone/loader/include/Geode/cocos/base_nodes/CCNode.h
FILE 33 /home/runner/work/AnimatedProfiles/AnimatedProfiles/geode-sdk-clone/loader/include/Geode/cocos/sprite_nodes/CCSprite.h
FILE 34 /home/runner/work/AnimatedProfiles/AnimatedProfiles/cpm-cache/fmt/c3ebf53335b44df838d9982d1a0e35afe190e34f/include/fmt/format-inl.h
FILE 35 /home/runner/work/AnimatedProfiles/AnimatedProfiles/cpm-cache/fmt/c3ebf53335b44df838d9982d1a0e35afe190e34f/include/fmt/format.h
FILE 36 /home/runner/work/AnimatedProfiles/AnimatedProfiles/cpm-cache/fmt/c3ebf53335b44df838d9982d1a0e35afe190e34f/include/fmt/core.h
PUBLIC ef70 0 __on_dlclose
PUBLIC ef80 0 __emutls_unregister_key
PUBLIC ef88 0 __on_dlclose_late
PUBLIC ef90 0 __atexit_handler_wrapper
PUBLIC efa4 0 atexit
PUBLIC efc0 0 pthread_atfork
PUBLIC efd0 0 __aarch64_ldadd8_relax
PUBLIC f000 0 init_have_lse_atomics
PUBLIC f098 0 __init_cpu_features_constructor
PUBLIC f634 0 __init_cpu_features
PUBLIC f6c0 0 __aarch64_ldadd8_acq_rel
FUNC f6f0 3ec 0 __cxx_global_var_init
f714 3c8 202 14
FUNC fadc 3ec 0 __cxx_global_var_init.3
fb00 3c8 202 14
FUNC fec8 3ec 0 __cxx_global_var_init.6
feec 3c8 202 14
FUNC 102b4 3ec 0 __cxx_global_var_init.8
102d8 3c8 202 14
FUNC 106a0 18 0 geode::modifier::ModifyBase<geode::modifier::ModifyDerive<hook14<(anonymous namespace)::hook14Parent>, CCAnimatedSprite> >::~ModifyBase()
106a0 18 113 14
FUNC 106b8 430 0 __cxx_global_var_init.1
106f4 3f4 202 14
FUNC 10ae8 18 0 geode::modifier::ModifyBase<geode::modifier::ModifyDerive<AnimatedProfilePage, ProfilePage> >::~ModifyBase()
10ae8 18 113 14
FUNC 10b00 430 0 __cxx_global_var_init.2
10b3c 3f4 202 14
FUNC 10f30 18 0 geode::modifier::ModifyBase<geode::modifier::ModifyDerive<AnimatedCommentCell, CommentCell> >::~ModifyBase()
10f30 18 113 14
FUNC 10f48 18 0 geode::modifier::ModifyBase<geode::modifier::ModifyDerive<hook143<(anonymous namespace)::hook143Parent>, ShardsPage> >::~ModifyBase()
10f48 18 113 14
FUNC 10f60 5c4 0 __cxx_global_var_init.4
10f9c 588 202 14
FUNC 11524 18 0 geode::modifier::ModifyBase<geode::modifier::ModifyDerive<AnimatedItemInfoPopup, ItemInfoPopup> >::~ModifyBase()
11524 18 113 14
FUNC 1153c 430 0 __cxx_global_var_init.5
11578 3f4 202 14
FUNC 1196c 18 0 geode::modifier::ModifyBase<geode::modifier::ModifyDerive<AnimatedCommunityCreditsPage, CommunityCreditsPage> >::~ModifyBase()
1196c 18 113 14
FUNC 11984 18 0 geode::modifier::ModifyBase<geode::modifier::ModifyDerive<hook278<(anonymous namespace)::hook278Parent>, GJShopLayer> >::~ModifyBase()
11984 18 113 14
FUNC 1199c 430 0 __cxx_global_var_init.7
119d8 3f4 202 14
FUNC 11dcc 18 0 geode::modifier::ModifyBase<geode::modifier::ModifyDerive<AnimatedPurchaseItemPopup, PurchaseItemPopup> >::~ModifyBase()
11dcc 18 113 14
FUNC 11de4 18 0 geode::modifier::ModifyBase<geode::modifier::ModifyDerive<hook375<(anonymous namespace)::hook375Parent>, GJGarageLayer> >::~ModifyBase()
11de4 18 113 14
FUNC 11dfc 3dc 0 geode::modifier::ModifyDerive<hook14<(anonymous namespace)::hook14Parent>, CCAnimatedSprite>::apply()
11dfc 2c 166 5
11e28 288 182 5
120b0 28 184 5
120d8 100 182 5
FUNC 121d8 50 0 std::__ndk1::shared_ptr<geode::Hook>::~shared_ptr[abi:ne180000]()
121d8 c 643 17
121e4 8 644 17
121ec 10 645 17
121fc c 646 17
12208 20 645 17
FUNC 12228 7c 0 std::__ndk1::vector<std::__ndk1::basic_string<char, std::__ndk1::char_traits<char>, std::__ndk1::allocator<char> >, std::__ndk1::allocator<std::__ndk1::basic_string<char, std::__ndk1::char_traits<char>, std::__ndk1::allocator<char> > > >::~vector[abi:ne180000]()
12228 7c 501 15
FUNC 122a4 4 0 geode::modifier::ModifyBase<geode::modifier::ModifyDerive<hook14<(anonymous namespace)::hook14Parent>, CCAnimatedSprite> >::apply()
122a4 4 172 14
PUBLIC 122a8 0 __clang_call_terminate
FUNC 122b8 70 0 std::__ndk1::basic_string<char, std::__ndk1::char_traits<char>, std::__ndk1::allocator<char> >::__init_copy_ctor_external(char const*, unsigned long)
122b8 14 2232 16
122cc 8 2237 16
122d4 10 2239 16
122e4 8 2241 16
122ec 10 2243 16
122fc 8 2247 16
12304 4 2246 16
12308 4 2247 16
1230c 14 2250 16
12320 8 2242 16
FUNC 12328 14 0 std::__ndk1::basic_string<char, std::__ndk1::char_traits<char>, std::__ndk1::allocator<char> >::__throw_length_error[abi:ne180000]() const
12328 8 2118 16
12330 c 2119 16
FUNC 1233c 50 0 std::__ndk1::__throw_length_error[abi:ne180000](char const*)
1233c 10 239 3
1234c 40 241 3
FUNC 1238c 30 0 std::length_error::length_error[abi:ne180000](char const*)
1238c 30 152 3
FUNC 123bc 34 0 std::__throw_bad_array_new_length([abi:ne180000], void)
123bc c 172 4
123c8 28 174 4
FUNC 123f0 218 0 std::__ndk1::vector<std::__ndk1::basic_string<char, std::__ndk1::char_traits<char>, std::__ndk1::allocator<char> >, std::__ndk1::allocator<std::__ndk1::basic_string<char, std::__ndk1::char_traits<char>, std::__ndk1::allocator<char> > > >::__push_back_slow_path<std::__ndk1::basic_string<char, std::__ndk1::char_traits<char>, std::__ndk1::allocator<char> > const&>(std::__ndk1::basic_string<char, std::__ndk1::char_traits<char>, std::__ndk1::allocator<char> > const&)
123f0 30 1449 15
12420 94 1451 15
124b4 4 1453 15
124b8 4 1451 15
124bc 24 1453 15
124e0 4 1455 15
124e4 4 1454 15
124e8 4 1455 15
124ec 4 1454 15
124f0 44 1455 15
12534 4 1457 15
12538 10 1455 15
12548 70 1457 15
125b8 2c 1451 15
125e4 24 1457 15
FUNC 12608 68 0 std::__ndk1::__split_buffer<std::__ndk1::basic_string<char, std::__ndk1::char_traits<char>, std::__ndk1::allocator<char> >, std::__ndk1::allocator<std::__ndk1::basic_string<char, std::__ndk1::char_traits<char>, std::__ndk1::allocator<char> > >&>::~__split_buffer()
12608 c 352 19
12614 10 353 19
12624 8 354 19
1262c c 355 19
12638 2c 353 19
12664 c 356 19
FUNC 12670 14 0 std::__ndk1::vector<std::__ndk1::basic_string<char, std::__ndk1::char_traits<char>, std::__ndk1::allocator<char> >, std::__ndk1::allocator<std::__ndk1::basic_string<char, std::__ndk1::char_traits<char>, std::__ndk1::allocator<char> > > >::__throw_length_error[abi:ne180000]() const
12670 14 940 15
FUNC 12684 fc 0 std::__ndk1::__tree<std::__ndk1::__value_type<std::__ndk1::basic_string<char, std::__ndk1::char_traits<char>, std::__ndk1::allocator<char> >, std::__ndk1::shared_ptr<geode::Hook> >, std::__ndk1::__map_value_compare<std::__ndk1::basic_string<char, std::__ndk1::char_traits<char>, std::__ndk1::allocator<char> >, std::__ndk1::__value_type<std::__ndk1::basic_string<char, std::__ndk1::char_traits<char>, std::__ndk1::allocator<char> >, std::__ndk1::shared_ptr<geode::Hook> >, std::__ndk1::less<std::__ndk1::basic_string<char, std::__ndk1::char_traits<char>, std::__ndk1::allocator<char> > >, true>, std::__ndk1::allocator<std::__ndk1::__value_type<std::__ndk1::basic_string<char, std::__ndk1::char_traits<char>, std::__ndk1::allocator<char> >, std::__ndk1::shared_ptr<geode::Hook> > > >::find<std::__ndk1::basic_string<char, std::__ndk1::char_traits<char>, std::__ndk1::allocator<char> > >(std::__ndk1::basic_string<char, std::__ndk1::char_traits<char>, std::__ndk1::allocator<char> > const&)
12684 18 2087 2
1269c 7c 2088 2
12718 50 2089 2
12768 18 2092 2
FUNC 12780 454 0 std::__ndk1::__tree<std::__ndk1::__value_type<std::__ndk1::basic_string<char, std::__ndk1::char_traits<char>, std::__ndk1::allocator<char> >, std::__ndk1::shared_ptr<geode::Hook> >, std::__ndk1::__map_value_compare<std::__ndk1::basic_string<char, std::__ndk1::char_traits<char>, std::__ndk1::allocator<char> >, std::__ndk1::__value_type<std::__ndk1::basic_string<char, std::__ndk1::char_traits<char>, std::__ndk1::allocator<char> >, std::__ndk1::shared_ptr<geode::Hook> >, std::__ndk1::less<std::__ndk1::basic_string<char, std::__ndk1::char_traits<char>, std::__ndk1::allocator<char> > >, true>, std::__ndk1::allocator<std::__ndk1::__value_type<std::__ndk1::basic_string<char, std::__ndk1::char_traits<char>, std::__ndk1::allocator<char> >, std::__ndk1::shared_ptr<geode::Hook> > > >::erase(std::__ndk1::__tree_const_iterator<std::__ndk1::__value_type<std::__ndk1::basic_string<char, std::__ndk1::char_traits<char>, std::__ndk1::allocator<char> >, std::__ndk1::shared_ptr<geode::Hook> >, std::__ndk1::__tree_node<std::__ndk1::__value_type<std::__ndk1::basic_string<char, std::__ndk1::char_traits<char>, std::__ndk1::allocator<char> >, std::__ndk1::shared_ptr<geode::Hook> >, void*>*, long>)
12780 c 2046 2
1278c 284 2048 2
12a10 14 2050 2
12a24 4 2048 2
12a28 c 2050 2
12a34 a4 2048 2
12ad8 40 2050 2
12b18 10 2051 2
12b28 a0 2048 2
12bc8 c 2050 2
FUNC 12bd4 84 0 std::__ndk1::__tree<std::__ndk1::__value_type<std::__ndk1::basic_string<char, std::__ndk1::char_traits<char>, std::__ndk1::allocator<char> >, std::__ndk1::shared_ptr<geode::Hook> >, std::__ndk1::__map_value_compare<std::__ndk1::basic_string<char, std::__ndk1::char_traits<char>, std::__ndk1::allocator<char> >, std::__ndk1::__value_type<std::__ndk1::basic_string<char, std::__ndk1::char_traits<char>, std::__ndk1::allocator<char> >, std::__ndk1::shared_ptr<geode::Hook> >, std::__ndk1::less<std::__ndk1::basic_string<char, std::__ndk1::char_traits<char>, std::__ndk1::allocator<char> > >, true>, std::__ndk1::allocator<std::__ndk1::__value_type<std::__ndk1::basic_string<char, std::__ndk1::char_traits<char>, std::__ndk1::allocator<char> >, std::__ndk1::shared_ptr<geode::Hook> > > >::destroy(std::__ndk1::__tree_node<std::__ndk1::__value_type<std::__ndk1::basic_string<char, std::__ndk1::char_traits<char>, std::__ndk1::allocator<char> >, std::__ndk1::shared_ptr<geode::Hook> >, void*>*)
12bd4 14 1544 2
12be8 8 1545 2
12bf0 8 1546 2
12bf8 28 1548 2
12c20 10 1549 2
12c30 4 1551 2
12c34 24 1548 2
FUNC 12c58 b8 0 geode::addresser::getVirtual<void (CCAnimatedSprite::*)(char const*)>(void (CCAnimatedSprite::*)(char const*))
12c58 c 169 0
12c64 ac 170 0
FUNC 12d10 110 0 geode::modifier::AsStaticFunction_animationFinished<hook14<(anonymous namespace)::hook14Parent>, void (hook14<(anonymous namespace)::hook14Parent>::*)(char const*)>::Impl<void (hook14<(anonymous namespace)::hook14Parent>::*)(char const*)>::function(hook14<(anonymous namespace)::hook14Parent>*, char const*)
12d10 110 75 5
FUNC 12e20 cc 0 CCAnimatedSprite::CCAnimatedSprite(geode::ZeroConstructorType)
12e20 cc 15 20
FUNC 12eec 50 0 std::__ndk1::shared_ptr<tulip::hook::CallingConvention>::~shared_ptr[abi:ne180000]()
12eec c 643 17
12ef8 8 644 17
12f00 10 645 17
12f10 c 646 17
12f1c 20 645 17
FUNC 12f3c 64 0 tulip::hook::HandlerMetadata::~HandlerMetadata()
12f3c 64 12 18
FUNC 12fa0 104 0 std::__ndk1::__tree<std::__ndk1::__value_type<std::__ndk1::basic_string<char, std::__ndk1::char_traits<char>, std::__ndk1::allocator<char> >, std::__ndk1::shared_ptr<geode::Hook> >, std::__ndk1::__map_value_compare<std::__ndk1::basic_string<char, std::__ndk1::char_traits<char>, std::__ndk1::allocator<char> >, std::__ndk1::__value_type<std::__ndk1::basic_string<char, std::__ndk1::char_traits<char>, std::__ndk1::allocator<char> >, std::__ndk1::shared_ptr<geode::Hook> >, std::__ndk1::less<std::__ndk1::basic_string<char, std::__ndk1::char_traits<char>, std::__ndk1::allocator<char> > >, true>, std::__ndk1::allocator<std::__ndk1::__value_type<std::__ndk1::basic_string<char, std::__ndk1::char_traits<char>, std::__ndk1::allocator<char> >, std::__ndk1::shared_ptr<geode::Hook> > > >::__find_equal<std::__ndk1::basic_string<char, std::__ndk1::char_traits<char>, std::__ndk1::allocator<char> > >(std::__ndk1::__tree_end_node<std::__ndk1::__tree_node_base<void*>*>*&, std::__ndk1::basic_string<char, std::__ndk1::char_traits<char>, std::__ndk1::allocator<char> > const&)
12fa0 20 1682 2
12fc0 4 1683 2
12fc4 20 1685 2
12fe4 10 1688 2
12ff4 50 1687 2
13044 2c 1695 2
13070 14 1696 2
13084 20 1711 2
FUNC 130a4 19c 0 std::__ndk1::__tree_balance_after_insert[abi:ne180000]<std::__ndk1::__tree_node_base<void*>*>(std::__ndk1::__tree_node_base<void*>*, std::__ndk1::__tree_node_base<void*>*)
130a4 c 285 2
130b0 34 286 2
130e4 10 288 2
130f4 10 310 2
13104 4 289 2
13108 c 290 2
13114 c 297 2
13120 38 299 2
13158 4 303 2
1315c 4 299 2
13160 8 305 2
13168 4 330 2
1316c 14 317 2
13180 30 319 2
131b0 4 323 2
131b4 4 319 2
131b8 8 325 2
131c0 4 322 2
131c4 4 325 2
131c8 4 324 2
131cc 2c 325 2
131f8 8 330 2
13200 8 305 2
13208 4 302 2
1320c 4 304 2
13210 2c 305 2
1323c 4 330 2
FUNC 13240 3d4 0 geode::modifier::ModifyDerive<AnimatedProfilePage, ProfilePage>::apply()
13240 2c 536 6
1326c 278 544 6
134e4 28 590 6
1350c 108 544 6
FUNC 13614 4 0 geode::modifier::ModifyBase<geode::modifier::ModifyDerive<AnimatedProfilePage, ProfilePage> >::apply()
13614 4 172 14
FUNC 13618 50c 0 geode::modifier::AsStaticFunction_loadPageFromUserInfo<AnimatedProfilePage, void (AnimatedProfilePage::*)(GJUserScore*)>::Impl<void (AnimatedProfilePage::*)(GJUserScore*)>::function(AnimatedProfilePage*, GJUserScore*)
13618 50c 40 6
FUNC 13b24 200 0 AnimatedProfilePage::onAnimate(cocos2d::CCObject*)
13b24 1c 28 21
13b40 ac 29 21
13bec 24 31 21
13c10 94 34 21
13ca4 24 36 21
13cc8 5c 38 21
FUNC 13d24 d8 0 geode::cast::traverseTypeinfoFor(void*, geode::cast::ClassTypeinfoType const*, char const*)
13d24 14 57 1
13d38 c 59 1
13d44 1c 60 1
13d60 4 64 1
13d64 4 65 1
13d68 8 64 1
13d70 c 65 1
13d7c 4 67 1
13d80 4 60 1
13d84 4 59 1
13d88 c 60 1
13d94 18 69 1
13dac 18 80 1
13dc4 c 71 1
13dd0 4 73 1
13dd4 4 74 1
13dd8 4 73 1
13ddc 8 74 1
13de4 18 71 1
FUNC 13dfc 3d8 0 geode::modifier::ModifyDerive<AnimatedCommentCell, CommentCell>::apply()
13dfc 2c 176 7
13e28 27c 181 7
140a4 28 195 7
140cc 108 181 7
FUNC 141d4 4 0 geode::modifier::ModifyBase<geode::modifier::ModifyDerive<AnimatedCommentCell, CommentCell> >::apply()
141d4 4 172 14
FUNC 141d8 38c 0 geode::modifier::AsStaticFunction_loadFromComment<AnimatedCommentCell, void (AnimatedCommentCell::*)(GJComment*)>::Impl<void (AnimatedCommentCell::*)(GJComment*)>::function(AnimatedCommentCell*, GJComment*)
141d8 38c 20 7
FUNC 14564 f4 0 AnimatedCommentCell::onAnimate(cocos2d::CCObject*)
14564 18 88 21
1457c 24 89 21
145a0 24 91 21
145c4 18 94 21
145dc 24 96 21
14600 58 98 21
FUNC 14658 348 0 geode::modifier::ModifyDerive<hook143<(anonymous namespace)::hook143Parent>, ShardsPage>::apply()
14658 2c 116 8
14684 218 124 8
1489c 28 128 8
148c4 dc 124 8
FUNC 149a0 4 0 geode::modifier::ModifyBase<geode::modifier::ModifyDerive<hook143<(anonymous namespace)::hook143Parent>, ShardsPage> >::apply()
149a0 4 172 14
FUNC 149a4 a8 0 geode::addresser::getVirtual<bool (ShardsPage::*)()>(bool (ShardsPage::*)())
149a4 c 169 0
149b0 9c 170 0
FUNC 14a4c 33c 0 geode::modifier::AsStaticFunction_init<hook143<(anonymous namespace)::hook143Parent>, bool (hook143<(anonymous namespace)::hook143Parent>::*)()>::Impl<bool (hook143<(anonymous namespace)::hook143Parent>::*)()>::function(hook143<(anonymous namespace)::hook143Parent>*)
14a4c 33c 20 6
FUNC 14d88 84 0 ShardsPage::ShardsPage(geode::ZeroConstructorType)
14d88 84 16 22
FUNC 14e0c 20 0 geode::cocos::CCArrayExt<CCMenuItemSpriteExtra*>::~CCArrayExt()
14e0c 20 1043 23
FUNC 14e2c 3f4 0 geode::modifier::ModifyDerive<AnimatedItemInfoPopup, ItemInfoPopup>::apply()
14e2c 2c 86 9
14e58 29c 89 9
150f4 28 95 9
1511c 104 89 9
FUNC 15220 4 0 geode::modifier::ModifyBase<geode::modifier::ModifyDerive<AnimatedItemInfoPopup, ItemInfoPopup> >::apply()
15220 4 172 14
FUNC 15224 43c 0 geode::modifier::AsStaticFunction_init<AnimatedItemInfoPopup, bool (AnimatedItemInfoPopup::*)(int, UnlockType)>::Impl<bool (AnimatedItemInfoPopup::*)(int, UnlockType)>::function(AnimatedItemInfoPopup*, int, UnlockType)
15224 43c 20 6
FUNC 15660 200 0 AnimatedItemInfoPopup::onAnimate(cocos2d::CCObject*)
15660 1c 181 21
1567c ac 182 21
15728 24 184 21
1574c 94 187 21
157e0 24 189 21
15804 5c 191 21
FUNC 15860 388 0 geode::modifier::ModifyDerive<AnimatedCommunityCreditsPage, CommunityCreditsPage>::apply()
15860 2c 106 10
1588c 248 113 10
15ad4 28 117 10
15afc ec 113 10
FUNC 15be8 4 0 geode::modifier::ModifyBase<geode::modifier::ModifyDerive<AnimatedCommunityCreditsPage, CommunityCreditsPage> >::apply()
15be8 4 172 14
FUNC 15bec a8 0 geode::addresser::getVirtual<bool (CommunityCreditsPage::*)()>(bool (CommunityCreditsPage::*)())
15bec c 169 0
15bf8 9c 170 0
FUNC 15c94 32c 0 geode::modifier::AsStaticFunction_init<AnimatedCommunityCreditsPage, bool (AnimatedCommunityCreditsPage::*)()>::Impl<bool (AnimatedCommunityCreditsPage::*)()>::function(AnimatedCommunityCreditsPage*)
15c94 32c 20 6
FUNC 15fc0 84 0 CommunityCreditsPage::CommunityCreditsPage(geode::ZeroConstructorType)
15fc0 84 16 24
FUNC 16044 20 0 geode::cocos::CCArrayExt<cocos2d::CCNode*>::~CCArrayExt()
16044 20 1043 23
FUNC 16064 3a0 0 geode::modifier::ModifyDerive<hook278<(anonymous namespace)::hook278Parent>, GJShopLayer>::apply()
16064 2c 226 11
16090 254 230 11
162e4 28 250 11
1630c f8 230 11
FUNC 16404 4 0 geode::modifier::ModifyBase<geode::modifier::ModifyDerive<hook278<(anonymous namespace)::hook278Parent>, GJShopLayer> >::apply()
16404 4 172 14
FUNC 16408 4f4 0 geode::modifier::AsStaticFunction_init<hook278<(anonymous namespace)::hook278Parent>, bool (hook278<(anonymous namespace)::hook278Parent>::*)(ShopType)>::Impl<bool (hook278<(anonymous namespace)::hook278Parent>::*)(ShopType)>::function(hook278<(anonymous namespace)::hook278Parent>*, ShopType)
16408 4f4 20 6
FUNC 168fc 20 0 geode::cocos::CCArrayExt<ListButtonPage*>::~CCArrayExt()
168fc 20 1043 23
FUNC 1691c 3d0 0 geode::modifier::ModifyDerive<AnimatedPurchaseItemPopup, PurchaseItemPopup>::apply()
1691c 2c 66 12
16948 274 69 12
16bbc 28 73 12
16be4 108 69 12
FUNC 16cec 4 0 geode::modifier::ModifyBase<geode::modifier::ModifyDerive<AnimatedPurchaseItemPopup, PurchaseItemPopup> >::apply()
16cec 4 172 14
FUNC 16cf0 44c 0 geode::modifier::AsStaticFunction_init<AnimatedPurchaseItemPopup, bool (AnimatedPurchaseItemPopup::*)(GJStoreItem*)>::Impl<bool (AnimatedPurchaseItemPopup::*)(GJStoreItem*)>::function(AnimatedPurchaseItemPopup*, GJStoreItem*)
16cf0 44c 20 6
FUNC 1713c 200 0 AnimatedPurchaseItemPopup::onAnimate(cocos2d::CCObject*)
1713c 1c 322 21
17158 ac 323 21
17204 24 325 21
17228 94 328 21
172bc 24 330 21
172e0 5c 332 21
FUNC 1733c 6e0 0 geode::modifier::ModifyDerive<hook375<(anonymous namespace)::hook375Parent>, GJGarageLayer>::apply()
1733c 30 416 13
1736c 2ac 440 13
17618 234 447 13
1784c 2c 459 13
17878 24 440 13
1789c 24 447 13
178c0 24 440 13
178e4 24 447 13
17908 30 440 13
17938 40 447 13
17978 a4 440 13
FUNC 17a1c 4 0 geode::modifier::ModifyBase<geode::modifier::ModifyDerive<hook375<(anonymous namespace)::hook375Parent>, GJGarageLayer> >::apply()
17a1c 4 172 14
FUNC 17a20 4f4 0 geode::modifier::AsStaticFunction_setupPage<hook375<(anonymous namespace)::hook375Parent>, void (hook375<(anonymous namespace)::hook375Parent>::*)(int, IconType)>::Impl<void (hook375<(anonymous namespace)::hook375Parent>::*)(int, IconType)>::function(hook375<(anonymous namespace)::hook375Parent>*, int, IconType)
17a20 4f4 115 13
FUNC 17f14 a8 0 geode::addresser::getVirtual<bool (GJGarageLayer::*)()>(bool (GJGarageLayer::*)())
17f14 c 169 0
17f20 9c 170 0
FUNC 17fbc 258 0 geode::modifier::AsStaticFunction_init<hook375<(anonymous namespace)::hook375Parent>, bool (hook375<(anonymous namespace)::hook375Parent>::*)()>::Impl<bool (hook375<(anonymous namespace)::hook375Parent>::*)()>::function(hook375<(anonymous namespace)::hook375Parent>*)
17fbc 258 20 6
FUNC 18214 b4 0 GJGarageLayer::GJGarageLayer(geode::ZeroConstructorType)
18214 b4 22 25
FUNC 182c8 30 0 geodeImplicitEntry
182c8 c 16 26
182d4 18 18 26
182ec c 19 26
FUNC 182f8 e4 0 cocos2d::CCDestructor::lock(void*)
182f8 20 20 27
18318 c4 21 27
FUNC 183dc 14c 0 wrapFunction(unsigned long, tulip::hook::WrapperMetadata const&)
183dc 20 27 27
183fc 8 28 27
18404 8 29 27
1840c 4 32 27
18410 24 33 27
18434 bc 30 27
184f0 38 33 27
FUNC 18528 64 0 tulip::hook::WrapperMetadata::~WrapperMetadata()
18528 64 10 29
FUNC 1858c 24 0 cocos2d::CCNode::~CCNode()
1858c 24 246 27
FUNC 185b0 24 0 cocos2d::CCObject::~CCObject()
185b0 24 296 27
FUNC 185d4 24 0 cocos2d::CCNodeRGBA::~CCNodeRGBA()
185d4 24 446 27
FUNC 185f8 24 0 cocos2d::CCSprite::~CCSprite()
185f8 24 471 27
FUNC 1861c 1a8 0 cocos2d::CCNodeRGBA::~CCNodeRGBA()
1861c 38 446 27
18654 c 449 27
18660 14 451 27
18674 c 455 27
18680 5c 458 27
186dc 10 459 27
186ec 30 460 27
1871c 30 451 27
1874c 10 452 27
1875c 30 453 27
1878c 34 451 27
187c0 4 449 27
FUNC 187c4 178 0 CCAnimatedSprite::runAnimation(gd::string)
187c4 28 1532 27
187ec 14 1534 27
18800 48 1538 27
18848 38 1534 27
18880 10 1535 27
18890 4 1534 27
18894 8 1536 27
1889c 74 1534 27
18910 2c 1538 27
FUNC 1893c a4 0 tulip::hook::AbstractFunction::from<void, CCAnimatedSprite*, gd::string>(void (*)(CCAnimatedSprite*, gd::string))
1893c 18 39 30
18954 4 42 30
18958 4 41 30
1895c 8 40 30
18964 4 41 30
18968 50 42 30
189b8 28 45 30
FUNC 189e0 1b0 0 cocos2d::CCSprite::~CCSprite()
189e0 40 471 27
18a20 c 474 27
18a2c 14 476 27
18a40 c 480 27
18a4c 5c 483 27
18aa8 10 484 27
18ab8 30 485 27
18ae8 30 476 27
18b18 10 477 27
18b28 30 478 27
18b58 34 476 27
18b8c 4 474 27
FUNC 18b90 8 0 cocos2d::CCCopying::copyWithZone(cocos2d::CCZone*)
18b90 8 72 31
FUNC 18b98 4 0 cocos2d::CCObject::update(float)
18b98 4 139 31
FUNC 18b9c 4 0 cocos2d::CCNodeRGBA::setOpacityModifyRGB(bool)
18b9c 4 1852 32
FUNC 18ba0 8 0 cocos2d::CCNodeRGBA::isOpacityModifyRGB()
18ba0 8 1853 32
FUNC 18ba8 4 0 {virtual override thunk({offset(-320)}, cocos2d::CCNodeRGBA::setOpacityModifyRGB(bool))}
FUNC 18bac 8 0 {virtual override thunk({offset(-320)}, cocos2d::CCNodeRGBA::isOpacityModifyRGB())}
FUNC 18bb4 c 0 cocos2d::CCSprite::setBlendFunc(cocos2d::_ccBlendFunc)
18bb4 c 274 33
FUNC 18bc0 c 0 cocos2d::CCSprite::getBlendFunc()
18bc0 c 278 33
FUNC 18bcc 8 0 cocos2d::CCSprite::isDirty()
18bcc 8 424 33
FUNC 18bd4 8 0 cocos2d::CCSprite::setDirty(bool)
18bd4 8 429 33
FUNC 18bdc 8 0 {virtual override thunk({offset(-344)}, cocos2d::CCSprite::setBlendFunc(cocos2d::_ccBlendFunc))}
FUNC 18be4 8 0 {virtual override thunk({offset(-344)}, cocos2d::CCSprite::getBlendFunc())}
FUNC 18bec 3b0 0 cocos2d::CCObject::~CCObject()
18bec 30 296 27
18c1c c 299 27
18c28 14 301 27
18c3c c 305 27
18c48 14 308 27
18c5c 10 309 27
18c6c 270 310 27
18edc 30 301 27
18f0c 10 302 27
18f1c 30 303 27
18f4c 38 301 27
18f84 14 310 27
18f98 4 299 27
FUNC 18f9c 190 0 cocos2d::CCNode::~CCNode()
18f9c 30 246 27
18fcc c 249 27
18fd8 14 251 27
18fec c 255 27
18ff8 4c 258 27
19044 10 259 27
19054 30 260 27
19084 30 251 27
190b4 10 252 27
190c4 30 253 27
190f4 34 251 27
19128 4 249 27
FUNC 1912c 43c 0 std::__ndk1::__hash_table<std::__ndk1::__hash_value_type<void*, bool>, std::__ndk1::__unordered_map_hasher<void*, std::__ndk1::__hash_value_type<void*, bool>, std::__ndk1::hash<void*>, std::__ndk1::equal_to<void*>, true>, std::__ndk1::__unordered_map_equal<void*, std::__ndk1::__hash_value_type<void*, bool>, std::__ndk1::equal_to<void*>, std::__ndk1::hash<void*>, true>, std::__ndk1::allocator<std::__ndk1::__hash_value_type<void*, bool> > >::__emplace_unique_key_args<void*, std::__ndk1::piecewise_construct_t const&, std::__ndk1::tuple<void* const&>, std::__ndk1::tuple<> >(void* const&, std::__ndk1::piecewise_construct_t const&, std::__ndk1::tuple<void* const&>, std::__ndk1::tuple<>)
1912c 14 1473 28
19140 8 1474 28
19148 10 1475 28
19158 30 1474 28
19188 4 1479 28
1918c 3c 1480 28
191c8 8 1481 28
191d0 8 1482 28
191d8 c 1484 28
191e4 14 1486 28
191f8 2c 1484 28
19224 8 1483 28
1922c 8 1492 28
19234 4 1493 28
19238 c 1492 28
19244 8 1493 28
1924c 8 1492 28
19254 4 1493 28
19258 4 1492 28
1925c 14 1493 28
19270 2c 1495 28
1929c 1b0 1494 28
1944c 30 1497 28
1947c 8 1500 28
19484 4 1501 28
19488 c 1510 28
19494 8 1503 28
1949c 4 1504 28
194a0 4 1503 28
194a4 4 1506 28
194a8 8 1507 28
194b0 34 1508 28
194e4 10 1515 28
194f4 20 1520 28
19514 34 1494 28
19548 8 1496 28
19550 8 1494 28
19558 10 1517 28
PUBLIC 19568 0 __udivti3
PUBLIC 19574 0 __udivmodti4
PUBLIC m 197c0 0 __eqtf2
PUBLIC 19860 0 __unordtf2
FUNC 19898 50 0 fmt::v10::detail::throw_format_error(char const*)
19898 10 39 34
198a8 40 40 34
FUNC 198e8 2c 0 fmt::v10::format_error::runtime_error(char const*)
198e8 2c 1016 35
FUNC 19914 294 0 fmt::v10::detail::write_loc(fmt::v10::appender, fmt::v10::loc_value, fmt::v10::format_specs<char> const&, fmt::v10::detail::locale_ref)
19914 30 116 34
19944 1c 118 34
19960 14 122 34
19974 38 123 34
199ac 108 124 34
19ab4 38 127 34
19aec 94 124 34
19b80 24 127 34
19ba4 4 122 34
FUNC 19ba8 70 0 fmt::v10::format_facet<std::__ndk1::locale>::~format_facet()
19ba8 70 1063 35
FUNC 19c18 750 0 fmt::v10::format_facet<std::__ndk1::locale>::do_put(fmt::v10::appender, fmt::v10::loc_value, fmt::v10::format_specs<char> const&) const
19c18 38 141 34
19c50 90 143 34
19ce0 640 142 34
1a320 48 143 34
FUNC 1a368 64 0 fmt::v10::detail::loc_writer<char>::~loc_writer()
1a368 64 2167 35
FUNC 1a3cc 128 0 fmt::v10::vformat(fmt::v10::basic_string_view<char>, fmt::v10::basic_format_args<fmt::v10::basic_format_context<fmt::v10::appender, char> >)
1a3cc 3c 1426 34
1a408 20 1429 34
1a428 c 1430 34
1a434 4c 1431 34
1a480 4 1432 34
1a484 4 1431 34
1a488 6c 1432 34
FUNC 1a4f4 424 0 fmt::v10::detail::vformat_to<char>(fmt::v10::detail::buffer<char>&, fmt::v10::basic_string_view<char>, fmt::v10::detail::vformat_args<char>::type, fmt::v10::detail::locale_ref)
1a4f4 28 4355 35
1a51c 1c 4357 35
1a538 1e4 4417 35
1a71c 10 4358 35
1a72c 10 4417 35
1a73c 28 4418 35
1a764 14 4358 35
1a778 4 4360 35
1a77c 4 4358 35
1a780 178 4360 35
1a8f8 20 4359 35
FUNC 1a918 228 0 fmt::v10::detail::is_printable(unsigned int)
1a918 2c 1653 34
1a944 50 1654 34
1a994 14 1658 34
1a9a8 6c 1659 34
1aa14 50 1672 34
1aa64 40 1663 34
1aaa4 18 1672 34
1aabc 48 1654 34
1ab04 34 1659 34
1ab38 8 1672 34
FUNC 1ab40 2b4 0 fmt::v10::detail::dragonbox::to_decimal<float>(float)
1ab40 4 1248 34
1ab44 4 1255 34
1ab48 4 1253 34
1ab4c 4 1257 34
1ab50 4 1258 34
1ab54 4 1263 34
1ab58 8 1265 34
1ab60 1c 1268 34
1ab7c 4 1297 34
1ab80 4 1277 34
1ab84 c 1278 34
1ab90 4 1277 34
1ab94 c 1279 34
1aba0 4 1278 34
1aba4 4 1297 34
1aba8 4 1278 34
1abac 4 1283 34
1abb0 14 1297 34
1abc4 8 1304 34
1abcc 4 1305 34
1abd0 4 1283 34
1abd4 4 1284 34
1abd8 c 1308 34
1abe4 14 1310 34
1abf8 c 1311 34
1ac04 4 1315 34
1ac08 14 1320 34
1ac1c 4 1322 34
1ac20 8 1320 34
1ac28 20 1322 34
1ac48 c 1328 34
1ac54 4 1304 34
1ac58 18 1328 34
1ac70 c 1337 34
1ac7c 8 1343 34
1ac84 4 1334 34
1ac88 4 1348 34
1ac8c 4 1346 34
1ac90 8 1348 34
1ac98 8 1356 34
1aca0 8 1360 34
1aca8 4 1356 34
1acac c 1360 34
1acb8 8 1356 34
1acc0 4 1362 34
1acc4 4 1356 34
1acc8 14 1362 34
1acdc f8 1263 34
1add4 c 1365 34
1ade0 8 1361 34
1ade8 c 1263 34
FUNC 1adf4 530 0 fmt::v10::detail::dragonbox::to_decimal<double>(double)
1adf4 4 1248 34
1adf8 4 1255 34
1adfc 4 1253 34
1ae00 4 1257 34
1ae04 4 1258 34
1ae08 4 1263 34
1ae0c 8 1265 34
1ae14 18 1268 34
1ae2c 4 1278 34
1ae30 8 1277 34
1ae38 54 1278 34
1ae8c c 1279 34
1ae98 6c 1278 34
1af04 4 1279 34
1af08 4 1297 34
1af0c 4 1283 34
1af10 2c 1297 34
1af3c 8 1304 34
1af44 4 1305 34
1af48 4 1283 34
1af4c 4 1284 34
1af50 8 1308 34
1af58 14 1310 34
1af6c c 1311 34
1af78 4 1315 34
1af7c 28 1320 34
1afa4 1c 1322 34
1afc0 10 1325 34
1afd0 3c 1328 34
1b00c 4 1304 34
1b010 18 1328 34
1b028 c 1337 34
1b034 c 1343 34
1b040 4 1346 34
1b044 4 1343 34
1b048 8 1348 34
1b050 4 1356 34
1b054 8 1360 34
1b05c c 1356 34
1b068 10 1360 34
1b078 4 1362 34
1b07c 14 1356 34
1b090 8 1362 34
1b098 1c 1365 34
1b0b4 120 1263 34
1b1d4 8 1365 34
1b1dc 38 1328 34
1b214 c 1365 34
1b220 88 1263 34
1b2a8 4 1361 34
1b2ac 8 1365 34
1b2b4 4 1263 34
1b2b8 4 1365 34
1b2bc 4 1263 34
1b2c0 4 1365 34
1b2c4 58 1263 34
1b31c 8 1365 34
FUNC 1b324 24 0 fmt::v10::format_error::~format_error()
1b324 24 1014 35
FUNC 1b348 138 0 fmt::v10::basic_memory_buffer<char, (unsigned long)500, std::__ndk1::allocator<char> >::grow(unsigned long)
1b348 10 897 35
1b358 8 900 35
1b360 4 906 35
1b364 4 901 35
1b368 8 902 35
1b370 8 908 35
1b378 4 910 35
1b37c cc 912 35
1b448 4 917 35
1b44c 4 913 35
1b450 4 917 35
1b454 4 913 35
1b458 18 917 35
1b470 10 918 35
FUNC 1b480 78 0 fmt::v10::format_facet<std::__ndk1::locale>::~format_facet()
1b480 78 1063 35
FUNC 1b4f8 6c 0 fmt::v10::detail::default_arg_formatter<char>::operator()<bool>(bool)
1b4f8 14 3775 35
1b50c 58 3776 35
FUNC 1b564 48 0 fmt::v10::detail::default_arg_formatter<char>::operator()<char const*>(char const*)
1b564 c 3775 35
1b570 3c 3776 35
FUNC 1b5ac 98 0 fmt::v10::detail::default_arg_formatter<char>::operator()<void const*>(void const*)
1b5ac 10 3775 35
1b5bc 88 3776 35
FUNC 1b644 1f8 0 _ZN3fmt3v106detail5writeIcNS0_8appenderEiTnNSt6__ndk19enable_ifIXaaaasr11is_integralIT1_EE5valuentsr3std7is_sameIS6_bEE5valuentsr3std7is_sameIS6_T_EE5valueEiE4typeELi0EEET0_SA_S6_
1b644 20 2355 35
1b664 c 2359 35
1b670 1c 2360 35
1b68c 4 2363 35
1b690 4 2360 35
1b694 8 2361 35
1b69c 24 2363 35
1b6c0 c 2364 35
1b6cc 58 2365 35
1b724 3c 2368 35
1b760 90 2369 35
1b7f0 2c 2371 35
1b81c 20 2365 35
FUNC 1b83c 16c 0 fmt::v10::detail::copy_str_noinline<char, char*, fmt::v10::appender>(char*, char*, fmt::v10::appender)
1b83c 10 604 35
1b84c 15c 605 35
FUNC 1b9a8 198 0 _ZN3fmt3v106detail5writeIcNS0_8appenderEjTnNSt6__ndk19enable_ifIXaaaasr11is_integralIT1_EE5valuentsr3std7is_sameIS6_bEE5valuentsr3std7is_sameIS6_T_EE5valueEiE4typeELi0EEET0_SA_S6_
1b9a8 14 2355 35
1b9bc 24 2360 35
1b9e0 4 2363 35
1b9e4 4 2360 35
1b9e8 4 2361 35
1b9ec 1c 2363 35
1ba08 5c 2365 35
1ba64 94 2369 35
1baf8 28 2371 35
1bb20 20 2365 35
FUNC 1bb40 21c 0 _ZN3fmt3v106detail5writeIcNS0_8appenderExTnNSt6__ndk19enable_ifIXaaaasr11is_integralIT1_EE5valuentsr3std7is_sameIS6_bEE5valuentsr3std7is_sameIS6_T_EE5valueEiE4typeELi0EEET0_SA_S6_
1bb40 1c 2355 35
1bb5c c 2359 35
1bb68 2c 2360 35
1bb94 4 2363 35
1bb98 8 2360 35
1bba0 8 2361 35
1bba8 20 2363 35
1bbc8 c 2364 35
1bbd4 64 2365 35
1bc38 3c 2368 35
1bc74 9c 2369 35
1bd10 2c 2371 35
1bd3c 20 2365 35
FUNC 1bd5c 1c0 0 _ZN3fmt3v106detail5writeIcNS0_8appenderEyTnNSt6__ndk19enable_ifIXaaaasr11is_integralIT1_EE5valuentsr3std7is_sameIS6_bEE5valuentsr3std7is_sameIS6_T_EE5valueEiE4typeELi0EEET0_SA_S6_
1bd5c 14 2355 35
1bd70 34 2360 35
1bda4 4 2363 35
1bda8 8 2360 35
1bdb0 1c 2363 35
1bdcc 68 2365 35
1be34 a0 2369 35
1bed4 28 2371 35
1befc 20 2365 35
FUNC 1bf1c 2f0 0 _ZN3fmt3v106detail5writeIcNS0_8appenderEnTnNSt6__ndk19enable_ifIXaaaasr11is_integralIT1_EE5valuentsr3std7is_sameIS6_bEE5valuentsr3std7is_sameIS6_T_EE5valueEiE4typeELi0EEET0_SA_S6_
1bf1c 20 2355 35
1bf3c 24 2359 35
1bf60 ac 2360 35
1c00c 4 2361 35
1c010 4 2363 35
1c014 4 2361 35
1c018 24 2363 35
1c03c c 2364 35
1c048 60 2365 35
1c0a8 38 2368 35
1c0e0 bc 2369 35
1c19c 40 2371 35
1c1dc 30 2365 35
FUNC 1c20c 288 0 _ZN3fmt3v106detail5writeIcNS0_8appenderEoTnNSt6__ndk19enable_ifIXaaaasr11is_integralIT1_EE5valuentsr3std7is_sameIS6_bEE5valuentsr3std7is_sameIS6_T_EE5valueEiE4typeELi0EEET0_SA_S6_
1c20c 30 2355 35
1c23c 94 2360 35
1c2d0 8 2361 35
1c2d8 c 2360 35
1c2e4 4 2363 35
1c2e8 4 2361 35
1c2ec 18 2363 35
1c304 4 2365 35
1c308 4 2363 35
1c30c 5c 2365 35
1c368 bc 2369 35
1c424 40 2371 35
1c464 30 2365 35
FUNC 1c494 288 0 _ZN3fmt3v106detail5writeIcNS0_8appenderEbTnNSt6__ndk19enable_ifIXsr3std7is_sameIT1_bEE5valueEiE4typeELi0EEET0_S9_S6_RKNS0_12format_specsIT_EENS1_10locale_refE
1c494 34 3712 35
1c4c8 10 3713 35
1c4d8 1b8 3716 35
1c690 58 3715 35
1c6e8 34 3713 35
FUNC 1c71c c7c 0 fmt::v10::detail::write_int_noinline<char, fmt::v10::appender, unsigned int>(fmt::v10::appender, fmt::v10::detail::write_int_arg<unsigned int>, fmt::v10::format_specs<char> const&, fmt::v10::detail::locale_ref)
1c71c 3c 2247 35
1c758 c40 2248 35
FUNC 1d398 220 0 fmt::v10::detail::write_char<char, fmt::v10::appender>(fmt::v10::appender, char, fmt::v10::format_specs<char> const&)
1d398 20 1939 35
1d3b8 24 1941 35
1d3dc 4 1940 35
1d3e0 178 1941 35
1d558 30 1946 35
1d588 30 1941 35
FUNC 1d5b8 1f0 0 fmt::v10::detail::fill<fmt::v10::appender, char>(fmt::v10::appender, unsigned long, fmt::v10::detail::fill_t<char> const&)
1d5b8 18 1716 35
1d5d0 10 1717 35
1d5e0 54 1718 35
1d634 1c 1720 35
1d650 13c 1721 35
1d78c 1c 1723 35
FUNC 1d7a8 32c 0 fmt::v10::detail::write_escaped_cp<fmt::v10::appender, char>(fmt::v10::appender, fmt::v10::detail::find_escape_result<char> const&)
1d7a8 28 1862 35
1d7d0 4 1863 35
1d7d4 20 1864 35
1d7f4 38 1870 35
1d82c 18 1864 35
1d844 34 1882 35
1d878 38 1874 35
1d8b0 8 1885 35
1d8b8 10 1886 35
1d8c8 40 1866 35
1d908 34 1901 35
1d93c 2c 1903 35
1d968 8 1888 35
1d970 124 1889 35
1da94 8 1891 35
1da9c 10 1892 35
1daac 8 1895 35
1dab4 8 1894 35
1dabc 8 1896 35
1dac4 10 1894 35
FUNC 1dad4 184 0 fmt::v10::detail::write_codepoint<(unsigned long)2, char, fmt::v10::appender>(fmt::v10::appender, char, unsigned int)
1dad4 2c 1851 35
1db00 3c 1852 35
1db3c 34 1853 35
1db70 c 1855 35
1db7c 10 1853 35
1db8c 20 1856 35
1dbac 7c 1857 35
1dc28 30 1858 35
FUNC 1dc58 184 0 fmt::v10::detail::write_codepoint<(unsigned long)8, char, fmt::v10::appender>(fmt::v10::appender, char, unsigned int)
1dc58 2c 1851 35
1dc84 3c 1852 35
1dcc0 34 1853 35
1dcf4 c 1855 35
1dd00 10 1853 35
1dd10 20 1856 35
1dd30 7c 1857 35
1ddac 30 1858 35
FUNC 1dddc 8e8 0 _ZN3fmt3v106detail5writeIcNS0_8appenderEfTnNSt6__ndk19enable_ifIXsr13is_fast_floatIT1_EE5valueEiE4typeELi0EEET0_S9_S6_
1dddc 24 3647 35
1de00 8 3652 35
1de08 14 3657 35
1de1c c 3652 35
1de28 8 3657 35
1de30 c 3661 35
1de3c 50 3662 35
1de8c 8 3664 35
1de94 c 3665 35
1dea0 4 3664 35
1dea4 74c 3665 35
1e5f0 3c 3666 35
1e62c 98 3665 35
FUNC 1e6c4 22c 0 fmt::v10::detail::write_padded<(fmt::v10::align::type)1, fmt::v10::appender, char, fmt::v10::detail::write_nonfinite<char, fmt::v10::appender>(fmt::v10::appender, bool, fmt::v10::format_specs<char>, fmt::v10::detail::float_specs const&)::{lambda(fmt::v10::appender&)#1}>(fmt::v10::appender, fmt::v10::format_specs<char> const&, unsigned long, unsigned long, fmt::v10::detail::write_nonfinite<char, fmt::v10::appender>(fmt::v10::appender, bool, fmt::v10::format_specs<char>, fmt::v10::detail::float_specs const&)::{lambda(fmt::v10::appender&)#1})
1e6c4 20 1731 35
1e6e4 4 1733 35
1e6e8 14 1738 35
1e6fc 8 1734 35
1e704 4 1738 35
1e708 4 1734 35
1e70c 4 1738 35
1e710 4 1741 35
1e714 4 1740 35
1e718 c 1741 35
1e724 194 1742 35
1e8b8 8 1743 35
1e8c0 4 1740 35
1e8c4 c 1743 35
1e8d0 20 1745 35
FUNC 1e8f0 154 0 fmt::v10::detail::do_write_float<fmt::v10::appender, fmt::v10::detail::dragonbox::decimal_fp<float>, char, fmt::v10::detail::digit_grouping<char> >(fmt::v10::appender, fmt::v10::detail::dragonbox::decimal_fp<float> const&, fmt::v10::format_specs<char> const&, fmt::v10::detail::float_specs, fmt::v10::detail::locale_ref)::{lambda(fmt::v10::appender(fmt::v10::appender))#1}::operator() const
1e8f0 28 2641 35
1e918 48 2642 35
1e960 24 2644 35
1e984 c 2646 35
1e990 34 2647 35
1e9c4 4 2648 35
1e9c8 4 2647 35
1e9cc 30 2648 35
1e9fc 48 2646 35
FUNC 1ea44 238 0 fmt::v10::detail::digit_grouping<char>::digit_grouping(fmt::v10::detail::locale_ref, bool)
1ea44 2c 2031 35
1ea70 8 2032 35
1ea78 d4 2033 35
1eb4c 60 2034 35
1ebac 8 2035 35
1ebb4 4 2031 35
1ebb8 8 2035 35
1ebc0 38 2036 35
1ebf8 34 2033 35
1ec2c 50 2036 35
FUNC 1ec7c 44 0 fmt::v10::detail::digit_grouping<char>::~digit_grouping()
1ec7c 44 2009 35
FUNC 1ecc0 1bc 0 fmt::v10::detail::write_exponent<char, fmt::v10::appender>(int, fmt::v10::appender)
1ecc0 24 1596 35
1ece4 4 1602 35
1ece8 4 1598 35
1ecec 2c 1602 35
1ed18 28 1599 35
1ed40 8 1600 35
1ed48 14 1604 35
1ed5c 10 1606 35
1ed6c 8 1605 35
1ed74 3c 1606 35
1edb0 40 1607 35
1edf0 4 1611 35
1edf4 4 1610 35
1edf8 34 1611 35
1ee2c 34 1612 35
1ee60 4 1614 35
1ee64 4 1612 35
1ee68 14 1614 35
FUNC 1ee7c 17c 0 _ZN3fmt3v106detail17write_significandIcjTnNSt6__ndk19enable_ifIXsr3std11is_integralIT0_EE5valueEiE4typeELi0EEEPT_S9_S5_iiS8_
1ee84 4 2539 35
1ee88 4 2543 35
1ee8c c 2541 35
1ee98 20 2544 35
1eeb8 4 2547 35
1eebc 8 2544 35
1eec4 c 2547 35
1eed0 8 2546 35
1eed8 4 2544 35
1eedc 4 2549 35
1eee0 18 2551 35
1eef8 c 2550 35
1ef04 4 2554 35
1ef08 4 2553 35
1ef0c 44 2554 35
1ef50 4 2556 35
1ef54 54 2540 35
1efa8 c 2556 35
1efb4 c 2549 35
1efc0 10 2554 35
1efd0 c 2556 35
1efdc 18 2540 35
1eff4 4 2556 35
FUNC 1eff8 ac 0 std::__ndk1::basic_string<char, std::__ndk1::char_traits<char>, std::__ndk1::allocator<char> >::__assign_no_alias<true>(char const*, unsigned long)
1eff8 18 2450 16
1f010 c 2452 16
1f01c c 2457 16
1f028 14 2458 16
1f03c 44 2464 16
1f080 1c 2466 16
1f09c 8 2464 16
FUNC 1f0a4 100 0 std::__ndk1::basic_string<char, std::__ndk1::char_traits<char>, std::__ndk1::allocator<char> >::__assign_no_alias<false>(char const*, unsigned long)
1f0a4 14 2450 16
1f0b8 10 2451 16
1f0c8 8 2452 16
1f0d0 4 2456 16
1f0d4 4 2457 16
1f0d8 14 2458 16
1f0ec 94 2464 16
1f180 1c 2466 16
1f19c 8 2464 16
FUNC 1f1a4 3c4 0 fmt::v10::detail::digit_grouping<char>::apply<fmt::v10::appender, char>(fmt::v10::appender, fmt::v10::basic_string_view<char>) const
1f1a4 30 2051 35
1f1d4 4 2053 35
1f1d8 14 2054 35
1f1ec 8 2053 35
1f1f4 c 2056 35
1f200 4 2053 35
1f204 8 2056 35
1f20c 8 2054 35
1f214 8 2056 35
1f21c 24 2055 35
1f240 4 2058 35
1f244 8 2056 35
1f24c 4 2058 35
1f250 6c 2056 35
1f2bc 30 2058 35
1f2ec 2c 2060 35
1f318 c 2061 35
1f324 c 2068 35
1f330 4 2061 35
1f334 4 2068 35
1f338 4 2060 35
1f33c 4 2068 35
1f340 4 2060 35
1f344 14 2062 35
1f358 4 2064 35
1f35c 14 2065 35
1f370 140 2064 35
1f4b0 4 2066 35
1f4b4 2c 2068 35
1f4e0 88 2071 35
FUNC 1f568 110 0 fmt::v10::basic_memory_buffer<int, (unsigned long)500, std::__ndk1::allocator<int> >::grow(unsigned long)
1f568 10 897 35
1f578 8 900 35
1f580 4 902 35
1f584 4 901 35
1f588 18 902 35
1f5a0 18 908 35
1f5b8 4 910 35
1f5bc 80 912 35
1f63c 4 917 35
1f640 4 913 35
1f644 4 917 35
1f648 4 913 35
1f64c 18 917 35
1f664 10 918 35
1f674 4 908 35
FUNC 1f678 92c 0 _ZN3fmt3v106detail5writeIcNS0_8appenderEdTnNSt6__ndk19enable_ifIXsr13is_fast_floatIT1_EE5valueEiE4typeELi0EEET0_S9_S6_
1f678 24 3647 35
1f69c 8 3652 35
1f6a4 14 3657 35
1f6b8 c 3652 35
1f6c4 8 3657 35
1f6cc c 3661 35
1f6d8 50 3662 35
1f728 4 3664 35
1f72c 10 3665 35
1f73c 4 3664 35
1f740 8 3665 35
1f748 4 3664 35
1f74c 784 3665 35
1fed0 3c 3666 35
1ff0c 98 3665 35
FUNC 1ffa4 158 0 fmt::v10::detail::do_write_float<fmt::v10::appender, fmt::v10::detail::dragonbox::decimal_fp<double>, char, fmt::v10::detail::digit_grouping<char> >(fmt::v10::appender, fmt::v10::detail::dragonbox::decimal_fp<double> const&, fmt::v10::format_specs<char> const&, fmt::v10::detail::float_specs, fmt::v10::detail::locale_ref)::{lambda(fmt::v10::appender(fmt::v10::appender))#1}::operator() const
1ffa4 28 2641 35
1ffcc 48 2642 35
20014 28 2644 35
2003c c 2646 35
20048 34 2647 35
2007c 4 2648 35
20080 4 2647 35
20084 30 2648 35
200b4 48 2646 35
FUNC 200fc 190 0 _ZN3fmt3v106detail17write_significandIcmTnNSt6__ndk19enable_ifIXsr3std11is_integralIT0_EE5valueEiE4typeELi0EEEPT_S9_S5_iiS8_
20104 8 2539 35
2010c 4 2543 35
20110 8 2541 35
20118 28 2544 35
20140 4 2547 35
20144 8 2544 35
2014c 10 2547 35
2015c 8 2546 35
20164 4 2544 35
20168 10 2549 35
20178 c 2551 35
20184 c 2550 35
20190 4 2554 35
20194 4 2553 35
20198 40 2554 35
201d8 4 2556 35
201dc 60 2540 35
2023c c 2556 35
20248 c 2549 35
20254 10 2554 35
20264 c 2556 35
20270 18 2540 35
20288 4 2556 35
FUNC 2028c ab4 0 fmt::v10::detail::write_float<char, fmt::v10::appender, long double>(fmt::v10::appender, long double, fmt::v10::format_specs<char>, fmt::v10::detail::locale_ref)
2028c 30 3589 35
202bc 24 3590 35
202e0 4 3592 35
202e4 4 3591 35
202e8 4 3592 35
202ec 4 3591 35
202f0 4 3592 35
202f4 8 3591 35
202fc 10 3595 35
2030c 4 3594 35
20310 4 3593 35
20314 10 3594 35
20324 44 3599 35
20368 18 3602 35
20380 48 3604 35
203c8 4 3606 35
203cc 4 3604 35
203d0 18 3607 35
203e8 94 3600 35
2047c 10 3610 35
2048c 4 3611 35
20490 4 3610 35
20494 4 3611 35
20498 4 3610 35
2049c 4 3611 35
204a0 2c 3612 35
204cc 18 3617 35
204e4 c 3620 35
204f0 8 3621 35
204f8 c 3624 35
20504 8 3625 35
2050c 118 3629 35
20624 4c0 3613 35
20ae4 28 3614 35
20b0c 88 3629 35
20b94 4 3631 35
20b98 c8 3629 35
20c60 c 3631 35
20c6c 4 3632 35
20c70 4 3631 35
20c74 18 3632 35
20c8c 48 3633 35
20cd4 3c 3622 35
20d10 30 3633 35
FUNC 20d40 104 0 fmt::v10::detail::parse_float_type_spec<char>(fmt::v10::format_specs<char> const&)
20d40 4 2438 35
20d44 4 2440 35
20d48 4 2439 35
20d4c 8 2438 35
20d54 4 2440 35
20d58 8 2439 35
20d60 24 2440 35
20d84 4 2445 35
20d88 8 2474 35
20d90 44 2440 35
20dd4 c 2471 35
20de0 4 2465 35
20de4 4 2468 35
20de8 8 2474 35
20df0 4 2451 35
20df4 24 2455 35
20e18 8 2474 35
20e20 4 2458 35
20e24 18 2462 35
20e3c 8 2474 35
FUNC 20e44 1d4 0 fmt::v10::detail::write_padded<(fmt::v10::align::type)2, fmt::v10::appender, char, fmt::v10::detail::write_bytes<(fmt::v10::align::type)2, char, fmt::v10::appender>(fmt::v10::appender, fmt::v10::basic_string_view<char>, fmt::v10::format_specs<char> const&)::{lambda(fmt::v10::appender&)#1}>(fmt::v10::appender, fmt::v10::format_specs<char> const&, unsigned long, unsigned long, fmt::v10::detail::write_bytes<(fmt::v10::align::type)2, char, fmt::v10::appender>(fmt::v10::appender, fmt::v10::basic_string_view<char>, fmt::v10::format_specs<char> const&)::{lambda(fmt::v10::appender&)#1})
20e44 1c 1731 35
20e60 4 1733 35
20e64 14 1738 35
20e78 8 1734 35
20e80 4 1738 35
20e84 4 1734 35
20e88 4 1738 35
20e8c 4 1741 35
20e90 4 1740 35
20e94 c 1741 35
20ea0 144 1742 35
20fe4 c 1743 35
20ff0 4 1740 35
20ff4 8 1743 35
20ffc 1c 1745 35
FUNC 21018 1398 0 fmt::v10::detail::format_dragon(fmt::v10::detail::basic_fp<unsigned __int128>, unsigned int, int, fmt::v10::detail::buffer<char>&, int&)
21018 34 3049 35
2104c 8 3050 35
21054 14 3060 35
21068 8 3051 35
21070 4 3061 35
21074 c 3054 35
21080 c 3050 35
2108c 4 3053 35
21090 4 3060 35
21094 c 3050 35
210a0 c 3051 35
210ac c 3053 35
210b8 18 3054 35
210d0 4 3061 35
210d4 38 3062 35
2110c 8 3073 35
21114 38 3086 35
2114c 38 3062 35
21184 10 3063 35
21194 2c 3064 35
211c0 4 3065 35
211c4 c 3064 35
211d0 8 3065 35
211d8 10 3066 35
211e8 2c 3067 35
21214 8 3068 35
2121c c 3067 35
21228 10 3068 35
21238 c 3071 35
21244 c 3072 35
21250 8 3096 35
21258 c 3097 35
21264 8 3096 35
2126c 8 3097 35
21274 4 3099 35
21278 58 3100 35
212d0 c 3074 35
212dc 38 3075 35
21314 d4 3100 35
213e8 38 3086 35
21420 10 3087 35
21430 c 3088 35
2143c 14 3089 35
21450 38 3090 35
21488 10 3091 35
21498 40 3092 35
214d8 80 3075 35
21558 c 3100 35
21564 c 3101 35
21570 6c 3102 35
215dc 8 3103 35
215e4 24 3108 35
21608 8 3111 35
21610 4 3140 35
21614 4 3141 35
21618 c 3140 35
21624 8 3141 35
2162c 34 3147 35
21660 4 3148 35
21664 4 3147 35
21668 4 3148 35
2166c c 3153 35
21678 dc 3154 35
21754 14 3114 35
21768 1c 3115 35
21784 c 3136 35
21790 c 3116 35
2179c 94 3117 35
21830 114 3119 35
21944 4 3120 35
21948 4 3121 35
2194c 8 3120 35
21954 c 3121 35
21960 6c 3134 35
219cc 70 3135 35
21a3c 88 3136 35
21ac4 8 3122 35
21acc 8 3124 35
21ad4 c4 3125 35
21b98 7c 3142 35
21c14 34 3143 35
21c48 10 3151 35
21c58 c 3148 35
21c64 c 3149 35
21c70 c 3150 35
21c7c 60 3151 35
21cdc c 3143 35
21ce8 38 3144 35
21d20 70 3104 35
21d90 78 3105 35
21e08 98 3143 35
21ea0 8 3155 35
21ea8 8 3156 35
21eb0 4 3158 35
21eb4 8 3160 35
21ebc 4 3158 35
21ec0 24 3160 35
21ee4 4 3161 35
21ee8 4 3160 35
21eec 4 3162 35
21ef0 4 3160 35
21ef4 c 3162 35
21f00 8 3160 35
21f08 14 3164 35
21f1c 4 3165 35
21f20 4 3166 35
21f24 10 3169 35
21f34 4 3173 35
21f38 18 3175 35
21f50 10 3075 35
21f60 4 3081 35
21f64 8 3075 35
21f6c 8 3076 35
21f74 8 3081 35
21f7c ac 3077 35
22028 44 3167 35
2206c 18 3077 35
22084 c 3078 35
22090 84 3081 35
22114 10 3082 35
22124 2c 3083 35
22150 4 3084 35
22154 8 3083 35
2215c 4 3084 35
22160 4 3083 35
22164 c 3084 35
22170 4c 3081 35
221bc 18 3127 35
221d4 30 3130 35
22204 4 3131 35
22208 8 3130 35
22210 8 3131 35
22218 94 3176 35
222ac 94 3108 35
22340 70 3176 35
FUNC 223b0 128 0 fmt::v10::detail::bigint::operator<<=(int)
223b0 20 2896 35
223d0 4 2898 35
223d4 50 2900 35
22424 8 2901 35
2242c 4 2900 35
22430 8 2901 35
22438 1c 2902 35
22454 20 2900 35
22474 4 2901 35
22478 4 2900 35
2247c 4 2902 35
22480 4 2901 35
22484 c 2902 35
22490 4 2900 35
22494 40 2905 35
224d4 4 2907 35
FUNC 224d8 760 0 fmt::v10::detail::bigint::assign_pow10(int)
224d8 34 2961 35
2250c 14 2963 35
22520 10 2966 35
22530 1c 2970 35
2254c 3c 2963 35
22588 30 2978 35
225b8 28 2970 35
225e0 4 2972 35
225e4 c 2970 35
225f0 8 2972 35
225f8 40 2977 35
22638 c 2971 35
22644 1c 2972 35
22660 8 2974 35
22668 4 2975 35
2266c 8 2972 35
22674 4f0 2973 35
22b64 7c 2974 35
22be0 58 2973 35
FUNC 22c38 314 0 fmt::v10::detail::bigint::divmod_assign(fmt::v10::detail::bigint const&)
22c38 18 3023 35
22c50 7c 3025 35
22ccc 80 3027 35
22d4c 10 3025 35
22d5c 20 3027 35
22d7c 4 3030 35
22d80 c 3027 35
22d8c 4 3032 35
22d90 b4 3030 35
22e44 4 3032 35
22e48 4 3031 35
22e4c 4 3030 35
22e50 4 3032 35
22e54 4 3030 35
22e58 68 3032 35
22ec0 1c 3034 35
22edc 70 3027 35
FUNC 22f4c 110 0 fmt::v10::basic_memory_buffer<unsigned int, (unsigned long)32, std::__ndk1::allocator<unsigned int> >::grow(unsigned long)
22f4c 10 897 35
22f5c 8 900 35
22f64 4 902 35
22f68 4 901 35
22f6c 18 902 35
22f84 18 908 35
22f9c 4 910 35
22fa0 80 912 35
23020 4 917 35
23024 4 913 35
23028 4 917 35
2302c 4 913 35
23030 18 917 35
23048 10 918 35
23058 4 908 35
FUNC 2305c e4c 0 fmt::v10::detail::do_write_float<fmt::v10::appender, fmt::v10::detail::big_decimal_fp, char, fmt::v10::detail::digit_grouping<char> >(fmt::v10::appender, fmt::v10::detail::big_decimal_fp const&, fmt::v10::format_specs<char> const&, fmt::v10::detail::float_specs, fmt::v10::detail::locale_ref)
2305c 44 2605 35
230a0 4 2609 35
230a4 4 2607 35
230a8 4 2606 35
230ac c 2610 35
230b8 50 2614 35
23108 4 2626 35
2310c 4 2616 35
23110 4 2626 35
23114 4 2616 35
23118 2c 2626 35
23144 4 2655 35
23148 4 2657 35
2314c 4 2658 35
23150 8 2660 35
23158 4 2662 35
2315c 8 2661 35
23164 c 2662 35
23170 c 2663 35
2317c 8 2628 35
23184 10 2632 35
23194 8 2629 35
2319c 4 2630 35
231a0 c 2631 35
231ac 4 2640 35
231b0 c 2641 35
231bc 4 2650 35
231c0 8 2641 35
231c8 4 2640 35
231cc 4 2641 35
231d0 4 2650 35
231d4 14 2641 35
231e8 4 2650 35
231ec 10 2639 35
231fc 10 2635 35
2320c 4 2639 35
23210 14 2637 35
23224 4 2639 35
23228 58 2650 35
23280 10 2651 35
23290 8 2675 35
23298 8 2677 35
232a0 10 2679 35
232b0 4 2677 35
232b4 c 2678 35
232c0 18 2679 35
232d8 74 2680 35
2334c 4 2689 35
23350 10 2694 35
23360 c 2690 35
2336c 8 2694 35
23374 4 2690 35
23378 4 2696 35
2337c c 2694 35
23388 4 2696 35
2338c 4 2694 35
23390 8 2695 35
23398 140 2696 35
234d8 28 2665 35
23500 78 2666 35
23578 4bc 2667 35
23a34 8 2681 35
23a3c 4 2680 35
23a40 250 2681 35
23c90 34 2704 35
23cc4 160 2696 35
23e24 20 2681 35
23e44 2c 2614 35
23e70 38 2667 35
FUNC 23ea8 16c 0 fmt::v10::detail::do_write_float<fmt::v10::appender, fmt::v10::detail::big_decimal_fp, char, fmt::v10::detail::digit_grouping<char> >(fmt::v10::appender, fmt::v10::detail::big_decimal_fp const&, fmt::v10::format_specs<char> const&, fmt::v10::detail::float_specs, fmt::v10::detail::locale_ref)::{lambda(fmt::v10::appender(fmt::v10::appender))#1}::operator() const
23ea8 14 2641 35
23ebc 50 2642 35
23f0c c 2644 35
23f18 4 2645 35
23f1c 54 2644 35
23f70 c 2646 35
23f7c 38 2647 35
23fb4 1c 2648 35
23fd0 44 2646 35
FUNC 24014 16c 0 fmt::v10::detail::copy_str_noinline<char, char const*, fmt::v10::appender>(char const*, char const*, fmt::v10::appender)
24014 10 604 35
24024 15c 605 35
FUNC 24180 1cc 0 fmt::v10::detail::write_padded<(fmt::v10::align::type)2, fmt::v10::appender, char, fmt::v10::detail::write_ptr<char, fmt::v10::appender, unsigned long>(fmt::v10::appender, unsigned long, fmt::v10::format_specs<char> const*)::{lambda(fmt::v10::appender&)#1}>(fmt::v10::appender, fmt::v10::format_specs<char> const&, unsigned long, unsigned long, fmt::v10::detail::write_ptr<char, fmt::v10::appender, unsigned long>(fmt::v10::appender, unsigned long, fmt::v10::format_specs<char> const*)::{lambda(fmt::v10::appender&)#1})
24180 1c 1731 35
2419c 20 1738 35
241bc 4 1733 35
241c0 4 1738 35
241c4 4 1734 35
241c8 4 1738 35
241cc 4 1734 35
241d0 4 1738 35
241d4 4 1741 35
241d8 4 1740 35
241dc c 1741 35
241e8 c8 1742 35
242b0 c 1743 35
242bc 4 1740 35
242c0 8 1743 35
242c8 30 1745 35
242f8 44 1742 35
2433c 10 1743 35
FUNC 2434c 1c34 0 fmt::v10::detail::parse_replacement_field<char, fmt::v10::detail::vformat_to<char>(fmt::v10::detail::buffer<char>&, fmt::v10::basic_string_view<char>, fmt::v10::detail::vformat_args<char>::type, fmt::v10::detail::locale_ref)::format_handler&>(char const*, char const*, fmt::v10::detail::vformat_to<char>(fmt::v10::detail::buffer<char>&, fmt::v10::basic_string_view<char>, fmt::v10::detail::vformat_args<char>::type, fmt::v10::detail::locale_ref)::format_handler&)
2434c 28 2487 36
24374 8 2499 36
2437c c 2500 36
24388 20 2501 36
243a8 3c 2502 36
243e4 28 2504 36
2440c a8 2507 36
244b4 6c 2502 36
24520 168 2507 36
24688 14 2508 36
2469c 10 2509 36
246ac 34 2510 36
246e0 f8 2512 36
247d8 70 2510 36
24848 2d8 2512 36
24b20 270 2502 36
24d90 174 2510 36
24f04 d14 2512 36
25c18 14 2513 36
25c2c 10 2520 36
25c3c 4 2519 36
25c40 28 2520 36
25c68 e8 2512 36
25d50 1c 2514 36
25d6c c 2502 36
25d78 20 2507 36
25d98 60 2512 36
25df8 20 2507 36
25e18 7c 2512 36
25e94 c 2502 36
25ea0 e0 2512 36
FUNC 25f80 27c 0 fmt::v10::detail::parse_dynamic_spec<char>(char const*, char const*, int&, fmt::v10::detail::arg_ref<char>&, fmt::v10::basic_format_parse_context<char>&)
25f80 8 2274 36
25f88 14 2276 36
25f9c 70 2277 36
2600c 8 2279 36
26014 8 2282 36
2601c 4 2283 36
26020 3c 2285 36
2605c 20 2286 36
2607c c 2290 36
26088 150 2285 36
261d8 c 2281 36
261e4 18 2285 36
FUNC 261fc 158 0 fmt::v10::basic_format_args<fmt::v10::basic_format_context<fmt::v10::appender, char> >::get<char>(fmt::v10::basic_string_view<char>) const
261fc 20 1979 36
2621c ac 1980 36
262c8 48 1981 36
26310 20 1982 36
26330 24 1981 36
FUNC 26354 cdc 0 fmt::v10::detail::write_int_noinline<char, fmt::v10::appender, unsigned long>(fmt::v10::appender, fmt::v10::detail::write_int_arg<unsigned long>, fmt::v10::format_specs<char> const&, fmt::v10::detail::locale_ref)
26354 38 2247 35
2638c ca4 2248 35
FUNC 27030 ea0 0 fmt::v10::detail::write_int_noinline<char, fmt::v10::appender, unsigned __int128>(fmt::v10::appender, fmt::v10::detail::write_int_arg<unsigned __int128>, fmt::v10::format_specs<char> const&, fmt::v10::detail::locale_ref)
27030 30 2247 35
27060 e70 2248 35
FUNC 27ed0 550 0 _ZN3fmt3v106detail15format_hexfloatIdTnNSt6__ndk19enable_ifIXntsr16is_double_doubleIT_EE5valueEiE4typeELi0EEEvS5_iNS1_11float_specsERNS1_6bufferIcEE
27ed0 20 3181 35
27ef0 24 3194 35
27f14 10 3195 35
27f24 8 3194 35
27f2c 4 3195 35
27f30 c 3209 35
27f3c 10 3210 35
27f4c 10 3214 35
27f5c c 3215 35
27f68 4 3216 35
27f6c 1c 3217 35
27f88 1c 3233 35
27fa4 20 3234 35
27fc4 34 3237 35
27ff8 34 3239 35
2802c 8 3240 35
28034 8 3239 35
2803c 38 3240 35
28074 28 3241 35
2809c 8 3242 35
280a4 c 3241 35
280b0 4 3242 35
280b4 4 3241 35
280b8 c 3242 35
280c4 38 3243 35
280fc 148 3244 35
28244 50 3245 35
28294 4c 3247 35
282e0 4 3254 35
282e4 4 3250 35
282e8 2c 3254 35
28314 28 3251 35
2833c 8 3252 35
28344 a8 3257 35
283ec 34 3258 35
FUNC 28420 978 0 fmt::v10::detail::format_float<double>(double, int, fmt::v10::detail::float_specs, fmt::v10::detail::buffer<char>&)
28420 20 3279 35
28440 4 3285 35
28444 14 3286 35
28458 4 3311 35
2845c 18 3324 35
28474 4 3328 35
28478 4 3329 35
2847c 4 3340 35
28480 4 3336 35
28484 4 3345 35
28488 4 3333 35
2848c c 3332 35
28498 8 3343 35
284a0 4 3347 35
284a4 4 3352 35
284a8 4 3332 35
284ac 4 3360 35
284b0 4 3352 35
284b4 4 3360 35
284b8 4 3352 35
284bc 18 3360 35
284d4 4 3354 35
284d8 8 3360 35
284e0 8 3354 35
284e8 4 3360 35
284ec 4 3354 35
284f0 7c 3360 35
2856c 18 3359 35
28584 24 3365 35
285a8 24 3376 35
285cc 8 3380 35
285d4 10 3383 35
285e4 c 3419 35
285f0 4 3461 35
285f4 8 3401 35
285fc 4 3419 35
28600 8 3401 35
28608 10 3411 35
28618 2c 3461 35
28644 14 3287 35
28658 30 3291 35
28688 8 3292 35
28690 4 3291 35
28694 4 3292 35
28698 4 3291 35
2869c 4 3292 35
286a0 8 3293 35
286a8 40 3288 35
286e8 4 3313 35
286ec 4 3318 35
286f0 10 3319 35
28700 4 3318 35
28704 94 3319 35
28798 10 3559 35
287a8 4 3564 35
287ac 24 3566 35
287d0 10 3314 35
287e0 c 3315 35
287ec 3c 3565 35
28828 4 3568 35
2882c 4 3573 35
28830 4 3568 35
28834 8 3573 35
2883c 4 3568 35
28840 c 3572 35
2884c 14 3573 35
28860 70 3319 35
288d0 4 3384 35
288d4 4 3386 35
288d8 1c 3391 35
288f4 58 3461 35
2894c 8 3465 35
28954 10 3479 35
28964 8 3494 35
2896c 4 3495 35
28970 14 3540 35
28984 8 3513 35
2898c 4 3506 35
28990 3c 3513 35
289cc 2c 3319 35
289f8 4 3483 35
289fc c 3482 35
28a08 8 3483 35
28a10 18 3485 35
28a28 50 3513 35
28a78 c 3516 35
28a84 8 3522 35
28a8c 4 3523 35
28a90 4 3522 35
28a94 8 3523 35
28a9c 4 3362 35
28aa0 10 3525 35
28ab0 4 3540 35
28ab4 8 3541 35
28abc 4 3542 35
28ac0 10 3541 35
28ad0 c 3542 35
28adc 8 3533 35
28ae4 18 3541 35
28afc 1c 3542 35
28b18 4 3543 35
28b1c 8 3542 35
28b24 4 3544 35
28b28 4 3542 35
28b2c 10 3544 35
28b3c 4 3542 35
28b40 18 3546 35
28b58 4 3548 35
28b5c 4 3547 35
28b60 4 3548 35
28b64 c 3551 35
28b70 8 3388 35
28b78 18 3549 35
28b90 28 3319 35
28bb8 24 3391 35
28bdc 4 3362 35
28be0 8 3391 35
28be8 8 3362 35
28bf0 18 3392 35
28c08 c 3394 35
28c14 8 3396 35
28c1c 4 3534 35
28c20 c 3540 35
28c2c 38 3554 35
28c64 c 3575 35
28c70 4 3577 35
28c74 30 3578 35
28ca4 4 3580 35
28ca8 14 3578 35
28cbc 4 3582 35
28cc0 4 3580 35
28cc4 24 3582 35
28ce8 4 3580 35
28cec 14 3582 35
28d00 4 3584 35
28d04 2c 3585 35
28d30 68 3376 35
FUNC 28d98 9f4 0 fmt::v10::detail::write<char, fmt::v10::appender>(fmt::v10::appender, fmt::v10::basic_string_view<char>, fmt::v10::format_specs<char> const&)
28d98 38 2315 35
28dd0 14 2318 35
28de4 268 2319 35
2904c 4 2322 35
29050 4 2320 35
29054 4 2322 35
29058 c 2323 35
29064 224 2324 35
29288 40 2326 35
292c8 10 2324 35
292d8 4c 2326 35
29324 430 2328 35
29754 38 2333 35
FUNC 2978c 17c 0 fmt::v10::detail::for_each_codepoint<fmt::v10::detail::find_escape(char const*, char const*)::{lambda(unsigned int, fmt::v10::basic_string_view<char>)#1}>(fmt::v10::basic_string_view<char>, fmt::v10::detail::find_escape(char const*, char const*)::{lambda(unsigned int, fmt::v10::basic_string_view<char>)#1})::{lambda(char const*, char const*)#1}::operator()(char const*, char const*) const
2978c 18 668 35
297a4 d8 671 35
2987c 4 673 35
29880 8 672 35
29888 4 673 35
2988c 1c 672 35
298a8 1c 674 35
298c4 38 672 35
298fc c 674 35
FUNC 29908 1b8 0 fmt::v10::detail::for_each_codepoint<fmt::v10::detail::compute_width(fmt::v10::basic_string_view<char>)::count_code_points>(fmt::v10::basic_string_view<char>, fmt::v10::detail::compute_width(fmt::v10::basic_string_view<char>)::count_code_points)::{lambda(char const*, char const*)#1}::operator()(char const*, char const*) const
29908 c4 671 35
299cc 3c 672 35
29a08 4 671 35
29a0c 4 674 35
29a10 4 671 35
29a14 4 672 35
29a18 8 671 35
29a20 4 672 35
29a24 4 674 35
29a28 8 672 35
29a30 8 674 35
29a38 88 672 35
FUNC 29ac0 5f0 0 fmt::v10::detail::write_int<fmt::v10::appender, unsigned long, char>(fmt::v10::appender, unsigned long, unsigned int, fmt::v10::format_specs<char> const&, fmt::v10::detail::digit_grouping<char> const&)
29ac0 30 2083 35
29af0 20 2086 35
29b10 8 2087 35
29b18 c 2086 35
29b24 20 2087 35
29b44 8 2106 35
29b4c 30 2107 35
29b7c 14 2108 35
29b90 58 2109 35
29be8 4 2087 35
29bec 10 2090 35
29bfc 4 2091 35
29c00 4 2090 35
29c04 4 2091 35
29c08 18 2090 35
29c20 4 2091 35
29c24 10 2090 35
29c34 5c 2091 35
29c90 8 2097 35
29c98 30 2098 35
29cc8 14 2099 35
29cdc 68 2100 35
29d44 8 2087 35
29d4c 10 2122 35
29d5c 10 2087 35
29d6c 14 2113 35
29d80 1c 2116 35
29d9c 1c 2117 35
29db8 50 2118 35
29e08 34 2109 35
29e3c 30 2091 35
29e6c 44 2100 35
29eb0 38 2118 35
29ee8 c 2127 35
29ef4 68 2128 35
29f5c 8 2129 35
29f64 4 2127 35
29f68 60 2129 35
29fc8 44 2135 35
2a00c 48 2129 35
2a054 30 2124 35
2a084 2c 2135 35
FUNC 2a0b0 758 0 fmt::v10::detail::write_int<fmt::v10::appender, unsigned __int128, char>(fmt::v10::appender, unsigned __int128, unsigned int, fmt::v10::format_specs<char> const&, fmt::v10::detail::digit_grouping<char> const&)
2a0b0 30 2083 35
2a0e0 20 2086 35
2a100 4 2087 35
2a104 14 2086 35
2a118 4 2087 35
2a11c 4 2086 35
2a120 1c 2087 35
2a13c 8 2106 35
2a144 38 2107 35
2a17c 1c 2108 35
2a198 6c 2109 35
2a204 4 2087 35
2a208 10 2090 35
2a218 28 2091 35
2a240 8 2097 35
2a248 38 2098 35
2a280 1c 2099 35
2a29c 78 2100 35
2a314 8 2087 35
2a31c 14 2122 35
2a330 18 2087 35
2a348 1c 2113 35
2a364 20 2116 35
2a384 1c 2117 35
2a3a0 60 2118 35
2a400 54 2109 35
2a454 60 2090 35
2a4b4 14 2091 35
2a4c8 48 2100 35
2a510 38 2118 35
2a548 c 2090 35
2a554 ec 2091 35
2a640 c 2127 35
2a64c 68 2128 35
2a6b4 8 2129 35
2a6bc 4 2127 35
2a6c0 60 2129 35
2a720 44 2135 35
2a764 48 2129 35
2a7ac 30 2124 35
2a7dc 2c 2135 35
PUBLIC 2a810 0 <.plt ELF section in thesillydoggo.animatedprofiles.android64.so>
STACK CFI INIT ef70 10 .cfa: sp 0 +
STACK CFI INIT ef80 8 .cfa: sp 0 +
STACK CFI INIT ef88 8 .cfa: sp 0 +
STACK CFI INIT ef90 14 .cfa: sp 0 +
STACK CFI INIT efa4 1c .cfa: sp 0 +
STACK CFI INIT efc0 10 .cfa: sp 0 +
STACK CFI INIT efd0 30 .cfa: sp 0 +
STACK CFI INIT f000 98 .cfa: sp 0 +
STACK CFI INIT f098 59c .cfa: sp 0 +
STACK CFI INIT f634 8c .cfa: sp 0 +
STACK CFI INIT f6c0 30 .cfa: sp 0 +
STACK CFI INIT 106a0 18 .cfa: sp 0 +
STACK CFI INIT 10ae8 18 .cfa: sp 0 +
STACK CFI INIT 10f30 18 .cfa: sp 0 +
STACK CFI INIT 10f48 18 .cfa: sp 0 +
STACK CFI INIT 11524 18 .cfa: sp 0 +
STACK CFI INIT 1196c 18 .cfa: sp 0 +
STACK CFI INIT 11984 18 .cfa: sp 0 +
STACK CFI INIT 11dcc 18 .cfa: sp 0 +
STACK CFI INIT 11de4 18 .cfa: sp 0 +
STACK CFI INIT 121d8 50 .cfa: sp 0 +
STACK CFI 121dc .cfa: sp 32 +
STACK CFI 121e4 .cfa: x29 32 + x19: .cfa -16 + ^ .ra: .cfa -24 + ^ x29: .cfa -32 + ^
STACK CFI 121fc .cfa: sp 32 +
STACK CFI 12204 .cfa: sp 0 +
STACK CFI 12208 .cfa: x29 32 +
STACK CFI 1221c .cfa: sp 32 +
STACK CFI 12224 .cfa: sp 0 +
STACK CFI INIT 12228 7c .cfa: sp 0 +
STACK CFI 1222c .cfa: sp 48 +
STACK CFI 12238 .cfa: x29 48 + x19: .cfa -8 + ^ x20: .cfa -16 + ^ x21: .cfa -32 + ^ .ra: .cfa -40 + ^ x29: .cfa -48 + ^
STACK CFI 12284 .cfa: sp 48 +
STACK CFI 12290 .cfa: sp 0 +
STACK CFI 12294 .cfa: sp 48 +
STACK CFI 122a0 .cfa: sp 0 +
STACK CFI INIT 122a4 4 .cfa: sp 0 +
STACK CFI INIT 122a8 10 .cfa: sp 0 +
STACK CFI 122ac .cfa: sp 16 +
STACK CFI 122b0 .cfa: x29 16 + .ra: .cfa -8 + ^ x29: .cfa -16 + ^
STACK CFI INIT 122b8 70 .cfa: sp 0 +
STACK CFI 122bc .cfa: sp 48 +
STACK CFI 122c8 .cfa: x29 48 + x19: .cfa -8 + ^ x20: .cfa -16 + ^ x21: .cfa -24 + ^ x22: .cfa -32 + ^ .ra: .cfa -40 + ^ x29: .cfa -48 + ^
STACK CFI 12310 .cfa: sp 48 +
STACK CFI 1231c .cfa: sp 0 +
STACK CFI 12320 .cfa: x29 48 +
STACK CFI INIT 12328 14 .cfa: sp 0 +
STACK CFI 1232c .cfa: sp 16 +
STACK CFI 12330 .cfa: x29 16 + .ra: .cfa -8 + ^ x29: .cfa -16 + ^
STACK CFI INIT 1238c 30 .cfa: sp 0 +
STACK CFI 12390 .cfa: sp 32 +
STACK CFI 12398 .cfa: x29 32 + x19: .cfa -16 + ^ .ra: .cfa -24 + ^ x29: .cfa -32 + ^
STACK CFI 123b0 .cfa: sp 32 +
STACK CFI 123b8 .cfa: sp 0 +
STACK CFI INIT 123bc 34 .cfa: sp 0 +
STACK CFI 123c0 .cfa: sp 32 +
STACK CFI 123c8 .cfa: x29 32 + x19: .cfa -16 + ^ .ra: .cfa -24 + ^ x29: .cfa -32 + ^
STACK CFI INIT 12608 68 .cfa: sp 0 +
STACK CFI 1260c .cfa: sp 32 +
STACK CFI 12614 .cfa: x29 32 + x19: .cfa -8 + ^ x20: .cfa -16 + ^ .ra: .cfa -24 + ^ x29: .cfa -32 + ^
STACK CFI 1262c .cfa: sp 32 +
STACK CFI 12634 .cfa: sp 0 +
STACK CFI 12638 .cfa: x29 32 +
STACK CFI 12664 .cfa: sp 32 +
STACK CFI 1266c .cfa: sp 0 +
STACK CFI INIT 12670 14 .cfa: sp 0 +
STACK CFI 12674 .cfa: sp 16 +
STACK CFI 12678 .cfa: x29 16 + .ra: .cfa -8 + ^ x29: .cfa -16 + ^
STACK CFI INIT 12684 fc .cfa: sp 0 +
STACK CFI 12688 .cfa: sp 64 +
STACK CFI 12698 .cfa: x29 64 + x19: .cfa -8 + ^ x20: .cfa -16 + ^ x21: .cfa -24 + ^ x22: .cfa -32 + ^ x23: .cfa -40 + ^ x24: .cfa -48 + ^ .ra: .cfa -56 + ^ x29: .cfa -64 + ^
STACK CFI 1276c .cfa: sp 64 +
STACK CFI 1277c .cfa: sp 0 +
STACK CFI INIT 12780 454 .cfa: sp 0 +
STACK CFI 12784 .cfa: sp 32 +
STACK CFI 1278c .cfa: x29 32 + x19: .cfa -8 + ^ x20: .cfa -16 + ^ .ra: .cfa -24 + ^ x29: .cfa -32 + ^
STACK CFI 12b1c .cfa: sp 32 +
STACK CFI 12b24 .cfa: sp 0 +
STACK CFI 12b28 .cfa: x29 32 +
STACK CFI INIT 12bd4 84 .cfa: sp 0 +
STACK CFI 12bdc .cfa: sp 32 +
STACK CFI 12be4 .cfa: x29 32 + x19: .cfa -8 + ^ x20: .cfa -16 + ^ .ra: .cfa -24 + ^ x29: .cfa -32 + ^
STACK CFI 12c24 .cfa: sp 32 +
STACK CFI 12c2c .cfa: sp 0 +
STACK CFI 12c34 .cfa: x29 32 +
STACK CFI INIT 12eec 50 .cfa: sp 0 +
STACK CFI 12ef0 .cfa: sp 32 +
STACK CFI 12ef8 .cfa: x29 32 + x19: .cfa -16 + ^ .ra: .cfa -24 + ^ x29: .cfa -32 + ^
STACK CFI 12f10 .cfa: sp 32 +
STACK CFI 12f18 .cfa: sp 0 +
STACK CFI 12f1c .cfa: x29 32 +
STACK CFI 12f30 .cfa: sp 32 +
STACK CFI 12f38 .cfa: sp 0 +
STACK CFI INIT 12f3c 64 .cfa: sp 0 +
STACK CFI 12f40 .cfa: sp 32 +
STACK CFI 12f48 .cfa: x29 32 + x19: .cfa -16 + ^ .ra: .cfa -24 + ^ x29: .cfa -32 + ^
STACK CFI 12f74 .cfa: sp 32 +
STACK CFI 12f7c .cfa: sp 0 +
STACK CFI 12f80 .cfa: x29 32 +
STACK CFI 12f94 .cfa: sp 32 +
STACK CFI 12f9c .cfa: sp 0 +
STACK CFI INIT 12fa0 104 .cfa: sp 0 +
STACK CFI 12fa4 .cfa: sp 80 +
STACK CFI 12fb8 .cfa: x29 80 + x19: .cfa -8 + ^ x20: .cfa -16 + ^ x21: .cfa -24 + ^ x22: .cfa -32 + ^ x23: .cfa -40 + ^ x24: .cfa -48 + ^ x25: .cfa -56 + ^ x26: .cfa -64 + ^ .ra: .cfa -72 + ^ x29: .cfa -80 + ^
STACK CFI 1308c .cfa: sp 80 +
STACK CFI 130a0 .cfa: sp 0 +
STACK CFI INIT 130a4 19c .cfa: sp 0 +
STACK CFI INIT 13614 4 .cfa: sp 0 +
STACK CFI INIT 13d24 d8 .cfa: sp 0 +
STACK CFI 13d28 .cfa: sp 64 +
STACK CFI 13d38 .cfa: x29 64 + x19: .cfa -8 + ^ x20: .cfa -16 + ^ x21: .cfa -24 + ^ x22: .cfa -32 + ^ x23: .cfa -48 + ^ .ra: .cfa -56 + ^ x29: .cfa -64 + ^
STACK CFI 13db0 .cfa: sp 64 +
STACK CFI 13dc0 .cfa: sp 0 +
STACK CFI 13dc4 .cfa: x29 64 +
STACK CFI INIT 141d4 4 .cfa: sp 0 +
STACK CFI INIT 149a0 4 .cfa: sp 0 +
STACK CFI INIT 14d88 84 .cfa: sp 0 +
STACK CFI 14d8c .cfa: sp 32 +
STACK CFI 14d94 .cfa: x29 32 + x19: .cfa -16 + ^ .ra: .cfa -24 + ^ x29: .cfa -32 + ^
STACK CFI 14e00 .cfa: sp 32 +
STACK CFI 14e08 .cfa: sp 0 +
STACK CFI INIT 15220 4 .cfa: sp 0 +
STACK CFI INIT 15be8 4 .cfa: sp 0 +
STACK CFI INIT 15fc0 84 .cfa: sp 0 +
STACK CFI 15fc4 .cfa: sp 32 +
STACK CFI 15fcc .cfa: x29 32 + x19: .cfa -16 + ^ .ra: .cfa -24 + ^ x29: .cfa -32 + ^
STACK CFI 16038 .cfa: sp 32 +
STACK CFI 16040 .cfa: sp 0 +
STACK CFI INIT 16404 4 .cfa: sp 0 +
STACK CFI INIT 16cec 4 .cfa: sp 0 +
STACK CFI INIT 17a1c 4 .cfa: sp 0 +
STACK CFI INIT 18214 b4 .cfa: sp 0 +
STACK CFI 18218 .cfa: sp 32 +
STACK CFI 18220 .cfa: x29 32 + x19: .cfa -16 + ^ .ra: .cfa -24 + ^ x29: .cfa -32 + ^
STACK CFI 182bc .cfa: sp 32 +
STACK CFI 182c4 .cfa: sp 0 +
STACK CFI INIT 182c8 30 .cfa: sp 0 +
STACK CFI 182cc .cfa: sp 32 +
STACK CFI 182d4 .cfa: x29 32 + x19: .cfa -16 + ^ .ra: .cfa -24 + ^ x29: .cfa -32 + ^
STACK CFI 182ec .cfa: sp 32 +
STACK CFI 182f4 .cfa: sp 0 +
STACK CFI INIT 18528 64 .cfa: sp 0 +
STACK CFI 1852c .cfa: sp 32 +
STACK CFI 18534 .cfa: x29 32 + x19: .cfa -16 + ^ .ra: .cfa -24 + ^ x29: .cfa -32 + ^
STACK CFI 18560 .cfa: sp 32 +
STACK CFI 18568 .cfa: sp 0 +
STACK CFI 1856c .cfa: x29 32 +
STACK CFI 18580 .cfa: sp 32 +
STACK CFI 18588 .cfa: sp 0 +
STACK CFI INIT 1858c 24 .cfa: sp 0 +
STACK CFI 18590 .cfa: sp 32 +
STACK CFI 18598 .cfa: x29 32 + x19: .cfa -16 + ^ .ra: .cfa -24 + ^ x29: .cfa -32 + ^
STACK CFI 185a4 .cfa: sp 32 +
STACK CFI 185ac .cfa: sp 0 +
STACK CFI INIT 185b0 24 .cfa: sp 0 +
STACK CFI 185b4 .cfa: sp 32 +
STACK CFI 185bc .cfa: x29 32 + x19: .cfa -16 + ^ .ra: .cfa -24 + ^ x29: .cfa -32 + ^
STACK CFI 185c8 .cfa: sp 32 +
STACK CFI 185d0 .cfa: sp 0 +
STACK CFI INIT 185d4 24 .cfa: sp 0 +
STACK CFI 185d8 .cfa: sp 32 +
STACK CFI 185e0 .cfa: x29 32 + x19: .cfa -16 + ^ .ra: .cfa -24 + ^ x29: .cfa -32 + ^
STACK CFI 185ec .cfa: sp 32 +
STACK CFI 185f4 .cfa: sp 0 +
STACK CFI INIT 185f8 24 .cfa: sp 0 +
STACK CFI 185fc .cfa: sp 32 +
STACK CFI 18604 .cfa: x29 32 + x19: .cfa -16 + ^ .ra: .cfa -24 + ^ x29: .cfa -32 + ^
STACK CFI 18610 .cfa: sp 32 +
STACK CFI 18618 .cfa: sp 0 +
STACK CFI INIT 18b90 8 .cfa: sp 0 +
STACK CFI INIT 18b98 4 .cfa: sp 0 +
STACK CFI INIT 18b9c 4 .cfa: sp 0 +
STACK CFI INIT 18ba0 8 .cfa: sp 0 +
STACK CFI INIT 18ba8 4 .cfa: sp 0 +
STACK CFI INIT 18bac 8 .cfa: sp 0 +
STACK CFI INIT 18bb4 c .cfa: sp 0 +
STACK CFI INIT 18bc0 c .cfa: sp 0 +
STACK CFI INIT 18bcc 8 .cfa: sp 0 +
STACK CFI INIT 18bd4 8 .cfa: sp 0 +
STACK CFI INIT 18bdc 8 .cfa: sp 0 +
STACK CFI INIT 18be4 8 .cfa: sp 0 +
STACK CFI INIT 19568 c .cfa: sp 0 +
STACK CFI INIT 19574 24c .cfa: sp 0 +
STACK CFI INIT 197c0 a0 .cfa: sp 0 +
STACK CFI 197cc .cfa: sp 32 +
STACK CFI 19824 .cfa: sp 0 +
STACK CFI 19828 .cfa: sp 32 +
STACK CFI 19830 .cfa: sp 0 +
STACK CFI 19834 .cfa: sp 32 +
STACK CFI 19848 .cfa: sp 0 +
STACK CFI 1984c .cfa: sp 32 +
STACK CFI 1985c .cfa: sp 0 +
STACK CFI INIT 19860 38 .cfa: sp 0 +
STACK CFI 1986c .cfa: sp 32 +
STACK CFI 19894 .cfa: sp 0 +
STACK CFI INIT 198e8 2c .cfa: sp 0 +
STACK CFI 198ec .cfa: sp 32 +
STACK CFI 198f4 .cfa: x29 32 + x19: .cfa -16 + ^ .ra: .cfa -24 + ^ x29: .cfa -32 + ^
STACK CFI 19908 .cfa: sp 32 +
STACK CFI 19910 .cfa: sp 0 +
STACK CFI INIT 19ba8 70 .cfa: sp 0 +
STACK CFI 19bac .cfa: sp 32 +
STACK CFI 19bb4 .cfa: x29 32 + x19: .cfa -16 + ^ .ra: .cfa -24 + ^ x29: .cfa -32 + ^
STACK CFI 19be8 .cfa: sp 32 +
STACK CFI 19bf0 .cfa: sp 0 +
STACK CFI 19bf4 .cfa: x29 32 +
STACK CFI INIT 1a368 64 .cfa: sp 0 +
STACK CFI 1a36c .cfa: sp 32 +
STACK CFI 1a374 .cfa: x29 32 + x19: .cfa -16 + ^ .ra: .cfa -24 + ^ x29: .cfa -32 + ^
STACK CFI 1a390 .cfa: sp 32 +
STACK CFI 1a398 .cfa: sp 0 +
STACK CFI 1a39c .cfa: x29 32 +
STACK CFI 1a3c0 .cfa: sp 32 +
STACK CFI 1a3c8 .cfa: sp 0 +
STACK CFI INIT 1a4f4 424 .cfa: sp 0 +
STACK CFI 1a4f8 .cfa: sp 208 +
STACK CFI 1a50c .cfa: x29 64 + x19: .cfa -8 + ^ x20: .cfa -16 + ^ x21: .cfa -24 + ^ x22: .cfa -32 + ^ x23: .cfa -40 + ^ x24: .cfa -48 + ^ .ra: .cfa -56 + ^ x29: .cfa -64 + ^
STACK CFI 1a74c .cfa: sp 208 +
STACK CFI 1a760 .cfa: sp 0 +
STACK CFI 1a764 .cfa: x29 64 +
STACK CFI INIT 1a918 228 .cfa: sp 0 +
STACK CFI INIT 1ab40 2b4 .cfa: sp 0 +
STACK CFI INIT 1adf4 530 .cfa: sp 0 +
STACK CFI INIT 1b324 24 .cfa: sp 0 +
STACK CFI 1b328 .cfa: sp 32 +
STACK CFI 1b330 .cfa: x29 32 + x19: .cfa -16 + ^ .ra: .cfa -24 + ^ x29: .cfa -32 + ^
STACK CFI 1b33c .cfa: sp 32 +
STACK CFI 1b344 .cfa: sp 0 +
STACK CFI INIT 1b348 138 .cfa: sp 0 +
STACK CFI 1b34c .cfa: sp 48 +
STACK CFI 1b358 .cfa: x29 48 + x19: .cfa -8 + ^ x20: .cfa -16 + ^ x21: .cfa -32 + ^ .ra: .cfa -40 + ^ x29: .cfa -48 + ^
STACK CFI 1b460 .cfa: sp 48 +
STACK CFI 1b46c .cfa: sp 0 +
STACK CFI 1b470 .cfa: sp 48 +
STACK CFI 1b47c .cfa: sp 0 +
STACK CFI INIT 1b480 78 .cfa: sp 0 +
STACK CFI 1b484 .cfa: sp 32 +
STACK CFI 1b48c .cfa: x29 32 + x19: .cfa -16 + ^ .ra: .cfa -24 + ^ x29: .cfa -32 + ^
STACK CFI 1b4c8 .cfa: sp 32 +
STACK CFI 1b4d0 .cfa: sp 0 +
STACK CFI 1b4d4 .cfa: x29 32 +
STACK CFI INIT 1b4f8 6c .cfa: sp 0 +
STACK CFI 1b4fc .cfa: sp 64 +
STACK CFI 1b508 .cfa: x29 32 + x19: .cfa -16 + ^ .ra: .cfa -24 + ^ x29: .cfa -32 + ^
STACK CFI 1b550 .cfa: sp 64 +
STACK CFI 1b55c .cfa: sp 0 +
STACK CFI 1b560 .cfa: x29 32 +
STACK CFI INIT 1b564 48 .cfa: sp 0 +
STACK CFI 1b568 .cfa: sp 32 +
STACK CFI 1b570 .cfa: x29 32 + x19: .cfa -8 + ^ x20: .cfa -16 + ^ .ra: .cfa -24 + ^ x29: .cfa -32 + ^
STACK CFI 1b594 .cfa: sp 32 +
STACK CFI 1b59c .cfa: sp 0 +
STACK CFI 1b5a0 .cfa: x29 32 +
STACK CFI INIT 1b5ac 98 .cfa: sp 0 +
STACK CFI 1b5b0 .cfa: sp 80 +
STACK CFI 1b5bc .cfa: x29 32 + x19: .cfa -16 + ^ .ra: .cfa -24 + ^ x29: .cfa -32 + ^
STACK CFI 1b630 .cfa: sp 80 +
STACK CFI 1b63c .cfa: sp 0 +
STACK CFI 1b640 .cfa: x29 32 +
STACK CFI INIT 1b644 1f8 .cfa: sp 0 +
STACK CFI 1b648 .cfa: sp 80 +
STACK CFI 1b658 .cfa: x29 48 + x19: .cfa -8 + ^ x20: .cfa -16 + ^ x21: .cfa -24 + ^ x22: .cfa -32 + ^ .ra: .cfa -40 + ^ x29: .cfa -48 + ^
STACK CFI 1b804 .cfa: sp 80 +
STACK CFI 1b814 .cfa: sp 0 +
STACK CFI 1b818 .cfa: x29 48 +
STACK CFI INIT 1b83c 16c .cfa: sp 0 +
STACK CFI 1b840 .cfa: sp 48 +
STACK CFI 1b84c .cfa: x29 48 + x19: .cfa -8 + ^ x20: .cfa -16 + ^ x21: .cfa -24 + ^ x22: .cfa -32 + ^ .ra: .cfa -40 + ^ x29: .cfa -48 + ^
STACK CFI 1b998 .cfa: sp 48 +
STACK CFI 1b9a4 .cfa: sp 0 +
STACK CFI INIT 1b9a8 198 .cfa: sp 0 +
STACK CFI 1b9ac .cfa: sp 64 +
STACK CFI 1b9b8 .cfa: x29 32 + x19: .cfa -8 + ^ x20: .cfa -16 + ^ .ra: .cfa -24 + ^ x29: .cfa -32 + ^
STACK CFI 1bb0c .cfa: sp 64 +
STACK CFI 1bb18 .cfa: sp 0 +
STACK CFI 1bb1c .cfa: x29 32 +
STACK CFI INIT 1bb40 21c .cfa: sp 0 +
STACK CFI 1bb44 .cfa: sp 80 +
STACK CFI 1bb54 .cfa: x29 48 + x19: .cfa -8 + ^ x20: .cfa -16 + ^ x21: .cfa -24 + ^ x22: .cfa -32 + ^ .ra: .cfa -40 + ^ x29: .cfa -48 + ^
STACK CFI 1bd24 .cfa: sp 80 +
STACK CFI 1bd34 .cfa: sp 0 +
STACK CFI 1bd38 .cfa: x29 48 +
STACK CFI INIT 1bd5c 1c0 .cfa: sp 0 +
STACK CFI 1bd60 .cfa: sp 64 +
STACK CFI 1bd6c .cfa: x29 32 + x19: .cfa -8 + ^ x20: .cfa -16 + ^ .ra: .cfa -24 + ^ x29: .cfa -32 + ^
STACK CFI 1bee8 .cfa: sp 64 +
STACK CFI 1bef4 .cfa: sp 0 +
STACK CFI 1bef8 .cfa: x29 32 +
STACK CFI INIT 1bf1c 2f0 .cfa: sp 0 +
STACK CFI 1bf20 .cfa: sp 160 +
STACK CFI 1bf3c .cfa: x29 96 + x19: .cfa -8 + ^ x20: .cfa -16 + ^ x21: .cfa -24 + ^ x22: .cfa -32 + ^ x23: .cfa -40 + ^ x24: .cfa -48 + ^ x25: .cfa -56 + ^ x26: .cfa -64 + ^ x27: .cfa -72 + ^ x28: .cfa -80 + ^ .ra: .cfa -88 + ^ x29: .cfa -96 + ^
STACK CFI 1c1b0 .cfa: sp 160 +
STACK CFI 1c1cc .cfa: sp 0 +
STACK CFI 1c1d0 .cfa: x29 96 +
STACK CFI INIT 1c20c 288 .cfa: sp 0 +
STACK CFI 1c210 .cfa: sp 144 +
STACK CFI 1c22c .cfa: x29 96 + x19: .cfa -8 + ^ x20: .cfa -16 + ^ x21: .cfa -24 + ^ x22: .cfa -32 + ^ x23: .cfa -40 + ^ x24: .cfa -48 + ^ x25: .cfa -56 + ^ x26: .cfa -64 + ^ x27: .cfa -72 + ^ x28: .cfa -80 + ^ .ra: .cfa -88 + ^ x29: .cfa -96 + ^
STACK CFI 1c438 .cfa: sp 144 +
STACK CFI 1c454 .cfa: sp 0 +
STACK CFI 1c458 .cfa: x29 96 +
STACK CFI INIT 1c494 288 .cfa: sp 0 +
STACK CFI 1c498 .cfa: sp 128 +
STACK CFI 1c4b0 .cfa: x29 80 + x19: .cfa -8 + ^ x20: .cfa -16 + ^ x21: .cfa -24 + ^ x22: .cfa -32 + ^ x23: .cfa -40 + ^ x24: .cfa -48 + ^ x25: .cfa -56 + ^ x26: .cfa -64 + ^ .ra: .cfa -72 + ^ x29: .cfa -80 + ^
STACK CFI 1c6fc .cfa: sp 128 +
STACK CFI 1c714 .cfa: sp 0 +
STACK CFI 1c718 .cfa: x29 80 +
STACK CFI INIT 1c71c c7c .cfa: sp 0 +
STACK CFI 1c720 .cfa: sp 144 +
STACK CFI 1c73c .cfa: x29 96 + x19: .cfa -8 + ^ x20: .cfa -16 + ^ x21: .cfa -24 + ^ x22: .cfa -32 + ^ x23: .cfa -40 + ^ x24: .cfa -48 + ^ x25: .cfa -56 + ^ x26: .cfa -64 + ^ x27: .cfa -72 + ^ x28: .cfa -80 + ^ .ra: .cfa -88 + ^ x29: .cfa -96 + ^
STACK CFI 1d358 .cfa: sp 144 +
STACK CFI 1d374 .cfa: sp 0 +
STACK CFI 1d378 .cfa: x29 96 +
STACK CFI INIT 1d398 220 .cfa: sp 0 +
STACK CFI 1d39c .cfa: sp 128 +
STACK CFI 1d3b4 .cfa: x29 80 + x19: .cfa -8 + ^ x20: .cfa -16 + ^ x21: .cfa -24 + ^ x22: .cfa -32 + ^ x23: .cfa -40 + ^ x24: .cfa -48 + ^ x25: .cfa -64 + ^ .ra: .cfa -72 + ^ x29: .cfa -80 + ^
STACK CFI 1d56c .cfa: sp 128 +
STACK CFI 1d584 .cfa: sp 0 +
STACK CFI 1d588 .cfa: x29 80 +
STACK CFI INIT 1d5b8 1f0 .cfa: sp 0 +
STACK CFI 1d5bc .cfa: sp 80 +
STACK CFI 1d5d0 .cfa: x29 80 + x19: .cfa -8 + ^ x20: .cfa -16 + ^ x21: .cfa -24 + ^ x22: .cfa -32 + ^ x23: .cfa -40 + ^ x24: .cfa -48 + ^ x25: .cfa -56 + ^ x26: .cfa -64 + ^ .ra: .cfa -72 + ^ x29: .cfa -80 + ^
STACK CFI 1d790 .cfa: sp 80 +
STACK CFI 1d7a4 .cfa: sp 0 +
STACK CFI INIT 1d7a8 32c .cfa: sp 0 +
STACK CFI 1d7ac .cfa: sp 80 +
STACK CFI 1d7c0 .cfa: x29 64 + x19: .cfa -8 + ^ x20: .cfa -16 + ^ x21: .cfa -24 + ^ x22: .cfa -32 + ^ x23: .cfa -40 + ^ x24: .cfa -48 + ^ .ra: .cfa -56 + ^ x29: .cfa -64 + ^
STACK CFI 1d950 .cfa: sp 80 +
STACK CFI 1d964 .cfa: sp 0 +
STACK CFI 1d968 .cfa: x29 64 +
STACK CFI INIT 1dad4 184 .cfa: sp 0 +
STACK CFI 1dad8 .cfa: sp 80 +
STACK CFI 1daec .cfa: x29 64 + x19: .cfa -8 + ^ x20: .cfa -16 + ^ x21: .cfa -24 + ^ x22: .cfa -32 + ^ x23: .cfa -40 + ^ x24: .cfa -48 + ^ .ra: .cfa -56 + ^ x29: .cfa -64 + ^
STACK CFI 1dc3c .cfa: sp 80 +
STACK CFI 1dc50 .cfa: sp 0 +
STACK CFI 1dc54 .cfa: x29 64 +
STACK CFI INIT 1dc58 184 .cfa: sp 0 +
STACK CFI 1dc5c .cfa: sp 80 +
STACK CFI 1dc70 .cfa: x29 64 + x19: .cfa -8 + ^ x20: .cfa -16 + ^ x21: .cfa -24 + ^ x22: .cfa -32 + ^ x23: .cfa -40 + ^ x24: .cfa -48 + ^ .ra: .cfa -56 + ^ x29: .cfa -64 + ^
STACK CFI 1ddc0 .cfa: sp 80 +
STACK CFI 1ddd4 .cfa: sp 0 +
STACK CFI 1ddd8 .cfa: x29 64 +
STACK CFI INIT 1e6c4 22c .cfa: sp 0 +
STACK CFI 1e6c8 .cfa: sp 96 +
STACK CFI 1e6e0 .cfa: x29 96 + x19: .cfa -8 + ^ x20: .cfa -16 + ^ x21: .cfa -24 + ^ x22: .cfa -32 + ^ x23: .cfa -40 + ^ x24: .cfa -48 + ^ x25: .cfa -56 + ^ x26: .cfa -64 + ^ x27: .cfa -72 + ^ x28: .cfa -80 + ^ .ra: .cfa -88 + ^ x29: .cfa -96 + ^
STACK CFI 1e8d4 .cfa: sp 96 +
STACK CFI 1e8ec .cfa: sp 0 +
STACK CFI INIT 1e8f0 154 .cfa: sp 0 +
STACK CFI 1e8f4 .cfa: sp 80 +
STACK CFI 1e904 .cfa: x29 48 + x19: .cfa -8 + ^ x20: .cfa -16 + ^ x21: .cfa -24 + ^ x22: .cfa -32 + ^ .ra: .cfa -40 + ^ x29: .cfa -48 + ^
STACK CFI 1e9e8 .cfa: sp 80 +
STACK CFI 1e9f8 .cfa: sp 0 +
STACK CFI 1e9fc .cfa: x29 48 +
STACK CFI INIT 1ec7c 44 .cfa: sp 0 +
STACK CFI 1ec80 .cfa: sp 32 +
STACK CFI 1ec88 .cfa: x29 32 + x19: .cfa -16 + ^ .ra: .cfa -24 + ^ x29: .cfa -32 + ^
STACK CFI 1eca4 .cfa: sp 32 +
STACK CFI 1ecac .cfa: sp 0 +
STACK CFI 1ecb0 .cfa: x29 32 +
STACK CFI 1ecb4 .cfa: sp 32 +
STACK CFI 1ecbc .cfa: sp 0 +
STACK CFI INIT 1ecc0 1bc .cfa: sp 0 +
STACK CFI 1ecc4 .cfa: sp 64 +
STACK CFI 1ecd4 .cfa: x29 64 + x19: .cfa -8 + ^ x20: .cfa -16 + ^ x21: .cfa -24 + ^ x22: .cfa -32 + ^ x23: .cfa -40 + ^ x24: .cfa -48 + ^ .ra: .cfa -56 + ^ x29: .cfa -64 + ^
STACK CFI 1ee68 .cfa: sp 64 +
STACK CFI 1ee78 .cfa: sp 0 +
STACK CFI INIT 1ee7c 17c .cfa: sp 0 +
STACK CFI INIT 1eff8 ac .cfa: sp 0 +
STACK CFI 1effc .cfa: sp 64 +
STACK CFI 1f00c .cfa: x29 64 + x19: .cfa -8 + ^ x20: .cfa -16 + ^ x21: .cfa -24 + ^ x22: .cfa -32 + ^ x23: .cfa -48 + ^ .ra: .cfa -56 + ^ x29: .cfa -64 + ^
STACK CFI 1f088 .cfa: sp 64 +
STACK CFI 1f098 .cfa: sp 0 +
STACK CFI 1f09c .cfa: x29 64 +
STACK CFI INIT 1f0a4 100 .cfa: sp 0 +
STACK CFI 1f0a8 .cfa: sp 64 +
STACK CFI 1f0b8 .cfa: x29 64 + x19: .cfa -8 + ^ x20: .cfa -16 + ^ x21: .cfa -24 + ^ x22: .cfa -32 + ^ x23: .cfa -40 + ^ x24: .cfa -48 + ^ .ra: .cfa -56 + ^ x29: .cfa -64 + ^
STACK CFI 1f188 .cfa: sp 64 +
STACK CFI 1f198 .cfa: sp 0 +
STACK CFI 1f19c .cfa: x29 64 +
STACK CFI INIT 1f568 110 .cfa: sp 0 +
STACK CFI 1f56c .cfa: sp 48 +
STACK CFI 1f578 .cfa: x29 48 + x19: .cfa -8 + ^ x20: .cfa -16 + ^ x21: .cfa -32 + ^ .ra: .cfa -40 + ^ x29: .cfa -48 + ^
STACK CFI 1f654 .cfa: sp 48 +
STACK CFI 1f660 .cfa: sp 0 +
STACK CFI 1f664 .cfa: sp 48 +
STACK CFI 1f670 .cfa: sp 0 +
STACK CFI 1f674 .cfa: x29 48 +
STACK CFI INIT 1ffa4 158 .cfa: sp 0 +
STACK CFI 1ffa8 .cfa: sp 80 +
STACK CFI 1ffb8 .cfa: x29 48 + x19: .cfa -8 + ^ x20: .cfa -16 + ^ x21: .cfa -24 + ^ x22: .cfa -32 + ^ .ra: .cfa -40 + ^ x29: .cfa -48 + ^
STACK CFI 200a0 .cfa: sp 80 +
STACK CFI 200b0 .cfa: sp 0 +
STACK CFI 200b4 .cfa: x29 48 +
STACK CFI INIT 200fc 190 .cfa: sp 0 +
STACK CFI INIT 20d40 104 .cfa: sp 0 +
STACK CFI 20dd0 .cfa: sp 16 +
STACK CFI 20dd4 .cfa: x29 16 + .ra: .cfa -8 + ^ x29: .cfa -16 + ^
STACK CFI 20de0 .cfa: sp 0 + .ra: x30 x29: x29
STACK CFI INIT 20e44 1d4 .cfa: sp 0 +
STACK CFI 20e48 .cfa: sp 80 +
STACK CFI 20e5c .cfa: x29 80 + x19: .cfa -8 + ^ x20: .cfa -16 + ^ x21: .cfa -24 + ^ x22: .cfa -32 + ^ x23: .cfa -40 + ^ x24: .cfa -48 + ^ x25: .cfa -64 + ^ .ra: .cfa -72 + ^ x29: .cfa -80 + ^
STACK CFI 21000 .cfa: sp 80 +
STACK CFI 21014 .cfa: sp 0 +
STACK CFI INIT 223b0 128 .cfa: sp 0 +
STACK CFI 223e0 .cfa: sp 32 +
STACK CFI 223e8 .cfa: x29 32 + x19: .cfa -8 + ^ x20: .cfa -16 + ^ .ra: .cfa -24 + ^ x29: .cfa -32 + ^
STACK CFI 224cc .cfa: sp 32 +
STACK CFI 224d4 .cfa: sp 0 +
STACK CFI INIT 22c38 314 .cfa: sp 0 +
STACK CFI 22c3c .cfa: sp 80 +
STACK CFI 22c50 .cfa: x29 80 + x19: .cfa -8 + ^ x20: .cfa -16 + ^ x21: .cfa -24 + ^ x22: .cfa -32 + ^ x23: .cfa -40 + ^ x24: .cfa -48 + ^ x25: .cfa -64 + ^ .ra: .cfa -72 + ^ x29: .cfa -80 + ^
STACK CFI 22ec4 .cfa: sp 80 +
STACK CFI 22ed8 .cfa: sp 0 +
STACK CFI 22edc .cfa: x29 80 +
STACK CFI INIT 22f4c 110 .cfa: sp 0 +
STACK CFI 22f50 .cfa: sp 48 +
STACK CFI 22f5c .cfa: x29 48 + x19: .cfa -8 + ^ x20: .cfa -16 + ^ x21: .cfa -32 + ^ .ra: .cfa -40 + ^ x29: .cfa -48 + ^
STACK CFI 23038 .cfa: sp 48 +
STACK CFI 23044 .cfa: sp 0 +
STACK CFI 23048 .cfa: sp 48 +
STACK CFI 23054 .cfa: sp 0 +
STACK CFI 23058 .cfa: x29 48 +
STACK CFI INIT 23ea8 16c .cfa: sp 0 +
STACK CFI 23eac .cfa: sp 64 +
STACK CFI 23ebc .cfa: x29 64 + x19: .cfa -8 + ^ x20: .cfa -16 + ^ x21: .cfa -24 + ^ x22: .cfa -32 + ^ x23: .cfa -48 + ^ .ra: .cfa -56 + ^ x29: .cfa -64 + ^
STACK CFI 23fbc .cfa: sp 64 +
STACK CFI 23fcc .cfa: sp 0 +
STACK CFI 23fd0 .cfa: x29 64 +
STACK CFI INIT 24014 16c .cfa: sp 0 +
STACK CFI 24018 .cfa: sp 48 +
STACK CFI 24024 .cfa: x29 48 + x19: .cfa -8 + ^ x20: .cfa -16 + ^ x21: .cfa -24 + ^ x22: .cfa -32 + ^ .ra: .cfa -40 + ^ x29: .cfa -48 + ^
STACK CFI 24170 .cfa: sp 48 +
STACK CFI 2417c .cfa: sp 0 +
STACK CFI INIT 24180 1cc .cfa: sp 0 +
STACK CFI 24184 .cfa: sp 96 +
STACK CFI 24198 .cfa: x29 64 + x19: .cfa -8 + ^ x20: .cfa -16 + ^ x21: .cfa -24 + ^ x22: .cfa -32 + ^ x23: .cfa -40 + ^ x24: .cfa -48 + ^ .ra: .cfa -56 + ^ x29: .cfa -64 + ^
STACK CFI 242dc .cfa: sp 96 +
STACK CFI 242f0 .cfa: sp 0 +
STACK CFI 242f4 .cfa: x29 64 +
STACK CFI INIT 25f80 27c .cfa: sp 0 +
STACK CFI 25f84 .cfa: sp 16 +
STACK CFI 25f88 .cfa: x29 16 + .ra: .cfa -8 + ^ x29: .cfa -16 + ^
STACK CFI 26080 .cfa: sp 16 +
STACK CFI 26084 .cfa: sp 0 +
STACK CFI 26088 .cfa: x29 16 +
STACK CFI INIT 261fc 158 .cfa: sp 0 +
STACK CFI 26200 .cfa: sp 112 +
STACK CFI 2621c .cfa: x29 96 + x19: .cfa -8 + ^ x20: .cfa -16 + ^ x21: .cfa -24 + ^ x22: .cfa -32 + ^ x23: .cfa -40 + ^ x24: .cfa -48 + ^ x25: .cfa -56 + ^ x26: .cfa -64 + ^ x27: .cfa -72 + ^ x28: .cfa -80 + ^ .ra: .cfa -88 + ^ x29: .cfa -96 + ^
STACK CFI 26304 .cfa: sp 112 +
STACK CFI 26308 .cfa: x29 96 +
STACK CFI 26310 .cfa: sp 112 +
STACK CFI 2632c .cfa: sp 0 +
STACK CFI 26330 .cfa: x29 96 +
STACK CFI 26350 .cfa: sp 112 +
STACK CFI INIT 26354 cdc .cfa: sp 0 +
STACK CFI 26358 .cfa: sp 192 +
STACK CFI 26374 .cfa: x29 96 + x19: .cfa -8 + ^ x20: .cfa -16 + ^ x21: .cfa -24 + ^ x22: .cfa -32 + ^ x23: .cfa -40 + ^ x24: .cfa -48 + ^ x25: .cfa -56 + ^ x26: .cfa -64 + ^ x27: .cfa -72 + ^ x28: .cfa -80 + ^ .ra: .cfa -88 + ^ x29: .cfa -96 + ^
STACK CFI 26ff0 .cfa: sp 192 +
STACK CFI 2700c .cfa: sp 0 +
STACK CFI 27010 .cfa: x29 96 +
STACK CFI INIT 27030 ea0 .cfa: sp 0 +
STACK CFI 27034 .cfa: sp 288 +
STACK CFI 27050 .cfa: x29 96 + x19: .cfa -8 + ^ x20: .cfa -16 + ^ x21: .cfa -24 + ^ x22: .cfa -32 + ^ x23: .cfa -40 + ^ x24: .cfa -48 + ^ x25: .cfa -56 + ^ x26: .cfa -64 + ^ x27: .cfa -72 + ^ x28: .cfa -80 + ^ .ra: .cfa -88 + ^ x29: .cfa -96 + ^
STACK CFI 27e90 .cfa: sp 288 +
STACK CFI 27eac .cfa: sp 0 +
STACK CFI 27eb0 .cfa: x29 96 +
STACK CFI INIT 27ed0 550 .cfa: sp 0 +
STACK CFI 27ed4 .cfa: sp 144 +
STACK CFI 27ef0 .cfa: x29 96 + x19: .cfa -8 + ^ x20: .cfa -16 + ^ x21: .cfa -24 + ^ x22: .cfa -32 + ^ x23: .cfa -40 + ^ x24: .cfa -48 + ^ x25: .cfa -56 + ^ x26: .cfa -64 + ^ x27: .cfa -72 + ^ x28: .cfa -80 + ^ .ra: .cfa -88 + ^ x29: .cfa -96 + ^
STACK CFI 283fc .cfa: sp 144 +
STACK CFI 28418 .cfa: sp 0 +
STACK CFI 2841c .cfa: x29 96 +
STACK CFI INIT 28d98 9f4 .cfa: sp 0 +
STACK CFI 28d9c .cfa: sp 192 +
STACK CFI 28db8 .cfa: x29 96 + x19: .cfa -8 + ^ x20: .cfa -16 + ^ x21: .cfa -24 + ^ x22: .cfa -32 + ^ x23: .cfa -40 + ^ x24: .cfa -48 + ^ x25: .cfa -56 + ^ x26: .cfa -64 + ^ x27: .cfa -72 + ^ x28: .cfa -80 + ^ .ra: .cfa -88 + ^ x29: .cfa -96 + ^
STACK CFI 29768 .cfa: sp 192 +
STACK CFI 29784 .cfa: sp 0 +
STACK CFI 29788 .cfa: x29 96 +
STACK CFI INIT 2978c 17c .cfa: sp 0 +
STACK CFI 29790 .cfa: sp 80 +
STACK CFI 297a4 .cfa: x29 80 + x19: .cfa -8 + ^ x20: .cfa -16 + ^ x21: .cfa -24 + ^ x22: .cfa -32 + ^ x23: .cfa -40 + ^ x24: .cfa -48 + ^ x25: .cfa -64 + ^ .ra: .cfa -72 + ^ x29: .cfa -80 + ^
STACK CFI 298ac .cfa: sp 80 +
STACK CFI 298c0 .cfa: sp 0 +
STACK CFI 298c4 .cfa: x29 80 +
STACK CFI INIT 29908 1b8 .cfa: sp 0 +
STACK CFI INIT f6f0 3ec .cfa: sp 0 +
STACK CFI f6f4 .cfa: sp 240 +
STACK CFI f710 .cfa: x29 96 + x19: .cfa -8 + ^ x20: .cfa -16 + ^ x21: .cfa -24 + ^ x22: .cfa -32 + ^ x23: .cfa -40 + ^ x24: .cfa -48 + ^ x25: .cfa -56 + ^ x26: .cfa -64 + ^ x27: .cfa -72 + ^ x28: .cfa -80 + ^ .ra: .cfa -88 + ^ x29: .cfa -96 + ^
STACK CFI fa20 .cfa: sp 240 +
STACK CFI fa3c .cfa: sp 0 +
STACK CFI fa40 .cfa: x29 96 +
STACK CFI INIT 106b8 430 .cfa: sp 0 +
STACK CFI 106bc .cfa: sp 240 +
STACK CFI 106d8 .cfa: x29 96 + x19: .cfa -8 + ^ x20: .cfa -16 + ^ x21: .cfa -24 + ^ x22: .cfa -32 + ^ x23: .cfa -40 + ^ x24: .cfa -48 + ^ x25: .cfa -56 + ^ x26: .cfa -64 + ^ x27: .cfa -80 + ^ .ra: .cfa -88 + ^ x29: .cfa -96 + ^
STACK CFI 10940 .cfa: sp 240 +
STACK CFI 1095c .cfa: sp 0 +
STACK CFI 10960 .cfa: x29 96 +
STACK CFI 10a2c .cfa: sp 240 +
STACK CFI 10a48 .cfa: sp 0 +
STACK CFI 10a4c .cfa: x29 96 +
STACK CFI INIT 10b00 430 .cfa: sp 0 +
STACK CFI 10b04 .cfa: sp 240 +
STACK CFI 10b20 .cfa: x29 96 + x19: .cfa -8 + ^ x20: .cfa -16 + ^ x21: .cfa -24 + ^ x22: .cfa -32 + ^ x23: .cfa -40 + ^ x24: .cfa -48 + ^ x25: .cfa -56 + ^ x26: .cfa -64 + ^ x27: .cfa -80 + ^ .ra: .cfa -88 + ^ x29: .cfa -96 + ^
STACK CFI 10d88 .cfa: sp 240 +
STACK CFI 10da4 .cfa: sp 0 +
STACK CFI 10da8 .cfa: x29 96 +
STACK CFI 10e74 .cfa: sp 240 +
STACK CFI 10e90 .cfa: sp 0 +
STACK CFI 10e94 .cfa: x29 96 +
STACK CFI INIT fadc 3ec .cfa: sp 0 +
STACK CFI fae0 .cfa: sp 240 +
STACK CFI fafc .cfa: x29 96 + x19: .cfa -8 + ^ x20: .cfa -16 + ^ x21: .cfa -24 + ^ x22: .cfa -32 + ^ x23: .cfa -40 + ^ x24: .cfa -48 + ^ x25: .cfa -56 + ^ x26: .cfa -64 + ^ x27: .cfa -72 + ^ x28: .cfa -80 + ^ .ra: .cfa -88 + ^ x29: .cfa -96 + ^
STACK CFI fe0c .cfa: sp 240 +
STACK CFI fe28 .cfa: sp 0 +
STACK CFI fe2c .cfa: x29 96 +
STACK CFI INIT 10f60 5c4 .cfa: sp 0 +
STACK CFI 10f64 .cfa: sp 256 +
STACK CFI 10f80 .cfa: x29 96 + x19: .cfa -8 + ^ x20: .cfa -16 + ^ x21: .cfa -24 + ^ x22: .cfa -32 + ^ x23: .cfa -40 + ^ x24: .cfa -48 + ^ x25: .cfa -56 + ^ x26: .cfa -64 + ^ x27: .cfa -80 + ^ .ra: .cfa -88 + ^ x29: .cfa -96 + ^
STACK CFI 110b4 .cfa: sp 256 +
STACK CFI 110d0 .cfa: sp 0 +
STACK CFI 110d4 .cfa: x29 96 +
STACK CFI 11440 .cfa: sp 256 +
STACK CFI 1145c .cfa: sp 0 +
STACK CFI 11460 .cfa: x29 96 +
STACK CFI INIT 1153c 430 .cfa: sp 0 +
STACK CFI 11540 .cfa: sp 240 +
STACK CFI 1155c .cfa: x29 96 + x19: .cfa -8 + ^ x20: .cfa -16 + ^ x21: .cfa -24 + ^ x22: .cfa -32 + ^ x23: .cfa -40 + ^ x24: .cfa -48 + ^ x25: .cfa -56 + ^ x26: .cfa -64 + ^ x27: .cfa -80 + ^ .ra: .cfa -88 + ^ x29: .cfa -96 + ^
STACK CFI 117c4 .cfa: sp 240 +
STACK CFI 117e0 .cfa: sp 0 +
STACK CFI 117e4 .cfa: x29 96 +
STACK CFI 118b0 .cfa: sp 240 +
STACK CFI 118cc .cfa: sp 0 +
STACK CFI 118d0 .cfa: x29 96 +
STACK CFI INIT fec8 3ec .cfa: sp 0 +
STACK CFI fecc .cfa: sp 240 +
STACK CFI fee8 .cfa: x29 96 + x19: .cfa -8 + ^ x20: .cfa -16 + ^ x21: .cfa -24 + ^ x22: .cfa -32 + ^ x23: .cfa -40 + ^ x24: .cfa -48 + ^ x25: .cfa -56 + ^ x26: .cfa -64 + ^ x27: .cfa -72 + ^ x28: .cfa -80 + ^ .ra: .cfa -88 + ^ x29: .cfa -96 + ^
STACK CFI 101f8 .cfa: sp 240 +
STACK CFI 10214 .cfa: sp 0 +
STACK CFI 10218 .cfa: x29 96 +
STACK CFI INIT 1199c 430 .cfa: sp 0 +
STACK CFI 119a0 .cfa: sp 240 +
STACK CFI 119bc .cfa: x29 96 + x19: .cfa -8 + ^ x20: .cfa -16 + ^ x21: .cfa -24 + ^ x22: .cfa -32 + ^ x23: .cfa -40 + ^ x24: .cfa -48 + ^ x25: .cfa -56 + ^ x26: .cfa -64 + ^ x27: .cfa -80 + ^ .ra: .cfa -88 + ^ x29: .cfa -96 + ^
STACK CFI 11c24 .cfa: sp 240 +
STACK CFI 11c40 .cfa: sp 0 +
STACK CFI 11c44 .cfa: x29 96 +
STACK CFI 11d10 .cfa: sp 240 +
STACK CFI 11d2c .cfa: sp 0 +
STACK CFI 11d30 .cfa: x29 96 +
STACK CFI INIT 102b4 3ec .cfa: sp 0 +
STACK CFI 102b8 .cfa: sp 240 +
STACK CFI 102d4 .cfa: x29 96 + x19: .cfa -8 + ^ x20: .cfa -16 + ^ x21: .cfa -24 + ^ x22: .cfa -32 + ^ x23: .cfa -40 + ^ x24: .cfa -48 + ^ x25: .cfa -56 + ^ x26: .cfa -64 + ^ x27: .cfa -72 + ^ x28: .cfa -80 + ^ .ra: .cfa -88 + ^ x29: .cfa -96 + ^
STACK CFI 105e4 .cfa: sp 240 +
STACK CFI 10600 .cfa: sp 0 +
STACK CFI 10604 .cfa: x29 96 +
STACK CFI INIT 11dfc 3dc .cfa: sp 0 +
STACK CFI 11e00 .cfa: sp 256 +
STACK CFI 11e14 .cfa: x29 64 + x19: .cfa -8 + ^ x20: .cfa -16 + ^ x21: .cfa -24 + ^ x22: .cfa -32 + ^ x23: .cfa -48 + ^ .ra: .cfa -56 + ^ x29: .cfa -64 + ^
STACK CFI 120c0 .cfa: sp 256 +
STACK CFI 120d4 .cfa: sp 0 +
STACK CFI 120d8 .cfa: x29 64 +
STACK CFI INIT 1233c 50 .cfa: sp 0 +
STACK CFI 12340 .cfa: sp 32 +
STACK CFI 12348 .cfa: x29 32 + x19: .cfa -8 + ^ x20: .cfa -16 + ^ .ra: .cfa -24 + ^ x29: .cfa -32 + ^
STACK CFI INIT 123f0 218 .cfa: sp 0 +
STACK CFI 123f4 .cfa: sp 128 +
STACK CFI 1240c .cfa: x29 80 + x19: .cfa -8 + ^ x20: .cfa -16 + ^ x21: .cfa -24 + ^ x22: .cfa -32 + ^ x23: .cfa -40 + ^ x24: .cfa -48 + ^ x25: .cfa -64 + ^ .ra: .cfa -72 + ^ x29: .cfa -80 + ^
STACK CFI 1259c .cfa: sp 128 +
STACK CFI 125b4 .cfa: sp 0 +
STACK CFI 125b8 .cfa: x29 80 +
STACK CFI INIT 12c58 b8 .cfa: sp 0 +
STACK CFI 12c5c .cfa: sp 32 +
STACK CFI 12c64 .cfa: x29 32 + x19: .cfa -8 + ^ x20: .cfa -16 + ^ .ra: .cfa -24 + ^ x29: .cfa -32 + ^
STACK CFI 12c98 .cfa: sp 32 +
STACK CFI 12ca0 .cfa: sp 0 +
STACK CFI 12ca4 .cfa: x29 32 +
STACK CFI 12ca8 .cfa: sp 32 +
STACK CFI 12cb0 .cfa: sp 0 +
STACK CFI 12cb4 .cfa: x29 32 +
STACK CFI INIT 12d10 110 .cfa: sp 0 +
STACK CFI 12d14 .cfa: sp 80 +
STACK CFI 12d24 .cfa: x29 48 + x19: .cfa -8 + ^ x20: .cfa -16 + ^ x21: .cfa -32 + ^ .ra: .cfa -40 + ^ x29: .cfa -48 + ^
STACK CFI 12dcc .cfa: sp 80 +
STACK CFI 12ddc .cfa: sp 0 +
STACK CFI 12de0 .cfa: x29 48 +
STACK CFI INIT 12e20 cc .cfa: sp 0 +
STACK CFI 12e24 .cfa: sp 32 +
STACK CFI 12e2c .cfa: x29 32 + x19: .cfa -8 + ^ x20: .cfa -16 + ^ .ra: .cfa -24 + ^ x29: .cfa -32 + ^
STACK CFI 12eac .cfa: sp 32 +
STACK CFI 12eb4 .cfa: sp 0 +
STACK CFI 12eb8 .cfa: x29 32 +
STACK CFI INIT 13240 3d4 .cfa: sp 0 +
STACK CFI 13244 .cfa: sp 256 +
STACK CFI 13258 .cfa: x29 64 + x19: .cfa -8 + ^ x20: .cfa -16 + ^ x21: .cfa -24 + ^ x22: .cfa -32 + ^ x23: .cfa -48 + ^ .ra: .cfa -56 + ^ x29: .cfa -64 + ^
STACK CFI 134f4 .cfa: sp 256 +
STACK CFI 13508 .cfa: sp 0 +
STACK CFI 1350c .cfa: x29 64 +
STACK CFI INIT 13618 50c .cfa: sp 0 +
STACK CFI 1361c .cfa: sp 128 +
STACK CFI 13634 .cfa: x29 80 + x19: .cfa -8 + ^ x20: .cfa -16 + ^ x21: .cfa -24 + ^ x22: .cfa -32 + ^ x23: .cfa -40 + ^ x24: .cfa -48 + ^ x25: .cfa -64 + ^ .ra: .cfa -72 + ^ x29: .cfa -80 + ^
STACK CFI 13a9c .cfa: sp 128 +
STACK CFI 13ab4 .cfa: sp 0 +
STACK CFI 13ab8 .cfa: x29 80 +
STACK CFI INIT 13b24 200 .cfa: sp 0 +
STACK CFI 13b28 .cfa: sp 96 +
STACK CFI 13b3c .cfa: x29 64 + x19: .cfa -8 + ^ x20: .cfa -16 + ^ x21: .cfa -24 + ^ x22: .cfa -32 + ^ x23: .cfa -40 + ^ x24: .cfa -48 + ^ .ra: .cfa -56 + ^ x29: .cfa -64 + ^
STACK CFI 13cd8 .cfa: sp 96 +
STACK CFI 13cec .cfa: sp 0 +
STACK CFI 13cf0 .cfa: x29 64 +
STACK CFI INIT 13dfc 3d8 .cfa: sp 0 +
STACK CFI 13e00 .cfa: sp 256 +
STACK CFI 13e14 .cfa: x29 64 + x19: .cfa -8 + ^ x20: .cfa -16 + ^ x21: .cfa -24 + ^ x22: .cfa -32 + ^ x23: .cfa -48 + ^ .ra: .cfa -56 + ^ x29: .cfa -64 + ^
STACK CFI 140b4 .cfa: sp 256 +
STACK CFI 140c8 .cfa: sp 0 +
STACK CFI 140cc .cfa: x29 64 +
STACK CFI INIT 141d8 38c .cfa: sp 0 +
STACK CFI 141dc .cfa: sp 144 +
STACK CFI 141f4 .cfa: x29 80 + x19: .cfa -8 + ^ x20: .cfa -16 + ^ x21: .cfa -24 + ^ x22: .cfa -32 + ^ x23: .cfa -40 + ^ x24: .cfa -48 + ^ x25: .cfa -64 + ^ .ra: .cfa -72 + ^ x29: .cfa -80 + ^
STACK CFI 144f0 .cfa: sp 144 +
STACK CFI 14508 .cfa: sp 0 +
STACK CFI 1450c .cfa: x29 80 +
STACK CFI INIT 14564 f4 .cfa: sp 0 +
STACK CFI 14568 .cfa: sp 80 +
STACK CFI 14578 .cfa: x29 48 + x19: .cfa -8 + ^ x20: .cfa -16 + ^ x21: .cfa -32 + ^ .ra: .cfa -40 + ^ x29: .cfa -48 + ^
STACK CFI 14610 .cfa: sp 80 +
STACK CFI 14620 .cfa: sp 0 +
STACK CFI 14624 .cfa: x29 48 +
STACK CFI INIT 14658 348 .cfa: sp 0 +
STACK CFI 1465c .cfa: sp 192 +
STACK CFI 14670 .cfa: x29 64 + x19: .cfa -8 + ^ x20: .cfa -16 + ^ x21: .cfa -24 + ^ x22: .cfa -32 + ^ x23: .cfa -48 + ^ .ra: .cfa -56 + ^ x29: .cfa -64 + ^
STACK CFI 148ac .cfa: sp 192 +
STACK CFI 148c0 .cfa: sp 0 +
STACK CFI 148c4 .cfa: x29 64 +
STACK CFI INIT 149a4 a8 .cfa: sp 0 +
STACK CFI 149a8 .cfa: sp 32 +
STACK CFI 149b0 .cfa: x29 32 + x19: .cfa -8 + ^ x20: .cfa -16 + ^ .ra: .cfa -24 + ^ x29: .cfa -32 + ^
STACK CFI 149e4 .cfa: sp 32 +
STACK CFI 149ec .cfa: sp 0 +
STACK CFI 149f0 .cfa: x29 32 +
STACK CFI 149f4 .cfa: sp 32 +
STACK CFI 149fc .cfa: sp 0 +
STACK CFI 14a00 .cfa: x29 32 +
STACK CFI INIT 14a4c 33c .cfa: sp 0 +
STACK CFI 14a50 .cfa: sp 128 +
STACK CFI 14a6c .cfa: x29 96 + x19: .cfa -8 + ^ x20: .cfa -16 + ^ x21: .cfa -24 + ^ x22: .cfa -32 + ^ x23: .cfa -40 + ^ x24: .cfa -48 + ^ x25: .cfa -56 + ^ x26: .cfa -64 + ^ x27: .cfa -72 + ^ x28: .cfa -80 + ^ .ra: .cfa -88 + ^ x29: .cfa -96 + ^
STACK CFI 14d0c .cfa: sp 128 +
STACK CFI 14d28 .cfa: sp 0 +
STACK CFI 14d2c .cfa: x29 96 +
STACK CFI INIT 14e0c 20 .cfa: sp 0 +
STACK CFI 14e10 .cfa: sp 16 +
STACK CFI 14e14 .cfa: x29 16 + .ra: .cfa -8 + ^ x29: .cfa -16 + ^
STACK CFI 14e20 .cfa: sp 16 +
STACK CFI 14e24 .cfa: sp 0 +
STACK CFI 14e28 .cfa: x29 16 +
STACK CFI INIT 14e2c 3f4 .cfa: sp 0 +
STACK CFI 14e30 .cfa: sp 208 +
STACK CFI 14e44 .cfa: x29 64 + x19: .cfa -8 + ^ x20: .cfa -16 + ^ x21: .cfa -24 + ^ x22: .cfa -32 + ^ x23: .cfa -48 + ^ .ra: .cfa -56 + ^ x29: .cfa -64 + ^
STACK CFI 15104 .cfa: sp 208 +
STACK CFI 15118 .cfa: sp 0 +
STACK CFI 1511c .cfa: x29 64 +
STACK CFI INIT 15224 43c .cfa: sp 0 +
STACK CFI 15228 .cfa: sp 160 +
STACK CFI 15244 .cfa: x29 80 + x19: .cfa -8 + ^ x20: .cfa -16 + ^ x21: .cfa -24 + ^ x22: .cfa -32 + ^ x23: .cfa -40 + ^ x24: .cfa -48 + ^ x25: .cfa -56 + ^ x26: .cfa -64 + ^ .ra: .cfa -72 + ^ x29: .cfa -80 + ^ v8: .cfa -96 + ^
STACK CFI 155f0 .cfa: sp 160 +
STACK CFI 1560c .cfa: sp 0 +
STACK CFI 15610 .cfa: x29 80 +
STACK CFI INIT 15660 200 .cfa: sp 0 +
STACK CFI 15664 .cfa: sp 96 +
STACK CFI 15678 .cfa: x29 64 + x19: .cfa -8 + ^ x20: .cfa -16 + ^ x21: .cfa -24 + ^ x22: .cfa -32 + ^ x23: .cfa -40 + ^ x24: .cfa -48 + ^ .ra: .cfa -56 + ^ x29: .cfa -64 + ^
STACK CFI 15814 .cfa: sp 96 +
STACK CFI 15828 .cfa: sp 0 +
STACK CFI 1582c .cfa: x29 64 +
STACK CFI INIT 15860 388 .cfa: sp 0 +
STACK CFI 15864 .cfa: sp 240 +
STACK CFI 15878 .cfa: x29 64 + x19: .cfa -8 + ^ x20: .cfa -16 + ^ x21: .cfa -24 + ^ x22: .cfa -32 + ^ x23: .cfa -48 + ^ .ra: .cfa -56 + ^ x29: .cfa -64 + ^
STACK CFI 15ae4 .cfa: sp 240 +
STACK CFI 15af8 .cfa: sp 0 +
STACK CFI 15afc .cfa: x29 64 +
STACK CFI INIT 15bec a8 .cfa: sp 0 +
STACK CFI 15bf0 .cfa: sp 32 +
STACK CFI 15bf8 .cfa: x29 32 + x19: .cfa -8 + ^ x20: .cfa -16 + ^ .ra: .cfa -24 + ^ x29: .cfa -32 + ^
STACK CFI 15c2c .cfa: sp 32 +
STACK CFI 15c34 .cfa: sp 0 +
STACK CFI 15c38 .cfa: x29 32 +
STACK CFI 15c3c .cfa: sp 32 +
STACK CFI 15c44 .cfa: sp 0 +
STACK CFI 15c48 .cfa: x29 32 +
STACK CFI INIT 15c94 32c .cfa: sp 0 +
STACK CFI 15c98 .cfa: sp 176 +
STACK CFI 15cb4 .cfa: x29 96 + x19: .cfa -8 + ^ x20: .cfa -16 + ^ x21: .cfa -24 + ^ x22: .cfa -32 + ^ x23: .cfa -40 + ^ x24: .cfa -48 + ^ x25: .cfa -56 + ^ x26: .cfa -64 + ^ x27: .cfa -72 + ^ x28: .cfa -80 + ^ .ra: .cfa -88 + ^ x29: .cfa -96 + ^
STACK CFI 15f20 .cfa: sp 176 +
STACK CFI 15f3c .cfa: sp 0 +
STACK CFI 15f40 .cfa: x29 96 +
STACK CFI INIT 16044 20 .cfa: sp 0 +
STACK CFI 16048 .cfa: sp 16 +
STACK CFI 1604c .cfa: x29 16 + .ra: .cfa -8 + ^ x29: .cfa -16 + ^
STACK CFI 16058 .cfa: sp 16 +
STACK CFI 1605c .cfa: sp 0 +
STACK CFI 16060 .cfa: x29 16 +
STACK CFI INIT 16064 3a0 .cfa: sp 0 +
STACK CFI 16068 .cfa: sp 192 +
STACK CFI 1607c .cfa: x29 64 + x19: .cfa -8 + ^ x20: .cfa -16 + ^ x21: .cfa -24 + ^ x22: .cfa -32 + ^ x23: .cfa -48 + ^ .ra: .cfa -56 + ^ x29: .cfa -64 + ^
STACK CFI 162f4 .cfa: sp 192 +
STACK CFI 16308 .cfa: sp 0 +
STACK CFI 1630c .cfa: x29 64 +
STACK CFI INIT 16408 4f4 .cfa: sp 0 +
STACK CFI 1640c .cfa: sp 160 +
STACK CFI 16428 .cfa: x29 96 + x19: .cfa -8 + ^ x20: .cfa -16 + ^ x21: .cfa -24 + ^ x22: .cfa -32 + ^ x23: .cfa -40 + ^ x24: .cfa -48 + ^ x25: .cfa -56 + ^ x26: .cfa -64 + ^ x27: .cfa -72 + ^ x28: .cfa -80 + ^ .ra: .cfa -88 + ^ x29: .cfa -96 + ^
STACK CFI 16864 .cfa: sp 160 +
STACK CFI 16880 .cfa: sp 0 +
STACK CFI 16884 .cfa: x29 96 +
STACK CFI INIT 168fc 20 .cfa: sp 0 +
STACK CFI 16900 .cfa: sp 16 +
STACK CFI 16904 .cfa: x29 16 + .ra: .cfa -8 + ^ x29: .cfa -16 + ^
STACK CFI 16910 .cfa: sp 16 +
STACK CFI 16914 .cfa: sp 0 +
STACK CFI 16918 .cfa: x29 16 +
STACK CFI INIT 1691c 3d0 .cfa: sp 0 +
STACK CFI 16920 .cfa: sp 240 +
STACK CFI 16934 .cfa: x29 64 + x19: .cfa -8 + ^ x20: .cfa -16 + ^ x21: .cfa -24 + ^ x22: .cfa -32 + ^ x23: .cfa -40 + ^ x24: .cfa -48 + ^ .ra: .cfa -56 + ^ x29: .cfa -64 + ^
STACK CFI 16bcc .cfa: sp 240 +
STACK CFI 16be0 .cfa: sp 0 +
STACK CFI 16be4 .cfa: x29 64 +
STACK CFI INIT 16cf0 44c .cfa: sp 0 +
STACK CFI 16cf4 .cfa: sp 160 +
STACK CFI 16d10 .cfa: x29 80 + x19: .cfa -8 + ^ x20: .cfa -16 + ^ x21: .cfa -24 + ^ x22: .cfa -32 + ^ x23: .cfa -40 + ^ x24: .cfa -48 + ^ x25: .cfa -56 + ^ x26: .cfa -64 + ^ .ra: .cfa -72 + ^ x29: .cfa -80 + ^ v8: .cfa -96 + ^
STACK CFI 170cc .cfa: sp 160 +
STACK CFI 170e8 .cfa: sp 0 +
STACK CFI 170ec .cfa: x29 80 +
STACK CFI INIT 1713c 200 .cfa: sp 0 +
STACK CFI 17140 .cfa: sp 96 +
STACK CFI 17154 .cfa: x29 64 + x19: .cfa -8 + ^ x20: .cfa -16 + ^ x21: .cfa -24 + ^ x22: .cfa -32 + ^ x23: .cfa -40 + ^ x24: .cfa -48 + ^ .ra: .cfa -56 + ^ x29: .cfa -64 + ^
STACK CFI 172f0 .cfa: sp 96 +
STACK CFI 17304 .cfa: sp 0 +
STACK CFI 17308 .cfa: x29 64 +
STACK CFI INIT 1733c 6e0 .cfa: sp 0 +
STACK CFI 17340 .cfa: sp 256 +
STACK CFI 17358 .cfa: x29 80 + x19: .cfa -8 + ^ x20: .cfa -16 + ^ x21: .cfa -24 + ^ x22: .cfa -32 + ^ x23: .cfa -40 + ^ x24: .cfa -48 + ^ x25: .cfa -56 + ^ x26: .cfa -64 + ^ .ra: .cfa -72 + ^ x29: .cfa -80 + ^
STACK CFI 1785c .cfa: sp 256 +
STACK CFI 17874 .cfa: sp 0 +
STACK CFI 17878 .cfa: x29 80 +
STACK CFI INIT 17a20 4f4 .cfa: sp 0 +
STACK CFI 17a24 .cfa: sp 160 +
STACK CFI 17a40 .cfa: x29 96 + x19: .cfa -8 + ^ x20: .cfa -16 + ^ x21: .cfa -24 + ^ x22: .cfa -32 + ^ x23: .cfa -40 + ^ x24: .cfa -48 + ^ x25: .cfa -56 + ^ x26: .cfa -64 + ^ x27: .cfa -72 + ^ x28: .cfa -80 + ^ .ra: .cfa -88 + ^ x29: .cfa -96 + ^
STACK CFI 17e7c .cfa: sp 160 +
STACK CFI 17e98 .cfa: sp 0 +
STACK CFI 17e9c .cfa: x29 96 +
STACK CFI INIT 17f14 a8 .cfa: sp 0 +
STACK CFI 17f18 .cfa: sp 32 +
STACK CFI 17f20 .cfa: x29 32 + x19: .cfa -8 + ^ x20: .cfa -16 + ^ .ra: .cfa -24 + ^ x29: .cfa -32 + ^
STACK CFI 17f54 .cfa: sp 32 +
STACK CFI 17f5c .cfa: sp 0 +
STACK CFI 17f60 .cfa: x29 32 +
STACK CFI 17f64 .cfa: sp 32 +
STACK CFI 17f6c .cfa: sp 0 +
STACK CFI 17f70 .cfa: x29 32 +
STACK CFI INIT 17fbc 258 .cfa: sp 0 +
STACK CFI 17fc0 .cfa: sp 128 +
STACK CFI 17fd4 .cfa: x29 64 + x19: .cfa -8 + ^ x20: .cfa -16 + ^ x21: .cfa -24 + ^ x22: .cfa -32 + ^ x23: .cfa -40 + ^ x24: .cfa -48 + ^ .ra: .cfa -56 + ^ x29: .cfa -64 + ^
STACK CFI 181a8 .cfa: sp 128 +
STACK CFI 181bc .cfa: sp 0 +
STACK CFI 181c0 .cfa: x29 64 +
STACK CFI INIT 182f8 e4 .cfa: sp 0 +
STACK CFI 182fc .cfa: sp 64 +
STACK CFI 18308 .cfa: x29 32 + x19: .cfa -8 + ^ x20: .cfa -16 + ^ .ra: .cfa -24 + ^ x29: .cfa -32 + ^
STACK CFI 18364 .cfa: sp 64 +
STACK CFI 18370 .cfa: sp 0 +
STACK CFI 18374 .cfa: x29 32 +
STACK CFI INIT 183dc 14c .cfa: sp 0 +
STACK CFI 183e0 .cfa: sp 128 +
STACK CFI 183f0 .cfa: x29 48 + x19: .cfa -8 + ^ x20: .cfa -16 + ^ x21: .cfa -32 + ^ .ra: .cfa -40 + ^ x29: .cfa -48 + ^
STACK CFI 18420 .cfa: sp 128 +
STACK CFI 18430 .cfa: sp 0 +
STACK CFI 18434 .cfa: x29 48 +
STACK CFI INIT 1861c 1a8 .cfa: sp 0 +
STACK CFI 18620 .cfa: sp 112 +
STACK CFI 18630 .cfa: x29 48 + x19: .cfa -8 + ^ x20: .cfa -16 + ^ x21: .cfa -24 + ^ x22: .cfa -32 + ^ .ra: .cfa -40 + ^ x29: .cfa -48 + ^
STACK CFI 18704 .cfa: sp 112 +
STACK CFI 18714 .cfa: sp 0 +
STACK CFI 18718 .cfa: x29 48 +
STACK CFI INIT 187c4 178 .cfa: sp 0 +
STACK CFI 187c8 .cfa: sp 128 +
STACK CFI 187d8 .cfa: x29 48 + x19: .cfa -8 + ^ x20: .cfa -16 + ^ x21: .cfa -24 + ^ x22: .cfa -32 + ^ .ra: .cfa -40 + ^ x29: .cfa -48 + ^
STACK CFI 18834 .cfa: sp 128 +
STACK CFI 18844 .cfa: sp 0 +
STACK CFI 18848 .cfa: x29 48 +
STACK CFI INIT 1893c a4 .cfa: sp 0 +
STACK CFI 18940 .cfa: sp 48 +
STACK CFI 1894c .cfa: x29 48 + x19: .cfa -8 + ^ x20: .cfa -16 + ^ x21: .cfa -32 + ^ .ra: .cfa -40 + ^ x29: .cfa -48 + ^
STACK CFI 189b8 .cfa: sp 48 +
STACK CFI 189c4 .cfa: sp 0 +
STACK CFI 189c8 .cfa: x29 48 +
STACK CFI INIT 189e0 1b0 .cfa: sp 0 +
STACK CFI 189e4 .cfa: sp 112 +
STACK CFI 189f4 .cfa: x29 48 + x19: .cfa -8 + ^ x20: .cfa -16 + ^ x21: .cfa -24 + ^ x22: .cfa -32 + ^ .ra: .cfa -40 + ^ x29: .cfa -48 + ^
STACK CFI 18ad0 .cfa: sp 112 +
STACK CFI 18ae0 .cfa: sp 0 +
STACK CFI 18ae4 .cfa: x29 48 +
STACK CFI INIT 18bec 3b0 .cfa: sp 0 +
STACK CFI 18bf0 .cfa: sp 112 +
STACK CFI 18c00 .cfa: x29 48 + x19: .cfa -8 + ^ x20: .cfa -16 + ^ x21: .cfa -24 + ^ x22: .cfa -32 + ^ .ra: .cfa -40 + ^ x29: .cfa -48 + ^
STACK CFI 18e88 .cfa: sp 112 +
STACK CFI 18e98 .cfa: sp 0 +
STACK CFI 18e9c .cfa: x29 48 +
STACK CFI INIT 18f9c 190 .cfa: sp 0 +
STACK CFI 18fa0 .cfa: sp 112 +
STACK CFI 18fb0 .cfa: x29 48 + x19: .cfa -8 + ^ x20: .cfa -16 + ^ x21: .cfa -24 + ^ x22: .cfa -32 + ^ .ra: .cfa -40 + ^ x29: .cfa -48 + ^
STACK CFI 1906c .cfa: sp 112 +
STACK CFI 1907c .cfa: sp 0 +
STACK CFI 19080 .cfa: x29 48 +
STACK CFI INIT 1912c 43c .cfa: sp 0 +
STACK CFI 19130 .cfa: sp 64 +
STACK CFI 19140 .cfa: x29 64 + x19: .cfa -8 + ^ x20: .cfa -16 + ^ x21: .cfa -24 + ^ x22: .cfa -32 + ^ x23: .cfa -40 + ^ x24: .cfa -48 + ^ .ra: .cfa -56 + ^ x29: .cfa -64 + ^
STACK CFI 194f8 .cfa: sp 64 +
STACK CFI 19508 .cfa: sp 0 +
STACK CFI 1950c .cfa: x29 64 +
STACK CFI INIT 19898 50 .cfa: sp 0 +
STACK CFI 1989c .cfa: sp 32 +
STACK CFI 198a4 .cfa: x29 32 + x19: .cfa -8 + ^ x20: .cfa -16 + ^ .ra: .cfa -24 + ^ x29: .cfa -32 + ^
STACK CFI INIT 19914 294 .cfa: sp 0 +
STACK CFI 19918 .cfa: sp 240 +
STACK CFI 19930 .cfa: x29 80 + x19: .cfa -8 + ^ x20: .cfa -16 + ^ x21: .cfa -24 + ^ x22: .cfa -32 + ^ x23: .cfa -40 + ^ x24: .cfa -48 + ^ x25: .cfa -64 + ^ .ra: .cfa -72 + ^ x29: .cfa -80 + ^
STACK CFI 19ad0 .cfa: sp 240 +
STACK CFI 19ae8 .cfa: sp 0 +
STACK CFI 19aec .cfa: x29 80 +
STACK CFI INIT 19c18 750 .cfa: sp 0 +
STACK CFI 19c1c .cfa: sp 320 +
STACK CFI 19c38 .cfa: x29 96 + x19: .cfa -8 + ^ x20: .cfa -16 + ^ x21: .cfa -24 + ^ x22: .cfa -32 + ^ x23: .cfa -40 + ^ x24: .cfa -48 + ^ x25: .cfa -56 + ^ x26: .cfa -64 + ^ x27: .cfa -72 + ^ x28: .cfa -80 + ^ .ra: .cfa -88 + ^ x29: .cfa -96 + ^
STACK CFI 1a224 .cfa: sp 320 +
STACK CFI 1a240 .cfa: sp 0 +
STACK CFI 1a244 .cfa: x29 96 +
STACK CFI INIT 1a3cc 128 .cfa: sp 0 +
STACK CFI 1a3d0 .cfa: sp 80 +
STACK CFI 1a3e4 .cfa: x29 80 + x19: .cfa -8 + ^ x20: .cfa -16 + ^ x21: .cfa -24 + ^ x22: .cfa -32 + ^ x23: .cfa -40 + ^ x24: .cfa -48 + ^ x28: .cfa -64 + ^ .ra: .cfa -72 + ^ x29: .cfa -80 + ^
STACK CFI 1a4a8 .cfa: sp 80 +
STACK CFI 1a4bc .cfa: sp 0 +
STACK CFI 1a4c0 .cfa: x29 80 +
STACK CFI INIT 1dddc 8e8 .cfa: sp 0 +
STACK CFI 1dde0 .cfa: sp 96 +
STACK CFI 1ddf8 .cfa: x29 96 + x19: .cfa -8 + ^ x20: .cfa -16 + ^ x21: .cfa -24 + ^ x22: .cfa -32 + ^ x23: .cfa -40 + ^ x24: .cfa -48 + ^ x25: .cfa -56 + ^ x26: .cfa -64 + ^ x27: .cfa -72 + ^ x28: .cfa -80 + ^ .ra: .cfa -88 + ^ x29: .cfa -96 + ^
STACK CFI 1e608 .cfa: sp 96 +
STACK CFI 1e620 .cfa: sp 0 +
STACK CFI 1e624 .cfa: x29 96 +
STACK CFI INIT 1ea44 238 .cfa: sp 0 +
STACK CFI 1ea48 .cfa: sp 128 +
STACK CFI 1ea58 .cfa: x29 48 + x19: .cfa -8 + ^ x20: .cfa -16 + ^ x21: .cfa -24 + ^ x22: .cfa -32 + ^ .ra: .cfa -40 + ^ x29: .cfa -48 + ^
STACK CFI 1ebe0 .cfa: sp 128 +
STACK CFI 1ebf0 .cfa: sp 0 +
STACK CFI 1ebf4 .cfa: x29 48 +
STACK CFI INIT 1f1a4 3c4 .cfa: sp 0 +
STACK CFI 1f1a8 .cfa: sp 96 +
STACK CFI 1f1c0 .cfa: x29 96 + x19: .cfa -8 + ^ x20: .cfa -16 + ^ x21: .cfa -24 + ^ x22: .cfa -32 + ^ x23: .cfa -40 + ^ x24: .cfa -48 + ^ x25: .cfa -56 + ^ x26: .cfa -64 + ^ x27: .cfa -72 + ^ x28: .cfa -80 + ^ .ra: .cfa -88 + ^ x29: .cfa -96 + ^
STACK CFI 1f508 .cfa: sp 96 +
STACK CFI 1f520 .cfa: sp 0 +
STACK CFI 1f524 .cfa: x29 96 +
STACK CFI INIT 1f678 92c .cfa: sp 0 +
STACK CFI 1f67c .cfa: sp 96 +
STACK CFI 1f694 .cfa: x29 96 + x19: .cfa -8 + ^ x20: .cfa -16 + ^ x21: .cfa -24 + ^ x22: .cfa -32 + ^ x23: .cfa -40 + ^ x24: .cfa -48 + ^ x25: .cfa -56 + ^ x26: .cfa -64 + ^ x27: .cfa -72 + ^ x28: .cfa -80 + ^ .ra: .cfa -88 + ^ x29: .cfa -96 + ^
STACK CFI 1fee8 .cfa: sp 96 +
STACK CFI 1ff00 .cfa: sp 0 +
STACK CFI 1ff04 .cfa: x29 96 +
STACK CFI INIT 2028c ab4 .cfa: sp 0 +
STACK CFI 20290 .cfa: sp 96 +
STACK CFI 202a8 .cfa: x29 96 + x19: .cfa -8 + ^ x20: .cfa -16 + ^ x21: .cfa -24 + ^ x22: .cfa -32 + ^ x23: .cfa -40 + ^ x24: .cfa -48 + ^ x25: .cfa -56 + ^ x26: .cfa -64 + ^ x27: .cfa -72 + ^ x28: .cfa -80 + ^ .ra: .cfa -88 + ^ x29: .cfa -96 + ^
STACK CFI 20cb4 .cfa: sp 96 +
STACK CFI 20ccc .cfa: sp 0 +
STACK CFI 20cd0 .cfa: x29 96 +
STACK CFI INIT 21018 1398 .cfa: sp 0 +
STACK CFI 2101c .cfa: sp 96 +
STACK CFI 21034 .cfa: x29 96 + x19: .cfa -8 + ^ x20: .cfa -16 + ^ x21: .cfa -24 + ^ x22: .cfa -32 + ^ x23: .cfa -40 + ^ x24: .cfa -48 + ^ x25: .cfa -56 + ^ x26: .cfa -64 + ^ x27: .cfa -72 + ^ x28: .cfa -80 + ^ .ra: .cfa -88 + ^ x29: .cfa -96 + ^
STACK CFI 2227c .cfa: sp 96 +
STACK CFI 22294 .cfa: sp 0 +
STACK CFI 22298 .cfa: x29 96 +
STACK CFI INIT 224d8 760 .cfa: sp 0 +
STACK CFI 224dc .cfa: sp 368 +
STACK CFI 224f8 .cfa: x29 96 + x19: .cfa -8 + ^ x20: .cfa -16 + ^ x21: .cfa -24 + ^ x22: .cfa -32 + ^ x23: .cfa -40 + ^ x24: .cfa -48 + ^ x25: .cfa -56 + ^ x26: .cfa -64 + ^ x27: .cfa -72 + ^ x28: .cfa -80 + ^ .ra: .cfa -88 + ^ x29: .cfa -96 + ^
STACK CFI 22598 .cfa: sp 368 +
STACK CFI 225b4 .cfa: sp 0 +
STACK CFI 225b8 .cfa: x29 96 +
STACK CFI 22610 .cfa: sp 368 +
STACK CFI 2262c .cfa: sp 0 +
STACK CFI 22630 .cfa: x29 96 +
STACK CFI INIT 2305c e4c .cfa: sp 0 +
STACK CFI 23060 .cfa: sp 96 +
STACK CFI 23078 .cfa: x29 96 + x19: .cfa -8 + ^ x20: .cfa -16 + ^ x21: .cfa -24 + ^ x22: .cfa -32 + ^ x23: .cfa -40 + ^ x24: .cfa -48 + ^ x25: .cfa -56 + ^ x26: .cfa -64 + ^ x27: .cfa -72 + ^ x28: .cfa -80 + ^ .ra: .cfa -88 + ^ x29: .cfa -96 + ^
STACK CFI 23ca8 .cfa: sp 96 +
STACK CFI 23cc0 .cfa: sp 0 +
STACK CFI 23cc4 .cfa: x29 96 +
STACK CFI INIT 2434c 1c34 .cfa: sp 0 +
STACK CFI 24350 .cfa: sp 112 +
STACK CFI 2436c .cfa: x29 96 + x19: .cfa -8 + ^ x20: .cfa -16 + ^ x21: .cfa -24 + ^ x22: .cfa -32 + ^ x23: .cfa -40 + ^ x24: .cfa -48 + ^ x25: .cfa -56 + ^ x26: .cfa -64 + ^ x27: .cfa -72 + ^ x28: .cfa -80 + ^ .ra: .cfa -88 + ^ x29: .cfa -96 + ^ v8: .cfa -112 + ^
STACK CFI 25c44 .cfa: sp 112 +
STACK CFI 25c60 .cfa: sp 0 +
STACK CFI 25c64 .cfa: x29 96 +
STACK CFI INIT 28420 978 .cfa: sp 0 +
STACK CFI 28424 .cfa: sp 128 +
STACK CFI 28438 .cfa: x29 64 + x19: .cfa -8 + ^ x20: .cfa -16 + ^ x21: .cfa -24 + ^ x22: .cfa -32 + ^ x23: .cfa -40 + ^ x24: .cfa -48 + ^ .ra: .cfa -56 + ^ x29: .cfa -64 + ^
STACK CFI 28d18 .cfa: sp 128 +
STACK CFI 28d2c .cfa: sp 0 +
STACK CFI 28d30 .cfa: x29 64 +
STACK CFI INIT 29ac0 5f0 .cfa: sp 0 +
STACK CFI 29ac4 .cfa: sp 96 +
STACK CFI 29adc .cfa: x29 96 + x19: .cfa -8 + ^ x20: .cfa -16 + ^ x21: .cfa -24 + ^ x22: .cfa -32 + ^ x23: .cfa -40 + ^ x24: .cfa -48 + ^ x25: .cfa -56 + ^ x26: .cfa -64 + ^ x28: .cfa -80 + ^ .ra: .cfa -88 + ^ x29: .cfa -96 + ^
STACK CFI 29ff0 .cfa: sp 96 +
STACK CFI 2a008 .cfa: sp 0 +
STACK CFI 2a00c .cfa: x29 96 +
STACK CFI INIT 2a0b0 758 .cfa: sp 0 +
STACK CFI 2a0b4 .cfa: sp 96 +
STACK CFI 2a0cc .cfa: x29 96 + x19: .cfa -8 + ^ x20: .cfa -16 + ^ x21: .cfa -24 + ^ x22: .cfa -32 + ^ x23: .cfa -40 + ^ x24: .cfa -48 + ^ x25: .cfa -56 + ^ x26: .cfa -64 + ^ x27: .cfa -72 + ^ x28: .cfa -80 + ^ .ra: .cfa -88 + ^ x29: .cfa -96 + ^
STACK CFI 2a748 .cfa: sp 96 +
STACK CFI 2a760 .cfa: sp 0 +
STACK CFI 2a764 .cfa: x29 96 +
