MODULE Linux arm64 C37AFD75347A0C804858C985DF6AAD470 rynat.better_unlock_info.android64.so
INFO CODE_ID 75FD7AC37A34800C4858C985DF6AAD4770ACE771
INFO GENERATOR mozilla/dump_syms 2.3.4
PUBLIC 124a0 0 __on_dlclose
PUBLIC 124b0 0 __emutls_unregister_key
PUBLIC 124b8 0 __on_dlclose_late
PUBLIC 124c0 0 __atexit_handler_wrapper
PUBLIC 124d4 0 atexit
PUBLIC 124f0 0 pthread_atfork
PUBLIC 12500 0 unwind_phase2
PUBLIC 12634 0 _Unwind_Resume
PUBLIC 126b8 0 unwind_phase2_forced
PUBLIC m 127ac 0 __unw_init_local
PUBLIC m 12854 0 __unw_get_reg
PUBLIC 128d0 0 __unw_step_stage2
PUBLIC m 128e4 0 __unw_get_proc_info
PUBLIC m 12924 0 __unw_resume
PUBLIC 1294c 0 libunwind::CFI_Parser<libunwind::LocalAddressSpace>::decodeFDE(libunwind::LocalAddressSpace&, unsigned long, libunwind::CFI_Parser<libunwind::LocalAddressSpace>::FDE_Info*, libunwind::CFI_Parser<libunwind::LocalAddressSpace>::CIE_Info*, bool)
PUBLIC 12adc 0 libunwind::CFI_Parser<libunwind::LocalAddressSpace>::parseCIE(libunwind::LocalAddressSpace&, unsigned long, libunwind::CFI_Parser<libunwind::LocalAddressSpace>::CIE_Info*)
PUBLIC 12da4 0 libunwind::AbstractUnwindCursor::~AbstractUnwindCursor()
PUBLIC 12dac 0 libunwind::UnwindCursor<libunwind::LocalAddressSpace, libunwind::Registers_arm64>::~UnwindCursor()
PUBLIC 12db4 0 libunwind::UnwindCursor<libunwind::LocalAddressSpace, libunwind::Registers_arm64>::validReg(int)
PUBLIC 12df8 0 libunwind::UnwindCursor<libunwind::LocalAddressSpace, libunwind::Registers_arm64>::getReg(int)
PUBLIC 12ee0 0 libunwind::UnwindCursor<libunwind::LocalAddressSpace, libunwind::Registers_arm64>::setReg(int, unsigned long)
PUBLIC 12fc8 0 libunwind::UnwindCursor<libunwind::LocalAddressSpace, libunwind::Registers_arm64>::validFloatReg(int)
PUBLIC 12fdc 0 libunwind::UnwindCursor<libunwind::LocalAddressSpace, libunwind::Registers_arm64>::getFloatReg(int)
PUBLIC 12fec 0 libunwind::UnwindCursor<libunwind::LocalAddressSpace, libunwind::Registers_arm64>::setFloatReg(int, double)
PUBLIC 12ffc 0 libunwind::UnwindCursor<libunwind::LocalAddressSpace, libunwind::Registers_arm64>::step(bool)
PUBLIC 130ec 0 libunwind::UnwindCursor<libunwind::LocalAddressSpace, libunwind::Registers_arm64>::getInfo(unw_proc_info_t*)
PUBLIC 13130 0 libunwind::UnwindCursor<libunwind::LocalAddressSpace, libunwind::Registers_arm64>::jumpto()
PUBLIC 1313c 0 libunwind::UnwindCursor<libunwind::LocalAddressSpace, libunwind::Registers_arm64>::isSignalFrame()
PUBLIC 13148 0 libunwind::UnwindCursor<libunwind::LocalAddressSpace, libunwind::Registers_arm64>::getFunctionName(char*, unsigned long, unsigned long*)
PUBLIC 13174 0 libunwind::UnwindCursor<libunwind::LocalAddressSpace, libunwind::Registers_arm64>::setInfoBasedOnIPRegister(bool)
PUBLIC 133f4 0 libunwind::UnwindCursor<libunwind::LocalAddressSpace, libunwind::Registers_arm64>::getRegisterName(int)
PUBLIC 13400 0 libunwind::UnwindCursor<libunwind::LocalAddressSpace, libunwind::Registers_arm64>::stepThroughSigReturn(libunwind::Registers_arm64&)
PUBLIC 13520 0 libunwind::DwarfInstructions<libunwind::LocalAddressSpace, libunwind::Registers_arm64>::stepWithDwarf(libunwind::LocalAddressSpace&, unsigned long, unsigned long, libunwind::Registers_arm64&, bool&, bool)
PUBLIC 139a8 0 libunwind::CFI_Parser<libunwind::LocalAddressSpace>::parseFDEInstructions(libunwind::LocalAddressSpace&, libunwind::CFI_Parser<libunwind::LocalAddressSpace>::FDE_Info const&, libunwind::CFI_Parser<libunwind::LocalAddressSpace>::CIE_Info const&, unsigned long, int, libunwind::CFI_Parser<libunwind::LocalAddressSpace>::PrologInfo*)
PUBLIC 145f0 0 libunwind::DwarfInstructions<libunwind::LocalAddressSpace, libunwind::Registers_arm64>::getCFA(libunwind::LocalAddressSpace&, libunwind::CFI_Parser<libunwind::LocalAddressSpace>::PrologInfo const&, libunwind::Registers_arm64 const&)
PUBLIC 14724 0 libunwind::DwarfInstructions<libunwind::LocalAddressSpace, libunwind::Registers_arm64>::getSavedRegister(libunwind::LocalAddressSpace&, libunwind::Registers_arm64 const&, unsigned long, libunwind::CFI_Parser<libunwind::LocalAddressSpace>::RegisterLocation const&)
PUBLIC 14934 0 libunwind::LocalAddressSpace::getEncodedP(unsigned long&, unsigned long, unsigned char, unsigned long)
PUBLIC 14cc0 0 libunwind::LocalAddressSpace::getULEB128(unsigned long&, unsigned long)
PUBLIC 14e88 0 libunwind::DwarfInstructions<libunwind::LocalAddressSpace, libunwind::Registers_arm64>::evaluateExpression(unsigned long, libunwind::LocalAddressSpace&, libunwind::Registers_arm64 const&, unsigned long)
PUBLIC 15844 0 libunwind::UnwindCursor<libunwind::LocalAddressSpace, libunwind::Registers_arm64>::getInfoFromDwarfSection(unsigned long, libunwind::UnwindInfoSections const&, unsigned int)
PUBLIC 15b18 0 libunwind::findUnwindSectionsByPhdr(dl_phdr_info*, unsigned long, void*)
PUBLIC 15c4c 0 libunwind::EHHeaderParser<libunwind::LocalAddressSpace>::decodeEHHdr(libunwind::LocalAddressSpace&, unsigned long, unsigned long, libunwind::EHHeaderParser<libunwind::LocalAddressSpace>::EHHeaderInfo&)
PUBLIC 15d6c 0 libunwind::CFI_Parser<libunwind::LocalAddressSpace>::findFDE(libunwind::LocalAddressSpace&, unsigned long, unsigned long, unsigned long, unsigned long, libunwind::CFI_Parser<libunwind::LocalAddressSpace>::FDE_Info*, libunwind::CFI_Parser<libunwind::LocalAddressSpace>::CIE_Info*)
PUBLIC 15f34 0 libunwind::EHHeaderParser<libunwind::LocalAddressSpace>::findFDE(libunwind::LocalAddressSpace&, unsigned long, unsigned long, unsigned int, libunwind::CFI_Parser<libunwind::LocalAddressSpace>::FDE_Info*, libunwind::CFI_Parser<libunwind::LocalAddressSpace>::CIE_Info*)
PUBLIC 1609c 0 libunwind::EHHeaderParser<libunwind::LocalAddressSpace>::getTableEntrySize(unsigned char)
PUBLIC 16198 0 libunwind::Registers_arm64::getRegisterName(int)
PUBLIC 161c8 0 __libunwind_Registers_arm64_jumpto
PUBLIC m 16258 0 __unw_getcontext
PUBLIC 16300 0 __aarch64_ldadd8_relax
PUBLIC 16330 0 init_have_lse_atomics
PUBLIC 163c8 0 __init_cpu_features_constructor
PUBLIC 16964 0 __init_cpu_features
PUBLIC 169f0 0 __aarch64_ldadd8_acq_rel
FUNC 16a20 660 0 __cxx_global_var_init
FUNC 17080 1c 0 geode::modifier::ModifyBase<geode::modifier::ModifyDerive<MyItemInfoPopup, ItemInfoPopup> >::~ModifyBase()
FUNC 1709c 404 0 geode::modifier::ModifyDerive<MyItemInfoPopup, ItemInfoPopup>::apply()
FUNC 174a0 50 0 std::__ndk1::shared_ptr<geode::Hook>::~shared_ptr[abi:ne180000]()
FUNC 174f0 74 0 geode::impl::ResultData<geode::Hook*, std::__ndk1::basic_string<char, std::__ndk1::char_traits<char>, std::__ndk1::allocator<char> > >::~ResultData()
FUNC 17564 7c 0 std::__ndk1::vector<std::__ndk1::basic_string<char, std::__ndk1::char_traits<char>, std::__ndk1::allocator<char> >, std::__ndk1::allocator<std::__ndk1::basic_string<char, std::__ndk1::char_traits<char>, std::__ndk1::allocator<char> > > >::~vector[abi:ne180000]()
FUNC 175e0 4 0 geode::modifier::ModifyBase<geode::modifier::ModifyDerive<MyItemInfoPopup, ItemInfoPopup> >::apply()
PUBLIC 175e4 0 __clang_call_terminate
FUNC 175f4 14 0 std::__ndk1::basic_string<char, std::__ndk1::char_traits<char>, std::__ndk1::allocator<char> >::__throw_length_error[abi:ne180000]() const
FUNC 17608 50 0 std::__ndk1::__throw_length_error[abi:ne180000](char const*)
FUNC 17658 30 0 std::length_error::length_error[abi:ne180000](char const*)
FUNC 17688 34 0 std::__throw_bad_array_new_length([abi:ne180000], void)
FUNC 176bc fc 0 std::__ndk1::__tree<std::__ndk1::__value_type<std::__ndk1::basic_string<char, std::__ndk1::char_traits<char>, std::__ndk1::allocator<char> >, std::__ndk1::shared_ptr<geode::Hook> >, std::__ndk1::__map_value_compare<std::__ndk1::basic_string<char, std::__ndk1::char_traits<char>, std::__ndk1::allocator<char> >, std::__ndk1::__value_type<std::__ndk1::basic_string<char, std::__ndk1::char_traits<char>, std::__ndk1::allocator<char> >, std::__ndk1::shared_ptr<geode::Hook> >, std::__ndk1::less<std::__ndk1::basic_string<char, std::__ndk1::char_traits<char>, std::__ndk1::allocator<char> > >, true>, std::__ndk1::allocator<std::__ndk1::__value_type<std::__ndk1::basic_string<char, std::__ndk1::char_traits<char>, std::__ndk1::allocator<char> >, std::__ndk1::shared_ptr<geode::Hook> > > >::find<std::__ndk1::basic_string<char, std::__ndk1::char_traits<char>, std::__ndk1::allocator<char> > >(std::__ndk1::basic_string<char, std::__ndk1::char_traits<char>, std::__ndk1::allocator<char> > const&)
FUNC 177b8 8c 0 std::__ndk1::basic_string<char, std::__ndk1::char_traits<char>, std::__ndk1::allocator<char> >::basic_string[abi:ne180000]<0>()
FUNC 17844 104 0 std::__ndk1::__tree<std::__ndk1::__value_type<std::__ndk1::basic_string<char, std::__ndk1::char_traits<char>, std::__ndk1::allocator<char> >, std::__ndk1::shared_ptr<geode::Hook> >, std::__ndk1::__map_value_compare<std::__ndk1::basic_string<char, std::__ndk1::char_traits<char>, std::__ndk1::allocator<char> >, std::__ndk1::__value_type<std::__ndk1::basic_string<char, std::__ndk1::char_traits<char>, std::__ndk1::allocator<char> >, std::__ndk1::shared_ptr<geode::Hook> >, std::__ndk1::less<std::__ndk1::basic_string<char, std::__ndk1::char_traits<char>, std::__ndk1::allocator<char> > >, true>, std::__ndk1::allocator<std::__ndk1::__value_type<std::__ndk1::basic_string<char, std::__ndk1::char_traits<char>, std::__ndk1::allocator<char> >, std::__ndk1::shared_ptr<geode::Hook> > > >::__find_equal<std::__ndk1::basic_string<char, std::__ndk1::char_traits<char>, std::__ndk1::allocator<char> > >(std::__ndk1::__tree_end_node<std::__ndk1::__tree_node_base<void*>*>*&, std::__ndk1::basic_string<char, std::__ndk1::char_traits<char>, std::__ndk1::allocator<char> > const&)
FUNC 17948 7c 0 std::__ndk1::unique_ptr<std::__ndk1::__tree_node<std::__ndk1::__value_type<std::__ndk1::basic_string<char, std::__ndk1::char_traits<char>, std::__ndk1::allocator<char> >, std::__ndk1::shared_ptr<geode::Hook> >, void*>, std::__ndk1::__tree_node_destructor<std::__ndk1::allocator<std::__ndk1::__tree_node<std::__ndk1::__value_type<std::__ndk1::basic_string<char, std::__ndk1::char_traits<char>, std::__ndk1::allocator<char> >, std::__ndk1::shared_ptr<geode::Hook> >, void*> > > >::~unique_ptr[abi:ne180000]()
FUNC 179c4 70 0 std::__ndk1::basic_string<char, std::__ndk1::char_traits<char>, std::__ndk1::allocator<char> >::__init_copy_ctor_external(char const*, unsigned long)
FUNC 17a34 19c 0 std::__ndk1::__tree_balance_after_insert[abi:ne180000]<std::__ndk1::__tree_node_base<void*>*>(std::__ndk1::__tree_node_base<void*>*, std::__ndk1::__tree_node_base<void*>*)
FUNC 17bd0 154 0 _ZN5geode15UnwrapExceptionC2IRPNS_4HookEQsr4implE18IsStringStreamableIT_EEENS_4impl5OkTagEOS5_
FUNC 17d24 34 0 std::__ndk1::__throw_bad_variant_access[abi:ne180000]()
FUNC 17d58 124 0 std::__ndk1::basic_stringstream<char, std::__ndk1::char_traits<char>, std::__ndk1::allocator<char> >::basic_stringstream[abi:ne180000]()
FUNC 17e7c 80 0 std::__ndk1::basic_stringstream<char, std::__ndk1::char_traits<char>, std::__ndk1::allocator<char> >::~basic_stringstream()
FUNC 17efc 24 0 geode::UnwrapException::~UnwrapException()
FUNC 17f20 198 0 std::__ndk1::__put_character_sequence[abi:ne180000]<char, std::__ndk1::char_traits<char> >(std::__ndk1::basic_ostream<char, std::__ndk1::char_traits<char> >, std::__ndk1::basic_ostream const*, unsigned long)
FUNC 180b8 1b4 0 std::__ndk1::__pad_and_output[abi:ne180000]<char, std::__ndk1::char_traits<char> >(std::__ndk1::char_traits<char>, std::__ndk1::ostreambuf_iterator const*, std::__ndk1::ostreambuf_iterator const, std::__ndk1::ostreambuf_iterator const, std::__ndk1::ios_base&, std::__ndk1::ostreambuf_iterator)
FUNC 1826c 15c 0 std::__ndk1::basic_stringbuf<char, std::__ndk1::char_traits<char>, std::__ndk1::allocator<char> >::str[abi:ne180000]() &&
FUNC 183c8 148 0 std::__ndk1::basic_stringbuf<char, std::__ndk1::char_traits<char>, std::__ndk1::allocator<char> >::__init_buf_ptrs[abi:ne180000]()
FUNC 18510 168 0 _ZN5geode15UnwrapExceptionC2IRNSt6__ndk112basic_stringIcNS2_11char_traitsIcEENS2_9allocatorIcEEEEQsr4implE18IsStringStreamableIT_EEENS_4impl6ErrTagEOSA_
FUNC 18678 4 0 std::__ndk1::__variant_detail::__visitation::__base::__dispatcher<(unsigned long)0>::__dispatch[abi:ne180000]<std::__ndk1::__variant_detail::__dtor<std::__ndk1::__variant_detail::__traits<std::__ndk1::monostate, std::__ndk1::basic_string<char, std::__ndk1::char_traits<char>, std::__ndk1::allocator<char> > >, (std::__ndk1::__variant_detail::_Trait)1>::__destroy[abi:ne180000]()::{lambda(auto:1&)#1}, std::__ndk1::__variant_detail::__base<(std::__ndk1::__variant_detail::__traits<std::__ndk1::monostate, std::__ndk1::basic_string<char, std::__ndk1::char_traits<char>, std::__ndk1::allocator<char> > >)1, std::__ndk1::__variant_detail::__traits, std::__ndk1::allocator<char> >&>(std::__ndk1::__variant_detail::__dtor<std::__ndk1::__variant_detail::__traits<std::__ndk1::monostate, std::__ndk1::basic_string<char, std::__ndk1::char_traits<char>, std::__ndk1::allocator<char> > >, (std::__ndk1::__variant_detail::_Trait)1>, std::__ndk1::__variant_detail::__base<(std::__ndk1::__variant_detail::__traits<std::__ndk1::monostate, std::__ndk1::basic_string<char, std::__ndk1::char_traits<char>, std::__ndk1::allocator<char> > >)1, std::__ndk1::__variant_detail::__traits, std::__ndk1::allocator<char> >&)
FUNC 1867c 14 0 std::__ndk1::__variant_detail::__visitation::__base::__dispatcher<(unsigned long)1>::__dispatch[abi:ne180000]<std::__ndk1::__variant_detail::__dtor<std::__ndk1::__variant_detail::__traits<std::__ndk1::monostate, std::__ndk1::basic_string<char, std::__ndk1::char_traits<char>, std::__ndk1::allocator<char> > >, (std::__ndk1::__variant_detail::_Trait)1>::__destroy[abi:ne180000]()::{lambda(auto:1&)#1}, std::__ndk1::__variant_detail::__base<(std::__ndk1::__variant_detail::__traits<std::__ndk1::monostate, std::__ndk1::basic_string<char, std::__ndk1::char_traits<char>, std::__ndk1::allocator<char> > >)1, std::__ndk1::__variant_detail::__traits, std::__ndk1::allocator<char> >&>(std::__ndk1::__variant_detail::__dtor<std::__ndk1::__variant_detail::__traits<std::__ndk1::monostate, std::__ndk1::basic_string<char, std::__ndk1::char_traits<char>, std::__ndk1::allocator<char> > >, (std::__ndk1::__variant_detail::_Trait)1>, std::__ndk1::__variant_detail::__base<(std::__ndk1::__variant_detail::__traits<std::__ndk1::monostate, std::__ndk1::basic_string<char, std::__ndk1::char_traits<char>, std::__ndk1::allocator<char> > >)1, std::__ndk1::__variant_detail::__traits, std::__ndk1::allocator<char> >&)
FUNC 18690 21c 0 std::__ndk1::vector<std::__ndk1::basic_string<char, std::__ndk1::char_traits<char>, std::__ndk1::allocator<char> >, std::__ndk1::allocator<std::__ndk1::basic_string<char, std::__ndk1::char_traits<char>, std::__ndk1::allocator<char> > > >::__push_back_slow_path<std::__ndk1::basic_string<char, std::__ndk1::char_traits<char>, std::__ndk1::allocator<char> > const&>(std::__ndk1::basic_string<char, std::__ndk1::char_traits<char>, std::__ndk1::allocator<char> > const&)
FUNC 188ac 68 0 std::__ndk1::__split_buffer<std::__ndk1::basic_string<char, std::__ndk1::char_traits<char>, std::__ndk1::allocator<char> >, std::__ndk1::allocator<std::__ndk1::basic_string<char, std::__ndk1::char_traits<char>, std::__ndk1::allocator<char> > >&>::~__split_buffer()
FUNC 18914 14 0 std::__ndk1::vector<std::__ndk1::basic_string<char, std::__ndk1::char_traits<char>, std::__ndk1::allocator<char> >, std::__ndk1::allocator<std::__ndk1::basic_string<char, std::__ndk1::char_traits<char>, std::__ndk1::allocator<char> > > >::__throw_length_error[abi:ne180000]() const
FUNC 18928 4 0 std::__ndk1::__variant_detail::__visitation::__base::__dispatcher<(unsigned long)0>::__dispatch[abi:ne180000]<std::__ndk1::__variant_detail::__dtor<std::__ndk1::__variant_detail::__traits<geode::Hook*, std::__ndk1::basic_string<char, std::__ndk1::char_traits<char>, std::__ndk1::allocator<char> > >, (std::__ndk1::__variant_detail::_Trait)1>::__destroy[abi:ne180000]()::{lambda(auto:1&)#1}, std::__ndk1::__variant_detail::__base<(std::__ndk1::__variant_detail::__traits<geode::Hook*, std::__ndk1::basic_string<char, std::__ndk1::char_traits<char>, std::__ndk1::allocator<char> > >)1, geode::Hook, std::__ndk1::allocator<char> >&>(std::__ndk1::__variant_detail::__dtor<std::__ndk1::__variant_detail::__traits<geode::Hook*, std::__ndk1::basic_string<char, std::__ndk1::char_traits<char>, std::__ndk1::allocator<char> > >, (std::__ndk1::__variant_detail::_Trait)1>, std::__ndk1::__variant_detail::__base<(std::__ndk1::__variant_detail::__traits<geode::Hook*, std::__ndk1::basic_string<char, std::__ndk1::char_traits<char>, std::__ndk1::allocator<char> > >)1, geode::Hook, std::__ndk1::allocator<char> >&)
FUNC 1892c 14 0 std::__ndk1::__variant_detail::__visitation::__base::__dispatcher<(unsigned long)1>::__dispatch[abi:ne180000]<std::__ndk1::__variant_detail::__dtor<std::__ndk1::__variant_detail::__traits<geode::Hook*, std::__ndk1::basic_string<char, std::__ndk1::char_traits<char>, std::__ndk1::allocator<char> > >, (std::__ndk1::__variant_detail::_Trait)1>::__destroy[abi:ne180000]()::{lambda(auto:1&)#1}, std::__ndk1::__variant_detail::__base<(std::__ndk1::__variant_detail::__traits<geode::Hook*, std::__ndk1::basic_string<char, std::__ndk1::char_traits<char>, std::__ndk1::allocator<char> > >)1, geode::Hook, std::__ndk1::allocator<char> >&>(std::__ndk1::__variant_detail::__dtor<std::__ndk1::__variant_detail::__traits<geode::Hook*, std::__ndk1::basic_string<char, std::__ndk1::char_traits<char>, std::__ndk1::allocator<char> > >, (std::__ndk1::__variant_detail::_Trait)1>, std::__ndk1::__variant_detail::__base<(std::__ndk1::__variant_detail::__traits<geode::Hook*, std::__ndk1::basic_string<char, std::__ndk1::char_traits<char>, std::__ndk1::allocator<char> > >)1, geode::Hook, std::__ndk1::allocator<char> >&)
FUNC 18940 d4 0 std::__ndk1::__tree<std::__ndk1::__value_type<std::__ndk1::basic_string<char, std::__ndk1::char_traits<char>, std::__ndk1::allocator<char> >, std::__ndk1::shared_ptr<geode::Hook> >, std::__ndk1::__map_value_compare<std::__ndk1::basic_string<char, std::__ndk1::char_traits<char>, std::__ndk1::allocator<char> >, std::__ndk1::__value_type<std::__ndk1::basic_string<char, std::__ndk1::char_traits<char>, std::__ndk1::allocator<char> >, std::__ndk1::shared_ptr<geode::Hook> >, std::__ndk1::less<std::__ndk1::basic_string<char, std::__ndk1::char_traits<char>, std::__ndk1::allocator<char> > >, true>, std::__ndk1::allocator<std::__ndk1::__value_type<std::__ndk1::basic_string<char, std::__ndk1::char_traits<char>, std::__ndk1::allocator<char> >, std::__ndk1::shared_ptr<geode::Hook> > > >::erase(std::__ndk1::__tree_const_iterator<std::__ndk1::__value_type<std::__ndk1::basic_string<char, std::__ndk1::char_traits<char>, std::__ndk1::allocator<char> >, std::__ndk1::shared_ptr<geode::Hook> >, std::__ndk1::__tree_node<std::__ndk1::__value_type<std::__ndk1::basic_string<char, std::__ndk1::char_traits<char>, std::__ndk1::allocator<char> >, std::__ndk1::shared_ptr<geode::Hook> >, void*>*, long>)
FUNC 18a14 388 0 std::__ndk1::__tree_remove[abi:ne180000]<std::__ndk1::__tree_node_base<void*>*>(std::__ndk1::__tree_node_base<void*>*, std::__ndk1::__tree_node_base<void*>*)
FUNC 18d9c 8c 0 std::__ndk1::__tree<std::__ndk1::__value_type<std::__ndk1::basic_string<char, std::__ndk1::char_traits<char>, std::__ndk1::allocator<char> >, std::__ndk1::shared_ptr<geode::Hook> >, std::__ndk1::__map_value_compare<std::__ndk1::basic_string<char, std::__ndk1::char_traits<char>, std::__ndk1::allocator<char> >, std::__ndk1::__value_type<std::__ndk1::basic_string<char, std::__ndk1::char_traits<char>, std::__ndk1::allocator<char> >, std::__ndk1::shared_ptr<geode::Hook> >, std::__ndk1::less<std::__ndk1::basic_string<char, std::__ndk1::char_traits<char>, std::__ndk1::allocator<char> > >, true>, std::__ndk1::allocator<std::__ndk1::__value_type<std::__ndk1::basic_string<char, std::__ndk1::char_traits<char>, std::__ndk1::allocator<char> >, std::__ndk1::shared_ptr<geode::Hook> > > >::destroy(std::__ndk1::__tree_node<std::__ndk1::__value_type<std::__ndk1::basic_string<char, std::__ndk1::char_traits<char>, std::__ndk1::allocator<char> >, std::__ndk1::shared_ptr<geode::Hook> >, void*>*)
FUNC 18e28 4 0 geode::modifier::AsStaticFunction_init<MyItemInfoPopup, bool (MyItemInfoPopup::*)(int, UnlockType)>::Impl<bool (MyItemInfoPopup::*)(int, UnlockType)>::function(MyItemInfoPopup*, int, UnlockType)
FUNC 18e2c 50 0 std::__ndk1::shared_ptr<tulip::hook::CallingConvention>::~shared_ptr[abi:ne180000]()
FUNC 18e7c 64 0 tulip::hook::HandlerMetadata::~HandlerMetadata()
FUNC 18ee0 14 0 std::__ndk1::vector<tulip::hook::AbstractType, std::__ndk1::allocator<tulip::hook::AbstractType> >::__throw_length_error[abi:ne180000]() const
FUNC 18ef4 2cf8 0 MyItemInfoPopup::init(int, UnlockType)
FUNC 1bbec 134 0 geode::Mod::getSettingValue<bool>(std::__ndk1::basic_string_view<char, std::__ndk1::char_traits<char> >) const
FUNC 1bd20 2f4 0 MyItemInfoPopup::addEquipButton(int, UnlockType)
FUNC 1c014 20 0 geode::cocos::CCArrayExt<cocos2d::CCNode*, cocos2d::CCNode>::~CCArrayExt()
FUNC 1c034 1d0 0 MyItemInfoPopup::textFromArea()
FUNC 1c204 3758 0 MyItemInfoPopup::onDetailButtonClick(cocos2d::CCObject*)
FUNC 1f95c 20 0 geode::cocos::CCArrayExt<cocos2d::CCLabelBMFont*, cocos2d::CCLabelBMFont>::~CCArrayExt()
FUNC 1f97c e4 0 geode::cast::traverseTypeinfoFor(void*, geode::cast::ClassTypeinfoType const*, char const*)
FUNC 1fa60 74 0 MyItemInfoPopup::trueIsItemUnlocked(int, UnlockType)
FUNC 1fad4 74 0 geode::impl::ResultData<matjson::Value, matjson::ParseError>::~ResultData()
FUNC 1fb48 74 0 geode::impl::ResultData<long, std::__ndk1::basic_string<char, std::__ndk1::char_traits<char>, std::__ndk1::allocator<char> > >::~ResultData()
FUNC 1fbbc 50 0 std::__ndk1::basic_ifstream<char, std::__ndk1::char_traits<char> >::~basic_ifstream()
FUNC 1fc0c 74 0 geode::impl::ResultData<std::__ndk1::basic_string<char, std::__ndk1::char_traits<char>, std::__ndk1::allocator<char> >, std::__ndk1::basic_string<char, std::__ndk1::char_traits<char>, std::__ndk1::allocator<char> > >::~ResultData()
FUNC 1fc80 574 0 MyItemInfoPopup::getWraithCodeOnline(std::__ndk1::basic_string<char, std::__ndk1::char_traits<char>, std::__ndk1::allocator<char> >)
FUNC 201f4 c4 0 std::__ndk1::__fs::filesystem::path::operator/=[abi:ne180000](std::__ndk1::__fs::filesystem::path const&)
FUNC 202b8 ac 0 std::__ndk1::basic_string<char, std::__ndk1::char_traits<char>, std::__ndk1::allocator<char> >::__assign_no_alias<true>(char const*, unsigned long)
FUNC 20364 100 0 std::__ndk1::basic_string<char, std::__ndk1::char_traits<char>, std::__ndk1::allocator<char> >::__assign_no_alias<false>(char const*, unsigned long)
FUNC 20464 2ec 0 _ZNSt6__ndk112basic_stringIcNS_11char_traitsIcEENS_9allocatorIcEEE6appendB8ne180000IPKcTnNS_9enable_ifIXsr31__has_forward_iterator_categoryIT_EE5valueEiE4typeELi0EEERS5_SA_SA_
FUNC 20750 104 0 std::__ndk1::basic_ifstream<char, std::__ndk1::char_traits<char> >::basic_ifstream(char const*, unsigned int)
FUNC 20854 8 0 std::__ndk1::__variant_detail::__visitation::__base::__dispatcher<(unsigned long)0>::__dispatch[abi:ne180000]<std::__ndk1::__variant_detail::__dtor<std::__ndk1::__variant_detail::__traits<matjson::Value, std::__ndk1::__variant_detail::__traits::ParseError>, (std::__ndk1::__variant_detail::_Trait)1>::__destroy[abi:ne180000]()::{lambda(auto:1&)#1}, std::__ndk1::__variant_detail::__base<(std::__ndk1::__variant_detail::__traits<matjson::Value, std::__ndk1::__variant_detail::__traits::ParseError>)1, matjson, matjson::Value>&>(std::__ndk1::__variant_detail::__dtor<std::__ndk1::__variant_detail::__traits<matjson::Value, std::__ndk1::__variant_detail::__traits::ParseError>, (std::__ndk1::__variant_detail::_Trait)1>, std::__ndk1::__variant_detail::__base<(std::__ndk1::__variant_detail::__traits<matjson::Value, std::__ndk1::__variant_detail::__traits::ParseError>)1, matjson, matjson::Value>&)
FUNC 2085c 14 0 std::__ndk1::__variant_detail::__visitation::__base::__dispatcher<(unsigned long)1>::__dispatch[abi:ne180000]<std::__ndk1::__variant_detail::__dtor<std::__ndk1::__variant_detail::__traits<matjson::Value, std::__ndk1::__variant_detail::__traits::ParseError>, (std::__ndk1::__variant_detail::_Trait)1>::__destroy[abi:ne180000]()::{lambda(auto:1&)#1}, std::__ndk1::__variant_detail::__base<(std::__ndk1::__variant_detail::__traits<matjson::Value, std::__ndk1::__variant_detail::__traits::ParseError>)1, matjson, matjson::Value>&>(std::__ndk1::__variant_detail::__dtor<std::__ndk1::__variant_detail::__traits<matjson::Value, std::__ndk1::__variant_detail::__traits::ParseError>, (std::__ndk1::__variant_detail::_Trait)1>, std::__ndk1::__variant_detail::__base<(std::__ndk1::__variant_detail::__traits<matjson::Value, std::__ndk1::__variant_detail::__traits::ParseError>)1, matjson, matjson::Value>&)
FUNC 20870 4 0 std::__ndk1::__variant_detail::__visitation::__base::__dispatcher<(unsigned long)0>::__dispatch[abi:ne180000]<std::__ndk1::__variant_detail::__dtor<std::__ndk1::__variant_detail::__traits<long, std::__ndk1::basic_string<char, std::__ndk1::char_traits<char>, std::__ndk1::allocator<char> > >, (std::__ndk1::__variant_detail::_Trait)1>::__destroy[abi:ne180000]()::{lambda(auto:1&)#1}, std::__ndk1::__variant_detail::__base<(std::__ndk1::__variant_detail::__traits<long, std::__ndk1::basic_string<char, std::__ndk1::char_traits<char>, std::__ndk1::allocator<char> > >)1, long, std::__ndk1::allocator<char> >&>(std::__ndk1::__variant_detail::__dtor<std::__ndk1::__variant_detail::__traits<long, std::__ndk1::basic_string<char, std::__ndk1::char_traits<char>, std::__ndk1::allocator<char> > >, (std::__ndk1::__variant_detail::_Trait)1>, std::__ndk1::__variant_detail::__base<(std::__ndk1::__variant_detail::__traits<long, std::__ndk1::basic_string<char, std::__ndk1::char_traits<char>, std::__ndk1::allocator<char> > >)1, long, std::__ndk1::allocator<char> >&)
FUNC 20874 14 0 std::__ndk1::__variant_detail::__visitation::__base::__dispatcher<(unsigned long)1>::__dispatch[abi:ne180000]<std::__ndk1::__variant_detail::__dtor<std::__ndk1::__variant_detail::__traits<long, std::__ndk1::basic_string<char, std::__ndk1::char_traits<char>, std::__ndk1::allocator<char> > >, (std::__ndk1::__variant_detail::_Trait)1>::__destroy[abi:ne180000]()::{lambda(auto:1&)#1}, std::__ndk1::__variant_detail::__base<(std::__ndk1::__variant_detail::__traits<long, std::__ndk1::basic_string<char, std::__ndk1::char_traits<char>, std::__ndk1::allocator<char> > >)1, long, std::__ndk1::allocator<char> >&>(std::__ndk1::__variant_detail::__dtor<std::__ndk1::__variant_detail::__traits<long, std::__ndk1::basic_string<char, std::__ndk1::char_traits<char>, std::__ndk1::allocator<char> > >, (std::__ndk1::__variant_detail::_Trait)1>, std::__ndk1::__variant_detail::__base<(std::__ndk1::__variant_detail::__traits<long, std::__ndk1::basic_string<char, std::__ndk1::char_traits<char>, std::__ndk1::allocator<char> > >)1, long, std::__ndk1::allocator<char> >&)
FUNC 20888 8 0 cocos2d::CCCopying::copyWithZone(cocos2d::CCZone*)
FUNC 20890 24 0 BetterUnlockInfo_Params::~BetterUnlockInfo_Params()
FUNC 208b4 4 0 cocos2d::CCObject::update(float)
FUNC 208b8 14 0 std::__ndk1::basic_string<char, std::__ndk1::char_traits<char>, std::__ndk1::allocator<char> >::__throw_out_of_range[abi:ne180000]() const
FUNC 208cc 50 0 std::__ndk1::__throw_out_of_range[abi:ne180000](char const*)
FUNC 2091c 30 0 std::out_of_range::out_of_range[abi:ne180000](char const*)
FUNC 2094c 14 0 std::__ndk1::__variant_detail::__visitation::__base::__dispatcher<(unsigned long)0>::__dispatch[abi:ne180000]<std::__ndk1::__variant_detail::__dtor<std::__ndk1::__variant_detail::__traits<std::__ndk1::basic_string<char, std::__ndk1::char_traits<char>, std::__ndk1::allocator<char> >, std::__ndk1::allocator<char> >, (std::__ndk1::__variant_detail::_Trait)1>::__destroy[abi:ne180000]()::{lambda(auto:1&)#1}, std::__ndk1::__variant_detail::__base<(std::__ndk1::__variant_detail::__traits<std::__ndk1::basic_string<char, std::__ndk1::char_traits<char>, std::__ndk1::allocator<char> >, std::__ndk1::allocator<char> >)1, std::__ndk1::allocator<char>, std::__ndk1::allocator<char> >&>(std::__ndk1::__variant_detail::__dtor<std::__ndk1::__variant_detail::__traits<std::__ndk1::basic_string<char, std::__ndk1::char_traits<char>, std::__ndk1::allocator<char> >, std::__ndk1::allocator<char> >, (std::__ndk1::__variant_detail::_Trait)1>, std::__ndk1::__variant_detail::__base<(std::__ndk1::__variant_detail::__traits<std::__ndk1::basic_string<char, std::__ndk1::char_traits<char>, std::__ndk1::allocator<char> >, std::__ndk1::allocator<char> >)1, std::__ndk1::allocator<char>, std::__ndk1::allocator<char> >&)
FUNC 20960 14 0 std::__ndk1::__variant_detail::__visitation::__base::__dispatcher<(unsigned long)1>::__dispatch[abi:ne180000]<std::__ndk1::__variant_detail::__dtor<std::__ndk1::__variant_detail::__traits<std::__ndk1::basic_string<char, std::__ndk1::char_traits<char>, std::__ndk1::allocator<char> >, std::__ndk1::allocator<char> >, (std::__ndk1::__variant_detail::_Trait)1>::__destroy[abi:ne180000]()::{lambda(auto:1&)#1}, std::__ndk1::__variant_detail::__base<(std::__ndk1::__variant_detail::__traits<std::__ndk1::basic_string<char, std::__ndk1::char_traits<char>, std::__ndk1::allocator<char> >, std::__ndk1::allocator<char> >)1, std::__ndk1::allocator<char>, std::__ndk1::allocator<char> >&>(std::__ndk1::__variant_detail::__dtor<std::__ndk1::__variant_detail::__traits<std::__ndk1::basic_string<char, std::__ndk1::char_traits<char>, std::__ndk1::allocator<char> >, std::__ndk1::allocator<char> >, (std::__ndk1::__variant_detail::_Trait)1>, std::__ndk1::__variant_detail::__base<(std::__ndk1::__variant_detail::__traits<std::__ndk1::basic_string<char, std::__ndk1::char_traits<char>, std::__ndk1::allocator<char> >, std::__ndk1::allocator<char> >)1, std::__ndk1::allocator<char>, std::__ndk1::allocator<char> >&)
FUNC 20974 50 0 geode::Task<geode::utils::web::WebResponse, geode::utils::web::WebProgress>::~Task()
FUNC 209c4 4 0 geode::EventListener<geode::Task<geode::utils::web::WebResponse, geode::utils::web::WebProgress> >::getPool() const
FUNC 209c8 1ac 0 geode::EventListener<geode::Task<geode::utils::web::WebResponse, geode::utils::web::WebProgress> >::handle(geode::Event*)
FUNC 20b74 8c 0 geode::EventListener<geode::Task<geode::utils::web::WebResponse, geode::utils::web::WebProgress> >::~EventListener()
FUNC 20c00 94 0 geode::EventListener<geode::Task<geode::utils::web::WebResponse, geode::utils::web::WebProgress> >::~EventListener()
FUNC 20c94 50 0 geode::Task<geode::utils::web::WebResponse, geode::utils::web::WebProgress>::setListener(geode::EventListenerProtocol*)::{lambda()#1}::~{lambda()#1}()
FUNC 20ce4 50 0 geode::Task<geode::utils::web::WebResponse, geode::utils::web::WebProgress>::setListener(geode::EventListenerProtocol*)::{lambda()#2}::~{lambda()#2}()
FUNC 20d34 5c 0 std::__ndk1::__function::__func<geode::Task<geode::utils::web::WebResponse, geode::utils::web::WebProgress>::setListener(geode::EventListenerProtocol*)::{lambda()#1}, std::__ndk1::allocator<geode::Task<geode::utils::web::WebResponse, geode::utils::web::WebProgress>::setListener(geode::EventListenerProtocol*)::{lambda()#1}>, void ()>::~__func()
FUNC 20d90 5c 0 std::__ndk1::__function::__func<geode::Task<geode::utils::web::WebResponse, geode::utils::web::WebProgress>::setListener(geode::EventListenerProtocol*)::{lambda()#1}, std::__ndk1::allocator<geode::Task<geode::utils::web::WebResponse, geode::utils::web::WebProgress>::setListener(geode::EventListenerProtocol*)::{lambda()#1}>, void ()>::~__func()
FUNC 20dec 58 0 std::__ndk1::__function::__func<geode::Task<geode::utils::web::WebResponse, geode::utils::web::WebProgress>::setListener(geode::EventListenerProtocol*)::{lambda()#1}, std::__ndk1::allocator<geode::Task<geode::utils::web::WebResponse, geode::utils::web::WebProgress>::setListener(geode::EventListenerProtocol*)::{lambda()#1}>, void ()>::__clone() const
FUNC 20e44 4c 0 std::__ndk1::__function::__func<geode::Task<geode::utils::web::WebResponse, geode::utils::web::WebProgress>::setListener(geode::EventListenerProtocol*)::{lambda()#1}, std::__ndk1::allocator<geode::Task<geode::utils::web::WebResponse, geode::utils::web::WebProgress>::setListener(geode::EventListenerProtocol*)::{lambda()#1}>, void ()>::__clone(std::__ndk1::__function::__base<void ()>*) const
FUNC 20e90 50 0 std::__ndk1::__function::__func<geode::Task<geode::utils::web::WebResponse, geode::utils::web::WebProgress>::setListener(geode::EventListenerProtocol*)::{lambda()#1}, std::__ndk1::allocator<geode::Task<geode::utils::web::WebResponse, geode::utils::web::WebProgress>::setListener(geode::EventListenerProtocol*)::{lambda()#1}>, void ()>::destroy()
FUNC 20ee0 50 0 std::__ndk1::__function::__func<geode::Task<geode::utils::web::WebResponse, geode::utils::web::WebProgress>::setListener(geode::EventListenerProtocol*)::{lambda()#1}, std::__ndk1::allocator<geode::Task<geode::utils::web::WebResponse, geode::utils::web::WebProgress>::setListener(geode::EventListenerProtocol*)::{lambda()#1}>, void ()>::destroy_deallocate()
FUNC 20f30 198 0 std::__ndk1::__function::__func<geode::Task<geode::utils::web::WebResponse, geode::utils::web::WebProgress>::setListener(geode::EventListenerProtocol*)::{lambda()#1}, std::__ndk1::allocator<geode::Task<geode::utils::web::WebResponse, geode::utils::web::WebProgress>::setListener(geode::EventListenerProtocol*)::{lambda()#1}>, void ()>::operator()()
FUNC 210c8 1c 0 std::__ndk1::__function::__func<geode::Task<geode::utils::web::WebResponse, geode::utils::web::WebProgress>::setListener(geode::EventListenerProtocol*)::{lambda()#1}, std::__ndk1::allocator<geode::Task<geode::utils::web::WebResponse, geode::utils::web::WebProgress>::setListener(geode::EventListenerProtocol*)::{lambda()#1}>, void ()>::target(std::type_info const&) const
FUNC 210e4 c 0 std::__ndk1::__function::__func<geode::Task<geode::utils::web::WebResponse, geode::utils::web::WebProgress>::setListener(geode::EventListenerProtocol*)::{lambda()#1}, std::__ndk1::allocator<geode::Task<geode::utils::web::WebResponse, geode::utils::web::WebProgress>::setListener(geode::EventListenerProtocol*)::{lambda()#1}>, void ()>::target_type() const
FUNC 210f0 50 0 geode::Task<geode::utils::web::WebResponse, geode::utils::web::WebProgress>::Event::~Event()
FUNC 21140 58 0 geode::Task<geode::utils::web::WebResponse, geode::utils::web::WebProgress>::Event::~Event()
FUNC 21198 5c 0 std::__ndk1::__function::__func<geode::Task<geode::utils::web::WebResponse, geode::utils::web::WebProgress>::setListener(geode::EventListenerProtocol*)::{lambda()#2}, std::__ndk1::allocator<geode::Task<geode::utils::web::WebResponse, geode::utils::web::WebProgress>::setListener(geode::EventListenerProtocol*)::{lambda()#2}>, void ()>::~__func()
FUNC 211f4 5c 0 std::__ndk1::__function::__func<geode::Task<geode::utils::web::WebResponse, geode::utils::web::WebProgress>::setListener(geode::EventListenerProtocol*)::{lambda()#2}, std::__ndk1::allocator<geode::Task<geode::utils::web::WebResponse, geode::utils::web::WebProgress>::setListener(geode::EventListenerProtocol*)::{lambda()#2}>, void ()>::~__func()
FUNC 21250 58 0 std::__ndk1::__function::__func<geode::Task<geode::utils::web::WebResponse, geode::utils::web::WebProgress>::setListener(geode::EventListenerProtocol*)::{lambda()#2}, std::__ndk1::allocator<geode::Task<geode::utils::web::WebResponse, geode::utils::web::WebProgress>::setListener(geode::EventListenerProtocol*)::{lambda()#2}>, void ()>::__clone() const
FUNC 212a8 4c 0 std::__ndk1::__function::__func<geode::Task<geode::utils::web::WebResponse, geode::utils::web::WebProgress>::setListener(geode::EventListenerProtocol*)::{lambda()#2}, std::__ndk1::allocator<geode::Task<geode::utils::web::WebResponse, geode::utils::web::WebProgress>::setListener(geode::EventListenerProtocol*)::{lambda()#2}>, void ()>::__clone(std::__ndk1::__function::__base<void ()>*) const
FUNC 212f4 50 0 std::__ndk1::__function::__func<geode::Task<geode::utils::web::WebResponse, geode::utils::web::WebProgress>::setListener(geode::EventListenerProtocol*)::{lambda()#2}, std::__ndk1::allocator<geode::Task<geode::utils::web::WebResponse, geode::utils::web::WebProgress>::setListener(geode::EventListenerProtocol*)::{lambda()#2}>, void ()>::destroy()
FUNC 21344 50 0 std::__ndk1::__function::__func<geode::Task<geode::utils::web::WebResponse, geode::utils::web::WebProgress>::setListener(geode::EventListenerProtocol*)::{lambda()#2}, std::__ndk1::allocator<geode::Task<geode::utils::web::WebResponse, geode::utils::web::WebProgress>::setListener(geode::EventListenerProtocol*)::{lambda()#2}>, void ()>::destroy_deallocate()
FUNC 21394 188 0 std::__ndk1::__function::__func<geode::Task<geode::utils::web::WebResponse, geode::utils::web::WebProgress>::setListener(geode::EventListenerProtocol*)::{lambda()#2}, std::__ndk1::allocator<geode::Task<geode::utils::web::WebResponse, geode::utils::web::WebProgress>::setListener(geode::EventListenerProtocol*)::{lambda()#2}>, void ()>::operator()()
FUNC 2151c 1c 0 std::__ndk1::__function::__func<geode::Task<geode::utils::web::WebResponse, geode::utils::web::WebProgress>::setListener(geode::EventListenerProtocol*)::{lambda()#2}, std::__ndk1::allocator<geode::Task<geode::utils::web::WebResponse, geode::utils::web::WebProgress>::setListener(geode::EventListenerProtocol*)::{lambda()#2}>, void ()>::target(std::type_info const&) const
FUNC 21538 c 0 std::__ndk1::__function::__func<geode::Task<geode::utils::web::WebResponse, geode::utils::web::WebProgress>::setListener(geode::EventListenerProtocol*)::{lambda()#2}, std::__ndk1::allocator<geode::Task<geode::utils::web::WebResponse, geode::utils::web::WebProgress>::setListener(geode::EventListenerProtocol*)::{lambda()#2}>, void ()>::target_type() const
FUNC 21544 34 0 std::__ndk1::__throw_bad_function_call[abi:ne180000]()
FUNC 21578 24 0 std::__ndk1::bad_function_call::~bad_function_call()
FUNC 2159c 20 0 std::__ndk1::__function::__func<geode::Task<geode::utils::web::WebResponse, geode::utils::web::WebProgress>::listen<MyItemInfoPopup::getWraithCodeOnline(std::__ndk1::basic_string<char, std::__ndk1::char_traits<char>, std::__ndk1::allocator<char> >)::{lambda(geode::utils::web::WebResponse*)#1}, MyItemInfoPopup::getWraithCodeOnline(std::__ndk1::basic_string<char, std::__ndk1::char_traits<char>, std::__ndk1::allocator<char> >)::{lambda(auto:1)#1}, MyItemInfoPopup::getWraithCodeOnline(std::__ndk1::basic_string<char, std::__ndk1::char_traits<char>, std::__ndk1::allocator<char> >)::{lambda()#1}>(MyItemInfoPopup::getWraithCodeOnline(std::__ndk1::basic_string<char, std::__ndk1::char_traits<char>, std::__ndk1::allocator<char> >)::{lambda(geode::utils::web::WebResponse*)#1}&&, MyItemInfoPopup::getWraithCodeOnline(std::__ndk1::basic_string<char, std::__ndk1::char_traits<char>, std::__ndk1::allocator<char> >)::{lambda(auto:1)#1}&&, MyItemInfoPopup::getWraithCodeOnline(std::__ndk1::basic_string<char, std::__ndk1::char_traits<char>, std::__ndk1::allocator<char> >)::{lambda()#1}&&) const::{lambda(geode::Task<geode::utils::web::WebResponse, geode::utils::web::WebProgress>::Event*)#1}, std::__ndk1::allocator<geode::Task<geode::utils::web::WebResponse, geode::utils::web::WebProgress>::listen<MyItemInfoPopup::getWraithCodeOnline(std::__ndk1::basic_string<char, std::__ndk1::char_traits<char>, std::__ndk1::allocator<char> >)::{lambda(geode::utils::web::WebResponse*)#1}, MyItemInfoPopup::getWraithCodeOnline(std::__ndk1::basic_string<char, std::__ndk1::char_traits<char>, std::__ndk1::allocator<char> >)::{lambda(auto:1)#1}, MyItemInfoPopup::getWraithCodeOnline(std::__ndk1::basic_string<char, std::__ndk1::char_traits<char>, std::__ndk1::allocator<char> >)::{lambda()#1}>(MyItemInfoPopup::getWraithCodeOnline(std::__ndk1::basic_string<char, std::__ndk1::char_traits<char>, std::__ndk1::allocator<char> >)::{lambda(geode::utils::web::WebResponse*)#1}&&, MyItemInfoPopup::getWraithCodeOnline(std::__ndk1::basic_string<char, std::__ndk1::char_traits<char>, std::__ndk1::allocator<char> >)::{lambda(auto:1)#1}&&, MyItemInfoPopup::getWraithCodeOnline(std::__ndk1::basic_string<char, std::__ndk1::char_traits<char>, std::__ndk1::allocator<char> >)::{lambda()#1}&&) const::{lambda(geode::Task<geode::utils::web::WebResponse, geode::utils::web::WebProgress>::Event*)#1}>, void (geode::Task<geode::utils::web::WebResponse, geode::utils::web::WebProgress>::Event*)>::~__func()
FUNC 215bc 40 0 std::__ndk1::__function::__func<geode::Task<geode::utils::web::WebResponse, geode::utils::web::WebProgress>::listen<MyItemInfoPopup::getWraithCodeOnline(std::__ndk1::basic_string<char, std::__ndk1::char_traits<char>, std::__ndk1::allocator<char> >)::{lambda(geode::utils::web::WebResponse*)#1}, MyItemInfoPopup::getWraithCodeOnline(std::__ndk1::basic_string<char, std::__ndk1::char_traits<char>, std::__ndk1::allocator<char> >)::{lambda(auto:1)#1}, MyItemInfoPopup::getWraithCodeOnline(std::__ndk1::basic_string<char, std::__ndk1::char_traits<char>, std::__ndk1::allocator<char> >)::{lambda()#1}>(MyItemInfoPopup::getWraithCodeOnline(std::__ndk1::basic_string<char, std::__ndk1::char_traits<char>, std::__ndk1::allocator<char> >)::{lambda(geode::utils::web::WebResponse*)#1}&&, MyItemInfoPopup::getWraithCodeOnline(std::__ndk1::basic_string<char, std::__ndk1::char_traits<char>, std::__ndk1::allocator<char> >)::{lambda(auto:1)#1}&&, MyItemInfoPopup::getWraithCodeOnline(std::__ndk1::basic_string<char, std::__ndk1::char_traits<char>, std::__ndk1::allocator<char> >)::{lambda()#1}&&) const::{lambda(geode::Task<geode::utils::web::WebResponse, geode::utils::web::WebProgress>::Event*)#1}, std::__ndk1::allocator<geode::Task<geode::utils::web::WebResponse, geode::utils::web::WebProgress>::listen<MyItemInfoPopup::getWraithCodeOnline(std::__ndk1::basic_string<char, std::__ndk1::char_traits<char>, std::__ndk1::allocator<char> >)::{lambda(geode::utils::web::WebResponse*)#1}, MyItemInfoPopup::getWraithCodeOnline(std::__ndk1::basic_string<char, std::__ndk1::char_traits<char>, std::__ndk1::allocator<char> >)::{lambda(auto:1)#1}, MyItemInfoPopup::getWraithCodeOnline(std::__ndk1::basic_string<char, std::__ndk1::char_traits<char>, std::__ndk1::allocator<char> >)::{lambda()#1}>(MyItemInfoPopup::getWraithCodeOnline(std::__ndk1::basic_string<char, std::__ndk1::char_traits<char>, std::__ndk1::allocator<char> >)::{lambda(geode::utils::web::WebResponse*)#1}&&, MyItemInfoPopup::getWraithCodeOnline(std::__ndk1::basic_string<char, std::__ndk1::char_traits<char>, std::__ndk1::allocator<char> >)::{lambda(auto:1)#1}&&, MyItemInfoPopup::getWraithCodeOnline(std::__ndk1::basic_string<char, std::__ndk1::char_traits<char>, std::__ndk1::allocator<char> >)::{lambda()#1}&&) const::{lambda(geode::Task<geode::utils::web::WebResponse, geode::utils::web::WebProgress>::Event*)#1}>, void (geode::Task<geode::utils::web::WebResponse, geode::utils::web::WebProgress>::Event*)>::~__func()
FUNC 215fc 7c 0 std::__ndk1::__function::__func<geode::Task<geode::utils::web::WebResponse, geode::utils::web::WebProgress>::listen<MyItemInfoPopup::getWraithCodeOnline(std::__ndk1::basic_string<char, std::__ndk1::char_traits<char>, std::__ndk1::allocator<char> >)::{lambda(geode::utils::web::WebResponse*)#1}, MyItemInfoPopup::getWraithCodeOnline(std::__ndk1::basic_string<char, std::__ndk1::char_traits<char>, std::__ndk1::allocator<char> >)::{lambda(auto:1)#1}, MyItemInfoPopup::getWraithCodeOnline(std::__ndk1::basic_string<char, std::__ndk1::char_traits<char>, std::__ndk1::allocator<char> >)::{lambda()#1}>(MyItemInfoPopup::getWraithCodeOnline(std::__ndk1::basic_string<char, std::__ndk1::char_traits<char>, std::__ndk1::allocator<char> >)::{lambda(geode::utils::web::WebResponse*)#1}&&, MyItemInfoPopup::getWraithCodeOnline(std::__ndk1::basic_string<char, std::__ndk1::char_traits<char>, std::__ndk1::allocator<char> >)::{lambda(auto:1)#1}&&, MyItemInfoPopup::getWraithCodeOnline(std::__ndk1::basic_string<char, std::__ndk1::char_traits<char>, std::__ndk1::allocator<char> >)::{lambda()#1}&&) const::{lambda(geode::Task<geode::utils::web::WebResponse, geode::utils::web::WebProgress>::Event*)#1}, std::__ndk1::allocator<geode::Task<geode::utils::web::WebResponse, geode::utils::web::WebProgress>::listen<MyItemInfoPopup::getWraithCodeOnline(std::__ndk1::basic_string<char, std::__ndk1::char_traits<char>, std::__ndk1::allocator<char> >)::{lambda(geode::utils::web::WebResponse*)#1}, MyItemInfoPopup::getWraithCodeOnline(std::__ndk1::basic_string<char, std::__ndk1::char_traits<char>, std::__ndk1::allocator<char> >)::{lambda(auto:1)#1}, MyItemInfoPopup::getWraithCodeOnline(std::__ndk1::basic_string<char, std::__ndk1::char_traits<char>, std::__ndk1::allocator<char> >)::{lambda()#1}>(MyItemInfoPopup::getWraithCodeOnline(std::__ndk1::basic_string<char, std::__ndk1::char_traits<char>, std::__ndk1::allocator<char> >)::{lambda(geode::utils::web::WebResponse*)#1}&&, MyItemInfoPopup::getWraithCodeOnline(std::__ndk1::basic_string<char, std::__ndk1::char_traits<char>, std::__ndk1::allocator<char> >)::{lambda(auto:1)#1}&&, MyItemInfoPopup::getWraithCodeOnline(std::__ndk1::basic_string<char, std::__ndk1::char_traits<char>, std::__ndk1::allocator<char> >)::{lambda()#1}&&) const::{lambda(geode::Task<geode::utils::web::WebResponse, geode::utils::web::WebProgress>::Event*)#1}>, void (geode::Task<geode::utils::web::WebResponse, geode::utils::web::WebProgress>::Event*)>::__clone() const
FUNC 21678 60 0 std::__ndk1::__function::__func<geode::Task<geode::utils::web::WebResponse, geode::utils::web::WebProgress>::listen<MyItemInfoPopup::getWraithCodeOnline(std::__ndk1::basic_string<char, std::__ndk1::char_traits<char>, std::__ndk1::allocator<char> >)::{lambda(geode::utils::web::WebResponse*)#1}, MyItemInfoPopup::getWraithCodeOnline(std::__ndk1::basic_string<char, std::__ndk1::char_traits<char>, std::__ndk1::allocator<char> >)::{lambda(auto:1)#1}, MyItemInfoPopup::getWraithCodeOnline(std::__ndk1::basic_string<char, std::__ndk1::char_traits<char>, std::__ndk1::allocator<char> >)::{lambda()#1}>(MyItemInfoPopup::getWraithCodeOnline(std::__ndk1::basic_string<char, std::__ndk1::char_traits<char>, std::__ndk1::allocator<char> >)::{lambda(geode::utils::web::WebResponse*)#1}&&, MyItemInfoPopup::getWraithCodeOnline(std::__ndk1::basic_string<char, std::__ndk1::char_traits<char>, std::__ndk1::allocator<char> >)::{lambda(auto:1)#1}&&, MyItemInfoPopup::getWraithCodeOnline(std::__ndk1::basic_string<char, std::__ndk1::char_traits<char>, std::__ndk1::allocator<char> >)::{lambda()#1}&&) const::{lambda(geode::Task<geode::utils::web::WebResponse, geode::utils::web::WebProgress>::Event*)#1}, std::__ndk1::allocator<geode::Task<geode::utils::web::WebResponse, geode::utils::web::WebProgress>::listen<MyItemInfoPopup::getWraithCodeOnline(std::__ndk1::basic_string<char, std::__ndk1::char_traits<char>, std::__ndk1::allocator<char> >)::{lambda(geode::utils::web::WebResponse*)#1}, MyItemInfoPopup::getWraithCodeOnline(std::__ndk1::basic_string<char, std::__ndk1::char_traits<char>, std::__ndk1::allocator<char> >)::{lambda(auto:1)#1}, MyItemInfoPopup::getWraithCodeOnline(std::__ndk1::basic_string<char, std::__ndk1::char_traits<char>, std::__ndk1::allocator<char> >)::{lambda()#1}>(MyItemInfoPopup::getWraithCodeOnline(std::__ndk1::basic_string<char, std::__ndk1::char_traits<char>, std::__ndk1::allocator<char> >)::{lambda(geode::utils::web::WebResponse*)#1}&&, MyItemInfoPopup::getWraithCodeOnline(std::__ndk1::basic_string<char, std::__ndk1::char_traits<char>, std::__ndk1::allocator<char> >)::{lambda(auto:1)#1}&&, MyItemInfoPopup::getWraithCodeOnline(std::__ndk1::basic_string<char, std::__ndk1::char_traits<char>, std::__ndk1::allocator<char> >)::{lambda()#1}&&) const::{lambda(geode::Task<geode::utils::web::WebResponse, geode::utils::web::WebProgress>::Event*)#1}>, void (geode::Task<geode::utils::web::WebResponse, geode::utils::web::WebProgress>::Event*)>::__clone(std::__ndk1::__function::__base<void (geode::Task<geode::utils::web::WebResponse, geode::utils::web::WebProgress>::Event*)>*) const
FUNC 216d8 14 0 std::__ndk1::__function::__func<geode::Task<geode::utils::web::WebResponse, geode::utils::web::WebProgress>::listen<MyItemInfoPopup::getWraithCodeOnline(std::__ndk1::basic_string<char, std::__ndk1::char_traits<char>, std::__ndk1::allocator<char> >)::{lambda(geode::utils::web::WebResponse*)#1}, MyItemInfoPopup::getWraithCodeOnline(std::__ndk1::basic_string<char, std::__ndk1::char_traits<char>, std::__ndk1::allocator<char> >)::{lambda(auto:1)#1}, MyItemInfoPopup::getWraithCodeOnline(std::__ndk1::basic_string<char, std::__ndk1::char_traits<char>, std::__ndk1::allocator<char> >)::{lambda()#1}>(MyItemInfoPopup::getWraithCodeOnline(std::__ndk1::basic_string<char, std::__ndk1::char_traits<char>, std::__ndk1::allocator<char> >)::{lambda(geode::utils::web::WebResponse*)#1}&&, MyItemInfoPopup::getWraithCodeOnline(std::__ndk1::basic_string<char, std::__ndk1::char_traits<char>, std::__ndk1::allocator<char> >)::{lambda(auto:1)#1}&&, MyItemInfoPopup::getWraithCodeOnline(std::__ndk1::basic_string<char, std::__ndk1::char_traits<char>, std::__ndk1::allocator<char> >)::{lambda()#1}&&) const::{lambda(geode::Task<geode::utils::web::WebResponse, geode::utils::web::WebProgress>::Event*)#1}, std::__ndk1::allocator<geode::Task<geode::utils::web::WebResponse, geode::utils::web::WebProgress>::listen<MyItemInfoPopup::getWraithCodeOnline(std::__ndk1::basic_string<char, std::__ndk1::char_traits<char>, std::__ndk1::allocator<char> >)::{lambda(geode::utils::web::WebResponse*)#1}, MyItemInfoPopup::getWraithCodeOnline(std::__ndk1::basic_string<char, std::__ndk1::char_traits<char>, std::__ndk1::allocator<char> >)::{lambda(auto:1)#1}, MyItemInfoPopup::getWraithCodeOnline(std::__ndk1::basic_string<char, std::__ndk1::char_traits<char>, std::__ndk1::allocator<char> >)::{lambda()#1}>(MyItemInfoPopup::getWraithCodeOnline(std::__ndk1::basic_string<char, std::__ndk1::char_traits<char>, std::__ndk1::allocator<char> >)::{lambda(geode::utils::web::WebResponse*)#1}&&, MyItemInfoPopup::getWraithCodeOnline(std::__ndk1::basic_string<char, std::__ndk1::char_traits<char>, std::__ndk1::allocator<char> >)::{lambda(auto:1)#1}&&, MyItemInfoPopup::getWraithCodeOnline(std::__ndk1::basic_string<char, std::__ndk1::char_traits<char>, std::__ndk1::allocator<char> >)::{lambda()#1}&&) const::{lambda(geode::Task<geode::utils::web::WebResponse, geode::utils::web::WebProgress>::Event*)#1}>, void (geode::Task<geode::utils::web::WebResponse, geode::utils::web::WebProgress>::Event*)>::destroy()
FUNC 216ec 34 0 std::__ndk1::__function::__func<geode::Task<geode::utils::web::WebResponse, geode::utils::web::WebProgress>::listen<MyItemInfoPopup::getWraithCodeOnline(std::__ndk1::basic_string<char, std::__ndk1::char_traits<char>, std::__ndk1::allocator<char> >)::{lambda(geode::utils::web::WebResponse*)#1}, MyItemInfoPopup::getWraithCodeOnline(std::__ndk1::basic_string<char, std::__ndk1::char_traits<char>, std::__ndk1::allocator<char> >)::{lambda(auto:1)#1}, MyItemInfoPopup::getWraithCodeOnline(std::__ndk1::basic_string<char, std::__ndk1::char_traits<char>, std::__ndk1::allocator<char> >)::{lambda()#1}>(MyItemInfoPopup::getWraithCodeOnline(std::__ndk1::basic_string<char, std::__ndk1::char_traits<char>, std::__ndk1::allocator<char> >)::{lambda(geode::utils::web::WebResponse*)#1}&&, MyItemInfoPopup::getWraithCodeOnline(std::__ndk1::basic_string<char, std::__ndk1::char_traits<char>, std::__ndk1::allocator<char> >)::{lambda(auto:1)#1}&&, MyItemInfoPopup::getWraithCodeOnline(std::__ndk1::basic_string<char, std::__ndk1::char_traits<char>, std::__ndk1::allocator<char> >)::{lambda()#1}&&) const::{lambda(geode::Task<geode::utils::web::WebResponse, geode::utils::web::WebProgress>::Event*)#1}, std::__ndk1::allocator<geode::Task<geode::utils::web::WebResponse, geode::utils::web::WebProgress>::listen<MyItemInfoPopup::getWraithCodeOnline(std::__ndk1::basic_string<char, std::__ndk1::char_traits<char>, std::__ndk1::allocator<char> >)::{lambda(geode::utils::web::WebResponse*)#1}, MyItemInfoPopup::getWraithCodeOnline(std::__ndk1::basic_string<char, std::__ndk1::char_traits<char>, std::__ndk1::allocator<char> >)::{lambda(auto:1)#1}, MyItemInfoPopup::getWraithCodeOnline(std::__ndk1::basic_string<char, std::__ndk1::char_traits<char>, std::__ndk1::allocator<char> >)::{lambda()#1}>(MyItemInfoPopup::getWraithCodeOnline(std::__ndk1::basic_string<char, std::__ndk1::char_traits<char>, std::__ndk1::allocator<char> >)::{lambda(geode::utils::web::WebResponse*)#1}&&, MyItemInfoPopup::getWraithCodeOnline(std::__ndk1::basic_string<char, std::__ndk1::char_traits<char>, std::__ndk1::allocator<char> >)::{lambda(auto:1)#1}&&, MyItemInfoPopup::getWraithCodeOnline(std::__ndk1::basic_string<char, std::__ndk1::char_traits<char>, std::__ndk1::allocator<char> >)::{lambda()#1}&&) const::{lambda(geode::Task<geode::utils::web::WebResponse, geode::utils::web::WebProgress>::Event*)#1}>, void (geode::Task<geode::utils::web::WebResponse, geode::utils::web::WebProgress>::Event*)>::destroy_deallocate()
FUNC 21720 48c 0 std::__ndk1::__function::__func<geode::Task<geode::utils::web::WebResponse, geode::utils::web::WebProgress>::listen<MyItemInfoPopup::getWraithCodeOnline(std::__ndk1::basic_string<char, std::__ndk1::char_traits<char>, std::__ndk1::allocator<char> >)::{lambda(geode::utils::web::WebResponse*)#1}, MyItemInfoPopup::getWraithCodeOnline(std::__ndk1::basic_string<char, std::__ndk1::char_traits<char>, std::__ndk1::allocator<char> >)::{lambda(auto:1)#1}, MyItemInfoPopup::getWraithCodeOnline(std::__ndk1::basic_string<char, std::__ndk1::char_traits<char>, std::__ndk1::allocator<char> >)::{lambda()#1}>(MyItemInfoPopup::getWraithCodeOnline(std::__ndk1::basic_string<char, std::__ndk1::char_traits<char>, std::__ndk1::allocator<char> >)::{lambda(geode::utils::web::WebResponse*)#1}&&, MyItemInfoPopup::getWraithCodeOnline(std::__ndk1::basic_string<char, std::__ndk1::char_traits<char>, std::__ndk1::allocator<char> >)::{lambda(auto:1)#1}&&, MyItemInfoPopup::getWraithCodeOnline(std::__ndk1::basic_string<char, std::__ndk1::char_traits<char>, std::__ndk1::allocator<char> >)::{lambda()#1}&&) const::{lambda(geode::Task<geode::utils::web::WebResponse, geode::utils::web::WebProgress>::Event*)#1}, std::__ndk1::allocator<geode::Task<geode::utils::web::WebResponse, geode::utils::web::WebProgress>::listen<MyItemInfoPopup::getWraithCodeOnline(std::__ndk1::basic_string<char, std::__ndk1::char_traits<char>, std::__ndk1::allocator<char> >)::{lambda(geode::utils::web::WebResponse*)#1}, MyItemInfoPopup::getWraithCodeOnline(std::__ndk1::basic_string<char, std::__ndk1::char_traits<char>, std::__ndk1::allocator<char> >)::{lambda(auto:1)#1}, MyItemInfoPopup::getWraithCodeOnline(std::__ndk1::basic_string<char, std::__ndk1::char_traits<char>, std::__ndk1::allocator<char> >)::{lambda()#1}>(MyItemInfoPopup::getWraithCodeOnline(std::__ndk1::basic_string<char, std::__ndk1::char_traits<char>, std::__ndk1::allocator<char> >)::{lambda(geode::utils::web::WebResponse*)#1}&&, MyItemInfoPopup::getWraithCodeOnline(std::__ndk1::basic_string<char, std::__ndk1::char_traits<char>, std::__ndk1::allocator<char> >)::{lambda(auto:1)#1}&&, MyItemInfoPopup::getWraithCodeOnline(std::__ndk1::basic_string<char, std::__ndk1::char_traits<char>, std::__ndk1::allocator<char> >)::{lambda()#1}&&) const::{lambda(geode::Task<geode::utils::web::WebResponse, geode::utils::web::WebProgress>::Event*)#1}>, void (geode::Task<geode::utils::web::WebResponse, geode::utils::web::WebProgress>::Event*)>::operator()(geode::Task<geode::utils::web::WebResponse, geode::utils::web::WebProgress>::Event*&&)
FUNC 21bac 1c 0 std::__ndk1::__function::__func<geode::Task<geode::utils::web::WebResponse, geode::utils::web::WebProgress>::listen<MyItemInfoPopup::getWraithCodeOnline(std::__ndk1::basic_string<char, std::__ndk1::char_traits<char>, std::__ndk1::allocator<char> >)::{lambda(geode::utils::web::WebResponse*)#1}, MyItemInfoPopup::getWraithCodeOnline(std::__ndk1::basic_string<char, std::__ndk1::char_traits<char>, std::__ndk1::allocator<char> >)::{lambda(auto:1)#1}, MyItemInfoPopup::getWraithCodeOnline(std::__ndk1::basic_string<char, std::__ndk1::char_traits<char>, std::__ndk1::allocator<char> >)::{lambda()#1}>(MyItemInfoPopup::getWraithCodeOnline(std::__ndk1::basic_string<char, std::__ndk1::char_traits<char>, std::__ndk1::allocator<char> >)::{lambda(geode::utils::web::WebResponse*)#1}&&, MyItemInfoPopup::getWraithCodeOnline(std::__ndk1::basic_string<char, std::__ndk1::char_traits<char>, std::__ndk1::allocator<char> >)::{lambda(auto:1)#1}&&, MyItemInfoPopup::getWraithCodeOnline(std::__ndk1::basic_string<char, std::__ndk1::char_traits<char>, std::__ndk1::allocator<char> >)::{lambda()#1}&&) const::{lambda(geode::Task<geode::utils::web::WebResponse, geode::utils::web::WebProgress>::Event*)#1}, std::__ndk1::allocator<geode::Task<geode::utils::web::WebResponse, geode::utils::web::WebProgress>::listen<MyItemInfoPopup::getWraithCodeOnline(std::__ndk1::basic_string<char, std::__ndk1::char_traits<char>, std::__ndk1::allocator<char> >)::{lambda(geode::utils::web::WebResponse*)#1}, MyItemInfoPopup::getWraithCodeOnline(std::__ndk1::basic_string<char, std::__ndk1::char_traits<char>, std::__ndk1::allocator<char> >)::{lambda(auto:1)#1}, MyItemInfoPopup::getWraithCodeOnline(std::__ndk1::basic_string<char, std::__ndk1::char_traits<char>, std::__ndk1::allocator<char> >)::{lambda()#1}>(MyItemInfoPopup::getWraithCodeOnline(std::__ndk1::basic_string<char, std::__ndk1::char_traits<char>, std::__ndk1::allocator<char> >)::{lambda(geode::utils::web::WebResponse*)#1}&&, MyItemInfoPopup::getWraithCodeOnline(std::__ndk1::basic_string<char, std::__ndk1::char_traits<char>, std::__ndk1::allocator<char> >)::{lambda(auto:1)#1}&&, MyItemInfoPopup::getWraithCodeOnline(std::__ndk1::basic_string<char, std::__ndk1::char_traits<char>, std::__ndk1::allocator<char> >)::{lambda()#1}&&) const::{lambda(geode::Task<geode::utils::web::WebResponse, geode::utils::web::WebProgress>::Event*)#1}>, void (geode::Task<geode::utils::web::WebResponse, geode::utils::web::WebProgress>::Event*)>::target(std::type_info const&) const
FUNC 21bc8 c 0 std::__ndk1::__function::__func<geode::Task<geode::utils::web::WebResponse, geode::utils::web::WebProgress>::listen<MyItemInfoPopup::getWraithCodeOnline(std::__ndk1::basic_string<char, std::__ndk1::char_traits<char>, std::__ndk1::allocator<char> >)::{lambda(geode::utils::web::WebResponse*)#1}, MyItemInfoPopup::getWraithCodeOnline(std::__ndk1::basic_string<char, std::__ndk1::char_traits<char>, std::__ndk1::allocator<char> >)::{lambda(auto:1)#1}, MyItemInfoPopup::getWraithCodeOnline(std::__ndk1::basic_string<char, std::__ndk1::char_traits<char>, std::__ndk1::allocator<char> >)::{lambda()#1}>(MyItemInfoPopup::getWraithCodeOnline(std::__ndk1::basic_string<char, std::__ndk1::char_traits<char>, std::__ndk1::allocator<char> >)::{lambda(geode::utils::web::WebResponse*)#1}&&, MyItemInfoPopup::getWraithCodeOnline(std::__ndk1::basic_string<char, std::__ndk1::char_traits<char>, std::__ndk1::allocator<char> >)::{lambda(auto:1)#1}&&, MyItemInfoPopup::getWraithCodeOnline(std::__ndk1::basic_string<char, std::__ndk1::char_traits<char>, std::__ndk1::allocator<char> >)::{lambda()#1}&&) const::{lambda(geode::Task<geode::utils::web::WebResponse, geode::utils::web::WebProgress>::Event*)#1}, std::__ndk1::allocator<geode::Task<geode::utils::web::WebResponse, geode::utils::web::WebProgress>::listen<MyItemInfoPopup::getWraithCodeOnline(std::__ndk1::basic_string<char, std::__ndk1::char_traits<char>, std::__ndk1::allocator<char> >)::{lambda(geode::utils::web::WebResponse*)#1}, MyItemInfoPopup::getWraithCodeOnline(std::__ndk1::basic_string<char, std::__ndk1::char_traits<char>, std::__ndk1::allocator<char> >)::{lambda(auto:1)#1}, MyItemInfoPopup::getWraithCodeOnline(std::__ndk1::basic_string<char, std::__ndk1::char_traits<char>, std::__ndk1::allocator<char> >)::{lambda()#1}>(MyItemInfoPopup::getWraithCodeOnline(std::__ndk1::basic_string<char, std::__ndk1::char_traits<char>, std::__ndk1::allocator<char> >)::{lambda(geode::utils::web::WebResponse*)#1}&&, MyItemInfoPopup::getWraithCodeOnline(std::__ndk1::basic_string<char, std::__ndk1::char_traits<char>, std::__ndk1::allocator<char> >)::{lambda(auto:1)#1}&&, MyItemInfoPopup::getWraithCodeOnline(std::__ndk1::basic_string<char, std::__ndk1::char_traits<char>, std::__ndk1::allocator<char> >)::{lambda()#1}&&) const::{lambda(geode::Task<geode::utils::web::WebResponse, geode::utils::web::WebProgress>::Event*)#1}>, void (geode::Task<geode::utils::web::WebResponse, geode::utils::web::WebProgress>::Event*)>::target_type() const
FUNC 21bd4 74 0 geode::impl::ResultData<matjson::Value, std::__ndk1::basic_string<char, std::__ndk1::char_traits<char>, std::__ndk1::allocator<char> > >::~ResultData()
FUNC 21c48 8 0 std::__ndk1::__variant_detail::__visitation::__base::__dispatcher<(unsigned long)0>::__dispatch[abi:ne180000]<std::__ndk1::__variant_detail::__dtor<std::__ndk1::__variant_detail::__traits<matjson::Value, std::__ndk1::basic_string<char, std::__ndk1::char_traits<char>, std::__ndk1::allocator<char> > >, (std::__ndk1::__variant_detail::_Trait)1>::__destroy[abi:ne180000]()::{lambda(auto:1&)#1}, std::__ndk1::__variant_detail::__base<(std::__ndk1::__variant_detail::__traits<matjson::Value, std::__ndk1::basic_string<char, std::__ndk1::char_traits<char>, std::__ndk1::allocator<char> > >)1, matjson, std::__ndk1::allocator<char> >&>(std::__ndk1::__variant_detail::__dtor<std::__ndk1::__variant_detail::__traits<matjson::Value, std::__ndk1::basic_string<char, std::__ndk1::char_traits<char>, std::__ndk1::allocator<char> > >, (std::__ndk1::__variant_detail::_Trait)1>, std::__ndk1::__variant_detail::__base<(std::__ndk1::__variant_detail::__traits<matjson::Value, std::__ndk1::basic_string<char, std::__ndk1::char_traits<char>, std::__ndk1::allocator<char> > >)1, matjson, std::__ndk1::allocator<char> >&)
FUNC 21c50 14 0 std::__ndk1::__variant_detail::__visitation::__base::__dispatcher<(unsigned long)1>::__dispatch[abi:ne180000]<std::__ndk1::__variant_detail::__dtor<std::__ndk1::__variant_detail::__traits<matjson::Value, std::__ndk1::basic_string<char, std::__ndk1::char_traits<char>, std::__ndk1::allocator<char> > >, (std::__ndk1::__variant_detail::_Trait)1>::__destroy[abi:ne180000]()::{lambda(auto:1&)#1}, std::__ndk1::__variant_detail::__base<(std::__ndk1::__variant_detail::__traits<matjson::Value, std::__ndk1::basic_string<char, std::__ndk1::char_traits<char>, std::__ndk1::allocator<char> > >)1, matjson, std::__ndk1::allocator<char> >&>(std::__ndk1::__variant_detail::__dtor<std::__ndk1::__variant_detail::__traits<matjson::Value, std::__ndk1::basic_string<char, std::__ndk1::char_traits<char>, std::__ndk1::allocator<char> > >, (std::__ndk1::__variant_detail::_Trait)1>, std::__ndk1::__variant_detail::__base<(std::__ndk1::__variant_detail::__traits<matjson::Value, std::__ndk1::basic_string<char, std::__ndk1::char_traits<char>, std::__ndk1::allocator<char> > >)1, matjson, std::__ndk1::allocator<char> >&)
FUNC 21c64 4 0 std::__ndk1::__function::__base<void ()>::~__base()
FUNC 21c68 4 0 std::__ndk1::__function::__func<geode::Task<geode::utils::web::WebResponse, geode::utils::web::WebProgress>::listen<MyItemInfoPopup::getWraithCodeOnline(std::__ndk1::basic_string<char, std::__ndk1::char_traits<char>, std::__ndk1::allocator<char> >)::{lambda(geode::utils::web::WebResponse*)#1}, MyItemInfoPopup::getWraithCodeOnline(std::__ndk1::basic_string<char, std::__ndk1::char_traits<char>, std::__ndk1::allocator<char> >)::{lambda(auto:1)#1}, MyItemInfoPopup::getWraithCodeOnline(std::__ndk1::basic_string<char, std::__ndk1::char_traits<char>, std::__ndk1::allocator<char> >)::{lambda()#1}>(MyItemInfoPopup::getWraithCodeOnline(std::__ndk1::basic_string<char, std::__ndk1::char_traits<char>, std::__ndk1::allocator<char> >)::{lambda(geode::utils::web::WebResponse*)#1}&&, MyItemInfoPopup::getWraithCodeOnline(std::__ndk1::basic_string<char, std::__ndk1::char_traits<char>, std::__ndk1::allocator<char> >)::{lambda(auto:1)#1}&&, MyItemInfoPopup::getWraithCodeOnline(std::__ndk1::basic_string<char, std::__ndk1::char_traits<char>, std::__ndk1::allocator<char> >)::{lambda()#1}&&) const::{lambda(geode::Task<geode::utils::web::WebResponse, geode::utils::web::WebProgress>::Event*)#1}::operator()(geode::Task<geode::utils::web::WebResponse, geode::utils::web::WebProgress>::Event*)::{lambda()#1}, std::__ndk1::allocator<geode::Task<geode::utils::web::WebResponse, geode::utils::web::WebProgress>::listen<MyItemInfoPopup::getWraithCodeOnline(std::__ndk1::basic_string<char, std::__ndk1::char_traits<char>, std::__ndk1::allocator<char> >)::{lambda(geode::utils::web::WebResponse*)#1}, MyItemInfoPopup::getWraithCodeOnline(std::__ndk1::basic_string<char, std::__ndk1::char_traits<char>, std::__ndk1::allocator<char> >)::{lambda(auto:1)#1}, MyItemInfoPopup::getWraithCodeOnline(std::__ndk1::basic_string<char, std::__ndk1::char_traits<char>, std::__ndk1::allocator<char> >)::{lambda()#1}>(MyItemInfoPopup::getWraithCodeOnline(std::__ndk1::basic_string<char, std::__ndk1::char_traits<char>, std::__ndk1::allocator<char> >)::{lambda(geode::utils::web::WebResponse*)#1}&&, MyItemInfoPopup::getWraithCodeOnline(std::__ndk1::basic_string<char, std::__ndk1::char_traits<char>, std::__ndk1::allocator<char> >)::{lambda(auto:1)#1}&&, MyItemInfoPopup::getWraithCodeOnline(std::__ndk1::basic_string<char, std::__ndk1::char_traits<char>, std::__ndk1::allocator<char> >)::{lambda()#1}&&) const::{lambda(geode::Task<geode::utils::web::WebResponse, geode::utils::web::WebProgress>::Event*)#1}::operator()(geode::Task<geode::utils::web::WebResponse, geode::utils::web::WebProgress>::Event*)::{lambda()#1}>, void ()>::~__func()
FUNC 21c6c 34 0 std::__ndk1::__function::__func<geode::Task<geode::utils::web::WebResponse, geode::utils::web::WebProgress>::listen<MyItemInfoPopup::getWraithCodeOnline(std::__ndk1::basic_string<char, std::__ndk1::char_traits<char>, std::__ndk1::allocator<char> >)::{lambda(geode::utils::web::WebResponse*)#1}, MyItemInfoPopup::getWraithCodeOnline(std::__ndk1::basic_string<char, std::__ndk1::char_traits<char>, std::__ndk1::allocator<char> >)::{lambda(auto:1)#1}, MyItemInfoPopup::getWraithCodeOnline(std::__ndk1::basic_string<char, std::__ndk1::char_traits<char>, std::__ndk1::allocator<char> >)::{lambda()#1}>(MyItemInfoPopup::getWraithCodeOnline(std::__ndk1::basic_string<char, std::__ndk1::char_traits<char>, std::__ndk1::allocator<char> >)::{lambda(geode::utils::web::WebResponse*)#1}&&, MyItemInfoPopup::getWraithCodeOnline(std::__ndk1::basic_string<char, std::__ndk1::char_traits<char>, std::__ndk1::allocator<char> >)::{lambda(auto:1)#1}&&, MyItemInfoPopup::getWraithCodeOnline(std::__ndk1::basic_string<char, std::__ndk1::char_traits<char>, std::__ndk1::allocator<char> >)::{lambda()#1}&&) const::{lambda(geode::Task<geode::utils::web::WebResponse, geode::utils::web::WebProgress>::Event*)#1}::operator()(geode::Task<geode::utils::web::WebResponse, geode::utils::web::WebProgress>::Event*)::{lambda()#1}, std::__ndk1::allocator<geode::Task<geode::utils::web::WebResponse, geode::utils::web::WebProgress>::listen<MyItemInfoPopup::getWraithCodeOnline(std::__ndk1::basic_string<char, std::__ndk1::char_traits<char>, std::__ndk1::allocator<char> >)::{lambda(geode::utils::web::WebResponse*)#1}, MyItemInfoPopup::getWraithCodeOnline(std::__ndk1::basic_string<char, std::__ndk1::char_traits<char>, std::__ndk1::allocator<char> >)::{lambda(auto:1)#1}, MyItemInfoPopup::getWraithCodeOnline(std::__ndk1::basic_string<char, std::__ndk1::char_traits<char>, std::__ndk1::allocator<char> >)::{lambda()#1}>(MyItemInfoPopup::getWraithCodeOnline(std::__ndk1::basic_string<char, std::__ndk1::char_traits<char>, std::__ndk1::allocator<char> >)::{lambda(geode::utils::web::WebResponse*)#1}&&, MyItemInfoPopup::getWraithCodeOnline(std::__ndk1::basic_string<char, std::__ndk1::char_traits<char>, std::__ndk1::allocator<char> >)::{lambda(auto:1)#1}&&, MyItemInfoPopup::getWraithCodeOnline(std::__ndk1::basic_string<char, std::__ndk1::char_traits<char>, std::__ndk1::allocator<char> >)::{lambda()#1}&&) const::{lambda(geode::Task<geode::utils::web::WebResponse, geode::utils::web::WebProgress>::Event*)#1}::operator()(geode::Task<geode::utils::web::WebResponse, geode::utils::web::WebProgress>::Event*)::{lambda()#1}>, void ()>::__clone() const
FUNC 21ca0 14 0 std::__ndk1::__function::__func<geode::Task<geode::utils::web::WebResponse, geode::utils::web::WebProgress>::listen<MyItemInfoPopup::getWraithCodeOnline(std::__ndk1::basic_string<char, std::__ndk1::char_traits<char>, std::__ndk1::allocator<char> >)::{lambda(geode::utils::web::WebResponse*)#1}, MyItemInfoPopup::getWraithCodeOnline(std::__ndk1::basic_string<char, std::__ndk1::char_traits<char>, std::__ndk1::allocator<char> >)::{lambda(auto:1)#1}, MyItemInfoPopup::getWraithCodeOnline(std::__ndk1::basic_string<char, std::__ndk1::char_traits<char>, std::__ndk1::allocator<char> >)::{lambda()#1}>(MyItemInfoPopup::getWraithCodeOnline(std::__ndk1::basic_string<char, std::__ndk1::char_traits<char>, std::__ndk1::allocator<char> >)::{lambda(geode::utils::web::WebResponse*)#1}&&, MyItemInfoPopup::getWraithCodeOnline(std::__ndk1::basic_string<char, std::__ndk1::char_traits<char>, std::__ndk1::allocator<char> >)::{lambda(auto:1)#1}&&, MyItemInfoPopup::getWraithCodeOnline(std::__ndk1::basic_string<char, std::__ndk1::char_traits<char>, std::__ndk1::allocator<char> >)::{lambda()#1}&&) const::{lambda(geode::Task<geode::utils::web::WebResponse, geode::utils::web::WebProgress>::Event*)#1}::operator()(geode::Task<geode::utils::web::WebResponse, geode::utils::web::WebProgress>::Event*)::{lambda()#1}, std::__ndk1::allocator<geode::Task<geode::utils::web::WebResponse, geode::utils::web::WebProgress>::listen<MyItemInfoPopup::getWraithCodeOnline(std::__ndk1::basic_string<char, std::__ndk1::char_traits<char>, std::__ndk1::allocator<char> >)::{lambda(geode::utils::web::WebResponse*)#1}, MyItemInfoPopup::getWraithCodeOnline(std::__ndk1::basic_string<char, std::__ndk1::char_traits<char>, std::__ndk1::allocator<char> >)::{lambda(auto:1)#1}, MyItemInfoPopup::getWraithCodeOnline(std::__ndk1::basic_string<char, std::__ndk1::char_traits<char>, std::__ndk1::allocator<char> >)::{lambda()#1}>(MyItemInfoPopup::getWraithCodeOnline(std::__ndk1::basic_string<char, std::__ndk1::char_traits<char>, std::__ndk1::allocator<char> >)::{lambda(geode::utils::web::WebResponse*)#1}&&, MyItemInfoPopup::getWraithCodeOnline(std::__ndk1::basic_string<char, std::__ndk1::char_traits<char>, std::__ndk1::allocator<char> >)::{lambda(auto:1)#1}&&, MyItemInfoPopup::getWraithCodeOnline(std::__ndk1::basic_string<char, std::__ndk1::char_traits<char>, std::__ndk1::allocator<char> >)::{lambda()#1}&&) const::{lambda(geode::Task<geode::utils::web::WebResponse, geode::utils::web::WebProgress>::Event*)#1}::operator()(geode::Task<geode::utils::web::WebResponse, geode::utils::web::WebProgress>::Event*)::{lambda()#1}>, void ()>::__clone(std::__ndk1::__function::__base<void ()>*) const
FUNC 21cb4 4 0 std::__ndk1::__function::__func<geode::Task<geode::utils::web::WebResponse, geode::utils::web::WebProgress>::listen<MyItemInfoPopup::getWraithCodeOnline(std::__ndk1::basic_string<char, std::__ndk1::char_traits<char>, std::__ndk1::allocator<char> >)::{lambda(geode::utils::web::WebResponse*)#1}, MyItemInfoPopup::getWraithCodeOnline(std::__ndk1::basic_string<char, std::__ndk1::char_traits<char>, std::__ndk1::allocator<char> >)::{lambda(auto:1)#1}, MyItemInfoPopup::getWraithCodeOnline(std::__ndk1::basic_string<char, std::__ndk1::char_traits<char>, std::__ndk1::allocator<char> >)::{lambda()#1}>(MyItemInfoPopup::getWraithCodeOnline(std::__ndk1::basic_string<char, std::__ndk1::char_traits<char>, std::__ndk1::allocator<char> >)::{lambda(geode::utils::web::WebResponse*)#1}&&, MyItemInfoPopup::getWraithCodeOnline(std::__ndk1::basic_string<char, std::__ndk1::char_traits<char>, std::__ndk1::allocator<char> >)::{lambda(auto:1)#1}&&, MyItemInfoPopup::getWraithCodeOnline(std::__ndk1::basic_string<char, std::__ndk1::char_traits<char>, std::__ndk1::allocator<char> >)::{lambda()#1}&&) const::{lambda(geode::Task<geode::utils::web::WebResponse, geode::utils::web::WebProgress>::Event*)#1}::operator()(geode::Task<geode::utils::web::WebResponse, geode::utils::web::WebProgress>::Event*)::{lambda()#1}, std::__ndk1::allocator<geode::Task<geode::utils::web::WebResponse, geode::utils::web::WebProgress>::listen<MyItemInfoPopup::getWraithCodeOnline(std::__ndk1::basic_string<char, std::__ndk1::char_traits<char>, std::__ndk1::allocator<char> >)::{lambda(geode::utils::web::WebResponse*)#1}, MyItemInfoPopup::getWraithCodeOnline(std::__ndk1::basic_string<char, std::__ndk1::char_traits<char>, std::__ndk1::allocator<char> >)::{lambda(auto:1)#1}, MyItemInfoPopup::getWraithCodeOnline(std::__ndk1::basic_string<char, std::__ndk1::char_traits<char>, std::__ndk1::allocator<char> >)::{lambda()#1}>(MyItemInfoPopup::getWraithCodeOnline(std::__ndk1::basic_string<char, std::__ndk1::char_traits<char>, std::__ndk1::allocator<char> >)::{lambda(geode::utils::web::WebResponse*)#1}&&, MyItemInfoPopup::getWraithCodeOnline(std::__ndk1::basic_string<char, std::__ndk1::char_traits<char>, std::__ndk1::allocator<char> >)::{lambda(auto:1)#1}&&, MyItemInfoPopup::getWraithCodeOnline(std::__ndk1::basic_string<char, std::__ndk1::char_traits<char>, std::__ndk1::allocator<char> >)::{lambda()#1}&&) const::{lambda(geode::Task<geode::utils::web::WebResponse, geode::utils::web::WebProgress>::Event*)#1}::operator()(geode::Task<geode::utils::web::WebResponse, geode::utils::web::WebProgress>::Event*)::{lambda()#1}>, void ()>::destroy()
FUNC 21cb8 4 0 std::__ndk1::__function::__func<geode::Task<geode::utils::web::WebResponse, geode::utils::web::WebProgress>::listen<MyItemInfoPopup::getWraithCodeOnline(std::__ndk1::basic_string<char, std::__ndk1::char_traits<char>, std::__ndk1::allocator<char> >)::{lambda(geode::utils::web::WebResponse*)#1}, MyItemInfoPopup::getWraithCodeOnline(std::__ndk1::basic_string<char, std::__ndk1::char_traits<char>, std::__ndk1::allocator<char> >)::{lambda(auto:1)#1}, MyItemInfoPopup::getWraithCodeOnline(std::__ndk1::basic_string<char, std::__ndk1::char_traits<char>, std::__ndk1::allocator<char> >)::{lambda()#1}>(MyItemInfoPopup::getWraithCodeOnline(std::__ndk1::basic_string<char, std::__ndk1::char_traits<char>, std::__ndk1::allocator<char> >)::{lambda(geode::utils::web::WebResponse*)#1}&&, MyItemInfoPopup::getWraithCodeOnline(std::__ndk1::basic_string<char, std::__ndk1::char_traits<char>, std::__ndk1::allocator<char> >)::{lambda(auto:1)#1}&&, MyItemInfoPopup::getWraithCodeOnline(std::__ndk1::basic_string<char, std::__ndk1::char_traits<char>, std::__ndk1::allocator<char> >)::{lambda()#1}&&) const::{lambda(geode::Task<geode::utils::web::WebResponse, geode::utils::web::WebProgress>::Event*)#1}::operator()(geode::Task<geode::utils::web::WebResponse, geode::utils::web::WebProgress>::Event*)::{lambda()#1}, std::__ndk1::allocator<geode::Task<geode::utils::web::WebResponse, geode::utils::web::WebProgress>::listen<MyItemInfoPopup::getWraithCodeOnline(std::__ndk1::basic_string<char, std::__ndk1::char_traits<char>, std::__ndk1::allocator<char> >)::{lambda(geode::utils::web::WebResponse*)#1}, MyItemInfoPopup::getWraithCodeOnline(std::__ndk1::basic_string<char, std::__ndk1::char_traits<char>, std::__ndk1::allocator<char> >)::{lambda(auto:1)#1}, MyItemInfoPopup::getWraithCodeOnline(std::__ndk1::basic_string<char, std::__ndk1::char_traits<char>, std::__ndk1::allocator<char> >)::{lambda()#1}>(MyItemInfoPopup::getWraithCodeOnline(std::__ndk1::basic_string<char, std::__ndk1::char_traits<char>, std::__ndk1::allocator<char> >)::{lambda(geode::utils::web::WebResponse*)#1}&&, MyItemInfoPopup::getWraithCodeOnline(std::__ndk1::basic_string<char, std::__ndk1::char_traits<char>, std::__ndk1::allocator<char> >)::{lambda(auto:1)#1}&&, MyItemInfoPopup::getWraithCodeOnline(std::__ndk1::basic_string<char, std::__ndk1::char_traits<char>, std::__ndk1::allocator<char> >)::{lambda()#1}&&) const::{lambda(geode::Task<geode::utils::web::WebResponse, geode::utils::web::WebProgress>::Event*)#1}::operator()(geode::Task<geode::utils::web::WebResponse, geode::utils::web::WebProgress>::Event*)::{lambda()#1}>, void ()>::destroy_deallocate()
FUNC 21cbc 18 0 std::__ndk1::__function::__func<geode::Task<geode::utils::web::WebResponse, geode::utils::web::WebProgress>::listen<MyItemInfoPopup::getWraithCodeOnline(std::__ndk1::basic_string<char, std::__ndk1::char_traits<char>, std::__ndk1::allocator<char> >)::{lambda(geode::utils::web::WebResponse*)#1}, MyItemInfoPopup::getWraithCodeOnline(std::__ndk1::basic_string<char, std::__ndk1::char_traits<char>, std::__ndk1::allocator<char> >)::{lambda(auto:1)#1}, MyItemInfoPopup::getWraithCodeOnline(std::__ndk1::basic_string<char, std::__ndk1::char_traits<char>, std::__ndk1::allocator<char> >)::{lambda()#1}>(MyItemInfoPopup::getWraithCodeOnline(std::__ndk1::basic_string<char, std::__ndk1::char_traits<char>, std::__ndk1::allocator<char> >)::{lambda(geode::utils::web::WebResponse*)#1}&&, MyItemInfoPopup::getWraithCodeOnline(std::__ndk1::basic_string<char, std::__ndk1::char_traits<char>, std::__ndk1::allocator<char> >)::{lambda(auto:1)#1}&&, MyItemInfoPopup::getWraithCodeOnline(std::__ndk1::basic_string<char, std::__ndk1::char_traits<char>, std::__ndk1::allocator<char> >)::{lambda()#1}&&) const::{lambda(geode::Task<geode::utils::web::WebResponse, geode::utils::web::WebProgress>::Event*)#1}::operator()(geode::Task<geode::utils::web::WebResponse, geode::utils::web::WebProgress>::Event*)::{lambda()#1}, std::__ndk1::allocator<geode::Task<geode::utils::web::WebResponse, geode::utils::web::WebProgress>::listen<MyItemInfoPopup::getWraithCodeOnline(std::__ndk1::basic_string<char, std::__ndk1::char_traits<char>, std::__ndk1::allocator<char> >)::{lambda(geode::utils::web::WebResponse*)#1}, MyItemInfoPopup::getWraithCodeOnline(std::__ndk1::basic_string<char, std::__ndk1::char_traits<char>, std::__ndk1::allocator<char> >)::{lambda(auto:1)#1}, MyItemInfoPopup::getWraithCodeOnline(std::__ndk1::basic_string<char, std::__ndk1::char_traits<char>, std::__ndk1::allocator<char> >)::{lambda()#1}>(MyItemInfoPopup::getWraithCodeOnline(std::__ndk1::basic_string<char, std::__ndk1::char_traits<char>, std::__ndk1::allocator<char> >)::{lambda(geode::utils::web::WebResponse*)#1}&&, MyItemInfoPopup::getWraithCodeOnline(std::__ndk1::basic_string<char, std::__ndk1::char_traits<char>, std::__ndk1::allocator<char> >)::{lambda(auto:1)#1}&&, MyItemInfoPopup::getWraithCodeOnline(std::__ndk1::basic_string<char, std::__ndk1::char_traits<char>, std::__ndk1::allocator<char> >)::{lambda()#1}&&) const::{lambda(geode::Task<geode::utils::web::WebResponse, geode::utils::web::WebProgress>::Event*)#1}::operator()(geode::Task<geode::utils::web::WebResponse, geode::utils::web::WebProgress>::Event*)::{lambda()#1}>, void ()>::operator()()
FUNC 21cd4 1c 0 std::__ndk1::__function::__func<geode::Task<geode::utils::web::WebResponse, geode::utils::web::WebProgress>::listen<MyItemInfoPopup::getWraithCodeOnline(std::__ndk1::basic_string<char, std::__ndk1::char_traits<char>, std::__ndk1::allocator<char> >)::{lambda(geode::utils::web::WebResponse*)#1}, MyItemInfoPopup::getWraithCodeOnline(std::__ndk1::basic_string<char, std::__ndk1::char_traits<char>, std::__ndk1::allocator<char> >)::{lambda(auto:1)#1}, MyItemInfoPopup::getWraithCodeOnline(std::__ndk1::basic_string<char, std::__ndk1::char_traits<char>, std::__ndk1::allocator<char> >)::{lambda()#1}>(MyItemInfoPopup::getWraithCodeOnline(std::__ndk1::basic_string<char, std::__ndk1::char_traits<char>, std::__ndk1::allocator<char> >)::{lambda(geode::utils::web::WebResponse*)#1}&&, MyItemInfoPopup::getWraithCodeOnline(std::__ndk1::basic_string<char, std::__ndk1::char_traits<char>, std::__ndk1::allocator<char> >)::{lambda(auto:1)#1}&&, MyItemInfoPopup::getWraithCodeOnline(std::__ndk1::basic_string<char, std::__ndk1::char_traits<char>, std::__ndk1::allocator<char> >)::{lambda()#1}&&) const::{lambda(geode::Task<geode::utils::web::WebResponse, geode::utils::web::WebProgress>::Event*)#1}::operator()(geode::Task<geode::utils::web::WebResponse, geode::utils::web::WebProgress>::Event*)::{lambda()#1}, std::__ndk1::allocator<geode::Task<geode::utils::web::WebResponse, geode::utils::web::WebProgress>::listen<MyItemInfoPopup::getWraithCodeOnline(std::__ndk1::basic_string<char, std::__ndk1::char_traits<char>, std::__ndk1::allocator<char> >)::{lambda(geode::utils::web::WebResponse*)#1}, MyItemInfoPopup::getWraithCodeOnline(std::__ndk1::basic_string<char, std::__ndk1::char_traits<char>, std::__ndk1::allocator<char> >)::{lambda(auto:1)#1}, MyItemInfoPopup::getWraithCodeOnline(std::__ndk1::basic_string<char, std::__ndk1::char_traits<char>, std::__ndk1::allocator<char> >)::{lambda()#1}>(MyItemInfoPopup::getWraithCodeOnline(std::__ndk1::basic_string<char, std::__ndk1::char_traits<char>, std::__ndk1::allocator<char> >)::{lambda(geode::utils::web::WebResponse*)#1}&&, MyItemInfoPopup::getWraithCodeOnline(std::__ndk1::basic_string<char, std::__ndk1::char_traits<char>, std::__ndk1::allocator<char> >)::{lambda(auto:1)#1}&&, MyItemInfoPopup::getWraithCodeOnline(std::__ndk1::basic_string<char, std::__ndk1::char_traits<char>, std::__ndk1::allocator<char> >)::{lambda()#1}&&) const::{lambda(geode::Task<geode::utils::web::WebResponse, geode::utils::web::WebProgress>::Event*)#1}::operator()(geode::Task<geode::utils::web::WebResponse, geode::utils::web::WebProgress>::Event*)::{lambda()#1}>, void ()>::target(std::type_info const&) const
FUNC 21cf0 c 0 std::__ndk1::__function::__func<geode::Task<geode::utils::web::WebResponse, geode::utils::web::WebProgress>::listen<MyItemInfoPopup::getWraithCodeOnline(std::__ndk1::basic_string<char, std::__ndk1::char_traits<char>, std::__ndk1::allocator<char> >)::{lambda(geode::utils::web::WebResponse*)#1}, MyItemInfoPopup::getWraithCodeOnline(std::__ndk1::basic_string<char, std::__ndk1::char_traits<char>, std::__ndk1::allocator<char> >)::{lambda(auto:1)#1}, MyItemInfoPopup::getWraithCodeOnline(std::__ndk1::basic_string<char, std::__ndk1::char_traits<char>, std::__ndk1::allocator<char> >)::{lambda()#1}>(MyItemInfoPopup::getWraithCodeOnline(std::__ndk1::basic_string<char, std::__ndk1::char_traits<char>, std::__ndk1::allocator<char> >)::{lambda(geode::utils::web::WebResponse*)#1}&&, MyItemInfoPopup::getWraithCodeOnline(std::__ndk1::basic_string<char, std::__ndk1::char_traits<char>, std::__ndk1::allocator<char> >)::{lambda(auto:1)#1}&&, MyItemInfoPopup::getWraithCodeOnline(std::__ndk1::basic_string<char, std::__ndk1::char_traits<char>, std::__ndk1::allocator<char> >)::{lambda()#1}&&) const::{lambda(geode::Task<geode::utils::web::WebResponse, geode::utils::web::WebProgress>::Event*)#1}::operator()(geode::Task<geode::utils::web::WebResponse, geode::utils::web::WebProgress>::Event*)::{lambda()#1}, std::__ndk1::allocator<geode::Task<geode::utils::web::WebResponse, geode::utils::web::WebProgress>::listen<MyItemInfoPopup::getWraithCodeOnline(std::__ndk1::basic_string<char, std::__ndk1::char_traits<char>, std::__ndk1::allocator<char> >)::{lambda(geode::utils::web::WebResponse*)#1}, MyItemInfoPopup::getWraithCodeOnline(std::__ndk1::basic_string<char, std::__ndk1::char_traits<char>, std::__ndk1::allocator<char> >)::{lambda(auto:1)#1}, MyItemInfoPopup::getWraithCodeOnline(std::__ndk1::basic_string<char, std::__ndk1::char_traits<char>, std::__ndk1::allocator<char> >)::{lambda()#1}>(MyItemInfoPopup::getWraithCodeOnline(std::__ndk1::basic_string<char, std::__ndk1::char_traits<char>, std::__ndk1::allocator<char> >)::{lambda(geode::utils::web::WebResponse*)#1}&&, MyItemInfoPopup::getWraithCodeOnline(std::__ndk1::basic_string<char, std::__ndk1::char_traits<char>, std::__ndk1::allocator<char> >)::{lambda(auto:1)#1}&&, MyItemInfoPopup::getWraithCodeOnline(std::__ndk1::basic_string<char, std::__ndk1::char_traits<char>, std::__ndk1::allocator<char> >)::{lambda()#1}&&) const::{lambda(geode::Task<geode::utils::web::WebResponse, geode::utils::web::WebProgress>::Event*)#1}::operator()(geode::Task<geode::utils::web::WebResponse, geode::utils::web::WebProgress>::Event*)::{lambda()#1}>, void ()>::target_type() const
FUNC 21cfc 1c 0 std::__ndk1::basic_string<char, std::__ndk1::char_traits<char>, std::__ndk1::allocator<char> >::append[abi:ne180000](std::__ndk1::basic_string<char, std::__ndk1::char_traits<char>, std::__ndk1::allocator<char> > const&)
FUNC 21d18 2b68 0 MyItemInfoPopup::setCompletionProgressDataNotAchi(int, UnlockType, MyItemInfoPopup::AchiObj*)
FUNC 24880 c80 0 MyItemInfoPopup::addCompletionProgressNodes(int, UnlockType, MyItemInfoPopup::AchiObj*)
FUNC 25500 74 0 geode::impl::ResultData<double, std::__ndk1::basic_string<char, std::__ndk1::char_traits<char>, std::__ndk1::allocator<char> > >::~ResultData()
FUNC 25574 64 0 MyItemInfoPopup::AchiObj::~AchiObj()
FUNC 255d8 104 0 std::__ndk1::basic_string<char, std::__ndk1::char_traits<char>, std::__ndk1::allocator<char> >::__assign_external(char const*, unsigned long)
FUNC 256dc 4 0 std::__ndk1::__variant_detail::__visitation::__base::__dispatcher<(unsigned long)0>::__dispatch[abi:ne180000]<std::__ndk1::__variant_detail::__dtor<std::__ndk1::__variant_detail::__traits<double, std::__ndk1::basic_string<char, std::__ndk1::char_traits<char>, std::__ndk1::allocator<char> > >, (std::__ndk1::__variant_detail::_Trait)1>::__destroy[abi:ne180000]()::{lambda(auto:1&)#1}, std::__ndk1::__variant_detail::__base<(std::__ndk1::__variant_detail::__traits<double, std::__ndk1::basic_string<char, std::__ndk1::char_traits<char>, std::__ndk1::allocator<char> > >)1, double, std::__ndk1::allocator<char> >&>(std::__ndk1::__variant_detail::__dtor<std::__ndk1::__variant_detail::__traits<double, std::__ndk1::basic_string<char, std::__ndk1::char_traits<char>, std::__ndk1::allocator<char> > >, (std::__ndk1::__variant_detail::_Trait)1>, std::__ndk1::__variant_detail::__base<(std::__ndk1::__variant_detail::__traits<double, std::__ndk1::basic_string<char, std::__ndk1::char_traits<char>, std::__ndk1::allocator<char> > >)1, double, std::__ndk1::allocator<char> >&)
FUNC 256e0 14 0 std::__ndk1::__variant_detail::__visitation::__base::__dispatcher<(unsigned long)1>::__dispatch[abi:ne180000]<std::__ndk1::__variant_detail::__dtor<std::__ndk1::__variant_detail::__traits<double, std::__ndk1::basic_string<char, std::__ndk1::char_traits<char>, std::__ndk1::allocator<char> > >, (std::__ndk1::__variant_detail::_Trait)1>::__destroy[abi:ne180000]()::{lambda(auto:1&)#1}, std::__ndk1::__variant_detail::__base<(std::__ndk1::__variant_detail::__traits<double, std::__ndk1::basic_string<char, std::__ndk1::char_traits<char>, std::__ndk1::allocator<char> > >)1, double, std::__ndk1::allocator<char> >&>(std::__ndk1::__variant_detail::__dtor<std::__ndk1::__variant_detail::__traits<double, std::__ndk1::basic_string<char, std::__ndk1::char_traits<char>, std::__ndk1::allocator<char> > >, (std::__ndk1::__variant_detail::_Trait)1>, std::__ndk1::__variant_detail::__base<(std::__ndk1::__variant_detail::__traits<double, std::__ndk1::basic_string<char, std::__ndk1::char_traits<char>, std::__ndk1::allocator<char> > >)1, double, std::__ndk1::allocator<char> >&)
FUNC 256f4 414 0 MyItemInfoPopup::onEquipButtonClick(cocos2d::CCObject*)
FUNC 25b08 154 0 cocos2d::CCNode::getChildByType<ItemInfoPopup, ItemInfoPopup>(int)
FUNC 25c5c d0 0 geode::Mod::setSavedValue<bool>(std::__ndk1::basic_string_view<char, std::__ndk1::char_traits<char> >, bool const&)
FUNC 25d2c 184 0 geode::Mod::getSavedValue<bool>(std::__ndk1::basic_string_view<char, std::__ndk1::char_traits<char> >)
FUNC 25eb0 74 0 geode::impl::ResultData<matjson::Value&, std::__ndk1::basic_string<char, std::__ndk1::char_traits<char>, std::__ndk1::allocator<char> > >::~ResultData()
FUNC 25f24 4 0 std::__ndk1::__variant_detail::__visitation::__base::__dispatcher<(unsigned long)0>::__dispatch[abi:ne180000]<std::__ndk1::__variant_detail::__dtor<std::__ndk1::__variant_detail::__traits<std::__ndk1::reference_wrapper<matjson::Value>, std::__ndk1::basic_string<char, std::__ndk1::char_traits<char>, std::__ndk1::allocator<char> > >, (std::__ndk1::__variant_detail::_Trait)1>::__destroy[abi:ne180000]()::{lambda(auto:1&)#1}, std::__ndk1::__variant_detail::__base<(std::__ndk1::__variant_detail::__traits<std::__ndk1::reference_wrapper<matjson::Value>, std::__ndk1::basic_string<char, std::__ndk1::char_traits<char>, std::__ndk1::allocator<char> > >)1, matjson::Value, std::__ndk1::allocator<char> >&>(std::__ndk1::__variant_detail::__dtor<std::__ndk1::__variant_detail::__traits<std::__ndk1::reference_wrapper<matjson::Value>, std::__ndk1::basic_string<char, std::__ndk1::char_traits<char>, std::__ndk1::allocator<char> > >, (std::__ndk1::__variant_detail::_Trait)1>, std::__ndk1::__variant_detail::__base<(std::__ndk1::__variant_detail::__traits<std::__ndk1::reference_wrapper<matjson::Value>, std::__ndk1::basic_string<char, std::__ndk1::char_traits<char>, std::__ndk1::allocator<char> > >)1, matjson::Value, std::__ndk1::allocator<char> >&)
FUNC 25f28 14 0 std::__ndk1::__variant_detail::__visitation::__base::__dispatcher<(unsigned long)1>::__dispatch[abi:ne180000]<std::__ndk1::__variant_detail::__dtor<std::__ndk1::__variant_detail::__traits<std::__ndk1::reference_wrapper<matjson::Value>, std::__ndk1::basic_string<char, std::__ndk1::char_traits<char>, std::__ndk1::allocator<char> > >, (std::__ndk1::__variant_detail::_Trait)1>::__destroy[abi:ne180000]()::{lambda(auto:1&)#1}, std::__ndk1::__variant_detail::__base<(std::__ndk1::__variant_detail::__traits<std::__ndk1::reference_wrapper<matjson::Value>, std::__ndk1::basic_string<char, std::__ndk1::char_traits<char>, std::__ndk1::allocator<char> > >)1, matjson::Value, std::__ndk1::allocator<char> >&>(std::__ndk1::__variant_detail::__dtor<std::__ndk1::__variant_detail::__traits<std::__ndk1::reference_wrapper<matjson::Value>, std::__ndk1::basic_string<char, std::__ndk1::char_traits<char>, std::__ndk1::allocator<char> > >, (std::__ndk1::__variant_detail::_Trait)1>, std::__ndk1::__variant_detail::__base<(std::__ndk1::__variant_detail::__traits<std::__ndk1::reference_wrapper<matjson::Value>, std::__ndk1::basic_string<char, std::__ndk1::char_traits<char>, std::__ndk1::allocator<char> > >)1, matjson::Value, std::__ndk1::allocator<char> >&)
FUNC 25f3c 4 0 std::__ndk1::__variant_detail::__visitation::__base::__dispatcher<(unsigned long)0>::__dispatch[abi:ne180000]<std::__ndk1::__variant_detail::__dtor<std::__ndk1::__variant_detail::__traits<bool, std::__ndk1::basic_string<char, std::__ndk1::char_traits<char>, std::__ndk1::allocator<char> > >, (std::__ndk1::__variant_detail::_Trait)1>::__destroy[abi:ne180000]()::{lambda(auto:1&)#1}, std::__ndk1::__variant_detail::__base<(std::__ndk1::__variant_detail::__traits<bool, std::__ndk1::basic_string<char, std::__ndk1::char_traits<char>, std::__ndk1::allocator<char> > >)1, bool, std::__ndk1::allocator<char> >&>(std::__ndk1::__variant_detail::__dtor<std::__ndk1::__variant_detail::__traits<bool, std::__ndk1::basic_string<char, std::__ndk1::char_traits<char>, std::__ndk1::allocator<char> > >, (std::__ndk1::__variant_detail::_Trait)1>, std::__ndk1::__variant_detail::__base<(std::__ndk1::__variant_detail::__traits<bool, std::__ndk1::basic_string<char, std::__ndk1::char_traits<char>, std::__ndk1::allocator<char> > >)1, bool, std::__ndk1::allocator<char> >&)
FUNC 25f40 14 0 std::__ndk1::__variant_detail::__visitation::__base::__dispatcher<(unsigned long)1>::__dispatch[abi:ne180000]<std::__ndk1::__variant_detail::__dtor<std::__ndk1::__variant_detail::__traits<bool, std::__ndk1::basic_string<char, std::__ndk1::char_traits<char>, std::__ndk1::allocator<char> > >, (std::__ndk1::__variant_detail::_Trait)1>::__destroy[abi:ne180000]()::{lambda(auto:1&)#1}, std::__ndk1::__variant_detail::__base<(std::__ndk1::__variant_detail::__traits<bool, std::__ndk1::basic_string<char, std::__ndk1::char_traits<char>, std::__ndk1::allocator<char> > >)1, bool, std::__ndk1::allocator<char> >&>(std::__ndk1::__variant_detail::__dtor<std::__ndk1::__variant_detail::__traits<bool, std::__ndk1::basic_string<char, std::__ndk1::char_traits<char>, std::__ndk1::allocator<char> > >, (std::__ndk1::__variant_detail::_Trait)1>, std::__ndk1::__variant_detail::__base<(std::__ndk1::__variant_detail::__traits<bool, std::__ndk1::basic_string<char, std::__ndk1::char_traits<char>, std::__ndk1::allocator<char> > >)1, bool, std::__ndk1::allocator<char> >&)
FUNC 25f54 558 0 MyItemInfoPopup::onUseMyColorsToggle(cocos2d::CCObject*)
FUNC 264ac dc 0 MyItemInfoPopup::onUseMyColors(cocos2d::CCObject*)
FUNC 26588 154 0 cocos2d::CCNode::getChildByType<GJGarageLayer, GJGarageLayer>(int)
FUNC 266dc 154 0 cocos2d::CCNode::getChildByType<SimplePlayer, SimplePlayer>(int)
FUNC 26830 62c 0 geode::modifier::FieldIntermediate<MyItemInfoPopup, ItemInfoPopup>::self()
FUNC 26e5c 18 0 geode::modifier::FieldIntermediate<MyItemInfoPopup, ItemInfoPopup>::fieldDestructor(void*)
FUNC 26e74 14 0 std::__ndk1::vector<void*, std::__ndk1::allocator<void*> >::__throw_length_error[abi:ne180000]() const
FUNC 26e88 14 0 std::__ndk1::vector<std::__ndk1::function<void (void*)>, std::__ndk1::allocator<std::__ndk1::function<void (void*)> > >::__throw_length_error[abi:ne180000]() const
FUNC 26e9c 14 0 std::__ndk1::vector<void*, std::__ndk1::allocator<void*> >::__throw_out_of_range[abi:ne180000]() const
FUNC 26eb0 14 0 std::__ndk1::vector<std::__ndk1::function<void (void*)>, std::__ndk1::allocator<std::__ndk1::function<void (void*)> > >::__throw_out_of_range[abi:ne180000]() const
FUNC 26ec4 4 0 std::__ndk1::__function::__base<void (void*)>::~__base()
FUNC 26ec8 4 0 std::__ndk1::__function::__func<void (*)(void*), std::__ndk1::allocator<void (*)(void*)>, void (void*)>::~__func()
FUNC 26ecc 38 0 std::__ndk1::__function::__func<void (*)(void*), std::__ndk1::allocator<void (*)(void*)>, void (void*)>::__clone() const
FUNC 26f04 18 0 std::__ndk1::__function::__func<void (*)(void*), std::__ndk1::allocator<void (*)(void*)>, void (void*)>::__clone(std::__ndk1::__function::__base<void (void*)>*) const
FUNC 26f1c 4 0 std::__ndk1::__function::__func<void (*)(void*), std::__ndk1::allocator<void (*)(void*)>, void (void*)>::destroy()
FUNC 26f20 4 0 std::__ndk1::__function::__func<void (*)(void*), std::__ndk1::allocator<void (*)(void*)>, void (void*)>::destroy_deallocate()
FUNC 26f24 10 0 std::__ndk1::__function::__func<void (*)(void*), std::__ndk1::allocator<void (*)(void*)>, void (void*)>::operator()(void*&&)
FUNC 26f34 1c 0 std::__ndk1::__function::__func<void (*)(void*), std::__ndk1::allocator<void (*)(void*)>, void (void*)>::target(std::type_info const&) const
FUNC 26f50 c 0 std::__ndk1::__function::__func<void (*)(void*), std::__ndk1::allocator<void (*)(void*)>, void (void*)>::target_type() const
FUNC 26f5c 14 0 std::__ndk1::vector<ProfilePage*, std::__ndk1::allocator<ProfilePage*> >::__throw_length_error[abi:ne180000]() const
FUNC 26f70 12c 0 MyItemInfoPopup::onColorClick(cocos2d::CCObject*)
FUNC 2709c 20 0 geode::cocos::CCArrayExt<CCMenuItemSpriteExtra*, CCMenuItemSpriteExtra>::~CCArrayExt()
FUNC 270bc 444 0 __cxx_global_var_init
FUNC 27500 1c 0 geode::modifier::ModifyBase<geode::modifier::ModifyDerive<MyProfilePage, ProfilePage> >::~ModifyBase()
FUNC 2751c 3d8 0 geode::modifier::ModifyDerive<MyProfilePage, ProfilePage>::apply()
FUNC 278f4 4 0 geode::modifier::ModifyBase<geode::modifier::ModifyDerive<MyProfilePage, ProfilePage> >::apply()
FUNC 278f8 c68 0 geode::modifier::AsStaticFunction_loadPageFromUserInfo<MyProfilePage, void (MyProfilePage::*)(GJUserScore*)>::Impl<void (MyProfilePage::*)(GJUserScore*)>::function(MyProfilePage*, GJUserScore*)
FUNC 28560 944 0 MyProfilePage::onIconClick(cocos2d::CCObject*)
FUNC 28ea4 70 0 std::__ndk1::unordered_map<std::__ndk1::basic_string<char, std::__ndk1::char_traits<char>, std::__ndk1::allocator<char> >, IconObject, std::__ndk1::hash<std::__ndk1::basic_string<char, std::__ndk1::char_traits<char>, std::__ndk1::allocator<char> > >, std::__ndk1::equal_to<std::__ndk1::basic_string<char, std::__ndk1::char_traits<char>, std::__ndk1::allocator<char> > >, std::__ndk1::allocator<std::__ndk1::pair<std::__ndk1::basic_string<char, std::__ndk1::char_traits<char>, std::__ndk1::allocator<char> > const, IconObject> > >::~unordered_map[abi:ne180000]()
FUNC 28f14 70 0 std::__ndk1::__hash_table<std::__ndk1::__hash_value_type<std::__ndk1::basic_string<char, std::__ndk1::char_traits<char>, std::__ndk1::allocator<char> >, IconObject>, std::__ndk1::__unordered_map_hasher<std::__ndk1::basic_string<char, std::__ndk1::char_traits<char>, std::__ndk1::allocator<char> >, std::__ndk1::__hash_value_type<std::__ndk1::basic_string<char, std::__ndk1::char_traits<char>, std::__ndk1::allocator<char> >, IconObject>, std::__ndk1::hash<std::__ndk1::basic_string<char, std::__ndk1::char_traits<char>, std::__ndk1::allocator<char> > >, std::__ndk1::equal_to<std::__ndk1::basic_string<char, std::__ndk1::char_traits<char>, std::__ndk1::allocator<char> > >, true>, std::__ndk1::__unordered_map_equal<std::__ndk1::basic_string<char, std::__ndk1::char_traits<char>, std::__ndk1::allocator<char> >, std::__ndk1::__hash_value_type<std::__ndk1::basic_string<char, std::__ndk1::char_traits<char>, std::__ndk1::allocator<char> >, IconObject>, std::__ndk1::equal_to<std::__ndk1::basic_string<char, std::__ndk1::char_traits<char>, std::__ndk1::allocator<char> > >, std::__ndk1::hash<std::__ndk1::basic_string<char, std::__ndk1::char_traits<char>, std::__ndk1::allocator<char> > >, true>, std::__ndk1::allocator<std::__ndk1::__hash_value_type<std::__ndk1::basic_string<char, std::__ndk1::char_traits<char>, std::__ndk1::allocator<char> >, IconObject> > >::~__hash_table()
FUNC 28f84 3c0 0 std::__ndk1::__hash_table<std::__ndk1::__hash_value_type<std::__ndk1::basic_string<char, std::__ndk1::char_traits<char>, std::__ndk1::allocator<char> >, IconObject>, std::__ndk1::__unordered_map_hasher<std::__ndk1::basic_string<char, std::__ndk1::char_traits<char>, std::__ndk1::allocator<char> >, std::__ndk1::__hash_value_type<std::__ndk1::basic_string<char, std::__ndk1::char_traits<char>, std::__ndk1::allocator<char> >, IconObject>, std::__ndk1::hash<std::__ndk1::basic_string<char, std::__ndk1::char_traits<char>, std::__ndk1::allocator<char> > >, std::__ndk1::equal_to<std::__ndk1::basic_string<char, std::__ndk1::char_traits<char>, std::__ndk1::allocator<char> > >, true>, std::__ndk1::__unordered_map_equal<std::__ndk1::basic_string<char, std::__ndk1::char_traits<char>, std::__ndk1::allocator<char> >, std::__ndk1::__hash_value_type<std::__ndk1::basic_string<char, std::__ndk1::char_traits<char>, std::__ndk1::allocator<char> >, IconObject>, std::__ndk1::equal_to<std::__ndk1::basic_string<char, std::__ndk1::char_traits<char>, std::__ndk1::allocator<char> > >, std::__ndk1::hash<std::__ndk1::basic_string<char, std::__ndk1::char_traits<char>, std::__ndk1::allocator<char> > >, true>, std::__ndk1::allocator<std::__ndk1::__hash_value_type<std::__ndk1::basic_string<char, std::__ndk1::char_traits<char>, std::__ndk1::allocator<char> >, IconObject> > >::__emplace_unique_key_args<std::__ndk1::basic_string<char, std::__ndk1::char_traits<char>, std::__ndk1::allocator<char> >, std::__ndk1::pair<std::__ndk1::basic_string<char, std::__ndk1::char_traits<char>, std::__ndk1::allocator<char> > const, IconObject> const&>(std::__ndk1::basic_string<char, std::__ndk1::char_traits<char>, std::__ndk1::allocator<char> > const&, std::__ndk1::pair<std::__ndk1::basic_string<char, std::__ndk1::char_traits<char>, std::__ndk1::allocator<char> > const, IconObject> const&)
FUNC 29344 50 0 std::__ndk1::unique_ptr<std::__ndk1::__hash_node<std::__ndk1::__hash_value_type<std::__ndk1::basic_string<char, std::__ndk1::char_traits<char>, std::__ndk1::allocator<char> >, IconObject>, void*>, std::__ndk1::__hash_node_destructor<std::__ndk1::allocator<std::__ndk1::__hash_node<std::__ndk1::__hash_value_type<std::__ndk1::basic_string<char, std::__ndk1::char_traits<char>, std::__ndk1::allocator<char> >, IconObject>, void*> > > >::~unique_ptr[abi:ne180000]()
FUNC 29394 444 0 std::__ndk1::__murmur2_or_cityhash<unsigned long, (unsigned long)64>::operator()[abi:ne180000](void const*, unsigned long) const
FUNC 297d8 15c 0 std::__ndk1::__hash_table<std::__ndk1::__hash_value_type<std::__ndk1::basic_string<char, std::__ndk1::char_traits<char>, std::__ndk1::allocator<char> >, IconObject>, std::__ndk1::__unordered_map_hasher<std::__ndk1::basic_string<char, std::__ndk1::char_traits<char>, std::__ndk1::allocator<char> >, std::__ndk1::__hash_value_type<std::__ndk1::basic_string<char, std::__ndk1::char_traits<char>, std::__ndk1::allocator<char> >, IconObject>, std::__ndk1::hash<std::__ndk1::basic_string<char, std::__ndk1::char_traits<char>, std::__ndk1::allocator<char> > >, std::__ndk1::equal_to<std::__ndk1::basic_string<char, std::__ndk1::char_traits<char>, std::__ndk1::allocator<char> > >, true>, std::__ndk1::__unordered_map_equal<std::__ndk1::basic_string<char, std::__ndk1::char_traits<char>, std::__ndk1::allocator<char> >, std::__ndk1::__hash_value_type<std::__ndk1::basic_string<char, std::__ndk1::char_traits<char>, std::__ndk1::allocator<char> >, IconObject>, std::__ndk1::equal_to<std::__ndk1::basic_string<char, std::__ndk1::char_traits<char>, std::__ndk1::allocator<char> > >, std::__ndk1::hash<std::__ndk1::basic_string<char, std::__ndk1::char_traits<char>, std::__ndk1::allocator<char> > >, true>, std::__ndk1::allocator<std::__ndk1::__hash_value_type<std::__ndk1::basic_string<char, std::__ndk1::char_traits<char>, std::__ndk1::allocator<char> >, IconObject> > >::__do_rehash<true>(unsigned long)
FUNC 29934 154 0 cocos2d::CCNode::getChildByType<cocos2d::CCSprite, cocos2d::CCSprite>(int)
FUNC 29a88 4 0 std::__ndk1::__function::__base<void (FLAlertLayer*, bool)>::~__base()
FUNC 29a8c 4 0 std::__ndk1::__function::__func<MyProfilePage::loadPageFromUserInfo(GJUserScore*)::{lambda(auto:1, bool)#1}, std::__ndk1::allocator<MyProfilePage::loadPageFromUserInfo(GJUserScore*)::{lambda(auto:1, bool)#1}>, void (FLAlertLayer*, bool)>::~__func()
FUNC 29a90 24 0 std::__ndk1::__function::__func<MyProfilePage::loadPageFromUserInfo(GJUserScore*)::{lambda(auto:1, bool)#1}, std::__ndk1::allocator<MyProfilePage::loadPageFromUserInfo(GJUserScore*)::{lambda(auto:1, bool)#1}>, void (FLAlertLayer*, bool)>::__clone() const
FUNC 29ab4 10 0 std::__ndk1::__function::__func<MyProfilePage::loadPageFromUserInfo(GJUserScore*)::{lambda(auto:1, bool)#1}, std::__ndk1::allocator<MyProfilePage::loadPageFromUserInfo(GJUserScore*)::{lambda(auto:1, bool)#1}>, void (FLAlertLayer*, bool)>::__clone(std::__ndk1::__function::__base<void (FLAlertLayer*, bool)>*) const
FUNC 29ac4 4 0 std::__ndk1::__function::__func<MyProfilePage::loadPageFromUserInfo(GJUserScore*)::{lambda(auto:1, bool)#1}, std::__ndk1::allocator<MyProfilePage::loadPageFromUserInfo(GJUserScore*)::{lambda(auto:1, bool)#1}>, void (FLAlertLayer*, bool)>::destroy()
FUNC 29ac8 4 0 std::__ndk1::__function::__func<MyProfilePage::loadPageFromUserInfo(GJUserScore*)::{lambda(auto:1, bool)#1}, std::__ndk1::allocator<MyProfilePage::loadPageFromUserInfo(GJUserScore*)::{lambda(auto:1, bool)#1}>, void (FLAlertLayer*, bool)>::destroy_deallocate()
FUNC 29acc 7c 0 std::__ndk1::__function::__func<MyProfilePage::loadPageFromUserInfo(GJUserScore*)::{lambda(auto:1, bool)#1}, std::__ndk1::allocator<MyProfilePage::loadPageFromUserInfo(GJUserScore*)::{lambda(auto:1, bool)#1}>, void (FLAlertLayer*, bool)>::operator()(FLAlertLayer*&&, bool&&)
FUNC 29b48 1c 0 std::__ndk1::__function::__func<MyProfilePage::loadPageFromUserInfo(GJUserScore*)::{lambda(auto:1, bool)#1}, std::__ndk1::allocator<MyProfilePage::loadPageFromUserInfo(GJUserScore*)::{lambda(auto:1, bool)#1}>, void (FLAlertLayer*, bool)>::target(std::type_info const&) const
FUNC 29b64 c 0 std::__ndk1::__function::__func<MyProfilePage::loadPageFromUserInfo(GJUserScore*)::{lambda(auto:1, bool)#1}, std::__ndk1::allocator<MyProfilePage::loadPageFromUserInfo(GJUserScore*)::{lambda(auto:1, bool)#1}>, void (FLAlertLayer*, bool)>::target_type() const
FUNC 29b70 400 0 __cxx_global_var_init
FUNC 29f70 1c 0 geode::modifier::ModifyBase<geode::modifier::ModifyDerive<hook6<(anonymous namespace)::hook6Parent>, PurchaseItemPopup> >::~ModifyBase()
FUNC 29f8c 3dc 0 geode::modifier::ModifyDerive<hook6<(anonymous namespace)::hook6Parent>, PurchaseItemPopup>::apply()
FUNC 2a368 4 0 geode::modifier::ModifyBase<geode::modifier::ModifyDerive<hook6<(anonymous namespace)::hook6Parent>, PurchaseItemPopup> >::apply()
FUNC 2a36c d98 0 geode::modifier::AsStaticFunction_onPurchase<hook6<(anonymous namespace)::hook6Parent>, void (hook6<(anonymous namespace)::hook6Parent>::*)(cocos2d::CCObject*)>::Impl<void (hook6<(anonymous namespace)::hook6Parent>::*)(cocos2d::CCObject*)>::function(hook6<(anonymous namespace)::hook6Parent>*, cocos2d::CCObject*)
FUNC 2b104 bc 0 cocos2d::CCNode::getChildByType<ColorChannelSprite, ColorChannelSprite>(int)
FUNC 2b1c0 30 0 geodeImplicitEntry
FUNC 2b1f0 4c 0 std::__ndk1::unordered_map<void*, bool, std::__ndk1::hash<void*>, std::__ndk1::equal_to<void*>, std::__ndk1::allocator<std::__ndk1::pair<void* const, bool> > >::~unordered_map[abi:ne180000]()
FUNC 2b23c 134 0 wrapFunction(unsigned long, tulip::hook::WrapperMetadata const&)
FUNC 2b370 78 0 geode::impl::ResultData<void*, std::__ndk1::basic_string<char, std::__ndk1::char_traits<char>, std::__ndk1::allocator<char> > >::unwrapErr() &
FUNC 2b3e8 74 0 geode::impl::ResultData<void*, std::__ndk1::basic_string<char, std::__ndk1::char_traits<char>, std::__ndk1::allocator<char> > >::~ResultData()
FUNC 2b45c 64 0 tulip::hook::WrapperMetadata::~WrapperMetadata()
FUNC 2b4c0 224 0 cocos2d::CCObject::CCObject()
FUNC 2b6e4 24 0 cocos2d::CCObject::~CCObject()
FUNC 2b708 150 0 cocos2d::CCDictionary::objectForKey(gd::string const&)
FUNC 2b858 a8 0 tulip::hook::AbstractFunction::from<cocos2d::CCObject*, cocos2d::CCDictionary*, gd::string const&>(cocos2d::CCObject* (*)(cocos2d::CCDictionary*, gd::string const&))
FUNC 2b900 1b8 0 FLAlertLayer::create(FLAlertLayerProtocol*, char const*, gd::string, char const*, char const*, float)
FUNC 2bab8 460 0 tulip::hook::AbstractFunction::from<FLAlertLayer*, FLAlertLayerProtocol*, char const*, gd::string, char const*, char const*, float>(FLAlertLayer* (*)(FLAlertLayerProtocol*, char const*, gd::string, char const*, char const*, float))
FUNC 2bf18 ac 0 FLAlertLayer::create(char const*, gd::string const&, char const*)
FUNC 2bfc4 1f8 0 CCMenuItemToggler::createWithStandardSprites(cocos2d::CCObject*, void (cocos2d::CCObject::*)(cocos2d::CCObject*), float)
FUNC 2c1bc 178 0 FMODAudioEngine::playEffect(gd::string)
FUNC 2c334 a4 0 tulip::hook::AbstractFunction::from<void, FMODAudioEngine*, gd::string>(void (*)(FMODAudioEngine*, gd::string))
FUNC 2c3d8 4c4 0 cocos2d::CCObject::~CCObject()
FUNC 2c89c 154 0 _ZN5geode15UnwrapExceptionC2IRPvQsr4implE18IsStringStreamableIT_EEENS_4impl5OkTagEOS4_
FUNC 2c9f0 4 0 std::__ndk1::__variant_detail::__visitation::__base::__dispatcher<(unsigned long)0>::__dispatch[abi:ne180000]<std::__ndk1::__variant_detail::__dtor<std::__ndk1::__variant_detail::__traits<void*, std::__ndk1::basic_string<char, std::__ndk1::char_traits<char>, std::__ndk1::allocator<char> > >, (std::__ndk1::__variant_detail::_Trait)1>::__destroy[abi:ne180000]()::{lambda(auto:1&)#1}, std::__ndk1::__variant_detail::__base<(std::__ndk1::__variant_detail::__traits<void*, std::__ndk1::basic_string<char, std::__ndk1::char_traits<char>, std::__ndk1::allocator<char> > >)1, std::__ndk1::__variant_detail::__traits, std::__ndk1::allocator<char> >&>(std::__ndk1::__variant_detail::__dtor<std::__ndk1::__variant_detail::__traits<void*, std::__ndk1::basic_string<char, std::__ndk1::char_traits<char>, std::__ndk1::allocator<char> > >, (std::__ndk1::__variant_detail::_Trait)1>, std::__ndk1::__variant_detail::__base<(std::__ndk1::__variant_detail::__traits<void*, std::__ndk1::basic_string<char, std::__ndk1::char_traits<char>, std::__ndk1::allocator<char> > >)1, std::__ndk1::__variant_detail::__traits, std::__ndk1::allocator<char> >&)
FUNC 2c9f4 14 0 std::__ndk1::__variant_detail::__visitation::__base::__dispatcher<(unsigned long)1>::__dispatch[abi:ne180000]<std::__ndk1::__variant_detail::__dtor<std::__ndk1::__variant_detail::__traits<void*, std::__ndk1::basic_string<char, std::__ndk1::char_traits<char>, std::__ndk1::allocator<char> > >, (std::__ndk1::__variant_detail::_Trait)1>::__destroy[abi:ne180000]()::{lambda(auto:1&)#1}, std::__ndk1::__variant_detail::__base<(std::__ndk1::__variant_detail::__traits<void*, std::__ndk1::basic_string<char, std::__ndk1::char_traits<char>, std::__ndk1::allocator<char> > >)1, std::__ndk1::__variant_detail::__traits, std::__ndk1::allocator<char> >&>(std::__ndk1::__variant_detail::__dtor<std::__ndk1::__variant_detail::__traits<void*, std::__ndk1::basic_string<char, std::__ndk1::char_traits<char>, std::__ndk1::allocator<char> > >, (std::__ndk1::__variant_detail::_Trait)1>, std::__ndk1::__variant_detail::__base<(std::__ndk1::__variant_detail::__traits<void*, std::__ndk1::basic_string<char, std::__ndk1::char_traits<char>, std::__ndk1::allocator<char> > >)1, std::__ndk1::__variant_detail::__traits, std::__ndk1::allocator<char> >&)
FUNC 2ca08 43c 0 std::__ndk1::__hash_table<std::__ndk1::__hash_value_type<void*, bool>, std::__ndk1::__unordered_map_hasher<void*, std::__ndk1::__hash_value_type<void*, bool>, std::__ndk1::hash<void*>, std::__ndk1::equal_to<void*>, true>, std::__ndk1::__unordered_map_equal<void*, std::__ndk1::__hash_value_type<void*, bool>, std::__ndk1::equal_to<void*>, std::__ndk1::hash<void*>, true>, std::__ndk1::allocator<std::__ndk1::__hash_value_type<void*, bool> > >::__emplace_unique_key_args<void*, std::__ndk1::piecewise_construct_t const&, std::__ndk1::tuple<void* const&>, std::__ndk1::tuple<> >(void* const&, std::__ndk1::piecewise_construct_t const&, std::__ndk1::tuple<void* const&>, std::__ndk1::tuple<>)
PUBLIC 2ce44 0 __udivti3
PUBLIC 2ce50 0 __udivmodti4
PUBLIC m 2d09c 0 __eqtf2
PUBLIC 2d13c 0 __unordtf2
FUNC 2d174 294 0 fmt::v11::detail::write_loc(fmt::v11::basic_appender<char>, fmt::v11::loc_value, fmt::v11::format_specs const&, fmt::v11::detail::locale_ref)
FUNC 2d408 70 0 fmt::v11::format_facet<std::__ndk1::locale>::~format_facet()
FUNC 2d478 50 0 fmt::v11::report_error(char const*)
FUNC 2d4c8 2c 0 fmt::v11::format_error::runtime_error(char const*)
FUNC 2d4f4 750 0 fmt::v11::format_facet<std::__ndk1::locale>::do_put(fmt::v11::basic_appender<char>, fmt::v11::loc_value, fmt::v11::format_specs const&) const
FUNC 2dc44 64 0 fmt::v11::detail::loc_writer<char>::~loc_writer()
FUNC 2dca8 12c 0 fmt::v11::vformat(fmt::v11::basic_string_view<char>, fmt::v11::basic_format_args<fmt::v11::context>)
FUNC 2ddd4 3c8 0 fmt::v11::detail::vformat_to<char>(fmt::v11::detail::buffer<char>&, fmt::v11::basic_string_view<char>, fmt::v11::detail::vformat_args<char>::type, fmt::v11::detail::locale_ref)
FUNC 2e19c 228 0 fmt::v11::detail::is_printable(unsigned int)
FUNC 2e3c4 2b4 0 fmt::v11::detail::dragonbox::to_decimal<float>(float)
FUNC 2e678 530 0 fmt::v11::detail::dragonbox::to_decimal<double>(double)
FUNC 2eba8 78 0 fmt::v11::basic_memory_buffer<char, (unsigned long)500, std::__ndk1::allocator<char> >::grow(fmt::v11::detail::buffer<char>&, unsigned long)
FUNC 2ec20 78 0 fmt::v11::format_facet<std::__ndk1::locale>::~format_facet()
FUNC 2ec98 24 0 fmt::v11::format_error::~format_error()
FUNC 2ecbc 150 0 fmt::v11::detail::copy_noinline<char, char const*, fmt::v11::basic_appender<char> >(char const*, char const*, fmt::v11::basic_appender<char>)
FUNC 2ee0c 6c 0 fmt::v11::detail::default_arg_formatter<char>::operator()<bool>(bool)
FUNC 2ee78 74 0 fmt::v11::detail::default_arg_formatter<char>::operator()<char>(char)
FUNC 2eeec f0 0 fmt::v11::detail::default_arg_formatter<char>::operator()<float>(float)
FUNC 2efdc f0 0 fmt::v11::detail::default_arg_formatter<char>::operator()<double>(double)
FUNC 2f0cc 48 0 fmt::v11::detail::default_arg_formatter<char>::operator()<char const*>(char const*)
FUNC 2f114 9c 0 fmt::v11::detail::default_arg_formatter<char>::operator()<void const*>(void const*)
FUNC 2f1b0 220 0 _ZN3fmt3v116detail5writeIcNS0_14basic_appenderIcEEiTnNSt6__ndk19enable_ifIXaaaasr11is_integralIT1_EE5valuentsr3std7is_sameIS7_bEE5valuentsr3std7is_sameIS7_T_EE5valueEiE4typeELi0EEET0_SB_S7_
FUNC 2f3d0 150 0 fmt::v11::detail::copy_noinline<char, char*, fmt::v11::basic_appender<char> >(char*, char*, fmt::v11::basic_appender<char>)
FUNC 2f520 1c4 0 _ZN3fmt3v116detail5writeIcNS0_14basic_appenderIcEEjTnNSt6__ndk19enable_ifIXaaaasr11is_integralIT1_EE5valuentsr3std7is_sameIS7_bEE5valuentsr3std7is_sameIS7_T_EE5valueEiE4typeELi0EEET0_SB_S7_
FUNC 2f6e4 244 0 _ZN3fmt3v116detail5writeIcNS0_14basic_appenderIcEExTnNSt6__ndk19enable_ifIXaaaasr11is_integralIT1_EE5valuentsr3std7is_sameIS7_bEE5valuentsr3std7is_sameIS7_T_EE5valueEiE4typeELi0EEET0_SB_S7_
FUNC 2f928 1ec 0 _ZN3fmt3v116detail5writeIcNS0_14basic_appenderIcEEyTnNSt6__ndk19enable_ifIXaaaasr11is_integralIT1_EE5valuentsr3std7is_sameIS7_bEE5valuentsr3std7is_sameIS7_T_EE5valueEiE4typeELi0EEET0_SB_S7_
FUNC 2fb14 304 0 _ZN3fmt3v116detail5writeIcNS0_14basic_appenderIcEEnTnNSt6__ndk19enable_ifIXaaaasr11is_integralIT1_EE5valuentsr3std7is_sameIS7_bEE5valuentsr3std7is_sameIS7_T_EE5valueEiE4typeELi0EEET0_SB_S7_
FUNC 2fe18 2a4 0 _ZN3fmt3v116detail5writeIcNS0_14basic_appenderIcEEoTnNSt6__ndk19enable_ifIXaaaasr11is_integralIT1_EE5valuentsr3std7is_sameIS7_bEE5valuentsr3std7is_sameIS7_T_EE5valueEiE4typeELi0EEET0_SB_S7_
FUNC 300bc 290 0 _ZN3fmt3v116detail5writeIcNS0_14basic_appenderIcEEbTnNSt6__ndk19enable_ifIXsr3std7is_sameIT1_bEE5valueEiE4typeELi0EEET0_SA_S7_RKNS0_12format_specsENS1_10locale_refE
FUNC 3034c dc0 0 fmt::v11::detail::write_int_noinline<char, fmt::v11::basic_appender<char>, unsigned int>(fmt::v11::basic_appender<char>, fmt::v11::detail::write_int_arg<unsigned int>, fmt::v11::format_specs const&, fmt::v11::detail::locale_ref)
FUNC 3110c 1d0 0 fmt::v11::detail::fill<char, fmt::v11::basic_appender<char> >(fmt::v11::basic_appender<char>, unsigned long, fmt::v11::detail::fill_t const&)
FUNC 312dc 22c 0 fmt::v11::detail::write_padded<char, (fmt::v11::align::type)1, fmt::v11::basic_appender<char>, fmt::v11::detail::write_char<char, fmt::v11::basic_appender<char> >(fmt::v11::basic_appender<char>, char, fmt::v11::format_specs const&)::{lambda(fmt::v11::basic_appender<char>&)#1}>(fmt::v11::basic_appender<char>, fmt::v11::format_specs const&, unsigned long, unsigned long, fmt::v11::detail::write_char<char, fmt::v11::basic_appender<char> >(fmt::v11::basic_appender<char>, char, fmt::v11::format_specs const&)::{lambda(fmt::v11::basic_appender<char>&)#1})
FUNC 31508 30c 0 fmt::v11::detail::write_escaped_cp<fmt::v11::basic_appender<char>, char>(fmt::v11::basic_appender<char>, fmt::v11::detail::find_escape_result<char> const&)
FUNC 31814 178 0 fmt::v11::detail::write_codepoint<(unsigned long)2, char, fmt::v11::basic_appender<char> >(fmt::v11::basic_appender<char>, char, unsigned int)
FUNC 3198c 178 0 fmt::v11::detail::write_codepoint<(unsigned long)8, char, fmt::v11::basic_appender<char> >(fmt::v11::basic_appender<char>, char, unsigned int)
FUNC 31b04 240 0 fmt::v11::detail::write_padded<char, (fmt::v11::align::type)1, fmt::v11::basic_appender<char>, fmt::v11::detail::write_nonfinite<char, fmt::v11::basic_appender<char> >(fmt::v11::basic_appender<char>, bool, fmt::v11::format_specs, fmt::v11::sign::type)::{lambda(fmt::v11::basic_appender<char>&)#1}>(fmt::v11::basic_appender<char>, fmt::v11::format_specs const&, unsigned long, unsigned long, fmt::v11::detail::write_nonfinite<char, fmt::v11::basic_appender<char> >(fmt::v11::basic_appender<char>, bool, fmt::v11::format_specs, fmt::v11::sign::type)::{lambda(fmt::v11::basic_appender<char>&)#1})
FUNC 31d44 c2c 0 fmt::v11::detail::do_write_float<char, fmt::v11::basic_appender<char>, fmt::v11::detail::dragonbox::decimal_fp<float>, fmt::v11::detail::digit_grouping<char> >(fmt::v11::basic_appender<char>, fmt::v11::detail::dragonbox::decimal_fp<float> const&, fmt::v11::format_specs const&, fmt::v11::detail::float_specs, fmt::v11::detail::locale_ref)
FUNC 32970 154 0 fmt::v11::detail::do_write_float<char, fmt::v11::basic_appender<char>, fmt::v11::detail::dragonbox::decimal_fp<float>, fmt::v11::detail::digit_grouping<char> >(fmt::v11::basic_appender<char>, fmt::v11::detail::dragonbox::decimal_fp<float> const&, fmt::v11::format_specs const&, fmt::v11::detail::float_specs, fmt::v11::detail::locale_ref)::{lambda(fmt::v11::basic_appender<char>(fmt::v11::basic_appender<char>))#1}::operator() const
FUNC 32ac4 238 0 fmt::v11::detail::digit_grouping<char>::digit_grouping(fmt::v11::detail::locale_ref, bool)
FUNC 32cfc 44 0 fmt::v11::detail::digit_grouping<char>::~digit_grouping()
FUNC 32d40 1a4 0 fmt::v11::detail::write_exponent<char, fmt::v11::basic_appender<char> >(int, fmt::v11::basic_appender<char>)
FUNC 32ee4 17c 0 _ZN3fmt3v116detail17write_significandIcjTnNSt6__ndk19enable_ifIXsr3std11is_integralIT0_EE5valueEiE4typeELi0EEEPT_S9_S5_iiS8_
FUNC 33060 3a4 0 fmt::v11::detail::digit_grouping<char>::apply<fmt::v11::basic_appender<char>, char>(fmt::v11::basic_appender<char>, fmt::v11::basic_string_view<char>) const
FUNC 33404 a0 0 fmt::v11::basic_memory_buffer<int, (unsigned long)500, std::__ndk1::allocator<int> >::grow(fmt::v11::detail::buffer<int>&, unsigned long)
FUNC 334a4 c6c 0 fmt::v11::detail::do_write_float<char, fmt::v11::basic_appender<char>, fmt::v11::detail::dragonbox::decimal_fp<double>, fmt::v11::detail::digit_grouping<char> >(fmt::v11::basic_appender<char>, fmt::v11::detail::dragonbox::decimal_fp<double> const&, fmt::v11::format_specs const&, fmt::v11::detail::float_specs, fmt::v11::detail::locale_ref)
FUNC 34110 158 0 fmt::v11::detail::do_write_float<char, fmt::v11::basic_appender<char>, fmt::v11::detail::dragonbox::decimal_fp<double>, fmt::v11::detail::digit_grouping<char> >(fmt::v11::basic_appender<char>, fmt::v11::detail::dragonbox::decimal_fp<double> const&, fmt::v11::format_specs const&, fmt::v11::detail::float_specs, fmt::v11::detail::locale_ref)::{lambda(fmt::v11::basic_appender<char>(fmt::v11::basic_appender<char>))#1}::operator() const
FUNC 34268 190 0 _ZN3fmt3v116detail17write_significandIcmTnNSt6__ndk19enable_ifIXsr3std11is_integralIT0_EE5valueEiE4typeELi0EEEPT_S9_S5_iiS8_
FUNC 343f8 ad4 0 fmt::v11::detail::write_float<char, fmt::v11::basic_appender<char>, long double>(fmt::v11::basic_appender<char>, long double, fmt::v11::format_specs, fmt::v11::detail::locale_ref)
FUNC 34ecc 1dc 0 fmt::v11::detail::write_padded<char, (fmt::v11::align::type)2, fmt::v11::basic_appender<char>, fmt::v11::detail::write_bytes<char, (fmt::v11::align::type)2, fmt::v11::basic_appender<char> >(fmt::v11::basic_appender<char>, fmt::v11::basic_string_view<char>, fmt::v11::format_specs const&)::{lambda(fmt::v11::basic_appender<char>&)#1}>(fmt::v11::basic_appender<char>, fmt::v11::format_specs const&, unsigned long, unsigned long, fmt::v11::detail::write_bytes<char, (fmt::v11::align::type)2, fmt::v11::basic_appender<char> >(fmt::v11::basic_appender<char>, fmt::v11::basic_string_view<char>, fmt::v11::format_specs const&)::{lambda(fmt::v11::basic_appender<char>&)#1})
FUNC 350a8 1350 0 fmt::v11::detail::format_dragon(fmt::v11::detail::basic_fp<unsigned __int128>, unsigned int, int, fmt::v11::detail::buffer<char>&, int&)
FUNC 363f8 124 0 fmt::v11::detail::bigint::operator<<=(int)
FUNC 3651c 744 0 fmt::v11::detail::bigint::assign_pow10(int)
FUNC 36c60 2f4 0 fmt::v11::detail::bigint::divmod_assign(fmt::v11::detail::bigint const&)
FUNC 36f54 a0 0 fmt::v11::basic_memory_buffer<unsigned int, (unsigned long)32, std::__ndk1::allocator<unsigned int> >::grow(fmt::v11::detail::buffer<unsigned int>&, unsigned long)
FUNC 36ff4 e84 0 fmt::v11::detail::do_write_float<char, fmt::v11::basic_appender<char>, fmt::v11::detail::big_decimal_fp, fmt::v11::detail::digit_grouping<char> >(fmt::v11::basic_appender<char>, fmt::v11::detail::big_decimal_fp const&, fmt::v11::format_specs const&, fmt::v11::detail::float_specs, fmt::v11::detail::locale_ref)
FUNC 37e78 160 0 fmt::v11::detail::do_write_float<char, fmt::v11::basic_appender<char>, fmt::v11::detail::big_decimal_fp, fmt::v11::detail::digit_grouping<char> >(fmt::v11::basic_appender<char>, fmt::v11::detail::big_decimal_fp const&, fmt::v11::format_specs const&, fmt::v11::detail::float_specs, fmt::v11::detail::locale_ref)::{lambda(fmt::v11::basic_appender<char>(fmt::v11::basic_appender<char>))#1}::operator() const
FUNC 37fd8 214 0 fmt::v11::detail::write_padded<char, (fmt::v11::align::type)2, fmt::v11::basic_appender<char>, fmt::v11::detail::write_ptr<char, fmt::v11::basic_appender<char>, unsigned long>(fmt::v11::basic_appender<char>, unsigned long, fmt::v11::format_specs const*)::{lambda(fmt::v11::basic_appender<char>&)#1}>(fmt::v11::basic_appender<char>, fmt::v11::format_specs const&, unsigned long, unsigned long, fmt::v11::detail::write_ptr<char, fmt::v11::basic_appender<char>, unsigned long>(fmt::v11::basic_appender<char>, unsigned long, fmt::v11::format_specs const*)::{lambda(fmt::v11::basic_appender<char>&)#1})
FUNC 381ec 1c3c 0 fmt::v11::detail::parse_replacement_field<char, fmt::v11::detail::vformat_to<char>(fmt::v11::detail::buffer<char>&, fmt::v11::basic_string_view<char>, fmt::v11::detail::vformat_args<char>::type, fmt::v11::detail::locale_ref)::format_handler&>(char const*, char const*, fmt::v11::detail::vformat_to<char>(fmt::v11::detail::buffer<char>&, fmt::v11::basic_string_view<char>, fmt::v11::detail::vformat_args<char>::type, fmt::v11::detail::locale_ref)::format_handler&)
FUNC 39e28 288 0 fmt::v11::detail::parse_dynamic_spec<char>(char const*, char const*, int&, fmt::v11::detail::arg_ref<char>&, fmt::v11::basic_format_parse_context<char>&)
FUNC 3a0b0 158 0 fmt::v11::basic_format_args<fmt::v11::context>::get<char>(fmt::v11::basic_string_view<char>) const
FUNC 3a208 e24 0 fmt::v11::detail::write_int_noinline<char, fmt::v11::basic_appender<char>, unsigned long>(fmt::v11::basic_appender<char>, fmt::v11::detail::write_int_arg<unsigned long>, fmt::v11::format_specs const&, fmt::v11::detail::locale_ref)
FUNC 3b02c fc8 0 fmt::v11::detail::write_int_noinline<char, fmt::v11::basic_appender<char>, unsigned __int128>(fmt::v11::basic_appender<char>, fmt::v11::detail::write_int_arg<unsigned __int128>, fmt::v11::format_specs const&, fmt::v11::detail::locale_ref)
FUNC 3bff4 510 0 _ZN3fmt3v116detail15format_hexfloatIdTnNSt6__ndk19enable_ifIXntsr16is_double_doubleIT_EE5valueEiE4typeELi0EEEvS5_NS0_12format_specsERNS1_6bufferIcEE
FUNC 3c504 98c 0 fmt::v11::detail::format_float<double>(double, int, fmt::v11::detail::float_specs, fmt::v11::detail::buffer<char>&)
FUNC 3ce90 cb8 0 fmt::v11::detail::write<char, fmt::v11::basic_appender<char> >(fmt::v11::basic_appender<char>, fmt::v11::basic_string_view<char>, fmt::v11::format_specs const&)
FUNC 3db48 17c 0 fmt::v11::detail::for_each_codepoint<fmt::v11::detail::find_escape(char const*, char const*)::{lambda(unsigned int, fmt::v11::basic_string_view<char>)#1}>(fmt::v11::basic_string_view<char>, fmt::v11::detail::find_escape(char const*, char const*)::{lambda(unsigned int, fmt::v11::basic_string_view<char>)#1})::{lambda(char const*, char const*)#1}::operator()(char const*, char const*) const
FUNC 3dcc4 1b8 0 fmt::v11::detail::for_each_codepoint<fmt::v11::detail::compute_width(fmt::v11::basic_string_view<char>)::count_code_points>(fmt::v11::basic_string_view<char>, fmt::v11::detail::compute_width(fmt::v11::basic_string_view<char>)::count_code_points)::{lambda(char const*, char const*)#1}::operator()(char const*, char const*) const
FUNC 3de7c 570 0 fmt::v11::detail::write_int<fmt::v11::basic_appender<char>, unsigned long, char>(fmt::v11::basic_appender<char>, unsigned long, unsigned int, fmt::v11::format_specs const&, fmt::v11::detail::digit_grouping<char> const&)
FUNC 3e3ec 664 0 fmt::v11::detail::write_int<fmt::v11::basic_appender<char>, unsigned __int128, char>(fmt::v11::basic_appender<char>, unsigned __int128, unsigned int, fmt::v11::format_specs const&, fmt::v11::detail::digit_grouping<char> const&)
PUBLIC 3ea50 0 <.plt ELF section in rynat.better_unlock_info.android64.so>
STACK CFI INIT 124a0 10 .cfa: sp 0 +
STACK CFI INIT 124b0 8 .cfa: sp 0 +
STACK CFI INIT 124b8 8 .cfa: sp 0 +
STACK CFI INIT 124c0 14 .cfa: sp 0 +
STACK CFI INIT 124d4 1c .cfa: sp 0 +
STACK CFI INIT 124f0 10 .cfa: sp 0 +
STACK CFI INIT 12500 134 .cfa: sp 0 +
STACK CFI INIT 12634 84 .cfa: sp 0 +
STACK CFI INIT 126b8 f4 .cfa: sp 0 +
STACK CFI INIT 127ac a8 .cfa: sp 0 +
STACK CFI INIT 12854 7c .cfa: sp 0 +
STACK CFI INIT 128d0 14 .cfa: sp 0 +
STACK CFI INIT 128e4 40 .cfa: sp 0 +
STACK CFI INIT 12924 28 .cfa: sp 0 +
STACK CFI INIT 1294c 190 .cfa: sp 0 +
STACK CFI INIT 12adc 2c8 .cfa: sp 0 +
STACK CFI INIT 12da4 8 .cfa: sp 0 +
STACK CFI INIT 12dac 8 .cfa: sp 0 +
STACK CFI INIT 12db4 44 .cfa: sp 0 +
STACK CFI INIT 12df8 e8 .cfa: sp 0 +
STACK CFI INIT 12ee0 e8 .cfa: sp 0 +
STACK CFI INIT 12fc8 14 .cfa: sp 0 +
STACK CFI INIT 12fdc 10 .cfa: sp 0 +
STACK CFI INIT 12fec 10 .cfa: sp 0 +
STACK CFI INIT 12ffc f0 .cfa: sp 0 +
STACK CFI INIT 130ec 44 .cfa: sp 0 +
STACK CFI INIT 13130 c .cfa: sp 0 +
STACK CFI INIT 1313c c .cfa: sp 0 +
STACK CFI INIT 13148 2c .cfa: sp 0 +
STACK CFI INIT 13174 280 .cfa: sp 0 +
STACK CFI INIT 133f4 c .cfa: sp 0 +
STACK CFI INIT 13400 120 .cfa: sp 0 +
STACK CFI INIT 13520 488 .cfa: sp 0 +
STACK CFI INIT 139a8 c48 .cfa: sp 0 +
STACK CFI INIT 145f0 134 .cfa: sp 0 +
STACK CFI INIT 14724 210 .cfa: sp 0 +
STACK CFI INIT 14934 38c .cfa: sp 0 +
STACK CFI INIT 14cc0 1c8 .cfa: sp 0 +
STACK CFI INIT 14e88 9bc .cfa: sp 0 +
STACK CFI INIT 15844 2d4 .cfa: sp 0 +
STACK CFI INIT 15b18 134 .cfa: sp 0 +
STACK CFI INIT 15c4c 120 .cfa: sp 0 +
STACK CFI INIT 15d6c 1c8 .cfa: sp 0 +
STACK CFI INIT 15f34 168 .cfa: sp 0 +
STACK CFI INIT 1609c fc .cfa: sp 0 +
STACK CFI INIT 16198 30 .cfa: sp 0 +
STACK CFI INIT 16300 30 .cfa: sp 0 +
STACK CFI INIT 16330 98 .cfa: sp 0 +
STACK CFI INIT 163c8 59c .cfa: sp 0 +
STACK CFI INIT 16964 8c .cfa: sp 0 +
STACK CFI INIT 169f0 30 .cfa: sp 0 +
STACK CFI INIT 17080 1c .cfa: sp 0 +
STACK CFI INIT 174a0 50 .cfa: sp 0 +
STACK CFI 174a4 .cfa: sp 32 +
STACK CFI 174ac .cfa: x29 32 + x19: .cfa -16 + ^ .ra: .cfa -24 + ^ x29: .cfa -32 + ^
STACK CFI 174c4 .cfa: sp 32 +
STACK CFI 174cc .cfa: sp 0 +
STACK CFI 174d0 .cfa: x29 32 +
STACK CFI 174e4 .cfa: sp 32 +
STACK CFI 174ec .cfa: sp 0 +
STACK CFI INIT 17564 7c .cfa: sp 0 +
STACK CFI 17568 .cfa: sp 48 +
STACK CFI 17574 .cfa: x29 48 + x19: .cfa -8 + ^ x20: .cfa -16 + ^ x21: .cfa -32 + ^ .ra: .cfa -40 + ^ x29: .cfa -48 + ^
STACK CFI 175c0 .cfa: sp 48 +
STACK CFI 175cc .cfa: sp 0 +
STACK CFI 175d0 .cfa: sp 48 +
STACK CFI 175dc .cfa: sp 0 +
STACK CFI INIT 175e0 4 .cfa: sp 0 +
STACK CFI INIT 175e4 10 .cfa: sp 0 +
STACK CFI 175e8 .cfa: sp 16 +
STACK CFI 175ec .cfa: x29 16 + .ra: .cfa -8 + ^ x29: .cfa -16 + ^
STACK CFI INIT 175f4 14 .cfa: sp 0 +
STACK CFI 175f8 .cfa: sp 16 +
STACK CFI 175fc .cfa: x29 16 + .ra: .cfa -8 + ^ x29: .cfa -16 + ^
STACK CFI INIT 17658 30 .cfa: sp 0 +
STACK CFI 1765c .cfa: sp 32 +
STACK CFI 17664 .cfa: x29 32 + x19: .cfa -16 + ^ .ra: .cfa -24 + ^ x29: .cfa -32 + ^
STACK CFI 1767c .cfa: sp 32 +
STACK CFI 17684 .cfa: sp 0 +
STACK CFI INIT 17688 34 .cfa: sp 0 +
STACK CFI 1768c .cfa: sp 32 +
STACK CFI 17694 .cfa: x29 32 + x19: .cfa -16 + ^ .ra: .cfa -24 + ^ x29: .cfa -32 + ^
STACK CFI INIT 176bc fc .cfa: sp 0 +
STACK CFI 176c0 .cfa: sp 64 +
STACK CFI 176d0 .cfa: x29 64 + x19: .cfa -8 + ^ x20: .cfa -16 + ^ x21: .cfa -24 + ^ x22: .cfa -32 + ^ x23: .cfa -40 + ^ x24: .cfa -48 + ^ .ra: .cfa -56 + ^ x29: .cfa -64 + ^
STACK CFI 177a4 .cfa: sp 64 +
STACK CFI 177b4 .cfa: sp 0 +
STACK CFI INIT 177b8 8c .cfa: sp 0 +
STACK CFI 177bc .cfa: sp 48 +
STACK CFI 177c8 .cfa: x29 48 + x19: .cfa -8 + ^ x20: .cfa -16 + ^ x21: .cfa -24 + ^ x22: .cfa -32 + ^ .ra: .cfa -40 + ^ x29: .cfa -48 + ^
STACK CFI 1782c .cfa: sp 48 +
STACK CFI 17838 .cfa: sp 0 +
STACK CFI 1783c .cfa: x29 48 +
STACK CFI INIT 17844 104 .cfa: sp 0 +
STACK CFI 17848 .cfa: sp 80 +
STACK CFI 1785c .cfa: x29 80 + x19: .cfa -8 + ^ x20: .cfa -16 + ^ x21: .cfa -24 + ^ x22: .cfa -32 + ^ x23: .cfa -40 + ^ x24: .cfa -48 + ^ x25: .cfa -56 + ^ x26: .cfa -64 + ^ .ra: .cfa -72 + ^ x29: .cfa -80 + ^
STACK CFI 17930 .cfa: sp 80 +
STACK CFI 17944 .cfa: sp 0 +
STACK CFI INIT 17948 7c .cfa: sp 0 +
STACK CFI 1794c .cfa: sp 32 +
STACK CFI 17954 .cfa: x29 32 + x19: .cfa -8 + ^ x20: .cfa -16 + ^ .ra: .cfa -24 + ^ x29: .cfa -32 + ^
STACK CFI 179ac .cfa: sp 32 +
STACK CFI 179b4 .cfa: sp 0 +
STACK CFI 179b8 .cfa: sp 32 +
STACK CFI 179c0 .cfa: sp 0 +
STACK CFI INIT 179c4 70 .cfa: sp 0 +
STACK CFI 179c8 .cfa: sp 48 +
STACK CFI 179d4 .cfa: x29 48 + x19: .cfa -8 + ^ x20: .cfa -16 + ^ x21: .cfa -24 + ^ x22: .cfa -32 + ^ .ra: .cfa -40 + ^ x29: .cfa -48 + ^
STACK CFI 17a1c .cfa: sp 48 +
STACK CFI 17a28 .cfa: sp 0 +
STACK CFI 17a2c .cfa: x29 48 +
STACK CFI INIT 17a34 19c .cfa: sp 0 +
STACK CFI INIT 17d24 34 .cfa: sp 0 +
STACK CFI 17d28 .cfa: sp 16 +
STACK CFI 17d2c .cfa: x29 16 + .ra: .cfa -8 + ^ x29: .cfa -16 + ^
STACK CFI INIT 17e7c 80 .cfa: sp 0 +
STACK CFI 17e80 .cfa: sp 48 +
STACK CFI 17e8c .cfa: x29 48 + x19: .cfa -8 + ^ x20: .cfa -16 + ^ x21: .cfa -32 + ^ .ra: .cfa -40 + ^ x29: .cfa -48 + ^
STACK CFI 17eec .cfa: sp 48 +
STACK CFI 17ef8 .cfa: sp 0 +
STACK CFI INIT 17efc 24 .cfa: sp 0 +
STACK CFI 17f00 .cfa: sp 32 +
STACK CFI 17f08 .cfa: x29 32 + x19: .cfa -16 + ^ .ra: .cfa -24 + ^ x29: .cfa -32 + ^
STACK CFI 17f14 .cfa: sp 32 +
STACK CFI 17f1c .cfa: sp 0 +
STACK CFI INIT 183c8 148 .cfa: sp 0 +
STACK CFI 183cc .cfa: sp 48 +
STACK CFI 183d8 .cfa: x29 48 + x19: .cfa -8 + ^ x20: .cfa -16 + ^ x21: .cfa -32 + ^ .ra: .cfa -40 + ^ x29: .cfa -48 + ^
STACK CFI 18500 .cfa: sp 48 +
STACK CFI 1850c .cfa: sp 0 +
STACK CFI INIT 18678 4 .cfa: sp 0 +
STACK CFI INIT 1867c 14 .cfa: sp 0 +
STACK CFI INIT 188ac 68 .cfa: sp 0 +
STACK CFI 188b0 .cfa: sp 32 +
STACK CFI 188b8 .cfa: x29 32 + x19: .cfa -8 + ^ x20: .cfa -16 + ^ .ra: .cfa -24 + ^ x29: .cfa -32 + ^
STACK CFI 188d0 .cfa: sp 32 +
STACK CFI 188d8 .cfa: sp 0 +
STACK CFI 188dc .cfa: x29 32 +
STACK CFI 18908 .cfa: sp 32 +
STACK CFI 18910 .cfa: sp 0 +
STACK CFI INIT 18914 14 .cfa: sp 0 +
STACK CFI 18918 .cfa: sp 16 +
STACK CFI 1891c .cfa: x29 16 + .ra: .cfa -8 + ^ x29: .cfa -16 + ^
STACK CFI INIT 18928 4 .cfa: sp 0 +
STACK CFI INIT 1892c 14 .cfa: sp 0 +
STACK CFI INIT 18940 d4 .cfa: sp 0 +
STACK CFI 18944 .cfa: sp 48 +
STACK CFI 18950 .cfa: x29 48 + x19: .cfa -8 + ^ x20: .cfa -16 + ^ x21: .cfa -32 + ^ .ra: .cfa -40 + ^ x29: .cfa -48 + ^
STACK CFI 189e0 .cfa: sp 48 +
STACK CFI 189ec .cfa: sp 0 +
STACK CFI 189f0 .cfa: x29 48 +
STACK CFI INIT 18a14 388 .cfa: sp 0 +
STACK CFI INIT 18d9c 8c .cfa: sp 0 +
STACK CFI 18da4 .cfa: sp 32 +
STACK CFI 18dac .cfa: x29 32 + x19: .cfa -8 + ^ x20: .cfa -16 + ^ .ra: .cfa -24 + ^ x29: .cfa -32 + ^
STACK CFI 18df4 .cfa: sp 32 +
STACK CFI 18dfc .cfa: sp 0 +
STACK CFI 18e04 .cfa: x29 32 +
STACK CFI INIT 18e28 4 .cfa: sp 0 +
STACK CFI INIT 18e2c 50 .cfa: sp 0 +
STACK CFI 18e30 .cfa: sp 32 +
STACK CFI 18e38 .cfa: x29 32 + x19: .cfa -16 + ^ .ra: .cfa -24 + ^ x29: .cfa -32 + ^
STACK CFI 18e50 .cfa: sp 32 +
STACK CFI 18e58 .cfa: sp 0 +
STACK CFI 18e5c .cfa: x29 32 +
STACK CFI 18e70 .cfa: sp 32 +
STACK CFI 18e78 .cfa: sp 0 +
STACK CFI INIT 18e7c 64 .cfa: sp 0 +
STACK CFI 18e80 .cfa: sp 32 +
STACK CFI 18e88 .cfa: x29 32 + x19: .cfa -16 + ^ .ra: .cfa -24 + ^ x29: .cfa -32 + ^
STACK CFI 18eb4 .cfa: sp 32 +
STACK CFI 18ebc .cfa: sp 0 +
STACK CFI 18ec0 .cfa: x29 32 +
STACK CFI 18ed4 .cfa: sp 32 +
STACK CFI 18edc .cfa: sp 0 +
STACK CFI INIT 18ee0 14 .cfa: sp 0 +
STACK CFI 18ee4 .cfa: sp 16 +
STACK CFI 18ee8 .cfa: x29 16 + .ra: .cfa -8 + ^ x29: .cfa -16 + ^
STACK CFI INIT 1f97c e4 .cfa: sp 0 +
STACK CFI 1f980 .cfa: sp 64 +
STACK CFI 1f990 .cfa: x29 64 + x19: .cfa -8 + ^ x20: .cfa -16 + ^ x21: .cfa -24 + ^ x22: .cfa -32 + ^ x23: .cfa -48 + ^ .ra: .cfa -56 + ^ x29: .cfa -64 + ^
STACK CFI 1fa08 .cfa: sp 64 +
STACK CFI 1fa18 .cfa: sp 0 +
STACK CFI 1fa1c .cfa: x29 64 +
STACK CFI INIT 1fa60 74 .cfa: sp 0 +
STACK CFI 1fa64 .cfa: sp 48 +
STACK CFI 1fa70 .cfa: x29 48 + x19: .cfa -8 + ^ x20: .cfa -16 + ^ x21: .cfa -32 + ^ .ra: .cfa -40 + ^ x29: .cfa -48 + ^
STACK CFI 1fa90 .cfa: sp 48 +
STACK CFI 1fa9c .cfa: sp 0 +
STACK CFI 1faa0 .cfa: x29 48 +
STACK CFI 1fac4 .cfa: sp 48 +
STACK CFI 1fad0 .cfa: sp 0 +
STACK CFI INIT 1fbbc 50 .cfa: sp 0 +
STACK CFI 1fbc0 .cfa: sp 32 +
STACK CFI 1fbc8 .cfa: x29 32 + x19: .cfa -8 + ^ x20: .cfa -16 + ^ .ra: .cfa -24 + ^ x29: .cfa -32 + ^
STACK CFI 1fc00 .cfa: sp 32 +
STACK CFI 1fc08 .cfa: sp 0 +
STACK CFI INIT 201f4 c4 .cfa: sp 0 +
STACK CFI 201f8 .cfa: sp 32 +
STACK CFI 20200 .cfa: x29 32 + x19: .cfa -8 + ^ x20: .cfa -16 + ^ .ra: .cfa -24 + ^ x29: .cfa -32 + ^
STACK CFI 202ac .cfa: sp 32 +
STACK CFI 202b4 .cfa: sp 0 +
STACK CFI INIT 202b8 ac .cfa: sp 0 +
STACK CFI 202bc .cfa: sp 64 +
STACK CFI 202cc .cfa: x29 64 + x19: .cfa -8 + ^ x20: .cfa -16 + ^ x21: .cfa -24 + ^ x22: .cfa -32 + ^ x23: .cfa -48 + ^ .ra: .cfa -56 + ^ x29: .cfa -64 + ^
STACK CFI 20348 .cfa: sp 64 +
STACK CFI 20358 .cfa: sp 0 +
STACK CFI 2035c .cfa: x29 64 +
STACK CFI INIT 20364 100 .cfa: sp 0 +
STACK CFI 20368 .cfa: sp 64 +
STACK CFI 20378 .cfa: x29 64 + x19: .cfa -8 + ^ x20: .cfa -16 + ^ x21: .cfa -24 + ^ x22: .cfa -32 + ^ x23: .cfa -40 + ^ x24: .cfa -48 + ^ .ra: .cfa -56 + ^ x29: .cfa -64 + ^
STACK CFI 20448 .cfa: sp 64 +
STACK CFI 20458 .cfa: sp 0 +
STACK CFI 2045c .cfa: x29 64 +
STACK CFI INIT 20854 8 .cfa: sp 0 +
STACK CFI INIT 2085c 14 .cfa: sp 0 +
STACK CFI INIT 20870 4 .cfa: sp 0 +
STACK CFI INIT 20874 14 .cfa: sp 0 +
STACK CFI INIT 20888 8 .cfa: sp 0 +
STACK CFI INIT 20890 24 .cfa: sp 0 +
STACK CFI 20894 .cfa: sp 32 +
STACK CFI 2089c .cfa: x29 32 + x19: .cfa -16 + ^ .ra: .cfa -24 + ^ x29: .cfa -32 + ^
STACK CFI 208a8 .cfa: sp 32 +
STACK CFI 208b0 .cfa: sp 0 +
STACK CFI INIT 208b4 4 .cfa: sp 0 +
STACK CFI INIT 208b8 14 .cfa: sp 0 +
STACK CFI 208bc .cfa: sp 16 +
STACK CFI 208c0 .cfa: x29 16 + .ra: .cfa -8 + ^ x29: .cfa -16 + ^
STACK CFI INIT 2091c 30 .cfa: sp 0 +
STACK CFI 20920 .cfa: sp 32 +
STACK CFI 20928 .cfa: x29 32 + x19: .cfa -16 + ^ .ra: .cfa -24 + ^ x29: .cfa -32 + ^
STACK CFI 20940 .cfa: sp 32 +
STACK CFI 20948 .cfa: sp 0 +
STACK CFI INIT 2094c 14 .cfa: sp 0 +
STACK CFI INIT 20960 14 .cfa: sp 0 +
STACK CFI INIT 20974 50 .cfa: sp 0 +
STACK CFI 20978 .cfa: sp 32 +
STACK CFI 20980 .cfa: x29 32 + x19: .cfa -16 + ^ .ra: .cfa -24 + ^ x29: .cfa -32 + ^
STACK CFI 20998 .cfa: sp 32 +
STACK CFI 209a0 .cfa: sp 0 +
STACK CFI 209a4 .cfa: x29 32 +
STACK CFI 209b8 .cfa: sp 32 +
STACK CFI 209c0 .cfa: sp 0 +
STACK CFI INIT 209c4 4 .cfa: sp 0 +
STACK CFI INIT 20b74 8c .cfa: sp 0 +
STACK CFI 20b78 .cfa: sp 32 +
STACK CFI 20b80 .cfa: x29 32 + x19: .cfa -8 + ^ x20: .cfa -16 + ^ .ra: .cfa -24 + ^ x29: .cfa -32 + ^
STACK CFI 20bf4 .cfa: sp 32 +
STACK CFI 20bfc .cfa: sp 0 +
STACK CFI INIT 20c00 94 .cfa: sp 0 +
STACK CFI 20c04 .cfa: sp 32 +
STACK CFI 20c0c .cfa: x29 32 + x19: .cfa -8 + ^ x20: .cfa -16 + ^ .ra: .cfa -24 + ^ x29: .cfa -32 + ^
STACK CFI 20c88 .cfa: sp 32 +
STACK CFI 20c90 .cfa: sp 0 +
STACK CFI INIT 20c94 50 .cfa: sp 0 +
STACK CFI 20c98 .cfa: sp 32 +
STACK CFI 20ca0 .cfa: x29 32 + x19: .cfa -16 + ^ .ra: .cfa -24 + ^ x29: .cfa -32 + ^
STACK CFI 20cb8 .cfa: sp 32 +
STACK CFI 20cc0 .cfa: sp 0 +
STACK CFI 20cc4 .cfa: x29 32 +
STACK CFI 20cd8 .cfa: sp 32 +
STACK CFI 20ce0 .cfa: sp 0 +
STACK CFI INIT 20ce4 50 .cfa: sp 0 +
STACK CFI 20ce8 .cfa: sp 32 +
STACK CFI 20cf0 .cfa: x29 32 + x19: .cfa -16 + ^ .ra: .cfa -24 + ^ x29: .cfa -32 + ^
STACK CFI 20d08 .cfa: sp 32 +
STACK CFI 20d10 .cfa: sp 0 +
STACK CFI 20d14 .cfa: x29 32 +
STACK CFI 20d28 .cfa: sp 32 +
STACK CFI 20d30 .cfa: sp 0 +
STACK CFI INIT 20d34 5c .cfa: sp 0 +
STACK CFI 20d38 .cfa: sp 32 +
STACK CFI 20d40 .cfa: x29 32 + x19: .cfa -16 + ^ .ra: .cfa -24 + ^ x29: .cfa -32 + ^
STACK CFI 20d64 .cfa: sp 32 +
STACK CFI 20d6c .cfa: sp 0 +
STACK CFI 20d70 .cfa: x29 32 +
STACK CFI 20d84 .cfa: sp 32 +
STACK CFI 20d8c .cfa: sp 0 +
STACK CFI INIT 20d90 5c .cfa: sp 0 +
STACK CFI 20d94 .cfa: sp 32 +
STACK CFI 20d9c .cfa: x29 32 + x19: .cfa -8 + ^ x20: .cfa -16 + ^ .ra: .cfa -24 + ^ x29: .cfa -32 + ^
STACK CFI 20de0 .cfa: sp 32 +
STACK CFI 20de8 .cfa: sp 0 +
STACK CFI INIT 20dec 58 .cfa: sp 0 +
STACK CFI 20df0 .cfa: sp 32 +
STACK CFI 20df8 .cfa: x29 32 + x19: .cfa -8 + ^ x20: .cfa -16 + ^ .ra: .cfa -24 + ^ x29: .cfa -32 + ^
STACK CFI 20e38 .cfa: sp 32 +
STACK CFI 20e40 .cfa: sp 0 +
STACK CFI INIT 20e44 4c .cfa: sp 0 +
STACK CFI 20e48 .cfa: sp 32 +
STACK CFI 20e50 .cfa: x29 32 + x19: .cfa -8 + ^ x20: .cfa -16 + ^ .ra: .cfa -24 + ^ x29: .cfa -32 + ^
STACK CFI 20e84 .cfa: sp 32 +
STACK CFI 20e8c .cfa: sp 0 +
STACK CFI INIT 20e90 50 .cfa: sp 0 +
STACK CFI 20e94 .cfa: sp 32 +
STACK CFI 20e9c .cfa: x29 32 + x19: .cfa -16 + ^ .ra: .cfa -24 + ^ x29: .cfa -32 + ^
STACK CFI 20eb4 .cfa: sp 32 +
STACK CFI 20ebc .cfa: sp 0 +
STACK CFI 20ec0 .cfa: x29 32 +
STACK CFI 20ed4 .cfa: sp 32 +
STACK CFI 20edc .cfa: sp 0 +
STACK CFI INIT 20ee0 50 .cfa: sp 0 +
STACK CFI 20ee4 .cfa: sp 32 +
STACK CFI 20eec .cfa: x29 32 + x19: .cfa -8 + ^ x20: .cfa -16 + ^ .ra: .cfa -24 + ^ x29: .cfa -32 + ^
STACK CFI 20f24 .cfa: sp 32 +
STACK CFI 20f2c .cfa: sp 0 +
STACK CFI INIT 210c8 1c .cfa: sp 0 +
STACK CFI INIT 210e4 c .cfa: sp 0 +
STACK CFI INIT 210f0 50 .cfa: sp 0 +
STACK CFI 210f4 .cfa: sp 32 +
STACK CFI 210fc .cfa: x29 32 + x19: .cfa -8 + ^ x20: .cfa -16 + ^ .ra: .cfa -24 + ^ x29: .cfa -32 + ^
STACK CFI 21134 .cfa: sp 32 +
STACK CFI 2113c .cfa: sp 0 +
STACK CFI INIT 21140 58 .cfa: sp 0 +
STACK CFI 21144 .cfa: sp 32 +
STACK CFI 2114c .cfa: x29 32 + x19: .cfa -8 + ^ x20: .cfa -16 + ^ .ra: .cfa -24 + ^ x29: .cfa -32 + ^
STACK CFI 2118c .cfa: sp 32 +
STACK CFI 21194 .cfa: sp 0 +
STACK CFI INIT 21198 5c .cfa: sp 0 +
STACK CFI 2119c .cfa: sp 32 +
STACK CFI 211a4 .cfa: x29 32 + x19: .cfa -16 + ^ .ra: .cfa -24 + ^ x29: .cfa -32 + ^
STACK CFI 211c8 .cfa: sp 32 +
STACK CFI 211d0 .cfa: sp 0 +
STACK CFI 211d4 .cfa: x29 32 +
STACK CFI 211e8 .cfa: sp 32 +
STACK CFI 211f0 .cfa: sp 0 +
STACK CFI INIT 211f4 5c .cfa: sp 0 +
STACK CFI 211f8 .cfa: sp 32 +
STACK CFI 21200 .cfa: x29 32 + x19: .cfa -8 + ^ x20: .cfa -16 + ^ .ra: .cfa -24 + ^ x29: .cfa -32 + ^
STACK CFI 21244 .cfa: sp 32 +
STACK CFI 2124c .cfa: sp 0 +
STACK CFI INIT 21250 58 .cfa: sp 0 +
STACK CFI 21254 .cfa: sp 32 +
STACK CFI 2125c .cfa: x29 32 + x19: .cfa -8 + ^ x20: .cfa -16 + ^ .ra: .cfa -24 + ^ x29: .cfa -32 + ^
STACK CFI 2129c .cfa: sp 32 +
STACK CFI 212a4 .cfa: sp 0 +
STACK CFI INIT 212a8 4c .cfa: sp 0 +
STACK CFI 212ac .cfa: sp 32 +
STACK CFI 212b4 .cfa: x29 32 + x19: .cfa -8 + ^ x20: .cfa -16 + ^ .ra: .cfa -24 + ^ x29: .cfa -32 + ^
STACK CFI 212e8 .cfa: sp 32 +
STACK CFI 212f0 .cfa: sp 0 +
STACK CFI INIT 212f4 50 .cfa: sp 0 +
STACK CFI 212f8 .cfa: sp 32 +
STACK CFI 21300 .cfa: x29 32 + x19: .cfa -16 + ^ .ra: .cfa -24 + ^ x29: .cfa -32 + ^
STACK CFI 21318 .cfa: sp 32 +
STACK CFI 21320 .cfa: sp 0 +
STACK CFI 21324 .cfa: x29 32 +
STACK CFI 21338 .cfa: sp 32 +
STACK CFI 21340 .cfa: sp 0 +
STACK CFI INIT 21344 50 .cfa: sp 0 +
STACK CFI 21348 .cfa: sp 32 +
STACK CFI 21350 .cfa: x29 32 + x19: .cfa -8 + ^ x20: .cfa -16 + ^ .ra: .cfa -24 + ^ x29: .cfa -32 + ^
STACK CFI 21388 .cfa: sp 32 +
STACK CFI 21390 .cfa: sp 0 +
STACK CFI INIT 2151c 1c .cfa: sp 0 +
STACK CFI INIT 21538 c .cfa: sp 0 +
STACK CFI INIT 21544 34 .cfa: sp 0 +
STACK CFI 21548 .cfa: sp 16 +
STACK CFI 2154c .cfa: x29 16 + .ra: .cfa -8 + ^ x29: .cfa -16 + ^
STACK CFI INIT 21578 24 .cfa: sp 0 +
STACK CFI 2157c .cfa: sp 32 +
STACK CFI 21584 .cfa: x29 32 + x19: .cfa -16 + ^ .ra: .cfa -24 + ^ x29: .cfa -32 + ^
STACK CFI 21590 .cfa: sp 32 +
STACK CFI 21598 .cfa: sp 0 +
STACK CFI INIT 2159c 20 .cfa: sp 0 +
STACK CFI INIT 215bc 40 .cfa: sp 0 +
STACK CFI 215d4 .cfa: sp 32 +
STACK CFI 215dc .cfa: x29 32 + x19: .cfa -16 + ^ .ra: .cfa -24 + ^ x29: .cfa -32 + ^
STACK CFI 215f0 .cfa: sp 32 +
STACK CFI 215f8 .cfa: sp 0 +
STACK CFI INIT 21678 60 .cfa: sp 0 +
STACK CFI 2167c .cfa: sp 32 +
STACK CFI 21684 .cfa: x29 32 + x19: .cfa -8 + ^ x20: .cfa -16 + ^ .ra: .cfa -24 + ^ x29: .cfa -32 + ^
STACK CFI 216cc .cfa: sp 32 +
STACK CFI 216d4 .cfa: sp 0 +
STACK CFI INIT 216d8 14 .cfa: sp 0 +
STACK CFI INIT 216ec 34 .cfa: sp 0 +
STACK CFI 216f8 .cfa: sp 32 +
STACK CFI 21700 .cfa: x29 32 + x19: .cfa -16 + ^ .ra: .cfa -24 + ^ x29: .cfa -32 + ^
STACK CFI 21714 .cfa: sp 32 +
STACK CFI 2171c .cfa: sp 0 +
STACK CFI INIT 21bac 1c .cfa: sp 0 +
STACK CFI INIT 21bc8 c .cfa: sp 0 +
STACK CFI INIT 21c48 8 .cfa: sp 0 +
STACK CFI INIT 21c50 14 .cfa: sp 0 +
STACK CFI INIT 21c64 4 .cfa: sp 0 +
STACK CFI INIT 21c68 4 .cfa: sp 0 +
STACK CFI INIT 21c6c 34 .cfa: sp 0 +
STACK CFI 21c70 .cfa: sp 32 +
STACK CFI 21c78 .cfa: x29 32 + x19: .cfa -16 + ^ .ra: .cfa -24 + ^ x29: .cfa -32 + ^
STACK CFI 21c94 .cfa: sp 32 +
STACK CFI 21c9c .cfa: sp 0 +
STACK CFI INIT 21ca0 14 .cfa: sp 0 +
STACK CFI INIT 21cb4 4 .cfa: sp 0 +
STACK CFI INIT 21cb8 4 .cfa: sp 0 +
STACK CFI INIT 21cbc 18 .cfa: sp 0 +
STACK CFI INIT 21cd4 1c .cfa: sp 0 +
STACK CFI INIT 21cf0 c .cfa: sp 0 +
STACK CFI INIT 21cfc 1c .cfa: sp 0 +
STACK CFI INIT 25574 64 .cfa: sp 0 +
STACK CFI 25578 .cfa: sp 32 +
STACK CFI 25580 .cfa: x29 32 + x19: .cfa -16 + ^ .ra: .cfa -24 + ^ x29: .cfa -32 + ^
STACK CFI 2559c .cfa: sp 32 +
STACK CFI 255a4 .cfa: sp 0 +
STACK CFI 255a8 .cfa: x29 32 +
STACK CFI 255cc .cfa: sp 32 +
STACK CFI 255d4 .cfa: sp 0 +
STACK CFI INIT 255d8 104 .cfa: sp 0 +
STACK CFI 255dc .cfa: sp 80 +
STACK CFI 255f0 .cfa: x29 80 + x19: .cfa -8 + ^ x20: .cfa -16 + ^ x21: .cfa -24 + ^ x22: .cfa -32 + ^ x23: .cfa -40 + ^ x24: .cfa -48 + ^ x25: .cfa -56 + ^ x26: .cfa -64 + ^ .ra: .cfa -72 + ^ x29: .cfa -80 + ^
STACK CFI 256bc .cfa: sp 80 +
STACK CFI 256d0 .cfa: sp 0 +
STACK CFI 256d4 .cfa: x29 80 +
STACK CFI INIT 256dc 4 .cfa: sp 0 +
STACK CFI INIT 256e0 14 .cfa: sp 0 +
STACK CFI INIT 25b08 154 .cfa: sp 0 +
STACK CFI 25b0c .cfa: sp 64 +
STACK CFI 25b1c .cfa: x29 64 + x19: .cfa -8 + ^ x20: .cfa -16 + ^ x21: .cfa -24 + ^ x22: .cfa -32 + ^ x23: .cfa -48 + ^ .ra: .cfa -56 + ^ x29: .cfa -64 + ^
STACK CFI 25c48 .cfa: sp 64 +
STACK CFI 25c58 .cfa: sp 0 +
STACK CFI INIT 25f24 4 .cfa: sp 0 +
STACK CFI INIT 25f28 14 .cfa: sp 0 +
STACK CFI INIT 25f3c 4 .cfa: sp 0 +
STACK CFI INIT 25f40 14 .cfa: sp 0 +
STACK CFI INIT 26588 154 .cfa: sp 0 +
STACK CFI 2658c .cfa: sp 64 +
STACK CFI 2659c .cfa: x29 64 + x19: .cfa -8 + ^ x20: .cfa -16 + ^ x21: .cfa -24 + ^ x22: .cfa -32 + ^ x23: .cfa -48 + ^ .ra: .cfa -56 + ^ x29: .cfa -64 + ^
STACK CFI 266c8 .cfa: sp 64 +
STACK CFI 266d8 .cfa: sp 0 +
STACK CFI INIT 266dc 154 .cfa: sp 0 +
STACK CFI 266e0 .cfa: sp 64 +
STACK CFI 266f0 .cfa: x29 64 + x19: .cfa -8 + ^ x20: .cfa -16 + ^ x21: .cfa -24 + ^ x22: .cfa -32 + ^ x23: .cfa -48 + ^ .ra: .cfa -56 + ^ x29: .cfa -64 + ^
STACK CFI 2681c .cfa: sp 64 +
STACK CFI 2682c .cfa: sp 0 +
STACK CFI INIT 26e5c 18 .cfa: sp 0 +
STACK CFI INIT 26e74 14 .cfa: sp 0 +
STACK CFI 26e78 .cfa: sp 16 +
STACK CFI 26e7c .cfa: x29 16 + .ra: .cfa -8 + ^ x29: .cfa -16 + ^
STACK CFI INIT 26e88 14 .cfa: sp 0 +
STACK CFI 26e8c .cfa: sp 16 +
STACK CFI 26e90 .cfa: x29 16 + .ra: .cfa -8 + ^ x29: .cfa -16 + ^
STACK CFI INIT 26e9c 14 .cfa: sp 0 +
STACK CFI 26ea0 .cfa: sp 16 +
STACK CFI 26ea4 .cfa: x29 16 + .ra: .cfa -8 + ^ x29: .cfa -16 + ^
STACK CFI INIT 26eb0 14 .cfa: sp 0 +
STACK CFI 26eb4 .cfa: sp 16 +
STACK CFI 26eb8 .cfa: x29 16 + .ra: .cfa -8 + ^ x29: .cfa -16 + ^
STACK CFI INIT 26ec4 4 .cfa: sp 0 +
STACK CFI INIT 26ec8 4 .cfa: sp 0 +
STACK CFI INIT 26ecc 38 .cfa: sp 0 +
STACK CFI 26ed0 .cfa: sp 32 +
STACK CFI 26ed8 .cfa: x29 32 + x19: .cfa -16 + ^ .ra: .cfa -24 + ^ x29: .cfa -32 + ^
STACK CFI 26ef8 .cfa: sp 32 +
STACK CFI 26f00 .cfa: sp 0 +
STACK CFI INIT 26f04 18 .cfa: sp 0 +
STACK CFI INIT 26f1c 4 .cfa: sp 0 +
STACK CFI INIT 26f20 4 .cfa: sp 0 +
STACK CFI INIT 26f24 10 .cfa: sp 0 +
STACK CFI INIT 26f34 1c .cfa: sp 0 +
STACK CFI INIT 26f50 c .cfa: sp 0 +
STACK CFI INIT 26f5c 14 .cfa: sp 0 +
STACK CFI 26f60 .cfa: sp 16 +
STACK CFI 26f64 .cfa: x29 16 + .ra: .cfa -8 + ^ x29: .cfa -16 + ^
STACK CFI INIT 27500 1c .cfa: sp 0 +
STACK CFI INIT 278f4 4 .cfa: sp 0 +
STACK CFI INIT 28ea4 70 .cfa: sp 0 +
STACK CFI 28ea8 .cfa: sp 48 +
STACK CFI 28eb4 .cfa: x29 48 + x19: .cfa -8 + ^ x20: .cfa -16 + ^ x21: .cfa -32 + ^ .ra: .cfa -40 + ^ x29: .cfa -48 + ^
STACK CFI 28ecc .cfa: sp 48 +
STACK CFI 28ed8 .cfa: sp 0 +
STACK CFI 28edc .cfa: x29 48 +
STACK CFI 28f04 .cfa: sp 48 +
STACK CFI 28f10 .cfa: sp 0 +
STACK CFI INIT 28f14 70 .cfa: sp 0 +
STACK CFI 28f18 .cfa: sp 48 +
STACK CFI 28f24 .cfa: x29 48 + x19: .cfa -8 + ^ x20: .cfa -16 + ^ x21: .cfa -32 + ^ .ra: .cfa -40 + ^ x29: .cfa -48 + ^
STACK CFI 28f3c .cfa: sp 48 +
STACK CFI 28f48 .cfa: sp 0 +
STACK CFI 28f4c .cfa: x29 48 +
STACK CFI 28f74 .cfa: sp 48 +
STACK CFI 28f80 .cfa: sp 0 +
STACK CFI INIT 29344 50 .cfa: sp 0 +
STACK CFI 29368 .cfa: sp 32 +
STACK CFI 29370 .cfa: x29 32 + x19: .cfa -16 + ^ .ra: .cfa -24 + ^ x29: .cfa -32 + ^
STACK CFI 29384 .cfa: sp 32 +
STACK CFI 2938c .cfa: sp 0 +
STACK CFI INIT 29394 444 .cfa: sp 0 +
STACK CFI INIT 297d8 15c .cfa: sp 0 +
STACK CFI 297dc .cfa: sp 32 +
STACK CFI 297e4 .cfa: x29 32 + x19: .cfa -8 + ^ x20: .cfa -16 + ^ .ra: .cfa -24 + ^ x29: .cfa -32 + ^
STACK CFI 29924 .cfa: sp 32 +
STACK CFI 2992c .cfa: sp 0 +
STACK CFI 29930 .cfa: x29 32 +
STACK CFI INIT 29934 154 .cfa: sp 0 +
STACK CFI 29938 .cfa: sp 64 +
STACK CFI 29948 .cfa: x29 64 + x19: .cfa -8 + ^ x20: .cfa -16 + ^ x21: .cfa -24 + ^ x22: .cfa -32 + ^ x23: .cfa -48 + ^ .ra: .cfa -56 + ^ x29: .cfa -64 + ^
STACK CFI 29a74 .cfa: sp 64 +
STACK CFI 29a84 .cfa: sp 0 +
STACK CFI INIT 29a88 4 .cfa: sp 0 +
STACK CFI INIT 29a8c 4 .cfa: sp 0 +
STACK CFI INIT 29a90 24 .cfa: sp 0 +
STACK CFI 29a94 .cfa: sp 16 +
STACK CFI 29a98 .cfa: x29 16 + .ra: .cfa -8 + ^ x29: .cfa -16 + ^
STACK CFI 29aac .cfa: sp 16 +
STACK CFI 29ab0 .cfa: sp 0 +
STACK CFI INIT 29ab4 10 .cfa: sp 0 +
STACK CFI INIT 29ac4 4 .cfa: sp 0 +
STACK CFI INIT 29ac8 4 .cfa: sp 0 +
STACK CFI INIT 29acc 7c .cfa: sp 0 +
STACK CFI 29ad0 .cfa: sp 48 +
STACK CFI 29adc .cfa: x29 32 + x19: .cfa -8 + ^ x20: .cfa -16 + ^ .ra: .cfa -24 + ^ x29: .cfa -32 + ^
STACK CFI 29b34 .cfa: sp 48 +
STACK CFI 29b40 .cfa: sp 0 +
STACK CFI 29b44 .cfa: x29 32 +
STACK CFI INIT 29b48 1c .cfa: sp 0 +
STACK CFI INIT 29b64 c .cfa: sp 0 +
STACK CFI INIT 29f70 1c .cfa: sp 0 +
STACK CFI INIT 2a368 4 .cfa: sp 0 +
STACK CFI INIT 2b104 bc .cfa: sp 0 +
STACK CFI 2b108 .cfa: sp 48 +
STACK CFI 2b114 .cfa: x29 48 + x19: .cfa -8 + ^ x20: .cfa -16 + ^ x21: .cfa -32 + ^ .ra: .cfa -40 + ^ x29: .cfa -48 + ^
STACK CFI 2b1b0 .cfa: sp 48 +
STACK CFI 2b1bc .cfa: sp 0 +
STACK CFI INIT 2b1c0 30 .cfa: sp 0 +
STACK CFI 2b1c4 .cfa: sp 32 +
STACK CFI 2b1cc .cfa: x29 32 + x19: .cfa -16 + ^ .ra: .cfa -24 + ^ x29: .cfa -32 + ^
STACK CFI 2b1e4 .cfa: sp 32 +
STACK CFI 2b1ec .cfa: sp 0 +
STACK CFI INIT 2b1f0 4c .cfa: sp 0 +
STACK CFI 2b1f4 .cfa: sp 32 +
STACK CFI 2b1fc .cfa: x29 32 + x19: .cfa -8 + ^ x20: .cfa -16 + ^ .ra: .cfa -24 + ^ x29: .cfa -32 + ^
STACK CFI 2b224 .cfa: sp 32 +
STACK CFI 2b22c .cfa: sp 0 +
STACK CFI 2b230 .cfa: sp 32 +
STACK CFI 2b238 .cfa: sp 0 +
STACK CFI INIT 2b45c 64 .cfa: sp 0 +
STACK CFI 2b460 .cfa: sp 32 +
STACK CFI 2b468 .cfa: x29 32 + x19: .cfa -16 + ^ .ra: .cfa -24 + ^ x29: .cfa -32 + ^
STACK CFI 2b494 .cfa: sp 32 +
STACK CFI 2b49c .cfa: sp 0 +
STACK CFI 2b4a0 .cfa: x29 32 +
STACK CFI 2b4b4 .cfa: sp 32 +
STACK CFI 2b4bc .cfa: sp 0 +
STACK CFI INIT 2b6e4 24 .cfa: sp 0 +
STACK CFI 2b6e8 .cfa: sp 32 +
STACK CFI 2b6f0 .cfa: x29 32 + x19: .cfa -16 + ^ .ra: .cfa -24 + ^ x29: .cfa -32 + ^
STACK CFI 2b6fc .cfa: sp 32 +
STACK CFI 2b704 .cfa: sp 0 +
STACK CFI INIT 2bfc4 1f8 .cfa: sp 0 +
STACK CFI 2bfc8 .cfa: sp 112 +
STACK CFI 2bfe8 .cfa: x29 72 + x19: .cfa -8 + ^ x20: .cfa -16 + ^ x21: .cfa -24 + ^ x22: .cfa -32 + ^ x23: .cfa -40 + ^ x24: .cfa -48 + ^ x25: .cfa -56 + ^ .ra: .cfa -64 + ^ x29: .cfa -72 + ^ v8: .cfa -80 + ^ v9: .cfa -88 + ^ v10: .cfa -96 + ^
STACK CFI 2c194 .cfa: sp 112 +
STACK CFI 2c1b4 .cfa: sp 0 +
STACK CFI 2c1b8 .cfa: x29 72 +
STACK CFI INIT 2c9f0 4 .cfa: sp 0 +
STACK CFI INIT 2c9f4 14 .cfa: sp 0 +
STACK CFI INIT 2ce44 c .cfa: sp 0 +
STACK CFI INIT 2ce50 24c .cfa: sp 0 +
STACK CFI INIT 2d09c a0 .cfa: sp 0 +
STACK CFI 2d0a8 .cfa: sp 32 +
STACK CFI 2d100 .cfa: sp 0 +
STACK CFI 2d104 .cfa: sp 32 +
STACK CFI 2d10c .cfa: sp 0 +
STACK CFI 2d110 .cfa: sp 32 +
STACK CFI 2d124 .cfa: sp 0 +
STACK CFI 2d128 .cfa: sp 32 +
STACK CFI 2d138 .cfa: sp 0 +
STACK CFI INIT 2d13c 38 .cfa: sp 0 +
STACK CFI 2d148 .cfa: sp 32 +
STACK CFI 2d170 .cfa: sp 0 +
STACK CFI INIT 2d408 70 .cfa: sp 0 +
STACK CFI 2d40c .cfa: sp 32 +
STACK CFI 2d414 .cfa: x29 32 + x19: .cfa -16 + ^ .ra: .cfa -24 + ^ x29: .cfa -32 + ^
STACK CFI 2d448 .cfa: sp 32 +
STACK CFI 2d450 .cfa: sp 0 +
STACK CFI 2d454 .cfa: x29 32 +
STACK CFI INIT 2d4c8 2c .cfa: sp 0 +
STACK CFI 2d4cc .cfa: sp 32 +
STACK CFI 2d4d4 .cfa: x29 32 + x19: .cfa -16 + ^ .ra: .cfa -24 + ^ x29: .cfa -32 + ^
STACK CFI 2d4e8 .cfa: sp 32 +
STACK CFI 2d4f0 .cfa: sp 0 +
STACK CFI INIT 2dc44 64 .cfa: sp 0 +
STACK CFI 2dc48 .cfa: sp 32 +
STACK CFI 2dc50 .cfa: x29 32 + x19: .cfa -16 + ^ .ra: .cfa -24 + ^ x29: .cfa -32 + ^
STACK CFI 2dc6c .cfa: sp 32 +
STACK CFI 2dc74 .cfa: sp 0 +
STACK CFI 2dc78 .cfa: x29 32 +
STACK CFI 2dc9c .cfa: sp 32 +
STACK CFI 2dca4 .cfa: sp 0 +
STACK CFI INIT 2ddd4 3c8 .cfa: sp 0 +
STACK CFI 2ddd8 .cfa: sp 208 +
STACK CFI 2ddec .cfa: x29 64 + x19: .cfa -8 + ^ x20: .cfa -16 + ^ x21: .cfa -24 + ^ x22: .cfa -32 + ^ x23: .cfa -40 + ^ x24: .cfa -48 + ^ .ra: .cfa -56 + ^ x29: .cfa -64 + ^
STACK CFI 2e004 .cfa: sp 208 +
STACK CFI 2e018 .cfa: sp 0 +
STACK CFI 2e01c .cfa: x29 64 +
STACK CFI INIT 2e19c 228 .cfa: sp 0 +
STACK CFI INIT 2e3c4 2b4 .cfa: sp 0 +
STACK CFI INIT 2e678 530 .cfa: sp 0 +
STACK CFI INIT 2eba8 78 .cfa: sp 0 +
STACK CFI 2ebac .cfa: sp 48 +
STACK CFI 2ebb8 .cfa: x29 48 + x19: .cfa -8 + ^ x20: .cfa -16 + ^ x21: .cfa -24 + ^ x22: .cfa -32 + ^ .ra: .cfa -40 + ^ x29: .cfa -48 + ^
STACK CFI 2ec00 .cfa: sp 48 +
STACK CFI 2ec0c .cfa: sp 0 +
STACK CFI 2ec10 .cfa: sp 48 +
STACK CFI 2ec1c .cfa: sp 0 +
STACK CFI INIT 2ec20 78 .cfa: sp 0 +
STACK CFI 2ec24 .cfa: sp 32 +
STACK CFI 2ec2c .cfa: x29 32 + x19: .cfa -16 + ^ .ra: .cfa -24 + ^ x29: .cfa -32 + ^
STACK CFI 2ec68 .cfa: sp 32 +
STACK CFI 2ec70 .cfa: sp 0 +
STACK CFI 2ec74 .cfa: x29 32 +
STACK CFI INIT 2ec98 24 .cfa: sp 0 +
STACK CFI 2ec9c .cfa: sp 32 +
STACK CFI 2eca4 .cfa: x29 32 + x19: .cfa -16 + ^ .ra: .cfa -24 + ^ x29: .cfa -32 + ^
STACK CFI 2ecb0 .cfa: sp 32 +
STACK CFI 2ecb8 .cfa: sp 0 +
STACK CFI INIT 2ecbc 150 .cfa: sp 0 +
STACK CFI 2ecc0 .cfa: sp 48 +
STACK CFI 2eccc .cfa: x29 48 + x19: .cfa -8 + ^ x20: .cfa -16 + ^ x21: .cfa -24 + ^ x22: .cfa -32 + ^ .ra: .cfa -40 + ^ x29: .cfa -48 + ^
STACK CFI 2edfc .cfa: sp 48 +
STACK CFI 2ee08 .cfa: sp 0 +
STACK CFI INIT 2ee0c 6c .cfa: sp 0 +
STACK CFI 2ee10 .cfa: sp 64 +
STACK CFI 2ee1c .cfa: x29 32 + x19: .cfa -16 + ^ .ra: .cfa -24 + ^ x29: .cfa -32 + ^
STACK CFI 2ee64 .cfa: sp 64 +
STACK CFI 2ee70 .cfa: sp 0 +
STACK CFI 2ee74 .cfa: x29 32 +
STACK CFI INIT 2ee78 74 .cfa: sp 0 +
STACK CFI 2ee7c .cfa: sp 32 +
STACK CFI 2ee84 .cfa: x29 32 + x19: .cfa -8 + ^ x20: .cfa -16 + ^ .ra: .cfa -24 + ^ x29: .cfa -32 + ^
STACK CFI 2eee0 .cfa: sp 32 +
STACK CFI 2eee8 .cfa: sp 0 +
STACK CFI INIT 2eeec f0 .cfa: sp 0 +
STACK CFI 2eef0 .cfa: sp 112 +
STACK CFI 2ef00 .cfa: x29 48 + x19: .cfa -8 + ^ x20: .cfa -16 + ^ x21: .cfa -32 + ^ .ra: .cfa -40 + ^ x29: .cfa -48 + ^
STACK CFI 2efc4 .cfa: sp 112 +
STACK CFI 2efd4 .cfa: sp 0 +
STACK CFI 2efd8 .cfa: x29 48 +
STACK CFI INIT 2efdc f0 .cfa: sp 0 +
STACK CFI 2efe0 .cfa: sp 112 +
STACK CFI 2eff0 .cfa: x29 48 + x19: .cfa -8 + ^ x20: .cfa -16 + ^ x21: .cfa -32 + ^ .ra: .cfa -40 + ^ x29: .cfa -48 + ^
STACK CFI 2f0b4 .cfa: sp 112 +
STACK CFI 2f0c4 .cfa: sp 0 +
STACK CFI 2f0c8 .cfa: x29 48 +
STACK CFI INIT 2f0cc 48 .cfa: sp 0 +
STACK CFI 2f0d0 .cfa: sp 32 +
STACK CFI 2f0d8 .cfa: x29 32 + x19: .cfa -8 + ^ x20: .cfa -16 + ^ .ra: .cfa -24 + ^ x29: .cfa -32 + ^
STACK CFI 2f0fc .cfa: sp 32 +
STACK CFI 2f104 .cfa: sp 0 +
STACK CFI 2f108 .cfa: x29 32 +
STACK CFI INIT 2f114 9c .cfa: sp 0 +
STACK CFI 2f118 .cfa: sp 80 +
STACK CFI 2f124 .cfa: x29 32 + x19: .cfa -16 + ^ .ra: .cfa -24 + ^ x29: .cfa -32 + ^
STACK CFI 2f19c .cfa: sp 80 +
STACK CFI 2f1a8 .cfa: sp 0 +
STACK CFI 2f1ac .cfa: x29 32 +
STACK CFI INIT 2f1b0 220 .cfa: sp 0 +
STACK CFI 2f1b4 .cfa: sp 112 +
STACK CFI 2f1cc .cfa: x29 80 + x19: .cfa -8 + ^ x20: .cfa -16 + ^ x21: .cfa -24 + ^ x22: .cfa -32 + ^ x23: .cfa -40 + ^ x24: .cfa -48 + ^ x25: .cfa -64 + ^ .ra: .cfa -72 + ^ x29: .cfa -80 + ^
STACK CFI 2f390 .cfa: sp 112 +
STACK CFI 2f3a8 .cfa: sp 0 +
STACK CFI 2f3ac .cfa: x29 80 +
STACK CFI INIT 2f3d0 150 .cfa: sp 0 +
STACK CFI 2f3d4 .cfa: sp 48 +
STACK CFI 2f3e0 .cfa: x29 48 + x19: .cfa -8 + ^ x20: .cfa -16 + ^ x21: .cfa -24 + ^ x22: .cfa -32 + ^ .ra: .cfa -40 + ^ x29: .cfa -48 + ^
STACK CFI 2f510 .cfa: sp 48 +
STACK CFI 2f51c .cfa: sp 0 +
STACK CFI INIT 2f520 1c4 .cfa: sp 0 +
STACK CFI 2f524 .cfa: sp 96 +
STACK CFI 2f538 .cfa: x29 64 + x19: .cfa -8 + ^ x20: .cfa -16 + ^ x21: .cfa -24 + ^ x22: .cfa -32 + ^ x23: .cfa -40 + ^ x24: .cfa -48 + ^ .ra: .cfa -56 + ^ x29: .cfa -64 + ^
STACK CFI 2f6a8 .cfa: sp 96 +
STACK CFI 2f6bc .cfa: sp 0 +
STACK CFI 2f6c0 .cfa: x29 64 +
STACK CFI INIT 2f6e4 244 .cfa: sp 0 +
STACK CFI 2f6e8 .cfa: sp 112 +
STACK CFI 2f700 .cfa: x29 80 + x19: .cfa -8 + ^ x20: .cfa -16 + ^ x21: .cfa -24 + ^ x22: .cfa -32 + ^ x23: .cfa -40 + ^ x24: .cfa -48 + ^ x25: .cfa -64 + ^ .ra: .cfa -72 + ^ x29: .cfa -80 + ^
STACK CFI 2f8e8 .cfa: sp 112 +
STACK CFI 2f900 .cfa: sp 0 +
STACK CFI 2f904 .cfa: x29 80 +
STACK CFI INIT 2f928 1ec .cfa: sp 0 +
STACK CFI 2f92c .cfa: sp 96 +
STACK CFI 2f940 .cfa: x29 64 + x19: .cfa -8 + ^ x20: .cfa -16 + ^ x21: .cfa -24 + ^ x22: .cfa -32 + ^ x23: .cfa -40 + ^ x24: .cfa -48 + ^ .ra: .cfa -56 + ^ x29: .cfa -64 + ^
STACK CFI 2fad8 .cfa: sp 96 +
STACK CFI 2faec .cfa: sp 0 +
STACK CFI 2faf0 .cfa: x29 64 +
STACK CFI INIT 2fb14 304 .cfa: sp 0 +
STACK CFI 2fb18 .cfa: sp 160 +
STACK CFI 2fb34 .cfa: x29 96 + x19: .cfa -8 + ^ x20: .cfa -16 + ^ x21: .cfa -24 + ^ x22: .cfa -32 + ^ x23: .cfa -40 + ^ x24: .cfa -48 + ^ x25: .cfa -56 + ^ x26: .cfa -64 + ^ x27: .cfa -72 + ^ x28: .cfa -80 + ^ .ra: .cfa -88 + ^ x29: .cfa -96 + ^
STACK CFI 2fdbc .cfa: sp 160 +
STACK CFI 2fdd8 .cfa: sp 0 +
STACK CFI 2fddc .cfa: x29 96 +
STACK CFI INIT 2fe18 2a4 .cfa: sp 0 +
STACK CFI 2fe1c .cfa: sp 144 +
STACK CFI 2fe38 .cfa: x29 96 + x19: .cfa -8 + ^ x20: .cfa -16 + ^ x21: .cfa -24 + ^ x22: .cfa -32 + ^ x23: .cfa -40 + ^ x24: .cfa -48 + ^ x25: .cfa -56 + ^ x26: .cfa -64 + ^ x27: .cfa -72 + ^ x28: .cfa -80 + ^ .ra: .cfa -88 + ^ x29: .cfa -96 + ^
STACK CFI 30060 .cfa: sp 144 +
STACK CFI 3007c .cfa: sp 0 +
STACK CFI 30080 .cfa: x29 96 +
STACK CFI INIT 300bc 290 .cfa: sp 0 +
STACK CFI 300c0 .cfa: sp 128 +
STACK CFI 300d8 .cfa: x29 80 + x19: .cfa -8 + ^ x20: .cfa -16 + ^ x21: .cfa -24 + ^ x22: .cfa -32 + ^ x23: .cfa -40 + ^ x24: .cfa -48 + ^ x25: .cfa -56 + ^ x26: .cfa -64 + ^ .ra: .cfa -72 + ^ x29: .cfa -80 + ^
STACK CFI 3032c .cfa: sp 128 +
STACK CFI 30344 .cfa: sp 0 +
STACK CFI 30348 .cfa: x29 80 +
STACK CFI INIT 3034c dc0 .cfa: sp 0 +
STACK CFI 30350 .cfa: sp 144 +
STACK CFI 3036c .cfa: x29 96 + x19: .cfa -8 + ^ x20: .cfa -16 + ^ x21: .cfa -24 + ^ x22: .cfa -32 + ^ x23: .cfa -40 + ^ x24: .cfa -48 + ^ x25: .cfa -56 + ^ x26: .cfa -64 + ^ x27: .cfa -72 + ^ x28: .cfa -80 + ^ .ra: .cfa -88 + ^ x29: .cfa -96 + ^
STACK CFI 310e8 .cfa: sp 144 +
STACK CFI 31104 .cfa: sp 0 +
STACK CFI 31108 .cfa: x29 96 +
STACK CFI INIT 3110c 1d0 .cfa: sp 0 +
STACK CFI 31110 .cfa: sp 80 +
STACK CFI 31124 .cfa: x29 80 + x19: .cfa -8 + ^ x20: .cfa -16 + ^ x21: .cfa -24 + ^ x22: .cfa -32 + ^ x23: .cfa -40 + ^ x24: .cfa -48 + ^ x25: .cfa -56 + ^ x26: .cfa -64 + ^ .ra: .cfa -72 + ^ x29: .cfa -80 + ^
STACK CFI 312c4 .cfa: sp 80 +
STACK CFI 312d8 .cfa: sp 0 +
STACK CFI INIT 312dc 22c .cfa: sp 0 +
STACK CFI 312e0 .cfa: sp 112 +
STACK CFI 312f4 .cfa: x29 64 + x19: .cfa -8 + ^ x20: .cfa -16 + ^ x21: .cfa -24 + ^ x22: .cfa -32 + ^ x23: .cfa -40 + ^ x24: .cfa -48 + ^ .ra: .cfa -56 + ^ x29: .cfa -64 + ^
STACK CFI 314c0 .cfa: sp 112 +
STACK CFI 314d4 .cfa: sp 0 +
STACK CFI 314d8 .cfa: x29 64 +
STACK CFI INIT 31508 30c .cfa: sp 0 +
STACK CFI 3150c .cfa: sp 80 +
STACK CFI 31520 .cfa: x29 64 + x19: .cfa -8 + ^ x20: .cfa -16 + ^ x21: .cfa -24 + ^ x22: .cfa -32 + ^ x23: .cfa -40 + ^ x24: .cfa -48 + ^ .ra: .cfa -56 + ^ x29: .cfa -64 + ^
STACK CFI 3169c .cfa: sp 80 +
STACK CFI 316b0 .cfa: sp 0 +
STACK CFI 316b4 .cfa: x29 64 +
STACK CFI INIT 31814 178 .cfa: sp 0 +
STACK CFI 31818 .cfa: sp 80 +
STACK CFI 3182c .cfa: x29 64 + x19: .cfa -8 + ^ x20: .cfa -16 + ^ x21: .cfa -24 + ^ x22: .cfa -32 + ^ x23: .cfa -40 + ^ x24: .cfa -48 + ^ .ra: .cfa -56 + ^ x29: .cfa -64 + ^
STACK CFI 31970 .cfa: sp 80 +
STACK CFI 31984 .cfa: sp 0 +
STACK CFI 31988 .cfa: x29 64 +
STACK CFI INIT 3198c 178 .cfa: sp 0 +
STACK CFI 31990 .cfa: sp 80 +
STACK CFI 319a4 .cfa: x29 64 + x19: .cfa -8 + ^ x20: .cfa -16 + ^ x21: .cfa -24 + ^ x22: .cfa -32 + ^ x23: .cfa -40 + ^ x24: .cfa -48 + ^ .ra: .cfa -56 + ^ x29: .cfa -64 + ^
STACK CFI 31ae8 .cfa: sp 80 +
STACK CFI 31afc .cfa: sp 0 +
STACK CFI 31b00 .cfa: x29 64 +
STACK CFI INIT 31b04 240 .cfa: sp 0 +
STACK CFI 31b08 .cfa: sp 96 +
STACK CFI 31b20 .cfa: x29 96 + x19: .cfa -8 + ^ x20: .cfa -16 + ^ x21: .cfa -24 + ^ x22: .cfa -32 + ^ x23: .cfa -40 + ^ x24: .cfa -48 + ^ x25: .cfa -56 + ^ x26: .cfa -64 + ^ x27: .cfa -72 + ^ x28: .cfa -80 + ^ .ra: .cfa -88 + ^ x29: .cfa -96 + ^
STACK CFI 31d28 .cfa: sp 96 +
STACK CFI 31d40 .cfa: sp 0 +
STACK CFI INIT 32970 154 .cfa: sp 0 +
STACK CFI 32974 .cfa: sp 96 +
STACK CFI 32988 .cfa: x29 64 + x19: .cfa -8 + ^ x20: .cfa -16 + ^ x21: .cfa -24 + ^ x22: .cfa -32 + ^ x23: .cfa -48 + ^ .ra: .cfa -56 + ^ x29: .cfa -64 + ^
STACK CFI 32a68 .cfa: sp 96 +
STACK CFI 32a7c .cfa: sp 0 +
STACK CFI 32a80 .cfa: x29 64 +
STACK CFI INIT 32cfc 44 .cfa: sp 0 +
STACK CFI 32d00 .cfa: sp 32 +
STACK CFI 32d08 .cfa: x29 32 + x19: .cfa -16 + ^ .ra: .cfa -24 + ^ x29: .cfa -32 + ^
STACK CFI 32d24 .cfa: sp 32 +
STACK CFI 32d2c .cfa: sp 0 +
STACK CFI 32d30 .cfa: x29 32 +
STACK CFI 32d34 .cfa: sp 32 +
STACK CFI 32d3c .cfa: sp 0 +
STACK CFI INIT 32d40 1a4 .cfa: sp 0 +
STACK CFI 32d44 .cfa: sp 64 +
STACK CFI 32d54 .cfa: x29 64 + x19: .cfa -8 + ^ x20: .cfa -16 + ^ x21: .cfa -24 + ^ x22: .cfa -32 + ^ x23: .cfa -40 + ^ x24: .cfa -48 + ^ .ra: .cfa -56 + ^ x29: .cfa -64 + ^
STACK CFI 32ed0 .cfa: sp 64 +
STACK CFI 32ee0 .cfa: sp 0 +
STACK CFI INIT 32ee4 17c .cfa: sp 0 +
STACK CFI INIT 33404 a0 .cfa: sp 0 +
STACK CFI 33408 .cfa: sp 48 +
STACK CFI 33414 .cfa: x29 48 + x19: .cfa -8 + ^ x20: .cfa -16 + ^ x21: .cfa -24 + ^ x22: .cfa -32 + ^ .ra: .cfa -40 + ^ x29: .cfa -48 + ^
STACK CFI 33480 .cfa: sp 48 +
STACK CFI 3348c .cfa: sp 0 +
STACK CFI 33490 .cfa: sp 48 +
STACK CFI 3349c .cfa: sp 0 +
STACK CFI 334a0 .cfa: x29 48 +
STACK CFI INIT 34110 158 .cfa: sp 0 +
STACK CFI 34114 .cfa: sp 96 +
STACK CFI 34128 .cfa: x29 64 + x19: .cfa -8 + ^ x20: .cfa -16 + ^ x21: .cfa -24 + ^ x22: .cfa -32 + ^ x23: .cfa -48 + ^ .ra: .cfa -56 + ^ x29: .cfa -64 + ^
STACK CFI 3420c .cfa: sp 96 +
STACK CFI 34220 .cfa: sp 0 +
STACK CFI 34224 .cfa: x29 64 +
STACK CFI INIT 34268 190 .cfa: sp 0 +
STACK CFI INIT 34ecc 1dc .cfa: sp 0 +
STACK CFI 34ed0 .cfa: sp 80 +
STACK CFI 34ee4 .cfa: x29 80 + x19: .cfa -8 + ^ x20: .cfa -16 + ^ x21: .cfa -24 + ^ x22: .cfa -32 + ^ x23: .cfa -40 + ^ x24: .cfa -48 + ^ x25: .cfa -64 + ^ .ra: .cfa -72 + ^ x29: .cfa -80 + ^
STACK CFI 35090 .cfa: sp 80 +
STACK CFI 350a4 .cfa: sp 0 +
STACK CFI INIT 363f8 124 .cfa: sp 0 +
STACK CFI 36428 .cfa: sp 32 +
STACK CFI 36430 .cfa: x29 32 + x19: .cfa -8 + ^ x20: .cfa -16 + ^ .ra: .cfa -24 + ^ x29: .cfa -32 + ^
STACK CFI 36510 .cfa: sp 32 +
STACK CFI 36518 .cfa: sp 0 +
STACK CFI INIT 36c60 2f4 .cfa: sp 0 +
STACK CFI 36c64 .cfa: sp 64 +
STACK CFI 36c74 .cfa: x29 64 + x19: .cfa -8 + ^ x20: .cfa -16 + ^ x21: .cfa -24 + ^ x22: .cfa -32 + ^ x23: .cfa -40 + ^ x24: .cfa -48 + ^ .ra: .cfa -56 + ^ x29: .cfa -64 + ^
STACK CFI 36ed0 .cfa: sp 64 +
STACK CFI 36ee0 .cfa: sp 0 +
STACK CFI 36ee4 .cfa: x29 64 +
STACK CFI INIT 36f54 a0 .cfa: sp 0 +
STACK CFI 36f58 .cfa: sp 48 +
STACK CFI 36f64 .cfa: x29 48 + x19: .cfa -8 + ^ x20: .cfa -16 + ^ x21: .cfa -24 + ^ x22: .cfa -32 + ^ .ra: .cfa -40 + ^ x29: .cfa -48 + ^
STACK CFI 36fd0 .cfa: sp 48 +
STACK CFI 36fdc .cfa: sp 0 +
STACK CFI 36fe0 .cfa: sp 48 +
STACK CFI 36fec .cfa: sp 0 +
STACK CFI 36ff0 .cfa: x29 48 +
STACK CFI INIT 37e78 160 .cfa: sp 0 +
STACK CFI 37e7c .cfa: sp 64 +
STACK CFI 37e8c .cfa: x29 64 + x19: .cfa -8 + ^ x20: .cfa -16 + ^ x21: .cfa -24 + ^ x22: .cfa -32 + ^ x23: .cfa -48 + ^ .ra: .cfa -56 + ^ x29: .cfa -64 + ^
STACK CFI 37f84 .cfa: sp 64 +
STACK CFI 37f94 .cfa: sp 0 +
STACK CFI 37f98 .cfa: x29 64 +
STACK CFI INIT 37fd8 214 .cfa: sp 0 +
STACK CFI 37fdc .cfa: sp 128 +
STACK CFI 37ff8 .cfa: x29 96 + x19: .cfa -8 + ^ x20: .cfa -16 + ^ x21: .cfa -24 + ^ x22: .cfa -32 + ^ x23: .cfa -40 + ^ x24: .cfa -48 + ^ x25: .cfa -56 + ^ x26: .cfa -64 + ^ x27: .cfa -80 + ^ .ra: .cfa -88 + ^ x29: .cfa -96 + ^
STACK CFI 38174 .cfa: sp 128 +
STACK CFI 38190 .cfa: sp 0 +
STACK CFI 38194 .cfa: x29 96 +
STACK CFI INIT 39e28 288 .cfa: sp 0 +
STACK CFI 39e2c .cfa: sp 16 +
STACK CFI 39e30 .cfa: x29 16 + .ra: .cfa -8 + ^ x29: .cfa -16 + ^
STACK CFI 3a078 .cfa: sp 16 +
STACK CFI 3a07c .cfa: sp 0 +
STACK CFI 3a080 .cfa: x29 16 +
STACK CFI INIT 3a0b0 158 .cfa: sp 0 +
STACK CFI 3a0b4 .cfa: sp 112 +
STACK CFI 3a0d0 .cfa: x29 96 + x19: .cfa -8 + ^ x20: .cfa -16 + ^ x21: .cfa -24 + ^ x22: .cfa -32 + ^ x23: .cfa -40 + ^ x24: .cfa -48 + ^ x25: .cfa -56 + ^ x26: .cfa -64 + ^ x27: .cfa -72 + ^ x28: .cfa -80 + ^ .ra: .cfa -88 + ^ x29: .cfa -96 + ^
STACK CFI 3a1b8 .cfa: sp 112 +
STACK CFI 3a1bc .cfa: x29 96 +
STACK CFI 3a1c4 .cfa: sp 112 +
STACK CFI 3a1e0 .cfa: sp 0 +
STACK CFI 3a1e4 .cfa: x29 96 +
STACK CFI 3a204 .cfa: sp 112 +
STACK CFI INIT 3a208 e24 .cfa: sp 0 +
STACK CFI 3a20c .cfa: sp 192 +
STACK CFI 3a228 .cfa: x29 96 + x19: .cfa -8 + ^ x20: .cfa -16 + ^ x21: .cfa -24 + ^ x22: .cfa -32 + ^ x23: .cfa -40 + ^ x24: .cfa -48 + ^ x25: .cfa -56 + ^ x26: .cfa -64 + ^ x27: .cfa -72 + ^ x28: .cfa -80 + ^ .ra: .cfa -88 + ^ x29: .cfa -96 + ^
STACK CFI 3b008 .cfa: sp 192 +
STACK CFI 3b024 .cfa: sp 0 +
STACK CFI 3b028 .cfa: x29 96 +
STACK CFI INIT 3b02c fc8 .cfa: sp 0 +
STACK CFI 3b030 .cfa: sp 288 +
STACK CFI 3b04c .cfa: x29 96 + x19: .cfa -8 + ^ x20: .cfa -16 + ^ x21: .cfa -24 + ^ x22: .cfa -32 + ^ x23: .cfa -40 + ^ x24: .cfa -48 + ^ x25: .cfa -56 + ^ x26: .cfa -64 + ^ x27: .cfa -72 + ^ x28: .cfa -80 + ^ .ra: .cfa -88 + ^ x29: .cfa -96 + ^
STACK CFI 3bfd0 .cfa: sp 288 +
STACK CFI 3bfec .cfa: sp 0 +
STACK CFI 3bff0 .cfa: x29 96 +
STACK CFI INIT 3bff4 510 .cfa: sp 0 +
STACK CFI 3bff8 .cfa: sp 144 +
STACK CFI 3c014 .cfa: x29 96 + x19: .cfa -8 + ^ x20: .cfa -16 + ^ x21: .cfa -24 + ^ x22: .cfa -32 + ^ x23: .cfa -40 + ^ x24: .cfa -48 + ^ x25: .cfa -56 + ^ x26: .cfa -64 + ^ x27: .cfa -72 + ^ x28: .cfa -80 + ^ .ra: .cfa -88 + ^ x29: .cfa -96 + ^
STACK CFI 3c4e0 .cfa: sp 144 +
STACK CFI 3c4fc .cfa: sp 0 +
STACK CFI 3c500 .cfa: x29 96 +
STACK CFI INIT 3ce90 cb8 .cfa: sp 0 +
STACK CFI 3ce94 .cfa: sp 192 +
STACK CFI 3ceb0 .cfa: x29 96 + x19: .cfa -8 + ^ x20: .cfa -16 + ^ x21: .cfa -24 + ^ x22: .cfa -32 + ^ x23: .cfa -40 + ^ x24: .cfa -48 + ^ x25: .cfa -56 + ^ x26: .cfa -64 + ^ x27: .cfa -72 + ^ x28: .cfa -80 + ^ .ra: .cfa -88 + ^ x29: .cfa -96 + ^
STACK CFI 3db24 .cfa: sp 192 +
STACK CFI 3db40 .cfa: sp 0 +
STACK CFI 3db44 .cfa: x29 96 +
STACK CFI INIT 3db48 17c .cfa: sp 0 +
STACK CFI 3db4c .cfa: sp 80 +
STACK CFI 3db60 .cfa: x29 80 + x19: .cfa -8 + ^ x20: .cfa -16 + ^ x21: .cfa -24 + ^ x22: .cfa -32 + ^ x23: .cfa -40 + ^ x24: .cfa -48 + ^ x25: .cfa -64 + ^ .ra: .cfa -72 + ^ x29: .cfa -80 + ^
STACK CFI 3dc68 .cfa: sp 80 +
STACK CFI 3dc7c .cfa: sp 0 +
STACK CFI 3dc80 .cfa: x29 80 +
STACK CFI INIT 3dcc4 1b8 .cfa: sp 0 +
STACK CFI INIT 16a20 660 .cfa: sp 0 +
STACK CFI 16a24 .cfa: sp 208 +
STACK CFI 16a40 .cfa: x29 96 + x19: .cfa -8 + ^ x20: .cfa -16 + ^ x21: .cfa -24 + ^ x22: .cfa -32 + ^ x23: .cfa -40 + ^ x24: .cfa -48 + ^ x25: .cfa -56 + ^ x26: .cfa -64 + ^ x27: .cfa -80 + ^ .ra: .cfa -88 + ^ x29: .cfa -96 + ^
STACK CFI 16b34 .cfa: sp 208 +
STACK CFI 16b50 .cfa: sp 0 +
STACK CFI 16b54 .cfa: x29 96 +
STACK CFI 16f30 .cfa: sp 208 +
STACK CFI 16f4c .cfa: sp 0 +
STACK CFI 16f50 .cfa: x29 96 +
STACK CFI INIT 1709c 404 .cfa: sp 0 +
STACK CFI 170a0 .cfa: sp 208 +
STACK CFI 170b4 .cfa: x29 64 + x19: .cfa -8 + ^ x20: .cfa -16 + ^ x21: .cfa -24 + ^ x22: .cfa -32 + ^ x23: .cfa -48 + ^ .ra: .cfa -56 + ^ x29: .cfa -64 + ^
STACK CFI 17374 .cfa: sp 208 +
STACK CFI 17388 .cfa: sp 0 +
STACK CFI 1738c .cfa: x29 64 +
STACK CFI INIT 174f0 74 .cfa: sp 0 +
STACK CFI 174f4 .cfa: sp 48 +
STACK CFI 17500 .cfa: x29 32 + x19: .cfa -8 + ^ x20: .cfa -16 + ^ .ra: .cfa -24 + ^ x29: .cfa -32 + ^
STACK CFI 1754c .cfa: sp 48 +
STACK CFI 17558 .cfa: sp 0 +
STACK CFI 1755c .cfa: x29 32 +
STACK CFI INIT 17608 50 .cfa: sp 0 +
STACK CFI 1760c .cfa: sp 32 +
STACK CFI 17614 .cfa: x29 32 + x19: .cfa -8 + ^ x20: .cfa -16 + ^ .ra: .cfa -24 + ^ x29: .cfa -32 + ^
STACK CFI INIT 17bd0 154 .cfa: sp 0 +
STACK CFI 17bd4 .cfa: sp 384 +
STACK CFI 17be8 .cfa: x29 64 + x19: .cfa -8 + ^ x20: .cfa -16 + ^ x21: .cfa -24 + ^ x22: .cfa -32 + ^ x23: .cfa -40 + ^ x28: .cfa -48 + ^ .ra: .cfa -56 + ^ x29: .cfa -64 + ^
STACK CFI 17ccc .cfa: sp 384 +
STACK CFI 17ce0 .cfa: sp 0 +
STACK CFI 17ce4 .cfa: x29 64 +
STACK CFI INIT 17d58 124 .cfa: sp 0 +
STACK CFI 17d5c .cfa: sp 80 +
STACK CFI 17d70 .cfa: x29 80 + x19: .cfa -8 + ^ x20: .cfa -16 + ^ x21: .cfa -24 + ^ x22: .cfa -32 + ^ x23: .cfa -40 + ^ x24: .cfa -48 + ^ x25: .cfa -56 + ^ x26: .cfa -64 + ^ .ra: .cfa -72 + ^ x29: .cfa -80 + ^
STACK CFI 17e3c .cfa: sp 80 +
STACK CFI 17e50 .cfa: sp 0 +
STACK CFI 17e54 .cfa: x29 80 +
STACK CFI INIT 17f20 198 .cfa: sp 0 +
STACK CFI 17f24 .cfa: sp 112 +
STACK CFI 17f3c .cfa: x29 80 + x19: .cfa -8 + ^ x20: .cfa -16 + ^ x21: .cfa -24 + ^ x22: .cfa -32 + ^ x23: .cfa -40 + ^ x24: .cfa -48 + ^ x25: .cfa -56 + ^ x26: .cfa -64 + ^ .ra: .cfa -72 + ^ x29: .cfa -80 + ^
STACK CFI 1802c .cfa: sp 112 +
STACK CFI 18044 .cfa: sp 0 +
STACK CFI 18048 .cfa: x29 80 +
STACK CFI INIT 180b8 1b4 .cfa: sp 0 +
STACK CFI 180bc .cfa: sp 128 +
STACK CFI 180d8 .cfa: x29 96 + x19: .cfa -8 + ^ x20: .cfa -16 + ^ x21: .cfa -24 + ^ x22: .cfa -32 + ^ x23: .cfa -40 + ^ x24: .cfa -48 + ^ x25: .cfa -56 + ^ x26: .cfa -64 + ^ x27: .cfa -80 + ^ .ra: .cfa -88 + ^ x29: .cfa -96 + ^
STACK CFI 1821c .cfa: sp 128 +
STACK CFI 18238 .cfa: sp 0 +
STACK CFI 1823c .cfa: x29 96 +
STACK CFI INIT 1826c 15c .cfa: sp 0 +
STACK CFI 18270 .cfa: sp 80 +
STACK CFI 18284 .cfa: x29 80 + x19: .cfa -8 + ^ x20: .cfa -16 + ^ x21: .cfa -24 + ^ x22: .cfa -32 + ^ x23: .cfa -40 + ^ x24: .cfa -48 + ^ x25: .cfa -64 + ^ .ra: .cfa -72 + ^ x29: .cfa -80 + ^
STACK CFI 18394 .cfa: sp 80 +
STACK CFI 183a8 .cfa: sp 0 +
STACK CFI 183ac .cfa: x29 80 +
STACK CFI INIT 18510 168 .cfa: sp 0 +
STACK CFI 18514 .cfa: sp 384 +
STACK CFI 18528 .cfa: x29 64 + x19: .cfa -8 + ^ x20: .cfa -16 + ^ x21: .cfa -24 + ^ x22: .cfa -32 + ^ x23: .cfa -40 + ^ x28: .cfa -48 + ^ .ra: .cfa -56 + ^ x29: .cfa -64 + ^
STACK CFI 18620 .cfa: sp 384 +
STACK CFI 18634 .cfa: sp 0 +
STACK CFI 18638 .cfa: x29 64 +
STACK CFI INIT 18690 21c .cfa: sp 0 +
STACK CFI 18694 .cfa: sp 128 +
STACK CFI 186ac .cfa: x29 80 + x19: .cfa -8 + ^ x20: .cfa -16 + ^ x21: .cfa -24 + ^ x22: .cfa -32 + ^ x23: .cfa -40 + ^ x24: .cfa -48 + ^ x25: .cfa -64 + ^ .ra: .cfa -72 + ^ x29: .cfa -80 + ^
STACK CFI 1883c .cfa: sp 128 +
STACK CFI 18854 .cfa: sp 0 +
STACK CFI 18858 .cfa: x29 80 +
STACK CFI INIT 18ef4 2cf8 .cfa: sp 0 +
STACK CFI 18ef8 .cfa: sp 128 +
STACK CFI 18f18 .cfa: x29 96 + x19: .cfa -8 + ^ x20: .cfa -16 + ^ x21: .cfa -24 + ^ x22: .cfa -32 + ^ x23: .cfa -40 + ^ x24: .cfa -48 + ^ x25: .cfa -56 + ^ x26: .cfa -64 + ^ x27: .cfa -72 + ^ x28: .cfa -80 + ^ .ra: .cfa -88 + ^ x29: .cfa -96 + ^ v8: .cfa -104 + ^ v9: .cfa -112 + ^ v10: .cfa -128 + ^
STACK CFI 1b118 .cfa: sp 128 +
STACK CFI 1b138 .cfa: sp 0 +
STACK CFI 1b13c .cfa: x29 96 +
STACK CFI INIT 1bbec 134 .cfa: sp 0 +
STACK CFI 1bbf0 .cfa: sp 80 +
STACK CFI 1bc00 .cfa: x29 48 + x19: .cfa -8 + ^ x20: .cfa -16 + ^ x21: .cfa -24 + ^ x22: .cfa -32 + ^ .ra: .cfa -40 + ^ x29: .cfa -48 + ^
STACK CFI 1bd04 .cfa: sp 80 +
STACK CFI 1bd14 .cfa: sp 0 +
STACK CFI 1bd18 .cfa: x29 48 +
STACK CFI INIT 1bd20 2f4 .cfa: sp 0 +
STACK CFI 1bd24 .cfa: sp 160 +
STACK CFI 1bd3c .cfa: x29 64 + x19: .cfa -8 + ^ x20: .cfa -16 + ^ x21: .cfa -24 + ^ x22: .cfa -32 + ^ x23: .cfa -40 + ^ x24: .cfa -48 + ^ .ra: .cfa -56 + ^ x29: .cfa -64 + ^ v8: .cfa -80 + ^
STACK CFI 1bfac .cfa: sp 160 +
STACK CFI 1bfc4 .cfa: sp 0 +
STACK CFI 1bfc8 .cfa: x29 64 +
STACK CFI INIT 1c014 20 .cfa: sp 0 +
STACK CFI 1c018 .cfa: sp 16 +
STACK CFI 1c01c .cfa: x29 16 + .ra: .cfa -8 + ^ x29: .cfa -16 + ^
STACK CFI 1c028 .cfa: sp 16 +
STACK CFI 1c02c .cfa: sp 0 +
STACK CFI 1c030 .cfa: x29 16 +
STACK CFI INIT 1c034 1d0 .cfa: sp 0 +
STACK CFI 1c038 .cfa: sp 80 +
STACK CFI 1c04c .cfa: x29 64 + x19: .cfa -8 + ^ x20: .cfa -16 + ^ x21: .cfa -24 + ^ x22: .cfa -32 + ^ x23: .cfa -40 + ^ x24: .cfa -48 + ^ .ra: .cfa -56 + ^ x29: .cfa -64 + ^
STACK CFI 1c1ac .cfa: sp 80 +
STACK CFI 1c1c0 .cfa: sp 0 +
STACK CFI 1c1c4 .cfa: x29 64 +
STACK CFI INIT 1c204 3758 .cfa: sp 0 +
STACK CFI 1c208 .cfa: sp 112 +
STACK CFI 1c224 .cfa: x29 96 + x19: .cfa -8 + ^ x20: .cfa -16 + ^ x21: .cfa -24 + ^ x22: .cfa -32 + ^ x23: .cfa -40 + ^ x24: .cfa -48 + ^ x25: .cfa -56 + ^ x26: .cfa -64 + ^ x27: .cfa -72 + ^ x28: .cfa -80 + ^ .ra: .cfa -88 + ^ x29: .cfa -96 + ^ v8: .cfa -112 + ^
STACK CFI 1e404 .cfa: sp 112 +
STACK CFI 1e420 .cfa: sp 0 +
STACK CFI 1e424 .cfa: x29 96 +
STACK CFI INIT 1f95c 20 .cfa: sp 0 +
STACK CFI 1f960 .cfa: sp 16 +
STACK CFI 1f964 .cfa: x29 16 + .ra: .cfa -8 + ^ x29: .cfa -16 + ^
STACK CFI 1f970 .cfa: sp 16 +
STACK CFI 1f974 .cfa: sp 0 +
STACK CFI 1f978 .cfa: x29 16 +
STACK CFI INIT 1fad4 74 .cfa: sp 0 +
STACK CFI 1fad8 .cfa: sp 48 +
STACK CFI 1fae4 .cfa: x29 32 + x19: .cfa -8 + ^ x20: .cfa -16 + ^ .ra: .cfa -24 + ^ x29: .cfa -32 + ^
STACK CFI 1fb30 .cfa: sp 48 +
STACK CFI 1fb3c .cfa: sp 0 +
STACK CFI 1fb40 .cfa: x29 32 +
STACK CFI INIT 1fb48 74 .cfa: sp 0 +
STACK CFI 1fb4c .cfa: sp 48 +
STACK CFI 1fb58 .cfa: x29 32 + x19: .cfa -8 + ^ x20: .cfa -16 + ^ .ra: .cfa -24 + ^ x29: .cfa -32 + ^
STACK CFI 1fba4 .cfa: sp 48 +
STACK CFI 1fbb0 .cfa: sp 0 +
STACK CFI 1fbb4 .cfa: x29 32 +
STACK CFI INIT 1fc0c 74 .cfa: sp 0 +
STACK CFI 1fc10 .cfa: sp 48 +
STACK CFI 1fc1c .cfa: x29 32 + x19: .cfa -8 + ^ x20: .cfa -16 + ^ .ra: .cfa -24 + ^ x29: .cfa -32 + ^
STACK CFI 1fc68 .cfa: sp 48 +
STACK CFI 1fc74 .cfa: sp 0 +
STACK CFI 1fc78 .cfa: x29 32 +
STACK CFI INIT 1fc80 574 .cfa: sp 0 +
STACK CFI 1fc84 .cfa: sp 288 +
STACK CFI 1fca0 .cfa: x29 96 + x19: .cfa -8 + ^ x20: .cfa -16 + ^ x21: .cfa -24 + ^ x22: .cfa -32 + ^ x23: .cfa -40 + ^ x24: .cfa -48 + ^ x25: .cfa -56 + ^ x26: .cfa -64 + ^ x27: .cfa -72 + ^ x28: .cfa -80 + ^ .ra: .cfa -88 + ^ x29: .cfa -96 + ^
STACK CFI 20048 .cfa: sp 288 +
STACK CFI 20064 .cfa: sp 0 +
STACK CFI 20068 .cfa: x29 96 +
STACK CFI INIT 20464 2ec .cfa: sp 0 +
STACK CFI 20468 .cfa: sp 128 +
STACK CFI 20484 .cfa: x29 96 + x19: .cfa -8 + ^ x20: .cfa -16 + ^ x21: .cfa -24 + ^ x22: .cfa -32 + ^ x23: .cfa -40 + ^ x24: .cfa -48 + ^ x25: .cfa -56 + ^ x26: .cfa -64 + ^ x27: .cfa -72 + ^ x28: .cfa -80 + ^ .ra: .cfa -88 + ^ x29: .cfa -96 + ^
STACK CFI 206d0 .cfa: sp 128 +
STACK CFI 206ec .cfa: sp 0 +
STACK CFI 206f0 .cfa: x29 96 +
STACK CFI INIT 20750 104 .cfa: sp 0 +
STACK CFI 20754 .cfa: sp 80 +
STACK CFI 20768 .cfa: x29 80 + x19: .cfa -8 + ^ x20: .cfa -16 + ^ x21: .cfa -24 + ^ x22: .cfa -32 + ^ x23: .cfa -40 + ^ x24: .cfa -48 + ^ x25: .cfa -64 + ^ .ra: .cfa -72 + ^ x29: .cfa -80 + ^
STACK CFI 20804 .cfa: sp 80 +
STACK CFI 20818 .cfa: sp 0 +
STACK CFI 2081c .cfa: x29 80 +
STACK CFI INIT 208cc 50 .cfa: sp 0 +
STACK CFI 208d0 .cfa: sp 32 +
STACK CFI 208d8 .cfa: x29 32 + x19: .cfa -8 + ^ x20: .cfa -16 + ^ .ra: .cfa -24 + ^ x29: .cfa -32 + ^
STACK CFI INIT 209c8 1ac .cfa: sp 0 +
STACK CFI 209cc .cfa: sp 128 +
STACK CFI 209dc .cfa: x29 48 + x19: .cfa -8 + ^ x20: .cfa -16 + ^ x21: .cfa -32 + ^ .ra: .cfa -40 + ^ x29: .cfa -48 + ^
STACK CFI 20af8 .cfa: sp 128 +
STACK CFI 20b08 .cfa: sp 0 +
STACK CFI 20b0c .cfa: x29 48 +
STACK CFI INIT 20f30 198 .cfa: sp 0 +
STACK CFI 20f34 .cfa: sp 128 +
STACK CFI 20f48 .cfa: x29 64 + x19: .cfa -8 + ^ x20: .cfa -16 + ^ x21: .cfa -24 + ^ x22: .cfa -32 + ^ x23: .cfa -48 + ^ .ra: .cfa -56 + ^ x29: .cfa -64 + ^
STACK CFI 21088 .cfa: sp 128 +
STACK CFI 2109c .cfa: sp 0 +
STACK CFI 210a0 .cfa: x29 64 +
STACK CFI INIT 21394 188 .cfa: sp 0 +
STACK CFI 21398 .cfa: sp 112 +
STACK CFI 213a8 .cfa: x29 48 + x19: .cfa -8 + ^ x20: .cfa -16 + ^ x21: .cfa -24 + ^ x22: .cfa -32 + ^ .ra: .cfa -40 + ^ x29: .cfa -48 + ^
STACK CFI 214e0 .cfa: sp 112 +
STACK CFI 214f0 .cfa: sp 0 +
STACK CFI 214f4 .cfa: x29 48 +
STACK CFI INIT 215fc 7c .cfa: sp 0 +
STACK CFI 21600 .cfa: sp 32 +
STACK CFI 21608 .cfa: x29 32 + x19: .cfa -8 + ^ x20: .cfa -16 + ^ .ra: .cfa -24 + ^ x29: .cfa -32 + ^
STACK CFI 21658 .cfa: sp 32 +
STACK CFI 21660 .cfa: sp 0 +
STACK CFI 21664 .cfa: x29 32 +
STACK CFI INIT 21720 48c .cfa: sp 0 +
STACK CFI 21724 .cfa: sp 176 +
STACK CFI 21734 .cfa: x29 48 + x19: .cfa -8 + ^ x20: .cfa -16 + ^ x21: .cfa -32 + ^ .ra: .cfa -40 + ^ x29: .cfa -48 + ^
STACK CFI 219d8 .cfa: sp 176 +
STACK CFI 219e8 .cfa: sp 0 +
STACK CFI 219ec .cfa: x29 48 +
STACK CFI INIT 21bd4 74 .cfa: sp 0 +
STACK CFI 21bd8 .cfa: sp 48 +
STACK CFI 21be4 .cfa: x29 32 + x19: .cfa -8 + ^ x20: .cfa -16 + ^ .ra: .cfa -24 + ^ x29: .cfa -32 + ^
STACK CFI 21c30 .cfa: sp 48 +
STACK CFI 21c3c .cfa: sp 0 +
STACK CFI 21c40 .cfa: x29 32 +
STACK CFI INIT 21d18 2b68 .cfa: sp 0 +
STACK CFI 21d1c .cfa: sp 96 +
STACK CFI 21d34 .cfa: x29 96 + x19: .cfa -8 + ^ x20: .cfa -16 + ^ x21: .cfa -24 + ^ x22: .cfa -32 + ^ x23: .cfa -40 + ^ x24: .cfa -48 + ^ x25: .cfa -56 + ^ x26: .cfa -64 + ^ x27: .cfa -72 + ^ x28: .cfa -80 + ^ .ra: .cfa -88 + ^ x29: .cfa -96 + ^
STACK CFI 237e0 .cfa: sp 96 +
STACK CFI 237f8 .cfa: sp 0 +
STACK CFI 237fc .cfa: x29 96 +
STACK CFI INIT 24880 c80 .cfa: sp 0 +
STACK CFI 24884 .cfa: sp 256 +
STACK CFI 248a4 .cfa: x29 96 + x19: .cfa -8 + ^ x20: .cfa -16 + ^ x21: .cfa -24 + ^ x22: .cfa -32 + ^ x23: .cfa -40 + ^ x24: .cfa -48 + ^ x25: .cfa -56 + ^ x26: .cfa -64 + ^ x27: .cfa -72 + ^ x28: .cfa -80 + ^ .ra: .cfa -88 + ^ x29: .cfa -96 + ^ v8: .cfa -112 + ^
STACK CFI 25440 .cfa: sp 256 +
STACK CFI 25460 .cfa: sp 0 +
STACK CFI 25464 .cfa: x29 96 +
STACK CFI INIT 25500 74 .cfa: sp 0 +
STACK CFI 25504 .cfa: sp 48 +
STACK CFI 25510 .cfa: x29 32 + x19: .cfa -8 + ^ x20: .cfa -16 + ^ .ra: .cfa -24 + ^ x29: .cfa -32 + ^
STACK CFI 2555c .cfa: sp 48 +
STACK CFI 25568 .cfa: sp 0 +
STACK CFI 2556c .cfa: x29 32 +
STACK CFI INIT 256f4 414 .cfa: sp 0 +
STACK CFI 256f8 .cfa: sp 96 +
STACK CFI 25708 .cfa: x29 48 + x19: .cfa -8 + ^ x20: .cfa -16 + ^ x21: .cfa -24 + ^ x22: .cfa -32 + ^ .ra: .cfa -40 + ^ x29: .cfa -48 + ^
STACK CFI 25a90 .cfa: sp 96 +
STACK CFI 25aa0 .cfa: sp 0 +
STACK CFI 25aa4 .cfa: x29 48 +
STACK CFI INIT 25c5c d0 .cfa: sp 0 +
STACK CFI 25c60 .cfa: sp 80 +
STACK CFI 25c74 .cfa: x29 64 + x19: .cfa -8 + ^ x20: .cfa -16 + ^ x21: .cfa -24 + ^ x22: .cfa -32 + ^ x23: .cfa -40 + ^ x24: .cfa -48 + ^ .ra: .cfa -56 + ^ x29: .cfa -64 + ^
STACK CFI 25cec .cfa: sp 80 +
STACK CFI 25d00 .cfa: sp 0 +
STACK CFI 25d04 .cfa: x29 64 +
STACK CFI INIT 25d2c 184 .cfa: sp 0 +
STACK CFI 25d30 .cfa: sp 160 +
STACK CFI 25d40 .cfa: x29 48 + x19: .cfa -8 + ^ x20: .cfa -16 + ^ x21: .cfa -32 + ^ .ra: .cfa -40 + ^ x29: .cfa -48 + ^
STACK CFI 25e54 .cfa: sp 160 +
STACK CFI 25e64 .cfa: sp 0 +
STACK CFI 25e68 .cfa: x29 48 +
STACK CFI INIT 25eb0 74 .cfa: sp 0 +
STACK CFI 25eb4 .cfa: sp 48 +
STACK CFI 25ec0 .cfa: x29 32 + x19: .cfa -8 + ^ x20: .cfa -16 + ^ .ra: .cfa -24 + ^ x29: .cfa -32 + ^
STACK CFI 25f0c .cfa: sp 48 +
STACK CFI 25f18 .cfa: sp 0 +
STACK CFI 25f1c .cfa: x29 32 +
STACK CFI INIT 25f54 558 .cfa: sp 0 +
STACK CFI 25f58 .cfa: sp 176 +
STACK CFI 25f74 .cfa: x29 96 + x19: .cfa -8 + ^ x20: .cfa -16 + ^ x21: .cfa -24 + ^ x22: .cfa -32 + ^ x23: .cfa -40 + ^ x24: .cfa -48 + ^ x25: .cfa -56 + ^ x26: .cfa -64 + ^ x27: .cfa -72 + ^ x28: .cfa -80 + ^ .ra: .cfa -88 + ^ x29: .cfa -96 + ^
STACK CFI 26414 .cfa: sp 176 +
STACK CFI 26430 .cfa: sp 0 +
STACK CFI 26434 .cfa: x29 96 +
STACK CFI INIT 264ac dc .cfa: sp 0 +
STACK CFI 264b0 .cfa: sp 64 +
STACK CFI 264bc .cfa: x29 32 + x19: .cfa -8 + ^ x20: .cfa -16 + ^ .ra: .cfa -24 + ^ x29: .cfa -32 + ^
STACK CFI 26540 .cfa: sp 64 +
STACK CFI 2654c .cfa: sp 0 +
STACK CFI 26550 .cfa: x29 32 +
STACK CFI INIT 26830 62c .cfa: sp 0 +
STACK CFI 26834 .cfa: sp 224 +
STACK CFI 26850 .cfa: x29 96 + x19: .cfa -8 + ^ x20: .cfa -16 + ^ x21: .cfa -24 + ^ x22: .cfa -32 + ^ x23: .cfa -40 + ^ x24: .cfa -48 + ^ x25: .cfa -56 + ^ x26: .cfa -64 + ^ x27: .cfa -72 + ^ x28: .cfa -80 + ^ .ra: .cfa -88 + ^ x29: .cfa -96 + ^
STACK CFI 26cf0 .cfa: sp 224 +
STACK CFI 26d0c .cfa: sp 0 +
STACK CFI 26d10 .cfa: x29 96 +
STACK CFI INIT 26f70 12c .cfa: sp 0 +
STACK CFI 26f74 .cfa: sp 80 +
STACK CFI 26f88 .cfa: x29 64 + x19: .cfa -8 + ^ x20: .cfa -16 + ^ x21: .cfa -24 + ^ x22: .cfa -32 + ^ x23: .cfa -48 + ^ .ra: .cfa -56 + ^ x29: .cfa -64 + ^
STACK CFI 27054 .cfa: sp 80 +
STACK CFI 27068 .cfa: sp 0 +
STACK CFI 2706c .cfa: x29 64 +
STACK CFI INIT 2709c 20 .cfa: sp 0 +
STACK CFI 270a0 .cfa: sp 16 +
STACK CFI 270a4 .cfa: x29 16 + .ra: .cfa -8 + ^ x29: .cfa -16 + ^
STACK CFI 270b0 .cfa: sp 16 +
STACK CFI 270b4 .cfa: sp 0 +
STACK CFI 270b8 .cfa: x29 16 +
STACK CFI INIT 270bc 444 .cfa: sp 0 +
STACK CFI 270c0 .cfa: sp 224 +
STACK CFI 270dc .cfa: x29 96 + x19: .cfa -8 + ^ x20: .cfa -16 + ^ x21: .cfa -24 + ^ x22: .cfa -32 + ^ x23: .cfa -40 + ^ x24: .cfa -48 + ^ x25: .cfa -56 + ^ x26: .cfa -64 + ^ x27: .cfa -80 + ^ .ra: .cfa -88 + ^ x29: .cfa -96 + ^
STACK CFI 2730c .cfa: sp 224 +
STACK CFI 27328 .cfa: sp 0 +
STACK CFI 2732c .cfa: x29 96 +
STACK CFI 273f8 .cfa: sp 224 +
STACK CFI 27414 .cfa: sp 0 +
STACK CFI 27418 .cfa: x29 96 +
STACK CFI INIT 2751c 3d8 .cfa: sp 0 +
STACK CFI 27520 .cfa: sp 256 +
STACK CFI 27534 .cfa: x29 64 + x19: .cfa -8 + ^ x20: .cfa -16 + ^ x21: .cfa -24 + ^ x22: .cfa -32 + ^ x23: .cfa -48 + ^ .ra: .cfa -56 + ^ x29: .cfa -64 + ^
STACK CFI 277cc .cfa: sp 256 +
STACK CFI 277e0 .cfa: sp 0 +
STACK CFI 277e4 .cfa: x29 64 +
STACK CFI INIT 278f8 c68 .cfa: sp 0 +
STACK CFI 278fc .cfa: sp 304 +
STACK CFI 27920 .cfa: x29 96 + x19: .cfa -8 + ^ x20: .cfa -16 + ^ x21: .cfa -24 + ^ x22: .cfa -32 + ^ x23: .cfa -40 + ^ x24: .cfa -48 + ^ x25: .cfa -56 + ^ x26: .cfa -64 + ^ x27: .cfa -72 + ^ x28: .cfa -80 + ^ .ra: .cfa -88 + ^ x29: .cfa -96 + ^ v8: .cfa -104 + ^ v9: .cfa -112 + ^ v10: .cfa -128 + ^
STACK CFI 28404 .cfa: sp 304 +
STACK CFI 28428 .cfa: sp 0 +
STACK CFI 2842c .cfa: x29 96 +
STACK CFI INIT 28560 944 .cfa: sp 0 +
STACK CFI 28564 .cfa: sp 96 +
STACK CFI 2857c .cfa: x29 96 + x19: .cfa -8 + ^ x20: .cfa -16 + ^ x21: .cfa -24 + ^ x22: .cfa -32 + ^ x23: .cfa -40 + ^ x24: .cfa -48 + ^ x25: .cfa -56 + ^ x26: .cfa -64 + ^ x27: .cfa -72 + ^ x28: .cfa -80 + ^ .ra: .cfa -88 + ^ x29: .cfa -96 + ^
STACK CFI 28d04 .cfa: sp 96 +
STACK CFI 28d1c .cfa: sp 0 +
STACK CFI 28d20 .cfa: x29 96 +
STACK CFI INIT 28f84 3c0 .cfa: sp 0 +
STACK CFI 28f88 .cfa: sp 144 +
STACK CFI 28fa4 .cfa: x29 96 + x19: .cfa -8 + ^ x20: .cfa -16 + ^ x21: .cfa -24 + ^ x22: .cfa -32 + ^ x23: .cfa -40 + ^ x24: .cfa -48 + ^ x25: .cfa -56 + ^ x26: .cfa -64 + ^ x27: .cfa -72 + ^ x28: .cfa -80 + ^ .ra: .cfa -88 + ^ x29: .cfa -96 + ^
STACK CFI 292f4 .cfa: sp 144 +
STACK CFI 29310 .cfa: sp 0 +
STACK CFI 29314 .cfa: x29 96 +
STACK CFI INIT 29b70 400 .cfa: sp 0 +
STACK CFI 29b74 .cfa: sp 224 +
STACK CFI 29b90 .cfa: x29 96 + x19: .cfa -8 + ^ x20: .cfa -16 + ^ x21: .cfa -24 + ^ x22: .cfa -32 + ^ x23: .cfa -40 + ^ x24: .cfa -48 + ^ x25: .cfa -56 + ^ x26: .cfa -64 + ^ x27: .cfa -72 + ^ x28: .cfa -80 + ^ .ra: .cfa -88 + ^ x29: .cfa -96 + ^
STACK CFI 29e68 .cfa: sp 224 +
STACK CFI 29e84 .cfa: sp 0 +
STACK CFI 29e88 .cfa: x29 96 +
STACK CFI INIT 29f8c 3dc .cfa: sp 0 +
STACK CFI 29f90 .cfa: sp 256 +
STACK CFI 29fa4 .cfa: x29 64 + x19: .cfa -8 + ^ x20: .cfa -16 + ^ x21: .cfa -24 + ^ x22: .cfa -32 + ^ x23: .cfa -48 + ^ .ra: .cfa -56 + ^ x29: .cfa -64 + ^
STACK CFI 2a240 .cfa: sp 256 +
STACK CFI 2a254 .cfa: sp 0 +
STACK CFI 2a258 .cfa: x29 64 +
STACK CFI INIT 2a36c d98 .cfa: sp 0 +
STACK CFI 2a370 .cfa: sp 128 +
STACK CFI 2a38c .cfa: x29 72 + x19: .cfa -8 + ^ x20: .cfa -16 + ^ x21: .cfa -24 + ^ x22: .cfa -32 + ^ x23: .cfa -40 + ^ x24: .cfa -48 + ^ x25: .cfa -56 + ^ .ra: .cfa -64 + ^ x29: .cfa -72 + ^ v8: .cfa -80 + ^
STACK CFI 2b0a0 .cfa: sp 128 +
STACK CFI 2b0bc .cfa: sp 0 +
STACK CFI 2b0c0 .cfa: x29 72 +
STACK CFI INIT 2b23c 134 .cfa: sp 0 +
STACK CFI 2b240 .cfa: sp 80 +
STACK CFI 2b24c .cfa: x29 32 + x19: .cfa -8 + ^ x20: .cfa -16 + ^ .ra: .cfa -24 + ^ x29: .cfa -32 + ^
STACK CFI 2b27c .cfa: sp 80 +
STACK CFI 2b288 .cfa: sp 0 +
STACK CFI 2b28c .cfa: x29 32 +
STACK CFI INIT 2b370 78 .cfa: sp 0 +
STACK CFI 2b374 .cfa: sp 32 +
STACK CFI 2b37c .cfa: x29 32 + x19: .cfa -8 + ^ x20: .cfa -16 + ^ .ra: .cfa -24 + ^ x29: .cfa -32 + ^
STACK CFI 2b388 .cfa: sp 32 +
STACK CFI 2b390 .cfa: sp 0 +
STACK CFI 2b394 .cfa: x29 32 +
STACK CFI INIT 2b3e8 74 .cfa: sp 0 +
STACK CFI 2b3ec .cfa: sp 48 +
STACK CFI 2b3f8 .cfa: x29 32 + x19: .cfa -8 + ^ x20: .cfa -16 + ^ .ra: .cfa -24 + ^ x29: .cfa -32 + ^
STACK CFI 2b444 .cfa: sp 48 +
STACK CFI 2b450 .cfa: sp 0 +
STACK CFI 2b454 .cfa: x29 32 +
STACK CFI INIT 2b4c0 224 .cfa: sp 0 +
STACK CFI 2b4c4 .cfa: sp 128 +
STACK CFI 2b4d4 .cfa: x29 48 + x19: .cfa -8 + ^ x20: .cfa -16 + ^ x21: .cfa -32 + ^ .ra: .cfa -40 + ^ x29: .cfa -48 + ^
STACK CFI 2b584 .cfa: sp 128 +
STACK CFI 2b594 .cfa: sp 0 +
STACK CFI 2b598 .cfa: x29 48 +
STACK CFI INIT 2b708 150 .cfa: sp 0 +
STACK CFI 2b70c .cfa: sp 128 +
STACK CFI 2b71c .cfa: x29 48 + x19: .cfa -8 + ^ x20: .cfa -16 + ^ x21: .cfa -24 + ^ x22: .cfa -32 + ^ .ra: .cfa -40 + ^ x29: .cfa -48 + ^
STACK CFI 2b764 .cfa: sp 128 +
STACK CFI 2b774 .cfa: sp 0 +
STACK CFI 2b778 .cfa: x29 48 +
STACK CFI INIT 2b858 a8 .cfa: sp 0 +
STACK CFI 2b85c .cfa: sp 64 +
STACK CFI 2b86c .cfa: x29 48 + x19: .cfa -8 + ^ x20: .cfa -16 + ^ x21: .cfa -32 + ^ .ra: .cfa -40 + ^ x29: .cfa -48 + ^
STACK CFI 2b8d4 .cfa: sp 64 +
STACK CFI 2b8e4 .cfa: sp 0 +
STACK CFI 2b8e8 .cfa: x29 48 +
STACK CFI INIT 2b900 1b8 .cfa: sp 0 +
STACK CFI 2b904 .cfa: sp 160 +
STACK CFI 2b920 .cfa: x29 72 + x19: .cfa -8 + ^ x20: .cfa -16 + ^ x21: .cfa -24 + ^ x22: .cfa -32 + ^ x23: .cfa -40 + ^ x24: .cfa -48 + ^ x25: .cfa -56 + ^ .ra: .cfa -64 + ^ x29: .cfa -72 + ^ v8: .cfa -80 + ^
STACK CFI 2b9a4 .cfa: sp 160 +
STACK CFI 2b9c0 .cfa: sp 0 +
STACK CFI 2b9c4 .cfa: x29 72 +
STACK CFI INIT 2bab8 460 .cfa: sp 0 +
STACK CFI 2babc .cfa: sp 96 +
STACK CFI 2bad4 .cfa: x29 80 + x19: .cfa -8 + ^ x20: .cfa -16 + ^ x21: .cfa -24 + ^ x22: .cfa -32 + ^ x23: .cfa -40 + ^ x24: .cfa -48 + ^ x25: .cfa -64 + ^ .ra: .cfa -72 + ^ x29: .cfa -80 + ^
STACK CFI 2be94 .cfa: sp 96 +
STACK CFI 2beac .cfa: sp 0 +
STACK CFI 2beb0 .cfa: x29 80 +
STACK CFI INIT 2bf18 ac .cfa: sp 0 +
STACK CFI 2bf1c .cfa: sp 64 +
STACK CFI 2bf2c .cfa: x29 48 + x19: .cfa -8 + ^ x20: .cfa -16 + ^ x21: .cfa -32 + ^ .ra: .cfa -40 + ^ x29: .cfa -48 + ^
STACK CFI 2bf88 .cfa: sp 64 +
STACK CFI 2bf98 .cfa: sp 0 +
STACK CFI 2bf9c .cfa: x29 48 +
STACK CFI INIT 2c1bc 178 .cfa: sp 0 +
STACK CFI 2c1c0 .cfa: sp 128 +
STACK CFI 2c1d0 .cfa: x29 48 + x19: .cfa -8 + ^ x20: .cfa -16 + ^ x21: .cfa -24 + ^ x22: .cfa -32 + ^ .ra: .cfa -40 + ^ x29: .cfa -48 + ^
STACK CFI 2c22c .cfa: sp 128 +
STACK CFI 2c23c .cfa: sp 0 +
STACK CFI 2c240 .cfa: x29 48 +
STACK CFI INIT 2c334 a4 .cfa: sp 0 +
STACK CFI 2c338 .cfa: sp 48 +
STACK CFI 2c344 .cfa: x29 48 + x19: .cfa -8 + ^ x20: .cfa -16 + ^ x21: .cfa -32 + ^ .ra: .cfa -40 + ^ x29: .cfa -48 + ^
STACK CFI 2c3b0 .cfa: sp 48 +
STACK CFI 2c3bc .cfa: sp 0 +
STACK CFI 2c3c0 .cfa: x29 48 +
STACK CFI INIT 2c3d8 4c4 .cfa: sp 0 +
STACK CFI 2c3dc .cfa: sp 144 +
STACK CFI 2c3f0 .cfa: x29 64 + x19: .cfa -8 + ^ x20: .cfa -16 + ^ x21: .cfa -24 + ^ x22: .cfa -32 + ^ x23: .cfa -48 + ^ .ra: .cfa -56 + ^ x29: .cfa -64 + ^
STACK CFI 2c6ec .cfa: sp 144 +
STACK CFI 2c700 .cfa: sp 0 +
STACK CFI 2c704 .cfa: x29 64 +
STACK CFI INIT 2c89c 154 .cfa: sp 0 +
STACK CFI 2c8a0 .cfa: sp 384 +
STACK CFI 2c8b4 .cfa: x29 64 + x19: .cfa -8 + ^ x20: .cfa -16 + ^ x21: .cfa -24 + ^ x22: .cfa -32 + ^ x23: .cfa -40 + ^ x28: .cfa -48 + ^ .ra: .cfa -56 + ^ x29: .cfa -64 + ^
STACK CFI 2c998 .cfa: sp 384 +
STACK CFI 2c9ac .cfa: sp 0 +
STACK CFI 2c9b0 .cfa: x29 64 +
STACK CFI INIT 2ca08 43c .cfa: sp 0 +
STACK CFI 2ca0c .cfa: sp 64 +
STACK CFI 2ca1c .cfa: x29 64 + x19: .cfa -8 + ^ x20: .cfa -16 + ^ x21: .cfa -24 + ^ x22: .cfa -32 + ^ x23: .cfa -40 + ^ x24: .cfa -48 + ^ .ra: .cfa -56 + ^ x29: .cfa -64 + ^
STACK CFI 2cdd4 .cfa: sp 64 +
STACK CFI 2cde4 .cfa: sp 0 +
STACK CFI 2cde8 .cfa: x29 64 +
STACK CFI INIT 2d174 294 .cfa: sp 0 +
STACK CFI 2d178 .cfa: sp 240 +
STACK CFI 2d190 .cfa: x29 80 + x19: .cfa -8 + ^ x20: .cfa -16 + ^ x21: .cfa -24 + ^ x22: .cfa -32 + ^ x23: .cfa -40 + ^ x24: .cfa -48 + ^ x25: .cfa -64 + ^ .ra: .cfa -72 + ^ x29: .cfa -80 + ^
STACK CFI 2d330 .cfa: sp 240 +
STACK CFI 2d348 .cfa: sp 0 +
STACK CFI 2d34c .cfa: x29 80 +
STACK CFI INIT 2d478 50 .cfa: sp 0 +
STACK CFI 2d47c .cfa: sp 32 +
STACK CFI 2d484 .cfa: x29 32 + x19: .cfa -8 + ^ x20: .cfa -16 + ^ .ra: .cfa -24 + ^ x29: .cfa -32 + ^
STACK CFI INIT 2d4f4 750 .cfa: sp 0 +
STACK CFI 2d4f8 .cfa: sp 320 +
STACK CFI 2d514 .cfa: x29 96 + x19: .cfa -8 + ^ x20: .cfa -16 + ^ x21: .cfa -24 + ^ x22: .cfa -32 + ^ x23: .cfa -40 + ^ x24: .cfa -48 + ^ x25: .cfa -56 + ^ x26: .cfa -64 + ^ x27: .cfa -72 + ^ x28: .cfa -80 + ^ .ra: .cfa -88 + ^ x29: .cfa -96 + ^
STACK CFI 2db00 .cfa: sp 320 +
STACK CFI 2db1c .cfa: sp 0 +
STACK CFI 2db20 .cfa: x29 96 +
STACK CFI INIT 2dca8 12c .cfa: sp 0 +
STACK CFI 2dcac .cfa: sp 80 +
STACK CFI 2dcc0 .cfa: x29 80 + x19: .cfa -8 + ^ x20: .cfa -16 + ^ x21: .cfa -24 + ^ x22: .cfa -32 + ^ x23: .cfa -40 + ^ x24: .cfa -48 + ^ x28: .cfa -64 + ^ .ra: .cfa -72 + ^ x29: .cfa -80 + ^
STACK CFI 2dd88 .cfa: sp 80 +
STACK CFI 2dd9c .cfa: sp 0 +
STACK CFI 2dda0 .cfa: x29 80 +
STACK CFI INIT 31d44 c2c .cfa: sp 0 +
STACK CFI 31d48 .cfa: sp 96 +
STACK CFI 31d60 .cfa: x29 96 + x19: .cfa -8 + ^ x20: .cfa -16 + ^ x21: .cfa -24 + ^ x22: .cfa -32 + ^ x23: .cfa -40 + ^ x24: .cfa -48 + ^ x25: .cfa -56 + ^ x26: .cfa -64 + ^ x27: .cfa -72 + ^ x28: .cfa -80 + ^ .ra: .cfa -88 + ^ x29: .cfa -96 + ^
STACK CFI 32834 .cfa: sp 96 +
STACK CFI 3284c .cfa: sp 0 +
STACK CFI 32850 .cfa: x29 96 +
STACK CFI INIT 32ac4 238 .cfa: sp 0 +
STACK CFI 32ac8 .cfa: sp 128 +
STACK CFI 32ad8 .cfa: x29 48 + x19: .cfa -8 + ^ x20: .cfa -16 + ^ x21: .cfa -24 + ^ x22: .cfa -32 + ^ .ra: .cfa -40 + ^ x29: .cfa -48 + ^
STACK CFI 32c60 .cfa: sp 128 +
STACK CFI 32c70 .cfa: sp 0 +
STACK CFI 32c74 .cfa: x29 48 +
STACK CFI INIT 33060 3a4 .cfa: sp 0 +
STACK CFI 33064 .cfa: sp 96 +
STACK CFI 3307c .cfa: x29 96 + x19: .cfa -8 + ^ x20: .cfa -16 + ^ x21: .cfa -24 + ^ x22: .cfa -32 + ^ x23: .cfa -40 + ^ x24: .cfa -48 + ^ x25: .cfa -56 + ^ x26: .cfa -64 + ^ x27: .cfa -72 + ^ x28: .cfa -80 + ^ .ra: .cfa -88 + ^ x29: .cfa -96 + ^
STACK CFI 333a4 .cfa: sp 96 +
STACK CFI 333bc .cfa: sp 0 +
STACK CFI 333c0 .cfa: x29 96 +
STACK CFI INIT 334a4 c6c .cfa: sp 0 +
STACK CFI 334a8 .cfa: sp 96 +
STACK CFI 334c0 .cfa: x29 96 + x19: .cfa -8 + ^ x20: .cfa -16 + ^ x21: .cfa -24 + ^ x22: .cfa -32 + ^ x23: .cfa -40 + ^ x24: .cfa -48 + ^ x25: .cfa -56 + ^ x26: .cfa -64 + ^ x27: .cfa -72 + ^ x28: .cfa -80 + ^ .ra: .cfa -88 + ^ x29: .cfa -96 + ^
STACK CFI 33fc4 .cfa: sp 96 +
STACK CFI 33fdc .cfa: sp 0 +
STACK CFI 33fe0 .cfa: x29 96 +
STACK CFI INIT 343f8 ad4 .cfa: sp 0 +
STACK CFI 343fc .cfa: sp 96 +
STACK CFI 34414 .cfa: x29 96 + x19: .cfa -8 + ^ x20: .cfa -16 + ^ x21: .cfa -24 + ^ x22: .cfa -32 + ^ x23: .cfa -40 + ^ x24: .cfa -48 + ^ x25: .cfa -56 + ^ x26: .cfa -64 + ^ x27: .cfa -72 + ^ x28: .cfa -80 + ^ .ra: .cfa -88 + ^ x29: .cfa -96 + ^
STACK CFI 34e40 .cfa: sp 96 +
STACK CFI 34e58 .cfa: sp 0 +
STACK CFI 34e5c .cfa: x29 96 +
STACK CFI INIT 350a8 1350 .cfa: sp 0 +
STACK CFI 350ac .cfa: sp 96 +
STACK CFI 350c4 .cfa: x29 96 + x19: .cfa -8 + ^ x20: .cfa -16 + ^ x21: .cfa -24 + ^ x22: .cfa -32 + ^ x23: .cfa -40 + ^ x24: .cfa -48 + ^ x25: .cfa -56 + ^ x26: .cfa -64 + ^ x27: .cfa -72 + ^ x28: .cfa -80 + ^ .ra: .cfa -88 + ^ x29: .cfa -96 + ^
STACK CFI 362c4 .cfa: sp 96 +
STACK CFI 362dc .cfa: sp 0 +
STACK CFI 362e0 .cfa: x29 96 +
STACK CFI INIT 3651c 744 .cfa: sp 0 +
STACK CFI 36520 .cfa: sp 368 +
STACK CFI 3653c .cfa: x29 96 + x19: .cfa -8 + ^ x20: .cfa -16 + ^ x21: .cfa -24 + ^ x22: .cfa -32 + ^ x23: .cfa -40 + ^ x24: .cfa -48 + ^ x25: .cfa -56 + ^ x26: .cfa -64 + ^ x27: .cfa -72 + ^ x28: .cfa -80 + ^ .ra: .cfa -88 + ^ x29: .cfa -96 + ^
STACK CFI 365d8 .cfa: sp 368 +
STACK CFI 365f4 .cfa: sp 0 +
STACK CFI 365f8 .cfa: x29 96 +
STACK CFI 3664c .cfa: sp 368 +
STACK CFI 36668 .cfa: sp 0 +
STACK CFI 3666c .cfa: x29 96 +
STACK CFI INIT 36ff4 e84 .cfa: sp 0 +
STACK CFI 36ff8 .cfa: sp 96 +
STACK CFI 37010 .cfa: x29 96 + x19: .cfa -8 + ^ x20: .cfa -16 + ^ x21: .cfa -24 + ^ x22: .cfa -32 + ^ x23: .cfa -40 + ^ x24: .cfa -48 + ^ x25: .cfa -56 + ^ x26: .cfa -64 + ^ x27: .cfa -72 + ^ x28: .cfa -80 + ^ .ra: .cfa -88 + ^ x29: .cfa -96 + ^
STACK CFI 37c8c .cfa: sp 96 +
STACK CFI 37ca4 .cfa: sp 0 +
STACK CFI 37ca8 .cfa: x29 96 +
STACK CFI INIT 381ec 1c3c .cfa: sp 0 +
STACK CFI 381f0 .cfa: sp 112 +
STACK CFI 3820c .cfa: x29 96 + x19: .cfa -8 + ^ x20: .cfa -16 + ^ x21: .cfa -24 + ^ x22: .cfa -32 + ^ x23: .cfa -40 + ^ x24: .cfa -48 + ^ x25: .cfa -56 + ^ x26: .cfa -64 + ^ x27: .cfa -72 + ^ x28: .cfa -80 + ^ .ra: .cfa -88 + ^ x29: .cfa -96 + ^ v8: .cfa -112 + ^
STACK CFI 39b48 .cfa: sp 112 +
STACK CFI 39b64 .cfa: sp 0 +
STACK CFI 39b68 .cfa: x29 96 +
STACK CFI INIT 3c504 98c .cfa: sp 0 +
STACK CFI 3c508 .cfa: sp 144 +
STACK CFI 3c520 .cfa: x29 80 + x19: .cfa -8 + ^ x20: .cfa -16 + ^ x21: .cfa -24 + ^ x22: .cfa -32 + ^ x23: .cfa -40 + ^ x24: .cfa -48 + ^ x25: .cfa -64 + ^ .ra: .cfa -72 + ^ x29: .cfa -80 + ^
STACK CFI 3ce0c .cfa: sp 144 +
STACK CFI 3ce24 .cfa: sp 0 +
STACK CFI 3ce28 .cfa: x29 80 +
STACK CFI INIT 3de7c 570 .cfa: sp 0 +
STACK CFI 3de80 .cfa: sp 96 +
STACK CFI 3de98 .cfa: x29 96 + x19: .cfa -8 + ^ x20: .cfa -16 + ^ x21: .cfa -24 + ^ x22: .cfa -32 + ^ x23: .cfa -40 + ^ x24: .cfa -48 + ^ x25: .cfa -56 + ^ x26: .cfa -64 + ^ x27: .cfa -72 + ^ x28: .cfa -80 + ^ .ra: .cfa -88 + ^ x29: .cfa -96 + ^
STACK CFI 3e350 .cfa: sp 96 +
STACK CFI 3e368 .cfa: sp 0 +
STACK CFI 3e36c .cfa: x29 96 +
STACK CFI INIT 3e3ec 664 .cfa: sp 0 +
STACK CFI 3e3f0 .cfa: sp 96 +
STACK CFI 3e408 .cfa: x29 96 + x19: .cfa -8 + ^ x20: .cfa -16 + ^ x21: .cfa -24 + ^ x22: .cfa -32 + ^ x23: .cfa -40 + ^ x24: .cfa -48 + ^ x25: .cfa -56 + ^ x26: .cfa -64 + ^ x27: .cfa -72 + ^ x28: .cfa -80 + ^ .ra: .cfa -88 + ^ x29: .cfa -96 + ^
STACK CFI 3e9b4 .cfa: sp 96 +
STACK CFI 3e9cc .cfa: sp 0 +
STACK CFI 3e9d0 .cfa: x29 96 +
