MODULE Linux arm64 E6C39DE5E9AA37C17EC0A909C84C6ED90 glowrock.better_unlock_progression.android64.so
INFO CODE_ID E59DC3E6AAE9C1377EC0A909C84C6ED94C651381
INFO GENERATOR mozilla/dump_syms 2.3.4
PUBLIC 1f060 0 __on_dlclose
PUBLIC 1f070 0 __emutls_unregister_key
PUBLIC 1f078 0 __on_dlclose_late
PUBLIC 1f080 0 __atexit_handler_wrapper
PUBLIC 1f094 0 atexit
PUBLIC 1f0b0 0 pthread_atfork
PUBLIC 1f0c0 0 unwind_phase2
PUBLIC 1f1f4 0 _Unwind_Resume
PUBLIC 1f278 0 unwind_phase2_forced
PUBLIC m 1f36c 0 __unw_init_local
PUBLIC m 1f414 0 __unw_get_reg
PUBLIC 1f490 0 __unw_step_stage2
PUBLIC m 1f4a4 0 __unw_get_proc_info
PUBLIC m 1f4e4 0 __unw_resume
PUBLIC 1f50c 0 libunwind::CFI_Parser<libunwind::LocalAddressSpace>::decodeFDE(libunwind::LocalAddressSpace&, unsigned long, libunwind::CFI_Parser<libunwind::LocalAddressSpace>::FDE_Info*, libunwind::CFI_Parser<libunwind::LocalAddressSpace>::CIE_Info*, bool)
PUBLIC 1f69c 0 libunwind::CFI_Parser<libunwind::LocalAddressSpace>::parseCIE(libunwind::LocalAddressSpace&, unsigned long, libunwind::CFI_Parser<libunwind::LocalAddressSpace>::CIE_Info*)
PUBLIC 1f964 0 libunwind::AbstractUnwindCursor::~AbstractUnwindCursor()
PUBLIC 1f96c 0 libunwind::UnwindCursor<libunwind::LocalAddressSpace, libunwind::Registers_arm64>::~UnwindCursor()
PUBLIC 1f974 0 libunwind::UnwindCursor<libunwind::LocalAddressSpace, libunwind::Registers_arm64>::validReg(int)
PUBLIC 1f9b8 0 libunwind::UnwindCursor<libunwind::LocalAddressSpace, libunwind::Registers_arm64>::getReg(int)
PUBLIC 1faa0 0 libunwind::UnwindCursor<libunwind::LocalAddressSpace, libunwind::Registers_arm64>::setReg(int, unsigned long)
PUBLIC 1fb88 0 libunwind::UnwindCursor<libunwind::LocalAddressSpace, libunwind::Registers_arm64>::validFloatReg(int)
PUBLIC 1fb9c 0 libunwind::UnwindCursor<libunwind::LocalAddressSpace, libunwind::Registers_arm64>::getFloatReg(int)
PUBLIC 1fbac 0 libunwind::UnwindCursor<libunwind::LocalAddressSpace, libunwind::Registers_arm64>::setFloatReg(int, double)
PUBLIC 1fbbc 0 libunwind::UnwindCursor<libunwind::LocalAddressSpace, libunwind::Registers_arm64>::step(bool)
PUBLIC 1fcac 0 libunwind::UnwindCursor<libunwind::LocalAddressSpace, libunwind::Registers_arm64>::getInfo(unw_proc_info_t*)
PUBLIC 1fcf0 0 libunwind::UnwindCursor<libunwind::LocalAddressSpace, libunwind::Registers_arm64>::jumpto()
PUBLIC 1fcfc 0 libunwind::UnwindCursor<libunwind::LocalAddressSpace, libunwind::Registers_arm64>::isSignalFrame()
PUBLIC 1fd08 0 libunwind::UnwindCursor<libunwind::LocalAddressSpace, libunwind::Registers_arm64>::getFunctionName(char*, unsigned long, unsigned long*)
PUBLIC 1fd34 0 libunwind::UnwindCursor<libunwind::LocalAddressSpace, libunwind::Registers_arm64>::setInfoBasedOnIPRegister(bool)
PUBLIC 1ffb4 0 libunwind::UnwindCursor<libunwind::LocalAddressSpace, libunwind::Registers_arm64>::getRegisterName(int)
PUBLIC 1ffc0 0 libunwind::UnwindCursor<libunwind::LocalAddressSpace, libunwind::Registers_arm64>::stepThroughSigReturn(libunwind::Registers_arm64&)
PUBLIC 200e0 0 libunwind::DwarfInstructions<libunwind::LocalAddressSpace, libunwind::Registers_arm64>::stepWithDwarf(libunwind::LocalAddressSpace&, unsigned long, unsigned long, libunwind::Registers_arm64&, bool&, bool)
PUBLIC 20568 0 libunwind::CFI_Parser<libunwind::LocalAddressSpace>::parseFDEInstructions(libunwind::LocalAddressSpace&, libunwind::CFI_Parser<libunwind::LocalAddressSpace>::FDE_Info const&, libunwind::CFI_Parser<libunwind::LocalAddressSpace>::CIE_Info const&, unsigned long, int, libunwind::CFI_Parser<libunwind::LocalAddressSpace>::PrologInfo*)
PUBLIC 211b0 0 libunwind::DwarfInstructions<libunwind::LocalAddressSpace, libunwind::Registers_arm64>::getCFA(libunwind::LocalAddressSpace&, libunwind::CFI_Parser<libunwind::LocalAddressSpace>::PrologInfo const&, libunwind::Registers_arm64 const&)
PUBLIC 212e4 0 libunwind::DwarfInstructions<libunwind::LocalAddressSpace, libunwind::Registers_arm64>::getSavedRegister(libunwind::LocalAddressSpace&, libunwind::Registers_arm64 const&, unsigned long, libunwind::CFI_Parser<libunwind::LocalAddressSpace>::RegisterLocation const&)
PUBLIC 214f4 0 libunwind::LocalAddressSpace::getEncodedP(unsigned long&, unsigned long, unsigned char, unsigned long)
PUBLIC 21880 0 libunwind::LocalAddressSpace::getULEB128(unsigned long&, unsigned long)
PUBLIC 21a48 0 libunwind::DwarfInstructions<libunwind::LocalAddressSpace, libunwind::Registers_arm64>::evaluateExpression(unsigned long, libunwind::LocalAddressSpace&, libunwind::Registers_arm64 const&, unsigned long)
PUBLIC 22404 0 libunwind::UnwindCursor<libunwind::LocalAddressSpace, libunwind::Registers_arm64>::getInfoFromDwarfSection(unsigned long, libunwind::UnwindInfoSections const&, unsigned int)
PUBLIC 226d8 0 libunwind::findUnwindSectionsByPhdr(dl_phdr_info*, unsigned long, void*)
PUBLIC 2280c 0 libunwind::EHHeaderParser<libunwind::LocalAddressSpace>::decodeEHHdr(libunwind::LocalAddressSpace&, unsigned long, unsigned long, libunwind::EHHeaderParser<libunwind::LocalAddressSpace>::EHHeaderInfo&)
PUBLIC 2292c 0 libunwind::CFI_Parser<libunwind::LocalAddressSpace>::findFDE(libunwind::LocalAddressSpace&, unsigned long, unsigned long, unsigned long, unsigned long, libunwind::CFI_Parser<libunwind::LocalAddressSpace>::FDE_Info*, libunwind::CFI_Parser<libunwind::LocalAddressSpace>::CIE_Info*)
PUBLIC 22af4 0 libunwind::EHHeaderParser<libunwind::LocalAddressSpace>::findFDE(libunwind::LocalAddressSpace&, unsigned long, unsigned long, unsigned int, libunwind::CFI_Parser<libunwind::LocalAddressSpace>::FDE_Info*, libunwind::CFI_Parser<libunwind::LocalAddressSpace>::CIE_Info*)
PUBLIC 22c5c 0 libunwind::EHHeaderParser<libunwind::LocalAddressSpace>::getTableEntrySize(unsigned char)
PUBLIC 22d58 0 libunwind::Registers_arm64::getRegisterName(int)
PUBLIC 22d88 0 __libunwind_Registers_arm64_jumpto
PUBLIC m 22e18 0 __unw_getcontext
PUBLIC 22ec0 0 __aarch64_ldadd8_relax
PUBLIC 22ef0 0 init_have_lse_atomics
PUBLIC 22f88 0 __init_cpu_features_constructor
PUBLIC 23524 0 __init_cpu_features
PUBLIC 235b0 0 __aarch64_ldadd8_acq_rel
PUBLIC 235e0 0 __cxx_global_var_init
PUBLIC 2362c 0 geode::modifier::ModifyBase<geode::modifier::ModifyDerive<MyItemInfoPopup, ItemInfoPopup> >::~ModifyBase()
PUBLIC 23648 0 __cxx_global_var_init.1
PUBLIC 24224 0 geode::modifier::ModifyBase<geode::modifier::ModifyDerive<MyGJGarageLayer, GJGarageLayer> >::~ModifyBase()
PUBLIC 24240 0 geode::modifier::ModifyDerive<MyItemInfoPopup, ItemInfoPopup>::apply()
PUBLIC 24244 0 std::__ndk1::shared_ptr<geode::Hook>::~shared_ptr[abi:ne180000]()
PUBLIC 24294 0 geode::impl::ResultData<geode::Hook*, std::__ndk1::basic_string<char, std::__ndk1::char_traits<char>, std::__ndk1::allocator<char> > >::~ResultData()
PUBLIC 24308 0 std::__ndk1::vector<std::__ndk1::basic_string<char, std::__ndk1::char_traits<char>, std::__ndk1::allocator<char> >, std::__ndk1::allocator<std::__ndk1::basic_string<char, std::__ndk1::char_traits<char>, std::__ndk1::allocator<char> > > >::~vector[abi:ne180000]()
PUBLIC 24384 0 geode::modifier::ModifyBase<geode::modifier::ModifyDerive<MyItemInfoPopup, ItemInfoPopup> >::apply()
PUBLIC 24388 0 __clang_call_terminate
PUBLIC 24398 0 _ZN5geode15UnwrapExceptionC2IRPNS_4HookEQsr4implE18IsStringStreamableIT_EEENS_4impl5OkTagEOS5_
PUBLIC 244ec 0 std::__ndk1::__throw_bad_variant_access[abi:ne180000]()
PUBLIC 24520 0 std::__ndk1::basic_stringstream<char, std::__ndk1::char_traits<char>, std::__ndk1::allocator<char> >::basic_stringstream[abi:ne180000]()
PUBLIC m 2464c 0 std::__ndk1::basic_stringstream<char, std::__ndk1::char_traits<char>, std::__ndk1::allocator<char> >::~basic_stringstream()
PUBLIC 246cc 0 geode::UnwrapException::~UnwrapException()
PUBLIC 246f0 0 std::__ndk1::__put_character_sequence[abi:ne180000]<char, std::__ndk1::char_traits<char> >(std::__ndk1::basic_ostream<char, std::__ndk1::char_traits<char> >, std::__ndk1::basic_ostream const*, unsigned long)
PUBLIC 24894 0 std::__ndk1::__pad_and_output[abi:ne180000]<char, std::__ndk1::char_traits<char> >(std::__ndk1::char_traits<char>, std::__ndk1::ostreambuf_iterator const*, std::__ndk1::ostreambuf_iterator const, std::__ndk1::ostreambuf_iterator const, std::__ndk1::ios_base&, std::__ndk1::ostreambuf_iterator)
PUBLIC 24a70 0 std::__ndk1::basic_string<char, std::__ndk1::char_traits<char>, std::__ndk1::allocator<char> >::__throw_length_error[abi:ne180000]() const
PUBLIC 24a84 0 std::__ndk1::__throw_length_error[abi:ne180000](char const*)
PUBLIC 24ad4 0 std::length_error::length_error[abi:ne180000](char const*)
PUBLIC 24b04 0 std::__throw_bad_array_new_length([abi:ne180000], void)
PUBLIC 24b38 0 std::__ndk1::basic_stringbuf<char, std::__ndk1::char_traits<char>, std::__ndk1::allocator<char> >::str[abi:ne180000]() &&
PUBLIC 24cb0 0 std::__ndk1::basic_stringbuf<char, std::__ndk1::char_traits<char>, std::__ndk1::allocator<char> >::__init_buf_ptrs[abi:ne180000]()
PUBLIC 24df8 0 std::__ndk1::basic_string<char, std::__ndk1::char_traits<char>, std::__ndk1::allocator<char> >::__init_copy_ctor_external(char const*, unsigned long)
PUBLIC 24e78 0 std::__ndk1::__split_buffer<std::__ndk1::basic_string<char, std::__ndk1::char_traits<char>, std::__ndk1::allocator<char> >, std::__ndk1::allocator<std::__ndk1::basic_string<char, std::__ndk1::char_traits<char>, std::__ndk1::allocator<char> > >&>::~__split_buffer()
PUBLIC 24ee0 0 std::__ndk1::vector<std::__ndk1::basic_string<char, std::__ndk1::char_traits<char>, std::__ndk1::allocator<char> >, std::__ndk1::allocator<std::__ndk1::basic_string<char, std::__ndk1::char_traits<char>, std::__ndk1::allocator<char> > > >::__throw_length_error[abi:ne180000]() const
PUBLIC 24ef4 0 std::__ndk1::__variant_detail::__visitation::__base::__dispatcher<(unsigned long)0>::__dispatch[abi:ne180000]<std::__ndk1::__variant_detail::__dtor<std::__ndk1::__variant_detail::__traits<geode::Hook*, std::__ndk1::basic_string<char, std::__ndk1::char_traits<char>, std::__ndk1::allocator<char> > >, (std::__ndk1::__variant_detail::_Trait)1>::__destroy[abi:ne180000]()::{lambda(auto:1&)#1}, std::__ndk1::__variant_detail::__base<(std::__ndk1::__variant_detail::__traits<geode::Hook*, std::__ndk1::basic_string<char, std::__ndk1::char_traits<char>, std::__ndk1::allocator<char> > >)1, geode::Hook, std::__ndk1::allocator<char> >&>(std::__ndk1::__variant_detail::__dtor<std::__ndk1::__variant_detail::__traits<geode::Hook*, std::__ndk1::basic_string<char, std::__ndk1::char_traits<char>, std::__ndk1::allocator<char> > >, (std::__ndk1::__variant_detail::_Trait)1>, std::__ndk1::__variant_detail::__base<(std::__ndk1::__variant_detail::__traits<geode::Hook*, std::__ndk1::basic_string<char, std::__ndk1::char_traits<char>, std::__ndk1::allocator<char> > >)1, geode::Hook, std::__ndk1::allocator<char> >&)
PUBLIC 24ef8 0 std::__ndk1::__variant_detail::__visitation::__base::__dispatcher<(unsigned long)1>::__dispatch[abi:ne180000]<std::__ndk1::__variant_detail::__dtor<std::__ndk1::__variant_detail::__traits<geode::Hook*, std::__ndk1::basic_string<char, std::__ndk1::char_traits<char>, std::__ndk1::allocator<char> > >, (std::__ndk1::__variant_detail::_Trait)1>::__destroy[abi:ne180000]()::{lambda(auto:1&)#1}, std::__ndk1::__variant_detail::__base<(std::__ndk1::__variant_detail::__traits<geode::Hook*, std::__ndk1::basic_string<char, std::__ndk1::char_traits<char>, std::__ndk1::allocator<char> > >)1, geode::Hook, std::__ndk1::allocator<char> >&>(std::__ndk1::__variant_detail::__dtor<std::__ndk1::__variant_detail::__traits<geode::Hook*, std::__ndk1::basic_string<char, std::__ndk1::char_traits<char>, std::__ndk1::allocator<char> > >, (std::__ndk1::__variant_detail::_Trait)1>, std::__ndk1::__variant_detail::__base<(std::__ndk1::__variant_detail::__traits<geode::Hook*, std::__ndk1::basic_string<char, std::__ndk1::char_traits<char>, std::__ndk1::allocator<char> > >)1, geode::Hook, std::__ndk1::allocator<char> >&)
PUBLIC 24f0c 0 std::__ndk1::__tree<std::__ndk1::__value_type<std::__ndk1::basic_string<char, std::__ndk1::char_traits<char>, std::__ndk1::allocator<char> >, std::__ndk1::shared_ptr<geode::Hook> >, std::__ndk1::__map_value_compare<std::__ndk1::basic_string<char, std::__ndk1::char_traits<char>, std::__ndk1::allocator<char> >, std::__ndk1::__value_type<std::__ndk1::basic_string<char, std::__ndk1::char_traits<char>, std::__ndk1::allocator<char> >, std::__ndk1::shared_ptr<geode::Hook> >, std::__ndk1::less<std::__ndk1::basic_string<char, std::__ndk1::char_traits<char>, std::__ndk1::allocator<char> > >, true>, std::__ndk1::allocator<std::__ndk1::__value_type<std::__ndk1::basic_string<char, std::__ndk1::char_traits<char>, std::__ndk1::allocator<char> >, std::__ndk1::shared_ptr<geode::Hook> > > >::destroy(std::__ndk1::__tree_node<std::__ndk1::__value_type<std::__ndk1::basic_string<char, std::__ndk1::char_traits<char>, std::__ndk1::allocator<char> >, std::__ndk1::shared_ptr<geode::Hook> >, void*>*)
PUBLIC 24f98 0 geode::modifier::ModifyDerive<MyGJGarageLayer, GJGarageLayer>::apply()
PUBLIC 253b4 0 geode::modifier::ModifyBase<geode::modifier::ModifyDerive<MyGJGarageLayer, GJGarageLayer> >::apply()
PUBLIC 253b8 0 geode::modifier::AsStaticFunction_init<MyGJGarageLayer, bool (MyGJGarageLayer::*)()>::Impl<bool (MyGJGarageLayer::*)()>::function(MyGJGarageLayer*)
PUBLIC 254f4 0 geode::addresser::Addresser::addressOfVirtual<bool, GJGarageLayer, >(bool (GJGarageLayer::*)())
PUBLIC 2559c 0 GJGarageLayer::GJGarageLayer(geode::ZeroConstructorType)
PUBLIC 25650 0 std::__ndk1::shared_ptr<tulip::hook::CallingConvention>::~shared_ptr[abi:ne180000]()
PUBLIC 256a0 0 tulip::hook::HandlerMetadata::~HandlerMetadata()
PUBLIC 25704 0 MyGJGarageLayer::onMyButton(cocos2d::CCObject*)
PUBLIC 25828 0 std::__ndk1::__tree_balance_after_insert[abi:ne180000]<std::__ndk1::__tree_node_base<void*>*>(std::__ndk1::__tree_node_base<void*>*, std::__ndk1::__tree_node_base<void*>*)
PUBLIC 259d8 0 UnlockProgressionPopup::create(std::__ndk1::basic_string<char, std::__ndk1::char_traits<char>, std::__ndk1::allocator<char> > const&)
PUBLIC 25bd4 0 UnlockProgressionPopup::~UnlockProgressionPopup()
PUBLIC 25c9c 0 {virtual override thunk({offset(-320)}, UnlockProgressionPopup::~UnlockProgressionPopup())}
PUBLIC 25ca4 0 UnlockProgressionPopup::~UnlockProgressionPopup()
PUBLIC 25cc8 0 {virtual override thunk({offset(-320)}, UnlockProgressionPopup::~UnlockProgressionPopup())}
PUBLIC 25cf0 0 UnlockProgressionPopup::setup(std::__ndk1::basic_string<char, std::__ndk1::char_traits<char>, std::__ndk1::allocator<char> > const&)
PUBLIC 293d4 0 std::__ndk1::vector<std::__ndk1::basic_string<char, std::__ndk1::char_traits<char>, std::__ndk1::allocator<char> >, std::__ndk1::allocator<std::__ndk1::basic_string<char, std::__ndk1::char_traits<char>, std::__ndk1::allocator<char> > > >::vector[abi:ne180000](std::initializer_list<std::__ndk1::basic_string<char, std::__ndk1::char_traits<char>, std::__ndk1::allocator<char> > >)
PUBLIC 2952c 0 geode::Mod::getSettingValue<bool>(std::__ndk1::basic_string_view<char, std::__ndk1::char_traits<char> >) const
PUBLIC 29660 0 std::__ndk1::vector<std::__ndk1::vector<Utilities::UnlockData*, std::__ndk1::allocator<Utilities::UnlockData*> >, std::__ndk1::allocator<std::__ndk1::vector<Utilities::UnlockData*, std::__ndk1::allocator<Utilities::UnlockData*> > > >::~vector[abi:ne180000]()
PUBLIC 296dc 0 UnlockProgressionPopup::openProfile(cocos2d::CCObject*)
PUBLIC 29718 0 UnlockProgressionPopup::onPrevPage(cocos2d::CCObject*)
PUBLIC 29734 0 UnlockProgressionPopup::onNextPage(cocos2d::CCObject*)
PUBLIC 29750 0 UnlockProgressionPopup::onPageBtn(cocos2d::CCObject*)
PUBLIC 29788 0 UnlockProgressionPopup::updatePageVisibility()
PUBLIC 29880 0 geode::Mod::getSavedValue<int>(std::__ndk1::basic_string_view<char, std::__ndk1::char_traits<char> >)
PUBLIC 29a04 0 cocos2d::CCCopying::copyWithZone(cocos2d::CCZone*)
PUBLIC 29a0c 0 geode::Popup<std::__ndk1::basic_string<char, std::__ndk1::char_traits<char>, std::__ndk1::allocator<char> > const&>::registerWithTouchDispatcher()
PUBLIC 29a38 0 geode::Popup<std::__ndk1::basic_string<char, std::__ndk1::char_traits<char>, std::__ndk1::allocator<char> > const&>::keyDown(cocos2d::enumKeyCodes)
PUBLIC 29a60 0 cocos2d::CCLayerRGBA::setOpacityModifyRGB(bool)
PUBLIC 29a64 0 cocos2d::CCLayerRGBA::isOpacityModifyRGB()
PUBLIC 29a6c 0 geode::Popup<std::__ndk1::basic_string<char, std::__ndk1::char_traits<char>, std::__ndk1::allocator<char> > const&>::onClose(cocos2d::CCObject*)
PUBLIC 29bb4 0 {virtual override thunk({offset(-344)}, geode::Popup<std::__ndk1::basic_string<char, std::__ndk1::char_traits<char>, std::__ndk1::allocator<char> > const&>::keyDown(cocos2d::enumKeyCodes))}
PUBLIC 29be0 0 cocos2d::CCKeyboardDelegate::keyUp(cocos2d::enumKeyCodes)
PUBLIC 29be4 0 cocos2d::CCMouseDelegate::rightKeyDown()
PUBLIC 29be8 0 cocos2d::CCMouseDelegate::rightKeyUp()
PUBLIC 29bec 0 cocos2d::CCMouseDelegate::scrollWheel(float, float)
PUBLIC 29bf0 0 {virtual override thunk({offset(-408)}, cocos2d::CCLayerRGBA::setOpacityModifyRGB(bool))}
PUBLIC 29bf4 0 {virtual override thunk({offset(-408)}, cocos2d::CCLayerRGBA::isOpacityModifyRGB())}
PUBLIC 29bfc 0 geode::Popup<std::__ndk1::basic_string<char, std::__ndk1::char_traits<char>, std::__ndk1::allocator<char> > const&>::~Popup()
PUBLIC 29c68 0 geode::Popup<std::__ndk1::basic_string<char, std::__ndk1::char_traits<char>, std::__ndk1::allocator<char> > const&>::~Popup()
PUBLIC 29c6c 0 {virtual override thunk({offset(-320)}, geode::Popup<std::__ndk1::basic_string<char, std::__ndk1::char_traits<char>, std::__ndk1::allocator<char> > const&>::~Popup())}
PUBLIC 29cd8 0 {virtual override thunk({offset(-320)}, geode::Popup<std::__ndk1::basic_string<char, std::__ndk1::char_traits<char>, std::__ndk1::allocator<char> > const&>::~Popup())}
PUBLIC 29cdc 0 std::__ndk1::__exception_guard_exceptions<std::__ndk1::vector<std::__ndk1::basic_string<char, std::__ndk1::char_traits<char>, std::__ndk1::allocator<char> >, std::__ndk1::allocator<std::__ndk1::basic_string<char, std::__ndk1::char_traits<char>, std::__ndk1::allocator<char> > > >::__destroy_vector>::~__exception_guard_exceptions[abi:ne180000]()
PUBLIC 29d68 0 std::__ndk1::__exception_guard_exceptions<std::__ndk1::_AllocatorDestroyRangeReverse<std::__ndk1::allocator<std::__ndk1::basic_string<char, std::__ndk1::char_traits<char>, std::__ndk1::allocator<char> > >, std::__ndk1::basic_string<char, std::__ndk1::char_traits<char>, std::__ndk1::allocator<char> >*> >::~__exception_guard_exceptions[abi:ne180000]()
PUBLIC 29dc8 0 std::__ndk1::vector<Utilities::UnlockData*, std::__ndk1::allocator<Utilities::UnlockData*> >::__throw_length_error[abi:ne180000]() const
PUBLIC 29ddc 0 std::__ndk1::__exception_guard_exceptions<std::__ndk1::vector<std::__ndk1::vector<Utilities::UnlockData*, std::__ndk1::allocator<Utilities::UnlockData*> >, std::__ndk1::allocator<std::__ndk1::vector<Utilities::UnlockData*, std::__ndk1::allocator<Utilities::UnlockData*> > > >::__destroy_vector>::~__exception_guard_exceptions[abi:ne180000]()
PUBLIC 29e68 0 std::__ndk1::__exception_guard_exceptions<std::__ndk1::_AllocatorDestroyRangeReverse<std::__ndk1::allocator<std::__ndk1::vector<Utilities::UnlockData*, std::__ndk1::allocator<Utilities::UnlockData*> > >, std::__ndk1::vector<Utilities::UnlockData*, std::__ndk1::allocator<Utilities::UnlockData*> >*> >::~__exception_guard_exceptions[abi:ne180000]()
PUBLIC 29ec8 0 std::__ndk1::vector<int, std::__ndk1::allocator<int> >::__throw_length_error[abi:ne180000]() const
PUBLIC 29edc 0 std::__ndk1::vector<CCMenuItemSpriteExtra*, std::__ndk1::allocator<CCMenuItemSpriteExtra*> >::__throw_length_error[abi:ne180000]() const
PUBLIC 29ef0 0 geode::Popup<std::__ndk1::basic_string<char, std::__ndk1::char_traits<char>, std::__ndk1::allocator<char> > const&>::initBase(float, float, std::__ndk1::basic_string<char, std::__ndk1::char_traits<char>, std::__ndk1::allocator<char> > const&, char const*, cocos2d::CCRect, bool)
PUBLIC 2a204 0 geode::cast::traverseTypeinfoFor(void*, geode::cast::ClassTypeinfoType const*, char const*)
PUBLIC 2a308 0 geode::impl::ResultData<matjson::Value&, std::__ndk1::basic_string<char, std::__ndk1::char_traits<char>, std::__ndk1::allocator<char> > >::~ResultData()
PUBLIC 2a37c 0 matjson::Value::as<int>() const
PUBLIC 2a480 0 std::__ndk1::__variant_detail::__visitation::__base::__dispatcher<(unsigned long)0>::__dispatch[abi:ne180000]<std::__ndk1::__variant_detail::__dtor<std::__ndk1::__variant_detail::__traits<long, std::__ndk1::basic_string<char, std::__ndk1::char_traits<char>, std::__ndk1::allocator<char> > >, (std::__ndk1::__variant_detail::_Trait)1>::__destroy[abi:ne180000]()::{lambda(auto:1&)#1}, std::__ndk1::__variant_detail::__base<(std::__ndk1::__variant_detail::__traits<long, std::__ndk1::basic_string<char, std::__ndk1::char_traits<char>, std::__ndk1::allocator<char> > >)1, long, std::__ndk1::allocator<char> >&>(std::__ndk1::__variant_detail::__dtor<std::__ndk1::__variant_detail::__traits<long, std::__ndk1::basic_string<char, std::__ndk1::char_traits<char>, std::__ndk1::allocator<char> > >, (std::__ndk1::__variant_detail::_Trait)1>, std::__ndk1::__variant_detail::__base<(std::__ndk1::__variant_detail::__traits<long, std::__ndk1::basic_string<char, std::__ndk1::char_traits<char>, std::__ndk1::allocator<char> > >)1, long, std::__ndk1::allocator<char> >&)
PUBLIC 2a484 0 std::__ndk1::__variant_detail::__visitation::__base::__dispatcher<(unsigned long)1>::__dispatch[abi:ne180000]<std::__ndk1::__variant_detail::__dtor<std::__ndk1::__variant_detail::__traits<long, std::__ndk1::basic_string<char, std::__ndk1::char_traits<char>, std::__ndk1::allocator<char> > >, (std::__ndk1::__variant_detail::_Trait)1>::__destroy[abi:ne180000]()::{lambda(auto:1&)#1}, std::__ndk1::__variant_detail::__base<(std::__ndk1::__variant_detail::__traits<long, std::__ndk1::basic_string<char, std::__ndk1::char_traits<char>, std::__ndk1::allocator<char> > >)1, long, std::__ndk1::allocator<char> >&>(std::__ndk1::__variant_detail::__dtor<std::__ndk1::__variant_detail::__traits<long, std::__ndk1::basic_string<char, std::__ndk1::char_traits<char>, std::__ndk1::allocator<char> > >, (std::__ndk1::__variant_detail::_Trait)1>, std::__ndk1::__variant_detail::__base<(std::__ndk1::__variant_detail::__traits<long, std::__ndk1::basic_string<char, std::__ndk1::char_traits<char>, std::__ndk1::allocator<char> > >)1, long, std::__ndk1::allocator<char> >&)
PUBLIC 2a498 0 std::__ndk1::__variant_detail::__visitation::__base::__dispatcher<(unsigned long)0>::__dispatch[abi:ne180000]<std::__ndk1::__variant_detail::__dtor<std::__ndk1::__variant_detail::__traits<std::__ndk1::reference_wrapper<matjson::Value>, std::__ndk1::basic_string<char, std::__ndk1::char_traits<char>, std::__ndk1::allocator<char> > >, (std::__ndk1::__variant_detail::_Trait)1>::__destroy[abi:ne180000]()::{lambda(auto:1&)#1}, std::__ndk1::__variant_detail::__base<(std::__ndk1::__variant_detail::__traits<std::__ndk1::reference_wrapper<matjson::Value>, std::__ndk1::basic_string<char, std::__ndk1::char_traits<char>, std::__ndk1::allocator<char> > >)1, matjson::Value, std::__ndk1::allocator<char> >&>(std::__ndk1::__variant_detail::__dtor<std::__ndk1::__variant_detail::__traits<std::__ndk1::reference_wrapper<matjson::Value>, std::__ndk1::basic_string<char, std::__ndk1::char_traits<char>, std::__ndk1::allocator<char> > >, (std::__ndk1::__variant_detail::_Trait)1>, std::__ndk1::__variant_detail::__base<(std::__ndk1::__variant_detail::__traits<std::__ndk1::reference_wrapper<matjson::Value>, std::__ndk1::basic_string<char, std::__ndk1::char_traits<char>, std::__ndk1::allocator<char> > >)1, matjson::Value, std::__ndk1::allocator<char> >&)
PUBLIC 2a49c 0 std::__ndk1::__variant_detail::__visitation::__base::__dispatcher<(unsigned long)1>::__dispatch[abi:ne180000]<std::__ndk1::__variant_detail::__dtor<std::__ndk1::__variant_detail::__traits<std::__ndk1::reference_wrapper<matjson::Value>, std::__ndk1::basic_string<char, std::__ndk1::char_traits<char>, std::__ndk1::allocator<char> > >, (std::__ndk1::__variant_detail::_Trait)1>::__destroy[abi:ne180000]()::{lambda(auto:1&)#1}, std::__ndk1::__variant_detail::__base<(std::__ndk1::__variant_detail::__traits<std::__ndk1::reference_wrapper<matjson::Value>, std::__ndk1::basic_string<char, std::__ndk1::char_traits<char>, std::__ndk1::allocator<char> > >)1, matjson::Value, std::__ndk1::allocator<char> >&>(std::__ndk1::__variant_detail::__dtor<std::__ndk1::__variant_detail::__traits<std::__ndk1::reference_wrapper<matjson::Value>, std::__ndk1::basic_string<char, std::__ndk1::char_traits<char>, std::__ndk1::allocator<char> > >, (std::__ndk1::__variant_detail::_Trait)1>, std::__ndk1::__variant_detail::__base<(std::__ndk1::__variant_detail::__traits<std::__ndk1::reference_wrapper<matjson::Value>, std::__ndk1::basic_string<char, std::__ndk1::char_traits<char>, std::__ndk1::allocator<char> > >)1, matjson::Value, std::__ndk1::allocator<char> >&)
PUBLIC 2a4b0 0 std::__ndk1::__variant_detail::__visitation::__base::__dispatcher<(unsigned long)0>::__dispatch[abi:ne180000]<std::__ndk1::__variant_detail::__dtor<std::__ndk1::__variant_detail::__traits<int, std::__ndk1::basic_string<char, std::__ndk1::char_traits<char>, std::__ndk1::allocator<char> > >, (std::__ndk1::__variant_detail::_Trait)1>::__destroy[abi:ne180000]()::{lambda(auto:1&)#1}, std::__ndk1::__variant_detail::__base<(std::__ndk1::__variant_detail::__traits<int, std::__ndk1::basic_string<char, std::__ndk1::char_traits<char>, std::__ndk1::allocator<char> > >)1, int, std::__ndk1::allocator<char> >&>(std::__ndk1::__variant_detail::__dtor<std::__ndk1::__variant_detail::__traits<int, std::__ndk1::basic_string<char, std::__ndk1::char_traits<char>, std::__ndk1::allocator<char> > >, (std::__ndk1::__variant_detail::_Trait)1>, std::__ndk1::__variant_detail::__base<(std::__ndk1::__variant_detail::__traits<int, std::__ndk1::basic_string<char, std::__ndk1::char_traits<char>, std::__ndk1::allocator<char> > >)1, int, std::__ndk1::allocator<char> >&)
PUBLIC 2a4b4 0 std::__ndk1::__variant_detail::__visitation::__base::__dispatcher<(unsigned long)1>::__dispatch[abi:ne180000]<std::__ndk1::__variant_detail::__dtor<std::__ndk1::__variant_detail::__traits<int, std::__ndk1::basic_string<char, std::__ndk1::char_traits<char>, std::__ndk1::allocator<char> > >, (std::__ndk1::__variant_detail::_Trait)1>::__destroy[abi:ne180000]()::{lambda(auto:1&)#1}, std::__ndk1::__variant_detail::__base<(std::__ndk1::__variant_detail::__traits<int, std::__ndk1::basic_string<char, std::__ndk1::char_traits<char>, std::__ndk1::allocator<char> > >)1, int, std::__ndk1::allocator<char> >&>(std::__ndk1::__variant_detail::__dtor<std::__ndk1::__variant_detail::__traits<int, std::__ndk1::basic_string<char, std::__ndk1::char_traits<char>, std::__ndk1::allocator<char> > >, (std::__ndk1::__variant_detail::_Trait)1>, std::__ndk1::__variant_detail::__base<(std::__ndk1::__variant_detail::__traits<int, std::__ndk1::basic_string<char, std::__ndk1::char_traits<char>, std::__ndk1::allocator<char> > >)1, int, std::__ndk1::allocator<char> >&)
PUBLIC 2a4c8 0 geode::Popup<std::__ndk1::basic_string<char, std::__ndk1::char_traits<char>, std::__ndk1::allocator<char> > const&>::CloseEvent::~CloseEvent()
PUBLIC 2a528 0 geode::Popup<std::__ndk1::basic_string<char, std::__ndk1::char_traits<char>, std::__ndk1::allocator<char> > const&>::CloseEvent::~CloseEvent()
PUBLIC 2a598 0 std::__ndk1::__shared_ptr_emplace<geode::Popup<std::__ndk1::basic_string<char, std::__ndk1::char_traits<char>, std::__ndk1::allocator<char> > const&>::CloseEvent::Impl, std::__ndk1::allocator<geode::Popup<std::__ndk1::basic_string<char, std::__ndk1::char_traits<char>, std::__ndk1::allocator<char> > const&>::CloseEvent::Impl> >::~__shared_ptr_emplace()
PUBLIC 2a5a8 0 std::__ndk1::__shared_ptr_emplace<geode::Popup<std::__ndk1::basic_string<char, std::__ndk1::char_traits<char>, std::__ndk1::allocator<char> > const&>::CloseEvent::Impl, std::__ndk1::allocator<geode::Popup<std::__ndk1::basic_string<char, std::__ndk1::char_traits<char>, std::__ndk1::allocator<char> > const&>::CloseEvent::Impl> >::~__shared_ptr_emplace()
PUBLIC 2a5d8 0 std::__ndk1::__shared_ptr_emplace<geode::Popup<std::__ndk1::basic_string<char, std::__ndk1::char_traits<char>, std::__ndk1::allocator<char> > const&>::CloseEvent::Impl, std::__ndk1::allocator<geode::Popup<std::__ndk1::basic_string<char, std::__ndk1::char_traits<char>, std::__ndk1::allocator<char> > const&>::CloseEvent::Impl> >::__on_zero_shared()
PUBLIC 2a5dc 0 std::__ndk1::__shared_ptr_emplace<geode::Popup<std::__ndk1::basic_string<char, std::__ndk1::char_traits<char>, std::__ndk1::allocator<char> > const&>::CloseEvent::Impl, std::__ndk1::allocator<geode::Popup<std::__ndk1::basic_string<char, std::__ndk1::char_traits<char>, std::__ndk1::allocator<char> > const&>::CloseEvent::Impl> >::__on_zero_shared_weak()
PUBLIC 2a5e0 0 Utilities::Utilities()
PUBLIC 2a8d8 0 Utilities::createAllUnlocks()
PUBLIC 36dc8 0 Utilities::UnlockData::UnlockData(std::__ndk1::basic_string<char, std::__ndk1::char_traits<char>, std::__ndk1::allocator<char> > const&, int, IconType, std::__ndk1::basic_string<char, std::__ndk1::char_traits<char>, std::__ndk1::allocator<char> >, int, int)
PUBLIC 36eec 0 Utilities::UnlockData::UnlockData(std::__ndk1::basic_string<char, std::__ndk1::char_traits<char>, std::__ndk1::allocator<char> > const&, int, std::__ndk1::basic_string<char, std::__ndk1::char_traits<char>, std::__ndk1::allocator<char> > const&, std::__ndk1::basic_string<char, std::__ndk1::char_traits<char>, std::__ndk1::allocator<char> >, int, int)
PUBLIC 3703c 0 Utilities::addCommas(char const*)
PUBLIC 372d4 0 Utilities::openUnlockInfo(cocos2d::CCObject*)
PUBLIC 37408 0 Utilities::calculateXPosition(std::__ndk1::basic_string<char, std::__ndk1::char_traits<char>, std::__ndk1::allocator<char> >, int, int, std::__ndk1::basic_string<char, std::__ndk1::char_traits<char>, std::__ndk1::allocator<char> >)
PUBLIC 37ef0 0 Utilities::calculateYPosition(std::__ndk1::basic_string<char, std::__ndk1::char_traits<char>, std::__ndk1::allocator<char> >, int, int)
PUBLIC 38090 0 Utilities::placeUnlockable(cocos2d::CCObject*, int, cocos2d::CCLabelBMFont*, bool, cocos2d::CCNode*, cocos2d::CCMenu*, Utilities::UnlockData*, Utilities::UnlockData*, Utilities::UnlockData*, Utilities::UnlockData*, std::__ndk1::basic_string<char, std::__ndk1::char_traits<char>, std::__ndk1::allocator<char> >)
PUBLIC 38f98 0 Utilities::updatePage(int, cocos2d::CCNode*, std::__ndk1::vector<Utilities::UnlockData*, std::__ndk1::allocator<Utilities::UnlockData*> >, char const*)
PUBLIC 3a4b0 0 Utilities::split(std::__ndk1::basic_string<char, std::__ndk1::char_traits<char>, std::__ndk1::allocator<char> > const&, std::__ndk1::basic_string<char, std::__ndk1::char_traits<char>, std::__ndk1::allocator<char> > const&)
PUBLIC 3a8e8 0 Utilities::UnlockData::~UnlockData()
PUBLIC 3a964 0 Utilities::UnlockData::~UnlockData()
PUBLIC 3a9f0 0 cocos2d::CCObject::update(float)
PUBLIC 3a9f4 0 std::__ndk1::basic_string<char, std::__ndk1::char_traits<char>, std::__ndk1::allocator<char> >::__throw_out_of_range[abi:ne180000]() const
PUBLIC 3aa08 0 std::__ndk1::__throw_out_of_range[abi:ne180000](char const*)
PUBLIC 3aa58 0 std::out_of_range::out_of_range[abi:ne180000](char const*)
PUBLIC 3aa88 0 std::__ndk1::vector<float, std::__ndk1::allocator<float> >::__assign_with_size[abi:ne180000]<float const*, float const>(float const*, float const, long)
PUBLIC 3abac 0 std::__ndk1::vector<float, std::__ndk1::allocator<float> >::__throw_length_error[abi:ne180000]() const
PUBLIC 3abc0 0 cocos2d::CCFloat::~CCFloat()
PUBLIC 3abe4 0 cocos2d::CCFloat::acceptVisitor(cocos2d::CCDataVisitor&)
PUBLIC 3abfc 0 Utilities::UnlockInfo::~UnlockInfo()
PUBLIC 3ac3c 0 Utilities::UnlockInfo::~UnlockInfo()
PUBLIC 3ac80 0 std::__ndk1::vector<std::__ndk1::basic_string<char, std::__ndk1::char_traits<char>, std::__ndk1::allocator<char> >, std::__ndk1::allocator<std::__ndk1::basic_string<char, std::__ndk1::char_traits<char>, std::__ndk1::allocator<char> > > >::__push_back_slow_path<std::__ndk1::basic_string<char, std::__ndk1::char_traits<char>, std::__ndk1::allocator<char> > >(std::__ndk1::basic_string<char, std::__ndk1::char_traits<char>, std::__ndk1::allocator<char> >&&)
PUBLIC 3ade8 0 BasePage::BasePage(FLAlertLayer*)
PUBLIC 3af64 0 BasePage::~BasePage()
PUBLIC 3afa4 0 BasePage::~BasePage()
PUBLIC 3afa8 0 BasePage::createTitle(char const*, cocos2d::CCNode*)
PUBLIC 3da3c 0 std::__ndk1::basic_string<char, std::__ndk1::char_traits<char>, std::__ndk1::allocator<char> >::basic_string[abi:ne180000]<0>()
PUBLIC 3dad8 0 BasePage::createNavigationButtons(int)
PUBLIC 3e180 0 BasePage::onTierButton(cocos2d::CCObject*)
PUBLIC 3e2e8 0 std::__ndk1::vector<cocos2d::CCSprite*, std::__ndk1::allocator<cocos2d::CCSprite*> >::__throw_length_error[abi:ne180000]() const
PUBLIC 3e2fc 0 std::__ndk1::vector<cocos2d::CCSprite*, std::__ndk1::allocator<cocos2d::CCSprite*> >::__append(unsigned long)
PUBLIC 3e4ac 0 UnlockPage::UnlockPage(FLAlertLayer*, std::__ndk1::vector<Utilities::UnlockData*, std::__ndk1::allocator<Utilities::UnlockData*> >, char const*)
PUBLIC 3e708 0 geode::Task<geode::utils::web::WebResponse, geode::utils::web::WebProgress>::~Task()
PUBLIC 3e758 0 geode::EventListener<geode::Task<geode::utils::web::WebResponse, geode::utils::web::WebProgress> >::~EventListener()
PUBLIC 3e7f4 0 UnlockPage::~UnlockPage()
PUBLIC 3e96c 0 UnlockPage::~UnlockPage()
PUBLIC 3e990 0 UnlockPage::createPage(int)
PUBLIC 3f45c 0 UnlockPage::createTier(int, int)
PUBLIC 4006c 0 UnlockPage::refreshFriends(cocos2d::CCObject*)
PUBLIC 40770 0 UnlockPage::refreshMaxLikes(cocos2d::CCObject*)
PUBLIC 40778 0 UnlockPage::openSupportMeLevel(cocos2d::CCObject*)
PUBLIC 407ac 0 UnlockPage::refreshCreatorPoints(cocos2d::CCObject*)
PUBLIC 40b7c 0 UnlockPage::makeInfoPopup(std::__ndk1::basic_string<char, std::__ndk1::char_traits<char>, std::__ndk1::allocator<char> >)
PUBLIC 41078 0 UnlockPage::requestMostLiked(int)
PUBLIC 41448 0 geode::log::info<std::__ndk1::basic_string<char, std::__ndk1::char_traits<char>, std::__ndk1::allocator<char> > const&, char const*>(fmt::v11::basic_format_string<char, fmt::v11::type_identity<std::__ndk1::conditional<IsWrappedCocos<std::__ndk1::basic_string<char, std::__ndk1::char_traits<char>, std::__ndk1::allocator<char> > const&, char const*>, decltype ((wrapCocosObj<std::__ndk1::basic_string<char, std::__ndk1::char_traits<char>, std::__ndk1::allocator<char> > const&, char const*>)((std::declval<std::__ndk1::basic_string<char, std::__ndk1::char_traits<char>, std::__ndk1::allocator<char> > const&, char const*>)())), std::__ndk1::basic_string<char, std::__ndk1::char_traits<char>, std::__ndk1::allocator<char> > const&, char const*>::type>::type>, std::__ndk1::basic_string<char, std::__ndk1::char_traits<char>, std::__ndk1::allocator<char> > const&, char const*)
PUBLIC 414f4 0 geode::EventListener<geode::Task<geode::utils::web::WebResponse, geode::utils::web::WebProgress> >::getPool() const
PUBLIC 414f8 0 geode::EventListener<geode::Task<geode::utils::web::WebResponse, geode::utils::web::WebProgress> >::handle(geode::Event*)
PUBLIC 416c4 0 geode::EventListener<geode::Task<geode::utils::web::WebResponse, geode::utils::web::WebProgress> >::~EventListener()
PUBLIC 41768 0 std::__ndk1::__throw_bad_function_call[abi:ne180000]()
PUBLIC 4179c 0 std::__ndk1::bad_function_call::~bad_function_call()
PUBLIC 417c0 0 geode::Task<geode::utils::web::WebResponse, geode::utils::web::WebProgress>::setListener(geode::EventListenerProtocol*)
PUBLIC 419c4 0 geode::Task<geode::utils::web::WebResponse, geode::utils::web::WebProgress>::setListener(geode::EventListenerProtocol*)::{lambda()#1}::~{lambda()#1}()
PUBLIC 41a14 0 geode::Task<geode::utils::web::WebResponse, geode::utils::web::WebProgress>::setListener(geode::EventListenerProtocol*)::{lambda()#2}::~{lambda()#2}()
PUBLIC 41a64 0 std::__ndk1::__function::__func<geode::Task<geode::utils::web::WebResponse, geode::utils::web::WebProgress>::setListener(geode::EventListenerProtocol*)::{lambda()#1}, std::__ndk1::allocator<geode::Task<geode::utils::web::WebResponse, geode::utils::web::WebProgress>::setListener(geode::EventListenerProtocol*)::{lambda()#1}>, void ()>::~__func()
PUBLIC 41ac0 0 std::__ndk1::__function::__func<geode::Task<geode::utils::web::WebResponse, geode::utils::web::WebProgress>::setListener(geode::EventListenerProtocol*)::{lambda()#1}, std::__ndk1::allocator<geode::Task<geode::utils::web::WebResponse, geode::utils::web::WebProgress>::setListener(geode::EventListenerProtocol*)::{lambda()#1}>, void ()>::~__func()
PUBLIC 41b2c 0 std::__ndk1::__function::__func<geode::Task<geode::utils::web::WebResponse, geode::utils::web::WebProgress>::setListener(geode::EventListenerProtocol*)::{lambda()#1}, std::__ndk1::allocator<geode::Task<geode::utils::web::WebResponse, geode::utils::web::WebProgress>::setListener(geode::EventListenerProtocol*)::{lambda()#1}>, void ()>::__clone() const
PUBLIC 41b84 0 std::__ndk1::__function::__func<geode::Task<geode::utils::web::WebResponse, geode::utils::web::WebProgress>::setListener(geode::EventListenerProtocol*)::{lambda()#1}, std::__ndk1::allocator<geode::Task<geode::utils::web::WebResponse, geode::utils::web::WebProgress>::setListener(geode::EventListenerProtocol*)::{lambda()#1}>, void ()>::__clone(std::__ndk1::__function::__base<void ()>*) const
PUBLIC 41bd0 0 std::__ndk1::__function::__func<geode::Task<geode::utils::web::WebResponse, geode::utils::web::WebProgress>::setListener(geode::EventListenerProtocol*)::{lambda()#1}, std::__ndk1::allocator<geode::Task<geode::utils::web::WebResponse, geode::utils::web::WebProgress>::setListener(geode::EventListenerProtocol*)::{lambda()#1}>, void ()>::destroy()
PUBLIC 41c20 0 std::__ndk1::__function::__func<geode::Task<geode::utils::web::WebResponse, geode::utils::web::WebProgress>::setListener(geode::EventListenerProtocol*)::{lambda()#1}, std::__ndk1::allocator<geode::Task<geode::utils::web::WebResponse, geode::utils::web::WebProgress>::setListener(geode::EventListenerProtocol*)::{lambda()#1}>, void ()>::destroy_deallocate()
PUBLIC 41c80 0 std::__ndk1::__function::__func<geode::Task<geode::utils::web::WebResponse, geode::utils::web::WebProgress>::setListener(geode::EventListenerProtocol*)::{lambda()#1}, std::__ndk1::allocator<geode::Task<geode::utils::web::WebResponse, geode::utils::web::WebProgress>::setListener(geode::EventListenerProtocol*)::{lambda()#1}>, void ()>::operator()()
PUBLIC 41e50 0 std::__ndk1::__function::__func<geode::Task<geode::utils::web::WebResponse, geode::utils::web::WebProgress>::setListener(geode::EventListenerProtocol*)::{lambda()#1}, std::__ndk1::allocator<geode::Task<geode::utils::web::WebResponse, geode::utils::web::WebProgress>::setListener(geode::EventListenerProtocol*)::{lambda()#1}>, void ()>::target(std::type_info const&) const
PUBLIC 41e6c 0 std::__ndk1::__function::__func<geode::Task<geode::utils::web::WebResponse, geode::utils::web::WebProgress>::setListener(geode::EventListenerProtocol*)::{lambda()#1}, std::__ndk1::allocator<geode::Task<geode::utils::web::WebResponse, geode::utils::web::WebProgress>::setListener(geode::EventListenerProtocol*)::{lambda()#1}>, void ()>::target_type() const
PUBLIC 41e78 0 geode::Task<geode::utils::web::WebResponse, geode::utils::web::WebProgress>::Event::~Event()
PUBLIC 41ed8 0 geode::Task<geode::utils::web::WebResponse, geode::utils::web::WebProgress>::Event::~Event()
PUBLIC 41f48 0 std::__ndk1::__function::__func<geode::Task<geode::utils::web::WebResponse, geode::utils::web::WebProgress>::setListener(geode::EventListenerProtocol*)::{lambda()#2}, std::__ndk1::allocator<geode::Task<geode::utils::web::WebResponse, geode::utils::web::WebProgress>::setListener(geode::EventListenerProtocol*)::{lambda()#2}>, void ()>::~__func()
PUBLIC 41fa4 0 std::__ndk1::__function::__func<geode::Task<geode::utils::web::WebResponse, geode::utils::web::WebProgress>::setListener(geode::EventListenerProtocol*)::{lambda()#2}, std::__ndk1::allocator<geode::Task<geode::utils::web::WebResponse, geode::utils::web::WebProgress>::setListener(geode::EventListenerProtocol*)::{lambda()#2}>, void ()>::~__func()
PUBLIC 42010 0 std::__ndk1::__function::__func<geode::Task<geode::utils::web::WebResponse, geode::utils::web::WebProgress>::setListener(geode::EventListenerProtocol*)::{lambda()#2}, std::__ndk1::allocator<geode::Task<geode::utils::web::WebResponse, geode::utils::web::WebProgress>::setListener(geode::EventListenerProtocol*)::{lambda()#2}>, void ()>::__clone() const
PUBLIC 42068 0 std::__ndk1::__function::__func<geode::Task<geode::utils::web::WebResponse, geode::utils::web::WebProgress>::setListener(geode::EventListenerProtocol*)::{lambda()#2}, std::__ndk1::allocator<geode::Task<geode::utils::web::WebResponse, geode::utils::web::WebProgress>::setListener(geode::EventListenerProtocol*)::{lambda()#2}>, void ()>::__clone(std::__ndk1::__function::__base<void ()>*) const
PUBLIC 420b4 0 std::__ndk1::__function::__func<geode::Task<geode::utils::web::WebResponse, geode::utils::web::WebProgress>::setListener(geode::EventListenerProtocol*)::{lambda()#2}, std::__ndk1::allocator<geode::Task<geode::utils::web::WebResponse, geode::utils::web::WebProgress>::setListener(geode::EventListenerProtocol*)::{lambda()#2}>, void ()>::destroy()
PUBLIC 42104 0 std::__ndk1::__function::__func<geode::Task<geode::utils::web::WebResponse, geode::utils::web::WebProgress>::setListener(geode::EventListenerProtocol*)::{lambda()#2}, std::__ndk1::allocator<geode::Task<geode::utils::web::WebResponse, geode::utils::web::WebProgress>::setListener(geode::EventListenerProtocol*)::{lambda()#2}>, void ()>::destroy_deallocate()
PUBLIC 42164 0 std::__ndk1::__function::__func<geode::Task<geode::utils::web::WebResponse, geode::utils::web::WebProgress>::setListener(geode::EventListenerProtocol*)::{lambda()#2}, std::__ndk1::allocator<geode::Task<geode::utils::web::WebResponse, geode::utils::web::WebProgress>::setListener(geode::EventListenerProtocol*)::{lambda()#2}>, void ()>::operator()()
PUBLIC 42328 0 std::__ndk1::__function::__func<geode::Task<geode::utils::web::WebResponse, geode::utils::web::WebProgress>::setListener(geode::EventListenerProtocol*)::{lambda()#2}, std::__ndk1::allocator<geode::Task<geode::utils::web::WebResponse, geode::utils::web::WebProgress>::setListener(geode::EventListenerProtocol*)::{lambda()#2}>, void ()>::target(std::type_info const&) const
PUBLIC 42344 0 std::__ndk1::__function::__func<geode::Task<geode::utils::web::WebResponse, geode::utils::web::WebProgress>::setListener(geode::EventListenerProtocol*)::{lambda()#2}, std::__ndk1::allocator<geode::Task<geode::utils::web::WebResponse, geode::utils::web::WebProgress>::setListener(geode::EventListenerProtocol*)::{lambda()#2}>, void ()>::target_type() const
PUBLIC 42350 0 _ZN5geode15UnwrapExceptionC2IRNSt6__ndk112basic_stringIcNS2_11char_traitsIcEENS2_9allocatorIcEEEEQsr4implE18IsStringStreamableIT_EEENS_4impl6ErrTagEOSA_
PUBLIC 424b8 0 std::__ndk1::__function::__value_func<void (geode::Task<geode::utils::web::WebResponse, geode::utils::web::WebProgress>::Event*)>::swap[abi:ne180000](std::__ndk1::__function::__value_func<void (geode::Task<geode::utils::web::WebResponse, geode::utils::web::WebProgress>::Event*)>&)
PUBLIC 42650 0 std::__ndk1::__function::__func<UnlockPage::requestMostLiked(int)::$_0, std::__ndk1::allocator<UnlockPage::requestMostLiked(int)::$_0>, void (geode::Task<geode::utils::web::WebResponse, geode::utils::web::WebProgress>::Event*)>::~__func()
PUBLIC 42654 0 std::__ndk1::__function::__func<UnlockPage::requestMostLiked(int)::$_0, std::__ndk1::allocator<UnlockPage::requestMostLiked(int)::$_0>, void (geode::Task<geode::utils::web::WebResponse, geode::utils::web::WebProgress>::Event*)>::__clone() const
PUBLIC 4268c 0 std::__ndk1::__function::__func<UnlockPage::requestMostLiked(int)::$_0, std::__ndk1::allocator<UnlockPage::requestMostLiked(int)::$_0>, void (geode::Task<geode::utils::web::WebResponse, geode::utils::web::WebProgress>::Event*)>::__clone(std::__ndk1::__function::__base<void (geode::Task<geode::utils::web::WebResponse, geode::utils::web::WebProgress>::Event*)>*) const
PUBLIC 426a4 0 std::__ndk1::__function::__func<UnlockPage::requestMostLiked(int)::$_0, std::__ndk1::allocator<UnlockPage::requestMostLiked(int)::$_0>, void (geode::Task<geode::utils::web::WebResponse, geode::utils::web::WebProgress>::Event*)>::destroy()
PUBLIC 426a8 0 std::__ndk1::__function::__func<UnlockPage::requestMostLiked(int)::$_0, std::__ndk1::allocator<UnlockPage::requestMostLiked(int)::$_0>, void (geode::Task<geode::utils::web::WebResponse, geode::utils::web::WebProgress>::Event*)>::destroy_deallocate()
PUBLIC 426ac 0 std::__ndk1::__function::__func<UnlockPage::requestMostLiked(int)::$_0, std::__ndk1::allocator<UnlockPage::requestMostLiked(int)::$_0>, void (geode::Task<geode::utils::web::WebResponse, geode::utils::web::WebProgress>::Event*)>::operator()(geode::Task<geode::utils::web::WebResponse, geode::utils::web::WebProgress>::Event*&&)
PUBLIC 43754 0 std::__ndk1::__function::__func<UnlockPage::requestMostLiked(int)::$_0, std::__ndk1::allocator<UnlockPage::requestMostLiked(int)::$_0>, void (geode::Task<geode::utils::web::WebResponse, geode::utils::web::WebProgress>::Event*)>::target(std::type_info const&) const
PUBLIC 43770 0 std::__ndk1::__function::__func<UnlockPage::requestMostLiked(int)::$_0, std::__ndk1::allocator<UnlockPage::requestMostLiked(int)::$_0>, void (geode::Task<geode::utils::web::WebResponse, geode::utils::web::WebProgress>::Event*)>::target_type() const
PUBLIC 4377c 0 geode::impl::ResultData<std::__ndk1::basic_string<char, std::__ndk1::char_traits<char>, std::__ndk1::allocator<char> >, std::__ndk1::basic_string<char, std::__ndk1::char_traits<char>, std::__ndk1::allocator<char> > >::~ResultData()
PUBLIC 437f0 0 std::__ndk1::tuple<std::__ndk1::vector<std::__ndk1::basic_string<char, std::__ndk1::char_traits<char>, std::__ndk1::allocator<char> >, std::__ndk1::allocator<std::__ndk1::basic_string<char, std::__ndk1::char_traits<char>, std::__ndk1::allocator<char> > > >, int, int, int>::~tuple()
PUBLIC 4386c 0 std::__ndk1::__variant_detail::__visitation::__base::__dispatcher<(unsigned long)0>::__dispatch[abi:ne180000]<std::__ndk1::__variant_detail::__dtor<std::__ndk1::__variant_detail::__traits<std::__ndk1::basic_string<char, std::__ndk1::char_traits<char>, std::__ndk1::allocator<char> >, std::__ndk1::allocator<char> >, (std::__ndk1::__variant_detail::_Trait)1>::__destroy[abi:ne180000]()::{lambda(auto:1&)#1}, std::__ndk1::__variant_detail::__base<(std::__ndk1::__variant_detail::__traits<std::__ndk1::basic_string<char, std::__ndk1::char_traits<char>, std::__ndk1::allocator<char> >, std::__ndk1::allocator<char> >)1, std::__ndk1::allocator<char>, std::__ndk1::allocator<char> >&>(std::__ndk1::__variant_detail::__dtor<std::__ndk1::__variant_detail::__traits<std::__ndk1::basic_string<char, std::__ndk1::char_traits<char>, std::__ndk1::allocator<char> >, std::__ndk1::allocator<char> >, (std::__ndk1::__variant_detail::_Trait)1>, std::__ndk1::__variant_detail::__base<(std::__ndk1::__variant_detail::__traits<std::__ndk1::basic_string<char, std::__ndk1::char_traits<char>, std::__ndk1::allocator<char> >, std::__ndk1::allocator<char> >)1, std::__ndk1::allocator<char>, std::__ndk1::allocator<char> >&)
PUBLIC 43880 0 std::__ndk1::__variant_detail::__visitation::__base::__dispatcher<(unsigned long)1>::__dispatch[abi:ne180000]<std::__ndk1::__variant_detail::__dtor<std::__ndk1::__variant_detail::__traits<std::__ndk1::basic_string<char, std::__ndk1::char_traits<char>, std::__ndk1::allocator<char> >, std::__ndk1::allocator<char> >, (std::__ndk1::__variant_detail::_Trait)1>::__destroy[abi:ne180000]()::{lambda(auto:1&)#1}, std::__ndk1::__variant_detail::__base<(std::__ndk1::__variant_detail::__traits<std::__ndk1::basic_string<char, std::__ndk1::char_traits<char>, std::__ndk1::allocator<char> >, std::__ndk1::allocator<char> >)1, std::__ndk1::allocator<char>, std::__ndk1::allocator<char> >&>(std::__ndk1::__variant_detail::__dtor<std::__ndk1::__variant_detail::__traits<std::__ndk1::basic_string<char, std::__ndk1::char_traits<char>, std::__ndk1::allocator<char> >, std::__ndk1::allocator<char> >, (std::__ndk1::__variant_detail::_Trait)1>, std::__ndk1::__variant_detail::__base<(std::__ndk1::__variant_detail::__traits<std::__ndk1::basic_string<char, std::__ndk1::char_traits<char>, std::__ndk1::allocator<char> >, std::__ndk1::allocator<char> >)1, std::__ndk1::allocator<char>, std::__ndk1::allocator<char> >&)
PUBLIC 43894 0 fmt::v11::detail::value<fmt::v11::context>::format_custom_arg<fmt::v11::join_view<std::__ndk1::__wrap_iter<std::__ndk1::basic_string<char, std::__ndk1::char_traits<char>, std::__ndk1::allocator<char> >*>, std::__ndk1::__wrap_iter<std::__ndk1::basic_string<char, std::__ndk1::char_traits<char>, std::__ndk1::allocator<char> >*>, char>, fmt::v11::formatter<fmt::v11::join_view<std::__ndk1::__wrap_iter<std::__ndk1::basic_string<char, std::__ndk1::char_traits<char>, std::__ndk1::allocator<char> >*>, std::__ndk1::__wrap_iter<std::__ndk1::basic_string<char, std::__ndk1::char_traits<char>, std::__ndk1::allocator<char> >*>, char>, char, void> >(void*, fmt::v11::basic_format_parse_context<char>&, fmt::v11::context&)
PUBLIC 43c24 0 fmt::v11::detail::parse_format_specs<char>(char const*, char const*, fmt::v11::detail::dynamic_format_specs<char>&, fmt::v11::basic_format_parse_context<char>&, fmt::v11::detail::type)
PUBLIC 440d8 0 fmt::v11::detail::parse_dynamic_spec<char>(char const*, char const*, int&, fmt::v11::detail::arg_ref<char>&, fmt::v11::basic_format_parse_context<char>&)
PUBLIC 4427c 0 fmt::v11::detail::do_parse_arg_id<char, fmt::v11::detail::dynamic_spec_id_handler<char>&>(char const*, char const*, fmt::v11::detail::dynamic_spec_id_handler<char>&)
PUBLIC 44410 0 fmt::v11::detail::handle_dynamic_spec<fmt::v11::detail::width_checker, fmt::v11::context>(int&, fmt::v11::detail::arg_ref<fmt::v11::context::char_type>, fmt::v11::context&)
PUBLIC 44524 0 fmt::v11::detail::handle_dynamic_spec<fmt::v11::detail::precision_checker, fmt::v11::context>(int&, fmt::v11::detail::arg_ref<fmt::v11::context::char_type>, fmt::v11::context&)
PUBLIC 44638 0 fmt::v11::detail::write<char, fmt::v11::basic_appender<char> >(fmt::v11::basic_appender<char>, fmt::v11::basic_string_view<char>, fmt::v11::format_specs const&)
PUBLIC 448b4 0 fmt::v11::detail::write_escaped_string<char, fmt::v11::detail::counting_iterator>(fmt::v11::detail::counting_iterator, fmt::v11::basic_string_view<char>)
PUBLIC 44dd4 0 fmt::v11::detail::write_padded<char, (fmt::v11::align::type)1, fmt::v11::basic_appender<char>, fmt::v11::detail::write<char, fmt::v11::basic_appender<char> >(fmt::v11::basic_appender<char>, fmt::v11::basic_string_view<char>, fmt::v11::format_specs const&)::{lambda(fmt::v11::basic_appender<char>)#1}>(fmt::v11::basic_appender<char>, fmt::v11::format_specs const&, unsigned long, unsigned long, fmt::v11::detail::write<char, fmt::v11::basic_appender<char> >(fmt::v11::basic_appender<char>, fmt::v11::basic_string_view<char>, fmt::v11::format_specs const&)::{lambda(fmt::v11::basic_appender<char>&&)#1})
PUBLIC 44fe0 0 fmt::v11::detail::for_each_codepoint<fmt::v11::detail::code_point_index(fmt::v11::basic_string_view<char>, unsigned long)::{lambda(unsigned int, fmt::v11::basic_string_view<char>)#1}>(fmt::v11::basic_string_view<char>, fmt::v11::detail::code_point_index(fmt::v11::basic_string_view<char>, unsigned long)::{lambda(unsigned int, fmt::v11::basic_string_view<char>)#1})
PUBLIC 45408 0 fmt::v11::detail::write_escaped_cp<fmt::v11::detail::counting_iterator, char>(fmt::v11::detail::counting_iterator, fmt::v11::detail::find_escape_result<char> const&)
PUBLIC 4559c 0 fmt::v11::detail::for_each_codepoint<fmt::v11::detail::compute_width(fmt::v11::basic_string_view<char>)::count_code_points>(fmt::v11::basic_string_view<char>, fmt::v11::detail::compute_width(fmt::v11::basic_string_view<char>)::count_code_points)::{lambda(char const*, char const*)#1}::operator()(char const*, char const*) const
PUBLIC 45754 0 fmt::v11::detail::fill<char, fmt::v11::basic_appender<char> >(fmt::v11::basic_appender<char>, unsigned long, fmt::v11::detail::fill_t const&)
PUBLIC 45924 0 fmt::v11::detail::write_escaped_string<char, fmt::v11::basic_appender<char> >(fmt::v11::basic_appender<char>, fmt::v11::basic_string_view<char>)
PUBLIC 45fa0 0 fmt::v11::detail::write_escaped_cp<fmt::v11::basic_appender<char>, char>(fmt::v11::basic_appender<char>, fmt::v11::detail::find_escape_result<char> const&)
PUBLIC 46184 0 fmt::v11::detail::write_codepoint<(unsigned long)2, char, fmt::v11::basic_appender<char> >(fmt::v11::basic_appender<char>, char, unsigned int)
PUBLIC 462fc 0 fmt::v11::detail::write_codepoint<(unsigned long)4, char, fmt::v11::basic_appender<char> >(fmt::v11::basic_appender<char>, char, unsigned int)
PUBLIC 46474 0 fmt::v11::detail::write_codepoint<(unsigned long)8, char, fmt::v11::basic_appender<char> >(fmt::v11::basic_appender<char>, char, unsigned int)
PUBLIC 465ec 0 fmt::v11::detail::get_dynamic_spec<fmt::v11::detail::width_checker, fmt::v11::basic_format_arg<fmt::v11::context> >(fmt::v11::basic_format_arg<fmt::v11::context>)
PUBLIC 46680 0 fmt::v11::basic_format_args<fmt::v11::context>::get<char>(fmt::v11::basic_string_view<char>) const
PUBLIC 467d8 0 fmt::v11::detail::get_dynamic_spec<fmt::v11::detail::precision_checker, fmt::v11::basic_format_arg<fmt::v11::context> >(fmt::v11::basic_format_arg<fmt::v11::context>)
PUBLIC 4686c 0 fmt::v11::detail::value<fmt::v11::context>::format_custom_arg<fmt::v11::join_view<std::__ndk1::__wrap_iter<int*>, std::__ndk1::__wrap_iter<int*>, char>, fmt::v11::formatter<fmt::v11::join_view<std::__ndk1::__wrap_iter<int*>, std::__ndk1::__wrap_iter<int*>, char>, char, void> >(void*, fmt::v11::basic_format_parse_context<char>&, fmt::v11::context&)
PUBLIC 46d60 0 fmt::v11::detail::write_int_noinline<char, fmt::v11::basic_appender<char>, unsigned int>(fmt::v11::basic_appender<char>, fmt::v11::detail::write_int_arg<unsigned int>, fmt::v11::format_specs const&, fmt::v11::detail::locale_ref)
PUBLIC 47704 0 fmt::v11::detail::copy_noinline<char, char*, fmt::v11::basic_appender<char> >(char*, char*, fmt::v11::basic_appender<char>)
PUBLIC 47854 0 fmt::v11::detail::write_int<char, fmt::v11::basic_appender<char>, fmt::v11::detail::write_int<char, fmt::v11::basic_appender<char>, unsigned int>(fmt::v11::basic_appender<char>, fmt::v11::detail::write_int_arg<unsigned int>, fmt::v11::format_specs const&, fmt::v11::detail::locale_ref)::{lambda(fmt::v11::basic_appender<char>)#1}>(fmt::v11::basic_appender<char>, int, unsigned int, fmt::v11::format_specs const&, fmt::v11::detail::write_int<char, fmt::v11::basic_appender<char>, unsigned int>(fmt::v11::basic_appender<char>, fmt::v11::detail::write_int_arg<unsigned int>, fmt::v11::format_specs const&, fmt::v11::detail::locale_ref)::{lambda(fmt::v11::basic_appender<char>)#1})::{lambda(fmt::v11::basic_appender<char>(fmt::v11::basic_appender<char>))#1}::operator() const
PUBLIC 479e4 0 fmt::v11::detail::write_int<char, fmt::v11::basic_appender<char>, fmt::v11::detail::write_int<char, fmt::v11::basic_appender<char>, unsigned int>(fmt::v11::basic_appender<char>, fmt::v11::detail::write_int_arg<unsigned int>, fmt::v11::format_specs const&, fmt::v11::detail::locale_ref)::{lambda(fmt::v11::basic_appender<char>)#2}>(fmt::v11::basic_appender<char>, int, unsigned int, fmt::v11::format_specs const&, fmt::v11::detail::write_int<char, fmt::v11::basic_appender<char>, unsigned int>(fmt::v11::basic_appender<char>, fmt::v11::detail::write_int_arg<unsigned int>, fmt::v11::format_specs const&, fmt::v11::detail::locale_ref)::{lambda(fmt::v11::basic_appender<char>)#2})::{lambda(fmt::v11::basic_appender<char>(fmt::v11::basic_appender<char>))#1}::operator() const
PUBLIC 47bc8 0 fmt::v11::detail::write_int<char, fmt::v11::basic_appender<char>, fmt::v11::detail::write_int<char, fmt::v11::basic_appender<char>, unsigned int>(fmt::v11::basic_appender<char>, fmt::v11::detail::write_int_arg<unsigned int>, fmt::v11::format_specs const&, fmt::v11::detail::locale_ref)::{lambda(fmt::v11::basic_appender<char>)#3}>(fmt::v11::basic_appender<char>, int, unsigned int, fmt::v11::format_specs const&, fmt::v11::detail::write_int<char, fmt::v11::basic_appender<char>, unsigned int>(fmt::v11::basic_appender<char>, fmt::v11::detail::write_int_arg<unsigned int>, fmt::v11::format_specs const&, fmt::v11::detail::locale_ref)::{lambda(fmt::v11::basic_appender<char>)#3})::{lambda(fmt::v11::basic_appender<char>(fmt::v11::basic_appender<char>))#1}::operator() const
PUBLIC 47d70 0 fmt::v11::detail::write_int<char, fmt::v11::basic_appender<char>, fmt::v11::detail::write_int<char, fmt::v11::basic_appender<char>, unsigned int>(fmt::v11::basic_appender<char>, fmt::v11::detail::write_int_arg<unsigned int>, fmt::v11::format_specs const&, fmt::v11::detail::locale_ref)::{lambda(fmt::v11::basic_appender<char>)#4}>(fmt::v11::basic_appender<char>, int, unsigned int, fmt::v11::format_specs const&, fmt::v11::detail::write_int<char, fmt::v11::basic_appender<char>, unsigned int>(fmt::v11::basic_appender<char>, fmt::v11::detail::write_int_arg<unsigned int>, fmt::v11::format_specs const&, fmt::v11::detail::locale_ref)::{lambda(fmt::v11::basic_appender<char>)#4})::{lambda(fmt::v11::basic_appender<char>(fmt::v11::basic_appender<char>))#1}::operator() const
PUBLIC 47f1c 0 fmt::v11::detail::write_padded<char, (fmt::v11::align::type)1, fmt::v11::basic_appender<char>, fmt::v11::detail::write_char<char, fmt::v11::basic_appender<char> >(fmt::v11::basic_appender<char>, char, fmt::v11::format_specs const&)::{lambda(fmt::v11::basic_appender<char>&)#1}>(fmt::v11::basic_appender<char>, fmt::v11::format_specs const&, unsigned long, unsigned long, fmt::v11::detail::write_char<char, fmt::v11::basic_appender<char> >(fmt::v11::basic_appender<char>, char, fmt::v11::format_specs const&)::{lambda(fmt::v11::basic_appender<char>&)#1})
PUBLIC 48024 0 fmt::v11::detail::write_escaped_char<char, fmt::v11::basic_appender<char> >(fmt::v11::basic_appender<char>, char)
PUBLIC 4819c 0 std::__ndk1::__function::__base<void (geode::Task<geode::utils::web::WebResponse, geode::utils::web::WebProgress>::Event*)>::~__base()
PUBLIC 481a0 0 std::__ndk1::__function::__func<UnlockPage::requestCreatorPoints()::$_0, std::__ndk1::allocator<UnlockPage::requestCreatorPoints()::$_0>, void (geode::Task<geode::utils::web::WebResponse, geode::utils::web::WebProgress>::Event*)>::~__func()
PUBLIC 481a4 0 std::__ndk1::__function::__func<UnlockPage::requestCreatorPoints()::$_0, std::__ndk1::allocator<UnlockPage::requestCreatorPoints()::$_0>, void (geode::Task<geode::utils::web::WebResponse, geode::utils::web::WebProgress>::Event*)>::__clone() const
PUBLIC 481d8 0 std::__ndk1::__function::__func<UnlockPage::requestCreatorPoints()::$_0, std::__ndk1::allocator<UnlockPage::requestCreatorPoints()::$_0>, void (geode::Task<geode::utils::web::WebResponse, geode::utils::web::WebProgress>::Event*)>::__clone(std::__ndk1::__function::__base<void (geode::Task<geode::utils::web::WebResponse, geode::utils::web::WebProgress>::Event*)>*) const
PUBLIC 481ec 0 std::__ndk1::__function::__func<UnlockPage::requestCreatorPoints()::$_0, std::__ndk1::allocator<UnlockPage::requestCreatorPoints()::$_0>, void (geode::Task<geode::utils::web::WebResponse, geode::utils::web::WebProgress>::Event*)>::destroy()
PUBLIC 481f0 0 std::__ndk1::__function::__func<UnlockPage::requestCreatorPoints()::$_0, std::__ndk1::allocator<UnlockPage::requestCreatorPoints()::$_0>, void (geode::Task<geode::utils::web::WebResponse, geode::utils::web::WebProgress>::Event*)>::destroy_deallocate()
PUBLIC 481f4 0 std::__ndk1::__function::__func<UnlockPage::requestCreatorPoints()::$_0, std::__ndk1::allocator<UnlockPage::requestCreatorPoints()::$_0>, void (geode::Task<geode::utils::web::WebResponse, geode::utils::web::WebProgress>::Event*)>::operator()(geode::Task<geode::utils::web::WebResponse, geode::utils::web::WebProgress>::Event*&&)
PUBLIC 48a80 0 std::__ndk1::__function::__func<UnlockPage::requestCreatorPoints()::$_0, std::__ndk1::allocator<UnlockPage::requestCreatorPoints()::$_0>, void (geode::Task<geode::utils::web::WebResponse, geode::utils::web::WebProgress>::Event*)>::target(std::type_info const&) const
PUBLIC 48a9c 0 std::__ndk1::__function::__func<UnlockPage::requestCreatorPoints()::$_0, std::__ndk1::allocator<UnlockPage::requestCreatorPoints()::$_0>, void (geode::Task<geode::utils::web::WebResponse, geode::utils::web::WebProgress>::Event*)>::target_type() const
PUBLIC 48aa8 0 MyLevelDownloadDelegate::levelDownloadFinished(GJGameLevel*)
PUBLIC 48b7c 0 MyLevelDownloadDelegate::levelDownloadFailed(int)
PUBLIC 48c98 0 MyItemInfoPopup::applyCustomizations()
PUBLIC m 48eb0 0 geodeImplicitEntry
PUBLIC 48eec 0 std::__ndk1::unordered_map<void*, bool, std::__ndk1::hash<void*>, std::__ndk1::equal_to<void*>, std::__ndk1::allocator<std::__ndk1::pair<void* const, bool> > >::~unordered_map[abi:ne180000]()
PUBLIC 48f38 0 wrapFunction(unsigned long, tulip::hook::WrapperMetadata const&)
PUBLIC 4906c 0 geode::impl::ResultData<void*, std::__ndk1::basic_string<char, std::__ndk1::char_traits<char>, std::__ndk1::allocator<char> > >::unwrapErr() &
PUBLIC 490e4 0 geode::impl::ResultData<void*, std::__ndk1::basic_string<char, std::__ndk1::char_traits<char>, std::__ndk1::allocator<char> > >::~ResultData()
PUBLIC 49158 0 tulip::hook::WrapperMetadata::~WrapperMetadata()
PUBLIC 491bc 0 cocos2d::CCObject::CCObject()
PUBLIC 493e0 0 cocos2d::CCObject::~CCObject()
PUBLIC 49404 0 cocos2d::CCNode::~CCNode()
PUBLIC 49428 0 {virtual override thunk({offset(-320)}, cocos2d::CCLayer::~CCLayer())}
PUBLIC 49430 0 cocos2d::CCLayer::~CCLayer()
PUBLIC 49454 0 {virtual override thunk({offset(-320)}, cocos2d::CCLayer::~CCLayer())}
PUBLIC 4947c 0 cocos2d::CCLayerRGBA::~CCLayerRGBA()
PUBLIC 4977c 0 {virtual override thunk({offset(-320)}, cocos2d::CCLayerRGBA::~CCLayerRGBA())}
PUBLIC 49784 0 cocos2d::CCLayerRGBA::~CCLayerRGBA()
PUBLIC 497a8 0 {virtual override thunk({offset(-320)}, cocos2d::CCLayerRGBA::~CCLayerRGBA())}
PUBLIC 497d0 0 cocos2d::CCLayerColor::CCLayerColor()
PUBLIC 49a34 0 {virtual override thunk({offset(-320)}, cocos2d::CCLayerColor::~CCLayerColor())}
PUBLIC 49a3c 0 cocos2d::CCLayerColor::~CCLayerColor()
PUBLIC 49a60 0 {virtual override thunk({offset(-320)}, cocos2d::CCLayerColor::~CCLayerColor())}
PUBLIC 49a88 0 {virtual override thunk({offset(-320)}, FLAlertLayer::~FLAlertLayer())}
PUBLIC 49a90 0 FLAlertLayer::~FLAlertLayer()
PUBLIC 49ab4 0 {virtual override thunk({offset(-320)}, FLAlertLayer::~FLAlertLayer())}
PUBLIC 49adc 0 FLAlertLayer::create(FLAlertLayerProtocol*, char const*, gd::string, char const*, char const*, float)
PUBLIC 49c94 0 tulip::hook::AbstractFunction::from<FLAlertLayer*, FLAlertLayerProtocol*, char const*, gd::string, char const*, char const*, float>(FLAlertLayer* (*)(FLAlertLayerProtocol*, char const*, gd::string, char const*, char const*, float))
PUBLIC 49e00 0 cocos2d::CCLayerColor::~CCLayerColor()
PUBLIC 4a0e4 0 FLAlertLayer::~FLAlertLayer()
PUBLIC 4a3c8 0 cocos2d::CCNode::~CCNode()
PUBLIC 4a668 0 cocos2d::CCLayer::~CCLayer()
PUBLIC 4a958 0 cocos2d::CCObject::~CCObject()
PUBLIC 4ae4c 0 _ZN5geode15UnwrapExceptionC2IRPvQsr4implE18IsStringStreamableIT_EEENS_4impl5OkTagEOS4_
PUBLIC 4afa0 0 std::__ndk1::__variant_detail::__visitation::__base::__dispatcher<(unsigned long)0>::__dispatch[abi:ne180000]<std::__ndk1::__variant_detail::__dtor<std::__ndk1::__variant_detail::__traits<void*, std::__ndk1::basic_string<char, std::__ndk1::char_traits<char>, std::__ndk1::allocator<char> > >, (std::__ndk1::__variant_detail::_Trait)1>::__destroy[abi:ne180000]()::{lambda(auto:1&)#1}, std::__ndk1::__variant_detail::__base<(std::__ndk1::__variant_detail::__traits<void*, std::__ndk1::basic_string<char, std::__ndk1::char_traits<char>, std::__ndk1::allocator<char> > >)1, std::__ndk1::__variant_detail::__traits, std::__ndk1::allocator<char> >&>(std::__ndk1::__variant_detail::__dtor<std::__ndk1::__variant_detail::__traits<void*, std::__ndk1::basic_string<char, std::__ndk1::char_traits<char>, std::__ndk1::allocator<char> > >, (std::__ndk1::__variant_detail::_Trait)1>, std::__ndk1::__variant_detail::__base<(std::__ndk1::__variant_detail::__traits<void*, std::__ndk1::basic_string<char, std::__ndk1::char_traits<char>, std::__ndk1::allocator<char> > >)1, std::__ndk1::__variant_detail::__traits, std::__ndk1::allocator<char> >&)
PUBLIC 4afa4 0 std::__ndk1::__variant_detail::__visitation::__base::__dispatcher<(unsigned long)1>::__dispatch[abi:ne180000]<std::__ndk1::__variant_detail::__dtor<std::__ndk1::__variant_detail::__traits<void*, std::__ndk1::basic_string<char, std::__ndk1::char_traits<char>, std::__ndk1::allocator<char> > >, (std::__ndk1::__variant_detail::_Trait)1>::__destroy[abi:ne180000]()::{lambda(auto:1&)#1}, std::__ndk1::__variant_detail::__base<(std::__ndk1::__variant_detail::__traits<void*, std::__ndk1::basic_string<char, std::__ndk1::char_traits<char>, std::__ndk1::allocator<char> > >)1, std::__ndk1::__variant_detail::__traits, std::__ndk1::allocator<char> >&>(std::__ndk1::__variant_detail::__dtor<std::__ndk1::__variant_detail::__traits<void*, std::__ndk1::basic_string<char, std::__ndk1::char_traits<char>, std::__ndk1::allocator<char> > >, (std::__ndk1::__variant_detail::_Trait)1>, std::__ndk1::__variant_detail::__base<(std::__ndk1::__variant_detail::__traits<void*, std::__ndk1::basic_string<char, std::__ndk1::char_traits<char>, std::__ndk1::allocator<char> > >)1, std::__ndk1::__variant_detail::__traits, std::__ndk1::allocator<char> >&)
PUBLIC 4afb8 0 std::__ndk1::__hash_table<std::__ndk1::__hash_value_type<void*, bool>, std::__ndk1::__unordered_map_hasher<void*, std::__ndk1::__hash_value_type<void*, bool>, std::__ndk1::hash<void*>, std::__ndk1::equal_to<void*>, true>, std::__ndk1::__unordered_map_equal<void*, std::__ndk1::__hash_value_type<void*, bool>, std::__ndk1::equal_to<void*>, std::__ndk1::hash<void*>, true>, std::__ndk1::allocator<std::__ndk1::__hash_value_type<void*, bool> > >::__emplace_unique_key_args<void*, std::__ndk1::piecewise_construct_t const&, std::__ndk1::tuple<void* const&>, std::__ndk1::tuple<> >(void* const&, std::__ndk1::piecewise_construct_t const&, std::__ndk1::tuple<void* const&>, std::__ndk1::tuple<>)
PUBLIC 4b4c4 0 __udivti3
PUBLIC 4b4d0 0 __udivmodti4
PUBLIC m 4b71c 0 __eqtf2
PUBLIC 4b7bc 0 __unordtf2
PUBLIC 4b7f4 0 fmt::v11::detail::write_loc(fmt::v11::basic_appender<char>, fmt::v11::loc_value, fmt::v11::format_specs const&, fmt::v11::detail::locale_ref)
PUBLIC 4b980 0 fmt::v11::format_facet<std::__ndk1::locale>::format_facet(std::__ndk1::locale&)
PUBLIC 4bb0c 0 fmt::v11::format_facet<std::__ndk1::locale>::~format_facet()
PUBLIC 4bb88 0 fmt::v11::report_error(char const*)
PUBLIC 4bbd8 0 fmt::v11::format_error::runtime_error(char const*)
PUBLIC 4bc04 0 fmt::v11::format_facet<std::__ndk1::locale>::do_put(fmt::v11::basic_appender<char>, fmt::v11::loc_value, fmt::v11::format_specs const&) const
PUBLIC 4c3c4 0 fmt::v11::detail::loc_writer<char>::~loc_writer()
PUBLIC 4c428 0 fmt::v11::detail::vformat_to<char>(fmt::v11::detail::buffer<char>&, fmt::v11::basic_string_view<char>, fmt::v11::detail::vformat_args<char>::type, fmt::v11::detail::locale_ref)
PUBLIC 4c998 0 fmt::v11::detail::is_printable(unsigned int)
PUBLIC 4cbc0 0 fmt::v11::detail::dragonbox::to_decimal<float>(float)
PUBLIC 4ce9c 0 fmt::v11::detail::dragonbox::to_decimal<double>(double)
PUBLIC 4d3d8 0 fmt::v11::basic_memory_buffer<char, (unsigned long)500, std::__ndk1::allocator<char> >::grow(fmt::v11::detail::buffer<char>&, unsigned long)
PUBLIC 4d450 0 fmt::v11::format_facet<std::__ndk1::locale>::~format_facet()
PUBLIC 4d4dc 0 fmt::v11::format_error::~format_error()
PUBLIC 4d500 0 fmt::v11::detail::copy_noinline<char, char const*, fmt::v11::basic_appender<char> >(char const*, char const*, fmt::v11::basic_appender<char>)
PUBLIC 4d650 0 fmt::v11::detail::default_arg_formatter<char>::operator()<bool>(bool)
PUBLIC 4d6b8 0 fmt::v11::detail::default_arg_formatter<char>::operator()<char>(char)
PUBLIC 4d748 0 fmt::v11::detail::default_arg_formatter<char>::operator()<float>(float)
PUBLIC 4d834 0 fmt::v11::detail::default_arg_formatter<char>::operator()<double>(double)
PUBLIC 4d920 0 fmt::v11::detail::default_arg_formatter<char>::operator()<char const*>(char const*)
PUBLIC 4d968 0 fmt::v11::detail::default_arg_formatter<char>::operator()<void const*>(void const*)
PUBLIC 4da00 0 _ZN3fmt3v116detail5writeIcNS0_14basic_appenderIcEEiTnNSt6__ndk19enable_ifIXaaaasr11is_integralIT1_EE5valuentsr3std7is_sameIS7_bEE5valuentsr3std7is_sameIS7_T_EE5valueEiE4typeELi0EEET0_SB_S7_
PUBLIC 4dc5c 0 _ZN3fmt3v116detail5writeIcNS0_14basic_appenderIcEEjTnNSt6__ndk19enable_ifIXaaaasr11is_integralIT1_EE5valuentsr3std7is_sameIS7_bEE5valuentsr3std7is_sameIS7_T_EE5valueEiE4typeELi0EEET0_SB_S7_
PUBLIC 4de38 0 _ZN3fmt3v116detail5writeIcNS0_14basic_appenderIcEExTnNSt6__ndk19enable_ifIXaaaasr11is_integralIT1_EE5valuentsr3std7is_sameIS7_bEE5valuentsr3std7is_sameIS7_T_EE5valueEiE4typeELi0EEET0_SB_S7_
PUBLIC 4e0b8 0 _ZN3fmt3v116detail5writeIcNS0_14basic_appenderIcEEyTnNSt6__ndk19enable_ifIXaaaasr11is_integralIT1_EE5valuentsr3std7is_sameIS7_bEE5valuentsr3std7is_sameIS7_T_EE5valueEiE4typeELi0EEET0_SB_S7_
PUBLIC 4e2bc 0 _ZN3fmt3v116detail5writeIcNS0_14basic_appenderIcEEnTnNSt6__ndk19enable_ifIXaaaasr11is_integralIT1_EE5valuentsr3std7is_sameIS7_bEE5valuentsr3std7is_sameIS7_T_EE5valueEiE4typeELi0EEET0_SB_S7_
PUBLIC 4e618 0 _ZN3fmt3v116detail5writeIcNS0_14basic_appenderIcEEoTnNSt6__ndk19enable_ifIXaaaasr11is_integralIT1_EE5valuentsr3std7is_sameIS7_bEE5valuentsr3std7is_sameIS7_T_EE5valueEiE4typeELi0EEET0_SB_S7_
PUBLIC 4e928 0 _ZN3fmt3v116detail5writeIcNS0_14basic_appenderIcEEbTnNSt6__ndk19enable_ifIXsr3std7is_sameIT1_bEE5valueEiE4typeELi0EEET0_SA_S7_RKNS0_12format_specsENS1_10locale_refE
PUBLIC 4ebe0 0 fmt::v11::detail::write_padded<char, (fmt::v11::align::type)1, fmt::v11::basic_appender<char>, fmt::v11::detail::write_nonfinite<char, fmt::v11::basic_appender<char> >(fmt::v11::basic_appender<char>, bool, fmt::v11::format_specs, fmt::v11::sign::type)::{lambda(fmt::v11::basic_appender<char>&)#1}>(fmt::v11::basic_appender<char>, fmt::v11::format_specs const&, unsigned long, unsigned long, fmt::v11::detail::write_nonfinite<char, fmt::v11::basic_appender<char> >(fmt::v11::basic_appender<char>, bool, fmt::v11::format_specs, fmt::v11::sign::type)::{lambda(fmt::v11::basic_appender<char>&)#1})
PUBLIC 4ee38 0 fmt::v11::detail::do_write_float<char, fmt::v11::basic_appender<char>, fmt::v11::detail::dragonbox::decimal_fp<float>, fmt::v11::detail::digit_grouping<char> >(fmt::v11::basic_appender<char>, fmt::v11::detail::dragonbox::decimal_fp<float> const&, fmt::v11::format_specs const&, fmt::v11::detail::float_specs, fmt::v11::detail::locale_ref)
PUBLIC 4fad8 0 fmt::v11::detail::do_write_float<char, fmt::v11::basic_appender<char>, fmt::v11::detail::dragonbox::decimal_fp<float>, fmt::v11::detail::digit_grouping<char> >(fmt::v11::basic_appender<char>, fmt::v11::detail::dragonbox::decimal_fp<float> const&, fmt::v11::format_specs const&, fmt::v11::detail::float_specs, fmt::v11::detail::locale_ref)::{lambda(fmt::v11::basic_appender<char>(fmt::v11::basic_appender<char>))#1}::operator() const
PUBLIC 4fc30 0 fmt::v11::detail::digit_grouping<char>::digit_grouping(fmt::v11::detail::locale_ref, bool)
PUBLIC 4fe9c 0 fmt::v11::detail::digit_grouping<char>::~digit_grouping()
PUBLIC 4fee0 0 fmt::v11::detail::write_exponent<char, fmt::v11::basic_appender<char> >(int, fmt::v11::basic_appender<char>)
PUBLIC 500b0 0 _ZN3fmt3v116detail17write_significandIcjTnNSt6__ndk19enable_ifIXsr3std11is_integralIT0_EE5valueEiE4typeELi0EEEPT_S9_S5_iiS8_
PUBLIC 5022c 0 std::__ndk1::basic_string<char, std::__ndk1::char_traits<char>, std::__ndk1::allocator<char> >::__assign_no_alias<true>(char const*, unsigned long)
PUBLIC 502d8 0 std::__ndk1::basic_string<char, std::__ndk1::char_traits<char>, std::__ndk1::allocator<char> >::__assign_no_alias<false>(char const*, unsigned long)
PUBLIC 503e8 0 fmt::v11::detail::digit_grouping<char>::apply<fmt::v11::basic_appender<char>, char>(fmt::v11::basic_appender<char>, fmt::v11::basic_string_view<char>) const
PUBLIC 507a0 0 fmt::v11::basic_memory_buffer<int, (unsigned long)500, std::__ndk1::allocator<int> >::grow(fmt::v11::detail::buffer<int>&, unsigned long)
PUBLIC 50840 0 fmt::v11::detail::do_write_float<char, fmt::v11::basic_appender<char>, fmt::v11::detail::dragonbox::decimal_fp<double>, fmt::v11::detail::digit_grouping<char> >(fmt::v11::basic_appender<char>, fmt::v11::detail::dragonbox::decimal_fp<double> const&, fmt::v11::format_specs const&, fmt::v11::detail::float_specs, fmt::v11::detail::locale_ref)
PUBLIC 5150c 0 fmt::v11::detail::do_write_float<char, fmt::v11::basic_appender<char>, fmt::v11::detail::dragonbox::decimal_fp<double>, fmt::v11::detail::digit_grouping<char> >(fmt::v11::basic_appender<char>, fmt::v11::detail::dragonbox::decimal_fp<double> const&, fmt::v11::format_specs const&, fmt::v11::detail::float_specs, fmt::v11::detail::locale_ref)::{lambda(fmt::v11::basic_appender<char>(fmt::v11::basic_appender<char>))#1}::operator() const
PUBLIC 51668 0 _ZN3fmt3v116detail17write_significandIcmTnNSt6__ndk19enable_ifIXsr3std11is_integralIT0_EE5valueEiE4typeELi0EEEPT_S9_S5_iiS8_
PUBLIC 517f8 0 fmt::v11::detail::write_float<char, fmt::v11::basic_appender<char>, long double>(fmt::v11::basic_appender<char>, long double, fmt::v11::format_specs, fmt::v11::detail::locale_ref)
PUBLIC 522f0 0 fmt::v11::detail::write_padded<char, (fmt::v11::align::type)2, fmt::v11::basic_appender<char>, fmt::v11::detail::write_bytes<char, (fmt::v11::align::type)2, fmt::v11::basic_appender<char> >(fmt::v11::basic_appender<char>, fmt::v11::basic_string_view<char>, fmt::v11::format_specs const&)::{lambda(fmt::v11::basic_appender<char>&)#1}>(fmt::v11::basic_appender<char>, fmt::v11::format_specs const&, unsigned long, unsigned long, fmt::v11::detail::write_bytes<char, (fmt::v11::align::type)2, fmt::v11::basic_appender<char> >(fmt::v11::basic_appender<char>, fmt::v11::basic_string_view<char>, fmt::v11::format_specs const&)::{lambda(fmt::v11::basic_appender<char>&)#1})
PUBLIC 524e4 0 fmt::v11::detail::format_dragon(fmt::v11::detail::basic_fp<unsigned __int128>, unsigned int, int, fmt::v11::detail::buffer<char>&, int&)
PUBLIC 53914 0 fmt::v11::detail::bigint::operator<<=(int)
PUBLIC 53a38 0 fmt::v11::detail::bigint::assign_pow10(int)
PUBLIC 54194 0 fmt::v11::detail::bigint::divmod_assign(fmt::v11::detail::bigint const&)
PUBLIC 544b4 0 fmt::v11::basic_memory_buffer<unsigned int, (unsigned long)32, std::__ndk1::allocator<unsigned int> >::grow(fmt::v11::detail::buffer<unsigned int>&, unsigned long)
PUBLIC 54554 0 fmt::v11::detail::do_write_float<char, fmt::v11::basic_appender<char>, fmt::v11::detail::big_decimal_fp, fmt::v11::detail::digit_grouping<char> >(fmt::v11::basic_appender<char>, fmt::v11::detail::big_decimal_fp const&, fmt::v11::format_specs const&, fmt::v11::detail::float_specs, fmt::v11::detail::locale_ref)
PUBLIC 55438 0 fmt::v11::detail::do_write_float<char, fmt::v11::basic_appender<char>, fmt::v11::detail::big_decimal_fp, fmt::v11::detail::digit_grouping<char> >(fmt::v11::basic_appender<char>, fmt::v11::detail::big_decimal_fp const&, fmt::v11::format_specs const&, fmt::v11::detail::float_specs, fmt::v11::detail::locale_ref)::{lambda(fmt::v11::basic_appender<char>(fmt::v11::basic_appender<char>))#1}::operator() const
PUBLIC 55598 0 fmt::v11::detail::write_padded<char, (fmt::v11::align::type)2, fmt::v11::basic_appender<char>, fmt::v11::detail::write_ptr<char, fmt::v11::basic_appender<char>, unsigned long>(fmt::v11::basic_appender<char>, unsigned long, fmt::v11::format_specs const*)::{lambda(fmt::v11::basic_appender<char>&)#1}>(fmt::v11::basic_appender<char>, fmt::v11::format_specs const&, unsigned long, unsigned long, fmt::v11::detail::write_ptr<char, fmt::v11::basic_appender<char>, unsigned long>(fmt::v11::basic_appender<char>, unsigned long, fmt::v11::format_specs const*)::{lambda(fmt::v11::basic_appender<char>&)#1})
PUBLIC 557b0 0 fmt::v11::detail::parse_replacement_field<char, fmt::v11::detail::vformat_to<char>(fmt::v11::detail::buffer<char>&, fmt::v11::basic_string_view<char>, fmt::v11::detail::vformat_args<char>::type, fmt::v11::detail::locale_ref)::format_handler&>(char const*, char const*, fmt::v11::detail::vformat_to<char>(fmt::v11::detail::buffer<char>&, fmt::v11::basic_string_view<char>, fmt::v11::detail::vformat_args<char>::type, fmt::v11::detail::locale_ref)::format_handler&)
PUBLIC 56c70 0 fmt::v11::detail::write_int_noinline<char, fmt::v11::basic_appender<char>, unsigned long>(fmt::v11::basic_appender<char>, fmt::v11::detail::write_int_arg<unsigned long>, fmt::v11::format_specs const&, fmt::v11::detail::locale_ref)
PUBLIC 57aec 0 fmt::v11::detail::write_int_noinline<char, fmt::v11::basic_appender<char>, unsigned __int128>(fmt::v11::basic_appender<char>, fmt::v11::detail::write_int_arg<unsigned __int128>, fmt::v11::format_specs const&, fmt::v11::detail::locale_ref)
PUBLIC 58b3c 0 _ZN3fmt3v116detail15format_hexfloatIdTnNSt6__ndk19enable_ifIXntsr16is_double_doubleIT_EE5valueEiE4typeELi0EEEvS5_NS0_12format_specsERNS1_6bufferIcEE
PUBLIC 5905c 0 fmt::v11::detail::format_float<double>(double, int, fmt::v11::detail::float_specs, fmt::v11::detail::buffer<char>&)
PUBLIC 599fc 0 fmt::v11::detail::write_int<fmt::v11::basic_appender<char>, unsigned long, char>(fmt::v11::basic_appender<char>, unsigned long, unsigned int, fmt::v11::format_specs const&, fmt::v11::detail::digit_grouping<char> const&)
PUBLIC 59f80 0 fmt::v11::detail::write_int<fmt::v11::basic_appender<char>, unsigned __int128, char>(fmt::v11::basic_appender<char>, unsigned __int128, unsigned int, fmt::v11::format_specs const&, fmt::v11::detail::digit_grouping<char> const&)
PUBLIC 5a610 0 <.plt ELF section in glowrock.better_unlock_progression.android64.so>
STACK CFI INIT 1f060 10 .cfa: sp 0 +
STACK CFI INIT 1f070 8 .cfa: sp 0 +
STACK CFI INIT 1f078 8 .cfa: sp 0 +
STACK CFI INIT 1f080 14 .cfa: sp 0 +
STACK CFI INIT 1f094 1c .cfa: sp 0 +
STACK CFI INIT 1f0b0 10 .cfa: sp 0 +
STACK CFI INIT 1f0c0 134 .cfa: sp 0 +
STACK CFI INIT 1f1f4 84 .cfa: sp 0 +
STACK CFI INIT 1f278 f4 .cfa: sp 0 +
STACK CFI INIT 1f36c a8 .cfa: sp 0 +
STACK CFI INIT 1f414 7c .cfa: sp 0 +
STACK CFI INIT 1f490 14 .cfa: sp 0 +
STACK CFI INIT 1f4a4 40 .cfa: sp 0 +
STACK CFI INIT 1f4e4 28 .cfa: sp 0 +
STACK CFI INIT 1f50c 190 .cfa: sp 0 +
STACK CFI INIT 1f69c 2c8 .cfa: sp 0 +
STACK CFI INIT 1f964 8 .cfa: sp 0 +
STACK CFI INIT 1f96c 8 .cfa: sp 0 +
STACK CFI INIT 1f974 44 .cfa: sp 0 +
STACK CFI INIT 1f9b8 e8 .cfa: sp 0 +
STACK CFI INIT 1faa0 e8 .cfa: sp 0 +
STACK CFI INIT 1fb88 14 .cfa: sp 0 +
STACK CFI INIT 1fb9c 10 .cfa: sp 0 +
STACK CFI INIT 1fbac 10 .cfa: sp 0 +
STACK CFI INIT 1fbbc f0 .cfa: sp 0 +
STACK CFI INIT 1fcac 44 .cfa: sp 0 +
STACK CFI INIT 1fcf0 c .cfa: sp 0 +
STACK CFI INIT 1fcfc c .cfa: sp 0 +
STACK CFI INIT 1fd08 2c .cfa: sp 0 +
STACK CFI INIT 1fd34 280 .cfa: sp 0 +
STACK CFI INIT 1ffb4 c .cfa: sp 0 +
STACK CFI INIT 1ffc0 120 .cfa: sp 0 +
STACK CFI INIT 200e0 488 .cfa: sp 0 +
STACK CFI INIT 20568 c48 .cfa: sp 0 +
STACK CFI INIT 211b0 134 .cfa: sp 0 +
STACK CFI INIT 212e4 210 .cfa: sp 0 +
STACK CFI INIT 214f4 38c .cfa: sp 0 +
STACK CFI INIT 21880 1c8 .cfa: sp 0 +
STACK CFI INIT 21a48 9bc .cfa: sp 0 +
STACK CFI INIT 22404 2d4 .cfa: sp 0 +
STACK CFI INIT 226d8 134 .cfa: sp 0 +
STACK CFI INIT 2280c 120 .cfa: sp 0 +
STACK CFI INIT 2292c 1c8 .cfa: sp 0 +
STACK CFI INIT 22af4 168 .cfa: sp 0 +
STACK CFI INIT 22c5c fc .cfa: sp 0 +
STACK CFI INIT 22d58 30 .cfa: sp 0 +
STACK CFI INIT 22ec0 30 .cfa: sp 0 +
STACK CFI INIT 22ef0 98 .cfa: sp 0 +
STACK CFI INIT 22f88 59c .cfa: sp 0 +
STACK CFI INIT 23524 8c .cfa: sp 0 +
STACK CFI INIT 235b0 30 .cfa: sp 0 +
STACK CFI INIT 235e0 4c .cfa: sp 0 +
STACK CFI INIT 2362c 1c .cfa: sp 0 +
STACK CFI INIT 24224 1c .cfa: sp 0 +
STACK CFI INIT 24240 4 .cfa: sp 0 +
STACK CFI INIT 24244 50 .cfa: sp 0 +
STACK CFI 24248 .cfa: sp 32 +
STACK CFI 24250 .cfa: x29 32 + x19: .cfa -16 + ^ .ra: .cfa -24 + ^ x29: .cfa -32 + ^
STACK CFI 24268 .cfa: sp 32 +
STACK CFI 24270 .cfa: sp 0 +
STACK CFI 24274 .cfa: x29 32 +
STACK CFI 24288 .cfa: sp 32 +
STACK CFI 24290 .cfa: sp 0 +
STACK CFI INIT 24308 7c .cfa: sp 0 +
STACK CFI 2430c .cfa: sp 48 +
STACK CFI 24318 .cfa: x29 48 + x19: .cfa -8 + ^ x20: .cfa -16 + ^ x21: .cfa -32 + ^ .ra: .cfa -40 + ^ x29: .cfa -48 + ^
STACK CFI 24364 .cfa: sp 48 +
STACK CFI 24370 .cfa: sp 0 +
STACK CFI 24374 .cfa: sp 48 +
STACK CFI 24380 .cfa: sp 0 +
STACK CFI INIT 24384 4 .cfa: sp 0 +
STACK CFI INIT 24388 10 .cfa: sp 0 +
STACK CFI 2438c .cfa: sp 16 +
STACK CFI 24390 .cfa: x29 16 + .ra: .cfa -8 + ^ x29: .cfa -16 + ^
STACK CFI INIT 244ec 34 .cfa: sp 0 +
STACK CFI 244f0 .cfa: sp 16 +
STACK CFI 244f4 .cfa: x29 16 + .ra: .cfa -8 + ^ x29: .cfa -16 + ^
STACK CFI INIT 2464c 80 .cfa: sp 0 +
STACK CFI 24650 .cfa: sp 48 +
STACK CFI 2465c .cfa: x29 48 + x19: .cfa -8 + ^ x20: .cfa -16 + ^ x21: .cfa -32 + ^ .ra: .cfa -40 + ^ x29: .cfa -48 + ^
STACK CFI 246bc .cfa: sp 48 +
STACK CFI 246c8 .cfa: sp 0 +
STACK CFI INIT 246cc 24 .cfa: sp 0 +
STACK CFI 246d0 .cfa: sp 32 +
STACK CFI 246d8 .cfa: x29 32 + x19: .cfa -16 + ^ .ra: .cfa -24 + ^ x29: .cfa -32 + ^
STACK CFI 246e4 .cfa: sp 32 +
STACK CFI 246ec .cfa: sp 0 +
STACK CFI INIT 24a70 14 .cfa: sp 0 +
STACK CFI 24a74 .cfa: sp 16 +
STACK CFI 24a78 .cfa: x29 16 + .ra: .cfa -8 + ^ x29: .cfa -16 + ^
STACK CFI INIT 24ad4 30 .cfa: sp 0 +
STACK CFI 24ad8 .cfa: sp 32 +
STACK CFI 24ae0 .cfa: x29 32 + x19: .cfa -16 + ^ .ra: .cfa -24 + ^ x29: .cfa -32 + ^
STACK CFI 24af8 .cfa: sp 32 +
STACK CFI 24b00 .cfa: sp 0 +
STACK CFI INIT 24b04 34 .cfa: sp 0 +
STACK CFI 24b08 .cfa: sp 32 +
STACK CFI 24b10 .cfa: x29 32 + x19: .cfa -16 + ^ .ra: .cfa -24 + ^ x29: .cfa -32 + ^
STACK CFI INIT 24cb0 148 .cfa: sp 0 +
STACK CFI 24cb4 .cfa: sp 48 +
STACK CFI 24cc0 .cfa: x29 48 + x19: .cfa -8 + ^ x20: .cfa -16 + ^ x21: .cfa -32 + ^ .ra: .cfa -40 + ^ x29: .cfa -48 + ^
STACK CFI 24de8 .cfa: sp 48 +
STACK CFI 24df4 .cfa: sp 0 +
STACK CFI INIT 24df8 80 .cfa: sp 0 +
STACK CFI 24dfc .cfa: sp 48 +
STACK CFI 24e08 .cfa: x29 48 + x19: .cfa -8 + ^ x20: .cfa -16 + ^ x21: .cfa -24 + ^ x22: .cfa -32 + ^ .ra: .cfa -40 + ^ x29: .cfa -48 + ^
STACK CFI 24e20 .cfa: sp 48 +
STACK CFI 24e2c .cfa: sp 0 +
STACK CFI 24e30 .cfa: x29 48 +
STACK CFI 24e60 .cfa: sp 48 +
STACK CFI 24e6c .cfa: sp 0 +
STACK CFI 24e70 .cfa: x29 48 +
STACK CFI INIT 24e78 68 .cfa: sp 0 +
STACK CFI 24e7c .cfa: sp 32 +
STACK CFI 24e84 .cfa: x29 32 + x19: .cfa -8 + ^ x20: .cfa -16 + ^ .ra: .cfa -24 + ^ x29: .cfa -32 + ^
STACK CFI 24e9c .cfa: sp 32 +
STACK CFI 24ea4 .cfa: sp 0 +
STACK CFI 24ea8 .cfa: x29 32 +
STACK CFI 24ed4 .cfa: sp 32 +
STACK CFI 24edc .cfa: sp 0 +
STACK CFI INIT 24ee0 14 .cfa: sp 0 +
STACK CFI 24ee4 .cfa: sp 16 +
STACK CFI 24ee8 .cfa: x29 16 + .ra: .cfa -8 + ^ x29: .cfa -16 + ^
STACK CFI INIT 24ef4 4 .cfa: sp 0 +
STACK CFI INIT 24ef8 14 .cfa: sp 0 +
STACK CFI INIT 24f0c 8c .cfa: sp 0 +
STACK CFI 24f14 .cfa: sp 32 +
STACK CFI 24f1c .cfa: x29 32 + x19: .cfa -8 + ^ x20: .cfa -16 + ^ .ra: .cfa -24 + ^ x29: .cfa -32 + ^
STACK CFI 24f64 .cfa: sp 32 +
STACK CFI 24f6c .cfa: sp 0 +
STACK CFI 24f74 .cfa: x29 32 +
STACK CFI INIT 253b4 4 .cfa: sp 0 +
STACK CFI INIT 2559c b4 .cfa: sp 0 +
STACK CFI 255a0 .cfa: sp 32 +
STACK CFI 255a8 .cfa: x29 32 + x19: .cfa -16 + ^ .ra: .cfa -24 + ^ x29: .cfa -32 + ^
STACK CFI 25644 .cfa: sp 32 +
STACK CFI 2564c .cfa: sp 0 +
STACK CFI INIT 25650 50 .cfa: sp 0 +
STACK CFI 25654 .cfa: sp 32 +
STACK CFI 2565c .cfa: x29 32 + x19: .cfa -16 + ^ .ra: .cfa -24 + ^ x29: .cfa -32 + ^
STACK CFI 25674 .cfa: sp 32 +
STACK CFI 2567c .cfa: sp 0 +
STACK CFI 25680 .cfa: x29 32 +
STACK CFI 25694 .cfa: sp 32 +
STACK CFI 2569c .cfa: sp 0 +
STACK CFI INIT 256a0 64 .cfa: sp 0 +
STACK CFI 256a4 .cfa: sp 32 +
STACK CFI 256ac .cfa: x29 32 + x19: .cfa -16 + ^ .ra: .cfa -24 + ^ x29: .cfa -32 + ^
STACK CFI 256d8 .cfa: sp 32 +
STACK CFI 256e0 .cfa: sp 0 +
STACK CFI 256e4 .cfa: x29 32 +
STACK CFI 256f8 .cfa: sp 32 +
STACK CFI 25700 .cfa: sp 0 +
STACK CFI INIT 25828 1b0 .cfa: sp 0 +
STACK CFI INIT 25c9c 8 .cfa: sp 0 +
STACK CFI INIT 25ca4 24 .cfa: sp 0 +
STACK CFI 25ca8 .cfa: sp 32 +
STACK CFI 25cb0 .cfa: x29 32 + x19: .cfa -16 + ^ .ra: .cfa -24 + ^ x29: .cfa -32 + ^
STACK CFI 25cbc .cfa: sp 32 +
STACK CFI 25cc4 .cfa: sp 0 +
STACK CFI INIT 25cc8 28 .cfa: sp 0 +
STACK CFI 25ccc .cfa: sp 32 +
STACK CFI 25cd4 .cfa: x29 32 + x19: .cfa -16 + ^ .ra: .cfa -24 + ^ x29: .cfa -32 + ^
STACK CFI 25ce4 .cfa: sp 32 +
STACK CFI 25cec .cfa: sp 0 +
STACK CFI INIT 29660 7c .cfa: sp 0 +
STACK CFI 29664 .cfa: sp 48 +
STACK CFI 29670 .cfa: x29 48 + x19: .cfa -8 + ^ x20: .cfa -16 + ^ x21: .cfa -32 + ^ .ra: .cfa -40 + ^ x29: .cfa -48 + ^
STACK CFI 296bc .cfa: sp 48 +
STACK CFI 296c8 .cfa: sp 0 +
STACK CFI 296cc .cfa: sp 48 +
STACK CFI 296d8 .cfa: sp 0 +
STACK CFI INIT 296dc 3c .cfa: sp 0 +
STACK CFI 296e0 .cfa: sp 32 +
STACK CFI 296e8 .cfa: x29 32 + x19: .cfa -16 + ^ .ra: .cfa -24 + ^ x29: .cfa -32 + ^
STACK CFI 2970c .cfa: sp 32 +
STACK CFI 29714 .cfa: sp 0 +
STACK CFI INIT 29718 1c .cfa: sp 0 +
STACK CFI INIT 29734 1c .cfa: sp 0 +
STACK CFI INIT 29750 38 .cfa: sp 0 +
STACK CFI 29754 .cfa: sp 32 +
STACK CFI 2975c .cfa: x29 32 + x19: .cfa -16 + ^ .ra: .cfa -24 + ^ x29: .cfa -32 + ^
STACK CFI 2977c .cfa: sp 32 +
STACK CFI 29784 .cfa: sp 0 +
STACK CFI INIT 29788 f8 .cfa: sp 0 +
STACK CFI 2978c .cfa: sp 48 +
STACK CFI 29798 .cfa: x29 48 + x19: .cfa -8 + ^ x20: .cfa -16 + ^ x21: .cfa -24 + ^ x22: .cfa -32 + ^ .ra: .cfa -40 + ^ x29: .cfa -48 + ^
STACK CFI 29870 .cfa: sp 48 +
STACK CFI 2987c .cfa: sp 0 +
STACK CFI INIT 29a04 8 .cfa: sp 0 +
STACK CFI INIT 29a0c 2c .cfa: sp 0 +
STACK CFI 29a10 .cfa: sp 32 +
STACK CFI 29a18 .cfa: x29 32 + x19: .cfa -16 + ^ .ra: .cfa -24 + ^ x29: .cfa -32 + ^
STACK CFI 29a2c .cfa: sp 32 +
STACK CFI 29a34 .cfa: sp 0 +
STACK CFI INIT 29a38 28 .cfa: sp 0 +
STACK CFI INIT 29a60 4 .cfa: sp 0 +
STACK CFI INIT 29a64 8 .cfa: sp 0 +
STACK CFI INIT 29bb4 2c .cfa: sp 0 +
STACK CFI INIT 29be0 4 .cfa: sp 0 +
STACK CFI INIT 29be4 4 .cfa: sp 0 +
STACK CFI INIT 29be8 4 .cfa: sp 0 +
STACK CFI INIT 29bec 4 .cfa: sp 0 +
STACK CFI INIT 29bf0 4 .cfa: sp 0 +
STACK CFI INIT 29bf4 8 .cfa: sp 0 +
STACK CFI INIT 29c68 4 .cfa: sp 0 +
STACK CFI INIT 29cd8 4 .cfa: sp 0 +
STACK CFI INIT 29cdc 8c .cfa: sp 0 +
STACK CFI 29ce0 .cfa: sp 48 +
STACK CFI 29cec .cfa: x29 48 + x19: .cfa -8 + ^ x20: .cfa -16 + ^ x21: .cfa -24 + ^ x22: .cfa -32 + ^ .ra: .cfa -40 + ^ x29: .cfa -48 + ^
STACK CFI 29cf4 .cfa: sp 48 +
STACK CFI 29d00 .cfa: sp 0 +
STACK CFI 29d04 .cfa: x29 48 +
STACK CFI 29d58 .cfa: sp 48 +
STACK CFI 29d64 .cfa: sp 0 +
STACK CFI INIT 29d68 60 .cfa: sp 0 +
STACK CFI 29d78 .cfa: sp 32 +
STACK CFI 29d80 .cfa: x29 32 + x19: .cfa -8 + ^ x20: .cfa -16 + ^ .ra: .cfa -24 + ^ x29: .cfa -32 + ^
STACK CFI 29dbc .cfa: sp 32 +
STACK CFI 29dc4 .cfa: sp 0 +
STACK CFI INIT 29dc8 14 .cfa: sp 0 +
STACK CFI 29dcc .cfa: sp 16 +
STACK CFI 29dd0 .cfa: x29 16 + .ra: .cfa -8 + ^ x29: .cfa -16 + ^
STACK CFI INIT 29ddc 8c .cfa: sp 0 +
STACK CFI 29de0 .cfa: sp 48 +
STACK CFI 29dec .cfa: x29 48 + x19: .cfa -8 + ^ x20: .cfa -16 + ^ x21: .cfa -24 + ^ x22: .cfa -32 + ^ .ra: .cfa -40 + ^ x29: .cfa -48 + ^
STACK CFI 29df4 .cfa: sp 48 +
STACK CFI 29e00 .cfa: sp 0 +
STACK CFI 29e04 .cfa: x29 48 +
STACK CFI 29e58 .cfa: sp 48 +
STACK CFI 29e64 .cfa: sp 0 +
STACK CFI INIT 29e68 60 .cfa: sp 0 +
STACK CFI 29e78 .cfa: sp 32 +
STACK CFI 29e80 .cfa: x29 32 + x19: .cfa -8 + ^ x20: .cfa -16 + ^ .ra: .cfa -24 + ^ x29: .cfa -32 + ^
STACK CFI 29ebc .cfa: sp 32 +
STACK CFI 29ec4 .cfa: sp 0 +
STACK CFI INIT 29ec8 14 .cfa: sp 0 +
STACK CFI 29ecc .cfa: sp 16 +
STACK CFI 29ed0 .cfa: x29 16 + .ra: .cfa -8 + ^ x29: .cfa -16 + ^
STACK CFI INIT 29edc 14 .cfa: sp 0 +
STACK CFI 29ee0 .cfa: sp 16 +
STACK CFI 29ee4 .cfa: x29 16 + .ra: .cfa -8 + ^ x29: .cfa -16 + ^
STACK CFI INIT 29ef0 314 .cfa: sp 0 +
STACK CFI 29ef4 .cfa: sp 128 +
STACK CFI 29f0c .cfa: x29 64 + x19: .cfa -8 + ^ x20: .cfa -16 + ^ x21: .cfa -24 + ^ x22: .cfa -32 + ^ x23: .cfa -40 + ^ x24: .cfa -48 + ^ .ra: .cfa -56 + ^ x29: .cfa -64 + ^ v8: .cfa -72 + ^ v9: .cfa -80 + ^
STACK CFI 2a148 .cfa: sp 128 +
STACK CFI 2a160 .cfa: sp 0 +
STACK CFI 2a164 .cfa: x29 64 +
STACK CFI INIT 2a204 104 .cfa: sp 0 +
STACK CFI 2a208 .cfa: sp 64 +
STACK CFI 2a218 .cfa: x29 64 + x19: .cfa -8 + ^ x20: .cfa -16 + ^ x21: .cfa -24 + ^ x22: .cfa -32 + ^ x23: .cfa -48 + ^ .ra: .cfa -56 + ^ x29: .cfa -64 + ^
STACK CFI 2a274 .cfa: sp 64 +
STACK CFI 2a284 .cfa: sp 0 +
STACK CFI 2a288 .cfa: x29 64 +
STACK CFI 2a2a4 .cfa: sp 64 +
STACK CFI 2a2b4 .cfa: sp 0 +
STACK CFI 2a2b8 .cfa: x29 64 +
STACK CFI 2a2f4 .cfa: sp 64 +
STACK CFI 2a304 .cfa: sp 0 +
STACK CFI INIT 2a480 4 .cfa: sp 0 +
STACK CFI INIT 2a484 14 .cfa: sp 0 +
STACK CFI INIT 2a498 4 .cfa: sp 0 +
STACK CFI INIT 2a49c 14 .cfa: sp 0 +
STACK CFI INIT 2a4b0 4 .cfa: sp 0 +
STACK CFI INIT 2a4b4 14 .cfa: sp 0 +
STACK CFI INIT 2a4c8 60 .cfa: sp 0 +
STACK CFI 2a4cc .cfa: sp 32 +
STACK CFI 2a4d4 .cfa: x29 32 + x19: .cfa -8 + ^ x20: .cfa -16 + ^ .ra: .cfa -24 + ^ x29: .cfa -32 + ^
STACK CFI 2a4f4 .cfa: sp 32 +
STACK CFI 2a4fc .cfa: sp 0 +
STACK CFI 2a500 .cfa: x29 32 +
STACK CFI 2a51c .cfa: sp 32 +
STACK CFI 2a524 .cfa: sp 0 +
STACK CFI INIT 2a528 70 .cfa: sp 0 +
STACK CFI 2a52c .cfa: sp 32 +
STACK CFI 2a534 .cfa: x29 32 + x19: .cfa -8 + ^ x20: .cfa -16 + ^ .ra: .cfa -24 + ^ x29: .cfa -32 + ^
STACK CFI 2a55c .cfa: sp 32 +
STACK CFI 2a564 .cfa: sp 0 +
STACK CFI 2a568 .cfa: x29 32 +
STACK CFI 2a58c .cfa: sp 32 +
STACK CFI 2a594 .cfa: sp 0 +
STACK CFI INIT 2a598 10 .cfa: sp 0 +
STACK CFI INIT 2a5a8 30 .cfa: sp 0 +
STACK CFI 2a5ac .cfa: sp 32 +
STACK CFI 2a5b4 .cfa: x29 32 + x19: .cfa -16 + ^ .ra: .cfa -24 + ^ x29: .cfa -32 + ^
STACK CFI 2a5cc .cfa: sp 32 +
STACK CFI 2a5d4 .cfa: sp 0 +
STACK CFI INIT 2a5d8 4 .cfa: sp 0 +
STACK CFI INIT 2a5dc 4 .cfa: sp 0 +
STACK CFI INIT 372d4 134 .cfa: sp 0 +
STACK CFI 372d8 .cfa: sp 32 +
STACK CFI 372e0 .cfa: x29 32 + x19: .cfa -8 + ^ x20: .cfa -16 + ^ .ra: .cfa -24 + ^ x29: .cfa -32 + ^
STACK CFI 373bc .cfa: sp 32 +
STACK CFI 373c4 .cfa: sp 0 +
STACK CFI 373c8 .cfa: x29 32 +
STACK CFI 373fc .cfa: sp 32 +
STACK CFI 37404 .cfa: sp 0 +
STACK CFI INIT 37ef0 1a0 .cfa: sp 0 +
STACK CFI 37ef4 .cfa: sp 48 +
STACK CFI 37f00 .cfa: x29 48 + x19: .cfa -8 + ^ x20: .cfa -16 + ^ x21: .cfa -24 + ^ x22: .cfa -32 + ^ .ra: .cfa -40 + ^ x29: .cfa -48 + ^
STACK CFI 38014 .cfa: sp 48 +
STACK CFI 38020 .cfa: sp 0 +
STACK CFI 38024 .cfa: x29 48 +
STACK CFI INIT 3a8e8 7c .cfa: sp 0 +
STACK CFI 3a8ec .cfa: sp 32 +
STACK CFI 3a8f4 .cfa: x29 32 + x19: .cfa -16 + ^ .ra: .cfa -24 + ^ x29: .cfa -32 + ^
STACK CFI 3a920 .cfa: sp 32 +
STACK CFI 3a928 .cfa: sp 0 +
STACK CFI 3a92c .cfa: x29 32 +
STACK CFI 3a958 .cfa: sp 32 +
STACK CFI 3a960 .cfa: sp 0 +
STACK CFI INIT 3a964 8c .cfa: sp 0 +
STACK CFI 3a968 .cfa: sp 32 +
STACK CFI 3a970 .cfa: x29 32 + x19: .cfa -16 + ^ .ra: .cfa -24 + ^ x29: .cfa -32 + ^
STACK CFI 3a9a4 .cfa: sp 32 +
STACK CFI 3a9ac .cfa: sp 0 +
STACK CFI 3a9b0 .cfa: x29 32 +
STACK CFI 3a9e4 .cfa: sp 32 +
STACK CFI 3a9ec .cfa: sp 0 +
STACK CFI INIT 3a9f0 4 .cfa: sp 0 +
STACK CFI INIT 3a9f4 14 .cfa: sp 0 +
STACK CFI 3a9f8 .cfa: sp 16 +
STACK CFI 3a9fc .cfa: x29 16 + .ra: .cfa -8 + ^ x29: .cfa -16 + ^
STACK CFI INIT 3aa58 30 .cfa: sp 0 +
STACK CFI 3aa5c .cfa: sp 32 +
STACK CFI 3aa64 .cfa: x29 32 + x19: .cfa -16 + ^ .ra: .cfa -24 + ^ x29: .cfa -32 + ^
STACK CFI 3aa7c .cfa: sp 32 +
STACK CFI 3aa84 .cfa: sp 0 +
STACK CFI INIT 3aa88 124 .cfa: sp 0 +
STACK CFI 3aa8c .cfa: sp 64 +
STACK CFI 3aa9c .cfa: x29 64 + x19: .cfa -8 + ^ x20: .cfa -16 + ^ x21: .cfa -24 + ^ x22: .cfa -32 + ^ x23: .cfa -48 + ^ .ra: .cfa -56 + ^ x29: .cfa -64 + ^
STACK CFI 3ab94 .cfa: sp 64 +
STACK CFI 3aba4 .cfa: sp 0 +
STACK CFI 3aba8 .cfa: x29 64 +
STACK CFI INIT 3abac 14 .cfa: sp 0 +
STACK CFI 3abb0 .cfa: sp 16 +
STACK CFI 3abb4 .cfa: x29 16 + .ra: .cfa -8 + ^ x29: .cfa -16 + ^
STACK CFI INIT 3abc0 24 .cfa: sp 0 +
STACK CFI 3abc4 .cfa: sp 32 +
STACK CFI 3abcc .cfa: x29 32 + x19: .cfa -16 + ^ .ra: .cfa -24 + ^ x29: .cfa -32 + ^
STACK CFI 3abd8 .cfa: sp 32 +
STACK CFI 3abe0 .cfa: sp 0 +
STACK CFI INIT 3abe4 18 .cfa: sp 0 +
STACK CFI INIT 3abfc 40 .cfa: sp 0 +
STACK CFI 3ac14 .cfa: sp 32 +
STACK CFI 3ac1c .cfa: x29 32 + x19: .cfa -16 + ^ .ra: .cfa -24 + ^ x29: .cfa -32 + ^
STACK CFI 3ac30 .cfa: sp 32 +
STACK CFI 3ac38 .cfa: sp 0 +
STACK CFI INIT 3ac3c 44 .cfa: sp 0 +
STACK CFI 3ac40 .cfa: sp 32 +
STACK CFI 3ac48 .cfa: x29 32 + x19: .cfa -16 + ^ .ra: .cfa -24 + ^ x29: .cfa -32 + ^
STACK CFI 3ac74 .cfa: sp 32 +
STACK CFI 3ac7c .cfa: sp 0 +
STACK CFI INIT 3ac80 168 .cfa: sp 0 +
STACK CFI 3ac84 .cfa: sp 48 +
STACK CFI 3ac90 .cfa: x29 48 + x19: .cfa -8 + ^ x20: .cfa -16 + ^ x21: .cfa -24 + ^ x22: .cfa -32 + ^ .ra: .cfa -40 + ^ x29: .cfa -48 + ^
STACK CFI 3adcc .cfa: sp 48 +
STACK CFI 3add8 .cfa: sp 0 +
STACK CFI 3addc .cfa: x29 48 +
STACK CFI INIT 3afa4 4 .cfa: sp 0 +
STACK CFI INIT 3da3c 9c .cfa: sp 0 +
STACK CFI 3da40 .cfa: sp 48 +
STACK CFI 3da4c .cfa: x29 48 + x19: .cfa -8 + ^ x20: .cfa -16 + ^ x21: .cfa -24 + ^ x22: .cfa -32 + ^ .ra: .cfa -40 + ^ x29: .cfa -48 + ^
STACK CFI 3da80 .cfa: sp 48 +
STACK CFI 3da8c .cfa: sp 0 +
STACK CFI 3da90 .cfa: x29 48 +
STACK CFI 3dac0 .cfa: sp 48 +
STACK CFI 3dacc .cfa: sp 0 +
STACK CFI 3dad0 .cfa: x29 48 +
STACK CFI INIT 3e180 168 .cfa: sp 0 +
STACK CFI 3e184 .cfa: sp 128 +
STACK CFI 3e1a0 .cfa: x29 96 + x19: .cfa -8 + ^ x20: .cfa -16 + ^ x21: .cfa -24 + ^ x22: .cfa -32 + ^ x23: .cfa -40 + ^ x24: .cfa -48 + ^ x25: .cfa -56 + ^ x26: .cfa -64 + ^ x27: .cfa -72 + ^ x28: .cfa -80 + ^ .ra: .cfa -88 + ^ x29: .cfa -96 + ^
STACK CFI 3e2c8 .cfa: sp 128 +
STACK CFI 3e2e4 .cfa: sp 0 +
STACK CFI INIT 3e2e8 14 .cfa: sp 0 +
STACK CFI 3e2ec .cfa: sp 16 +
STACK CFI 3e2f0 .cfa: x29 16 + .ra: .cfa -8 + ^ x29: .cfa -16 + ^
STACK CFI INIT 3e2fc 1b0 .cfa: sp 0 +
STACK CFI 3e300 .cfa: sp 96 +
STACK CFI 3e318 .cfa: x29 96 + x19: .cfa -8 + ^ x20: .cfa -16 + ^ x21: .cfa -24 + ^ x22: .cfa -32 + ^ x23: .cfa -40 + ^ x24: .cfa -48 + ^ x25: .cfa -56 + ^ x26: .cfa -64 + ^ x27: .cfa -80 + ^ .ra: .cfa -88 + ^ x29: .cfa -96 + ^
STACK CFI 3e46c .cfa: sp 96 +
STACK CFI 3e484 .cfa: sp 0 +
STACK CFI 3e488 .cfa: sp 96 +
STACK CFI 3e4a0 .cfa: sp 0 +
STACK CFI 3e4a4 .cfa: x29 96 +
STACK CFI INIT 3e708 50 .cfa: sp 0 +
STACK CFI 3e70c .cfa: sp 32 +
STACK CFI 3e714 .cfa: x29 32 + x19: .cfa -16 + ^ .ra: .cfa -24 + ^ x29: .cfa -32 + ^
STACK CFI 3e72c .cfa: sp 32 +
STACK CFI 3e734 .cfa: sp 0 +
STACK CFI 3e738 .cfa: x29 32 +
STACK CFI 3e74c .cfa: sp 32 +
STACK CFI 3e754 .cfa: sp 0 +
STACK CFI INIT 3e758 9c .cfa: sp 0 +
STACK CFI 3e75c .cfa: sp 32 +
STACK CFI 3e764 .cfa: x29 32 + x19: .cfa -8 + ^ x20: .cfa -16 + ^ .ra: .cfa -24 + ^ x29: .cfa -32 + ^
STACK CFI 3e7e8 .cfa: sp 32 +
STACK CFI 3e7f0 .cfa: sp 0 +
STACK CFI INIT 3e96c 24 .cfa: sp 0 +
STACK CFI 3e970 .cfa: sp 32 +
STACK CFI 3e978 .cfa: x29 32 + x19: .cfa -16 + ^ .ra: .cfa -24 + ^ x29: .cfa -32 + ^
STACK CFI 3e984 .cfa: sp 32 +
STACK CFI 3e98c .cfa: sp 0 +
STACK CFI INIT 40770 8 .cfa: sp 0 +
STACK CFI INIT 40778 34 .cfa: sp 0 +
STACK CFI 4077c .cfa: sp 16 +
STACK CFI 40780 .cfa: x29 16 + .ra: .cfa -8 + ^ x29: .cfa -16 + ^
STACK CFI 407a4 .cfa: sp 16 +
STACK CFI 407a8 .cfa: sp 0 +
STACK CFI INIT 41448 ac .cfa: sp 0 +
STACK CFI 4144c .cfa: sp 96 +
STACK CFI 4145c .cfa: x29 48 + x19: .cfa -8 + ^ x20: .cfa -16 + ^ x21: .cfa -24 + ^ x22: .cfa -32 + ^ .ra: .cfa -40 + ^ x29: .cfa -48 + ^
STACK CFI 414dc .cfa: sp 96 +
STACK CFI 414ec .cfa: sp 0 +
STACK CFI 414f0 .cfa: x29 48 +
STACK CFI INIT 414f4 4 .cfa: sp 0 +
STACK CFI INIT 416c4 a4 .cfa: sp 0 +
STACK CFI 416c8 .cfa: sp 32 +
STACK CFI 416d0 .cfa: x29 32 + x19: .cfa -8 + ^ x20: .cfa -16 + ^ .ra: .cfa -24 + ^ x29: .cfa -32 + ^
STACK CFI 4175c .cfa: sp 32 +
STACK CFI 41764 .cfa: sp 0 +
STACK CFI INIT 41768 34 .cfa: sp 0 +
STACK CFI 4176c .cfa: sp 16 +
STACK CFI 41770 .cfa: x29 16 + .ra: .cfa -8 + ^ x29: .cfa -16 + ^
STACK CFI INIT 4179c 24 .cfa: sp 0 +
STACK CFI 417a0 .cfa: sp 32 +
STACK CFI 417a8 .cfa: x29 32 + x19: .cfa -16 + ^ .ra: .cfa -24 + ^ x29: .cfa -32 + ^
STACK CFI 417b4 .cfa: sp 32 +
STACK CFI 417bc .cfa: sp 0 +
STACK CFI INIT 419c4 50 .cfa: sp 0 +
STACK CFI 419c8 .cfa: sp 32 +
STACK CFI 419d0 .cfa: x29 32 + x19: .cfa -16 + ^ .ra: .cfa -24 + ^ x29: .cfa -32 + ^
STACK CFI 419e8 .cfa: sp 32 +
STACK CFI 419f0 .cfa: sp 0 +
STACK CFI 419f4 .cfa: x29 32 +
STACK CFI 41a08 .cfa: sp 32 +
STACK CFI 41a10 .cfa: sp 0 +
STACK CFI INIT 41a14 50 .cfa: sp 0 +
STACK CFI 41a18 .cfa: sp 32 +
STACK CFI 41a20 .cfa: x29 32 + x19: .cfa -16 + ^ .ra: .cfa -24 + ^ x29: .cfa -32 + ^
STACK CFI 41a38 .cfa: sp 32 +
STACK CFI 41a40 .cfa: sp 0 +
STACK CFI 41a44 .cfa: x29 32 +
STACK CFI 41a58 .cfa: sp 32 +
STACK CFI 41a60 .cfa: sp 0 +
STACK CFI INIT 41a64 5c .cfa: sp 0 +
STACK CFI 41a68 .cfa: sp 32 +
STACK CFI 41a70 .cfa: x29 32 + x19: .cfa -16 + ^ .ra: .cfa -24 + ^ x29: .cfa -32 + ^
STACK CFI 41a94 .cfa: sp 32 +
STACK CFI 41a9c .cfa: sp 0 +
STACK CFI 41aa0 .cfa: x29 32 +
STACK CFI 41ab4 .cfa: sp 32 +
STACK CFI 41abc .cfa: sp 0 +
STACK CFI INIT 41ac0 6c .cfa: sp 0 +
STACK CFI 41ac4 .cfa: sp 32 +
STACK CFI 41acc .cfa: x29 32 + x19: .cfa -8 + ^ x20: .cfa -16 + ^ .ra: .cfa -24 + ^ x29: .cfa -32 + ^
STACK CFI 41af8 .cfa: sp 32 +
STACK CFI 41b00 .cfa: sp 0 +
STACK CFI 41b04 .cfa: x29 32 +
STACK CFI 41b20 .cfa: sp 32 +
STACK CFI 41b28 .cfa: sp 0 +
STACK CFI INIT 41b2c 58 .cfa: sp 0 +
STACK CFI 41b30 .cfa: sp 32 +
STACK CFI 41b38 .cfa: x29 32 + x19: .cfa -8 + ^ x20: .cfa -16 + ^ .ra: .cfa -24 + ^ x29: .cfa -32 + ^
STACK CFI 41b78 .cfa: sp 32 +
STACK CFI 41b80 .cfa: sp 0 +
STACK CFI INIT 41b84 4c .cfa: sp 0 +
STACK CFI 41b88 .cfa: sp 32 +
STACK CFI 41b90 .cfa: x29 32 + x19: .cfa -8 + ^ x20: .cfa -16 + ^ .ra: .cfa -24 + ^ x29: .cfa -32 + ^
STACK CFI 41bc4 .cfa: sp 32 +
STACK CFI 41bcc .cfa: sp 0 +
STACK CFI INIT 41bd0 50 .cfa: sp 0 +
STACK CFI 41bd4 .cfa: sp 32 +
STACK CFI 41bdc .cfa: x29 32 + x19: .cfa -16 + ^ .ra: .cfa -24 + ^ x29: .cfa -32 + ^
STACK CFI 41bf4 .cfa: sp 32 +
STACK CFI 41bfc .cfa: sp 0 +
STACK CFI 41c00 .cfa: x29 32 +
STACK CFI 41c14 .cfa: sp 32 +
STACK CFI 41c1c .cfa: sp 0 +
STACK CFI INIT 41c20 60 .cfa: sp 0 +
STACK CFI 41c24 .cfa: sp 32 +
STACK CFI 41c2c .cfa: x29 32 + x19: .cfa -8 + ^ x20: .cfa -16 + ^ .ra: .cfa -24 + ^ x29: .cfa -32 + ^
STACK CFI 41c4c .cfa: sp 32 +
STACK CFI 41c54 .cfa: sp 0 +
STACK CFI 41c58 .cfa: x29 32 +
STACK CFI 41c74 .cfa: sp 32 +
STACK CFI 41c7c .cfa: sp 0 +
STACK CFI INIT 41e50 1c .cfa: sp 0 +
STACK CFI INIT 41e6c c .cfa: sp 0 +
STACK CFI INIT 41e78 60 .cfa: sp 0 +
STACK CFI 41e7c .cfa: sp 32 +
STACK CFI 41e84 .cfa: x29 32 + x19: .cfa -8 + ^ x20: .cfa -16 + ^ .ra: .cfa -24 + ^ x29: .cfa -32 + ^
STACK CFI 41ea4 .cfa: sp 32 +
STACK CFI 41eac .cfa: sp 0 +
STACK CFI 41eb0 .cfa: x29 32 +
STACK CFI 41ecc .cfa: sp 32 +
STACK CFI 41ed4 .cfa: sp 0 +
STACK CFI INIT 41ed8 70 .cfa: sp 0 +
STACK CFI 41edc .cfa: sp 32 +
STACK CFI 41ee4 .cfa: x29 32 + x19: .cfa -8 + ^ x20: .cfa -16 + ^ .ra: .cfa -24 + ^ x29: .cfa -32 + ^
STACK CFI 41f0c .cfa: sp 32 +
STACK CFI 41f14 .cfa: sp 0 +
STACK CFI 41f18 .cfa: x29 32 +
STACK CFI 41f3c .cfa: sp 32 +
STACK CFI 41f44 .cfa: sp 0 +
STACK CFI INIT 41f48 5c .cfa: sp 0 +
STACK CFI 41f4c .cfa: sp 32 +
STACK CFI 41f54 .cfa: x29 32 + x19: .cfa -16 + ^ .ra: .cfa -24 + ^ x29: .cfa -32 + ^
STACK CFI 41f78 .cfa: sp 32 +
STACK CFI 41f80 .cfa: sp 0 +
STACK CFI 41f84 .cfa: x29 32 +
STACK CFI 41f98 .cfa: sp 32 +
STACK CFI 41fa0 .cfa: sp 0 +
STACK CFI INIT 41fa4 6c .cfa: sp 0 +
STACK CFI 41fa8 .cfa: sp 32 +
STACK CFI 41fb0 .cfa: x29 32 + x19: .cfa -8 + ^ x20: .cfa -16 + ^ .ra: .cfa -24 + ^ x29: .cfa -32 + ^
STACK CFI 41fdc .cfa: sp 32 +
STACK CFI 41fe4 .cfa: sp 0 +
STACK CFI 41fe8 .cfa: x29 32 +
STACK CFI 42004 .cfa: sp 32 +
STACK CFI 4200c .cfa: sp 0 +
STACK CFI INIT 42010 58 .cfa: sp 0 +
STACK CFI 42014 .cfa: sp 32 +
STACK CFI 4201c .cfa: x29 32 + x19: .cfa -8 + ^ x20: .cfa -16 + ^ .ra: .cfa -24 + ^ x29: .cfa -32 + ^
STACK CFI 4205c .cfa: sp 32 +
STACK CFI 42064 .cfa: sp 0 +
STACK CFI INIT 42068 4c .cfa: sp 0 +
STACK CFI 4206c .cfa: sp 32 +
STACK CFI 42074 .cfa: x29 32 + x19: .cfa -8 + ^ x20: .cfa -16 + ^ .ra: .cfa -24 + ^ x29: .cfa -32 + ^
STACK CFI 420a8 .cfa: sp 32 +
STACK CFI 420b0 .cfa: sp 0 +
STACK CFI INIT 420b4 50 .cfa: sp 0 +
STACK CFI 420b8 .cfa: sp 32 +
STACK CFI 420c0 .cfa: x29 32 + x19: .cfa -16 + ^ .ra: .cfa -24 + ^ x29: .cfa -32 + ^
STACK CFI 420d8 .cfa: sp 32 +
STACK CFI 420e0 .cfa: sp 0 +
STACK CFI 420e4 .cfa: x29 32 +
STACK CFI 420f8 .cfa: sp 32 +
STACK CFI 42100 .cfa: sp 0 +
STACK CFI INIT 42104 60 .cfa: sp 0 +
STACK CFI 42108 .cfa: sp 32 +
STACK CFI 42110 .cfa: x29 32 + x19: .cfa -8 + ^ x20: .cfa -16 + ^ .ra: .cfa -24 + ^ x29: .cfa -32 + ^
STACK CFI 42130 .cfa: sp 32 +
STACK CFI 42138 .cfa: sp 0 +
STACK CFI 4213c .cfa: x29 32 +
STACK CFI 42158 .cfa: sp 32 +
STACK CFI 42160 .cfa: sp 0 +
STACK CFI INIT 42328 1c .cfa: sp 0 +
STACK CFI INIT 42344 c .cfa: sp 0 +
STACK CFI INIT 42650 4 .cfa: sp 0 +
STACK CFI INIT 42654 38 .cfa: sp 0 +
STACK CFI 42658 .cfa: sp 32 +
STACK CFI 42660 .cfa: x29 32 + x19: .cfa -16 + ^ .ra: .cfa -24 + ^ x29: .cfa -32 + ^
STACK CFI 42680 .cfa: sp 32 +
STACK CFI 42688 .cfa: sp 0 +
STACK CFI INIT 4268c 18 .cfa: sp 0 +
STACK CFI INIT 426a4 4 .cfa: sp 0 +
STACK CFI INIT 426a8 4 .cfa: sp 0 +
STACK CFI INIT 43754 1c .cfa: sp 0 +
STACK CFI INIT 43770 c .cfa: sp 0 +
STACK CFI INIT 437f0 7c .cfa: sp 0 +
STACK CFI 437f4 .cfa: sp 48 +
STACK CFI 43800 .cfa: x29 48 + x19: .cfa -8 + ^ x20: .cfa -16 + ^ x21: .cfa -32 + ^ .ra: .cfa -40 + ^ x29: .cfa -48 + ^
STACK CFI 4384c .cfa: sp 48 +
STACK CFI 43858 .cfa: sp 0 +
STACK CFI 4385c .cfa: sp 48 +
STACK CFI 43868 .cfa: sp 0 +
STACK CFI INIT 4386c 14 .cfa: sp 0 +
STACK CFI INIT 43880 14 .cfa: sp 0 +
STACK CFI INIT 43894 390 .cfa: sp 0 +
STACK CFI 43898 .cfa: sp 304 +
STACK CFI 438b4 .cfa: x29 96 + x19: .cfa -8 + ^ x20: .cfa -16 + ^ x21: .cfa -24 + ^ x22: .cfa -32 + ^ x23: .cfa -40 + ^ x24: .cfa -48 + ^ x25: .cfa -56 + ^ x26: .cfa -64 + ^ x27: .cfa -72 + ^ x28: .cfa -80 + ^ .ra: .cfa -88 + ^ x29: .cfa -96 + ^
STACK CFI 43c00 .cfa: sp 304 +
STACK CFI 43c1c .cfa: sp 0 +
STACK CFI 43c20 .cfa: x29 96 +
STACK CFI INIT 43c24 4b4 .cfa: sp 0 +
STACK CFI 43c28 .cfa: sp 96 +
STACK CFI 43c40 .cfa: x29 96 + x19: .cfa -8 + ^ x20: .cfa -16 + ^ x21: .cfa -24 + ^ x22: .cfa -32 + ^ x23: .cfa -40 + ^ x24: .cfa -48 + ^ x25: .cfa -56 + ^ x26: .cfa -64 + ^ x27: .cfa -72 + ^ x28: .cfa -80 + ^ .ra: .cfa -88 + ^ x29: .cfa -96 + ^
STACK CFI 44088 .cfa: sp 96 +
STACK CFI 440a0 .cfa: sp 0 +
STACK CFI 440a4 .cfa: x29 96 +
STACK CFI INIT 440d8 1a4 .cfa: sp 0 +
STACK CFI 440dc .cfa: sp 64 +
STACK CFI 440e8 .cfa: x29 32 + x19: .cfa -8 + ^ x20: .cfa -16 + ^ .ra: .cfa -24 + ^ x29: .cfa -32 + ^
STACK CFI 44214 .cfa: sp 64 +
STACK CFI 44220 .cfa: sp 0 +
STACK CFI 44224 .cfa: x29 32 +
STACK CFI INIT 4427c 194 .cfa: sp 0 +
STACK CFI 44280 .cfa: sp 16 +
STACK CFI 44284 .cfa: x29 16 + .ra: .cfa -8 + ^ x29: .cfa -16 + ^
STACK CFI 4431c .cfa: sp 16 +
STACK CFI 44320 .cfa: sp 0 +
STACK CFI 44324 .cfa: x29 16 +
STACK CFI 443f0 .cfa: sp 16 +
STACK CFI 443f4 .cfa: sp 0 +
STACK CFI 443f8 .cfa: x29 16 +
STACK CFI INIT 44410 114 .cfa: sp 0 +
STACK CFI 44414 .cfa: sp 128 +
STACK CFI 44424 .cfa: x29 48 + x19: .cfa -8 + ^ x20: .cfa -16 + ^ x21: .cfa -32 + ^ .ra: .cfa -40 + ^ x29: .cfa -48 + ^
STACK CFI 444f0 .cfa: sp 128 +
STACK CFI 44500 .cfa: sp 0 +
STACK CFI 44504 .cfa: x29 48 +
STACK CFI INIT 44524 114 .cfa: sp 0 +
STACK CFI 44528 .cfa: sp 128 +
STACK CFI 44538 .cfa: x29 48 + x19: .cfa -8 + ^ x20: .cfa -16 + ^ x21: .cfa -32 + ^ .ra: .cfa -40 + ^ x29: .cfa -48 + ^
STACK CFI 44604 .cfa: sp 128 +
STACK CFI 44614 .cfa: sp 0 +
STACK CFI 44618 .cfa: x29 48 +
STACK CFI INIT 44638 27c .cfa: sp 0 +
STACK CFI 4463c .cfa: sp 176 +
STACK CFI 44658 .cfa: x29 96 + x19: .cfa -8 + ^ x20: .cfa -16 + ^ x21: .cfa -24 + ^ x22: .cfa -32 + ^ x23: .cfa -40 + ^ x24: .cfa -48 + ^ x25: .cfa -56 + ^ x26: .cfa -64 + ^ x27: .cfa -72 + ^ x28: .cfa -80 + ^ .ra: .cfa -88 + ^ x29: .cfa -96 + ^
STACK CFI 44890 .cfa: sp 176 +
STACK CFI 448ac .cfa: sp 0 +
STACK CFI 448b0 .cfa: x29 96 +
STACK CFI INIT 448b4 520 .cfa: sp 0 +
STACK CFI 448b8 .cfa: sp 176 +
STACK CFI 448d4 .cfa: x29 96 + x19: .cfa -8 + ^ x20: .cfa -16 + ^ x21: .cfa -24 + ^ x22: .cfa -32 + ^ x23: .cfa -40 + ^ x24: .cfa -48 + ^ x25: .cfa -56 + ^ x26: .cfa -64 + ^ x27: .cfa -72 + ^ x28: .cfa -80 + ^ .ra: .cfa -88 + ^ x29: .cfa -96 + ^
STACK CFI 44db0 .cfa: sp 176 +
STACK CFI 44dcc .cfa: sp 0 +
STACK CFI 44dd0 .cfa: x29 96 +
STACK CFI INIT 44dd4 20c .cfa: sp 0 +
STACK CFI 44dd8 .cfa: sp 80 +
STACK CFI 44dec .cfa: x29 80 + x19: .cfa -8 + ^ x20: .cfa -16 + ^ x21: .cfa -24 + ^ x22: .cfa -32 + ^ x23: .cfa -40 + ^ x24: .cfa -48 + ^ x25: .cfa -64 + ^ .ra: .cfa -72 + ^ x29: .cfa -80 + ^
STACK CFI 44e7c .cfa: sp 80 +
STACK CFI 44e90 .cfa: sp 0 +
STACK CFI 44e94 .cfa: x29 80 +
STACK CFI 44ea0 .cfa: sp 80 +
STACK CFI 44eb4 .cfa: sp 0 +
STACK CFI 44eb8 .cfa: x29 80 +
STACK CFI INIT 44fe0 428 .cfa: sp 0 +
STACK CFI 44fe4 .cfa: sp 128 +
STACK CFI 45000 .cfa: x29 96 + x19: .cfa -8 + ^ x20: .cfa -16 + ^ x21: .cfa -24 + ^ x22: .cfa -32 + ^ x23: .cfa -40 + ^ x24: .cfa -48 + ^ x25: .cfa -56 + ^ x26: .cfa -64 + ^ x27: .cfa -72 + ^ x28: .cfa -80 + ^ .ra: .cfa -88 + ^ x29: .cfa -96 + ^
STACK CFI 453e4 .cfa: sp 128 +
STACK CFI 45400 .cfa: sp 0 +
STACK CFI 45404 .cfa: x29 96 +
STACK CFI INIT 45408 194 .cfa: sp 0 +
STACK CFI 4540c .cfa: sp 32 +
STACK CFI 45414 .cfa: x29 16 + .ra: .cfa -8 + ^ x29: .cfa -16 + ^
STACK CFI 45458 .cfa: sp 32 +
STACK CFI 45460 .cfa: sp 0 +
STACK CFI 45464 .cfa: x29 16 +
STACK CFI INIT 4559c 1b8 .cfa: sp 0 +
STACK CFI INIT 45754 1d0 .cfa: sp 0 +
STACK CFI 45758 .cfa: sp 80 +
STACK CFI 4576c .cfa: x29 80 + x19: .cfa -8 + ^ x20: .cfa -16 + ^ x21: .cfa -24 + ^ x22: .cfa -32 + ^ x23: .cfa -40 + ^ x24: .cfa -48 + ^ x25: .cfa -64 + ^ .ra: .cfa -72 + ^ x29: .cfa -80 + ^
STACK CFI 4590c .cfa: sp 80 +
STACK CFI 45920 .cfa: sp 0 +
STACK CFI INIT 45924 67c .cfa: sp 0 +
STACK CFI 45928 .cfa: sp 176 +
STACK CFI 45944 .cfa: x29 96 + x19: .cfa -8 + ^ x20: .cfa -16 + ^ x21: .cfa -24 + ^ x22: .cfa -32 + ^ x23: .cfa -40 + ^ x24: .cfa -48 + ^ x25: .cfa -56 + ^ x26: .cfa -64 + ^ x27: .cfa -72 + ^ x28: .cfa -80 + ^ .ra: .cfa -88 + ^ x29: .cfa -96 + ^
STACK CFI 45f7c .cfa: sp 176 +
STACK CFI 45f98 .cfa: sp 0 +
STACK CFI 45f9c .cfa: x29 96 +
STACK CFI INIT 45fa0 1e4 .cfa: sp 0 +
STACK CFI 45fa4 .cfa: sp 32 +
STACK CFI 45fac .cfa: x29 32 + x19: .cfa -8 + ^ x20: .cfa -16 + ^ .ra: .cfa -24 + ^ x29: .cfa -32 + ^
STACK CFI 4609c .cfa: sp 32 +
STACK CFI 460a4 .cfa: sp 0 +
STACK CFI 460a8 .cfa: x29 32 +
STACK CFI 4611c .cfa: sp 32 +
STACK CFI 46124 .cfa: sp 0 +
STACK CFI 46128 .cfa: x29 32 +
STACK CFI 46138 .cfa: sp 32 +
STACK CFI 46140 .cfa: sp 0 +
STACK CFI 46144 .cfa: x29 32 +
STACK CFI 46154 .cfa: sp 32 +
STACK CFI 4615c .cfa: sp 0 +
STACK CFI 46160 .cfa: x29 32 +
STACK CFI INIT 46184 178 .cfa: sp 0 +
STACK CFI 46188 .cfa: sp 80 +
STACK CFI 4619c .cfa: x29 64 + x19: .cfa -8 + ^ x20: .cfa -16 + ^ x21: .cfa -24 + ^ x22: .cfa -32 + ^ x23: .cfa -40 + ^ x24: .cfa -48 + ^ .ra: .cfa -56 + ^ x29: .cfa -64 + ^
STACK CFI 462e0 .cfa: sp 80 +
STACK CFI 462f4 .cfa: sp 0 +
STACK CFI 462f8 .cfa: x29 64 +
STACK CFI INIT 462fc 178 .cfa: sp 0 +
STACK CFI 46300 .cfa: sp 80 +
STACK CFI 46314 .cfa: x29 64 + x19: .cfa -8 + ^ x20: .cfa -16 + ^ x21: .cfa -24 + ^ x22: .cfa -32 + ^ x23: .cfa -40 + ^ x24: .cfa -48 + ^ .ra: .cfa -56 + ^ x29: .cfa -64 + ^
STACK CFI 46458 .cfa: sp 80 +
STACK CFI 4646c .cfa: sp 0 +
STACK CFI 46470 .cfa: x29 64 +
STACK CFI INIT 46474 178 .cfa: sp 0 +
STACK CFI 46478 .cfa: sp 80 +
STACK CFI 4648c .cfa: x29 64 + x19: .cfa -8 + ^ x20: .cfa -16 + ^ x21: .cfa -24 + ^ x22: .cfa -32 + ^ x23: .cfa -40 + ^ x24: .cfa -48 + ^ .ra: .cfa -56 + ^ x29: .cfa -64 + ^
STACK CFI 465d0 .cfa: sp 80 +
STACK CFI 465e4 .cfa: sp 0 +
STACK CFI 465e8 .cfa: x29 64 +
STACK CFI INIT 465ec 94 .cfa: sp 0 +
STACK CFI 465f0 .cfa: sp 16 +
STACK CFI 465f4 .cfa: x29 16 + .ra: .cfa -8 + ^ x29: .cfa -16 + ^
STACK CFI 46648 .cfa: sp 16 +
STACK CFI 4664c .cfa: sp 0 +
STACK CFI 46650 .cfa: x29 16 +
STACK CFI INIT 46680 158 .cfa: sp 0 +
STACK CFI 46684 .cfa: sp 112 +
STACK CFI 466a0 .cfa: x29 96 + x19: .cfa -8 + ^ x20: .cfa -16 + ^ x21: .cfa -24 + ^ x22: .cfa -32 + ^ x23: .cfa -40 + ^ x24: .cfa -48 + ^ x25: .cfa -56 + ^ x26: .cfa -64 + ^ x27: .cfa -72 + ^ x28: .cfa -80 + ^ .ra: .cfa -88 + ^ x29: .cfa -96 + ^
STACK CFI 46788 .cfa: sp 112 +
STACK CFI 4678c .cfa: x29 96 +
STACK CFI 46794 .cfa: sp 112 +
STACK CFI 467b0 .cfa: sp 0 +
STACK CFI 467b4 .cfa: x29 96 +
STACK CFI 467d4 .cfa: sp 112 +
STACK CFI INIT 467d8 94 .cfa: sp 0 +
STACK CFI 467dc .cfa: sp 16 +
STACK CFI 467e0 .cfa: x29 16 + .ra: .cfa -8 + ^ x29: .cfa -16 + ^
STACK CFI 46834 .cfa: sp 16 +
STACK CFI 46838 .cfa: sp 0 +
STACK CFI 4683c .cfa: x29 16 +
STACK CFI INIT 4686c 4f4 .cfa: sp 0 +
STACK CFI 46870 .cfa: sp 368 +
STACK CFI 4688c .cfa: x29 96 + x19: .cfa -8 + ^ x20: .cfa -16 + ^ x21: .cfa -24 + ^ x22: .cfa -32 + ^ x23: .cfa -40 + ^ x24: .cfa -48 + ^ x25: .cfa -56 + ^ x26: .cfa -64 + ^ x27: .cfa -72 + ^ x28: .cfa -80 + ^ .ra: .cfa -88 + ^ x29: .cfa -96 + ^
STACK CFI 46d3c .cfa: sp 368 +
STACK CFI 46d58 .cfa: sp 0 +
STACK CFI 46d5c .cfa: x29 96 +
STACK CFI INIT 46d60 9a4 .cfa: sp 0 +
STACK CFI 46d64 .cfa: sp 144 +
STACK CFI 46d7c .cfa: x29 80 + x19: .cfa -8 + ^ x20: .cfa -16 + ^ x21: .cfa -24 + ^ x22: .cfa -32 + ^ x23: .cfa -40 + ^ x24: .cfa -48 + ^ x25: .cfa -64 + ^ .ra: .cfa -72 + ^ x29: .cfa -80 + ^
STACK CFI 476e4 .cfa: sp 144 +
STACK CFI 476fc .cfa: sp 0 +
STACK CFI 47700 .cfa: x29 80 +
STACK CFI INIT 47704 150 .cfa: sp 0 +
STACK CFI 47708 .cfa: sp 48 +
STACK CFI 47714 .cfa: x29 48 + x19: .cfa -8 + ^ x20: .cfa -16 + ^ x21: .cfa -24 + ^ x22: .cfa -32 + ^ .ra: .cfa -40 + ^ x29: .cfa -48 + ^
STACK CFI 47844 .cfa: sp 48 +
STACK CFI 47850 .cfa: sp 0 +
STACK CFI INIT 47854 190 .cfa: sp 0 +
STACK CFI 47858 .cfa: sp 96 +
STACK CFI 4786c .cfa: x29 64 + x19: .cfa -8 + ^ x20: .cfa -16 + ^ x21: .cfa -24 + ^ x22: .cfa -32 + ^ x23: .cfa -48 + ^ .ra: .cfa -56 + ^ x29: .cfa -64 + ^
STACK CFI 479c8 .cfa: sp 96 +
STACK CFI 479dc .cfa: sp 0 +
STACK CFI 479e0 .cfa: x29 64 +
STACK CFI INIT 479e4 1e4 .cfa: sp 0 +
STACK CFI 479e8 .cfa: sp 112 +
STACK CFI 47a00 .cfa: x29 80 + x19: .cfa -8 + ^ x20: .cfa -16 + ^ x21: .cfa -24 + ^ x22: .cfa -32 + ^ x23: .cfa -40 + ^ x24: .cfa -48 + ^ x25: .cfa -64 + ^ .ra: .cfa -72 + ^ x29: .cfa -80 + ^
STACK CFI 47ba8 .cfa: sp 112 +
STACK CFI 47bc0 .cfa: sp 0 +
STACK CFI 47bc4 .cfa: x29 80 +
STACK CFI INIT 47bc8 1a8 .cfa: sp 0 +
STACK CFI 47bcc .cfa: sp 96 +
STACK CFI 47be0 .cfa: x29 64 + x19: .cfa -8 + ^ x20: .cfa -16 + ^ x21: .cfa -24 + ^ x22: .cfa -32 + ^ x23: .cfa -40 + ^ x24: .cfa -48 + ^ .ra: .cfa -56 + ^ x29: .cfa -64 + ^
STACK CFI 47d54 .cfa: sp 96 +
STACK CFI 47d68 .cfa: sp 0 +
STACK CFI 47d6c .cfa: x29 64 +
STACK CFI INIT 47d70 1ac .cfa: sp 0 +
STACK CFI 47d74 .cfa: sp 112 +
STACK CFI 47d88 .cfa: x29 64 + x19: .cfa -8 + ^ x20: .cfa -16 + ^ x21: .cfa -24 + ^ x22: .cfa -32 + ^ x23: .cfa -40 + ^ x24: .cfa -48 + ^ .ra: .cfa -56 + ^ x29: .cfa -64 + ^
STACK CFI 47f00 .cfa: sp 112 +
STACK CFI 47f14 .cfa: sp 0 +
STACK CFI 47f18 .cfa: x29 64 +
STACK CFI INIT 47f1c 108 .cfa: sp 0 +
STACK CFI 47f20 .cfa: sp 64 +
STACK CFI 47f30 .cfa: x29 64 + x19: .cfa -8 + ^ x20: .cfa -16 + ^ x21: .cfa -24 + ^ x22: .cfa -32 + ^ x23: .cfa -48 + ^ .ra: .cfa -56 + ^ x29: .cfa -64 + ^
STACK CFI 47fac .cfa: sp 64 +
STACK CFI 47fbc .cfa: sp 0 +
STACK CFI 47fc0 .cfa: x29 64 +
STACK CFI 48010 .cfa: sp 64 +
STACK CFI 48020 .cfa: sp 0 +
STACK CFI INIT 48024 178 .cfa: sp 0 +
STACK CFI 48028 .cfa: sp 96 +
STACK CFI 48038 .cfa: x29 48 + x19: .cfa -8 + ^ x20: .cfa -16 + ^ x21: .cfa -24 + ^ x22: .cfa -32 + ^ .ra: .cfa -40 + ^ x29: .cfa -48 + ^
STACK CFI 48158 .cfa: sp 96 +
STACK CFI 48168 .cfa: sp 0 +
STACK CFI 4816c .cfa: x29 48 +
STACK CFI INIT 4819c 4 .cfa: sp 0 +
STACK CFI INIT 481a0 4 .cfa: sp 0 +
STACK CFI INIT 481a4 34 .cfa: sp 0 +
STACK CFI 481a8 .cfa: sp 32 +
STACK CFI 481b0 .cfa: x29 32 + x19: .cfa -16 + ^ .ra: .cfa -24 + ^ x29: .cfa -32 + ^
STACK CFI 481cc .cfa: sp 32 +
STACK CFI 481d4 .cfa: sp 0 +
STACK CFI INIT 481d8 14 .cfa: sp 0 +
STACK CFI INIT 481ec 4 .cfa: sp 0 +
STACK CFI INIT 481f0 4 .cfa: sp 0 +
STACK CFI INIT 48a80 1c .cfa: sp 0 +
STACK CFI INIT 48a9c c .cfa: sp 0 +
STACK CFI INIT 48aa8 d4 .cfa: sp 0 +
STACK CFI 48aac .cfa: sp 80 +
STACK CFI 48abc .cfa: x29 48 + x19: .cfa -8 + ^ x20: .cfa -16 + ^ x21: .cfa -32 + ^ .ra: .cfa -40 + ^ x29: .cfa -48 + ^
STACK CFI 48b64 .cfa: sp 80 +
STACK CFI 48b74 .cfa: sp 0 +
STACK CFI 48b78 .cfa: x29 48 +
STACK CFI INIT 48c98 218 .cfa: sp 0 +
STACK CFI 48c9c .cfa: sp 112 +
STACK CFI 48cb8 .cfa: x29 96 + x19: .cfa -8 + ^ x20: .cfa -16 + ^ x21: .cfa -24 + ^ x22: .cfa -32 + ^ x23: .cfa -40 + ^ x24: .cfa -48 + ^ x25: .cfa -56 + ^ x26: .cfa -64 + ^ x27: .cfa -72 + ^ x28: .cfa -80 + ^ .ra: .cfa -88 + ^ x29: .cfa -96 + ^
STACK CFI 48e8c .cfa: sp 112 +
STACK CFI 48ea8 .cfa: sp 0 +
STACK CFI 48eac .cfa: x29 96 +
STACK CFI INIT 48eb0 3c .cfa: sp 0 +
STACK CFI 48eb4 .cfa: sp 32 +
STACK CFI 48ebc .cfa: x29 32 + x19: .cfa -16 + ^ .ra: .cfa -24 + ^ x29: .cfa -32 + ^
STACK CFI 48ec8 .cfa: sp 32 +
STACK CFI 48ed0 .cfa: sp 0 +
STACK CFI 48ed4 .cfa: x29 32 +
STACK CFI 48ee0 .cfa: sp 32 +
STACK CFI 48ee8 .cfa: sp 0 +
STACK CFI INIT 48eec 4c .cfa: sp 0 +
STACK CFI 48ef0 .cfa: sp 32 +
STACK CFI 48ef8 .cfa: x29 32 + x19: .cfa -8 + ^ x20: .cfa -16 + ^ .ra: .cfa -24 + ^ x29: .cfa -32 + ^
STACK CFI 48f20 .cfa: sp 32 +
STACK CFI 48f28 .cfa: sp 0 +
STACK CFI 48f2c .cfa: sp 32 +
STACK CFI 48f34 .cfa: sp 0 +
STACK CFI INIT 49158 64 .cfa: sp 0 +
STACK CFI 4915c .cfa: sp 32 +
STACK CFI 49164 .cfa: x29 32 + x19: .cfa -16 + ^ .ra: .cfa -24 + ^ x29: .cfa -32 + ^
STACK CFI 49190 .cfa: sp 32 +
STACK CFI 49198 .cfa: sp 0 +
STACK CFI 4919c .cfa: x29 32 +
STACK CFI 491b0 .cfa: sp 32 +
STACK CFI 491b8 .cfa: sp 0 +
STACK CFI INIT 493e0 24 .cfa: sp 0 +
STACK CFI 493e4 .cfa: sp 32 +
STACK CFI 493ec .cfa: x29 32 + x19: .cfa -16 + ^ .ra: .cfa -24 + ^ x29: .cfa -32 + ^
STACK CFI 493f8 .cfa: sp 32 +
STACK CFI 49400 .cfa: sp 0 +
STACK CFI INIT 49404 24 .cfa: sp 0 +
STACK CFI 49408 .cfa: sp 32 +
STACK CFI 49410 .cfa: x29 32 + x19: .cfa -16 + ^ .ra: .cfa -24 + ^ x29: .cfa -32 + ^
STACK CFI 4941c .cfa: sp 32 +
STACK CFI 49424 .cfa: sp 0 +
STACK CFI INIT 49428 8 .cfa: sp 0 +
STACK CFI INIT 49430 24 .cfa: sp 0 +
STACK CFI 49434 .cfa: sp 32 +
STACK CFI 4943c .cfa: x29 32 + x19: .cfa -16 + ^ .ra: .cfa -24 + ^ x29: .cfa -32 + ^
STACK CFI 49448 .cfa: sp 32 +
STACK CFI 49450 .cfa: sp 0 +
STACK CFI INIT 49454 28 .cfa: sp 0 +
STACK CFI 49458 .cfa: sp 32 +
STACK CFI 49460 .cfa: x29 32 + x19: .cfa -16 + ^ .ra: .cfa -24 + ^ x29: .cfa -32 + ^
STACK CFI 49470 .cfa: sp 32 +
STACK CFI 49478 .cfa: sp 0 +
STACK CFI INIT 4977c 8 .cfa: sp 0 +
STACK CFI INIT 49784 24 .cfa: sp 0 +
STACK CFI 49788 .cfa: sp 32 +
STACK CFI 49790 .cfa: x29 32 + x19: .cfa -16 + ^ .ra: .cfa -24 + ^ x29: .cfa -32 + ^
STACK CFI 4979c .cfa: sp 32 +
STACK CFI 497a4 .cfa: sp 0 +
STACK CFI INIT 497a8 28 .cfa: sp 0 +
STACK CFI 497ac .cfa: sp 32 +
STACK CFI 497b4 .cfa: x29 32 + x19: .cfa -16 + ^ .ra: .cfa -24 + ^ x29: .cfa -32 + ^
STACK CFI 497c4 .cfa: sp 32 +
STACK CFI 497cc .cfa: sp 0 +
STACK CFI INIT 49a34 8 .cfa: sp 0 +
STACK CFI INIT 49a3c 24 .cfa: sp 0 +
STACK CFI 49a40 .cfa: sp 32 +
STACK CFI 49a48 .cfa: x29 32 + x19: .cfa -16 + ^ .ra: .cfa -24 + ^ x29: .cfa -32 + ^
STACK CFI 49a54 .cfa: sp 32 +
STACK CFI 49a5c .cfa: sp 0 +
STACK CFI INIT 49a60 28 .cfa: sp 0 +
STACK CFI 49a64 .cfa: sp 32 +
STACK CFI 49a6c .cfa: x29 32 + x19: .cfa -16 + ^ .ra: .cfa -24 + ^ x29: .cfa -32 + ^
STACK CFI 49a7c .cfa: sp 32 +
STACK CFI 49a84 .cfa: sp 0 +
STACK CFI INIT 49a88 8 .cfa: sp 0 +
STACK CFI INIT 49a90 24 .cfa: sp 0 +
STACK CFI 49a94 .cfa: sp 32 +
STACK CFI 49a9c .cfa: x29 32 + x19: .cfa -16 + ^ .ra: .cfa -24 + ^ x29: .cfa -32 + ^
STACK CFI 49aa8 .cfa: sp 32 +
STACK CFI 49ab0 .cfa: sp 0 +
STACK CFI INIT 49ab4 28 .cfa: sp 0 +
STACK CFI 49ab8 .cfa: sp 32 +
STACK CFI 49ac0 .cfa: x29 32 + x19: .cfa -16 + ^ .ra: .cfa -24 + ^ x29: .cfa -32 + ^
STACK CFI 49ad0 .cfa: sp 32 +
STACK CFI 49ad8 .cfa: sp 0 +
STACK CFI INIT 4afa0 4 .cfa: sp 0 +
STACK CFI INIT 4afa4 14 .cfa: sp 0 +
STACK CFI INIT 4b4c4 c .cfa: sp 0 +
STACK CFI INIT 4b4d0 24c .cfa: sp 0 +
STACK CFI INIT 4b71c a0 .cfa: sp 0 +
STACK CFI 4b728 .cfa: sp 32 +
STACK CFI 4b780 .cfa: sp 0 +
STACK CFI 4b784 .cfa: sp 32 +
STACK CFI 4b78c .cfa: sp 0 +
STACK CFI 4b790 .cfa: sp 32 +
STACK CFI 4b7a4 .cfa: sp 0 +
STACK CFI 4b7a8 .cfa: sp 32 +
STACK CFI 4b7b8 .cfa: sp 0 +
STACK CFI INIT 4b7bc 38 .cfa: sp 0 +
STACK CFI 4b7c8 .cfa: sp 32 +
STACK CFI 4b7f0 .cfa: sp 0 +
STACK CFI INIT 4bb0c 7c .cfa: sp 0 +
STACK CFI 4bb10 .cfa: sp 32 +
STACK CFI 4bb18 .cfa: x29 32 + x19: .cfa -16 + ^ .ra: .cfa -24 + ^ x29: .cfa -32 + ^
STACK CFI 4bb44 .cfa: sp 32 +
STACK CFI 4bb4c .cfa: sp 0 +
STACK CFI 4bb50 .cfa: x29 32 +
STACK CFI 4bb7c .cfa: sp 32 +
STACK CFI 4bb84 .cfa: sp 0 +
STACK CFI INIT 4bbd8 2c .cfa: sp 0 +
STACK CFI 4bbdc .cfa: sp 32 +
STACK CFI 4bbe4 .cfa: x29 32 + x19: .cfa -16 + ^ .ra: .cfa -24 + ^ x29: .cfa -32 + ^
STACK CFI 4bbf8 .cfa: sp 32 +
STACK CFI 4bc00 .cfa: sp 0 +
STACK CFI INIT 4c3c4 64 .cfa: sp 0 +
STACK CFI 4c3c8 .cfa: sp 32 +
STACK CFI 4c3d0 .cfa: x29 32 + x19: .cfa -16 + ^ .ra: .cfa -24 + ^ x29: .cfa -32 + ^
STACK CFI 4c3ec .cfa: sp 32 +
STACK CFI 4c3f4 .cfa: sp 0 +
STACK CFI 4c3f8 .cfa: x29 32 +
STACK CFI 4c41c .cfa: sp 32 +
STACK CFI 4c424 .cfa: sp 0 +
STACK CFI INIT 4c428 570 .cfa: sp 0 +
STACK CFI 4c42c .cfa: sp 176 +
STACK CFI 4c440 .cfa: x29 64 + x19: .cfa -8 + ^ x20: .cfa -16 + ^ x21: .cfa -24 + ^ x22: .cfa -32 + ^ x23: .cfa -40 + ^ x24: .cfa -48 + ^ .ra: .cfa -56 + ^ x29: .cfa -64 + ^
STACK CFI 4c670 .cfa: sp 176 +
STACK CFI 4c684 .cfa: sp 0 +
STACK CFI 4c688 .cfa: x29 64 +
STACK CFI 4c6d4 .cfa: sp 176 +
STACK CFI 4c6e8 .cfa: sp 0 +
STACK CFI 4c6ec .cfa: x29 64 +
STACK CFI 4c724 .cfa: sp 176 +
STACK CFI 4c738 .cfa: sp 0 +
STACK CFI 4c73c .cfa: x29 64 +
STACK CFI 4c754 .cfa: sp 176 +
STACK CFI 4c768 .cfa: sp 0 +
STACK CFI 4c76c .cfa: x29 64 +
STACK CFI 4c78c .cfa: sp 176 +
STACK CFI 4c7a0 .cfa: sp 0 +
STACK CFI 4c7a4 .cfa: x29 64 +
STACK CFI 4c7bc .cfa: sp 176 +
STACK CFI 4c7d0 .cfa: sp 0 +
STACK CFI 4c7d4 .cfa: x29 64 +
STACK CFI 4c7e8 .cfa: sp 176 +
STACK CFI 4c7fc .cfa: sp 0 +
STACK CFI 4c800 .cfa: x29 64 +
STACK CFI 4c814 .cfa: sp 176 +
STACK CFI 4c828 .cfa: sp 0 +
STACK CFI 4c82c .cfa: x29 64 +
STACK CFI 4c83c .cfa: sp 176 +
STACK CFI 4c850 .cfa: sp 0 +
STACK CFI 4c854 .cfa: x29 64 +
STACK CFI 4c864 .cfa: sp 176 +
STACK CFI 4c878 .cfa: sp 0 +
STACK CFI 4c87c .cfa: x29 64 +
STACK CFI 4c894 .cfa: sp 176 +
STACK CFI 4c8a8 .cfa: sp 0 +
STACK CFI 4c8ac .cfa: x29 64 +
STACK CFI 4c8c0 .cfa: sp 176 +
STACK CFI 4c8d4 .cfa: sp 0 +
STACK CFI 4c8d8 .cfa: x29 64 +
STACK CFI 4c8f0 .cfa: sp 176 +
STACK CFI 4c904 .cfa: sp 0 +
STACK CFI 4c908 .cfa: x29 64 +
STACK CFI 4c934 .cfa: sp 176 +
STACK CFI 4c948 .cfa: sp 0 +
STACK CFI 4c94c .cfa: x29 64 +
STACK CFI 4c960 .cfa: sp 176 +
STACK CFI 4c974 .cfa: sp 0 +
STACK CFI 4c978 .cfa: x29 64 +
STACK CFI INIT 4c998 228 .cfa: sp 0 +
STACK CFI INIT 4cbc0 2dc .cfa: sp 0 +
STACK CFI INIT 4ce9c 53c .cfa: sp 0 +
STACK CFI INIT 4d3d8 78 .cfa: sp 0 +
STACK CFI 4d3dc .cfa: sp 48 +
STACK CFI 4d3e8 .cfa: x29 48 + x19: .cfa -8 + ^ x20: .cfa -16 + ^ x21: .cfa -24 + ^ x22: .cfa -32 + ^ .ra: .cfa -40 + ^ x29: .cfa -48 + ^
STACK CFI 4d430 .cfa: sp 48 +
STACK CFI 4d43c .cfa: sp 0 +
STACK CFI 4d440 .cfa: sp 48 +
STACK CFI 4d44c .cfa: sp 0 +
STACK CFI INIT 4d450 8c .cfa: sp 0 +
STACK CFI 4d454 .cfa: sp 32 +
STACK CFI 4d45c .cfa: x29 32 + x19: .cfa -16 + ^ .ra: .cfa -24 + ^ x29: .cfa -32 + ^
STACK CFI 4d490 .cfa: sp 32 +
STACK CFI 4d498 .cfa: sp 0 +
STACK CFI 4d49c .cfa: x29 32 +
STACK CFI 4d4d0 .cfa: sp 32 +
STACK CFI 4d4d8 .cfa: sp 0 +
STACK CFI INIT 4d4dc 24 .cfa: sp 0 +
STACK CFI 4d4e0 .cfa: sp 32 +
STACK CFI 4d4e8 .cfa: x29 32 + x19: .cfa -16 + ^ .ra: .cfa -24 + ^ x29: .cfa -32 + ^
STACK CFI 4d4f4 .cfa: sp 32 +
STACK CFI 4d4fc .cfa: sp 0 +
STACK CFI INIT 4d500 150 .cfa: sp 0 +
STACK CFI 4d504 .cfa: sp 48 +
STACK CFI 4d510 .cfa: x29 48 + x19: .cfa -8 + ^ x20: .cfa -16 + ^ x21: .cfa -24 + ^ x22: .cfa -32 + ^ .ra: .cfa -40 + ^ x29: .cfa -48 + ^
STACK CFI 4d640 .cfa: sp 48 +
STACK CFI 4d64c .cfa: sp 0 +
STACK CFI INIT 4d650 68 .cfa: sp 0 +
STACK CFI 4d654 .cfa: sp 64 +
STACK CFI 4d660 .cfa: x29 32 + x19: .cfa -16 + ^ .ra: .cfa -24 + ^ x29: .cfa -32 + ^
STACK CFI 4d6a4 .cfa: sp 64 +
STACK CFI 4d6b0 .cfa: sp 0 +
STACK CFI 4d6b4 .cfa: x29 32 +
STACK CFI INIT 4d6b8 90 .cfa: sp 0 +
STACK CFI 4d6bc .cfa: sp 32 +
STACK CFI 4d6c4 .cfa: x29 32 + x19: .cfa -8 + ^ x20: .cfa -16 + ^ .ra: .cfa -24 + ^ x29: .cfa -32 + ^
STACK CFI 4d6f0 .cfa: sp 32 +
STACK CFI 4d6f8 .cfa: sp 0 +
STACK CFI 4d6fc .cfa: x29 32 +
STACK CFI 4d73c .cfa: sp 32 +
STACK CFI 4d744 .cfa: sp 0 +
STACK CFI INIT 4d748 ec .cfa: sp 0 +
STACK CFI 4d74c .cfa: sp 112 +
STACK CFI 4d75c .cfa: x29 48 + x19: .cfa -8 + ^ x20: .cfa -16 + ^ x21: .cfa -32 + ^ .ra: .cfa -40 + ^ x29: .cfa -48 + ^
STACK CFI 4d81c .cfa: sp 112 +
STACK CFI 4d82c .cfa: sp 0 +
STACK CFI 4d830 .cfa: x29 48 +
STACK CFI INIT 4d834 ec .cfa: sp 0 +
STACK CFI 4d838 .cfa: sp 112 +
STACK CFI 4d848 .cfa: x29 48 + x19: .cfa -8 + ^ x20: .cfa -16 + ^ x21: .cfa -32 + ^ .ra: .cfa -40 + ^ x29: .cfa -48 + ^
STACK CFI 4d908 .cfa: sp 112 +
STACK CFI 4d918 .cfa: sp 0 +
STACK CFI 4d91c .cfa: x29 48 +
STACK CFI INIT 4d920 48 .cfa: sp 0 +
STACK CFI 4d924 .cfa: sp 32 +
STACK CFI 4d92c .cfa: x29 32 + x19: .cfa -8 + ^ x20: .cfa -16 + ^ .ra: .cfa -24 + ^ x29: .cfa -32 + ^
STACK CFI 4d950 .cfa: sp 32 +
STACK CFI 4d958 .cfa: sp 0 +
STACK CFI 4d95c .cfa: x29 32 +
STACK CFI INIT 4d968 98 .cfa: sp 0 +
STACK CFI 4d96c .cfa: sp 80 +
STACK CFI 4d978 .cfa: x29 32 + x19: .cfa -16 + ^ .ra: .cfa -24 + ^ x29: .cfa -32 + ^
STACK CFI 4d9ec .cfa: sp 80 +
STACK CFI 4d9f8 .cfa: sp 0 +
STACK CFI 4d9fc .cfa: x29 32 +
STACK CFI INIT 4da00 25c .cfa: sp 0 +
STACK CFI 4da04 .cfa: sp 112 +
STACK CFI 4da1c .cfa: x29 80 + x19: .cfa -8 + ^ x20: .cfa -16 + ^ x21: .cfa -24 + ^ x22: .cfa -32 + ^ x23: .cfa -40 + ^ x24: .cfa -48 + ^ x25: .cfa -64 + ^ .ra: .cfa -72 + ^ x29: .cfa -80 + ^
STACK CFI 4dbfc .cfa: sp 112 +
STACK CFI 4dc14 .cfa: sp 0 +
STACK CFI 4dc18 .cfa: x29 80 +
STACK CFI INIT 4dc5c 1dc .cfa: sp 0 +
STACK CFI 4dc60 .cfa: sp 96 +
STACK CFI 4dc74 .cfa: x29 64 + x19: .cfa -8 + ^ x20: .cfa -16 + ^ x21: .cfa -24 + ^ x22: .cfa -32 + ^ x23: .cfa -40 + ^ x24: .cfa -48 + ^ .ra: .cfa -56 + ^ x29: .cfa -64 + ^
STACK CFI 4ddf0 .cfa: sp 96 +
STACK CFI 4de04 .cfa: sp 0 +
STACK CFI 4de08 .cfa: x29 64 +
STACK CFI INIT 4de38 280 .cfa: sp 0 +
STACK CFI 4de3c .cfa: sp 112 +
STACK CFI 4de54 .cfa: x29 80 + x19: .cfa -8 + ^ x20: .cfa -16 + ^ x21: .cfa -24 + ^ x22: .cfa -32 + ^ x23: .cfa -40 + ^ x24: .cfa -48 + ^ x25: .cfa -64 + ^ .ra: .cfa -72 + ^ x29: .cfa -80 + ^
STACK CFI 4e058 .cfa: sp 112 +
STACK CFI 4e070 .cfa: sp 0 +
STACK CFI 4e074 .cfa: x29 80 +
STACK CFI INIT 4e0b8 204 .cfa: sp 0 +
STACK CFI 4e0bc .cfa: sp 96 +
STACK CFI 4e0d0 .cfa: x29 64 + x19: .cfa -8 + ^ x20: .cfa -16 + ^ x21: .cfa -24 + ^ x22: .cfa -32 + ^ x23: .cfa -40 + ^ x24: .cfa -48 + ^ .ra: .cfa -56 + ^ x29: .cfa -64 + ^
STACK CFI 4e274 .cfa: sp 96 +
STACK CFI 4e288 .cfa: sp 0 +
STACK CFI 4e28c .cfa: x29 64 +
STACK CFI INIT 4e2bc 35c .cfa: sp 0 +
STACK CFI 4e2c0 .cfa: sp 160 +
STACK CFI 4e2dc .cfa: x29 96 + x19: .cfa -8 + ^ x20: .cfa -16 + ^ x21: .cfa -24 + ^ x22: .cfa -32 + ^ x23: .cfa -40 + ^ x24: .cfa -48 + ^ x25: .cfa -56 + ^ x26: .cfa -64 + ^ x27: .cfa -72 + ^ x28: .cfa -80 + ^ .ra: .cfa -88 + ^ x29: .cfa -96 + ^
STACK CFI 4e5a4 .cfa: sp 160 +
STACK CFI 4e5c0 .cfa: sp 0 +
STACK CFI 4e5c4 .cfa: x29 96 +
STACK CFI INIT 4e618 310 .cfa: sp 0 +
STACK CFI 4e61c .cfa: sp 144 +
STACK CFI 4e638 .cfa: x29 96 + x19: .cfa -8 + ^ x20: .cfa -16 + ^ x21: .cfa -24 + ^ x22: .cfa -32 + ^ x23: .cfa -40 + ^ x24: .cfa -48 + ^ x25: .cfa -56 + ^ x26: .cfa -64 + ^ x27: .cfa -72 + ^ x28: .cfa -80 + ^ .ra: .cfa -88 + ^ x29: .cfa -96 + ^
STACK CFI 4e8b0 .cfa: sp 144 +
STACK CFI 4e8cc .cfa: sp 0 +
STACK CFI 4e8d0 .cfa: x29 96 +
STACK CFI INIT 4e928 2b8 .cfa: sp 0 +
STACK CFI 4e92c .cfa: sp 128 +
STACK CFI 4e944 .cfa: x29 80 + x19: .cfa -8 + ^ x20: .cfa -16 + ^ x21: .cfa -24 + ^ x22: .cfa -32 + ^ x23: .cfa -40 + ^ x24: .cfa -48 + ^ x25: .cfa -56 + ^ x26: .cfa -64 + ^ .ra: .cfa -72 + ^ x29: .cfa -80 + ^
STACK CFI 4eb38 .cfa: sp 128 +
STACK CFI 4eb50 .cfa: sp 0 +
STACK CFI 4eb54 .cfa: x29 80 +
STACK CFI 4ebc0 .cfa: sp 128 +
STACK CFI 4ebd8 .cfa: sp 0 +
STACK CFI 4ebdc .cfa: x29 80 +
STACK CFI INIT 4ebe0 258 .cfa: sp 0 +
STACK CFI 4ebe4 .cfa: sp 96 +
STACK CFI 4ebfc .cfa: x29 96 + x19: .cfa -8 + ^ x20: .cfa -16 + ^ x21: .cfa -24 + ^ x22: .cfa -32 + ^ x23: .cfa -40 + ^ x24: .cfa -48 + ^ x25: .cfa -56 + ^ x26: .cfa -64 + ^ x27: .cfa -72 + ^ x28: .cfa -80 + ^ .ra: .cfa -88 + ^ x29: .cfa -96 + ^
STACK CFI 4edf4 .cfa: sp 96 +
STACK CFI 4ee0c .cfa: sp 0 +
STACK CFI 4ee10 .cfa: x29 96 +
STACK CFI 4ee1c .cfa: sp 96 +
STACK CFI 4ee34 .cfa: sp 0 +
STACK CFI INIT 4fad8 158 .cfa: sp 0 +
STACK CFI 4fadc .cfa: sp 96 +
STACK CFI 4faf0 .cfa: x29 64 + x19: .cfa -8 + ^ x20: .cfa -16 + ^ x21: .cfa -24 + ^ x22: .cfa -32 + ^ x23: .cfa -48 + ^ .ra: .cfa -56 + ^ x29: .cfa -64 + ^
STACK CFI 4fbd4 .cfa: sp 96 +
STACK CFI 4fbe8 .cfa: sp 0 +
STACK CFI 4fbec .cfa: x29 64 +
STACK CFI INIT 4fe9c 44 .cfa: sp 0 +
STACK CFI 4fea0 .cfa: sp 32 +
STACK CFI 4fea8 .cfa: x29 32 + x19: .cfa -16 + ^ .ra: .cfa -24 + ^ x29: .cfa -32 + ^
STACK CFI 4fec4 .cfa: sp 32 +
STACK CFI 4fecc .cfa: sp 0 +
STACK CFI 4fed0 .cfa: x29 32 +
STACK CFI 4fed4 .cfa: sp 32 +
STACK CFI 4fedc .cfa: sp 0 +
STACK CFI INIT 4fee0 1d0 .cfa: sp 0 +
STACK CFI 4fee4 .cfa: sp 64 +
STACK CFI 4fef4 .cfa: x29 64 + x19: .cfa -8 + ^ x20: .cfa -16 + ^ x21: .cfa -24 + ^ x22: .cfa -32 + ^ x23: .cfa -40 + ^ x24: .cfa -48 + ^ .ra: .cfa -56 + ^ x29: .cfa -64 + ^
STACK CFI 4ffb4 .cfa: sp 64 +
STACK CFI 4ffc4 .cfa: sp 0 +
STACK CFI 4ffc8 .cfa: x29 64 +
STACK CFI INIT 500b0 17c .cfa: sp 0 +
STACK CFI INIT 5022c ac .cfa: sp 0 +
STACK CFI 50230 .cfa: sp 64 +
STACK CFI 50240 .cfa: x29 64 + x19: .cfa -8 + ^ x20: .cfa -16 + ^ x21: .cfa -24 + ^ x22: .cfa -32 + ^ x23: .cfa -48 + ^ .ra: .cfa -56 + ^ x29: .cfa -64 + ^
STACK CFI 502bc .cfa: sp 64 +
STACK CFI 502cc .cfa: sp 0 +
STACK CFI 502d0 .cfa: x29 64 +
STACK CFI INIT 502d8 110 .cfa: sp 0 +
STACK CFI 502dc .cfa: sp 64 +
STACK CFI 502ec .cfa: x29 64 + x19: .cfa -8 + ^ x20: .cfa -16 + ^ x21: .cfa -24 + ^ x22: .cfa -32 + ^ x23: .cfa -40 + ^ x24: .cfa -48 + ^ .ra: .cfa -56 + ^ x29: .cfa -64 + ^
STACK CFI 503cc .cfa: sp 64 +
STACK CFI 503dc .cfa: sp 0 +
STACK CFI 503e0 .cfa: x29 64 +
STACK CFI INIT 507a0 a0 .cfa: sp 0 +
STACK CFI 507a4 .cfa: sp 48 +
STACK CFI 507b0 .cfa: x29 48 + x19: .cfa -8 + ^ x20: .cfa -16 + ^ x21: .cfa -24 + ^ x22: .cfa -32 + ^ .ra: .cfa -40 + ^ x29: .cfa -48 + ^
STACK CFI 5081c .cfa: sp 48 +
STACK CFI 50828 .cfa: sp 0 +
STACK CFI 5082c .cfa: sp 48 +
STACK CFI 50838 .cfa: sp 0 +
STACK CFI 5083c .cfa: x29 48 +
STACK CFI INIT 5150c 15c .cfa: sp 0 +
STACK CFI 51510 .cfa: sp 96 +
STACK CFI 51524 .cfa: x29 64 + x19: .cfa -8 + ^ x20: .cfa -16 + ^ x21: .cfa -24 + ^ x22: .cfa -32 + ^ x23: .cfa -48 + ^ .ra: .cfa -56 + ^ x29: .cfa -64 + ^
STACK CFI 5160c .cfa: sp 96 +
STACK CFI 51620 .cfa: sp 0 +
STACK CFI 51624 .cfa: x29 64 +
STACK CFI INIT 51668 190 .cfa: sp 0 +
STACK CFI INIT 522f0 1f4 .cfa: sp 0 +
STACK CFI 522f4 .cfa: sp 80 +
STACK CFI 52308 .cfa: x29 80 + x19: .cfa -8 + ^ x20: .cfa -16 + ^ x21: .cfa -24 + ^ x22: .cfa -32 + ^ x23: .cfa -40 + ^ x24: .cfa -48 + ^ x25: .cfa -64 + ^ .ra: .cfa -72 + ^ x29: .cfa -80 + ^
STACK CFI 524a8 .cfa: sp 80 +
STACK CFI 524bc .cfa: sp 0 +
STACK CFI 524c0 .cfa: x29 80 +
STACK CFI 524cc .cfa: sp 80 +
STACK CFI 524e0 .cfa: sp 0 +
STACK CFI INIT 53914 124 .cfa: sp 0 +
STACK CFI 53944 .cfa: sp 32 +
STACK CFI 5394c .cfa: x29 32 + x19: .cfa -8 + ^ x20: .cfa -16 + ^ .ra: .cfa -24 + ^ x29: .cfa -32 + ^
STACK CFI 53a2c .cfa: sp 32 +
STACK CFI 53a34 .cfa: sp 0 +
STACK CFI INIT 54194 320 .cfa: sp 0 +
STACK CFI 54198 .cfa: sp 64 +
STACK CFI 541a8 .cfa: x29 64 + x19: .cfa -8 + ^ x20: .cfa -16 + ^ x21: .cfa -24 + ^ x22: .cfa -32 + ^ x23: .cfa -40 + ^ x24: .cfa -48 + ^ .ra: .cfa -56 + ^ x29: .cfa -64 + ^
STACK CFI 54224 .cfa: sp 64 +
STACK CFI 54234 .cfa: sp 0 +
STACK CFI 54238 .cfa: x29 64 +
STACK CFI 5440c .cfa: sp 64 +
STACK CFI 5441c .cfa: sp 0 +
STACK CFI 54420 .cfa: x29 64 +
STACK CFI 54430 .cfa: sp 64 +
STACK CFI 54440 .cfa: sp 0 +
STACK CFI 54444 .cfa: x29 64 +
STACK CFI INIT 544b4 a0 .cfa: sp 0 +
STACK CFI 544b8 .cfa: sp 48 +
STACK CFI 544c4 .cfa: x29 48 + x19: .cfa -8 + ^ x20: .cfa -16 + ^ x21: .cfa -24 + ^ x22: .cfa -32 + ^ .ra: .cfa -40 + ^ x29: .cfa -48 + ^
STACK CFI 54530 .cfa: sp 48 +
STACK CFI 5453c .cfa: sp 0 +
STACK CFI 54540 .cfa: sp 48 +
STACK CFI 5454c .cfa: sp 0 +
STACK CFI 54550 .cfa: x29 48 +
STACK CFI INIT 55438 160 .cfa: sp 0 +
STACK CFI 5543c .cfa: sp 64 +
STACK CFI 5544c .cfa: x29 64 + x19: .cfa -8 + ^ x20: .cfa -16 + ^ x21: .cfa -24 + ^ x22: .cfa -32 + ^ x23: .cfa -48 + ^ .ra: .cfa -56 + ^ x29: .cfa -64 + ^
STACK CFI 55544 .cfa: sp 64 +
STACK CFI 55554 .cfa: sp 0 +
STACK CFI 55558 .cfa: x29 64 +
STACK CFI INIT 55598 218 .cfa: sp 0 +
STACK CFI 5559c .cfa: sp 128 +
STACK CFI 555b8 .cfa: x29 96 + x19: .cfa -8 + ^ x20: .cfa -16 + ^ x21: .cfa -24 + ^ x22: .cfa -32 + ^ x23: .cfa -40 + ^ x24: .cfa -48 + ^ x25: .cfa -56 + ^ x26: .cfa -64 + ^ x27: .cfa -80 + ^ .ra: .cfa -88 + ^ x29: .cfa -96 + ^
STACK CFI 55734 .cfa: sp 128 +
STACK CFI 55750 .cfa: sp 0 +
STACK CFI 55754 .cfa: x29 96 +
STACK CFI INIT 56c70 e7c .cfa: sp 0 +
STACK CFI 56c74 .cfa: sp 192 +
STACK CFI 56c90 .cfa: x29 96 + x19: .cfa -8 + ^ x20: .cfa -16 + ^ x21: .cfa -24 + ^ x22: .cfa -32 + ^ x23: .cfa -40 + ^ x24: .cfa -48 + ^ x25: .cfa -56 + ^ x26: .cfa -64 + ^ x27: .cfa -72 + ^ x28: .cfa -80 + ^ .ra: .cfa -88 + ^ x29: .cfa -96 + ^
STACK CFI 579d4 .cfa: sp 192 +
STACK CFI 579f0 .cfa: sp 0 +
STACK CFI 579f4 .cfa: x29 96 +
STACK CFI INIT 57aec 1050 .cfa: sp 0 +
STACK CFI 57af0 .cfa: sp 288 +
STACK CFI 57b0c .cfa: x29 96 + x19: .cfa -8 + ^ x20: .cfa -16 + ^ x21: .cfa -24 + ^ x22: .cfa -32 + ^ x23: .cfa -40 + ^ x24: .cfa -48 + ^ x25: .cfa -56 + ^ x26: .cfa -64 + ^ x27: .cfa -72 + ^ x28: .cfa -80 + ^ .ra: .cfa -88 + ^ x29: .cfa -96 + ^
STACK CFI 58b18 .cfa: sp 288 +
STACK CFI 58b34 .cfa: sp 0 +
STACK CFI 58b38 .cfa: x29 96 +
STACK CFI INIT 58b3c 520 .cfa: sp 0 +
STACK CFI 58b40 .cfa: sp 144 +
STACK CFI 58b5c .cfa: x29 96 + x19: .cfa -8 + ^ x20: .cfa -16 + ^ x21: .cfa -24 + ^ x22: .cfa -32 + ^ x23: .cfa -40 + ^ x24: .cfa -48 + ^ x25: .cfa -56 + ^ x26: .cfa -64 + ^ x27: .cfa -72 + ^ x28: .cfa -80 + ^ .ra: .cfa -88 + ^ x29: .cfa -96 + ^
STACK CFI 59038 .cfa: sp 144 +
STACK CFI 59054 .cfa: sp 0 +
STACK CFI 59058 .cfa: x29 96 +
STACK CFI INIT 23648 bdc .cfa: sp 0 +
STACK CFI 2364c .cfa: sp 240 +
STACK CFI 23668 .cfa: x29 96 + x19: .cfa -8 + ^ x20: .cfa -16 + ^ x21: .cfa -24 + ^ x22: .cfa -32 + ^ x23: .cfa -40 + ^ x24: .cfa -48 + ^ x25: .cfa -56 + ^ x26: .cfa -64 + ^ x27: .cfa -72 + ^ x28: .cfa -80 + ^ .ra: .cfa -88 + ^ x29: .cfa -96 + ^
STACK CFI 23a44 .cfa: sp 240 +
STACK CFI 23a60 .cfa: sp 0 +
STACK CFI 23a64 .cfa: x29 96 +
STACK CFI 240c4 .cfa: sp 240 +
STACK CFI 240e0 .cfa: sp 0 +
STACK CFI 240e4 .cfa: x29 96 +
STACK CFI INIT 24294 74 .cfa: sp 0 +
STACK CFI 24298 .cfa: sp 48 +
STACK CFI 242a4 .cfa: x29 32 + x19: .cfa -8 + ^ x20: .cfa -16 + ^ .ra: .cfa -24 + ^ x29: .cfa -32 + ^
STACK CFI 242f0 .cfa: sp 48 +
STACK CFI 242fc .cfa: sp 0 +
STACK CFI 24300 .cfa: x29 32 +
STACK CFI INIT 24398 154 .cfa: sp 0 +
STACK CFI 2439c .cfa: sp 384 +
STACK CFI 243b0 .cfa: x29 64 + x19: .cfa -8 + ^ x20: .cfa -16 + ^ x21: .cfa -24 + ^ x22: .cfa -32 + ^ x23: .cfa -40 + ^ x28: .cfa -48 + ^ .ra: .cfa -56 + ^ x29: .cfa -64 + ^
STACK CFI 24494 .cfa: sp 384 +
STACK CFI 244a8 .cfa: sp 0 +
STACK CFI 244ac .cfa: x29 64 +
STACK CFI INIT 24520 12c .cfa: sp 0 +
STACK CFI 24524 .cfa: sp 80 +
STACK CFI 24538 .cfa: x29 80 + x19: .cfa -8 + ^ x20: .cfa -16 + ^ x21: .cfa -24 + ^ x22: .cfa -32 + ^ x23: .cfa -40 + ^ x24: .cfa -48 + ^ x25: .cfa -56 + ^ x26: .cfa -64 + ^ .ra: .cfa -72 + ^ x29: .cfa -80 + ^
STACK CFI 24600 .cfa: sp 80 +
STACK CFI 24614 .cfa: sp 0 +
STACK CFI 24618 .cfa: x29 80 +
STACK CFI INIT 246f0 1a4 .cfa: sp 0 +
STACK CFI 246f4 .cfa: sp 112 +
STACK CFI 2470c .cfa: x29 80 + x19: .cfa -8 + ^ x20: .cfa -16 + ^ x21: .cfa -24 + ^ x22: .cfa -32 + ^ x23: .cfa -40 + ^ x24: .cfa -48 + ^ x25: .cfa -56 + ^ x26: .cfa -64 + ^ .ra: .cfa -72 + ^ x29: .cfa -80 + ^
STACK CFI 247fc .cfa: sp 112 +
STACK CFI 24814 .cfa: sp 0 +
STACK CFI 24818 .cfa: x29 80 +
STACK CFI INIT 24894 1dc .cfa: sp 0 +
STACK CFI 24898 .cfa: sp 128 +
STACK CFI 248b4 .cfa: x29 96 + x19: .cfa -8 + ^ x20: .cfa -16 + ^ x21: .cfa -24 + ^ x22: .cfa -32 + ^ x23: .cfa -40 + ^ x24: .cfa -48 + ^ x25: .cfa -56 + ^ x26: .cfa -64 + ^ x27: .cfa -80 + ^ .ra: .cfa -88 + ^ x29: .cfa -96 + ^
STACK CFI 24a20 .cfa: sp 128 +
STACK CFI 24a3c .cfa: sp 0 +
STACK CFI 24a40 .cfa: x29 96 +
STACK CFI INIT 24a84 50 .cfa: sp 0 +
STACK CFI 24a88 .cfa: sp 32 +
STACK CFI 24a90 .cfa: x29 32 + x19: .cfa -8 + ^ x20: .cfa -16 + ^ .ra: .cfa -24 + ^ x29: .cfa -32 + ^
STACK CFI INIT 24b38 178 .cfa: sp 0 +
STACK CFI 24b3c .cfa: sp 80 +
STACK CFI 24b50 .cfa: x29 80 + x19: .cfa -8 + ^ x20: .cfa -16 + ^ x21: .cfa -24 + ^ x22: .cfa -32 + ^ x23: .cfa -40 + ^ x24: .cfa -48 + ^ x25: .cfa -64 + ^ .ra: .cfa -72 + ^ x29: .cfa -80 + ^
STACK CFI 24c7c .cfa: sp 80 +
STACK CFI 24c90 .cfa: sp 0 +
STACK CFI 24c94 .cfa: x29 80 +
STACK CFI INIT 24f98 41c .cfa: sp 0 +
STACK CFI 24f9c .cfa: sp 224 +
STACK CFI 24fb8 .cfa: x29 96 + x19: .cfa -8 + ^ x20: .cfa -16 + ^ x21: .cfa -24 + ^ x22: .cfa -32 + ^ x23: .cfa -40 + ^ x24: .cfa -48 + ^ x25: .cfa -56 + ^ x26: .cfa -64 + ^ x27: .cfa -80 + ^ .ra: .cfa -88 + ^ x29: .cfa -96 + ^
STACK CFI 252a0 .cfa: sp 224 +
STACK CFI 252bc .cfa: sp 0 +
STACK CFI 252c0 .cfa: x29 96 +
STACK CFI INIT 253b8 13c .cfa: sp 0 +
STACK CFI 253bc .cfa: sp 80 +
STACK CFI 253cc .cfa: x29 48 + x19: .cfa -8 + ^ x20: .cfa -16 + ^ x21: .cfa -24 + ^ x22: .cfa -32 + ^ .ra: .cfa -40 + ^ x29: .cfa -48 + ^
STACK CFI 254b0 .cfa: sp 80 +
STACK CFI 254c0 .cfa: sp 0 +
STACK CFI 254c4 .cfa: x29 48 +
STACK CFI INIT 254f4 a8 .cfa: sp 0 +
STACK CFI 254f8 .cfa: sp 32 +
STACK CFI 25500 .cfa: x29 32 + x19: .cfa -16 + ^ .ra: .cfa -24 + ^ x29: .cfa -32 + ^
STACK CFI 25534 .cfa: sp 32 +
STACK CFI 2553c .cfa: sp 0 +
STACK CFI 25540 .cfa: x29 32 +
STACK CFI 25544 .cfa: sp 32 +
STACK CFI 2554c .cfa: sp 0 +
STACK CFI 25550 .cfa: x29 32 +
STACK CFI INIT 25704 124 .cfa: sp 0 +
STACK CFI 25708 .cfa: sp 64 +
STACK CFI 25714 .cfa: x29 32 + x19: .cfa -8 + ^ x20: .cfa -16 + ^ .ra: .cfa -24 + ^ x29: .cfa -32 + ^
STACK CFI 257e4 .cfa: sp 64 +
STACK CFI 257f0 .cfa: sp 0 +
STACK CFI 257f4 .cfa: x29 32 +
STACK CFI INIT 259d8 1fc .cfa: sp 0 +
STACK CFI 259dc .cfa: sp 96 +
STACK CFI 259ec .cfa: x29 48 + x19: .cfa -8 + ^ x20: .cfa -16 + ^ x21: .cfa -32 + ^ .ra: .cfa -40 + ^ x29: .cfa -48 + ^
STACK CFI 25b84 .cfa: sp 96 +
STACK CFI 25b94 .cfa: sp 0 +
STACK CFI 25b98 .cfa: x29 48 +
STACK CFI INIT 25bd4 c8 .cfa: sp 0 +
STACK CFI 25bd8 .cfa: sp 32 +
STACK CFI 25be0 .cfa: x29 32 + x19: .cfa -16 + ^ .ra: .cfa -24 + ^ x29: .cfa -32 + ^
STACK CFI 25c88 .cfa: sp 32 +
STACK CFI 25c90 .cfa: sp 0 +
STACK CFI 25c94 .cfa: x29 32 +
STACK CFI INIT 25cf0 36e4 .cfa: sp 0 +
STACK CFI 25cf4 .cfa: sp 112 +
STACK CFI 25d10 .cfa: x29 96 + x19: .cfa -8 + ^ x20: .cfa -16 + ^ x21: .cfa -24 + ^ x22: .cfa -32 + ^ x23: .cfa -40 + ^ x24: .cfa -48 + ^ x25: .cfa -56 + ^ x26: .cfa -64 + ^ x27: .cfa -72 + ^ x28: .cfa -80 + ^ .ra: .cfa -88 + ^ x29: .cfa -96 + ^ v8: .cfa -104 + ^ v9: .cfa -112 + ^
STACK CFI 28700 .cfa: sp 112 +
STACK CFI 2871c .cfa: sp 0 +
STACK CFI 28720 .cfa: x29 96 +
STACK CFI INIT 293d4 158 .cfa: sp 0 +
STACK CFI 293d8 .cfa: sp 144 +
STACK CFI 293ec .cfa: x29 64 + x19: .cfa -8 + ^ x20: .cfa -16 + ^ x21: .cfa -24 + ^ x22: .cfa -32 + ^ x23: .cfa -40 + ^ x24: .cfa -48 + ^ .ra: .cfa -56 + ^ x29: .cfa -64 + ^
STACK CFI 294c0 .cfa: sp 144 +
STACK CFI 294d4 .cfa: sp 0 +
STACK CFI 294d8 .cfa: x29 64 +
STACK CFI INIT 2952c 134 .cfa: sp 0 +
STACK CFI 29530 .cfa: sp 80 +
STACK CFI 29540 .cfa: x29 48 + x19: .cfa -8 + ^ x20: .cfa -16 + ^ x21: .cfa -24 + ^ x22: .cfa -32 + ^ .ra: .cfa -40 + ^ x29: .cfa -48 + ^
STACK CFI 29644 .cfa: sp 80 +
STACK CFI 29654 .cfa: sp 0 +
STACK CFI 29658 .cfa: x29 48 +
STACK CFI INIT 29880 184 .cfa: sp 0 +
STACK CFI 29884 .cfa: sp 160 +
STACK CFI 29894 .cfa: x29 48 + x19: .cfa -8 + ^ x20: .cfa -16 + ^ x21: .cfa -32 + ^ .ra: .cfa -40 + ^ x29: .cfa -48 + ^
STACK CFI 299a8 .cfa: sp 160 +
STACK CFI 299b8 .cfa: sp 0 +
STACK CFI 299bc .cfa: x29 48 +
STACK CFI INIT 29a6c 148 .cfa: sp 0 +
STACK CFI 29a70 .cfa: sp 96 +
STACK CFI 29a80 .cfa: x29 48 + x19: .cfa -8 + ^ x20: .cfa -16 + ^ x21: .cfa -32 + ^ .ra: .cfa -40 + ^ x29: .cfa -48 + ^
STACK CFI 29b68 .cfa: sp 96 +
STACK CFI 29b78 .cfa: sp 0 +
STACK CFI 29b7c .cfa: x29 48 +
STACK CFI INIT 29bfc 6c .cfa: sp 0 +
STACK CFI 29c00 .cfa: sp 32 +
STACK CFI 29c08 .cfa: x29 32 + x19: .cfa -16 + ^ .ra: .cfa -24 + ^ x29: .cfa -32 + ^
STACK CFI 29c58 .cfa: sp 32 +
STACK CFI 29c60 .cfa: sp 0 +
STACK CFI 29c64 .cfa: x29 32 +
STACK CFI INIT 29c6c 6c .cfa: sp 0 +
STACK CFI 29c70 .cfa: sp 32 +
STACK CFI 29c78 .cfa: x29 32 + x19: .cfa -16 + ^ .ra: .cfa -24 + ^ x29: .cfa -32 + ^
STACK CFI 29cc8 .cfa: sp 32 +
STACK CFI 29cd0 .cfa: sp 0 +
STACK CFI 29cd4 .cfa: x29 32 +
STACK CFI INIT 2a308 74 .cfa: sp 0 +
STACK CFI 2a30c .cfa: sp 48 +
STACK CFI 2a318 .cfa: x29 32 + x19: .cfa -8 + ^ x20: .cfa -16 + ^ .ra: .cfa -24 + ^ x29: .cfa -32 + ^
STACK CFI 2a364 .cfa: sp 48 +
STACK CFI 2a370 .cfa: sp 0 +
STACK CFI 2a374 .cfa: x29 32 +
STACK CFI INIT 2a37c 104 .cfa: sp 0 +
STACK CFI 2a380 .cfa: sp 112 +
STACK CFI 2a38c .cfa: x29 32 + x19: .cfa -8 + ^ x20: .cfa -16 + ^ .ra: .cfa -24 + ^ x29: .cfa -32 + ^
STACK CFI 2a450 .cfa: sp 112 +
STACK CFI 2a45c .cfa: sp 0 +
STACK CFI 2a460 .cfa: x29 32 +
STACK CFI INIT 2a5e0 2f8 .cfa: sp 0 +
STACK CFI 2a5e4 .cfa: sp 48 +
STACK CFI 2a5f0 .cfa: x29 48 + x19: .cfa -8 + ^ x20: .cfa -16 + ^ x21: .cfa -32 + ^ .ra: .cfa -40 + ^ x29: .cfa -48 + ^
STACK CFI 2a6c0 .cfa: sp 48 +
STACK CFI 2a6cc .cfa: sp 0 +
STACK CFI 2a6d0 .cfa: x29 48 +
STACK CFI INIT 2a8d8 c4f0 .cfa: sp 0 +
STACK CFI 2a8dc .cfa: sp 96 +
STACK CFI 2a8f4 .cfa: x29 96 + x19: .cfa -8 + ^ x20: .cfa -16 + ^ x21: .cfa -24 + ^ x22: .cfa -32 + ^ x23: .cfa -40 + ^ x24: .cfa -48 + ^ x25: .cfa -56 + ^ x26: .cfa -64 + ^ x27: .cfa -72 + ^ x28: .cfa -80 + ^ .ra: .cfa -88 + ^ x29: .cfa -96 + ^
STACK CFI 33d58 .cfa: sp 96 +
STACK CFI 33d70 .cfa: sp 0 +
STACK CFI 33d74 .cfa: x29 96 +
STACK CFI INIT 36dc8 124 .cfa: sp 0 +
STACK CFI 36dcc .cfa: sp 80 +
STACK CFI 36de0 .cfa: x29 80 + x19: .cfa -8 + ^ x20: .cfa -16 + ^ x21: .cfa -24 + ^ x22: .cfa -32 + ^ x23: .cfa -40 + ^ x24: .cfa -48 + ^ x25: .cfa -56 + ^ x26: .cfa -64 + ^ .ra: .cfa -72 + ^ x29: .cfa -80 + ^
STACK CFI 36e74 .cfa: sp 80 +
STACK CFI 36e88 .cfa: sp 0 +
STACK CFI 36e8c .cfa: x29 80 +
STACK CFI INIT 36eec 150 .cfa: sp 0 +
STACK CFI 36ef0 .cfa: sp 80 +
STACK CFI 36f04 .cfa: x29 80 + x19: .cfa -8 + ^ x20: .cfa -16 + ^ x21: .cfa -24 + ^ x22: .cfa -32 + ^ x23: .cfa -40 + ^ x24: .cfa -48 + ^ x25: .cfa -56 + ^ x26: .cfa -64 + ^ .ra: .cfa -72 + ^ x29: .cfa -80 + ^
STACK CFI 36fb4 .cfa: sp 80 +
STACK CFI 36fc8 .cfa: sp 0 +
STACK CFI 36fcc .cfa: x29 80 +
STACK CFI INIT 3703c 298 .cfa: sp 0 +
STACK CFI 37040 .cfa: sp 144 +
STACK CFI 37058 .cfa: x29 80 + x19: .cfa -8 + ^ x20: .cfa -16 + ^ x21: .cfa -24 + ^ x22: .cfa -32 + ^ x23: .cfa -40 + ^ x24: .cfa -48 + ^ x25: .cfa -64 + ^ .ra: .cfa -72 + ^ x29: .cfa -80 + ^
STACK CFI 3723c .cfa: sp 144 +
STACK CFI 37254 .cfa: sp 0 +
STACK CFI 37258 .cfa: x29 80 +
STACK CFI INIT 37408 ae8 .cfa: sp 0 +
STACK CFI 3740c .cfa: sp 160 +
STACK CFI 37424 .cfa: x29 64 + x19: .cfa -8 + ^ x20: .cfa -16 + ^ x21: .cfa -24 + ^ x22: .cfa -32 + ^ x23: .cfa -40 + ^ x24: .cfa -48 + ^ .ra: .cfa -56 + ^ x29: .cfa -64 + ^ v8: .cfa -80 + ^
STACK CFI 37990 .cfa: sp 160 +
STACK CFI 379a8 .cfa: sp 0 +
STACK CFI 379ac .cfa: x29 64 +
STACK CFI INIT 38090 f08 .cfa: sp 0 +
STACK CFI 38094 .cfa: sp 112 +
STACK CFI 380b0 .cfa: x29 96 + x19: .cfa -8 + ^ x20: .cfa -16 + ^ x21: .cfa -24 + ^ x22: .cfa -32 + ^ x23: .cfa -40 + ^ x24: .cfa -48 + ^ x25: .cfa -56 + ^ x26: .cfa -64 + ^ x27: .cfa -72 + ^ x28: .cfa -80 + ^ .ra: .cfa -88 + ^ x29: .cfa -96 + ^ v8: .cfa -104 + ^ v9: .cfa -112 + ^
STACK CFI 38ea4 .cfa: sp 112 +
STACK CFI 38ec0 .cfa: sp 0 +
STACK CFI 38ec4 .cfa: x29 96 +
STACK CFI INIT 38f98 1518 .cfa: sp 0 +
STACK CFI 38f9c .cfa: sp 432 +
STACK CFI 38fc0 .cfa: x29 96 + x19: .cfa -8 + ^ x20: .cfa -16 + ^ x21: .cfa -24 + ^ x22: .cfa -32 + ^ x23: .cfa -40 + ^ x24: .cfa -48 + ^ x25: .cfa -56 + ^ x26: .cfa -64 + ^ x27: .cfa -72 + ^ x28: .cfa -80 + ^ .ra: .cfa -88 + ^ x29: .cfa -96 + ^ v8: .cfa -104 + ^ v9: .cfa -112 + ^ v10: .cfa -128 + ^
STACK CFI 39218 .cfa: sp 432 +
STACK CFI 3923c .cfa: sp 0 +
STACK CFI 39240 .cfa: x29 96 +
STACK CFI INIT 3a4b0 438 .cfa: sp 0 +
STACK CFI 3a4b4 .cfa: sp 192 +
STACK CFI 3a4d0 .cfa: x29 96 + x19: .cfa -8 + ^ x20: .cfa -16 + ^ x21: .cfa -24 + ^ x22: .cfa -32 + ^ x23: .cfa -40 + ^ x24: .cfa -48 + ^ x25: .cfa -56 + ^ x26: .cfa -64 + ^ x27: .cfa -72 + ^ x28: .cfa -80 + ^ .ra: .cfa -88 + ^ x29: .cfa -96 + ^
STACK CFI 3a840 .cfa: sp 192 +
STACK CFI 3a85c .cfa: sp 0 +
STACK CFI 3a860 .cfa: x29 96 +
STACK CFI INIT 3aa08 50 .cfa: sp 0 +
STACK CFI 3aa0c .cfa: sp 32 +
STACK CFI 3aa14 .cfa: x29 32 + x19: .cfa -8 + ^ x20: .cfa -16 + ^ .ra: .cfa -24 + ^ x29: .cfa -32 + ^
STACK CFI INIT 3ade8 17c .cfa: sp 0 +
STACK CFI 3adec .cfa: sp 48 +
STACK CFI 3adf8 .cfa: x29 48 + x19: .cfa -8 + ^ x20: .cfa -16 + ^ x21: .cfa -24 + ^ x22: .cfa -32 + ^ .ra: .cfa -40 + ^ x29: .cfa -48 + ^
STACK CFI 3af24 .cfa: sp 48 +
STACK CFI 3af30 .cfa: sp 0 +
STACK CFI 3af34 .cfa: x29 48 +
STACK CFI INIT 3af64 40 .cfa: sp 0 +
STACK CFI 3af68 .cfa: sp 32 +
STACK CFI 3af70 .cfa: x29 32 + x19: .cfa -16 + ^ .ra: .cfa -24 + ^ x29: .cfa -32 + ^
STACK CFI 3af94 .cfa: sp 32 +
STACK CFI 3af9c .cfa: sp 0 +
STACK CFI 3afa0 .cfa: x29 32 +
STACK CFI INIT 3afa8 2a94 .cfa: sp 0 +
STACK CFI 3afac .cfa: sp 400 +
STACK CFI 3afc8 .cfa: x29 96 + x19: .cfa -8 + ^ x20: .cfa -16 + ^ x21: .cfa -24 + ^ x22: .cfa -32 + ^ x23: .cfa -40 + ^ x24: .cfa -48 + ^ x25: .cfa -56 + ^ x26: .cfa -64 + ^ x27: .cfa -72 + ^ x28: .cfa -80 + ^ .ra: .cfa -88 + ^ x29: .cfa -96 + ^
STACK CFI 3b2b0 .cfa: sp 400 +
STACK CFI 3b2cc .cfa: sp 0 +
STACK CFI 3b2d0 .cfa: x29 96 +
STACK CFI INIT 3dad8 6a8 .cfa: sp 0 +
STACK CFI 3dadc .cfa: sp 288 +
STACK CFI 3db04 .cfa: x29 96 + x19: .cfa -8 + ^ x20: .cfa -16 + ^ x21: .cfa -24 + ^ x22: .cfa -32 + ^ x23: .cfa -40 + ^ x24: .cfa -48 + ^ x25: .cfa -56 + ^ x26: .cfa -64 + ^ x27: .cfa -72 + ^ x28: .cfa -80 + ^ .ra: .cfa -88 + ^ x29: .cfa -96 + ^ v8: .cfa -104 + ^ v9: .cfa -112 + ^ v10: .cfa -120 + ^ v11: .cfa -128 + ^ v12: .cfa -144 + ^
STACK CFI 3e014 .cfa: sp 288 +
STACK CFI 3e03c .cfa: sp 0 +
STACK CFI 3e040 .cfa: x29 96 +
STACK CFI INIT 3e4ac 25c .cfa: sp 0 +
STACK CFI 3e4b0 .cfa: sp 80 +
STACK CFI 3e4c4 .cfa: x29 80 + x19: .cfa -8 + ^ x20: .cfa -16 + ^ x21: .cfa -24 + ^ x22: .cfa -32 + ^ x23: .cfa -40 + ^ x24: .cfa -48 + ^ x25: .cfa -64 + ^ .ra: .cfa -72 + ^ x29: .cfa -80 + ^
STACK CFI 3e5e4 .cfa: sp 80 +
STACK CFI 3e5f8 .cfa: sp 0 +
STACK CFI 3e5fc .cfa: x29 80 +
STACK CFI INIT 3e7f4 178 .cfa: sp 0 +
STACK CFI 3e7f8 .cfa: sp 48 +
STACK CFI 3e804 .cfa: x29 48 + x19: .cfa -8 + ^ x20: .cfa -16 + ^ x21: .cfa -32 + ^ .ra: .cfa -40 + ^ x29: .cfa -48 + ^
STACK CFI 3e958 .cfa: sp 48 +
STACK CFI 3e964 .cfa: sp 0 +
STACK CFI 3e968 .cfa: x29 48 +
STACK CFI INIT 3e990 acc .cfa: sp 0 +
STACK CFI 3e994 .cfa: sp 176 +
STACK CFI 3e9b0 .cfa: x29 96 + x19: .cfa -8 + ^ x20: .cfa -16 + ^ x21: .cfa -24 + ^ x22: .cfa -32 + ^ x23: .cfa -40 + ^ x24: .cfa -48 + ^ x25: .cfa -56 + ^ x26: .cfa -64 + ^ x27: .cfa -80 + ^ .ra: .cfa -88 + ^ x29: .cfa -96 + ^
STACK CFI 3f380 .cfa: sp 176 +
STACK CFI 3f39c .cfa: sp 0 +
STACK CFI 3f3a0 .cfa: x29 96 +
STACK CFI INIT 3f45c c10 .cfa: sp 0 +
STACK CFI 3f460 .cfa: sp 352 +
STACK CFI 3f480 .cfa: x29 96 + x19: .cfa -8 + ^ x20: .cfa -16 + ^ x21: .cfa -24 + ^ x22: .cfa -32 + ^ x23: .cfa -40 + ^ x24: .cfa -48 + ^ x25: .cfa -56 + ^ x26: .cfa -64 + ^ x27: .cfa -72 + ^ x28: .cfa -80 + ^ .ra: .cfa -88 + ^ x29: .cfa -96 + ^ v8: .cfa -112 + ^
STACK CFI 3ff28 .cfa: sp 352 +
STACK CFI 3ff48 .cfa: sp 0 +
STACK CFI 3ff4c .cfa: x29 96 +
STACK CFI INIT 4006c 704 .cfa: sp 0 +
STACK CFI 40070 .cfa: sp 96 +
STACK CFI 40088 .cfa: x29 96 + x19: .cfa -8 + ^ x20: .cfa -16 + ^ x21: .cfa -24 + ^ x22: .cfa -32 + ^ x23: .cfa -40 + ^ x24: .cfa -48 + ^ x25: .cfa -56 + ^ x26: .cfa -64 + ^ x27: .cfa -72 + ^ x28: .cfa -80 + ^ .ra: .cfa -88 + ^ x29: .cfa -96 + ^
STACK CFI 405c0 .cfa: sp 96 +
STACK CFI 405d8 .cfa: sp 0 +
STACK CFI 405dc .cfa: x29 96 +
STACK CFI INIT 407ac 3d0 .cfa: sp 0 +
STACK CFI 407b0 .cfa: sp 96 +
STACK CFI 407c8 .cfa: x29 96 + x19: .cfa -8 + ^ x20: .cfa -16 + ^ x21: .cfa -24 + ^ x22: .cfa -32 + ^ x23: .cfa -40 + ^ x24: .cfa -48 + ^ x25: .cfa -56 + ^ x26: .cfa -64 + ^ x28: .cfa -80 + ^ .ra: .cfa -88 + ^ x29: .cfa -96 + ^
STACK CFI 40a88 .cfa: sp 96 +
STACK CFI 40aa0 .cfa: sp 0 +
STACK CFI 40aa4 .cfa: x29 96 +
STACK CFI INIT 40b7c 4fc .cfa: sp 0 +
STACK CFI 40b80 .cfa: sp 80 +
STACK CFI 40b94 .cfa: x29 80 + x19: .cfa -8 + ^ x20: .cfa -16 + ^ x21: .cfa -24 + ^ x22: .cfa -32 + ^ x23: .cfa -40 + ^ x24: .cfa -48 + ^ x28: .cfa -64 + ^ .ra: .cfa -72 + ^ x29: .cfa -80 + ^
STACK CFI 40cec .cfa: sp 80 +
STACK CFI 40d00 .cfa: sp 0 +
STACK CFI 40d04 .cfa: x29 80 +
STACK CFI INIT 41078 3d0 .cfa: sp 0 +
STACK CFI 4107c .cfa: sp 96 +
STACK CFI 41094 .cfa: x29 96 + x19: .cfa -8 + ^ x20: .cfa -16 + ^ x21: .cfa -24 + ^ x22: .cfa -32 + ^ x23: .cfa -40 + ^ x24: .cfa -48 + ^ x25: .cfa -56 + ^ x26: .cfa -64 + ^ x28: .cfa -80 + ^ .ra: .cfa -88 + ^ x29: .cfa -96 + ^
STACK CFI 4136c .cfa: sp 96 +
STACK CFI 41384 .cfa: sp 0 +
STACK CFI 41388 .cfa: x29 96 +
STACK CFI INIT 414f8 1cc .cfa: sp 0 +
STACK CFI 414fc .cfa: sp 128 +
STACK CFI 4150c .cfa: x29 48 + x19: .cfa -8 + ^ x20: .cfa -16 + ^ x21: .cfa -32 + ^ .ra: .cfa -40 + ^ x29: .cfa -48 + ^
STACK CFI 41648 .cfa: sp 128 +
STACK CFI 41658 .cfa: sp 0 +
STACK CFI 4165c .cfa: x29 48 +
STACK CFI INIT 417c0 204 .cfa: sp 0 +
STACK CFI 417c4 .cfa: sp 128 +
STACK CFI 417d8 .cfa: x29 64 + x19: .cfa -8 + ^ x20: .cfa -16 + ^ x21: .cfa -24 + ^ x22: .cfa -32 + ^ x23: .cfa -40 + ^ x24: .cfa -48 + ^ .ra: .cfa -56 + ^ x29: .cfa -64 + ^
STACK CFI 418fc .cfa: sp 128 +
STACK CFI 41910 .cfa: sp 0 +
STACK CFI 41914 .cfa: x29 64 +
STACK CFI INIT 41c80 1d0 .cfa: sp 0 +
STACK CFI 41c84 .cfa: sp 128 +
STACK CFI 41c98 .cfa: x29 64 + x19: .cfa -8 + ^ x20: .cfa -16 + ^ x21: .cfa -24 + ^ x22: .cfa -32 + ^ x23: .cfa -48 + ^ .ra: .cfa -56 + ^ x29: .cfa -64 + ^
STACK CFI 41e10 .cfa: sp 128 +
STACK CFI 41e24 .cfa: sp 0 +
STACK CFI 41e28 .cfa: x29 64 +
STACK CFI INIT 42164 1c4 .cfa: sp 0 +
STACK CFI 42168 .cfa: sp 112 +
STACK CFI 42178 .cfa: x29 48 + x19: .cfa -8 + ^ x20: .cfa -16 + ^ x21: .cfa -24 + ^ x22: .cfa -32 + ^ .ra: .cfa -40 + ^ x29: .cfa -48 + ^
STACK CFI 422ec .cfa: sp 112 +
STACK CFI 422fc .cfa: sp 0 +
STACK CFI 42300 .cfa: x29 48 +
STACK CFI INIT 42350 168 .cfa: sp 0 +
STACK CFI 42354 .cfa: sp 384 +
STACK CFI 42368 .cfa: x29 64 + x19: .cfa -8 + ^ x20: .cfa -16 + ^ x21: .cfa -24 + ^ x22: .cfa -32 + ^ x23: .cfa -40 + ^ x28: .cfa -48 + ^ .ra: .cfa -56 + ^ x29: .cfa -64 + ^
STACK CFI 42460 .cfa: sp 384 +
STACK CFI 42474 .cfa: sp 0 +
STACK CFI 42478 .cfa: x29 64 +
STACK CFI INIT 424b8 198 .cfa: sp 0 +
STACK CFI 424bc .cfa: sp 96 +
STACK CFI 424cc .cfa: x29 48 + x19: .cfa -8 + ^ x20: .cfa -16 + ^ x21: .cfa -32 + ^ .ra: .cfa -40 + ^ x29: .cfa -48 + ^
STACK CFI 425a8 .cfa: sp 96 +
STACK CFI 425b8 .cfa: sp 0 +
STACK CFI 425bc .cfa: x29 48 +
STACK CFI INIT 426ac 10a8 .cfa: sp 0 +
STACK CFI 426b0 .cfa: sp 96 +
STACK CFI 426c8 .cfa: x29 96 + x19: .cfa -8 + ^ x20: .cfa -16 + ^ x21: .cfa -24 + ^ x22: .cfa -32 + ^ x23: .cfa -40 + ^ x24: .cfa -48 + ^ x25: .cfa -56 + ^ x26: .cfa -64 + ^ x27: .cfa -72 + ^ x28: .cfa -80 + ^ .ra: .cfa -88 + ^ x29: .cfa -96 + ^
STACK CFI 4345c .cfa: sp 96 +
STACK CFI 43474 .cfa: sp 0 +
STACK CFI 43478 .cfa: x29 96 +
STACK CFI INIT 4377c 74 .cfa: sp 0 +
STACK CFI 43780 .cfa: sp 48 +
STACK CFI 4378c .cfa: x29 32 + x19: .cfa -8 + ^ x20: .cfa -16 + ^ .ra: .cfa -24 + ^ x29: .cfa -32 + ^
STACK CFI 437d8 .cfa: sp 48 +
STACK CFI 437e4 .cfa: sp 0 +
STACK CFI 437e8 .cfa: x29 32 +
STACK CFI INIT 481f4 88c .cfa: sp 0 +
STACK CFI 481f8 .cfa: sp 96 +
STACK CFI 48210 .cfa: x29 96 + x19: .cfa -8 + ^ x20: .cfa -16 + ^ x21: .cfa -24 + ^ x22: .cfa -32 + ^ x23: .cfa -40 + ^ x24: .cfa -48 + ^ x25: .cfa -56 + ^ x26: .cfa -64 + ^ x27: .cfa -72 + ^ x28: .cfa -80 + ^ .ra: .cfa -88 + ^ x29: .cfa -96 + ^
STACK CFI 4898c .cfa: sp 96 +
STACK CFI 489a4 .cfa: sp 0 +
STACK CFI 489a8 .cfa: x29 96 +
STACK CFI INIT 48b7c 11c .cfa: sp 0 +
STACK CFI 48b80 .cfa: sp 80 +
STACK CFI 48b8c .cfa: x29 32 + x19: .cfa -8 + ^ x20: .cfa -16 + ^ .ra: .cfa -24 + ^ x29: .cfa -32 + ^
STACK CFI 48c50 .cfa: sp 80 +
STACK CFI 48c5c .cfa: sp 0 +
STACK CFI 48c60 .cfa: x29 32 +
STACK CFI INIT 48f38 134 .cfa: sp 0 +
STACK CFI 48f3c .cfa: sp 80 +
STACK CFI 48f48 .cfa: x29 32 + x19: .cfa -8 + ^ x20: .cfa -16 + ^ .ra: .cfa -24 + ^ x29: .cfa -32 + ^
STACK CFI 48f78 .cfa: sp 80 +
STACK CFI 48f84 .cfa: sp 0 +
STACK CFI 48f88 .cfa: x29 32 +
STACK CFI INIT 4906c 78 .cfa: sp 0 +
STACK CFI 49070 .cfa: sp 32 +
STACK CFI 49078 .cfa: x29 32 + x19: .cfa -8 + ^ x20: .cfa -16 + ^ .ra: .cfa -24 + ^ x29: .cfa -32 + ^
STACK CFI 49084 .cfa: sp 32 +
STACK CFI 4908c .cfa: sp 0 +
STACK CFI 49090 .cfa: x29 32 +
STACK CFI INIT 490e4 74 .cfa: sp 0 +
STACK CFI 490e8 .cfa: sp 48 +
STACK CFI 490f4 .cfa: x29 32 + x19: .cfa -8 + ^ x20: .cfa -16 + ^ .ra: .cfa -24 + ^ x29: .cfa -32 + ^
STACK CFI 49140 .cfa: sp 48 +
STACK CFI 4914c .cfa: sp 0 +
STACK CFI 49150 .cfa: x29 32 +
STACK CFI INIT 491bc 224 .cfa: sp 0 +
STACK CFI 491c0 .cfa: sp 128 +
STACK CFI 491d0 .cfa: x29 48 + x19: .cfa -8 + ^ x20: .cfa -16 + ^ x21: .cfa -32 + ^ .ra: .cfa -40 + ^ x29: .cfa -48 + ^
STACK CFI 49280 .cfa: sp 128 +
STACK CFI 49290 .cfa: sp 0 +
STACK CFI 49294 .cfa: x29 48 +
STACK CFI INIT 4947c 300 .cfa: sp 0 +
STACK CFI 49480 .cfa: sp 144 +
STACK CFI 49494 .cfa: x29 64 + x19: .cfa -8 + ^ x20: .cfa -16 + ^ x21: .cfa -24 + ^ x22: .cfa -32 + ^ x23: .cfa -48 + ^ .ra: .cfa -56 + ^ x29: .cfa -64 + ^
STACK CFI 49628 .cfa: sp 144 +
STACK CFI 4963c .cfa: sp 0 +
STACK CFI 49640 .cfa: x29 64 +
STACK CFI INIT 497d0 264 .cfa: sp 0 +
STACK CFI 497d4 .cfa: sp 128 +
STACK CFI 497e4 .cfa: x29 48 + x19: .cfa -8 + ^ x20: .cfa -16 + ^ x21: .cfa -32 + ^ .ra: .cfa -40 + ^ x29: .cfa -48 + ^
STACK CFI 498dc .cfa: sp 128 +
STACK CFI 498ec .cfa: sp 0 +
STACK CFI 498f0 .cfa: x29 48 +
STACK CFI INIT 49adc 1b8 .cfa: sp 0 +
STACK CFI 49ae0 .cfa: sp 160 +
STACK CFI 49afc .cfa: x29 72 + x19: .cfa -8 + ^ x20: .cfa -16 + ^ x21: .cfa -24 + ^ x22: .cfa -32 + ^ x23: .cfa -40 + ^ x24: .cfa -48 + ^ x25: .cfa -56 + ^ .ra: .cfa -64 + ^ x29: .cfa -72 + ^ v8: .cfa -80 + ^
STACK CFI 49b80 .cfa: sp 160 +
STACK CFI 49b9c .cfa: sp 0 +
STACK CFI 49ba0 .cfa: x29 72 +
STACK CFI INIT 49c94 16c .cfa: sp 0 +
STACK CFI 49c98 .cfa: sp 64 +
STACK CFI 49ca8 .cfa: x29 48 + x19: .cfa -8 + ^ x20: .cfa -16 + ^ x21: .cfa -24 + ^ x22: .cfa -32 + ^ .ra: .cfa -40 + ^ x29: .cfa -48 + ^
STACK CFI 49da0 .cfa: sp 64 +
STACK CFI 49db0 .cfa: sp 0 +
STACK CFI 49db4 .cfa: x29 48 +
STACK CFI INIT 49e00 2e4 .cfa: sp 0 +
STACK CFI 49e04 .cfa: sp 144 +
STACK CFI 49e18 .cfa: x29 64 + x19: .cfa -8 + ^ x20: .cfa -16 + ^ x21: .cfa -24 + ^ x22: .cfa -32 + ^ x23: .cfa -48 + ^ .ra: .cfa -56 + ^ x29: .cfa -64 + ^
STACK CFI 49f90 .cfa: sp 144 +
STACK CFI 49fa4 .cfa: sp 0 +
STACK CFI 49fa8 .cfa: x29 64 +
STACK CFI INIT 4a0e4 2e4 .cfa: sp 0 +
STACK CFI 4a0e8 .cfa: sp 144 +
STACK CFI 4a0fc .cfa: x29 64 + x19: .cfa -8 + ^ x20: .cfa -16 + ^ x21: .cfa -24 + ^ x22: .cfa -32 + ^ x23: .cfa -48 + ^ .ra: .cfa -56 + ^ x29: .cfa -64 + ^
STACK CFI 4a274 .cfa: sp 144 +
STACK CFI 4a288 .cfa: sp 0 +
STACK CFI 4a28c .cfa: x29 64 +
STACK CFI INIT 4a3c8 2a0 .cfa: sp 0 +
STACK CFI 4a3cc .cfa: sp 144 +
STACK CFI 4a3e0 .cfa: x29 64 + x19: .cfa -8 + ^ x20: .cfa -16 + ^ x21: .cfa -24 + ^ x22: .cfa -32 + ^ x23: .cfa -48 + ^ .ra: .cfa -56 + ^ x29: .cfa -64 + ^
STACK CFI 4a514 .cfa: sp 144 +
STACK CFI 4a528 .cfa: sp 0 +
STACK CFI 4a52c .cfa: x29 64 +
STACK CFI INIT 4a668 2f0 .cfa: sp 0 +
STACK CFI 4a66c .cfa: sp 144 +
STACK CFI 4a680 .cfa: x29 64 + x19: .cfa -8 + ^ x20: .cfa -16 + ^ x21: .cfa -24 + ^ x22: .cfa -32 + ^ x23: .cfa -48 + ^ .ra: .cfa -56 + ^ x29: .cfa -64 + ^
STACK CFI 4a804 .cfa: sp 144 +
STACK CFI 4a818 .cfa: sp 0 +
STACK CFI 4a81c .cfa: x29 64 +
STACK CFI INIT 4a958 4f4 .cfa: sp 0 +
STACK CFI 4a95c .cfa: sp 144 +
STACK CFI 4a970 .cfa: x29 64 + x19: .cfa -8 + ^ x20: .cfa -16 + ^ x21: .cfa -24 + ^ x22: .cfa -32 + ^ x23: .cfa -48 + ^ .ra: .cfa -56 + ^ x29: .cfa -64 + ^
STACK CFI 4aca4 .cfa: sp 144 +
STACK CFI 4acb8 .cfa: sp 0 +
STACK CFI 4acbc .cfa: x29 64 +
STACK CFI INIT 4ae4c 154 .cfa: sp 0 +
STACK CFI 4ae50 .cfa: sp 384 +
STACK CFI 4ae64 .cfa: x29 64 + x19: .cfa -8 + ^ x20: .cfa -16 + ^ x21: .cfa -24 + ^ x22: .cfa -32 + ^ x23: .cfa -40 + ^ x28: .cfa -48 + ^ .ra: .cfa -56 + ^ x29: .cfa -64 + ^
STACK CFI 4af48 .cfa: sp 384 +
STACK CFI 4af5c .cfa: sp 0 +
STACK CFI 4af60 .cfa: x29 64 +
STACK CFI INIT 4afb8 50c .cfa: sp 0 +
STACK CFI 4afbc .cfa: sp 64 +
STACK CFI 4afcc .cfa: x29 64 + x19: .cfa -8 + ^ x20: .cfa -16 + ^ x21: .cfa -24 + ^ x22: .cfa -32 + ^ x23: .cfa -40 + ^ x24: .cfa -48 + ^ .ra: .cfa -56 + ^ x29: .cfa -64 + ^
STACK CFI 4b0ec .cfa: sp 64 +
STACK CFI 4b0fc .cfa: sp 0 +
STACK CFI 4b100 .cfa: x29 64 +
STACK CFI 4b498 .cfa: sp 64 +
STACK CFI 4b4a8 .cfa: sp 0 +
STACK CFI 4b4ac .cfa: x29 64 +
STACK CFI INIT 4b7f4 18c .cfa: sp 0 +
STACK CFI 4b7f8 .cfa: sp 208 +
STACK CFI 4b808 .cfa: x29 48 + x19: .cfa -8 + ^ x20: .cfa -16 + ^ x21: .cfa -24 + ^ x22: .cfa -32 + ^ .ra: .cfa -40 + ^ x29: .cfa -48 + ^
STACK CFI 4b908 .cfa: sp 208 +
STACK CFI 4b918 .cfa: sp 0 +
STACK CFI 4b91c .cfa: x29 48 +
STACK CFI INIT 4b980 18c .cfa: sp 0 +
STACK CFI 4b984 .cfa: sp 80 +
STACK CFI 4b994 .cfa: x29 48 + x19: .cfa -8 + ^ x20: .cfa -16 + ^ x21: .cfa -24 + ^ x22: .cfa -32 + ^ .ra: .cfa -40 + ^ x29: .cfa -48 + ^
STACK CFI 4ba70 .cfa: sp 80 +
STACK CFI 4ba80 .cfa: sp 0 +
STACK CFI 4ba84 .cfa: x29 48 +
STACK CFI INIT 4bb88 50 .cfa: sp 0 +
STACK CFI 4bb8c .cfa: sp 32 +
STACK CFI 4bb94 .cfa: x29 32 + x19: .cfa -8 + ^ x20: .cfa -16 + ^ .ra: .cfa -24 + ^ x29: .cfa -32 + ^
STACK CFI INIT 4bc04 7c0 .cfa: sp 0 +
STACK CFI 4bc08 .cfa: sp 320 +
STACK CFI 4bc24 .cfa: x29 96 + x19: .cfa -8 + ^ x20: .cfa -16 + ^ x21: .cfa -24 + ^ x22: .cfa -32 + ^ x23: .cfa -40 + ^ x24: .cfa -48 + ^ x25: .cfa -56 + ^ x26: .cfa -64 + ^ x27: .cfa -72 + ^ x28: .cfa -80 + ^ .ra: .cfa -88 + ^ x29: .cfa -96 + ^
STACK CFI 4c274 .cfa: sp 320 +
STACK CFI 4c290 .cfa: sp 0 +
STACK CFI 4c294 .cfa: x29 96 +
STACK CFI INIT 4ee38 ca0 .cfa: sp 0 +
STACK CFI 4ee3c .cfa: sp 96 +
STACK CFI 4ee54 .cfa: x29 96 + x19: .cfa -8 + ^ x20: .cfa -16 + ^ x21: .cfa -24 + ^ x22: .cfa -32 + ^ x23: .cfa -40 + ^ x24: .cfa -48 + ^ x25: .cfa -56 + ^ x26: .cfa -64 + ^ x27: .cfa -72 + ^ x28: .cfa -80 + ^ .ra: .cfa -88 + ^ x29: .cfa -96 + ^
STACK CFI 4f8f4 .cfa: sp 96 +
STACK CFI 4f90c .cfa: sp 0 +
STACK CFI 4f910 .cfa: x29 96 +
STACK CFI INIT 4fc30 26c .cfa: sp 0 +
STACK CFI 4fc34 .cfa: sp 128 +
STACK CFI 4fc44 .cfa: x29 48 + x19: .cfa -8 + ^ x20: .cfa -16 + ^ x21: .cfa -24 + ^ x22: .cfa -32 + ^ .ra: .cfa -40 + ^ x29: .cfa -48 + ^
STACK CFI 4fde8 .cfa: sp 128 +
STACK CFI 4fdf8 .cfa: sp 0 +
STACK CFI 4fdfc .cfa: x29 48 +
STACK CFI INIT 503e8 3b8 .cfa: sp 0 +
STACK CFI 503ec .cfa: sp 96 +
STACK CFI 50404 .cfa: x29 96 + x19: .cfa -8 + ^ x20: .cfa -16 + ^ x21: .cfa -24 + ^ x22: .cfa -32 + ^ x23: .cfa -40 + ^ x24: .cfa -48 + ^ x25: .cfa -56 + ^ x26: .cfa -64 + ^ x27: .cfa -72 + ^ x28: .cfa -80 + ^ .ra: .cfa -88 + ^ x29: .cfa -96 + ^
STACK CFI 50740 .cfa: sp 96 +
STACK CFI 50758 .cfa: sp 0 +
STACK CFI 5075c .cfa: x29 96 +
STACK CFI INIT 50840 ccc .cfa: sp 0 +
STACK CFI 50844 .cfa: sp 96 +
STACK CFI 5085c .cfa: x29 96 + x19: .cfa -8 + ^ x20: .cfa -16 + ^ x21: .cfa -24 + ^ x22: .cfa -32 + ^ x23: .cfa -40 + ^ x24: .cfa -48 + ^ x25: .cfa -56 + ^ x26: .cfa -64 + ^ x27: .cfa -72 + ^ x28: .cfa -80 + ^ .ra: .cfa -88 + ^ x29: .cfa -96 + ^
STACK CFI 51338 .cfa: sp 96 +
STACK CFI 51350 .cfa: sp 0 +
STACK CFI 51354 .cfa: x29 96 +
STACK CFI INIT 517f8 af8 .cfa: sp 0 +
STACK CFI 517fc .cfa: sp 96 +
STACK CFI 51814 .cfa: x29 96 + x19: .cfa -8 + ^ x20: .cfa -16 + ^ x21: .cfa -24 + ^ x22: .cfa -32 + ^ x23: .cfa -40 + ^ x24: .cfa -48 + ^ x25: .cfa -56 + ^ x26: .cfa -64 + ^ x27: .cfa -72 + ^ x28: .cfa -80 + ^ .ra: .cfa -88 + ^ x29: .cfa -96 + ^
STACK CFI 52264 .cfa: sp 96 +
STACK CFI 5227c .cfa: sp 0 +
STACK CFI 52280 .cfa: x29 96 +
STACK CFI INIT 524e4 1430 .cfa: sp 0 +
STACK CFI 524e8 .cfa: sp 96 +
STACK CFI 52500 .cfa: x29 96 + x19: .cfa -8 + ^ x20: .cfa -16 + ^ x21: .cfa -24 + ^ x22: .cfa -32 + ^ x23: .cfa -40 + ^ x24: .cfa -48 + ^ x25: .cfa -56 + ^ x26: .cfa -64 + ^ x27: .cfa -72 + ^ x28: .cfa -80 + ^ .ra: .cfa -88 + ^ x29: .cfa -96 + ^
STACK CFI 5379c .cfa: sp 96 +
STACK CFI 537b4 .cfa: sp 0 +
STACK CFI 537b8 .cfa: x29 96 +
STACK CFI INIT 53a38 75c .cfa: sp 0 +
STACK CFI 53a3c .cfa: sp 368 +
STACK CFI 53a58 .cfa: x29 96 + x19: .cfa -8 + ^ x20: .cfa -16 + ^ x21: .cfa -24 + ^ x22: .cfa -32 + ^ x23: .cfa -40 + ^ x24: .cfa -48 + ^ x25: .cfa -56 + ^ x26: .cfa -64 + ^ x27: .cfa -72 + ^ x28: .cfa -80 + ^ .ra: .cfa -88 + ^ x29: .cfa -96 + ^
STACK CFI 53b0c .cfa: sp 368 +
STACK CFI 53b28 .cfa: sp 0 +
STACK CFI 53b2c .cfa: x29 96 +
STACK CFI 53b80 .cfa: sp 368 +
STACK CFI 53b9c .cfa: sp 0 +
STACK CFI 53ba0 .cfa: x29 96 +
STACK CFI INIT 54554 ee4 .cfa: sp 0 +
STACK CFI 54558 .cfa: sp 96 +
STACK CFI 54570 .cfa: x29 96 + x19: .cfa -8 + ^ x20: .cfa -16 + ^ x21: .cfa -24 + ^ x22: .cfa -32 + ^ x23: .cfa -40 + ^ x24: .cfa -48 + ^ x25: .cfa -56 + ^ x26: .cfa -64 + ^ x27: .cfa -72 + ^ x28: .cfa -80 + ^ .ra: .cfa -88 + ^ x29: .cfa -96 + ^
STACK CFI 55230 .cfa: sp 96 +
STACK CFI 55248 .cfa: sp 0 +
STACK CFI 5524c .cfa: x29 96 +
STACK CFI INIT 557b0 14c0 .cfa: sp 0 +
STACK CFI 557b4 .cfa: sp 112 +
STACK CFI 557d0 .cfa: x29 96 + x19: .cfa -8 + ^ x20: .cfa -16 + ^ x21: .cfa -24 + ^ x22: .cfa -32 + ^ x23: .cfa -40 + ^ x24: .cfa -48 + ^ x25: .cfa -56 + ^ x26: .cfa -64 + ^ x27: .cfa -72 + ^ x28: .cfa -80 + ^ .ra: .cfa -88 + ^ x29: .cfa -96 + ^ v8: .cfa -112 + ^
STACK CFI 55bb0 .cfa: sp 112 +
STACK CFI 55bcc .cfa: sp 0 +
STACK CFI 55bd0 .cfa: x29 96 +
STACK CFI INIT 5905c 9a0 .cfa: sp 0 +
STACK CFI 59060 .cfa: sp 144 +
STACK CFI 59078 .cfa: x29 80 + x19: .cfa -8 + ^ x20: .cfa -16 + ^ x21: .cfa -24 + ^ x22: .cfa -32 + ^ x23: .cfa -40 + ^ x24: .cfa -48 + ^ x25: .cfa -64 + ^ .ra: .cfa -72 + ^ x29: .cfa -80 + ^
STACK CFI 59978 .cfa: sp 144 +
STACK CFI 59990 .cfa: sp 0 +
STACK CFI 59994 .cfa: x29 80 +
STACK CFI INIT 599fc 584 .cfa: sp 0 +
STACK CFI 59a00 .cfa: sp 96 +
STACK CFI 59a18 .cfa: x29 96 + x19: .cfa -8 + ^ x20: .cfa -16 + ^ x21: .cfa -24 + ^ x22: .cfa -32 + ^ x23: .cfa -40 + ^ x24: .cfa -48 + ^ x25: .cfa -56 + ^ x26: .cfa -64 + ^ x27: .cfa -72 + ^ x28: .cfa -80 + ^ .ra: .cfa -88 + ^ x29: .cfa -96 + ^
STACK CFI 59ee4 .cfa: sp 96 +
STACK CFI 59efc .cfa: sp 0 +
STACK CFI 59f00 .cfa: x29 96 +
STACK CFI INIT 59f80 684 .cfa: sp 0 +
STACK CFI 59f84 .cfa: sp 96 +
STACK CFI 59f9c .cfa: x29 96 + x19: .cfa -8 + ^ x20: .cfa -16 + ^ x21: .cfa -24 + ^ x22: .cfa -32 + ^ x23: .cfa -40 + ^ x24: .cfa -48 + ^ x25: .cfa -56 + ^ x26: .cfa -64 + ^ x27: .cfa -72 + ^ x28: .cfa -80 + ^ .ra: .cfa -88 + ^ x29: .cfa -96 + ^
STACK CFI 5a568 .cfa: sp 96 +
STACK CFI 5a580 .cfa: sp 0 +
STACK CFI 5a584 .cfa: x29 96 +
