MODULE Linux arm64 8E3412DC7B75FD15C3C5087026D31F870 alphalaneous.rainbow_checkpoints.android64.so
INFO CODE_ID DC12348E757B15FDC3C5087026D31F873ECE1A50
INFO GENERATOR mozilla/dump_syms 2.3.4
PUBLIC 2eb0 0 __on_dlclose
PUBLIC 2ec0 0 __emutls_unregister_key
PUBLIC 2ec8 0 __on_dlclose_late
PUBLIC 2ed0 0 __atexit_handler_wrapper
PUBLIC 2ee4 0 atexit
PUBLIC 2f00 0 pthread_atfork
PUBLIC 2f10 0 __aarch64_ldadd8_relax
PUBLIC 2f40 0 init_have_lse_atomics
PUBLIC 2fd8 0 __init_cpu_features_constructor
PUBLIC 3574 0 __init_cpu_features
PUBLIC 3600 0 __aarch64_ldadd8_acq_rel
PUBLIC 3630 0 __cxx_global_var_init
PUBLIC 41d0 0 geode::modifier::ModifyBase<geode::modifier::ModifyDerive<hook7<(anonymous namespace)::hook7Parent>, PlayLayer> >::~ModifyBase()
PUBLIC 41e8 0 geode::modifier::ModifyDerive<hook7<(anonymous namespace)::hook7Parent>, PlayLayer>::apply()
PUBLIC 4818 0 std::__ndk1::shared_ptr<geode::Hook>::~shared_ptr[abi:ne180000]()
PUBLIC 4868 0 geode::impl::ResultData<geode::Hook*, std::__ndk1::basic_string<char, std::__ndk1::char_traits<char>, std::__ndk1::allocator<char> > >::~ResultData()
PUBLIC 48dc 0 std::__ndk1::vector<std::__ndk1::basic_string<char, std::__ndk1::char_traits<char>, std::__ndk1::allocator<char> >, std::__ndk1::allocator<std::__ndk1::basic_string<char, std::__ndk1::char_traits<char>, std::__ndk1::allocator<char> > > >::~vector[abi:ne180000]()
PUBLIC 4958 0 geode::modifier::ModifyBase<geode::modifier::ModifyDerive<hook7<(anonymous namespace)::hook7Parent>, PlayLayer> >::apply()
PUBLIC 495c 0 __clang_call_terminate
PUBLIC 496c 0 _ZN5geode15UnwrapExceptionC2IRPNS_4HookEQsr4implE18IsStringStreamableIT_EEENS_4impl5OkTagEOS5_
PUBLIC 5068 0 std::__ndk1::__throw_bad_variant_access[abi:ne180000]()
PUBLIC m 509c 0 std::__ndk1::basic_stringstream<char, std::__ndk1::char_traits<char>, std::__ndk1::allocator<char> >::~basic_stringstream()
PUBLIC 511c 0 geode::UnwrapException::~UnwrapException()
PUBLIC 5140 0 std::__ndk1::basic_string<char, std::__ndk1::char_traits<char>, std::__ndk1::allocator<char> >::__throw_length_error[abi:ne180000]() const
PUBLIC 5154 0 std::__ndk1::__throw_length_error[abi:ne180000](char const*)
PUBLIC 51a4 0 std::length_error::length_error[abi:ne180000](char const*)
PUBLIC 51d4 0 std::__throw_bad_array_new_length([abi:ne180000], void)
PUBLIC 5208 0 std::__ndk1::basic_string<char, std::__ndk1::char_traits<char>, std::__ndk1::allocator<char> >::__init_copy_ctor_external(char const*, unsigned long)
PUBLIC 5284 0 std::__ndk1::__split_buffer<std::__ndk1::basic_string<char, std::__ndk1::char_traits<char>, std::__ndk1::allocator<char> >, std::__ndk1::allocator<std::__ndk1::basic_string<char, std::__ndk1::char_traits<char>, std::__ndk1::allocator<char> > >&>::~__split_buffer()
PUBLIC 52ec 0 std::__ndk1::vector<std::__ndk1::basic_string<char, std::__ndk1::char_traits<char>, std::__ndk1::allocator<char> >, std::__ndk1::allocator<std::__ndk1::basic_string<char, std::__ndk1::char_traits<char>, std::__ndk1::allocator<char> > > >::__throw_length_error[abi:ne180000]() const
PUBLIC 5300 0 std::__ndk1::__variant_detail::__visitation::__base::__dispatcher<(unsigned long)0>::__dispatch[abi:ne180000]<std::__ndk1::__variant_detail::__dtor<std::__ndk1::__variant_detail::__traits<geode::Hook*, std::__ndk1::basic_string<char, std::__ndk1::char_traits<char>, std::__ndk1::allocator<char> > >, (std::__ndk1::__variant_detail::_Trait)1>::__destroy[abi:ne180000]()::{lambda(auto:1&)#1}, std::__ndk1::__variant_detail::__base<(std::__ndk1::__variant_detail::__traits<geode::Hook*, std::__ndk1::basic_string<char, std::__ndk1::char_traits<char>, std::__ndk1::allocator<char> > >)1, geode::Hook, std::__ndk1::allocator<char> >&>(std::__ndk1::__variant_detail::__dtor<std::__ndk1::__variant_detail::__traits<geode::Hook*, std::__ndk1::basic_string<char, std::__ndk1::char_traits<char>, std::__ndk1::allocator<char> > >, (std::__ndk1::__variant_detail::_Trait)1>, std::__ndk1::__variant_detail::__base<(std::__ndk1::__variant_detail::__traits<geode::Hook*, std::__ndk1::basic_string<char, std::__ndk1::char_traits<char>, std::__ndk1::allocator<char> > >)1, geode::Hook, std::__ndk1::allocator<char> >&)
PUBLIC 5304 0 std::__ndk1::__variant_detail::__visitation::__base::__dispatcher<(unsigned long)1>::__dispatch[abi:ne180000]<std::__ndk1::__variant_detail::__dtor<std::__ndk1::__variant_detail::__traits<geode::Hook*, std::__ndk1::basic_string<char, std::__ndk1::char_traits<char>, std::__ndk1::allocator<char> > >, (std::__ndk1::__variant_detail::_Trait)1>::__destroy[abi:ne180000]()::{lambda(auto:1&)#1}, std::__ndk1::__variant_detail::__base<(std::__ndk1::__variant_detail::__traits<geode::Hook*, std::__ndk1::basic_string<char, std::__ndk1::char_traits<char>, std::__ndk1::allocator<char> > >)1, geode::Hook, std::__ndk1::allocator<char> >&>(std::__ndk1::__variant_detail::__dtor<std::__ndk1::__variant_detail::__traits<geode::Hook*, std::__ndk1::basic_string<char, std::__ndk1::char_traits<char>, std::__ndk1::allocator<char> > >, (std::__ndk1::__variant_detail::_Trait)1>, std::__ndk1::__variant_detail::__base<(std::__ndk1::__variant_detail::__traits<geode::Hook*, std::__ndk1::basic_string<char, std::__ndk1::char_traits<char>, std::__ndk1::allocator<char> > >)1, geode::Hook, std::__ndk1::allocator<char> >&)
PUBLIC 5318 0 std::__ndk1::__tree<std::__ndk1::__value_type<std::__ndk1::basic_string<char, std::__ndk1::char_traits<char>, std::__ndk1::allocator<char> >, std::__ndk1::shared_ptr<geode::Hook> >, std::__ndk1::__map_value_compare<std::__ndk1::basic_string<char, std::__ndk1::char_traits<char>, std::__ndk1::allocator<char> >, std::__ndk1::__value_type<std::__ndk1::basic_string<char, std::__ndk1::char_traits<char>, std::__ndk1::allocator<char> >, std::__ndk1::shared_ptr<geode::Hook> >, std::__ndk1::less<std::__ndk1::basic_string<char, std::__ndk1::char_traits<char>, std::__ndk1::allocator<char> > >, true>, std::__ndk1::allocator<std::__ndk1::__value_type<std::__ndk1::basic_string<char, std::__ndk1::char_traits<char>, std::__ndk1::allocator<char> >, std::__ndk1::shared_ptr<geode::Hook> > > >::destroy(std::__ndk1::__tree_node<std::__ndk1::__value_type<std::__ndk1::basic_string<char, std::__ndk1::char_traits<char>, std::__ndk1::allocator<char> >, std::__ndk1::shared_ptr<geode::Hook> >, void*>*)
PUBLIC 539c 0 geode::modifier::AsStaticFunction_storeCheckpoint<hook7<(anonymous namespace)::hook7Parent>, void (hook7<(anonymous namespace)::hook7Parent>::*)(CheckpointObject*)>::Impl<void (hook7<(anonymous namespace)::hook7Parent>::*)(CheckpointObject*)>::function(hook7<(anonymous namespace)::hook7Parent>*, CheckpointObject*)
PUBLIC 5b3c 0 std::__ndk1::shared_ptr<tulip::hook::CallingConvention>::~shared_ptr[abi:ne180000]()
PUBLIC 5b8c 0 tulip::hook::HandlerMetadata::~HandlerMetadata()
PUBLIC 5bf0 0 geode::cast::traverseTypeinfoFor(void*, geode::cast::ClassTypeinfoType const*, char const*)
PUBLIC m 5ce8 0 geodeImplicitEntry
PUBLIC 5d30 0 <.plt ELF section in alphalaneous.rainbow_checkpoints.android64.so>
STACK CFI INIT 2eb0 10 .cfa: sp 0 +
STACK CFI INIT 2ec0 8 .cfa: sp 0 +
STACK CFI INIT 2ec8 8 .cfa: sp 0 +
STACK CFI INIT 2ed0 14 .cfa: sp 0 +
STACK CFI INIT 2ee4 1c .cfa: sp 0 +
STACK CFI INIT 2f00 10 .cfa: sp 0 +
STACK CFI INIT 2f10 30 .cfa: sp 0 +
STACK CFI INIT 2f40 98 .cfa: sp 0 +
STACK CFI INIT 2fd8 59c .cfa: sp 0 +
STACK CFI INIT 3574 8c .cfa: sp 0 +
STACK CFI INIT 3600 30 .cfa: sp 0 +
STACK CFI INIT 41d0 18 .cfa: sp 0 +
STACK CFI INIT 4818 50 .cfa: sp 0 +
STACK CFI 481c .cfa: sp 32 +
STACK CFI 4824 .cfa: x29 32 + x19: .cfa -16 + ^ .ra: .cfa -24 + ^ x29: .cfa -32 + ^
STACK CFI 483c .cfa: sp 32 +
STACK CFI 4844 .cfa: sp 0 +
STACK CFI 4848 .cfa: x29 32 +
STACK CFI 485c .cfa: sp 32 +
STACK CFI 4864 .cfa: sp 0 +
STACK CFI INIT 48dc 7c .cfa: sp 0 +
STACK CFI 48e0 .cfa: sp 48 +
STACK CFI 48ec .cfa: x29 48 + x19: .cfa -8 + ^ x20: .cfa -16 + ^ x21: .cfa -32 + ^ .ra: .cfa -40 + ^ x29: .cfa -48 + ^
STACK CFI 4938 .cfa: sp 48 +
STACK CFI 4944 .cfa: sp 0 +
STACK CFI 4948 .cfa: sp 48 +
STACK CFI 4954 .cfa: sp 0 +
STACK CFI INIT 4958 4 .cfa: sp 0 +
STACK CFI INIT 495c 10 .cfa: sp 0 +
STACK CFI 4960 .cfa: sp 16 +
STACK CFI 4964 .cfa: x29 16 + .ra: .cfa -8 + ^ x29: .cfa -16 + ^
STACK CFI INIT 5068 34 .cfa: sp 0 +
STACK CFI 506c .cfa: sp 16 +
STACK CFI 5070 .cfa: x29 16 + .ra: .cfa -8 + ^ x29: .cfa -16 + ^
STACK CFI INIT 509c 80 .cfa: sp 0 +
STACK CFI 50a0 .cfa: sp 48 +
STACK CFI 50ac .cfa: x29 48 + x19: .cfa -8 + ^ x20: .cfa -16 + ^ x21: .cfa -32 + ^ .ra: .cfa -40 + ^ x29: .cfa -48 + ^
STACK CFI 510c .cfa: sp 48 +
STACK CFI 5118 .cfa: sp 0 +
STACK CFI INIT 511c 24 .cfa: sp 0 +
STACK CFI 5120 .cfa: sp 32 +
STACK CFI 5128 .cfa: x29 32 + x19: .cfa -16 + ^ .ra: .cfa -24 + ^ x29: .cfa -32 + ^
STACK CFI 5134 .cfa: sp 32 +
STACK CFI 513c .cfa: sp 0 +
STACK CFI INIT 5140 14 .cfa: sp 0 +
STACK CFI 5144 .cfa: sp 16 +
STACK CFI 5148 .cfa: x29 16 + .ra: .cfa -8 + ^ x29: .cfa -16 + ^
STACK CFI INIT 51a4 30 .cfa: sp 0 +
STACK CFI 51a8 .cfa: sp 32 +
STACK CFI 51b0 .cfa: x29 32 + x19: .cfa -16 + ^ .ra: .cfa -24 + ^ x29: .cfa -32 + ^
STACK CFI 51c8 .cfa: sp 32 +
STACK CFI 51d0 .cfa: sp 0 +
STACK CFI INIT 51d4 34 .cfa: sp 0 +
STACK CFI 51d8 .cfa: sp 32 +
STACK CFI 51e0 .cfa: x29 32 + x19: .cfa -16 + ^ .ra: .cfa -24 + ^ x29: .cfa -32 + ^
STACK CFI INIT 5208 7c .cfa: sp 0 +
STACK CFI 520c .cfa: sp 48 +
STACK CFI 5218 .cfa: x29 48 + x19: .cfa -8 + ^ x20: .cfa -16 + ^ x21: .cfa -24 + ^ x22: .cfa -32 + ^ .ra: .cfa -40 + ^ x29: .cfa -48 + ^
STACK CFI 5230 .cfa: sp 48 +
STACK CFI 523c .cfa: sp 0 +
STACK CFI 5240 .cfa: x29 48 +
STACK CFI 5270 .cfa: sp 48 +
STACK CFI 527c .cfa: sp 0 +
STACK CFI 5280 .cfa: x29 48 +
STACK CFI INIT 5284 68 .cfa: sp 0 +
STACK CFI 5288 .cfa: sp 32 +
STACK CFI 5290 .cfa: x29 32 + x19: .cfa -8 + ^ x20: .cfa -16 + ^ .ra: .cfa -24 + ^ x29: .cfa -32 + ^
STACK CFI 52a8 .cfa: sp 32 +
STACK CFI 52b0 .cfa: sp 0 +
STACK CFI 52b4 .cfa: x29 32 +
STACK CFI 52e0 .cfa: sp 32 +
STACK CFI 52e8 .cfa: sp 0 +
STACK CFI INIT 52ec 14 .cfa: sp 0 +
STACK CFI 52f0 .cfa: sp 16 +
STACK CFI 52f4 .cfa: x29 16 + .ra: .cfa -8 + ^ x29: .cfa -16 + ^
STACK CFI INIT 5300 4 .cfa: sp 0 +
STACK CFI INIT 5304 14 .cfa: sp 0 +
STACK CFI INIT 5318 84 .cfa: sp 0 +
STACK CFI 5320 .cfa: sp 32 +
STACK CFI 5328 .cfa: x29 32 + x19: .cfa -8 + ^ x20: .cfa -16 + ^ .ra: .cfa -24 + ^ x29: .cfa -32 + ^
STACK CFI 5368 .cfa: sp 32 +
STACK CFI 5370 .cfa: sp 0 +
STACK CFI 5378 .cfa: x29 32 +
STACK CFI INIT 5b3c 50 .cfa: sp 0 +
STACK CFI 5b40 .cfa: sp 32 +
STACK CFI 5b48 .cfa: x29 32 + x19: .cfa -16 + ^ .ra: .cfa -24 + ^ x29: .cfa -32 + ^
STACK CFI 5b60 .cfa: sp 32 +
STACK CFI 5b68 .cfa: sp 0 +
STACK CFI 5b6c .cfa: x29 32 +
STACK CFI 5b80 .cfa: sp 32 +
STACK CFI 5b88 .cfa: sp 0 +
STACK CFI INIT 5b8c 64 .cfa: sp 0 +
STACK CFI 5b90 .cfa: sp 32 +
STACK CFI 5b98 .cfa: x29 32 + x19: .cfa -16 + ^ .ra: .cfa -24 + ^ x29: .cfa -32 + ^
STACK CFI 5bc4 .cfa: sp 32 +
STACK CFI 5bcc .cfa: sp 0 +
STACK CFI 5bd0 .cfa: x29 32 +
STACK CFI 5be4 .cfa: sp 32 +
STACK CFI 5bec .cfa: sp 0 +
STACK CFI INIT 5bf0 f8 .cfa: sp 0 +
STACK CFI 5bf4 .cfa: sp 64 +
STACK CFI 5c04 .cfa: x29 64 + x19: .cfa -8 + ^ x20: .cfa -16 + ^ x21: .cfa -24 + ^ x22: .cfa -32 + ^ x23: .cfa -48 + ^ .ra: .cfa -56 + ^ x29: .cfa -64 + ^
STACK CFI 5c60 .cfa: sp 64 +
STACK CFI 5c70 .cfa: sp 0 +
STACK CFI 5c74 .cfa: x29 64 +
STACK CFI 5c90 .cfa: sp 64 +
STACK CFI 5ca0 .cfa: sp 0 +
STACK CFI 5ca4 .cfa: x29 64 +
STACK CFI 5cd4 .cfa: sp 64 +
STACK CFI 5ce4 .cfa: sp 0 +
STACK CFI INIT 5ce8 3c .cfa: sp 0 +
STACK CFI 5cec .cfa: sp 32 +
STACK CFI 5cf4 .cfa: x29 32 + x19: .cfa -16 + ^ .ra: .cfa -24 + ^ x29: .cfa -32 + ^
STACK CFI 5d00 .cfa: sp 32 +
STACK CFI 5d08 .cfa: sp 0 +
STACK CFI 5d0c .cfa: x29 32 +
STACK CFI 5d18 .cfa: sp 32 +
STACK CFI 5d20 .cfa: sp 0 +
STACK CFI INIT 3630 ba0 .cfa: sp 0 +
STACK CFI 3634 .cfa: sp 240 +
STACK CFI 3650 .cfa: x29 96 + x19: .cfa -8 + ^ x20: .cfa -16 + ^ x21: .cfa -24 + ^ x22: .cfa -32 + ^ x23: .cfa -40 + ^ x24: .cfa -48 + ^ x25: .cfa -56 + ^ x26: .cfa -64 + ^ x27: .cfa -72 + ^ x28: .cfa -80 + ^ .ra: .cfa -88 + ^ x29: .cfa -96 + ^
STACK CFI 4078 .cfa: sp 240 +
STACK CFI 4094 .cfa: sp 0 +
STACK CFI 4098 .cfa: x29 96 +
STACK CFI INIT 41e8 630 .cfa: sp 0 +
STACK CFI 41ec .cfa: sp 304 +
STACK CFI 4208 .cfa: x29 96 + x19: .cfa -8 + ^ x20: .cfa -16 + ^ x21: .cfa -24 + ^ x22: .cfa -32 + ^ x23: .cfa -40 + ^ x24: .cfa -48 + ^ x25: .cfa -56 + ^ x26: .cfa -64 + ^ x27: .cfa -72 + ^ x28: .cfa -80 + ^ .ra: .cfa -88 + ^ x29: .cfa -96 + ^
STACK CFI 46ec .cfa: sp 304 +
STACK CFI 4708 .cfa: sp 0 +
STACK CFI 470c .cfa: x29 96 +
STACK CFI INIT 4868 74 .cfa: sp 0 +
STACK CFI 486c .cfa: sp 48 +
STACK CFI 4878 .cfa: x29 32 + x19: .cfa -8 + ^ x20: .cfa -16 + ^ .ra: .cfa -24 + ^ x29: .cfa -32 + ^
STACK CFI 48c4 .cfa: sp 48 +
STACK CFI 48d0 .cfa: sp 0 +
STACK CFI 48d4 .cfa: x29 32 +
STACK CFI INIT 496c 6fc .cfa: sp 0 +
STACK CFI 4970 .cfa: sp 496 +
STACK CFI 498c .cfa: x29 96 + x19: .cfa -8 + ^ x20: .cfa -16 + ^ x21: .cfa -24 + ^ x22: .cfa -32 + ^ x23: .cfa -40 + ^ x24: .cfa -48 + ^ x25: .cfa -56 + ^ x26: .cfa -64 + ^ x27: .cfa -72 + ^ x28: .cfa -80 + ^ .ra: .cfa -88 + ^ x29: .cfa -96 + ^
STACK CFI 4f3c .cfa: sp 496 +
STACK CFI 4f58 .cfa: sp 0 +
STACK CFI 4f5c .cfa: x29 96 +
STACK CFI INIT 5154 50 .cfa: sp 0 +
STACK CFI 5158 .cfa: sp 32 +
STACK CFI 5160 .cfa: x29 32 + x19: .cfa -8 + ^ x20: .cfa -16 + ^ .ra: .cfa -24 + ^ x29: .cfa -32 + ^
STACK CFI INIT 539c 7a0 .cfa: sp 0 +
STACK CFI 53a0 .cfa: sp 192 +
STACK CFI 53c4 .cfa: x29 96 + x19: .cfa -8 + ^ x20: .cfa -16 + ^ x21: .cfa -24 + ^ x22: .cfa -32 + ^ x23: .cfa -40 + ^ x24: .cfa -48 + ^ x25: .cfa -56 + ^ x26: .cfa -64 + ^ x27: .cfa -80 + ^ .ra: .cfa -88 + ^ x29: .cfa -96 + ^ v8: .cfa -104 + ^ v9: .cfa -112 + ^ v10: .cfa -120 + ^ v11: .cfa -128 + ^
STACK CFI 5ae0 .cfa: sp 192 +
STACK CFI 5b04 .cfa: sp 0 +
STACK CFI 5b08 .cfa: x29 96 +
