MODULE Linux arm64 E251A63FB5A7B9B043D6A54C89D93D9B0 raydeeux.qiblafinder.android64.so
INFO CODE_ID 3FA651E2A7B5B0B943D6A54C89D93D9B251ACCB8
INFO GENERATOR mozilla/dump_syms 2.3.4
PUBLIC 23900 0 __on_dlclose
PUBLIC 23910 0 __emutls_unregister_key
PUBLIC 23918 0 __on_dlclose_late
PUBLIC 23920 0 __atexit_handler_wrapper
PUBLIC 23934 0 atexit
PUBLIC 23950 0 pthread_atfork
PUBLIC 23960 0 unwind_phase2
PUBLIC 23a94 0 _Unwind_Resume
PUBLIC 23b18 0 unwind_phase2_forced
PUBLIC m 23c0c 0 __unw_init_local
PUBLIC m 23cb4 0 __unw_get_reg
PUBLIC 23d30 0 __unw_step_stage2
PUBLIC m 23d44 0 __unw_get_proc_info
PUBLIC m 23d84 0 __unw_resume
PUBLIC 23dac 0 libunwind::CFI_Parser<libunwind::LocalAddressSpace>::decodeFDE(libunwind::LocalAddressSpace&, unsigned long, libunwind::CFI_Parser<libunwind::LocalAddressSpace>::FDE_Info*, libunwind::CFI_Parser<libunwind::LocalAddressSpace>::CIE_Info*, bool)
PUBLIC 23f3c 0 libunwind::CFI_Parser<libunwind::LocalAddressSpace>::parseCIE(libunwind::LocalAddressSpace&, unsigned long, libunwind::CFI_Parser<libunwind::LocalAddressSpace>::CIE_Info*)
PUBLIC 24204 0 libunwind::AbstractUnwindCursor::~AbstractUnwindCursor()
PUBLIC 2420c 0 libunwind::UnwindCursor<libunwind::LocalAddressSpace, libunwind::Registers_arm64>::~UnwindCursor()
PUBLIC 24214 0 libunwind::UnwindCursor<libunwind::LocalAddressSpace, libunwind::Registers_arm64>::validReg(int)
PUBLIC 24258 0 libunwind::UnwindCursor<libunwind::LocalAddressSpace, libunwind::Registers_arm64>::getReg(int)
PUBLIC 24340 0 libunwind::UnwindCursor<libunwind::LocalAddressSpace, libunwind::Registers_arm64>::setReg(int, unsigned long)
PUBLIC 24428 0 libunwind::UnwindCursor<libunwind::LocalAddressSpace, libunwind::Registers_arm64>::validFloatReg(int)
PUBLIC 2443c 0 libunwind::UnwindCursor<libunwind::LocalAddressSpace, libunwind::Registers_arm64>::getFloatReg(int)
PUBLIC 2444c 0 libunwind::UnwindCursor<libunwind::LocalAddressSpace, libunwind::Registers_arm64>::setFloatReg(int, double)
PUBLIC 2445c 0 libunwind::UnwindCursor<libunwind::LocalAddressSpace, libunwind::Registers_arm64>::step(bool)
PUBLIC 2454c 0 libunwind::UnwindCursor<libunwind::LocalAddressSpace, libunwind::Registers_arm64>::getInfo(unw_proc_info_t*)
PUBLIC 24590 0 libunwind::UnwindCursor<libunwind::LocalAddressSpace, libunwind::Registers_arm64>::jumpto()
PUBLIC 2459c 0 libunwind::UnwindCursor<libunwind::LocalAddressSpace, libunwind::Registers_arm64>::isSignalFrame()
PUBLIC 245a8 0 libunwind::UnwindCursor<libunwind::LocalAddressSpace, libunwind::Registers_arm64>::getFunctionName(char*, unsigned long, unsigned long*)
PUBLIC 245d4 0 libunwind::UnwindCursor<libunwind::LocalAddressSpace, libunwind::Registers_arm64>::setInfoBasedOnIPRegister(bool)
PUBLIC 24854 0 libunwind::UnwindCursor<libunwind::LocalAddressSpace, libunwind::Registers_arm64>::getRegisterName(int)
PUBLIC 24860 0 libunwind::UnwindCursor<libunwind::LocalAddressSpace, libunwind::Registers_arm64>::stepThroughSigReturn(libunwind::Registers_arm64&)
PUBLIC 24980 0 libunwind::DwarfInstructions<libunwind::LocalAddressSpace, libunwind::Registers_arm64>::stepWithDwarf(libunwind::LocalAddressSpace&, unsigned long, unsigned long, libunwind::Registers_arm64&, bool&, bool)
PUBLIC 24e08 0 libunwind::CFI_Parser<libunwind::LocalAddressSpace>::parseFDEInstructions(libunwind::LocalAddressSpace&, libunwind::CFI_Parser<libunwind::LocalAddressSpace>::FDE_Info const&, libunwind::CFI_Parser<libunwind::LocalAddressSpace>::CIE_Info const&, unsigned long, int, libunwind::CFI_Parser<libunwind::LocalAddressSpace>::PrologInfo*)
PUBLIC 25a50 0 libunwind::DwarfInstructions<libunwind::LocalAddressSpace, libunwind::Registers_arm64>::getCFA(libunwind::LocalAddressSpace&, libunwind::CFI_Parser<libunwind::LocalAddressSpace>::PrologInfo const&, libunwind::Registers_arm64 const&)
PUBLIC 25b84 0 libunwind::DwarfInstructions<libunwind::LocalAddressSpace, libunwind::Registers_arm64>::getSavedRegister(libunwind::LocalAddressSpace&, libunwind::Registers_arm64 const&, unsigned long, libunwind::CFI_Parser<libunwind::LocalAddressSpace>::RegisterLocation const&)
PUBLIC 25d94 0 libunwind::LocalAddressSpace::getEncodedP(unsigned long&, unsigned long, unsigned char, unsigned long)
PUBLIC 26120 0 libunwind::LocalAddressSpace::getULEB128(unsigned long&, unsigned long)
PUBLIC 262e8 0 libunwind::DwarfInstructions<libunwind::LocalAddressSpace, libunwind::Registers_arm64>::evaluateExpression(unsigned long, libunwind::LocalAddressSpace&, libunwind::Registers_arm64 const&, unsigned long)
PUBLIC 26ca4 0 libunwind::UnwindCursor<libunwind::LocalAddressSpace, libunwind::Registers_arm64>::getInfoFromDwarfSection(unsigned long, libunwind::UnwindInfoSections const&, unsigned int)
PUBLIC 26f78 0 libunwind::findUnwindSectionsByPhdr(dl_phdr_info*, unsigned long, void*)
PUBLIC 270ac 0 libunwind::EHHeaderParser<libunwind::LocalAddressSpace>::decodeEHHdr(libunwind::LocalAddressSpace&, unsigned long, unsigned long, libunwind::EHHeaderParser<libunwind::LocalAddressSpace>::EHHeaderInfo&)
PUBLIC 271cc 0 libunwind::CFI_Parser<libunwind::LocalAddressSpace>::findFDE(libunwind::LocalAddressSpace&, unsigned long, unsigned long, unsigned long, unsigned long, libunwind::CFI_Parser<libunwind::LocalAddressSpace>::FDE_Info*, libunwind::CFI_Parser<libunwind::LocalAddressSpace>::CIE_Info*)
PUBLIC 27394 0 libunwind::EHHeaderParser<libunwind::LocalAddressSpace>::findFDE(libunwind::LocalAddressSpace&, unsigned long, unsigned long, unsigned int, libunwind::CFI_Parser<libunwind::LocalAddressSpace>::FDE_Info*, libunwind::CFI_Parser<libunwind::LocalAddressSpace>::CIE_Info*)
PUBLIC 274fc 0 libunwind::EHHeaderParser<libunwind::LocalAddressSpace>::getTableEntrySize(unsigned char)
PUBLIC 275f8 0 libunwind::Registers_arm64::getRegisterName(int)
PUBLIC 27628 0 __libunwind_Registers_arm64_jumpto
PUBLIC m 276b8 0 __unw_getcontext
PUBLIC 27760 0 __aarch64_ldadd8_acq_rel
PUBLIC 27790 0 init_have_lse_atomics
PUBLIC 27828 0 __init_cpu_features_constructor
PUBLIC 27dc4 0 __init_cpu_features
PUBLIC 27e50 0 __aarch64_ldadd8_relax
PUBLIC 27e80 0 std::__ndk1::basic_regex<char, std::__ndk1::regex_traits<char> >::~basic_regex()
PUBLIC 27ee0 0 Utils::handleQibla()
PUBLIC 27f7c 0 Utils::showBearing()
PUBLIC 28da4 0 Utils::addQiblaFinderButton(cocos2d::CCNode*, cocos2d::CCLayer*, void (cocos2d::CCObject::*)(cocos2d::CCObject*), geode::CircleBaseColor, geode::CircleBaseSize, float)
PUBLIC 28f4c 0 std::__ndk1::basic_string<char, std::__ndk1::char_traits<char>, std::__ndk1::allocator<char> >::basic_string[abi:ne180000]<0>()
PUBLIC 28fe8 0 Utils::findBearing(double, double)
PUBLIC 2b4b8 0 geode::impl::ResultData<double, std::__ndk1::basic_string<char, std::__ndk1::char_traits<char>, std::__ndk1::allocator<char> > >::~ResultData()
PUBLIC 2b52c 0 Utils::findBearingWebAPI(double, double)
PUBLIC 2c4e4 0 geode::Task<geode::utils::web::WebResponse, geode::utils::web::WebProgress>::~Task()
PUBLIC 2c534 0 Utils::logErrorLocalBearing(std::__ndk1::basic_string<char, std::__ndk1::char_traits<char>, std::__ndk1::allocator<char> > const&, std::__ndk1::basic_string<char, std::__ndk1::char_traits<char>, std::__ndk1::allocator<char> > const&)
PUBLIC 2c728 0 cocos2d::CCSequence::create(cocos2d::CCFiniteTimeAction*, ...)
PUBLIC 2c7c0 0 std::__ndk1::shared_ptr<std::__ndk1::__empty_state<char> >::~shared_ptr[abi:ne180000]()
PUBLIC 2c814 0 __clang_call_terminate
PUBLIC 2c824 0 std::__ndk1::basic_string<char, std::__ndk1::char_traits<char>, std::__ndk1::allocator<char> >::__throw_length_error[abi:ne180000]() const
PUBLIC 2c838 0 std::__ndk1::__throw_length_error[abi:ne180000](char const*)
PUBLIC 2c888 0 std::length_error::length_error[abi:ne180000](char const*)
PUBLIC 2c8b8 0 std::__throw_bad_array_new_length([abi:ne180000], void)
PUBLIC 2c8ec 0 std::__ndk1::__throw_bad_variant_access[abi:ne180000]()
PUBLIC 2c920 0 std::__ndk1::__variant_detail::__visitation::__base::__dispatcher<(unsigned long)0>::__dispatch[abi:ne180000]<std::__ndk1::__variant_detail::__dtor<std::__ndk1::__variant_detail::__traits<double, std::__ndk1::basic_string<char, std::__ndk1::char_traits<char>, std::__ndk1::allocator<char> > >, (std::__ndk1::__variant_detail::_Trait)1>::__destroy[abi:ne180000]()::{lambda(auto:1&)#1}, std::__ndk1::__variant_detail::__base<(std::__ndk1::__variant_detail::__traits<double, std::__ndk1::basic_string<char, std::__ndk1::char_traits<char>, std::__ndk1::allocator<char> > >)1, double, std::__ndk1::allocator<char> >&>(std::__ndk1::__variant_detail::__dtor<std::__ndk1::__variant_detail::__traits<double, std::__ndk1::basic_string<char, std::__ndk1::char_traits<char>, std::__ndk1::allocator<char> > >, (std::__ndk1::__variant_detail::_Trait)1>, std::__ndk1::__variant_detail::__base<(std::__ndk1::__variant_detail::__traits<double, std::__ndk1::basic_string<char, std::__ndk1::char_traits<char>, std::__ndk1::allocator<char> > >)1, double, std::__ndk1::allocator<char> >&)
PUBLIC 2c924 0 std::__ndk1::__variant_detail::__visitation::__base::__dispatcher<(unsigned long)1>::__dispatch[abi:ne180000]<std::__ndk1::__variant_detail::__dtor<std::__ndk1::__variant_detail::__traits<double, std::__ndk1::basic_string<char, std::__ndk1::char_traits<char>, std::__ndk1::allocator<char> > >, (std::__ndk1::__variant_detail::_Trait)1>::__destroy[abi:ne180000]()::{lambda(auto:1&)#1}, std::__ndk1::__variant_detail::__base<(std::__ndk1::__variant_detail::__traits<double, std::__ndk1::basic_string<char, std::__ndk1::char_traits<char>, std::__ndk1::allocator<char> > >)1, double, std::__ndk1::allocator<char> >&>(std::__ndk1::__variant_detail::__dtor<std::__ndk1::__variant_detail::__traits<double, std::__ndk1::basic_string<char, std::__ndk1::char_traits<char>, std::__ndk1::allocator<char> > >, (std::__ndk1::__variant_detail::_Trait)1>, std::__ndk1::__variant_detail::__base<(std::__ndk1::__variant_detail::__traits<double, std::__ndk1::basic_string<char, std::__ndk1::char_traits<char>, std::__ndk1::allocator<char> > >)1, double, std::__ndk1::allocator<char> >&)
PUBLIC 2c938 0 std::__ndk1::basic_string<char, std::__ndk1::char_traits<char>, std::__ndk1::allocator<char> >::__assign_no_alias<true>(char const*, unsigned long)
PUBLIC 2c9e4 0 std::__ndk1::basic_string<char, std::__ndk1::char_traits<char>, std::__ndk1::allocator<char> >::__assign_no_alias<false>(char const*, unsigned long)
PUBLIC 2caf4 0 std::__ndk1::basic_regex<char, std::__ndk1::regex_traits<char> >::__parse<char const*>(char const*, char const*)
PUBLIC 2d1b8 0 std::__ndk1::__throw_regex_error[abi:ne180000]<(std::__ndk1::regex_constants::error_type)17>()
PUBLIC 2d204 0 std::__ndk1::basic_regex<char, std::__ndk1::regex_traits<char> >::__parse_ecma_exp<char const*>(char const*, char const*)
PUBLIC 2d470 0 std::__ndk1::basic_regex<char, std::__ndk1::regex_traits<char> >::__parse_basic_reg_exp<char const*>(char const*, char const*)
PUBLIC 2d618 0 std::__ndk1::basic_regex<char, std::__ndk1::regex_traits<char> >::__parse_extended_reg_exp<char const*>(char const*, char const*)
PUBLIC 2d788 0 std::__ndk1::__throw_regex_error[abi:ne180000]<(std::__ndk1::regex_constants::error_type)14>()
PUBLIC 2d7d4 0 std::__ndk1::__end_state<char>::~__end_state()
PUBLIC 2d7d8 0 std::__ndk1::__end_state<char>::__exec(std::__ndk1::__state<char>&) const
PUBLIC 2d7e4 0 std::__ndk1::__node<char>::__exec_split(bool, std::__ndk1::__state<char>&) const
PUBLIC 2d7e8 0 std::__ndk1::__node<char>::__exec(std::__ndk1::__state<char>&) const
PUBLIC 2d7ec 0 std::__ndk1::__shared_ptr_pointer<std::__ndk1::__empty_state<char>*, std::__ndk1::shared_ptr<std::__ndk1::__empty_state<char> >::__shared_ptr_default_delete<std::__ndk1::__empty_state<char>, std::__ndk1::__empty_state<char> >, std::__ndk1::allocator<std::__ndk1::__empty_state<char> > >::~__shared_ptr_pointer()
PUBLIC 2d810 0 std::__ndk1::__shared_ptr_pointer<std::__ndk1::__empty_state<char>*, std::__ndk1::shared_ptr<std::__ndk1::__empty_state<char> >::__shared_ptr_default_delete<std::__ndk1::__empty_state<char>, std::__ndk1::__empty_state<char> >, std::__ndk1::allocator<std::__ndk1::__empty_state<char> > >::__on_zero_shared()
PUBLIC 2d828 0 std::__ndk1::__shared_ptr_pointer<std::__ndk1::__empty_state<char>*, std::__ndk1::shared_ptr<std::__ndk1::__empty_state<char> >::__shared_ptr_default_delete<std::__ndk1::__empty_state<char>, std::__ndk1::__empty_state<char> >, std::__ndk1::allocator<std::__ndk1::__empty_state<char> > >::__get_deleter(std::type_info const&) const
PUBLIC 2d844 0 std::__ndk1::__shared_ptr_pointer<std::__ndk1::__empty_state<char>*, std::__ndk1::shared_ptr<std::__ndk1::__empty_state<char> >::__shared_ptr_default_delete<std::__ndk1::__empty_state<char>, std::__ndk1::__empty_state<char> >, std::__ndk1::allocator<std::__ndk1::__empty_state<char> > >::__on_zero_shared_weak()
PUBLIC 2d848 0 std::__ndk1::__empty_state<char>::~__empty_state()
PUBLIC 2d890 0 std::__ndk1::__empty_state<char>::__exec(std::__ndk1::__state<char>&) const
PUBLIC 2d8a4 0 std::__ndk1::__owns_one_state<char>::~__owns_one_state()
PUBLIC 2d8ec 0 std::__ndk1::basic_regex<char, std::__ndk1::regex_traits<char> >::__parse_assertion<char const*>(char const*, char const*)
PUBLIC 2dc50 0 std::__ndk1::basic_regex<char, std::__ndk1::regex_traits<char> >::__parse_atom<char const*>(char const*, char const*)
PUBLIC 2e294 0 std::__ndk1::basic_regex<char, std::__ndk1::regex_traits<char> >::__parse_ERE_dupl_symbol<char const*>(char const*, char const*, std::__ndk1::__owns_one_state<char>*, unsigned int, unsigned int)
PUBLIC 2e688 0 std::__ndk1::basic_regex<char, std::__ndk1::regex_traits<char> >::basic_regex[abi:ne180000]()
PUBLIC 2e6f4 0 std::__ndk1::basic_regex<char, std::__ndk1::regex_traits<char> >::__push_lookahead(std::__ndk1::basic_regex<char, std::__ndk1::regex_traits<char> > const&, bool, unsigned int)
PUBLIC 2e7a8 0 std::__ndk1::__throw_regex_error[abi:ne180000]<(std::__ndk1::regex_constants::error_type)6>()
PUBLIC 2e7f4 0 std::__ndk1::__l_anchor_multiline<char>::~__l_anchor_multiline()
PUBLIC 2e83c 0 std::__ndk1::__l_anchor_multiline<char>::__exec(std::__ndk1::__state<char>&) const
PUBLIC 2e8a0 0 std::__ndk1::__r_anchor_multiline<char>::~__r_anchor_multiline()
PUBLIC 2e8e8 0 std::__ndk1::__r_anchor_multiline<char>::__exec(std::__ndk1::__state<char>&) const
PUBLIC 2e93c 0 std::__ndk1::__word_boundary<char, std::__ndk1::regex_traits<char> >::~__word_boundary()
PUBLIC 2e998 0 std::__ndk1::__word_boundary<char, std::__ndk1::regex_traits<char> >::~__word_boundary()
PUBLIC 2e9f0 0 std::__ndk1::__word_boundary<char, std::__ndk1::regex_traits<char> >::__exec(std::__ndk1::__state<char>&) const
PUBLIC 2eb00 0 std::__ndk1::__lookahead<char, std::__ndk1::regex_traits<char> >::~__lookahead()
PUBLIC 2eb90 0 std::__ndk1::__lookahead<char, std::__ndk1::regex_traits<char> >::~__lookahead()
PUBLIC 2ec1c 0 std::__ndk1::__lookahead<char, std::__ndk1::regex_traits<char> >::__exec(std::__ndk1::__state<char>&) const
PUBLIC 2edf0 0 std::__ndk1::basic_regex<char, std::__ndk1::regex_traits<char> >::__match_at_start_ecma<std::__ndk1::allocator<std::__ndk1::sub_match<char const*> > >(char const*, char const*, std::__ndk1::match_results<char const*, std::__ndk1::allocator<std::__ndk1::sub_match<char const*> > >&, std::__ndk1::regex_constants::match_flag_type, bool) const
PUBLIC 2f23c 0 std::__ndk1::vector<std::__ndk1::sub_match<char const*>, std::__ndk1::allocator<std::__ndk1::sub_match<char const*> > >::assign(unsigned long, std::__ndk1::sub_match<char const*> const&)
PUBLIC 2f404 0 std::__ndk1::vector<std::__ndk1::sub_match<char const*>, std::__ndk1::allocator<std::__ndk1::sub_match<char const*> > >::__throw_length_error[abi:ne180000]() const
PUBLIC 2f418 0 std::__ndk1::__state<char>::~__state()
PUBLIC 2f45c 0 std::__ndk1::__throw_regex_error[abi:ne180000]<(std::__ndk1::regex_constants::error_type)12>()
PUBLIC 2f4a8 0 std::__ndk1::__state<char>::__state(std::__ndk1::__state<char> const&)
PUBLIC 2f618 0 std::__ndk1::__throw_regex_error[abi:ne180000]<(std::__ndk1::regex_constants::error_type)16>()
PUBLIC 2f664 0 std::__ndk1::vector<std::__ndk1::__state<char>, std::__ndk1::allocator<std::__ndk1::__state<char> > >::~vector[abi:ne180000]()
PUBLIC 2f6fc 0 std::__ndk1::vector<std::__ndk1::__state<char>, std::__ndk1::allocator<std::__ndk1::__state<char> > >::__push_back_slow_path<std::__ndk1::__state<char> >(std::__ndk1::__state<char>&&)
PUBLIC 2f8d8 0 std::__ndk1::vector<std::__ndk1::__state<char>, std::__ndk1::allocator<std::__ndk1::__state<char> > >::__throw_length_error[abi:ne180000]() const
PUBLIC 2f8ec 0 std::__ndk1::vector<std::__ndk1::sub_match<char const*>, std::__ndk1::allocator<std::__ndk1::sub_match<char const*> > >::__append(unsigned long, std::__ndk1::sub_match<char const*> const&)
PUBLIC 2fa94 0 std::__ndk1::vector<std::__ndk1::pair<unsigned long, char const*>, std::__ndk1::allocator<std::__ndk1::pair<unsigned long, char const*> > >::__append(unsigned long)
PUBLIC 2fbc0 0 std::__ndk1::vector<std::__ndk1::pair<unsigned long, char const*>, std::__ndk1::allocator<std::__ndk1::pair<unsigned long, char const*> > >::__throw_length_error[abi:ne180000]() const
PUBLIC 2fbd4 0 std::__ndk1::basic_regex<char, std::__ndk1::regex_traits<char> >::__parse_bracket_expression<char const*>(char const*, char const*)
PUBLIC 30cc8 0 std::__ndk1::__throw_regex_error[abi:ne180000]<(std::__ndk1::regex_constants::error_type)11>()
PUBLIC 30d14 0 std::__ndk1::__match_any_but_newline<char>::~__match_any_but_newline()
PUBLIC 30d5c 0 std::__ndk1::__throw_regex_error[abi:ne180000]<(std::__ndk1::regex_constants::error_type)3>()
PUBLIC 30da8 0 std::__ndk1::basic_regex<char, std::__ndk1::regex_traits<char> >::__parse_character_escape<char const*>(char const*, char const*, std::__ndk1::basic_string<char, std::__ndk1::char_traits<char>, std::__ndk1::allocator<char> >*)
PUBLIC 312b4 0 std::__ndk1::basic_regex<char, std::__ndk1::regex_traits<char> >::__push_char(char)
PUBLIC 313f4 0 std::__ndk1::__throw_regex_error[abi:ne180000]<(std::__ndk1::regex_constants::error_type)4>()
PUBLIC 31440 0 std::__ndk1::basic_regex<char, std::__ndk1::regex_traits<char> >::__push_back_ref(int)
PUBLIC 31508 0 std::__ndk1::__match_char_icase<char, std::__ndk1::regex_traits<char> >::~__match_char_icase()
PUBLIC 31564 0 std::__ndk1::__match_char_icase<char, std::__ndk1::regex_traits<char> >::~__match_char_icase()
PUBLIC 315bc 0 std::__ndk1::__match_char_icase<char, std::__ndk1::regex_traits<char> >::__exec(std::__ndk1::__state<char>&) const
PUBLIC 3163c 0 std::__ndk1::__match_char_collate<char, std::__ndk1::regex_traits<char> >::~__match_char_collate()
PUBLIC 31698 0 std::__ndk1::__match_char_collate<char, std::__ndk1::regex_traits<char> >::~__match_char_collate()
PUBLIC 316f0 0 std::__ndk1::__match_char_collate<char, std::__ndk1::regex_traits<char> >::__exec(std::__ndk1::__state<char>&) const
PUBLIC 31738 0 std::__ndk1::__match_char<char>::~__match_char()
PUBLIC 31780 0 std::__ndk1::__match_char<char>::__exec(std::__ndk1::__state<char>&) const
PUBLIC 317c8 0 std::__ndk1::__back_ref_icase<char, std::__ndk1::regex_traits<char> >::~__back_ref_icase()
PUBLIC 31824 0 std::__ndk1::__back_ref_icase<char, std::__ndk1::regex_traits<char> >::~__back_ref_icase()
PUBLIC 3187c 0 std::__ndk1::__back_ref_icase<char, std::__ndk1::regex_traits<char> >::__exec(std::__ndk1::__state<char>&) const
PUBLIC 31974 0 std::__ndk1::__back_ref_collate<char, std::__ndk1::regex_traits<char> >::~__back_ref_collate()
PUBLIC 319d0 0 std::__ndk1::__back_ref_collate<char, std::__ndk1::regex_traits<char> >::~__back_ref_collate()
PUBLIC 31a28 0 std::__ndk1::__back_ref_collate<char, std::__ndk1::regex_traits<char> >::__exec(std::__ndk1::__state<char>&) const
PUBLIC 31ab8 0 std::__ndk1::__back_ref<char>::~__back_ref()
PUBLIC 31b00 0 std::__ndk1::__back_ref<char>::__exec(std::__ndk1::__state<char>&) const
PUBLIC 31bd0 0 std::__ndk1::__bracket_expression<char, std::__ndk1::regex_traits<char> >::__add_char[abi:ne180000](char)
PUBLIC 32080 0 std::__ndk1::__bracket_expression<char, std::__ndk1::regex_traits<char> >::__bracket_expression[abi:ne180000](std::__ndk1::regex_traits<char> const&, std::__ndk1::__node<char>*, bool, bool, bool)
PUBLIC 3225c 0 std::__ndk1::vector<std::__ndk1::basic_string<char, std::__ndk1::char_traits<char>, std::__ndk1::allocator<char> >, std::__ndk1::allocator<std::__ndk1::basic_string<char, std::__ndk1::char_traits<char>, std::__ndk1::allocator<char> > > >::~vector[abi:ne180000]()
PUBLIC 322d8 0 std::__ndk1::vector<std::__ndk1::pair<std::__ndk1::basic_string<char, std::__ndk1::char_traits<char>, std::__ndk1::allocator<char> >, std::__ndk1::basic_string<char, std::__ndk1::char_traits<char>, std::__ndk1::allocator<char> > >, std::__ndk1::allocator<std::__ndk1::pair<std::__ndk1::basic_string<char, std::__ndk1::char_traits<char>, std::__ndk1::allocator<char> >, std::__ndk1::basic_string<char, std::__ndk1::char_traits<char>, std::__ndk1::allocator<char> > > > >::~vector[abi:ne180000]()
PUBLIC 3237c 0 std::__ndk1::__bracket_expression<char, std::__ndk1::regex_traits<char> >::~__bracket_expression()
PUBLIC 324c8 0 std::__ndk1::__bracket_expression<char, std::__ndk1::regex_traits<char> >::~__bracket_expression()
PUBLIC 324ec 0 std::__ndk1::__bracket_expression<char, std::__ndk1::regex_traits<char> >::__exec(std::__ndk1::__state<char>&) const
PUBLIC 33158 0 std::__ndk1::pair<std::__ndk1::basic_string<char, std::__ndk1::char_traits<char>, std::__ndk1::allocator<char> >, std::__ndk1::basic_string<char, std::__ndk1::char_traits<char>, std::__ndk1::allocator<char> > >::~pair()
PUBLIC 3319c 0 std::__ndk1::regex_traits<char>::__transform_primary<char*>(char*, char*, char) const
PUBLIC 33360 0 std::__ndk1::vector<char, std::__ndk1::allocator<char> >::__throw_length_error[abi:ne180000]() const
PUBLIC 33374 0 std::__ndk1::__throw_regex_error[abi:ne180000]<(std::__ndk1::regex_constants::error_type)5>()
PUBLIC 333c0 0 std::__ndk1::basic_regex<char, std::__ndk1::regex_traits<char> >::__parse_class_escape<char const*>(char const*, char const*, std::__ndk1::basic_string<char, std::__ndk1::char_traits<char>, std::__ndk1::allocator<char> >&, std::__ndk1::__bracket_expression<char, std::__ndk1::regex_traits<char> >*)
PUBLIC 33988 0 std::__ndk1::basic_regex<char, std::__ndk1::regex_traits<char> >::__parse_awk_escape<char const*>(char const*, char const*, std::__ndk1::basic_string<char, std::__ndk1::char_traits<char>, std::__ndk1::allocator<char> >*)
PUBLIC 33e4c 0 std::__ndk1::__bracket_expression<char, std::__ndk1::regex_traits<char> >::__add_digraph[abi:ne180000](char, char)
PUBLIC 3426c 0 std::__ndk1::__throw_regex_error[abi:ne180000]<(std::__ndk1::regex_constants::error_type)1>()
PUBLIC 342b8 0 std::__ndk1::regex_traits<char>::__lookup_collatename<char const*>(char const*, char const*, char) const
PUBLIC 3456c 0 std::__ndk1::vector<std::__ndk1::basic_string<char, std::__ndk1::char_traits<char>, std::__ndk1::allocator<char> >, std::__ndk1::allocator<std::__ndk1::basic_string<char, std::__ndk1::char_traits<char>, std::__ndk1::allocator<char> > > >::__push_back_slow_path<std::__ndk1::basic_string<char, std::__ndk1::char_traits<char>, std::__ndk1::allocator<char> > const&>(std::__ndk1::basic_string<char, std::__ndk1::char_traits<char>, std::__ndk1::allocator<char> > const&)
PUBLIC 34794 0 std::__ndk1::basic_string<char, std::__ndk1::char_traits<char>, std::__ndk1::allocator<char> >::__init_copy_ctor_external(char const*, unsigned long)
PUBLIC 34814 0 std::__ndk1::__split_buffer<std::__ndk1::basic_string<char, std::__ndk1::char_traits<char>, std::__ndk1::allocator<char> >, std::__ndk1::allocator<std::__ndk1::basic_string<char, std::__ndk1::char_traits<char>, std::__ndk1::allocator<char> > >&>::~__split_buffer()
PUBLIC 3487c 0 std::__ndk1::vector<std::__ndk1::basic_string<char, std::__ndk1::char_traits<char>, std::__ndk1::allocator<char> >, std::__ndk1::allocator<std::__ndk1::basic_string<char, std::__ndk1::char_traits<char>, std::__ndk1::allocator<char> > > >::__throw_length_error[abi:ne180000]() const
PUBLIC 34890 0 std::__ndk1::__throw_regex_error[abi:ne180000]<(std::__ndk1::regex_constants::error_type)2>()
PUBLIC 348dc 0 std::__ndk1::regex_traits<char>::transform<std::__ndk1::__wrap_iter<char*> >(std::__ndk1::__wrap_iter<char*>, std::__ndk1::__wrap_iter<char*>) const
PUBLIC 34a90 0 std::__ndk1::__throw_regex_error[abi:ne180000]<(std::__ndk1::regex_constants::error_type)9>()
PUBLIC 34adc 0 std::__ndk1::vector<std::__ndk1::pair<std::__ndk1::basic_string<char, std::__ndk1::char_traits<char>, std::__ndk1::allocator<char> >, std::__ndk1::basic_string<char, std::__ndk1::char_traits<char>, std::__ndk1::allocator<char> > >, std::__ndk1::allocator<std::__ndk1::pair<std::__ndk1::basic_string<char, std::__ndk1::char_traits<char>, std::__ndk1::allocator<char> >, std::__ndk1::basic_string<char, std::__ndk1::char_traits<char>, std::__ndk1::allocator<char> > > > >::__push_back_slow_path<std::__ndk1::pair<std::__ndk1::basic_string<char, std::__ndk1::char_traits<char>, std::__ndk1::allocator<char> >, std::__ndk1::basic_string<char, std::__ndk1::char_traits<char>, std::__ndk1::allocator<char> > > >(std::__ndk1::pair<std::__ndk1::basic_string<char, std::__ndk1::char_traits<char>, std::__ndk1::allocator<char> >, std::__ndk1::basic_string<char, std::__ndk1::char_traits<char>, std::__ndk1::allocator<char> > >&&)
PUBLIC 34c84 0 std::__ndk1::vector<std::__ndk1::pair<std::__ndk1::basic_string<char, std::__ndk1::char_traits<char>, std::__ndk1::allocator<char> >, std::__ndk1::basic_string<char, std::__ndk1::char_traits<char>, std::__ndk1::allocator<char> > >, std::__ndk1::allocator<std::__ndk1::pair<std::__ndk1::basic_string<char, std::__ndk1::char_traits<char>, std::__ndk1::allocator<char> >, std::__ndk1::basic_string<char, std::__ndk1::char_traits<char>, std::__ndk1::allocator<char> > > > >::__throw_length_error[abi:ne180000]() const
PUBLIC 34c98 0 std::__ndk1::vector<std::__ndk1::pair<char, char>, std::__ndk1::allocator<std::__ndk1::pair<char, char> > >::__throw_length_error[abi:ne180000]() const
PUBLIC 34cac 0 std::__ndk1::__begin_marked_subexpression<char>::~__begin_marked_subexpression()
PUBLIC 34cf4 0 std::__ndk1::__begin_marked_subexpression<char>::__exec(std::__ndk1::__state<char>&) const
PUBLIC 34d24 0 std::__ndk1::__end_marked_subexpression<char>::~__end_marked_subexpression()
PUBLIC 34d6c 0 std::__ndk1::__end_marked_subexpression<char>::__exec(std::__ndk1::__state<char>&) const
PUBLIC 34da4 0 std::__ndk1::basic_regex<char, std::__ndk1::regex_traits<char> >::__push_loop(unsigned long, unsigned long, std::__ndk1::__owns_one_state<char>*, unsigned long, unsigned long, bool)
PUBLIC 34ee4 0 std::__ndk1::__throw_regex_error[abi:ne180000]<(std::__ndk1::regex_constants::error_type)8>()
PUBLIC 34f30 0 std::__ndk1::__throw_regex_error[abi:ne180000]<(std::__ndk1::regex_constants::error_type)7>()
PUBLIC 34f7c 0 std::__ndk1::__loop<char>::~__loop()
PUBLIC 34fe4 0 std::__ndk1::__loop<char>::__exec(std::__ndk1::__state<char>&) const
PUBLIC 351a8 0 std::__ndk1::__loop<char>::__exec_split(bool, std::__ndk1::__state<char>&) const
PUBLIC 3526c 0 std::__ndk1::__owns_two_states<char>::~__owns_two_states()
PUBLIC 352d4 0 std::__ndk1::__repeat_one_loop<char>::~__repeat_one_loop()
PUBLIC 352d8 0 std::__ndk1::__repeat_one_loop<char>::__exec(std::__ndk1::__state<char>&) const
PUBLIC 352ec 0 std::__ndk1::__owns_two_states<char>::~__owns_two_states()
PUBLIC 35358 0 std::__ndk1::__alternate<char>::~__alternate()
PUBLIC 353c0 0 std::__ndk1::__alternate<char>::__exec(std::__ndk1::__state<char>&) const
PUBLIC 353cc 0 std::__ndk1::__alternate<char>::__exec_split(bool, std::__ndk1::__state<char>&) const
PUBLIC 353f0 0 std::__ndk1::__node<char>::~__node()
PUBLIC 353f4 0 std::__ndk1::__empty_non_own_state<char>::~__empty_non_own_state()
PUBLIC 353f8 0 std::__ndk1::__empty_non_own_state<char>::__exec(std::__ndk1::__state<char>&) const
PUBLIC 3540c 0 std::__ndk1::__throw_regex_error[abi:ne180000]<(std::__ndk1::regex_constants::error_type)15>()
PUBLIC 35458 0 std::__ndk1::basic_regex<char, std::__ndk1::regex_traits<char> >::__parse_nondupl_RE<char const*>(char const*, char const*)
PUBLIC 35754 0 std::__ndk1::basic_regex<char, std::__ndk1::regex_traits<char> >::__parse_RE_dupl_symbol<char const*>(char const*, char const*, std::__ndk1::__owns_one_state<char>*, unsigned int, unsigned int)
PUBLIC 359c4 0 std::__ndk1::__owns_one_state<char>::~__owns_one_state()
PUBLIC 359f0 0 std::__ndk1::__match_any<char>::~__match_any()
PUBLIC 35a38 0 std::__ndk1::__match_any<char>::__exec(std::__ndk1::__state<char>&) const
PUBLIC 35a78 0 std::__ndk1::basic_regex<char, std::__ndk1::regex_traits<char> >::__test_back_ref(char)
PUBLIC 35ad8 0 std::__ndk1::basic_regex<char, std::__ndk1::regex_traits<char> >::__parse_ERE_expression<char const*>(char const*, char const*)
PUBLIC 35e24 0 geode::Mod::getSettingValue<bool>(std::__ndk1::basic_string_view<char, std::__ndk1::char_traits<char> >) const
PUBLIC 35f58 0 geode::cast::traverseTypeinfoFor(void*, geode::cast::ClassTypeinfoType const*, char const*)
PUBLIC 3605c 0 geode::Mod::getSettingValue<double>(std::__ndk1::basic_string_view<char, std::__ndk1::char_traits<char> >) const
PUBLIC 3618c 0 std::__ndk1::deque<std::__ndk1::__state<char>, std::__ndk1::allocator<std::__ndk1::__state<char> > >::~deque[abi:ne180000]()
PUBLIC 36354 0 std::__ndk1::deque<std::__ndk1::__state<char>, std::__ndk1::allocator<std::__ndk1::__state<char> > >::__add_back_capacity()
PUBLIC 36944 0 std::__ndk1::__split_buffer<std::__ndk1::__state<char>*, std::__ndk1::allocator<std::__ndk1::__state<char>*> >::push_back(std::__ndk1::__state<char>*&&)
PUBLIC 36acc 0 std::__ndk1::__split_buffer<std::__ndk1::__state<char>*, std::__ndk1::allocator<std::__ndk1::__state<char>*> >::push_front(std::__ndk1::__state<char>*&&)
PUBLIC 36c58 0 std::__ndk1::vector<std::__ndk1::sub_match<std::__ndk1::__wrap_iter<char const*> >, std::__ndk1::allocator<std::__ndk1::sub_match<std::__ndk1::__wrap_iter<char const*> > > >::__throw_length_error[abi:ne180000]() const
PUBLIC 36c6c 0 fmt::v11::detail::value<fmt::v11::context>::format_custom_arg<gd::string, fmt::v11::formatter<gd::string, char, void> >(void*, fmt::v11::basic_format_parse_context<char>&, fmt::v11::context&)
PUBLIC 36e40 0 fmt::v11::detail::parse_format_specs<char>(char const*, char const*, fmt::v11::detail::dynamic_format_specs<char>&, fmt::v11::basic_format_parse_context<char>&, fmt::v11::detail::type)
PUBLIC 372f4 0 fmt::v11::detail::parse_dynamic_spec<char>(char const*, char const*, int&, fmt::v11::detail::arg_ref<char>&, fmt::v11::basic_format_parse_context<char>&)
PUBLIC 37498 0 fmt::v11::detail::do_parse_arg_id<char, fmt::v11::detail::dynamic_spec_id_handler<char>&>(char const*, char const*, fmt::v11::detail::dynamic_spec_id_handler<char>&)
PUBLIC 3762c 0 fmt::v11::detail::handle_dynamic_spec<fmt::v11::detail::width_checker, fmt::v11::context>(int&, fmt::v11::detail::arg_ref<fmt::v11::context::char_type>, fmt::v11::context&)
PUBLIC 37740 0 fmt::v11::detail::handle_dynamic_spec<fmt::v11::detail::precision_checker, fmt::v11::context>(int&, fmt::v11::detail::arg_ref<fmt::v11::context::char_type>, fmt::v11::context&)
PUBLIC 37854 0 fmt::v11::detail::write<char, fmt::v11::basic_appender<char> >(fmt::v11::basic_appender<char>, fmt::v11::basic_string_view<char>, fmt::v11::format_specs const&)
PUBLIC 37ad0 0 fmt::v11::detail::write_escaped_string<char, fmt::v11::detail::counting_iterator>(fmt::v11::detail::counting_iterator, fmt::v11::basic_string_view<char>)
PUBLIC 37ff0 0 fmt::v11::detail::write_padded<char, (fmt::v11::align::type)1, fmt::v11::basic_appender<char>, fmt::v11::detail::write<char, fmt::v11::basic_appender<char> >(fmt::v11::basic_appender<char>, fmt::v11::basic_string_view<char>, fmt::v11::format_specs const&)::{lambda(fmt::v11::basic_appender<char>)#1}>(fmt::v11::basic_appender<char>, fmt::v11::format_specs const&, unsigned long, unsigned long, fmt::v11::detail::write<char, fmt::v11::basic_appender<char> >(fmt::v11::basic_appender<char>, fmt::v11::basic_string_view<char>, fmt::v11::format_specs const&)::{lambda(fmt::v11::basic_appender<char>&&)#1})
PUBLIC 381fc 0 fmt::v11::detail::for_each_codepoint<fmt::v11::detail::code_point_index(fmt::v11::basic_string_view<char>, unsigned long)::{lambda(unsigned int, fmt::v11::basic_string_view<char>)#1}>(fmt::v11::basic_string_view<char>, fmt::v11::detail::code_point_index(fmt::v11::basic_string_view<char>, unsigned long)::{lambda(unsigned int, fmt::v11::basic_string_view<char>)#1})
PUBLIC 38624 0 fmt::v11::detail::write_escaped_cp<fmt::v11::detail::counting_iterator, char>(fmt::v11::detail::counting_iterator, fmt::v11::detail::find_escape_result<char> const&)
PUBLIC 387b8 0 fmt::v11::detail::for_each_codepoint<fmt::v11::detail::compute_width(fmt::v11::basic_string_view<char>)::count_code_points>(fmt::v11::basic_string_view<char>, fmt::v11::detail::compute_width(fmt::v11::basic_string_view<char>)::count_code_points)::{lambda(char const*, char const*)#1}::operator()(char const*, char const*) const
PUBLIC 38970 0 fmt::v11::detail::fill<char, fmt::v11::basic_appender<char> >(fmt::v11::basic_appender<char>, unsigned long, fmt::v11::detail::fill_t const&)
PUBLIC 38b40 0 fmt::v11::detail::write_escaped_string<char, fmt::v11::basic_appender<char> >(fmt::v11::basic_appender<char>, fmt::v11::basic_string_view<char>)
PUBLIC 391bc 0 fmt::v11::detail::write_escaped_cp<fmt::v11::basic_appender<char>, char>(fmt::v11::basic_appender<char>, fmt::v11::detail::find_escape_result<char> const&)
PUBLIC 393a0 0 fmt::v11::detail::write_codepoint<(unsigned long)2, char, fmt::v11::basic_appender<char> >(fmt::v11::basic_appender<char>, char, unsigned int)
PUBLIC 39518 0 fmt::v11::detail::write_codepoint<(unsigned long)4, char, fmt::v11::basic_appender<char> >(fmt::v11::basic_appender<char>, char, unsigned int)
PUBLIC 39690 0 fmt::v11::detail::write_codepoint<(unsigned long)8, char, fmt::v11::basic_appender<char> >(fmt::v11::basic_appender<char>, char, unsigned int)
PUBLIC 39808 0 fmt::v11::detail::get_dynamic_spec<fmt::v11::detail::width_checker, fmt::v11::basic_format_arg<fmt::v11::context> >(fmt::v11::basic_format_arg<fmt::v11::context>)
PUBLIC 3989c 0 fmt::v11::basic_format_args<fmt::v11::context>::get<char>(fmt::v11::basic_string_view<char>) const
PUBLIC 399f4 0 fmt::v11::detail::get_dynamic_spec<fmt::v11::detail::precision_checker, fmt::v11::basic_format_arg<fmt::v11::context> >(fmt::v11::basic_format_arg<fmt::v11::context>)
PUBLIC 39a88 0 geode::EventListener<geode::Task<geode::utils::web::WebResponse, geode::utils::web::WebProgress> >::getPool() const
PUBLIC 39a8c 0 geode::EventListener<geode::Task<geode::utils::web::WebResponse, geode::utils::web::WebProgress> >::handle(geode::Event*)
PUBLIC 39c58 0 geode::EventListener<geode::Task<geode::utils::web::WebResponse, geode::utils::web::WebProgress> >::~EventListener()
PUBLIC 39cf4 0 geode::EventListener<geode::Task<geode::utils::web::WebResponse, geode::utils::web::WebProgress> >::~EventListener()
PUBLIC 39d98 0 geode::Task<geode::utils::web::WebResponse, geode::utils::web::WebProgress>::setListener(geode::EventListenerProtocol*)::{lambda()#1}::~{lambda()#1}()
PUBLIC 39de8 0 std::__ndk1::__function::__func<geode::Task<geode::utils::web::WebResponse, geode::utils::web::WebProgress>::setListener(geode::EventListenerProtocol*)::{lambda()#1}, std::__ndk1::allocator<geode::Task<geode::utils::web::WebResponse, geode::utils::web::WebProgress>::setListener(geode::EventListenerProtocol*)::{lambda()#1}>, void ()>::~__func()
PUBLIC 39e44 0 std::__ndk1::__function::__func<geode::Task<geode::utils::web::WebResponse, geode::utils::web::WebProgress>::setListener(geode::EventListenerProtocol*)::{lambda()#1}, std::__ndk1::allocator<geode::Task<geode::utils::web::WebResponse, geode::utils::web::WebProgress>::setListener(geode::EventListenerProtocol*)::{lambda()#1}>, void ()>::~__func()
PUBLIC 39eb0 0 std::__ndk1::__function::__func<geode::Task<geode::utils::web::WebResponse, geode::utils::web::WebProgress>::setListener(geode::EventListenerProtocol*)::{lambda()#1}, std::__ndk1::allocator<geode::Task<geode::utils::web::WebResponse, geode::utils::web::WebProgress>::setListener(geode::EventListenerProtocol*)::{lambda()#1}>, void ()>::__clone() const
PUBLIC 39f08 0 std::__ndk1::__function::__func<geode::Task<geode::utils::web::WebResponse, geode::utils::web::WebProgress>::setListener(geode::EventListenerProtocol*)::{lambda()#1}, std::__ndk1::allocator<geode::Task<geode::utils::web::WebResponse, geode::utils::web::WebProgress>::setListener(geode::EventListenerProtocol*)::{lambda()#1}>, void ()>::__clone(std::__ndk1::__function::__base<void ()>*) const
PUBLIC 39f54 0 std::__ndk1::__function::__func<geode::Task<geode::utils::web::WebResponse, geode::utils::web::WebProgress>::setListener(geode::EventListenerProtocol*)::{lambda()#1}, std::__ndk1::allocator<geode::Task<geode::utils::web::WebResponse, geode::utils::web::WebProgress>::setListener(geode::EventListenerProtocol*)::{lambda()#1}>, void ()>::destroy()
PUBLIC 39fa4 0 std::__ndk1::__function::__func<geode::Task<geode::utils::web::WebResponse, geode::utils::web::WebProgress>::setListener(geode::EventListenerProtocol*)::{lambda()#1}, std::__ndk1::allocator<geode::Task<geode::utils::web::WebResponse, geode::utils::web::WebProgress>::setListener(geode::EventListenerProtocol*)::{lambda()#1}>, void ()>::destroy_deallocate()
PUBLIC 3a004 0 std::__ndk1::__function::__func<geode::Task<geode::utils::web::WebResponse, geode::utils::web::WebProgress>::setListener(geode::EventListenerProtocol*)::{lambda()#1}, std::__ndk1::allocator<geode::Task<geode::utils::web::WebResponse, geode::utils::web::WebProgress>::setListener(geode::EventListenerProtocol*)::{lambda()#1}>, void ()>::operator()()
PUBLIC 3a1d4 0 std::__ndk1::__function::__func<geode::Task<geode::utils::web::WebResponse, geode::utils::web::WebProgress>::setListener(geode::EventListenerProtocol*)::{lambda()#1}, std::__ndk1::allocator<geode::Task<geode::utils::web::WebResponse, geode::utils::web::WebProgress>::setListener(geode::EventListenerProtocol*)::{lambda()#1}>, void ()>::target(std::type_info const&) const
PUBLIC 3a1f0 0 std::__ndk1::__function::__func<geode::Task<geode::utils::web::WebResponse, geode::utils::web::WebProgress>::setListener(geode::EventListenerProtocol*)::{lambda()#1}, std::__ndk1::allocator<geode::Task<geode::utils::web::WebResponse, geode::utils::web::WebProgress>::setListener(geode::EventListenerProtocol*)::{lambda()#1}>, void ()>::target_type() const
PUBLIC 3a1fc 0 geode::Task<geode::utils::web::WebResponse, geode::utils::web::WebProgress>::Event::~Event()
PUBLIC 3a25c 0 geode::Task<geode::utils::web::WebResponse, geode::utils::web::WebProgress>::Event::~Event()
PUBLIC 3a2cc 0 std::__ndk1::__function::__func<geode::Task<geode::utils::web::WebResponse, geode::utils::web::WebProgress>::setListener(geode::EventListenerProtocol*)::{lambda()#2}, std::__ndk1::allocator<geode::Task<geode::utils::web::WebResponse, geode::utils::web::WebProgress>::setListener(geode::EventListenerProtocol*)::{lambda()#2}>, void ()>::~__func()
PUBLIC 3a328 0 std::__ndk1::__function::__func<geode::Task<geode::utils::web::WebResponse, geode::utils::web::WebProgress>::setListener(geode::EventListenerProtocol*)::{lambda()#2}, std::__ndk1::allocator<geode::Task<geode::utils::web::WebResponse, geode::utils::web::WebProgress>::setListener(geode::EventListenerProtocol*)::{lambda()#2}>, void ()>::~__func()
PUBLIC 3a394 0 std::__ndk1::__function::__func<geode::Task<geode::utils::web::WebResponse, geode::utils::web::WebProgress>::setListener(geode::EventListenerProtocol*)::{lambda()#2}, std::__ndk1::allocator<geode::Task<geode::utils::web::WebResponse, geode::utils::web::WebProgress>::setListener(geode::EventListenerProtocol*)::{lambda()#2}>, void ()>::__clone() const
PUBLIC 3a3ec 0 std::__ndk1::__function::__func<geode::Task<geode::utils::web::WebResponse, geode::utils::web::WebProgress>::setListener(geode::EventListenerProtocol*)::{lambda()#2}, std::__ndk1::allocator<geode::Task<geode::utils::web::WebResponse, geode::utils::web::WebProgress>::setListener(geode::EventListenerProtocol*)::{lambda()#2}>, void ()>::__clone(std::__ndk1::__function::__base<void ()>*) const
PUBLIC 3a438 0 std::__ndk1::__function::__func<geode::Task<geode::utils::web::WebResponse, geode::utils::web::WebProgress>::setListener(geode::EventListenerProtocol*)::{lambda()#2}, std::__ndk1::allocator<geode::Task<geode::utils::web::WebResponse, geode::utils::web::WebProgress>::setListener(geode::EventListenerProtocol*)::{lambda()#2}>, void ()>::destroy()
PUBLIC 3a488 0 std::__ndk1::__function::__func<geode::Task<geode::utils::web::WebResponse, geode::utils::web::WebProgress>::setListener(geode::EventListenerProtocol*)::{lambda()#2}, std::__ndk1::allocator<geode::Task<geode::utils::web::WebResponse, geode::utils::web::WebProgress>::setListener(geode::EventListenerProtocol*)::{lambda()#2}>, void ()>::destroy_deallocate()
PUBLIC 3a4e8 0 std::__ndk1::__function::__func<geode::Task<geode::utils::web::WebResponse, geode::utils::web::WebProgress>::setListener(geode::EventListenerProtocol*)::{lambda()#2}, std::__ndk1::allocator<geode::Task<geode::utils::web::WebResponse, geode::utils::web::WebProgress>::setListener(geode::EventListenerProtocol*)::{lambda()#2}>, void ()>::operator()()
PUBLIC 3a6ac 0 std::__ndk1::__function::__func<geode::Task<geode::utils::web::WebResponse, geode::utils::web::WebProgress>::setListener(geode::EventListenerProtocol*)::{lambda()#2}, std::__ndk1::allocator<geode::Task<geode::utils::web::WebResponse, geode::utils::web::WebProgress>::setListener(geode::EventListenerProtocol*)::{lambda()#2}>, void ()>::target(std::type_info const&) const
PUBLIC 3a6c8 0 std::__ndk1::__function::__func<geode::Task<geode::utils::web::WebResponse, geode::utils::web::WebProgress>::setListener(geode::EventListenerProtocol*)::{lambda()#2}, std::__ndk1::allocator<geode::Task<geode::utils::web::WebResponse, geode::utils::web::WebProgress>::setListener(geode::EventListenerProtocol*)::{lambda()#2}>, void ()>::target_type() const
PUBLIC 3a6d4 0 std::__ndk1::__throw_bad_function_call[abi:ne180000]()
PUBLIC 3a708 0 std::__ndk1::bad_function_call::~bad_function_call()
PUBLIC 3a72c 0 std::__ndk1::__function::__base<void (geode::Task<geode::utils::web::WebResponse, geode::utils::web::WebProgress>::Event*)>::~__base()
PUBLIC 3a730 0 std::__ndk1::__function::__func<geode::Task<geode::utils::web::WebResponse, geode::utils::web::WebProgress>::listen<Utils::findBearingWebAPI(double, double)::$_0, Utils::findBearingWebAPI(double, double)::$_1, Utils::findBearingWebAPI(double, double)::$_2>(Utils::findBearingWebAPI(double, double)::$_0&&, Utils::findBearingWebAPI(double, double)::$_1&&, Utils::findBearingWebAPI(double, double)::$_2&&) const::{lambda(geode::Task<geode::utils::web::WebResponse, geode::utils::web::WebProgress>::Event*)#1}, std::__ndk1::allocator<geode::Task<geode::utils::web::WebResponse, geode::utils::web::WebProgress>::listen<Utils::findBearingWebAPI(double, double)::$_0, Utils::findBearingWebAPI(double, double)::$_1, Utils::findBearingWebAPI(double, double)::$_2>(Utils::findBearingWebAPI(double, double)::$_0&&, Utils::findBearingWebAPI(double, double)::$_1&&, Utils::findBearingWebAPI(double, double)::$_2&&) const::{lambda(geode::Task<geode::utils::web::WebResponse, geode::utils::web::WebProgress>::Event*)#1}>, void (geode::Task<geode::utils::web::WebResponse, geode::utils::web::WebProgress>::Event*)>::~__func()
PUBLIC 3a734 0 std::__ndk1::__function::__func<geode::Task<geode::utils::web::WebResponse, geode::utils::web::WebProgress>::listen<Utils::findBearingWebAPI(double, double)::$_0, Utils::findBearingWebAPI(double, double)::$_1, Utils::findBearingWebAPI(double, double)::$_2>(Utils::findBearingWebAPI(double, double)::$_0&&, Utils::findBearingWebAPI(double, double)::$_1&&, Utils::findBearingWebAPI(double, double)::$_2&&) const::{lambda(geode::Task<geode::utils::web::WebResponse, geode::utils::web::WebProgress>::Event*)#1}, std::__ndk1::allocator<geode::Task<geode::utils::web::WebResponse, geode::utils::web::WebProgress>::listen<Utils::findBearingWebAPI(double, double)::$_0, Utils::findBearingWebAPI(double, double)::$_1, Utils::findBearingWebAPI(double, double)::$_2>(Utils::findBearingWebAPI(double, double)::$_0&&, Utils::findBearingWebAPI(double, double)::$_1&&, Utils::findBearingWebAPI(double, double)::$_2&&) const::{lambda(geode::Task<geode::utils::web::WebResponse, geode::utils::web::WebProgress>::Event*)#1}>, void (geode::Task<geode::utils::web::WebResponse, geode::utils::web::WebProgress>::Event*)>::__clone() const
PUBLIC 3a76c 0 std::__ndk1::__function::__func<geode::Task<geode::utils::web::WebResponse, geode::utils::web::WebProgress>::listen<Utils::findBearingWebAPI(double, double)::$_0, Utils::findBearingWebAPI(double, double)::$_1, Utils::findBearingWebAPI(double, double)::$_2>(Utils::findBearingWebAPI(double, double)::$_0&&, Utils::findBearingWebAPI(double, double)::$_1&&, Utils::findBearingWebAPI(double, double)::$_2&&) const::{lambda(geode::Task<geode::utils::web::WebResponse, geode::utils::web::WebProgress>::Event*)#1}, std::__ndk1::allocator<geode::Task<geode::utils::web::WebResponse, geode::utils::web::WebProgress>::listen<Utils::findBearingWebAPI(double, double)::$_0, Utils::findBearingWebAPI(double, double)::$_1, Utils::findBearingWebAPI(double, double)::$_2>(Utils::findBearingWebAPI(double, double)::$_0&&, Utils::findBearingWebAPI(double, double)::$_1&&, Utils::findBearingWebAPI(double, double)::$_2&&) const::{lambda(geode::Task<geode::utils::web::WebResponse, geode::utils::web::WebProgress>::Event*)#1}>, void (geode::Task<geode::utils::web::WebResponse, geode::utils::web::WebProgress>::Event*)>::__clone(std::__ndk1::__function::__base<void (geode::Task<geode::utils::web::WebResponse, geode::utils::web::WebProgress>::Event*)>*) const
PUBLIC 3a784 0 std::__ndk1::__function::__func<geode::Task<geode::utils::web::WebResponse, geode::utils::web::WebProgress>::listen<Utils::findBearingWebAPI(double, double)::$_0, Utils::findBearingWebAPI(double, double)::$_1, Utils::findBearingWebAPI(double, double)::$_2>(Utils::findBearingWebAPI(double, double)::$_0&&, Utils::findBearingWebAPI(double, double)::$_1&&, Utils::findBearingWebAPI(double, double)::$_2&&) const::{lambda(geode::Task<geode::utils::web::WebResponse, geode::utils::web::WebProgress>::Event*)#1}, std::__ndk1::allocator<geode::Task<geode::utils::web::WebResponse, geode::utils::web::WebProgress>::listen<Utils::findBearingWebAPI(double, double)::$_0, Utils::findBearingWebAPI(double, double)::$_1, Utils::findBearingWebAPI(double, double)::$_2>(Utils::findBearingWebAPI(double, double)::$_0&&, Utils::findBearingWebAPI(double, double)::$_1&&, Utils::findBearingWebAPI(double, double)::$_2&&) const::{lambda(geode::Task<geode::utils::web::WebResponse, geode::utils::web::WebProgress>::Event*)#1}>, void (geode::Task<geode::utils::web::WebResponse, geode::utils::web::WebProgress>::Event*)>::destroy()
PUBLIC 3a788 0 std::__ndk1::__function::__func<geode::Task<geode::utils::web::WebResponse, geode::utils::web::WebProgress>::listen<Utils::findBearingWebAPI(double, double)::$_0, Utils::findBearingWebAPI(double, double)::$_1, Utils::findBearingWebAPI(double, double)::$_2>(Utils::findBearingWebAPI(double, double)::$_0&&, Utils::findBearingWebAPI(double, double)::$_1&&, Utils::findBearingWebAPI(double, double)::$_2&&) const::{lambda(geode::Task<geode::utils::web::WebResponse, geode::utils::web::WebProgress>::Event*)#1}, std::__ndk1::allocator<geode::Task<geode::utils::web::WebResponse, geode::utils::web::WebProgress>::listen<Utils::findBearingWebAPI(double, double)::$_0, Utils::findBearingWebAPI(double, double)::$_1, Utils::findBearingWebAPI(double, double)::$_2>(Utils::findBearingWebAPI(double, double)::$_0&&, Utils::findBearingWebAPI(double, double)::$_1&&, Utils::findBearingWebAPI(double, double)::$_2&&) const::{lambda(geode::Task<geode::utils::web::WebResponse, geode::utils::web::WebProgress>::Event*)#1}>, void (geode::Task<geode::utils::web::WebResponse, geode::utils::web::WebProgress>::Event*)>::destroy_deallocate()
PUBLIC 3a78c 0 std::__ndk1::__function::__func<geode::Task<geode::utils::web::WebResponse, geode::utils::web::WebProgress>::listen<Utils::findBearingWebAPI(double, double)::$_0, Utils::findBearingWebAPI(double, double)::$_1, Utils::findBearingWebAPI(double, double)::$_2>(Utils::findBearingWebAPI(double, double)::$_0&&, Utils::findBearingWebAPI(double, double)::$_1&&, Utils::findBearingWebAPI(double, double)::$_2&&) const::{lambda(geode::Task<geode::utils::web::WebResponse, geode::utils::web::WebProgress>::Event*)#1}, std::__ndk1::allocator<geode::Task<geode::utils::web::WebResponse, geode::utils::web::WebProgress>::listen<Utils::findBearingWebAPI(double, double)::$_0, Utils::findBearingWebAPI(double, double)::$_1, Utils::findBearingWebAPI(double, double)::$_2>(Utils::findBearingWebAPI(double, double)::$_0&&, Utils::findBearingWebAPI(double, double)::$_1&&, Utils::findBearingWebAPI(double, double)::$_2&&) const::{lambda(geode::Task<geode::utils::web::WebResponse, geode::utils::web::WebProgress>::Event*)#1}>, void (geode::Task<geode::utils::web::WebResponse, geode::utils::web::WebProgress>::Event*)>::operator()(geode::Task<geode::utils::web::WebResponse, geode::utils::web::WebProgress>::Event*&&)
PUBLIC 3b200 0 std::__ndk1::__function::__func<geode::Task<geode::utils::web::WebResponse, geode::utils::web::WebProgress>::listen<Utils::findBearingWebAPI(double, double)::$_0, Utils::findBearingWebAPI(double, double)::$_1, Utils::findBearingWebAPI(double, double)::$_2>(Utils::findBearingWebAPI(double, double)::$_0&&, Utils::findBearingWebAPI(double, double)::$_1&&, Utils::findBearingWebAPI(double, double)::$_2&&) const::{lambda(geode::Task<geode::utils::web::WebResponse, geode::utils::web::WebProgress>::Event*)#1}, std::__ndk1::allocator<geode::Task<geode::utils::web::WebResponse, geode::utils::web::WebProgress>::listen<Utils::findBearingWebAPI(double, double)::$_0, Utils::findBearingWebAPI(double, double)::$_1, Utils::findBearingWebAPI(double, double)::$_2>(Utils::findBearingWebAPI(double, double)::$_0&&, Utils::findBearingWebAPI(double, double)::$_1&&, Utils::findBearingWebAPI(double, double)::$_2&&) const::{lambda(geode::Task<geode::utils::web::WebResponse, geode::utils::web::WebProgress>::Event*)#1}>, void (geode::Task<geode::utils::web::WebResponse, geode::utils::web::WebProgress>::Event*)>::target(std::type_info const&) const
PUBLIC 3b21c 0 std::__ndk1::__function::__func<geode::Task<geode::utils::web::WebResponse, geode::utils::web::WebProgress>::listen<Utils::findBearingWebAPI(double, double)::$_0, Utils::findBearingWebAPI(double, double)::$_1, Utils::findBearingWebAPI(double, double)::$_2>(Utils::findBearingWebAPI(double, double)::$_0&&, Utils::findBearingWebAPI(double, double)::$_1&&, Utils::findBearingWebAPI(double, double)::$_2&&) const::{lambda(geode::Task<geode::utils::web::WebResponse, geode::utils::web::WebProgress>::Event*)#1}, std::__ndk1::allocator<geode::Task<geode::utils::web::WebResponse, geode::utils::web::WebProgress>::listen<Utils::findBearingWebAPI(double, double)::$_0, Utils::findBearingWebAPI(double, double)::$_1, Utils::findBearingWebAPI(double, double)::$_2>(Utils::findBearingWebAPI(double, double)::$_0&&, Utils::findBearingWebAPI(double, double)::$_1&&, Utils::findBearingWebAPI(double, double)::$_2&&) const::{lambda(geode::Task<geode::utils::web::WebResponse, geode::utils::web::WebProgress>::Event*)#1}>, void (geode::Task<geode::utils::web::WebResponse, geode::utils::web::WebProgress>::Event*)>::target_type() const
PUBLIC 3b228 0 geode::impl::ResultData<long, std::__ndk1::basic_string<char, std::__ndk1::char_traits<char>, std::__ndk1::allocator<char> > >::~ResultData()
PUBLIC 3b29c 0 geode::log::info<std::__ndk1::basic_string<char, std::__ndk1::char_traits<char>, std::__ndk1::allocator<char> >&>(fmt::v11::basic_format_string<char, fmt::v11::type_identity<decltype ((wrapCocosObj<std::__ndk1::basic_string<char, std::__ndk1::char_traits<char>, std::__ndk1::allocator<char> >&>)((std::declval<std::__ndk1::basic_string<char, std::__ndk1::char_traits<char>, std::__ndk1::allocator<char> >&>)()))>::type>, std::__ndk1::basic_string<char, std::__ndk1::char_traits<char>, std::__ndk1::allocator<char> >&)
PUBLIC 3b33c 0 geode::impl::ResultData<double, std::__ndk1::basic_string<char, std::__ndk1::char_traits<char>, std::__ndk1::allocator<char> > >::unwrap() &
PUBLIC 3b3b4 0 geode::impl::ResultData<matjson::Value, matjson::ParseError>::~ResultData()
PUBLIC 3b428 0 geode::impl::ResultData<std::__ndk1::basic_string<char, std::__ndk1::char_traits<char>, std::__ndk1::allocator<char> >, std::__ndk1::basic_string<char, std::__ndk1::char_traits<char>, std::__ndk1::allocator<char> > >::~ResultData()
PUBLIC 3b49c 0 _ZN5geode15UnwrapExceptionC2IRNSt6__ndk112basic_stringIcNS2_11char_traitsIcEENS2_9allocatorIcEEEEQsr4implE18IsStringStreamableIT_EEENS_4impl6ErrTagEOSA_
PUBLIC 3b604 0 std::__ndk1::basic_stringstream<char, std::__ndk1::char_traits<char>, std::__ndk1::allocator<char> >::basic_stringstream[abi:ne180000]()
PUBLIC m 3b730 0 std::__ndk1::basic_stringstream<char, std::__ndk1::char_traits<char>, std::__ndk1::allocator<char> >::~basic_stringstream()
PUBLIC 3b7b0 0 geode::UnwrapException::~UnwrapException()
PUBLIC 3b7d4 0 std::__ndk1::__put_character_sequence[abi:ne180000]<char, std::__ndk1::char_traits<char> >(std::__ndk1::basic_ostream<char, std::__ndk1::char_traits<char> >, std::__ndk1::basic_ostream const*, unsigned long)
PUBLIC 3b978 0 std::__ndk1::__pad_and_output[abi:ne180000]<char, std::__ndk1::char_traits<char> >(std::__ndk1::char_traits<char>, std::__ndk1::ostreambuf_iterator const*, std::__ndk1::ostreambuf_iterator const, std::__ndk1::ostreambuf_iterator const, std::__ndk1::ios_base&, std::__ndk1::ostreambuf_iterator)
PUBLIC 3bb54 0 std::__ndk1::basic_stringbuf<char, std::__ndk1::char_traits<char>, std::__ndk1::allocator<char> >::str[abi:ne180000]() &&
PUBLIC 3bccc 0 std::__ndk1::basic_stringbuf<char, std::__ndk1::char_traits<char>, std::__ndk1::allocator<char> >::__init_buf_ptrs[abi:ne180000]()
PUBLIC 3be14 0 std::__ndk1::__variant_detail::__visitation::__base::__dispatcher<(unsigned long)0>::__dispatch[abi:ne180000]<std::__ndk1::__variant_detail::__dtor<std::__ndk1::__variant_detail::__traits<long, std::__ndk1::basic_string<char, std::__ndk1::char_traits<char>, std::__ndk1::allocator<char> > >, (std::__ndk1::__variant_detail::_Trait)1>::__destroy[abi:ne180000]()::{lambda(auto:1&)#1}, std::__ndk1::__variant_detail::__base<(std::__ndk1::__variant_detail::__traits<long, std::__ndk1::basic_string<char, std::__ndk1::char_traits<char>, std::__ndk1::allocator<char> > >)1, long, std::__ndk1::allocator<char> >&>(std::__ndk1::__variant_detail::__dtor<std::__ndk1::__variant_detail::__traits<long, std::__ndk1::basic_string<char, std::__ndk1::char_traits<char>, std::__ndk1::allocator<char> > >, (std::__ndk1::__variant_detail::_Trait)1>, std::__ndk1::__variant_detail::__base<(std::__ndk1::__variant_detail::__traits<long, std::__ndk1::basic_string<char, std::__ndk1::char_traits<char>, std::__ndk1::allocator<char> > >)1, long, std::__ndk1::allocator<char> >&)
PUBLIC 3be18 0 std::__ndk1::__variant_detail::__visitation::__base::__dispatcher<(unsigned long)1>::__dispatch[abi:ne180000]<std::__ndk1::__variant_detail::__dtor<std::__ndk1::__variant_detail::__traits<long, std::__ndk1::basic_string<char, std::__ndk1::char_traits<char>, std::__ndk1::allocator<char> > >, (std::__ndk1::__variant_detail::_Trait)1>::__destroy[abi:ne180000]()::{lambda(auto:1&)#1}, std::__ndk1::__variant_detail::__base<(std::__ndk1::__variant_detail::__traits<long, std::__ndk1::basic_string<char, std::__ndk1::char_traits<char>, std::__ndk1::allocator<char> > >)1, long, std::__ndk1::allocator<char> >&>(std::__ndk1::__variant_detail::__dtor<std::__ndk1::__variant_detail::__traits<long, std::__ndk1::basic_string<char, std::__ndk1::char_traits<char>, std::__ndk1::allocator<char> > >, (std::__ndk1::__variant_detail::_Trait)1>, std::__ndk1::__variant_detail::__base<(std::__ndk1::__variant_detail::__traits<long, std::__ndk1::basic_string<char, std::__ndk1::char_traits<char>, std::__ndk1::allocator<char> > >)1, long, std::__ndk1::allocator<char> >&)
PUBLIC 3be2c 0 std::__ndk1::__variant_detail::__visitation::__base::__dispatcher<(unsigned long)0>::__dispatch[abi:ne180000]<std::__ndk1::__variant_detail::__dtor<std::__ndk1::__variant_detail::__traits<matjson::Value, std::__ndk1::__variant_detail::__traits::ParseError>, (std::__ndk1::__variant_detail::_Trait)1>::__destroy[abi:ne180000]()::{lambda(auto:1&)#1}, std::__ndk1::__variant_detail::__base<(std::__ndk1::__variant_detail::__traits<matjson::Value, std::__ndk1::__variant_detail::__traits::ParseError>)1, matjson, matjson::Value>&>(std::__ndk1::__variant_detail::__dtor<std::__ndk1::__variant_detail::__traits<matjson::Value, std::__ndk1::__variant_detail::__traits::ParseError>, (std::__ndk1::__variant_detail::_Trait)1>, std::__ndk1::__variant_detail::__base<(std::__ndk1::__variant_detail::__traits<matjson::Value, std::__ndk1::__variant_detail::__traits::ParseError>)1, matjson, matjson::Value>&)
PUBLIC 3be34 0 std::__ndk1::__variant_detail::__visitation::__base::__dispatcher<(unsigned long)1>::__dispatch[abi:ne180000]<std::__ndk1::__variant_detail::__dtor<std::__ndk1::__variant_detail::__traits<matjson::Value, std::__ndk1::__variant_detail::__traits::ParseError>, (std::__ndk1::__variant_detail::_Trait)1>::__destroy[abi:ne180000]()::{lambda(auto:1&)#1}, std::__ndk1::__variant_detail::__base<(std::__ndk1::__variant_detail::__traits<matjson::Value, std::__ndk1::__variant_detail::__traits::ParseError>)1, matjson, matjson::Value>&>(std::__ndk1::__variant_detail::__dtor<std::__ndk1::__variant_detail::__traits<matjson::Value, std::__ndk1::__variant_detail::__traits::ParseError>, (std::__ndk1::__variant_detail::_Trait)1>, std::__ndk1::__variant_detail::__base<(std::__ndk1::__variant_detail::__traits<matjson::Value, std::__ndk1::__variant_detail::__traits::ParseError>)1, matjson, matjson::Value>&)
PUBLIC 3be48 0 std::__ndk1::__variant_detail::__visitation::__base::__dispatcher<(unsigned long)0>::__dispatch[abi:ne180000]<std::__ndk1::__variant_detail::__dtor<std::__ndk1::__variant_detail::__traits<std::__ndk1::basic_string<char, std::__ndk1::char_traits<char>, std::__ndk1::allocator<char> >, std::__ndk1::allocator<char> >, (std::__ndk1::__variant_detail::_Trait)1>::__destroy[abi:ne180000]()::{lambda(auto:1&)#1}, std::__ndk1::__variant_detail::__base<(std::__ndk1::__variant_detail::__traits<std::__ndk1::basic_string<char, std::__ndk1::char_traits<char>, std::__ndk1::allocator<char> >, std::__ndk1::allocator<char> >)1, std::__ndk1::allocator<char>, std::__ndk1::allocator<char> >&>(std::__ndk1::__variant_detail::__dtor<std::__ndk1::__variant_detail::__traits<std::__ndk1::basic_string<char, std::__ndk1::char_traits<char>, std::__ndk1::allocator<char> >, std::__ndk1::allocator<char> >, (std::__ndk1::__variant_detail::_Trait)1>, std::__ndk1::__variant_detail::__base<(std::__ndk1::__variant_detail::__traits<std::__ndk1::basic_string<char, std::__ndk1::char_traits<char>, std::__ndk1::allocator<char> >, std::__ndk1::allocator<char> >)1, std::__ndk1::allocator<char>, std::__ndk1::allocator<char> >&)
PUBLIC 3be5c 0 std::__ndk1::__variant_detail::__visitation::__base::__dispatcher<(unsigned long)1>::__dispatch[abi:ne180000]<std::__ndk1::__variant_detail::__dtor<std::__ndk1::__variant_detail::__traits<std::__ndk1::basic_string<char, std::__ndk1::char_traits<char>, std::__ndk1::allocator<char> >, std::__ndk1::allocator<char> >, (std::__ndk1::__variant_detail::_Trait)1>::__destroy[abi:ne180000]()::{lambda(auto:1&)#1}, std::__ndk1::__variant_detail::__base<(std::__ndk1::__variant_detail::__traits<std::__ndk1::basic_string<char, std::__ndk1::char_traits<char>, std::__ndk1::allocator<char> >, std::__ndk1::allocator<char> >)1, std::__ndk1::allocator<char>, std::__ndk1::allocator<char> >&>(std::__ndk1::__variant_detail::__dtor<std::__ndk1::__variant_detail::__traits<std::__ndk1::basic_string<char, std::__ndk1::char_traits<char>, std::__ndk1::allocator<char> >, std::__ndk1::allocator<char> >, (std::__ndk1::__variant_detail::_Trait)1>, std::__ndk1::__variant_detail::__base<(std::__ndk1::__variant_detail::__traits<std::__ndk1::basic_string<char, std::__ndk1::char_traits<char>, std::__ndk1::allocator<char> >, std::__ndk1::allocator<char> >)1, std::__ndk1::allocator<char>, std::__ndk1::allocator<char> >&)
PUBLIC 3be70 0 std::__ndk1::__function::__base<void ()>::~__base()
PUBLIC 3be74 0 std::__ndk1::__function::__func<geode::Task<geode::utils::web::WebResponse, geode::utils::web::WebProgress>::listen<Utils::findBearingWebAPI(double, double)::$_0, Utils::findBearingWebAPI(double, double)::$_1, Utils::findBearingWebAPI(double, double)::$_2>(Utils::findBearingWebAPI(double, double)::$_0&&, Utils::findBearingWebAPI(double, double)::$_1&&, Utils::findBearingWebAPI(double, double)::$_2&&) const::{lambda(geode::Task<geode::utils::web::WebResponse, geode::utils::web::WebProgress>::Event*)#1}::operator()(geode::Task<geode::utils::web::WebResponse, geode::utils::web::WebProgress>::Event*)::{lambda()#1}, std::__ndk1::allocator<geode::Task<geode::utils::web::WebResponse, geode::utils::web::WebProgress>::listen<Utils::findBearingWebAPI(double, double)::$_0, Utils::findBearingWebAPI(double, double)::$_1, Utils::findBearingWebAPI(double, double)::$_2>(Utils::findBearingWebAPI(double, double)::$_0&&, Utils::findBearingWebAPI(double, double)::$_1&&, Utils::findBearingWebAPI(double, double)::$_2&&) const::{lambda(geode::Task<geode::utils::web::WebResponse, geode::utils::web::WebProgress>::Event*)#1}::operator()(geode::Task<geode::utils::web::WebResponse, geode::utils::web::WebProgress>::Event*)::{lambda()#1}>, void ()>::~__func()
PUBLIC 3be78 0 std::__ndk1::__function::__func<geode::Task<geode::utils::web::WebResponse, geode::utils::web::WebProgress>::listen<Utils::findBearingWebAPI(double, double)::$_0, Utils::findBearingWebAPI(double, double)::$_1, Utils::findBearingWebAPI(double, double)::$_2>(Utils::findBearingWebAPI(double, double)::$_0&&, Utils::findBearingWebAPI(double, double)::$_1&&, Utils::findBearingWebAPI(double, double)::$_2&&) const::{lambda(geode::Task<geode::utils::web::WebResponse, geode::utils::web::WebProgress>::Event*)#1}::operator()(geode::Task<geode::utils::web::WebResponse, geode::utils::web::WebProgress>::Event*)::{lambda()#1}, std::__ndk1::allocator<geode::Task<geode::utils::web::WebResponse, geode::utils::web::WebProgress>::listen<Utils::findBearingWebAPI(double, double)::$_0, Utils::findBearingWebAPI(double, double)::$_1, Utils::findBearingWebAPI(double, double)::$_2>(Utils::findBearingWebAPI(double, double)::$_0&&, Utils::findBearingWebAPI(double, double)::$_1&&, Utils::findBearingWebAPI(double, double)::$_2&&) const::{lambda(geode::Task<geode::utils::web::WebResponse, geode::utils::web::WebProgress>::Event*)#1}::operator()(geode::Task<geode::utils::web::WebResponse, geode::utils::web::WebProgress>::Event*)::{lambda()#1}>, void ()>::__clone() const
PUBLIC 3beac 0 std::__ndk1::__function::__func<geode::Task<geode::utils::web::WebResponse, geode::utils::web::WebProgress>::listen<Utils::findBearingWebAPI(double, double)::$_0, Utils::findBearingWebAPI(double, double)::$_1, Utils::findBearingWebAPI(double, double)::$_2>(Utils::findBearingWebAPI(double, double)::$_0&&, Utils::findBearingWebAPI(double, double)::$_1&&, Utils::findBearingWebAPI(double, double)::$_2&&) const::{lambda(geode::Task<geode::utils::web::WebResponse, geode::utils::web::WebProgress>::Event*)#1}::operator()(geode::Task<geode::utils::web::WebResponse, geode::utils::web::WebProgress>::Event*)::{lambda()#1}, std::__ndk1::allocator<geode::Task<geode::utils::web::WebResponse, geode::utils::web::WebProgress>::listen<Utils::findBearingWebAPI(double, double)::$_0, Utils::findBearingWebAPI(double, double)::$_1, Utils::findBearingWebAPI(double, double)::$_2>(Utils::findBearingWebAPI(double, double)::$_0&&, Utils::findBearingWebAPI(double, double)::$_1&&, Utils::findBearingWebAPI(double, double)::$_2&&) const::{lambda(geode::Task<geode::utils::web::WebResponse, geode::utils::web::WebProgress>::Event*)#1}::operator()(geode::Task<geode::utils::web::WebResponse, geode::utils::web::WebProgress>::Event*)::{lambda()#1}>, void ()>::__clone(std::__ndk1::__function::__base<void ()>*) const
PUBLIC 3bec0 0 std::__ndk1::__function::__func<geode::Task<geode::utils::web::WebResponse, geode::utils::web::WebProgress>::listen<Utils::findBearingWebAPI(double, double)::$_0, Utils::findBearingWebAPI(double, double)::$_1, Utils::findBearingWebAPI(double, double)::$_2>(Utils::findBearingWebAPI(double, double)::$_0&&, Utils::findBearingWebAPI(double, double)::$_1&&, Utils::findBearingWebAPI(double, double)::$_2&&) const::{lambda(geode::Task<geode::utils::web::WebResponse, geode::utils::web::WebProgress>::Event*)#1}::operator()(geode::Task<geode::utils::web::WebResponse, geode::utils::web::WebProgress>::Event*)::{lambda()#1}, std::__ndk1::allocator<geode::Task<geode::utils::web::WebResponse, geode::utils::web::WebProgress>::listen<Utils::findBearingWebAPI(double, double)::$_0, Utils::findBearingWebAPI(double, double)::$_1, Utils::findBearingWebAPI(double, double)::$_2>(Utils::findBearingWebAPI(double, double)::$_0&&, Utils::findBearingWebAPI(double, double)::$_1&&, Utils::findBearingWebAPI(double, double)::$_2&&) const::{lambda(geode::Task<geode::utils::web::WebResponse, geode::utils::web::WebProgress>::Event*)#1}::operator()(geode::Task<geode::utils::web::WebResponse, geode::utils::web::WebProgress>::Event*)::{lambda()#1}>, void ()>::destroy()
PUBLIC 3bec4 0 std::__ndk1::__function::__func<geode::Task<geode::utils::web::WebResponse, geode::utils::web::WebProgress>::listen<Utils::findBearingWebAPI(double, double)::$_0, Utils::findBearingWebAPI(double, double)::$_1, Utils::findBearingWebAPI(double, double)::$_2>(Utils::findBearingWebAPI(double, double)::$_0&&, Utils::findBearingWebAPI(double, double)::$_1&&, Utils::findBearingWebAPI(double, double)::$_2&&) const::{lambda(geode::Task<geode::utils::web::WebResponse, geode::utils::web::WebProgress>::Event*)#1}::operator()(geode::Task<geode::utils::web::WebResponse, geode::utils::web::WebProgress>::Event*)::{lambda()#1}, std::__ndk1::allocator<geode::Task<geode::utils::web::WebResponse, geode::utils::web::WebProgress>::listen<Utils::findBearingWebAPI(double, double)::$_0, Utils::findBearingWebAPI(double, double)::$_1, Utils::findBearingWebAPI(double, double)::$_2>(Utils::findBearingWebAPI(double, double)::$_0&&, Utils::findBearingWebAPI(double, double)::$_1&&, Utils::findBearingWebAPI(double, double)::$_2&&) const::{lambda(geode::Task<geode::utils::web::WebResponse, geode::utils::web::WebProgress>::Event*)#1}::operator()(geode::Task<geode::utils::web::WebResponse, geode::utils::web::WebProgress>::Event*)::{lambda()#1}>, void ()>::destroy_deallocate()
PUBLIC 3bec8 0 std::__ndk1::__function::__func<geode::Task<geode::utils::web::WebResponse, geode::utils::web::WebProgress>::listen<Utils::findBearingWebAPI(double, double)::$_0, Utils::findBearingWebAPI(double, double)::$_1, Utils::findBearingWebAPI(double, double)::$_2>(Utils::findBearingWebAPI(double, double)::$_0&&, Utils::findBearingWebAPI(double, double)::$_1&&, Utils::findBearingWebAPI(double, double)::$_2&&) const::{lambda(geode::Task<geode::utils::web::WebResponse, geode::utils::web::WebProgress>::Event*)#1}::operator()(geode::Task<geode::utils::web::WebResponse, geode::utils::web::WebProgress>::Event*)::{lambda()#1}, std::__ndk1::allocator<geode::Task<geode::utils::web::WebResponse, geode::utils::web::WebProgress>::listen<Utils::findBearingWebAPI(double, double)::$_0, Utils::findBearingWebAPI(double, double)::$_1, Utils::findBearingWebAPI(double, double)::$_2>(Utils::findBearingWebAPI(double, double)::$_0&&, Utils::findBearingWebAPI(double, double)::$_1&&, Utils::findBearingWebAPI(double, double)::$_2&&) const::{lambda(geode::Task<geode::utils::web::WebResponse, geode::utils::web::WebProgress>::Event*)#1}::operator()(geode::Task<geode::utils::web::WebResponse, geode::utils::web::WebProgress>::Event*)::{lambda()#1}>, void ()>::operator()()
PUBLIC 3bee0 0 std::__ndk1::__function::__func<geode::Task<geode::utils::web::WebResponse, geode::utils::web::WebProgress>::listen<Utils::findBearingWebAPI(double, double)::$_0, Utils::findBearingWebAPI(double, double)::$_1, Utils::findBearingWebAPI(double, double)::$_2>(Utils::findBearingWebAPI(double, double)::$_0&&, Utils::findBearingWebAPI(double, double)::$_1&&, Utils::findBearingWebAPI(double, double)::$_2&&) const::{lambda(geode::Task<geode::utils::web::WebResponse, geode::utils::web::WebProgress>::Event*)#1}::operator()(geode::Task<geode::utils::web::WebResponse, geode::utils::web::WebProgress>::Event*)::{lambda()#1}, std::__ndk1::allocator<geode::Task<geode::utils::web::WebResponse, geode::utils::web::WebProgress>::listen<Utils::findBearingWebAPI(double, double)::$_0, Utils::findBearingWebAPI(double, double)::$_1, Utils::findBearingWebAPI(double, double)::$_2>(Utils::findBearingWebAPI(double, double)::$_0&&, Utils::findBearingWebAPI(double, double)::$_1&&, Utils::findBearingWebAPI(double, double)::$_2&&) const::{lambda(geode::Task<geode::utils::web::WebResponse, geode::utils::web::WebProgress>::Event*)#1}::operator()(geode::Task<geode::utils::web::WebResponse, geode::utils::web::WebProgress>::Event*)::{lambda()#1}>, void ()>::target(std::type_info const&) const
PUBLIC 3befc 0 std::__ndk1::__function::__func<geode::Task<geode::utils::web::WebResponse, geode::utils::web::WebProgress>::listen<Utils::findBearingWebAPI(double, double)::$_0, Utils::findBearingWebAPI(double, double)::$_1, Utils::findBearingWebAPI(double, double)::$_2>(Utils::findBearingWebAPI(double, double)::$_0&&, Utils::findBearingWebAPI(double, double)::$_1&&, Utils::findBearingWebAPI(double, double)::$_2&&) const::{lambda(geode::Task<geode::utils::web::WebResponse, geode::utils::web::WebProgress>::Event*)#1}::operator()(geode::Task<geode::utils::web::WebResponse, geode::utils::web::WebProgress>::Event*)::{lambda()#1}, std::__ndk1::allocator<geode::Task<geode::utils::web::WebResponse, geode::utils::web::WebProgress>::listen<Utils::findBearingWebAPI(double, double)::$_0, Utils::findBearingWebAPI(double, double)::$_1, Utils::findBearingWebAPI(double, double)::$_2>(Utils::findBearingWebAPI(double, double)::$_0&&, Utils::findBearingWebAPI(double, double)::$_1&&, Utils::findBearingWebAPI(double, double)::$_2&&) const::{lambda(geode::Task<geode::utils::web::WebResponse, geode::utils::web::WebProgress>::Event*)#1}::operator()(geode::Task<geode::utils::web::WebResponse, geode::utils::web::WebProgress>::Event*)::{lambda()#1}>, void ()>::target_type() const
PUBLIC 3bf08 0 _GLOBAL__sub_I_Utils.cpp
PUBLIC 3bfe4 0 MyButtonSettingV3::createNode(float)
PUBLIC 3c94c 0 std::__ndk1::shared_ptr<MyButtonSettingV3>::~shared_ptr[abi:ne180000]()
PUBLIC 3c99c 0 std::__ndk1::shared_ptr<geode::SettingV3>::~shared_ptr[abi:ne180000]()
PUBLIC 3c9ec 0 MyButtonSettingV3::~MyButtonSettingV3()
PUBLIC 3ca10 0 MyButtonSettingV3::load(matjson::Value const&)
PUBLIC 3ca18 0 MyButtonSettingV3::save(matjson::Value&) const
PUBLIC 3ca20 0 MyButtonSettingV3::isDefaultValue() const
PUBLIC 3ca28 0 MyButtonSettingV3::reset()
PUBLIC 3ca2c 0 cocos2d::CCCopying::copyWithZone(cocos2d::CCZone*)
PUBLIC 3ca34 0 MyButtonSettingNodeV3::~MyButtonSettingNodeV3()
PUBLIC 3cb08 0 MyButtonSettingNodeV3::~MyButtonSettingNodeV3()
PUBLIC 3cbec 0 MyButtonSettingNodeV3::onCommit()
PUBLIC 3cbf0 0 MyButtonSettingNodeV3::onResetToDefault()
PUBLIC 3cbf4 0 MyButtonSettingNodeV3::hasUncommittedChanges() const
PUBLIC 3cbfc 0 MyButtonSettingNodeV3::hasNonDefaultValue() const
PUBLIC 3cc04 0 MyButtonSettingNodeV3::onButton(cocos2d::CCObject*)
PUBLIC 3d0d8 0 std::__ndk1::__throw_bad_optional_access[abi:ne180000]()
PUBLIC 3d10c 0 std::__ndk1::__function::__base<void (FLAlertLayer*, bool)>::~__base()
PUBLIC 3d110 0 std::__ndk1::__function::__func<MyButtonSettingNodeV3::onButton(cocos2d::CCObject*)::{lambda(FLAlertLayer*, bool)#1}, std::__ndk1::allocator<MyButtonSettingNodeV3::onButton(cocos2d::CCObject*)::{lambda(FLAlertLayer*, bool)#1}>, void (FLAlertLayer*, bool)>::~__func()
PUBLIC 3d114 0 std::__ndk1::__function::__func<MyButtonSettingNodeV3::onButton(cocos2d::CCObject*)::{lambda(FLAlertLayer*, bool)#1}, std::__ndk1::allocator<MyButtonSettingNodeV3::onButton(cocos2d::CCObject*)::{lambda(FLAlertLayer*, bool)#1}>, void (FLAlertLayer*, bool)>::__clone() const
PUBLIC 3d148 0 std::__ndk1::__function::__func<MyButtonSettingNodeV3::onButton(cocos2d::CCObject*)::{lambda(FLAlertLayer*, bool)#1}, std::__ndk1::allocator<MyButtonSettingNodeV3::onButton(cocos2d::CCObject*)::{lambda(FLAlertLayer*, bool)#1}>, void (FLAlertLayer*, bool)>::__clone(std::__ndk1::__function::__base<void (FLAlertLayer*, bool)>*) const
PUBLIC 3d15c 0 std::__ndk1::__function::__func<MyButtonSettingNodeV3::onButton(cocos2d::CCObject*)::{lambda(FLAlertLayer*, bool)#1}, std::__ndk1::allocator<MyButtonSettingNodeV3::onButton(cocos2d::CCObject*)::{lambda(FLAlertLayer*, bool)#1}>, void (FLAlertLayer*, bool)>::destroy()
PUBLIC 3d160 0 std::__ndk1::__function::__func<MyButtonSettingNodeV3::onButton(cocos2d::CCObject*)::{lambda(FLAlertLayer*, bool)#1}, std::__ndk1::allocator<MyButtonSettingNodeV3::onButton(cocos2d::CCObject*)::{lambda(FLAlertLayer*, bool)#1}>, void (FLAlertLayer*, bool)>::destroy_deallocate()
PUBLIC 3d164 0 std::__ndk1::__function::__func<MyButtonSettingNodeV3::onButton(cocos2d::CCObject*)::{lambda(FLAlertLayer*, bool)#1}, std::__ndk1::allocator<MyButtonSettingNodeV3::onButton(cocos2d::CCObject*)::{lambda(FLAlertLayer*, bool)#1}>, void (FLAlertLayer*, bool)>::operator()(FLAlertLayer*&&, bool&&)
PUBLIC 3d17c 0 std::__ndk1::__function::__func<MyButtonSettingNodeV3::onButton(cocos2d::CCObject*)::{lambda(FLAlertLayer*, bool)#1}, std::__ndk1::allocator<MyButtonSettingNodeV3::onButton(cocos2d::CCObject*)::{lambda(FLAlertLayer*, bool)#1}>, void (FLAlertLayer*, bool)>::target(std::type_info const&) const
PUBLIC 3d198 0 std::__ndk1::__function::__func<MyButtonSettingNodeV3::onButton(cocos2d::CCObject*)::{lambda(FLAlertLayer*, bool)#1}, std::__ndk1::allocator<MyButtonSettingNodeV3::onButton(cocos2d::CCObject*)::{lambda(FLAlertLayer*, bool)#1}>, void (FLAlertLayer*, bool)>::target_type() const
PUBLIC 3d1a4 0 std::__ndk1::__throw_bad_weak_ptr[abi:ne180000]()
PUBLIC 3d1d8 0 geodeExecFunction7<(anonymous namespace)::ExecFuncUnique7>(geode::ModStateEvent*)
PUBLIC 3d830 0 MyButtonSettingV3::parse(std::__ndk1::basic_string<char, std::__ndk1::char_traits<char>, std::__ndk1::allocator<char> > const&, std::__ndk1::basic_string<char, std::__ndk1::char_traits<char>, std::__ndk1::allocator<char> > const&, matjson::Value const&)
PUBLIC 3dbb4 0 geode::impl::ResultData<void, std::__ndk1::basic_string<char, std::__ndk1::char_traits<char>, std::__ndk1::allocator<char> > >::~ResultData()
PUBLIC 3dc28 0 std::__ndk1::__shared_ptr_emplace<MyButtonSettingV3, std::__ndk1::allocator<MyButtonSettingV3> >::~__shared_ptr_emplace()
PUBLIC 3dc38 0 std::__ndk1::__shared_ptr_emplace<MyButtonSettingV3, std::__ndk1::allocator<MyButtonSettingV3> >::~__shared_ptr_emplace()
PUBLIC 3dc68 0 std::__ndk1::__shared_ptr_emplace<MyButtonSettingV3, std::__ndk1::allocator<MyButtonSettingV3> >::__on_zero_shared()
PUBLIC 3dc74 0 std::__ndk1::__shared_ptr_emplace<MyButtonSettingV3, std::__ndk1::allocator<MyButtonSettingV3> >::__on_zero_shared_weak()
PUBLIC 3dc78 0 std::__ndk1::__function::__base<geode::Result<std::__ndk1::shared_ptr<geode::SettingV3>, std::__ndk1::basic_string<char, std::__ndk1::char_traits<char>, std::__ndk1::allocator<char> > >(std::__ndk1::basic_string<char, std::__ndk1::char_traits<char>, std::__ndk1::allocator<char> > const&, std::__ndk1::basic_string<char, std::__ndk1::char_traits<char>, std::__ndk1::allocator<char> > const&, matjson::Value const&)>::~__base()
PUBLIC 3dc7c 0 std::__ndk1::__function::__func<geode::Result<std::__ndk1::shared_ptr<geode::SettingV3>, std::__ndk1::basic_string<char, std::__ndk1::char_traits<char>, std::__ndk1::allocator<char> > > (*)(std::__ndk1::basic_string<char, std::__ndk1::char_traits<char>, std::__ndk1::allocator<char> > const&, std::__ndk1::basic_string<char, std::__ndk1::char_traits<char>, std::__ndk1::allocator<char> > const&, matjson::Value const&), std::__ndk1::allocator<geode::Result<std::__ndk1::shared_ptr<geode::SettingV3>, std::__ndk1::basic_string<char, std::__ndk1::char_traits<char>, std::__ndk1::allocator<char> > > (*)(std::__ndk1::basic_string<char, std::__ndk1::char_traits<char>, std::__ndk1::allocator<char> > const&, std::__ndk1::basic_string<char, std::__ndk1::char_traits<char>, std::__ndk1::allocator<char> > const&, matjson::Value const&)>, geode::Result<std::__ndk1::shared_ptr<geode::SettingV3>, std::__ndk1::basic_string<char, std::__ndk1::char_traits<char>, std::__ndk1::allocator<char> > >(std::__ndk1::basic_string<char, std::__ndk1::char_traits<char>, std::__ndk1::allocator<char> > const&, std::__ndk1::basic_string<char, std::__ndk1::char_traits<char>, std::__ndk1::allocator<char> > const&, matjson::Value const&)>::~__func()
PUBLIC 3dc80 0 std::__ndk1::__function::__func<geode::Result<std::__ndk1::shared_ptr<geode::SettingV3>, std::__ndk1::basic_string<char, std::__ndk1::char_traits<char>, std::__ndk1::allocator<char> > > (*)(std::__ndk1::basic_string<char, std::__ndk1::char_traits<char>, std::__ndk1::allocator<char> > const&, std::__ndk1::basic_string<char, std::__ndk1::char_traits<char>, std::__ndk1::allocator<char> > const&, matjson::Value const&), std::__ndk1::allocator<geode::Result<std::__ndk1::shared_ptr<geode::SettingV3>, std::__ndk1::basic_string<char, std::__ndk1::char_traits<char>, std::__ndk1::allocator<char> > > (*)(std::__ndk1::basic_string<char, std::__ndk1::char_traits<char>, std::__ndk1::allocator<char> > const&, std::__ndk1::basic_string<char, std::__ndk1::char_traits<char>, std::__ndk1::allocator<char> > const&, matjson::Value const&)>, geode::Result<std::__ndk1::shared_ptr<geode::SettingV3>, std::__ndk1::basic_string<char, std::__ndk1::char_traits<char>, std::__ndk1::allocator<char> > >(std::__ndk1::basic_string<char, std::__ndk1::char_traits<char>, std::__ndk1::allocator<char> > const&, std::__ndk1::basic_string<char, std::__ndk1::char_traits<char>, std::__ndk1::allocator<char> > const&, matjson::Value const&)>::__clone() const
PUBLIC 3dcb4 0 std::__ndk1::__function::__func<geode::Result<std::__ndk1::shared_ptr<geode::SettingV3>, std::__ndk1::basic_string<char, std::__ndk1::char_traits<char>, std::__ndk1::allocator<char> > > (*)(std::__ndk1::basic_string<char, std::__ndk1::char_traits<char>, std::__ndk1::allocator<char> > const&, std::__ndk1::basic_string<char, std::__ndk1::char_traits<char>, std::__ndk1::allocator<char> > const&, matjson::Value const&), std::__ndk1::allocator<geode::Result<std::__ndk1::shared_ptr<geode::SettingV3>, std::__ndk1::basic_string<char, std::__ndk1::char_traits<char>, std::__ndk1::allocator<char> > > (*)(std::__ndk1::basic_string<char, std::__ndk1::char_traits<char>, std::__ndk1::allocator<char> > const&, std::__ndk1::basic_string<char, std::__ndk1::char_traits<char>, std::__ndk1::allocator<char> > const&, matjson::Value const&)>, geode::Result<std::__ndk1::shared_ptr<geode::SettingV3>, std::__ndk1::basic_string<char, std::__ndk1::char_traits<char>, std::__ndk1::allocator<char> > >(std::__ndk1::basic_string<char, std::__ndk1::char_traits<char>, std::__ndk1::allocator<char> > const&, std::__ndk1::basic_string<char, std::__ndk1::char_traits<char>, std::__ndk1::allocator<char> > const&, matjson::Value const&)>::__clone(std::__ndk1::__function::__base<geode::Result<std::__ndk1::shared_ptr<geode::SettingV3>, std::__ndk1::basic_string<char, std::__ndk1::char_traits<char>, std::__ndk1::allocator<char> > >(std::__ndk1::basic_string<char, std::__ndk1::char_traits<char>, std::__ndk1::allocator<char> > const&, std::__ndk1::basic_string<char, std::__ndk1::char_traits<char>, std::__ndk1::allocator<char> > const&, matjson::Value const&)>*) const
PUBLIC 3dcc8 0 std::__ndk1::__function::__func<geode::Result<std::__ndk1::shared_ptr<geode::SettingV3>, std::__ndk1::basic_string<char, std::__ndk1::char_traits<char>, std::__ndk1::allocator<char> > > (*)(std::__ndk1::basic_string<char, std::__ndk1::char_traits<char>, std::__ndk1::allocator<char> > const&, std::__ndk1::basic_string<char, std::__ndk1::char_traits<char>, std::__ndk1::allocator<char> > const&, matjson::Value const&), std::__ndk1::allocator<geode::Result<std::__ndk1::shared_ptr<geode::SettingV3>, std::__ndk1::basic_string<char, std::__ndk1::char_traits<char>, std::__ndk1::allocator<char> > > (*)(std::__ndk1::basic_string<char, std::__ndk1::char_traits<char>, std::__ndk1::allocator<char> > const&, std::__ndk1::basic_string<char, std::__ndk1::char_traits<char>, std::__ndk1::allocator<char> > const&, matjson::Value const&)>, geode::Result<std::__ndk1::shared_ptr<geode::SettingV3>, std::__ndk1::basic_string<char, std::__ndk1::char_traits<char>, std::__ndk1::allocator<char> > >(std::__ndk1::basic_string<char, std::__ndk1::char_traits<char>, std::__ndk1::allocator<char> > const&, std::__ndk1::basic_string<char, std::__ndk1::char_traits<char>, std::__ndk1::allocator<char> > const&, matjson::Value const&)>::destroy()
PUBLIC 3dccc 0 std::__ndk1::__function::__func<geode::Result<std::__ndk1::shared_ptr<geode::SettingV3>, std::__ndk1::basic_string<char, std::__ndk1::char_traits<char>, std::__ndk1::allocator<char> > > (*)(std::__ndk1::basic_string<char, std::__ndk1::char_traits<char>, std::__ndk1::allocator<char> > const&, std::__ndk1::basic_string<char, std::__ndk1::char_traits<char>, std::__ndk1::allocator<char> > const&, matjson::Value const&), std::__ndk1::allocator<geode::Result<std::__ndk1::shared_ptr<geode::SettingV3>, std::__ndk1::basic_string<char, std::__ndk1::char_traits<char>, std::__ndk1::allocator<char> > > (*)(std::__ndk1::basic_string<char, std::__ndk1::char_traits<char>, std::__ndk1::allocator<char> > const&, std::__ndk1::basic_string<char, std::__ndk1::char_traits<char>, std::__ndk1::allocator<char> > const&, matjson::Value const&)>, geode::Result<std::__ndk1::shared_ptr<geode::SettingV3>, std::__ndk1::basic_string<char, std::__ndk1::char_traits<char>, std::__ndk1::allocator<char> > >(std::__ndk1::basic_string<char, std::__ndk1::char_traits<char>, std::__ndk1::allocator<char> > const&, std::__ndk1::basic_string<char, std::__ndk1::char_traits<char>, std::__ndk1::allocator<char> > const&, matjson::Value const&)>::destroy_deallocate()
PUBLIC 3dcd0 0 std::__ndk1::__function::__func<geode::Result<std::__ndk1::shared_ptr<geode::SettingV3>, std::__ndk1::basic_string<char, std::__ndk1::char_traits<char>, std::__ndk1::allocator<char> > > (*)(std::__ndk1::basic_string<char, std::__ndk1::char_traits<char>, std::__ndk1::allocator<char> > const&, std::__ndk1::basic_string<char, std::__ndk1::char_traits<char>, std::__ndk1::allocator<char> > const&, matjson::Value const&), std::__ndk1::allocator<geode::Result<std::__ndk1::shared_ptr<geode::SettingV3>, std::__ndk1::basic_string<char, std::__ndk1::char_traits<char>, std::__ndk1::allocator<char> > > (*)(std::__ndk1::basic_string<char, std::__ndk1::char_traits<char>, std::__ndk1::allocator<char> > const&, std::__ndk1::basic_string<char, std::__ndk1::char_traits<char>, std::__ndk1::allocator<char> > const&, matjson::Value const&)>, geode::Result<std::__ndk1::shared_ptr<geode::SettingV3>, std::__ndk1::basic_string<char, std::__ndk1::char_traits<char>, std::__ndk1::allocator<char> > >(std::__ndk1::basic_string<char, std::__ndk1::char_traits<char>, std::__ndk1::allocator<char> > const&, std::__ndk1::basic_string<char, std::__ndk1::char_traits<char>, std::__ndk1::allocator<char> > const&, matjson::Value const&)>::operator()(std::__ndk1::basic_string<char, std::__ndk1::char_traits<char>, std::__ndk1::allocator<char> > const&, std::__ndk1::basic_string<char, std::__ndk1::char_traits<char>, std::__ndk1::allocator<char> > const&, matjson::Value const&)
PUBLIC 3dce4 0 std::__ndk1::__function::__func<geode::Result<std::__ndk1::shared_ptr<geode::SettingV3>, std::__ndk1::basic_string<char, std::__ndk1::char_traits<char>, std::__ndk1::allocator<char> > > (*)(std::__ndk1::basic_string<char, std::__ndk1::char_traits<char>, std::__ndk1::allocator<char> > const&, std::__ndk1::basic_string<char, std::__ndk1::char_traits<char>, std::__ndk1::allocator<char> > const&, matjson::Value const&), std::__ndk1::allocator<geode::Result<std::__ndk1::shared_ptr<geode::SettingV3>, std::__ndk1::basic_string<char, std::__ndk1::char_traits<char>, std::__ndk1::allocator<char> > > (*)(std::__ndk1::basic_string<char, std::__ndk1::char_traits<char>, std::__ndk1::allocator<char> > const&, std::__ndk1::basic_string<char, std::__ndk1::char_traits<char>, std::__ndk1::allocator<char> > const&, matjson::Value const&)>, geode::Result<std::__ndk1::shared_ptr<geode::SettingV3>, std::__ndk1::basic_string<char, std::__ndk1::char_traits<char>, std::__ndk1::allocator<char> > >(std::__ndk1::basic_string<char, std::__ndk1::char_traits<char>, std::__ndk1::allocator<char> > const&, std::__ndk1::basic_string<char, std::__ndk1::char_traits<char>, std::__ndk1::allocator<char> > const&, matjson::Value const&)>::target(std::type_info const&) const
PUBLIC 3dd00 0 std::__ndk1::__function::__func<geode::Result<std::__ndk1::shared_ptr<geode::SettingV3>, std::__ndk1::basic_string<char, std::__ndk1::char_traits<char>, std::__ndk1::allocator<char> > > (*)(std::__ndk1::basic_string<char, std::__ndk1::char_traits<char>, std::__ndk1::allocator<char> > const&, std::__ndk1::basic_string<char, std::__ndk1::char_traits<char>, std::__ndk1::allocator<char> > const&, matjson::Value const&), std::__ndk1::allocator<geode::Result<std::__ndk1::shared_ptr<geode::SettingV3>, std::__ndk1::basic_string<char, std::__ndk1::char_traits<char>, std::__ndk1::allocator<char> > > (*)(std::__ndk1::basic_string<char, std::__ndk1::char_traits<char>, std::__ndk1::allocator<char> > const&, std::__ndk1::basic_string<char, std::__ndk1::char_traits<char>, std::__ndk1::allocator<char> > const&, matjson::Value const&)>, geode::Result<std::__ndk1::shared_ptr<geode::SettingV3>, std::__ndk1::basic_string<char, std::__ndk1::char_traits<char>, std::__ndk1::allocator<char> > >(std::__ndk1::basic_string<char, std::__ndk1::char_traits<char>, std::__ndk1::allocator<char> > const&, std::__ndk1::basic_string<char, std::__ndk1::char_traits<char>, std::__ndk1::allocator<char> > const&, matjson::Value const&)>::target_type() const
PUBLIC 3dd0c 0 std::__ndk1::__variant_detail::__visitation::__base::__dispatcher<(unsigned long)0>::__dispatch[abi:ne180000]<std::__ndk1::__variant_detail::__dtor<std::__ndk1::__variant_detail::__traits<std::__ndk1::monostate, std::__ndk1::basic_string<char, std::__ndk1::char_traits<char>, std::__ndk1::allocator<char> > >, (std::__ndk1::__variant_detail::_Trait)1>::__destroy[abi:ne180000]()::{lambda(auto:1&)#1}, std::__ndk1::__variant_detail::__base<(std::__ndk1::__variant_detail::__traits<std::__ndk1::monostate, std::__ndk1::basic_string<char, std::__ndk1::char_traits<char>, std::__ndk1::allocator<char> > >)1, std::__ndk1::__variant_detail::__traits, std::__ndk1::allocator<char> >&>(std::__ndk1::__variant_detail::__dtor<std::__ndk1::__variant_detail::__traits<std::__ndk1::monostate, std::__ndk1::basic_string<char, std::__ndk1::char_traits<char>, std::__ndk1::allocator<char> > >, (std::__ndk1::__variant_detail::_Trait)1>, std::__ndk1::__variant_detail::__base<(std::__ndk1::__variant_detail::__traits<std::__ndk1::monostate, std::__ndk1::basic_string<char, std::__ndk1::char_traits<char>, std::__ndk1::allocator<char> > >)1, std::__ndk1::__variant_detail::__traits, std::__ndk1::allocator<char> >&)
PUBLIC 3dd10 0 std::__ndk1::__variant_detail::__visitation::__base::__dispatcher<(unsigned long)1>::__dispatch[abi:ne180000]<std::__ndk1::__variant_detail::__dtor<std::__ndk1::__variant_detail::__traits<std::__ndk1::monostate, std::__ndk1::basic_string<char, std::__ndk1::char_traits<char>, std::__ndk1::allocator<char> > >, (std::__ndk1::__variant_detail::_Trait)1>::__destroy[abi:ne180000]()::{lambda(auto:1&)#1}, std::__ndk1::__variant_detail::__base<(std::__ndk1::__variant_detail::__traits<std::__ndk1::monostate, std::__ndk1::basic_string<char, std::__ndk1::char_traits<char>, std::__ndk1::allocator<char> > >)1, std::__ndk1::__variant_detail::__traits, std::__ndk1::allocator<char> >&>(std::__ndk1::__variant_detail::__dtor<std::__ndk1::__variant_detail::__traits<std::__ndk1::monostate, std::__ndk1::basic_string<char, std::__ndk1::char_traits<char>, std::__ndk1::allocator<char> > >, (std::__ndk1::__variant_detail::_Trait)1>, std::__ndk1::__variant_detail::__base<(std::__ndk1::__variant_detail::__traits<std::__ndk1::monostate, std::__ndk1::basic_string<char, std::__ndk1::char_traits<char>, std::__ndk1::allocator<char> > >)1, std::__ndk1::__variant_detail::__traits, std::__ndk1::allocator<char> >&)
PUBLIC 3dd24 0 geode::EventListener<geode::SettingChangedFilterV3>::EventListener(std::__ndk1::function<void (std::__ndk1::shared_ptr<geode::SettingV3>)>, geode::SettingChangedFilterV3)
PUBLIC 3de1c 0 geode::SettingChangedFilterV3::~SettingChangedFilterV3()
PUBLIC 3de6c 0 std::__ndk1::__function::__func<geode::listenForSettingChangesV3<double, geodeExecFunction7<(anonymous namespace)::ExecFuncUnique7>(geode::ModStateEvent*)::{lambda(double)#1}>(std::__ndk1::basic_string_view<char, std::__ndk1::char_traits<char> >, geodeExecFunction7<(anonymous namespace)::ExecFuncUnique7>(geode::ModStateEvent*)::{lambda(double)#1}&&, geode::Mod*)::{lambda(std::__ndk1::shared_ptr<geode::SettingV3>)#1}, std::__ndk1::allocator<geode::listenForSettingChangesV3<double, geodeExecFunction7<(anonymous namespace)::ExecFuncUnique7>(geode::ModStateEvent*)::{lambda(double)#1}>(std::__ndk1::basic_string_view<char, std::__ndk1::char_traits<char> >, geodeExecFunction7<(anonymous namespace)::ExecFuncUnique7>(geode::ModStateEvent*)::{lambda(double)#1}&&, geode::Mod*)::{lambda(std::__ndk1::shared_ptr<geode::SettingV3>)#1}>, void (std::__ndk1::shared_ptr<geode::SettingV3>)>::~__func()
PUBLIC 3de70 0 std::__ndk1::__function::__func<geode::listenForSettingChangesV3<double, geodeExecFunction7<(anonymous namespace)::ExecFuncUnique7>(geode::ModStateEvent*)::{lambda(double)#1}>(std::__ndk1::basic_string_view<char, std::__ndk1::char_traits<char> >, geodeExecFunction7<(anonymous namespace)::ExecFuncUnique7>(geode::ModStateEvent*)::{lambda(double)#1}&&, geode::Mod*)::{lambda(std::__ndk1::shared_ptr<geode::SettingV3>)#1}, std::__ndk1::allocator<geode::listenForSettingChangesV3<double, geodeExecFunction7<(anonymous namespace)::ExecFuncUnique7>(geode::ModStateEvent*)::{lambda(double)#1}>(std::__ndk1::basic_string_view<char, std::__ndk1::char_traits<char> >, geodeExecFunction7<(anonymous namespace)::ExecFuncUnique7>(geode::ModStateEvent*)::{lambda(double)#1}&&, geode::Mod*)::{lambda(std::__ndk1::shared_ptr<geode::SettingV3>)#1}>, void (std::__ndk1::shared_ptr<geode::SettingV3>)>::__clone() const
PUBLIC 3dea8 0 std::__ndk1::__function::__func<geode::listenForSettingChangesV3<double, geodeExecFunction7<(anonymous namespace)::ExecFuncUnique7>(geode::ModStateEvent*)::{lambda(double)#1}>(std::__ndk1::basic_string_view<char, std::__ndk1::char_traits<char> >, geodeExecFunction7<(anonymous namespace)::ExecFuncUnique7>(geode::ModStateEvent*)::{lambda(double)#1}&&, geode::Mod*)::{lambda(std::__ndk1::shared_ptr<geode::SettingV3>)#1}, std::__ndk1::allocator<geode::listenForSettingChangesV3<double, geodeExecFunction7<(anonymous namespace)::ExecFuncUnique7>(geode::ModStateEvent*)::{lambda(double)#1}>(std::__ndk1::basic_string_view<char, std::__ndk1::char_traits<char> >, geodeExecFunction7<(anonymous namespace)::ExecFuncUnique7>(geode::ModStateEvent*)::{lambda(double)#1}&&, geode::Mod*)::{lambda(std::__ndk1::shared_ptr<geode::SettingV3>)#1}>, void (std::__ndk1::shared_ptr<geode::SettingV3>)>::__clone(std::__ndk1::__function::__base<void (std::__ndk1::shared_ptr<geode::SettingV3>)>*) const
PUBLIC 3dec0 0 std::__ndk1::__function::__func<geode::listenForSettingChangesV3<double, geodeExecFunction7<(anonymous namespace)::ExecFuncUnique7>(geode::ModStateEvent*)::{lambda(double)#1}>(std::__ndk1::basic_string_view<char, std::__ndk1::char_traits<char> >, geodeExecFunction7<(anonymous namespace)::ExecFuncUnique7>(geode::ModStateEvent*)::{lambda(double)#1}&&, geode::Mod*)::{lambda(std::__ndk1::shared_ptr<geode::SettingV3>)#1}, std::__ndk1::allocator<geode::listenForSettingChangesV3<double, geodeExecFunction7<(anonymous namespace)::ExecFuncUnique7>(geode::ModStateEvent*)::{lambda(double)#1}>(std::__ndk1::basic_string_view<char, std::__ndk1::char_traits<char> >, geodeExecFunction7<(anonymous namespace)::ExecFuncUnique7>(geode::ModStateEvent*)::{lambda(double)#1}&&, geode::Mod*)::{lambda(std::__ndk1::shared_ptr<geode::SettingV3>)#1}>, void (std::__ndk1::shared_ptr<geode::SettingV3>)>::destroy()
PUBLIC 3dec4 0 std::__ndk1::__function::__func<geode::listenForSettingChangesV3<double, geodeExecFunction7<(anonymous namespace)::ExecFuncUnique7>(geode::ModStateEvent*)::{lambda(double)#1}>(std::__ndk1::basic_string_view<char, std::__ndk1::char_traits<char> >, geodeExecFunction7<(anonymous namespace)::ExecFuncUnique7>(geode::ModStateEvent*)::{lambda(double)#1}&&, geode::Mod*)::{lambda(std::__ndk1::shared_ptr<geode::SettingV3>)#1}, std::__ndk1::allocator<geode::listenForSettingChangesV3<double, geodeExecFunction7<(anonymous namespace)::ExecFuncUnique7>(geode::ModStateEvent*)::{lambda(double)#1}>(std::__ndk1::basic_string_view<char, std::__ndk1::char_traits<char> >, geodeExecFunction7<(anonymous namespace)::ExecFuncUnique7>(geode::ModStateEvent*)::{lambda(double)#1}&&, geode::Mod*)::{lambda(std::__ndk1::shared_ptr<geode::SettingV3>)#1}>, void (std::__ndk1::shared_ptr<geode::SettingV3>)>::destroy_deallocate()
PUBLIC 3dec8 0 std::__ndk1::__function::__func<geode::listenForSettingChangesV3<double, geodeExecFunction7<(anonymous namespace)::ExecFuncUnique7>(geode::ModStateEvent*)::{lambda(double)#1}>(std::__ndk1::basic_string_view<char, std::__ndk1::char_traits<char> >, geodeExecFunction7<(anonymous namespace)::ExecFuncUnique7>(geode::ModStateEvent*)::{lambda(double)#1}&&, geode::Mod*)::{lambda(std::__ndk1::shared_ptr<geode::SettingV3>)#1}, std::__ndk1::allocator<geode::listenForSettingChangesV3<double, geodeExecFunction7<(anonymous namespace)::ExecFuncUnique7>(geode::ModStateEvent*)::{lambda(double)#1}>(std::__ndk1::basic_string_view<char, std::__ndk1::char_traits<char> >, geodeExecFunction7<(anonymous namespace)::ExecFuncUnique7>(geode::ModStateEvent*)::{lambda(double)#1}&&, geode::Mod*)::{lambda(std::__ndk1::shared_ptr<geode::SettingV3>)#1}>, void (std::__ndk1::shared_ptr<geode::SettingV3>)>::operator()(std::__ndk1::shared_ptr<geode::SettingV3>&&)
PUBLIC 3e0ac 0 std::__ndk1::__function::__func<geode::listenForSettingChangesV3<double, geodeExecFunction7<(anonymous namespace)::ExecFuncUnique7>(geode::ModStateEvent*)::{lambda(double)#1}>(std::__ndk1::basic_string_view<char, std::__ndk1::char_traits<char> >, geodeExecFunction7<(anonymous namespace)::ExecFuncUnique7>(geode::ModStateEvent*)::{lambda(double)#1}&&, geode::Mod*)::{lambda(std::__ndk1::shared_ptr<geode::SettingV3>)#1}, std::__ndk1::allocator<geode::listenForSettingChangesV3<double, geodeExecFunction7<(anonymous namespace)::ExecFuncUnique7>(geode::ModStateEvent*)::{lambda(double)#1}>(std::__ndk1::basic_string_view<char, std::__ndk1::char_traits<char> >, geodeExecFunction7<(anonymous namespace)::ExecFuncUnique7>(geode::ModStateEvent*)::{lambda(double)#1}&&, geode::Mod*)::{lambda(std::__ndk1::shared_ptr<geode::SettingV3>)#1}>, void (std::__ndk1::shared_ptr<geode::SettingV3>)>::target(std::type_info const&) const
PUBLIC 3e0c8 0 std::__ndk1::__function::__func<geode::listenForSettingChangesV3<double, geodeExecFunction7<(anonymous namespace)::ExecFuncUnique7>(geode::ModStateEvent*)::{lambda(double)#1}>(std::__ndk1::basic_string_view<char, std::__ndk1::char_traits<char> >, geodeExecFunction7<(anonymous namespace)::ExecFuncUnique7>(geode::ModStateEvent*)::{lambda(double)#1}&&, geode::Mod*)::{lambda(std::__ndk1::shared_ptr<geode::SettingV3>)#1}, std::__ndk1::allocator<geode::listenForSettingChangesV3<double, geodeExecFunction7<(anonymous namespace)::ExecFuncUnique7>(geode::ModStateEvent*)::{lambda(double)#1}>(std::__ndk1::basic_string_view<char, std::__ndk1::char_traits<char> >, geodeExecFunction7<(anonymous namespace)::ExecFuncUnique7>(geode::ModStateEvent*)::{lambda(double)#1}&&, geode::Mod*)::{lambda(std::__ndk1::shared_ptr<geode::SettingV3>)#1}>, void (std::__ndk1::shared_ptr<geode::SettingV3>)>::target_type() const
PUBLIC 3e0d4 0 std::__ndk1::shared_ptr<geode::FloatSettingV3>::~shared_ptr[abi:ne180000]()
PUBLIC 3e124 0 geode::EventListener<geode::SettingChangedFilterV3>::getPool() const
PUBLIC 3e128 0 geode::EventListener<geode::SettingChangedFilterV3>::handle(geode::Event*)
PUBLIC 3e29c 0 geode::EventListener<geode::SettingChangedFilterV3>::~EventListener()
PUBLIC 3e338 0 geode::EventListener<geode::SettingChangedFilterV3>::~EventListener()
PUBLIC 3e3dc 0 std::__ndk1::__function::__func<geode::listenForSettingChangesV3<double, geodeExecFunction7<(anonymous namespace)::ExecFuncUnique7>(geode::ModStateEvent*)::{lambda(double)#2}>(std::__ndk1::basic_string_view<char, std::__ndk1::char_traits<char> >, geodeExecFunction7<(anonymous namespace)::ExecFuncUnique7>(geode::ModStateEvent*)::{lambda(double)#2}&&, geode::Mod*)::{lambda(std::__ndk1::shared_ptr<geode::SettingV3>)#1}, std::__ndk1::allocator<geode::listenForSettingChangesV3<double, geodeExecFunction7<(anonymous namespace)::ExecFuncUnique7>(geode::ModStateEvent*)::{lambda(double)#2}>(std::__ndk1::basic_string_view<char, std::__ndk1::char_traits<char> >, geodeExecFunction7<(anonymous namespace)::ExecFuncUnique7>(geode::ModStateEvent*)::{lambda(double)#2}&&, geode::Mod*)::{lambda(std::__ndk1::shared_ptr<geode::SettingV3>)#1}>, void (std::__ndk1::shared_ptr<geode::SettingV3>)>::~__func()
PUBLIC 3e3e0 0 std::__ndk1::__function::__func<geode::listenForSettingChangesV3<double, geodeExecFunction7<(anonymous namespace)::ExecFuncUnique7>(geode::ModStateEvent*)::{lambda(double)#2}>(std::__ndk1::basic_string_view<char, std::__ndk1::char_traits<char> >, geodeExecFunction7<(anonymous namespace)::ExecFuncUnique7>(geode::ModStateEvent*)::{lambda(double)#2}&&, geode::Mod*)::{lambda(std::__ndk1::shared_ptr<geode::SettingV3>)#1}, std::__ndk1::allocator<geode::listenForSettingChangesV3<double, geodeExecFunction7<(anonymous namespace)::ExecFuncUnique7>(geode::ModStateEvent*)::{lambda(double)#2}>(std::__ndk1::basic_string_view<char, std::__ndk1::char_traits<char> >, geodeExecFunction7<(anonymous namespace)::ExecFuncUnique7>(geode::ModStateEvent*)::{lambda(double)#2}&&, geode::Mod*)::{lambda(std::__ndk1::shared_ptr<geode::SettingV3>)#1}>, void (std::__ndk1::shared_ptr<geode::SettingV3>)>::__clone() const
PUBLIC 3e418 0 std::__ndk1::__function::__func<geode::listenForSettingChangesV3<double, geodeExecFunction7<(anonymous namespace)::ExecFuncUnique7>(geode::ModStateEvent*)::{lambda(double)#2}>(std::__ndk1::basic_string_view<char, std::__ndk1::char_traits<char> >, geodeExecFunction7<(anonymous namespace)::ExecFuncUnique7>(geode::ModStateEvent*)::{lambda(double)#2}&&, geode::Mod*)::{lambda(std::__ndk1::shared_ptr<geode::SettingV3>)#1}, std::__ndk1::allocator<geode::listenForSettingChangesV3<double, geodeExecFunction7<(anonymous namespace)::ExecFuncUnique7>(geode::ModStateEvent*)::{lambda(double)#2}>(std::__ndk1::basic_string_view<char, std::__ndk1::char_traits<char> >, geodeExecFunction7<(anonymous namespace)::ExecFuncUnique7>(geode::ModStateEvent*)::{lambda(double)#2}&&, geode::Mod*)::{lambda(std::__ndk1::shared_ptr<geode::SettingV3>)#1}>, void (std::__ndk1::shared_ptr<geode::SettingV3>)>::__clone(std::__ndk1::__function::__base<void (std::__ndk1::shared_ptr<geode::SettingV3>)>*) const
PUBLIC 3e430 0 std::__ndk1::__function::__func<geode::listenForSettingChangesV3<double, geodeExecFunction7<(anonymous namespace)::ExecFuncUnique7>(geode::ModStateEvent*)::{lambda(double)#2}>(std::__ndk1::basic_string_view<char, std::__ndk1::char_traits<char> >, geodeExecFunction7<(anonymous namespace)::ExecFuncUnique7>(geode::ModStateEvent*)::{lambda(double)#2}&&, geode::Mod*)::{lambda(std::__ndk1::shared_ptr<geode::SettingV3>)#1}, std::__ndk1::allocator<geode::listenForSettingChangesV3<double, geodeExecFunction7<(anonymous namespace)::ExecFuncUnique7>(geode::ModStateEvent*)::{lambda(double)#2}>(std::__ndk1::basic_string_view<char, std::__ndk1::char_traits<char> >, geodeExecFunction7<(anonymous namespace)::ExecFuncUnique7>(geode::ModStateEvent*)::{lambda(double)#2}&&, geode::Mod*)::{lambda(std::__ndk1::shared_ptr<geode::SettingV3>)#1}>, void (std::__ndk1::shared_ptr<geode::SettingV3>)>::destroy()
PUBLIC 3e434 0 std::__ndk1::__function::__func<geode::listenForSettingChangesV3<double, geodeExecFunction7<(anonymous namespace)::ExecFuncUnique7>(geode::ModStateEvent*)::{lambda(double)#2}>(std::__ndk1::basic_string_view<char, std::__ndk1::char_traits<char> >, geodeExecFunction7<(anonymous namespace)::ExecFuncUnique7>(geode::ModStateEvent*)::{lambda(double)#2}&&, geode::Mod*)::{lambda(std::__ndk1::shared_ptr<geode::SettingV3>)#1}, std::__ndk1::allocator<geode::listenForSettingChangesV3<double, geodeExecFunction7<(anonymous namespace)::ExecFuncUnique7>(geode::ModStateEvent*)::{lambda(double)#2}>(std::__ndk1::basic_string_view<char, std::__ndk1::char_traits<char> >, geodeExecFunction7<(anonymous namespace)::ExecFuncUnique7>(geode::ModStateEvent*)::{lambda(double)#2}&&, geode::Mod*)::{lambda(std::__ndk1::shared_ptr<geode::SettingV3>)#1}>, void (std::__ndk1::shared_ptr<geode::SettingV3>)>::destroy_deallocate()
PUBLIC 3e438 0 std::__ndk1::__function::__func<geode::listenForSettingChangesV3<double, geodeExecFunction7<(anonymous namespace)::ExecFuncUnique7>(geode::ModStateEvent*)::{lambda(double)#2}>(std::__ndk1::basic_string_view<char, std::__ndk1::char_traits<char> >, geodeExecFunction7<(anonymous namespace)::ExecFuncUnique7>(geode::ModStateEvent*)::{lambda(double)#2}&&, geode::Mod*)::{lambda(std::__ndk1::shared_ptr<geode::SettingV3>)#1}, std::__ndk1::allocator<geode::listenForSettingChangesV3<double, geodeExecFunction7<(anonymous namespace)::ExecFuncUnique7>(geode::ModStateEvent*)::{lambda(double)#2}>(std::__ndk1::basic_string_view<char, std::__ndk1::char_traits<char> >, geodeExecFunction7<(anonymous namespace)::ExecFuncUnique7>(geode::ModStateEvent*)::{lambda(double)#2}&&, geode::Mod*)::{lambda(std::__ndk1::shared_ptr<geode::SettingV3>)#1}>, void (std::__ndk1::shared_ptr<geode::SettingV3>)>::operator()(std::__ndk1::shared_ptr<geode::SettingV3>&&)
PUBLIC 3e618 0 std::__ndk1::__function::__func<geode::listenForSettingChangesV3<double, geodeExecFunction7<(anonymous namespace)::ExecFuncUnique7>(geode::ModStateEvent*)::{lambda(double)#2}>(std::__ndk1::basic_string_view<char, std::__ndk1::char_traits<char> >, geodeExecFunction7<(anonymous namespace)::ExecFuncUnique7>(geode::ModStateEvent*)::{lambda(double)#2}&&, geode::Mod*)::{lambda(std::__ndk1::shared_ptr<geode::SettingV3>)#1}, std::__ndk1::allocator<geode::listenForSettingChangesV3<double, geodeExecFunction7<(anonymous namespace)::ExecFuncUnique7>(geode::ModStateEvent*)::{lambda(double)#2}>(std::__ndk1::basic_string_view<char, std::__ndk1::char_traits<char> >, geodeExecFunction7<(anonymous namespace)::ExecFuncUnique7>(geode::ModStateEvent*)::{lambda(double)#2}&&, geode::Mod*)::{lambda(std::__ndk1::shared_ptr<geode::SettingV3>)#1}>, void (std::__ndk1::shared_ptr<geode::SettingV3>)>::target(std::type_info const&) const
PUBLIC 3e634 0 std::__ndk1::__function::__func<geode::listenForSettingChangesV3<double, geodeExecFunction7<(anonymous namespace)::ExecFuncUnique7>(geode::ModStateEvent*)::{lambda(double)#2}>(std::__ndk1::basic_string_view<char, std::__ndk1::char_traits<char> >, geodeExecFunction7<(anonymous namespace)::ExecFuncUnique7>(geode::ModStateEvent*)::{lambda(double)#2}&&, geode::Mod*)::{lambda(std::__ndk1::shared_ptr<geode::SettingV3>)#1}, std::__ndk1::allocator<geode::listenForSettingChangesV3<double, geodeExecFunction7<(anonymous namespace)::ExecFuncUnique7>(geode::ModStateEvent*)::{lambda(double)#2}>(std::__ndk1::basic_string_view<char, std::__ndk1::char_traits<char> >, geodeExecFunction7<(anonymous namespace)::ExecFuncUnique7>(geode::ModStateEvent*)::{lambda(double)#2}&&, geode::Mod*)::{lambda(std::__ndk1::shared_ptr<geode::SettingV3>)#1}>, void (std::__ndk1::shared_ptr<geode::SettingV3>)>::target_type() const
PUBLIC 3e640 0 std::__ndk1::__function::__base<void (std::__ndk1::shared_ptr<geode::SettingV3>)>::~__base()
PUBLIC 3e644 0 std::__ndk1::__function::__func<geode::listenForSettingChangesV3<bool, geodeExecFunction7<(anonymous namespace)::ExecFuncUnique7>(geode::ModStateEvent*)::{lambda(bool)#1}>(std::__ndk1::basic_string_view<char, std::__ndk1::char_traits<char> >, geodeExecFunction7<(anonymous namespace)::ExecFuncUnique7>(geode::ModStateEvent*)::{lambda(bool)#1}&&, geode::Mod*)::{lambda(std::__ndk1::shared_ptr<geode::SettingV3>)#1}, std::__ndk1::allocator<geode::listenForSettingChangesV3<bool, geodeExecFunction7<(anonymous namespace)::ExecFuncUnique7>(geode::ModStateEvent*)::{lambda(bool)#1}>(std::__ndk1::basic_string_view<char, std::__ndk1::char_traits<char> >, geodeExecFunction7<(anonymous namespace)::ExecFuncUnique7>(geode::ModStateEvent*)::{lambda(bool)#1}&&, geode::Mod*)::{lambda(std::__ndk1::shared_ptr<geode::SettingV3>)#1}>, void (std::__ndk1::shared_ptr<geode::SettingV3>)>::~__func()
PUBLIC 3e648 0 std::__ndk1::__function::__func<geode::listenForSettingChangesV3<bool, geodeExecFunction7<(anonymous namespace)::ExecFuncUnique7>(geode::ModStateEvent*)::{lambda(bool)#1}>(std::__ndk1::basic_string_view<char, std::__ndk1::char_traits<char> >, geodeExecFunction7<(anonymous namespace)::ExecFuncUnique7>(geode::ModStateEvent*)::{lambda(bool)#1}&&, geode::Mod*)::{lambda(std::__ndk1::shared_ptr<geode::SettingV3>)#1}, std::__ndk1::allocator<geode::listenForSettingChangesV3<bool, geodeExecFunction7<(anonymous namespace)::ExecFuncUnique7>(geode::ModStateEvent*)::{lambda(bool)#1}>(std::__ndk1::basic_string_view<char, std::__ndk1::char_traits<char> >, geodeExecFunction7<(anonymous namespace)::ExecFuncUnique7>(geode::ModStateEvent*)::{lambda(bool)#1}&&, geode::Mod*)::{lambda(std::__ndk1::shared_ptr<geode::SettingV3>)#1}>, void (std::__ndk1::shared_ptr<geode::SettingV3>)>::__clone() const
PUBLIC 3e680 0 std::__ndk1::__function::__func<geode::listenForSettingChangesV3<bool, geodeExecFunction7<(anonymous namespace)::ExecFuncUnique7>(geode::ModStateEvent*)::{lambda(bool)#1}>(std::__ndk1::basic_string_view<char, std::__ndk1::char_traits<char> >, geodeExecFunction7<(anonymous namespace)::ExecFuncUnique7>(geode::ModStateEvent*)::{lambda(bool)#1}&&, geode::Mod*)::{lambda(std::__ndk1::shared_ptr<geode::SettingV3>)#1}, std::__ndk1::allocator<geode::listenForSettingChangesV3<bool, geodeExecFunction7<(anonymous namespace)::ExecFuncUnique7>(geode::ModStateEvent*)::{lambda(bool)#1}>(std::__ndk1::basic_string_view<char, std::__ndk1::char_traits<char> >, geodeExecFunction7<(anonymous namespace)::ExecFuncUnique7>(geode::ModStateEvent*)::{lambda(bool)#1}&&, geode::Mod*)::{lambda(std::__ndk1::shared_ptr<geode::SettingV3>)#1}>, void (std::__ndk1::shared_ptr<geode::SettingV3>)>::__clone(std::__ndk1::__function::__base<void (std::__ndk1::shared_ptr<geode::SettingV3>)>*) const
PUBLIC 3e698 0 std::__ndk1::__function::__func<geode::listenForSettingChangesV3<bool, geodeExecFunction7<(anonymous namespace)::ExecFuncUnique7>(geode::ModStateEvent*)::{lambda(bool)#1}>(std::__ndk1::basic_string_view<char, std::__ndk1::char_traits<char> >, geodeExecFunction7<(anonymous namespace)::ExecFuncUnique7>(geode::ModStateEvent*)::{lambda(bool)#1}&&, geode::Mod*)::{lambda(std::__ndk1::shared_ptr<geode::SettingV3>)#1}, std::__ndk1::allocator<geode::listenForSettingChangesV3<bool, geodeExecFunction7<(anonymous namespace)::ExecFuncUnique7>(geode::ModStateEvent*)::{lambda(bool)#1}>(std::__ndk1::basic_string_view<char, std::__ndk1::char_traits<char> >, geodeExecFunction7<(anonymous namespace)::ExecFuncUnique7>(geode::ModStateEvent*)::{lambda(bool)#1}&&, geode::Mod*)::{lambda(std::__ndk1::shared_ptr<geode::SettingV3>)#1}>, void (std::__ndk1::shared_ptr<geode::SettingV3>)>::destroy()
PUBLIC 3e69c 0 std::__ndk1::__function::__func<geode::listenForSettingChangesV3<bool, geodeExecFunction7<(anonymous namespace)::ExecFuncUnique7>(geode::ModStateEvent*)::{lambda(bool)#1}>(std::__ndk1::basic_string_view<char, std::__ndk1::char_traits<char> >, geodeExecFunction7<(anonymous namespace)::ExecFuncUnique7>(geode::ModStateEvent*)::{lambda(bool)#1}&&, geode::Mod*)::{lambda(std::__ndk1::shared_ptr<geode::SettingV3>)#1}, std::__ndk1::allocator<geode::listenForSettingChangesV3<bool, geodeExecFunction7<(anonymous namespace)::ExecFuncUnique7>(geode::ModStateEvent*)::{lambda(bool)#1}>(std::__ndk1::basic_string_view<char, std::__ndk1::char_traits<char> >, geodeExecFunction7<(anonymous namespace)::ExecFuncUnique7>(geode::ModStateEvent*)::{lambda(bool)#1}&&, geode::Mod*)::{lambda(std::__ndk1::shared_ptr<geode::SettingV3>)#1}>, void (std::__ndk1::shared_ptr<geode::SettingV3>)>::destroy_deallocate()
PUBLIC 3e6a0 0 std::__ndk1::__function::__func<geode::listenForSettingChangesV3<bool, geodeExecFunction7<(anonymous namespace)::ExecFuncUnique7>(geode::ModStateEvent*)::{lambda(bool)#1}>(std::__ndk1::basic_string_view<char, std::__ndk1::char_traits<char> >, geodeExecFunction7<(anonymous namespace)::ExecFuncUnique7>(geode::ModStateEvent*)::{lambda(bool)#1}&&, geode::Mod*)::{lambda(std::__ndk1::shared_ptr<geode::SettingV3>)#1}, std::__ndk1::allocator<geode::listenForSettingChangesV3<bool, geodeExecFunction7<(anonymous namespace)::ExecFuncUnique7>(geode::ModStateEvent*)::{lambda(bool)#1}>(std::__ndk1::basic_string_view<char, std::__ndk1::char_traits<char> >, geodeExecFunction7<(anonymous namespace)::ExecFuncUnique7>(geode::ModStateEvent*)::{lambda(bool)#1}&&, geode::Mod*)::{lambda(std::__ndk1::shared_ptr<geode::SettingV3>)#1}>, void (std::__ndk1::shared_ptr<geode::SettingV3>)>::operator()(std::__ndk1::shared_ptr<geode::SettingV3>&&)
PUBLIC 3e888 0 std::__ndk1::__function::__func<geode::listenForSettingChangesV3<bool, geodeExecFunction7<(anonymous namespace)::ExecFuncUnique7>(geode::ModStateEvent*)::{lambda(bool)#1}>(std::__ndk1::basic_string_view<char, std::__ndk1::char_traits<char> >, geodeExecFunction7<(anonymous namespace)::ExecFuncUnique7>(geode::ModStateEvent*)::{lambda(bool)#1}&&, geode::Mod*)::{lambda(std::__ndk1::shared_ptr<geode::SettingV3>)#1}, std::__ndk1::allocator<geode::listenForSettingChangesV3<bool, geodeExecFunction7<(anonymous namespace)::ExecFuncUnique7>(geode::ModStateEvent*)::{lambda(bool)#1}>(std::__ndk1::basic_string_view<char, std::__ndk1::char_traits<char> >, geodeExecFunction7<(anonymous namespace)::ExecFuncUnique7>(geode::ModStateEvent*)::{lambda(bool)#1}&&, geode::Mod*)::{lambda(std::__ndk1::shared_ptr<geode::SettingV3>)#1}>, void (std::__ndk1::shared_ptr<geode::SettingV3>)>::target(std::type_info const&) const
PUBLIC 3e8a4 0 std::__ndk1::__function::__func<geode::listenForSettingChangesV3<bool, geodeExecFunction7<(anonymous namespace)::ExecFuncUnique7>(geode::ModStateEvent*)::{lambda(bool)#1}>(std::__ndk1::basic_string_view<char, std::__ndk1::char_traits<char> >, geodeExecFunction7<(anonymous namespace)::ExecFuncUnique7>(geode::ModStateEvent*)::{lambda(bool)#1}&&, geode::Mod*)::{lambda(std::__ndk1::shared_ptr<geode::SettingV3>)#1}, std::__ndk1::allocator<geode::listenForSettingChangesV3<bool, geodeExecFunction7<(anonymous namespace)::ExecFuncUnique7>(geode::ModStateEvent*)::{lambda(bool)#1}>(std::__ndk1::basic_string_view<char, std::__ndk1::char_traits<char> >, geodeExecFunction7<(anonymous namespace)::ExecFuncUnique7>(geode::ModStateEvent*)::{lambda(bool)#1}&&, geode::Mod*)::{lambda(std::__ndk1::shared_ptr<geode::SettingV3>)#1}>, void (std::__ndk1::shared_ptr<geode::SettingV3>)>::target_type() const
PUBLIC 3e8b0 0 std::__ndk1::shared_ptr<geode::BoolSettingV3>::~shared_ptr[abi:ne180000]()
PUBLIC 3e900 0 geode::EventListener<geode::ModStateFilter>::getPool() const
PUBLIC 3e904 0 geode::EventListener<geode::ModStateFilter>::handle(geode::Event*)
PUBLIC 3ea78 0 geode::EventListener<geode::ModStateFilter>::~EventListener()
PUBLIC 3ead4 0 geode::EventListener<geode::ModStateFilter>::~EventListener()
PUBLIC 3eb38 0 std::__ndk1::__function::__base<void (geode::ModStateEvent*)>::~__base()
PUBLIC 3eb3c 0 std::__ndk1::__function::__func<void (*)(geode::ModStateEvent*), std::__ndk1::allocator<void (*)(geode::ModStateEvent*)>, void (geode::ModStateEvent*)>::~__func()
PUBLIC 3eb40 0 std::__ndk1::__function::__func<void (*)(geode::ModStateEvent*), std::__ndk1::allocator<void (*)(geode::ModStateEvent*)>, void (geode::ModStateEvent*)>::__clone() const
PUBLIC 3eb74 0 std::__ndk1::__function::__func<void (*)(geode::ModStateEvent*), std::__ndk1::allocator<void (*)(geode::ModStateEvent*)>, void (geode::ModStateEvent*)>::__clone(std::__ndk1::__function::__base<void (geode::ModStateEvent*)>*) const
PUBLIC 3eb88 0 std::__ndk1::__function::__func<void (*)(geode::ModStateEvent*), std::__ndk1::allocator<void (*)(geode::ModStateEvent*)>, void (geode::ModStateEvent*)>::destroy()
PUBLIC 3eb8c 0 std::__ndk1::__function::__func<void (*)(geode::ModStateEvent*), std::__ndk1::allocator<void (*)(geode::ModStateEvent*)>, void (geode::ModStateEvent*)>::destroy_deallocate()
PUBLIC 3eb90 0 std::__ndk1::__function::__func<void (*)(geode::ModStateEvent*), std::__ndk1::allocator<void (*)(geode::ModStateEvent*)>, void (geode::ModStateEvent*)>::operator()(geode::ModStateEvent*&&)
PUBLIC 3eba0 0 std::__ndk1::__function::__func<void (*)(geode::ModStateEvent*), std::__ndk1::allocator<void (*)(geode::ModStateEvent*)>, void (geode::ModStateEvent*)>::target(std::type_info const&) const
PUBLIC 3ebbc 0 std::__ndk1::__function::__func<void (*)(geode::ModStateEvent*), std::__ndk1::allocator<void (*)(geode::ModStateEvent*)>, void (geode::ModStateEvent*)>::target_type() const
PUBLIC 3ebc8 0 _GLOBAL__sub_I_main.cpp
PUBLIC 3ecf4 0 __cxx_global_var_init
PUBLIC 3f178 0 geode::modifier::ModifyBase<geode::modifier::ModifyDerive<MyMenuLayer, MenuLayer> >::~ModifyBase()
PUBLIC 3f190 0 __cxx_global_var_init.1
PUBLIC 3f614 0 geode::modifier::ModifyBase<geode::modifier::ModifyDerive<MyPauseLayer, PauseLayer> >::~ModifyBase()
PUBLIC 3f62c 0 __cxx_global_var_init.2
PUBLIC 3fab0 0 geode::modifier::ModifyBase<geode::modifier::ModifyDerive<MyEditLevelLayer, EditLevelLayer> >::~ModifyBase()
PUBLIC 3fac8 0 __cxx_global_var_init.3
PUBLIC 3ff4c 0 geode::modifier::ModifyBase<geode::modifier::ModifyDerive<MyCreatorLayer, CreatorLayer> >::~ModifyBase()
PUBLIC 3ff64 0 __cxx_global_var_init.4
PUBLIC 403e8 0 geode::modifier::ModifyBase<geode::modifier::ModifyDerive<MyEditorPauseLayer, EditorPauseLayer> >::~ModifyBase()
PUBLIC 40400 0 __cxx_global_var_init.5
PUBLIC 40884 0 geode::modifier::ModifyBase<geode::modifier::ModifyDerive<MyLevelInfoLayer, LevelInfoLayer> >::~ModifyBase()
PUBLIC 4089c 0 geode::modifier::ModifyDerive<MyMenuLayer, MenuLayer>::apply()
PUBLIC 40b90 0 std::__ndk1::shared_ptr<geode::Hook>::~shared_ptr[abi:ne180000]()
PUBLIC 40be0 0 geode::impl::ResultData<geode::Hook*, std::__ndk1::basic_string<char, std::__ndk1::char_traits<char>, std::__ndk1::allocator<char> > >::~ResultData()
PUBLIC 40c54 0 geode::modifier::ModifyBase<geode::modifier::ModifyDerive<MyMenuLayer, MenuLayer> >::apply()
PUBLIC 40c58 0 _ZN5geode15UnwrapExceptionC2IRPNS_4HookEQsr4implE18IsStringStreamableIT_EEENS_4impl5OkTagEOS5_
PUBLIC 40dac 0 std::__ndk1::__variant_detail::__visitation::__base::__dispatcher<(unsigned long)0>::__dispatch[abi:ne180000]<std::__ndk1::__variant_detail::__dtor<std::__ndk1::__variant_detail::__traits<geode::Hook*, std::__ndk1::basic_string<char, std::__ndk1::char_traits<char>, std::__ndk1::allocator<char> > >, (std::__ndk1::__variant_detail::_Trait)1>::__destroy[abi:ne180000]()::{lambda(auto:1&)#1}, std::__ndk1::__variant_detail::__base<(std::__ndk1::__variant_detail::__traits<geode::Hook*, std::__ndk1::basic_string<char, std::__ndk1::char_traits<char>, std::__ndk1::allocator<char> > >)1, geode::Hook, std::__ndk1::allocator<char> >&>(std::__ndk1::__variant_detail::__dtor<std::__ndk1::__variant_detail::__traits<geode::Hook*, std::__ndk1::basic_string<char, std::__ndk1::char_traits<char>, std::__ndk1::allocator<char> > >, (std::__ndk1::__variant_detail::_Trait)1>, std::__ndk1::__variant_detail::__base<(std::__ndk1::__variant_detail::__traits<geode::Hook*, std::__ndk1::basic_string<char, std::__ndk1::char_traits<char>, std::__ndk1::allocator<char> > >)1, geode::Hook, std::__ndk1::allocator<char> >&)
PUBLIC 40db0 0 std::__ndk1::__variant_detail::__visitation::__base::__dispatcher<(unsigned long)1>::__dispatch[abi:ne180000]<std::__ndk1::__variant_detail::__dtor<std::__ndk1::__variant_detail::__traits<geode::Hook*, std::__ndk1::basic_string<char, std::__ndk1::char_traits<char>, std::__ndk1::allocator<char> > >, (std::__ndk1::__variant_detail::_Trait)1>::__destroy[abi:ne180000]()::{lambda(auto:1&)#1}, std::__ndk1::__variant_detail::__base<(std::__ndk1::__variant_detail::__traits<geode::Hook*, std::__ndk1::basic_string<char, std::__ndk1::char_traits<char>, std::__ndk1::allocator<char> > >)1, geode::Hook, std::__ndk1::allocator<char> >&>(std::__ndk1::__variant_detail::__dtor<std::__ndk1::__variant_detail::__traits<geode::Hook*, std::__ndk1::basic_string<char, std::__ndk1::char_traits<char>, std::__ndk1::allocator<char> > >, (std::__ndk1::__variant_detail::_Trait)1>, std::__ndk1::__variant_detail::__base<(std::__ndk1::__variant_detail::__traits<geode::Hook*, std::__ndk1::basic_string<char, std::__ndk1::char_traits<char>, std::__ndk1::allocator<char> > >)1, geode::Hook, std::__ndk1::allocator<char> >&)
PUBLIC 40dc4 0 std::__ndk1::__tree<std::__ndk1::__value_type<std::__ndk1::basic_string<char, std::__ndk1::char_traits<char>, std::__ndk1::allocator<char> >, std::__ndk1::shared_ptr<geode::Hook> >, std::__ndk1::__map_value_compare<std::__ndk1::basic_string<char, std::__ndk1::char_traits<char>, std::__ndk1::allocator<char> >, std::__ndk1::__value_type<std::__ndk1::basic_string<char, std::__ndk1::char_traits<char>, std::__ndk1::allocator<char> >, std::__ndk1::shared_ptr<geode::Hook> >, std::__ndk1::less<std::__ndk1::basic_string<char, std::__ndk1::char_traits<char>, std::__ndk1::allocator<char> > >, true>, std::__ndk1::allocator<std::__ndk1::__value_type<std::__ndk1::basic_string<char, std::__ndk1::char_traits<char>, std::__ndk1::allocator<char> >, std::__ndk1::shared_ptr<geode::Hook> > > >::find<std::__ndk1::basic_string<char, std::__ndk1::char_traits<char>, std::__ndk1::allocator<char> > >(std::__ndk1::basic_string<char, std::__ndk1::char_traits<char>, std::__ndk1::allocator<char> > const&)
PUBLIC 40ee4 0 std::__ndk1::__tree<std::__ndk1::__value_type<std::__ndk1::basic_string<char, std::__ndk1::char_traits<char>, std::__ndk1::allocator<char> >, std::__ndk1::shared_ptr<geode::Hook> >, std::__ndk1::__map_value_compare<std::__ndk1::basic_string<char, std::__ndk1::char_traits<char>, std::__ndk1::allocator<char> >, std::__ndk1::__value_type<std::__ndk1::basic_string<char, std::__ndk1::char_traits<char>, std::__ndk1::allocator<char> >, std::__ndk1::shared_ptr<geode::Hook> >, std::__ndk1::less<std::__ndk1::basic_string<char, std::__ndk1::char_traits<char>, std::__ndk1::allocator<char> > >, true>, std::__ndk1::allocator<std::__ndk1::__value_type<std::__ndk1::basic_string<char, std::__ndk1::char_traits<char>, std::__ndk1::allocator<char> >, std::__ndk1::shared_ptr<geode::Hook> > > >::erase(std::__ndk1::__tree_const_iterator<std::__ndk1::__value_type<std::__ndk1::basic_string<char, std::__ndk1::char_traits<char>, std::__ndk1::allocator<char> >, std::__ndk1::shared_ptr<geode::Hook> >, std::__ndk1::__tree_node<std::__ndk1::__value_type<std::__ndk1::basic_string<char, std::__ndk1::char_traits<char>, std::__ndk1::allocator<char> >, std::__ndk1::shared_ptr<geode::Hook> >, void*>*, long>)
PUBLIC 41388 0 std::__ndk1::__tree<std::__ndk1::__value_type<std::__ndk1::basic_string<char, std::__ndk1::char_traits<char>, std::__ndk1::allocator<char> >, std::__ndk1::shared_ptr<geode::Hook> >, std::__ndk1::__map_value_compare<std::__ndk1::basic_string<char, std::__ndk1::char_traits<char>, std::__ndk1::allocator<char> >, std::__ndk1::__value_type<std::__ndk1::basic_string<char, std::__ndk1::char_traits<char>, std::__ndk1::allocator<char> >, std::__ndk1::shared_ptr<geode::Hook> >, std::__ndk1::less<std::__ndk1::basic_string<char, std::__ndk1::char_traits<char>, std::__ndk1::allocator<char> > >, true>, std::__ndk1::allocator<std::__ndk1::__value_type<std::__ndk1::basic_string<char, std::__ndk1::char_traits<char>, std::__ndk1::allocator<char> >, std::__ndk1::shared_ptr<geode::Hook> > > >::destroy(std::__ndk1::__tree_node<std::__ndk1::__value_type<std::__ndk1::basic_string<char, std::__ndk1::char_traits<char>, std::__ndk1::allocator<char> >, std::__ndk1::shared_ptr<geode::Hook> >, void*>*)
PUBLIC 4140c 0 geode::modifier::AsStaticFunction_init<MyMenuLayer, bool (MyMenuLayer::*)()>::Impl<bool (MyMenuLayer::*)()>::function(MyMenuLayer*)
PUBLIC 4166c 0 geode::addresser::Addresser::addressOfVirtual<bool, MenuLayer, >(bool (MenuLayer::*)())
PUBLIC 41714 0 MenuLayer::MenuLayer(geode::ZeroConstructorType)
PUBLIC 417b0 0 std::__ndk1::shared_ptr<tulip::hook::CallingConvention>::~shared_ptr[abi:ne180000]()
PUBLIC 41800 0 tulip::hook::HandlerMetadata::~HandlerMetadata()
PUBLIC 41864 0 std::__ndk1::vector<tulip::hook::AbstractType, std::__ndk1::allocator<tulip::hook::AbstractType> >::__throw_length_error[abi:ne180000]() const
PUBLIC 41878 0 MyMenuLayer::onQibla(cocos2d::CCObject*)
PUBLIC 4187c 0 std::__ndk1::__tree<std::__ndk1::__value_type<std::__ndk1::basic_string<char, std::__ndk1::char_traits<char>, std::__ndk1::allocator<char> >, std::__ndk1::shared_ptr<geode::Hook> >, std::__ndk1::__map_value_compare<std::__ndk1::basic_string<char, std::__ndk1::char_traits<char>, std::__ndk1::allocator<char> >, std::__ndk1::__value_type<std::__ndk1::basic_string<char, std::__ndk1::char_traits<char>, std::__ndk1::allocator<char> >, std::__ndk1::shared_ptr<geode::Hook> >, std::__ndk1::less<std::__ndk1::basic_string<char, std::__ndk1::char_traits<char>, std::__ndk1::allocator<char> > >, true>, std::__ndk1::allocator<std::__ndk1::__value_type<std::__ndk1::basic_string<char, std::__ndk1::char_traits<char>, std::__ndk1::allocator<char> >, std::__ndk1::shared_ptr<geode::Hook> > > >::__emplace_unique_key_args<std::__ndk1::basic_string<char, std::__ndk1::char_traits<char>, std::__ndk1::allocator<char> >, std::__ndk1::piecewise_construct_t const&, std::__ndk1::tuple<std::__ndk1::basic_string<char, std::__ndk1::char_traits<char>, std::__ndk1::allocator<char> >&&>, std::__ndk1::tuple<> >(std::__ndk1::basic_string<char, std::__ndk1::char_traits<char>, std::__ndk1::allocator<char> > const&, std::__ndk1::piecewise_construct_t const&, std::__ndk1::tuple<std::__ndk1::basic_string<char, std::__ndk1::char_traits<char>, std::__ndk1::allocator<char> >&&>, std::__ndk1::tuple<>)
PUBLIC 419e4 0 std::__ndk1::__tree_balance_after_insert[abi:ne180000]<std::__ndk1::__tree_node_base<void*>*>(std::__ndk1::__tree_node_base<void*>*, std::__ndk1::__tree_node_base<void*>*)
PUBLIC 41b94 0 geode::modifier::ModifyDerive<MyPauseLayer, PauseLayer>::apply()
PUBLIC 41eb0 0 geode::modifier::ModifyBase<geode::modifier::ModifyDerive<MyPauseLayer, PauseLayer> >::apply()
PUBLIC 41eb4 0 geode::modifier::AsStaticFunction_customSetup<MyPauseLayer, void (MyPauseLayer::*)()>::Impl<void (MyPauseLayer::*)()>::function(MyPauseLayer*)
PUBLIC 41f04 0 geode::addresser::Addresser::addressOfVirtual<void, PauseLayer, >(void (PauseLayer::*)())
PUBLIC 41fac 0 PauseLayer::PauseLayer(geode::ZeroConstructorType)
PUBLIC 42038 0 MyPauseLayer::onQibla(cocos2d::CCObject*)
PUBLIC 4203c 0 geode::modifier::ModifyDerive<MyEditLevelLayer, EditLevelLayer>::apply()
PUBLIC 42394 0 geode::modifier::ModifyBase<geode::modifier::ModifyDerive<MyEditLevelLayer, EditLevelLayer> >::apply()
PUBLIC 42398 0 geode::modifier::AsStaticFunction_init<MyEditLevelLayer, bool (MyEditLevelLayer::*)(GJGameLevel*)>::Impl<bool (MyEditLevelLayer::*)(GJGameLevel*)>::function(MyEditLevelLayer*, GJGameLevel*)
PUBLIC 423f8 0 MyEditLevelLayer::onQibla(cocos2d::CCObject*)
PUBLIC 423fc 0 geode::modifier::ModifyDerive<MyCreatorLayer, CreatorLayer>::apply()
PUBLIC 426fc 0 geode::modifier::ModifyBase<geode::modifier::ModifyDerive<MyCreatorLayer, CreatorLayer> >::apply()
PUBLIC 42700 0 geode::modifier::AsStaticFunction_init<MyCreatorLayer, bool (MyCreatorLayer::*)()>::Impl<bool (MyCreatorLayer::*)()>::function(MyCreatorLayer*)
PUBLIC 42760 0 geode::addresser::Addresser::addressOfVirtual<bool, CreatorLayer, >(bool (CreatorLayer::*)())
PUBLIC 42808 0 CreatorLayer::CreatorLayer(geode::ZeroConstructorType)
PUBLIC 428a0 0 MyCreatorLayer::onQibla(cocos2d::CCObject*)
PUBLIC 428a4 0 geode::modifier::ModifyDerive<MyEditorPauseLayer, EditorPauseLayer>::apply()
PUBLIC 42bf0 0 geode::modifier::ModifyBase<geode::modifier::ModifyDerive<MyEditorPauseLayer, EditorPauseLayer> >::apply()
PUBLIC 42bf4 0 geode::modifier::AsStaticFunction_init<MyEditorPauseLayer, bool (MyEditorPauseLayer::*)(LevelEditorLayer*)>::Impl<bool (MyEditorPauseLayer::*)(LevelEditorLayer*)>::function(MyEditorPauseLayer*, LevelEditorLayer*)
PUBLIC 42c54 0 MyEditorPauseLayer::onQibla(cocos2d::CCObject*)
PUBLIC 42c58 0 geode::modifier::ModifyDerive<MyLevelInfoLayer, LevelInfoLayer>::apply()
PUBLIC 42ff4 0 geode::modifier::ModifyBase<geode::modifier::ModifyDerive<MyLevelInfoLayer, LevelInfoLayer> >::apply()
PUBLIC 42ff8 0 geode::modifier::AsStaticFunction_init<MyLevelInfoLayer, bool (MyLevelInfoLayer::*)(GJGameLevel*, bool)>::Impl<bool (MyLevelInfoLayer::*)(GJGameLevel*, bool)>::function(MyLevelInfoLayer*, GJGameLevel*, bool)
PUBLIC 43058 0 MyLevelInfoLayer::onQibla(cocos2d::CCObject*)
PUBLIC 4305c 0 QiblaAlert::create(char const*, std::__ndk1::basic_string<char, std::__ndk1::char_traits<char>, std::__ndk1::allocator<char> > const&, char const*)
PUBLIC 43200 0 QiblaAlert::~QiblaAlert()
PUBLIC 43224 0 cocos2d::CCLayerRGBA::setOpacityModifyRGB(bool)
PUBLIC 43228 0 cocos2d::CCLayerRGBA::isOpacityModifyRGB()
PUBLIC 43230 0 {virtual override thunk({offset(-320)}, QiblaAlert::~QiblaAlert())}
PUBLIC 43238 0 {virtual override thunk({offset(-320)}, QiblaAlert::~QiblaAlert())}
PUBLIC 43260 0 cocos2d::CCKeyboardDelegate::keyUp(cocos2d::enumKeyCodes)
PUBLIC 43264 0 cocos2d::CCMouseDelegate::rightKeyDown()
PUBLIC 43268 0 cocos2d::CCMouseDelegate::rightKeyUp()
PUBLIC 4326c 0 cocos2d::CCMouseDelegate::scrollWheel(float, float)
PUBLIC 43270 0 {virtual override thunk({offset(-408)}, cocos2d::CCLayerRGBA::setOpacityModifyRGB(bool))}
PUBLIC 43274 0 {virtual override thunk({offset(-408)}, cocos2d::CCLayerRGBA::isOpacityModifyRGB())}
PUBLIC m 4327c 0 geodeImplicitEntry
PUBLIC 432b8 0 std::__ndk1::unordered_map<void*, bool, std::__ndk1::hash<void*>, std::__ndk1::equal_to<void*>, std::__ndk1::allocator<std::__ndk1::pair<void* const, bool> > >::~unordered_map[abi:ne180000]()
PUBLIC 43304 0 wrapFunction(unsigned long, tulip::hook::WrapperMetadata const&)
PUBLIC 43438 0 geode::impl::ResultData<void*, std::__ndk1::basic_string<char, std::__ndk1::char_traits<char>, std::__ndk1::allocator<char> > >::unwrapErr() &
PUBLIC 434b0 0 geode::impl::ResultData<void*, std::__ndk1::basic_string<char, std::__ndk1::char_traits<char>, std::__ndk1::allocator<char> > >::~ResultData()
PUBLIC 43524 0 tulip::hook::WrapperMetadata::~WrapperMetadata()
PUBLIC 43588 0 cocos2d::CCObject::~CCObject()
PUBLIC 435ac 0 cocos2d::CCNode::CCNode()
PUBLIC 43808 0 cocos2d::CCNode::~CCNode()
PUBLIC 4382c 0 {virtual override thunk({offset(-320)}, cocos2d::CCLayer::~CCLayer())}
PUBLIC 43834 0 cocos2d::CCLayer::~CCLayer()
PUBLIC 43858 0 {virtual override thunk({offset(-320)}, cocos2d::CCLayer::~CCLayer())}
PUBLIC 43880 0 cocos2d::CCLayerRGBA::~CCLayerRGBA()
PUBLIC 43b80 0 {virtual override thunk({offset(-320)}, cocos2d::CCLayerRGBA::~CCLayerRGBA())}
PUBLIC 43b88 0 cocos2d::CCLayerRGBA::~CCLayerRGBA()
PUBLIC 43bac 0 {virtual override thunk({offset(-320)}, cocos2d::CCLayerRGBA::~CCLayerRGBA())}
PUBLIC 43bd4 0 cocos2d::CCLayerColor::CCLayerColor()
PUBLIC 43e38 0 {virtual override thunk({offset(-320)}, cocos2d::CCLayerColor::~CCLayerColor())}
PUBLIC 43e40 0 cocos2d::CCLayerColor::~CCLayerColor()
PUBLIC 43e64 0 {virtual override thunk({offset(-320)}, cocos2d::CCLayerColor::~CCLayerColor())}
PUBLIC 43e8c 0 {virtual override thunk({offset(-320)}, FLAlertLayer::~FLAlertLayer())}
PUBLIC 43e94 0 FLAlertLayer::~FLAlertLayer()
PUBLIC 43eb8 0 {virtual override thunk({offset(-320)}, FLAlertLayer::~FLAlertLayer())}
PUBLIC 43ee0 0 FLAlertLayer::create(FLAlertLayerProtocol*, char const*, gd::string, char const*, char const*, float, bool, float, float)
PUBLIC 440b8 0 tulip::hook::AbstractFunction::from<FLAlertLayer*, FLAlertLayerProtocol*, char const*, gd::string, char const*, char const*, float, bool, float, float>(FLAlertLayer* (*)(FLAlertLayerProtocol*, char const*, gd::string, char const*, char const*, float, bool, float, float))
PUBLIC 4489c 0 FLAlertLayer::init(FLAlertLayerProtocol*, char const*, gd::string, char const*, char const*, float, bool, float, float)
PUBLIC 44a84 0 tulip::hook::AbstractFunction::from<bool, FLAlertLayer*, FLAlertLayerProtocol*, char const*, gd::string, char const*, char const*, float, bool, float, float>(bool (*)(FLAlertLayer*, FLAlertLayerProtocol*, char const*, gd::string, char const*, char const*, float, bool, float, float))
PUBLIC 4537c 0 cocos2d::CCObject::update(float)
PUBLIC 45380 0 cocos2d::CCLayerColor::~CCLayerColor()
PUBLIC 45664 0 FLAlertLayer::~FLAlertLayer()
PUBLIC 45948 0 cocos2d::CCNode::~CCNode()
PUBLIC 45be8 0 cocos2d::CCLayer::~CCLayer()
PUBLIC 45ed8 0 cocos2d::CCObject::~CCObject()
PUBLIC 463bc 0 _ZN5geode15UnwrapExceptionC2IRPvQsr4implE18IsStringStreamableIT_EEENS_4impl5OkTagEOS4_
PUBLIC 46510 0 std::__ndk1::__variant_detail::__visitation::__base::__dispatcher<(unsigned long)0>::__dispatch[abi:ne180000]<std::__ndk1::__variant_detail::__dtor<std::__ndk1::__variant_detail::__traits<void*, std::__ndk1::basic_string<char, std::__ndk1::char_traits<char>, std::__ndk1::allocator<char> > >, (std::__ndk1::__variant_detail::_Trait)1>::__destroy[abi:ne180000]()::{lambda(auto:1&)#1}, std::__ndk1::__variant_detail::__base<(std::__ndk1::__variant_detail::__traits<void*, std::__ndk1::basic_string<char, std::__ndk1::char_traits<char>, std::__ndk1::allocator<char> > >)1, std::__ndk1::__variant_detail::__traits, std::__ndk1::allocator<char> >&>(std::__ndk1::__variant_detail::__dtor<std::__ndk1::__variant_detail::__traits<void*, std::__ndk1::basic_string<char, std::__ndk1::char_traits<char>, std::__ndk1::allocator<char> > >, (std::__ndk1::__variant_detail::_Trait)1>, std::__ndk1::__variant_detail::__base<(std::__ndk1::__variant_detail::__traits<void*, std::__ndk1::basic_string<char, std::__ndk1::char_traits<char>, std::__ndk1::allocator<char> > >)1, std::__ndk1::__variant_detail::__traits, std::__ndk1::allocator<char> >&)
PUBLIC 46514 0 std::__ndk1::__variant_detail::__visitation::__base::__dispatcher<(unsigned long)1>::__dispatch[abi:ne180000]<std::__ndk1::__variant_detail::__dtor<std::__ndk1::__variant_detail::__traits<void*, std::__ndk1::basic_string<char, std::__ndk1::char_traits<char>, std::__ndk1::allocator<char> > >, (std::__ndk1::__variant_detail::_Trait)1>::__destroy[abi:ne180000]()::{lambda(auto:1&)#1}, std::__ndk1::__variant_detail::__base<(std::__ndk1::__variant_detail::__traits<void*, std::__ndk1::basic_string<char, std::__ndk1::char_traits<char>, std::__ndk1::allocator<char> > >)1, std::__ndk1::__variant_detail::__traits, std::__ndk1::allocator<char> >&>(std::__ndk1::__variant_detail::__dtor<std::__ndk1::__variant_detail::__traits<void*, std::__ndk1::basic_string<char, std::__ndk1::char_traits<char>, std::__ndk1::allocator<char> > >, (std::__ndk1::__variant_detail::_Trait)1>, std::__ndk1::__variant_detail::__base<(std::__ndk1::__variant_detail::__traits<void*, std::__ndk1::basic_string<char, std::__ndk1::char_traits<char>, std::__ndk1::allocator<char> > >)1, std::__ndk1::__variant_detail::__traits, std::__ndk1::allocator<char> >&)
PUBLIC 46528 0 std::__ndk1::__hash_table<std::__ndk1::__hash_value_type<void*, bool>, std::__ndk1::__unordered_map_hasher<void*, std::__ndk1::__hash_value_type<void*, bool>, std::__ndk1::hash<void*>, std::__ndk1::equal_to<void*>, true>, std::__ndk1::__unordered_map_equal<void*, std::__ndk1::__hash_value_type<void*, bool>, std::__ndk1::equal_to<void*>, std::__ndk1::hash<void*>, true>, std::__ndk1::allocator<std::__ndk1::__hash_value_type<void*, bool> > >::__emplace_unique_key_args<void*, std::__ndk1::piecewise_construct_t const&, std::__ndk1::tuple<void* const&>, std::__ndk1::tuple<> >(void* const&, std::__ndk1::piecewise_construct_t const&, std::__ndk1::tuple<void* const&>, std::__ndk1::tuple<>)
PUBLIC 46a34 0 __udivti3
PUBLIC 46a40 0 __udivmodti4
PUBLIC m 46c8c 0 __eqtf2
PUBLIC 46d2c 0 __unordtf2
PUBLIC 46d64 0 fmt::v11::detail::write_loc(fmt::v11::basic_appender<char>, fmt::v11::loc_value, fmt::v11::format_specs const&, fmt::v11::detail::locale_ref)
PUBLIC 46ff8 0 fmt::v11::format_facet<std::__ndk1::locale>::~format_facet()
PUBLIC 47074 0 fmt::v11::report_error(char const*)
PUBLIC 470c4 0 fmt::v11::format_error::runtime_error(char const*)
PUBLIC 470f0 0 fmt::v11::format_facet<std::__ndk1::locale>::do_put(fmt::v11::basic_appender<char>, fmt::v11::loc_value, fmt::v11::format_specs const&) const
PUBLIC 478b0 0 fmt::v11::detail::loc_writer<char>::~loc_writer()
PUBLIC 47914 0 fmt::v11::detail::vformat_to<char>(fmt::v11::detail::buffer<char>&, fmt::v11::basic_string_view<char>, fmt::v11::detail::vformat_args<char>::type, fmt::v11::detail::locale_ref)
PUBLIC 47e84 0 fmt::v11::detail::is_printable(unsigned int)
PUBLIC 480ac 0 fmt::v11::detail::dragonbox::to_decimal<float>(float)
PUBLIC 48388 0 fmt::v11::detail::dragonbox::to_decimal<double>(double)
PUBLIC 488c4 0 fmt::v11::basic_memory_buffer<char, (unsigned long)500, std::__ndk1::allocator<char> >::grow(fmt::v11::detail::buffer<char>&, unsigned long)
PUBLIC 4893c 0 fmt::v11::format_facet<std::__ndk1::locale>::~format_facet()
PUBLIC 489c8 0 fmt::v11::format_error::~format_error()
PUBLIC 489ec 0 fmt::v11::detail::copy_noinline<char, char const*, fmt::v11::basic_appender<char> >(char const*, char const*, fmt::v11::basic_appender<char>)
PUBLIC 48b3c 0 fmt::v11::detail::default_arg_formatter<char>::operator()<bool>(bool)
PUBLIC 48ba4 0 fmt::v11::detail::default_arg_formatter<char>::operator()<char>(char)
PUBLIC 48c34 0 fmt::v11::detail::default_arg_formatter<char>::operator()<float>(float)
PUBLIC 48d20 0 fmt::v11::detail::default_arg_formatter<char>::operator()<double>(double)
PUBLIC 48e0c 0 fmt::v11::detail::default_arg_formatter<char>::operator()<char const*>(char const*)
PUBLIC 48e54 0 fmt::v11::detail::default_arg_formatter<char>::operator()<void const*>(void const*)
PUBLIC 48eec 0 _ZN3fmt3v116detail5writeIcNS0_14basic_appenderIcEEiTnNSt6__ndk19enable_ifIXaaaasr11is_integralIT1_EE5valuentsr3std7is_sameIS7_bEE5valuentsr3std7is_sameIS7_T_EE5valueEiE4typeELi0EEET0_SB_S7_
PUBLIC 4914c 0 fmt::v11::detail::copy_noinline<char, char*, fmt::v11::basic_appender<char> >(char*, char*, fmt::v11::basic_appender<char>)
PUBLIC 4929c 0 _ZN3fmt3v116detail5writeIcNS0_14basic_appenderIcEEjTnNSt6__ndk19enable_ifIXaaaasr11is_integralIT1_EE5valuentsr3std7is_sameIS7_bEE5valuentsr3std7is_sameIS7_T_EE5valueEiE4typeELi0EEET0_SB_S7_
PUBLIC 4947c 0 _ZN3fmt3v116detail5writeIcNS0_14basic_appenderIcEExTnNSt6__ndk19enable_ifIXaaaasr11is_integralIT1_EE5valuentsr3std7is_sameIS7_bEE5valuentsr3std7is_sameIS7_T_EE5valueEiE4typeELi0EEET0_SB_S7_
PUBLIC 49700 0 _ZN3fmt3v116detail5writeIcNS0_14basic_appenderIcEEyTnNSt6__ndk19enable_ifIXaaaasr11is_integralIT1_EE5valuentsr3std7is_sameIS7_bEE5valuentsr3std7is_sameIS7_T_EE5valueEiE4typeELi0EEET0_SB_S7_
PUBLIC 49908 0 _ZN3fmt3v116detail5writeIcNS0_14basic_appenderIcEEnTnNSt6__ndk19enable_ifIXaaaasr11is_integralIT1_EE5valuentsr3std7is_sameIS7_bEE5valuentsr3std7is_sameIS7_T_EE5valueEiE4typeELi0EEET0_SB_S7_
PUBLIC 49c68 0 _ZN3fmt3v116detail5writeIcNS0_14basic_appenderIcEEoTnNSt6__ndk19enable_ifIXaaaasr11is_integralIT1_EE5valuentsr3std7is_sameIS7_bEE5valuentsr3std7is_sameIS7_T_EE5valueEiE4typeELi0EEET0_SB_S7_
PUBLIC 49f7c 0 _ZN3fmt3v116detail5writeIcNS0_14basic_appenderIcEEbTnNSt6__ndk19enable_ifIXsr3std7is_sameIT1_bEE5valueEiE4typeELi0EEET0_SA_S7_RKNS0_12format_specsENS1_10locale_refE
PUBLIC 4a230 0 fmt::v11::detail::write_int_noinline<char, fmt::v11::basic_appender<char>, unsigned int>(fmt::v11::basic_appender<char>, fmt::v11::detail::write_int_arg<unsigned int>, fmt::v11::format_specs const&, fmt::v11::detail::locale_ref)
PUBLIC 4b010 0 fmt::v11::detail::write_padded<char, (fmt::v11::align::type)1, fmt::v11::basic_appender<char>, fmt::v11::detail::write_char<char, fmt::v11::basic_appender<char> >(fmt::v11::basic_appender<char>, char, fmt::v11::format_specs const&)::{lambda(fmt::v11::basic_appender<char>&)#1}>(fmt::v11::basic_appender<char>, fmt::v11::format_specs const&, unsigned long, unsigned long, fmt::v11::detail::write_char<char, fmt::v11::basic_appender<char> >(fmt::v11::basic_appender<char>, char, fmt::v11::format_specs const&)::{lambda(fmt::v11::basic_appender<char>&)#1})
PUBLIC 4b274 0 fmt::v11::detail::write_padded<char, (fmt::v11::align::type)1, fmt::v11::basic_appender<char>, fmt::v11::detail::write_nonfinite<char, fmt::v11::basic_appender<char> >(fmt::v11::basic_appender<char>, bool, fmt::v11::format_specs, fmt::v11::sign::type)::{lambda(fmt::v11::basic_appender<char>&)#1}>(fmt::v11::basic_appender<char>, fmt::v11::format_specs const&, unsigned long, unsigned long, fmt::v11::detail::write_nonfinite<char, fmt::v11::basic_appender<char> >(fmt::v11::basic_appender<char>, bool, fmt::v11::format_specs, fmt::v11::sign::type)::{lambda(fmt::v11::basic_appender<char>&)#1})
PUBLIC 4b4cc 0 fmt::v11::detail::do_write_float<char, fmt::v11::basic_appender<char>, fmt::v11::detail::dragonbox::decimal_fp<float>, fmt::v11::detail::digit_grouping<char> >(fmt::v11::basic_appender<char>, fmt::v11::detail::dragonbox::decimal_fp<float> const&, fmt::v11::format_specs const&, fmt::v11::detail::float_specs, fmt::v11::detail::locale_ref)
PUBLIC 4c150 0 fmt::v11::detail::do_write_float<char, fmt::v11::basic_appender<char>, fmt::v11::detail::dragonbox::decimal_fp<float>, fmt::v11::detail::digit_grouping<char> >(fmt::v11::basic_appender<char>, fmt::v11::detail::dragonbox::decimal_fp<float> const&, fmt::v11::format_specs const&, fmt::v11::detail::float_specs, fmt::v11::detail::locale_ref)::{lambda(fmt::v11::basic_appender<char>(fmt::v11::basic_appender<char>))#1}::operator() const
PUBLIC 4c2a4 0 fmt::v11::detail::digit_grouping<char>::digit_grouping(fmt::v11::detail::locale_ref, bool)
PUBLIC 4c510 0 fmt::v11::detail::digit_grouping<char>::~digit_grouping()
PUBLIC 4c554 0 fmt::v11::detail::write_exponent<char, fmt::v11::basic_appender<char> >(int, fmt::v11::basic_appender<char>)
PUBLIC 4c724 0 _ZN3fmt3v116detail17write_significandIcjTnNSt6__ndk19enable_ifIXsr3std11is_integralIT0_EE5valueEiE4typeELi0EEEPT_S9_S5_iiS8_
PUBLIC 4c8a0 0 fmt::v11::detail::digit_grouping<char>::apply<fmt::v11::basic_appender<char>, char>(fmt::v11::basic_appender<char>, fmt::v11::basic_string_view<char>) const
PUBLIC 4cc58 0 fmt::v11::basic_memory_buffer<int, (unsigned long)500, std::__ndk1::allocator<int> >::grow(fmt::v11::detail::buffer<int>&, unsigned long)
PUBLIC 4ccf8 0 fmt::v11::detail::do_write_float<char, fmt::v11::basic_appender<char>, fmt::v11::detail::dragonbox::decimal_fp<double>, fmt::v11::detail::digit_grouping<char> >(fmt::v11::basic_appender<char>, fmt::v11::detail::dragonbox::decimal_fp<double> const&, fmt::v11::format_specs const&, fmt::v11::detail::float_specs, fmt::v11::detail::locale_ref)
PUBLIC 4d9b8 0 fmt::v11::detail::do_write_float<char, fmt::v11::basic_appender<char>, fmt::v11::detail::dragonbox::decimal_fp<double>, fmt::v11::detail::digit_grouping<char> >(fmt::v11::basic_appender<char>, fmt::v11::detail::dragonbox::decimal_fp<double> const&, fmt::v11::format_specs const&, fmt::v11::detail::float_specs, fmt::v11::detail::locale_ref)::{lambda(fmt::v11::basic_appender<char>(fmt::v11::basic_appender<char>))#1}::operator() const
PUBLIC 4db10 0 _ZN3fmt3v116detail17write_significandIcmTnNSt6__ndk19enable_ifIXsr3std11is_integralIT0_EE5valueEiE4typeELi0EEEPT_S9_S5_iiS8_
PUBLIC 4dca0 0 fmt::v11::detail::write_float<char, fmt::v11::basic_appender<char>, long double>(fmt::v11::basic_appender<char>, long double, fmt::v11::format_specs, fmt::v11::detail::locale_ref)
PUBLIC 4e798 0 fmt::v11::detail::write_padded<char, (fmt::v11::align::type)2, fmt::v11::basic_appender<char>, fmt::v11::detail::write_bytes<char, (fmt::v11::align::type)2, fmt::v11::basic_appender<char> >(fmt::v11::basic_appender<char>, fmt::v11::basic_string_view<char>, fmt::v11::format_specs const&)::{lambda(fmt::v11::basic_appender<char>&)#1}>(fmt::v11::basic_appender<char>, fmt::v11::format_specs const&, unsigned long, unsigned long, fmt::v11::detail::write_bytes<char, (fmt::v11::align::type)2, fmt::v11::basic_appender<char> >(fmt::v11::basic_appender<char>, fmt::v11::basic_string_view<char>, fmt::v11::format_specs const&)::{lambda(fmt::v11::basic_appender<char>&)#1})
PUBLIC 4e98c 0 fmt::v11::detail::format_dragon(fmt::v11::detail::basic_fp<unsigned __int128>, unsigned int, int, fmt::v11::detail::buffer<char>&, int&)
PUBLIC 4fdbc 0 fmt::v11::detail::bigint::operator<<=(int)
PUBLIC 4fee0 0 fmt::v11::detail::bigint::assign_pow10(int)
PUBLIC 5063c 0 fmt::v11::detail::bigint::divmod_assign(fmt::v11::detail::bigint const&)
PUBLIC 5095c 0 fmt::v11::basic_memory_buffer<unsigned int, (unsigned long)32, std::__ndk1::allocator<unsigned int> >::grow(fmt::v11::detail::buffer<unsigned int>&, unsigned long)
PUBLIC 509fc 0 fmt::v11::detail::do_write_float<char, fmt::v11::basic_appender<char>, fmt::v11::detail::big_decimal_fp, fmt::v11::detail::digit_grouping<char> >(fmt::v11::basic_appender<char>, fmt::v11::detail::big_decimal_fp const&, fmt::v11::format_specs const&, fmt::v11::detail::float_specs, fmt::v11::detail::locale_ref)
PUBLIC 518dc 0 fmt::v11::detail::do_write_float<char, fmt::v11::basic_appender<char>, fmt::v11::detail::big_decimal_fp, fmt::v11::detail::digit_grouping<char> >(fmt::v11::basic_appender<char>, fmt::v11::detail::big_decimal_fp const&, fmt::v11::format_specs const&, fmt::v11::detail::float_specs, fmt::v11::detail::locale_ref)::{lambda(fmt::v11::basic_appender<char>(fmt::v11::basic_appender<char>))#1}::operator() const
PUBLIC 51a3c 0 fmt::v11::detail::write_padded<char, (fmt::v11::align::type)2, fmt::v11::basic_appender<char>, fmt::v11::detail::write_ptr<char, fmt::v11::basic_appender<char>, unsigned long>(fmt::v11::basic_appender<char>, unsigned long, fmt::v11::format_specs const*)::{lambda(fmt::v11::basic_appender<char>&)#1}>(fmt::v11::basic_appender<char>, fmt::v11::format_specs const&, unsigned long, unsigned long, fmt::v11::detail::write_ptr<char, fmt::v11::basic_appender<char>, unsigned long>(fmt::v11::basic_appender<char>, unsigned long, fmt::v11::format_specs const*)::{lambda(fmt::v11::basic_appender<char>&)#1})
PUBLIC 51c50 0 fmt::v11::detail::parse_replacement_field<char, fmt::v11::detail::vformat_to<char>(fmt::v11::detail::buffer<char>&, fmt::v11::basic_string_view<char>, fmt::v11::detail::vformat_args<char>::type, fmt::v11::detail::locale_ref)::format_handler&>(char const*, char const*, fmt::v11::detail::vformat_to<char>(fmt::v11::detail::buffer<char>&, fmt::v11::basic_string_view<char>, fmt::v11::detail::vformat_args<char>::type, fmt::v11::detail::locale_ref)::format_handler&)
PUBLIC 53104 0 fmt::v11::detail::write_int_noinline<char, fmt::v11::basic_appender<char>, unsigned long>(fmt::v11::basic_appender<char>, fmt::v11::detail::write_int_arg<unsigned long>, fmt::v11::format_specs const&, fmt::v11::detail::locale_ref)
PUBLIC 53f64 0 fmt::v11::detail::write_int_noinline<char, fmt::v11::basic_appender<char>, unsigned __int128>(fmt::v11::basic_appender<char>, fmt::v11::detail::write_int_arg<unsigned __int128>, fmt::v11::format_specs const&, fmt::v11::detail::locale_ref)
PUBLIC 54ff4 0 _ZN3fmt3v116detail15format_hexfloatIdTnNSt6__ndk19enable_ifIXntsr16is_double_doubleIT_EE5valueEiE4typeELi0EEEvS5_NS0_12format_specsERNS1_6bufferIcEE
PUBLIC 55514 0 fmt::v11::detail::format_float<double>(double, int, fmt::v11::detail::float_specs, fmt::v11::detail::buffer<char>&)
PUBLIC 55eb4 0 fmt::v11::detail::write_int<fmt::v11::basic_appender<char>, unsigned long, char>(fmt::v11::basic_appender<char>, unsigned long, unsigned int, fmt::v11::format_specs const&, fmt::v11::detail::digit_grouping<char> const&)
PUBLIC 56430 0 fmt::v11::detail::write_int<fmt::v11::basic_appender<char>, unsigned __int128, char>(fmt::v11::basic_appender<char>, unsigned __int128, unsigned int, fmt::v11::format_specs const&, fmt::v11::detail::digit_grouping<char> const&)
PUBLIC 56ab0 0 <.plt ELF section in raydeeux.qiblafinder.android64.so>
STACK CFI INIT 23900 10 .cfa: sp 0 +
STACK CFI INIT 23910 8 .cfa: sp 0 +
STACK CFI INIT 23918 8 .cfa: sp 0 +
STACK CFI INIT 23920 14 .cfa: sp 0 +
STACK CFI INIT 23934 1c .cfa: sp 0 +
STACK CFI INIT 23950 10 .cfa: sp 0 +
STACK CFI INIT 23960 134 .cfa: sp 0 +
STACK CFI INIT 23a94 84 .cfa: sp 0 +
STACK CFI INIT 23b18 f4 .cfa: sp 0 +
STACK CFI INIT 23c0c a8 .cfa: sp 0 +
STACK CFI INIT 23cb4 7c .cfa: sp 0 +
STACK CFI INIT 23d30 14 .cfa: sp 0 +
STACK CFI INIT 23d44 40 .cfa: sp 0 +
STACK CFI INIT 23d84 28 .cfa: sp 0 +
STACK CFI INIT 23dac 190 .cfa: sp 0 +
STACK CFI INIT 23f3c 2c8 .cfa: sp 0 +
STACK CFI INIT 24204 8 .cfa: sp 0 +
STACK CFI INIT 2420c 8 .cfa: sp 0 +
STACK CFI INIT 24214 44 .cfa: sp 0 +
STACK CFI INIT 24258 e8 .cfa: sp 0 +
STACK CFI INIT 24340 e8 .cfa: sp 0 +
STACK CFI INIT 24428 14 .cfa: sp 0 +
STACK CFI INIT 2443c 10 .cfa: sp 0 +
STACK CFI INIT 2444c 10 .cfa: sp 0 +
STACK CFI INIT 2445c f0 .cfa: sp 0 +
STACK CFI INIT 2454c 44 .cfa: sp 0 +
STACK CFI INIT 24590 c .cfa: sp 0 +
STACK CFI INIT 2459c c .cfa: sp 0 +
STACK CFI INIT 245a8 2c .cfa: sp 0 +
STACK CFI INIT 245d4 280 .cfa: sp 0 +
STACK CFI INIT 24854 c .cfa: sp 0 +
STACK CFI INIT 24860 120 .cfa: sp 0 +
STACK CFI INIT 24980 488 .cfa: sp 0 +
STACK CFI INIT 24e08 c48 .cfa: sp 0 +
STACK CFI INIT 25a50 134 .cfa: sp 0 +
STACK CFI INIT 25b84 210 .cfa: sp 0 +
STACK CFI INIT 25d94 38c .cfa: sp 0 +
STACK CFI INIT 26120 1c8 .cfa: sp 0 +
STACK CFI INIT 262e8 9bc .cfa: sp 0 +
STACK CFI INIT 26ca4 2d4 .cfa: sp 0 +
STACK CFI INIT 26f78 134 .cfa: sp 0 +
STACK CFI INIT 270ac 120 .cfa: sp 0 +
STACK CFI INIT 271cc 1c8 .cfa: sp 0 +
STACK CFI INIT 27394 168 .cfa: sp 0 +
STACK CFI INIT 274fc fc .cfa: sp 0 +
STACK CFI INIT 275f8 30 .cfa: sp 0 +
STACK CFI INIT 27760 30 .cfa: sp 0 +
STACK CFI INIT 27790 98 .cfa: sp 0 +
STACK CFI INIT 27828 59c .cfa: sp 0 +
STACK CFI INIT 27dc4 8c .cfa: sp 0 +
STACK CFI INIT 27e50 30 .cfa: sp 0 +
STACK CFI INIT 27e80 60 .cfa: sp 0 +
STACK CFI 27e84 .cfa: sp 32 +
STACK CFI 27e8c .cfa: x29 32 + x19: .cfa -8 + ^ x20: .cfa -16 + ^ .ra: .cfa -24 + ^ x29: .cfa -32 + ^
STACK CFI 27eac .cfa: sp 32 +
STACK CFI 27eb4 .cfa: sp 0 +
STACK CFI 27eb8 .cfa: x29 32 +
STACK CFI 27ed4 .cfa: sp 32 +
STACK CFI 27edc .cfa: sp 0 +
STACK CFI INIT 27ee0 9c .cfa: sp 0 +
STACK CFI 27ee4 .cfa: sp 32 +
STACK CFI 27eec .cfa: x29 32 + x19: .cfa -16 + ^ .ra: .cfa -24 + ^ x29: .cfa -32 + ^
STACK CFI 27f20 .cfa: sp 32 +
STACK CFI 27f28 .cfa: sp 0 +
STACK CFI 27f2c .cfa: x29 32 +
STACK CFI 27f4c .cfa: sp 32 +
STACK CFI 27f54 .cfa: sp 0 +
STACK CFI 27f58 .cfa: sp 32 +
STACK CFI 27f60 .cfa: sp 0 +
STACK CFI 27f64 .cfa: x29 32 +
STACK CFI 27f70 .cfa: sp 32 +
STACK CFI 27f78 .cfa: sp 0 +
STACK CFI INIT 28f4c 9c .cfa: sp 0 +
STACK CFI 28f50 .cfa: sp 48 +
STACK CFI 28f5c .cfa: x29 48 + x19: .cfa -8 + ^ x20: .cfa -16 + ^ x21: .cfa -24 + ^ x22: .cfa -32 + ^ .ra: .cfa -40 + ^ x29: .cfa -48 + ^
STACK CFI 28f90 .cfa: sp 48 +
STACK CFI 28f9c .cfa: sp 0 +
STACK CFI 28fa0 .cfa: x29 48 +
STACK CFI 28fd0 .cfa: sp 48 +
STACK CFI 28fdc .cfa: sp 0 +
STACK CFI 28fe0 .cfa: x29 48 +
STACK CFI INIT 2c4e4 50 .cfa: sp 0 +
STACK CFI 2c4e8 .cfa: sp 32 +
STACK CFI 2c4f0 .cfa: x29 32 + x19: .cfa -16 + ^ .ra: .cfa -24 + ^ x29: .cfa -32 + ^
STACK CFI 2c508 .cfa: sp 32 +
STACK CFI 2c510 .cfa: sp 0 +
STACK CFI 2c514 .cfa: x29 32 +
STACK CFI 2c528 .cfa: sp 32 +
STACK CFI 2c530 .cfa: sp 0 +
STACK CFI INIT 2c534 1f4 .cfa: sp 0 +
STACK CFI 2c538 .cfa: sp 112 +
STACK CFI 2c550 .cfa: x29 64 + x19: .cfa -8 + ^ x20: .cfa -16 + ^ x21: .cfa -24 + ^ x22: .cfa -32 + ^ x23: .cfa -40 + ^ x24: .cfa -48 + ^ .ra: .cfa -56 + ^ x29: .cfa -64 + ^ v8: .cfa -80 + ^
STACK CFI 2c708 .cfa: sp 112 +
STACK CFI 2c720 .cfa: sp 0 +
STACK CFI 2c724 .cfa: x29 64 +
STACK CFI INIT 2c728 98 .cfa: sp 0 +
STACK CFI 2c72c .cfa: sp 304 +
STACK CFI 2c738 .cfa: x29 32 + x19: .cfa -8 + ^ x28: .cfa -16 + ^ .ra: .cfa -24 + ^ x29: .cfa -32 + ^
STACK CFI 2c7ac .cfa: sp 304 +
STACK CFI 2c7b8 .cfa: sp 0 +
STACK CFI 2c7bc .cfa: x29 32 +
STACK CFI INIT 2c7c0 54 .cfa: sp 0 +
STACK CFI 2c7c4 .cfa: sp 32 +
STACK CFI 2c7cc .cfa: x29 32 + x19: .cfa -16 + ^ .ra: .cfa -24 + ^ x29: .cfa -32 + ^
STACK CFI 2c7e8 .cfa: sp 32 +
STACK CFI 2c7f0 .cfa: sp 0 +
STACK CFI 2c7f4 .cfa: x29 32 +
STACK CFI 2c808 .cfa: sp 32 +
STACK CFI 2c810 .cfa: sp 0 +
STACK CFI INIT 2c814 10 .cfa: sp 0 +
STACK CFI 2c818 .cfa: sp 16 +
STACK CFI 2c81c .cfa: x29 16 + .ra: .cfa -8 + ^ x29: .cfa -16 + ^
STACK CFI INIT 2c824 14 .cfa: sp 0 +
STACK CFI 2c828 .cfa: sp 16 +
STACK CFI 2c82c .cfa: x29 16 + .ra: .cfa -8 + ^ x29: .cfa -16 + ^
STACK CFI INIT 2c888 30 .cfa: sp 0 +
STACK CFI 2c88c .cfa: sp 32 +
STACK CFI 2c894 .cfa: x29 32 + x19: .cfa -16 + ^ .ra: .cfa -24 + ^ x29: .cfa -32 + ^
STACK CFI 2c8ac .cfa: sp 32 +
STACK CFI 2c8b4 .cfa: sp 0 +
STACK CFI INIT 2c8b8 34 .cfa: sp 0 +
STACK CFI 2c8bc .cfa: sp 32 +
STACK CFI 2c8c4 .cfa: x29 32 + x19: .cfa -16 + ^ .ra: .cfa -24 + ^ x29: .cfa -32 + ^
STACK CFI INIT 2c8ec 34 .cfa: sp 0 +
STACK CFI 2c8f0 .cfa: sp 16 +
STACK CFI 2c8f4 .cfa: x29 16 + .ra: .cfa -8 + ^ x29: .cfa -16 + ^
STACK CFI INIT 2c920 4 .cfa: sp 0 +
STACK CFI INIT 2c924 14 .cfa: sp 0 +
STACK CFI INIT 2c938 ac .cfa: sp 0 +
STACK CFI 2c93c .cfa: sp 64 +
STACK CFI 2c94c .cfa: x29 64 + x19: .cfa -8 + ^ x20: .cfa -16 + ^ x21: .cfa -24 + ^ x22: .cfa -32 + ^ x23: .cfa -48 + ^ .ra: .cfa -56 + ^ x29: .cfa -64 + ^
STACK CFI 2c9c8 .cfa: sp 64 +
STACK CFI 2c9d8 .cfa: sp 0 +
STACK CFI 2c9dc .cfa: x29 64 +
STACK CFI INIT 2c9e4 110 .cfa: sp 0 +
STACK CFI 2c9e8 .cfa: sp 64 +
STACK CFI 2c9f8 .cfa: x29 64 + x19: .cfa -8 + ^ x20: .cfa -16 + ^ x21: .cfa -24 + ^ x22: .cfa -32 + ^ x23: .cfa -40 + ^ x24: .cfa -48 + ^ .ra: .cfa -56 + ^ x29: .cfa -64 + ^
STACK CFI 2cad8 .cfa: sp 64 +
STACK CFI 2cae8 .cfa: sp 0 +
STACK CFI 2caec .cfa: x29 64 +
STACK CFI INIT 2d204 26c .cfa: sp 0 +
STACK CFI 2d208 .cfa: sp 112 +
STACK CFI 2d224 .cfa: x29 96 + x19: .cfa -8 + ^ x20: .cfa -16 + ^ x21: .cfa -24 + ^ x22: .cfa -32 + ^ x23: .cfa -40 + ^ x24: .cfa -48 + ^ x25: .cfa -56 + ^ x26: .cfa -64 + ^ x27: .cfa -72 + ^ x28: .cfa -80 + ^ .ra: .cfa -88 + ^ x29: .cfa -96 + ^
STACK CFI 2d450 .cfa: sp 112 +
STACK CFI 2d46c .cfa: sp 0 +
STACK CFI INIT 2d470 1a8 .cfa: sp 0 +
STACK CFI 2d474 .cfa: sp 64 +
STACK CFI 2d484 .cfa: x29 64 + x19: .cfa -8 + ^ x20: .cfa -16 + ^ x21: .cfa -24 + ^ x22: .cfa -32 + ^ x23: .cfa -48 + ^ .ra: .cfa -56 + ^ x29: .cfa -64 + ^
STACK CFI 2d508 .cfa: sp 64 +
STACK CFI 2d518 .cfa: sp 0 +
STACK CFI 2d51c .cfa: x29 64 +
STACK CFI 2d524 .cfa: sp 64 +
STACK CFI 2d534 .cfa: sp 0 +
STACK CFI 2d538 .cfa: x29 64 +
STACK CFI 2d600 .cfa: sp 64 +
STACK CFI 2d610 .cfa: sp 0 +
STACK CFI 2d614 .cfa: x29 64 +
STACK CFI INIT 2d618 170 .cfa: sp 0 +
STACK CFI 2d61c .cfa: sp 96 +
STACK CFI 2d634 .cfa: x29 96 + x19: .cfa -8 + ^ x20: .cfa -16 + ^ x21: .cfa -24 + ^ x22: .cfa -32 + ^ x23: .cfa -40 + ^ x24: .cfa -48 + ^ x25: .cfa -56 + ^ x26: .cfa -64 + ^ x27: .cfa -80 + ^ .ra: .cfa -88 + ^ x29: .cfa -96 + ^
STACK CFI 2d768 .cfa: sp 96 +
STACK CFI 2d780 .cfa: sp 0 +
STACK CFI 2d784 .cfa: x29 96 +
STACK CFI INIT 2d7d4 4 .cfa: sp 0 +
STACK CFI INIT 2d7d8 c .cfa: sp 0 +
STACK CFI INIT 2d7e4 4 .cfa: sp 0 +
STACK CFI INIT 2d7e8 4 .cfa: sp 0 +
STACK CFI INIT 2d7ec 24 .cfa: sp 0 +
STACK CFI 2d7f0 .cfa: sp 32 +
STACK CFI 2d7f8 .cfa: x29 32 + x19: .cfa -16 + ^ .ra: .cfa -24 + ^ x29: .cfa -32 + ^
STACK CFI 2d804 .cfa: sp 32 +
STACK CFI 2d80c .cfa: sp 0 +
STACK CFI INIT 2d810 18 .cfa: sp 0 +
STACK CFI INIT 2d828 1c .cfa: sp 0 +
STACK CFI INIT 2d844 4 .cfa: sp 0 +
STACK CFI INIT 2d848 48 .cfa: sp 0 +
STACK CFI 2d864 .cfa: sp 32 +
STACK CFI 2d86c .cfa: x29 32 + x19: .cfa -16 + ^ .ra: .cfa -24 + ^ x29: .cfa -32 + ^
STACK CFI 2d884 .cfa: sp 32 +
STACK CFI 2d88c .cfa: sp 0 +
STACK CFI INIT 2d890 14 .cfa: sp 0 +
STACK CFI INIT 2d8a4 48 .cfa: sp 0 +
STACK CFI 2d8c0 .cfa: sp 32 +
STACK CFI 2d8c8 .cfa: x29 32 + x19: .cfa -16 + ^ .ra: .cfa -24 + ^ x29: .cfa -32 + ^
STACK CFI 2d8e0 .cfa: sp 32 +
STACK CFI 2d8e8 .cfa: sp 0 +
STACK CFI INIT 2e294 3f4 .cfa: sp 0 +
STACK CFI 2e298 .cfa: sp 32 +
STACK CFI 2e2a0 .cfa: x29 32 + x19: .cfa -16 + ^ .ra: .cfa -24 + ^ x29: .cfa -32 + ^
STACK CFI 2e3ec .cfa: sp 32 +
STACK CFI 2e3f4 .cfa: sp 0 +
STACK CFI 2e3f8 .cfa: x29 32 +
STACK CFI 2e400 .cfa: sp 32 +
STACK CFI 2e408 .cfa: sp 0 +
STACK CFI 2e40c .cfa: x29 32 +
STACK CFI 2e448 .cfa: sp 32 +
STACK CFI 2e450 .cfa: sp 0 +
STACK CFI 2e454 .cfa: x29 32 +
STACK CFI 2e490 .cfa: sp 32 +
STACK CFI 2e498 .cfa: sp 0 +
STACK CFI 2e49c .cfa: x29 32 +
STACK CFI 2e4c8 .cfa: sp 32 +
STACK CFI 2e4d0 .cfa: sp 0 +
STACK CFI 2e4d4 .cfa: x29 32 +
STACK CFI 2e4f0 .cfa: sp 32 +
STACK CFI 2e4f8 .cfa: sp 0 +
STACK CFI 2e4fc .cfa: x29 32 +
STACK CFI 2e560 .cfa: sp 32 +
STACK CFI 2e568 .cfa: sp 0 +
STACK CFI 2e56c .cfa: x29 32 +
STACK CFI 2e63c .cfa: sp 32 +
STACK CFI 2e644 .cfa: sp 0 +
STACK CFI 2e648 .cfa: x29 32 +
STACK CFI 2e674 .cfa: sp 32 +
STACK CFI 2e67c .cfa: sp 0 +
STACK CFI 2e680 .cfa: x29 32 +
STACK CFI INIT 2e6f4 b4 .cfa: sp 0 +
STACK CFI 2e6f8 .cfa: sp 64 +
STACK CFI 2e708 .cfa: x29 64 + x19: .cfa -8 + ^ x20: .cfa -16 + ^ x21: .cfa -24 + ^ x22: .cfa -32 + ^ x23: .cfa -48 + ^ .ra: .cfa -56 + ^ x29: .cfa -64 + ^
STACK CFI 2e794 .cfa: sp 64 +
STACK CFI 2e7a4 .cfa: sp 0 +
STACK CFI INIT 2e7f4 48 .cfa: sp 0 +
STACK CFI 2e810 .cfa: sp 32 +
STACK CFI 2e818 .cfa: x29 32 + x19: .cfa -16 + ^ .ra: .cfa -24 + ^ x29: .cfa -32 + ^
STACK CFI 2e830 .cfa: sp 32 +
STACK CFI 2e838 .cfa: sp 0 +
STACK CFI INIT 2e83c 64 .cfa: sp 0 +
STACK CFI INIT 2e8a0 48 .cfa: sp 0 +
STACK CFI 2e8bc .cfa: sp 32 +
STACK CFI 2e8c4 .cfa: x29 32 + x19: .cfa -16 + ^ .ra: .cfa -24 + ^ x29: .cfa -32 + ^
STACK CFI 2e8dc .cfa: sp 32 +
STACK CFI 2e8e4 .cfa: sp 0 +
STACK CFI INIT 2e8e8 54 .cfa: sp 0 +
STACK CFI INIT 2e93c 5c .cfa: sp 0 +
STACK CFI 2e940 .cfa: sp 32 +
STACK CFI 2e948 .cfa: x29 32 + x19: .cfa -16 + ^ .ra: .cfa -24 + ^ x29: .cfa -32 + ^
STACK CFI 2e980 .cfa: sp 32 +
STACK CFI 2e988 .cfa: sp 0 +
STACK CFI 2e98c .cfa: sp 32 +
STACK CFI 2e994 .cfa: sp 0 +
STACK CFI INIT 2e998 58 .cfa: sp 0 +
STACK CFI 2e99c .cfa: sp 32 +
STACK CFI 2e9a4 .cfa: x29 32 + x19: .cfa -16 + ^ .ra: .cfa -24 + ^ x29: .cfa -32 + ^
STACK CFI 2e9e4 .cfa: sp 32 +
STACK CFI 2e9ec .cfa: sp 0 +
STACK CFI INIT 2e9f0 110 .cfa: sp 0 +
STACK CFI INIT 2eb00 90 .cfa: sp 0 +
STACK CFI 2eb04 .cfa: sp 32 +
STACK CFI 2eb0c .cfa: x29 32 + x19: .cfa -8 + ^ x20: .cfa -16 + ^ .ra: .cfa -24 + ^ x29: .cfa -32 + ^
STACK CFI 2eb78 .cfa: sp 32 +
STACK CFI 2eb80 .cfa: sp 0 +
STACK CFI 2eb84 .cfa: sp 32 +
STACK CFI 2eb8c .cfa: sp 0 +
STACK CFI INIT 2eb90 8c .cfa: sp 0 +
STACK CFI 2eb94 .cfa: sp 32 +
STACK CFI 2eb9c .cfa: x29 32 + x19: .cfa -8 + ^ x20: .cfa -16 + ^ .ra: .cfa -24 + ^ x29: .cfa -32 + ^
STACK CFI 2ec10 .cfa: sp 32 +
STACK CFI 2ec18 .cfa: sp 0 +
STACK CFI INIT 2f23c 1c8 .cfa: sp 0 +
STACK CFI 2f240 .cfa: sp 48 +
STACK CFI 2f24c .cfa: x29 48 + x19: .cfa -8 + ^ x20: .cfa -16 + ^ x21: .cfa -24 + ^ x22: .cfa -32 + ^ .ra: .cfa -40 + ^ x29: .cfa -48 + ^
STACK CFI 2f3d4 .cfa: sp 48 +
STACK CFI 2f3e0 .cfa: sp 0 +
STACK CFI 2f3e4 .cfa: x29 48 +
STACK CFI 2f3f0 .cfa: sp 48 +
STACK CFI 2f3fc .cfa: sp 0 +
STACK CFI 2f400 .cfa: x29 48 +
STACK CFI INIT 2f404 14 .cfa: sp 0 +
STACK CFI 2f408 .cfa: sp 16 +
STACK CFI 2f40c .cfa: x29 16 + .ra: .cfa -8 + ^ x29: .cfa -16 + ^
STACK CFI INIT 2f418 44 .cfa: sp 0 +
STACK CFI 2f41c .cfa: sp 32 +
STACK CFI 2f424 .cfa: x29 32 + x19: .cfa -16 + ^ .ra: .cfa -24 + ^ x29: .cfa -32 + ^
STACK CFI 2f444 .cfa: sp 32 +
STACK CFI 2f44c .cfa: sp 0 +
STACK CFI 2f450 .cfa: sp 32 +
STACK CFI 2f458 .cfa: sp 0 +
STACK CFI INIT 2f664 98 .cfa: sp 0 +
STACK CFI 2f668 .cfa: sp 48 +
STACK CFI 2f674 .cfa: x29 48 + x19: .cfa -8 + ^ x20: .cfa -16 + ^ x21: .cfa -32 + ^ .ra: .cfa -40 + ^ x29: .cfa -48 + ^
STACK CFI 2f694 .cfa: sp 48 +
STACK CFI 2f6a0 .cfa: sp 0 +
STACK CFI 2f6a4 .cfa: x29 48 +
STACK CFI 2f6dc .cfa: sp 48 +
STACK CFI 2f6e8 .cfa: sp 0 +
STACK CFI 2f6ec .cfa: sp 48 +
STACK CFI 2f6f8 .cfa: sp 0 +
STACK CFI INIT 2f6fc 1dc .cfa: sp 0 +
STACK CFI 2f700 .cfa: sp 48 +
STACK CFI 2f70c .cfa: x29 48 + x19: .cfa -8 + ^ x20: .cfa -16 + ^ x21: .cfa -24 + ^ x22: .cfa -32 + ^ .ra: .cfa -40 + ^ x29: .cfa -48 + ^
STACK CFI 2f8c0 .cfa: sp 48 +
STACK CFI 2f8cc .cfa: sp 0 +
STACK CFI 2f8d0 .cfa: x29 48 +
STACK CFI INIT 2f8d8 14 .cfa: sp 0 +
STACK CFI 2f8dc .cfa: sp 16 +
STACK CFI 2f8e0 .cfa: x29 16 + .ra: .cfa -8 + ^ x29: .cfa -16 + ^
STACK CFI INIT 2f8ec 1a8 .cfa: sp 0 +
STACK CFI 2f8f0 .cfa: sp 64 +
STACK CFI 2f900 .cfa: x29 64 + x19: .cfa -8 + ^ x20: .cfa -16 + ^ x21: .cfa -24 + ^ x22: .cfa -32 + ^ x23: .cfa -40 + ^ x24: .cfa -48 + ^ .ra: .cfa -56 + ^ x29: .cfa -64 + ^
STACK CFI 2fa64 .cfa: sp 64 +
STACK CFI 2fa74 .cfa: sp 0 +
STACK CFI 2fa78 .cfa: sp 64 +
STACK CFI 2fa88 .cfa: sp 0 +
STACK CFI 2fa8c .cfa: x29 64 +
STACK CFI INIT 2fa94 12c .cfa: sp 0 +
STACK CFI 2fa98 .cfa: sp 64 +
STACK CFI 2faa8 .cfa: x29 64 + x19: .cfa -8 + ^ x20: .cfa -16 + ^ x21: .cfa -24 + ^ x22: .cfa -32 + ^ x23: .cfa -40 + ^ x24: .cfa -48 + ^ .ra: .cfa -56 + ^ x29: .cfa -64 + ^
STACK CFI 2fb90 .cfa: sp 64 +
STACK CFI 2fba0 .cfa: sp 0 +
STACK CFI 2fba4 .cfa: sp 64 +
STACK CFI 2fbb4 .cfa: sp 0 +
STACK CFI 2fbb8 .cfa: x29 64 +
STACK CFI INIT 2fbc0 14 .cfa: sp 0 +
STACK CFI 2fbc4 .cfa: sp 16 +
STACK CFI 2fbc8 .cfa: x29 16 + .ra: .cfa -8 + ^ x29: .cfa -16 + ^
STACK CFI INIT 30d14 48 .cfa: sp 0 +
STACK CFI 30d30 .cfa: sp 32 +
STACK CFI 30d38 .cfa: x29 32 + x19: .cfa -16 + ^ .ra: .cfa -24 + ^ x29: .cfa -32 + ^
STACK CFI 30d50 .cfa: sp 32 +
STACK CFI 30d58 .cfa: sp 0 +
STACK CFI INIT 30da8 50c .cfa: sp 0 +
STACK CFI 30dac .cfa: sp 32 +
STACK CFI 30db4 .cfa: x29 32 + x19: .cfa -16 + ^ .ra: .cfa -24 + ^ x29: .cfa -32 + ^
STACK CFI 30efc .cfa: sp 32 +
STACK CFI 30f04 .cfa: sp 0 +
STACK CFI 30f08 .cfa: x29 32 +
STACK CFI 31078 .cfa: sp 32 +
STACK CFI 31080 .cfa: sp 0 +
STACK CFI 31084 .cfa: x29 32 +
STACK CFI 310a0 .cfa: sp 32 +
STACK CFI 310a8 .cfa: sp 0 +
STACK CFI 310ac .cfa: x29 32 +
STACK CFI 31108 .cfa: sp 32 +
STACK CFI 31110 .cfa: sp 0 +
STACK CFI 31114 .cfa: x29 32 +
STACK CFI 31130 .cfa: sp 32 +
STACK CFI 31138 .cfa: sp 0 +
STACK CFI 3113c .cfa: x29 32 +
STACK CFI 31158 .cfa: sp 32 +
STACK CFI 31160 .cfa: sp 0 +
STACK CFI 31164 .cfa: x29 32 +
STACK CFI 31180 .cfa: sp 32 +
STACK CFI 31188 .cfa: sp 0 +
STACK CFI 3118c .cfa: x29 32 +
STACK CFI 311a4 .cfa: sp 32 +
STACK CFI 311ac .cfa: sp 0 +
STACK CFI 311b0 .cfa: x29 32 +
STACK CFI 311cc .cfa: sp 32 +
STACK CFI 311d4 .cfa: sp 0 +
STACK CFI 311d8 .cfa: x29 32 +
STACK CFI 311f4 .cfa: sp 32 +
STACK CFI 311fc .cfa: sp 0 +
STACK CFI 31200 .cfa: x29 32 +
STACK CFI 3121c .cfa: sp 32 +
STACK CFI 31224 .cfa: sp 0 +
STACK CFI 31228 .cfa: x29 32 +
STACK CFI 3127c .cfa: sp 32 +
STACK CFI 31284 .cfa: sp 0 +
STACK CFI 31288 .cfa: x29 32 +
STACK CFI 312a4 .cfa: sp 32 +
STACK CFI 312ac .cfa: sp 0 +
STACK CFI 312b0 .cfa: x29 32 +
STACK CFI INIT 31440 c8 .cfa: sp 0 +
STACK CFI 31444 .cfa: sp 48 +
STACK CFI 31450 .cfa: x29 48 + x19: .cfa -8 + ^ x20: .cfa -16 + ^ x21: .cfa -32 + ^ .ra: .cfa -40 + ^ x29: .cfa -48 + ^
STACK CFI 314f8 .cfa: sp 48 +
STACK CFI 31504 .cfa: sp 0 +
STACK CFI INIT 31508 5c .cfa: sp 0 +
STACK CFI 3150c .cfa: sp 32 +
STACK CFI 31514 .cfa: x29 32 + x19: .cfa -16 + ^ .ra: .cfa -24 + ^ x29: .cfa -32 + ^
STACK CFI 3154c .cfa: sp 32 +
STACK CFI 31554 .cfa: sp 0 +
STACK CFI 31558 .cfa: sp 32 +
STACK CFI 31560 .cfa: sp 0 +
STACK CFI INIT 31564 58 .cfa: sp 0 +
STACK CFI 31568 .cfa: sp 32 +
STACK CFI 31570 .cfa: x29 32 + x19: .cfa -16 + ^ .ra: .cfa -24 + ^ x29: .cfa -32 + ^
STACK CFI 315b0 .cfa: sp 32 +
STACK CFI 315b8 .cfa: sp 0 +
STACK CFI INIT 315bc 80 .cfa: sp 0 +
STACK CFI 315c0 .cfa: sp 32 +
STACK CFI 315c8 .cfa: x29 32 + x19: .cfa -8 + ^ x20: .cfa -16 + ^ .ra: .cfa -24 + ^ x29: .cfa -32 + ^
STACK CFI 31618 .cfa: sp 32 +
STACK CFI 31620 .cfa: sp 0 +
STACK CFI 31624 .cfa: x29 32 +
STACK CFI 31630 .cfa: sp 32 +
STACK CFI 31638 .cfa: sp 0 +
STACK CFI INIT 3163c 5c .cfa: sp 0 +
STACK CFI 31640 .cfa: sp 32 +
STACK CFI 31648 .cfa: x29 32 + x19: .cfa -16 + ^ .ra: .cfa -24 + ^ x29: .cfa -32 + ^
STACK CFI 31680 .cfa: sp 32 +
STACK CFI 31688 .cfa: sp 0 +
STACK CFI 3168c .cfa: sp 32 +
STACK CFI 31694 .cfa: sp 0 +
STACK CFI INIT 31698 58 .cfa: sp 0 +
STACK CFI 3169c .cfa: sp 32 +
STACK CFI 316a4 .cfa: x29 32 + x19: .cfa -16 + ^ .ra: .cfa -24 + ^ x29: .cfa -32 + ^
STACK CFI 316e4 .cfa: sp 32 +
STACK CFI 316ec .cfa: sp 0 +
STACK CFI INIT 316f0 48 .cfa: sp 0 +
STACK CFI INIT 31738 48 .cfa: sp 0 +
STACK CFI 31754 .cfa: sp 32 +
STACK CFI 3175c .cfa: x29 32 + x19: .cfa -16 + ^ .ra: .cfa -24 + ^ x29: .cfa -32 + ^
STACK CFI 31774 .cfa: sp 32 +
STACK CFI 3177c .cfa: sp 0 +
STACK CFI INIT 31780 48 .cfa: sp 0 +
STACK CFI INIT 317c8 5c .cfa: sp 0 +
STACK CFI 317cc .cfa: sp 32 +
STACK CFI 317d4 .cfa: x29 32 + x19: .cfa -16 + ^ .ra: .cfa -24 + ^ x29: .cfa -32 + ^
STACK CFI 3180c .cfa: sp 32 +
STACK CFI 31814 .cfa: sp 0 +
STACK CFI 31818 .cfa: sp 32 +
STACK CFI 31820 .cfa: sp 0 +
STACK CFI INIT 31824 58 .cfa: sp 0 +
STACK CFI 31828 .cfa: sp 32 +
STACK CFI 31830 .cfa: x29 32 + x19: .cfa -16 + ^ .ra: .cfa -24 + ^ x29: .cfa -32 + ^
STACK CFI 31870 .cfa: sp 32 +
STACK CFI 31878 .cfa: sp 0 +
STACK CFI INIT 3187c f8 .cfa: sp 0 +
STACK CFI 31880 .cfa: sp 64 +
STACK CFI 31890 .cfa: x29 64 + x19: .cfa -8 + ^ x20: .cfa -16 + ^ x21: .cfa -24 + ^ x22: .cfa -32 + ^ x23: .cfa -40 + ^ x24: .cfa -48 + ^ .ra: .cfa -56 + ^ x29: .cfa -64 + ^
STACK CFI 318d4 .cfa: sp 64 +
STACK CFI 318e4 .cfa: sp 0 +
STACK CFI 318e8 .cfa: x29 64 +
STACK CFI 31960 .cfa: sp 64 +
STACK CFI 31970 .cfa: sp 0 +
STACK CFI INIT 31974 5c .cfa: sp 0 +
STACK CFI 31978 .cfa: sp 32 +
STACK CFI 31980 .cfa: x29 32 + x19: .cfa -16 + ^ .ra: .cfa -24 + ^ x29: .cfa -32 + ^
STACK CFI 319b8 .cfa: sp 32 +
STACK CFI 319c0 .cfa: sp 0 +
STACK CFI 319c4 .cfa: sp 32 +
STACK CFI 319cc .cfa: sp 0 +
STACK CFI INIT 319d0 58 .cfa: sp 0 +
STACK CFI 319d4 .cfa: sp 32 +
STACK CFI 319dc .cfa: x29 32 + x19: .cfa -16 + ^ .ra: .cfa -24 + ^ x29: .cfa -32 + ^
STACK CFI 31a1c .cfa: sp 32 +
STACK CFI 31a24 .cfa: sp 0 +
STACK CFI INIT 31a28 90 .cfa: sp 0 +
STACK CFI INIT 31ab8 48 .cfa: sp 0 +
STACK CFI 31ad4 .cfa: sp 32 +
STACK CFI 31adc .cfa: x29 32 + x19: .cfa -16 + ^ .ra: .cfa -24 + ^ x29: .cfa -32 + ^
STACK CFI 31af4 .cfa: sp 32 +
STACK CFI 31afc .cfa: sp 0 +
STACK CFI INIT 31b00 d0 .cfa: sp 0 +
STACK CFI 31b04 .cfa: sp 48 +
STACK CFI 31b10 .cfa: x29 48 + x19: .cfa -8 + ^ x20: .cfa -16 + ^ x21: .cfa -24 + ^ x22: .cfa -32 + ^ .ra: .cfa -40 + ^ x29: .cfa -48 + ^
STACK CFI 31b94 .cfa: sp 48 +
STACK CFI 31ba0 .cfa: sp 0 +
STACK CFI 31ba4 .cfa: x29 48 +
STACK CFI 31bbc .cfa: sp 48 +
STACK CFI 31bc8 .cfa: sp 0 +
STACK CFI 31bcc .cfa: x29 48 +
STACK CFI INIT 31bd0 4b0 .cfa: sp 0 +
STACK CFI 31bd4 .cfa: sp 80 +
STACK CFI 31be8 .cfa: x29 80 + x19: .cfa -8 + ^ x20: .cfa -16 + ^ x21: .cfa -24 + ^ x22: .cfa -32 + ^ x23: .cfa -40 + ^ x24: .cfa -48 + ^ x25: .cfa -64 + ^ .ra: .cfa -72 + ^ x29: .cfa -80 + ^
STACK CFI 31c1c .cfa: sp 80 +
STACK CFI 31c30 .cfa: sp 0 +
STACK CFI 31c34 .cfa: x29 80 +
STACK CFI 31ff4 .cfa: sp 80 +
STACK CFI 32008 .cfa: sp 0 +
STACK CFI 3200c .cfa: x29 80 +
STACK CFI 32064 .cfa: sp 80 +
STACK CFI 32078 .cfa: sp 0 +
STACK CFI 3207c .cfa: x29 80 +
STACK CFI INIT 3225c 7c .cfa: sp 0 +
STACK CFI 32260 .cfa: sp 48 +
STACK CFI 3226c .cfa: x29 48 + x19: .cfa -8 + ^ x20: .cfa -16 + ^ x21: .cfa -32 + ^ .ra: .cfa -40 + ^ x29: .cfa -48 + ^
STACK CFI 322b8 .cfa: sp 48 +
STACK CFI 322c4 .cfa: sp 0 +
STACK CFI 322c8 .cfa: sp 48 +
STACK CFI 322d4 .cfa: sp 0 +
STACK CFI INIT 322d8 a4 .cfa: sp 0 +
STACK CFI 322dc .cfa: sp 48 +
STACK CFI 322e8 .cfa: x29 48 + x19: .cfa -8 + ^ x20: .cfa -16 + ^ x21: .cfa -32 + ^ .ra: .cfa -40 + ^ x29: .cfa -48 + ^
STACK CFI 32308 .cfa: sp 48 +
STACK CFI 32314 .cfa: sp 0 +
STACK CFI 32318 .cfa: x29 48 +
STACK CFI 3235c .cfa: sp 48 +
STACK CFI 32368 .cfa: sp 0 +
STACK CFI 3236c .cfa: sp 48 +
STACK CFI 32378 .cfa: sp 0 +
STACK CFI INIT 3237c 14c .cfa: sp 0 +
STACK CFI 32380 .cfa: sp 48 +
STACK CFI 3238c .cfa: x29 48 + x19: .cfa -8 + ^ x20: .cfa -16 + ^ x21: .cfa -32 + ^ .ra: .cfa -40 + ^ x29: .cfa -48 + ^
STACK CFI 324a8 .cfa: sp 48 +
STACK CFI 324b4 .cfa: sp 0 +
STACK CFI 324b8 .cfa: sp 48 +
STACK CFI 324c4 .cfa: sp 0 +
STACK CFI INIT 324c8 24 .cfa: sp 0 +
STACK CFI 324cc .cfa: sp 32 +
STACK CFI 324d4 .cfa: x29 32 + x19: .cfa -16 + ^ .ra: .cfa -24 + ^ x29: .cfa -32 + ^
STACK CFI 324e0 .cfa: sp 32 +
STACK CFI 324e8 .cfa: sp 0 +
STACK CFI INIT 33158 44 .cfa: sp 0 +
STACK CFI 3315c .cfa: sp 32 +
STACK CFI 33164 .cfa: x29 32 + x19: .cfa -16 + ^ .ra: .cfa -24 + ^ x29: .cfa -32 + ^
STACK CFI 33180 .cfa: sp 32 +
STACK CFI 33188 .cfa: sp 0 +
STACK CFI 3318c .cfa: x29 32 +
STACK CFI 33190 .cfa: sp 32 +
STACK CFI 33198 .cfa: sp 0 +
STACK CFI INIT 33360 14 .cfa: sp 0 +
STACK CFI 33364 .cfa: sp 16 +
STACK CFI 33368 .cfa: x29 16 + .ra: .cfa -8 + ^ x29: .cfa -16 + ^
STACK CFI INIT 333c0 5c8 .cfa: sp 0 +
STACK CFI 333c4 .cfa: sp 80 +
STACK CFI 333d8 .cfa: x29 80 + x19: .cfa -8 + ^ x20: .cfa -16 + ^ x21: .cfa -24 + ^ x22: .cfa -32 + ^ x23: .cfa -40 + ^ x24: .cfa -48 + ^ x25: .cfa -56 + ^ x26: .cfa -64 + ^ .ra: .cfa -72 + ^ x29: .cfa -80 + ^
STACK CFI 334c8 .cfa: sp 80 +
STACK CFI 334dc .cfa: sp 0 +
STACK CFI 334e0 .cfa: x29 80 +
STACK CFI 33534 .cfa: sp 80 +
STACK CFI 33548 .cfa: sp 0 +
STACK CFI 3354c .cfa: x29 80 +
STACK CFI 33968 .cfa: sp 80 +
STACK CFI 3397c .cfa: sp 0 +
STACK CFI 33980 .cfa: x29 80 +
STACK CFI INIT 33988 4c4 .cfa: sp 0 +
STACK CFI 3398c .cfa: sp 32 +
STACK CFI 33994 .cfa: x29 32 + x19: .cfa -16 + ^ .ra: .cfa -24 + ^ x29: .cfa -32 + ^
STACK CFI 339e8 .cfa: sp 32 +
STACK CFI 339f0 .cfa: sp 0 +
STACK CFI 339f4 .cfa: x29 32 +
STACK CFI 33a34 .cfa: sp 32 +
STACK CFI 33a3c .cfa: sp 0 +
STACK CFI 33a40 .cfa: x29 32 +
STACK CFI 33a70 .cfa: sp 32 +
STACK CFI 33a78 .cfa: sp 0 +
STACK CFI 33a7c .cfa: x29 32 +
STACK CFI 33aac .cfa: sp 32 +
STACK CFI 33ab4 .cfa: sp 0 +
STACK CFI 33ab8 .cfa: x29 32 +
STACK CFI 33ac8 .cfa: sp 32 +
STACK CFI 33ad0 .cfa: sp 0 +
STACK CFI 33ad4 .cfa: x29 32 +
STACK CFI 33af4 .cfa: sp 32 +
STACK CFI 33afc .cfa: sp 0 +
STACK CFI 33b00 .cfa: x29 32 +
STACK CFI 33b20 .cfa: sp 32 +
STACK CFI 33b28 .cfa: sp 0 +
STACK CFI 33b2c .cfa: x29 32 +
STACK CFI 33b4c .cfa: sp 32 +
STACK CFI 33b54 .cfa: sp 0 +
STACK CFI 33b58 .cfa: x29 32 +
STACK CFI 33b78 .cfa: sp 32 +
STACK CFI 33b80 .cfa: sp 0 +
STACK CFI 33b84 .cfa: x29 32 +
STACK CFI 33c08 .cfa: sp 32 +
STACK CFI 33c10 .cfa: sp 0 +
STACK CFI 33c14 .cfa: x29 32 +
STACK CFI 33c24 .cfa: sp 32 +
STACK CFI 33c2c .cfa: sp 0 +
STACK CFI 33c30 .cfa: x29 32 +
STACK CFI 33c40 .cfa: sp 32 +
STACK CFI 33c48 .cfa: sp 0 +
STACK CFI 33c4c .cfa: x29 32 +
STACK CFI 33c5c .cfa: sp 32 +
STACK CFI 33c64 .cfa: sp 0 +
STACK CFI 33c68 .cfa: x29 32 +
STACK CFI 33c78 .cfa: sp 32 +
STACK CFI 33c80 .cfa: sp 0 +
STACK CFI 33c84 .cfa: x29 32 +
STACK CFI 33c94 .cfa: sp 32 +
STACK CFI 33c9c .cfa: sp 0 +
STACK CFI 33ca0 .cfa: x29 32 +
STACK CFI 33cb0 .cfa: sp 32 +
STACK CFI 33cb8 .cfa: sp 0 +
STACK CFI 33cbc .cfa: x29 32 +
STACK CFI 33ccc .cfa: sp 32 +
STACK CFI 33cd4 .cfa: sp 0 +
STACK CFI 33cd8 .cfa: x29 32 +
STACK CFI 33cfc .cfa: sp 32 +
STACK CFI 33d04 .cfa: sp 0 +
STACK CFI 33d08 .cfa: x29 32 +
STACK CFI 33d20 .cfa: sp 32 +
STACK CFI 33d28 .cfa: sp 0 +
STACK CFI 33d2c .cfa: x29 32 +
STACK CFI 33d44 .cfa: sp 32 +
STACK CFI 33d4c .cfa: sp 0 +
STACK CFI 33d50 .cfa: x29 32 +
STACK CFI 33d68 .cfa: sp 32 +
STACK CFI 33d70 .cfa: sp 0 +
STACK CFI 33d74 .cfa: x29 32 +
STACK CFI 33d8c .cfa: sp 32 +
STACK CFI 33d94 .cfa: sp 0 +
STACK CFI 33d98 .cfa: x29 32 +
STACK CFI 33db0 .cfa: sp 32 +
STACK CFI 33db8 .cfa: sp 0 +
STACK CFI 33dbc .cfa: x29 32 +
STACK CFI 33dd4 .cfa: sp 32 +
STACK CFI 33ddc .cfa: sp 0 +
STACK CFI 33de0 .cfa: x29 32 +
STACK CFI 33df8 .cfa: sp 32 +
STACK CFI 33e00 .cfa: sp 0 +
STACK CFI 33e04 .cfa: x29 32 +
STACK CFI 33e1c .cfa: sp 32 +
STACK CFI 33e24 .cfa: sp 0 +
STACK CFI 33e28 .cfa: x29 32 +
STACK CFI 33e3c .cfa: sp 32 +
STACK CFI 33e44 .cfa: sp 0 +
STACK CFI 33e48 .cfa: x29 32 +
STACK CFI INIT 33e4c 420 .cfa: sp 0 +
STACK CFI 33e50 .cfa: sp 80 +
STACK CFI 33e64 .cfa: x29 80 + x19: .cfa -8 + ^ x20: .cfa -16 + ^ x21: .cfa -24 + ^ x22: .cfa -32 + ^ x23: .cfa -40 + ^ x24: .cfa -48 + ^ x25: .cfa -64 + ^ .ra: .cfa -72 + ^ x29: .cfa -80 + ^
STACK CFI 33eb8 .cfa: sp 80 +
STACK CFI 33ecc .cfa: sp 0 +
STACK CFI 33ed0 .cfa: x29 80 +
STACK CFI 34078 .cfa: sp 80 +
STACK CFI 3408c .cfa: sp 0 +
STACK CFI 34090 .cfa: x29 80 +
STACK CFI 3424c .cfa: sp 80 +
STACK CFI 34260 .cfa: sp 0 +
STACK CFI 34264 .cfa: x29 80 +
STACK CFI INIT 34794 80 .cfa: sp 0 +
STACK CFI 34798 .cfa: sp 48 +
STACK CFI 347a4 .cfa: x29 48 + x19: .cfa -8 + ^ x20: .cfa -16 + ^ x21: .cfa -24 + ^ x22: .cfa -32 + ^ .ra: .cfa -40 + ^ x29: .cfa -48 + ^
STACK CFI 347bc .cfa: sp 48 +
STACK CFI 347c8 .cfa: sp 0 +
STACK CFI 347cc .cfa: x29 48 +
STACK CFI 347fc .cfa: sp 48 +
STACK CFI 34808 .cfa: sp 0 +
STACK CFI 3480c .cfa: x29 48 +
STACK CFI INIT 34814 68 .cfa: sp 0 +
STACK CFI 34818 .cfa: sp 32 +
STACK CFI 34820 .cfa: x29 32 + x19: .cfa -8 + ^ x20: .cfa -16 + ^ .ra: .cfa -24 + ^ x29: .cfa -32 + ^
STACK CFI 34838 .cfa: sp 32 +
STACK CFI 34840 .cfa: sp 0 +
STACK CFI 34844 .cfa: x29 32 +
STACK CFI 34870 .cfa: sp 32 +
STACK CFI 34878 .cfa: sp 0 +
STACK CFI INIT 3487c 14 .cfa: sp 0 +
STACK CFI 34880 .cfa: sp 16 +
STACK CFI 34884 .cfa: x29 16 + .ra: .cfa -8 + ^ x29: .cfa -16 + ^
STACK CFI INIT 34adc 1a8 .cfa: sp 0 +
STACK CFI 34ae0 .cfa: sp 48 +
STACK CFI 34aec .cfa: x29 48 + x19: .cfa -8 + ^ x20: .cfa -16 + ^ x21: .cfa -24 + ^ x22: .cfa -32 + ^ .ra: .cfa -40 + ^ x29: .cfa -48 + ^
STACK CFI 34c6c .cfa: sp 48 +
STACK CFI 34c78 .cfa: sp 0 +
STACK CFI 34c7c .cfa: x29 48 +
STACK CFI INIT 34c84 14 .cfa: sp 0 +
STACK CFI 34c88 .cfa: sp 16 +
STACK CFI 34c8c .cfa: x29 16 + .ra: .cfa -8 + ^ x29: .cfa -16 + ^
STACK CFI INIT 34c98 14 .cfa: sp 0 +
STACK CFI 34c9c .cfa: sp 16 +
STACK CFI 34ca0 .cfa: x29 16 + .ra: .cfa -8 + ^ x29: .cfa -16 + ^
STACK CFI INIT 34cac 48 .cfa: sp 0 +
STACK CFI 34cc8 .cfa: sp 32 +
STACK CFI 34cd0 .cfa: x29 32 + x19: .cfa -16 + ^ .ra: .cfa -24 + ^ x29: .cfa -32 + ^
STACK CFI 34ce8 .cfa: sp 32 +
STACK CFI 34cf0 .cfa: sp 0 +
STACK CFI INIT 34cf4 30 .cfa: sp 0 +
STACK CFI INIT 34d24 48 .cfa: sp 0 +
STACK CFI 34d40 .cfa: sp 32 +
STACK CFI 34d48 .cfa: x29 32 + x19: .cfa -16 + ^ .ra: .cfa -24 + ^ x29: .cfa -32 + ^
STACK CFI 34d60 .cfa: sp 32 +
STACK CFI 34d68 .cfa: sp 0 +
STACK CFI INIT 34d6c 38 .cfa: sp 0 +
STACK CFI INIT 34f7c 68 .cfa: sp 0 +
STACK CFI 34f80 .cfa: sp 32 +
STACK CFI 34f88 .cfa: x29 32 + x19: .cfa -16 + ^ .ra: .cfa -24 + ^ x29: .cfa -32 + ^
STACK CFI 34fd8 .cfa: sp 32 +
STACK CFI 34fe0 .cfa: sp 0 +
STACK CFI INIT 34fe4 1c4 .cfa: sp 0 +
STACK CFI INIT 351a8 c4 .cfa: sp 0 +
STACK CFI INIT 3526c 68 .cfa: sp 0 +
STACK CFI 35270 .cfa: sp 32 +
STACK CFI 35278 .cfa: x29 32 + x19: .cfa -16 + ^ .ra: .cfa -24 + ^ x29: .cfa -32 + ^
STACK CFI 352c8 .cfa: sp 32 +
STACK CFI 352d0 .cfa: sp 0 +
STACK CFI INIT 352d4 4 .cfa: sp 0 +
STACK CFI INIT 352d8 14 .cfa: sp 0 +
STACK CFI INIT 352ec 6c .cfa: sp 0 +
STACK CFI 352f0 .cfa: sp 32 +
STACK CFI 352f8 .cfa: x29 32 + x19: .cfa -16 + ^ .ra: .cfa -24 + ^ x29: .cfa -32 + ^
STACK CFI 35340 .cfa: sp 32 +
STACK CFI 35348 .cfa: sp 0 +
STACK CFI 3534c .cfa: sp 32 +
STACK CFI 35354 .cfa: sp 0 +
STACK CFI INIT 35358 68 .cfa: sp 0 +
STACK CFI 3535c .cfa: sp 32 +
STACK CFI 35364 .cfa: x29 32 + x19: .cfa -16 + ^ .ra: .cfa -24 + ^ x29: .cfa -32 + ^
STACK CFI 353b4 .cfa: sp 32 +
STACK CFI 353bc .cfa: sp 0 +
STACK CFI INIT 353c0 c .cfa: sp 0 +
STACK CFI INIT 353cc 24 .cfa: sp 0 +
STACK CFI INIT 353f0 4 .cfa: sp 0 +
STACK CFI INIT 353f4 4 .cfa: sp 0 +
STACK CFI INIT 353f8 14 .cfa: sp 0 +
STACK CFI INIT 35458 2fc .cfa: sp 0 +
STACK CFI 3545c .cfa: sp 64 +
STACK CFI 3546c .cfa: x29 64 + x19: .cfa -8 + ^ x20: .cfa -16 + ^ x21: .cfa -24 + ^ x22: .cfa -32 + ^ x23: .cfa -40 + ^ x24: .cfa -48 + ^ .ra: .cfa -56 + ^ x29: .cfa -64 + ^
STACK CFI 355e8 .cfa: sp 64 +
STACK CFI 355f8 .cfa: sp 0 +
STACK CFI 355fc .cfa: x29 64 +
STACK CFI 35640 .cfa: sp 64 +
STACK CFI 35650 .cfa: sp 0 +
STACK CFI 35654 .cfa: x29 64 +
STACK CFI 35724 .cfa: sp 64 +
STACK CFI 35734 .cfa: sp 0 +
STACK CFI 35738 .cfa: sp 64 +
STACK CFI 35748 .cfa: sp 0 +
STACK CFI 3574c .cfa: x29 64 +
STACK CFI INIT 35754 270 .cfa: sp 0 +
STACK CFI 35758 .cfa: sp 32 +
STACK CFI 35760 .cfa: x29 32 + x19: .cfa -16 + ^ .ra: .cfa -24 + ^ x29: .cfa -32 + ^
STACK CFI 35798 .cfa: sp 32 +
STACK CFI 357a0 .cfa: sp 0 +
STACK CFI 357a4 .cfa: x29 32 +
STACK CFI 358ec .cfa: sp 32 +
STACK CFI 358f4 .cfa: sp 0 +
STACK CFI 358f8 .cfa: x29 32 +
STACK CFI 35934 .cfa: sp 32 +
STACK CFI 3593c .cfa: sp 0 +
STACK CFI 35940 .cfa: x29 32 +
STACK CFI 359b4 .cfa: sp 32 +
STACK CFI 359bc .cfa: sp 0 +
STACK CFI 359c0 .cfa: x29 32 +
STACK CFI INIT 359c4 2c .cfa: sp 0 +
STACK CFI INIT 359f0 48 .cfa: sp 0 +
STACK CFI 35a0c .cfa: sp 32 +
STACK CFI 35a14 .cfa: x29 32 + x19: .cfa -16 + ^ .ra: .cfa -24 + ^ x29: .cfa -32 + ^
STACK CFI 35a2c .cfa: sp 32 +
STACK CFI 35a34 .cfa: sp 0 +
STACK CFI INIT 35a38 40 .cfa: sp 0 +
STACK CFI INIT 35a78 60 .cfa: sp 0 +
STACK CFI 35a7c .cfa: sp 16 +
STACK CFI 35a80 .cfa: x29 16 + .ra: .cfa -8 + ^ x29: .cfa -16 + ^
STACK CFI 35ac0 .cfa: sp 16 +
STACK CFI 35ac4 .cfa: sp 0 +
STACK CFI 35ac8 .cfa: x29 16 +
STACK CFI 35acc .cfa: sp 16 +
STACK CFI 35ad0 .cfa: sp 0 +
STACK CFI 35ad4 .cfa: x29 16 +
STACK CFI INIT 35ad8 34c .cfa: sp 0 +
STACK CFI 35adc .cfa: sp 80 +
STACK CFI 35af0 .cfa: x29 80 + x19: .cfa -8 + ^ x20: .cfa -16 + ^ x21: .cfa -24 + ^ x22: .cfa -32 + ^ x23: .cfa -40 + ^ x24: .cfa -48 + ^ x25: .cfa -64 + ^ .ra: .cfa -72 + ^ x29: .cfa -80 + ^
STACK CFI 35dec .cfa: sp 80 +
STACK CFI 35e00 .cfa: sp 0 +
STACK CFI 35e04 .cfa: x29 80 +
STACK CFI 35e08 .cfa: sp 80 +
STACK CFI 35e1c .cfa: sp 0 +
STACK CFI 35e20 .cfa: x29 80 +
STACK CFI INIT 35f58 104 .cfa: sp 0 +
STACK CFI 35f5c .cfa: sp 64 +
STACK CFI 35f6c .cfa: x29 64 + x19: .cfa -8 + ^ x20: .cfa -16 + ^ x21: .cfa -24 + ^ x22: .cfa -32 + ^ x23: .cfa -48 + ^ .ra: .cfa -56 + ^ x29: .cfa -64 + ^
STACK CFI 35fc8 .cfa: sp 64 +
STACK CFI 35fd8 .cfa: sp 0 +
STACK CFI 35fdc .cfa: x29 64 +
STACK CFI 35ff8 .cfa: sp 64 +
STACK CFI 36008 .cfa: sp 0 +
STACK CFI 3600c .cfa: x29 64 +
STACK CFI 36048 .cfa: sp 64 +
STACK CFI 36058 .cfa: sp 0 +
STACK CFI INIT 3618c 1c8 .cfa: sp 0 +
STACK CFI 36190 .cfa: sp 80 +
STACK CFI 361a4 .cfa: x29 80 + x19: .cfa -8 + ^ x20: .cfa -16 + ^ x21: .cfa -24 + ^ x22: .cfa -32 + ^ x23: .cfa -40 + ^ x24: .cfa -48 + ^ x25: .cfa -64 + ^ .ra: .cfa -72 + ^ x29: .cfa -80 + ^
STACK CFI 36324 .cfa: sp 80 +
STACK CFI 36338 .cfa: sp 0 +
STACK CFI 3633c .cfa: sp 80 +
STACK CFI 36350 .cfa: sp 0 +
STACK CFI INIT 36944 188 .cfa: sp 0 +
STACK CFI 36948 .cfa: sp 80 +
STACK CFI 3695c .cfa: x29 80 + x19: .cfa -8 + ^ x20: .cfa -16 + ^ x21: .cfa -24 + ^ x22: .cfa -32 + ^ x23: .cfa -40 + ^ x24: .cfa -48 + ^ x25: .cfa -64 + ^ .ra: .cfa -72 + ^ x29: .cfa -80 + ^
STACK CFI 36ab0 .cfa: sp 80 +
STACK CFI 36ac4 .cfa: sp 0 +
STACK CFI 36ac8 .cfa: x29 80 +
STACK CFI INIT 36acc 18c .cfa: sp 0 +
STACK CFI 36ad0 .cfa: sp 64 +
STACK CFI 36ae0 .cfa: x29 64 + x19: .cfa -8 + ^ x20: .cfa -16 + ^ x21: .cfa -24 + ^ x22: .cfa -32 + ^ x23: .cfa -40 + ^ x24: .cfa -48 + ^ .ra: .cfa -56 + ^ x29: .cfa -64 + ^
STACK CFI 36c40 .cfa: sp 64 +
STACK CFI 36c50 .cfa: sp 0 +
STACK CFI 36c54 .cfa: x29 64 +
STACK CFI INIT 36c58 14 .cfa: sp 0 +
STACK CFI 36c5c .cfa: sp 16 +
STACK CFI 36c60 .cfa: x29 16 + .ra: .cfa -8 + ^ x29: .cfa -16 + ^
STACK CFI INIT 36e40 4b4 .cfa: sp 0 +
STACK CFI 36e44 .cfa: sp 96 +
STACK CFI 36e5c .cfa: x29 96 + x19: .cfa -8 + ^ x20: .cfa -16 + ^ x21: .cfa -24 + ^ x22: .cfa -32 + ^ x23: .cfa -40 + ^ x24: .cfa -48 + ^ x25: .cfa -56 + ^ x26: .cfa -64 + ^ x27: .cfa -72 + ^ x28: .cfa -80 + ^ .ra: .cfa -88 + ^ x29: .cfa -96 + ^
STACK CFI 372a4 .cfa: sp 96 +
STACK CFI 372bc .cfa: sp 0 +
STACK CFI 372c0 .cfa: x29 96 +
STACK CFI INIT 372f4 1a4 .cfa: sp 0 +
STACK CFI 372f8 .cfa: sp 64 +
STACK CFI 37304 .cfa: x29 32 + x19: .cfa -8 + ^ x20: .cfa -16 + ^ .ra: .cfa -24 + ^ x29: .cfa -32 + ^
STACK CFI 37430 .cfa: sp 64 +
STACK CFI 3743c .cfa: sp 0 +
STACK CFI 37440 .cfa: x29 32 +
STACK CFI INIT 37498 194 .cfa: sp 0 +
STACK CFI 3749c .cfa: sp 16 +
STACK CFI 374a0 .cfa: x29 16 + .ra: .cfa -8 + ^ x29: .cfa -16 + ^
STACK CFI 37538 .cfa: sp 16 +
STACK CFI 3753c .cfa: sp 0 +
STACK CFI 37540 .cfa: x29 16 +
STACK CFI 3760c .cfa: sp 16 +
STACK CFI 37610 .cfa: sp 0 +
STACK CFI 37614 .cfa: x29 16 +
STACK CFI INIT 3762c 114 .cfa: sp 0 +
STACK CFI 37630 .cfa: sp 128 +
STACK CFI 37640 .cfa: x29 48 + x19: .cfa -8 + ^ x20: .cfa -16 + ^ x21: .cfa -32 + ^ .ra: .cfa -40 + ^ x29: .cfa -48 + ^
STACK CFI 3770c .cfa: sp 128 +
STACK CFI 3771c .cfa: sp 0 +
STACK CFI 37720 .cfa: x29 48 +
STACK CFI INIT 37740 114 .cfa: sp 0 +
STACK CFI 37744 .cfa: sp 128 +
STACK CFI 37754 .cfa: x29 48 + x19: .cfa -8 + ^ x20: .cfa -16 + ^ x21: .cfa -32 + ^ .ra: .cfa -40 + ^ x29: .cfa -48 + ^
STACK CFI 37820 .cfa: sp 128 +
STACK CFI 37830 .cfa: sp 0 +
STACK CFI 37834 .cfa: x29 48 +
STACK CFI INIT 37854 27c .cfa: sp 0 +
STACK CFI 37858 .cfa: sp 176 +
STACK CFI 37874 .cfa: x29 96 + x19: .cfa -8 + ^ x20: .cfa -16 + ^ x21: .cfa -24 + ^ x22: .cfa -32 + ^ x23: .cfa -40 + ^ x24: .cfa -48 + ^ x25: .cfa -56 + ^ x26: .cfa -64 + ^ x27: .cfa -72 + ^ x28: .cfa -80 + ^ .ra: .cfa -88 + ^ x29: .cfa -96 + ^
STACK CFI 37aac .cfa: sp 176 +
STACK CFI 37ac8 .cfa: sp 0 +
STACK CFI 37acc .cfa: x29 96 +
STACK CFI INIT 37ad0 520 .cfa: sp 0 +
STACK CFI 37ad4 .cfa: sp 176 +
STACK CFI 37af0 .cfa: x29 96 + x19: .cfa -8 + ^ x20: .cfa -16 + ^ x21: .cfa -24 + ^ x22: .cfa -32 + ^ x23: .cfa -40 + ^ x24: .cfa -48 + ^ x25: .cfa -56 + ^ x26: .cfa -64 + ^ x27: .cfa -72 + ^ x28: .cfa -80 + ^ .ra: .cfa -88 + ^ x29: .cfa -96 + ^
STACK CFI 37fcc .cfa: sp 176 +
STACK CFI 37fe8 .cfa: sp 0 +
STACK CFI 37fec .cfa: x29 96 +
STACK CFI INIT 37ff0 20c .cfa: sp 0 +
STACK CFI 37ff4 .cfa: sp 80 +
STACK CFI 38008 .cfa: x29 80 + x19: .cfa -8 + ^ x20: .cfa -16 + ^ x21: .cfa -24 + ^ x22: .cfa -32 + ^ x23: .cfa -40 + ^ x24: .cfa -48 + ^ x25: .cfa -64 + ^ .ra: .cfa -72 + ^ x29: .cfa -80 + ^
STACK CFI 38098 .cfa: sp 80 +
STACK CFI 380ac .cfa: sp 0 +
STACK CFI 380b0 .cfa: x29 80 +
STACK CFI 380bc .cfa: sp 80 +
STACK CFI 380d0 .cfa: sp 0 +
STACK CFI 380d4 .cfa: x29 80 +
STACK CFI INIT 381fc 428 .cfa: sp 0 +
STACK CFI 38200 .cfa: sp 128 +
STACK CFI 3821c .cfa: x29 96 + x19: .cfa -8 + ^ x20: .cfa -16 + ^ x21: .cfa -24 + ^ x22: .cfa -32 + ^ x23: .cfa -40 + ^ x24: .cfa -48 + ^ x25: .cfa -56 + ^ x26: .cfa -64 + ^ x27: .cfa -72 + ^ x28: .cfa -80 + ^ .ra: .cfa -88 + ^ x29: .cfa -96 + ^
STACK CFI 38600 .cfa: sp 128 +
STACK CFI 3861c .cfa: sp 0 +
STACK CFI 38620 .cfa: x29 96 +
STACK CFI INIT 38624 194 .cfa: sp 0 +
STACK CFI 38628 .cfa: sp 32 +
STACK CFI 38630 .cfa: x29 16 + .ra: .cfa -8 + ^ x29: .cfa -16 + ^
STACK CFI 38674 .cfa: sp 32 +
STACK CFI 3867c .cfa: sp 0 +
STACK CFI 38680 .cfa: x29 16 +
STACK CFI INIT 387b8 1b8 .cfa: sp 0 +
STACK CFI INIT 38970 1d0 .cfa: sp 0 +
STACK CFI 38974 .cfa: sp 80 +
STACK CFI 38988 .cfa: x29 80 + x19: .cfa -8 + ^ x20: .cfa -16 + ^ x21: .cfa -24 + ^ x22: .cfa -32 + ^ x23: .cfa -40 + ^ x24: .cfa -48 + ^ x25: .cfa -64 + ^ .ra: .cfa -72 + ^ x29: .cfa -80 + ^
STACK CFI 38b28 .cfa: sp 80 +
STACK CFI 38b3c .cfa: sp 0 +
STACK CFI INIT 38b40 67c .cfa: sp 0 +
STACK CFI 38b44 .cfa: sp 176 +
STACK CFI 38b60 .cfa: x29 96 + x19: .cfa -8 + ^ x20: .cfa -16 + ^ x21: .cfa -24 + ^ x22: .cfa -32 + ^ x23: .cfa -40 + ^ x24: .cfa -48 + ^ x25: .cfa -56 + ^ x26: .cfa -64 + ^ x27: .cfa -72 + ^ x28: .cfa -80 + ^ .ra: .cfa -88 + ^ x29: .cfa -96 + ^
STACK CFI 39198 .cfa: sp 176 +
STACK CFI 391b4 .cfa: sp 0 +
STACK CFI 391b8 .cfa: x29 96 +
STACK CFI INIT 391bc 1e4 .cfa: sp 0 +
STACK CFI 391c0 .cfa: sp 32 +
STACK CFI 391c8 .cfa: x29 32 + x19: .cfa -8 + ^ x20: .cfa -16 + ^ .ra: .cfa -24 + ^ x29: .cfa -32 + ^
STACK CFI 392b8 .cfa: sp 32 +
STACK CFI 392c0 .cfa: sp 0 +
STACK CFI 392c4 .cfa: x29 32 +
STACK CFI 39338 .cfa: sp 32 +
STACK CFI 39340 .cfa: sp 0 +
STACK CFI 39344 .cfa: x29 32 +
STACK CFI 39354 .cfa: sp 32 +
STACK CFI 3935c .cfa: sp 0 +
STACK CFI 39360 .cfa: x29 32 +
STACK CFI 39370 .cfa: sp 32 +
STACK CFI 39378 .cfa: sp 0 +
STACK CFI 3937c .cfa: x29 32 +
STACK CFI INIT 393a0 178 .cfa: sp 0 +
STACK CFI 393a4 .cfa: sp 80 +
STACK CFI 393b8 .cfa: x29 64 + x19: .cfa -8 + ^ x20: .cfa -16 + ^ x21: .cfa -24 + ^ x22: .cfa -32 + ^ x23: .cfa -40 + ^ x24: .cfa -48 + ^ .ra: .cfa -56 + ^ x29: .cfa -64 + ^
STACK CFI 394fc .cfa: sp 80 +
STACK CFI 39510 .cfa: sp 0 +
STACK CFI 39514 .cfa: x29 64 +
STACK CFI INIT 39518 178 .cfa: sp 0 +
STACK CFI 3951c .cfa: sp 80 +
STACK CFI 39530 .cfa: x29 64 + x19: .cfa -8 + ^ x20: .cfa -16 + ^ x21: .cfa -24 + ^ x22: .cfa -32 + ^ x23: .cfa -40 + ^ x24: .cfa -48 + ^ .ra: .cfa -56 + ^ x29: .cfa -64 + ^
STACK CFI 39674 .cfa: sp 80 +
STACK CFI 39688 .cfa: sp 0 +
STACK CFI 3968c .cfa: x29 64 +
STACK CFI INIT 39690 178 .cfa: sp 0 +
STACK CFI 39694 .cfa: sp 80 +
STACK CFI 396a8 .cfa: x29 64 + x19: .cfa -8 + ^ x20: .cfa -16 + ^ x21: .cfa -24 + ^ x22: .cfa -32 + ^ x23: .cfa -40 + ^ x24: .cfa -48 + ^ .ra: .cfa -56 + ^ x29: .cfa -64 + ^
STACK CFI 397ec .cfa: sp 80 +
STACK CFI 39800 .cfa: sp 0 +
STACK CFI 39804 .cfa: x29 64 +
STACK CFI INIT 39808 94 .cfa: sp 0 +
STACK CFI 3980c .cfa: sp 16 +
STACK CFI 39810 .cfa: x29 16 + .ra: .cfa -8 + ^ x29: .cfa -16 + ^
STACK CFI 39864 .cfa: sp 16 +
STACK CFI 39868 .cfa: sp 0 +
STACK CFI 3986c .cfa: x29 16 +
STACK CFI INIT 3989c 158 .cfa: sp 0 +
STACK CFI 398a0 .cfa: sp 112 +
STACK CFI 398bc .cfa: x29 96 + x19: .cfa -8 + ^ x20: .cfa -16 + ^ x21: .cfa -24 + ^ x22: .cfa -32 + ^ x23: .cfa -40 + ^ x24: .cfa -48 + ^ x25: .cfa -56 + ^ x26: .cfa -64 + ^ x27: .cfa -72 + ^ x28: .cfa -80 + ^ .ra: .cfa -88 + ^ x29: .cfa -96 + ^
STACK CFI 399a4 .cfa: sp 112 +
STACK CFI 399a8 .cfa: x29 96 +
STACK CFI 399b0 .cfa: sp 112 +
STACK CFI 399cc .cfa: sp 0 +
STACK CFI 399d0 .cfa: x29 96 +
STACK CFI 399f0 .cfa: sp 112 +
STACK CFI INIT 399f4 94 .cfa: sp 0 +
STACK CFI 399f8 .cfa: sp 16 +
STACK CFI 399fc .cfa: x29 16 + .ra: .cfa -8 + ^ x29: .cfa -16 + ^
STACK CFI 39a50 .cfa: sp 16 +
STACK CFI 39a54 .cfa: sp 0 +
STACK CFI 39a58 .cfa: x29 16 +
STACK CFI INIT 39a88 4 .cfa: sp 0 +
STACK CFI INIT 39c58 9c .cfa: sp 0 +
STACK CFI 39c5c .cfa: sp 32 +
STACK CFI 39c64 .cfa: x29 32 + x19: .cfa -8 + ^ x20: .cfa -16 + ^ .ra: .cfa -24 + ^ x29: .cfa -32 + ^
STACK CFI 39ce8 .cfa: sp 32 +
STACK CFI 39cf0 .cfa: sp 0 +
STACK CFI INIT 39cf4 a4 .cfa: sp 0 +
STACK CFI 39cf8 .cfa: sp 32 +
STACK CFI 39d00 .cfa: x29 32 + x19: .cfa -8 + ^ x20: .cfa -16 + ^ .ra: .cfa -24 + ^ x29: .cfa -32 + ^
STACK CFI 39d8c .cfa: sp 32 +
STACK CFI 39d94 .cfa: sp 0 +
STACK CFI INIT 39d98 50 .cfa: sp 0 +
STACK CFI 39d9c .cfa: sp 32 +
STACK CFI 39da4 .cfa: x29 32 + x19: .cfa -16 + ^ .ra: .cfa -24 + ^ x29: .cfa -32 + ^
STACK CFI 39dbc .cfa: sp 32 +
STACK CFI 39dc4 .cfa: sp 0 +
STACK CFI 39dc8 .cfa: x29 32 +
STACK CFI 39ddc .cfa: sp 32 +
STACK CFI 39de4 .cfa: sp 0 +
STACK CFI INIT 39de8 5c .cfa: sp 0 +
STACK CFI 39dec .cfa: sp 32 +
STACK CFI 39df4 .cfa: x29 32 + x19: .cfa -16 + ^ .ra: .cfa -24 + ^ x29: .cfa -32 + ^
STACK CFI 39e18 .cfa: sp 32 +
STACK CFI 39e20 .cfa: sp 0 +
STACK CFI 39e24 .cfa: x29 32 +
STACK CFI 39e38 .cfa: sp 32 +
STACK CFI 39e40 .cfa: sp 0 +
STACK CFI INIT 39e44 6c .cfa: sp 0 +
STACK CFI 39e48 .cfa: sp 32 +
STACK CFI 39e50 .cfa: x29 32 + x19: .cfa -8 + ^ x20: .cfa -16 + ^ .ra: .cfa -24 + ^ x29: .cfa -32 + ^
STACK CFI 39e7c .cfa: sp 32 +
STACK CFI 39e84 .cfa: sp 0 +
STACK CFI 39e88 .cfa: x29 32 +
STACK CFI 39ea4 .cfa: sp 32 +
STACK CFI 39eac .cfa: sp 0 +
STACK CFI INIT 39eb0 58 .cfa: sp 0 +
STACK CFI 39eb4 .cfa: sp 32 +
STACK CFI 39ebc .cfa: x29 32 + x19: .cfa -8 + ^ x20: .cfa -16 + ^ .ra: .cfa -24 + ^ x29: .cfa -32 + ^
STACK CFI 39efc .cfa: sp 32 +
STACK CFI 39f04 .cfa: sp 0 +
STACK CFI INIT 39f08 4c .cfa: sp 0 +
STACK CFI 39f0c .cfa: sp 32 +
STACK CFI 39f14 .cfa: x29 32 + x19: .cfa -8 + ^ x20: .cfa -16 + ^ .ra: .cfa -24 + ^ x29: .cfa -32 + ^
STACK CFI 39f48 .cfa: sp 32 +
STACK CFI 39f50 .cfa: sp 0 +
STACK CFI INIT 39f54 50 .cfa: sp 0 +
STACK CFI 39f58 .cfa: sp 32 +
STACK CFI 39f60 .cfa: x29 32 + x19: .cfa -16 + ^ .ra: .cfa -24 + ^ x29: .cfa -32 + ^
STACK CFI 39f78 .cfa: sp 32 +
STACK CFI 39f80 .cfa: sp 0 +
STACK CFI 39f84 .cfa: x29 32 +
STACK CFI 39f98 .cfa: sp 32 +
STACK CFI 39fa0 .cfa: sp 0 +
STACK CFI INIT 39fa4 60 .cfa: sp 0 +
STACK CFI 39fa8 .cfa: sp 32 +
STACK CFI 39fb0 .cfa: x29 32 + x19: .cfa -8 + ^ x20: .cfa -16 + ^ .ra: .cfa -24 + ^ x29: .cfa -32 + ^
STACK CFI 39fd0 .cfa: sp 32 +
STACK CFI 39fd8 .cfa: sp 0 +
STACK CFI 39fdc .cfa: x29 32 +
STACK CFI 39ff8 .cfa: sp 32 +
STACK CFI 3a000 .cfa: sp 0 +
STACK CFI INIT 3a1d4 1c .cfa: sp 0 +
STACK CFI INIT 3a1f0 c .cfa: sp 0 +
STACK CFI INIT 3a1fc 60 .cfa: sp 0 +
STACK CFI 3a200 .cfa: sp 32 +
STACK CFI 3a208 .cfa: x29 32 + x19: .cfa -8 + ^ x20: .cfa -16 + ^ .ra: .cfa -24 + ^ x29: .cfa -32 + ^
STACK CFI 3a228 .cfa: sp 32 +
STACK CFI 3a230 .cfa: sp 0 +
STACK CFI 3a234 .cfa: x29 32 +
STACK CFI 3a250 .cfa: sp 32 +
STACK CFI 3a258 .cfa: sp 0 +
STACK CFI INIT 3a25c 70 .cfa: sp 0 +
STACK CFI 3a260 .cfa: sp 32 +
STACK CFI 3a268 .cfa: x29 32 + x19: .cfa -8 + ^ x20: .cfa -16 + ^ .ra: .cfa -24 + ^ x29: .cfa -32 + ^
STACK CFI 3a290 .cfa: sp 32 +
STACK CFI 3a298 .cfa: sp 0 +
STACK CFI 3a29c .cfa: x29 32 +
STACK CFI 3a2c0 .cfa: sp 32 +
STACK CFI 3a2c8 .cfa: sp 0 +
STACK CFI INIT 3a2cc 5c .cfa: sp 0 +
STACK CFI 3a2d0 .cfa: sp 32 +
STACK CFI 3a2d8 .cfa: x29 32 + x19: .cfa -16 + ^ .ra: .cfa -24 + ^ x29: .cfa -32 + ^
STACK CFI 3a2fc .cfa: sp 32 +
STACK CFI 3a304 .cfa: sp 0 +
STACK CFI 3a308 .cfa: x29 32 +
STACK CFI 3a31c .cfa: sp 32 +
STACK CFI 3a324 .cfa: sp 0 +
STACK CFI INIT 3a328 6c .cfa: sp 0 +
STACK CFI 3a32c .cfa: sp 32 +
STACK CFI 3a334 .cfa: x29 32 + x19: .cfa -8 + ^ x20: .cfa -16 + ^ .ra: .cfa -24 + ^ x29: .cfa -32 + ^
STACK CFI 3a360 .cfa: sp 32 +
STACK CFI 3a368 .cfa: sp 0 +
STACK CFI 3a36c .cfa: x29 32 +
STACK CFI 3a388 .cfa: sp 32 +
STACK CFI 3a390 .cfa: sp 0 +
STACK CFI INIT 3a394 58 .cfa: sp 0 +
STACK CFI 3a398 .cfa: sp 32 +
STACK CFI 3a3a0 .cfa: x29 32 + x19: .cfa -8 + ^ x20: .cfa -16 + ^ .ra: .cfa -24 + ^ x29: .cfa -32 + ^
STACK CFI 3a3e0 .cfa: sp 32 +
STACK CFI 3a3e8 .cfa: sp 0 +
STACK CFI INIT 3a3ec 4c .cfa: sp 0 +
STACK CFI 3a3f0 .cfa: sp 32 +
STACK CFI 3a3f8 .cfa: x29 32 + x19: .cfa -8 + ^ x20: .cfa -16 + ^ .ra: .cfa -24 + ^ x29: .cfa -32 + ^
STACK CFI 3a42c .cfa: sp 32 +
STACK CFI 3a434 .cfa: sp 0 +
STACK CFI INIT 3a438 50 .cfa: sp 0 +
STACK CFI 3a43c .cfa: sp 32 +
STACK CFI 3a444 .cfa: x29 32 + x19: .cfa -16 + ^ .ra: .cfa -24 + ^ x29: .cfa -32 + ^
STACK CFI 3a45c .cfa: sp 32 +
STACK CFI 3a464 .cfa: sp 0 +
STACK CFI 3a468 .cfa: x29 32 +
STACK CFI 3a47c .cfa: sp 32 +
STACK CFI 3a484 .cfa: sp 0 +
STACK CFI INIT 3a488 60 .cfa: sp 0 +
STACK CFI 3a48c .cfa: sp 32 +
STACK CFI 3a494 .cfa: x29 32 + x19: .cfa -8 + ^ x20: .cfa -16 + ^ .ra: .cfa -24 + ^ x29: .cfa -32 + ^
STACK CFI 3a4b4 .cfa: sp 32 +
STACK CFI 3a4bc .cfa: sp 0 +
STACK CFI 3a4c0 .cfa: x29 32 +
STACK CFI 3a4dc .cfa: sp 32 +
STACK CFI 3a4e4 .cfa: sp 0 +
STACK CFI INIT 3a6ac 1c .cfa: sp 0 +
STACK CFI INIT 3a6c8 c .cfa: sp 0 +
STACK CFI INIT 3a6d4 34 .cfa: sp 0 +
STACK CFI 3a6d8 .cfa: sp 16 +
STACK CFI 3a6dc .cfa: x29 16 + .ra: .cfa -8 + ^ x29: .cfa -16 + ^
STACK CFI INIT 3a708 24 .cfa: sp 0 +
STACK CFI 3a70c .cfa: sp 32 +
STACK CFI 3a714 .cfa: x29 32 + x19: .cfa -16 + ^ .ra: .cfa -24 + ^ x29: .cfa -32 + ^
STACK CFI 3a720 .cfa: sp 32 +
STACK CFI 3a728 .cfa: sp 0 +
STACK CFI INIT 3a72c 4 .cfa: sp 0 +
STACK CFI INIT 3a730 4 .cfa: sp 0 +
STACK CFI INIT 3a734 38 .cfa: sp 0 +
STACK CFI 3a738 .cfa: sp 32 +
STACK CFI 3a740 .cfa: x29 32 + x19: .cfa -16 + ^ .ra: .cfa -24 + ^ x29: .cfa -32 + ^
STACK CFI 3a760 .cfa: sp 32 +
STACK CFI 3a768 .cfa: sp 0 +
STACK CFI INIT 3a76c 18 .cfa: sp 0 +
STACK CFI INIT 3a784 4 .cfa: sp 0 +
STACK CFI INIT 3a788 4 .cfa: sp 0 +
STACK CFI INIT 3b200 1c .cfa: sp 0 +
STACK CFI INIT 3b21c c .cfa: sp 0 +
STACK CFI INIT 3b29c a0 .cfa: sp 0 +
STACK CFI 3b2a0 .cfa: sp 80 +
STACK CFI 3b2b0 .cfa: x29 48 + x19: .cfa -8 + ^ x20: .cfa -16 + ^ x21: .cfa -32 + ^ .ra: .cfa -40 + ^ x29: .cfa -48 + ^
STACK CFI 3b324 .cfa: sp 80 +
STACK CFI 3b334 .cfa: sp 0 +
STACK CFI 3b338 .cfa: x29 48 +
STACK CFI INIT 3b730 80 .cfa: sp 0 +
STACK CFI 3b734 .cfa: sp 48 +
STACK CFI 3b740 .cfa: x29 48 + x19: .cfa -8 + ^ x20: .cfa -16 + ^ x21: .cfa -32 + ^ .ra: .cfa -40 + ^ x29: .cfa -48 + ^
STACK CFI 3b7a0 .cfa: sp 48 +
STACK CFI 3b7ac .cfa: sp 0 +
STACK CFI INIT 3b7b0 24 .cfa: sp 0 +
STACK CFI 3b7b4 .cfa: sp 32 +
STACK CFI 3b7bc .cfa: x29 32 + x19: .cfa -16 + ^ .ra: .cfa -24 + ^ x29: .cfa -32 + ^
STACK CFI 3b7c8 .cfa: sp 32 +
STACK CFI 3b7d0 .cfa: sp 0 +
STACK CFI INIT 3bccc 148 .cfa: sp 0 +
STACK CFI 3bcd0 .cfa: sp 48 +
STACK CFI 3bcdc .cfa: x29 48 + x19: .cfa -8 + ^ x20: .cfa -16 + ^ x21: .cfa -32 + ^ .ra: .cfa -40 + ^ x29: .cfa -48 + ^
STACK CFI 3be04 .cfa: sp 48 +
STACK CFI 3be10 .cfa: sp 0 +
STACK CFI INIT 3be14 4 .cfa: sp 0 +
STACK CFI INIT 3be18 14 .cfa: sp 0 +
STACK CFI INIT 3be2c 8 .cfa: sp 0 +
STACK CFI INIT 3be34 14 .cfa: sp 0 +
STACK CFI INIT 3be48 14 .cfa: sp 0 +
STACK CFI INIT 3be5c 14 .cfa: sp 0 +
STACK CFI INIT 3be70 4 .cfa: sp 0 +
STACK CFI INIT 3be74 4 .cfa: sp 0 +
STACK CFI INIT 3be78 34 .cfa: sp 0 +
STACK CFI 3be7c .cfa: sp 32 +
STACK CFI 3be84 .cfa: x29 32 + x19: .cfa -16 + ^ .ra: .cfa -24 + ^ x29: .cfa -32 + ^
STACK CFI 3bea0 .cfa: sp 32 +
STACK CFI 3bea8 .cfa: sp 0 +
STACK CFI INIT 3beac 14 .cfa: sp 0 +
STACK CFI INIT 3bec0 4 .cfa: sp 0 +
STACK CFI INIT 3bec4 4 .cfa: sp 0 +
STACK CFI INIT 3bec8 18 .cfa: sp 0 +
STACK CFI INIT 3bee0 1c .cfa: sp 0 +
STACK CFI INIT 3befc c .cfa: sp 0 +
STACK CFI INIT 3c94c 50 .cfa: sp 0 +
STACK CFI 3c950 .cfa: sp 32 +
STACK CFI 3c958 .cfa: x29 32 + x19: .cfa -16 + ^ .ra: .cfa -24 + ^ x29: .cfa -32 + ^
STACK CFI 3c970 .cfa: sp 32 +
STACK CFI 3c978 .cfa: sp 0 +
STACK CFI 3c97c .cfa: x29 32 +
STACK CFI 3c990 .cfa: sp 32 +
STACK CFI 3c998 .cfa: sp 0 +
STACK CFI INIT 3c99c 50 .cfa: sp 0 +
STACK CFI 3c9a0 .cfa: sp 32 +
STACK CFI 3c9a8 .cfa: x29 32 + x19: .cfa -16 + ^ .ra: .cfa -24 + ^ x29: .cfa -32 + ^
STACK CFI 3c9c0 .cfa: sp 32 +
STACK CFI 3c9c8 .cfa: sp 0 +
STACK CFI 3c9cc .cfa: x29 32 +
STACK CFI 3c9e0 .cfa: sp 32 +
STACK CFI 3c9e8 .cfa: sp 0 +
STACK CFI INIT 3c9ec 24 .cfa: sp 0 +
STACK CFI 3c9f0 .cfa: sp 32 +
STACK CFI 3c9f8 .cfa: x29 32 + x19: .cfa -16 + ^ .ra: .cfa -24 + ^ x29: .cfa -32 + ^
STACK CFI 3ca04 .cfa: sp 32 +
STACK CFI 3ca0c .cfa: sp 0 +
STACK CFI INIT 3ca10 8 .cfa: sp 0 +
STACK CFI INIT 3ca18 8 .cfa: sp 0 +
STACK CFI INIT 3ca20 8 .cfa: sp 0 +
STACK CFI INIT 3ca28 4 .cfa: sp 0 +
STACK CFI INIT 3ca2c 8 .cfa: sp 0 +
STACK CFI INIT 3ca34 d4 .cfa: sp 0 +
STACK CFI 3ca38 .cfa: sp 32 +
STACK CFI 3ca40 .cfa: x29 32 + x19: .cfa -8 + ^ x20: .cfa -16 + ^ .ra: .cfa -24 + ^ x29: .cfa -32 + ^
STACK CFI 3ca84 .cfa: sp 32 +
STACK CFI 3ca8c .cfa: sp 0 +
STACK CFI 3ca90 .cfa: x29 32 +
STACK CFI 3cafc .cfa: sp 32 +
STACK CFI 3cb04 .cfa: sp 0 +
STACK CFI INIT 3cb08 e4 .cfa: sp 0 +
STACK CFI 3cb0c .cfa: sp 32 +
STACK CFI 3cb14 .cfa: x29 32 + x19: .cfa -8 + ^ x20: .cfa -16 + ^ .ra: .cfa -24 + ^ x29: .cfa -32 + ^
STACK CFI 3cb60 .cfa: sp 32 +
STACK CFI 3cb68 .cfa: sp 0 +
STACK CFI 3cb6c .cfa: x29 32 +
STACK CFI 3cbe0 .cfa: sp 32 +
STACK CFI 3cbe8 .cfa: sp 0 +
STACK CFI INIT 3cbec 4 .cfa: sp 0 +
STACK CFI INIT 3cbf0 4 .cfa: sp 0 +
STACK CFI INIT 3cbf4 8 .cfa: sp 0 +
STACK CFI INIT 3cbfc 8 .cfa: sp 0 +
STACK CFI INIT 3d0d8 34 .cfa: sp 0 +
STACK CFI 3d0dc .cfa: sp 16 +
STACK CFI 3d0e0 .cfa: x29 16 + .ra: .cfa -8 + ^ x29: .cfa -16 + ^
STACK CFI INIT 3d10c 4 .cfa: sp 0 +
STACK CFI INIT 3d110 4 .cfa: sp 0 +
STACK CFI INIT 3d114 34 .cfa: sp 0 +
STACK CFI 3d118 .cfa: sp 32 +
STACK CFI 3d120 .cfa: x29 32 + x19: .cfa -16 + ^ .ra: .cfa -24 + ^ x29: .cfa -32 + ^
STACK CFI 3d13c .cfa: sp 32 +
STACK CFI 3d144 .cfa: sp 0 +
STACK CFI INIT 3d148 14 .cfa: sp 0 +
STACK CFI INIT 3d15c 4 .cfa: sp 0 +
STACK CFI INIT 3d160 4 .cfa: sp 0 +
STACK CFI INIT 3d164 18 .cfa: sp 0 +
STACK CFI INIT 3d17c 1c .cfa: sp 0 +
STACK CFI INIT 3d198 c .cfa: sp 0 +
STACK CFI INIT 3d1a4 34 .cfa: sp 0 +
STACK CFI 3d1a8 .cfa: sp 16 +
STACK CFI 3d1ac .cfa: x29 16 + .ra: .cfa -8 + ^ x29: .cfa -16 + ^
STACK CFI INIT 3dc28 10 .cfa: sp 0 +
STACK CFI INIT 3dc38 30 .cfa: sp 0 +
STACK CFI 3dc3c .cfa: sp 32 +
STACK CFI 3dc44 .cfa: x29 32 + x19: .cfa -16 + ^ .ra: .cfa -24 + ^ x29: .cfa -32 + ^
STACK CFI 3dc5c .cfa: sp 32 +
STACK CFI 3dc64 .cfa: sp 0 +
STACK CFI INIT 3dc68 c .cfa: sp 0 +
STACK CFI INIT 3dc74 4 .cfa: sp 0 +
STACK CFI INIT 3dc78 4 .cfa: sp 0 +
STACK CFI INIT 3dc7c 4 .cfa: sp 0 +
STACK CFI INIT 3dc80 34 .cfa: sp 0 +
STACK CFI 3dc84 .cfa: sp 32 +
STACK CFI 3dc8c .cfa: x29 32 + x19: .cfa -16 + ^ .ra: .cfa -24 + ^ x29: .cfa -32 + ^
STACK CFI 3dca8 .cfa: sp 32 +
STACK CFI 3dcb0 .cfa: sp 0 +
STACK CFI INIT 3dcb4 14 .cfa: sp 0 +
STACK CFI INIT 3dcc8 4 .cfa: sp 0 +
STACK CFI INIT 3dccc 4 .cfa: sp 0 +
STACK CFI INIT 3dcd0 14 .cfa: sp 0 +
STACK CFI INIT 3dce4 1c .cfa: sp 0 +
STACK CFI INIT 3dd00 c .cfa: sp 0 +
STACK CFI INIT 3dd0c 4 .cfa: sp 0 +
STACK CFI INIT 3dd10 14 .cfa: sp 0 +
STACK CFI INIT 3de1c 50 .cfa: sp 0 +
STACK CFI 3de20 .cfa: sp 32 +
STACK CFI 3de28 .cfa: x29 32 + x19: .cfa -16 + ^ .ra: .cfa -24 + ^ x29: .cfa -32 + ^
STACK CFI 3de40 .cfa: sp 32 +
STACK CFI 3de48 .cfa: sp 0 +
STACK CFI 3de4c .cfa: x29 32 +
STACK CFI 3de60 .cfa: sp 32 +
STACK CFI 3de68 .cfa: sp 0 +
STACK CFI INIT 3de6c 4 .cfa: sp 0 +
STACK CFI INIT 3de70 38 .cfa: sp 0 +
STACK CFI 3de74 .cfa: sp 32 +
STACK CFI 3de7c .cfa: x29 32 + x19: .cfa -16 + ^ .ra: .cfa -24 + ^ x29: .cfa -32 + ^
STACK CFI 3de9c .cfa: sp 32 +
STACK CFI 3dea4 .cfa: sp 0 +
STACK CFI INIT 3dea8 18 .cfa: sp 0 +
STACK CFI INIT 3dec0 4 .cfa: sp 0 +
STACK CFI INIT 3dec4 4 .cfa: sp 0 +
STACK CFI INIT 3e0ac 1c .cfa: sp 0 +
STACK CFI INIT 3e0c8 c .cfa: sp 0 +
STACK CFI INIT 3e0d4 50 .cfa: sp 0 +
STACK CFI 3e0d8 .cfa: sp 32 +
STACK CFI 3e0e0 .cfa: x29 32 + x19: .cfa -16 + ^ .ra: .cfa -24 + ^ x29: .cfa -32 + ^
STACK CFI 3e0f8 .cfa: sp 32 +
STACK CFI 3e100 .cfa: sp 0 +
STACK CFI 3e104 .cfa: x29 32 +
STACK CFI 3e118 .cfa: sp 32 +
STACK CFI 3e120 .cfa: sp 0 +
STACK CFI INIT 3e124 4 .cfa: sp 0 +
STACK CFI INIT 3e29c 9c .cfa: sp 0 +
STACK CFI 3e2a0 .cfa: sp 32 +
STACK CFI 3e2a8 .cfa: x29 32 + x19: .cfa -8 + ^ x20: .cfa -16 + ^ .ra: .cfa -24 + ^ x29: .cfa -32 + ^
STACK CFI 3e32c .cfa: sp 32 +
STACK CFI 3e334 .cfa: sp 0 +
STACK CFI INIT 3e338 a4 .cfa: sp 0 +
STACK CFI 3e33c .cfa: sp 32 +
STACK CFI 3e344 .cfa: x29 32 + x19: .cfa -8 + ^ x20: .cfa -16 + ^ .ra: .cfa -24 + ^ x29: .cfa -32 + ^
STACK CFI 3e3d0 .cfa: sp 32 +
STACK CFI 3e3d8 .cfa: sp 0 +
STACK CFI INIT 3e3dc 4 .cfa: sp 0 +
STACK CFI INIT 3e3e0 38 .cfa: sp 0 +
STACK CFI 3e3e4 .cfa: sp 32 +
STACK CFI 3e3ec .cfa: x29 32 + x19: .cfa -16 + ^ .ra: .cfa -24 + ^ x29: .cfa -32 + ^
STACK CFI 3e40c .cfa: sp 32 +
STACK CFI 3e414 .cfa: sp 0 +
STACK CFI INIT 3e418 18 .cfa: sp 0 +
STACK CFI INIT 3e430 4 .cfa: sp 0 +
STACK CFI INIT 3e434 4 .cfa: sp 0 +
STACK CFI INIT 3e618 1c .cfa: sp 0 +
STACK CFI INIT 3e634 c .cfa: sp 0 +
STACK CFI INIT 3e640 4 .cfa: sp 0 +
STACK CFI INIT 3e644 4 .cfa: sp 0 +
STACK CFI INIT 3e648 38 .cfa: sp 0 +
STACK CFI 3e64c .cfa: sp 32 +
STACK CFI 3e654 .cfa: x29 32 + x19: .cfa -16 + ^ .ra: .cfa -24 + ^ x29: .cfa -32 + ^
STACK CFI 3e674 .cfa: sp 32 +
STACK CFI 3e67c .cfa: sp 0 +
STACK CFI INIT 3e680 18 .cfa: sp 0 +
STACK CFI INIT 3e698 4 .cfa: sp 0 +
STACK CFI INIT 3e69c 4 .cfa: sp 0 +
STACK CFI INIT 3e888 1c .cfa: sp 0 +
STACK CFI INIT 3e8a4 c .cfa: sp 0 +
STACK CFI INIT 3e8b0 50 .cfa: sp 0 +
STACK CFI 3e8b4 .cfa: sp 32 +
STACK CFI 3e8bc .cfa: x29 32 + x19: .cfa -16 + ^ .ra: .cfa -24 + ^ x29: .cfa -32 + ^
STACK CFI 3e8d4 .cfa: sp 32 +
STACK CFI 3e8dc .cfa: sp 0 +
STACK CFI 3e8e0 .cfa: x29 32 +
STACK CFI 3e8f4 .cfa: sp 32 +
STACK CFI 3e8fc .cfa: sp 0 +
STACK CFI INIT 3e900 4 .cfa: sp 0 +
STACK CFI INIT 3ea78 5c .cfa: sp 0 +
STACK CFI 3ea7c .cfa: sp 32 +
STACK CFI 3ea84 .cfa: x29 32 + x19: .cfa -16 + ^ .ra: .cfa -24 + ^ x29: .cfa -32 + ^
STACK CFI 3eac8 .cfa: sp 32 +
STACK CFI 3ead0 .cfa: sp 0 +
STACK CFI INIT 3ead4 64 .cfa: sp 0 +
STACK CFI 3ead8 .cfa: sp 32 +
STACK CFI 3eae0 .cfa: x29 32 + x19: .cfa -16 + ^ .ra: .cfa -24 + ^ x29: .cfa -32 + ^
STACK CFI 3eb2c .cfa: sp 32 +
STACK CFI 3eb34 .cfa: sp 0 +
STACK CFI INIT 3eb38 4 .cfa: sp 0 +
STACK CFI INIT 3eb3c 4 .cfa: sp 0 +
STACK CFI INIT 3eb40 34 .cfa: sp 0 +
STACK CFI 3eb44 .cfa: sp 32 +
STACK CFI 3eb4c .cfa: x29 32 + x19: .cfa -16 + ^ .ra: .cfa -24 + ^ x29: .cfa -32 + ^
STACK CFI 3eb68 .cfa: sp 32 +
STACK CFI 3eb70 .cfa: sp 0 +
STACK CFI INIT 3eb74 14 .cfa: sp 0 +
STACK CFI INIT 3eb88 4 .cfa: sp 0 +
STACK CFI INIT 3eb8c 4 .cfa: sp 0 +
STACK CFI INIT 3eb90 10 .cfa: sp 0 +
STACK CFI INIT 3eba0 1c .cfa: sp 0 +
STACK CFI INIT 3ebbc c .cfa: sp 0 +
STACK CFI INIT 3f178 18 .cfa: sp 0 +
STACK CFI INIT 3f614 18 .cfa: sp 0 +
STACK CFI INIT 3fab0 18 .cfa: sp 0 +
STACK CFI INIT 3ff4c 18 .cfa: sp 0 +
STACK CFI INIT 403e8 18 .cfa: sp 0 +
STACK CFI INIT 40884 18 .cfa: sp 0 +
STACK CFI INIT 40b90 50 .cfa: sp 0 +
STACK CFI 40b94 .cfa: sp 32 +
STACK CFI 40b9c .cfa: x29 32 + x19: .cfa -16 + ^ .ra: .cfa -24 + ^ x29: .cfa -32 + ^
STACK CFI 40bb4 .cfa: sp 32 +
STACK CFI 40bbc .cfa: sp 0 +
STACK CFI 40bc0 .cfa: x29 32 +
STACK CFI 40bd4 .cfa: sp 32 +
STACK CFI 40bdc .cfa: sp 0 +
STACK CFI INIT 40c54 4 .cfa: sp 0 +
STACK CFI INIT 40dac 4 .cfa: sp 0 +
STACK CFI INIT 40db0 14 .cfa: sp 0 +
STACK CFI INIT 40dc4 120 .cfa: sp 0 +
STACK CFI 40dc8 .cfa: sp 64 +
STACK CFI 40dd8 .cfa: x29 64 + x19: .cfa -8 + ^ x20: .cfa -16 + ^ x21: .cfa -24 + ^ x22: .cfa -32 + ^ x23: .cfa -40 + ^ x24: .cfa -48 + ^ .ra: .cfa -56 + ^ x29: .cfa -64 + ^
STACK CFI 40ed0 .cfa: sp 64 +
STACK CFI 40ee0 .cfa: sp 0 +
STACK CFI INIT 40ee4 4a4 .cfa: sp 0 +
STACK CFI 40ee8 .cfa: sp 32 +
STACK CFI 40ef0 .cfa: x29 32 + x19: .cfa -8 + ^ x20: .cfa -16 + ^ .ra: .cfa -24 + ^ x29: .cfa -32 + ^
STACK CFI 412d0 .cfa: sp 32 +
STACK CFI 412d8 .cfa: sp 0 +
STACK CFI 412dc .cfa: x29 32 +
STACK CFI INIT 41388 84 .cfa: sp 0 +
STACK CFI 41390 .cfa: sp 32 +
STACK CFI 41398 .cfa: x29 32 + x19: .cfa -8 + ^ x20: .cfa -16 + ^ .ra: .cfa -24 + ^ x29: .cfa -32 + ^
STACK CFI 413d8 .cfa: sp 32 +
STACK CFI 413e0 .cfa: sp 0 +
STACK CFI 413e8 .cfa: x29 32 +
STACK CFI INIT 4140c 260 .cfa: sp 0 +
STACK CFI 41410 .cfa: sp 176 +
STACK CFI 4142c .cfa: x29 72 + x19: .cfa -8 + ^ x20: .cfa -16 + ^ x21: .cfa -24 + ^ x22: .cfa -32 + ^ x23: .cfa -40 + ^ x24: .cfa -48 + ^ x25: .cfa -56 + ^ .ra: .cfa -64 + ^ x29: .cfa -72 + ^ v8: .cfa -80 + ^
STACK CFI 414f4 .cfa: sp 176 +
STACK CFI 41510 .cfa: sp 0 +
STACK CFI 41514 .cfa: x29 72 +
STACK CFI INIT 41714 9c .cfa: sp 0 +
STACK CFI INIT 417b0 50 .cfa: sp 0 +
STACK CFI 417b4 .cfa: sp 32 +
STACK CFI 417bc .cfa: x29 32 + x19: .cfa -16 + ^ .ra: .cfa -24 + ^ x29: .cfa -32 + ^
STACK CFI 417d4 .cfa: sp 32 +
STACK CFI 417dc .cfa: sp 0 +
STACK CFI 417e0 .cfa: x29 32 +
STACK CFI 417f4 .cfa: sp 32 +
STACK CFI 417fc .cfa: sp 0 +
STACK CFI INIT 41800 64 .cfa: sp 0 +
STACK CFI 41804 .cfa: sp 32 +
STACK CFI 4180c .cfa: x29 32 + x19: .cfa -16 + ^ .ra: .cfa -24 + ^ x29: .cfa -32 + ^
STACK CFI 41838 .cfa: sp 32 +
STACK CFI 41840 .cfa: sp 0 +
STACK CFI 41844 .cfa: x29 32 +
STACK CFI 41858 .cfa: sp 32 +
STACK CFI 41860 .cfa: sp 0 +
STACK CFI INIT 41864 14 .cfa: sp 0 +
STACK CFI 41868 .cfa: sp 16 +
STACK CFI 4186c .cfa: x29 16 + .ra: .cfa -8 + ^ x29: .cfa -16 + ^
STACK CFI INIT 41878 4 .cfa: sp 0 +
STACK CFI INIT 4187c 168 .cfa: sp 0 +
STACK CFI 41880 .cfa: sp 80 +
STACK CFI 41894 .cfa: x29 80 + x19: .cfa -8 + ^ x20: .cfa -16 + ^ x21: .cfa -24 + ^ x22: .cfa -32 + ^ x23: .cfa -40 + ^ x24: .cfa -48 + ^ x25: .cfa -56 + ^ x26: .cfa -64 + ^ .ra: .cfa -72 + ^ x29: .cfa -80 + ^
STACK CFI 419cc .cfa: sp 80 +
STACK CFI 419e0 .cfa: sp 0 +
STACK CFI INIT 419e4 1b0 .cfa: sp 0 +
STACK CFI INIT 41eb0 4 .cfa: sp 0 +
STACK CFI INIT 41eb4 50 .cfa: sp 0 +
STACK CFI 41eb8 .cfa: sp 32 +
STACK CFI 41ec0 .cfa: x29 32 + x19: .cfa -16 + ^ .ra: .cfa -24 + ^ x29: .cfa -32 + ^
STACK CFI 41ef8 .cfa: sp 32 +
STACK CFI 41f00 .cfa: sp 0 +
STACK CFI INIT 41fac 8c .cfa: sp 0 +
STACK CFI 41fb0 .cfa: sp 32 +
STACK CFI 41fb8 .cfa: x29 32 + x19: .cfa -16 + ^ .ra: .cfa -24 + ^ x29: .cfa -32 + ^
STACK CFI 4202c .cfa: sp 32 +
STACK CFI 42034 .cfa: sp 0 +
STACK CFI INIT 42038 4 .cfa: sp 0 +
STACK CFI INIT 42394 4 .cfa: sp 0 +
STACK CFI INIT 42398 60 .cfa: sp 0 +
STACK CFI 4239c .cfa: sp 32 +
STACK CFI 423a4 .cfa: x29 32 + x19: .cfa -8 + ^ x20: .cfa -16 + ^ .ra: .cfa -24 + ^ x29: .cfa -32 + ^
STACK CFI 423ec .cfa: sp 32 +
STACK CFI 423f4 .cfa: sp 0 +
STACK CFI INIT 423f8 4 .cfa: sp 0 +
STACK CFI INIT 426fc 4 .cfa: sp 0 +
STACK CFI INIT 42700 60 .cfa: sp 0 +
STACK CFI 42704 .cfa: sp 32 +
STACK CFI 4270c .cfa: x29 32 + x19: .cfa -8 + ^ x20: .cfa -16 + ^ .ra: .cfa -24 + ^ x29: .cfa -32 + ^
STACK CFI 42754 .cfa: sp 32 +
STACK CFI 4275c .cfa: sp 0 +
STACK CFI INIT 42808 98 .cfa: sp 0 +
STACK CFI INIT 428a0 4 .cfa: sp 0 +
STACK CFI INIT 42bf0 4 .cfa: sp 0 +
STACK CFI INIT 42bf4 60 .cfa: sp 0 +
STACK CFI 42bf8 .cfa: sp 32 +
STACK CFI 42c00 .cfa: x29 32 + x19: .cfa -8 + ^ x20: .cfa -16 + ^ .ra: .cfa -24 + ^ x29: .cfa -32 + ^
STACK CFI 42c48 .cfa: sp 32 +
STACK CFI 42c50 .cfa: sp 0 +
STACK CFI INIT 42c54 4 .cfa: sp 0 +
STACK CFI INIT 42ff4 4 .cfa: sp 0 +
STACK CFI INIT 42ff8 60 .cfa: sp 0 +
STACK CFI 42ffc .cfa: sp 32 +
STACK CFI 43004 .cfa: x29 32 + x19: .cfa -8 + ^ x20: .cfa -16 + ^ .ra: .cfa -24 + ^ x29: .cfa -32 + ^
STACK CFI 4304c .cfa: sp 32 +
STACK CFI 43054 .cfa: sp 0 +
STACK CFI INIT 43058 4 .cfa: sp 0 +
STACK CFI INIT 43200 24 .cfa: sp 0 +
STACK CFI 43204 .cfa: sp 32 +
STACK CFI 4320c .cfa: x29 32 + x19: .cfa -16 + ^ .ra: .cfa -24 + ^ x29: .cfa -32 + ^
STACK CFI 43218 .cfa: sp 32 +
STACK CFI 43220 .cfa: sp 0 +
STACK CFI INIT 43224 4 .cfa: sp 0 +
STACK CFI INIT 43228 8 .cfa: sp 0 +
STACK CFI INIT 43230 8 .cfa: sp 0 +
STACK CFI INIT 43238 28 .cfa: sp 0 +
STACK CFI 4323c .cfa: sp 32 +
STACK CFI 43244 .cfa: x29 32 + x19: .cfa -16 + ^ .ra: .cfa -24 + ^ x29: .cfa -32 + ^
STACK CFI 43254 .cfa: sp 32 +
STACK CFI 4325c .cfa: sp 0 +
STACK CFI INIT 43260 4 .cfa: sp 0 +
STACK CFI INIT 43264 4 .cfa: sp 0 +
STACK CFI INIT 43268 4 .cfa: sp 0 +
STACK CFI INIT 4326c 4 .cfa: sp 0 +
STACK CFI INIT 43270 4 .cfa: sp 0 +
STACK CFI INIT 43274 8 .cfa: sp 0 +
STACK CFI INIT 4327c 3c .cfa: sp 0 +
STACK CFI 43280 .cfa: sp 32 +
STACK CFI 43288 .cfa: x29 32 + x19: .cfa -16 + ^ .ra: .cfa -24 + ^ x29: .cfa -32 + ^
STACK CFI 43294 .cfa: sp 32 +
STACK CFI 4329c .cfa: sp 0 +
STACK CFI 432a0 .cfa: x29 32 +
STACK CFI 432ac .cfa: sp 32 +
STACK CFI 432b4 .cfa: sp 0 +
STACK CFI INIT 432b8 4c .cfa: sp 0 +
STACK CFI 432bc .cfa: sp 32 +
STACK CFI 432c4 .cfa: x29 32 + x19: .cfa -8 + ^ x20: .cfa -16 + ^ .ra: .cfa -24 + ^ x29: .cfa -32 + ^
STACK CFI 432ec .cfa: sp 32 +
STACK CFI 432f4 .cfa: sp 0 +
STACK CFI 432f8 .cfa: sp 32 +
STACK CFI 43300 .cfa: sp 0 +
STACK CFI INIT 43524 64 .cfa: sp 0 +
STACK CFI 43528 .cfa: sp 32 +
STACK CFI 43530 .cfa: x29 32 + x19: .cfa -16 + ^ .ra: .cfa -24 + ^ x29: .cfa -32 + ^
STACK CFI 4355c .cfa: sp 32 +
STACK CFI 43564 .cfa: sp 0 +
STACK CFI 43568 .cfa: x29 32 +
STACK CFI 4357c .cfa: sp 32 +
STACK CFI 43584 .cfa: sp 0 +
STACK CFI INIT 43588 24 .cfa: sp 0 +
STACK CFI 4358c .cfa: sp 32 +
STACK CFI 43594 .cfa: x29 32 + x19: .cfa -16 + ^ .ra: .cfa -24 + ^ x29: .cfa -32 + ^
STACK CFI 435a0 .cfa: sp 32 +
STACK CFI 435a8 .cfa: sp 0 +
STACK CFI INIT 43808 24 .cfa: sp 0 +
STACK CFI 4380c .cfa: sp 32 +
STACK CFI 43814 .cfa: x29 32 + x19: .cfa -16 + ^ .ra: .cfa -24 + ^ x29: .cfa -32 + ^
STACK CFI 43820 .cfa: sp 32 +
STACK CFI 43828 .cfa: sp 0 +
STACK CFI INIT 4382c 8 .cfa: sp 0 +
STACK CFI INIT 43834 24 .cfa: sp 0 +
STACK CFI 43838 .cfa: sp 32 +
STACK CFI 43840 .cfa: x29 32 + x19: .cfa -16 + ^ .ra: .cfa -24 + ^ x29: .cfa -32 + ^
STACK CFI 4384c .cfa: sp 32 +
STACK CFI 43854 .cfa: sp 0 +
STACK CFI INIT 43858 28 .cfa: sp 0 +
STACK CFI 4385c .cfa: sp 32 +
STACK CFI 43864 .cfa: x29 32 + x19: .cfa -16 + ^ .ra: .cfa -24 + ^ x29: .cfa -32 + ^
STACK CFI 43874 .cfa: sp 32 +
STACK CFI 4387c .cfa: sp 0 +
STACK CFI INIT 43b80 8 .cfa: sp 0 +
STACK CFI INIT 43b88 24 .cfa: sp 0 +
STACK CFI 43b8c .cfa: sp 32 +
STACK CFI 43b94 .cfa: x29 32 + x19: .cfa -16 + ^ .ra: .cfa -24 + ^ x29: .cfa -32 + ^
STACK CFI 43ba0 .cfa: sp 32 +
STACK CFI 43ba8 .cfa: sp 0 +
STACK CFI INIT 43bac 28 .cfa: sp 0 +
STACK CFI 43bb0 .cfa: sp 32 +
STACK CFI 43bb8 .cfa: x29 32 + x19: .cfa -16 + ^ .ra: .cfa -24 + ^ x29: .cfa -32 + ^
STACK CFI 43bc8 .cfa: sp 32 +
STACK CFI 43bd0 .cfa: sp 0 +
STACK CFI INIT 43e38 8 .cfa: sp 0 +
STACK CFI INIT 43e40 24 .cfa: sp 0 +
STACK CFI 43e44 .cfa: sp 32 +
STACK CFI 43e4c .cfa: x29 32 + x19: .cfa -16 + ^ .ra: .cfa -24 + ^ x29: .cfa -32 + ^
STACK CFI 43e58 .cfa: sp 32 +
STACK CFI 43e60 .cfa: sp 0 +
STACK CFI INIT 43e64 28 .cfa: sp 0 +
STACK CFI 43e68 .cfa: sp 32 +
STACK CFI 43e70 .cfa: x29 32 + x19: .cfa -16 + ^ .ra: .cfa -24 + ^ x29: .cfa -32 + ^
STACK CFI 43e80 .cfa: sp 32 +
STACK CFI 43e88 .cfa: sp 0 +
STACK CFI INIT 43e8c 8 .cfa: sp 0 +
STACK CFI INIT 43e94 24 .cfa: sp 0 +
STACK CFI 43e98 .cfa: sp 32 +
STACK CFI 43ea0 .cfa: x29 32 + x19: .cfa -16 + ^ .ra: .cfa -24 + ^ x29: .cfa -32 + ^
STACK CFI 43eac .cfa: sp 32 +
STACK CFI 43eb4 .cfa: sp 0 +
STACK CFI INIT 43eb8 28 .cfa: sp 0 +
STACK CFI 43ebc .cfa: sp 32 +
STACK CFI 43ec4 .cfa: x29 32 + x19: .cfa -16 + ^ .ra: .cfa -24 + ^ x29: .cfa -32 + ^
STACK CFI 43ed4 .cfa: sp 32 +
STACK CFI 43edc .cfa: sp 0 +
STACK CFI INIT 4537c 4 .cfa: sp 0 +
STACK CFI INIT 46510 4 .cfa: sp 0 +
STACK CFI INIT 46514 14 .cfa: sp 0 +
STACK CFI INIT 46a34 c .cfa: sp 0 +
STACK CFI INIT 46a40 24c .cfa: sp 0 +
STACK CFI INIT 46c8c a0 .cfa: sp 0 +
STACK CFI 46c98 .cfa: sp 32 +
STACK CFI 46cf0 .cfa: sp 0 +
STACK CFI 46cf4 .cfa: sp 32 +
STACK CFI 46cfc .cfa: sp 0 +
STACK CFI 46d00 .cfa: sp 32 +
STACK CFI 46d14 .cfa: sp 0 +
STACK CFI 46d18 .cfa: sp 32 +
STACK CFI 46d28 .cfa: sp 0 +
STACK CFI INIT 46d2c 38 .cfa: sp 0 +
STACK CFI 46d38 .cfa: sp 32 +
STACK CFI 46d60 .cfa: sp 0 +
STACK CFI INIT 46ff8 7c .cfa: sp 0 +
STACK CFI 46ffc .cfa: sp 32 +
STACK CFI 47004 .cfa: x29 32 + x19: .cfa -16 + ^ .ra: .cfa -24 + ^ x29: .cfa -32 + ^
STACK CFI 47030 .cfa: sp 32 +
STACK CFI 47038 .cfa: sp 0 +
STACK CFI 4703c .cfa: x29 32 +
STACK CFI 47068 .cfa: sp 32 +
STACK CFI 47070 .cfa: sp 0 +
STACK CFI INIT 470c4 2c .cfa: sp 0 +
STACK CFI 470c8 .cfa: sp 32 +
STACK CFI 470d0 .cfa: x29 32 + x19: .cfa -16 + ^ .ra: .cfa -24 + ^ x29: .cfa -32 + ^
STACK CFI 470e4 .cfa: sp 32 +
STACK CFI 470ec .cfa: sp 0 +
STACK CFI INIT 478b0 64 .cfa: sp 0 +
STACK CFI 478b4 .cfa: sp 32 +
STACK CFI 478bc .cfa: x29 32 + x19: .cfa -16 + ^ .ra: .cfa -24 + ^ x29: .cfa -32 + ^
STACK CFI 478d8 .cfa: sp 32 +
STACK CFI 478e0 .cfa: sp 0 +
STACK CFI 478e4 .cfa: x29 32 +
STACK CFI 47908 .cfa: sp 32 +
STACK CFI 47910 .cfa: sp 0 +
STACK CFI INIT 47914 570 .cfa: sp 0 +
STACK CFI 47918 .cfa: sp 176 +
STACK CFI 4792c .cfa: x29 64 + x19: .cfa -8 + ^ x20: .cfa -16 + ^ x21: .cfa -24 + ^ x22: .cfa -32 + ^ x23: .cfa -40 + ^ x24: .cfa -48 + ^ .ra: .cfa -56 + ^ x29: .cfa -64 + ^
STACK CFI 47b5c .cfa: sp 176 +
STACK CFI 47b70 .cfa: sp 0 +
STACK CFI 47b74 .cfa: x29 64 +
STACK CFI 47bc0 .cfa: sp 176 +
STACK CFI 47bd4 .cfa: sp 0 +
STACK CFI 47bd8 .cfa: x29 64 +
STACK CFI 47c10 .cfa: sp 176 +
STACK CFI 47c24 .cfa: sp 0 +
STACK CFI 47c28 .cfa: x29 64 +
STACK CFI 47c40 .cfa: sp 176 +
STACK CFI 47c54 .cfa: sp 0 +
STACK CFI 47c58 .cfa: x29 64 +
STACK CFI 47c78 .cfa: sp 176 +
STACK CFI 47c8c .cfa: sp 0 +
STACK CFI 47c90 .cfa: x29 64 +
STACK CFI 47ca8 .cfa: sp 176 +
STACK CFI 47cbc .cfa: sp 0 +
STACK CFI 47cc0 .cfa: x29 64 +
STACK CFI 47cd4 .cfa: sp 176 +
STACK CFI 47ce8 .cfa: sp 0 +
STACK CFI 47cec .cfa: x29 64 +
STACK CFI 47d00 .cfa: sp 176 +
STACK CFI 47d14 .cfa: sp 0 +
STACK CFI 47d18 .cfa: x29 64 +
STACK CFI 47d28 .cfa: sp 176 +
STACK CFI 47d3c .cfa: sp 0 +
STACK CFI 47d40 .cfa: x29 64 +
STACK CFI 47d50 .cfa: sp 176 +
STACK CFI 47d64 .cfa: sp 0 +
STACK CFI 47d68 .cfa: x29 64 +
STACK CFI 47d80 .cfa: sp 176 +
STACK CFI 47d94 .cfa: sp 0 +
STACK CFI 47d98 .cfa: x29 64 +
STACK CFI 47dac .cfa: sp 176 +
STACK CFI 47dc0 .cfa: sp 0 +
STACK CFI 47dc4 .cfa: x29 64 +
STACK CFI 47ddc .cfa: sp 176 +
STACK CFI 47df0 .cfa: sp 0 +
STACK CFI 47df4 .cfa: x29 64 +
STACK CFI 47e20 .cfa: sp 176 +
STACK CFI 47e34 .cfa: sp 0 +
STACK CFI 47e38 .cfa: x29 64 +
STACK CFI 47e4c .cfa: sp 176 +
STACK CFI 47e60 .cfa: sp 0 +
STACK CFI 47e64 .cfa: x29 64 +
STACK CFI INIT 47e84 228 .cfa: sp 0 +
STACK CFI INIT 480ac 2dc .cfa: sp 0 +
STACK CFI INIT 48388 53c .cfa: sp 0 +
STACK CFI INIT 488c4 78 .cfa: sp 0 +
STACK CFI 488c8 .cfa: sp 48 +
STACK CFI 488d4 .cfa: x29 48 + x19: .cfa -8 + ^ x20: .cfa -16 + ^ x21: .cfa -24 + ^ x22: .cfa -32 + ^ .ra: .cfa -40 + ^ x29: .cfa -48 + ^
STACK CFI 4891c .cfa: sp 48 +
STACK CFI 48928 .cfa: sp 0 +
STACK CFI 4892c .cfa: sp 48 +
STACK CFI 48938 .cfa: sp 0 +
STACK CFI INIT 4893c 8c .cfa: sp 0 +
STACK CFI 48940 .cfa: sp 32 +
STACK CFI 48948 .cfa: x29 32 + x19: .cfa -16 + ^ .ra: .cfa -24 + ^ x29: .cfa -32 + ^
STACK CFI 4897c .cfa: sp 32 +
STACK CFI 48984 .cfa: sp 0 +
STACK CFI 48988 .cfa: x29 32 +
STACK CFI 489bc .cfa: sp 32 +
STACK CFI 489c4 .cfa: sp 0 +
STACK CFI INIT 489c8 24 .cfa: sp 0 +
STACK CFI 489cc .cfa: sp 32 +
STACK CFI 489d4 .cfa: x29 32 + x19: .cfa -16 + ^ .ra: .cfa -24 + ^ x29: .cfa -32 + ^
STACK CFI 489e0 .cfa: sp 32 +
STACK CFI 489e8 .cfa: sp 0 +
STACK CFI INIT 489ec 150 .cfa: sp 0 +
STACK CFI 489f0 .cfa: sp 48 +
STACK CFI 489fc .cfa: x29 48 + x19: .cfa -8 + ^ x20: .cfa -16 + ^ x21: .cfa -24 + ^ x22: .cfa -32 + ^ .ra: .cfa -40 + ^ x29: .cfa -48 + ^
STACK CFI 48b2c .cfa: sp 48 +
STACK CFI 48b38 .cfa: sp 0 +
STACK CFI INIT 48b3c 68 .cfa: sp 0 +
STACK CFI 48b40 .cfa: sp 64 +
STACK CFI 48b4c .cfa: x29 32 + x19: .cfa -16 + ^ .ra: .cfa -24 + ^ x29: .cfa -32 + ^
STACK CFI 48b90 .cfa: sp 64 +
STACK CFI 48b9c .cfa: sp 0 +
STACK CFI 48ba0 .cfa: x29 32 +
STACK CFI INIT 48ba4 90 .cfa: sp 0 +
STACK CFI 48ba8 .cfa: sp 32 +
STACK CFI 48bb0 .cfa: x29 32 + x19: .cfa -8 + ^ x20: .cfa -16 + ^ .ra: .cfa -24 + ^ x29: .cfa -32 + ^
STACK CFI 48bdc .cfa: sp 32 +
STACK CFI 48be4 .cfa: sp 0 +
STACK CFI 48be8 .cfa: x29 32 +
STACK CFI 48c28 .cfa: sp 32 +
STACK CFI 48c30 .cfa: sp 0 +
STACK CFI INIT 48c34 ec .cfa: sp 0 +
STACK CFI 48c38 .cfa: sp 112 +
STACK CFI 48c48 .cfa: x29 48 + x19: .cfa -8 + ^ x20: .cfa -16 + ^ x21: .cfa -32 + ^ .ra: .cfa -40 + ^ x29: .cfa -48 + ^
STACK CFI 48d08 .cfa: sp 112 +
STACK CFI 48d18 .cfa: sp 0 +
STACK CFI 48d1c .cfa: x29 48 +
STACK CFI INIT 48d20 ec .cfa: sp 0 +
STACK CFI 48d24 .cfa: sp 112 +
STACK CFI 48d34 .cfa: x29 48 + x19: .cfa -8 + ^ x20: .cfa -16 + ^ x21: .cfa -32 + ^ .ra: .cfa -40 + ^ x29: .cfa -48 + ^
STACK CFI 48df4 .cfa: sp 112 +
STACK CFI 48e04 .cfa: sp 0 +
STACK CFI 48e08 .cfa: x29 48 +
STACK CFI INIT 48e0c 48 .cfa: sp 0 +
STACK CFI 48e10 .cfa: sp 32 +
STACK CFI 48e18 .cfa: x29 32 + x19: .cfa -8 + ^ x20: .cfa -16 + ^ .ra: .cfa -24 + ^ x29: .cfa -32 + ^
STACK CFI 48e3c .cfa: sp 32 +
STACK CFI 48e44 .cfa: sp 0 +
STACK CFI 48e48 .cfa: x29 32 +
STACK CFI INIT 48e54 98 .cfa: sp 0 +
STACK CFI 48e58 .cfa: sp 80 +
STACK CFI 48e64 .cfa: x29 32 + x19: .cfa -16 + ^ .ra: .cfa -24 + ^ x29: .cfa -32 + ^
STACK CFI 48ed8 .cfa: sp 80 +
STACK CFI 48ee4 .cfa: sp 0 +
STACK CFI 48ee8 .cfa: x29 32 +
STACK CFI INIT 48eec 260 .cfa: sp 0 +
STACK CFI 48ef0 .cfa: sp 112 +
STACK CFI 48f08 .cfa: x29 80 + x19: .cfa -8 + ^ x20: .cfa -16 + ^ x21: .cfa -24 + ^ x22: .cfa -32 + ^ x23: .cfa -40 + ^ x24: .cfa -48 + ^ x25: .cfa -64 + ^ .ra: .cfa -72 + ^ x29: .cfa -80 + ^
STACK CFI 490ec .cfa: sp 112 +
STACK CFI 49104 .cfa: sp 0 +
STACK CFI 49108 .cfa: x29 80 +
STACK CFI INIT 4914c 150 .cfa: sp 0 +
STACK CFI 49150 .cfa: sp 48 +
STACK CFI 4915c .cfa: x29 48 + x19: .cfa -8 + ^ x20: .cfa -16 + ^ x21: .cfa -24 + ^ x22: .cfa -32 + ^ .ra: .cfa -40 + ^ x29: .cfa -48 + ^
STACK CFI 4928c .cfa: sp 48 +
STACK CFI 49298 .cfa: sp 0 +
STACK CFI INIT 4929c 1e0 .cfa: sp 0 +
STACK CFI 492a0 .cfa: sp 96 +
STACK CFI 492b4 .cfa: x29 64 + x19: .cfa -8 + ^ x20: .cfa -16 + ^ x21: .cfa -24 + ^ x22: .cfa -32 + ^ x23: .cfa -40 + ^ x24: .cfa -48 + ^ .ra: .cfa -56 + ^ x29: .cfa -64 + ^
STACK CFI 49434 .cfa: sp 96 +
STACK CFI 49448 .cfa: sp 0 +
STACK CFI 4944c .cfa: x29 64 +
STACK CFI INIT 4947c 284 .cfa: sp 0 +
STACK CFI 49480 .cfa: sp 112 +
STACK CFI 49498 .cfa: x29 80 + x19: .cfa -8 + ^ x20: .cfa -16 + ^ x21: .cfa -24 + ^ x22: .cfa -32 + ^ x23: .cfa -40 + ^ x24: .cfa -48 + ^ x25: .cfa -64 + ^ .ra: .cfa -72 + ^ x29: .cfa -80 + ^
STACK CFI 496a0 .cfa: sp 112 +
STACK CFI 496b8 .cfa: sp 0 +
STACK CFI 496bc .cfa: x29 80 +
STACK CFI INIT 49700 208 .cfa: sp 0 +
STACK CFI 49704 .cfa: sp 96 +
STACK CFI 49718 .cfa: x29 64 + x19: .cfa -8 + ^ x20: .cfa -16 + ^ x21: .cfa -24 + ^ x22: .cfa -32 + ^ x23: .cfa -40 + ^ x24: .cfa -48 + ^ .ra: .cfa -56 + ^ x29: .cfa -64 + ^
STACK CFI 498c0 .cfa: sp 96 +
STACK CFI 498d4 .cfa: sp 0 +
STACK CFI 498d8 .cfa: x29 64 +
STACK CFI INIT 49908 360 .cfa: sp 0 +
STACK CFI 4990c .cfa: sp 160 +
STACK CFI 49928 .cfa: x29 96 + x19: .cfa -8 + ^ x20: .cfa -16 + ^ x21: .cfa -24 + ^ x22: .cfa -32 + ^ x23: .cfa -40 + ^ x24: .cfa -48 + ^ x25: .cfa -56 + ^ x26: .cfa -64 + ^ x27: .cfa -72 + ^ x28: .cfa -80 + ^ .ra: .cfa -88 + ^ x29: .cfa -96 + ^
STACK CFI 49bf4 .cfa: sp 160 +
STACK CFI 49c10 .cfa: sp 0 +
STACK CFI 49c14 .cfa: x29 96 +
STACK CFI INIT 49c68 314 .cfa: sp 0 +
STACK CFI 49c6c .cfa: sp 144 +
STACK CFI 49c88 .cfa: x29 96 + x19: .cfa -8 + ^ x20: .cfa -16 + ^ x21: .cfa -24 + ^ x22: .cfa -32 + ^ x23: .cfa -40 + ^ x24: .cfa -48 + ^ x25: .cfa -56 + ^ x26: .cfa -64 + ^ x27: .cfa -72 + ^ x28: .cfa -80 + ^ .ra: .cfa -88 + ^ x29: .cfa -96 + ^
STACK CFI 49f04 .cfa: sp 144 +
STACK CFI 49f20 .cfa: sp 0 +
STACK CFI 49f24 .cfa: x29 96 +
STACK CFI INIT 49f7c 2b4 .cfa: sp 0 +
STACK CFI 49f80 .cfa: sp 128 +
STACK CFI 49f98 .cfa: x29 80 + x19: .cfa -8 + ^ x20: .cfa -16 + ^ x21: .cfa -24 + ^ x22: .cfa -32 + ^ x23: .cfa -40 + ^ x24: .cfa -48 + ^ x25: .cfa -56 + ^ x26: .cfa -64 + ^ .ra: .cfa -72 + ^ x29: .cfa -80 + ^
STACK CFI 4a18c .cfa: sp 128 +
STACK CFI 4a1a4 .cfa: sp 0 +
STACK CFI 4a1a8 .cfa: x29 80 +
STACK CFI 4a210 .cfa: sp 128 +
STACK CFI 4a228 .cfa: sp 0 +
STACK CFI 4a22c .cfa: x29 80 +
STACK CFI INIT 4a230 de0 .cfa: sp 0 +
STACK CFI 4a234 .cfa: sp 144 +
STACK CFI 4a250 .cfa: x29 96 + x19: .cfa -8 + ^ x20: .cfa -16 + ^ x21: .cfa -24 + ^ x22: .cfa -32 + ^ x23: .cfa -40 + ^ x24: .cfa -48 + ^ x25: .cfa -56 + ^ x26: .cfa -64 + ^ x27: .cfa -72 + ^ x28: .cfa -80 + ^ .ra: .cfa -88 + ^ x29: .cfa -96 + ^
STACK CFI 4aee8 .cfa: sp 144 +
STACK CFI 4af04 .cfa: sp 0 +
STACK CFI 4af08 .cfa: x29 96 +
STACK CFI INIT 4b010 264 .cfa: sp 0 +
STACK CFI 4b014 .cfa: sp 112 +
STACK CFI 4b028 .cfa: x29 64 + x19: .cfa -8 + ^ x20: .cfa -16 + ^ x21: .cfa -24 + ^ x22: .cfa -32 + ^ x23: .cfa -40 + ^ x24: .cfa -48 + ^ .ra: .cfa -56 + ^ x29: .cfa -64 + ^
STACK CFI 4b1a4 .cfa: sp 112 +
STACK CFI 4b1b8 .cfa: sp 0 +
STACK CFI 4b1bc .cfa: x29 64 +
STACK CFI 4b22c .cfa: sp 112 +
STACK CFI 4b240 .cfa: sp 0 +
STACK CFI 4b244 .cfa: x29 64 +
STACK CFI INIT 4b274 258 .cfa: sp 0 +
STACK CFI 4b278 .cfa: sp 96 +
STACK CFI 4b290 .cfa: x29 96 + x19: .cfa -8 + ^ x20: .cfa -16 + ^ x21: .cfa -24 + ^ x22: .cfa -32 + ^ x23: .cfa -40 + ^ x24: .cfa -48 + ^ x25: .cfa -56 + ^ x26: .cfa -64 + ^ x27: .cfa -72 + ^ x28: .cfa -80 + ^ .ra: .cfa -88 + ^ x29: .cfa -96 + ^
STACK CFI 4b488 .cfa: sp 96 +
STACK CFI 4b4a0 .cfa: sp 0 +
STACK CFI 4b4a4 .cfa: x29 96 +
STACK CFI 4b4b0 .cfa: sp 96 +
STACK CFI 4b4c8 .cfa: sp 0 +
STACK CFI INIT 4c150 154 .cfa: sp 0 +
STACK CFI 4c154 .cfa: sp 96 +
STACK CFI 4c168 .cfa: x29 64 + x19: .cfa -8 + ^ x20: .cfa -16 + ^ x21: .cfa -24 + ^ x22: .cfa -32 + ^ x23: .cfa -48 + ^ .ra: .cfa -56 + ^ x29: .cfa -64 + ^
STACK CFI 4c248 .cfa: sp 96 +
STACK CFI 4c25c .cfa: sp 0 +
STACK CFI 4c260 .cfa: x29 64 +
STACK CFI INIT 4c510 44 .cfa: sp 0 +
STACK CFI 4c514 .cfa: sp 32 +
STACK CFI 4c51c .cfa: x29 32 + x19: .cfa -16 + ^ .ra: .cfa -24 + ^ x29: .cfa -32 + ^
STACK CFI 4c538 .cfa: sp 32 +
STACK CFI 4c540 .cfa: sp 0 +
STACK CFI 4c544 .cfa: x29 32 +
STACK CFI 4c548 .cfa: sp 32 +
STACK CFI 4c550 .cfa: sp 0 +
STACK CFI INIT 4c554 1d0 .cfa: sp 0 +
STACK CFI 4c558 .cfa: sp 64 +
STACK CFI 4c568 .cfa: x29 64 + x19: .cfa -8 + ^ x20: .cfa -16 + ^ x21: .cfa -24 + ^ x22: .cfa -32 + ^ x23: .cfa -40 + ^ x24: .cfa -48 + ^ .ra: .cfa -56 + ^ x29: .cfa -64 + ^
STACK CFI 4c628 .cfa: sp 64 +
STACK CFI 4c638 .cfa: sp 0 +
STACK CFI 4c63c .cfa: x29 64 +
STACK CFI INIT 4c724 17c .cfa: sp 0 +
STACK CFI INIT 4cc58 a0 .cfa: sp 0 +
STACK CFI 4cc5c .cfa: sp 48 +
STACK CFI 4cc68 .cfa: x29 48 + x19: .cfa -8 + ^ x20: .cfa -16 + ^ x21: .cfa -24 + ^ x22: .cfa -32 + ^ .ra: .cfa -40 + ^ x29: .cfa -48 + ^
STACK CFI 4ccd4 .cfa: sp 48 +
STACK CFI 4cce0 .cfa: sp 0 +
STACK CFI 4cce4 .cfa: sp 48 +
STACK CFI 4ccf0 .cfa: sp 0 +
STACK CFI 4ccf4 .cfa: x29 48 +
STACK CFI INIT 4d9b8 158 .cfa: sp 0 +
STACK CFI 4d9bc .cfa: sp 96 +
STACK CFI 4d9d0 .cfa: x29 64 + x19: .cfa -8 + ^ x20: .cfa -16 + ^ x21: .cfa -24 + ^ x22: .cfa -32 + ^ x23: .cfa -48 + ^ .ra: .cfa -56 + ^ x29: .cfa -64 + ^
STACK CFI 4dab4 .cfa: sp 96 +
STACK CFI 4dac8 .cfa: sp 0 +
STACK CFI 4dacc .cfa: x29 64 +
STACK CFI INIT 4db10 190 .cfa: sp 0 +
STACK CFI INIT 4e798 1f4 .cfa: sp 0 +
STACK CFI 4e79c .cfa: sp 80 +
STACK CFI 4e7b0 .cfa: x29 80 + x19: .cfa -8 + ^ x20: .cfa -16 + ^ x21: .cfa -24 + ^ x22: .cfa -32 + ^ x23: .cfa -40 + ^ x24: .cfa -48 + ^ x25: .cfa -64 + ^ .ra: .cfa -72 + ^ x29: .cfa -80 + ^
STACK CFI 4e950 .cfa: sp 80 +
STACK CFI 4e964 .cfa: sp 0 +
STACK CFI 4e968 .cfa: x29 80 +
STACK CFI 4e974 .cfa: sp 80 +
STACK CFI 4e988 .cfa: sp 0 +
STACK CFI INIT 4fdbc 124 .cfa: sp 0 +
STACK CFI 4fdec .cfa: sp 32 +
STACK CFI 4fdf4 .cfa: x29 32 + x19: .cfa -8 + ^ x20: .cfa -16 + ^ .ra: .cfa -24 + ^ x29: .cfa -32 + ^
STACK CFI 4fed4 .cfa: sp 32 +
STACK CFI 4fedc .cfa: sp 0 +
STACK CFI INIT 5063c 320 .cfa: sp 0 +
STACK CFI 50640 .cfa: sp 64 +
STACK CFI 50650 .cfa: x29 64 + x19: .cfa -8 + ^ x20: .cfa -16 + ^ x21: .cfa -24 + ^ x22: .cfa -32 + ^ x23: .cfa -40 + ^ x24: .cfa -48 + ^ .ra: .cfa -56 + ^ x29: .cfa -64 + ^
STACK CFI 506cc .cfa: sp 64 +
STACK CFI 506dc .cfa: sp 0 +
STACK CFI 506e0 .cfa: x29 64 +
STACK CFI 508b4 .cfa: sp 64 +
STACK CFI 508c4 .cfa: sp 0 +
STACK CFI 508c8 .cfa: x29 64 +
STACK CFI 508d8 .cfa: sp 64 +
STACK CFI 508e8 .cfa: sp 0 +
STACK CFI 508ec .cfa: x29 64 +
STACK CFI INIT 5095c a0 .cfa: sp 0 +
STACK CFI 50960 .cfa: sp 48 +
STACK CFI 5096c .cfa: x29 48 + x19: .cfa -8 + ^ x20: .cfa -16 + ^ x21: .cfa -24 + ^ x22: .cfa -32 + ^ .ra: .cfa -40 + ^ x29: .cfa -48 + ^
STACK CFI 509d8 .cfa: sp 48 +
STACK CFI 509e4 .cfa: sp 0 +
STACK CFI 509e8 .cfa: sp 48 +
STACK CFI 509f4 .cfa: sp 0 +
STACK CFI 509f8 .cfa: x29 48 +
STACK CFI INIT 518dc 160 .cfa: sp 0 +
STACK CFI 518e0 .cfa: sp 64 +
STACK CFI 518f0 .cfa: x29 64 + x19: .cfa -8 + ^ x20: .cfa -16 + ^ x21: .cfa -24 + ^ x22: .cfa -32 + ^ x23: .cfa -48 + ^ .ra: .cfa -56 + ^ x29: .cfa -64 + ^
STACK CFI 519e8 .cfa: sp 64 +
STACK CFI 519f8 .cfa: sp 0 +
STACK CFI 519fc .cfa: x29 64 +
STACK CFI INIT 51a3c 214 .cfa: sp 0 +
STACK CFI 51a40 .cfa: sp 128 +
STACK CFI 51a5c .cfa: x29 96 + x19: .cfa -8 + ^ x20: .cfa -16 + ^ x21: .cfa -24 + ^ x22: .cfa -32 + ^ x23: .cfa -40 + ^ x24: .cfa -48 + ^ x25: .cfa -56 + ^ x26: .cfa -64 + ^ x27: .cfa -80 + ^ .ra: .cfa -88 + ^ x29: .cfa -96 + ^
STACK CFI 51bd8 .cfa: sp 128 +
STACK CFI 51bf4 .cfa: sp 0 +
STACK CFI 51bf8 .cfa: x29 96 +
STACK CFI INIT 53104 e60 .cfa: sp 0 +
STACK CFI 53108 .cfa: sp 192 +
STACK CFI 53124 .cfa: x29 96 + x19: .cfa -8 + ^ x20: .cfa -16 + ^ x21: .cfa -24 + ^ x22: .cfa -32 + ^ x23: .cfa -40 + ^ x24: .cfa -48 + ^ x25: .cfa -56 + ^ x26: .cfa -64 + ^ x27: .cfa -72 + ^ x28: .cfa -80 + ^ .ra: .cfa -88 + ^ x29: .cfa -96 + ^
STACK CFI 53e4c .cfa: sp 192 +
STACK CFI 53e68 .cfa: sp 0 +
STACK CFI 53e6c .cfa: x29 96 +
STACK CFI INIT 53f64 1090 .cfa: sp 0 +
STACK CFI 53f68 .cfa: sp 288 +
STACK CFI 53f84 .cfa: x29 96 + x19: .cfa -8 + ^ x20: .cfa -16 + ^ x21: .cfa -24 + ^ x22: .cfa -32 + ^ x23: .cfa -40 + ^ x24: .cfa -48 + ^ x25: .cfa -56 + ^ x26: .cfa -64 + ^ x27: .cfa -72 + ^ x28: .cfa -80 + ^ .ra: .cfa -88 + ^ x29: .cfa -96 + ^
STACK CFI 54d3c .cfa: sp 288 +
STACK CFI 54d58 .cfa: sp 0 +
STACK CFI 54d5c .cfa: x29 96 +
STACK CFI INIT 54ff4 520 .cfa: sp 0 +
STACK CFI 54ff8 .cfa: sp 144 +
STACK CFI 55014 .cfa: x29 96 + x19: .cfa -8 + ^ x20: .cfa -16 + ^ x21: .cfa -24 + ^ x22: .cfa -32 + ^ x23: .cfa -40 + ^ x24: .cfa -48 + ^ x25: .cfa -56 + ^ x26: .cfa -64 + ^ x27: .cfa -72 + ^ x28: .cfa -80 + ^ .ra: .cfa -88 + ^ x29: .cfa -96 + ^
STACK CFI 554f0 .cfa: sp 144 +
STACK CFI 5550c .cfa: sp 0 +
STACK CFI 55510 .cfa: x29 96 +
STACK CFI INIT 27f7c e28 .cfa: sp 0 +
STACK CFI 27f80 .cfa: sp 128 +
STACK CFI 27fa0 .cfa: x29 96 + x19: .cfa -8 + ^ x20: .cfa -16 + ^ x21: .cfa -24 + ^ x22: .cfa -32 + ^ x23: .cfa -40 + ^ x24: .cfa -48 + ^ x25: .cfa -56 + ^ x26: .cfa -64 + ^ x27: .cfa -72 + ^ x28: .cfa -80 + ^ .ra: .cfa -88 + ^ x29: .cfa -96 + ^ v8: .cfa -104 + ^ v9: .cfa -112 + ^ v10: .cfa -128 + ^
STACK CFI 28c34 .cfa: sp 128 +
STACK CFI 28c54 .cfa: sp 0 +
STACK CFI 28c58 .cfa: x29 96 +
STACK CFI INIT 28da4 1a8 .cfa: sp 0 +
STACK CFI 28da8 .cfa: sp 128 +
STACK CFI 28dc4 .cfa: x29 80 + x19: .cfa -8 + ^ x20: .cfa -16 + ^ x21: .cfa -24 + ^ x22: .cfa -32 + ^ x23: .cfa -40 + ^ x24: .cfa -48 + ^ x25: .cfa -56 + ^ x26: .cfa -64 + ^ .ra: .cfa -72 + ^ x29: .cfa -80 + ^ v8: .cfa -96 + ^
STACK CFI 28efc .cfa: sp 128 +
STACK CFI 28f18 .cfa: sp 0 +
STACK CFI 28f1c .cfa: x29 80 +
STACK CFI INIT 28fe8 24d0 .cfa: sp 0 +
STACK CFI 28fec .cfa: sp 160 +
STACK CFI 29014 .cfa: x29 96 + x19: .cfa -8 + ^ x20: .cfa -16 + ^ x21: .cfa -24 + ^ x22: .cfa -32 + ^ x23: .cfa -40 + ^ x24: .cfa -48 + ^ x25: .cfa -56 + ^ x26: .cfa -64 + ^ x27: .cfa -72 + ^ x28: .cfa -80 + ^ .ra: .cfa -88 + ^ x29: .cfa -96 + ^ v8: .cfa -104 + ^ v9: .cfa -112 + ^ v10: .cfa -120 + ^ v11: .cfa -128 + ^ v12: .cfa -136 + ^ v13: .cfa -144 + ^ v14: .cfa -160 + ^
STACK CFI 2b1a4 .cfa: sp 160 +
STACK CFI 2b1cc .cfa: sp 0 +
STACK CFI 2b1d0 .cfa: x29 96 +
STACK CFI INIT 2b4b8 74 .cfa: sp 0 +
STACK CFI 2b4bc .cfa: sp 48 +
STACK CFI 2b4c8 .cfa: x29 32 + x19: .cfa -8 + ^ x20: .cfa -16 + ^ .ra: .cfa -24 + ^ x29: .cfa -32 + ^
STACK CFI 2b514 .cfa: sp 48 +
STACK CFI 2b520 .cfa: sp 0 +
STACK CFI 2b524 .cfa: x29 32 +
STACK CFI INIT 2b52c fb8 .cfa: sp 0 +
STACK CFI 2b530 .cfa: sp 112 +
STACK CFI 2b54c .cfa: x29 96 + x19: .cfa -8 + ^ x20: .cfa -16 + ^ x21: .cfa -24 + ^ x22: .cfa -32 + ^ x23: .cfa -40 + ^ x24: .cfa -48 + ^ x25: .cfa -56 + ^ x26: .cfa -64 + ^ x27: .cfa -72 + ^ x28: .cfa -80 + ^ .ra: .cfa -88 + ^ x29: .cfa -96 + ^ v8: .cfa -104 + ^ v9: .cfa -112 + ^
STACK CFI 2c234 .cfa: sp 112 +
STACK CFI 2c250 .cfa: sp 0 +
STACK CFI 2c254 .cfa: x29 96 +
STACK CFI INIT 2c838 50 .cfa: sp 0 +
STACK CFI 2c83c .cfa: sp 32 +
STACK CFI 2c844 .cfa: x29 32 + x19: .cfa -8 + ^ x20: .cfa -16 + ^ .ra: .cfa -24 + ^ x29: .cfa -32 + ^
STACK CFI INIT 2caf4 6c4 .cfa: sp 0 +
STACK CFI 2caf8 .cfa: sp 112 +
STACK CFI 2cb14 .cfa: x29 96 + x19: .cfa -8 + ^ x20: .cfa -16 + ^ x21: .cfa -24 + ^ x22: .cfa -32 + ^ x23: .cfa -40 + ^ x24: .cfa -48 + ^ x25: .cfa -56 + ^ x26: .cfa -64 + ^ x27: .cfa -72 + ^ x28: .cfa -80 + ^ .ra: .cfa -88 + ^ x29: .cfa -96 + ^
STACK CFI 2cc58 .cfa: sp 112 +
STACK CFI 2cc74 .cfa: sp 0 +
STACK CFI 2cc78 .cfa: x29 96 +
STACK CFI 2cc84 .cfa: sp 112 +
STACK CFI 2cca0 .cfa: sp 0 +
STACK CFI 2cca4 .cfa: x29 96 +
STACK CFI 2d140 .cfa: sp 112 +
STACK CFI 2d15c .cfa: sp 0 +
STACK CFI 2d160 .cfa: x29 96 +
STACK CFI INIT 2d1b8 4c .cfa: sp 0 +
STACK CFI 2d1bc .cfa: sp 32 +
STACK CFI 2d1c4 .cfa: x29 32 + x19: .cfa -8 + ^ x20: .cfa -16 + ^ .ra: .cfa -24 + ^ x29: .cfa -32 + ^
STACK CFI INIT 2d788 4c .cfa: sp 0 +
STACK CFI 2d78c .cfa: sp 32 +
STACK CFI 2d794 .cfa: x29 32 + x19: .cfa -8 + ^ x20: .cfa -16 + ^ .ra: .cfa -24 + ^ x29: .cfa -32 + ^
STACK CFI INIT 2d8ec 364 .cfa: sp 0 +
STACK CFI 2d8f0 .cfa: sp 144 +
STACK CFI 2d904 .cfa: x29 64 + x19: .cfa -8 + ^ x20: .cfa -16 + ^ x21: .cfa -24 + ^ x22: .cfa -32 + ^ x23: .cfa -48 + ^ .ra: .cfa -56 + ^ x29: .cfa -64 + ^
STACK CFI 2da98 .cfa: sp 144 +
STACK CFI 2daac .cfa: sp 0 +
STACK CFI 2dab0 .cfa: x29 64 +
STACK CFI INIT 2dc50 644 .cfa: sp 0 +
STACK CFI 2dc54 .cfa: sp 64 +
STACK CFI 2dc64 .cfa: x29 64 + x19: .cfa -8 + ^ x20: .cfa -16 + ^ x21: .cfa -24 + ^ x22: .cfa -32 + ^ x23: .cfa -48 + ^ .ra: .cfa -56 + ^ x29: .cfa -64 + ^
STACK CFI 2dcd0 .cfa: sp 64 +
STACK CFI 2dce0 .cfa: sp 0 +
STACK CFI 2dce4 .cfa: x29 64 +
STACK CFI 2dd34 .cfa: sp 64 +
STACK CFI 2dd44 .cfa: sp 0 +
STACK CFI 2dd48 .cfa: x29 64 +
STACK CFI 2ddc4 .cfa: sp 64 +
STACK CFI 2ddd4 .cfa: sp 0 +
STACK CFI 2ddd8 .cfa: x29 64 +
STACK CFI 2dec8 .cfa: sp 64 +
STACK CFI 2ded8 .cfa: sp 0 +
STACK CFI 2dedc .cfa: x29 64 +
STACK CFI 2df6c .cfa: sp 64 +
STACK CFI 2df7c .cfa: sp 0 +
STACK CFI 2df80 .cfa: x29 64 +
STACK CFI 2df98 .cfa: sp 64 +
STACK CFI 2dfa8 .cfa: sp 0 +
STACK CFI 2dfac .cfa: x29 64 +
STACK CFI 2e134 .cfa: sp 64 +
STACK CFI 2e144 .cfa: sp 0 +
STACK CFI 2e148 .cfa: x29 64 +
STACK CFI 2e15c .cfa: sp 64 +
STACK CFI 2e16c .cfa: sp 0 +
STACK CFI 2e170 .cfa: x29 64 +
STACK CFI 2e1f8 .cfa: sp 64 +
STACK CFI 2e208 .cfa: sp 0 +
STACK CFI 2e20c .cfa: x29 64 +
STACK CFI INIT 2e688 6c .cfa: sp 0 +
STACK CFI 2e68c .cfa: sp 32 +
STACK CFI 2e694 .cfa: x29 32 + x19: .cfa -8 + ^ x20: .cfa -16 + ^ .ra: .cfa -24 + ^ x29: .cfa -32 + ^
STACK CFI 2e6d4 .cfa: sp 32 +
STACK CFI 2e6dc .cfa: sp 0 +
STACK CFI 2e6e0 .cfa: x29 32 +
STACK CFI INIT 2e7a8 4c .cfa: sp 0 +
STACK CFI 2e7ac .cfa: sp 32 +
STACK CFI 2e7b4 .cfa: x29 32 + x19: .cfa -8 + ^ x20: .cfa -16 + ^ .ra: .cfa -24 + ^ x29: .cfa -32 + ^
STACK CFI INIT 2ec1c 1d4 .cfa: sp 0 +
STACK CFI 2ec20 .cfa: sp 176 +
STACK CFI 2ec30 .cfa: x29 48 + x19: .cfa -8 + ^ x20: .cfa -16 + ^ x21: .cfa -24 + ^ x22: .cfa -32 + ^ .ra: .cfa -40 + ^ x29: .cfa -48 + ^
STACK CFI 2ed88 .cfa: sp 176 +
STACK CFI 2ed98 .cfa: sp 0 +
STACK CFI 2ed9c .cfa: x29 48 +
STACK CFI 2edac .cfa: sp 176 +
STACK CFI 2edbc .cfa: sp 0 +
STACK CFI 2edc0 .cfa: x29 48 +
STACK CFI INIT 2edf0 44c .cfa: sp 0 +
STACK CFI 2edf4 .cfa: sp 256 +
STACK CFI 2ee10 .cfa: x29 96 + x19: .cfa -8 + ^ x20: .cfa -16 + ^ x21: .cfa -24 + ^ x22: .cfa -32 + ^ x23: .cfa -40 + ^ x24: .cfa -48 + ^ x25: .cfa -56 + ^ x26: .cfa -64 + ^ x27: .cfa -72 + ^ x28: .cfa -80 + ^ .ra: .cfa -88 + ^ x29: .cfa -96 + ^
STACK CFI 2f140 .cfa: sp 256 +
STACK CFI 2f15c .cfa: sp 0 +
STACK CFI 2f160 .cfa: x29 96 +
STACK CFI INIT 2f45c 4c .cfa: sp 0 +
STACK CFI 2f460 .cfa: sp 32 +
STACK CFI 2f468 .cfa: x29 32 + x19: .cfa -8 + ^ x20: .cfa -16 + ^ .ra: .cfa -24 + ^ x29: .cfa -32 + ^
STACK CFI INIT 2f4a8 170 .cfa: sp 0 +
STACK CFI 2f4ac .cfa: sp 80 +
STACK CFI 2f4c0 .cfa: x29 80 + x19: .cfa -8 + ^ x20: .cfa -16 + ^ x21: .cfa -24 + ^ x22: .cfa -32 + ^ x23: .cfa -40 + ^ x24: .cfa -48 + ^ x25: .cfa -64 + ^ .ra: .cfa -72 + ^ x29: .cfa -80 + ^
STACK CFI 2f5b4 .cfa: sp 80 +
STACK CFI 2f5c8 .cfa: sp 0 +
STACK CFI 2f5cc .cfa: x29 80 +
STACK CFI INIT 2f618 4c .cfa: sp 0 +
STACK CFI 2f61c .cfa: sp 32 +
STACK CFI 2f624 .cfa: x29 32 + x19: .cfa -8 + ^ x20: .cfa -16 + ^ .ra: .cfa -24 + ^ x29: .cfa -32 + ^
STACK CFI INIT 2fbd4 10f4 .cfa: sp 0 +
STACK CFI 2fbd8 .cfa: sp 432 +
STACK CFI 2fbf4 .cfa: x29 96 + x19: .cfa -8 + ^ x20: .cfa -16 + ^ x21: .cfa -24 + ^ x22: .cfa -32 + ^ x23: .cfa -40 + ^ x24: .cfa -48 + ^ x25: .cfa -56 + ^ x26: .cfa -64 + ^ x27: .cfa -72 + ^ x28: .cfa -80 + ^ .ra: .cfa -88 + ^ x29: .cfa -96 + ^
STACK CFI 309dc .cfa: sp 432 +
STACK CFI 309f8 .cfa: sp 0 +
STACK CFI 309fc .cfa: x29 96 +
STACK CFI INIT 30cc8 4c .cfa: sp 0 +
STACK CFI 30ccc .cfa: sp 32 +
STACK CFI 30cd4 .cfa: x29 32 + x19: .cfa -8 + ^ x20: .cfa -16 + ^ .ra: .cfa -24 + ^ x29: .cfa -32 + ^
STACK CFI INIT 30d5c 4c .cfa: sp 0 +
STACK CFI 30d60 .cfa: sp 32 +
STACK CFI 30d68 .cfa: x29 32 + x19: .cfa -8 + ^ x20: .cfa -16 + ^ .ra: .cfa -24 + ^ x29: .cfa -32 + ^
STACK CFI INIT 312b4 140 .cfa: sp 0 +
STACK CFI 312b8 .cfa: sp 48 +
STACK CFI 312c4 .cfa: x29 48 + x19: .cfa -8 + ^ x20: .cfa -16 + ^ x21: .cfa -32 + ^ .ra: .cfa -40 + ^ x29: .cfa -48 + ^
STACK CFI 313a4 .cfa: sp 48 +
STACK CFI 313b0 .cfa: sp 0 +
STACK CFI 313b4 .cfa: x29 48 +
STACK CFI INIT 313f4 4c .cfa: sp 0 +
STACK CFI 313f8 .cfa: sp 32 +
STACK CFI 31400 .cfa: x29 32 + x19: .cfa -8 + ^ x20: .cfa -16 + ^ .ra: .cfa -24 + ^ x29: .cfa -32 + ^
STACK CFI INIT 32080 1dc .cfa: sp 0 +
STACK CFI 32084 .cfa: sp 128 +
STACK CFI 3209c .cfa: x29 80 + x19: .cfa -8 + ^ x20: .cfa -16 + ^ x21: .cfa -24 + ^ x22: .cfa -32 + ^ x23: .cfa -40 + ^ x24: .cfa -48 + ^ x25: .cfa -64 + ^ .ra: .cfa -72 + ^ x29: .cfa -80 + ^
STACK CFI 32190 .cfa: sp 128 +
STACK CFI 321a8 .cfa: sp 0 +
STACK CFI 321ac .cfa: x29 80 +
STACK CFI INIT 324ec c6c .cfa: sp 0 +
STACK CFI 324f0 .cfa: sp 256 +
STACK CFI 3250c .cfa: x29 96 + x19: .cfa -8 + ^ x20: .cfa -16 + ^ x21: .cfa -24 + ^ x22: .cfa -32 + ^ x23: .cfa -40 + ^ x24: .cfa -48 + ^ x25: .cfa -56 + ^ x26: .cfa -64 + ^ x27: .cfa -72 + ^ x28: .cfa -80 + ^ .ra: .cfa -88 + ^ x29: .cfa -96 + ^
STACK CFI 33094 .cfa: sp 256 +
STACK CFI 330b0 .cfa: sp 0 +
STACK CFI 330b4 .cfa: x29 96 +
STACK CFI INIT 3319c 1c4 .cfa: sp 0 +
STACK CFI 331a0 .cfa: sp 112 +
STACK CFI 331b8 .cfa: x29 80 + x19: .cfa -8 + ^ x20: .cfa -16 + ^ x21: .cfa -24 + ^ x22: .cfa -32 + ^ x23: .cfa -40 + ^ x24: .cfa -48 + ^ x25: .cfa -56 + ^ x26: .cfa -64 + ^ .ra: .cfa -72 + ^ x29: .cfa -80 + ^
STACK CFI 332e4 .cfa: sp 112 +
STACK CFI 332fc .cfa: sp 0 +
STACK CFI 33300 .cfa: x29 80 +
STACK CFI INIT 33374 4c .cfa: sp 0 +
STACK CFI 33378 .cfa: sp 32 +
STACK CFI 33380 .cfa: x29 32 + x19: .cfa -8 + ^ x20: .cfa -16 + ^ .ra: .cfa -24 + ^ x29: .cfa -32 + ^
STACK CFI INIT 3426c 4c .cfa: sp 0 +
STACK CFI 34270 .cfa: sp 32 +
STACK CFI 34278 .cfa: x29 32 + x19: .cfa -8 + ^ x20: .cfa -16 + ^ .ra: .cfa -24 + ^ x29: .cfa -32 + ^
STACK CFI INIT 342b8 2b4 .cfa: sp 0 +
STACK CFI 342bc .cfa: sp 144 +
STACK CFI 342d4 .cfa: x29 80 + x19: .cfa -8 + ^ x20: .cfa -16 + ^ x21: .cfa -24 + ^ x22: .cfa -32 + ^ x23: .cfa -40 + ^ x24: .cfa -48 + ^ x25: .cfa -56 + ^ x26: .cfa -64 + ^ .ra: .cfa -72 + ^ x29: .cfa -80 + ^
STACK CFI 344d8 .cfa: sp 144 +
STACK CFI 344f0 .cfa: sp 0 +
STACK CFI 344f4 .cfa: x29 80 +
STACK CFI INIT 3456c 228 .cfa: sp 0 +
STACK CFI 34570 .cfa: sp 128 +
STACK CFI 34588 .cfa: x29 80 + x19: .cfa -8 + ^ x20: .cfa -16 + ^ x21: .cfa -24 + ^ x22: .cfa -32 + ^ x23: .cfa -40 + ^ x24: .cfa -48 + ^ x25: .cfa -64 + ^ .ra: .cfa -72 + ^ x29: .cfa -80 + ^
STACK CFI 34724 .cfa: sp 128 +
STACK CFI 3473c .cfa: sp 0 +
STACK CFI 34740 .cfa: x29 80 +
STACK CFI INIT 34890 4c .cfa: sp 0 +
STACK CFI 34894 .cfa: sp 32 +
STACK CFI 3489c .cfa: x29 32 + x19: .cfa -8 + ^ x20: .cfa -16 + ^ .ra: .cfa -24 + ^ x29: .cfa -32 + ^
STACK CFI INIT 348dc 1b4 .cfa: sp 0 +
STACK CFI 348e0 .cfa: sp 112 +
STACK CFI 348f8 .cfa: x29 80 + x19: .cfa -8 + ^ x20: .cfa -16 + ^ x21: .cfa -24 + ^ x22: .cfa -32 + ^ x23: .cfa -40 + ^ x24: .cfa -48 + ^ x25: .cfa -64 + ^ .ra: .cfa -72 + ^ x29: .cfa -80 + ^
STACK CFI 34a2c .cfa: sp 112 +
STACK CFI 34a44 .cfa: sp 0 +
STACK CFI 34a48 .cfa: x29 80 +
STACK CFI INIT 34a90 4c .cfa: sp 0 +
STACK CFI 34a94 .cfa: sp 32 +
STACK CFI 34a9c .cfa: x29 32 + x19: .cfa -8 + ^ x20: .cfa -16 + ^ .ra: .cfa -24 + ^ x29: .cfa -32 + ^
STACK CFI INIT 34da4 140 .cfa: sp 0 +
STACK CFI 34da8 .cfa: sp 96 +
STACK CFI 34dc0 .cfa: x29 96 + x19: .cfa -8 + ^ x20: .cfa -16 + ^ x21: .cfa -24 + ^ x22: .cfa -32 + ^ x23: .cfa -40 + ^ x24: .cfa -48 + ^ x25: .cfa -56 + ^ x26: .cfa -64 + ^ x27: .cfa -72 + ^ x28: .cfa -80 + ^ .ra: .cfa -88 + ^ x29: .cfa -96 + ^
STACK CFI 34e7c .cfa: sp 96 +
STACK CFI 34e94 .cfa: sp 0 +
STACK CFI 34e98 .cfa: x29 96 +
STACK CFI INIT 34ee4 4c .cfa: sp 0 +
STACK CFI 34ee8 .cfa: sp 32 +
STACK CFI 34ef0 .cfa: x29 32 + x19: .cfa -8 + ^ x20: .cfa -16 + ^ .ra: .cfa -24 + ^ x29: .cfa -32 + ^
STACK CFI INIT 34f30 4c .cfa: sp 0 +
STACK CFI 34f34 .cfa: sp 32 +
STACK CFI 34f3c .cfa: x29 32 + x19: .cfa -8 + ^ x20: .cfa -16 + ^ .ra: .cfa -24 + ^ x29: .cfa -32 + ^
STACK CFI INIT 3540c 4c .cfa: sp 0 +
STACK CFI 35410 .cfa: sp 32 +
STACK CFI 35418 .cfa: x29 32 + x19: .cfa -8 + ^ x20: .cfa -16 + ^ .ra: .cfa -24 + ^ x29: .cfa -32 + ^
STACK CFI INIT 35e24 134 .cfa: sp 0 +
STACK CFI 35e28 .cfa: sp 80 +
STACK CFI 35e38 .cfa: x29 48 + x19: .cfa -8 + ^ x20: .cfa -16 + ^ x21: .cfa -24 + ^ x22: .cfa -32 + ^ .ra: .cfa -40 + ^ x29: .cfa -48 + ^
STACK CFI 35f3c .cfa: sp 80 +
STACK CFI 35f4c .cfa: sp 0 +
STACK CFI 35f50 .cfa: x29 48 +
STACK CFI INIT 3605c 130 .cfa: sp 0 +
STACK CFI 36060 .cfa: sp 96 +
STACK CFI 36074 .cfa: x29 48 + x19: .cfa -8 + ^ x20: .cfa -16 + ^ x21: .cfa -24 + ^ x22: .cfa -32 + ^ .ra: .cfa -40 + ^ x29: .cfa -48 + ^ v8: .cfa -64 + ^
STACK CFI 3616c .cfa: sp 96 +
STACK CFI 36180 .cfa: sp 0 +
STACK CFI 36184 .cfa: x29 48 +
STACK CFI INIT 36354 5f0 .cfa: sp 0 +
STACK CFI 36358 .cfa: sp 112 +
STACK CFI 36374 .cfa: x29 96 + x19: .cfa -8 + ^ x20: .cfa -16 + ^ x21: .cfa -24 + ^ x22: .cfa -32 + ^ x23: .cfa -40 + ^ x24: .cfa -48 + ^ x25: .cfa -56 + ^ x26: .cfa -64 + ^ x27: .cfa -80 + ^ .ra: .cfa -88 + ^ x29: .cfa -96 + ^
STACK CFI 36618 .cfa: sp 112 +
STACK CFI 36634 .cfa: sp 0 +
STACK CFI 36638 .cfa: x29 96 +
STACK CFI 3682c .cfa: sp 112 +
STACK CFI 36848 .cfa: sp 0 +
STACK CFI 3684c .cfa: x29 96 +
STACK CFI INIT 36c6c 1d4 .cfa: sp 0 +
STACK CFI 36c70 .cfa: sp 320 +
STACK CFI 36c88 .cfa: x29 80 + x19: .cfa -8 + ^ x20: .cfa -16 + ^ x21: .cfa -24 + ^ x22: .cfa -32 + ^ x23: .cfa -40 + ^ x24: .cfa -48 + ^ x28: .cfa -64 + ^ .ra: .cfa -72 + ^ x29: .cfa -80 + ^
STACK CFI 36df4 .cfa: sp 320 +
STACK CFI 36e0c .cfa: sp 0 +
STACK CFI 36e10 .cfa: x29 80 +
STACK CFI INIT 39a8c 1cc .cfa: sp 0 +
STACK CFI 39a90 .cfa: sp 128 +
STACK CFI 39aa0 .cfa: x29 48 + x19: .cfa -8 + ^ x20: .cfa -16 + ^ x21: .cfa -32 + ^ .ra: .cfa -40 + ^ x29: .cfa -48 + ^
STACK CFI 39bdc .cfa: sp 128 +
STACK CFI 39bec .cfa: sp 0 +
STACK CFI 39bf0 .cfa: x29 48 +
STACK CFI INIT 3a004 1d0 .cfa: sp 0 +
STACK CFI 3a008 .cfa: sp 128 +
STACK CFI 3a01c .cfa: x29 64 + x19: .cfa -8 + ^ x20: .cfa -16 + ^ x21: .cfa -24 + ^ x22: .cfa -32 + ^ x23: .cfa -48 + ^ .ra: .cfa -56 + ^ x29: .cfa -64 + ^
STACK CFI 3a194 .cfa: sp 128 +
STACK CFI 3a1a8 .cfa: sp 0 +
STACK CFI 3a1ac .cfa: x29 64 +
STACK CFI INIT 3a4e8 1c4 .cfa: sp 0 +
STACK CFI 3a4ec .cfa: sp 112 +
STACK CFI 3a4fc .cfa: x29 48 + x19: .cfa -8 + ^ x20: .cfa -16 + ^ x21: .cfa -24 + ^ x22: .cfa -32 + ^ .ra: .cfa -40 + ^ x29: .cfa -48 + ^
STACK CFI 3a670 .cfa: sp 112 +
STACK CFI 3a680 .cfa: sp 0 +
STACK CFI 3a684 .cfa: x29 48 +
STACK CFI INIT 3a78c a74 .cfa: sp 0 +
STACK CFI 3a790 .cfa: sp 80 +
STACK CFI 3a7a4 .cfa: x29 80 + x19: .cfa -8 + ^ x20: .cfa -16 + ^ x21: .cfa -24 + ^ x22: .cfa -32 + ^ x23: .cfa -40 + ^ x24: .cfa -48 + ^ x25: .cfa -56 + ^ x28: .cfa -64 + ^ .ra: .cfa -72 + ^ x29: .cfa -80 + ^
STACK CFI 3aab4 .cfa: sp 80 +
STACK CFI 3aac8 .cfa: sp 0 +
STACK CFI 3aacc .cfa: x29 80 +
STACK CFI INIT 3b228 74 .cfa: sp 0 +
STACK CFI 3b22c .cfa: sp 48 +
STACK CFI 3b238 .cfa: x29 32 + x19: .cfa -8 + ^ x20: .cfa -16 + ^ .ra: .cfa -24 + ^ x29: .cfa -32 + ^
STACK CFI 3b284 .cfa: sp 48 +
STACK CFI 3b290 .cfa: sp 0 +
STACK CFI 3b294 .cfa: x29 32 +
STACK CFI INIT 3b33c 78 .cfa: sp 0 +
STACK CFI 3b340 .cfa: sp 32 +
STACK CFI 3b348 .cfa: x29 32 + x19: .cfa -8 + ^ x20: .cfa -16 + ^ .ra: .cfa -24 + ^ x29: .cfa -32 + ^
STACK CFI 3b350 .cfa: sp 32 +
STACK CFI 3b358 .cfa: sp 0 +
STACK CFI 3b35c .cfa: x29 32 +
STACK CFI INIT 3b3b4 74 .cfa: sp 0 +
STACK CFI 3b3b8 .cfa: sp 48 +
STACK CFI 3b3c4 .cfa: x29 32 + x19: .cfa -8 + ^ x20: .cfa -16 + ^ .ra: .cfa -24 + ^ x29: .cfa -32 + ^
STACK CFI 3b410 .cfa: sp 48 +
STACK CFI 3b41c .cfa: sp 0 +
STACK CFI 3b420 .cfa: x29 32 +
STACK CFI INIT 3b428 74 .cfa: sp 0 +
STACK CFI 3b42c .cfa: sp 48 +
STACK CFI 3b438 .cfa: x29 32 + x19: .cfa -8 + ^ x20: .cfa -16 + ^ .ra: .cfa -24 + ^ x29: .cfa -32 + ^
STACK CFI 3b484 .cfa: sp 48 +
STACK CFI 3b490 .cfa: sp 0 +
STACK CFI 3b494 .cfa: x29 32 +
STACK CFI INIT 3b49c 168 .cfa: sp 0 +
STACK CFI 3b4a0 .cfa: sp 384 +
STACK CFI 3b4b4 .cfa: x29 64 + x19: .cfa -8 + ^ x20: .cfa -16 + ^ x21: .cfa -24 + ^ x22: .cfa -32 + ^ x23: .cfa -40 + ^ x28: .cfa -48 + ^ .ra: .cfa -56 + ^ x29: .cfa -64 + ^
STACK CFI 3b5ac .cfa: sp 384 +
STACK CFI 3b5c0 .cfa: sp 0 +
STACK CFI 3b5c4 .cfa: x29 64 +
STACK CFI INIT 3b604 12c .cfa: sp 0 +
STACK CFI 3b608 .cfa: sp 80 +
STACK CFI 3b61c .cfa: x29 80 + x19: .cfa -8 + ^ x20: .cfa -16 + ^ x21: .cfa -24 + ^ x22: .cfa -32 + ^ x23: .cfa -40 + ^ x24: .cfa -48 + ^ x25: .cfa -56 + ^ x26: .cfa -64 + ^ .ra: .cfa -72 + ^ x29: .cfa -80 + ^
STACK CFI 3b6e4 .cfa: sp 80 +
STACK CFI 3b6f8 .cfa: sp 0 +
STACK CFI 3b6fc .cfa: x29 80 +
STACK CFI INIT 3b7d4 1a4 .cfa: sp 0 +
STACK CFI 3b7d8 .cfa: sp 112 +
STACK CFI 3b7f0 .cfa: x29 80 + x19: .cfa -8 + ^ x20: .cfa -16 + ^ x21: .cfa -24 + ^ x22: .cfa -32 + ^ x23: .cfa -40 + ^ x24: .cfa -48 + ^ x25: .cfa -56 + ^ x26: .cfa -64 + ^ .ra: .cfa -72 + ^ x29: .cfa -80 + ^
STACK CFI 3b8e0 .cfa: sp 112 +
STACK CFI 3b8f8 .cfa: sp 0 +
STACK CFI 3b8fc .cfa: x29 80 +
STACK CFI INIT 3b978 1dc .cfa: sp 0 +
STACK CFI 3b97c .cfa: sp 128 +
STACK CFI 3b998 .cfa: x29 96 + x19: .cfa -8 + ^ x20: .cfa -16 + ^ x21: .cfa -24 + ^ x22: .cfa -32 + ^ x23: .cfa -40 + ^ x24: .cfa -48 + ^ x25: .cfa -56 + ^ x26: .cfa -64 + ^ x27: .cfa -80 + ^ .ra: .cfa -88 + ^ x29: .cfa -96 + ^
STACK CFI 3bb04 .cfa: sp 128 +
STACK CFI 3bb20 .cfa: sp 0 +
STACK CFI 3bb24 .cfa: x29 96 +
STACK CFI INIT 3bb54 178 .cfa: sp 0 +
STACK CFI 3bb58 .cfa: sp 80 +
STACK CFI 3bb6c .cfa: x29 80 + x19: .cfa -8 + ^ x20: .cfa -16 + ^ x21: .cfa -24 + ^ x22: .cfa -32 + ^ x23: .cfa -40 + ^ x24: .cfa -48 + ^ x25: .cfa -64 + ^ .ra: .cfa -72 + ^ x29: .cfa -80 + ^
STACK CFI 3bc98 .cfa: sp 80 +
STACK CFI 3bcac .cfa: sp 0 +
STACK CFI 3bcb0 .cfa: x29 80 +
STACK CFI INIT 3bf08 dc .cfa: sp 0 +
STACK CFI 3bf0c .cfa: sp 32 +
STACK CFI 3bf14 .cfa: x29 32 + x19: .cfa -16 + ^ .ra: .cfa -24 + ^ x29: .cfa -32 + ^
STACK CFI 3bfa0 .cfa: sp 32 +
STACK CFI 3bfa8 .cfa: sp 0 +
STACK CFI 3bfac .cfa: x29 32 +
STACK CFI INIT 3bfe4 968 .cfa: sp 0 +
STACK CFI 3bfe8 .cfa: sp 112 +
STACK CFI 3c004 .cfa: x29 96 + x19: .cfa -8 + ^ x20: .cfa -16 + ^ x21: .cfa -24 + ^ x22: .cfa -32 + ^ x23: .cfa -40 + ^ x24: .cfa -48 + ^ x25: .cfa -56 + ^ x26: .cfa -64 + ^ x27: .cfa -72 + ^ x28: .cfa -80 + ^ .ra: .cfa -88 + ^ x29: .cfa -96 + ^ v8: .cfa -112 + ^
STACK CFI 3c780 .cfa: sp 112 +
STACK CFI 3c79c .cfa: sp 0 +
STACK CFI 3c7a0 .cfa: x29 96 +
STACK CFI INIT 3cc04 4d4 .cfa: sp 0 +
STACK CFI 3cc08 .cfa: sp 96 +
STACK CFI 3cc20 .cfa: x29 96 + x19: .cfa -8 + ^ x20: .cfa -16 + ^ x21: .cfa -24 + ^ x22: .cfa -32 + ^ x23: .cfa -40 + ^ x24: .cfa -48 + ^ x25: .cfa -56 + ^ x26: .cfa -64 + ^ x28: .cfa -80 + ^ .ra: .cfa -88 + ^ x29: .cfa -96 + ^
STACK CFI 3cfdc .cfa: sp 96 +
STACK CFI 3cff4 .cfa: sp 0 +
STACK CFI 3cff8 .cfa: x29 96 +
STACK CFI INIT 3d1d8 658 .cfa: sp 0 +
STACK CFI 3d1dc .cfa: sp 448 +
STACK CFI 3d1f4 .cfa: x29 80 + x19: .cfa -8 + ^ x20: .cfa -16 + ^ x21: .cfa -24 + ^ x22: .cfa -32 + ^ x23: .cfa -40 + ^ x24: .cfa -48 + ^ x28: .cfa -64 + ^ .ra: .cfa -72 + ^ x29: .cfa -80 + ^
STACK CFI 3d6e4 .cfa: sp 448 +
STACK CFI 3d6fc .cfa: sp 0 +
STACK CFI 3d700 .cfa: x29 80 +
STACK CFI INIT 3d830 384 .cfa: sp 0 +
STACK CFI 3d834 .cfa: sp 192 +
STACK CFI 3d850 .cfa: x29 96 + x19: .cfa -8 + ^ x20: .cfa -16 + ^ x21: .cfa -24 + ^ x22: .cfa -32 + ^ x23: .cfa -40 + ^ x24: .cfa -48 + ^ x25: .cfa -56 + ^ x26: .cfa -64 + ^ x27: .cfa -80 + ^ .ra: .cfa -88 + ^ x29: .cfa -96 + ^
STACK CFI 3da80 .cfa: sp 192 +
STACK CFI 3da9c .cfa: sp 0 +
STACK CFI 3daa0 .cfa: x29 96 +
STACK CFI INIT 3dbb4 74 .cfa: sp 0 +
STACK CFI 3dbb8 .cfa: sp 48 +
STACK CFI 3dbc4 .cfa: x29 32 + x19: .cfa -8 + ^ x20: .cfa -16 + ^ .ra: .cfa -24 + ^ x29: .cfa -32 + ^
STACK CFI 3dc10 .cfa: sp 48 +
STACK CFI 3dc1c .cfa: sp 0 +
STACK CFI 3dc20 .cfa: x29 32 +
STACK CFI INIT 3dd24 f8 .cfa: sp 0 +
STACK CFI 3dd28 .cfa: sp 48 +
STACK CFI 3dd34 .cfa: x29 48 + x19: .cfa -8 + ^ x20: .cfa -16 + ^ x21: .cfa -32 + ^ .ra: .cfa -40 + ^ x29: .cfa -48 + ^
STACK CFI 3dda0 .cfa: sp 48 +
STACK CFI 3ddac .cfa: sp 0 +
STACK CFI 3ddb0 .cfa: x29 48 +
STACK CFI INIT 3dec8 1e4 .cfa: sp 0 +
STACK CFI 3decc .cfa: sp 80 +
STACK CFI 3dee0 .cfa: x29 40 + x19: .cfa -8 + ^ x20: .cfa -16 + ^ x21: .cfa -24 + ^ .ra: .cfa -32 + ^ x29: .cfa -40 + ^ v8: .cfa -48 + ^
STACK CFI 3e000 .cfa: sp 80 +
STACK CFI 3e014 .cfa: sp 0 +
STACK CFI 3e018 .cfa: x29 40 +
STACK CFI 3e060 .cfa: sp 80 +
STACK CFI 3e074 .cfa: sp 0 +
STACK CFI 3e078 .cfa: x29 40 +
STACK CFI INIT 3e128 174 .cfa: sp 0 +
STACK CFI 3e12c .cfa: sp 112 +
STACK CFI 3e13c .cfa: x29 48 + x19: .cfa -8 + ^ x20: .cfa -16 + ^ x21: .cfa -32 + ^ .ra: .cfa -40 + ^ x29: .cfa -48 + ^
STACK CFI 3e238 .cfa: sp 112 +
STACK CFI 3e248 .cfa: sp 0 +
STACK CFI 3e24c .cfa: x29 48 +
STACK CFI INIT 3e438 1e0 .cfa: sp 0 +
STACK CFI 3e43c .cfa: sp 80 +
STACK CFI 3e450 .cfa: x29 40 + x19: .cfa -8 + ^ x20: .cfa -16 + ^ x21: .cfa -24 + ^ .ra: .cfa -32 + ^ x29: .cfa -40 + ^ v8: .cfa -48 + ^
STACK CFI 3e56c .cfa: sp 80 +
STACK CFI 3e580 .cfa: sp 0 +
STACK CFI 3e584 .cfa: x29 40 +
STACK CFI 3e5cc .cfa: sp 80 +
STACK CFI 3e5e0 .cfa: sp 0 +
STACK CFI 3e5e4 .cfa: x29 40 +
STACK CFI INIT 3e6a0 1e8 .cfa: sp 0 +
STACK CFI 3e6a4 .cfa: sp 80 +
STACK CFI 3e6b8 .cfa: x29 40 + x19: .cfa -8 + ^ x20: .cfa -16 + ^ x21: .cfa -24 + ^ .ra: .cfa -32 + ^ x29: .cfa -40 + ^ v8: .cfa -48 + ^
STACK CFI 3e7dc .cfa: sp 80 +
STACK CFI 3e7f0 .cfa: sp 0 +
STACK CFI 3e7f4 .cfa: x29 40 +
STACK CFI 3e83c .cfa: sp 80 +
STACK CFI 3e850 .cfa: sp 0 +
STACK CFI 3e854 .cfa: x29 40 +
STACK CFI INIT 3e904 174 .cfa: sp 0 +
STACK CFI 3e908 .cfa: sp 112 +
STACK CFI 3e918 .cfa: x29 48 + x19: .cfa -8 + ^ x20: .cfa -16 + ^ x21: .cfa -32 + ^ .ra: .cfa -40 + ^ x29: .cfa -48 + ^
STACK CFI 3ea14 .cfa: sp 112 +
STACK CFI 3ea24 .cfa: sp 0 +
STACK CFI 3ea28 .cfa: x29 48 +
STACK CFI INIT 3ebc8 12c .cfa: sp 0 +
STACK CFI 3ebcc .cfa: sp 80 +
STACK CFI 3ebdc .cfa: x29 48 + x19: .cfa -8 + ^ x20: .cfa -16 + ^ x21: .cfa -32 + ^ .ra: .cfa -40 + ^ x29: .cfa -48 + ^
STACK CFI 3ec74 .cfa: sp 80 +
STACK CFI 3ec84 .cfa: sp 0 +
STACK CFI 3ec88 .cfa: x29 48 +
STACK CFI INIT 3ecf4 484 .cfa: sp 0 +
STACK CFI 3ecf8 .cfa: sp 224 +
STACK CFI 3ed14 .cfa: x29 96 + x19: .cfa -8 + ^ x20: .cfa -16 + ^ x21: .cfa -24 + ^ x22: .cfa -32 + ^ x23: .cfa -40 + ^ x24: .cfa -48 + ^ x25: .cfa -56 + ^ x26: .cfa -64 + ^ x27: .cfa -72 + ^ x28: .cfa -80 + ^ .ra: .cfa -88 + ^ x29: .cfa -96 + ^
STACK CFI 3ef84 .cfa: sp 224 +
STACK CFI 3efa0 .cfa: sp 0 +
STACK CFI 3efa4 .cfa: x29 96 +
STACK CFI 3f070 .cfa: sp 224 +
STACK CFI 3f08c .cfa: sp 0 +
STACK CFI 3f090 .cfa: x29 96 +
STACK CFI INIT 3f190 484 .cfa: sp 0 +
STACK CFI 3f194 .cfa: sp 224 +
STACK CFI 3f1b0 .cfa: x29 96 + x19: .cfa -8 + ^ x20: .cfa -16 + ^ x21: .cfa -24 + ^ x22: .cfa -32 + ^ x23: .cfa -40 + ^ x24: .cfa -48 + ^ x25: .cfa -56 + ^ x26: .cfa -64 + ^ x27: .cfa -72 + ^ x28: .cfa -80 + ^ .ra: .cfa -88 + ^ x29: .cfa -96 + ^
STACK CFI 3f420 .cfa: sp 224 +
STACK CFI 3f43c .cfa: sp 0 +
STACK CFI 3f440 .cfa: x29 96 +
STACK CFI 3f50c .cfa: sp 224 +
STACK CFI 3f528 .cfa: sp 0 +
STACK CFI 3f52c .cfa: x29 96 +
STACK CFI INIT 3f62c 484 .cfa: sp 0 +
STACK CFI 3f630 .cfa: sp 224 +
STACK CFI 3f64c .cfa: x29 96 + x19: .cfa -8 + ^ x20: .cfa -16 + ^ x21: .cfa -24 + ^ x22: .cfa -32 + ^ x23: .cfa -40 + ^ x24: .cfa -48 + ^ x25: .cfa -56 + ^ x26: .cfa -64 + ^ x27: .cfa -72 + ^ x28: .cfa -80 + ^ .ra: .cfa -88 + ^ x29: .cfa -96 + ^
STACK CFI 3f8bc .cfa: sp 224 +
STACK CFI 3f8d8 .cfa: sp 0 +
STACK CFI 3f8dc .cfa: x29 96 +
STACK CFI 3f9a8 .cfa: sp 224 +
STACK CFI 3f9c4 .cfa: sp 0 +
STACK CFI 3f9c8 .cfa: x29 96 +
STACK CFI INIT 3fac8 484 .cfa: sp 0 +
STACK CFI 3facc .cfa: sp 224 +
STACK CFI 3fae8 .cfa: x29 96 + x19: .cfa -8 + ^ x20: .cfa -16 + ^ x21: .cfa -24 + ^ x22: .cfa -32 + ^ x23: .cfa -40 + ^ x24: .cfa -48 + ^ x25: .cfa -56 + ^ x26: .cfa -64 + ^ x27: .cfa -72 + ^ x28: .cfa -80 + ^ .ra: .cfa -88 + ^ x29: .cfa -96 + ^
STACK CFI 3fd58 .cfa: sp 224 +
STACK CFI 3fd74 .cfa: sp 0 +
STACK CFI 3fd78 .cfa: x29 96 +
STACK CFI 3fe44 .cfa: sp 224 +
STACK CFI 3fe60 .cfa: sp 0 +
STACK CFI 3fe64 .cfa: x29 96 +
STACK CFI INIT 3ff64 484 .cfa: sp 0 +
STACK CFI 3ff68 .cfa: sp 224 +
STACK CFI 3ff84 .cfa: x29 96 + x19: .cfa -8 + ^ x20: .cfa -16 + ^ x21: .cfa -24 + ^ x22: .cfa -32 + ^ x23: .cfa -40 + ^ x24: .cfa -48 + ^ x25: .cfa -56 + ^ x26: .cfa -64 + ^ x27: .cfa -72 + ^ x28: .cfa -80 + ^ .ra: .cfa -88 + ^ x29: .cfa -96 + ^
STACK CFI 401f4 .cfa: sp 224 +
STACK CFI 40210 .cfa: sp 0 +
STACK CFI 40214 .cfa: x29 96 +
STACK CFI 402e0 .cfa: sp 224 +
STACK CFI 402fc .cfa: sp 0 +
STACK CFI 40300 .cfa: x29 96 +
STACK CFI INIT 40400 484 .cfa: sp 0 +
STACK CFI 40404 .cfa: sp 224 +
STACK CFI 40420 .cfa: x29 96 + x19: .cfa -8 + ^ x20: .cfa -16 + ^ x21: .cfa -24 + ^ x22: .cfa -32 + ^ x23: .cfa -40 + ^ x24: .cfa -48 + ^ x25: .cfa -56 + ^ x26: .cfa -64 + ^ x27: .cfa -72 + ^ x28: .cfa -80 + ^ .ra: .cfa -88 + ^ x29: .cfa -96 + ^
STACK CFI 40690 .cfa: sp 224 +
STACK CFI 406ac .cfa: sp 0 +
STACK CFI 406b0 .cfa: x29 96 +
STACK CFI 4077c .cfa: sp 224 +
STACK CFI 40798 .cfa: sp 0 +
STACK CFI 4079c .cfa: x29 96 +
STACK CFI INIT 4089c 2f4 .cfa: sp 0 +
STACK CFI 408a0 .cfa: sp 176 +
STACK CFI 408b4 .cfa: x29 64 + x19: .cfa -8 + ^ x20: .cfa -16 + ^ x21: .cfa -24 + ^ x22: .cfa -32 + ^ x23: .cfa -48 + ^ .ra: .cfa -56 + ^ x29: .cfa -64 + ^
STACK CFI 40a88 .cfa: sp 176 +
STACK CFI 40a9c .cfa: sp 0 +
STACK CFI 40aa0 .cfa: x29 64 +
STACK CFI INIT 40be0 74 .cfa: sp 0 +
STACK CFI 40be4 .cfa: sp 48 +
STACK CFI 40bf0 .cfa: x29 32 + x19: .cfa -8 + ^ x20: .cfa -16 + ^ .ra: .cfa -24 + ^ x29: .cfa -32 + ^
STACK CFI 40c3c .cfa: sp 48 +
STACK CFI 40c48 .cfa: sp 0 +
STACK CFI 40c4c .cfa: x29 32 +
STACK CFI INIT 40c58 154 .cfa: sp 0 +
STACK CFI 40c5c .cfa: sp 384 +
STACK CFI 40c70 .cfa: x29 64 + x19: .cfa -8 + ^ x20: .cfa -16 + ^ x21: .cfa -24 + ^ x22: .cfa -32 + ^ x23: .cfa -40 + ^ x28: .cfa -48 + ^ .ra: .cfa -56 + ^ x29: .cfa -64 + ^
STACK CFI 40d54 .cfa: sp 384 +
STACK CFI 40d68 .cfa: sp 0 +
STACK CFI 40d6c .cfa: x29 64 +
STACK CFI INIT 4166c a8 .cfa: sp 0 +
STACK CFI 41670 .cfa: sp 32 +
STACK CFI 41678 .cfa: x29 32 + x19: .cfa -16 + ^ .ra: .cfa -24 + ^ x29: .cfa -32 + ^
STACK CFI 416ac .cfa: sp 32 +
STACK CFI 416b4 .cfa: sp 0 +
STACK CFI 416b8 .cfa: x29 32 +
STACK CFI 416bc .cfa: sp 32 +
STACK CFI 416c4 .cfa: sp 0 +
STACK CFI 416c8 .cfa: x29 32 +
STACK CFI INIT 41b94 31c .cfa: sp 0 +
STACK CFI 41b98 .cfa: sp 224 +
STACK CFI 41bac .cfa: x29 64 + x19: .cfa -8 + ^ x20: .cfa -16 + ^ x21: .cfa -24 + ^ x22: .cfa -32 + ^ x23: .cfa -48 + ^ .ra: .cfa -56 + ^ x29: .cfa -64 + ^
STACK CFI 41da0 .cfa: sp 224 +
STACK CFI 41db4 .cfa: sp 0 +
STACK CFI 41db8 .cfa: x29 64 +
STACK CFI INIT 41f04 a8 .cfa: sp 0 +
STACK CFI 41f08 .cfa: sp 32 +
STACK CFI 41f10 .cfa: x29 32 + x19: .cfa -16 + ^ .ra: .cfa -24 + ^ x29: .cfa -32 + ^
STACK CFI 41f44 .cfa: sp 32 +
STACK CFI 41f4c .cfa: sp 0 +
STACK CFI 41f50 .cfa: x29 32 +
STACK CFI 41f54 .cfa: sp 32 +
STACK CFI 41f5c .cfa: sp 0 +
STACK CFI 41f60 .cfa: x29 32 +
STACK CFI INIT 4203c 358 .cfa: sp 0 +
STACK CFI 42040 .cfa: sp 208 +
STACK CFI 42054 .cfa: x29 64 + x19: .cfa -8 + ^ x20: .cfa -16 + ^ x21: .cfa -24 + ^ x22: .cfa -32 + ^ x23: .cfa -48 + ^ .ra: .cfa -56 + ^ x29: .cfa -64 + ^
STACK CFI 42270 .cfa: sp 208 +
STACK CFI 42284 .cfa: sp 0 +
STACK CFI 42288 .cfa: x29 64 +
STACK CFI INIT 423fc 300 .cfa: sp 0 +
STACK CFI 42400 .cfa: sp 192 +
STACK CFI 42414 .cfa: x29 64 + x19: .cfa -8 + ^ x20: .cfa -16 + ^ x21: .cfa -24 + ^ x22: .cfa -32 + ^ x23: .cfa -48 + ^ .ra: .cfa -56 + ^ x29: .cfa -64 + ^
STACK CFI 425f4 .cfa: sp 192 +
STACK CFI 42608 .cfa: sp 0 +
STACK CFI 4260c .cfa: x29 64 +
STACK CFI INIT 42760 a8 .cfa: sp 0 +
STACK CFI 42764 .cfa: sp 32 +
STACK CFI 4276c .cfa: x29 32 + x19: .cfa -16 + ^ .ra: .cfa -24 + ^ x29: .cfa -32 + ^
STACK CFI 427a0 .cfa: sp 32 +
STACK CFI 427a8 .cfa: sp 0 +
STACK CFI 427ac .cfa: x29 32 +
STACK CFI 427b0 .cfa: sp 32 +
STACK CFI 427b8 .cfa: sp 0 +
STACK CFI 427bc .cfa: x29 32 +
STACK CFI INIT 428a4 34c .cfa: sp 0 +
STACK CFI 428a8 .cfa: sp 208 +
STACK CFI 428bc .cfa: x29 64 + x19: .cfa -8 + ^ x20: .cfa -16 + ^ x21: .cfa -24 + ^ x22: .cfa -32 + ^ x23: .cfa -40 + ^ x24: .cfa -48 + ^ .ra: .cfa -56 + ^ x29: .cfa -64 + ^
STACK CFI 42acc .cfa: sp 208 +
STACK CFI 42ae0 .cfa: sp 0 +
STACK CFI 42ae4 .cfa: x29 64 +
STACK CFI INIT 42c58 39c .cfa: sp 0 +
STACK CFI 42c5c .cfa: sp 224 +
STACK CFI 42c70 .cfa: x29 64 + x19: .cfa -8 + ^ x20: .cfa -16 + ^ x21: .cfa -24 + ^ x22: .cfa -32 + ^ x23: .cfa -48 + ^ .ra: .cfa -56 + ^ x29: .cfa -64 + ^
STACK CFI 42ec4 .cfa: sp 224 +
STACK CFI 42ed8 .cfa: sp 0 +
STACK CFI 42edc .cfa: x29 64 +
STACK CFI INIT 4305c 1a4 .cfa: sp 0 +
STACK CFI 43060 .cfa: sp 80 +
STACK CFI 43074 .cfa: x29 64 + x19: .cfa -8 + ^ x20: .cfa -16 + ^ x21: .cfa -24 + ^ x22: .cfa -32 + ^ x23: .cfa -48 + ^ .ra: .cfa -56 + ^ x29: .cfa -64 + ^
STACK CFI 431b0 .cfa: sp 80 +
STACK CFI 431c4 .cfa: sp 0 +
STACK CFI 431c8 .cfa: x29 64 +
STACK CFI INIT 43304 134 .cfa: sp 0 +
STACK CFI 43308 .cfa: sp 80 +
STACK CFI 43314 .cfa: x29 32 + x19: .cfa -8 + ^ x20: .cfa -16 + ^ .ra: .cfa -24 + ^ x29: .cfa -32 + ^
STACK CFI 43344 .cfa: sp 80 +
STACK CFI 43350 .cfa: sp 0 +
STACK CFI 43354 .cfa: x29 32 +
STACK CFI INIT 43438 78 .cfa: sp 0 +
STACK CFI 4343c .cfa: sp 32 +
STACK CFI 43444 .cfa: x29 32 + x19: .cfa -8 + ^ x20: .cfa -16 + ^ .ra: .cfa -24 + ^ x29: .cfa -32 + ^
STACK CFI 43450 .cfa: sp 32 +
STACK CFI 43458 .cfa: sp 0 +
STACK CFI 4345c .cfa: x29 32 +
STACK CFI INIT 434b0 74 .cfa: sp 0 +
STACK CFI 434b4 .cfa: sp 48 +
STACK CFI 434c0 .cfa: x29 32 + x19: .cfa -8 + ^ x20: .cfa -16 + ^ .ra: .cfa -24 + ^ x29: .cfa -32 + ^
STACK CFI 4350c .cfa: sp 48 +
STACK CFI 43518 .cfa: sp 0 +
STACK CFI 4351c .cfa: x29 32 +
STACK CFI INIT 435ac 25c .cfa: sp 0 +
STACK CFI 435b0 .cfa: sp 128 +
STACK CFI 435c0 .cfa: x29 48 + x19: .cfa -8 + ^ x20: .cfa -16 + ^ x21: .cfa -32 + ^ .ra: .cfa -40 + ^ x29: .cfa -48 + ^
STACK CFI 436a8 .cfa: sp 128 +
STACK CFI 436b8 .cfa: sp 0 +
STACK CFI 436bc .cfa: x29 48 +
STACK CFI INIT 43880 300 .cfa: sp 0 +
STACK CFI 43884 .cfa: sp 144 +
STACK CFI 43898 .cfa: x29 64 + x19: .cfa -8 + ^ x20: .cfa -16 + ^ x21: .cfa -24 + ^ x22: .cfa -32 + ^ x23: .cfa -48 + ^ .ra: .cfa -56 + ^ x29: .cfa -64 + ^
STACK CFI 43a2c .cfa: sp 144 +
STACK CFI 43a40 .cfa: sp 0 +
STACK CFI 43a44 .cfa: x29 64 +
STACK CFI INIT 43bd4 264 .cfa: sp 0 +
STACK CFI 43bd8 .cfa: sp 128 +
STACK CFI 43be8 .cfa: x29 48 + x19: .cfa -8 + ^ x20: .cfa -16 + ^ x21: .cfa -32 + ^ .ra: .cfa -40 + ^ x29: .cfa -48 + ^
STACK CFI 43ce0 .cfa: sp 128 +
STACK CFI 43cf0 .cfa: sp 0 +
STACK CFI 43cf4 .cfa: x29 48 +
STACK CFI INIT 43ee0 1d8 .cfa: sp 0 +
STACK CFI 43ee4 .cfa: sp 192 +
STACK CFI 43f04 .cfa: x29 80 + x19: .cfa -8 + ^ x20: .cfa -16 + ^ x21: .cfa -24 + ^ x22: .cfa -32 + ^ x23: .cfa -40 + ^ x24: .cfa -48 + ^ x25: .cfa -56 + ^ x26: .cfa -64 + ^ .ra: .cfa -72 + ^ x29: .cfa -80 + ^ v8: .cfa -88 + ^ v9: .cfa -96 + ^ v10: .cfa -112 + ^
STACK CFI 43fa0 .cfa: sp 192 +
STACK CFI 43fc0 .cfa: sp 0 +
STACK CFI 43fc4 .cfa: x29 80 +
STACK CFI INIT 440b8 7e4 .cfa: sp 0 +
STACK CFI 440bc .cfa: sp 96 +
STACK CFI 440d4 .cfa: x29 80 + x19: .cfa -8 + ^ x20: .cfa -16 + ^ x21: .cfa -24 + ^ x22: .cfa -32 + ^ x23: .cfa -40 + ^ x24: .cfa -48 + ^ x25: .cfa -64 + ^ .ra: .cfa -72 + ^ x29: .cfa -80 + ^
STACK CFI 447e8 .cfa: sp 96 +
STACK CFI 44800 .cfa: sp 0 +
STACK CFI 44804 .cfa: x29 80 +
STACK CFI INIT 4489c 1e8 .cfa: sp 0 +
STACK CFI 448a0 .cfa: sp 192 +
STACK CFI 448c4 .cfa: x29 88 + x19: .cfa -8 + ^ x20: .cfa -16 + ^ x21: .cfa -24 + ^ x22: .cfa -32 + ^ x23: .cfa -40 + ^ x24: .cfa -48 + ^ x25: .cfa -56 + ^ x26: .cfa -64 + ^ x27: .cfa -72 + ^ .ra: .cfa -80 + ^ x29: .cfa -88 + ^ v8: .cfa -96 + ^ v9: .cfa -104 + ^ v10: .cfa -112 + ^
STACK CFI 44968 .cfa: sp 192 +
STACK CFI 4498c .cfa: sp 0 +
STACK CFI 44990 .cfa: x29 88 +
STACK CFI INIT 44a84 8f8 .cfa: sp 0 +
STACK CFI 44a88 .cfa: sp 112 +
STACK CFI 44aa0 .cfa: x29 80 + x19: .cfa -8 + ^ x20: .cfa -16 + ^ x21: .cfa -24 + ^ x22: .cfa -32 + ^ x23: .cfa -40 + ^ x24: .cfa -48 + ^ x25: .cfa -64 + ^ .ra: .cfa -72 + ^ x29: .cfa -80 + ^
STACK CFI 452b8 .cfa: sp 112 +
STACK CFI 452d0 .cfa: sp 0 +
STACK CFI 452d4 .cfa: x29 80 +
STACK CFI INIT 45380 2e4 .cfa: sp 0 +
STACK CFI 45384 .cfa: sp 144 +
STACK CFI 45398 .cfa: x29 64 + x19: .cfa -8 + ^ x20: .cfa -16 + ^ x21: .cfa -24 + ^ x22: .cfa -32 + ^ x23: .cfa -48 + ^ .ra: .cfa -56 + ^ x29: .cfa -64 + ^
STACK CFI 45510 .cfa: sp 144 +
STACK CFI 45524 .cfa: sp 0 +
STACK CFI 45528 .cfa: x29 64 +
STACK CFI INIT 45664 2e4 .cfa: sp 0 +
STACK CFI 45668 .cfa: sp 144 +
STACK CFI 4567c .cfa: x29 64 + x19: .cfa -8 + ^ x20: .cfa -16 + ^ x21: .cfa -24 + ^ x22: .cfa -32 + ^ x23: .cfa -48 + ^ .ra: .cfa -56 + ^ x29: .cfa -64 + ^
STACK CFI 457f4 .cfa: sp 144 +
STACK CFI 45808 .cfa: sp 0 +
STACK CFI 4580c .cfa: x29 64 +
STACK CFI INIT 45948 2a0 .cfa: sp 0 +
STACK CFI 4594c .cfa: sp 144 +
STACK CFI 45960 .cfa: x29 64 + x19: .cfa -8 + ^ x20: .cfa -16 + ^ x21: .cfa -24 + ^ x22: .cfa -32 + ^ x23: .cfa -48 + ^ .ra: .cfa -56 + ^ x29: .cfa -64 + ^
STACK CFI 45a94 .cfa: sp 144 +
STACK CFI 45aa8 .cfa: sp 0 +
STACK CFI 45aac .cfa: x29 64 +
STACK CFI INIT 45be8 2f0 .cfa: sp 0 +
STACK CFI 45bec .cfa: sp 144 +
STACK CFI 45c00 .cfa: x29 64 + x19: .cfa -8 + ^ x20: .cfa -16 + ^ x21: .cfa -24 + ^ x22: .cfa -32 + ^ x23: .cfa -48 + ^ .ra: .cfa -56 + ^ x29: .cfa -64 + ^
STACK CFI 45d84 .cfa: sp 144 +
STACK CFI 45d98 .cfa: sp 0 +
STACK CFI 45d9c .cfa: x29 64 +
STACK CFI INIT 45ed8 4e4 .cfa: sp 0 +
STACK CFI 45edc .cfa: sp 144 +
STACK CFI 45ef0 .cfa: x29 64 + x19: .cfa -8 + ^ x20: .cfa -16 + ^ x21: .cfa -24 + ^ x22: .cfa -32 + ^ x23: .cfa -48 + ^ .ra: .cfa -56 + ^ x29: .cfa -64 + ^
STACK CFI 46214 .cfa: sp 144 +
STACK CFI 46228 .cfa: sp 0 +
STACK CFI 4622c .cfa: x29 64 +
STACK CFI INIT 463bc 154 .cfa: sp 0 +
STACK CFI 463c0 .cfa: sp 384 +
STACK CFI 463d4 .cfa: x29 64 + x19: .cfa -8 + ^ x20: .cfa -16 + ^ x21: .cfa -24 + ^ x22: .cfa -32 + ^ x23: .cfa -40 + ^ x28: .cfa -48 + ^ .ra: .cfa -56 + ^ x29: .cfa -64 + ^
STACK CFI 464b8 .cfa: sp 384 +
STACK CFI 464cc .cfa: sp 0 +
STACK CFI 464d0 .cfa: x29 64 +
STACK CFI INIT 46528 50c .cfa: sp 0 +
STACK CFI 4652c .cfa: sp 64 +
STACK CFI 4653c .cfa: x29 64 + x19: .cfa -8 + ^ x20: .cfa -16 + ^ x21: .cfa -24 + ^ x22: .cfa -32 + ^ x23: .cfa -40 + ^ x24: .cfa -48 + ^ .ra: .cfa -56 + ^ x29: .cfa -64 + ^
STACK CFI 4665c .cfa: sp 64 +
STACK CFI 4666c .cfa: sp 0 +
STACK CFI 46670 .cfa: x29 64 +
STACK CFI 46a08 .cfa: sp 64 +
STACK CFI 46a18 .cfa: sp 0 +
STACK CFI 46a1c .cfa: x29 64 +
STACK CFI INIT 46d64 294 .cfa: sp 0 +
STACK CFI 46d68 .cfa: sp 240 +
STACK CFI 46d80 .cfa: x29 80 + x19: .cfa -8 + ^ x20: .cfa -16 + ^ x21: .cfa -24 + ^ x22: .cfa -32 + ^ x23: .cfa -40 + ^ x24: .cfa -48 + ^ x25: .cfa -64 + ^ .ra: .cfa -72 + ^ x29: .cfa -80 + ^
STACK CFI 46f20 .cfa: sp 240 +
STACK CFI 46f38 .cfa: sp 0 +
STACK CFI 46f3c .cfa: x29 80 +
STACK CFI INIT 47074 50 .cfa: sp 0 +
STACK CFI 47078 .cfa: sp 32 +
STACK CFI 47080 .cfa: x29 32 + x19: .cfa -8 + ^ x20: .cfa -16 + ^ .ra: .cfa -24 + ^ x29: .cfa -32 + ^
STACK CFI INIT 470f0 7c0 .cfa: sp 0 +
STACK CFI 470f4 .cfa: sp 320 +
STACK CFI 47110 .cfa: x29 96 + x19: .cfa -8 + ^ x20: .cfa -16 + ^ x21: .cfa -24 + ^ x22: .cfa -32 + ^ x23: .cfa -40 + ^ x24: .cfa -48 + ^ x25: .cfa -56 + ^ x26: .cfa -64 + ^ x27: .cfa -72 + ^ x28: .cfa -80 + ^ .ra: .cfa -88 + ^ x29: .cfa -96 + ^
STACK CFI 47760 .cfa: sp 320 +
STACK CFI 4777c .cfa: sp 0 +
STACK CFI 47780 .cfa: x29 96 +
STACK CFI INIT 4b4cc c84 .cfa: sp 0 +
STACK CFI 4b4d0 .cfa: sp 96 +
STACK CFI 4b4e8 .cfa: x29 96 + x19: .cfa -8 + ^ x20: .cfa -16 + ^ x21: .cfa -24 + ^ x22: .cfa -32 + ^ x23: .cfa -40 + ^ x24: .cfa -48 + ^ x25: .cfa -56 + ^ x26: .cfa -64 + ^ x27: .cfa -72 + ^ x28: .cfa -80 + ^ .ra: .cfa -88 + ^ x29: .cfa -96 + ^
STACK CFI 4bf70 .cfa: sp 96 +
STACK CFI 4bf88 .cfa: sp 0 +
STACK CFI 4bf8c .cfa: x29 96 +
STACK CFI INIT 4c2a4 26c .cfa: sp 0 +
STACK CFI 4c2a8 .cfa: sp 128 +
STACK CFI 4c2b8 .cfa: x29 48 + x19: .cfa -8 + ^ x20: .cfa -16 + ^ x21: .cfa -24 + ^ x22: .cfa -32 + ^ .ra: .cfa -40 + ^ x29: .cfa -48 + ^
STACK CFI 4c45c .cfa: sp 128 +
STACK CFI 4c46c .cfa: sp 0 +
STACK CFI 4c470 .cfa: x29 48 +
STACK CFI INIT 4c8a0 3b8 .cfa: sp 0 +
STACK CFI 4c8a4 .cfa: sp 96 +
STACK CFI 4c8bc .cfa: x29 96 + x19: .cfa -8 + ^ x20: .cfa -16 + ^ x21: .cfa -24 + ^ x22: .cfa -32 + ^ x23: .cfa -40 + ^ x24: .cfa -48 + ^ x25: .cfa -56 + ^ x26: .cfa -64 + ^ x27: .cfa -72 + ^ x28: .cfa -80 + ^ .ra: .cfa -88 + ^ x29: .cfa -96 + ^
STACK CFI 4cbf8 .cfa: sp 96 +
STACK CFI 4cc10 .cfa: sp 0 +
STACK CFI 4cc14 .cfa: x29 96 +
STACK CFI INIT 4ccf8 cc0 .cfa: sp 0 +
STACK CFI 4ccfc .cfa: sp 96 +
STACK CFI 4cd14 .cfa: x29 96 + x19: .cfa -8 + ^ x20: .cfa -16 + ^ x21: .cfa -24 + ^ x22: .cfa -32 + ^ x23: .cfa -40 + ^ x24: .cfa -48 + ^ x25: .cfa -56 + ^ x26: .cfa -64 + ^ x27: .cfa -72 + ^ x28: .cfa -80 + ^ .ra: .cfa -88 + ^ x29: .cfa -96 + ^
STACK CFI 4d7c8 .cfa: sp 96 +
STACK CFI 4d7e0 .cfa: sp 0 +
STACK CFI 4d7e4 .cfa: x29 96 +
STACK CFI INIT 4dca0 af8 .cfa: sp 0 +
STACK CFI 4dca4 .cfa: sp 96 +
STACK CFI 4dcbc .cfa: x29 96 + x19: .cfa -8 + ^ x20: .cfa -16 + ^ x21: .cfa -24 + ^ x22: .cfa -32 + ^ x23: .cfa -40 + ^ x24: .cfa -48 + ^ x25: .cfa -56 + ^ x26: .cfa -64 + ^ x27: .cfa -72 + ^ x28: .cfa -80 + ^ .ra: .cfa -88 + ^ x29: .cfa -96 + ^
STACK CFI 4e70c .cfa: sp 96 +
STACK CFI 4e724 .cfa: sp 0 +
STACK CFI 4e728 .cfa: x29 96 +
STACK CFI INIT 4e98c 1430 .cfa: sp 0 +
STACK CFI 4e990 .cfa: sp 96 +
STACK CFI 4e9a8 .cfa: x29 96 + x19: .cfa -8 + ^ x20: .cfa -16 + ^ x21: .cfa -24 + ^ x22: .cfa -32 + ^ x23: .cfa -40 + ^ x24: .cfa -48 + ^ x25: .cfa -56 + ^ x26: .cfa -64 + ^ x27: .cfa -72 + ^ x28: .cfa -80 + ^ .ra: .cfa -88 + ^ x29: .cfa -96 + ^
STACK CFI 4fc44 .cfa: sp 96 +
STACK CFI 4fc5c .cfa: sp 0 +
STACK CFI 4fc60 .cfa: x29 96 +
STACK CFI INIT 4fee0 75c .cfa: sp 0 +
STACK CFI 4fee4 .cfa: sp 368 +
STACK CFI 4ff00 .cfa: x29 96 + x19: .cfa -8 + ^ x20: .cfa -16 + ^ x21: .cfa -24 + ^ x22: .cfa -32 + ^ x23: .cfa -40 + ^ x24: .cfa -48 + ^ x25: .cfa -56 + ^ x26: .cfa -64 + ^ x27: .cfa -72 + ^ x28: .cfa -80 + ^ .ra: .cfa -88 + ^ x29: .cfa -96 + ^
STACK CFI 4ffb4 .cfa: sp 368 +
STACK CFI 4ffd0 .cfa: sp 0 +
STACK CFI 4ffd4 .cfa: x29 96 +
STACK CFI 50028 .cfa: sp 368 +
STACK CFI 50044 .cfa: sp 0 +
STACK CFI 50048 .cfa: x29 96 +
STACK CFI INIT 509fc ee0 .cfa: sp 0 +
STACK CFI 50a00 .cfa: sp 96 +
STACK CFI 50a18 .cfa: x29 96 + x19: .cfa -8 + ^ x20: .cfa -16 + ^ x21: .cfa -24 + ^ x22: .cfa -32 + ^ x23: .cfa -40 + ^ x24: .cfa -48 + ^ x25: .cfa -56 + ^ x26: .cfa -64 + ^ x27: .cfa -72 + ^ x28: .cfa -80 + ^ .ra: .cfa -88 + ^ x29: .cfa -96 + ^
STACK CFI 516d4 .cfa: sp 96 +
STACK CFI 516ec .cfa: sp 0 +
STACK CFI 516f0 .cfa: x29 96 +
STACK CFI INIT 51c50 14b4 .cfa: sp 0 +
STACK CFI 51c54 .cfa: sp 112 +
STACK CFI 51c70 .cfa: x29 96 + x19: .cfa -8 + ^ x20: .cfa -16 + ^ x21: .cfa -24 + ^ x22: .cfa -32 + ^ x23: .cfa -40 + ^ x24: .cfa -48 + ^ x25: .cfa -56 + ^ x26: .cfa -64 + ^ x27: .cfa -72 + ^ x28: .cfa -80 + ^ .ra: .cfa -88 + ^ x29: .cfa -96 + ^ v8: .cfa -112 + ^
STACK CFI 52050 .cfa: sp 112 +
STACK CFI 5206c .cfa: sp 0 +
STACK CFI 52070 .cfa: x29 96 +
STACK CFI INIT 55514 9a0 .cfa: sp 0 +
STACK CFI 55518 .cfa: sp 144 +
STACK CFI 55530 .cfa: x29 80 + x19: .cfa -8 + ^ x20: .cfa -16 + ^ x21: .cfa -24 + ^ x22: .cfa -32 + ^ x23: .cfa -40 + ^ x24: .cfa -48 + ^ x25: .cfa -64 + ^ .ra: .cfa -72 + ^ x29: .cfa -80 + ^
STACK CFI 55e30 .cfa: sp 144 +
STACK CFI 55e48 .cfa: sp 0 +
STACK CFI 55e4c .cfa: x29 80 +
STACK CFI INIT 55eb4 57c .cfa: sp 0 +
STACK CFI 55eb8 .cfa: sp 96 +
STACK CFI 55ed0 .cfa: x29 96 + x19: .cfa -8 + ^ x20: .cfa -16 + ^ x21: .cfa -24 + ^ x22: .cfa -32 + ^ x23: .cfa -40 + ^ x24: .cfa -48 + ^ x25: .cfa -56 + ^ x26: .cfa -64 + ^ x27: .cfa -72 + ^ x28: .cfa -80 + ^ .ra: .cfa -88 + ^ x29: .cfa -96 + ^
STACK CFI 56394 .cfa: sp 96 +
STACK CFI 563ac .cfa: sp 0 +
STACK CFI 563b0 .cfa: x29 96 +
STACK CFI INIT 56430 67c .cfa: sp 0 +
STACK CFI 56434 .cfa: sp 96 +
STACK CFI 5644c .cfa: x29 96 + x19: .cfa -8 + ^ x20: .cfa -16 + ^ x21: .cfa -24 + ^ x22: .cfa -32 + ^ x23: .cfa -40 + ^ x24: .cfa -48 + ^ x25: .cfa -56 + ^ x26: .cfa -64 + ^ x27: .cfa -72 + ^ x28: .cfa -80 + ^ .ra: .cfa -88 + ^ x29: .cfa -96 + ^
STACK CFI 56a10 .cfa: sp 96 +
STACK CFI 56a28 .cfa: sp 0 +
STACK CFI 56a2c .cfa: x29 96 +
