MODULE Linux arm 02B78CD368227BC56D08A76B4BA4975F0 weebify.restartbtn.android32.so
INFO CODE_ID D38CB7022268C57B6D08A76B4BA4975F6B0413DA
INFO GENERATOR mozilla/dump_syms 2.3.4
FILE 0 /home/runner/work/restartbutton-geode/restartbutton-geode/geode-sdk-clone/loader/include/Geode/utils/addresser.hpp
FILE 1 /home/runner/work/restartbutton-geode/restartbutton-geode/geode-sdk-clone/loader/include/Geode/platform/ItaniumCast.hpp
FILE 2 /usr/local/lib/android/sdk/ndk/27.2.12479018/toolchains/llvm/prebuilt/linux-x86_64/sysroot/usr/include/c++/v1/ostream
FILE 3 /usr/local/lib/android/sdk/ndk/27.2.12479018/toolchains/llvm/prebuilt/linux-x86_64/sysroot/usr/include/c++/v1/stdexcept
FILE 4 /usr/local/lib/android/sdk/ndk/27.2.12479018/toolchains/llvm/prebuilt/linux-x86_64/sysroot/usr/include/c++/v1/variant
FILE 5 /usr/local/lib/android/sdk/ndk/27.2.12479018/toolchains/llvm/prebuilt/linux-x86_64/sysroot/usr/include/c++/v1/locale
FILE 6 /usr/local/lib/android/sdk/ndk/27.2.12479018/toolchains/llvm/prebuilt/linux-x86_64/sysroot/usr/include/c++/v1/__tree
FILE 7 /usr/local/lib/android/sdk/ndk/27.2.12479018/toolchains/llvm/prebuilt/linux-x86_64/sysroot/usr/include/c++/v1/new
FILE 8 /home/runner/work/restartbutton-geode/restartbutton-geode/build/bindings/bindings/Geode/modify/MenuLayer.hpp
FILE 9 /home/runner/work/restartbutton-geode/restartbutton-geode/build/bindings/bindings/Geode/modify/CCKeyboardDispatcher.hpp
FILE 10 /home/runner/work/restartbutton-geode/restartbutton-geode/src/main.cpp
FILE 11 /home/runner/work/restartbutton-geode/restartbutton-geode/geode-sdk-clone/loader/include/Geode/modify/Modify.hpp
FILE 12 /usr/local/lib/android/sdk/ndk/27.2.12479018/toolchains/llvm/prebuilt/linux-x86_64/sysroot/usr/include/c++/v1/string
FILE 13 /usr/local/lib/android/sdk/ndk/27.2.12479018/toolchains/llvm/prebuilt/linux-x86_64/sysroot/usr/include/c++/v1/__functional/function.h
FILE 14 /usr/local/lib/android/sdk/ndk/27.2.12479018/toolchains/llvm/prebuilt/linux-x86_64/sysroot/usr/include/c++/v1/__memory/shared_ptr.h
FILE 15 /home/runner/work/restartbutton-geode/restartbutton-geode/cpm-cache/result/28b1b03e0682509636d5e5825265ce2421aac4dc/include/Geode/Result.hpp
FILE 16 /usr/local/lib/android/sdk/ndk/27.2.12479018/toolchains/llvm/prebuilt/linux-x86_64/sysroot/usr/include/c++/v1/vector
FILE 17 /usr/local/lib/android/sdk/ndk/27.2.12479018/toolchains/llvm/prebuilt/linux-x86_64/sysroot/usr/include/c++/v1/sstream
FILE 18 /usr/local/lib/android/sdk/ndk/27.2.12479018/toolchains/llvm/prebuilt/linux-x86_64/sysroot/usr/include/c++/v1/__split_buffer
FILE 19 /home/runner/work/restartbutton-geode/restartbutton-geode/cpm-cache/tuliphook/727bc6fdab39f84eb52f1519195d5488a312e77e/include/tulip/HandlerData.hpp
FILE 20 /home/runner/work/restartbutton-geode/restartbutton-geode/build/bindings/bindings/Geode/binding/MenuLayer.hpp
FILE 21 /home/runner/work/restartbutton-geode/restartbutton-geode/geode-sdk-clone/loader/include/Geode/loader/Mod.hpp
FILE 22 /home/runner/work/restartbutton-geode/restartbutton-geode/geode-sdk-clone/entry.cpp
PUBLIC 29b0 0 __on_dlclose
PUBLIC 29c0 0 __emutls_unregister_key
PUBLIC 29c4 0 __on_dlclose_late
PUBLIC 29c8 0 __atexit_handler_wrapper
PUBLIC 29d4 0 atexit
PUBLIC 29f4 0 pthread_atfork
FUNC 2a04 188 0 restart()
2a04 14 8 10
2a18 14 9 10
2a2c 16 10 10
2a42 4 9 10
2a46 1e 13 10
2a64 2 15 10
2a66 4 11 10
2a6a 4 15 10
2a6e 6 11 10
2a74 6 13 10
2a7a 2 11 10
2a7c 4 13 10
2a80 2 11 10
2a82 12 13 10
2a94 8 15 10
2a9c e 11 10
2aaa 30 20 10
2ada 42 11 10
2b1c e 21 10
2b2a 62 11 10
FUNC 2b8c 190 0 reload()
2b8c 14 23 10
2ba0 12 24 10
2bb2 18 25 10
2bca 4 24 10
2bce c 26 10
2bda 1a 29 10
2bf4 2 31 10
2bf6 4 27 10
2bfa 4 31 10
2bfe 6 27 10
2c04 6 29 10
2c0a 2 27 10
2c0c 4 29 10
2c10 2 27 10
2c12 12 29 10
2c24 6 31 10
2c2a e 27 10
2c38 2e 36 10
2c66 42 27 10
2ca8 e 37 10
2cb6 66 27 10
FUNC 2d1c 2f4 0 __cxx_global_var_init
2d3c 2d4 346 11
FUNC 3010 1c 0 geode::modifier::ModifyBase<geode::modifier::ModifyDerive<AltMenuLayer, MenuLayer> >::~ModifyBase()
3010 1c 141 11
FUNC 302c 2c4 0 __cxx_global_var_init.8
3036 2ba 346 11
FUNC 32f0 1c 0 geode::modifier::ModifyBase<geode::modifier::ModifyDerive<hook129<(anonymous namespace)::hook129Parent>, cocos2d::CCKeyboardDispatcher> >::~ModifyBase()
32f0 1c 141 11
PUBLIC 330d 0 __clang_call_terminate
FUNC 3318 10 0 std::__ndk1::basic_string<char, std::__ndk1::char_traits<char>, std::__ndk1::allocator<char> >::__throw_length_error[abi:ne180000]() const
3318 4 2118 12
331c c 2119 12
FUNC 3328 38 0 std::__ndk1::__throw_length_error[abi:ne180000](char const*)
3328 6 239 3
332e 32 241 3
FUNC 3360 18 0 std::length_error::length_error[abi:ne180000](char const*)
3360 18 152 3
FUNC 3378 28 0 std::__throw_bad_array_new_length([abi:ne180000], void)
3378 4 172 7
337c 24 174 7
FUNC 33a0 4 0 std::__ndk1::__function::__func<restart()::$_0, std::__ndk1::allocator<restart()::$_0>, void (FLAlertLayer*, bool)>::~__func()
33a0 4 250 13
FUNC 33a4 18 0 std::__ndk1::__function::__func<restart()::$_0, std::__ndk1::allocator<restart()::$_0>, void (FLAlertLayer*, bool)>::__clone() const
33a4 4 277 13
33a8 6 282 13
33ae 8 283 13
33b6 6 285 13
FUNC 33bc 10 0 std::__ndk1::__function::__func<restart()::$_0, std::__ndk1::allocator<restart()::$_0>, void (FLAlertLayer*, bool)>::__clone(std::__ndk1::__function::__base<void (FLAlertLayer*, bool)>*) const
33bc 8 289 13
33c4 8 290 13
FUNC 33cc 2 0 std::__ndk1::__function::__func<restart()::$_0, std::__ndk1::allocator<restart()::$_0>, void (FLAlertLayer*, bool)>::destroy()
33cc 2 295 13
FUNC 33ce 4 0 std::__ndk1::__function::__func<restart()::$_0, std::__ndk1::allocator<restart()::$_0>, void (FLAlertLayer*, bool)>::destroy_deallocate()
33ce 4 303 13
FUNC 33d2 c 0 std::__ndk1::__function::__func<restart()::$_0, std::__ndk1::allocator<restart()::$_0>, void (FLAlertLayer*, bool)>::operator()(FLAlertLayer*&&, bool&&)
33d2 c 308 13
FUNC 33e0 18 0 std::__ndk1::__function::__func<restart()::$_0, std::__ndk1::allocator<restart()::$_0>, void (FLAlertLayer*, bool)>::target(std::type_info const&) const
33e0 e 315 13
33ee a 318 13
FUNC 33f8 c 0 std::__ndk1::__function::__func<restart()::$_0, std::__ndk1::allocator<restart()::$_0>, void (FLAlertLayer*, bool)>::target_type() const
33f8 c 322 13
FUNC 3404 2 0 std::__ndk1::__function::__base<void (FLAlertLayer*, bool)>::~__base()
3404 2 235 13
FUNC 3406 4 0 std::__ndk1::__function::__func<reload()::$_0, std::__ndk1::allocator<reload()::$_0>, void (FLAlertLayer*, bool)>::~__func()
3406 4 250 13
FUNC 340c 18 0 std::__ndk1::__function::__func<reload()::$_0, std::__ndk1::allocator<reload()::$_0>, void (FLAlertLayer*, bool)>::__clone() const
340c 4 277 13
3410 6 282 13
3416 8 283 13
341e 6 285 13
FUNC 3424 10 0 std::__ndk1::__function::__func<reload()::$_0, std::__ndk1::allocator<reload()::$_0>, void (FLAlertLayer*, bool)>::__clone(std::__ndk1::__function::__base<void (FLAlertLayer*, bool)>*) const
3424 8 289 13
342c 8 290 13
FUNC 3434 2 0 std::__ndk1::__function::__func<reload()::$_0, std::__ndk1::allocator<reload()::$_0>, void (FLAlertLayer*, bool)>::destroy()
3434 2 295 13
FUNC 3436 4 0 std::__ndk1::__function::__func<reload()::$_0, std::__ndk1::allocator<reload()::$_0>, void (FLAlertLayer*, bool)>::destroy_deallocate()
3436 4 303 13
FUNC 343a 26 0 std::__ndk1::__function::__func<reload()::$_0, std::__ndk1::allocator<reload()::$_0>, void (FLAlertLayer*, bool)>::operator()(FLAlertLayer*&&, bool&&)
343a 26 308 13
FUNC 3460 18 0 std::__ndk1::__function::__func<reload()::$_0, std::__ndk1::allocator<reload()::$_0>, void (FLAlertLayer*, bool)>::target(std::type_info const&) const
3460 e 315 13
346e a 318 13
FUNC 3478 c 0 std::__ndk1::__function::__func<reload()::$_0, std::__ndk1::allocator<reload()::$_0>, void (FLAlertLayer*, bool)>::target_type() const
3478 c 322 13
FUNC 3484 524 0 geode::modifier::ModifyDerive<AltMenuLayer, MenuLayer>::apply()
3484 10 431 8
3494 210 434 8
36a4 210 471 8
38b4 12 476 8
38c6 26 434 8
38ec 2c 471 8
3918 c 434 8
3924 4 471 8
3928 80 434 8
FUNC 39a8 3a 0 std::__ndk1::shared_ptr<geode::Hook>::~shared_ptr[abi:ne180000]()
39a8 4 643 14
39ac 4 644 14
39b0 1a 645 14
39ca 4 646 14
39ce 12 645 14
39e0 2 646 14
FUNC 39e4 60 0 geode::impl::ResultData<geode::Hook*, std::__ndk1::basic_string<char, std::__ndk1::char_traits<char>, std::__ndk1::allocator<char> > >::~ResultData()
39e4 60 334 15
FUNC 3a44 3e 0 std::__ndk1::vector<std::__ndk1::basic_string<char, std::__ndk1::char_traits<char>, std::__ndk1::allocator<char> >, std::__ndk1::allocator<std::__ndk1::basic_string<char, std::__ndk1::char_traits<char>, std::__ndk1::allocator<char> > > >::~vector[abi:ne180000]()
3a44 3e 501 16
FUNC 3a82 2 0 geode::modifier::ModifyBase<geode::modifier::ModifyDerive<AltMenuLayer, MenuLayer> >::apply()
3a82 2 316 11
FUNC 3a84 f8 0 _ZN5geode15UnwrapExceptionC2IRPNS_4HookEQsr4implE18IsStringStreamableIT_EEENS_4impl5OkTagEOS5_
3a84 1a 316 15
3a9e 2c 315 15
3aca 5a 314 15
3b24 24 316 15
3b48 34 314 15
FUNC 3b7c 34 0 std::__ndk1::__throw_bad_variant_access[abi:ne180000]()
3b7c 4 285 4
3b80 30 287 4
FUNC 3bb0 d8 0 std::__ndk1::basic_stringstream<char, std::__ndk1::char_traits<char>, std::__ndk1::allocator<char> >::basic_stringstream[abi:ne180000]()
3bb0 d8 1010 17
FUNC 3c88 68 0 std::__ndk1::basic_stringstream<char, std::__ndk1::char_traits<char>, std::__ndk1::allocator<char> >::~basic_stringstream()
3c88 68 1102 17
FUNC 3cf0 10 0 geode::UnwrapException::~UnwrapException()
3cf0 10 325 15
FUNC 3d00 108 0 std::__ndk1::__put_character_sequence[abi:ne180000]<char, std::__ndk1::char_traits<char> >(std::__ndk1::basic_ostream<char, std::__ndk1::char_traits<char> >, std::__ndk1::basic_ostream const*, unsigned int)
3d00 1c 665 2
3d1c 6 669 2
3d22 6 670 2
3d28 c 673 2
3d34 2 678 2
3d36 4 675 2
3d3a 4 673 2
3d3e 2a 678 2
3d68 2 672 2
3d6a 4 675 2
3d6e 4 672 2
3d72 8 675 2
3d7a 4 672 2
3d7e 4 675 2
3d82 6 672 2
3d88 16 680 2
3d9e 10 683 2
3dae 16 687 2
3dc4 a 678 2
3dce e 683 2
3ddc e 684 2
3dea 1e 685 2
FUNC 3e08 110 0 std::__ndk1::__pad_and_output[abi:ne180000]<char, std::__ndk1::char_traits<char> >(std::__ndk1::char_traits<char>, std::__ndk1::ostreambuf_iterator const*, std::__ndk1::ostreambuf_iterator const, std::__ndk1::ostreambuf_iterator const, std::__ndk1::ios_base&, std::__ndk1::ostreambuf_iterator)
3e08 10 1246 5
3e18 12 1247 5
3e2a 2 1249 5
3e2c 6 1255 5
3e32 4 1250 5
3e36 6 1251 5
3e3c 4 1256 5
3e40 e 1257 5
3e4e a 1262 5
3e58 3a 1263 5
3e92 2 1264 5
3e94 2 1263 5
3e96 18 1264 5
3eae 12 1268 5
3ec0 4 1269 5
3ec4 4 1270 5
3ec8 12 1271 5
3eda 14 1276 5
3eee 10 1278 5
3efe 1a 1268 5
FUNC 3f18 ce 0 std::__ndk1::basic_stringbuf<char, std::__ndk1::char_traits<char>, std::__ndk1::allocator<char> >::str[abi:ne180000]() &&
3f18 a 396 17
3f22 2a 397 17
3f4c 1e 398 17
3f6a 8 402 17
3f72 4 401 17
3f76 42 402 17
3fb8 12 403 17
3fca 6 404 17
3fd0 16 406 17
FUNC 3fe6 e0 0 std::__ndk1::basic_stringbuf<char, std::__ndk1::char_traits<char>, std::__ndk1::allocator<char> >::__init_buf_ptrs[abi:ne180000]()
3fe6 8 626 17
3fee c 628 17
3ffa 4 629 17
3ffe 2 630 17
4000 2 628 17
4002 2 627 17
4004 4 628 17
4008 8 629 17
4010 4 628 17
4014 2 630 17
4016 6 631 17
401c 6 632 17
4022 2 631 17
4024 4 634 17
4028 2 636 17
402a 6 635 17
4030 42 636 17
4072 4 637 17
4076 4 638 17
407a c 637 17
4086 2 638 17
4088 4 637 17
408c 2 638 17
408e 6 639 17
4094 6 643 17
409a 6 647 17
40a0 c 641 17
40ac e 639 17
40ba 6 644 17
40c0 6 647 17
FUNC 40c8 160 0 std::__ndk1::vector<std::__ndk1::basic_string<char, std::__ndk1::char_traits<char>, std::__ndk1::allocator<char> >, std::__ndk1::allocator<std::__ndk1::basic_string<char, std::__ndk1::char_traits<char>, std::__ndk1::allocator<char> > > >::__push_back_slow_path<std::__ndk1::basic_string<char, std::__ndk1::char_traits<char>, std::__ndk1::allocator<char> > const&>(std::__ndk1::basic_string<char, std::__ndk1::char_traits<char>, std::__ndk1::allocator<char> > const&)
40c8 20 1449 16
40e8 5c 1451 16
4144 4 1453 16
4148 12 1451 16
415a 2 1453 16
415c 2 1451 16
415e 1c 1453 16
417a 8 1455 16
4182 4 1454 16
4186 30 1455 16
41b6 2 1457 16
41b8 12 1455 16
41ca 44 1457 16
420e a 1451 16
4218 10 1457 16
FUNC 4228 46 0 std::__ndk1::basic_string<char, std::__ndk1::char_traits<char>, std::__ndk1::allocator<char> >::__init_copy_ctor_external(char const*, unsigned int)
4228 a 2232 12
4232 4 2237 12
4236 a 2239 12
4240 6 2241 12
4246 c 2243 12
4252 8 2247 12
425a 2 2246 12
425c 6 2250 12
4262 6 2252 12
4268 6 2242 12
FUNC 426e 3c 0 std::__ndk1::__split_buffer<std::__ndk1::basic_string<char, std::__ndk1::char_traits<char>, std::__ndk1::allocator<char> >, std::__ndk1::allocator<std::__ndk1::basic_string<char, std::__ndk1::char_traits<char>, std::__ndk1::allocator<char> > >&>::~__split_buffer()
426e 6 352 18
4274 8 353 18
427c 4 354 18
4280 6 355 18
4286 4 356 18
428a 20 353 18
FUNC 42ac 10 0 std::__ndk1::vector<std::__ndk1::basic_string<char, std::__ndk1::char_traits<char>, std::__ndk1::allocator<char> >, std::__ndk1::allocator<std::__ndk1::basic_string<char, std::__ndk1::char_traits<char>, std::__ndk1::allocator<char> > > >::__throw_length_error[abi:ne180000]() const
42ac 10 940 16
FUNC 42bc 2 0 std::__ndk1::__variant_detail::__visitation::__base::__dispatcher<(unsigned int)0>::__dispatch[abi:ne180000]<std::__ndk1::__variant_detail::__dtor<std::__ndk1::__variant_detail::__traits<geode::Hook*, std::__ndk1::basic_string<char, std::__ndk1::char_traits<char>, std::__ndk1::allocator<char> > >, (std::__ndk1::__variant_detail::_Trait)1>::__destroy[abi:ne180000]()::{lambda(auto:1&)#1}, std::__ndk1::__variant_detail::__base<(std::__ndk1::__variant_detail::__traits<geode::Hook*, std::__ndk1::basic_string<char, std::__ndk1::char_traits<char>, std::__ndk1::allocator<char> > >)1, geode::Hook, std::__ndk1::allocator<char> >&>(std::__ndk1::__variant_detail::__dtor<std::__ndk1::__variant_detail::__traits<geode::Hook*, std::__ndk1::basic_string<char, std::__ndk1::char_traits<char>, std::__ndk1::allocator<char> > >, (std::__ndk1::__variant_detail::_Trait)1>, std::__ndk1::__variant_detail::__base<(std::__ndk1::__variant_detail::__traits<geode::Hook*, std::__ndk1::basic_string<char, std::__ndk1::char_traits<char>, std::__ndk1::allocator<char> > >)1, geode::Hook, std::__ndk1::allocator<char> >&)
42bc 2 526 4
FUNC 42be e 0 std::__ndk1::__variant_detail::__visitation::__base::__dispatcher<(unsigned int)1>::__dispatch[abi:ne180000]<std::__ndk1::__variant_detail::__dtor<std::__ndk1::__variant_detail::__traits<geode::Hook*, std::__ndk1::basic_string<char, std::__ndk1::char_traits<char>, std::__ndk1::allocator<char> > >, (std::__ndk1::__variant_detail::_Trait)1>::__destroy[abi:ne180000]()::{lambda(auto:1&)#1}, std::__ndk1::__variant_detail::__base<(std::__ndk1::__variant_detail::__traits<geode::Hook*, std::__ndk1::basic_string<char, std::__ndk1::char_traits<char>, std::__ndk1::allocator<char> > >)1, geode::Hook, std::__ndk1::allocator<char> >&>(std::__ndk1::__variant_detail::__dtor<std::__ndk1::__variant_detail::__traits<geode::Hook*, std::__ndk1::basic_string<char, std::__ndk1::char_traits<char>, std::__ndk1::allocator<char> > >, (std::__ndk1::__variant_detail::_Trait)1>, std::__ndk1::__variant_detail::__base<(std::__ndk1::__variant_detail::__traits<geode::Hook*, std::__ndk1::basic_string<char, std::__ndk1::char_traits<char>, std::__ndk1::allocator<char> > >)1, geode::Hook, std::__ndk1::allocator<char> >&)
42be e 526 4
FUNC 42cc c0 0 std::__ndk1::__tree<std::__ndk1::__value_type<std::__ndk1::basic_string<char, std::__ndk1::char_traits<char>, std::__ndk1::allocator<char> >, std::__ndk1::shared_ptr<geode::Hook> >, std::__ndk1::__map_value_compare<std::__ndk1::basic_string<char, std::__ndk1::char_traits<char>, std::__ndk1::allocator<char> >, std::__ndk1::__value_type<std::__ndk1::basic_string<char, std::__ndk1::char_traits<char>, std::__ndk1::allocator<char> >, std::__ndk1::shared_ptr<geode::Hook> >, std::__ndk1::less<std::__ndk1::basic_string<char, std::__ndk1::char_traits<char>, std::__ndk1::allocator<char> > >, true>, std::__ndk1::allocator<std::__ndk1::__value_type<std::__ndk1::basic_string<char, std::__ndk1::char_traits<char>, std::__ndk1::allocator<char> >, std::__ndk1::shared_ptr<geode::Hook> > > >::find<std::__ndk1::basic_string<char, std::__ndk1::char_traits<char>, std::__ndk1::allocator<char> > >(std::__ndk1::basic_string<char, std::__ndk1::char_traits<char>, std::__ndk1::allocator<char> > const&)
42cc a 2087 6
42d6 6c 2088 6
4342 42 2089 6
4384 8 2092 6
FUNC 438c 2ba 0 std::__ndk1::__tree<std::__ndk1::__value_type<std::__ndk1::basic_string<char, std::__ndk1::char_traits<char>, std::__ndk1::allocator<char> >, std::__ndk1::shared_ptr<geode::Hook> >, std::__ndk1::__map_value_compare<std::__ndk1::basic_string<char, std::__ndk1::char_traits<char>, std::__ndk1::allocator<char> >, std::__ndk1::__value_type<std::__ndk1::basic_string<char, std::__ndk1::char_traits<char>, std::__ndk1::allocator<char> >, std::__ndk1::shared_ptr<geode::Hook> >, std::__ndk1::less<std::__ndk1::basic_string<char, std::__ndk1::char_traits<char>, std::__ndk1::allocator<char> > >, true>, std::__ndk1::allocator<std::__ndk1::__value_type<std::__ndk1::basic_string<char, std::__ndk1::char_traits<char>, std::__ndk1::allocator<char> >, std::__ndk1::shared_ptr<geode::Hook> > > >::erase(std::__ndk1::__tree_const_iterator<std::__ndk1::__value_type<std::__ndk1::basic_string<char, std::__ndk1::char_traits<char>, std::__ndk1::allocator<char> >, std::__ndk1::shared_ptr<geode::Hook> >, std::__ndk1::__tree_node<std::__ndk1::__value_type<std::__ndk1::basic_string<char, std::__ndk1::char_traits<char>, std::__ndk1::allocator<char> >, std::__ndk1::shared_ptr<geode::Hook> >, void*>*, int>)
438c 8 2046 6
4394 b4 2048 6
4448 3e 2050 6
4486 e 2051 6
4494 1b2 2048 6
FUNC 4646 5a 0 std::__ndk1::__tree<std::__ndk1::__value_type<std::__ndk1::basic_string<char, std::__ndk1::char_traits<char>, std::__ndk1::allocator<char> >, std::__ndk1::shared_ptr<geode::Hook> >, std::__ndk1::__map_value_compare<std::__ndk1::basic_string<char, std::__ndk1::char_traits<char>, std::__ndk1::allocator<char> >, std::__ndk1::__value_type<std::__ndk1::basic_string<char, std::__ndk1::char_traits<char>, std::__ndk1::allocator<char> >, std::__ndk1::shared_ptr<geode::Hook> >, std::__ndk1::less<std::__ndk1::basic_string<char, std::__ndk1::char_traits<char>, std::__ndk1::allocator<char> > >, true>, std::__ndk1::allocator<std::__ndk1::__value_type<std::__ndk1::basic_string<char, std::__ndk1::char_traits<char>, std::__ndk1::allocator<char> >, std::__ndk1::shared_ptr<geode::Hook> > > >::destroy(std::__ndk1::__tree_node<std::__ndk1::__value_type<std::__ndk1::basic_string<char, std::__ndk1::char_traits<char>, std::__ndk1::allocator<char> >, std::__ndk1::shared_ptr<geode::Hook> >, void*>*)
4646 2 1544 6
4648 a 1551 6
4652 6 1545 6
4658 6 1546 6
465e 38 1548 6
4696 a 1549 6
FUNC 46a0 18 0 geode::modifier::AsStaticFunction_scene<AltMenuLayer, cocos2d::CCScene* (*)(bool)>::Impl<cocos2d::CCScene* (*)(bool)>::function(bool)
46a0 18 10 8
FUNC 46b8 7c 0 geode::addresser::getVirtual<bool (MenuLayer::*)()>(bool (MenuLayer::*)())
46b8 4 169 0
46bc 78 170 0
FUNC 4734 4c0 0 geode::modifier::AsStaticFunction_init<AltMenuLayer, bool (AltMenuLayer::*)()>::Impl<bool (AltMenuLayer::*)()>::function(AltMenuLayer*)
4734 4c0 185 8
FUNC 4bf4 3a 0 std::__ndk1::shared_ptr<tulip::hook::CallingConvention>::~shared_ptr[abi:ne180000]()
4bf4 4 643 14
4bf8 4 644 14
4bfc 1a 645 14
4c16 4 646 14
4c1a 12 645 14
4c2c 2 646 14
FUNC 4c2e 46 0 tulip::hook::HandlerMetadata::~HandlerMetadata()
4c2e 46 12 19
FUNC 4c74 ba 0 std::__ndk1::__tree<std::__ndk1::__value_type<std::__ndk1::basic_string<char, std::__ndk1::char_traits<char>, std::__ndk1::allocator<char> >, std::__ndk1::shared_ptr<geode::Hook> >, std::__ndk1::__map_value_compare<std::__ndk1::basic_string<char, std::__ndk1::char_traits<char>, std::__ndk1::allocator<char> >, std::__ndk1::__value_type<std::__ndk1::basic_string<char, std::__ndk1::char_traits<char>, std::__ndk1::allocator<char> >, std::__ndk1::shared_ptr<geode::Hook> >, std::__ndk1::less<std::__ndk1::basic_string<char, std::__ndk1::char_traits<char>, std::__ndk1::allocator<char> > >, true>, std::__ndk1::allocator<std::__ndk1::__value_type<std::__ndk1::basic_string<char, std::__ndk1::char_traits<char>, std::__ndk1::allocator<char> >, std::__ndk1::shared_ptr<geode::Hook> > > >::__find_equal<std::__ndk1::basic_string<char, std::__ndk1::char_traits<char>, std::__ndk1::allocator<char> > >(std::__ndk1::__tree_end_node<std::__ndk1::__tree_node_base<void*>*>*&, std::__ndk1::basic_string<char, std::__ndk1::char_traits<char>, std::__ndk1::allocator<char> > const&)
4c74 e 1682 6
4c82 4 1683 6
4c86 1a 1685 6
4ca0 8 1688 6
4ca8 44 1687 6
4cec 26 1695 6
4d12 12 1696 6
4d24 a 1711 6
FUNC 4d2e 14a 0 std::__ndk1::__tree_balance_after_insert[abi:ne180000]<std::__ndk1::__tree_node_base<void*>*>(std::__ndk1::__tree_node_base<void*>*, std::__ndk1::__tree_node_base<void*>*)
4d2e c 285 6
4d3a 28 330 6
4d62 a 286 6
4d6c c 288 6
4d78 c 310 6
4d84 4 289 6
4d88 a 290 6
4d92 6 297 6
4d98 28 299 6
4dc0 4 303 6
4dc4 2 299 6
4dc6 6 305 6
4dcc a 317 6
4dd6 22 319 6
4df8 4 323 6
4dfc 2 319 6
4dfe 6 325 6
4e04 4 322 6
4e08 4 324 6
4e0c 2e 325 6
4e3a 6 330 6
4e40 4 302 6
4e44 2 305 6
4e46 4 304 6
4e4a 2c 305 6
4e76 2 330 6
FUNC 4e78 6c 0 MenuLayer::MenuLayer(geode::ZeroConstructorType)
4e78 6c 17 20
FUNC 4ee4 f4 0 geode::Mod::getSettingValue<bool>(std::__ndk1::basic_string_view<char, std::__ndk1::char_traits<char> >) const
4ee4 1c 228 21
4f00 5c 230 21
4f5c a 231 21
4f66 58 230 21
4fbe 1a 234 21
FUNC 4fd8 4 0 AltMenuLayer::onRestart(cocos2d::CCObject*)
4fd8 4 120 10
FUNC 4fdc 4 0 AltMenuLayer::onReload(cocos2d::CCObject*)
4fdc 4 124 10
FUNC 4fe0 88 0 geode::cast::traverseTypeinfoFor(void*, geode::cast::ClassTypeinfoType const*, char const*)
4fe0 a 57 1
4fea 4 59 1
4fee e 60 1
4ffc 2 64 1
4ffe 2 65 1
5000 6 64 1
5006 8 65 1
500e 2 67 1
5010 2 60 1
5012 2 59 1
5014 a 60 1
501e 6 80 1
5024 e 69 1
5032 6 80 1
5038 a 71 1
5042 6 74 1
5048 4 73 1
504c 8 74 1
5054 6 71 1
505a e 80 1
FUNC 5070 370 0 geode::modifier::ModifyDerive<hook129<(anonymous namespace)::hook129Parent>, cocos2d::CCKeyboardDispatcher>::apply()
5070 12 156 9
5082 28c 166 9
530e 16 172 9
5324 bc 166 9
FUNC 53e0 2 0 geode::modifier::ModifyBase<geode::modifier::ModifyDerive<hook129<(anonymous namespace)::hook129Parent>, cocos2d::CCKeyboardDispatcher> >::apply()
53e0 2 316 11
FUNC 53e4 98 0 geode::modifier::AsStaticFunction_dispatchKeyboardMSG<hook129<(anonymous namespace)::hook129Parent>, bool (hook129<(anonymous namespace)::hook129Parent>::*)(cocos2d::enumKeyCodes, bool, bool)>::Impl<bool (hook129<(anonymous namespace)::hook129Parent>::*)(cocos2d::enumKeyCodes, bool, bool)>::function(hook129<(anonymous namespace)::hook129Parent>*, cocos2d::enumKeyCodes, bool, bool)
53e4 98 50 9
FUNC 547c 20 0 geodeImplicitEntry
547c 4 16 22
5480 8 18 22
5488 4 19 22
548c a 18 22
5496 6 19 22
PUBLIC 549d 0 __ThumbV7PILongThunk___cxa_atexit
PUBLIC 54a9 0 __ThumbV7PILongThunk__ZdlPv
PUBLIC 54b5 0 __ThumbV7PILongThunk__ZN5geode5utils4game7restartEv
PUBLIC 54c1 0 __ThumbV7PILongThunk__ZN9MenuLayer5sceneEb
PUBLIC 54cd 0 __ThumbV7PILongThunk__ZN5geode9addresser9Addresser19followThunkFunctionEi
PUBLIC 54d9 0 __ThumbV7PILongThunk__ZN7cocos2d20CCKeyboardDispatcher19dispatchKeyboardMSGENS_12enumKeyCodesEbb
PUBLIC 54f0 0 <.plt ELF section in weebify.restartbtn.android32.so>
STACK CFI INIT 2a04 188 .cfa: sp 0 +
STACK CFI 2a06 .cfa: sp 20 + .ra: .cfa -4 + ^ r7: .cfa -8 + ^ r6: .cfa -12 + ^ r5: .cfa -16 + ^ r4: .cfa -20 + ^
STACK CFI 2a08 .cfa: r7 8 +
STACK CFI 2a0c r11: .cfa -24 + ^
STACK CFI INIT 2b8c 190 .cfa: sp 0 +
STACK CFI 2b8e .cfa: sp 20 + .ra: .cfa -4 + ^ r7: .cfa -8 + ^ r6: .cfa -12 + ^ r5: .cfa -16 + ^ r4: .cfa -20 + ^
STACK CFI 2b90 .cfa: r7 8 +
STACK CFI 2b94 r8: .cfa -24 + ^
STACK CFI INIT 2d1c 2f4 .cfa: sp 0 +
STACK CFI 2d1e .cfa: sp 20 + .ra: .cfa -4 + ^ r7: .cfa -8 + ^ r6: .cfa -12 + ^ r5: .cfa -16 + ^ r4: .cfa -20 + ^
STACK CFI 2d20 .cfa: r7 8 +
STACK CFI 2d24 r11: .cfa -24 + ^ r10: .cfa -28 + ^ r9: .cfa -32 + ^ r8: .cfa -36 + ^
STACK CFI INIT 3010 1c .cfa: sp 0 +
STACK CFI 3012 .cfa: sp 16 + .ra: .cfa -4 + ^ r7: .cfa -8 + ^ r6: .cfa -12 + ^ r4: .cfa -16 + ^
STACK CFI 3014 .cfa: r7 8 +
STACK CFI INIT 302c 2c4 .cfa: sp 0 +
STACK CFI 302e .cfa: sp 20 + .ra: .cfa -4 + ^ r7: .cfa -8 + ^ r6: .cfa -12 + ^ r5: .cfa -16 + ^ r4: .cfa -20 + ^
STACK CFI 3030 .cfa: r7 8 +
STACK CFI 3034 r11: .cfa -24 + ^ r10: .cfa -28 + ^ r9: .cfa -32 + ^ r8: .cfa -36 + ^
STACK CFI INIT 32f0 1c .cfa: sp 0 +
STACK CFI 32f2 .cfa: sp 16 + .ra: .cfa -4 + ^ r7: .cfa -8 + ^ r6: .cfa -12 + ^ r4: .cfa -16 + ^
STACK CFI 32f4 .cfa: r7 8 +
STACK CFI INIT 330c c .cfa: sp 0 +
STACK CFI 330e .cfa: sp 8 + .ra: .cfa -4 + ^ r7: .cfa -8 + ^
STACK CFI 3310 .cfa: r7 8 +
STACK CFI INIT 3318 10 .cfa: sp 0 +
STACK CFI 331a .cfa: sp 8 + .ra: .cfa -4 + ^ r7: .cfa -8 + ^
STACK CFI 331c .cfa: r7 8 +
STACK CFI INIT 3328 38 .cfa: sp 0 +
STACK CFI 332a .cfa: sp 16 + .ra: .cfa -4 + ^ r7: .cfa -8 + ^ r5: .cfa -12 + ^ r4: .cfa -16 + ^
STACK CFI 332c .cfa: r7 8 +
STACK CFI INIT 3360 18 .cfa: sp 0 +
STACK CFI 3362 .cfa: sp 8 + .ra: .cfa -4 + ^ r7: .cfa -8 + ^
STACK CFI 3364 .cfa: r7 8 +
STACK CFI INIT 3378 28 .cfa: sp 0 +
STACK CFI 337a .cfa: sp 8 + .ra: .cfa -4 + ^ r7: .cfa -8 + ^
STACK CFI 337c .cfa: r7 8 +
STACK CFI INIT 33a0 4 .cfa: sp 0 +
STACK CFI INIT 33a4 18 .cfa: sp 0 +
STACK CFI 33a6 .cfa: sp 8 + .ra: .cfa -4 + ^ r7: .cfa -8 + ^
STACK CFI 33a8 .cfa: r7 8 +
STACK CFI INIT 33bc 10 .cfa: sp 0 +
STACK CFI INIT 33cc 2 .cfa: sp 0 +
STACK CFI INIT 33ce 4 .cfa: sp 0 +
STACK CFI INIT 33d2 c .cfa: sp 0 +
STACK CFI INIT 33e0 18 .cfa: sp 0 +
STACK CFI INIT 33f8 c .cfa: sp 0 +
STACK CFI INIT 3404 2 .cfa: sp 0 +
STACK CFI INIT 3406 4 .cfa: sp 0 +
STACK CFI INIT 340c 18 .cfa: sp 0 +
STACK CFI 340e .cfa: sp 8 + .ra: .cfa -4 + ^ r7: .cfa -8 + ^
STACK CFI 3410 .cfa: r7 8 +
STACK CFI INIT 3424 10 .cfa: sp 0 +
STACK CFI INIT 3434 2 .cfa: sp 0 +
STACK CFI INIT 3436 4 .cfa: sp 0 +
STACK CFI INIT 343a 26 .cfa: sp 0 +
STACK CFI 3444 .cfa: sp 8 + .ra: .cfa -4 + ^ r7: .cfa -8 + ^
STACK CFI 3446 .cfa: r7 8 +
STACK CFI INIT 3460 18 .cfa: sp 0 +
STACK CFI INIT 3478 c .cfa: sp 0 +
STACK CFI INIT 3484 524 .cfa: sp 0 +
STACK CFI 3486 .cfa: sp 20 + .ra: .cfa -4 + ^ r7: .cfa -8 + ^ r6: .cfa -12 + ^ r5: .cfa -16 + ^ r4: .cfa -20 + ^
STACK CFI 3488 .cfa: r7 8 +
STACK CFI 348c r11: .cfa -24 + ^ r9: .cfa -28 + ^ r8: .cfa -32 + ^
STACK CFI INIT 39a8 3a .cfa: sp 0 +
STACK CFI 39aa .cfa: sp 16 + .ra: .cfa -4 + ^ r7: .cfa -8 + ^ r5: .cfa -12 + ^ r4: .cfa -16 + ^
STACK CFI 39ac .cfa: r7 8 +
STACK CFI INIT 39e4 60 .cfa: sp 0 +
STACK CFI 39e6 .cfa: sp 16 + .ra: .cfa -4 + ^ r7: .cfa -8 + ^ r6: .cfa -12 + ^ r4: .cfa -16 + ^
STACK CFI 39e8 .cfa: r7 8 +
STACK CFI INIT 3a44 3e .cfa: sp 0 +
STACK CFI 3a46 .cfa: sp 20 + .ra: .cfa -4 + ^ r7: .cfa -8 + ^ r6: .cfa -12 + ^ r5: .cfa -16 + ^ r4: .cfa -20 + ^
STACK CFI 3a48 .cfa: r7 8 +
STACK CFI 3a4c r11: .cfa -24 + ^
STACK CFI INIT 3a82 2 .cfa: sp 0 +
STACK CFI INIT 3a84 f8 .cfa: sp 0 +
STACK CFI 3a86 .cfa: sp 20 + .ra: .cfa -4 + ^ r7: .cfa -8 + ^ r6: .cfa -12 + ^ r5: .cfa -16 + ^ r4: .cfa -20 + ^
STACK CFI 3a88 .cfa: r7 8 +
STACK CFI 3a8c r8: .cfa -24 + ^
STACK CFI INIT 3b7c 34 .cfa: sp 0 +
STACK CFI 3b7e .cfa: sp 8 + .ra: .cfa -4 + ^ r7: .cfa -8 + ^
STACK CFI 3b80 .cfa: r7 8 +
STACK CFI INIT 3bb0 d8 .cfa: sp 0 +
STACK CFI 3bb2 .cfa: sp 20 + .ra: .cfa -4 + ^ r7: .cfa -8 + ^ r6: .cfa -12 + ^ r5: .cfa -16 + ^ r4: .cfa -20 + ^
STACK CFI 3bb4 .cfa: r7 8 +
STACK CFI 3bb8 r11: .cfa -24 + ^ r10: .cfa -28 + ^ r9: .cfa -32 + ^ r8: .cfa -36 + ^
STACK CFI INIT 3c88 68 .cfa: sp 0 +
STACK CFI 3c8a .cfa: sp 20 + .ra: .cfa -4 + ^ r7: .cfa -8 + ^ r6: .cfa -12 + ^ r5: .cfa -16 + ^ r4: .cfa -20 + ^
STACK CFI 3c8c .cfa: r7 8 +
STACK CFI 3c90 r11: .cfa -24 + ^
STACK CFI INIT 3cf0 10 .cfa: sp 0 +
STACK CFI 3cf2 .cfa: sp 8 + .ra: .cfa -4 + ^ r7: .cfa -8 + ^
STACK CFI 3cf4 .cfa: r7 8 +
STACK CFI INIT 3d00 108 .cfa: sp 0 +
STACK CFI 3d02 .cfa: sp 20 + .ra: .cfa -4 + ^ r7: .cfa -8 + ^ r6: .cfa -12 + ^ r5: .cfa -16 + ^ r4: .cfa -20 + ^
STACK CFI 3d04 .cfa: r7 8 +
STACK CFI 3d08 r11: .cfa -24 + ^ r10: .cfa -28 + ^ r9: .cfa -32 + ^ r8: .cfa -36 + ^
STACK CFI INIT 3e08 110 .cfa: sp 0 +
STACK CFI 3e0a .cfa: sp 20 + .ra: .cfa -4 + ^ r7: .cfa -8 + ^ r6: .cfa -12 + ^ r5: .cfa -16 + ^ r4: .cfa -20 + ^
STACK CFI 3e0c .cfa: r7 8 +
STACK CFI 3e10 r11: .cfa -24 + ^ r10: .cfa -28 + ^ r9: .cfa -32 + ^ r8: .cfa -36 + ^
STACK CFI INIT 3f18 ce .cfa: sp 0 +
STACK CFI 3f1a .cfa: sp 20 + .ra: .cfa -4 + ^ r7: .cfa -8 + ^ r6: .cfa -12 + ^ r5: .cfa -16 + ^ r4: .cfa -20 + ^
STACK CFI 3f1c .cfa: r7 8 +
STACK CFI 3f20 r10: .cfa -24 + ^ r9: .cfa -28 + ^ r8: .cfa -32 + ^
STACK CFI INIT 3fe6 e0 .cfa: sp 0 +
STACK CFI 3fe8 .cfa: sp 20 + .ra: .cfa -4 + ^ r7: .cfa -8 + ^ r6: .cfa -12 + ^ r5: .cfa -16 + ^ r4: .cfa -20 + ^
STACK CFI 3fea .cfa: r7 8 +
STACK CFI 3fee r11: .cfa -24 + ^ r9: .cfa -28 + ^ r8: .cfa -32 + ^
STACK CFI INIT 40c8 160 .cfa: sp 0 +
STACK CFI 40ca .cfa: sp 20 + .ra: .cfa -4 + ^ r7: .cfa -8 + ^ r6: .cfa -12 + ^ r5: .cfa -16 + ^ r4: .cfa -20 + ^
STACK CFI 40cc .cfa: r7 8 +
STACK CFI 40d0 r10: .cfa -24 + ^ r9: .cfa -28 + ^ r8: .cfa -32 + ^
STACK CFI INIT 4228 46 .cfa: sp 0 +
STACK CFI 422a .cfa: sp 20 + .ra: .cfa -4 + ^ r7: .cfa -8 + ^ r6: .cfa -12 + ^ r5: .cfa -16 + ^ r4: .cfa -20 + ^
STACK CFI 422c .cfa: r7 8 +
STACK CFI 4230 r8: .cfa -24 + ^
STACK CFI INIT 426e 3c .cfa: sp 0 +
STACK CFI 4270 .cfa: sp 16 + .ra: .cfa -4 + ^ r7: .cfa -8 + ^ r5: .cfa -12 + ^ r4: .cfa -16 + ^
STACK CFI 4272 .cfa: r7 8 +
STACK CFI INIT 42ac 10 .cfa: sp 0 +
STACK CFI 42ae .cfa: sp 8 + .ra: .cfa -4 + ^ r7: .cfa -8 + ^
STACK CFI 42b0 .cfa: r7 8 +
STACK CFI INIT 42bc 2 .cfa: sp 0 +
STACK CFI INIT 42be e .cfa: sp 0 +
STACK CFI INIT 42cc c0 .cfa: sp 0 +
STACK CFI 42ce .cfa: sp 20 + .ra: .cfa -4 + ^ r7: .cfa -8 + ^ r6: .cfa -12 + ^ r5: .cfa -16 + ^ r4: .cfa -20 + ^
STACK CFI 42d0 .cfa: r7 8 +
STACK CFI 42d4 r10: .cfa -24 + ^ r9: .cfa -28 + ^ r8: .cfa -32 + ^
STACK CFI INIT 438c 2ba .cfa: sp 0 +
STACK CFI 438e .cfa: sp 20 + .ra: .cfa -4 + ^ r7: .cfa -8 + ^ r6: .cfa -12 + ^ r5: .cfa -16 + ^ r4: .cfa -20 + ^
STACK CFI 4390 .cfa: r7 8 +
STACK CFI 4394 r8: .cfa -24 + ^
STACK CFI INIT 4646 5a .cfa: sp 0 +
STACK CFI 464e .cfa: sp 16 + .ra: .cfa -4 + ^ r7: .cfa -8 + ^ r5: .cfa -12 + ^ r4: .cfa -16 + ^
STACK CFI 4650 .cfa: r7 8 +
STACK CFI INIT 46a0 18 .cfa: sp 0 +
STACK CFI INIT 46b8 7c .cfa: sp 0 +
STACK CFI 46ba .cfa: sp 16 + .ra: .cfa -4 + ^ r7: .cfa -8 + ^ r6: .cfa -12 + ^ r4: .cfa -16 + ^
STACK CFI 46bc .cfa: r7 8 +
STACK CFI INIT 4734 4c0 .cfa: sp 0 +
STACK CFI 4736 .cfa: sp 20 + .ra: .cfa -4 + ^ r7: .cfa -8 + ^ r6: .cfa -12 + ^ r5: .cfa -16 + ^ r4: .cfa -20 + ^
STACK CFI 4738 .cfa: r7 8 +
STACK CFI 473c r11: .cfa -24 + ^ r10: .cfa -28 + ^ r9: .cfa -32 + ^ r8: .cfa -36 + ^
STACK CFI INIT 4bf4 3a .cfa: sp 0 +
STACK CFI 4bf6 .cfa: sp 16 + .ra: .cfa -4 + ^ r7: .cfa -8 + ^ r5: .cfa -12 + ^ r4: .cfa -16 + ^
STACK CFI 4bf8 .cfa: r7 8 +
STACK CFI INIT 4c2e 46 .cfa: sp 0 +
STACK CFI 4c30 .cfa: sp 16 + .ra: .cfa -4 + ^ r7: .cfa -8 + ^ r5: .cfa -12 + ^ r4: .cfa -16 + ^
STACK CFI 4c32 .cfa: r7 8 +
STACK CFI INIT 4c74 ba .cfa: sp 0 +
STACK CFI 4c76 .cfa: sp 20 + .ra: .cfa -4 + ^ r7: .cfa -8 + ^ r6: .cfa -12 + ^ r5: .cfa -16 + ^ r4: .cfa -20 + ^
STACK CFI 4c78 .cfa: r7 8 +
STACK CFI 4c7c r11: .cfa -24 + ^ r10: .cfa -28 + ^ r9: .cfa -32 + ^ r8: .cfa -36 + ^
STACK CFI INIT 4d2e 14a .cfa: sp 0 +
STACK CFI 4d40 .cfa: sp 16 + .ra: .cfa -4 + ^ r7: .cfa -8 + ^ r6: .cfa -12 + ^ r4: .cfa -16 + ^
STACK CFI 4d42 .cfa: r7 8 +
STACK CFI INIT 4e78 6c .cfa: sp 0 +
STACK CFI 4e7a .cfa: sp 16 + .ra: .cfa -4 + ^ r7: .cfa -8 + ^ r6: .cfa -12 + ^ r4: .cfa -16 + ^
STACK CFI 4e7c .cfa: r7 8 +
STACK CFI INIT 4ee4 f4 .cfa: sp 0 +
STACK CFI 4ee6 .cfa: sp 20 + .ra: .cfa -4 + ^ r7: .cfa -8 + ^ r6: .cfa -12 + ^ r5: .cfa -16 + ^ r4: .cfa -20 + ^
STACK CFI 4ee8 .cfa: r7 8 +
STACK CFI 4eec r11: .cfa -24 + ^
STACK CFI INIT 4fd8 4 .cfa: sp 0 +
STACK CFI INIT 4fdc 4 .cfa: sp 0 +
STACK CFI INIT 4fe0 88 .cfa: sp 0 +
STACK CFI 4fe2 .cfa: sp 20 + .ra: .cfa -4 + ^ r7: .cfa -8 + ^ r6: .cfa -12 + ^ r5: .cfa -16 + ^ r4: .cfa -20 + ^
STACK CFI 4fe4 .cfa: r7 8 +
STACK CFI 4fe8 r11: .cfa -24 + ^ r9: .cfa -28 + ^ r8: .cfa -32 + ^
STACK CFI INIT 5070 370 .cfa: sp 0 +
STACK CFI 5072 .cfa: sp 20 + .ra: .cfa -4 + ^ r7: .cfa -8 + ^ r6: .cfa -12 + ^ r5: .cfa -16 + ^ r4: .cfa -20 + ^
STACK CFI 5074 .cfa: r7 8 +
STACK CFI 5078 r11: .cfa -24 + ^ r10: .cfa -28 + ^ r9: .cfa -32 + ^ r8: .cfa -36 + ^
STACK CFI INIT 53e0 2 .cfa: sp 0 +
STACK CFI INIT 53e4 98 .cfa: sp 0 +
STACK CFI 53e6 .cfa: sp 20 + .ra: .cfa -4 + ^ r7: .cfa -8 + ^ r6: .cfa -12 + ^ r5: .cfa -16 + ^ r4: .cfa -20 + ^
STACK CFI 53e8 .cfa: r7 8 +
STACK CFI 53ec r10: .cfa -24 + ^ r9: .cfa -28 + ^ r8: .cfa -32 + ^
STACK CFI INIT 0 20 .cfa: sp 0 +
STACK CFI 2 .cfa: sp 16 + .ra: .cfa -4 + ^ r7: .cfa -8 + ^ r6: .cfa -12 + ^ r4: .cfa -16 + ^
STACK CFI 4 .cfa: r7 8 +
STACK CFI INIT 547c 20 .cfa: sp 0 +
STACK CFI 547e .cfa: sp 16 + .ra: .cfa -4 + ^ r7: .cfa -8 + ^ r6: .cfa -12 + ^ r4: .cfa -16 + ^
STACK CFI 5480 .cfa: r7 8 +
STACK CFI INIT 0 18 .cfa: sp 0 +
STACK CFI 2 .cfa: sp 8 + .ra: .cfa -4 + ^ r7: .cfa -8 + ^
STACK CFI 4 .cfa: r7 8 +
STACK CFI INIT 0 e .cfa: sp 0 +
STACK CFI 2 .cfa: sp 8 + .ra: .cfa -4 + ^ r7: .cfa -8 + ^
STACK CFI 4 .cfa: r7 8 +
STACK CFI INIT 0 4 .cfa: sp 0 +
STACK CFI INIT 0 18 .cfa: sp 0 +
STACK CFI 2 .cfa: sp 8 + .ra: .cfa -4 + ^ r7: .cfa -8 + ^
STACK CFI 4 .cfa: r7 8 +
