MODULE Linux arm 8DD2B9EE92C68E88E91983E08AB436250 camila314.custombg.android32.so
INFO CODE_ID EEB9D28DC692888EE91983E08AB43625DFAE04B2
INFO GENERATOR mozilla/dump_syms 2.3.4
FILE 0 /home/runner/work/CustomBackground/CustomBackground/geode-sdk-clone/loader/include/Geode/utils/addresser.hpp
FILE 1 /home/runner/work/CustomBackground/CustomBackground/geode-sdk-clone/loader/include/Geode/platform/ItaniumCast.hpp
FILE 2 /usr/local/lib/android/sdk/ndk/27.2.12479018/toolchains/llvm/prebuilt/linux-x86_64/sysroot/usr/include/c++/v1/variant
FILE 3 /usr/local/lib/android/sdk/ndk/27.2.12479018/toolchains/llvm/prebuilt/linux-x86_64/sysroot/usr/include/c++/v1/stdexcept
FILE 4 /usr/local/lib/android/sdk/ndk/27.2.12479018/toolchains/llvm/prebuilt/linux-x86_64/sysroot/usr/include/c++/v1/__tree
FILE 5 /usr/local/lib/android/sdk/ndk/27.2.12479018/toolchains/llvm/prebuilt/linux-x86_64/sysroot/usr/include/c++/v1/new
FILE 6 /home/runner/work/CustomBackground/CustomBackground/build/bindings/bindings/Geode/modify/CCScale9Sprite.hpp
FILE 7 /home/runner/work/CustomBackground/CustomBackground/build/bindings/bindings/Geode/modify/EditLevelLayer.hpp
FILE 8 /home/runner/work/CustomBackground/CustomBackground/build/bindings/bindings/Geode/modify/LevelSearchLayer.hpp
FILE 9 /home/runner/work/CustomBackground/CustomBackground/build/bindings/bindings/Geode/modify/CCSprite.hpp
FILE 10 /home/runner/work/CustomBackground/CustomBackground/geode-sdk-clone/loader/include/Geode/modify/Modify.hpp
FILE 11 /usr/local/lib/android/sdk/ndk/27.2.12479018/toolchains/llvm/prebuilt/linux-x86_64/sysroot/usr/include/c++/v1/__memory/shared_ptr.h
FILE 12 /home/runner/work/CustomBackground/CustomBackground/cpm-cache/result/a5380f9e23f94b98200baa461086514f602899cb/include/Geode/Result.hpp
FILE 13 /usr/local/lib/android/sdk/ndk/27.2.12479018/toolchains/llvm/prebuilt/linux-x86_64/sysroot/usr/include/c++/v1/vector
FILE 14 /usr/local/lib/android/sdk/ndk/27.2.12479018/toolchains/llvm/prebuilt/linux-x86_64/sysroot/usr/include/c++/v1/sstream
FILE 15 /usr/local/lib/android/sdk/ndk/27.2.12479018/toolchains/llvm/prebuilt/linux-x86_64/sysroot/usr/include/c++/v1/string
FILE 16 /usr/local/lib/android/sdk/ndk/27.2.12479018/toolchains/llvm/prebuilt/linux-x86_64/sysroot/usr/include/c++/v1/__split_buffer
FILE 17 /home/runner/work/CustomBackground/CustomBackground/geode-sdk-clone/loader/include/Geode/cocos/extensions/GUI/CCControlExtension/CCScale9Sprite.h
FILE 18 /home/runner/work/CustomBackground/CustomBackground/cpm-cache/tuliphook/8d0d2aa407f52cdee9f79187fca5c9affddf8dd5/include/tulip/HandlerData.hpp
FILE 19 /home/runner/work/CustomBackground/CustomBackground/geode-sdk-clone/loader/include/Geode/modify/Field.hpp
FILE 20 /usr/local/lib/android/sdk/ndk/27.2.12479018/toolchains/llvm/prebuilt/linux-x86_64/sysroot/usr/include/c++/v1/__functional/function.h
FILE 21 /home/runner/work/CustomBackground/CustomBackground/geode-sdk-clone/loader/include/Geode/loader/Mod.hpp
FILE 22 /home/runner/work/CustomBackground/CustomBackground/geode-sdk-clone/entry.cpp
PUBLIC 30f0 0 __on_dlclose
PUBLIC 3100 0 __emutls_unregister_key
PUBLIC 3104 0 __on_dlclose_late
PUBLIC 3108 0 __atexit_handler_wrapper
PUBLIC 3114 0 atexit
PUBLIC 3134 0 pthread_atfork
FUNC 3144 2c4 0 __cxx_global_var_init
314e 2ba 446 10
FUNC 3408 2c4 0 __cxx_global_var_init.1
3412 2ba 446 10
FUNC 36cc 2c4 0 __cxx_global_var_init.2
36d6 2ba 446 10
FUNC 3990 2c4 0 __cxx_global_var_init.3
399a 2ba 446 10
FUNC 3c54 1c 0 geode::modifier::ModifyBase<geode::modifier::ModifyDerive<hook10<(anonymous namespace)::hook10Parent>, cocos2d::extension::CCScale9Sprite> >::~ModifyBase()
3c54 1c 200 10
FUNC 3c70 1c 0 geode::modifier::ModifyBase<geode::modifier::ModifyDerive<hook66<(anonymous namespace)::hook66Parent>, EditLevelLayer> >::~ModifyBase()
3c70 1c 200 10
FUNC 3c8c 1c 0 geode::modifier::ModifyBase<geode::modifier::ModifyDerive<hook111<(anonymous namespace)::hook111Parent>, LevelSearchLayer> >::~ModifyBase()
3c8c 1c 200 10
FUNC 3ca8 1c 0 geode::modifier::ModifyBase<geode::modifier::ModifyDerive<hook140<(anonymous namespace)::hook140Parent>, cocos2d::CCSprite> >::~ModifyBase()
3ca8 1c 200 10
FUNC 3cc4 2e4 0 geode::modifier::ModifyDerive<hook10<(anonymous namespace)::hook10Parent>, cocos2d::extension::CCScale9Sprite>::apply()
3cc4 10 326 6
3cd4 234 337 6
3f08 12 370 6
3f1a 8e 337 6
FUNC 3fa8 3a 0 std::__ndk1::shared_ptr<geode::Hook>::~shared_ptr[abi:ne180000]()
3fa8 4 643 11
3fac 4 644 11
3fb0 1a 645 11
3fca 4 646 11
3fce 12 645 11
3fe0 2 646 11
FUNC 3fe4 60 0 geode::impl::ResultData<geode::Hook*, std::__ndk1::basic_string<char, std::__ndk1::char_traits<char>, std::__ndk1::allocator<char> > >::~ResultData()
3fe4 60 422 12
FUNC 4044 3e 0 std::__ndk1::vector<std::__ndk1::basic_string<char, std::__ndk1::char_traits<char>, std::__ndk1::allocator<char> >, std::__ndk1::allocator<std::__ndk1::basic_string<char, std::__ndk1::char_traits<char>, std::__ndk1::allocator<char> > > >::~vector[abi:ne180000]()
4044 3e 501 13
FUNC 4082 2 0 geode::modifier::ModifyBase<geode::modifier::ModifyDerive<hook10<(anonymous namespace)::hook10Parent>, cocos2d::extension::CCScale9Sprite> >::apply()
4082 2 416 10
PUBLIC 4085 0 __clang_call_terminate
FUNC 4090 4cc 0 _ZN5geode15UnwrapExceptionC2IRPNS_4HookEQsr4implE18IsStringStreamableIT_EEENS_4impl5OkTagEOS5_
4090 12 404 12
40a2 39c 403 12
443e 4c 402 12
448a 26 404 12
44b0 8a 403 12
453a 22 402 12
FUNC 455c 34 0 std::__ndk1::__throw_bad_variant_access[abi:ne180000]()
455c 4 285 2
4560 30 287 2
FUNC 4590 68 0 std::__ndk1::basic_stringstream<char, std::__ndk1::char_traits<char>, std::__ndk1::allocator<char> >::~basic_stringstream()
4590 68 1102 14
FUNC 45f8 10 0 geode::UnwrapException::~UnwrapException()
45f8 10 413 12
FUNC 4608 10 0 std::__ndk1::basic_string<char, std::__ndk1::char_traits<char>, std::__ndk1::allocator<char> >::__throw_length_error[abi:ne180000]() const
4608 4 2118 15
460c c 2119 15
FUNC 4618 38 0 std::__ndk1::__throw_length_error[abi:ne180000](char const*)
4618 6 239 3
461e 32 241 3
FUNC 4650 18 0 std::length_error::length_error[abi:ne180000](char const*)
4650 18 152 3
FUNC 4668 28 0 std::__throw_bad_array_new_length([abi:ne180000], void)
4668 4 172 5
466c 24 174 5
FUNC 4690 160 0 std::__ndk1::vector<std::__ndk1::basic_string<char, std::__ndk1::char_traits<char>, std::__ndk1::allocator<char> >, std::__ndk1::allocator<std::__ndk1::basic_string<char, std::__ndk1::char_traits<char>, std::__ndk1::allocator<char> > > >::__push_back_slow_path<std::__ndk1::basic_string<char, std::__ndk1::char_traits<char>, std::__ndk1::allocator<char> > const&>(std::__ndk1::basic_string<char, std::__ndk1::char_traits<char>, std::__ndk1::allocator<char> > const&)
4690 20 1449 13
46b0 5c 1451 13
470c 4 1453 13
4710 12 1451 13
4722 2 1453 13
4724 2 1451 13
4726 1c 1453 13
4742 8 1455 13
474a 4 1454 13
474e 30 1455 13
477e 2 1457 13
4780 12 1455 13
4792 44 1457 13
47d6 a 1451 13
47e0 10 1457 13
FUNC 47f0 44 0 std::__ndk1::basic_string<char, std::__ndk1::char_traits<char>, std::__ndk1::allocator<char> >::__init_copy_ctor_external(char const*, unsigned int)
47f0 a 2232 15
47fa 4 2237 15
47fe 8 2239 15
4806 6 2241 15
480c e 2243 15
481a 8 2247 15
4822 2 2246 15
4824 6 2250 15
482a 6 2252 15
4830 4 2242 15
FUNC 4834 3c 0 std::__ndk1::__split_buffer<std::__ndk1::basic_string<char, std::__ndk1::char_traits<char>, std::__ndk1::allocator<char> >, std::__ndk1::allocator<std::__ndk1::basic_string<char, std::__ndk1::char_traits<char>, std::__ndk1::allocator<char> > >&>::~__split_buffer()
4834 6 352 16
483a 8 353 16
4842 4 354 16
4846 6 355 16
484c 4 356 16
4850 20 353 16
FUNC 4870 10 0 std::__ndk1::vector<std::__ndk1::basic_string<char, std::__ndk1::char_traits<char>, std::__ndk1::allocator<char> >, std::__ndk1::allocator<std::__ndk1::basic_string<char, std::__ndk1::char_traits<char>, std::__ndk1::allocator<char> > > >::__throw_length_error[abi:ne180000]() const
4870 10 940 13
FUNC 4880 2 0 std::__ndk1::__variant_detail::__visitation::__base::__dispatcher<(unsigned int)0>::__dispatch[abi:ne180000]<std::__ndk1::__variant_detail::__dtor<std::__ndk1::__variant_detail::__traits<geode::Hook*, std::__ndk1::basic_string<char, std::__ndk1::char_traits<char>, std::__ndk1::allocator<char> > >, (std::__ndk1::__variant_detail::_Trait)1>::__destroy[abi:ne180000]()::{lambda(auto:1&)#1}, std::__ndk1::__variant_detail::__base<(std::__ndk1::__variant_detail::__traits<geode::Hook*, std::__ndk1::basic_string<char, std::__ndk1::char_traits<char>, std::__ndk1::allocator<char> > >)1, geode::Hook, std::__ndk1::allocator<char> >&>(std::__ndk1::__variant_detail::__dtor<std::__ndk1::__variant_detail::__traits<geode::Hook*, std::__ndk1::basic_string<char, std::__ndk1::char_traits<char>, std::__ndk1::allocator<char> > >, (std::__ndk1::__variant_detail::_Trait)1>, std::__ndk1::__variant_detail::__base<(std::__ndk1::__variant_detail::__traits<geode::Hook*, std::__ndk1::basic_string<char, std::__ndk1::char_traits<char>, std::__ndk1::allocator<char> > >)1, geode::Hook, std::__ndk1::allocator<char> >&)
4880 2 526 2
FUNC 4882 e 0 std::__ndk1::__variant_detail::__visitation::__base::__dispatcher<(unsigned int)1>::__dispatch[abi:ne180000]<std::__ndk1::__variant_detail::__dtor<std::__ndk1::__variant_detail::__traits<geode::Hook*, std::__ndk1::basic_string<char, std::__ndk1::char_traits<char>, std::__ndk1::allocator<char> > >, (std::__ndk1::__variant_detail::_Trait)1>::__destroy[abi:ne180000]()::{lambda(auto:1&)#1}, std::__ndk1::__variant_detail::__base<(std::__ndk1::__variant_detail::__traits<geode::Hook*, std::__ndk1::basic_string<char, std::__ndk1::char_traits<char>, std::__ndk1::allocator<char> > >)1, geode::Hook, std::__ndk1::allocator<char> >&>(std::__ndk1::__variant_detail::__dtor<std::__ndk1::__variant_detail::__traits<geode::Hook*, std::__ndk1::basic_string<char, std::__ndk1::char_traits<char>, std::__ndk1::allocator<char> > >, (std::__ndk1::__variant_detail::_Trait)1>, std::__ndk1::__variant_detail::__base<(std::__ndk1::__variant_detail::__traits<geode::Hook*, std::__ndk1::basic_string<char, std::__ndk1::char_traits<char>, std::__ndk1::allocator<char> > >)1, geode::Hook, std::__ndk1::allocator<char> >&)
4882 e 526 2
FUNC 4890 c0 0 std::__ndk1::__tree<std::__ndk1::__value_type<std::__ndk1::basic_string<char, std::__ndk1::char_traits<char>, std::__ndk1::allocator<char> >, std::__ndk1::shared_ptr<geode::Hook> >, std::__ndk1::__map_value_compare<std::__ndk1::basic_string<char, std::__ndk1::char_traits<char>, std::__ndk1::allocator<char> >, std::__ndk1::__value_type<std::__ndk1::basic_string<char, std::__ndk1::char_traits<char>, std::__ndk1::allocator<char> >, std::__ndk1::shared_ptr<geode::Hook> >, std::__ndk1::less<std::__ndk1::basic_string<char, std::__ndk1::char_traits<char>, std::__ndk1::allocator<char> > >, true>, std::__ndk1::allocator<std::__ndk1::__value_type<std::__ndk1::basic_string<char, std::__ndk1::char_traits<char>, std::__ndk1::allocator<char> >, std::__ndk1::shared_ptr<geode::Hook> > > >::find<std::__ndk1::basic_string<char, std::__ndk1::char_traits<char>, std::__ndk1::allocator<char> > >(std::__ndk1::basic_string<char, std::__ndk1::char_traits<char>, std::__ndk1::allocator<char> > const&)
4890 a 2087 4
489a 6c 2088 4
4906 42 2089 4
4948 8 2092 4
FUNC 4950 2ba 0 std::__ndk1::__tree<std::__ndk1::__value_type<std::__ndk1::basic_string<char, std::__ndk1::char_traits<char>, std::__ndk1::allocator<char> >, std::__ndk1::shared_ptr<geode::Hook> >, std::__ndk1::__map_value_compare<std::__ndk1::basic_string<char, std::__ndk1::char_traits<char>, std::__ndk1::allocator<char> >, std::__ndk1::__value_type<std::__ndk1::basic_string<char, std::__ndk1::char_traits<char>, std::__ndk1::allocator<char> >, std::__ndk1::shared_ptr<geode::Hook> >, std::__ndk1::less<std::__ndk1::basic_string<char, std::__ndk1::char_traits<char>, std::__ndk1::allocator<char> > >, true>, std::__ndk1::allocator<std::__ndk1::__value_type<std::__ndk1::basic_string<char, std::__ndk1::char_traits<char>, std::__ndk1::allocator<char> >, std::__ndk1::shared_ptr<geode::Hook> > > >::erase(std::__ndk1::__tree_const_iterator<std::__ndk1::__value_type<std::__ndk1::basic_string<char, std::__ndk1::char_traits<char>, std::__ndk1::allocator<char> >, std::__ndk1::shared_ptr<geode::Hook> >, std::__ndk1::__tree_node<std::__ndk1::__value_type<std::__ndk1::basic_string<char, std::__ndk1::char_traits<char>, std::__ndk1::allocator<char> >, std::__ndk1::shared_ptr<geode::Hook> >, void*>*, int>)
4950 8 2046 4
4958 b4 2048 4
4a0c 3e 2050 4
4a4a e 2051 4
4a58 1b2 2048 4
FUNC 4c0a 5a 0 std::__ndk1::__tree<std::__ndk1::__value_type<std::__ndk1::basic_string<char, std::__ndk1::char_traits<char>, std::__ndk1::allocator<char> >, std::__ndk1::shared_ptr<geode::Hook> >, std::__ndk1::__map_value_compare<std::__ndk1::basic_string<char, std::__ndk1::char_traits<char>, std::__ndk1::allocator<char> >, std::__ndk1::__value_type<std::__ndk1::basic_string<char, std::__ndk1::char_traits<char>, std::__ndk1::allocator<char> >, std::__ndk1::shared_ptr<geode::Hook> >, std::__ndk1::less<std::__ndk1::basic_string<char, std::__ndk1::char_traits<char>, std::__ndk1::allocator<char> > >, true>, std::__ndk1::allocator<std::__ndk1::__value_type<std::__ndk1::basic_string<char, std::__ndk1::char_traits<char>, std::__ndk1::allocator<char> >, std::__ndk1::shared_ptr<geode::Hook> > > >::destroy(std::__ndk1::__tree_node<std::__ndk1::__value_type<std::__ndk1::basic_string<char, std::__ndk1::char_traits<char>, std::__ndk1::allocator<char> >, std::__ndk1::shared_ptr<geode::Hook> >, void*>*)
4c0a 2 1544 4
4c0c a 1551 4
4c16 6 1545 4
4c1c 6 1546 4
4c22 38 1548 4
4c5a a 1549 4
FUNC 4c64 7c 0 geode::addresser::getVirtual<void (cocos2d::extension::CCScale9Sprite::*)()>(void (cocos2d::extension::CCScale9Sprite::*)())
4c64 4 169 0
4c68 78 170 0
FUNC 4ce0 24c 0 geode::modifier::AsStaticFunction_visit<hook10<(anonymous namespace)::hook10Parent>, void (hook10<(anonymous namespace)::hook10Parent>::*)()>::Impl<void (hook10<(anonymous namespace)::hook10Parent>::*)()>::function(hook10<(anonymous namespace)::hook10Parent>*)
4ce0 24c 30 6
FUNC 4f2c 60 0 cocos2d::extension::CCScale9Sprite::CCScale9Sprite(geode::ZeroConstructorType)
4f2c 60 57 17
FUNC 4f8c 3a 0 std::__ndk1::shared_ptr<tulip::hook::CallingConvention>::~shared_ptr[abi:ne180000]()
4f8c 4 643 11
4f90 4 644 11
4f94 1a 645 11
4fae 4 646 11
4fb2 12 645 11
4fc4 2 646 11
FUNC 4fc6 46 0 tulip::hook::HandlerMetadata::~HandlerMetadata()
4fc6 46 12 18
FUNC 500c 4d8 0 geode::modifier::FieldIntermediate<hook10<(anonymous namespace)::hook10Parent>, cocos2d::extension::CCScale9Sprite>::operator->()
500c a 101 19
5016 4ce 102 19
FUNC 54e4 2 0 geode::modifier::FieldIntermediate<hook10<(anonymous namespace)::hook10Parent>, cocos2d::extension::CCScale9Sprite>::fieldDestructor(void*)
54e4 2 71 19
FUNC 54e8 10 0 std::__ndk1::vector<void*, std::__ndk1::allocator<void*> >::__throw_length_error[abi:ne180000]() const
54e8 10 940 13
FUNC 54f8 10 0 std::__ndk1::vector<std::__ndk1::function<void (void*)>, std::__ndk1::allocator<std::__ndk1::function<void (void*)> > >::__throw_length_error[abi:ne180000]() const
54f8 10 940 13
FUNC 5508 8 0 std::__ndk1::vector<void*, std::__ndk1::allocator<void*> >::__throw_out_of_range[abi:ne180000]() const
5508 8 942 13
FUNC 5510 34 0 std::__ndk1::__throw_out_of_range[abi:ne180000](char const*)
5510 4 247 3
5514 30 249 3
FUNC 5544 20 0 std::out_of_range::out_of_range[abi:ne180000](char const*)
5544 20 163 3
FUNC 5564 8 0 std::__ndk1::vector<std::__ndk1::function<void (void*)>, std::__ndk1::allocator<std::__ndk1::function<void (void*)> > >::__throw_out_of_range[abi:ne180000]() const
5564 8 942 13
FUNC 556c 2 0 std::__ndk1::__function::__base<void (void*)>::~__base()
556c 2 235 20
FUNC 556e 4 0 std::__ndk1::__function::__func<void (*)(void*), std::__ndk1::allocator<void (*)(void*)>, void (void*)>::~__func()
556e 4 250 20
FUNC 5574 20 0 std::__ndk1::__function::__func<void (*)(void*), std::__ndk1::allocator<void (*)(void*)>, void (void*)>::__clone() const
5574 6 277 20
557a 6 282 20
5580 e 283 20
558e 6 285 20
FUNC 5594 14 0 std::__ndk1::__function::__func<void (*)(void*), std::__ndk1::allocator<void (*)(void*)>, void (void*)>::__clone(std::__ndk1::__function::__base<void (void*)>*) const
5594 e 289 20
55a2 6 290 20
FUNC 55a8 2 0 std::__ndk1::__function::__func<void (*)(void*), std::__ndk1::allocator<void (*)(void*)>, void (void*)>::destroy()
55a8 2 295 20
FUNC 55aa 4 0 std::__ndk1::__function::__func<void (*)(void*), std::__ndk1::allocator<void (*)(void*)>, void (void*)>::destroy_deallocate()
55aa 4 303 20
FUNC 55ae 8 0 std::__ndk1::__function::__func<void (*)(void*), std::__ndk1::allocator<void (*)(void*)>, void (void*)>::operator()(void*&&)
55ae 8 308 20
FUNC 55b8 18 0 std::__ndk1::__function::__func<void (*)(void*), std::__ndk1::allocator<void (*)(void*)>, void (void*)>::target(std::type_info const&) const
55b8 10 315 20
55c8 8 318 20
FUNC 55d0 c 0 std::__ndk1::__function::__func<void (*)(void*), std::__ndk1::allocator<void (*)(void*)>, void (void*)>::target_type() const
55d0 c 322 20
FUNC 55dc ba 0 std::__ndk1::__tree<std::__ndk1::__value_type<std::__ndk1::basic_string<char, std::__ndk1::char_traits<char>, std::__ndk1::allocator<char> >, std::__ndk1::shared_ptr<geode::Hook> >, std::__ndk1::__map_value_compare<std::__ndk1::basic_string<char, std::__ndk1::char_traits<char>, std::__ndk1::allocator<char> >, std::__ndk1::__value_type<std::__ndk1::basic_string<char, std::__ndk1::char_traits<char>, std::__ndk1::allocator<char> >, std::__ndk1::shared_ptr<geode::Hook> >, std::__ndk1::less<std::__ndk1::basic_string<char, std::__ndk1::char_traits<char>, std::__ndk1::allocator<char> > >, true>, std::__ndk1::allocator<std::__ndk1::__value_type<std::__ndk1::basic_string<char, std::__ndk1::char_traits<char>, std::__ndk1::allocator<char> >, std::__ndk1::shared_ptr<geode::Hook> > > >::__find_equal<std::__ndk1::basic_string<char, std::__ndk1::char_traits<char>, std::__ndk1::allocator<char> > >(std::__ndk1::__tree_end_node<std::__ndk1::__tree_node_base<void*>*>*&, std::__ndk1::basic_string<char, std::__ndk1::char_traits<char>, std::__ndk1::allocator<char> > const&)
55dc e 1682 4
55ea 4 1683 4
55ee 1a 1685 4
5608 8 1688 4
5610 44 1687 4
5654 26 1695 4
567a 12 1696 4
568c a 1711 4
FUNC 5696 14a 0 std::__ndk1::__tree_balance_after_insert[abi:ne180000]<std::__ndk1::__tree_node_base<void*>*>(std::__ndk1::__tree_node_base<void*>*, std::__ndk1::__tree_node_base<void*>*)
5696 c 285 4
56a2 28 330 4
56ca a 286 4
56d4 c 288 4
56e0 c 310 4
56ec 4 289 4
56f0 a 290 4
56fa 6 297 4
5700 28 299 4
5728 4 303 4
572c 2 299 4
572e 6 305 4
5734 a 317 4
573e 22 319 4
5760 4 323 4
5764 2 319 4
5766 6 325 4
576c 4 322 4
5770 4 324 4
5774 2e 325 4
57a2 6 330 4
57a8 4 302 4
57ac 2 305 4
57ae 4 304 4
57b2 2c 305 4
57de 2 330 4
FUNC 57e0 310 0 geode::modifier::ModifyDerive<hook66<(anonymous namespace)::hook66Parent>, EditLevelLayer>::apply()
57e0 10 386 7
57f0 23c 405 7
5a2c 12 426 7
5a3e b2 405 7
FUNC 5af0 2 0 geode::modifier::ModifyBase<geode::modifier::ModifyDerive<hook66<(anonymous namespace)::hook66Parent>, EditLevelLayer> >::apply()
5af0 2 416 10
FUNC 5af4 234 0 geode::modifier::AsStaticFunction_init<hook66<(anonymous namespace)::hook66Parent>, bool (hook66<(anonymous namespace)::hook66Parent>::*)(GJGameLevel*)>::Impl<bool (hook66<(anonymous namespace)::hook66Parent>::*)(GJGameLevel*)>::function(hook66<(anonymous namespace)::hook66Parent>*, GJGameLevel*)
5af4 234 160 9
FUNC 5d28 f4 0 geode::Mod::getSettingValue<bool>(std::__ndk1::basic_string_view<char, std::__ndk1::char_traits<char> >) const
5d28 1c 228 21
5d44 5c 230 21
5da0 a 231 21
5daa 58 230 21
5e02 1a 234 21
FUNC 5e1c f8 0 geode::Mod::getSettingValue<cocos2d::_ccColor3B>(std::__ndk1::basic_string_view<char, std::__ndk1::char_traits<char> >) const
5e1c a 228 21
5e26 6e 230 21
5e94 c 231 21
5ea0 56 230 21
5ef6 1e 234 21
FUNC 5f14 88 0 geode::cast::traverseTypeinfoFor(void*, geode::cast::ClassTypeinfoType const*, char const*)
5f14 a 57 1
5f1e 4 59 1
5f22 e 60 1
5f30 2 64 1
5f32 2 65 1
5f34 6 64 1
5f3a 8 65 1
5f42 2 67 1
5f44 2 60 1
5f46 2 59 1
5f48 a 60 1
5f52 6 80 1
5f58 e 69 1
5f66 6 80 1
5f6c a 71 1
5f76 6 74 1
5f7c 4 73 1
5f80 8 74 1
5f88 6 71 1
5f8e e 80 1
FUNC 5f9c 4 0 std::__ndk1::__function::__func<hook66<(anonymous namespace)::hook66Parent>::init(GJGameLevel*)::{lambda()#1}, std::__ndk1::allocator<hook66<(anonymous namespace)::hook66Parent>::init(GJGameLevel*)::{lambda()#1}>, void ()>::~__func()
5f9c 4 250 20
FUNC 5fa0 20 0 std::__ndk1::__function::__func<hook66<(anonymous namespace)::hook66Parent>::init(GJGameLevel*)::{lambda()#1}, std::__ndk1::allocator<hook66<(anonymous namespace)::hook66Parent>::init(GJGameLevel*)::{lambda()#1}>, void ()>::__clone() const
5fa0 6 277 20
5fa6 6 282 20
5fac e 283 20
5fba 6 285 20
FUNC 5fc0 18 0 std::__ndk1::__function::__func<hook66<(anonymous namespace)::hook66Parent>::init(GJGameLevel*)::{lambda()#1}, std::__ndk1::allocator<hook66<(anonymous namespace)::hook66Parent>::init(GJGameLevel*)::{lambda()#1}>, void ()>::__clone(std::__ndk1::__function::__base<void ()>*) const
5fc0 10 289 20
5fd0 8 290 20
FUNC 5fd8 2 0 std::__ndk1::__function::__func<hook66<(anonymous namespace)::hook66Parent>::init(GJGameLevel*)::{lambda()#1}, std::__ndk1::allocator<hook66<(anonymous namespace)::hook66Parent>::init(GJGameLevel*)::{lambda()#1}>, void ()>::destroy()
5fd8 2 295 20
FUNC 5fda 4 0 std::__ndk1::__function::__func<hook66<(anonymous namespace)::hook66Parent>::init(GJGameLevel*)::{lambda()#1}, std::__ndk1::allocator<hook66<(anonymous namespace)::hook66Parent>::init(GJGameLevel*)::{lambda()#1}>, void ()>::destroy_deallocate()
5fda 4 303 20
FUNC 5fe0 90 0 std::__ndk1::__function::__func<hook66<(anonymous namespace)::hook66Parent>::init(GJGameLevel*)::{lambda()#1}, std::__ndk1::allocator<hook66<(anonymous namespace)::hook66Parent>::init(GJGameLevel*)::{lambda()#1}>, void ()>::operator()()
5fe0 e 307 20
5fee 82 308 20
FUNC 6070 18 0 std::__ndk1::__function::__func<hook66<(anonymous namespace)::hook66Parent>::init(GJGameLevel*)::{lambda()#1}, std::__ndk1::allocator<hook66<(anonymous namespace)::hook66Parent>::init(GJGameLevel*)::{lambda()#1}>, void ()>::target(std::type_info const&) const
6070 e 315 20
607e a 318 20
FUNC 6088 c 0 std::__ndk1::__function::__func<hook66<(anonymous namespace)::hook66Parent>::init(GJGameLevel*)::{lambda()#1}, std::__ndk1::allocator<hook66<(anonymous namespace)::hook66Parent>::init(GJGameLevel*)::{lambda()#1}>, void ()>::target_type() const
6088 c 322 20
FUNC 60a0 320 0 geode::modifier::ModifyDerive<hook111<(anonymous namespace)::hook111Parent>, LevelSearchLayer>::apply()
60a0 c 416 8
60ac 248 433 8
62f4 e 458 8
6302 be 433 8
FUNC 63c0 2 0 geode::modifier::ModifyBase<geode::modifier::ModifyDerive<hook111<(anonymous namespace)::hook111Parent>, LevelSearchLayer> >::apply()
63c0 2 416 10
FUNC 63c4 27c 0 geode::modifier::AsStaticFunction_init<hook111<(anonymous namespace)::hook111Parent>, bool (hook111<(anonymous namespace)::hook111Parent>::*)(int)>::Impl<bool (hook111<(anonymous namespace)::hook111Parent>::*)(int)>::function(hook111<(anonymous namespace)::hook111Parent>*, int)
63c4 27c 160 9
FUNC 6640 2dc 0 geode::modifier::ModifyDerive<hook140<(anonymous namespace)::hook140Parent>, cocos2d::CCSprite>::apply()
6640 c 796 9
664c 22a 798 9
6876 e 887 9
6884 98 798 9
FUNC 691c 2 0 geode::modifier::ModifyBase<geode::modifier::ModifyDerive<hook140<(anonymous namespace)::hook140Parent>, cocos2d::CCSprite> >::apply()
691c 2 416 10
FUNC 6920 2bc 0 geode::modifier::AsStaticFunction_create<hook140<(anonymous namespace)::hook140Parent>, cocos2d::CCSprite* (*)(char const*)>::Impl<cocos2d::CCSprite* (*)(char const*)>::function(char const*)
6920 2bc 10 9
FUNC 6bdc 3a 0 std::__ndk1::shared_ptr<geode::FileSettingV3>::~shared_ptr[abi:ne180000]()
6bdc 4 643 11
6be0 4 644 11
6be4 1a 645 11
6bfe 4 646 11
6c02 12 645 11
6c14 2 646 11
FUNC 6c16 2 0 std::__ndk1::__function::__base<void ()>::~__base()
6c16 2 235 20
FUNC 6c18 4 0 std::__ndk1::__function::__func<hook140<(anonymous namespace)::hook140Parent>::create(char const*)::{lambda()#1}, std::__ndk1::allocator<hook140<(anonymous namespace)::hook140Parent>::create(char const*)::{lambda()#1}>, void ()>::~__func()
6c18 4 250 20
FUNC 6c1c 20 0 std::__ndk1::__function::__func<hook140<(anonymous namespace)::hook140Parent>::create(char const*)::{lambda()#1}, std::__ndk1::allocator<hook140<(anonymous namespace)::hook140Parent>::create(char const*)::{lambda()#1}>, void ()>::__clone() const
6c1c 6 277 20
6c22 6 282 20
6c28 e 283 20
6c36 6 285 20
FUNC 6c3c 18 0 std::__ndk1::__function::__func<hook140<(anonymous namespace)::hook140Parent>::create(char const*)::{lambda()#1}, std::__ndk1::allocator<hook140<(anonymous namespace)::hook140Parent>::create(char const*)::{lambda()#1}>, void ()>::__clone(std::__ndk1::__function::__base<void ()>*) const
6c3c 10 289 20
6c4c 8 290 20
FUNC 6c54 2 0 std::__ndk1::__function::__func<hook140<(anonymous namespace)::hook140Parent>::create(char const*)::{lambda()#1}, std::__ndk1::allocator<hook140<(anonymous namespace)::hook140Parent>::create(char const*)::{lambda()#1}>, void ()>::destroy()
6c54 2 295 20
FUNC 6c56 4 0 std::__ndk1::__function::__func<hook140<(anonymous namespace)::hook140Parent>::create(char const*)::{lambda()#1}, std::__ndk1::allocator<hook140<(anonymous namespace)::hook140Parent>::create(char const*)::{lambda()#1}>, void ()>::destroy_deallocate()
6c56 4 303 20
FUNC 6c5a 36 0 std::__ndk1::__function::__func<hook140<(anonymous namespace)::hook140Parent>::create(char const*)::{lambda()#1}, std::__ndk1::allocator<hook140<(anonymous namespace)::hook140Parent>::create(char const*)::{lambda()#1}>, void ()>::operator()()
6c5a 6 307 20
6c60 30 308 20
FUNC 6c90 18 0 std::__ndk1::__function::__func<hook140<(anonymous namespace)::hook140Parent>::create(char const*)::{lambda()#1}, std::__ndk1::allocator<hook140<(anonymous namespace)::hook140Parent>::create(char const*)::{lambda()#1}>, void ()>::target(std::type_info const&) const
6c90 e 315 20
6c9e a 318 20
FUNC 6ca8 c 0 std::__ndk1::__function::__func<hook140<(anonymous namespace)::hook140Parent>::create(char const*)::{lambda()#1}, std::__ndk1::allocator<hook140<(anonymous namespace)::hook140Parent>::create(char const*)::{lambda()#1}>, void ()>::target_type() const
6ca8 c 322 20
FUNC 6cb4 20 0 geodeImplicitEntry
6cb4 4 16 22
6cb8 8 18 22
6cc0 4 19 22
6cc4 a 18 22
6cce 6 19 22
PUBLIC 6cd5 0 __ThumbV7PILongThunk__ZdlPv
PUBLIC 6ce1 0 __ThumbV7PILongThunk__ZN5geode9addresser9Addresser19followThunkFunctionEi
PUBLIC 6cf0 0 <.plt ELF section in camila314.custombg.android32.so>
STACK CFI INIT 3144 2c4 .cfa: sp 0 +
STACK CFI 3146 .cfa: sp 20 + .ra: .cfa -4 + ^ r7: .cfa -8 + ^ r6: .cfa -12 + ^ r5: .cfa -16 + ^ r4: .cfa -20 + ^
STACK CFI 3148 .cfa: r7 8 +
STACK CFI 314c r11: .cfa -24 + ^ r10: .cfa -28 + ^ r9: .cfa -32 + ^ r8: .cfa -36 + ^
STACK CFI INIT 3c54 1c .cfa: sp 0 +
STACK CFI 3c56 .cfa: sp 16 + .ra: .cfa -4 + ^ r7: .cfa -8 + ^ r6: .cfa -12 + ^ r4: .cfa -16 + ^
STACK CFI 3c58 .cfa: r7 8 +
STACK CFI INIT 3408 2c4 .cfa: sp 0 +
STACK CFI 340a .cfa: sp 20 + .ra: .cfa -4 + ^ r7: .cfa -8 + ^ r6: .cfa -12 + ^ r5: .cfa -16 + ^ r4: .cfa -20 + ^
STACK CFI 340c .cfa: r7 8 +
STACK CFI 3410 r11: .cfa -24 + ^ r10: .cfa -28 + ^ r9: .cfa -32 + ^ r8: .cfa -36 + ^
STACK CFI INIT 3c70 1c .cfa: sp 0 +
STACK CFI 3c72 .cfa: sp 16 + .ra: .cfa -4 + ^ r7: .cfa -8 + ^ r6: .cfa -12 + ^ r4: .cfa -16 + ^
STACK CFI 3c74 .cfa: r7 8 +
STACK CFI INIT 36cc 2c4 .cfa: sp 0 +
STACK CFI 36ce .cfa: sp 20 + .ra: .cfa -4 + ^ r7: .cfa -8 + ^ r6: .cfa -12 + ^ r5: .cfa -16 + ^ r4: .cfa -20 + ^
STACK CFI 36d0 .cfa: r7 8 +
STACK CFI 36d4 r11: .cfa -24 + ^ r10: .cfa -28 + ^ r9: .cfa -32 + ^ r8: .cfa -36 + ^
STACK CFI INIT 3c8c 1c .cfa: sp 0 +
STACK CFI 3c8e .cfa: sp 16 + .ra: .cfa -4 + ^ r7: .cfa -8 + ^ r6: .cfa -12 + ^ r4: .cfa -16 + ^
STACK CFI 3c90 .cfa: r7 8 +
STACK CFI INIT 3990 2c4 .cfa: sp 0 +
STACK CFI 3992 .cfa: sp 20 + .ra: .cfa -4 + ^ r7: .cfa -8 + ^ r6: .cfa -12 + ^ r5: .cfa -16 + ^ r4: .cfa -20 + ^
STACK CFI 3994 .cfa: r7 8 +
STACK CFI 3998 r11: .cfa -24 + ^ r10: .cfa -28 + ^ r9: .cfa -32 + ^ r8: .cfa -36 + ^
STACK CFI INIT 3ca8 1c .cfa: sp 0 +
STACK CFI 3caa .cfa: sp 16 + .ra: .cfa -4 + ^ r7: .cfa -8 + ^ r6: .cfa -12 + ^ r4: .cfa -16 + ^
STACK CFI 3cac .cfa: r7 8 +
STACK CFI INIT 3cc4 2e4 .cfa: sp 0 +
STACK CFI 3cc6 .cfa: sp 20 + .ra: .cfa -4 + ^ r7: .cfa -8 + ^ r6: .cfa -12 + ^ r5: .cfa -16 + ^ r4: .cfa -20 + ^
STACK CFI 3cc8 .cfa: r7 8 +
STACK CFI 3ccc r11: .cfa -24 + ^ r9: .cfa -28 + ^ r8: .cfa -32 + ^
STACK CFI INIT 3fa8 3a .cfa: sp 0 +
STACK CFI 3faa .cfa: sp 16 + .ra: .cfa -4 + ^ r7: .cfa -8 + ^ r5: .cfa -12 + ^ r4: .cfa -16 + ^
STACK CFI 3fac .cfa: r7 8 +
STACK CFI INIT 3fe4 60 .cfa: sp 0 +
STACK CFI 3fe6 .cfa: sp 16 + .ra: .cfa -4 + ^ r7: .cfa -8 + ^ r6: .cfa -12 + ^ r4: .cfa -16 + ^
STACK CFI 3fe8 .cfa: r7 8 +
STACK CFI INIT 4044 3e .cfa: sp 0 +
STACK CFI 4046 .cfa: sp 20 + .ra: .cfa -4 + ^ r7: .cfa -8 + ^ r6: .cfa -12 + ^ r5: .cfa -16 + ^ r4: .cfa -20 + ^
STACK CFI 4048 .cfa: r7 8 +
STACK CFI 404c r11: .cfa -24 + ^
STACK CFI INIT 4082 2 .cfa: sp 0 +
STACK CFI INIT 4084 c .cfa: sp 0 +
STACK CFI 4086 .cfa: sp 8 + .ra: .cfa -4 + ^ r7: .cfa -8 + ^
STACK CFI 4088 .cfa: r7 8 +
STACK CFI INIT 4090 4cc .cfa: sp 0 +
STACK CFI 4092 .cfa: sp 20 + .ra: .cfa -4 + ^ r7: .cfa -8 + ^ r6: .cfa -12 + ^ r5: .cfa -16 + ^ r4: .cfa -20 + ^
STACK CFI 4094 .cfa: r7 8 +
STACK CFI 4098 r11: .cfa -24 + ^ r10: .cfa -28 + ^ r9: .cfa -32 + ^ r8: .cfa -36 + ^
STACK CFI INIT 455c 34 .cfa: sp 0 +
STACK CFI 455e .cfa: sp 8 + .ra: .cfa -4 + ^ r7: .cfa -8 + ^
STACK CFI 4560 .cfa: r7 8 +
STACK CFI INIT 4590 68 .cfa: sp 0 +
STACK CFI 4592 .cfa: sp 20 + .ra: .cfa -4 + ^ r7: .cfa -8 + ^ r6: .cfa -12 + ^ r5: .cfa -16 + ^ r4: .cfa -20 + ^
STACK CFI 4594 .cfa: r7 8 +
STACK CFI 4598 r11: .cfa -24 + ^
STACK CFI INIT 45f8 10 .cfa: sp 0 +
STACK CFI 45fa .cfa: sp 8 + .ra: .cfa -4 + ^ r7: .cfa -8 + ^
STACK CFI 45fc .cfa: r7 8 +
STACK CFI INIT 4608 10 .cfa: sp 0 +
STACK CFI 460a .cfa: sp 8 + .ra: .cfa -4 + ^ r7: .cfa -8 + ^
STACK CFI 460c .cfa: r7 8 +
STACK CFI INIT 4618 38 .cfa: sp 0 +
STACK CFI 461a .cfa: sp 16 + .ra: .cfa -4 + ^ r7: .cfa -8 + ^ r5: .cfa -12 + ^ r4: .cfa -16 + ^
STACK CFI 461c .cfa: r7 8 +
STACK CFI INIT 4650 18 .cfa: sp 0 +
STACK CFI 4652 .cfa: sp 8 + .ra: .cfa -4 + ^ r7: .cfa -8 + ^
STACK CFI 4654 .cfa: r7 8 +
STACK CFI INIT 4668 28 .cfa: sp 0 +
STACK CFI 466a .cfa: sp 8 + .ra: .cfa -4 + ^ r7: .cfa -8 + ^
STACK CFI 466c .cfa: r7 8 +
STACK CFI INIT 4690 160 .cfa: sp 0 +
STACK CFI 4692 .cfa: sp 20 + .ra: .cfa -4 + ^ r7: .cfa -8 + ^ r6: .cfa -12 + ^ r5: .cfa -16 + ^ r4: .cfa -20 + ^
STACK CFI 4694 .cfa: r7 8 +
STACK CFI 4698 r10: .cfa -24 + ^ r9: .cfa -28 + ^ r8: .cfa -32 + ^
STACK CFI INIT 47f0 44 .cfa: sp 0 +
STACK CFI 47f2 .cfa: sp 20 + .ra: .cfa -4 + ^ r7: .cfa -8 + ^ r6: .cfa -12 + ^ r5: .cfa -16 + ^ r4: .cfa -20 + ^
STACK CFI 47f4 .cfa: r7 8 +
STACK CFI 47f8 r8: .cfa -24 + ^
STACK CFI INIT 4834 3c .cfa: sp 0 +
STACK CFI 4836 .cfa: sp 16 + .ra: .cfa -4 + ^ r7: .cfa -8 + ^ r5: .cfa -12 + ^ r4: .cfa -16 + ^
STACK CFI 4838 .cfa: r7 8 +
STACK CFI INIT 4870 10 .cfa: sp 0 +
STACK CFI 4872 .cfa: sp 8 + .ra: .cfa -4 + ^ r7: .cfa -8 + ^
STACK CFI 4874 .cfa: r7 8 +
STACK CFI INIT 4880 2 .cfa: sp 0 +
STACK CFI INIT 4882 e .cfa: sp 0 +
STACK CFI INIT 4890 c0 .cfa: sp 0 +
STACK CFI 4892 .cfa: sp 20 + .ra: .cfa -4 + ^ r7: .cfa -8 + ^ r6: .cfa -12 + ^ r5: .cfa -16 + ^ r4: .cfa -20 + ^
STACK CFI 4894 .cfa: r7 8 +
STACK CFI 4898 r10: .cfa -24 + ^ r9: .cfa -28 + ^ r8: .cfa -32 + ^
STACK CFI INIT 4950 2ba .cfa: sp 0 +
STACK CFI 4952 .cfa: sp 20 + .ra: .cfa -4 + ^ r7: .cfa -8 + ^ r6: .cfa -12 + ^ r5: .cfa -16 + ^ r4: .cfa -20 + ^
STACK CFI 4954 .cfa: r7 8 +
STACK CFI 4958 r8: .cfa -24 + ^
STACK CFI INIT 4c0a 5a .cfa: sp 0 +
STACK CFI 4c12 .cfa: sp 16 + .ra: .cfa -4 + ^ r7: .cfa -8 + ^ r5: .cfa -12 + ^ r4: .cfa -16 + ^
STACK CFI 4c14 .cfa: r7 8 +
STACK CFI INIT 4c64 7c .cfa: sp 0 +
STACK CFI 4c66 .cfa: sp 16 + .ra: .cfa -4 + ^ r7: .cfa -8 + ^ r6: .cfa -12 + ^ r4: .cfa -16 + ^
STACK CFI 4c68 .cfa: r7 8 +
STACK CFI INIT 4ce0 24c .cfa: sp 0 +
STACK CFI 4ce2 .cfa: sp 20 + .ra: .cfa -4 + ^ r7: .cfa -8 + ^ r6: .cfa -12 + ^ r5: .cfa -16 + ^ r4: .cfa -20 + ^
STACK CFI 4ce4 .cfa: r7 8 +
STACK CFI 4ce8 r11: .cfa -24 + ^ r10: .cfa -28 + ^ r9: .cfa -32 + ^ r8: .cfa -36 + ^
STACK CFI INIT 4f2c 60 .cfa: sp 0 +
STACK CFI 4f2e .cfa: sp 16 + .ra: .cfa -4 + ^ r7: .cfa -8 + ^ r6: .cfa -12 + ^ r4: .cfa -16 + ^
STACK CFI 4f30 .cfa: r7 8 +
STACK CFI INIT 4f8c 3a .cfa: sp 0 +
STACK CFI 4f8e .cfa: sp 16 + .ra: .cfa -4 + ^ r7: .cfa -8 + ^ r5: .cfa -12 + ^ r4: .cfa -16 + ^
STACK CFI 4f90 .cfa: r7 8 +
STACK CFI INIT 4fc6 46 .cfa: sp 0 +
STACK CFI 4fc8 .cfa: sp 16 + .ra: .cfa -4 + ^ r7: .cfa -8 + ^ r5: .cfa -12 + ^ r4: .cfa -16 + ^
STACK CFI 4fca .cfa: r7 8 +
STACK CFI INIT 500c 4d8 .cfa: sp 0 +
STACK CFI 500e .cfa: sp 20 + .ra: .cfa -4 + ^ r7: .cfa -8 + ^ r6: .cfa -12 + ^ r5: .cfa -16 + ^ r4: .cfa -20 + ^
STACK CFI 5010 .cfa: r7 8 +
STACK CFI 5014 r11: .cfa -24 + ^ r10: .cfa -28 + ^ r9: .cfa -32 + ^ r8: .cfa -36 + ^
STACK CFI INIT 54e4 2 .cfa: sp 0 +
STACK CFI INIT 54e8 10 .cfa: sp 0 +
STACK CFI 54ea .cfa: sp 8 + .ra: .cfa -4 + ^ r7: .cfa -8 + ^
STACK CFI 54ec .cfa: r7 8 +
STACK CFI INIT 54f8 10 .cfa: sp 0 +
STACK CFI 54fa .cfa: sp 8 + .ra: .cfa -4 + ^ r7: .cfa -8 + ^
STACK CFI 54fc .cfa: r7 8 +
STACK CFI INIT 5508 8 .cfa: sp 0 +
STACK CFI 550a .cfa: sp 8 + .ra: .cfa -4 + ^ r7: .cfa -8 + ^
STACK CFI 550c .cfa: r7 8 +
STACK CFI INIT 5510 34 .cfa: sp 0 +
STACK CFI 5512 .cfa: sp 16 + .ra: .cfa -4 + ^ r7: .cfa -8 + ^ r6: .cfa -12 + ^ r4: .cfa -16 + ^
STACK CFI 5514 .cfa: r7 8 +
STACK CFI INIT 5544 20 .cfa: sp 0 +
STACK CFI 5546 .cfa: sp 8 + .ra: .cfa -4 + ^ r7: .cfa -8 + ^
STACK CFI 5548 .cfa: r7 8 +
STACK CFI INIT 5564 8 .cfa: sp 0 +
STACK CFI 5566 .cfa: sp 8 + .ra: .cfa -4 + ^ r7: .cfa -8 + ^
STACK CFI 5568 .cfa: r7 8 +
STACK CFI INIT 556c 2 .cfa: sp 0 +
STACK CFI INIT 556e 4 .cfa: sp 0 +
STACK CFI INIT 5574 20 .cfa: sp 0 +
STACK CFI 5576 .cfa: sp 16 + .ra: .cfa -4 + ^ r7: .cfa -8 + ^ r6: .cfa -12 + ^ r4: .cfa -16 + ^
STACK CFI 5578 .cfa: r7 8 +
STACK CFI INIT 5594 14 .cfa: sp 0 +
STACK CFI INIT 55a8 2 .cfa: sp 0 +
STACK CFI INIT 55aa 4 .cfa: sp 0 +
STACK CFI INIT 55ae 8 .cfa: sp 0 +
STACK CFI INIT 55b8 18 .cfa: sp 0 +
STACK CFI INIT 55d0 c .cfa: sp 0 +
STACK CFI INIT 55dc ba .cfa: sp 0 +
STACK CFI 55de .cfa: sp 20 + .ra: .cfa -4 + ^ r7: .cfa -8 + ^ r6: .cfa -12 + ^ r5: .cfa -16 + ^ r4: .cfa -20 + ^
STACK CFI 55e0 .cfa: r7 8 +
STACK CFI 55e4 r11: .cfa -24 + ^ r10: .cfa -28 + ^ r9: .cfa -32 + ^ r8: .cfa -36 + ^
STACK CFI INIT 5696 14a .cfa: sp 0 +
STACK CFI 56a8 .cfa: sp 16 + .ra: .cfa -4 + ^ r7: .cfa -8 + ^ r6: .cfa -12 + ^ r4: .cfa -16 + ^
STACK CFI 56aa .cfa: r7 8 +
STACK CFI INIT 57e0 310 .cfa: sp 0 +
STACK CFI 57e2 .cfa: sp 20 + .ra: .cfa -4 + ^ r7: .cfa -8 + ^ r6: .cfa -12 + ^ r5: .cfa -16 + ^ r4: .cfa -20 + ^
STACK CFI 57e4 .cfa: r7 8 +
STACK CFI 57e8 r10: .cfa -24 + ^ r9: .cfa -28 + ^ r8: .cfa -32 + ^
STACK CFI INIT 5af0 2 .cfa: sp 0 +
STACK CFI INIT 5af4 234 .cfa: sp 0 +
STACK CFI 5af6 .cfa: sp 20 + .ra: .cfa -4 + ^ r7: .cfa -8 + ^ r6: .cfa -12 + ^ r5: .cfa -16 + ^ r4: .cfa -20 + ^
STACK CFI 5af8 .cfa: r7 8 +
STACK CFI 5afc r8: .cfa -24 + ^
STACK CFI INIT 5d28 f4 .cfa: sp 0 +
STACK CFI 5d2a .cfa: sp 20 + .ra: .cfa -4 + ^ r7: .cfa -8 + ^ r6: .cfa -12 + ^ r5: .cfa -16 + ^ r4: .cfa -20 + ^
STACK CFI 5d2c .cfa: r7 8 +
STACK CFI 5d30 r11: .cfa -24 + ^
STACK CFI INIT 5e1c f8 .cfa: sp 0 +
STACK CFI 5e1e .cfa: sp 20 + .ra: .cfa -4 + ^ r7: .cfa -8 + ^ r6: .cfa -12 + ^ r5: .cfa -16 + ^ r4: .cfa -20 + ^
STACK CFI 5e20 .cfa: r7 8 +
STACK CFI 5e24 r11: .cfa -24 + ^
STACK CFI INIT 5f14 88 .cfa: sp 0 +
STACK CFI 5f16 .cfa: sp 20 + .ra: .cfa -4 + ^ r7: .cfa -8 + ^ r6: .cfa -12 + ^ r5: .cfa -16 + ^ r4: .cfa -20 + ^
STACK CFI 5f18 .cfa: r7 8 +
STACK CFI 5f1c r11: .cfa -24 + ^ r9: .cfa -28 + ^ r8: .cfa -32 + ^
STACK CFI INIT 5f9c 4 .cfa: sp 0 +
STACK CFI INIT 5fa0 20 .cfa: sp 0 +
STACK CFI 5fa2 .cfa: sp 16 + .ra: .cfa -4 + ^ r7: .cfa -8 + ^ r6: .cfa -12 + ^ r4: .cfa -16 + ^
STACK CFI 5fa4 .cfa: r7 8 +
STACK CFI INIT 5fc0 18 .cfa: sp 0 +
STACK CFI INIT 5fd8 2 .cfa: sp 0 +
STACK CFI INIT 5fda 4 .cfa: sp 0 +
STACK CFI INIT 5fe0 90 .cfa: sp 0 +
STACK CFI 5fe2 .cfa: sp 20 + .ra: .cfa -4 + ^ r7: .cfa -8 + ^ r6: .cfa -12 + ^ r5: .cfa -16 + ^ r4: .cfa -20 + ^
STACK CFI 5fe4 .cfa: r7 8 +
STACK CFI 5fe8 r11: .cfa -24 + ^
STACK CFI INIT 6070 18 .cfa: sp 0 +
STACK CFI INIT 6088 c .cfa: sp 0 +
STACK CFI INIT 60a0 320 .cfa: sp 0 +
STACK CFI 60a2 .cfa: sp 20 + .ra: .cfa -4 + ^ r7: .cfa -8 + ^ r6: .cfa -12 + ^ r5: .cfa -16 + ^ r4: .cfa -20 + ^
STACK CFI 60a4 .cfa: r7 8 +
STACK CFI 60a8 r10: .cfa -24 + ^ r9: .cfa -28 + ^ r8: .cfa -32 + ^
STACK CFI INIT 63c0 2 .cfa: sp 0 +
STACK CFI INIT 63c4 27c .cfa: sp 0 +
STACK CFI 63c6 .cfa: sp 20 + .ra: .cfa -4 + ^ r7: .cfa -8 + ^ r6: .cfa -12 + ^ r5: .cfa -16 + ^ r4: .cfa -20 + ^
STACK CFI 63c8 .cfa: r7 8 +
STACK CFI 63cc r11: .cfa -24 + ^
STACK CFI INIT 6640 2dc .cfa: sp 0 +
STACK CFI 6642 .cfa: sp 20 + .ra: .cfa -4 + ^ r7: .cfa -8 + ^ r6: .cfa -12 + ^ r5: .cfa -16 + ^ r4: .cfa -20 + ^
STACK CFI 6644 .cfa: r7 8 +
STACK CFI 6648 r10: .cfa -24 + ^ r9: .cfa -28 + ^ r8: .cfa -32 + ^
STACK CFI INIT 691c 2 .cfa: sp 0 +
STACK CFI INIT 6920 2bc .cfa: sp 0 +
STACK CFI 6922 .cfa: sp 20 + .ra: .cfa -4 + ^ r7: .cfa -8 + ^ r6: .cfa -12 + ^ r5: .cfa -16 + ^ r4: .cfa -20 + ^
STACK CFI 6924 .cfa: r7 8 +
STACK CFI 6928 r11: .cfa -24 + ^ r10: .cfa -28 + ^ r9: .cfa -32 + ^ r8: .cfa -36 + ^
STACK CFI INIT 6bdc 3a .cfa: sp 0 +
STACK CFI 6bde .cfa: sp 16 + .ra: .cfa -4 + ^ r7: .cfa -8 + ^ r5: .cfa -12 + ^ r4: .cfa -16 + ^
STACK CFI 6be0 .cfa: r7 8 +
STACK CFI INIT 6c16 2 .cfa: sp 0 +
STACK CFI INIT 6c18 4 .cfa: sp 0 +
STACK CFI INIT 6c1c 20 .cfa: sp 0 +
STACK CFI 6c1e .cfa: sp 16 + .ra: .cfa -4 + ^ r7: .cfa -8 + ^ r6: .cfa -12 + ^ r4: .cfa -16 + ^
STACK CFI 6c20 .cfa: r7 8 +
STACK CFI INIT 6c3c 18 .cfa: sp 0 +
STACK CFI INIT 6c54 2 .cfa: sp 0 +
STACK CFI INIT 6c56 4 .cfa: sp 0 +
STACK CFI INIT 6c5a 36 .cfa: sp 0 +
STACK CFI 6c5c .cfa: sp 16 + .ra: .cfa -4 + ^ r7: .cfa -8 + ^ r6: .cfa -12 + ^ r4: .cfa -16 + ^
STACK CFI 6c5e .cfa: r7 8 +
STACK CFI INIT 6c90 18 .cfa: sp 0 +
STACK CFI INIT 6ca8 c .cfa: sp 0 +
STACK CFI INIT 0 20 .cfa: sp 0 +
STACK CFI 2 .cfa: sp 16 + .ra: .cfa -4 + ^ r7: .cfa -8 + ^ r6: .cfa -12 + ^ r4: .cfa -16 + ^
STACK CFI 4 .cfa: r7 8 +
STACK CFI INIT 6cb4 20 .cfa: sp 0 +
STACK CFI 6cb6 .cfa: sp 16 + .ra: .cfa -4 + ^ r7: .cfa -8 + ^ r6: .cfa -12 + ^ r4: .cfa -16 + ^
STACK CFI 6cb8 .cfa: r7 8 +
