MODULE Linux arm64 3E9F784D8856BB36992334DFA1AB08D00 spaghettdev.gd-roulette.android64.so
INFO CODE_ID 4D789F3E568836BB992334DFA1AB08D07F1F0FD8
INFO GENERATOR mozilla/dump_syms 2.3.4
PUBLIC 3e3c0 0 __on_dlclose
PUBLIC 3e3d0 0 __emutls_unregister_key
PUBLIC 3e3d8 0 __on_dlclose_late
PUBLIC 3e3e0 0 __atexit_handler_wrapper
PUBLIC 3e3f4 0 atexit
PUBLIC 3e410 0 pthread_atfork
PUBLIC 3e420 0 unwind_phase2
PUBLIC 3e554 0 _Unwind_Resume
PUBLIC 3e5d8 0 unwind_phase2_forced
PUBLIC m 3e6cc 0 __unw_init_local
PUBLIC m 3e774 0 __unw_get_reg
PUBLIC 3e7f0 0 __unw_step_stage2
PUBLIC m 3e804 0 __unw_get_proc_info
PUBLIC m 3e844 0 __unw_resume
PUBLIC 3e86c 0 libunwind::CFI_Parser<libunwind::LocalAddressSpace>::decodeFDE(libunwind::LocalAddressSpace&, unsigned long, libunwind::CFI_Parser<libunwind::LocalAddressSpace>::FDE_Info*, libunwind::CFI_Parser<libunwind::LocalAddressSpace>::CIE_Info*, bool)
PUBLIC 3e9fc 0 libunwind::CFI_Parser<libunwind::LocalAddressSpace>::parseCIE(libunwind::LocalAddressSpace&, unsigned long, libunwind::CFI_Parser<libunwind::LocalAddressSpace>::CIE_Info*)
PUBLIC 3ecc4 0 libunwind::AbstractUnwindCursor::~AbstractUnwindCursor()
PUBLIC 3eccc 0 libunwind::UnwindCursor<libunwind::LocalAddressSpace, libunwind::Registers_arm64>::~UnwindCursor()
PUBLIC 3ecd4 0 libunwind::UnwindCursor<libunwind::LocalAddressSpace, libunwind::Registers_arm64>::validReg(int)
PUBLIC 3ed18 0 libunwind::UnwindCursor<libunwind::LocalAddressSpace, libunwind::Registers_arm64>::getReg(int)
PUBLIC 3ee00 0 libunwind::UnwindCursor<libunwind::LocalAddressSpace, libunwind::Registers_arm64>::setReg(int, unsigned long)
PUBLIC 3eee8 0 libunwind::UnwindCursor<libunwind::LocalAddressSpace, libunwind::Registers_arm64>::validFloatReg(int)
PUBLIC 3eefc 0 libunwind::UnwindCursor<libunwind::LocalAddressSpace, libunwind::Registers_arm64>::getFloatReg(int)
PUBLIC 3ef0c 0 libunwind::UnwindCursor<libunwind::LocalAddressSpace, libunwind::Registers_arm64>::setFloatReg(int, double)
PUBLIC 3ef1c 0 libunwind::UnwindCursor<libunwind::LocalAddressSpace, libunwind::Registers_arm64>::step(bool)
PUBLIC 3f00c 0 libunwind::UnwindCursor<libunwind::LocalAddressSpace, libunwind::Registers_arm64>::getInfo(unw_proc_info_t*)
PUBLIC 3f050 0 libunwind::UnwindCursor<libunwind::LocalAddressSpace, libunwind::Registers_arm64>::jumpto()
PUBLIC 3f05c 0 libunwind::UnwindCursor<libunwind::LocalAddressSpace, libunwind::Registers_arm64>::isSignalFrame()
PUBLIC 3f068 0 libunwind::UnwindCursor<libunwind::LocalAddressSpace, libunwind::Registers_arm64>::getFunctionName(char*, unsigned long, unsigned long*)
PUBLIC 3f094 0 libunwind::UnwindCursor<libunwind::LocalAddressSpace, libunwind::Registers_arm64>::setInfoBasedOnIPRegister(bool)
PUBLIC 3f314 0 libunwind::UnwindCursor<libunwind::LocalAddressSpace, libunwind::Registers_arm64>::getRegisterName(int)
PUBLIC 3f320 0 libunwind::UnwindCursor<libunwind::LocalAddressSpace, libunwind::Registers_arm64>::stepThroughSigReturn(libunwind::Registers_arm64&)
PUBLIC 3f440 0 libunwind::DwarfInstructions<libunwind::LocalAddressSpace, libunwind::Registers_arm64>::stepWithDwarf(libunwind::LocalAddressSpace&, unsigned long, unsigned long, libunwind::Registers_arm64&, bool&, bool)
PUBLIC 3f8c8 0 libunwind::CFI_Parser<libunwind::LocalAddressSpace>::parseFDEInstructions(libunwind::LocalAddressSpace&, libunwind::CFI_Parser<libunwind::LocalAddressSpace>::FDE_Info const&, libunwind::CFI_Parser<libunwind::LocalAddressSpace>::CIE_Info const&, unsigned long, int, libunwind::CFI_Parser<libunwind::LocalAddressSpace>::PrologInfo*)
PUBLIC 40510 0 libunwind::DwarfInstructions<libunwind::LocalAddressSpace, libunwind::Registers_arm64>::getCFA(libunwind::LocalAddressSpace&, libunwind::CFI_Parser<libunwind::LocalAddressSpace>::PrologInfo const&, libunwind::Registers_arm64 const&)
PUBLIC 40644 0 libunwind::DwarfInstructions<libunwind::LocalAddressSpace, libunwind::Registers_arm64>::getSavedRegister(libunwind::LocalAddressSpace&, libunwind::Registers_arm64 const&, unsigned long, libunwind::CFI_Parser<libunwind::LocalAddressSpace>::RegisterLocation const&)
PUBLIC 40854 0 libunwind::LocalAddressSpace::getEncodedP(unsigned long&, unsigned long, unsigned char, unsigned long)
PUBLIC 40be0 0 libunwind::LocalAddressSpace::getULEB128(unsigned long&, unsigned long)
PUBLIC 40da8 0 libunwind::DwarfInstructions<libunwind::LocalAddressSpace, libunwind::Registers_arm64>::evaluateExpression(unsigned long, libunwind::LocalAddressSpace&, libunwind::Registers_arm64 const&, unsigned long)
PUBLIC 41764 0 libunwind::UnwindCursor<libunwind::LocalAddressSpace, libunwind::Registers_arm64>::getInfoFromDwarfSection(unsigned long, libunwind::UnwindInfoSections const&, unsigned int)
PUBLIC 41a38 0 libunwind::findUnwindSectionsByPhdr(dl_phdr_info*, unsigned long, void*)
PUBLIC 41b6c 0 libunwind::EHHeaderParser<libunwind::LocalAddressSpace>::decodeEHHdr(libunwind::LocalAddressSpace&, unsigned long, unsigned long, libunwind::EHHeaderParser<libunwind::LocalAddressSpace>::EHHeaderInfo&)
PUBLIC 41c8c 0 libunwind::CFI_Parser<libunwind::LocalAddressSpace>::findFDE(libunwind::LocalAddressSpace&, unsigned long, unsigned long, unsigned long, unsigned long, libunwind::CFI_Parser<libunwind::LocalAddressSpace>::FDE_Info*, libunwind::CFI_Parser<libunwind::LocalAddressSpace>::CIE_Info*)
PUBLIC 41e54 0 libunwind::EHHeaderParser<libunwind::LocalAddressSpace>::findFDE(libunwind::LocalAddressSpace&, unsigned long, unsigned long, unsigned int, libunwind::CFI_Parser<libunwind::LocalAddressSpace>::FDE_Info*, libunwind::CFI_Parser<libunwind::LocalAddressSpace>::CIE_Info*)
PUBLIC 41fbc 0 libunwind::EHHeaderParser<libunwind::LocalAddressSpace>::getTableEntrySize(unsigned char)
PUBLIC 420b8 0 libunwind::Registers_arm64::getRegisterName(int)
PUBLIC 420e8 0 __libunwind_Registers_arm64_jumpto
PUBLIC m 42178 0 __unw_getcontext
PUBLIC 42214 0 RLConfirmationAlertLayer::create(RLConfirmationData const&)
PUBLIC 42358 0 RLConfirmationAlertLayer::init(RLConfirmationData const&)
PUBLIC 42874 0 RLConfirmationAlertLayer::onYesButton(cocos2d::CCObject*)
PUBLIC 428fc 0 RLConfirmationAlertLayer::onNoButton(cocos2d::CCObject*)
PUBLIC 42984 0 RLConfirmationAlertLayer::onClose(cocos2d::CCObject*)
PUBLIC 429c0 0 cocos2d::CCCopying::copyWithZone(cocos2d::CCZone*)
PUBLIC 429c8 0 RLConfirmationAlertLayer::~RLConfirmationAlertLayer()
PUBLIC 42a84 0 RLConfirmationAlertLayer::~RLConfirmationAlertLayer()
PUBLIC 42b48 0 RLConfirmationAlertLayer::keyDown(cocos2d::enumKeyCodes)
PUBLIC 42b4c 0 cocos2d::CCLayerRGBA::setOpacityModifyRGB(bool)
PUBLIC 42b50 0 cocos2d::CCLayerRGBA::isOpacityModifyRGB()
PUBLIC 42b58 0 {virtual override thunk({offset(-320)}, RLConfirmationAlertLayer::~RLConfirmationAlertLayer())}
PUBLIC 42c18 0 {virtual override thunk({offset(-320)}, RLConfirmationAlertLayer::~RLConfirmationAlertLayer())}
PUBLIC 42ce0 0 {virtual override thunk({offset(-344)}, RLConfirmationAlertLayer::keyDown(cocos2d::enumKeyCodes))}
PUBLIC 42ce4 0 cocos2d::CCKeyboardDelegate::keyUp(cocos2d::enumKeyCodes)
PUBLIC 42ce8 0 cocos2d::CCMouseDelegate::rightKeyDown()
PUBLIC 42cec 0 cocos2d::CCMouseDelegate::rightKeyUp()
PUBLIC 42cf0 0 cocos2d::CCMouseDelegate::scrollWheel(float, float)
PUBLIC 42cf4 0 {virtual override thunk({offset(-408)}, cocos2d::CCLayerRGBA::setOpacityModifyRGB(bool))}
PUBLIC 42cf8 0 {virtual override thunk({offset(-408)}, cocos2d::CCLayerRGBA::isOpacityModifyRGB())}
PUBLIC 42d00 0 __clang_call_terminate
PUBLIC 42d10 0 std::__ndk1::__function::__value_func<void (RLConfirmationAlertLayer*)>::swap[abi:ne180000](std::__ndk1::__function::__value_func<void (RLConfirmationAlertLayer*)>&)
PUBLIC 42ea8 0 std::__ndk1::__throw_bad_function_call[abi:ne180000]()
PUBLIC 42edc 0 std::__ndk1::bad_function_call::~bad_function_call()
PUBLIC 42f00 0 __cxx_global_var_init
PUBLIC 42fe8 0 std::__ndk1::map<GJDifficulty, std::__ndk1::basic_string_view<char, std::__ndk1::char_traits<char> >, std::__ndk1::less<GJDifficulty>, std::__ndk1::allocator<std::__ndk1::pair<GJDifficulty const, std::__ndk1::basic_string_view<char, std::__ndk1::char_traits<char> > > > >::map[abi:ne180000](std::initializer_list<std::__ndk1::pair<GJDifficulty const, std::__ndk1::basic_string_view<char, std::__ndk1::char_traits<char> > > >, std::__ndk1::less<GJDifficulty> const&)
PUBLIC 43110 0 std::__ndk1::map<GJDifficulty, std::__ndk1::basic_string_view<char, std::__ndk1::char_traits<char> >, std::__ndk1::less<GJDifficulty>, std::__ndk1::allocator<std::__ndk1::pair<GJDifficulty const, std::__ndk1::basic_string_view<char, std::__ndk1::char_traits<char> > > > >::~map[abi:ne180000]()
PUBLIC 43118 0 __cxx_global_var_init.13
PUBLIC 43204 0 std::__ndk1::map<GJFeatureState, std::__ndk1::basic_string_view<char, std::__ndk1::char_traits<char> >, std::__ndk1::less<GJFeatureState>, std::__ndk1::allocator<std::__ndk1::pair<GJFeatureState const, std::__ndk1::basic_string_view<char, std::__ndk1::char_traits<char> > > > >::map[abi:ne180000](std::initializer_list<std::__ndk1::pair<GJFeatureState const, std::__ndk1::basic_string_view<char, std::__ndk1::char_traits<char> > > >, std::__ndk1::less<GJFeatureState> const&)
PUBLIC 4332c 0 std::__ndk1::map<GJFeatureState, std::__ndk1::basic_string_view<char, std::__ndk1::char_traits<char> >, std::__ndk1::less<GJFeatureState>, std::__ndk1::allocator<std::__ndk1::pair<GJFeatureState const, std::__ndk1::basic_string_view<char, std::__ndk1::char_traits<char> > > > >::~map[abi:ne180000]()
PUBLIC 43334 0 __cxx_global_var_init.19
PUBLIC 43418 0 std::__ndk1::map<GJDifficulty, int, std::__ndk1::less<GJDifficulty>, std::__ndk1::allocator<std::__ndk1::pair<GJDifficulty const, int> > >::map[abi:ne180000](std::initializer_list<std::__ndk1::pair<GJDifficulty const, int> >, std::__ndk1::less<GJDifficulty> const&)
PUBLIC 43534 0 std::__ndk1::map<GJDifficulty, int, std::__ndk1::less<GJDifficulty>, std::__ndk1::allocator<std::__ndk1::pair<GJDifficulty const, int> > >::~map[abi:ne180000]()
PUBLIC 4353c 0 __cxx_global_var_init.21
PUBLIC 43620 0 std::__ndk1::map<GJDifficulty, unsigned char, std::__ndk1::less<GJDifficulty>, std::__ndk1::allocator<std::__ndk1::pair<GJDifficulty const, unsigned char> > >::map[abi:ne180000](std::initializer_list<std::__ndk1::pair<GJDifficulty const, unsigned char> >, std::__ndk1::less<GJDifficulty> const&)
PUBLIC 4373c 0 std::__ndk1::map<GJDifficulty, unsigned char, std::__ndk1::less<GJDifficulty>, std::__ndk1::allocator<std::__ndk1::pair<GJDifficulty const, unsigned char> > >::~map[abi:ne180000]()
PUBLIC 43744 0 RLDifficultySelectAlertLayer::create(RLDifficultySelectData const&)
PUBLIC 43864 0 RLDifficultySelectAlertLayer::init(RLDifficultySelectData const&)
PUBLIC 44128 0 RLDifficultySelectAlertLayer::onDemonButton(cocos2d::CCObject*)
PUBLIC 44298 0 RLDifficultySelectAlertLayer::onClose(cocos2d::CCObject*)
PUBLIC 44320 0 geode::cocos::CCArrayExt<CCMenuItemSpriteExtra*, CCMenuItemSpriteExtra>::~CCArrayExt()
PUBLIC 4433c 0 RLDifficultySelectAlertLayer::keyDown(cocos2d::enumKeyCodes)
PUBLIC 44358 0 {virtual override thunk({offset(-344)}, RLDifficultySelectAlertLayer::keyDown(cocos2d::enumKeyCodes))}
PUBLIC 44378 0 RLDifficultySelectAlertLayer::registerWithTouchDispatcher()
PUBLIC 443b0 0 RLDifficultySelectAlertLayer::~RLDifficultySelectAlertLayer()
PUBLIC 4447c 0 RLDifficultySelectAlertLayer::~RLDifficultySelectAlertLayer()
PUBLIC 44550 0 {virtual override thunk({offset(-320)}, RLDifficultySelectAlertLayer::~RLDifficultySelectAlertLayer())}
PUBLIC 44620 0 {virtual override thunk({offset(-320)}, RLDifficultySelectAlertLayer::~RLDifficultySelectAlertLayer())}
PUBLIC 446f8 0 std::__ndk1::vector<GJDifficulty, std::__ndk1::allocator<GJDifficulty> >::__throw_length_error[abi:ne180000]() const
PUBLIC 4470c 0 std::__ndk1::__throw_length_error[abi:ne180000](char const*)
PUBLIC 4475c 0 std::length_error::length_error[abi:ne180000](char const*)
PUBLIC 4478c 0 std::__ndk1::__tree<std::__ndk1::__value_type<GJDifficulty, std::__ndk1::basic_string_view<char, std::__ndk1::char_traits<char> > >, std::__ndk1::__map_value_compare<GJDifficulty, std::__ndk1::__value_type<GJDifficulty, std::__ndk1::basic_string_view<char, std::__ndk1::char_traits<char> > >, std::__ndk1::less<GJDifficulty>, true>, std::__ndk1::allocator<std::__ndk1::__value_type<GJDifficulty, std::__ndk1::basic_string_view<char, std::__ndk1::char_traits<char> > > > >::__find_equal<GJDifficulty>(std::__ndk1::__tree_const_iterator<std::__ndk1::__value_type<GJDifficulty, std::__ndk1::basic_string_view<char, std::__ndk1::char_traits<char> > >, std::__ndk1::__tree_node<std::__ndk1::__value_type<GJDifficulty, std::__ndk1::basic_string_view<char, std::__ndk1::char_traits<char> > >, void*>*, long>, std::__ndk1::__tree_end_node<std::__ndk1::__tree_node_base<void*>*>*&, std::__ndk1::__tree_node_base<void*>*&, GJDifficulty const&)
PUBLIC 4493c 0 std::__ndk1::__tree_balance_after_insert[abi:ne180000]<std::__ndk1::__tree_node_base<void*>*>(std::__ndk1::__tree_node_base<void*>*, std::__ndk1::__tree_node_base<void*>*)
PUBLIC 44aec 0 std::__ndk1::__tree<std::__ndk1::__value_type<GJDifficulty, std::__ndk1::basic_string_view<char, std::__ndk1::char_traits<char> > >, std::__ndk1::__map_value_compare<GJDifficulty, std::__ndk1::__value_type<GJDifficulty, std::__ndk1::basic_string_view<char, std::__ndk1::char_traits<char> > >, std::__ndk1::less<GJDifficulty>, true>, std::__ndk1::allocator<std::__ndk1::__value_type<GJDifficulty, std::__ndk1::basic_string_view<char, std::__ndk1::char_traits<char> > > > >::destroy(std::__ndk1::__tree_node<std::__ndk1::__value_type<GJDifficulty, std::__ndk1::basic_string_view<char, std::__ndk1::char_traits<char> > >, void*>*)
PUBLIC 44b30 0 std::__ndk1::__tree<std::__ndk1::__value_type<GJFeatureState, std::__ndk1::basic_string_view<char, std::__ndk1::char_traits<char> > >, std::__ndk1::__map_value_compare<GJFeatureState, std::__ndk1::__value_type<GJFeatureState, std::__ndk1::basic_string_view<char, std::__ndk1::char_traits<char> > >, std::__ndk1::less<GJFeatureState>, true>, std::__ndk1::allocator<std::__ndk1::__value_type<GJFeatureState, std::__ndk1::basic_string_view<char, std::__ndk1::char_traits<char> > > > >::__find_equal<GJFeatureState>(std::__ndk1::__tree_const_iterator<std::__ndk1::__value_type<GJFeatureState, std::__ndk1::basic_string_view<char, std::__ndk1::char_traits<char> > >, std::__ndk1::__tree_node<std::__ndk1::__value_type<GJFeatureState, std::__ndk1::basic_string_view<char, std::__ndk1::char_traits<char> > >, void*>*, long>, std::__ndk1::__tree_end_node<std::__ndk1::__tree_node_base<void*>*>*&, std::__ndk1::__tree_node_base<void*>*&, GJFeatureState const&)
PUBLIC 44ce0 0 std::__ndk1::__tree<std::__ndk1::__value_type<GJFeatureState, std::__ndk1::basic_string_view<char, std::__ndk1::char_traits<char> > >, std::__ndk1::__map_value_compare<GJFeatureState, std::__ndk1::__value_type<GJFeatureState, std::__ndk1::basic_string_view<char, std::__ndk1::char_traits<char> > >, std::__ndk1::less<GJFeatureState>, true>, std::__ndk1::allocator<std::__ndk1::__value_type<GJFeatureState, std::__ndk1::basic_string_view<char, std::__ndk1::char_traits<char> > > > >::destroy(std::__ndk1::__tree_node<std::__ndk1::__value_type<GJFeatureState, std::__ndk1::basic_string_view<char, std::__ndk1::char_traits<char> > >, void*>*)
PUBLIC 44d24 0 std::__ndk1::__tree<std::__ndk1::__value_type<GJDifficulty, int>, std::__ndk1::__map_value_compare<GJDifficulty, std::__ndk1::__value_type<GJDifficulty, int>, std::__ndk1::less<GJDifficulty>, true>, std::__ndk1::allocator<std::__ndk1::__value_type<GJDifficulty, int> > >::__find_equal<GJDifficulty>(std::__ndk1::__tree_const_iterator<std::__ndk1::__value_type<GJDifficulty, int>, std::__ndk1::__tree_node<std::__ndk1::__value_type<GJDifficulty, int>, void*>*, long>, std::__ndk1::__tree_end_node<std::__ndk1::__tree_node_base<void*>*>*&, std::__ndk1::__tree_node_base<void*>*&, GJDifficulty const&)
PUBLIC 44ed4 0 std::__ndk1::__tree<std::__ndk1::__value_type<GJDifficulty, int>, std::__ndk1::__map_value_compare<GJDifficulty, std::__ndk1::__value_type<GJDifficulty, int>, std::__ndk1::less<GJDifficulty>, true>, std::__ndk1::allocator<std::__ndk1::__value_type<GJDifficulty, int> > >::destroy(std::__ndk1::__tree_node<std::__ndk1::__value_type<GJDifficulty, int>, void*>*)
PUBLIC 44f18 0 std::__ndk1::__tree<std::__ndk1::__value_type<GJDifficulty, unsigned char>, std::__ndk1::__map_value_compare<GJDifficulty, std::__ndk1::__value_type<GJDifficulty, unsigned char>, std::__ndk1::less<GJDifficulty>, true>, std::__ndk1::allocator<std::__ndk1::__value_type<GJDifficulty, unsigned char> > >::__find_equal<GJDifficulty>(std::__ndk1::__tree_const_iterator<std::__ndk1::__value_type<GJDifficulty, unsigned char>, std::__ndk1::__tree_node<std::__ndk1::__value_type<GJDifficulty, unsigned char>, void*>*, long>, std::__ndk1::__tree_end_node<std::__ndk1::__tree_node_base<void*>*>*&, std::__ndk1::__tree_node_base<void*>*&, GJDifficulty const&)
PUBLIC 450c8 0 std::__ndk1::__tree<std::__ndk1::__value_type<GJDifficulty, unsigned char>, std::__ndk1::__map_value_compare<GJDifficulty, std::__ndk1::__value_type<GJDifficulty, unsigned char>, std::__ndk1::less<GJDifficulty>, true>, std::__ndk1::allocator<std::__ndk1::__value_type<GJDifficulty, unsigned char> > >::destroy(std::__ndk1::__tree_node<std::__ndk1::__value_type<GJDifficulty, unsigned char>, void*>*)
PUBLIC 4510c 0 std::__ndk1::__throw_out_of_range[abi:ne180000](char const*)
PUBLIC 4515c 0 std::out_of_range::out_of_range[abi:ne180000](char const*)
PUBLIC 4518c 0 _GLOBAL__sub_I_RLDifficultySelectAlertLayer.cpp
PUBLIC 45218 0 RLIntegerInputAlertLayer::create(RLIntegerInputData const&)
PUBLIC 45338 0 RLIntegerInputAlertLayer::init(RLIntegerInputData const&)
PUBLIC 45cec 0 RLIntegerInputAlertLayer::onLeftButton(cocos2d::CCObject*)
PUBLIC 463c4 0 RLIntegerInputAlertLayer::onRightButton(cocos2d::CCObject*)
PUBLIC 46a9c 0 RLIntegerInputAlertLayer::onClose(cocos2d::CCObject*)
PUBLIC 46f30 0 RLIntegerInputAlertLayer::keyDown(cocos2d::enumKeyCodes)
PUBLIC 46f54 0 {virtual override thunk({offset(-344)}, RLIntegerInputAlertLayer::keyDown(cocos2d::enumKeyCodes))}
PUBLIC 46f7c 0 RLIntegerInputAlertLayer::~RLIntegerInputAlertLayer()
PUBLIC 47008 0 RLIntegerInputAlertLayer::~RLIntegerInputAlertLayer()
PUBLIC 4709c 0 {virtual override thunk({offset(-320)}, RLIntegerInputAlertLayer::~RLIntegerInputAlertLayer())}
PUBLIC 4712c 0 {virtual override thunk({offset(-320)}, RLIntegerInputAlertLayer::~RLIntegerInputAlertLayer())}
PUBLIC 471c4 0 std::__ndk1::__variant_detail::__visitation::__base::__dispatcher<(unsigned long)0>::__dispatch[abi:ne180000]<std::__ndk1::__variant_detail::__dtor<std::__ndk1::__variant_detail::__traits<int, std::__ndk1::basic_string<char, std::__ndk1::char_traits<char>, std::__ndk1::allocator<char> > >, (std::__ndk1::__variant_detail::_Trait)1>::__destroy[abi:ne180000]()::{lambda(auto:1&)#1}, std::__ndk1::__variant_detail::__base<(std::__ndk1::__variant_detail::__traits<int, std::__ndk1::basic_string<char, std::__ndk1::char_traits<char>, std::__ndk1::allocator<char> > >)1, int, std::__ndk1::allocator<char> >&>(std::__ndk1::__variant_detail::__dtor<std::__ndk1::__variant_detail::__traits<int, std::__ndk1::basic_string<char, std::__ndk1::char_traits<char>, std::__ndk1::allocator<char> > >, (std::__ndk1::__variant_detail::_Trait)1>, std::__ndk1::__variant_detail::__base<(std::__ndk1::__variant_detail::__traits<int, std::__ndk1::basic_string<char, std::__ndk1::char_traits<char>, std::__ndk1::allocator<char> > >)1, int, std::__ndk1::allocator<char> >&)
PUBLIC 471c8 0 std::__ndk1::__variant_detail::__visitation::__base::__dispatcher<(unsigned long)1>::__dispatch[abi:ne180000]<std::__ndk1::__variant_detail::__dtor<std::__ndk1::__variant_detail::__traits<int, std::__ndk1::basic_string<char, std::__ndk1::char_traits<char>, std::__ndk1::allocator<char> > >, (std::__ndk1::__variant_detail::_Trait)1>::__destroy[abi:ne180000]()::{lambda(auto:1&)#1}, std::__ndk1::__variant_detail::__base<(std::__ndk1::__variant_detail::__traits<int, std::__ndk1::basic_string<char, std::__ndk1::char_traits<char>, std::__ndk1::allocator<char> > >)1, int, std::__ndk1::allocator<char> >&>(std::__ndk1::__variant_detail::__dtor<std::__ndk1::__variant_detail::__traits<int, std::__ndk1::basic_string<char, std::__ndk1::char_traits<char>, std::__ndk1::allocator<char> > >, (std::__ndk1::__variant_detail::_Trait)1>, std::__ndk1::__variant_detail::__base<(std::__ndk1::__variant_detail::__traits<int, std::__ndk1::basic_string<char, std::__ndk1::char_traits<char>, std::__ndk1::allocator<char> > >)1, int, std::__ndk1::allocator<char> >&)
PUBLIC 471e0 0 __aarch64_ldadd8_relax
PUBLIC 47210 0 init_have_lse_atomics
PUBLIC 472a8 0 __init_cpu_features_constructor
PUBLIC 47844 0 __init_cpu_features
PUBLIC 478d0 0 __aarch64_ldadd8_acq_rel
PUBLIC 47900 0 RLStatsAlertLayer::create(GameState const&)
PUBLIC 47a10 0 RLStatsAlertLayer::init(GameState const&)
PUBLIC 4816c 0 rl::utils::formatUnixTimestamp(unsigned long)
PUBLIC 483f0 0 geode::Mod::getSettingValue<long>(std::__ndk1::basic_string_view<char, std::__ndk1::char_traits<char> >) const
PUBLIC 48508 0 RLStatsAlertLayer::onLevelsPlayedButton(cocos2d::CCObject*)
PUBLIC 48920 0 rl::utils::createGJListDictFromLevels(std::__ndk1::vector<int, std::__ndk1::allocator<int> > const&, unsigned long long, bool)
PUBLIC 49100 0 geode::cocos::CCArrayExt<LevelCell*, LevelCell>::~CCArrayExt()
PUBLIC 4911c 0 std::__ndk1::unique_ptr<DS_Dictionary, std::__ndk1::default_delete<DS_Dictionary> >::~unique_ptr[abi:ne180000]()
PUBLIC 49164 0 RLStatsAlertLayer::onClose(cocos2d::CCObject*)
PUBLIC 491a0 0 RLStatsAlertLayer::keyDown(cocos2d::enumKeyCodes)
PUBLIC 491c4 0 {virtual override thunk({offset(-344)}, RLStatsAlertLayer::keyDown(cocos2d::enumKeyCodes))}
PUBLIC 491ec 0 RLStatsAlertLayer::~RLStatsAlertLayer()
PUBLIC 49210 0 {virtual override thunk({offset(-320)}, RLStatsAlertLayer::~RLStatsAlertLayer())}
PUBLIC 49218 0 {virtual override thunk({offset(-320)}, RLStatsAlertLayer::~RLStatsAlertLayer())}
PUBLIC 49240 0 std::__ndk1::basic_string<char, std::__ndk1::char_traits<char>, std::__ndk1::allocator<char> >::__throw_length_error[abi:ne180000]() const
PUBLIC 49254 0 std::__ndk1::operator<<[abi:ne180000]<char, std::__ndk1::char_traits<char> >(std::__ndk1::basic_ostream<char, std::__ndk1::char_traits<char> >, std::__ndk1::__iom_t10<std::__ndk1::basic_ostream> const&)
PUBLIC m 49428 0 std::__ndk1::basic_ostringstream<char, std::__ndk1::char_traits<char>, std::__ndk1::allocator<char> >::~basic_ostringstream()
PUBLIC 494a4 0 geode::cast::traverseTypeinfoFor(void*, geode::cast::ClassTypeinfoType const*, char const*)
PUBLIC 495a8 0 RouletteManager::~RouletteManager()
PUBLIC 495c0 0 _GLOBAL__sub_I_RLStatsAlertLayer.cpp
PUBLIC 4969c 0 BaseCustomAlertLayer::createBasics(BaseCustomAlertData const&)
PUBLIC 49960 0 BaseCustomAlertLayer::keyDown(cocos2d::enumKeyCodes)
PUBLIC 4997c 0 {virtual override thunk({offset(-344)}, BaseCustomAlertLayer::keyDown(cocos2d::enumKeyCodes))}
PUBLIC 4999c 0 BaseCustomAlertLayer::keyBackClicked()
PUBLIC 499ac 0 {virtual override thunk({offset(-336)}, BaseCustomAlertLayer::keyBackClicked())}
PUBLIC 499c0 0 BaseCustomLayer::init(char const*)
PUBLIC 49e7c 0 BaseCustomLayer::keyDown(cocos2d::enumKeyCodes)
PUBLIC 49e98 0 {virtual override thunk({offset(-344)}, BaseCustomLayer::keyDown(cocos2d::enumKeyCodes))}
PUBLIC 49eb8 0 BaseCustomLayer::keyBackClicked()
PUBLIC 49ec8 0 {virtual override thunk({offset(-336)}, BaseCustomLayer::keyBackClicked())}
PUBLIC 49edc 0 RLDifficultyNode::init(RLDifficultyNode::DifficultyInfo const&)
PUBLIC 4a17c 0 RLDifficultyNode::setDifficulty(RLDifficultyNode::DifficultyInfo const&)
PUBLIC 4a648 0 RLDifficultyNode::setAnchorPoint(cocos2d::CCPoint const&)
PUBLIC 4a658 0 RLDifficultyNode::~RLDifficultyNode()
PUBLIC 4a67c 0 cocos2d::CCNodeRGBA::setOpacityModifyRGB(bool)
PUBLIC 4a680 0 cocos2d::CCNodeRGBA::isOpacityModifyRGB()
PUBLIC 4a688 0 {virtual override thunk({offset(-320)}, cocos2d::CCNodeRGBA::setOpacityModifyRGB(bool))}
PUBLIC 4a68c 0 {virtual override thunk({offset(-320)}, cocos2d::CCNodeRGBA::isOpacityModifyRGB())}
PUBLIC 4a694 0 _GLOBAL__sub_I_RLDifficultyNode.cpp
PUBLIC 4a720 0 RLLoadingCircle::create()
PUBLIC 4a808 0 RLLoadingCircle::init()
PUBLIC 4a884 0 RLLoadingCircle::~RLLoadingCircle()
PUBLIC 4a8a8 0 cocos2d::CCSprite::setBlendFunc(cocos2d::_ccBlendFunc)
PUBLIC 4a8b4 0 cocos2d::CCSprite::getBlendFunc()
PUBLIC 4a8c0 0 cocos2d::CCSprite::isDirty()
PUBLIC 4a8c8 0 cocos2d::CCSprite::setDirty(bool)
PUBLIC 4a8d0 0 {virtual override thunk({offset(-344)}, cocos2d::CCSprite::setBlendFunc(cocos2d::_ccBlendFunc))}
PUBLIC 4a8d8 0 {virtual override thunk({offset(-344)}, cocos2d::CCSprite::getBlendFunc())}
PUBLIC 4a8e0 0 RLProgressBar::init(float, bool)
PUBLIC 4ad1c 0 RLProgressBar::init()
PUBLIC 4ad28 0 RLProgressBar::setColor(cocos2d::_ccColor3B const&)
PUBLIC 4ad38 0 {virtual override thunk({offset(-320)}, RLProgressBar::setColor(cocos2d::_ccColor3B const&))}
PUBLIC 4ad48 0 RLProgressBar::setProgress(float)
PUBLIC 4af80 0 RLProgressBar::update(float)
PUBLIC 4b30c 0 RLProgressBar::playFillingAnimation()
PUBLIC 4b488 0 RLProgressBar::~RLProgressBar()
PUBLIC 4b4ac 0 RLRepeatingBackground::init(char const*)
PUBLIC 4b7a0 0 RLRepeatingBackground::setColor(cocos2d::_ccColor3B const&)
PUBLIC 4b7f4 0 {virtual override thunk({offset(-408)}, RLRepeatingBackground::setColor(cocos2d::_ccColor3B const&))}
PUBLIC 4b848 0 RLRepeatingBackground::update(float)
PUBLIC 4b9d8 0 RLRepeatingBackground::~RLRepeatingBackground()
PUBLIC 4b9fc 0 {virtual override thunk({offset(-320)}, RLRepeatingBackground::~RLRepeatingBackground())}
PUBLIC 4ba04 0 {virtual override thunk({offset(-320)}, RLRepeatingBackground::~RLRepeatingBackground())}
PUBLIC 4ba2c 0 std::__ndk1::uniform_int_distribution<int>::operator()<std::__ndk1::mersenne_twister_engine<unsigned long, (unsigned long)32, (unsigned long)624, (unsigned long)397, (unsigned long)31, (unsigned long)2567483615, (unsigned long)11, (unsigned long)4294967295, (unsigned long)7, (unsigned long)2636928640, (unsigned long)15, (unsigned long)4022730752, (unsigned long)18, (unsigned long)1812433253> >(std::__ndk1::mersenne_twister_engine<unsigned long, (unsigned long)32, (unsigned long)624, (unsigned long)397, (unsigned long)31, (unsigned long)2567483615, (unsigned long)11, (unsigned long)4294967295, (unsigned long)7, (unsigned long)2636928640, (unsigned long)15, (unsigned long)4022730752, (unsigned long)18, (unsigned long)1812433253>&, std::__ndk1::uniform_int_distribution<int>::param_type const&)
PUBLIC 4bb6c 0 std::__ndk1::__independent_bits_engine<std::__ndk1::mersenne_twister_engine<unsigned long, (unsigned long)32, (unsigned long)624, (unsigned long)397, (unsigned long)31, (unsigned long)2567483615, (unsigned long)11, (unsigned long)4294967295, (unsigned long)7, (unsigned long)2636928640, (unsigned long)15, (unsigned long)4022730752, (unsigned long)18, (unsigned long)1812433253>, unsigned int>::__eval(std::__ndk1::integral_constant<bool, true>)
PUBLIC 4bd6c 0 _GLOBAL__sub_I_RLRepeatingBackground.cpp
PUBLIC 4be8c 0 __cxx_global_var_init.25
PUBLIC 4c30c 0 geode::modifier::ModifyBase<geode::modifier::ModifyDerive<RLCreatorLayer, CreatorLayer> >::~ModifyBase()
PUBLIC 4c328 0 std::__throw_bad_array_new_length([abi:ne180000], void)
PUBLIC 4c35c 0 geode::modifier::ModifyDerive<RLCreatorLayer, CreatorLayer>::apply()
PUBLIC 4c670 0 std::__ndk1::shared_ptr<geode::Hook>::~shared_ptr[abi:ne180000]()
PUBLIC 4c6c0 0 geode::impl::ResultData<geode::Hook*, std::__ndk1::basic_string<char, std::__ndk1::char_traits<char>, std::__ndk1::allocator<char> > >::~ResultData()
PUBLIC 4c734 0 std::__ndk1::vector<std::__ndk1::basic_string<char, std::__ndk1::char_traits<char>, std::__ndk1::allocator<char> >, std::__ndk1::allocator<std::__ndk1::basic_string<char, std::__ndk1::char_traits<char>, std::__ndk1::allocator<char> > > >::~vector[abi:ne180000]()
PUBLIC 4c7b0 0 geode::modifier::ModifyBase<geode::modifier::ModifyDerive<RLCreatorLayer, CreatorLayer> >::apply()
PUBLIC 4c7b4 0 _ZN5geode15UnwrapExceptionC2IRPNS_4HookEQsr4implE18IsStringStreamableIT_EEENS_4impl5OkTagEOS5_
PUBLIC 4c908 0 std::__ndk1::__throw_bad_variant_access[abi:ne180000]()
PUBLIC 4c93c 0 std::__ndk1::basic_stringstream<char, std::__ndk1::char_traits<char>, std::__ndk1::allocator<char> >::basic_stringstream[abi:ne180000]()
PUBLIC m 4ca68 0 std::__ndk1::basic_stringstream<char, std::__ndk1::char_traits<char>, std::__ndk1::allocator<char> >::~basic_stringstream()
PUBLIC 4cae8 0 geode::UnwrapException::~UnwrapException()
PUBLIC 4cb0c 0 std::__ndk1::__put_character_sequence[abi:ne180000]<char, std::__ndk1::char_traits<char> >(std::__ndk1::basic_ostream<char, std::__ndk1::char_traits<char> >, std::__ndk1::basic_ostream const*, unsigned long)
PUBLIC 4ccb0 0 std::__ndk1::__pad_and_output[abi:ne180000]<char, std::__ndk1::char_traits<char> >(std::__ndk1::char_traits<char>, std::__ndk1::ostreambuf_iterator const*, std::__ndk1::ostreambuf_iterator const, std::__ndk1::ostreambuf_iterator const, std::__ndk1::ios_base&, std::__ndk1::ostreambuf_iterator)
PUBLIC 4ce8c 0 std::__ndk1::basic_stringbuf<char, std::__ndk1::char_traits<char>, std::__ndk1::allocator<char> >::str[abi:ne180000]() &&
PUBLIC 4d004 0 std::__ndk1::basic_stringbuf<char, std::__ndk1::char_traits<char>, std::__ndk1::allocator<char> >::__init_buf_ptrs[abi:ne180000]()
PUBLIC 4d14c 0 std::__ndk1::vector<std::__ndk1::basic_string<char, std::__ndk1::char_traits<char>, std::__ndk1::allocator<char> >, std::__ndk1::allocator<std::__ndk1::basic_string<char, std::__ndk1::char_traits<char>, std::__ndk1::allocator<char> > > >::__push_back_slow_path<std::__ndk1::basic_string<char, std::__ndk1::char_traits<char>, std::__ndk1::allocator<char> > const&>(std::__ndk1::basic_string<char, std::__ndk1::char_traits<char>, std::__ndk1::allocator<char> > const&)
PUBLIC 4d374 0 std::__ndk1::basic_string<char, std::__ndk1::char_traits<char>, std::__ndk1::allocator<char> >::__init_copy_ctor_external(char const*, unsigned long)
PUBLIC 4d3f4 0 std::__ndk1::__split_buffer<std::__ndk1::basic_string<char, std::__ndk1::char_traits<char>, std::__ndk1::allocator<char> >, std::__ndk1::allocator<std::__ndk1::basic_string<char, std::__ndk1::char_traits<char>, std::__ndk1::allocator<char> > >&>::~__split_buffer()
PUBLIC 4d45c 0 std::__ndk1::vector<std::__ndk1::basic_string<char, std::__ndk1::char_traits<char>, std::__ndk1::allocator<char> >, std::__ndk1::allocator<std::__ndk1::basic_string<char, std::__ndk1::char_traits<char>, std::__ndk1::allocator<char> > > >::__throw_length_error[abi:ne180000]() const
PUBLIC 4d470 0 std::__ndk1::__variant_detail::__visitation::__base::__dispatcher<(unsigned long)0>::__dispatch[abi:ne180000]<std::__ndk1::__variant_detail::__dtor<std::__ndk1::__variant_detail::__traits<geode::Hook*, std::__ndk1::basic_string<char, std::__ndk1::char_traits<char>, std::__ndk1::allocator<char> > >, (std::__ndk1::__variant_detail::_Trait)1>::__destroy[abi:ne180000]()::{lambda(auto:1&)#1}, std::__ndk1::__variant_detail::__base<(std::__ndk1::__variant_detail::__traits<geode::Hook*, std::__ndk1::basic_string<char, std::__ndk1::char_traits<char>, std::__ndk1::allocator<char> > >)1, geode::Hook, std::__ndk1::allocator<char> >&>(std::__ndk1::__variant_detail::__dtor<std::__ndk1::__variant_detail::__traits<geode::Hook*, std::__ndk1::basic_string<char, std::__ndk1::char_traits<char>, std::__ndk1::allocator<char> > >, (std::__ndk1::__variant_detail::_Trait)1>, std::__ndk1::__variant_detail::__base<(std::__ndk1::__variant_detail::__traits<geode::Hook*, std::__ndk1::basic_string<char, std::__ndk1::char_traits<char>, std::__ndk1::allocator<char> > >)1, geode::Hook, std::__ndk1::allocator<char> >&)
PUBLIC 4d474 0 std::__ndk1::__variant_detail::__visitation::__base::__dispatcher<(unsigned long)1>::__dispatch[abi:ne180000]<std::__ndk1::__variant_detail::__dtor<std::__ndk1::__variant_detail::__traits<geode::Hook*, std::__ndk1::basic_string<char, std::__ndk1::char_traits<char>, std::__ndk1::allocator<char> > >, (std::__ndk1::__variant_detail::_Trait)1>::__destroy[abi:ne180000]()::{lambda(auto:1&)#1}, std::__ndk1::__variant_detail::__base<(std::__ndk1::__variant_detail::__traits<geode::Hook*, std::__ndk1::basic_string<char, std::__ndk1::char_traits<char>, std::__ndk1::allocator<char> > >)1, geode::Hook, std::__ndk1::allocator<char> >&>(std::__ndk1::__variant_detail::__dtor<std::__ndk1::__variant_detail::__traits<geode::Hook*, std::__ndk1::basic_string<char, std::__ndk1::char_traits<char>, std::__ndk1::allocator<char> > >, (std::__ndk1::__variant_detail::_Trait)1>, std::__ndk1::__variant_detail::__base<(std::__ndk1::__variant_detail::__traits<geode::Hook*, std::__ndk1::basic_string<char, std::__ndk1::char_traits<char>, std::__ndk1::allocator<char> > >)1, geode::Hook, std::__ndk1::allocator<char> >&)
PUBLIC 4d488 0 std::__ndk1::__tree<std::__ndk1::__value_type<std::__ndk1::basic_string<char, std::__ndk1::char_traits<char>, std::__ndk1::allocator<char> >, std::__ndk1::shared_ptr<geode::Hook> >, std::__ndk1::__map_value_compare<std::__ndk1::basic_string<char, std::__ndk1::char_traits<char>, std::__ndk1::allocator<char> >, std::__ndk1::__value_type<std::__ndk1::basic_string<char, std::__ndk1::char_traits<char>, std::__ndk1::allocator<char> >, std::__ndk1::shared_ptr<geode::Hook> >, std::__ndk1::less<std::__ndk1::basic_string<char, std::__ndk1::char_traits<char>, std::__ndk1::allocator<char> > >, true>, std::__ndk1::allocator<std::__ndk1::__value_type<std::__ndk1::basic_string<char, std::__ndk1::char_traits<char>, std::__ndk1::allocator<char> >, std::__ndk1::shared_ptr<geode::Hook> > > >::find<std::__ndk1::basic_string<char, std::__ndk1::char_traits<char>, std::__ndk1::allocator<char> > >(std::__ndk1::basic_string<char, std::__ndk1::char_traits<char>, std::__ndk1::allocator<char> > const&)
PUBLIC 4d5a8 0 std::__ndk1::__tree<std::__ndk1::__value_type<std::__ndk1::basic_string<char, std::__ndk1::char_traits<char>, std::__ndk1::allocator<char> >, std::__ndk1::shared_ptr<geode::Hook> >, std::__ndk1::__map_value_compare<std::__ndk1::basic_string<char, std::__ndk1::char_traits<char>, std::__ndk1::allocator<char> >, std::__ndk1::__value_type<std::__ndk1::basic_string<char, std::__ndk1::char_traits<char>, std::__ndk1::allocator<char> >, std::__ndk1::shared_ptr<geode::Hook> >, std::__ndk1::less<std::__ndk1::basic_string<char, std::__ndk1::char_traits<char>, std::__ndk1::allocator<char> > >, true>, std::__ndk1::allocator<std::__ndk1::__value_type<std::__ndk1::basic_string<char, std::__ndk1::char_traits<char>, std::__ndk1::allocator<char> >, std::__ndk1::shared_ptr<geode::Hook> > > >::erase(std::__ndk1::__tree_const_iterator<std::__ndk1::__value_type<std::__ndk1::basic_string<char, std::__ndk1::char_traits<char>, std::__ndk1::allocator<char> >, std::__ndk1::shared_ptr<geode::Hook> >, std::__ndk1::__tree_node<std::__ndk1::__value_type<std::__ndk1::basic_string<char, std::__ndk1::char_traits<char>, std::__ndk1::allocator<char> >, std::__ndk1::shared_ptr<geode::Hook> >, void*>*, long>)
PUBLIC 4d67c 0 std::__ndk1::__tree_remove[abi:ne180000]<std::__ndk1::__tree_node_base<void*>*>(std::__ndk1::__tree_node_base<void*>*, std::__ndk1::__tree_node_base<void*>*)
PUBLIC 4da44 0 std::__ndk1::__tree<std::__ndk1::__value_type<std::__ndk1::basic_string<char, std::__ndk1::char_traits<char>, std::__ndk1::allocator<char> >, std::__ndk1::shared_ptr<geode::Hook> >, std::__ndk1::__map_value_compare<std::__ndk1::basic_string<char, std::__ndk1::char_traits<char>, std::__ndk1::allocator<char> >, std::__ndk1::__value_type<std::__ndk1::basic_string<char, std::__ndk1::char_traits<char>, std::__ndk1::allocator<char> >, std::__ndk1::shared_ptr<geode::Hook> >, std::__ndk1::less<std::__ndk1::basic_string<char, std::__ndk1::char_traits<char>, std::__ndk1::allocator<char> > >, true>, std::__ndk1::allocator<std::__ndk1::__value_type<std::__ndk1::basic_string<char, std::__ndk1::char_traits<char>, std::__ndk1::allocator<char> >, std::__ndk1::shared_ptr<geode::Hook> > > >::destroy(std::__ndk1::__tree_node<std::__ndk1::__value_type<std::__ndk1::basic_string<char, std::__ndk1::char_traits<char>, std::__ndk1::allocator<char> >, std::__ndk1::shared_ptr<geode::Hook> >, void*>*)
PUBLIC 4dad0 0 geode::modifier::AsStaticFunction_init<RLCreatorLayer, bool (RLCreatorLayer::*)()>::Impl<bool (RLCreatorLayer::*)()>::function(RLCreatorLayer*)
PUBLIC 4dec4 0 geode::addresser::Addresser::addressOfVirtual<bool, CreatorLayer, >(bool (CreatorLayer::*)())
PUBLIC 4df6c 0 CreatorLayer::CreatorLayer(geode::ZeroConstructorType)
PUBLIC 4e004 0 std::__ndk1::shared_ptr<tulip::hook::CallingConvention>::~shared_ptr[abi:ne180000]()
PUBLIC 4e054 0 tulip::hook::HandlerMetadata::~HandlerMetadata()
PUBLIC 4e0b8 0 geode::Mod::getSettingValue<bool>(std::__ndk1::basic_string_view<char, std::__ndk1::char_traits<char> >) const
PUBLIC 4e1ec 0 RLCreatorLayer::onRouletteButton(cocos2d::CCObject*)
PUBLIC 4e314 0 std::__ndk1::__tree<std::__ndk1::__value_type<std::__ndk1::basic_string<char, std::__ndk1::char_traits<char>, std::__ndk1::allocator<char> >, std::__ndk1::shared_ptr<geode::Hook> >, std::__ndk1::__map_value_compare<std::__ndk1::basic_string<char, std::__ndk1::char_traits<char>, std::__ndk1::allocator<char> >, std::__ndk1::__value_type<std::__ndk1::basic_string<char, std::__ndk1::char_traits<char>, std::__ndk1::allocator<char> >, std::__ndk1::shared_ptr<geode::Hook> >, std::__ndk1::less<std::__ndk1::basic_string<char, std::__ndk1::char_traits<char>, std::__ndk1::allocator<char> > >, true>, std::__ndk1::allocator<std::__ndk1::__value_type<std::__ndk1::basic_string<char, std::__ndk1::char_traits<char>, std::__ndk1::allocator<char> >, std::__ndk1::shared_ptr<geode::Hook> > > >::__emplace_unique_key_args<std::__ndk1::basic_string<char, std::__ndk1::char_traits<char>, std::__ndk1::allocator<char> >, std::__ndk1::piecewise_construct_t const&, std::__ndk1::tuple<std::__ndk1::basic_string<char, std::__ndk1::char_traits<char>, std::__ndk1::allocator<char> >&&>, std::__ndk1::tuple<> >(std::__ndk1::basic_string<char, std::__ndk1::char_traits<char>, std::__ndk1::allocator<char> > const&, std::__ndk1::piecewise_construct_t const&, std::__ndk1::tuple<std::__ndk1::basic_string<char, std::__ndk1::char_traits<char>, std::__ndk1::allocator<char> >&&>, std::__ndk1::tuple<>)
PUBLIC 4e48c 0 _GLOBAL__sub_I_CreatorLayer.cpp
PUBLIC 4e518 0 __cxx_global_var_init
PUBLIC 4e998 0 geode::modifier::ModifyBase<geode::modifier::ModifyDerive<RLEndLevelLayer, EndLevelLayer> >::~ModifyBase()
PUBLIC 4e9b4 0 geode::modifier::ModifyDerive<RLEndLevelLayer, EndLevelLayer>::apply()
PUBLIC 4ecec 0 geode::modifier::ModifyBase<geode::modifier::ModifyDerive<RLEndLevelLayer, EndLevelLayer> >::apply()
PUBLIC 4ecf0 0 geode::modifier::AsStaticFunction_customSetup<RLEndLevelLayer, void (RLEndLevelLayer::*)()>::Impl<void (RLEndLevelLayer::*)()>::function(RLEndLevelLayer*)
PUBLIC 4eee4 0 geode::addresser::Addresser::addressOfVirtual<void, EndLevelLayer, >(void (EndLevelLayer::*)())
PUBLIC 4ef8c 0 EndLevelLayer::EndLevelLayer(geode::ZeroConstructorType)
PUBLIC 4f01c 0 __cxx_global_var_init
PUBLIC 4f458 0 geode::modifier::ModifyBase<geode::modifier::ModifyDerive<hook7<(anonymous namespace)::hook7Parent>, LevelInfoLayer> >::~ModifyBase()
PUBLIC 4f474 0 geode::modifier::ModifyDerive<hook7<(anonymous namespace)::hook7Parent>, LevelInfoLayer>::apply()
PUBLIC 4f824 0 geode::modifier::ModifyBase<geode::modifier::ModifyDerive<hook7<(anonymous namespace)::hook7Parent>, LevelInfoLayer> >::apply()
PUBLIC 4f828 0 geode::modifier::AsStaticFunction_init<hook7<(anonymous namespace)::hook7Parent>, bool (hook7<(anonymous namespace)::hook7Parent>::*)(GJGameLevel*, bool)>::Impl<bool (hook7<(anonymous namespace)::hook7Parent>::*)(GJGameLevel*, bool)>::function(hook7<(anonymous namespace)::hook7Parent>*, GJGameLevel*, bool)
PUBLIC 4fc00 0 __cxx_global_var_init
PUBLIC 50080 0 geode::modifier::ModifyBase<geode::modifier::ModifyDerive<RLMenuLayer, MenuLayer> >::~ModifyBase()
PUBLIC 5009c 0 geode::modifier::ModifyDerive<RLMenuLayer, MenuLayer>::apply()
PUBLIC 503a4 0 geode::modifier::ModifyBase<geode::modifier::ModifyDerive<RLMenuLayer, MenuLayer> >::apply()
PUBLIC 503a8 0 geode::modifier::AsStaticFunction_init<RLMenuLayer, bool (RLMenuLayer::*)()>::Impl<bool (RLMenuLayer::*)()>::function(RLMenuLayer*)
PUBLIC 50838 0 geode::addresser::Addresser::addressOfVirtual<bool, MenuLayer, >(bool (MenuLayer::*)())
PUBLIC 508e0 0 MenuLayer::MenuLayer(geode::ZeroConstructorType)
PUBLIC 5097c 0 std::__ndk1::shared_ptr<geode::BoolSettingV3>::~shared_ptr[abi:ne180000]()
PUBLIC 509cc 0 std::__ndk1::__variant_detail::__visitation::__base::__dispatcher<(unsigned long)0>::__dispatch[abi:ne180000]<std::__ndk1::__variant_detail::__dtor<std::__ndk1::__variant_detail::__traits<std::__ndk1::monostate, std::__ndk1::basic_string<char, std::__ndk1::char_traits<char>, std::__ndk1::allocator<char> > >, (std::__ndk1::__variant_detail::_Trait)1>::__destroy[abi:ne180000]()::{lambda(auto:1&)#1}, std::__ndk1::__variant_detail::__base<(std::__ndk1::__variant_detail::__traits<std::__ndk1::monostate, std::__ndk1::basic_string<char, std::__ndk1::char_traits<char>, std::__ndk1::allocator<char> > >)1, std::__ndk1::__variant_detail::__traits, std::__ndk1::allocator<char> >&>(std::__ndk1::__variant_detail::__dtor<std::__ndk1::__variant_detail::__traits<std::__ndk1::monostate, std::__ndk1::basic_string<char, std::__ndk1::char_traits<char>, std::__ndk1::allocator<char> > >, (std::__ndk1::__variant_detail::_Trait)1>, std::__ndk1::__variant_detail::__base<(std::__ndk1::__variant_detail::__traits<std::__ndk1::monostate, std::__ndk1::basic_string<char, std::__ndk1::char_traits<char>, std::__ndk1::allocator<char> > >)1, std::__ndk1::__variant_detail::__traits, std::__ndk1::allocator<char> >&)
PUBLIC 509d0 0 std::__ndk1::__variant_detail::__visitation::__base::__dispatcher<(unsigned long)1>::__dispatch[abi:ne180000]<std::__ndk1::__variant_detail::__dtor<std::__ndk1::__variant_detail::__traits<std::__ndk1::monostate, std::__ndk1::basic_string<char, std::__ndk1::char_traits<char>, std::__ndk1::allocator<char> > >, (std::__ndk1::__variant_detail::_Trait)1>::__destroy[abi:ne180000]()::{lambda(auto:1&)#1}, std::__ndk1::__variant_detail::__base<(std::__ndk1::__variant_detail::__traits<std::__ndk1::monostate, std::__ndk1::basic_string<char, std::__ndk1::char_traits<char>, std::__ndk1::allocator<char> > >)1, std::__ndk1::__variant_detail::__traits, std::__ndk1::allocator<char> >&>(std::__ndk1::__variant_detail::__dtor<std::__ndk1::__variant_detail::__traits<std::__ndk1::monostate, std::__ndk1::basic_string<char, std::__ndk1::char_traits<char>, std::__ndk1::allocator<char> > >, (std::__ndk1::__variant_detail::_Trait)1>, std::__ndk1::__variant_detail::__base<(std::__ndk1::__variant_detail::__traits<std::__ndk1::monostate, std::__ndk1::basic_string<char, std::__ndk1::char_traits<char>, std::__ndk1::allocator<char> > >)1, std::__ndk1::__variant_detail::__traits, std::__ndk1::allocator<char> >&)
PUBLIC 509e4 0 __cxx_global_var_init
PUBLIC 50e20 0 geode::modifier::ModifyBase<geode::modifier::ModifyDerive<hook7<(anonymous namespace)::hook7Parent>, PauseLayer> >::~ModifyBase()
PUBLIC 50e3c 0 geode::modifier::ModifyDerive<hook7<(anonymous namespace)::hook7Parent>, PauseLayer>::apply()
PUBLIC 5116c 0 geode::modifier::ModifyBase<geode::modifier::ModifyDerive<hook7<(anonymous namespace)::hook7Parent>, PauseLayer> >::apply()
PUBLIC 51170 0 geode::modifier::AsStaticFunction_customSetup<hook7<(anonymous namespace)::hook7Parent>, void (hook7<(anonymous namespace)::hook7Parent>::*)()>::Impl<void (hook7<(anonymous namespace)::hook7Parent>::*)()>::function(hook7<(anonymous namespace)::hook7Parent>*)
PUBLIC 5153c 0 geode::addresser::Addresser::addressOfVirtual<void, PauseLayer, >(void (PauseLayer::*)())
PUBLIC 515e4 0 PauseLayer::PauseLayer(geode::ZeroConstructorType)
PUBLIC 51670 0 __cxx_global_var_init
PUBLIC 51af0 0 geode::modifier::ModifyBase<geode::modifier::ModifyDerive<RLPlayLayer, PlayLayer> >::~ModifyBase()
PUBLIC 51b0c 0 geode::modifier::ModifyDerive<RLPlayLayer, PlayLayer>::apply()
PUBLIC 52a24 0 geode::modifier::ModifyBase<geode::modifier::ModifyDerive<RLPlayLayer, PlayLayer> >::apply()
PUBLIC 52a28 0 geode::modifier::AsStaticFunction_destroyPlayer<RLPlayLayer, void (RLPlayLayer::*)(PlayerObject*, GameObject*)>::Impl<void (RLPlayLayer::*)(PlayerObject*, GameObject*)>::function(RLPlayLayer*, PlayerObject*, GameObject*)
PUBLIC 52cf4 0 geode::Hook::create<void (*)(RLPlayLayer*)>(void*, void (*)(RLPlayLayer*), std::__ndk1::basic_string<char, std::__ndk1::char_traits<char>, std::__ndk1::allocator<char> > const&, tulip::hook::TulipConvention, tulip::hook::HookMetadata const&)
PUBLIC 52e28 0 geode::modifier::AsStaticFunction_levelComplete<RLPlayLayer, void (RLPlayLayer::*)()>::Impl<void (RLPlayLayer::*)()>::function(RLPlayLayer*)
PUBLIC 52f88 0 geode::modifier::AsStaticFunction_resetLevel<RLPlayLayer, void (RLPlayLayer::*)()>::Impl<void (RLPlayLayer::*)()>::function(RLPlayLayer*)
PUBLIC 53164 0 geode::modifier::AsStaticFunction_showCompleteText<RLPlayLayer, void (RLPlayLayer::*)()>::Impl<void (RLPlayLayer::*)()>::function(RLPlayLayer*)
PUBLIC 53508 0 geode::modifier::AsStaticFunction_showNewBest<RLPlayLayer, void (RLPlayLayer::*)(bool, int, int, bool, bool, bool)>::Impl<void (RLPlayLayer::*)(bool, int, int, bool, bool, bool)>::function(RLPlayLayer*, bool, int, int, bool, bool, bool)
PUBLIC 53664 0 geode::modifier::AsStaticFunction_updateProgressbar<RLPlayLayer, void (RLPlayLayer::*)()>::Impl<void (RLPlayLayer::*)()>::function(RLPlayLayer*)
PUBLIC 53794 0 geode::addresser::Addresser::addressOfVirtual<void, PlayLayer, PlayerObject*, GameObject*>(void (PlayLayer::*)(PlayerObject*, GameObject*))
PUBLIC 5385c 0 PlayLayer::PlayLayer(geode::ZeroConstructorType)
PUBLIC 54078 0 GJGameState::GJGameState()
PUBLIC 545f0 0 geode::stl::unordered_map<int, int, geode::stl::hash<int>, geode::stl::equal_to<int>, std::__ndk1::allocator<std::__ndk1::pair<int const, int> > >::~unordered_map()
PUBLIC 54668 0 geode::stl::unordered_set<int, geode::stl::hash<int>, geode::stl::equal_to<int>, std::__ndk1::allocator<int> >::~unordered_set()
PUBLIC 546e0 0 geode::stl::unordered_map<int, gd::string, geode::stl::hash<int>, geode::stl::equal_to<int>, std::__ndk1::allocator<std::__ndk1::pair<int const, gd::string> > >::~unordered_map()
PUBLIC 54764 0 gd::map<std::__ndk1::pair<int, int>, int>::~map()
PUBLIC 54780 0 geode::stl::unordered_map<int, gd::vector<LabelGameObject*>, geode::stl::hash<int>, geode::stl::equal_to<int>, std::__ndk1::allocator<std::__ndk1::pair<int const, gd::vector<LabelGameObject*> > > >::~unordered_map()
PUBLIC 5480c 0 geode::stl::unordered_map<int, std::__ndk1::pair<int, int>, geode::stl::hash<int>, geode::stl::equal_to<int>, std::__ndk1::allocator<std::__ndk1::pair<int const, std::__ndk1::pair<int, int> > > >::~unordered_map()
PUBLIC 54884 0 geode::stl::unordered_map<int, gd::vector<GameObject*>, geode::stl::hash<int>, geode::stl::equal_to<int>, std::__ndk1::allocator<std::__ndk1::pair<int const, gd::vector<GameObject*> > > >::~unordered_map()
PUBLIC 54910 0 geode::stl::unordered_map<int, cocos2d::CCPoint, geode::stl::hash<int>, geode::stl::equal_to<int>, std::__ndk1::allocator<std::__ndk1::pair<int const, cocos2d::CCPoint> > >::~unordered_map()
PUBLIC 54988 0 gd::vector<geode::stl::unordered_map<int, int, geode::stl::hash<int>, geode::stl::equal_to<int>, std::__ndk1::allocator<std::__ndk1::pair<int const, int> > > >::~vector()
PUBLIC 54a8c 0 GJGameState::~GJGameState()
PUBLIC 54e84 0 geode::stl::unordered_map<int, SongChannelState, geode::stl::hash<int>, geode::stl::equal_to<int>, std::__ndk1::allocator<std::__ndk1::pair<int const, SongChannelState> > >::~unordered_map()
PUBLIC 54efc 0 gd::map<std::__ndk1::pair<int, int>, SFXTriggerInstance>::~map()
PUBLIC 54f18 0 geode::stl::unordered_map<int, std::__ndk1::vector<int, std::__ndk1::allocator<int> >, geode::stl::hash<int>, geode::stl::equal_to<int>, std::__ndk1::allocator<std::__ndk1::pair<int const, std::__ndk1::vector<int, std::__ndk1::allocator<int> > > > >::~unordered_map()
PUBLIC 54fa8 0 gd::vector<EnterEffectInstance>::~vector()
PUBLIC 55040 0 geode::stl::unordered_map<int, std::__ndk1::vector<EnterEffectInstance, std::__ndk1::allocator<EnterEffectInstance> >, geode::stl::hash<int>, geode::stl::equal_to<int>, std::__ndk1::allocator<std::__ndk1::pair<int const, std::__ndk1::vector<EnterEffectInstance, std::__ndk1::allocator<EnterEffectInstance> > > > >::~unordered_map()
PUBLIC 5507c 0 gd::map<std::__ndk1::pair<GJGameEvent, int>, int>::~map()
PUBLIC 55098 0 gd::map<std::__ndk1::pair<GJGameEvent, int>, gd::vector<EventTriggerInstance> >::~map()
PUBLIC 550b4 0 geode::stl::unordered_map<int, EnhancedGameObject*, geode::stl::hash<int>, geode::stl::equal_to<int>, std::__ndk1::allocator<std::__ndk1::pair<int const, EnhancedGameObject*> > >::~unordered_map()
PUBLIC 5512c 0 geode::stl::unordered_map<int, GameObjectPhysics, geode::stl::hash<int>, geode::stl::equal_to<int>, std::__ndk1::allocator<std::__ndk1::pair<int const, GameObjectPhysics> > >::~unordered_map()
PUBLIC 551a4 0 geode::stl::unordered_map<int, GJValueTween, geode::stl::hash<int>, geode::stl::equal_to<int>, std::__ndk1::allocator<std::__ndk1::pair<int const, GJValueTween> > >::~unordered_map()
PUBLIC 5521c 0 geode::stl::unordered_map<int, bool, geode::stl::hash<int>, geode::stl::equal_to<int>, std::__ndk1::allocator<std::__ndk1::pair<int const, bool> > >::~unordered_map()
PUBLIC 55294 0 gd::map<std::__ndk1::pair<GJGameEvent, int>, gd::vector<EventTriggerInstance> >::map(std::__ndk1::map<std::__ndk1::pair<GJGameEvent, int>, gd::vector<EventTriggerInstance>, std::__ndk1::less<std::__ndk1::pair<GJGameEvent, int> >, std::__ndk1::allocator<std::__ndk1::pair<std::__ndk1::pair<GJGameEvent, int> const, gd::vector<EventTriggerInstance> > > >)
PUBLIC 55460 0 gd::map<std::__ndk1::pair<GJGameEvent, int>, gd::vector<EventTriggerInstance> >::insert_pair(std::__ndk1::pair<std::__ndk1::pair<GJGameEvent, int>, gd::vector<EventTriggerInstance> > const&)
PUBLIC 55718 0 std::__ndk1::pair<std::__ndk1::pair<GJGameEvent, int>, gd::vector<EventTriggerInstance> >::~pair()
PUBLIC 55798 0 std::__ndk1::pair<std::__ndk1::pair<GJGameEvent, int> const, gd::vector<EventTriggerInstance> >::~pair()
PUBLIC 55818 0 gd::vector<EventTriggerInstance>::vector(gd::vector<EventTriggerInstance> const&)
PUBLIC 559b8 0 geode::stl::_rb_insert_rebalance(bool, geode::stl::_rb_tree_base*, geode::stl::_rb_tree_base*, geode::stl::_rb_tree_base&)
PUBLIC 55c70 0 gd::vector<EventTriggerInstance>::operator=(gd::vector<EventTriggerInstance> const&)
PUBLIC 55e2c 0 gd::vector<EventTriggerInstance>::~vector()
PUBLIC 55eac 0 std::__ndk1::__tree<std::__ndk1::__value_type<std::__ndk1::pair<GJGameEvent, int>, gd::vector<EventTriggerInstance> >, std::__ndk1::__map_value_compare<std::__ndk1::pair<GJGameEvent, int>, std::__ndk1::__value_type<std::__ndk1::pair<GJGameEvent, int>, gd::vector<EventTriggerInstance> >, std::__ndk1::less<std::__ndk1::pair<GJGameEvent, int> >, true>, std::__ndk1::allocator<std::__ndk1::__value_type<std::__ndk1::pair<GJGameEvent, int>, gd::vector<EventTriggerInstance> > > >::destroy(std::__ndk1::__tree_node<std::__ndk1::__value_type<std::__ndk1::pair<GJGameEvent, int>, gd::vector<EventTriggerInstance> >, void*>*)
PUBLIC 55f44 0 gd::map<std::__ndk1::pair<int, int>, SFXTriggerInstance>::erase(geode::stl::_rb_tree_node<std::__ndk1::pair<std::__ndk1::pair<int, int>, SFXTriggerInstance> >*)
PUBLIC 55f98 0 gd::map<int, EnterEffectAnimValue>::erase(geode::stl::_rb_tree_node<std::__ndk1::pair<int, EnterEffectAnimValue> >*)
PUBLIC 55fec 0 geode::stl::_Hashtable<int, std::__ndk1::pair<int const, std::__ndk1::vector<EnterEffectInstance, std::__ndk1::allocator<EnterEffectInstance> > >, std::__ndk1::allocator<std::__ndk1::pair<int const, std::__ndk1::vector<EnterEffectInstance, std::__ndk1::allocator<EnterEffectInstance> > > >, geode::stl::__detail::_Select1st, geode::stl::equal_to<int>, geode::stl::hash<int>, geode::stl::__detail::_Mod_range_hashing, geode::stl::__detail::_Default_ranged_hash, geode::stl::__detail::_Prime_rehash_policy, geode::stl::__detail::_Hashtable_traits<false, false, true> >::clear()
PUBLIC 56094 0 gd::map<std::__ndk1::pair<GJGameEvent, int>, int>::erase(geode::stl::_rb_tree_node<std::__ndk1::pair<std::__ndk1::pair<GJGameEvent, int>, int> >*)
PUBLIC 560e8 0 gd::map<std::__ndk1::pair<GJGameEvent, int>, gd::vector<EventTriggerInstance> >::erase(geode::stl::_rb_tree_node<std::__ndk1::pair<std::__ndk1::pair<GJGameEvent, int>, gd::vector<EventTriggerInstance> > >*)
PUBLIC 56190 0 gd::map<std::__ndk1::pair<int, int>, int>::erase(geode::stl::_rb_tree_node<std::__ndk1::pair<std::__ndk1::pair<int, int>, int> >*)
PUBLIC 561e4 0 std::__ndk1::vector<tulip::hook::AbstractType, std::__ndk1::allocator<tulip::hook::AbstractType> >::__throw_length_error[abi:ne180000]() const
PUBLIC 561f8 0 RLPlayLayer::showReachedGoal(int, int, int, bool)
PUBLIC 56d50 0 cocos2d::CCSequence::create(cocos2d::CCFiniteTimeAction*, ...)
PUBLIC 56de8 0 RLPlayLayer::containerNodeCleanup()
PUBLIC 56e3c 0 RLPlayLayer::progressBarContainerCleanup()
PUBLIC 56e90 0 geode::modifier::FieldIntermediate<RLPlayLayer, PlayLayer>::self()
PUBLIC 574d4 0 geode::modifier::FieldIntermediate<RLPlayLayer, PlayLayer>::fieldDestructor(void*)
PUBLIC 574d8 0 std::__ndk1::vector<void*, std::__ndk1::allocator<void*> >::__throw_length_error[abi:ne180000]() const
PUBLIC 574ec 0 std::__ndk1::vector<std::__ndk1::function<void (void*)>, std::__ndk1::allocator<std::__ndk1::function<void (void*)> > >::__throw_length_error[abi:ne180000]() const
PUBLIC 57500 0 std::__ndk1::vector<void*, std::__ndk1::allocator<void*> >::__throw_out_of_range[abi:ne180000]() const
PUBLIC 57514 0 std::__ndk1::vector<std::__ndk1::function<void (void*)>, std::__ndk1::allocator<std::__ndk1::function<void (void*)> > >::__throw_out_of_range[abi:ne180000]() const
PUBLIC 57528 0 std::__ndk1::__function::__base<void (void*)>::~__base()
PUBLIC 5752c 0 std::__ndk1::__function::__func<void (*)(void*), std::__ndk1::allocator<void (*)(void*)>, void (void*)>::~__func()
PUBLIC 57530 0 std::__ndk1::__function::__func<void (*)(void*), std::__ndk1::allocator<void (*)(void*)>, void (void*)>::__clone() const
PUBLIC 57568 0 std::__ndk1::__function::__func<void (*)(void*), std::__ndk1::allocator<void (*)(void*)>, void (void*)>::__clone(std::__ndk1::__function::__base<void (void*)>*) const
PUBLIC 57580 0 std::__ndk1::__function::__func<void (*)(void*), std::__ndk1::allocator<void (*)(void*)>, void (void*)>::destroy()
PUBLIC 57584 0 std::__ndk1::__function::__func<void (*)(void*), std::__ndk1::allocator<void (*)(void*)>, void (void*)>::destroy_deallocate()
PUBLIC 57588 0 std::__ndk1::__function::__func<void (*)(void*), std::__ndk1::allocator<void (*)(void*)>, void (void*)>::operator()(void*&&)
PUBLIC 57598 0 std::__ndk1::__function::__func<void (*)(void*), std::__ndk1::allocator<void (*)(void*)>, void (void*)>::target(std::type_info const&) const
PUBLIC 575b4 0 std::__ndk1::__function::__func<void (*)(void*), std::__ndk1::allocator<void (*)(void*)>, void (void*)>::target_type() const
PUBLIC 575c0 0 RLPlayLayer::nodeCleanup(cocos2d::CCNode*)
PUBLIC 575d8 0 ListFetcher::ListFetcher()
PUBLIC 577c8 0 geode::Task<geode::utils::web::WebResponse, geode::utils::web::WebProgress>::~Task()
PUBLIC 57818 0 geode::EventListener<geode::Task<geode::utils::web::WebResponse, geode::utils::web::WebProgress> >::~EventListener()
PUBLIC 578b4 0 ListFetcher::normalListCacheFunction()
PUBLIC 57ff4 0 WebRequestQueue::Request::~Request()
PUBLIC 58078 0 ListFetcher::getRandomNormalListLevel(GJDifficulty, geode::Result<std::__ndk1::pair<rtrp::objects::LevelObject, rtrp::objects::CreatorObject>, std::__ndk1::basic_string<char, std::__ndk1::char_traits<char>, std::__ndk1::allocator<char> > >&)
PUBLIC 58864 0 ListFetcher::getRandomDemonListLevel(geode::Result<std::__ndk1::pair<rtrp::objects::LevelObject, rtrp::objects::CreatorObject>, std::__ndk1::basic_string<char, std::__ndk1::char_traits<char>, std::__ndk1::allocator<char> > >&)
PUBLIC 58bc0 0 ListFetcher::getRandomChallengeListLevel(geode::Result<std::__ndk1::pair<rtrp::objects::LevelObject, rtrp::objects::CreatorObject>, std::__ndk1::basic_string<char, std::__ndk1::char_traits<char>, std::__ndk1::allocator<char> > >&)
PUBLIC 58f1c 0 ListFetcher::getRandomGDListLevel(int, geode::Result<std::__ndk1::pair<rtrp::objects::LevelObject, rtrp::objects::CreatorObject>, std::__ndk1::basic_string<char, std::__ndk1::char_traits<char>, std::__ndk1::allocator<char> > >&)
PUBLIC 59334 0 ListFetcher::getLevelInfo(int, geode::Result<std::__ndk1::pair<rtrp::objects::LevelObject, rtrp::objects::CreatorObject>, std::__ndk1::basic_string<char, std::__ndk1::char_traits<char>, std::__ndk1::allocator<char> > >&)
PUBLIC 596b8 0 std::__ndk1::__exception_guard_exceptions<std::__ndk1::vector<std::__ndk1::basic_string<char, std::__ndk1::char_traits<char>, std::__ndk1::allocator<char> >, std::__ndk1::allocator<std::__ndk1::basic_string<char, std::__ndk1::char_traits<char>, std::__ndk1::allocator<char> > > >::__destroy_vector>::~__exception_guard_exceptions[abi:ne180000]()
PUBLIC 59744 0 std::__ndk1::__exception_guard_exceptions<std::__ndk1::_AllocatorDestroyRangeReverse<std::__ndk1::allocator<std::__ndk1::basic_string<char, std::__ndk1::char_traits<char>, std::__ndk1::allocator<char> > >, std::__ndk1::basic_string<char, std::__ndk1::char_traits<char>, std::__ndk1::allocator<char> >*> >::~__exception_guard_exceptions[abi:ne180000]()
PUBLIC 597a4 0 geode::EventListener<geode::Task<geode::utils::web::WebResponse, geode::utils::web::WebProgress> >::getPool() const
PUBLIC 597a8 0 geode::EventListener<geode::Task<geode::utils::web::WebResponse, geode::utils::web::WebProgress> >::handle(geode::Event*)
PUBLIC 59974 0 geode::EventListener<geode::Task<geode::utils::web::WebResponse, geode::utils::web::WebProgress> >::~EventListener()
PUBLIC 59a18 0 geode::Task<geode::utils::web::WebResponse, geode::utils::web::WebProgress>::setListener(geode::EventListenerProtocol*)
PUBLIC 59c34 0 geode::Task<geode::utils::web::WebResponse, geode::utils::web::WebProgress>::setListener(geode::EventListenerProtocol*)::{lambda()#1}::~{lambda()#1}()
PUBLIC 59c84 0 geode::Task<geode::utils::web::WebResponse, geode::utils::web::WebProgress>::setListener(geode::EventListenerProtocol*)::{lambda()#2}::~{lambda()#2}()
PUBLIC 59cd4 0 std::__ndk1::__function::__func<geode::Task<geode::utils::web::WebResponse, geode::utils::web::WebProgress>::setListener(geode::EventListenerProtocol*)::{lambda()#1}, std::__ndk1::allocator<geode::Task<geode::utils::web::WebResponse, geode::utils::web::WebProgress>::setListener(geode::EventListenerProtocol*)::{lambda()#1}>, void ()>::~__func()
PUBLIC 59d30 0 std::__ndk1::__function::__func<geode::Task<geode::utils::web::WebResponse, geode::utils::web::WebProgress>::setListener(geode::EventListenerProtocol*)::{lambda()#1}, std::__ndk1::allocator<geode::Task<geode::utils::web::WebResponse, geode::utils::web::WebProgress>::setListener(geode::EventListenerProtocol*)::{lambda()#1}>, void ()>::~__func()
PUBLIC 59d9c 0 std::__ndk1::__function::__func<geode::Task<geode::utils::web::WebResponse, geode::utils::web::WebProgress>::setListener(geode::EventListenerProtocol*)::{lambda()#1}, std::__ndk1::allocator<geode::Task<geode::utils::web::WebResponse, geode::utils::web::WebProgress>::setListener(geode::EventListenerProtocol*)::{lambda()#1}>, void ()>::__clone() const
PUBLIC 59df4 0 std::__ndk1::__function::__func<geode::Task<geode::utils::web::WebResponse, geode::utils::web::WebProgress>::setListener(geode::EventListenerProtocol*)::{lambda()#1}, std::__ndk1::allocator<geode::Task<geode::utils::web::WebResponse, geode::utils::web::WebProgress>::setListener(geode::EventListenerProtocol*)::{lambda()#1}>, void ()>::__clone(std::__ndk1::__function::__base<void ()>*) const
PUBLIC 59e40 0 std::__ndk1::__function::__func<geode::Task<geode::utils::web::WebResponse, geode::utils::web::WebProgress>::setListener(geode::EventListenerProtocol*)::{lambda()#1}, std::__ndk1::allocator<geode::Task<geode::utils::web::WebResponse, geode::utils::web::WebProgress>::setListener(geode::EventListenerProtocol*)::{lambda()#1}>, void ()>::destroy()
PUBLIC 59e90 0 std::__ndk1::__function::__func<geode::Task<geode::utils::web::WebResponse, geode::utils::web::WebProgress>::setListener(geode::EventListenerProtocol*)::{lambda()#1}, std::__ndk1::allocator<geode::Task<geode::utils::web::WebResponse, geode::utils::web::WebProgress>::setListener(geode::EventListenerProtocol*)::{lambda()#1}>, void ()>::destroy_deallocate()
PUBLIC 59ef0 0 std::__ndk1::__function::__func<geode::Task<geode::utils::web::WebResponse, geode::utils::web::WebProgress>::setListener(geode::EventListenerProtocol*)::{lambda()#1}, std::__ndk1::allocator<geode::Task<geode::utils::web::WebResponse, geode::utils::web::WebProgress>::setListener(geode::EventListenerProtocol*)::{lambda()#1}>, void ()>::operator()()
PUBLIC 59ef8 0 std::__ndk1::__function::__func<geode::Task<geode::utils::web::WebResponse, geode::utils::web::WebProgress>::setListener(geode::EventListenerProtocol*)::{lambda()#1}, std::__ndk1::allocator<geode::Task<geode::utils::web::WebResponse, geode::utils::web::WebProgress>::setListener(geode::EventListenerProtocol*)::{lambda()#1}>, void ()>::target(std::type_info const&) const
PUBLIC 59f14 0 std::__ndk1::__function::__func<geode::Task<geode::utils::web::WebResponse, geode::utils::web::WebProgress>::setListener(geode::EventListenerProtocol*)::{lambda()#1}, std::__ndk1::allocator<geode::Task<geode::utils::web::WebResponse, geode::utils::web::WebProgress>::setListener(geode::EventListenerProtocol*)::{lambda()#1}>, void ()>::target_type() const
PUBLIC 59f20 0 geode::Task<geode::utils::web::WebResponse, geode::utils::web::WebProgress>::setListener(geode::EventListenerProtocol*)::{lambda()#1}::operator()() const
PUBLIC 5a0f0 0 geode::Task<geode::utils::web::WebResponse, geode::utils::web::WebProgress>::Event::~Event()
PUBLIC 5a150 0 geode::Task<geode::utils::web::WebResponse, geode::utils::web::WebProgress>::Event::~Event()
PUBLIC 5a1c0 0 std::__ndk1::__function::__func<geode::Task<geode::utils::web::WebResponse, geode::utils::web::WebProgress>::setListener(geode::EventListenerProtocol*)::{lambda()#2}, std::__ndk1::allocator<geode::Task<geode::utils::web::WebResponse, geode::utils::web::WebProgress>::setListener(geode::EventListenerProtocol*)::{lambda()#2}>, void ()>::~__func()
PUBLIC 5a21c 0 std::__ndk1::__function::__func<geode::Task<geode::utils::web::WebResponse, geode::utils::web::WebProgress>::setListener(geode::EventListenerProtocol*)::{lambda()#2}, std::__ndk1::allocator<geode::Task<geode::utils::web::WebResponse, geode::utils::web::WebProgress>::setListener(geode::EventListenerProtocol*)::{lambda()#2}>, void ()>::~__func()
PUBLIC 5a288 0 std::__ndk1::__function::__func<geode::Task<geode::utils::web::WebResponse, geode::utils::web::WebProgress>::setListener(geode::EventListenerProtocol*)::{lambda()#2}, std::__ndk1::allocator<geode::Task<geode::utils::web::WebResponse, geode::utils::web::WebProgress>::setListener(geode::EventListenerProtocol*)::{lambda()#2}>, void ()>::__clone() const
PUBLIC 5a2e0 0 std::__ndk1::__function::__func<geode::Task<geode::utils::web::WebResponse, geode::utils::web::WebProgress>::setListener(geode::EventListenerProtocol*)::{lambda()#2}, std::__ndk1::allocator<geode::Task<geode::utils::web::WebResponse, geode::utils::web::WebProgress>::setListener(geode::EventListenerProtocol*)::{lambda()#2}>, void ()>::__clone(std::__ndk1::__function::__base<void ()>*) const
PUBLIC 5a32c 0 std::__ndk1::__function::__func<geode::Task<geode::utils::web::WebResponse, geode::utils::web::WebProgress>::setListener(geode::EventListenerProtocol*)::{lambda()#2}, std::__ndk1::allocator<geode::Task<geode::utils::web::WebResponse, geode::utils::web::WebProgress>::setListener(geode::EventListenerProtocol*)::{lambda()#2}>, void ()>::destroy()
PUBLIC 5a37c 0 std::__ndk1::__function::__func<geode::Task<geode::utils::web::WebResponse, geode::utils::web::WebProgress>::setListener(geode::EventListenerProtocol*)::{lambda()#2}, std::__ndk1::allocator<geode::Task<geode::utils::web::WebResponse, geode::utils::web::WebProgress>::setListener(geode::EventListenerProtocol*)::{lambda()#2}>, void ()>::destroy_deallocate()
PUBLIC 5a3dc 0 std::__ndk1::__function::__func<geode::Task<geode::utils::web::WebResponse, geode::utils::web::WebProgress>::setListener(geode::EventListenerProtocol*)::{lambda()#2}, std::__ndk1::allocator<geode::Task<geode::utils::web::WebResponse, geode::utils::web::WebProgress>::setListener(geode::EventListenerProtocol*)::{lambda()#2}>, void ()>::operator()()
PUBLIC 5a3e4 0 std::__ndk1::__function::__func<geode::Task<geode::utils::web::WebResponse, geode::utils::web::WebProgress>::setListener(geode::EventListenerProtocol*)::{lambda()#2}, std::__ndk1::allocator<geode::Task<geode::utils::web::WebResponse, geode::utils::web::WebProgress>::setListener(geode::EventListenerProtocol*)::{lambda()#2}>, void ()>::target(std::type_info const&) const
PUBLIC 5a400 0 std::__ndk1::__function::__func<geode::Task<geode::utils::web::WebResponse, geode::utils::web::WebProgress>::setListener(geode::EventListenerProtocol*)::{lambda()#2}, std::__ndk1::allocator<geode::Task<geode::utils::web::WebResponse, geode::utils::web::WebProgress>::setListener(geode::EventListenerProtocol*)::{lambda()#2}>, void ()>::target_type() const
PUBLIC 5a40c 0 geode::Task<geode::utils::web::WebResponse, geode::utils::web::WebProgress>::setListener(geode::EventListenerProtocol*)::{lambda()#2}::operator()() const
PUBLIC 5a5d0 0 WebRequestQueue::~WebRequestQueue()
PUBLIC 5a7e8 0 std::__ndk1::__function::__base<void (geode::utils::web::WebResponse*)>::~__base()
PUBLIC 5a7ec 0 std::__ndk1::__function::__func<ListFetcher::normalListCacheFunction()::$_0, std::__ndk1::allocator<ListFetcher::normalListCacheFunction()::$_0>, void (geode::utils::web::WebResponse*)>::~__func()
PUBLIC 5a7f0 0 std::__ndk1::__function::__func<ListFetcher::normalListCacheFunction()::$_0, std::__ndk1::allocator<ListFetcher::normalListCacheFunction()::$_0>, void (geode::utils::web::WebResponse*)>::__clone() const
PUBLIC 5a828 0 std::__ndk1::__function::__func<ListFetcher::normalListCacheFunction()::$_0, std::__ndk1::allocator<ListFetcher::normalListCacheFunction()::$_0>, void (geode::utils::web::WebResponse*)>::__clone(std::__ndk1::__function::__base<void (geode::utils::web::WebResponse*)>*) const
PUBLIC 5a840 0 std::__ndk1::__function::__func<ListFetcher::normalListCacheFunction()::$_0, std::__ndk1::allocator<ListFetcher::normalListCacheFunction()::$_0>, void (geode::utils::web::WebResponse*)>::destroy()
PUBLIC 5a844 0 std::__ndk1::__function::__func<ListFetcher::normalListCacheFunction()::$_0, std::__ndk1::allocator<ListFetcher::normalListCacheFunction()::$_0>, void (geode::utils::web::WebResponse*)>::destroy_deallocate()
PUBLIC 5a848 0 std::__ndk1::__function::__func<ListFetcher::normalListCacheFunction()::$_0, std::__ndk1::allocator<ListFetcher::normalListCacheFunction()::$_0>, void (geode::utils::web::WebResponse*)>::operator()(geode::utils::web::WebResponse*&&)
PUBLIC 5ac68 0 std::__ndk1::__function::__func<ListFetcher::normalListCacheFunction()::$_0, std::__ndk1::allocator<ListFetcher::normalListCacheFunction()::$_0>, void (geode::utils::web::WebResponse*)>::target(std::type_info const&) const
PUBLIC 5ac84 0 std::__ndk1::__function::__func<ListFetcher::normalListCacheFunction()::$_0, std::__ndk1::allocator<ListFetcher::normalListCacheFunction()::$_0>, void (geode::utils::web::WebResponse*)>::target_type() const
PUBLIC 5ac90 0 rtrp::responses::LevelResponse::LevelResponse(rtrp::responses::LevelResponse const&)
PUBLIC 5addc 0 rtrp::responses::LevelResponse::~LevelResponse()
PUBLIC 5aedc 0 geode::impl::ResultData<std::__ndk1::basic_string<char, std::__ndk1::char_traits<char>, std::__ndk1::allocator<char> >, std::__ndk1::basic_string<char, std::__ndk1::char_traits<char>, std::__ndk1::allocator<char> > >::~ResultData()
PUBLIC 5af50 0 _ZN5geode15UnwrapExceptionC2IRKNSt6__ndk112basic_stringIcNS2_11char_traitsIcEENS2_9allocatorIcEEEEQsr4implE18IsStringStreamableIT_EEENS_4impl6ErrTagEOSB_
PUBLIC 5b0b8 0 std::__ndk1::__optional_destruct_base<std::__ndk1::vector<rtrp::objects::SongObject, std::__ndk1::allocator<rtrp::objects::SongObject> >, false>::~__optional_destruct_base[abi:ne180000]()
PUBLIC 5b128 0 std::__ndk1::vector<rtrp::objects::CreatorObject, std::__ndk1::allocator<rtrp::objects::CreatorObject> >::~vector[abi:ne180000]()
PUBLIC 5b1b0 0 std::__ndk1::vector<rtrp::objects::LevelObject, std::__ndk1::allocator<rtrp::objects::LevelObject> >::~vector[abi:ne180000]()
PUBLIC 5b218 0 std::__ndk1::vector<rtrp::objects::LevelObject, std::__ndk1::allocator<rtrp::objects::LevelObject> >::__init_with_size[abi:ne180000]<rtrp::objects::LevelObject*, std::__ndk1::vector<rtrp::objects::LevelObject, std::__ndk1::allocator<rtrp::objects::LevelObject> >::__init_with_size[abi:ne180000]>(rtrp::objects::LevelObject*, std::__ndk1::vector<rtrp::objects::LevelObject, std::__ndk1::allocator<rtrp::objects::LevelObject> >::__init_with_size[abi:ne180000], unsigned long)
PUBLIC 5b348 0 std::__ndk1::__exception_guard_exceptions<std::__ndk1::vector<rtrp::objects::LevelObject, std::__ndk1::allocator<rtrp::objects::LevelObject> >::__destroy_vector>::~__exception_guard_exceptions[abi:ne180000]()
PUBLIC 5b3c4 0 std::__ndk1::vector<rtrp::objects::LevelObject, std::__ndk1::allocator<rtrp::objects::LevelObject> >::__throw_length_error[abi:ne180000]() const
PUBLIC 5b3d8 0 rtrp::objects::LevelObject::LevelObject(rtrp::objects::LevelObject const&)
PUBLIC 5b78c 0 rtrp::objects::LevelObject::~LevelObject()
PUBLIC 5b898 0 std::__ndk1::vector<rtrp::objects::CreatorObject, std::__ndk1::allocator<rtrp::objects::CreatorObject> >::__init_with_size[abi:ne180000]<rtrp::objects::CreatorObject*, std::__ndk1::vector<rtrp::objects::CreatorObject, std::__ndk1::allocator<rtrp::objects::CreatorObject> >::__init_with_size[abi:ne180000]>(rtrp::objects::CreatorObject*, std::__ndk1::vector<rtrp::objects::CreatorObject, std::__ndk1::allocator<rtrp::objects::CreatorObject> >::__init_with_size[abi:ne180000], unsigned long)
PUBLIC 5ba14 0 std::__ndk1::__exception_guard_exceptions<std::__ndk1::vector<rtrp::objects::CreatorObject, std::__ndk1::allocator<rtrp::objects::CreatorObject> >::__destroy_vector>::~__exception_guard_exceptions[abi:ne180000]()
PUBLIC 5baac 0 std::__ndk1::vector<rtrp::objects::CreatorObject, std::__ndk1::allocator<rtrp::objects::CreatorObject> >::__throw_length_error[abi:ne180000]() const
PUBLIC 5bac0 0 std::__ndk1::__exception_guard_exceptions<std::__ndk1::_AllocatorDestroyRangeReverse<std::__ndk1::allocator<rtrp::objects::CreatorObject>, rtrp::objects::CreatorObject*> >::~__exception_guard_exceptions[abi:ne180000]()
PUBLIC 5bb14 0 std::__ndk1::vector<rtrp::objects::SongObject, std::__ndk1::allocator<rtrp::objects::SongObject> >::__init_with_size[abi:ne180000]<rtrp::objects::SongObject*, std::__ndk1::vector<rtrp::objects::SongObject, std::__ndk1::allocator<rtrp::objects::SongObject> >::__init_with_size[abi:ne180000]>(rtrp::objects::SongObject*, std::__ndk1::vector<rtrp::objects::SongObject, std::__ndk1::allocator<rtrp::objects::SongObject> >::__init_with_size[abi:ne180000], unsigned long)
PUBLIC 5bc48 0 std::__ndk1::__exception_guard_exceptions<std::__ndk1::vector<rtrp::objects::SongObject, std::__ndk1::allocator<rtrp::objects::SongObject> >::__destroy_vector>::~__exception_guard_exceptions[abi:ne180000]()
PUBLIC 5bcc4 0 std::__ndk1::vector<rtrp::objects::SongObject, std::__ndk1::allocator<rtrp::objects::SongObject> >::__throw_length_error[abi:ne180000]() const
PUBLIC 5bcd8 0 rtrp::objects::SongObject::SongObject(rtrp::objects::SongObject const&)
PUBLIC 5bec8 0 _ZNSt6__ndk112__destroy_atB8ne180000IN4rtrp7objects10SongObjectETnNS_9enable_ifIXntsr8is_arrayIT_EE5valueEiE4typeELi0EEEvPS5_
PUBLIC 5bf5c 0 std::__ndk1::__variant_detail::__visitation::__base::__dispatcher<(unsigned long)0>::__dispatch[abi:ne180000]<std::__ndk1::__variant_detail::__dtor<std::__ndk1::__variant_detail::__traits<std::__ndk1::basic_string<char, std::__ndk1::char_traits<char>, std::__ndk1::allocator<char> >, std::__ndk1::allocator<char> >, (std::__ndk1::__variant_detail::_Trait)1>::__destroy[abi:ne180000]()::{lambda(auto:1&)#1}, std::__ndk1::__variant_detail::__base<(std::__ndk1::__variant_detail::__traits<std::__ndk1::basic_string<char, std::__ndk1::char_traits<char>, std::__ndk1::allocator<char> >, std::__ndk1::allocator<char> >)1, std::__ndk1::allocator<char>, std::__ndk1::allocator<char> >&>(std::__ndk1::__variant_detail::__dtor<std::__ndk1::__variant_detail::__traits<std::__ndk1::basic_string<char, std::__ndk1::char_traits<char>, std::__ndk1::allocator<char> >, std::__ndk1::allocator<char> >, (std::__ndk1::__variant_detail::_Trait)1>, std::__ndk1::__variant_detail::__base<(std::__ndk1::__variant_detail::__traits<std::__ndk1::basic_string<char, std::__ndk1::char_traits<char>, std::__ndk1::allocator<char> >, std::__ndk1::allocator<char> >)1, std::__ndk1::allocator<char>, std::__ndk1::allocator<char> >&)
PUBLIC 5bf70 0 std::__ndk1::__variant_detail::__visitation::__base::__dispatcher<(unsigned long)1>::__dispatch[abi:ne180000]<std::__ndk1::__variant_detail::__dtor<std::__ndk1::__variant_detail::__traits<std::__ndk1::basic_string<char, std::__ndk1::char_traits<char>, std::__ndk1::allocator<char> >, std::__ndk1::allocator<char> >, (std::__ndk1::__variant_detail::_Trait)1>::__destroy[abi:ne180000]()::{lambda(auto:1&)#1}, std::__ndk1::__variant_detail::__base<(std::__ndk1::__variant_detail::__traits<std::__ndk1::basic_string<char, std::__ndk1::char_traits<char>, std::__ndk1::allocator<char> >, std::__ndk1::allocator<char> >)1, std::__ndk1::allocator<char>, std::__ndk1::allocator<char> >&>(std::__ndk1::__variant_detail::__dtor<std::__ndk1::__variant_detail::__traits<std::__ndk1::basic_string<char, std::__ndk1::char_traits<char>, std::__ndk1::allocator<char> >, std::__ndk1::allocator<char> >, (std::__ndk1::__variant_detail::_Trait)1>, std::__ndk1::__variant_detail::__base<(std::__ndk1::__variant_detail::__traits<std::__ndk1::basic_string<char, std::__ndk1::char_traits<char>, std::__ndk1::allocator<char> >, std::__ndk1::allocator<char> >)1, std::__ndk1::allocator<char>, std::__ndk1::allocator<char> >&)
PUBLIC 5bf84 0 std::__ndk1::__function::__value_func<void (geode::Task<geode::utils::web::WebResponse, geode::utils::web::WebProgress>::Event*)>::swap[abi:ne180000](std::__ndk1::__function::__value_func<void (geode::Task<geode::utils::web::WebResponse, geode::utils::web::WebProgress>::Event*)>&)
PUBLIC 5c11c 0 std::__ndk1::__function::__func<ListFetcher::getRandomNormalListLevel(GJDifficulty, geode::Result<std::__ndk1::pair<rtrp::objects::LevelObject, rtrp::objects::CreatorObject>, std::__ndk1::basic_string<char, std::__ndk1::char_traits<char>, std::__ndk1::allocator<char> > >&)::$_0, std::__ndk1::allocator<ListFetcher::getRandomNormalListLevel(GJDifficulty, geode::Result<std::__ndk1::pair<rtrp::objects::LevelObject, rtrp::objects::CreatorObject>, std::__ndk1::basic_string<char, std::__ndk1::char_traits<char>, std::__ndk1::allocator<char> > >&)::$_0>, void (geode::Task<geode::utils::web::WebResponse, geode::utils::web::WebProgress>::Event*)>::~__func()
PUBLIC 5c120 0 std::__ndk1::__function::__func<ListFetcher::getRandomNormalListLevel(GJDifficulty, geode::Result<std::__ndk1::pair<rtrp::objects::LevelObject, rtrp::objects::CreatorObject>, std::__ndk1::basic_string<char, std::__ndk1::char_traits<char>, std::__ndk1::allocator<char> > >&)::$_0, std::__ndk1::allocator<ListFetcher::getRandomNormalListLevel(GJDifficulty, geode::Result<std::__ndk1::pair<rtrp::objects::LevelObject, rtrp::objects::CreatorObject>, std::__ndk1::basic_string<char, std::__ndk1::char_traits<char>, std::__ndk1::allocator<char> > >&)::$_0>, void (geode::Task<geode::utils::web::WebResponse, geode::utils::web::WebProgress>::Event*)>::__clone() const
PUBLIC 5c160 0 std::__ndk1::__function::__func<ListFetcher::getRandomNormalListLevel(GJDifficulty, geode::Result<std::__ndk1::pair<rtrp::objects::LevelObject, rtrp::objects::CreatorObject>, std::__ndk1::basic_string<char, std::__ndk1::char_traits<char>, std::__ndk1::allocator<char> > >&)::$_0, std::__ndk1::allocator<ListFetcher::getRandomNormalListLevel(GJDifficulty, geode::Result<std::__ndk1::pair<rtrp::objects::LevelObject, rtrp::objects::CreatorObject>, std::__ndk1::basic_string<char, std::__ndk1::char_traits<char>, std::__ndk1::allocator<char> > >&)::$_0>, void (geode::Task<geode::utils::web::WebResponse, geode::utils::web::WebProgress>::Event*)>::__clone(std::__ndk1::__function::__base<void (geode::Task<geode::utils::web::WebResponse, geode::utils::web::WebProgress>::Event*)>*) const
PUBLIC 5c180 0 std::__ndk1::__function::__func<ListFetcher::getRandomNormalListLevel(GJDifficulty, geode::Result<std::__ndk1::pair<rtrp::objects::LevelObject, rtrp::objects::CreatorObject>, std::__ndk1::basic_string<char, std::__ndk1::char_traits<char>, std::__ndk1::allocator<char> > >&)::$_0, std::__ndk1::allocator<ListFetcher::getRandomNormalListLevel(GJDifficulty, geode::Result<std::__ndk1::pair<rtrp::objects::LevelObject, rtrp::objects::CreatorObject>, std::__ndk1::basic_string<char, std::__ndk1::char_traits<char>, std::__ndk1::allocator<char> > >&)::$_0>, void (geode::Task<geode::utils::web::WebResponse, geode::utils::web::WebProgress>::Event*)>::destroy()
PUBLIC 5c184 0 std::__ndk1::__function::__func<ListFetcher::getRandomNormalListLevel(GJDifficulty, geode::Result<std::__ndk1::pair<rtrp::objects::LevelObject, rtrp::objects::CreatorObject>, std::__ndk1::basic_string<char, std::__ndk1::char_traits<char>, std::__ndk1::allocator<char> > >&)::$_0, std::__ndk1::allocator<ListFetcher::getRandomNormalListLevel(GJDifficulty, geode::Result<std::__ndk1::pair<rtrp::objects::LevelObject, rtrp::objects::CreatorObject>, std::__ndk1::basic_string<char, std::__ndk1::char_traits<char>, std::__ndk1::allocator<char> > >&)::$_0>, void (geode::Task<geode::utils::web::WebResponse, geode::utils::web::WebProgress>::Event*)>::destroy_deallocate()
PUBLIC 5c188 0 std::__ndk1::__function::__func<ListFetcher::getRandomNormalListLevel(GJDifficulty, geode::Result<std::__ndk1::pair<rtrp::objects::LevelObject, rtrp::objects::CreatorObject>, std::__ndk1::basic_string<char, std::__ndk1::char_traits<char>, std::__ndk1::allocator<char> > >&)::$_0, std::__ndk1::allocator<ListFetcher::getRandomNormalListLevel(GJDifficulty, geode::Result<std::__ndk1::pair<rtrp::objects::LevelObject, rtrp::objects::CreatorObject>, std::__ndk1::basic_string<char, std::__ndk1::char_traits<char>, std::__ndk1::allocator<char> > >&)::$_0>, void (geode::Task<geode::utils::web::WebResponse, geode::utils::web::WebProgress>::Event*)>::operator()(geode::Task<geode::utils::web::WebResponse, geode::utils::web::WebProgress>::Event*&&)
PUBLIC 5d078 0 std::__ndk1::__function::__func<ListFetcher::getRandomNormalListLevel(GJDifficulty, geode::Result<std::__ndk1::pair<rtrp::objects::LevelObject, rtrp::objects::CreatorObject>, std::__ndk1::basic_string<char, std::__ndk1::char_traits<char>, std::__ndk1::allocator<char> > >&)::$_0, std::__ndk1::allocator<ListFetcher::getRandomNormalListLevel(GJDifficulty, geode::Result<std::__ndk1::pair<rtrp::objects::LevelObject, rtrp::objects::CreatorObject>, std::__ndk1::basic_string<char, std::__ndk1::char_traits<char>, std::__ndk1::allocator<char> > >&)::$_0>, void (geode::Task<geode::utils::web::WebResponse, geode::utils::web::WebProgress>::Event*)>::target(std::type_info const&) const
PUBLIC 5d094 0 std::__ndk1::__function::__func<ListFetcher::getRandomNormalListLevel(GJDifficulty, geode::Result<std::__ndk1::pair<rtrp::objects::LevelObject, rtrp::objects::CreatorObject>, std::__ndk1::basic_string<char, std::__ndk1::char_traits<char>, std::__ndk1::allocator<char> > >&)::$_0, std::__ndk1::allocator<ListFetcher::getRandomNormalListLevel(GJDifficulty, geode::Result<std::__ndk1::pair<rtrp::objects::LevelObject, rtrp::objects::CreatorObject>, std::__ndk1::basic_string<char, std::__ndk1::char_traits<char>, std::__ndk1::allocator<char> > >&)::$_0>, void (geode::Task<geode::utils::web::WebResponse, geode::utils::web::WebProgress>::Event*)>::target_type() const
PUBLIC 5d0a0 0 geode::Result<std::__ndk1::pair<rtrp::objects::LevelObject, rtrp::objects::CreatorObject>, std::__ndk1::basic_string<char, std::__ndk1::char_traits<char>, std::__ndk1::allocator<char> > >::operator=(geode::Result<std::__ndk1::pair<rtrp::objects::LevelObject, rtrp::objects::CreatorObject>, std::__ndk1::basic_string<char, std::__ndk1::char_traits<char>, std::__ndk1::allocator<char> > >&&)
PUBLIC 5d15c 0 geode::impl::ResultData<std::__ndk1::pair<rtrp::objects::LevelObject, rtrp::objects::CreatorObject>, std::__ndk1::basic_string<char, std::__ndk1::char_traits<char>, std::__ndk1::allocator<char> > >::~ResultData()
PUBLIC 5d1d0 0 std::__ndk1::basic_string<char, std::__ndk1::char_traits<char>, std::__ndk1::allocator<char> >::substr[abi:ne180000](unsigned long, unsigned long) const
PUBLIC 5d290 0 std::__ndk1::__variant_detail::__visitation::__base::__dispatcher<(unsigned long)0>::__dispatch[abi:ne180000]<std::__ndk1::__variant_detail::__dtor<std::__ndk1::__variant_detail::__traits<std::__ndk1::pair<rtrp::objects::LevelObject, rtrp::CreatorObject>, std::__ndk1::basic_string<char, std::__ndk1::char_traits<char>, std::__ndk1::allocator<char> > >, (std::__ndk1::__variant_detail::_Trait)1>::__destroy[abi:ne180000]()::{lambda(auto:1&)#1}, std::__ndk1::__variant_detail::__base<(std::__ndk1::__variant_detail::__traits<std::__ndk1::pair<rtrp::objects::LevelObject, rtrp::CreatorObject>, std::__ndk1::basic_string<char, std::__ndk1::char_traits<char>, std::__ndk1::allocator<char> > >)1, rtrp::CreatorObject, std::__ndk1::allocator<char> >&>(std::__ndk1::__variant_detail::__dtor<std::__ndk1::__variant_detail::__traits<std::__ndk1::pair<rtrp::objects::LevelObject, rtrp::CreatorObject>, std::__ndk1::basic_string<char, std::__ndk1::char_traits<char>, std::__ndk1::allocator<char> > >, (std::__ndk1::__variant_detail::_Trait)1>, std::__ndk1::__variant_detail::__base<(std::__ndk1::__variant_detail::__traits<std::__ndk1::pair<rtrp::objects::LevelObject, rtrp::CreatorObject>, std::__ndk1::basic_string<char, std::__ndk1::char_traits<char>, std::__ndk1::allocator<char> > >)1, rtrp::CreatorObject, std::__ndk1::allocator<char> >&)
PUBLIC 5d2c0 0 std::__ndk1::__variant_detail::__visitation::__base::__dispatcher<(unsigned long)1>::__dispatch[abi:ne180000]<std::__ndk1::__variant_detail::__dtor<std::__ndk1::__variant_detail::__traits<std::__ndk1::pair<rtrp::objects::LevelObject, rtrp::CreatorObject>, std::__ndk1::basic_string<char, std::__ndk1::char_traits<char>, std::__ndk1::allocator<char> > >, (std::__ndk1::__variant_detail::_Trait)1>::__destroy[abi:ne180000]()::{lambda(auto:1&)#1}, std::__ndk1::__variant_detail::__base<(std::__ndk1::__variant_detail::__traits<std::__ndk1::pair<rtrp::objects::LevelObject, rtrp::CreatorObject>, std::__ndk1::basic_string<char, std::__ndk1::char_traits<char>, std::__ndk1::allocator<char> > >)1, rtrp::CreatorObject, std::__ndk1::allocator<char> >&>(std::__ndk1::__variant_detail::__dtor<std::__ndk1::__variant_detail::__traits<std::__ndk1::pair<rtrp::objects::LevelObject, rtrp::CreatorObject>, std::__ndk1::basic_string<char, std::__ndk1::char_traits<char>, std::__ndk1::allocator<char> > >, (std::__ndk1::__variant_detail::_Trait)1>, std::__ndk1::__variant_detail::__base<(std::__ndk1::__variant_detail::__traits<std::__ndk1::pair<rtrp::objects::LevelObject, rtrp::CreatorObject>, std::__ndk1::basic_string<char, std::__ndk1::char_traits<char>, std::__ndk1::allocator<char> > >)1, rtrp::CreatorObject, std::__ndk1::allocator<char> >&)
PUBLIC 5d2d4 0 std::__ndk1::__variant_detail::__visitation::__base::__dispatcher<(unsigned long)0, (unsigned long)0>::__dispatch[abi:ne180000]<std::__ndk1::__variant_detail::__assignment<std::__ndk1::__variant_detail::__traits<std::__ndk1::pair<rtrp::objects::LevelObject, rtrp::CreatorObject>, std::__ndk1::basic_string<char, std::__ndk1::char_traits<char>, std::__ndk1::allocator<char> > > >::__generic_assign[abi:ne180000]<std::__ndk1::__variant_detail::__move_assignment<std::__ndk1::basic_string<char, std::__ndk1::char_traits<char>, std::__ndk1::allocator<char> >, (std::__ndk1::__variant_detail::_Trait)1> >(std::__ndk1::__variant_detail::__move_assignment<std::__ndk1::basic_string<char, std::__ndk1::char_traits<char>, std::__ndk1::allocator<char> >, (std::__ndk1::__variant_detail::_Trait)1>&&)::{lambda(std::__ndk1::__variant_detail::_Trait&, auto:2&&)#1}, std::__ndk1::__variant_detail::__base<(std::__ndk1::__variant_detail::__assignment<std::__ndk1::__variant_detail::__traits<std::__ndk1::pair<rtrp::objects::LevelObject, rtrp::CreatorObject>, std::__ndk1::basic_string<char, std::__ndk1::char_traits<char>, std::__ndk1::allocator<char> > > >::__generic_assign[abi:ne180000])1, rtrp::CreatorObject, std::__ndk1::allocator<char> >&, std::__ndk1::__variant_detail::__assignment<std::__ndk1::__variant_detail::__traits<std::__ndk1::pair<rtrp::objects::LevelObject, rtrp::CreatorObject>, std::__ndk1::basic_string<char, std::__ndk1::char_traits<char>, std::__ndk1::allocator<char> > > >::__generic_assign[abi:ne180000]<std::__ndk1::__variant_detail::__move_assignment<std::__ndk1::basic_string<char, std::__ndk1::char_traits<char>, std::__ndk1::allocator<char> >, (std::__ndk1::__variant_detail::_Trait)1> >(std::__ndk1::__variant_detail::__move_assignment<std::__ndk1::basic_string<char, std::__ndk1::char_traits<char>, std::__ndk1::allocator<char> >, (std::__ndk1::__variant_detail::_Trait)1>&&)::{lambda(std::__ndk1::__variant_detail::_Trait&, auto:2&&)#1}>(std::__ndk1::__variant_detail::_Trait, std::__ndk1::__variant_detail::__base<(std::__ndk1::__variant_detail::__assignment<std::__ndk1::__variant_detail::__traits<std::__ndk1::pair<rtrp::objects::LevelObject, rtrp::CreatorObject>, std::__ndk1::basic_string<char, std::__ndk1::char_traits<char>, std::__ndk1::allocator<char> > > >::__generic_assign[abi:ne180000])1, rtrp::CreatorObject, std::__ndk1::allocator<char> >&, std::__ndk1::__variant_detail::__assignment<std::__ndk1::__variant_detail::__traits<std::__ndk1::pair<rtrp::objects::LevelObject, rtrp::CreatorObject>, std::__ndk1::basic_string<char, std::__ndk1::char_traits<char>, std::__ndk1::allocator<char> > > >::__generic_assign[abi:ne180000]<std::__ndk1::__variant_detail::__move_assignment<std::__ndk1::basic_string<char, std::__ndk1::char_traits<char>, std::__ndk1::allocator<char> >, (std::__ndk1::__variant_detail::_Trait)1> >(std::__ndk1::__variant_detail::__move_assignment<std::__ndk1::basic_string<char, std::__ndk1::char_traits<char>, std::__ndk1::allocator<char> >, (std::__ndk1::__variant_detail::_Trait)1>&&)::{lambda(std::__ndk1::__variant_detail::_Trait&, auto:2&&)#1})
PUBLIC 5d2dc 0 std::__ndk1::__variant_detail::__visitation::__base::__dispatcher<(unsigned long)1, (unsigned long)1>::__dispatch[abi:ne180000]<std::__ndk1::__variant_detail::__assignment<std::__ndk1::__variant_detail::__traits<std::__ndk1::pair<rtrp::objects::LevelObject, rtrp::CreatorObject>, std::__ndk1::basic_string<char, std::__ndk1::char_traits<char>, std::__ndk1::allocator<char> > > >::__generic_assign[abi:ne180000]<std::__ndk1::__variant_detail::__move_assignment<std::__ndk1::basic_string<char, std::__ndk1::char_traits<char>, std::__ndk1::allocator<char> >, (std::__ndk1::__variant_detail::_Trait)1> >(std::__ndk1::__variant_detail::__move_assignment<std::__ndk1::basic_string<char, std::__ndk1::char_traits<char>, std::__ndk1::allocator<char> >, (std::__ndk1::__variant_detail::_Trait)1>&&)::{lambda(std::__ndk1::__variant_detail::_Trait&, auto:2&&)#1}, std::__ndk1::__variant_detail::__base<(std::__ndk1::__variant_detail::__assignment<std::__ndk1::__variant_detail::__traits<std::__ndk1::pair<rtrp::objects::LevelObject, rtrp::CreatorObject>, std::__ndk1::basic_string<char, std::__ndk1::char_traits<char>, std::__ndk1::allocator<char> > > >::__generic_assign[abi:ne180000])1, rtrp::CreatorObject, std::__ndk1::allocator<char> >&, std::__ndk1::__variant_detail::__assignment<std::__ndk1::__variant_detail::__traits<std::__ndk1::pair<rtrp::objects::LevelObject, rtrp::CreatorObject>, std::__ndk1::basic_string<char, std::__ndk1::char_traits<char>, std::__ndk1::allocator<char> > > >::__generic_assign[abi:ne180000]<std::__ndk1::__variant_detail::__move_assignment<std::__ndk1::basic_string<char, std::__ndk1::char_traits<char>, std::__ndk1::allocator<char> >, (std::__ndk1::__variant_detail::_Trait)1> >(std::__ndk1::__variant_detail::__move_assignment<std::__ndk1::basic_string<char, std::__ndk1::char_traits<char>, std::__ndk1::allocator<char> >, (std::__ndk1::__variant_detail::_Trait)1>&&)::{lambda(std::__ndk1::__variant_detail::_Trait&, auto:2&&)#1}>(std::__ndk1::__variant_detail::_Trait, std::__ndk1::__variant_detail::__base<(std::__ndk1::__variant_detail::__assignment<std::__ndk1::__variant_detail::__traits<std::__ndk1::pair<rtrp::objects::LevelObject, rtrp::CreatorObject>, std::__ndk1::basic_string<char, std::__ndk1::char_traits<char>, std::__ndk1::allocator<char> > > >::__generic_assign[abi:ne180000])1, rtrp::CreatorObject, std::__ndk1::allocator<char> >&, std::__ndk1::__variant_detail::__assignment<std::__ndk1::__variant_detail::__traits<std::__ndk1::pair<rtrp::objects::LevelObject, rtrp::CreatorObject>, std::__ndk1::basic_string<char, std::__ndk1::char_traits<char>, std::__ndk1::allocator<char> > > >::__generic_assign[abi:ne180000]<std::__ndk1::__variant_detail::__move_assignment<std::__ndk1::basic_string<char, std::__ndk1::char_traits<char>, std::__ndk1::allocator<char> >, (std::__ndk1::__variant_detail::_Trait)1> >(std::__ndk1::__variant_detail::__move_assignment<std::__ndk1::basic_string<char, std::__ndk1::char_traits<char>, std::__ndk1::allocator<char> >, (std::__ndk1::__variant_detail::_Trait)1>&&)::{lambda(std::__ndk1::__variant_detail::_Trait&, auto:2&&)#1})
PUBLIC 5d3b4 0 std::__ndk1::__variant_detail::__assignment<std::__ndk1::__variant_detail::__traits<std::__ndk1::pair<rtrp::objects::LevelObject, rtrp::objects::CreatorObject>, std::__ndk1::basic_string<char, std::__ndk1::char_traits<char>, std::__ndk1::allocator<char> > > >::__assign_alt[abi:ne180000]<(unsigned long)0, std::__ndk1::pair<rtrp::objects::LevelObject, rtrp::objects::CreatorObject>, std::__ndk1::pair<rtrp::objects::LevelObject, rtrp::objects::CreatorObject> >(std::__ndk1::__variant_detail::__alt<(unsigned long)0, std::__ndk1::pair<rtrp::objects::LevelObject, rtrp::objects::CreatorObject> >&, std::__ndk1::pair<rtrp::objects::LevelObject, rtrp::objects::CreatorObject>&&)
PUBLIC 5d60c 0 rtrp::objects::LevelObject::operator=(rtrp::objects::LevelObject&&)
PUBLIC 5d820 0 std::__ndk1::basic_string<char, std::__ndk1::char_traits<char>, std::__ndk1::allocator<char> >::__throw_out_of_range[abi:ne180000]() const
PUBLIC 5d834 0 std::__ndk1::uniform_int_distribution<unsigned long>::operator()<std::__ndk1::mersenne_twister_engine<unsigned long, (unsigned long)32, (unsigned long)624, (unsigned long)397, (unsigned long)31, (unsigned long)2567483615, (unsigned long)11, (unsigned long)4294967295, (unsigned long)7, (unsigned long)2636928640, (unsigned long)15, (unsigned long)4022730752, (unsigned long)18, (unsigned long)1812433253> >(std::__ndk1::mersenne_twister_engine<unsigned long, (unsigned long)32, (unsigned long)624, (unsigned long)397, (unsigned long)31, (unsigned long)2567483615, (unsigned long)11, (unsigned long)4294967295, (unsigned long)7, (unsigned long)2636928640, (unsigned long)15, (unsigned long)4022730752, (unsigned long)18, (unsigned long)1812433253>&, std::__ndk1::uniform_int_distribution<unsigned long>::param_type const&)
PUBLIC 5da04 0 std::__ndk1::__independent_bits_engine<std::__ndk1::mersenne_twister_engine<unsigned long, (unsigned long)32, (unsigned long)624, (unsigned long)397, (unsigned long)31, (unsigned long)2567483615, (unsigned long)11, (unsigned long)4294967295, (unsigned long)7, (unsigned long)2636928640, (unsigned long)15, (unsigned long)4022730752, (unsigned long)18, (unsigned long)1812433253>, unsigned long>::__eval(std::__ndk1::integral_constant<bool, true>)
PUBLIC 5dc04 0 CacheManager::getValue<(CMKey)0>()
PUBLIC 5dea8 0 matjson::Value::as<unsigned long>() const
PUBLIC 5dfac 0 matjson::Value::get<matjson::Value, std::__ndk1::basic_string_view<char, std::__ndk1::char_traits<char> > >(std::__ndk1::basic_string_view<char, std::__ndk1::char_traits<char> >&&)
PUBLIC 5e0e8 0 matjson::Value::get<unsigned long, char const (&) [5]>(char const (&) [5])
PUBLIC 5e23c 0 CacheManager::setValue<(CMKey)0>(CacheManager::CMKeyTrait<(CMKey)0>::type const&)
PUBLIC 5e3a8 0 CacheManager::callCacheFunction<(CMKey)0>()
PUBLIC 5e464 0 geode::impl::ResultData<matjson::Value, std::__ndk1::basic_string<char, std::__ndk1::char_traits<char>, std::__ndk1::allocator<char> > >::~ResultData()
PUBLIC 5e4d8 0 geode::impl::ResultData<matjson::Value&, std::__ndk1::basic_string<char, std::__ndk1::char_traits<char>, std::__ndk1::allocator<char> > >::~ResultData()
PUBLIC 5e54c 0 _ZN5geode15UnwrapExceptionC2IRNSt6__ndk112basic_stringIcNS2_11char_traitsIcEENS2_9allocatorIcEEEEQsr4implE18IsStringStreamableIT_EEENS_4impl6ErrTagEOSA_
PUBLIC 5e6b4 0 std::__ndk1::__variant_detail::__visitation::__base::__dispatcher<(unsigned long)0>::__dispatch[abi:ne180000]<std::__ndk1::__variant_detail::__dtor<std::__ndk1::__variant_detail::__traits<std::__ndk1::reference_wrapper<matjson::Value>, std::__ndk1::basic_string<char, std::__ndk1::char_traits<char>, std::__ndk1::allocator<char> > >, (std::__ndk1::__variant_detail::_Trait)1>::__destroy[abi:ne180000]()::{lambda(auto:1&)#1}, std::__ndk1::__variant_detail::__base<(std::__ndk1::__variant_detail::__traits<std::__ndk1::reference_wrapper<matjson::Value>, std::__ndk1::basic_string<char, std::__ndk1::char_traits<char>, std::__ndk1::allocator<char> > >)1, matjson::Value, std::__ndk1::allocator<char> >&>(std::__ndk1::__variant_detail::__dtor<std::__ndk1::__variant_detail::__traits<std::__ndk1::reference_wrapper<matjson::Value>, std::__ndk1::basic_string<char, std::__ndk1::char_traits<char>, std::__ndk1::allocator<char> > >, (std::__ndk1::__variant_detail::_Trait)1>, std::__ndk1::__variant_detail::__base<(std::__ndk1::__variant_detail::__traits<std::__ndk1::reference_wrapper<matjson::Value>, std::__ndk1::basic_string<char, std::__ndk1::char_traits<char>, std::__ndk1::allocator<char> > >)1, matjson::Value, std::__ndk1::allocator<char> >&)
PUBLIC 5e6b8 0 std::__ndk1::__variant_detail::__visitation::__base::__dispatcher<(unsigned long)1>::__dispatch[abi:ne180000]<std::__ndk1::__variant_detail::__dtor<std::__ndk1::__variant_detail::__traits<std::__ndk1::reference_wrapper<matjson::Value>, std::__ndk1::basic_string<char, std::__ndk1::char_traits<char>, std::__ndk1::allocator<char> > >, (std::__ndk1::__variant_detail::_Trait)1>::__destroy[abi:ne180000]()::{lambda(auto:1&)#1}, std::__ndk1::__variant_detail::__base<(std::__ndk1::__variant_detail::__traits<std::__ndk1::reference_wrapper<matjson::Value>, std::__ndk1::basic_string<char, std::__ndk1::char_traits<char>, std::__ndk1::allocator<char> > >)1, matjson::Value, std::__ndk1::allocator<char> >&>(std::__ndk1::__variant_detail::__dtor<std::__ndk1::__variant_detail::__traits<std::__ndk1::reference_wrapper<matjson::Value>, std::__ndk1::basic_string<char, std::__ndk1::char_traits<char>, std::__ndk1::allocator<char> > >, (std::__ndk1::__variant_detail::_Trait)1>, std::__ndk1::__variant_detail::__base<(std::__ndk1::__variant_detail::__traits<std::__ndk1::reference_wrapper<matjson::Value>, std::__ndk1::basic_string<char, std::__ndk1::char_traits<char>, std::__ndk1::allocator<char> > >)1, matjson::Value, std::__ndk1::allocator<char> >&)
PUBLIC 5e6cc 0 matjson::makeObject(std::initializer_list<std::__ndk1::pair<std::__ndk1::basic_string<char, std::__ndk1::char_traits<char>, std::__ndk1::allocator<char> >, matjson::Value> >)
PUBLIC 5e880 0 _ZNSt6__ndk14pairINS_12basic_stringIcNS_11char_traitsIcEENS_9allocatorIcEEEEN7matjson5ValueEEC2B8ne180000IRA5_KcmTnNS_9enable_ifIXclsr10_CheckArgsE17__enable_implicitIT_T0_EEEiE4typeELi0EEEOSF_OSG_
PUBLIC 5e944 0 _ZNSt6__ndk14pairINS_12basic_stringIcNS_11char_traitsIcEENS_9allocatorIcEEEEN7matjson5ValueEEC2B8ne180000IRA6_KcRKS8_TnNS_9enable_ifIXclsr10_CheckArgsE17__enable_implicitIT_T0_EEEiE4typeELi0EEEOSH_OSI_
PUBLIC 5ea08 0 std::__ndk1::pair<std::__ndk1::basic_string<char, std::__ndk1::char_traits<char>, std::__ndk1::allocator<char> >, matjson::Value>::~pair()
PUBLIC 5ea44 0 std::__ndk1::vector<matjson::Value, std::__ndk1::allocator<matjson::Value> >::~vector[abi:ne180000]()
PUBLIC 5eaac 0 std::__ndk1::vector<matjson::Value, std::__ndk1::allocator<matjson::Value> >::__emplace_back_slow_path<matjson::Value const&>(matjson::Value const&)
PUBLIC 5ec50 0 std::__ndk1::__split_buffer<matjson::Value, std::__ndk1::allocator<matjson::Value>&>::~__split_buffer()
PUBLIC 5eca4 0 std::__ndk1::vector<matjson::Value, std::__ndk1::allocator<matjson::Value> >::__throw_length_error[abi:ne180000]() const
PUBLIC 5ecb8 0 std::__ndk1::__variant_detail::__visitation::__base::__dispatcher<(unsigned long)0>::__dispatch[abi:ne180000]<std::__ndk1::__variant_detail::__dtor<std::__ndk1::__variant_detail::__traits<matjson::Value, std::__ndk1::basic_string<char, std::__ndk1::char_traits<char>, std::__ndk1::allocator<char> > >, (std::__ndk1::__variant_detail::_Trait)1>::__destroy[abi:ne180000]()::{lambda(auto:1&)#1}, std::__ndk1::__variant_detail::__base<(std::__ndk1::__variant_detail::__traits<matjson::Value, std::__ndk1::basic_string<char, std::__ndk1::char_traits<char>, std::__ndk1::allocator<char> > >)1, matjson, std::__ndk1::allocator<char> >&>(std::__ndk1::__variant_detail::__dtor<std::__ndk1::__variant_detail::__traits<matjson::Value, std::__ndk1::basic_string<char, std::__ndk1::char_traits<char>, std::__ndk1::allocator<char> > >, (std::__ndk1::__variant_detail::_Trait)1>, std::__ndk1::__variant_detail::__base<(std::__ndk1::__variant_detail::__traits<matjson::Value, std::__ndk1::basic_string<char, std::__ndk1::char_traits<char>, std::__ndk1::allocator<char> > >)1, matjson, std::__ndk1::allocator<char> >&)
PUBLIC 5ecc0 0 std::__ndk1::__variant_detail::__visitation::__base::__dispatcher<(unsigned long)1>::__dispatch[abi:ne180000]<std::__ndk1::__variant_detail::__dtor<std::__ndk1::__variant_detail::__traits<matjson::Value, std::__ndk1::basic_string<char, std::__ndk1::char_traits<char>, std::__ndk1::allocator<char> > >, (std::__ndk1::__variant_detail::_Trait)1>::__destroy[abi:ne180000]()::{lambda(auto:1&)#1}, std::__ndk1::__variant_detail::__base<(std::__ndk1::__variant_detail::__traits<matjson::Value, std::__ndk1::basic_string<char, std::__ndk1::char_traits<char>, std::__ndk1::allocator<char> > >)1, matjson, std::__ndk1::allocator<char> >&>(std::__ndk1::__variant_detail::__dtor<std::__ndk1::__variant_detail::__traits<matjson::Value, std::__ndk1::basic_string<char, std::__ndk1::char_traits<char>, std::__ndk1::allocator<char> > >, (std::__ndk1::__variant_detail::_Trait)1>, std::__ndk1::__variant_detail::__base<(std::__ndk1::__variant_detail::__traits<matjson::Value, std::__ndk1::basic_string<char, std::__ndk1::char_traits<char>, std::__ndk1::allocator<char> > >)1, matjson, std::__ndk1::allocator<char> >&)
PUBLIC 5ecd4 0 std::__ndk1::__variant_detail::__visitation::__base::__dispatcher<(unsigned long)0>::__dispatch[abi:ne180000]<std::__ndk1::__variant_detail::__dtor<std::__ndk1::__variant_detail::__traits<unsigned long, std::__ndk1::basic_string<char, std::__ndk1::char_traits<char>, std::__ndk1::allocator<char> > >, (std::__ndk1::__variant_detail::_Trait)1>::__destroy[abi:ne180000]()::{lambda(auto:1&)#1}, std::__ndk1::__variant_detail::__base<(std::__ndk1::__variant_detail::__traits<unsigned long, std::__ndk1::basic_string<char, std::__ndk1::char_traits<char>, std::__ndk1::allocator<char> > >)1, unsigned long, std::__ndk1::allocator<char> >&>(std::__ndk1::__variant_detail::__dtor<std::__ndk1::__variant_detail::__traits<unsigned long, std::__ndk1::basic_string<char, std::__ndk1::char_traits<char>, std::__ndk1::allocator<char> > >, (std::__ndk1::__variant_detail::_Trait)1>, std::__ndk1::__variant_detail::__base<(std::__ndk1::__variant_detail::__traits<unsigned long, std::__ndk1::basic_string<char, std::__ndk1::char_traits<char>, std::__ndk1::allocator<char> > >)1, unsigned long, std::__ndk1::allocator<char> >&)
PUBLIC 5ecd8 0 std::__ndk1::__variant_detail::__visitation::__base::__dispatcher<(unsigned long)1>::__dispatch[abi:ne180000]<std::__ndk1::__variant_detail::__dtor<std::__ndk1::__variant_detail::__traits<unsigned long, std::__ndk1::basic_string<char, std::__ndk1::char_traits<char>, std::__ndk1::allocator<char> > >, (std::__ndk1::__variant_detail::_Trait)1>::__destroy[abi:ne180000]()::{lambda(auto:1&)#1}, std::__ndk1::__variant_detail::__base<(std::__ndk1::__variant_detail::__traits<unsigned long, std::__ndk1::basic_string<char, std::__ndk1::char_traits<char>, std::__ndk1::allocator<char> > >)1, unsigned long, std::__ndk1::allocator<char> >&>(std::__ndk1::__variant_detail::__dtor<std::__ndk1::__variant_detail::__traits<unsigned long, std::__ndk1::basic_string<char, std::__ndk1::char_traits<char>, std::__ndk1::allocator<char> > >, (std::__ndk1::__variant_detail::_Trait)1>, std::__ndk1::__variant_detail::__base<(std::__ndk1::__variant_detail::__traits<unsigned long, std::__ndk1::basic_string<char, std::__ndk1::char_traits<char>, std::__ndk1::allocator<char> > >)1, unsigned long, std::__ndk1::allocator<char> >&)
PUBLIC 5ecec 0 std::__ndk1::__function::__func<ListFetcher::getRandomDemonListLevel(geode::Result<std::__ndk1::pair<rtrp::objects::LevelObject, rtrp::objects::CreatorObject>, std::__ndk1::basic_string<char, std::__ndk1::char_traits<char>, std::__ndk1::allocator<char> > >&)::$_0, std::__ndk1::allocator<ListFetcher::getRandomDemonListLevel(geode::Result<std::__ndk1::pair<rtrp::objects::LevelObject, rtrp::objects::CreatorObject>, std::__ndk1::basic_string<char, std::__ndk1::char_traits<char>, std::__ndk1::allocator<char> > >&)::$_0>, void (geode::Task<geode::utils::web::WebResponse, geode::utils::web::WebProgress>::Event*)>::~__func()
PUBLIC 5ecf0 0 std::__ndk1::__function::__func<ListFetcher::getRandomDemonListLevel(geode::Result<std::__ndk1::pair<rtrp::objects::LevelObject, rtrp::objects::CreatorObject>, std::__ndk1::basic_string<char, std::__ndk1::char_traits<char>, std::__ndk1::allocator<char> > >&)::$_0, std::__ndk1::allocator<ListFetcher::getRandomDemonListLevel(geode::Result<std::__ndk1::pair<rtrp::objects::LevelObject, rtrp::objects::CreatorObject>, std::__ndk1::basic_string<char, std::__ndk1::char_traits<char>, std::__ndk1::allocator<char> > >&)::$_0>, void (geode::Task<geode::utils::web::WebResponse, geode::utils::web::WebProgress>::Event*)>::__clone() const
PUBLIC 5ed28 0 std::__ndk1::__function::__func<ListFetcher::getRandomDemonListLevel(geode::Result<std::__ndk1::pair<rtrp::objects::LevelObject, rtrp::objects::CreatorObject>, std::__ndk1::basic_string<char, std::__ndk1::char_traits<char>, std::__ndk1::allocator<char> > >&)::$_0, std::__ndk1::allocator<ListFetcher::getRandomDemonListLevel(geode::Result<std::__ndk1::pair<rtrp::objects::LevelObject, rtrp::objects::CreatorObject>, std::__ndk1::basic_string<char, std::__ndk1::char_traits<char>, std::__ndk1::allocator<char> > >&)::$_0>, void (geode::Task<geode::utils::web::WebResponse, geode::utils::web::WebProgress>::Event*)>::__clone(std::__ndk1::__function::__base<void (geode::Task<geode::utils::web::WebResponse, geode::utils::web::WebProgress>::Event*)>*) const
PUBLIC 5ed40 0 std::__ndk1::__function::__func<ListFetcher::getRandomDemonListLevel(geode::Result<std::__ndk1::pair<rtrp::objects::LevelObject, rtrp::objects::CreatorObject>, std::__ndk1::basic_string<char, std::__ndk1::char_traits<char>, std::__ndk1::allocator<char> > >&)::$_0, std::__ndk1::allocator<ListFetcher::getRandomDemonListLevel(geode::Result<std::__ndk1::pair<rtrp::objects::LevelObject, rtrp::objects::CreatorObject>, std::__ndk1::basic_string<char, std::__ndk1::char_traits<char>, std::__ndk1::allocator<char> > >&)::$_0>, void (geode::Task<geode::utils::web::WebResponse, geode::utils::web::WebProgress>::Event*)>::destroy()
PUBLIC 5ed44 0 std::__ndk1::__function::__func<ListFetcher::getRandomDemonListLevel(geode::Result<std::__ndk1::pair<rtrp::objects::LevelObject, rtrp::objects::CreatorObject>, std::__ndk1::basic_string<char, std::__ndk1::char_traits<char>, std::__ndk1::allocator<char> > >&)::$_0, std::__ndk1::allocator<ListFetcher::getRandomDemonListLevel(geode::Result<std::__ndk1::pair<rtrp::objects::LevelObject, rtrp::objects::CreatorObject>, std::__ndk1::basic_string<char, std::__ndk1::char_traits<char>, std::__ndk1::allocator<char> > >&)::$_0>, void (geode::Task<geode::utils::web::WebResponse, geode::utils::web::WebProgress>::Event*)>::destroy_deallocate()
PUBLIC 5ed48 0 std::__ndk1::__function::__func<ListFetcher::getRandomDemonListLevel(geode::Result<std::__ndk1::pair<rtrp::objects::LevelObject, rtrp::objects::CreatorObject>, std::__ndk1::basic_string<char, std::__ndk1::char_traits<char>, std::__ndk1::allocator<char> > >&)::$_0, std::__ndk1::allocator<ListFetcher::getRandomDemonListLevel(geode::Result<std::__ndk1::pair<rtrp::objects::LevelObject, rtrp::objects::CreatorObject>, std::__ndk1::basic_string<char, std::__ndk1::char_traits<char>, std::__ndk1::allocator<char> > >&)::$_0>, void (geode::Task<geode::utils::web::WebResponse, geode::utils::web::WebProgress>::Event*)>::operator()(geode::Task<geode::utils::web::WebResponse, geode::utils::web::WebProgress>::Event*&&)
PUBLIC 5f648 0 std::__ndk1::__function::__func<ListFetcher::getRandomDemonListLevel(geode::Result<std::__ndk1::pair<rtrp::objects::LevelObject, rtrp::objects::CreatorObject>, std::__ndk1::basic_string<char, std::__ndk1::char_traits<char>, std::__ndk1::allocator<char> > >&)::$_0, std::__ndk1::allocator<ListFetcher::getRandomDemonListLevel(geode::Result<std::__ndk1::pair<rtrp::objects::LevelObject, rtrp::objects::CreatorObject>, std::__ndk1::basic_string<char, std::__ndk1::char_traits<char>, std::__ndk1::allocator<char> > >&)::$_0>, void (geode::Task<geode::utils::web::WebResponse, geode::utils::web::WebProgress>::Event*)>::target(std::type_info const&) const
PUBLIC 5f664 0 std::__ndk1::__function::__func<ListFetcher::getRandomDemonListLevel(geode::Result<std::__ndk1::pair<rtrp::objects::LevelObject, rtrp::objects::CreatorObject>, std::__ndk1::basic_string<char, std::__ndk1::char_traits<char>, std::__ndk1::allocator<char> > >&)::$_0, std::__ndk1::allocator<ListFetcher::getRandomDemonListLevel(geode::Result<std::__ndk1::pair<rtrp::objects::LevelObject, rtrp::objects::CreatorObject>, std::__ndk1::basic_string<char, std::__ndk1::char_traits<char>, std::__ndk1::allocator<char> > >&)::$_0>, void (geode::Task<geode::utils::web::WebResponse, geode::utils::web::WebProgress>::Event*)>::target_type() const
PUBLIC 5f670 0 geode::impl::ResultData<std::__ndk1::vector<matjson::Value, std::__ndk1::allocator<matjson::Value> > const&, std::__ndk1::basic_string<char, std::__ndk1::char_traits<char>, std::__ndk1::allocator<char> > >::~ResultData()
PUBLIC 5f6e4 0 matjson::Value::get<int, char const (&) [9]>(char const (&) [9]) const
PUBLIC 5f828 0 std::__ndk1::__exception_guard_exceptions<std::__ndk1::vector<matjson::Value, std::__ndk1::allocator<matjson::Value> >::__destroy_vector>::~__exception_guard_exceptions[abi:ne180000]()
PUBLIC 5f8a4 0 std::__ndk1::__variant_detail::__visitation::__base::__dispatcher<(unsigned long)0>::__dispatch[abi:ne180000]<std::__ndk1::__variant_detail::__dtor<std::__ndk1::__variant_detail::__traits<std::__ndk1::reference_wrapper<std::__ndk1::vector<matjson::Value, std::__ndk1::allocator<matjson> > const>, std::__ndk1::basic_string<char, std::__ndk1::char_traits<char>, matjson::Value<char> > >, (std::__ndk1::__variant_detail::_Trait)1>::__destroy[abi:ne180000]()::{lambda(auto:1&)#1}, std::__ndk1::__variant_detail::__base<(std::__ndk1::__variant_detail::__traits<std::__ndk1::reference_wrapper<std::__ndk1::vector<matjson::Value, std::__ndk1::allocator<matjson> > const>, std::__ndk1::basic_string<char, std::__ndk1::char_traits<char>, matjson::Value<char> > >)1, std::__ndk1::vector<matjson::Value, std::__ndk1::allocator<matjson> > const, matjson::Value<char> >&>(std::__ndk1::__variant_detail::__dtor<std::__ndk1::__variant_detail::__traits<std::__ndk1::reference_wrapper<std::__ndk1::vector<matjson::Value, std::__ndk1::allocator<matjson> > const>, std::__ndk1::basic_string<char, std::__ndk1::char_traits<char>, matjson::Value<char> > >, (std::__ndk1::__variant_detail::_Trait)1>, std::__ndk1::__variant_detail::__base<(std::__ndk1::__variant_detail::__traits<std::__ndk1::reference_wrapper<std::__ndk1::vector<matjson::Value, std::__ndk1::allocator<matjson> > const>, std::__ndk1::basic_string<char, std::__ndk1::char_traits<char>, matjson::Value<char> > >)1, std::__ndk1::vector<matjson::Value, std::__ndk1::allocator<matjson> > const, matjson::Value<char> >&)
PUBLIC 5f8a8 0 std::__ndk1::__variant_detail::__visitation::__base::__dispatcher<(unsigned long)1>::__dispatch[abi:ne180000]<std::__ndk1::__variant_detail::__dtor<std::__ndk1::__variant_detail::__traits<std::__ndk1::reference_wrapper<std::__ndk1::vector<matjson::Value, std::__ndk1::allocator<matjson> > const>, std::__ndk1::basic_string<char, std::__ndk1::char_traits<char>, matjson::Value<char> > >, (std::__ndk1::__variant_detail::_Trait)1>::__destroy[abi:ne180000]()::{lambda(auto:1&)#1}, std::__ndk1::__variant_detail::__base<(std::__ndk1::__variant_detail::__traits<std::__ndk1::reference_wrapper<std::__ndk1::vector<matjson::Value, std::__ndk1::allocator<matjson> > const>, std::__ndk1::basic_string<char, std::__ndk1::char_traits<char>, matjson::Value<char> > >)1, std::__ndk1::vector<matjson::Value, std::__ndk1::allocator<matjson> > const, matjson::Value<char> >&>(std::__ndk1::__variant_detail::__dtor<std::__ndk1::__variant_detail::__traits<std::__ndk1::reference_wrapper<std::__ndk1::vector<matjson::Value, std::__ndk1::allocator<matjson> > const>, std::__ndk1::basic_string<char, std::__ndk1::char_traits<char>, matjson::Value<char> > >, (std::__ndk1::__variant_detail::_Trait)1>, std::__ndk1::__variant_detail::__base<(std::__ndk1::__variant_detail::__traits<std::__ndk1::reference_wrapper<std::__ndk1::vector<matjson::Value, std::__ndk1::allocator<matjson> > const>, std::__ndk1::basic_string<char, std::__ndk1::char_traits<char>, matjson::Value<char> > >)1, std::__ndk1::vector<matjson::Value, std::__ndk1::allocator<matjson> > const, matjson::Value<char> >&)
PUBLIC 5f8bc 0 geode::impl::ResultData<matjson::Value const&, std::__ndk1::basic_string<char, std::__ndk1::char_traits<char>, std::__ndk1::allocator<char> > >::~ResultData()
PUBLIC 5f930 0 matjson::Value::as<int>() const
PUBLIC 5fa34 0 std::__ndk1::__variant_detail::__visitation::__base::__dispatcher<(unsigned long)0>::__dispatch[abi:ne180000]<std::__ndk1::__variant_detail::__dtor<std::__ndk1::__variant_detail::__traits<long, std::__ndk1::basic_string<char, std::__ndk1::char_traits<char>, std::__ndk1::allocator<char> > >, (std::__ndk1::__variant_detail::_Trait)1>::__destroy[abi:ne180000]()::{lambda(auto:1&)#1}, std::__ndk1::__variant_detail::__base<(std::__ndk1::__variant_detail::__traits<long, std::__ndk1::basic_string<char, std::__ndk1::char_traits<char>, std::__ndk1::allocator<char> > >)1, long, std::__ndk1::allocator<char> >&>(std::__ndk1::__variant_detail::__dtor<std::__ndk1::__variant_detail::__traits<long, std::__ndk1::basic_string<char, std::__ndk1::char_traits<char>, std::__ndk1::allocator<char> > >, (std::__ndk1::__variant_detail::_Trait)1>, std::__ndk1::__variant_detail::__base<(std::__ndk1::__variant_detail::__traits<long, std::__ndk1::basic_string<char, std::__ndk1::char_traits<char>, std::__ndk1::allocator<char> > >)1, long, std::__ndk1::allocator<char> >&)
PUBLIC 5fa38 0 std::__ndk1::__variant_detail::__visitation::__base::__dispatcher<(unsigned long)1>::__dispatch[abi:ne180000]<std::__ndk1::__variant_detail::__dtor<std::__ndk1::__variant_detail::__traits<long, std::__ndk1::basic_string<char, std::__ndk1::char_traits<char>, std::__ndk1::allocator<char> > >, (std::__ndk1::__variant_detail::_Trait)1>::__destroy[abi:ne180000]()::{lambda(auto:1&)#1}, std::__ndk1::__variant_detail::__base<(std::__ndk1::__variant_detail::__traits<long, std::__ndk1::basic_string<char, std::__ndk1::char_traits<char>, std::__ndk1::allocator<char> > >)1, long, std::__ndk1::allocator<char> >&>(std::__ndk1::__variant_detail::__dtor<std::__ndk1::__variant_detail::__traits<long, std::__ndk1::basic_string<char, std::__ndk1::char_traits<char>, std::__ndk1::allocator<char> > >, (std::__ndk1::__variant_detail::_Trait)1>, std::__ndk1::__variant_detail::__base<(std::__ndk1::__variant_detail::__traits<long, std::__ndk1::basic_string<char, std::__ndk1::char_traits<char>, std::__ndk1::allocator<char> > >)1, long, std::__ndk1::allocator<char> >&)
PUBLIC 5fa4c 0 std::__ndk1::__variant_detail::__visitation::__base::__dispatcher<(unsigned long)0>::__dispatch[abi:ne180000]<std::__ndk1::__variant_detail::__dtor<std::__ndk1::__variant_detail::__traits<std::__ndk1::reference_wrapper<matjson::Value const>, std::__ndk1::basic_string<char, std::__ndk1::char_traits<char>, std::__ndk1::allocator<char> > >, (std::__ndk1::__variant_detail::_Trait)1>::__destroy[abi:ne180000]()::{lambda(auto:1&)#1}, std::__ndk1::__variant_detail::__base<(std::__ndk1::__variant_detail::__traits<std::__ndk1::reference_wrapper<matjson::Value const>, std::__ndk1::basic_string<char, std::__ndk1::char_traits<char>, std::__ndk1::allocator<char> > >)1, matjson::Value const, std::__ndk1::allocator<char> >&>(std::__ndk1::__variant_detail::__dtor<std::__ndk1::__variant_detail::__traits<std::__ndk1::reference_wrapper<matjson::Value const>, std::__ndk1::basic_string<char, std::__ndk1::char_traits<char>, std::__ndk1::allocator<char> > >, (std::__ndk1::__variant_detail::_Trait)1>, std::__ndk1::__variant_detail::__base<(std::__ndk1::__variant_detail::__traits<std::__ndk1::reference_wrapper<matjson::Value const>, std::__ndk1::basic_string<char, std::__ndk1::char_traits<char>, std::__ndk1::allocator<char> > >)1, matjson::Value const, std::__ndk1::allocator<char> >&)
PUBLIC 5fa50 0 std::__ndk1::__variant_detail::__visitation::__base::__dispatcher<(unsigned long)1>::__dispatch[abi:ne180000]<std::__ndk1::__variant_detail::__dtor<std::__ndk1::__variant_detail::__traits<std::__ndk1::reference_wrapper<matjson::Value const>, std::__ndk1::basic_string<char, std::__ndk1::char_traits<char>, std::__ndk1::allocator<char> > >, (std::__ndk1::__variant_detail::_Trait)1>::__destroy[abi:ne180000]()::{lambda(auto:1&)#1}, std::__ndk1::__variant_detail::__base<(std::__ndk1::__variant_detail::__traits<std::__ndk1::reference_wrapper<matjson::Value const>, std::__ndk1::basic_string<char, std::__ndk1::char_traits<char>, std::__ndk1::allocator<char> > >)1, matjson::Value const, std::__ndk1::allocator<char> >&>(std::__ndk1::__variant_detail::__dtor<std::__ndk1::__variant_detail::__traits<std::__ndk1::reference_wrapper<matjson::Value const>, std::__ndk1::basic_string<char, std::__ndk1::char_traits<char>, std::__ndk1::allocator<char> > >, (std::__ndk1::__variant_detail::_Trait)1>, std::__ndk1::__variant_detail::__base<(std::__ndk1::__variant_detail::__traits<std::__ndk1::reference_wrapper<matjson::Value const>, std::__ndk1::basic_string<char, std::__ndk1::char_traits<char>, std::__ndk1::allocator<char> > >)1, matjson::Value const, std::__ndk1::allocator<char> >&)
PUBLIC 5fa64 0 std::__ndk1::uniform_int_distribution<unsigned short>::operator()<std::__ndk1::mersenne_twister_engine<unsigned long, (unsigned long)32, (unsigned long)624, (unsigned long)397, (unsigned long)31, (unsigned long)2567483615, (unsigned long)11, (unsigned long)4294967295, (unsigned long)7, (unsigned long)2636928640, (unsigned long)15, (unsigned long)4022730752, (unsigned long)18, (unsigned long)1812433253> >(std::__ndk1::mersenne_twister_engine<unsigned long, (unsigned long)32, (unsigned long)624, (unsigned long)397, (unsigned long)31, (unsigned long)2567483615, (unsigned long)11, (unsigned long)4294967295, (unsigned long)7, (unsigned long)2636928640, (unsigned long)15, (unsigned long)4022730752, (unsigned long)18, (unsigned long)1812433253>&, std::__ndk1::uniform_int_distribution<unsigned short>::param_type const&)
PUBLIC 5fbbc 0 std::__ndk1::__function::__func<ListFetcher::getRandomChallengeListLevel(geode::Result<std::__ndk1::pair<rtrp::objects::LevelObject, rtrp::objects::CreatorObject>, std::__ndk1::basic_string<char, std::__ndk1::char_traits<char>, std::__ndk1::allocator<char> > >&)::$_0, std::__ndk1::allocator<ListFetcher::getRandomChallengeListLevel(geode::Result<std::__ndk1::pair<rtrp::objects::LevelObject, rtrp::objects::CreatorObject>, std::__ndk1::basic_string<char, std::__ndk1::char_traits<char>, std::__ndk1::allocator<char> > >&)::$_0>, void (geode::Task<geode::utils::web::WebResponse, geode::utils::web::WebProgress>::Event*)>::~__func()
PUBLIC 5fbc0 0 std::__ndk1::__function::__func<ListFetcher::getRandomChallengeListLevel(geode::Result<std::__ndk1::pair<rtrp::objects::LevelObject, rtrp::objects::CreatorObject>, std::__ndk1::basic_string<char, std::__ndk1::char_traits<char>, std::__ndk1::allocator<char> > >&)::$_0, std::__ndk1::allocator<ListFetcher::getRandomChallengeListLevel(geode::Result<std::__ndk1::pair<rtrp::objects::LevelObject, rtrp::objects::CreatorObject>, std::__ndk1::basic_string<char, std::__ndk1::char_traits<char>, std::__ndk1::allocator<char> > >&)::$_0>, void (geode::Task<geode::utils::web::WebResponse, geode::utils::web::WebProgress>::Event*)>::__clone() const
PUBLIC 5fbf8 0 std::__ndk1::__function::__func<ListFetcher::getRandomChallengeListLevel(geode::Result<std::__ndk1::pair<rtrp::objects::LevelObject, rtrp::objects::CreatorObject>, std::__ndk1::basic_string<char, std::__ndk1::char_traits<char>, std::__ndk1::allocator<char> > >&)::$_0, std::__ndk1::allocator<ListFetcher::getRandomChallengeListLevel(geode::Result<std::__ndk1::pair<rtrp::objects::LevelObject, rtrp::objects::CreatorObject>, std::__ndk1::basic_string<char, std::__ndk1::char_traits<char>, std::__ndk1::allocator<char> > >&)::$_0>, void (geode::Task<geode::utils::web::WebResponse, geode::utils::web::WebProgress>::Event*)>::__clone(std::__ndk1::__function::__base<void (geode::Task<geode::utils::web::WebResponse, geode::utils::web::WebProgress>::Event*)>*) const
PUBLIC 5fc10 0 std::__ndk1::__function::__func<ListFetcher::getRandomChallengeListLevel(geode::Result<std::__ndk1::pair<rtrp::objects::LevelObject, rtrp::objects::CreatorObject>, std::__ndk1::basic_string<char, std::__ndk1::char_traits<char>, std::__ndk1::allocator<char> > >&)::$_0, std::__ndk1::allocator<ListFetcher::getRandomChallengeListLevel(geode::Result<std::__ndk1::pair<rtrp::objects::LevelObject, rtrp::objects::CreatorObject>, std::__ndk1::basic_string<char, std::__ndk1::char_traits<char>, std::__ndk1::allocator<char> > >&)::$_0>, void (geode::Task<geode::utils::web::WebResponse, geode::utils::web::WebProgress>::Event*)>::destroy()
PUBLIC 5fc14 0 std::__ndk1::__function::__func<ListFetcher::getRandomChallengeListLevel(geode::Result<std::__ndk1::pair<rtrp::objects::LevelObject, rtrp::objects::CreatorObject>, std::__ndk1::basic_string<char, std::__ndk1::char_traits<char>, std::__ndk1::allocator<char> > >&)::$_0, std::__ndk1::allocator<ListFetcher::getRandomChallengeListLevel(geode::Result<std::__ndk1::pair<rtrp::objects::LevelObject, rtrp::objects::CreatorObject>, std::__ndk1::basic_string<char, std::__ndk1::char_traits<char>, std::__ndk1::allocator<char> > >&)::$_0>, void (geode::Task<geode::utils::web::WebResponse, geode::utils::web::WebProgress>::Event*)>::destroy_deallocate()
PUBLIC 5fc18 0 std::__ndk1::__function::__func<ListFetcher::getRandomChallengeListLevel(geode::Result<std::__ndk1::pair<rtrp::objects::LevelObject, rtrp::objects::CreatorObject>, std::__ndk1::basic_string<char, std::__ndk1::char_traits<char>, std::__ndk1::allocator<char> > >&)::$_0, std::__ndk1::allocator<ListFetcher::getRandomChallengeListLevel(geode::Result<std::__ndk1::pair<rtrp::objects::LevelObject, rtrp::objects::CreatorObject>, std::__ndk1::basic_string<char, std::__ndk1::char_traits<char>, std::__ndk1::allocator<char> > >&)::$_0>, void (geode::Task<geode::utils::web::WebResponse, geode::utils::web::WebProgress>::Event*)>::operator()(geode::Task<geode::utils::web::WebResponse, geode::utils::web::WebProgress>::Event*&&)
PUBLIC 603e8 0 std::__ndk1::__function::__func<ListFetcher::getRandomChallengeListLevel(geode::Result<std::__ndk1::pair<rtrp::objects::LevelObject, rtrp::objects::CreatorObject>, std::__ndk1::basic_string<char, std::__ndk1::char_traits<char>, std::__ndk1::allocator<char> > >&)::$_0, std::__ndk1::allocator<ListFetcher::getRandomChallengeListLevel(geode::Result<std::__ndk1::pair<rtrp::objects::LevelObject, rtrp::objects::CreatorObject>, std::__ndk1::basic_string<char, std::__ndk1::char_traits<char>, std::__ndk1::allocator<char> > >&)::$_0>, void (geode::Task<geode::utils::web::WebResponse, geode::utils::web::WebProgress>::Event*)>::target(std::type_info const&) const
PUBLIC 60404 0 std::__ndk1::__function::__func<ListFetcher::getRandomChallengeListLevel(geode::Result<std::__ndk1::pair<rtrp::objects::LevelObject, rtrp::objects::CreatorObject>, std::__ndk1::basic_string<char, std::__ndk1::char_traits<char>, std::__ndk1::allocator<char> > >&)::$_0, std::__ndk1::allocator<ListFetcher::getRandomChallengeListLevel(geode::Result<std::__ndk1::pair<rtrp::objects::LevelObject, rtrp::objects::CreatorObject>, std::__ndk1::basic_string<char, std::__ndk1::char_traits<char>, std::__ndk1::allocator<char> > >&)::$_0>, void (geode::Task<geode::utils::web::WebResponse, geode::utils::web::WebProgress>::Event*)>::target_type() const
PUBLIC 60410 0 std::__ndk1::__function::__func<ListFetcher::getRandomGDListLevel(int, geode::Result<std::__ndk1::pair<rtrp::objects::LevelObject, rtrp::objects::CreatorObject>, std::__ndk1::basic_string<char, std::__ndk1::char_traits<char>, std::__ndk1::allocator<char> > >&)::$_0, std::__ndk1::allocator<ListFetcher::getRandomGDListLevel(int, geode::Result<std::__ndk1::pair<rtrp::objects::LevelObject, rtrp::objects::CreatorObject>, std::__ndk1::basic_string<char, std::__ndk1::char_traits<char>, std::__ndk1::allocator<char> > >&)::$_0>, void (geode::Task<geode::utils::web::WebResponse, geode::utils::web::WebProgress>::Event*)>::~__func()
PUBLIC 60414 0 std::__ndk1::__function::__func<ListFetcher::getRandomGDListLevel(int, geode::Result<std::__ndk1::pair<rtrp::objects::LevelObject, rtrp::objects::CreatorObject>, std::__ndk1::basic_string<char, std::__ndk1::char_traits<char>, std::__ndk1::allocator<char> > >&)::$_0, std::__ndk1::allocator<ListFetcher::getRandomGDListLevel(int, geode::Result<std::__ndk1::pair<rtrp::objects::LevelObject, rtrp::objects::CreatorObject>, std::__ndk1::basic_string<char, std::__ndk1::char_traits<char>, std::__ndk1::allocator<char> > >&)::$_0>, void (geode::Task<geode::utils::web::WebResponse, geode::utils::web::WebProgress>::Event*)>::__clone() const
PUBLIC 60454 0 std::__ndk1::__function::__func<ListFetcher::getRandomGDListLevel(int, geode::Result<std::__ndk1::pair<rtrp::objects::LevelObject, rtrp::objects::CreatorObject>, std::__ndk1::basic_string<char, std::__ndk1::char_traits<char>, std::__ndk1::allocator<char> > >&)::$_0, std::__ndk1::allocator<ListFetcher::getRandomGDListLevel(int, geode::Result<std::__ndk1::pair<rtrp::objects::LevelObject, rtrp::objects::CreatorObject>, std::__ndk1::basic_string<char, std::__ndk1::char_traits<char>, std::__ndk1::allocator<char> > >&)::$_0>, void (geode::Task<geode::utils::web::WebResponse, geode::utils::web::WebProgress>::Event*)>::__clone(std::__ndk1::__function::__base<void (geode::Task<geode::utils::web::WebResponse, geode::utils::web::WebProgress>::Event*)>*) const
PUBLIC 60474 0 std::__ndk1::__function::__func<ListFetcher::getRandomGDListLevel(int, geode::Result<std::__ndk1::pair<rtrp::objects::LevelObject, rtrp::objects::CreatorObject>, std::__ndk1::basic_string<char, std::__ndk1::char_traits<char>, std::__ndk1::allocator<char> > >&)::$_0, std::__ndk1::allocator<ListFetcher::getRandomGDListLevel(int, geode::Result<std::__ndk1::pair<rtrp::objects::LevelObject, rtrp::objects::CreatorObject>, std::__ndk1::basic_string<char, std::__ndk1::char_traits<char>, std::__ndk1::allocator<char> > >&)::$_0>, void (geode::Task<geode::utils::web::WebResponse, geode::utils::web::WebProgress>::Event*)>::destroy()
PUBLIC 60478 0 std::__ndk1::__function::__func<ListFetcher::getRandomGDListLevel(int, geode::Result<std::__ndk1::pair<rtrp::objects::LevelObject, rtrp::objects::CreatorObject>, std::__ndk1::basic_string<char, std::__ndk1::char_traits<char>, std::__ndk1::allocator<char> > >&)::$_0, std::__ndk1::allocator<ListFetcher::getRandomGDListLevel(int, geode::Result<std::__ndk1::pair<rtrp::objects::LevelObject, rtrp::objects::CreatorObject>, std::__ndk1::basic_string<char, std::__ndk1::char_traits<char>, std::__ndk1::allocator<char> > >&)::$_0>, void (geode::Task<geode::utils::web::WebResponse, geode::utils::web::WebProgress>::Event*)>::destroy_deallocate()
PUBLIC 6047c 0 std::__ndk1::__function::__func<ListFetcher::getRandomGDListLevel(int, geode::Result<std::__ndk1::pair<rtrp::objects::LevelObject, rtrp::objects::CreatorObject>, std::__ndk1::basic_string<char, std::__ndk1::char_traits<char>, std::__ndk1::allocator<char> > >&)::$_0, std::__ndk1::allocator<ListFetcher::getRandomGDListLevel(int, geode::Result<std::__ndk1::pair<rtrp::objects::LevelObject, rtrp::objects::CreatorObject>, std::__ndk1::basic_string<char, std::__ndk1::char_traits<char>, std::__ndk1::allocator<char> > >&)::$_0>, void (geode::Task<geode::utils::web::WebResponse, geode::utils::web::WebProgress>::Event*)>::operator()(geode::Task<geode::utils::web::WebResponse, geode::utils::web::WebProgress>::Event*&&)
PUBLIC 6107c 0 std::__ndk1::__function::__func<ListFetcher::getRandomGDListLevel(int, geode::Result<std::__ndk1::pair<rtrp::objects::LevelObject, rtrp::objects::CreatorObject>, std::__ndk1::basic_string<char, std::__ndk1::char_traits<char>, std::__ndk1::allocator<char> > >&)::$_0, std::__ndk1::allocator<ListFetcher::getRandomGDListLevel(int, geode::Result<std::__ndk1::pair<rtrp::objects::LevelObject, rtrp::objects::CreatorObject>, std::__ndk1::basic_string<char, std::__ndk1::char_traits<char>, std::__ndk1::allocator<char> > >&)::$_0>, void (geode::Task<geode::utils::web::WebResponse, geode::utils::web::WebProgress>::Event*)>::target(std::type_info const&) const
PUBLIC 61098 0 std::__ndk1::__function::__func<ListFetcher::getRandomGDListLevel(int, geode::Result<std::__ndk1::pair<rtrp::objects::LevelObject, rtrp::objects::CreatorObject>, std::__ndk1::basic_string<char, std::__ndk1::char_traits<char>, std::__ndk1::allocator<char> > >&)::$_0, std::__ndk1::allocator<ListFetcher::getRandomGDListLevel(int, geode::Result<std::__ndk1::pair<rtrp::objects::LevelObject, rtrp::objects::CreatorObject>, std::__ndk1::basic_string<char, std::__ndk1::char_traits<char>, std::__ndk1::allocator<char> > >&)::$_0>, void (geode::Task<geode::utils::web::WebResponse, geode::utils::web::WebProgress>::Event*)>::target_type() const
PUBLIC 610a4 0 rtrp::impl::Result<rtrp::responses::ListResponse>::~Result()
PUBLIC 61164 0 std::__ndk1::basic_string<char, std::__ndk1::char_traits<char>, std::__ndk1::allocator<char> >::__assign_no_alias<true>(char const*, unsigned long)
PUBLIC 61210 0 std::__ndk1::basic_string<char, std::__ndk1::char_traits<char>, std::__ndk1::allocator<char> >::__assign_no_alias<false>(char const*, unsigned long)
PUBLIC 61320 0 _ZNSt6__ndk112__destroy_atB8ne180000IN4rtrp7objects10ListObjectETnNS_9enable_ifIXntsr8is_arrayIT_EE5valueEiE4typeELi0EEEvPS5_
PUBLIC 613dc 0 std::__ndk1::__function::__base<void (geode::Task<geode::utils::web::WebResponse, geode::utils::web::WebProgress>::Event*)>::~__base()
PUBLIC 613e0 0 std::__ndk1::__function::__func<ListFetcher::getLevelInfo(int, geode::Result<std::__ndk1::pair<rtrp::objects::LevelObject, rtrp::objects::CreatorObject>, std::__ndk1::basic_string<char, std::__ndk1::char_traits<char>, std::__ndk1::allocator<char> > >&)::$_0, std::__ndk1::allocator<ListFetcher::getLevelInfo(int, geode::Result<std::__ndk1::pair<rtrp::objects::LevelObject, rtrp::objects::CreatorObject>, std::__ndk1::basic_string<char, std::__ndk1::char_traits<char>, std::__ndk1::allocator<char> > >&)::$_0>, void (geode::Task<geode::utils::web::WebResponse, geode::utils::web::WebProgress>::Event*)>::~__func()
PUBLIC 613e4 0 std::__ndk1::__function::__func<ListFetcher::getLevelInfo(int, geode::Result<std::__ndk1::pair<rtrp::objects::LevelObject, rtrp::objects::CreatorObject>, std::__ndk1::basic_string<char, std::__ndk1::char_traits<char>, std::__ndk1::allocator<char> > >&)::$_0, std::__ndk1::allocator<ListFetcher::getLevelInfo(int, geode::Result<std::__ndk1::pair<rtrp::objects::LevelObject, rtrp::objects::CreatorObject>, std::__ndk1::basic_string<char, std::__ndk1::char_traits<char>, std::__ndk1::allocator<char> > >&)::$_0>, void (geode::Task<geode::utils::web::WebResponse, geode::utils::web::WebProgress>::Event*)>::__clone() const
PUBLIC 6141c 0 std::__ndk1::__function::__func<ListFetcher::getLevelInfo(int, geode::Result<std::__ndk1::pair<rtrp::objects::LevelObject, rtrp::objects::CreatorObject>, std::__ndk1::basic_string<char, std::__ndk1::char_traits<char>, std::__ndk1::allocator<char> > >&)::$_0, std::__ndk1::allocator<ListFetcher::getLevelInfo(int, geode::Result<std::__ndk1::pair<rtrp::objects::LevelObject, rtrp::objects::CreatorObject>, std::__ndk1::basic_string<char, std::__ndk1::char_traits<char>, std::__ndk1::allocator<char> > >&)::$_0>, void (geode::Task<geode::utils::web::WebResponse, geode::utils::web::WebProgress>::Event*)>::__clone(std::__ndk1::__function::__base<void (geode::Task<geode::utils::web::WebResponse, geode::utils::web::WebProgress>::Event*)>*) const
PUBLIC 61434 0 std::__ndk1::__function::__func<ListFetcher::getLevelInfo(int, geode::Result<std::__ndk1::pair<rtrp::objects::LevelObject, rtrp::objects::CreatorObject>, std::__ndk1::basic_string<char, std::__ndk1::char_traits<char>, std::__ndk1::allocator<char> > >&)::$_0, std::__ndk1::allocator<ListFetcher::getLevelInfo(int, geode::Result<std::__ndk1::pair<rtrp::objects::LevelObject, rtrp::objects::CreatorObject>, std::__ndk1::basic_string<char, std::__ndk1::char_traits<char>, std::__ndk1::allocator<char> > >&)::$_0>, void (geode::Task<geode::utils::web::WebResponse, geode::utils::web::WebProgress>::Event*)>::destroy()
PUBLIC 61438 0 std::__ndk1::__function::__func<ListFetcher::getLevelInfo(int, geode::Result<std::__ndk1::pair<rtrp::objects::LevelObject, rtrp::objects::CreatorObject>, std::__ndk1::basic_string<char, std::__ndk1::char_traits<char>, std::__ndk1::allocator<char> > >&)::$_0, std::__ndk1::allocator<ListFetcher::getLevelInfo(int, geode::Result<std::__ndk1::pair<rtrp::objects::LevelObject, rtrp::objects::CreatorObject>, std::__ndk1::basic_string<char, std::__ndk1::char_traits<char>, std::__ndk1::allocator<char> > >&)::$_0>, void (geode::Task<geode::utils::web::WebResponse, geode::utils::web::WebProgress>::Event*)>::destroy_deallocate()
PUBLIC 6143c 0 std::__ndk1::__function::__func<ListFetcher::getLevelInfo(int, geode::Result<std::__ndk1::pair<rtrp::objects::LevelObject, rtrp::objects::CreatorObject>, std::__ndk1::basic_string<char, std::__ndk1::char_traits<char>, std::__ndk1::allocator<char> > >&)::$_0, std::__ndk1::allocator<ListFetcher::getLevelInfo(int, geode::Result<std::__ndk1::pair<rtrp::objects::LevelObject, rtrp::objects::CreatorObject>, std::__ndk1::basic_string<char, std::__ndk1::char_traits<char>, std::__ndk1::allocator<char> > >&)::$_0>, void (geode::Task<geode::utils::web::WebResponse, geode::utils::web::WebProgress>::Event*)>::operator()(geode::Task<geode::utils::web::WebResponse, geode::utils::web::WebProgress>::Event*&&)
PUBLIC 62080 0 std::__ndk1::__function::__func<ListFetcher::getLevelInfo(int, geode::Result<std::__ndk1::pair<rtrp::objects::LevelObject, rtrp::objects::CreatorObject>, std::__ndk1::basic_string<char, std::__ndk1::char_traits<char>, std::__ndk1::allocator<char> > >&)::$_0, std::__ndk1::allocator<ListFetcher::getLevelInfo(int, geode::Result<std::__ndk1::pair<rtrp::objects::LevelObject, rtrp::objects::CreatorObject>, std::__ndk1::basic_string<char, std::__ndk1::char_traits<char>, std::__ndk1::allocator<char> > >&)::$_0>, void (geode::Task<geode::utils::web::WebResponse, geode::utils::web::WebProgress>::Event*)>::target(std::type_info const&) const
PUBLIC 6209c 0 std::__ndk1::__function::__func<ListFetcher::getLevelInfo(int, geode::Result<std::__ndk1::pair<rtrp::objects::LevelObject, rtrp::objects::CreatorObject>, std::__ndk1::basic_string<char, std::__ndk1::char_traits<char>, std::__ndk1::allocator<char> > >&)::$_0, std::__ndk1::allocator<ListFetcher::getLevelInfo(int, geode::Result<std::__ndk1::pair<rtrp::objects::LevelObject, rtrp::objects::CreatorObject>, std::__ndk1::basic_string<char, std::__ndk1::char_traits<char>, std::__ndk1::allocator<char> > >&)::$_0>, void (geode::Task<geode::utils::web::WebResponse, geode::utils::web::WebProgress>::Event*)>::target_type() const
PUBLIC 620a8 0 _GLOBAL__sub_I_ListFetcher.cpp
PUBLIC 62208 0 WebRequestQueue::flush()
PUBLIC 62810 0 std::__ndk1::deque<WebRequestQueue::Request, std::__ndk1::allocator<WebRequestQueue::Request> >::emplace_back<WebRequestQueue::Request>(WebRequestQueue::Request&&)
PUBLIC 62fe0 0 std::__ndk1::__function::__func<geode::Task<geode::utils::web::WebResponse, geode::utils::web::WebProgress>::listen<WebRequestQueue::flush()::$_0, WebRequestQueue::flush()::$_1, WebRequestQueue::flush()::$_2>(WebRequestQueue::flush()::$_0&&, WebRequestQueue::flush()::$_1&&, WebRequestQueue::flush()::$_2&&) const::{lambda(geode::Task<geode::utils::web::WebResponse, geode::utils::web::WebProgress>::Event*)#1}, std::__ndk1::allocator<geode::Task<geode::utils::web::WebResponse, geode::utils::web::WebProgress>::listen<WebRequestQueue::flush()::$_0, WebRequestQueue::flush()::$_1, WebRequestQueue::flush()::$_2>(WebRequestQueue::flush()::$_0&&, WebRequestQueue::flush()::$_1&&, WebRequestQueue::flush()::$_2&&) const::{lambda(geode::Task<geode::utils::web::WebResponse, geode::utils::web::WebProgress>::Event*)#1}>, void (geode::Task<geode::utils::web::WebResponse, geode::utils::web::WebProgress>::Event*)>::~__func()
PUBLIC 6302c 0 std::__ndk1::__function::__func<geode::Task<geode::utils::web::WebResponse, geode::utils::web::WebProgress>::listen<WebRequestQueue::flush()::$_0, WebRequestQueue::flush()::$_1, WebRequestQueue::flush()::$_2>(WebRequestQueue::flush()::$_0&&, WebRequestQueue::flush()::$_1&&, WebRequestQueue::flush()::$_2&&) const::{lambda(geode::Task<geode::utils::web::WebResponse, geode::utils::web::WebProgress>::Event*)#1}, std::__ndk1::allocator<geode::Task<geode::utils::web::WebResponse, geode::utils::web::WebProgress>::listen<WebRequestQueue::flush()::$_0, WebRequestQueue::flush()::$_1, WebRequestQueue::flush()::$_2>(WebRequestQueue::flush()::$_0&&, WebRequestQueue::flush()::$_1&&, WebRequestQueue::flush()::$_2&&) const::{lambda(geode::Task<geode::utils::web::WebResponse, geode::utils::web::WebProgress>::Event*)#1}>, void (geode::Task<geode::utils::web::WebResponse, geode::utils::web::WebProgress>::Event*)>::~__func()
PUBLIC 63088 0 std::__ndk1::__function::__func<geode::Task<geode::utils::web::WebResponse, geode::utils::web::WebProgress>::listen<WebRequestQueue::flush()::$_0, WebRequestQueue::flush()::$_1, WebRequestQueue::flush()::$_2>(WebRequestQueue::flush()::$_0&&, WebRequestQueue::flush()::$_1&&, WebRequestQueue::flush()::$_2&&) const::{lambda(geode::Task<geode::utils::web::WebResponse, geode::utils::web::WebProgress>::Event*)#1}, std::__ndk1::allocator<geode::Task<geode::utils::web::WebResponse, geode::utils::web::WebProgress>::listen<WebRequestQueue::flush()::$_0, WebRequestQueue::flush()::$_1, WebRequestQueue::flush()::$_2>(WebRequestQueue::flush()::$_0&&, WebRequestQueue::flush()::$_1&&, WebRequestQueue::flush()::$_2&&) const::{lambda(geode::Task<geode::utils::web::WebResponse, geode::utils::web::WebProgress>::Event*)#1}>, void (geode::Task<geode::utils::web::WebResponse, geode::utils::web::WebProgress>::Event*)>::__clone() const
PUBLIC 63128 0 std::__ndk1::__function::__func<geode::Task<geode::utils::web::WebResponse, geode::utils::web::WebProgress>::listen<WebRequestQueue::flush()::$_0, WebRequestQueue::flush()::$_1, WebRequestQueue::flush()::$_2>(WebRequestQueue::flush()::$_0&&, WebRequestQueue::flush()::$_1&&, WebRequestQueue::flush()::$_2&&) const::{lambda(geode::Task<geode::utils::web::WebResponse, geode::utils::web::WebProgress>::Event*)#1}, std::__ndk1::allocator<geode::Task<geode::utils::web::WebResponse, geode::utils::web::WebProgress>::listen<WebRequestQueue::flush()::$_0, WebRequestQueue::flush()::$_1, WebRequestQueue::flush()::$_2>(WebRequestQueue::flush()::$_0&&, WebRequestQueue::flush()::$_1&&, WebRequestQueue::flush()::$_2&&) const::{lambda(geode::Task<geode::utils::web::WebResponse, geode::utils::web::WebProgress>::Event*)#1}>, void (geode::Task<geode::utils::web::WebResponse, geode::utils::web::WebProgress>::Event*)>::__clone(std::__ndk1::__function::__base<void (geode::Task<geode::utils::web::WebResponse, geode::utils::web::WebProgress>::Event*)>*) const
PUBLIC 631b4 0 std::__ndk1::__function::__func<geode::Task<geode::utils::web::WebResponse, geode::utils::web::WebProgress>::listen<WebRequestQueue::flush()::$_0, WebRequestQueue::flush()::$_1, WebRequestQueue::flush()::$_2>(WebRequestQueue::flush()::$_0&&, WebRequestQueue::flush()::$_1&&, WebRequestQueue::flush()::$_2&&) const::{lambda(geode::Task<geode::utils::web::WebResponse, geode::utils::web::WebProgress>::Event*)#1}, std::__ndk1::allocator<geode::Task<geode::utils::web::WebResponse, geode::utils::web::WebProgress>::listen<WebRequestQueue::flush()::$_0, WebRequestQueue::flush()::$_1, WebRequestQueue::flush()::$_2>(WebRequestQueue::flush()::$_0&&, WebRequestQueue::flush()::$_1&&, WebRequestQueue::flush()::$_2&&) const::{lambda(geode::Task<geode::utils::web::WebResponse, geode::utils::web::WebProgress>::Event*)#1}>, void (geode::Task<geode::utils::web::WebResponse, geode::utils::web::WebProgress>::Event*)>::destroy()
PUBLIC 631f4 0 std::__ndk1::__function::__func<geode::Task<geode::utils::web::WebResponse, geode::utils::web::WebProgress>::listen<WebRequestQueue::flush()::$_0, WebRequestQueue::flush()::$_1, WebRequestQueue::flush()::$_2>(WebRequestQueue::flush()::$_0&&, WebRequestQueue::flush()::$_1&&, WebRequestQueue::flush()::$_2&&) const::{lambda(geode::Task<geode::utils::web::WebResponse, geode::utils::web::WebProgress>::Event*)#1}, std::__ndk1::allocator<geode::Task<geode::utils::web::WebResponse, geode::utils::web::WebProgress>::listen<WebRequestQueue::flush()::$_0, WebRequestQueue::flush()::$_1, WebRequestQueue::flush()::$_2>(WebRequestQueue::flush()::$_0&&, WebRequestQueue::flush()::$_1&&, WebRequestQueue::flush()::$_2&&) const::{lambda(geode::Task<geode::utils::web::WebResponse, geode::utils::web::WebProgress>::Event*)#1}>, void (geode::Task<geode::utils::web::WebResponse, geode::utils::web::WebProgress>::Event*)>::destroy_deallocate()
PUBLIC 63244 0 std::__ndk1::__function::__func<geode::Task<geode::utils::web::WebResponse, geode::utils::web::WebProgress>::listen<WebRequestQueue::flush()::$_0, WebRequestQueue::flush()::$_1, WebRequestQueue::flush()::$_2>(WebRequestQueue::flush()::$_0&&, WebRequestQueue::flush()::$_1&&, WebRequestQueue::flush()::$_2&&) const::{lambda(geode::Task<geode::utils::web::WebResponse, geode::utils::web::WebProgress>::Event*)#1}, std::__ndk1::allocator<geode::Task<geode::utils::web::WebResponse, geode::utils::web::WebProgress>::listen<WebRequestQueue::flush()::$_0, WebRequestQueue::flush()::$_1, WebRequestQueue::flush()::$_2>(WebRequestQueue::flush()::$_0&&, WebRequestQueue::flush()::$_1&&, WebRequestQueue::flush()::$_2&&) const::{lambda(geode::Task<geode::utils::web::WebResponse, geode::utils::web::WebProgress>::Event*)#1}>, void (geode::Task<geode::utils::web::WebResponse, geode::utils::web::WebProgress>::Event*)>::operator()(geode::Task<geode::utils::web::WebResponse, geode::utils::web::WebProgress>::Event*&&)
PUBLIC 63418 0 std::__ndk1::__function::__func<geode::Task<geode::utils::web::WebResponse, geode::utils::web::WebProgress>::listen<WebRequestQueue::flush()::$_0, WebRequestQueue::flush()::$_1, WebRequestQueue::flush()::$_2>(WebRequestQueue::flush()::$_0&&, WebRequestQueue::flush()::$_1&&, WebRequestQueue::flush()::$_2&&) const::{lambda(geode::Task<geode::utils::web::WebResponse, geode::utils::web::WebProgress>::Event*)#1}, std::__ndk1::allocator<geode::Task<geode::utils::web::WebResponse, geode::utils::web::WebProgress>::listen<WebRequestQueue::flush()::$_0, WebRequestQueue::flush()::$_1, WebRequestQueue::flush()::$_2>(WebRequestQueue::flush()::$_0&&, WebRequestQueue::flush()::$_1&&, WebRequestQueue::flush()::$_2&&) const::{lambda(geode::Task<geode::utils::web::WebResponse, geode::utils::web::WebProgress>::Event*)#1}>, void (geode::Task<geode::utils::web::WebResponse, geode::utils::web::WebProgress>::Event*)>::target(std::type_info const&) const
PUBLIC 63434 0 std::__ndk1::__function::__func<geode::Task<geode::utils::web::WebResponse, geode::utils::web::WebProgress>::listen<WebRequestQueue::flush()::$_0, WebRequestQueue::flush()::$_1, WebRequestQueue::flush()::$_2>(WebRequestQueue::flush()::$_0&&, WebRequestQueue::flush()::$_1&&, WebRequestQueue::flush()::$_2&&) const::{lambda(geode::Task<geode::utils::web::WebResponse, geode::utils::web::WebProgress>::Event*)#1}, std::__ndk1::allocator<geode::Task<geode::utils::web::WebResponse, geode::utils::web::WebProgress>::listen<WebRequestQueue::flush()::$_0, WebRequestQueue::flush()::$_1, WebRequestQueue::flush()::$_2>(WebRequestQueue::flush()::$_0&&, WebRequestQueue::flush()::$_1&&, WebRequestQueue::flush()::$_2&&) const::{lambda(geode::Task<geode::utils::web::WebResponse, geode::utils::web::WebProgress>::Event*)#1}>, void (geode::Task<geode::utils::web::WebResponse, geode::utils::web::WebProgress>::Event*)>::target_type() const
PUBLIC 63440 0 std::__ndk1::__function::__base<void ()>::~__base()
PUBLIC 63444 0 std::__ndk1::__function::__func<geode::Task<geode::utils::web::WebResponse, geode::utils::web::WebProgress>::listen<WebRequestQueue::flush()::$_0, WebRequestQueue::flush()::$_1, WebRequestQueue::flush()::$_2>(WebRequestQueue::flush()::$_0&&, WebRequestQueue::flush()::$_1&&, WebRequestQueue::flush()::$_2&&) const::{lambda(geode::Task<geode::utils::web::WebResponse, geode::utils::web::WebProgress>::Event*)#1}::operator()(geode::Task<geode::utils::web::WebResponse, geode::utils::web::WebProgress>::Event*)::{lambda()#1}, std::__ndk1::allocator<geode::Task<geode::utils::web::WebResponse, geode::utils::web::WebProgress>::listen<WebRequestQueue::flush()::$_0, WebRequestQueue::flush()::$_1, WebRequestQueue::flush()::$_2>(WebRequestQueue::flush()::$_0&&, WebRequestQueue::flush()::$_1&&, WebRequestQueue::flush()::$_2&&) const::{lambda(geode::Task<geode::utils::web::WebResponse, geode::utils::web::WebProgress>::Event*)#1}::operator()(geode::Task<geode::utils::web::WebResponse, geode::utils::web::WebProgress>::Event*)::{lambda()#1}>, void ()>::~__func()
PUBLIC 63448 0 std::__ndk1::__function::__func<geode::Task<geode::utils::web::WebResponse, geode::utils::web::WebProgress>::listen<WebRequestQueue::flush()::$_0, WebRequestQueue::flush()::$_1, WebRequestQueue::flush()::$_2>(WebRequestQueue::flush()::$_0&&, WebRequestQueue::flush()::$_1&&, WebRequestQueue::flush()::$_2&&) const::{lambda(geode::Task<geode::utils::web::WebResponse, geode::utils::web::WebProgress>::Event*)#1}::operator()(geode::Task<geode::utils::web::WebResponse, geode::utils::web::WebProgress>::Event*)::{lambda()#1}, std::__ndk1::allocator<geode::Task<geode::utils::web::WebResponse, geode::utils::web::WebProgress>::listen<WebRequestQueue::flush()::$_0, WebRequestQueue::flush()::$_1, WebRequestQueue::flush()::$_2>(WebRequestQueue::flush()::$_0&&, WebRequestQueue::flush()::$_1&&, WebRequestQueue::flush()::$_2&&) const::{lambda(geode::Task<geode::utils::web::WebResponse, geode::utils::web::WebProgress>::Event*)#1}::operator()(geode::Task<geode::utils::web::WebResponse, geode::utils::web::WebProgress>::Event*)::{lambda()#1}>, void ()>::__clone() const
PUBLIC 6347c 0 std::__ndk1::__function::__func<geode::Task<geode::utils::web::WebResponse, geode::utils::web::WebProgress>::listen<WebRequestQueue::flush()::$_0, WebRequestQueue::flush()::$_1, WebRequestQueue::flush()::$_2>(WebRequestQueue::flush()::$_0&&, WebRequestQueue::flush()::$_1&&, WebRequestQueue::flush()::$_2&&) const::{lambda(geode::Task<geode::utils::web::WebResponse, geode::utils::web::WebProgress>::Event*)#1}::operator()(geode::Task<geode::utils::web::WebResponse, geode::utils::web::WebProgress>::Event*)::{lambda()#1}, std::__ndk1::allocator<geode::Task<geode::utils::web::WebResponse, geode::utils::web::WebProgress>::listen<WebRequestQueue::flush()::$_0, WebRequestQueue::flush()::$_1, WebRequestQueue::flush()::$_2>(WebRequestQueue::flush()::$_0&&, WebRequestQueue::flush()::$_1&&, WebRequestQueue::flush()::$_2&&) const::{lambda(geode::Task<geode::utils::web::WebResponse, geode::utils::web::WebProgress>::Event*)#1}::operator()(geode::Task<geode::utils::web::WebResponse, geode::utils::web::WebProgress>::Event*)::{lambda()#1}>, void ()>::__clone(std::__ndk1::__function::__base<void ()>*) const
PUBLIC 63490 0 std::__ndk1::__function::__func<geode::Task<geode::utils::web::WebResponse, geode::utils::web::WebProgress>::listen<WebRequestQueue::flush()::$_0, WebRequestQueue::flush()::$_1, WebRequestQueue::flush()::$_2>(WebRequestQueue::flush()::$_0&&, WebRequestQueue::flush()::$_1&&, WebRequestQueue::flush()::$_2&&) const::{lambda(geode::Task<geode::utils::web::WebResponse, geode::utils::web::WebProgress>::Event*)#1}::operator()(geode::Task<geode::utils::web::WebResponse, geode::utils::web::WebProgress>::Event*)::{lambda()#1}, std::__ndk1::allocator<geode::Task<geode::utils::web::WebResponse, geode::utils::web::WebProgress>::listen<WebRequestQueue::flush()::$_0, WebRequestQueue::flush()::$_1, WebRequestQueue::flush()::$_2>(WebRequestQueue::flush()::$_0&&, WebRequestQueue::flush()::$_1&&, WebRequestQueue::flush()::$_2&&) const::{lambda(geode::Task<geode::utils::web::WebResponse, geode::utils::web::WebProgress>::Event*)#1}::operator()(geode::Task<geode::utils::web::WebResponse, geode::utils::web::WebProgress>::Event*)::{lambda()#1}>, void ()>::destroy()
PUBLIC 63494 0 std::__ndk1::__function::__func<geode::Task<geode::utils::web::WebResponse, geode::utils::web::WebProgress>::listen<WebRequestQueue::flush()::$_0, WebRequestQueue::flush()::$_1, WebRequestQueue::flush()::$_2>(WebRequestQueue::flush()::$_0&&, WebRequestQueue::flush()::$_1&&, WebRequestQueue::flush()::$_2&&) const::{lambda(geode::Task<geode::utils::web::WebResponse, geode::utils::web::WebProgress>::Event*)#1}::operator()(geode::Task<geode::utils::web::WebResponse, geode::utils::web::WebProgress>::Event*)::{lambda()#1}, std::__ndk1::allocator<geode::Task<geode::utils::web::WebResponse, geode::utils::web::WebProgress>::listen<WebRequestQueue::flush()::$_0, WebRequestQueue::flush()::$_1, WebRequestQueue::flush()::$_2>(WebRequestQueue::flush()::$_0&&, WebRequestQueue::flush()::$_1&&, WebRequestQueue::flush()::$_2&&) const::{lambda(geode::Task<geode::utils::web::WebResponse, geode::utils::web::WebProgress>::Event*)#1}::operator()(geode::Task<geode::utils::web::WebResponse, geode::utils::web::WebProgress>::Event*)::{lambda()#1}>, void ()>::destroy_deallocate()
PUBLIC 63498 0 std::__ndk1::__function::__func<geode::Task<geode::utils::web::WebResponse, geode::utils::web::WebProgress>::listen<WebRequestQueue::flush()::$_0, WebRequestQueue::flush()::$_1, WebRequestQueue::flush()::$_2>(WebRequestQueue::flush()::$_0&&, WebRequestQueue::flush()::$_1&&, WebRequestQueue::flush()::$_2&&) const::{lambda(geode::Task<geode::utils::web::WebResponse, geode::utils::web::WebProgress>::Event*)#1}::operator()(geode::Task<geode::utils::web::WebResponse, geode::utils::web::WebProgress>::Event*)::{lambda()#1}, std::__ndk1::allocator<geode::Task<geode::utils::web::WebResponse, geode::utils::web::WebProgress>::listen<WebRequestQueue::flush()::$_0, WebRequestQueue::flush()::$_1, WebRequestQueue::flush()::$_2>(WebRequestQueue::flush()::$_0&&, WebRequestQueue::flush()::$_1&&, WebRequestQueue::flush()::$_2&&) const::{lambda(geode::Task<geode::utils::web::WebResponse, geode::utils::web::WebProgress>::Event*)#1}::operator()(geode::Task<geode::utils::web::WebResponse, geode::utils::web::WebProgress>::Event*)::{lambda()#1}>, void ()>::operator()()
PUBLIC 634b0 0 std::__ndk1::__function::__func<geode::Task<geode::utils::web::WebResponse, geode::utils::web::WebProgress>::listen<WebRequestQueue::flush()::$_0, WebRequestQueue::flush()::$_1, WebRequestQueue::flush()::$_2>(WebRequestQueue::flush()::$_0&&, WebRequestQueue::flush()::$_1&&, WebRequestQueue::flush()::$_2&&) const::{lambda(geode::Task<geode::utils::web::WebResponse, geode::utils::web::WebProgress>::Event*)#1}::operator()(geode::Task<geode::utils::web::WebResponse, geode::utils::web::WebProgress>::Event*)::{lambda()#1}, std::__ndk1::allocator<geode::Task<geode::utils::web::WebResponse, geode::utils::web::WebProgress>::listen<WebRequestQueue::flush()::$_0, WebRequestQueue::flush()::$_1, WebRequestQueue::flush()::$_2>(WebRequestQueue::flush()::$_0&&, WebRequestQueue::flush()::$_1&&, WebRequestQueue::flush()::$_2&&) const::{lambda(geode::Task<geode::utils::web::WebResponse, geode::utils::web::WebProgress>::Event*)#1}::operator()(geode::Task<geode::utils::web::WebResponse, geode::utils::web::WebProgress>::Event*)::{lambda()#1}>, void ()>::target(std::type_info const&) const
PUBLIC 634cc 0 std::__ndk1::__function::__func<geode::Task<geode::utils::web::WebResponse, geode::utils::web::WebProgress>::listen<WebRequestQueue::flush()::$_0, WebRequestQueue::flush()::$_1, WebRequestQueue::flush()::$_2>(WebRequestQueue::flush()::$_0&&, WebRequestQueue::flush()::$_1&&, WebRequestQueue::flush()::$_2&&) const::{lambda(geode::Task<geode::utils::web::WebResponse, geode::utils::web::WebProgress>::Event*)#1}::operator()(geode::Task<geode::utils::web::WebResponse, geode::utils::web::WebProgress>::Event*)::{lambda()#1}, std::__ndk1::allocator<geode::Task<geode::utils::web::WebResponse, geode::utils::web::WebProgress>::listen<WebRequestQueue::flush()::$_0, WebRequestQueue::flush()::$_1, WebRequestQueue::flush()::$_2>(WebRequestQueue::flush()::$_0&&, WebRequestQueue::flush()::$_1&&, WebRequestQueue::flush()::$_2&&) const::{lambda(geode::Task<geode::utils::web::WebResponse, geode::utils::web::WebProgress>::Event*)#1}::operator()(geode::Task<geode::utils::web::WebResponse, geode::utils::web::WebProgress>::Event*)::{lambda()#1}>, void ()>::target_type() const
PUBLIC 634d8 0 __cxx_global_var_init.28
PUBLIC 63958 0 geode::modifier::ModifyBase<geode::modifier::ModifyDerive<RLAppDelegate, AppDelegate> >::~ModifyBase()
PUBLIC 63974 0 std::__ndk1::unique_ptr<CacheManager::CacheFunction<(CMKey)0>, std::__ndk1::default_delete<CacheManager::CacheFunction<(CMKey)0> > >::~unique_ptr[abi:ne180000]()
PUBLIC 639d4 0 std::__ndk1::unique_ptr<std::__ndk1::__hash_node<std::__ndk1::__hash_value_type<CMKey, std::__ndk1::unique_ptr<CacheManager::CacheFunctionBase, std::__ndk1::default_delete<CacheManager::CacheFunctionBase> > >, void*>, std::__ndk1::__hash_node_destructor<std::__ndk1::allocator<std::__ndk1::__hash_node<std::__ndk1::__hash_value_type<CMKey, std::__ndk1::unique_ptr<CacheManager::CacheFunctionBase, std::__ndk1::default_delete<CacheManager::CacheFunctionBase> > >, void*> > > >::~unique_ptr[abi:ne180000]()
PUBLIC 63a20 0 std::__ndk1::__function::__base<matjson::Value()>::~__base()
PUBLIC 63a24 0 std::__ndk1::__function::__func<matjson::Value (*)(), std::__ndk1::allocator<matjson::Value (*)()>, matjson::Value()>::~__func()
PUBLIC 63a28 0 std::__ndk1::__function::__func<matjson::Value (*)(), std::__ndk1::allocator<matjson::Value (*)()>, matjson::Value()>::__clone() const
PUBLIC 63a5c 0 std::__ndk1::__function::__func<matjson::Value (*)(), std::__ndk1::allocator<matjson::Value (*)()>, matjson::Value()>::__clone(std::__ndk1::__function::__base<matjson::Value()>*) const
PUBLIC 63a70 0 std::__ndk1::__function::__func<matjson::Value (*)(), std::__ndk1::allocator<matjson::Value (*)()>, matjson::Value()>::destroy()
PUBLIC 63a74 0 std::__ndk1::__function::__func<matjson::Value (*)(), std::__ndk1::allocator<matjson::Value (*)()>, matjson::Value()>::destroy_deallocate()
PUBLIC 63a78 0 std::__ndk1::__function::__func<matjson::Value (*)(), std::__ndk1::allocator<matjson::Value (*)()>, matjson::Value()>::operator()()
PUBLIC 63a80 0 std::__ndk1::__function::__func<matjson::Value (*)(), std::__ndk1::allocator<matjson::Value (*)()>, matjson::Value()>::target(std::type_info const&) const
PUBLIC 63a9c 0 std::__ndk1::__function::__func<matjson::Value (*)(), std::__ndk1::allocator<matjson::Value (*)()>, matjson::Value()>::target_type() const
PUBLIC 63aa8 0 geode::modifier::ModifyDerive<RLAppDelegate, AppDelegate>::apply()
PUBLIC 640b4 0 geode::modifier::ModifyBase<geode::modifier::ModifyDerive<RLAppDelegate, AppDelegate> >::apply()
PUBLIC 640b8 0 geode::modifier::AsStaticFunction_applicationDidEnterBackground<RLAppDelegate, void (RLAppDelegate::*)()>::Impl<void (RLAppDelegate::*)()>::function(RLAppDelegate*)
PUBLIC 64154 0 geode::modifier::AsStaticFunction_trySaveGame<RLAppDelegate, void (RLAppDelegate::*)(bool)>::Impl<void (RLAppDelegate::*)(bool)>::function(RLAppDelegate*, bool)
PUBLIC 641f8 0 geode::addresser::Addresser::addressOfVirtual<void, AppDelegate, >(void (AppDelegate::*)())
PUBLIC 642b8 0 geode::addresser::Addresser::addressOfVirtual<void, AppDelegate, bool>(void (AppDelegate::*)(bool))
PUBLIC 64378 0 _GLOBAL__sub_I_main.cpp
PUBLIC 64a28 0 CacheManager::CacheManager()
PUBLIC 64d40 0 CacheManager::CacheManager()::$_0::operator()() const
PUBLIC 64e50 0 geode::impl::ResultData<matjson::Value, matjson::ParseError>::~ResultData()
PUBLIC m 64ec4 0 std::__ndk1::basic_ifstream<char, std::__ndk1::char_traits<char> >::~basic_ifstream()
PUBLIC 64f14 0 std::__ndk1::unordered_map<CMKey, std::__ndk1::unique_ptr<CacheManager::CacheFunctionBase, std::__ndk1::default_delete<CacheManager::CacheFunctionBase> >, std::__ndk1::hash<CMKey>, std::__ndk1::equal_to<CMKey>, std::__ndk1::allocator<std::__ndk1::pair<CMKey const, std::__ndk1::unique_ptr<CacheManager::CacheFunctionBase, std::__ndk1::default_delete<CacheManager::CacheFunctionBase> > > > >::~unordered_map[abi:ne180000]()
PUBLIC 64f84 0 CacheManager::~CacheManager()
PUBLIC 65014 0 CacheManager::save()
PUBLIC m 65150 0 std::__ndk1::basic_ofstream<char, std::__ndk1::char_traits<char> >::~basic_ofstream()
PUBLIC 651a0 0 std::__ndk1::__fs::filesystem::path::operator/=[abi:ne180000](std::__ndk1::__fs::filesystem::path const&)
PUBLIC 65288 0 std::__ndk1::__variant_detail::__visitation::__base::__dispatcher<(unsigned long)0>::__dispatch[abi:ne180000]<std::__ndk1::__variant_detail::__dtor<std::__ndk1::__variant_detail::__traits<matjson::Value, std::__ndk1::__variant_detail::__traits::ParseError>, (std::__ndk1::__variant_detail::_Trait)1>::__destroy[abi:ne180000]()::{lambda(auto:1&)#1}, std::__ndk1::__variant_detail::__base<(std::__ndk1::__variant_detail::__traits<matjson::Value, std::__ndk1::__variant_detail::__traits::ParseError>)1, matjson, matjson::Value>&>(std::__ndk1::__variant_detail::__dtor<std::__ndk1::__variant_detail::__traits<matjson::Value, std::__ndk1::__variant_detail::__traits::ParseError>, (std::__ndk1::__variant_detail::_Trait)1>, std::__ndk1::__variant_detail::__base<(std::__ndk1::__variant_detail::__traits<matjson::Value, std::__ndk1::__variant_detail::__traits::ParseError>)1, matjson, matjson::Value>&)
PUBLIC 65290 0 std::__ndk1::__variant_detail::__visitation::__base::__dispatcher<(unsigned long)1>::__dispatch[abi:ne180000]<std::__ndk1::__variant_detail::__dtor<std::__ndk1::__variant_detail::__traits<matjson::Value, std::__ndk1::__variant_detail::__traits::ParseError>, (std::__ndk1::__variant_detail::_Trait)1>::__destroy[abi:ne180000]()::{lambda(auto:1&)#1}, std::__ndk1::__variant_detail::__base<(std::__ndk1::__variant_detail::__traits<matjson::Value, std::__ndk1::__variant_detail::__traits::ParseError>)1, matjson, matjson::Value>&>(std::__ndk1::__variant_detail::__dtor<std::__ndk1::__variant_detail::__traits<matjson::Value, std::__ndk1::__variant_detail::__traits::ParseError>, (std::__ndk1::__variant_detail::_Trait)1>, std::__ndk1::__variant_detail::__base<(std::__ndk1::__variant_detail::__traits<matjson::Value, std::__ndk1::__variant_detail::__traits::ParseError>)1, matjson, matjson::Value>&)
PUBLIC 652a4 0 _ZNSt6__ndk112basic_stringIcNS_11char_traitsIcEENS_9allocatorIcEEE6appendB8ne180000IPKcTnNS_9enable_ifIXsr31__has_forward_iterator_categoryIT_EE5valueEiE4typeELi0EEERS5_SA_SA_
PUBLIC 655a8 0 std::__ndk1::basic_ofstream<char, std::__ndk1::char_traits<char> >::basic_ofstream(char const*, unsigned int)
PUBLIC 656b8 0 std::__ndk1::basic_ifstream<char, std::__ndk1::char_traits<char> >::basic_ifstream(char const*, unsigned int)
PUBLIC 657cc 0 _GLOBAL__sub_I_CacheManager.cpp
PUBLIC 658a8 0 RouletteManager::RouletteManager()
PUBLIC 66550 0 DataManager::setDefaultSafe<(DMArrayKey)0>()
PUBLIC 66980 0 DataManager::setDefaultSafe<(DMArrayKey)1>()
PUBLIC 66db0 0 DataManager::setDefaultSafe<(DMArrayKey)2>()
PUBLIC 671e0 0 RouletteManager::addExclamationMark(CCMenuItemSpriteExtra*)
PUBLIC 673bc 0 geode::Mod::get<void>()
PUBLIC 673f8 0 std::__ndk1::__fs::filesystem::path::~path[abi:ne180000]()
PUBLIC 6740c 0 DataManager::(anonymous namespace)::writeGameState(GameState const&)
PUBLIC 67780 0 geode::Mod::getSavedValue<unsigned int>(std::__ndk1::basic_string_view<char, std::__ndk1::char_traits<char> >)
PUBLIC 679a0 0 std::__ndk1::vector<int, std::__ndk1::allocator<int> >::__throw_length_error[abi:ne180000]() const
PUBLIC 679b4 0 std::__ndk1::__variant_detail::__visitation::__base::__dispatcher<(unsigned long)0>::__dispatch[abi:ne180000]<std::__ndk1::__variant_detail::__dtor<std::__ndk1::__variant_detail::__traits<unsigned int, std::__ndk1::basic_string<char, std::__ndk1::char_traits<char>, std::__ndk1::allocator<char> > >, (std::__ndk1::__variant_detail::_Trait)1>::__destroy[abi:ne180000]()::{lambda(auto:1&)#1}, std::__ndk1::__variant_detail::__base<(std::__ndk1::__variant_detail::__traits<unsigned int, std::__ndk1::basic_string<char, std::__ndk1::char_traits<char>, std::__ndk1::allocator<char> > >)1, unsigned int, std::__ndk1::allocator<char> >&>(std::__ndk1::__variant_detail::__dtor<std::__ndk1::__variant_detail::__traits<unsigned int, std::__ndk1::basic_string<char, std::__ndk1::char_traits<char>, std::__ndk1::allocator<char> > >, (std::__ndk1::__variant_detail::_Trait)1>, std::__ndk1::__variant_detail::__base<(std::__ndk1::__variant_detail::__traits<unsigned int, std::__ndk1::basic_string<char, std::__ndk1::char_traits<char>, std::__ndk1::allocator<char> > >)1, unsigned int, std::__ndk1::allocator<char> >&)
PUBLIC 679b8 0 std::__ndk1::__variant_detail::__visitation::__base::__dispatcher<(unsigned long)1>::__dispatch[abi:ne180000]<std::__ndk1::__variant_detail::__dtor<std::__ndk1::__variant_detail::__traits<unsigned int, std::__ndk1::basic_string<char, std::__ndk1::char_traits<char>, std::__ndk1::allocator<char> > >, (std::__ndk1::__variant_detail::_Trait)1>::__destroy[abi:ne180000]()::{lambda(auto:1&)#1}, std::__ndk1::__variant_detail::__base<(std::__ndk1::__variant_detail::__traits<unsigned int, std::__ndk1::basic_string<char, std::__ndk1::char_traits<char>, std::__ndk1::allocator<char> > >)1, unsigned int, std::__ndk1::allocator<char> >&>(std::__ndk1::__variant_detail::__dtor<std::__ndk1::__variant_detail::__traits<unsigned int, std::__ndk1::basic_string<char, std::__ndk1::char_traits<char>, std::__ndk1::allocator<char> > >, (std::__ndk1::__variant_detail::_Trait)1>, std::__ndk1::__variant_detail::__base<(std::__ndk1::__variant_detail::__traits<unsigned int, std::__ndk1::basic_string<char, std::__ndk1::char_traits<char>, std::__ndk1::allocator<char> > >)1, unsigned int, std::__ndk1::allocator<char> >&)
PUBLIC 679cc 0 std::__ndk1::__variant_detail::__visitation::__base::__dispatcher<(unsigned long)0>::__dispatch[abi:ne180000]<std::__ndk1::__variant_detail::__dtor<std::__ndk1::__variant_detail::__traits<bool, std::__ndk1::basic_string<char, std::__ndk1::char_traits<char>, std::__ndk1::allocator<char> > >, (std::__ndk1::__variant_detail::_Trait)1>::__destroy[abi:ne180000]()::{lambda(auto:1&)#1}, std::__ndk1::__variant_detail::__base<(std::__ndk1::__variant_detail::__traits<bool, std::__ndk1::basic_string<char, std::__ndk1::char_traits<char>, std::__ndk1::allocator<char> > >)1, bool, std::__ndk1::allocator<char> >&>(std::__ndk1::__variant_detail::__dtor<std::__ndk1::__variant_detail::__traits<bool, std::__ndk1::basic_string<char, std::__ndk1::char_traits<char>, std::__ndk1::allocator<char> > >, (std::__ndk1::__variant_detail::_Trait)1>, std::__ndk1::__variant_detail::__base<(std::__ndk1::__variant_detail::__traits<bool, std::__ndk1::basic_string<char, std::__ndk1::char_traits<char>, std::__ndk1::allocator<char> > >)1, bool, std::__ndk1::allocator<char> >&)
PUBLIC 679d0 0 std::__ndk1::__variant_detail::__visitation::__base::__dispatcher<(unsigned long)1>::__dispatch[abi:ne180000]<std::__ndk1::__variant_detail::__dtor<std::__ndk1::__variant_detail::__traits<bool, std::__ndk1::basic_string<char, std::__ndk1::char_traits<char>, std::__ndk1::allocator<char> > >, (std::__ndk1::__variant_detail::_Trait)1>::__destroy[abi:ne180000]()::{lambda(auto:1&)#1}, std::__ndk1::__variant_detail::__base<(std::__ndk1::__variant_detail::__traits<bool, std::__ndk1::basic_string<char, std::__ndk1::char_traits<char>, std::__ndk1::allocator<char> > >)1, bool, std::__ndk1::allocator<char> >&>(std::__ndk1::__variant_detail::__dtor<std::__ndk1::__variant_detail::__traits<bool, std::__ndk1::basic_string<char, std::__ndk1::char_traits<char>, std::__ndk1::allocator<char> > >, (std::__ndk1::__variant_detail::_Trait)1>, std::__ndk1::__variant_detail::__base<(std::__ndk1::__variant_detail::__traits<bool, std::__ndk1::basic_string<char, std::__ndk1::char_traits<char>, std::__ndk1::allocator<char> > >)1, bool, std::__ndk1::allocator<char> >&)
PUBLIC 679e4 0 geode::impl::ResultData<std::__ndk1::vector<matjson::Value, std::__ndk1::allocator<matjson::Value> >&, std::__ndk1::basic_string<char, std::__ndk1::char_traits<char>, std::__ndk1::allocator<char> > >::~ResultData()
PUBLIC 67a58 0 std::__ndk1::__variant_detail::__visitation::__base::__dispatcher<(unsigned long)0>::__dispatch[abi:ne180000]<std::__ndk1::__variant_detail::__dtor<std::__ndk1::__variant_detail::__traits<std::__ndk1::reference_wrapper<std::__ndk1::vector<matjson::Value, std::__ndk1::allocator<matjson> > >, std::__ndk1::basic_string<char, std::__ndk1::char_traits<char>, matjson::Value<char> > >, (std::__ndk1::__variant_detail::_Trait)1>::__destroy[abi:ne180000]()::{lambda(auto:1&)#1}, std::__ndk1::__variant_detail::__base<(std::__ndk1::__variant_detail::__traits<std::__ndk1::reference_wrapper<std::__ndk1::vector<matjson::Value, std::__ndk1::allocator<matjson> > >, std::__ndk1::basic_string<char, std::__ndk1::char_traits<char>, matjson::Value<char> > >)1, std::__ndk1::vector<matjson::Value, std::__ndk1::allocator<matjson> >, matjson::Value<char> >&>(std::__ndk1::__variant_detail::__dtor<std::__ndk1::__variant_detail::__traits<std::__ndk1::reference_wrapper<std::__ndk1::vector<matjson::Value, std::__ndk1::allocator<matjson> > >, std::__ndk1::basic_string<char, std::__ndk1::char_traits<char>, matjson::Value<char> > >, (std::__ndk1::__variant_detail::_Trait)1>, std::__ndk1::__variant_detail::__base<(std::__ndk1::__variant_detail::__traits<std::__ndk1::reference_wrapper<std::__ndk1::vector<matjson::Value, std::__ndk1::allocator<matjson> > >, std::__ndk1::basic_string<char, std::__ndk1::char_traits<char>, matjson::Value<char> > >)1, std::__ndk1::vector<matjson::Value, std::__ndk1::allocator<matjson> >, matjson::Value<char> >&)
PUBLIC 67a5c 0 std::__ndk1::__variant_detail::__visitation::__base::__dispatcher<(unsigned long)1>::__dispatch[abi:ne180000]<std::__ndk1::__variant_detail::__dtor<std::__ndk1::__variant_detail::__traits<std::__ndk1::reference_wrapper<std::__ndk1::vector<matjson::Value, std::__ndk1::allocator<matjson> > >, std::__ndk1::basic_string<char, std::__ndk1::char_traits<char>, matjson::Value<char> > >, (std::__ndk1::__variant_detail::_Trait)1>::__destroy[abi:ne180000]()::{lambda(auto:1&)#1}, std::__ndk1::__variant_detail::__base<(std::__ndk1::__variant_detail::__traits<std::__ndk1::reference_wrapper<std::__ndk1::vector<matjson::Value, std::__ndk1::allocator<matjson> > >, std::__ndk1::basic_string<char, std::__ndk1::char_traits<char>, matjson::Value<char> > >)1, std::__ndk1::vector<matjson::Value, std::__ndk1::allocator<matjson> >, matjson::Value<char> >&>(std::__ndk1::__variant_detail::__dtor<std::__ndk1::__variant_detail::__traits<std::__ndk1::reference_wrapper<std::__ndk1::vector<matjson::Value, std::__ndk1::allocator<matjson> > >, std::__ndk1::basic_string<char, std::__ndk1::char_traits<char>, matjson::Value<char> > >, (std::__ndk1::__variant_detail::_Trait)1>, std::__ndk1::__variant_detail::__base<(std::__ndk1::__variant_detail::__traits<std::__ndk1::reference_wrapper<std::__ndk1::vector<matjson::Value, std::__ndk1::allocator<matjson> > >, std::__ndk1::basic_string<char, std::__ndk1::char_traits<char>, matjson::Value<char> > >)1, std::__ndk1::vector<matjson::Value, std::__ndk1::allocator<matjson> >, matjson::Value<char> >&)
PUBLIC 67a70 0 _ZN7matjson9SerializeINSt6__ndk16vectorIbNS1_9allocatorIbEEEEE6toJsonERKS5_QrQRKT__XcvNS_5ValueEfp_E
PUBLIC 67c4c 0 std::__ndk1::vector<matjson::Value, std::__ndk1::allocator<matjson::Value> >::reserve(unsigned long)
PUBLIC 67d2c 0 std::__ndk1::vector<matjson::Value, std::__ndk1::allocator<matjson::Value> >::__push_back_slow_path<matjson::Value>(matjson::Value&&)
PUBLIC 67e48 0 _GLOBAL__sub_I_RouletteManager.cpp
PUBLIC 67f6c 0 RLRouletteInfoAlertLayer::create()
PUBLIC 68074 0 RLRouletteInfoAlertLayer::init()
PUBLIC 68924 0 RLRouletteInfoAlertLayer::createToggler(int, std::__ndk1::basic_string<char, std::__ndk1::char_traits<char>, std::__ndk1::allocator<char> > const&, char const*, cocos2d::CCPoint, bool)
PUBLIC 68e04 0 RLRouletteInfoAlertLayer::onIDButton(cocos2d::CCObject*)
PUBLIC 68fd0 0 RLRouletteInfoAlertLayer::onNumSkipsButton(cocos2d::CCObject*)
PUBLIC 69144 0 RLRouletteInfoAlertLayer::onClose(cocos2d::CCObject*)
PUBLIC 69180 0 RLRouletteInfoAlertLayer::onToggleButton(cocos2d::CCObject*)
PUBLIC 693d8 0 DataManager::set<(DMArrayKey)2>(unsigned long, bool)
PUBLIC 69630 0 RLRouletteInfoAlertLayer::onInfoIcon(cocos2d::CCObject*)
PUBLIC 69a28 0 RLRouletteInfoAlertLayer::~RLRouletteInfoAlertLayer()
PUBLIC 69a4c 0 {virtual override thunk({offset(-320)}, RLRouletteInfoAlertLayer::~RLRouletteInfoAlertLayer())}
PUBLIC 69a54 0 {virtual override thunk({offset(-320)}, RLRouletteInfoAlertLayer::~RLRouletteInfoAlertLayer())}
PUBLIC 69a7c 0 geode::impl::ResultData<bool, std::__ndk1::basic_string<char, std::__ndk1::char_traits<char>, std::__ndk1::allocator<char> > >::~ResultData()
PUBLIC 69af0 0 std::__ndk1::vector<matjson::Value, std::__ndk1::allocator<matjson::Value> >::__throw_out_of_range[abi:ne180000]() const
PUBLIC 69b04 0 std::__ndk1::shared_ptr<geode::IntSettingV3>::~shared_ptr[abi:ne180000]()
PUBLIC 69b54 0 std::__ndk1::__function::__func<RLRouletteInfoAlertLayer::onNumSkipsButton(cocos2d::CCObject*)::$_0, std::__ndk1::allocator<RLRouletteInfoAlertLayer::onNumSkipsButton(cocos2d::CCObject*)::$_0>, void (RLIntegerInputAlertLayer*)>::~__func()
PUBLIC 69b58 0 std::__ndk1::__function::__func<RLRouletteInfoAlertLayer::onNumSkipsButton(cocos2d::CCObject*)::$_0, std::__ndk1::allocator<RLRouletteInfoAlertLayer::onNumSkipsButton(cocos2d::CCObject*)::$_0>, void (RLIntegerInputAlertLayer*)>::__clone() const
PUBLIC 69b7c 0 std::__ndk1::__function::__func<RLRouletteInfoAlertLayer::onNumSkipsButton(cocos2d::CCObject*)::$_0, std::__ndk1::allocator<RLRouletteInfoAlertLayer::onNumSkipsButton(cocos2d::CCObject*)::$_0>, void (RLIntegerInputAlertLayer*)>::__clone(std::__ndk1::__function::__base<void (RLIntegerInputAlertLayer*)>*) const
PUBLIC 69b8c 0 std::__ndk1::__function::__func<RLRouletteInfoAlertLayer::onNumSkipsButton(cocos2d::CCObject*)::$_0, std::__ndk1::allocator<RLRouletteInfoAlertLayer::onNumSkipsButton(cocos2d::CCObject*)::$_0>, void (RLIntegerInputAlertLayer*)>::destroy()
PUBLIC 69b90 0 std::__ndk1::__function::__func<RLRouletteInfoAlertLayer::onNumSkipsButton(cocos2d::CCObject*)::$_0, std::__ndk1::allocator<RLRouletteInfoAlertLayer::onNumSkipsButton(cocos2d::CCObject*)::$_0>, void (RLIntegerInputAlertLayer*)>::destroy_deallocate()
PUBLIC 69b94 0 std::__ndk1::__function::__func<RLRouletteInfoAlertLayer::onNumSkipsButton(cocos2d::CCObject*)::$_0, std::__ndk1::allocator<RLRouletteInfoAlertLayer::onNumSkipsButton(cocos2d::CCObject*)::$_0>, void (RLIntegerInputAlertLayer*)>::operator()(RLIntegerInputAlertLayer*&&)
PUBLIC 69d60 0 std::__ndk1::__function::__func<RLRouletteInfoAlertLayer::onNumSkipsButton(cocos2d::CCObject*)::$_0, std::__ndk1::allocator<RLRouletteInfoAlertLayer::onNumSkipsButton(cocos2d::CCObject*)::$_0>, void (RLIntegerInputAlertLayer*)>::target(std::type_info const&) const
PUBLIC 69d7c 0 std::__ndk1::__function::__func<RLRouletteInfoAlertLayer::onNumSkipsButton(cocos2d::CCObject*)::$_0, std::__ndk1::allocator<RLRouletteInfoAlertLayer::onNumSkipsButton(cocos2d::CCObject*)::$_0>, void (RLIntegerInputAlertLayer*)>::target_type() const
PUBLIC 69d88 0 std::__ndk1::__function::__base<void (RLIntegerInputAlertLayer*)>::~__base()
PUBLIC 69d8c 0 std::__ndk1::__function::__func<RLRouletteInfoAlertLayer::onIDButton(cocos2d::CCObject*)::$_0, std::__ndk1::allocator<RLRouletteInfoAlertLayer::onIDButton(cocos2d::CCObject*)::$_0>, void (RLIntegerInputAlertLayer*)>::~__func()
PUBLIC 69d90 0 std::__ndk1::__function::__func<RLRouletteInfoAlertLayer::onIDButton(cocos2d::CCObject*)::$_0, std::__ndk1::allocator<RLRouletteInfoAlertLayer::onIDButton(cocos2d::CCObject*)::$_0>, void (RLIntegerInputAlertLayer*)>::__clone() const
PUBLIC 69dc4 0 std::__ndk1::__function::__func<RLRouletteInfoAlertLayer::onIDButton(cocos2d::CCObject*)::$_0, std::__ndk1::allocator<RLRouletteInfoAlertLayer::onIDButton(cocos2d::CCObject*)::$_0>, void (RLIntegerInputAlertLayer*)>::__clone(std::__ndk1::__function::__base<void (RLIntegerInputAlertLayer*)>*) const
PUBLIC 69dd8 0 std::__ndk1::__function::__func<RLRouletteInfoAlertLayer::onIDButton(cocos2d::CCObject*)::$_0, std::__ndk1::allocator<RLRouletteInfoAlertLayer::onIDButton(cocos2d::CCObject*)::$_0>, void (RLIntegerInputAlertLayer*)>::destroy()
PUBLIC 69ddc 0 std::__ndk1::__function::__func<RLRouletteInfoAlertLayer::onIDButton(cocos2d::CCObject*)::$_0, std::__ndk1::allocator<RLRouletteInfoAlertLayer::onIDButton(cocos2d::CCObject*)::$_0>, void (RLIntegerInputAlertLayer*)>::destroy_deallocate()
PUBLIC 69de0 0 std::__ndk1::__function::__func<RLRouletteInfoAlertLayer::onIDButton(cocos2d::CCObject*)::$_0, std::__ndk1::allocator<RLRouletteInfoAlertLayer::onIDButton(cocos2d::CCObject*)::$_0>, void (RLIntegerInputAlertLayer*)>::operator()(RLIntegerInputAlertLayer*&&)
PUBLIC 69fc8 0 std::__ndk1::__function::__func<RLRouletteInfoAlertLayer::onIDButton(cocos2d::CCObject*)::$_0, std::__ndk1::allocator<RLRouletteInfoAlertLayer::onIDButton(cocos2d::CCObject*)::$_0>, void (RLIntegerInputAlertLayer*)>::target(std::type_info const&) const
PUBLIC 69fe4 0 std::__ndk1::__function::__func<RLRouletteInfoAlertLayer::onIDButton(cocos2d::CCObject*)::$_0, std::__ndk1::allocator<RLRouletteInfoAlertLayer::onIDButton(cocos2d::CCObject*)::$_0>, void (RLIntegerInputAlertLayer*)>::target_type() const
PUBLIC 69ff0 0 _GLOBAL__sub_I_RLRouletteInfoAlertLayer.cpp
PUBLIC 6a10c 0 RLRouletteLayer::RLRouletteLayer()
PUBLIC 6a358 0 RLRouletteLayer::init()
PUBLIC 6d1dc 0 RLRouletteLayer::onInfoButton(cocos2d::CCObject*)
PUBLIC 6d574 0 RLRouletteLayer::onStatsButton(cocos2d::CCObject*)
PUBLIC 6d68c 0 RLRouletteLayer::createDifficultyButton(GJDifficulty, cocos2d::CCNode*, cocos2d::CCPoint, float, bool, bool)
PUBLIC 6d8dc 0 RLRouletteLayer::onPlusButton(cocos2d::CCObject*)
PUBLIC 6da44 0 RLRouletteLayer::onStartButton(cocos2d::CCObject*)
PUBLIC 6dd04 0 RLRouletteLayer::onLevelInfo(cocos2d::CCObject*)
PUBLIC 6e12c 0 RLRouletteLayer::onPlayButton(cocos2d::CCObject*)
PUBLIC 6e39c 0 RLRouletteLayer::onSkipButton(cocos2d::CCObject*)
PUBLIC 6e82c 0 RLRouletteLayer::onNextButton(cocos2d::CCObject*)
PUBLIC 6f554 0 RLRouletteLayer::onResetButton(cocos2d::CCObject*)
PUBLIC 6fc64 0 RLRouletteLayer::onLevelsPlayedButton(cocos2d::CCObject*)
PUBLIC 6fe58 0 RLRouletteLayer::onRefreshButton(cocos2d::CCObject*)
PUBLIC 6ff20 0 RLRouletteLayer::onListChanged()
PUBLIC 70298 0 RLRouletteLayer::onClose(cocos2d::CCObject*)
PUBLIC 704dc 0 RLConfirmationData::~RLConfirmationData()
PUBLIC 70570 0 RLRouletteLayer::onDifficultyButton(cocos2d::CCObject*)
PUBLIC 709ec 0 RLRouletteLayer::getRandomListLevel()
PUBLIC 70d38 0 RLDifficultySelectData::~RLDifficultySelectData()
PUBLIC 70dcc 0 RLRouletteLayer::onExitTransitionDidStart()
PUBLIC 71260 0 RLRouletteLayer::onEnterTransitionDidFinish()
PUBLIC 714e8 0 RLRouletteLayer::~RLRouletteLayer()
PUBLIC 71590 0 RLRouletteLayer::~RLRouletteLayer()
PUBLIC 71640 0 {virtual override thunk({offset(-320)}, RLRouletteLayer::~RLRouletteLayer())}
PUBLIC 716f4 0 {virtual override thunk({offset(-320)}, RLRouletteLayer::~RLRouletteLayer())}
PUBLIC 717b0 0 _ZN5geode15UnwrapExceptionC2IRNSt6__ndk14pairIN4rtrp7objects11LevelObjectENS5_13CreatorObjectEEEQntsr4implE18IsStringStreamableIT_EEENS_4impl5OkTagEOSA_
PUBLIC 717e4 0 ListFetcher::~ListFetcher()
PUBLIC 71998 0 std::__ndk1::__function::__func<RLRouletteLayer::RLRouletteLayer()::$_0, std::__ndk1::allocator<RLRouletteLayer::RLRouletteLayer()::$_0>, void ()>::~__func()
PUBLIC 7199c 0 std::__ndk1::__function::__func<RLRouletteLayer::RLRouletteLayer()::$_0, std::__ndk1::allocator<RLRouletteLayer::RLRouletteLayer()::$_0>, void ()>::__clone() const
PUBLIC 719d0 0 std::__ndk1::__function::__func<RLRouletteLayer::RLRouletteLayer()::$_0, std::__ndk1::allocator<RLRouletteLayer::RLRouletteLayer()::$_0>, void ()>::__clone(std::__ndk1::__function::__base<void ()>*) const
PUBLIC 719e4 0 std::__ndk1::__function::__func<RLRouletteLayer::RLRouletteLayer()::$_0, std::__ndk1::allocator<RLRouletteLayer::RLRouletteLayer()::$_0>, void ()>::destroy()
PUBLIC 719e8 0 std::__ndk1::__function::__func<RLRouletteLayer::RLRouletteLayer()::$_0, std::__ndk1::allocator<RLRouletteLayer::RLRouletteLayer()::$_0>, void ()>::destroy_deallocate()
PUBLIC 719ec 0 std::__ndk1::__function::__func<RLRouletteLayer::RLRouletteLayer()::$_0, std::__ndk1::allocator<RLRouletteLayer::RLRouletteLayer()::$_0>, void ()>::operator()()
PUBLIC 721b4 0 std::__ndk1::__function::__func<RLRouletteLayer::RLRouletteLayer()::$_0, std::__ndk1::allocator<RLRouletteLayer::RLRouletteLayer()::$_0>, void ()>::target(std::type_info const&) const
PUBLIC 721d0 0 std::__ndk1::__function::__func<RLRouletteLayer::RLRouletteLayer()::$_0, std::__ndk1::allocator<RLRouletteLayer::RLRouletteLayer()::$_0>, void ()>::target_type() const
PUBLIC 721dc 0 std::__ndk1::__function::__func<RLRouletteLayer::onClose(cocos2d::CCObject*)::$_0, std::__ndk1::allocator<RLRouletteLayer::onClose(cocos2d::CCObject*)::$_0>, void (RLConfirmationAlertLayer*)>::~__func()
PUBLIC 721e0 0 std::__ndk1::__function::__func<RLRouletteLayer::onClose(cocos2d::CCObject*)::$_0, std::__ndk1::allocator<RLRouletteLayer::onClose(cocos2d::CCObject*)::$_0>, void (RLConfirmationAlertLayer*)>::__clone() const
PUBLIC 72218 0 std::__ndk1::__function::__func<RLRouletteLayer::onClose(cocos2d::CCObject*)::$_0, std::__ndk1::allocator<RLRouletteLayer::onClose(cocos2d::CCObject*)::$_0>, void (RLConfirmationAlertLayer*)>::__clone(std::__ndk1::__function::__base<void (RLConfirmationAlertLayer*)>*) const
PUBLIC 72230 0 std::__ndk1::__function::__func<RLRouletteLayer::onClose(cocos2d::CCObject*)::$_0, std::__ndk1::allocator<RLRouletteLayer::onClose(cocos2d::CCObject*)::$_0>, void (RLConfirmationAlertLayer*)>::destroy()
PUBLIC 72234 0 std::__ndk1::__function::__func<RLRouletteLayer::onClose(cocos2d::CCObject*)::$_0, std::__ndk1::allocator<RLRouletteLayer::onClose(cocos2d::CCObject*)::$_0>, void (RLConfirmationAlertLayer*)>::destroy_deallocate()
PUBLIC 72238 0 std::__ndk1::__function::__func<RLRouletteLayer::onClose(cocos2d::CCObject*)::$_0, std::__ndk1::allocator<RLRouletteLayer::onClose(cocos2d::CCObject*)::$_0>, void (RLConfirmationAlertLayer*)>::operator()(RLConfirmationAlertLayer*&&)
PUBLIC 72304 0 std::__ndk1::__function::__func<RLRouletteLayer::onClose(cocos2d::CCObject*)::$_0, std::__ndk1::allocator<RLRouletteLayer::onClose(cocos2d::CCObject*)::$_0>, void (RLConfirmationAlertLayer*)>::target(std::type_info const&) const
PUBLIC 72320 0 std::__ndk1::__function::__func<RLRouletteLayer::onClose(cocos2d::CCObject*)::$_0, std::__ndk1::allocator<RLRouletteLayer::onClose(cocos2d::CCObject*)::$_0>, void (RLConfirmationAlertLayer*)>::target_type() const
PUBLIC 7232c 0 std::__ndk1::__function::__base<void (RLConfirmationAlertLayer*)>::~__base()
PUBLIC 72330 0 std::__ndk1::__function::__func<RLRouletteLayer::onClose(cocos2d::CCObject*)::$_1, std::__ndk1::allocator<RLRouletteLayer::onClose(cocos2d::CCObject*)::$_1>, void (RLConfirmationAlertLayer*)>::~__func()
PUBLIC 72334 0 std::__ndk1::__function::__func<RLRouletteLayer::onClose(cocos2d::CCObject*)::$_1, std::__ndk1::allocator<RLRouletteLayer::onClose(cocos2d::CCObject*)::$_1>, void (RLConfirmationAlertLayer*)>::__clone() const
PUBLIC 7236c 0 std::__ndk1::__function::__func<RLRouletteLayer::onClose(cocos2d::CCObject*)::$_1, std::__ndk1::allocator<RLRouletteLayer::onClose(cocos2d::CCObject*)::$_1>, void (RLConfirmationAlertLayer*)>::__clone(std::__ndk1::__function::__base<void (RLConfirmationAlertLayer*)>*) const
PUBLIC 72384 0 std::__ndk1::__function::__func<RLRouletteLayer::onClose(cocos2d::CCObject*)::$_1, std::__ndk1::allocator<RLRouletteLayer::onClose(cocos2d::CCObject*)::$_1>, void (RLConfirmationAlertLayer*)>::destroy()
PUBLIC 72388 0 std::__ndk1::__function::__func<RLRouletteLayer::onClose(cocos2d::CCObject*)::$_1, std::__ndk1::allocator<RLRouletteLayer::onClose(cocos2d::CCObject*)::$_1>, void (RLConfirmationAlertLayer*)>::destroy_deallocate()
PUBLIC 7238c 0 std::__ndk1::__function::__func<RLRouletteLayer::onClose(cocos2d::CCObject*)::$_1, std::__ndk1::allocator<RLRouletteLayer::onClose(cocos2d::CCObject*)::$_1>, void (RLConfirmationAlertLayer*)>::operator()(RLConfirmationAlertLayer*&&)
PUBLIC 7240c 0 std::__ndk1::__function::__func<RLRouletteLayer::onClose(cocos2d::CCObject*)::$_1, std::__ndk1::allocator<RLRouletteLayer::onClose(cocos2d::CCObject*)::$_1>, void (RLConfirmationAlertLayer*)>::target(std::type_info const&) const
PUBLIC 72428 0 std::__ndk1::__function::__func<RLRouletteLayer::onClose(cocos2d::CCObject*)::$_1, std::__ndk1::allocator<RLRouletteLayer::onClose(cocos2d::CCObject*)::$_1>, void (RLConfirmationAlertLayer*)>::target_type() const
PUBLIC 72434 0 std::__ndk1::__function::__base<void (GJDifficulty, GJDifficulty)>::~__base()
PUBLIC 72438 0 std::__ndk1::__function::__func<RLRouletteLayer::onPlusButton(cocos2d::CCObject*)::$_0, std::__ndk1::allocator<RLRouletteLayer::onPlusButton(cocos2d::CCObject*)::$_0>, void (GJDifficulty, GJDifficulty)>::~__func()
PUBLIC 7243c 0 std::__ndk1::__function::__func<RLRouletteLayer::onPlusButton(cocos2d::CCObject*)::$_0, std::__ndk1::allocator<RLRouletteLayer::onPlusButton(cocos2d::CCObject*)::$_0>, void (GJDifficulty, GJDifficulty)>::__clone() const
PUBLIC 72470 0 std::__ndk1::__function::__func<RLRouletteLayer::onPlusButton(cocos2d::CCObject*)::$_0, std::__ndk1::allocator<RLRouletteLayer::onPlusButton(cocos2d::CCObject*)::$_0>, void (GJDifficulty, GJDifficulty)>::__clone(std::__ndk1::__function::__base<void (GJDifficulty, GJDifficulty)>*) const
PUBLIC 72484 0 std::__ndk1::__function::__func<RLRouletteLayer::onPlusButton(cocos2d::CCObject*)::$_0, std::__ndk1::allocator<RLRouletteLayer::onPlusButton(cocos2d::CCObject*)::$_0>, void (GJDifficulty, GJDifficulty)>::destroy()
PUBLIC 72488 0 std::__ndk1::__function::__func<RLRouletteLayer::onPlusButton(cocos2d::CCObject*)::$_0, std::__ndk1::allocator<RLRouletteLayer::onPlusButton(cocos2d::CCObject*)::$_0>, void (GJDifficulty, GJDifficulty)>::destroy_deallocate()
PUBLIC 7248c 0 std::__ndk1::__function::__func<RLRouletteLayer::onPlusButton(cocos2d::CCObject*)::$_0, std::__ndk1::allocator<RLRouletteLayer::onPlusButton(cocos2d::CCObject*)::$_0>, void (GJDifficulty, GJDifficulty)>::operator()(GJDifficulty&&, GJDifficulty&&)
PUBLIC 726d4 0 std::__ndk1::__function::__func<RLRouletteLayer::onPlusButton(cocos2d::CCObject*)::$_0, std::__ndk1::allocator<RLRouletteLayer::onPlusButton(cocos2d::CCObject*)::$_0>, void (GJDifficulty, GJDifficulty)>::target(std::type_info const&) const
PUBLIC 726f0 0 std::__ndk1::__function::__func<RLRouletteLayer::onPlusButton(cocos2d::CCObject*)::$_0, std::__ndk1::allocator<RLRouletteLayer::onPlusButton(cocos2d::CCObject*)::$_0>, void (GJDifficulty, GJDifficulty)>::target_type() const
PUBLIC 726fc 0 _GLOBAL__sub_I_RLRouletteLayer.cpp
PUBLIC m 7285c 0 geodeImplicitEntry
PUBLIC 72898 0 rtrp::RtResponseParser::parseLevelResponse(std::__ndk1::basic_string<char, std::__ndk1::char_traits<char>, std::__ndk1::allocator<char> > const&)
PUBLIC 75080 0 rtrp::utils::splitString(std::__ndk1::basic_string<char, std::__ndk1::char_traits<char>, std::__ndk1::allocator<char> > const&, std::__ndk1::basic_string_view<char, std::__ndk1::char_traits<char> >)
PUBLIC 75658 0 rtrp::utils::splitKVP(std::__ndk1::basic_string<char, std::__ndk1::char_traits<char>, std::__ndk1::allocator<char> > const&, std::__ndk1::basic_string_view<char, std::__ndk1::char_traits<char> >)
PUBLIC 75cc0 0 rtrp::objects::SongObject::~SongObject()
PUBLIC 75d54 0 rtrp::RtResponseParser::parseListResponse(std::__ndk1::basic_string<char, std::__ndk1::char_traits<char>, std::__ndk1::allocator<char> > const&)
PUBLIC 76f38 0 rtrp::objects::ListObject::~ListObject()
PUBLIC 76ff4 0 rtrp::responses::ListResponse::~ListResponse()
PUBLIC 770b4 0 std::__ndk1::vector<rtrp::objects::ListObject, std::__ndk1::allocator<rtrp::objects::ListObject> >::~vector[abi:ne180000]()
PUBLIC 7711c 0 std::__ndk1::__split_buffer<rtrp::objects::LevelObject, std::__ndk1::allocator<rtrp::objects::LevelObject>&>::~__split_buffer()
PUBLIC 77170 0 rtrp::utils::getOrDefault<int>(std::__ndk1::map<unsigned long, std::__ndk1::basic_string<char, std::__ndk1::char_traits<char>, std::__ndk1::allocator<char> >, std::__ndk1::less<unsigned long>, std::__ndk1::allocator<std::__ndk1::pair<unsigned long const, std::__ndk1::basic_string<char, std::__ndk1::char_traits<char>, std::__ndk1::allocator<char> > > > > const&, unsigned long)
PUBLIC 773c8 0 std::__ndk1::vector<rtrp::objects::CreatorObject, std::__ndk1::allocator<rtrp::objects::CreatorObject> >::__emplace_back_slow_path<rtrp::objects::CreatorObject const>(rtrp::objects::CreatorObject const&&)
PUBLIC 77610 0 std::__ndk1::__split_buffer<rtrp::objects::CreatorObject, std::__ndk1::allocator<rtrp::objects::CreatorObject>&>::~__split_buffer()
PUBLIC 77678 0 std::__ndk1::__split_buffer<rtrp::objects::SongObject, std::__ndk1::allocator<rtrp::objects::SongObject>&>::~__split_buffer()
PUBLIC 776cc 0 rtrp::objects::ListObject::ListObject(rtrp::objects::ListObject const&)
PUBLIC 7795c 0 std::__ndk1::__split_buffer<rtrp::objects::ListObject, std::__ndk1::allocator<rtrp::objects::ListObject>&>::~__split_buffer()
PUBLIC 779b0 0 std::__ndk1::vector<rtrp::objects::ListObject, std::__ndk1::allocator<rtrp::objects::ListObject> >::__throw_length_error[abi:ne180000]() const
PUBLIC 779c4 0 std::__ndk1::__exception_guard_exceptions<std::__ndk1::vector<rtrp::objects::ListObject, std::__ndk1::allocator<rtrp::objects::ListObject> >::__destroy_vector>::~__exception_guard_exceptions[abi:ne180000]()
PUBLIC 77a40 0 std::__ndk1::__tree<std::__ndk1::__value_type<unsigned long, std::__ndk1::basic_string<char, std::__ndk1::char_traits<char>, std::__ndk1::allocator<char> > >, std::__ndk1::__map_value_compare<unsigned long, std::__ndk1::__value_type<unsigned long, std::__ndk1::basic_string<char, std::__ndk1::char_traits<char>, std::__ndk1::allocator<char> > >, std::__ndk1::less<unsigned long>, true>, std::__ndk1::allocator<std::__ndk1::__value_type<unsigned long, std::__ndk1::basic_string<char, std::__ndk1::char_traits<char>, std::__ndk1::allocator<char> > > > >::destroy(std::__ndk1::__tree_node<std::__ndk1::__value_type<unsigned long, std::__ndk1::basic_string<char, std::__ndk1::char_traits<char>, std::__ndk1::allocator<char> > >, void*>*)
PUBLIC 77a88 0 std::__ndk1::unordered_map<void*, bool, std::__ndk1::hash<void*>, std::__ndk1::equal_to<void*>, std::__ndk1::allocator<std::__ndk1::pair<void* const, bool> > >::~unordered_map[abi:ne180000]()
PUBLIC 77ad4 0 wrapFunction(unsigned long, tulip::hook::WrapperMetadata const&)
PUBLIC 77c08 0 geode::impl::ResultData<void*, std::__ndk1::basic_string<char, std::__ndk1::char_traits<char>, std::__ndk1::allocator<char> > >::unwrapErr() &
PUBLIC 77c80 0 geode::impl::ResultData<void*, std::__ndk1::basic_string<char, std::__ndk1::char_traits<char>, std::__ndk1::allocator<char> > >::~ResultData()
PUBLIC 77cf4 0 tulip::hook::WrapperMetadata::~WrapperMetadata()
PUBLIC 77d58 0 cocos2d::CCObject::~CCObject()
PUBLIC 77d7c 0 cocos2d::CCNode::~CCNode()
PUBLIC 77da0 0 cocos2d::CCNodeRGBA::CCNodeRGBA()
PUBLIC 7800c 0 cocos2d::CCNodeRGBA::~CCNodeRGBA()
PUBLIC 78030 0 cocos2d::CCLayer::CCLayer()
PUBLIC 782b4 0 {virtual override thunk({offset(-320)}, cocos2d::CCLayer::~CCLayer())}
PUBLIC 782bc 0 cocos2d::CCLayer::~CCLayer()
PUBLIC 782e0 0 {virtual override thunk({offset(-320)}, cocos2d::CCLayer::~CCLayer())}
PUBLIC 78308 0 cocos2d::CCLayerRGBA::CCLayerRGBA()
PUBLIC 78594 0 cocos2d::CCLayerRGBA::~CCLayerRGBA()
PUBLIC 78894 0 {virtual override thunk({offset(-320)}, cocos2d::CCLayerRGBA::~CCLayerRGBA())}
PUBLIC 7889c 0 cocos2d::CCLayerRGBA::~CCLayerRGBA()
PUBLIC 788c0 0 {virtual override thunk({offset(-320)}, cocos2d::CCLayerRGBA::~CCLayerRGBA())}
PUBLIC 788e8 0 cocos2d::CCLayerColor::CCLayerColor()
PUBLIC 78b4c 0 {virtual override thunk({offset(-320)}, cocos2d::CCLayerColor::~CCLayerColor())}
PUBLIC 78b54 0 cocos2d::CCLayerColor::~CCLayerColor()
PUBLIC 78b78 0 {virtual override thunk({offset(-320)}, cocos2d::CCLayerColor::~CCLayerColor())}
PUBLIC 78ba0 0 cocos2d::CCSprite::CCSprite()
PUBLIC 78e00 0 cocos2d::CCSprite::~CCSprite()
PUBLIC 78e24 0 DS_Dictionary::DS_Dictionary()
PUBLIC 78fa8 0 DS_Dictionary::setStringForKey(char const*, gd::string const&)
PUBLIC 79108 0 tulip::hook::AbstractFunction::from<void, DS_Dictionary*, char const*, gd::string const&>(void (*)(DS_Dictionary*, char const*, gd::string const&))
PUBLIC 79210 0 cocos2d::ZipUtils::base64URLEncode(gd::string const&)
PUBLIC 79384 0 pugi::xml_document::xml_document()
PUBLIC 794ec 0 pugi::xml_node::xml_node()
PUBLIC m 79640 0 pugi::xml_document::~xml_document()
PUBLIC 79880 0 {virtual override thunk({offset(-320)}, FLAlertLayer::~FLAlertLayer())}
PUBLIC 79888 0 FLAlertLayer::~FLAlertLayer()
PUBLIC 798ac 0 {virtual override thunk({offset(-320)}, FLAlertLayer::~FLAlertLayer())}
PUBLIC 798d4 0 FLAlertLayer::create(FLAlertLayerProtocol*, char const*, gd::string, char const*, char const*, float)
PUBLIC 79a8c 0 tulip::hook::AbstractFunction::from<FLAlertLayer*, FLAlertLayerProtocol*, char const*, gd::string, char const*, char const*, float>(FLAlertLayer* (*)(FLAlertLayerProtocol*, char const*, gd::string, char const*, char const*, float))
PUBLIC 79f70 0 cocos2d::CCNodeRGBA::~CCNodeRGBA()
PUBLIC 7a228 0 CCTextInputNode::setAllowedChars(gd::string)
PUBLIC 7a3a0 0 tulip::hook::AbstractFunction::from<void, CCTextInputNode*, gd::string>(void (*)(CCTextInputNode*, gd::string))
PUBLIC 7a444 0 CCTextInputNode::setString(gd::string)
PUBLIC 7a5bc 0 cocos2d::CCSprite::~CCSprite()
PUBLIC 7a87c 0 FMODAudioEngine::playEffect(gd::string)
PUBLIC 7a9f4 0 tulip::hook::AbstractFunction::from<void, FMODAudioEngine*, gd::string>(void (*)(FMODAudioEngine*, gd::string))
PUBLIC 7aa98 0 GJBaseGameLayer::~GJBaseGameLayer()
PUBLIC 7b2d4 0 GJBaseGameLayer::GJBaseGameLayer(geode::CutoffConstructorType, unsigned long)
PUBLIC 7ba84 0 {virtual override thunk({offset(-320)}, GJBaseGameLayer::~GJBaseGameLayer())}
PUBLIC 7ba8c 0 GJBaseGameLayer::~GJBaseGameLayer()
PUBLIC 7bab0 0 {virtual override thunk({offset(-320)}, GJBaseGameLayer::~GJBaseGameLayer())}
PUBLIC 7bad8 0 GJBaseGameLayer::toggleGroupTriggered(int, bool, gd::vector<int> const&, int, int)
PUBLIC 7bc44 0 tulip::hook::AbstractFunction::from<void, GJBaseGameLayer*, int, bool, gd::vector<int> const&, int, int>(void (*)(GJBaseGameLayer*, int, bool, gd::vector<int> const&, int, int))
PUBLIC 7c0f0 0 {virtual override thunk({offset(-408)}, GJBaseGameLayer::toggleGroupTriggered(int, bool, gd::vector<int> const&, int, int))}
PUBLIC 7c0f8 0 GJBaseGameLayer::spawnGroup(int, bool, double, gd::vector<int> const&, int, int)
PUBLIC 7c274 0 tulip::hook::AbstractFunction::from<void, GJBaseGameLayer*, int, bool, double, gd::vector<int> const&, int, int>(void (*)(GJBaseGameLayer*, int, bool, double, gd::vector<int> const&, int, int))
PUBLIC 7c820 0 {virtual override thunk({offset(-408)}, GJBaseGameLayer::spawnGroup(int, bool, double, gd::vector<int> const&, int, int))}
PUBLIC 7c828 0 GJBaseGameLayer::spawnObject(GameObject*, double, gd::vector<int> const&)
PUBLIC 7c984 0 tulip::hook::AbstractFunction::from<void, GJBaseGameLayer*, GameObject*, double, gd::vector<int> const&>(void (*)(GJBaseGameLayer*, GameObject*, double, gd::vector<int> const&))
PUBLIC 7cc58 0 {virtual override thunk({offset(-408)}, GJBaseGameLayer::spawnObject(GameObject*, double, gd::vector<int> const&))}
PUBLIC 7cc60 0 GJBaseGameLayer::activatePlatformerEndTrigger(EndTriggerGameObject*, gd::vector<int> const&)
PUBLIC 7cdac 0 tulip::hook::AbstractFunction::from<void, GJBaseGameLayer*, EndTriggerGameObject*, gd::vector<int> const&>(void (*)(GJBaseGameLayer*, EndTriggerGameObject*, gd::vector<int> const&))
PUBLIC 7ceb4 0 GJBaseGameLayer::toggleGlitter(bool)
PUBLIC 7ceb8 0 GJBaseGameLayer::timeForPos(cocos2d::CCPoint, int, int, bool, int)
PUBLIC 7cec0 0 GJBaseGameLayer::posForTime(float)
PUBLIC 7cec8 0 GJBaseGameLayer::resetSPTriggered()
PUBLIC 7cecc 0 GJBaseGameLayer::createCustomParticle(gd::string const&, cocos2d::ParticleStruct const&, int, bool)
PUBLIC 7d030 0 tulip::hook::AbstractFunction::from<TodoReturnPlaceholder, GJBaseGameLayer*, gd::string const&, cocos2d::ParticleStruct const&, int, bool>(TodoReturnPlaceholder (*)(GJBaseGameLayer*, gd::string const&, cocos2d::ParticleStruct const&, int, bool))
PUBLIC 7d404 0 GJBaseGameLayer::claimCustomParticle(gd::string const&, cocos2d::ParticleStruct const&, int, int, int, bool)
PUBLIC 7d580 0 tulip::hook::AbstractFunction::from<TodoReturnPlaceholder, GJBaseGameLayer*, gd::string const&, cocos2d::ParticleStruct const&, int, int, int, bool>(TodoReturnPlaceholder (*)(GJBaseGameLayer*, gd::string const&, cocos2d::ParticleStruct const&, int, int, int, bool))
PUBLIC 7db54 0 GJBaseGameLayer::unclaimCustomParticle(gd::string const&, cocos2d::CCParticleSystemQuad*)
PUBLIC 7dca0 0 tulip::hook::AbstractFunction::from<TodoReturnPlaceholder, GJBaseGameLayer*, gd::string const&, cocos2d::CCParticleSystemQuad*>(TodoReturnPlaceholder (*)(GJBaseGameLayer*, gd::string const&, cocos2d::CCParticleSystemQuad*))
PUBLIC 7dda8 0 PlayLayer::~PlayLayer()
PUBLIC 7e0d4 0 {virtual override thunk({offset(-320)}, PlayLayer::~PlayLayer())}
PUBLIC 7e0dc 0 PlayLayer::~PlayLayer()
PUBLIC 7e100 0 {virtual override thunk({offset(-320)}, PlayLayer::~PlayLayer())}
PUBLIC 7e128 0 PlayLayer::activatePlatformerEndTrigger(EndTriggerGameObject*, gd::vector<int> const&)
PUBLIC 7e274 0 tulip::hook::AbstractFunction::from<void, PlayLayer*, EndTriggerGameObject*, gd::vector<int> const&>(void (*)(PlayLayer*, EndTriggerGameObject*, gd::vector<int> const&))
PUBLIC 7e37c 0 TextAlertPopup::create(gd::string, float, float, int, gd::string)
PUBLIC 7e540 0 tulip::hook::AbstractFunction::from<TextAlertPopup*, gd::string, float, float, int, gd::string>(TextAlertPopup* (*)(gd::string, float, float, int, gd::string))
PUBLIC 7e914 0 TextArea::create(gd::string, char const*, float, float, cocos2d::CCPoint, float, bool)
PUBLIC 7eadc 0 tulip::hook::AbstractFunction::from<TextArea*, gd::string, char const*, float, float, cocos2d::CCPoint, float, bool>(TextArea* (*)(gd::string, char const*, float, float, cocos2d::CCPoint, float, bool))
PUBLIC 7f098 0 TextArea::setString(gd::string)
PUBLIC 7f210 0 tulip::hook::AbstractFunction::from<void, TextArea*, gd::string>(void (*)(TextArea*, gd::string))
PUBLIC 7f2b4 0 cocos2d::CCObject::update(float)
PUBLIC 7f2b8 0 cocos2d::CCLayerColor::~CCLayerColor()
PUBLIC 7f59c 0 FLAlertLayer::~FLAlertLayer()
PUBLIC 7f880 0 cocos2d::CCNode::~CCNode()
PUBLIC 7fb20 0 cocos2d::CCLayer::~CCLayer()
PUBLIC 7fe10 0 cocos2d::CCObject::~CCObject()
PUBLIC 80304 0 _ZN5geode15UnwrapExceptionC2IRPvQsr4implE18IsStringStreamableIT_EEENS_4impl5OkTagEOS4_
PUBLIC 80458 0 std::__ndk1::__variant_detail::__visitation::__base::__dispatcher<(unsigned long)0>::__dispatch[abi:ne180000]<std::__ndk1::__variant_detail::__dtor<std::__ndk1::__variant_detail::__traits<void*, std::__ndk1::basic_string<char, std::__ndk1::char_traits<char>, std::__ndk1::allocator<char> > >, (std::__ndk1::__variant_detail::_Trait)1>::__destroy[abi:ne180000]()::{lambda(auto:1&)#1}, std::__ndk1::__variant_detail::__base<(std::__ndk1::__variant_detail::__traits<void*, std::__ndk1::basic_string<char, std::__ndk1::char_traits<char>, std::__ndk1::allocator<char> > >)1, std::__ndk1::__variant_detail::__traits, std::__ndk1::allocator<char> >&>(std::__ndk1::__variant_detail::__dtor<std::__ndk1::__variant_detail::__traits<void*, std::__ndk1::basic_string<char, std::__ndk1::char_traits<char>, std::__ndk1::allocator<char> > >, (std::__ndk1::__variant_detail::_Trait)1>, std::__ndk1::__variant_detail::__base<(std::__ndk1::__variant_detail::__traits<void*, std::__ndk1::basic_string<char, std::__ndk1::char_traits<char>, std::__ndk1::allocator<char> > >)1, std::__ndk1::__variant_detail::__traits, std::__ndk1::allocator<char> >&)
PUBLIC 8045c 0 std::__ndk1::__variant_detail::__visitation::__base::__dispatcher<(unsigned long)1>::__dispatch[abi:ne180000]<std::__ndk1::__variant_detail::__dtor<std::__ndk1::__variant_detail::__traits<void*, std::__ndk1::basic_string<char, std::__ndk1::char_traits<char>, std::__ndk1::allocator<char> > >, (std::__ndk1::__variant_detail::_Trait)1>::__destroy[abi:ne180000]()::{lambda(auto:1&)#1}, std::__ndk1::__variant_detail::__base<(std::__ndk1::__variant_detail::__traits<void*, std::__ndk1::basic_string<char, std::__ndk1::char_traits<char>, std::__ndk1::allocator<char> > >)1, std::__ndk1::__variant_detail::__traits, std::__ndk1::allocator<char> >&>(std::__ndk1::__variant_detail::__dtor<std::__ndk1::__variant_detail::__traits<void*, std::__ndk1::basic_string<char, std::__ndk1::char_traits<char>, std::__ndk1::allocator<char> > >, (std::__ndk1::__variant_detail::_Trait)1>, std::__ndk1::__variant_detail::__base<(std::__ndk1::__variant_detail::__traits<void*, std::__ndk1::basic_string<char, std::__ndk1::char_traits<char>, std::__ndk1::allocator<char> > >)1, std::__ndk1::__variant_detail::__traits, std::__ndk1::allocator<char> >&)
PUBLIC 80470 0 std::__ndk1::__hash_table<std::__ndk1::__hash_value_type<void*, bool>, std::__ndk1::__unordered_map_hasher<void*, std::__ndk1::__hash_value_type<void*, bool>, std::__ndk1::hash<void*>, std::__ndk1::equal_to<void*>, true>, std::__ndk1::__unordered_map_equal<void*, std::__ndk1::__hash_value_type<void*, bool>, std::__ndk1::equal_to<void*>, std::__ndk1::hash<void*>, true>, std::__ndk1::allocator<std::__ndk1::__hash_value_type<void*, bool> > >::__emplace_unique_key_args<void*, std::__ndk1::piecewise_construct_t const&, std::__ndk1::tuple<void* const&>, std::__ndk1::tuple<> >(void* const&, std::__ndk1::piecewise_construct_t const&, std::__ndk1::tuple<void* const&>, std::__ndk1::tuple<>)
PUBLIC 8097c 0 __udivti3
PUBLIC 80988 0 __udivmodti4
PUBLIC m 80bd4 0 __eqtf2
PUBLIC 80c74 0 __unordtf2
PUBLIC 80cac 0 fmt::v11::detail::write_loc(fmt::v11::basic_appender<char>, fmt::v11::loc_value, fmt::v11::format_specs const&, fmt::v11::detail::locale_ref)
PUBLIC 80f40 0 fmt::v11::format_facet<std::__ndk1::locale>::~format_facet()
PUBLIC 80fbc 0 fmt::v11::report_error(char const*)
PUBLIC 8100c 0 fmt::v11::format_error::runtime_error(char const*)
PUBLIC 81038 0 fmt::v11::format_facet<std::__ndk1::locale>::do_put(fmt::v11::basic_appender<char>, fmt::v11::loc_value, fmt::v11::format_specs const&) const
PUBLIC 817f8 0 fmt::v11::detail::loc_writer<char>::~loc_writer()
PUBLIC 8185c 0 fmt::v11::vformat(fmt::v11::basic_string_view<char>, fmt::v11::basic_format_args<fmt::v11::context>)
PUBLIC 81998 0 fmt::v11::detail::vformat_to<char>(fmt::v11::detail::buffer<char>&, fmt::v11::basic_string_view<char>, fmt::v11::detail::vformat_args<char>::type, fmt::v11::detail::locale_ref)
PUBLIC 81f08 0 fmt::v11::detail::is_printable(unsigned int)
PUBLIC 82130 0 fmt::v11::detail::dragonbox::to_decimal<float>(float)
PUBLIC 8240c 0 fmt::v11::detail::dragonbox::to_decimal<double>(double)
PUBLIC 82948 0 fmt::v11::basic_memory_buffer<char, (unsigned long)500, std::__ndk1::allocator<char> >::grow(fmt::v11::detail::buffer<char>&, unsigned long)
PUBLIC 829c0 0 fmt::v11::format_facet<std::__ndk1::locale>::~format_facet()
PUBLIC 82a4c 0 fmt::v11::format_error::~format_error()
PUBLIC 82a70 0 fmt::v11::detail::copy_noinline<char, char const*, fmt::v11::basic_appender<char> >(char const*, char const*, fmt::v11::basic_appender<char>)
PUBLIC 82bc0 0 fmt::v11::detail::default_arg_formatter<char>::operator()<bool>(bool)
PUBLIC 82c28 0 fmt::v11::detail::default_arg_formatter<char>::operator()<char>(char)
PUBLIC 82cb8 0 fmt::v11::detail::default_arg_formatter<char>::operator()<float>(float)
PUBLIC 82da4 0 fmt::v11::detail::default_arg_formatter<char>::operator()<double>(double)
PUBLIC 82e90 0 fmt::v11::detail::default_arg_formatter<char>::operator()<char const*>(char const*)
PUBLIC 82ed8 0 fmt::v11::detail::default_arg_formatter<char>::operator()<void const*>(void const*)
PUBLIC 82f70 0 _ZN3fmt3v116detail5writeIcNS0_14basic_appenderIcEEiTnNSt6__ndk19enable_ifIXaaaasr11is_integralIT1_EE5valuentsr3std7is_sameIS7_bEE5valuentsr3std7is_sameIS7_T_EE5valueEiE4typeELi0EEET0_SB_S7_
PUBLIC 831d0 0 fmt::v11::detail::copy_noinline<char, char*, fmt::v11::basic_appender<char> >(char*, char*, fmt::v11::basic_appender<char>)
PUBLIC 83320 0 _ZN3fmt3v116detail5writeIcNS0_14basic_appenderIcEEjTnNSt6__ndk19enable_ifIXaaaasr11is_integralIT1_EE5valuentsr3std7is_sameIS7_bEE5valuentsr3std7is_sameIS7_T_EE5valueEiE4typeELi0EEET0_SB_S7_
PUBLIC 83500 0 _ZN3fmt3v116detail5writeIcNS0_14basic_appenderIcEExTnNSt6__ndk19enable_ifIXaaaasr11is_integralIT1_EE5valuentsr3std7is_sameIS7_bEE5valuentsr3std7is_sameIS7_T_EE5valueEiE4typeELi0EEET0_SB_S7_
PUBLIC 83784 0 _ZN3fmt3v116detail5writeIcNS0_14basic_appenderIcEEyTnNSt6__ndk19enable_ifIXaaaasr11is_integralIT1_EE5valuentsr3std7is_sameIS7_bEE5valuentsr3std7is_sameIS7_T_EE5valueEiE4typeELi0EEET0_SB_S7_
PUBLIC 8398c 0 _ZN3fmt3v116detail5writeIcNS0_14basic_appenderIcEEnTnNSt6__ndk19enable_ifIXaaaasr11is_integralIT1_EE5valuentsr3std7is_sameIS7_bEE5valuentsr3std7is_sameIS7_T_EE5valueEiE4typeELi0EEET0_SB_S7_
PUBLIC 83cec 0 _ZN3fmt3v116detail5writeIcNS0_14basic_appenderIcEEoTnNSt6__ndk19enable_ifIXaaaasr11is_integralIT1_EE5valuentsr3std7is_sameIS7_bEE5valuentsr3std7is_sameIS7_T_EE5valueEiE4typeELi0EEET0_SB_S7_
PUBLIC 84000 0 _ZN3fmt3v116detail5writeIcNS0_14basic_appenderIcEEbTnNSt6__ndk19enable_ifIXsr3std7is_sameIT1_bEE5valueEiE4typeELi0EEET0_SA_S7_RKNS0_12format_specsENS1_10locale_refE
PUBLIC 84290 0 fmt::v11::detail::write_int_noinline<char, fmt::v11::basic_appender<char>, unsigned int>(fmt::v11::basic_appender<char>, fmt::v11::detail::write_int_arg<unsigned int>, fmt::v11::format_specs const&, fmt::v11::detail::locale_ref)
PUBLIC 8506c 0 fmt::v11::detail::fill<char, fmt::v11::basic_appender<char> >(fmt::v11::basic_appender<char>, unsigned long, fmt::v11::detail::fill_t const&)
PUBLIC 8523c 0 fmt::v11::detail::write_padded<char, (fmt::v11::align::type)1, fmt::v11::basic_appender<char>, fmt::v11::detail::write_char<char, fmt::v11::basic_appender<char> >(fmt::v11::basic_appender<char>, char, fmt::v11::format_specs const&)::{lambda(fmt::v11::basic_appender<char>&)#1}>(fmt::v11::basic_appender<char>, fmt::v11::format_specs const&, unsigned long, unsigned long, fmt::v11::detail::write_char<char, fmt::v11::basic_appender<char> >(fmt::v11::basic_appender<char>, char, fmt::v11::format_specs const&)::{lambda(fmt::v11::basic_appender<char>&)#1})
PUBLIC 85478 0 fmt::v11::detail::write_escaped_cp<fmt::v11::basic_appender<char>, char>(fmt::v11::basic_appender<char>, fmt::v11::detail::find_escape_result<char> const&)
PUBLIC 85784 0 fmt::v11::detail::write_codepoint<(unsigned long)2, char, fmt::v11::basic_appender<char> >(fmt::v11::basic_appender<char>, char, unsigned int)
PUBLIC 858fc 0 fmt::v11::detail::write_codepoint<(unsigned long)8, char, fmt::v11::basic_appender<char> >(fmt::v11::basic_appender<char>, char, unsigned int)
PUBLIC 85a74 0 fmt::v11::detail::write_padded<char, (fmt::v11::align::type)1, fmt::v11::basic_appender<char>, fmt::v11::detail::write_nonfinite<char, fmt::v11::basic_appender<char> >(fmt::v11::basic_appender<char>, bool, fmt::v11::format_specs, fmt::v11::sign::type)::{lambda(fmt::v11::basic_appender<char>&)#1}>(fmt::v11::basic_appender<char>, fmt::v11::format_specs const&, unsigned long, unsigned long, fmt::v11::detail::write_nonfinite<char, fmt::v11::basic_appender<char> >(fmt::v11::basic_appender<char>, bool, fmt::v11::format_specs, fmt::v11::sign::type)::{lambda(fmt::v11::basic_appender<char>&)#1})
PUBLIC 85cb4 0 fmt::v11::detail::do_write_float<char, fmt::v11::basic_appender<char>, fmt::v11::detail::dragonbox::decimal_fp<float>, fmt::v11::detail::digit_grouping<char> >(fmt::v11::basic_appender<char>, fmt::v11::detail::dragonbox::decimal_fp<float> const&, fmt::v11::format_specs const&, fmt::v11::detail::float_specs, fmt::v11::detail::locale_ref)
PUBLIC 86928 0 fmt::v11::detail::do_write_float<char, fmt::v11::basic_appender<char>, fmt::v11::detail::dragonbox::decimal_fp<float>, fmt::v11::detail::digit_grouping<char> >(fmt::v11::basic_appender<char>, fmt::v11::detail::dragonbox::decimal_fp<float> const&, fmt::v11::format_specs const&, fmt::v11::detail::float_specs, fmt::v11::detail::locale_ref)::{lambda(fmt::v11::basic_appender<char>(fmt::v11::basic_appender<char>))#1}::operator() const
PUBLIC 86a7c 0 fmt::v11::detail::digit_grouping<char>::digit_grouping(fmt::v11::detail::locale_ref, bool)
PUBLIC 86ce8 0 fmt::v11::detail::digit_grouping<char>::~digit_grouping()
PUBLIC 86d2c 0 fmt::v11::detail::write_exponent<char, fmt::v11::basic_appender<char> >(int, fmt::v11::basic_appender<char>)
PUBLIC 86efc 0 _ZN3fmt3v116detail17write_significandIcjTnNSt6__ndk19enable_ifIXsr3std11is_integralIT0_EE5valueEiE4typeELi0EEEPT_S9_S5_iiS8_
PUBLIC 87078 0 fmt::v11::detail::digit_grouping<char>::apply<fmt::v11::basic_appender<char>, char>(fmt::v11::basic_appender<char>, fmt::v11::basic_string_view<char>) const
PUBLIC 87430 0 fmt::v11::basic_memory_buffer<int, (unsigned long)500, std::__ndk1::allocator<int> >::grow(fmt::v11::detail::buffer<int>&, unsigned long)
PUBLIC 874d0 0 fmt::v11::detail::do_write_float<char, fmt::v11::basic_appender<char>, fmt::v11::detail::dragonbox::decimal_fp<double>, fmt::v11::detail::digit_grouping<char> >(fmt::v11::basic_appender<char>, fmt::v11::detail::dragonbox::decimal_fp<double> const&, fmt::v11::format_specs const&, fmt::v11::detail::float_specs, fmt::v11::detail::locale_ref)
PUBLIC 88184 0 fmt::v11::detail::do_write_float<char, fmt::v11::basic_appender<char>, fmt::v11::detail::dragonbox::decimal_fp<double>, fmt::v11::detail::digit_grouping<char> >(fmt::v11::basic_appender<char>, fmt::v11::detail::dragonbox::decimal_fp<double> const&, fmt::v11::format_specs const&, fmt::v11::detail::float_specs, fmt::v11::detail::locale_ref)::{lambda(fmt::v11::basic_appender<char>(fmt::v11::basic_appender<char>))#1}::operator() const
PUBLIC 882dc 0 _ZN3fmt3v116detail17write_significandIcmTnNSt6__ndk19enable_ifIXsr3std11is_integralIT0_EE5valueEiE4typeELi0EEEPT_S9_S5_iiS8_
PUBLIC 8846c 0 fmt::v11::detail::write_float<char, fmt::v11::basic_appender<char>, long double>(fmt::v11::basic_appender<char>, long double, fmt::v11::format_specs, fmt::v11::detail::locale_ref)
PUBLIC 88f68 0 fmt::v11::detail::write_padded<char, (fmt::v11::align::type)2, fmt::v11::basic_appender<char>, fmt::v11::detail::write_bytes<char, (fmt::v11::align::type)2, fmt::v11::basic_appender<char> >(fmt::v11::basic_appender<char>, fmt::v11::basic_string_view<char>, fmt::v11::format_specs const&)::{lambda(fmt::v11::basic_appender<char>&)#1}>(fmt::v11::basic_appender<char>, fmt::v11::format_specs const&, unsigned long, unsigned long, fmt::v11::detail::write_bytes<char, (fmt::v11::align::type)2, fmt::v11::basic_appender<char> >(fmt::v11::basic_appender<char>, fmt::v11::basic_string_view<char>, fmt::v11::format_specs const&)::{lambda(fmt::v11::basic_appender<char>&)#1})
PUBLIC 89144 0 fmt::v11::detail::format_dragon(fmt::v11::detail::basic_fp<unsigned __int128>, unsigned int, int, fmt::v11::detail::buffer<char>&, int&)
PUBLIC 8a574 0 fmt::v11::detail::bigint::operator<<=(int)
PUBLIC 8a698 0 fmt::v11::detail::bigint::assign_pow10(int)
PUBLIC 8adf4 0 fmt::v11::detail::bigint::divmod_assign(fmt::v11::detail::bigint const&)
PUBLIC 8b114 0 fmt::v11::basic_memory_buffer<unsigned int, (unsigned long)32, std::__ndk1::allocator<unsigned int> >::grow(fmt::v11::detail::buffer<unsigned int>&, unsigned long)
PUBLIC 8b1b4 0 fmt::v11::detail::do_write_float<char, fmt::v11::basic_appender<char>, fmt::v11::detail::big_decimal_fp, fmt::v11::detail::digit_grouping<char> >(fmt::v11::basic_appender<char>, fmt::v11::detail::big_decimal_fp const&, fmt::v11::format_specs const&, fmt::v11::detail::float_specs, fmt::v11::detail::locale_ref)
PUBLIC 8c064 0 fmt::v11::detail::do_write_float<char, fmt::v11::basic_appender<char>, fmt::v11::detail::big_decimal_fp, fmt::v11::detail::digit_grouping<char> >(fmt::v11::basic_appender<char>, fmt::v11::detail::big_decimal_fp const&, fmt::v11::format_specs const&, fmt::v11::detail::float_specs, fmt::v11::detail::locale_ref)::{lambda(fmt::v11::basic_appender<char>(fmt::v11::basic_appender<char>))#1}::operator() const
PUBLIC 8c1c4 0 fmt::v11::detail::write_padded<char, (fmt::v11::align::type)2, fmt::v11::basic_appender<char>, fmt::v11::detail::write_ptr<char, fmt::v11::basic_appender<char>, unsigned long>(fmt::v11::basic_appender<char>, unsigned long, fmt::v11::format_specs const*)::{lambda(fmt::v11::basic_appender<char>&)#1}>(fmt::v11::basic_appender<char>, fmt::v11::format_specs const&, unsigned long, unsigned long, fmt::v11::detail::write_ptr<char, fmt::v11::basic_appender<char>, unsigned long>(fmt::v11::basic_appender<char>, unsigned long, fmt::v11::format_specs const*)::{lambda(fmt::v11::basic_appender<char>&)#1})
PUBLIC 8c3d8 0 fmt::v11::detail::parse_replacement_field<char, fmt::v11::detail::vformat_to<char>(fmt::v11::detail::buffer<char>&, fmt::v11::basic_string_view<char>, fmt::v11::detail::vformat_args<char>::type, fmt::v11::detail::locale_ref)::format_handler&>(char const*, char const*, fmt::v11::detail::vformat_to<char>(fmt::v11::detail::buffer<char>&, fmt::v11::basic_string_view<char>, fmt::v11::detail::vformat_args<char>::type, fmt::v11::detail::locale_ref)::format_handler&)
PUBLIC 8e074 0 fmt::v11::detail::parse_dynamic_spec<char>(char const*, char const*, int&, fmt::v11::detail::arg_ref<char>&, fmt::v11::basic_format_parse_context<char>&)
PUBLIC 8e304 0 fmt::v11::basic_format_args<fmt::v11::context>::get<char>(fmt::v11::basic_string_view<char>) const
PUBLIC 8e45c 0 fmt::v11::detail::write_int_noinline<char, fmt::v11::basic_appender<char>, unsigned long>(fmt::v11::basic_appender<char>, fmt::v11::detail::write_int_arg<unsigned long>, fmt::v11::format_specs const&, fmt::v11::detail::locale_ref)
PUBLIC 8f2b0 0 fmt::v11::detail::write_int_noinline<char, fmt::v11::basic_appender<char>, unsigned __int128>(fmt::v11::basic_appender<char>, fmt::v11::detail::write_int_arg<unsigned __int128>, fmt::v11::format_specs const&, fmt::v11::detail::locale_ref)
PUBLIC 90318 0 _ZN3fmt3v116detail15format_hexfloatIdTnNSt6__ndk19enable_ifIXntsr16is_double_doubleIT_EE5valueEiE4typeELi0EEEvS5_NS0_12format_specsERNS1_6bufferIcEE
PUBLIC 90838 0 fmt::v11::detail::format_float<double>(double, int, fmt::v11::detail::float_specs, fmt::v11::detail::buffer<char>&)
PUBLIC 911d8 0 fmt::v11::detail::write<char, fmt::v11::basic_appender<char> >(fmt::v11::basic_appender<char>, fmt::v11::basic_string_view<char>, fmt::v11::format_specs const&)
PUBLIC 92544 0 fmt::v11::detail::for_each_codepoint<fmt::v11::detail::compute_width(fmt::v11::basic_string_view<char>)::count_code_points>(fmt::v11::basic_string_view<char>, fmt::v11::detail::compute_width(fmt::v11::basic_string_view<char>)::count_code_points)::{lambda(char const*, char const*)#1}::operator()(char const*, char const*) const
PUBLIC 926fc 0 fmt::v11::detail::write_int<fmt::v11::basic_appender<char>, unsigned long, char>(fmt::v11::basic_appender<char>, unsigned long, unsigned int, fmt::v11::format_specs const&, fmt::v11::detail::digit_grouping<char> const&)
PUBLIC 92c78 0 fmt::v11::detail::write_int<fmt::v11::basic_appender<char>, unsigned __int128, char>(fmt::v11::basic_appender<char>, unsigned __int128, unsigned int, fmt::v11::format_specs const&, fmt::v11::detail::digit_grouping<char> const&)
PUBLIC 93300 0 <.plt ELF section in spaghettdev.gd-roulette.android64.so>
STACK CFI INIT 3e3c0 10 .cfa: sp 0 +
STACK CFI INIT 3e3d0 8 .cfa: sp 0 +
STACK CFI INIT 3e3d8 8 .cfa: sp 0 +
STACK CFI INIT 3e3e0 14 .cfa: sp 0 +
STACK CFI INIT 3e3f4 1c .cfa: sp 0 +
STACK CFI INIT 3e410 10 .cfa: sp 0 +
STACK CFI INIT 3e420 134 .cfa: sp 0 +
STACK CFI INIT 3e554 84 .cfa: sp 0 +
STACK CFI INIT 3e5d8 f4 .cfa: sp 0 +
STACK CFI INIT 3e6cc a8 .cfa: sp 0 +
STACK CFI INIT 3e774 7c .cfa: sp 0 +
STACK CFI INIT 3e7f0 14 .cfa: sp 0 +
STACK CFI INIT 3e804 40 .cfa: sp 0 +
STACK CFI INIT 3e844 28 .cfa: sp 0 +
STACK CFI INIT 3e86c 190 .cfa: sp 0 +
STACK CFI INIT 3e9fc 2c8 .cfa: sp 0 +
STACK CFI INIT 3ecc4 8 .cfa: sp 0 +
STACK CFI INIT 3eccc 8 .cfa: sp 0 +
STACK CFI INIT 3ecd4 44 .cfa: sp 0 +
STACK CFI INIT 3ed18 e8 .cfa: sp 0 +
STACK CFI INIT 3ee00 e8 .cfa: sp 0 +
STACK CFI INIT 3eee8 14 .cfa: sp 0 +
STACK CFI INIT 3eefc 10 .cfa: sp 0 +
STACK CFI INIT 3ef0c 10 .cfa: sp 0 +
STACK CFI INIT 3ef1c f0 .cfa: sp 0 +
STACK CFI INIT 3f00c 44 .cfa: sp 0 +
STACK CFI INIT 3f050 c .cfa: sp 0 +
STACK CFI INIT 3f05c c .cfa: sp 0 +
STACK CFI INIT 3f068 2c .cfa: sp 0 +
STACK CFI INIT 3f094 280 .cfa: sp 0 +
STACK CFI INIT 3f314 c .cfa: sp 0 +
STACK CFI INIT 3f320 120 .cfa: sp 0 +
STACK CFI INIT 3f440 488 .cfa: sp 0 +
STACK CFI INIT 3f8c8 c48 .cfa: sp 0 +
STACK CFI INIT 40510 134 .cfa: sp 0 +
STACK CFI INIT 40644 210 .cfa: sp 0 +
STACK CFI INIT 40854 38c .cfa: sp 0 +
STACK CFI INIT 40be0 1c8 .cfa: sp 0 +
STACK CFI INIT 40da8 9bc .cfa: sp 0 +
STACK CFI INIT 41764 2d4 .cfa: sp 0 +
STACK CFI INIT 41a38 134 .cfa: sp 0 +
STACK CFI INIT 41b6c 120 .cfa: sp 0 +
STACK CFI INIT 41c8c 1c8 .cfa: sp 0 +
STACK CFI INIT 41e54 168 .cfa: sp 0 +
STACK CFI INIT 41fbc fc .cfa: sp 0 +
STACK CFI INIT 420b8 30 .cfa: sp 0 +
STACK CFI INIT 42874 88 .cfa: sp 0 +
STACK CFI 42878 .cfa: sp 48 +
STACK CFI 42884 .cfa: x29 32 + x19: .cfa -8 + ^ x20: .cfa -16 + ^ .ra: .cfa -24 + ^ x29: .cfa -32 + ^
STACK CFI 428d4 .cfa: sp 48 +
STACK CFI 428e0 .cfa: sp 0 +
STACK CFI 428e4 .cfa: x29 32 +
STACK CFI INIT 428fc 88 .cfa: sp 0 +
STACK CFI 42900 .cfa: sp 48 +
STACK CFI 4290c .cfa: x29 32 + x19: .cfa -8 + ^ x20: .cfa -16 + ^ .ra: .cfa -24 + ^ x29: .cfa -32 + ^
STACK CFI 4295c .cfa: sp 48 +
STACK CFI 42968 .cfa: sp 0 +
STACK CFI 4296c .cfa: x29 32 +
STACK CFI INIT 42984 3c .cfa: sp 0 +
STACK CFI 42988 .cfa: sp 32 +
STACK CFI 42990 .cfa: x29 32 + x19: .cfa -16 + ^ .ra: .cfa -24 + ^ x29: .cfa -32 + ^
STACK CFI 429b4 .cfa: sp 32 +
STACK CFI 429bc .cfa: sp 0 +
STACK CFI INIT 429c0 8 .cfa: sp 0 +
STACK CFI INIT 429c8 bc .cfa: sp 0 +
STACK CFI 429cc .cfa: sp 32 +
STACK CFI 429d4 .cfa: x29 32 + x19: .cfa -16 + ^ .ra: .cfa -24 + ^ x29: .cfa -32 + ^
STACK CFI 42a78 .cfa: sp 32 +
STACK CFI 42a80 .cfa: sp 0 +
STACK CFI INIT 42a84 c4 .cfa: sp 0 +
STACK CFI 42a88 .cfa: sp 32 +
STACK CFI 42a90 .cfa: x29 32 + x19: .cfa -16 + ^ .ra: .cfa -24 + ^ x29: .cfa -32 + ^
STACK CFI 42b3c .cfa: sp 32 +
STACK CFI 42b44 .cfa: sp 0 +
STACK CFI INIT 42b48 4 .cfa: sp 0 +
STACK CFI INIT 42b4c 4 .cfa: sp 0 +
STACK CFI INIT 42b50 8 .cfa: sp 0 +
STACK CFI INIT 42b58 c0 .cfa: sp 0 +
STACK CFI 42b5c .cfa: sp 32 +
STACK CFI 42b64 .cfa: x29 32 + x19: .cfa -8 + ^ x20: .cfa -16 + ^ .ra: .cfa -24 + ^ x29: .cfa -32 + ^
STACK CFI 42c0c .cfa: sp 32 +
STACK CFI 42c14 .cfa: sp 0 +
STACK CFI INIT 42c18 c8 .cfa: sp 0 +
STACK CFI 42c1c .cfa: sp 32 +
STACK CFI 42c24 .cfa: x29 32 + x19: .cfa -8 + ^ x20: .cfa -16 + ^ .ra: .cfa -24 + ^ x29: .cfa -32 + ^
STACK CFI 42cd4 .cfa: sp 32 +
STACK CFI 42cdc .cfa: sp 0 +
STACK CFI INIT 42ce0 4 .cfa: sp 0 +
STACK CFI INIT 42ce4 4 .cfa: sp 0 +
STACK CFI INIT 42ce8 4 .cfa: sp 0 +
STACK CFI INIT 42cec 4 .cfa: sp 0 +
STACK CFI INIT 42cf0 4 .cfa: sp 0 +
STACK CFI INIT 42cf4 4 .cfa: sp 0 +
STACK CFI INIT 42cf8 8 .cfa: sp 0 +
STACK CFI INIT 42d00 10 .cfa: sp 0 +
STACK CFI 42d04 .cfa: sp 16 +
STACK CFI 42d08 .cfa: x29 16 + .ra: .cfa -8 + ^ x29: .cfa -16 + ^
STACK CFI INIT 42ea8 34 .cfa: sp 0 +
STACK CFI 42eac .cfa: sp 16 +
STACK CFI 42eb0 .cfa: x29 16 + .ra: .cfa -8 + ^ x29: .cfa -16 + ^
STACK CFI INIT 42edc 24 .cfa: sp 0 +
STACK CFI 42ee0 .cfa: sp 32 +
STACK CFI 42ee8 .cfa: x29 32 + x19: .cfa -16 + ^ .ra: .cfa -24 + ^ x29: .cfa -32 + ^
STACK CFI 42ef4 .cfa: sp 32 +
STACK CFI 42efc .cfa: sp 0 +
STACK CFI INIT 43110 8 .cfa: sp 0 +
STACK CFI INIT 4332c 8 .cfa: sp 0 +
STACK CFI INIT 43534 8 .cfa: sp 0 +
STACK CFI INIT 4373c 8 .cfa: sp 0 +
STACK CFI INIT 44298 88 .cfa: sp 0 +
STACK CFI 4429c .cfa: sp 48 +
STACK CFI 442a8 .cfa: x29 32 + x19: .cfa -8 + ^ x20: .cfa -16 + ^ .ra: .cfa -24 + ^ x29: .cfa -32 + ^
STACK CFI 4430c .cfa: sp 48 +
STACK CFI 44318 .cfa: sp 0 +
STACK CFI 4431c .cfa: x29 32 +
STACK CFI INIT 4433c 1c .cfa: sp 0 +
STACK CFI INIT 44358 20 .cfa: sp 0 +
STACK CFI INIT 44378 38 .cfa: sp 0 +
STACK CFI 4437c .cfa: sp 32 +
STACK CFI 44384 .cfa: x29 32 + x19: .cfa -16 + ^ .ra: .cfa -24 + ^ x29: .cfa -32 + ^
STACK CFI 443a4 .cfa: sp 32 +
STACK CFI 443ac .cfa: sp 0 +
STACK CFI INIT 443b0 cc .cfa: sp 0 +
STACK CFI 443b4 .cfa: sp 32 +
STACK CFI 443bc .cfa: x29 32 + x19: .cfa -16 + ^ .ra: .cfa -24 + ^ x29: .cfa -32 + ^
STACK CFI 44470 .cfa: sp 32 +
STACK CFI 44478 .cfa: sp 0 +
STACK CFI INIT 4447c d4 .cfa: sp 0 +
STACK CFI 44480 .cfa: sp 32 +
STACK CFI 44488 .cfa: x29 32 + x19: .cfa -16 + ^ .ra: .cfa -24 + ^ x29: .cfa -32 + ^
STACK CFI 44544 .cfa: sp 32 +
STACK CFI 4454c .cfa: sp 0 +
STACK CFI INIT 44550 d0 .cfa: sp 0 +
STACK CFI 44554 .cfa: sp 32 +
STACK CFI 4455c .cfa: x29 32 + x19: .cfa -8 + ^ x20: .cfa -16 + ^ .ra: .cfa -24 + ^ x29: .cfa -32 + ^
STACK CFI 44614 .cfa: sp 32 +
STACK CFI 4461c .cfa: sp 0 +
STACK CFI INIT 44620 d8 .cfa: sp 0 +
STACK CFI 44624 .cfa: sp 32 +
STACK CFI 4462c .cfa: x29 32 + x19: .cfa -8 + ^ x20: .cfa -16 + ^ .ra: .cfa -24 + ^ x29: .cfa -32 + ^
STACK CFI 446ec .cfa: sp 32 +
STACK CFI 446f4 .cfa: sp 0 +
STACK CFI INIT 446f8 14 .cfa: sp 0 +
STACK CFI 446fc .cfa: sp 16 +
STACK CFI 44700 .cfa: x29 16 + .ra: .cfa -8 + ^ x29: .cfa -16 + ^
STACK CFI INIT 4475c 30 .cfa: sp 0 +
STACK CFI 44760 .cfa: sp 32 +
STACK CFI 44768 .cfa: x29 32 + x19: .cfa -16 + ^ .ra: .cfa -24 + ^ x29: .cfa -32 + ^
STACK CFI 44780 .cfa: sp 32 +
STACK CFI 44788 .cfa: sp 0 +
STACK CFI INIT 4478c 1b0 .cfa: sp 0 +
STACK CFI INIT 4493c 1b0 .cfa: sp 0 +
STACK CFI INIT 44aec 44 .cfa: sp 0 +
STACK CFI 44af4 .cfa: sp 32 +
STACK CFI 44afc .cfa: x29 32 + x19: .cfa -8 + ^ x20: .cfa -16 + ^ .ra: .cfa -24 + ^ x29: .cfa -32 + ^
STACK CFI 44b20 .cfa: sp 32 +
STACK CFI 44b28 .cfa: sp 0 +
STACK CFI INIT 44b30 1b0 .cfa: sp 0 +
STACK CFI INIT 44ce0 44 .cfa: sp 0 +
STACK CFI 44ce8 .cfa: sp 32 +
STACK CFI 44cf0 .cfa: x29 32 + x19: .cfa -8 + ^ x20: .cfa -16 + ^ .ra: .cfa -24 + ^ x29: .cfa -32 + ^
STACK CFI 44d14 .cfa: sp 32 +
STACK CFI 44d1c .cfa: sp 0 +
STACK CFI INIT 44d24 1b0 .cfa: sp 0 +
STACK CFI INIT 44ed4 44 .cfa: sp 0 +
STACK CFI 44edc .cfa: sp 32 +
STACK CFI 44ee4 .cfa: x29 32 + x19: .cfa -8 + ^ x20: .cfa -16 + ^ .ra: .cfa -24 + ^ x29: .cfa -32 + ^
STACK CFI 44f08 .cfa: sp 32 +
STACK CFI 44f10 .cfa: sp 0 +
STACK CFI INIT 44f18 1b0 .cfa: sp 0 +
STACK CFI INIT 450c8 44 .cfa: sp 0 +
STACK CFI 450d0 .cfa: sp 32 +
STACK CFI 450d8 .cfa: x29 32 + x19: .cfa -8 + ^ x20: .cfa -16 + ^ .ra: .cfa -24 + ^ x29: .cfa -32 + ^
STACK CFI 450fc .cfa: sp 32 +
STACK CFI 45104 .cfa: sp 0 +
STACK CFI INIT 4515c 30 .cfa: sp 0 +
STACK CFI 45160 .cfa: sp 32 +
STACK CFI 45168 .cfa: x29 32 + x19: .cfa -16 + ^ .ra: .cfa -24 + ^ x29: .cfa -32 + ^
STACK CFI 45180 .cfa: sp 32 +
STACK CFI 45188 .cfa: sp 0 +
STACK CFI INIT 4518c 8c .cfa: sp 0 +
STACK CFI 45190 .cfa: sp 112 +
STACK CFI 4519c .cfa: x29 32 + x19: .cfa -8 + ^ x20: .cfa -16 + ^ .ra: .cfa -24 + ^ x29: .cfa -32 + ^
STACK CFI 45204 .cfa: sp 112 +
STACK CFI 45210 .cfa: sp 0 +
STACK CFI 45214 .cfa: x29 32 +
STACK CFI INIT 46f30 24 .cfa: sp 0 +
STACK CFI INIT 46f54 28 .cfa: sp 0 +
STACK CFI INIT 46f7c 8c .cfa: sp 0 +
STACK CFI 46f80 .cfa: sp 32 +
STACK CFI 46f88 .cfa: x29 32 + x19: .cfa -16 + ^ .ra: .cfa -24 + ^ x29: .cfa -32 + ^
STACK CFI 46ffc .cfa: sp 32 +
STACK CFI 47004 .cfa: sp 0 +
STACK CFI INIT 47008 94 .cfa: sp 0 +
STACK CFI 4700c .cfa: sp 32 +
STACK CFI 47014 .cfa: x29 32 + x19: .cfa -16 + ^ .ra: .cfa -24 + ^ x29: .cfa -32 + ^
STACK CFI 47090 .cfa: sp 32 +
STACK CFI 47098 .cfa: sp 0 +
STACK CFI INIT 4709c 90 .cfa: sp 0 +
STACK CFI 470a0 .cfa: sp 32 +
STACK CFI 470a8 .cfa: x29 32 + x19: .cfa -16 + ^ .ra: .cfa -24 + ^ x29: .cfa -32 + ^
STACK CFI 47120 .cfa: sp 32 +
STACK CFI 47128 .cfa: sp 0 +
STACK CFI INIT 4712c 98 .cfa: sp 0 +
STACK CFI 47130 .cfa: sp 32 +
STACK CFI 47138 .cfa: x29 32 + x19: .cfa -16 + ^ .ra: .cfa -24 + ^ x29: .cfa -32 + ^
STACK CFI 471b8 .cfa: sp 32 +
STACK CFI 471c0 .cfa: sp 0 +
STACK CFI INIT 471c4 4 .cfa: sp 0 +
STACK CFI INIT 471c8 14 .cfa: sp 0 +
STACK CFI INIT 471e0 30 .cfa: sp 0 +
STACK CFI INIT 47210 98 .cfa: sp 0 +
STACK CFI INIT 472a8 59c .cfa: sp 0 +
STACK CFI INIT 47844 8c .cfa: sp 0 +
STACK CFI INIT 478d0 30 .cfa: sp 0 +
STACK CFI INIT 4911c 48 .cfa: sp 0 +
STACK CFI 49120 .cfa: sp 32 +
STACK CFI 49128 .cfa: x29 32 + x19: .cfa -16 + ^ .ra: .cfa -24 + ^ x29: .cfa -32 + ^
STACK CFI 4914c .cfa: sp 32 +
STACK CFI 49154 .cfa: sp 0 +
STACK CFI 49158 .cfa: sp 32 +
STACK CFI 49160 .cfa: sp 0 +
STACK CFI INIT 49164 3c .cfa: sp 0 +
STACK CFI 49168 .cfa: sp 32 +
STACK CFI 49170 .cfa: x29 32 + x19: .cfa -16 + ^ .ra: .cfa -24 + ^ x29: .cfa -32 + ^
STACK CFI 49194 .cfa: sp 32 +
STACK CFI 4919c .cfa: sp 0 +
STACK CFI INIT 491a0 24 .cfa: sp 0 +
STACK CFI INIT 491c4 28 .cfa: sp 0 +
STACK CFI INIT 491ec 24 .cfa: sp 0 +
STACK CFI 491f0 .cfa: sp 32 +
STACK CFI 491f8 .cfa: x29 32 + x19: .cfa -16 + ^ .ra: .cfa -24 + ^ x29: .cfa -32 + ^
STACK CFI 49204 .cfa: sp 32 +
STACK CFI 4920c .cfa: sp 0 +
STACK CFI INIT 49210 8 .cfa: sp 0 +
STACK CFI INIT 49218 28 .cfa: sp 0 +
STACK CFI 4921c .cfa: sp 32 +
STACK CFI 49224 .cfa: x29 32 + x19: .cfa -16 + ^ .ra: .cfa -24 + ^ x29: .cfa -32 + ^
STACK CFI 49234 .cfa: sp 32 +
STACK CFI 4923c .cfa: sp 0 +
STACK CFI INIT 49240 14 .cfa: sp 0 +
STACK CFI 49244 .cfa: sp 16 +
STACK CFI 49248 .cfa: x29 16 + .ra: .cfa -8 + ^ x29: .cfa -16 + ^
STACK CFI INIT 49428 7c .cfa: sp 0 +
STACK CFI 4942c .cfa: sp 48 +
STACK CFI 49438 .cfa: x29 48 + x19: .cfa -8 + ^ x20: .cfa -16 + ^ x21: .cfa -32 + ^ .ra: .cfa -40 + ^ x29: .cfa -48 + ^
STACK CFI 49494 .cfa: sp 48 +
STACK CFI 494a0 .cfa: sp 0 +
STACK CFI INIT 494a4 104 .cfa: sp 0 +
STACK CFI 494a8 .cfa: sp 64 +
STACK CFI 494b8 .cfa: x29 64 + x19: .cfa -8 + ^ x20: .cfa -16 + ^ x21: .cfa -24 + ^ x22: .cfa -32 + ^ x23: .cfa -48 + ^ .ra: .cfa -56 + ^ x29: .cfa -64 + ^
STACK CFI 49514 .cfa: sp 64 +
STACK CFI 49524 .cfa: sp 0 +
STACK CFI 49528 .cfa: x29 64 +
STACK CFI 49544 .cfa: sp 64 +
STACK CFI 49554 .cfa: sp 0 +
STACK CFI 49558 .cfa: x29 64 +
STACK CFI 49594 .cfa: sp 64 +
STACK CFI 495a4 .cfa: sp 0 +
STACK CFI INIT 495a8 18 .cfa: sp 0 +
STACK CFI INIT 49960 1c .cfa: sp 0 +
STACK CFI INIT 4997c 20 .cfa: sp 0 +
STACK CFI INIT 4999c 10 .cfa: sp 0 +
STACK CFI INIT 499ac 14 .cfa: sp 0 +
STACK CFI INIT 49e7c 1c .cfa: sp 0 +
STACK CFI INIT 49e98 20 .cfa: sp 0 +
STACK CFI INIT 49eb8 10 .cfa: sp 0 +
STACK CFI INIT 49ec8 14 .cfa: sp 0 +
STACK CFI INIT 4a648 10 .cfa: sp 0 +
STACK CFI INIT 4a658 24 .cfa: sp 0 +
STACK CFI 4a65c .cfa: sp 32 +
STACK CFI 4a664 .cfa: x29 32 + x19: .cfa -16 + ^ .ra: .cfa -24 + ^ x29: .cfa -32 + ^
STACK CFI 4a670 .cfa: sp 32 +
STACK CFI 4a678 .cfa: sp 0 +
STACK CFI INIT 4a67c 4 .cfa: sp 0 +
STACK CFI INIT 4a680 8 .cfa: sp 0 +
STACK CFI INIT 4a688 4 .cfa: sp 0 +
STACK CFI INIT 4a68c 8 .cfa: sp 0 +
STACK CFI INIT 4a694 8c .cfa: sp 0 +
STACK CFI 4a698 .cfa: sp 112 +
STACK CFI 4a6a4 .cfa: x29 32 + x19: .cfa -8 + ^ x20: .cfa -16 + ^ .ra: .cfa -24 + ^ x29: .cfa -32 + ^
STACK CFI 4a70c .cfa: sp 112 +
STACK CFI 4a718 .cfa: sp 0 +
STACK CFI 4a71c .cfa: x29 32 +
STACK CFI INIT 4a808 7c .cfa: sp 0 +
STACK CFI 4a80c .cfa: sp 32 +
STACK CFI 4a814 .cfa: x29 32 + x19: .cfa -8 + ^ x20: .cfa -16 + ^ .ra: .cfa -24 + ^ x29: .cfa -32 + ^
STACK CFI 4a878 .cfa: sp 32 +
STACK CFI 4a880 .cfa: sp 0 +
STACK CFI INIT 4a884 24 .cfa: sp 0 +
STACK CFI 4a888 .cfa: sp 32 +
STACK CFI 4a890 .cfa: x29 32 + x19: .cfa -16 + ^ .ra: .cfa -24 + ^ x29: .cfa -32 + ^
STACK CFI 4a89c .cfa: sp 32 +
STACK CFI 4a8a4 .cfa: sp 0 +
STACK CFI INIT 4a8a8 c .cfa: sp 0 +
STACK CFI INIT 4a8b4 c .cfa: sp 0 +
STACK CFI INIT 4a8c0 8 .cfa: sp 0 +
STACK CFI INIT 4a8c8 8 .cfa: sp 0 +
STACK CFI INIT 4a8d0 8 .cfa: sp 0 +
STACK CFI INIT 4a8d8 8 .cfa: sp 0 +
STACK CFI INIT 4ad1c c .cfa: sp 0 +
STACK CFI INIT 4ad28 10 .cfa: sp 0 +
STACK CFI INIT 4ad38 10 .cfa: sp 0 +
STACK CFI INIT 4b30c 17c .cfa: sp 0 +
STACK CFI 4b310 .cfa: sp 112 +
STACK CFI 4b324 .cfa: x29 40 + x19: .cfa -8 + ^ x20: .cfa -16 + ^ x21: .cfa -24 + ^ .ra: .cfa -32 + ^ x29: .cfa -40 + ^ v8: .cfa -48 + ^
STACK CFI 4b46c .cfa: sp 112 +
STACK CFI 4b480 .cfa: sp 0 +
STACK CFI 4b484 .cfa: x29 40 +
STACK CFI INIT 4b488 24 .cfa: sp 0 +
STACK CFI 4b48c .cfa: sp 32 +
STACK CFI 4b494 .cfa: x29 32 + x19: .cfa -16 + ^ .ra: .cfa -24 + ^ x29: .cfa -32 + ^
STACK CFI 4b4a0 .cfa: sp 32 +
STACK CFI 4b4a8 .cfa: sp 0 +
STACK CFI INIT 4b7a0 54 .cfa: sp 0 +
STACK CFI 4b7a4 .cfa: sp 32 +
STACK CFI 4b7ac .cfa: x29 32 + x19: .cfa -8 + ^ x20: .cfa -16 + ^ .ra: .cfa -24 + ^ x29: .cfa -32 + ^
STACK CFI 4b7e8 .cfa: sp 32 +
STACK CFI 4b7f0 .cfa: sp 0 +
STACK CFI INIT 4b7f4 54 .cfa: sp 0 +
STACK CFI 4b7f8 .cfa: sp 32 +
STACK CFI 4b800 .cfa: x29 32 + x19: .cfa -8 + ^ x20: .cfa -16 + ^ .ra: .cfa -24 + ^ x29: .cfa -32 + ^
STACK CFI 4b83c .cfa: sp 32 +
STACK CFI 4b844 .cfa: sp 0 +
STACK CFI INIT 4b848 190 .cfa: sp 0 +
STACK CFI 4b84c .cfa: sp 64 +
STACK CFI 4b85c .cfa: x29 32 + x19: .cfa -8 + ^ x20: .cfa -16 + ^ .ra: .cfa -24 + ^ x29: .cfa -32 + ^ v8: .cfa -40 + ^ v9: .cfa -48 + ^ v10: .cfa -56 + ^ v11: .cfa -64 + ^
STACK CFI 4b91c .cfa: sp 64 +
STACK CFI 4b92c .cfa: sp 0 +
STACK CFI 4b930 .cfa: x29 32 +
STACK CFI 4b9c4 .cfa: sp 64 +
STACK CFI 4b9d4 .cfa: sp 0 +
STACK CFI INIT 4b9d8 24 .cfa: sp 0 +
STACK CFI 4b9dc .cfa: sp 32 +
STACK CFI 4b9e4 .cfa: x29 32 + x19: .cfa -16 + ^ .ra: .cfa -24 + ^ x29: .cfa -32 + ^
STACK CFI 4b9f0 .cfa: sp 32 +
STACK CFI 4b9f8 .cfa: sp 0 +
STACK CFI INIT 4b9fc 8 .cfa: sp 0 +
STACK CFI INIT 4ba04 28 .cfa: sp 0 +
STACK CFI 4ba08 .cfa: sp 32 +
STACK CFI 4ba10 .cfa: x29 32 + x19: .cfa -16 + ^ .ra: .cfa -24 + ^ x29: .cfa -32 + ^
STACK CFI 4ba20 .cfa: sp 32 +
STACK CFI 4ba28 .cfa: sp 0 +
STACK CFI INIT 4ba2c 140 .cfa: sp 0 +
STACK CFI 4ba30 .cfa: sp 128 +
STACK CFI 4ba40 .cfa: x29 48 + x19: .cfa -8 + ^ x20: .cfa -16 + ^ x21: .cfa -32 + ^ .ra: .cfa -40 + ^ x29: .cfa -48 + ^
STACK CFI 4bb08 .cfa: sp 128 +
STACK CFI 4bb18 .cfa: sp 0 +
STACK CFI 4bb1c .cfa: x29 48 +
STACK CFI INIT 4bb6c 200 .cfa: sp 0 +
STACK CFI INIT 4c30c 1c .cfa: sp 0 +
STACK CFI INIT 4c328 34 .cfa: sp 0 +
STACK CFI 4c32c .cfa: sp 32 +
STACK CFI 4c334 .cfa: x29 32 + x19: .cfa -16 + ^ .ra: .cfa -24 + ^ x29: .cfa -32 + ^
STACK CFI INIT 4c670 50 .cfa: sp 0 +
STACK CFI 4c674 .cfa: sp 32 +
STACK CFI 4c67c .cfa: x29 32 + x19: .cfa -16 + ^ .ra: .cfa -24 + ^ x29: .cfa -32 + ^
STACK CFI 4c694 .cfa: sp 32 +
STACK CFI 4c69c .cfa: sp 0 +
STACK CFI 4c6a0 .cfa: x29 32 +
STACK CFI 4c6b4 .cfa: sp 32 +
STACK CFI 4c6bc .cfa: sp 0 +
STACK CFI INIT 4c734 7c .cfa: sp 0 +
STACK CFI 4c738 .cfa: sp 48 +
STACK CFI 4c744 .cfa: x29 48 + x19: .cfa -8 + ^ x20: .cfa -16 + ^ x21: .cfa -32 + ^ .ra: .cfa -40 + ^ x29: .cfa -48 + ^
STACK CFI 4c790 .cfa: sp 48 +
STACK CFI 4c79c .cfa: sp 0 +
STACK CFI 4c7a0 .cfa: sp 48 +
STACK CFI 4c7ac .cfa: sp 0 +
STACK CFI INIT 4c7b0 4 .cfa: sp 0 +
STACK CFI INIT 4c908 34 .cfa: sp 0 +
STACK CFI 4c90c .cfa: sp 16 +
STACK CFI 4c910 .cfa: x29 16 + .ra: .cfa -8 + ^ x29: .cfa -16 + ^
STACK CFI INIT 4ca68 80 .cfa: sp 0 +
STACK CFI 4ca6c .cfa: sp 48 +
STACK CFI 4ca78 .cfa: x29 48 + x19: .cfa -8 + ^ x20: .cfa -16 + ^ x21: .cfa -32 + ^ .ra: .cfa -40 + ^ x29: .cfa -48 + ^
STACK CFI 4cad8 .cfa: sp 48 +
STACK CFI 4cae4 .cfa: sp 0 +
STACK CFI INIT 4cae8 24 .cfa: sp 0 +
STACK CFI 4caec .cfa: sp 32 +
STACK CFI 4caf4 .cfa: x29 32 + x19: .cfa -16 + ^ .ra: .cfa -24 + ^ x29: .cfa -32 + ^
STACK CFI 4cb00 .cfa: sp 32 +
STACK CFI 4cb08 .cfa: sp 0 +
STACK CFI INIT 4d004 148 .cfa: sp 0 +
STACK CFI 4d008 .cfa: sp 48 +
STACK CFI 4d014 .cfa: x29 48 + x19: .cfa -8 + ^ x20: .cfa -16 + ^ x21: .cfa -32 + ^ .ra: .cfa -40 + ^ x29: .cfa -48 + ^
STACK CFI 4d13c .cfa: sp 48 +
STACK CFI 4d148 .cfa: sp 0 +
STACK CFI INIT 4d374 80 .cfa: sp 0 +
STACK CFI 4d378 .cfa: sp 48 +
STACK CFI 4d384 .cfa: x29 48 + x19: .cfa -8 + ^ x20: .cfa -16 + ^ x21: .cfa -24 + ^ x22: .cfa -32 + ^ .ra: .cfa -40 + ^ x29: .cfa -48 + ^
STACK CFI 4d39c .cfa: sp 48 +
STACK CFI 4d3a8 .cfa: sp 0 +
STACK CFI 4d3ac .cfa: x29 48 +
STACK CFI 4d3dc .cfa: sp 48 +
STACK CFI 4d3e8 .cfa: sp 0 +
STACK CFI 4d3ec .cfa: x29 48 +
STACK CFI INIT 4d3f4 68 .cfa: sp 0 +
STACK CFI 4d3f8 .cfa: sp 32 +
STACK CFI 4d400 .cfa: x29 32 + x19: .cfa -8 + ^ x20: .cfa -16 + ^ .ra: .cfa -24 + ^ x29: .cfa -32 + ^
STACK CFI 4d418 .cfa: sp 32 +
STACK CFI 4d420 .cfa: sp 0 +
STACK CFI 4d424 .cfa: x29 32 +
STACK CFI 4d450 .cfa: sp 32 +
STACK CFI 4d458 .cfa: sp 0 +
STACK CFI INIT 4d45c 14 .cfa: sp 0 +
STACK CFI 4d460 .cfa: sp 16 +
STACK CFI 4d464 .cfa: x29 16 + .ra: .cfa -8 + ^ x29: .cfa -16 + ^
STACK CFI INIT 4d470 4 .cfa: sp 0 +
STACK CFI INIT 4d474 14 .cfa: sp 0 +
STACK CFI INIT 4d488 120 .cfa: sp 0 +
STACK CFI 4d48c .cfa: sp 64 +
STACK CFI 4d49c .cfa: x29 64 + x19: .cfa -8 + ^ x20: .cfa -16 + ^ x21: .cfa -24 + ^ x22: .cfa -32 + ^ x23: .cfa -40 + ^ x24: .cfa -48 + ^ .ra: .cfa -56 + ^ x29: .cfa -64 + ^
STACK CFI 4d594 .cfa: sp 64 +
STACK CFI 4d5a4 .cfa: sp 0 +
STACK CFI INIT 4d5a8 d4 .cfa: sp 0 +
STACK CFI 4d5ac .cfa: sp 48 +
STACK CFI 4d5b8 .cfa: x29 48 + x19: .cfa -8 + ^ x20: .cfa -16 + ^ x21: .cfa -32 + ^ .ra: .cfa -40 + ^ x29: .cfa -48 + ^
STACK CFI 4d648 .cfa: sp 48 +
STACK CFI 4d654 .cfa: sp 0 +
STACK CFI 4d658 .cfa: x29 48 +
STACK CFI INIT 4d67c 3c8 .cfa: sp 0 +
STACK CFI INIT 4da44 8c .cfa: sp 0 +
STACK CFI 4da4c .cfa: sp 32 +
STACK CFI 4da54 .cfa: x29 32 + x19: .cfa -8 + ^ x20: .cfa -16 + ^ .ra: .cfa -24 + ^ x29: .cfa -32 + ^
STACK CFI 4da9c .cfa: sp 32 +
STACK CFI 4daa4 .cfa: sp 0 +
STACK CFI 4daac .cfa: x29 32 +
STACK CFI INIT 4df6c 98 .cfa: sp 0 +
STACK CFI INIT 4e004 50 .cfa: sp 0 +
STACK CFI 4e008 .cfa: sp 32 +
STACK CFI 4e010 .cfa: x29 32 + x19: .cfa -16 + ^ .ra: .cfa -24 + ^ x29: .cfa -32 + ^
STACK CFI 4e028 .cfa: sp 32 +
STACK CFI 4e030 .cfa: sp 0 +
STACK CFI 4e034 .cfa: x29 32 +
STACK CFI 4e048 .cfa: sp 32 +
STACK CFI 4e050 .cfa: sp 0 +
STACK CFI INIT 4e054 64 .cfa: sp 0 +
STACK CFI 4e058 .cfa: sp 32 +
STACK CFI 4e060 .cfa: x29 32 + x19: .cfa -16 + ^ .ra: .cfa -24 + ^ x29: .cfa -32 + ^
STACK CFI 4e08c .cfa: sp 32 +
STACK CFI 4e094 .cfa: sp 0 +
STACK CFI 4e098 .cfa: x29 32 +
STACK CFI 4e0ac .cfa: sp 32 +
STACK CFI 4e0b4 .cfa: sp 0 +
STACK CFI INIT 4e314 178 .cfa: sp 0 +
STACK CFI 4e318 .cfa: sp 80 +
STACK CFI 4e32c .cfa: x29 80 + x19: .cfa -8 + ^ x20: .cfa -16 + ^ x21: .cfa -24 + ^ x22: .cfa -32 + ^ x23: .cfa -40 + ^ x24: .cfa -48 + ^ x25: .cfa -56 + ^ x26: .cfa -64 + ^ .ra: .cfa -72 + ^ x29: .cfa -80 + ^
STACK CFI 4e474 .cfa: sp 80 +
STACK CFI 4e488 .cfa: sp 0 +
STACK CFI INIT 4e48c 8c .cfa: sp 0 +
STACK CFI 4e490 .cfa: sp 112 +
STACK CFI 4e49c .cfa: x29 32 + x19: .cfa -8 + ^ x20: .cfa -16 + ^ .ra: .cfa -24 + ^ x29: .cfa -32 + ^
STACK CFI 4e504 .cfa: sp 112 +
STACK CFI 4e510 .cfa: sp 0 +
STACK CFI 4e514 .cfa: x29 32 +
STACK CFI INIT 4e998 1c .cfa: sp 0 +
STACK CFI INIT 4ecec 4 .cfa: sp 0 +
STACK CFI INIT 4ef8c 90 .cfa: sp 0 +
STACK CFI 4ef90 .cfa: sp 32 +
STACK CFI 4ef98 .cfa: x29 32 + x19: .cfa -16 + ^ .ra: .cfa -24 + ^ x29: .cfa -32 + ^
STACK CFI 4f010 .cfa: sp 32 +
STACK CFI 4f018 .cfa: sp 0 +
STACK CFI INIT 4f458 1c .cfa: sp 0 +
STACK CFI INIT 4f824 4 .cfa: sp 0 +
STACK CFI INIT 50080 1c .cfa: sp 0 +
STACK CFI INIT 503a4 4 .cfa: sp 0 +
STACK CFI INIT 508e0 9c .cfa: sp 0 +
STACK CFI INIT 5097c 50 .cfa: sp 0 +
STACK CFI 50980 .cfa: sp 32 +
STACK CFI 50988 .cfa: x29 32 + x19: .cfa -16 + ^ .ra: .cfa -24 + ^ x29: .cfa -32 + ^
STACK CFI 509a0 .cfa: sp 32 +
STACK CFI 509a8 .cfa: sp 0 +
STACK CFI 509ac .cfa: x29 32 +
STACK CFI 509c0 .cfa: sp 32 +
STACK CFI 509c8 .cfa: sp 0 +
STACK CFI INIT 509cc 4 .cfa: sp 0 +
STACK CFI INIT 509d0 14 .cfa: sp 0 +
STACK CFI INIT 50e20 1c .cfa: sp 0 +
STACK CFI INIT 5116c 4 .cfa: sp 0 +
STACK CFI INIT 515e4 8c .cfa: sp 0 +
STACK CFI 515e8 .cfa: sp 32 +
STACK CFI 515f0 .cfa: x29 32 + x19: .cfa -16 + ^ .ra: .cfa -24 + ^ x29: .cfa -32 + ^
STACK CFI 51664 .cfa: sp 32 +
STACK CFI 5166c .cfa: sp 0 +
STACK CFI INIT 51af0 1c .cfa: sp 0 +
STACK CFI INIT 52a24 4 .cfa: sp 0 +
STACK CFI INIT 545f0 78 .cfa: sp 0 +
STACK CFI 545f4 .cfa: sp 48 +
STACK CFI 54600 .cfa: x29 48 + x19: .cfa -8 + ^ x20: .cfa -16 + ^ x21: .cfa -32 + ^ .ra: .cfa -40 + ^ x29: .cfa -48 + ^
STACK CFI 54648 .cfa: sp 48 +
STACK CFI 54654 .cfa: sp 0 +
STACK CFI 54658 .cfa: sp 48 +
STACK CFI 54664 .cfa: sp 0 +
STACK CFI INIT 54668 78 .cfa: sp 0 +
STACK CFI 5466c .cfa: sp 48 +
STACK CFI 54678 .cfa: x29 48 + x19: .cfa -8 + ^ x20: .cfa -16 + ^ x21: .cfa -32 + ^ .ra: .cfa -40 + ^ x29: .cfa -48 + ^
STACK CFI 546c0 .cfa: sp 48 +
STACK CFI 546cc .cfa: sp 0 +
STACK CFI 546d0 .cfa: sp 48 +
STACK CFI 546dc .cfa: sp 0 +
STACK CFI INIT 546e0 84 .cfa: sp 0 +
STACK CFI 546e4 .cfa: sp 48 +
STACK CFI 546f0 .cfa: x29 48 + x19: .cfa -8 + ^ x20: .cfa -16 + ^ x21: .cfa -24 + ^ x22: .cfa -32 + ^ .ra: .cfa -40 + ^ x29: .cfa -48 + ^
STACK CFI 54744 .cfa: sp 48 +
STACK CFI 54750 .cfa: sp 0 +
STACK CFI 54754 .cfa: sp 48 +
STACK CFI 54760 .cfa: sp 0 +
STACK CFI INIT 54780 8c .cfa: sp 0 +
STACK CFI 54784 .cfa: sp 48 +
STACK CFI 54790 .cfa: x29 48 + x19: .cfa -8 + ^ x20: .cfa -16 + ^ x21: .cfa -24 + ^ x22: .cfa -32 + ^ .ra: .cfa -40 + ^ x29: .cfa -48 + ^
STACK CFI 547c8 .cfa: sp 48 +
STACK CFI 547d4 .cfa: sp 0 +
STACK CFI 547d8 .cfa: x29 48 +
STACK CFI 547fc .cfa: sp 48 +
STACK CFI 54808 .cfa: sp 0 +
STACK CFI INIT 5480c 78 .cfa: sp 0 +
STACK CFI 54810 .cfa: sp 48 +
STACK CFI 5481c .cfa: x29 48 + x19: .cfa -8 + ^ x20: .cfa -16 + ^ x21: .cfa -32 + ^ .ra: .cfa -40 + ^ x29: .cfa -48 + ^
STACK CFI 54864 .cfa: sp 48 +
STACK CFI 54870 .cfa: sp 0 +
STACK CFI 54874 .cfa: sp 48 +
STACK CFI 54880 .cfa: sp 0 +
STACK CFI INIT 54884 8c .cfa: sp 0 +
STACK CFI 54888 .cfa: sp 48 +
STACK CFI 54894 .cfa: x29 48 + x19: .cfa -8 + ^ x20: .cfa -16 + ^ x21: .cfa -24 + ^ x22: .cfa -32 + ^ .ra: .cfa -40 + ^ x29: .cfa -48 + ^
STACK CFI 548cc .cfa: sp 48 +
STACK CFI 548d8 .cfa: sp 0 +
STACK CFI 548dc .cfa: x29 48 +
STACK CFI 54900 .cfa: sp 48 +
STACK CFI 5490c .cfa: sp 0 +
STACK CFI INIT 54910 78 .cfa: sp 0 +
STACK CFI 54914 .cfa: sp 48 +
STACK CFI 54920 .cfa: x29 48 + x19: .cfa -8 + ^ x20: .cfa -16 + ^ x21: .cfa -32 + ^ .ra: .cfa -40 + ^ x29: .cfa -48 + ^
STACK CFI 54968 .cfa: sp 48 +
STACK CFI 54974 .cfa: sp 0 +
STACK CFI 54978 .cfa: sp 48 +
STACK CFI 54984 .cfa: sp 0 +
STACK CFI INIT 54988 104 .cfa: sp 0 +
STACK CFI 5498c .cfa: sp 64 +
STACK CFI 5499c .cfa: x29 64 + x19: .cfa -8 + ^ x20: .cfa -16 + ^ x21: .cfa -24 + ^ x22: .cfa -32 + ^ x23: .cfa -48 + ^ .ra: .cfa -56 + ^ x29: .cfa -64 + ^
STACK CFI 54a64 .cfa: sp 64 +
STACK CFI 54a74 .cfa: sp 0 +
STACK CFI 54a78 .cfa: sp 64 +
STACK CFI 54a88 .cfa: sp 0 +
STACK CFI INIT 54e84 78 .cfa: sp 0 +
STACK CFI 54e88 .cfa: sp 48 +
STACK CFI 54e94 .cfa: x29 48 + x19: .cfa -8 + ^ x20: .cfa -16 + ^ x21: .cfa -32 + ^ .ra: .cfa -40 + ^ x29: .cfa -48 + ^
STACK CFI 54edc .cfa: sp 48 +
STACK CFI 54ee8 .cfa: sp 0 +
STACK CFI 54eec .cfa: sp 48 +
STACK CFI 54ef8 .cfa: sp 0 +
STACK CFI INIT 54f18 90 .cfa: sp 0 +
STACK CFI 54f1c .cfa: sp 48 +
STACK CFI 54f28 .cfa: x29 48 + x19: .cfa -8 + ^ x20: .cfa -16 + ^ x21: .cfa -24 + ^ x22: .cfa -32 + ^ .ra: .cfa -40 + ^ x29: .cfa -48 + ^
STACK CFI 54f60 .cfa: sp 48 +
STACK CFI 54f6c .cfa: sp 0 +
STACK CFI 54f70 .cfa: x29 48 +
STACK CFI 54f98 .cfa: sp 48 +
STACK CFI 54fa4 .cfa: sp 0 +
STACK CFI INIT 55040 3c .cfa: sp 0 +
STACK CFI 55044 .cfa: sp 32 +
STACK CFI 5504c .cfa: x29 32 + x19: .cfa -16 + ^ .ra: .cfa -24 + ^ x29: .cfa -32 + ^
STACK CFI 55064 .cfa: sp 32 +
STACK CFI 5506c .cfa: sp 0 +
STACK CFI 55070 .cfa: sp 32 +
STACK CFI 55078 .cfa: sp 0 +
STACK CFI INIT 550b4 78 .cfa: sp 0 +
STACK CFI 550b8 .cfa: sp 48 +
STACK CFI 550c4 .cfa: x29 48 + x19: .cfa -8 + ^ x20: .cfa -16 + ^ x21: .cfa -32 + ^ .ra: .cfa -40 + ^ x29: .cfa -48 + ^
STACK CFI 5510c .cfa: sp 48 +
STACK CFI 55118 .cfa: sp 0 +
STACK CFI 5511c .cfa: sp 48 +
STACK CFI 55128 .cfa: sp 0 +
STACK CFI INIT 5512c 78 .cfa: sp 0 +
STACK CFI 55130 .cfa: sp 48 +
STACK CFI 5513c .cfa: x29 48 + x19: .cfa -8 + ^ x20: .cfa -16 + ^ x21: .cfa -32 + ^ .ra: .cfa -40 + ^ x29: .cfa -48 + ^
STACK CFI 55184 .cfa: sp 48 +
STACK CFI 55190 .cfa: sp 0 +
STACK CFI 55194 .cfa: sp 48 +
STACK CFI 551a0 .cfa: sp 0 +
STACK CFI INIT 551a4 78 .cfa: sp 0 +
STACK CFI 551a8 .cfa: sp 48 +
STACK CFI 551b4 .cfa: x29 48 + x19: .cfa -8 + ^ x20: .cfa -16 + ^ x21: .cfa -32 + ^ .ra: .cfa -40 + ^ x29: .cfa -48 + ^
STACK CFI 551fc .cfa: sp 48 +
STACK CFI 55208 .cfa: sp 0 +
STACK CFI 5520c .cfa: sp 48 +
STACK CFI 55218 .cfa: sp 0 +
STACK CFI INIT 5521c 78 .cfa: sp 0 +
STACK CFI 55220 .cfa: sp 48 +
STACK CFI 5522c .cfa: x29 48 + x19: .cfa -8 + ^ x20: .cfa -16 + ^ x21: .cfa -32 + ^ .ra: .cfa -40 + ^ x29: .cfa -48 + ^
STACK CFI 55274 .cfa: sp 48 +
STACK CFI 55280 .cfa: sp 0 +
STACK CFI 55284 .cfa: sp 48 +
STACK CFI 55290 .cfa: sp 0 +
STACK CFI INIT 55460 2b8 .cfa: sp 0 +
STACK CFI 55464 .cfa: sp 80 +
STACK CFI 55478 .cfa: x29 80 + x19: .cfa -8 + ^ x20: .cfa -16 + ^ x21: .cfa -24 + ^ x22: .cfa -32 + ^ x23: .cfa -40 + ^ x24: .cfa -48 + ^ x25: .cfa -64 + ^ .ra: .cfa -72 + ^ x29: .cfa -80 + ^
STACK CFI 55624 .cfa: sp 80 +
STACK CFI 55638 .cfa: sp 0 +
STACK CFI 5563c .cfa: x29 80 +
STACK CFI 55700 .cfa: sp 80 +
STACK CFI 55714 .cfa: sp 0 +
STACK CFI INIT 55718 80 .cfa: sp 0 +
STACK CFI 5571c .cfa: sp 48 +
STACK CFI 55728 .cfa: x29 48 + x19: .cfa -8 + ^ x20: .cfa -16 + ^ x21: .cfa -32 + ^ .ra: .cfa -40 + ^ x29: .cfa -48 + ^
STACK CFI 55778 .cfa: sp 48 +
STACK CFI 55784 .cfa: sp 0 +
STACK CFI 55788 .cfa: sp 48 +
STACK CFI 55794 .cfa: sp 0 +
STACK CFI INIT 55798 80 .cfa: sp 0 +
STACK CFI 5579c .cfa: sp 48 +
STACK CFI 557a8 .cfa: x29 48 + x19: .cfa -8 + ^ x20: .cfa -16 + ^ x21: .cfa -32 + ^ .ra: .cfa -40 + ^ x29: .cfa -48 + ^
STACK CFI 557f8 .cfa: sp 48 +
STACK CFI 55804 .cfa: sp 0 +
STACK CFI 55808 .cfa: sp 48 +
STACK CFI 55814 .cfa: sp 0 +
STACK CFI INIT 559b8 2b8 .cfa: sp 0 +
STACK CFI INIT 55c70 1bc .cfa: sp 0 +
STACK CFI 55c74 .cfa: sp 64 +
STACK CFI 55c84 .cfa: x29 64 + x19: .cfa -8 + ^ x20: .cfa -16 + ^ x21: .cfa -24 + ^ x22: .cfa -32 + ^ x23: .cfa -48 + ^ .ra: .cfa -56 + ^ x29: .cfa -64 + ^
STACK CFI 55d88 .cfa: sp 64 +
STACK CFI 55d98 .cfa: sp 0 +
STACK CFI 55d9c .cfa: x29 64 +
STACK CFI INIT 55e2c 80 .cfa: sp 0 +
STACK CFI 55e30 .cfa: sp 48 +
STACK CFI 55e3c .cfa: x29 48 + x19: .cfa -8 + ^ x20: .cfa -16 + ^ x21: .cfa -32 + ^ .ra: .cfa -40 + ^ x29: .cfa -48 + ^
STACK CFI 55e8c .cfa: sp 48 +
STACK CFI 55e98 .cfa: sp 0 +
STACK CFI 55e9c .cfa: sp 48 +
STACK CFI 55ea8 .cfa: sp 0 +
STACK CFI INIT 55eac 98 .cfa: sp 0 +
STACK CFI 55eb4 .cfa: sp 48 +
STACK CFI 55ec0 .cfa: x29 48 + x19: .cfa -8 + ^ x20: .cfa -16 + ^ x21: .cfa -32 + ^ .ra: .cfa -40 + ^ x29: .cfa -48 + ^
STACK CFI 55f10 .cfa: sp 0 + x19: x19 x20: x20 x21: x21 .ra: x30 x29: x29
STACK CFI 55f14 .cfa: x29 48 + x19: .cfa -8 + ^ x20: .cfa -16 + ^ x21: .cfa -32 + ^ .ra: .cfa -40 + ^ x29: .cfa -48 + ^
STACK CFI 55f34 .cfa: sp 48 +
STACK CFI 55f40 .cfa: sp 0 +
STACK CFI INIT 55f44 54 .cfa: sp 0 +
STACK CFI 55f4c .cfa: sp 32 +
STACK CFI 55f54 .cfa: x29 32 + x19: .cfa -8 + ^ x20: .cfa -16 + ^ .ra: .cfa -24 + ^ x29: .cfa -32 + ^
STACK CFI 55f8c .cfa: sp 32 +
STACK CFI 55f94 .cfa: sp 0 +
STACK CFI INIT 55f98 54 .cfa: sp 0 +
STACK CFI 55fa0 .cfa: sp 32 +
STACK CFI 55fa8 .cfa: x29 32 + x19: .cfa -8 + ^ x20: .cfa -16 + ^ .ra: .cfa -24 + ^ x29: .cfa -32 + ^
STACK CFI 55fe0 .cfa: sp 32 +
STACK CFI 55fe8 .cfa: sp 0 +
STACK CFI INIT 56094 54 .cfa: sp 0 +
STACK CFI 5609c .cfa: sp 32 +
STACK CFI 560a4 .cfa: x29 32 + x19: .cfa -8 + ^ x20: .cfa -16 + ^ .ra: .cfa -24 + ^ x29: .cfa -32 + ^
STACK CFI 560dc .cfa: sp 32 +
STACK CFI 560e4 .cfa: sp 0 +
STACK CFI INIT 560e8 a8 .cfa: sp 0 +
STACK CFI 560f0 .cfa: sp 48 +
STACK CFI 560fc .cfa: x29 48 + x19: .cfa -8 + ^ x20: .cfa -16 + ^ x21: .cfa -24 + ^ x22: .cfa -32 + ^ .ra: .cfa -40 + ^ x29: .cfa -48 + ^
STACK CFI 56180 .cfa: sp 48 +
STACK CFI 5618c .cfa: sp 0 +
STACK CFI INIT 56190 54 .cfa: sp 0 +
STACK CFI 56198 .cfa: sp 32 +
STACK CFI 561a0 .cfa: x29 32 + x19: .cfa -8 + ^ x20: .cfa -16 + ^ .ra: .cfa -24 + ^ x29: .cfa -32 + ^
STACK CFI 561d8 .cfa: sp 32 +
STACK CFI 561e0 .cfa: sp 0 +
STACK CFI INIT 561e4 14 .cfa: sp 0 +
STACK CFI 561e8 .cfa: sp 16 +
STACK CFI 561ec .cfa: x29 16 + .ra: .cfa -8 + ^ x29: .cfa -16 + ^
STACK CFI INIT 56d50 98 .cfa: sp 0 +
STACK CFI 56d54 .cfa: sp 304 +
STACK CFI 56d60 .cfa: x29 32 + x19: .cfa -8 + ^ x28: .cfa -16 + ^ .ra: .cfa -24 + ^ x29: .cfa -32 + ^
STACK CFI 56dd4 .cfa: sp 304 +
STACK CFI 56de0 .cfa: sp 0 +
STACK CFI 56de4 .cfa: x29 32 +
STACK CFI INIT 56de8 54 .cfa: sp 0 +
STACK CFI 56dec .cfa: sp 32 +
STACK CFI 56df4 .cfa: x29 32 + x19: .cfa -8 + ^ x20: .cfa -16 + ^ .ra: .cfa -24 + ^ x29: .cfa -32 + ^
STACK CFI 56e30 .cfa: sp 32 +
STACK CFI 56e38 .cfa: sp 0 +
STACK CFI INIT 56e3c 54 .cfa: sp 0 +
STACK CFI 56e40 .cfa: sp 32 +
STACK CFI 56e48 .cfa: x29 32 + x19: .cfa -8 + ^ x20: .cfa -16 + ^ .ra: .cfa -24 + ^ x29: .cfa -32 + ^
STACK CFI 56e84 .cfa: sp 32 +
STACK CFI 56e8c .cfa: sp 0 +
STACK CFI INIT 574d4 4 .cfa: sp 0 +
STACK CFI INIT 574d8 14 .cfa: sp 0 +
STACK CFI 574dc .cfa: sp 16 +
STACK CFI 574e0 .cfa: x29 16 + .ra: .cfa -8 + ^ x29: .cfa -16 + ^
STACK CFI INIT 574ec 14 .cfa: sp 0 +
STACK CFI 574f0 .cfa: sp 16 +
STACK CFI 574f4 .cfa: x29 16 + .ra: .cfa -8 + ^ x29: .cfa -16 + ^
STACK CFI INIT 57500 14 .cfa: sp 0 +
STACK CFI 57504 .cfa: sp 16 +
STACK CFI 57508 .cfa: x29 16 + .ra: .cfa -8 + ^ x29: .cfa -16 + ^
STACK CFI INIT 57514 14 .cfa: sp 0 +
STACK CFI 57518 .cfa: sp 16 +
STACK CFI 5751c .cfa: x29 16 + .ra: .cfa -8 + ^ x29: .cfa -16 + ^
STACK CFI INIT 57528 4 .cfa: sp 0 +
STACK CFI INIT 5752c 4 .cfa: sp 0 +
STACK CFI INIT 57530 38 .cfa: sp 0 +
STACK CFI 57534 .cfa: sp 32 +
STACK CFI 5753c .cfa: x29 32 + x19: .cfa -16 + ^ .ra: .cfa -24 + ^ x29: .cfa -32 + ^
STACK CFI 5755c .cfa: sp 32 +
STACK CFI 57564 .cfa: sp 0 +
STACK CFI INIT 57568 18 .cfa: sp 0 +
STACK CFI INIT 57580 4 .cfa: sp 0 +
STACK CFI INIT 57584 4 .cfa: sp 0 +
STACK CFI INIT 57588 10 .cfa: sp 0 +
STACK CFI INIT 57598 1c .cfa: sp 0 +
STACK CFI INIT 575b4 c .cfa: sp 0 +
STACK CFI INIT 575c0 18 .cfa: sp 0 +
STACK CFI INIT 577c8 50 .cfa: sp 0 +
STACK CFI 577cc .cfa: sp 32 +
STACK CFI 577d4 .cfa: x29 32 + x19: .cfa -16 + ^ .ra: .cfa -24 + ^ x29: .cfa -32 + ^
STACK CFI 577ec .cfa: sp 32 +
STACK CFI 577f4 .cfa: sp 0 +
STACK CFI 577f8 .cfa: x29 32 +
STACK CFI 5780c .cfa: sp 32 +
STACK CFI 57814 .cfa: sp 0 +
STACK CFI INIT 57818 9c .cfa: sp 0 +
STACK CFI 5781c .cfa: sp 32 +
STACK CFI 57824 .cfa: x29 32 + x19: .cfa -8 + ^ x20: .cfa -16 + ^ .ra: .cfa -24 + ^ x29: .cfa -32 + ^
STACK CFI 578a8 .cfa: sp 32 +
STACK CFI 578b0 .cfa: sp 0 +
STACK CFI INIT 57ff4 84 .cfa: sp 0 +
STACK CFI 57ff8 .cfa: sp 32 +
STACK CFI 58000 .cfa: x29 32 + x19: .cfa -16 + ^ .ra: .cfa -24 + ^ x29: .cfa -32 + ^
STACK CFI 5804c .cfa: sp 32 +
STACK CFI 58054 .cfa: sp 0 +
STACK CFI 58058 .cfa: x29 32 +
STACK CFI 5806c .cfa: sp 32 +
STACK CFI 58074 .cfa: sp 0 +
STACK CFI INIT 596b8 8c .cfa: sp 0 +
STACK CFI 596bc .cfa: sp 48 +
STACK CFI 596c8 .cfa: x29 48 + x19: .cfa -8 + ^ x20: .cfa -16 + ^ x21: .cfa -24 + ^ x22: .cfa -32 + ^ .ra: .cfa -40 + ^ x29: .cfa -48 + ^
STACK CFI 596d0 .cfa: sp 48 +
STACK CFI 596dc .cfa: sp 0 +
STACK CFI 596e0 .cfa: x29 48 +
STACK CFI 59734 .cfa: sp 48 +
STACK CFI 59740 .cfa: sp 0 +
STACK CFI INIT 59744 60 .cfa: sp 0 +
STACK CFI 59754 .cfa: sp 32 +
STACK CFI 5975c .cfa: x29 32 + x19: .cfa -8 + ^ x20: .cfa -16 + ^ .ra: .cfa -24 + ^ x29: .cfa -32 + ^
STACK CFI 59798 .cfa: sp 32 +
STACK CFI 597a0 .cfa: sp 0 +
STACK CFI INIT 597a4 4 .cfa: sp 0 +
STACK CFI INIT 59974 a4 .cfa: sp 0 +
STACK CFI 59978 .cfa: sp 32 +
STACK CFI 59980 .cfa: x29 32 + x19: .cfa -8 + ^ x20: .cfa -16 + ^ .ra: .cfa -24 + ^ x29: .cfa -32 + ^
STACK CFI 59a0c .cfa: sp 32 +
STACK CFI 59a14 .cfa: sp 0 +
STACK CFI INIT 59c34 50 .cfa: sp 0 +
STACK CFI 59c38 .cfa: sp 32 +
STACK CFI 59c40 .cfa: x29 32 + x19: .cfa -16 + ^ .ra: .cfa -24 + ^ x29: .cfa -32 + ^
STACK CFI 59c58 .cfa: sp 32 +
STACK CFI 59c60 .cfa: sp 0 +
STACK CFI 59c64 .cfa: x29 32 +
STACK CFI 59c78 .cfa: sp 32 +
STACK CFI 59c80 .cfa: sp 0 +
STACK CFI INIT 59c84 50 .cfa: sp 0 +
STACK CFI 59c88 .cfa: sp 32 +
STACK CFI 59c90 .cfa: x29 32 + x19: .cfa -16 + ^ .ra: .cfa -24 + ^ x29: .cfa -32 + ^
STACK CFI 59ca8 .cfa: sp 32 +
STACK CFI 59cb0 .cfa: sp 0 +
STACK CFI 59cb4 .cfa: x29 32 +
STACK CFI 59cc8 .cfa: sp 32 +
STACK CFI 59cd0 .cfa: sp 0 +
STACK CFI INIT 59cd4 5c .cfa: sp 0 +
STACK CFI 59cd8 .cfa: sp 32 +
STACK CFI 59ce0 .cfa: x29 32 + x19: .cfa -16 + ^ .ra: .cfa -24 + ^ x29: .cfa -32 + ^
STACK CFI 59d04 .cfa: sp 32 +
STACK CFI 59d0c .cfa: sp 0 +
STACK CFI 59d10 .cfa: x29 32 +
STACK CFI 59d24 .cfa: sp 32 +
STACK CFI 59d2c .cfa: sp 0 +
STACK CFI INIT 59d30 6c .cfa: sp 0 +
STACK CFI 59d34 .cfa: sp 32 +
STACK CFI 59d3c .cfa: x29 32 + x19: .cfa -8 + ^ x20: .cfa -16 + ^ .ra: .cfa -24 + ^ x29: .cfa -32 + ^
STACK CFI 59d68 .cfa: sp 32 +
STACK CFI 59d70 .cfa: sp 0 +
STACK CFI 59d74 .cfa: x29 32 +
STACK CFI 59d90 .cfa: sp 32 +
STACK CFI 59d98 .cfa: sp 0 +
STACK CFI INIT 59d9c 58 .cfa: sp 0 +
STACK CFI 59da0 .cfa: sp 32 +
STACK CFI 59da8 .cfa: x29 32 + x19: .cfa -8 + ^ x20: .cfa -16 + ^ .ra: .cfa -24 + ^ x29: .cfa -32 + ^
STACK CFI 59de8 .cfa: sp 32 +
STACK CFI 59df0 .cfa: sp 0 +
STACK CFI INIT 59df4 4c .cfa: sp 0 +
STACK CFI 59df8 .cfa: sp 32 +
STACK CFI 59e00 .cfa: x29 32 + x19: .cfa -8 + ^ x20: .cfa -16 + ^ .ra: .cfa -24 + ^ x29: .cfa -32 + ^
STACK CFI 59e34 .cfa: sp 32 +
STACK CFI 59e3c .cfa: sp 0 +
STACK CFI INIT 59e40 50 .cfa: sp 0 +
STACK CFI 59e44 .cfa: sp 32 +
STACK CFI 59e4c .cfa: x29 32 + x19: .cfa -16 + ^ .ra: .cfa -24 + ^ x29: .cfa -32 + ^
STACK CFI 59e64 .cfa: sp 32 +
STACK CFI 59e6c .cfa: sp 0 +
STACK CFI 59e70 .cfa: x29 32 +
STACK CFI 59e84 .cfa: sp 32 +
STACK CFI 59e8c .cfa: sp 0 +
STACK CFI INIT 59e90 60 .cfa: sp 0 +
STACK CFI 59e94 .cfa: sp 32 +
STACK CFI 59e9c .cfa: x29 32 + x19: .cfa -8 + ^ x20: .cfa -16 + ^ .ra: .cfa -24 + ^ x29: .cfa -32 + ^
STACK CFI 59ebc .cfa: sp 32 +
STACK CFI 59ec4 .cfa: sp 0 +
STACK CFI 59ec8 .cfa: x29 32 +
STACK CFI 59ee4 .cfa: sp 32 +
STACK CFI 59eec .cfa: sp 0 +
STACK CFI INIT 59ef0 8 .cfa: sp 0 +
STACK CFI INIT 59ef8 1c .cfa: sp 0 +
STACK CFI INIT 59f14 c .cfa: sp 0 +
STACK CFI INIT 5a0f0 60 .cfa: sp 0 +
STACK CFI 5a0f4 .cfa: sp 32 +
STACK CFI 5a0fc .cfa: x29 32 + x19: .cfa -8 + ^ x20: .cfa -16 + ^ .ra: .cfa -24 + ^ x29: .cfa -32 + ^
STACK CFI 5a11c .cfa: sp 32 +
STACK CFI 5a124 .cfa: sp 0 +
STACK CFI 5a128 .cfa: x29 32 +
STACK CFI 5a144 .cfa: sp 32 +
STACK CFI 5a14c .cfa: sp 0 +
STACK CFI INIT 5a150 70 .cfa: sp 0 +
STACK CFI 5a154 .cfa: sp 32 +
STACK CFI 5a15c .cfa: x29 32 + x19: .cfa -8 + ^ x20: .cfa -16 + ^ .ra: .cfa -24 + ^ x29: .cfa -32 + ^
STACK CFI 5a184 .cfa: sp 32 +
STACK CFI 5a18c .cfa: sp 0 +
STACK CFI 5a190 .cfa: x29 32 +
STACK CFI 5a1b4 .cfa: sp 32 +
STACK CFI 5a1bc .cfa: sp 0 +
STACK CFI INIT 5a1c0 5c .cfa: sp 0 +
STACK CFI 5a1c4 .cfa: sp 32 +
STACK CFI 5a1cc .cfa: x29 32 + x19: .cfa -16 + ^ .ra: .cfa -24 + ^ x29: .cfa -32 + ^
STACK CFI 5a1f0 .cfa: sp 32 +
STACK CFI 5a1f8 .cfa: sp 0 +
STACK CFI 5a1fc .cfa: x29 32 +
STACK CFI 5a210 .cfa: sp 32 +
STACK CFI 5a218 .cfa: sp 0 +
STACK CFI INIT 5a21c 6c .cfa: sp 0 +
STACK CFI 5a220 .cfa: sp 32 +
STACK CFI 5a228 .cfa: x29 32 + x19: .cfa -8 + ^ x20: .cfa -16 + ^ .ra: .cfa -24 + ^ x29: .cfa -32 + ^
STACK CFI 5a254 .cfa: sp 32 +
STACK CFI 5a25c .cfa: sp 0 +
STACK CFI 5a260 .cfa: x29 32 +
STACK CFI 5a27c .cfa: sp 32 +
STACK CFI 5a284 .cfa: sp 0 +
STACK CFI INIT 5a288 58 .cfa: sp 0 +
STACK CFI 5a28c .cfa: sp 32 +
STACK CFI 5a294 .cfa: x29 32 + x19: .cfa -8 + ^ x20: .cfa -16 + ^ .ra: .cfa -24 + ^ x29: .cfa -32 + ^
STACK CFI 5a2d4 .cfa: sp 32 +
STACK CFI 5a2dc .cfa: sp 0 +
STACK CFI INIT 5a2e0 4c .cfa: sp 0 +
STACK CFI 5a2e4 .cfa: sp 32 +
STACK CFI 5a2ec .cfa: x29 32 + x19: .cfa -8 + ^ x20: .cfa -16 + ^ .ra: .cfa -24 + ^ x29: .cfa -32 + ^
STACK CFI 5a320 .cfa: sp 32 +
STACK CFI 5a328 .cfa: sp 0 +
STACK CFI INIT 5a32c 50 .cfa: sp 0 +
STACK CFI 5a330 .cfa: sp 32 +
STACK CFI 5a338 .cfa: x29 32 + x19: .cfa -16 + ^ .ra: .cfa -24 + ^ x29: .cfa -32 + ^
STACK CFI 5a350 .cfa: sp 32 +
STACK CFI 5a358 .cfa: sp 0 +
STACK CFI 5a35c .cfa: x29 32 +
STACK CFI 5a370 .cfa: sp 32 +
STACK CFI 5a378 .cfa: sp 0 +
STACK CFI INIT 5a37c 60 .cfa: sp 0 +
STACK CFI 5a380 .cfa: sp 32 +
STACK CFI 5a388 .cfa: x29 32 + x19: .cfa -8 + ^ x20: .cfa -16 + ^ .ra: .cfa -24 + ^ x29: .cfa -32 + ^
STACK CFI 5a3a8 .cfa: sp 32 +
STACK CFI 5a3b0 .cfa: sp 0 +
STACK CFI 5a3b4 .cfa: x29 32 +
STACK CFI 5a3d0 .cfa: sp 32 +
STACK CFI 5a3d8 .cfa: sp 0 +
STACK CFI INIT 5a3dc 8 .cfa: sp 0 +
STACK CFI INIT 5a3e4 1c .cfa: sp 0 +
STACK CFI INIT 5a400 c .cfa: sp 0 +
STACK CFI INIT 5a5d0 218 .cfa: sp 0 +
STACK CFI 5a5d4 .cfa: sp 80 +
STACK CFI 5a5e8 .cfa: x29 80 + x19: .cfa -8 + ^ x20: .cfa -16 + ^ x21: .cfa -24 + ^ x22: .cfa -32 + ^ x23: .cfa -40 + ^ x24: .cfa -48 + ^ x25: .cfa -64 + ^ .ra: .cfa -72 + ^ x29: .cfa -80 + ^
STACK CFI 5a7b8 .cfa: sp 80 +
STACK CFI 5a7cc .cfa: sp 0 +
STACK CFI 5a7d0 .cfa: sp 80 +
STACK CFI 5a7e4 .cfa: sp 0 +
STACK CFI INIT 5a7e8 4 .cfa: sp 0 +
STACK CFI INIT 5a7ec 4 .cfa: sp 0 +
STACK CFI INIT 5a7f0 38 .cfa: sp 0 +
STACK CFI 5a7f4 .cfa: sp 32 +
STACK CFI 5a7fc .cfa: x29 32 + x19: .cfa -16 + ^ .ra: .cfa -24 + ^ x29: .cfa -32 + ^
STACK CFI 5a81c .cfa: sp 32 +
STACK CFI 5a824 .cfa: sp 0 +
STACK CFI INIT 5a828 18 .cfa: sp 0 +
STACK CFI INIT 5a840 4 .cfa: sp 0 +
STACK CFI INIT 5a844 4 .cfa: sp 0 +
STACK CFI INIT 5ac68 1c .cfa: sp 0 +
STACK CFI INIT 5ac84 c .cfa: sp 0 +
STACK CFI INIT 5addc 100 .cfa: sp 0 +
STACK CFI 5ade0 .cfa: sp 48 +
STACK CFI 5adec .cfa: x29 48 + x19: .cfa -8 + ^ x20: .cfa -16 + ^ x21: .cfa -32 + ^ .ra: .cfa -40 + ^ x29: .cfa -48 + ^
STACK CFI 5aebc .cfa: sp 48 +
STACK CFI 5aec8 .cfa: sp 0 +
STACK CFI 5aecc .cfa: sp 48 +
STACK CFI 5aed8 .cfa: sp 0 +
STACK CFI INIT 5b0b8 70 .cfa: sp 0 +
STACK CFI 5b0bc .cfa: sp 48 +
STACK CFI 5b0c8 .cfa: x29 48 + x19: .cfa -8 + ^ x20: .cfa -16 + ^ x21: .cfa -32 + ^ .ra: .cfa -40 + ^ x29: .cfa -48 + ^
STACK CFI 5b108 .cfa: sp 48 +
STACK CFI 5b114 .cfa: sp 0 +
STACK CFI 5b118 .cfa: sp 48 +
STACK CFI 5b124 .cfa: sp 0 +
STACK CFI INIT 5b128 88 .cfa: sp 0 +
STACK CFI 5b12c .cfa: sp 48 +
STACK CFI 5b138 .cfa: x29 48 + x19: .cfa -8 + ^ x20: .cfa -16 + ^ x21: .cfa -32 + ^ .ra: .cfa -40 + ^ x29: .cfa -48 + ^
STACK CFI 5b158 .cfa: sp 48 +
STACK CFI 5b164 .cfa: sp 0 +
STACK CFI 5b168 .cfa: x29 48 +
STACK CFI 5b190 .cfa: sp 48 +
STACK CFI 5b19c .cfa: sp 0 +
STACK CFI 5b1a0 .cfa: sp 48 +
STACK CFI 5b1ac .cfa: sp 0 +
STACK CFI INIT 5b1b0 68 .cfa: sp 0 +
STACK CFI 5b1b4 .cfa: sp 48 +
STACK CFI 5b1c0 .cfa: x29 48 + x19: .cfa -8 + ^ x20: .cfa -16 + ^ x21: .cfa -32 + ^ .ra: .cfa -40 + ^ x29: .cfa -48 + ^
STACK CFI 5b1f8 .cfa: sp 48 +
STACK CFI 5b204 .cfa: sp 0 +
STACK CFI 5b208 .cfa: sp 48 +
STACK CFI 5b214 .cfa: sp 0 +
STACK CFI INIT 5b348 7c .cfa: sp 0 +
STACK CFI 5b34c .cfa: sp 48 +
STACK CFI 5b358 .cfa: x29 48 + x19: .cfa -8 + ^ x20: .cfa -16 + ^ x21: .cfa -24 + ^ x22: .cfa -32 + ^ .ra: .cfa -40 + ^ x29: .cfa -48 + ^
STACK CFI 5b360 .cfa: sp 48 +
STACK CFI 5b36c .cfa: sp 0 +
STACK CFI 5b370 .cfa: x29 48 +
STACK CFI 5b3b4 .cfa: sp 48 +
STACK CFI 5b3c0 .cfa: sp 0 +
STACK CFI INIT 5b3c4 14 .cfa: sp 0 +
STACK CFI 5b3c8 .cfa: sp 16 +
STACK CFI 5b3cc .cfa: x29 16 + .ra: .cfa -8 + ^ x29: .cfa -16 + ^
STACK CFI INIT 5b78c 10c .cfa: sp 0 +
STACK CFI 5b790 .cfa: sp 32 +
STACK CFI 5b798 .cfa: x29 32 + x19: .cfa -16 + ^ .ra: .cfa -24 + ^ x29: .cfa -32 + ^
STACK CFI 5b7ec .cfa: sp 32 +
STACK CFI 5b7f4 .cfa: sp 0 +
STACK CFI 5b7f8 .cfa: x29 32 +
STACK CFI 5b88c .cfa: sp 32 +
STACK CFI 5b894 .cfa: sp 0 +
STACK CFI INIT 5ba14 98 .cfa: sp 0 +
STACK CFI 5ba18 .cfa: sp 48 +
STACK CFI 5ba24 .cfa: x29 48 + x19: .cfa -8 + ^ x20: .cfa -16 + ^ x21: .cfa -24 + ^ x22: .cfa -32 + ^ .ra: .cfa -40 + ^ x29: .cfa -48 + ^
STACK CFI 5ba2c .cfa: sp 48 +
STACK CFI 5ba38 .cfa: sp 0 +
STACK CFI 5ba3c .cfa: x29 48 +
STACK CFI 5ba60 .cfa: sp 48 +
STACK CFI 5ba6c .cfa: sp 0 +
STACK CFI 5ba70 .cfa: x29 48 +
STACK CFI 5ba9c .cfa: sp 48 +
STACK CFI 5baa8 .cfa: sp 0 +
STACK CFI INIT 5baac 14 .cfa: sp 0 +
STACK CFI 5bab0 .cfa: sp 16 +
STACK CFI 5bab4 .cfa: x29 16 + .ra: .cfa -8 + ^ x29: .cfa -16 + ^
STACK CFI INIT 5bac0 54 .cfa: sp 0 +
STACK CFI 5bad0 .cfa: sp 32 +
STACK CFI 5bad8 .cfa: x29 32 + x19: .cfa -8 + ^ x20: .cfa -16 + ^ .ra: .cfa -24 + ^ x29: .cfa -32 + ^
STACK CFI 5bb08 .cfa: sp 32 +
STACK CFI 5bb10 .cfa: sp 0 +
STACK CFI INIT 5bc48 7c .cfa: sp 0 +
STACK CFI 5bc4c .cfa: sp 48 +
STACK CFI 5bc58 .cfa: x29 48 + x19: .cfa -8 + ^ x20: .cfa -16 + ^ x21: .cfa -24 + ^ x22: .cfa -32 + ^ .ra: .cfa -40 + ^ x29: .cfa -48 + ^
STACK CFI 5bc60 .cfa: sp 48 +
STACK CFI 5bc6c .cfa: sp 0 +
STACK CFI 5bc70 .cfa: x29 48 +
STACK CFI 5bcb4 .cfa: sp 48 +
STACK CFI 5bcc0 .cfa: sp 0 +
STACK CFI INIT 5bcc4 14 .cfa: sp 0 +
STACK CFI 5bcc8 .cfa: sp 16 +
STACK CFI 5bccc .cfa: x29 16 + .ra: .cfa -8 + ^ x29: .cfa -16 + ^
STACK CFI INIT 5bec8 94 .cfa: sp 0 +
STACK CFI 5becc .cfa: sp 32 +
STACK CFI 5bed4 .cfa: x29 32 + x19: .cfa -16 + ^ .ra: .cfa -24 + ^ x29: .cfa -32 + ^
STACK CFI 5bf00 .cfa: sp 32 +
STACK CFI 5bf08 .cfa: sp 0 +
STACK CFI 5bf0c .cfa: x29 32 +
STACK CFI 5bf50 .cfa: sp 32 +
STACK CFI 5bf58 .cfa: sp 0 +
STACK CFI INIT 5bf5c 14 .cfa: sp 0 +
STACK CFI INIT 5bf70 14 .cfa: sp 0 +
STACK CFI INIT 5c11c 4 .cfa: sp 0 +
STACK CFI INIT 5c120 40 .cfa: sp 0 +
STACK CFI 5c124 .cfa: sp 32 +
STACK CFI 5c12c .cfa: x29 32 + x19: .cfa -16 + ^ .ra: .cfa -24 + ^ x29: .cfa -32 + ^
STACK CFI 5c154 .cfa: sp 32 +
STACK CFI 5c15c .cfa: sp 0 +
STACK CFI INIT 5c160 20 .cfa: sp 0 +
STACK CFI INIT 5c180 4 .cfa: sp 0 +
STACK CFI INIT 5c184 4 .cfa: sp 0 +
STACK CFI INIT 5d078 1c .cfa: sp 0 +
STACK CFI INIT 5d094 c .cfa: sp 0 +
STACK CFI INIT 5d1d0 c0 .cfa: sp 0 +
STACK CFI 5d1d4 .cfa: sp 48 +
STACK CFI 5d1e0 .cfa: x29 48 + x19: .cfa -8 + ^ x20: .cfa -16 + ^ x21: .cfa -24 + ^ x22: .cfa -32 + ^ .ra: .cfa -40 + ^ x29: .cfa -48 + ^
STACK CFI 5d230 .cfa: sp 48 +
STACK CFI 5d23c .cfa: sp 0 +
STACK CFI 5d240 .cfa: x29 48 +
STACK CFI 5d270 .cfa: sp 48 +
STACK CFI 5d27c .cfa: sp 0 +
STACK CFI 5d280 .cfa: x29 48 +
STACK CFI INIT 5d290 30 .cfa: sp 0 +
STACK CFI 5d294 .cfa: sp 32 +
STACK CFI 5d29c .cfa: x29 32 + x19: .cfa -16 + ^ .ra: .cfa -24 + ^ x29: .cfa -32 + ^
STACK CFI 5d2b4 .cfa: sp 32 +
STACK CFI 5d2bc .cfa: sp 0 +
STACK CFI INIT 5d2c0 14 .cfa: sp 0 +
STACK CFI INIT 5d2d4 8 .cfa: sp 0 +
STACK CFI INIT 5d60c 214 .cfa: sp 0 +
STACK CFI 5d610 .cfa: sp 48 +
STACK CFI 5d61c .cfa: x29 48 + x19: .cfa -8 + ^ x20: .cfa -16 + ^ x21: .cfa -24 + ^ x22: .cfa -32 + ^ .ra: .cfa -40 + ^ x29: .cfa -48 + ^
STACK CFI 5d810 .cfa: sp 48 +
STACK CFI 5d81c .cfa: sp 0 +
STACK CFI INIT 5d820 14 .cfa: sp 0 +
STACK CFI 5d824 .cfa: sp 16 +
STACK CFI 5d828 .cfa: x29 16 + .ra: .cfa -8 + ^ x29: .cfa -16 + ^
STACK CFI INIT 5d834 1d0 .cfa: sp 0 +
STACK CFI 5d838 .cfa: sp 128 +
STACK CFI 5d848 .cfa: x29 48 + x19: .cfa -8 + ^ x20: .cfa -16 + ^ x21: .cfa -32 + ^ .ra: .cfa -40 + ^ x29: .cfa -48 + ^
STACK CFI 5d9ec .cfa: sp 128 +
STACK CFI 5d9fc .cfa: sp 0 +
STACK CFI 5da00 .cfa: x29 48 +
STACK CFI INIT 5da04 200 .cfa: sp 0 +
STACK CFI INIT 5e3a8 bc .cfa: sp 0 +
STACK CFI 5e3ac .cfa: sp 16 +
STACK CFI 5e3b0 .cfa: x29 16 + .ra: .cfa -8 + ^ x29: .cfa -16 + ^
STACK CFI 5e420 .cfa: sp 16 +
STACK CFI 5e424 .cfa: sp 0 +
STACK CFI 5e428 .cfa: x29 16 +
STACK CFI INIT 5e6b4 4 .cfa: sp 0 +
STACK CFI INIT 5e6b8 14 .cfa: sp 0 +
STACK CFI INIT 5ea08 3c .cfa: sp 0 +
STACK CFI 5ea0c .cfa: sp 32 +
STACK CFI 5ea14 .cfa: x29 32 + x19: .cfa -16 + ^ .ra: .cfa -24 + ^ x29: .cfa -32 + ^
STACK CFI 5ea28 .cfa: sp 32 +
STACK CFI 5ea30 .cfa: sp 0 +
STACK CFI 5ea34 .cfa: x29 32 +
STACK CFI 5ea38 .cfa: sp 32 +
STACK CFI 5ea40 .cfa: sp 0 +
STACK CFI INIT 5ea44 68 .cfa: sp 0 +
STACK CFI 5ea48 .cfa: sp 48 +
STACK CFI 5ea54 .cfa: x29 48 + x19: .cfa -8 + ^ x20: .cfa -16 + ^ x21: .cfa -32 + ^ .ra: .cfa -40 + ^ x29: .cfa -48 + ^
STACK CFI 5ea8c .cfa: sp 48 +
STACK CFI 5ea98 .cfa: sp 0 +
STACK CFI 5ea9c .cfa: sp 48 +
STACK CFI 5eaa8 .cfa: sp 0 +
STACK CFI INIT 5ec50 54 .cfa: sp 0 +
STACK CFI 5ec54 .cfa: sp 32 +
STACK CFI 5ec5c .cfa: x29 32 + x19: .cfa -8 + ^ x20: .cfa -16 + ^ .ra: .cfa -24 + ^ x29: .cfa -32 + ^
STACK CFI 5ec8c .cfa: sp 32 +
STACK CFI 5ec94 .cfa: sp 0 +
STACK CFI 5ec98 .cfa: sp 32 +
STACK CFI 5eca0 .cfa: sp 0 +
STACK CFI INIT 5eca4 14 .cfa: sp 0 +
STACK CFI 5eca8 .cfa: sp 16 +
STACK CFI 5ecac .cfa: x29 16 + .ra: .cfa -8 + ^ x29: .cfa -16 + ^
STACK CFI INIT 5ecb8 8 .cfa: sp 0 +
STACK CFI INIT 5ecc0 14 .cfa: sp 0 +
STACK CFI INIT 5ecd4 4 .cfa: sp 0 +
STACK CFI INIT 5ecd8 14 .cfa: sp 0 +
STACK CFI INIT 5ecec 4 .cfa: sp 0 +
STACK CFI INIT 5ecf0 38 .cfa: sp 0 +
STACK CFI 5ecf4 .cfa: sp 32 +
STACK CFI 5ecfc .cfa: x29 32 + x19: .cfa -16 + ^ .ra: .cfa -24 + ^ x29: .cfa -32 + ^
STACK CFI 5ed1c .cfa: sp 32 +
STACK CFI 5ed24 .cfa: sp 0 +
STACK CFI INIT 5ed28 18 .cfa: sp 0 +
STACK CFI INIT 5ed40 4 .cfa: sp 0 +
STACK CFI INIT 5ed44 4 .cfa: sp 0 +
STACK CFI INIT 5f648 1c .cfa: sp 0 +
STACK CFI INIT 5f664 c .cfa: sp 0 +
STACK CFI INIT 5f828 7c .cfa: sp 0 +
STACK CFI 5f82c .cfa: sp 48 +
STACK CFI 5f838 .cfa: x29 48 + x19: .cfa -8 + ^ x20: .cfa -16 + ^ x21: .cfa -24 + ^ x22: .cfa -32 + ^ .ra: .cfa -40 + ^ x29: .cfa -48 + ^
STACK CFI 5f840 .cfa: sp 48 +
STACK CFI 5f84c .cfa: sp 0 +
STACK CFI 5f850 .cfa: x29 48 +
STACK CFI 5f894 .cfa: sp 48 +
STACK CFI 5f8a0 .cfa: sp 0 +
STACK CFI INIT 5f8a4 4 .cfa: sp 0 +
STACK CFI INIT 5f8a8 14 .cfa: sp 0 +
STACK CFI INIT 5fa34 4 .cfa: sp 0 +
STACK CFI INIT 5fa38 14 .cfa: sp 0 +
STACK CFI INIT 5fa4c 4 .cfa: sp 0 +
STACK CFI INIT 5fa50 14 .cfa: sp 0 +
STACK CFI INIT 5fa64 158 .cfa: sp 0 +
STACK CFI 5fa68 .cfa: sp 128 +
STACK CFI 5fa78 .cfa: x29 48 + x19: .cfa -8 + ^ x20: .cfa -16 + ^ x21: .cfa -32 + ^ .ra: .cfa -40 + ^ x29: .cfa -48 + ^
STACK CFI 5fb50 .cfa: sp 128 +
STACK CFI 5fb60 .cfa: sp 0 +
STACK CFI 5fb64 .cfa: x29 48 +
STACK CFI INIT 5fbbc 4 .cfa: sp 0 +
STACK CFI INIT 5fbc0 38 .cfa: sp 0 +
STACK CFI 5fbc4 .cfa: sp 32 +
STACK CFI 5fbcc .cfa: x29 32 + x19: .cfa -16 + ^ .ra: .cfa -24 + ^ x29: .cfa -32 + ^
STACK CFI 5fbec .cfa: sp 32 +
STACK CFI 5fbf4 .cfa: sp 0 +
STACK CFI INIT 5fbf8 18 .cfa: sp 0 +
STACK CFI INIT 5fc10 4 .cfa: sp 0 +
STACK CFI INIT 5fc14 4 .cfa: sp 0 +
STACK CFI INIT 603e8 1c .cfa: sp 0 +
STACK CFI INIT 60404 c .cfa: sp 0 +
STACK CFI INIT 60410 4 .cfa: sp 0 +
STACK CFI INIT 60414 40 .cfa: sp 0 +
STACK CFI 60418 .cfa: sp 32 +
STACK CFI 60420 .cfa: x29 32 + x19: .cfa -16 + ^ .ra: .cfa -24 + ^ x29: .cfa -32 + ^
STACK CFI 60448 .cfa: sp 32 +
STACK CFI 60450 .cfa: sp 0 +
STACK CFI INIT 60454 20 .cfa: sp 0 +
STACK CFI INIT 60474 4 .cfa: sp 0 +
STACK CFI INIT 60478 4 .cfa: sp 0 +
STACK CFI INIT 6107c 1c .cfa: sp 0 +
STACK CFI INIT 61098 c .cfa: sp 0 +
STACK CFI INIT 610a4 c0 .cfa: sp 0 +
STACK CFI 610a8 .cfa: sp 48 +
STACK CFI 610b4 .cfa: x29 48 + x19: .cfa -8 + ^ x20: .cfa -16 + ^ x21: .cfa -32 + ^ .ra: .cfa -40 + ^ x29: .cfa -48 + ^
STACK CFI 61144 .cfa: sp 48 +
STACK CFI 61150 .cfa: sp 0 +
STACK CFI 61154 .cfa: sp 48 +
STACK CFI 61160 .cfa: sp 0 +
STACK CFI INIT 61164 ac .cfa: sp 0 +
STACK CFI 61168 .cfa: sp 64 +
STACK CFI 61178 .cfa: x29 64 + x19: .cfa -8 + ^ x20: .cfa -16 + ^ x21: .cfa -24 + ^ x22: .cfa -32 + ^ x23: .cfa -48 + ^ .ra: .cfa -56 + ^ x29: .cfa -64 + ^
STACK CFI 611f4 .cfa: sp 64 +
STACK CFI 61204 .cfa: sp 0 +
STACK CFI 61208 .cfa: x29 64 +
STACK CFI INIT 61210 110 .cfa: sp 0 +
STACK CFI 61214 .cfa: sp 64 +
STACK CFI 61224 .cfa: x29 64 + x19: .cfa -8 + ^ x20: .cfa -16 + ^ x21: .cfa -24 + ^ x22: .cfa -32 + ^ x23: .cfa -40 + ^ x24: .cfa -48 + ^ .ra: .cfa -56 + ^ x29: .cfa -64 + ^
STACK CFI 61304 .cfa: sp 64 +
STACK CFI 61314 .cfa: sp 0 +
STACK CFI 61318 .cfa: x29 64 +
STACK CFI INIT 61320 bc .cfa: sp 0 +
STACK CFI 61324 .cfa: sp 48 +
STACK CFI 61330 .cfa: x29 48 + x19: .cfa -8 + ^ x20: .cfa -16 + ^ x21: .cfa -32 + ^ .ra: .cfa -40 + ^ x29: .cfa -48 + ^
STACK CFI 61398 .cfa: sp 48 +
STACK CFI 613a4 .cfa: sp 0 +
STACK CFI 613a8 .cfa: x29 48 +
STACK CFI 613cc .cfa: sp 48 +
STACK CFI 613d8 .cfa: sp 0 +
STACK CFI INIT 613dc 4 .cfa: sp 0 +
STACK CFI INIT 613e0 4 .cfa: sp 0 +
STACK CFI INIT 613e4 38 .cfa: sp 0 +
STACK CFI 613e8 .cfa: sp 32 +
STACK CFI 613f0 .cfa: x29 32 + x19: .cfa -16 + ^ .ra: .cfa -24 + ^ x29: .cfa -32 + ^
STACK CFI 61410 .cfa: sp 32 +
STACK CFI 61418 .cfa: sp 0 +
STACK CFI INIT 6141c 18 .cfa: sp 0 +
STACK CFI INIT 61434 4 .cfa: sp 0 +
STACK CFI INIT 61438 4 .cfa: sp 0 +
STACK CFI INIT 62080 1c .cfa: sp 0 +
STACK CFI INIT 6209c c .cfa: sp 0 +
STACK CFI INIT 62fe0 4c .cfa: sp 0 +
STACK CFI INIT 6302c 5c .cfa: sp 0 +
STACK CFI 63030 .cfa: sp 32 +
STACK CFI 63038 .cfa: x29 32 + x19: .cfa -16 + ^ .ra: .cfa -24 + ^ x29: .cfa -32 + ^
STACK CFI 6307c .cfa: sp 32 +
STACK CFI 63084 .cfa: sp 0 +
STACK CFI INIT 63128 8c .cfa: sp 0 +
STACK CFI 6312c .cfa: sp 32 +
STACK CFI 63134 .cfa: x29 32 + x19: .cfa -8 + ^ x20: .cfa -16 + ^ .ra: .cfa -24 + ^ x29: .cfa -32 + ^
STACK CFI 631a8 .cfa: sp 32 +
STACK CFI 631b0 .cfa: sp 0 +
STACK CFI INIT 631b4 40 .cfa: sp 0 +
STACK CFI INIT 631f4 50 .cfa: sp 0 +
STACK CFI 631f8 .cfa: sp 32 +
STACK CFI 63200 .cfa: x29 32 + x19: .cfa -16 + ^ .ra: .cfa -24 + ^ x29: .cfa -32 + ^
STACK CFI 63238 .cfa: sp 32 +
STACK CFI 63240 .cfa: sp 0 +
STACK CFI INIT 63418 1c .cfa: sp 0 +
STACK CFI INIT 63434 c .cfa: sp 0 +
STACK CFI INIT 63440 4 .cfa: sp 0 +
STACK CFI INIT 63444 4 .cfa: sp 0 +
STACK CFI INIT 63448 34 .cfa: sp 0 +
STACK CFI 6344c .cfa: sp 32 +
STACK CFI 63454 .cfa: x29 32 + x19: .cfa -16 + ^ .ra: .cfa -24 + ^ x29: .cfa -32 + ^
STACK CFI 63470 .cfa: sp 32 +
STACK CFI 63478 .cfa: sp 0 +
STACK CFI INIT 6347c 14 .cfa: sp 0 +
STACK CFI INIT 63490 4 .cfa: sp 0 +
STACK CFI INIT 63494 4 .cfa: sp 0 +
STACK CFI INIT 63498 18 .cfa: sp 0 +
STACK CFI INIT 634b0 1c .cfa: sp 0 +
STACK CFI INIT 634cc c .cfa: sp 0 +
STACK CFI INIT 63958 1c .cfa: sp 0 +
STACK CFI INIT 63974 60 .cfa: sp 0 +
STACK CFI 63978 .cfa: sp 32 +
STACK CFI 63980 .cfa: x29 32 + x19: .cfa -16 + ^ .ra: .cfa -24 + ^ x29: .cfa -32 + ^
STACK CFI 639a4 .cfa: sp 32 +
STACK CFI 639ac .cfa: sp 0 +
STACK CFI 639b0 .cfa: x29 32 +
STACK CFI 639c8 .cfa: sp 32 +
STACK CFI 639d0 .cfa: sp 0 +
STACK CFI INIT 639d4 4c .cfa: sp 0 +
STACK CFI 639d8 .cfa: sp 32 +
STACK CFI 639e0 .cfa: x29 32 + x19: .cfa -16 + ^ .ra: .cfa -24 + ^ x29: .cfa -32 + ^
STACK CFI 63a08 .cfa: sp 32 +
STACK CFI 63a10 .cfa: sp 0 +
STACK CFI 63a14 .cfa: sp 32 +
STACK CFI 63a1c .cfa: sp 0 +
STACK CFI INIT 63a20 4 .cfa: sp 0 +
STACK CFI INIT 63a24 4 .cfa: sp 0 +
STACK CFI INIT 63a28 34 .cfa: sp 0 +
STACK CFI 63a2c .cfa: sp 32 +
STACK CFI 63a34 .cfa: x29 32 + x19: .cfa -16 + ^ .ra: .cfa -24 + ^ x29: .cfa -32 + ^
STACK CFI 63a50 .cfa: sp 32 +
STACK CFI 63a58 .cfa: sp 0 +
STACK CFI INIT 63a5c 14 .cfa: sp 0 +
STACK CFI INIT 63a70 4 .cfa: sp 0 +
STACK CFI INIT 63a74 4 .cfa: sp 0 +
STACK CFI INIT 63a78 8 .cfa: sp 0 +
STACK CFI INIT 63a80 1c .cfa: sp 0 +
STACK CFI INIT 63a9c c .cfa: sp 0 +
STACK CFI INIT 640b4 4 .cfa: sp 0 +
STACK CFI INIT 64ec4 50 .cfa: sp 0 +
STACK CFI 64ec8 .cfa: sp 32 +
STACK CFI 64ed0 .cfa: x29 32 + x19: .cfa -8 + ^ x20: .cfa -16 + ^ .ra: .cfa -24 + ^ x29: .cfa -32 + ^
STACK CFI 64f08 .cfa: sp 32 +
STACK CFI 64f10 .cfa: sp 0 +
STACK CFI INIT 64f14 70 .cfa: sp 0 +
STACK CFI 64f18 .cfa: sp 48 +
STACK CFI 64f24 .cfa: x29 48 + x19: .cfa -8 + ^ x20: .cfa -16 + ^ x21: .cfa -32 + ^ .ra: .cfa -40 + ^ x29: .cfa -48 + ^
STACK CFI 64f3c .cfa: sp 48 +
STACK CFI 64f48 .cfa: sp 0 +
STACK CFI 64f4c .cfa: x29 48 +
STACK CFI 64f74 .cfa: sp 48 +
STACK CFI 64f80 .cfa: sp 0 +
STACK CFI INIT 65150 50 .cfa: sp 0 +
STACK CFI 65154 .cfa: sp 32 +
STACK CFI 6515c .cfa: x29 32 + x19: .cfa -8 + ^ x20: .cfa -16 + ^ .ra: .cfa -24 + ^ x29: .cfa -32 + ^
STACK CFI 65194 .cfa: sp 32 +
STACK CFI 6519c .cfa: sp 0 +
STACK CFI INIT 651a0 e8 .cfa: sp 0 +
STACK CFI 651a4 .cfa: sp 32 +
STACK CFI 651ac .cfa: x29 32 + x19: .cfa -8 + ^ x20: .cfa -16 + ^ .ra: .cfa -24 + ^ x29: .cfa -32 + ^
STACK CFI 651ec .cfa: sp 32 +
STACK CFI 651f4 .cfa: sp 0 +
STACK CFI 651f8 .cfa: x29 32 +
STACK CFI 65234 .cfa: sp 32 +
STACK CFI 6523c .cfa: sp 0 +
STACK CFI 65240 .cfa: x29 32 +
STACK CFI 65260 .cfa: sp 32 +
STACK CFI 65268 .cfa: sp 0 +
STACK CFI 6526c .cfa: x29 32 +
STACK CFI 6527c .cfa: sp 32 +
STACK CFI 65284 .cfa: sp 0 +
STACK CFI INIT 65288 8 .cfa: sp 0 +
STACK CFI INIT 65290 14 .cfa: sp 0 +
STACK CFI INIT 673bc 3c .cfa: sp 0 +
STACK CFI 673c0 .cfa: sp 32 +
STACK CFI 673c8 .cfa: x29 32 + x19: .cfa -16 + ^ .ra: .cfa -24 + ^ x29: .cfa -32 + ^
STACK CFI 673d4 .cfa: sp 32 +
STACK CFI 673dc .cfa: sp 0 +
STACK CFI 673e0 .cfa: x29 32 +
STACK CFI 673ec .cfa: sp 32 +
STACK CFI 673f4 .cfa: sp 0 +
STACK CFI INIT 673f8 14 .cfa: sp 0 +
STACK CFI INIT 679a0 14 .cfa: sp 0 +
STACK CFI 679a4 .cfa: sp 16 +
STACK CFI 679a8 .cfa: x29 16 + .ra: .cfa -8 + ^ x29: .cfa -16 + ^
STACK CFI INIT 679b4 4 .cfa: sp 0 +
STACK CFI INIT 679b8 14 .cfa: sp 0 +
STACK CFI INIT 679cc 4 .cfa: sp 0 +
STACK CFI INIT 679d0 14 .cfa: sp 0 +
STACK CFI INIT 67a58 4 .cfa: sp 0 +
STACK CFI INIT 67a5c 14 .cfa: sp 0 +
STACK CFI INIT 67c4c e0 .cfa: sp 0 +
STACK CFI 67c50 .cfa: sp 64 +
STACK CFI 67c60 .cfa: x29 64 + x19: .cfa -8 + ^ x20: .cfa -16 + ^ x21: .cfa -24 + ^ x22: .cfa -32 + ^ x23: .cfa -40 + ^ x24: .cfa -48 + ^ .ra: .cfa -56 + ^ x29: .cfa -64 + ^
STACK CFI 67cf0 .cfa: sp 64 +
STACK CFI 67d00 .cfa: sp 0 +
STACK CFI 67d04 .cfa: x29 64 +
STACK CFI 67d10 .cfa: sp 64 +
STACK CFI 67d20 .cfa: sp 0 +
STACK CFI 67d24 .cfa: x29 64 +
STACK CFI INIT 67d2c 11c .cfa: sp 0 +
STACK CFI 67d30 .cfa: sp 64 +
STACK CFI 67d40 .cfa: x29 64 + x19: .cfa -8 + ^ x20: .cfa -16 + ^ x21: .cfa -24 + ^ x22: .cfa -32 + ^ x23: .cfa -40 + ^ x24: .cfa -48 + ^ .ra: .cfa -56 + ^ x29: .cfa -64 + ^
STACK CFI 67e18 .cfa: sp 64 +
STACK CFI 67e28 .cfa: sp 0 +
STACK CFI 67e2c .cfa: x29 64 +
STACK CFI INIT 69144 3c .cfa: sp 0 +
STACK CFI 69148 .cfa: sp 32 +
STACK CFI 69150 .cfa: x29 32 + x19: .cfa -16 + ^ .ra: .cfa -24 + ^ x29: .cfa -32 + ^
STACK CFI 69174 .cfa: sp 32 +
STACK CFI 6917c .cfa: sp 0 +
STACK CFI INIT 69a28 24 .cfa: sp 0 +
STACK CFI 69a2c .cfa: sp 32 +
STACK CFI 69a34 .cfa: x29 32 + x19: .cfa -16 + ^ .ra: .cfa -24 + ^ x29: .cfa -32 + ^
STACK CFI 69a40 .cfa: sp 32 +
STACK CFI 69a48 .cfa: sp 0 +
STACK CFI INIT 69a4c 8 .cfa: sp 0 +
STACK CFI INIT 69a54 28 .cfa: sp 0 +
STACK CFI 69a58 .cfa: sp 32 +
STACK CFI 69a60 .cfa: x29 32 + x19: .cfa -16 + ^ .ra: .cfa -24 + ^ x29: .cfa -32 + ^
STACK CFI 69a70 .cfa: sp 32 +
STACK CFI 69a78 .cfa: sp 0 +
STACK CFI INIT 69af0 14 .cfa: sp 0 +
STACK CFI 69af4 .cfa: sp 16 +
STACK CFI 69af8 .cfa: x29 16 + .ra: .cfa -8 + ^ x29: .cfa -16 + ^
STACK CFI INIT 69b04 50 .cfa: sp 0 +
STACK CFI 69b08 .cfa: sp 32 +
STACK CFI 69b10 .cfa: x29 32 + x19: .cfa -16 + ^ .ra: .cfa -24 + ^ x29: .cfa -32 + ^
STACK CFI 69b28 .cfa: sp 32 +
STACK CFI 69b30 .cfa: sp 0 +
STACK CFI 69b34 .cfa: x29 32 +
STACK CFI 69b48 .cfa: sp 32 +
STACK CFI 69b50 .cfa: sp 0 +
STACK CFI INIT 69b54 4 .cfa: sp 0 +
STACK CFI INIT 69b58 24 .cfa: sp 0 +
STACK CFI 69b5c .cfa: sp 16 +
STACK CFI 69b60 .cfa: x29 16 + .ra: .cfa -8 + ^ x29: .cfa -16 + ^
STACK CFI 69b74 .cfa: sp 16 +
STACK CFI 69b78 .cfa: sp 0 +
STACK CFI INIT 69b7c 10 .cfa: sp 0 +
STACK CFI INIT 69b8c 4 .cfa: sp 0 +
STACK CFI INIT 69b90 4 .cfa: sp 0 +
STACK CFI INIT 69d60 1c .cfa: sp 0 +
STACK CFI INIT 69d7c c .cfa: sp 0 +
STACK CFI INIT 69d88 4 .cfa: sp 0 +
STACK CFI INIT 69d8c 4 .cfa: sp 0 +
STACK CFI INIT 69d90 34 .cfa: sp 0 +
STACK CFI 69d94 .cfa: sp 32 +
STACK CFI 69d9c .cfa: x29 32 + x19: .cfa -16 + ^ .ra: .cfa -24 + ^ x29: .cfa -32 + ^
STACK CFI 69db8 .cfa: sp 32 +
STACK CFI 69dc0 .cfa: sp 0 +
STACK CFI INIT 69dc4 14 .cfa: sp 0 +
STACK CFI INIT 69dd8 4 .cfa: sp 0 +
STACK CFI INIT 69ddc 4 .cfa: sp 0 +
STACK CFI INIT 69fc8 1c .cfa: sp 0 +
STACK CFI INIT 69fe4 c .cfa: sp 0 +
STACK CFI INIT 704dc 94 .cfa: sp 0 +
STACK CFI 704e0 .cfa: sp 32 +
STACK CFI 704e8 .cfa: x29 32 + x19: .cfa -16 + ^ .ra: .cfa -24 + ^ x29: .cfa -32 + ^
STACK CFI 7053c .cfa: sp 32 +
STACK CFI 70544 .cfa: sp 0 +
STACK CFI 70548 .cfa: x29 32 +
STACK CFI 70558 .cfa: sp 32 +
STACK CFI 70560 .cfa: sp 0 +
STACK CFI 70564 .cfa: sp 32 +
STACK CFI 7056c .cfa: sp 0 +
STACK CFI INIT 70d38 94 .cfa: sp 0 +
STACK CFI 70d3c .cfa: sp 32 +
STACK CFI 70d44 .cfa: x29 32 + x19: .cfa -16 + ^ .ra: .cfa -24 + ^ x29: .cfa -32 + ^
STACK CFI 70db4 .cfa: sp 32 +
STACK CFI 70dbc .cfa: sp 0 +
STACK CFI 70dc0 .cfa: sp 32 +
STACK CFI 70dc8 .cfa: sp 0 +
STACK CFI INIT 717b0 34 .cfa: sp 0 +
STACK CFI 717b4 .cfa: sp 32 +
STACK CFI 717bc .cfa: x29 32 + x19: .cfa -16 + ^ .ra: .cfa -24 + ^ x29: .cfa -32 + ^
STACK CFI 717d8 .cfa: sp 32 +
STACK CFI 717e0 .cfa: sp 0 +
STACK CFI INIT 717e4 1b4 .cfa: sp 0 +
STACK CFI 717e8 .cfa: sp 48 +
STACK CFI 717f4 .cfa: x29 48 + x19: .cfa -8 + ^ x20: .cfa -16 + ^ x21: .cfa -24 + ^ x22: .cfa -32 + ^ .ra: .cfa -40 + ^ x29: .cfa -48 + ^
STACK CFI 71978 .cfa: sp 48 +
STACK CFI 71984 .cfa: sp 0 +
STACK CFI 71988 .cfa: sp 48 +
STACK CFI 71994 .cfa: sp 0 +
STACK CFI INIT 71998 4 .cfa: sp 0 +
STACK CFI INIT 7199c 34 .cfa: sp 0 +
STACK CFI 719a0 .cfa: sp 32 +
STACK CFI 719a8 .cfa: x29 32 + x19: .cfa -16 + ^ .ra: .cfa -24 + ^ x29: .cfa -32 + ^
STACK CFI 719c4 .cfa: sp 32 +
STACK CFI 719cc .cfa: sp 0 +
STACK CFI INIT 719d0 14 .cfa: sp 0 +
STACK CFI INIT 719e4 4 .cfa: sp 0 +
STACK CFI INIT 719e8 4 .cfa: sp 0 +
STACK CFI INIT 721b4 1c .cfa: sp 0 +
STACK CFI INIT 721d0 c .cfa: sp 0 +
STACK CFI INIT 721dc 4 .cfa: sp 0 +
STACK CFI INIT 721e0 38 .cfa: sp 0 +
STACK CFI 721e4 .cfa: sp 32 +
STACK CFI 721ec .cfa: x29 32 + x19: .cfa -16 + ^ .ra: .cfa -24 + ^ x29: .cfa -32 + ^
STACK CFI 7220c .cfa: sp 32 +
STACK CFI 72214 .cfa: sp 0 +
STACK CFI INIT 72218 18 .cfa: sp 0 +
STACK CFI INIT 72230 4 .cfa: sp 0 +
STACK CFI INIT 72234 4 .cfa: sp 0 +
STACK CFI INIT 72238 cc .cfa: sp 0 +
STACK CFI 7223c .cfa: sp 48 +
STACK CFI 72248 .cfa: x29 48 + x19: .cfa -8 + ^ x20: .cfa -16 + ^ x21: .cfa -24 + ^ x22: .cfa -32 + ^ .ra: .cfa -40 + ^ x29: .cfa -48 + ^
STACK CFI 722f4 .cfa: sp 48 +
STACK CFI 72300 .cfa: sp 0 +
STACK CFI INIT 72304 1c .cfa: sp 0 +
STACK CFI INIT 72320 c .cfa: sp 0 +
STACK CFI INIT 7232c 4 .cfa: sp 0 +
STACK CFI INIT 72330 4 .cfa: sp 0 +
STACK CFI INIT 72334 38 .cfa: sp 0 +
STACK CFI 72338 .cfa: sp 32 +
STACK CFI 72340 .cfa: x29 32 + x19: .cfa -16 + ^ .ra: .cfa -24 + ^ x29: .cfa -32 + ^
STACK CFI 72360 .cfa: sp 32 +
STACK CFI 72368 .cfa: sp 0 +
STACK CFI INIT 7236c 18 .cfa: sp 0 +
STACK CFI INIT 72384 4 .cfa: sp 0 +
STACK CFI INIT 72388 4 .cfa: sp 0 +
STACK CFI INIT 7238c 80 .cfa: sp 0 +
STACK CFI 72390 .cfa: sp 48 +
STACK CFI 7239c .cfa: x29 48 + x19: .cfa -8 + ^ x20: .cfa -16 + ^ x21: .cfa -32 + ^ .ra: .cfa -40 + ^ x29: .cfa -48 + ^
STACK CFI 723fc .cfa: sp 48 +
STACK CFI 72408 .cfa: sp 0 +
STACK CFI INIT 7240c 1c .cfa: sp 0 +
STACK CFI INIT 72428 c .cfa: sp 0 +
STACK CFI INIT 72434 4 .cfa: sp 0 +
STACK CFI INIT 72438 4 .cfa: sp 0 +
STACK CFI INIT 7243c 34 .cfa: sp 0 +
STACK CFI 72440 .cfa: sp 32 +
STACK CFI 72448 .cfa: x29 32 + x19: .cfa -16 + ^ .ra: .cfa -24 + ^ x29: .cfa -32 + ^
STACK CFI 72464 .cfa: sp 32 +
STACK CFI 7246c .cfa: sp 0 +
STACK CFI INIT 72470 14 .cfa: sp 0 +
STACK CFI INIT 72484 4 .cfa: sp 0 +
STACK CFI INIT 72488 4 .cfa: sp 0 +
STACK CFI INIT 726d4 1c .cfa: sp 0 +
STACK CFI INIT 726f0 c .cfa: sp 0 +
STACK CFI INIT 7285c 3c .cfa: sp 0 +
STACK CFI 72860 .cfa: sp 32 +
STACK CFI 72868 .cfa: x29 32 + x19: .cfa -16 + ^ .ra: .cfa -24 + ^ x29: .cfa -32 + ^
STACK CFI 72874 .cfa: sp 32 +
STACK CFI 7287c .cfa: sp 0 +
STACK CFI 72880 .cfa: x29 32 +
STACK CFI 7288c .cfa: sp 32 +
STACK CFI 72894 .cfa: sp 0 +
STACK CFI INIT 75cc0 94 .cfa: sp 0 +
STACK CFI 75cc4 .cfa: sp 32 +
STACK CFI 75ccc .cfa: x29 32 + x19: .cfa -16 + ^ .ra: .cfa -24 + ^ x29: .cfa -32 + ^
STACK CFI 75cf8 .cfa: sp 32 +
STACK CFI 75d00 .cfa: sp 0 +
STACK CFI 75d04 .cfa: x29 32 +
STACK CFI 75d48 .cfa: sp 32 +
STACK CFI 75d50 .cfa: sp 0 +
STACK CFI INIT 76f38 bc .cfa: sp 0 +
STACK CFI 76f3c .cfa: sp 48 +
STACK CFI 76f48 .cfa: x29 48 + x19: .cfa -8 + ^ x20: .cfa -16 + ^ x21: .cfa -32 + ^ .ra: .cfa -40 + ^ x29: .cfa -48 + ^
STACK CFI 76fb0 .cfa: sp 48 +
STACK CFI 76fbc .cfa: sp 0 +
STACK CFI 76fc0 .cfa: x29 48 +
STACK CFI 76fe4 .cfa: sp 48 +
STACK CFI 76ff0 .cfa: sp 0 +
STACK CFI INIT 76ff4 c0 .cfa: sp 0 +
STACK CFI 76ff8 .cfa: sp 48 +
STACK CFI 77004 .cfa: x29 48 + x19: .cfa -8 + ^ x20: .cfa -16 + ^ x21: .cfa -32 + ^ .ra: .cfa -40 + ^ x29: .cfa -48 + ^
STACK CFI 77094 .cfa: sp 48 +
STACK CFI 770a0 .cfa: sp 0 +
STACK CFI 770a4 .cfa: sp 48 +
STACK CFI 770b0 .cfa: sp 0 +
STACK CFI INIT 770b4 68 .cfa: sp 0 +
STACK CFI 770b8 .cfa: sp 48 +
STACK CFI 770c4 .cfa: x29 48 + x19: .cfa -8 + ^ x20: .cfa -16 + ^ x21: .cfa -32 + ^ .ra: .cfa -40 + ^ x29: .cfa -48 + ^
STACK CFI 770fc .cfa: sp 48 +
STACK CFI 77108 .cfa: sp 0 +
STACK CFI 7710c .cfa: sp 48 +
STACK CFI 77118 .cfa: sp 0 +
STACK CFI INIT 7711c 54 .cfa: sp 0 +
STACK CFI 77120 .cfa: sp 32 +
STACK CFI 77128 .cfa: x29 32 + x19: .cfa -8 + ^ x20: .cfa -16 + ^ .ra: .cfa -24 + ^ x29: .cfa -32 + ^
STACK CFI 77158 .cfa: sp 32 +
STACK CFI 77160 .cfa: sp 0 +
STACK CFI 77164 .cfa: sp 32 +
STACK CFI 7716c .cfa: sp 0 +
STACK CFI INIT 77610 68 .cfa: sp 0 +
STACK CFI 77614 .cfa: sp 32 +
STACK CFI 7761c .cfa: x29 32 + x19: .cfa -8 + ^ x20: .cfa -16 + ^ .ra: .cfa -24 + ^ x29: .cfa -32 + ^
STACK CFI 77634 .cfa: sp 32 +
STACK CFI 7763c .cfa: sp 0 +
STACK CFI 77640 .cfa: x29 32 +
STACK CFI 7766c .cfa: sp 32 +
STACK CFI 77674 .cfa: sp 0 +
STACK CFI INIT 77678 54 .cfa: sp 0 +
STACK CFI 7767c .cfa: sp 32 +
STACK CFI 77684 .cfa: x29 32 + x19: .cfa -8 + ^ x20: .cfa -16 + ^ .ra: .cfa -24 + ^ x29: .cfa -32 + ^
STACK CFI 776b4 .cfa: sp 32 +
STACK CFI 776bc .cfa: sp 0 +
STACK CFI 776c0 .cfa: sp 32 +
STACK CFI 776c8 .cfa: sp 0 +
STACK CFI INIT 7795c 54 .cfa: sp 0 +
STACK CFI 77960 .cfa: sp 32 +
STACK CFI 77968 .cfa: x29 32 + x19: .cfa -8 + ^ x20: .cfa -16 + ^ .ra: .cfa -24 + ^ x29: .cfa -32 + ^
STACK CFI 77998 .cfa: sp 32 +
STACK CFI 779a0 .cfa: sp 0 +
STACK CFI 779a4 .cfa: sp 32 +
STACK CFI 779ac .cfa: sp 0 +
STACK CFI INIT 779b0 14 .cfa: sp 0 +
STACK CFI 779b4 .cfa: sp 16 +
STACK CFI 779b8 .cfa: x29 16 + .ra: .cfa -8 + ^ x29: .cfa -16 + ^
STACK CFI INIT 779c4 7c .cfa: sp 0 +
STACK CFI 779c8 .cfa: sp 48 +
STACK CFI 779d4 .cfa: x29 48 + x19: .cfa -8 + ^ x20: .cfa -16 + ^ x21: .cfa -24 + ^ x22: .cfa -32 + ^ .ra: .cfa -40 + ^ x29: .cfa -48 + ^
STACK CFI 779dc .cfa: sp 48 +
STACK CFI 779e8 .cfa: sp 0 +
STACK CFI 779ec .cfa: x29 48 +
STACK CFI 77a30 .cfa: sp 48 +
STACK CFI 77a3c .cfa: sp 0 +
STACK CFI INIT 77a40 48 .cfa: sp 0 +
STACK CFI 77a48 .cfa: sp 32 +
STACK CFI 77a50 .cfa: x29 32 + x19: .cfa -16 + ^ .ra: .cfa -24 + ^ x29: .cfa -32 + ^
STACK CFI 77a78 .cfa: sp 32 +
STACK CFI 77a80 .cfa: sp 0 +
STACK CFI INIT 77a88 4c .cfa: sp 0 +
STACK CFI 77a8c .cfa: sp 32 +
STACK CFI 77a94 .cfa: x29 32 + x19: .cfa -8 + ^ x20: .cfa -16 + ^ .ra: .cfa -24 + ^ x29: .cfa -32 + ^
STACK CFI 77abc .cfa: sp 32 +
STACK CFI 77ac4 .cfa: sp 0 +
STACK CFI 77ac8 .cfa: sp 32 +
STACK CFI 77ad0 .cfa: sp 0 +
STACK CFI INIT 77cf4 64 .cfa: sp 0 +
STACK CFI 77cf8 .cfa: sp 32 +
STACK CFI 77d00 .cfa: x29 32 + x19: .cfa -16 + ^ .ra: .cfa -24 + ^ x29: .cfa -32 + ^
STACK CFI 77d2c .cfa: sp 32 +
STACK CFI 77d34 .cfa: sp 0 +
STACK CFI 77d38 .cfa: x29 32 +
STACK CFI 77d4c .cfa: sp 32 +
STACK CFI 77d54 .cfa: sp 0 +
STACK CFI INIT 77d58 24 .cfa: sp 0 +
STACK CFI 77d5c .cfa: sp 32 +
STACK CFI 77d64 .cfa: x29 32 + x19: .cfa -16 + ^ .ra: .cfa -24 + ^ x29: .cfa -32 + ^
STACK CFI 77d70 .cfa: sp 32 +
STACK CFI 77d78 .cfa: sp 0 +
STACK CFI INIT 77d7c 24 .cfa: sp 0 +
STACK CFI 77d80 .cfa: sp 32 +
STACK CFI 77d88 .cfa: x29 32 + x19: .cfa -16 + ^ .ra: .cfa -24 + ^ x29: .cfa -32 + ^
STACK CFI 77d94 .cfa: sp 32 +
STACK CFI 77d9c .cfa: sp 0 +
STACK CFI INIT 7800c 24 .cfa: sp 0 +
STACK CFI 78010 .cfa: sp 32 +
STACK CFI 78018 .cfa: x29 32 + x19: .cfa -16 + ^ .ra: .cfa -24 + ^ x29: .cfa -32 + ^
STACK CFI 78024 .cfa: sp 32 +
STACK CFI 7802c .cfa: sp 0 +
STACK CFI INIT 782b4 8 .cfa: sp 0 +
STACK CFI INIT 782bc 24 .cfa: sp 0 +
STACK CFI 782c0 .cfa: sp 32 +
STACK CFI 782c8 .cfa: x29 32 + x19: .cfa -16 + ^ .ra: .cfa -24 + ^ x29: .cfa -32 + ^
STACK CFI 782d4 .cfa: sp 32 +
STACK CFI 782dc .cfa: sp 0 +
STACK CFI INIT 782e0 28 .cfa: sp 0 +
STACK CFI 782e4 .cfa: sp 32 +
STACK CFI 782ec .cfa: x29 32 + x19: .cfa -16 + ^ .ra: .cfa -24 + ^ x29: .cfa -32 + ^
STACK CFI 782fc .cfa: sp 32 +
STACK CFI 78304 .cfa: sp 0 +
STACK CFI INIT 78894 8 .cfa: sp 0 +
STACK CFI INIT 7889c 24 .cfa: sp 0 +
STACK CFI 788a0 .cfa: sp 32 +
STACK CFI 788a8 .cfa: x29 32 + x19: .cfa -16 + ^ .ra: .cfa -24 + ^ x29: .cfa -32 + ^
STACK CFI 788b4 .cfa: sp 32 +
STACK CFI 788bc .cfa: sp 0 +
STACK CFI INIT 788c0 28 .cfa: sp 0 +
STACK CFI 788c4 .cfa: sp 32 +
STACK CFI 788cc .cfa: x29 32 + x19: .cfa -16 + ^ .ra: .cfa -24 + ^ x29: .cfa -32 + ^
STACK CFI 788dc .cfa: sp 32 +
STACK CFI 788e4 .cfa: sp 0 +
STACK CFI INIT 78b4c 8 .cfa: sp 0 +
STACK CFI INIT 78b54 24 .cfa: sp 0 +
STACK CFI 78b58 .cfa: sp 32 +
STACK CFI 78b60 .cfa: x29 32 + x19: .cfa -16 + ^ .ra: .cfa -24 + ^ x29: .cfa -32 + ^
STACK CFI 78b6c .cfa: sp 32 +
STACK CFI 78b74 .cfa: sp 0 +
STACK CFI INIT 78b78 28 .cfa: sp 0 +
STACK CFI 78b7c .cfa: sp 32 +
STACK CFI 78b84 .cfa: x29 32 + x19: .cfa -16 + ^ .ra: .cfa -24 + ^ x29: .cfa -32 + ^
STACK CFI 78b94 .cfa: sp 32 +
STACK CFI 78b9c .cfa: sp 0 +
STACK CFI INIT 78e00 24 .cfa: sp 0 +
STACK CFI 78e04 .cfa: sp 32 +
STACK CFI 78e0c .cfa: x29 32 + x19: .cfa -16 + ^ .ra: .cfa -24 + ^ x29: .cfa -32 + ^
STACK CFI 78e18 .cfa: sp 32 +
STACK CFI 78e20 .cfa: sp 0 +
STACK CFI INIT 79880 8 .cfa: sp 0 +
STACK CFI INIT 79888 24 .cfa: sp 0 +
STACK CFI 7988c .cfa: sp 32 +
STACK CFI 79894 .cfa: x29 32 + x19: .cfa -16 + ^ .ra: .cfa -24 + ^ x29: .cfa -32 + ^
STACK CFI 798a0 .cfa: sp 32 +
STACK CFI 798a8 .cfa: sp 0 +
STACK CFI INIT 798ac 28 .cfa: sp 0 +
STACK CFI 798b0 .cfa: sp 32 +
STACK CFI 798b8 .cfa: x29 32 + x19: .cfa -16 + ^ .ra: .cfa -24 + ^ x29: .cfa -32 + ^
STACK CFI 798c8 .cfa: sp 32 +
STACK CFI 798d0 .cfa: sp 0 +
STACK CFI INIT 7ba84 8 .cfa: sp 0 +
STACK CFI INIT 7ba8c 24 .cfa: sp 0 +
STACK CFI 7ba90 .cfa: sp 32 +
STACK CFI 7ba98 .cfa: x29 32 + x19: .cfa -16 + ^ .ra: .cfa -24 + ^ x29: .cfa -32 + ^
STACK CFI 7baa4 .cfa: sp 32 +
STACK CFI 7baac .cfa: sp 0 +
STACK CFI INIT 7bab0 28 .cfa: sp 0 +
STACK CFI 7bab4 .cfa: sp 32 +
STACK CFI 7babc .cfa: x29 32 + x19: .cfa -16 + ^ .ra: .cfa -24 + ^ x29: .cfa -32 + ^
STACK CFI 7bacc .cfa: sp 32 +
STACK CFI 7bad4 .cfa: sp 0 +
STACK CFI INIT 7c0f0 8 .cfa: sp 0 +
STACK CFI INIT 7c820 8 .cfa: sp 0 +
STACK CFI INIT 7cc58 8 .cfa: sp 0 +
STACK CFI INIT 7ceb4 4 .cfa: sp 0 +
STACK CFI INIT 7ceb8 8 .cfa: sp 0 +
STACK CFI INIT 7cec0 8 .cfa: sp 0 +
STACK CFI INIT 7cec8 4 .cfa: sp 0 +
STACK CFI INIT 7e0d4 8 .cfa: sp 0 +
STACK CFI INIT 7e0dc 24 .cfa: sp 0 +
STACK CFI 7e0e0 .cfa: sp 32 +
STACK CFI 7e0e8 .cfa: x29 32 + x19: .cfa -16 + ^ .ra: .cfa -24 + ^ x29: .cfa -32 + ^
STACK CFI 7e0f4 .cfa: sp 32 +
STACK CFI 7e0fc .cfa: sp 0 +
STACK CFI INIT 7e100 28 .cfa: sp 0 +
STACK CFI 7e104 .cfa: sp 32 +
STACK CFI 7e10c .cfa: x29 32 + x19: .cfa -16 + ^ .ra: .cfa -24 + ^ x29: .cfa -32 + ^
STACK CFI 7e11c .cfa: sp 32 +
STACK CFI 7e124 .cfa: sp 0 +
STACK CFI INIT 7f2b4 4 .cfa: sp 0 +
STACK CFI INIT 80458 4 .cfa: sp 0 +
STACK CFI INIT 8045c 14 .cfa: sp 0 +
STACK CFI INIT 8097c c .cfa: sp 0 +
STACK CFI INIT 80988 24c .cfa: sp 0 +
STACK CFI INIT 80bd4 a0 .cfa: sp 0 +
STACK CFI 80be0 .cfa: sp 32 +
STACK CFI 80c38 .cfa: sp 0 +
STACK CFI 80c3c .cfa: sp 32 +
STACK CFI 80c44 .cfa: sp 0 +
STACK CFI 80c48 .cfa: sp 32 +
STACK CFI 80c5c .cfa: sp 0 +
STACK CFI 80c60 .cfa: sp 32 +
STACK CFI 80c70 .cfa: sp 0 +
STACK CFI INIT 80c74 38 .cfa: sp 0 +
STACK CFI 80c80 .cfa: sp 32 +
STACK CFI 80ca8 .cfa: sp 0 +
STACK CFI INIT 80f40 7c .cfa: sp 0 +
STACK CFI 80f44 .cfa: sp 32 +
STACK CFI 80f4c .cfa: x29 32 + x19: .cfa -16 + ^ .ra: .cfa -24 + ^ x29: .cfa -32 + ^
STACK CFI 80f78 .cfa: sp 32 +
STACK CFI 80f80 .cfa: sp 0 +
STACK CFI 80f84 .cfa: x29 32 +
STACK CFI 80fb0 .cfa: sp 32 +
STACK CFI 80fb8 .cfa: sp 0 +
STACK CFI INIT 8100c 2c .cfa: sp 0 +
STACK CFI 81010 .cfa: sp 32 +
STACK CFI 81018 .cfa: x29 32 + x19: .cfa -16 + ^ .ra: .cfa -24 + ^ x29: .cfa -32 + ^
STACK CFI 8102c .cfa: sp 32 +
STACK CFI 81034 .cfa: sp 0 +
STACK CFI INIT 817f8 64 .cfa: sp 0 +
STACK CFI 817fc .cfa: sp 32 +
STACK CFI 81804 .cfa: x29 32 + x19: .cfa -16 + ^ .ra: .cfa -24 + ^ x29: .cfa -32 + ^
STACK CFI 81820 .cfa: sp 32 +
STACK CFI 81828 .cfa: sp 0 +
STACK CFI 8182c .cfa: x29 32 +
STACK CFI 81850 .cfa: sp 32 +
STACK CFI 81858 .cfa: sp 0 +
STACK CFI INIT 81998 570 .cfa: sp 0 +
STACK CFI 8199c .cfa: sp 176 +
STACK CFI 819b0 .cfa: x29 64 + x19: .cfa -8 + ^ x20: .cfa -16 + ^ x21: .cfa -24 + ^ x22: .cfa -32 + ^ x23: .cfa -40 + ^ x24: .cfa -48 + ^ .ra: .cfa -56 + ^ x29: .cfa -64 + ^
STACK CFI 81be0 .cfa: sp 176 +
STACK CFI 81bf4 .cfa: sp 0 +
STACK CFI 81bf8 .cfa: x29 64 +
STACK CFI 81c44 .cfa: sp 176 +
STACK CFI 81c58 .cfa: sp 0 +
STACK CFI 81c5c .cfa: x29 64 +
STACK CFI 81c94 .cfa: sp 176 +
STACK CFI 81ca8 .cfa: sp 0 +
STACK CFI 81cac .cfa: x29 64 +
STACK CFI 81cc4 .cfa: sp 176 +
STACK CFI 81cd8 .cfa: sp 0 +
STACK CFI 81cdc .cfa: x29 64 +
STACK CFI 81cfc .cfa: sp 176 +
STACK CFI 81d10 .cfa: sp 0 +
STACK CFI 81d14 .cfa: x29 64 +
STACK CFI 81d2c .cfa: sp 176 +
STACK CFI 81d40 .cfa: sp 0 +
STACK CFI 81d44 .cfa: x29 64 +
STACK CFI 81d58 .cfa: sp 176 +
STACK CFI 81d6c .cfa: sp 0 +
STACK CFI 81d70 .cfa: x29 64 +
STACK CFI 81d84 .cfa: sp 176 +
STACK CFI 81d98 .cfa: sp 0 +
STACK CFI 81d9c .cfa: x29 64 +
STACK CFI 81dac .cfa: sp 176 +
STACK CFI 81dc0 .cfa: sp 0 +
STACK CFI 81dc4 .cfa: x29 64 +
STACK CFI 81dd4 .cfa: sp 176 +
STACK CFI 81de8 .cfa: sp 0 +
STACK CFI 81dec .cfa: x29 64 +
STACK CFI 81e04 .cfa: sp 176 +
STACK CFI 81e18 .cfa: sp 0 +
STACK CFI 81e1c .cfa: x29 64 +
STACK CFI 81e30 .cfa: sp 176 +
STACK CFI 81e44 .cfa: sp 0 +
STACK CFI 81e48 .cfa: x29 64 +
STACK CFI 81e60 .cfa: sp 176 +
STACK CFI 81e74 .cfa: sp 0 +
STACK CFI 81e78 .cfa: x29 64 +
STACK CFI 81ea4 .cfa: sp 176 +
STACK CFI 81eb8 .cfa: sp 0 +
STACK CFI 81ebc .cfa: x29 64 +
STACK CFI 81ed0 .cfa: sp 176 +
STACK CFI 81ee4 .cfa: sp 0 +
STACK CFI 81ee8 .cfa: x29 64 +
STACK CFI INIT 81f08 228 .cfa: sp 0 +
STACK CFI INIT 82130 2dc .cfa: sp 0 +
STACK CFI INIT 8240c 53c .cfa: sp 0 +
STACK CFI INIT 82948 78 .cfa: sp 0 +
STACK CFI 8294c .cfa: sp 48 +
STACK CFI 82958 .cfa: x29 48 + x19: .cfa -8 + ^ x20: .cfa -16 + ^ x21: .cfa -24 + ^ x22: .cfa -32 + ^ .ra: .cfa -40 + ^ x29: .cfa -48 + ^
STACK CFI 829a0 .cfa: sp 48 +
STACK CFI 829ac .cfa: sp 0 +
STACK CFI 829b0 .cfa: sp 48 +
STACK CFI 829bc .cfa: sp 0 +
STACK CFI INIT 829c0 8c .cfa: sp 0 +
STACK CFI 829c4 .cfa: sp 32 +
STACK CFI 829cc .cfa: x29 32 + x19: .cfa -16 + ^ .ra: .cfa -24 + ^ x29: .cfa -32 + ^
STACK CFI 82a00 .cfa: sp 32 +
STACK CFI 82a08 .cfa: sp 0 +
STACK CFI 82a0c .cfa: x29 32 +
STACK CFI 82a40 .cfa: sp 32 +
STACK CFI 82a48 .cfa: sp 0 +
STACK CFI INIT 82a4c 24 .cfa: sp 0 +
STACK CFI 82a50 .cfa: sp 32 +
STACK CFI 82a58 .cfa: x29 32 + x19: .cfa -16 + ^ .ra: .cfa -24 + ^ x29: .cfa -32 + ^
STACK CFI 82a64 .cfa: sp 32 +
STACK CFI 82a6c .cfa: sp 0 +
STACK CFI INIT 82a70 150 .cfa: sp 0 +
STACK CFI 82a74 .cfa: sp 48 +
STACK CFI 82a80 .cfa: x29 48 + x19: .cfa -8 + ^ x20: .cfa -16 + ^ x21: .cfa -24 + ^ x22: .cfa -32 + ^ .ra: .cfa -40 + ^ x29: .cfa -48 + ^
STACK CFI 82bb0 .cfa: sp 48 +
STACK CFI 82bbc .cfa: sp 0 +
STACK CFI INIT 82bc0 68 .cfa: sp 0 +
STACK CFI 82bc4 .cfa: sp 64 +
STACK CFI 82bd0 .cfa: x29 32 + x19: .cfa -16 + ^ .ra: .cfa -24 + ^ x29: .cfa -32 + ^
STACK CFI 82c14 .cfa: sp 64 +
STACK CFI 82c20 .cfa: sp 0 +
STACK CFI 82c24 .cfa: x29 32 +
STACK CFI INIT 82c28 90 .cfa: sp 0 +
STACK CFI 82c2c .cfa: sp 32 +
STACK CFI 82c34 .cfa: x29 32 + x19: .cfa -8 + ^ x20: .cfa -16 + ^ .ra: .cfa -24 + ^ x29: .cfa -32 + ^
STACK CFI 82c60 .cfa: sp 32 +
STACK CFI 82c68 .cfa: sp 0 +
STACK CFI 82c6c .cfa: x29 32 +
STACK CFI 82cac .cfa: sp 32 +
STACK CFI 82cb4 .cfa: sp 0 +
STACK CFI INIT 82cb8 ec .cfa: sp 0 +
STACK CFI 82cbc .cfa: sp 112 +
STACK CFI 82ccc .cfa: x29 48 + x19: .cfa -8 + ^ x20: .cfa -16 + ^ x21: .cfa -32 + ^ .ra: .cfa -40 + ^ x29: .cfa -48 + ^
STACK CFI 82d8c .cfa: sp 112 +
STACK CFI 82d9c .cfa: sp 0 +
STACK CFI 82da0 .cfa: x29 48 +
STACK CFI INIT 82da4 ec .cfa: sp 0 +
STACK CFI 82da8 .cfa: sp 112 +
STACK CFI 82db8 .cfa: x29 48 + x19: .cfa -8 + ^ x20: .cfa -16 + ^ x21: .cfa -32 + ^ .ra: .cfa -40 + ^ x29: .cfa -48 + ^
STACK CFI 82e78 .cfa: sp 112 +
STACK CFI 82e88 .cfa: sp 0 +
STACK CFI 82e8c .cfa: x29 48 +
STACK CFI INIT 82e90 48 .cfa: sp 0 +
STACK CFI 82e94 .cfa: sp 32 +
STACK CFI 82e9c .cfa: x29 32 + x19: .cfa -8 + ^ x20: .cfa -16 + ^ .ra: .cfa -24 + ^ x29: .cfa -32 + ^
STACK CFI 82ec0 .cfa: sp 32 +
STACK CFI 82ec8 .cfa: sp 0 +
STACK CFI 82ecc .cfa: x29 32 +
STACK CFI INIT 82ed8 98 .cfa: sp 0 +
STACK CFI 82edc .cfa: sp 80 +
STACK CFI 82ee8 .cfa: x29 32 + x19: .cfa -16 + ^ .ra: .cfa -24 + ^ x29: .cfa -32 + ^
STACK CFI 82f5c .cfa: sp 80 +
STACK CFI 82f68 .cfa: sp 0 +
STACK CFI 82f6c .cfa: x29 32 +
STACK CFI INIT 82f70 260 .cfa: sp 0 +
STACK CFI 82f74 .cfa: sp 112 +
STACK CFI 82f8c .cfa: x29 80 + x19: .cfa -8 + ^ x20: .cfa -16 + ^ x21: .cfa -24 + ^ x22: .cfa -32 + ^ x23: .cfa -40 + ^ x24: .cfa -48 + ^ x25: .cfa -64 + ^ .ra: .cfa -72 + ^ x29: .cfa -80 + ^
STACK CFI 83170 .cfa: sp 112 +
STACK CFI 83188 .cfa: sp 0 +
STACK CFI 8318c .cfa: x29 80 +
STACK CFI INIT 831d0 150 .cfa: sp 0 +
STACK CFI 831d4 .cfa: sp 48 +
STACK CFI 831e0 .cfa: x29 48 + x19: .cfa -8 + ^ x20: .cfa -16 + ^ x21: .cfa -24 + ^ x22: .cfa -32 + ^ .ra: .cfa -40 + ^ x29: .cfa -48 + ^
STACK CFI 83310 .cfa: sp 48 +
STACK CFI 8331c .cfa: sp 0 +
STACK CFI INIT 83320 1e0 .cfa: sp 0 +
STACK CFI 83324 .cfa: sp 96 +
STACK CFI 83338 .cfa: x29 64 + x19: .cfa -8 + ^ x20: .cfa -16 + ^ x21: .cfa -24 + ^ x22: .cfa -32 + ^ x23: .cfa -40 + ^ x24: .cfa -48 + ^ .ra: .cfa -56 + ^ x29: .cfa -64 + ^
STACK CFI 834b8 .cfa: sp 96 +
STACK CFI 834cc .cfa: sp 0 +
STACK CFI 834d0 .cfa: x29 64 +
STACK CFI INIT 83500 284 .cfa: sp 0 +
STACK CFI 83504 .cfa: sp 112 +
STACK CFI 8351c .cfa: x29 80 + x19: .cfa -8 + ^ x20: .cfa -16 + ^ x21: .cfa -24 + ^ x22: .cfa -32 + ^ x23: .cfa -40 + ^ x24: .cfa -48 + ^ x25: .cfa -64 + ^ .ra: .cfa -72 + ^ x29: .cfa -80 + ^
STACK CFI 83724 .cfa: sp 112 +
STACK CFI 8373c .cfa: sp 0 +
STACK CFI 83740 .cfa: x29 80 +
STACK CFI INIT 83784 208 .cfa: sp 0 +
STACK CFI 83788 .cfa: sp 96 +
STACK CFI 8379c .cfa: x29 64 + x19: .cfa -8 + ^ x20: .cfa -16 + ^ x21: .cfa -24 + ^ x22: .cfa -32 + ^ x23: .cfa -40 + ^ x24: .cfa -48 + ^ .ra: .cfa -56 + ^ x29: .cfa -64 + ^
STACK CFI 83944 .cfa: sp 96 +
STACK CFI 83958 .cfa: sp 0 +
STACK CFI 8395c .cfa: x29 64 +
STACK CFI INIT 8398c 360 .cfa: sp 0 +
STACK CFI 83990 .cfa: sp 160 +
STACK CFI 839ac .cfa: x29 96 + x19: .cfa -8 + ^ x20: .cfa -16 + ^ x21: .cfa -24 + ^ x22: .cfa -32 + ^ x23: .cfa -40 + ^ x24: .cfa -48 + ^ x25: .cfa -56 + ^ x26: .cfa -64 + ^ x27: .cfa -72 + ^ x28: .cfa -80 + ^ .ra: .cfa -88 + ^ x29: .cfa -96 + ^
STACK CFI 83c78 .cfa: sp 160 +
STACK CFI 83c94 .cfa: sp 0 +
STACK CFI 83c98 .cfa: x29 96 +
STACK CFI INIT 83cec 314 .cfa: sp 0 +
STACK CFI 83cf0 .cfa: sp 144 +
STACK CFI 83d0c .cfa: x29 96 + x19: .cfa -8 + ^ x20: .cfa -16 + ^ x21: .cfa -24 + ^ x22: .cfa -32 + ^ x23: .cfa -40 + ^ x24: .cfa -48 + ^ x25: .cfa -56 + ^ x26: .cfa -64 + ^ x27: .cfa -72 + ^ x28: .cfa -80 + ^ .ra: .cfa -88 + ^ x29: .cfa -96 + ^
STACK CFI 83f88 .cfa: sp 144 +
STACK CFI 83fa4 .cfa: sp 0 +
STACK CFI 83fa8 .cfa: x29 96 +
STACK CFI INIT 84000 290 .cfa: sp 0 +
STACK CFI 84004 .cfa: sp 128 +
STACK CFI 8401c .cfa: x29 80 + x19: .cfa -8 + ^ x20: .cfa -16 + ^ x21: .cfa -24 + ^ x22: .cfa -32 + ^ x23: .cfa -40 + ^ x24: .cfa -48 + ^ x25: .cfa -56 + ^ x26: .cfa -64 + ^ .ra: .cfa -72 + ^ x29: .cfa -80 + ^
STACK CFI 84270 .cfa: sp 128 +
STACK CFI 84288 .cfa: sp 0 +
STACK CFI 8428c .cfa: x29 80 +
STACK CFI INIT 84290 ddc .cfa: sp 0 +
STACK CFI 84294 .cfa: sp 144 +
STACK CFI 842b0 .cfa: x29 96 + x19: .cfa -8 + ^ x20: .cfa -16 + ^ x21: .cfa -24 + ^ x22: .cfa -32 + ^ x23: .cfa -40 + ^ x24: .cfa -48 + ^ x25: .cfa -56 + ^ x26: .cfa -64 + ^ x27: .cfa -72 + ^ x28: .cfa -80 + ^ .ra: .cfa -88 + ^ x29: .cfa -96 + ^
STACK CFI 84f44 .cfa: sp 144 +
STACK CFI 84f60 .cfa: sp 0 +
STACK CFI 84f64 .cfa: x29 96 +
STACK CFI INIT 8506c 1d0 .cfa: sp 0 +
STACK CFI 85070 .cfa: sp 80 +
STACK CFI 85084 .cfa: x29 80 + x19: .cfa -8 + ^ x20: .cfa -16 + ^ x21: .cfa -24 + ^ x22: .cfa -32 + ^ x23: .cfa -40 + ^ x24: .cfa -48 + ^ x25: .cfa -64 + ^ .ra: .cfa -72 + ^ x29: .cfa -80 + ^
STACK CFI 85224 .cfa: sp 80 +
STACK CFI 85238 .cfa: sp 0 +
STACK CFI INIT 8523c 23c .cfa: sp 0 +
STACK CFI 85240 .cfa: sp 112 +
STACK CFI 85254 .cfa: x29 64 + x19: .cfa -8 + ^ x20: .cfa -16 + ^ x21: .cfa -24 + ^ x22: .cfa -32 + ^ x23: .cfa -40 + ^ x24: .cfa -48 + ^ .ra: .cfa -56 + ^ x29: .cfa -64 + ^
STACK CFI 85430 .cfa: sp 112 +
STACK CFI 85444 .cfa: sp 0 +
STACK CFI 85448 .cfa: x29 64 +
STACK CFI INIT 85478 30c .cfa: sp 0 +
STACK CFI 8547c .cfa: sp 80 +
STACK CFI 85490 .cfa: x29 64 + x19: .cfa -8 + ^ x20: .cfa -16 + ^ x21: .cfa -24 + ^ x22: .cfa -32 + ^ x23: .cfa -40 + ^ x24: .cfa -48 + ^ .ra: .cfa -56 + ^ x29: .cfa -64 + ^
STACK CFI 8560c .cfa: sp 80 +
STACK CFI 85620 .cfa: sp 0 +
STACK CFI 85624 .cfa: x29 64 +
STACK CFI INIT 85784 178 .cfa: sp 0 +
STACK CFI 85788 .cfa: sp 80 +
STACK CFI 8579c .cfa: x29 64 + x19: .cfa -8 + ^ x20: .cfa -16 + ^ x21: .cfa -24 + ^ x22: .cfa -32 + ^ x23: .cfa -40 + ^ x24: .cfa -48 + ^ .ra: .cfa -56 + ^ x29: .cfa -64 + ^
STACK CFI 858e0 .cfa: sp 80 +
STACK CFI 858f4 .cfa: sp 0 +
STACK CFI 858f8 .cfa: x29 64 +
STACK CFI INIT 858fc 178 .cfa: sp 0 +
STACK CFI 85900 .cfa: sp 80 +
STACK CFI 85914 .cfa: x29 64 + x19: .cfa -8 + ^ x20: .cfa -16 + ^ x21: .cfa -24 + ^ x22: .cfa -32 + ^ x23: .cfa -40 + ^ x24: .cfa -48 + ^ .ra: .cfa -56 + ^ x29: .cfa -64 + ^
STACK CFI 85a58 .cfa: sp 80 +
STACK CFI 85a6c .cfa: sp 0 +
STACK CFI 85a70 .cfa: x29 64 +
STACK CFI INIT 85a74 240 .cfa: sp 0 +
STACK CFI 85a78 .cfa: sp 96 +
STACK CFI 85a90 .cfa: x29 96 + x19: .cfa -8 + ^ x20: .cfa -16 + ^ x21: .cfa -24 + ^ x22: .cfa -32 + ^ x23: .cfa -40 + ^ x24: .cfa -48 + ^ x25: .cfa -56 + ^ x26: .cfa -64 + ^ x27: .cfa -72 + ^ x28: .cfa -80 + ^ .ra: .cfa -88 + ^ x29: .cfa -96 + ^
STACK CFI 85c98 .cfa: sp 96 +
STACK CFI 85cb0 .cfa: sp 0 +
STACK CFI INIT 86928 154 .cfa: sp 0 +
STACK CFI 8692c .cfa: sp 96 +
STACK CFI 86940 .cfa: x29 64 + x19: .cfa -8 + ^ x20: .cfa -16 + ^ x21: .cfa -24 + ^ x22: .cfa -32 + ^ x23: .cfa -48 + ^ .ra: .cfa -56 + ^ x29: .cfa -64 + ^
STACK CFI 86a20 .cfa: sp 96 +
STACK CFI 86a34 .cfa: sp 0 +
STACK CFI 86a38 .cfa: x29 64 +
STACK CFI INIT 86ce8 44 .cfa: sp 0 +
STACK CFI 86cec .cfa: sp 32 +
STACK CFI 86cf4 .cfa: x29 32 + x19: .cfa -16 + ^ .ra: .cfa -24 + ^ x29: .cfa -32 + ^
STACK CFI 86d10 .cfa: sp 32 +
STACK CFI 86d18 .cfa: sp 0 +
STACK CFI 86d1c .cfa: x29 32 +
STACK CFI 86d20 .cfa: sp 32 +
STACK CFI 86d28 .cfa: sp 0 +
STACK CFI INIT 86d2c 1d0 .cfa: sp 0 +
STACK CFI 86d30 .cfa: sp 64 +
STACK CFI 86d40 .cfa: x29 64 + x19: .cfa -8 + ^ x20: .cfa -16 + ^ x21: .cfa -24 + ^ x22: .cfa -32 + ^ x23: .cfa -40 + ^ x24: .cfa -48 + ^ .ra: .cfa -56 + ^ x29: .cfa -64 + ^
STACK CFI 86e00 .cfa: sp 64 +
STACK CFI 86e10 .cfa: sp 0 +
STACK CFI 86e14 .cfa: x29 64 +
STACK CFI INIT 86efc 17c .cfa: sp 0 +
STACK CFI INIT 87430 a0 .cfa: sp 0 +
STACK CFI 87434 .cfa: sp 48 +
STACK CFI 87440 .cfa: x29 48 + x19: .cfa -8 + ^ x20: .cfa -16 + ^ x21: .cfa -24 + ^ x22: .cfa -32 + ^ .ra: .cfa -40 + ^ x29: .cfa -48 + ^
STACK CFI 874ac .cfa: sp 48 +
STACK CFI 874b8 .cfa: sp 0 +
STACK CFI 874bc .cfa: sp 48 +
STACK CFI 874c8 .cfa: sp 0 +
STACK CFI 874cc .cfa: x29 48 +
STACK CFI INIT 88184 158 .cfa: sp 0 +
STACK CFI 88188 .cfa: sp 96 +
STACK CFI 8819c .cfa: x29 64 + x19: .cfa -8 + ^ x20: .cfa -16 + ^ x21: .cfa -24 + ^ x22: .cfa -32 + ^ x23: .cfa -48 + ^ .ra: .cfa -56 + ^ x29: .cfa -64 + ^
STACK CFI 88280 .cfa: sp 96 +
STACK CFI 88294 .cfa: sp 0 +
STACK CFI 88298 .cfa: x29 64 +
STACK CFI INIT 882dc 190 .cfa: sp 0 +
STACK CFI INIT 88f68 1dc .cfa: sp 0 +
STACK CFI 88f6c .cfa: sp 80 +
STACK CFI 88f80 .cfa: x29 80 + x19: .cfa -8 + ^ x20: .cfa -16 + ^ x21: .cfa -24 + ^ x22: .cfa -32 + ^ x23: .cfa -40 + ^ x24: .cfa -48 + ^ x25: .cfa -64 + ^ .ra: .cfa -72 + ^ x29: .cfa -80 + ^
STACK CFI 8912c .cfa: sp 80 +
STACK CFI 89140 .cfa: sp 0 +
STACK CFI INIT 8a574 124 .cfa: sp 0 +
STACK CFI 8a5a4 .cfa: sp 32 +
STACK CFI 8a5ac .cfa: x29 32 + x19: .cfa -8 + ^ x20: .cfa -16 + ^ .ra: .cfa -24 + ^ x29: .cfa -32 + ^
STACK CFI 8a68c .cfa: sp 32 +
STACK CFI 8a694 .cfa: sp 0 +
STACK CFI INIT 8adf4 320 .cfa: sp 0 +
STACK CFI 8adf8 .cfa: sp 64 +
STACK CFI 8ae08 .cfa: x29 64 + x19: .cfa -8 + ^ x20: .cfa -16 + ^ x21: .cfa -24 + ^ x22: .cfa -32 + ^ x23: .cfa -40 + ^ x24: .cfa -48 + ^ .ra: .cfa -56 + ^ x29: .cfa -64 + ^
STACK CFI 8ae84 .cfa: sp 64 +
STACK CFI 8ae94 .cfa: sp 0 +
STACK CFI 8ae98 .cfa: x29 64 +
STACK CFI 8b06c .cfa: sp 64 +
STACK CFI 8b07c .cfa: sp 0 +
STACK CFI 8b080 .cfa: x29 64 +
STACK CFI 8b090 .cfa: sp 64 +
STACK CFI 8b0a0 .cfa: sp 0 +
STACK CFI 8b0a4 .cfa: x29 64 +
STACK CFI INIT 8b114 a0 .cfa: sp 0 +
STACK CFI 8b118 .cfa: sp 48 +
STACK CFI 8b124 .cfa: x29 48 + x19: .cfa -8 + ^ x20: .cfa -16 + ^ x21: .cfa -24 + ^ x22: .cfa -32 + ^ .ra: .cfa -40 + ^ x29: .cfa -48 + ^
STACK CFI 8b190 .cfa: sp 48 +
STACK CFI 8b19c .cfa: sp 0 +
STACK CFI 8b1a0 .cfa: sp 48 +
STACK CFI 8b1ac .cfa: sp 0 +
STACK CFI 8b1b0 .cfa: x29 48 +
STACK CFI INIT 8c064 160 .cfa: sp 0 +
STACK CFI 8c068 .cfa: sp 64 +
STACK CFI 8c078 .cfa: x29 64 + x19: .cfa -8 + ^ x20: .cfa -16 + ^ x21: .cfa -24 + ^ x22: .cfa -32 + ^ x23: .cfa -48 + ^ .ra: .cfa -56 + ^ x29: .cfa -64 + ^
STACK CFI 8c170 .cfa: sp 64 +
STACK CFI 8c180 .cfa: sp 0 +
STACK CFI 8c184 .cfa: x29 64 +
STACK CFI INIT 8c1c4 214 .cfa: sp 0 +
STACK CFI 8c1c8 .cfa: sp 128 +
STACK CFI 8c1e4 .cfa: x29 96 + x19: .cfa -8 + ^ x20: .cfa -16 + ^ x21: .cfa -24 + ^ x22: .cfa -32 + ^ x23: .cfa -40 + ^ x24: .cfa -48 + ^ x25: .cfa -56 + ^ x26: .cfa -64 + ^ x27: .cfa -80 + ^ .ra: .cfa -88 + ^ x29: .cfa -96 + ^
STACK CFI 8c360 .cfa: sp 128 +
STACK CFI 8c37c .cfa: sp 0 +
STACK CFI 8c380 .cfa: x29 96 +
STACK CFI INIT 8e074 290 .cfa: sp 0 +
STACK CFI 8e078 .cfa: sp 16 +
STACK CFI 8e07c .cfa: x29 16 + .ra: .cfa -8 + ^ x29: .cfa -16 + ^
STACK CFI 8e108 .cfa: sp 16 +
STACK CFI 8e10c .cfa: sp 0 +
STACK CFI 8e110 .cfa: x29 16 +
STACK CFI 8e160 .cfa: sp 16 +
STACK CFI 8e164 .cfa: sp 0 +
STACK CFI 8e168 .cfa: x29 16 +
STACK CFI 8e2cc .cfa: sp 16 +
STACK CFI 8e2d0 .cfa: sp 0 +
STACK CFI 8e2d4 .cfa: x29 16 +
STACK CFI INIT 8e304 158 .cfa: sp 0 +
STACK CFI 8e308 .cfa: sp 112 +
STACK CFI 8e324 .cfa: x29 96 + x19: .cfa -8 + ^ x20: .cfa -16 + ^ x21: .cfa -24 + ^ x22: .cfa -32 + ^ x23: .cfa -40 + ^ x24: .cfa -48 + ^ x25: .cfa -56 + ^ x26: .cfa -64 + ^ x27: .cfa -72 + ^ x28: .cfa -80 + ^ .ra: .cfa -88 + ^ x29: .cfa -96 + ^
STACK CFI 8e40c .cfa: sp 112 +
STACK CFI 8e410 .cfa: x29 96 +
STACK CFI 8e418 .cfa: sp 112 +
STACK CFI 8e434 .cfa: sp 0 +
STACK CFI 8e438 .cfa: x29 96 +
STACK CFI 8e458 .cfa: sp 112 +
STACK CFI INIT 8e45c e54 .cfa: sp 0 +
STACK CFI 8e460 .cfa: sp 192 +
STACK CFI 8e47c .cfa: x29 96 + x19: .cfa -8 + ^ x20: .cfa -16 + ^ x21: .cfa -24 + ^ x22: .cfa -32 + ^ x23: .cfa -40 + ^ x24: .cfa -48 + ^ x25: .cfa -56 + ^ x26: .cfa -64 + ^ x27: .cfa -72 + ^ x28: .cfa -80 + ^ .ra: .cfa -88 + ^ x29: .cfa -96 + ^
STACK CFI 8f198 .cfa: sp 192 +
STACK CFI 8f1b4 .cfa: sp 0 +
STACK CFI 8f1b8 .cfa: x29 96 +
STACK CFI INIT 8f2b0 1068 .cfa: sp 0 +
STACK CFI 8f2b4 .cfa: sp 288 +
STACK CFI 8f2d0 .cfa: x29 96 + x19: .cfa -8 + ^ x20: .cfa -16 + ^ x21: .cfa -24 + ^ x22: .cfa -32 + ^ x23: .cfa -40 + ^ x24: .cfa -48 + ^ x25: .cfa -56 + ^ x26: .cfa -64 + ^ x27: .cfa -72 + ^ x28: .cfa -80 + ^ .ra: .cfa -88 + ^ x29: .cfa -96 + ^
STACK CFI 90060 .cfa: sp 288 +
STACK CFI 9007c .cfa: sp 0 +
STACK CFI 90080 .cfa: x29 96 +
STACK CFI INIT 90318 520 .cfa: sp 0 +
STACK CFI 9031c .cfa: sp 144 +
STACK CFI 90338 .cfa: x29 96 + x19: .cfa -8 + ^ x20: .cfa -16 + ^ x21: .cfa -24 + ^ x22: .cfa -32 + ^ x23: .cfa -40 + ^ x24: .cfa -48 + ^ x25: .cfa -56 + ^ x26: .cfa -64 + ^ x27: .cfa -72 + ^ x28: .cfa -80 + ^ .ra: .cfa -88 + ^ x29: .cfa -96 + ^
STACK CFI 90814 .cfa: sp 144 +
STACK CFI 90830 .cfa: sp 0 +
STACK CFI 90834 .cfa: x29 96 +
STACK CFI INIT 911d8 136c .cfa: sp 0 +
STACK CFI 911dc .cfa: sp 224 +
STACK CFI 911f8 .cfa: x29 96 + x19: .cfa -8 + ^ x20: .cfa -16 + ^ x21: .cfa -24 + ^ x22: .cfa -32 + ^ x23: .cfa -40 + ^ x24: .cfa -48 + ^ x25: .cfa -56 + ^ x26: .cfa -64 + ^ x27: .cfa -72 + ^ x28: .cfa -80 + ^ .ra: .cfa -88 + ^ x29: .cfa -96 + ^
STACK CFI 92520 .cfa: sp 224 +
STACK CFI 9253c .cfa: sp 0 +
STACK CFI 92540 .cfa: x29 96 +
STACK CFI INIT 92544 1b8 .cfa: sp 0 +
STACK CFI INIT 42214 144 .cfa: sp 0 +
STACK CFI 42218 .cfa: sp 32 +
STACK CFI 42220 .cfa: x29 32 + x19: .cfa -8 + ^ x20: .cfa -16 + ^ .ra: .cfa -24 + ^ x29: .cfa -32 + ^
STACK CFI 42314 .cfa: sp 32 +
STACK CFI 4231c .cfa: sp 0 +
STACK CFI 42320 .cfa: x29 32 +
STACK CFI 42338 .cfa: sp 32 +
STACK CFI 42340 .cfa: sp 0 +
STACK CFI 42344 .cfa: x29 32 +
STACK CFI INIT 42358 51c .cfa: sp 0 +
STACK CFI 4235c .cfa: sp 160 +
STACK CFI 42370 .cfa: x29 48 + x19: .cfa -8 + ^ x20: .cfa -16 + ^ x21: .cfa -24 + ^ x22: .cfa -32 + ^ .ra: .cfa -40 + ^ x29: .cfa -48 + ^ v8: .cfa -64 + ^
STACK CFI 42814 .cfa: sp 160 +
STACK CFI 42828 .cfa: sp 0 +
STACK CFI 4282c .cfa: x29 48 +
STACK CFI INIT 42d10 198 .cfa: sp 0 +
STACK CFI 42d14 .cfa: sp 96 +
STACK CFI 42d24 .cfa: x29 48 + x19: .cfa -8 + ^ x20: .cfa -16 + ^ x21: .cfa -32 + ^ .ra: .cfa -40 + ^ x29: .cfa -48 + ^
STACK CFI 42e00 .cfa: sp 96 +
STACK CFI 42e10 .cfa: sp 0 +
STACK CFI 42e14 .cfa: x29 48 +
STACK CFI INIT 42f00 e8 .cfa: sp 0 +
STACK CFI 42f04 .cfa: sp 384 +
STACK CFI 42f14 .cfa: x29 48 + x19: .cfa -8 + ^ x20: .cfa -16 + ^ x28: .cfa -32 + ^ .ra: .cfa -40 + ^ x29: .cfa -48 + ^
STACK CFI 42fa4 .cfa: sp 384 +
STACK CFI 42fb4 .cfa: sp 0 +
STACK CFI 42fb8 .cfa: x29 48 +
STACK CFI INIT 42fe8 128 .cfa: sp 0 +
STACK CFI 42fec .cfa: sp 96 +
STACK CFI 43000 .cfa: x29 64 + x19: .cfa -8 + ^ x20: .cfa -16 + ^ x21: .cfa -24 + ^ x22: .cfa -32 + ^ x23: .cfa -40 + ^ x24: .cfa -48 + ^ .ra: .cfa -56 + ^ x29: .cfa -64 + ^
STACK CFI 430cc .cfa: sp 96 +
STACK CFI 430e0 .cfa: sp 0 +
STACK CFI 430e4 .cfa: x29 64 +
STACK CFI INIT 43118 ec .cfa: sp 0 +
STACK CFI 4311c .cfa: sp 160 +
STACK CFI 43128 .cfa: x29 32 + x19: .cfa -8 + ^ x20: .cfa -16 + ^ .ra: .cfa -24 + ^ x29: .cfa -32 + ^
STACK CFI 431c4 .cfa: sp 160 +
STACK CFI 431d0 .cfa: sp 0 +
STACK CFI 431d4 .cfa: x29 32 +
STACK CFI INIT 43204 128 .cfa: sp 0 +
STACK CFI 43208 .cfa: sp 96 +
STACK CFI 4321c .cfa: x29 64 + x19: .cfa -8 + ^ x20: .cfa -16 + ^ x21: .cfa -24 + ^ x22: .cfa -32 + ^ x23: .cfa -40 + ^ x24: .cfa -48 + ^ .ra: .cfa -56 + ^ x29: .cfa -64 + ^
STACK CFI 432e8 .cfa: sp 96 +
STACK CFI 432fc .cfa: sp 0 +
STACK CFI 43300 .cfa: x29 64 +
STACK CFI INIT 43334 e4 .cfa: sp 0 +
STACK CFI 43338 .cfa: sp 112 +
STACK CFI 43344 .cfa: x29 32 + x19: .cfa -8 + ^ x20: .cfa -16 + ^ .ra: .cfa -24 + ^ x29: .cfa -32 + ^
STACK CFI 433d8 .cfa: sp 112 +
STACK CFI 433e4 .cfa: sp 0 +
STACK CFI 433e8 .cfa: x29 32 +
STACK CFI INIT 43418 11c .cfa: sp 0 +
STACK CFI 4341c .cfa: sp 96 +
STACK CFI 43430 .cfa: x29 64 + x19: .cfa -8 + ^ x20: .cfa -16 + ^ x21: .cfa -24 + ^ x22: .cfa -32 + ^ x23: .cfa -40 + ^ x24: .cfa -48 + ^ .ra: .cfa -56 + ^ x29: .cfa -64 + ^
STACK CFI 434f0 .cfa: sp 96 +
STACK CFI 43504 .cfa: sp 0 +
STACK CFI 43508 .cfa: x29 64 +
STACK CFI INIT 4353c e4 .cfa: sp 0 +
STACK CFI 43540 .cfa: sp 112 +
STACK CFI 4354c .cfa: x29 32 + x19: .cfa -8 + ^ x20: .cfa -16 + ^ .ra: .cfa -24 + ^ x29: .cfa -32 + ^
STACK CFI 435e0 .cfa: sp 112 +
STACK CFI 435ec .cfa: sp 0 +
STACK CFI 435f0 .cfa: x29 32 +
STACK CFI INIT 43620 11c .cfa: sp 0 +
STACK CFI 43624 .cfa: sp 96 +
STACK CFI 43638 .cfa: x29 64 + x19: .cfa -8 + ^ x20: .cfa -16 + ^ x21: .cfa -24 + ^ x22: .cfa -32 + ^ x23: .cfa -40 + ^ x24: .cfa -48 + ^ .ra: .cfa -56 + ^ x29: .cfa -64 + ^
STACK CFI 436f8 .cfa: sp 96 +
STACK CFI 4370c .cfa: sp 0 +
STACK CFI 43710 .cfa: x29 64 +
STACK CFI INIT 43744 120 .cfa: sp 0 +
STACK CFI 43748 .cfa: sp 32 +
STACK CFI 43750 .cfa: x29 32 + x19: .cfa -8 + ^ x20: .cfa -16 + ^ .ra: .cfa -24 + ^ x29: .cfa -32 + ^
STACK CFI 43820 .cfa: sp 32 +
STACK CFI 43828 .cfa: sp 0 +
STACK CFI 4382c .cfa: x29 32 +
STACK CFI 43844 .cfa: sp 32 +
STACK CFI 4384c .cfa: sp 0 +
STACK CFI 43850 .cfa: x29 32 +
STACK CFI INIT 43864 8c4 .cfa: sp 0 +
STACK CFI 43868 .cfa: sp 224 +
STACK CFI 43884 .cfa: x29 96 + x19: .cfa -8 + ^ x20: .cfa -16 + ^ x21: .cfa -24 + ^ x22: .cfa -32 + ^ x23: .cfa -40 + ^ x24: .cfa -48 + ^ x25: .cfa -56 + ^ x26: .cfa -64 + ^ x27: .cfa -72 + ^ x28: .cfa -80 + ^ .ra: .cfa -88 + ^ x29: .cfa -96 + ^
STACK CFI 4409c .cfa: sp 224 +
STACK CFI 440b8 .cfa: sp 0 +
STACK CFI 440bc .cfa: x29 96 +
STACK CFI INIT 44128 170 .cfa: sp 0 +
STACK CFI 4412c .cfa: sp 96 +
STACK CFI 44144 .cfa: x29 80 + x19: .cfa -8 + ^ x20: .cfa -16 + ^ x21: .cfa -24 + ^ x22: .cfa -32 + ^ x23: .cfa -40 + ^ x24: .cfa -48 + ^ x25: .cfa -64 + ^ .ra: .cfa -72 + ^ x29: .cfa -80 + ^
STACK CFI 44238 .cfa: sp 96 +
STACK CFI 44250 .cfa: sp 0 +
STACK CFI 44254 .cfa: x29 80 +
STACK CFI INIT 44320 1c .cfa: sp 0 +
STACK CFI 44324 .cfa: sp 16 +
STACK CFI 44328 .cfa: x29 16 + .ra: .cfa -8 + ^ x29: .cfa -16 + ^
STACK CFI 44330 .cfa: sp 16 +
STACK CFI 44334 .cfa: sp 0 +
STACK CFI 44338 .cfa: x29 16 +
STACK CFI INIT 4470c 50 .cfa: sp 0 +
STACK CFI 44710 .cfa: sp 32 +
STACK CFI 44718 .cfa: x29 32 + x19: .cfa -8 + ^ x20: .cfa -16 + ^ .ra: .cfa -24 + ^ x29: .cfa -32 + ^
STACK CFI INIT 4510c 50 .cfa: sp 0 +
STACK CFI 45110 .cfa: sp 32 +
STACK CFI 45118 .cfa: x29 32 + x19: .cfa -8 + ^ x20: .cfa -16 + ^ .ra: .cfa -24 + ^ x29: .cfa -32 + ^
STACK CFI INIT 45218 120 .cfa: sp 0 +
STACK CFI 4521c .cfa: sp 32 +
STACK CFI 45224 .cfa: x29 32 + x19: .cfa -8 + ^ x20: .cfa -16 + ^ .ra: .cfa -24 + ^ x29: .cfa -32 + ^
STACK CFI 452f4 .cfa: sp 32 +
STACK CFI 452fc .cfa: sp 0 +
STACK CFI 45300 .cfa: x29 32 +
STACK CFI 45318 .cfa: sp 32 +
STACK CFI 45320 .cfa: sp 0 +
STACK CFI 45324 .cfa: x29 32 +
STACK CFI INIT 45338 9b4 .cfa: sp 0 +
STACK CFI 4533c .cfa: sp 96 +
STACK CFI 45354 .cfa: x29 96 + x19: .cfa -8 + ^ x20: .cfa -16 + ^ x21: .cfa -24 + ^ x22: .cfa -32 + ^ x23: .cfa -40 + ^ x24: .cfa -48 + ^ x25: .cfa -56 + ^ x26: .cfa -64 + ^ x27: .cfa -72 + ^ x28: .cfa -80 + ^ .ra: .cfa -88 + ^ x29: .cfa -96 + ^
STACK CFI 45c00 .cfa: sp 96 +
STACK CFI 45c18 .cfa: sp 0 +
STACK CFI 45c1c .cfa: x29 96 +
STACK CFI INIT 45cec 6d8 .cfa: sp 0 +
STACK CFI 45cf0 .cfa: sp 80 +
STACK CFI 45d04 .cfa: x29 80 + x19: .cfa -8 + ^ x20: .cfa -16 + ^ x21: .cfa -24 + ^ x22: .cfa -32 + ^ x23: .cfa -40 + ^ x24: .cfa -48 + ^ x25: .cfa -56 + ^ x28: .cfa -64 + ^ .ra: .cfa -72 + ^ x29: .cfa -80 + ^
STACK CFI 46310 .cfa: sp 80 +
STACK CFI 46324 .cfa: sp 0 +
STACK CFI 46328 .cfa: x29 80 +
STACK CFI INIT 463c4 6d8 .cfa: sp 0 +
STACK CFI 463c8 .cfa: sp 80 +
STACK CFI 463dc .cfa: x29 80 + x19: .cfa -8 + ^ x20: .cfa -16 + ^ x21: .cfa -24 + ^ x22: .cfa -32 + ^ x23: .cfa -40 + ^ x24: .cfa -48 + ^ x25: .cfa -56 + ^ x28: .cfa -64 + ^ .ra: .cfa -72 + ^ x29: .cfa -80 + ^
STACK CFI 469e8 .cfa: sp 80 +
STACK CFI 469fc .cfa: sp 0 +
STACK CFI 46a00 .cfa: x29 80 +
STACK CFI INIT 46a9c 494 .cfa: sp 0 +
STACK CFI 46aa0 .cfa: sp 144 +
STACK CFI 46ab0 .cfa: x29 48 + x19: .cfa -8 + ^ x20: .cfa -16 + ^ x21: .cfa -32 + ^ .ra: .cfa -40 + ^ x29: .cfa -48 + ^
STACK CFI 46e90 .cfa: sp 144 +
STACK CFI 46ea0 .cfa: sp 0 +
STACK CFI 46ea4 .cfa: x29 48 +
STACK CFI INIT 47900 110 .cfa: sp 0 +
STACK CFI 47904 .cfa: sp 32 +
STACK CFI 4790c .cfa: x29 32 + x19: .cfa -8 + ^ x20: .cfa -16 + ^ .ra: .cfa -24 + ^ x29: .cfa -32 + ^
STACK CFI 479cc .cfa: sp 32 +
STACK CFI 479d4 .cfa: sp 0 +
STACK CFI 479d8 .cfa: x29 32 +
STACK CFI 479f0 .cfa: sp 32 +
STACK CFI 479f8 .cfa: sp 0 +
STACK CFI 479fc .cfa: x29 32 +
STACK CFI INIT 47a10 75c .cfa: sp 0 +
STACK CFI 47a14 .cfa: sp 96 +
STACK CFI 47a2c .cfa: x29 96 + x19: .cfa -8 + ^ x20: .cfa -16 + ^ x21: .cfa -24 + ^ x22: .cfa -32 + ^ x23: .cfa -40 + ^ x24: .cfa -48 + ^ x25: .cfa -56 + ^ x26: .cfa -64 + ^ x27: .cfa -72 + ^ x28: .cfa -80 + ^ .ra: .cfa -88 + ^ x29: .cfa -96 + ^
STACK CFI 47fd8 .cfa: sp 96 +
STACK CFI 47ff0 .cfa: sp 0 +
STACK CFI 47ff4 .cfa: x29 96 +
STACK CFI INIT 4816c 284 .cfa: sp 0 +
STACK CFI 48170 .cfa: sp 448 +
STACK CFI 4818c .cfa: x29 96 + x19: .cfa -8 + ^ x20: .cfa -16 + ^ x21: .cfa -24 + ^ x22: .cfa -32 + ^ x23: .cfa -40 + ^ x24: .cfa -48 + ^ x25: .cfa -56 + ^ x26: .cfa -64 + ^ x28: .cfa -80 + ^ .ra: .cfa -88 + ^ x29: .cfa -96 + ^
STACK CFI 48350 .cfa: sp 448 +
STACK CFI 4836c .cfa: sp 0 +
STACK CFI 48370 .cfa: x29 96 +
STACK CFI INIT 483f0 118 .cfa: sp 0 +
STACK CFI 483f4 .cfa: sp 80 +
STACK CFI 48404 .cfa: x29 48 + x19: .cfa -8 + ^ x20: .cfa -16 + ^ x21: .cfa -24 + ^ x22: .cfa -32 + ^ .ra: .cfa -40 + ^ x29: .cfa -48 + ^
STACK CFI 484ec .cfa: sp 80 +
STACK CFI 484fc .cfa: sp 0 +
STACK CFI 48500 .cfa: x29 48 +
STACK CFI INIT 48508 418 .cfa: sp 0 +
STACK CFI 4850c .cfa: sp 128 +
STACK CFI 48528 .cfa: x29 96 + x19: .cfa -8 + ^ x20: .cfa -16 + ^ x21: .cfa -24 + ^ x22: .cfa -32 + ^ x23: .cfa -40 + ^ x24: .cfa -48 + ^ x25: .cfa -56 + ^ x26: .cfa -64 + ^ x27: .cfa -72 + ^ x28: .cfa -80 + ^ .ra: .cfa -88 + ^ x29: .cfa -96 + ^
STACK CFI 48840 .cfa: sp 128 +
STACK CFI 4885c .cfa: sp 0 +
STACK CFI 48860 .cfa: x29 96 +
STACK CFI INIT 48920 7e0 .cfa: sp 0 +
STACK CFI 48924 .cfa: sp 96 +
STACK CFI 4893c .cfa: x29 96 + x19: .cfa -8 + ^ x20: .cfa -16 + ^ x21: .cfa -24 + ^ x22: .cfa -32 + ^ x23: .cfa -40 + ^ x24: .cfa -48 + ^ x25: .cfa -56 + ^ x26: .cfa -64 + ^ x27: .cfa -72 + ^ x28: .cfa -80 + ^ .ra: .cfa -88 + ^ x29: .cfa -96 + ^
STACK CFI 48f40 .cfa: sp 96 +
STACK CFI 48f58 .cfa: sp 0 +
STACK CFI 48f5c .cfa: x29 96 +
STACK CFI INIT 49100 1c .cfa: sp 0 +
STACK CFI 49104 .cfa: sp 16 +
STACK CFI 49108 .cfa: x29 16 + .ra: .cfa -8 + ^ x29: .cfa -16 + ^
STACK CFI 49110 .cfa: sp 16 +
STACK CFI 49114 .cfa: sp 0 +
STACK CFI 49118 .cfa: x29 16 +
STACK CFI INIT 49254 1d4 .cfa: sp 0 +
STACK CFI 49258 .cfa: sp 112 +
STACK CFI 49270 .cfa: x29 80 + x19: .cfa -8 + ^ x20: .cfa -16 + ^ x21: .cfa -24 + ^ x22: .cfa -32 + ^ x23: .cfa -40 + ^ x24: .cfa -48 + ^ x25: .cfa -56 + ^ x26: .cfa -64 + ^ .ra: .cfa -72 + ^ x29: .cfa -80 + ^
STACK CFI 49388 .cfa: sp 112 +
STACK CFI 493a0 .cfa: sp 0 +
STACK CFI 493a4 .cfa: x29 80 +
STACK CFI INIT 495c0 dc .cfa: sp 0 +
STACK CFI 495c4 .cfa: sp 64 +
STACK CFI 495d0 .cfa: x29 32 + x19: .cfa -8 + ^ x20: .cfa -16 + ^ .ra: .cfa -24 + ^ x29: .cfa -32 + ^
STACK CFI 4965c .cfa: sp 64 +
STACK CFI 49668 .cfa: sp 0 +
STACK CFI 4966c .cfa: x29 32 +
STACK CFI INIT 4969c 2c4 .cfa: sp 0 +
STACK CFI 496a0 .cfa: sp 144 +
STACK CFI 496b8 .cfa: x29 64 + x19: .cfa -8 + ^ x20: .cfa -16 + ^ x21: .cfa -24 + ^ x22: .cfa -32 + ^ x23: .cfa -40 + ^ x24: .cfa -48 + ^ .ra: .cfa -56 + ^ x29: .cfa -64 + ^ v8: .cfa -80 + ^
STACK CFI 49914 .cfa: sp 144 +
STACK CFI 4992c .cfa: sp 0 +
STACK CFI 49930 .cfa: x29 64 +
STACK CFI INIT 499c0 4bc .cfa: sp 0 +
STACK CFI 499c4 .cfa: sp 112 +
STACK CFI 499dc .cfa: x29 56 + x19: .cfa -8 + ^ x20: .cfa -16 + ^ x21: .cfa -24 + ^ x22: .cfa -32 + ^ x23: .cfa -40 + ^ .ra: .cfa -48 + ^ x29: .cfa -56 + ^ v8: .cfa -64 + ^
STACK CFI 49e24 .cfa: sp 112 +
STACK CFI 49e3c .cfa: sp 0 +
STACK CFI 49e40 .cfa: x29 56 +
STACK CFI INIT 49edc 2a0 .cfa: sp 0 +
STACK CFI 49ee0 .cfa: sp 96 +
STACK CFI 49ef4 .cfa: x29 64 + x19: .cfa -8 + ^ x20: .cfa -16 + ^ x21: .cfa -24 + ^ x22: .cfa -32 + ^ x23: .cfa -48 + ^ .ra: .cfa -56 + ^ x29: .cfa -64 + ^
STACK CFI 4a130 .cfa: sp 96 +
STACK CFI 4a144 .cfa: sp 0 +
STACK CFI 4a148 .cfa: x29 64 +
STACK CFI INIT 4a17c 4cc .cfa: sp 0 +
STACK CFI 4a180 .cfa: sp 352 +
STACK CFI 4a194 .cfa: x29 64 + x19: .cfa -8 + ^ x20: .cfa -16 + ^ x21: .cfa -24 + ^ x22: .cfa -32 + ^ x23: .cfa -40 + ^ x28: .cfa -48 + ^ .ra: .cfa -56 + ^ x29: .cfa -64 + ^
STACK CFI 4a5e8 .cfa: sp 352 +
STACK CFI 4a5fc .cfa: sp 0 +
STACK CFI 4a600 .cfa: x29 64 +
STACK CFI INIT 4a720 e8 .cfa: sp 0 +
STACK CFI 4a724 .cfa: sp 32 +
STACK CFI 4a72c .cfa: x29 32 + x19: .cfa -8 + ^ x20: .cfa -16 + ^ .ra: .cfa -24 + ^ x29: .cfa -32 + ^
STACK CFI 4a7c8 .cfa: sp 32 +
STACK CFI 4a7d0 .cfa: sp 0 +
STACK CFI 4a7d4 .cfa: x29 32 +
STACK CFI 4a7e8 .cfa: sp 32 +
STACK CFI 4a7f0 .cfa: sp 0 +
STACK CFI 4a7f4 .cfa: x29 32 +
STACK CFI INIT 4a8e0 43c .cfa: sp 0 +
STACK CFI 4a8e4 .cfa: sp 96 +
STACK CFI 4a900 .cfa: x29 88 + x19: .cfa -8 + ^ x20: .cfa -16 + ^ x21: .cfa -24 + ^ x22: .cfa -32 + ^ x23: .cfa -40 + ^ x24: .cfa -48 + ^ x25: .cfa -56 + ^ x26: .cfa -64 + ^ x28: .cfa -72 + ^ .ra: .cfa -80 + ^ x29: .cfa -88 + ^ v8: .cfa -96 + ^
STACK CFI 4ac70 .cfa: sp 96 +
STACK CFI 4ac8c .cfa: sp 0 +
STACK CFI 4ac90 .cfa: x29 88 +
STACK CFI INIT 4ad48 238 .cfa: sp 0 +
STACK CFI 4ad4c .cfa: sp 96 +
STACK CFI 4ad64 .cfa: x29 80 + x19: .cfa -8 + ^ x20: .cfa -16 + ^ x21: .cfa -24 + ^ x22: .cfa -32 + ^ x23: .cfa -40 + ^ x24: .cfa -48 + ^ x25: .cfa -56 + ^ x28: .cfa -64 + ^ .ra: .cfa -72 + ^ x29: .cfa -80 + ^ v8: .cfa -88 + ^ v9: .cfa -96 + ^
STACK CFI 4aed8 .cfa: sp 96 +
STACK CFI 4aef0 .cfa: sp 0 +
STACK CFI 4aef4 .cfa: x29 80 +
STACK CFI INIT 4af80 38c .cfa: sp 0 +
STACK CFI 4af84 .cfa: sp 112 +
STACK CFI 4afa0 .cfa: x29 80 + x19: .cfa -8 + ^ x20: .cfa -16 + ^ x21: .cfa -24 + ^ x22: .cfa -32 + ^ x23: .cfa -40 + ^ x24: .cfa -48 + ^ x25: .cfa -56 + ^ x28: .cfa -64 + ^ .ra: .cfa -72 + ^ x29: .cfa -80 + ^ v8: .cfa -88 + ^ v9: .cfa -96 + ^ v10: .cfa -104 + ^ v11: .cfa -112 + ^
STACK CFI 4b048 .cfa: sp 112 +
STACK CFI 4b064 .cfa: sp 0 +
STACK CFI 4b068 .cfa: x29 80 +
STACK CFI 4b260 .cfa: sp 112 +
STACK CFI 4b27c .cfa: sp 0 +
STACK CFI 4b280 .cfa: x29 80 +
STACK CFI INIT 4b4ac 2f4 .cfa: sp 0 +
STACK CFI 4b4b0 .cfa: sp 112 +
STACK CFI 4b4c8 .cfa: x29 64 + x19: .cfa -8 + ^ x20: .cfa -16 + ^ x21: .cfa -24 + ^ x22: .cfa -32 + ^ x23: .cfa -40 + ^ x24: .cfa -48 + ^ .ra: .cfa -56 + ^ x29: .cfa -64 + ^ v8: .cfa -80 + ^
STACK CFI 4b74c .cfa: sp 112 +
STACK CFI 4b764 .cfa: sp 0 +
STACK CFI 4b768 .cfa: x29 64 +
STACK CFI INIT 4bd6c 120 .cfa: sp 0 +
STACK CFI 4bd70 .cfa: sp 64 +
STACK CFI 4bd7c .cfa: x29 32 + x19: .cfa -8 + ^ x20: .cfa -16 + ^ .ra: .cfa -24 + ^ x29: .cfa -32 + ^
STACK CFI 4be4c .cfa: sp 64 +
STACK CFI 4be58 .cfa: sp 0 +
STACK CFI 4be5c .cfa: x29 32 +
STACK CFI INIT 4be8c 480 .cfa: sp 0 +
STACK CFI 4be90 .cfa: sp 224 +
STACK CFI 4beac .cfa: x29 96 + x19: .cfa -8 + ^ x20: .cfa -16 + ^ x21: .cfa -24 + ^ x22: .cfa -32 + ^ x23: .cfa -40 + ^ x24: .cfa -48 + ^ x25: .cfa -56 + ^ x26: .cfa -64 + ^ x27: .cfa -80 + ^ .ra: .cfa -88 + ^ x29: .cfa -96 + ^
STACK CFI 4c118 .cfa: sp 224 +
STACK CFI 4c134 .cfa: sp 0 +
STACK CFI 4c138 .cfa: x29 96 +
STACK CFI 4c204 .cfa: sp 224 +
STACK CFI 4c220 .cfa: sp 0 +
STACK CFI 4c224 .cfa: x29 96 +
STACK CFI INIT 4c35c 314 .cfa: sp 0 +
STACK CFI 4c360 .cfa: sp 192 +
STACK CFI 4c374 .cfa: x29 64 + x19: .cfa -8 + ^ x20: .cfa -16 + ^ x21: .cfa -24 + ^ x22: .cfa -32 + ^ x23: .cfa -48 + ^ .ra: .cfa -56 + ^ x29: .cfa -64 + ^
STACK CFI 4c568 .cfa: sp 192 +
STACK CFI 4c57c .cfa: sp 0 +
STACK CFI 4c580 .cfa: x29 64 +
STACK CFI INIT 4c6c0 74 .cfa: sp 0 +
STACK CFI 4c6c4 .cfa: sp 48 +
STACK CFI 4c6d0 .cfa: x29 32 + x19: .cfa -8 + ^ x20: .cfa -16 + ^ .ra: .cfa -24 + ^ x29: .cfa -32 + ^
STACK CFI 4c71c .cfa: sp 48 +
STACK CFI 4c728 .cfa: sp 0 +
STACK CFI 4c72c .cfa: x29 32 +
STACK CFI INIT 4c7b4 154 .cfa: sp 0 +
STACK CFI 4c7b8 .cfa: sp 384 +
STACK CFI 4c7cc .cfa: x29 64 + x19: .cfa -8 + ^ x20: .cfa -16 + ^ x21: .cfa -24 + ^ x22: .cfa -32 + ^ x23: .cfa -40 + ^ x28: .cfa -48 + ^ .ra: .cfa -56 + ^ x29: .cfa -64 + ^
STACK CFI 4c8b0 .cfa: sp 384 +
STACK CFI 4c8c4 .cfa: sp 0 +
STACK CFI 4c8c8 .cfa: x29 64 +
STACK CFI INIT 4c93c 12c .cfa: sp 0 +
STACK CFI 4c940 .cfa: sp 80 +
STACK CFI 4c954 .cfa: x29 80 + x19: .cfa -8 + ^ x20: .cfa -16 + ^ x21: .cfa -24 + ^ x22: .cfa -32 + ^ x23: .cfa -40 + ^ x24: .cfa -48 + ^ x25: .cfa -56 + ^ x26: .cfa -64 + ^ .ra: .cfa -72 + ^ x29: .cfa -80 + ^
STACK CFI 4ca1c .cfa: sp 80 +
STACK CFI 4ca30 .cfa: sp 0 +
STACK CFI 4ca34 .cfa: x29 80 +
STACK CFI INIT 4cb0c 1a4 .cfa: sp 0 +
STACK CFI 4cb10 .cfa: sp 112 +
STACK CFI 4cb28 .cfa: x29 80 + x19: .cfa -8 + ^ x20: .cfa -16 + ^ x21: .cfa -24 + ^ x22: .cfa -32 + ^ x23: .cfa -40 + ^ x24: .cfa -48 + ^ x25: .cfa -56 + ^ x26: .cfa -64 + ^ .ra: .cfa -72 + ^ x29: .cfa -80 + ^
STACK CFI 4cc18 .cfa: sp 112 +
STACK CFI 4cc30 .cfa: sp 0 +
STACK CFI 4cc34 .cfa: x29 80 +
STACK CFI INIT 4ccb0 1dc .cfa: sp 0 +
STACK CFI 4ccb4 .cfa: sp 128 +
STACK CFI 4ccd0 .cfa: x29 96 + x19: .cfa -8 + ^ x20: .cfa -16 + ^ x21: .cfa -24 + ^ x22: .cfa -32 + ^ x23: .cfa -40 + ^ x24: .cfa -48 + ^ x25: .cfa -56 + ^ x26: .cfa -64 + ^ x27: .cfa -80 + ^ .ra: .cfa -88 + ^ x29: .cfa -96 + ^
STACK CFI 4ce3c .cfa: sp 128 +
STACK CFI 4ce58 .cfa: sp 0 +
STACK CFI 4ce5c .cfa: x29 96 +
STACK CFI INIT 4ce8c 178 .cfa: sp 0 +
STACK CFI 4ce90 .cfa: sp 80 +
STACK CFI 4cea4 .cfa: x29 80 + x19: .cfa -8 + ^ x20: .cfa -16 + ^ x21: .cfa -24 + ^ x22: .cfa -32 + ^ x23: .cfa -40 + ^ x24: .cfa -48 + ^ x25: .cfa -64 + ^ .ra: .cfa -72 + ^ x29: .cfa -80 + ^
STACK CFI 4cfd0 .cfa: sp 80 +
STACK CFI 4cfe4 .cfa: sp 0 +
STACK CFI 4cfe8 .cfa: x29 80 +
STACK CFI INIT 4d14c 228 .cfa: sp 0 +
STACK CFI 4d150 .cfa: sp 128 +
STACK CFI 4d168 .cfa: x29 80 + x19: .cfa -8 + ^ x20: .cfa -16 + ^ x21: .cfa -24 + ^ x22: .cfa -32 + ^ x23: .cfa -40 + ^ x24: .cfa -48 + ^ x25: .cfa -64 + ^ .ra: .cfa -72 + ^ x29: .cfa -80 + ^
STACK CFI 4d304 .cfa: sp 128 +
STACK CFI 4d31c .cfa: sp 0 +
STACK CFI 4d320 .cfa: x29 80 +
STACK CFI INIT 4dad0 3f4 .cfa: sp 0 +
STACK CFI 4dad4 .cfa: sp 112 +
STACK CFI 4daec .cfa: x29 56 + x19: .cfa -8 + ^ x20: .cfa -16 + ^ x21: .cfa -24 + ^ x22: .cfa -32 + ^ x23: .cfa -40 + ^ .ra: .cfa -48 + ^ x29: .cfa -56 + ^ v8: .cfa -64 + ^
STACK CFI 4de14 .cfa: sp 112 +
STACK CFI 4de2c .cfa: sp 0 +
STACK CFI 4de30 .cfa: x29 56 +
STACK CFI INIT 4dec4 a8 .cfa: sp 0 +
STACK CFI 4dec8 .cfa: sp 32 +
STACK CFI 4ded0 .cfa: x29 32 + x19: .cfa -16 + ^ .ra: .cfa -24 + ^ x29: .cfa -32 + ^
STACK CFI 4df04 .cfa: sp 32 +
STACK CFI 4df0c .cfa: sp 0 +
STACK CFI 4df10 .cfa: x29 32 +
STACK CFI 4df14 .cfa: sp 32 +
STACK CFI 4df1c .cfa: sp 0 +
STACK CFI 4df20 .cfa: x29 32 +
STACK CFI INIT 4e0b8 134 .cfa: sp 0 +
STACK CFI 4e0bc .cfa: sp 80 +
STACK CFI 4e0cc .cfa: x29 48 + x19: .cfa -8 + ^ x20: .cfa -16 + ^ x21: .cfa -24 + ^ x22: .cfa -32 + ^ .ra: .cfa -40 + ^ x29: .cfa -48 + ^
STACK CFI 4e1d0 .cfa: sp 80 +
STACK CFI 4e1e0 .cfa: sp 0 +
STACK CFI 4e1e4 .cfa: x29 48 +
STACK CFI INIT 4e1ec 128 .cfa: sp 0 +
STACK CFI 4e1f0 .cfa: sp 32 +
STACK CFI 4e1f8 .cfa: x29 32 + x19: .cfa -8 + ^ x20: .cfa -16 + ^ .ra: .cfa -24 + ^ x29: .cfa -32 + ^
STACK CFI 4e270 .cfa: sp 32 +
STACK CFI 4e278 .cfa: sp 0 +
STACK CFI 4e27c .cfa: x29 32 +
STACK CFI 4e294 .cfa: sp 32 +
STACK CFI 4e29c .cfa: sp 0 +
STACK CFI 4e2a0 .cfa: x29 32 +
STACK CFI INIT 4e518 480 .cfa: sp 0 +
STACK CFI 4e51c .cfa: sp 224 +
STACK CFI 4e538 .cfa: x29 96 + x19: .cfa -8 + ^ x20: .cfa -16 + ^ x21: .cfa -24 + ^ x22: .cfa -32 + ^ x23: .cfa -40 + ^ x24: .cfa -48 + ^ x25: .cfa -56 + ^ x26: .cfa -64 + ^ x27: .cfa -80 + ^ .ra: .cfa -88 + ^ x29: .cfa -96 + ^
STACK CFI 4e7a4 .cfa: sp 224 +
STACK CFI 4e7c0 .cfa: sp 0 +
STACK CFI 4e7c4 .cfa: x29 96 +
STACK CFI 4e890 .cfa: sp 224 +
STACK CFI 4e8ac .cfa: sp 0 +
STACK CFI 4e8b0 .cfa: x29 96 +
STACK CFI INIT 4e9b4 338 .cfa: sp 0 +
STACK CFI 4e9b8 .cfa: sp 240 +
STACK CFI 4e9cc .cfa: x29 64 + x19: .cfa -8 + ^ x20: .cfa -16 + ^ x21: .cfa -24 + ^ x22: .cfa -32 + ^ x23: .cfa -48 + ^ .ra: .cfa -56 + ^ x29: .cfa -64 + ^
STACK CFI 4ebdc .cfa: sp 240 +
STACK CFI 4ebf0 .cfa: sp 0 +
STACK CFI 4ebf4 .cfa: x29 64 +
STACK CFI INIT 4ecf0 1f4 .cfa: sp 0 +
STACK CFI 4ecf4 .cfa: sp 80 +
STACK CFI 4ed04 .cfa: x29 48 + x19: .cfa -8 + ^ x20: .cfa -16 + ^ x21: .cfa -24 + ^ x22: .cfa -32 + ^ .ra: .cfa -40 + ^ x29: .cfa -48 + ^
STACK CFI 4ee44 .cfa: sp 80 +
STACK CFI 4ee54 .cfa: sp 0 +
STACK CFI 4ee58 .cfa: x29 48 +
STACK CFI INIT 4eee4 a8 .cfa: sp 0 +
STACK CFI 4eee8 .cfa: sp 32 +
STACK CFI 4eef0 .cfa: x29 32 + x19: .cfa -16 + ^ .ra: .cfa -24 + ^ x29: .cfa -32 + ^
STACK CFI 4ef24 .cfa: sp 32 +
STACK CFI 4ef2c .cfa: sp 0 +
STACK CFI 4ef30 .cfa: x29 32 +
STACK CFI 4ef34 .cfa: sp 32 +
STACK CFI 4ef3c .cfa: sp 0 +
STACK CFI 4ef40 .cfa: x29 32 +
STACK CFI INIT 4f01c 43c .cfa: sp 0 +
STACK CFI 4f020 .cfa: sp 224 +
STACK CFI 4f03c .cfa: x29 96 + x19: .cfa -8 + ^ x20: .cfa -16 + ^ x21: .cfa -24 + ^ x22: .cfa -32 + ^ x23: .cfa -40 + ^ x24: .cfa -48 + ^ x25: .cfa -56 + ^ x26: .cfa -64 + ^ x27: .cfa -72 + ^ x28: .cfa -80 + ^ .ra: .cfa -88 + ^ x29: .cfa -96 + ^
STACK CFI 4f350 .cfa: sp 224 +
STACK CFI 4f36c .cfa: sp 0 +
STACK CFI 4f370 .cfa: x29 96 +
STACK CFI INIT 4f474 3b0 .cfa: sp 0 +
STACK CFI 4f478 .cfa: sp 224 +
STACK CFI 4f48c .cfa: x29 64 + x19: .cfa -8 + ^ x20: .cfa -16 + ^ x21: .cfa -24 + ^ x22: .cfa -32 + ^ x23: .cfa -48 + ^ .ra: .cfa -56 + ^ x29: .cfa -64 + ^
STACK CFI 4f6f4 .cfa: sp 224 +
STACK CFI 4f708 .cfa: sp 0 +
STACK CFI 4f70c .cfa: x29 64 +
STACK CFI INIT 4f828 3d8 .cfa: sp 0 +
STACK CFI 4f82c .cfa: sp 128 +
STACK CFI 4f84c .cfa: x29 96 + x19: .cfa -8 + ^ x20: .cfa -16 + ^ x21: .cfa -24 + ^ x22: .cfa -32 + ^ x23: .cfa -40 + ^ x24: .cfa -48 + ^ x25: .cfa -56 + ^ x26: .cfa -64 + ^ x27: .cfa -72 + ^ x28: .cfa -80 + ^ .ra: .cfa -88 + ^ x29: .cfa -96 + ^ v8: .cfa -104 + ^ v9: .cfa -112 + ^ v10: .cfa -128 + ^
STACK CFI 4fb24 .cfa: sp 128 +
STACK CFI 4fb44 .cfa: sp 0 +
STACK CFI 4fb48 .cfa: x29 96 +
STACK CFI INIT 4fc00 480 .cfa: sp 0 +
STACK CFI 4fc04 .cfa: sp 224 +
STACK CFI 4fc20 .cfa: x29 96 + x19: .cfa -8 + ^ x20: .cfa -16 + ^ x21: .cfa -24 + ^ x22: .cfa -32 + ^ x23: .cfa -40 + ^ x24: .cfa -48 + ^ x25: .cfa -56 + ^ x26: .cfa -64 + ^ x27: .cfa -80 + ^ .ra: .cfa -88 + ^ x29: .cfa -96 + ^
STACK CFI 4fe8c .cfa: sp 224 +
STACK CFI 4fea8 .cfa: sp 0 +
STACK CFI 4feac .cfa: x29 96 +
STACK CFI 4ff78 .cfa: sp 224 +
STACK CFI 4ff94 .cfa: sp 0 +
STACK CFI 4ff98 .cfa: x29 96 +
STACK CFI INIT 5009c 308 .cfa: sp 0 +
STACK CFI 500a0 .cfa: sp 176 +
STACK CFI 500b4 .cfa: x29 64 + x19: .cfa -8 + ^ x20: .cfa -16 + ^ x21: .cfa -24 + ^ x22: .cfa -32 + ^ x23: .cfa -48 + ^ .ra: .cfa -56 + ^ x29: .cfa -64 + ^
STACK CFI 5029c .cfa: sp 176 +
STACK CFI 502b0 .cfa: sp 0 +
STACK CFI 502b4 .cfa: x29 64 +
STACK CFI INIT 503a8 490 .cfa: sp 0 +
STACK CFI 503ac .cfa: sp 96 +
STACK CFI 503c4 .cfa: x29 96 + x19: .cfa -8 + ^ x20: .cfa -16 + ^ x21: .cfa -24 + ^ x22: .cfa -32 + ^ x23: .cfa -40 + ^ x24: .cfa -48 + ^ x25: .cfa -56 + ^ x26: .cfa -64 + ^ x28: .cfa -80 + ^ .ra: .cfa -88 + ^ x29: .cfa -96 + ^
STACK CFI 50748 .cfa: sp 96 +
STACK CFI 50760 .cfa: sp 0 +
STACK CFI 50764 .cfa: x29 96 +
STACK CFI INIT 50838 a8 .cfa: sp 0 +
STACK CFI 5083c .cfa: sp 32 +
STACK CFI 50844 .cfa: x29 32 + x19: .cfa -16 + ^ .ra: .cfa -24 + ^ x29: .cfa -32 + ^
STACK CFI 50878 .cfa: sp 32 +
STACK CFI 50880 .cfa: sp 0 +
STACK CFI 50884 .cfa: x29 32 +
STACK CFI 50888 .cfa: sp 32 +
STACK CFI 50890 .cfa: sp 0 +
STACK CFI 50894 .cfa: x29 32 +
STACK CFI INIT 509e4 43c .cfa: sp 0 +
STACK CFI 509e8 .cfa: sp 224 +
STACK CFI 50a04 .cfa: x29 96 + x19: .cfa -8 + ^ x20: .cfa -16 + ^ x21: .cfa -24 + ^ x22: .cfa -32 + ^ x23: .cfa -40 + ^ x24: .cfa -48 + ^ x25: .cfa -56 + ^ x26: .cfa -64 + ^ x27: .cfa -72 + ^ x28: .cfa -80 + ^ .ra: .cfa -88 + ^ x29: .cfa -96 + ^
STACK CFI 50d18 .cfa: sp 224 +
STACK CFI 50d34 .cfa: sp 0 +
STACK CFI 50d38 .cfa: x29 96 +
STACK CFI INIT 50e3c 330 .cfa: sp 0 +
STACK CFI 50e40 .cfa: sp 224 +
STACK CFI 50e54 .cfa: x29 64 + x19: .cfa -8 + ^ x20: .cfa -16 + ^ x21: .cfa -24 + ^ x22: .cfa -32 + ^ x23: .cfa -48 + ^ .ra: .cfa -56 + ^ x29: .cfa -64 + ^
STACK CFI 5105c .cfa: sp 224 +
STACK CFI 51070 .cfa: sp 0 +
STACK CFI 51074 .cfa: x29 64 +
STACK CFI INIT 51170 3cc .cfa: sp 0 +
STACK CFI 51174 .cfa: sp 112 +
STACK CFI 51194 .cfa: x29 88 + x19: .cfa -8 + ^ x20: .cfa -16 + ^ x21: .cfa -24 + ^ x22: .cfa -32 + ^ x23: .cfa -40 + ^ x24: .cfa -48 + ^ x25: .cfa -56 + ^ x26: .cfa -64 + ^ x28: .cfa -72 + ^ .ra: .cfa -80 + ^ x29: .cfa -88 + ^ v8: .cfa -96 + ^ v9: .cfa -104 + ^ v10: .cfa -112 + ^
STACK CFI 51460 .cfa: sp 112 +
STACK CFI 51480 .cfa: sp 0 +
STACK CFI 51484 .cfa: x29 88 +
STACK CFI INIT 5153c a8 .cfa: sp 0 +
STACK CFI 51540 .cfa: sp 32 +
STACK CFI 51548 .cfa: x29 32 + x19: .cfa -16 + ^ .ra: .cfa -24 + ^ x29: .cfa -32 + ^
STACK CFI 5157c .cfa: sp 32 +
STACK CFI 51584 .cfa: sp 0 +
STACK CFI 51588 .cfa: x29 32 +
STACK CFI 5158c .cfa: sp 32 +
STACK CFI 51594 .cfa: sp 0 +
STACK CFI 51598 .cfa: x29 32 +
STACK CFI INIT 51670 480 .cfa: sp 0 +
STACK CFI 51674 .cfa: sp 224 +
STACK CFI 51690 .cfa: x29 96 + x19: .cfa -8 + ^ x20: .cfa -16 + ^ x21: .cfa -24 + ^ x22: .cfa -32 + ^ x23: .cfa -40 + ^ x24: .cfa -48 + ^ x25: .cfa -56 + ^ x26: .cfa -64 + ^ x27: .cfa -80 + ^ .ra: .cfa -88 + ^ x29: .cfa -96 + ^
STACK CFI 518fc .cfa: sp 224 +
STACK CFI 51918 .cfa: sp 0 +
STACK CFI 5191c .cfa: x29 96 +
STACK CFI 519e8 .cfa: sp 224 +
STACK CFI 51a04 .cfa: sp 0 +
STACK CFI 51a08 .cfa: x29 96 +
STACK CFI INIT 51b0c f18 .cfa: sp 0 +
STACK CFI 51b10 .cfa: sp 272 +
STACK CFI 51b2c .cfa: x29 96 + x19: .cfa -8 + ^ x20: .cfa -16 + ^ x21: .cfa -24 + ^ x22: .cfa -32 + ^ x23: .cfa -40 + ^ x24: .cfa -48 + ^ x25: .cfa -56 + ^ x26: .cfa -64 + ^ x27: .cfa -72 + ^ x28: .cfa -80 + ^ .ra: .cfa -88 + ^ x29: .cfa -96 + ^
STACK CFI 52620 .cfa: sp 272 +
STACK CFI 5263c .cfa: sp 0 +
STACK CFI 52640 .cfa: x29 96 +
STACK CFI INIT 52a28 2cc .cfa: sp 0 +
STACK CFI 52a2c .cfa: sp 80 +
STACK CFI 52a40 .cfa: x29 64 + x19: .cfa -8 + ^ x20: .cfa -16 + ^ x21: .cfa -24 + ^ x22: .cfa -32 + ^ x23: .cfa -48 + ^ .ra: .cfa -56 + ^ x29: .cfa -64 + ^
STACK CFI 52b60 .cfa: sp 80 +
STACK CFI 52b74 .cfa: sp 0 +
STACK CFI 52b78 .cfa: x29 64 +
STACK CFI 52b94 .cfa: sp 80 +
STACK CFI 52ba8 .cfa: sp 0 +
STACK CFI 52bac .cfa: x29 64 +
STACK CFI INIT 52cf4 134 .cfa: sp 0 +
STACK CFI 52cf8 .cfa: sp 128 +
STACK CFI 52d0c .cfa: x29 64 + x19: .cfa -8 + ^ x20: .cfa -16 + ^ x21: .cfa -24 + ^ x22: .cfa -32 + ^ x23: .cfa -40 + ^ x24: .cfa -48 + ^ .ra: .cfa -56 + ^ x29: .cfa -64 + ^
STACK CFI 52dd8 .cfa: sp 128 +
STACK CFI 52dec .cfa: sp 0 +
STACK CFI 52df0 .cfa: x29 64 +
STACK CFI INIT 52e28 160 .cfa: sp 0 +
STACK CFI 52e2c .cfa: sp 32 +
STACK CFI 52e34 .cfa: x29 32 + x19: .cfa -16 + ^ .ra: .cfa -24 + ^ x29: .cfa -32 + ^
STACK CFI 52e90 .cfa: sp 32 +
STACK CFI 52e98 .cfa: sp 0 +
STACK CFI 52e9c .cfa: x29 32 +
STACK CFI 52f1c .cfa: sp 32 +
STACK CFI 52f24 .cfa: sp 0 +
STACK CFI 52f28 .cfa: x29 32 +
STACK CFI INIT 52f88 1dc .cfa: sp 0 +
STACK CFI 52f8c .cfa: sp 64 +
STACK CFI 52f9c .cfa: x29 48 + x19: .cfa -8 + ^ x20: .cfa -16 + ^ x21: .cfa -32 + ^ .ra: .cfa -40 + ^ x29: .cfa -48 + ^
STACK CFI 530dc .cfa: sp 64 +
STACK CFI 530ec .cfa: sp 0 +
STACK CFI 530f0 .cfa: x29 48 +
STACK CFI INIT 53164 3a4 .cfa: sp 0 +
STACK CFI 53168 .cfa: sp 96 +
STACK CFI 5317c .cfa: x29 64 + x19: .cfa -8 + ^ x20: .cfa -16 + ^ x21: .cfa -24 + ^ x22: .cfa -32 + ^ x23: .cfa -48 + ^ .ra: .cfa -56 + ^ x29: .cfa -64 + ^
STACK CFI 53418 .cfa: sp 96 +
STACK CFI 5342c .cfa: sp 0 +
STACK CFI 53430 .cfa: x29 64 +
STACK CFI INIT 53508 15c .cfa: sp 0 +
STACK CFI 5350c .cfa: sp 80 +
STACK CFI 53520 .cfa: x29 80 + x19: .cfa -8 + ^ x20: .cfa -16 + ^ x21: .cfa -24 + ^ x22: .cfa -32 + ^ x23: .cfa -40 + ^ x24: .cfa -48 + ^ x25: .cfa -64 + ^ .ra: .cfa -72 + ^ x29: .cfa -80 + ^
STACK CFI 535b8 .cfa: sp 80 +
STACK CFI 535cc .cfa: sp 0 +
STACK CFI 535d0 .cfa: x29 80 +
STACK CFI 535ec .cfa: sp 80 +
STACK CFI 53600 .cfa: sp 0 +
STACK CFI 53604 .cfa: x29 80 +
STACK CFI INIT 53664 130 .cfa: sp 0 +
STACK CFI 53668 .cfa: sp 48 +
STACK CFI 53674 .cfa: x29 48 + x19: .cfa -8 + ^ x20: .cfa -16 + ^ x21: .cfa -32 + ^ .ra: .cfa -40 + ^ x29: .cfa -48 + ^
STACK CFI 536b8 .cfa: sp 48 +
STACK CFI 536c4 .cfa: sp 0 +
STACK CFI 536c8 .cfa: x29 48 +
STACK CFI 53724 .cfa: sp 48 +
STACK CFI 53730 .cfa: sp 0 +
STACK CFI 53734 .cfa: x29 48 +
STACK CFI INIT 53794 c8 .cfa: sp 0 +
STACK CFI 53798 .cfa: sp 32 +
STACK CFI 537a0 .cfa: x29 32 + x19: .cfa -8 + ^ x20: .cfa -16 + ^ .ra: .cfa -24 + ^ x29: .cfa -32 + ^
STACK CFI 537d4 .cfa: sp 32 +
STACK CFI 537dc .cfa: sp 0 +
STACK CFI 537e0 .cfa: x29 32 +
STACK CFI 537e4 .cfa: sp 32 +
STACK CFI 537ec .cfa: sp 0 +
STACK CFI 537f0 .cfa: x29 32 +
STACK CFI INIT 5385c 81c .cfa: sp 0 +
STACK CFI 53860 .cfa: sp 80 +
STACK CFI 53874 .cfa: x29 80 + x19: .cfa -8 + ^ x20: .cfa -16 + ^ x21: .cfa -24 + ^ x22: .cfa -32 + ^ x23: .cfa -40 + ^ x24: .cfa -48 + ^ x25: .cfa -56 + ^ x26: .cfa -64 + ^ .ra: .cfa -72 + ^ x29: .cfa -80 + ^
STACK CFI 53cfc .cfa: sp 80 +
STACK CFI 53d10 .cfa: sp 0 +
STACK CFI 53d14 .cfa: x29 80 +
STACK CFI INIT 54078 578 .cfa: sp 0 +
STACK CFI 5407c .cfa: sp 96 +
STACK CFI 54090 .cfa: x29 64 + x19: .cfa -8 + ^ x20: .cfa -16 + ^ x21: .cfa -24 + ^ x22: .cfa -32 + ^ x23: .cfa -48 + ^ .ra: .cfa -56 + ^ x29: .cfa -64 + ^
STACK CFI 54430 .cfa: sp 96 +
STACK CFI 54444 .cfa: sp 0 +
STACK CFI 54448 .cfa: x29 64 +
STACK CFI INIT 54764 1c .cfa: sp 0 +
STACK CFI 54768 .cfa: sp 16 +
STACK CFI 5476c .cfa: x29 16 + .ra: .cfa -8 + ^ x29: .cfa -16 + ^
STACK CFI 54774 .cfa: sp 16 +
STACK CFI 54778 .cfa: sp 0 +
STACK CFI 5477c .cfa: x29 16 +
STACK CFI INIT 54a8c 3f8 .cfa: sp 0 +
STACK CFI 54a90 .cfa: sp 48 +
STACK CFI 54a9c .cfa: x29 48 + x19: .cfa -8 + ^ x20: .cfa -16 + ^ x21: .cfa -24 + ^ x22: .cfa -32 + ^ .ra: .cfa -40 + ^ x29: .cfa -48 + ^
STACK CFI 54e04 .cfa: sp 48 +
STACK CFI 54e10 .cfa: sp 0 +
STACK CFI 54e14 .cfa: x29 48 +
STACK CFI 54e64 .cfa: sp 48 +
STACK CFI 54e70 .cfa: sp 0 +
STACK CFI 54e74 .cfa: x29 48 +
STACK CFI INIT 54efc 1c .cfa: sp 0 +
STACK CFI 54f00 .cfa: sp 16 +
STACK CFI 54f04 .cfa: x29 16 + .ra: .cfa -8 + ^ x29: .cfa -16 + ^
STACK CFI 54f0c .cfa: sp 16 +
STACK CFI 54f10 .cfa: sp 0 +
STACK CFI 54f14 .cfa: x29 16 +
STACK CFI INIT 54fa8 98 .cfa: sp 0 +
STACK CFI 54fac .cfa: sp 48 +
STACK CFI 54fb8 .cfa: x29 48 + x19: .cfa -8 + ^ x20: .cfa -16 + ^ x21: .cfa -32 + ^ .ra: .cfa -40 + ^ x29: .cfa -48 + ^
STACK CFI 55018 .cfa: sp 48 +
STACK CFI 55024 .cfa: sp 0 +
STACK CFI 55028 .cfa: sp 48 +
STACK CFI 55034 .cfa: sp 0 +
STACK CFI 55038 .cfa: x29 48 +
STACK CFI INIT 5507c 1c .cfa: sp 0 +
STACK CFI 55080 .cfa: sp 16 +
STACK CFI 55084 .cfa: x29 16 + .ra: .cfa -8 + ^ x29: .cfa -16 + ^
STACK CFI 5508c .cfa: sp 16 +
STACK CFI 55090 .cfa: sp 0 +
STACK CFI 55094 .cfa: x29 16 +
STACK CFI INIT 55098 1c .cfa: sp 0 +
STACK CFI 5509c .cfa: sp 16 +
STACK CFI 550a0 .cfa: x29 16 + .ra: .cfa -8 + ^ x29: .cfa -16 + ^
STACK CFI 550a8 .cfa: sp 16 +
STACK CFI 550ac .cfa: sp 0 +
STACK CFI 550b0 .cfa: x29 16 +
STACK CFI INIT 55294 1cc .cfa: sp 0 +
STACK CFI 55298 .cfa: sp 160 +
STACK CFI 552b0 .cfa: x29 80 + x19: .cfa -8 + ^ x20: .cfa -16 + ^ x21: .cfa -24 + ^ x22: .cfa -32 + ^ x23: .cfa -40 + ^ x24: .cfa -48 + ^ x25: .cfa -56 + ^ x26: .cfa -64 + ^ .ra: .cfa -72 + ^ x29: .cfa -80 + ^
STACK CFI 5540c .cfa: sp 160 +
STACK CFI 55424 .cfa: sp 0 +
STACK CFI 55428 .cfa: x29 80 +
STACK CFI INIT 55818 1a0 .cfa: sp 0 +
STACK CFI 5581c .cfa: sp 64 +
STACK CFI 5582c .cfa: x29 64 + x19: .cfa -8 + ^ x20: .cfa -16 + ^ x21: .cfa -24 + ^ x22: .cfa -32 + ^ x23: .cfa -48 + ^ .ra: .cfa -56 + ^ x29: .cfa -64 + ^
STACK CFI 558f0 .cfa: sp 64 +
STACK CFI 55900 .cfa: sp 0 +
STACK CFI 55904 .cfa: x29 64 +
STACK CFI INIT 55fec a8 .cfa: sp 0 +
STACK CFI 55ff0 .cfa: sp 64 +
STACK CFI 56000 .cfa: x29 64 + x19: .cfa -8 + ^ x20: .cfa -16 + ^ x21: .cfa -24 + ^ x22: .cfa -32 + ^ x23: .cfa -40 + ^ x24: .cfa -48 + ^ .ra: .cfa -56 + ^ x29: .cfa -64 + ^
STACK CFI 56024 .cfa: sp 64 +
STACK CFI 56034 .cfa: sp 0 +
STACK CFI 56038 .cfa: x29 64 +
STACK CFI INIT 561f8 b58 .cfa: sp 0 +
STACK CFI 561fc .cfa: sp 112 +
STACK CFI 56218 .cfa: x29 96 + x19: .cfa -8 + ^ x20: .cfa -16 + ^ x21: .cfa -24 + ^ x22: .cfa -32 + ^ x23: .cfa -40 + ^ x24: .cfa -48 + ^ x25: .cfa -56 + ^ x26: .cfa -64 + ^ x27: .cfa -72 + ^ x28: .cfa -80 + ^ .ra: .cfa -88 + ^ x29: .cfa -96 + ^ v8: .cfa -112 + ^
STACK CFI 56bcc .cfa: sp 112 +
STACK CFI 56be8 .cfa: sp 0 +
STACK CFI 56bec .cfa: x29 96 +
STACK CFI INIT 56e90 644 .cfa: sp 0 +
STACK CFI 56e94 .cfa: sp 224 +
STACK CFI 56eb0 .cfa: x29 96 + x19: .cfa -8 + ^ x20: .cfa -16 + ^ x21: .cfa -24 + ^ x22: .cfa -32 + ^ x23: .cfa -40 + ^ x24: .cfa -48 + ^ x25: .cfa -56 + ^ x26: .cfa -64 + ^ x27: .cfa -72 + ^ x28: .cfa -80 + ^ .ra: .cfa -88 + ^ x29: .cfa -96 + ^
STACK CFI 57360 .cfa: sp 224 +
STACK CFI 5737c .cfa: sp 0 +
STACK CFI 57380 .cfa: x29 96 +
STACK CFI INIT 575d8 1f0 .cfa: sp 0 +
STACK CFI 575dc .cfa: sp 144 +
STACK CFI 575f4 .cfa: x29 80 + x19: .cfa -8 + ^ x20: .cfa -16 + ^ x21: .cfa -24 + ^ x22: .cfa -32 + ^ x23: .cfa -40 + ^ x24: .cfa -48 + ^ x25: .cfa -64 + ^ .ra: .cfa -72 + ^ x29: .cfa -80 + ^
STACK CFI 576ac .cfa: sp 144 +
STACK CFI 576c4 .cfa: sp 0 +
STACK CFI 576c8 .cfa: x29 80 +
STACK CFI INIT 578b4 740 .cfa: sp 0 +
STACK CFI 578b8 .cfa: sp 96 +
STACK CFI 578d0 .cfa: x29 96 + x19: .cfa -8 + ^ x20: .cfa -16 + ^ x21: .cfa -24 + ^ x22: .cfa -32 + ^ x23: .cfa -40 + ^ x24: .cfa -48 + ^ x25: .cfa -56 + ^ x26: .cfa -64 + ^ x27: .cfa -72 + ^ x28: .cfa -80 + ^ .ra: .cfa -88 + ^ x29: .cfa -96 + ^
STACK CFI 57e58 .cfa: sp 96 +
STACK CFI 57e70 .cfa: sp 0 +
STACK CFI 57e74 .cfa: x29 96 +
STACK CFI INIT 58078 7ec .cfa: sp 0 +
STACK CFI 5807c .cfa: sp 96 +
STACK CFI 58094 .cfa: x29 96 + x19: .cfa -8 + ^ x20: .cfa -16 + ^ x21: .cfa -24 + ^ x22: .cfa -32 + ^ x23: .cfa -40 + ^ x24: .cfa -48 + ^ x25: .cfa -56 + ^ x26: .cfa -64 + ^ x27: .cfa -72 + ^ x28: .cfa -80 + ^ .ra: .cfa -88 + ^ x29: .cfa -96 + ^
STACK CFI 58630 .cfa: sp 96 +
STACK CFI 58648 .cfa: sp 0 +
STACK CFI 5864c .cfa: x29 96 +
STACK CFI INIT 58864 35c .cfa: sp 0 +
STACK CFI 58868 .cfa: sp 80 +
STACK CFI 5887c .cfa: x29 80 + x19: .cfa -8 + ^ x20: .cfa -16 + ^ x21: .cfa -24 + ^ x22: .cfa -32 + ^ x23: .cfa -40 + ^ x24: .cfa -48 + ^ x25: .cfa -56 + ^ x28: .cfa -64 + ^ .ra: .cfa -72 + ^ x29: .cfa -80 + ^
STACK CFI 58af4 .cfa: sp 80 +
STACK CFI 58b08 .cfa: sp 0 +
STACK CFI 58b0c .cfa: x29 80 +
STACK CFI INIT 58bc0 35c .cfa: sp 0 +
STACK CFI 58bc4 .cfa: sp 80 +
STACK CFI 58bd8 .cfa: x29 80 + x19: .cfa -8 + ^ x20: .cfa -16 + ^ x21: .cfa -24 + ^ x22: .cfa -32 + ^ x23: .cfa -40 + ^ x24: .cfa -48 + ^ x25: .cfa -56 + ^ x28: .cfa -64 + ^ .ra: .cfa -72 + ^ x29: .cfa -80 + ^
STACK CFI 58e50 .cfa: sp 80 +
STACK CFI 58e64 .cfa: sp 0 +
STACK CFI 58e68 .cfa: x29 80 +
STACK CFI INIT 58f1c 418 .cfa: sp 0 +
STACK CFI 58f20 .cfa: sp 96 +
STACK CFI 58f38 .cfa: x29 96 + x19: .cfa -8 + ^ x20: .cfa -16 + ^ x21: .cfa -24 + ^ x22: .cfa -32 + ^ x23: .cfa -40 + ^ x24: .cfa -48 + ^ x25: .cfa -56 + ^ x26: .cfa -64 + ^ x28: .cfa -80 + ^ .ra: .cfa -88 + ^ x29: .cfa -96 + ^
STACK CFI 58fcc .cfa: sp 96 +
STACK CFI 58fe4 .cfa: sp 0 +
STACK CFI 58fe8 .cfa: x29 96 +
STACK CFI 59264 .cfa: sp 96 +
STACK CFI 5927c .cfa: sp 0 +
STACK CFI 59280 .cfa: x29 96 +
STACK CFI INIT 59334 384 .cfa: sp 0 +
STACK CFI 59338 .cfa: sp 96 +
STACK CFI 59350 .cfa: x29 96 + x19: .cfa -8 + ^ x20: .cfa -16 + ^ x21: .cfa -24 + ^ x22: .cfa -32 + ^ x23: .cfa -40 + ^ x24: .cfa -48 + ^ x25: .cfa -56 + ^ x26: .cfa -64 + ^ x28: .cfa -80 + ^ .ra: .cfa -88 + ^ x29: .cfa -96 + ^
STACK CFI 595e8 .cfa: sp 96 +
STACK CFI 59600 .cfa: sp 0 +
STACK CFI 59604 .cfa: x29 96 +
STACK CFI INIT 597a8 1cc .cfa: sp 0 +
STACK CFI 597ac .cfa: sp 128 +
STACK CFI 597bc .cfa: x29 48 + x19: .cfa -8 + ^ x20: .cfa -16 + ^ x21: .cfa -32 + ^ .ra: .cfa -40 + ^ x29: .cfa -48 + ^
STACK CFI 598f8 .cfa: sp 128 +
STACK CFI 59908 .cfa: sp 0 +
STACK CFI 5990c .cfa: x29 48 +
STACK CFI INIT 59a18 21c .cfa: sp 0 +
STACK CFI 59a1c .cfa: sp 192 +
STACK CFI 59a30 .cfa: x29 64 + x19: .cfa -8 + ^ x20: .cfa -16 + ^ x21: .cfa -24 + ^ x22: .cfa -32 + ^ x23: .cfa -48 + ^ .ra: .cfa -56 + ^ x29: .cfa -64 + ^
STACK CFI 59b70 .cfa: sp 192 +
STACK CFI 59b84 .cfa: sp 0 +
STACK CFI 59b88 .cfa: x29 64 +
STACK CFI INIT 59f20 1d0 .cfa: sp 0 +
STACK CFI 59f24 .cfa: sp 128 +
STACK CFI 59f38 .cfa: x29 64 + x19: .cfa -8 + ^ x20: .cfa -16 + ^ x21: .cfa -24 + ^ x22: .cfa -32 + ^ x23: .cfa -48 + ^ .ra: .cfa -56 + ^ x29: .cfa -64 + ^
STACK CFI 5a0b0 .cfa: sp 128 +
STACK CFI 5a0c4 .cfa: sp 0 +
STACK CFI 5a0c8 .cfa: x29 64 +
STACK CFI INIT 5a40c 1c4 .cfa: sp 0 +
STACK CFI 5a410 .cfa: sp 112 +
STACK CFI 5a420 .cfa: x29 48 + x19: .cfa -8 + ^ x20: .cfa -16 + ^ x21: .cfa -24 + ^ x22: .cfa -32 + ^ .ra: .cfa -40 + ^ x29: .cfa -48 + ^
STACK CFI 5a594 .cfa: sp 112 +
STACK CFI 5a5a4 .cfa: sp 0 +
STACK CFI 5a5a8 .cfa: x29 48 +
STACK CFI INIT 5a848 420 .cfa: sp 0 +
STACK CFI 5a84c .cfa: sp 96 +
STACK CFI 5a864 .cfa: x29 96 + x19: .cfa -8 + ^ x20: .cfa -16 + ^ x21: .cfa -24 + ^ x22: .cfa -32 + ^ x23: .cfa -40 + ^ x24: .cfa -48 + ^ x25: .cfa -56 + ^ x26: .cfa -64 + ^ x28: .cfa -80 + ^ .ra: .cfa -88 + ^ x29: .cfa -96 + ^
STACK CFI 5ab24 .cfa: sp 96 +
STACK CFI 5ab3c .cfa: sp 0 +
STACK CFI 5ab40 .cfa: x29 96 +
STACK CFI INIT 5ac90 14c .cfa: sp 0 +
STACK CFI 5ac94 .cfa: sp 48 +
STACK CFI 5aca0 .cfa: x29 48 + x19: .cfa -8 + ^ x20: .cfa -16 + ^ x21: .cfa -24 + ^ x22: .cfa -32 + ^ .ra: .cfa -40 + ^ x29: .cfa -48 + ^
STACK CFI 5ad74 .cfa: sp 48 +
STACK CFI 5ad80 .cfa: sp 0 +
STACK CFI 5ad84 .cfa: x29 48 +
STACK CFI 5ad90 .cfa: sp 48 +
STACK CFI 5ad9c .cfa: sp 0 +
STACK CFI 5ada0 .cfa: x29 48 +
STACK CFI INIT 5aedc 74 .cfa: sp 0 +
STACK CFI 5aee0 .cfa: sp 48 +
STACK CFI 5aeec .cfa: x29 32 + x19: .cfa -8 + ^ x20: .cfa -16 + ^ .ra: .cfa -24 + ^ x29: .cfa -32 + ^
STACK CFI 5af38 .cfa: sp 48 +
STACK CFI 5af44 .cfa: sp 0 +
STACK CFI 5af48 .cfa: x29 32 +
STACK CFI INIT 5af50 168 .cfa: sp 0 +
STACK CFI 5af54 .cfa: sp 384 +
STACK CFI 5af68 .cfa: x29 64 + x19: .cfa -8 + ^ x20: .cfa -16 + ^ x21: .cfa -24 + ^ x22: .cfa -32 + ^ x23: .cfa -40 + ^ x28: .cfa -48 + ^ .ra: .cfa -56 + ^ x29: .cfa -64 + ^
STACK CFI 5b060 .cfa: sp 384 +
STACK CFI 5b074 .cfa: sp 0 +
STACK CFI 5b078 .cfa: x29 64 +
STACK CFI INIT 5b218 130 .cfa: sp 0 +
STACK CFI 5b21c .cfa: sp 96 +
STACK CFI 5b230 .cfa: x29 64 + x19: .cfa -8 + ^ x20: .cfa -16 + ^ x21: .cfa -24 + ^ x22: .cfa -32 + ^ x23: .cfa -40 + ^ x24: .cfa -48 + ^ .ra: .cfa -56 + ^ x29: .cfa -64 + ^
STACK CFI 5b2cc .cfa: sp 96 +
STACK CFI 5b2e0 .cfa: sp 0 +
STACK CFI 5b2e4 .cfa: x29 64 +
STACK CFI INIT 5b3d8 3b4 .cfa: sp 0 +
STACK CFI 5b3dc .cfa: sp 48 +
STACK CFI 5b3e8 .cfa: x29 48 + x19: .cfa -8 + ^ x20: .cfa -16 + ^ x21: .cfa -24 + ^ x22: .cfa -32 + ^ .ra: .cfa -40 + ^ x29: .cfa -48 + ^
STACK CFI 5b600 .cfa: sp 48 +
STACK CFI 5b60c .cfa: sp 0 +
STACK CFI 5b610 .cfa: x29 48 +
STACK CFI 5b618 .cfa: sp 48 +
STACK CFI 5b624 .cfa: sp 0 +
STACK CFI 5b628 .cfa: x29 48 +
STACK CFI INIT 5b898 17c .cfa: sp 0 +
STACK CFI 5b89c .cfa: sp 144 +
STACK CFI 5b8b0 .cfa: x29 64 + x19: .cfa -8 + ^ x20: .cfa -16 + ^ x21: .cfa -24 + ^ x22: .cfa -32 + ^ x23: .cfa -40 + ^ x24: .cfa -48 + ^ .ra: .cfa -56 + ^ x29: .cfa -64 + ^
STACK CFI 5b9a8 .cfa: sp 144 +
STACK CFI 5b9bc .cfa: sp 0 +
STACK CFI 5b9c0 .cfa: x29 64 +
STACK CFI INIT 5bb14 134 .cfa: sp 0 +
STACK CFI 5bb18 .cfa: sp 96 +
STACK CFI 5bb2c .cfa: x29 64 + x19: .cfa -8 + ^ x20: .cfa -16 + ^ x21: .cfa -24 + ^ x22: .cfa -32 + ^ x23: .cfa -40 + ^ x24: .cfa -48 + ^ .ra: .cfa -56 + ^ x29: .cfa -64 + ^
STACK CFI 5bbcc .cfa: sp 96 +
STACK CFI 5bbe0 .cfa: sp 0 +
STACK CFI 5bbe4 .cfa: x29 64 +
STACK CFI INIT 5bcd8 1f0 .cfa: sp 0 +
STACK CFI 5bcdc .cfa: sp 48 +
STACK CFI 5bce8 .cfa: x29 48 + x19: .cfa -8 + ^ x20: .cfa -16 + ^ x21: .cfa -32 + ^ .ra: .cfa -40 + ^ x29: .cfa -48 + ^
STACK CFI 5be00 .cfa: sp 48 +
STACK CFI 5be0c .cfa: sp 0 +
STACK CFI 5be10 .cfa: x29 48 +
STACK CFI 5be1c .cfa: sp 48 +
STACK CFI 5be28 .cfa: sp 0 +
STACK CFI 5be2c .cfa: x29 48 +
STACK CFI INIT 5bf84 198 .cfa: sp 0 +
STACK CFI 5bf88 .cfa: sp 96 +
STACK CFI 5bf98 .cfa: x29 48 + x19: .cfa -8 + ^ x20: .cfa -16 + ^ x21: .cfa -32 + ^ .ra: .cfa -40 + ^ x29: .cfa -48 + ^
STACK CFI 5c074 .cfa: sp 96 +
STACK CFI 5c084 .cfa: sp 0 +
STACK CFI 5c088 .cfa: x29 48 +
STACK CFI INIT 5c188 ef0 .cfa: sp 0 +
STACK CFI 5c18c .cfa: sp 96 +
STACK CFI 5c1a4 .cfa: x29 96 + x19: .cfa -8 + ^ x20: .cfa -16 + ^ x21: .cfa -24 + ^ x22: .cfa -32 + ^ x23: .cfa -40 + ^ x24: .cfa -48 + ^ x25: .cfa -56 + ^ x26: .cfa -64 + ^ x27: .cfa -72 + ^ x28: .cfa -80 + ^ .ra: .cfa -88 + ^ x29: .cfa -96 + ^
STACK CFI 5ce94 .cfa: sp 96 +
STACK CFI 5ceac .cfa: sp 0 +
STACK CFI 5ceb0 .cfa: x29 96 +
STACK CFI INIT 5d0a0 bc .cfa: sp 0 +
STACK CFI 5d0a4 .cfa: sp 48 +
STACK CFI 5d0b0 .cfa: x29 32 + x19: .cfa -8 + ^ x20: .cfa -16 + ^ .ra: .cfa -24 + ^ x29: .cfa -32 + ^
STACK CFI 5d140 .cfa: sp 48 +
STACK CFI 5d14c .cfa: sp 0 +
STACK CFI 5d150 .cfa: x29 32 +
STACK CFI INIT 5d15c 74 .cfa: sp 0 +
STACK CFI 5d160 .cfa: sp 48 +
STACK CFI 5d16c .cfa: x29 32 + x19: .cfa -8 + ^ x20: .cfa -16 + ^ .ra: .cfa -24 + ^ x29: .cfa -32 + ^
STACK CFI 5d1b8 .cfa: sp 48 +
STACK CFI 5d1c4 .cfa: sp 0 +
STACK CFI 5d1c8 .cfa: x29 32 +
STACK CFI INIT 5d2dc d8 .cfa: sp 0 +
STACK CFI 5d2e0 .cfa: sp 64 +
STACK CFI 5d2f0 .cfa: x29 48 + x19: .cfa -8 + ^ x20: .cfa -16 + ^ x21: .cfa -32 + ^ .ra: .cfa -40 + ^ x29: .cfa -48 + ^
STACK CFI 5d398 .cfa: sp 64 +
STACK CFI 5d3a8 .cfa: sp 0 +
STACK CFI 5d3ac .cfa: x29 48 +
STACK CFI INIT 5d3b4 258 .cfa: sp 0 +
STACK CFI 5d3b8 .cfa: sp 64 +
STACK CFI 5d3c8 .cfa: x29 48 + x19: .cfa -8 + ^ x20: .cfa -16 + ^ x21: .cfa -24 + ^ x22: .cfa -32 + ^ .ra: .cfa -40 + ^ x29: .cfa -48 + ^
STACK CFI 5d5f0 .cfa: sp 64 +
STACK CFI 5d600 .cfa: sp 0 +
STACK CFI 5d604 .cfa: x29 48 +
STACK CFI INIT 5dc04 2a4 .cfa: sp 0 +
STACK CFI 5dc08 .cfa: sp 128 +
STACK CFI 5dc18 .cfa: x29 48 + x19: .cfa -8 + ^ x20: .cfa -16 + ^ x21: .cfa -24 + ^ x22: .cfa -32 + ^ .ra: .cfa -40 + ^ x29: .cfa -48 + ^
STACK CFI 5ddd0 .cfa: sp 128 +
STACK CFI 5dde0 .cfa: sp 0 +
STACK CFI 5dde4 .cfa: x29 48 +
STACK CFI INIT 5dea8 104 .cfa: sp 0 +
STACK CFI 5deac .cfa: sp 112 +
STACK CFI 5deb8 .cfa: x29 32 + x19: .cfa -8 + ^ x20: .cfa -16 + ^ .ra: .cfa -24 + ^ x29: .cfa -32 + ^
STACK CFI 5df7c .cfa: sp 112 +
STACK CFI 5df88 .cfa: sp 0 +
STACK CFI 5df8c .cfa: x29 32 +
STACK CFI INIT 5dfac 13c .cfa: sp 0 +
STACK CFI 5dfb0 .cfa: sp 112 +
STACK CFI 5dfbc .cfa: x29 32 + x19: .cfa -8 + ^ x20: .cfa -16 + ^ .ra: .cfa -24 + ^ x29: .cfa -32 + ^
STACK CFI 5e094 .cfa: sp 112 +
STACK CFI 5e0a0 .cfa: sp 0 +
STACK CFI 5e0a4 .cfa: x29 32 +
STACK CFI INIT 5e0e8 154 .cfa: sp 0 +
STACK CFI 5e0ec .cfa: sp 128 +
STACK CFI 5e0fc .cfa: x29 48 + x19: .cfa -8 + ^ x20: .cfa -16 + ^ x21: .cfa -24 + ^ x22: .cfa -32 + ^ .ra: .cfa -40 + ^ x29: .cfa -48 + ^
STACK CFI 5e1e4 .cfa: sp 128 +
STACK CFI 5e1f4 .cfa: sp 0 +
STACK CFI 5e1f8 .cfa: x29 48 +
STACK CFI INIT 5e23c 16c .cfa: sp 0 +
STACK CFI 5e240 .cfa: sp 144 +
STACK CFI 5e250 .cfa: x29 48 + x19: .cfa -8 + ^ x20: .cfa -16 + ^ x21: .cfa -24 + ^ x22: .cfa -32 + ^ .ra: .cfa -40 + ^ x29: .cfa -48 + ^
STACK CFI 5e34c .cfa: sp 144 +
STACK CFI 5e35c .cfa: sp 0 +
STACK CFI 5e360 .cfa: x29 48 +
STACK CFI INIT 5e464 74 .cfa: sp 0 +
STACK CFI 5e468 .cfa: sp 48 +
STACK CFI 5e474 .cfa: x29 32 + x19: .cfa -8 + ^ x20: .cfa -16 + ^ .ra: .cfa -24 + ^ x29: .cfa -32 + ^
STACK CFI 5e4c0 .cfa: sp 48 +
STACK CFI 5e4cc .cfa: sp 0 +
STACK CFI 5e4d0 .cfa: x29 32 +
STACK CFI INIT 5e4d8 74 .cfa: sp 0 +
STACK CFI 5e4dc .cfa: sp 48 +
STACK CFI 5e4e8 .cfa: x29 32 + x19: .cfa -8 + ^ x20: .cfa -16 + ^ .ra: .cfa -24 + ^ x29: .cfa -32 + ^
STACK CFI 5e534 .cfa: sp 48 +
STACK CFI 5e540 .cfa: sp 0 +
STACK CFI 5e544 .cfa: x29 32 +
STACK CFI INIT 5e54c 168 .cfa: sp 0 +
STACK CFI 5e550 .cfa: sp 384 +
STACK CFI 5e564 .cfa: x29 64 + x19: .cfa -8 + ^ x20: .cfa -16 + ^ x21: .cfa -24 + ^ x22: .cfa -32 + ^ x23: .cfa -40 + ^ x28: .cfa -48 + ^ .ra: .cfa -56 + ^ x29: .cfa -64 + ^
STACK CFI 5e65c .cfa: sp 384 +
STACK CFI 5e670 .cfa: sp 0 +
STACK CFI 5e674 .cfa: x29 64 +
STACK CFI INIT 5e6cc 1b4 .cfa: sp 0 +
STACK CFI 5e6d0 .cfa: sp 128 +
STACK CFI 5e6e4 .cfa: x29 64 + x19: .cfa -8 + ^ x20: .cfa -16 + ^ x21: .cfa -24 + ^ x22: .cfa -32 + ^ x23: .cfa -48 + ^ .ra: .cfa -56 + ^ x29: .cfa -64 + ^
STACK CFI 5e824 .cfa: sp 128 +
STACK CFI 5e838 .cfa: sp 0 +
STACK CFI 5e83c .cfa: x29 64 +
STACK CFI INIT 5e880 c4 .cfa: sp 0 +
STACK CFI 5e884 .cfa: sp 64 +
STACK CFI 5e894 .cfa: x29 64 + x19: .cfa -8 + ^ x20: .cfa -16 + ^ x21: .cfa -24 + ^ x22: .cfa -32 + ^ x23: .cfa -40 + ^ x24: .cfa -48 + ^ .ra: .cfa -56 + ^ x29: .cfa -64 + ^
STACK CFI 5e90c .cfa: sp 64 +
STACK CFI 5e91c .cfa: sp 0 +
STACK CFI 5e920 .cfa: x29 64 +
STACK CFI INIT 5e944 c4 .cfa: sp 0 +
STACK CFI 5e948 .cfa: sp 64 +
STACK CFI 5e958 .cfa: x29 64 + x19: .cfa -8 + ^ x20: .cfa -16 + ^ x21: .cfa -24 + ^ x22: .cfa -32 + ^ x23: .cfa -40 + ^ x24: .cfa -48 + ^ .ra: .cfa -56 + ^ x29: .cfa -64 + ^
STACK CFI 5e9d0 .cfa: sp 64 +
STACK CFI 5e9e0 .cfa: sp 0 +
STACK CFI 5e9e4 .cfa: x29 64 +
STACK CFI INIT 5eaac 1a4 .cfa: sp 0 +
STACK CFI 5eab0 .cfa: sp 112 +
STACK CFI 5eac4 .cfa: x29 64 + x19: .cfa -8 + ^ x20: .cfa -16 + ^ x21: .cfa -24 + ^ x22: .cfa -32 + ^ x23: .cfa -40 + ^ x24: .cfa -48 + ^ .ra: .cfa -56 + ^ x29: .cfa -64 + ^
STACK CFI 5ebd0 .cfa: sp 112 +
STACK CFI 5ebe4 .cfa: sp 0 +
STACK CFI 5ebe8 .cfa: x29 64 +
STACK CFI INIT 5ed48 900 .cfa: sp 0 +
STACK CFI 5ed4c .cfa: sp 96 +
STACK CFI 5ed64 .cfa: x29 96 + x19: .cfa -8 + ^ x20: .cfa -16 + ^ x21: .cfa -24 + ^ x22: .cfa -32 + ^ x23: .cfa -40 + ^ x24: .cfa -48 + ^ x25: .cfa -56 + ^ x26: .cfa -64 + ^ x27: .cfa -72 + ^ x28: .cfa -80 + ^ .ra: .cfa -88 + ^ x29: .cfa -96 + ^
STACK CFI 5f278 .cfa: sp 96 +
STACK CFI 5f290 .cfa: sp 0 +
STACK CFI 5f294 .cfa: x29 96 +
STACK CFI INIT 5f670 74 .cfa: sp 0 +
STACK CFI 5f674 .cfa: sp 48 +
STACK CFI 5f680 .cfa: x29 32 + x19: .cfa -8 + ^ x20: .cfa -16 + ^ .ra: .cfa -24 + ^ x29: .cfa -32 + ^
STACK CFI 5f6cc .cfa: sp 48 +
STACK CFI 5f6d8 .cfa: sp 0 +
STACK CFI 5f6dc .cfa: x29 32 +
STACK CFI INIT 5f6e4 144 .cfa: sp 0 +
STACK CFI 5f6e8 .cfa: sp 112 +
STACK CFI 5f6f4 .cfa: x29 32 + x19: .cfa -8 + ^ x20: .cfa -16 + ^ .ra: .cfa -24 + ^ x29: .cfa -32 + ^
STACK CFI 5f7d4 .cfa: sp 112 +
STACK CFI 5f7e0 .cfa: sp 0 +
STACK CFI 5f7e4 .cfa: x29 32 +
STACK CFI INIT 5f8bc 74 .cfa: sp 0 +
STACK CFI 5f8c0 .cfa: sp 48 +
STACK CFI 5f8cc .cfa: x29 32 + x19: .cfa -8 + ^ x20: .cfa -16 + ^ .ra: .cfa -24 + ^ x29: .cfa -32 + ^
STACK CFI 5f918 .cfa: sp 48 +
STACK CFI 5f924 .cfa: sp 0 +
STACK CFI 5f928 .cfa: x29 32 +
STACK CFI INIT 5f930 104 .cfa: sp 0 +
STACK CFI 5f934 .cfa: sp 112 +
STACK CFI 5f940 .cfa: x29 32 + x19: .cfa -8 + ^ x20: .cfa -16 + ^ .ra: .cfa -24 + ^ x29: .cfa -32 + ^
STACK CFI 5fa04 .cfa: sp 112 +
STACK CFI 5fa10 .cfa: sp 0 +
STACK CFI 5fa14 .cfa: x29 32 +
STACK CFI INIT 5fc18 7d0 .cfa: sp 0 +
STACK CFI 5fc1c .cfa: sp 96 +
STACK CFI 5fc34 .cfa: x29 96 + x19: .cfa -8 + ^ x20: .cfa -16 + ^ x21: .cfa -24 + ^ x22: .cfa -32 + ^ x23: .cfa -40 + ^ x24: .cfa -48 + ^ x25: .cfa -56 + ^ x26: .cfa -64 + ^ x27: .cfa -72 + ^ x28: .cfa -80 + ^ .ra: .cfa -88 + ^ x29: .cfa -96 + ^
STACK CFI 60180 .cfa: sp 96 +
STACK CFI 60198 .cfa: sp 0 +
STACK CFI 6019c .cfa: x29 96 +
STACK CFI INIT 6047c c00 .cfa: sp 0 +
STACK CFI 60480 .cfa: sp 96 +
STACK CFI 60498 .cfa: x29 96 + x19: .cfa -8 + ^ x20: .cfa -16 + ^ x21: .cfa -24 + ^ x22: .cfa -32 + ^ x23: .cfa -40 + ^ x24: .cfa -48 + ^ x25: .cfa -56 + ^ x26: .cfa -64 + ^ x27: .cfa -72 + ^ x28: .cfa -80 + ^ .ra: .cfa -88 + ^ x29: .cfa -96 + ^
STACK CFI 60eec .cfa: sp 96 +
STACK CFI 60f04 .cfa: sp 0 +
STACK CFI 60f08 .cfa: x29 96 +
STACK CFI INIT 6143c c44 .cfa: sp 0 +
STACK CFI 61440 .cfa: sp 96 +
STACK CFI 61458 .cfa: x29 96 + x19: .cfa -8 + ^ x20: .cfa -16 + ^ x21: .cfa -24 + ^ x22: .cfa -32 + ^ x23: .cfa -40 + ^ x24: .cfa -48 + ^ x25: .cfa -56 + ^ x26: .cfa -64 + ^ x27: .cfa -72 + ^ x28: .cfa -80 + ^ .ra: .cfa -88 + ^ x29: .cfa -96 + ^
STACK CFI 61f18 .cfa: sp 96 +
STACK CFI 61f30 .cfa: sp 0 +
STACK CFI 61f34 .cfa: x29 96 +
STACK CFI INIT 620a8 160 .cfa: sp 0 +
STACK CFI 620ac .cfa: sp 112 +
STACK CFI 620b8 .cfa: x29 32 + x19: .cfa -8 + ^ x20: .cfa -16 + ^ .ra: .cfa -24 + ^ x29: .cfa -32 + ^
STACK CFI 621c8 .cfa: sp 112 +
STACK CFI 621d4 .cfa: sp 0 +
STACK CFI 621d8 .cfa: x29 32 +
STACK CFI INIT 62208 608 .cfa: sp 0 +
STACK CFI 6220c .cfa: sp 432 +
STACK CFI 62228 .cfa: x29 96 + x19: .cfa -8 + ^ x20: .cfa -16 + ^ x21: .cfa -24 + ^ x22: .cfa -32 + ^ x23: .cfa -40 + ^ x24: .cfa -48 + ^ x25: .cfa -56 + ^ x26: .cfa -64 + ^ x27: .cfa -72 + ^ x28: .cfa -80 + ^ .ra: .cfa -88 + ^ x29: .cfa -96 + ^
STACK CFI 626d0 .cfa: sp 432 +
STACK CFI 626ec .cfa: sp 0 +
STACK CFI 626f0 .cfa: x29 96 +
STACK CFI INIT 62810 7d0 .cfa: sp 0 +
STACK CFI 62814 .cfa: sp 96 +
STACK CFI 6282c .cfa: x29 96 + x19: .cfa -8 + ^ x20: .cfa -16 + ^ x21: .cfa -24 + ^ x22: .cfa -32 + ^ x23: .cfa -40 + ^ x24: .cfa -48 + ^ x25: .cfa -56 + ^ x26: .cfa -64 + ^ x27: .cfa -72 + ^ x28: .cfa -80 + ^ .ra: .cfa -88 + ^ x29: .cfa -96 + ^
STACK CFI 62e90 .cfa: sp 96 +
STACK CFI 62ea8 .cfa: sp 0 +
STACK CFI 62eac .cfa: x29 96 +
STACK CFI INIT 63088 a0 .cfa: sp 0 +
STACK CFI 6308c .cfa: sp 32 +
STACK CFI 63094 .cfa: x29 32 + x19: .cfa -8 + ^ x20: .cfa -16 + ^ .ra: .cfa -24 + ^ x29: .cfa -32 + ^
STACK CFI 63108 .cfa: sp 32 +
STACK CFI 63110 .cfa: sp 0 +
STACK CFI 63114 .cfa: x29 32 +
STACK CFI INIT 63244 1d4 .cfa: sp 0 +
STACK CFI 63248 .cfa: sp 112 +
STACK CFI 63258 .cfa: x29 48 + x19: .cfa -8 + ^ x20: .cfa -16 + ^ x21: .cfa -32 + ^ .ra: .cfa -40 + ^ x29: .cfa -48 + ^
STACK CFI 633a0 .cfa: sp 112 +
STACK CFI 633b0 .cfa: sp 0 +
STACK CFI 633b4 .cfa: x29 48 +
STACK CFI INIT 634d8 480 .cfa: sp 0 +
STACK CFI 634dc .cfa: sp 224 +
STACK CFI 634f8 .cfa: x29 96 + x19: .cfa -8 + ^ x20: .cfa -16 + ^ x21: .cfa -24 + ^ x22: .cfa -32 + ^ x23: .cfa -40 + ^ x24: .cfa -48 + ^ x25: .cfa -56 + ^ x26: .cfa -64 + ^ x27: .cfa -80 + ^ .ra: .cfa -88 + ^ x29: .cfa -96 + ^
STACK CFI 63764 .cfa: sp 224 +
STACK CFI 63780 .cfa: sp 0 +
STACK CFI 63784 .cfa: x29 96 +
STACK CFI 63850 .cfa: sp 224 +
STACK CFI 6386c .cfa: sp 0 +
STACK CFI 63870 .cfa: x29 96 +
STACK CFI INIT 63aa8 60c .cfa: sp 0 +
STACK CFI 63aac .cfa: sp 288 +
STACK CFI 63ac8 .cfa: x29 96 + x19: .cfa -8 + ^ x20: .cfa -16 + ^ x21: .cfa -24 + ^ x22: .cfa -32 + ^ x23: .cfa -40 + ^ x24: .cfa -48 + ^ x25: .cfa -56 + ^ x26: .cfa -64 + ^ x28: .cfa -80 + ^ .ra: .cfa -88 + ^ x29: .cfa -96 + ^
STACK CFI 63ef0 .cfa: sp 288 +
STACK CFI 63f0c .cfa: sp 0 +
STACK CFI 63f10 .cfa: x29 96 +
STACK CFI INIT 640b8 9c .cfa: sp 0 +
STACK CFI 640bc .cfa: sp 32 +
STACK CFI 640c4 .cfa: x29 32 + x19: .cfa -16 + ^ .ra: .cfa -24 + ^ x29: .cfa -32 + ^
STACK CFI 640e8 .cfa: sp 32 +
STACK CFI 640f0 .cfa: sp 0 +
STACK CFI 640f4 .cfa: x29 32 +
STACK CFI INIT 64154 a4 .cfa: sp 0 +
STACK CFI 64158 .cfa: sp 32 +
STACK CFI 64160 .cfa: x29 32 + x19: .cfa -8 + ^ x20: .cfa -16 + ^ .ra: .cfa -24 + ^ x29: .cfa -32 + ^
STACK CFI 6418c .cfa: sp 32 +
STACK CFI 64194 .cfa: sp 0 +
STACK CFI 64198 .cfa: x29 32 +
STACK CFI INIT 641f8 c0 .cfa: sp 0 +
STACK CFI 641fc .cfa: sp 32 +
STACK CFI 64204 .cfa: x29 32 + x19: .cfa -16 + ^ .ra: .cfa -24 + ^ x29: .cfa -32 + ^
STACK CFI 64238 .cfa: sp 32 +
STACK CFI 64240 .cfa: sp 0 +
STACK CFI 64244 .cfa: x29 32 +
STACK CFI 64248 .cfa: sp 32 +
STACK CFI 64250 .cfa: sp 0 +
STACK CFI 64254 .cfa: x29 32 +
STACK CFI INIT 642b8 c0 .cfa: sp 0 +
STACK CFI 642bc .cfa: sp 32 +
STACK CFI 642c4 .cfa: x29 32 + x19: .cfa -16 + ^ .ra: .cfa -24 + ^ x29: .cfa -32 + ^
STACK CFI 642f8 .cfa: sp 32 +
STACK CFI 64300 .cfa: sp 0 +
STACK CFI 64304 .cfa: x29 32 +
STACK CFI 64308 .cfa: sp 32 +
STACK CFI 64310 .cfa: sp 0 +
STACK CFI 64314 .cfa: x29 32 +
STACK CFI INIT 64378 6b0 .cfa: sp 0 +
STACK CFI 6437c .cfa: sp 176 +
STACK CFI 64394 .cfa: x29 80 + x19: .cfa -8 + ^ x20: .cfa -16 + ^ x21: .cfa -24 + ^ x22: .cfa -32 + ^ x23: .cfa -40 + ^ x24: .cfa -48 + ^ x25: .cfa -64 + ^ .ra: .cfa -72 + ^ x29: .cfa -80 + ^
STACK CFI 648d0 .cfa: sp 176 +
STACK CFI 648e8 .cfa: sp 0 +
STACK CFI 648ec .cfa: x29 80 +
STACK CFI INIT 64a28 318 .cfa: sp 0 +
STACK CFI 64a2c .cfa: sp 480 +
STACK CFI 64a40 .cfa: x29 64 + x19: .cfa -8 + ^ x20: .cfa -16 + ^ x21: .cfa -24 + ^ x22: .cfa -32 + ^ x28: .cfa -48 + ^ .ra: .cfa -56 + ^ x29: .cfa -64 + ^
STACK CFI 64c48 .cfa: sp 480 +
STACK CFI 64c5c .cfa: sp 0 +
STACK CFI 64c60 .cfa: x29 64 +
STACK CFI INIT 64d40 110 .cfa: sp 0 +
STACK CFI 64d44 .cfa: sp 400 +
STACK CFI 64d58 .cfa: x29 64 + x19: .cfa -8 + ^ x20: .cfa -16 + ^ x21: .cfa -24 + ^ x22: .cfa -32 + ^ x28: .cfa -48 + ^ .ra: .cfa -56 + ^ x29: .cfa -64 + ^
STACK CFI 64e0c .cfa: sp 400 +
STACK CFI 64e20 .cfa: sp 0 +
STACK CFI 64e24 .cfa: x29 64 +
STACK CFI INIT 64e50 74 .cfa: sp 0 +
STACK CFI 64e54 .cfa: sp 48 +
STACK CFI 64e60 .cfa: x29 32 + x19: .cfa -8 + ^ x20: .cfa -16 + ^ .ra: .cfa -24 + ^ x29: .cfa -32 + ^
STACK CFI 64eac .cfa: sp 48 +
STACK CFI 64eb8 .cfa: sp 0 +
STACK CFI 64ebc .cfa: x29 32 +
STACK CFI INIT 64f84 90 .cfa: sp 0 +
STACK CFI 64f88 .cfa: sp 48 +
STACK CFI 64f94 .cfa: x29 48 + x19: .cfa -8 + ^ x20: .cfa -16 + ^ x21: .cfa -32 + ^ .ra: .cfa -40 + ^ x29: .cfa -48 + ^
STACK CFI 64fc4 .cfa: sp 48 +
STACK CFI 64fd0 .cfa: sp 0 +
STACK CFI 64fd4 .cfa: x29 48 +
STACK CFI 65000 .cfa: sp 48 +
STACK CFI 6500c .cfa: sp 0 +
STACK CFI 65010 .cfa: x29 48 +
STACK CFI INIT 65014 13c .cfa: sp 0 +
STACK CFI 65018 .cfa: sp 416 +
STACK CFI 65028 .cfa: x29 48 + x19: .cfa -8 + ^ x20: .cfa -16 + ^ x21: .cfa -24 + ^ x28: .cfa -32 + ^ .ra: .cfa -40 + ^ x29: .cfa -48 + ^
STACK CFI 650fc .cfa: sp 416 +
STACK CFI 6510c .cfa: sp 0 +
STACK CFI 65110 .cfa: x29 48 +
STACK CFI INIT 652a4 304 .cfa: sp 0 +
STACK CFI 652a8 .cfa: sp 128 +
STACK CFI 652c4 .cfa: x29 96 + x19: .cfa -8 + ^ x20: .cfa -16 + ^ x21: .cfa -24 + ^ x22: .cfa -32 + ^ x23: .cfa -40 + ^ x24: .cfa -48 + ^ x25: .cfa -56 + ^ x26: .cfa -64 + ^ x27: .cfa -72 + ^ x28: .cfa -80 + ^ .ra: .cfa -88 + ^ x29: .cfa -96 + ^
STACK CFI 65528 .cfa: sp 128 +
STACK CFI 65544 .cfa: sp 0 +
STACK CFI 65548 .cfa: x29 96 +
STACK CFI INIT 655a8 110 .cfa: sp 0 +
STACK CFI 655ac .cfa: sp 80 +
STACK CFI 655c0 .cfa: x29 80 + x19: .cfa -8 + ^ x20: .cfa -16 + ^ x21: .cfa -24 + ^ x22: .cfa -32 + ^ x23: .cfa -40 + ^ x24: .cfa -48 + ^ x25: .cfa -56 + ^ x26: .cfa -64 + ^ .ra: .cfa -72 + ^ x29: .cfa -80 + ^
STACK CFI 6565c .cfa: sp 80 +
STACK CFI 65670 .cfa: sp 0 +
STACK CFI 65674 .cfa: x29 80 +
STACK CFI INIT 656b8 114 .cfa: sp 0 +
STACK CFI 656bc .cfa: sp 80 +
STACK CFI 656d0 .cfa: x29 80 + x19: .cfa -8 + ^ x20: .cfa -16 + ^ x21: .cfa -24 + ^ x22: .cfa -32 + ^ x23: .cfa -40 + ^ x24: .cfa -48 + ^ x25: .cfa -56 + ^ x26: .cfa -64 + ^ .ra: .cfa -72 + ^ x29: .cfa -80 + ^
STACK CFI 65770 .cfa: sp 80 +
STACK CFI 65784 .cfa: sp 0 +
STACK CFI 65788 .cfa: x29 80 +
STACK CFI INIT 657cc dc .cfa: sp 0 +
STACK CFI 657d0 .cfa: sp 64 +
STACK CFI 657dc .cfa: x29 32 + x19: .cfa -8 + ^ x20: .cfa -16 + ^ .ra: .cfa -24 + ^ x29: .cfa -32 + ^
STACK CFI 65868 .cfa: sp 64 +
STACK CFI 65874 .cfa: sp 0 +
STACK CFI 65878 .cfa: x29 32 +
STACK CFI INIT 658a8 ca8 .cfa: sp 0 +
STACK CFI 658ac .cfa: sp 96 +
STACK CFI 658c4 .cfa: x29 96 + x19: .cfa -8 + ^ x20: .cfa -16 + ^ x21: .cfa -24 + ^ x22: .cfa -32 + ^ x23: .cfa -40 + ^ x24: .cfa -48 + ^ x25: .cfa -56 + ^ x26: .cfa -64 + ^ x27: .cfa -72 + ^ x28: .cfa -80 + ^ .ra: .cfa -88 + ^ x29: .cfa -96 + ^
STACK CFI 662f8 .cfa: sp 96 +
STACK CFI 66310 .cfa: sp 0 +
STACK CFI 66314 .cfa: x29 96 +
STACK CFI INIT 66550 430 .cfa: sp 0 +
STACK CFI 66554 .cfa: sp 192 +
STACK CFI 66568 .cfa: x29 64 + x19: .cfa -8 + ^ x20: .cfa -16 + ^ x21: .cfa -24 + ^ x22: .cfa -32 + ^ x23: .cfa -40 + ^ x24: .cfa -48 + ^ .ra: .cfa -56 + ^ x29: .cfa -64 + ^
STACK CFI 66794 .cfa: sp 192 +
STACK CFI 667a8 .cfa: sp 0 +
STACK CFI 667ac .cfa: x29 64 +
STACK CFI INIT 66980 430 .cfa: sp 0 +
STACK CFI 66984 .cfa: sp 192 +
STACK CFI 66998 .cfa: x29 64 + x19: .cfa -8 + ^ x20: .cfa -16 + ^ x21: .cfa -24 + ^ x22: .cfa -32 + ^ x23: .cfa -40 + ^ x24: .cfa -48 + ^ .ra: .cfa -56 + ^ x29: .cfa -64 + ^
STACK CFI 66bc4 .cfa: sp 192 +
STACK CFI 66bd8 .cfa: sp 0 +
STACK CFI 66bdc .cfa: x29 64 +
STACK CFI INIT 66db0 430 .cfa: sp 0 +
STACK CFI 66db4 .cfa: sp 192 +
STACK CFI 66dc8 .cfa: x29 64 + x19: .cfa -8 + ^ x20: .cfa -16 + ^ x21: .cfa -24 + ^ x22: .cfa -32 + ^ x23: .cfa -40 + ^ x24: .cfa -48 + ^ .ra: .cfa -56 + ^ x29: .cfa -64 + ^
STACK CFI 66ff4 .cfa: sp 192 +
STACK CFI 67008 .cfa: sp 0 +
STACK CFI 6700c .cfa: x29 64 +
STACK CFI INIT 671e0 1dc .cfa: sp 0 +
STACK CFI 671e4 .cfa: sp 80 +
STACK CFI 671f4 .cfa: x29 48 + x19: .cfa -8 + ^ x20: .cfa -16 + ^ x21: .cfa -24 + ^ x22: .cfa -32 + ^ .ra: .cfa -40 + ^ x29: .cfa -48 + ^
STACK CFI 67374 .cfa: sp 80 +
STACK CFI 67384 .cfa: sp 0 +
STACK CFI 67388 .cfa: x29 48 +
STACK CFI INIT 6740c 374 .cfa: sp 0 +
STACK CFI 67410 .cfa: sp 464 +
STACK CFI 67424 .cfa: x29 64 + x19: .cfa -8 + ^ x20: .cfa -16 + ^ x21: .cfa -24 + ^ x22: .cfa -32 + ^ x28: .cfa -48 + ^ .ra: .cfa -56 + ^ x29: .cfa -64 + ^
STACK CFI 6768c .cfa: sp 464 +
STACK CFI 676a0 .cfa: sp 0 +
STACK CFI 676a4 .cfa: x29 64 +
STACK CFI INIT 67780 220 .cfa: sp 0 +
STACK CFI 67784 .cfa: sp 192 +
STACK CFI 67794 .cfa: x29 48 + x19: .cfa -8 + ^ x20: .cfa -16 + ^ x21: .cfa -32 + ^ .ra: .cfa -40 + ^ x29: .cfa -48 + ^
STACK CFI 67924 .cfa: sp 192 +
STACK CFI 67934 .cfa: sp 0 +
STACK CFI 67938 .cfa: x29 48 +
STACK CFI INIT 679e4 74 .cfa: sp 0 +
STACK CFI 679e8 .cfa: sp 48 +
STACK CFI 679f4 .cfa: x29 32 + x19: .cfa -8 + ^ x20: .cfa -16 + ^ .ra: .cfa -24 + ^ x29: .cfa -32 + ^
STACK CFI 67a40 .cfa: sp 48 +
STACK CFI 67a4c .cfa: sp 0 +
STACK CFI 67a50 .cfa: x29 32 +
STACK CFI INIT 67a70 1dc .cfa: sp 0 +
STACK CFI 67a74 .cfa: sp 160 +
STACK CFI 67a8c .cfa: x29 80 + x19: .cfa -8 + ^ x20: .cfa -16 + ^ x21: .cfa -24 + ^ x22: .cfa -32 + ^ x23: .cfa -40 + ^ x24: .cfa -48 + ^ x25: .cfa -64 + ^ .ra: .cfa -72 + ^ x29: .cfa -80 + ^
STACK CFI 67be4 .cfa: sp 160 +
STACK CFI 67bfc .cfa: sp 0 +
STACK CFI 67c00 .cfa: x29 80 +
STACK CFI INIT 67e48 124 .cfa: sp 0 +
STACK CFI 67e4c .cfa: sp 128 +
STACK CFI 67e5c .cfa: x29 48 + x19: .cfa -8 + ^ x20: .cfa -16 + ^ x21: .cfa -32 + ^ .ra: .cfa -40 + ^ x29: .cfa -48 + ^
STACK CFI 67f28 .cfa: sp 128 +
STACK CFI 67f38 .cfa: sp 0 +
STACK CFI 67f3c .cfa: x29 48 +
STACK CFI INIT 67f6c 108 .cfa: sp 0 +
STACK CFI 67f70 .cfa: sp 32 +
STACK CFI 67f78 .cfa: x29 32 + x19: .cfa -8 + ^ x20: .cfa -16 + ^ .ra: .cfa -24 + ^ x29: .cfa -32 + ^
STACK CFI 68030 .cfa: sp 32 +
STACK CFI 68038 .cfa: sp 0 +
STACK CFI 6803c .cfa: x29 32 +
STACK CFI 68054 .cfa: sp 32 +
STACK CFI 6805c .cfa: sp 0 +
STACK CFI 68060 .cfa: x29 32 +
STACK CFI INIT 68074 8b0 .cfa: sp 0 +
STACK CFI 68078 .cfa: sp 112 +
STACK CFI 68094 .cfa: x29 96 + x19: .cfa -8 + ^ x20: .cfa -16 + ^ x21: .cfa -24 + ^ x22: .cfa -32 + ^ x23: .cfa -40 + ^ x24: .cfa -48 + ^ x25: .cfa -56 + ^ x26: .cfa -64 + ^ x27: .cfa -72 + ^ x28: .cfa -80 + ^ .ra: .cfa -88 + ^ x29: .cfa -96 + ^ v8: .cfa -112 + ^
STACK CFI 6882c .cfa: sp 112 +
STACK CFI 68848 .cfa: sp 0 +
STACK CFI 6884c .cfa: x29 96 +
STACK CFI INIT 68924 4e0 .cfa: sp 0 +
STACK CFI 68928 .cfa: sp 160 +
STACK CFI 68948 .cfa: x29 96 + x19: .cfa -8 + ^ x20: .cfa -16 + ^ x21: .cfa -24 + ^ x22: .cfa -32 + ^ x23: .cfa -40 + ^ x24: .cfa -48 + ^ x25: .cfa -56 + ^ x26: .cfa -64 + ^ x27: .cfa -72 + ^ x28: .cfa -80 + ^ .ra: .cfa -88 + ^ x29: .cfa -96 + ^ v8: .cfa -112 + ^
STACK CFI 68d00 .cfa: sp 160 +
STACK CFI 68d20 .cfa: sp 0 +
STACK CFI 68d24 .cfa: x29 96 +
STACK CFI INIT 68e04 1cc .cfa: sp 0 +
STACK CFI 68e08 .cfa: sp 176 +
STACK CFI 68e18 .cfa: x29 48 + x19: .cfa -8 + ^ x20: .cfa -16 + ^ x21: .cfa -32 + ^ .ra: .cfa -40 + ^ x29: .cfa -48 + ^
STACK CFI 68f10 .cfa: sp 176 +
STACK CFI 68f20 .cfa: sp 0 +
STACK CFI 68f24 .cfa: x29 48 +
STACK CFI INIT 68fd0 174 .cfa: sp 0 +
STACK CFI 68fd4 .cfa: sp 176 +
STACK CFI 68fe4 .cfa: x29 48 + x19: .cfa -8 + ^ x20: .cfa -16 + ^ x21: .cfa -32 + ^ .ra: .cfa -40 + ^ x29: .cfa -48 + ^
STACK CFI 690e0 .cfa: sp 176 +
STACK CFI 690f0 .cfa: sp 0 +
STACK CFI 690f4 .cfa: x29 48 +
STACK CFI INIT 69180 258 .cfa: sp 0 +
STACK CFI 69184 .cfa: sp 144 +
STACK CFI 691a0 .cfa: x29 96 + x19: .cfa -8 + ^ x20: .cfa -16 + ^ x21: .cfa -24 + ^ x22: .cfa -32 + ^ x23: .cfa -40 + ^ x24: .cfa -48 + ^ x25: .cfa -56 + ^ x26: .cfa -64 + ^ x27: .cfa -80 + ^ .ra: .cfa -88 + ^ x29: .cfa -96 + ^
STACK CFI 69340 .cfa: sp 144 +
STACK CFI 6935c .cfa: sp 0 +
STACK CFI 69360 .cfa: x29 96 +
STACK CFI INIT 693d8 258 .cfa: sp 0 +
STACK CFI 693dc .cfa: sp 144 +
STACK CFI 693ec .cfa: x29 48 + x19: .cfa -8 + ^ x20: .cfa -16 + ^ x21: .cfa -32 + ^ .ra: .cfa -40 + ^ x29: .cfa -48 + ^
STACK CFI 694d8 .cfa: sp 144 +
STACK CFI 694e8 .cfa: sp 0 +
STACK CFI 694ec .cfa: x29 48 +
STACK CFI INIT 69630 3f8 .cfa: sp 0 +
STACK CFI 69634 .cfa: sp 96 +
STACK CFI 69644 .cfa: x29 48 + x19: .cfa -8 + ^ x20: .cfa -16 + ^ x21: .cfa -32 + ^ .ra: .cfa -40 + ^ x29: .cfa -48 + ^
STACK CFI 6997c .cfa: sp 96 +
STACK CFI 6998c .cfa: sp 0 +
STACK CFI 69990 .cfa: x29 48 +
STACK CFI INIT 69a7c 74 .cfa: sp 0 +
STACK CFI 69a80 .cfa: sp 48 +
STACK CFI 69a8c .cfa: x29 32 + x19: .cfa -8 + ^ x20: .cfa -16 + ^ .ra: .cfa -24 + ^ x29: .cfa -32 + ^
STACK CFI 69ad8 .cfa: sp 48 +
STACK CFI 69ae4 .cfa: sp 0 +
STACK CFI 69ae8 .cfa: x29 32 +
STACK CFI INIT 69b94 1cc .cfa: sp 0 +
STACK CFI 69b98 .cfa: sp 112 +
STACK CFI 69bac .cfa: x29 64 + x19: .cfa -8 + ^ x20: .cfa -16 + ^ x21: .cfa -24 + ^ x22: .cfa -32 + ^ x23: .cfa -48 + ^ .ra: .cfa -56 + ^ x29: .cfa -64 + ^
STACK CFI 69cf8 .cfa: sp 112 +
STACK CFI 69d0c .cfa: sp 0 +
STACK CFI 69d10 .cfa: x29 64 +
STACK CFI INIT 69de0 1e8 .cfa: sp 0 +
STACK CFI 69de4 .cfa: sp 160 +
STACK CFI 69df4 .cfa: x29 48 + x19: .cfa -8 + ^ x20: .cfa -16 + ^ x21: .cfa -24 + ^ x22: .cfa -32 + ^ .ra: .cfa -40 + ^ x29: .cfa -48 + ^
STACK CFI 69f5c .cfa: sp 160 +
STACK CFI 69f6c .cfa: sp 0 +
STACK CFI 69f70 .cfa: x29 48 +
STACK CFI INIT 69ff0 11c .cfa: sp 0 +
STACK CFI 69ff4 .cfa: sp 112 +
STACK CFI 6a000 .cfa: x29 32 + x19: .cfa -8 + ^ x20: .cfa -16 + ^ .ra: .cfa -24 + ^ x29: .cfa -32 + ^
STACK CFI 6a0cc .cfa: sp 112 +
STACK CFI 6a0d8 .cfa: sp 0 +
STACK CFI 6a0dc .cfa: x29 32 +
STACK CFI INIT 6a10c 24c .cfa: sp 0 +
STACK CFI 6a110 .cfa: sp 176 +
STACK CFI 6a124 .cfa: x29 64 + x19: .cfa -8 + ^ x20: .cfa -16 + ^ x21: .cfa -24 + ^ x22: .cfa -32 + ^ x23: .cfa -48 + ^ .ra: .cfa -56 + ^ x29: .cfa -64 + ^
STACK CFI 6a2bc .cfa: sp 176 +
STACK CFI 6a2d0 .cfa: sp 0 +
STACK CFI 6a2d4 .cfa: x29 64 +
STACK CFI INIT 6a358 2e84 .cfa: sp 0 +
STACK CFI 6a35c .cfa: sp 128 +
STACK CFI 6a37c .cfa: x29 96 + x19: .cfa -8 + ^ x20: .cfa -16 + ^ x21: .cfa -24 + ^ x22: .cfa -32 + ^ x23: .cfa -40 + ^ x24: .cfa -48 + ^ x25: .cfa -56 + ^ x26: .cfa -64 + ^ x27: .cfa -72 + ^ x28: .cfa -80 + ^ .ra: .cfa -88 + ^ x29: .cfa -96 + ^ v8: .cfa -104 + ^ v9: .cfa -112 + ^ v10: .cfa -120 + ^ v11: .cfa -128 + ^
STACK CFI 6cf5c .cfa: sp 128 +
STACK CFI 6cf7c .cfa: sp 0 +
STACK CFI 6cf80 .cfa: x29 96 +
STACK CFI INIT 6d1dc 398 .cfa: sp 0 +
STACK CFI 6d1e0 .cfa: sp 160 +
STACK CFI 6d1f0 .cfa: x29 48 + x19: .cfa -8 + ^ x20: .cfa -16 + ^ x21: .cfa -24 + ^ x22: .cfa -32 + ^ .ra: .cfa -40 + ^ x29: .cfa -48 + ^
STACK CFI 6d48c .cfa: sp 160 +
STACK CFI 6d49c .cfa: sp 0 +
STACK CFI 6d4a0 .cfa: x29 48 +
STACK CFI INIT 6d574 118 .cfa: sp 0 +
STACK CFI 6d578 .cfa: sp 32 +
STACK CFI 6d580 .cfa: x29 32 + x19: .cfa -16 + ^ .ra: .cfa -24 + ^ x29: .cfa -32 + ^
STACK CFI 6d5f4 .cfa: sp 32 +
STACK CFI 6d5fc .cfa: sp 0 +
STACK CFI 6d600 .cfa: x29 32 +
STACK CFI 6d620 .cfa: sp 32 +
STACK CFI 6d628 .cfa: sp 0 +
STACK CFI 6d62c .cfa: x29 32 +
STACK CFI INIT 6d68c 250 .cfa: sp 0 +
STACK CFI 6d690 .cfa: sp 160 +
STACK CFI 6d6ac .cfa: x29 96 + x19: .cfa -8 + ^ x20: .cfa -16 + ^ x21: .cfa -24 + ^ x22: .cfa -32 + ^ x23: .cfa -40 + ^ x24: .cfa -48 + ^ x25: .cfa -56 + ^ x26: .cfa -64 + ^ x27: .cfa -72 + ^ x28: .cfa -80 + ^ .ra: .cfa -88 + ^ x29: .cfa -96 + ^
STACK CFI 6d888 .cfa: sp 160 +
STACK CFI 6d8a4 .cfa: sp 0 +
STACK CFI 6d8a8 .cfa: x29 96 +
STACK CFI INIT 6d8dc 168 .cfa: sp 0 +
STACK CFI 6d8e0 .cfa: sp 208 +
STACK CFI 6d8f0 .cfa: x29 48 + x19: .cfa -8 + ^ x20: .cfa -16 + ^ x21: .cfa -24 + ^ x22: .cfa -32 + ^ .ra: .cfa -40 + ^ x29: .cfa -48 + ^
STACK CFI 6da08 .cfa: sp 208 +
STACK CFI 6da18 .cfa: sp 0 +
STACK CFI 6da1c .cfa: x29 48 +
STACK CFI INIT 6da44 2c0 .cfa: sp 0 +
STACK CFI 6da48 .cfa: sp 80 +
STACK CFI 6da5c .cfa: x29 64 + x19: .cfa -8 + ^ x20: .cfa -16 + ^ x21: .cfa -24 + ^ x22: .cfa -32 + ^ x23: .cfa -48 + ^ .ra: .cfa -56 + ^ x29: .cfa -64 + ^
STACK CFI 6dc78 .cfa: sp 80 +
STACK CFI 6dc8c .cfa: sp 0 +
STACK CFI 6dc90 .cfa: x29 64 +
STACK CFI INIT 6dd04 428 .cfa: sp 0 +
STACK CFI 6dd08 .cfa: sp 80 +
STACK CFI 6dd1c .cfa: x29 80 + x19: .cfa -8 + ^ x20: .cfa -16 + ^ x21: .cfa -24 + ^ x22: .cfa -32 + ^ x23: .cfa -40 + ^ x24: .cfa -48 + ^ x25: .cfa -56 + ^ x28: .cfa -64 + ^ .ra: .cfa -72 + ^ x29: .cfa -80 + ^
STACK CFI 6e000 .cfa: sp 80 +
STACK CFI 6e014 .cfa: sp 0 +
STACK CFI 6e018 .cfa: x29 80 +
STACK CFI INIT 6e12c 270 .cfa: sp 0 +
STACK CFI 6e130 .cfa: sp 32 +
STACK CFI 6e138 .cfa: x29 32 + x19: .cfa -8 + ^ x20: .cfa -16 + ^ .ra: .cfa -24 + ^ x29: .cfa -32 + ^
STACK CFI 6e280 .cfa: sp 32 +
STACK CFI 6e288 .cfa: sp 0 +
STACK CFI 6e28c .cfa: x29 32 +
STACK CFI 6e334 .cfa: sp 32 +
STACK CFI 6e33c .cfa: sp 0 +
STACK CFI 6e340 .cfa: x29 32 +
STACK CFI INIT 6e39c 490 .cfa: sp 0 +
STACK CFI 6e3a0 .cfa: sp 96 +
STACK CFI 6e3b4 .cfa: x29 64 + x19: .cfa -8 + ^ x20: .cfa -16 + ^ x21: .cfa -24 + ^ x22: .cfa -32 + ^ x23: .cfa -48 + ^ .ra: .cfa -56 + ^ x29: .cfa -64 + ^
STACK CFI 6e66c .cfa: sp 96 +
STACK CFI 6e680 .cfa: sp 0 +
STACK CFI 6e684 .cfa: x29 64 +
STACK CFI INIT 6e82c d28 .cfa: sp 0 +
STACK CFI 6e830 .cfa: sp 96 +
STACK CFI 6e848 .cfa: x29 96 + x19: .cfa -8 + ^ x20: .cfa -16 + ^ x21: .cfa -24 + ^ x22: .cfa -32 + ^ x23: .cfa -40 + ^ x24: .cfa -48 + ^ x25: .cfa -56 + ^ x26: .cfa -64 + ^ x27: .cfa -72 + ^ x28: .cfa -80 + ^ .ra: .cfa -88 + ^ x29: .cfa -96 + ^
STACK CFI 6f3ac .cfa: sp 96 +
STACK CFI 6f3c4 .cfa: sp 0 +
STACK CFI 6f3c8 .cfa: x29 96 +
STACK CFI INIT 6f554 710 .cfa: sp 0 +
STACK CFI 6f558 .cfa: sp 96 +
STACK CFI 6f570 .cfa: x29 96 + x19: .cfa -8 + ^ x20: .cfa -16 + ^ x21: .cfa -24 + ^ x22: .cfa -32 + ^ x23: .cfa -40 + ^ x24: .cfa -48 + ^ x25: .cfa -56 + ^ x26: .cfa -64 + ^ x28: .cfa -80 + ^ .ra: .cfa -88 + ^ x29: .cfa -96 + ^
STACK CFI 6fab8 .cfa: sp 96 +
STACK CFI 6fad0 .cfa: sp 0 +
STACK CFI 6fad4 .cfa: x29 96 +
STACK CFI INIT 6fc64 1f4 .cfa: sp 0 +
STACK CFI 6fc68 .cfa: sp 64 +
STACK CFI 6fc78 .cfa: x29 48 + x19: .cfa -8 + ^ x20: .cfa -16 + ^ x21: .cfa -24 + ^ x22: .cfa -32 + ^ .ra: .cfa -40 + ^ x29: .cfa -48 + ^
STACK CFI 6fd6c .cfa: sp 64 +
STACK CFI 6fd7c .cfa: sp 0 +
STACK CFI 6fd80 .cfa: x29 48 +
STACK CFI INIT 6fe58 c8 .cfa: sp 0 +
STACK CFI 6fe5c .cfa: sp 32 +
STACK CFI 6fe64 .cfa: x29 32 + x19: .cfa -16 + ^ .ra: .cfa -24 + ^ x29: .cfa -32 + ^
STACK CFI 6feb4 .cfa: sp 32 +
STACK CFI 6febc .cfa: sp 0 +
STACK CFI 6fec0 .cfa: x29 32 +
STACK CFI INIT 6ff20 378 .cfa: sp 0 +
STACK CFI 6ff24 .cfa: sp 128 +
STACK CFI 6ff3c .cfa: x29 80 + x19: .cfa -8 + ^ x20: .cfa -16 + ^ x21: .cfa -24 + ^ x22: .cfa -32 + ^ x23: .cfa -40 + ^ x24: .cfa -48 + ^ x25: .cfa -56 + ^ x26: .cfa -64 + ^ .ra: .cfa -72 + ^ x29: .cfa -80 + ^
STACK CFI 70244 .cfa: sp 128 +
STACK CFI 7025c .cfa: sp 0 +
STACK CFI 70260 .cfa: x29 80 +
STACK CFI INIT 70298 244 .cfa: sp 0 +
STACK CFI 7029c .cfa: sp 224 +
STACK CFI 702ac .cfa: x29 48 + x19: .cfa -8 + ^ x20: .cfa -16 + ^ x21: .cfa -24 + ^ x22: .cfa -32 + ^ .ra: .cfa -40 + ^ x29: .cfa -48 + ^
STACK CFI 70328 .cfa: sp 224 +
STACK CFI 70338 .cfa: sp 0 +
STACK CFI 7033c .cfa: x29 48 +
STACK CFI 70444 .cfa: sp 224 +
STACK CFI 70454 .cfa: sp 0 +
STACK CFI 70458 .cfa: x29 48 +
STACK CFI INIT 70570 47c .cfa: sp 0 +
STACK CFI 70574 .cfa: sp 144 +
STACK CFI 70590 .cfa: x29 96 + x19: .cfa -8 + ^ x20: .cfa -16 + ^ x21: .cfa -24 + ^ x22: .cfa -32 + ^ x23: .cfa -40 + ^ x24: .cfa -48 + ^ x25: .cfa -56 + ^ x26: .cfa -64 + ^ x27: .cfa -80 + ^ .ra: .cfa -88 + ^ x29: .cfa -96 + ^
STACK CFI 708a4 .cfa: sp 144 +
STACK CFI 708c0 .cfa: sp 0 +
STACK CFI 708c4 .cfa: x29 96 +
STACK CFI INIT 709ec 34c .cfa: sp 0 +
STACK CFI 709f0 .cfa: sp 96 +
STACK CFI 70a08 .cfa: x29 96 + x19: .cfa -8 + ^ x20: .cfa -16 + ^ x21: .cfa -24 + ^ x22: .cfa -32 + ^ x23: .cfa -40 + ^ x24: .cfa -48 + ^ x25: .cfa -56 + ^ x26: .cfa -64 + ^ x28: .cfa -80 + ^ .ra: .cfa -88 + ^ x29: .cfa -96 + ^
STACK CFI 70c48 .cfa: sp 96 +
STACK CFI 70c60 .cfa: sp 0 +
STACK CFI 70c64 .cfa: x29 96 +
STACK CFI INIT 70dcc 494 .cfa: sp 0 +
STACK CFI 70dd0 .cfa: sp 80 +
STACK CFI 70de4 .cfa: x29 80 + x19: .cfa -8 + ^ x20: .cfa -16 + ^ x21: .cfa -24 + ^ x22: .cfa -32 + ^ x23: .cfa -40 + ^ x24: .cfa -48 + ^ x25: .cfa -56 + ^ x28: .cfa -64 + ^ .ra: .cfa -72 + ^ x29: .cfa -80 + ^
STACK CFI 7112c .cfa: sp 80 +
STACK CFI 71140 .cfa: sp 0 +
STACK CFI 71144 .cfa: x29 80 +
STACK CFI INIT 71260 288 .cfa: sp 0 +
STACK CFI 71264 .cfa: sp 80 +
STACK CFI 71278 .cfa: x29 80 + x19: .cfa -8 + ^ x20: .cfa -16 + ^ x21: .cfa -24 + ^ x22: .cfa -32 + ^ x23: .cfa -40 + ^ x24: .cfa -48 + ^ x25: .cfa -56 + ^ x28: .cfa -64 + ^ .ra: .cfa -72 + ^ x29: .cfa -80 + ^
STACK CFI 713e8 .cfa: sp 80 +
STACK CFI 713fc .cfa: sp 0 +
STACK CFI 71400 .cfa: x29 80 +
STACK CFI INIT 714e8 a8 .cfa: sp 0 +
STACK CFI 714ec .cfa: sp 48 +
STACK CFI 714f8 .cfa: x29 32 + x19: .cfa -8 + ^ x20: .cfa -16 + ^ .ra: .cfa -24 + ^ x29: .cfa -32 + ^
STACK CFI 71578 .cfa: sp 48 +
STACK CFI 71584 .cfa: sp 0 +
STACK CFI 71588 .cfa: x29 32 +
STACK CFI INIT 71590 b0 .cfa: sp 0 +
STACK CFI 71594 .cfa: sp 48 +
STACK CFI 715a0 .cfa: x29 32 + x19: .cfa -8 + ^ x20: .cfa -16 + ^ .ra: .cfa -24 + ^ x29: .cfa -32 + ^
STACK CFI 71628 .cfa: sp 48 +
STACK CFI 71634 .cfa: sp 0 +
STACK CFI 71638 .cfa: x29 32 +
STACK CFI INIT 71640 b4 .cfa: sp 0 +
STACK CFI 71644 .cfa: sp 64 +
STACK CFI 71654 .cfa: x29 48 + x19: .cfa -8 + ^ x20: .cfa -16 + ^ x21: .cfa -32 + ^ .ra: .cfa -40 + ^ x29: .cfa -48 + ^
STACK CFI 716d8 .cfa: sp 64 +
STACK CFI 716e8 .cfa: sp 0 +
STACK CFI 716ec .cfa: x29 48 +
STACK CFI INIT 716f4 bc .cfa: sp 0 +
STACK CFI 716f8 .cfa: sp 64 +
STACK CFI 71708 .cfa: x29 48 + x19: .cfa -8 + ^ x20: .cfa -16 + ^ x21: .cfa -32 + ^ .ra: .cfa -40 + ^ x29: .cfa -48 + ^
STACK CFI 71794 .cfa: sp 64 +
STACK CFI 717a4 .cfa: sp 0 +
STACK CFI 717a8 .cfa: x29 48 +
STACK CFI INIT 719ec 7c8 .cfa: sp 0 +
STACK CFI 719f0 .cfa: sp 96 +
STACK CFI 71a08 .cfa: x29 96 + x19: .cfa -8 + ^ x20: .cfa -16 + ^ x21: .cfa -24 + ^ x22: .cfa -32 + ^ x23: .cfa -40 + ^ x24: .cfa -48 + ^ x25: .cfa -56 + ^ x26: .cfa -64 + ^ x27: .cfa -72 + ^ x28: .cfa -80 + ^ .ra: .cfa -88 + ^ x29: .cfa -96 + ^
STACK CFI 71ff0 .cfa: sp 96 +
STACK CFI 72008 .cfa: sp 0 +
STACK CFI 7200c .cfa: x29 96 +
STACK CFI INIT 7248c 248 .cfa: sp 0 +
STACK CFI 72490 .cfa: sp 80 +
STACK CFI 724a4 .cfa: x29 64 + x19: .cfa -8 + ^ x20: .cfa -16 + ^ x21: .cfa -24 + ^ x22: .cfa -32 + ^ x23: .cfa -40 + ^ x24: .cfa -48 + ^ .ra: .cfa -56 + ^ x29: .cfa -64 + ^
STACK CFI 72604 .cfa: sp 80 +
STACK CFI 72618 .cfa: sp 0 +
STACK CFI 7261c .cfa: x29 64 +
STACK CFI INIT 726fc 160 .cfa: sp 0 +
STACK CFI 72700 .cfa: sp 112 +
STACK CFI 7270c .cfa: x29 32 + x19: .cfa -8 + ^ x20: .cfa -16 + ^ .ra: .cfa -24 + ^ x29: .cfa -32 + ^
STACK CFI 7281c .cfa: sp 112 +
STACK CFI 72828 .cfa: sp 0 +
STACK CFI 7282c .cfa: x29 32 +
STACK CFI INIT 72898 27e8 .cfa: sp 0 +
STACK CFI 7289c .cfa: sp 96 +
STACK CFI 728b4 .cfa: x29 96 + x19: .cfa -8 + ^ x20: .cfa -16 + ^ x21: .cfa -24 + ^ x22: .cfa -32 + ^ x23: .cfa -40 + ^ x24: .cfa -48 + ^ x25: .cfa -56 + ^ x26: .cfa -64 + ^ x27: .cfa -72 + ^ x28: .cfa -80 + ^ .ra: .cfa -88 + ^ x29: .cfa -96 + ^
STACK CFI 749a8 .cfa: sp 96 +
STACK CFI 749c0 .cfa: sp 0 +
STACK CFI 749c4 .cfa: x29 96 +
STACK CFI INIT 75080 5d8 .cfa: sp 0 +
STACK CFI 75084 .cfa: sp 176 +
STACK CFI 750a0 .cfa: x29 96 + x19: .cfa -8 + ^ x20: .cfa -16 + ^ x21: .cfa -24 + ^ x22: .cfa -32 + ^ x23: .cfa -40 + ^ x24: .cfa -48 + ^ x25: .cfa -56 + ^ x26: .cfa -64 + ^ x27: .cfa -72 + ^ x28: .cfa -80 + ^ .ra: .cfa -88 + ^ x29: .cfa -96 + ^
STACK CFI 754e0 .cfa: sp 176 +
STACK CFI 754fc .cfa: sp 0 +
STACK CFI 75500 .cfa: x29 96 +
STACK CFI INIT 75658 668 .cfa: sp 0 +
STACK CFI 7565c .cfa: sp 240 +
STACK CFI 75678 .cfa: x29 96 + x19: .cfa -8 + ^ x20: .cfa -16 + ^ x21: .cfa -24 + ^ x22: .cfa -32 + ^ x23: .cfa -40 + ^ x24: .cfa -48 + ^ x25: .cfa -56 + ^ x26: .cfa -64 + ^ x27: .cfa -72 + ^ x28: .cfa -80 + ^ .ra: .cfa -88 + ^ x29: .cfa -96 + ^
STACK CFI 75b84 .cfa: sp 240 +
STACK CFI 75ba0 .cfa: sp 0 +
STACK CFI 75ba4 .cfa: x29 96 +
STACK CFI INIT 75d54 11e4 .cfa: sp 0 +
STACK CFI 75d58 .cfa: sp 480 +
STACK CFI 75d74 .cfa: x29 96 + x19: .cfa -8 + ^ x20: .cfa -16 + ^ x21: .cfa -24 + ^ x22: .cfa -32 + ^ x23: .cfa -40 + ^ x24: .cfa -48 + ^ x25: .cfa -56 + ^ x26: .cfa -64 + ^ x27: .cfa -72 + ^ x28: .cfa -80 + ^ .ra: .cfa -88 + ^ x29: .cfa -96 + ^
STACK CFI 76bb4 .cfa: sp 480 +
STACK CFI 76bd0 .cfa: sp 0 +
STACK CFI 76bd4 .cfa: x29 96 +
STACK CFI INIT 77170 258 .cfa: sp 0 +
STACK CFI 77174 .cfa: sp 96 +
STACK CFI 77188 .cfa: x29 64 + x19: .cfa -8 + ^ x20: .cfa -16 + ^ x21: .cfa -24 + ^ x22: .cfa -32 + ^ x23: .cfa -40 + ^ x24: .cfa -48 + ^ .ra: .cfa -56 + ^ x29: .cfa -64 + ^
STACK CFI 77294 .cfa: sp 96 +
STACK CFI 772a8 .cfa: sp 0 +
STACK CFI 772ac .cfa: x29 64 +
STACK CFI 77304 .cfa: sp 96 +
STACK CFI 77318 .cfa: sp 0 +
STACK CFI 7731c .cfa: x29 64 +
STACK CFI INIT 773c8 248 .cfa: sp 0 +
STACK CFI 773cc .cfa: sp 128 +
STACK CFI 773e4 .cfa: x29 80 + x19: .cfa -8 + ^ x20: .cfa -16 + ^ x21: .cfa -24 + ^ x22: .cfa -32 + ^ x23: .cfa -40 + ^ x24: .cfa -48 + ^ x25: .cfa -56 + ^ x26: .cfa -64 + ^ .ra: .cfa -72 + ^ x29: .cfa -80 + ^
STACK CFI 7756c .cfa: sp 128 +
STACK CFI 77584 .cfa: sp 0 +
STACK CFI 77588 .cfa: x29 80 +
STACK CFI INIT 776cc 290 .cfa: sp 0 +
STACK CFI 776d0 .cfa: sp 160 +
STACK CFI 776e8 .cfa: x29 80 + x19: .cfa -8 + ^ x20: .cfa -16 + ^ x21: .cfa -24 + ^ x22: .cfa -32 + ^ x23: .cfa -40 + ^ x24: .cfa -48 + ^ x25: .cfa -56 + ^ x26: .cfa -64 + ^ .ra: .cfa -72 + ^ x29: .cfa -80 + ^
STACK CFI 77880 .cfa: sp 160 +
STACK CFI 77898 .cfa: sp 0 +
STACK CFI 7789c .cfa: x29 80 +
STACK CFI INIT 77ad4 134 .cfa: sp 0 +
STACK CFI 77ad8 .cfa: sp 80 +
STACK CFI 77ae4 .cfa: x29 32 + x19: .cfa -8 + ^ x20: .cfa -16 + ^ .ra: .cfa -24 + ^ x29: .cfa -32 + ^
STACK CFI 77b14 .cfa: sp 80 +
STACK CFI 77b20 .cfa: sp 0 +
STACK CFI 77b24 .cfa: x29 32 +
STACK CFI INIT 77c08 78 .cfa: sp 0 +
STACK CFI 77c0c .cfa: sp 32 +
STACK CFI 77c14 .cfa: x29 32 + x19: .cfa -8 + ^ x20: .cfa -16 + ^ .ra: .cfa -24 + ^ x29: .cfa -32 + ^
STACK CFI 77c20 .cfa: sp 32 +
STACK CFI 77c28 .cfa: sp 0 +
STACK CFI 77c2c .cfa: x29 32 +
STACK CFI INIT 77c80 74 .cfa: sp 0 +
STACK CFI 77c84 .cfa: sp 48 +
STACK CFI 77c90 .cfa: x29 32 + x19: .cfa -8 + ^ x20: .cfa -16 + ^ .ra: .cfa -24 + ^ x29: .cfa -32 + ^
STACK CFI 77cdc .cfa: sp 48 +
STACK CFI 77ce8 .cfa: sp 0 +
STACK CFI 77cec .cfa: x29 32 +
STACK CFI INIT 77da0 26c .cfa: sp 0 +
STACK CFI 77da4 .cfa: sp 128 +
STACK CFI 77db4 .cfa: x29 48 + x19: .cfa -8 + ^ x20: .cfa -16 + ^ x21: .cfa -32 + ^ .ra: .cfa -40 + ^ x29: .cfa -48 + ^
STACK CFI 77eac .cfa: sp 128 +
STACK CFI 77ebc .cfa: sp 0 +
STACK CFI 77ec0 .cfa: x29 48 +
STACK CFI INIT 78030 284 .cfa: sp 0 +
STACK CFI 78034 .cfa: sp 128 +
STACK CFI 78044 .cfa: x29 48 + x19: .cfa -8 + ^ x20: .cfa -16 + ^ x21: .cfa -32 + ^ .ra: .cfa -40 + ^ x29: .cfa -48 + ^
STACK CFI 7815c .cfa: sp 128 +
STACK CFI 7816c .cfa: sp 0 +
STACK CFI 78170 .cfa: x29 48 +
STACK CFI INIT 78308 28c .cfa: sp 0 +
STACK CFI 7830c .cfa: sp 128 +
STACK CFI 7831c .cfa: x29 48 + x19: .cfa -8 + ^ x20: .cfa -16 + ^ x21: .cfa -32 + ^ .ra: .cfa -40 + ^ x29: .cfa -48 + ^
STACK CFI 7843c .cfa: sp 128 +
STACK CFI 7844c .cfa: sp 0 +
STACK CFI 78450 .cfa: x29 48 +
STACK CFI INIT 78594 300 .cfa: sp 0 +
STACK CFI 78598 .cfa: sp 144 +
STACK CFI 785ac .cfa: x29 64 + x19: .cfa -8 + ^ x20: .cfa -16 + ^ x21: .cfa -24 + ^ x22: .cfa -32 + ^ x23: .cfa -48 + ^ .ra: .cfa -56 + ^ x29: .cfa -64 + ^
STACK CFI 78740 .cfa: sp 144 +
STACK CFI 78754 .cfa: sp 0 +
STACK CFI 78758 .cfa: x29 64 +
STACK CFI INIT 788e8 264 .cfa: sp 0 +
STACK CFI 788ec .cfa: sp 128 +
STACK CFI 788fc .cfa: x29 48 + x19: .cfa -8 + ^ x20: .cfa -16 + ^ x21: .cfa -32 + ^ .ra: .cfa -40 + ^ x29: .cfa -48 + ^
STACK CFI 789f4 .cfa: sp 128 +
STACK CFI 78a04 .cfa: sp 0 +
STACK CFI 78a08 .cfa: x29 48 +
STACK CFI INIT 78ba0 260 .cfa: sp 0 +
STACK CFI 78ba4 .cfa: sp 128 +
STACK CFI 78bb4 .cfa: x29 48 + x19: .cfa -8 + ^ x20: .cfa -16 + ^ x21: .cfa -32 + ^ .ra: .cfa -40 + ^ x29: .cfa -48 + ^
STACK CFI 78ca8 .cfa: sp 128 +
STACK CFI 78cb8 .cfa: sp 0 +
STACK CFI 78cbc .cfa: x29 48 +
STACK CFI INIT 78e24 184 .cfa: sp 0 +
STACK CFI 78e28 .cfa: sp 112 +
STACK CFI 78e38 .cfa: x29 48 + x19: .cfa -8 + ^ x20: .cfa -16 + ^ x21: .cfa -24 + ^ x22: .cfa -32 + ^ .ra: .cfa -40 + ^ x29: .cfa -48 + ^
STACK CFI 78e88 .cfa: sp 112 +
STACK CFI 78e98 .cfa: sp 0 +
STACK CFI 78e9c .cfa: x29 48 +
STACK CFI INIT 78fa8 160 .cfa: sp 0 +
STACK CFI 78fac .cfa: sp 144 +
STACK CFI 78fc0 .cfa: x29 64 + x19: .cfa -8 + ^ x20: .cfa -16 + ^ x21: .cfa -24 + ^ x22: .cfa -32 + ^ x23: .cfa -48 + ^ .ra: .cfa -56 + ^ x29: .cfa -64 + ^
STACK CFI 79010 .cfa: sp 144 +
STACK CFI 79024 .cfa: sp 0 +
STACK CFI 79028 .cfa: x29 64 +
STACK CFI INIT 79108 108 .cfa: sp 0 +
STACK CFI 7910c .cfa: sp 64 +
STACK CFI 7911c .cfa: x29 48 + x19: .cfa -8 + ^ x20: .cfa -16 + ^ x21: .cfa -24 + ^ x22: .cfa -32 + ^ .ra: .cfa -40 + ^ x29: .cfa -48 + ^
STACK CFI 791c8 .cfa: sp 64 +
STACK CFI 791d8 .cfa: sp 0 +
STACK CFI 791dc .cfa: x29 48 +
STACK CFI INIT 79210 174 .cfa: sp 0 +
STACK CFI 79214 .cfa: sp 128 +
STACK CFI 79224 .cfa: x29 48 + x19: .cfa -8 + ^ x20: .cfa -16 + ^ x21: .cfa -32 + ^ .ra: .cfa -40 + ^ x29: .cfa -48 + ^
STACK CFI 7926c .cfa: sp 128 +
STACK CFI 7927c .cfa: sp 0 +
STACK CFI 79280 .cfa: x29 48 +
STACK CFI INIT 79384 168 .cfa: sp 0 +
STACK CFI 79388 .cfa: sp 112 +
STACK CFI 79394 .cfa: x29 32 + x19: .cfa -8 + ^ x20: .cfa -16 + ^ .ra: .cfa -24 + ^ x29: .cfa -32 + ^
STACK CFI 793d8 .cfa: sp 112 +
STACK CFI 793e4 .cfa: sp 0 +
STACK CFI 793e8 .cfa: x29 32 +
STACK CFI INIT 794ec 154 .cfa: sp 0 +
STACK CFI 794f0 .cfa: sp 112 +
STACK CFI 794fc .cfa: x29 32 + x19: .cfa -8 + ^ x20: .cfa -16 + ^ .ra: .cfa -24 + ^ x29: .cfa -32 + ^
STACK CFI 7953c .cfa: sp 112 +
STACK CFI 79548 .cfa: sp 0 +
STACK CFI 7954c .cfa: x29 32 +
STACK CFI INIT 79640 240 .cfa: sp 0 +
STACK CFI 79644 .cfa: sp 128 +
STACK CFI 79654 .cfa: x29 48 + x19: .cfa -8 + ^ x20: .cfa -16 + ^ x21: .cfa -24 + ^ x22: .cfa -32 + ^ .ra: .cfa -40 + ^ x29: .cfa -48 + ^
STACK CFI 79728 .cfa: sp 128 +
STACK CFI 79738 .cfa: sp 0 +
STACK CFI 7973c .cfa: x29 48 +
STACK CFI INIT 798d4 1b8 .cfa: sp 0 +
STACK CFI 798d8 .cfa: sp 160 +
STACK CFI 798f4 .cfa: x29 72 + x19: .cfa -8 + ^ x20: .cfa -16 + ^ x21: .cfa -24 + ^ x22: .cfa -32 + ^ x23: .cfa -40 + ^ x24: .cfa -48 + ^ x25: .cfa -56 + ^ .ra: .cfa -64 + ^ x29: .cfa -72 + ^ v8: .cfa -80 + ^
STACK CFI 79978 .cfa: sp 160 +
STACK CFI 79994 .cfa: sp 0 +
STACK CFI 79998 .cfa: x29 72 +
STACK CFI INIT 79a8c 4e4 .cfa: sp 0 +
STACK CFI 79a90 .cfa: sp 96 +
STACK CFI 79aa8 .cfa: x29 80 + x19: .cfa -8 + ^ x20: .cfa -16 + ^ x21: .cfa -24 + ^ x22: .cfa -32 + ^ x23: .cfa -40 + ^ x24: .cfa -48 + ^ x25: .cfa -64 + ^ .ra: .cfa -72 + ^ x29: .cfa -80 + ^
STACK CFI 79eec .cfa: sp 96 +
STACK CFI 79f04 .cfa: sp 0 +
STACK CFI 79f08 .cfa: x29 80 +
STACK CFI INIT 79f70 2b8 .cfa: sp 0 +
STACK CFI 79f74 .cfa: sp 144 +
STACK CFI 79f88 .cfa: x29 64 + x19: .cfa -8 + ^ x20: .cfa -16 + ^ x21: .cfa -24 + ^ x22: .cfa -32 + ^ x23: .cfa -48 + ^ .ra: .cfa -56 + ^ x29: .cfa -64 + ^
STACK CFI 7a0d4 .cfa: sp 144 +
STACK CFI 7a0e8 .cfa: sp 0 +
STACK CFI 7a0ec .cfa: x29 64 +
STACK CFI INIT 7a228 178 .cfa: sp 0 +
STACK CFI 7a22c .cfa: sp 128 +
STACK CFI 7a23c .cfa: x29 48 + x19: .cfa -8 + ^ x20: .cfa -16 + ^ x21: .cfa -24 + ^ x22: .cfa -32 + ^ .ra: .cfa -40 + ^ x29: .cfa -48 + ^
STACK CFI 7a298 .cfa: sp 128 +
STACK CFI 7a2a8 .cfa: sp 0 +
STACK CFI 7a2ac .cfa: x29 48 +
STACK CFI INIT 7a3a0 a4 .cfa: sp 0 +
STACK CFI 7a3a4 .cfa: sp 48 +
STACK CFI 7a3b0 .cfa: x29 48 + x19: .cfa -8 + ^ x20: .cfa -16 + ^ x21: .cfa -32 + ^ .ra: .cfa -40 + ^ x29: .cfa -48 + ^
STACK CFI 7a41c .cfa: sp 48 +
STACK CFI 7a428 .cfa: sp 0 +
STACK CFI 7a42c .cfa: x29 48 +
STACK CFI INIT 7a444 178 .cfa: sp 0 +
STACK CFI 7a448 .cfa: sp 128 +
STACK CFI 7a458 .cfa: x29 48 + x19: .cfa -8 + ^ x20: .cfa -16 + ^ x21: .cfa -24 + ^ x22: .cfa -32 + ^ .ra: .cfa -40 + ^ x29: .cfa -48 + ^
STACK CFI 7a4b4 .cfa: sp 128 +
STACK CFI 7a4c4 .cfa: sp 0 +
STACK CFI 7a4c8 .cfa: x29 48 +
STACK CFI INIT 7a5bc 2c0 .cfa: sp 0 +
STACK CFI 7a5c0 .cfa: sp 144 +
STACK CFI 7a5d4 .cfa: x29 64 + x19: .cfa -8 + ^ x20: .cfa -16 + ^ x21: .cfa -24 + ^ x22: .cfa -32 + ^ x23: .cfa -48 + ^ .ra: .cfa -56 + ^ x29: .cfa -64 + ^
STACK CFI 7a728 .cfa: sp 144 +
STACK CFI 7a73c .cfa: sp 0 +
STACK CFI 7a740 .cfa: x29 64 +
STACK CFI INIT 7a87c 178 .cfa: sp 0 +
STACK CFI 7a880 .cfa: sp 128 +
STACK CFI 7a890 .cfa: x29 48 + x19: .cfa -8 + ^ x20: .cfa -16 + ^ x21: .cfa -24 + ^ x22: .cfa -32 + ^ .ra: .cfa -40 + ^ x29: .cfa -48 + ^
STACK CFI 7a8ec .cfa: sp 128 +
STACK CFI 7a8fc .cfa: sp 0 +
STACK CFI 7a900 .cfa: x29 48 +
STACK CFI INIT 7a9f4 a4 .cfa: sp 0 +
STACK CFI 7a9f8 .cfa: sp 48 +
STACK CFI 7aa04 .cfa: x29 48 + x19: .cfa -8 + ^ x20: .cfa -16 + ^ x21: .cfa -32 + ^ .ra: .cfa -40 + ^ x29: .cfa -48 + ^
STACK CFI 7aa70 .cfa: sp 48 +
STACK CFI 7aa7c .cfa: sp 0 +
STACK CFI 7aa80 .cfa: x29 48 +
STACK CFI INIT 7aa98 83c .cfa: sp 0 +
STACK CFI 7aa9c .cfa: sp 144 +
STACK CFI 7aab0 .cfa: x29 64 + x19: .cfa -8 + ^ x20: .cfa -16 + ^ x21: .cfa -24 + ^ x22: .cfa -32 + ^ x23: .cfa -48 + ^ .ra: .cfa -56 + ^ x29: .cfa -64 + ^
STACK CFI 7b10c .cfa: sp 144 +
STACK CFI 7b120 .cfa: sp 0 +
STACK CFI 7b124 .cfa: x29 64 +
STACK CFI INIT 7b2d4 7b0 .cfa: sp 0 +
STACK CFI 7b2d8 .cfa: sp 80 +
STACK CFI 7b2ec .cfa: x29 80 + x19: .cfa -8 + ^ x20: .cfa -16 + ^ x21: .cfa -24 + ^ x22: .cfa -32 + ^ x23: .cfa -40 + ^ x24: .cfa -48 + ^ x25: .cfa -56 + ^ x26: .cfa -64 + ^ .ra: .cfa -72 + ^ x29: .cfa -80 + ^
STACK CFI 7b708 .cfa: sp 80 +
STACK CFI 7b71c .cfa: sp 0 +
STACK CFI 7b720 .cfa: x29 80 +
STACK CFI INIT 7bad8 16c .cfa: sp 0 +
STACK CFI 7badc .cfa: sp 160 +
STACK CFI 7baf4 .cfa: x29 80 + x19: .cfa -8 + ^ x20: .cfa -16 + ^ x21: .cfa -24 + ^ x22: .cfa -32 + ^ x23: .cfa -40 + ^ x24: .cfa -48 + ^ x25: .cfa -56 + ^ x26: .cfa -64 + ^ .ra: .cfa -72 + ^ x29: .cfa -80 + ^
STACK CFI 7bb5c .cfa: sp 160 +
STACK CFI 7bb74 .cfa: sp 0 +
STACK CFI 7bb78 .cfa: x29 80 +
STACK CFI INIT 7bc44 4ac .cfa: sp 0 +
STACK CFI 7bc48 .cfa: sp 128 +
STACK CFI 7bc60 .cfa: x29 80 + x19: .cfa -8 + ^ x20: .cfa -16 + ^ x21: .cfa -24 + ^ x22: .cfa -32 + ^ x23: .cfa -40 + ^ x24: .cfa -48 + ^ x25: .cfa -64 + ^ .ra: .cfa -72 + ^ x29: .cfa -80 + ^
STACK CFI 7c06c .cfa: sp 128 +
STACK CFI 7c084 .cfa: sp 0 +
STACK CFI 7c088 .cfa: x29 80 +
STACK CFI INIT 7c0f8 17c .cfa: sp 0 +
STACK CFI 7c0fc .cfa: sp 176 +
STACK CFI 7c118 .cfa: x29 80 + x19: .cfa -8 + ^ x20: .cfa -16 + ^ x21: .cfa -24 + ^ x22: .cfa -32 + ^ x23: .cfa -40 + ^ x24: .cfa -48 + ^ x25: .cfa -56 + ^ x26: .cfa -64 + ^ .ra: .cfa -72 + ^ x29: .cfa -80 + ^ v8: .cfa -96 + ^
STACK CFI 7c188 .cfa: sp 176 +
STACK CFI 7c1a4 .cfa: sp 0 +
STACK CFI 7c1a8 .cfa: x29 80 +
STACK CFI INIT 7c274 5ac .cfa: sp 0 +
STACK CFI 7c278 .cfa: sp 128 +
STACK CFI 7c290 .cfa: x29 80 + x19: .cfa -8 + ^ x20: .cfa -16 + ^ x21: .cfa -24 + ^ x22: .cfa -32 + ^ x23: .cfa -40 + ^ x24: .cfa -48 + ^ x25: .cfa -64 + ^ .ra: .cfa -72 + ^ x29: .cfa -80 + ^
STACK CFI 7c78c .cfa: sp 128 +
STACK CFI 7c7a4 .cfa: sp 0 +
STACK CFI 7c7a8 .cfa: x29 80 +
STACK CFI INIT 7c828 15c .cfa: sp 0 +
STACK CFI 7c82c .cfa: sp 144 +
STACK CFI 7c844 .cfa: x29 56 + x19: .cfa -8 + ^ x20: .cfa -16 + ^ x21: .cfa -24 + ^ x22: .cfa -32 + ^ x23: .cfa -40 + ^ .ra: .cfa -48 + ^ x29: .cfa -56 + ^ v8: .cfa -64 + ^
STACK CFI 7c89c .cfa: sp 144 +
STACK CFI 7c8b4 .cfa: sp 0 +
STACK CFI 7c8b8 .cfa: x29 56 +
STACK CFI INIT 7c984 2d4 .cfa: sp 0 +
STACK CFI 7c988 .cfa: sp 96 +
STACK CFI 7c9a0 .cfa: x29 80 + x19: .cfa -8 + ^ x20: .cfa -16 + ^ x21: .cfa -24 + ^ x22: .cfa -32 + ^ x23: .cfa -40 + ^ x24: .cfa -48 + ^ x25: .cfa -64 + ^ .ra: .cfa -72 + ^ x29: .cfa -80 + ^
STACK CFI 7cbf4 .cfa: sp 96 +
STACK CFI 7cc0c .cfa: sp 0 +
STACK CFI 7cc10 .cfa: x29 80 +
STACK CFI INIT 7cc60 14c .cfa: sp 0 +
STACK CFI 7cc64 .cfa: sp 144 +
STACK CFI 7cc78 .cfa: x29 64 + x19: .cfa -8 + ^ x20: .cfa -16 + ^ x21: .cfa -24 + ^ x22: .cfa -32 + ^ x23: .cfa -48 + ^ .ra: .cfa -56 + ^ x29: .cfa -64 + ^
STACK CFI 7ccc8 .cfa: sp 144 +
STACK CFI 7ccdc .cfa: sp 0 +
STACK CFI 7cce0 .cfa: x29 64 +
STACK CFI INIT 7cdac 108 .cfa: sp 0 +
STACK CFI 7cdb0 .cfa: sp 64 +
STACK CFI 7cdc0 .cfa: x29 48 + x19: .cfa -8 + ^ x20: .cfa -16 + ^ x21: .cfa -24 + ^ x22: .cfa -32 + ^ .ra: .cfa -40 + ^ x29: .cfa -48 + ^
STACK CFI 7ce6c .cfa: sp 64 +
STACK CFI 7ce7c .cfa: sp 0 +
STACK CFI 7ce80 .cfa: x29 48 +
STACK CFI INIT 7cecc 164 .cfa: sp 0 +
STACK CFI 7ced0 .cfa: sp 160 +
STACK CFI 7cee8 .cfa: x29 80 + x19: .cfa -8 + ^ x20: .cfa -16 + ^ x21: .cfa -24 + ^ x22: .cfa -32 + ^ x23: .cfa -40 + ^ x24: .cfa -48 + ^ x25: .cfa -64 + ^ .ra: .cfa -72 + ^ x29: .cfa -80 + ^
STACK CFI 7cf48 .cfa: sp 160 +
STACK CFI 7cf60 .cfa: sp 0 +
STACK CFI 7cf64 .cfa: x29 80 +
STACK CFI INIT 7d030 3d4 .cfa: sp 0 +
STACK CFI 7d034 .cfa: sp 96 +
STACK CFI 7d04c .cfa: x29 80 + x19: .cfa -8 + ^ x20: .cfa -16 + ^ x21: .cfa -24 + ^ x22: .cfa -32 + ^ x23: .cfa -40 + ^ x24: .cfa -48 + ^ x25: .cfa -64 + ^ .ra: .cfa -72 + ^ x29: .cfa -80 + ^
STACK CFI 7d390 .cfa: sp 96 +
STACK CFI 7d3a8 .cfa: sp 0 +
STACK CFI 7d3ac .cfa: x29 80 +
STACK CFI INIT 7d404 17c .cfa: sp 0 +
STACK CFI 7d408 .cfa: sp 176 +
STACK CFI 7d424 .cfa: x29 96 + x19: .cfa -8 + ^ x20: .cfa -16 + ^ x21: .cfa -24 + ^ x22: .cfa -32 + ^ x23: .cfa -40 + ^ x24: .cfa -48 + ^ x25: .cfa -56 + ^ x26: .cfa -64 + ^ x27: .cfa -80 + ^ .ra: .cfa -88 + ^ x29: .cfa -96 + ^
STACK CFI 7d494 .cfa: sp 176 +
STACK CFI 7d4b0 .cfa: sp 0 +
STACK CFI 7d4b4 .cfa: x29 96 +
STACK CFI INIT 7d580 5d4 .cfa: sp 0 +
STACK CFI 7d584 .cfa: sp 96 +
STACK CFI 7d59c .cfa: x29 80 + x19: .cfa -8 + ^ x20: .cfa -16 + ^ x21: .cfa -24 + ^ x22: .cfa -32 + ^ x23: .cfa -40 + ^ x24: .cfa -48 + ^ x25: .cfa -64 + ^ .ra: .cfa -72 + ^ x29: .cfa -80 + ^
STACK CFI 7dac0 .cfa: sp 96 +
STACK CFI 7dad8 .cfa: sp 0 +
STACK CFI 7dadc .cfa: x29 80 +
STACK CFI INIT 7db54 14c .cfa: sp 0 +
STACK CFI 7db58 .cfa: sp 144 +
STACK CFI 7db6c .cfa: x29 64 + x19: .cfa -8 + ^ x20: .cfa -16 + ^ x21: .cfa -24 + ^ x22: .cfa -32 + ^ x23: .cfa -48 + ^ .ra: .cfa -56 + ^ x29: .cfa -64 + ^
STACK CFI 7dbbc .cfa: sp 144 +
STACK CFI 7dbd0 .cfa: sp 0 +
STACK CFI 7dbd4 .cfa: x29 64 +
STACK CFI INIT 7dca0 108 .cfa: sp 0 +
STACK CFI 7dca4 .cfa: sp 64 +
STACK CFI 7dcb4 .cfa: x29 48 + x19: .cfa -8 + ^ x20: .cfa -16 + ^ x21: .cfa -24 + ^ x22: .cfa -32 + ^ .ra: .cfa -40 + ^ x29: .cfa -48 + ^
STACK CFI 7dd60 .cfa: sp 64 +
STACK CFI 7dd70 .cfa: sp 0 +
STACK CFI 7dd74 .cfa: x29 48 +
STACK CFI INIT 7dda8 32c .cfa: sp 0 +
STACK CFI 7ddac .cfa: sp 144 +
STACK CFI 7ddc0 .cfa: x29 64 + x19: .cfa -8 + ^ x20: .cfa -16 + ^ x21: .cfa -24 + ^ x22: .cfa -32 + ^ x23: .cfa -48 + ^ .ra: .cfa -56 + ^ x29: .cfa -64 + ^
STACK CFI 7df80 .cfa: sp 144 +
STACK CFI 7df94 .cfa: sp 0 +
STACK CFI 7df98 .cfa: x29 64 +
STACK CFI INIT 7e128 14c .cfa: sp 0 +
STACK CFI 7e12c .cfa: sp 144 +
STACK CFI 7e140 .cfa: x29 64 + x19: .cfa -8 + ^ x20: .cfa -16 + ^ x21: .cfa -24 + ^ x22: .cfa -32 + ^ x23: .cfa -48 + ^ .ra: .cfa -56 + ^ x29: .cfa -64 + ^
STACK CFI 7e190 .cfa: sp 144 +
STACK CFI 7e1a4 .cfa: sp 0 +
STACK CFI 7e1a8 .cfa: x29 64 +
STACK CFI INIT 7e274 108 .cfa: sp 0 +
STACK CFI 7e278 .cfa: sp 64 +
STACK CFI 7e288 .cfa: x29 48 + x19: .cfa -8 + ^ x20: .cfa -16 + ^ x21: .cfa -24 + ^ x22: .cfa -32 + ^ .ra: .cfa -40 + ^ x29: .cfa -48 + ^
STACK CFI 7e334 .cfa: sp 64 +
STACK CFI 7e344 .cfa: sp 0 +
STACK CFI 7e348 .cfa: x29 48 +
STACK CFI INIT 7e37c 1c4 .cfa: sp 0 +
STACK CFI 7e380 .cfa: sp 176 +
STACK CFI 7e398 .cfa: x29 64 + x19: .cfa -8 + ^ x20: .cfa -16 + ^ x21: .cfa -24 + ^ x22: .cfa -32 + ^ x23: .cfa -48 + ^ .ra: .cfa -56 + ^ x29: .cfa -64 + ^ v8: .cfa -72 + ^ v9: .cfa -80 + ^
STACK CFI 7e428 .cfa: sp 176 +
STACK CFI 7e440 .cfa: sp 0 +
STACK CFI 7e444 .cfa: x29 64 +
STACK CFI INIT 7e540 3d4 .cfa: sp 0 +
STACK CFI 7e544 .cfa: sp 112 +
STACK CFI 7e55c .cfa: x29 80 + x19: .cfa -8 + ^ x20: .cfa -16 + ^ x21: .cfa -24 + ^ x22: .cfa -32 + ^ x23: .cfa -40 + ^ x24: .cfa -48 + ^ x25: .cfa -64 + ^ .ra: .cfa -72 + ^ x29: .cfa -80 + ^
STACK CFI 7e8a0 .cfa: sp 112 +
STACK CFI 7e8b8 .cfa: sp 0 +
STACK CFI 7e8bc .cfa: x29 80 +
STACK CFI INIT 7e914 1c8 .cfa: sp 0 +
STACK CFI 7e918 .cfa: sp 192 +
STACK CFI 7e934 .cfa: x29 64 + x19: .cfa -8 + ^ x20: .cfa -16 + ^ x21: .cfa -24 + ^ x22: .cfa -32 + ^ x23: .cfa -40 + ^ x24: .cfa -48 + ^ .ra: .cfa -56 + ^ x29: .cfa -64 + ^ v8: .cfa -72 + ^ v9: .cfa -80 + ^ v10: .cfa -96 + ^
STACK CFI 7e9c8 .cfa: sp 192 +
STACK CFI 7e9e4 .cfa: sp 0 +
STACK CFI 7e9e8 .cfa: x29 64 +
STACK CFI INIT 7eadc 5bc .cfa: sp 0 +
STACK CFI 7eae0 .cfa: sp 112 +
STACK CFI 7eaf8 .cfa: x29 80 + x19: .cfa -8 + ^ x20: .cfa -16 + ^ x21: .cfa -24 + ^ x22: .cfa -32 + ^ x23: .cfa -40 + ^ x24: .cfa -48 + ^ x25: .cfa -64 + ^ .ra: .cfa -72 + ^ x29: .cfa -80 + ^
STACK CFI 7f004 .cfa: sp 112 +
STACK CFI 7f01c .cfa: sp 0 +
STACK CFI 7f020 .cfa: x29 80 +
STACK CFI INIT 7f098 178 .cfa: sp 0 +
STACK CFI 7f09c .cfa: sp 128 +
STACK CFI 7f0ac .cfa: x29 48 + x19: .cfa -8 + ^ x20: .cfa -16 + ^ x21: .cfa -24 + ^ x22: .cfa -32 + ^ .ra: .cfa -40 + ^ x29: .cfa -48 + ^
STACK CFI 7f108 .cfa: sp 128 +
STACK CFI 7f118 .cfa: sp 0 +
STACK CFI 7f11c .cfa: x29 48 +
STACK CFI INIT 7f210 a4 .cfa: sp 0 +
STACK CFI 7f214 .cfa: sp 48 +
STACK CFI 7f220 .cfa: x29 48 + x19: .cfa -8 + ^ x20: .cfa -16 + ^ x21: .cfa -32 + ^ .ra: .cfa -40 + ^ x29: .cfa -48 + ^
STACK CFI 7f28c .cfa: sp 48 +
STACK CFI 7f298 .cfa: sp 0 +
STACK CFI 7f29c .cfa: x29 48 +
STACK CFI INIT 7f2b8 2e4 .cfa: sp 0 +
STACK CFI 7f2bc .cfa: sp 144 +
STACK CFI 7f2d0 .cfa: x29 64 + x19: .cfa -8 + ^ x20: .cfa -16 + ^ x21: .cfa -24 + ^ x22: .cfa -32 + ^ x23: .cfa -48 + ^ .ra: .cfa -56 + ^ x29: .cfa -64 + ^
STACK CFI 7f448 .cfa: sp 144 +
STACK CFI 7f45c .cfa: sp 0 +
STACK CFI 7f460 .cfa: x29 64 +
STACK CFI INIT 7f59c 2e4 .cfa: sp 0 +
STACK CFI 7f5a0 .cfa: sp 144 +
STACK CFI 7f5b4 .cfa: x29 64 + x19: .cfa -8 + ^ x20: .cfa -16 + ^ x21: .cfa -24 + ^ x22: .cfa -32 + ^ x23: .cfa -48 + ^ .ra: .cfa -56 + ^ x29: .cfa -64 + ^
STACK CFI 7f72c .cfa: sp 144 +
STACK CFI 7f740 .cfa: sp 0 +
STACK CFI 7f744 .cfa: x29 64 +
STACK CFI INIT 7f880 2a0 .cfa: sp 0 +
STACK CFI 7f884 .cfa: sp 144 +
STACK CFI 7f898 .cfa: x29 64 + x19: .cfa -8 + ^ x20: .cfa -16 + ^ x21: .cfa -24 + ^ x22: .cfa -32 + ^ x23: .cfa -48 + ^ .ra: .cfa -56 + ^ x29: .cfa -64 + ^
STACK CFI 7f9cc .cfa: sp 144 +
STACK CFI 7f9e0 .cfa: sp 0 +
STACK CFI 7f9e4 .cfa: x29 64 +
STACK CFI INIT 7fb20 2f0 .cfa: sp 0 +
STACK CFI 7fb24 .cfa: sp 144 +
STACK CFI 7fb38 .cfa: x29 64 + x19: .cfa -8 + ^ x20: .cfa -16 + ^ x21: .cfa -24 + ^ x22: .cfa -32 + ^ x23: .cfa -48 + ^ .ra: .cfa -56 + ^ x29: .cfa -64 + ^
STACK CFI 7fcbc .cfa: sp 144 +
STACK CFI 7fcd0 .cfa: sp 0 +
STACK CFI 7fcd4 .cfa: x29 64 +
STACK CFI INIT 7fe10 4f4 .cfa: sp 0 +
STACK CFI 7fe14 .cfa: sp 144 +
STACK CFI 7fe28 .cfa: x29 64 + x19: .cfa -8 + ^ x20: .cfa -16 + ^ x21: .cfa -24 + ^ x22: .cfa -32 + ^ x23: .cfa -48 + ^ .ra: .cfa -56 + ^ x29: .cfa -64 + ^
STACK CFI 8015c .cfa: sp 144 +
STACK CFI 80170 .cfa: sp 0 +
STACK CFI 80174 .cfa: x29 64 +
STACK CFI INIT 80304 154 .cfa: sp 0 +
STACK CFI 80308 .cfa: sp 384 +
STACK CFI 8031c .cfa: x29 64 + x19: .cfa -8 + ^ x20: .cfa -16 + ^ x21: .cfa -24 + ^ x22: .cfa -32 + ^ x23: .cfa -40 + ^ x28: .cfa -48 + ^ .ra: .cfa -56 + ^ x29: .cfa -64 + ^
STACK CFI 80400 .cfa: sp 384 +
STACK CFI 80414 .cfa: sp 0 +
STACK CFI 80418 .cfa: x29 64 +
STACK CFI INIT 80470 50c .cfa: sp 0 +
STACK CFI 80474 .cfa: sp 64 +
STACK CFI 80484 .cfa: x29 64 + x19: .cfa -8 + ^ x20: .cfa -16 + ^ x21: .cfa -24 + ^ x22: .cfa -32 + ^ x23: .cfa -40 + ^ x24: .cfa -48 + ^ .ra: .cfa -56 + ^ x29: .cfa -64 + ^
STACK CFI 805a4 .cfa: sp 64 +
STACK CFI 805b4 .cfa: sp 0 +
STACK CFI 805b8 .cfa: x29 64 +
STACK CFI 80950 .cfa: sp 64 +
STACK CFI 80960 .cfa: sp 0 +
STACK CFI 80964 .cfa: x29 64 +
STACK CFI INIT 80cac 294 .cfa: sp 0 +
STACK CFI 80cb0 .cfa: sp 240 +
STACK CFI 80cc8 .cfa: x29 80 + x19: .cfa -8 + ^ x20: .cfa -16 + ^ x21: .cfa -24 + ^ x22: .cfa -32 + ^ x23: .cfa -40 + ^ x24: .cfa -48 + ^ x25: .cfa -64 + ^ .ra: .cfa -72 + ^ x29: .cfa -80 + ^
STACK CFI 80e68 .cfa: sp 240 +
STACK CFI 80e80 .cfa: sp 0 +
STACK CFI 80e84 .cfa: x29 80 +
STACK CFI INIT 80fbc 50 .cfa: sp 0 +
STACK CFI 80fc0 .cfa: sp 32 +
STACK CFI 80fc8 .cfa: x29 32 + x19: .cfa -8 + ^ x20: .cfa -16 + ^ .ra: .cfa -24 + ^ x29: .cfa -32 + ^
STACK CFI INIT 81038 7c0 .cfa: sp 0 +
STACK CFI 8103c .cfa: sp 320 +
STACK CFI 81058 .cfa: x29 96 + x19: .cfa -8 + ^ x20: .cfa -16 + ^ x21: .cfa -24 + ^ x22: .cfa -32 + ^ x23: .cfa -40 + ^ x24: .cfa -48 + ^ x25: .cfa -56 + ^ x26: .cfa -64 + ^ x27: .cfa -72 + ^ x28: .cfa -80 + ^ .ra: .cfa -88 + ^ x29: .cfa -96 + ^
STACK CFI 816a8 .cfa: sp 320 +
STACK CFI 816c4 .cfa: sp 0 +
STACK CFI 816c8 .cfa: x29 96 +
STACK CFI INIT 8185c 13c .cfa: sp 0 +
STACK CFI 81860 .cfa: sp 80 +
STACK CFI 81874 .cfa: x29 80 + x19: .cfa -8 + ^ x20: .cfa -16 + ^ x21: .cfa -24 + ^ x22: .cfa -32 + ^ x23: .cfa -40 + ^ x24: .cfa -48 + ^ x28: .cfa -64 + ^ .ra: .cfa -72 + ^ x29: .cfa -80 + ^
STACK CFI 81908 .cfa: sp 80 +
STACK CFI 8191c .cfa: sp 0 +
STACK CFI 81920 .cfa: x29 80 +
STACK CFI INIT 85cb4 c74 .cfa: sp 0 +
STACK CFI 85cb8 .cfa: sp 96 +
STACK CFI 85cd0 .cfa: x29 96 + x19: .cfa -8 + ^ x20: .cfa -16 + ^ x21: .cfa -24 + ^ x22: .cfa -32 + ^ x23: .cfa -40 + ^ x24: .cfa -48 + ^ x25: .cfa -56 + ^ x26: .cfa -64 + ^ x27: .cfa -72 + ^ x28: .cfa -80 + ^ .ra: .cfa -88 + ^ x29: .cfa -96 + ^
STACK CFI 86748 .cfa: sp 96 +
STACK CFI 86760 .cfa: sp 0 +
STACK CFI 86764 .cfa: x29 96 +
STACK CFI INIT 86a7c 26c .cfa: sp 0 +
STACK CFI 86a80 .cfa: sp 128 +
STACK CFI 86a90 .cfa: x29 48 + x19: .cfa -8 + ^ x20: .cfa -16 + ^ x21: .cfa -24 + ^ x22: .cfa -32 + ^ .ra: .cfa -40 + ^ x29: .cfa -48 + ^
STACK CFI 86c34 .cfa: sp 128 +
STACK CFI 86c44 .cfa: sp 0 +
STACK CFI 86c48 .cfa: x29 48 +
STACK CFI INIT 87078 3b8 .cfa: sp 0 +
STACK CFI 8707c .cfa: sp 96 +
STACK CFI 87094 .cfa: x29 96 + x19: .cfa -8 + ^ x20: .cfa -16 + ^ x21: .cfa -24 + ^ x22: .cfa -32 + ^ x23: .cfa -40 + ^ x24: .cfa -48 + ^ x25: .cfa -56 + ^ x26: .cfa -64 + ^ x27: .cfa -72 + ^ x28: .cfa -80 + ^ .ra: .cfa -88 + ^ x29: .cfa -96 + ^
STACK CFI 873d0 .cfa: sp 96 +
STACK CFI 873e8 .cfa: sp 0 +
STACK CFI 873ec .cfa: x29 96 +
STACK CFI INIT 874d0 cb4 .cfa: sp 0 +
STACK CFI 874d4 .cfa: sp 96 +
STACK CFI 874ec .cfa: x29 96 + x19: .cfa -8 + ^ x20: .cfa -16 + ^ x21: .cfa -24 + ^ x22: .cfa -32 + ^ x23: .cfa -40 + ^ x24: .cfa -48 + ^ x25: .cfa -56 + ^ x26: .cfa -64 + ^ x27: .cfa -72 + ^ x28: .cfa -80 + ^ .ra: .cfa -88 + ^ x29: .cfa -96 + ^
STACK CFI 87f94 .cfa: sp 96 +
STACK CFI 87fac .cfa: sp 0 +
STACK CFI 87fb0 .cfa: x29 96 +
STACK CFI INIT 8846c afc .cfa: sp 0 +
STACK CFI 88470 .cfa: sp 96 +
STACK CFI 88488 .cfa: x29 96 + x19: .cfa -8 + ^ x20: .cfa -16 + ^ x21: .cfa -24 + ^ x22: .cfa -32 + ^ x23: .cfa -40 + ^ x24: .cfa -48 + ^ x25: .cfa -56 + ^ x26: .cfa -64 + ^ x27: .cfa -72 + ^ x28: .cfa -80 + ^ .ra: .cfa -88 + ^ x29: .cfa -96 + ^
STACK CFI 88edc .cfa: sp 96 +
STACK CFI 88ef4 .cfa: sp 0 +
STACK CFI 88ef8 .cfa: x29 96 +
STACK CFI INIT 89144 1430 .cfa: sp 0 +
STACK CFI 89148 .cfa: sp 96 +
STACK CFI 89160 .cfa: x29 96 + x19: .cfa -8 + ^ x20: .cfa -16 + ^ x21: .cfa -24 + ^ x22: .cfa -32 + ^ x23: .cfa -40 + ^ x24: .cfa -48 + ^ x25: .cfa -56 + ^ x26: .cfa -64 + ^ x27: .cfa -72 + ^ x28: .cfa -80 + ^ .ra: .cfa -88 + ^ x29: .cfa -96 + ^
STACK CFI 8a3fc .cfa: sp 96 +
STACK CFI 8a414 .cfa: sp 0 +
STACK CFI 8a418 .cfa: x29 96 +
STACK CFI INIT 8a698 75c .cfa: sp 0 +
STACK CFI 8a69c .cfa: sp 368 +
STACK CFI 8a6b8 .cfa: x29 96 + x19: .cfa -8 + ^ x20: .cfa -16 + ^ x21: .cfa -24 + ^ x22: .cfa -32 + ^ x23: .cfa -40 + ^ x24: .cfa -48 + ^ x25: .cfa -56 + ^ x26: .cfa -64 + ^ x27: .cfa -72 + ^ x28: .cfa -80 + ^ .ra: .cfa -88 + ^ x29: .cfa -96 + ^
STACK CFI 8a76c .cfa: sp 368 +
STACK CFI 8a788 .cfa: sp 0 +
STACK CFI 8a78c .cfa: x29 96 +
STACK CFI 8a7e0 .cfa: sp 368 +
STACK CFI 8a7fc .cfa: sp 0 +
STACK CFI 8a800 .cfa: x29 96 +
STACK CFI INIT 8b1b4 eb0 .cfa: sp 0 +
STACK CFI 8b1b8 .cfa: sp 96 +
STACK CFI 8b1d0 .cfa: x29 96 + x19: .cfa -8 + ^ x20: .cfa -16 + ^ x21: .cfa -24 + ^ x22: .cfa -32 + ^ x23: .cfa -40 + ^ x24: .cfa -48 + ^ x25: .cfa -56 + ^ x26: .cfa -64 + ^ x27: .cfa -72 + ^ x28: .cfa -80 + ^ .ra: .cfa -88 + ^ x29: .cfa -96 + ^
STACK CFI 8be78 .cfa: sp 96 +
STACK CFI 8be90 .cfa: sp 0 +
STACK CFI 8be94 .cfa: x29 96 +
STACK CFI INIT 8c3d8 1c9c .cfa: sp 0 +
STACK CFI 8c3dc .cfa: sp 112 +
STACK CFI 8c3f8 .cfa: x29 96 + x19: .cfa -8 + ^ x20: .cfa -16 + ^ x21: .cfa -24 + ^ x22: .cfa -32 + ^ x23: .cfa -40 + ^ x24: .cfa -48 + ^ x25: .cfa -56 + ^ x26: .cfa -64 + ^ x27: .cfa -72 + ^ x28: .cfa -80 + ^ .ra: .cfa -88 + ^ x29: .cfa -96 + ^ v8: .cfa -112 + ^
STACK CFI 8c7e0 .cfa: sp 112 +
STACK CFI 8c7fc .cfa: sp 0 +
STACK CFI 8c800 .cfa: x29 96 +
STACK CFI INIT 90838 9a0 .cfa: sp 0 +
STACK CFI 9083c .cfa: sp 144 +
STACK CFI 90854 .cfa: x29 80 + x19: .cfa -8 + ^ x20: .cfa -16 + ^ x21: .cfa -24 + ^ x22: .cfa -32 + ^ x23: .cfa -40 + ^ x24: .cfa -48 + ^ x25: .cfa -64 + ^ .ra: .cfa -72 + ^ x29: .cfa -80 + ^
STACK CFI 91154 .cfa: sp 144 +
STACK CFI 9116c .cfa: sp 0 +
STACK CFI 91170 .cfa: x29 80 +
STACK CFI INIT 926fc 57c .cfa: sp 0 +
STACK CFI 92700 .cfa: sp 96 +
STACK CFI 92718 .cfa: x29 96 + x19: .cfa -8 + ^ x20: .cfa -16 + ^ x21: .cfa -24 + ^ x22: .cfa -32 + ^ x23: .cfa -40 + ^ x24: .cfa -48 + ^ x25: .cfa -56 + ^ x26: .cfa -64 + ^ x27: .cfa -72 + ^ x28: .cfa -80 + ^ .ra: .cfa -88 + ^ x29: .cfa -96 + ^
STACK CFI 92bdc .cfa: sp 96 +
STACK CFI 92bf4 .cfa: sp 0 +
STACK CFI 92bf8 .cfa: x29 96 +
STACK CFI INIT 92c78 67c .cfa: sp 0 +
STACK CFI 92c7c .cfa: sp 96 +
STACK CFI 92c94 .cfa: x29 96 + x19: .cfa -8 + ^ x20: .cfa -16 + ^ x21: .cfa -24 + ^ x22: .cfa -32 + ^ x23: .cfa -40 + ^ x24: .cfa -48 + ^ x25: .cfa -56 + ^ x26: .cfa -64 + ^ x27: .cfa -72 + ^ x28: .cfa -80 + ^ .ra: .cfa -88 + ^ x29: .cfa -96 + ^
STACK CFI 93258 .cfa: sp 96 +
STACK CFI 93270 .cfa: sp 0 +
STACK CFI 93274 .cfa: x29 96 +
