MODULE Linux arm64 7A3AE4FFE4655BB329ABA0581527D6320 weebify.high-graphics-android.android64.so
INFO CODE_ID FFE43A7A65E4B35B29ABA0581527D63279EE4E85
INFO GENERATOR mozilla/dump_syms 2.3.4
PUBLIC 1f310 0 __on_dlclose
PUBLIC 1f320 0 __emutls_unregister_key
PUBLIC 1f328 0 __on_dlclose_late
PUBLIC 1f330 0 __atexit_handler_wrapper
PUBLIC 1f344 0 atexit
PUBLIC 1f360 0 pthread_atfork
PUBLIC 1f370 0 unwind_phase2
PUBLIC 1f4a4 0 _Unwind_Resume
PUBLIC 1f528 0 unwind_phase2_forced
PUBLIC m 1f61c 0 __unw_init_local
PUBLIC m 1f6c4 0 __unw_get_reg
PUBLIC 1f740 0 __unw_step_stage2
PUBLIC m 1f754 0 __unw_get_proc_info
PUBLIC m 1f794 0 __unw_resume
PUBLIC 1f7bc 0 libunwind::CFI_Parser<libunwind::LocalAddressSpace>::decodeFDE(libunwind::LocalAddressSpace&, unsigned long, libunwind::CFI_Parser<libunwind::LocalAddressSpace>::FDE_Info*, libunwind::CFI_Parser<libunwind::LocalAddressSpace>::CIE_Info*, bool)
PUBLIC 1f94c 0 libunwind::CFI_Parser<libunwind::LocalAddressSpace>::parseCIE(libunwind::LocalAddressSpace&, unsigned long, libunwind::CFI_Parser<libunwind::LocalAddressSpace>::CIE_Info*)
PUBLIC 1fc14 0 libunwind::AbstractUnwindCursor::~AbstractUnwindCursor()
PUBLIC 1fc1c 0 libunwind::UnwindCursor<libunwind::LocalAddressSpace, libunwind::Registers_arm64>::~UnwindCursor()
PUBLIC 1fc24 0 libunwind::UnwindCursor<libunwind::LocalAddressSpace, libunwind::Registers_arm64>::validReg(int)
PUBLIC 1fc68 0 libunwind::UnwindCursor<libunwind::LocalAddressSpace, libunwind::Registers_arm64>::getReg(int)
PUBLIC 1fd50 0 libunwind::UnwindCursor<libunwind::LocalAddressSpace, libunwind::Registers_arm64>::setReg(int, unsigned long)
PUBLIC 1fe38 0 libunwind::UnwindCursor<libunwind::LocalAddressSpace, libunwind::Registers_arm64>::validFloatReg(int)
PUBLIC 1fe4c 0 libunwind::UnwindCursor<libunwind::LocalAddressSpace, libunwind::Registers_arm64>::getFloatReg(int)
PUBLIC 1fe5c 0 libunwind::UnwindCursor<libunwind::LocalAddressSpace, libunwind::Registers_arm64>::setFloatReg(int, double)
PUBLIC 1fe6c 0 libunwind::UnwindCursor<libunwind::LocalAddressSpace, libunwind::Registers_arm64>::step(bool)
PUBLIC 1ff5c 0 libunwind::UnwindCursor<libunwind::LocalAddressSpace, libunwind::Registers_arm64>::getInfo(unw_proc_info_t*)
PUBLIC 1ffa0 0 libunwind::UnwindCursor<libunwind::LocalAddressSpace, libunwind::Registers_arm64>::jumpto()
PUBLIC 1ffac 0 libunwind::UnwindCursor<libunwind::LocalAddressSpace, libunwind::Registers_arm64>::isSignalFrame()
PUBLIC 1ffb8 0 libunwind::UnwindCursor<libunwind::LocalAddressSpace, libunwind::Registers_arm64>::getFunctionName(char*, unsigned long, unsigned long*)
PUBLIC 1ffe4 0 libunwind::UnwindCursor<libunwind::LocalAddressSpace, libunwind::Registers_arm64>::setInfoBasedOnIPRegister(bool)
PUBLIC 20264 0 libunwind::UnwindCursor<libunwind::LocalAddressSpace, libunwind::Registers_arm64>::getRegisterName(int)
PUBLIC 20270 0 libunwind::UnwindCursor<libunwind::LocalAddressSpace, libunwind::Registers_arm64>::stepThroughSigReturn(libunwind::Registers_arm64&)
PUBLIC 20390 0 libunwind::DwarfInstructions<libunwind::LocalAddressSpace, libunwind::Registers_arm64>::stepWithDwarf(libunwind::LocalAddressSpace&, unsigned long, unsigned long, libunwind::Registers_arm64&, bool&, bool)
PUBLIC 20818 0 libunwind::CFI_Parser<libunwind::LocalAddressSpace>::parseFDEInstructions(libunwind::LocalAddressSpace&, libunwind::CFI_Parser<libunwind::LocalAddressSpace>::FDE_Info const&, libunwind::CFI_Parser<libunwind::LocalAddressSpace>::CIE_Info const&, unsigned long, int, libunwind::CFI_Parser<libunwind::LocalAddressSpace>::PrologInfo*)
PUBLIC 21460 0 libunwind::DwarfInstructions<libunwind::LocalAddressSpace, libunwind::Registers_arm64>::getCFA(libunwind::LocalAddressSpace&, libunwind::CFI_Parser<libunwind::LocalAddressSpace>::PrologInfo const&, libunwind::Registers_arm64 const&)
PUBLIC 21594 0 libunwind::DwarfInstructions<libunwind::LocalAddressSpace, libunwind::Registers_arm64>::getSavedRegister(libunwind::LocalAddressSpace&, libunwind::Registers_arm64 const&, unsigned long, libunwind::CFI_Parser<libunwind::LocalAddressSpace>::RegisterLocation const&)
PUBLIC 217a4 0 libunwind::LocalAddressSpace::getEncodedP(unsigned long&, unsigned long, unsigned char, unsigned long)
PUBLIC 21b30 0 libunwind::LocalAddressSpace::getULEB128(unsigned long&, unsigned long)
PUBLIC 21cf8 0 libunwind::DwarfInstructions<libunwind::LocalAddressSpace, libunwind::Registers_arm64>::evaluateExpression(unsigned long, libunwind::LocalAddressSpace&, libunwind::Registers_arm64 const&, unsigned long)
PUBLIC 226b4 0 libunwind::UnwindCursor<libunwind::LocalAddressSpace, libunwind::Registers_arm64>::getInfoFromDwarfSection(unsigned long, libunwind::UnwindInfoSections const&, unsigned int)
PUBLIC 22988 0 libunwind::findUnwindSectionsByPhdr(dl_phdr_info*, unsigned long, void*)
PUBLIC 22abc 0 libunwind::EHHeaderParser<libunwind::LocalAddressSpace>::decodeEHHdr(libunwind::LocalAddressSpace&, unsigned long, unsigned long, libunwind::EHHeaderParser<libunwind::LocalAddressSpace>::EHHeaderInfo&)
PUBLIC 22bdc 0 libunwind::CFI_Parser<libunwind::LocalAddressSpace>::findFDE(libunwind::LocalAddressSpace&, unsigned long, unsigned long, unsigned long, unsigned long, libunwind::CFI_Parser<libunwind::LocalAddressSpace>::FDE_Info*, libunwind::CFI_Parser<libunwind::LocalAddressSpace>::CIE_Info*)
PUBLIC 22da4 0 libunwind::EHHeaderParser<libunwind::LocalAddressSpace>::findFDE(libunwind::LocalAddressSpace&, unsigned long, unsigned long, unsigned int, libunwind::CFI_Parser<libunwind::LocalAddressSpace>::FDE_Info*, libunwind::CFI_Parser<libunwind::LocalAddressSpace>::CIE_Info*)
PUBLIC 22f0c 0 libunwind::EHHeaderParser<libunwind::LocalAddressSpace>::getTableEntrySize(unsigned char)
PUBLIC 23008 0 libunwind::Registers_arm64::getRegisterName(int)
PUBLIC 23038 0 __libunwind_Registers_arm64_jumpto
PUBLIC m 230c8 0 __unw_getcontext
PUBLIC 23170 0 __aarch64_ldadd8_acq_rel
PUBLIC 231a0 0 init_have_lse_atomics
PUBLIC 23238 0 __init_cpu_features_constructor
PUBLIC 237d4 0 __init_cpu_features
PUBLIC 23860 0 __aarch64_ldadd8_relax
FUNC 23890 1ec 0 __cxx_global_var_init
FUNC 23a7c 124 0 _ZNSt6__ndk14pairINS_12basic_stringIcNS_11char_traitsIcEENS_9allocatorIcEEEES6_EC2B8ne180000IRA36_KcRA47_S9_TnNS_9enable_ifIXclsr10_CheckArgsE17__enable_implicitIT_T0_EEEiE4typeELi0EEEOSF_OSG_
FUNC 23ba0 f0 0 _ZNSt6__ndk14pairIKNS_12basic_stringIcNS_11char_traitsIcEENS_9allocatorIcEEEENS0_IS6_S6_EEEC2B8ne180000ILb1ETnNS_9enable_ifIXclsr13_CheckArgsDepIXT_EEE17__enable_implicitIRS7_RKS8_EEEiE4typeELi0EEESC_SE_
FUNC 23c90 64 0 std::__ndk1::pair<std::__ndk1::basic_string<char, std::__ndk1::char_traits<char>, std::__ndk1::allocator<char> > const, std::__ndk1::pair<std::__ndk1::basic_string<char, std::__ndk1::char_traits<char>, std::__ndk1::allocator<char> >, std::__ndk1::basic_string<char, std::__ndk1::char_traits<char>, std::__ndk1::allocator<char> > > >::~pair()
FUNC 23cf4 44 0 std::__ndk1::pair<std::__ndk1::basic_string<char, std::__ndk1::char_traits<char>, std::__ndk1::allocator<char> >, std::__ndk1::basic_string<char, std::__ndk1::char_traits<char>, std::__ndk1::allocator<char> > >::~pair()
FUNC 23d38 8 0 std::__ndk1::map<std::__ndk1::basic_string<char, std::__ndk1::char_traits<char>, std::__ndk1::allocator<char> >, std::__ndk1::pair<std::__ndk1::basic_string<char, std::__ndk1::char_traits<char>, std::__ndk1::allocator<char> >, std::__ndk1::basic_string<char, std::__ndk1::char_traits<char>, std::__ndk1::allocator<char> > >, std::__ndk1::less<std::__ndk1::basic_string<char, std::__ndk1::char_traits<char>, std::__ndk1::allocator<char> > >, std::__ndk1::allocator<std::__ndk1::pair<std::__ndk1::basic_string<char, std::__ndk1::char_traits<char>, std::__ndk1::allocator<char> > const, std::__ndk1::pair<std::__ndk1::basic_string<char, std::__ndk1::char_traits<char>, std::__ndk1::allocator<char> >, std::__ndk1::basic_string<char, std::__ndk1::char_traits<char>, std::__ndk1::allocator<char> > > > > >::~map[abi:ne180000]()
FUNC 23d40 100 0 HighGraphics::HighGraphics()
FUNC 23e40 40 0 HighGraphics::~HighGraphics()
FUNC 23e80 50 0 std::__ndk1::__fs::filesystem::directory_iterator::~directory_iterator[abi:ne180000]()
FUNC 23ed0 9f0 0 geodeExecFunction26<(anonymous namespace)::ExecFuncUnique26>(geode::ModStateEvent*)
FUNC 248c0 14 0 std::__ndk1::basic_string<char, std::__ndk1::char_traits<char>, std::__ndk1::allocator<char> >::__throw_length_error[abi:ne180000]() const
FUNC 248d4 50 0 std::__ndk1::__throw_length_error[abi:ne180000](char const*)
FUNC 24924 30 0 std::length_error::length_error[abi:ne180000](char const*)
FUNC 24954 70 0 std::__ndk1::basic_string<char, std::__ndk1::char_traits<char>, std::__ndk1::allocator<char> >::__init_copy_ctor_external(char const*, unsigned long)
FUNC 249c4 36c 0 std::__ndk1::__tree<std::__ndk1::__value_type<std::__ndk1::basic_string<char, std::__ndk1::char_traits<char>, std::__ndk1::allocator<char> >, int>, std::__ndk1::__map_value_compare<std::__ndk1::basic_string<char, std::__ndk1::char_traits<char>, std::__ndk1::allocator<char> >, std::__ndk1::__value_type<std::__ndk1::basic_string<char, std::__ndk1::char_traits<char>, std::__ndk1::allocator<char> >, int>, std::__ndk1::less<std::__ndk1::basic_string<char, std::__ndk1::char_traits<char>, std::__ndk1::allocator<char> > >, true>, std::__ndk1::allocator<std::__ndk1::__value_type<std::__ndk1::basic_string<char, std::__ndk1::char_traits<char>, std::__ndk1::allocator<char> >, int> > >::__emplace_hint_unique_key_args<std::__ndk1::basic_string<char, std::__ndk1::char_traits<char>, std::__ndk1::allocator<char> >, std::__ndk1::pair<std::__ndk1::basic_string<char, std::__ndk1::char_traits<char>, std::__ndk1::allocator<char> > const, int> const&>(std::__ndk1::__tree_const_iterator<std::__ndk1::__value_type<std::__ndk1::basic_string<char, std::__ndk1::char_traits<char>, std::__ndk1::allocator<char> >, int>, std::__ndk1::__tree_node<std::__ndk1::__value_type<std::__ndk1::basic_string<char, std::__ndk1::char_traits<char>, std::__ndk1::allocator<char> >, int>, void*>*, long>, std::__ndk1::basic_string<char, std::__ndk1::char_traits<char>, std::__ndk1::allocator<char> > const&, std::__ndk1::pair<std::__ndk1::basic_string<char, std::__ndk1::char_traits<char>, std::__ndk1::allocator<char> > const, int> const&)
FUNC 24d30 50 0 std::__ndk1::unique_ptr<std::__ndk1::__tree_node<std::__ndk1::__value_type<std::__ndk1::basic_string<char, std::__ndk1::char_traits<char>, std::__ndk1::allocator<char> >, int>, void*>, std::__ndk1::__tree_node_destructor<std::__ndk1::allocator<std::__ndk1::__tree_node<std::__ndk1::__value_type<std::__ndk1::basic_string<char, std::__ndk1::char_traits<char>, std::__ndk1::allocator<char> >, int>, void*> > > >::~unique_ptr[abi:ne180000]()
FUNC 24d80 104 0 std::__ndk1::__tree<std::__ndk1::__value_type<std::__ndk1::basic_string<char, std::__ndk1::char_traits<char>, std::__ndk1::allocator<char> >, int>, std::__ndk1::__map_value_compare<std::__ndk1::basic_string<char, std::__ndk1::char_traits<char>, std::__ndk1::allocator<char> >, std::__ndk1::__value_type<std::__ndk1::basic_string<char, std::__ndk1::char_traits<char>, std::__ndk1::allocator<char> >, int>, std::__ndk1::less<std::__ndk1::basic_string<char, std::__ndk1::char_traits<char>, std::__ndk1::allocator<char> > >, true>, std::__ndk1::allocator<std::__ndk1::__value_type<std::__ndk1::basic_string<char, std::__ndk1::char_traits<char>, std::__ndk1::allocator<char> >, int> > >::__find_equal<std::__ndk1::basic_string<char, std::__ndk1::char_traits<char>, std::__ndk1::allocator<char> > >(std::__ndk1::__tree_end_node<std::__ndk1::__tree_node_base<void*>*>*&, std::__ndk1::basic_string<char, std::__ndk1::char_traits<char>, std::__ndk1::allocator<char> > const&)
FUNC 24e84 19c 0 std::__ndk1::__tree_balance_after_insert[abi:ne180000]<std::__ndk1::__tree_node_base<void*>*>(std::__ndk1::__tree_node_base<void*>*, std::__ndk1::__tree_node_base<void*>*)
FUNC 25020 50 0 std::__ndk1::__tree<std::__ndk1::__value_type<std::__ndk1::basic_string<char, std::__ndk1::char_traits<char>, std::__ndk1::allocator<char> >, int>, std::__ndk1::__map_value_compare<std::__ndk1::basic_string<char, std::__ndk1::char_traits<char>, std::__ndk1::allocator<char> >, std::__ndk1::__value_type<std::__ndk1::basic_string<char, std::__ndk1::char_traits<char>, std::__ndk1::allocator<char> >, int>, std::__ndk1::less<std::__ndk1::basic_string<char, std::__ndk1::char_traits<char>, std::__ndk1::allocator<char> > >, true>, std::__ndk1::allocator<std::__ndk1::__value_type<std::__ndk1::basic_string<char, std::__ndk1::char_traits<char>, std::__ndk1::allocator<char> >, int> > >::destroy(std::__ndk1::__tree_node<std::__ndk1::__value_type<std::__ndk1::basic_string<char, std::__ndk1::char_traits<char>, std::__ndk1::allocator<char> >, int>, void*>*)
FUNC 25070 c4 0 std::__ndk1::__fs::filesystem::path::operator/=[abi:ne180000](std::__ndk1::__fs::filesystem::path const&)
FUNC 25134 ac 0 std::__ndk1::basic_string<char, std::__ndk1::char_traits<char>, std::__ndk1::allocator<char> >::__assign_no_alias<true>(char const*, unsigned long)
FUNC 251e0 100 0 std::__ndk1::basic_string<char, std::__ndk1::char_traits<char>, std::__ndk1::allocator<char> >::__assign_no_alias<false>(char const*, unsigned long)
FUNC 252e0 108 0 std::__ndk1::__tree<std::__ndk1::__value_type<std::__ndk1::basic_string<char, std::__ndk1::char_traits<char>, std::__ndk1::allocator<char> >, std::__ndk1::pair<std::__ndk1::basic_string<char, std::__ndk1::char_traits<char>, std::__ndk1::allocator<char> >, std::__ndk1::basic_string<char, std::__ndk1::char_traits<char>, std::__ndk1::allocator<char> > > >, std::__ndk1::__map_value_compare<std::__ndk1::basic_string<char, std::__ndk1::char_traits<char>, std::__ndk1::allocator<char> >, std::__ndk1::__value_type<std::__ndk1::basic_string<char, std::__ndk1::char_traits<char>, std::__ndk1::allocator<char> >, std::__ndk1::pair<std::__ndk1::basic_string<char, std::__ndk1::char_traits<char>, std::__ndk1::allocator<char> >, std::__ndk1::basic_string<char, std::__ndk1::char_traits<char>, std::__ndk1::allocator<char> > > >, std::__ndk1::less<std::__ndk1::basic_string<char, std::__ndk1::char_traits<char>, std::__ndk1::allocator<char> > >, true>, std::__ndk1::allocator<std::__ndk1::__value_type<std::__ndk1::basic_string<char, std::__ndk1::char_traits<char>, std::__ndk1::allocator<char> >, std::__ndk1::pair<std::__ndk1::basic_string<char, std::__ndk1::char_traits<char>, std::__ndk1::allocator<char> >, std::__ndk1::basic_string<char, std::__ndk1::char_traits<char>, std::__ndk1::allocator<char> > > > > >::__emplace_hint_unique_key_args<std::__ndk1::basic_string<char, std::__ndk1::char_traits<char>, std::__ndk1::allocator<char> >, std::__ndk1::pair<std::__ndk1::basic_string<char, std::__ndk1::char_traits<char>, std::__ndk1::allocator<char> > const, std::__ndk1::pair<std::__ndk1::basic_string<char, std::__ndk1::char_traits<char>, std::__ndk1::allocator<char> >, std::__ndk1::basic_string<char, std::__ndk1::char_traits<char>, std::__ndk1::allocator<char> > > > const&>(std::__ndk1::__tree_const_iterator<std::__ndk1::__value_type<std::__ndk1::basic_string<char, std::__ndk1::char_traits<char>, std::__ndk1::allocator<char> >, std::__ndk1::pair<std::__ndk1::basic_string<char, std::__ndk1::char_traits<char>, std::__ndk1::allocator<char> >, std::__ndk1::basic_string<char, std::__ndk1::char_traits<char>, std::__ndk1::allocator<char> > > >, std::__ndk1::__tree_node<std::__ndk1::__value_type<std::__ndk1::basic_string<char, std::__ndk1::char_traits<char>, std::__ndk1::allocator<char> >, std::__ndk1::pair<std::__ndk1::basic_string<char, std::__ndk1::char_traits<char>, std::__ndk1::allocator<char> >, std::__ndk1::basic_string<char, std::__ndk1::char_traits<char>, std::__ndk1::allocator<char> > > >, void*>*, long>, std::__ndk1::basic_string<char, std::__ndk1::char_traits<char>, std::__ndk1::allocator<char> > const&, std::__ndk1::pair<std::__ndk1::basic_string<char, std::__ndk1::char_traits<char>, std::__ndk1::allocator<char> > const, std::__ndk1::pair<std::__ndk1::basic_string<char, std::__ndk1::char_traits<char>, std::__ndk1::allocator<char> >, std::__ndk1::basic_string<char, std::__ndk1::char_traits<char>, std::__ndk1::allocator<char> > > > const&)
FUNC 253e8 29c 0 std::__ndk1::__tree<std::__ndk1::__value_type<std::__ndk1::basic_string<char, std::__ndk1::char_traits<char>, std::__ndk1::allocator<char> >, std::__ndk1::pair<std::__ndk1::basic_string<char, std::__ndk1::char_traits<char>, std::__ndk1::allocator<char> >, std::__ndk1::basic_string<char, std::__ndk1::char_traits<char>, std::__ndk1::allocator<char> > > >, std::__ndk1::__map_value_compare<std::__ndk1::basic_string<char, std::__ndk1::char_traits<char>, std::__ndk1::allocator<char> >, std::__ndk1::__value_type<std::__ndk1::basic_string<char, std::__ndk1::char_traits<char>, std::__ndk1::allocator<char> >, std::__ndk1::pair<std::__ndk1::basic_string<char, std::__ndk1::char_traits<char>, std::__ndk1::allocator<char> >, std::__ndk1::basic_string<char, std::__ndk1::char_traits<char>, std::__ndk1::allocator<char> > > >, std::__ndk1::less<std::__ndk1::basic_string<char, std::__ndk1::char_traits<char>, std::__ndk1::allocator<char> > >, true>, std::__ndk1::allocator<std::__ndk1::__value_type<std::__ndk1::basic_string<char, std::__ndk1::char_traits<char>, std::__ndk1::allocator<char> >, std::__ndk1::pair<std::__ndk1::basic_string<char, std::__ndk1::char_traits<char>, std::__ndk1::allocator<char> >, std::__ndk1::basic_string<char, std::__ndk1::char_traits<char>, std::__ndk1::allocator<char> > > > > >::__find_equal<std::__ndk1::basic_string<char, std::__ndk1::char_traits<char>, std::__ndk1::allocator<char> > >(std::__ndk1::__tree_const_iterator<std::__ndk1::__value_type<std::__ndk1::basic_string<char, std::__ndk1::char_traits<char>, std::__ndk1::allocator<char> >, std::__ndk1::pair<std::__ndk1::basic_string<char, std::__ndk1::char_traits<char>, std::__ndk1::allocator<char> >, std::__ndk1::basic_string<char, std::__ndk1::char_traits<char>, std::__ndk1::allocator<char> > > >, std::__ndk1::__tree_node<std::__ndk1::__value_type<std::__ndk1::basic_string<char, std::__ndk1::char_traits<char>, std::__ndk1::allocator<char> >, std::__ndk1::pair<std::__ndk1::basic_string<char, std::__ndk1::char_traits<char>, std::__ndk1::allocator<char> >, std::__ndk1::basic_string<char, std::__ndk1::char_traits<char>, std::__ndk1::allocator<char> > > >, void*>*, long>, std::__ndk1::__tree_end_node<std::__ndk1::__tree_node_base<void*>*>*&, std::__ndk1::__tree_node_base<void*>*&, std::__ndk1::basic_string<char, std::__ndk1::char_traits<char>, std::__ndk1::allocator<char> > const&)
FUNC 25684 80 0 std::__ndk1::unique_ptr<std::__ndk1::__tree_node<std::__ndk1::__value_type<std::__ndk1::basic_string<char, std::__ndk1::char_traits<char>, std::__ndk1::allocator<char> >, std::__ndk1::pair<std::__ndk1::basic_string<char, std::__ndk1::char_traits<char>, std::__ndk1::allocator<char> >, std::__ndk1::basic_string<char, std::__ndk1::char_traits<char>, std::__ndk1::allocator<char> > > >, void*>, std::__ndk1::__tree_node_destructor<std::__ndk1::allocator<std::__ndk1::__tree_node<std::__ndk1::__value_type<std::__ndk1::basic_string<char, std::__ndk1::char_traits<char>, std::__ndk1::allocator<char> >, std::__ndk1::pair<std::__ndk1::basic_string<char, std::__ndk1::char_traits<char>, std::__ndk1::allocator<char> >, std::__ndk1::basic_string<char, std::__ndk1::char_traits<char>, std::__ndk1::allocator<char> > > >, void*> > > >::~unique_ptr[abi:ne180000]()
FUNC 25704 104 0 std::__ndk1::__tree<std::__ndk1::__value_type<std::__ndk1::basic_string<char, std::__ndk1::char_traits<char>, std::__ndk1::allocator<char> >, std::__ndk1::pair<std::__ndk1::basic_string<char, std::__ndk1::char_traits<char>, std::__ndk1::allocator<char> >, std::__ndk1::basic_string<char, std::__ndk1::char_traits<char>, std::__ndk1::allocator<char> > > >, std::__ndk1::__map_value_compare<std::__ndk1::basic_string<char, std::__ndk1::char_traits<char>, std::__ndk1::allocator<char> >, std::__ndk1::__value_type<std::__ndk1::basic_string<char, std::__ndk1::char_traits<char>, std::__ndk1::allocator<char> >, std::__ndk1::pair<std::__ndk1::basic_string<char, std::__ndk1::char_traits<char>, std::__ndk1::allocator<char> >, std::__ndk1::basic_string<char, std::__ndk1::char_traits<char>, std::__ndk1::allocator<char> > > >, std::__ndk1::less<std::__ndk1::basic_string<char, std::__ndk1::char_traits<char>, std::__ndk1::allocator<char> > >, true>, std::__ndk1::allocator<std::__ndk1::__value_type<std::__ndk1::basic_string<char, std::__ndk1::char_traits<char>, std::__ndk1::allocator<char> >, std::__ndk1::pair<std::__ndk1::basic_string<char, std::__ndk1::char_traits<char>, std::__ndk1::allocator<char> >, std::__ndk1::basic_string<char, std::__ndk1::char_traits<char>, std::__ndk1::allocator<char> > > > > >::__find_equal<std::__ndk1::basic_string<char, std::__ndk1::char_traits<char>, std::__ndk1::allocator<char> > >(std::__ndk1::__tree_end_node<std::__ndk1::__tree_node_base<void*>*>*&, std::__ndk1::basic_string<char, std::__ndk1::char_traits<char>, std::__ndk1::allocator<char> > const&)
FUNC 25808 ec 0 std::__ndk1::pair<std::__ndk1::basic_string<char, std::__ndk1::char_traits<char>, std::__ndk1::allocator<char> > const, std::__ndk1::pair<std::__ndk1::basic_string<char, std::__ndk1::char_traits<char>, std::__ndk1::allocator<char> >, std::__ndk1::basic_string<char, std::__ndk1::char_traits<char>, std::__ndk1::allocator<char> > > >::pair[abi:ne180000](std::__ndk1::pair<std::__ndk1::basic_string<char, std::__ndk1::char_traits<char>, std::__ndk1::allocator<char> > const, std::__ndk1::pair<std::__ndk1::basic_string<char, std::__ndk1::char_traits<char>, std::__ndk1::allocator<char> >, std::__ndk1::basic_string<char, std::__ndk1::char_traits<char>, std::__ndk1::allocator<char> > > > const&)
FUNC 258f4 84 0 std::__ndk1::__tree<std::__ndk1::__value_type<std::__ndk1::basic_string<char, std::__ndk1::char_traits<char>, std::__ndk1::allocator<char> >, std::__ndk1::pair<std::__ndk1::basic_string<char, std::__ndk1::char_traits<char>, std::__ndk1::allocator<char> >, std::__ndk1::basic_string<char, std::__ndk1::char_traits<char>, std::__ndk1::allocator<char> > > >, std::__ndk1::__map_value_compare<std::__ndk1::basic_string<char, std::__ndk1::char_traits<char>, std::__ndk1::allocator<char> >, std::__ndk1::__value_type<std::__ndk1::basic_string<char, std::__ndk1::char_traits<char>, std::__ndk1::allocator<char> >, std::__ndk1::pair<std::__ndk1::basic_string<char, std::__ndk1::char_traits<char>, std::__ndk1::allocator<char> >, std::__ndk1::basic_string<char, std::__ndk1::char_traits<char>, std::__ndk1::allocator<char> > > >, std::__ndk1::less<std::__ndk1::basic_string<char, std::__ndk1::char_traits<char>, std::__ndk1::allocator<char> > >, true>, std::__ndk1::allocator<std::__ndk1::__value_type<std::__ndk1::basic_string<char, std::__ndk1::char_traits<char>, std::__ndk1::allocator<char> >, std::__ndk1::pair<std::__ndk1::basic_string<char, std::__ndk1::char_traits<char>, std::__ndk1::allocator<char> >, std::__ndk1::basic_string<char, std::__ndk1::char_traits<char>, std::__ndk1::allocator<char> > > > > >::destroy(std::__ndk1::__tree_node<std::__ndk1::__value_type<std::__ndk1::basic_string<char, std::__ndk1::char_traits<char>, std::__ndk1::allocator<char> >, std::__ndk1::pair<std::__ndk1::basic_string<char, std::__ndk1::char_traits<char>, std::__ndk1::allocator<char> >, std::__ndk1::basic_string<char, std::__ndk1::char_traits<char>, std::__ndk1::allocator<char> > > >, void*>*)
FUNC 25978 2ec 0 _ZNSt6__ndk112basic_stringIcNS_11char_traitsIcEENS_9allocatorIcEEE6appendB8ne180000IPKcTnNS_9enable_ifIXsr31__has_forward_iterator_categoryIT_EE5valueEiE4typeELi0EEERS5_SA_SA_
FUNC 25c64 34 0 std::__ndk1::__throw_bad_optional_access[abi:ne180000]()
FUNC 25c98 4 0 geode::EventListener<geode::ModStateFilter>::getPool() const
FUNC 25c9c 174 0 geode::EventListener<geode::ModStateFilter>::handle(geode::Event*)
FUNC 25e10 5c 0 geode::EventListener<geode::ModStateFilter>::~EventListener()
FUNC 25e6c 64 0 geode::EventListener<geode::ModStateFilter>::~EventListener()
FUNC 25ed0 4 0 std::__ndk1::__function::__base<void (geode::ModStateEvent*)>::~__base()
FUNC 25ed4 4 0 std::__ndk1::__function::__func<void (*)(geode::ModStateEvent*), std::__ndk1::allocator<void (*)(geode::ModStateEvent*)>, void (geode::ModStateEvent*)>::~__func()
FUNC 25ed8 34 0 std::__ndk1::__function::__func<void (*)(geode::ModStateEvent*), std::__ndk1::allocator<void (*)(geode::ModStateEvent*)>, void (geode::ModStateEvent*)>::__clone() const
FUNC 25f0c 14 0 std::__ndk1::__function::__func<void (*)(geode::ModStateEvent*), std::__ndk1::allocator<void (*)(geode::ModStateEvent*)>, void (geode::ModStateEvent*)>::__clone(std::__ndk1::__function::__base<void (geode::ModStateEvent*)>*) const
FUNC 25f20 4 0 std::__ndk1::__function::__func<void (*)(geode::ModStateEvent*), std::__ndk1::allocator<void (*)(geode::ModStateEvent*)>, void (geode::ModStateEvent*)>::destroy()
FUNC 25f24 4 0 std::__ndk1::__function::__func<void (*)(geode::ModStateEvent*), std::__ndk1::allocator<void (*)(geode::ModStateEvent*)>, void (geode::ModStateEvent*)>::destroy_deallocate()
FUNC 25f28 10 0 std::__ndk1::__function::__func<void (*)(geode::ModStateEvent*), std::__ndk1::allocator<void (*)(geode::ModStateEvent*)>, void (geode::ModStateEvent*)>::operator()(geode::ModStateEvent*&&)
FUNC 25f38 1c 0 std::__ndk1::__function::__func<void (*)(geode::ModStateEvent*), std::__ndk1::allocator<void (*)(geode::ModStateEvent*)>, void (geode::ModStateEvent*)>::target(std::type_info const&) const
FUNC 25f54 c 0 std::__ndk1::__function::__func<void (*)(geode::ModStateEvent*), std::__ndk1::allocator<void (*)(geode::ModStateEvent*)>, void (geode::ModStateEvent*)>::target_type() const
FUNC 25f60 e4 0 geode::cast::traverseTypeinfoFor(void*, geode::cast::ClassTypeinfoType const*, char const*)
FUNC 26044 12c 0 _GLOBAL__sub_I_HighGraphics.cpp
FUNC 26170 18c 0 HighTexturesPopup::createButton(char const*, float, char const*, std::__ndk1::basic_string<char, std::__ndk1::char_traits<char>, std::__ndk1::allocator<char> >, void (cocos2d::CCObject::*)(cocos2d::CCObject*))
FUNC 262fc b8 0 HighTexturesPopup::keyDown(cocos2d::enumKeyCodes)
FUNC 263b4 d0 0 geode::Mod::setSavedValue<bool>(std::__ndk1::basic_string_view<char, std::__ndk1::char_traits<char> >, bool const&)
FUNC 26484 28 0 geode::Popup<bool>::keyDown(cocos2d::enumKeyCodes)
FUNC 264ac bc 0 {virtual override thunk({offset(-344)}, HighTexturesPopup::keyDown(cocos2d::enumKeyCodes))}
FUNC 26568 eac 0 HighTexturesPopup::setup(bool)
FUNC 27414 4 0 HighTexturesPopup::onDownload(cocos2d::CCObject*)
FUNC 27418 298 0 HighTexturesPopup::onExtract(cocos2d::CCObject*)
FUNC 276b0 438 0 HighTexturesPopup::onRetry(cocos2d::CCObject*)
FUNC 27ae8 74 0 HighTexturesPopup::onRestart(cocos2d::CCObject*)
FUNC 27b5c 58 0 HighTexturesPopup::onHide(cocos2d::CCObject*)
FUNC 27bb4 11c 0 HighTexturesPopup::setDownloadPercentage(float, cocos2d::_ccColor3B)
FUNC 27cd0 f8 0 HighTexturesPopup::create(bool)
FUNC 27dc8 250 0 HighTexturesPopup::HighTexturesPopup()
FUNC 28018 534 0 HighTexturesPopup::startDownload()
FUNC 2854c 914 0 HighTexturesPopup::startExtract(std::__ndk1::__fs::filesystem::path, std::__ndk1::__fs::filesystem::path)
FUNC 28e60 11c 0 HighTexturesPopup::setExtractPercentage(float, cocos2d::_ccColor3B)
FUNC 28f7c 44 0 HighTexturesPopup::getExtractTask(std::__ndk1::__fs::filesystem::path, std::__ndk1::__fs::filesystem::path)::$_0::~$_0()
FUNC 28fc0 50 0 geode::Task<geode::utils::web::WebResponse, geode::utils::web::WebProgress>::~Task()
FUNC 29010 50 0 geode::Task<geode::Result<void, std::__ndk1::basic_string<char, std::__ndk1::char_traits<char>, std::__ndk1::allocator<char> > >, float>::~Task()
FUNC 29060 218 0 HighTexturesPopup::downloadFailed(std::__ndk1::basic_string<char, std::__ndk1::char_traits<char>, std::__ndk1::allocator<char> >)
FUNC 29278 f0 0 HighTexturesPopup::notifyFailure(std::__ndk1::basic_string<char, std::__ndk1::char_traits<char>, std::__ndk1::allocator<char> >, std::__ndk1::basic_string<char, std::__ndk1::char_traits<char>, std::__ndk1::allocator<char> >)
FUNC 29368 21c 0 HighTexturesPopup::extractFailed(std::__ndk1::basic_string<char, std::__ndk1::char_traits<char>, std::__ndk1::allocator<char> >)
FUNC 29584 8 0 cocos2d::CCCopying::copyWithZone(cocos2d::CCZone*)
FUNC 2958c 1a0 0 HighTexturesPopup::~HighTexturesPopup()
FUNC 2972c 24 0 HighTexturesPopup::~HighTexturesPopup()
FUNC 29750 2c 0 geode::Popup<bool>::registerWithTouchDispatcher()
FUNC 2977c 4 0 cocos2d::CCLayerRGBA::setOpacityModifyRGB(bool)
FUNC 29780 8 0 cocos2d::CCLayerRGBA::isOpacityModifyRGB()
FUNC 29788 148 0 geode::Popup<bool>::onClose(cocos2d::CCObject*)
FUNC 298d0 8 0 {virtual override thunk({offset(-320)}, HighTexturesPopup::~HighTexturesPopup())}
FUNC 298d8 28 0 {virtual override thunk({offset(-320)}, HighTexturesPopup::~HighTexturesPopup())}
FUNC 29900 4 0 cocos2d::CCKeyboardDelegate::keyUp(cocos2d::enumKeyCodes)
FUNC 29904 4 0 cocos2d::CCMouseDelegate::rightKeyDown()
FUNC 29908 4 0 cocos2d::CCMouseDelegate::rightKeyUp()
FUNC 2990c 4 0 cocos2d::CCMouseDelegate::scrollWheel(float, float)
FUNC 29910 4 0 {virtual override thunk({offset(-408)}, cocos2d::CCLayerRGBA::setOpacityModifyRGB(bool))}
FUNC 29914 8 0 {virtual override thunk({offset(-408)}, cocos2d::CCLayerRGBA::isOpacityModifyRGB())}
PUBLIC 2991c 0 __clang_call_terminate
FUNC 2992c 8c 0 geode::EventListener<geode::Task<geode::utils::web::WebResponse, geode::utils::web::WebProgress> >::~EventListener()
FUNC 299b8 6c 0 geode::Popup<bool>::~Popup()
FUNC 29a24 4 0 geode::Popup<bool>::~Popup()
FUNC 29a28 6c 0 {virtual override thunk({offset(-320)}, geode::Popup<bool>::~Popup())}
FUNC 29a94 4 0 {virtual override thunk({offset(-320)}, geode::Popup<bool>::~Popup())}
FUNC 29a98 2c 0 {virtual override thunk({offset(-344)}, geode::Popup<bool>::keyDown(cocos2d::enumKeyCodes))}
FUNC 29ac4 21c 0 geode::Task<geode::utils::web::WebResponse, geode::utils::web::WebProgress>::setListener(geode::EventListenerProtocol*)
FUNC 29ce0 4 0 geode::EventListener<geode::Task<geode::utils::web::WebResponse, geode::utils::web::WebProgress> >::getPool() const
FUNC 29ce4 1ac 0 geode::EventListener<geode::Task<geode::utils::web::WebResponse, geode::utils::web::WebProgress> >::handle(geode::Event*)
FUNC 29e90 94 0 geode::EventListener<geode::Task<geode::utils::web::WebResponse, geode::utils::web::WebProgress> >::~EventListener()
FUNC 29f24 50 0 geode::Task<geode::utils::web::WebResponse, geode::utils::web::WebProgress>::setListener(geode::EventListenerProtocol*)::{lambda()#1}::~{lambda()#1}()
FUNC 29f74 50 0 geode::Task<geode::utils::web::WebResponse, geode::utils::web::WebProgress>::setListener(geode::EventListenerProtocol*)::{lambda()#2}::~{lambda()#2}()
FUNC 29fc4 5c 0 std::__ndk1::__function::__func<geode::Task<geode::utils::web::WebResponse, geode::utils::web::WebProgress>::setListener(geode::EventListenerProtocol*)::{lambda()#1}, std::__ndk1::allocator<geode::Task<geode::utils::web::WebResponse, geode::utils::web::WebProgress>::setListener(geode::EventListenerProtocol*)::{lambda()#1}>, void ()>::~__func()
FUNC 2a020 5c 0 std::__ndk1::__function::__func<geode::Task<geode::utils::web::WebResponse, geode::utils::web::WebProgress>::setListener(geode::EventListenerProtocol*)::{lambda()#1}, std::__ndk1::allocator<geode::Task<geode::utils::web::WebResponse, geode::utils::web::WebProgress>::setListener(geode::EventListenerProtocol*)::{lambda()#1}>, void ()>::~__func()
FUNC 2a07c 58 0 std::__ndk1::__function::__func<geode::Task<geode::utils::web::WebResponse, geode::utils::web::WebProgress>::setListener(geode::EventListenerProtocol*)::{lambda()#1}, std::__ndk1::allocator<geode::Task<geode::utils::web::WebResponse, geode::utils::web::WebProgress>::setListener(geode::EventListenerProtocol*)::{lambda()#1}>, void ()>::__clone() const
FUNC 2a0d4 4c 0 std::__ndk1::__function::__func<geode::Task<geode::utils::web::WebResponse, geode::utils::web::WebProgress>::setListener(geode::EventListenerProtocol*)::{lambda()#1}, std::__ndk1::allocator<geode::Task<geode::utils::web::WebResponse, geode::utils::web::WebProgress>::setListener(geode::EventListenerProtocol*)::{lambda()#1}>, void ()>::__clone(std::__ndk1::__function::__base<void ()>*) const
FUNC 2a120 50 0 std::__ndk1::__function::__func<geode::Task<geode::utils::web::WebResponse, geode::utils::web::WebProgress>::setListener(geode::EventListenerProtocol*)::{lambda()#1}, std::__ndk1::allocator<geode::Task<geode::utils::web::WebResponse, geode::utils::web::WebProgress>::setListener(geode::EventListenerProtocol*)::{lambda()#1}>, void ()>::destroy()
FUNC 2a170 50 0 std::__ndk1::__function::__func<geode::Task<geode::utils::web::WebResponse, geode::utils::web::WebProgress>::setListener(geode::EventListenerProtocol*)::{lambda()#1}, std::__ndk1::allocator<geode::Task<geode::utils::web::WebResponse, geode::utils::web::WebProgress>::setListener(geode::EventListenerProtocol*)::{lambda()#1}>, void ()>::destroy_deallocate()
FUNC 2a1c0 198 0 std::__ndk1::__function::__func<geode::Task<geode::utils::web::WebResponse, geode::utils::web::WebProgress>::setListener(geode::EventListenerProtocol*)::{lambda()#1}, std::__ndk1::allocator<geode::Task<geode::utils::web::WebResponse, geode::utils::web::WebProgress>::setListener(geode::EventListenerProtocol*)::{lambda()#1}>, void ()>::operator()()
FUNC 2a358 1c 0 std::__ndk1::__function::__func<geode::Task<geode::utils::web::WebResponse, geode::utils::web::WebProgress>::setListener(geode::EventListenerProtocol*)::{lambda()#1}, std::__ndk1::allocator<geode::Task<geode::utils::web::WebResponse, geode::utils::web::WebProgress>::setListener(geode::EventListenerProtocol*)::{lambda()#1}>, void ()>::target(std::type_info const&) const
FUNC 2a374 c 0 std::__ndk1::__function::__func<geode::Task<geode::utils::web::WebResponse, geode::utils::web::WebProgress>::setListener(geode::EventListenerProtocol*)::{lambda()#1}, std::__ndk1::allocator<geode::Task<geode::utils::web::WebResponse, geode::utils::web::WebProgress>::setListener(geode::EventListenerProtocol*)::{lambda()#1}>, void ()>::target_type() const
FUNC 2a380 50 0 geode::Task<geode::utils::web::WebResponse, geode::utils::web::WebProgress>::Event::~Event()
FUNC 2a3d0 58 0 geode::Task<geode::utils::web::WebResponse, geode::utils::web::WebProgress>::Event::~Event()
FUNC 2a428 5c 0 std::__ndk1::__function::__func<geode::Task<geode::utils::web::WebResponse, geode::utils::web::WebProgress>::setListener(geode::EventListenerProtocol*)::{lambda()#2}, std::__ndk1::allocator<geode::Task<geode::utils::web::WebResponse, geode::utils::web::WebProgress>::setListener(geode::EventListenerProtocol*)::{lambda()#2}>, void ()>::~__func()
FUNC 2a484 5c 0 std::__ndk1::__function::__func<geode::Task<geode::utils::web::WebResponse, geode::utils::web::WebProgress>::setListener(geode::EventListenerProtocol*)::{lambda()#2}, std::__ndk1::allocator<geode::Task<geode::utils::web::WebResponse, geode::utils::web::WebProgress>::setListener(geode::EventListenerProtocol*)::{lambda()#2}>, void ()>::~__func()
FUNC 2a4e0 58 0 std::__ndk1::__function::__func<geode::Task<geode::utils::web::WebResponse, geode::utils::web::WebProgress>::setListener(geode::EventListenerProtocol*)::{lambda()#2}, std::__ndk1::allocator<geode::Task<geode::utils::web::WebResponse, geode::utils::web::WebProgress>::setListener(geode::EventListenerProtocol*)::{lambda()#2}>, void ()>::__clone() const
FUNC 2a538 4c 0 std::__ndk1::__function::__func<geode::Task<geode::utils::web::WebResponse, geode::utils::web::WebProgress>::setListener(geode::EventListenerProtocol*)::{lambda()#2}, std::__ndk1::allocator<geode::Task<geode::utils::web::WebResponse, geode::utils::web::WebProgress>::setListener(geode::EventListenerProtocol*)::{lambda()#2}>, void ()>::__clone(std::__ndk1::__function::__base<void ()>*) const
FUNC 2a584 50 0 std::__ndk1::__function::__func<geode::Task<geode::utils::web::WebResponse, geode::utils::web::WebProgress>::setListener(geode::EventListenerProtocol*)::{lambda()#2}, std::__ndk1::allocator<geode::Task<geode::utils::web::WebResponse, geode::utils::web::WebProgress>::setListener(geode::EventListenerProtocol*)::{lambda()#2}>, void ()>::destroy()
FUNC 2a5d4 50 0 std::__ndk1::__function::__func<geode::Task<geode::utils::web::WebResponse, geode::utils::web::WebProgress>::setListener(geode::EventListenerProtocol*)::{lambda()#2}, std::__ndk1::allocator<geode::Task<geode::utils::web::WebResponse, geode::utils::web::WebProgress>::setListener(geode::EventListenerProtocol*)::{lambda()#2}>, void ()>::destroy_deallocate()
FUNC 2a624 188 0 std::__ndk1::__function::__func<geode::Task<geode::utils::web::WebResponse, geode::utils::web::WebProgress>::setListener(geode::EventListenerProtocol*)::{lambda()#2}, std::__ndk1::allocator<geode::Task<geode::utils::web::WebResponse, geode::utils::web::WebProgress>::setListener(geode::EventListenerProtocol*)::{lambda()#2}>, void ()>::operator()()
FUNC 2a7ac 1c 0 std::__ndk1::__function::__func<geode::Task<geode::utils::web::WebResponse, geode::utils::web::WebProgress>::setListener(geode::EventListenerProtocol*)::{lambda()#2}, std::__ndk1::allocator<geode::Task<geode::utils::web::WebResponse, geode::utils::web::WebProgress>::setListener(geode::EventListenerProtocol*)::{lambda()#2}>, void ()>::target(std::type_info const&) const
FUNC 2a7c8 c 0 std::__ndk1::__function::__func<geode::Task<geode::utils::web::WebResponse, geode::utils::web::WebProgress>::setListener(geode::EventListenerProtocol*)::{lambda()#2}, std::__ndk1::allocator<geode::Task<geode::utils::web::WebResponse, geode::utils::web::WebProgress>::setListener(geode::EventListenerProtocol*)::{lambda()#2}>, void ()>::target_type() const
FUNC 2a7d4 34 0 std::__ndk1::__throw_bad_function_call[abi:ne180000]()
FUNC 2a808 24 0 std::__ndk1::bad_function_call::~bad_function_call()
FUNC 2a82c 21c 0 geode::Task<geode::Result<void, std::__ndk1::basic_string<char, std::__ndk1::char_traits<char>, std::__ndk1::allocator<char> > >, float>::setListener(geode::EventListenerProtocol*)
FUNC 2aa48 4 0 geode::EventListener<geode::Task<geode::Result<void, std::__ndk1::basic_string<char, std::__ndk1::char_traits<char>, std::__ndk1::allocator<char> > >, float> >::getPool() const
FUNC 2aa4c 1ac 0 geode::EventListener<geode::Task<geode::Result<void, std::__ndk1::basic_string<char, std::__ndk1::char_traits<char>, std::__ndk1::allocator<char> > >, float> >::handle(geode::Event*)
FUNC 2abf8 8c 0 geode::EventListener<geode::Task<geode::Result<void, std::__ndk1::basic_string<char, std::__ndk1::char_traits<char>, std::__ndk1::allocator<char> > >, float> >::~EventListener()
FUNC 2ac84 94 0 geode::EventListener<geode::Task<geode::Result<void, std::__ndk1::basic_string<char, std::__ndk1::char_traits<char>, std::__ndk1::allocator<char> > >, float> >::~EventListener()
FUNC 2ad18 50 0 geode::Task<geode::Result<void, std::__ndk1::basic_string<char, std::__ndk1::char_traits<char>, std::__ndk1::allocator<char> > >, float>::setListener(geode::EventListenerProtocol*)::{lambda()#1}::~{lambda()#1}()
FUNC 2ad68 50 0 geode::Task<geode::Result<void, std::__ndk1::basic_string<char, std::__ndk1::char_traits<char>, std::__ndk1::allocator<char> > >, float>::setListener(geode::EventListenerProtocol*)::{lambda()#2}::~{lambda()#2}()
FUNC 2adb8 5c 0 std::__ndk1::__function::__func<geode::Task<geode::Result<void, std::__ndk1::basic_string<char, std::__ndk1::char_traits<char>, std::__ndk1::allocator<char> > >, float>::setListener(geode::EventListenerProtocol*)::{lambda()#1}, std::__ndk1::allocator<geode::Task<geode::Result<void, std::__ndk1::basic_string<char, std::__ndk1::char_traits<char>, std::__ndk1::allocator<char> > >, float>::setListener(geode::EventListenerProtocol*)::{lambda()#1}>, void ()>::~__func()
FUNC 2ae14 5c 0 std::__ndk1::__function::__func<geode::Task<geode::Result<void, std::__ndk1::basic_string<char, std::__ndk1::char_traits<char>, std::__ndk1::allocator<char> > >, float>::setListener(geode::EventListenerProtocol*)::{lambda()#1}, std::__ndk1::allocator<geode::Task<geode::Result<void, std::__ndk1::basic_string<char, std::__ndk1::char_traits<char>, std::__ndk1::allocator<char> > >, float>::setListener(geode::EventListenerProtocol*)::{lambda()#1}>, void ()>::~__func()
FUNC 2ae70 58 0 std::__ndk1::__function::__func<geode::Task<geode::Result<void, std::__ndk1::basic_string<char, std::__ndk1::char_traits<char>, std::__ndk1::allocator<char> > >, float>::setListener(geode::EventListenerProtocol*)::{lambda()#1}, std::__ndk1::allocator<geode::Task<geode::Result<void, std::__ndk1::basic_string<char, std::__ndk1::char_traits<char>, std::__ndk1::allocator<char> > >, float>::setListener(geode::EventListenerProtocol*)::{lambda()#1}>, void ()>::__clone() const
FUNC 2aec8 4c 0 std::__ndk1::__function::__func<geode::Task<geode::Result<void, std::__ndk1::basic_string<char, std::__ndk1::char_traits<char>, std::__ndk1::allocator<char> > >, float>::setListener(geode::EventListenerProtocol*)::{lambda()#1}, std::__ndk1::allocator<geode::Task<geode::Result<void, std::__ndk1::basic_string<char, std::__ndk1::char_traits<char>, std::__ndk1::allocator<char> > >, float>::setListener(geode::EventListenerProtocol*)::{lambda()#1}>, void ()>::__clone(std::__ndk1::__function::__base<void ()>*) const
FUNC 2af14 50 0 std::__ndk1::__function::__func<geode::Task<geode::Result<void, std::__ndk1::basic_string<char, std::__ndk1::char_traits<char>, std::__ndk1::allocator<char> > >, float>::setListener(geode::EventListenerProtocol*)::{lambda()#1}, std::__ndk1::allocator<geode::Task<geode::Result<void, std::__ndk1::basic_string<char, std::__ndk1::char_traits<char>, std::__ndk1::allocator<char> > >, float>::setListener(geode::EventListenerProtocol*)::{lambda()#1}>, void ()>::destroy()
FUNC 2af64 50 0 std::__ndk1::__function::__func<geode::Task<geode::Result<void, std::__ndk1::basic_string<char, std::__ndk1::char_traits<char>, std::__ndk1::allocator<char> > >, float>::setListener(geode::EventListenerProtocol*)::{lambda()#1}, std::__ndk1::allocator<geode::Task<geode::Result<void, std::__ndk1::basic_string<char, std::__ndk1::char_traits<char>, std::__ndk1::allocator<char> > >, float>::setListener(geode::EventListenerProtocol*)::{lambda()#1}>, void ()>::destroy_deallocate()
FUNC 2afb4 198 0 std::__ndk1::__function::__func<geode::Task<geode::Result<void, std::__ndk1::basic_string<char, std::__ndk1::char_traits<char>, std::__ndk1::allocator<char> > >, float>::setListener(geode::EventListenerProtocol*)::{lambda()#1}, std::__ndk1::allocator<geode::Task<geode::Result<void, std::__ndk1::basic_string<char, std::__ndk1::char_traits<char>, std::__ndk1::allocator<char> > >, float>::setListener(geode::EventListenerProtocol*)::{lambda()#1}>, void ()>::operator()()
FUNC 2b14c 1c 0 std::__ndk1::__function::__func<geode::Task<geode::Result<void, std::__ndk1::basic_string<char, std::__ndk1::char_traits<char>, std::__ndk1::allocator<char> > >, float>::setListener(geode::EventListenerProtocol*)::{lambda()#1}, std::__ndk1::allocator<geode::Task<geode::Result<void, std::__ndk1::basic_string<char, std::__ndk1::char_traits<char>, std::__ndk1::allocator<char> > >, float>::setListener(geode::EventListenerProtocol*)::{lambda()#1}>, void ()>::target(std::type_info const&) const
FUNC 2b168 c 0 std::__ndk1::__function::__func<geode::Task<geode::Result<void, std::__ndk1::basic_string<char, std::__ndk1::char_traits<char>, std::__ndk1::allocator<char> > >, float>::setListener(geode::EventListenerProtocol*)::{lambda()#1}, std::__ndk1::allocator<geode::Task<geode::Result<void, std::__ndk1::basic_string<char, std::__ndk1::char_traits<char>, std::__ndk1::allocator<char> > >, float>::setListener(geode::EventListenerProtocol*)::{lambda()#1}>, void ()>::target_type() const
FUNC 2b174 50 0 std::__ndk1::shared_ptr<geode::Task<geode::Result<void, std::__ndk1::basic_string<char, std::__ndk1::char_traits<char>, std::__ndk1::allocator<char> > >, float>::Handle>::~shared_ptr[abi:ne180000]()
FUNC 2b1c4 50 0 geode::Task<geode::Result<void, std::__ndk1::basic_string<char, std::__ndk1::char_traits<char>, std::__ndk1::allocator<char> > >, float>::Event::~Event()
FUNC 2b214 58 0 geode::Task<geode::Result<void, std::__ndk1::basic_string<char, std::__ndk1::char_traits<char>, std::__ndk1::allocator<char> > >, float>::Event::~Event()
FUNC 2b26c 5c 0 std::__ndk1::__function::__func<geode::Task<geode::Result<void, std::__ndk1::basic_string<char, std::__ndk1::char_traits<char>, std::__ndk1::allocator<char> > >, float>::setListener(geode::EventListenerProtocol*)::{lambda()#2}, std::__ndk1::allocator<geode::Task<geode::Result<void, std::__ndk1::basic_string<char, std::__ndk1::char_traits<char>, std::__ndk1::allocator<char> > >, float>::setListener(geode::EventListenerProtocol*)::{lambda()#2}>, void ()>::~__func()
FUNC 2b2c8 5c 0 std::__ndk1::__function::__func<geode::Task<geode::Result<void, std::__ndk1::basic_string<char, std::__ndk1::char_traits<char>, std::__ndk1::allocator<char> > >, float>::setListener(geode::EventListenerProtocol*)::{lambda()#2}, std::__ndk1::allocator<geode::Task<geode::Result<void, std::__ndk1::basic_string<char, std::__ndk1::char_traits<char>, std::__ndk1::allocator<char> > >, float>::setListener(geode::EventListenerProtocol*)::{lambda()#2}>, void ()>::~__func()
FUNC 2b324 58 0 std::__ndk1::__function::__func<geode::Task<geode::Result<void, std::__ndk1::basic_string<char, std::__ndk1::char_traits<char>, std::__ndk1::allocator<char> > >, float>::setListener(geode::EventListenerProtocol*)::{lambda()#2}, std::__ndk1::allocator<geode::Task<geode::Result<void, std::__ndk1::basic_string<char, std::__ndk1::char_traits<char>, std::__ndk1::allocator<char> > >, float>::setListener(geode::EventListenerProtocol*)::{lambda()#2}>, void ()>::__clone() const
FUNC 2b37c 4c 0 std::__ndk1::__function::__func<geode::Task<geode::Result<void, std::__ndk1::basic_string<char, std::__ndk1::char_traits<char>, std::__ndk1::allocator<char> > >, float>::setListener(geode::EventListenerProtocol*)::{lambda()#2}, std::__ndk1::allocator<geode::Task<geode::Result<void, std::__ndk1::basic_string<char, std::__ndk1::char_traits<char>, std::__ndk1::allocator<char> > >, float>::setListener(geode::EventListenerProtocol*)::{lambda()#2}>, void ()>::__clone(std::__ndk1::__function::__base<void ()>*) const
FUNC 2b3c8 50 0 std::__ndk1::__function::__func<geode::Task<geode::Result<void, std::__ndk1::basic_string<char, std::__ndk1::char_traits<char>, std::__ndk1::allocator<char> > >, float>::setListener(geode::EventListenerProtocol*)::{lambda()#2}, std::__ndk1::allocator<geode::Task<geode::Result<void, std::__ndk1::basic_string<char, std::__ndk1::char_traits<char>, std::__ndk1::allocator<char> > >, float>::setListener(geode::EventListenerProtocol*)::{lambda()#2}>, void ()>::destroy()
FUNC 2b418 50 0 std::__ndk1::__function::__func<geode::Task<geode::Result<void, std::__ndk1::basic_string<char, std::__ndk1::char_traits<char>, std::__ndk1::allocator<char> > >, float>::setListener(geode::EventListenerProtocol*)::{lambda()#2}, std::__ndk1::allocator<geode::Task<geode::Result<void, std::__ndk1::basic_string<char, std::__ndk1::char_traits<char>, std::__ndk1::allocator<char> > >, float>::setListener(geode::EventListenerProtocol*)::{lambda()#2}>, void ()>::destroy_deallocate()
FUNC 2b468 188 0 std::__ndk1::__function::__func<geode::Task<geode::Result<void, std::__ndk1::basic_string<char, std::__ndk1::char_traits<char>, std::__ndk1::allocator<char> > >, float>::setListener(geode::EventListenerProtocol*)::{lambda()#2}, std::__ndk1::allocator<geode::Task<geode::Result<void, std::__ndk1::basic_string<char, std::__ndk1::char_traits<char>, std::__ndk1::allocator<char> > >, float>::setListener(geode::EventListenerProtocol*)::{lambda()#2}>, void ()>::operator()()
FUNC 2b5f0 1c 0 std::__ndk1::__function::__func<geode::Task<geode::Result<void, std::__ndk1::basic_string<char, std::__ndk1::char_traits<char>, std::__ndk1::allocator<char> > >, float>::setListener(geode::EventListenerProtocol*)::{lambda()#2}, std::__ndk1::allocator<geode::Task<geode::Result<void, std::__ndk1::basic_string<char, std::__ndk1::char_traits<char>, std::__ndk1::allocator<char> > >, float>::setListener(geode::EventListenerProtocol*)::{lambda()#2}>, void ()>::target(std::type_info const&) const
FUNC 2b60c c 0 std::__ndk1::__function::__func<geode::Task<geode::Result<void, std::__ndk1::basic_string<char, std::__ndk1::char_traits<char>, std::__ndk1::allocator<char> > >, float>::setListener(geode::EventListenerProtocol*)::{lambda()#2}, std::__ndk1::allocator<geode::Task<geode::Result<void, std::__ndk1::basic_string<char, std::__ndk1::char_traits<char>, std::__ndk1::allocator<char> > >, float>::setListener(geode::EventListenerProtocol*)::{lambda()#2}>, void ()>::target_type() const
FUNC 2b618 184 0 geode::Mod::getSavedValue<bool>(std::__ndk1::basic_string_view<char, std::__ndk1::char_traits<char> >)
FUNC 2b79c 74 0 geode::impl::ResultData<matjson::Value&, std::__ndk1::basic_string<char, std::__ndk1::char_traits<char>, std::__ndk1::allocator<char> > >::~ResultData()
FUNC 2b810 34 0 std::__ndk1::__throw_bad_variant_access[abi:ne180000]()
FUNC 2b844 4 0 std::__ndk1::__variant_detail::__visitation::__base::__dispatcher<(unsigned long)0>::__dispatch[abi:ne180000]<std::__ndk1::__variant_detail::__dtor<std::__ndk1::__variant_detail::__traits<std::__ndk1::reference_wrapper<matjson::Value>, std::__ndk1::basic_string<char, std::__ndk1::char_traits<char>, std::__ndk1::allocator<char> > >, (std::__ndk1::__variant_detail::_Trait)1>::__destroy[abi:ne180000]()::{lambda(auto:1&)#1}, std::__ndk1::__variant_detail::__base<(std::__ndk1::__variant_detail::__traits<std::__ndk1::reference_wrapper<matjson::Value>, std::__ndk1::basic_string<char, std::__ndk1::char_traits<char>, std::__ndk1::allocator<char> > >)1, matjson::Value, std::__ndk1::allocator<char> >&>(std::__ndk1::__variant_detail::__dtor<std::__ndk1::__variant_detail::__traits<std::__ndk1::reference_wrapper<matjson::Value>, std::__ndk1::basic_string<char, std::__ndk1::char_traits<char>, std::__ndk1::allocator<char> > >, (std::__ndk1::__variant_detail::_Trait)1>, std::__ndk1::__variant_detail::__base<(std::__ndk1::__variant_detail::__traits<std::__ndk1::reference_wrapper<matjson::Value>, std::__ndk1::basic_string<char, std::__ndk1::char_traits<char>, std::__ndk1::allocator<char> > >)1, matjson::Value, std::__ndk1::allocator<char> >&)
FUNC 2b848 14 0 std::__ndk1::__variant_detail::__visitation::__base::__dispatcher<(unsigned long)1>::__dispatch[abi:ne180000]<std::__ndk1::__variant_detail::__dtor<std::__ndk1::__variant_detail::__traits<std::__ndk1::reference_wrapper<matjson::Value>, std::__ndk1::basic_string<char, std::__ndk1::char_traits<char>, std::__ndk1::allocator<char> > >, (std::__ndk1::__variant_detail::_Trait)1>::__destroy[abi:ne180000]()::{lambda(auto:1&)#1}, std::__ndk1::__variant_detail::__base<(std::__ndk1::__variant_detail::__traits<std::__ndk1::reference_wrapper<matjson::Value>, std::__ndk1::basic_string<char, std::__ndk1::char_traits<char>, std::__ndk1::allocator<char> > >)1, matjson::Value, std::__ndk1::allocator<char> >&>(std::__ndk1::__variant_detail::__dtor<std::__ndk1::__variant_detail::__traits<std::__ndk1::reference_wrapper<matjson::Value>, std::__ndk1::basic_string<char, std::__ndk1::char_traits<char>, std::__ndk1::allocator<char> > >, (std::__ndk1::__variant_detail::_Trait)1>, std::__ndk1::__variant_detail::__base<(std::__ndk1::__variant_detail::__traits<std::__ndk1::reference_wrapper<matjson::Value>, std::__ndk1::basic_string<char, std::__ndk1::char_traits<char>, std::__ndk1::allocator<char> > >)1, matjson::Value, std::__ndk1::allocator<char> >&)
FUNC 2b85c 4 0 std::__ndk1::__variant_detail::__visitation::__base::__dispatcher<(unsigned long)0>::__dispatch[abi:ne180000]<std::__ndk1::__variant_detail::__dtor<std::__ndk1::__variant_detail::__traits<bool, std::__ndk1::basic_string<char, std::__ndk1::char_traits<char>, std::__ndk1::allocator<char> > >, (std::__ndk1::__variant_detail::_Trait)1>::__destroy[abi:ne180000]()::{lambda(auto:1&)#1}, std::__ndk1::__variant_detail::__base<(std::__ndk1::__variant_detail::__traits<bool, std::__ndk1::basic_string<char, std::__ndk1::char_traits<char>, std::__ndk1::allocator<char> > >)1, bool, std::__ndk1::allocator<char> >&>(std::__ndk1::__variant_detail::__dtor<std::__ndk1::__variant_detail::__traits<bool, std::__ndk1::basic_string<char, std::__ndk1::char_traits<char>, std::__ndk1::allocator<char> > >, (std::__ndk1::__variant_detail::_Trait)1>, std::__ndk1::__variant_detail::__base<(std::__ndk1::__variant_detail::__traits<bool, std::__ndk1::basic_string<char, std::__ndk1::char_traits<char>, std::__ndk1::allocator<char> > >)1, bool, std::__ndk1::allocator<char> >&)
FUNC 2b860 14 0 std::__ndk1::__variant_detail::__visitation::__base::__dispatcher<(unsigned long)1>::__dispatch[abi:ne180000]<std::__ndk1::__variant_detail::__dtor<std::__ndk1::__variant_detail::__traits<bool, std::__ndk1::basic_string<char, std::__ndk1::char_traits<char>, std::__ndk1::allocator<char> > >, (std::__ndk1::__variant_detail::_Trait)1>::__destroy[abi:ne180000]()::{lambda(auto:1&)#1}, std::__ndk1::__variant_detail::__base<(std::__ndk1::__variant_detail::__traits<bool, std::__ndk1::basic_string<char, std::__ndk1::char_traits<char>, std::__ndk1::allocator<char> > >)1, bool, std::__ndk1::allocator<char> >&>(std::__ndk1::__variant_detail::__dtor<std::__ndk1::__variant_detail::__traits<bool, std::__ndk1::basic_string<char, std::__ndk1::char_traits<char>, std::__ndk1::allocator<char> > >, (std::__ndk1::__variant_detail::_Trait)1>, std::__ndk1::__variant_detail::__base<(std::__ndk1::__variant_detail::__traits<bool, std::__ndk1::basic_string<char, std::__ndk1::char_traits<char>, std::__ndk1::allocator<char> > >)1, bool, std::__ndk1::allocator<char> >&)
FUNC 2b874 2f4 0 geode::Popup<bool>::initBase(float, float, bool, char const*, cocos2d::CCRect, bool)
FUNC 2bb68 70 0 geode::Task<geode::Result<void, std::__ndk1::basic_string<char, std::__ndk1::char_traits<char>, std::__ndk1::allocator<char> > >, float>::run(std::__ndk1::function<geode::Task<geode::Result<void, std::__ndk1::basic_string<char, std::__ndk1::char_traits<char>, std::__ndk1::allocator<char> > >, float>::Result(std::__ndk1::function<void (float)>, std::__ndk1::function<bool ()>)>&&, std::__ndk1::basic_string_view<char, std::__ndk1::char_traits<char> >)::{lambda()#1}::~{lambda()#1}()
FUNC 2bbd8 10 0 std::__ndk1::__shared_ptr_emplace<geode::Task<geode::Result<void, std::__ndk1::basic_string<char, std::__ndk1::char_traits<char>, std::__ndk1::allocator<char> > >, float>::Handle, std::__ndk1::allocator<geode::Task<geode::Result<void, std::__ndk1::basic_string<char, std::__ndk1::char_traits<char>, std::__ndk1::allocator<char> > >, float>::Handle> >::~__shared_ptr_emplace()
FUNC 2bbe8 30 0 std::__ndk1::__shared_ptr_emplace<geode::Task<geode::Result<void, std::__ndk1::basic_string<char, std::__ndk1::char_traits<char>, std::__ndk1::allocator<char> > >, float>::Handle, std::__ndk1::allocator<geode::Task<geode::Result<void, std::__ndk1::basic_string<char, std::__ndk1::char_traits<char>, std::__ndk1::allocator<char> > >, float>::Handle> >::~__shared_ptr_emplace()
FUNC 2bc18 e8 0 std::__ndk1::__shared_ptr_emplace<geode::Task<geode::Result<void, std::__ndk1::basic_string<char, std::__ndk1::char_traits<char>, std::__ndk1::allocator<char> > >, float>::Handle, std::__ndk1::allocator<geode::Task<geode::Result<void, std::__ndk1::basic_string<char, std::__ndk1::char_traits<char>, std::__ndk1::allocator<char> > >, float>::Handle> >::__on_zero_shared()
FUNC 2bd00 4 0 std::__ndk1::__shared_ptr_emplace<geode::Task<geode::Result<void, std::__ndk1::basic_string<char, std::__ndk1::char_traits<char>, std::__ndk1::allocator<char> > >, float>::Handle, std::__ndk1::allocator<geode::Task<geode::Result<void, std::__ndk1::basic_string<char, std::__ndk1::char_traits<char>, std::__ndk1::allocator<char> > >, float>::Handle> >::__on_zero_shared_weak()
FUNC 2bd04 7c 0 std::__ndk1::__optional_destruct_base<geode::Result<void, std::__ndk1::basic_string<char, std::__ndk1::char_traits<char>, std::__ndk1::allocator<char> > >, false>::~__optional_destruct_base[abi:ne180000]()
FUNC 2bd80 4 0 std::__ndk1::__variant_detail::__visitation::__base::__dispatcher<(unsigned long)0>::__dispatch[abi:ne180000]<std::__ndk1::__variant_detail::__dtor<std::__ndk1::__variant_detail::__traits<std::__ndk1::monostate, std::__ndk1::basic_string<char, std::__ndk1::char_traits<char>, std::__ndk1::allocator<char> > >, (std::__ndk1::__variant_detail::_Trait)1>::__destroy[abi:ne180000]()::{lambda(auto:1&)#1}, std::__ndk1::__variant_detail::__base<(std::__ndk1::__variant_detail::__traits<std::__ndk1::monostate, std::__ndk1::basic_string<char, std::__ndk1::char_traits<char>, std::__ndk1::allocator<char> > >)1, std::__ndk1::__variant_detail::__traits, std::__ndk1::allocator<char> >&>(std::__ndk1::__variant_detail::__dtor<std::__ndk1::__variant_detail::__traits<std::__ndk1::monostate, std::__ndk1::basic_string<char, std::__ndk1::char_traits<char>, std::__ndk1::allocator<char> > >, (std::__ndk1::__variant_detail::_Trait)1>, std::__ndk1::__variant_detail::__base<(std::__ndk1::__variant_detail::__traits<std::__ndk1::monostate, std::__ndk1::basic_string<char, std::__ndk1::char_traits<char>, std::__ndk1::allocator<char> > >)1, std::__ndk1::__variant_detail::__traits, std::__ndk1::allocator<char> >&)
FUNC 2bd84 14 0 std::__ndk1::__variant_detail::__visitation::__base::__dispatcher<(unsigned long)1>::__dispatch[abi:ne180000]<std::__ndk1::__variant_detail::__dtor<std::__ndk1::__variant_detail::__traits<std::__ndk1::monostate, std::__ndk1::basic_string<char, std::__ndk1::char_traits<char>, std::__ndk1::allocator<char> > >, (std::__ndk1::__variant_detail::_Trait)1>::__destroy[abi:ne180000]()::{lambda(auto:1&)#1}, std::__ndk1::__variant_detail::__base<(std::__ndk1::__variant_detail::__traits<std::__ndk1::monostate, std::__ndk1::basic_string<char, std::__ndk1::char_traits<char>, std::__ndk1::allocator<char> > >)1, std::__ndk1::__variant_detail::__traits, std::__ndk1::allocator<char> >&>(std::__ndk1::__variant_detail::__dtor<std::__ndk1::__variant_detail::__traits<std::__ndk1::monostate, std::__ndk1::basic_string<char, std::__ndk1::char_traits<char>, std::__ndk1::allocator<char> > >, (std::__ndk1::__variant_detail::_Trait)1>, std::__ndk1::__variant_detail::__base<(std::__ndk1::__variant_detail::__traits<std::__ndk1::monostate, std::__ndk1::basic_string<char, std::__ndk1::char_traits<char>, std::__ndk1::allocator<char> > >)1, std::__ndk1::__variant_detail::__traits, std::__ndk1::allocator<char> >&)
FUNC 2bd98 650 0 std::__ndk1::__thread_proxy[abi:ne180000]<std::__ndk1::tuple<std::__ndk1::unique_ptr<std::__ndk1::__thread_struct, std::__ndk1::default_delete<std::__ndk1::unique_ptr> >, geode::Task<std::__ndk1::unique_ptr<std::__ndk1::__thread_struct, std::__ndk1::default_delete<std::__ndk1::unique_ptr> >::Result<void, std::__ndk1::basic_string<char, std::__ndk1::char_traits<char>, std::__ndk1::allocator<char> > >, float>::run(std::__ndk1::function<std::__ndk1::unique_ptr<std::__ndk1::__thread_struct, std::__ndk1::default_delete<std::__ndk1::unique_ptr> >(geode::Task<std::__ndk1::unique_ptr<std::__ndk1::__thread_struct, std::__ndk1::default_delete<std::__ndk1::unique_ptr> >::Result<void, std::__ndk1::basic_string<char, std::__ndk1::char_traits<char>, std::__ndk1::allocator<char> > >, float><void (float)>, geode::Task<std::__ndk1::unique_ptr<std::__ndk1::__thread_struct, std::__ndk1::default_delete<std::__ndk1::unique_ptr> >::Result<void, std::__ndk1::basic_string<char, std::__ndk1::char_traits<char>, std::__ndk1::allocator<char> > >, float><bool ()>)::Result<void, std::__ndk1::basic_string<char, std::__ndk1::char_traits<char>, std::__ndk1::allocator<char> > >::Result>&&, std::__ndk1::basic_string_view<char, std::__ndk1::char_traits>)::{lambda()#1}> >(std::__ndk1::tuple<std::__ndk1::unique_ptr<std::__ndk1::__thread_struct, std::__ndk1::default_delete<std::__ndk1::unique_ptr> >, geode::Task<std::__ndk1::unique_ptr<std::__ndk1::__thread_struct, std::__ndk1::default_delete<std::__ndk1::unique_ptr> >::Result<void, std::__ndk1::basic_string<char, std::__ndk1::char_traits<char>, std::__ndk1::allocator<char> > >, float>::run(std::__ndk1::function<std::__ndk1::unique_ptr<std::__ndk1::__thread_struct, std::__ndk1::default_delete<std::__ndk1::unique_ptr> >(geode::Task<std::__ndk1::unique_ptr<std::__ndk1::__thread_struct, std::__ndk1::default_delete<std::__ndk1::unique_ptr> >::Result<void, std::__ndk1::basic_string<char, std::__ndk1::char_traits<char>, std::__ndk1::allocator<char> > >, float><void (float)>, geode::Task<std::__ndk1::unique_ptr<std::__ndk1::__thread_struct, std::__ndk1::default_delete<std::__ndk1::unique_ptr> >::Result<void, std::__ndk1::basic_string<char, std::__ndk1::char_traits<char>, std::__ndk1::allocator<char> > >, float><bool ()>)::Result<void, std::__ndk1::basic_string<char, std::__ndk1::char_traits<char>, std::__ndk1::allocator<char> > >::Result>&&, std::__ndk1::basic_string_view<char, std::__ndk1::char_traits>)::{lambda()#1}>)
FUNC 2c3e8 3c 0 std::__ndk1::unique_ptr<std::__ndk1::__thread_struct, std::__ndk1::default_delete<std::__ndk1::__thread_struct> >::~unique_ptr[abi:ne180000]()
FUNC 2c424 74 0 geode::Task<geode::Result<void, std::__ndk1::basic_string<char, std::__ndk1::char_traits<char>, std::__ndk1::allocator<char> > >, float>::Result::~Result()
FUNC 2c498 20 0 std::__ndk1::__function::__func<geode::Task<geode::Result<void, std::__ndk1::basic_string<char, std::__ndk1::char_traits<char>, std::__ndk1::allocator<char> > >, float>::run(std::__ndk1::function<geode::Task<geode::Result<void, std::__ndk1::basic_string<char, std::__ndk1::char_traits<char>, std::__ndk1::allocator<char> > >, float>::Result(std::__ndk1::function<void (float)>, std::__ndk1::function<bool ()>)>&&, std::__ndk1::basic_string_view<char, std::__ndk1::char_traits<char> >)::{lambda()#1}::operator()() const::{lambda(float)#1}, std::__ndk1::allocator<geode::Task<geode::Result<void, std::__ndk1::basic_string<char, std::__ndk1::char_traits<char>, std::__ndk1::allocator<char> > >, float>::run(std::__ndk1::function<geode::Task<geode::Result<void, std::__ndk1::basic_string<char, std::__ndk1::char_traits<char>, std::__ndk1::allocator<char> > >, float>::Result(std::__ndk1::function<void (float)>, std::__ndk1::function<bool ()>)>&&, std::__ndk1::basic_string_view<char, std::__ndk1::char_traits<char> >)::{lambda()#1}::operator()() const::{lambda(float)#1}>, void (float)>::~__func()
FUNC 2c4b8 3c 0 std::__ndk1::__function::__func<geode::Task<geode::Result<void, std::__ndk1::basic_string<char, std::__ndk1::char_traits<char>, std::__ndk1::allocator<char> > >, float>::run(std::__ndk1::function<geode::Task<geode::Result<void, std::__ndk1::basic_string<char, std::__ndk1::char_traits<char>, std::__ndk1::allocator<char> > >, float>::Result(std::__ndk1::function<void (float)>, std::__ndk1::function<bool ()>)>&&, std::__ndk1::basic_string_view<char, std::__ndk1::char_traits<char> >)::{lambda()#1}::operator()() const::{lambda(float)#1}, std::__ndk1::allocator<geode::Task<geode::Result<void, std::__ndk1::basic_string<char, std::__ndk1::char_traits<char>, std::__ndk1::allocator<char> > >, float>::run(std::__ndk1::function<geode::Task<geode::Result<void, std::__ndk1::basic_string<char, std::__ndk1::char_traits<char>, std::__ndk1::allocator<char> > >, float>::Result(std::__ndk1::function<void (float)>, std::__ndk1::function<bool ()>)>&&, std::__ndk1::basic_string_view<char, std::__ndk1::char_traits<char> >)::{lambda()#1}::operator()() const::{lambda(float)#1}>, void (float)>::~__func()
FUNC 2c4f4 50 0 std::__ndk1::__function::__func<geode::Task<geode::Result<void, std::__ndk1::basic_string<char, std::__ndk1::char_traits<char>, std::__ndk1::allocator<char> > >, float>::run(std::__ndk1::function<geode::Task<geode::Result<void, std::__ndk1::basic_string<char, std::__ndk1::char_traits<char>, std::__ndk1::allocator<char> > >, float>::Result(std::__ndk1::function<void (float)>, std::__ndk1::function<bool ()>)>&&, std::__ndk1::basic_string_view<char, std::__ndk1::char_traits<char> >)::{lambda()#1}::operator()() const::{lambda(float)#1}, std::__ndk1::allocator<geode::Task<geode::Result<void, std::__ndk1::basic_string<char, std::__ndk1::char_traits<char>, std::__ndk1::allocator<char> > >, float>::run(std::__ndk1::function<geode::Task<geode::Result<void, std::__ndk1::basic_string<char, std::__ndk1::char_traits<char>, std::__ndk1::allocator<char> > >, float>::Result(std::__ndk1::function<void (float)>, std::__ndk1::function<bool ()>)>&&, std::__ndk1::basic_string_view<char, std::__ndk1::char_traits<char> >)::{lambda()#1}::operator()() const::{lambda(float)#1}>, void (float)>::__clone() const
FUNC 2c544 34 0 std::__ndk1::__function::__func<geode::Task<geode::Result<void, std::__ndk1::basic_string<char, std::__ndk1::char_traits<char>, std::__ndk1::allocator<char> > >, float>::run(std::__ndk1::function<geode::Task<geode::Result<void, std::__ndk1::basic_string<char, std::__ndk1::char_traits<char>, std::__ndk1::allocator<char> > >, float>::Result(std::__ndk1::function<void (float)>, std::__ndk1::function<bool ()>)>&&, std::__ndk1::basic_string_view<char, std::__ndk1::char_traits<char> >)::{lambda()#1}::operator()() const::{lambda(float)#1}, std::__ndk1::allocator<geode::Task<geode::Result<void, std::__ndk1::basic_string<char, std::__ndk1::char_traits<char>, std::__ndk1::allocator<char> > >, float>::run(std::__ndk1::function<geode::Task<geode::Result<void, std::__ndk1::basic_string<char, std::__ndk1::char_traits<char>, std::__ndk1::allocator<char> > >, float>::Result(std::__ndk1::function<void (float)>, std::__ndk1::function<bool ()>)>&&, std::__ndk1::basic_string_view<char, std::__ndk1::char_traits<char> >)::{lambda()#1}::operator()() const::{lambda(float)#1}>, void (float)>::__clone(std::__ndk1::__function::__base<void (float)>*) const
FUNC 2c578 10 0 std::__ndk1::__function::__func<geode::Task<geode::Result<void, std::__ndk1::basic_string<char, std::__ndk1::char_traits<char>, std::__ndk1::allocator<char> > >, float>::run(std::__ndk1::function<geode::Task<geode::Result<void, std::__ndk1::basic_string<char, std::__ndk1::char_traits<char>, std::__ndk1::allocator<char> > >, float>::Result(std::__ndk1::function<void (float)>, std::__ndk1::function<bool ()>)>&&, std::__ndk1::basic_string_view<char, std::__ndk1::char_traits<char> >)::{lambda()#1}::operator()() const::{lambda(float)#1}, std::__ndk1::allocator<geode::Task<geode::Result<void, std::__ndk1::basic_string<char, std::__ndk1::char_traits<char>, std::__ndk1::allocator<char> > >, float>::run(std::__ndk1::function<geode::Task<geode::Result<void, std::__ndk1::basic_string<char, std::__ndk1::char_traits<char>, std::__ndk1::allocator<char> > >, float>::Result(std::__ndk1::function<void (float)>, std::__ndk1::function<bool ()>)>&&, std::__ndk1::basic_string_view<char, std::__ndk1::char_traits<char> >)::{lambda()#1}::operator()() const::{lambda(float)#1}>, void (float)>::destroy()
FUNC 2c588 30 0 std::__ndk1::__function::__func<geode::Task<geode::Result<void, std::__ndk1::basic_string<char, std::__ndk1::char_traits<char>, std::__ndk1::allocator<char> > >, float>::run(std::__ndk1::function<geode::Task<geode::Result<void, std::__ndk1::basic_string<char, std::__ndk1::char_traits<char>, std::__ndk1::allocator<char> > >, float>::Result(std::__ndk1::function<void (float)>, std::__ndk1::function<bool ()>)>&&, std::__ndk1::basic_string_view<char, std::__ndk1::char_traits<char> >)::{lambda()#1}::operator()() const::{lambda(float)#1}, std::__ndk1::allocator<geode::Task<geode::Result<void, std::__ndk1::basic_string<char, std::__ndk1::char_traits<char>, std::__ndk1::allocator<char> > >, float>::run(std::__ndk1::function<geode::Task<geode::Result<void, std::__ndk1::basic_string<char, std::__ndk1::char_traits<char>, std::__ndk1::allocator<char> > >, float>::Result(std::__ndk1::function<void (float)>, std::__ndk1::function<bool ()>)>&&, std::__ndk1::basic_string_view<char, std::__ndk1::char_traits<char> >)::{lambda()#1}::operator()() const::{lambda(float)#1}>, void (float)>::destroy_deallocate()
FUNC 2c5b8 19c 0 std::__ndk1::__function::__func<geode::Task<geode::Result<void, std::__ndk1::basic_string<char, std::__ndk1::char_traits<char>, std::__ndk1::allocator<char> > >, float>::run(std::__ndk1::function<geode::Task<geode::Result<void, std::__ndk1::basic_string<char, std::__ndk1::char_traits<char>, std::__ndk1::allocator<char> > >, float>::Result(std::__ndk1::function<void (float)>, std::__ndk1::function<bool ()>)>&&, std::__ndk1::basic_string_view<char, std::__ndk1::char_traits<char> >)::{lambda()#1}::operator()() const::{lambda(float)#1}, std::__ndk1::allocator<geode::Task<geode::Result<void, std::__ndk1::basic_string<char, std::__ndk1::char_traits<char>, std::__ndk1::allocator<char> > >, float>::run(std::__ndk1::function<geode::Task<geode::Result<void, std::__ndk1::basic_string<char, std::__ndk1::char_traits<char>, std::__ndk1::allocator<char> > >, float>::Result(std::__ndk1::function<void (float)>, std::__ndk1::function<bool ()>)>&&, std::__ndk1::basic_string_view<char, std::__ndk1::char_traits<char> >)::{lambda()#1}::operator()() const::{lambda(float)#1}>, void (float)>::operator()(float&&)
FUNC 2c754 1c 0 std::__ndk1::__function::__func<geode::Task<geode::Result<void, std::__ndk1::basic_string<char, std::__ndk1::char_traits<char>, std::__ndk1::allocator<char> > >, float>::run(std::__ndk1::function<geode::Task<geode::Result<void, std::__ndk1::basic_string<char, std::__ndk1::char_traits<char>, std::__ndk1::allocator<char> > >, float>::Result(std::__ndk1::function<void (float)>, std::__ndk1::function<bool ()>)>&&, std::__ndk1::basic_string_view<char, std::__ndk1::char_traits<char> >)::{lambda()#1}::operator()() const::{lambda(float)#1}, std::__ndk1::allocator<geode::Task<geode::Result<void, std::__ndk1::basic_string<char, std::__ndk1::char_traits<char>, std::__ndk1::allocator<char> > >, float>::run(std::__ndk1::function<geode::Task<geode::Result<void, std::__ndk1::basic_string<char, std::__ndk1::char_traits<char>, std::__ndk1::allocator<char> > >, float>::Result(std::__ndk1::function<void (float)>, std::__ndk1::function<bool ()>)>&&, std::__ndk1::basic_string_view<char, std::__ndk1::char_traits<char> >)::{lambda()#1}::operator()() const::{lambda(float)#1}>, void (float)>::target(std::type_info const&) const
FUNC 2c770 c 0 std::__ndk1::__function::__func<geode::Task<geode::Result<void, std::__ndk1::basic_string<char, std::__ndk1::char_traits<char>, std::__ndk1::allocator<char> > >, float>::run(std::__ndk1::function<geode::Task<geode::Result<void, std::__ndk1::basic_string<char, std::__ndk1::char_traits<char>, std::__ndk1::allocator<char> > >, float>::Result(std::__ndk1::function<void (float)>, std::__ndk1::function<bool ()>)>&&, std::__ndk1::basic_string_view<char, std::__ndk1::char_traits<char> >)::{lambda()#1}::operator()() const::{lambda(float)#1}, std::__ndk1::allocator<geode::Task<geode::Result<void, std::__ndk1::basic_string<char, std::__ndk1::char_traits<char>, std::__ndk1::allocator<char> > >, float>::run(std::__ndk1::function<geode::Task<geode::Result<void, std::__ndk1::basic_string<char, std::__ndk1::char_traits<char>, std::__ndk1::allocator<char> > >, float>::Result(std::__ndk1::function<void (float)>, std::__ndk1::function<bool ()>)>&&, std::__ndk1::basic_string_view<char, std::__ndk1::char_traits<char> >)::{lambda()#1}::operator()() const::{lambda(float)#1}>, void (float)>::target_type() const
FUNC 2c77c 50 0 geode::Task<geode::Result<void, std::__ndk1::basic_string<char, std::__ndk1::char_traits<char>, std::__ndk1::allocator<char> > >, float>::progress(std::__ndk1::shared_ptr<geode::Task<geode::Result<void, std::__ndk1::basic_string<char, std::__ndk1::char_traits<char>, std::__ndk1::allocator<char> > >, float>::Handle>, float&&)::{lambda()#1}::~{lambda()#1}()
FUNC 2c7cc 5c 0 std::__ndk1::__function::__func<geode::Task<geode::Result<void, std::__ndk1::basic_string<char, std::__ndk1::char_traits<char>, std::__ndk1::allocator<char> > >, float>::progress(std::__ndk1::shared_ptr<geode::Task<geode::Result<void, std::__ndk1::basic_string<char, std::__ndk1::char_traits<char>, std::__ndk1::allocator<char> > >, float>::Handle>, float&&)::{lambda()#1}, std::__ndk1::allocator<geode::Task<geode::Result<void, std::__ndk1::basic_string<char, std::__ndk1::char_traits<char>, std::__ndk1::allocator<char> > >, float>::progress(std::__ndk1::shared_ptr<geode::Task<geode::Result<void, std::__ndk1::basic_string<char, std::__ndk1::char_traits<char>, std::__ndk1::allocator<char> > >, float>::Handle>, float&&)::{lambda()#1}>, void ()>::~__func()
FUNC 2c828 5c 0 std::__ndk1::__function::__func<geode::Task<geode::Result<void, std::__ndk1::basic_string<char, std::__ndk1::char_traits<char>, std::__ndk1::allocator<char> > >, float>::progress(std::__ndk1::shared_ptr<geode::Task<geode::Result<void, std::__ndk1::basic_string<char, std::__ndk1::char_traits<char>, std::__ndk1::allocator<char> > >, float>::Handle>, float&&)::{lambda()#1}, std::__ndk1::allocator<geode::Task<geode::Result<void, std::__ndk1::basic_string<char, std::__ndk1::char_traits<char>, std::__ndk1::allocator<char> > >, float>::progress(std::__ndk1::shared_ptr<geode::Task<geode::Result<void, std::__ndk1::basic_string<char, std::__ndk1::char_traits<char>, std::__ndk1::allocator<char> > >, float>::Handle>, float&&)::{lambda()#1}>, void ()>::~__func()
FUNC 2c884 58 0 std::__ndk1::__function::__func<geode::Task<geode::Result<void, std::__ndk1::basic_string<char, std::__ndk1::char_traits<char>, std::__ndk1::allocator<char> > >, float>::progress(std::__ndk1::shared_ptr<geode::Task<geode::Result<void, std::__ndk1::basic_string<char, std::__ndk1::char_traits<char>, std::__ndk1::allocator<char> > >, float>::Handle>, float&&)::{lambda()#1}, std::__ndk1::allocator<geode::Task<geode::Result<void, std::__ndk1::basic_string<char, std::__ndk1::char_traits<char>, std::__ndk1::allocator<char> > >, float>::progress(std::__ndk1::shared_ptr<geode::Task<geode::Result<void, std::__ndk1::basic_string<char, std::__ndk1::char_traits<char>, std::__ndk1::allocator<char> > >, float>::Handle>, float&&)::{lambda()#1}>, void ()>::__clone() const
FUNC 2c8dc 4c 0 std::__ndk1::__function::__func<geode::Task<geode::Result<void, std::__ndk1::basic_string<char, std::__ndk1::char_traits<char>, std::__ndk1::allocator<char> > >, float>::progress(std::__ndk1::shared_ptr<geode::Task<geode::Result<void, std::__ndk1::basic_string<char, std::__ndk1::char_traits<char>, std::__ndk1::allocator<char> > >, float>::Handle>, float&&)::{lambda()#1}, std::__ndk1::allocator<geode::Task<geode::Result<void, std::__ndk1::basic_string<char, std::__ndk1::char_traits<char>, std::__ndk1::allocator<char> > >, float>::progress(std::__ndk1::shared_ptr<geode::Task<geode::Result<void, std::__ndk1::basic_string<char, std::__ndk1::char_traits<char>, std::__ndk1::allocator<char> > >, float>::Handle>, float&&)::{lambda()#1}>, void ()>::__clone(std::__ndk1::__function::__base<void ()>*) const
FUNC 2c928 50 0 std::__ndk1::__function::__func<geode::Task<geode::Result<void, std::__ndk1::basic_string<char, std::__ndk1::char_traits<char>, std::__ndk1::allocator<char> > >, float>::progress(std::__ndk1::shared_ptr<geode::Task<geode::Result<void, std::__ndk1::basic_string<char, std::__ndk1::char_traits<char>, std::__ndk1::allocator<char> > >, float>::Handle>, float&&)::{lambda()#1}, std::__ndk1::allocator<geode::Task<geode::Result<void, std::__ndk1::basic_string<char, std::__ndk1::char_traits<char>, std::__ndk1::allocator<char> > >, float>::progress(std::__ndk1::shared_ptr<geode::Task<geode::Result<void, std::__ndk1::basic_string<char, std::__ndk1::char_traits<char>, std::__ndk1::allocator<char> > >, float>::Handle>, float&&)::{lambda()#1}>, void ()>::destroy()
FUNC 2c978 50 0 std::__ndk1::__function::__func<geode::Task<geode::Result<void, std::__ndk1::basic_string<char, std::__ndk1::char_traits<char>, std::__ndk1::allocator<char> > >, float>::progress(std::__ndk1::shared_ptr<geode::Task<geode::Result<void, std::__ndk1::basic_string<char, std::__ndk1::char_traits<char>, std::__ndk1::allocator<char> > >, float>::Handle>, float&&)::{lambda()#1}, std::__ndk1::allocator<geode::Task<geode::Result<void, std::__ndk1::basic_string<char, std::__ndk1::char_traits<char>, std::__ndk1::allocator<char> > >, float>::progress(std::__ndk1::shared_ptr<geode::Task<geode::Result<void, std::__ndk1::basic_string<char, std::__ndk1::char_traits<char>, std::__ndk1::allocator<char> > >, float>::Handle>, float&&)::{lambda()#1}>, void ()>::destroy_deallocate()
FUNC 2c9c8 1b0 0 std::__ndk1::__function::__func<geode::Task<geode::Result<void, std::__ndk1::basic_string<char, std::__ndk1::char_traits<char>, std::__ndk1::allocator<char> > >, float>::progress(std::__ndk1::shared_ptr<geode::Task<geode::Result<void, std::__ndk1::basic_string<char, std::__ndk1::char_traits<char>, std::__ndk1::allocator<char> > >, float>::Handle>, float&&)::{lambda()#1}, std::__ndk1::allocator<geode::Task<geode::Result<void, std::__ndk1::basic_string<char, std::__ndk1::char_traits<char>, std::__ndk1::allocator<char> > >, float>::progress(std::__ndk1::shared_ptr<geode::Task<geode::Result<void, std::__ndk1::basic_string<char, std::__ndk1::char_traits<char>, std::__ndk1::allocator<char> > >, float>::Handle>, float&&)::{lambda()#1}>, void ()>::operator()()
FUNC 2cb78 1c 0 std::__ndk1::__function::__func<geode::Task<geode::Result<void, std::__ndk1::basic_string<char, std::__ndk1::char_traits<char>, std::__ndk1::allocator<char> > >, float>::progress(std::__ndk1::shared_ptr<geode::Task<geode::Result<void, std::__ndk1::basic_string<char, std::__ndk1::char_traits<char>, std::__ndk1::allocator<char> > >, float>::Handle>, float&&)::{lambda()#1}, std::__ndk1::allocator<geode::Task<geode::Result<void, std::__ndk1::basic_string<char, std::__ndk1::char_traits<char>, std::__ndk1::allocator<char> > >, float>::progress(std::__ndk1::shared_ptr<geode::Task<geode::Result<void, std::__ndk1::basic_string<char, std::__ndk1::char_traits<char>, std::__ndk1::allocator<char> > >, float>::Handle>, float&&)::{lambda()#1}>, void ()>::target(std::type_info const&) const
FUNC 2cb94 c 0 std::__ndk1::__function::__func<geode::Task<geode::Result<void, std::__ndk1::basic_string<char, std::__ndk1::char_traits<char>, std::__ndk1::allocator<char> > >, float>::progress(std::__ndk1::shared_ptr<geode::Task<geode::Result<void, std::__ndk1::basic_string<char, std::__ndk1::char_traits<char>, std::__ndk1::allocator<char> > >, float>::Handle>, float&&)::{lambda()#1}, std::__ndk1::allocator<geode::Task<geode::Result<void, std::__ndk1::basic_string<char, std::__ndk1::char_traits<char>, std::__ndk1::allocator<char> > >, float>::progress(std::__ndk1::shared_ptr<geode::Task<geode::Result<void, std::__ndk1::basic_string<char, std::__ndk1::char_traits<char>, std::__ndk1::allocator<char> > >, float>::Handle>, float&&)::{lambda()#1}>, void ()>::target_type() const
FUNC 2cba0 20 0 std::__ndk1::__function::__func<geode::Task<geode::Result<void, std::__ndk1::basic_string<char, std::__ndk1::char_traits<char>, std::__ndk1::allocator<char> > >, float>::run(std::__ndk1::function<geode::Task<geode::Result<void, std::__ndk1::basic_string<char, std::__ndk1::char_traits<char>, std::__ndk1::allocator<char> > >, float>::Result(std::__ndk1::function<void (float)>, std::__ndk1::function<bool ()>)>&&, std::__ndk1::basic_string_view<char, std::__ndk1::char_traits<char> >)::{lambda()#1}::operator()() const::{lambda()#1}, std::__ndk1::allocator<geode::Task<geode::Result<void, std::__ndk1::basic_string<char, std::__ndk1::char_traits<char>, std::__ndk1::allocator<char> > >, float>::run(std::__ndk1::function<geode::Task<geode::Result<void, std::__ndk1::basic_string<char, std::__ndk1::char_traits<char>, std::__ndk1::allocator<char> > >, float>::Result(std::__ndk1::function<void (float)>, std::__ndk1::function<bool ()>)>&&, std::__ndk1::basic_string_view<char, std::__ndk1::char_traits<char> >)::{lambda()#1}::operator()() const::{lambda()#1}>, bool ()>::~__func()
FUNC 2cbc0 3c 0 std::__ndk1::__function::__func<geode::Task<geode::Result<void, std::__ndk1::basic_string<char, std::__ndk1::char_traits<char>, std::__ndk1::allocator<char> > >, float>::run(std::__ndk1::function<geode::Task<geode::Result<void, std::__ndk1::basic_string<char, std::__ndk1::char_traits<char>, std::__ndk1::allocator<char> > >, float>::Result(std::__ndk1::function<void (float)>, std::__ndk1::function<bool ()>)>&&, std::__ndk1::basic_string_view<char, std::__ndk1::char_traits<char> >)::{lambda()#1}::operator()() const::{lambda()#1}, std::__ndk1::allocator<geode::Task<geode::Result<void, std::__ndk1::basic_string<char, std::__ndk1::char_traits<char>, std::__ndk1::allocator<char> > >, float>::run(std::__ndk1::function<geode::Task<geode::Result<void, std::__ndk1::basic_string<char, std::__ndk1::char_traits<char>, std::__ndk1::allocator<char> > >, float>::Result(std::__ndk1::function<void (float)>, std::__ndk1::function<bool ()>)>&&, std::__ndk1::basic_string_view<char, std::__ndk1::char_traits<char> >)::{lambda()#1}::operator()() const::{lambda()#1}>, bool ()>::~__func()
FUNC 2cbfc 50 0 std::__ndk1::__function::__func<geode::Task<geode::Result<void, std::__ndk1::basic_string<char, std::__ndk1::char_traits<char>, std::__ndk1::allocator<char> > >, float>::run(std::__ndk1::function<geode::Task<geode::Result<void, std::__ndk1::basic_string<char, std::__ndk1::char_traits<char>, std::__ndk1::allocator<char> > >, float>::Result(std::__ndk1::function<void (float)>, std::__ndk1::function<bool ()>)>&&, std::__ndk1::basic_string_view<char, std::__ndk1::char_traits<char> >)::{lambda()#1}::operator()() const::{lambda()#1}, std::__ndk1::allocator<geode::Task<geode::Result<void, std::__ndk1::basic_string<char, std::__ndk1::char_traits<char>, std::__ndk1::allocator<char> > >, float>::run(std::__ndk1::function<geode::Task<geode::Result<void, std::__ndk1::basic_string<char, std::__ndk1::char_traits<char>, std::__ndk1::allocator<char> > >, float>::Result(std::__ndk1::function<void (float)>, std::__ndk1::function<bool ()>)>&&, std::__ndk1::basic_string_view<char, std::__ndk1::char_traits<char> >)::{lambda()#1}::operator()() const::{lambda()#1}>, bool ()>::__clone() const
FUNC 2cc4c 34 0 std::__ndk1::__function::__func<geode::Task<geode::Result<void, std::__ndk1::basic_string<char, std::__ndk1::char_traits<char>, std::__ndk1::allocator<char> > >, float>::run(std::__ndk1::function<geode::Task<geode::Result<void, std::__ndk1::basic_string<char, std::__ndk1::char_traits<char>, std::__ndk1::allocator<char> > >, float>::Result(std::__ndk1::function<void (float)>, std::__ndk1::function<bool ()>)>&&, std::__ndk1::basic_string_view<char, std::__ndk1::char_traits<char> >)::{lambda()#1}::operator()() const::{lambda()#1}, std::__ndk1::allocator<geode::Task<geode::Result<void, std::__ndk1::basic_string<char, std::__ndk1::char_traits<char>, std::__ndk1::allocator<char> > >, float>::run(std::__ndk1::function<geode::Task<geode::Result<void, std::__ndk1::basic_string<char, std::__ndk1::char_traits<char>, std::__ndk1::allocator<char> > >, float>::Result(std::__ndk1::function<void (float)>, std::__ndk1::function<bool ()>)>&&, std::__ndk1::basic_string_view<char, std::__ndk1::char_traits<char> >)::{lambda()#1}::operator()() const::{lambda()#1}>, bool ()>::__clone(std::__ndk1::__function::__base<bool ()>*) const
FUNC 2cc80 10 0 std::__ndk1::__function::__func<geode::Task<geode::Result<void, std::__ndk1::basic_string<char, std::__ndk1::char_traits<char>, std::__ndk1::allocator<char> > >, float>::run(std::__ndk1::function<geode::Task<geode::Result<void, std::__ndk1::basic_string<char, std::__ndk1::char_traits<char>, std::__ndk1::allocator<char> > >, float>::Result(std::__ndk1::function<void (float)>, std::__ndk1::function<bool ()>)>&&, std::__ndk1::basic_string_view<char, std::__ndk1::char_traits<char> >)::{lambda()#1}::operator()() const::{lambda()#1}, std::__ndk1::allocator<geode::Task<geode::Result<void, std::__ndk1::basic_string<char, std::__ndk1::char_traits<char>, std::__ndk1::allocator<char> > >, float>::run(std::__ndk1::function<geode::Task<geode::Result<void, std::__ndk1::basic_string<char, std::__ndk1::char_traits<char>, std::__ndk1::allocator<char> > >, float>::Result(std::__ndk1::function<void (float)>, std::__ndk1::function<bool ()>)>&&, std::__ndk1::basic_string_view<char, std::__ndk1::char_traits<char> >)::{lambda()#1}::operator()() const::{lambda()#1}>, bool ()>::destroy()
FUNC 2cc90 30 0 std::__ndk1::__function::__func<geode::Task<geode::Result<void, std::__ndk1::basic_string<char, std::__ndk1::char_traits<char>, std::__ndk1::allocator<char> > >, float>::run(std::__ndk1::function<geode::Task<geode::Result<void, std::__ndk1::basic_string<char, std::__ndk1::char_traits<char>, std::__ndk1::allocator<char> > >, float>::Result(std::__ndk1::function<void (float)>, std::__ndk1::function<bool ()>)>&&, std::__ndk1::basic_string_view<char, std::__ndk1::char_traits<char> >)::{lambda()#1}::operator()() const::{lambda()#1}, std::__ndk1::allocator<geode::Task<geode::Result<void, std::__ndk1::basic_string<char, std::__ndk1::char_traits<char>, std::__ndk1::allocator<char> > >, float>::run(std::__ndk1::function<geode::Task<geode::Result<void, std::__ndk1::basic_string<char, std::__ndk1::char_traits<char>, std::__ndk1::allocator<char> > >, float>::Result(std::__ndk1::function<void (float)>, std::__ndk1::function<bool ()>)>&&, std::__ndk1::basic_string_view<char, std::__ndk1::char_traits<char> >)::{lambda()#1}::operator()() const::{lambda()#1}>, bool ()>::destroy_deallocate()
FUNC 2ccc0 ec 0 std::__ndk1::__function::__func<geode::Task<geode::Result<void, std::__ndk1::basic_string<char, std::__ndk1::char_traits<char>, std::__ndk1::allocator<char> > >, float>::run(std::__ndk1::function<geode::Task<geode::Result<void, std::__ndk1::basic_string<char, std::__ndk1::char_traits<char>, std::__ndk1::allocator<char> > >, float>::Result(std::__ndk1::function<void (float)>, std::__ndk1::function<bool ()>)>&&, std::__ndk1::basic_string_view<char, std::__ndk1::char_traits<char> >)::{lambda()#1}::operator()() const::{lambda()#1}, std::__ndk1::allocator<geode::Task<geode::Result<void, std::__ndk1::basic_string<char, std::__ndk1::char_traits<char>, std::__ndk1::allocator<char> > >, float>::run(std::__ndk1::function<geode::Task<geode::Result<void, std::__ndk1::basic_string<char, std::__ndk1::char_traits<char>, std::__ndk1::allocator<char> > >, float>::Result(std::__ndk1::function<void (float)>, std::__ndk1::function<bool ()>)>&&, std::__ndk1::basic_string_view<char, std::__ndk1::char_traits<char> >)::{lambda()#1}::operator()() const::{lambda()#1}>, bool ()>::operator()()
FUNC 2cdac 1c 0 std::__ndk1::__function::__func<geode::Task<geode::Result<void, std::__ndk1::basic_string<char, std::__ndk1::char_traits<char>, std::__ndk1::allocator<char> > >, float>::run(std::__ndk1::function<geode::Task<geode::Result<void, std::__ndk1::basic_string<char, std::__ndk1::char_traits<char>, std::__ndk1::allocator<char> > >, float>::Result(std::__ndk1::function<void (float)>, std::__ndk1::function<bool ()>)>&&, std::__ndk1::basic_string_view<char, std::__ndk1::char_traits<char> >)::{lambda()#1}::operator()() const::{lambda()#1}, std::__ndk1::allocator<geode::Task<geode::Result<void, std::__ndk1::basic_string<char, std::__ndk1::char_traits<char>, std::__ndk1::allocator<char> > >, float>::run(std::__ndk1::function<geode::Task<geode::Result<void, std::__ndk1::basic_string<char, std::__ndk1::char_traits<char>, std::__ndk1::allocator<char> > >, float>::Result(std::__ndk1::function<void (float)>, std::__ndk1::function<bool ()>)>&&, std::__ndk1::basic_string_view<char, std::__ndk1::char_traits<char> >)::{lambda()#1}::operator()() const::{lambda()#1}>, bool ()>::target(std::type_info const&) const
FUNC 2cdc8 c 0 std::__ndk1::__function::__func<geode::Task<geode::Result<void, std::__ndk1::basic_string<char, std::__ndk1::char_traits<char>, std::__ndk1::allocator<char> > >, float>::run(std::__ndk1::function<geode::Task<geode::Result<void, std::__ndk1::basic_string<char, std::__ndk1::char_traits<char>, std::__ndk1::allocator<char> > >, float>::Result(std::__ndk1::function<void (float)>, std::__ndk1::function<bool ()>)>&&, std::__ndk1::basic_string_view<char, std::__ndk1::char_traits<char> >)::{lambda()#1}::operator()() const::{lambda()#1}, std::__ndk1::allocator<geode::Task<geode::Result<void, std::__ndk1::basic_string<char, std::__ndk1::char_traits<char>, std::__ndk1::allocator<char> > >, float>::run(std::__ndk1::function<geode::Task<geode::Result<void, std::__ndk1::basic_string<char, std::__ndk1::char_traits<char>, std::__ndk1::allocator<char> > >, float>::Result(std::__ndk1::function<void (float)>, std::__ndk1::function<bool ()>)>&&, std::__ndk1::basic_string_view<char, std::__ndk1::char_traits<char> >)::{lambda()#1}::operator()() const::{lambda()#1}>, bool ()>::target_type() const
FUNC 2cdd4 50 0 geode::Task<geode::Result<void, std::__ndk1::basic_string<char, std::__ndk1::char_traits<char>, std::__ndk1::allocator<char> > >, float>::cancel(std::__ndk1::shared_ptr<geode::Task<geode::Result<void, std::__ndk1::basic_string<char, std::__ndk1::char_traits<char>, std::__ndk1::allocator<char> > >, float>::Handle>, bool)::{lambda()#1}::~{lambda()#1}()
FUNC 2ce24 5c 0 std::__ndk1::__function::__func<geode::Task<geode::Result<void, std::__ndk1::basic_string<char, std::__ndk1::char_traits<char>, std::__ndk1::allocator<char> > >, float>::cancel(std::__ndk1::shared_ptr<geode::Task<geode::Result<void, std::__ndk1::basic_string<char, std::__ndk1::char_traits<char>, std::__ndk1::allocator<char> > >, float>::Handle>, bool)::{lambda()#1}, std::__ndk1::allocator<geode::Task<geode::Result<void, std::__ndk1::basic_string<char, std::__ndk1::char_traits<char>, std::__ndk1::allocator<char> > >, float>::cancel(std::__ndk1::shared_ptr<geode::Task<geode::Result<void, std::__ndk1::basic_string<char, std::__ndk1::char_traits<char>, std::__ndk1::allocator<char> > >, float>::Handle>, bool)::{lambda()#1}>, void ()>::~__func()
FUNC 2ce80 5c 0 std::__ndk1::__function::__func<geode::Task<geode::Result<void, std::__ndk1::basic_string<char, std::__ndk1::char_traits<char>, std::__ndk1::allocator<char> > >, float>::cancel(std::__ndk1::shared_ptr<geode::Task<geode::Result<void, std::__ndk1::basic_string<char, std::__ndk1::char_traits<char>, std::__ndk1::allocator<char> > >, float>::Handle>, bool)::{lambda()#1}, std::__ndk1::allocator<geode::Task<geode::Result<void, std::__ndk1::basic_string<char, std::__ndk1::char_traits<char>, std::__ndk1::allocator<char> > >, float>::cancel(std::__ndk1::shared_ptr<geode::Task<geode::Result<void, std::__ndk1::basic_string<char, std::__ndk1::char_traits<char>, std::__ndk1::allocator<char> > >, float>::Handle>, bool)::{lambda()#1}>, void ()>::~__func()
FUNC 2cedc 50 0 std::__ndk1::__function::__func<geode::Task<geode::Result<void, std::__ndk1::basic_string<char, std::__ndk1::char_traits<char>, std::__ndk1::allocator<char> > >, float>::cancel(std::__ndk1::shared_ptr<geode::Task<geode::Result<void, std::__ndk1::basic_string<char, std::__ndk1::char_traits<char>, std::__ndk1::allocator<char> > >, float>::Handle>, bool)::{lambda()#1}, std::__ndk1::allocator<geode::Task<geode::Result<void, std::__ndk1::basic_string<char, std::__ndk1::char_traits<char>, std::__ndk1::allocator<char> > >, float>::cancel(std::__ndk1::shared_ptr<geode::Task<geode::Result<void, std::__ndk1::basic_string<char, std::__ndk1::char_traits<char>, std::__ndk1::allocator<char> > >, float>::Handle>, bool)::{lambda()#1}>, void ()>::__clone() const
FUNC 2cf2c 34 0 std::__ndk1::__function::__func<geode::Task<geode::Result<void, std::__ndk1::basic_string<char, std::__ndk1::char_traits<char>, std::__ndk1::allocator<char> > >, float>::cancel(std::__ndk1::shared_ptr<geode::Task<geode::Result<void, std::__ndk1::basic_string<char, std::__ndk1::char_traits<char>, std::__ndk1::allocator<char> > >, float>::Handle>, bool)::{lambda()#1}, std::__ndk1::allocator<geode::Task<geode::Result<void, std::__ndk1::basic_string<char, std::__ndk1::char_traits<char>, std::__ndk1::allocator<char> > >, float>::cancel(std::__ndk1::shared_ptr<geode::Task<geode::Result<void, std::__ndk1::basic_string<char, std::__ndk1::char_traits<char>, std::__ndk1::allocator<char> > >, float>::Handle>, bool)::{lambda()#1}>, void ()>::__clone(std::__ndk1::__function::__base<void ()>*) const
FUNC 2cf60 50 0 std::__ndk1::__function::__func<geode::Task<geode::Result<void, std::__ndk1::basic_string<char, std::__ndk1::char_traits<char>, std::__ndk1::allocator<char> > >, float>::cancel(std::__ndk1::shared_ptr<geode::Task<geode::Result<void, std::__ndk1::basic_string<char, std::__ndk1::char_traits<char>, std::__ndk1::allocator<char> > >, float>::Handle>, bool)::{lambda()#1}, std::__ndk1::allocator<geode::Task<geode::Result<void, std::__ndk1::basic_string<char, std::__ndk1::char_traits<char>, std::__ndk1::allocator<char> > >, float>::cancel(std::__ndk1::shared_ptr<geode::Task<geode::Result<void, std::__ndk1::basic_string<char, std::__ndk1::char_traits<char>, std::__ndk1::allocator<char> > >, float>::Handle>, bool)::{lambda()#1}>, void ()>::destroy()
FUNC 2cfb0 50 0 std::__ndk1::__function::__func<geode::Task<geode::Result<void, std::__ndk1::basic_string<char, std::__ndk1::char_traits<char>, std::__ndk1::allocator<char> > >, float>::cancel(std::__ndk1::shared_ptr<geode::Task<geode::Result<void, std::__ndk1::basic_string<char, std::__ndk1::char_traits<char>, std::__ndk1::allocator<char> > >, float>::Handle>, bool)::{lambda()#1}, std::__ndk1::allocator<geode::Task<geode::Result<void, std::__ndk1::basic_string<char, std::__ndk1::char_traits<char>, std::__ndk1::allocator<char> > >, float>::cancel(std::__ndk1::shared_ptr<geode::Task<geode::Result<void, std::__ndk1::basic_string<char, std::__ndk1::char_traits<char>, std::__ndk1::allocator<char> > >, float>::Handle>, bool)::{lambda()#1}>, void ()>::destroy_deallocate()
FUNC 2d000 1b8 0 std::__ndk1::__function::__func<geode::Task<geode::Result<void, std::__ndk1::basic_string<char, std::__ndk1::char_traits<char>, std::__ndk1::allocator<char> > >, float>::cancel(std::__ndk1::shared_ptr<geode::Task<geode::Result<void, std::__ndk1::basic_string<char, std::__ndk1::char_traits<char>, std::__ndk1::allocator<char> > >, float>::Handle>, bool)::{lambda()#1}, std::__ndk1::allocator<geode::Task<geode::Result<void, std::__ndk1::basic_string<char, std::__ndk1::char_traits<char>, std::__ndk1::allocator<char> > >, float>::cancel(std::__ndk1::shared_ptr<geode::Task<geode::Result<void, std::__ndk1::basic_string<char, std::__ndk1::char_traits<char>, std::__ndk1::allocator<char> > >, float>::Handle>, bool)::{lambda()#1}>, void ()>::operator()()
FUNC 2d1b8 1c 0 std::__ndk1::__function::__func<geode::Task<geode::Result<void, std::__ndk1::basic_string<char, std::__ndk1::char_traits<char>, std::__ndk1::allocator<char> > >, float>::cancel(std::__ndk1::shared_ptr<geode::Task<geode::Result<void, std::__ndk1::basic_string<char, std::__ndk1::char_traits<char>, std::__ndk1::allocator<char> > >, float>::Handle>, bool)::{lambda()#1}, std::__ndk1::allocator<geode::Task<geode::Result<void, std::__ndk1::basic_string<char, std::__ndk1::char_traits<char>, std::__ndk1::allocator<char> > >, float>::cancel(std::__ndk1::shared_ptr<geode::Task<geode::Result<void, std::__ndk1::basic_string<char, std::__ndk1::char_traits<char>, std::__ndk1::allocator<char> > >, float>::Handle>, bool)::{lambda()#1}>, void ()>::target(std::type_info const&) const
FUNC 2d1d4 c 0 std::__ndk1::__function::__func<geode::Task<geode::Result<void, std::__ndk1::basic_string<char, std::__ndk1::char_traits<char>, std::__ndk1::allocator<char> > >, float>::cancel(std::__ndk1::shared_ptr<geode::Task<geode::Result<void, std::__ndk1::basic_string<char, std::__ndk1::char_traits<char>, std::__ndk1::allocator<char> > >, float>::Handle>, bool)::{lambda()#1}, std::__ndk1::allocator<geode::Task<geode::Result<void, std::__ndk1::basic_string<char, std::__ndk1::char_traits<char>, std::__ndk1::allocator<char> > >, float>::cancel(std::__ndk1::shared_ptr<geode::Task<geode::Result<void, std::__ndk1::basic_string<char, std::__ndk1::char_traits<char>, std::__ndk1::allocator<char> > >, float>::Handle>, bool)::{lambda()#1}>, void ()>::target_type() const
FUNC 2d1e0 50 0 geode::Task<geode::Result<void, std::__ndk1::basic_string<char, std::__ndk1::char_traits<char>, std::__ndk1::allocator<char> > >, float>::finish(std::__ndk1::shared_ptr<geode::Task<geode::Result<void, std::__ndk1::basic_string<char, std::__ndk1::char_traits<char>, std::__ndk1::allocator<char> > >, float>::Handle>, geode::Result<void, std::__ndk1::basic_string<char, std::__ndk1::char_traits<char>, std::__ndk1::allocator<char> > >&&)::{lambda()#1}::~{lambda()#1}()
FUNC 2d230 4 0 std::__ndk1::__variant_detail::__visitation::__base::__dispatcher<(unsigned long)0, (unsigned long)0>::__dispatch[abi:ne180000]<std::__ndk1::__variant_detail::__ctor<std::__ndk1::__variant_detail::__traits<std::__ndk1::monostate, std::__ndk1::basic_string<char, std::__ndk1::char_traits<char>, std::__ndk1::allocator<char> > > >::__generic_construct[abi:ne180000]<std::__ndk1::__variant_detail::__move_constructor<std::__ndk1::basic_string<char, std::__ndk1::char_traits<char>, std::__ndk1::allocator<char> >, (std::__ndk1::__variant_detail::_Trait)1> >(std::__ndk1::__variant_detail::__traits<std::__ndk1::monostate, std::__ndk1::basic_string<char, std::__ndk1::char_traits<char>, std::__ndk1::allocator<char> > >&, std::__ndk1::__variant_detail::__move_constructor<std::__ndk1::basic_string<char, std::__ndk1::char_traits<char>, std::__ndk1::allocator<char> >, (std::__ndk1::__variant_detail::_Trait)1>&&)::{lambda(std::__ndk1::__variant_detail::__move_constructor<std::__ndk1::basic_string<char, std::__ndk1::char_traits<char>, std::__ndk1::allocator<char> >, (std::__ndk1::__variant_detail::_Trait)1>&, auto:2&&)#1}, std::__ndk1::__variant_detail::__base<(std::__ndk1::__variant_detail::__ctor<std::__ndk1::__variant_detail::__traits<std::__ndk1::monostate, std::__ndk1::basic_string<char, std::__ndk1::char_traits<char>, std::__ndk1::allocator<char> > > >::__generic_construct[abi:ne180000])1, std::__ndk1::__variant_detail::__traits, std::__ndk1::allocator<char> >&, std::__ndk1::__variant_detail::__ctor<std::__ndk1::__variant_detail::__traits<std::__ndk1::monostate, std::__ndk1::basic_string<char, std::__ndk1::char_traits<char>, std::__ndk1::allocator<char> > > >::__generic_construct[abi:ne180000]<std::__ndk1::__variant_detail::__move_constructor<std::__ndk1::basic_string<char, std::__ndk1::char_traits<char>, std::__ndk1::allocator<char> >, (std::__ndk1::__variant_detail::_Trait)1> >(std::__ndk1::__variant_detail::__traits<std::__ndk1::monostate, std::__ndk1::basic_string<char, std::__ndk1::char_traits<char>, std::__ndk1::allocator<char> > >&, std::__ndk1::__variant_detail::__move_constructor<std::__ndk1::basic_string<char, std::__ndk1::char_traits<char>, std::__ndk1::allocator<char> >, (std::__ndk1::__variant_detail::_Trait)1>&&)::{lambda(std::__ndk1::__variant_detail::__move_constructor<std::__ndk1::basic_string<char, std::__ndk1::char_traits<char>, std::__ndk1::allocator<char> >, (std::__ndk1::__variant_detail::_Trait)1>&, auto:2&&)#1}>(std::__ndk1::__variant_detail::__move_constructor<std::__ndk1::basic_string<char, std::__ndk1::char_traits<char>, std::__ndk1::allocator<char> >, (std::__ndk1::__variant_detail::_Trait)1>, std::__ndk1::__variant_detail::__base<(std::__ndk1::__variant_detail::__ctor<std::__ndk1::__variant_detail::__traits<std::__ndk1::monostate, std::__ndk1::basic_string<char, std::__ndk1::char_traits<char>, std::__ndk1::allocator<char> > > >::__generic_construct[abi:ne180000])1, std::__ndk1::__variant_detail::__traits, std::__ndk1::allocator<char> >&, std::__ndk1::__variant_detail::__ctor<std::__ndk1::__variant_detail::__traits<std::__ndk1::monostate, std::__ndk1::basic_string<char, std::__ndk1::char_traits<char>, std::__ndk1::allocator<char> > > >::__generic_construct[abi:ne180000]<std::__ndk1::__variant_detail::__move_constructor<std::__ndk1::basic_string<char, std::__ndk1::char_traits<char>, std::__ndk1::allocator<char> >, (std::__ndk1::__variant_detail::_Trait)1> >(std::__ndk1::__variant_detail::__traits<std::__ndk1::monostate, std::__ndk1::basic_string<char, std::__ndk1::char_traits<char>, std::__ndk1::allocator<char> > >&, std::__ndk1::__variant_detail::__move_constructor<std::__ndk1::basic_string<char, std::__ndk1::char_traits<char>, std::__ndk1::allocator<char> >, (std::__ndk1::__variant_detail::_Trait)1>&&)::{lambda(std::__ndk1::__variant_detail::__move_constructor<std::__ndk1::basic_string<char, std::__ndk1::char_traits<char>, std::__ndk1::allocator<char> >, (std::__ndk1::__variant_detail::_Trait)1>&, auto:2&&)#1})
FUNC 2d234 1c 0 std::__ndk1::__variant_detail::__visitation::__base::__dispatcher<(unsigned long)1, (unsigned long)1>::__dispatch[abi:ne180000]<std::__ndk1::__variant_detail::__ctor<std::__ndk1::__variant_detail::__traits<std::__ndk1::monostate, std::__ndk1::basic_string<char, std::__ndk1::char_traits<char>, std::__ndk1::allocator<char> > > >::__generic_construct[abi:ne180000]<std::__ndk1::__variant_detail::__move_constructor<std::__ndk1::basic_string<char, std::__ndk1::char_traits<char>, std::__ndk1::allocator<char> >, (std::__ndk1::__variant_detail::_Trait)1> >(std::__ndk1::__variant_detail::__traits<std::__ndk1::monostate, std::__ndk1::basic_string<char, std::__ndk1::char_traits<char>, std::__ndk1::allocator<char> > >&, std::__ndk1::__variant_detail::__move_constructor<std::__ndk1::basic_string<char, std::__ndk1::char_traits<char>, std::__ndk1::allocator<char> >, (std::__ndk1::__variant_detail::_Trait)1>&&)::{lambda(std::__ndk1::__variant_detail::__move_constructor<std::__ndk1::basic_string<char, std::__ndk1::char_traits<char>, std::__ndk1::allocator<char> >, (std::__ndk1::__variant_detail::_Trait)1>&, auto:2&&)#1}, std::__ndk1::__variant_detail::__base<(std::__ndk1::__variant_detail::__ctor<std::__ndk1::__variant_detail::__traits<std::__ndk1::monostate, std::__ndk1::basic_string<char, std::__ndk1::char_traits<char>, std::__ndk1::allocator<char> > > >::__generic_construct[abi:ne180000])1, std::__ndk1::__variant_detail::__traits, std::__ndk1::allocator<char> >&, std::__ndk1::__variant_detail::__ctor<std::__ndk1::__variant_detail::__traits<std::__ndk1::monostate, std::__ndk1::basic_string<char, std::__ndk1::char_traits<char>, std::__ndk1::allocator<char> > > >::__generic_construct[abi:ne180000]<std::__ndk1::__variant_detail::__move_constructor<std::__ndk1::basic_string<char, std::__ndk1::char_traits<char>, std::__ndk1::allocator<char> >, (std::__ndk1::__variant_detail::_Trait)1> >(std::__ndk1::__variant_detail::__traits<std::__ndk1::monostate, std::__ndk1::basic_string<char, std::__ndk1::char_traits<char>, std::__ndk1::allocator<char> > >&, std::__ndk1::__variant_detail::__move_constructor<std::__ndk1::basic_string<char, std::__ndk1::char_traits<char>, std::__ndk1::allocator<char> >, (std::__ndk1::__variant_detail::_Trait)1>&&)::{lambda(std::__ndk1::__variant_detail::__move_constructor<std::__ndk1::basic_string<char, std::__ndk1::char_traits<char>, std::__ndk1::allocator<char> >, (std::__ndk1::__variant_detail::_Trait)1>&, auto:2&&)#1}>(std::__ndk1::__variant_detail::__move_constructor<std::__ndk1::basic_string<char, std::__ndk1::char_traits<char>, std::__ndk1::allocator<char> >, (std::__ndk1::__variant_detail::_Trait)1>, std::__ndk1::__variant_detail::__base<(std::__ndk1::__variant_detail::__ctor<std::__ndk1::__variant_detail::__traits<std::__ndk1::monostate, std::__ndk1::basic_string<char, std::__ndk1::char_traits<char>, std::__ndk1::allocator<char> > > >::__generic_construct[abi:ne180000])1, std::__ndk1::__variant_detail::__traits, std::__ndk1::allocator<char> >&, std::__ndk1::__variant_detail::__ctor<std::__ndk1::__variant_detail::__traits<std::__ndk1::monostate, std::__ndk1::basic_string<char, std::__ndk1::char_traits<char>, std::__ndk1::allocator<char> > > >::__generic_construct[abi:ne180000]<std::__ndk1::__variant_detail::__move_constructor<std::__ndk1::basic_string<char, std::__ndk1::char_traits<char>, std::__ndk1::allocator<char> >, (std::__ndk1::__variant_detail::_Trait)1> >(std::__ndk1::__variant_detail::__traits<std::__ndk1::monostate, std::__ndk1::basic_string<char, std::__ndk1::char_traits<char>, std::__ndk1::allocator<char> > >&, std::__ndk1::__variant_detail::__move_constructor<std::__ndk1::basic_string<char, std::__ndk1::char_traits<char>, std::__ndk1::allocator<char> >, (std::__ndk1::__variant_detail::_Trait)1>&&)::{lambda(std::__ndk1::__variant_detail::__move_constructor<std::__ndk1::basic_string<char, std::__ndk1::char_traits<char>, std::__ndk1::allocator<char> >, (std::__ndk1::__variant_detail::_Trait)1>&, auto:2&&)#1})
FUNC 2d250 5c 0 std::__ndk1::__function::__func<geode::Task<geode::Result<void, std::__ndk1::basic_string<char, std::__ndk1::char_traits<char>, std::__ndk1::allocator<char> > >, float>::finish(std::__ndk1::shared_ptr<geode::Task<geode::Result<void, std::__ndk1::basic_string<char, std::__ndk1::char_traits<char>, std::__ndk1::allocator<char> > >, float>::Handle>, geode::Result<void, std::__ndk1::basic_string<char, std::__ndk1::char_traits<char>, std::__ndk1::allocator<char> > >&&)::{lambda()#1}, std::__ndk1::allocator<geode::Task<geode::Result<void, std::__ndk1::basic_string<char, std::__ndk1::char_traits<char>, std::__ndk1::allocator<char> > >, float>::finish(std::__ndk1::shared_ptr<geode::Task<geode::Result<void, std::__ndk1::basic_string<char, std::__ndk1::char_traits<char>, std::__ndk1::allocator<char> > >, float>::Handle>, geode::Result<void, std::__ndk1::basic_string<char, std::__ndk1::char_traits<char>, std::__ndk1::allocator<char> > >&&)::{lambda()#1}>, void ()>::~__func()
FUNC 2d2ac 5c 0 std::__ndk1::__function::__func<geode::Task<geode::Result<void, std::__ndk1::basic_string<char, std::__ndk1::char_traits<char>, std::__ndk1::allocator<char> > >, float>::finish(std::__ndk1::shared_ptr<geode::Task<geode::Result<void, std::__ndk1::basic_string<char, std::__ndk1::char_traits<char>, std::__ndk1::allocator<char> > >, float>::Handle>, geode::Result<void, std::__ndk1::basic_string<char, std::__ndk1::char_traits<char>, std::__ndk1::allocator<char> > >&&)::{lambda()#1}, std::__ndk1::allocator<geode::Task<geode::Result<void, std::__ndk1::basic_string<char, std::__ndk1::char_traits<char>, std::__ndk1::allocator<char> > >, float>::finish(std::__ndk1::shared_ptr<geode::Task<geode::Result<void, std::__ndk1::basic_string<char, std::__ndk1::char_traits<char>, std::__ndk1::allocator<char> > >, float>::Handle>, geode::Result<void, std::__ndk1::basic_string<char, std::__ndk1::char_traits<char>, std::__ndk1::allocator<char> > >&&)::{lambda()#1}>, void ()>::~__func()
FUNC 2d308 58 0 std::__ndk1::__function::__func<geode::Task<geode::Result<void, std::__ndk1::basic_string<char, std::__ndk1::char_traits<char>, std::__ndk1::allocator<char> > >, float>::finish(std::__ndk1::shared_ptr<geode::Task<geode::Result<void, std::__ndk1::basic_string<char, std::__ndk1::char_traits<char>, std::__ndk1::allocator<char> > >, float>::Handle>, geode::Result<void, std::__ndk1::basic_string<char, std::__ndk1::char_traits<char>, std::__ndk1::allocator<char> > >&&)::{lambda()#1}, std::__ndk1::allocator<geode::Task<geode::Result<void, std::__ndk1::basic_string<char, std::__ndk1::char_traits<char>, std::__ndk1::allocator<char> > >, float>::finish(std::__ndk1::shared_ptr<geode::Task<geode::Result<void, std::__ndk1::basic_string<char, std::__ndk1::char_traits<char>, std::__ndk1::allocator<char> > >, float>::Handle>, geode::Result<void, std::__ndk1::basic_string<char, std::__ndk1::char_traits<char>, std::__ndk1::allocator<char> > >&&)::{lambda()#1}>, void ()>::__clone() const
FUNC 2d360 4c 0 std::__ndk1::__function::__func<geode::Task<geode::Result<void, std::__ndk1::basic_string<char, std::__ndk1::char_traits<char>, std::__ndk1::allocator<char> > >, float>::finish(std::__ndk1::shared_ptr<geode::Task<geode::Result<void, std::__ndk1::basic_string<char, std::__ndk1::char_traits<char>, std::__ndk1::allocator<char> > >, float>::Handle>, geode::Result<void, std::__ndk1::basic_string<char, std::__ndk1::char_traits<char>, std::__ndk1::allocator<char> > >&&)::{lambda()#1}, std::__ndk1::allocator<geode::Task<geode::Result<void, std::__ndk1::basic_string<char, std::__ndk1::char_traits<char>, std::__ndk1::allocator<char> > >, float>::finish(std::__ndk1::shared_ptr<geode::Task<geode::Result<void, std::__ndk1::basic_string<char, std::__ndk1::char_traits<char>, std::__ndk1::allocator<char> > >, float>::Handle>, geode::Result<void, std::__ndk1::basic_string<char, std::__ndk1::char_traits<char>, std::__ndk1::allocator<char> > >&&)::{lambda()#1}>, void ()>::__clone(std::__ndk1::__function::__base<void ()>*) const
FUNC 2d3ac 50 0 std::__ndk1::__function::__func<geode::Task<geode::Result<void, std::__ndk1::basic_string<char, std::__ndk1::char_traits<char>, std::__ndk1::allocator<char> > >, float>::finish(std::__ndk1::shared_ptr<geode::Task<geode::Result<void, std::__ndk1::basic_string<char, std::__ndk1::char_traits<char>, std::__ndk1::allocator<char> > >, float>::Handle>, geode::Result<void, std::__ndk1::basic_string<char, std::__ndk1::char_traits<char>, std::__ndk1::allocator<char> > >&&)::{lambda()#1}, std::__ndk1::allocator<geode::Task<geode::Result<void, std::__ndk1::basic_string<char, std::__ndk1::char_traits<char>, std::__ndk1::allocator<char> > >, float>::finish(std::__ndk1::shared_ptr<geode::Task<geode::Result<void, std::__ndk1::basic_string<char, std::__ndk1::char_traits<char>, std::__ndk1::allocator<char> > >, float>::Handle>, geode::Result<void, std::__ndk1::basic_string<char, std::__ndk1::char_traits<char>, std::__ndk1::allocator<char> > >&&)::{lambda()#1}>, void ()>::destroy()
FUNC 2d3fc 50 0 std::__ndk1::__function::__func<geode::Task<geode::Result<void, std::__ndk1::basic_string<char, std::__ndk1::char_traits<char>, std::__ndk1::allocator<char> > >, float>::finish(std::__ndk1::shared_ptr<geode::Task<geode::Result<void, std::__ndk1::basic_string<char, std::__ndk1::char_traits<char>, std::__ndk1::allocator<char> > >, float>::Handle>, geode::Result<void, std::__ndk1::basic_string<char, std::__ndk1::char_traits<char>, std::__ndk1::allocator<char> > >&&)::{lambda()#1}, std::__ndk1::allocator<geode::Task<geode::Result<void, std::__ndk1::basic_string<char, std::__ndk1::char_traits<char>, std::__ndk1::allocator<char> > >, float>::finish(std::__ndk1::shared_ptr<geode::Task<geode::Result<void, std::__ndk1::basic_string<char, std::__ndk1::char_traits<char>, std::__ndk1::allocator<char> > >, float>::Handle>, geode::Result<void, std::__ndk1::basic_string<char, std::__ndk1::char_traits<char>, std::__ndk1::allocator<char> > >&&)::{lambda()#1}>, void ()>::destroy_deallocate()
FUNC 2d44c 1c8 0 std::__ndk1::__function::__func<geode::Task<geode::Result<void, std::__ndk1::basic_string<char, std::__ndk1::char_traits<char>, std::__ndk1::allocator<char> > >, float>::finish(std::__ndk1::shared_ptr<geode::Task<geode::Result<void, std::__ndk1::basic_string<char, std::__ndk1::char_traits<char>, std::__ndk1::allocator<char> > >, float>::Handle>, geode::Result<void, std::__ndk1::basic_string<char, std::__ndk1::char_traits<char>, std::__ndk1::allocator<char> > >&&)::{lambda()#1}, std::__ndk1::allocator<geode::Task<geode::Result<void, std::__ndk1::basic_string<char, std::__ndk1::char_traits<char>, std::__ndk1::allocator<char> > >, float>::finish(std::__ndk1::shared_ptr<geode::Task<geode::Result<void, std::__ndk1::basic_string<char, std::__ndk1::char_traits<char>, std::__ndk1::allocator<char> > >, float>::Handle>, geode::Result<void, std::__ndk1::basic_string<char, std::__ndk1::char_traits<char>, std::__ndk1::allocator<char> > >&&)::{lambda()#1}>, void ()>::operator()()
FUNC 2d614 1c 0 std::__ndk1::__function::__func<geode::Task<geode::Result<void, std::__ndk1::basic_string<char, std::__ndk1::char_traits<char>, std::__ndk1::allocator<char> > >, float>::finish(std::__ndk1::shared_ptr<geode::Task<geode::Result<void, std::__ndk1::basic_string<char, std::__ndk1::char_traits<char>, std::__ndk1::allocator<char> > >, float>::Handle>, geode::Result<void, std::__ndk1::basic_string<char, std::__ndk1::char_traits<char>, std::__ndk1::allocator<char> > >&&)::{lambda()#1}, std::__ndk1::allocator<geode::Task<geode::Result<void, std::__ndk1::basic_string<char, std::__ndk1::char_traits<char>, std::__ndk1::allocator<char> > >, float>::finish(std::__ndk1::shared_ptr<geode::Task<geode::Result<void, std::__ndk1::basic_string<char, std::__ndk1::char_traits<char>, std::__ndk1::allocator<char> > >, float>::Handle>, geode::Result<void, std::__ndk1::basic_string<char, std::__ndk1::char_traits<char>, std::__ndk1::allocator<char> > >&&)::{lambda()#1}>, void ()>::target(std::type_info const&) const
FUNC 2d630 c 0 std::__ndk1::__function::__func<geode::Task<geode::Result<void, std::__ndk1::basic_string<char, std::__ndk1::char_traits<char>, std::__ndk1::allocator<char> > >, float>::finish(std::__ndk1::shared_ptr<geode::Task<geode::Result<void, std::__ndk1::basic_string<char, std::__ndk1::char_traits<char>, std::__ndk1::allocator<char> > >, float>::Handle>, geode::Result<void, std::__ndk1::basic_string<char, std::__ndk1::char_traits<char>, std::__ndk1::allocator<char> > >&&)::{lambda()#1}, std::__ndk1::allocator<geode::Task<geode::Result<void, std::__ndk1::basic_string<char, std::__ndk1::char_traits<char>, std::__ndk1::allocator<char> > >, float>::finish(std::__ndk1::shared_ptr<geode::Task<geode::Result<void, std::__ndk1::basic_string<char, std::__ndk1::char_traits<char>, std::__ndk1::allocator<char> > >, float>::Handle>, geode::Result<void, std::__ndk1::basic_string<char, std::__ndk1::char_traits<char>, std::__ndk1::allocator<char> > >&&)::{lambda()#1}>, void ()>::target_type() const
FUNC 2d63c 74 0 std::__ndk1::__variant_detail::__visitation::__base::__dispatcher<(unsigned long)0>::__dispatch[abi:ne180000]<std::__ndk1::__variant_detail::__dtor<std::__ndk1::__variant_detail::__traits<geode::Result<void, std::__ndk1::basic_string<char, std::__ndk1::char_traits<char>, std::__ndk1::allocator<char> > >, std::__ndk1::__variant_detail::__traits::Task<std::__ndk1::basic_string<char, std::__ndk1::char_traits<char>, std::__ndk1::allocator<char> >, float>::Cancel>, (std::__ndk1::__variant_detail::_Trait)1>::__destroy[abi:ne180000]()::{lambda(auto:1&)#1}, std::__ndk1::__variant_detail::__base<(std::__ndk1::__variant_detail::__traits<geode::Result<void, std::__ndk1::basic_string<char, std::__ndk1::char_traits<char>, std::__ndk1::allocator<char> > >, std::__ndk1::__variant_detail::__traits::Task<std::__ndk1::basic_string<char, std::__ndk1::char_traits<char>, std::__ndk1::allocator<char> >, float>::Cancel>)1, std::__ndk1::basic_string<char, std::__ndk1::char_traits<char>, std::__ndk1::allocator<char> >, std::__ndk1::__variant_detail::__traits::Task<std::__ndk1::basic_string<char, std::__ndk1::char_traits<char>, std::__ndk1::allocator<char> >, float> >&>(std::__ndk1::__variant_detail::__dtor<std::__ndk1::__variant_detail::__traits<geode::Result<void, std::__ndk1::basic_string<char, std::__ndk1::char_traits<char>, std::__ndk1::allocator<char> > >, std::__ndk1::__variant_detail::__traits::Task<std::__ndk1::basic_string<char, std::__ndk1::char_traits<char>, std::__ndk1::allocator<char> >, float>::Cancel>, (std::__ndk1::__variant_detail::_Trait)1>, std::__ndk1::__variant_detail::__base<(std::__ndk1::__variant_detail::__traits<geode::Result<void, std::__ndk1::basic_string<char, std::__ndk1::char_traits<char>, std::__ndk1::allocator<char> > >, std::__ndk1::__variant_detail::__traits::Task<std::__ndk1::basic_string<char, std::__ndk1::char_traits<char>, std::__ndk1::allocator<char> >, float>::Cancel>)1, std::__ndk1::basic_string<char, std::__ndk1::char_traits<char>, std::__ndk1::allocator<char> >, std::__ndk1::__variant_detail::__traits::Task<std::__ndk1::basic_string<char, std::__ndk1::char_traits<char>, std::__ndk1::allocator<char> >, float> >&)
FUNC 2d6b0 4 0 std::__ndk1::__variant_detail::__visitation::__base::__dispatcher<(unsigned long)1>::__dispatch[abi:ne180000]<std::__ndk1::__variant_detail::__dtor<std::__ndk1::__variant_detail::__traits<geode::Result<void, std::__ndk1::basic_string<char, std::__ndk1::char_traits<char>, std::__ndk1::allocator<char> > >, std::__ndk1::__variant_detail::__traits::Task<std::__ndk1::basic_string<char, std::__ndk1::char_traits<char>, std::__ndk1::allocator<char> >, float>::Cancel>, (std::__ndk1::__variant_detail::_Trait)1>::__destroy[abi:ne180000]()::{lambda(auto:1&)#1}, std::__ndk1::__variant_detail::__base<(std::__ndk1::__variant_detail::__traits<geode::Result<void, std::__ndk1::basic_string<char, std::__ndk1::char_traits<char>, std::__ndk1::allocator<char> > >, std::__ndk1::__variant_detail::__traits::Task<std::__ndk1::basic_string<char, std::__ndk1::char_traits<char>, std::__ndk1::allocator<char> >, float>::Cancel>)1, std::__ndk1::basic_string<char, std::__ndk1::char_traits<char>, std::__ndk1::allocator<char> >, std::__ndk1::__variant_detail::__traits::Task<std::__ndk1::basic_string<char, std::__ndk1::char_traits<char>, std::__ndk1::allocator<char> >, float> >&>(std::__ndk1::__variant_detail::__dtor<std::__ndk1::__variant_detail::__traits<geode::Result<void, std::__ndk1::basic_string<char, std::__ndk1::char_traits<char>, std::__ndk1::allocator<char> > >, std::__ndk1::__variant_detail::__traits::Task<std::__ndk1::basic_string<char, std::__ndk1::char_traits<char>, std::__ndk1::allocator<char> >, float>::Cancel>, (std::__ndk1::__variant_detail::_Trait)1>, std::__ndk1::__variant_detail::__base<(std::__ndk1::__variant_detail::__traits<geode::Result<void, std::__ndk1::basic_string<char, std::__ndk1::char_traits<char>, std::__ndk1::allocator<char> > >, std::__ndk1::__variant_detail::__traits::Task<std::__ndk1::basic_string<char, std::__ndk1::char_traits<char>, std::__ndk1::allocator<char> >, float>::Cancel>)1, std::__ndk1::basic_string<char, std::__ndk1::char_traits<char>, std::__ndk1::allocator<char> >, std::__ndk1::__variant_detail::__traits::Task<std::__ndk1::basic_string<char, std::__ndk1::char_traits<char>, std::__ndk1::allocator<char> >, float> >&)
FUNC 2d6b4 90 0 std::__ndk1::default_delete<std::__ndk1::tuple<std::__ndk1::unique_ptr<std::__ndk1::__thread_struct, std::__ndk1::default_delete<std::__ndk1::__thread_struct> >, geode::Task<geode::Result<void, std::__ndk1::basic_string<char, std::__ndk1::char_traits<char>, std::__ndk1::allocator<char> > >, float>::run(std::__ndk1::function<geode::Task<geode::Result<void, std::__ndk1::basic_string<char, std::__ndk1::char_traits<char>, std::__ndk1::allocator<char> > >, float>::Result(std::__ndk1::function<void (float)>, std::__ndk1::function<bool ()>)>&&, std::__ndk1::basic_string_view<char, std::__ndk1::char_traits<char> >)::{lambda()#1}> >::operator()[abi:ne180000](std::__ndk1::tuple<std::__ndk1::unique_ptr<std::__ndk1::__thread_struct, std::__ndk1::default_delete<std::__ndk1::__thread_struct> >, geode::Task<geode::Result<void, std::__ndk1::basic_string<char, std::__ndk1::char_traits<char>, std::__ndk1::allocator<char> > >, float>::run(std::__ndk1::function<geode::Task<geode::Result<void, std::__ndk1::basic_string<char, std::__ndk1::char_traits<char>, std::__ndk1::allocator<char> > >, float>::Result(std::__ndk1::function<void (float)>, std::__ndk1::function<bool ()>)>&&, std::__ndk1::basic_string_view<char, std::__ndk1::char_traits<char> >)::{lambda()#1}>*) const
FUNC 2d744 50 0 std::__ndk1::__function::__func<HighTexturesPopup::getExtractTask(std::__ndk1::__fs::filesystem::path, std::__ndk1::__fs::filesystem::path)::$_0, std::__ndk1::allocator<HighTexturesPopup::getExtractTask(std::__ndk1::__fs::filesystem::path, std::__ndk1::__fs::filesystem::path)::$_0>, geode::Task<geode::Result<void, std::__ndk1::basic_string<char, std::__ndk1::char_traits<char>, std::__ndk1::allocator<char> > >, float>::Result(std::__ndk1::function<void (float)>, std::__ndk1::function<bool ()>)>::~__func()
FUNC 2d794 4c 0 std::__ndk1::__function::__func<HighTexturesPopup::getExtractTask(std::__ndk1::__fs::filesystem::path, std::__ndk1::__fs::filesystem::path)::$_0, std::__ndk1::allocator<HighTexturesPopup::getExtractTask(std::__ndk1::__fs::filesystem::path, std::__ndk1::__fs::filesystem::path)::$_0>, geode::Task<geode::Result<void, std::__ndk1::basic_string<char, std::__ndk1::char_traits<char>, std::__ndk1::allocator<char> > >, float>::Result(std::__ndk1::function<void (float)>, std::__ndk1::function<bool ()>)>::~__func()
FUNC 2d7e0 c8 0 std::__ndk1::__function::__func<HighTexturesPopup::getExtractTask(std::__ndk1::__fs::filesystem::path, std::__ndk1::__fs::filesystem::path)::$_0, std::__ndk1::allocator<HighTexturesPopup::getExtractTask(std::__ndk1::__fs::filesystem::path, std::__ndk1::__fs::filesystem::path)::$_0>, geode::Task<geode::Result<void, std::__ndk1::basic_string<char, std::__ndk1::char_traits<char>, std::__ndk1::allocator<char> > >, float>::Result(std::__ndk1::function<void (float)>, std::__ndk1::function<bool ()>)>::__clone() const
FUNC 2d8a8 ac 0 std::__ndk1::__function::__func<HighTexturesPopup::getExtractTask(std::__ndk1::__fs::filesystem::path, std::__ndk1::__fs::filesystem::path)::$_0, std::__ndk1::allocator<HighTexturesPopup::getExtractTask(std::__ndk1::__fs::filesystem::path, std::__ndk1::__fs::filesystem::path)::$_0>, geode::Task<geode::Result<void, std::__ndk1::basic_string<char, std::__ndk1::char_traits<char>, std::__ndk1::allocator<char> > >, float>::Result(std::__ndk1::function<void (float)>, std::__ndk1::function<bool ()>)>::__clone(std::__ndk1::__function::__base<geode::Task<geode::Result<void, std::__ndk1::basic_string<char, std::__ndk1::char_traits<char>, std::__ndk1::allocator<char> > >, float>::Result(std::__ndk1::function<void (float)>, std::__ndk1::function<bool ()>)>*) const
FUNC 2d954 44 0 std::__ndk1::__function::__func<HighTexturesPopup::getExtractTask(std::__ndk1::__fs::filesystem::path, std::__ndk1::__fs::filesystem::path)::$_0, std::__ndk1::allocator<HighTexturesPopup::getExtractTask(std::__ndk1::__fs::filesystem::path, std::__ndk1::__fs::filesystem::path)::$_0>, geode::Task<geode::Result<void, std::__ndk1::basic_string<char, std::__ndk1::char_traits<char>, std::__ndk1::allocator<char> > >, float>::Result(std::__ndk1::function<void (float)>, std::__ndk1::function<bool ()>)>::destroy()
FUNC 2d998 40 0 std::__ndk1::__function::__func<HighTexturesPopup::getExtractTask(std::__ndk1::__fs::filesystem::path, std::__ndk1::__fs::filesystem::path)::$_0, std::__ndk1::allocator<HighTexturesPopup::getExtractTask(std::__ndk1::__fs::filesystem::path, std::__ndk1::__fs::filesystem::path)::$_0>, geode::Task<geode::Result<void, std::__ndk1::basic_string<char, std::__ndk1::char_traits<char>, std::__ndk1::allocator<char> > >, float>::Result(std::__ndk1::function<void (float)>, std::__ndk1::function<bool ()>)>::destroy_deallocate()
FUNC 2d9d8 3e0 0 std::__ndk1::__function::__func<HighTexturesPopup::getExtractTask(std::__ndk1::__fs::filesystem::path, std::__ndk1::__fs::filesystem::path)::$_0, std::__ndk1::allocator<HighTexturesPopup::getExtractTask(std::__ndk1::__fs::filesystem::path, std::__ndk1::__fs::filesystem::path)::$_0>, geode::Task<geode::Result<void, std::__ndk1::basic_string<char, std::__ndk1::char_traits<char>, std::__ndk1::allocator<char> > >, float>::Result(std::__ndk1::function<void (float)>, std::__ndk1::function<bool ()>)>::operator()(std::__ndk1::function<void (float)>&&, std::__ndk1::function<bool ()>&&)
FUNC 2ddb8 1c 0 std::__ndk1::__function::__func<HighTexturesPopup::getExtractTask(std::__ndk1::__fs::filesystem::path, std::__ndk1::__fs::filesystem::path)::$_0, std::__ndk1::allocator<HighTexturesPopup::getExtractTask(std::__ndk1::__fs::filesystem::path, std::__ndk1::__fs::filesystem::path)::$_0>, geode::Task<geode::Result<void, std::__ndk1::basic_string<char, std::__ndk1::char_traits<char>, std::__ndk1::allocator<char> > >, float>::Result(std::__ndk1::function<void (float)>, std::__ndk1::function<bool ()>)>::target(std::type_info const&) const
FUNC 2ddd4 c 0 std::__ndk1::__function::__func<HighTexturesPopup::getExtractTask(std::__ndk1::__fs::filesystem::path, std::__ndk1::__fs::filesystem::path)::$_0, std::__ndk1::allocator<HighTexturesPopup::getExtractTask(std::__ndk1::__fs::filesystem::path, std::__ndk1::__fs::filesystem::path)::$_0>, geode::Task<geode::Result<void, std::__ndk1::basic_string<char, std::__ndk1::char_traits<char>, std::__ndk1::allocator<char> > >, float>::Result(std::__ndk1::function<void (float)>, std::__ndk1::function<bool ()>)>::target_type() const
FUNC 2dde0 44 0 std::__ndk1::__function::__func<HighTexturesPopup::getExtractTask(std::__ndk1::__fs::filesystem::path, std::__ndk1::__fs::filesystem::path)::$_0::operator()<std::__ndk1::function<void (float)>, std::__ndk1::function<bool ()> >(std::__ndk1::function<void (float)>, std::__ndk1::function<bool ()>) const::{lambda(auto:1, auto:2)#1}, std::__ndk1::allocator<HighTexturesPopup::getExtractTask(std::__ndk1::__fs::filesystem::path, std::__ndk1::__fs::filesystem::path)::$_0::operator()<std::__ndk1::function<void (float)>, std::__ndk1::function<bool ()> >(std::__ndk1::function<void (float)>, std::__ndk1::function<bool ()>) const::{lambda(auto:1, auto:2)#1}>, void (unsigned int, unsigned int)>::~__func()
FUNC 2de24 5c 0 std::__ndk1::__function::__func<HighTexturesPopup::getExtractTask(std::__ndk1::__fs::filesystem::path, std::__ndk1::__fs::filesystem::path)::$_0::operator()<std::__ndk1::function<void (float)>, std::__ndk1::function<bool ()> >(std::__ndk1::function<void (float)>, std::__ndk1::function<bool ()>) const::{lambda(auto:1, auto:2)#1}, std::__ndk1::allocator<HighTexturesPopup::getExtractTask(std::__ndk1::__fs::filesystem::path, std::__ndk1::__fs::filesystem::path)::$_0::operator()<std::__ndk1::function<void (float)>, std::__ndk1::function<bool ()> >(std::__ndk1::function<void (float)>, std::__ndk1::function<bool ()>) const::{lambda(auto:1, auto:2)#1}>, void (unsigned int, unsigned int)>::~__func()
FUNC 2de80 88 0 std::__ndk1::__function::__func<HighTexturesPopup::getExtractTask(std::__ndk1::__fs::filesystem::path, std::__ndk1::__fs::filesystem::path)::$_0::operator()<std::__ndk1::function<void (float)>, std::__ndk1::function<bool ()> >(std::__ndk1::function<void (float)>, std::__ndk1::function<bool ()>) const::{lambda(auto:1, auto:2)#1}, std::__ndk1::allocator<HighTexturesPopup::getExtractTask(std::__ndk1::__fs::filesystem::path, std::__ndk1::__fs::filesystem::path)::$_0::operator()<std::__ndk1::function<void (float)>, std::__ndk1::function<bool ()> >(std::__ndk1::function<void (float)>, std::__ndk1::function<bool ()>) const::{lambda(auto:1, auto:2)#1}>, void (unsigned int, unsigned int)>::__clone() const
FUNC 2df08 74 0 std::__ndk1::__function::__func<HighTexturesPopup::getExtractTask(std::__ndk1::__fs::filesystem::path, std::__ndk1::__fs::filesystem::path)::$_0::operator()<std::__ndk1::function<void (float)>, std::__ndk1::function<bool ()> >(std::__ndk1::function<void (float)>, std::__ndk1::function<bool ()>) const::{lambda(auto:1, auto:2)#1}, std::__ndk1::allocator<HighTexturesPopup::getExtractTask(std::__ndk1::__fs::filesystem::path, std::__ndk1::__fs::filesystem::path)::$_0::operator()<std::__ndk1::function<void (float)>, std::__ndk1::function<bool ()> >(std::__ndk1::function<void (float)>, std::__ndk1::function<bool ()>) const::{lambda(auto:1, auto:2)#1}>, void (unsigned int, unsigned int)>::__clone(std::__ndk1::__function::__base<void (unsigned int, unsigned int)>*) const
FUNC 2df7c 38 0 std::__ndk1::__function::__func<HighTexturesPopup::getExtractTask(std::__ndk1::__fs::filesystem::path, std::__ndk1::__fs::filesystem::path)::$_0::operator()<std::__ndk1::function<void (float)>, std::__ndk1::function<bool ()> >(std::__ndk1::function<void (float)>, std::__ndk1::function<bool ()>) const::{lambda(auto:1, auto:2)#1}, std::__ndk1::allocator<HighTexturesPopup::getExtractTask(std::__ndk1::__fs::filesystem::path, std::__ndk1::__fs::filesystem::path)::$_0::operator()<std::__ndk1::function<void (float)>, std::__ndk1::function<bool ()> >(std::__ndk1::function<void (float)>, std::__ndk1::function<bool ()>) const::{lambda(auto:1, auto:2)#1}>, void (unsigned int, unsigned int)>::destroy()
FUNC 2dfb4 50 0 std::__ndk1::__function::__func<HighTexturesPopup::getExtractTask(std::__ndk1::__fs::filesystem::path, std::__ndk1::__fs::filesystem::path)::$_0::operator()<std::__ndk1::function<void (float)>, std::__ndk1::function<bool ()> >(std::__ndk1::function<void (float)>, std::__ndk1::function<bool ()>) const::{lambda(auto:1, auto:2)#1}, std::__ndk1::allocator<HighTexturesPopup::getExtractTask(std::__ndk1::__fs::filesystem::path, std::__ndk1::__fs::filesystem::path)::$_0::operator()<std::__ndk1::function<void (float)>, std::__ndk1::function<bool ()> >(std::__ndk1::function<void (float)>, std::__ndk1::function<bool ()>) const::{lambda(auto:1, auto:2)#1}>, void (unsigned int, unsigned int)>::destroy_deallocate()
FUNC 2e004 90 0 std::__ndk1::__function::__func<HighTexturesPopup::getExtractTask(std::__ndk1::__fs::filesystem::path, std::__ndk1::__fs::filesystem::path)::$_0::operator()<std::__ndk1::function<void (float)>, std::__ndk1::function<bool ()> >(std::__ndk1::function<void (float)>, std::__ndk1::function<bool ()>) const::{lambda(auto:1, auto:2)#1}, std::__ndk1::allocator<HighTexturesPopup::getExtractTask(std::__ndk1::__fs::filesystem::path, std::__ndk1::__fs::filesystem::path)::$_0::operator()<std::__ndk1::function<void (float)>, std::__ndk1::function<bool ()> >(std::__ndk1::function<void (float)>, std::__ndk1::function<bool ()>) const::{lambda(auto:1, auto:2)#1}>, void (unsigned int, unsigned int)>::operator()(unsigned int&&, unsigned int&&)
FUNC 2e094 1c 0 std::__ndk1::__function::__func<HighTexturesPopup::getExtractTask(std::__ndk1::__fs::filesystem::path, std::__ndk1::__fs::filesystem::path)::$_0::operator()<std::__ndk1::function<void (float)>, std::__ndk1::function<bool ()> >(std::__ndk1::function<void (float)>, std::__ndk1::function<bool ()>) const::{lambda(auto:1, auto:2)#1}, std::__ndk1::allocator<HighTexturesPopup::getExtractTask(std::__ndk1::__fs::filesystem::path, std::__ndk1::__fs::filesystem::path)::$_0::operator()<std::__ndk1::function<void (float)>, std::__ndk1::function<bool ()> >(std::__ndk1::function<void (float)>, std::__ndk1::function<bool ()>) const::{lambda(auto:1, auto:2)#1}>, void (unsigned int, unsigned int)>::target(std::type_info const&) const
FUNC 2e0b0 c 0 std::__ndk1::__function::__func<HighTexturesPopup::getExtractTask(std::__ndk1::__fs::filesystem::path, std::__ndk1::__fs::filesystem::path)::$_0::operator()<std::__ndk1::function<void (float)>, std::__ndk1::function<bool ()> >(std::__ndk1::function<void (float)>, std::__ndk1::function<bool ()>) const::{lambda(auto:1, auto:2)#1}, std::__ndk1::allocator<HighTexturesPopup::getExtractTask(std::__ndk1::__fs::filesystem::path, std::__ndk1::__fs::filesystem::path)::$_0::operator()<std::__ndk1::function<void (float)>, std::__ndk1::function<bool ()> >(std::__ndk1::function<void (float)>, std::__ndk1::function<bool ()>) const::{lambda(auto:1, auto:2)#1}>, void (unsigned int, unsigned int)>::target_type() const
FUNC 2e0bc 12c 0 std::__ndk1::__tree<std::__ndk1::__value_type<std::__ndk1::basic_string<char, std::__ndk1::char_traits<char>, std::__ndk1::allocator<char> >, std::__ndk1::pair<std::__ndk1::basic_string<char, std::__ndk1::char_traits<char>, std::__ndk1::allocator<char> >, std::__ndk1::basic_string<char, std::__ndk1::char_traits<char>, std::__ndk1::allocator<char> > > >, std::__ndk1::__map_value_compare<std::__ndk1::basic_string<char, std::__ndk1::char_traits<char>, std::__ndk1::allocator<char> >, std::__ndk1::__value_type<std::__ndk1::basic_string<char, std::__ndk1::char_traits<char>, std::__ndk1::allocator<char> >, std::__ndk1::pair<std::__ndk1::basic_string<char, std::__ndk1::char_traits<char>, std::__ndk1::allocator<char> >, std::__ndk1::basic_string<char, std::__ndk1::char_traits<char>, std::__ndk1::allocator<char> > > >, std::__ndk1::less<std::__ndk1::basic_string<char, std::__ndk1::char_traits<char>, std::__ndk1::allocator<char> > >, true>, std::__ndk1::allocator<std::__ndk1::__value_type<std::__ndk1::basic_string<char, std::__ndk1::char_traits<char>, std::__ndk1::allocator<char> >, std::__ndk1::pair<std::__ndk1::basic_string<char, std::__ndk1::char_traits<char>, std::__ndk1::allocator<char> >, std::__ndk1::basic_string<char, std::__ndk1::char_traits<char>, std::__ndk1::allocator<char> > > > > >::__emplace_unique_key_args<std::__ndk1::basic_string<char, std::__ndk1::char_traits<char>, std::__ndk1::allocator<char> >, std::__ndk1::piecewise_construct_t const&, std::__ndk1::tuple<std::__ndk1::basic_string<char, std::__ndk1::char_traits<char>, std::__ndk1::allocator<char> > const&>, std::__ndk1::tuple<> >(std::__ndk1::basic_string<char, std::__ndk1::char_traits<char>, std::__ndk1::allocator<char> > const&, std::__ndk1::piecewise_construct_t const&, std::__ndk1::tuple<std::__ndk1::basic_string<char, std::__ndk1::char_traits<char>, std::__ndk1::allocator<char> > const&>, std::__ndk1::tuple<>)
FUNC 2e1e8 20 0 std::__ndk1::__function::__func<HighTexturesPopup::startDownload()::$_0, std::__ndk1::allocator<HighTexturesPopup::startDownload()::$_0>, void (geode::Task<geode::utils::web::WebResponse, geode::utils::web::WebProgress>::Event*)>::~__func()
FUNC 2e208 40 0 std::__ndk1::__function::__func<HighTexturesPopup::startDownload()::$_0, std::__ndk1::allocator<HighTexturesPopup::startDownload()::$_0>, void (geode::Task<geode::utils::web::WebResponse, geode::utils::web::WebProgress>::Event*)>::~__func()
FUNC 2e248 84 0 std::__ndk1::__function::__func<HighTexturesPopup::startDownload()::$_0, std::__ndk1::allocator<HighTexturesPopup::startDownload()::$_0>, void (geode::Task<geode::utils::web::WebResponse, geode::utils::web::WebProgress>::Event*)>::__clone() const
FUNC 2e2cc 68 0 std::__ndk1::__function::__func<HighTexturesPopup::startDownload()::$_0, std::__ndk1::allocator<HighTexturesPopup::startDownload()::$_0>, void (geode::Task<geode::utils::web::WebResponse, geode::utils::web::WebProgress>::Event*)>::__clone(std::__ndk1::__function::__base<void (geode::Task<geode::utils::web::WebResponse, geode::utils::web::WebProgress>::Event*)>*) const
FUNC 2e334 14 0 std::__ndk1::__function::__func<HighTexturesPopup::startDownload()::$_0, std::__ndk1::allocator<HighTexturesPopup::startDownload()::$_0>, void (geode::Task<geode::utils::web::WebResponse, geode::utils::web::WebProgress>::Event*)>::destroy()
FUNC 2e348 34 0 std::__ndk1::__function::__func<HighTexturesPopup::startDownload()::$_0, std::__ndk1::allocator<HighTexturesPopup::startDownload()::$_0>, void (geode::Task<geode::utils::web::WebResponse, geode::utils::web::WebProgress>::Event*)>::destroy_deallocate()
FUNC 2e37c 714 0 std::__ndk1::__function::__func<HighTexturesPopup::startDownload()::$_0, std::__ndk1::allocator<HighTexturesPopup::startDownload()::$_0>, void (geode::Task<geode::utils::web::WebResponse, geode::utils::web::WebProgress>::Event*)>::operator()(geode::Task<geode::utils::web::WebResponse, geode::utils::web::WebProgress>::Event*&&)
FUNC 2ea90 1c 0 std::__ndk1::__function::__func<HighTexturesPopup::startDownload()::$_0, std::__ndk1::allocator<HighTexturesPopup::startDownload()::$_0>, void (geode::Task<geode::utils::web::WebResponse, geode::utils::web::WebProgress>::Event*)>::target(std::type_info const&) const
FUNC 2eaac c 0 std::__ndk1::__function::__func<HighTexturesPopup::startDownload()::$_0, std::__ndk1::allocator<HighTexturesPopup::startDownload()::$_0>, void (geode::Task<geode::utils::web::WebResponse, geode::utils::web::WebProgress>::Event*)>::target_type() const
FUNC 2eab8 20 0 std::__ndk1::__function::__func<HighTexturesPopup::startExtract(std::__ndk1::__fs::filesystem::path, std::__ndk1::__fs::filesystem::path)::$_0, std::__ndk1::allocator<HighTexturesPopup::startExtract(std::__ndk1::__fs::filesystem::path, std::__ndk1::__fs::filesystem::path)::$_0>, void (geode::Task<geode::Result<void, std::__ndk1::basic_string<char, std::__ndk1::char_traits<char>, std::__ndk1::allocator<char> > >, float>::Event*)>::~__func()
FUNC 2ead8 40 0 std::__ndk1::__function::__func<HighTexturesPopup::startExtract(std::__ndk1::__fs::filesystem::path, std::__ndk1::__fs::filesystem::path)::$_0, std::__ndk1::allocator<HighTexturesPopup::startExtract(std::__ndk1::__fs::filesystem::path, std::__ndk1::__fs::filesystem::path)::$_0>, void (geode::Task<geode::Result<void, std::__ndk1::basic_string<char, std::__ndk1::char_traits<char>, std::__ndk1::allocator<char> > >, float>::Event*)>::~__func()
FUNC 2eb18 7c 0 std::__ndk1::__function::__func<HighTexturesPopup::startExtract(std::__ndk1::__fs::filesystem::path, std::__ndk1::__fs::filesystem::path)::$_0, std::__ndk1::allocator<HighTexturesPopup::startExtract(std::__ndk1::__fs::filesystem::path, std::__ndk1::__fs::filesystem::path)::$_0>, void (geode::Task<geode::Result<void, std::__ndk1::basic_string<char, std::__ndk1::char_traits<char>, std::__ndk1::allocator<char> > >, float>::Event*)>::__clone() const
FUNC 2eb94 60 0 std::__ndk1::__function::__func<HighTexturesPopup::startExtract(std::__ndk1::__fs::filesystem::path, std::__ndk1::__fs::filesystem::path)::$_0, std::__ndk1::allocator<HighTexturesPopup::startExtract(std::__ndk1::__fs::filesystem::path, std::__ndk1::__fs::filesystem::path)::$_0>, void (geode::Task<geode::Result<void, std::__ndk1::basic_string<char, std::__ndk1::char_traits<char>, std::__ndk1::allocator<char> > >, float>::Event*)>::__clone(std::__ndk1::__function::__base<void (geode::Task<geode::Result<void, std::__ndk1::basic_string<char, std::__ndk1::char_traits<char>, std::__ndk1::allocator<char> > >, float>::Event*)>*) const
FUNC 2ebf4 14 0 std::__ndk1::__function::__func<HighTexturesPopup::startExtract(std::__ndk1::__fs::filesystem::path, std::__ndk1::__fs::filesystem::path)::$_0, std::__ndk1::allocator<HighTexturesPopup::startExtract(std::__ndk1::__fs::filesystem::path, std::__ndk1::__fs::filesystem::path)::$_0>, void (geode::Task<geode::Result<void, std::__ndk1::basic_string<char, std::__ndk1::char_traits<char>, std::__ndk1::allocator<char> > >, float>::Event*)>::destroy()
FUNC 2ec08 34 0 std::__ndk1::__function::__func<HighTexturesPopup::startExtract(std::__ndk1::__fs::filesystem::path, std::__ndk1::__fs::filesystem::path)::$_0, std::__ndk1::allocator<HighTexturesPopup::startExtract(std::__ndk1::__fs::filesystem::path, std::__ndk1::__fs::filesystem::path)::$_0>, void (geode::Task<geode::Result<void, std::__ndk1::basic_string<char, std::__ndk1::char_traits<char>, std::__ndk1::allocator<char> > >, float>::Event*)>::destroy_deallocate()
FUNC 2ec3c 3d0 0 std::__ndk1::__function::__func<HighTexturesPopup::startExtract(std::__ndk1::__fs::filesystem::path, std::__ndk1::__fs::filesystem::path)::$_0, std::__ndk1::allocator<HighTexturesPopup::startExtract(std::__ndk1::__fs::filesystem::path, std::__ndk1::__fs::filesystem::path)::$_0>, void (geode::Task<geode::Result<void, std::__ndk1::basic_string<char, std::__ndk1::char_traits<char>, std::__ndk1::allocator<char> > >, float>::Event*)>::operator()(geode::Task<geode::Result<void, std::__ndk1::basic_string<char, std::__ndk1::char_traits<char>, std::__ndk1::allocator<char> > >, float>::Event*&&)
FUNC 2f00c 1c 0 std::__ndk1::__function::__func<HighTexturesPopup::startExtract(std::__ndk1::__fs::filesystem::path, std::__ndk1::__fs::filesystem::path)::$_0, std::__ndk1::allocator<HighTexturesPopup::startExtract(std::__ndk1::__fs::filesystem::path, std::__ndk1::__fs::filesystem::path)::$_0>, void (geode::Task<geode::Result<void, std::__ndk1::basic_string<char, std::__ndk1::char_traits<char>, std::__ndk1::allocator<char> > >, float>::Event*)>::target(std::type_info const&) const
FUNC 2f028 c 0 std::__ndk1::__function::__func<HighTexturesPopup::startExtract(std::__ndk1::__fs::filesystem::path, std::__ndk1::__fs::filesystem::path)::$_0, std::__ndk1::allocator<HighTexturesPopup::startExtract(std::__ndk1::__fs::filesystem::path, std::__ndk1::__fs::filesystem::path)::$_0>, void (geode::Task<geode::Result<void, std::__ndk1::basic_string<char, std::__ndk1::char_traits<char>, std::__ndk1::allocator<char> > >, float>::Event*)>::target_type() const
FUNC 2f034 50 0 geode::Popup<bool>::CloseEvent::~CloseEvent()
FUNC 2f084 58 0 geode::Popup<bool>::CloseEvent::~CloseEvent()
FUNC 2f0dc 10 0 std::__ndk1::__shared_ptr_emplace<geode::Popup<bool>::CloseEvent::Impl, std::__ndk1::allocator<geode::Popup<bool>::CloseEvent::Impl> >::~__shared_ptr_emplace()
FUNC 2f0ec 30 0 std::__ndk1::__shared_ptr_emplace<geode::Popup<bool>::CloseEvent::Impl, std::__ndk1::allocator<geode::Popup<bool>::CloseEvent::Impl> >::~__shared_ptr_emplace()
FUNC 2f11c 4 0 std::__ndk1::__shared_ptr_emplace<geode::Popup<bool>::CloseEvent::Impl, std::__ndk1::allocator<geode::Popup<bool>::CloseEvent::Impl> >::__on_zero_shared()
FUNC 2f120 4 0 std::__ndk1::__shared_ptr_emplace<geode::Popup<bool>::CloseEvent::Impl, std::__ndk1::allocator<geode::Popup<bool>::CloseEvent::Impl> >::__on_zero_shared_weak()
FUNC 2f124 400 0 __cxx_global_var_init
FUNC 2f524 1c 0 geode::modifier::ModifyBase<geode::modifier::ModifyDerive<hook5<(anonymous namespace)::hook5Parent>, cocos2d::CCDirector> >::~ModifyBase()
FUNC 2f540 3dc 0 geode::modifier::ModifyDerive<hook5<(anonymous namespace)::hook5Parent>, cocos2d::CCDirector>::apply()
FUNC 2f91c 50 0 std::__ndk1::shared_ptr<geode::Hook>::~shared_ptr[abi:ne180000]()
FUNC 2f96c 74 0 geode::impl::ResultData<geode::Hook*, std::__ndk1::basic_string<char, std::__ndk1::char_traits<char>, std::__ndk1::allocator<char> > >::~ResultData()
FUNC 2f9e0 7c 0 std::__ndk1::vector<std::__ndk1::basic_string<char, std::__ndk1::char_traits<char>, std::__ndk1::allocator<char> >, std::__ndk1::allocator<std::__ndk1::basic_string<char, std::__ndk1::char_traits<char>, std::__ndk1::allocator<char> > > >::~vector[abi:ne180000]()
FUNC 2fa5c 4 0 geode::modifier::ModifyBase<geode::modifier::ModifyDerive<hook5<(anonymous namespace)::hook5Parent>, cocos2d::CCDirector> >::apply()
FUNC 2fa60 154 0 _ZN5geode15UnwrapExceptionC2IRPNS_4HookEQsr4implE18IsStringStreamableIT_EEENS_4impl5OkTagEOS5_
FUNC 2fbb4 124 0 std::__ndk1::basic_stringstream<char, std::__ndk1::char_traits<char>, std::__ndk1::allocator<char> >::basic_stringstream[abi:ne180000]()
FUNC 2fcd8 80 0 std::__ndk1::basic_stringstream<char, std::__ndk1::char_traits<char>, std::__ndk1::allocator<char> >::~basic_stringstream()
FUNC 2fd58 24 0 geode::UnwrapException::~UnwrapException()
FUNC 2fd7c 198 0 std::__ndk1::__put_character_sequence[abi:ne180000]<char, std::__ndk1::char_traits<char> >(std::__ndk1::basic_ostream<char, std::__ndk1::char_traits<char> >, std::__ndk1::basic_ostream const*, unsigned long)
FUNC 2ff14 1b4 0 std::__ndk1::__pad_and_output[abi:ne180000]<char, std::__ndk1::char_traits<char> >(std::__ndk1::char_traits<char>, std::__ndk1::ostreambuf_iterator const*, std::__ndk1::ostreambuf_iterator const, std::__ndk1::ostreambuf_iterator const, std::__ndk1::ios_base&, std::__ndk1::ostreambuf_iterator)
FUNC 300c8 34 0 std::__throw_bad_array_new_length([abi:ne180000], void)
FUNC 300fc 15c 0 std::__ndk1::basic_stringbuf<char, std::__ndk1::char_traits<char>, std::__ndk1::allocator<char> >::str[abi:ne180000]() &&
FUNC 30258 148 0 std::__ndk1::basic_stringbuf<char, std::__ndk1::char_traits<char>, std::__ndk1::allocator<char> >::__init_buf_ptrs[abi:ne180000]()
FUNC 303a0 21c 0 std::__ndk1::vector<std::__ndk1::basic_string<char, std::__ndk1::char_traits<char>, std::__ndk1::allocator<char> >, std::__ndk1::allocator<std::__ndk1::basic_string<char, std::__ndk1::char_traits<char>, std::__ndk1::allocator<char> > > >::__push_back_slow_path<std::__ndk1::basic_string<char, std::__ndk1::char_traits<char>, std::__ndk1::allocator<char> > const&>(std::__ndk1::basic_string<char, std::__ndk1::char_traits<char>, std::__ndk1::allocator<char> > const&)
FUNC 305bc 68 0 std::__ndk1::__split_buffer<std::__ndk1::basic_string<char, std::__ndk1::char_traits<char>, std::__ndk1::allocator<char> >, std::__ndk1::allocator<std::__ndk1::basic_string<char, std::__ndk1::char_traits<char>, std::__ndk1::allocator<char> > >&>::~__split_buffer()
FUNC 30624 14 0 std::__ndk1::vector<std::__ndk1::basic_string<char, std::__ndk1::char_traits<char>, std::__ndk1::allocator<char> >, std::__ndk1::allocator<std::__ndk1::basic_string<char, std::__ndk1::char_traits<char>, std::__ndk1::allocator<char> > > >::__throw_length_error[abi:ne180000]() const
FUNC 30638 4 0 std::__ndk1::__variant_detail::__visitation::__base::__dispatcher<(unsigned long)0>::__dispatch[abi:ne180000]<std::__ndk1::__variant_detail::__dtor<std::__ndk1::__variant_detail::__traits<geode::Hook*, std::__ndk1::basic_string<char, std::__ndk1::char_traits<char>, std::__ndk1::allocator<char> > >, (std::__ndk1::__variant_detail::_Trait)1>::__destroy[abi:ne180000]()::{lambda(auto:1&)#1}, std::__ndk1::__variant_detail::__base<(std::__ndk1::__variant_detail::__traits<geode::Hook*, std::__ndk1::basic_string<char, std::__ndk1::char_traits<char>, std::__ndk1::allocator<char> > >)1, geode::Hook, std::__ndk1::allocator<char> >&>(std::__ndk1::__variant_detail::__dtor<std::__ndk1::__variant_detail::__traits<geode::Hook*, std::__ndk1::basic_string<char, std::__ndk1::char_traits<char>, std::__ndk1::allocator<char> > >, (std::__ndk1::__variant_detail::_Trait)1>, std::__ndk1::__variant_detail::__base<(std::__ndk1::__variant_detail::__traits<geode::Hook*, std::__ndk1::basic_string<char, std::__ndk1::char_traits<char>, std::__ndk1::allocator<char> > >)1, geode::Hook, std::__ndk1::allocator<char> >&)
FUNC 3063c 14 0 std::__ndk1::__variant_detail::__visitation::__base::__dispatcher<(unsigned long)1>::__dispatch[abi:ne180000]<std::__ndk1::__variant_detail::__dtor<std::__ndk1::__variant_detail::__traits<geode::Hook*, std::__ndk1::basic_string<char, std::__ndk1::char_traits<char>, std::__ndk1::allocator<char> > >, (std::__ndk1::__variant_detail::_Trait)1>::__destroy[abi:ne180000]()::{lambda(auto:1&)#1}, std::__ndk1::__variant_detail::__base<(std::__ndk1::__variant_detail::__traits<geode::Hook*, std::__ndk1::basic_string<char, std::__ndk1::char_traits<char>, std::__ndk1::allocator<char> > >)1, geode::Hook, std::__ndk1::allocator<char> >&>(std::__ndk1::__variant_detail::__dtor<std::__ndk1::__variant_detail::__traits<geode::Hook*, std::__ndk1::basic_string<char, std::__ndk1::char_traits<char>, std::__ndk1::allocator<char> > >, (std::__ndk1::__variant_detail::_Trait)1>, std::__ndk1::__variant_detail::__base<(std::__ndk1::__variant_detail::__traits<geode::Hook*, std::__ndk1::basic_string<char, std::__ndk1::char_traits<char>, std::__ndk1::allocator<char> > >)1, geode::Hook, std::__ndk1::allocator<char> >&)
FUNC 30650 fc 0 std::__ndk1::__tree<std::__ndk1::__value_type<std::__ndk1::basic_string<char, std::__ndk1::char_traits<char>, std::__ndk1::allocator<char> >, std::__ndk1::shared_ptr<geode::Hook> >, std::__ndk1::__map_value_compare<std::__ndk1::basic_string<char, std::__ndk1::char_traits<char>, std::__ndk1::allocator<char> >, std::__ndk1::__value_type<std::__ndk1::basic_string<char, std::__ndk1::char_traits<char>, std::__ndk1::allocator<char> >, std::__ndk1::shared_ptr<geode::Hook> >, std::__ndk1::less<std::__ndk1::basic_string<char, std::__ndk1::char_traits<char>, std::__ndk1::allocator<char> > >, true>, std::__ndk1::allocator<std::__ndk1::__value_type<std::__ndk1::basic_string<char, std::__ndk1::char_traits<char>, std::__ndk1::allocator<char> >, std::__ndk1::shared_ptr<geode::Hook> > > >::find<std::__ndk1::basic_string<char, std::__ndk1::char_traits<char>, std::__ndk1::allocator<char> > >(std::__ndk1::basic_string<char, std::__ndk1::char_traits<char>, std::__ndk1::allocator<char> > const&)
FUNC 3074c d4 0 std::__ndk1::__tree<std::__ndk1::__value_type<std::__ndk1::basic_string<char, std::__ndk1::char_traits<char>, std::__ndk1::allocator<char> >, std::__ndk1::shared_ptr<geode::Hook> >, std::__ndk1::__map_value_compare<std::__ndk1::basic_string<char, std::__ndk1::char_traits<char>, std::__ndk1::allocator<char> >, std::__ndk1::__value_type<std::__ndk1::basic_string<char, std::__ndk1::char_traits<char>, std::__ndk1::allocator<char> >, std::__ndk1::shared_ptr<geode::Hook> >, std::__ndk1::less<std::__ndk1::basic_string<char, std::__ndk1::char_traits<char>, std::__ndk1::allocator<char> > >, true>, std::__ndk1::allocator<std::__ndk1::__value_type<std::__ndk1::basic_string<char, std::__ndk1::char_traits<char>, std::__ndk1::allocator<char> >, std::__ndk1::shared_ptr<geode::Hook> > > >::erase(std::__ndk1::__tree_const_iterator<std::__ndk1::__value_type<std::__ndk1::basic_string<char, std::__ndk1::char_traits<char>, std::__ndk1::allocator<char> >, std::__ndk1::shared_ptr<geode::Hook> >, std::__ndk1::__tree_node<std::__ndk1::__value_type<std::__ndk1::basic_string<char, std::__ndk1::char_traits<char>, std::__ndk1::allocator<char> >, std::__ndk1::shared_ptr<geode::Hook> >, void*>*, long>)
FUNC 30820 388 0 std::__ndk1::__tree_remove[abi:ne180000]<std::__ndk1::__tree_node_base<void*>*>(std::__ndk1::__tree_node_base<void*>*, std::__ndk1::__tree_node_base<void*>*)
FUNC 30ba8 8c 0 std::__ndk1::__tree<std::__ndk1::__value_type<std::__ndk1::basic_string<char, std::__ndk1::char_traits<char>, std::__ndk1::allocator<char> >, std::__ndk1::shared_ptr<geode::Hook> >, std::__ndk1::__map_value_compare<std::__ndk1::basic_string<char, std::__ndk1::char_traits<char>, std::__ndk1::allocator<char> >, std::__ndk1::__value_type<std::__ndk1::basic_string<char, std::__ndk1::char_traits<char>, std::__ndk1::allocator<char> >, std::__ndk1::shared_ptr<geode::Hook> >, std::__ndk1::less<std::__ndk1::basic_string<char, std::__ndk1::char_traits<char>, std::__ndk1::allocator<char> > >, true>, std::__ndk1::allocator<std::__ndk1::__value_type<std::__ndk1::basic_string<char, std::__ndk1::char_traits<char>, std::__ndk1::allocator<char> >, std::__ndk1::shared_ptr<geode::Hook> > > >::destroy(std::__ndk1::__tree_node<std::__ndk1::__value_type<std::__ndk1::basic_string<char, std::__ndk1::char_traits<char>, std::__ndk1::allocator<char> >, std::__ndk1::shared_ptr<geode::Hook> >, void*>*)
FUNC 30c34 3c 0 geode::modifier::AsStaticFunction_updateContentScale<hook5<(anonymous namespace)::hook5Parent>, void (hook5<(anonymous namespace)::hook5Parent>::*)(cocos2d::TextureQuality)>::Impl<void (hook5<(anonymous namespace)::hook5Parent>::*)(cocos2d::TextureQuality)>::function(hook5<(anonymous namespace)::hook5Parent>*, cocos2d::TextureQuality)
FUNC 30c70 50 0 std::__ndk1::shared_ptr<tulip::hook::CallingConvention>::~shared_ptr[abi:ne180000]()
FUNC 30cc0 64 0 tulip::hook::HandlerMetadata::~HandlerMetadata()
FUNC 30d24 104 0 std::__ndk1::__tree<std::__ndk1::__value_type<std::__ndk1::basic_string<char, std::__ndk1::char_traits<char>, std::__ndk1::allocator<char> >, std::__ndk1::shared_ptr<geode::Hook> >, std::__ndk1::__map_value_compare<std::__ndk1::basic_string<char, std::__ndk1::char_traits<char>, std::__ndk1::allocator<char> >, std::__ndk1::__value_type<std::__ndk1::basic_string<char, std::__ndk1::char_traits<char>, std::__ndk1::allocator<char> >, std::__ndk1::shared_ptr<geode::Hook> >, std::__ndk1::less<std::__ndk1::basic_string<char, std::__ndk1::char_traits<char>, std::__ndk1::allocator<char> > >, true>, std::__ndk1::allocator<std::__ndk1::__value_type<std::__ndk1::basic_string<char, std::__ndk1::char_traits<char>, std::__ndk1::allocator<char> >, std::__ndk1::shared_ptr<geode::Hook> > > >::__find_equal<std::__ndk1::basic_string<char, std::__ndk1::char_traits<char>, std::__ndk1::allocator<char> > >(std::__ndk1::__tree_end_node<std::__ndk1::__tree_node_base<void*>*>*&, std::__ndk1::basic_string<char, std::__ndk1::char_traits<char>, std::__ndk1::allocator<char> > const&)
FUNC 30e28 400 0 __cxx_global_var_init.3
FUNC 31228 1c 0 geode::modifier::ModifyBase<geode::modifier::ModifyDerive<hook7<(anonymous namespace)::hook7Parent>, LoadingLayer> >::~ModifyBase()
FUNC 31244 3b8 0 geode::modifier::ModifyDerive<hook7<(anonymous namespace)::hook7Parent>, LoadingLayer>::apply()
FUNC 315fc 4 0 geode::modifier::ModifyBase<geode::modifier::ModifyDerive<hook7<(anonymous namespace)::hook7Parent>, LoadingLayer> >::apply()
FUNC 31600 36c 0 geode::modifier::AsStaticFunction_init<hook7<(anonymous namespace)::hook7Parent>, bool (hook7<(anonymous namespace)::hook7Parent>::*)(bool)>::Impl<bool (hook7<(anonymous namespace)::hook7Parent>::*)(bool)>::function(hook7<(anonymous namespace)::hook7Parent>*, bool)
FUNC 3196c 12c 0 std::__ndk1::__tree<std::__ndk1::__value_type<std::__ndk1::basic_string<char, std::__ndk1::char_traits<char>, std::__ndk1::allocator<char> >, int>, std::__ndk1::__map_value_compare<std::__ndk1::basic_string<char, std::__ndk1::char_traits<char>, std::__ndk1::allocator<char> >, std::__ndk1::__value_type<std::__ndk1::basic_string<char, std::__ndk1::char_traits<char>, std::__ndk1::allocator<char> >, int>, std::__ndk1::less<std::__ndk1::basic_string<char, std::__ndk1::char_traits<char>, std::__ndk1::allocator<char> > >, true>, std::__ndk1::allocator<std::__ndk1::__value_type<std::__ndk1::basic_string<char, std::__ndk1::char_traits<char>, std::__ndk1::allocator<char> >, int> > >::__emplace_unique_key_args<std::__ndk1::basic_string<char, std::__ndk1::char_traits<char>, std::__ndk1::allocator<char> >, std::__ndk1::piecewise_construct_t const&, std::__ndk1::tuple<std::__ndk1::basic_string<char, std::__ndk1::char_traits<char>, std::__ndk1::allocator<char> > const&>, std::__ndk1::tuple<> >(std::__ndk1::basic_string<char, std::__ndk1::char_traits<char>, std::__ndk1::allocator<char> > const&, std::__ndk1::piecewise_construct_t const&, std::__ndk1::tuple<std::__ndk1::basic_string<char, std::__ndk1::char_traits<char>, std::__ndk1::allocator<char> > const&>, std::__ndk1::tuple<>)
FUNC 31a98 400 0 __cxx_global_var_init.3
FUNC 31e98 1c 0 geode::modifier::ModifyBase<geode::modifier::ModifyDerive<hook10<(anonymous namespace)::hook10Parent>, MenuLayer> >::~ModifyBase()
FUNC 31eb4 360 0 geode::modifier::ModifyDerive<hook10<(anonymous namespace)::hook10Parent>, MenuLayer>::apply()
FUNC 32214 4 0 geode::modifier::ModifyBase<geode::modifier::ModifyDerive<hook10<(anonymous namespace)::hook10Parent>, MenuLayer> >::apply()
FUNC 32218 800 0 geode::modifier::AsStaticFunction_scene<hook10<(anonymous namespace)::hook10Parent>, cocos2d::CCScene* (*)(bool)>::Impl<cocos2d::CCScene* (*)(bool)>::function(bool)
FUNC 32a18 444 0 __cxx_global_var_init
FUNC 32e5c 1c 0 geode::modifier::ModifyBase<geode::modifier::ModifyDerive<AltOptionsLayer, OptionsLayer> >::~ModifyBase()
FUNC 32e78 694 0 geode::modifier::ModifyDerive<AltOptionsLayer, OptionsLayer>::apply()
FUNC 3350c 4 0 geode::modifier::ModifyBase<geode::modifier::ModifyDerive<AltOptionsLayer, OptionsLayer> >::apply()
FUNC 33510 a8 0 geode::addresser::getVirtual<void (OptionsLayer::*)()>(void (OptionsLayer::*)())
FUNC 335b8 22c 0 geode::modifier::AsStaticFunction_customSetup<AltOptionsLayer, void (AltOptionsLayer::*)()>::Impl<void (AltOptionsLayer::*)()>::function(AltOptionsLayer*)
FUNC 337e4 1c 0 geode::modifier::AsStaticFunction_onVideo<AltOptionsLayer, void (AltOptionsLayer::*)(cocos2d::CCObject*)>::Impl<void (AltOptionsLayer::*)(cocos2d::CCObject*)>::function(AltOptionsLayer*, cocos2d::CCObject*)
FUNC 33800 90 0 OptionsLayer::OptionsLayer(geode::ZeroConstructorType)
FUNC 33890 1c 0 AltOptionsLayer::onVideo(cocos2d::CCObject*)
FUNC 338ac 30 0 geodeImplicitEntry
FUNC 338dc 4c 0 std::__ndk1::unordered_map<void*, bool, std::__ndk1::hash<void*>, std::__ndk1::equal_to<void*>, std::__ndk1::allocator<std::__ndk1::pair<void* const, bool> > >::~unordered_map[abi:ne180000]()
FUNC 33928 134 0 wrapFunction(unsigned long, tulip::hook::WrapperMetadata const&)
FUNC 33a5c 78 0 geode::impl::ResultData<void*, std::__ndk1::basic_string<char, std::__ndk1::char_traits<char>, std::__ndk1::allocator<char> > >::unwrapErr() &
FUNC 33ad4 74 0 geode::impl::ResultData<void*, std::__ndk1::basic_string<char, std::__ndk1::char_traits<char>, std::__ndk1::allocator<char> > >::~ResultData()
FUNC 33b48 64 0 tulip::hook::WrapperMetadata::~WrapperMetadata()
FUNC 33bac 24 0 cocos2d::CCObject::~CCObject()
FUNC 33bd0 24 0 cocos2d::CCNode::~CCNode()
FUNC 33bf4 8 0 {virtual override thunk({offset(-320)}, cocos2d::CCLayer::~CCLayer())}
FUNC 33bfc 24 0 cocos2d::CCLayer::~CCLayer()
FUNC 33c20 28 0 {virtual override thunk({offset(-320)}, cocos2d::CCLayer::~CCLayer())}
FUNC 33c48 2f0 0 cocos2d::CCLayerRGBA::~CCLayerRGBA()
FUNC 33f38 8 0 {virtual override thunk({offset(-320)}, cocos2d::CCLayerRGBA::~CCLayerRGBA())}
FUNC 33f40 24 0 cocos2d::CCLayerRGBA::~CCLayerRGBA()
FUNC 33f64 28 0 {virtual override thunk({offset(-320)}, cocos2d::CCLayerRGBA::~CCLayerRGBA())}
FUNC 33f8c 260 0 cocos2d::CCLayerColor::CCLayerColor()
FUNC 341ec 8 0 {virtual override thunk({offset(-320)}, cocos2d::CCLayerColor::~CCLayerColor())}
FUNC 341f4 24 0 cocos2d::CCLayerColor::~CCLayerColor()
FUNC 34218 28 0 {virtual override thunk({offset(-320)}, cocos2d::CCLayerColor::~CCLayerColor())}
FUNC 34240 8 0 {virtual override thunk({offset(-320)}, FLAlertLayer::~FLAlertLayer())}
FUNC 34248 24 0 FLAlertLayer::~FLAlertLayer()
FUNC 3426c 28 0 {virtual override thunk({offset(-320)}, FLAlertLayer::~FLAlertLayer())}
FUNC 34294 1b8 0 FLAlertLayer::create(FLAlertLayerProtocol*, char const*, gd::string, char const*, char const*, float)
FUNC 3444c 148 0 tulip::hook::AbstractFunction::from<FLAlertLayer*, FLAlertLayerProtocol*, char const*, gd::string, char const*, char const*, float>(FLAlertLayer* (*)(FLAlertLayerProtocol*, char const*, gd::string, char const*, char const*, float))
FUNC 34594 4 0 cocos2d::CCObject::update(float)
FUNC 34598 2d4 0 cocos2d::CCLayerColor::~CCLayerColor()
FUNC 3486c 2d4 0 FLAlertLayer::~FLAlertLayer()
FUNC 34b40 290 0 cocos2d::CCNode::~CCNode()
FUNC 34dd0 2e0 0 cocos2d::CCLayer::~CCLayer()
FUNC 350b0 4ac 0 cocos2d::CCObject::~CCObject()
FUNC 3555c 154 0 _ZN5geode15UnwrapExceptionC2IRPvQsr4implE18IsStringStreamableIT_EEENS_4impl5OkTagEOS4_
FUNC 356b0 168 0 _ZN5geode15UnwrapExceptionC2IRNSt6__ndk112basic_stringIcNS2_11char_traitsIcEENS2_9allocatorIcEEEEQsr4implE18IsStringStreamableIT_EEENS_4impl6ErrTagEOSA_
FUNC 35818 4 0 std::__ndk1::__variant_detail::__visitation::__base::__dispatcher<(unsigned long)0>::__dispatch[abi:ne180000]<std::__ndk1::__variant_detail::__dtor<std::__ndk1::__variant_detail::__traits<void*, std::__ndk1::basic_string<char, std::__ndk1::char_traits<char>, std::__ndk1::allocator<char> > >, (std::__ndk1::__variant_detail::_Trait)1>::__destroy[abi:ne180000]()::{lambda(auto:1&)#1}, std::__ndk1::__variant_detail::__base<(std::__ndk1::__variant_detail::__traits<void*, std::__ndk1::basic_string<char, std::__ndk1::char_traits<char>, std::__ndk1::allocator<char> > >)1, std::__ndk1::__variant_detail::__traits, std::__ndk1::allocator<char> >&>(std::__ndk1::__variant_detail::__dtor<std::__ndk1::__variant_detail::__traits<void*, std::__ndk1::basic_string<char, std::__ndk1::char_traits<char>, std::__ndk1::allocator<char> > >, (std::__ndk1::__variant_detail::_Trait)1>, std::__ndk1::__variant_detail::__base<(std::__ndk1::__variant_detail::__traits<void*, std::__ndk1::basic_string<char, std::__ndk1::char_traits<char>, std::__ndk1::allocator<char> > >)1, std::__ndk1::__variant_detail::__traits, std::__ndk1::allocator<char> >&)
FUNC 3581c 14 0 std::__ndk1::__variant_detail::__visitation::__base::__dispatcher<(unsigned long)1>::__dispatch[abi:ne180000]<std::__ndk1::__variant_detail::__dtor<std::__ndk1::__variant_detail::__traits<void*, std::__ndk1::basic_string<char, std::__ndk1::char_traits<char>, std::__ndk1::allocator<char> > >, (std::__ndk1::__variant_detail::_Trait)1>::__destroy[abi:ne180000]()::{lambda(auto:1&)#1}, std::__ndk1::__variant_detail::__base<(std::__ndk1::__variant_detail::__traits<void*, std::__ndk1::basic_string<char, std::__ndk1::char_traits<char>, std::__ndk1::allocator<char> > >)1, std::__ndk1::__variant_detail::__traits, std::__ndk1::allocator<char> >&>(std::__ndk1::__variant_detail::__dtor<std::__ndk1::__variant_detail::__traits<void*, std::__ndk1::basic_string<char, std::__ndk1::char_traits<char>, std::__ndk1::allocator<char> > >, (std::__ndk1::__variant_detail::_Trait)1>, std::__ndk1::__variant_detail::__base<(std::__ndk1::__variant_detail::__traits<void*, std::__ndk1::basic_string<char, std::__ndk1::char_traits<char>, std::__ndk1::allocator<char> > >)1, std::__ndk1::__variant_detail::__traits, std::__ndk1::allocator<char> >&)
FUNC 35830 430 0 std::__ndk1::__hash_table<std::__ndk1::__hash_value_type<void*, bool>, std::__ndk1::__unordered_map_hasher<void*, std::__ndk1::__hash_value_type<void*, bool>, std::__ndk1::hash<void*>, std::__ndk1::equal_to<void*>, true>, std::__ndk1::__unordered_map_equal<void*, std::__ndk1::__hash_value_type<void*, bool>, std::__ndk1::equal_to<void*>, std::__ndk1::hash<void*>, true>, std::__ndk1::allocator<std::__ndk1::__hash_value_type<void*, bool> > >::__emplace_unique_key_args<void*, std::__ndk1::piecewise_construct_t const&, std::__ndk1::tuple<void* const&>, std::__ndk1::tuple<> >(void* const&, std::__ndk1::piecewise_construct_t const&, std::__ndk1::tuple<void* const&>, std::__ndk1::tuple<>)
PUBLIC 35c60 0 __udivti3
PUBLIC 35c6c 0 __udivmodti4
PUBLIC m 35eb8 0 __eqtf2
PUBLIC 35f58 0 __unordtf2
FUNC 35f90 294 0 fmt::v11::detail::write_loc(fmt::v11::basic_appender<char>, fmt::v11::loc_value, fmt::v11::format_specs const&, fmt::v11::detail::locale_ref)
FUNC 36224 70 0 fmt::v11::format_facet<std::__ndk1::locale>::~format_facet()
FUNC 36294 50 0 fmt::v11::report_error(char const*)
FUNC 362e4 2c 0 fmt::v11::format_error::runtime_error(char const*)
FUNC 36310 750 0 fmt::v11::format_facet<std::__ndk1::locale>::do_put(fmt::v11::basic_appender<char>, fmt::v11::loc_value, fmt::v11::format_specs const&) const
FUNC 36a60 64 0 fmt::v11::detail::loc_writer<char>::~loc_writer()
FUNC 36ac4 12c 0 fmt::v11::vformat(fmt::v11::basic_string_view<char>, fmt::v11::basic_format_args<fmt::v11::context>)
FUNC 36bf0 3c8 0 fmt::v11::detail::vformat_to<char>(fmt::v11::detail::buffer<char>&, fmt::v11::basic_string_view<char>, fmt::v11::detail::vformat_args<char>::type, fmt::v11::detail::locale_ref)
FUNC 36fb8 228 0 fmt::v11::detail::is_printable(unsigned int)
FUNC 371e0 2b4 0 fmt::v11::detail::dragonbox::to_decimal<float>(float)
FUNC 37494 530 0 fmt::v11::detail::dragonbox::to_decimal<double>(double)
FUNC 379c4 78 0 fmt::v11::basic_memory_buffer<char, (unsigned long)500, std::__ndk1::allocator<char> >::grow(fmt::v11::detail::buffer<char>&, unsigned long)
FUNC 37a3c 78 0 fmt::v11::format_facet<std::__ndk1::locale>::~format_facet()
FUNC 37ab4 24 0 fmt::v11::format_error::~format_error()
FUNC 37ad8 150 0 fmt::v11::detail::copy_noinline<char, char const*, fmt::v11::basic_appender<char> >(char const*, char const*, fmt::v11::basic_appender<char>)
FUNC 37c28 6c 0 fmt::v11::detail::default_arg_formatter<char>::operator()<bool>(bool)
FUNC 37c94 74 0 fmt::v11::detail::default_arg_formatter<char>::operator()<char>(char)
FUNC 37d08 f0 0 fmt::v11::detail::default_arg_formatter<char>::operator()<float>(float)
FUNC 37df8 f0 0 fmt::v11::detail::default_arg_formatter<char>::operator()<double>(double)
FUNC 37ee8 48 0 fmt::v11::detail::default_arg_formatter<char>::operator()<char const*>(char const*)
FUNC 37f30 9c 0 fmt::v11::detail::default_arg_formatter<char>::operator()<void const*>(void const*)
FUNC 37fcc 220 0 _ZN3fmt3v116detail5writeIcNS0_14basic_appenderIcEEiTnNSt6__ndk19enable_ifIXaaaasr11is_integralIT1_EE5valuentsr3std7is_sameIS7_bEE5valuentsr3std7is_sameIS7_T_EE5valueEiE4typeELi0EEET0_SB_S7_
FUNC 381ec 150 0 fmt::v11::detail::copy_noinline<char, char*, fmt::v11::basic_appender<char> >(char*, char*, fmt::v11::basic_appender<char>)
FUNC 3833c 1c4 0 _ZN3fmt3v116detail5writeIcNS0_14basic_appenderIcEEjTnNSt6__ndk19enable_ifIXaaaasr11is_integralIT1_EE5valuentsr3std7is_sameIS7_bEE5valuentsr3std7is_sameIS7_T_EE5valueEiE4typeELi0EEET0_SB_S7_
FUNC 38500 244 0 _ZN3fmt3v116detail5writeIcNS0_14basic_appenderIcEExTnNSt6__ndk19enable_ifIXaaaasr11is_integralIT1_EE5valuentsr3std7is_sameIS7_bEE5valuentsr3std7is_sameIS7_T_EE5valueEiE4typeELi0EEET0_SB_S7_
FUNC 38744 1ec 0 _ZN3fmt3v116detail5writeIcNS0_14basic_appenderIcEEyTnNSt6__ndk19enable_ifIXaaaasr11is_integralIT1_EE5valuentsr3std7is_sameIS7_bEE5valuentsr3std7is_sameIS7_T_EE5valueEiE4typeELi0EEET0_SB_S7_
FUNC 38930 304 0 _ZN3fmt3v116detail5writeIcNS0_14basic_appenderIcEEnTnNSt6__ndk19enable_ifIXaaaasr11is_integralIT1_EE5valuentsr3std7is_sameIS7_bEE5valuentsr3std7is_sameIS7_T_EE5valueEiE4typeELi0EEET0_SB_S7_
FUNC 38c34 2a4 0 _ZN3fmt3v116detail5writeIcNS0_14basic_appenderIcEEoTnNSt6__ndk19enable_ifIXaaaasr11is_integralIT1_EE5valuentsr3std7is_sameIS7_bEE5valuentsr3std7is_sameIS7_T_EE5valueEiE4typeELi0EEET0_SB_S7_
FUNC 38ed8 290 0 _ZN3fmt3v116detail5writeIcNS0_14basic_appenderIcEEbTnNSt6__ndk19enable_ifIXsr3std7is_sameIT1_bEE5valueEiE4typeELi0EEET0_SA_S7_RKNS0_12format_specsENS1_10locale_refE
FUNC 39168 dc0 0 fmt::v11::detail::write_int_noinline<char, fmt::v11::basic_appender<char>, unsigned int>(fmt::v11::basic_appender<char>, fmt::v11::detail::write_int_arg<unsigned int>, fmt::v11::format_specs const&, fmt::v11::detail::locale_ref)
FUNC 39f28 1d0 0 fmt::v11::detail::fill<char, fmt::v11::basic_appender<char> >(fmt::v11::basic_appender<char>, unsigned long, fmt::v11::detail::fill_t const&)
FUNC 3a0f8 22c 0 fmt::v11::detail::write_padded<char, (fmt::v11::align::type)1, fmt::v11::basic_appender<char>, fmt::v11::detail::write_char<char, fmt::v11::basic_appender<char> >(fmt::v11::basic_appender<char>, char, fmt::v11::format_specs const&)::{lambda(fmt::v11::basic_appender<char>&)#1}>(fmt::v11::basic_appender<char>, fmt::v11::format_specs const&, unsigned long, unsigned long, fmt::v11::detail::write_char<char, fmt::v11::basic_appender<char> >(fmt::v11::basic_appender<char>, char, fmt::v11::format_specs const&)::{lambda(fmt::v11::basic_appender<char>&)#1})
FUNC 3a324 30c 0 fmt::v11::detail::write_escaped_cp<fmt::v11::basic_appender<char>, char>(fmt::v11::basic_appender<char>, fmt::v11::detail::find_escape_result<char> const&)
FUNC 3a630 178 0 fmt::v11::detail::write_codepoint<(unsigned long)2, char, fmt::v11::basic_appender<char> >(fmt::v11::basic_appender<char>, char, unsigned int)
FUNC 3a7a8 178 0 fmt::v11::detail::write_codepoint<(unsigned long)8, char, fmt::v11::basic_appender<char> >(fmt::v11::basic_appender<char>, char, unsigned int)
FUNC 3a920 240 0 fmt::v11::detail::write_padded<char, (fmt::v11::align::type)1, fmt::v11::basic_appender<char>, fmt::v11::detail::write_nonfinite<char, fmt::v11::basic_appender<char> >(fmt::v11::basic_appender<char>, bool, fmt::v11::format_specs, fmt::v11::sign::type)::{lambda(fmt::v11::basic_appender<char>&)#1}>(fmt::v11::basic_appender<char>, fmt::v11::format_specs const&, unsigned long, unsigned long, fmt::v11::detail::write_nonfinite<char, fmt::v11::basic_appender<char> >(fmt::v11::basic_appender<char>, bool, fmt::v11::format_specs, fmt::v11::sign::type)::{lambda(fmt::v11::basic_appender<char>&)#1})
FUNC 3ab60 c2c 0 fmt::v11::detail::do_write_float<char, fmt::v11::basic_appender<char>, fmt::v11::detail::dragonbox::decimal_fp<float>, fmt::v11::detail::digit_grouping<char> >(fmt::v11::basic_appender<char>, fmt::v11::detail::dragonbox::decimal_fp<float> const&, fmt::v11::format_specs const&, fmt::v11::detail::float_specs, fmt::v11::detail::locale_ref)
FUNC 3b78c 154 0 fmt::v11::detail::do_write_float<char, fmt::v11::basic_appender<char>, fmt::v11::detail::dragonbox::decimal_fp<float>, fmt::v11::detail::digit_grouping<char> >(fmt::v11::basic_appender<char>, fmt::v11::detail::dragonbox::decimal_fp<float> const&, fmt::v11::format_specs const&, fmt::v11::detail::float_specs, fmt::v11::detail::locale_ref)::{lambda(fmt::v11::basic_appender<char>(fmt::v11::basic_appender<char>))#1}::operator() const
FUNC 3b8e0 238 0 fmt::v11::detail::digit_grouping<char>::digit_grouping(fmt::v11::detail::locale_ref, bool)
FUNC 3bb18 44 0 fmt::v11::detail::digit_grouping<char>::~digit_grouping()
FUNC 3bb5c 1a4 0 fmt::v11::detail::write_exponent<char, fmt::v11::basic_appender<char> >(int, fmt::v11::basic_appender<char>)
FUNC 3bd00 17c 0 _ZN3fmt3v116detail17write_significandIcjTnNSt6__ndk19enable_ifIXsr3std11is_integralIT0_EE5valueEiE4typeELi0EEEPT_S9_S5_iiS8_
FUNC 3be7c 3a4 0 fmt::v11::detail::digit_grouping<char>::apply<fmt::v11::basic_appender<char>, char>(fmt::v11::basic_appender<char>, fmt::v11::basic_string_view<char>) const
FUNC 3c220 a0 0 fmt::v11::basic_memory_buffer<int, (unsigned long)500, std::__ndk1::allocator<int> >::grow(fmt::v11::detail::buffer<int>&, unsigned long)
FUNC 3c2c0 c6c 0 fmt::v11::detail::do_write_float<char, fmt::v11::basic_appender<char>, fmt::v11::detail::dragonbox::decimal_fp<double>, fmt::v11::detail::digit_grouping<char> >(fmt::v11::basic_appender<char>, fmt::v11::detail::dragonbox::decimal_fp<double> const&, fmt::v11::format_specs const&, fmt::v11::detail::float_specs, fmt::v11::detail::locale_ref)
FUNC 3cf2c 158 0 fmt::v11::detail::do_write_float<char, fmt::v11::basic_appender<char>, fmt::v11::detail::dragonbox::decimal_fp<double>, fmt::v11::detail::digit_grouping<char> >(fmt::v11::basic_appender<char>, fmt::v11::detail::dragonbox::decimal_fp<double> const&, fmt::v11::format_specs const&, fmt::v11::detail::float_specs, fmt::v11::detail::locale_ref)::{lambda(fmt::v11::basic_appender<char>(fmt::v11::basic_appender<char>))#1}::operator() const
FUNC 3d084 190 0 _ZN3fmt3v116detail17write_significandIcmTnNSt6__ndk19enable_ifIXsr3std11is_integralIT0_EE5valueEiE4typeELi0EEEPT_S9_S5_iiS8_
FUNC 3d214 ad4 0 fmt::v11::detail::write_float<char, fmt::v11::basic_appender<char>, long double>(fmt::v11::basic_appender<char>, long double, fmt::v11::format_specs, fmt::v11::detail::locale_ref)
FUNC 3dce8 1dc 0 fmt::v11::detail::write_padded<char, (fmt::v11::align::type)2, fmt::v11::basic_appender<char>, fmt::v11::detail::write_bytes<char, (fmt::v11::align::type)2, fmt::v11::basic_appender<char> >(fmt::v11::basic_appender<char>, fmt::v11::basic_string_view<char>, fmt::v11::format_specs const&)::{lambda(fmt::v11::basic_appender<char>&)#1}>(fmt::v11::basic_appender<char>, fmt::v11::format_specs const&, unsigned long, unsigned long, fmt::v11::detail::write_bytes<char, (fmt::v11::align::type)2, fmt::v11::basic_appender<char> >(fmt::v11::basic_appender<char>, fmt::v11::basic_string_view<char>, fmt::v11::format_specs const&)::{lambda(fmt::v11::basic_appender<char>&)#1})
FUNC 3dec4 1350 0 fmt::v11::detail::format_dragon(fmt::v11::detail::basic_fp<unsigned __int128>, unsigned int, int, fmt::v11::detail::buffer<char>&, int&)
FUNC 3f214 124 0 fmt::v11::detail::bigint::operator<<=(int)
FUNC 3f338 744 0 fmt::v11::detail::bigint::assign_pow10(int)
FUNC 3fa7c 2f4 0 fmt::v11::detail::bigint::divmod_assign(fmt::v11::detail::bigint const&)
FUNC 3fd70 a0 0 fmt::v11::basic_memory_buffer<unsigned int, (unsigned long)32, std::__ndk1::allocator<unsigned int> >::grow(fmt::v11::detail::buffer<unsigned int>&, unsigned long)
FUNC 3fe10 e84 0 fmt::v11::detail::do_write_float<char, fmt::v11::basic_appender<char>, fmt::v11::detail::big_decimal_fp, fmt::v11::detail::digit_grouping<char> >(fmt::v11::basic_appender<char>, fmt::v11::detail::big_decimal_fp const&, fmt::v11::format_specs const&, fmt::v11::detail::float_specs, fmt::v11::detail::locale_ref)
FUNC 40c94 160 0 fmt::v11::detail::do_write_float<char, fmt::v11::basic_appender<char>, fmt::v11::detail::big_decimal_fp, fmt::v11::detail::digit_grouping<char> >(fmt::v11::basic_appender<char>, fmt::v11::detail::big_decimal_fp const&, fmt::v11::format_specs const&, fmt::v11::detail::float_specs, fmt::v11::detail::locale_ref)::{lambda(fmt::v11::basic_appender<char>(fmt::v11::basic_appender<char>))#1}::operator() const
FUNC 40df4 214 0 fmt::v11::detail::write_padded<char, (fmt::v11::align::type)2, fmt::v11::basic_appender<char>, fmt::v11::detail::write_ptr<char, fmt::v11::basic_appender<char>, unsigned long>(fmt::v11::basic_appender<char>, unsigned long, fmt::v11::format_specs const*)::{lambda(fmt::v11::basic_appender<char>&)#1}>(fmt::v11::basic_appender<char>, fmt::v11::format_specs const&, unsigned long, unsigned long, fmt::v11::detail::write_ptr<char, fmt::v11::basic_appender<char>, unsigned long>(fmt::v11::basic_appender<char>, unsigned long, fmt::v11::format_specs const*)::{lambda(fmt::v11::basic_appender<char>&)#1})
FUNC 41008 1c3c 0 fmt::v11::detail::parse_replacement_field<char, fmt::v11::detail::vformat_to<char>(fmt::v11::detail::buffer<char>&, fmt::v11::basic_string_view<char>, fmt::v11::detail::vformat_args<char>::type, fmt::v11::detail::locale_ref)::format_handler&>(char const*, char const*, fmt::v11::detail::vformat_to<char>(fmt::v11::detail::buffer<char>&, fmt::v11::basic_string_view<char>, fmt::v11::detail::vformat_args<char>::type, fmt::v11::detail::locale_ref)::format_handler&)
FUNC 42c44 288 0 fmt::v11::detail::parse_dynamic_spec<char>(char const*, char const*, int&, fmt::v11::detail::arg_ref<char>&, fmt::v11::basic_format_parse_context<char>&)
FUNC 42ecc 158 0 fmt::v11::basic_format_args<fmt::v11::context>::get<char>(fmt::v11::basic_string_view<char>) const
FUNC 43024 e24 0 fmt::v11::detail::write_int_noinline<char, fmt::v11::basic_appender<char>, unsigned long>(fmt::v11::basic_appender<char>, fmt::v11::detail::write_int_arg<unsigned long>, fmt::v11::format_specs const&, fmt::v11::detail::locale_ref)
FUNC 43e48 fc8 0 fmt::v11::detail::write_int_noinline<char, fmt::v11::basic_appender<char>, unsigned __int128>(fmt::v11::basic_appender<char>, fmt::v11::detail::write_int_arg<unsigned __int128>, fmt::v11::format_specs const&, fmt::v11::detail::locale_ref)
FUNC 44e10 510 0 _ZN3fmt3v116detail15format_hexfloatIdTnNSt6__ndk19enable_ifIXntsr16is_double_doubleIT_EE5valueEiE4typeELi0EEEvS5_NS0_12format_specsERNS1_6bufferIcEE
FUNC 45320 98c 0 fmt::v11::detail::format_float<double>(double, int, fmt::v11::detail::float_specs, fmt::v11::detail::buffer<char>&)
FUNC 45cac cb8 0 fmt::v11::detail::write<char, fmt::v11::basic_appender<char> >(fmt::v11::basic_appender<char>, fmt::v11::basic_string_view<char>, fmt::v11::format_specs const&)
FUNC 46964 17c 0 fmt::v11::detail::for_each_codepoint<fmt::v11::detail::find_escape(char const*, char const*)::{lambda(unsigned int, fmt::v11::basic_string_view<char>)#1}>(fmt::v11::basic_string_view<char>, fmt::v11::detail::find_escape(char const*, char const*)::{lambda(unsigned int, fmt::v11::basic_string_view<char>)#1})::{lambda(char const*, char const*)#1}::operator()(char const*, char const*) const
FUNC 46ae0 1b8 0 fmt::v11::detail::for_each_codepoint<fmt::v11::detail::compute_width(fmt::v11::basic_string_view<char>)::count_code_points>(fmt::v11::basic_string_view<char>, fmt::v11::detail::compute_width(fmt::v11::basic_string_view<char>)::count_code_points)::{lambda(char const*, char const*)#1}::operator()(char const*, char const*) const
FUNC 46c98 570 0 fmt::v11::detail::write_int<fmt::v11::basic_appender<char>, unsigned long, char>(fmt::v11::basic_appender<char>, unsigned long, unsigned int, fmt::v11::format_specs const&, fmt::v11::detail::digit_grouping<char> const&)
FUNC 47208 664 0 fmt::v11::detail::write_int<fmt::v11::basic_appender<char>, unsigned __int128, char>(fmt::v11::basic_appender<char>, unsigned __int128, unsigned int, fmt::v11::format_specs const&, fmt::v11::detail::digit_grouping<char> const&)
PUBLIC 47870 0 <.plt ELF section in weebify.high-graphics-android.android64.so>
STACK CFI INIT 1f310 10 .cfa: sp 0 +
STACK CFI INIT 1f320 8 .cfa: sp 0 +
STACK CFI INIT 1f328 8 .cfa: sp 0 +
STACK CFI INIT 1f330 14 .cfa: sp 0 +
STACK CFI INIT 1f344 1c .cfa: sp 0 +
STACK CFI INIT 1f360 10 .cfa: sp 0 +
STACK CFI INIT 1f370 134 .cfa: sp 0 +
STACK CFI INIT 1f4a4 84 .cfa: sp 0 +
STACK CFI INIT 1f528 f4 .cfa: sp 0 +
STACK CFI INIT 1f61c a8 .cfa: sp 0 +
STACK CFI INIT 1f6c4 7c .cfa: sp 0 +
STACK CFI INIT 1f740 14 .cfa: sp 0 +
STACK CFI INIT 1f754 40 .cfa: sp 0 +
STACK CFI INIT 1f794 28 .cfa: sp 0 +
STACK CFI INIT 1f7bc 190 .cfa: sp 0 +
STACK CFI INIT 1f94c 2c8 .cfa: sp 0 +
STACK CFI INIT 1fc14 8 .cfa: sp 0 +
STACK CFI INIT 1fc1c 8 .cfa: sp 0 +
STACK CFI INIT 1fc24 44 .cfa: sp 0 +
STACK CFI INIT 1fc68 e8 .cfa: sp 0 +
STACK CFI INIT 1fd50 e8 .cfa: sp 0 +
STACK CFI INIT 1fe38 14 .cfa: sp 0 +
STACK CFI INIT 1fe4c 10 .cfa: sp 0 +
STACK CFI INIT 1fe5c 10 .cfa: sp 0 +
STACK CFI INIT 1fe6c f0 .cfa: sp 0 +
STACK CFI INIT 1ff5c 44 .cfa: sp 0 +
STACK CFI INIT 1ffa0 c .cfa: sp 0 +
STACK CFI INIT 1ffac c .cfa: sp 0 +
STACK CFI INIT 1ffb8 2c .cfa: sp 0 +
STACK CFI INIT 1ffe4 280 .cfa: sp 0 +
STACK CFI INIT 20264 c .cfa: sp 0 +
STACK CFI INIT 20270 120 .cfa: sp 0 +
STACK CFI INIT 20390 488 .cfa: sp 0 +
STACK CFI INIT 20818 c48 .cfa: sp 0 +
STACK CFI INIT 21460 134 .cfa: sp 0 +
STACK CFI INIT 21594 210 .cfa: sp 0 +
STACK CFI INIT 217a4 38c .cfa: sp 0 +
STACK CFI INIT 21b30 1c8 .cfa: sp 0 +
STACK CFI INIT 21cf8 9bc .cfa: sp 0 +
STACK CFI INIT 226b4 2d4 .cfa: sp 0 +
STACK CFI INIT 22988 134 .cfa: sp 0 +
STACK CFI INIT 22abc 120 .cfa: sp 0 +
STACK CFI INIT 22bdc 1c8 .cfa: sp 0 +
STACK CFI INIT 22da4 168 .cfa: sp 0 +
STACK CFI INIT 22f0c fc .cfa: sp 0 +
STACK CFI INIT 23008 30 .cfa: sp 0 +
STACK CFI INIT 23170 30 .cfa: sp 0 +
STACK CFI INIT 231a0 98 .cfa: sp 0 +
STACK CFI INIT 23238 59c .cfa: sp 0 +
STACK CFI INIT 237d4 8c .cfa: sp 0 +
STACK CFI INIT 23860 30 .cfa: sp 0 +
STACK CFI INIT 23c90 64 .cfa: sp 0 +
STACK CFI 23c94 .cfa: sp 32 +
STACK CFI 23c9c .cfa: x29 32 + x19: .cfa -16 + ^ .ra: .cfa -24 + ^ x29: .cfa -32 + ^
STACK CFI 23cb8 .cfa: sp 32 +
STACK CFI 23cc0 .cfa: sp 0 +
STACK CFI 23cc4 .cfa: x29 32 +
STACK CFI 23ce8 .cfa: sp 32 +
STACK CFI 23cf0 .cfa: sp 0 +
STACK CFI INIT 23cf4 44 .cfa: sp 0 +
STACK CFI 23cf8 .cfa: sp 32 +
STACK CFI 23d00 .cfa: x29 32 + x19: .cfa -16 + ^ .ra: .cfa -24 + ^ x29: .cfa -32 + ^
STACK CFI 23d1c .cfa: sp 32 +
STACK CFI 23d24 .cfa: sp 0 +
STACK CFI 23d28 .cfa: x29 32 +
STACK CFI 23d2c .cfa: sp 32 +
STACK CFI 23d34 .cfa: sp 0 +
STACK CFI INIT 23d38 8 .cfa: sp 0 +
STACK CFI INIT 23e40 40 .cfa: sp 0 +
STACK CFI 23e44 .cfa: sp 32 +
STACK CFI 23e4c .cfa: x29 32 + x19: .cfa -16 + ^ .ra: .cfa -24 + ^ x29: .cfa -32 + ^
STACK CFI 23e64 .cfa: sp 32 +
STACK CFI 23e6c .cfa: sp 0 +
STACK CFI 23e70 .cfa: x29 32 +
STACK CFI 23e74 .cfa: sp 32 +
STACK CFI 23e7c .cfa: sp 0 +
STACK CFI INIT 23e80 50 .cfa: sp 0 +
STACK CFI 23e84 .cfa: sp 32 +
STACK CFI 23e8c .cfa: x29 32 + x19: .cfa -16 + ^ .ra: .cfa -24 + ^ x29: .cfa -32 + ^
STACK CFI 23ea4 .cfa: sp 32 +
STACK CFI 23eac .cfa: sp 0 +
STACK CFI 23eb0 .cfa: x29 32 +
STACK CFI 23ec4 .cfa: sp 32 +
STACK CFI 23ecc .cfa: sp 0 +
STACK CFI INIT 248c0 14 .cfa: sp 0 +
STACK CFI 248c4 .cfa: sp 16 +
STACK CFI 248c8 .cfa: x29 16 + .ra: .cfa -8 + ^ x29: .cfa -16 + ^
STACK CFI INIT 24924 30 .cfa: sp 0 +
STACK CFI 24928 .cfa: sp 32 +
STACK CFI 24930 .cfa: x29 32 + x19: .cfa -16 + ^ .ra: .cfa -24 + ^ x29: .cfa -32 + ^
STACK CFI 24948 .cfa: sp 32 +
STACK CFI 24950 .cfa: sp 0 +
STACK CFI INIT 24954 70 .cfa: sp 0 +
STACK CFI 24958 .cfa: sp 48 +
STACK CFI 24964 .cfa: x29 48 + x19: .cfa -8 + ^ x20: .cfa -16 + ^ x21: .cfa -24 + ^ x22: .cfa -32 + ^ .ra: .cfa -40 + ^ x29: .cfa -48 + ^
STACK CFI 249ac .cfa: sp 48 +
STACK CFI 249b8 .cfa: sp 0 +
STACK CFI 249bc .cfa: x29 48 +
STACK CFI INIT 24d30 50 .cfa: sp 0 +
STACK CFI 24d54 .cfa: sp 32 +
STACK CFI 24d5c .cfa: x29 32 + x19: .cfa -16 + ^ .ra: .cfa -24 + ^ x29: .cfa -32 + ^
STACK CFI 24d70 .cfa: sp 32 +
STACK CFI 24d78 .cfa: sp 0 +
STACK CFI INIT 24d80 104 .cfa: sp 0 +
STACK CFI 24d84 .cfa: sp 80 +
STACK CFI 24d98 .cfa: x29 80 + x19: .cfa -8 + ^ x20: .cfa -16 + ^ x21: .cfa -24 + ^ x22: .cfa -32 + ^ x23: .cfa -40 + ^ x24: .cfa -48 + ^ x25: .cfa -56 + ^ x26: .cfa -64 + ^ .ra: .cfa -72 + ^ x29: .cfa -80 + ^
STACK CFI 24e6c .cfa: sp 80 +
STACK CFI 24e80 .cfa: sp 0 +
STACK CFI INIT 24e84 19c .cfa: sp 0 +
STACK CFI INIT 25020 50 .cfa: sp 0 +
STACK CFI 25028 .cfa: sp 32 +
STACK CFI 25030 .cfa: x29 32 + x19: .cfa -8 + ^ x20: .cfa -16 + ^ .ra: .cfa -24 + ^ x29: .cfa -32 + ^
STACK CFI 25060 .cfa: sp 32 +
STACK CFI 25068 .cfa: sp 0 +
STACK CFI INIT 25070 c4 .cfa: sp 0 +
STACK CFI 25074 .cfa: sp 32 +
STACK CFI 2507c .cfa: x29 32 + x19: .cfa -8 + ^ x20: .cfa -16 + ^ .ra: .cfa -24 + ^ x29: .cfa -32 + ^
STACK CFI 25128 .cfa: sp 32 +
STACK CFI 25130 .cfa: sp 0 +
STACK CFI INIT 25134 ac .cfa: sp 0 +
STACK CFI 25138 .cfa: sp 64 +
STACK CFI 25148 .cfa: x29 64 + x19: .cfa -8 + ^ x20: .cfa -16 + ^ x21: .cfa -24 + ^ x22: .cfa -32 + ^ x23: .cfa -48 + ^ .ra: .cfa -56 + ^ x29: .cfa -64 + ^
STACK CFI 251c4 .cfa: sp 64 +
STACK CFI 251d4 .cfa: sp 0 +
STACK CFI 251d8 .cfa: x29 64 +
STACK CFI INIT 251e0 100 .cfa: sp 0 +
STACK CFI 251e4 .cfa: sp 64 +
STACK CFI 251f4 .cfa: x29 64 + x19: .cfa -8 + ^ x20: .cfa -16 + ^ x21: .cfa -24 + ^ x22: .cfa -32 + ^ x23: .cfa -40 + ^ x24: .cfa -48 + ^ .ra: .cfa -56 + ^ x29: .cfa -64 + ^
STACK CFI 252c4 .cfa: sp 64 +
STACK CFI 252d4 .cfa: sp 0 +
STACK CFI 252d8 .cfa: x29 64 +
STACK CFI INIT 253e8 29c .cfa: sp 0 +
STACK CFI 253ec .cfa: sp 112 +
STACK CFI 25408 .cfa: x29 96 + x19: .cfa -8 + ^ x20: .cfa -16 + ^ x21: .cfa -24 + ^ x22: .cfa -32 + ^ x23: .cfa -40 + ^ x24: .cfa -48 + ^ x25: .cfa -56 + ^ x26: .cfa -64 + ^ x27: .cfa -72 + ^ x28: .cfa -80 + ^ .ra: .cfa -88 + ^ x29: .cfa -96 + ^
STACK CFI 2562c .cfa: sp 112 +
STACK CFI 25648 .cfa: sp 0 +
STACK CFI 2564c .cfa: x29 96 +
STACK CFI 25658 .cfa: sp 112 +
STACK CFI 25674 .cfa: sp 0 +
STACK CFI 25678 .cfa: x29 96 +
STACK CFI INIT 25684 80 .cfa: sp 0 +
STACK CFI 25688 .cfa: sp 32 +
STACK CFI 25690 .cfa: x29 32 + x19: .cfa -16 + ^ .ra: .cfa -24 + ^ x29: .cfa -32 + ^
STACK CFI 256c8 .cfa: sp 32 +
STACK CFI 256d0 .cfa: sp 0 +
STACK CFI 256d4 .cfa: sp 32 +
STACK CFI 256dc .cfa: sp 0 +
STACK CFI 256e0 .cfa: x29 32 +
STACK CFI INIT 25704 104 .cfa: sp 0 +
STACK CFI 25708 .cfa: sp 80 +
STACK CFI 2571c .cfa: x29 80 + x19: .cfa -8 + ^ x20: .cfa -16 + ^ x21: .cfa -24 + ^ x22: .cfa -32 + ^ x23: .cfa -40 + ^ x24: .cfa -48 + ^ x25: .cfa -56 + ^ x26: .cfa -64 + ^ .ra: .cfa -72 + ^ x29: .cfa -80 + ^
STACK CFI 257f0 .cfa: sp 80 +
STACK CFI 25804 .cfa: sp 0 +
STACK CFI INIT 258f4 84 .cfa: sp 0 +
STACK CFI 258fc .cfa: sp 32 +
STACK CFI 25904 .cfa: x29 32 + x19: .cfa -8 + ^ x20: .cfa -16 + ^ .ra: .cfa -24 + ^ x29: .cfa -32 + ^
STACK CFI 25944 .cfa: sp 32 +
STACK CFI 2594c .cfa: sp 0 +
STACK CFI 25954 .cfa: x29 32 +
STACK CFI INIT 25c64 34 .cfa: sp 0 +
STACK CFI 25c68 .cfa: sp 16 +
STACK CFI 25c6c .cfa: x29 16 + .ra: .cfa -8 + ^ x29: .cfa -16 + ^
STACK CFI INIT 25c98 4 .cfa: sp 0 +
STACK CFI INIT 25e10 5c .cfa: sp 0 +
STACK CFI 25e14 .cfa: sp 32 +
STACK CFI 25e1c .cfa: x29 32 + x19: .cfa -16 + ^ .ra: .cfa -24 + ^ x29: .cfa -32 + ^
STACK CFI 25e60 .cfa: sp 32 +
STACK CFI 25e68 .cfa: sp 0 +
STACK CFI INIT 25e6c 64 .cfa: sp 0 +
STACK CFI 25e70 .cfa: sp 32 +
STACK CFI 25e78 .cfa: x29 32 + x19: .cfa -16 + ^ .ra: .cfa -24 + ^ x29: .cfa -32 + ^
STACK CFI 25ec4 .cfa: sp 32 +
STACK CFI 25ecc .cfa: sp 0 +
STACK CFI INIT 25ed0 4 .cfa: sp 0 +
STACK CFI INIT 25ed4 4 .cfa: sp 0 +
STACK CFI INIT 25ed8 34 .cfa: sp 0 +
STACK CFI 25edc .cfa: sp 32 +
STACK CFI 25ee4 .cfa: x29 32 + x19: .cfa -16 + ^ .ra: .cfa -24 + ^ x29: .cfa -32 + ^
STACK CFI 25f00 .cfa: sp 32 +
STACK CFI 25f08 .cfa: sp 0 +
STACK CFI INIT 25f0c 14 .cfa: sp 0 +
STACK CFI INIT 25f20 4 .cfa: sp 0 +
STACK CFI INIT 25f24 4 .cfa: sp 0 +
STACK CFI INIT 25f28 10 .cfa: sp 0 +
STACK CFI INIT 25f38 1c .cfa: sp 0 +
STACK CFI INIT 25f54 c .cfa: sp 0 +
STACK CFI INIT 25f60 e4 .cfa: sp 0 +
STACK CFI 25f64 .cfa: sp 64 +
STACK CFI 25f74 .cfa: x29 64 + x19: .cfa -8 + ^ x20: .cfa -16 + ^ x21: .cfa -24 + ^ x22: .cfa -32 + ^ x23: .cfa -48 + ^ .ra: .cfa -56 + ^ x29: .cfa -64 + ^
STACK CFI 25fec .cfa: sp 64 +
STACK CFI 25ffc .cfa: sp 0 +
STACK CFI 26000 .cfa: x29 64 +
STACK CFI INIT 26170 18c .cfa: sp 0 +
STACK CFI 26174 .cfa: sp 112 +
STACK CFI 26190 .cfa: x29 80 + x19: .cfa -8 + ^ x20: .cfa -16 + ^ x21: .cfa -24 + ^ x22: .cfa -32 + ^ x23: .cfa -40 + ^ x24: .cfa -48 + ^ x25: .cfa -64 + ^ .ra: .cfa -72 + ^ x29: .cfa -80 + ^ v8: .cfa -88 + ^ v9: .cfa -96 + ^
STACK CFI 262d8 .cfa: sp 112 +
STACK CFI 262f4 .cfa: sp 0 +
STACK CFI 262f8 .cfa: x29 80 +
STACK CFI INIT 262fc b8 .cfa: sp 0 +
STACK CFI 26300 .cfa: sp 48 +
STACK CFI 2630c .cfa: x29 32 + x19: .cfa -8 + ^ x20: .cfa -16 + ^ .ra: .cfa -24 + ^ x29: .cfa -32 + ^
STACK CFI 26380 .cfa: sp 48 +
STACK CFI 2638c .cfa: sp 0 +
STACK CFI 26390 .cfa: x29 32 +
STACK CFI 263a0 .cfa: sp 48 +
STACK CFI 263ac .cfa: sp 0 +
STACK CFI 263b0 .cfa: x29 32 +
STACK CFI INIT 26484 28 .cfa: sp 0 +
STACK CFI INIT 264ac bc .cfa: sp 0 +
STACK CFI 264b0 .cfa: sp 48 +
STACK CFI 264bc .cfa: x29 32 + x19: .cfa -8 + ^ x20: .cfa -16 + ^ .ra: .cfa -24 + ^ x29: .cfa -32 + ^
STACK CFI 26530 .cfa: sp 48 +
STACK CFI 2653c .cfa: sp 0 +
STACK CFI 26540 .cfa: x29 32 +
STACK CFI 26554 .cfa: sp 48 +
STACK CFI 26560 .cfa: sp 0 +
STACK CFI 26564 .cfa: x29 32 +
STACK CFI INIT 27414 4 .cfa: sp 0 +
STACK CFI INIT 27ae8 74 .cfa: sp 0 +
STACK CFI 27aec .cfa: sp 48 +
STACK CFI 27af8 .cfa: x29 32 + x19: .cfa -8 + ^ x20: .cfa -16 + ^ .ra: .cfa -24 + ^ x29: .cfa -32 + ^
STACK CFI 27b48 .cfa: sp 48 +
STACK CFI 27b54 .cfa: sp 0 +
STACK CFI 27b58 .cfa: x29 32 +
STACK CFI INIT 27b5c 58 .cfa: sp 0 +
STACK CFI 27b60 .cfa: sp 32 +
STACK CFI 27b68 .cfa: x29 32 + x19: .cfa -16 + ^ .ra: .cfa -24 + ^ x29: .cfa -32 + ^
STACK CFI 27ba8 .cfa: sp 32 +
STACK CFI 27bb0 .cfa: sp 0 +
STACK CFI INIT 28f7c 44 .cfa: sp 0 +
STACK CFI 28f80 .cfa: sp 32 +
STACK CFI 28f88 .cfa: x29 32 + x19: .cfa -16 + ^ .ra: .cfa -24 + ^ x29: .cfa -32 + ^
STACK CFI 28fa4 .cfa: sp 32 +
STACK CFI 28fac .cfa: sp 0 +
STACK CFI 28fb0 .cfa: x29 32 +
STACK CFI 28fb4 .cfa: sp 32 +
STACK CFI 28fbc .cfa: sp 0 +
STACK CFI INIT 28fc0 50 .cfa: sp 0 +
STACK CFI 28fc4 .cfa: sp 32 +
STACK CFI 28fcc .cfa: x29 32 + x19: .cfa -16 + ^ .ra: .cfa -24 + ^ x29: .cfa -32 + ^
STACK CFI 28fe4 .cfa: sp 32 +
STACK CFI 28fec .cfa: sp 0 +
STACK CFI 28ff0 .cfa: x29 32 +
STACK CFI 29004 .cfa: sp 32 +
STACK CFI 2900c .cfa: sp 0 +
STACK CFI INIT 29010 50 .cfa: sp 0 +
STACK CFI 29014 .cfa: sp 32 +
STACK CFI 2901c .cfa: x29 32 + x19: .cfa -16 + ^ .ra: .cfa -24 + ^ x29: .cfa -32 + ^
STACK CFI 29034 .cfa: sp 32 +
STACK CFI 2903c .cfa: sp 0 +
STACK CFI 29040 .cfa: x29 32 +
STACK CFI 29054 .cfa: sp 32 +
STACK CFI 2905c .cfa: sp 0 +
STACK CFI INIT 29584 8 .cfa: sp 0 +
STACK CFI INIT 2972c 24 .cfa: sp 0 +
STACK CFI 29730 .cfa: sp 32 +
STACK CFI 29738 .cfa: x29 32 + x19: .cfa -16 + ^ .ra: .cfa -24 + ^ x29: .cfa -32 + ^
STACK CFI 29744 .cfa: sp 32 +
STACK CFI 2974c .cfa: sp 0 +
STACK CFI INIT 29750 2c .cfa: sp 0 +
STACK CFI 29754 .cfa: sp 32 +
STACK CFI 2975c .cfa: x29 32 + x19: .cfa -16 + ^ .ra: .cfa -24 + ^ x29: .cfa -32 + ^
STACK CFI 29770 .cfa: sp 32 +
STACK CFI 29778 .cfa: sp 0 +
STACK CFI INIT 2977c 4 .cfa: sp 0 +
STACK CFI INIT 29780 8 .cfa: sp 0 +
STACK CFI INIT 298d0 8 .cfa: sp 0 +
STACK CFI INIT 298d8 28 .cfa: sp 0 +
STACK CFI 298dc .cfa: sp 32 +
STACK CFI 298e4 .cfa: x29 32 + x19: .cfa -16 + ^ .ra: .cfa -24 + ^ x29: .cfa -32 + ^
STACK CFI 298f4 .cfa: sp 32 +
STACK CFI 298fc .cfa: sp 0 +
STACK CFI INIT 29900 4 .cfa: sp 0 +
STACK CFI INIT 29904 4 .cfa: sp 0 +
STACK CFI INIT 29908 4 .cfa: sp 0 +
STACK CFI INIT 2990c 4 .cfa: sp 0 +
STACK CFI INIT 29910 4 .cfa: sp 0 +
STACK CFI INIT 29914 8 .cfa: sp 0 +
STACK CFI INIT 2991c 10 .cfa: sp 0 +
STACK CFI 29920 .cfa: sp 16 +
STACK CFI 29924 .cfa: x29 16 + .ra: .cfa -8 + ^ x29: .cfa -16 + ^
STACK CFI INIT 2992c 8c .cfa: sp 0 +
STACK CFI 29930 .cfa: sp 32 +
STACK CFI 29938 .cfa: x29 32 + x19: .cfa -8 + ^ x20: .cfa -16 + ^ .ra: .cfa -24 + ^ x29: .cfa -32 + ^
STACK CFI 299ac .cfa: sp 32 +
STACK CFI 299b4 .cfa: sp 0 +
STACK CFI INIT 29a24 4 .cfa: sp 0 +
STACK CFI INIT 29a94 4 .cfa: sp 0 +
STACK CFI INIT 29a98 2c .cfa: sp 0 +
STACK CFI INIT 29ce0 4 .cfa: sp 0 +
STACK CFI INIT 29e90 94 .cfa: sp 0 +
STACK CFI 29e94 .cfa: sp 32 +
STACK CFI 29e9c .cfa: x29 32 + x19: .cfa -8 + ^ x20: .cfa -16 + ^ .ra: .cfa -24 + ^ x29: .cfa -32 + ^
STACK CFI 29f18 .cfa: sp 32 +
STACK CFI 29f20 .cfa: sp 0 +
STACK CFI INIT 29f24 50 .cfa: sp 0 +
STACK CFI 29f28 .cfa: sp 32 +
STACK CFI 29f30 .cfa: x29 32 + x19: .cfa -16 + ^ .ra: .cfa -24 + ^ x29: .cfa -32 + ^
STACK CFI 29f48 .cfa: sp 32 +
STACK CFI 29f50 .cfa: sp 0 +
STACK CFI 29f54 .cfa: x29 32 +
STACK CFI 29f68 .cfa: sp 32 +
STACK CFI 29f70 .cfa: sp 0 +
STACK CFI INIT 29f74 50 .cfa: sp 0 +
STACK CFI 29f78 .cfa: sp 32 +
STACK CFI 29f80 .cfa: x29 32 + x19: .cfa -16 + ^ .ra: .cfa -24 + ^ x29: .cfa -32 + ^
STACK CFI 29f98 .cfa: sp 32 +
STACK CFI 29fa0 .cfa: sp 0 +
STACK CFI 29fa4 .cfa: x29 32 +
STACK CFI 29fb8 .cfa: sp 32 +
STACK CFI 29fc0 .cfa: sp 0 +
STACK CFI INIT 29fc4 5c .cfa: sp 0 +
STACK CFI 29fc8 .cfa: sp 32 +
STACK CFI 29fd0 .cfa: x29 32 + x19: .cfa -16 + ^ .ra: .cfa -24 + ^ x29: .cfa -32 + ^
STACK CFI 29ff4 .cfa: sp 32 +
STACK CFI 29ffc .cfa: sp 0 +
STACK CFI 2a000 .cfa: x29 32 +
STACK CFI 2a014 .cfa: sp 32 +
STACK CFI 2a01c .cfa: sp 0 +
STACK CFI INIT 2a020 5c .cfa: sp 0 +
STACK CFI 2a024 .cfa: sp 32 +
STACK CFI 2a02c .cfa: x29 32 + x19: .cfa -8 + ^ x20: .cfa -16 + ^ .ra: .cfa -24 + ^ x29: .cfa -32 + ^
STACK CFI 2a070 .cfa: sp 32 +
STACK CFI 2a078 .cfa: sp 0 +
STACK CFI INIT 2a07c 58 .cfa: sp 0 +
STACK CFI 2a080 .cfa: sp 32 +
STACK CFI 2a088 .cfa: x29 32 + x19: .cfa -8 + ^ x20: .cfa -16 + ^ .ra: .cfa -24 + ^ x29: .cfa -32 + ^
STACK CFI 2a0c8 .cfa: sp 32 +
STACK CFI 2a0d0 .cfa: sp 0 +
STACK CFI INIT 2a0d4 4c .cfa: sp 0 +
STACK CFI 2a0d8 .cfa: sp 32 +
STACK CFI 2a0e0 .cfa: x29 32 + x19: .cfa -8 + ^ x20: .cfa -16 + ^ .ra: .cfa -24 + ^ x29: .cfa -32 + ^
STACK CFI 2a114 .cfa: sp 32 +
STACK CFI 2a11c .cfa: sp 0 +
STACK CFI INIT 2a120 50 .cfa: sp 0 +
STACK CFI 2a124 .cfa: sp 32 +
STACK CFI 2a12c .cfa: x29 32 + x19: .cfa -16 + ^ .ra: .cfa -24 + ^ x29: .cfa -32 + ^
STACK CFI 2a144 .cfa: sp 32 +
STACK CFI 2a14c .cfa: sp 0 +
STACK CFI 2a150 .cfa: x29 32 +
STACK CFI 2a164 .cfa: sp 32 +
STACK CFI 2a16c .cfa: sp 0 +
STACK CFI INIT 2a170 50 .cfa: sp 0 +
STACK CFI 2a174 .cfa: sp 32 +
STACK CFI 2a17c .cfa: x29 32 + x19: .cfa -8 + ^ x20: .cfa -16 + ^ .ra: .cfa -24 + ^ x29: .cfa -32 + ^
STACK CFI 2a1b4 .cfa: sp 32 +
STACK CFI 2a1bc .cfa: sp 0 +
STACK CFI INIT 2a358 1c .cfa: sp 0 +
STACK CFI INIT 2a374 c .cfa: sp 0 +
STACK CFI INIT 2a380 50 .cfa: sp 0 +
STACK CFI 2a384 .cfa: sp 32 +
STACK CFI 2a38c .cfa: x29 32 + x19: .cfa -8 + ^ x20: .cfa -16 + ^ .ra: .cfa -24 + ^ x29: .cfa -32 + ^
STACK CFI 2a3c4 .cfa: sp 32 +
STACK CFI 2a3cc .cfa: sp 0 +
STACK CFI INIT 2a3d0 58 .cfa: sp 0 +
STACK CFI 2a3d4 .cfa: sp 32 +
STACK CFI 2a3dc .cfa: x29 32 + x19: .cfa -8 + ^ x20: .cfa -16 + ^ .ra: .cfa -24 + ^ x29: .cfa -32 + ^
STACK CFI 2a41c .cfa: sp 32 +
STACK CFI 2a424 .cfa: sp 0 +
STACK CFI INIT 2a428 5c .cfa: sp 0 +
STACK CFI 2a42c .cfa: sp 32 +
STACK CFI 2a434 .cfa: x29 32 + x19: .cfa -16 + ^ .ra: .cfa -24 + ^ x29: .cfa -32 + ^
STACK CFI 2a458 .cfa: sp 32 +
STACK CFI 2a460 .cfa: sp 0 +
STACK CFI 2a464 .cfa: x29 32 +
STACK CFI 2a478 .cfa: sp 32 +
STACK CFI 2a480 .cfa: sp 0 +
STACK CFI INIT 2a484 5c .cfa: sp 0 +
STACK CFI 2a488 .cfa: sp 32 +
STACK CFI 2a490 .cfa: x29 32 + x19: .cfa -8 + ^ x20: .cfa -16 + ^ .ra: .cfa -24 + ^ x29: .cfa -32 + ^
STACK CFI 2a4d4 .cfa: sp 32 +
STACK CFI 2a4dc .cfa: sp 0 +
STACK CFI INIT 2a4e0 58 .cfa: sp 0 +
STACK CFI 2a4e4 .cfa: sp 32 +
STACK CFI 2a4ec .cfa: x29 32 + x19: .cfa -8 + ^ x20: .cfa -16 + ^ .ra: .cfa -24 + ^ x29: .cfa -32 + ^
STACK CFI 2a52c .cfa: sp 32 +
STACK CFI 2a534 .cfa: sp 0 +
STACK CFI INIT 2a538 4c .cfa: sp 0 +
STACK CFI 2a53c .cfa: sp 32 +
STACK CFI 2a544 .cfa: x29 32 + x19: .cfa -8 + ^ x20: .cfa -16 + ^ .ra: .cfa -24 + ^ x29: .cfa -32 + ^
STACK CFI 2a578 .cfa: sp 32 +
STACK CFI 2a580 .cfa: sp 0 +
STACK CFI INIT 2a584 50 .cfa: sp 0 +
STACK CFI 2a588 .cfa: sp 32 +
STACK CFI 2a590 .cfa: x29 32 + x19: .cfa -16 + ^ .ra: .cfa -24 + ^ x29: .cfa -32 + ^
STACK CFI 2a5a8 .cfa: sp 32 +
STACK CFI 2a5b0 .cfa: sp 0 +
STACK CFI 2a5b4 .cfa: x29 32 +
STACK CFI 2a5c8 .cfa: sp 32 +
STACK CFI 2a5d0 .cfa: sp 0 +
STACK CFI INIT 2a5d4 50 .cfa: sp 0 +
STACK CFI 2a5d8 .cfa: sp 32 +
STACK CFI 2a5e0 .cfa: x29 32 + x19: .cfa -8 + ^ x20: .cfa -16 + ^ .ra: .cfa -24 + ^ x29: .cfa -32 + ^
STACK CFI 2a618 .cfa: sp 32 +
STACK CFI 2a620 .cfa: sp 0 +
STACK CFI INIT 2a7ac 1c .cfa: sp 0 +
STACK CFI INIT 2a7c8 c .cfa: sp 0 +
STACK CFI INIT 2a7d4 34 .cfa: sp 0 +
STACK CFI 2a7d8 .cfa: sp 16 +
STACK CFI 2a7dc .cfa: x29 16 + .ra: .cfa -8 + ^ x29: .cfa -16 + ^
STACK CFI INIT 2a808 24 .cfa: sp 0 +
STACK CFI 2a80c .cfa: sp 32 +
STACK CFI 2a814 .cfa: x29 32 + x19: .cfa -16 + ^ .ra: .cfa -24 + ^ x29: .cfa -32 + ^
STACK CFI 2a820 .cfa: sp 32 +
STACK CFI 2a828 .cfa: sp 0 +
STACK CFI INIT 2aa48 4 .cfa: sp 0 +
STACK CFI INIT 2abf8 8c .cfa: sp 0 +
STACK CFI 2abfc .cfa: sp 32 +
STACK CFI 2ac04 .cfa: x29 32 + x19: .cfa -8 + ^ x20: .cfa -16 + ^ .ra: .cfa -24 + ^ x29: .cfa -32 + ^
STACK CFI 2ac78 .cfa: sp 32 +
STACK CFI 2ac80 .cfa: sp 0 +
STACK CFI INIT 2ac84 94 .cfa: sp 0 +
STACK CFI 2ac88 .cfa: sp 32 +
STACK CFI 2ac90 .cfa: x29 32 + x19: .cfa -8 + ^ x20: .cfa -16 + ^ .ra: .cfa -24 + ^ x29: .cfa -32 + ^
STACK CFI 2ad0c .cfa: sp 32 +
STACK CFI 2ad14 .cfa: sp 0 +
STACK CFI INIT 2ad18 50 .cfa: sp 0 +
STACK CFI 2ad1c .cfa: sp 32 +
STACK CFI 2ad24 .cfa: x29 32 + x19: .cfa -16 + ^ .ra: .cfa -24 + ^ x29: .cfa -32 + ^
STACK CFI 2ad3c .cfa: sp 32 +
STACK CFI 2ad44 .cfa: sp 0 +
STACK CFI 2ad48 .cfa: x29 32 +
STACK CFI 2ad5c .cfa: sp 32 +
STACK CFI 2ad64 .cfa: sp 0 +
STACK CFI INIT 2ad68 50 .cfa: sp 0 +
STACK CFI 2ad6c .cfa: sp 32 +
STACK CFI 2ad74 .cfa: x29 32 + x19: .cfa -16 + ^ .ra: .cfa -24 + ^ x29: .cfa -32 + ^
STACK CFI 2ad8c .cfa: sp 32 +
STACK CFI 2ad94 .cfa: sp 0 +
STACK CFI 2ad98 .cfa: x29 32 +
STACK CFI 2adac .cfa: sp 32 +
STACK CFI 2adb4 .cfa: sp 0 +
STACK CFI INIT 2adb8 5c .cfa: sp 0 +
STACK CFI 2adbc .cfa: sp 32 +
STACK CFI 2adc4 .cfa: x29 32 + x19: .cfa -16 + ^ .ra: .cfa -24 + ^ x29: .cfa -32 + ^
STACK CFI 2ade8 .cfa: sp 32 +
STACK CFI 2adf0 .cfa: sp 0 +
STACK CFI 2adf4 .cfa: x29 32 +
STACK CFI 2ae08 .cfa: sp 32 +
STACK CFI 2ae10 .cfa: sp 0 +
STACK CFI INIT 2ae14 5c .cfa: sp 0 +
STACK CFI 2ae18 .cfa: sp 32 +
STACK CFI 2ae20 .cfa: x29 32 + x19: .cfa -8 + ^ x20: .cfa -16 + ^ .ra: .cfa -24 + ^ x29: .cfa -32 + ^
STACK CFI 2ae64 .cfa: sp 32 +
STACK CFI 2ae6c .cfa: sp 0 +
STACK CFI INIT 2ae70 58 .cfa: sp 0 +
STACK CFI 2ae74 .cfa: sp 32 +
STACK CFI 2ae7c .cfa: x29 32 + x19: .cfa -8 + ^ x20: .cfa -16 + ^ .ra: .cfa -24 + ^ x29: .cfa -32 + ^
STACK CFI 2aebc .cfa: sp 32 +
STACK CFI 2aec4 .cfa: sp 0 +
STACK CFI INIT 2aec8 4c .cfa: sp 0 +
STACK CFI 2aecc .cfa: sp 32 +
STACK CFI 2aed4 .cfa: x29 32 + x19: .cfa -8 + ^ x20: .cfa -16 + ^ .ra: .cfa -24 + ^ x29: .cfa -32 + ^
STACK CFI 2af08 .cfa: sp 32 +
STACK CFI 2af10 .cfa: sp 0 +
STACK CFI INIT 2af14 50 .cfa: sp 0 +
STACK CFI 2af18 .cfa: sp 32 +
STACK CFI 2af20 .cfa: x29 32 + x19: .cfa -16 + ^ .ra: .cfa -24 + ^ x29: .cfa -32 + ^
STACK CFI 2af38 .cfa: sp 32 +
STACK CFI 2af40 .cfa: sp 0 +
STACK CFI 2af44 .cfa: x29 32 +
STACK CFI 2af58 .cfa: sp 32 +
STACK CFI 2af60 .cfa: sp 0 +
STACK CFI INIT 2af64 50 .cfa: sp 0 +
STACK CFI 2af68 .cfa: sp 32 +
STACK CFI 2af70 .cfa: x29 32 + x19: .cfa -8 + ^ x20: .cfa -16 + ^ .ra: .cfa -24 + ^ x29: .cfa -32 + ^
STACK CFI 2afa8 .cfa: sp 32 +
STACK CFI 2afb0 .cfa: sp 0 +
STACK CFI INIT 2b14c 1c .cfa: sp 0 +
STACK CFI INIT 2b168 c .cfa: sp 0 +
STACK CFI INIT 2b174 50 .cfa: sp 0 +
STACK CFI 2b178 .cfa: sp 32 +
STACK CFI 2b180 .cfa: x29 32 + x19: .cfa -16 + ^ .ra: .cfa -24 + ^ x29: .cfa -32 + ^
STACK CFI 2b198 .cfa: sp 32 +
STACK CFI 2b1a0 .cfa: sp 0 +
STACK CFI 2b1a4 .cfa: x29 32 +
STACK CFI 2b1b8 .cfa: sp 32 +
STACK CFI 2b1c0 .cfa: sp 0 +
STACK CFI INIT 2b1c4 50 .cfa: sp 0 +
STACK CFI 2b1c8 .cfa: sp 32 +
STACK CFI 2b1d0 .cfa: x29 32 + x19: .cfa -8 + ^ x20: .cfa -16 + ^ .ra: .cfa -24 + ^ x29: .cfa -32 + ^
STACK CFI 2b208 .cfa: sp 32 +
STACK CFI 2b210 .cfa: sp 0 +
STACK CFI INIT 2b214 58 .cfa: sp 0 +
STACK CFI 2b218 .cfa: sp 32 +
STACK CFI 2b220 .cfa: x29 32 + x19: .cfa -8 + ^ x20: .cfa -16 + ^ .ra: .cfa -24 + ^ x29: .cfa -32 + ^
STACK CFI 2b260 .cfa: sp 32 +
STACK CFI 2b268 .cfa: sp 0 +
STACK CFI INIT 2b26c 5c .cfa: sp 0 +
STACK CFI 2b270 .cfa: sp 32 +
STACK CFI 2b278 .cfa: x29 32 + x19: .cfa -16 + ^ .ra: .cfa -24 + ^ x29: .cfa -32 + ^
STACK CFI 2b29c .cfa: sp 32 +
STACK CFI 2b2a4 .cfa: sp 0 +
STACK CFI 2b2a8 .cfa: x29 32 +
STACK CFI 2b2bc .cfa: sp 32 +
STACK CFI 2b2c4 .cfa: sp 0 +
STACK CFI INIT 2b2c8 5c .cfa: sp 0 +
STACK CFI 2b2cc .cfa: sp 32 +
STACK CFI 2b2d4 .cfa: x29 32 + x19: .cfa -8 + ^ x20: .cfa -16 + ^ .ra: .cfa -24 + ^ x29: .cfa -32 + ^
STACK CFI 2b318 .cfa: sp 32 +
STACK CFI 2b320 .cfa: sp 0 +
STACK CFI INIT 2b324 58 .cfa: sp 0 +
STACK CFI 2b328 .cfa: sp 32 +
STACK CFI 2b330 .cfa: x29 32 + x19: .cfa -8 + ^ x20: .cfa -16 + ^ .ra: .cfa -24 + ^ x29: .cfa -32 + ^
STACK CFI 2b370 .cfa: sp 32 +
STACK CFI 2b378 .cfa: sp 0 +
STACK CFI INIT 2b37c 4c .cfa: sp 0 +
STACK CFI 2b380 .cfa: sp 32 +
STACK CFI 2b388 .cfa: x29 32 + x19: .cfa -8 + ^ x20: .cfa -16 + ^ .ra: .cfa -24 + ^ x29: .cfa -32 + ^
STACK CFI 2b3bc .cfa: sp 32 +
STACK CFI 2b3c4 .cfa: sp 0 +
STACK CFI INIT 2b3c8 50 .cfa: sp 0 +
STACK CFI 2b3cc .cfa: sp 32 +
STACK CFI 2b3d4 .cfa: x29 32 + x19: .cfa -16 + ^ .ra: .cfa -24 + ^ x29: .cfa -32 + ^
STACK CFI 2b3ec .cfa: sp 32 +
STACK CFI 2b3f4 .cfa: sp 0 +
STACK CFI 2b3f8 .cfa: x29 32 +
STACK CFI 2b40c .cfa: sp 32 +
STACK CFI 2b414 .cfa: sp 0 +
STACK CFI INIT 2b418 50 .cfa: sp 0 +
STACK CFI 2b41c .cfa: sp 32 +
STACK CFI 2b424 .cfa: x29 32 + x19: .cfa -8 + ^ x20: .cfa -16 + ^ .ra: .cfa -24 + ^ x29: .cfa -32 + ^
STACK CFI 2b45c .cfa: sp 32 +
STACK CFI 2b464 .cfa: sp 0 +
STACK CFI INIT 2b5f0 1c .cfa: sp 0 +
STACK CFI INIT 2b60c c .cfa: sp 0 +
STACK CFI INIT 2b810 34 .cfa: sp 0 +
STACK CFI 2b814 .cfa: sp 16 +
STACK CFI 2b818 .cfa: x29 16 + .ra: .cfa -8 + ^ x29: .cfa -16 + ^
STACK CFI INIT 2b844 4 .cfa: sp 0 +
STACK CFI INIT 2b848 14 .cfa: sp 0 +
STACK CFI INIT 2b85c 4 .cfa: sp 0 +
STACK CFI INIT 2b860 14 .cfa: sp 0 +
STACK CFI INIT 2b874 2f4 .cfa: sp 0 +
STACK CFI 2b878 .cfa: sp 128 +
STACK CFI 2b890 .cfa: x29 64 + x19: .cfa -8 + ^ x20: .cfa -16 + ^ x21: .cfa -24 + ^ x22: .cfa -32 + ^ x23: .cfa -40 + ^ x24: .cfa -48 + ^ .ra: .cfa -56 + ^ x29: .cfa -64 + ^ v8: .cfa -72 + ^ v9: .cfa -80 + ^
STACK CFI 2bb48 .cfa: sp 128 +
STACK CFI 2bb60 .cfa: sp 0 +
STACK CFI 2bb64 .cfa: x29 64 +
STACK CFI INIT 2bb68 70 .cfa: sp 0 +
STACK CFI 2bb6c .cfa: sp 32 +
STACK CFI 2bb74 .cfa: x29 32 + x19: .cfa -16 + ^ .ra: .cfa -24 + ^ x29: .cfa -32 + ^
STACK CFI 2bbc0 .cfa: sp 32 +
STACK CFI 2bbc8 .cfa: sp 0 +
STACK CFI 2bbcc .cfa: sp 32 +
STACK CFI 2bbd4 .cfa: sp 0 +
STACK CFI INIT 2bbd8 10 .cfa: sp 0 +
STACK CFI INIT 2bbe8 30 .cfa: sp 0 +
STACK CFI 2bbec .cfa: sp 32 +
STACK CFI 2bbf4 .cfa: x29 32 + x19: .cfa -16 + ^ .ra: .cfa -24 + ^ x29: .cfa -32 + ^
STACK CFI 2bc0c .cfa: sp 32 +
STACK CFI 2bc14 .cfa: sp 0 +
STACK CFI INIT 2bd00 4 .cfa: sp 0 +
STACK CFI INIT 2bd80 4 .cfa: sp 0 +
STACK CFI INIT 2bd84 14 .cfa: sp 0 +
STACK CFI INIT 2c3e8 3c .cfa: sp 0 +
STACK CFI 2c3ec .cfa: sp 32 +
STACK CFI 2c3f4 .cfa: x29 32 + x19: .cfa -16 + ^ .ra: .cfa -24 + ^ x29: .cfa -32 + ^
STACK CFI 2c40c .cfa: sp 32 +
STACK CFI 2c414 .cfa: sp 0 +
STACK CFI 2c418 .cfa: sp 32 +
STACK CFI 2c420 .cfa: sp 0 +
STACK CFI INIT 2c498 20 .cfa: sp 0 +
STACK CFI INIT 2c4b8 3c .cfa: sp 0 +
STACK CFI 2c4d0 .cfa: sp 32 +
STACK CFI 2c4d8 .cfa: x29 32 + x19: .cfa -16 + ^ .ra: .cfa -24 + ^ x29: .cfa -32 + ^
STACK CFI 2c4e8 .cfa: sp 32 +
STACK CFI 2c4f0 .cfa: sp 0 +
STACK CFI INIT 2c4f4 50 .cfa: sp 0 +
STACK CFI 2c4f8 .cfa: sp 32 +
STACK CFI 2c500 .cfa: x29 32 + x19: .cfa -16 + ^ .ra: .cfa -24 + ^ x29: .cfa -32 + ^
STACK CFI 2c538 .cfa: sp 32 +
STACK CFI 2c540 .cfa: sp 0 +
STACK CFI INIT 2c544 34 .cfa: sp 0 +
STACK CFI 2c560 .cfa: sp 16 +
STACK CFI 2c564 .cfa: x29 16 + .ra: .cfa -8 + ^ x29: .cfa -16 + ^
STACK CFI 2c570 .cfa: sp 16 +
STACK CFI 2c574 .cfa: sp 0 +
STACK CFI INIT 2c578 10 .cfa: sp 0 +
STACK CFI INIT 2c588 30 .cfa: sp 0 +
STACK CFI 2c594 .cfa: sp 32 +
STACK CFI 2c59c .cfa: x29 32 + x19: .cfa -16 + ^ .ra: .cfa -24 + ^ x29: .cfa -32 + ^
STACK CFI 2c5ac .cfa: sp 32 +
STACK CFI 2c5b4 .cfa: sp 0 +
STACK CFI INIT 2c754 1c .cfa: sp 0 +
STACK CFI INIT 2c770 c .cfa: sp 0 +
STACK CFI INIT 2c77c 50 .cfa: sp 0 +
STACK CFI 2c780 .cfa: sp 32 +
STACK CFI 2c788 .cfa: x29 32 + x19: .cfa -16 + ^ .ra: .cfa -24 + ^ x29: .cfa -32 + ^
STACK CFI 2c7a0 .cfa: sp 32 +
STACK CFI 2c7a8 .cfa: sp 0 +
STACK CFI 2c7ac .cfa: x29 32 +
STACK CFI 2c7c0 .cfa: sp 32 +
STACK CFI 2c7c8 .cfa: sp 0 +
STACK CFI INIT 2c7cc 5c .cfa: sp 0 +
STACK CFI 2c7d0 .cfa: sp 32 +
STACK CFI 2c7d8 .cfa: x29 32 + x19: .cfa -16 + ^ .ra: .cfa -24 + ^ x29: .cfa -32 + ^
STACK CFI 2c7fc .cfa: sp 32 +
STACK CFI 2c804 .cfa: sp 0 +
STACK CFI 2c808 .cfa: x29 32 +
STACK CFI 2c81c .cfa: sp 32 +
STACK CFI 2c824 .cfa: sp 0 +
STACK CFI INIT 2c828 5c .cfa: sp 0 +
STACK CFI 2c82c .cfa: sp 32 +
STACK CFI 2c834 .cfa: x29 32 + x19: .cfa -8 + ^ x20: .cfa -16 + ^ .ra: .cfa -24 + ^ x29: .cfa -32 + ^
STACK CFI 2c878 .cfa: sp 32 +
STACK CFI 2c880 .cfa: sp 0 +
STACK CFI INIT 2c884 58 .cfa: sp 0 +
STACK CFI 2c888 .cfa: sp 32 +
STACK CFI 2c890 .cfa: x29 32 + x19: .cfa -8 + ^ x20: .cfa -16 + ^ .ra: .cfa -24 + ^ x29: .cfa -32 + ^
STACK CFI 2c8d0 .cfa: sp 32 +
STACK CFI 2c8d8 .cfa: sp 0 +
STACK CFI INIT 2c8dc 4c .cfa: sp 0 +
STACK CFI 2c8e0 .cfa: sp 32 +
STACK CFI 2c8e8 .cfa: x29 32 + x19: .cfa -8 + ^ x20: .cfa -16 + ^ .ra: .cfa -24 + ^ x29: .cfa -32 + ^
STACK CFI 2c91c .cfa: sp 32 +
STACK CFI 2c924 .cfa: sp 0 +
STACK CFI INIT 2c928 50 .cfa: sp 0 +
STACK CFI 2c92c .cfa: sp 32 +
STACK CFI 2c934 .cfa: x29 32 + x19: .cfa -16 + ^ .ra: .cfa -24 + ^ x29: .cfa -32 + ^
STACK CFI 2c94c .cfa: sp 32 +
STACK CFI 2c954 .cfa: sp 0 +
STACK CFI 2c958 .cfa: x29 32 +
STACK CFI 2c96c .cfa: sp 32 +
STACK CFI 2c974 .cfa: sp 0 +
STACK CFI INIT 2c978 50 .cfa: sp 0 +
STACK CFI 2c97c .cfa: sp 32 +
STACK CFI 2c984 .cfa: x29 32 + x19: .cfa -8 + ^ x20: .cfa -16 + ^ .ra: .cfa -24 + ^ x29: .cfa -32 + ^
STACK CFI 2c9bc .cfa: sp 32 +
STACK CFI 2c9c4 .cfa: sp 0 +
STACK CFI INIT 2cb78 1c .cfa: sp 0 +
STACK CFI INIT 2cb94 c .cfa: sp 0 +
STACK CFI INIT 2cba0 20 .cfa: sp 0 +
STACK CFI INIT 2cbc0 3c .cfa: sp 0 +
STACK CFI 2cbd8 .cfa: sp 32 +
STACK CFI 2cbe0 .cfa: x29 32 + x19: .cfa -16 + ^ .ra: .cfa -24 + ^ x29: .cfa -32 + ^
STACK CFI 2cbf0 .cfa: sp 32 +
STACK CFI 2cbf8 .cfa: sp 0 +
STACK CFI INIT 2cbfc 50 .cfa: sp 0 +
STACK CFI 2cc00 .cfa: sp 32 +
STACK CFI 2cc08 .cfa: x29 32 + x19: .cfa -16 + ^ .ra: .cfa -24 + ^ x29: .cfa -32 + ^
STACK CFI 2cc40 .cfa: sp 32 +
STACK CFI 2cc48 .cfa: sp 0 +
STACK CFI INIT 2cc4c 34 .cfa: sp 0 +
STACK CFI 2cc68 .cfa: sp 16 +
STACK CFI 2cc6c .cfa: x29 16 + .ra: .cfa -8 + ^ x29: .cfa -16 + ^
STACK CFI 2cc78 .cfa: sp 16 +
STACK CFI 2cc7c .cfa: sp 0 +
STACK CFI INIT 2cc80 10 .cfa: sp 0 +
STACK CFI INIT 2cc90 30 .cfa: sp 0 +
STACK CFI 2cc9c .cfa: sp 32 +
STACK CFI 2cca4 .cfa: x29 32 + x19: .cfa -16 + ^ .ra: .cfa -24 + ^ x29: .cfa -32 + ^
STACK CFI 2ccb4 .cfa: sp 32 +
STACK CFI 2ccbc .cfa: sp 0 +
STACK CFI INIT 2cdac 1c .cfa: sp 0 +
STACK CFI INIT 2cdc8 c .cfa: sp 0 +
STACK CFI INIT 2cdd4 50 .cfa: sp 0 +
STACK CFI 2cdd8 .cfa: sp 32 +
STACK CFI 2cde0 .cfa: x29 32 + x19: .cfa -16 + ^ .ra: .cfa -24 + ^ x29: .cfa -32 + ^
STACK CFI 2cdf8 .cfa: sp 32 +
STACK CFI 2ce00 .cfa: sp 0 +
STACK CFI 2ce04 .cfa: x29 32 +
STACK CFI 2ce18 .cfa: sp 32 +
STACK CFI 2ce20 .cfa: sp 0 +
STACK CFI INIT 2ce24 5c .cfa: sp 0 +
STACK CFI 2ce28 .cfa: sp 32 +
STACK CFI 2ce30 .cfa: x29 32 + x19: .cfa -16 + ^ .ra: .cfa -24 + ^ x29: .cfa -32 + ^
STACK CFI 2ce54 .cfa: sp 32 +
STACK CFI 2ce5c .cfa: sp 0 +
STACK CFI 2ce60 .cfa: x29 32 +
STACK CFI 2ce74 .cfa: sp 32 +
STACK CFI 2ce7c .cfa: sp 0 +
STACK CFI INIT 2ce80 5c .cfa: sp 0 +
STACK CFI 2ce84 .cfa: sp 32 +
STACK CFI 2ce8c .cfa: x29 32 + x19: .cfa -8 + ^ x20: .cfa -16 + ^ .ra: .cfa -24 + ^ x29: .cfa -32 + ^
STACK CFI 2ced0 .cfa: sp 32 +
STACK CFI 2ced8 .cfa: sp 0 +
STACK CFI INIT 2cedc 50 .cfa: sp 0 +
STACK CFI 2cee0 .cfa: sp 32 +
STACK CFI 2cee8 .cfa: x29 32 + x19: .cfa -16 + ^ .ra: .cfa -24 + ^ x29: .cfa -32 + ^
STACK CFI 2cf20 .cfa: sp 32 +
STACK CFI 2cf28 .cfa: sp 0 +
STACK CFI INIT 2cf2c 34 .cfa: sp 0 +
STACK CFI 2cf48 .cfa: sp 16 +
STACK CFI 2cf4c .cfa: x29 16 + .ra: .cfa -8 + ^ x29: .cfa -16 + ^
STACK CFI 2cf58 .cfa: sp 16 +
STACK CFI 2cf5c .cfa: sp 0 +
STACK CFI INIT 2cf60 50 .cfa: sp 0 +
STACK CFI 2cf64 .cfa: sp 32 +
STACK CFI 2cf6c .cfa: x29 32 + x19: .cfa -16 + ^ .ra: .cfa -24 + ^ x29: .cfa -32 + ^
STACK CFI 2cf84 .cfa: sp 32 +
STACK CFI 2cf8c .cfa: sp 0 +
STACK CFI 2cf90 .cfa: x29 32 +
STACK CFI 2cfa4 .cfa: sp 32 +
STACK CFI 2cfac .cfa: sp 0 +
STACK CFI INIT 2cfb0 50 .cfa: sp 0 +
STACK CFI 2cfb4 .cfa: sp 32 +
STACK CFI 2cfbc .cfa: x29 32 + x19: .cfa -8 + ^ x20: .cfa -16 + ^ .ra: .cfa -24 + ^ x29: .cfa -32 + ^
STACK CFI 2cff4 .cfa: sp 32 +
STACK CFI 2cffc .cfa: sp 0 +
STACK CFI INIT 2d1b8 1c .cfa: sp 0 +
STACK CFI INIT 2d1d4 c .cfa: sp 0 +
STACK CFI INIT 2d1e0 50 .cfa: sp 0 +
STACK CFI 2d1e4 .cfa: sp 32 +
STACK CFI 2d1ec .cfa: x29 32 + x19: .cfa -16 + ^ .ra: .cfa -24 + ^ x29: .cfa -32 + ^
STACK CFI 2d204 .cfa: sp 32 +
STACK CFI 2d20c .cfa: sp 0 +
STACK CFI 2d210 .cfa: x29 32 +
STACK CFI 2d224 .cfa: sp 32 +
STACK CFI 2d22c .cfa: sp 0 +
STACK CFI INIT 2d230 4 .cfa: sp 0 +
STACK CFI INIT 2d234 1c .cfa: sp 0 +
STACK CFI INIT 2d250 5c .cfa: sp 0 +
STACK CFI 2d254 .cfa: sp 32 +
STACK CFI 2d25c .cfa: x29 32 + x19: .cfa -16 + ^ .ra: .cfa -24 + ^ x29: .cfa -32 + ^
STACK CFI 2d280 .cfa: sp 32 +
STACK CFI 2d288 .cfa: sp 0 +
STACK CFI 2d28c .cfa: x29 32 +
STACK CFI 2d2a0 .cfa: sp 32 +
STACK CFI 2d2a8 .cfa: sp 0 +
STACK CFI INIT 2d2ac 5c .cfa: sp 0 +
STACK CFI 2d2b0 .cfa: sp 32 +
STACK CFI 2d2b8 .cfa: x29 32 + x19: .cfa -8 + ^ x20: .cfa -16 + ^ .ra: .cfa -24 + ^ x29: .cfa -32 + ^
STACK CFI 2d2fc .cfa: sp 32 +
STACK CFI 2d304 .cfa: sp 0 +
STACK CFI INIT 2d308 58 .cfa: sp 0 +
STACK CFI 2d30c .cfa: sp 32 +
STACK CFI 2d314 .cfa: x29 32 + x19: .cfa -8 + ^ x20: .cfa -16 + ^ .ra: .cfa -24 + ^ x29: .cfa -32 + ^
STACK CFI 2d354 .cfa: sp 32 +
STACK CFI 2d35c .cfa: sp 0 +
STACK CFI INIT 2d360 4c .cfa: sp 0 +
STACK CFI 2d364 .cfa: sp 32 +
STACK CFI 2d36c .cfa: x29 32 + x19: .cfa -8 + ^ x20: .cfa -16 + ^ .ra: .cfa -24 + ^ x29: .cfa -32 + ^
STACK CFI 2d3a0 .cfa: sp 32 +
STACK CFI 2d3a8 .cfa: sp 0 +
STACK CFI INIT 2d3ac 50 .cfa: sp 0 +
STACK CFI 2d3b0 .cfa: sp 32 +
STACK CFI 2d3b8 .cfa: x29 32 + x19: .cfa -16 + ^ .ra: .cfa -24 + ^ x29: .cfa -32 + ^
STACK CFI 2d3d0 .cfa: sp 32 +
STACK CFI 2d3d8 .cfa: sp 0 +
STACK CFI 2d3dc .cfa: x29 32 +
STACK CFI 2d3f0 .cfa: sp 32 +
STACK CFI 2d3f8 .cfa: sp 0 +
STACK CFI INIT 2d3fc 50 .cfa: sp 0 +
STACK CFI 2d400 .cfa: sp 32 +
STACK CFI 2d408 .cfa: x29 32 + x19: .cfa -8 + ^ x20: .cfa -16 + ^ .ra: .cfa -24 + ^ x29: .cfa -32 + ^
STACK CFI 2d440 .cfa: sp 32 +
STACK CFI 2d448 .cfa: sp 0 +
STACK CFI INIT 2d614 1c .cfa: sp 0 +
STACK CFI INIT 2d630 c .cfa: sp 0 +
STACK CFI INIT 2d6b0 4 .cfa: sp 0 +
STACK CFI INIT 2d6b4 90 .cfa: sp 0 +
STACK CFI 2d6bc .cfa: sp 32 +
STACK CFI 2d6c4 .cfa: x29 32 + x19: .cfa -8 + ^ x20: .cfa -16 + ^ .ra: .cfa -24 + ^ x29: .cfa -32 + ^
STACK CFI 2d6e4 .cfa: sp 0 + x19: x19 x20: x20 .ra: x30 x29: x29
STACK CFI 2d6e8 .cfa: x29 32 + x19: .cfa -8 + ^ x20: .cfa -16 + ^ .ra: .cfa -24 + ^ x29: .cfa -32 + ^
STACK CFI 2d738 .cfa: sp 32 +
STACK CFI 2d740 .cfa: sp 0 +
STACK CFI INIT 2d744 50 .cfa: sp 0 +
STACK CFI 2d748 .cfa: sp 32 +
STACK CFI 2d750 .cfa: x29 32 + x19: .cfa -16 + ^ .ra: .cfa -24 + ^ x29: .cfa -32 + ^
STACK CFI 2d778 .cfa: sp 32 +
STACK CFI 2d780 .cfa: sp 0 +
STACK CFI 2d784 .cfa: x29 32 +
STACK CFI 2d788 .cfa: sp 32 +
STACK CFI 2d790 .cfa: sp 0 +
STACK CFI INIT 2d794 4c .cfa: sp 0 +
STACK CFI 2d798 .cfa: sp 32 +
STACK CFI 2d7a0 .cfa: x29 32 + x19: .cfa -16 + ^ .ra: .cfa -24 + ^ x29: .cfa -32 + ^
STACK CFI 2d7d4 .cfa: sp 32 +
STACK CFI 2d7dc .cfa: sp 0 +
STACK CFI INIT 2d954 44 .cfa: sp 0 +
STACK CFI 2d958 .cfa: sp 32 +
STACK CFI 2d960 .cfa: x29 32 + x19: .cfa -16 + ^ .ra: .cfa -24 + ^ x29: .cfa -32 + ^
STACK CFI 2d97c .cfa: sp 32 +
STACK CFI 2d984 .cfa: sp 0 +
STACK CFI 2d988 .cfa: x29 32 +
STACK CFI 2d98c .cfa: sp 32 +
STACK CFI 2d994 .cfa: sp 0 +
STACK CFI INIT 2d998 40 .cfa: sp 0 +
STACK CFI 2d99c .cfa: sp 32 +
STACK CFI 2d9a4 .cfa: x29 32 + x19: .cfa -16 + ^ .ra: .cfa -24 + ^ x29: .cfa -32 + ^
STACK CFI 2d9cc .cfa: sp 32 +
STACK CFI 2d9d4 .cfa: sp 0 +
STACK CFI INIT 2ddb8 1c .cfa: sp 0 +
STACK CFI INIT 2ddd4 c .cfa: sp 0 +
STACK CFI INIT 2dde0 44 .cfa: sp 0 +
STACK CFI INIT 2de24 5c .cfa: sp 0 +
STACK CFI 2de28 .cfa: sp 32 +
STACK CFI 2de30 .cfa: x29 32 + x19: .cfa -16 + ^ .ra: .cfa -24 + ^ x29: .cfa -32 + ^
STACK CFI 2de74 .cfa: sp 32 +
STACK CFI 2de7c .cfa: sp 0 +
STACK CFI INIT 2df08 74 .cfa: sp 0 +
STACK CFI 2df0c .cfa: sp 32 +
STACK CFI 2df14 .cfa: x29 32 + x19: .cfa -16 + ^ .ra: .cfa -24 + ^ x29: .cfa -32 + ^
STACK CFI 2df54 .cfa: sp 32 +
STACK CFI 2df5c .cfa: sp 0 +
STACK CFI 2df60 .cfa: x29 32 +
STACK CFI 2df70 .cfa: sp 32 +
STACK CFI 2df78 .cfa: sp 0 +
STACK CFI INIT 2df7c 38 .cfa: sp 0 +
STACK CFI INIT 2dfb4 50 .cfa: sp 0 +
STACK CFI 2dfb8 .cfa: sp 32 +
STACK CFI 2dfc0 .cfa: x29 32 + x19: .cfa -16 + ^ .ra: .cfa -24 + ^ x29: .cfa -32 + ^
STACK CFI 2dff8 .cfa: sp 32 +
STACK CFI 2e000 .cfa: sp 0 +
STACK CFI INIT 2e004 90 .cfa: sp 0 +
STACK CFI 2e008 .cfa: sp 48 +
STACK CFI 2e014 .cfa: x29 32 + x19: .cfa -16 + ^ .ra: .cfa -24 + ^ x29: .cfa -32 + ^
STACK CFI 2e06c .cfa: sp 48 +
STACK CFI 2e078 .cfa: sp 0 +
STACK CFI 2e07c .cfa: x29 32 +
STACK CFI INIT 2e094 1c .cfa: sp 0 +
STACK CFI INIT 2e0b0 c .cfa: sp 0 +
STACK CFI INIT 2e1e8 20 .cfa: sp 0 +
STACK CFI INIT 2e208 40 .cfa: sp 0 +
STACK CFI 2e220 .cfa: sp 32 +
STACK CFI 2e228 .cfa: x29 32 + x19: .cfa -16 + ^ .ra: .cfa -24 + ^ x29: .cfa -32 + ^
STACK CFI 2e23c .cfa: sp 32 +
STACK CFI 2e244 .cfa: sp 0 +
STACK CFI INIT 2e2cc 68 .cfa: sp 0 +
STACK CFI 2e2d0 .cfa: sp 32 +
STACK CFI 2e2d8 .cfa: x29 32 + x19: .cfa -8 + ^ x20: .cfa -16 + ^ .ra: .cfa -24 + ^ x29: .cfa -32 + ^
STACK CFI 2e328 .cfa: sp 32 +
STACK CFI 2e330 .cfa: sp 0 +
STACK CFI INIT 2e334 14 .cfa: sp 0 +
STACK CFI INIT 2e348 34 .cfa: sp 0 +
STACK CFI 2e354 .cfa: sp 32 +
STACK CFI 2e35c .cfa: x29 32 + x19: .cfa -16 + ^ .ra: .cfa -24 + ^ x29: .cfa -32 + ^
STACK CFI 2e370 .cfa: sp 32 +
STACK CFI 2e378 .cfa: sp 0 +
STACK CFI INIT 2ea90 1c .cfa: sp 0 +
STACK CFI INIT 2eaac c .cfa: sp 0 +
STACK CFI INIT 2eab8 20 .cfa: sp 0 +
STACK CFI INIT 2ead8 40 .cfa: sp 0 +
STACK CFI 2eaf0 .cfa: sp 32 +
STACK CFI 2eaf8 .cfa: x29 32 + x19: .cfa -16 + ^ .ra: .cfa -24 + ^ x29: .cfa -32 + ^
STACK CFI 2eb0c .cfa: sp 32 +
STACK CFI 2eb14 .cfa: sp 0 +
STACK CFI INIT 2eb94 60 .cfa: sp 0 +
STACK CFI 2eb98 .cfa: sp 32 +
STACK CFI 2eba0 .cfa: x29 32 + x19: .cfa -8 + ^ x20: .cfa -16 + ^ .ra: .cfa -24 + ^ x29: .cfa -32 + ^
STACK CFI 2ebe8 .cfa: sp 32 +
STACK CFI 2ebf0 .cfa: sp 0 +
STACK CFI INIT 2ebf4 14 .cfa: sp 0 +
STACK CFI INIT 2ec08 34 .cfa: sp 0 +
STACK CFI 2ec14 .cfa: sp 32 +
STACK CFI 2ec1c .cfa: x29 32 + x19: .cfa -16 + ^ .ra: .cfa -24 + ^ x29: .cfa -32 + ^
STACK CFI 2ec30 .cfa: sp 32 +
STACK CFI 2ec38 .cfa: sp 0 +
STACK CFI INIT 2f00c 1c .cfa: sp 0 +
STACK CFI INIT 2f028 c .cfa: sp 0 +
STACK CFI INIT 2f034 50 .cfa: sp 0 +
STACK CFI 2f038 .cfa: sp 32 +
STACK CFI 2f040 .cfa: x29 32 + x19: .cfa -8 + ^ x20: .cfa -16 + ^ .ra: .cfa -24 + ^ x29: .cfa -32 + ^
STACK CFI 2f078 .cfa: sp 32 +
STACK CFI 2f080 .cfa: sp 0 +
STACK CFI INIT 2f084 58 .cfa: sp 0 +
STACK CFI 2f088 .cfa: sp 32 +
STACK CFI 2f090 .cfa: x29 32 + x19: .cfa -8 + ^ x20: .cfa -16 + ^ .ra: .cfa -24 + ^ x29: .cfa -32 + ^
STACK CFI 2f0d0 .cfa: sp 32 +
STACK CFI 2f0d8 .cfa: sp 0 +
STACK CFI INIT 2f0dc 10 .cfa: sp 0 +
STACK CFI INIT 2f0ec 30 .cfa: sp 0 +
STACK CFI 2f0f0 .cfa: sp 32 +
STACK CFI 2f0f8 .cfa: x29 32 + x19: .cfa -16 + ^ .ra: .cfa -24 + ^ x29: .cfa -32 + ^
STACK CFI 2f110 .cfa: sp 32 +
STACK CFI 2f118 .cfa: sp 0 +
STACK CFI INIT 2f11c 4 .cfa: sp 0 +
STACK CFI INIT 2f120 4 .cfa: sp 0 +
STACK CFI INIT 2f524 1c .cfa: sp 0 +
STACK CFI INIT 2f91c 50 .cfa: sp 0 +
STACK CFI 2f920 .cfa: sp 32 +
STACK CFI 2f928 .cfa: x29 32 + x19: .cfa -16 + ^ .ra: .cfa -24 + ^ x29: .cfa -32 + ^
STACK CFI 2f940 .cfa: sp 32 +
STACK CFI 2f948 .cfa: sp 0 +
STACK CFI 2f94c .cfa: x29 32 +
STACK CFI 2f960 .cfa: sp 32 +
STACK CFI 2f968 .cfa: sp 0 +
STACK CFI INIT 2f9e0 7c .cfa: sp 0 +
STACK CFI 2f9e4 .cfa: sp 48 +
STACK CFI 2f9f0 .cfa: x29 48 + x19: .cfa -8 + ^ x20: .cfa -16 + ^ x21: .cfa -32 + ^ .ra: .cfa -40 + ^ x29: .cfa -48 + ^
STACK CFI 2fa3c .cfa: sp 48 +
STACK CFI 2fa48 .cfa: sp 0 +
STACK CFI 2fa4c .cfa: sp 48 +
STACK CFI 2fa58 .cfa: sp 0 +
STACK CFI INIT 2fa5c 4 .cfa: sp 0 +
STACK CFI INIT 2fcd8 80 .cfa: sp 0 +
STACK CFI 2fcdc .cfa: sp 48 +
STACK CFI 2fce8 .cfa: x29 48 + x19: .cfa -8 + ^ x20: .cfa -16 + ^ x21: .cfa -32 + ^ .ra: .cfa -40 + ^ x29: .cfa -48 + ^
STACK CFI 2fd48 .cfa: sp 48 +
STACK CFI 2fd54 .cfa: sp 0 +
STACK CFI INIT 2fd58 24 .cfa: sp 0 +
STACK CFI 2fd5c .cfa: sp 32 +
STACK CFI 2fd64 .cfa: x29 32 + x19: .cfa -16 + ^ .ra: .cfa -24 + ^ x29: .cfa -32 + ^
STACK CFI 2fd70 .cfa: sp 32 +
STACK CFI 2fd78 .cfa: sp 0 +
STACK CFI INIT 300c8 34 .cfa: sp 0 +
STACK CFI 300cc .cfa: sp 32 +
STACK CFI 300d4 .cfa: x29 32 + x19: .cfa -16 + ^ .ra: .cfa -24 + ^ x29: .cfa -32 + ^
STACK CFI INIT 30258 148 .cfa: sp 0 +
STACK CFI 3025c .cfa: sp 48 +
STACK CFI 30268 .cfa: x29 48 + x19: .cfa -8 + ^ x20: .cfa -16 + ^ x21: .cfa -32 + ^ .ra: .cfa -40 + ^ x29: .cfa -48 + ^
STACK CFI 30390 .cfa: sp 48 +
STACK CFI 3039c .cfa: sp 0 +
STACK CFI INIT 305bc 68 .cfa: sp 0 +
STACK CFI 305c0 .cfa: sp 32 +
STACK CFI 305c8 .cfa: x29 32 + x19: .cfa -8 + ^ x20: .cfa -16 + ^ .ra: .cfa -24 + ^ x29: .cfa -32 + ^
STACK CFI 305e0 .cfa: sp 32 +
STACK CFI 305e8 .cfa: sp 0 +
STACK CFI 305ec .cfa: x29 32 +
STACK CFI 30618 .cfa: sp 32 +
STACK CFI 30620 .cfa: sp 0 +
STACK CFI INIT 30624 14 .cfa: sp 0 +
STACK CFI 30628 .cfa: sp 16 +
STACK CFI 3062c .cfa: x29 16 + .ra: .cfa -8 + ^ x29: .cfa -16 + ^
STACK CFI INIT 30638 4 .cfa: sp 0 +
STACK CFI INIT 3063c 14 .cfa: sp 0 +
STACK CFI INIT 30650 fc .cfa: sp 0 +
STACK CFI 30654 .cfa: sp 64 +
STACK CFI 30664 .cfa: x29 64 + x19: .cfa -8 + ^ x20: .cfa -16 + ^ x21: .cfa -24 + ^ x22: .cfa -32 + ^ x23: .cfa -40 + ^ x24: .cfa -48 + ^ .ra: .cfa -56 + ^ x29: .cfa -64 + ^
STACK CFI 30738 .cfa: sp 64 +
STACK CFI 30748 .cfa: sp 0 +
STACK CFI INIT 3074c d4 .cfa: sp 0 +
STACK CFI 30750 .cfa: sp 48 +
STACK CFI 3075c .cfa: x29 48 + x19: .cfa -8 + ^ x20: .cfa -16 + ^ x21: .cfa -32 + ^ .ra: .cfa -40 + ^ x29: .cfa -48 + ^
STACK CFI 307ec .cfa: sp 48 +
STACK CFI 307f8 .cfa: sp 0 +
STACK CFI 307fc .cfa: x29 48 +
STACK CFI INIT 30820 388 .cfa: sp 0 +
STACK CFI INIT 30ba8 8c .cfa: sp 0 +
STACK CFI 30bb0 .cfa: sp 32 +
STACK CFI 30bb8 .cfa: x29 32 + x19: .cfa -8 + ^ x20: .cfa -16 + ^ .ra: .cfa -24 + ^ x29: .cfa -32 + ^
STACK CFI 30c00 .cfa: sp 32 +
STACK CFI 30c08 .cfa: sp 0 +
STACK CFI 30c10 .cfa: x29 32 +
STACK CFI INIT 30c34 3c .cfa: sp 0 +
STACK CFI 30c38 .cfa: sp 32 +
STACK CFI 30c40 .cfa: x29 32 + x19: .cfa -8 + ^ x20: .cfa -16 + ^ .ra: .cfa -24 + ^ x29: .cfa -32 + ^
STACK CFI 30c64 .cfa: sp 32 +
STACK CFI 30c6c .cfa: sp 0 +
STACK CFI INIT 30c70 50 .cfa: sp 0 +
STACK CFI 30c74 .cfa: sp 32 +
STACK CFI 30c7c .cfa: x29 32 + x19: .cfa -16 + ^ .ra: .cfa -24 + ^ x29: .cfa -32 + ^
STACK CFI 30c94 .cfa: sp 32 +
STACK CFI 30c9c .cfa: sp 0 +
STACK CFI 30ca0 .cfa: x29 32 +
STACK CFI 30cb4 .cfa: sp 32 +
STACK CFI 30cbc .cfa: sp 0 +
STACK CFI INIT 30cc0 64 .cfa: sp 0 +
STACK CFI 30cc4 .cfa: sp 32 +
STACK CFI 30ccc .cfa: x29 32 + x19: .cfa -16 + ^ .ra: .cfa -24 + ^ x29: .cfa -32 + ^
STACK CFI 30cf8 .cfa: sp 32 +
STACK CFI 30d00 .cfa: sp 0 +
STACK CFI 30d04 .cfa: x29 32 +
STACK CFI 30d18 .cfa: sp 32 +
STACK CFI 30d20 .cfa: sp 0 +
STACK CFI INIT 30d24 104 .cfa: sp 0 +
STACK CFI 30d28 .cfa: sp 80 +
STACK CFI 30d3c .cfa: x29 80 + x19: .cfa -8 + ^ x20: .cfa -16 + ^ x21: .cfa -24 + ^ x22: .cfa -32 + ^ x23: .cfa -40 + ^ x24: .cfa -48 + ^ x25: .cfa -56 + ^ x26: .cfa -64 + ^ .ra: .cfa -72 + ^ x29: .cfa -80 + ^
STACK CFI 30e10 .cfa: sp 80 +
STACK CFI 30e24 .cfa: sp 0 +
STACK CFI INIT 31228 1c .cfa: sp 0 +
STACK CFI INIT 315fc 4 .cfa: sp 0 +
STACK CFI INIT 31e98 1c .cfa: sp 0 +
STACK CFI INIT 32214 4 .cfa: sp 0 +
STACK CFI INIT 32e5c 1c .cfa: sp 0 +
STACK CFI INIT 3350c 4 .cfa: sp 0 +
STACK CFI INIT 337e4 1c .cfa: sp 0 +
STACK CFI 337e8 .cfa: sp 16 +
STACK CFI 337ec .cfa: x29 16 + .ra: .cfa -8 + ^ x29: .cfa -16 + ^
STACK CFI 337f8 .cfa: sp 16 +
STACK CFI 337fc .cfa: sp 0 +
STACK CFI INIT 33800 90 .cfa: sp 0 +
STACK CFI 33804 .cfa: sp 32 +
STACK CFI 3380c .cfa: x29 32 + x19: .cfa -16 + ^ .ra: .cfa -24 + ^ x29: .cfa -32 + ^
STACK CFI 33884 .cfa: sp 32 +
STACK CFI 3388c .cfa: sp 0 +
STACK CFI INIT 33890 1c .cfa: sp 0 +
STACK CFI 33894 .cfa: sp 16 +
STACK CFI 33898 .cfa: x29 16 + .ra: .cfa -8 + ^ x29: .cfa -16 + ^
STACK CFI 338a4 .cfa: sp 16 +
STACK CFI 338a8 .cfa: sp 0 +
STACK CFI INIT 338ac 30 .cfa: sp 0 +
STACK CFI 338b0 .cfa: sp 32 +
STACK CFI 338b8 .cfa: x29 32 + x19: .cfa -16 + ^ .ra: .cfa -24 + ^ x29: .cfa -32 + ^
STACK CFI 338d0 .cfa: sp 32 +
STACK CFI 338d8 .cfa: sp 0 +
STACK CFI INIT 338dc 4c .cfa: sp 0 +
STACK CFI 338e0 .cfa: sp 32 +
STACK CFI 338e8 .cfa: x29 32 + x19: .cfa -8 + ^ x20: .cfa -16 + ^ .ra: .cfa -24 + ^ x29: .cfa -32 + ^
STACK CFI 33910 .cfa: sp 32 +
STACK CFI 33918 .cfa: sp 0 +
STACK CFI 3391c .cfa: sp 32 +
STACK CFI 33924 .cfa: sp 0 +
STACK CFI INIT 33b48 64 .cfa: sp 0 +
STACK CFI 33b4c .cfa: sp 32 +
STACK CFI 33b54 .cfa: x29 32 + x19: .cfa -16 + ^ .ra: .cfa -24 + ^ x29: .cfa -32 + ^
STACK CFI 33b80 .cfa: sp 32 +
STACK CFI 33b88 .cfa: sp 0 +
STACK CFI 33b8c .cfa: x29 32 +
STACK CFI 33ba0 .cfa: sp 32 +
STACK CFI 33ba8 .cfa: sp 0 +
STACK CFI INIT 33bac 24 .cfa: sp 0 +
STACK CFI 33bb0 .cfa: sp 32 +
STACK CFI 33bb8 .cfa: x29 32 + x19: .cfa -16 + ^ .ra: .cfa -24 + ^ x29: .cfa -32 + ^
STACK CFI 33bc4 .cfa: sp 32 +
STACK CFI 33bcc .cfa: sp 0 +
STACK CFI INIT 33bd0 24 .cfa: sp 0 +
STACK CFI 33bd4 .cfa: sp 32 +
STACK CFI 33bdc .cfa: x29 32 + x19: .cfa -16 + ^ .ra: .cfa -24 + ^ x29: .cfa -32 + ^
STACK CFI 33be8 .cfa: sp 32 +
STACK CFI 33bf0 .cfa: sp 0 +
STACK CFI INIT 33bf4 8 .cfa: sp 0 +
STACK CFI INIT 33bfc 24 .cfa: sp 0 +
STACK CFI 33c00 .cfa: sp 32 +
STACK CFI 33c08 .cfa: x29 32 + x19: .cfa -16 + ^ .ra: .cfa -24 + ^ x29: .cfa -32 + ^
STACK CFI 33c14 .cfa: sp 32 +
STACK CFI 33c1c .cfa: sp 0 +
STACK CFI INIT 33c20 28 .cfa: sp 0 +
STACK CFI 33c24 .cfa: sp 32 +
STACK CFI 33c2c .cfa: x29 32 + x19: .cfa -16 + ^ .ra: .cfa -24 + ^ x29: .cfa -32 + ^
STACK CFI 33c3c .cfa: sp 32 +
STACK CFI 33c44 .cfa: sp 0 +
STACK CFI INIT 33f38 8 .cfa: sp 0 +
STACK CFI INIT 33f40 24 .cfa: sp 0 +
STACK CFI 33f44 .cfa: sp 32 +
STACK CFI 33f4c .cfa: x29 32 + x19: .cfa -16 + ^ .ra: .cfa -24 + ^ x29: .cfa -32 + ^
STACK CFI 33f58 .cfa: sp 32 +
STACK CFI 33f60 .cfa: sp 0 +
STACK CFI INIT 33f64 28 .cfa: sp 0 +
STACK CFI 33f68 .cfa: sp 32 +
STACK CFI 33f70 .cfa: x29 32 + x19: .cfa -16 + ^ .ra: .cfa -24 + ^ x29: .cfa -32 + ^
STACK CFI 33f80 .cfa: sp 32 +
STACK CFI 33f88 .cfa: sp 0 +
STACK CFI INIT 341ec 8 .cfa: sp 0 +
STACK CFI INIT 341f4 24 .cfa: sp 0 +
STACK CFI 341f8 .cfa: sp 32 +
STACK CFI 34200 .cfa: x29 32 + x19: .cfa -16 + ^ .ra: .cfa -24 + ^ x29: .cfa -32 + ^
STACK CFI 3420c .cfa: sp 32 +
STACK CFI 34214 .cfa: sp 0 +
STACK CFI INIT 34218 28 .cfa: sp 0 +
STACK CFI 3421c .cfa: sp 32 +
STACK CFI 34224 .cfa: x29 32 + x19: .cfa -16 + ^ .ra: .cfa -24 + ^ x29: .cfa -32 + ^
STACK CFI 34234 .cfa: sp 32 +
STACK CFI 3423c .cfa: sp 0 +
STACK CFI INIT 34240 8 .cfa: sp 0 +
STACK CFI INIT 34248 24 .cfa: sp 0 +
STACK CFI 3424c .cfa: sp 32 +
STACK CFI 34254 .cfa: x29 32 + x19: .cfa -16 + ^ .ra: .cfa -24 + ^ x29: .cfa -32 + ^
STACK CFI 34260 .cfa: sp 32 +
STACK CFI 34268 .cfa: sp 0 +
STACK CFI INIT 3426c 28 .cfa: sp 0 +
STACK CFI 34270 .cfa: sp 32 +
STACK CFI 34278 .cfa: x29 32 + x19: .cfa -16 + ^ .ra: .cfa -24 + ^ x29: .cfa -32 + ^
STACK CFI 34288 .cfa: sp 32 +
STACK CFI 34290 .cfa: sp 0 +
STACK CFI INIT 34594 4 .cfa: sp 0 +
STACK CFI INIT 35818 4 .cfa: sp 0 +
STACK CFI INIT 3581c 14 .cfa: sp 0 +
STACK CFI INIT 35c60 c .cfa: sp 0 +
STACK CFI INIT 35c6c 24c .cfa: sp 0 +
STACK CFI INIT 35eb8 a0 .cfa: sp 0 +
STACK CFI 35ec4 .cfa: sp 32 +
STACK CFI 35f1c .cfa: sp 0 +
STACK CFI 35f20 .cfa: sp 32 +
STACK CFI 35f28 .cfa: sp 0 +
STACK CFI 35f2c .cfa: sp 32 +
STACK CFI 35f40 .cfa: sp 0 +
STACK CFI 35f44 .cfa: sp 32 +
STACK CFI 35f54 .cfa: sp 0 +
STACK CFI INIT 35f58 38 .cfa: sp 0 +
STACK CFI 35f64 .cfa: sp 32 +
STACK CFI 35f8c .cfa: sp 0 +
STACK CFI INIT 36224 70 .cfa: sp 0 +
STACK CFI 36228 .cfa: sp 32 +
STACK CFI 36230 .cfa: x29 32 + x19: .cfa -16 + ^ .ra: .cfa -24 + ^ x29: .cfa -32 + ^
STACK CFI 36264 .cfa: sp 32 +
STACK CFI 3626c .cfa: sp 0 +
STACK CFI 36270 .cfa: x29 32 +
STACK CFI INIT 362e4 2c .cfa: sp 0 +
STACK CFI 362e8 .cfa: sp 32 +
STACK CFI 362f0 .cfa: x29 32 + x19: .cfa -16 + ^ .ra: .cfa -24 + ^ x29: .cfa -32 + ^
STACK CFI 36304 .cfa: sp 32 +
STACK CFI 3630c .cfa: sp 0 +
STACK CFI INIT 36a60 64 .cfa: sp 0 +
STACK CFI 36a64 .cfa: sp 32 +
STACK CFI 36a6c .cfa: x29 32 + x19: .cfa -16 + ^ .ra: .cfa -24 + ^ x29: .cfa -32 + ^
STACK CFI 36a88 .cfa: sp 32 +
STACK CFI 36a90 .cfa: sp 0 +
STACK CFI 36a94 .cfa: x29 32 +
STACK CFI 36ab8 .cfa: sp 32 +
STACK CFI 36ac0 .cfa: sp 0 +
STACK CFI INIT 36bf0 3c8 .cfa: sp 0 +
STACK CFI 36bf4 .cfa: sp 208 +
STACK CFI 36c08 .cfa: x29 64 + x19: .cfa -8 + ^ x20: .cfa -16 + ^ x21: .cfa -24 + ^ x22: .cfa -32 + ^ x23: .cfa -40 + ^ x24: .cfa -48 + ^ .ra: .cfa -56 + ^ x29: .cfa -64 + ^
STACK CFI 36e20 .cfa: sp 208 +
STACK CFI 36e34 .cfa: sp 0 +
STACK CFI 36e38 .cfa: x29 64 +
STACK CFI INIT 36fb8 228 .cfa: sp 0 +
STACK CFI INIT 371e0 2b4 .cfa: sp 0 +
STACK CFI INIT 37494 530 .cfa: sp 0 +
STACK CFI INIT 379c4 78 .cfa: sp 0 +
STACK CFI 379c8 .cfa: sp 48 +
STACK CFI 379d4 .cfa: x29 48 + x19: .cfa -8 + ^ x20: .cfa -16 + ^ x21: .cfa -24 + ^ x22: .cfa -32 + ^ .ra: .cfa -40 + ^ x29: .cfa -48 + ^
STACK CFI 37a1c .cfa: sp 48 +
STACK CFI 37a28 .cfa: sp 0 +
STACK CFI 37a2c .cfa: sp 48 +
STACK CFI 37a38 .cfa: sp 0 +
STACK CFI INIT 37a3c 78 .cfa: sp 0 +
STACK CFI 37a40 .cfa: sp 32 +
STACK CFI 37a48 .cfa: x29 32 + x19: .cfa -16 + ^ .ra: .cfa -24 + ^ x29: .cfa -32 + ^
STACK CFI 37a84 .cfa: sp 32 +
STACK CFI 37a8c .cfa: sp 0 +
STACK CFI 37a90 .cfa: x29 32 +
STACK CFI INIT 37ab4 24 .cfa: sp 0 +
STACK CFI 37ab8 .cfa: sp 32 +
STACK CFI 37ac0 .cfa: x29 32 + x19: .cfa -16 + ^ .ra: .cfa -24 + ^ x29: .cfa -32 + ^
STACK CFI 37acc .cfa: sp 32 +
STACK CFI 37ad4 .cfa: sp 0 +
STACK CFI INIT 37ad8 150 .cfa: sp 0 +
STACK CFI 37adc .cfa: sp 48 +
STACK CFI 37ae8 .cfa: x29 48 + x19: .cfa -8 + ^ x20: .cfa -16 + ^ x21: .cfa -24 + ^ x22: .cfa -32 + ^ .ra: .cfa -40 + ^ x29: .cfa -48 + ^
STACK CFI 37c18 .cfa: sp 48 +
STACK CFI 37c24 .cfa: sp 0 +
STACK CFI INIT 37c28 6c .cfa: sp 0 +
STACK CFI 37c2c .cfa: sp 64 +
STACK CFI 37c38 .cfa: x29 32 + x19: .cfa -16 + ^ .ra: .cfa -24 + ^ x29: .cfa -32 + ^
STACK CFI 37c80 .cfa: sp 64 +
STACK CFI 37c8c .cfa: sp 0 +
STACK CFI 37c90 .cfa: x29 32 +
STACK CFI INIT 37c94 74 .cfa: sp 0 +
STACK CFI 37c98 .cfa: sp 32 +
STACK CFI 37ca0 .cfa: x29 32 + x19: .cfa -8 + ^ x20: .cfa -16 + ^ .ra: .cfa -24 + ^ x29: .cfa -32 + ^
STACK CFI 37cfc .cfa: sp 32 +
STACK CFI 37d04 .cfa: sp 0 +
STACK CFI INIT 37d08 f0 .cfa: sp 0 +
STACK CFI 37d0c .cfa: sp 112 +
STACK CFI 37d1c .cfa: x29 48 + x19: .cfa -8 + ^ x20: .cfa -16 + ^ x21: .cfa -32 + ^ .ra: .cfa -40 + ^ x29: .cfa -48 + ^
STACK CFI 37de0 .cfa: sp 112 +
STACK CFI 37df0 .cfa: sp 0 +
STACK CFI 37df4 .cfa: x29 48 +
STACK CFI INIT 37df8 f0 .cfa: sp 0 +
STACK CFI 37dfc .cfa: sp 112 +
STACK CFI 37e0c .cfa: x29 48 + x19: .cfa -8 + ^ x20: .cfa -16 + ^ x21: .cfa -32 + ^ .ra: .cfa -40 + ^ x29: .cfa -48 + ^
STACK CFI 37ed0 .cfa: sp 112 +
STACK CFI 37ee0 .cfa: sp 0 +
STACK CFI 37ee4 .cfa: x29 48 +
STACK CFI INIT 37ee8 48 .cfa: sp 0 +
STACK CFI 37eec .cfa: sp 32 +
STACK CFI 37ef4 .cfa: x29 32 + x19: .cfa -8 + ^ x20: .cfa -16 + ^ .ra: .cfa -24 + ^ x29: .cfa -32 + ^
STACK CFI 37f18 .cfa: sp 32 +
STACK CFI 37f20 .cfa: sp 0 +
STACK CFI 37f24 .cfa: x29 32 +
STACK CFI INIT 37f30 9c .cfa: sp 0 +
STACK CFI 37f34 .cfa: sp 80 +
STACK CFI 37f40 .cfa: x29 32 + x19: .cfa -16 + ^ .ra: .cfa -24 + ^ x29: .cfa -32 + ^
STACK CFI 37fb8 .cfa: sp 80 +
STACK CFI 37fc4 .cfa: sp 0 +
STACK CFI 37fc8 .cfa: x29 32 +
STACK CFI INIT 37fcc 220 .cfa: sp 0 +
STACK CFI 37fd0 .cfa: sp 112 +
STACK CFI 37fe8 .cfa: x29 80 + x19: .cfa -8 + ^ x20: .cfa -16 + ^ x21: .cfa -24 + ^ x22: .cfa -32 + ^ x23: .cfa -40 + ^ x24: .cfa -48 + ^ x25: .cfa -64 + ^ .ra: .cfa -72 + ^ x29: .cfa -80 + ^
STACK CFI 381ac .cfa: sp 112 +
STACK CFI 381c4 .cfa: sp 0 +
STACK CFI 381c8 .cfa: x29 80 +
STACK CFI INIT 381ec 150 .cfa: sp 0 +
STACK CFI 381f0 .cfa: sp 48 +
STACK CFI 381fc .cfa: x29 48 + x19: .cfa -8 + ^ x20: .cfa -16 + ^ x21: .cfa -24 + ^ x22: .cfa -32 + ^ .ra: .cfa -40 + ^ x29: .cfa -48 + ^
STACK CFI 3832c .cfa: sp 48 +
STACK CFI 38338 .cfa: sp 0 +
STACK CFI INIT 3833c 1c4 .cfa: sp 0 +
STACK CFI 38340 .cfa: sp 96 +
STACK CFI 38354 .cfa: x29 64 + x19: .cfa -8 + ^ x20: .cfa -16 + ^ x21: .cfa -24 + ^ x22: .cfa -32 + ^ x23: .cfa -40 + ^ x24: .cfa -48 + ^ .ra: .cfa -56 + ^ x29: .cfa -64 + ^
STACK CFI 384c4 .cfa: sp 96 +
STACK CFI 384d8 .cfa: sp 0 +
STACK CFI 384dc .cfa: x29 64 +
STACK CFI INIT 38500 244 .cfa: sp 0 +
STACK CFI 38504 .cfa: sp 112 +
STACK CFI 3851c .cfa: x29 80 + x19: .cfa -8 + ^ x20: .cfa -16 + ^ x21: .cfa -24 + ^ x22: .cfa -32 + ^ x23: .cfa -40 + ^ x24: .cfa -48 + ^ x25: .cfa -64 + ^ .ra: .cfa -72 + ^ x29: .cfa -80 + ^
STACK CFI 38704 .cfa: sp 112 +
STACK CFI 3871c .cfa: sp 0 +
STACK CFI 38720 .cfa: x29 80 +
STACK CFI INIT 38744 1ec .cfa: sp 0 +
STACK CFI 38748 .cfa: sp 96 +
STACK CFI 3875c .cfa: x29 64 + x19: .cfa -8 + ^ x20: .cfa -16 + ^ x21: .cfa -24 + ^ x22: .cfa -32 + ^ x23: .cfa -40 + ^ x24: .cfa -48 + ^ .ra: .cfa -56 + ^ x29: .cfa -64 + ^
STACK CFI 388f4 .cfa: sp 96 +
STACK CFI 38908 .cfa: sp 0 +
STACK CFI 3890c .cfa: x29 64 +
STACK CFI INIT 38930 304 .cfa: sp 0 +
STACK CFI 38934 .cfa: sp 160 +
STACK CFI 38950 .cfa: x29 96 + x19: .cfa -8 + ^ x20: .cfa -16 + ^ x21: .cfa -24 + ^ x22: .cfa -32 + ^ x23: .cfa -40 + ^ x24: .cfa -48 + ^ x25: .cfa -56 + ^ x26: .cfa -64 + ^ x27: .cfa -72 + ^ x28: .cfa -80 + ^ .ra: .cfa -88 + ^ x29: .cfa -96 + ^
STACK CFI 38bd8 .cfa: sp 160 +
STACK CFI 38bf4 .cfa: sp 0 +
STACK CFI 38bf8 .cfa: x29 96 +
STACK CFI INIT 38c34 2a4 .cfa: sp 0 +
STACK CFI 38c38 .cfa: sp 144 +
STACK CFI 38c54 .cfa: x29 96 + x19: .cfa -8 + ^ x20: .cfa -16 + ^ x21: .cfa -24 + ^ x22: .cfa -32 + ^ x23: .cfa -40 + ^ x24: .cfa -48 + ^ x25: .cfa -56 + ^ x26: .cfa -64 + ^ x27: .cfa -72 + ^ x28: .cfa -80 + ^ .ra: .cfa -88 + ^ x29: .cfa -96 + ^
STACK CFI 38e7c .cfa: sp 144 +
STACK CFI 38e98 .cfa: sp 0 +
STACK CFI 38e9c .cfa: x29 96 +
STACK CFI INIT 38ed8 290 .cfa: sp 0 +
STACK CFI 38edc .cfa: sp 128 +
STACK CFI 38ef4 .cfa: x29 80 + x19: .cfa -8 + ^ x20: .cfa -16 + ^ x21: .cfa -24 + ^ x22: .cfa -32 + ^ x23: .cfa -40 + ^ x24: .cfa -48 + ^ x25: .cfa -56 + ^ x26: .cfa -64 + ^ .ra: .cfa -72 + ^ x29: .cfa -80 + ^
STACK CFI 39148 .cfa: sp 128 +
STACK CFI 39160 .cfa: sp 0 +
STACK CFI 39164 .cfa: x29 80 +
STACK CFI INIT 39168 dc0 .cfa: sp 0 +
STACK CFI 3916c .cfa: sp 144 +
STACK CFI 39188 .cfa: x29 96 + x19: .cfa -8 + ^ x20: .cfa -16 + ^ x21: .cfa -24 + ^ x22: .cfa -32 + ^ x23: .cfa -40 + ^ x24: .cfa -48 + ^ x25: .cfa -56 + ^ x26: .cfa -64 + ^ x27: .cfa -72 + ^ x28: .cfa -80 + ^ .ra: .cfa -88 + ^ x29: .cfa -96 + ^
STACK CFI 39f04 .cfa: sp 144 +
STACK CFI 39f20 .cfa: sp 0 +
STACK CFI 39f24 .cfa: x29 96 +
STACK CFI INIT 39f28 1d0 .cfa: sp 0 +
STACK CFI 39f2c .cfa: sp 80 +
STACK CFI 39f40 .cfa: x29 80 + x19: .cfa -8 + ^ x20: .cfa -16 + ^ x21: .cfa -24 + ^ x22: .cfa -32 + ^ x23: .cfa -40 + ^ x24: .cfa -48 + ^ x25: .cfa -56 + ^ x26: .cfa -64 + ^ .ra: .cfa -72 + ^ x29: .cfa -80 + ^
STACK CFI 3a0e0 .cfa: sp 80 +
STACK CFI 3a0f4 .cfa: sp 0 +
STACK CFI INIT 3a0f8 22c .cfa: sp 0 +
STACK CFI 3a0fc .cfa: sp 112 +
STACK CFI 3a110 .cfa: x29 64 + x19: .cfa -8 + ^ x20: .cfa -16 + ^ x21: .cfa -24 + ^ x22: .cfa -32 + ^ x23: .cfa -40 + ^ x24: .cfa -48 + ^ .ra: .cfa -56 + ^ x29: .cfa -64 + ^
STACK CFI 3a2dc .cfa: sp 112 +
STACK CFI 3a2f0 .cfa: sp 0 +
STACK CFI 3a2f4 .cfa: x29 64 +
STACK CFI INIT 3a324 30c .cfa: sp 0 +
STACK CFI 3a328 .cfa: sp 80 +
STACK CFI 3a33c .cfa: x29 64 + x19: .cfa -8 + ^ x20: .cfa -16 + ^ x21: .cfa -24 + ^ x22: .cfa -32 + ^ x23: .cfa -40 + ^ x24: .cfa -48 + ^ .ra: .cfa -56 + ^ x29: .cfa -64 + ^
STACK CFI 3a4b8 .cfa: sp 80 +
STACK CFI 3a4cc .cfa: sp 0 +
STACK CFI 3a4d0 .cfa: x29 64 +
STACK CFI INIT 3a630 178 .cfa: sp 0 +
STACK CFI 3a634 .cfa: sp 80 +
STACK CFI 3a648 .cfa: x29 64 + x19: .cfa -8 + ^ x20: .cfa -16 + ^ x21: .cfa -24 + ^ x22: .cfa -32 + ^ x23: .cfa -40 + ^ x24: .cfa -48 + ^ .ra: .cfa -56 + ^ x29: .cfa -64 + ^
STACK CFI 3a78c .cfa: sp 80 +
STACK CFI 3a7a0 .cfa: sp 0 +
STACK CFI 3a7a4 .cfa: x29 64 +
STACK CFI INIT 3a7a8 178 .cfa: sp 0 +
STACK CFI 3a7ac .cfa: sp 80 +
STACK CFI 3a7c0 .cfa: x29 64 + x19: .cfa -8 + ^ x20: .cfa -16 + ^ x21: .cfa -24 + ^ x22: .cfa -32 + ^ x23: .cfa -40 + ^ x24: .cfa -48 + ^ .ra: .cfa -56 + ^ x29: .cfa -64 + ^
STACK CFI 3a904 .cfa: sp 80 +
STACK CFI 3a918 .cfa: sp 0 +
STACK CFI 3a91c .cfa: x29 64 +
STACK CFI INIT 3a920 240 .cfa: sp 0 +
STACK CFI 3a924 .cfa: sp 96 +
STACK CFI 3a93c .cfa: x29 96 + x19: .cfa -8 + ^ x20: .cfa -16 + ^ x21: .cfa -24 + ^ x22: .cfa -32 + ^ x23: .cfa -40 + ^ x24: .cfa -48 + ^ x25: .cfa -56 + ^ x26: .cfa -64 + ^ x27: .cfa -72 + ^ x28: .cfa -80 + ^ .ra: .cfa -88 + ^ x29: .cfa -96 + ^
STACK CFI 3ab44 .cfa: sp 96 +
STACK CFI 3ab5c .cfa: sp 0 +
STACK CFI INIT 3b78c 154 .cfa: sp 0 +
STACK CFI 3b790 .cfa: sp 96 +
STACK CFI 3b7a4 .cfa: x29 64 + x19: .cfa -8 + ^ x20: .cfa -16 + ^ x21: .cfa -24 + ^ x22: .cfa -32 + ^ x23: .cfa -48 + ^ .ra: .cfa -56 + ^ x29: .cfa -64 + ^
STACK CFI 3b884 .cfa: sp 96 +
STACK CFI 3b898 .cfa: sp 0 +
STACK CFI 3b89c .cfa: x29 64 +
STACK CFI INIT 3bb18 44 .cfa: sp 0 +
STACK CFI 3bb1c .cfa: sp 32 +
STACK CFI 3bb24 .cfa: x29 32 + x19: .cfa -16 + ^ .ra: .cfa -24 + ^ x29: .cfa -32 + ^
STACK CFI 3bb40 .cfa: sp 32 +
STACK CFI 3bb48 .cfa: sp 0 +
STACK CFI 3bb4c .cfa: x29 32 +
STACK CFI 3bb50 .cfa: sp 32 +
STACK CFI 3bb58 .cfa: sp 0 +
STACK CFI INIT 3bb5c 1a4 .cfa: sp 0 +
STACK CFI 3bb60 .cfa: sp 64 +
STACK CFI 3bb70 .cfa: x29 64 + x19: .cfa -8 + ^ x20: .cfa -16 + ^ x21: .cfa -24 + ^ x22: .cfa -32 + ^ x23: .cfa -40 + ^ x24: .cfa -48 + ^ .ra: .cfa -56 + ^ x29: .cfa -64 + ^
STACK CFI 3bcec .cfa: sp 64 +
STACK CFI 3bcfc .cfa: sp 0 +
STACK CFI INIT 3bd00 17c .cfa: sp 0 +
STACK CFI INIT 3c220 a0 .cfa: sp 0 +
STACK CFI 3c224 .cfa: sp 48 +
STACK CFI 3c230 .cfa: x29 48 + x19: .cfa -8 + ^ x20: .cfa -16 + ^ x21: .cfa -24 + ^ x22: .cfa -32 + ^ .ra: .cfa -40 + ^ x29: .cfa -48 + ^
STACK CFI 3c29c .cfa: sp 48 +
STACK CFI 3c2a8 .cfa: sp 0 +
STACK CFI 3c2ac .cfa: sp 48 +
STACK CFI 3c2b8 .cfa: sp 0 +
STACK CFI 3c2bc .cfa: x29 48 +
STACK CFI INIT 3cf2c 158 .cfa: sp 0 +
STACK CFI 3cf30 .cfa: sp 96 +
STACK CFI 3cf44 .cfa: x29 64 + x19: .cfa -8 + ^ x20: .cfa -16 + ^ x21: .cfa -24 + ^ x22: .cfa -32 + ^ x23: .cfa -48 + ^ .ra: .cfa -56 + ^ x29: .cfa -64 + ^
STACK CFI 3d028 .cfa: sp 96 +
STACK CFI 3d03c .cfa: sp 0 +
STACK CFI 3d040 .cfa: x29 64 +
STACK CFI INIT 3d084 190 .cfa: sp 0 +
STACK CFI INIT 3dce8 1dc .cfa: sp 0 +
STACK CFI 3dcec .cfa: sp 80 +
STACK CFI 3dd00 .cfa: x29 80 + x19: .cfa -8 + ^ x20: .cfa -16 + ^ x21: .cfa -24 + ^ x22: .cfa -32 + ^ x23: .cfa -40 + ^ x24: .cfa -48 + ^ x25: .cfa -64 + ^ .ra: .cfa -72 + ^ x29: .cfa -80 + ^
STACK CFI 3deac .cfa: sp 80 +
STACK CFI 3dec0 .cfa: sp 0 +
STACK CFI INIT 3f214 124 .cfa: sp 0 +
STACK CFI 3f244 .cfa: sp 32 +
STACK CFI 3f24c .cfa: x29 32 + x19: .cfa -8 + ^ x20: .cfa -16 + ^ .ra: .cfa -24 + ^ x29: .cfa -32 + ^
STACK CFI 3f32c .cfa: sp 32 +
STACK CFI 3f334 .cfa: sp 0 +
STACK CFI INIT 3fa7c 2f4 .cfa: sp 0 +
STACK CFI 3fa80 .cfa: sp 64 +
STACK CFI 3fa90 .cfa: x29 64 + x19: .cfa -8 + ^ x20: .cfa -16 + ^ x21: .cfa -24 + ^ x22: .cfa -32 + ^ x23: .cfa -40 + ^ x24: .cfa -48 + ^ .ra: .cfa -56 + ^ x29: .cfa -64 + ^
STACK CFI 3fcec .cfa: sp 64 +
STACK CFI 3fcfc .cfa: sp 0 +
STACK CFI 3fd00 .cfa: x29 64 +
STACK CFI INIT 3fd70 a0 .cfa: sp 0 +
STACK CFI 3fd74 .cfa: sp 48 +
STACK CFI 3fd80 .cfa: x29 48 + x19: .cfa -8 + ^ x20: .cfa -16 + ^ x21: .cfa -24 + ^ x22: .cfa -32 + ^ .ra: .cfa -40 + ^ x29: .cfa -48 + ^
STACK CFI 3fdec .cfa: sp 48 +
STACK CFI 3fdf8 .cfa: sp 0 +
STACK CFI 3fdfc .cfa: sp 48 +
STACK CFI 3fe08 .cfa: sp 0 +
STACK CFI 3fe0c .cfa: x29 48 +
STACK CFI INIT 40c94 160 .cfa: sp 0 +
STACK CFI 40c98 .cfa: sp 64 +
STACK CFI 40ca8 .cfa: x29 64 + x19: .cfa -8 + ^ x20: .cfa -16 + ^ x21: .cfa -24 + ^ x22: .cfa -32 + ^ x23: .cfa -48 + ^ .ra: .cfa -56 + ^ x29: .cfa -64 + ^
STACK CFI 40da0 .cfa: sp 64 +
STACK CFI 40db0 .cfa: sp 0 +
STACK CFI 40db4 .cfa: x29 64 +
STACK CFI INIT 40df4 214 .cfa: sp 0 +
STACK CFI 40df8 .cfa: sp 128 +
STACK CFI 40e14 .cfa: x29 96 + x19: .cfa -8 + ^ x20: .cfa -16 + ^ x21: .cfa -24 + ^ x22: .cfa -32 + ^ x23: .cfa -40 + ^ x24: .cfa -48 + ^ x25: .cfa -56 + ^ x26: .cfa -64 + ^ x27: .cfa -80 + ^ .ra: .cfa -88 + ^ x29: .cfa -96 + ^
STACK CFI 40f90 .cfa: sp 128 +
STACK CFI 40fac .cfa: sp 0 +
STACK CFI 40fb0 .cfa: x29 96 +
STACK CFI INIT 42c44 288 .cfa: sp 0 +
STACK CFI 42c48 .cfa: sp 16 +
STACK CFI 42c4c .cfa: x29 16 + .ra: .cfa -8 + ^ x29: .cfa -16 + ^
STACK CFI 42e94 .cfa: sp 16 +
STACK CFI 42e98 .cfa: sp 0 +
STACK CFI 42e9c .cfa: x29 16 +
STACK CFI INIT 42ecc 158 .cfa: sp 0 +
STACK CFI 42ed0 .cfa: sp 112 +
STACK CFI 42eec .cfa: x29 96 + x19: .cfa -8 + ^ x20: .cfa -16 + ^ x21: .cfa -24 + ^ x22: .cfa -32 + ^ x23: .cfa -40 + ^ x24: .cfa -48 + ^ x25: .cfa -56 + ^ x26: .cfa -64 + ^ x27: .cfa -72 + ^ x28: .cfa -80 + ^ .ra: .cfa -88 + ^ x29: .cfa -96 + ^
STACK CFI 42fd4 .cfa: sp 112 +
STACK CFI 42fd8 .cfa: x29 96 +
STACK CFI 42fe0 .cfa: sp 112 +
STACK CFI 42ffc .cfa: sp 0 +
STACK CFI 43000 .cfa: x29 96 +
STACK CFI 43020 .cfa: sp 112 +
STACK CFI INIT 43024 e24 .cfa: sp 0 +
STACK CFI 43028 .cfa: sp 192 +
STACK CFI 43044 .cfa: x29 96 + x19: .cfa -8 + ^ x20: .cfa -16 + ^ x21: .cfa -24 + ^ x22: .cfa -32 + ^ x23: .cfa -40 + ^ x24: .cfa -48 + ^ x25: .cfa -56 + ^ x26: .cfa -64 + ^ x27: .cfa -72 + ^ x28: .cfa -80 + ^ .ra: .cfa -88 + ^ x29: .cfa -96 + ^
STACK CFI 43e24 .cfa: sp 192 +
STACK CFI 43e40 .cfa: sp 0 +
STACK CFI 43e44 .cfa: x29 96 +
STACK CFI INIT 43e48 fc8 .cfa: sp 0 +
STACK CFI 43e4c .cfa: sp 288 +
STACK CFI 43e68 .cfa: x29 96 + x19: .cfa -8 + ^ x20: .cfa -16 + ^ x21: .cfa -24 + ^ x22: .cfa -32 + ^ x23: .cfa -40 + ^ x24: .cfa -48 + ^ x25: .cfa -56 + ^ x26: .cfa -64 + ^ x27: .cfa -72 + ^ x28: .cfa -80 + ^ .ra: .cfa -88 + ^ x29: .cfa -96 + ^
STACK CFI 44dec .cfa: sp 288 +
STACK CFI 44e08 .cfa: sp 0 +
STACK CFI 44e0c .cfa: x29 96 +
STACK CFI INIT 44e10 510 .cfa: sp 0 +
STACK CFI 44e14 .cfa: sp 144 +
STACK CFI 44e30 .cfa: x29 96 + x19: .cfa -8 + ^ x20: .cfa -16 + ^ x21: .cfa -24 + ^ x22: .cfa -32 + ^ x23: .cfa -40 + ^ x24: .cfa -48 + ^ x25: .cfa -56 + ^ x26: .cfa -64 + ^ x27: .cfa -72 + ^ x28: .cfa -80 + ^ .ra: .cfa -88 + ^ x29: .cfa -96 + ^
STACK CFI 452fc .cfa: sp 144 +
STACK CFI 45318 .cfa: sp 0 +
STACK CFI 4531c .cfa: x29 96 +
STACK CFI INIT 45cac cb8 .cfa: sp 0 +
STACK CFI 45cb0 .cfa: sp 192 +
STACK CFI 45ccc .cfa: x29 96 + x19: .cfa -8 + ^ x20: .cfa -16 + ^ x21: .cfa -24 + ^ x22: .cfa -32 + ^ x23: .cfa -40 + ^ x24: .cfa -48 + ^ x25: .cfa -56 + ^ x26: .cfa -64 + ^ x27: .cfa -72 + ^ x28: .cfa -80 + ^ .ra: .cfa -88 + ^ x29: .cfa -96 + ^
STACK CFI 46940 .cfa: sp 192 +
STACK CFI 4695c .cfa: sp 0 +
STACK CFI 46960 .cfa: x29 96 +
STACK CFI INIT 46964 17c .cfa: sp 0 +
STACK CFI 46968 .cfa: sp 80 +
STACK CFI 4697c .cfa: x29 80 + x19: .cfa -8 + ^ x20: .cfa -16 + ^ x21: .cfa -24 + ^ x22: .cfa -32 + ^ x23: .cfa -40 + ^ x24: .cfa -48 + ^ x25: .cfa -64 + ^ .ra: .cfa -72 + ^ x29: .cfa -80 + ^
STACK CFI 46a84 .cfa: sp 80 +
STACK CFI 46a98 .cfa: sp 0 +
STACK CFI 46a9c .cfa: x29 80 +
STACK CFI INIT 46ae0 1b8 .cfa: sp 0 +
STACK CFI INIT 23890 1ec .cfa: sp 0 +
STACK CFI 23894 .cfa: sp 192 +
STACK CFI 238a0 .cfa: x29 32 + x19: .cfa -8 + ^ x20: .cfa -16 + ^ .ra: .cfa -24 + ^ x29: .cfa -32 + ^
STACK CFI 239ac .cfa: sp 192 +
STACK CFI 239b8 .cfa: sp 0 +
STACK CFI 239bc .cfa: x29 32 +
STACK CFI INIT 23a7c 124 .cfa: sp 0 +
STACK CFI 23a80 .cfa: sp 64 +
STACK CFI 23a90 .cfa: x29 64 + x19: .cfa -8 + ^ x20: .cfa -16 + ^ x21: .cfa -24 + ^ x22: .cfa -32 + ^ x23: .cfa -40 + ^ x24: .cfa -48 + ^ .ra: .cfa -56 + ^ x29: .cfa -64 + ^
STACK CFI 23b60 .cfa: sp 64 +
STACK CFI 23b70 .cfa: sp 0 +
STACK CFI 23b74 .cfa: x29 64 +
STACK CFI INIT 23ba0 f0 .cfa: sp 0 +
STACK CFI 23ba4 .cfa: sp 32 +
STACK CFI 23bac .cfa: x29 32 + x19: .cfa -8 + ^ x20: .cfa -16 + ^ .ra: .cfa -24 + ^ x29: .cfa -32 + ^
STACK CFI 23c28 .cfa: sp 32 +
STACK CFI 23c2c .cfa: x29 32 +
STACK CFI 23c38 .cfa: sp 32 +
STACK CFI 23c40 .cfa: sp 0 +
STACK CFI 23c44 .cfa: x29 32 +
STACK CFI INIT 23d40 100 .cfa: sp 0 +
STACK CFI 23d44 .cfa: sp 96 +
STACK CFI 23d54 .cfa: x29 48 + x19: .cfa -8 + ^ x20: .cfa -16 + ^ x21: .cfa -24 + ^ x22: .cfa -32 + ^ .ra: .cfa -40 + ^ x29: .cfa -48 + ^
STACK CFI 23de0 .cfa: sp 96 +
STACK CFI 23df0 .cfa: sp 0 +
STACK CFI 23df4 .cfa: x29 48 +
STACK CFI INIT 23ed0 9f0 .cfa: sp 0 +
STACK CFI 23ed4 .cfa: sp 304 +
STACK CFI 23ef0 .cfa: x29 96 + x19: .cfa -8 + ^ x20: .cfa -16 + ^ x21: .cfa -24 + ^ x22: .cfa -32 + ^ x23: .cfa -40 + ^ x24: .cfa -48 + ^ x25: .cfa -56 + ^ x26: .cfa -64 + ^ x28: .cfa -80 + ^ .ra: .cfa -88 + ^ x29: .cfa -96 + ^
STACK CFI 24620 .cfa: sp 304 +
STACK CFI 2463c .cfa: sp 0 +
STACK CFI 24640 .cfa: x29 96 +
STACK CFI INIT 248d4 50 .cfa: sp 0 +
STACK CFI 248d8 .cfa: sp 32 +
STACK CFI 248e0 .cfa: x29 32 + x19: .cfa -8 + ^ x20: .cfa -16 + ^ .ra: .cfa -24 + ^ x29: .cfa -32 + ^
STACK CFI INIT 249c4 36c .cfa: sp 0 +
STACK CFI 249c8 .cfa: sp 160 +
STACK CFI 249e4 .cfa: x29 96 + x19: .cfa -8 + ^ x20: .cfa -16 + ^ x21: .cfa -24 + ^ x22: .cfa -32 + ^ x23: .cfa -40 + ^ x24: .cfa -48 + ^ x25: .cfa -56 + ^ x26: .cfa -64 + ^ x27: .cfa -72 + ^ x28: .cfa -80 + ^ .ra: .cfa -88 + ^ x29: .cfa -96 + ^
STACK CFI 24cd4 .cfa: sp 160 +
STACK CFI 24cf0 .cfa: sp 0 +
STACK CFI 24cf4 .cfa: x29 96 +
STACK CFI INIT 252e0 108 .cfa: sp 0 +
STACK CFI 252e4 .cfa: sp 112 +
STACK CFI 252f8 .cfa: x29 64 + x19: .cfa -8 + ^ x20: .cfa -16 + ^ x21: .cfa -24 + ^ x22: .cfa -32 + ^ x23: .cfa -40 + ^ x24: .cfa -48 + ^ .ra: .cfa -56 + ^ x29: .cfa -64 + ^
STACK CFI 253a8 .cfa: sp 112 +
STACK CFI 253bc .cfa: sp 0 +
STACK CFI 253c0 .cfa: x29 64 +
STACK CFI INIT 25808 ec .cfa: sp 0 +
STACK CFI 2580c .cfa: sp 32 +
STACK CFI 25814 .cfa: x29 32 + x19: .cfa -8 + ^ x20: .cfa -16 + ^ .ra: .cfa -24 + ^ x29: .cfa -32 + ^
STACK CFI 2588c .cfa: sp 32 +
STACK CFI 25890 .cfa: x29 32 +
STACK CFI 2589c .cfa: sp 32 +
STACK CFI 258a4 .cfa: sp 0 +
STACK CFI 258a8 .cfa: x29 32 +
STACK CFI INIT 25978 2ec .cfa: sp 0 +
STACK CFI 2597c .cfa: sp 128 +
STACK CFI 25998 .cfa: x29 96 + x19: .cfa -8 + ^ x20: .cfa -16 + ^ x21: .cfa -24 + ^ x22: .cfa -32 + ^ x23: .cfa -40 + ^ x24: .cfa -48 + ^ x25: .cfa -56 + ^ x26: .cfa -64 + ^ x27: .cfa -72 + ^ x28: .cfa -80 + ^ .ra: .cfa -88 + ^ x29: .cfa -96 + ^
STACK CFI 25be4 .cfa: sp 128 +
STACK CFI 25c00 .cfa: sp 0 +
STACK CFI 25c04 .cfa: x29 96 +
STACK CFI INIT 25c9c 174 .cfa: sp 0 +
STACK CFI 25ca0 .cfa: sp 112 +
STACK CFI 25cb0 .cfa: x29 48 + x19: .cfa -8 + ^ x20: .cfa -16 + ^ x21: .cfa -32 + ^ .ra: .cfa -40 + ^ x29: .cfa -48 + ^
STACK CFI 25dac .cfa: sp 112 +
STACK CFI 25dbc .cfa: sp 0 +
STACK CFI 25dc0 .cfa: x29 48 +
STACK CFI INIT 26044 12c .cfa: sp 0 +
STACK CFI 26048 .cfa: sp 80 +
STACK CFI 26058 .cfa: x29 48 + x19: .cfa -8 + ^ x20: .cfa -16 + ^ x21: .cfa -32 + ^ .ra: .cfa -40 + ^ x29: .cfa -48 + ^
STACK CFI 260f0 .cfa: sp 80 +
STACK CFI 26100 .cfa: sp 0 +
STACK CFI 26104 .cfa: x29 48 +
STACK CFI INIT 263b4 d0 .cfa: sp 0 +
STACK CFI 263b8 .cfa: sp 80 +
STACK CFI 263cc .cfa: x29 64 + x19: .cfa -8 + ^ x20: .cfa -16 + ^ x21: .cfa -24 + ^ x22: .cfa -32 + ^ x23: .cfa -40 + ^ x24: .cfa -48 + ^ .ra: .cfa -56 + ^ x29: .cfa -64 + ^
STACK CFI 26444 .cfa: sp 80 +
STACK CFI 26458 .cfa: sp 0 +
STACK CFI 2645c .cfa: x29 64 +
STACK CFI INIT 26568 eac .cfa: sp 0 +
STACK CFI 2656c .cfa: sp 304 +
STACK CFI 2658c .cfa: x29 96 + x19: .cfa -8 + ^ x20: .cfa -16 + ^ x21: .cfa -24 + ^ x22: .cfa -32 + ^ x23: .cfa -40 + ^ x24: .cfa -48 + ^ x25: .cfa -56 + ^ x26: .cfa -64 + ^ x27: .cfa -72 + ^ x28: .cfa -80 + ^ .ra: .cfa -88 + ^ x29: .cfa -96 + ^ v8: .cfa -104 + ^ v9: .cfa -112 + ^
STACK CFI 272ec .cfa: sp 304 +
STACK CFI 2730c .cfa: sp 0 +
STACK CFI 27310 .cfa: x29 96 +
STACK CFI INIT 27418 298 .cfa: sp 0 +
STACK CFI 2741c .cfa: sp 224 +
STACK CFI 27434 .cfa: x29 80 + x19: .cfa -8 + ^ x20: .cfa -16 + ^ x21: .cfa -24 + ^ x22: .cfa -32 + ^ x23: .cfa -40 + ^ x24: .cfa -48 + ^ x25: .cfa -64 + ^ .ra: .cfa -72 + ^ x29: .cfa -80 + ^
STACK CFI 275c0 .cfa: sp 224 +
STACK CFI 275d8 .cfa: sp 0 +
STACK CFI 275dc .cfa: x29 80 +
STACK CFI INIT 276b0 438 .cfa: sp 0 +
STACK CFI 276b4 .cfa: sp 272 +
STACK CFI 276d0 .cfa: x29 96 + x19: .cfa -8 + ^ x20: .cfa -16 + ^ x21: .cfa -24 + ^ x22: .cfa -32 + ^ x23: .cfa -40 + ^ x24: .cfa -48 + ^ x25: .cfa -56 + ^ x26: .cfa -64 + ^ x27: .cfa -72 + ^ x28: .cfa -80 + ^ .ra: .cfa -88 + ^ x29: .cfa -96 + ^
STACK CFI 279b0 .cfa: sp 272 +
STACK CFI 279cc .cfa: sp 0 +
STACK CFI 279d0 .cfa: x29 96 +
STACK CFI INIT 27bb4 11c .cfa: sp 0 +
STACK CFI 27bb8 .cfa: sp 112 +
STACK CFI 27bc8 .cfa: x29 48 + x19: .cfa -8 + ^ x20: .cfa -16 + ^ x21: .cfa -24 + ^ x22: .cfa -32 + ^ .ra: .cfa -40 + ^ x29: .cfa -48 + ^
STACK CFI 27c8c .cfa: sp 112 +
STACK CFI 27c9c .cfa: sp 0 +
STACK CFI 27ca0 .cfa: x29 48 +
STACK CFI INIT 27cd0 f8 .cfa: sp 0 +
STACK CFI 27cd4 .cfa: sp 80 +
STACK CFI 27ce4 .cfa: x29 48 + x19: .cfa -8 + ^ x20: .cfa -16 + ^ x21: .cfa -32 + ^ .ra: .cfa -40 + ^ x29: .cfa -48 + ^
STACK CFI 27d8c .cfa: sp 80 +
STACK CFI 27d9c .cfa: sp 0 +
STACK CFI 27da0 .cfa: x29 48 +
STACK CFI INIT 27dc8 250 .cfa: sp 0 +
STACK CFI 27dcc .cfa: sp 128 +
STACK CFI 27de0 .cfa: x29 64 + x19: .cfa -8 + ^ x20: .cfa -16 + ^ x21: .cfa -24 + ^ x22: .cfa -32 + ^ x23: .cfa -48 + ^ .ra: .cfa -56 + ^ x29: .cfa -64 + ^
STACK CFI 27f20 .cfa: sp 128 +
STACK CFI 27f34 .cfa: sp 0 +
STACK CFI 27f38 .cfa: x29 64 +
STACK CFI INIT 28018 534 .cfa: sp 0 +
STACK CFI 2801c .cfa: sp 320 +
STACK CFI 28034 .cfa: x29 80 + x19: .cfa -8 + ^ x20: .cfa -16 + ^ x21: .cfa -24 + ^ x22: .cfa -32 + ^ x23: .cfa -40 + ^ x24: .cfa -48 + ^ x25: .cfa -56 + ^ x28: .cfa -64 + ^ .ra: .cfa -72 + ^ x29: .cfa -80 + ^
STACK CFI 28460 .cfa: sp 320 +
STACK CFI 28478 .cfa: sp 0 +
STACK CFI 2847c .cfa: x29 80 +
STACK CFI INIT 2854c 914 .cfa: sp 0 +
STACK CFI 28550 .cfa: sp 480 +
STACK CFI 2856c .cfa: x29 96 + x19: .cfa -8 + ^ x20: .cfa -16 + ^ x21: .cfa -24 + ^ x22: .cfa -32 + ^ x23: .cfa -40 + ^ x24: .cfa -48 + ^ x25: .cfa -56 + ^ x26: .cfa -64 + ^ x28: .cfa -80 + ^ .ra: .cfa -88 + ^ x29: .cfa -96 + ^
STACK CFI 28c10 .cfa: sp 480 +
STACK CFI 28c2c .cfa: sp 0 +
STACK CFI 28c30 .cfa: x29 96 +
STACK CFI INIT 28e60 11c .cfa: sp 0 +
STACK CFI 28e64 .cfa: sp 112 +
STACK CFI 28e74 .cfa: x29 48 + x19: .cfa -8 + ^ x20: .cfa -16 + ^ x21: .cfa -24 + ^ x22: .cfa -32 + ^ .ra: .cfa -40 + ^ x29: .cfa -48 + ^
STACK CFI 28f38 .cfa: sp 112 +
STACK CFI 28f48 .cfa: sp 0 +
STACK CFI 28f4c .cfa: x29 48 +
STACK CFI INIT 29060 218 .cfa: sp 0 +
STACK CFI 29064 .cfa: sp 160 +
STACK CFI 29074 .cfa: x29 48 + x19: .cfa -8 + ^ x20: .cfa -16 + ^ x21: .cfa -24 + ^ x22: .cfa -32 + ^ .ra: .cfa -40 + ^ x29: .cfa -48 + ^
STACK CFI 29208 .cfa: sp 160 +
STACK CFI 29218 .cfa: sp 0 +
STACK CFI 2921c .cfa: x29 48 +
STACK CFI INIT 29278 f0 .cfa: sp 0 +
STACK CFI 2927c .cfa: sp 112 +
STACK CFI 29288 .cfa: x29 32 + x19: .cfa -8 + ^ x20: .cfa -16 + ^ .ra: .cfa -24 + ^ x29: .cfa -32 + ^
STACK CFI 29328 .cfa: sp 112 +
STACK CFI 29334 .cfa: sp 0 +
STACK CFI 29338 .cfa: x29 32 +
STACK CFI INIT 29368 21c .cfa: sp 0 +
STACK CFI 2936c .cfa: sp 160 +
STACK CFI 2937c .cfa: x29 48 + x19: .cfa -8 + ^ x20: .cfa -16 + ^ x21: .cfa -24 + ^ x22: .cfa -32 + ^ .ra: .cfa -40 + ^ x29: .cfa -48 + ^
STACK CFI 29514 .cfa: sp 160 +
STACK CFI 29524 .cfa: sp 0 +
STACK CFI 29528 .cfa: x29 48 +
STACK CFI INIT 2958c 1a0 .cfa: sp 0 +
STACK CFI 29590 .cfa: sp 32 +
STACK CFI 29598 .cfa: x29 32 + x19: .cfa -8 + ^ x20: .cfa -16 + ^ .ra: .cfa -24 + ^ x29: .cfa -32 + ^
STACK CFI 2971c .cfa: sp 32 +
STACK CFI 29724 .cfa: sp 0 +
STACK CFI 29728 .cfa: x29 32 +
STACK CFI INIT 29788 148 .cfa: sp 0 +
STACK CFI 2978c .cfa: sp 96 +
STACK CFI 2979c .cfa: x29 48 + x19: .cfa -8 + ^ x20: .cfa -16 + ^ x21: .cfa -32 + ^ .ra: .cfa -40 + ^ x29: .cfa -48 + ^
STACK CFI 29884 .cfa: sp 96 +
STACK CFI 29894 .cfa: sp 0 +
STACK CFI 29898 .cfa: x29 48 +
STACK CFI INIT 299b8 6c .cfa: sp 0 +
STACK CFI 299bc .cfa: sp 32 +
STACK CFI 299c4 .cfa: x29 32 + x19: .cfa -16 + ^ .ra: .cfa -24 + ^ x29: .cfa -32 + ^
STACK CFI 29a14 .cfa: sp 32 +
STACK CFI 29a1c .cfa: sp 0 +
STACK CFI 29a20 .cfa: x29 32 +
STACK CFI INIT 29a28 6c .cfa: sp 0 +
STACK CFI 29a2c .cfa: sp 32 +
STACK CFI 29a34 .cfa: x29 32 + x19: .cfa -16 + ^ .ra: .cfa -24 + ^ x29: .cfa -32 + ^
STACK CFI 29a84 .cfa: sp 32 +
STACK CFI 29a8c .cfa: sp 0 +
STACK CFI 29a90 .cfa: x29 32 +
STACK CFI INIT 29ac4 21c .cfa: sp 0 +
STACK CFI 29ac8 .cfa: sp 192 +
STACK CFI 29adc .cfa: x29 64 + x19: .cfa -8 + ^ x20: .cfa -16 + ^ x21: .cfa -24 + ^ x22: .cfa -32 + ^ x23: .cfa -48 + ^ .ra: .cfa -56 + ^ x29: .cfa -64 + ^
STACK CFI 29c1c .cfa: sp 192 +
STACK CFI 29c30 .cfa: sp 0 +
STACK CFI 29c34 .cfa: x29 64 +
STACK CFI INIT 29ce4 1ac .cfa: sp 0 +
STACK CFI 29ce8 .cfa: sp 128 +
STACK CFI 29cf8 .cfa: x29 48 + x19: .cfa -8 + ^ x20: .cfa -16 + ^ x21: .cfa -32 + ^ .ra: .cfa -40 + ^ x29: .cfa -48 + ^
STACK CFI 29e14 .cfa: sp 128 +
STACK CFI 29e24 .cfa: sp 0 +
STACK CFI 29e28 .cfa: x29 48 +
STACK CFI INIT 2a1c0 198 .cfa: sp 0 +
STACK CFI 2a1c4 .cfa: sp 128 +
STACK CFI 2a1d8 .cfa: x29 64 + x19: .cfa -8 + ^ x20: .cfa -16 + ^ x21: .cfa -24 + ^ x22: .cfa -32 + ^ x23: .cfa -48 + ^ .ra: .cfa -56 + ^ x29: .cfa -64 + ^
STACK CFI 2a318 .cfa: sp 128 +
STACK CFI 2a32c .cfa: sp 0 +
STACK CFI 2a330 .cfa: x29 64 +
STACK CFI INIT 2a624 188 .cfa: sp 0 +
STACK CFI 2a628 .cfa: sp 112 +
STACK CFI 2a638 .cfa: x29 48 + x19: .cfa -8 + ^ x20: .cfa -16 + ^ x21: .cfa -24 + ^ x22: .cfa -32 + ^ .ra: .cfa -40 + ^ x29: .cfa -48 + ^
STACK CFI 2a770 .cfa: sp 112 +
STACK CFI 2a780 .cfa: sp 0 +
STACK CFI 2a784 .cfa: x29 48 +
STACK CFI INIT 2a82c 21c .cfa: sp 0 +
STACK CFI 2a830 .cfa: sp 192 +
STACK CFI 2a844 .cfa: x29 64 + x19: .cfa -8 + ^ x20: .cfa -16 + ^ x21: .cfa -24 + ^ x22: .cfa -32 + ^ x23: .cfa -48 + ^ .ra: .cfa -56 + ^ x29: .cfa -64 + ^
STACK CFI 2a984 .cfa: sp 192 +
STACK CFI 2a998 .cfa: sp 0 +
STACK CFI 2a99c .cfa: x29 64 +
STACK CFI INIT 2aa4c 1ac .cfa: sp 0 +
STACK CFI 2aa50 .cfa: sp 128 +
STACK CFI 2aa60 .cfa: x29 48 + x19: .cfa -8 + ^ x20: .cfa -16 + ^ x21: .cfa -32 + ^ .ra: .cfa -40 + ^ x29: .cfa -48 + ^
STACK CFI 2ab7c .cfa: sp 128 +
STACK CFI 2ab8c .cfa: sp 0 +
STACK CFI 2ab90 .cfa: x29 48 +
STACK CFI INIT 2afb4 198 .cfa: sp 0 +
STACK CFI 2afb8 .cfa: sp 128 +
STACK CFI 2afcc .cfa: x29 64 + x19: .cfa -8 + ^ x20: .cfa -16 + ^ x21: .cfa -24 + ^ x22: .cfa -32 + ^ x23: .cfa -48 + ^ .ra: .cfa -56 + ^ x29: .cfa -64 + ^
STACK CFI 2b10c .cfa: sp 128 +
STACK CFI 2b120 .cfa: sp 0 +
STACK CFI 2b124 .cfa: x29 64 +
STACK CFI INIT 2b468 188 .cfa: sp 0 +
STACK CFI 2b46c .cfa: sp 112 +
STACK CFI 2b47c .cfa: x29 48 + x19: .cfa -8 + ^ x20: .cfa -16 + ^ x21: .cfa -24 + ^ x22: .cfa -32 + ^ .ra: .cfa -40 + ^ x29: .cfa -48 + ^
STACK CFI 2b5b4 .cfa: sp 112 +
STACK CFI 2b5c4 .cfa: sp 0 +
STACK CFI 2b5c8 .cfa: x29 48 +
STACK CFI INIT 2b618 184 .cfa: sp 0 +
STACK CFI 2b61c .cfa: sp 160 +
STACK CFI 2b62c .cfa: x29 48 + x19: .cfa -8 + ^ x20: .cfa -16 + ^ x21: .cfa -32 + ^ .ra: .cfa -40 + ^ x29: .cfa -48 + ^
STACK CFI 2b740 .cfa: sp 160 +
STACK CFI 2b750 .cfa: sp 0 +
STACK CFI 2b754 .cfa: x29 48 +
STACK CFI INIT 2b79c 74 .cfa: sp 0 +
STACK CFI 2b7a0 .cfa: sp 48 +
STACK CFI 2b7ac .cfa: x29 32 + x19: .cfa -8 + ^ x20: .cfa -16 + ^ .ra: .cfa -24 + ^ x29: .cfa -32 + ^
STACK CFI 2b7f8 .cfa: sp 48 +
STACK CFI 2b804 .cfa: sp 0 +
STACK CFI 2b808 .cfa: x29 32 +
STACK CFI INIT 2bc18 e8 .cfa: sp 0 +
STACK CFI 2bc1c .cfa: sp 64 +
STACK CFI 2bc2c .cfa: x29 48 + x19: .cfa -8 + ^ x20: .cfa -16 + ^ x21: .cfa -32 + ^ .ra: .cfa -40 + ^ x29: .cfa -48 + ^
STACK CFI 2bcdc .cfa: sp 64 +
STACK CFI 2bcec .cfa: sp 0 +
STACK CFI 2bcf0 .cfa: x29 48 +
STACK CFI INIT 2bd04 7c .cfa: sp 0 +
STACK CFI 2bd08 .cfa: sp 48 +
STACK CFI 2bd14 .cfa: x29 32 + x19: .cfa -8 + ^ x20: .cfa -16 + ^ .ra: .cfa -24 + ^ x29: .cfa -32 + ^
STACK CFI 2bd68 .cfa: sp 48 +
STACK CFI 2bd74 .cfa: sp 0 +
STACK CFI 2bd78 .cfa: x29 32 +
STACK CFI INIT 2bd98 650 .cfa: sp 0 +
STACK CFI 2bd9c .cfa: sp 368 +
STACK CFI 2bdb4 .cfa: x29 80 + x19: .cfa -8 + ^ x20: .cfa -16 + ^ x21: .cfa -24 + ^ x22: .cfa -32 + ^ x23: .cfa -40 + ^ x24: .cfa -48 + ^ x28: .cfa -64 + ^ .ra: .cfa -72 + ^ x29: .cfa -80 + ^
STACK CFI 2c230 .cfa: sp 368 +
STACK CFI 2c248 .cfa: sp 0 +
STACK CFI 2c24c .cfa: x29 80 +
STACK CFI INIT 2c424 74 .cfa: sp 0 +
STACK CFI 2c428 .cfa: sp 48 +
STACK CFI 2c434 .cfa: x29 32 + x19: .cfa -8 + ^ x20: .cfa -16 + ^ .ra: .cfa -24 + ^ x29: .cfa -32 + ^
STACK CFI 2c480 .cfa: sp 48 +
STACK CFI 2c48c .cfa: sp 0 +
STACK CFI 2c490 .cfa: x29 32 +
STACK CFI INIT 2c5b8 19c .cfa: sp 0 +
STACK CFI 2c5bc .cfa: sp 176 +
STACK CFI 2c5d4 .cfa: x29 56 + x19: .cfa -8 + ^ x20: .cfa -16 + ^ x21: .cfa -24 + ^ x22: .cfa -32 + ^ x23: .cfa -40 + ^ .ra: .cfa -48 + ^ x29: .cfa -56 + ^ v8: .cfa -64 + ^
STACK CFI 2c6c8 .cfa: sp 176 +
STACK CFI 2c6e0 .cfa: sp 0 +
STACK CFI 2c6e4 .cfa: x29 56 +
STACK CFI INIT 2c9c8 1b0 .cfa: sp 0 +
STACK CFI 2c9cc .cfa: sp 144 +
STACK CFI 2c9e0 .cfa: x29 64 + x19: .cfa -8 + ^ x20: .cfa -16 + ^ x21: .cfa -24 + ^ x22: .cfa -32 + ^ x23: .cfa -48 + ^ .ra: .cfa -56 + ^ x29: .cfa -64 + ^
STACK CFI 2cb30 .cfa: sp 144 +
STACK CFI 2cb44 .cfa: sp 0 +
STACK CFI 2cb48 .cfa: x29 64 +
STACK CFI INIT 2ccc0 ec .cfa: sp 0 +
STACK CFI 2ccc4 .cfa: sp 80 +
STACK CFI 2ccd4 .cfa: x29 48 + x19: .cfa -8 + ^ x20: .cfa -16 + ^ x21: .cfa -24 + ^ x22: .cfa -32 + ^ .ra: .cfa -40 + ^ x29: .cfa -48 + ^
STACK CFI 2cd70 .cfa: sp 80 +
STACK CFI 2cd80 .cfa: sp 0 +
STACK CFI 2cd84 .cfa: x29 48 +
STACK CFI INIT 2d000 1b8 .cfa: sp 0 +
STACK CFI 2d004 .cfa: sp 128 +
STACK CFI 2d014 .cfa: x29 48 + x19: .cfa -8 + ^ x20: .cfa -16 + ^ x21: .cfa -24 + ^ x22: .cfa -32 + ^ .ra: .cfa -40 + ^ x29: .cfa -48 + ^
STACK CFI 2d174 .cfa: sp 128 +
STACK CFI 2d184 .cfa: sp 0 +
STACK CFI 2d188 .cfa: x29 48 +
STACK CFI INIT 2d44c 1c8 .cfa: sp 0 +
STACK CFI 2d450 .cfa: sp 144 +
STACK CFI 2d464 .cfa: x29 64 + x19: .cfa -8 + ^ x20: .cfa -16 + ^ x21: .cfa -24 + ^ x22: .cfa -32 + ^ x23: .cfa -48 + ^ .ra: .cfa -56 + ^ x29: .cfa -64 + ^
STACK CFI 2d5cc .cfa: sp 144 +
STACK CFI 2d5e0 .cfa: sp 0 +
STACK CFI 2d5e4 .cfa: x29 64 +
STACK CFI INIT 2d63c 74 .cfa: sp 0 +
STACK CFI 2d640 .cfa: sp 48 +
STACK CFI 2d64c .cfa: x29 32 + x19: .cfa -8 + ^ x20: .cfa -16 + ^ .ra: .cfa -24 + ^ x29: .cfa -32 + ^
STACK CFI 2d698 .cfa: sp 48 +
STACK CFI 2d6a4 .cfa: sp 0 +
STACK CFI 2d6a8 .cfa: x29 32 +
STACK CFI INIT 2d7e0 c8 .cfa: sp 0 +
STACK CFI 2d7e4 .cfa: sp 48 +
STACK CFI 2d7f0 .cfa: x29 48 + x19: .cfa -8 + ^ x20: .cfa -16 + ^ x21: .cfa -32 + ^ .ra: .cfa -40 + ^ x29: .cfa -48 + ^
STACK CFI 2d86c .cfa: sp 48 +
STACK CFI 2d878 .cfa: sp 0 +
STACK CFI 2d87c .cfa: x29 48 +
STACK CFI INIT 2d8a8 ac .cfa: sp 0 +
STACK CFI 2d8ac .cfa: sp 48 +
STACK CFI 2d8b8 .cfa: x29 48 + x19: .cfa -8 + ^ x20: .cfa -16 + ^ x21: .cfa -32 + ^ .ra: .cfa -40 + ^ x29: .cfa -48 + ^
STACK CFI 2d918 .cfa: sp 48 +
STACK CFI 2d91c .cfa: x29 48 +
STACK CFI 2d928 .cfa: sp 48 +
STACK CFI 2d934 .cfa: sp 0 +
STACK CFI 2d938 .cfa: x29 48 +
STACK CFI INIT 2d9d8 3e0 .cfa: sp 0 +
STACK CFI 2d9dc .cfa: sp 320 +
STACK CFI 2d9f0 .cfa: x29 64 + x19: .cfa -8 + ^ x20: .cfa -16 + ^ x21: .cfa -24 + ^ x22: .cfa -32 + ^ x23: .cfa -40 + ^ x28: .cfa -48 + ^ .ra: .cfa -56 + ^ x29: .cfa -64 + ^
STACK CFI 2dc9c .cfa: sp 320 +
STACK CFI 2dcb0 .cfa: sp 0 +
STACK CFI 2dcb4 .cfa: x29 64 +
STACK CFI INIT 2de80 88 .cfa: sp 0 +
STACK CFI 2de84 .cfa: sp 32 +
STACK CFI 2de8c .cfa: x29 32 + x19: .cfa -8 + ^ x20: .cfa -16 + ^ .ra: .cfa -24 + ^ x29: .cfa -32 + ^
STACK CFI 2dee8 .cfa: sp 32 +
STACK CFI 2def0 .cfa: sp 0 +
STACK CFI 2def4 .cfa: x29 32 +
STACK CFI INIT 2e0bc 12c .cfa: sp 0 +
STACK CFI 2e0c0 .cfa: sp 96 +
STACK CFI 2e0d0 .cfa: x29 48 + x19: .cfa -8 + ^ x20: .cfa -16 + ^ x21: .cfa -24 + ^ x22: .cfa -32 + ^ .ra: .cfa -40 + ^ x29: .cfa -48 + ^
STACK CFI 2e1ac .cfa: sp 96 +
STACK CFI 2e1bc .cfa: sp 0 +
STACK CFI 2e1c0 .cfa: x29 48 +
STACK CFI INIT 2e248 84 .cfa: sp 0 +
STACK CFI 2e24c .cfa: sp 32 +
STACK CFI 2e254 .cfa: x29 32 + x19: .cfa -8 + ^ x20: .cfa -16 + ^ .ra: .cfa -24 + ^ x29: .cfa -32 + ^
STACK CFI 2e2ac .cfa: sp 32 +
STACK CFI 2e2b4 .cfa: sp 0 +
STACK CFI 2e2b8 .cfa: x29 32 +
STACK CFI INIT 2e37c 714 .cfa: sp 0 +
STACK CFI 2e380 .cfa: sp 256 +
STACK CFI 2e39c .cfa: x29 96 + x19: .cfa -8 + ^ x20: .cfa -16 + ^ x21: .cfa -24 + ^ x22: .cfa -32 + ^ x23: .cfa -40 + ^ x24: .cfa -48 + ^ x25: .cfa -56 + ^ x26: .cfa -64 + ^ x27: .cfa -80 + ^ .ra: .cfa -88 + ^ x29: .cfa -96 + ^
STACK CFI 2e454 .cfa: sp 256 +
STACK CFI 2e470 .cfa: sp 0 +
STACK CFI 2e474 .cfa: x29 96 +
STACK CFI 2e90c .cfa: sp 256 +
STACK CFI 2e928 .cfa: sp 0 +
STACK CFI 2e92c .cfa: x29 96 +
STACK CFI INIT 2eb18 7c .cfa: sp 0 +
STACK CFI 2eb1c .cfa: sp 32 +
STACK CFI 2eb24 .cfa: x29 32 + x19: .cfa -8 + ^ x20: .cfa -16 + ^ .ra: .cfa -24 + ^ x29: .cfa -32 + ^
STACK CFI 2eb74 .cfa: sp 32 +
STACK CFI 2eb7c .cfa: sp 0 +
STACK CFI 2eb80 .cfa: x29 32 +
STACK CFI INIT 2ec3c 3d0 .cfa: sp 0 +
STACK CFI 2ec40 .cfa: sp 112 +
STACK CFI 2ec50 .cfa: x29 48 + x19: .cfa -8 + ^ x20: .cfa -16 + ^ x21: .cfa -32 + ^ .ra: .cfa -40 + ^ x29: .cfa -48 + ^
STACK CFI 2ecf0 .cfa: sp 112 +
STACK CFI 2ed00 .cfa: sp 0 +
STACK CFI 2ed04 .cfa: x29 48 +
STACK CFI 2ef24 .cfa: sp 112 +
STACK CFI 2ef34 .cfa: sp 0 +
STACK CFI 2ef38 .cfa: x29 48 +
STACK CFI INIT 2f124 400 .cfa: sp 0 +
STACK CFI 2f128 .cfa: sp 224 +
STACK CFI 2f144 .cfa: x29 96 + x19: .cfa -8 + ^ x20: .cfa -16 + ^ x21: .cfa -24 + ^ x22: .cfa -32 + ^ x23: .cfa -40 + ^ x24: .cfa -48 + ^ x25: .cfa -56 + ^ x26: .cfa -64 + ^ x27: .cfa -72 + ^ x28: .cfa -80 + ^ .ra: .cfa -88 + ^ x29: .cfa -96 + ^
STACK CFI 2f41c .cfa: sp 224 +
STACK CFI 2f438 .cfa: sp 0 +
STACK CFI 2f43c .cfa: x29 96 +
STACK CFI INIT 2f540 3dc .cfa: sp 0 +
STACK CFI 2f544 .cfa: sp 240 +
STACK CFI 2f558 .cfa: x29 64 + x19: .cfa -8 + ^ x20: .cfa -16 + ^ x21: .cfa -24 + ^ x22: .cfa -32 + ^ x23: .cfa -40 + ^ x24: .cfa -48 + ^ .ra: .cfa -56 + ^ x29: .cfa -64 + ^
STACK CFI 2f7f4 .cfa: sp 240 +
STACK CFI 2f808 .cfa: sp 0 +
STACK CFI 2f80c .cfa: x29 64 +
STACK CFI INIT 2f96c 74 .cfa: sp 0 +
STACK CFI 2f970 .cfa: sp 48 +
STACK CFI 2f97c .cfa: x29 32 + x19: .cfa -8 + ^ x20: .cfa -16 + ^ .ra: .cfa -24 + ^ x29: .cfa -32 + ^
STACK CFI 2f9c8 .cfa: sp 48 +
STACK CFI 2f9d4 .cfa: sp 0 +
STACK CFI 2f9d8 .cfa: x29 32 +
STACK CFI INIT 2fa60 154 .cfa: sp 0 +
STACK CFI 2fa64 .cfa: sp 384 +
STACK CFI 2fa78 .cfa: x29 64 + x19: .cfa -8 + ^ x20: .cfa -16 + ^ x21: .cfa -24 + ^ x22: .cfa -32 + ^ x23: .cfa -40 + ^ x28: .cfa -48 + ^ .ra: .cfa -56 + ^ x29: .cfa -64 + ^
STACK CFI 2fb5c .cfa: sp 384 +
STACK CFI 2fb70 .cfa: sp 0 +
STACK CFI 2fb74 .cfa: x29 64 +
STACK CFI INIT 2fbb4 124 .cfa: sp 0 +
STACK CFI 2fbb8 .cfa: sp 80 +
STACK CFI 2fbcc .cfa: x29 80 + x19: .cfa -8 + ^ x20: .cfa -16 + ^ x21: .cfa -24 + ^ x22: .cfa -32 + ^ x23: .cfa -40 + ^ x24: .cfa -48 + ^ x25: .cfa -56 + ^ x26: .cfa -64 + ^ .ra: .cfa -72 + ^ x29: .cfa -80 + ^
STACK CFI 2fc98 .cfa: sp 80 +
STACK CFI 2fcac .cfa: sp 0 +
STACK CFI 2fcb0 .cfa: x29 80 +
STACK CFI INIT 2fd7c 198 .cfa: sp 0 +
STACK CFI 2fd80 .cfa: sp 112 +
STACK CFI 2fd98 .cfa: x29 80 + x19: .cfa -8 + ^ x20: .cfa -16 + ^ x21: .cfa -24 + ^ x22: .cfa -32 + ^ x23: .cfa -40 + ^ x24: .cfa -48 + ^ x25: .cfa -56 + ^ x26: .cfa -64 + ^ .ra: .cfa -72 + ^ x29: .cfa -80 + ^
STACK CFI 2fe88 .cfa: sp 112 +
STACK CFI 2fea0 .cfa: sp 0 +
STACK CFI 2fea4 .cfa: x29 80 +
STACK CFI INIT 2ff14 1b4 .cfa: sp 0 +
STACK CFI 2ff18 .cfa: sp 128 +
STACK CFI 2ff34 .cfa: x29 96 + x19: .cfa -8 + ^ x20: .cfa -16 + ^ x21: .cfa -24 + ^ x22: .cfa -32 + ^ x23: .cfa -40 + ^ x24: .cfa -48 + ^ x25: .cfa -56 + ^ x26: .cfa -64 + ^ x27: .cfa -80 + ^ .ra: .cfa -88 + ^ x29: .cfa -96 + ^
STACK CFI 30078 .cfa: sp 128 +
STACK CFI 30094 .cfa: sp 0 +
STACK CFI 30098 .cfa: x29 96 +
STACK CFI INIT 300fc 15c .cfa: sp 0 +
STACK CFI 30100 .cfa: sp 80 +
STACK CFI 30114 .cfa: x29 80 + x19: .cfa -8 + ^ x20: .cfa -16 + ^ x21: .cfa -24 + ^ x22: .cfa -32 + ^ x23: .cfa -40 + ^ x24: .cfa -48 + ^ x25: .cfa -64 + ^ .ra: .cfa -72 + ^ x29: .cfa -80 + ^
STACK CFI 30224 .cfa: sp 80 +
STACK CFI 30238 .cfa: sp 0 +
STACK CFI 3023c .cfa: x29 80 +
STACK CFI INIT 303a0 21c .cfa: sp 0 +
STACK CFI 303a4 .cfa: sp 128 +
STACK CFI 303bc .cfa: x29 80 + x19: .cfa -8 + ^ x20: .cfa -16 + ^ x21: .cfa -24 + ^ x22: .cfa -32 + ^ x23: .cfa -40 + ^ x24: .cfa -48 + ^ x25: .cfa -64 + ^ .ra: .cfa -72 + ^ x29: .cfa -80 + ^
STACK CFI 3054c .cfa: sp 128 +
STACK CFI 30564 .cfa: sp 0 +
STACK CFI 30568 .cfa: x29 80 +
STACK CFI INIT 30e28 400 .cfa: sp 0 +
STACK CFI 30e2c .cfa: sp 224 +
STACK CFI 30e48 .cfa: x29 96 + x19: .cfa -8 + ^ x20: .cfa -16 + ^ x21: .cfa -24 + ^ x22: .cfa -32 + ^ x23: .cfa -40 + ^ x24: .cfa -48 + ^ x25: .cfa -56 + ^ x26: .cfa -64 + ^ x27: .cfa -72 + ^ x28: .cfa -80 + ^ .ra: .cfa -88 + ^ x29: .cfa -96 + ^
STACK CFI 31120 .cfa: sp 224 +
STACK CFI 3113c .cfa: sp 0 +
STACK CFI 31140 .cfa: x29 96 +
STACK CFI INIT 31244 3b8 .cfa: sp 0 +
STACK CFI 31248 .cfa: sp 208 +
STACK CFI 3125c .cfa: x29 64 + x19: .cfa -8 + ^ x20: .cfa -16 + ^ x21: .cfa -24 + ^ x22: .cfa -32 + ^ x23: .cfa -48 + ^ .ra: .cfa -56 + ^ x29: .cfa -64 + ^
STACK CFI 314dc .cfa: sp 208 +
STACK CFI 314f0 .cfa: sp 0 +
STACK CFI 314f4 .cfa: x29 64 +
STACK CFI INIT 31600 36c .cfa: sp 0 +
STACK CFI 31604 .cfa: sp 208 +
STACK CFI 31618 .cfa: x29 64 + x19: .cfa -8 + ^ x20: .cfa -16 + ^ x21: .cfa -24 + ^ x22: .cfa -32 + ^ x23: .cfa -48 + ^ .ra: .cfa -56 + ^ x29: .cfa -64 + ^
STACK CFI 31828 .cfa: sp 208 +
STACK CFI 3183c .cfa: sp 0 +
STACK CFI 31840 .cfa: x29 64 +
STACK CFI INIT 3196c 12c .cfa: sp 0 +
STACK CFI 31970 .cfa: sp 112 +
STACK CFI 31984 .cfa: x29 64 + x19: .cfa -8 + ^ x20: .cfa -16 + ^ x21: .cfa -24 + ^ x22: .cfa -32 + ^ x23: .cfa -40 + ^ x24: .cfa -48 + ^ .ra: .cfa -56 + ^ x29: .cfa -64 + ^
STACK CFI 31a58 .cfa: sp 112 +
STACK CFI 31a6c .cfa: sp 0 +
STACK CFI 31a70 .cfa: x29 64 +
STACK CFI INIT 31a98 400 .cfa: sp 0 +
STACK CFI 31a9c .cfa: sp 224 +
STACK CFI 31ab8 .cfa: x29 96 + x19: .cfa -8 + ^ x20: .cfa -16 + ^ x21: .cfa -24 + ^ x22: .cfa -32 + ^ x23: .cfa -40 + ^ x24: .cfa -48 + ^ x25: .cfa -56 + ^ x26: .cfa -64 + ^ x27: .cfa -72 + ^ x28: .cfa -80 + ^ .ra: .cfa -88 + ^ x29: .cfa -96 + ^
STACK CFI 31d90 .cfa: sp 224 +
STACK CFI 31dac .cfa: sp 0 +
STACK CFI 31db0 .cfa: x29 96 +
STACK CFI INIT 31eb4 360 .cfa: sp 0 +
STACK CFI 31eb8 .cfa: sp 192 +
STACK CFI 31ecc .cfa: x29 64 + x19: .cfa -8 + ^ x20: .cfa -16 + ^ x21: .cfa -24 + ^ x22: .cfa -32 + ^ x23: .cfa -48 + ^ .ra: .cfa -56 + ^ x29: .cfa -64 + ^
STACK CFI 32108 .cfa: sp 192 +
STACK CFI 3211c .cfa: sp 0 +
STACK CFI 32120 .cfa: x29 64 +
STACK CFI INIT 32218 800 .cfa: sp 0 +
STACK CFI 3221c .cfa: sp 304 +
STACK CFI 32238 .cfa: x29 96 + x19: .cfa -8 + ^ x20: .cfa -16 + ^ x21: .cfa -24 + ^ x22: .cfa -32 + ^ x23: .cfa -40 + ^ x24: .cfa -48 + ^ x25: .cfa -56 + ^ x26: .cfa -64 + ^ x27: .cfa -72 + ^ x28: .cfa -80 + ^ .ra: .cfa -88 + ^ x29: .cfa -96 + ^
STACK CFI 32600 .cfa: sp 304 +
STACK CFI 3261c .cfa: sp 0 +
STACK CFI 32620 .cfa: x29 96 +
STACK CFI INIT 32a18 444 .cfa: sp 0 +
STACK CFI 32a1c .cfa: sp 224 +
STACK CFI 32a38 .cfa: x29 96 + x19: .cfa -8 + ^ x20: .cfa -16 + ^ x21: .cfa -24 + ^ x22: .cfa -32 + ^ x23: .cfa -40 + ^ x24: .cfa -48 + ^ x25: .cfa -56 + ^ x26: .cfa -64 + ^ x27: .cfa -80 + ^ .ra: .cfa -88 + ^ x29: .cfa -96 + ^
STACK CFI 32c68 .cfa: sp 224 +
STACK CFI 32c84 .cfa: sp 0 +
STACK CFI 32c88 .cfa: x29 96 +
STACK CFI 32d54 .cfa: sp 224 +
STACK CFI 32d70 .cfa: sp 0 +
STACK CFI 32d74 .cfa: x29 96 +
STACK CFI INIT 32e78 694 .cfa: sp 0 +
STACK CFI 32e7c .cfa: sp 256 +
STACK CFI 32e94 .cfa: x29 80 + x19: .cfa -8 + ^ x20: .cfa -16 + ^ x21: .cfa -24 + ^ x22: .cfa -32 + ^ x23: .cfa -40 + ^ x24: .cfa -48 + ^ x25: .cfa -56 + ^ x26: .cfa -64 + ^ .ra: .cfa -72 + ^ x29: .cfa -80 + ^
STACK CFI 33350 .cfa: sp 256 +
STACK CFI 33368 .cfa: sp 0 +
STACK CFI 3336c .cfa: x29 80 +
STACK CFI INIT 33510 a8 .cfa: sp 0 +
STACK CFI 33514 .cfa: sp 32 +
STACK CFI 3351c .cfa: x29 32 + x19: .cfa -8 + ^ x20: .cfa -16 + ^ .ra: .cfa -24 + ^ x29: .cfa -32 + ^
STACK CFI 33550 .cfa: sp 32 +
STACK CFI 33558 .cfa: sp 0 +
STACK CFI 3355c .cfa: x29 32 +
STACK CFI 33560 .cfa: sp 32 +
STACK CFI 33568 .cfa: sp 0 +
STACK CFI 3356c .cfa: x29 32 +
STACK CFI INIT 335b8 22c .cfa: sp 0 +
STACK CFI 335bc .cfa: sp 96 +
STACK CFI 335d4 .cfa: x29 56 + x19: .cfa -8 + ^ x20: .cfa -16 + ^ x21: .cfa -24 + ^ x22: .cfa -32 + ^ x23: .cfa -40 + ^ .ra: .cfa -48 + ^ x29: .cfa -56 + ^ v8: .cfa -64 + ^
STACK CFI 33798 .cfa: sp 96 +
STACK CFI 337b0 .cfa: sp 0 +
STACK CFI 337b4 .cfa: x29 56 +
STACK CFI INIT 33928 134 .cfa: sp 0 +
STACK CFI 3392c .cfa: sp 80 +
STACK CFI 33938 .cfa: x29 32 + x19: .cfa -8 + ^ x20: .cfa -16 + ^ .ra: .cfa -24 + ^ x29: .cfa -32 + ^
STACK CFI 33968 .cfa: sp 80 +
STACK CFI 33974 .cfa: sp 0 +
STACK CFI 33978 .cfa: x29 32 +
STACK CFI INIT 33a5c 78 .cfa: sp 0 +
STACK CFI 33a60 .cfa: sp 32 +
STACK CFI 33a68 .cfa: x29 32 + x19: .cfa -8 + ^ x20: .cfa -16 + ^ .ra: .cfa -24 + ^ x29: .cfa -32 + ^
STACK CFI 33a74 .cfa: sp 32 +
STACK CFI 33a7c .cfa: sp 0 +
STACK CFI 33a80 .cfa: x29 32 +
STACK CFI INIT 33ad4 74 .cfa: sp 0 +
STACK CFI 33ad8 .cfa: sp 48 +
STACK CFI 33ae4 .cfa: x29 32 + x19: .cfa -8 + ^ x20: .cfa -16 + ^ .ra: .cfa -24 + ^ x29: .cfa -32 + ^
STACK CFI 33b30 .cfa: sp 48 +
STACK CFI 33b3c .cfa: sp 0 +
STACK CFI 33b40 .cfa: x29 32 +
STACK CFI INIT 33c48 2f0 .cfa: sp 0 +
STACK CFI 33c4c .cfa: sp 144 +
STACK CFI 33c60 .cfa: x29 64 + x19: .cfa -8 + ^ x20: .cfa -16 + ^ x21: .cfa -24 + ^ x22: .cfa -32 + ^ x23: .cfa -48 + ^ .ra: .cfa -56 + ^ x29: .cfa -64 + ^
STACK CFI 33ddc .cfa: sp 144 +
STACK CFI 33df0 .cfa: sp 0 +
STACK CFI 33df4 .cfa: x29 64 +
STACK CFI INIT 33f8c 260 .cfa: sp 0 +
STACK CFI 33f90 .cfa: sp 128 +
STACK CFI 33fa0 .cfa: x29 48 + x19: .cfa -8 + ^ x20: .cfa -16 + ^ x21: .cfa -32 + ^ .ra: .cfa -40 + ^ x29: .cfa -48 + ^
STACK CFI 3408c .cfa: sp 128 +
STACK CFI 3409c .cfa: sp 0 +
STACK CFI 340a0 .cfa: x29 48 +
STACK CFI INIT 34294 1b8 .cfa: sp 0 +
STACK CFI 34298 .cfa: sp 160 +
STACK CFI 342b4 .cfa: x29 72 + x19: .cfa -8 + ^ x20: .cfa -16 + ^ x21: .cfa -24 + ^ x22: .cfa -32 + ^ x23: .cfa -40 + ^ x24: .cfa -48 + ^ x25: .cfa -56 + ^ .ra: .cfa -64 + ^ x29: .cfa -72 + ^ v8: .cfa -80 + ^
STACK CFI 34338 .cfa: sp 160 +
STACK CFI 34354 .cfa: sp 0 +
STACK CFI 34358 .cfa: x29 72 +
STACK CFI INIT 3444c 148 .cfa: sp 0 +
STACK CFI 34450 .cfa: sp 64 +
STACK CFI 34460 .cfa: x29 48 + x19: .cfa -8 + ^ x20: .cfa -16 + ^ x21: .cfa -24 + ^ x22: .cfa -32 + ^ .ra: .cfa -40 + ^ x29: .cfa -48 + ^
STACK CFI 34558 .cfa: sp 64 +
STACK CFI 34568 .cfa: sp 0 +
STACK CFI 3456c .cfa: x29 48 +
STACK CFI INIT 34598 2d4 .cfa: sp 0 +
STACK CFI 3459c .cfa: sp 144 +
STACK CFI 345b0 .cfa: x29 64 + x19: .cfa -8 + ^ x20: .cfa -16 + ^ x21: .cfa -24 + ^ x22: .cfa -32 + ^ x23: .cfa -48 + ^ .ra: .cfa -56 + ^ x29: .cfa -64 + ^
STACK CFI 34710 .cfa: sp 144 +
STACK CFI 34724 .cfa: sp 0 +
STACK CFI 34728 .cfa: x29 64 +
STACK CFI INIT 3486c 2d4 .cfa: sp 0 +
STACK CFI 34870 .cfa: sp 144 +
STACK CFI 34884 .cfa: x29 64 + x19: .cfa -8 + ^ x20: .cfa -16 + ^ x21: .cfa -24 + ^ x22: .cfa -32 + ^ x23: .cfa -48 + ^ .ra: .cfa -56 + ^ x29: .cfa -64 + ^
STACK CFI 349e4 .cfa: sp 144 +
STACK CFI 349f8 .cfa: sp 0 +
STACK CFI 349fc .cfa: x29 64 +
STACK CFI INIT 34b40 290 .cfa: sp 0 +
STACK CFI 34b44 .cfa: sp 144 +
STACK CFI 34b58 .cfa: x29 64 + x19: .cfa -8 + ^ x20: .cfa -16 + ^ x21: .cfa -24 + ^ x22: .cfa -32 + ^ x23: .cfa -48 + ^ .ra: .cfa -56 + ^ x29: .cfa -64 + ^
STACK CFI 34c74 .cfa: sp 144 +
STACK CFI 34c88 .cfa: sp 0 +
STACK CFI 34c8c .cfa: x29 64 +
STACK CFI INIT 34dd0 2e0 .cfa: sp 0 +
STACK CFI 34dd4 .cfa: sp 144 +
STACK CFI 34de8 .cfa: x29 64 + x19: .cfa -8 + ^ x20: .cfa -16 + ^ x21: .cfa -24 + ^ x22: .cfa -32 + ^ x23: .cfa -48 + ^ .ra: .cfa -56 + ^ x29: .cfa -64 + ^
STACK CFI 34f54 .cfa: sp 144 +
STACK CFI 34f68 .cfa: sp 0 +
STACK CFI 34f6c .cfa: x29 64 +
STACK CFI INIT 350b0 4ac .cfa: sp 0 +
STACK CFI 350b4 .cfa: sp 144 +
STACK CFI 350c8 .cfa: x29 64 + x19: .cfa -8 + ^ x20: .cfa -16 + ^ x21: .cfa -24 + ^ x22: .cfa -32 + ^ x23: .cfa -48 + ^ .ra: .cfa -56 + ^ x29: .cfa -64 + ^
STACK CFI 353ac .cfa: sp 144 +
STACK CFI 353c0 .cfa: sp 0 +
STACK CFI 353c4 .cfa: x29 64 +
STACK CFI INIT 3555c 154 .cfa: sp 0 +
STACK CFI 35560 .cfa: sp 384 +
STACK CFI 35574 .cfa: x29 64 + x19: .cfa -8 + ^ x20: .cfa -16 + ^ x21: .cfa -24 + ^ x22: .cfa -32 + ^ x23: .cfa -40 + ^ x28: .cfa -48 + ^ .ra: .cfa -56 + ^ x29: .cfa -64 + ^
STACK CFI 35658 .cfa: sp 384 +
STACK CFI 3566c .cfa: sp 0 +
STACK CFI 35670 .cfa: x29 64 +
STACK CFI INIT 356b0 168 .cfa: sp 0 +
STACK CFI 356b4 .cfa: sp 384 +
STACK CFI 356c8 .cfa: x29 64 + x19: .cfa -8 + ^ x20: .cfa -16 + ^ x21: .cfa -24 + ^ x22: .cfa -32 + ^ x23: .cfa -40 + ^ x28: .cfa -48 + ^ .ra: .cfa -56 + ^ x29: .cfa -64 + ^
STACK CFI 357c0 .cfa: sp 384 +
STACK CFI 357d4 .cfa: sp 0 +
STACK CFI 357d8 .cfa: x29 64 +
STACK CFI INIT 35830 430 .cfa: sp 0 +
STACK CFI 35834 .cfa: sp 64 +
STACK CFI 35844 .cfa: x29 64 + x19: .cfa -8 + ^ x20: .cfa -16 + ^ x21: .cfa -24 + ^ x22: .cfa -32 + ^ x23: .cfa -40 + ^ x24: .cfa -48 + ^ .ra: .cfa -56 + ^ x29: .cfa -64 + ^
STACK CFI 35bf8 .cfa: sp 64 +
STACK CFI 35c08 .cfa: sp 0 +
STACK CFI 35c0c .cfa: x29 64 +
STACK CFI INIT 35f90 294 .cfa: sp 0 +
STACK CFI 35f94 .cfa: sp 240 +
STACK CFI 35fac .cfa: x29 80 + x19: .cfa -8 + ^ x20: .cfa -16 + ^ x21: .cfa -24 + ^ x22: .cfa -32 + ^ x23: .cfa -40 + ^ x24: .cfa -48 + ^ x25: .cfa -64 + ^ .ra: .cfa -72 + ^ x29: .cfa -80 + ^
STACK CFI 3614c .cfa: sp 240 +
STACK CFI 36164 .cfa: sp 0 +
STACK CFI 36168 .cfa: x29 80 +
STACK CFI INIT 36294 50 .cfa: sp 0 +
STACK CFI 36298 .cfa: sp 32 +
STACK CFI 362a0 .cfa: x29 32 + x19: .cfa -8 + ^ x20: .cfa -16 + ^ .ra: .cfa -24 + ^ x29: .cfa -32 + ^
STACK CFI INIT 36310 750 .cfa: sp 0 +
STACK CFI 36314 .cfa: sp 320 +
STACK CFI 36330 .cfa: x29 96 + x19: .cfa -8 + ^ x20: .cfa -16 + ^ x21: .cfa -24 + ^ x22: .cfa -32 + ^ x23: .cfa -40 + ^ x24: .cfa -48 + ^ x25: .cfa -56 + ^ x26: .cfa -64 + ^ x27: .cfa -72 + ^ x28: .cfa -80 + ^ .ra: .cfa -88 + ^ x29: .cfa -96 + ^
STACK CFI 3691c .cfa: sp 320 +
STACK CFI 36938 .cfa: sp 0 +
STACK CFI 3693c .cfa: x29 96 +
STACK CFI INIT 36ac4 12c .cfa: sp 0 +
STACK CFI 36ac8 .cfa: sp 80 +
STACK CFI 36adc .cfa: x29 80 + x19: .cfa -8 + ^ x20: .cfa -16 + ^ x21: .cfa -24 + ^ x22: .cfa -32 + ^ x23: .cfa -40 + ^ x24: .cfa -48 + ^ x28: .cfa -64 + ^ .ra: .cfa -72 + ^ x29: .cfa -80 + ^
STACK CFI 36ba4 .cfa: sp 80 +
STACK CFI 36bb8 .cfa: sp 0 +
STACK CFI 36bbc .cfa: x29 80 +
STACK CFI INIT 3ab60 c2c .cfa: sp 0 +
STACK CFI 3ab64 .cfa: sp 96 +
STACK CFI 3ab7c .cfa: x29 96 + x19: .cfa -8 + ^ x20: .cfa -16 + ^ x21: .cfa -24 + ^ x22: .cfa -32 + ^ x23: .cfa -40 + ^ x24: .cfa -48 + ^ x25: .cfa -56 + ^ x26: .cfa -64 + ^ x27: .cfa -72 + ^ x28: .cfa -80 + ^ .ra: .cfa -88 + ^ x29: .cfa -96 + ^
STACK CFI 3b650 .cfa: sp 96 +
STACK CFI 3b668 .cfa: sp 0 +
STACK CFI 3b66c .cfa: x29 96 +
STACK CFI INIT 3b8e0 238 .cfa: sp 0 +
STACK CFI 3b8e4 .cfa: sp 128 +
STACK CFI 3b8f4 .cfa: x29 48 + x19: .cfa -8 + ^ x20: .cfa -16 + ^ x21: .cfa -24 + ^ x22: .cfa -32 + ^ .ra: .cfa -40 + ^ x29: .cfa -48 + ^
STACK CFI 3ba7c .cfa: sp 128 +
STACK CFI 3ba8c .cfa: sp 0 +
STACK CFI 3ba90 .cfa: x29 48 +
STACK CFI INIT 3be7c 3a4 .cfa: sp 0 +
STACK CFI 3be80 .cfa: sp 96 +
STACK CFI 3be98 .cfa: x29 96 + x19: .cfa -8 + ^ x20: .cfa -16 + ^ x21: .cfa -24 + ^ x22: .cfa -32 + ^ x23: .cfa -40 + ^ x24: .cfa -48 + ^ x25: .cfa -56 + ^ x26: .cfa -64 + ^ x27: .cfa -72 + ^ x28: .cfa -80 + ^ .ra: .cfa -88 + ^ x29: .cfa -96 + ^
STACK CFI 3c1c0 .cfa: sp 96 +
STACK CFI 3c1d8 .cfa: sp 0 +
STACK CFI 3c1dc .cfa: x29 96 +
STACK CFI INIT 3c2c0 c6c .cfa: sp 0 +
STACK CFI 3c2c4 .cfa: sp 96 +
STACK CFI 3c2dc .cfa: x29 96 + x19: .cfa -8 + ^ x20: .cfa -16 + ^ x21: .cfa -24 + ^ x22: .cfa -32 + ^ x23: .cfa -40 + ^ x24: .cfa -48 + ^ x25: .cfa -56 + ^ x26: .cfa -64 + ^ x27: .cfa -72 + ^ x28: .cfa -80 + ^ .ra: .cfa -88 + ^ x29: .cfa -96 + ^
STACK CFI 3cde0 .cfa: sp 96 +
STACK CFI 3cdf8 .cfa: sp 0 +
STACK CFI 3cdfc .cfa: x29 96 +
STACK CFI INIT 3d214 ad4 .cfa: sp 0 +
STACK CFI 3d218 .cfa: sp 96 +
STACK CFI 3d230 .cfa: x29 96 + x19: .cfa -8 + ^ x20: .cfa -16 + ^ x21: .cfa -24 + ^ x22: .cfa -32 + ^ x23: .cfa -40 + ^ x24: .cfa -48 + ^ x25: .cfa -56 + ^ x26: .cfa -64 + ^ x27: .cfa -72 + ^ x28: .cfa -80 + ^ .ra: .cfa -88 + ^ x29: .cfa -96 + ^
STACK CFI 3dc5c .cfa: sp 96 +
STACK CFI 3dc74 .cfa: sp 0 +
STACK CFI 3dc78 .cfa: x29 96 +
STACK CFI INIT 3dec4 1350 .cfa: sp 0 +
STACK CFI 3dec8 .cfa: sp 96 +
STACK CFI 3dee0 .cfa: x29 96 + x19: .cfa -8 + ^ x20: .cfa -16 + ^ x21: .cfa -24 + ^ x22: .cfa -32 + ^ x23: .cfa -40 + ^ x24: .cfa -48 + ^ x25: .cfa -56 + ^ x26: .cfa -64 + ^ x27: .cfa -72 + ^ x28: .cfa -80 + ^ .ra: .cfa -88 + ^ x29: .cfa -96 + ^
STACK CFI 3f0e0 .cfa: sp 96 +
STACK CFI 3f0f8 .cfa: sp 0 +
STACK CFI 3f0fc .cfa: x29 96 +
STACK CFI INIT 3f338 744 .cfa: sp 0 +
STACK CFI 3f33c .cfa: sp 368 +
STACK CFI 3f358 .cfa: x29 96 + x19: .cfa -8 + ^ x20: .cfa -16 + ^ x21: .cfa -24 + ^ x22: .cfa -32 + ^ x23: .cfa -40 + ^ x24: .cfa -48 + ^ x25: .cfa -56 + ^ x26: .cfa -64 + ^ x27: .cfa -72 + ^ x28: .cfa -80 + ^ .ra: .cfa -88 + ^ x29: .cfa -96 + ^
STACK CFI 3f3f4 .cfa: sp 368 +
STACK CFI 3f410 .cfa: sp 0 +
STACK CFI 3f414 .cfa: x29 96 +
STACK CFI 3f468 .cfa: sp 368 +
STACK CFI 3f484 .cfa: sp 0 +
STACK CFI 3f488 .cfa: x29 96 +
STACK CFI INIT 3fe10 e84 .cfa: sp 0 +
STACK CFI 3fe14 .cfa: sp 96 +
STACK CFI 3fe2c .cfa: x29 96 + x19: .cfa -8 + ^ x20: .cfa -16 + ^ x21: .cfa -24 + ^ x22: .cfa -32 + ^ x23: .cfa -40 + ^ x24: .cfa -48 + ^ x25: .cfa -56 + ^ x26: .cfa -64 + ^ x27: .cfa -72 + ^ x28: .cfa -80 + ^ .ra: .cfa -88 + ^ x29: .cfa -96 + ^
STACK CFI 40aa8 .cfa: sp 96 +
STACK CFI 40ac0 .cfa: sp 0 +
STACK CFI 40ac4 .cfa: x29 96 +
STACK CFI INIT 41008 1c3c .cfa: sp 0 +
STACK CFI 4100c .cfa: sp 112 +
STACK CFI 41028 .cfa: x29 96 + x19: .cfa -8 + ^ x20: .cfa -16 + ^ x21: .cfa -24 + ^ x22: .cfa -32 + ^ x23: .cfa -40 + ^ x24: .cfa -48 + ^ x25: .cfa -56 + ^ x26: .cfa -64 + ^ x27: .cfa -72 + ^ x28: .cfa -80 + ^ .ra: .cfa -88 + ^ x29: .cfa -96 + ^ v8: .cfa -112 + ^
STACK CFI 42964 .cfa: sp 112 +
STACK CFI 42980 .cfa: sp 0 +
STACK CFI 42984 .cfa: x29 96 +
STACK CFI INIT 45320 98c .cfa: sp 0 +
STACK CFI 45324 .cfa: sp 144 +
STACK CFI 4533c .cfa: x29 80 + x19: .cfa -8 + ^ x20: .cfa -16 + ^ x21: .cfa -24 + ^ x22: .cfa -32 + ^ x23: .cfa -40 + ^ x24: .cfa -48 + ^ x25: .cfa -64 + ^ .ra: .cfa -72 + ^ x29: .cfa -80 + ^
STACK CFI 45c28 .cfa: sp 144 +
STACK CFI 45c40 .cfa: sp 0 +
STACK CFI 45c44 .cfa: x29 80 +
STACK CFI INIT 46c98 570 .cfa: sp 0 +
STACK CFI 46c9c .cfa: sp 96 +
STACK CFI 46cb4 .cfa: x29 96 + x19: .cfa -8 + ^ x20: .cfa -16 + ^ x21: .cfa -24 + ^ x22: .cfa -32 + ^ x23: .cfa -40 + ^ x24: .cfa -48 + ^ x25: .cfa -56 + ^ x26: .cfa -64 + ^ x27: .cfa -72 + ^ x28: .cfa -80 + ^ .ra: .cfa -88 + ^ x29: .cfa -96 + ^
STACK CFI 4716c .cfa: sp 96 +
STACK CFI 47184 .cfa: sp 0 +
STACK CFI 47188 .cfa: x29 96 +
STACK CFI INIT 47208 664 .cfa: sp 0 +
STACK CFI 4720c .cfa: sp 96 +
STACK CFI 47224 .cfa: x29 96 + x19: .cfa -8 + ^ x20: .cfa -16 + ^ x21: .cfa -24 + ^ x22: .cfa -32 + ^ x23: .cfa -40 + ^ x24: .cfa -48 + ^ x25: .cfa -56 + ^ x26: .cfa -64 + ^ x27: .cfa -72 + ^ x28: .cfa -80 + ^ .ra: .cfa -88 + ^ x29: .cfa -96 + ^
STACK CFI 477d0 .cfa: sp 96 +
STACK CFI 477e8 .cfa: sp 0 +
STACK CFI 477ec .cfa: x29 96 +
