MODULE Linux arm64 3D5B1ABEC761C9DADF569441BB6E9EC00 mishpro.comments_in_pause_menu.android64.so
INFO CODE_ID BE1A5B3D61C7DAC9DF569441BB6E9EC0C4F0109B
INFO GENERATOR mozilla/dump_syms 2.3.4
FILE 0 /home/runner/work/infoinpause/infoinpause/geode-sdk-clone/loader/include/Geode/utils/addresser.hpp
FILE 1 /home/runner/work/infoinpause/infoinpause/geode-sdk-clone/loader/include/Geode/platform/ItaniumCast.hpp
FILE 2 /usr/local/lib/android/sdk/ndk/27.2.12479018/toolchains/llvm/prebuilt/linux-x86_64/sysroot/usr/include/c++/v1/ostream
FILE 3 /usr/local/lib/android/sdk/ndk/27.2.12479018/toolchains/llvm/prebuilt/linux-x86_64/sysroot/usr/include/c++/v1/variant
FILE 4 /usr/local/lib/android/sdk/ndk/27.2.12479018/toolchains/llvm/prebuilt/linux-x86_64/sysroot/usr/include/c++/v1/__tree
FILE 5 /usr/local/lib/android/sdk/ndk/27.2.12479018/toolchains/llvm/prebuilt/linux-x86_64/sysroot/usr/include/c++/v1/locale
FILE 6 /usr/local/lib/android/sdk/ndk/27.2.12479018/toolchains/llvm/prebuilt/linux-x86_64/sysroot/usr/include/c++/v1/stdexcept
FILE 7 /usr/local/lib/android/sdk/ndk/27.2.12479018/toolchains/llvm/prebuilt/linux-x86_64/sysroot/usr/include/c++/v1/new
FILE 8 /home/runner/work/infoinpause/infoinpause/build/bindings/bindings/Geode/modify/PauseLayer.hpp
FILE 9 /home/runner/work/infoinpause/infoinpause/build/bindings/bindings/Geode/modify/LevelInfoLayer.hpp
FILE 10 /home/runner/work/infoinpause/infoinpause/build/bindings/bindings/Geode/modify/PlayLayer.hpp
FILE 11 /home/runner/work/infoinpause/infoinpause/build/bindings/bindings/Geode/modify/CCLayer.hpp
FILE 12 /home/runner/work/infoinpause/infoinpause/geode-sdk-clone/loader/include/Geode/modify/Modify.hpp
FILE 13 /usr/local/lib/android/sdk/ndk/27.2.12479018/toolchains/llvm/prebuilt/linux-x86_64/sysroot/usr/include/c++/v1/vector
FILE 14 /usr/local/lib/android/sdk/ndk/27.2.12479018/toolchains/llvm/prebuilt/linux-x86_64/sysroot/usr/include/c++/v1/string
FILE 15 /home/runner/work/infoinpause/infoinpause/cpm-cache/result/28b1b03e0682509636d5e5825265ce2421aac4dc/include/Geode/Result.hpp
FILE 16 /usr/local/lib/android/sdk/ndk/27.2.12479018/toolchains/llvm/prebuilt/linux-x86_64/sysroot/usr/include/c++/v1/__memory/shared_ptr.h
FILE 17 /home/runner/work/infoinpause/infoinpause/cpm-cache/tuliphook/727bc6fdab39f84eb52f1519195d5488a312e77e/include/tulip/HandlerData.hpp
FILE 18 /usr/local/lib/android/sdk/ndk/27.2.12479018/toolchains/llvm/prebuilt/linux-x86_64/sysroot/usr/include/c++/v1/sstream
FILE 19 /usr/local/lib/android/sdk/ndk/27.2.12479018/toolchains/llvm/prebuilt/linux-x86_64/sysroot/usr/include/c++/v1/__split_buffer
FILE 20 /home/runner/work/infoinpause/infoinpause/build/bindings/bindings/Geode/binding/PauseLayer.hpp
FILE 21 /home/runner/work/infoinpause/infoinpause/src/main.cpp
FILE 22 /home/runner/work/infoinpause/infoinpause/geode-sdk-clone/loader/include/Geode/loader/Hook.hpp
FILE 23 /home/runner/work/infoinpause/infoinpause/geode-sdk-clone/loader/include/Geode/cocos/layers_scenes_transitions_nodes/CCLayer.h
FILE 24 /usr/local/lib/android/sdk/ndk/27.2.12479018/toolchains/llvm/prebuilt/linux-x86_64/sysroot/usr/include/c++/v1/__functional/function.h
FILE 25 /home/runner/work/infoinpause/infoinpause/geode-sdk-clone/loader/include/Geode/utils/cocos.hpp
FILE 26 /home/runner/work/infoinpause/infoinpause/geode-sdk-clone/entry.cpp
FILE 27 /home/runner/work/infoinpause/infoinpause/build/bindings/bindings/Geode/GeneratedSource.cpp
FILE 28 /usr/local/lib/android/sdk/ndk/27.2.12479018/toolchains/llvm/prebuilt/linux-x86_64/sysroot/usr/include/c++/v1/unordered_map
FILE 29 /home/runner/work/infoinpause/infoinpause/cpm-cache/tuliphook/727bc6fdab39f84eb52f1519195d5488a312e77e/include/tulip/WrapperData.hpp
FILE 30 /home/runner/work/infoinpause/infoinpause/cpm-cache/tuliphook/727bc6fdab39f84eb52f1519195d5488a312e77e/include/tulip/AbstractFunction.hpp
FILE 31 /home/runner/work/infoinpause/infoinpause/geode-sdk-clone/loader/include/Geode/cocos/cocoa/CCObject.h
FILE 32 /home/runner/work/infoinpause/infoinpause/geode-sdk-clone/loader/include/Geode/cocos/robtop/keyboard_dispatcher/CCKeyboardDelegate.h
FILE 33 /home/runner/work/infoinpause/infoinpause/geode-sdk-clone/loader/include/Geode/cocos/robtop/mouse_dispatcher/CCMouseDelegate.h
FILE 34 /usr/local/lib/android/sdk/ndk/27.2.12479018/toolchains/llvm/prebuilt/linux-x86_64/sysroot/usr/include/c++/v1/__hash_table
PUBLIC b550 0 __on_dlclose
PUBLIC b560 0 __emutls_unregister_key
PUBLIC b568 0 __on_dlclose_late
PUBLIC b570 0 __atexit_handler_wrapper
PUBLIC b584 0 atexit
PUBLIC b5a0 0 pthread_atfork
PUBLIC b5b0 0 unwind_phase2
PUBLIC b6e4 0 _Unwind_Resume
PUBLIC b768 0 unwind_phase2_forced
PUBLIC m b85c 0 __unw_init_local
PUBLIC m b904 0 __unw_get_reg
PUBLIC b980 0 __unw_step_stage2
PUBLIC m b994 0 __unw_get_proc_info
PUBLIC m b9d4 0 __unw_resume
PUBLIC b9fc 0 libunwind::CFI_Parser<libunwind::LocalAddressSpace>::decodeFDE(libunwind::LocalAddressSpace&, unsigned long, libunwind::CFI_Parser<libunwind::LocalAddressSpace>::FDE_Info*, libunwind::CFI_Parser<libunwind::LocalAddressSpace>::CIE_Info*, bool)
PUBLIC bb8c 0 libunwind::CFI_Parser<libunwind::LocalAddressSpace>::parseCIE(libunwind::LocalAddressSpace&, unsigned long, libunwind::CFI_Parser<libunwind::LocalAddressSpace>::CIE_Info*)
PUBLIC be54 0 libunwind::AbstractUnwindCursor::~AbstractUnwindCursor()
PUBLIC be5c 0 libunwind::UnwindCursor<libunwind::LocalAddressSpace, libunwind::Registers_arm64>::~UnwindCursor()
PUBLIC be64 0 libunwind::UnwindCursor<libunwind::LocalAddressSpace, libunwind::Registers_arm64>::validReg(int)
PUBLIC bea8 0 libunwind::UnwindCursor<libunwind::LocalAddressSpace, libunwind::Registers_arm64>::getReg(int)
PUBLIC bf90 0 libunwind::UnwindCursor<libunwind::LocalAddressSpace, libunwind::Registers_arm64>::setReg(int, unsigned long)
PUBLIC c078 0 libunwind::UnwindCursor<libunwind::LocalAddressSpace, libunwind::Registers_arm64>::validFloatReg(int)
PUBLIC c08c 0 libunwind::UnwindCursor<libunwind::LocalAddressSpace, libunwind::Registers_arm64>::getFloatReg(int)
PUBLIC c09c 0 libunwind::UnwindCursor<libunwind::LocalAddressSpace, libunwind::Registers_arm64>::setFloatReg(int, double)
PUBLIC c0ac 0 libunwind::UnwindCursor<libunwind::LocalAddressSpace, libunwind::Registers_arm64>::step(bool)
PUBLIC c19c 0 libunwind::UnwindCursor<libunwind::LocalAddressSpace, libunwind::Registers_arm64>::getInfo(unw_proc_info_t*)
PUBLIC c1e0 0 libunwind::UnwindCursor<libunwind::LocalAddressSpace, libunwind::Registers_arm64>::jumpto()
PUBLIC c1ec 0 libunwind::UnwindCursor<libunwind::LocalAddressSpace, libunwind::Registers_arm64>::isSignalFrame()
PUBLIC c1f8 0 libunwind::UnwindCursor<libunwind::LocalAddressSpace, libunwind::Registers_arm64>::getFunctionName(char*, unsigned long, unsigned long*)
PUBLIC c224 0 libunwind::UnwindCursor<libunwind::LocalAddressSpace, libunwind::Registers_arm64>::setInfoBasedOnIPRegister(bool)
PUBLIC c4a4 0 libunwind::UnwindCursor<libunwind::LocalAddressSpace, libunwind::Registers_arm64>::getRegisterName(int)
PUBLIC c4b0 0 libunwind::UnwindCursor<libunwind::LocalAddressSpace, libunwind::Registers_arm64>::stepThroughSigReturn(libunwind::Registers_arm64&)
PUBLIC c5d0 0 libunwind::DwarfInstructions<libunwind::LocalAddressSpace, libunwind::Registers_arm64>::stepWithDwarf(libunwind::LocalAddressSpace&, unsigned long, unsigned long, libunwind::Registers_arm64&, bool&, bool)
PUBLIC ca58 0 libunwind::CFI_Parser<libunwind::LocalAddressSpace>::parseFDEInstructions(libunwind::LocalAddressSpace&, libunwind::CFI_Parser<libunwind::LocalAddressSpace>::FDE_Info const&, libunwind::CFI_Parser<libunwind::LocalAddressSpace>::CIE_Info const&, unsigned long, int, libunwind::CFI_Parser<libunwind::LocalAddressSpace>::PrologInfo*)
PUBLIC d6a0 0 libunwind::DwarfInstructions<libunwind::LocalAddressSpace, libunwind::Registers_arm64>::getCFA(libunwind::LocalAddressSpace&, libunwind::CFI_Parser<libunwind::LocalAddressSpace>::PrologInfo const&, libunwind::Registers_arm64 const&)
PUBLIC d7d4 0 libunwind::DwarfInstructions<libunwind::LocalAddressSpace, libunwind::Registers_arm64>::getSavedRegister(libunwind::LocalAddressSpace&, libunwind::Registers_arm64 const&, unsigned long, libunwind::CFI_Parser<libunwind::LocalAddressSpace>::RegisterLocation const&)
PUBLIC d9e4 0 libunwind::LocalAddressSpace::getEncodedP(unsigned long&, unsigned long, unsigned char, unsigned long)
PUBLIC dd70 0 libunwind::LocalAddressSpace::getULEB128(unsigned long&, unsigned long)
PUBLIC df38 0 libunwind::DwarfInstructions<libunwind::LocalAddressSpace, libunwind::Registers_arm64>::evaluateExpression(unsigned long, libunwind::LocalAddressSpace&, libunwind::Registers_arm64 const&, unsigned long)
PUBLIC e8f4 0 libunwind::UnwindCursor<libunwind::LocalAddressSpace, libunwind::Registers_arm64>::getInfoFromDwarfSection(unsigned long, libunwind::UnwindInfoSections const&, unsigned int)
PUBLIC ebc8 0 libunwind::findUnwindSectionsByPhdr(dl_phdr_info*, unsigned long, void*)
PUBLIC ecfc 0 libunwind::EHHeaderParser<libunwind::LocalAddressSpace>::decodeEHHdr(libunwind::LocalAddressSpace&, unsigned long, unsigned long, libunwind::EHHeaderParser<libunwind::LocalAddressSpace>::EHHeaderInfo&)
PUBLIC ee1c 0 libunwind::CFI_Parser<libunwind::LocalAddressSpace>::findFDE(libunwind::LocalAddressSpace&, unsigned long, unsigned long, unsigned long, unsigned long, libunwind::CFI_Parser<libunwind::LocalAddressSpace>::FDE_Info*, libunwind::CFI_Parser<libunwind::LocalAddressSpace>::CIE_Info*)
PUBLIC efe4 0 libunwind::EHHeaderParser<libunwind::LocalAddressSpace>::findFDE(libunwind::LocalAddressSpace&, unsigned long, unsigned long, unsigned int, libunwind::CFI_Parser<libunwind::LocalAddressSpace>::FDE_Info*, libunwind::CFI_Parser<libunwind::LocalAddressSpace>::CIE_Info*)
PUBLIC f14c 0 libunwind::EHHeaderParser<libunwind::LocalAddressSpace>::getTableEntrySize(unsigned char)
PUBLIC f248 0 libunwind::Registers_arm64::getRegisterName(int)
PUBLIC f278 0 __libunwind_Registers_arm64_jumpto
PUBLIC m f308 0 __unw_getcontext
PUBLIC f3b0 0 __aarch64_ldadd8_relax
PUBLIC f3e0 0 init_have_lse_atomics
PUBLIC f478 0 __init_cpu_features_constructor
PUBLIC fa14 0 __init_cpu_features
PUBLIC faa0 0 __aarch64_ldadd8_acq_rel
FUNC fad0 444 0 __cxx_global_var_init
fb0c 408 387 12
FUNC ff14 18 0 geode::modifier::ModifyBase<geode::modifier::ModifyDerive<MyPauseLayer, PauseLayer> >::~ModifyBase()
ff14 18 141 12
FUNC ff2c 41c 0 __cxx_global_var_init.1
ff50 3f8 387 12
FUNC 10348 18 0 geode::modifier::ModifyBase<geode::modifier::ModifyDerive<hook32<(anonymous namespace)::hook32Parent>, LevelInfoLayer> >::~ModifyBase()
10348 18 141 12
FUNC 10360 4c 0 __cxx_global_var_init.2
1036c 40 387 12
FUNC 103ac 18 0 geode::modifier::ModifyBase<geode::modifier::ModifyDerive<FixedPlayLayer, PlayLayer> >::~ModifyBase()
103ac 18 141 12
FUNC 103c4 444 0 __cxx_global_var_init.3
10400 408 387 12
FUNC 10808 18 0 geode::modifier::ModifyBase<geode::modifier::ModifyDerive<MyCCLayer, cocos2d::CCLayer> >::~ModifyBase()
10808 18 141 12
FUNC 10820 380 0 geode::modifier::ModifyDerive<MyPauseLayer, PauseLayer>::apply()
10820 2c 281 8
1084c 240 287 8
10a8c 28 311 8
10ab4 ec 287 8
FUNC 10ba0 50 0 std::__ndk1::shared_ptr<geode::Hook>::~shared_ptr[abi:ne180000]()
10ba0 c 643 16
10bac 8 644 16
10bb4 10 645 16
10bc4 c 646 16
10bd0 20 645 16
FUNC 10bf0 74 0 geode::impl::ResultData<geode::Hook*, std::__ndk1::basic_string<char, std::__ndk1::char_traits<char>, std::__ndk1::allocator<char> > >::~ResultData()
10bf0 74 334 15
FUNC 10c64 7c 0 std::__ndk1::vector<std::__ndk1::basic_string<char, std::__ndk1::char_traits<char>, std::__ndk1::allocator<char> >, std::__ndk1::allocator<std::__ndk1::basic_string<char, std::__ndk1::char_traits<char>, std::__ndk1::allocator<char> > > >::~vector[abi:ne180000]()
10c64 7c 501 13
FUNC 10ce0 4 0 geode::modifier::ModifyBase<geode::modifier::ModifyDerive<MyPauseLayer, PauseLayer> >::apply()
10ce0 4 357 12
PUBLIC 10ce4 0 __clang_call_terminate
FUNC 10cf4 154 0 _ZN5geode15UnwrapExceptionC2IRPNS_4HookEQsr4implE18IsStringStreamableIT_EEENS_4impl5OkTagEOS5_
10cf4 20 316 15
10d14 48 315 15
10d5c 5c 314 15
10db8 4 315 15
10dbc 18 314 15
10dd4 34 316 15
10e08 40 314 15
FUNC 10e48 34 0 std::__ndk1::__throw_bad_variant_access[abi:ne180000]()
10e48 8 285 3
10e50 2c 287 3
FUNC 10e7c 124 0 std::__ndk1::basic_stringstream<char, std::__ndk1::char_traits<char>, std::__ndk1::allocator<char> >::basic_stringstream[abi:ne180000]()
10e7c 124 1010 18
FUNC 10fa0 80 0 std::__ndk1::basic_stringstream<char, std::__ndk1::char_traits<char>, std::__ndk1::allocator<char> >::~basic_stringstream()
10fa0 80 1102 18
FUNC 11020 24 0 geode::UnwrapException::~UnwrapException()
11020 24 325 15
FUNC 11044 198 0 std::__ndk1::__put_character_sequence[abi:ne180000]<char, std::__ndk1::char_traits<char> >(std::__ndk1::basic_ostream<char, std::__ndk1::char_traits<char> >, std::__ndk1::basic_ostream const*, unsigned long)
11044 34 665 2
11078 c 669 2
11084 8 670 2
1108c c 673 2
11098 4 678 2
1109c 4 673 2
110a0 4 675 2
110a4 54 678 2
110f8 10 675 2
11108 10 672 2
11118 1c 680 2
11134 8 683 2
1113c 38 687 2
11174 10 678 2
11184 18 683 2
1119c 10 684 2
111ac 30 685 2
FUNC 111dc 1b4 0 std::__ndk1::__pad_and_output[abi:ne180000]<char, std::__ndk1::char_traits<char> >(std::__ndk1::char_traits<char>, std::__ndk1::ostreambuf_iterator const*, std::__ndk1::ostreambuf_iterator const, std::__ndk1::ostreambuf_iterator const, std::__ndk1::ios_base&, std::__ndk1::ostreambuf_iterator)
111dc 30 1246 5
1120c 4 1247 5
11210 4 1250 5
11214 4 1249 5
11218 10 1255 5
11228 c 1251 5
11234 8 1256 5
1123c 1c 1257 5
11258 8 1262 5
11260 4c 1263 5
112ac 2c 1264 5
112d8 1c 1268 5
112f4 4 1269 5
112f8 8 1270 5
11300 20 1271 5
11320 c 1276 5
1132c 34 1278 5
11360 30 1268 5
FUNC 11390 14 0 std::__ndk1::basic_string<char, std::__ndk1::char_traits<char>, std::__ndk1::allocator<char> >::__throw_length_error[abi:ne180000]() const
11390 8 2118 14
11398 c 2119 14
FUNC 113a4 50 0 std::__ndk1::__throw_length_error[abi:ne180000](char const*)
113a4 10 239 6
113b4 40 241 6
FUNC 113f4 30 0 std::length_error::length_error[abi:ne180000](char const*)
113f4 30 152 6
FUNC 11424 34 0 std::__throw_bad_array_new_length([abi:ne180000], void)
11424 c 172 7
11430 28 174 7
FUNC 11458 15c 0 std::__ndk1::basic_stringbuf<char, std::__ndk1::char_traits<char>, std::__ndk1::allocator<char> >::str[abi:ne180000]() &&
11458 18 396 18
11470 40 397 18
114b0 8 398 18
114b8 8 402 18
114c0 4 398 18
114c4 4 402 18
114c8 4 398 18
114cc c 402 18
114d8 4 398 18
114dc 8 402 18
114e4 4 398 18
114e8 4 402 18
114ec 4 398 18
114f0 3c 402 18
1152c 4 401 18
11530 30 402 18
11560 1c 403 18
1157c 4 404 18
11580 34 406 18
FUNC 115b4 148 0 std::__ndk1::basic_stringbuf<char, std::__ndk1::char_traits<char>, std::__ndk1::allocator<char> >::__init_buf_ptrs[abi:ne180000]()
115b4 10 626 18
115c4 8 628 18
115cc 4 630 18
115d0 4 628 18
115d4 4 627 18
115d8 8 629 18
115e0 4 628 18
115e4 4 629 18
115e8 4 630 18
115ec 4 631 18
115f0 4 632 18
115f4 4 631 18
115f8 4 632 18
115fc 4 634 18
11600 20 636 18
11620 4 635 18
11624 4 636 18
11628 4 635 18
1162c 3c 636 18
11668 14 637 18
1167c 4 638 18
11680 4 637 18
11684 4 638 18
11688 8 637 18
11690 4 638 18
11694 48 639 18
116dc 4 640 18
116e0 4 643 18
116e4 8 644 18
116ec 10 647 18
FUNC 116fc 218 0 std::__ndk1::vector<std::__ndk1::basic_string<char, std::__ndk1::char_traits<char>, std::__ndk1::allocator<char> >, std::__ndk1::allocator<std::__ndk1::basic_string<char, std::__ndk1::char_traits<char>, std::__ndk1::allocator<char> > > >::__push_back_slow_path<std::__ndk1::basic_string<char, std::__ndk1::char_traits<char>, std::__ndk1::allocator<char> > const&>(std::__ndk1::basic_string<char, std::__ndk1::char_traits<char>, std::__ndk1::allocator<char> > const&)
116fc 30 1449 13
1172c 94 1451 13
117c0 4 1453 13
117c4 4 1451 13
117c8 24 1453 13
117ec 4 1455 13
117f0 4 1454 13
117f4 4 1455 13
117f8 4 1454 13
117fc 44 1455 13
11840 4 1457 13
11844 10 1455 13
11854 70 1457 13
118c4 2c 1451 13
118f0 24 1457 13
FUNC 11914 70 0 std::__ndk1::basic_string<char, std::__ndk1::char_traits<char>, std::__ndk1::allocator<char> >::__init_copy_ctor_external(char const*, unsigned long)
11914 14 2232 14
11928 8 2237 14
11930 10 2239 14
11940 8 2241 14
11948 10 2243 14
11958 8 2247 14
11960 4 2246 14
11964 4 2247 14
11968 14 2250 14
1197c 8 2242 14
FUNC 11984 68 0 std::__ndk1::__split_buffer<std::__ndk1::basic_string<char, std::__ndk1::char_traits<char>, std::__ndk1::allocator<char> >, std::__ndk1::allocator<std::__ndk1::basic_string<char, std::__ndk1::char_traits<char>, std::__ndk1::allocator<char> > >&>::~__split_buffer()
11984 c 352 19
11990 10 353 19
119a0 8 354 19
119a8 c 355 19
119b4 2c 353 19
119e0 c 356 19
FUNC 119ec 14 0 std::__ndk1::vector<std::__ndk1::basic_string<char, std::__ndk1::char_traits<char>, std::__ndk1::allocator<char> >, std::__ndk1::allocator<std::__ndk1::basic_string<char, std::__ndk1::char_traits<char>, std::__ndk1::allocator<char> > > >::__throw_length_error[abi:ne180000]() const
119ec 14 940 13
FUNC 11a00 4 0 std::__ndk1::__variant_detail::__visitation::__base::__dispatcher<(unsigned long)0>::__dispatch[abi:ne180000]<std::__ndk1::__variant_detail::__dtor<std::__ndk1::__variant_detail::__traits<geode::Hook*, std::__ndk1::basic_string<char, std::__ndk1::char_traits<char>, std::__ndk1::allocator<char> > >, (std::__ndk1::__variant_detail::_Trait)1>::__destroy[abi:ne180000]()::{lambda(auto:1&)#1}, std::__ndk1::__variant_detail::__base<(std::__ndk1::__variant_detail::__traits<geode::Hook*, std::__ndk1::basic_string<char, std::__ndk1::char_traits<char>, std::__ndk1::allocator<char> > >)1, geode::Hook, std::__ndk1::allocator<char> >&>(std::__ndk1::__variant_detail::__dtor<std::__ndk1::__variant_detail::__traits<geode::Hook*, std::__ndk1::basic_string<char, std::__ndk1::char_traits<char>, std::__ndk1::allocator<char> > >, (std::__ndk1::__variant_detail::_Trait)1>, std::__ndk1::__variant_detail::__base<(std::__ndk1::__variant_detail::__traits<geode::Hook*, std::__ndk1::basic_string<char, std::__ndk1::char_traits<char>, std::__ndk1::allocator<char> > >)1, geode::Hook, std::__ndk1::allocator<char> >&)
11a00 4 526 3
FUNC 11a04 14 0 std::__ndk1::__variant_detail::__visitation::__base::__dispatcher<(unsigned long)1>::__dispatch[abi:ne180000]<std::__ndk1::__variant_detail::__dtor<std::__ndk1::__variant_detail::__traits<geode::Hook*, std::__ndk1::basic_string<char, std::__ndk1::char_traits<char>, std::__ndk1::allocator<char> > >, (std::__ndk1::__variant_detail::_Trait)1>::__destroy[abi:ne180000]()::{lambda(auto:1&)#1}, std::__ndk1::__variant_detail::__base<(std::__ndk1::__variant_detail::__traits<geode::Hook*, std::__ndk1::basic_string<char, std::__ndk1::char_traits<char>, std::__ndk1::allocator<char> > >)1, geode::Hook, std::__ndk1::allocator<char> >&>(std::__ndk1::__variant_detail::__dtor<std::__ndk1::__variant_detail::__traits<geode::Hook*, std::__ndk1::basic_string<char, std::__ndk1::char_traits<char>, std::__ndk1::allocator<char> > >, (std::__ndk1::__variant_detail::_Trait)1>, std::__ndk1::__variant_detail::__base<(std::__ndk1::__variant_detail::__traits<geode::Hook*, std::__ndk1::basic_string<char, std::__ndk1::char_traits<char>, std::__ndk1::allocator<char> > >)1, geode::Hook, std::__ndk1::allocator<char> >&)
11a04 14 526 3
FUNC 11a18 fc 0 std::__ndk1::__tree<std::__ndk1::__value_type<std::__ndk1::basic_string<char, std::__ndk1::char_traits<char>, std::__ndk1::allocator<char> >, std::__ndk1::shared_ptr<geode::Hook> >, std::__ndk1::__map_value_compare<std::__ndk1::basic_string<char, std::__ndk1::char_traits<char>, std::__ndk1::allocator<char> >, std::__ndk1::__value_type<std::__ndk1::basic_string<char, std::__ndk1::char_traits<char>, std::__ndk1::allocator<char> >, std::__ndk1::shared_ptr<geode::Hook> >, std::__ndk1::less<std::__ndk1::basic_string<char, std::__ndk1::char_traits<char>, std::__ndk1::allocator<char> > >, true>, std::__ndk1::allocator<std::__ndk1::__value_type<std::__ndk1::basic_string<char, std::__ndk1::char_traits<char>, std::__ndk1::allocator<char> >, std::__ndk1::shared_ptr<geode::Hook> > > >::find<std::__ndk1::basic_string<char, std::__ndk1::char_traits<char>, std::__ndk1::allocator<char> > >(std::__ndk1::basic_string<char, std::__ndk1::char_traits<char>, std::__ndk1::allocator<char> > const&)
11a18 18 2087 4
11a30 7c 2088 4
11aac 50 2089 4
11afc 18 2092 4
FUNC 11b14 454 0 std::__ndk1::__tree<std::__ndk1::__value_type<std::__ndk1::basic_string<char, std::__ndk1::char_traits<char>, std::__ndk1::allocator<char> >, std::__ndk1::shared_ptr<geode::Hook> >, std::__ndk1::__map_value_compare<std::__ndk1::basic_string<char, std::__ndk1::char_traits<char>, std::__ndk1::allocator<char> >, std::__ndk1::__value_type<std::__ndk1::basic_string<char, std::__ndk1::char_traits<char>, std::__ndk1::allocator<char> >, std::__ndk1::shared_ptr<geode::Hook> >, std::__ndk1::less<std::__ndk1::basic_string<char, std::__ndk1::char_traits<char>, std::__ndk1::allocator<char> > >, true>, std::__ndk1::allocator<std::__ndk1::__value_type<std::__ndk1::basic_string<char, std::__ndk1::char_traits<char>, std::__ndk1::allocator<char> >, std::__ndk1::shared_ptr<geode::Hook> > > >::erase(std::__ndk1::__tree_const_iterator<std::__ndk1::__value_type<std::__ndk1::basic_string<char, std::__ndk1::char_traits<char>, std::__ndk1::allocator<char> >, std::__ndk1::shared_ptr<geode::Hook> >, std::__ndk1::__tree_node<std::__ndk1::__value_type<std::__ndk1::basic_string<char, std::__ndk1::char_traits<char>, std::__ndk1::allocator<char> >, std::__ndk1::shared_ptr<geode::Hook> >, void*>*, long>)
11b14 c 2046 4
11b20 284 2048 4
11da4 14 2050 4
11db8 4 2048 4
11dbc c 2050 4
11dc8 a4 2048 4
11e6c 40 2050 4
11eac 10 2051 4
11ebc a0 2048 4
11f5c c 2050 4
FUNC 11f68 84 0 std::__ndk1::__tree<std::__ndk1::__value_type<std::__ndk1::basic_string<char, std::__ndk1::char_traits<char>, std::__ndk1::allocator<char> >, std::__ndk1::shared_ptr<geode::Hook> >, std::__ndk1::__map_value_compare<std::__ndk1::basic_string<char, std::__ndk1::char_traits<char>, std::__ndk1::allocator<char> >, std::__ndk1::__value_type<std::__ndk1::basic_string<char, std::__ndk1::char_traits<char>, std::__ndk1::allocator<char> >, std::__ndk1::shared_ptr<geode::Hook> >, std::__ndk1::less<std::__ndk1::basic_string<char, std::__ndk1::char_traits<char>, std::__ndk1::allocator<char> > >, true>, std::__ndk1::allocator<std::__ndk1::__value_type<std::__ndk1::basic_string<char, std::__ndk1::char_traits<char>, std::__ndk1::allocator<char> >, std::__ndk1::shared_ptr<geode::Hook> > > >::destroy(std::__ndk1::__tree_node<std::__ndk1::__value_type<std::__ndk1::basic_string<char, std::__ndk1::char_traits<char>, std::__ndk1::allocator<char> >, std::__ndk1::shared_ptr<geode::Hook> >, void*>*)
11f68 14 1544 4
11f7c 8 1545 4
11f84 8 1546 4
11f8c 28 1548 4
11fb4 10 1549 4
11fc4 4 1551 4
11fc8 24 1548 4
FUNC 11fec a8 0 geode::addresser::getVirtual<void (PauseLayer::*)()>(void (PauseLayer::*)())
11fec c 169 0
11ff8 9c 170 0
FUNC 12094 150 0 geode::modifier::AsStaticFunction_customSetup<MyPauseLayer, void (MyPauseLayer::*)()>::Impl<void (MyPauseLayer::*)()>::function(MyPauseLayer*)
12094 150 25 8
FUNC 121e4 8c 0 PauseLayer::PauseLayer(geode::ZeroConstructorType)
121e4 8c 17 20
FUNC 12270 50 0 std::__ndk1::shared_ptr<tulip::hook::CallingConvention>::~shared_ptr[abi:ne180000]()
12270 c 643 16
1227c 8 644 16
12284 10 645 16
12294 c 646 16
122a0 20 645 16
FUNC 122c0 64 0 tulip::hook::HandlerMetadata::~HandlerMetadata()
122c0 64 12 17
FUNC 12324 f4 0 MyPauseLayer::onCommentsButton(cocos2d::CCObject*)
12324 10 20 21
12334 98 21 21
123cc 8 22 21
123d4 4 23 21
123d8 4 24 21
123dc 4 25 21
123e0 c 26 21
123ec 4 27 21
123f0 18 28 21
12408 10 29 21
FUNC 12418 d8 0 geode::cast::traverseTypeinfoFor(void*, geode::cast::ClassTypeinfoType const*, char const*)
12418 14 57 1
1242c c 59 1
12438 1c 60 1
12454 4 64 1
12458 4 65 1
1245c 8 64 1
12464 c 65 1
12470 4 67 1
12474 4 60 1
12478 4 59 1
1247c c 60 1
12488 18 69 1
124a0 18 80 1
124b8 c 71 1
124c4 4 73 1
124c8 4 74 1
124cc 4 73 1
124d0 8 74 1
124d8 18 71 1
FUNC 124f0 104 0 std::__ndk1::__tree<std::__ndk1::__value_type<std::__ndk1::basic_string<char, std::__ndk1::char_traits<char>, std::__ndk1::allocator<char> >, std::__ndk1::shared_ptr<geode::Hook> >, std::__ndk1::__map_value_compare<std::__ndk1::basic_string<char, std::__ndk1::char_traits<char>, std::__ndk1::allocator<char> >, std::__ndk1::__value_type<std::__ndk1::basic_string<char, std::__ndk1::char_traits<char>, std::__ndk1::allocator<char> >, std::__ndk1::shared_ptr<geode::Hook> >, std::__ndk1::less<std::__ndk1::basic_string<char, std::__ndk1::char_traits<char>, std::__ndk1::allocator<char> > >, true>, std::__ndk1::allocator<std::__ndk1::__value_type<std::__ndk1::basic_string<char, std::__ndk1::char_traits<char>, std::__ndk1::allocator<char> >, std::__ndk1::shared_ptr<geode::Hook> > > >::__find_equal<std::__ndk1::basic_string<char, std::__ndk1::char_traits<char>, std::__ndk1::allocator<char> > >(std::__ndk1::__tree_end_node<std::__ndk1::__tree_node_base<void*>*>*&, std::__ndk1::basic_string<char, std::__ndk1::char_traits<char>, std::__ndk1::allocator<char> > const&)
124f0 20 1682 4
12510 4 1683 4
12514 20 1685 4
12534 10 1688 4
12544 50 1687 4
12594 2c 1695 4
125c0 14 1696 4
125d4 20 1711 4
FUNC 125f4 19c 0 std::__ndk1::__tree_balance_after_insert[abi:ne180000]<std::__ndk1::__tree_node_base<void*>*>(std::__ndk1::__tree_node_base<void*>*, std::__ndk1::__tree_node_base<void*>*)
125f4 c 285 4
12600 34 286 4
12634 10 288 4
12644 10 310 4
12654 4 289 4
12658 c 290 4
12664 c 297 4
12670 38 299 4
126a8 4 303 4
126ac 4 299 4
126b0 8 305 4
126b8 4 330 4
126bc 14 317 4
126d0 30 319 4
12700 4 323 4
12704 4 319 4
12708 8 325 4
12710 4 322 4
12714 4 325 4
12718 4 324 4
1271c 2c 325 4
12748 8 330 4
12750 8 305 4
12758 4 302 4
1275c 4 304 4
12760 2c 305 4
1278c 4 330 4
FUNC 12790 510 0 geode::modifier::ModifyDerive<hook32<(anonymous namespace)::hook32Parent>, LevelInfoLayer>::apply()
12790 2c 646 9
127bc 1b4 689 9
12970 1e0 707 9
12b50 28 711 9
12b78 24 689 9
12b9c 24 707 9
12bc0 30 689 9
12bf0 48 707 9
12c38 14 689 9
12c4c 54 707 9
FUNC 12ca0 4 0 geode::modifier::ModifyBase<geode::modifier::ModifyDerive<hook32<(anonymous namespace)::hook32Parent>, LevelInfoLayer> >::apply()
12ca0 4 357 12
FUNC 12ca4 184 0 geode::Hook::create<void (*)(hook32<(anonymous namespace)::hook32Parent>*, cocos2d::CCObject*)>(void*, void (*)(hook32<(anonymous namespace)::hook32Parent>*, cocos2d::CCObject*), std::__ndk1::basic_string<char, std::__ndk1::char_traits<char>, std::__ndk1::allocator<char> > const&, tulip::hook::TulipConvention, tulip::hook::HookMetadata const&)
12ca4 2c 58 22
12cd0 20 60 22
12cf0 64 61 22
12d54 1c 63 22
12d70 80 70 22
12df0 14 61 22
12e04 24 59 22
FUNC 12e28 17c 0 geode::modifier::AsStaticFunction_onPlay<hook32<(anonymous namespace)::hook32Parent>, void (hook32<(anonymous namespace)::hook32Parent>::*)(cocos2d::CCObject*)>::Impl<void (hook32<(anonymous namespace)::hook32Parent>::*)(cocos2d::CCObject*)>::function(hook32<(anonymous namespace)::hook32Parent>*, cocos2d::CCObject*)
12e28 17c 215 9
FUNC 12fa4 17c 0 geode::modifier::AsStaticFunction_tryCloneLevel<hook32<(anonymous namespace)::hook32Parent>, void (hook32<(anonymous namespace)::hook32Parent>::*)(cocos2d::CCObject*)>::Impl<void (hook32<(anonymous namespace)::hook32Parent>::*)(cocos2d::CCObject*)>::function(hook32<(anonymous namespace)::hook32Parent>*, cocos2d::CCObject*)
12fa4 17c 305 9
FUNC 13120 4 0 geode::modifier::ModifyDerive<FixedPlayLayer, PlayLayer>::apply()
13120 4 1408 10
FUNC 13124 4 0 geode::modifier::ModifyBase<geode::modifier::ModifyDerive<FixedPlayLayer, PlayLayer> >::apply()
13124 4 357 12
FUNC 13128 388 0 geode::modifier::ModifyDerive<MyCCLayer, cocos2d::CCLayer>::apply()
13128 2c 466 11
13154 248 481 11
1339c 28 516 11
133c4 ec 481 11
FUNC 134b0 4 0 geode::modifier::ModifyBase<geode::modifier::ModifyDerive<MyCCLayer, cocos2d::CCLayer> >::apply()
134b0 4 357 12
FUNC 134b4 a8 0 geode::addresser::getVirtual<void (cocos2d::CCLayer::*)()>(void (cocos2d::CCLayer::*)())
134b4 c 169 0
134c0 9c 170 0
FUNC 1355c 170 0 geode::modifier::AsStaticFunction_onEnter<MyCCLayer, void (MyCCLayer::*)()>::Impl<void (MyCCLayer::*)()>::function(MyCCLayer*)
1355c 170 60 11
FUNC 136cc 88 0 cocos2d::CCLayer::CCLayer(geode::ZeroConstructorType)
136cc 88 76 23
FUNC 13754 20 0 FixedPlayLayer::onEnterH()::{lambda()#1}::~{lambda()#1}()
13754 20 69 21
FUNC 13774 30 0 std::__ndk1::__function::__func<FixedPlayLayer::onEnterH()::{lambda()#1}, std::__ndk1::allocator<FixedPlayLayer::onEnterH()::{lambda()#1}>, void ()>::~__func()
13774 30 250 24
FUNC 137a4 3c 0 std::__ndk1::__function::__func<FixedPlayLayer::onEnterH()::{lambda()#1}, std::__ndk1::allocator<FixedPlayLayer::onEnterH()::{lambda()#1}>, void ()>::~__func()
137a4 3c 250 24
FUNC 137e0 58 0 std::__ndk1::__function::__func<FixedPlayLayer::onEnterH()::{lambda()#1}, std::__ndk1::allocator<FixedPlayLayer::onEnterH()::{lambda()#1}>, void ()>::__clone() const
137e0 10 277 24
137f0 c 282 24
137fc 18 283 24
13814 24 285 24
FUNC 13838 1c 0 std::__ndk1::__function::__func<FixedPlayLayer::onEnterH()::{lambda()#1}, std::__ndk1::allocator<FixedPlayLayer::onEnterH()::{lambda()#1}>, void ()>::__clone(std::__ndk1::__function::__base<void ()>*) const
13838 18 289 24
13850 4 290 24
FUNC 13854 20 0 std::__ndk1::__function::__func<FixedPlayLayer::onEnterH()::{lambda()#1}, std::__ndk1::allocator<FixedPlayLayer::onEnterH()::{lambda()#1}>, void ()>::destroy()
13854 8 293 24
1385c c 294 24
13868 8 295 24
13870 4 294 24
FUNC 13874 30 0 std::__ndk1::__function::__func<FixedPlayLayer::onEnterH()::{lambda()#1}, std::__ndk1::allocator<FixedPlayLayer::onEnterH()::{lambda()#1}>, void ()>::destroy_deallocate()
13874 10 298 24
13884 c 302 24
13890 10 303 24
138a0 4 302 24
FUNC 138a4 14c 0 std::__ndk1::__function::__func<FixedPlayLayer::onEnterH()::{lambda()#1}, std::__ndk1::allocator<FixedPlayLayer::onEnterH()::{lambda()#1}>, void ()>::operator()()
138a4 28 307 24
138cc 124 308 24
FUNC 139f0 1c 0 std::__ndk1::__function::__func<FixedPlayLayer::onEnterH()::{lambda()#1}, std::__ndk1::allocator<FixedPlayLayer::onEnterH()::{lambda()#1}>, void ()>::target(std::type_info const&) const
139f0 18 315 24
13a08 4 318 24
FUNC 13a0c c 0 std::__ndk1::__function::__func<FixedPlayLayer::onEnterH()::{lambda()#1}, std::__ndk1::allocator<FixedPlayLayer::onEnterH()::{lambda()#1}>, void ()>::target_type() const
13a0c c 322 24
FUNC 13a18 20 0 geode::cocos::CCArrayExt<cocos2d::CCNode*>::~CCArrayExt()
13a18 20 1009 25
FUNC 13a38 30 0 geodeImplicitEntry
13a38 c 16 26
13a44 18 18 26
13a5c c 19 26
FUNC 13a68 4c 0 std::__ndk1::unordered_map<void*, bool, std::__ndk1::hash<void*>, std::__ndk1::equal_to<void*>, std::__ndk1::allocator<std::__ndk1::pair<void* const, bool> > >::~unordered_map[abi:ne180000]()
13a68 10 1178 28
13a78 3c 1180 28
FUNC 13ab4 134 0 wrapFunction(unsigned long, tulip::hook::WrapperMetadata const&)
13ab4 1c 27 27
13ad0 8 28 27
13ad8 8 29 27
13ae0 4 32 27
13ae4 20 33 27
13b04 4 32 27
13b08 c 29 27
13b14 30 30 27
13b44 7c 32 27
13bc0 28 33 27
FUNC 13be8 78 0 geode::impl::ResultData<void*, std::__ndk1::basic_string<char, std::__ndk1::char_traits<char>, std::__ndk1::allocator<char> > >::unwrapErr() &
13be8 c 472 15
13bf4 c 473 15
13c00 10 474 15
13c10 50 477 15
FUNC 13c60 74 0 geode::impl::ResultData<void*, std::__ndk1::basic_string<char, std::__ndk1::char_traits<char>, std::__ndk1::allocator<char> > >::~ResultData()
13c60 74 334 15
FUNC 13cd4 64 0 tulip::hook::WrapperMetadata::~WrapperMetadata()
13cd4 64 10 29
FUNC 13d38 24 0 cocos2d::CCObject::~CCObject()
13d38 24 76 27
FUNC 13d5c 24 0 cocos2d::CCNode::~CCNode()
13d5c 24 106 27
FUNC 13d80 8 0 {virtual override thunk({offset(-320)}, cocos2d::CCLayer::~CCLayer())}
FUNC 13d88 24 0 cocos2d::CCLayer::~CCLayer()
13d88 24 447 27
FUNC 13dac 28 0 {virtual override thunk({offset(-320)}, cocos2d::CCLayer::~CCLayer())}
FUNC 13dd4 1b8 0 FLAlertLayer::create(FLAlertLayerProtocol*, char const*, gd::string, char const*, char const*, float)
13dd4 44 1341 27
13e18 14 1343 27
13e2c 6c 1347 27
13e98 38 1343 27
13ed0 10 1344 27
13ee0 4 1343 27
13ee4 8 1345 27
13eec 74 1343 27
13f60 2c 1347 27
FUNC 13f8c 148 0 tulip::hook::AbstractFunction::from<FLAlertLayer*, FLAlertLayerProtocol*, char const*, gd::string, char const*, char const*, float>(FLAlertLayer* (*)(FLAlertLayerProtocol*, char const*, gd::string, char const*, char const*, float))
13f8c 1c 39 30
13fa8 4 42 30
13fac 4 41 30
13fb0 c 40 30
13fbc 4 41 30
13fc0 d8 42 30
14098 3c 45 30
FUNC 140d4 8 0 cocos2d::CCCopying::copyWithZone(cocos2d::CCZone*)
140d4 8 72 31
FUNC 140dc 4 0 cocos2d::CCObject::update(float)
140dc 4 139 31
FUNC 140e0 4 0 cocos2d::CCKeyboardDelegate::keyUp(cocos2d::enumKeyCodes)
140e0 4 209 32
FUNC 140e4 4 0 cocos2d::CCMouseDelegate::rightKeyDown()
140e4 4 13 33
FUNC 140e8 4 0 cocos2d::CCMouseDelegate::rightKeyUp()
140e8 4 15 33
FUNC 140ec 4 0 cocos2d::CCMouseDelegate::scrollWheel(float, float)
140ec 4 17 33
FUNC 140f0 290 0 cocos2d::CCNode::~CCNode()
140f0 38 106 27
14128 40 109 27
14168 14 111 27
1417c c 115 27
14188 8 118 27
14190 c 119 27
1419c 44 118 27
141e0 2c 119 27
1420c 30 120 27
1423c 4c 109 27
14288 c 119 27
14294 8 118 27
1429c 3c 119 27
142d8 30 111 27
14308 10 112 27
14318 30 113 27
14348 34 111 27
1437c 4 109 27
FUNC 14380 2e0 0 cocos2d::CCLayer::~CCLayer()
14380 58 447 27
143d8 40 450 27
14418 14 452 27
1442c c 456 27
14438 10 459 27
14448 c 460 27
14454 6c 459 27
144c0 2c 460 27
144ec 30 461 27
1451c 4c 450 27
14568 c 460 27
14574 8 459 27
1457c 3c 460 27
145b8 30 452 27
145e8 10 453 27
145f8 30 454 27
14628 34 452 27
1465c 4 450 27
FUNC 14660 4ac 0 cocos2d::CCObject::~CCObject()
14660 38 76 27
14698 40 79 27
146d8 14 81 27
146ec c 85 27
146f8 4 88 27
146fc 8 89 27
14704 14 88 27
14718 2c 89 27
14744 230 90 27
14974 4c 79 27
149c0 54 90 27
14a14 c 89 27
14a20 8 88 27
14a28 3c 89 27
14a64 30 81 27
14a94 10 82 27
14aa4 30 83 27
14ad4 34 81 27
14b08 4 79 27
FUNC 14b0c 154 0 _ZN5geode15UnwrapExceptionC2IRPvQsr4implE18IsStringStreamableIT_EEENS_4impl5OkTagEOS4_
14b0c 20 316 15
14b2c 48 315 15
14b74 5c 314 15
14bd0 4 315 15
14bd4 18 314 15
14bec 34 316 15
14c20 40 314 15
FUNC 14c60 168 0 _ZN5geode15UnwrapExceptionC2IRNSt6__ndk112basic_stringIcNS2_11char_traitsIcEENS2_9allocatorIcEEEEQsr4implE18IsStringStreamableIT_EEENS_4impl6ErrTagEOSA_
14c60 20 304 15
14c80 5c 303 15
14cdc 5c 302 15
14d38 4 303 15
14d3c 18 302 15
14d54 34 304 15
14d88 40 302 15
FUNC 14dc8 4 0 std::__ndk1::__variant_detail::__visitation::__base::__dispatcher<(unsigned long)0>::__dispatch[abi:ne180000]<std::__ndk1::__variant_detail::__dtor<std::__ndk1::__variant_detail::__traits<void*, std::__ndk1::basic_string<char, std::__ndk1::char_traits<char>, std::__ndk1::allocator<char> > >, (std::__ndk1::__variant_detail::_Trait)1>::__destroy[abi:ne180000]()::{lambda(auto:1&)#1}, std::__ndk1::__variant_detail::__base<(std::__ndk1::__variant_detail::__traits<void*, std::__ndk1::basic_string<char, std::__ndk1::char_traits<char>, std::__ndk1::allocator<char> > >)1, std::__ndk1::__variant_detail::__traits, std::__ndk1::allocator<char> >&>(std::__ndk1::__variant_detail::__dtor<std::__ndk1::__variant_detail::__traits<void*, std::__ndk1::basic_string<char, std::__ndk1::char_traits<char>, std::__ndk1::allocator<char> > >, (std::__ndk1::__variant_detail::_Trait)1>, std::__ndk1::__variant_detail::__base<(std::__ndk1::__variant_detail::__traits<void*, std::__ndk1::basic_string<char, std::__ndk1::char_traits<char>, std::__ndk1::allocator<char> > >)1, std::__ndk1::__variant_detail::__traits, std::__ndk1::allocator<char> >&)
14dc8 4 526 3
FUNC 14dcc 14 0 std::__ndk1::__variant_detail::__visitation::__base::__dispatcher<(unsigned long)1>::__dispatch[abi:ne180000]<std::__ndk1::__variant_detail::__dtor<std::__ndk1::__variant_detail::__traits<void*, std::__ndk1::basic_string<char, std::__ndk1::char_traits<char>, std::__ndk1::allocator<char> > >, (std::__ndk1::__variant_detail::_Trait)1>::__destroy[abi:ne180000]()::{lambda(auto:1&)#1}, std::__ndk1::__variant_detail::__base<(std::__ndk1::__variant_detail::__traits<void*, std::__ndk1::basic_string<char, std::__ndk1::char_traits<char>, std::__ndk1::allocator<char> > >)1, std::__ndk1::__variant_detail::__traits, std::__ndk1::allocator<char> >&>(std::__ndk1::__variant_detail::__dtor<std::__ndk1::__variant_detail::__traits<void*, std::__ndk1::basic_string<char, std::__ndk1::char_traits<char>, std::__ndk1::allocator<char> > >, (std::__ndk1::__variant_detail::_Trait)1>, std::__ndk1::__variant_detail::__base<(std::__ndk1::__variant_detail::__traits<void*, std::__ndk1::basic_string<char, std::__ndk1::char_traits<char>, std::__ndk1::allocator<char> > >)1, std::__ndk1::__variant_detail::__traits, std::__ndk1::allocator<char> >&)
14dcc 14 526 3
FUNC 14de0 430 0 std::__ndk1::__hash_table<std::__ndk1::__hash_value_type<void*, bool>, std::__ndk1::__unordered_map_hasher<void*, std::__ndk1::__hash_value_type<void*, bool>, std::__ndk1::hash<void*>, std::__ndk1::equal_to<void*>, true>, std::__ndk1::__unordered_map_equal<void*, std::__ndk1::__hash_value_type<void*, bool>, std::__ndk1::equal_to<void*>, std::__ndk1::hash<void*>, true>, std::__ndk1::allocator<std::__ndk1::__hash_value_type<void*, bool> > >::__emplace_unique_key_args<void*, std::__ndk1::piecewise_construct_t const&, std::__ndk1::tuple<void* const&>, std::__ndk1::tuple<> >(void* const&, std::__ndk1::piecewise_construct_t const&, std::__ndk1::tuple<void* const&>, std::__ndk1::tuple<>)
14de0 14 1473 34
14df4 8 1474 34
14dfc 10 1475 34
14e0c 30 1474 34
14e3c 4 1479 34
14e40 3c 1480 34
14e7c 8 1481 34
14e84 8 1482 34
14e8c c 1484 34
14e98 10 1486 34
14ea8 30 1484 34
14ed8 8 1483 34
14ee0 8 1492 34
14ee8 4 1493 34
14eec c 1492 34
14ef8 8 1493 34
14f00 8 1492 34
14f08 4 1493 34
14f0c 4 1492 34
14f10 14 1493 34
14f24 2c 1495 34
14f50 1b0 1494 34
15100 30 1497 34
15130 8 1500 34
15138 4 1501 34
1513c c 1510 34
15148 8 1503 34
15150 4 1504 34
15154 4 1503 34
15158 4 1506 34
1515c 8 1507 34
15164 34 1508 34
15198 c 1515 34
151a4 18 1520 34
151bc 34 1494 34
151f0 8 1496 34
151f8 8 1494 34
15200 10 1517 34
PUBLIC 15210 0 <.plt ELF section in mishpro.comments_in_pause_menu.android64.so>
STACK CFI INIT b550 10 .cfa: sp 0 +
STACK CFI INIT b560 8 .cfa: sp 0 +
STACK CFI INIT b568 8 .cfa: sp 0 +
STACK CFI INIT b570 14 .cfa: sp 0 +
STACK CFI INIT b584 1c .cfa: sp 0 +
STACK CFI INIT b5a0 10 .cfa: sp 0 +
STACK CFI INIT b5b0 134 .cfa: sp 0 +
STACK CFI INIT b6e4 84 .cfa: sp 0 +
STACK CFI INIT b768 f4 .cfa: sp 0 +
STACK CFI INIT b85c a8 .cfa: sp 0 +
STACK CFI INIT b904 7c .cfa: sp 0 +
STACK CFI INIT b980 14 .cfa: sp 0 +
STACK CFI INIT b994 40 .cfa: sp 0 +
STACK CFI INIT b9d4 28 .cfa: sp 0 +
STACK CFI INIT b9fc 190 .cfa: sp 0 +
STACK CFI INIT bb8c 2c8 .cfa: sp 0 +
STACK CFI INIT be54 8 .cfa: sp 0 +
STACK CFI INIT be5c 8 .cfa: sp 0 +
STACK CFI INIT be64 44 .cfa: sp 0 +
STACK CFI INIT bea8 e8 .cfa: sp 0 +
STACK CFI INIT bf90 e8 .cfa: sp 0 +
STACK CFI INIT c078 14 .cfa: sp 0 +
STACK CFI INIT c08c 10 .cfa: sp 0 +
STACK CFI INIT c09c 10 .cfa: sp 0 +
STACK CFI INIT c0ac f0 .cfa: sp 0 +
STACK CFI INIT c19c 44 .cfa: sp 0 +
STACK CFI INIT c1e0 c .cfa: sp 0 +
STACK CFI INIT c1ec c .cfa: sp 0 +
STACK CFI INIT c1f8 2c .cfa: sp 0 +
STACK CFI INIT c224 280 .cfa: sp 0 +
STACK CFI INIT c4a4 c .cfa: sp 0 +
STACK CFI INIT c4b0 120 .cfa: sp 0 +
STACK CFI INIT c5d0 488 .cfa: sp 0 +
STACK CFI INIT ca58 c48 .cfa: sp 0 +
STACK CFI INIT d6a0 134 .cfa: sp 0 +
STACK CFI INIT d7d4 210 .cfa: sp 0 +
STACK CFI INIT d9e4 38c .cfa: sp 0 +
STACK CFI INIT dd70 1c8 .cfa: sp 0 +
STACK CFI INIT df38 9bc .cfa: sp 0 +
STACK CFI INIT e8f4 2d4 .cfa: sp 0 +
STACK CFI INIT ebc8 134 .cfa: sp 0 +
STACK CFI INIT ecfc 120 .cfa: sp 0 +
STACK CFI INIT ee1c 1c8 .cfa: sp 0 +
STACK CFI INIT efe4 168 .cfa: sp 0 +
STACK CFI INIT f14c fc .cfa: sp 0 +
STACK CFI INIT f248 30 .cfa: sp 0 +
STACK CFI INIT f3b0 30 .cfa: sp 0 +
STACK CFI INIT f3e0 98 .cfa: sp 0 +
STACK CFI INIT f478 59c .cfa: sp 0 +
STACK CFI INIT fa14 8c .cfa: sp 0 +
STACK CFI INIT faa0 30 .cfa: sp 0 +
STACK CFI INIT ff14 18 .cfa: sp 0 +
STACK CFI INIT 10348 18 .cfa: sp 0 +
STACK CFI INIT 10360 4c .cfa: sp 0 +
STACK CFI INIT 103ac 18 .cfa: sp 0 +
STACK CFI INIT 10808 18 .cfa: sp 0 +
STACK CFI INIT 10ba0 50 .cfa: sp 0 +
STACK CFI 10ba4 .cfa: sp 32 +
STACK CFI 10bac .cfa: x29 32 + x19: .cfa -16 + ^ .ra: .cfa -24 + ^ x29: .cfa -32 + ^
STACK CFI 10bc4 .cfa: sp 32 +
STACK CFI 10bcc .cfa: sp 0 +
STACK CFI 10bd0 .cfa: x29 32 +
STACK CFI 10be4 .cfa: sp 32 +
STACK CFI 10bec .cfa: sp 0 +
STACK CFI INIT 10c64 7c .cfa: sp 0 +
STACK CFI 10c68 .cfa: sp 48 +
STACK CFI 10c74 .cfa: x29 48 + x19: .cfa -8 + ^ x20: .cfa -16 + ^ x21: .cfa -32 + ^ .ra: .cfa -40 + ^ x29: .cfa -48 + ^
STACK CFI 10cc0 .cfa: sp 48 +
STACK CFI 10ccc .cfa: sp 0 +
STACK CFI 10cd0 .cfa: sp 48 +
STACK CFI 10cdc .cfa: sp 0 +
STACK CFI INIT 10ce0 4 .cfa: sp 0 +
STACK CFI INIT 10ce4 10 .cfa: sp 0 +
STACK CFI 10ce8 .cfa: sp 16 +
STACK CFI 10cec .cfa: x29 16 + .ra: .cfa -8 + ^ x29: .cfa -16 + ^
STACK CFI INIT 10e48 34 .cfa: sp 0 +
STACK CFI 10e4c .cfa: sp 16 +
STACK CFI 10e50 .cfa: x29 16 + .ra: .cfa -8 + ^ x29: .cfa -16 + ^
STACK CFI INIT 10fa0 80 .cfa: sp 0 +
STACK CFI 10fa4 .cfa: sp 48 +
STACK CFI 10fb0 .cfa: x29 48 + x19: .cfa -8 + ^ x20: .cfa -16 + ^ x21: .cfa -32 + ^ .ra: .cfa -40 + ^ x29: .cfa -48 + ^
STACK CFI 11010 .cfa: sp 48 +
STACK CFI 1101c .cfa: sp 0 +
STACK CFI INIT 11020 24 .cfa: sp 0 +
STACK CFI 11024 .cfa: sp 32 +
STACK CFI 1102c .cfa: x29 32 + x19: .cfa -16 + ^ .ra: .cfa -24 + ^ x29: .cfa -32 + ^
STACK CFI 11038 .cfa: sp 32 +
STACK CFI 11040 .cfa: sp 0 +
STACK CFI INIT 11390 14 .cfa: sp 0 +
STACK CFI 11394 .cfa: sp 16 +
STACK CFI 11398 .cfa: x29 16 + .ra: .cfa -8 + ^ x29: .cfa -16 + ^
STACK CFI INIT 113f4 30 .cfa: sp 0 +
STACK CFI 113f8 .cfa: sp 32 +
STACK CFI 11400 .cfa: x29 32 + x19: .cfa -16 + ^ .ra: .cfa -24 + ^ x29: .cfa -32 + ^
STACK CFI 11418 .cfa: sp 32 +
STACK CFI 11420 .cfa: sp 0 +
STACK CFI INIT 11424 34 .cfa: sp 0 +
STACK CFI 11428 .cfa: sp 32 +
STACK CFI 11430 .cfa: x29 32 + x19: .cfa -16 + ^ .ra: .cfa -24 + ^ x29: .cfa -32 + ^
STACK CFI INIT 115b4 148 .cfa: sp 0 +
STACK CFI 115b8 .cfa: sp 48 +
STACK CFI 115c4 .cfa: x29 48 + x19: .cfa -8 + ^ x20: .cfa -16 + ^ x21: .cfa -32 + ^ .ra: .cfa -40 + ^ x29: .cfa -48 + ^
STACK CFI 116ec .cfa: sp 48 +
STACK CFI 116f8 .cfa: sp 0 +
STACK CFI INIT 11914 70 .cfa: sp 0 +
STACK CFI 11918 .cfa: sp 48 +
STACK CFI 11924 .cfa: x29 48 + x19: .cfa -8 + ^ x20: .cfa -16 + ^ x21: .cfa -24 + ^ x22: .cfa -32 + ^ .ra: .cfa -40 + ^ x29: .cfa -48 + ^
STACK CFI 1196c .cfa: sp 48 +
STACK CFI 11978 .cfa: sp 0 +
STACK CFI 1197c .cfa: x29 48 +
STACK CFI INIT 11984 68 .cfa: sp 0 +
STACK CFI 11988 .cfa: sp 32 +
STACK CFI 11990 .cfa: x29 32 + x19: .cfa -8 + ^ x20: .cfa -16 + ^ .ra: .cfa -24 + ^ x29: .cfa -32 + ^
STACK CFI 119a8 .cfa: sp 32 +
STACK CFI 119b0 .cfa: sp 0 +
STACK CFI 119b4 .cfa: x29 32 +
STACK CFI 119e0 .cfa: sp 32 +
STACK CFI 119e8 .cfa: sp 0 +
STACK CFI INIT 119ec 14 .cfa: sp 0 +
STACK CFI 119f0 .cfa: sp 16 +
STACK CFI 119f4 .cfa: x29 16 + .ra: .cfa -8 + ^ x29: .cfa -16 + ^
STACK CFI INIT 11a00 4 .cfa: sp 0 +
STACK CFI INIT 11a04 14 .cfa: sp 0 +
STACK CFI INIT 11a18 fc .cfa: sp 0 +
STACK CFI 11a1c .cfa: sp 64 +
STACK CFI 11a2c .cfa: x29 64 + x19: .cfa -8 + ^ x20: .cfa -16 + ^ x21: .cfa -24 + ^ x22: .cfa -32 + ^ x23: .cfa -40 + ^ x24: .cfa -48 + ^ .ra: .cfa -56 + ^ x29: .cfa -64 + ^
STACK CFI 11b00 .cfa: sp 64 +
STACK CFI 11b10 .cfa: sp 0 +
STACK CFI INIT 11b14 454 .cfa: sp 0 +
STACK CFI 11b18 .cfa: sp 32 +
STACK CFI 11b20 .cfa: x29 32 + x19: .cfa -8 + ^ x20: .cfa -16 + ^ .ra: .cfa -24 + ^ x29: .cfa -32 + ^
STACK CFI 11eb0 .cfa: sp 32 +
STACK CFI 11eb8 .cfa: sp 0 +
STACK CFI 11ebc .cfa: x29 32 +
STACK CFI INIT 11f68 84 .cfa: sp 0 +
STACK CFI 11f70 .cfa: sp 32 +
STACK CFI 11f78 .cfa: x29 32 + x19: .cfa -8 + ^ x20: .cfa -16 + ^ .ra: .cfa -24 + ^ x29: .cfa -32 + ^
STACK CFI 11fb8 .cfa: sp 32 +
STACK CFI 11fc0 .cfa: sp 0 +
STACK CFI 11fc8 .cfa: x29 32 +
STACK CFI INIT 121e4 8c .cfa: sp 0 +
STACK CFI 121e8 .cfa: sp 32 +
STACK CFI 121f0 .cfa: x29 32 + x19: .cfa -16 + ^ .ra: .cfa -24 + ^ x29: .cfa -32 + ^
STACK CFI 12264 .cfa: sp 32 +
STACK CFI 1226c .cfa: sp 0 +
STACK CFI INIT 12270 50 .cfa: sp 0 +
STACK CFI 12274 .cfa: sp 32 +
STACK CFI 1227c .cfa: x29 32 + x19: .cfa -16 + ^ .ra: .cfa -24 + ^ x29: .cfa -32 + ^
STACK CFI 12294 .cfa: sp 32 +
STACK CFI 1229c .cfa: sp 0 +
STACK CFI 122a0 .cfa: x29 32 +
STACK CFI 122b4 .cfa: sp 32 +
STACK CFI 122bc .cfa: sp 0 +
STACK CFI INIT 122c0 64 .cfa: sp 0 +
STACK CFI 122c4 .cfa: sp 32 +
STACK CFI 122cc .cfa: x29 32 + x19: .cfa -16 + ^ .ra: .cfa -24 + ^ x29: .cfa -32 + ^
STACK CFI 122f8 .cfa: sp 32 +
STACK CFI 12300 .cfa: sp 0 +
STACK CFI 12304 .cfa: x29 32 +
STACK CFI 12318 .cfa: sp 32 +
STACK CFI 12320 .cfa: sp 0 +
STACK CFI INIT 12324 f4 .cfa: sp 0 +
STACK CFI 12328 .cfa: sp 48 +
STACK CFI 12334 .cfa: x29 48 + x19: .cfa -8 + ^ x20: .cfa -16 + ^ x21: .cfa -32 + ^ .ra: .cfa -40 + ^ x29: .cfa -48 + ^
STACK CFI 123f8 .cfa: sp 48 +
STACK CFI 12404 .cfa: sp 0 +
STACK CFI 12408 .cfa: sp 48 +
STACK CFI 12414 .cfa: sp 0 +
STACK CFI INIT 12418 d8 .cfa: sp 0 +
STACK CFI 1241c .cfa: sp 64 +
STACK CFI 1242c .cfa: x29 64 + x19: .cfa -8 + ^ x20: .cfa -16 + ^ x21: .cfa -24 + ^ x22: .cfa -32 + ^ x23: .cfa -48 + ^ .ra: .cfa -56 + ^ x29: .cfa -64 + ^
STACK CFI 124a4 .cfa: sp 64 +
STACK CFI 124b4 .cfa: sp 0 +
STACK CFI 124b8 .cfa: x29 64 +
STACK CFI INIT 124f0 104 .cfa: sp 0 +
STACK CFI 124f4 .cfa: sp 80 +
STACK CFI 12508 .cfa: x29 80 + x19: .cfa -8 + ^ x20: .cfa -16 + ^ x21: .cfa -24 + ^ x22: .cfa -32 + ^ x23: .cfa -40 + ^ x24: .cfa -48 + ^ x25: .cfa -56 + ^ x26: .cfa -64 + ^ .ra: .cfa -72 + ^ x29: .cfa -80 + ^
STACK CFI 125dc .cfa: sp 80 +
STACK CFI 125f0 .cfa: sp 0 +
STACK CFI INIT 125f4 19c .cfa: sp 0 +
STACK CFI INIT 12ca0 4 .cfa: sp 0 +
STACK CFI INIT 13120 4 .cfa: sp 0 +
STACK CFI INIT 13124 4 .cfa: sp 0 +
STACK CFI INIT 134b0 4 .cfa: sp 0 +
STACK CFI INIT 136cc 88 .cfa: sp 0 +
STACK CFI INIT 13838 1c .cfa: sp 0 +
STACK CFI INIT 139f0 1c .cfa: sp 0 +
STACK CFI INIT 13a0c c .cfa: sp 0 +
STACK CFI INIT 13a38 30 .cfa: sp 0 +
STACK CFI 13a3c .cfa: sp 32 +
STACK CFI 13a44 .cfa: x29 32 + x19: .cfa -16 + ^ .ra: .cfa -24 + ^ x29: .cfa -32 + ^
STACK CFI 13a5c .cfa: sp 32 +
STACK CFI 13a64 .cfa: sp 0 +
STACK CFI INIT 13a68 4c .cfa: sp 0 +
STACK CFI 13a6c .cfa: sp 32 +
STACK CFI 13a74 .cfa: x29 32 + x19: .cfa -8 + ^ x20: .cfa -16 + ^ .ra: .cfa -24 + ^ x29: .cfa -32 + ^
STACK CFI 13a9c .cfa: sp 32 +
STACK CFI 13aa4 .cfa: sp 0 +
STACK CFI 13aa8 .cfa: sp 32 +
STACK CFI 13ab0 .cfa: sp 0 +
STACK CFI INIT 13cd4 64 .cfa: sp 0 +
STACK CFI 13cd8 .cfa: sp 32 +
STACK CFI 13ce0 .cfa: x29 32 + x19: .cfa -16 + ^ .ra: .cfa -24 + ^ x29: .cfa -32 + ^
STACK CFI 13d0c .cfa: sp 32 +
STACK CFI 13d14 .cfa: sp 0 +
STACK CFI 13d18 .cfa: x29 32 +
STACK CFI 13d2c .cfa: sp 32 +
STACK CFI 13d34 .cfa: sp 0 +
STACK CFI INIT 13d38 24 .cfa: sp 0 +
STACK CFI 13d3c .cfa: sp 32 +
STACK CFI 13d44 .cfa: x29 32 + x19: .cfa -16 + ^ .ra: .cfa -24 + ^ x29: .cfa -32 + ^
STACK CFI 13d50 .cfa: sp 32 +
STACK CFI 13d58 .cfa: sp 0 +
STACK CFI INIT 13d5c 24 .cfa: sp 0 +
STACK CFI 13d60 .cfa: sp 32 +
STACK CFI 13d68 .cfa: x29 32 + x19: .cfa -16 + ^ .ra: .cfa -24 + ^ x29: .cfa -32 + ^
STACK CFI 13d74 .cfa: sp 32 +
STACK CFI 13d7c .cfa: sp 0 +
STACK CFI INIT 13d80 8 .cfa: sp 0 +
STACK CFI INIT 13d88 24 .cfa: sp 0 +
STACK CFI 13d8c .cfa: sp 32 +
STACK CFI 13d94 .cfa: x29 32 + x19: .cfa -16 + ^ .ra: .cfa -24 + ^ x29: .cfa -32 + ^
STACK CFI 13da0 .cfa: sp 32 +
STACK CFI 13da8 .cfa: sp 0 +
STACK CFI INIT 13dac 28 .cfa: sp 0 +
STACK CFI 13db0 .cfa: sp 32 +
STACK CFI 13db8 .cfa: x29 32 + x19: .cfa -16 + ^ .ra: .cfa -24 + ^ x29: .cfa -32 + ^
STACK CFI 13dc8 .cfa: sp 32 +
STACK CFI 13dd0 .cfa: sp 0 +
STACK CFI INIT 140d4 8 .cfa: sp 0 +
STACK CFI INIT 140dc 4 .cfa: sp 0 +
STACK CFI INIT 140e0 4 .cfa: sp 0 +
STACK CFI INIT 140e4 4 .cfa: sp 0 +
STACK CFI INIT 140e8 4 .cfa: sp 0 +
STACK CFI INIT 140ec 4 .cfa: sp 0 +
STACK CFI INIT 14dc8 4 .cfa: sp 0 +
STACK CFI INIT 14dcc 14 .cfa: sp 0 +
STACK CFI INIT fad0 444 .cfa: sp 0 +
STACK CFI fad4 .cfa: sp 224 +
STACK CFI faf0 .cfa: x29 96 + x19: .cfa -8 + ^ x20: .cfa -16 + ^ x21: .cfa -24 + ^ x22: .cfa -32 + ^ x23: .cfa -40 + ^ x24: .cfa -48 + ^ x25: .cfa -56 + ^ x26: .cfa -64 + ^ x27: .cfa -72 + ^ x28: .cfa -80 + ^ .ra: .cfa -88 + ^ x29: .cfa -96 + ^
STACK CFI fd24 .cfa: sp 224 +
STACK CFI fd40 .cfa: sp 0 +
STACK CFI fd44 .cfa: x29 96 +
STACK CFI fe10 .cfa: sp 224 +
STACK CFI fe2c .cfa: sp 0 +
STACK CFI fe30 .cfa: x29 96 +
STACK CFI INIT ff2c 41c .cfa: sp 0 +
STACK CFI ff30 .cfa: sp 224 +
STACK CFI ff4c .cfa: x29 96 + x19: .cfa -8 + ^ x20: .cfa -16 + ^ x21: .cfa -24 + ^ x22: .cfa -32 + ^ x23: .cfa -40 + ^ x24: .cfa -48 + ^ x25: .cfa -56 + ^ x26: .cfa -64 + ^ x27: .cfa -72 + ^ x28: .cfa -80 + ^ .ra: .cfa -88 + ^ x29: .cfa -96 + ^
STACK CFI 10234 .cfa: sp 224 +
STACK CFI 10250 .cfa: sp 0 +
STACK CFI 10254 .cfa: x29 96 +
STACK CFI INIT 103c4 444 .cfa: sp 0 +
STACK CFI 103c8 .cfa: sp 224 +
STACK CFI 103e4 .cfa: x29 96 + x19: .cfa -8 + ^ x20: .cfa -16 + ^ x21: .cfa -24 + ^ x22: .cfa -32 + ^ x23: .cfa -40 + ^ x24: .cfa -48 + ^ x25: .cfa -56 + ^ x26: .cfa -64 + ^ x27: .cfa -72 + ^ x28: .cfa -80 + ^ .ra: .cfa -88 + ^ x29: .cfa -96 + ^
STACK CFI 10618 .cfa: sp 224 +
STACK CFI 10634 .cfa: sp 0 +
STACK CFI 10638 .cfa: x29 96 +
STACK CFI 10704 .cfa: sp 224 +
STACK CFI 10720 .cfa: sp 0 +
STACK CFI 10724 .cfa: x29 96 +
STACK CFI INIT 10820 380 .cfa: sp 0 +
STACK CFI 10824 .cfa: sp 224 +
STACK CFI 10838 .cfa: x29 64 + x19: .cfa -8 + ^ x20: .cfa -16 + ^ x21: .cfa -24 + ^ x22: .cfa -32 + ^ x23: .cfa -48 + ^ .ra: .cfa -56 + ^ x29: .cfa -64 + ^
STACK CFI 10a9c .cfa: sp 224 +
STACK CFI 10ab0 .cfa: sp 0 +
STACK CFI 10ab4 .cfa: x29 64 +
STACK CFI INIT 10bf0 74 .cfa: sp 0 +
STACK CFI 10bf4 .cfa: sp 48 +
STACK CFI 10c00 .cfa: x29 32 + x19: .cfa -8 + ^ x20: .cfa -16 + ^ .ra: .cfa -24 + ^ x29: .cfa -32 + ^
STACK CFI 10c4c .cfa: sp 48 +
STACK CFI 10c58 .cfa: sp 0 +
STACK CFI 10c5c .cfa: x29 32 +
STACK CFI INIT 10cf4 154 .cfa: sp 0 +
STACK CFI 10cf8 .cfa: sp 384 +
STACK CFI 10d0c .cfa: x29 64 + x19: .cfa -8 + ^ x20: .cfa -16 + ^ x21: .cfa -24 + ^ x22: .cfa -32 + ^ x23: .cfa -40 + ^ x28: .cfa -48 + ^ .ra: .cfa -56 + ^ x29: .cfa -64 + ^
STACK CFI 10df0 .cfa: sp 384 +
STACK CFI 10e04 .cfa: sp 0 +
STACK CFI 10e08 .cfa: x29 64 +
STACK CFI INIT 10e7c 124 .cfa: sp 0 +
STACK CFI 10e80 .cfa: sp 80 +
STACK CFI 10e94 .cfa: x29 80 + x19: .cfa -8 + ^ x20: .cfa -16 + ^ x21: .cfa -24 + ^ x22: .cfa -32 + ^ x23: .cfa -40 + ^ x24: .cfa -48 + ^ x25: .cfa -56 + ^ x26: .cfa -64 + ^ .ra: .cfa -72 + ^ x29: .cfa -80 + ^
STACK CFI 10f60 .cfa: sp 80 +
STACK CFI 10f74 .cfa: sp 0 +
STACK CFI 10f78 .cfa: x29 80 +
STACK CFI INIT 11044 198 .cfa: sp 0 +
STACK CFI 11048 .cfa: sp 112 +
STACK CFI 11060 .cfa: x29 80 + x19: .cfa -8 + ^ x20: .cfa -16 + ^ x21: .cfa -24 + ^ x22: .cfa -32 + ^ x23: .cfa -40 + ^ x24: .cfa -48 + ^ x25: .cfa -56 + ^ x26: .cfa -64 + ^ .ra: .cfa -72 + ^ x29: .cfa -80 + ^
STACK CFI 11150 .cfa: sp 112 +
STACK CFI 11168 .cfa: sp 0 +
STACK CFI 1116c .cfa: x29 80 +
STACK CFI INIT 111dc 1b4 .cfa: sp 0 +
STACK CFI 111e0 .cfa: sp 128 +
STACK CFI 111fc .cfa: x29 96 + x19: .cfa -8 + ^ x20: .cfa -16 + ^ x21: .cfa -24 + ^ x22: .cfa -32 + ^ x23: .cfa -40 + ^ x24: .cfa -48 + ^ x25: .cfa -56 + ^ x26: .cfa -64 + ^ x27: .cfa -80 + ^ .ra: .cfa -88 + ^ x29: .cfa -96 + ^
STACK CFI 11340 .cfa: sp 128 +
STACK CFI 1135c .cfa: sp 0 +
STACK CFI 11360 .cfa: x29 96 +
STACK CFI INIT 113a4 50 .cfa: sp 0 +
STACK CFI 113a8 .cfa: sp 32 +
STACK CFI 113b0 .cfa: x29 32 + x19: .cfa -8 + ^ x20: .cfa -16 + ^ .ra: .cfa -24 + ^ x29: .cfa -32 + ^
STACK CFI INIT 11458 15c .cfa: sp 0 +
STACK CFI 1145c .cfa: sp 80 +
STACK CFI 11470 .cfa: x29 80 + x19: .cfa -8 + ^ x20: .cfa -16 + ^ x21: .cfa -24 + ^ x22: .cfa -32 + ^ x23: .cfa -40 + ^ x24: .cfa -48 + ^ x25: .cfa -64 + ^ .ra: .cfa -72 + ^ x29: .cfa -80 + ^
STACK CFI 11580 .cfa: sp 80 +
STACK CFI 11594 .cfa: sp 0 +
STACK CFI 11598 .cfa: x29 80 +
STACK CFI INIT 116fc 218 .cfa: sp 0 +
STACK CFI 11700 .cfa: sp 128 +
STACK CFI 11718 .cfa: x29 80 + x19: .cfa -8 + ^ x20: .cfa -16 + ^ x21: .cfa -24 + ^ x22: .cfa -32 + ^ x23: .cfa -40 + ^ x24: .cfa -48 + ^ x25: .cfa -64 + ^ .ra: .cfa -72 + ^ x29: .cfa -80 + ^
STACK CFI 118a8 .cfa: sp 128 +
STACK CFI 118c0 .cfa: sp 0 +
STACK CFI 118c4 .cfa: x29 80 +
STACK CFI INIT 11fec a8 .cfa: sp 0 +
STACK CFI 11ff0 .cfa: sp 32 +
STACK CFI 11ff8 .cfa: x29 32 + x19: .cfa -8 + ^ x20: .cfa -16 + ^ .ra: .cfa -24 + ^ x29: .cfa -32 + ^
STACK CFI 1202c .cfa: sp 32 +
STACK CFI 12034 .cfa: sp 0 +
STACK CFI 12038 .cfa: x29 32 +
STACK CFI 1203c .cfa: sp 32 +
STACK CFI 12044 .cfa: sp 0 +
STACK CFI 12048 .cfa: x29 32 +
STACK CFI INIT 12094 150 .cfa: sp 0 +
STACK CFI 12098 .cfa: sp 80 +
STACK CFI 120a8 .cfa: x29 48 + x19: .cfa -8 + ^ x20: .cfa -16 + ^ x21: .cfa -24 + ^ x22: .cfa -32 + ^ .ra: .cfa -40 + ^ x29: .cfa -48 + ^
STACK CFI 121a0 .cfa: sp 80 +
STACK CFI 121b0 .cfa: sp 0 +
STACK CFI 121b4 .cfa: x29 48 +
STACK CFI INIT 12790 510 .cfa: sp 0 +
STACK CFI 12794 .cfa: sp 176 +
STACK CFI 127a8 .cfa: x29 64 + x19: .cfa -8 + ^ x20: .cfa -16 + ^ x21: .cfa -24 + ^ x22: .cfa -32 + ^ x23: .cfa -40 + ^ x24: .cfa -48 + ^ .ra: .cfa -56 + ^ x29: .cfa -64 + ^
STACK CFI 12b60 .cfa: sp 176 +
STACK CFI 12b74 .cfa: sp 0 +
STACK CFI 12b78 .cfa: x29 64 +
STACK CFI INIT 12ca4 184 .cfa: sp 0 +
STACK CFI 12ca8 .cfa: sp 160 +
STACK CFI 12cc0 .cfa: x29 80 + x19: .cfa -8 + ^ x20: .cfa -16 + ^ x21: .cfa -24 + ^ x22: .cfa -32 + ^ x23: .cfa -40 + ^ x24: .cfa -48 + ^ x25: .cfa -56 + ^ x26: .cfa -64 + ^ .ra: .cfa -72 + ^ x29: .cfa -80 + ^
STACK CFI 12dc0 .cfa: sp 160 +
STACK CFI 12dd8 .cfa: sp 0 +
STACK CFI 12ddc .cfa: x29 80 +
STACK CFI INIT 12e28 17c .cfa: sp 0 +
STACK CFI 12e2c .cfa: sp 96 +
STACK CFI 12e3c .cfa: x29 48 + x19: .cfa -8 + ^ x20: .cfa -16 + ^ x21: .cfa -32 + ^ .ra: .cfa -40 + ^ x29: .cfa -48 + ^
STACK CFI 12f14 .cfa: sp 96 +
STACK CFI 12f24 .cfa: sp 0 +
STACK CFI 12f28 .cfa: x29 48 +
STACK CFI 12f40 .cfa: sp 96 +
STACK CFI 12f50 .cfa: sp 0 +
STACK CFI 12f54 .cfa: x29 48 +
STACK CFI INIT 12fa4 17c .cfa: sp 0 +
STACK CFI 12fa8 .cfa: sp 96 +
STACK CFI 12fb8 .cfa: x29 48 + x19: .cfa -8 + ^ x20: .cfa -16 + ^ x21: .cfa -32 + ^ .ra: .cfa -40 + ^ x29: .cfa -48 + ^
STACK CFI 13090 .cfa: sp 96 +
STACK CFI 130a0 .cfa: sp 0 +
STACK CFI 130a4 .cfa: x29 48 +
STACK CFI 130bc .cfa: sp 96 +
STACK CFI 130cc .cfa: sp 0 +
STACK CFI 130d0 .cfa: x29 48 +
STACK CFI INIT 13128 388 .cfa: sp 0 +
STACK CFI 1312c .cfa: sp 240 +
STACK CFI 13140 .cfa: x29 64 + x19: .cfa -8 + ^ x20: .cfa -16 + ^ x21: .cfa -24 + ^ x22: .cfa -32 + ^ x23: .cfa -48 + ^ .ra: .cfa -56 + ^ x29: .cfa -64 + ^
STACK CFI 133ac .cfa: sp 240 +
STACK CFI 133c0 .cfa: sp 0 +
STACK CFI 133c4 .cfa: x29 64 +
STACK CFI INIT 134b4 a8 .cfa: sp 0 +
STACK CFI 134b8 .cfa: sp 32 +
STACK CFI 134c0 .cfa: x29 32 + x19: .cfa -8 + ^ x20: .cfa -16 + ^ .ra: .cfa -24 + ^ x29: .cfa -32 + ^
STACK CFI 134f4 .cfa: sp 32 +
STACK CFI 134fc .cfa: sp 0 +
STACK CFI 13500 .cfa: x29 32 +
STACK CFI 13504 .cfa: sp 32 +
STACK CFI 1350c .cfa: sp 0 +
STACK CFI 13510 .cfa: x29 32 +
STACK CFI INIT 1355c 170 .cfa: sp 0 +
STACK CFI 13560 .cfa: sp 128 +
STACK CFI 13570 .cfa: x29 48 + x19: .cfa -8 + ^ x20: .cfa -16 + ^ x21: .cfa -32 + ^ .ra: .cfa -40 + ^ x29: .cfa -48 + ^
STACK CFI 135a4 .cfa: sp 128 +
STACK CFI 135b4 .cfa: sp 0 +
STACK CFI 135b8 .cfa: x29 48 +
STACK CFI 13658 .cfa: sp 128 +
STACK CFI 13668 .cfa: sp 0 +
STACK CFI 1366c .cfa: x29 48 +
STACK CFI INIT 13754 20 .cfa: sp 0 +
STACK CFI 13758 .cfa: sp 16 +
STACK CFI 1375c .cfa: x29 16 + .ra: .cfa -8 + ^ x29: .cfa -16 + ^
STACK CFI 13768 .cfa: sp 16 +
STACK CFI 1376c .cfa: sp 0 +
STACK CFI 13770 .cfa: x29 16 +
STACK CFI INIT 13774 30 .cfa: sp 0 +
STACK CFI 13778 .cfa: sp 16 +
STACK CFI 1377c .cfa: x29 16 + .ra: .cfa -8 + ^ x29: .cfa -16 + ^
STACK CFI 13798 .cfa: sp 16 +
STACK CFI 1379c .cfa: sp 0 +
STACK CFI 137a0 .cfa: x29 16 +
STACK CFI INIT 137a4 3c .cfa: sp 0 +
STACK CFI 137a8 .cfa: sp 32 +
STACK CFI 137b0 .cfa: x29 32 + x19: .cfa -16 + ^ .ra: .cfa -24 + ^ x29: .cfa -32 + ^
STACK CFI 137d0 .cfa: sp 32 +
STACK CFI 137d8 .cfa: sp 0 +
STACK CFI 137dc .cfa: x29 32 +
STACK CFI INIT 137e0 58 .cfa: sp 0 +
STACK CFI 137e4 .cfa: sp 32 +
STACK CFI 137ec .cfa: x29 32 + x19: .cfa -8 + ^ x20: .cfa -16 + ^ .ra: .cfa -24 + ^ x29: .cfa -32 + ^
STACK CFI 13818 .cfa: sp 32 +
STACK CFI 13820 .cfa: sp 0 +
STACK CFI 13824 .cfa: x29 32 +
STACK CFI INIT 13854 20 .cfa: sp 0 +
STACK CFI 13858 .cfa: sp 16 +
STACK CFI 1385c .cfa: x29 16 + .ra: .cfa -8 + ^ x29: .cfa -16 + ^
STACK CFI 13868 .cfa: sp 16 +
STACK CFI 1386c .cfa: sp 0 +
STACK CFI 13870 .cfa: x29 16 +
STACK CFI INIT 13874 30 .cfa: sp 0 +
STACK CFI 13878 .cfa: sp 32 +
STACK CFI 13880 .cfa: x29 32 + x19: .cfa -16 + ^ .ra: .cfa -24 + ^ x29: .cfa -32 + ^
STACK CFI 13894 .cfa: sp 32 +
STACK CFI 1389c .cfa: sp 0 +
STACK CFI 138a0 .cfa: x29 32 +
STACK CFI INIT 138a4 14c .cfa: sp 0 +
STACK CFI 138a8 .cfa: sp 80 +
STACK CFI 138bc .cfa: x29 64 + x19: .cfa -8 + ^ x20: .cfa -16 + ^ x21: .cfa -24 + ^ x22: .cfa -32 + ^ x23: .cfa -40 + ^ x24: .cfa -48 + ^ .ra: .cfa -56 + ^ x29: .cfa -64 + ^
STACK CFI 13980 .cfa: sp 80 +
STACK CFI 13994 .cfa: sp 0 +
STACK CFI 13998 .cfa: x29 64 +
STACK CFI 139ac .cfa: sp 80 +
STACK CFI 139c0 .cfa: sp 0 +
STACK CFI 139c4 .cfa: x29 64 +
STACK CFI INIT 13a18 20 .cfa: sp 0 +
STACK CFI 13a1c .cfa: sp 16 +
STACK CFI 13a20 .cfa: x29 16 + .ra: .cfa -8 + ^ x29: .cfa -16 + ^
STACK CFI 13a2c .cfa: sp 16 +
STACK CFI 13a30 .cfa: sp 0 +
STACK CFI 13a34 .cfa: x29 16 +
STACK CFI INIT 13ab4 134 .cfa: sp 0 +
STACK CFI 13ab8 .cfa: sp 80 +
STACK CFI 13ac4 .cfa: x29 32 + x19: .cfa -8 + ^ x20: .cfa -16 + ^ .ra: .cfa -24 + ^ x29: .cfa -32 + ^
STACK CFI 13af4 .cfa: sp 80 +
STACK CFI 13b00 .cfa: sp 0 +
STACK CFI 13b04 .cfa: x29 32 +
STACK CFI INIT 13be8 78 .cfa: sp 0 +
STACK CFI 13bec .cfa: sp 32 +
STACK CFI 13bf4 .cfa: x29 32 + x19: .cfa -8 + ^ x20: .cfa -16 + ^ .ra: .cfa -24 + ^ x29: .cfa -32 + ^
STACK CFI 13c00 .cfa: sp 32 +
STACK CFI 13c08 .cfa: sp 0 +
STACK CFI 13c0c .cfa: x29 32 +
STACK CFI INIT 13c60 74 .cfa: sp 0 +
STACK CFI 13c64 .cfa: sp 48 +
STACK CFI 13c70 .cfa: x29 32 + x19: .cfa -8 + ^ x20: .cfa -16 + ^ .ra: .cfa -24 + ^ x29: .cfa -32 + ^
STACK CFI 13cbc .cfa: sp 48 +
STACK CFI 13cc8 .cfa: sp 0 +
STACK CFI 13ccc .cfa: x29 32 +
STACK CFI INIT 13dd4 1b8 .cfa: sp 0 +
STACK CFI 13dd8 .cfa: sp 160 +
STACK CFI 13df4 .cfa: x29 72 + x19: .cfa -8 + ^ x20: .cfa -16 + ^ x21: .cfa -24 + ^ x22: .cfa -32 + ^ x23: .cfa -40 + ^ x24: .cfa -48 + ^ x25: .cfa -56 + ^ .ra: .cfa -64 + ^ x29: .cfa -72 + ^ v8: .cfa -80 + ^
STACK CFI 13e78 .cfa: sp 160 +
STACK CFI 13e94 .cfa: sp 0 +
STACK CFI 13e98 .cfa: x29 72 +
STACK CFI INIT 13f8c 148 .cfa: sp 0 +
STACK CFI 13f90 .cfa: sp 64 +
STACK CFI 13fa0 .cfa: x29 48 + x19: .cfa -8 + ^ x20: .cfa -16 + ^ x21: .cfa -24 + ^ x22: .cfa -32 + ^ .ra: .cfa -40 + ^ x29: .cfa -48 + ^
STACK CFI 14098 .cfa: sp 64 +
STACK CFI 140a8 .cfa: sp 0 +
STACK CFI 140ac .cfa: x29 48 +
STACK CFI INIT 140f0 290 .cfa: sp 0 +
STACK CFI 140f4 .cfa: sp 144 +
STACK CFI 14108 .cfa: x29 64 + x19: .cfa -8 + ^ x20: .cfa -16 + ^ x21: .cfa -24 + ^ x22: .cfa -32 + ^ x23: .cfa -48 + ^ .ra: .cfa -56 + ^ x29: .cfa -64 + ^
STACK CFI 14224 .cfa: sp 144 +
STACK CFI 14238 .cfa: sp 0 +
STACK CFI 1423c .cfa: x29 64 +
STACK CFI INIT 14380 2e0 .cfa: sp 0 +
STACK CFI 14384 .cfa: sp 144 +
STACK CFI 14398 .cfa: x29 64 + x19: .cfa -8 + ^ x20: .cfa -16 + ^ x21: .cfa -24 + ^ x22: .cfa -32 + ^ x23: .cfa -48 + ^ .ra: .cfa -56 + ^ x29: .cfa -64 + ^
STACK CFI 14504 .cfa: sp 144 +
STACK CFI 14518 .cfa: sp 0 +
STACK CFI 1451c .cfa: x29 64 +
STACK CFI INIT 14660 4ac .cfa: sp 0 +
STACK CFI 14664 .cfa: sp 144 +
STACK CFI 14678 .cfa: x29 64 + x19: .cfa -8 + ^ x20: .cfa -16 + ^ x21: .cfa -24 + ^ x22: .cfa -32 + ^ x23: .cfa -48 + ^ .ra: .cfa -56 + ^ x29: .cfa -64 + ^
STACK CFI 1495c .cfa: sp 144 +
STACK CFI 14970 .cfa: sp 0 +
STACK CFI 14974 .cfa: x29 64 +
STACK CFI INIT 14b0c 154 .cfa: sp 0 +
STACK CFI 14b10 .cfa: sp 384 +
STACK CFI 14b24 .cfa: x29 64 + x19: .cfa -8 + ^ x20: .cfa -16 + ^ x21: .cfa -24 + ^ x22: .cfa -32 + ^ x23: .cfa -40 + ^ x28: .cfa -48 + ^ .ra: .cfa -56 + ^ x29: .cfa -64 + ^
STACK CFI 14c08 .cfa: sp 384 +
STACK CFI 14c1c .cfa: sp 0 +
STACK CFI 14c20 .cfa: x29 64 +
STACK CFI INIT 14c60 168 .cfa: sp 0 +
STACK CFI 14c64 .cfa: sp 384 +
STACK CFI 14c78 .cfa: x29 64 + x19: .cfa -8 + ^ x20: .cfa -16 + ^ x21: .cfa -24 + ^ x22: .cfa -32 + ^ x23: .cfa -40 + ^ x28: .cfa -48 + ^ .ra: .cfa -56 + ^ x29: .cfa -64 + ^
STACK CFI 14d70 .cfa: sp 384 +
STACK CFI 14d84 .cfa: sp 0 +
STACK CFI 14d88 .cfa: x29 64 +
STACK CFI INIT 14de0 430 .cfa: sp 0 +
STACK CFI 14de4 .cfa: sp 64 +
STACK CFI 14df4 .cfa: x29 64 + x19: .cfa -8 + ^ x20: .cfa -16 + ^ x21: .cfa -24 + ^ x22: .cfa -32 + ^ x23: .cfa -40 + ^ x24: .cfa -48 + ^ .ra: .cfa -56 + ^ x29: .cfa -64 + ^
STACK CFI 151a8 .cfa: sp 64 +
STACK CFI 151b8 .cfa: sp 0 +
STACK CFI 151bc .cfa: x29 64 +
