MODULE Linux arm64 BA0692149B0AE49701EF8812435E2D2C0 razoom.object_groups.android64.so
INFO CODE_ID 149206BA0A9B97E401EF8812435E2D2C65DD14AC
INFO GENERATOR mozilla/dump_syms 2.3.4
PUBLIC 113d0 0 __on_dlclose
PUBLIC 113e0 0 __emutls_unregister_key
PUBLIC 113e8 0 __on_dlclose_late
PUBLIC 113f0 0 __atexit_handler_wrapper
PUBLIC 11404 0 atexit
PUBLIC 11420 0 pthread_atfork
PUBLIC 11430 0 unwind_phase2
PUBLIC 11564 0 _Unwind_Resume
PUBLIC 115e8 0 unwind_phase2_forced
PUBLIC m 116dc 0 __unw_init_local
PUBLIC m 11784 0 __unw_get_reg
PUBLIC 11800 0 __unw_step_stage2
PUBLIC m 11814 0 __unw_get_proc_info
PUBLIC m 11854 0 __unw_resume
PUBLIC 1187c 0 libunwind::CFI_Parser<libunwind::LocalAddressSpace>::decodeFDE(libunwind::LocalAddressSpace&, unsigned long, libunwind::CFI_Parser<libunwind::LocalAddressSpace>::FDE_Info*, libunwind::CFI_Parser<libunwind::LocalAddressSpace>::CIE_Info*, bool)
PUBLIC 11a0c 0 libunwind::CFI_Parser<libunwind::LocalAddressSpace>::parseCIE(libunwind::LocalAddressSpace&, unsigned long, libunwind::CFI_Parser<libunwind::LocalAddressSpace>::CIE_Info*)
PUBLIC 11cd4 0 libunwind::AbstractUnwindCursor::~AbstractUnwindCursor()
PUBLIC 11cdc 0 libunwind::UnwindCursor<libunwind::LocalAddressSpace, libunwind::Registers_arm64>::~UnwindCursor()
PUBLIC 11ce4 0 libunwind::UnwindCursor<libunwind::LocalAddressSpace, libunwind::Registers_arm64>::validReg(int)
PUBLIC 11d28 0 libunwind::UnwindCursor<libunwind::LocalAddressSpace, libunwind::Registers_arm64>::getReg(int)
PUBLIC 11e10 0 libunwind::UnwindCursor<libunwind::LocalAddressSpace, libunwind::Registers_arm64>::setReg(int, unsigned long)
PUBLIC 11ef8 0 libunwind::UnwindCursor<libunwind::LocalAddressSpace, libunwind::Registers_arm64>::validFloatReg(int)
PUBLIC 11f0c 0 libunwind::UnwindCursor<libunwind::LocalAddressSpace, libunwind::Registers_arm64>::getFloatReg(int)
PUBLIC 11f1c 0 libunwind::UnwindCursor<libunwind::LocalAddressSpace, libunwind::Registers_arm64>::setFloatReg(int, double)
PUBLIC 11f2c 0 libunwind::UnwindCursor<libunwind::LocalAddressSpace, libunwind::Registers_arm64>::step(bool)
PUBLIC 1201c 0 libunwind::UnwindCursor<libunwind::LocalAddressSpace, libunwind::Registers_arm64>::getInfo(unw_proc_info_t*)
PUBLIC 12060 0 libunwind::UnwindCursor<libunwind::LocalAddressSpace, libunwind::Registers_arm64>::jumpto()
PUBLIC 1206c 0 libunwind::UnwindCursor<libunwind::LocalAddressSpace, libunwind::Registers_arm64>::isSignalFrame()
PUBLIC 12078 0 libunwind::UnwindCursor<libunwind::LocalAddressSpace, libunwind::Registers_arm64>::getFunctionName(char*, unsigned long, unsigned long*)
PUBLIC 120a4 0 libunwind::UnwindCursor<libunwind::LocalAddressSpace, libunwind::Registers_arm64>::setInfoBasedOnIPRegister(bool)
PUBLIC 12324 0 libunwind::UnwindCursor<libunwind::LocalAddressSpace, libunwind::Registers_arm64>::getRegisterName(int)
PUBLIC 12330 0 libunwind::UnwindCursor<libunwind::LocalAddressSpace, libunwind::Registers_arm64>::stepThroughSigReturn(libunwind::Registers_arm64&)
PUBLIC 12450 0 libunwind::DwarfInstructions<libunwind::LocalAddressSpace, libunwind::Registers_arm64>::stepWithDwarf(libunwind::LocalAddressSpace&, unsigned long, unsigned long, libunwind::Registers_arm64&, bool&, bool)
PUBLIC 128d8 0 libunwind::CFI_Parser<libunwind::LocalAddressSpace>::parseFDEInstructions(libunwind::LocalAddressSpace&, libunwind::CFI_Parser<libunwind::LocalAddressSpace>::FDE_Info const&, libunwind::CFI_Parser<libunwind::LocalAddressSpace>::CIE_Info const&, unsigned long, int, libunwind::CFI_Parser<libunwind::LocalAddressSpace>::PrologInfo*)
PUBLIC 13520 0 libunwind::DwarfInstructions<libunwind::LocalAddressSpace, libunwind::Registers_arm64>::getCFA(libunwind::LocalAddressSpace&, libunwind::CFI_Parser<libunwind::LocalAddressSpace>::PrologInfo const&, libunwind::Registers_arm64 const&)
PUBLIC 13654 0 libunwind::DwarfInstructions<libunwind::LocalAddressSpace, libunwind::Registers_arm64>::getSavedRegister(libunwind::LocalAddressSpace&, libunwind::Registers_arm64 const&, unsigned long, libunwind::CFI_Parser<libunwind::LocalAddressSpace>::RegisterLocation const&)
PUBLIC 13864 0 libunwind::LocalAddressSpace::getEncodedP(unsigned long&, unsigned long, unsigned char, unsigned long)
PUBLIC 13bf0 0 libunwind::LocalAddressSpace::getULEB128(unsigned long&, unsigned long)
PUBLIC 13db8 0 libunwind::DwarfInstructions<libunwind::LocalAddressSpace, libunwind::Registers_arm64>::evaluateExpression(unsigned long, libunwind::LocalAddressSpace&, libunwind::Registers_arm64 const&, unsigned long)
PUBLIC 14774 0 libunwind::UnwindCursor<libunwind::LocalAddressSpace, libunwind::Registers_arm64>::getInfoFromDwarfSection(unsigned long, libunwind::UnwindInfoSections const&, unsigned int)
PUBLIC 14a48 0 libunwind::findUnwindSectionsByPhdr(dl_phdr_info*, unsigned long, void*)
PUBLIC 14b7c 0 libunwind::EHHeaderParser<libunwind::LocalAddressSpace>::decodeEHHdr(libunwind::LocalAddressSpace&, unsigned long, unsigned long, libunwind::EHHeaderParser<libunwind::LocalAddressSpace>::EHHeaderInfo&)
PUBLIC 14c9c 0 libunwind::CFI_Parser<libunwind::LocalAddressSpace>::findFDE(libunwind::LocalAddressSpace&, unsigned long, unsigned long, unsigned long, unsigned long, libunwind::CFI_Parser<libunwind::LocalAddressSpace>::FDE_Info*, libunwind::CFI_Parser<libunwind::LocalAddressSpace>::CIE_Info*)
PUBLIC 14e64 0 libunwind::EHHeaderParser<libunwind::LocalAddressSpace>::findFDE(libunwind::LocalAddressSpace&, unsigned long, unsigned long, unsigned int, libunwind::CFI_Parser<libunwind::LocalAddressSpace>::FDE_Info*, libunwind::CFI_Parser<libunwind::LocalAddressSpace>::CIE_Info*)
PUBLIC 14fcc 0 libunwind::EHHeaderParser<libunwind::LocalAddressSpace>::getTableEntrySize(unsigned char)
PUBLIC 150c8 0 libunwind::Registers_arm64::getRegisterName(int)
PUBLIC 150f8 0 __libunwind_Registers_arm64_jumpto
PUBLIC m 15188 0 __unw_getcontext
PUBLIC 15230 0 __aarch64_ldadd8_relax
PUBLIC 15260 0 init_have_lse_atomics
PUBLIC 152f8 0 __init_cpu_features_constructor
PUBLIC 15894 0 __init_cpu_features
PUBLIC 15920 0 __aarch64_ldadd8_acq_rel
PUBLIC 15950 0 std::__ndk1::set<short, std::__ndk1::less<short>, std::__ndk1::allocator<short> >::set[abi:ne180000](std::initializer_list<short>, std::__ndk1::less<short> const&)
PUBLIC 15a6c 0 std::__ndk1::set<short, std::__ndk1::less<short>, std::__ndk1::allocator<short> >::~set[abi:ne180000]()
PUBLIC 15a74 0 $_0::~$_0()
PUBLIC 15ab8 0 geodeExecFunction43<(anonymous namespace)::ExecFuncUnique43>(geode::ModStateEvent*)
PUBLIC 15f30 0 __cxx_global_var_init.3
PUBLIC 163b4 0 geode::modifier::ModifyBase<geode::modifier::ModifyDerive<MyEditButtonBar, EditButtonBar> >::~ModifyBase()
PUBLIC 163cc 0 __cxx_global_var_init.4
PUBLIC 16850 0 geode::modifier::ModifyBase<geode::modifier::ModifyDerive<MyEditorUI, EditorUI> >::~ModifyBase()
PUBLIC 16868 0 std::__ndk1::basic_string<char, std::__ndk1::char_traits<char>, std::__ndk1::allocator<char> >::__throw_length_error[abi:ne180000]() const
PUBLIC 1687c 0 std::__ndk1::__throw_length_error[abi:ne180000](char const*)
PUBLIC 168cc 0 std::length_error::length_error[abi:ne180000](char const*)
PUBLIC 168fc 0 std::__throw_bad_array_new_length([abi:ne180000], void)
PUBLIC 16930 0 __clang_call_terminate
PUBLIC 16940 0 std::__ndk1::__tree<short, std::__ndk1::less<short>, std::__ndk1::allocator<short> >::__find_equal<short>(std::__ndk1::__tree_const_iterator<short, std::__ndk1::__tree_node<short, void*>*, long>, std::__ndk1::__tree_end_node<std::__ndk1::__tree_node_base<void*>*>*&, std::__ndk1::__tree_node_base<void*>*&, short const&)
PUBLIC 16af0 0 std::__ndk1::__tree_balance_after_insert[abi:ne180000]<std::__ndk1::__tree_node_base<void*>*>(std::__ndk1::__tree_node_base<void*>*, std::__ndk1::__tree_node_base<void*>*)
PUBLIC 16ca0 0 std::__ndk1::__tree<short, std::__ndk1::less<short>, std::__ndk1::allocator<short> >::destroy(std::__ndk1::__tree_node<short, void*>*)
PUBLIC 16ce4 0 $_0::updateSettings()
PUBLIC 17288 0 geode::Mod::getSettingValue<std::__ndk1::basic_string<char, std::__ndk1::char_traits<char>, std::__ndk1::allocator<char> > >(std::__ndk1::basic_string_view<char, std::__ndk1::char_traits<char> >) const
PUBLIC 17418 0 geode::Mod::getSettingValue<std::__ndk1::__fs::filesystem::path>(std::__ndk1::basic_string_view<char, std::__ndk1::char_traits<char> >) const
PUBLIC 175a8 0 geode::cast::traverseTypeinfoFor(void*, geode::cast::ClassTypeinfoType const*, char const*)
PUBLIC 176a0 0 std::__ndk1::shared_ptr<geode::StringSettingV3>::~shared_ptr[abi:ne180000]()
PUBLIC 176f0 0 std::__ndk1::shared_ptr<geode::FileSettingV3>::~shared_ptr[abi:ne180000]()
PUBLIC 17740 0 std::__ndk1::basic_string<char, std::__ndk1::char_traits<char>, std::__ndk1::allocator<char> >::__init_copy_ctor_external(char const*, unsigned long)
PUBLIC 177c0 0 geode::EventListener<geode::ModStateFilter>::getPool() const
PUBLIC 177c4 0 geode::EventListener<geode::ModStateFilter>::handle(geode::Event*)
PUBLIC 17928 0 geode::EventListener<geode::ModStateFilter>::~EventListener()
PUBLIC 17984 0 geode::EventListener<geode::ModStateFilter>::~EventListener()
PUBLIC 179e8 0 std::__ndk1::__function::__base<void (geode::ModStateEvent*)>::~__base()
PUBLIC 179ec 0 std::__ndk1::__function::__func<void (*)(geode::ModStateEvent*), std::__ndk1::allocator<void (*)(geode::ModStateEvent*)>, void (geode::ModStateEvent*)>::~__func()
PUBLIC 179f0 0 std::__ndk1::__function::__func<void (*)(geode::ModStateEvent*), std::__ndk1::allocator<void (*)(geode::ModStateEvent*)>, void (geode::ModStateEvent*)>::__clone() const
PUBLIC 17a24 0 std::__ndk1::__function::__func<void (*)(geode::ModStateEvent*), std::__ndk1::allocator<void (*)(geode::ModStateEvent*)>, void (geode::ModStateEvent*)>::__clone(std::__ndk1::__function::__base<void (geode::ModStateEvent*)>*) const
PUBLIC 17a38 0 std::__ndk1::__function::__func<void (*)(geode::ModStateEvent*), std::__ndk1::allocator<void (*)(geode::ModStateEvent*)>, void (geode::ModStateEvent*)>::destroy()
PUBLIC 17a3c 0 std::__ndk1::__function::__func<void (*)(geode::ModStateEvent*), std::__ndk1::allocator<void (*)(geode::ModStateEvent*)>, void (geode::ModStateEvent*)>::destroy_deallocate()
PUBLIC 17a40 0 std::__ndk1::__function::__func<void (*)(geode::ModStateEvent*), std::__ndk1::allocator<void (*)(geode::ModStateEvent*)>, void (geode::ModStateEvent*)>::operator()(geode::ModStateEvent*&&)
PUBLIC 17a50 0 std::__ndk1::__function::__func<void (*)(geode::ModStateEvent*), std::__ndk1::allocator<void (*)(geode::ModStateEvent*)>, void (geode::ModStateEvent*)>::target(std::type_info const&) const
PUBLIC 17a6c 0 std::__ndk1::__function::__func<void (*)(geode::ModStateEvent*), std::__ndk1::allocator<void (*)(geode::ModStateEvent*)>, void (geode::ModStateEvent*)>::target_type() const
PUBLIC 17a78 0 geode::modifier::ModifyDerive<MyEditButtonBar, EditButtonBar>::apply()
PUBLIC 17e7c 0 std::__ndk1::shared_ptr<geode::Hook>::~shared_ptr[abi:ne180000]()
PUBLIC 17ecc 0 geode::impl::ResultData<geode::Hook*, std::__ndk1::basic_string<char, std::__ndk1::char_traits<char>, std::__ndk1::allocator<char> > >::~ResultData()
PUBLIC 17f40 0 std::__ndk1::vector<std::__ndk1::basic_string<char, std::__ndk1::char_traits<char>, std::__ndk1::allocator<char> >, std::__ndk1::allocator<std::__ndk1::basic_string<char, std::__ndk1::char_traits<char>, std::__ndk1::allocator<char> > > >::~vector[abi:ne180000]()
PUBLIC 17fbc 0 geode::modifier::ModifyBase<geode::modifier::ModifyDerive<MyEditButtonBar, EditButtonBar> >::apply()
PUBLIC 17fc0 0 _ZN5geode15UnwrapExceptionC2IRPNS_4HookEQsr4implE18IsStringStreamableIT_EEENS_4impl5OkTagEOS5_
PUBLIC 18438 0 std::__ndk1::__throw_bad_variant_access[abi:ne180000]()
PUBLIC m 1846c 0 std::__ndk1::basic_stringstream<char, std::__ndk1::char_traits<char>, std::__ndk1::allocator<char> >::~basic_stringstream()
PUBLIC 184ec 0 geode::UnwrapException::~UnwrapException()
PUBLIC 18510 0 std::__ndk1::__put_character_sequence[abi:ne180000]<char, std::__ndk1::char_traits<char> >(std::__ndk1::basic_ostream<char, std::__ndk1::char_traits<char> >, std::__ndk1::basic_ostream const*, unsigned long)
PUBLIC 186b4 0 std::__ndk1::__pad_and_output[abi:ne180000]<char, std::__ndk1::char_traits<char> >(std::__ndk1::char_traits<char>, std::__ndk1::ostreambuf_iterator const*, std::__ndk1::ostreambuf_iterator const, std::__ndk1::ostreambuf_iterator const, std::__ndk1::ios_base&, std::__ndk1::ostreambuf_iterator)
PUBLIC 18890 0 std::__ndk1::vector<std::__ndk1::basic_string<char, std::__ndk1::char_traits<char>, std::__ndk1::allocator<char> >, std::__ndk1::allocator<std::__ndk1::basic_string<char, std::__ndk1::char_traits<char>, std::__ndk1::allocator<char> > > >::__push_back_slow_path<std::__ndk1::basic_string<char, std::__ndk1::char_traits<char>, std::__ndk1::allocator<char> > const&>(std::__ndk1::basic_string<char, std::__ndk1::char_traits<char>, std::__ndk1::allocator<char> > const&)
PUBLIC 18ab8 0 std::__ndk1::__split_buffer<std::__ndk1::basic_string<char, std::__ndk1::char_traits<char>, std::__ndk1::allocator<char> >, std::__ndk1::allocator<std::__ndk1::basic_string<char, std::__ndk1::char_traits<char>, std::__ndk1::allocator<char> > >&>::~__split_buffer()
PUBLIC 18b20 0 std::__ndk1::vector<std::__ndk1::basic_string<char, std::__ndk1::char_traits<char>, std::__ndk1::allocator<char> >, std::__ndk1::allocator<std::__ndk1::basic_string<char, std::__ndk1::char_traits<char>, std::__ndk1::allocator<char> > > >::__throw_length_error[abi:ne180000]() const
PUBLIC 18b34 0 std::__ndk1::__variant_detail::__visitation::__base::__dispatcher<(unsigned long)0>::__dispatch[abi:ne180000]<std::__ndk1::__variant_detail::__dtor<std::__ndk1::__variant_detail::__traits<geode::Hook*, std::__ndk1::basic_string<char, std::__ndk1::char_traits<char>, std::__ndk1::allocator<char> > >, (std::__ndk1::__variant_detail::_Trait)1>::__destroy[abi:ne180000]()::{lambda(auto:1&)#1}, std::__ndk1::__variant_detail::__base<(std::__ndk1::__variant_detail::__traits<geode::Hook*, std::__ndk1::basic_string<char, std::__ndk1::char_traits<char>, std::__ndk1::allocator<char> > >)1, geode::Hook, std::__ndk1::allocator<char> >&>(std::__ndk1::__variant_detail::__dtor<std::__ndk1::__variant_detail::__traits<geode::Hook*, std::__ndk1::basic_string<char, std::__ndk1::char_traits<char>, std::__ndk1::allocator<char> > >, (std::__ndk1::__variant_detail::_Trait)1>, std::__ndk1::__variant_detail::__base<(std::__ndk1::__variant_detail::__traits<geode::Hook*, std::__ndk1::basic_string<char, std::__ndk1::char_traits<char>, std::__ndk1::allocator<char> > >)1, geode::Hook, std::__ndk1::allocator<char> >&)
PUBLIC 18b38 0 std::__ndk1::__variant_detail::__visitation::__base::__dispatcher<(unsigned long)1>::__dispatch[abi:ne180000]<std::__ndk1::__variant_detail::__dtor<std::__ndk1::__variant_detail::__traits<geode::Hook*, std::__ndk1::basic_string<char, std::__ndk1::char_traits<char>, std::__ndk1::allocator<char> > >, (std::__ndk1::__variant_detail::_Trait)1>::__destroy[abi:ne180000]()::{lambda(auto:1&)#1}, std::__ndk1::__variant_detail::__base<(std::__ndk1::__variant_detail::__traits<geode::Hook*, std::__ndk1::basic_string<char, std::__ndk1::char_traits<char>, std::__ndk1::allocator<char> > >)1, geode::Hook, std::__ndk1::allocator<char> >&>(std::__ndk1::__variant_detail::__dtor<std::__ndk1::__variant_detail::__traits<geode::Hook*, std::__ndk1::basic_string<char, std::__ndk1::char_traits<char>, std::__ndk1::allocator<char> > >, (std::__ndk1::__variant_detail::_Trait)1>, std::__ndk1::__variant_detail::__base<(std::__ndk1::__variant_detail::__traits<geode::Hook*, std::__ndk1::basic_string<char, std::__ndk1::char_traits<char>, std::__ndk1::allocator<char> > >)1, geode::Hook, std::__ndk1::allocator<char> >&)
PUBLIC 18b4c 0 std::__ndk1::__tree<std::__ndk1::__value_type<std::__ndk1::basic_string<char, std::__ndk1::char_traits<char>, std::__ndk1::allocator<char> >, std::__ndk1::shared_ptr<geode::Hook> >, std::__ndk1::__map_value_compare<std::__ndk1::basic_string<char, std::__ndk1::char_traits<char>, std::__ndk1::allocator<char> >, std::__ndk1::__value_type<std::__ndk1::basic_string<char, std::__ndk1::char_traits<char>, std::__ndk1::allocator<char> >, std::__ndk1::shared_ptr<geode::Hook> >, std::__ndk1::less<std::__ndk1::basic_string<char, std::__ndk1::char_traits<char>, std::__ndk1::allocator<char> > >, true>, std::__ndk1::allocator<std::__ndk1::__value_type<std::__ndk1::basic_string<char, std::__ndk1::char_traits<char>, std::__ndk1::allocator<char> >, std::__ndk1::shared_ptr<geode::Hook> > > >::find<std::__ndk1::basic_string<char, std::__ndk1::char_traits<char>, std::__ndk1::allocator<char> > >(std::__ndk1::basic_string<char, std::__ndk1::char_traits<char>, std::__ndk1::allocator<char> > const&)
PUBLIC 18c6c 0 std::__ndk1::__tree<std::__ndk1::__value_type<std::__ndk1::basic_string<char, std::__ndk1::char_traits<char>, std::__ndk1::allocator<char> >, std::__ndk1::shared_ptr<geode::Hook> >, std::__ndk1::__map_value_compare<std::__ndk1::basic_string<char, std::__ndk1::char_traits<char>, std::__ndk1::allocator<char> >, std::__ndk1::__value_type<std::__ndk1::basic_string<char, std::__ndk1::char_traits<char>, std::__ndk1::allocator<char> >, std::__ndk1::shared_ptr<geode::Hook> >, std::__ndk1::less<std::__ndk1::basic_string<char, std::__ndk1::char_traits<char>, std::__ndk1::allocator<char> > >, true>, std::__ndk1::allocator<std::__ndk1::__value_type<std::__ndk1::basic_string<char, std::__ndk1::char_traits<char>, std::__ndk1::allocator<char> >, std::__ndk1::shared_ptr<geode::Hook> > > >::erase(std::__ndk1::__tree_const_iterator<std::__ndk1::__value_type<std::__ndk1::basic_string<char, std::__ndk1::char_traits<char>, std::__ndk1::allocator<char> >, std::__ndk1::shared_ptr<geode::Hook> >, std::__ndk1::__tree_node<std::__ndk1::__value_type<std::__ndk1::basic_string<char, std::__ndk1::char_traits<char>, std::__ndk1::allocator<char> >, std::__ndk1::shared_ptr<geode::Hook> >, void*>*, long>)
PUBLIC 19110 0 std::__ndk1::__tree<std::__ndk1::__value_type<std::__ndk1::basic_string<char, std::__ndk1::char_traits<char>, std::__ndk1::allocator<char> >, std::__ndk1::shared_ptr<geode::Hook> >, std::__ndk1::__map_value_compare<std::__ndk1::basic_string<char, std::__ndk1::char_traits<char>, std::__ndk1::allocator<char> >, std::__ndk1::__value_type<std::__ndk1::basic_string<char, std::__ndk1::char_traits<char>, std::__ndk1::allocator<char> >, std::__ndk1::shared_ptr<geode::Hook> >, std::__ndk1::less<std::__ndk1::basic_string<char, std::__ndk1::char_traits<char>, std::__ndk1::allocator<char> > >, true>, std::__ndk1::allocator<std::__ndk1::__value_type<std::__ndk1::basic_string<char, std::__ndk1::char_traits<char>, std::__ndk1::allocator<char> >, std::__ndk1::shared_ptr<geode::Hook> > > >::destroy(std::__ndk1::__tree_node<std::__ndk1::__value_type<std::__ndk1::basic_string<char, std::__ndk1::char_traits<char>, std::__ndk1::allocator<char> >, std::__ndk1::shared_ptr<geode::Hook> >, void*>*)
PUBLIC 19194 0 geode::modifier::AsStaticFunction_loadFromItems<MyEditButtonBar, void (MyEditButtonBar::*)(cocos2d::CCArray*, int, int, bool)>::Impl<void (MyEditButtonBar::*)(cocos2d::CCArray*, int, int, bool)>::function(MyEditButtonBar*, cocos2d::CCArray*, int, int, bool)
PUBLIC 1a210 0 std::__ndk1::shared_ptr<tulip::hook::CallingConvention>::~shared_ptr[abi:ne180000]()
PUBLIC 1a260 0 tulip::hook::HandlerMetadata::~HandlerMetadata()
PUBLIC 1a2c4 0 MyEditButtonBar::onGroupClick(cocos2d::CCObject*)
PUBLIC 1ad7c 0 MyEditButtonBar::getCustomCreateBtn(int, int)
PUBLIC 1ae84 0 MyEditButtonBar::onItemClick(cocos2d::CCObject*)
PUBLIC 1af74 0 Group::~Group()
PUBLIC 1afb8 0 MyEditButtonBar::removeOldMenuIfExists()
PUBLIC 1b034 0 geode::Ref<cocos2d::CCNode>::~Ref()
PUBLIC 1b050 0 geode::modifier::FieldIntermediate<MyEditButtonBar, EditButtonBar>::self()
PUBLIC 1b1dc 0 geode::modifier::FieldContainer::getField(unsigned long)
PUBLIC 1b620 0 geode::modifier::FieldContainer::setField(unsigned long, unsigned long, std::__ndk1::function<void (void*)>)
PUBLIC 1b72c 0 geode::modifier::FieldIntermediate<MyEditButtonBar, EditButtonBar>::fieldDestructor(void*)
PUBLIC 1b788 0 std::__ndk1::vector<void*, std::__ndk1::allocator<void*> >::__throw_length_error[abi:ne180000]() const
PUBLIC 1b79c 0 std::__ndk1::vector<std::__ndk1::function<void (void*)>, std::__ndk1::allocator<std::__ndk1::function<void (void*)> > >::__throw_length_error[abi:ne180000]() const
PUBLIC 1b7b0 0 std::__ndk1::vector<void*, std::__ndk1::allocator<void*> >::__throw_out_of_range[abi:ne180000]() const
PUBLIC 1b7c4 0 std::__ndk1::__throw_out_of_range[abi:ne180000](char const*)
PUBLIC 1b814 0 std::out_of_range::out_of_range[abi:ne180000](char const*)
PUBLIC 1b844 0 std::__ndk1::vector<std::__ndk1::function<void (void*)>, std::__ndk1::allocator<std::__ndk1::function<void (void*)> > >::__throw_out_of_range[abi:ne180000]() const
PUBLIC 1b858 0 std::__ndk1::__function::__base<void (void*)>::~__base()
PUBLIC 1b85c 0 std::__ndk1::__function::__func<void (*)(void*), std::__ndk1::allocator<void (*)(void*)>, void (void*)>::~__func()
PUBLIC 1b860 0 std::__ndk1::__function::__func<void (*)(void*), std::__ndk1::allocator<void (*)(void*)>, void (void*)>::__clone() const
PUBLIC 1b898 0 std::__ndk1::__function::__func<void (*)(void*), std::__ndk1::allocator<void (*)(void*)>, void (void*)>::__clone(std::__ndk1::__function::__base<void (void*)>*) const
PUBLIC 1b8b0 0 std::__ndk1::__function::__func<void (*)(void*), std::__ndk1::allocator<void (*)(void*)>, void (void*)>::destroy()
PUBLIC 1b8b4 0 std::__ndk1::__function::__func<void (*)(void*), std::__ndk1::allocator<void (*)(void*)>, void (void*)>::destroy_deallocate()
PUBLIC 1b8b8 0 std::__ndk1::__function::__func<void (*)(void*), std::__ndk1::allocator<void (*)(void*)>, void (void*)>::operator()(void*&&)
PUBLIC 1b8c8 0 std::__ndk1::__function::__func<void (*)(void*), std::__ndk1::allocator<void (*)(void*)>, void (void*)>::target(std::type_info const&) const
PUBLIC 1b8e4 0 std::__ndk1::__function::__func<void (*)(void*), std::__ndk1::allocator<void (*)(void*)>, void (void*)>::target_type() const
PUBLIC 1b8f0 0 MyEditButtonBar::onGroupItemClick(cocos2d::CCObject*)
PUBLIC 1bcb0 0 std::__ndk1::vector<short, std::__ndk1::allocator<short> >::__throw_out_of_range[abi:ne180000]() const
PUBLIC 1bcc4 0 cocos2d::CCCopying::copyWithZone(cocos2d::CCZone*)
PUBLIC 1bccc 0 GroupItemInfo::~GroupItemInfo()
PUBLIC 1bcf0 0 cocos2d::CCObject::update(float)
PUBLIC 1bcf4 0 MyEditButtonBar::recursiveSetChildrenColor(float, cocos2d::CCArray*)
PUBLIC 1bf6c 0 std::__ndk1::vector<short, std::__ndk1::allocator<short> >::__throw_length_error[abi:ne180000]() const
PUBLIC 1bf80 0 ItemInfo::~ItemInfo()
PUBLIC 1bfa4 0 GroupInfo::~GroupInfo()
PUBLIC 1c000 0 GroupInfo::~GroupInfo()
PUBLIC 1c064 0 std::__ndk1::__tree<std::__ndk1::__value_type<std::__ndk1::basic_string<char, std::__ndk1::char_traits<char>, std::__ndk1::allocator<char> >, std::__ndk1::shared_ptr<geode::Hook> >, std::__ndk1::__map_value_compare<std::__ndk1::basic_string<char, std::__ndk1::char_traits<char>, std::__ndk1::allocator<char> >, std::__ndk1::__value_type<std::__ndk1::basic_string<char, std::__ndk1::char_traits<char>, std::__ndk1::allocator<char> >, std::__ndk1::shared_ptr<geode::Hook> >, std::__ndk1::less<std::__ndk1::basic_string<char, std::__ndk1::char_traits<char>, std::__ndk1::allocator<char> > >, true>, std::__ndk1::allocator<std::__ndk1::__value_type<std::__ndk1::basic_string<char, std::__ndk1::char_traits<char>, std::__ndk1::allocator<char> >, std::__ndk1::shared_ptr<geode::Hook> > > >::__emplace_unique_key_args<std::__ndk1::basic_string<char, std::__ndk1::char_traits<char>, std::__ndk1::allocator<char> >, std::__ndk1::piecewise_construct_t const&, std::__ndk1::tuple<std::__ndk1::basic_string<char, std::__ndk1::char_traits<char>, std::__ndk1::allocator<char> >&&>, std::__ndk1::tuple<> >(std::__ndk1::basic_string<char, std::__ndk1::char_traits<char>, std::__ndk1::allocator<char> > const&, std::__ndk1::piecewise_construct_t const&, std::__ndk1::tuple<std::__ndk1::basic_string<char, std::__ndk1::char_traits<char>, std::__ndk1::allocator<char> >&&>, std::__ndk1::tuple<>)
PUBLIC 1c1cc 0 geode::modifier::ModifyDerive<MyEditorUI, EditorUI>::apply()
PUBLIC 1c518 0 geode::modifier::ModifyBase<geode::modifier::ModifyDerive<MyEditorUI, EditorUI> >::apply()
PUBLIC 1c51c 0 geode::modifier::AsStaticFunction_init<MyEditorUI, bool (MyEditorUI::*)(LevelEditorLayer*)>::Impl<bool (MyEditorUI::*)(LevelEditorLayer*)>::function(MyEditorUI*, LevelEditorLayer*)
PUBLIC 1c9e0 0 MyEditorUI::showErrorAfterTransition(float)
PUBLIC 1cb54 0 geode::modifier::FieldIntermediate<MyEditorUI, EditorUI>::self()
PUBLIC 1cce4 0 geode::modifier::FieldIntermediate<MyEditorUI, EditorUI>::fieldDestructor(void*)
PUBLIC 1ccf8 0 std::__ndk1::basic_string<char, std::__ndk1::char_traits<char>, std::__ndk1::allocator<char> >::__assign_no_alias<true>(char const*, unsigned long)
PUBLIC 1cda4 0 std::__ndk1::basic_string<char, std::__ndk1::char_traits<char>, std::__ndk1::allocator<char> >::__assign_no_alias<false>(char const*, unsigned long)
PUBLIC 1ceb4 0 _GLOBAL__sub_I_main.cpp
PUBLIC 1d08c 0 json::JSON::~JSON()
PUBLIC 1d25c 0 json::JSON::dump(int, std::__ndk1::basic_string<char, std::__ndk1::char_traits<char>, std::__ndk1::allocator<char> >) const
PUBLIC 1dc90 0 json::(anonymous namespace)::parse_next(std::__ndk1::basic_string<char, std::__ndk1::char_traits<char>, std::__ndk1::allocator<char> > const&, unsigned long&, std::__ndk1::vector<std::__ndk1::basic_string<char, std::__ndk1::char_traits<char>, std::__ndk1::allocator<char> >, std::__ndk1::allocator<std::__ndk1::basic_string<char, std::__ndk1::char_traits<char>, std::__ndk1::allocator<char> > > >*)
PUBLIC 1f774 0 writeConfigToJson(std::__ndk1::basic_string<char, std::__ndk1::char_traits<char>, std::__ndk1::allocator<char> >)
PUBLIC 209c4 0 json::JSON::operator=(json::JSON const&)
PUBLIC 20c58 0 json::JSON::JSON(json::JSON const&)
PUBLIC m 20e8c 0 std::__ndk1::basic_ofstream<char, std::__ndk1::char_traits<char> >::~basic_ofstream()
PUBLIC 20edc 0 readConfigFromJson(std::__ndk1::basic_string<char, std::__ndk1::char_traits<char>, std::__ndk1::allocator<char> >, std::__ndk1::vector<std::__ndk1::basic_string<char, std::__ndk1::char_traits<char>, std::__ndk1::allocator<char> >, std::__ndk1::allocator<std::__ndk1::basic_string<char, std::__ndk1::char_traits<char>, std::__ndk1::allocator<char> > > >*)
PUBLIC 23230 0 std::__ndk1::pair<short const, std::__ndk1::vector<Group, std::__ndk1::allocator<Group> > >::~pair()
PUBLIC 232c8 0 std::__ndk1::vector<Group, std::__ndk1::allocator<Group> >::~vector[abi:ne180000]()
PUBLIC m 23360 0 std::__ndk1::basic_ifstream<char, std::__ndk1::char_traits<char> >::~basic_ifstream()
PUBLIC 233b0 0 json::JSON::SetType(json::JSON::Class)
PUBLIC 234a0 0 std::__ndk1::deque<json::JSON, std::__ndk1::allocator<json::JSON> >::~deque[abi:ne180000]()
PUBLIC 2361c 0 std::__ndk1::__tree<std::__ndk1::__value_type<std::__ndk1::basic_string<char, std::__ndk1::char_traits<char>, std::__ndk1::allocator<char> >, json::JSON>, std::__ndk1::__map_value_compare<std::__ndk1::basic_string<char, std::__ndk1::char_traits<char>, std::__ndk1::allocator<char> >, std::__ndk1::__value_type<std::__ndk1::basic_string<char, std::__ndk1::char_traits<char>, std::__ndk1::allocator<char> >, json::JSON>, std::__ndk1::less<std::__ndk1::basic_string<char, std::__ndk1::char_traits<char>, std::__ndk1::allocator<char> > >, true>, std::__ndk1::allocator<std::__ndk1::__value_type<std::__ndk1::basic_string<char, std::__ndk1::char_traits<char>, std::__ndk1::allocator<char> >, json::JSON> > >::destroy(std::__ndk1::__tree_node<std::__ndk1::__value_type<std::__ndk1::basic_string<char, std::__ndk1::char_traits<char>, std::__ndk1::allocator<char> >, json::JSON>, void*>*)
PUBLIC 2366c 0 std::__ndk1::__split_buffer<json::JSON*, std::__ndk1::allocator<json::JSON*> >::~__split_buffer()
PUBLIC 2369c 0 json::(anonymous namespace)::json_escape(std::__ndk1::basic_string<char, std::__ndk1::char_traits<char>, std::__ndk1::allocator<char> > const&)
PUBLIC 23870 0 std::__ndk1::basic_string<char, std::__ndk1::char_traits<char>, std::__ndk1::allocator<char> >::__throw_out_of_range[abi:ne180000]() const
PUBLIC 23884 0 std::__ndk1::basic_string<char, std::__ndk1::char_traits<char>, std::__ndk1::allocator<char> >::__erase_external_with_move(unsigned long, unsigned long)
PUBLIC 23914 0 std::__ndk1::deque<json::JSON, std::__ndk1::allocator<json::JSON> >::__add_back_capacity(unsigned long)
PUBLIC 242e0 0 std::__ndk1::__split_buffer<json::JSON*, std::__ndk1::allocator<json::JSON*> >::push_back(json::JSON*&&)
PUBLIC 24468 0 std::__ndk1::__split_buffer<json::JSON*, std::__ndk1::allocator<json::JSON*> >::push_front(json::JSON*&&)
PUBLIC 245f4 0 std::__ndk1::__tree<std::__ndk1::__value_type<std::__ndk1::basic_string<char, std::__ndk1::char_traits<char>, std::__ndk1::allocator<char> >, json::JSON>, std::__ndk1::__map_value_compare<std::__ndk1::basic_string<char, std::__ndk1::char_traits<char>, std::__ndk1::allocator<char> >, std::__ndk1::__value_type<std::__ndk1::basic_string<char, std::__ndk1::char_traits<char>, std::__ndk1::allocator<char> >, json::JSON>, std::__ndk1::less<std::__ndk1::basic_string<char, std::__ndk1::char_traits<char>, std::__ndk1::allocator<char> > >, true>, std::__ndk1::allocator<std::__ndk1::__value_type<std::__ndk1::basic_string<char, std::__ndk1::char_traits<char>, std::__ndk1::allocator<char> >, json::JSON> > >::__emplace_unique_key_args<std::__ndk1::basic_string<char, std::__ndk1::char_traits<char>, std::__ndk1::allocator<char> >, std::__ndk1::piecewise_construct_t const&, std::__ndk1::tuple<std::__ndk1::basic_string<char, std::__ndk1::char_traits<char>, std::__ndk1::allocator<char> > const&>, std::__ndk1::tuple<> >(std::__ndk1::basic_string<char, std::__ndk1::char_traits<char>, std::__ndk1::allocator<char> > const&, std::__ndk1::piecewise_construct_t const&, std::__ndk1::tuple<std::__ndk1::basic_string<char, std::__ndk1::char_traits<char>, std::__ndk1::allocator<char> > const&>, std::__ndk1::tuple<>)
PUBLIC 247cc 0 std::__ndk1::unique_ptr<std::__ndk1::__tree_node<std::__ndk1::__value_type<std::__ndk1::basic_string<char, std::__ndk1::char_traits<char>, std::__ndk1::allocator<char> >, json::JSON>, void*>, std::__ndk1::__tree_node_destructor<std::__ndk1::allocator<std::__ndk1::__tree_node<std::__ndk1::__value_type<std::__ndk1::basic_string<char, std::__ndk1::char_traits<char>, std::__ndk1::allocator<char> >, json::JSON>, void*> > > >::~unique_ptr[abi:ne180000]()
PUBLIC 24820 0 std::__ndk1::__tree<std::__ndk1::__value_type<std::__ndk1::basic_string<char, std::__ndk1::char_traits<char>, std::__ndk1::allocator<char> >, json::JSON>, std::__ndk1::__map_value_compare<std::__ndk1::basic_string<char, std::__ndk1::char_traits<char>, std::__ndk1::allocator<char> >, std::__ndk1::__value_type<std::__ndk1::basic_string<char, std::__ndk1::char_traits<char>, std::__ndk1::allocator<char> >, json::JSON>, std::__ndk1::less<std::__ndk1::basic_string<char, std::__ndk1::char_traits<char>, std::__ndk1::allocator<char> > >, true>, std::__ndk1::allocator<std::__ndk1::__value_type<std::__ndk1::basic_string<char, std::__ndk1::char_traits<char>, std::__ndk1::allocator<char> >, json::JSON> > >::__emplace_hint_unique_key_args<std::__ndk1::basic_string<char, std::__ndk1::char_traits<char>, std::__ndk1::allocator<char> >, std::__ndk1::pair<std::__ndk1::basic_string<char, std::__ndk1::char_traits<char>, std::__ndk1::allocator<char> > const, json::JSON> const&>(std::__ndk1::__tree_const_iterator<std::__ndk1::__value_type<std::__ndk1::basic_string<char, std::__ndk1::char_traits<char>, std::__ndk1::allocator<char> >, json::JSON>, std::__ndk1::__tree_node<std::__ndk1::__value_type<std::__ndk1::basic_string<char, std::__ndk1::char_traits<char>, std::__ndk1::allocator<char> >, json::JSON>, void*>*, long>, std::__ndk1::basic_string<char, std::__ndk1::char_traits<char>, std::__ndk1::allocator<char> > const&, std::__ndk1::pair<std::__ndk1::basic_string<char, std::__ndk1::char_traits<char>, std::__ndk1::allocator<char> > const, json::JSON> const&)
PUBLIC 24c98 0 std::__ndk1::deque<json::JSON, std::__ndk1::allocator<json::JSON> >::__append_with_size[abi:ne180000]<std::__ndk1::__deque_iterator<json::JSON, json::JSON*, json::JSON&, std::__ndk1::__deque_iterator*, long, (long)256> >(std::__ndk1::__deque_iterator<json::JSON, json::JSON*, json::JSON&, std::__ndk1::__deque_iterator*, long, (long)256>, unsigned long)
PUBLIC 24e3c 0 std::__ndk1::vector<std::__ndk1::basic_string<char, std::__ndk1::char_traits<char>, std::__ndk1::allocator<char> >, std::__ndk1::allocator<std::__ndk1::basic_string<char, std::__ndk1::char_traits<char>, std::__ndk1::allocator<char> > > >::__push_back_slow_path<std::__ndk1::basic_string<char, std::__ndk1::char_traits<char>, std::__ndk1::allocator<char> > >(std::__ndk1::basic_string<char, std::__ndk1::char_traits<char>, std::__ndk1::allocator<char> >&&)
PUBLIC 24fa4 0 std::__ndk1::construct_at[abi:ne180000]<Group, std::__ndk1::construct_at[abi:ne180000] const&, std::__ndk1::construct_at[abi:ne180000]*>(Group, std::__ndk1::construct_at[abi:ne180000] const&)
PUBLIC 25098 0 std::__ndk1::__split_buffer<Group, std::__ndk1::allocator<Group>&>::~__split_buffer()
PUBLIC 25114 0 std::__ndk1::vector<Group, std::__ndk1::allocator<Group> >::__throw_length_error[abi:ne180000]() const
PUBLIC 25128 0 std::__ndk1::__exception_guard_exceptions<std::__ndk1::_AllocatorDestroyRangeReverse<std::__ndk1::allocator<Group>, std::__ndk1::reverse_iterator<Group*> > >::~__exception_guard_exceptions[abi:ne180000]()
PUBLIC 2518c 0 std::__ndk1::vector<Group, std::__ndk1::allocator<Group> >::__init_with_size[abi:ne180000]<Group*, std::__ndk1::vector<Group, std::__ndk1::allocator<Group> >::__init_with_size[abi:ne180000]>(Group*, std::__ndk1::vector<Group, std::__ndk1::allocator<Group> >::__init_with_size[abi:ne180000], unsigned long)
PUBLIC 252bc 0 std::__ndk1::__exception_guard_exceptions<std::__ndk1::vector<Group, std::__ndk1::allocator<Group> >::__destroy_vector>::~__exception_guard_exceptions[abi:ne180000]()
PUBLIC 25364 0 std::__ndk1::__exception_guard_exceptions<std::__ndk1::_AllocatorDestroyRangeReverse<std::__ndk1::allocator<Group>, Group*> >::~__exception_guard_exceptions[abi:ne180000]()
PUBLIC 253c8 0 std::__ndk1::construct_at[abi:ne180000]<Group, std::__ndk1::construct_at[abi:ne180000]&, std::__ndk1::construct_at[abi:ne180000]*>(Group, std::__ndk1::construct_at[abi:ne180000]&)
PUBLIC 254bc 0 std::__ndk1::deque<json::JSON, std::__ndk1::allocator<json::JSON> >::__add_back_capacity()
PUBLIC 25aac 0 std::__ndk1::__tree<std::__ndk1::__value_type<short, std::__ndk1::vector<Group, std::__ndk1::allocator<Group> > >, std::__ndk1::__map_value_compare<short, std::__ndk1::__value_type<short, std::__ndk1::vector<Group, std::__ndk1::allocator<Group> > >, std::__ndk1::less<short>, true>, std::__ndk1::allocator<std::__ndk1::__value_type<short, std::__ndk1::vector<Group, std::__ndk1::allocator<Group> > > > >::destroy(std::__ndk1::__tree_node<std::__ndk1::__value_type<short, std::__ndk1::vector<Group, std::__ndk1::allocator<Group> > >, void*>*)
PUBLIC 25b4c 0 _GLOBAL__sub_I_fileUtils.cpp
PUBLIC 25bf4 0 __cxx_global_var_init.1
PUBLIC 370ac 0 _GLOBAL__sub_I_groups.cpp
PUBLIC 37158 0 std::__ndk1::map<short, std::__ndk1::vector<Group, std::__ndk1::allocator<Group> >, std::__ndk1::less<short>, std::__ndk1::allocator<std::__ndk1::pair<short const, std::__ndk1::vector<Group, std::__ndk1::allocator<Group> > > > >::~map[abi:ne180000]()
PUBLIC 37160 0 std::__ndk1::__tree<std::__ndk1::__value_type<short, std::__ndk1::vector<Group, std::__ndk1::allocator<Group> > >, std::__ndk1::__map_value_compare<short, std::__ndk1::__value_type<short, std::__ndk1::vector<Group, std::__ndk1::allocator<Group> > >, std::__ndk1::less<short>, true>, std::__ndk1::allocator<std::__ndk1::__value_type<short, std::__ndk1::vector<Group, std::__ndk1::allocator<Group> > > > >::__emplace_hint_unique_key_args<short, std::__ndk1::pair<short const, std::__ndk1::vector<Group, std::__ndk1::allocator<Group> > > const&>(std::__ndk1::__tree_const_iterator<std::__ndk1::__value_type<short, std::__ndk1::vector<Group, std::__ndk1::allocator<Group> > >, std::__ndk1::__tree_node<std::__ndk1::__value_type<short, std::__ndk1::vector<Group, std::__ndk1::allocator<Group> > >, void*>*, long>, short const&, std::__ndk1::pair<short const, std::__ndk1::vector<Group, std::__ndk1::allocator<Group> > > const&)
PUBLIC 37304 0 std::__ndk1::unique_ptr<std::__ndk1::__tree_node<std::__ndk1::__value_type<short, std::__ndk1::vector<Group, std::__ndk1::allocator<Group> > >, void*>, std::__ndk1::__tree_node_destructor<std::__ndk1::allocator<std::__ndk1::__tree_node<std::__ndk1::__value_type<short, std::__ndk1::vector<Group, std::__ndk1::allocator<Group> > >, void*> > > >::~unique_ptr[abi:ne180000]()
PUBLIC m 373a4 0 geodeImplicitEntry
PUBLIC 373e0 0 __udivti3
PUBLIC 373ec 0 __udivmodti4
PUBLIC m 37638 0 __eqtf2
PUBLIC 376d8 0 __unordtf2
PUBLIC 37710 0 fmt::v11::detail::write_loc(fmt::v11::basic_appender<char>, fmt::v11::loc_value, fmt::v11::format_specs const&, fmt::v11::detail::locale_ref)
PUBLIC 379a4 0 fmt::v11::format_facet<std::__ndk1::locale>::~format_facet()
PUBLIC 37a20 0 fmt::v11::report_error(char const*)
PUBLIC 37a70 0 fmt::v11::format_error::runtime_error(char const*)
PUBLIC 37a9c 0 fmt::v11::format_facet<std::__ndk1::locale>::do_put(fmt::v11::basic_appender<char>, fmt::v11::loc_value, fmt::v11::format_specs const&) const
PUBLIC 3825c 0 fmt::v11::detail::loc_writer<char>::~loc_writer()
PUBLIC 382c0 0 fmt::v11::vformat(fmt::v11::basic_string_view<char>, fmt::v11::basic_format_args<fmt::v11::context>)
PUBLIC 383fc 0 fmt::v11::detail::vformat_to<char>(fmt::v11::detail::buffer<char>&, fmt::v11::basic_string_view<char>, fmt::v11::detail::vformat_args<char>::type, fmt::v11::detail::locale_ref)
PUBLIC 3896c 0 fmt::v11::detail::is_printable(unsigned int)
PUBLIC 38b94 0 fmt::v11::detail::dragonbox::to_decimal<float>(float)
PUBLIC 38e70 0 fmt::v11::detail::dragonbox::to_decimal<double>(double)
PUBLIC 393ac 0 fmt::v11::basic_memory_buffer<char, (unsigned long)500, std::__ndk1::allocator<char> >::grow(fmt::v11::detail::buffer<char>&, unsigned long)
PUBLIC 39424 0 fmt::v11::format_facet<std::__ndk1::locale>::~format_facet()
PUBLIC 394b0 0 fmt::v11::format_error::~format_error()
PUBLIC 394d4 0 fmt::v11::detail::copy_noinline<char, char const*, fmt::v11::basic_appender<char> >(char const*, char const*, fmt::v11::basic_appender<char>)
PUBLIC 39624 0 fmt::v11::detail::default_arg_formatter<char>::operator()<bool>(bool)
PUBLIC 3968c 0 fmt::v11::detail::default_arg_formatter<char>::operator()<char>(char)
PUBLIC 3971c 0 fmt::v11::detail::default_arg_formatter<char>::operator()<float>(float)
PUBLIC 39808 0 fmt::v11::detail::default_arg_formatter<char>::operator()<double>(double)
PUBLIC 398f4 0 fmt::v11::detail::default_arg_formatter<char>::operator()<char const*>(char const*)
PUBLIC 3993c 0 fmt::v11::detail::default_arg_formatter<char>::operator()<void const*>(void const*)
PUBLIC 399d4 0 _ZN3fmt3v116detail5writeIcNS0_14basic_appenderIcEEiTnNSt6__ndk19enable_ifIXaaaasr11is_integralIT1_EE5valuentsr3std7is_sameIS7_bEE5valuentsr3std7is_sameIS7_T_EE5valueEiE4typeELi0EEET0_SB_S7_
PUBLIC 39c34 0 fmt::v11::detail::copy_noinline<char, char*, fmt::v11::basic_appender<char> >(char*, char*, fmt::v11::basic_appender<char>)
PUBLIC 39d84 0 _ZN3fmt3v116detail5writeIcNS0_14basic_appenderIcEEjTnNSt6__ndk19enable_ifIXaaaasr11is_integralIT1_EE5valuentsr3std7is_sameIS7_bEE5valuentsr3std7is_sameIS7_T_EE5valueEiE4typeELi0EEET0_SB_S7_
PUBLIC 39f64 0 _ZN3fmt3v116detail5writeIcNS0_14basic_appenderIcEExTnNSt6__ndk19enable_ifIXaaaasr11is_integralIT1_EE5valuentsr3std7is_sameIS7_bEE5valuentsr3std7is_sameIS7_T_EE5valueEiE4typeELi0EEET0_SB_S7_
PUBLIC 3a1e8 0 _ZN3fmt3v116detail5writeIcNS0_14basic_appenderIcEEyTnNSt6__ndk19enable_ifIXaaaasr11is_integralIT1_EE5valuentsr3std7is_sameIS7_bEE5valuentsr3std7is_sameIS7_T_EE5valueEiE4typeELi0EEET0_SB_S7_
PUBLIC 3a3f0 0 _ZN3fmt3v116detail5writeIcNS0_14basic_appenderIcEEnTnNSt6__ndk19enable_ifIXaaaasr11is_integralIT1_EE5valuentsr3std7is_sameIS7_bEE5valuentsr3std7is_sameIS7_T_EE5valueEiE4typeELi0EEET0_SB_S7_
PUBLIC 3a750 0 _ZN3fmt3v116detail5writeIcNS0_14basic_appenderIcEEoTnNSt6__ndk19enable_ifIXaaaasr11is_integralIT1_EE5valuentsr3std7is_sameIS7_bEE5valuentsr3std7is_sameIS7_T_EE5valueEiE4typeELi0EEET0_SB_S7_
PUBLIC 3aa64 0 _ZN3fmt3v116detail5writeIcNS0_14basic_appenderIcEEbTnNSt6__ndk19enable_ifIXsr3std7is_sameIT1_bEE5valueEiE4typeELi0EEET0_SA_S7_RKNS0_12format_specsENS1_10locale_refE
PUBLIC 3acf4 0 fmt::v11::detail::write_int_noinline<char, fmt::v11::basic_appender<char>, unsigned int>(fmt::v11::basic_appender<char>, fmt::v11::detail::write_int_arg<unsigned int>, fmt::v11::format_specs const&, fmt::v11::detail::locale_ref)
PUBLIC 3bad0 0 fmt::v11::detail::fill<char, fmt::v11::basic_appender<char> >(fmt::v11::basic_appender<char>, unsigned long, fmt::v11::detail::fill_t const&)
PUBLIC 3bca0 0 fmt::v11::detail::write_padded<char, (fmt::v11::align::type)1, fmt::v11::basic_appender<char>, fmt::v11::detail::write_char<char, fmt::v11::basic_appender<char> >(fmt::v11::basic_appender<char>, char, fmt::v11::format_specs const&)::{lambda(fmt::v11::basic_appender<char>&)#1}>(fmt::v11::basic_appender<char>, fmt::v11::format_specs const&, unsigned long, unsigned long, fmt::v11::detail::write_char<char, fmt::v11::basic_appender<char> >(fmt::v11::basic_appender<char>, char, fmt::v11::format_specs const&)::{lambda(fmt::v11::basic_appender<char>&)#1})
PUBLIC 3bedc 0 fmt::v11::detail::write_escaped_cp<fmt::v11::basic_appender<char>, char>(fmt::v11::basic_appender<char>, fmt::v11::detail::find_escape_result<char> const&)
PUBLIC 3c1e8 0 fmt::v11::detail::write_codepoint<(unsigned long)2, char, fmt::v11::basic_appender<char> >(fmt::v11::basic_appender<char>, char, unsigned int)
PUBLIC 3c360 0 fmt::v11::detail::write_codepoint<(unsigned long)8, char, fmt::v11::basic_appender<char> >(fmt::v11::basic_appender<char>, char, unsigned int)
PUBLIC 3c4d8 0 fmt::v11::detail::write_padded<char, (fmt::v11::align::type)1, fmt::v11::basic_appender<char>, fmt::v11::detail::write_nonfinite<char, fmt::v11::basic_appender<char> >(fmt::v11::basic_appender<char>, bool, fmt::v11::format_specs, fmt::v11::sign::type)::{lambda(fmt::v11::basic_appender<char>&)#1}>(fmt::v11::basic_appender<char>, fmt::v11::format_specs const&, unsigned long, unsigned long, fmt::v11::detail::write_nonfinite<char, fmt::v11::basic_appender<char> >(fmt::v11::basic_appender<char>, bool, fmt::v11::format_specs, fmt::v11::sign::type)::{lambda(fmt::v11::basic_appender<char>&)#1})
PUBLIC 3c718 0 fmt::v11::detail::do_write_float<char, fmt::v11::basic_appender<char>, fmt::v11::detail::dragonbox::decimal_fp<float>, fmt::v11::detail::digit_grouping<char> >(fmt::v11::basic_appender<char>, fmt::v11::detail::dragonbox::decimal_fp<float> const&, fmt::v11::format_specs const&, fmt::v11::detail::float_specs, fmt::v11::detail::locale_ref)
PUBLIC 3d38c 0 fmt::v11::detail::do_write_float<char, fmt::v11::basic_appender<char>, fmt::v11::detail::dragonbox::decimal_fp<float>, fmt::v11::detail::digit_grouping<char> >(fmt::v11::basic_appender<char>, fmt::v11::detail::dragonbox::decimal_fp<float> const&, fmt::v11::format_specs const&, fmt::v11::detail::float_specs, fmt::v11::detail::locale_ref)::{lambda(fmt::v11::basic_appender<char>(fmt::v11::basic_appender<char>))#1}::operator() const
PUBLIC 3d4e0 0 fmt::v11::detail::digit_grouping<char>::digit_grouping(fmt::v11::detail::locale_ref, bool)
PUBLIC 3d74c 0 fmt::v11::detail::digit_grouping<char>::~digit_grouping()
PUBLIC 3d790 0 fmt::v11::detail::write_exponent<char, fmt::v11::basic_appender<char> >(int, fmt::v11::basic_appender<char>)
PUBLIC 3d960 0 _ZN3fmt3v116detail17write_significandIcjTnNSt6__ndk19enable_ifIXsr3std11is_integralIT0_EE5valueEiE4typeELi0EEEPT_S9_S5_iiS8_
PUBLIC 3dadc 0 fmt::v11::detail::digit_grouping<char>::apply<fmt::v11::basic_appender<char>, char>(fmt::v11::basic_appender<char>, fmt::v11::basic_string_view<char>) const
PUBLIC 3de94 0 fmt::v11::basic_memory_buffer<int, (unsigned long)500, std::__ndk1::allocator<int> >::grow(fmt::v11::detail::buffer<int>&, unsigned long)
PUBLIC 3df34 0 fmt::v11::detail::do_write_float<char, fmt::v11::basic_appender<char>, fmt::v11::detail::dragonbox::decimal_fp<double>, fmt::v11::detail::digit_grouping<char> >(fmt::v11::basic_appender<char>, fmt::v11::detail::dragonbox::decimal_fp<double> const&, fmt::v11::format_specs const&, fmt::v11::detail::float_specs, fmt::v11::detail::locale_ref)
PUBLIC 3ebe8 0 fmt::v11::detail::do_write_float<char, fmt::v11::basic_appender<char>, fmt::v11::detail::dragonbox::decimal_fp<double>, fmt::v11::detail::digit_grouping<char> >(fmt::v11::basic_appender<char>, fmt::v11::detail::dragonbox::decimal_fp<double> const&, fmt::v11::format_specs const&, fmt::v11::detail::float_specs, fmt::v11::detail::locale_ref)::{lambda(fmt::v11::basic_appender<char>(fmt::v11::basic_appender<char>))#1}::operator() const
PUBLIC 3ed40 0 _ZN3fmt3v116detail17write_significandIcmTnNSt6__ndk19enable_ifIXsr3std11is_integralIT0_EE5valueEiE4typeELi0EEEPT_S9_S5_iiS8_
PUBLIC 3eed0 0 fmt::v11::detail::write_float<char, fmt::v11::basic_appender<char>, long double>(fmt::v11::basic_appender<char>, long double, fmt::v11::format_specs, fmt::v11::detail::locale_ref)
PUBLIC 3f9cc 0 fmt::v11::detail::write_padded<char, (fmt::v11::align::type)2, fmt::v11::basic_appender<char>, fmt::v11::detail::write_bytes<char, (fmt::v11::align::type)2, fmt::v11::basic_appender<char> >(fmt::v11::basic_appender<char>, fmt::v11::basic_string_view<char>, fmt::v11::format_specs const&)::{lambda(fmt::v11::basic_appender<char>&)#1}>(fmt::v11::basic_appender<char>, fmt::v11::format_specs const&, unsigned long, unsigned long, fmt::v11::detail::write_bytes<char, (fmt::v11::align::type)2, fmt::v11::basic_appender<char> >(fmt::v11::basic_appender<char>, fmt::v11::basic_string_view<char>, fmt::v11::format_specs const&)::{lambda(fmt::v11::basic_appender<char>&)#1})
PUBLIC 3fba8 0 fmt::v11::detail::format_dragon(fmt::v11::detail::basic_fp<unsigned __int128>, unsigned int, int, fmt::v11::detail::buffer<char>&, int&)
PUBLIC 40fd8 0 fmt::v11::detail::bigint::operator<<=(int)
PUBLIC 410fc 0 fmt::v11::detail::bigint::assign_pow10(int)
PUBLIC 41858 0 fmt::v11::detail::bigint::divmod_assign(fmt::v11::detail::bigint const&)
PUBLIC 41b78 0 fmt::v11::basic_memory_buffer<unsigned int, (unsigned long)32, std::__ndk1::allocator<unsigned int> >::grow(fmt::v11::detail::buffer<unsigned int>&, unsigned long)
PUBLIC 41c18 0 fmt::v11::detail::do_write_float<char, fmt::v11::basic_appender<char>, fmt::v11::detail::big_decimal_fp, fmt::v11::detail::digit_grouping<char> >(fmt::v11::basic_appender<char>, fmt::v11::detail::big_decimal_fp const&, fmt::v11::format_specs const&, fmt::v11::detail::float_specs, fmt::v11::detail::locale_ref)
PUBLIC 42ac8 0 fmt::v11::detail::do_write_float<char, fmt::v11::basic_appender<char>, fmt::v11::detail::big_decimal_fp, fmt::v11::detail::digit_grouping<char> >(fmt::v11::basic_appender<char>, fmt::v11::detail::big_decimal_fp const&, fmt::v11::format_specs const&, fmt::v11::detail::float_specs, fmt::v11::detail::locale_ref)::{lambda(fmt::v11::basic_appender<char>(fmt::v11::basic_appender<char>))#1}::operator() const
PUBLIC 42c28 0 fmt::v11::detail::write_padded<char, (fmt::v11::align::type)2, fmt::v11::basic_appender<char>, fmt::v11::detail::write_ptr<char, fmt::v11::basic_appender<char>, unsigned long>(fmt::v11::basic_appender<char>, unsigned long, fmt::v11::format_specs const*)::{lambda(fmt::v11::basic_appender<char>&)#1}>(fmt::v11::basic_appender<char>, fmt::v11::format_specs const&, unsigned long, unsigned long, fmt::v11::detail::write_ptr<char, fmt::v11::basic_appender<char>, unsigned long>(fmt::v11::basic_appender<char>, unsigned long, fmt::v11::format_specs const*)::{lambda(fmt::v11::basic_appender<char>&)#1})
PUBLIC 42e3c 0 fmt::v11::detail::parse_replacement_field<char, fmt::v11::detail::vformat_to<char>(fmt::v11::detail::buffer<char>&, fmt::v11::basic_string_view<char>, fmt::v11::detail::vformat_args<char>::type, fmt::v11::detail::locale_ref)::format_handler&>(char const*, char const*, fmt::v11::detail::vformat_to<char>(fmt::v11::detail::buffer<char>&, fmt::v11::basic_string_view<char>, fmt::v11::detail::vformat_args<char>::type, fmt::v11::detail::locale_ref)::format_handler&)
PUBLIC 44ad8 0 fmt::v11::detail::parse_dynamic_spec<char>(char const*, char const*, int&, fmt::v11::detail::arg_ref<char>&, fmt::v11::basic_format_parse_context<char>&)
PUBLIC 44d68 0 fmt::v11::basic_format_args<fmt::v11::context>::get<char>(fmt::v11::basic_string_view<char>) const
PUBLIC 44ec0 0 fmt::v11::detail::write_int_noinline<char, fmt::v11::basic_appender<char>, unsigned long>(fmt::v11::basic_appender<char>, fmt::v11::detail::write_int_arg<unsigned long>, fmt::v11::format_specs const&, fmt::v11::detail::locale_ref)
PUBLIC 45d14 0 fmt::v11::detail::write_int_noinline<char, fmt::v11::basic_appender<char>, unsigned __int128>(fmt::v11::basic_appender<char>, fmt::v11::detail::write_int_arg<unsigned __int128>, fmt::v11::format_specs const&, fmt::v11::detail::locale_ref)
PUBLIC 46d7c 0 _ZN3fmt3v116detail15format_hexfloatIdTnNSt6__ndk19enable_ifIXntsr16is_double_doubleIT_EE5valueEiE4typeELi0EEEvS5_NS0_12format_specsERNS1_6bufferIcEE
PUBLIC 4729c 0 fmt::v11::detail::format_float<double>(double, int, fmt::v11::detail::float_specs, fmt::v11::detail::buffer<char>&)
PUBLIC 47c3c 0 fmt::v11::detail::write<char, fmt::v11::basic_appender<char> >(fmt::v11::basic_appender<char>, fmt::v11::basic_string_view<char>, fmt::v11::format_specs const&)
PUBLIC 48fa8 0 fmt::v11::detail::for_each_codepoint<fmt::v11::detail::compute_width(fmt::v11::basic_string_view<char>)::count_code_points>(fmt::v11::basic_string_view<char>, fmt::v11::detail::compute_width(fmt::v11::basic_string_view<char>)::count_code_points)::{lambda(char const*, char const*)#1}::operator()(char const*, char const*) const
PUBLIC 49160 0 fmt::v11::detail::write_int<fmt::v11::basic_appender<char>, unsigned long, char>(fmt::v11::basic_appender<char>, unsigned long, unsigned int, fmt::v11::format_specs const&, fmt::v11::detail::digit_grouping<char> const&)
PUBLIC 496dc 0 fmt::v11::detail::write_int<fmt::v11::basic_appender<char>, unsigned __int128, char>(fmt::v11::basic_appender<char>, unsigned __int128, unsigned int, fmt::v11::format_specs const&, fmt::v11::detail::digit_grouping<char> const&)
PUBLIC 49d60 0 <.plt ELF section in razoom.object_groups.android64.so>
STACK CFI INIT 113d0 10 .cfa: sp 0 +
STACK CFI INIT 113e0 8 .cfa: sp 0 +
STACK CFI INIT 113e8 8 .cfa: sp 0 +
STACK CFI INIT 113f0 14 .cfa: sp 0 +
STACK CFI INIT 11404 1c .cfa: sp 0 +
STACK CFI INIT 11420 10 .cfa: sp 0 +
STACK CFI INIT 11430 134 .cfa: sp 0 +
STACK CFI INIT 11564 84 .cfa: sp 0 +
STACK CFI INIT 115e8 f4 .cfa: sp 0 +
STACK CFI INIT 116dc a8 .cfa: sp 0 +
STACK CFI INIT 11784 7c .cfa: sp 0 +
STACK CFI INIT 11800 14 .cfa: sp 0 +
STACK CFI INIT 11814 40 .cfa: sp 0 +
STACK CFI INIT 11854 28 .cfa: sp 0 +
STACK CFI INIT 1187c 190 .cfa: sp 0 +
STACK CFI INIT 11a0c 2c8 .cfa: sp 0 +
STACK CFI INIT 11cd4 8 .cfa: sp 0 +
STACK CFI INIT 11cdc 8 .cfa: sp 0 +
STACK CFI INIT 11ce4 44 .cfa: sp 0 +
STACK CFI INIT 11d28 e8 .cfa: sp 0 +
STACK CFI INIT 11e10 e8 .cfa: sp 0 +
STACK CFI INIT 11ef8 14 .cfa: sp 0 +
STACK CFI INIT 11f0c 10 .cfa: sp 0 +
STACK CFI INIT 11f1c 10 .cfa: sp 0 +
STACK CFI INIT 11f2c f0 .cfa: sp 0 +
STACK CFI INIT 1201c 44 .cfa: sp 0 +
STACK CFI INIT 12060 c .cfa: sp 0 +
STACK CFI INIT 1206c c .cfa: sp 0 +
STACK CFI INIT 12078 2c .cfa: sp 0 +
STACK CFI INIT 120a4 280 .cfa: sp 0 +
STACK CFI INIT 12324 c .cfa: sp 0 +
STACK CFI INIT 12330 120 .cfa: sp 0 +
STACK CFI INIT 12450 488 .cfa: sp 0 +
STACK CFI INIT 128d8 c48 .cfa: sp 0 +
STACK CFI INIT 13520 134 .cfa: sp 0 +
STACK CFI INIT 13654 210 .cfa: sp 0 +
STACK CFI INIT 13864 38c .cfa: sp 0 +
STACK CFI INIT 13bf0 1c8 .cfa: sp 0 +
STACK CFI INIT 13db8 9bc .cfa: sp 0 +
STACK CFI INIT 14774 2d4 .cfa: sp 0 +
STACK CFI INIT 14a48 134 .cfa: sp 0 +
STACK CFI INIT 14b7c 120 .cfa: sp 0 +
STACK CFI INIT 14c9c 1c8 .cfa: sp 0 +
STACK CFI INIT 14e64 168 .cfa: sp 0 +
STACK CFI INIT 14fcc fc .cfa: sp 0 +
STACK CFI INIT 150c8 30 .cfa: sp 0 +
STACK CFI INIT 15230 30 .cfa: sp 0 +
STACK CFI INIT 15260 98 .cfa: sp 0 +
STACK CFI INIT 152f8 59c .cfa: sp 0 +
STACK CFI INIT 15894 8c .cfa: sp 0 +
STACK CFI INIT 15920 30 .cfa: sp 0 +
STACK CFI INIT 15a6c 8 .cfa: sp 0 +
STACK CFI INIT 15a74 44 .cfa: sp 0 +
STACK CFI 15a78 .cfa: sp 32 +
STACK CFI 15a80 .cfa: x29 32 + x19: .cfa -16 + ^ .ra: .cfa -24 + ^ x29: .cfa -32 + ^
STACK CFI 15a9c .cfa: sp 32 +
STACK CFI 15aa4 .cfa: sp 0 +
STACK CFI 15aa8 .cfa: x29 32 +
STACK CFI 15aac .cfa: sp 32 +
STACK CFI 15ab4 .cfa: sp 0 +
STACK CFI INIT 163b4 18 .cfa: sp 0 +
STACK CFI INIT 16850 18 .cfa: sp 0 +
STACK CFI INIT 16868 14 .cfa: sp 0 +
STACK CFI 1686c .cfa: sp 16 +
STACK CFI 16870 .cfa: x29 16 + .ra: .cfa -8 + ^ x29: .cfa -16 + ^
STACK CFI INIT 168cc 30 .cfa: sp 0 +
STACK CFI 168d0 .cfa: sp 32 +
STACK CFI 168d8 .cfa: x29 32 + x19: .cfa -16 + ^ .ra: .cfa -24 + ^ x29: .cfa -32 + ^
STACK CFI 168f0 .cfa: sp 32 +
STACK CFI 168f8 .cfa: sp 0 +
STACK CFI INIT 168fc 34 .cfa: sp 0 +
STACK CFI 16900 .cfa: sp 32 +
STACK CFI 16908 .cfa: x29 32 + x19: .cfa -16 + ^ .ra: .cfa -24 + ^ x29: .cfa -32 + ^
STACK CFI INIT 16930 10 .cfa: sp 0 +
STACK CFI 16934 .cfa: sp 16 +
STACK CFI 16938 .cfa: x29 16 + .ra: .cfa -8 + ^ x29: .cfa -16 + ^
STACK CFI INIT 16940 1b0 .cfa: sp 0 +
STACK CFI INIT 16af0 1b0 .cfa: sp 0 +
STACK CFI INIT 16ca0 44 .cfa: sp 0 +
STACK CFI 16ca8 .cfa: sp 32 +
STACK CFI 16cb0 .cfa: x29 32 + x19: .cfa -8 + ^ x20: .cfa -16 + ^ .ra: .cfa -24 + ^ x29: .cfa -32 + ^
STACK CFI 16cd4 .cfa: sp 32 +
STACK CFI 16cdc .cfa: sp 0 +
STACK CFI INIT 175a8 f8 .cfa: sp 0 +
STACK CFI 175ac .cfa: sp 64 +
STACK CFI 175bc .cfa: x29 64 + x19: .cfa -8 + ^ x20: .cfa -16 + ^ x21: .cfa -24 + ^ x22: .cfa -32 + ^ x23: .cfa -48 + ^ .ra: .cfa -56 + ^ x29: .cfa -64 + ^
STACK CFI 17618 .cfa: sp 64 +
STACK CFI 17628 .cfa: sp 0 +
STACK CFI 1762c .cfa: x29 64 +
STACK CFI 17648 .cfa: sp 64 +
STACK CFI 17658 .cfa: sp 0 +
STACK CFI 1765c .cfa: x29 64 +
STACK CFI 1768c .cfa: sp 64 +
STACK CFI 1769c .cfa: sp 0 +
STACK CFI INIT 176a0 50 .cfa: sp 0 +
STACK CFI 176a4 .cfa: sp 32 +
STACK CFI 176ac .cfa: x29 32 + x19: .cfa -16 + ^ .ra: .cfa -24 + ^ x29: .cfa -32 + ^
STACK CFI 176c4 .cfa: sp 32 +
STACK CFI 176cc .cfa: sp 0 +
STACK CFI 176d0 .cfa: x29 32 +
STACK CFI 176e4 .cfa: sp 32 +
STACK CFI 176ec .cfa: sp 0 +
STACK CFI INIT 176f0 50 .cfa: sp 0 +
STACK CFI 176f4 .cfa: sp 32 +
STACK CFI 176fc .cfa: x29 32 + x19: .cfa -16 + ^ .ra: .cfa -24 + ^ x29: .cfa -32 + ^
STACK CFI 17714 .cfa: sp 32 +
STACK CFI 1771c .cfa: sp 0 +
STACK CFI 17720 .cfa: x29 32 +
STACK CFI 17734 .cfa: sp 32 +
STACK CFI 1773c .cfa: sp 0 +
STACK CFI INIT 17740 80 .cfa: sp 0 +
STACK CFI 17744 .cfa: sp 48 +
STACK CFI 17750 .cfa: x29 48 + x19: .cfa -8 + ^ x20: .cfa -16 + ^ x21: .cfa -24 + ^ x22: .cfa -32 + ^ .ra: .cfa -40 + ^ x29: .cfa -48 + ^
STACK CFI 17768 .cfa: sp 48 +
STACK CFI 17774 .cfa: sp 0 +
STACK CFI 17778 .cfa: x29 48 +
STACK CFI 177a8 .cfa: sp 48 +
STACK CFI 177b4 .cfa: sp 0 +
STACK CFI 177b8 .cfa: x29 48 +
STACK CFI INIT 177c0 4 .cfa: sp 0 +
STACK CFI INIT 17928 5c .cfa: sp 0 +
STACK CFI 1792c .cfa: sp 32 +
STACK CFI 17934 .cfa: x29 32 + x19: .cfa -16 + ^ .ra: .cfa -24 + ^ x29: .cfa -32 + ^
STACK CFI 17978 .cfa: sp 32 +
STACK CFI 17980 .cfa: sp 0 +
STACK CFI INIT 17984 64 .cfa: sp 0 +
STACK CFI 17988 .cfa: sp 32 +
STACK CFI 17990 .cfa: x29 32 + x19: .cfa -16 + ^ .ra: .cfa -24 + ^ x29: .cfa -32 + ^
STACK CFI 179dc .cfa: sp 32 +
STACK CFI 179e4 .cfa: sp 0 +
STACK CFI INIT 179e8 4 .cfa: sp 0 +
STACK CFI INIT 179ec 4 .cfa: sp 0 +
STACK CFI INIT 179f0 34 .cfa: sp 0 +
STACK CFI 179f4 .cfa: sp 32 +
STACK CFI 179fc .cfa: x29 32 + x19: .cfa -16 + ^ .ra: .cfa -24 + ^ x29: .cfa -32 + ^
STACK CFI 17a18 .cfa: sp 32 +
STACK CFI 17a20 .cfa: sp 0 +
STACK CFI INIT 17a24 14 .cfa: sp 0 +
STACK CFI INIT 17a38 4 .cfa: sp 0 +
STACK CFI INIT 17a3c 4 .cfa: sp 0 +
STACK CFI INIT 17a40 10 .cfa: sp 0 +
STACK CFI INIT 17a50 1c .cfa: sp 0 +
STACK CFI INIT 17a6c c .cfa: sp 0 +
STACK CFI INIT 17e7c 50 .cfa: sp 0 +
STACK CFI 17e80 .cfa: sp 32 +
STACK CFI 17e88 .cfa: x29 32 + x19: .cfa -16 + ^ .ra: .cfa -24 + ^ x29: .cfa -32 + ^
STACK CFI 17ea0 .cfa: sp 32 +
STACK CFI 17ea8 .cfa: sp 0 +
STACK CFI 17eac .cfa: x29 32 +
STACK CFI 17ec0 .cfa: sp 32 +
STACK CFI 17ec8 .cfa: sp 0 +
STACK CFI INIT 17f40 7c .cfa: sp 0 +
STACK CFI 17f44 .cfa: sp 48 +
STACK CFI 17f50 .cfa: x29 48 + x19: .cfa -8 + ^ x20: .cfa -16 + ^ x21: .cfa -32 + ^ .ra: .cfa -40 + ^ x29: .cfa -48 + ^
STACK CFI 17f9c .cfa: sp 48 +
STACK CFI 17fa8 .cfa: sp 0 +
STACK CFI 17fac .cfa: sp 48 +
STACK CFI 17fb8 .cfa: sp 0 +
STACK CFI INIT 17fbc 4 .cfa: sp 0 +
STACK CFI INIT 18438 34 .cfa: sp 0 +
STACK CFI 1843c .cfa: sp 16 +
STACK CFI 18440 .cfa: x29 16 + .ra: .cfa -8 + ^ x29: .cfa -16 + ^
STACK CFI INIT 1846c 80 .cfa: sp 0 +
STACK CFI 18470 .cfa: sp 48 +
STACK CFI 1847c .cfa: x29 48 + x19: .cfa -8 + ^ x20: .cfa -16 + ^ x21: .cfa -32 + ^ .ra: .cfa -40 + ^ x29: .cfa -48 + ^
STACK CFI 184dc .cfa: sp 48 +
STACK CFI 184e8 .cfa: sp 0 +
STACK CFI INIT 184ec 24 .cfa: sp 0 +
STACK CFI 184f0 .cfa: sp 32 +
STACK CFI 184f8 .cfa: x29 32 + x19: .cfa -16 + ^ .ra: .cfa -24 + ^ x29: .cfa -32 + ^
STACK CFI 18504 .cfa: sp 32 +
STACK CFI 1850c .cfa: sp 0 +
STACK CFI INIT 18ab8 68 .cfa: sp 0 +
STACK CFI 18abc .cfa: sp 32 +
STACK CFI 18ac4 .cfa: x29 32 + x19: .cfa -8 + ^ x20: .cfa -16 + ^ .ra: .cfa -24 + ^ x29: .cfa -32 + ^
STACK CFI 18adc .cfa: sp 32 +
STACK CFI 18ae4 .cfa: sp 0 +
STACK CFI 18ae8 .cfa: x29 32 +
STACK CFI 18b14 .cfa: sp 32 +
STACK CFI 18b1c .cfa: sp 0 +
STACK CFI INIT 18b20 14 .cfa: sp 0 +
STACK CFI 18b24 .cfa: sp 16 +
STACK CFI 18b28 .cfa: x29 16 + .ra: .cfa -8 + ^ x29: .cfa -16 + ^
STACK CFI INIT 18b34 4 .cfa: sp 0 +
STACK CFI INIT 18b38 14 .cfa: sp 0 +
STACK CFI INIT 18b4c 120 .cfa: sp 0 +
STACK CFI 18b50 .cfa: sp 64 +
STACK CFI 18b60 .cfa: x29 64 + x19: .cfa -8 + ^ x20: .cfa -16 + ^ x21: .cfa -24 + ^ x22: .cfa -32 + ^ x23: .cfa -40 + ^ x24: .cfa -48 + ^ .ra: .cfa -56 + ^ x29: .cfa -64 + ^
STACK CFI 18c58 .cfa: sp 64 +
STACK CFI 18c68 .cfa: sp 0 +
STACK CFI INIT 18c6c 4a4 .cfa: sp 0 +
STACK CFI 18c70 .cfa: sp 32 +
STACK CFI 18c78 .cfa: x29 32 + x19: .cfa -8 + ^ x20: .cfa -16 + ^ .ra: .cfa -24 + ^ x29: .cfa -32 + ^
STACK CFI 19058 .cfa: sp 32 +
STACK CFI 19060 .cfa: sp 0 +
STACK CFI 19064 .cfa: x29 32 +
STACK CFI INIT 19110 84 .cfa: sp 0 +
STACK CFI 19118 .cfa: sp 32 +
STACK CFI 19120 .cfa: x29 32 + x19: .cfa -8 + ^ x20: .cfa -16 + ^ .ra: .cfa -24 + ^ x29: .cfa -32 + ^
STACK CFI 19160 .cfa: sp 32 +
STACK CFI 19168 .cfa: sp 0 +
STACK CFI 19170 .cfa: x29 32 +
STACK CFI INIT 1a210 50 .cfa: sp 0 +
STACK CFI 1a214 .cfa: sp 32 +
STACK CFI 1a21c .cfa: x29 32 + x19: .cfa -16 + ^ .ra: .cfa -24 + ^ x29: .cfa -32 + ^
STACK CFI 1a234 .cfa: sp 32 +
STACK CFI 1a23c .cfa: sp 0 +
STACK CFI 1a240 .cfa: x29 32 +
STACK CFI 1a254 .cfa: sp 32 +
STACK CFI 1a25c .cfa: sp 0 +
STACK CFI INIT 1a260 64 .cfa: sp 0 +
STACK CFI 1a264 .cfa: sp 32 +
STACK CFI 1a26c .cfa: x29 32 + x19: .cfa -16 + ^ .ra: .cfa -24 + ^ x29: .cfa -32 + ^
STACK CFI 1a298 .cfa: sp 32 +
STACK CFI 1a2a0 .cfa: sp 0 +
STACK CFI 1a2a4 .cfa: x29 32 +
STACK CFI 1a2b8 .cfa: sp 32 +
STACK CFI 1a2c0 .cfa: sp 0 +
STACK CFI INIT 1ad7c 108 .cfa: sp 0 +
STACK CFI 1ad80 .cfa: sp 32 +
STACK CFI 1ad88 .cfa: x29 32 + x19: .cfa -8 + ^ x20: .cfa -16 + ^ .ra: .cfa -24 + ^ x29: .cfa -32 + ^
STACK CFI 1ada8 .cfa: sp 32 +
STACK CFI 1adb0 .cfa: sp 0 +
STACK CFI 1adb4 .cfa: x29 32 +
STACK CFI 1ae78 .cfa: sp 32 +
STACK CFI 1ae80 .cfa: sp 0 +
STACK CFI INIT 1ae84 f0 .cfa: sp 0 +
STACK CFI 1ae88 .cfa: sp 48 +
STACK CFI 1ae94 .cfa: x29 48 + x19: .cfa -8 + ^ x20: .cfa -16 + ^ x21: .cfa -32 + ^ .ra: .cfa -40 + ^ x29: .cfa -48 + ^
STACK CFI 1af64 .cfa: sp 48 +
STACK CFI 1af70 .cfa: sp 0 +
STACK CFI INIT 1af74 44 .cfa: sp 0 +
STACK CFI 1af78 .cfa: sp 32 +
STACK CFI 1af80 .cfa: x29 32 + x19: .cfa -16 + ^ .ra: .cfa -24 + ^ x29: .cfa -32 + ^
STACK CFI 1af9c .cfa: sp 32 +
STACK CFI 1afa4 .cfa: sp 0 +
STACK CFI 1afa8 .cfa: x29 32 +
STACK CFI 1afac .cfa: sp 32 +
STACK CFI 1afb4 .cfa: sp 0 +
STACK CFI INIT 1afb8 7c .cfa: sp 0 +
STACK CFI 1afbc .cfa: sp 32 +
STACK CFI 1afc4 .cfa: x29 32 + x19: .cfa -8 + ^ x20: .cfa -16 + ^ .ra: .cfa -24 + ^ x29: .cfa -32 + ^
STACK CFI 1b028 .cfa: sp 32 +
STACK CFI 1b030 .cfa: sp 0 +
STACK CFI INIT 1b788 14 .cfa: sp 0 +
STACK CFI 1b78c .cfa: sp 16 +
STACK CFI 1b790 .cfa: x29 16 + .ra: .cfa -8 + ^ x29: .cfa -16 + ^
STACK CFI INIT 1b79c 14 .cfa: sp 0 +
STACK CFI 1b7a0 .cfa: sp 16 +
STACK CFI 1b7a4 .cfa: x29 16 + .ra: .cfa -8 + ^ x29: .cfa -16 + ^
STACK CFI INIT 1b7b0 14 .cfa: sp 0 +
STACK CFI 1b7b4 .cfa: sp 16 +
STACK CFI 1b7b8 .cfa: x29 16 + .ra: .cfa -8 + ^ x29: .cfa -16 + ^
STACK CFI INIT 1b814 30 .cfa: sp 0 +
STACK CFI 1b818 .cfa: sp 32 +
STACK CFI 1b820 .cfa: x29 32 + x19: .cfa -16 + ^ .ra: .cfa -24 + ^ x29: .cfa -32 + ^
STACK CFI 1b838 .cfa: sp 32 +
STACK CFI 1b840 .cfa: sp 0 +
STACK CFI INIT 1b844 14 .cfa: sp 0 +
STACK CFI 1b848 .cfa: sp 16 +
STACK CFI 1b84c .cfa: x29 16 + .ra: .cfa -8 + ^ x29: .cfa -16 + ^
STACK CFI INIT 1b858 4 .cfa: sp 0 +
STACK CFI INIT 1b85c 4 .cfa: sp 0 +
STACK CFI INIT 1b860 38 .cfa: sp 0 +
STACK CFI 1b864 .cfa: sp 32 +
STACK CFI 1b86c .cfa: x29 32 + x19: .cfa -16 + ^ .ra: .cfa -24 + ^ x29: .cfa -32 + ^
STACK CFI 1b88c .cfa: sp 32 +
STACK CFI 1b894 .cfa: sp 0 +
STACK CFI INIT 1b898 18 .cfa: sp 0 +
STACK CFI INIT 1b8b0 4 .cfa: sp 0 +
STACK CFI INIT 1b8b4 4 .cfa: sp 0 +
STACK CFI INIT 1b8b8 10 .cfa: sp 0 +
STACK CFI INIT 1b8c8 1c .cfa: sp 0 +
STACK CFI INIT 1b8e4 c .cfa: sp 0 +
STACK CFI INIT 1b8f0 3c0 .cfa: sp 0 +
STACK CFI 1b8f4 .cfa: sp 64 +
STACK CFI 1b904 .cfa: x29 64 + x19: .cfa -8 + ^ x20: .cfa -16 + ^ x21: .cfa -24 + ^ x22: .cfa -32 + ^ x23: .cfa -40 + ^ x24: .cfa -48 + ^ .ra: .cfa -56 + ^ x29: .cfa -64 + ^
STACK CFI 1bc84 .cfa: sp 64 +
STACK CFI 1bc94 .cfa: sp 0 +
STACK CFI 1bc98 .cfa: x29 64 +
STACK CFI 1bc9c .cfa: sp 64 +
STACK CFI 1bcac .cfa: sp 0 +
STACK CFI INIT 1bcb0 14 .cfa: sp 0 +
STACK CFI 1bcb4 .cfa: sp 16 +
STACK CFI 1bcb8 .cfa: x29 16 + .ra: .cfa -8 + ^ x29: .cfa -16 + ^
STACK CFI INIT 1bcc4 8 .cfa: sp 0 +
STACK CFI INIT 1bccc 24 .cfa: sp 0 +
STACK CFI 1bcd0 .cfa: sp 32 +
STACK CFI 1bcd8 .cfa: x29 32 + x19: .cfa -16 + ^ .ra: .cfa -24 + ^ x29: .cfa -32 + ^
STACK CFI 1bce4 .cfa: sp 32 +
STACK CFI 1bcec .cfa: sp 0 +
STACK CFI INIT 1bcf0 4 .cfa: sp 0 +
STACK CFI INIT 1bcf4 278 .cfa: sp 0 +
STACK CFI 1bcf8 .cfa: sp 96 +
STACK CFI 1bd10 .cfa: x29 64 + x19: .cfa -8 + ^ x20: .cfa -16 + ^ x21: .cfa -24 + ^ x22: .cfa -32 + ^ x23: .cfa -48 + ^ .ra: .cfa -56 + ^ x29: .cfa -64 + ^ v8: .cfa -72 + ^ v9: .cfa -80 + ^
STACK CFI 1bf4c .cfa: sp 96 +
STACK CFI 1bf64 .cfa: sp 0 +
STACK CFI 1bf68 .cfa: x29 64 +
STACK CFI INIT 1bf6c 14 .cfa: sp 0 +
STACK CFI 1bf70 .cfa: sp 16 +
STACK CFI 1bf74 .cfa: x29 16 + .ra: .cfa -8 + ^ x29: .cfa -16 + ^
STACK CFI INIT 1bf80 24 .cfa: sp 0 +
STACK CFI 1bf84 .cfa: sp 32 +
STACK CFI 1bf8c .cfa: x29 32 + x19: .cfa -16 + ^ .ra: .cfa -24 + ^ x29: .cfa -32 + ^
STACK CFI 1bf98 .cfa: sp 32 +
STACK CFI 1bfa0 .cfa: sp 0 +
STACK CFI INIT 1c064 168 .cfa: sp 0 +
STACK CFI 1c068 .cfa: sp 80 +
STACK CFI 1c07c .cfa: x29 80 + x19: .cfa -8 + ^ x20: .cfa -16 + ^ x21: .cfa -24 + ^ x22: .cfa -32 + ^ x23: .cfa -40 + ^ x24: .cfa -48 + ^ x25: .cfa -56 + ^ x26: .cfa -64 + ^ .ra: .cfa -72 + ^ x29: .cfa -80 + ^
STACK CFI 1c1b4 .cfa: sp 80 +
STACK CFI 1c1c8 .cfa: sp 0 +
STACK CFI INIT 1c518 4 .cfa: sp 0 +
STACK CFI INIT 1cce4 14 .cfa: sp 0 +
STACK CFI INIT 1ccf8 ac .cfa: sp 0 +
STACK CFI 1ccfc .cfa: sp 64 +
STACK CFI 1cd0c .cfa: x29 64 + x19: .cfa -8 + ^ x20: .cfa -16 + ^ x21: .cfa -24 + ^ x22: .cfa -32 + ^ x23: .cfa -48 + ^ .ra: .cfa -56 + ^ x29: .cfa -64 + ^
STACK CFI 1cd88 .cfa: sp 64 +
STACK CFI 1cd98 .cfa: sp 0 +
STACK CFI 1cd9c .cfa: x29 64 +
STACK CFI INIT 1cda4 110 .cfa: sp 0 +
STACK CFI 1cda8 .cfa: sp 64 +
STACK CFI 1cdb8 .cfa: x29 64 + x19: .cfa -8 + ^ x20: .cfa -16 + ^ x21: .cfa -24 + ^ x22: .cfa -32 + ^ x23: .cfa -40 + ^ x24: .cfa -48 + ^ .ra: .cfa -56 + ^ x29: .cfa -64 + ^
STACK CFI 1ce98 .cfa: sp 64 +
STACK CFI 1cea8 .cfa: sp 0 +
STACK CFI 1ceac .cfa: x29 64 +
STACK CFI INIT 1d08c 1d0 .cfa: sp 0 +
STACK CFI 1d090 .cfa: sp 80 +
STACK CFI 1d0a4 .cfa: x29 80 + x19: .cfa -8 + ^ x20: .cfa -16 + ^ x21: .cfa -24 + ^ x22: .cfa -32 + ^ x23: .cfa -40 + ^ x24: .cfa -48 + ^ x25: .cfa -64 + ^ .ra: .cfa -72 + ^ x29: .cfa -80 + ^
STACK CFI 1d168 .cfa: sp 80 +
STACK CFI 1d17c .cfa: sp 0 +
STACK CFI 1d180 .cfa: x29 80 +
STACK CFI 1d244 .cfa: sp 80 +
STACK CFI 1d258 .cfa: sp 0 +
STACK CFI INIT 20e8c 50 .cfa: sp 0 +
STACK CFI 20e90 .cfa: sp 32 +
STACK CFI 20e98 .cfa: x29 32 + x19: .cfa -8 + ^ x20: .cfa -16 + ^ .ra: .cfa -24 + ^ x29: .cfa -32 + ^
STACK CFI 20ed0 .cfa: sp 32 +
STACK CFI 20ed8 .cfa: sp 0 +
STACK CFI INIT 23230 98 .cfa: sp 0 +
STACK CFI 23234 .cfa: sp 48 +
STACK CFI 23240 .cfa: x29 48 + x19: .cfa -8 + ^ x20: .cfa -16 + ^ x21: .cfa -32 + ^ .ra: .cfa -40 + ^ x29: .cfa -48 + ^
STACK CFI 23260 .cfa: sp 48 +
STACK CFI 2326c .cfa: sp 0 +
STACK CFI 23270 .cfa: x29 48 +
STACK CFI 232a8 .cfa: sp 48 +
STACK CFI 232b4 .cfa: sp 0 +
STACK CFI 232b8 .cfa: sp 48 +
STACK CFI 232c4 .cfa: sp 0 +
STACK CFI INIT 232c8 98 .cfa: sp 0 +
STACK CFI 232cc .cfa: sp 48 +
STACK CFI 232d8 .cfa: x29 48 + x19: .cfa -8 + ^ x20: .cfa -16 + ^ x21: .cfa -32 + ^ .ra: .cfa -40 + ^ x29: .cfa -48 + ^
STACK CFI 232f8 .cfa: sp 48 +
STACK CFI 23304 .cfa: sp 0 +
STACK CFI 23308 .cfa: x29 48 +
STACK CFI 23340 .cfa: sp 48 +
STACK CFI 2334c .cfa: sp 0 +
STACK CFI 23350 .cfa: sp 48 +
STACK CFI 2335c .cfa: sp 0 +
STACK CFI INIT 23360 50 .cfa: sp 0 +
STACK CFI 23364 .cfa: sp 32 +
STACK CFI 2336c .cfa: x29 32 + x19: .cfa -8 + ^ x20: .cfa -16 + ^ .ra: .cfa -24 + ^ x29: .cfa -32 + ^
STACK CFI 233a4 .cfa: sp 32 +
STACK CFI 233ac .cfa: sp 0 +
STACK CFI INIT 233b0 f0 .cfa: sp 0 +
STACK CFI 233c0 .cfa: sp 48 +
STACK CFI 233cc .cfa: x29 48 + x19: .cfa -8 + ^ x20: .cfa -16 + ^ x21: .cfa -32 + ^ .ra: .cfa -40 + ^ x29: .cfa -48 + ^
STACK CFI 23490 .cfa: sp 48 +
STACK CFI 2349c .cfa: sp 0 +
STACK CFI INIT 234a0 17c .cfa: sp 0 +
STACK CFI 234a4 .cfa: sp 80 +
STACK CFI 234b8 .cfa: x29 80 + x19: .cfa -8 + ^ x20: .cfa -16 + ^ x21: .cfa -24 + ^ x22: .cfa -32 + ^ x23: .cfa -40 + ^ x24: .cfa -48 + ^ x25: .cfa -64 + ^ .ra: .cfa -72 + ^ x29: .cfa -80 + ^
STACK CFI 235ec .cfa: sp 80 +
STACK CFI 23600 .cfa: sp 0 +
STACK CFI 23604 .cfa: sp 80 +
STACK CFI 23618 .cfa: sp 0 +
STACK CFI INIT 2361c 50 .cfa: sp 0 +
STACK CFI 23624 .cfa: sp 32 +
STACK CFI 2362c .cfa: x29 32 + x19: .cfa -16 + ^ .ra: .cfa -24 + ^ x29: .cfa -32 + ^
STACK CFI 2365c .cfa: sp 32 +
STACK CFI 23664 .cfa: sp 0 +
STACK CFI INIT 2366c 30 .cfa: sp 0 +
STACK CFI INIT 23870 14 .cfa: sp 0 +
STACK CFI 23874 .cfa: sp 16 +
STACK CFI 23878 .cfa: x29 16 + .ra: .cfa -8 + ^ x29: .cfa -16 + ^
STACK CFI INIT 23884 90 .cfa: sp 0 +
STACK CFI 23888 .cfa: sp 48 +
STACK CFI 23894 .cfa: x29 48 + x19: .cfa -8 + ^ x20: .cfa -16 + ^ x21: .cfa -32 + ^ .ra: .cfa -40 + ^ x29: .cfa -48 + ^
STACK CFI 238ec .cfa: sp 48 +
STACK CFI 238f8 .cfa: sp 0 +
STACK CFI 238fc .cfa: x29 48 +
STACK CFI 23904 .cfa: sp 48 +
STACK CFI 23910 .cfa: sp 0 +
STACK CFI INIT 242e0 188 .cfa: sp 0 +
STACK CFI 242e4 .cfa: sp 80 +
STACK CFI 242f8 .cfa: x29 80 + x19: .cfa -8 + ^ x20: .cfa -16 + ^ x21: .cfa -24 + ^ x22: .cfa -32 + ^ x23: .cfa -40 + ^ x24: .cfa -48 + ^ x25: .cfa -64 + ^ .ra: .cfa -72 + ^ x29: .cfa -80 + ^
STACK CFI 2444c .cfa: sp 80 +
STACK CFI 24460 .cfa: sp 0 +
STACK CFI 24464 .cfa: x29 80 +
STACK CFI INIT 24468 18c .cfa: sp 0 +
STACK CFI 2446c .cfa: sp 64 +
STACK CFI 2447c .cfa: x29 64 + x19: .cfa -8 + ^ x20: .cfa -16 + ^ x21: .cfa -24 + ^ x22: .cfa -32 + ^ x23: .cfa -40 + ^ x24: .cfa -48 + ^ .ra: .cfa -56 + ^ x29: .cfa -64 + ^
STACK CFI 245dc .cfa: sp 64 +
STACK CFI 245ec .cfa: sp 0 +
STACK CFI 245f0 .cfa: x29 64 +
STACK CFI INIT 247cc 54 .cfa: sp 0 +
STACK CFI 247d0 .cfa: sp 32 +
STACK CFI 247d8 .cfa: x29 32 + x19: .cfa -16 + ^ .ra: .cfa -24 + ^ x29: .cfa -32 + ^
STACK CFI 24808 .cfa: sp 32 +
STACK CFI 24810 .cfa: sp 0 +
STACK CFI 24814 .cfa: sp 32 +
STACK CFI 2481c .cfa: sp 0 +
STACK CFI INIT 24e3c 168 .cfa: sp 0 +
STACK CFI 24e40 .cfa: sp 48 +
STACK CFI 24e4c .cfa: x29 48 + x19: .cfa -8 + ^ x20: .cfa -16 + ^ x21: .cfa -24 + ^ x22: .cfa -32 + ^ .ra: .cfa -40 + ^ x29: .cfa -48 + ^
STACK CFI 24f88 .cfa: sp 48 +
STACK CFI 24f94 .cfa: sp 0 +
STACK CFI 24f98 .cfa: x29 48 +
STACK CFI INIT 25098 7c .cfa: sp 0 +
STACK CFI 2509c .cfa: sp 48 +
STACK CFI 250a8 .cfa: x29 48 + x19: .cfa -8 + ^ x20: .cfa -16 + ^ x21: .cfa -24 + ^ x22: .cfa -32 + ^ .ra: .cfa -40 + ^ x29: .cfa -48 + ^
STACK CFI 250f4 .cfa: sp 48 +
STACK CFI 25100 .cfa: sp 0 +
STACK CFI 25104 .cfa: sp 48 +
STACK CFI 25110 .cfa: sp 0 +
STACK CFI INIT 25114 14 .cfa: sp 0 +
STACK CFI 25118 .cfa: sp 16 +
STACK CFI 2511c .cfa: x29 16 + .ra: .cfa -8 + ^ x29: .cfa -16 + ^
STACK CFI INIT 25128 64 .cfa: sp 0 +
STACK CFI 25138 .cfa: sp 32 +
STACK CFI 25140 .cfa: x29 32 + x19: .cfa -8 + ^ x20: .cfa -16 + ^ .ra: .cfa -24 + ^ x29: .cfa -32 + ^
STACK CFI 25180 .cfa: sp 32 +
STACK CFI 25188 .cfa: sp 0 +
STACK CFI INIT 252bc a8 .cfa: sp 0 +
STACK CFI 252c0 .cfa: sp 48 +
STACK CFI 252cc .cfa: x29 48 + x19: .cfa -8 + ^ x20: .cfa -16 + ^ x21: .cfa -24 + ^ x22: .cfa -32 + ^ .ra: .cfa -40 + ^ x29: .cfa -48 + ^
STACK CFI 252d4 .cfa: sp 48 +
STACK CFI 252e0 .cfa: sp 0 +
STACK CFI 252e4 .cfa: x29 48 +
STACK CFI 25308 .cfa: sp 48 +
STACK CFI 25314 .cfa: sp 0 +
STACK CFI 25318 .cfa: x29 48 +
STACK CFI 25354 .cfa: sp 48 +
STACK CFI 25360 .cfa: sp 0 +
STACK CFI INIT 25364 64 .cfa: sp 0 +
STACK CFI 25374 .cfa: sp 32 +
STACK CFI 2537c .cfa: x29 32 + x19: .cfa -8 + ^ x20: .cfa -16 + ^ .ra: .cfa -24 + ^ x29: .cfa -32 + ^
STACK CFI 253bc .cfa: sp 32 +
STACK CFI 253c4 .cfa: sp 0 +
STACK CFI INIT 25aac a0 .cfa: sp 0 +
STACK CFI 25ab4 .cfa: sp 48 +
STACK CFI 25ac0 .cfa: x29 48 + x19: .cfa -8 + ^ x20: .cfa -16 + ^ x21: .cfa -32 + ^ .ra: .cfa -40 + ^ x29: .cfa -48 + ^
STACK CFI 25b28 .cfa: sp 0 + x19: x19 x20: x20 x21: x21 .ra: x30 x29: x29
STACK CFI 25b2c .cfa: x29 48 + x19: .cfa -8 + ^ x20: .cfa -16 + ^ x21: .cfa -32 + ^ .ra: .cfa -40 + ^ x29: .cfa -48 + ^
STACK CFI 25b3c .cfa: sp 48 +
STACK CFI 25b48 .cfa: sp 0 +
STACK CFI INIT 25b4c a8 .cfa: sp 0 +
STACK CFI 25b50 .cfa: sp 192 +
STACK CFI 25b5c .cfa: x29 32 + x19: .cfa -8 + ^ x20: .cfa -16 + ^ .ra: .cfa -24 + ^ x29: .cfa -32 + ^
STACK CFI 25be0 .cfa: sp 192 +
STACK CFI 25bec .cfa: sp 0 +
STACK CFI 25bf0 .cfa: x29 32 +
STACK CFI INIT 37158 8 .cfa: sp 0 +
STACK CFI INIT 37304 a0 .cfa: sp 0 +
STACK CFI 37308 .cfa: sp 48 +
STACK CFI 37314 .cfa: x29 48 + x19: .cfa -8 + ^ x20: .cfa -16 + ^ x21: .cfa -32 + ^ .ra: .cfa -40 + ^ x29: .cfa -48 + ^
STACK CFI 37374 .cfa: sp 48 +
STACK CFI 37380 .cfa: sp 0 +
STACK CFI 37384 .cfa: x29 48 +
STACK CFI 37394 .cfa: sp 48 +
STACK CFI 373a0 .cfa: sp 0 +
STACK CFI INIT 370ac ac .cfa: sp 0 +
STACK CFI 370b0 .cfa: sp 192 +
STACK CFI 370bc .cfa: x29 32 + x19: .cfa -8 + ^ x20: .cfa -16 + ^ .ra: .cfa -24 + ^ x29: .cfa -32 + ^
STACK CFI 37144 .cfa: sp 192 +
STACK CFI 37150 .cfa: sp 0 +
STACK CFI 37154 .cfa: x29 32 +
STACK CFI INIT 373a4 3c .cfa: sp 0 +
STACK CFI 373a8 .cfa: sp 32 +
STACK CFI 373b0 .cfa: x29 32 + x19: .cfa -16 + ^ .ra: .cfa -24 + ^ x29: .cfa -32 + ^
STACK CFI 373bc .cfa: sp 32 +
STACK CFI 373c4 .cfa: sp 0 +
STACK CFI 373c8 .cfa: x29 32 +
STACK CFI 373d4 .cfa: sp 32 +
STACK CFI 373dc .cfa: sp 0 +
STACK CFI INIT 373e0 c .cfa: sp 0 +
STACK CFI INIT 373ec 24c .cfa: sp 0 +
STACK CFI INIT 37638 a0 .cfa: sp 0 +
STACK CFI 37644 .cfa: sp 32 +
STACK CFI 3769c .cfa: sp 0 +
STACK CFI 376a0 .cfa: sp 32 +
STACK CFI 376a8 .cfa: sp 0 +
STACK CFI 376ac .cfa: sp 32 +
STACK CFI 376c0 .cfa: sp 0 +
STACK CFI 376c4 .cfa: sp 32 +
STACK CFI 376d4 .cfa: sp 0 +
STACK CFI INIT 376d8 38 .cfa: sp 0 +
STACK CFI 376e4 .cfa: sp 32 +
STACK CFI 3770c .cfa: sp 0 +
STACK CFI INIT 379a4 7c .cfa: sp 0 +
STACK CFI 379a8 .cfa: sp 32 +
STACK CFI 379b0 .cfa: x29 32 + x19: .cfa -16 + ^ .ra: .cfa -24 + ^ x29: .cfa -32 + ^
STACK CFI 379dc .cfa: sp 32 +
STACK CFI 379e4 .cfa: sp 0 +
STACK CFI 379e8 .cfa: x29 32 +
STACK CFI 37a14 .cfa: sp 32 +
STACK CFI 37a1c .cfa: sp 0 +
STACK CFI INIT 37a70 2c .cfa: sp 0 +
STACK CFI 37a74 .cfa: sp 32 +
STACK CFI 37a7c .cfa: x29 32 + x19: .cfa -16 + ^ .ra: .cfa -24 + ^ x29: .cfa -32 + ^
STACK CFI 37a90 .cfa: sp 32 +
STACK CFI 37a98 .cfa: sp 0 +
STACK CFI INIT 3825c 64 .cfa: sp 0 +
STACK CFI 38260 .cfa: sp 32 +
STACK CFI 38268 .cfa: x29 32 + x19: .cfa -16 + ^ .ra: .cfa -24 + ^ x29: .cfa -32 + ^
STACK CFI 38284 .cfa: sp 32 +
STACK CFI 3828c .cfa: sp 0 +
STACK CFI 38290 .cfa: x29 32 +
STACK CFI 382b4 .cfa: sp 32 +
STACK CFI 382bc .cfa: sp 0 +
STACK CFI INIT 383fc 570 .cfa: sp 0 +
STACK CFI 38400 .cfa: sp 176 +
STACK CFI 38414 .cfa: x29 64 + x19: .cfa -8 + ^ x20: .cfa -16 + ^ x21: .cfa -24 + ^ x22: .cfa -32 + ^ x23: .cfa -40 + ^ x24: .cfa -48 + ^ .ra: .cfa -56 + ^ x29: .cfa -64 + ^
STACK CFI 38644 .cfa: sp 176 +
STACK CFI 38658 .cfa: sp 0 +
STACK CFI 3865c .cfa: x29 64 +
STACK CFI 386a8 .cfa: sp 176 +
STACK CFI 386bc .cfa: sp 0 +
STACK CFI 386c0 .cfa: x29 64 +
STACK CFI 386f8 .cfa: sp 176 +
STACK CFI 3870c .cfa: sp 0 +
STACK CFI 38710 .cfa: x29 64 +
STACK CFI 38728 .cfa: sp 176 +
STACK CFI 3873c .cfa: sp 0 +
STACK CFI 38740 .cfa: x29 64 +
STACK CFI 38760 .cfa: sp 176 +
STACK CFI 38774 .cfa: sp 0 +
STACK CFI 38778 .cfa: x29 64 +
STACK CFI 38790 .cfa: sp 176 +
STACK CFI 387a4 .cfa: sp 0 +
STACK CFI 387a8 .cfa: x29 64 +
STACK CFI 387bc .cfa: sp 176 +
STACK CFI 387d0 .cfa: sp 0 +
STACK CFI 387d4 .cfa: x29 64 +
STACK CFI 387e8 .cfa: sp 176 +
STACK CFI 387fc .cfa: sp 0 +
STACK CFI 38800 .cfa: x29 64 +
STACK CFI 38810 .cfa: sp 176 +
STACK CFI 38824 .cfa: sp 0 +
STACK CFI 38828 .cfa: x29 64 +
STACK CFI 38838 .cfa: sp 176 +
STACK CFI 3884c .cfa: sp 0 +
STACK CFI 38850 .cfa: x29 64 +
STACK CFI 38868 .cfa: sp 176 +
STACK CFI 3887c .cfa: sp 0 +
STACK CFI 38880 .cfa: x29 64 +
STACK CFI 38894 .cfa: sp 176 +
STACK CFI 388a8 .cfa: sp 0 +
STACK CFI 388ac .cfa: x29 64 +
STACK CFI 388c4 .cfa: sp 176 +
STACK CFI 388d8 .cfa: sp 0 +
STACK CFI 388dc .cfa: x29 64 +
STACK CFI 38908 .cfa: sp 176 +
STACK CFI 3891c .cfa: sp 0 +
STACK CFI 38920 .cfa: x29 64 +
STACK CFI 38934 .cfa: sp 176 +
STACK CFI 38948 .cfa: sp 0 +
STACK CFI 3894c .cfa: x29 64 +
STACK CFI INIT 3896c 228 .cfa: sp 0 +
STACK CFI INIT 38b94 2dc .cfa: sp 0 +
STACK CFI INIT 38e70 53c .cfa: sp 0 +
STACK CFI INIT 393ac 78 .cfa: sp 0 +
STACK CFI 393b0 .cfa: sp 48 +
STACK CFI 393bc .cfa: x29 48 + x19: .cfa -8 + ^ x20: .cfa -16 + ^ x21: .cfa -24 + ^ x22: .cfa -32 + ^ .ra: .cfa -40 + ^ x29: .cfa -48 + ^
STACK CFI 39404 .cfa: sp 48 +
STACK CFI 39410 .cfa: sp 0 +
STACK CFI 39414 .cfa: sp 48 +
STACK CFI 39420 .cfa: sp 0 +
STACK CFI INIT 39424 8c .cfa: sp 0 +
STACK CFI 39428 .cfa: sp 32 +
STACK CFI 39430 .cfa: x29 32 + x19: .cfa -16 + ^ .ra: .cfa -24 + ^ x29: .cfa -32 + ^
STACK CFI 39464 .cfa: sp 32 +
STACK CFI 3946c .cfa: sp 0 +
STACK CFI 39470 .cfa: x29 32 +
STACK CFI 394a4 .cfa: sp 32 +
STACK CFI 394ac .cfa: sp 0 +
STACK CFI INIT 394b0 24 .cfa: sp 0 +
STACK CFI 394b4 .cfa: sp 32 +
STACK CFI 394bc .cfa: x29 32 + x19: .cfa -16 + ^ .ra: .cfa -24 + ^ x29: .cfa -32 + ^
STACK CFI 394c8 .cfa: sp 32 +
STACK CFI 394d0 .cfa: sp 0 +
STACK CFI INIT 394d4 150 .cfa: sp 0 +
STACK CFI 394d8 .cfa: sp 48 +
STACK CFI 394e4 .cfa: x29 48 + x19: .cfa -8 + ^ x20: .cfa -16 + ^ x21: .cfa -24 + ^ x22: .cfa -32 + ^ .ra: .cfa -40 + ^ x29: .cfa -48 + ^
STACK CFI 39614 .cfa: sp 48 +
STACK CFI 39620 .cfa: sp 0 +
STACK CFI INIT 39624 68 .cfa: sp 0 +
STACK CFI 39628 .cfa: sp 64 +
STACK CFI 39634 .cfa: x29 32 + x19: .cfa -16 + ^ .ra: .cfa -24 + ^ x29: .cfa -32 + ^
STACK CFI 39678 .cfa: sp 64 +
STACK CFI 39684 .cfa: sp 0 +
STACK CFI 39688 .cfa: x29 32 +
STACK CFI INIT 3968c 90 .cfa: sp 0 +
STACK CFI 39690 .cfa: sp 32 +
STACK CFI 39698 .cfa: x29 32 + x19: .cfa -8 + ^ x20: .cfa -16 + ^ .ra: .cfa -24 + ^ x29: .cfa -32 + ^
STACK CFI 396c4 .cfa: sp 32 +
STACK CFI 396cc .cfa: sp 0 +
STACK CFI 396d0 .cfa: x29 32 +
STACK CFI 39710 .cfa: sp 32 +
STACK CFI 39718 .cfa: sp 0 +
STACK CFI INIT 3971c ec .cfa: sp 0 +
STACK CFI 39720 .cfa: sp 112 +
STACK CFI 39730 .cfa: x29 48 + x19: .cfa -8 + ^ x20: .cfa -16 + ^ x21: .cfa -32 + ^ .ra: .cfa -40 + ^ x29: .cfa -48 + ^
STACK CFI 397f0 .cfa: sp 112 +
STACK CFI 39800 .cfa: sp 0 +
STACK CFI 39804 .cfa: x29 48 +
STACK CFI INIT 39808 ec .cfa: sp 0 +
STACK CFI 3980c .cfa: sp 112 +
STACK CFI 3981c .cfa: x29 48 + x19: .cfa -8 + ^ x20: .cfa -16 + ^ x21: .cfa -32 + ^ .ra: .cfa -40 + ^ x29: .cfa -48 + ^
STACK CFI 398dc .cfa: sp 112 +
STACK CFI 398ec .cfa: sp 0 +
STACK CFI 398f0 .cfa: x29 48 +
STACK CFI INIT 398f4 48 .cfa: sp 0 +
STACK CFI 398f8 .cfa: sp 32 +
STACK CFI 39900 .cfa: x29 32 + x19: .cfa -8 + ^ x20: .cfa -16 + ^ .ra: .cfa -24 + ^ x29: .cfa -32 + ^
STACK CFI 39924 .cfa: sp 32 +
STACK CFI 3992c .cfa: sp 0 +
STACK CFI 39930 .cfa: x29 32 +
STACK CFI INIT 3993c 98 .cfa: sp 0 +
STACK CFI 39940 .cfa: sp 80 +
STACK CFI 3994c .cfa: x29 32 + x19: .cfa -16 + ^ .ra: .cfa -24 + ^ x29: .cfa -32 + ^
STACK CFI 399c0 .cfa: sp 80 +
STACK CFI 399cc .cfa: sp 0 +
STACK CFI 399d0 .cfa: x29 32 +
STACK CFI INIT 399d4 260 .cfa: sp 0 +
STACK CFI 399d8 .cfa: sp 112 +
STACK CFI 399f0 .cfa: x29 80 + x19: .cfa -8 + ^ x20: .cfa -16 + ^ x21: .cfa -24 + ^ x22: .cfa -32 + ^ x23: .cfa -40 + ^ x24: .cfa -48 + ^ x25: .cfa -64 + ^ .ra: .cfa -72 + ^ x29: .cfa -80 + ^
STACK CFI 39bd4 .cfa: sp 112 +
STACK CFI 39bec .cfa: sp 0 +
STACK CFI 39bf0 .cfa: x29 80 +
STACK CFI INIT 39c34 150 .cfa: sp 0 +
STACK CFI 39c38 .cfa: sp 48 +
STACK CFI 39c44 .cfa: x29 48 + x19: .cfa -8 + ^ x20: .cfa -16 + ^ x21: .cfa -24 + ^ x22: .cfa -32 + ^ .ra: .cfa -40 + ^ x29: .cfa -48 + ^
STACK CFI 39d74 .cfa: sp 48 +
STACK CFI 39d80 .cfa: sp 0 +
STACK CFI INIT 39d84 1e0 .cfa: sp 0 +
STACK CFI 39d88 .cfa: sp 96 +
STACK CFI 39d9c .cfa: x29 64 + x19: .cfa -8 + ^ x20: .cfa -16 + ^ x21: .cfa -24 + ^ x22: .cfa -32 + ^ x23: .cfa -40 + ^ x24: .cfa -48 + ^ .ra: .cfa -56 + ^ x29: .cfa -64 + ^
STACK CFI 39f1c .cfa: sp 96 +
STACK CFI 39f30 .cfa: sp 0 +
STACK CFI 39f34 .cfa: x29 64 +
STACK CFI INIT 39f64 284 .cfa: sp 0 +
STACK CFI 39f68 .cfa: sp 112 +
STACK CFI 39f80 .cfa: x29 80 + x19: .cfa -8 + ^ x20: .cfa -16 + ^ x21: .cfa -24 + ^ x22: .cfa -32 + ^ x23: .cfa -40 + ^ x24: .cfa -48 + ^ x25: .cfa -64 + ^ .ra: .cfa -72 + ^ x29: .cfa -80 + ^
STACK CFI 3a188 .cfa: sp 112 +
STACK CFI 3a1a0 .cfa: sp 0 +
STACK CFI 3a1a4 .cfa: x29 80 +
STACK CFI INIT 3a1e8 208 .cfa: sp 0 +
STACK CFI 3a1ec .cfa: sp 96 +
STACK CFI 3a200 .cfa: x29 64 + x19: .cfa -8 + ^ x20: .cfa -16 + ^ x21: .cfa -24 + ^ x22: .cfa -32 + ^ x23: .cfa -40 + ^ x24: .cfa -48 + ^ .ra: .cfa -56 + ^ x29: .cfa -64 + ^
STACK CFI 3a3a8 .cfa: sp 96 +
STACK CFI 3a3bc .cfa: sp 0 +
STACK CFI 3a3c0 .cfa: x29 64 +
STACK CFI INIT 3a3f0 360 .cfa: sp 0 +
STACK CFI 3a3f4 .cfa: sp 160 +
STACK CFI 3a410 .cfa: x29 96 + x19: .cfa -8 + ^ x20: .cfa -16 + ^ x21: .cfa -24 + ^ x22: .cfa -32 + ^ x23: .cfa -40 + ^ x24: .cfa -48 + ^ x25: .cfa -56 + ^ x26: .cfa -64 + ^ x27: .cfa -72 + ^ x28: .cfa -80 + ^ .ra: .cfa -88 + ^ x29: .cfa -96 + ^
STACK CFI 3a6dc .cfa: sp 160 +
STACK CFI 3a6f8 .cfa: sp 0 +
STACK CFI 3a6fc .cfa: x29 96 +
STACK CFI INIT 3a750 314 .cfa: sp 0 +
STACK CFI 3a754 .cfa: sp 144 +
STACK CFI 3a770 .cfa: x29 96 + x19: .cfa -8 + ^ x20: .cfa -16 + ^ x21: .cfa -24 + ^ x22: .cfa -32 + ^ x23: .cfa -40 + ^ x24: .cfa -48 + ^ x25: .cfa -56 + ^ x26: .cfa -64 + ^ x27: .cfa -72 + ^ x28: .cfa -80 + ^ .ra: .cfa -88 + ^ x29: .cfa -96 + ^
STACK CFI 3a9ec .cfa: sp 144 +
STACK CFI 3aa08 .cfa: sp 0 +
STACK CFI 3aa0c .cfa: x29 96 +
STACK CFI INIT 3aa64 290 .cfa: sp 0 +
STACK CFI 3aa68 .cfa: sp 128 +
STACK CFI 3aa80 .cfa: x29 80 + x19: .cfa -8 + ^ x20: .cfa -16 + ^ x21: .cfa -24 + ^ x22: .cfa -32 + ^ x23: .cfa -40 + ^ x24: .cfa -48 + ^ x25: .cfa -56 + ^ x26: .cfa -64 + ^ .ra: .cfa -72 + ^ x29: .cfa -80 + ^
STACK CFI 3acd4 .cfa: sp 128 +
STACK CFI 3acec .cfa: sp 0 +
STACK CFI 3acf0 .cfa: x29 80 +
STACK CFI INIT 3acf4 ddc .cfa: sp 0 +
STACK CFI 3acf8 .cfa: sp 144 +
STACK CFI 3ad14 .cfa: x29 96 + x19: .cfa -8 + ^ x20: .cfa -16 + ^ x21: .cfa -24 + ^ x22: .cfa -32 + ^ x23: .cfa -40 + ^ x24: .cfa -48 + ^ x25: .cfa -56 + ^ x26: .cfa -64 + ^ x27: .cfa -72 + ^ x28: .cfa -80 + ^ .ra: .cfa -88 + ^ x29: .cfa -96 + ^
STACK CFI 3b9a8 .cfa: sp 144 +
STACK CFI 3b9c4 .cfa: sp 0 +
STACK CFI 3b9c8 .cfa: x29 96 +
STACK CFI INIT 3bad0 1d0 .cfa: sp 0 +
STACK CFI 3bad4 .cfa: sp 80 +
STACK CFI 3bae8 .cfa: x29 80 + x19: .cfa -8 + ^ x20: .cfa -16 + ^ x21: .cfa -24 + ^ x22: .cfa -32 + ^ x23: .cfa -40 + ^ x24: .cfa -48 + ^ x25: .cfa -64 + ^ .ra: .cfa -72 + ^ x29: .cfa -80 + ^
STACK CFI 3bc88 .cfa: sp 80 +
STACK CFI 3bc9c .cfa: sp 0 +
STACK CFI INIT 3bca0 23c .cfa: sp 0 +
STACK CFI 3bca4 .cfa: sp 112 +
STACK CFI 3bcb8 .cfa: x29 64 + x19: .cfa -8 + ^ x20: .cfa -16 + ^ x21: .cfa -24 + ^ x22: .cfa -32 + ^ x23: .cfa -40 + ^ x24: .cfa -48 + ^ .ra: .cfa -56 + ^ x29: .cfa -64 + ^
STACK CFI 3be94 .cfa: sp 112 +
STACK CFI 3bea8 .cfa: sp 0 +
STACK CFI 3beac .cfa: x29 64 +
STACK CFI INIT 3bedc 30c .cfa: sp 0 +
STACK CFI 3bee0 .cfa: sp 80 +
STACK CFI 3bef4 .cfa: x29 64 + x19: .cfa -8 + ^ x20: .cfa -16 + ^ x21: .cfa -24 + ^ x22: .cfa -32 + ^ x23: .cfa -40 + ^ x24: .cfa -48 + ^ .ra: .cfa -56 + ^ x29: .cfa -64 + ^
STACK CFI 3c070 .cfa: sp 80 +
STACK CFI 3c084 .cfa: sp 0 +
STACK CFI 3c088 .cfa: x29 64 +
STACK CFI INIT 3c1e8 178 .cfa: sp 0 +
STACK CFI 3c1ec .cfa: sp 80 +
STACK CFI 3c200 .cfa: x29 64 + x19: .cfa -8 + ^ x20: .cfa -16 + ^ x21: .cfa -24 + ^ x22: .cfa -32 + ^ x23: .cfa -40 + ^ x24: .cfa -48 + ^ .ra: .cfa -56 + ^ x29: .cfa -64 + ^
STACK CFI 3c344 .cfa: sp 80 +
STACK CFI 3c358 .cfa: sp 0 +
STACK CFI 3c35c .cfa: x29 64 +
STACK CFI INIT 3c360 178 .cfa: sp 0 +
STACK CFI 3c364 .cfa: sp 80 +
STACK CFI 3c378 .cfa: x29 64 + x19: .cfa -8 + ^ x20: .cfa -16 + ^ x21: .cfa -24 + ^ x22: .cfa -32 + ^ x23: .cfa -40 + ^ x24: .cfa -48 + ^ .ra: .cfa -56 + ^ x29: .cfa -64 + ^
STACK CFI 3c4bc .cfa: sp 80 +
STACK CFI 3c4d0 .cfa: sp 0 +
STACK CFI 3c4d4 .cfa: x29 64 +
STACK CFI INIT 3c4d8 240 .cfa: sp 0 +
STACK CFI 3c4dc .cfa: sp 96 +
STACK CFI 3c4f4 .cfa: x29 96 + x19: .cfa -8 + ^ x20: .cfa -16 + ^ x21: .cfa -24 + ^ x22: .cfa -32 + ^ x23: .cfa -40 + ^ x24: .cfa -48 + ^ x25: .cfa -56 + ^ x26: .cfa -64 + ^ x27: .cfa -72 + ^ x28: .cfa -80 + ^ .ra: .cfa -88 + ^ x29: .cfa -96 + ^
STACK CFI 3c6fc .cfa: sp 96 +
STACK CFI 3c714 .cfa: sp 0 +
STACK CFI INIT 3d38c 154 .cfa: sp 0 +
STACK CFI 3d390 .cfa: sp 96 +
STACK CFI 3d3a4 .cfa: x29 64 + x19: .cfa -8 + ^ x20: .cfa -16 + ^ x21: .cfa -24 + ^ x22: .cfa -32 + ^ x23: .cfa -48 + ^ .ra: .cfa -56 + ^ x29: .cfa -64 + ^
STACK CFI 3d484 .cfa: sp 96 +
STACK CFI 3d498 .cfa: sp 0 +
STACK CFI 3d49c .cfa: x29 64 +
STACK CFI INIT 3d74c 44 .cfa: sp 0 +
STACK CFI 3d750 .cfa: sp 32 +
STACK CFI 3d758 .cfa: x29 32 + x19: .cfa -16 + ^ .ra: .cfa -24 + ^ x29: .cfa -32 + ^
STACK CFI 3d774 .cfa: sp 32 +
STACK CFI 3d77c .cfa: sp 0 +
STACK CFI 3d780 .cfa: x29 32 +
STACK CFI 3d784 .cfa: sp 32 +
STACK CFI 3d78c .cfa: sp 0 +
STACK CFI INIT 3d790 1d0 .cfa: sp 0 +
STACK CFI 3d794 .cfa: sp 64 +
STACK CFI 3d7a4 .cfa: x29 64 + x19: .cfa -8 + ^ x20: .cfa -16 + ^ x21: .cfa -24 + ^ x22: .cfa -32 + ^ x23: .cfa -40 + ^ x24: .cfa -48 + ^ .ra: .cfa -56 + ^ x29: .cfa -64 + ^
STACK CFI 3d864 .cfa: sp 64 +
STACK CFI 3d874 .cfa: sp 0 +
STACK CFI 3d878 .cfa: x29 64 +
STACK CFI INIT 3d960 17c .cfa: sp 0 +
STACK CFI INIT 3de94 a0 .cfa: sp 0 +
STACK CFI 3de98 .cfa: sp 48 +
STACK CFI 3dea4 .cfa: x29 48 + x19: .cfa -8 + ^ x20: .cfa -16 + ^ x21: .cfa -24 + ^ x22: .cfa -32 + ^ .ra: .cfa -40 + ^ x29: .cfa -48 + ^
STACK CFI 3df10 .cfa: sp 48 +
STACK CFI 3df1c .cfa: sp 0 +
STACK CFI 3df20 .cfa: sp 48 +
STACK CFI 3df2c .cfa: sp 0 +
STACK CFI 3df30 .cfa: x29 48 +
STACK CFI INIT 3ebe8 158 .cfa: sp 0 +
STACK CFI 3ebec .cfa: sp 96 +
STACK CFI 3ec00 .cfa: x29 64 + x19: .cfa -8 + ^ x20: .cfa -16 + ^ x21: .cfa -24 + ^ x22: .cfa -32 + ^ x23: .cfa -48 + ^ .ra: .cfa -56 + ^ x29: .cfa -64 + ^
STACK CFI 3ece4 .cfa: sp 96 +
STACK CFI 3ecf8 .cfa: sp 0 +
STACK CFI 3ecfc .cfa: x29 64 +
STACK CFI INIT 3ed40 190 .cfa: sp 0 +
STACK CFI INIT 3f9cc 1dc .cfa: sp 0 +
STACK CFI 3f9d0 .cfa: sp 80 +
STACK CFI 3f9e4 .cfa: x29 80 + x19: .cfa -8 + ^ x20: .cfa -16 + ^ x21: .cfa -24 + ^ x22: .cfa -32 + ^ x23: .cfa -40 + ^ x24: .cfa -48 + ^ x25: .cfa -64 + ^ .ra: .cfa -72 + ^ x29: .cfa -80 + ^
STACK CFI 3fb90 .cfa: sp 80 +
STACK CFI 3fba4 .cfa: sp 0 +
STACK CFI INIT 40fd8 124 .cfa: sp 0 +
STACK CFI 41008 .cfa: sp 32 +
STACK CFI 41010 .cfa: x29 32 + x19: .cfa -8 + ^ x20: .cfa -16 + ^ .ra: .cfa -24 + ^ x29: .cfa -32 + ^
STACK CFI 410f0 .cfa: sp 32 +
STACK CFI 410f8 .cfa: sp 0 +
STACK CFI INIT 41858 320 .cfa: sp 0 +
STACK CFI 4185c .cfa: sp 64 +
STACK CFI 4186c .cfa: x29 64 + x19: .cfa -8 + ^ x20: .cfa -16 + ^ x21: .cfa -24 + ^ x22: .cfa -32 + ^ x23: .cfa -40 + ^ x24: .cfa -48 + ^ .ra: .cfa -56 + ^ x29: .cfa -64 + ^
STACK CFI 418e8 .cfa: sp 64 +
STACK CFI 418f8 .cfa: sp 0 +
STACK CFI 418fc .cfa: x29 64 +
STACK CFI 41ad0 .cfa: sp 64 +
STACK CFI 41ae0 .cfa: sp 0 +
STACK CFI 41ae4 .cfa: x29 64 +
STACK CFI 41af4 .cfa: sp 64 +
STACK CFI 41b04 .cfa: sp 0 +
STACK CFI 41b08 .cfa: x29 64 +
STACK CFI INIT 41b78 a0 .cfa: sp 0 +
STACK CFI 41b7c .cfa: sp 48 +
STACK CFI 41b88 .cfa: x29 48 + x19: .cfa -8 + ^ x20: .cfa -16 + ^ x21: .cfa -24 + ^ x22: .cfa -32 + ^ .ra: .cfa -40 + ^ x29: .cfa -48 + ^
STACK CFI 41bf4 .cfa: sp 48 +
STACK CFI 41c00 .cfa: sp 0 +
STACK CFI 41c04 .cfa: sp 48 +
STACK CFI 41c10 .cfa: sp 0 +
STACK CFI 41c14 .cfa: x29 48 +
STACK CFI INIT 42ac8 160 .cfa: sp 0 +
STACK CFI 42acc .cfa: sp 64 +
STACK CFI 42adc .cfa: x29 64 + x19: .cfa -8 + ^ x20: .cfa -16 + ^ x21: .cfa -24 + ^ x22: .cfa -32 + ^ x23: .cfa -48 + ^ .ra: .cfa -56 + ^ x29: .cfa -64 + ^
STACK CFI 42bd4 .cfa: sp 64 +
STACK CFI 42be4 .cfa: sp 0 +
STACK CFI 42be8 .cfa: x29 64 +
STACK CFI INIT 42c28 214 .cfa: sp 0 +
STACK CFI 42c2c .cfa: sp 128 +
STACK CFI 42c48 .cfa: x29 96 + x19: .cfa -8 + ^ x20: .cfa -16 + ^ x21: .cfa -24 + ^ x22: .cfa -32 + ^ x23: .cfa -40 + ^ x24: .cfa -48 + ^ x25: .cfa -56 + ^ x26: .cfa -64 + ^ x27: .cfa -80 + ^ .ra: .cfa -88 + ^ x29: .cfa -96 + ^
STACK CFI 42dc4 .cfa: sp 128 +
STACK CFI 42de0 .cfa: sp 0 +
STACK CFI 42de4 .cfa: x29 96 +
STACK CFI INIT 44ad8 290 .cfa: sp 0 +
STACK CFI 44adc .cfa: sp 16 +
STACK CFI 44ae0 .cfa: x29 16 + .ra: .cfa -8 + ^ x29: .cfa -16 + ^
STACK CFI 44b6c .cfa: sp 16 +
STACK CFI 44b70 .cfa: sp 0 +
STACK CFI 44b74 .cfa: x29 16 +
STACK CFI 44bc4 .cfa: sp 16 +
STACK CFI 44bc8 .cfa: sp 0 +
STACK CFI 44bcc .cfa: x29 16 +
STACK CFI 44d30 .cfa: sp 16 +
STACK CFI 44d34 .cfa: sp 0 +
STACK CFI 44d38 .cfa: x29 16 +
STACK CFI INIT 44d68 158 .cfa: sp 0 +
STACK CFI 44d6c .cfa: sp 112 +
STACK CFI 44d88 .cfa: x29 96 + x19: .cfa -8 + ^ x20: .cfa -16 + ^ x21: .cfa -24 + ^ x22: .cfa -32 + ^ x23: .cfa -40 + ^ x24: .cfa -48 + ^ x25: .cfa -56 + ^ x26: .cfa -64 + ^ x27: .cfa -72 + ^ x28: .cfa -80 + ^ .ra: .cfa -88 + ^ x29: .cfa -96 + ^
STACK CFI 44e70 .cfa: sp 112 +
STACK CFI 44e74 .cfa: x29 96 +
STACK CFI 44e7c .cfa: sp 112 +
STACK CFI 44e98 .cfa: sp 0 +
STACK CFI 44e9c .cfa: x29 96 +
STACK CFI 44ebc .cfa: sp 112 +
STACK CFI INIT 44ec0 e54 .cfa: sp 0 +
STACK CFI 44ec4 .cfa: sp 192 +
STACK CFI 44ee0 .cfa: x29 96 + x19: .cfa -8 + ^ x20: .cfa -16 + ^ x21: .cfa -24 + ^ x22: .cfa -32 + ^ x23: .cfa -40 + ^ x24: .cfa -48 + ^ x25: .cfa -56 + ^ x26: .cfa -64 + ^ x27: .cfa -72 + ^ x28: .cfa -80 + ^ .ra: .cfa -88 + ^ x29: .cfa -96 + ^
STACK CFI 45bfc .cfa: sp 192 +
STACK CFI 45c18 .cfa: sp 0 +
STACK CFI 45c1c .cfa: x29 96 +
STACK CFI INIT 45d14 1068 .cfa: sp 0 +
STACK CFI 45d18 .cfa: sp 288 +
STACK CFI 45d34 .cfa: x29 96 + x19: .cfa -8 + ^ x20: .cfa -16 + ^ x21: .cfa -24 + ^ x22: .cfa -32 + ^ x23: .cfa -40 + ^ x24: .cfa -48 + ^ x25: .cfa -56 + ^ x26: .cfa -64 + ^ x27: .cfa -72 + ^ x28: .cfa -80 + ^ .ra: .cfa -88 + ^ x29: .cfa -96 + ^
STACK CFI 46ac4 .cfa: sp 288 +
STACK CFI 46ae0 .cfa: sp 0 +
STACK CFI 46ae4 .cfa: x29 96 +
STACK CFI INIT 46d7c 520 .cfa: sp 0 +
STACK CFI 46d80 .cfa: sp 144 +
STACK CFI 46d9c .cfa: x29 96 + x19: .cfa -8 + ^ x20: .cfa -16 + ^ x21: .cfa -24 + ^ x22: .cfa -32 + ^ x23: .cfa -40 + ^ x24: .cfa -48 + ^ x25: .cfa -56 + ^ x26: .cfa -64 + ^ x27: .cfa -72 + ^ x28: .cfa -80 + ^ .ra: .cfa -88 + ^ x29: .cfa -96 + ^
STACK CFI 47278 .cfa: sp 144 +
STACK CFI 47294 .cfa: sp 0 +
STACK CFI 47298 .cfa: x29 96 +
STACK CFI INIT 47c3c 136c .cfa: sp 0 +
STACK CFI 47c40 .cfa: sp 224 +
STACK CFI 47c5c .cfa: x29 96 + x19: .cfa -8 + ^ x20: .cfa -16 + ^ x21: .cfa -24 + ^ x22: .cfa -32 + ^ x23: .cfa -40 + ^ x24: .cfa -48 + ^ x25: .cfa -56 + ^ x26: .cfa -64 + ^ x27: .cfa -72 + ^ x28: .cfa -80 + ^ .ra: .cfa -88 + ^ x29: .cfa -96 + ^
STACK CFI 48f84 .cfa: sp 224 +
STACK CFI 48fa0 .cfa: sp 0 +
STACK CFI 48fa4 .cfa: x29 96 +
STACK CFI INIT 48fa8 1b8 .cfa: sp 0 +
STACK CFI INIT 15950 11c .cfa: sp 0 +
STACK CFI 15954 .cfa: sp 96 +
STACK CFI 15968 .cfa: x29 64 + x19: .cfa -8 + ^ x20: .cfa -16 + ^ x21: .cfa -24 + ^ x22: .cfa -32 + ^ x23: .cfa -40 + ^ x24: .cfa -48 + ^ .ra: .cfa -56 + ^ x29: .cfa -64 + ^
STACK CFI 15a28 .cfa: sp 96 +
STACK CFI 15a3c .cfa: sp 0 +
STACK CFI 15a40 .cfa: x29 64 +
STACK CFI INIT 15ab8 478 .cfa: sp 0 +
STACK CFI 15abc .cfa: sp 208 +
STACK CFI 15ad4 .cfa: x29 80 + x19: .cfa -8 + ^ x20: .cfa -16 + ^ x21: .cfa -24 + ^ x22: .cfa -32 + ^ x23: .cfa -40 + ^ x24: .cfa -48 + ^ x25: .cfa -64 + ^ .ra: .cfa -72 + ^ x29: .cfa -80 + ^
STACK CFI 15e74 .cfa: sp 208 +
STACK CFI 15e8c .cfa: sp 0 +
STACK CFI 15e90 .cfa: x29 80 +
STACK CFI INIT 15f30 484 .cfa: sp 0 +
STACK CFI 15f34 .cfa: sp 224 +
STACK CFI 15f50 .cfa: x29 96 + x19: .cfa -8 + ^ x20: .cfa -16 + ^ x21: .cfa -24 + ^ x22: .cfa -32 + ^ x23: .cfa -40 + ^ x24: .cfa -48 + ^ x25: .cfa -56 + ^ x26: .cfa -64 + ^ x27: .cfa -72 + ^ x28: .cfa -80 + ^ .ra: .cfa -88 + ^ x29: .cfa -96 + ^
STACK CFI 161c0 .cfa: sp 224 +
STACK CFI 161dc .cfa: sp 0 +
STACK CFI 161e0 .cfa: x29 96 +
STACK CFI 162ac .cfa: sp 224 +
STACK CFI 162c8 .cfa: sp 0 +
STACK CFI 162cc .cfa: x29 96 +
STACK CFI INIT 163cc 484 .cfa: sp 0 +
STACK CFI 163d0 .cfa: sp 224 +
STACK CFI 163ec .cfa: x29 96 + x19: .cfa -8 + ^ x20: .cfa -16 + ^ x21: .cfa -24 + ^ x22: .cfa -32 + ^ x23: .cfa -40 + ^ x24: .cfa -48 + ^ x25: .cfa -56 + ^ x26: .cfa -64 + ^ x27: .cfa -72 + ^ x28: .cfa -80 + ^ .ra: .cfa -88 + ^ x29: .cfa -96 + ^
STACK CFI 1665c .cfa: sp 224 +
STACK CFI 16678 .cfa: sp 0 +
STACK CFI 1667c .cfa: x29 96 +
STACK CFI 16748 .cfa: sp 224 +
STACK CFI 16764 .cfa: sp 0 +
STACK CFI 16768 .cfa: x29 96 +
STACK CFI INIT 1687c 50 .cfa: sp 0 +
STACK CFI 16880 .cfa: sp 32 +
STACK CFI 16888 .cfa: x29 32 + x19: .cfa -8 + ^ x20: .cfa -16 + ^ .ra: .cfa -24 + ^ x29: .cfa -32 + ^
STACK CFI INIT 16ce4 5a4 .cfa: sp 0 +
STACK CFI 16ce8 .cfa: sp 128 +
STACK CFI 16cfc .cfa: x29 64 + x19: .cfa -8 + ^ x20: .cfa -16 + ^ x21: .cfa -24 + ^ x22: .cfa -32 + ^ x23: .cfa -48 + ^ .ra: .cfa -56 + ^ x29: .cfa -64 + ^
STACK CFI 17210 .cfa: sp 128 +
STACK CFI 17224 .cfa: sp 0 +
STACK CFI 17228 .cfa: x29 64 +
STACK CFI INIT 17288 190 .cfa: sp 0 +
STACK CFI 1728c .cfa: sp 96 +
STACK CFI 172a0 .cfa: x29 64 + x19: .cfa -8 + ^ x20: .cfa -16 + ^ x21: .cfa -24 + ^ x22: .cfa -32 + ^ x23: .cfa -48 + ^ .ra: .cfa -56 + ^ x29: .cfa -64 + ^
STACK CFI 17398 .cfa: sp 96 +
STACK CFI 173ac .cfa: sp 0 +
STACK CFI 173b0 .cfa: x29 64 +
STACK CFI INIT 17418 190 .cfa: sp 0 +
STACK CFI 1741c .cfa: sp 96 +
STACK CFI 17430 .cfa: x29 64 + x19: .cfa -8 + ^ x20: .cfa -16 + ^ x21: .cfa -24 + ^ x22: .cfa -32 + ^ x23: .cfa -48 + ^ .ra: .cfa -56 + ^ x29: .cfa -64 + ^
STACK CFI 17528 .cfa: sp 96 +
STACK CFI 1753c .cfa: sp 0 +
STACK CFI 17540 .cfa: x29 64 +
STACK CFI INIT 177c4 164 .cfa: sp 0 +
STACK CFI 177c8 .cfa: sp 112 +
STACK CFI 177d8 .cfa: x29 48 + x19: .cfa -8 + ^ x20: .cfa -16 + ^ x21: .cfa -24 + ^ x22: .cfa -32 + ^ .ra: .cfa -40 + ^ x29: .cfa -48 + ^
STACK CFI 178c4 .cfa: sp 112 +
STACK CFI 178d4 .cfa: sp 0 +
STACK CFI 178d8 .cfa: x29 48 +
STACK CFI INIT 17a78 404 .cfa: sp 0 +
STACK CFI 17a7c .cfa: sp 272 +
STACK CFI 17a90 .cfa: x29 64 + x19: .cfa -8 + ^ x20: .cfa -16 + ^ x21: .cfa -24 + ^ x22: .cfa -32 + ^ x23: .cfa -40 + ^ x28: .cfa -48 + ^ .ra: .cfa -56 + ^ x29: .cfa -64 + ^
STACK CFI 17d40 .cfa: sp 272 +
STACK CFI 17d54 .cfa: sp 0 +
STACK CFI 17d58 .cfa: x29 64 +
STACK CFI INIT 17ecc 74 .cfa: sp 0 +
STACK CFI 17ed0 .cfa: sp 48 +
STACK CFI 17edc .cfa: x29 32 + x19: .cfa -8 + ^ x20: .cfa -16 + ^ .ra: .cfa -24 + ^ x29: .cfa -32 + ^
STACK CFI 17f28 .cfa: sp 48 +
STACK CFI 17f34 .cfa: sp 0 +
STACK CFI 17f38 .cfa: x29 32 +
STACK CFI INIT 17fc0 478 .cfa: sp 0 +
STACK CFI 17fc4 .cfa: sp 416 +
STACK CFI 17fe0 .cfa: x29 96 + x19: .cfa -8 + ^ x20: .cfa -16 + ^ x21: .cfa -24 + ^ x22: .cfa -32 + ^ x23: .cfa -40 + ^ x24: .cfa -48 + ^ x25: .cfa -56 + ^ x26: .cfa -64 + ^ x27: .cfa -72 + ^ x28: .cfa -80 + ^ .ra: .cfa -88 + ^ x29: .cfa -96 + ^
STACK CFI 183b0 .cfa: sp 416 +
STACK CFI 183cc .cfa: sp 0 +
STACK CFI 183d0 .cfa: x29 96 +
STACK CFI INIT 18510 1a4 .cfa: sp 0 +
STACK CFI 18514 .cfa: sp 112 +
STACK CFI 1852c .cfa: x29 80 + x19: .cfa -8 + ^ x20: .cfa -16 + ^ x21: .cfa -24 + ^ x22: .cfa -32 + ^ x23: .cfa -40 + ^ x24: .cfa -48 + ^ x25: .cfa -56 + ^ x26: .cfa -64 + ^ .ra: .cfa -72 + ^ x29: .cfa -80 + ^
STACK CFI 1861c .cfa: sp 112 +
STACK CFI 18634 .cfa: sp 0 +
STACK CFI 18638 .cfa: x29 80 +
STACK CFI INIT 186b4 1dc .cfa: sp 0 +
STACK CFI 186b8 .cfa: sp 128 +
STACK CFI 186d4 .cfa: x29 96 + x19: .cfa -8 + ^ x20: .cfa -16 + ^ x21: .cfa -24 + ^ x22: .cfa -32 + ^ x23: .cfa -40 + ^ x24: .cfa -48 + ^ x25: .cfa -56 + ^ x26: .cfa -64 + ^ x27: .cfa -80 + ^ .ra: .cfa -88 + ^ x29: .cfa -96 + ^
STACK CFI 18840 .cfa: sp 128 +
STACK CFI 1885c .cfa: sp 0 +
STACK CFI 18860 .cfa: x29 96 +
STACK CFI INIT 18890 228 .cfa: sp 0 +
STACK CFI 18894 .cfa: sp 128 +
STACK CFI 188ac .cfa: x29 80 + x19: .cfa -8 + ^ x20: .cfa -16 + ^ x21: .cfa -24 + ^ x22: .cfa -32 + ^ x23: .cfa -40 + ^ x24: .cfa -48 + ^ x25: .cfa -64 + ^ .ra: .cfa -72 + ^ x29: .cfa -80 + ^
STACK CFI 18a48 .cfa: sp 128 +
STACK CFI 18a60 .cfa: sp 0 +
STACK CFI 18a64 .cfa: x29 80 +
STACK CFI INIT 19194 107c .cfa: sp 0 +
STACK CFI 19198 .cfa: sp 272 +
STACK CFI 191b4 .cfa: x29 96 + x19: .cfa -8 + ^ x20: .cfa -16 + ^ x21: .cfa -24 + ^ x22: .cfa -32 + ^ x23: .cfa -40 + ^ x24: .cfa -48 + ^ x25: .cfa -56 + ^ x26: .cfa -64 + ^ x27: .cfa -72 + ^ x28: .cfa -80 + ^ .ra: .cfa -88 + ^ x29: .cfa -96 + ^
STACK CFI 19310 .cfa: sp 272 +
STACK CFI 1932c .cfa: sp 0 +
STACK CFI 19330 .cfa: x29 96 +
STACK CFI 19464 .cfa: sp 272 +
STACK CFI 19480 .cfa: sp 0 +
STACK CFI 19484 .cfa: x29 96 +
STACK CFI 19494 .cfa: sp 272 +
STACK CFI 194b0 .cfa: sp 0 +
STACK CFI 194b4 .cfa: x29 96 +
STACK CFI INIT 1a2c4 ab8 .cfa: sp 0 +
STACK CFI 1a2c8 .cfa: sp 256 +
STACK CFI 1a2f0 .cfa: x29 96 + x19: .cfa -8 + ^ x20: .cfa -16 + ^ x21: .cfa -24 + ^ x22: .cfa -32 + ^ x23: .cfa -40 + ^ x24: .cfa -48 + ^ x25: .cfa -56 + ^ x26: .cfa -64 + ^ x27: .cfa -72 + ^ x28: .cfa -80 + ^ .ra: .cfa -88 + ^ x29: .cfa -96 + ^ v8: .cfa -104 + ^ v9: .cfa -112 + ^ v10: .cfa -120 + ^ v11: .cfa -128 + ^ v12: .cfa -136 + ^ v13: .cfa -144 + ^
STACK CFI 1acd0 .cfa: sp 256 +
STACK CFI 1acf8 .cfa: sp 0 +
STACK CFI 1acfc .cfa: x29 96 +
STACK CFI INIT 1b034 1c .cfa: sp 0 +
STACK CFI 1b038 .cfa: sp 16 +
STACK CFI 1b03c .cfa: x29 16 + .ra: .cfa -8 + ^ x29: .cfa -16 + ^
STACK CFI 1b044 .cfa: sp 16 +
STACK CFI 1b048 .cfa: sp 0 +
STACK CFI 1b04c .cfa: x29 16 +
STACK CFI INIT 1b050 18c .cfa: sp 0 +
STACK CFI 1b054 .cfa: sp 112 +
STACK CFI 1b064 .cfa: x29 48 + x19: .cfa -8 + ^ x20: .cfa -16 + ^ x21: .cfa -32 + ^ .ra: .cfa -40 + ^ x29: .cfa -48 + ^
STACK CFI 1b130 .cfa: sp 112 +
STACK CFI 1b140 .cfa: sp 0 +
STACK CFI 1b144 .cfa: x29 48 +
STACK CFI INIT 1b1dc 444 .cfa: sp 0 +
STACK CFI 1b1e0 .cfa: sp 176 +
STACK CFI 1b1fc .cfa: x29 96 + x19: .cfa -8 + ^ x20: .cfa -16 + ^ x21: .cfa -24 + ^ x22: .cfa -32 + ^ x23: .cfa -40 + ^ x24: .cfa -48 + ^ x25: .cfa -56 + ^ x26: .cfa -64 + ^ x27: .cfa -72 + ^ x28: .cfa -80 + ^ .ra: .cfa -88 + ^ x29: .cfa -96 + ^
STACK CFI 1b23c .cfa: sp 176 +
STACK CFI 1b258 .cfa: sp 0 +
STACK CFI 1b25c .cfa: x29 96 +
STACK CFI INIT 1b620 10c .cfa: sp 0 +
STACK CFI 1b624 .cfa: sp 64 +
STACK CFI 1b634 .cfa: x29 64 + x19: .cfa -8 + ^ x20: .cfa -16 + ^ x21: .cfa -24 + ^ x22: .cfa -32 + ^ x23: .cfa -48 + ^ .ra: .cfa -56 + ^ x29: .cfa -64 + ^
STACK CFI 1b70c .cfa: sp 64 +
STACK CFI 1b71c .cfa: sp 0 +
STACK CFI 1b720 .cfa: x29 64 +
STACK CFI INIT 1b72c 5c .cfa: sp 0 +
STACK CFI 1b730 .cfa: sp 32 +
STACK CFI 1b738 .cfa: x29 32 + x19: .cfa -16 + ^ .ra: .cfa -24 + ^ x29: .cfa -32 + ^
STACK CFI 1b76c .cfa: sp 32 +
STACK CFI 1b774 .cfa: sp 0 +
STACK CFI 1b778 .cfa: x29 32 +
STACK CFI INIT 1b7c4 50 .cfa: sp 0 +
STACK CFI 1b7c8 .cfa: sp 32 +
STACK CFI 1b7d0 .cfa: x29 32 + x19: .cfa -8 + ^ x20: .cfa -16 + ^ .ra: .cfa -24 + ^ x29: .cfa -32 + ^
STACK CFI INIT 1bfa4 5c .cfa: sp 0 +
STACK CFI 1bfa8 .cfa: sp 32 +
STACK CFI 1bfb0 .cfa: x29 32 + x19: .cfa -16 + ^ .ra: .cfa -24 + ^ x29: .cfa -32 + ^
STACK CFI 1bff0 .cfa: sp 32 +
STACK CFI 1bff8 .cfa: sp 0 +
STACK CFI 1bffc .cfa: x29 32 +
STACK CFI INIT 1c000 64 .cfa: sp 0 +
STACK CFI 1c004 .cfa: sp 32 +
STACK CFI 1c00c .cfa: x29 32 + x19: .cfa -16 + ^ .ra: .cfa -24 + ^ x29: .cfa -32 + ^
STACK CFI 1c054 .cfa: sp 32 +
STACK CFI 1c05c .cfa: sp 0 +
STACK CFI 1c060 .cfa: x29 32 +
STACK CFI INIT 1c1cc 34c .cfa: sp 0 +
STACK CFI 1c1d0 .cfa: sp 208 +
STACK CFI 1c1e8 .cfa: x29 80 + x19: .cfa -8 + ^ x20: .cfa -16 + ^ x21: .cfa -24 + ^ x22: .cfa -32 + ^ x23: .cfa -40 + ^ x24: .cfa -48 + ^ x25: .cfa -64 + ^ .ra: .cfa -72 + ^ x29: .cfa -80 + ^
STACK CFI 1c3f0 .cfa: sp 208 +
STACK CFI 1c408 .cfa: sp 0 +
STACK CFI 1c40c .cfa: x29 80 +
STACK CFI INIT 1c51c 4c4 .cfa: sp 0 +
STACK CFI 1c520 .cfa: sp 240 +
STACK CFI 1c53c .cfa: x29 96 + x19: .cfa -8 + ^ x20: .cfa -16 + ^ x21: .cfa -24 + ^ x22: .cfa -32 + ^ x23: .cfa -40 + ^ x24: .cfa -48 + ^ x25: .cfa -56 + ^ x26: .cfa -64 + ^ x27: .cfa -72 + ^ x28: .cfa -80 + ^ .ra: .cfa -88 + ^ x29: .cfa -96 + ^
STACK CFI 1c910 .cfa: sp 240 +
STACK CFI 1c92c .cfa: sp 0 +
STACK CFI 1c930 .cfa: x29 96 +
STACK CFI INIT 1c9e0 174 .cfa: sp 0 +
STACK CFI 1c9e4 .cfa: sp 128 +
STACK CFI 1c9f8 .cfa: x29 40 + x19: .cfa -8 + ^ x20: .cfa -16 + ^ x21: .cfa -24 + ^ .ra: .cfa -32 + ^ x29: .cfa -40 + ^ v8: .cfa -48 + ^
STACK CFI 1caec .cfa: sp 128 +
STACK CFI 1cb00 .cfa: sp 0 +
STACK CFI 1cb04 .cfa: x29 40 +
STACK CFI INIT 1cb54 190 .cfa: sp 0 +
STACK CFI 1cb58 .cfa: sp 112 +
STACK CFI 1cb68 .cfa: x29 48 + x19: .cfa -8 + ^ x20: .cfa -16 + ^ x21: .cfa -32 + ^ .ra: .cfa -40 + ^ x29: .cfa -48 + ^
STACK CFI 1cc3c .cfa: sp 112 +
STACK CFI 1cc4c .cfa: sp 0 +
STACK CFI 1cc50 .cfa: x29 48 +
STACK CFI INIT 1ceb4 1d8 .cfa: sp 0 +
STACK CFI 1ceb8 .cfa: sp 208 +
STACK CFI 1cec8 .cfa: x29 48 + x19: .cfa -8 + ^ x20: .cfa -16 + ^ x21: .cfa -32 + ^ .ra: .cfa -40 + ^ x29: .cfa -48 + ^
STACK CFI 1d00c .cfa: sp 208 +
STACK CFI 1d01c .cfa: sp 0 +
STACK CFI 1d020 .cfa: x29 48 +
STACK CFI INIT 1d25c a34 .cfa: sp 0 +
STACK CFI 1d260 .cfa: sp 384 +
STACK CFI 1d27c .cfa: x29 96 + x19: .cfa -8 + ^ x20: .cfa -16 + ^ x21: .cfa -24 + ^ x22: .cfa -32 + ^ x23: .cfa -40 + ^ x24: .cfa -48 + ^ x25: .cfa -56 + ^ x26: .cfa -64 + ^ x27: .cfa -72 + ^ x28: .cfa -80 + ^ .ra: .cfa -88 + ^ x29: .cfa -96 + ^
STACK CFI 1da28 .cfa: sp 384 +
STACK CFI 1da44 .cfa: sp 0 +
STACK CFI 1da48 .cfa: x29 96 +
STACK CFI INIT 1dc90 1ae4 .cfa: sp 0 +
STACK CFI 1dc94 .cfa: sp 112 +
STACK CFI 1dcb0 .cfa: x29 96 + x19: .cfa -8 + ^ x20: .cfa -16 + ^ x21: .cfa -24 + ^ x22: .cfa -32 + ^ x23: .cfa -40 + ^ x24: .cfa -48 + ^ x25: .cfa -56 + ^ x26: .cfa -64 + ^ x27: .cfa -72 + ^ x28: .cfa -80 + ^ .ra: .cfa -88 + ^ x29: .cfa -96 + ^ v8: .cfa -104 + ^ v9: .cfa -112 + ^
STACK CFI 1f2c8 .cfa: sp 112 +
STACK CFI 1f2e4 .cfa: sp 0 +
STACK CFI 1f2e8 .cfa: x29 96 +
STACK CFI INIT 1f774 1250 .cfa: sp 0 +
STACK CFI 1f778 .cfa: sp 96 +
STACK CFI 1f790 .cfa: x29 96 + x19: .cfa -8 + ^ x20: .cfa -16 + ^ x21: .cfa -24 + ^ x22: .cfa -32 + ^ x23: .cfa -40 + ^ x24: .cfa -48 + ^ x25: .cfa -56 + ^ x26: .cfa -64 + ^ x27: .cfa -72 + ^ x28: .cfa -80 + ^ .ra: .cfa -88 + ^ x29: .cfa -96 + ^
STACK CFI 20804 .cfa: sp 96 +
STACK CFI 2081c .cfa: sp 0 +
STACK CFI 20820 .cfa: x29 96 +
STACK CFI INIT 209c4 294 .cfa: sp 0 +
STACK CFI 209c8 .cfa: sp 64 +
STACK CFI 209d8 .cfa: x29 64 + x19: .cfa -8 + ^ x20: .cfa -16 + ^ x21: .cfa -24 + ^ x22: .cfa -32 + ^ x23: .cfa -40 + ^ x24: .cfa -48 + ^ .ra: .cfa -56 + ^ x29: .cfa -64 + ^
STACK CFI 20bf4 .cfa: sp 64 +
STACK CFI 20c04 .cfa: sp 0 +
STACK CFI 20c08 .cfa: x29 64 +
STACK CFI INIT 20c58 234 .cfa: sp 0 +
STACK CFI 20c5c .cfa: sp 64 +
STACK CFI 20c6c .cfa: x29 64 + x19: .cfa -8 + ^ x20: .cfa -16 + ^ x21: .cfa -24 + ^ x22: .cfa -32 + ^ x23: .cfa -40 + ^ x24: .cfa -48 + ^ .ra: .cfa -56 + ^ x29: .cfa -64 + ^
STACK CFI 20e28 .cfa: sp 64 +
STACK CFI 20e38 .cfa: sp 0 +
STACK CFI 20e3c .cfa: x29 64 +
STACK CFI INIT 20edc 2354 .cfa: sp 0 +
STACK CFI 20ee0 .cfa: sp 96 +
STACK CFI 20ef8 .cfa: x29 96 + x19: .cfa -8 + ^ x20: .cfa -16 + ^ x21: .cfa -24 + ^ x22: .cfa -32 + ^ x23: .cfa -40 + ^ x24: .cfa -48 + ^ x25: .cfa -56 + ^ x26: .cfa -64 + ^ x27: .cfa -72 + ^ x28: .cfa -80 + ^ .ra: .cfa -88 + ^ x29: .cfa -96 + ^
STACK CFI 22c74 .cfa: sp 96 +
STACK CFI 22c8c .cfa: sp 0 +
STACK CFI 22c90 .cfa: x29 96 +
STACK CFI INIT 2369c 1d4 .cfa: sp 0 +
STACK CFI 236a0 .cfa: sp 128 +
STACK CFI 236bc .cfa: x29 96 + x19: .cfa -8 + ^ x20: .cfa -16 + ^ x21: .cfa -24 + ^ x22: .cfa -32 + ^ x23: .cfa -40 + ^ x24: .cfa -48 + ^ x25: .cfa -56 + ^ x26: .cfa -64 + ^ x27: .cfa -72 + ^ x28: .cfa -80 + ^ .ra: .cfa -88 + ^ x29: .cfa -96 + ^
STACK CFI 23820 .cfa: sp 128 +
STACK CFI 2383c .cfa: sp 0 +
STACK CFI 23840 .cfa: x29 96 +
STACK CFI INIT 23914 9cc .cfa: sp 0 +
STACK CFI 23918 .cfa: sp 144 +
STACK CFI 23934 .cfa: x29 96 + x19: .cfa -8 + ^ x20: .cfa -16 + ^ x21: .cfa -24 + ^ x22: .cfa -32 + ^ x23: .cfa -40 + ^ x24: .cfa -48 + ^ x25: .cfa -56 + ^ x26: .cfa -64 + ^ x27: .cfa -72 + ^ x28: .cfa -80 + ^ .ra: .cfa -88 + ^ x29: .cfa -96 + ^
STACK CFI 23d44 .cfa: sp 144 +
STACK CFI 23d60 .cfa: sp 0 +
STACK CFI 23d64 .cfa: x29 96 +
STACK CFI 241d0 .cfa: sp 144 +
STACK CFI 241ec .cfa: sp 0 +
STACK CFI 241f0 .cfa: x29 96 +
STACK CFI INIT 245f4 1d8 .cfa: sp 0 +
STACK CFI 245f8 .cfa: sp 128 +
STACK CFI 24614 .cfa: x29 96 + x19: .cfa -8 + ^ x20: .cfa -16 + ^ x21: .cfa -24 + ^ x22: .cfa -32 + ^ x23: .cfa -40 + ^ x24: .cfa -48 + ^ x25: .cfa -56 + ^ x26: .cfa -64 + ^ x27: .cfa -72 + ^ x28: .cfa -80 + ^ .ra: .cfa -88 + ^ x29: .cfa -96 + ^
STACK CFI 24784 .cfa: sp 128 +
STACK CFI 247a0 .cfa: sp 0 +
STACK CFI 247a4 .cfa: x29 96 +
STACK CFI INIT 24820 478 .cfa: sp 0 +
STACK CFI 24824 .cfa: sp 144 +
STACK CFI 24840 .cfa: x29 96 + x19: .cfa -8 + ^ x20: .cfa -16 + ^ x21: .cfa -24 + ^ x22: .cfa -32 + ^ x23: .cfa -40 + ^ x24: .cfa -48 + ^ x25: .cfa -56 + ^ x26: .cfa -64 + ^ x27: .cfa -72 + ^ x28: .cfa -80 + ^ .ra: .cfa -88 + ^ x29: .cfa -96 + ^
STACK CFI 24c34 .cfa: sp 144 +
STACK CFI 24c50 .cfa: sp 0 +
STACK CFI 24c54 .cfa: x29 96 +
STACK CFI INIT 24c98 1a4 .cfa: sp 0 +
STACK CFI 24c9c .cfa: sp 96 +
STACK CFI 24cb4 .cfa: x29 96 + x19: .cfa -8 + ^ x20: .cfa -16 + ^ x21: .cfa -24 + ^ x22: .cfa -32 + ^ x23: .cfa -40 + ^ x24: .cfa -48 + ^ x25: .cfa -56 + ^ x26: .cfa -64 + ^ x27: .cfa -80 + ^ .ra: .cfa -88 + ^ x29: .cfa -96 + ^
STACK CFI 24e10 .cfa: sp 96 +
STACK CFI 24e28 .cfa: sp 0 +
STACK CFI 24e2c .cfa: x29 96 +
STACK CFI INIT 24fa4 f4 .cfa: sp 0 +
STACK CFI 24fa8 .cfa: sp 64 +
STACK CFI 24fb8 .cfa: x29 64 + x19: .cfa -8 + ^ x20: .cfa -16 + ^ x21: .cfa -24 + ^ x22: .cfa -32 + ^ x23: .cfa -48 + ^ .ra: .cfa -56 + ^ x29: .cfa -64 + ^
STACK CFI 2503c .cfa: sp 64 +
STACK CFI 2504c .cfa: sp 0 +
STACK CFI 25050 .cfa: x29 64 +
STACK CFI INIT 2518c 130 .cfa: sp 0 +
STACK CFI 25190 .cfa: sp 144 +
STACK CFI 251a4 .cfa: x29 64 + x19: .cfa -8 + ^ x20: .cfa -16 + ^ x21: .cfa -24 + ^ x22: .cfa -32 + ^ x23: .cfa -40 + ^ x24: .cfa -48 + ^ .ra: .cfa -56 + ^ x29: .cfa -64 + ^
STACK CFI 25250 .cfa: sp 144 +
STACK CFI 25264 .cfa: sp 0 +
STACK CFI 25268 .cfa: x29 64 +
STACK CFI INIT 253c8 f4 .cfa: sp 0 +
STACK CFI 253cc .cfa: sp 64 +
STACK CFI 253dc .cfa: x29 64 + x19: .cfa -8 + ^ x20: .cfa -16 + ^ x21: .cfa -24 + ^ x22: .cfa -32 + ^ x23: .cfa -48 + ^ .ra: .cfa -56 + ^ x29: .cfa -64 + ^
STACK CFI 25460 .cfa: sp 64 +
STACK CFI 25470 .cfa: sp 0 +
STACK CFI 25474 .cfa: x29 64 +
STACK CFI INIT 254bc 5f0 .cfa: sp 0 +
STACK CFI 254c0 .cfa: sp 112 +
STACK CFI 254dc .cfa: x29 96 + x19: .cfa -8 + ^ x20: .cfa -16 + ^ x21: .cfa -24 + ^ x22: .cfa -32 + ^ x23: .cfa -40 + ^ x24: .cfa -48 + ^ x25: .cfa -56 + ^ x26: .cfa -64 + ^ x27: .cfa -80 + ^ .ra: .cfa -88 + ^ x29: .cfa -96 + ^
STACK CFI 25780 .cfa: sp 112 +
STACK CFI 2579c .cfa: sp 0 +
STACK CFI 257a0 .cfa: x29 96 +
STACK CFI 25994 .cfa: sp 112 +
STACK CFI 259b0 .cfa: sp 0 +
STACK CFI 259b4 .cfa: x29 96 +
STACK CFI INIT 25bf4 114b8 .cfa: sp 0 +
STACK CFI 25bf8 .cfa: sp 96 +
STACK CFI 25c10 .cfa: x29 96 + x19: .cfa -8 + ^ x20: .cfa -16 + ^ x21: .cfa -24 + ^ x22: .cfa -32 + ^ x23: .cfa -40 + ^ x24: .cfa -48 + ^ x25: .cfa -56 + ^ x26: .cfa -64 + ^ x27: .cfa -72 + ^ x28: .cfa -80 + ^ .ra: .cfa -88 + ^ x29: .cfa -96 + ^
STACK CFI 352c8 .cfa: sp 96 +
STACK CFI 352e0 .cfa: sp 0 +
STACK CFI 352e4 .cfa: x29 96 +
STACK CFI INIT 37160 1a4 .cfa: sp 0 +
STACK CFI 37164 .cfa: sp 112 +
STACK CFI 3717c .cfa: x29 80 + x19: .cfa -8 + ^ x20: .cfa -16 + ^ x21: .cfa -24 + ^ x22: .cfa -32 + ^ x23: .cfa -40 + ^ x24: .cfa -48 + ^ x25: .cfa -64 + ^ .ra: .cfa -72 + ^ x29: .cfa -80 + ^
STACK CFI 37290 .cfa: sp 112 +
STACK CFI 372a8 .cfa: sp 0 +
STACK CFI 372ac .cfa: x29 80 +
STACK CFI INIT 37710 294 .cfa: sp 0 +
STACK CFI 37714 .cfa: sp 240 +
STACK CFI 3772c .cfa: x29 80 + x19: .cfa -8 + ^ x20: .cfa -16 + ^ x21: .cfa -24 + ^ x22: .cfa -32 + ^ x23: .cfa -40 + ^ x24: .cfa -48 + ^ x25: .cfa -64 + ^ .ra: .cfa -72 + ^ x29: .cfa -80 + ^
STACK CFI 378cc .cfa: sp 240 +
STACK CFI 378e4 .cfa: sp 0 +
STACK CFI 378e8 .cfa: x29 80 +
STACK CFI INIT 37a20 50 .cfa: sp 0 +
STACK CFI 37a24 .cfa: sp 32 +
STACK CFI 37a2c .cfa: x29 32 + x19: .cfa -8 + ^ x20: .cfa -16 + ^ .ra: .cfa -24 + ^ x29: .cfa -32 + ^
STACK CFI INIT 37a9c 7c0 .cfa: sp 0 +
STACK CFI 37aa0 .cfa: sp 320 +
STACK CFI 37abc .cfa: x29 96 + x19: .cfa -8 + ^ x20: .cfa -16 + ^ x21: .cfa -24 + ^ x22: .cfa -32 + ^ x23: .cfa -40 + ^ x24: .cfa -48 + ^ x25: .cfa -56 + ^ x26: .cfa -64 + ^ x27: .cfa -72 + ^ x28: .cfa -80 + ^ .ra: .cfa -88 + ^ x29: .cfa -96 + ^
STACK CFI 3810c .cfa: sp 320 +
STACK CFI 38128 .cfa: sp 0 +
STACK CFI 3812c .cfa: x29 96 +
STACK CFI INIT 382c0 13c .cfa: sp 0 +
STACK CFI 382c4 .cfa: sp 80 +
STACK CFI 382d8 .cfa: x29 80 + x19: .cfa -8 + ^ x20: .cfa -16 + ^ x21: .cfa -24 + ^ x22: .cfa -32 + ^ x23: .cfa -40 + ^ x24: .cfa -48 + ^ x28: .cfa -64 + ^ .ra: .cfa -72 + ^ x29: .cfa -80 + ^
STACK CFI 3836c .cfa: sp 80 +
STACK CFI 38380 .cfa: sp 0 +
STACK CFI 38384 .cfa: x29 80 +
STACK CFI INIT 3c718 c74 .cfa: sp 0 +
STACK CFI 3c71c .cfa: sp 96 +
STACK CFI 3c734 .cfa: x29 96 + x19: .cfa -8 + ^ x20: .cfa -16 + ^ x21: .cfa -24 + ^ x22: .cfa -32 + ^ x23: .cfa -40 + ^ x24: .cfa -48 + ^ x25: .cfa -56 + ^ x26: .cfa -64 + ^ x27: .cfa -72 + ^ x28: .cfa -80 + ^ .ra: .cfa -88 + ^ x29: .cfa -96 + ^
STACK CFI 3d1ac .cfa: sp 96 +
STACK CFI 3d1c4 .cfa: sp 0 +
STACK CFI 3d1c8 .cfa: x29 96 +
STACK CFI INIT 3d4e0 26c .cfa: sp 0 +
STACK CFI 3d4e4 .cfa: sp 128 +
STACK CFI 3d4f4 .cfa: x29 48 + x19: .cfa -8 + ^ x20: .cfa -16 + ^ x21: .cfa -24 + ^ x22: .cfa -32 + ^ .ra: .cfa -40 + ^ x29: .cfa -48 + ^
STACK CFI 3d698 .cfa: sp 128 +
STACK CFI 3d6a8 .cfa: sp 0 +
STACK CFI 3d6ac .cfa: x29 48 +
STACK CFI INIT 3dadc 3b8 .cfa: sp 0 +
STACK CFI 3dae0 .cfa: sp 96 +
STACK CFI 3daf8 .cfa: x29 96 + x19: .cfa -8 + ^ x20: .cfa -16 + ^ x21: .cfa -24 + ^ x22: .cfa -32 + ^ x23: .cfa -40 + ^ x24: .cfa -48 + ^ x25: .cfa -56 + ^ x26: .cfa -64 + ^ x27: .cfa -72 + ^ x28: .cfa -80 + ^ .ra: .cfa -88 + ^ x29: .cfa -96 + ^
STACK CFI 3de34 .cfa: sp 96 +
STACK CFI 3de4c .cfa: sp 0 +
STACK CFI 3de50 .cfa: x29 96 +
STACK CFI INIT 3df34 cb4 .cfa: sp 0 +
STACK CFI 3df38 .cfa: sp 96 +
STACK CFI 3df50 .cfa: x29 96 + x19: .cfa -8 + ^ x20: .cfa -16 + ^ x21: .cfa -24 + ^ x22: .cfa -32 + ^ x23: .cfa -40 + ^ x24: .cfa -48 + ^ x25: .cfa -56 + ^ x26: .cfa -64 + ^ x27: .cfa -72 + ^ x28: .cfa -80 + ^ .ra: .cfa -88 + ^ x29: .cfa -96 + ^
STACK CFI 3e9f8 .cfa: sp 96 +
STACK CFI 3ea10 .cfa: sp 0 +
STACK CFI 3ea14 .cfa: x29 96 +
STACK CFI INIT 3eed0 afc .cfa: sp 0 +
STACK CFI 3eed4 .cfa: sp 96 +
STACK CFI 3eeec .cfa: x29 96 + x19: .cfa -8 + ^ x20: .cfa -16 + ^ x21: .cfa -24 + ^ x22: .cfa -32 + ^ x23: .cfa -40 + ^ x24: .cfa -48 + ^ x25: .cfa -56 + ^ x26: .cfa -64 + ^ x27: .cfa -72 + ^ x28: .cfa -80 + ^ .ra: .cfa -88 + ^ x29: .cfa -96 + ^
STACK CFI 3f940 .cfa: sp 96 +
STACK CFI 3f958 .cfa: sp 0 +
STACK CFI 3f95c .cfa: x29 96 +
STACK CFI INIT 3fba8 1430 .cfa: sp 0 +
STACK CFI 3fbac .cfa: sp 96 +
STACK CFI 3fbc4 .cfa: x29 96 + x19: .cfa -8 + ^ x20: .cfa -16 + ^ x21: .cfa -24 + ^ x22: .cfa -32 + ^ x23: .cfa -40 + ^ x24: .cfa -48 + ^ x25: .cfa -56 + ^ x26: .cfa -64 + ^ x27: .cfa -72 + ^ x28: .cfa -80 + ^ .ra: .cfa -88 + ^ x29: .cfa -96 + ^
STACK CFI 40e60 .cfa: sp 96 +
STACK CFI 40e78 .cfa: sp 0 +
STACK CFI 40e7c .cfa: x29 96 +
STACK CFI INIT 410fc 75c .cfa: sp 0 +
STACK CFI 41100 .cfa: sp 368 +
STACK CFI 4111c .cfa: x29 96 + x19: .cfa -8 + ^ x20: .cfa -16 + ^ x21: .cfa -24 + ^ x22: .cfa -32 + ^ x23: .cfa -40 + ^ x24: .cfa -48 + ^ x25: .cfa -56 + ^ x26: .cfa -64 + ^ x27: .cfa -72 + ^ x28: .cfa -80 + ^ .ra: .cfa -88 + ^ x29: .cfa -96 + ^
STACK CFI 411d0 .cfa: sp 368 +
STACK CFI 411ec .cfa: sp 0 +
STACK CFI 411f0 .cfa: x29 96 +
STACK CFI 41244 .cfa: sp 368 +
STACK CFI 41260 .cfa: sp 0 +
STACK CFI 41264 .cfa: x29 96 +
STACK CFI INIT 41c18 eb0 .cfa: sp 0 +
STACK CFI 41c1c .cfa: sp 96 +
STACK CFI 41c34 .cfa: x29 96 + x19: .cfa -8 + ^ x20: .cfa -16 + ^ x21: .cfa -24 + ^ x22: .cfa -32 + ^ x23: .cfa -40 + ^ x24: .cfa -48 + ^ x25: .cfa -56 + ^ x26: .cfa -64 + ^ x27: .cfa -72 + ^ x28: .cfa -80 + ^ .ra: .cfa -88 + ^ x29: .cfa -96 + ^
STACK CFI 428dc .cfa: sp 96 +
STACK CFI 428f4 .cfa: sp 0 +
STACK CFI 428f8 .cfa: x29 96 +
STACK CFI INIT 42e3c 1c9c .cfa: sp 0 +
STACK CFI 42e40 .cfa: sp 112 +
STACK CFI 42e5c .cfa: x29 96 + x19: .cfa -8 + ^ x20: .cfa -16 + ^ x21: .cfa -24 + ^ x22: .cfa -32 + ^ x23: .cfa -40 + ^ x24: .cfa -48 + ^ x25: .cfa -56 + ^ x26: .cfa -64 + ^ x27: .cfa -72 + ^ x28: .cfa -80 + ^ .ra: .cfa -88 + ^ x29: .cfa -96 + ^ v8: .cfa -112 + ^
STACK CFI 43244 .cfa: sp 112 +
STACK CFI 43260 .cfa: sp 0 +
STACK CFI 43264 .cfa: x29 96 +
STACK CFI INIT 4729c 9a0 .cfa: sp 0 +
STACK CFI 472a0 .cfa: sp 144 +
STACK CFI 472b8 .cfa: x29 80 + x19: .cfa -8 + ^ x20: .cfa -16 + ^ x21: .cfa -24 + ^ x22: .cfa -32 + ^ x23: .cfa -40 + ^ x24: .cfa -48 + ^ x25: .cfa -64 + ^ .ra: .cfa -72 + ^ x29: .cfa -80 + ^
STACK CFI 47bb8 .cfa: sp 144 +
STACK CFI 47bd0 .cfa: sp 0 +
STACK CFI 47bd4 .cfa: x29 80 +
STACK CFI INIT 49160 57c .cfa: sp 0 +
STACK CFI 49164 .cfa: sp 96 +
STACK CFI 4917c .cfa: x29 96 + x19: .cfa -8 + ^ x20: .cfa -16 + ^ x21: .cfa -24 + ^ x22: .cfa -32 + ^ x23: .cfa -40 + ^ x24: .cfa -48 + ^ x25: .cfa -56 + ^ x26: .cfa -64 + ^ x27: .cfa -72 + ^ x28: .cfa -80 + ^ .ra: .cfa -88 + ^ x29: .cfa -96 + ^
STACK CFI 49640 .cfa: sp 96 +
STACK CFI 49658 .cfa: sp 0 +
STACK CFI 4965c .cfa: x29 96 +
STACK CFI INIT 496dc 67c .cfa: sp 0 +
STACK CFI 496e0 .cfa: sp 96 +
STACK CFI 496f8 .cfa: x29 96 + x19: .cfa -8 + ^ x20: .cfa -16 + ^ x21: .cfa -24 + ^ x22: .cfa -32 + ^ x23: .cfa -40 + ^ x24: .cfa -48 + ^ x25: .cfa -56 + ^ x26: .cfa -64 + ^ x27: .cfa -72 + ^ x28: .cfa -80 + ^ .ra: .cfa -88 + ^ x29: .cfa -96 + ^
STACK CFI 49cbc .cfa: sp 96 +
STACK CFI 49cd4 .cfa: sp 0 +
STACK CFI 49cd8 .cfa: x29 96 +
