MODULE Linux arm DEDF7ECC153834DB083BAD1B1FC95F140 elnexreal.menuloop_randomizer.android32.so
INFO CODE_ID CC7EDFDE3815DB34083BAD1B1FC95F149EAC1598
INFO GENERATOR mozilla/dump_syms 2.3.4
PUBLIC 19ca0 0 __on_dlclose
PUBLIC 19cb0 0 __emutls_unregister_key
PUBLIC 19cb4 0 __on_dlclose_late
PUBLIC 19cb8 0 __atexit_handler_wrapper
PUBLIC 19cc4 0 atexit
PUBLIC 19ce4 0 pthread_atfork
FUNC 19cf4 2f4 0 __cxx_global_var_init
FUNC 19fe8 20 0 geode::modifier::ModifyBase<geode::modifier::ModifyDerive<MenuLoopCCDHook, cocos2d::CCDirector> >::~ModifyBase()
FUNC 1a010 750 0 geode::modifier::ModifyDerive<MenuLoopCCDHook, cocos2d::CCDirector>::apply()
FUNC 1a760 3a 0 std::__ndk1::shared_ptr<geode::Hook>::~shared_ptr[abi:ne180000]()
FUNC 1a79c 60 0 geode::impl::ResultData<geode::Hook*, std::__ndk1::basic_string<char, std::__ndk1::char_traits<char>, std::__ndk1::allocator<char> > >::~ResultData()
FUNC 1a7fc 3e 0 std::__ndk1::vector<std::__ndk1::basic_string<char, std::__ndk1::char_traits<char>, std::__ndk1::allocator<char> >, std::__ndk1::allocator<std::__ndk1::basic_string<char, std::__ndk1::char_traits<char>, std::__ndk1::allocator<char> > > >::~vector[abi:ne180000]()
FUNC 1a83a 2 0 geode::modifier::ModifyBase<geode::modifier::ModifyDerive<MenuLoopCCDHook, cocos2d::CCDirector> >::apply()
PUBLIC 1a83d 0 __clang_call_terminate
FUNC 1a848 f8 0 _ZN5geode15UnwrapExceptionC2IRPNS_4HookEQsr4implE18IsStringStreamableIT_EEENS_4impl5OkTagEOS5_
FUNC 1a940 34 0 std::__ndk1::__throw_bad_variant_access[abi:ne180000]()
FUNC 1a974 d8 0 std::__ndk1::basic_stringstream<char, std::__ndk1::char_traits<char>, std::__ndk1::allocator<char> >::basic_stringstream[abi:ne180000]()
FUNC 1aa4c 68 0 std::__ndk1::basic_stringstream<char, std::__ndk1::char_traits<char>, std::__ndk1::allocator<char> >::~basic_stringstream()
FUNC 1aab4 10 0 geode::UnwrapException::~UnwrapException()
FUNC 1aac4 108 0 std::__ndk1::__put_character_sequence[abi:ne180000]<char, std::__ndk1::char_traits<char> >(std::__ndk1::basic_ostream<char, std::__ndk1::char_traits<char> >, std::__ndk1::basic_ostream const*, unsigned int)
FUNC 1abcc 110 0 std::__ndk1::__pad_and_output[abi:ne180000]<char, std::__ndk1::char_traits<char> >(std::__ndk1::char_traits<char>, std::__ndk1::ostreambuf_iterator const*, std::__ndk1::ostreambuf_iterator const, std::__ndk1::ostreambuf_iterator const, std::__ndk1::ios_base&, std::__ndk1::ostreambuf_iterator)
FUNC 1acdc 10 0 std::__ndk1::basic_string<char, std::__ndk1::char_traits<char>, std::__ndk1::allocator<char> >::__throw_length_error[abi:ne180000]() const
FUNC 1acec 38 0 std::__ndk1::__throw_length_error[abi:ne180000](char const*)
FUNC 1ad24 18 0 std::length_error::length_error[abi:ne180000](char const*)
FUNC 1ad3c 28 0 std::__throw_bad_array_new_length([abi:ne180000], void)
FUNC 1ad64 ce 0 std::__ndk1::basic_stringbuf<char, std::__ndk1::char_traits<char>, std::__ndk1::allocator<char> >::str[abi:ne180000]() &&
FUNC 1ae32 e0 0 std::__ndk1::basic_stringbuf<char, std::__ndk1::char_traits<char>, std::__ndk1::allocator<char> >::__init_buf_ptrs[abi:ne180000]()
FUNC 1af14 164 0 std::__ndk1::vector<std::__ndk1::basic_string<char, std::__ndk1::char_traits<char>, std::__ndk1::allocator<char> >, std::__ndk1::allocator<std::__ndk1::basic_string<char, std::__ndk1::char_traits<char>, std::__ndk1::allocator<char> > > >::__push_back_slow_path<std::__ndk1::basic_string<char, std::__ndk1::char_traits<char>, std::__ndk1::allocator<char> > const&>(std::__ndk1::basic_string<char, std::__ndk1::char_traits<char>, std::__ndk1::allocator<char> > const&)
FUNC 1b078 46 0 std::__ndk1::basic_string<char, std::__ndk1::char_traits<char>, std::__ndk1::allocator<char> >::__init_copy_ctor_external(char const*, unsigned int)
FUNC 1b0be 3c 0 std::__ndk1::__split_buffer<std::__ndk1::basic_string<char, std::__ndk1::char_traits<char>, std::__ndk1::allocator<char> >, std::__ndk1::allocator<std::__ndk1::basic_string<char, std::__ndk1::char_traits<char>, std::__ndk1::allocator<char> > >&>::~__split_buffer()
FUNC 1b0fc 10 0 std::__ndk1::vector<std::__ndk1::basic_string<char, std::__ndk1::char_traits<char>, std::__ndk1::allocator<char> >, std::__ndk1::allocator<std::__ndk1::basic_string<char, std::__ndk1::char_traits<char>, std::__ndk1::allocator<char> > > >::__throw_length_error[abi:ne180000]() const
FUNC 1b10c 2 0 std::__ndk1::__variant_detail::__visitation::__base::__dispatcher<(unsigned int)0>::__dispatch[abi:ne180000]<std::__ndk1::__variant_detail::__dtor<std::__ndk1::__variant_detail::__traits<geode::Hook*, std::__ndk1::basic_string<char, std::__ndk1::char_traits<char>, std::__ndk1::allocator<char> > >, (std::__ndk1::__variant_detail::_Trait)1>::__destroy[abi:ne180000]()::{lambda(auto:1&)#1}, std::__ndk1::__variant_detail::__base<(std::__ndk1::__variant_detail::__traits<geode::Hook*, std::__ndk1::basic_string<char, std::__ndk1::char_traits<char>, std::__ndk1::allocator<char> > >)1, geode::Hook, std::__ndk1::allocator<char> >&>(std::__ndk1::__variant_detail::__dtor<std::__ndk1::__variant_detail::__traits<geode::Hook*, std::__ndk1::basic_string<char, std::__ndk1::char_traits<char>, std::__ndk1::allocator<char> > >, (std::__ndk1::__variant_detail::_Trait)1>, std::__ndk1::__variant_detail::__base<(std::__ndk1::__variant_detail::__traits<geode::Hook*, std::__ndk1::basic_string<char, std::__ndk1::char_traits<char>, std::__ndk1::allocator<char> > >)1, geode::Hook, std::__ndk1::allocator<char> >&)
FUNC 1b10e e 0 std::__ndk1::__variant_detail::__visitation::__base::__dispatcher<(unsigned int)1>::__dispatch[abi:ne180000]<std::__ndk1::__variant_detail::__dtor<std::__ndk1::__variant_detail::__traits<geode::Hook*, std::__ndk1::basic_string<char, std::__ndk1::char_traits<char>, std::__ndk1::allocator<char> > >, (std::__ndk1::__variant_detail::_Trait)1>::__destroy[abi:ne180000]()::{lambda(auto:1&)#1}, std::__ndk1::__variant_detail::__base<(std::__ndk1::__variant_detail::__traits<geode::Hook*, std::__ndk1::basic_string<char, std::__ndk1::char_traits<char>, std::__ndk1::allocator<char> > >)1, geode::Hook, std::__ndk1::allocator<char> >&>(std::__ndk1::__variant_detail::__dtor<std::__ndk1::__variant_detail::__traits<geode::Hook*, std::__ndk1::basic_string<char, std::__ndk1::char_traits<char>, std::__ndk1::allocator<char> > >, (std::__ndk1::__variant_detail::_Trait)1>, std::__ndk1::__variant_detail::__base<(std::__ndk1::__variant_detail::__traits<geode::Hook*, std::__ndk1::basic_string<char, std::__ndk1::char_traits<char>, std::__ndk1::allocator<char> > >)1, geode::Hook, std::__ndk1::allocator<char> >&)
FUNC 1b11c c0 0 std::__ndk1::__tree<std::__ndk1::__value_type<std::__ndk1::basic_string<char, std::__ndk1::char_traits<char>, std::__ndk1::allocator<char> >, std::__ndk1::shared_ptr<geode::Hook> >, std::__ndk1::__map_value_compare<std::__ndk1::basic_string<char, std::__ndk1::char_traits<char>, std::__ndk1::allocator<char> >, std::__ndk1::__value_type<std::__ndk1::basic_string<char, std::__ndk1::char_traits<char>, std::__ndk1::allocator<char> >, std::__ndk1::shared_ptr<geode::Hook> >, std::__ndk1::less<std::__ndk1::basic_string<char, std::__ndk1::char_traits<char>, std::__ndk1::allocator<char> > >, true>, std::__ndk1::allocator<std::__ndk1::__value_type<std::__ndk1::basic_string<char, std::__ndk1::char_traits<char>, std::__ndk1::allocator<char> >, std::__ndk1::shared_ptr<geode::Hook> > > >::find<std::__ndk1::basic_string<char, std::__ndk1::char_traits<char>, std::__ndk1::allocator<char> > >(std::__ndk1::basic_string<char, std::__ndk1::char_traits<char>, std::__ndk1::allocator<char> > const&)
FUNC 1b1dc 82 0 std::__ndk1::__tree<std::__ndk1::__value_type<std::__ndk1::basic_string<char, std::__ndk1::char_traits<char>, std::__ndk1::allocator<char> >, std::__ndk1::shared_ptr<geode::Hook> >, std::__ndk1::__map_value_compare<std::__ndk1::basic_string<char, std::__ndk1::char_traits<char>, std::__ndk1::allocator<char> >, std::__ndk1::__value_type<std::__ndk1::basic_string<char, std::__ndk1::char_traits<char>, std::__ndk1::allocator<char> >, std::__ndk1::shared_ptr<geode::Hook> >, std::__ndk1::less<std::__ndk1::basic_string<char, std::__ndk1::char_traits<char>, std::__ndk1::allocator<char> > >, true>, std::__ndk1::allocator<std::__ndk1::__value_type<std::__ndk1::basic_string<char, std::__ndk1::char_traits<char>, std::__ndk1::allocator<char> >, std::__ndk1::shared_ptr<geode::Hook> > > >::erase(std::__ndk1::__tree_const_iterator<std::__ndk1::__value_type<std::__ndk1::basic_string<char, std::__ndk1::char_traits<char>, std::__ndk1::allocator<char> >, std::__ndk1::shared_ptr<geode::Hook> >, std::__ndk1::__tree_node<std::__ndk1::__value_type<std::__ndk1::basic_string<char, std::__ndk1::char_traits<char>, std::__ndk1::allocator<char> >, std::__ndk1::shared_ptr<geode::Hook> >, void*>*, int>)
FUNC 1b25e 274 0 std::__ndk1::__tree_remove[abi:ne180000]<std::__ndk1::__tree_node_base<void*>*>(std::__ndk1::__tree_node_base<void*>*, std::__ndk1::__tree_node_base<void*>*)
FUNC 1b4d2 5e 0 std::__ndk1::__tree<std::__ndk1::__value_type<std::__ndk1::basic_string<char, std::__ndk1::char_traits<char>, std::__ndk1::allocator<char> >, std::__ndk1::shared_ptr<geode::Hook> >, std::__ndk1::__map_value_compare<std::__ndk1::basic_string<char, std::__ndk1::char_traits<char>, std::__ndk1::allocator<char> >, std::__ndk1::__value_type<std::__ndk1::basic_string<char, std::__ndk1::char_traits<char>, std::__ndk1::allocator<char> >, std::__ndk1::shared_ptr<geode::Hook> >, std::__ndk1::less<std::__ndk1::basic_string<char, std::__ndk1::char_traits<char>, std::__ndk1::allocator<char> > >, true>, std::__ndk1::allocator<std::__ndk1::__value_type<std::__ndk1::basic_string<char, std::__ndk1::char_traits<char>, std::__ndk1::allocator<char> >, std::__ndk1::shared_ptr<geode::Hook> > > >::destroy(std::__ndk1::__tree_node<std::__ndk1::__value_type<std::__ndk1::basic_string<char, std::__ndk1::char_traits<char>, std::__ndk1::allocator<char> >, std::__ndk1::shared_ptr<geode::Hook> >, void*>*)
FUNC 1b530 108 0 geode::Hook::create<bool (*)(MenuLoopCCDHook*, cocos2d::CCScene*)>(void*, bool (*)(MenuLoopCCDHook*, cocos2d::CCScene*), std::__ndk1::basic_string<char, std::__ndk1::char_traits<char>, std::__ndk1::allocator<char> > const&, tulip::hook::TulipConvention, tulip::hook::HookMetadata const&)
FUNC 1b638 19c 0 geode::modifier::AsStaticFunction_pushScene<MenuLoopCCDHook, bool (MenuLoopCCDHook::*)(cocos2d::CCScene*)>::Impl<bool (MenuLoopCCDHook::*)(cocos2d::CCScene*)>::function(MenuLoopCCDHook*, cocos2d::CCScene*)
FUNC 1b7d4 19c 0 geode::modifier::AsStaticFunction_replaceScene<MenuLoopCCDHook, bool (MenuLoopCCDHook::*)(cocos2d::CCScene*)>::Impl<bool (MenuLoopCCDHook::*)(cocos2d::CCScene*)>::function(MenuLoopCCDHook*, cocos2d::CCScene*)
FUNC 1b970 1b0 0 geode::modifier::AsStaticFunction_willSwitchToScene<MenuLoopCCDHook, void (MenuLoopCCDHook::*)(cocos2d::CCScene*)>::Impl<void (MenuLoopCCDHook::*)(cocos2d::CCScene*)>::function(MenuLoopCCDHook*, cocos2d::CCScene*)
FUNC 1bb20 3a 0 std::__ndk1::shared_ptr<tulip::hook::CallingConvention>::~shared_ptr[abi:ne180000]()
FUNC 1bb5a 46 0 tulip::hook::HandlerMetadata::~HandlerMetadata()
FUNC 1bba0 8c 0 geode::cast::traverseTypeinfoFor(void*, geode::cast::ClassTypeinfoType const*, char const*)
FUNC 1bc2c ba 0 std::__ndk1::__tree<std::__ndk1::__value_type<std::__ndk1::basic_string<char, std::__ndk1::char_traits<char>, std::__ndk1::allocator<char> >, std::__ndk1::shared_ptr<geode::Hook> >, std::__ndk1::__map_value_compare<std::__ndk1::basic_string<char, std::__ndk1::char_traits<char>, std::__ndk1::allocator<char> >, std::__ndk1::__value_type<std::__ndk1::basic_string<char, std::__ndk1::char_traits<char>, std::__ndk1::allocator<char> >, std::__ndk1::shared_ptr<geode::Hook> >, std::__ndk1::less<std::__ndk1::basic_string<char, std::__ndk1::char_traits<char>, std::__ndk1::allocator<char> > >, true>, std::__ndk1::allocator<std::__ndk1::__value_type<std::__ndk1::basic_string<char, std::__ndk1::char_traits<char>, std::__ndk1::allocator<char> >, std::__ndk1::shared_ptr<geode::Hook> > > >::__find_equal<std::__ndk1::basic_string<char, std::__ndk1::char_traits<char>, std::__ndk1::allocator<char> > >(std::__ndk1::__tree_end_node<std::__ndk1::__tree_node_base<void*>*>*&, std::__ndk1::basic_string<char, std::__ndk1::char_traits<char>, std::__ndk1::allocator<char> > const&)
FUNC 1bce6 14a 0 std::__ndk1::__tree_balance_after_insert[abi:ne180000]<std::__ndk1::__tree_node_base<void*>*>(std::__ndk1::__tree_node_base<void*>*, std::__ndk1::__tree_node_base<void*>*)
FUNC 1be30 2f4 0 __cxx_global_var_init
FUNC 1c124 20 0 geode::modifier::ModifyBase<geode::modifier::ModifyDerive<MenuLoopCCSchedulerHook, cocos2d::CCScheduler> >::~ModifyBase()
FUNC 1c150 30c 0 geode::modifier::ModifyDerive<MenuLoopCCSchedulerHook, cocos2d::CCScheduler>::apply()
FUNC 1c45c 2 0 geode::modifier::ModifyBase<geode::modifier::ModifyDerive<MenuLoopCCSchedulerHook, cocos2d::CCScheduler> >::apply()
FUNC 1c460 ac 0 geode::modifier::AsStaticFunction_update<MenuLoopCCSchedulerHook, void (MenuLoopCCSchedulerHook::*)(float)>::Impl<void (MenuLoopCCSchedulerHook::*)(float)>::function(MenuLoopCCSchedulerHook*, float)
FUNC 1c50c a0 0 geode::addresser::Addresser::addressOfVirtual<void, cocos2d::CCScheduler, float>(void (cocos2d::CCScheduler::*)(float))
FUNC 1c5ac ca 0 SongManager::~SongManager()
FUNC 1c678 2f4 0 __cxx_global_var_init
FUNC 1c96c 20 0 geode::modifier::ModifyBase<geode::modifier::ModifyDerive<MenuLoopEPLHook, EditorPauseLayer> >::~ModifyBase()
FUNC 1c990 320 0 geode::modifier::ModifyDerive<MenuLoopEPLHook, EditorPauseLayer>::apply()
FUNC 1ccb0 2 0 geode::modifier::ModifyBase<geode::modifier::ModifyDerive<MenuLoopEPLHook, EditorPauseLayer> >::apply()
FUNC 1ccb4 2bc 0 geode::modifier::AsStaticFunction_onExitEditor<MenuLoopEPLHook, void (MenuLoopEPLHook::*)(cocos2d::CCObject*)>::Impl<void (MenuLoopEPLHook::*)(cocos2d::CCObject*)>::function(MenuLoopEPLHook*, cocos2d::CCObject*)
FUNC 1cf70 1c0 0 geode::modifier::FieldContainer::getField(unsigned int)
FUNC 1d130 ae 0 geode::modifier::FieldContainer::setField(unsigned int, unsigned int, std::__ndk1::function<void (void*)>)
FUNC 1d1de 2 0 geode::modifier::FieldIntermediate<MenuLoopEPLHook, EditorPauseLayer>::fieldDestructor(void*)
FUNC 1d1e0 10 0 std::__ndk1::vector<void*, std::__ndk1::allocator<void*> >::__throw_length_error[abi:ne180000]() const
FUNC 1d1f0 186 0 std::__ndk1::vector<std::__ndk1::function<void (void*)>, std::__ndk1::allocator<std::__ndk1::function<void (void*)> > >::__push_back_slow_path<std::__ndk1::function<void (void*)> >(std::__ndk1::function<void (void*)>&&)
FUNC 1d378 10 0 std::__ndk1::vector<std::__ndk1::function<void (void*)>, std::__ndk1::allocator<std::__ndk1::function<void (void*)> > >::__throw_length_error[abi:ne180000]() const
FUNC 1d388 10 0 std::__ndk1::vector<void*, std::__ndk1::allocator<void*> >::__throw_out_of_range[abi:ne180000]() const
FUNC 1d398 38 0 std::__ndk1::__throw_out_of_range[abi:ne180000](char const*)
FUNC 1d3d0 18 0 std::out_of_range::out_of_range[abi:ne180000](char const*)
FUNC 1d3e8 10 0 std::__ndk1::vector<std::__ndk1::function<void (void*)>, std::__ndk1::allocator<std::__ndk1::function<void (void*)> > >::__throw_out_of_range[abi:ne180000]() const
FUNC 1d3f8 2 0 std::__ndk1::__function::__base<void (void*)>::~__base()
FUNC 1d3fa 4 0 std::__ndk1::__function::__func<void (*)(void*), std::__ndk1::allocator<void (*)(void*)>, void (void*)>::~__func()
FUNC 1d400 20 0 std::__ndk1::__function::__func<void (*)(void*), std::__ndk1::allocator<void (*)(void*)>, void (void*)>::__clone() const
FUNC 1d420 14 0 std::__ndk1::__function::__func<void (*)(void*), std::__ndk1::allocator<void (*)(void*)>, void (void*)>::__clone(std::__ndk1::__function::__base<void (void*)>*) const
FUNC 1d434 2 0 std::__ndk1::__function::__func<void (*)(void*), std::__ndk1::allocator<void (*)(void*)>, void (void*)>::destroy()
FUNC 1d436 4 0 std::__ndk1::__function::__func<void (*)(void*), std::__ndk1::allocator<void (*)(void*)>, void (void*)>::destroy_deallocate()
FUNC 1d43a 8 0 std::__ndk1::__function::__func<void (*)(void*), std::__ndk1::allocator<void (*)(void*)>, void (void*)>::operator()(void*&&)
FUNC 1d444 18 0 std::__ndk1::__function::__func<void (*)(void*), std::__ndk1::allocator<void (*)(void*)>, void (void*)>::target(std::type_info const&) const
FUNC 1d45c c 0 std::__ndk1::__function::__func<void (*)(void*), std::__ndk1::allocator<void (*)(void*)>, void (void*)>::target_type() const
FUNC 1d468 84 0 std::__ndk1::basic_regex<char, std::__ndk1::regex_traits<char> >::basic_regex[abi:ne180000](char const*, std::__ndk1::regex_constants::syntax_option_type)
FUNC 1d4ec 44 0 std::__ndk1::basic_regex<char, std::__ndk1::regex_traits<char> >::~basic_regex()
FUNC 1d530 2f4 0 __cxx_global_var_init.3
FUNC 1d824 20 0 geode::modifier::ModifyBase<geode::modifier::ModifyDerive<MenuLoopFMODHook, FMODAudioEngine> >::~ModifyBase()
FUNC 1d844 3a 0 std::__ndk1::shared_ptr<std::__ndk1::__empty_state<char> >::~shared_ptr[abi:ne180000]()
FUNC 1d880 2a0 0 std::__ndk1::basic_regex<char, std::__ndk1::regex_traits<char> >::__parse<char const*>(char const*, char const*)
FUNC 1db20 38 0 std::__ndk1::__throw_regex_error[abi:ne180000]<(std::__ndk1::regex_constants::error_type)17>()
FUNC 1db58 180 0 std::__ndk1::basic_regex<char, std::__ndk1::regex_traits<char> >::__parse_ecma_exp<char const*>(char const*, char const*)
FUNC 1dcd8 f4 0 std::__ndk1::basic_regex<char, std::__ndk1::regex_traits<char> >::__parse_basic_reg_exp<char const*>(char const*, char const*)
FUNC 1ddcc f8 0 std::__ndk1::basic_regex<char, std::__ndk1::regex_traits<char> >::__parse_extended_reg_exp<char const*>(char const*, char const*)
FUNC 1dec4 134 0 std::__ndk1::basic_regex<char, std::__ndk1::regex_traits<char> >::__parse_grep<char const*>(char const*, char const*)
FUNC 1dff8 134 0 std::__ndk1::basic_regex<char, std::__ndk1::regex_traits<char> >::__parse_egrep<char const*>(char const*, char const*)
FUNC 1e12c 38 0 std::__ndk1::__throw_regex_error[abi:ne180000]<(std::__ndk1::regex_constants::error_type)14>()
FUNC 1e164 4 0 std::__ndk1::__end_state<char>::~__end_state()
FUNC 1e168 c 0 std::__ndk1::__end_state<char>::__exec(std::__ndk1::__state<char>&) const
FUNC 1e174 2 0 std::__ndk1::__node<char>::__exec_split(bool, std::__ndk1::__state<char>&) const
FUNC 1e176 2 0 std::__ndk1::__node<char>::__exec(std::__ndk1::__state<char>&) const
FUNC 1e178 10 0 std::__ndk1::__shared_ptr_pointer<std::__ndk1::__empty_state<char>*, std::__ndk1::shared_ptr<std::__ndk1::__empty_state<char> >::__shared_ptr_default_delete<std::__ndk1::__empty_state<char>, std::__ndk1::__empty_state<char> >, std::__ndk1::allocator<std::__ndk1::__empty_state<char> > >::~__shared_ptr_pointer()
FUNC 1e188 e 0 std::__ndk1::__shared_ptr_pointer<std::__ndk1::__empty_state<char>*, std::__ndk1::shared_ptr<std::__ndk1::__empty_state<char> >::__shared_ptr_default_delete<std::__ndk1::__empty_state<char>, std::__ndk1::__empty_state<char> >, std::__ndk1::allocator<std::__ndk1::__empty_state<char> > >::__on_zero_shared()
FUNC 1e198 1c 0 std::__ndk1::__shared_ptr_pointer<std::__ndk1::__empty_state<char>*, std::__ndk1::shared_ptr<std::__ndk1::__empty_state<char> >::__shared_ptr_default_delete<std::__ndk1::__empty_state<char>, std::__ndk1::__empty_state<char> >, std::__ndk1::allocator<std::__ndk1::__empty_state<char> > >::__get_deleter(std::type_info const&) const
FUNC 1e1b4 4 0 std::__ndk1::__shared_ptr_pointer<std::__ndk1::__empty_state<char>*, std::__ndk1::shared_ptr<std::__ndk1::__empty_state<char> >::__shared_ptr_default_delete<std::__ndk1::__empty_state<char>, std::__ndk1::__empty_state<char> >, std::__ndk1::allocator<std::__ndk1::__empty_state<char> > >::__on_zero_shared_weak()
FUNC 1e1b8 30 0 std::__ndk1::__empty_state<char>::~__empty_state()
FUNC 1e1e8 10 0 std::__ndk1::__empty_state<char>::__exec(std::__ndk1::__state<char>&) const
FUNC 1e1f8 30 0 std::__ndk1::__owns_one_state<char>::~__owns_one_state()
FUNC 1e228 208 0 std::__ndk1::basic_regex<char, std::__ndk1::regex_traits<char> >::__parse_assertion<char const*>(char const*, char const*)
FUNC 1e430 214 0 std::__ndk1::basic_regex<char, std::__ndk1::regex_traits<char> >::__parse_atom<char const*>(char const*, char const*)
FUNC 1e644 24e 0 std::__ndk1::basic_regex<char, std::__ndk1::regex_traits<char> >::__parse_ERE_dupl_symbol<char const*>(char const*, char const*, std::__ndk1::__owns_one_state<char>*, unsigned int, unsigned int)
FUNC 1e894 50 0 std::__ndk1::basic_regex<char, std::__ndk1::regex_traits<char> >::basic_regex[abi:ne180000]()
FUNC 1e8e4 84 0 std::__ndk1::basic_regex<char, std::__ndk1::regex_traits<char> >::__push_lookahead(std::__ndk1::basic_regex<char, std::__ndk1::regex_traits<char> > const&, bool, unsigned int)
FUNC 1e968 38 0 std::__ndk1::__throw_regex_error[abi:ne180000]<(std::__ndk1::regex_constants::error_type)6>()
FUNC 1e9a0 30 0 std::__ndk1::__l_anchor_multiline<char>::~__l_anchor_multiline()
FUNC 1e9d0 48 0 std::__ndk1::__l_anchor_multiline<char>::__exec(std::__ndk1::__state<char>&) const
FUNC 1ea18 30 0 std::__ndk1::__r_anchor_multiline<char>::~__r_anchor_multiline()
FUNC 1ea48 3a 0 std::__ndk1::__r_anchor_multiline<char>::__exec(std::__ndk1::__state<char>&) const
FUNC 1ea84 3c 0 std::__ndk1::__word_boundary<char, std::__ndk1::regex_traits<char> >::~__word_boundary()
FUNC 1eac0 40 0 std::__ndk1::__word_boundary<char, std::__ndk1::regex_traits<char> >::~__word_boundary()
FUNC 1eb00 d4 0 std::__ndk1::__word_boundary<char, std::__ndk1::regex_traits<char> >::__exec(std::__ndk1::__state<char>&) const
FUNC 1ebd4 74 0 std::__ndk1::__lookahead<char, std::__ndk1::regex_traits<char> >::~__lookahead()
FUNC 1ec48 7c 0 std::__ndk1::__lookahead<char, std::__ndk1::regex_traits<char> >::~__lookahead()
FUNC 1ecc4 150 0 std::__ndk1::__lookahead<char, std::__ndk1::regex_traits<char> >::__exec(std::__ndk1::__state<char>&) const
FUNC 1ee14 32c 0 std::__ndk1::basic_regex<char, std::__ndk1::regex_traits<char> >::__match_at_start_ecma<std::__ndk1::allocator<std::__ndk1::sub_match<char const*> > >(char const*, char const*, std::__ndk1::match_results<char const*, std::__ndk1::allocator<std::__ndk1::sub_match<char const*> > >&, std::__ndk1::regex_constants::match_flag_type, bool) const
FUNC 1f140 124 0 std::__ndk1::vector<std::__ndk1::sub_match<char const*>, std::__ndk1::allocator<std::__ndk1::sub_match<char const*> > >::assign(unsigned int, std::__ndk1::sub_match<char const*> const&)
FUNC 1f264 10 0 std::__ndk1::vector<std::__ndk1::sub_match<char const*>, std::__ndk1::allocator<std::__ndk1::sub_match<char const*> > >::__throw_length_error[abi:ne180000]() const
FUNC 1f274 22 0 std::__ndk1::__state<char>::~__state()
FUNC 1f298 38 0 std::__ndk1::__throw_regex_error[abi:ne180000]<(std::__ndk1::regex_constants::error_type)12>()
FUNC 1f2d0 11c 0 std::__ndk1::__state<char>::__state(std::__ndk1::__state<char> const&)
FUNC 1f3ec 38 0 std::__ndk1::__throw_regex_error[abi:ne180000]<(std::__ndk1::regex_constants::error_type)16>()
FUNC 1f424 4c 0 std::__ndk1::vector<std::__ndk1::__state<char>, std::__ndk1::allocator<std::__ndk1::__state<char> > >::~vector[abi:ne180000]()
FUNC 1f470 182 0 std::__ndk1::vector<std::__ndk1::__state<char>, std::__ndk1::allocator<std::__ndk1::__state<char> > >::__push_back_slow_path<std::__ndk1::__state<char> >(std::__ndk1::__state<char>&&)
FUNC 1f5f4 10 0 std::__ndk1::vector<std::__ndk1::__state<char>, std::__ndk1::allocator<std::__ndk1::__state<char> > >::__throw_length_error[abi:ne180000]() const
FUNC 1f604 126 0 std::__ndk1::vector<std::__ndk1::sub_match<char const*>, std::__ndk1::allocator<std::__ndk1::sub_match<char const*> > >::__append(unsigned int, std::__ndk1::sub_match<char const*> const&)
FUNC 1f72a 122 0 std::__ndk1::vector<std::__ndk1::pair<unsigned int, char const*>, std::__ndk1::allocator<std::__ndk1::pair<unsigned int, char const*> > >::__append(unsigned int)
FUNC 1f84c 10 0 std::__ndk1::vector<std::__ndk1::pair<unsigned int, char const*>, std::__ndk1::allocator<std::__ndk1::pair<unsigned int, char const*> > >::__throw_length_error[abi:ne180000]() const
FUNC 1f85c ce 0 std::__ndk1::basic_regex<char, std::__ndk1::regex_traits<char> >::__parse_bracket_expression<char const*>(char const*, char const*)
FUNC 1f92c 38 0 std::__ndk1::__throw_regex_error[abi:ne180000]<(std::__ndk1::regex_constants::error_type)11>()
FUNC 1f964 84 0 std::__ndk1::basic_regex<char, std::__ndk1::regex_traits<char> >::__parse_pattern_character<char const*>(char const*, char const*)
FUNC 1f9e8 30 0 std::__ndk1::__match_any_but_newline<char>::~__match_any_but_newline()
FUNC 1fa18 38 0 std::__ndk1::__throw_regex_error[abi:ne180000]<(std::__ndk1::regex_constants::error_type)3>()
FUNC 1fa50 84 0 std::__ndk1::basic_regex<char, std::__ndk1::regex_traits<char> >::__parse_decimal_escape<char const*>(char const*, char const*)
FUNC 1fad4 190 0 std::__ndk1::basic_regex<char, std::__ndk1::regex_traits<char> >::__parse_character_class_escape<char const*>(char const*, char const*)
FUNC 1fc64 35e 0 std::__ndk1::basic_regex<char, std::__ndk1::regex_traits<char> >::__parse_character_escape<char const*>(char const*, char const*, std::__ndk1::basic_string<char, std::__ndk1::char_traits<char>, std::__ndk1::allocator<char> >*)
FUNC 1ffc4 e4 0 std::__ndk1::basic_regex<char, std::__ndk1::regex_traits<char> >::__push_char(char)
FUNC 200a8 38 0 std::__ndk1::__throw_regex_error[abi:ne180000]<(std::__ndk1::regex_constants::error_type)4>()
FUNC 200e0 88 0 std::__ndk1::basic_regex<char, std::__ndk1::regex_traits<char> >::__push_back_ref(int)
FUNC 20168 3c 0 std::__ndk1::__match_char_icase<char, std::__ndk1::regex_traits<char> >::~__match_char_icase()
FUNC 201a4 40 0 std::__ndk1::__match_char_icase<char, std::__ndk1::regex_traits<char> >::~__match_char_icase()
FUNC 201e4 42 0 std::__ndk1::__match_char_icase<char, std::__ndk1::regex_traits<char> >::__exec(std::__ndk1::__state<char>&) const
FUNC 20228 3c 0 std::__ndk1::__match_char_collate<char, std::__ndk1::regex_traits<char> >::~__match_char_collate()
FUNC 20264 40 0 std::__ndk1::__match_char_collate<char, std::__ndk1::regex_traits<char> >::~__match_char_collate()
FUNC 202a4 32 0 std::__ndk1::__match_char_collate<char, std::__ndk1::regex_traits<char> >::__exec(std::__ndk1::__state<char>&) const
FUNC 202d8 30 0 std::__ndk1::__match_char<char>::~__match_char()
FUNC 20308 32 0 std::__ndk1::__match_char<char>::__exec(std::__ndk1::__state<char>&) const
FUNC 2033c 3c 0 std::__ndk1::__back_ref_icase<char, std::__ndk1::regex_traits<char> >::~__back_ref_icase()
FUNC 20378 40 0 std::__ndk1::__back_ref_icase<char, std::__ndk1::regex_traits<char> >::~__back_ref_icase()
FUNC 203b8 8e 0 std::__ndk1::__back_ref_icase<char, std::__ndk1::regex_traits<char> >::__exec(std::__ndk1::__state<char>&) const
FUNC 20448 3c 0 std::__ndk1::__back_ref_collate<char, std::__ndk1::regex_traits<char> >::~__back_ref_collate()
FUNC 20484 40 0 std::__ndk1::__back_ref_collate<char, std::__ndk1::regex_traits<char> >::~__back_ref_collate()
FUNC 204c4 6c 0 std::__ndk1::__back_ref_collate<char, std::__ndk1::regex_traits<char> >::__exec(std::__ndk1::__state<char>&) const
FUNC 20530 30 0 std::__ndk1::__back_ref<char>::~__back_ref()
FUNC 20560 7a 0 std::__ndk1::__back_ref<char>::__exec(std::__ndk1::__state<char>&) const
FUNC 205da 246 0 std::__ndk1::__bracket_expression<char, std::__ndk1::regex_traits<char> >::__add_char[abi:ne180000](char)
FUNC 20820 138 0 std::__ndk1::__bracket_expression<char, std::__ndk1::regex_traits<char> >::__bracket_expression[abi:ne180000](std::__ndk1::regex_traits<char> const&, std::__ndk1::__node<char>*, bool, bool, bool)
FUNC 20958 4c 0 std::__ndk1::vector<std::__ndk1::pair<std::__ndk1::basic_string<char, std::__ndk1::char_traits<char>, std::__ndk1::allocator<char> >, std::__ndk1::basic_string<char, std::__ndk1::char_traits<char>, std::__ndk1::allocator<char> > >, std::__ndk1::allocator<std::__ndk1::pair<std::__ndk1::basic_string<char, std::__ndk1::char_traits<char>, std::__ndk1::allocator<char> >, std::__ndk1::basic_string<char, std::__ndk1::char_traits<char>, std::__ndk1::allocator<char> > > > >::~vector[abi:ne180000]()
FUNC 209a4 d0 0 std::__ndk1::__bracket_expression<char, std::__ndk1::regex_traits<char> >::~__bracket_expression()
FUNC 20a74 10 0 std::__ndk1::__bracket_expression<char, std::__ndk1::regex_traits<char> >::~__bracket_expression()
FUNC 20a84 7d8 0 std::__ndk1::__bracket_expression<char, std::__ndk1::regex_traits<char> >::__exec(std::__ndk1::__state<char>&) const
FUNC 2125c 22 0 std::__ndk1::pair<std::__ndk1::basic_string<char, std::__ndk1::char_traits<char>, std::__ndk1::allocator<char> >, std::__ndk1::basic_string<char, std::__ndk1::char_traits<char>, std::__ndk1::allocator<char> > >::~pair()
FUNC 21280 1c4 0 std::__ndk1::regex_traits<char>::__lookup_collatename<char*>(char*, char*, char) const
FUNC 21444 66 0 std::__ndk1::basic_string<char, std::__ndk1::char_traits<char>, std::__ndk1::allocator<char> >::__assign_no_alias<true>(char const*, unsigned int)
FUNC 214aa a6 0 std::__ndk1::basic_string<char, std::__ndk1::char_traits<char>, std::__ndk1::allocator<char> >::__assign_no_alias<false>(char const*, unsigned int)
FUNC 21550 118 0 std::__ndk1::regex_traits<char>::__transform_primary<char*>(char*, char*, char) const
FUNC 21668 10 0 std::__ndk1::vector<char, std::__ndk1::allocator<char> >::__throw_length_error[abi:ne180000]() const
FUNC 21678 38 0 std::__ndk1::__throw_regex_error[abi:ne180000]<(std::__ndk1::regex_constants::error_type)5>()
FUNC 216b0 2d0 0 std::__ndk1::basic_regex<char, std::__ndk1::regex_traits<char> >::__parse_expression_term<char const*>(char const*, char const*, std::__ndk1::__bracket_expression<char, std::__ndk1::regex_traits<char> >*)
FUNC 21980 184 0 std::__ndk1::basic_regex<char, std::__ndk1::regex_traits<char> >::__parse_equivalence_class<char const*>(char const*, char const*, std::__ndk1::__bracket_expression<char, std::__ndk1::regex_traits<char> >*)
FUNC 21b04 a4 0 std::__ndk1::basic_regex<char, std::__ndk1::regex_traits<char> >::__parse_collating_symbol<char const*>(char const*, char const*, std::__ndk1::basic_string<char, std::__ndk1::char_traits<char>, std::__ndk1::allocator<char> >&)
FUNC 21ba8 100 0 std::__ndk1::basic_regex<char, std::__ndk1::regex_traits<char> >::__parse_class_escape<char const*>(char const*, char const*, std::__ndk1::basic_string<char, std::__ndk1::char_traits<char>, std::__ndk1::allocator<char> >&, std::__ndk1::__bracket_expression<char, std::__ndk1::regex_traits<char> >*)
FUNC 21ca8 292 0 std::__ndk1::basic_regex<char, std::__ndk1::regex_traits<char> >::__parse_awk_escape<char const*>(char const*, char const*, std::__ndk1::basic_string<char, std::__ndk1::char_traits<char>, std::__ndk1::allocator<char> >*)
FUNC 21f3c 31c 0 std::__ndk1::__bracket_expression<char, std::__ndk1::regex_traits<char> >::__add_range[abi:ne180000](std::__ndk1::basic_string<char, std::__ndk1::char_traits<char>, std::__ndk1::allocator<char> >, std::__ndk1::allocator<char>)
FUNC 22258 2c8 0 std::__ndk1::__bracket_expression<char, std::__ndk1::regex_traits<char> >::__add_digraph[abi:ne180000](char, char)
FUNC 22520 38 0 std::__ndk1::__throw_regex_error[abi:ne180000]<(std::__ndk1::regex_constants::error_type)1>()
FUNC 22558 1c4 0 std::__ndk1::regex_traits<char>::__lookup_collatename<char const*>(char const*, char const*, char) const
FUNC 2271c 144 0 std::__ndk1::regex_traits<char>::__transform_primary<std::__ndk1::__wrap_iter<char*> >(std::__ndk1::__wrap_iter<char*>, std::__ndk1::__wrap_iter<char*>, char) const
FUNC 22860 38 0 std::__ndk1::__throw_regex_error[abi:ne180000]<(std::__ndk1::regex_constants::error_type)2>()
FUNC 22898 ec 0 std::__ndk1::regex_traits<char>::__lookup_classname<char const*>(char const*, char const*, bool, char) const
FUNC 22984 246 0 std::__ndk1::__bracket_expression<char, std::__ndk1::regex_traits<char> >::__add_neg_char[abi:ne180000](char)
FUNC 22bcc 10c 0 std::__ndk1::regex_traits<char>::transform<std::__ndk1::__wrap_iter<char*> >(std::__ndk1::__wrap_iter<char*>, std::__ndk1::__wrap_iter<char*>) const
FUNC 22cd8 38 0 std::__ndk1::__throw_regex_error[abi:ne180000]<(std::__ndk1::regex_constants::error_type)9>()
FUNC 22d10 142 0 std::__ndk1::vector<std::__ndk1::pair<std::__ndk1::basic_string<char, std::__ndk1::char_traits<char>, std::__ndk1::allocator<char> >, std::__ndk1::basic_string<char, std::__ndk1::char_traits<char>, std::__ndk1::allocator<char> > >, std::__ndk1::allocator<std::__ndk1::pair<std::__ndk1::basic_string<char, std::__ndk1::char_traits<char>, std::__ndk1::allocator<char> >, std::__ndk1::basic_string<char, std::__ndk1::char_traits<char>, std::__ndk1::allocator<char> > > > >::__push_back_slow_path<std::__ndk1::pair<std::__ndk1::basic_string<char, std::__ndk1::char_traits<char>, std::__ndk1::allocator<char> >, std::__ndk1::basic_string<char, std::__ndk1::char_traits<char>, std::__ndk1::allocator<char> > > >(std::__ndk1::pair<std::__ndk1::basic_string<char, std::__ndk1::char_traits<char>, std::__ndk1::allocator<char> >, std::__ndk1::basic_string<char, std::__ndk1::char_traits<char>, std::__ndk1::allocator<char> > >&&)
FUNC 22e54 10 0 std::__ndk1::vector<std::__ndk1::pair<std::__ndk1::basic_string<char, std::__ndk1::char_traits<char>, std::__ndk1::allocator<char> >, std::__ndk1::basic_string<char, std::__ndk1::char_traits<char>, std::__ndk1::allocator<char> > >, std::__ndk1::allocator<std::__ndk1::pair<std::__ndk1::basic_string<char, std::__ndk1::char_traits<char>, std::__ndk1::allocator<char> >, std::__ndk1::basic_string<char, std::__ndk1::char_traits<char>, std::__ndk1::allocator<char> > > > >::__throw_length_error[abi:ne180000]() const
FUNC 22e64 10 0 std::__ndk1::vector<std::__ndk1::pair<char, char>, std::__ndk1::allocator<std::__ndk1::pair<char, char> > >::__throw_length_error[abi:ne180000]() const
FUNC 22e74 30 0 std::__ndk1::__begin_marked_subexpression<char>::~__begin_marked_subexpression()
FUNC 22ea4 28 0 std::__ndk1::__begin_marked_subexpression<char>::__exec(std::__ndk1::__state<char>&) const
FUNC 22ecc 30 0 std::__ndk1::__end_marked_subexpression<char>::~__end_marked_subexpression()
FUNC 22efc 2e 0 std::__ndk1::__end_marked_subexpression<char>::__exec(std::__ndk1::__state<char>&) const
FUNC 22f2c dc 0 std::__ndk1::basic_regex<char, std::__ndk1::regex_traits<char> >::__push_loop(unsigned int, unsigned int, std::__ndk1::__owns_one_state<char>*, unsigned int, unsigned int, bool)
FUNC 23008 38 0 std::__ndk1::__throw_regex_error[abi:ne180000]<(std::__ndk1::regex_constants::error_type)8>()
FUNC 23040 38 0 std::__ndk1::__throw_regex_error[abi:ne180000]<(std::__ndk1::regex_constants::error_type)7>()
FUNC 23078 44 0 std::__ndk1::__loop<char>::~__loop()
FUNC 230bc 106 0 std::__ndk1::__loop<char>::__exec(std::__ndk1::__state<char>&) const
FUNC 231c2 5c 0 std::__ndk1::__loop<char>::__exec_split(bool, std::__ndk1::__state<char>&) const
FUNC 23220 44 0 std::__ndk1::__owns_two_states<char>::~__owns_two_states()
FUNC 23264 4 0 std::__ndk1::__repeat_one_loop<char>::~__repeat_one_loop()
FUNC 23268 10 0 std::__ndk1::__repeat_one_loop<char>::__exec(std::__ndk1::__state<char>&) const
FUNC 23278 40 0 std::__ndk1::__owns_two_states<char>::~__owns_two_states()
FUNC 232b8 44 0 std::__ndk1::__alternate<char>::~__alternate()
FUNC 232fc c 0 std::__ndk1::__alternate<char>::__exec(std::__ndk1::__state<char>&) const
FUNC 23308 1a 0 std::__ndk1::__alternate<char>::__exec_split(bool, std::__ndk1::__state<char>&) const
FUNC 23322 2 0 std::__ndk1::__node<char>::~__node()
FUNC 23324 4 0 std::__ndk1::__empty_non_own_state<char>::~__empty_non_own_state()
FUNC 23328 10 0 std::__ndk1::__empty_non_own_state<char>::__exec(std::__ndk1::__state<char>&) const
FUNC 23338 38 0 std::__ndk1::__throw_regex_error[abi:ne180000]<(std::__ndk1::regex_constants::error_type)15>()
FUNC 23370 14c 0 std::__ndk1::basic_regex<char, std::__ndk1::regex_traits<char> >::__parse_nondupl_RE<char const*>(char const*, char const*)
FUNC 234bc 182 0 std::__ndk1::basic_regex<char, std::__ndk1::regex_traits<char> >::__parse_RE_dupl_symbol<char const*>(char const*, char const*, std::__ndk1::__owns_one_state<char>*, unsigned int, unsigned int)
FUNC 23640 a0 0 std::__ndk1::basic_regex<char, std::__ndk1::regex_traits<char> >::__parse_one_char_or_coll_elem_RE<char const*>(char const*, char const*)
FUNC 236e0 70 0 std::__ndk1::basic_regex<char, std::__ndk1::regex_traits<char> >::__parse_QUOTED_CHAR<char const*>(char const*, char const*)
FUNC 23750 2c 0 std::__ndk1::__owns_one_state<char>::~__owns_one_state()
FUNC 2377c 30 0 std::__ndk1::__match_any<char>::~__match_any()
FUNC 237ac 2e 0 std::__ndk1::__match_any<char>::__exec(std::__ndk1::__state<char>&) const
FUNC 237da 34 0 std::__ndk1::basic_regex<char, std::__ndk1::regex_traits<char> >::__test_back_ref(char)
FUNC 23810 18c 0 std::__ndk1::basic_regex<char, std::__ndk1::regex_traits<char> >::__parse_ERE_expression<char const*>(char const*, char const*)
FUNC 2399c 8a 0 std::__ndk1::basic_regex<char, std::__ndk1::regex_traits<char> >::__parse_ORD_CHAR_ERE<char const*>(char const*, char const*)
FUNC 23a28 bc 0 std::__ndk1::basic_regex<char, std::__ndk1::regex_traits<char> >::__parse_QUOTED_CHAR_ERE<char const*>(char const*, char const*)
FUNC 23af0 3a8 0 geode::modifier::ModifyDerive<MenuLoopFMODHook, FMODAudioEngine>::apply()
FUNC 23e98 2 0 geode::modifier::ModifyBase<geode::modifier::ModifyDerive<MenuLoopFMODHook, FMODAudioEngine> >::apply()
FUNC 23e9c 518 0 geode::modifier::AsStaticFunction_playMusic<MenuLoopFMODHook, void (MenuLoopFMODHook::*)(gd::string, bool, float, int)>::Impl<void (MenuLoopFMODHook::*)(gd::string, bool, float, int)>::function(MenuLoopFMODHook*, gd::string, bool, float, int)
FUNC 243b4 10 0 std::__ndk1::vector<tulip::hook::AbstractType, std::__ndk1::allocator<tulip::hook::AbstractType> >::__throw_length_error[abi:ne180000]() const
FUNC 243c4 16 0 geode::cocos::CCArrayExt<cocos2d::CCObject*>::~CCArrayExt()
FUNC 243dc 68 0 geode::log::info<>(fmt::v11::basic_format_string<char, fmt::v11::type_identity<decltype ((wrapCocosObj<>)((std::declval<>)()))>::type>, &&)
FUNC 24444 a0 0 fmt::v11::detail::value<fmt::v11::context>::format_custom_arg<gd::string, fmt::v11::formatter<gd::string, char, void> >(void*, fmt::v11::basic_format_parse_context<char>&, fmt::v11::context&)
FUNC 244e4 e8 0 fmt::v11::formatter<gd::string, char, void>::format<fmt::v11::context>(gd::string const&, fmt::v11::context&) const
FUNC 245cc 468 0 fmt::v11::detail::parse_format_specs<char>(char const*, char const*, fmt::v11::detail::dynamic_format_specs<char>&, fmt::v11::basic_format_parse_context<char>&, fmt::v11::detail::type)
FUNC 24a34 10c 0 fmt::v11::detail::parse_dynamic_spec<char>(char const*, char const*, int&, fmt::v11::detail::arg_ref<char>&, fmt::v11::basic_format_parse_context<char>&)
FUNC 24b40 114 0 fmt::v11::detail::do_parse_arg_id<char, fmt::v11::detail::dynamic_spec_id_handler<char>&>(char const*, char const*, fmt::v11::detail::dynamic_spec_id_handler<char>&)
FUNC 24c54 bc 0 fmt::v11::detail::handle_dynamic_spec<fmt::v11::detail::width_checker, fmt::v11::context>(int&, fmt::v11::detail::arg_ref<fmt::v11::context::char_type>, fmt::v11::context&)
FUNC 24d10 bc 0 fmt::v11::detail::handle_dynamic_spec<fmt::v11::detail::precision_checker, fmt::v11::context>(int&, fmt::v11::detail::arg_ref<fmt::v11::context::char_type>, fmt::v11::context&)
FUNC 24dcc 16c 0 fmt::v11::detail::write<char, fmt::v11::basic_appender<char> >(fmt::v11::basic_appender<char>, fmt::v11::basic_string_view<char>, fmt::v11::format_specs const&)
FUNC 24f38 118 0 fmt::v11::detail::write_escaped_string<char, fmt::v11::detail::counting_iterator>(fmt::v11::detail::counting_iterator, fmt::v11::basic_string_view<char>)
FUNC 25050 120 0 fmt::v11::detail::write_padded<char, (fmt::v11::align::type)1, fmt::v11::basic_appender<char>, fmt::v11::detail::write<char, fmt::v11::basic_appender<char> >(fmt::v11::basic_appender<char>, fmt::v11::basic_string_view<char>, fmt::v11::format_specs const&)::{lambda(fmt::v11::basic_appender<char>)#1}>(fmt::v11::basic_appender<char>, fmt::v11::format_specs const&, unsigned int, unsigned int, fmt::v11::detail::write<char, fmt::v11::basic_appender<char> >(fmt::v11::basic_appender<char>, fmt::v11::basic_string_view<char>, fmt::v11::format_specs const&)::{lambda(fmt::v11::basic_appender<char>&&)#1})
FUNC 25170 2c4 0 fmt::v11::detail::for_each_codepoint<fmt::v11::detail::code_point_index(fmt::v11::basic_string_view<char>, unsigned int)::{lambda(unsigned int, fmt::v11::basic_string_view<char>)#1}>(fmt::v11::basic_string_view<char>, fmt::v11::detail::code_point_index(fmt::v11::basic_string_view<char>, unsigned int)::{lambda(unsigned int, fmt::v11::basic_string_view<char>)#1})
FUNC 25434 10c 0 fmt::v11::detail::write_escaped_cp<fmt::v11::detail::counting_iterator, char>(fmt::v11::detail::counting_iterator, fmt::v11::detail::find_escape_result<char> const&)
FUNC 25540 124 0 fmt::v11::detail::for_each_codepoint<fmt::v11::detail::find_escape(char const*, char const*)::{lambda(unsigned int, fmt::v11::basic_string_view<char>)#1}>(fmt::v11::basic_string_view<char>, fmt::v11::detail::find_escape(char const*, char const*)::{lambda(unsigned int, fmt::v11::basic_string_view<char>)#1})::{lambda(char const*, char const*)#1}::operator()(char const*, char const*) const
FUNC 25670 1e4 0 fmt::v11::detail::for_each_codepoint<fmt::v11::detail::compute_width(fmt::v11::basic_string_view<char>)::count_code_points>(fmt::v11::basic_string_view<char>, fmt::v11::detail::compute_width(fmt::v11::basic_string_view<char>)::count_code_points)::{lambda(char const*, char const*)#1}::operator()(char const*, char const*) const
FUNC 25854 fa 0 fmt::v11::detail::fill<char, fmt::v11::basic_appender<char> >(fmt::v11::basic_appender<char>, unsigned int, fmt::v11::detail::fill_t const&)
FUNC 25950 1e4 0 fmt::v11::detail::write_escaped_string<char, fmt::v11::basic_appender<char> >(fmt::v11::basic_appender<char>, fmt::v11::basic_string_view<char>)
FUNC 25b34 118 0 fmt::v11::detail::write_escaped_cp<fmt::v11::basic_appender<char>, char>(fmt::v11::basic_appender<char>, fmt::v11::detail::find_escape_result<char> const&)
FUNC 25c4c e0 0 fmt::v11::detail::write_codepoint<(unsigned int)2, char, fmt::v11::basic_appender<char> >(fmt::v11::basic_appender<char>, char, unsigned int)
FUNC 25d2c dc 0 fmt::v11::detail::write_codepoint<(unsigned int)4, char, fmt::v11::basic_appender<char> >(fmt::v11::basic_appender<char>, char, unsigned int)
FUNC 25e08 e0 0 fmt::v11::detail::write_codepoint<(unsigned int)8, char, fmt::v11::basic_appender<char> >(fmt::v11::basic_appender<char>, char, unsigned int)
FUNC 25ee8 60 0 fmt::v11::detail::get_dynamic_spec<fmt::v11::detail::width_checker, fmt::v11::basic_format_arg<fmt::v11::context> >(fmt::v11::basic_format_arg<fmt::v11::context>)
FUNC 25f48 106 0 fmt::v11::basic_format_args<fmt::v11::context>::get<char>(fmt::v11::basic_string_view<char>) const
FUNC 26050 60 0 fmt::v11::detail::get_dynamic_spec<fmt::v11::detail::precision_checker, fmt::v11::basic_format_arg<fmt::v11::context> >(fmt::v11::basic_format_arg<fmt::v11::context>)
FUNC 260b0 c4 0 std::__ndk1::regex_match[abi:ne180000]<std::__ndk1::__wrap_iter<char const*>, std::__ndk1::allocator<std::__ndk1::sub_match<char const*> >, char, std::__ndk1::regex_traits<char> >(std::__ndk1::__wrap_iter<char const*>, std::__ndk1::regex_traits<char>, std::__ndk1::match_results<std::__ndk1::regex_traits<char>, std::__ndk1::allocator<std::__ndk1::sub_match<char const*> > >&, std::__ndk1::basic_regex<char, std::__ndk1::regex_traits<char> > const&, std::__ndk1::regex_constants::match_flag_type)
FUNC 26174 1a0 0 std::__ndk1::basic_regex<char, std::__ndk1::regex_traits<char> >::__search<std::__ndk1::allocator<std::__ndk1::sub_match<char const*> > >(char const*, char const*, std::__ndk1::match_results<char const*, std::__ndk1::allocator<std::__ndk1::sub_match<char const*> > >&, std::__ndk1::regex_constants::match_flag_type) const
FUNC 26314 148 0 std::__ndk1::match_results<std::__ndk1::__wrap_iter<char const*>, std::__ndk1::allocator<std::__ndk1::sub_match<std::__ndk1::__wrap_iter<char const*> > > >::__assign[abi:ne180000]<char const*, std::__ndk1::allocator<std::__ndk1::sub_match<char const*> > >(std::__ndk1::__wrap_iter<char const*>, std::__ndk1::__wrap_iter<char const*>, std::__ndk1::match_results<char const*, std::__ndk1::allocator<std::__ndk1::sub_match<char const*> > > const&, bool)
FUNC 2645c 58c 0 std::__ndk1::basic_regex<char, std::__ndk1::regex_traits<char> >::__match_at_start_posix_nosubs<std::__ndk1::allocator<std::__ndk1::sub_match<char const*> > >(char const*, char const*, std::__ndk1::match_results<char const*, std::__ndk1::allocator<std::__ndk1::sub_match<char const*> > >&, std::__ndk1::regex_constants::match_flag_type, bool) const
FUNC 269e8 450 0 std::__ndk1::basic_regex<char, std::__ndk1::regex_traits<char> >::__match_at_start_posix_subs<std::__ndk1::allocator<std::__ndk1::sub_match<char const*> > >(char const*, char const*, std::__ndk1::match_results<char const*, std::__ndk1::allocator<std::__ndk1::sub_match<char const*> > >&, std::__ndk1::regex_constants::match_flag_type, bool) const
FUNC 26e38 d4 0 std::__ndk1::deque<std::__ndk1::__state<char>, std::__ndk1::allocator<std::__ndk1::__state<char> > >::clear()
FUNC 26f0c c0 0 std::__ndk1::deque<std::__ndk1::__state<char>, std::__ndk1::allocator<std::__ndk1::__state<char> > >::push_front(std::__ndk1::__state<char>&&)
FUNC 26fcc 4a 0 std::__ndk1::deque<std::__ndk1::__state<char>, std::__ndk1::allocator<std::__ndk1::__state<char> > >::~deque[abi:ne180000]()
FUNC 27018 36c 0 std::__ndk1::deque<std::__ndk1::__state<char>, std::__ndk1::allocator<std::__ndk1::__state<char> > >::__add_back_capacity()
FUNC 27384 120 0 std::__ndk1::__split_buffer<std::__ndk1::__state<char>*, std::__ndk1::allocator<std::__ndk1::__state<char>*> >::push_back(std::__ndk1::__state<char>*&&)
FUNC 274a4 11e 0 std::__ndk1::__split_buffer<std::__ndk1::__state<char>*, std::__ndk1::allocator<std::__ndk1::__state<char>*> >::push_front(std::__ndk1::__state<char>*&&)
FUNC 275c2 11e 0 std::__ndk1::__split_buffer<std::__ndk1::__state<char>*, std::__ndk1::allocator<std::__ndk1::__state<char>*>&>::push_front(std::__ndk1::__state<char>* const&)
FUNC 276e0 294 0 std::__ndk1::deque<std::__ndk1::__state<char>, std::__ndk1::allocator<std::__ndk1::__state<char> > >::__add_front_capacity()
FUNC 27974 11e 0 std::__ndk1::__split_buffer<std::__ndk1::__state<char>*, std::__ndk1::allocator<std::__ndk1::__state<char>*> >::push_front(std::__ndk1::__state<char>* const&)
FUNC 27a92 140 0 std::__ndk1::vector<std::__ndk1::sub_match<char const*>, std::__ndk1::allocator<std::__ndk1::sub_match<char const*> > >::__assign_with_size[abi:ne180000]<std::__ndk1::sub_match<char const*>*, std::__ndk1::vector<std::__ndk1::sub_match<char const*>, std::__ndk1::allocator<std::__ndk1::sub_match<char const*> > >::__assign_with_size[abi:ne180000]>(std::__ndk1::sub_match<char const*>*, std::__ndk1::vector<std::__ndk1::sub_match<char const*>, std::__ndk1::allocator<std::__ndk1::sub_match<char const*> > >::__assign_with_size[abi:ne180000], int)
FUNC 27bd2 25c 0 std::__ndk1::vector<std::__ndk1::pair<unsigned int, char const*>, std::__ndk1::allocator<std::__ndk1::pair<unsigned int, char const*> > >::__assign_with_size[abi:ne180000]<std::__ndk1::pair<unsigned int, char const*>*, std::__ndk1::vector<std::__ndk1::pair<unsigned int, char const*>, std::__ndk1::allocator<std::__ndk1::pair<unsigned int, char const*> > >::__assign_with_size[abi:ne180000]>(std::__ndk1::pair<unsigned int, char const*>*, std::__ndk1::vector<std::__ndk1::pair<unsigned int, char const*>, std::__ndk1::allocator<std::__ndk1::pair<unsigned int, char const*> > >::__assign_with_size[abi:ne180000], int)
FUNC 27e2e 10a 0 std::__ndk1::vector<std::__ndk1::sub_match<std::__ndk1::__wrap_iter<char const*> >, std::__ndk1::allocator<std::__ndk1::sub_match<std::__ndk1::__wrap_iter<char const*> > > >::__append(unsigned int)
FUNC 27f38 10 0 std::__ndk1::vector<std::__ndk1::sub_match<std::__ndk1::__wrap_iter<char const*> >, std::__ndk1::allocator<std::__ndk1::sub_match<std::__ndk1::__wrap_iter<char const*> > > >::__throw_length_error[abi:ne180000]() const
FUNC 27f48 64 0 _GLOBAL__sub_I_FMODAudioEngine.cpp
FUNC 27fac 2f4 0 __cxx_global_var_init
FUNC 282a0 20 0 geode::modifier::ModifyBase<geode::modifier::ModifyDerive<MenuLoopGJBGLHook, GJBaseGameLayer> >::~ModifyBase()
FUNC 282c0 2d0 0 geode::modifier::ModifyDerive<MenuLoopGJBGLHook, GJBaseGameLayer>::apply()
FUNC 28590 2 0 geode::modifier::ModifyBase<geode::modifier::ModifyDerive<MenuLoopGJBGLHook, GJBaseGameLayer> >::apply()
FUNC 28594 84 0 geode::addresser::getVirtual<bool (GJBaseGameLayer::*)()>(bool (GJBaseGameLayer::*)())
FUNC 28618 80 0 geode::modifier::AsStaticFunction_init<MenuLoopGJBGLHook, bool (MenuLoopGJBGLHook::*)()>::Impl<bool (MenuLoopGJBGLHook::*)()>::function(MenuLoopGJBGLHook*)
FUNC 28698 60a 0 GJBaseGameLayer::GJBaseGameLayer(geode::ZeroConstructorType)
FUNC 28ca4 3e0 0 GJGameState::GJGameState()
FUNC 29084 3a 0 geode::stl::unordered_map<int, int, geode::stl::hash<int>, geode::stl::equal_to<int>, std::__ndk1::allocator<std::__ndk1::pair<int const, int> > >::~unordered_map()
FUNC 290be 3a 0 geode::stl::unordered_set<int, geode::stl::hash<int>, geode::stl::equal_to<int>, std::__ndk1::allocator<int> >::~unordered_set()
FUNC 290f8 4c 0 geode::stl::unordered_map<int, gd::string, geode::stl::hash<int>, geode::stl::equal_to<int>, std::__ndk1::allocator<std::__ndk1::pair<int const, gd::string> > >::~unordered_map()
FUNC 29144 14 0 gd::map<std::__ndk1::pair<int, int>, int>::~map()
FUNC 29158 4e 0 geode::stl::unordered_map<int, gd::vector<LabelGameObject*>, geode::stl::hash<int>, geode::stl::equal_to<int>, std::__ndk1::allocator<std::__ndk1::pair<int const, gd::vector<LabelGameObject*> > > >::~unordered_map()
FUNC 291a6 3a 0 geode::stl::unordered_map<int, std::__ndk1::pair<int, int>, geode::stl::hash<int>, geode::stl::equal_to<int>, std::__ndk1::allocator<std::__ndk1::pair<int const, std::__ndk1::pair<int, int> > > >::~unordered_map()
FUNC 291e0 4e 0 geode::stl::unordered_map<int, gd::vector<GameObject*>, geode::stl::hash<int>, geode::stl::equal_to<int>, std::__ndk1::allocator<std::__ndk1::pair<int const, gd::vector<GameObject*> > > >::~unordered_map()
FUNC 2922e 3a 0 geode::stl::unordered_map<int, cocos2d::CCPoint, geode::stl::hash<int>, geode::stl::equal_to<int>, std::__ndk1::allocator<std::__ndk1::pair<int const, cocos2d::CCPoint> > >::~unordered_map()
FUNC 29268 9a 0 gd::vector<geode::stl::unordered_map<int, int, geode::stl::hash<int>, geode::stl::equal_to<int>, std::__ndk1::allocator<std::__ndk1::pair<int const, int> > > >::~vector()
FUNC 29302 33a 0 GJGameState::~GJGameState()
FUNC 2963c 3a 0 geode::stl::unordered_map<int, SongChannelState, geode::stl::hash<int>, geode::stl::equal_to<int>, std::__ndk1::allocator<std::__ndk1::pair<int const, SongChannelState> > >::~unordered_map()
FUNC 29676 14 0 gd::map<std::__ndk1::pair<int, int>, SFXTriggerInstance>::~map()
FUNC 2968a 50 0 geode::stl::unordered_map<int, std::__ndk1::vector<int, std::__ndk1::allocator<int> >, geode::stl::hash<int>, geode::stl::equal_to<int>, std::__ndk1::allocator<std::__ndk1::pair<int const, std::__ndk1::vector<int, std::__ndk1::allocator<int> > > > >::~unordered_map()
FUNC 296da 5c 0 gd::vector<EnterEffectInstance>::~vector()
FUNC 29736 34 0 geode::stl::unordered_map<int, std::__ndk1::vector<EnterEffectInstance, std::__ndk1::allocator<EnterEffectInstance> >, geode::stl::hash<int>, geode::stl::equal_to<int>, std::__ndk1::allocator<std::__ndk1::pair<int const, std::__ndk1::vector<EnterEffectInstance, std::__ndk1::allocator<EnterEffectInstance> > > > >::~unordered_map()
FUNC 2976a 14 0 gd::map<std::__ndk1::pair<GJGameEvent, int>, int>::~map()
FUNC 2977e 14 0 gd::map<std::__ndk1::pair<GJGameEvent, int>, gd::vector<EventTriggerInstance> >::~map()
FUNC 29792 3a 0 geode::stl::unordered_map<int, EnhancedGameObject*, geode::stl::hash<int>, geode::stl::equal_to<int>, std::__ndk1::allocator<std::__ndk1::pair<int const, EnhancedGameObject*> > >::~unordered_map()
FUNC 297cc 3a 0 geode::stl::unordered_map<int, GameObjectPhysics, geode::stl::hash<int>, geode::stl::equal_to<int>, std::__ndk1::allocator<std::__ndk1::pair<int const, GameObjectPhysics> > >::~unordered_map()
FUNC 29806 3a 0 geode::stl::unordered_map<int, GJValueTween, geode::stl::hash<int>, geode::stl::equal_to<int>, std::__ndk1::allocator<std::__ndk1::pair<int const, GJValueTween> > >::~unordered_map()
FUNC 29840 3a 0 geode::stl::unordered_map<int, bool, geode::stl::hash<int>, geode::stl::equal_to<int>, std::__ndk1::allocator<std::__ndk1::pair<int const, bool> > >::~unordered_map()
FUNC 2987c 11c 0 gd::map<std::__ndk1::pair<GJGameEvent, int>, gd::vector<EventTriggerInstance> >::map(std::__ndk1::map<std::__ndk1::pair<GJGameEvent, int>, gd::vector<EventTriggerInstance>, std::__ndk1::less<std::__ndk1::pair<GJGameEvent, int> >, std::__ndk1::allocator<std::__ndk1::pair<std::__ndk1::pair<GJGameEvent, int> const, gd::vector<EventTriggerInstance> > > >)
FUNC 29998 19e 0 gd::map<std::__ndk1::pair<GJGameEvent, int>, gd::vector<EventTriggerInstance> >::insert_pair(std::__ndk1::pair<std::__ndk1::pair<GJGameEvent, int>, gd::vector<EventTriggerInstance> > const&)
FUNC 29b36 40 0 std::__ndk1::pair<std::__ndk1::pair<GJGameEvent, int>, gd::vector<EventTriggerInstance> >::~pair()
FUNC 29b76 40 0 std::__ndk1::pair<std::__ndk1::pair<GJGameEvent, int> const, gd::vector<EventTriggerInstance> >::~pair()
FUNC 29bb6 110 0 gd::vector<EventTriggerInstance>::vector(gd::vector<EventTriggerInstance> const&)
FUNC 29cc6 17c 0 geode::stl::_rb_insert_rebalance(bool, geode::stl::_rb_tree_base*, geode::stl::_rb_tree_base*, geode::stl::_rb_tree_base&)
FUNC 29e42 134 0 gd::vector<EventTriggerInstance>::operator=(gd::vector<EventTriggerInstance> const&)
FUNC 29f76 40 0 gd::vector<EventTriggerInstance>::~vector()
FUNC 29fb6 5c 0 std::__ndk1::__tree<std::__ndk1::__value_type<std::__ndk1::pair<GJGameEvent, int>, gd::vector<EventTriggerInstance> >, std::__ndk1::__map_value_compare<std::__ndk1::pair<GJGameEvent, int>, std::__ndk1::__value_type<std::__ndk1::pair<GJGameEvent, int>, gd::vector<EventTriggerInstance> >, std::__ndk1::less<std::__ndk1::pair<GJGameEvent, int> >, true>, std::__ndk1::allocator<std::__ndk1::__value_type<std::__ndk1::pair<GJGameEvent, int>, gd::vector<EventTriggerInstance> > > >::destroy(std::__ndk1::__tree_node<std::__ndk1::__value_type<std::__ndk1::pair<GJGameEvent, int>, gd::vector<EventTriggerInstance> >, void*>*)
FUNC 2a012 2c 0 gd::map<std::__ndk1::pair<int, int>, SFXTriggerInstance>::erase(geode::stl::_rb_tree_node<std::__ndk1::pair<std::__ndk1::pair<int, int>, SFXTriggerInstance> >*)
FUNC 2a03e 2c 0 gd::map<int, EnterEffectAnimValue>::erase(geode::stl::_rb_tree_node<std::__ndk1::pair<int, EnterEffectAnimValue> >*)
FUNC 2a06a 64 0 geode::stl::__detail::_Hashtable_alloc<std::__ndk1::allocator<geode::stl::__detail::_Hash_node<std::__ndk1::pair<int const, std::__ndk1::vector<EnterEffectInstance, std::__ndk1::allocator<EnterEffectInstance> > >, false> > >::_M_deallocate_nodes(geode::stl::__detail::_Hash_node<std::__ndk1::pair<int const, std::__ndk1::vector<EnterEffectInstance, std::__ndk1::allocator<EnterEffectInstance> > >, false>*)
FUNC 2a0ce 2c 0 gd::map<std::__ndk1::pair<GJGameEvent, int>, int>::erase(geode::stl::_rb_tree_node<std::__ndk1::pair<std::__ndk1::pair<GJGameEvent, int>, int> >*)
FUNC 2a0fa 6e 0 gd::map<std::__ndk1::pair<GJGameEvent, int>, gd::vector<EventTriggerInstance> >::erase(geode::stl::_rb_tree_node<std::__ndk1::pair<std::__ndk1::pair<GJGameEvent, int>, gd::vector<EventTriggerInstance> > >*)
FUNC 2a168 2c 0 gd::map<std::__ndk1::pair<int, int>, int>::erase(geode::stl::_rb_tree_node<std::__ndk1::pair<std::__ndk1::pair<int, int>, int> >*)
FUNC 2a194 2f4 0 __cxx_global_var_init
FUNC 2a488 20 0 geode::modifier::ModifyBase<geode::modifier::ModifyDerive<MenuLoopGMHook, GameManager> >::~ModifyBase()
FUNC 2a4b0 584 0 geode::modifier::ModifyDerive<MenuLoopGMHook, GameManager>::apply()
FUNC 2aa34 2 0 geode::modifier::ModifyBase<geode::modifier::ModifyDerive<MenuLoopGMHook, GameManager> >::apply()
FUNC 2aa38 84 0 geode::addresser::getVirtual<void (GameManager::*)(DS_Dictionary*)>(void (GameManager::*)(DS_Dictionary*))
FUNC 2aabc 130 0 geode::modifier::AsStaticFunction_encodeDataTo<MenuLoopGMHook, void (MenuLoopGMHook::*)(DS_Dictionary*)>::Impl<void (MenuLoopGMHook::*)(DS_Dictionary*)>::function(MenuLoopGMHook*, DS_Dictionary*)
FUNC 2abec 6c 0 geode::modifier::AsStaticFunction_getMenuMusicFile<MenuLoopGMHook, gd::string (MenuLoopGMHook::*)()>::Impl<gd::string (MenuLoopGMHook::*)()>::function(MenuLoopGMHook*)
FUNC 2ac58 214 0 GameManager::GameManager(geode::ZeroConstructorType)
FUNC 2ae6c 14 0 gd::map<int, gd::vector<cocos2d::CCObject*> >::~map()
FUNC 2ae80 14 0 gd::map<int, bool>::~map()
FUNC 2ae94 14 0 gd::map<int, gd::map<int, int> >::~map()
FUNC 2aea8 14 0 gd::map<int, int>::~map()
FUNC 2aebc 106 0 gd::map<int, int>::insert_pair(std::__ndk1::pair<int, int> const&)
FUNC 2afc2 28 0 std::__ndk1::__tree<std::__ndk1::__value_type<int, int>, std::__ndk1::__map_value_compare<int, std::__ndk1::__value_type<int, int>, std::__ndk1::less<int>, true>, std::__ndk1::allocator<std::__ndk1::__value_type<int, int> > >::destroy(std::__ndk1::__tree_node<std::__ndk1::__value_type<int, int>, void*>*)
FUNC 2afec cc 0 gd::map<int, gd::map<int, int> >::map(std::__ndk1::map<int, gd::map<int, int>, std::__ndk1::less<int>, std::__ndk1::allocator<std::__ndk1::pair<int const, gd::map<int, int> > > >)
FUNC 2b0b8 12a 0 gd::map<int, gd::map<int, int> >::insert_pair(std::__ndk1::pair<int, gd::map<int, int> > const&)
FUNC 2b1e2 16 0 std::__ndk1::pair<int, gd::map<int, int> >::~pair()
FUNC 2b1f8 16 0 std::__ndk1::pair<int const, gd::map<int, int> >::~pair()
FUNC 2b210 a4 0 gd::map<int, int>::map(gd::map<int, int> const&)
FUNC 2b2b4 e8 0 gd::map<int, int>::operator std::__ndk1::map<int, int, std::__ndk1::less<int>, std::__ndk1::allocator<std::__ndk1::pair<int const, int> > >() const
FUNC 2b39c 32 0 std::__ndk1::__tree<std::__ndk1::__value_type<int, gd::map<int, int> >, std::__ndk1::__map_value_compare<int, std::__ndk1::__value_type<int, gd::map<int, int> >, std::__ndk1::less<int>, true>, std::__ndk1::allocator<std::__ndk1::__value_type<int, gd::map<int, int> > > >::destroy(std::__ndk1::__tree_node<std::__ndk1::__value_type<int, gd::map<int, int> >, void*>*)
FUNC 2b3d0 12c 0 gd::map<int, gd::vector<cocos2d::CCObject*> >::map(std::__ndk1::map<int, gd::vector<cocos2d::CCObject*>, std::__ndk1::less<int>, std::__ndk1::allocator<std::__ndk1::pair<int const, gd::vector<cocos2d::CCObject*> > > >)
FUNC 2b4fc 8e 0 gd::map<int, gd::vector<cocos2d::CCObject*> >::insert_pair(std::__ndk1::pair<int, gd::vector<cocos2d::CCObject*> > const&)
FUNC 2b58a a8 0 gd::map<int, gd::vector<cocos2d::CCObject*> >::insert(geode::stl::_rb_tree_node<std::__ndk1::pair<int, gd::vector<cocos2d::CCObject*> > >*, geode::stl::_rb_tree_node<std::__ndk1::pair<int, gd::vector<cocos2d::CCObject*> > >*, std::__ndk1::pair<int, gd::vector<cocos2d::CCObject*> > const&)
FUNC 2b632 30 0 std::__ndk1::__tree<std::__ndk1::__value_type<int, gd::vector<cocos2d::CCObject*> >, std::__ndk1::__map_value_compare<int, std::__ndk1::__value_type<int, gd::vector<cocos2d::CCObject*> >, std::__ndk1::less<int>, true>, std::__ndk1::allocator<std::__ndk1::__value_type<int, gd::vector<cocos2d::CCObject*> > > >::destroy(std::__ndk1::__tree_node<std::__ndk1::__value_type<int, gd::vector<cocos2d::CCObject*> >, void*>*)
FUNC 2b662 36 0 gd::map<int, gd::vector<cocos2d::CCObject*> >::erase(geode::stl::_rb_tree_node<std::__ndk1::pair<int, gd::vector<cocos2d::CCObject*> > >*)
FUNC 2b698 2c 0 gd::map<int, bool>::erase(geode::stl::_rb_tree_node<std::__ndk1::pair<int, bool> >*)
FUNC 2b6c4 32 0 gd::map<int, gd::map<int, int> >::erase(geode::stl::_rb_tree_node<std::__ndk1::pair<int, gd::map<int, int> > >*)
FUNC 2b6f6 2c 0 gd::map<int, int>::erase(geode::stl::_rb_tree_node<std::__ndk1::pair<int, int> >*)
FUNC 2b724 cc 0 geode::Mod::setSavedValue<std::__ndk1::basic_string<char, std::__ndk1::char_traits<char>, std::__ndk1::allocator<char> > >(std::__ndk1::basic_string_view<char, std::__ndk1::char_traits<char> >, std::__ndk1::basic_string<char, std::__ndk1::char_traits<char>, std::__ndk1::allocator<char> > const&)
FUNC 2b7f0 19c 0 geode::modifier::FieldIntermediate<MenuLoopGMHook, GameManager>::self()
FUNC 2b98c 2 0 geode::modifier::FieldIntermediate<MenuLoopGMHook, GameManager>::fieldDestructor(void*)
FUNC 2b990 15c 0 geode::Mod::getSavedValue<std::__ndk1::basic_string<char, std::__ndk1::char_traits<char>, std::__ndk1::allocator<char> > >(std::__ndk1::basic_string_view<char, std::__ndk1::char_traits<char> >)
FUNC 2baec 60 0 geode::impl::ResultData<matjson::Value&, std::__ndk1::basic_string<char, std::__ndk1::char_traits<char>, std::__ndk1::allocator<char> > >::~ResultData()
FUNC 2bb4c 60 0 geode::impl::ResultData<std::__ndk1::basic_string<char, std::__ndk1::char_traits<char>, std::__ndk1::allocator<char> >, std::__ndk1::basic_string<char, std::__ndk1::char_traits<char>, std::__ndk1::allocator<char> > >::~ResultData()
FUNC 2bbac 2 0 std::__ndk1::__variant_detail::__visitation::__base::__dispatcher<(unsigned int)0>::__dispatch[abi:ne180000]<std::__ndk1::__variant_detail::__dtor<std::__ndk1::__variant_detail::__traits<std::__ndk1::reference_wrapper<matjson::Value>, std::__ndk1::basic_string<char, std::__ndk1::char_traits<char>, std::__ndk1::allocator<char> > >, (std::__ndk1::__variant_detail::_Trait)1>::__destroy[abi:ne180000]()::{lambda(auto:1&)#1}, std::__ndk1::__variant_detail::__base<(std::__ndk1::__variant_detail::__traits<std::__ndk1::reference_wrapper<matjson::Value>, std::__ndk1::basic_string<char, std::__ndk1::char_traits<char>, std::__ndk1::allocator<char> > >)1, matjson::Value, std::__ndk1::allocator<char> >&>(std::__ndk1::__variant_detail::__dtor<std::__ndk1::__variant_detail::__traits<std::__ndk1::reference_wrapper<matjson::Value>, std::__ndk1::basic_string<char, std::__ndk1::char_traits<char>, std::__ndk1::allocator<char> > >, (std::__ndk1::__variant_detail::_Trait)1>, std::__ndk1::__variant_detail::__base<(std::__ndk1::__variant_detail::__traits<std::__ndk1::reference_wrapper<matjson::Value>, std::__ndk1::basic_string<char, std::__ndk1::char_traits<char>, std::__ndk1::allocator<char> > >)1, matjson::Value, std::__ndk1::allocator<char> >&)
FUNC 2bbae e 0 std::__ndk1::__variant_detail::__visitation::__base::__dispatcher<(unsigned int)1>::__dispatch[abi:ne180000]<std::__ndk1::__variant_detail::__dtor<std::__ndk1::__variant_detail::__traits<std::__ndk1::reference_wrapper<matjson::Value>, std::__ndk1::basic_string<char, std::__ndk1::char_traits<char>, std::__ndk1::allocator<char> > >, (std::__ndk1::__variant_detail::_Trait)1>::__destroy[abi:ne180000]()::{lambda(auto:1&)#1}, std::__ndk1::__variant_detail::__base<(std::__ndk1::__variant_detail::__traits<std::__ndk1::reference_wrapper<matjson::Value>, std::__ndk1::basic_string<char, std::__ndk1::char_traits<char>, std::__ndk1::allocator<char> > >)1, matjson::Value, std::__ndk1::allocator<char> >&>(std::__ndk1::__variant_detail::__dtor<std::__ndk1::__variant_detail::__traits<std::__ndk1::reference_wrapper<matjson::Value>, std::__ndk1::basic_string<char, std::__ndk1::char_traits<char>, std::__ndk1::allocator<char> > >, (std::__ndk1::__variant_detail::_Trait)1>, std::__ndk1::__variant_detail::__base<(std::__ndk1::__variant_detail::__traits<std::__ndk1::reference_wrapper<matjson::Value>, std::__ndk1::basic_string<char, std::__ndk1::char_traits<char>, std::__ndk1::allocator<char> > >)1, matjson::Value, std::__ndk1::allocator<char> >&)
FUNC 2bbbc e 0 std::__ndk1::__variant_detail::__visitation::__base::__dispatcher<(unsigned int)0>::__dispatch[abi:ne180000]<std::__ndk1::__variant_detail::__dtor<std::__ndk1::__variant_detail::__traits<std::__ndk1::basic_string<char, std::__ndk1::char_traits<char>, std::__ndk1::allocator<char> >, std::__ndk1::allocator<char> >, (std::__ndk1::__variant_detail::_Trait)1>::__destroy[abi:ne180000]()::{lambda(auto:1&)#1}, std::__ndk1::__variant_detail::__base<(std::__ndk1::__variant_detail::__traits<std::__ndk1::basic_string<char, std::__ndk1::char_traits<char>, std::__ndk1::allocator<char> >, std::__ndk1::allocator<char> >)1, std::__ndk1::allocator<char>, std::__ndk1::allocator<char> >&>(std::__ndk1::__variant_detail::__dtor<std::__ndk1::__variant_detail::__traits<std::__ndk1::basic_string<char, std::__ndk1::char_traits<char>, std::__ndk1::allocator<char> >, std::__ndk1::allocator<char> >, (std::__ndk1::__variant_detail::_Trait)1>, std::__ndk1::__variant_detail::__base<(std::__ndk1::__variant_detail::__traits<std::__ndk1::basic_string<char, std::__ndk1::char_traits<char>, std::__ndk1::allocator<char> >, std::__ndk1::allocator<char> >)1, std::__ndk1::allocator<char>, std::__ndk1::allocator<char> >&)
FUNC 2bbca e 0 std::__ndk1::__variant_detail::__visitation::__base::__dispatcher<(unsigned int)1>::__dispatch[abi:ne180000]<std::__ndk1::__variant_detail::__dtor<std::__ndk1::__variant_detail::__traits<std::__ndk1::basic_string<char, std::__ndk1::char_traits<char>, std::__ndk1::allocator<char> >, std::__ndk1::allocator<char> >, (std::__ndk1::__variant_detail::_Trait)1>::__destroy[abi:ne180000]()::{lambda(auto:1&)#1}, std::__ndk1::__variant_detail::__base<(std::__ndk1::__variant_detail::__traits<std::__ndk1::basic_string<char, std::__ndk1::char_traits<char>, std::__ndk1::allocator<char> >, std::__ndk1::allocator<char> >)1, std::__ndk1::allocator<char>, std::__ndk1::allocator<char> >&>(std::__ndk1::__variant_detail::__dtor<std::__ndk1::__variant_detail::__traits<std::__ndk1::basic_string<char, std::__ndk1::char_traits<char>, std::__ndk1::allocator<char> >, std::__ndk1::allocator<char> >, (std::__ndk1::__variant_detail::_Trait)1>, std::__ndk1::__variant_detail::__base<(std::__ndk1::__variant_detail::__traits<std::__ndk1::basic_string<char, std::__ndk1::char_traits<char>, std::__ndk1::allocator<char> >, std::__ndk1::allocator<char> >)1, std::__ndk1::allocator<char>, std::__ndk1::allocator<char> >&)
FUNC 2bbd8 2f4 0 __cxx_global_var_init
FUNC 2becc 20 0 geode::modifier::ModifyBase<geode::modifier::ModifyDerive<MenuLayerMLHook, MenuLayer> >::~ModifyBase()
FUNC 2beec 2c8 0 geode::modifier::ModifyDerive<MenuLayerMLHook, MenuLayer>::apply()
FUNC 2c1b4 2 0 geode::modifier::ModifyBase<geode::modifier::ModifyDerive<MenuLayerMLHook, MenuLayer> >::apply()
FUNC 2c1b8 7c 0 geode::addresser::getVirtual<bool (MenuLayer::*)()>(bool (MenuLayer::*)())
FUNC 2c234 9fc 0 geode::modifier::AsStaticFunction_init<MenuLayerMLHook, bool (MenuLayerMLHook::*)()>::Impl<bool (MenuLayerMLHook::*)()>::function(MenuLayerMLHook*)
FUNC 2cc30 6c 0 MenuLayer::MenuLayer(geode::ZeroConstructorType)
FUNC 2cc9c f8 0 geode::Mod::getSettingValue<bool>(std::__ndk1::basic_string_view<char, std::__ndk1::char_traits<char> >) const
FUNC 2cd94 fc 0 MenuLayerMLHook::onShuffleBtn(cocos2d::CCObject*)
FUNC 2ce90 2e0 0 geode::modifier::FieldIntermediate<MenuLayerMLHook, MenuLayer>::self()
FUNC 2d170 30 0 geode::modifier::FieldIntermediate<MenuLayerMLHook, MenuLayer>::fieldDestructor(void*)
FUNC 2d1a0 ac 0 std::__ndk1::__fs::filesystem::path::operator/=[abi:ne180000](std::__ndk1::__fs::filesystem::path const&)
FUNC 2d24c 24 0 std::__ndk1::basic_string<char, std::__ndk1::char_traits<char>, std::__ndk1::allocator<char> >::append[abi:ne180000](std::__ndk1::basic_string<char, std::__ndk1::char_traits<char>, std::__ndk1::allocator<char> > const&)
FUNC 2d270 1e0 0 _ZNSt6__ndk112basic_stringIcNS_11char_traitsIcEENS_9allocatorIcEEE6appendB8ne180000IPKcTnNS_9enable_ifIXsr31__has_forward_iterator_categoryIT_EE5valueEiE4typeELi0EEERS5_SA_SA_
FUNC 2d450 9c 0 MenuLayerMLHook::onRegenButton(cocos2d::CCObject*)
FUNC 2d4ec cc 0 MenuLayerMLHook::onCopyButton(cocos2d::CCObject*)
FUNC 2d5b8 fc 0 geode::Mod::getSettingValue<double>(std::__ndk1::basic_string_view<char, std::__ndk1::char_traits<char> >) const
FUNC 2d6b4 bac 0 MenuLayerMLHook::onBlacklistButton(cocos2d::CCObject*)
FUNC 2e260 84 0 geode::log::info<std::__ndk1::basic_string<char, std::__ndk1::char_traits<char>, std::__ndk1::allocator<char> >&>(fmt::v11::basic_format_string<char, fmt::v11::type_identity<decltype ((wrapCocosObj<std::__ndk1::basic_string<char, std::__ndk1::char_traits<char>, std::__ndk1::allocator<char> >&>)((std::declval<std::__ndk1::basic_string<char, std::__ndk1::char_traits<char>, std::__ndk1::allocator<char> >&>)()))>::type>, std::__ndk1::basic_string<char, std::__ndk1::char_traits<char>, std::__ndk1::allocator<char> >&)
FUNC 2e2e4 70 0 geode::log::info<int>(fmt::v11::basic_format_string<char, fmt::v11::type_identity<decltype ((wrapCocosObj<int>)((std::declval<int>)()))>::type>, int&&)
FUNC 2e354 38 0 std::__ndk1::basic_ofstream<char, std::__ndk1::char_traits<char> >::~basic_ofstream()
FUNC 2e38c 2 0 std::__ndk1::__function::__base<void (FLAlertLayer*, bool)>::~__base()
FUNC 2e38e 4 0 std::__ndk1::__function::__func<MenuLayerMLHook::woahThereBuddy(std::__ndk1::basic_string<char, std::__ndk1::char_traits<char>, std::__ndk1::allocator<char> > const&) const::{lambda(FLAlertLayer*, bool)#1}, std::__ndk1::allocator<MenuLayerMLHook::woahThereBuddy(std::__ndk1::basic_string<char, std::__ndk1::char_traits<char>, std::__ndk1::allocator<char> > const&) const::{lambda(FLAlertLayer*, bool)#1}>, void (FLAlertLayer*, bool)>::~__func()
FUNC 2e394 20 0 std::__ndk1::__function::__func<MenuLayerMLHook::woahThereBuddy(std::__ndk1::basic_string<char, std::__ndk1::char_traits<char>, std::__ndk1::allocator<char> > const&) const::{lambda(FLAlertLayer*, bool)#1}, std::__ndk1::allocator<MenuLayerMLHook::woahThereBuddy(std::__ndk1::basic_string<char, std::__ndk1::char_traits<char>, std::__ndk1::allocator<char> > const&) const::{lambda(FLAlertLayer*, bool)#1}>, void (FLAlertLayer*, bool)>::__clone() const
FUNC 2e3b4 14 0 std::__ndk1::__function::__func<MenuLayerMLHook::woahThereBuddy(std::__ndk1::basic_string<char, std::__ndk1::char_traits<char>, std::__ndk1::allocator<char> > const&) const::{lambda(FLAlertLayer*, bool)#1}, std::__ndk1::allocator<MenuLayerMLHook::woahThereBuddy(std::__ndk1::basic_string<char, std::__ndk1::char_traits<char>, std::__ndk1::allocator<char> > const&) const::{lambda(FLAlertLayer*, bool)#1}>, void (FLAlertLayer*, bool)>::__clone(std::__ndk1::__function::__base<void (FLAlertLayer*, bool)>*) const
FUNC 2e3c8 2 0 std::__ndk1::__function::__func<MenuLayerMLHook::woahThereBuddy(std::__ndk1::basic_string<char, std::__ndk1::char_traits<char>, std::__ndk1::allocator<char> > const&) const::{lambda(FLAlertLayer*, bool)#1}, std::__ndk1::allocator<MenuLayerMLHook::woahThereBuddy(std::__ndk1::basic_string<char, std::__ndk1::char_traits<char>, std::__ndk1::allocator<char> > const&) const::{lambda(FLAlertLayer*, bool)#1}>, void (FLAlertLayer*, bool)>::destroy()
FUNC 2e3ca 4 0 std::__ndk1::__function::__func<MenuLayerMLHook::woahThereBuddy(std::__ndk1::basic_string<char, std::__ndk1::char_traits<char>, std::__ndk1::allocator<char> > const&) const::{lambda(FLAlertLayer*, bool)#1}, std::__ndk1::allocator<MenuLayerMLHook::woahThereBuddy(std::__ndk1::basic_string<char, std::__ndk1::char_traits<char>, std::__ndk1::allocator<char> > const&) const::{lambda(FLAlertLayer*, bool)#1}>, void (FLAlertLayer*, bool)>::destroy_deallocate()
FUNC 2e3d0 34 0 std::__ndk1::__function::__func<MenuLayerMLHook::woahThereBuddy(std::__ndk1::basic_string<char, std::__ndk1::char_traits<char>, std::__ndk1::allocator<char> > const&) const::{lambda(FLAlertLayer*, bool)#1}, std::__ndk1::allocator<MenuLayerMLHook::woahThereBuddy(std::__ndk1::basic_string<char, std::__ndk1::char_traits<char>, std::__ndk1::allocator<char> > const&) const::{lambda(FLAlertLayer*, bool)#1}>, void (FLAlertLayer*, bool)>::operator()(FLAlertLayer*&&, bool&&)
FUNC 2e404 18 0 std::__ndk1::__function::__func<MenuLayerMLHook::woahThereBuddy(std::__ndk1::basic_string<char, std::__ndk1::char_traits<char>, std::__ndk1::allocator<char> > const&) const::{lambda(FLAlertLayer*, bool)#1}, std::__ndk1::allocator<MenuLayerMLHook::woahThereBuddy(std::__ndk1::basic_string<char, std::__ndk1::char_traits<char>, std::__ndk1::allocator<char> > const&) const::{lambda(FLAlertLayer*, bool)#1}>, void (FLAlertLayer*, bool)>::target(std::type_info const&) const
FUNC 2e41c c 0 std::__ndk1::__function::__func<MenuLayerMLHook::woahThereBuddy(std::__ndk1::basic_string<char, std::__ndk1::char_traits<char>, std::__ndk1::allocator<char> > const&) const::{lambda(FLAlertLayer*, bool)#1}, std::__ndk1::allocator<MenuLayerMLHook::woahThereBuddy(std::__ndk1::basic_string<char, std::__ndk1::char_traits<char>, std::__ndk1::allocator<char> > const&) const::{lambda(FLAlertLayer*, bool)#1}>, void (FLAlertLayer*, bool)>::target_type() const
FUNC 2e428 944 0 MenuLayerMLHook::onFavoriteButton(cocos2d::CCObject*)
FUNC 2ed6c 5a8 0 MenuLayerMLHook::onHoldSongButton(cocos2d::CCObject*)
FUNC 2f314 560 0 MenuLayerMLHook::onPreviousButton(cocos2d::CCObject*)
FUNC 2f874 2f4 0 __cxx_global_var_init
FUNC 2fb68 20 0 geode::modifier::ModifyBase<geode::modifier::ModifyDerive<MenuLoopPLHook, PlayLayer> >::~ModifyBase()
FUNC 2fb88 2c8 0 geode::modifier::ModifyDerive<MenuLoopPLHook, PlayLayer>::apply()
FUNC 2fe50 2 0 geode::modifier::ModifyBase<geode::modifier::ModifyDerive<MenuLoopPLHook, PlayLayer> >::apply()
FUNC 2fe54 2bc 0 geode::modifier::AsStaticFunction_onQuit<MenuLoopPLHook, void (MenuLoopPLHook::*)()>::Impl<void (MenuLoopPLHook::*)()>::function(MenuLoopPLHook*)
FUNC 30110 2 0 geode::modifier::FieldIntermediate<MenuLoopPLHook, PlayLayer>::fieldDestructor(void*)
FUNC 30114 bc 0 PlaylistModeWarning::create(bool)
FUNC 301d0 e8 0 PlaylistModeWarning::init(bool)
FUNC 302b8 4 0 cocos2d::CCCopying::copyWithZone(cocos2d::CCZone*)
FUNC 302bc 10 0 PlaylistModeWarning::~PlaylistModeWarning()
FUNC 302cc 2 0 cocos2d::CCLayerRGBA::setOpacityModifyRGB(bool)
FUNC 302ce 4 0 cocos2d::CCLayerRGBA::isOpacityModifyRGB()
FUNC 302d2 8 0 {virtual override thunk({offset(-264)}, PlaylistModeWarning::~PlaylistModeWarning())}
FUNC 302da 14 0 {virtual override thunk({offset(-264)}, PlaylistModeWarning::~PlaylistModeWarning())}
FUNC 302ee 2 0 cocos2d::CCKeyboardDelegate::keyUp(cocos2d::enumKeyCodes)
FUNC 302f0 2 0 cocos2d::CCMouseDelegate::rightKeyDown()
FUNC 302f2 2 0 cocos2d::CCMouseDelegate::rightKeyUp()
FUNC 302f4 2 0 cocos2d::CCMouseDelegate::scrollWheel(float, float)
FUNC 302f6 2 0 {virtual override thunk({offset(-316)}, cocos2d::CCLayerRGBA::setOpacityModifyRGB(bool))}
FUNC 302f8 4 0 {virtual override thunk({offset(-316)}, cocos2d::CCLayerRGBA::isOpacityModifyRGB())}
FUNC 302fc 4e8 0 MyButtonSettingV3::createNode(float)
FUNC 307e4 3a 0 std::__ndk1::shared_ptr<MyButtonSettingV3>::~shared_ptr[abi:ne180000]()
FUNC 3081e 3a 0 std::__ndk1::shared_ptr<geode::SettingV3>::~shared_ptr[abi:ne180000]()
FUNC 30858 10 0 MyButtonSettingV3::~MyButtonSettingV3()
FUNC 30868 4 0 MyButtonSettingV3::load(matjson::Value const&)
FUNC 3086c 4 0 MyButtonSettingV3::save(matjson::Value&) const
FUNC 30870 4 0 MyButtonSettingV3::isDefaultValue() const
FUNC 30874 2 0 MyButtonSettingV3::reset()
FUNC 30878 78 0 MyButtonSettingNodeV3::~MyButtonSettingNodeV3()
FUNC 308f0 70 0 MyButtonSettingNodeV3::~MyButtonSettingNodeV3()
FUNC 30960 2 0 MyButtonSettingNodeV3::onCommit()
FUNC 30962 2 0 MyButtonSettingNodeV3::onResetToDefault()
FUNC 30964 4 0 MyButtonSettingNodeV3::hasUncommittedChanges() const
FUNC 30968 4 0 MyButtonSettingNodeV3::hasNonDefaultValue() const
FUNC 3096c 78 0 MyButtonSettingNodeV3::onConfigDirButton(cocos2d::CCObject*)
FUNC 309e4 16 0 geode::cocos::CCArrayExt<cocos2d::CCNode*>::~CCArrayExt()
FUNC 309fc 34 0 std::__ndk1::__throw_bad_optional_access[abi:ne180000]()
FUNC 30a30 34 0 std::__ndk1::__throw_bad_weak_ptr[abi:ne180000]()
FUNC 30a64 46 0 SongManager::addSong(std::__ndk1::basic_string<char, std::__ndk1::char_traits<char>, std::__ndk1::allocator<char> > const&)
FUNC 30aaa 76 0 SongManager::removeSong(std::__ndk1::basic_string<char, std::__ndk1::char_traits<char>, std::__ndk1::allocator<char> > const&)
FUNC 30b20 116 0 std::__ndk1::remove[abi:ne180000]<std::__ndk1::__wrap_iter<std::__ndk1::basic_string<char, std::__ndk1::char_traits<char>, std::__ndk1::allocator<char> >*>, std::__ndk1::allocator<char> >(std::__ndk1::__wrap_iter<std::__ndk1::basic_string<char, std::__ndk1::char_traits<char>, std::__ndk1::allocator<char> >*>, std::__ndk1::__wrap_iter<std::__ndk1::basic_string<char, std::__ndk1::char_traits<char>, std::__ndk1::allocator<char> >*>, std::__ndk1::allocator<char> const&)
FUNC 30c36 32 0 SongManager::clearSongs()
FUNC 30c68 38c 0 SongManager::pickRandomSong()
FUNC 30ff4 ec 0 SongManager::getCurrentSong()
FUNC 310e0 58 0 SongManager::getOverrideSong()
FUNC 31138 134 0 SongManager::setCurrentSong(std::__ndk1::basic_string<char, std::__ndk1::char_traits<char>, std::__ndk1::allocator<char> > const&)
FUNC 3126c d4 0 SongManager::setCurrentSongToSavedSong()
FUNC 31340 6c 0 SongManager::setPlaylistMode()
FUNC 313ac 13c 0 SongManager::update(float) const
FUNC 314e8 a0 0 SongManager::setHeldSong(std::__ndk1::basic_string_view<char, std::__ndk1::char_traits<char> >)
FUNC 31588 190 0 SongManager::addToBlacklist()
FUNC 31718 194 0 SongManager::addToFavorites(std::__ndk1::basic_string<char, std::__ndk1::char_traits<char>, std::__ndk1::allocator<char> > const&)
FUNC 318ac 190 0 SongManager::addToFavorites()
FUNC 31a3c 12c 0 SongManager::setOverride(std::__ndk1::basic_string_view<char, std::__ndk1::char_traits<char> >)
FUNC 31b68 15c 0 SongManager::setCurrentSongToOverride()
FUNC 31cc4 a8 0 SongManager::setPreviousSong(std::__ndk1::basic_string_view<char, std::__ndk1::char_traits<char> >)
FUNC 31d6c c8 0 std::__ndk1::basic_string<char, std::__ndk1::char_traits<char>, std::__ndk1::allocator<char> >::__assign_external(char const*, unsigned int)
FUNC 31e34 d4 0 std::__ndk1::vector<std::__ndk1::basic_string<char, std::__ndk1::char_traits<char>, std::__ndk1::allocator<char> >, std::__ndk1::allocator<std::__ndk1::basic_string<char, std::__ndk1::char_traits<char>, std::__ndk1::allocator<char> > > >::__init_with_size[abi:ne180000]<std::__ndk1::basic_string<char, std::__ndk1::char_traits<char>, std::__ndk1::allocator<char> >*, std::__ndk1::vector<std::__ndk1::basic_string<char, std::__ndk1::char_traits<char>, std::__ndk1::allocator<char> >, std::__ndk1::allocator<std::__ndk1::basic_string<char, std::__ndk1::char_traits<char>, std::__ndk1::allocator<char> > > >::__init_with_size[abi:ne180000]>(std::__ndk1::basic_string<char, std::__ndk1::char_traits<char>, std::__ndk1::allocator<char> >*, std::__ndk1::vector<std::__ndk1::basic_string<char, std::__ndk1::char_traits<char>, std::__ndk1::allocator<char> >, std::__ndk1::allocator<std::__ndk1::basic_string<char, std::__ndk1::char_traits<char>, std::__ndk1::allocator<char> > > >::__init_with_size[abi:ne180000], unsigned int)
FUNC 31f08 4e 0 std::__ndk1::__exception_guard_exceptions<std::__ndk1::vector<std::__ndk1::basic_string<char, std::__ndk1::char_traits<char>, std::__ndk1::allocator<char> >, std::__ndk1::allocator<std::__ndk1::basic_string<char, std::__ndk1::char_traits<char>, std::__ndk1::allocator<char> > > >::__destroy_vector>::~__exception_guard_exceptions[abi:ne180000]()
FUNC 31f56 3a 0 std::__ndk1::__exception_guard_exceptions<std::__ndk1::_AllocatorDestroyRangeReverse<std::__ndk1::allocator<std::__ndk1::basic_string<char, std::__ndk1::char_traits<char>, std::__ndk1::allocator<char> > >, std::__ndk1::basic_string<char, std::__ndk1::char_traits<char>, std::__ndk1::allocator<char> >*> >::~__exception_guard_exceptions[abi:ne180000]()
FUNC 31f90 e4 0 Utils::randomIndex(int)
FUNC 32074 90 0 Utils::isSupportedFile(std::__ndk1::basic_string_view<char, std::__ndk1::char_traits<char> >)
FUNC 32104 74 0 Utils::goodExtension(std::__ndk1::basic_string_view<char, std::__ndk1::char_traits<char> >)
FUNC 32178 34 0 Utils::getBool(std::__ndk1::basic_string<char, std::__ndk1::char_traits<char>, std::__ndk1::allocator<char> >)
FUNC 321ac 20 0 geode::Mod::get<void>()
FUNC 321cc 294 0 Utils::setNewSong()
FUNC 32460 50c 0 Utils::playlistModeNewSong(bool)
FUNC 3296c 1e4 0 Utils::newNotification(std::__ndk1::basic_string<char, std::__ndk1::char_traits<char>, std::__ndk1::allocator<char> > const&)
FUNC 32b50 48 0 cocos2d::CCSequence::create(cocos2d::CCFiniteTimeAction*, ...)
FUNC 32b98 e0c 0 Utils::newCardFromCurrentSong()
FUNC 339a4 118 0 geode::Mod::getSettingValue<std::__ndk1::basic_string<char, std::__ndk1::char_traits<char>, std::__ndk1::allocator<char> > >(std::__ndk1::basic_string_view<char, std::__ndk1::char_traits<char> >) const
FUNC 33abc 38 0 std::__ndk1::operator==[abi:ne180000]<char, std::__ndk1::char_traits<char>, std::__ndk1::allocator<char> >(std::__ndk1::basic_string<char, std::__ndk1::char_traits<char>, std::__ndk1::allocator<char> > const&, std::__ndk1::basic_string const*)
FUNC 33af4 2b8 0 geode::utils::numFromString<int>(std::__ndk1::basic_string_view<char, std::__ndk1::char_traits<char> >, int)
FUNC 33dac 60 0 geode::impl::ResultData<int, std::__ndk1::basic_string<char, std::__ndk1::char_traits<char>, std::__ndk1::allocator<char> > >::~ResultData()
FUNC 33e0c 7c 0 Utils::playlistModePLAndEPL()
FUNC 33e88 8a8 0 Utils::copyCurrentSongName()
FUNC 34730 c4 0 std::__ndk1::regex_search[abi:ne180000]<std::__ndk1::char_traits<char>, std::__ndk1::allocator<char>, std::__ndk1::char_traits<char><std::__ndk1::sub_match<std::__ndk1::__wrap_iter<char const*> > >, char, std::__ndk1::regex_traits<char> >(std::__ndk1::basic_string<char, std::__ndk1::char_traits<char>, std::__ndk1::allocator<char> > const&, std::__ndk1::match_results<std::__ndk1::allocator<char>::const_iterator, std::__ndk1::char_traits<char><std::__ndk1::sub_match<std::__ndk1::__wrap_iter<char const*> > > >&, std::__ndk1::basic_regex<std::__ndk1::basic_string, std::__ndk1::regex_traits<char> > const&, std::__ndk1::regex_constants::match_flag_type)
FUNC 347f4 1600 0 Utils::populateVector(bool)
FUNC 35df4 38 0 std::__ndk1::basic_ifstream<char, std::__ndk1::char_traits<char> >::~basic_ifstream()
FUNC 35e2c 3a 0 std::__ndk1::__fs::filesystem::directory_iterator::~directory_iterator[abi:ne180000]()
FUNC 35e66 16 0 geode::cocos::CCArrayExt<SongInfoObject*>::~CCArrayExt()
FUNC 35e7c 3b4 0 Utils::getSongInfoObject()
FUNC 36230 174 0 Utils::getSongName()
FUNC 363a4 1e 0 Utils::getSongArtist()
FUNC 363c4 244 0 Utils::currentCustomSong()
FUNC 36608 104 0 _ZN5geode15UnwrapExceptionC2IRNSt6__ndk112basic_stringIcNS2_11char_traitsIcEENS2_9allocatorIcEEEEQsr4implE18IsStringStreamableIT_EEENS_4impl6ErrTagEOSA_
FUNC 3670c 2 0 std::__ndk1::__variant_detail::__visitation::__base::__dispatcher<(unsigned int)0>::__dispatch[abi:ne180000]<std::__ndk1::__variant_detail::__dtor<std::__ndk1::__variant_detail::__traits<int, std::__ndk1::basic_string<char, std::__ndk1::char_traits<char>, std::__ndk1::allocator<char> > >, (std::__ndk1::__variant_detail::_Trait)1>::__destroy[abi:ne180000]()::{lambda(auto:1&)#1}, std::__ndk1::__variant_detail::__base<(std::__ndk1::__variant_detail::__traits<int, std::__ndk1::basic_string<char, std::__ndk1::char_traits<char>, std::__ndk1::allocator<char> > >)1, int, std::__ndk1::allocator<char> >&>(std::__ndk1::__variant_detail::__dtor<std::__ndk1::__variant_detail::__traits<int, std::__ndk1::basic_string<char, std::__ndk1::char_traits<char>, std::__ndk1::allocator<char> > >, (std::__ndk1::__variant_detail::_Trait)1>, std::__ndk1::__variant_detail::__base<(std::__ndk1::__variant_detail::__traits<int, std::__ndk1::basic_string<char, std::__ndk1::char_traits<char>, std::__ndk1::allocator<char> > >)1, int, std::__ndk1::allocator<char> >&)
FUNC 3670e e 0 std::__ndk1::__variant_detail::__visitation::__base::__dispatcher<(unsigned int)1>::__dispatch[abi:ne180000]<std::__ndk1::__variant_detail::__dtor<std::__ndk1::__variant_detail::__traits<int, std::__ndk1::basic_string<char, std::__ndk1::char_traits<char>, std::__ndk1::allocator<char> > >, (std::__ndk1::__variant_detail::_Trait)1>::__destroy[abi:ne180000]()::{lambda(auto:1&)#1}, std::__ndk1::__variant_detail::__base<(std::__ndk1::__variant_detail::__traits<int, std::__ndk1::basic_string<char, std::__ndk1::char_traits<char>, std::__ndk1::allocator<char> > >)1, int, std::__ndk1::allocator<char> >&>(std::__ndk1::__variant_detail::__dtor<std::__ndk1::__variant_detail::__traits<int, std::__ndk1::basic_string<char, std::__ndk1::char_traits<char>, std::__ndk1::allocator<char> > >, (std::__ndk1::__variant_detail::_Trait)1>, std::__ndk1::__variant_detail::__base<(std::__ndk1::__variant_detail::__traits<int, std::__ndk1::basic_string<char, std::__ndk1::char_traits<char>, std::__ndk1::allocator<char> > >)1, int, std::__ndk1::allocator<char> >&)
FUNC 3671c 19c 0 std::__ndk1::uniform_int_distribution<int>::operator()<std::__ndk1::mersenne_twister_engine<unsigned int, (unsigned int)32, (unsigned int)624, (unsigned int)397, (unsigned int)31, (unsigned int)2567483615, (unsigned int)11, (unsigned int)4294967295, (unsigned int)7, (unsigned int)2636928640, (unsigned int)15, (unsigned int)4022730752, (unsigned int)18, (unsigned int)1812433253> >(std::__ndk1::mersenne_twister_engine<unsigned int, (unsigned int)32, (unsigned int)624, (unsigned int)397, (unsigned int)31, (unsigned int)2567483615, (unsigned int)11, (unsigned int)4294967295, (unsigned int)7, (unsigned int)2636928640, (unsigned int)15, (unsigned int)4022730752, (unsigned int)18, (unsigned int)1812433253>&, std::__ndk1::uniform_int_distribution<int>::param_type const&)
FUNC 368b8 3a 0 std::__ndk1::shared_ptr<geode::StringSettingV3>::~shared_ptr[abi:ne180000]()
FUNC 368f4 10c 0 std::__ndk1::regex_replace[abi:ne180000]<std::__ndk1::back_insert_iterator<std::__ndk1::basic_string<char, std::__ndk1::char_traits<char>, std::__ndk1::allocator<char> > >, std::__ndk1::__wrap_iter<char const*>, std::__ndk1::regex_traits<char>, char>(std::__ndk1::regex_traits<char>, std::__ndk1::__wrap_iter<char const*>, std::__ndk1::back_insert_iterator<std::__ndk1::basic_string<char, std::__ndk1::char_traits<char>, std::__ndk1::allocator<char> > >, std::__ndk1::basic_regex<char, std::__ndk1::regex_traits<char> > const&, std::__ndk1::basic_regex const*, std::__ndk1::regex_constants::match_flag_type)
FUNC 36a00 e4 0 std::__ndk1::regex_iterator<std::__ndk1::__wrap_iter<char const*>, char, std::__ndk1::regex_traits<char> >::regex_iterator(std::__ndk1::__wrap_iter<char const*>, std::__ndk1::__wrap_iter<char const*>, std::__ndk1::basic_regex<char, std::__ndk1::regex_traits<char> > const&, std::__ndk1::regex_constants::match_flag_type)
FUNC 36ae4 1ae 0 std::__ndk1::match_results<std::__ndk1::__wrap_iter<char const*>, std::__ndk1::allocator<std::__ndk1::sub_match<std::__ndk1::__wrap_iter<char const*> > > >::format<std::__ndk1::back_insert_iterator<std::__ndk1::basic_string<char, std::__ndk1::char_traits<char>, std::__ndk1::allocator<char> > > >(std::__ndk1::back_insert_iterator<std::__ndk1::basic_string<char, std::__ndk1::char_traits<char>, std::__ndk1::allocator<char> > >, char const*, char const*, std::__ndk1::regex_constants::match_flag_type) const
FUNC 36c94 1a4 0 std::__ndk1::regex_iterator<std::__ndk1::__wrap_iter<char const*>, char, std::__ndk1::regex_traits<char> >::operator++()
FUNC 36e38 b8 0 std::__ndk1::basic_ifstream<char, std::__ndk1::char_traits<char> >::basic_ifstream(char const*, unsigned int)
FUNC 36ef0 108 0 std::__ndk1::getline[abi:ne180000]<char, std::__ndk1::char_traits<char>, std::__ndk1::allocator<char> >(std::__ndk1::basic_istream<char, std::__ndk1::char_traits<char> >, std::__ndk1::basic_string<std::__ndk1::basic_istream, char, std::__ndk1::allocator<char> >&, std::__ndk1::basic_istream)
FUNC 36ff8 2 0 std::__ndk1::__variant_detail::__visitation::__base::__dispatcher<(unsigned int)0>::__dispatch[abi:ne180000]<std::__ndk1::__variant_detail::__dtor<std::__ndk1::__variant_detail::__traits<bool, std::__ndk1::basic_string<char, std::__ndk1::char_traits<char>, std::__ndk1::allocator<char> > >, (std::__ndk1::__variant_detail::_Trait)1>::__destroy[abi:ne180000]()::{lambda(auto:1&)#1}, std::__ndk1::__variant_detail::__base<(std::__ndk1::__variant_detail::__traits<bool, std::__ndk1::basic_string<char, std::__ndk1::char_traits<char>, std::__ndk1::allocator<char> > >)1, bool, std::__ndk1::allocator<char> >&>(std::__ndk1::__variant_detail::__dtor<std::__ndk1::__variant_detail::__traits<bool, std::__ndk1::basic_string<char, std::__ndk1::char_traits<char>, std::__ndk1::allocator<char> > >, (std::__ndk1::__variant_detail::_Trait)1>, std::__ndk1::__variant_detail::__base<(std::__ndk1::__variant_detail::__traits<bool, std::__ndk1::basic_string<char, std::__ndk1::char_traits<char>, std::__ndk1::allocator<char> > >)1, bool, std::__ndk1::allocator<char> >&)
FUNC 36ffa e 0 std::__ndk1::__variant_detail::__visitation::__base::__dispatcher<(unsigned int)1>::__dispatch[abi:ne180000]<std::__ndk1::__variant_detail::__dtor<std::__ndk1::__variant_detail::__traits<bool, std::__ndk1::basic_string<char, std::__ndk1::char_traits<char>, std::__ndk1::allocator<char> > >, (std::__ndk1::__variant_detail::_Trait)1>::__destroy[abi:ne180000]()::{lambda(auto:1&)#1}, std::__ndk1::__variant_detail::__base<(std::__ndk1::__variant_detail::__traits<bool, std::__ndk1::basic_string<char, std::__ndk1::char_traits<char>, std::__ndk1::allocator<char> > >)1, bool, std::__ndk1::allocator<char> >&>(std::__ndk1::__variant_detail::__dtor<std::__ndk1::__variant_detail::__traits<bool, std::__ndk1::basic_string<char, std::__ndk1::char_traits<char>, std::__ndk1::allocator<char> > >, (std::__ndk1::__variant_detail::_Trait)1>, std::__ndk1::__variant_detail::__base<(std::__ndk1::__variant_detail::__traits<bool, std::__ndk1::basic_string<char, std::__ndk1::char_traits<char>, std::__ndk1::allocator<char> > >)1, bool, std::__ndk1::allocator<char> >&)
FUNC 37008 88 0 _GLOBAL__sub_I_Utils.cpp
FUNC 37090 1e 0 std::__ndk1::__fs::filesystem::path::~path[abi:ne180000]()
FUNC 370b0 d94 0 geodeExecFunction13<(anonymous namespace)::ExecFuncUnique13>(geode::ModStateEvent*)
FUNC 37e44 28c 0 MyButtonSettingV3::parse(std::__ndk1::basic_string<char, std::__ndk1::char_traits<char>, std::__ndk1::allocator<char> > const&, std::__ndk1::basic_string<char, std::__ndk1::char_traits<char>, std::__ndk1::allocator<char> > const&, matjson::Value const&)
FUNC 380d0 60 0 geode::impl::ResultData<void, std::__ndk1::basic_string<char, std::__ndk1::char_traits<char>, std::__ndk1::allocator<char> > >::~ResultData()
FUNC 38130 10 0 std::__ndk1::__shared_ptr_emplace<MyButtonSettingV3, std::__ndk1::allocator<MyButtonSettingV3> >::~__shared_ptr_emplace()
FUNC 38140 1c 0 std::__ndk1::__shared_ptr_emplace<MyButtonSettingV3, std::__ndk1::allocator<MyButtonSettingV3> >::~__shared_ptr_emplace()
FUNC 3815c 8 0 std::__ndk1::__shared_ptr_emplace<MyButtonSettingV3, std::__ndk1::allocator<MyButtonSettingV3> >::__on_zero_shared()
FUNC 38164 4 0 std::__ndk1::__shared_ptr_emplace<MyButtonSettingV3, std::__ndk1::allocator<MyButtonSettingV3> >::__on_zero_shared_weak()
FUNC 38168 2 0 std::__ndk1::__function::__base<geode::Result<std::__ndk1::shared_ptr<geode::SettingV3>, std::__ndk1::basic_string<char, std::__ndk1::char_traits<char>, std::__ndk1::allocator<char> > >(std::__ndk1::basic_string<char, std::__ndk1::char_traits<char>, std::__ndk1::allocator<char> > const&, std::__ndk1::basic_string<char, std::__ndk1::char_traits<char>, std::__ndk1::allocator<char> > const&, matjson::Value const&)>::~__base()
FUNC 3816a 4 0 std::__ndk1::__function::__func<geode::Result<std::__ndk1::shared_ptr<geode::SettingV3>, std::__ndk1::basic_string<char, std::__ndk1::char_traits<char>, std::__ndk1::allocator<char> > > (*)(std::__ndk1::basic_string<char, std::__ndk1::char_traits<char>, std::__ndk1::allocator<char> > const&, std::__ndk1::basic_string<char, std::__ndk1::char_traits<char>, std::__ndk1::allocator<char> > const&, matjson::Value const&), std::__ndk1::allocator<geode::Result<std::__ndk1::shared_ptr<geode::SettingV3>, std::__ndk1::basic_string<char, std::__ndk1::char_traits<char>, std::__ndk1::allocator<char> > > (*)(std::__ndk1::basic_string<char, std::__ndk1::char_traits<char>, std::__ndk1::allocator<char> > const&, std::__ndk1::basic_string<char, std::__ndk1::char_traits<char>, std::__ndk1::allocator<char> > const&, matjson::Value const&)>, geode::Result<std::__ndk1::shared_ptr<geode::SettingV3>, std::__ndk1::basic_string<char, std::__ndk1::char_traits<char>, std::__ndk1::allocator<char> > >(std::__ndk1::basic_string<char, std::__ndk1::char_traits<char>, std::__ndk1::allocator<char> > const&, std::__ndk1::basic_string<char, std::__ndk1::char_traits<char>, std::__ndk1::allocator<char> > const&, matjson::Value const&)>::~__func()
FUNC 38170 20 0 std::__ndk1::__function::__func<geode::Result<std::__ndk1::shared_ptr<geode::SettingV3>, std::__ndk1::basic_string<char, std::__ndk1::char_traits<char>, std::__ndk1::allocator<char> > > (*)(std::__ndk1::basic_string<char, std::__ndk1::char_traits<char>, std::__ndk1::allocator<char> > const&, std::__ndk1::basic_string<char, std::__ndk1::char_traits<char>, std::__ndk1::allocator<char> > const&, matjson::Value const&), std::__ndk1::allocator<geode::Result<std::__ndk1::shared_ptr<geode::SettingV3>, std::__ndk1::basic_string<char, std::__ndk1::char_traits<char>, std::__ndk1::allocator<char> > > (*)(std::__ndk1::basic_string<char, std::__ndk1::char_traits<char>, std::__ndk1::allocator<char> > const&, std::__ndk1::basic_string<char, std::__ndk1::char_traits<char>, std::__ndk1::allocator<char> > const&, matjson::Value const&)>, geode::Result<std::__ndk1::shared_ptr<geode::SettingV3>, std::__ndk1::basic_string<char, std::__ndk1::char_traits<char>, std::__ndk1::allocator<char> > >(std::__ndk1::basic_string<char, std::__ndk1::char_traits<char>, std::__ndk1::allocator<char> > const&, std::__ndk1::basic_string<char, std::__ndk1::char_traits<char>, std::__ndk1::allocator<char> > const&, matjson::Value const&)>::__clone() const
FUNC 38190 14 0 std::__ndk1::__function::__func<geode::Result<std::__ndk1::shared_ptr<geode::SettingV3>, std::__ndk1::basic_string<char, std::__ndk1::char_traits<char>, std::__ndk1::allocator<char> > > (*)(std::__ndk1::basic_string<char, std::__ndk1::char_traits<char>, std::__ndk1::allocator<char> > const&, std::__ndk1::basic_string<char, std::__ndk1::char_traits<char>, std::__ndk1::allocator<char> > const&, matjson::Value const&), std::__ndk1::allocator<geode::Result<std::__ndk1::shared_ptr<geode::SettingV3>, std::__ndk1::basic_string<char, std::__ndk1::char_traits<char>, std::__ndk1::allocator<char> > > (*)(std::__ndk1::basic_string<char, std::__ndk1::char_traits<char>, std::__ndk1::allocator<char> > const&, std::__ndk1::basic_string<char, std::__ndk1::char_traits<char>, std::__ndk1::allocator<char> > const&, matjson::Value const&)>, geode::Result<std::__ndk1::shared_ptr<geode::SettingV3>, std::__ndk1::basic_string<char, std::__ndk1::char_traits<char>, std::__ndk1::allocator<char> > >(std::__ndk1::basic_string<char, std::__ndk1::char_traits<char>, std::__ndk1::allocator<char> > const&, std::__ndk1::basic_string<char, std::__ndk1::char_traits<char>, std::__ndk1::allocator<char> > const&, matjson::Value const&)>::__clone(std::__ndk1::__function::__base<geode::Result<std::__ndk1::shared_ptr<geode::SettingV3>, std::__ndk1::basic_string<char, std::__ndk1::char_traits<char>, std::__ndk1::allocator<char> > >(std::__ndk1::basic_string<char, std::__ndk1::char_traits<char>, std::__ndk1::allocator<char> > const&, std::__ndk1::basic_string<char, std::__ndk1::char_traits<char>, std::__ndk1::allocator<char> > const&, matjson::Value const&)>*) const
FUNC 381a4 2 0 std::__ndk1::__function::__func<geode::Result<std::__ndk1::shared_ptr<geode::SettingV3>, std::__ndk1::basic_string<char, std::__ndk1::char_traits<char>, std::__ndk1::allocator<char> > > (*)(std::__ndk1::basic_string<char, std::__ndk1::char_traits<char>, std::__ndk1::allocator<char> > const&, std::__ndk1::basic_string<char, std::__ndk1::char_traits<char>, std::__ndk1::allocator<char> > const&, matjson::Value const&), std::__ndk1::allocator<geode::Result<std::__ndk1::shared_ptr<geode::SettingV3>, std::__ndk1::basic_string<char, std::__ndk1::char_traits<char>, std::__ndk1::allocator<char> > > (*)(std::__ndk1::basic_string<char, std::__ndk1::char_traits<char>, std::__ndk1::allocator<char> > const&, std::__ndk1::basic_string<char, std::__ndk1::char_traits<char>, std::__ndk1::allocator<char> > const&, matjson::Value const&)>, geode::Result<std::__ndk1::shared_ptr<geode::SettingV3>, std::__ndk1::basic_string<char, std::__ndk1::char_traits<char>, std::__ndk1::allocator<char> > >(std::__ndk1::basic_string<char, std::__ndk1::char_traits<char>, std::__ndk1::allocator<char> > const&, std::__ndk1::basic_string<char, std::__ndk1::char_traits<char>, std::__ndk1::allocator<char> > const&, matjson::Value const&)>::destroy()
FUNC 381a6 4 0 std::__ndk1::__function::__func<geode::Result<std::__ndk1::shared_ptr<geode::SettingV3>, std::__ndk1::basic_string<char, std::__ndk1::char_traits<char>, std::__ndk1::allocator<char> > > (*)(std::__ndk1::basic_string<char, std::__ndk1::char_traits<char>, std::__ndk1::allocator<char> > const&, std::__ndk1::basic_string<char, std::__ndk1::char_traits<char>, std::__ndk1::allocator<char> > const&, matjson::Value const&), std::__ndk1::allocator<geode::Result<std::__ndk1::shared_ptr<geode::SettingV3>, std::__ndk1::basic_string<char, std::__ndk1::char_traits<char>, std::__ndk1::allocator<char> > > (*)(std::__ndk1::basic_string<char, std::__ndk1::char_traits<char>, std::__ndk1::allocator<char> > const&, std::__ndk1::basic_string<char, std::__ndk1::char_traits<char>, std::__ndk1::allocator<char> > const&, matjson::Value const&)>, geode::Result<std::__ndk1::shared_ptr<geode::SettingV3>, std::__ndk1::basic_string<char, std::__ndk1::char_traits<char>, std::__ndk1::allocator<char> > >(std::__ndk1::basic_string<char, std::__ndk1::char_traits<char>, std::__ndk1::allocator<char> > const&, std::__ndk1::basic_string<char, std::__ndk1::char_traits<char>, std::__ndk1::allocator<char> > const&, matjson::Value const&)>::destroy_deallocate()
FUNC 381aa 14 0 std::__ndk1::__function::__func<geode::Result<std::__ndk1::shared_ptr<geode::SettingV3>, std::__ndk1::basic_string<char, std::__ndk1::char_traits<char>, std::__ndk1::allocator<char> > > (*)(std::__ndk1::basic_string<char, std::__ndk1::char_traits<char>, std::__ndk1::allocator<char> > const&, std::__ndk1::basic_string<char, std::__ndk1::char_traits<char>, std::__ndk1::allocator<char> > const&, matjson::Value const&), std::__ndk1::allocator<geode::Result<std::__ndk1::shared_ptr<geode::SettingV3>, std::__ndk1::basic_string<char, std::__ndk1::char_traits<char>, std::__ndk1::allocator<char> > > (*)(std::__ndk1::basic_string<char, std::__ndk1::char_traits<char>, std::__ndk1::allocator<char> > const&, std::__ndk1::basic_string<char, std::__ndk1::char_traits<char>, std::__ndk1::allocator<char> > const&, matjson::Value const&)>, geode::Result<std::__ndk1::shared_ptr<geode::SettingV3>, std::__ndk1::basic_string<char, std::__ndk1::char_traits<char>, std::__ndk1::allocator<char> > >(std::__ndk1::basic_string<char, std::__ndk1::char_traits<char>, std::__ndk1::allocator<char> > const&, std::__ndk1::basic_string<char, std::__ndk1::char_traits<char>, std::__ndk1::allocator<char> > const&, matjson::Value const&)>::operator()(std::__ndk1::basic_string<char, std::__ndk1::char_traits<char>, std::__ndk1::allocator<char> > const&, std::__ndk1::basic_string<char, std::__ndk1::char_traits<char>, std::__ndk1::allocator<char> > const&, matjson::Value const&)
FUNC 381c0 18 0 std::__ndk1::__function::__func<geode::Result<std::__ndk1::shared_ptr<geode::SettingV3>, std::__ndk1::basic_string<char, std::__ndk1::char_traits<char>, std::__ndk1::allocator<char> > > (*)(std::__ndk1::basic_string<char, std::__ndk1::char_traits<char>, std::__ndk1::allocator<char> > const&, std::__ndk1::basic_string<char, std::__ndk1::char_traits<char>, std::__ndk1::allocator<char> > const&, matjson::Value const&), std::__ndk1::allocator<geode::Result<std::__ndk1::shared_ptr<geode::SettingV3>, std::__ndk1::basic_string<char, std::__ndk1::char_traits<char>, std::__ndk1::allocator<char> > > (*)(std::__ndk1::basic_string<char, std::__ndk1::char_traits<char>, std::__ndk1::allocator<char> > const&, std::__ndk1::basic_string<char, std::__ndk1::char_traits<char>, std::__ndk1::allocator<char> > const&, matjson::Value const&)>, geode::Result<std::__ndk1::shared_ptr<geode::SettingV3>, std::__ndk1::basic_string<char, std::__ndk1::char_traits<char>, std::__ndk1::allocator<char> > >(std::__ndk1::basic_string<char, std::__ndk1::char_traits<char>, std::__ndk1::allocator<char> > const&, std::__ndk1::basic_string<char, std::__ndk1::char_traits<char>, std::__ndk1::allocator<char> > const&, matjson::Value const&)>::target(std::type_info const&) const
FUNC 381d8 c 0 std::__ndk1::__function::__func<geode::Result<std::__ndk1::shared_ptr<geode::SettingV3>, std::__ndk1::basic_string<char, std::__ndk1::char_traits<char>, std::__ndk1::allocator<char> > > (*)(std::__ndk1::basic_string<char, std::__ndk1::char_traits<char>, std::__ndk1::allocator<char> > const&, std::__ndk1::basic_string<char, std::__ndk1::char_traits<char>, std::__ndk1::allocator<char> > const&, matjson::Value const&), std::__ndk1::allocator<geode::Result<std::__ndk1::shared_ptr<geode::SettingV3>, std::__ndk1::basic_string<char, std::__ndk1::char_traits<char>, std::__ndk1::allocator<char> > > (*)(std::__ndk1::basic_string<char, std::__ndk1::char_traits<char>, std::__ndk1::allocator<char> > const&, std::__ndk1::basic_string<char, std::__ndk1::char_traits<char>, std::__ndk1::allocator<char> > const&, matjson::Value const&)>, geode::Result<std::__ndk1::shared_ptr<geode::SettingV3>, std::__ndk1::basic_string<char, std::__ndk1::char_traits<char>, std::__ndk1::allocator<char> > >(std::__ndk1::basic_string<char, std::__ndk1::char_traits<char>, std::__ndk1::allocator<char> > const&, std::__ndk1::basic_string<char, std::__ndk1::char_traits<char>, std::__ndk1::allocator<char> > const&, matjson::Value const&)>::target_type() const
FUNC 381e4 2 0 std::__ndk1::__variant_detail::__visitation::__base::__dispatcher<(unsigned int)0>::__dispatch[abi:ne180000]<std::__ndk1::__variant_detail::__dtor<std::__ndk1::__variant_detail::__traits<std::__ndk1::monostate, std::__ndk1::basic_string<char, std::__ndk1::char_traits<char>, std::__ndk1::allocator<char> > >, (std::__ndk1::__variant_detail::_Trait)1>::__destroy[abi:ne180000]()::{lambda(auto:1&)#1}, std::__ndk1::__variant_detail::__base<(std::__ndk1::__variant_detail::__traits<std::__ndk1::monostate, std::__ndk1::basic_string<char, std::__ndk1::char_traits<char>, std::__ndk1::allocator<char> > >)1, std::__ndk1::__variant_detail::__traits, std::__ndk1::allocator<char> >&>(std::__ndk1::__variant_detail::__dtor<std::__ndk1::__variant_detail::__traits<std::__ndk1::monostate, std::__ndk1::basic_string<char, std::__ndk1::char_traits<char>, std::__ndk1::allocator<char> > >, (std::__ndk1::__variant_detail::_Trait)1>, std::__ndk1::__variant_detail::__base<(std::__ndk1::__variant_detail::__traits<std::__ndk1::monostate, std::__ndk1::basic_string<char, std::__ndk1::char_traits<char>, std::__ndk1::allocator<char> > >)1, std::__ndk1::__variant_detail::__traits, std::__ndk1::allocator<char> >&)
FUNC 381e6 e 0 std::__ndk1::__variant_detail::__visitation::__base::__dispatcher<(unsigned int)1>::__dispatch[abi:ne180000]<std::__ndk1::__variant_detail::__dtor<std::__ndk1::__variant_detail::__traits<std::__ndk1::monostate, std::__ndk1::basic_string<char, std::__ndk1::char_traits<char>, std::__ndk1::allocator<char> > >, (std::__ndk1::__variant_detail::_Trait)1>::__destroy[abi:ne180000]()::{lambda(auto:1&)#1}, std::__ndk1::__variant_detail::__base<(std::__ndk1::__variant_detail::__traits<std::__ndk1::monostate, std::__ndk1::basic_string<char, std::__ndk1::char_traits<char>, std::__ndk1::allocator<char> > >)1, std::__ndk1::__variant_detail::__traits, std::__ndk1::allocator<char> >&>(std::__ndk1::__variant_detail::__dtor<std::__ndk1::__variant_detail::__traits<std::__ndk1::monostate, std::__ndk1::basic_string<char, std::__ndk1::char_traits<char>, std::__ndk1::allocator<char> > >, (std::__ndk1::__variant_detail::_Trait)1>, std::__ndk1::__variant_detail::__base<(std::__ndk1::__variant_detail::__traits<std::__ndk1::monostate, std::__ndk1::basic_string<char, std::__ndk1::char_traits<char>, std::__ndk1::allocator<char> > >)1, std::__ndk1::__variant_detail::__traits, std::__ndk1::allocator<char> >&)
FUNC 381f4 3a 0 std::__ndk1::shared_ptr<geode::FileSettingV3>::~shared_ptr[abi:ne180000]()
FUNC 38230 90 0 geode::EventListener<geode::SettingChangedFilterV3>::EventListener(std::__ndk1::function<void (std::__ndk1::shared_ptr<geode::SettingV3>)>, geode::SettingChangedFilterV3)
FUNC 382c0 3a 0 geode::SettingChangedFilterV3::~SettingChangedFilterV3()
FUNC 382fa 4 0 std::__ndk1::__function::__func<geode::listenForSettingChangesV3<bool, geodeExecFunction13<(anonymous namespace)::ExecFuncUnique13>(geode::ModStateEvent*)::{lambda(bool)#1}>(std::__ndk1::basic_string_view<char, std::__ndk1::char_traits<char> >, geodeExecFunction13<(anonymous namespace)::ExecFuncUnique13>(geode::ModStateEvent*)::{lambda(bool)#1}&&, geode::Mod*)::{lambda(std::__ndk1::shared_ptr<geode::SettingV3>)#1}, std::__ndk1::allocator<geode::listenForSettingChangesV3<bool, geodeExecFunction13<(anonymous namespace)::ExecFuncUnique13>(geode::ModStateEvent*)::{lambda(bool)#1}>(std::__ndk1::basic_string_view<char, std::__ndk1::char_traits<char> >, geodeExecFunction13<(anonymous namespace)::ExecFuncUnique13>(geode::ModStateEvent*)::{lambda(bool)#1}&&, geode::Mod*)::{lambda(std::__ndk1::shared_ptr<geode::SettingV3>)#1}>, void (std::__ndk1::shared_ptr<geode::SettingV3>)>::~__func()
FUNC 38300 20 0 std::__ndk1::__function::__func<geode::listenForSettingChangesV3<bool, geodeExecFunction13<(anonymous namespace)::ExecFuncUnique13>(geode::ModStateEvent*)::{lambda(bool)#1}>(std::__ndk1::basic_string_view<char, std::__ndk1::char_traits<char> >, geodeExecFunction13<(anonymous namespace)::ExecFuncUnique13>(geode::ModStateEvent*)::{lambda(bool)#1}&&, geode::Mod*)::{lambda(std::__ndk1::shared_ptr<geode::SettingV3>)#1}, std::__ndk1::allocator<geode::listenForSettingChangesV3<bool, geodeExecFunction13<(anonymous namespace)::ExecFuncUnique13>(geode::ModStateEvent*)::{lambda(bool)#1}>(std::__ndk1::basic_string_view<char, std::__ndk1::char_traits<char> >, geodeExecFunction13<(anonymous namespace)::ExecFuncUnique13>(geode::ModStateEvent*)::{lambda(bool)#1}&&, geode::Mod*)::{lambda(std::__ndk1::shared_ptr<geode::SettingV3>)#1}>, void (std::__ndk1::shared_ptr<geode::SettingV3>)>::__clone() const
FUNC 38320 14 0 std::__ndk1::__function::__func<geode::listenForSettingChangesV3<bool, geodeExecFunction13<(anonymous namespace)::ExecFuncUnique13>(geode::ModStateEvent*)::{lambda(bool)#1}>(std::__ndk1::basic_string_view<char, std::__ndk1::char_traits<char> >, geodeExecFunction13<(anonymous namespace)::ExecFuncUnique13>(geode::ModStateEvent*)::{lambda(bool)#1}&&, geode::Mod*)::{lambda(std::__ndk1::shared_ptr<geode::SettingV3>)#1}, std::__ndk1::allocator<geode::listenForSettingChangesV3<bool, geodeExecFunction13<(anonymous namespace)::ExecFuncUnique13>(geode::ModStateEvent*)::{lambda(bool)#1}>(std::__ndk1::basic_string_view<char, std::__ndk1::char_traits<char> >, geodeExecFunction13<(anonymous namespace)::ExecFuncUnique13>(geode::ModStateEvent*)::{lambda(bool)#1}&&, geode::Mod*)::{lambda(std::__ndk1::shared_ptr<geode::SettingV3>)#1}>, void (std::__ndk1::shared_ptr<geode::SettingV3>)>::__clone(std::__ndk1::__function::__base<void (std::__ndk1::shared_ptr<geode::SettingV3>)>*) const
FUNC 38334 2 0 std::__ndk1::__function::__func<geode::listenForSettingChangesV3<bool, geodeExecFunction13<(anonymous namespace)::ExecFuncUnique13>(geode::ModStateEvent*)::{lambda(bool)#1}>(std::__ndk1::basic_string_view<char, std::__ndk1::char_traits<char> >, geodeExecFunction13<(anonymous namespace)::ExecFuncUnique13>(geode::ModStateEvent*)::{lambda(bool)#1}&&, geode::Mod*)::{lambda(std::__ndk1::shared_ptr<geode::SettingV3>)#1}, std::__ndk1::allocator<geode::listenForSettingChangesV3<bool, geodeExecFunction13<(anonymous namespace)::ExecFuncUnique13>(geode::ModStateEvent*)::{lambda(bool)#1}>(std::__ndk1::basic_string_view<char, std::__ndk1::char_traits<char> >, geodeExecFunction13<(anonymous namespace)::ExecFuncUnique13>(geode::ModStateEvent*)::{lambda(bool)#1}&&, geode::Mod*)::{lambda(std::__ndk1::shared_ptr<geode::SettingV3>)#1}>, void (std::__ndk1::shared_ptr<geode::SettingV3>)>::destroy()
FUNC 38336 4 0 std::__ndk1::__function::__func<geode::listenForSettingChangesV3<bool, geodeExecFunction13<(anonymous namespace)::ExecFuncUnique13>(geode::ModStateEvent*)::{lambda(bool)#1}>(std::__ndk1::basic_string_view<char, std::__ndk1::char_traits<char> >, geodeExecFunction13<(anonymous namespace)::ExecFuncUnique13>(geode::ModStateEvent*)::{lambda(bool)#1}&&, geode::Mod*)::{lambda(std::__ndk1::shared_ptr<geode::SettingV3>)#1}, std::__ndk1::allocator<geode::listenForSettingChangesV3<bool, geodeExecFunction13<(anonymous namespace)::ExecFuncUnique13>(geode::ModStateEvent*)::{lambda(bool)#1}>(std::__ndk1::basic_string_view<char, std::__ndk1::char_traits<char> >, geodeExecFunction13<(anonymous namespace)::ExecFuncUnique13>(geode::ModStateEvent*)::{lambda(bool)#1}&&, geode::Mod*)::{lambda(std::__ndk1::shared_ptr<geode::SettingV3>)#1}>, void (std::__ndk1::shared_ptr<geode::SettingV3>)>::destroy_deallocate()
FUNC 3833c 190 0 std::__ndk1::__function::__func<geode::listenForSettingChangesV3<bool, geodeExecFunction13<(anonymous namespace)::ExecFuncUnique13>(geode::ModStateEvent*)::{lambda(bool)#1}>(std::__ndk1::basic_string_view<char, std::__ndk1::char_traits<char> >, geodeExecFunction13<(anonymous namespace)::ExecFuncUnique13>(geode::ModStateEvent*)::{lambda(bool)#1}&&, geode::Mod*)::{lambda(std::__ndk1::shared_ptr<geode::SettingV3>)#1}, std::__ndk1::allocator<geode::listenForSettingChangesV3<bool, geodeExecFunction13<(anonymous namespace)::ExecFuncUnique13>(geode::ModStateEvent*)::{lambda(bool)#1}>(std::__ndk1::basic_string_view<char, std::__ndk1::char_traits<char> >, geodeExecFunction13<(anonymous namespace)::ExecFuncUnique13>(geode::ModStateEvent*)::{lambda(bool)#1}&&, geode::Mod*)::{lambda(std::__ndk1::shared_ptr<geode::SettingV3>)#1}>, void (std::__ndk1::shared_ptr<geode::SettingV3>)>::operator()(std::__ndk1::shared_ptr<geode::SettingV3>&&)
FUNC 384cc 18 0 std::__ndk1::__function::__func<geode::listenForSettingChangesV3<bool, geodeExecFunction13<(anonymous namespace)::ExecFuncUnique13>(geode::ModStateEvent*)::{lambda(bool)#1}>(std::__ndk1::basic_string_view<char, std::__ndk1::char_traits<char> >, geodeExecFunction13<(anonymous namespace)::ExecFuncUnique13>(geode::ModStateEvent*)::{lambda(bool)#1}&&, geode::Mod*)::{lambda(std::__ndk1::shared_ptr<geode::SettingV3>)#1}, std::__ndk1::allocator<geode::listenForSettingChangesV3<bool, geodeExecFunction13<(anonymous namespace)::ExecFuncUnique13>(geode::ModStateEvent*)::{lambda(bool)#1}>(std::__ndk1::basic_string_view<char, std::__ndk1::char_traits<char> >, geodeExecFunction13<(anonymous namespace)::ExecFuncUnique13>(geode::ModStateEvent*)::{lambda(bool)#1}&&, geode::Mod*)::{lambda(std::__ndk1::shared_ptr<geode::SettingV3>)#1}>, void (std::__ndk1::shared_ptr<geode::SettingV3>)>::target(std::type_info const&) const
FUNC 384e4 c 0 std::__ndk1::__function::__func<geode::listenForSettingChangesV3<bool, geodeExecFunction13<(anonymous namespace)::ExecFuncUnique13>(geode::ModStateEvent*)::{lambda(bool)#1}>(std::__ndk1::basic_string_view<char, std::__ndk1::char_traits<char> >, geodeExecFunction13<(anonymous namespace)::ExecFuncUnique13>(geode::ModStateEvent*)::{lambda(bool)#1}&&, geode::Mod*)::{lambda(std::__ndk1::shared_ptr<geode::SettingV3>)#1}, std::__ndk1::allocator<geode::listenForSettingChangesV3<bool, geodeExecFunction13<(anonymous namespace)::ExecFuncUnique13>(geode::ModStateEvent*)::{lambda(bool)#1}>(std::__ndk1::basic_string_view<char, std::__ndk1::char_traits<char> >, geodeExecFunction13<(anonymous namespace)::ExecFuncUnique13>(geode::ModStateEvent*)::{lambda(bool)#1}&&, geode::Mod*)::{lambda(std::__ndk1::shared_ptr<geode::SettingV3>)#1}>, void (std::__ndk1::shared_ptr<geode::SettingV3>)>::target_type() const
FUNC 384f0 3a 0 std::__ndk1::shared_ptr<geode::BoolSettingV3>::~shared_ptr[abi:ne180000]()
FUNC 3852a 4 0 geode::EventListener<geode::SettingChangedFilterV3>::getPool() const
FUNC 38530 e4 0 geode::EventListener<geode::SettingChangedFilterV3>::handle(geode::Event*)
FUNC 38614 68 0 geode::EventListener<geode::SettingChangedFilterV3>::~EventListener()
FUNC 3867c 6c 0 geode::EventListener<geode::SettingChangedFilterV3>::~EventListener()
FUNC 386e8 4 0 std::__ndk1::__function::__func<geode::listenForSettingChangesV3<bool, geodeExecFunction13<(anonymous namespace)::ExecFuncUnique13>(geode::ModStateEvent*)::{lambda(bool)#2}>(std::__ndk1::basic_string_view<char, std::__ndk1::char_traits<char> >, geodeExecFunction13<(anonymous namespace)::ExecFuncUnique13>(geode::ModStateEvent*)::{lambda(bool)#2}&&, geode::Mod*)::{lambda(std::__ndk1::shared_ptr<geode::SettingV3>)#1}, std::__ndk1::allocator<geode::listenForSettingChangesV3<bool, geodeExecFunction13<(anonymous namespace)::ExecFuncUnique13>(geode::ModStateEvent*)::{lambda(bool)#2}>(std::__ndk1::basic_string_view<char, std::__ndk1::char_traits<char> >, geodeExecFunction13<(anonymous namespace)::ExecFuncUnique13>(geode::ModStateEvent*)::{lambda(bool)#2}&&, geode::Mod*)::{lambda(std::__ndk1::shared_ptr<geode::SettingV3>)#1}>, void (std::__ndk1::shared_ptr<geode::SettingV3>)>::~__func()
FUNC 386ec 20 0 std::__ndk1::__function::__func<geode::listenForSettingChangesV3<bool, geodeExecFunction13<(anonymous namespace)::ExecFuncUnique13>(geode::ModStateEvent*)::{lambda(bool)#2}>(std::__ndk1::basic_string_view<char, std::__ndk1::char_traits<char> >, geodeExecFunction13<(anonymous namespace)::ExecFuncUnique13>(geode::ModStateEvent*)::{lambda(bool)#2}&&, geode::Mod*)::{lambda(std::__ndk1::shared_ptr<geode::SettingV3>)#1}, std::__ndk1::allocator<geode::listenForSettingChangesV3<bool, geodeExecFunction13<(anonymous namespace)::ExecFuncUnique13>(geode::ModStateEvent*)::{lambda(bool)#2}>(std::__ndk1::basic_string_view<char, std::__ndk1::char_traits<char> >, geodeExecFunction13<(anonymous namespace)::ExecFuncUnique13>(geode::ModStateEvent*)::{lambda(bool)#2}&&, geode::Mod*)::{lambda(std::__ndk1::shared_ptr<geode::SettingV3>)#1}>, void (std::__ndk1::shared_ptr<geode::SettingV3>)>::__clone() const
FUNC 3870c 14 0 std::__ndk1::__function::__func<geode::listenForSettingChangesV3<bool, geodeExecFunction13<(anonymous namespace)::ExecFuncUnique13>(geode::ModStateEvent*)::{lambda(bool)#2}>(std::__ndk1::basic_string_view<char, std::__ndk1::char_traits<char> >, geodeExecFunction13<(anonymous namespace)::ExecFuncUnique13>(geode::ModStateEvent*)::{lambda(bool)#2}&&, geode::Mod*)::{lambda(std::__ndk1::shared_ptr<geode::SettingV3>)#1}, std::__ndk1::allocator<geode::listenForSettingChangesV3<bool, geodeExecFunction13<(anonymous namespace)::ExecFuncUnique13>(geode::ModStateEvent*)::{lambda(bool)#2}>(std::__ndk1::basic_string_view<char, std::__ndk1::char_traits<char> >, geodeExecFunction13<(anonymous namespace)::ExecFuncUnique13>(geode::ModStateEvent*)::{lambda(bool)#2}&&, geode::Mod*)::{lambda(std::__ndk1::shared_ptr<geode::SettingV3>)#1}>, void (std::__ndk1::shared_ptr<geode::SettingV3>)>::__clone(std::__ndk1::__function::__base<void (std::__ndk1::shared_ptr<geode::SettingV3>)>*) const
FUNC 38720 2 0 std::__ndk1::__function::__func<geode::listenForSettingChangesV3<bool, geodeExecFunction13<(anonymous namespace)::ExecFuncUnique13>(geode::ModStateEvent*)::{lambda(bool)#2}>(std::__ndk1::basic_string_view<char, std::__ndk1::char_traits<char> >, geodeExecFunction13<(anonymous namespace)::ExecFuncUnique13>(geode::ModStateEvent*)::{lambda(bool)#2}&&, geode::Mod*)::{lambda(std::__ndk1::shared_ptr<geode::SettingV3>)#1}, std::__ndk1::allocator<geode::listenForSettingChangesV3<bool, geodeExecFunction13<(anonymous namespace)::ExecFuncUnique13>(geode::ModStateEvent*)::{lambda(bool)#2}>(std::__ndk1::basic_string_view<char, std::__ndk1::char_traits<char> >, geodeExecFunction13<(anonymous namespace)::ExecFuncUnique13>(geode::ModStateEvent*)::{lambda(bool)#2}&&, geode::Mod*)::{lambda(std::__ndk1::shared_ptr<geode::SettingV3>)#1}>, void (std::__ndk1::shared_ptr<geode::SettingV3>)>::destroy()
FUNC 38722 4 0 std::__ndk1::__function::__func<geode::listenForSettingChangesV3<bool, geodeExecFunction13<(anonymous namespace)::ExecFuncUnique13>(geode::ModStateEvent*)::{lambda(bool)#2}>(std::__ndk1::basic_string_view<char, std::__ndk1::char_traits<char> >, geodeExecFunction13<(anonymous namespace)::ExecFuncUnique13>(geode::ModStateEvent*)::{lambda(bool)#2}&&, geode::Mod*)::{lambda(std::__ndk1::shared_ptr<geode::SettingV3>)#1}, std::__ndk1::allocator<geode::listenForSettingChangesV3<bool, geodeExecFunction13<(anonymous namespace)::ExecFuncUnique13>(geode::ModStateEvent*)::{lambda(bool)#2}>(std::__ndk1::basic_string_view<char, std::__ndk1::char_traits<char> >, geodeExecFunction13<(anonymous namespace)::ExecFuncUnique13>(geode::ModStateEvent*)::{lambda(bool)#2}&&, geode::Mod*)::{lambda(std::__ndk1::shared_ptr<geode::SettingV3>)#1}>, void (std::__ndk1::shared_ptr<geode::SettingV3>)>::destroy_deallocate()
FUNC 38728 200 0 std::__ndk1::__function::__func<geode::listenForSettingChangesV3<bool, geodeExecFunction13<(anonymous namespace)::ExecFuncUnique13>(geode::ModStateEvent*)::{lambda(bool)#2}>(std::__ndk1::basic_string_view<char, std::__ndk1::char_traits<char> >, geodeExecFunction13<(anonymous namespace)::ExecFuncUnique13>(geode::ModStateEvent*)::{lambda(bool)#2}&&, geode::Mod*)::{lambda(std::__ndk1::shared_ptr<geode::SettingV3>)#1}, std::__ndk1::allocator<geode::listenForSettingChangesV3<bool, geodeExecFunction13<(anonymous namespace)::ExecFuncUnique13>(geode::ModStateEvent*)::{lambda(bool)#2}>(std::__ndk1::basic_string_view<char, std::__ndk1::char_traits<char> >, geodeExecFunction13<(anonymous namespace)::ExecFuncUnique13>(geode::ModStateEvent*)::{lambda(bool)#2}&&, geode::Mod*)::{lambda(std::__ndk1::shared_ptr<geode::SettingV3>)#1}>, void (std::__ndk1::shared_ptr<geode::SettingV3>)>::operator()(std::__ndk1::shared_ptr<geode::SettingV3>&&)
FUNC 38928 18 0 std::__ndk1::__function::__func<geode::listenForSettingChangesV3<bool, geodeExecFunction13<(anonymous namespace)::ExecFuncUnique13>(geode::ModStateEvent*)::{lambda(bool)#2}>(std::__ndk1::basic_string_view<char, std::__ndk1::char_traits<char> >, geodeExecFunction13<(anonymous namespace)::ExecFuncUnique13>(geode::ModStateEvent*)::{lambda(bool)#2}&&, geode::Mod*)::{lambda(std::__ndk1::shared_ptr<geode::SettingV3>)#1}, std::__ndk1::allocator<geode::listenForSettingChangesV3<bool, geodeExecFunction13<(anonymous namespace)::ExecFuncUnique13>(geode::ModStateEvent*)::{lambda(bool)#2}>(std::__ndk1::basic_string_view<char, std::__ndk1::char_traits<char> >, geodeExecFunction13<(anonymous namespace)::ExecFuncUnique13>(geode::ModStateEvent*)::{lambda(bool)#2}&&, geode::Mod*)::{lambda(std::__ndk1::shared_ptr<geode::SettingV3>)#1}>, void (std::__ndk1::shared_ptr<geode::SettingV3>)>::target(std::type_info const&) const
FUNC 38940 c 0 std::__ndk1::__function::__func<geode::listenForSettingChangesV3<bool, geodeExecFunction13<(anonymous namespace)::ExecFuncUnique13>(geode::ModStateEvent*)::{lambda(bool)#2}>(std::__ndk1::basic_string_view<char, std::__ndk1::char_traits<char> >, geodeExecFunction13<(anonymous namespace)::ExecFuncUnique13>(geode::ModStateEvent*)::{lambda(bool)#2}&&, geode::Mod*)::{lambda(std::__ndk1::shared_ptr<geode::SettingV3>)#1}, std::__ndk1::allocator<geode::listenForSettingChangesV3<bool, geodeExecFunction13<(anonymous namespace)::ExecFuncUnique13>(geode::ModStateEvent*)::{lambda(bool)#2}>(std::__ndk1::basic_string_view<char, std::__ndk1::char_traits<char> >, geodeExecFunction13<(anonymous namespace)::ExecFuncUnique13>(geode::ModStateEvent*)::{lambda(bool)#2}&&, geode::Mod*)::{lambda(std::__ndk1::shared_ptr<geode::SettingV3>)#1}>, void (std::__ndk1::shared_ptr<geode::SettingV3>)>::target_type() const
FUNC 3894c 4 0 std::__ndk1::__function::__func<geode::listenForSettingChangesV3<std::__ndk1::__fs::filesystem::path, geodeExecFunction13<(anonymous namespace)::ExecFuncUnique13>(geode::ModStateEvent*)::{lambda(std::__ndk1::__fs::filesystem::path)#1}>(std::__ndk1::basic_string_view<char, std::__ndk1::char_traits<char> >, geodeExecFunction13<(anonymous namespace)::ExecFuncUnique13>(geode::ModStateEvent*)::{lambda(std::__ndk1::__fs::filesystem::path&&)#1}, geode::Mod*)::{lambda(std::__ndk1::shared_ptr<geode::SettingV3>)#1}, std::__ndk1::allocator<geode::listenForSettingChangesV3<std::__ndk1::__fs::filesystem::path, geodeExecFunction13<(anonymous namespace)::ExecFuncUnique13>(geode::ModStateEvent*)::{lambda(std::__ndk1::__fs::filesystem::path)#1}>(std::__ndk1::basic_string_view<char, std::__ndk1::char_traits<char> >, geodeExecFunction13<(anonymous namespace)::ExecFuncUnique13>(geode::ModStateEvent*)::{lambda(std::__ndk1::__fs::filesystem::path&&)#1}, geode::Mod*)::{lambda(std::__ndk1::shared_ptr<geode::SettingV3>)#1}>, void (std::__ndk1::shared_ptr<geode::SettingV3>)>::~__func()
FUNC 38950 20 0 std::__ndk1::__function::__func<geode::listenForSettingChangesV3<std::__ndk1::__fs::filesystem::path, geodeExecFunction13<(anonymous namespace)::ExecFuncUnique13>(geode::ModStateEvent*)::{lambda(std::__ndk1::__fs::filesystem::path)#1}>(std::__ndk1::basic_string_view<char, std::__ndk1::char_traits<char> >, geodeExecFunction13<(anonymous namespace)::ExecFuncUnique13>(geode::ModStateEvent*)::{lambda(std::__ndk1::__fs::filesystem::path&&)#1}, geode::Mod*)::{lambda(std::__ndk1::shared_ptr<geode::SettingV3>)#1}, std::__ndk1::allocator<geode::listenForSettingChangesV3<std::__ndk1::__fs::filesystem::path, geodeExecFunction13<(anonymous namespace)::ExecFuncUnique13>(geode::ModStateEvent*)::{lambda(std::__ndk1::__fs::filesystem::path)#1}>(std::__ndk1::basic_string_view<char, std::__ndk1::char_traits<char> >, geodeExecFunction13<(anonymous namespace)::ExecFuncUnique13>(geode::ModStateEvent*)::{lambda(std::__ndk1::__fs::filesystem::path&&)#1}, geode::Mod*)::{lambda(std::__ndk1::shared_ptr<geode::SettingV3>)#1}>, void (std::__ndk1::shared_ptr<geode::SettingV3>)>::__clone() const
FUNC 38970 14 0 std::__ndk1::__function::__func<geode::listenForSettingChangesV3<std::__ndk1::__fs::filesystem::path, geodeExecFunction13<(anonymous namespace)::ExecFuncUnique13>(geode::ModStateEvent*)::{lambda(std::__ndk1::__fs::filesystem::path)#1}>(std::__ndk1::basic_string_view<char, std::__ndk1::char_traits<char> >, geodeExecFunction13<(anonymous namespace)::ExecFuncUnique13>(geode::ModStateEvent*)::{lambda(std::__ndk1::__fs::filesystem::path&&)#1}, geode::Mod*)::{lambda(std::__ndk1::shared_ptr<geode::SettingV3>)#1}, std::__ndk1::allocator<geode::listenForSettingChangesV3<std::__ndk1::__fs::filesystem::path, geodeExecFunction13<(anonymous namespace)::ExecFuncUnique13>(geode::ModStateEvent*)::{lambda(std::__ndk1::__fs::filesystem::path)#1}>(std::__ndk1::basic_string_view<char, std::__ndk1::char_traits<char> >, geodeExecFunction13<(anonymous namespace)::ExecFuncUnique13>(geode::ModStateEvent*)::{lambda(std::__ndk1::__fs::filesystem::path&&)#1}, geode::Mod*)::{lambda(std::__ndk1::shared_ptr<geode::SettingV3>)#1}>, void (std::__ndk1::shared_ptr<geode::SettingV3>)>::__clone(std::__ndk1::__function::__base<void (std::__ndk1::shared_ptr<geode::SettingV3>)>*) const
FUNC 38984 2 0 std::__ndk1::__function::__func<geode::listenForSettingChangesV3<std::__ndk1::__fs::filesystem::path, geodeExecFunction13<(anonymous namespace)::ExecFuncUnique13>(geode::ModStateEvent*)::{lambda(std::__ndk1::__fs::filesystem::path)#1}>(std::__ndk1::basic_string_view<char, std::__ndk1::char_traits<char> >, geodeExecFunction13<(anonymous namespace)::ExecFuncUnique13>(geode::ModStateEvent*)::{lambda(std::__ndk1::__fs::filesystem::path&&)#1}, geode::Mod*)::{lambda(std::__ndk1::shared_ptr<geode::SettingV3>)#1}, std::__ndk1::allocator<geode::listenForSettingChangesV3<std::__ndk1::__fs::filesystem::path, geodeExecFunction13<(anonymous namespace)::ExecFuncUnique13>(geode::ModStateEvent*)::{lambda(std::__ndk1::__fs::filesystem::path)#1}>(std::__ndk1::basic_string_view<char, std::__ndk1::char_traits<char> >, geodeExecFunction13<(anonymous namespace)::ExecFuncUnique13>(geode::ModStateEvent*)::{lambda(std::__ndk1::__fs::filesystem::path&&)#1}, geode::Mod*)::{lambda(std::__ndk1::shared_ptr<geode::SettingV3>)#1}>, void (std::__ndk1::shared_ptr<geode::SettingV3>)>::destroy()
FUNC 38986 4 0 std::__ndk1::__function::__func<geode::listenForSettingChangesV3<std::__ndk1::__fs::filesystem::path, geodeExecFunction13<(anonymous namespace)::ExecFuncUnique13>(geode::ModStateEvent*)::{lambda(std::__ndk1::__fs::filesystem::path)#1}>(std::__ndk1::basic_string_view<char, std::__ndk1::char_traits<char> >, geodeExecFunction13<(anonymous namespace)::ExecFuncUnique13>(geode::ModStateEvent*)::{lambda(std::__ndk1::__fs::filesystem::path&&)#1}, geode::Mod*)::{lambda(std::__ndk1::shared_ptr<geode::SettingV3>)#1}, std::__ndk1::allocator<geode::listenForSettingChangesV3<std::__ndk1::__fs::filesystem::path, geodeExecFunction13<(anonymous namespace)::ExecFuncUnique13>(geode::ModStateEvent*)::{lambda(std::__ndk1::__fs::filesystem::path)#1}>(std::__ndk1::basic_string_view<char, std::__ndk1::char_traits<char> >, geodeExecFunction13<(anonymous namespace)::ExecFuncUnique13>(geode::ModStateEvent*)::{lambda(std::__ndk1::__fs::filesystem::path&&)#1}, geode::Mod*)::{lambda(std::__ndk1::shared_ptr<geode::SettingV3>)#1}>, void (std::__ndk1::shared_ptr<geode::SettingV3>)>::destroy_deallocate()
FUNC 3898c 504 0 std::__ndk1::__function::__func<geode::listenForSettingChangesV3<std::__ndk1::__fs::filesystem::path, geodeExecFunction13<(anonymous namespace)::ExecFuncUnique13>(geode::ModStateEvent*)::{lambda(std::__ndk1::__fs::filesystem::path)#1}>(std::__ndk1::basic_string_view<char, std::__ndk1::char_traits<char> >, geodeExecFunction13<(anonymous namespace)::ExecFuncUnique13>(geode::ModStateEvent*)::{lambda(std::__ndk1::__fs::filesystem::path&&)#1}, geode::Mod*)::{lambda(std::__ndk1::shared_ptr<geode::SettingV3>)#1}, std::__ndk1::allocator<geode::listenForSettingChangesV3<std::__ndk1::__fs::filesystem::path, geodeExecFunction13<(anonymous namespace)::ExecFuncUnique13>(geode::ModStateEvent*)::{lambda(std::__ndk1::__fs::filesystem::path)#1}>(std::__ndk1::basic_string_view<char, std::__ndk1::char_traits<char> >, geodeExecFunction13<(anonymous namespace)::ExecFuncUnique13>(geode::ModStateEvent*)::{lambda(std::__ndk1::__fs::filesystem::path&&)#1}, geode::Mod*)::{lambda(std::__ndk1::shared_ptr<geode::SettingV3>)#1}>, void (std::__ndk1::shared_ptr<geode::SettingV3>)>::operator()(std::__ndk1::shared_ptr<geode::SettingV3>&&)
FUNC 38e90 18 0 std::__ndk1::__function::__func<geode::listenForSettingChangesV3<std::__ndk1::__fs::filesystem::path, geodeExecFunction13<(anonymous namespace)::ExecFuncUnique13>(geode::ModStateEvent*)::{lambda(std::__ndk1::__fs::filesystem::path)#1}>(std::__ndk1::basic_string_view<char, std::__ndk1::char_traits<char> >, geodeExecFunction13<(anonymous namespace)::ExecFuncUnique13>(geode::ModStateEvent*)::{lambda(std::__ndk1::__fs::filesystem::path&&)#1}, geode::Mod*)::{lambda(std::__ndk1::shared_ptr<geode::SettingV3>)#1}, std::__ndk1::allocator<geode::listenForSettingChangesV3<std::__ndk1::__fs::filesystem::path, geodeExecFunction13<(anonymous namespace)::ExecFuncUnique13>(geode::ModStateEvent*)::{lambda(std::__ndk1::__fs::filesystem::path)#1}>(std::__ndk1::basic_string_view<char, std::__ndk1::char_traits<char> >, geodeExecFunction13<(anonymous namespace)::ExecFuncUnique13>(geode::ModStateEvent*)::{lambda(std::__ndk1::__fs::filesystem::path&&)#1}, geode::Mod*)::{lambda(std::__ndk1::shared_ptr<geode::SettingV3>)#1}>, void (std::__ndk1::shared_ptr<geode::SettingV3>)>::target(std::type_info const&) const
FUNC 38ea8 c 0 std::__ndk1::__function::__func<geode::listenForSettingChangesV3<std::__ndk1::__fs::filesystem::path, geodeExecFunction13<(anonymous namespace)::ExecFuncUnique13>(geode::ModStateEvent*)::{lambda(std::__ndk1::__fs::filesystem::path)#1}>(std::__ndk1::basic_string_view<char, std::__ndk1::char_traits<char> >, geodeExecFunction13<(anonymous namespace)::ExecFuncUnique13>(geode::ModStateEvent*)::{lambda(std::__ndk1::__fs::filesystem::path&&)#1}, geode::Mod*)::{lambda(std::__ndk1::shared_ptr<geode::SettingV3>)#1}, std::__ndk1::allocator<geode::listenForSettingChangesV3<std::__ndk1::__fs::filesystem::path, geodeExecFunction13<(anonymous namespace)::ExecFuncUnique13>(geode::ModStateEvent*)::{lambda(std::__ndk1::__fs::filesystem::path)#1}>(std::__ndk1::basic_string_view<char, std::__ndk1::char_traits<char> >, geodeExecFunction13<(anonymous namespace)::ExecFuncUnique13>(geode::ModStateEvent*)::{lambda(std::__ndk1::__fs::filesystem::path&&)#1}, geode::Mod*)::{lambda(std::__ndk1::shared_ptr<geode::SettingV3>)#1}>, void (std::__ndk1::shared_ptr<geode::SettingV3>)>::target_type() const
FUNC 38eb4 2 0 std::__ndk1::__function::__base<void (std::__ndk1::shared_ptr<geode::SettingV3>)>::~__base()
FUNC 38eb6 4 0 std::__ndk1::__function::__func<geode::listenForSettingChangesV3<bool, geodeExecFunction13<(anonymous namespace)::ExecFuncUnique13>(geode::ModStateEvent*)::{lambda(bool)#3}>(std::__ndk1::basic_string_view<char, std::__ndk1::char_traits<char> >, geodeExecFunction13<(anonymous namespace)::ExecFuncUnique13>(geode::ModStateEvent*)::{lambda(bool)#3}&&, geode::Mod*)::{lambda(std::__ndk1::shared_ptr<geode::SettingV3>)#1}, std::__ndk1::allocator<geode::listenForSettingChangesV3<bool, geodeExecFunction13<(anonymous namespace)::ExecFuncUnique13>(geode::ModStateEvent*)::{lambda(bool)#3}>(std::__ndk1::basic_string_view<char, std::__ndk1::char_traits<char> >, geodeExecFunction13<(anonymous namespace)::ExecFuncUnique13>(geode::ModStateEvent*)::{lambda(bool)#3}&&, geode::Mod*)::{lambda(std::__ndk1::shared_ptr<geode::SettingV3>)#1}>, void (std::__ndk1::shared_ptr<geode::SettingV3>)>::~__func()
FUNC 38ebc 20 0 std::__ndk1::__function::__func<geode::listenForSettingChangesV3<bool, geodeExecFunction13<(anonymous namespace)::ExecFuncUnique13>(geode::ModStateEvent*)::{lambda(bool)#3}>(std::__ndk1::basic_string_view<char, std::__ndk1::char_traits<char> >, geodeExecFunction13<(anonymous namespace)::ExecFuncUnique13>(geode::ModStateEvent*)::{lambda(bool)#3}&&, geode::Mod*)::{lambda(std::__ndk1::shared_ptr<geode::SettingV3>)#1}, std::__ndk1::allocator<geode::listenForSettingChangesV3<bool, geodeExecFunction13<(anonymous namespace)::ExecFuncUnique13>(geode::ModStateEvent*)::{lambda(bool)#3}>(std::__ndk1::basic_string_view<char, std::__ndk1::char_traits<char> >, geodeExecFunction13<(anonymous namespace)::ExecFuncUnique13>(geode::ModStateEvent*)::{lambda(bool)#3}&&, geode::Mod*)::{lambda(std::__ndk1::shared_ptr<geode::SettingV3>)#1}>, void (std::__ndk1::shared_ptr<geode::SettingV3>)>::__clone() const
FUNC 38edc 14 0 std::__ndk1::__function::__func<geode::listenForSettingChangesV3<bool, geodeExecFunction13<(anonymous namespace)::ExecFuncUnique13>(geode::ModStateEvent*)::{lambda(bool)#3}>(std::__ndk1::basic_string_view<char, std::__ndk1::char_traits<char> >, geodeExecFunction13<(anonymous namespace)::ExecFuncUnique13>(geode::ModStateEvent*)::{lambda(bool)#3}&&, geode::Mod*)::{lambda(std::__ndk1::shared_ptr<geode::SettingV3>)#1}, std::__ndk1::allocator<geode::listenForSettingChangesV3<bool, geodeExecFunction13<(anonymous namespace)::ExecFuncUnique13>(geode::ModStateEvent*)::{lambda(bool)#3}>(std::__ndk1::basic_string_view<char, std::__ndk1::char_traits<char> >, geodeExecFunction13<(anonymous namespace)::ExecFuncUnique13>(geode::ModStateEvent*)::{lambda(bool)#3}&&, geode::Mod*)::{lambda(std::__ndk1::shared_ptr<geode::SettingV3>)#1}>, void (std::__ndk1::shared_ptr<geode::SettingV3>)>::__clone(std::__ndk1::__function::__base<void (std::__ndk1::shared_ptr<geode::SettingV3>)>*) const
FUNC 38ef0 2 0 std::__ndk1::__function::__func<geode::listenForSettingChangesV3<bool, geodeExecFunction13<(anonymous namespace)::ExecFuncUnique13>(geode::ModStateEvent*)::{lambda(bool)#3}>(std::__ndk1::basic_string_view<char, std::__ndk1::char_traits<char> >, geodeExecFunction13<(anonymous namespace)::ExecFuncUnique13>(geode::ModStateEvent*)::{lambda(bool)#3}&&, geode::Mod*)::{lambda(std::__ndk1::shared_ptr<geode::SettingV3>)#1}, std::__ndk1::allocator<geode::listenForSettingChangesV3<bool, geodeExecFunction13<(anonymous namespace)::ExecFuncUnique13>(geode::ModStateEvent*)::{lambda(bool)#3}>(std::__ndk1::basic_string_view<char, std::__ndk1::char_traits<char> >, geodeExecFunction13<(anonymous namespace)::ExecFuncUnique13>(geode::ModStateEvent*)::{lambda(bool)#3}&&, geode::Mod*)::{lambda(std::__ndk1::shared_ptr<geode::SettingV3>)#1}>, void (std::__ndk1::shared_ptr<geode::SettingV3>)>::destroy()
FUNC 38ef2 4 0 std::__ndk1::__function::__func<geode::listenForSettingChangesV3<bool, geodeExecFunction13<(anonymous namespace)::ExecFuncUnique13>(geode::ModStateEvent*)::{lambda(bool)#3}>(std::__ndk1::basic_string_view<char, std::__ndk1::char_traits<char> >, geodeExecFunction13<(anonymous namespace)::ExecFuncUnique13>(geode::ModStateEvent*)::{lambda(bool)#3}&&, geode::Mod*)::{lambda(std::__ndk1::shared_ptr<geode::SettingV3>)#1}, std::__ndk1::allocator<geode::listenForSettingChangesV3<bool, geodeExecFunction13<(anonymous namespace)::ExecFuncUnique13>(geode::ModStateEvent*)::{lambda(bool)#3}>(std::__ndk1::basic_string_view<char, std::__ndk1::char_traits<char> >, geodeExecFunction13<(anonymous namespace)::ExecFuncUnique13>(geode::ModStateEvent*)::{lambda(bool)#3}&&, geode::Mod*)::{lambda(std::__ndk1::shared_ptr<geode::SettingV3>)#1}>, void (std::__ndk1::shared_ptr<geode::SettingV3>)>::destroy_deallocate()
FUNC 38ef8 1e8 0 std::__ndk1::__function::__func<geode::listenForSettingChangesV3<bool, geodeExecFunction13<(anonymous namespace)::ExecFuncUnique13>(geode::ModStateEvent*)::{lambda(bool)#3}>(std::__ndk1::basic_string_view<char, std::__ndk1::char_traits<char> >, geodeExecFunction13<(anonymous namespace)::ExecFuncUnique13>(geode::ModStateEvent*)::{lambda(bool)#3}&&, geode::Mod*)::{lambda(std::__ndk1::shared_ptr<geode::SettingV3>)#1}, std::__ndk1::allocator<geode::listenForSettingChangesV3<bool, geodeExecFunction13<(anonymous namespace)::ExecFuncUnique13>(geode::ModStateEvent*)::{lambda(bool)#3}>(std::__ndk1::basic_string_view<char, std::__ndk1::char_traits<char> >, geodeExecFunction13<(anonymous namespace)::ExecFuncUnique13>(geode::ModStateEvent*)::{lambda(bool)#3}&&, geode::Mod*)::{lambda(std::__ndk1::shared_ptr<geode::SettingV3>)#1}>, void (std::__ndk1::shared_ptr<geode::SettingV3>)>::operator()(std::__ndk1::shared_ptr<geode::SettingV3>&&)
FUNC 390e0 18 0 std::__ndk1::__function::__func<geode::listenForSettingChangesV3<bool, geodeExecFunction13<(anonymous namespace)::ExecFuncUnique13>(geode::ModStateEvent*)::{lambda(bool)#3}>(std::__ndk1::basic_string_view<char, std::__ndk1::char_traits<char> >, geodeExecFunction13<(anonymous namespace)::ExecFuncUnique13>(geode::ModStateEvent*)::{lambda(bool)#3}&&, geode::Mod*)::{lambda(std::__ndk1::shared_ptr<geode::SettingV3>)#1}, std::__ndk1::allocator<geode::listenForSettingChangesV3<bool, geodeExecFunction13<(anonymous namespace)::ExecFuncUnique13>(geode::ModStateEvent*)::{lambda(bool)#3}>(std::__ndk1::basic_string_view<char, std::__ndk1::char_traits<char> >, geodeExecFunction13<(anonymous namespace)::ExecFuncUnique13>(geode::ModStateEvent*)::{lambda(bool)#3}&&, geode::Mod*)::{lambda(std::__ndk1::shared_ptr<geode::SettingV3>)#1}>, void (std::__ndk1::shared_ptr<geode::SettingV3>)>::target(std::type_info const&) const
FUNC 390f8 c 0 std::__ndk1::__function::__func<geode::listenForSettingChangesV3<bool, geodeExecFunction13<(anonymous namespace)::ExecFuncUnique13>(geode::ModStateEvent*)::{lambda(bool)#3}>(std::__ndk1::basic_string_view<char, std::__ndk1::char_traits<char> >, geodeExecFunction13<(anonymous namespace)::ExecFuncUnique13>(geode::ModStateEvent*)::{lambda(bool)#3}&&, geode::Mod*)::{lambda(std::__ndk1::shared_ptr<geode::SettingV3>)#1}, std::__ndk1::allocator<geode::listenForSettingChangesV3<bool, geodeExecFunction13<(anonymous namespace)::ExecFuncUnique13>(geode::ModStateEvent*)::{lambda(bool)#3}>(std::__ndk1::basic_string_view<char, std::__ndk1::char_traits<char> >, geodeExecFunction13<(anonymous namespace)::ExecFuncUnique13>(geode::ModStateEvent*)::{lambda(bool)#3}&&, geode::Mod*)::{lambda(std::__ndk1::shared_ptr<geode::SettingV3>)#1}>, void (std::__ndk1::shared_ptr<geode::SettingV3>)>::target_type() const
FUNC 39104 4 0 geode::EventListener<geode::ModStateFilter>::getPool() const
FUNC 39108 e4 0 geode::EventListener<geode::ModStateFilter>::handle(geode::Event*)
FUNC 391ec 38 0 geode::EventListener<geode::ModStateFilter>::~EventListener()
FUNC 39224 3c 0 geode::EventListener<geode::ModStateFilter>::~EventListener()
FUNC 39260 2 0 std::__ndk1::__function::__base<void (geode::ModStateEvent*)>::~__base()
FUNC 39262 4 0 std::__ndk1::__function::__func<void (*)(geode::ModStateEvent*), std::__ndk1::allocator<void (*)(geode::ModStateEvent*)>, void (geode::ModStateEvent*)>::~__func()
FUNC 39268 20 0 std::__ndk1::__function::__func<void (*)(geode::ModStateEvent*), std::__ndk1::allocator<void (*)(geode::ModStateEvent*)>, void (geode::ModStateEvent*)>::__clone() const
FUNC 39288 14 0 std::__ndk1::__function::__func<void (*)(geode::ModStateEvent*), std::__ndk1::allocator<void (*)(geode::ModStateEvent*)>, void (geode::ModStateEvent*)>::__clone(std::__ndk1::__function::__base<void (geode::ModStateEvent*)>*) const
FUNC 3929c 2 0 std::__ndk1::__function::__func<void (*)(geode::ModStateEvent*), std::__ndk1::allocator<void (*)(geode::ModStateEvent*)>, void (geode::ModStateEvent*)>::destroy()
FUNC 3929e 4 0 std::__ndk1::__function::__func<void (*)(geode::ModStateEvent*), std::__ndk1::allocator<void (*)(geode::ModStateEvent*)>, void (geode::ModStateEvent*)>::destroy_deallocate()
FUNC 392a2 8 0 std::__ndk1::__function::__func<void (*)(geode::ModStateEvent*), std::__ndk1::allocator<void (*)(geode::ModStateEvent*)>, void (geode::ModStateEvent*)>::operator()(geode::ModStateEvent*&&)
FUNC 392ac 18 0 std::__ndk1::__function::__func<void (*)(geode::ModStateEvent*), std::__ndk1::allocator<void (*)(geode::ModStateEvent*)>, void (geode::ModStateEvent*)>::target(std::type_info const&) const
FUNC 392c4 c 0 std::__ndk1::__function::__func<void (*)(geode::ModStateEvent*), std::__ndk1::allocator<void (*)(geode::ModStateEvent*)>, void (geode::ModStateEvent*)>::target_type() const
FUNC 392d0 184 0 _GLOBAL__sub_I_main.cpp
FUNC 39460 dc 0 PlayingCard::create(std::__ndk1::basic_string<char, std::__ndk1::char_traits<char>, std::__ndk1::allocator<char> >)
FUNC 3953c 4d8 0 PlayingCard::init(std::__ndk1::basic_string<char, std::__ndk1::char_traits<char>, std::__ndk1::allocator<char> >)
FUNC 39a14 10 0 PlayingCard::~PlayingCard()
FUNC 39a24 64 0 _GLOBAL__sub_I_PlayingCard.cpp
FUNC 39a88 20 0 geode::getMod()
FUNC 39aa8 20 0 geodeImplicitEntry
FUNC 39ac8 28 0 std::__ndk1::unordered_map<void*, bool, std::__ndk1::hash<void*>, std::__ndk1::equal_to<void*>, std::__ndk1::allocator<std::__ndk1::pair<void* const, bool> > >::~unordered_map[abi:ne180000]()
FUNC 39af0 cc 0 wrapFunction(unsigned int, tulip::hook::WrapperMetadata const&)
FUNC 39bbc 48 0 geode::impl::ResultData<void*, std::__ndk1::basic_string<char, std::__ndk1::char_traits<char>, std::__ndk1::allocator<char> > >::unwrapErr() &
FUNC 39c04 60 0 geode::impl::ResultData<void*, std::__ndk1::basic_string<char, std::__ndk1::char_traits<char>, std::__ndk1::allocator<char> > >::~ResultData()
FUNC 39c64 46 0 tulip::hook::WrapperMetadata::~WrapperMetadata()
FUNC 39caa 10 0 cocos2d::CCObject::~CCObject()
FUNC 39cbc 1c0 0 cocos2d::CCNode::CCNode()
FUNC 39e7c 10 0 cocos2d::CCNode::~CCNode()
FUNC 39e8c 8 0 {virtual override thunk({offset(-264)}, cocos2d::CCLayer::~CCLayer())}
FUNC 39e94 10 0 cocos2d::CCLayer::~CCLayer()
FUNC 39ea4 14 0 {virtual override thunk({offset(-264)}, cocos2d::CCLayer::~CCLayer())}
FUNC 39eb8 27c 0 cocos2d::CCLayerRGBA::~CCLayerRGBA()
FUNC 3a134 8 0 {virtual override thunk({offset(-264)}, cocos2d::CCLayerRGBA::~CCLayerRGBA())}
FUNC 3a13c 10 0 cocos2d::CCLayerRGBA::~CCLayerRGBA()
FUNC 3a14c 14 0 {virtual override thunk({offset(-264)}, cocos2d::CCLayerRGBA::~CCLayerRGBA())}
FUNC 3a160 1f0 0 cocos2d::CCLayerColor::CCLayerColor()
FUNC 3a350 8 0 {virtual override thunk({offset(-264)}, cocos2d::CCLayerColor::~CCLayerColor())}
FUNC 3a358 10 0 cocos2d::CCLayerColor::~CCLayerColor()
FUNC 3a368 14 0 {virtual override thunk({offset(-264)}, cocos2d::CCLayerColor::~CCLayerColor())}
FUNC 3a37c 8 0 {virtual override thunk({offset(-264)}, FLAlertLayer::~FLAlertLayer())}
FUNC 3a384 10 0 FLAlertLayer::~FLAlertLayer()
FUNC 3a394 14 0 {virtual override thunk({offset(-264)}, FLAlertLayer::~FLAlertLayer())}
FUNC 3a3a8 11c 0 FLAlertLayer::create(FLAlertLayerProtocol*, char const*, gd::string, char const*, char const*, float)
FUNC 3a4d0 460 0 tulip::hook::AbstractFunction::from<FLAlertLayer*, FLAlertLayerProtocol*, char const*, gd::string, char const*, char const*, float>(FLAlertLayer* (*)(FLAlertLayerProtocol*, char const*, gd::string, char const*, char const*, float))
FUNC 3a930 70 0 FLAlertLayer::create(char const*, gd::string const&, char const*)
FUNC 3a9a0 140 0 FLAlertLayer::init(FLAlertLayerProtocol*, char const*, gd::string, char const*, char const*, float, bool, float, float)
FUNC 3aae0 870 0 tulip::hook::AbstractFunction::from<bool, FLAlertLayer*, FLAlertLayerProtocol*, char const*, gd::string, char const*, char const*, float, bool, float, float>(bool (*)(FLAlertLayer*, FLAlertLayerProtocol*, char const*, gd::string, char const*, char const*, float, bool, float, float))
FUNC 3b350 108 0 FMODAudioEngine::playMusic(gd::string, bool, float, int)
FUNC 3b460 360 0 tulip::hook::AbstractFunction::from<void, FMODAudioEngine*, gd::string, bool, float, int>(void (*)(FMODAudioEngine*, gd::string, bool, float, int))
FUNC 3b7c0 4a0 0 GameManager::~GameManager()
FUNC 3bc60 10 0 GameManager::~GameManager()
FUNC 3bc70 d6c 0 GJBaseGameLayer::~GJBaseGameLayer()
FUNC 3c9dc 8 0 {virtual override thunk({offset(-264)}, GJBaseGameLayer::~GJBaseGameLayer())}
FUNC 3c9e4 10 0 GJBaseGameLayer::~GJBaseGameLayer()
FUNC 3c9f4 14 0 {virtual override thunk({offset(-264)}, GJBaseGameLayer::~GJBaseGameLayer())}
FUNC 3ca08 f0 0 GJBaseGameLayer::toggleGroupTriggered(int, bool, gd::vector<int> const&, int, int)
FUNC 3cb00 470 0 tulip::hook::AbstractFunction::from<void, GJBaseGameLayer*, int, bool, gd::vector<int> const&, int, int>(void (*)(GJBaseGameLayer*, int, bool, gd::vector<int> const&, int, int))
FUNC 3cf70 18 0 {virtual override thunk({offset(-316)}, GJBaseGameLayer::toggleGroupTriggered(int, bool, gd::vector<int> const&, int, int))}
FUNC 3cf88 fc 0 GJBaseGameLayer::spawnGroup(int, bool, double, gd::vector<int> const&, int, int)
FUNC 3d090 570 0 tulip::hook::AbstractFunction::from<void, GJBaseGameLayer*, int, bool, double, gd::vector<int> const&, int, int>(void (*)(GJBaseGameLayer*, int, bool, double, gd::vector<int> const&, int, int))
FUNC 3d600 24 0 {virtual override thunk({offset(-316)}, GJBaseGameLayer::spawnGroup(int, bool, double, gd::vector<int> const&, int, int))}
FUNC 3d624 ec 0 GJBaseGameLayer::spawnObject(GameObject*, double, gd::vector<int> const&)
FUNC 3d710 260 0 tulip::hook::AbstractFunction::from<void, GJBaseGameLayer*, GameObject*, double, gd::vector<int> const&>(void (*)(GJBaseGameLayer*, GameObject*, double, gd::vector<int> const&))
FUNC 3d970 10 0 {virtual override thunk({offset(-316)}, GJBaseGameLayer::spawnObject(GameObject*, double, gd::vector<int> const&))}
FUNC 3d980 e8 0 GJBaseGameLayer::activatePlatformerEndTrigger(EndTriggerGameObject*, gd::vector<int> const&)
FUNC 3da70 b0 0 tulip::hook::AbstractFunction::from<void, GJBaseGameLayer*, EndTriggerGameObject*, gd::vector<int> const&>(void (*)(GJBaseGameLayer*, EndTriggerGameObject*, gd::vector<int> const&))
FUNC 3db20 2 0 GJBaseGameLayer::toggleGlitter(bool)
FUNC 3db22 4 0 GJBaseGameLayer::timeForPos(cocos2d::CCPoint, int, int, bool, int)
FUNC 3db26 8 0 GJBaseGameLayer::posForTime(float)
FUNC 3db2e 2 0 GJBaseGameLayer::resetSPTriggered()
FUNC 3db30 ec 0 GJBaseGameLayer::createCustomParticle(gd::string const&, cocos2d::ParticleStruct const&, int, bool)
FUNC 3dc20 360 0 tulip::hook::AbstractFunction::from<TodoReturnPlaceholder, GJBaseGameLayer*, gd::string const&, cocos2d::ParticleStruct const&, int, bool>(TodoReturnPlaceholder (*)(GJBaseGameLayer*, gd::string const&, cocos2d::ParticleStruct const&, int, bool))
FUNC 3df80 fc 0 GJBaseGameLayer::claimCustomParticle(gd::string const&, cocos2d::ParticleStruct const&, int, int, int, bool)
FUNC 3e080 570 0 tulip::hook::AbstractFunction::from<TodoReturnPlaceholder, GJBaseGameLayer*, gd::string const&, cocos2d::ParticleStruct const&, int, int, int, bool>(TodoReturnPlaceholder (*)(GJBaseGameLayer*, gd::string const&, cocos2d::ParticleStruct const&, int, int, int, bool))
FUNC 3e5f0 e8 0 GJBaseGameLayer::unclaimCustomParticle(gd::string const&, cocos2d::CCParticleSystemQuad*)
FUNC 3e6e0 b0 0 tulip::hook::AbstractFunction::from<TodoReturnPlaceholder, GJBaseGameLayer*, gd::string const&, cocos2d::CCParticleSystemQuad*>(TodoReturnPlaceholder (*)(GJBaseGameLayer*, gd::string const&, cocos2d::CCParticleSystemQuad*))
FUNC 3e790 2 0 cocos2d::CCObject::update(float)
FUNC 3e794 294 0 cocos2d::CCLayerColor::~CCLayerColor()
FUNC 3ea28 294 0 FLAlertLayer::~FLAlertLayer()
FUNC 3ecbc 22c 0 cocos2d::CCNode::~CCNode()
FUNC 3eee8 274 0 cocos2d::CCLayer::~CCLayer()
FUNC 3f15c 42c 0 cocos2d::CCObject::~CCObject()
FUNC 3f588 f8 0 _ZN5geode15UnwrapExceptionC2IRPvQsr4implE18IsStringStreamableIT_EEENS_4impl5OkTagEOS4_
FUNC 3f680 2 0 std::__ndk1::__variant_detail::__visitation::__base::__dispatcher<(unsigned int)0>::__dispatch[abi:ne180000]<std::__ndk1::__variant_detail::__dtor<std::__ndk1::__variant_detail::__traits<void*, std::__ndk1::basic_string<char, std::__ndk1::char_traits<char>, std::__ndk1::allocator<char> > >, (std::__ndk1::__variant_detail::_Trait)1>::__destroy[abi:ne180000]()::{lambda(auto:1&)#1}, std::__ndk1::__variant_detail::__base<(std::__ndk1::__variant_detail::__traits<void*, std::__ndk1::basic_string<char, std::__ndk1::char_traits<char>, std::__ndk1::allocator<char> > >)1, std::__ndk1::__variant_detail::__traits, std::__ndk1::allocator<char> >&>(std::__ndk1::__variant_detail::__dtor<std::__ndk1::__variant_detail::__traits<void*, std::__ndk1::basic_string<char, std::__ndk1::char_traits<char>, std::__ndk1::allocator<char> > >, (std::__ndk1::__variant_detail::_Trait)1>, std::__ndk1::__variant_detail::__base<(std::__ndk1::__variant_detail::__traits<void*, std::__ndk1::basic_string<char, std::__ndk1::char_traits<char>, std::__ndk1::allocator<char> > >)1, std::__ndk1::__variant_detail::__traits, std::__ndk1::allocator<char> >&)
FUNC 3f682 e 0 std::__ndk1::__variant_detail::__visitation::__base::__dispatcher<(unsigned int)1>::__dispatch[abi:ne180000]<std::__ndk1::__variant_detail::__dtor<std::__ndk1::__variant_detail::__traits<void*, std::__ndk1::basic_string<char, std::__ndk1::char_traits<char>, std::__ndk1::allocator<char> > >, (std::__ndk1::__variant_detail::_Trait)1>::__destroy[abi:ne180000]()::{lambda(auto:1&)#1}, std::__ndk1::__variant_detail::__base<(std::__ndk1::__variant_detail::__traits<void*, std::__ndk1::basic_string<char, std::__ndk1::char_traits<char>, std::__ndk1::allocator<char> > >)1, std::__ndk1::__variant_detail::__traits, std::__ndk1::allocator<char> >&>(std::__ndk1::__variant_detail::__dtor<std::__ndk1::__variant_detail::__traits<void*, std::__ndk1::basic_string<char, std::__ndk1::char_traits<char>, std::__ndk1::allocator<char> > >, (std::__ndk1::__variant_detail::_Trait)1>, std::__ndk1::__variant_detail::__base<(std::__ndk1::__variant_detail::__traits<void*, std::__ndk1::basic_string<char, std::__ndk1::char_traits<char>, std::__ndk1::allocator<char> > >)1, std::__ndk1::__variant_detail::__traits, std::__ndk1::allocator<char> >&)
FUNC 3f690 3ea 0 std::__ndk1::__hash_table<std::__ndk1::__hash_value_type<void*, bool>, std::__ndk1::__unordered_map_hasher<void*, std::__ndk1::__hash_value_type<void*, bool>, std::__ndk1::hash<void*>, std::__ndk1::equal_to<void*>, true>, std::__ndk1::__unordered_map_equal<void*, std::__ndk1::__hash_value_type<void*, bool>, std::__ndk1::equal_to<void*>, std::__ndk1::hash<void*>, true>, std::__ndk1::allocator<std::__ndk1::__hash_value_type<void*, bool> > >::__emplace_unique_key_args<void*, std::__ndk1::piecewise_construct_t const&, std::__ndk1::tuple<void* const&>, std::__ndk1::tuple<> >(void* const&, std::__ndk1::piecewise_construct_t const&, std::__ndk1::tuple<void* const&>, std::__ndk1::tuple<>)
FUNC 3fa7c 1cc 0 fmt::v11::detail::write_loc(fmt::v11::basic_appender<char>, fmt::v11::loc_value, fmt::v11::format_specs const&, fmt::v11::detail::locale_ref)
FUNC 3fc48 44 0 fmt::v11::format_facet<std::__ndk1::locale>::~format_facet()
FUNC 3fc8c 38 0 fmt::v11::report_error(char const*)
FUNC 3fcc4 18 0 fmt::v11::format_error::runtime_error(char const*)
FUNC 3fcdc 420 0 fmt::v11::format_facet<std::__ndk1::locale>::do_put(fmt::v11::basic_appender<char>, fmt::v11::loc_value, fmt::v11::format_specs const&) const
FUNC 400fc 30 0 fmt::v11::detail::loc_writer<char>::~loc_writer()
FUNC 4012c c0 0 fmt::v11::vformat(fmt::v11::basic_string_view<char>, fmt::v11::basic_format_args<fmt::v11::context>)
FUNC 401ec 1ac 0 fmt::v11::detail::dragonbox::cache_accessor<double>::get_cached_power(int)
FUNC 40398 278 0 fmt::v11::detail::vformat_to<char>(fmt::v11::detail::buffer<char>&, fmt::v11::basic_string_view<char>, fmt::v11::detail::vformat_args<char>::type, fmt::v11::detail::locale_ref)
FUNC 40610 228 0 fmt::v11::detail::is_printable(unsigned int)
FUNC 40838 384 0 fmt::v11::detail::dragonbox::to_decimal<float>(float)
FUNC 40bbc 880 0 fmt::v11::detail::dragonbox::to_decimal<double>(double)
FUNC 4143c 4c 0 fmt::v11::basic_memory_buffer<char, (unsigned int)500, std::__ndk1::allocator<char> >::grow(fmt::v11::detail::buffer<char>&, unsigned int)
FUNC 41488 48 0 fmt::v11::format_facet<std::__ndk1::locale>::~format_facet()
FUNC 414d0 10 0 fmt::v11::format_error::~format_error()
FUNC 414e0 9a 0 fmt::v11::detail::copy_noinline<char, char const*, fmt::v11::basic_appender<char> >(char const*, char const*, fmt::v11::basic_appender<char>)
FUNC 4157c 54 0 fmt::v11::detail::default_arg_formatter<char>::operator()<bool>(bool)
FUNC 415d0 34 0 fmt::v11::detail::default_arg_formatter<char>::operator()<char>(char)
FUNC 41604 2c 0 fmt::v11::detail::default_arg_formatter<char>::operator()<char const*>(char const*)
FUNC 41630 74 0 fmt::v11::detail::default_arg_formatter<char>::operator()<void const*>(void const*)
FUNC 416a4 1b0 0 _ZN3fmt3v116detail5writeIcNS0_14basic_appenderIcEEiTnNSt6__ndk19enable_ifIXaaaasr11is_integralIT1_EE5valuentsr3std7is_sameIS7_bEE5valuentsr3std7is_sameIS7_T_EE5valueEiE4typeELi0EEET0_SB_S7_
FUNC 41854 9a 0 fmt::v11::detail::copy_noinline<char, char*, fmt::v11::basic_appender<char> >(char*, char*, fmt::v11::basic_appender<char>)
FUNC 418f0 174 0 _ZN3fmt3v116detail5writeIcNS0_14basic_appenderIcEEjTnNSt6__ndk19enable_ifIXaaaasr11is_integralIT1_EE5valuentsr3std7is_sameIS7_bEE5valuentsr3std7is_sameIS7_T_EE5valueEiE4typeELi0EEET0_SB_S7_
FUNC 41a64 218 0 _ZN3fmt3v116detail5writeIcNS0_14basic_appenderIcEExTnNSt6__ndk19enable_ifIXaaaasr11is_integralIT1_EE5valuentsr3std7is_sameIS7_bEE5valuentsr3std7is_sameIS7_T_EE5valueEiE4typeELi0EEET0_SB_S7_
FUNC 41c7c 1dc 0 _ZN3fmt3v116detail5writeIcNS0_14basic_appenderIcEEyTnNSt6__ndk19enable_ifIXaaaasr11is_integralIT1_EE5valuentsr3std7is_sameIS7_bEE5valuentsr3std7is_sameIS7_T_EE5valueEiE4typeELi0EEET0_SB_S7_
FUNC 41e58 188 0 _ZN3fmt3v116detail5writeIcNS0_14basic_appenderIcEEbTnNSt6__ndk19enable_ifIXsr3std7is_sameIT1_bEE5valueEiE4typeELi0EEET0_SA_S7_RKNS0_12format_specsENS1_10locale_refE
FUNC 41fe0 9f8 0 fmt::v11::detail::write_int_noinline<char, fmt::v11::basic_appender<char>, unsigned int>(fmt::v11::basic_appender<char>, fmt::v11::detail::write_int_arg<unsigned int>, fmt::v11::format_specs const&, fmt::v11::detail::locale_ref)
FUNC 429d8 184 0 fmt::v11::detail::write_padded<char, (fmt::v11::align::type)1, fmt::v11::basic_appender<char>, fmt::v11::detail::write_char<char, fmt::v11::basic_appender<char> >(fmt::v11::basic_appender<char>, char, fmt::v11::format_specs const&)::{lambda(fmt::v11::basic_appender<char>&)#1}>(fmt::v11::basic_appender<char>, fmt::v11::format_specs const&, unsigned int, unsigned int, fmt::v11::detail::write_char<char, fmt::v11::basic_appender<char> >(fmt::v11::basic_appender<char>, char, fmt::v11::format_specs const&)::{lambda(fmt::v11::basic_appender<char>&)#1})
FUNC 42b60 73c 0 _ZN3fmt3v116detail5writeIcNS0_14basic_appenderIcEEfTnNSt6__ndk19enable_ifIXsr13is_fast_floatIT1_EE5valueEiE4typeELi0EEET0_SA_S7_
FUNC 4329c 140 0 fmt::v11::detail::write_padded<char, (fmt::v11::align::type)1, fmt::v11::basic_appender<char>, fmt::v11::detail::write_nonfinite<char, fmt::v11::basic_appender<char> >(fmt::v11::basic_appender<char>, bool, fmt::v11::format_specs, fmt::v11::sign::type)::{lambda(fmt::v11::basic_appender<char>&)#1}>(fmt::v11::basic_appender<char>, fmt::v11::format_specs const&, unsigned int, unsigned int, fmt::v11::detail::write_nonfinite<char, fmt::v11::basic_appender<char> >(fmt::v11::basic_appender<char>, bool, fmt::v11::format_specs, fmt::v11::sign::type)::{lambda(fmt::v11::basic_appender<char>&)#1})
FUNC 433dc e0 0 fmt::v11::detail::do_write_float<char, fmt::v11::basic_appender<char>, fmt::v11::detail::dragonbox::decimal_fp<float>, fmt::v11::detail::digit_grouping<char> >(fmt::v11::basic_appender<char>, fmt::v11::detail::dragonbox::decimal_fp<float> const&, fmt::v11::format_specs const&, fmt::v11::detail::float_specs, fmt::v11::detail::locale_ref)::{lambda(fmt::v11::basic_appender<char>(fmt::v11::basic_appender<char>))#1}::operator() const
FUNC 434bc 194 0 fmt::v11::detail::digit_grouping<char>::digit_grouping(fmt::v11::detail::locale_ref, bool)
FUNC 43650 22 0 fmt::v11::detail::digit_grouping<char>::~digit_grouping()
FUNC 43674 104 0 fmt::v11::detail::write_exponent<char, fmt::v11::basic_appender<char> >(int, fmt::v11::basic_appender<char>)
FUNC 43778 144 0 _ZN3fmt3v116detail17write_significandIcjTnNSt6__ndk19enable_ifIXsr3std11is_integralIT0_EE5valueEiE4typeELi0EEEPT_S9_S5_iiS8_
FUNC 438bc 21c 0 fmt::v11::detail::digit_grouping<char>::apply<fmt::v11::basic_appender<char>, char>(fmt::v11::basic_appender<char>, fmt::v11::basic_string_view<char>) const
FUNC 43ad8 6e 0 fmt::v11::basic_memory_buffer<int, (unsigned int)500, std::__ndk1::allocator<int> >::grow(fmt::v11::detail::buffer<int>&, unsigned int)
FUNC 43b50 e4 0 _ZN3fmt3v116detail5writeIcNS0_14basic_appenderIcEEdTnNSt6__ndk19enable_ifIXsr13is_fast_floatIT1_EE5valueEiE4typeELi0EEET0_SA_S7_
FUNC 43c34 9ac 0 fmt::v11::detail::do_write_float<char, fmt::v11::basic_appender<char>, fmt::v11::detail::dragonbox::decimal_fp<double>, fmt::v11::detail::digit_grouping<char> >(fmt::v11::basic_appender<char>, fmt::v11::detail::dragonbox::decimal_fp<double> const&, fmt::v11::format_specs const&, fmt::v11::detail::float_specs, fmt::v11::detail::locale_ref)
FUNC 445e0 e8 0 fmt::v11::detail::do_write_float<char, fmt::v11::basic_appender<char>, fmt::v11::detail::dragonbox::decimal_fp<double>, fmt::v11::detail::digit_grouping<char> >(fmt::v11::basic_appender<char>, fmt::v11::detail::dragonbox::decimal_fp<double> const&, fmt::v11::format_specs const&, fmt::v11::detail::float_specs, fmt::v11::detail::locale_ref)::{lambda(fmt::v11::basic_appender<char>(fmt::v11::basic_appender<char>))#1}::operator() const
FUNC 446c8 19c 0 _ZN3fmt3v116detail17write_significandIcyTnNSt6__ndk19enable_ifIXsr3std11is_integralIT0_EE5valueEiE4typeELi0EEEPT_S9_S5_iiS8_
FUNC 44870 e4 0 _ZN3fmt3v116detail5writeIcNS0_14basic_appenderIcEEeTnNSt6__ndk19enable_ifIXsr13is_fast_floatIT1_EE5valueEiE4typeELi0EEET0_SA_S7_
FUNC 44954 150 0 fmt::v11::detail::write_padded<char, (fmt::v11::align::type)2, fmt::v11::basic_appender<char>, fmt::v11::detail::write_ptr<char, fmt::v11::basic_appender<char>, unsigned int>(fmt::v11::basic_appender<char>, unsigned int, fmt::v11::format_specs const*)::{lambda(fmt::v11::basic_appender<char>&)#1}>(fmt::v11::basic_appender<char>, fmt::v11::format_specs const&, unsigned int, unsigned int, fmt::v11::detail::write_ptr<char, fmt::v11::basic_appender<char>, unsigned int>(fmt::v11::basic_appender<char>, unsigned int, fmt::v11::format_specs const*)::{lambda(fmt::v11::basic_appender<char>&)#1})
FUNC 44aa8 1064 0 fmt::v11::detail::parse_replacement_field<char, fmt::v11::detail::vformat_to<char>(fmt::v11::detail::buffer<char>&, fmt::v11::basic_string_view<char>, fmt::v11::detail::vformat_args<char>::type, fmt::v11::detail::locale_ref)::format_handler&>(char const*, char const*, fmt::v11::detail::vformat_to<char>(fmt::v11::detail::buffer<char>&, fmt::v11::basic_string_view<char>, fmt::v11::detail::vformat_args<char>::type, fmt::v11::detail::locale_ref)::format_handler&)
FUNC 45b0c b78 0 fmt::v11::detail::write_int_noinline<char, fmt::v11::basic_appender<char>, unsigned long long>(fmt::v11::basic_appender<char>, fmt::v11::detail::write_int_arg<unsigned long long>, fmt::v11::format_specs const&, fmt::v11::detail::locale_ref)
FUNC 46684 3a4 0 _ZN3fmt3v116detail15format_hexfloatIdTnNSt6__ndk19enable_ifIXntsr16is_double_doubleIT_EE5valueEiE4typeELi0EEEvS5_NS0_12format_specsERNS1_6bufferIcEE
FUNC 46a28 ebc 0 fmt::v11::detail::format_float<double>(double, int, fmt::v11::detail::float_specs, fmt::v11::detail::buffer<char>&)
FUNC 478e4 10c 0 fmt::v11::detail::write_padded<char, (fmt::v11::align::type)2, fmt::v11::basic_appender<char>, fmt::v11::detail::write_bytes<char, (fmt::v11::align::type)2, fmt::v11::basic_appender<char> >(fmt::v11::basic_appender<char>, fmt::v11::basic_string_view<char>, fmt::v11::format_specs const&)::{lambda(fmt::v11::basic_appender<char>&)#1}>(fmt::v11::basic_appender<char>, fmt::v11::format_specs const&, unsigned int, unsigned int, fmt::v11::detail::write_bytes<char, (fmt::v11::align::type)2, fmt::v11::basic_appender<char> >(fmt::v11::basic_appender<char>, fmt::v11::basic_string_view<char>, fmt::v11::format_specs const&)::{lambda(fmt::v11::basic_appender<char>&)#1})
FUNC 479f0 c4 0 fmt::v11::detail::bigint::operator<<=(int)
FUNC 47ab4 414 0 fmt::v11::detail::bigint::assign_pow10(int)
FUNC 47ec8 276 0 fmt::v11::detail::bigint::divmod_assign(fmt::v11::detail::bigint const&)
FUNC 4813e 6e 0 fmt::v11::basic_memory_buffer<unsigned int, (unsigned int)32, std::__ndk1::allocator<unsigned int> >::grow(fmt::v11::detail::buffer<unsigned int>&, unsigned int)
FUNC 481ac 994 0 fmt::v11::detail::do_write_float<char, fmt::v11::basic_appender<char>, fmt::v11::detail::big_decimal_fp, fmt::v11::detail::digit_grouping<char> >(fmt::v11::basic_appender<char>, fmt::v11::detail::big_decimal_fp const&, fmt::v11::format_specs const&, fmt::v11::detail::float_specs, fmt::v11::detail::locale_ref)
FUNC 48b40 e0 0 fmt::v11::detail::do_write_float<char, fmt::v11::basic_appender<char>, fmt::v11::detail::big_decimal_fp, fmt::v11::detail::digit_grouping<char> >(fmt::v11::basic_appender<char>, fmt::v11::detail::big_decimal_fp const&, fmt::v11::format_specs const&, fmt::v11::detail::float_specs, fmt::v11::detail::locale_ref)::{lambda(fmt::v11::basic_appender<char>(fmt::v11::basic_appender<char>))#1}::operator() const
FUNC 48c20 544 0 fmt::v11::detail::write_int<fmt::v11::basic_appender<char>, unsigned long long, char>(fmt::v11::basic_appender<char>, unsigned long long, unsigned int, fmt::v11::format_specs const&, fmt::v11::detail::digit_grouping<char> const&)
PUBLIC 49165 0 __ThumbV7PILongThunk___cxa_atexit
PUBLIC 49171 0 __ThumbV7PILongThunk__ZdlPv
PUBLIC 4917d 0 __ThumbV7PILongThunk__ZN5geode9addresser9Addresser19followThunkFunctionEi
PUBLIC 49189 0 __ThumbV7PILongThunk__ZNSt6__ndk16localeD1Ev
PUBLIC 49195 0 __ThumbV7PILongThunk__ZNSt6__ndk112basic_stringIcNS_11char_traitsIcEENS_9allocatorIcEEE6appendEPKcj
PUBLIC 491a1 0 __ThumbV7PILongThunk__ZN5geode17openSettingsPopupEPNS_3ModE
PUBLIC 491ad 0 __ThumbV7PILongThunk__ZNSt6__ndk119__shared_weak_countD2Ev
PUBLIC 491b9 0 __ThumbV7PILongThunk__ZNSt6__ndk119__shared_weak_count14__release_weakEv
PUBLIC 491c5 0 __ThumbV7PILongThunk__ZN5geode24DefaultEventListenerPool3getEv
PUBLIC 491d1 0 __ThumbV7PILongThunk__ZN5geode21EventListenerProtocolD2Ev
PUBLIC 491dd 0 __ThumbV7PILongThunk__ZNSt6__ndk16locale5facetD2Ev
PUBLIC 491f0 0 <.plt ELF section in elnexreal.menuloop_randomizer.android32.so>
STACK CFI INIT 19cf4 2f4 .cfa: sp 0 +
STACK CFI 19cf6 .cfa: sp 20 + .ra: .cfa -4 + ^ r7: .cfa -8 + ^ r6: .cfa -12 + ^ r5: .cfa -16 + ^ r4: .cfa -20 + ^
STACK CFI 19cf8 .cfa: r7 8 +
STACK CFI 19cfc r11: .cfa -24 + ^ r10: .cfa -28 + ^ r9: .cfa -32 + ^ r8: .cfa -36 + ^
STACK CFI INIT 19fe8 20 .cfa: sp 0 +
STACK CFI 19fea .cfa: sp 16 + .ra: .cfa -4 + ^ r7: .cfa -8 + ^ r6: .cfa -12 + ^ r4: .cfa -16 + ^
STACK CFI 19fec .cfa: r7 8 +
STACK CFI INIT 1a010 750 .cfa: sp 0 +
STACK CFI 1a012 .cfa: sp 20 + .ra: .cfa -4 + ^ r7: .cfa -8 + ^ r6: .cfa -12 + ^ r5: .cfa -16 + ^ r4: .cfa -20 + ^
STACK CFI 1a014 .cfa: r7 8 +
STACK CFI 1a018 r10: .cfa -24 + ^ r9: .cfa -28 + ^ r8: .cfa -32 + ^
STACK CFI INIT 1a760 3a .cfa: sp 0 +
STACK CFI 1a762 .cfa: sp 16 + .ra: .cfa -4 + ^ r7: .cfa -8 + ^ r5: .cfa -12 + ^ r4: .cfa -16 + ^
STACK CFI 1a764 .cfa: r7 8 +
STACK CFI INIT 1a79c 60 .cfa: sp 0 +
STACK CFI 1a79e .cfa: sp 16 + .ra: .cfa -4 + ^ r7: .cfa -8 + ^ r6: .cfa -12 + ^ r4: .cfa -16 + ^
STACK CFI 1a7a0 .cfa: r7 8 +
STACK CFI INIT 1a7fc 3e .cfa: sp 0 +
STACK CFI 1a7fe .cfa: sp 20 + .ra: .cfa -4 + ^ r7: .cfa -8 + ^ r6: .cfa -12 + ^ r5: .cfa -16 + ^ r4: .cfa -20 + ^
STACK CFI 1a800 .cfa: r7 8 +
STACK CFI 1a804 r11: .cfa -24 + ^
STACK CFI INIT 1a83a 2 .cfa: sp 0 +
STACK CFI INIT 1a83c c .cfa: sp 0 +
STACK CFI 1a83e .cfa: sp 8 + .ra: .cfa -4 + ^ r7: .cfa -8 + ^
STACK CFI 1a840 .cfa: r7 8 +
STACK CFI INIT 1a848 f8 .cfa: sp 0 +
STACK CFI 1a84a .cfa: sp 20 + .ra: .cfa -4 + ^ r7: .cfa -8 + ^ r6: .cfa -12 + ^ r5: .cfa -16 + ^ r4: .cfa -20 + ^
STACK CFI 1a84c .cfa: r7 8 +
STACK CFI 1a850 r8: .cfa -24 + ^
STACK CFI INIT 1a940 34 .cfa: sp 0 +
STACK CFI 1a942 .cfa: sp 8 + .ra: .cfa -4 + ^ r7: .cfa -8 + ^
STACK CFI 1a944 .cfa: r7 8 +
STACK CFI INIT 1a974 d8 .cfa: sp 0 +
STACK CFI 1a976 .cfa: sp 20 + .ra: .cfa -4 + ^ r7: .cfa -8 + ^ r6: .cfa -12 + ^ r5: .cfa -16 + ^ r4: .cfa -20 + ^
STACK CFI 1a978 .cfa: r7 8 +
STACK CFI 1a97c r11: .cfa -24 + ^ r10: .cfa -28 + ^ r9: .cfa -32 + ^ r8: .cfa -36 + ^
STACK CFI INIT 1aa4c 68 .cfa: sp 0 +
STACK CFI 1aa4e .cfa: sp 20 + .ra: .cfa -4 + ^ r7: .cfa -8 + ^ r6: .cfa -12 + ^ r5: .cfa -16 + ^ r4: .cfa -20 + ^
STACK CFI 1aa50 .cfa: r7 8 +
STACK CFI 1aa54 r11: .cfa -24 + ^
STACK CFI INIT 1aab4 10 .cfa: sp 0 +
STACK CFI 1aab6 .cfa: sp 8 + .ra: .cfa -4 + ^ r7: .cfa -8 + ^
STACK CFI 1aab8 .cfa: r7 8 +
STACK CFI INIT 1aac4 108 .cfa: sp 0 +
STACK CFI 1aac6 .cfa: sp 20 + .ra: .cfa -4 + ^ r7: .cfa -8 + ^ r6: .cfa -12 + ^ r5: .cfa -16 + ^ r4: .cfa -20 + ^
STACK CFI 1aac8 .cfa: r7 8 +
STACK CFI 1aacc r11: .cfa -24 + ^ r10: .cfa -28 + ^ r9: .cfa -32 + ^ r8: .cfa -36 + ^
STACK CFI INIT 1abcc 110 .cfa: sp 0 +
STACK CFI 1abce .cfa: sp 20 + .ra: .cfa -4 + ^ r7: .cfa -8 + ^ r6: .cfa -12 + ^ r5: .cfa -16 + ^ r4: .cfa -20 + ^
STACK CFI 1abd0 .cfa: r7 8 +
STACK CFI 1abd4 r11: .cfa -24 + ^ r10: .cfa -28 + ^ r9: .cfa -32 + ^ r8: .cfa -36 + ^
STACK CFI INIT 1acdc 10 .cfa: sp 0 +
STACK CFI 1acde .cfa: sp 8 + .ra: .cfa -4 + ^ r7: .cfa -8 + ^
STACK CFI 1ace0 .cfa: r7 8 +
STACK CFI INIT 1acec 38 .cfa: sp 0 +
STACK CFI 1acee .cfa: sp 16 + .ra: .cfa -4 + ^ r7: .cfa -8 + ^ r5: .cfa -12 + ^ r4: .cfa -16 + ^
STACK CFI 1acf0 .cfa: r7 8 +
STACK CFI INIT 1ad24 18 .cfa: sp 0 +
STACK CFI 1ad26 .cfa: sp 8 + .ra: .cfa -4 + ^ r7: .cfa -8 + ^
STACK CFI 1ad28 .cfa: r7 8 +
STACK CFI INIT 1ad3c 28 .cfa: sp 0 +
STACK CFI 1ad3e .cfa: sp 8 + .ra: .cfa -4 + ^ r7: .cfa -8 + ^
STACK CFI 1ad40 .cfa: r7 8 +
STACK CFI INIT 1ad64 ce .cfa: sp 0 +
STACK CFI 1ad66 .cfa: sp 20 + .ra: .cfa -4 + ^ r7: .cfa -8 + ^ r6: .cfa -12 + ^ r5: .cfa -16 + ^ r4: .cfa -20 + ^
STACK CFI 1ad68 .cfa: r7 8 +
STACK CFI 1ad6c r10: .cfa -24 + ^ r9: .cfa -28 + ^ r8: .cfa -32 + ^
STACK CFI INIT 1ae32 e0 .cfa: sp 0 +
STACK CFI 1ae34 .cfa: sp 20 + .ra: .cfa -4 + ^ r7: .cfa -8 + ^ r6: .cfa -12 + ^ r5: .cfa -16 + ^ r4: .cfa -20 + ^
STACK CFI 1ae36 .cfa: r7 8 +
STACK CFI 1ae3a r11: .cfa -24 + ^ r9: .cfa -28 + ^ r8: .cfa -32 + ^
STACK CFI INIT 1af14 164 .cfa: sp 0 +
STACK CFI 1af16 .cfa: sp 20 + .ra: .cfa -4 + ^ r7: .cfa -8 + ^ r6: .cfa -12 + ^ r5: .cfa -16 + ^ r4: .cfa -20 + ^
STACK CFI 1af18 .cfa: r7 8 +
STACK CFI 1af1c r10: .cfa -24 + ^ r9: .cfa -28 + ^ r8: .cfa -32 + ^
STACK CFI INIT 1b078 46 .cfa: sp 0 +
STACK CFI 1b07a .cfa: sp 20 + .ra: .cfa -4 + ^ r7: .cfa -8 + ^ r6: .cfa -12 + ^ r5: .cfa -16 + ^ r4: .cfa -20 + ^
STACK CFI 1b07c .cfa: r7 8 +
STACK CFI 1b080 r8: .cfa -24 + ^
STACK CFI INIT 1b0be 3c .cfa: sp 0 +
STACK CFI 1b0c0 .cfa: sp 16 + .ra: .cfa -4 + ^ r7: .cfa -8 + ^ r5: .cfa -12 + ^ r4: .cfa -16 + ^
STACK CFI 1b0c2 .cfa: r7 8 +
STACK CFI INIT 1b0fc 10 .cfa: sp 0 +
STACK CFI 1b0fe .cfa: sp 8 + .ra: .cfa -4 + ^ r7: .cfa -8 + ^
STACK CFI 1b100 .cfa: r7 8 +
STACK CFI INIT 1b10c 2 .cfa: sp 0 +
STACK CFI INIT 1b10e e .cfa: sp 0 +
STACK CFI INIT 1b11c c0 .cfa: sp 0 +
STACK CFI 1b11e .cfa: sp 20 + .ra: .cfa -4 + ^ r7: .cfa -8 + ^ r6: .cfa -12 + ^ r5: .cfa -16 + ^ r4: .cfa -20 + ^
STACK CFI 1b120 .cfa: r7 8 +
STACK CFI 1b124 r10: .cfa -24 + ^ r9: .cfa -28 + ^ r8: .cfa -32 + ^
STACK CFI INIT 1b1dc 82 .cfa: sp 0 +
STACK CFI 1b1de .cfa: sp 20 + .ra: .cfa -4 + ^ r7: .cfa -8 + ^ r6: .cfa -12 + ^ r5: .cfa -16 + ^ r4: .cfa -20 + ^
STACK CFI 1b1e0 .cfa: r7 8 +
STACK CFI 1b1e4 r11: .cfa -24 + ^
STACK CFI INIT 1b25e 274 .cfa: sp 0 +
STACK CFI 1b260 .cfa: sp 20 + .ra: .cfa -4 + ^ r7: .cfa -8 + ^ r6: .cfa -12 + ^ r5: .cfa -16 + ^ r4: .cfa -20 + ^
STACK CFI 1b262 .cfa: r7 8 +
STACK CFI 1b266 r8: .cfa -24 + ^
STACK CFI INIT 1b4d2 5e .cfa: sp 0 +
STACK CFI 1b4da .cfa: sp 16 + .ra: .cfa -4 + ^ r7: .cfa -8 + ^ r5: .cfa -12 + ^ r4: .cfa -16 + ^
STACK CFI 1b4dc .cfa: r7 8 +
STACK CFI INIT 1b530 108 .cfa: sp 0 +
STACK CFI 1b532 .cfa: sp 20 + .ra: .cfa -4 + ^ r7: .cfa -8 + ^ r6: .cfa -12 + ^ r5: .cfa -16 + ^ r4: .cfa -20 + ^
STACK CFI 1b534 .cfa: r7 8 +
STACK CFI 1b538 r11: .cfa -24 + ^ r10: .cfa -28 + ^ r9: .cfa -32 + ^ r8: .cfa -36 + ^
STACK CFI INIT 1b638 19c .cfa: sp 0 +
STACK CFI 1b63a .cfa: sp 20 + .ra: .cfa -4 + ^ r7: .cfa -8 + ^ r6: .cfa -12 + ^ r5: .cfa -16 + ^ r4: .cfa -20 + ^
STACK CFI 1b63c .cfa: r7 8 +
STACK CFI 1b640 r11: .cfa -24 + ^ r9: .cfa -28 + ^ r8: .cfa -32 + ^
STACK CFI INIT 1b7d4 19c .cfa: sp 0 +
STACK CFI 1b7d6 .cfa: sp 20 + .ra: .cfa -4 + ^ r7: .cfa -8 + ^ r6: .cfa -12 + ^ r5: .cfa -16 + ^ r4: .cfa -20 + ^
STACK CFI 1b7d8 .cfa: r7 8 +
STACK CFI 1b7dc r11: .cfa -24 + ^ r9: .cfa -28 + ^ r8: .cfa -32 + ^
STACK CFI INIT 1b970 1b0 .cfa: sp 0 +
STACK CFI 1b972 .cfa: sp 20 + .ra: .cfa -4 + ^ r7: .cfa -8 + ^ r6: .cfa -12 + ^ r5: .cfa -16 + ^ r4: .cfa -20 + ^
STACK CFI 1b974 .cfa: r7 8 +
STACK CFI 1b978 r8: .cfa -24 + ^
STACK CFI INIT 1bb20 3a .cfa: sp 0 +
STACK CFI 1bb22 .cfa: sp 16 + .ra: .cfa -4 + ^ r7: .cfa -8 + ^ r5: .cfa -12 + ^ r4: .cfa -16 + ^
STACK CFI 1bb24 .cfa: r7 8 +
STACK CFI INIT 1bb5a 46 .cfa: sp 0 +
STACK CFI 1bb5c .cfa: sp 16 + .ra: .cfa -4 + ^ r7: .cfa -8 + ^ r5: .cfa -12 + ^ r4: .cfa -16 + ^
STACK CFI 1bb5e .cfa: r7 8 +
STACK CFI INIT 1bba0 8c .cfa: sp 0 +
STACK CFI 1bba2 .cfa: sp 20 + .ra: .cfa -4 + ^ r7: .cfa -8 + ^ r6: .cfa -12 + ^ r5: .cfa -16 + ^ r4: .cfa -20 + ^
STACK CFI 1bba4 .cfa: r7 8 +
STACK CFI 1bba8 r11: .cfa -24 + ^ r9: .cfa -28 + ^ r8: .cfa -32 + ^
STACK CFI INIT 1bc2c ba .cfa: sp 0 +
STACK CFI 1bc2e .cfa: sp 20 + .ra: .cfa -4 + ^ r7: .cfa -8 + ^ r6: .cfa -12 + ^ r5: .cfa -16 + ^ r4: .cfa -20 + ^
STACK CFI 1bc30 .cfa: r7 8 +
STACK CFI 1bc34 r11: .cfa -24 + ^ r10: .cfa -28 + ^ r9: .cfa -32 + ^ r8: .cfa -36 + ^
STACK CFI INIT 1bce6 14a .cfa: sp 0 +
STACK CFI 1bcf8 .cfa: sp 16 + .ra: .cfa -4 + ^ r7: .cfa -8 + ^ r6: .cfa -12 + ^ r4: .cfa -16 + ^
STACK CFI 1bcfa .cfa: r7 8 +
STACK CFI INIT 1be30 2f4 .cfa: sp 0 +
STACK CFI 1be32 .cfa: sp 20 + .ra: .cfa -4 + ^ r7: .cfa -8 + ^ r6: .cfa -12 + ^ r5: .cfa -16 + ^ r4: .cfa -20 + ^
STACK CFI 1be34 .cfa: r7 8 +
STACK CFI 1be38 r11: .cfa -24 + ^ r10: .cfa -28 + ^ r9: .cfa -32 + ^ r8: .cfa -36 + ^
STACK CFI INIT 1c124 20 .cfa: sp 0 +
STACK CFI 1c126 .cfa: sp 16 + .ra: .cfa -4 + ^ r7: .cfa -8 + ^ r6: .cfa -12 + ^ r4: .cfa -16 + ^
STACK CFI 1c128 .cfa: r7 8 +
STACK CFI INIT 1c150 30c .cfa: sp 0 +
STACK CFI 1c152 .cfa: sp 20 + .ra: .cfa -4 + ^ r7: .cfa -8 + ^ r6: .cfa -12 + ^ r5: .cfa -16 + ^ r4: .cfa -20 + ^
STACK CFI 1c154 .cfa: r7 8 +
STACK CFI 1c158 r10: .cfa -24 + ^ r9: .cfa -28 + ^ r8: .cfa -32 + ^
STACK CFI INIT 1c45c 2 .cfa: sp 0 +
STACK CFI INIT 1c460 ac .cfa: sp 0 +
STACK CFI 1c462 .cfa: sp 16 + .ra: .cfa -4 + ^ r7: .cfa -8 + ^ r6: .cfa -12 + ^ r4: .cfa -16 + ^
STACK CFI 1c464 .cfa: r7 8 +
STACK CFI INIT 1c50c a0 .cfa: sp 0 +
STACK CFI 1c50e .cfa: sp 16 + .ra: .cfa -4 + ^ r7: .cfa -8 + ^ r6: .cfa -12 + ^ r4: .cfa -16 + ^
STACK CFI 1c510 .cfa: r7 8 +
STACK CFI INIT 1c5ac ca .cfa: sp 0 +
STACK CFI 1c5ae .cfa: sp 20 + .ra: .cfa -4 + ^ r7: .cfa -8 + ^ r6: .cfa -12 + ^ r5: .cfa -16 + ^ r4: .cfa -20 + ^
STACK CFI 1c5b0 .cfa: r7 8 +
STACK CFI 1c5b4 r11: .cfa -24 + ^
STACK CFI INIT 1c678 2f4 .cfa: sp 0 +
STACK CFI 1c67a .cfa: sp 20 + .ra: .cfa -4 + ^ r7: .cfa -8 + ^ r6: .cfa -12 + ^ r5: .cfa -16 + ^ r4: .cfa -20 + ^
STACK CFI 1c67c .cfa: r7 8 +
STACK CFI 1c680 r11: .cfa -24 + ^ r10: .cfa -28 + ^ r9: .cfa -32 + ^ r8: .cfa -36 + ^
STACK CFI INIT 1c96c 20 .cfa: sp 0 +
STACK CFI 1c96e .cfa: sp 16 + .ra: .cfa -4 + ^ r7: .cfa -8 + ^ r6: .cfa -12 + ^ r4: .cfa -16 + ^
STACK CFI 1c970 .cfa: r7 8 +
STACK CFI INIT 1c990 320 .cfa: sp 0 +
STACK CFI 1c992 .cfa: sp 20 + .ra: .cfa -4 + ^ r7: .cfa -8 + ^ r6: .cfa -12 + ^ r5: .cfa -16 + ^ r4: .cfa -20 + ^
STACK CFI 1c994 .cfa: r7 8 +
STACK CFI 1c998 r10: .cfa -24 + ^ r9: .cfa -28 + ^ r8: .cfa -32 + ^
STACK CFI INIT 1ccb0 2 .cfa: sp 0 +
STACK CFI INIT 1ccb4 2bc .cfa: sp 0 +
STACK CFI 1ccb6 .cfa: sp 20 + .ra: .cfa -4 + ^ r7: .cfa -8 + ^ r6: .cfa -12 + ^ r5: .cfa -16 + ^ r4: .cfa -20 + ^
STACK CFI 1ccb8 .cfa: r7 8 +
STACK CFI 1ccbc r10: .cfa -24 + ^ r9: .cfa -28 + ^ r8: .cfa -32 + ^
STACK CFI INIT 1cf70 1c0 .cfa: sp 0 +
STACK CFI 1cf72 .cfa: sp 20 + .ra: .cfa -4 + ^ r7: .cfa -8 + ^ r6: .cfa -12 + ^ r5: .cfa -16 + ^ r4: .cfa -20 + ^
STACK CFI 1cf74 .cfa: r7 8 +
STACK CFI 1cf78 r11: .cfa -24 + ^ r10: .cfa -28 + ^ r9: .cfa -32 + ^ r8: .cfa -36 + ^
STACK CFI INIT 1d130 ae .cfa: sp 0 +
STACK CFI 1d132 .cfa: sp 20 + .ra: .cfa -4 + ^ r7: .cfa -8 + ^ r6: .cfa -12 + ^ r5: .cfa -16 + ^ r4: .cfa -20 + ^
STACK CFI 1d134 .cfa: r7 8 +
STACK CFI 1d138 r11: .cfa -24 + ^ r9: .cfa -28 + ^ r8: .cfa -32 + ^
STACK CFI INIT 1d1de 2 .cfa: sp 0 +
STACK CFI INIT 1d1e0 10 .cfa: sp 0 +
STACK CFI 1d1e2 .cfa: sp 8 + .ra: .cfa -4 + ^ r7: .cfa -8 + ^
STACK CFI 1d1e4 .cfa: r7 8 +
STACK CFI INIT 1d1f0 186 .cfa: sp 0 +
STACK CFI 1d1f2 .cfa: sp 20 + .ra: .cfa -4 + ^ r7: .cfa -8 + ^ r6: .cfa -12 + ^ r5: .cfa -16 + ^ r4: .cfa -20 + ^
STACK CFI 1d1f4 .cfa: r7 8 +
STACK CFI 1d1f8 r11: .cfa -24 + ^ r10: .cfa -28 + ^ r9: .cfa -32 + ^ r8: .cfa -36 + ^
STACK CFI INIT 1d378 10 .cfa: sp 0 +
STACK CFI 1d37a .cfa: sp 8 + .ra: .cfa -4 + ^ r7: .cfa -8 + ^
STACK CFI 1d37c .cfa: r7 8 +
STACK CFI INIT 1d388 10 .cfa: sp 0 +
STACK CFI 1d38a .cfa: sp 8 + .ra: .cfa -4 + ^ r7: .cfa -8 + ^
STACK CFI 1d38c .cfa: r7 8 +
STACK CFI INIT 1d398 38 .cfa: sp 0 +
STACK CFI 1d39a .cfa: sp 16 + .ra: .cfa -4 + ^ r7: .cfa -8 + ^ r5: .cfa -12 + ^ r4: .cfa -16 + ^
STACK CFI 1d39c .cfa: r7 8 +
STACK CFI INIT 1d3d0 18 .cfa: sp 0 +
STACK CFI 1d3d2 .cfa: sp 8 + .ra: .cfa -4 + ^ r7: .cfa -8 + ^
STACK CFI 1d3d4 .cfa: r7 8 +
STACK CFI INIT 1d3e8 10 .cfa: sp 0 +
STACK CFI 1d3ea .cfa: sp 8 + .ra: .cfa -4 + ^ r7: .cfa -8 + ^
STACK CFI 1d3ec .cfa: r7 8 +
STACK CFI INIT 1d3f8 2 .cfa: sp 0 +
STACK CFI INIT 1d3fa 4 .cfa: sp 0 +
STACK CFI INIT 1d400 20 .cfa: sp 0 +
STACK CFI 1d402 .cfa: sp 16 + .ra: .cfa -4 + ^ r7: .cfa -8 + ^ r6: .cfa -12 + ^ r4: .cfa -16 + ^
STACK CFI 1d404 .cfa: r7 8 +
STACK CFI INIT 1d420 14 .cfa: sp 0 +
STACK CFI INIT 1d434 2 .cfa: sp 0 +
STACK CFI INIT 1d436 4 .cfa: sp 0 +
STACK CFI INIT 1d43a 8 .cfa: sp 0 +
STACK CFI INIT 1d444 18 .cfa: sp 0 +
STACK CFI INIT 1d45c c .cfa: sp 0 +
STACK CFI INIT 1d468 84 .cfa: sp 0 +
STACK CFI 1d46a .cfa: sp 20 + .ra: .cfa -4 + ^ r7: .cfa -8 + ^ r6: .cfa -12 + ^ r5: .cfa -16 + ^ r4: .cfa -20 + ^
STACK CFI 1d46c .cfa: r7 8 +
STACK CFI 1d470 r8: .cfa -24 + ^
STACK CFI INIT 1d4ec 44 .cfa: sp 0 +
STACK CFI 1d4ee .cfa: sp 16 + .ra: .cfa -4 + ^ r7: .cfa -8 + ^ r5: .cfa -12 + ^ r4: .cfa -16 + ^
STACK CFI 1d4f0 .cfa: r7 8 +
STACK CFI INIT 1d530 2f4 .cfa: sp 0 +
STACK CFI 1d532 .cfa: sp 20 + .ra: .cfa -4 + ^ r7: .cfa -8 + ^ r6: .cfa -12 + ^ r5: .cfa -16 + ^ r4: .cfa -20 + ^
STACK CFI 1d534 .cfa: r7 8 +
STACK CFI 1d538 r11: .cfa -24 + ^ r10: .cfa -28 + ^ r9: .cfa -32 + ^ r8: .cfa -36 + ^
STACK CFI INIT 1d824 20 .cfa: sp 0 +
STACK CFI 1d826 .cfa: sp 16 + .ra: .cfa -4 + ^ r7: .cfa -8 + ^ r6: .cfa -12 + ^ r4: .cfa -16 + ^
STACK CFI 1d828 .cfa: r7 8 +
STACK CFI INIT 1d844 3a .cfa: sp 0 +
STACK CFI 1d846 .cfa: sp 16 + .ra: .cfa -4 + ^ r7: .cfa -8 + ^ r5: .cfa -12 + ^ r4: .cfa -16 + ^
STACK CFI 1d848 .cfa: r7 8 +
STACK CFI INIT 1d880 2a0 .cfa: sp 0 +
STACK CFI 1d882 .cfa: sp 20 + .ra: .cfa -4 + ^ r7: .cfa -8 + ^ r6: .cfa -12 + ^ r5: .cfa -16 + ^ r4: .cfa -20 + ^
STACK CFI 1d884 .cfa: r7 8 +
STACK CFI 1d888 r11: .cfa -24 + ^ r10: .cfa -28 + ^ r9: .cfa -32 + ^ r8: .cfa -36 + ^
STACK CFI INIT 1db20 38 .cfa: sp 0 +
STACK CFI 1db22 .cfa: sp 16 + .ra: .cfa -4 + ^ r7: .cfa -8 + ^ r6: .cfa -12 + ^ r4: .cfa -16 + ^
STACK CFI 1db24 .cfa: r7 8 +
STACK CFI INIT 1db58 180 .cfa: sp 0 +
STACK CFI 1db5a .cfa: sp 20 + .ra: .cfa -4 + ^ r7: .cfa -8 + ^ r6: .cfa -12 + ^ r5: .cfa -16 + ^ r4: .cfa -20 + ^
STACK CFI 1db5c .cfa: r7 8 +
STACK CFI 1db60 r11: .cfa -24 + ^ r10: .cfa -28 + ^ r9: .cfa -32 + ^ r8: .cfa -36 + ^
STACK CFI INIT 1dcd8 f4 .cfa: sp 0 +
STACK CFI 1dcda .cfa: sp 20 + .ra: .cfa -4 + ^ r7: .cfa -8 + ^ r6: .cfa -12 + ^ r5: .cfa -16 + ^ r4: .cfa -20 + ^
STACK CFI 1dcdc .cfa: r7 8 +
STACK CFI 1dce0 r11: .cfa -24 + ^ r9: .cfa -28 + ^ r8: .cfa -32 + ^
STACK CFI INIT 1ddcc f8 .cfa: sp 0 +
STACK CFI 1ddce .cfa: sp 20 + .ra: .cfa -4 + ^ r7: .cfa -8 + ^ r6: .cfa -12 + ^ r5: .cfa -16 + ^ r4: .cfa -20 + ^
STACK CFI 1ddd0 .cfa: r7 8 +
STACK CFI 1ddd4 r11: .cfa -24 + ^ r10: .cfa -28 + ^ r9: .cfa -32 + ^ r8: .cfa -36 + ^
STACK CFI INIT 1dec4 134 .cfa: sp 0 +
STACK CFI 1dec6 .cfa: sp 20 + .ra: .cfa -4 + ^ r7: .cfa -8 + ^ r6: .cfa -12 + ^ r5: .cfa -16 + ^ r4: .cfa -20 + ^
STACK CFI 1dec8 .cfa: r7 8 +
STACK CFI 1decc r11: .cfa -24 + ^ r10: .cfa -28 + ^ r9: .cfa -32 + ^ r8: .cfa -36 + ^
STACK CFI INIT 1dff8 134 .cfa: sp 0 +
STACK CFI 1dffa .cfa: sp 20 + .ra: .cfa -4 + ^ r7: .cfa -8 + ^ r6: .cfa -12 + ^ r5: .cfa -16 + ^ r4: .cfa -20 + ^
STACK CFI 1dffc .cfa: r7 8 +
STACK CFI 1e000 r11: .cfa -24 + ^ r10: .cfa -28 + ^ r9: .cfa -32 + ^ r8: .cfa -36 + ^
STACK CFI INIT 1e12c 38 .cfa: sp 0 +
STACK CFI 1e12e .cfa: sp 16 + .ra: .cfa -4 + ^ r7: .cfa -8 + ^ r6: .cfa -12 + ^ r4: .cfa -16 + ^
STACK CFI 1e130 .cfa: r7 8 +
STACK CFI INIT 1e164 4 .cfa: sp 0 +
STACK CFI INIT 1e168 c .cfa: sp 0 +
STACK CFI INIT 1e174 2 .cfa: sp 0 +
STACK CFI INIT 1e176 2 .cfa: sp 0 +
STACK CFI INIT 1e178 10 .cfa: sp 0 +
STACK CFI 1e17a .cfa: sp 8 + .ra: .cfa -4 + ^ r7: .cfa -8 + ^
STACK CFI 1e17c .cfa: r7 8 +
STACK CFI INIT 1e188 e .cfa: sp 0 +
STACK CFI INIT 1e198 1c .cfa: sp 0 +
STACK CFI INIT 1e1b4 4 .cfa: sp 0 +
STACK CFI INIT 1e1b8 30 .cfa: sp 0 +
STACK CFI 1e1ce .cfa: sp 16 + .ra: .cfa -4 + ^ r7: .cfa -8 + ^ r6: .cfa -12 + ^ r4: .cfa -16 + ^
STACK CFI 1e1d0 .cfa: r7 8 +
STACK CFI INIT 1e1e8 10 .cfa: sp 0 +
STACK CFI INIT 1e1f8 30 .cfa: sp 0 +
STACK CFI 1e20e .cfa: sp 16 + .ra: .cfa -4 + ^ r7: .cfa -8 + ^ r6: .cfa -12 + ^ r4: .cfa -16 + ^
STACK CFI 1e210 .cfa: r7 8 +
STACK CFI INIT 0 5a .cfa: sp 0 +
STACK CFI 2 .cfa: sp 20 + .ra: .cfa -4 + ^ r7: .cfa -8 + ^ r6: .cfa -12 + ^ r5: .cfa -16 + ^ r4: .cfa -20 + ^
STACK CFI 4 .cfa: r7 8 +
STACK CFI 8 r11: .cfa -24 + ^ r9: .cfa -28 + ^ r8: .cfa -32 + ^
STACK CFI INIT 0 50 .cfa: sp 0 +
STACK CFI 2 .cfa: sp 20 + .ra: .cfa -4 + ^ r7: .cfa -8 + ^ r6: .cfa -12 + ^ r5: .cfa -16 + ^ r4: .cfa -20 + ^
STACK CFI 4 .cfa: r7 8 +
STACK CFI 8 r11: .cfa -24 + ^ r9: .cfa -28 + ^ r8: .cfa -32 + ^
STACK CFI INIT 1e228 208 .cfa: sp 0 +
STACK CFI 1e22a .cfa: sp 20 + .ra: .cfa -4 + ^ r7: .cfa -8 + ^ r6: .cfa -12 + ^ r5: .cfa -16 + ^ r4: .cfa -20 + ^
STACK CFI 1e22c .cfa: r7 8 +
STACK CFI 1e230 r11: .cfa -24 + ^ r9: .cfa -28 + ^ r8: .cfa -32 + ^
STACK CFI INIT 1e430 214 .cfa: sp 0 +
STACK CFI 1e432 .cfa: sp 20 + .ra: .cfa -4 + ^ r7: .cfa -8 + ^ r6: .cfa -12 + ^ r5: .cfa -16 + ^ r4: .cfa -20 + ^
STACK CFI 1e434 .cfa: r7 8 +
STACK CFI 1e438 r11: .cfa -24 + ^ r9: .cfa -28 + ^ r8: .cfa -32 + ^
STACK CFI INIT 1e644 24e .cfa: sp 0 +
STACK CFI 1e646 .cfa: sp 20 + .ra: .cfa -4 + ^ r7: .cfa -8 + ^ r6: .cfa -12 + ^ r5: .cfa -16 + ^ r4: .cfa -20 + ^
STACK CFI 1e648 .cfa: r7 8 +
STACK CFI 1e64c r11: .cfa -24 + ^ r10: .cfa -28 + ^ r9: .cfa -32 + ^ r8: .cfa -36 + ^
STACK CFI INIT 1e894 50 .cfa: sp 0 +
STACK CFI 1e896 .cfa: sp 16 + .ra: .cfa -4 + ^ r7: .cfa -8 + ^ r6: .cfa -12 + ^ r4: .cfa -16 + ^
STACK CFI 1e898 .cfa: r7 8 +
STACK CFI INIT 1e8e4 84 .cfa: sp 0 +
STACK CFI 1e8e6 .cfa: sp 20 + .ra: .cfa -4 + ^ r7: .cfa -8 + ^ r6: .cfa -12 + ^ r5: .cfa -16 + ^ r4: .cfa -20 + ^
STACK CFI 1e8e8 .cfa: r7 8 +
STACK CFI 1e8ec r11: .cfa -24 + ^ r9: .cfa -28 + ^ r8: .cfa -32 + ^
STACK CFI INIT 1e968 38 .cfa: sp 0 +
STACK CFI 1e96a .cfa: sp 16 + .ra: .cfa -4 + ^ r7: .cfa -8 + ^ r6: .cfa -12 + ^ r4: .cfa -16 + ^
STACK CFI 1e96c .cfa: r7 8 +
STACK CFI INIT 1e9a0 30 .cfa: sp 0 +
STACK CFI 1e9b6 .cfa: sp 16 + .ra: .cfa -4 + ^ r7: .cfa -8 + ^ r6: .cfa -12 + ^ r4: .cfa -16 + ^
STACK CFI 1e9b8 .cfa: r7 8 +
STACK CFI INIT 1e9d0 48 .cfa: sp 0 +
STACK CFI INIT 1ea18 30 .cfa: sp 0 +
STACK CFI 1ea2e .cfa: sp 16 + .ra: .cfa -4 + ^ r7: .cfa -8 + ^ r6: .cfa -12 + ^ r4: .cfa -16 + ^
STACK CFI 1ea30 .cfa: r7 8 +
STACK CFI INIT 1ea48 3a .cfa: sp 0 +
STACK CFI INIT 1ea84 3c .cfa: sp 0 +
STACK CFI 1ea86 .cfa: sp 16 + .ra: .cfa -4 + ^ r7: .cfa -8 + ^ r6: .cfa -12 + ^ r4: .cfa -16 + ^
STACK CFI 1ea88 .cfa: r7 8 +
STACK CFI INIT 1eac0 40 .cfa: sp 0 +
STACK CFI 1eac2 .cfa: sp 16 + .ra: .cfa -4 + ^ r7: .cfa -8 + ^ r6: .cfa -12 + ^ r4: .cfa -16 + ^
STACK CFI 1eac4 .cfa: r7 8 +
STACK CFI INIT 1eb00 d4 .cfa: sp 0 +
STACK CFI 1eb02 .cfa: sp 16 + .ra: .cfa -4 + ^ r7: .cfa -8 + ^ r6: .cfa -12 + ^ r4: .cfa -16 + ^
STACK CFI 1eb04 .cfa: r7 8 +
STACK CFI INIT 1ebd4 74 .cfa: sp 0 +
STACK CFI 1ebd6 .cfa: sp 20 + .ra: .cfa -4 + ^ r7: .cfa -8 + ^ r6: .cfa -12 + ^ r5: .cfa -16 + ^ r4: .cfa -20 + ^
STACK CFI 1ebd8 .cfa: r7 8 +
STACK CFI 1ebdc r11: .cfa -24 + ^
STACK CFI INIT 1ec48 7c .cfa: sp 0 +
STACK CFI 1ec4a .cfa: sp 20 + .ra: .cfa -4 + ^ r7: .cfa -8 + ^ r6: .cfa -12 + ^ r5: .cfa -16 + ^ r4: .cfa -20 + ^
STACK CFI 1ec4c .cfa: r7 8 +
STACK CFI 1ec50 r11: .cfa -24 + ^
STACK CFI INIT 1ecc4 150 .cfa: sp 0 +
STACK CFI 1ecc6 .cfa: sp 20 + .ra: .cfa -4 + ^ r7: .cfa -8 + ^ r6: .cfa -12 + ^ r5: .cfa -16 + ^ r4: .cfa -20 + ^
STACK CFI 1ecc8 .cfa: r7 8 +
STACK CFI 1eccc r11: .cfa -24 + ^ r9: .cfa -28 + ^ r8: .cfa -32 + ^
STACK CFI INIT 1ee14 32c .cfa: sp 0 +
STACK CFI 1ee16 .cfa: sp 20 + .ra: .cfa -4 + ^ r7: .cfa -8 + ^ r6: .cfa -12 + ^ r5: .cfa -16 + ^ r4: .cfa -20 + ^
STACK CFI 1ee18 .cfa: r7 8 +
STACK CFI 1ee1c r11: .cfa -24 + ^ r10: .cfa -28 + ^ r9: .cfa -32 + ^ r8: .cfa -36 + ^
STACK CFI INIT 1f140 124 .cfa: sp 0 +
STACK CFI 1f142 .cfa: sp 20 + .ra: .cfa -4 + ^ r7: .cfa -8 + ^ r6: .cfa -12 + ^ r5: .cfa -16 + ^ r4: .cfa -20 + ^
STACK CFI 1f144 .cfa: r7 8 +
STACK CFI 1f148 r10: .cfa -24 + ^ r9: .cfa -28 + ^ r8: .cfa -32 + ^
STACK CFI INIT 1f264 10 .cfa: sp 0 +
STACK CFI 1f266 .cfa: sp 8 + .ra: .cfa -4 + ^ r7: .cfa -8 + ^
STACK CFI 1f268 .cfa: r7 8 +
STACK CFI INIT 1f274 22 .cfa: sp 0 +
STACK CFI 1f276 .cfa: sp 16 + .ra: .cfa -4 + ^ r7: .cfa -8 + ^ r6: .cfa -12 + ^ r4: .cfa -16 + ^
STACK CFI 1f278 .cfa: r7 8 +
STACK CFI INIT 1f298 38 .cfa: sp 0 +
STACK CFI 1f29a .cfa: sp 16 + .ra: .cfa -4 + ^ r7: .cfa -8 + ^ r6: .cfa -12 + ^ r4: .cfa -16 + ^
STACK CFI 1f29c .cfa: r7 8 +
STACK CFI INIT 1f2d0 11c .cfa: sp 0 +
STACK CFI 1f2d2 .cfa: sp 20 + .ra: .cfa -4 + ^ r7: .cfa -8 + ^ r6: .cfa -12 + ^ r5: .cfa -16 + ^ r4: .cfa -20 + ^
STACK CFI 1f2d4 .cfa: r7 8 +
STACK CFI 1f2d8 r11: .cfa -24 + ^ r10: .cfa -28 + ^ r9: .cfa -32 + ^ r8: .cfa -36 + ^
STACK CFI INIT 1f3ec 38 .cfa: sp 0 +
STACK CFI 1f3ee .cfa: sp 16 + .ra: .cfa -4 + ^ r7: .cfa -8 + ^ r6: .cfa -12 + ^ r4: .cfa -16 + ^
STACK CFI 1f3f0 .cfa: r7 8 +
STACK CFI INIT 1f424 4c .cfa: sp 0 +
STACK CFI 1f426 .cfa: sp 20 + .ra: .cfa -4 + ^ r7: .cfa -8 + ^ r6: .cfa -12 + ^ r5: .cfa -16 + ^ r4: .cfa -20 + ^
STACK CFI 1f428 .cfa: r7 8 +
STACK CFI 1f42c r11: .cfa -24 + ^
STACK CFI INIT 1f470 182 .cfa: sp 0 +
STACK CFI 1f472 .cfa: sp 20 + .ra: .cfa -4 + ^ r7: .cfa -8 + ^ r6: .cfa -12 + ^ r5: .cfa -16 + ^ r4: .cfa -20 + ^
STACK CFI 1f474 .cfa: r7 8 +
STACK CFI 1f478 r11: .cfa -24 + ^ r10: .cfa -28 + ^ r9: .cfa -32 + ^ r8: .cfa -36 + ^
STACK CFI INIT 1f5f4 10 .cfa: sp 0 +
STACK CFI 1f5f6 .cfa: sp 8 + .ra: .cfa -4 + ^ r7: .cfa -8 + ^
STACK CFI 1f5f8 .cfa: r7 8 +
STACK CFI INIT 1f604 126 .cfa: sp 0 +
STACK CFI 1f606 .cfa: sp 20 + .ra: .cfa -4 + ^ r7: .cfa -8 + ^ r6: .cfa -12 + ^ r5: .cfa -16 + ^ r4: .cfa -20 + ^
STACK CFI 1f608 .cfa: r7 8 +
STACK CFI 1f60c r11: .cfa -24 + ^ r10: .cfa -28 + ^ r9: .cfa -32 + ^ r8: .cfa -36 + ^
STACK CFI INIT 1f72a 122 .cfa: sp 0 +
STACK CFI 1f72c .cfa: sp 20 + .ra: .cfa -4 + ^ r7: .cfa -8 + ^ r6: .cfa -12 + ^ r5: .cfa -16 + ^ r4: .cfa -20 + ^
STACK CFI 1f72e .cfa: r7 8 +
STACK CFI 1f732 r11: .cfa -24 + ^ r10: .cfa -28 + ^ r9: .cfa -32 + ^ r8: .cfa -36 + ^
STACK CFI INIT 1f84c 10 .cfa: sp 0 +
STACK CFI 1f84e .cfa: sp 8 + .ra: .cfa -4 + ^ r7: .cfa -8 + ^
STACK CFI 1f850 .cfa: r7 8 +
STACK CFI INIT 1f85c ce .cfa: sp 0 +
STACK CFI 1f85e .cfa: sp 20 + .ra: .cfa -4 + ^ r7: .cfa -8 + ^ r6: .cfa -12 + ^ r5: .cfa -16 + ^ r4: .cfa -20 + ^
STACK CFI 1f860 .cfa: r7 8 +
STACK CFI 1f864 r10: .cfa -24 + ^ r9: .cfa -28 + ^ r8: .cfa -32 + ^
STACK CFI INIT 1f92c 38 .cfa: sp 0 +
STACK CFI 1f92e .cfa: sp 16 + .ra: .cfa -4 + ^ r7: .cfa -8 + ^ r6: .cfa -12 + ^ r4: .cfa -16 + ^
STACK CFI 1f930 .cfa: r7 8 +
STACK CFI INIT 1f964 84 .cfa: sp 0 +
STACK CFI 1f966 .cfa: sp 16 + .ra: .cfa -4 + ^ r7: .cfa -8 + ^ r6: .cfa -12 + ^ r4: .cfa -16 + ^
STACK CFI 1f968 .cfa: r7 8 +
STACK CFI INIT 1f9e8 30 .cfa: sp 0 +
STACK CFI 1f9fe .cfa: sp 16 + .ra: .cfa -4 + ^ r7: .cfa -8 + ^ r6: .cfa -12 + ^ r4: .cfa -16 + ^
STACK CFI 1fa00 .cfa: r7 8 +
STACK CFI INIT 1fa18 38 .cfa: sp 0 +
STACK CFI 1fa1a .cfa: sp 16 + .ra: .cfa -4 + ^ r7: .cfa -8 + ^ r6: .cfa -12 + ^ r4: .cfa -16 + ^
STACK CFI 1fa1c .cfa: r7 8 +
STACK CFI INIT 1fa50 84 .cfa: sp 0 +
STACK CFI 1fa52 .cfa: sp 16 + .ra: .cfa -4 + ^ r7: .cfa -8 + ^ r5: .cfa -12 + ^ r4: .cfa -16 + ^
STACK CFI 1fa54 .cfa: r7 8 +
STACK CFI INIT 1fad4 190 .cfa: sp 0 +
STACK CFI 1fad6 .cfa: sp 20 + .ra: .cfa -4 + ^ r7: .cfa -8 + ^ r6: .cfa -12 + ^ r5: .cfa -16 + ^ r4: .cfa -20 + ^
STACK CFI 1fad8 .cfa: r7 8 +
STACK CFI 1fadc r11: .cfa -24 + ^
STACK CFI INIT 1fc64 35e .cfa: sp 0 +
STACK CFI 1fc66 .cfa: sp 20 + .ra: .cfa -4 + ^ r7: .cfa -8 + ^ r6: .cfa -12 + ^ r5: .cfa -16 + ^ r4: .cfa -20 + ^
STACK CFI 1fc68 .cfa: r7 8 +
STACK CFI 1fc6c r8: .cfa -24 + ^
STACK CFI INIT 1ffc4 e4 .cfa: sp 0 +
STACK CFI 1ffc6 .cfa: sp 20 + .ra: .cfa -4 + ^ r7: .cfa -8 + ^ r6: .cfa -12 + ^ r5: .cfa -16 + ^ r4: .cfa -20 + ^
STACK CFI 1ffc8 .cfa: r7 8 +
STACK CFI 1ffcc r8: .cfa -24 + ^
STACK CFI INIT 200a8 38 .cfa: sp 0 +
STACK CFI 200aa .cfa: sp 16 + .ra: .cfa -4 + ^ r7: .cfa -8 + ^ r6: .cfa -12 + ^ r4: .cfa -16 + ^
STACK CFI 200ac .cfa: r7 8 +
STACK CFI INIT 200e0 88 .cfa: sp 0 +
STACK CFI 200e2 .cfa: sp 20 + .ra: .cfa -4 + ^ r7: .cfa -8 + ^ r6: .cfa -12 + ^ r5: .cfa -16 + ^ r4: .cfa -20 + ^
STACK CFI 200e4 .cfa: r7 8 +
STACK CFI 200e8 r11: .cfa -24 + ^
STACK CFI INIT 20168 3c .cfa: sp 0 +
STACK CFI 2016a .cfa: sp 16 + .ra: .cfa -4 + ^ r7: .cfa -8 + ^ r6: .cfa -12 + ^ r4: .cfa -16 + ^
STACK CFI 2016c .cfa: r7 8 +
STACK CFI INIT 201a4 40 .cfa: sp 0 +
STACK CFI 201a6 .cfa: sp 16 + .ra: .cfa -4 + ^ r7: .cfa -8 + ^ r6: .cfa -12 + ^ r4: .cfa -16 + ^
STACK CFI 201a8 .cfa: r7 8 +
STACK CFI INIT 201e4 42 .cfa: sp 0 +
STACK CFI 201e6 .cfa: sp 16 + .ra: .cfa -4 + ^ r7: .cfa -8 + ^ r5: .cfa -12 + ^ r4: .cfa -16 + ^
STACK CFI 201e8 .cfa: r7 8 +
STACK CFI INIT 20228 3c .cfa: sp 0 +
STACK CFI 2022a .cfa: sp 16 + .ra: .cfa -4 + ^ r7: .cfa -8 + ^ r6: .cfa -12 + ^ r4: .cfa -16 + ^
STACK CFI 2022c .cfa: r7 8 +
STACK CFI INIT 20264 40 .cfa: sp 0 +
STACK CFI 20266 .cfa: sp 16 + .ra: .cfa -4 + ^ r7: .cfa -8 + ^ r6: .cfa -12 + ^ r4: .cfa -16 + ^
STACK CFI 20268 .cfa: r7 8 +
STACK CFI INIT 202a4 32 .cfa: sp 0 +
STACK CFI INIT 202d8 30 .cfa: sp 0 +
STACK CFI 202ee .cfa: sp 16 + .ra: .cfa -4 + ^ r7: .cfa -8 + ^ r6: .cfa -12 + ^ r4: .cfa -16 + ^
STACK CFI 202f0 .cfa: r7 8 +
STACK CFI INIT 20308 32 .cfa: sp 0 +
STACK CFI INIT 2033c 3c .cfa: sp 0 +
STACK CFI 2033e .cfa: sp 16 + .ra: .cfa -4 + ^ r7: .cfa -8 + ^ r6: .cfa -12 + ^ r4: .cfa -16 + ^
STACK CFI 20340 .cfa: r7 8 +
STACK CFI INIT 20378 40 .cfa: sp 0 +
STACK CFI 2037a .cfa: sp 16 + .ra: .cfa -4 + ^ r7: .cfa -8 + ^ r6: .cfa -12 + ^ r4: .cfa -16 + ^
STACK CFI 2037c .cfa: r7 8 +
STACK CFI INIT 203b8 8e .cfa: sp 0 +
STACK CFI 203ba .cfa: sp 20 + .ra: .cfa -4 + ^ r7: .cfa -8 + ^ r6: .cfa -12 + ^ r5: .cfa -16 + ^ r4: .cfa -20 + ^
STACK CFI 203bc .cfa: r7 8 +
STACK CFI 203c0 r10: .cfa -24 + ^ r9: .cfa -28 + ^ r8: .cfa -32 + ^
STACK CFI INIT 20448 3c .cfa: sp 0 +
STACK CFI 2044a .cfa: sp 16 + .ra: .cfa -4 + ^ r7: .cfa -8 + ^ r6: .cfa -12 + ^ r4: .cfa -16 + ^
STACK CFI 2044c .cfa: r7 8 +
STACK CFI INIT 20484 40 .cfa: sp 0 +
STACK CFI 20486 .cfa: sp 16 + .ra: .cfa -4 + ^ r7: .cfa -8 + ^ r6: .cfa -12 + ^ r4: .cfa -16 + ^
STACK CFI 20488 .cfa: r7 8 +
STACK CFI INIT 204c4 6c .cfa: sp 0 +
STACK CFI 204c6 .cfa: sp 20 + .ra: .cfa -4 + ^ r7: .cfa -8 + ^ r6: .cfa -12 + ^ r5: .cfa -16 + ^ r4: .cfa -20 + ^
STACK CFI 204c8 .cfa: r7 8 +
STACK CFI 204cc r11: .cfa -24 + ^
STACK CFI INIT 20530 30 .cfa: sp 0 +
STACK CFI 20546 .cfa: sp 16 + .ra: .cfa -4 + ^ r7: .cfa -8 + ^ r6: .cfa -12 + ^ r4: .cfa -16 + ^
STACK CFI 20548 .cfa: r7 8 +
STACK CFI INIT 20560 7a .cfa: sp 0 +
STACK CFI 20562 .cfa: sp 20 + .ra: .cfa -4 + ^ r7: .cfa -8 + ^ r6: .cfa -12 + ^ r5: .cfa -16 + ^ r4: .cfa -20 + ^
STACK CFI 20564 .cfa: r7 8 +
STACK CFI 20568 r8: .cfa -24 + ^
STACK CFI INIT 205da 246 .cfa: sp 0 +
STACK CFI 205dc .cfa: sp 20 + .ra: .cfa -4 + ^ r7: .cfa -8 + ^ r6: .cfa -12 + ^ r5: .cfa -16 + ^ r4: .cfa -20 + ^
STACK CFI 205de .cfa: r7 8 +
STACK CFI 205e2 r11: .cfa -24 + ^ r10: .cfa -28 + ^ r9: .cfa -32 + ^ r8: .cfa -36 + ^
STACK CFI INIT 20820 138 .cfa: sp 0 +
STACK CFI 20822 .cfa: sp 20 + .ra: .cfa -4 + ^ r7: .cfa -8 + ^ r6: .cfa -12 + ^ r5: .cfa -16 + ^ r4: .cfa -20 + ^
STACK CFI 20824 .cfa: r7 8 +
STACK CFI 20828 r10: .cfa -24 + ^ r9: .cfa -28 + ^ r8: .cfa -32 + ^
STACK CFI INIT 20958 4c .cfa: sp 0 +
STACK CFI 2095a .cfa: sp 20 + .ra: .cfa -4 + ^ r7: .cfa -8 + ^ r6: .cfa -12 + ^ r5: .cfa -16 + ^ r4: .cfa -20 + ^
STACK CFI 2095c .cfa: r7 8 +
STACK CFI 20960 r11: .cfa -24 + ^
STACK CFI INIT 209a4 d0 .cfa: sp 0 +
STACK CFI 209a6 .cfa: sp 20 + .ra: .cfa -4 + ^ r7: .cfa -8 + ^ r6: .cfa -12 + ^ r5: .cfa -16 + ^ r4: .cfa -20 + ^
STACK CFI 209a8 .cfa: r7 8 +
STACK CFI 209ac r11: .cfa -24 + ^
STACK CFI INIT 20a74 10 .cfa: sp 0 +
STACK CFI 20a76 .cfa: sp 8 + .ra: .cfa -4 + ^ r7: .cfa -8 + ^
STACK CFI 20a78 .cfa: r7 8 +
STACK CFI INIT 20a84 7d8 .cfa: sp 0 +
STACK CFI 20a86 .cfa: sp 20 + .ra: .cfa -4 + ^ r7: .cfa -8 + ^ r6: .cfa -12 + ^ r5: .cfa -16 + ^ r4: .cfa -20 + ^
STACK CFI 20a88 .cfa: r7 8 +
STACK CFI 20a8c r11: .cfa -24 + ^ r10: .cfa -28 + ^ r9: .cfa -32 + ^ r8: .cfa -36 + ^
STACK CFI INIT 2125c 22 .cfa: sp 0 +
STACK CFI 2125e .cfa: sp 16 + .ra: .cfa -4 + ^ r7: .cfa -8 + ^ r6: .cfa -12 + ^ r4: .cfa -16 + ^
STACK CFI 21260 .cfa: r7 8 +
STACK CFI INIT 0 d8 .cfa: sp 0 +
STACK CFI 2 .cfa: sp 20 + .ra: .cfa -4 + ^ r7: .cfa -8 + ^ r6: .cfa -12 + ^ r5: .cfa -16 + ^ r4: .cfa -20 + ^
STACK CFI 4 .cfa: r7 8 +
STACK CFI 8 r11: .cfa -24 + ^ r10: .cfa -28 + ^ r9: .cfa -32 + ^ r8: .cfa -36 + ^
STACK CFI INIT 21280 1c4 .cfa: sp 0 +
STACK CFI 21282 .cfa: sp 20 + .ra: .cfa -4 + ^ r7: .cfa -8 + ^ r6: .cfa -12 + ^ r5: .cfa -16 + ^ r4: .cfa -20 + ^
STACK CFI 21284 .cfa: r7 8 +
STACK CFI 21288 r11: .cfa -24 + ^ r10: .cfa -28 + ^ r9: .cfa -32 + ^ r8: .cfa -36 + ^
STACK CFI INIT 21444 66 .cfa: sp 0 +
STACK CFI 21446 .cfa: sp 20 + .ra: .cfa -4 + ^ r7: .cfa -8 + ^ r6: .cfa -12 + ^ r5: .cfa -16 + ^ r4: .cfa -20 + ^
STACK CFI 21448 .cfa: r7 8 +
STACK CFI 2144c r11: .cfa -24 + ^ r9: .cfa -28 + ^ r8: .cfa -32 + ^
STACK CFI INIT 214aa a6 .cfa: sp 0 +
STACK CFI 214ac .cfa: sp 20 + .ra: .cfa -4 + ^ r7: .cfa -8 + ^ r6: .cfa -12 + ^ r5: .cfa -16 + ^ r4: .cfa -20 + ^
STACK CFI 214ae .cfa: r7 8 +
STACK CFI 214b2 r10: .cfa -24 + ^ r9: .cfa -28 + ^ r8: .cfa -32 + ^
STACK CFI INIT 21550 118 .cfa: sp 0 +
STACK CFI 21552 .cfa: sp 20 + .ra: .cfa -4 + ^ r7: .cfa -8 + ^ r6: .cfa -12 + ^ r5: .cfa -16 + ^ r4: .cfa -20 + ^
STACK CFI 21554 .cfa: r7 8 +
STACK CFI 21558 r11: .cfa -24 + ^ r10: .cfa -28 + ^ r9: .cfa -32 + ^ r8: .cfa -36 + ^
STACK CFI INIT 21668 10 .cfa: sp 0 +
STACK CFI 2166a .cfa: sp 8 + .ra: .cfa -4 + ^ r7: .cfa -8 + ^
STACK CFI 2166c .cfa: r7 8 +
STACK CFI INIT 21678 38 .cfa: sp 0 +
STACK CFI 2167a .cfa: sp 16 + .ra: .cfa -4 + ^ r7: .cfa -8 + ^ r6: .cfa -12 + ^ r4: .cfa -16 + ^
STACK CFI 2167c .cfa: r7 8 +
STACK CFI INIT 216b0 2d0 .cfa: sp 0 +
STACK CFI 216b2 .cfa: sp 20 + .ra: .cfa -4 + ^ r7: .cfa -8 + ^ r6: .cfa -12 + ^ r5: .cfa -16 + ^ r4: .cfa -20 + ^
STACK CFI 216b4 .cfa: r7 8 +
STACK CFI 216b8 r10: .cfa -24 + ^ r9: .cfa -28 + ^ r8: .cfa -32 + ^
STACK CFI INIT 21980 184 .cfa: sp 0 +
STACK CFI 21982 .cfa: sp 20 + .ra: .cfa -4 + ^ r7: .cfa -8 + ^ r6: .cfa -12 + ^ r5: .cfa -16 + ^ r4: .cfa -20 + ^
STACK CFI 21984 .cfa: r7 8 +
STACK CFI 21988 r10: .cfa -24 + ^ r9: .cfa -28 + ^ r8: .cfa -32 + ^
STACK CFI INIT 21b04 a4 .cfa: sp 0 +
STACK CFI 21b06 .cfa: sp 20 + .ra: .cfa -4 + ^ r7: .cfa -8 + ^ r6: .cfa -12 + ^ r5: .cfa -16 + ^ r4: .cfa -20 + ^
STACK CFI 21b08 .cfa: r7 8 +
STACK CFI 21b0c r11: .cfa -24 + ^
STACK CFI INIT 21ba8 100 .cfa: sp 0 +
STACK CFI 21baa .cfa: sp 16 + .ra: .cfa -4 + ^ r7: .cfa -8 + ^ r6: .cfa -12 + ^ r4: .cfa -16 + ^
STACK CFI 21bac .cfa: r7 8 +
STACK CFI INIT 21ca8 292 .cfa: sp 0 +
STACK CFI 21caa .cfa: sp 20 + .ra: .cfa -4 + ^ r7: .cfa -8 + ^ r6: .cfa -12 + ^ r5: .cfa -16 + ^ r4: .cfa -20 + ^
STACK CFI 21cac .cfa: r7 8 +
STACK CFI 21cb0 r11: .cfa -24 + ^
STACK CFI INIT 21f3c 31c .cfa: sp 0 +
STACK CFI 21f3e .cfa: sp 20 + .ra: .cfa -4 + ^ r7: .cfa -8 + ^ r6: .cfa -12 + ^ r5: .cfa -16 + ^ r4: .cfa -20 + ^
STACK CFI 21f40 .cfa: r7 8 +
STACK CFI 21f44 r11: .cfa -24 + ^ r9: .cfa -28 + ^ r8: .cfa -32 + ^
STACK CFI INIT 22258 2c8 .cfa: sp 0 +
STACK CFI 2225a .cfa: sp 20 + .ra: .cfa -4 + ^ r7: .cfa -8 + ^ r6: .cfa -12 + ^ r5: .cfa -16 + ^ r4: .cfa -20 + ^
STACK CFI 2225c .cfa: r7 8 +
STACK CFI 22260 r11: .cfa -24 + ^ r10: .cfa -28 + ^ r9: .cfa -32 + ^ r8: .cfa -36 + ^
STACK CFI INIT 22520 38 .cfa: sp 0 +
STACK CFI 22522 .cfa: sp 16 + .ra: .cfa -4 + ^ r7: .cfa -8 + ^ r6: .cfa -12 + ^ r4: .cfa -16 + ^
STACK CFI 22524 .cfa: r7 8 +
STACK CFI INIT 22558 1c4 .cfa: sp 0 +
STACK CFI 2255a .cfa: sp 20 + .ra: .cfa -4 + ^ r7: .cfa -8 + ^ r6: .cfa -12 + ^ r5: .cfa -16 + ^ r4: .cfa -20 + ^
STACK CFI 2255c .cfa: r7 8 +
STACK CFI 22560 r11: .cfa -24 + ^ r10: .cfa -28 + ^ r9: .cfa -32 + ^ r8: .cfa -36 + ^
STACK CFI INIT 2271c 144 .cfa: sp 0 +
STACK CFI 2271e .cfa: sp 20 + .ra: .cfa -4 + ^ r7: .cfa -8 + ^ r6: .cfa -12 + ^ r5: .cfa -16 + ^ r4: .cfa -20 + ^
STACK CFI 22720 .cfa: r7 8 +
STACK CFI 22724 r11: .cfa -24 + ^ r10: .cfa -28 + ^ r9: .cfa -32 + ^ r8: .cfa -36 + ^
STACK CFI INIT 22860 38 .cfa: sp 0 +
STACK CFI 22862 .cfa: sp 16 + .ra: .cfa -4 + ^ r7: .cfa -8 + ^ r6: .cfa -12 + ^ r4: .cfa -16 + ^
STACK CFI 22864 .cfa: r7 8 +
STACK CFI INIT 22898 ec .cfa: sp 0 +
STACK CFI 2289a .cfa: sp 20 + .ra: .cfa -4 + ^ r7: .cfa -8 + ^ r6: .cfa -12 + ^ r5: .cfa -16 + ^ r4: .cfa -20 + ^
STACK CFI 2289c .cfa: r7 8 +
STACK CFI 228a0 r11: .cfa -24 + ^ r10: .cfa -28 + ^ r9: .cfa -32 + ^ r8: .cfa -36 + ^
STACK CFI INIT 22984 246 .cfa: sp 0 +
STACK CFI 22986 .cfa: sp 20 + .ra: .cfa -4 + ^ r7: .cfa -8 + ^ r6: .cfa -12 + ^ r5: .cfa -16 + ^ r4: .cfa -20 + ^
STACK CFI 22988 .cfa: r7 8 +
STACK CFI 2298c r11: .cfa -24 + ^ r10: .cfa -28 + ^ r9: .cfa -32 + ^ r8: .cfa -36 + ^
STACK CFI INIT 22bcc 10c .cfa: sp 0 +
STACK CFI 22bce .cfa: sp 20 + .ra: .cfa -4 + ^ r7: .cfa -8 + ^ r6: .cfa -12 + ^ r5: .cfa -16 + ^ r4: .cfa -20 + ^
STACK CFI 22bd0 .cfa: r7 8 +
STACK CFI 22bd4 r11: .cfa -24 + ^ r10: .cfa -28 + ^ r9: .cfa -32 + ^ r8: .cfa -36 + ^
STACK CFI INIT 22cd8 38 .cfa: sp 0 +
STACK CFI 22cda .cfa: sp 16 + .ra: .cfa -4 + ^ r7: .cfa -8 + ^ r6: .cfa -12 + ^ r4: .cfa -16 + ^
STACK CFI 22cdc .cfa: r7 8 +
STACK CFI INIT 22d10 142 .cfa: sp 0 +
STACK CFI 22d12 .cfa: sp 20 + .ra: .cfa -4 + ^ r7: .cfa -8 + ^ r6: .cfa -12 + ^ r5: .cfa -16 + ^ r4: .cfa -20 + ^
STACK CFI 22d14 .cfa: r7 8 +
STACK CFI 22d18 r11: .cfa -24 + ^ r9: .cfa -28 + ^ r8: .cfa -32 + ^
STACK CFI INIT 22e54 10 .cfa: sp 0 +
STACK CFI 22e56 .cfa: sp 8 + .ra: .cfa -4 + ^ r7: .cfa -8 + ^
STACK CFI 22e58 .cfa: r7 8 +
STACK CFI INIT 22e64 10 .cfa: sp 0 +
STACK CFI 22e66 .cfa: sp 8 + .ra: .cfa -4 + ^ r7: .cfa -8 + ^
STACK CFI 22e68 .cfa: r7 8 +
STACK CFI INIT 22e74 30 .cfa: sp 0 +
STACK CFI 22e8a .cfa: sp 16 + .ra: .cfa -4 + ^ r7: .cfa -8 + ^ r6: .cfa -12 + ^ r4: .cfa -16 + ^
STACK CFI 22e8c .cfa: r7 8 +
STACK CFI INIT 22ea4 28 .cfa: sp 0 +
STACK CFI 22ea6 .cfa: sp 8 + .ra: .cfa -4 + ^ r7: .cfa -8 + ^
STACK CFI 22ea8 .cfa: r7 8 +
STACK CFI INIT 22ecc 30 .cfa: sp 0 +
STACK CFI 22ee2 .cfa: sp 16 + .ra: .cfa -4 + ^ r7: .cfa -8 + ^ r6: .cfa -12 + ^ r4: .cfa -16 + ^
STACK CFI 22ee4 .cfa: r7 8 +
STACK CFI INIT 22efc 2e .cfa: sp 0 +
STACK CFI 22efe .cfa: sp 8 + .ra: .cfa -4 + ^ r7: .cfa -8 + ^
STACK CFI 22f00 .cfa: r7 8 +
STACK CFI INIT 22f2c dc .cfa: sp 0 +
STACK CFI 22f2e .cfa: sp 20 + .ra: .cfa -4 + ^ r7: .cfa -8 + ^ r6: .cfa -12 + ^ r5: .cfa -16 + ^ r4: .cfa -20 + ^
STACK CFI 22f30 .cfa: r7 8 +
STACK CFI 22f34 r11: .cfa -24 + ^ r10: .cfa -28 + ^ r9: .cfa -32 + ^ r8: .cfa -36 + ^
STACK CFI INIT 23008 38 .cfa: sp 0 +
STACK CFI 2300a .cfa: sp 16 + .ra: .cfa -4 + ^ r7: .cfa -8 + ^ r6: .cfa -12 + ^ r4: .cfa -16 + ^
STACK CFI 2300c .cfa: r7 8 +
STACK CFI INIT 23040 38 .cfa: sp 0 +
STACK CFI 23042 .cfa: sp 16 + .ra: .cfa -4 + ^ r7: .cfa -8 + ^ r6: .cfa -12 + ^ r4: .cfa -16 + ^
STACK CFI 23044 .cfa: r7 8 +
STACK CFI INIT 23078 44 .cfa: sp 0 +
STACK CFI 2307a .cfa: sp 16 + .ra: .cfa -4 + ^ r7: .cfa -8 + ^ r6: .cfa -12 + ^ r4: .cfa -16 + ^
STACK CFI 2307c .cfa: r7 8 +
STACK CFI INIT 230bc 106 .cfa: sp 0 +
STACK CFI 230be .cfa: sp 20 + .ra: .cfa -4 + ^ r7: .cfa -8 + ^ r6: .cfa -12 + ^ r5: .cfa -16 + ^ r4: .cfa -20 + ^
STACK CFI 230c0 .cfa: r7 8 +
STACK CFI 230c4 r8: .cfa -24 + ^
STACK CFI INIT 231c2 5c .cfa: sp 0 +
STACK CFI 231dc .cfa: sp 16 + .ra: .cfa -4 + ^ r7: .cfa -8 + ^ r6: .cfa -12 + ^ r4: .cfa -16 + ^
STACK CFI 231de .cfa: r7 8 +
STACK CFI INIT 23220 44 .cfa: sp 0 +
STACK CFI 23222 .cfa: sp 16 + .ra: .cfa -4 + ^ r7: .cfa -8 + ^ r6: .cfa -12 + ^ r4: .cfa -16 + ^
STACK CFI 23224 .cfa: r7 8 +
STACK CFI INIT 23264 4 .cfa: sp 0 +
STACK CFI INIT 23268 10 .cfa: sp 0 +
STACK CFI INIT 23278 40 .cfa: sp 0 +
STACK CFI 2327a .cfa: sp 16 + .ra: .cfa -4 + ^ r7: .cfa -8 + ^ r6: .cfa -12 + ^ r4: .cfa -16 + ^
STACK CFI 2327c .cfa: r7 8 +
STACK CFI INIT 232b8 44 .cfa: sp 0 +
STACK CFI 232ba .cfa: sp 16 + .ra: .cfa -4 + ^ r7: .cfa -8 + ^ r6: .cfa -12 + ^ r4: .cfa -16 + ^
STACK CFI 232bc .cfa: r7 8 +
STACK CFI INIT 232fc c .cfa: sp 0 +
STACK CFI INIT 23308 1a .cfa: sp 0 +
STACK CFI INIT 23322 2 .cfa: sp 0 +
STACK CFI INIT 23324 4 .cfa: sp 0 +
STACK CFI INIT 23328 10 .cfa: sp 0 +
STACK CFI INIT 23338 38 .cfa: sp 0 +
STACK CFI 2333a .cfa: sp 16 + .ra: .cfa -4 + ^ r7: .cfa -8 + ^ r6: .cfa -12 + ^ r4: .cfa -16 + ^
STACK CFI 2333c .cfa: r7 8 +
STACK CFI INIT 23370 14c .cfa: sp 0 +
STACK CFI 23372 .cfa: sp 20 + .ra: .cfa -4 + ^ r7: .cfa -8 + ^ r6: .cfa -12 + ^ r5: .cfa -16 + ^ r4: .cfa -20 + ^
STACK CFI 23374 .cfa: r7 8 +
STACK CFI 23378 r10: .cfa -24 + ^ r9: .cfa -28 + ^ r8: .cfa -32 + ^
STACK CFI INIT 234bc 182 .cfa: sp 0 +
STACK CFI 234be .cfa: sp 20 + .ra: .cfa -4 + ^ r7: .cfa -8 + ^ r6: .cfa -12 + ^ r5: .cfa -16 + ^ r4: .cfa -20 + ^
STACK CFI 234c0 .cfa: r7 8 +
STACK CFI 234c4 r11: .cfa -24 + ^ r9: .cfa -28 + ^ r8: .cfa -32 + ^
STACK CFI INIT 23640 a0 .cfa: sp 0 +
STACK CFI 23642 .cfa: sp 20 + .ra: .cfa -4 + ^ r7: .cfa -8 + ^ r6: .cfa -12 + ^ r5: .cfa -16 + ^ r4: .cfa -20 + ^
STACK CFI 23644 .cfa: r7 8 +
STACK CFI 23648 r8: .cfa -24 + ^
STACK CFI INIT 236e0 70 .cfa: sp 0 +
STACK CFI 236e2 .cfa: sp 16 + .ra: .cfa -4 + ^ r7: .cfa -8 + ^ r6: .cfa -12 + ^ r4: .cfa -16 + ^
STACK CFI 236e4 .cfa: r7 8 +
STACK CFI INIT 23750 2c .cfa: sp 0 +
STACK CFI 23764 .cfa: sp 16 + .ra: .cfa -4 + ^ r7: .cfa -8 + ^ r6: .cfa -12 + ^ r4: .cfa -16 + ^
STACK CFI 23766 .cfa: r7 8 +
STACK CFI INIT 2377c 30 .cfa: sp 0 +
STACK CFI 23792 .cfa: sp 16 + .ra: .cfa -4 + ^ r7: .cfa -8 + ^ r6: .cfa -12 + ^ r4: .cfa -16 + ^
STACK CFI 23794 .cfa: r7 8 +
STACK CFI INIT 237ac 2e .cfa: sp 0 +
STACK CFI INIT 237da 34 .cfa: sp 0 +
STACK CFI 237dc .cfa: sp 8 + .ra: .cfa -4 + ^ r7: .cfa -8 + ^
STACK CFI 237de .cfa: r7 8 +
STACK CFI INIT 23810 18c .cfa: sp 0 +
STACK CFI 23812 .cfa: sp 20 + .ra: .cfa -4 + ^ r7: .cfa -8 + ^ r6: .cfa -12 + ^ r5: .cfa -16 + ^ r4: .cfa -20 + ^
STACK CFI 23814 .cfa: r7 8 +
STACK CFI 23818 r11: .cfa -24 + ^ r10: .cfa -28 + ^ r9: .cfa -32 + ^ r8: .cfa -36 + ^
STACK CFI INIT 2399c 8a .cfa: sp 0 +
STACK CFI 2399e .cfa: sp 16 + .ra: .cfa -4 + ^ r7: .cfa -8 + ^ r6: .cfa -12 + ^ r4: .cfa -16 + ^
STACK CFI 239a0 .cfa: r7 8 +
STACK CFI INIT 23a28 bc .cfa: sp 0 +
STACK CFI 23a2a .cfa: sp 16 + .ra: .cfa -4 + ^ r7: .cfa -8 + ^ r6: .cfa -12 + ^ r4: .cfa -16 + ^
STACK CFI 23a2c .cfa: r7 8 +
STACK CFI INIT 23af0 3a8 .cfa: sp 0 +
STACK CFI 23af2 .cfa: sp 20 + .ra: .cfa -4 + ^ r7: .cfa -8 + ^ r6: .cfa -12 + ^ r5: .cfa -16 + ^ r4: .cfa -20 + ^
STACK CFI 23af4 .cfa: r7 8 +
STACK CFI 23af8 r11: .cfa -24 + ^ r10: .cfa -28 + ^ r9: .cfa -32 + ^ r8: .cfa -36 + ^
STACK CFI INIT 23e98 2 .cfa: sp 0 +
STACK CFI INIT 23e9c 518 .cfa: sp 0 +
STACK CFI 23e9e .cfa: sp 20 + .ra: .cfa -4 + ^ r7: .cfa -8 + ^ r6: .cfa -12 + ^ r5: .cfa -16 + ^ r4: .cfa -20 + ^
STACK CFI 23ea0 .cfa: r7 8 +
STACK CFI 23ea4 r11: .cfa -24 + ^ r10: .cfa -28 + ^ r9: .cfa -32 + ^ r8: .cfa -36 + ^
STACK CFI INIT 243b4 10 .cfa: sp 0 +
STACK CFI 243b6 .cfa: sp 8 + .ra: .cfa -4 + ^ r7: .cfa -8 + ^
STACK CFI 243b8 .cfa: r7 8 +
STACK CFI INIT 243c4 16 .cfa: sp 0 +
STACK CFI 243c6 .cfa: sp 16 + .ra: .cfa -4 + ^ r7: .cfa -8 + ^ r6: .cfa -12 + ^ r4: .cfa -16 + ^
STACK CFI 243c8 .cfa: r7 8 +
STACK CFI INIT 243dc 68 .cfa: sp 0 +
STACK CFI 243de .cfa: sp 20 + .ra: .cfa -4 + ^ r7: .cfa -8 + ^ r6: .cfa -12 + ^ r5: .cfa -16 + ^ r4: .cfa -20 + ^
STACK CFI 243e0 .cfa: r7 8 +
STACK CFI 243e4 r11: .cfa -24 + ^
STACK CFI INIT 24444 a0 .cfa: sp 0 +
STACK CFI 24446 .cfa: sp 20 + .ra: .cfa -4 + ^ r7: .cfa -8 + ^ r6: .cfa -12 + ^ r5: .cfa -16 + ^ r4: .cfa -20 + ^
STACK CFI 24448 .cfa: r7 8 +
STACK CFI 2444c r11: .cfa -24 + ^
STACK CFI INIT 244e4 e8 .cfa: sp 0 +
STACK CFI 244e6 .cfa: sp 20 + .ra: .cfa -4 + ^ r7: .cfa -8 + ^ r6: .cfa -12 + ^ r5: .cfa -16 + ^ r4: .cfa -20 + ^
STACK CFI 244e8 .cfa: r7 8 +
STACK CFI 244ec r11: .cfa -24 + ^ r9: .cfa -28 + ^ r8: .cfa -32 + ^
STACK CFI INIT 245cc 468 .cfa: sp 0 +
STACK CFI 245ce .cfa: sp 20 + .ra: .cfa -4 + ^ r7: .cfa -8 + ^ r6: .cfa -12 + ^ r5: .cfa -16 + ^ r4: .cfa -20 + ^
STACK CFI 245d0 .cfa: r7 8 +
STACK CFI 245d4 r11: .cfa -24 + ^ r10: .cfa -28 + ^ r9: .cfa -32 + ^ r8: .cfa -36 + ^
STACK CFI INIT 24a34 10c .cfa: sp 0 +
STACK CFI 24a36 .cfa: sp 20 + .ra: .cfa -4 + ^ r7: .cfa -8 + ^ r6: .cfa -12 + ^ r5: .cfa -16 + ^ r4: .cfa -20 + ^
STACK CFI 24a38 .cfa: r7 8 +
STACK CFI 24a3c r11: .cfa -24 + ^
STACK CFI INIT 24b40 114 .cfa: sp 0 +
STACK CFI 24b42 .cfa: sp 20 + .ra: .cfa -4 + ^ r7: .cfa -8 + ^ r6: .cfa -12 + ^ r5: .cfa -16 + ^ r4: .cfa -20 + ^
STACK CFI 24b44 .cfa: r7 8 +
STACK CFI 24b48 r8: .cfa -24 + ^
STACK CFI INIT 24c54 bc .cfa: sp 0 +
STACK CFI 24c56 .cfa: sp 20 + .ra: .cfa -4 + ^ r7: .cfa -8 + ^ r6: .cfa -12 + ^ r5: .cfa -16 + ^ r4: .cfa -20 + ^
STACK CFI 24c58 .cfa: r7 8 +
STACK CFI 24c5c r11: .cfa -24 + ^
STACK CFI INIT 24d10 bc .cfa: sp 0 +
STACK CFI 24d12 .cfa: sp 20 + .ra: .cfa -4 + ^ r7: .cfa -8 + ^ r6: .cfa -12 + ^ r5: .cfa -16 + ^ r4: .cfa -20 + ^
STACK CFI 24d14 .cfa: r7 8 +
STACK CFI 24d18 r11: .cfa -24 + ^
STACK CFI INIT 24dcc 16c .cfa: sp 0 +
STACK CFI 24dce .cfa: sp 20 + .ra: .cfa -4 + ^ r7: .cfa -8 + ^ r6: .cfa -12 + ^ r5: .cfa -16 + ^ r4: .cfa -20 + ^
STACK CFI 24dd0 .cfa: r7 8 +
STACK CFI 24dd4 r11: .cfa -24 + ^ r10: .cfa -28 + ^ r9: .cfa -32 + ^ r8: .cfa -36 + ^
STACK CFI INIT 24f38 118 .cfa: sp 0 +
STACK CFI 24f3a .cfa: sp 20 + .ra: .cfa -4 + ^ r7: .cfa -8 + ^ r6: .cfa -12 + ^ r5: .cfa -16 + ^ r4: .cfa -20 + ^
STACK CFI 24f3c .cfa: r7 8 +
STACK CFI 24f40 r11: .cfa -24 + ^ r10: .cfa -28 + ^ r9: .cfa -32 + ^ r8: .cfa -36 + ^
STACK CFI INIT 25050 120 .cfa: sp 0 +
STACK CFI 25052 .cfa: sp 20 + .ra: .cfa -4 + ^ r7: .cfa -8 + ^ r6: .cfa -12 + ^ r5: .cfa -16 + ^ r4: .cfa -20 + ^
STACK CFI 25054 .cfa: r7 8 +
STACK CFI 25058 r11: .cfa -24 + ^ r10: .cfa -28 + ^ r9: .cfa -32 + ^ r8: .cfa -36 + ^
STACK CFI INIT 25170 2c4 .cfa: sp 0 +
STACK CFI 25172 .cfa: sp 20 + .ra: .cfa -4 + ^ r7: .cfa -8 + ^ r6: .cfa -12 + ^ r5: .cfa -16 + ^ r4: .cfa -20 + ^
STACK CFI 25174 .cfa: r7 8 +
STACK CFI 25178 r11: .cfa -24 + ^ r10: .cfa -28 + ^ r9: .cfa -32 + ^ r8: .cfa -36 + ^
STACK CFI INIT 25434 10c .cfa: sp 0 +
STACK CFI 25436 .cfa: sp 20 + .ra: .cfa -4 + ^ r7: .cfa -8 + ^ r6: .cfa -12 + ^ r5: .cfa -16 + ^ r4: .cfa -20 + ^
STACK CFI 25438 .cfa: r7 8 +
STACK CFI 2543c r11: .cfa -24 + ^
STACK CFI INIT 25540 124 .cfa: sp 0 +
STACK CFI 25542 .cfa: sp 20 + .ra: .cfa -4 + ^ r7: .cfa -8 + ^ r6: .cfa -12 + ^ r5: .cfa -16 + ^ r4: .cfa -20 + ^
STACK CFI 25544 .cfa: r7 8 +
STACK CFI 25548 r11: .cfa -24 + ^ r10: .cfa -28 + ^ r9: .cfa -32 + ^ r8: .cfa -36 + ^
STACK CFI INIT 25670 1e4 .cfa: sp 0 +
STACK CFI 25672 .cfa: sp 20 + .ra: .cfa -4 + ^ r7: .cfa -8 + ^ r6: .cfa -12 + ^ r5: .cfa -16 + ^ r4: .cfa -20 + ^
STACK CFI 25674 .cfa: r7 8 +
STACK CFI 25678 r11: .cfa -24 + ^ r10: .cfa -28 + ^ r9: .cfa -32 + ^ r8: .cfa -36 + ^
STACK CFI INIT 25854 fa .cfa: sp 0 +
STACK CFI 25856 .cfa: sp 20 + .ra: .cfa -4 + ^ r7: .cfa -8 + ^ r6: .cfa -12 + ^ r5: .cfa -16 + ^ r4: .cfa -20 + ^
STACK CFI 25858 .cfa: r7 8 +
STACK CFI 2585c r11: .cfa -24 + ^ r10: .cfa -28 + ^ r9: .cfa -32 + ^ r8: .cfa -36 + ^
STACK CFI INIT 25950 1e4 .cfa: sp 0 +
STACK CFI 25952 .cfa: sp 20 + .ra: .cfa -4 + ^ r7: .cfa -8 + ^ r6: .cfa -12 + ^ r5: .cfa -16 + ^ r4: .cfa -20 + ^
STACK CFI 25954 .cfa: r7 8 +
STACK CFI 25958 r11: .cfa -24 + ^ r10: .cfa -28 + ^ r9: .cfa -32 + ^ r8: .cfa -36 + ^
STACK CFI INIT 25b34 118 .cfa: sp 0 +
STACK CFI 25b36 .cfa: sp 16 + .ra: .cfa -4 + ^ r7: .cfa -8 + ^ r5: .cfa -12 + ^ r4: .cfa -16 + ^
STACK CFI 25b38 .cfa: r7 8 +
STACK CFI INIT 25c4c e0 .cfa: sp 0 +
STACK CFI 25c4e .cfa: sp 20 + .ra: .cfa -4 + ^ r7: .cfa -8 + ^ r6: .cfa -12 + ^ r5: .cfa -16 + ^ r4: .cfa -20 + ^
STACK CFI 25c50 .cfa: r7 8 +
STACK CFI 25c54 r8: .cfa -24 + ^
STACK CFI INIT 25d2c dc .cfa: sp 0 +
STACK CFI 25d2e .cfa: sp 20 + .ra: .cfa -4 + ^ r7: .cfa -8 + ^ r6: .cfa -12 + ^ r5: .cfa -16 + ^ r4: .cfa -20 + ^
STACK CFI 25d30 .cfa: r7 8 +
STACK CFI 25d34 r8: .cfa -24 + ^
STACK CFI INIT 25e08 e0 .cfa: sp 0 +
STACK CFI 25e0a .cfa: sp 20 + .ra: .cfa -4 + ^ r7: .cfa -8 + ^ r6: .cfa -12 + ^ r5: .cfa -16 + ^ r4: .cfa -20 + ^
STACK CFI 25e0c .cfa: r7 8 +
STACK CFI 25e10 r8: .cfa -24 + ^
STACK CFI INIT 25ee8 60 .cfa: sp 0 +
STACK CFI 25eea .cfa: sp 8 + .ra: .cfa -4 + ^ r7: .cfa -8 + ^
STACK CFI 25eec .cfa: r7 8 +
STACK CFI INIT 25f48 106 .cfa: sp 0 +
STACK CFI 25f4a .cfa: sp 20 + .ra: .cfa -4 + ^ r7: .cfa -8 + ^ r6: .cfa -12 + ^ r5: .cfa -16 + ^ r4: .cfa -20 + ^
STACK CFI 25f4c .cfa: r7 8 +
STACK CFI 25f50 r11: .cfa -24 + ^ r10: .cfa -28 + ^ r9: .cfa -32 + ^ r8: .cfa -36 + ^
STACK CFI INIT 26050 60 .cfa: sp 0 +
STACK CFI 26052 .cfa: sp 8 + .ra: .cfa -4 + ^ r7: .cfa -8 + ^
STACK CFI 26054 .cfa: r7 8 +
STACK CFI INIT 260b0 c4 .cfa: sp 0 +
STACK CFI 260b2 .cfa: sp 20 + .ra: .cfa -4 + ^ r7: .cfa -8 + ^ r6: .cfa -12 + ^ r5: .cfa -16 + ^ r4: .cfa -20 + ^
STACK CFI 260b4 .cfa: r7 8 +
STACK CFI 260b8 r11: .cfa -24 + ^ r9: .cfa -28 + ^ r8: .cfa -32 + ^
STACK CFI INIT 26174 1a0 .cfa: sp 0 +
STACK CFI 26176 .cfa: sp 20 + .ra: .cfa -4 + ^ r7: .cfa -8 + ^ r6: .cfa -12 + ^ r5: .cfa -16 + ^ r4: .cfa -20 + ^
STACK CFI 26178 .cfa: r7 8 +
STACK CFI 2617c r11: .cfa -24 + ^ r10: .cfa -28 + ^ r9: .cfa -32 + ^ r8: .cfa -36 + ^
STACK CFI INIT 26314 148 .cfa: sp 0 +
STACK CFI 26316 .cfa: sp 20 + .ra: .cfa -4 + ^ r7: .cfa -8 + ^ r6: .cfa -12 + ^ r5: .cfa -16 + ^ r4: .cfa -20 + ^
STACK CFI 26318 .cfa: r7 8 +
STACK CFI 2631c r11: .cfa -24 + ^ r10: .cfa -28 + ^ r9: .cfa -32 + ^ r8: .cfa -36 + ^
STACK CFI INIT 2645c 58c .cfa: sp 0 +
STACK CFI 2645e .cfa: sp 20 + .ra: .cfa -4 + ^ r7: .cfa -8 + ^ r6: .cfa -12 + ^ r5: .cfa -16 + ^ r4: .cfa -20 + ^
STACK CFI 26460 .cfa: r7 8 +
STACK CFI 26464 r11: .cfa -24 + ^ r10: .cfa -28 + ^ r9: .cfa -32 + ^ r8: .cfa -36 + ^
STACK CFI INIT 269e8 450 .cfa: sp 0 +
STACK CFI 269ea .cfa: sp 20 + .ra: .cfa -4 + ^ r7: .cfa -8 + ^ r6: .cfa -12 + ^ r5: .cfa -16 + ^ r4: .cfa -20 + ^
STACK CFI 269ec .cfa: r7 8 +
STACK CFI 269f0 r11: .cfa -24 + ^ r10: .cfa -28 + ^ r9: .cfa -32 + ^ r8: .cfa -36 + ^
STACK CFI INIT 26e38 d4 .cfa: sp 0 +
STACK CFI 26e3a .cfa: sp 20 + .ra: .cfa -4 + ^ r7: .cfa -8 + ^ r6: .cfa -12 + ^ r5: .cfa -16 + ^ r4: .cfa -20 + ^
STACK CFI 26e3c .cfa: r7 8 +
STACK CFI 26e40 r10: .cfa -24 + ^ r9: .cfa -28 + ^ r8: .cfa -32 + ^
STACK CFI INIT 26f0c c0 .cfa: sp 0 +
STACK CFI 26f0e .cfa: sp 16 + .ra: .cfa -4 + ^ r7: .cfa -8 + ^ r5: .cfa -12 + ^ r4: .cfa -16 + ^
STACK CFI 26f10 .cfa: r7 8 +
STACK CFI INIT 26fcc 4a .cfa: sp 0 +
STACK CFI 26fce .cfa: sp 20 + .ra: .cfa -4 + ^ r7: .cfa -8 + ^ r6: .cfa -12 + ^ r5: .cfa -16 + ^ r4: .cfa -20 + ^
STACK CFI 26fd0 .cfa: r7 8 +
STACK CFI 26fd4 r11: .cfa -24 + ^
STACK CFI INIT 27018 36c .cfa: sp 0 +
STACK CFI 2701a .cfa: sp 20 + .ra: .cfa -4 + ^ r7: .cfa -8 + ^ r6: .cfa -12 + ^ r5: .cfa -16 + ^ r4: .cfa -20 + ^
STACK CFI 2701c .cfa: r7 8 +
STACK CFI 27020 r11: .cfa -24 + ^ r10: .cfa -28 + ^ r9: .cfa -32 + ^ r8: .cfa -36 + ^
STACK CFI INIT 27384 120 .cfa: sp 0 +
STACK CFI 27386 .cfa: sp 20 + .ra: .cfa -4 + ^ r7: .cfa -8 + ^ r6: .cfa -12 + ^ r5: .cfa -16 + ^ r4: .cfa -20 + ^
STACK CFI 27388 .cfa: r7 8 +
STACK CFI 2738c r11: .cfa -24 + ^ r10: .cfa -28 + ^ r9: .cfa -32 + ^ r8: .cfa -36 + ^
STACK CFI INIT 274a4 11e .cfa: sp 0 +
STACK CFI 274a6 .cfa: sp 20 + .ra: .cfa -4 + ^ r7: .cfa -8 + ^ r6: .cfa -12 + ^ r5: .cfa -16 + ^ r4: .cfa -20 + ^
STACK CFI 274a8 .cfa: r7 8 +
STACK CFI 274ac r11: .cfa -24 + ^ r10: .cfa -28 + ^ r9: .cfa -32 + ^ r8: .cfa -36 + ^
STACK CFI INIT 275c2 11e .cfa: sp 0 +
STACK CFI 275c4 .cfa: sp 20 + .ra: .cfa -4 + ^ r7: .cfa -8 + ^ r6: .cfa -12 + ^ r5: .cfa -16 + ^ r4: .cfa -20 + ^
STACK CFI 275c6 .cfa: r7 8 +
STACK CFI 275ca r11: .cfa -24 + ^ r10: .cfa -28 + ^ r9: .cfa -32 + ^ r8: .cfa -36 + ^
STACK CFI INIT 276e0 294 .cfa: sp 0 +
STACK CFI 276e2 .cfa: sp 20 + .ra: .cfa -4 + ^ r7: .cfa -8 + ^ r6: .cfa -12 + ^ r5: .cfa -16 + ^ r4: .cfa -20 + ^
STACK CFI 276e4 .cfa: r7 8 +
STACK CFI 276e8 r11: .cfa -24 + ^ r10: .cfa -28 + ^ r9: .cfa -32 + ^ r8: .cfa -36 + ^
STACK CFI INIT 27974 11e .cfa: sp 0 +
STACK CFI 27976 .cfa: sp 20 + .ra: .cfa -4 + ^ r7: .cfa -8 + ^ r6: .cfa -12 + ^ r5: .cfa -16 + ^ r4: .cfa -20 + ^
STACK CFI 27978 .cfa: r7 8 +
STACK CFI 2797c r11: .cfa -24 + ^ r10: .cfa -28 + ^ r9: .cfa -32 + ^ r8: .cfa -36 + ^
STACK CFI INIT 27a92 140 .cfa: sp 0 +
STACK CFI 27a94 .cfa: sp 20 + .ra: .cfa -4 + ^ r7: .cfa -8 + ^ r6: .cfa -12 + ^ r5: .cfa -16 + ^ r4: .cfa -20 + ^
STACK CFI 27a96 .cfa: r7 8 +
STACK CFI 27a9a r11: .cfa -24 + ^ r10: .cfa -28 + ^ r9: .cfa -32 + ^ r8: .cfa -36 + ^
STACK CFI INIT 27bd2 25c .cfa: sp 0 +
STACK CFI 27bd4 .cfa: sp 20 + .ra: .cfa -4 + ^ r7: .cfa -8 + ^ r6: .cfa -12 + ^ r5: .cfa -16 + ^ r4: .cfa -20 + ^
STACK CFI 27bd6 .cfa: r7 8 +
STACK CFI 27bda r11: .cfa -24 + ^ r10: .cfa -28 + ^ r9: .cfa -32 + ^ r8: .cfa -36 + ^
STACK CFI INIT 27e2e 10a .cfa: sp 0 +
STACK CFI 27e30 .cfa: sp 20 + .ra: .cfa -4 + ^ r7: .cfa -8 + ^ r6: .cfa -12 + ^ r5: .cfa -16 + ^ r4: .cfa -20 + ^
STACK CFI 27e32 .cfa: r7 8 +
STACK CFI 27e36 r11: .cfa -24 + ^ r10: .cfa -28 + ^ r9: .cfa -32 + ^ r8: .cfa -36 + ^
STACK CFI INIT 27f38 10 .cfa: sp 0 +
STACK CFI 27f3a .cfa: sp 8 + .ra: .cfa -4 + ^ r7: .cfa -8 + ^
STACK CFI 27f3c .cfa: r7 8 +
STACK CFI INIT 27f48 64 .cfa: sp 0 +
STACK CFI 27f4a .cfa: sp 20 + .ra: .cfa -4 + ^ r7: .cfa -8 + ^ r6: .cfa -12 + ^ r5: .cfa -16 + ^ r4: .cfa -20 + ^
STACK CFI 27f4c .cfa: r7 8 +
STACK CFI 27f50 r11: .cfa -24 + ^
STACK CFI INIT 27fac 2f4 .cfa: sp 0 +
STACK CFI 27fae .cfa: sp 20 + .ra: .cfa -4 + ^ r7: .cfa -8 + ^ r6: .cfa -12 + ^ r5: .cfa -16 + ^ r4: .cfa -20 + ^
STACK CFI 27fb0 .cfa: r7 8 +
STACK CFI 27fb4 r11: .cfa -24 + ^ r10: .cfa -28 + ^ r9: .cfa -32 + ^ r8: .cfa -36 + ^
STACK CFI INIT 282a0 20 .cfa: sp 0 +
STACK CFI 282a2 .cfa: sp 16 + .ra: .cfa -4 + ^ r7: .cfa -8 + ^ r6: .cfa -12 + ^ r4: .cfa -16 + ^
STACK CFI 282a4 .cfa: r7 8 +
STACK CFI INIT 282c0 2d0 .cfa: sp 0 +
STACK CFI 282c2 .cfa: sp 20 + .ra: .cfa -4 + ^ r7: .cfa -8 + ^ r6: .cfa -12 + ^ r5: .cfa -16 + ^ r4: .cfa -20 + ^
STACK CFI 282c4 .cfa: r7 8 +
STACK CFI 282c8 r11: .cfa -24 + ^ r9: .cfa -28 + ^ r8: .cfa -32 + ^
STACK CFI INIT 28590 2 .cfa: sp 0 +
STACK CFI INIT 28594 84 .cfa: sp 0 +
STACK CFI 28596 .cfa: sp 16 + .ra: .cfa -4 + ^ r7: .cfa -8 + ^ r5: .cfa -12 + ^ r4: .cfa -16 + ^
STACK CFI 28598 .cfa: r7 8 +
STACK CFI INIT 28618 80 .cfa: sp 0 +
STACK CFI 2861a .cfa: sp 20 + .ra: .cfa -4 + ^ r7: .cfa -8 + ^ r6: .cfa -12 + ^ r5: .cfa -16 + ^ r4: .cfa -20 + ^
STACK CFI 2861c .cfa: r7 8 +
STACK CFI 28620 r11: .cfa -24 + ^
STACK CFI INIT 28698 60a .cfa: sp 0 +
STACK CFI 2869a .cfa: sp 20 + .ra: .cfa -4 + ^ r7: .cfa -8 + ^ r6: .cfa -12 + ^ r5: .cfa -16 + ^ r4: .cfa -20 + ^
STACK CFI 2869c .cfa: r7 8 +
STACK CFI 286a0 r11: .cfa -24 + ^ r10: .cfa -28 + ^ r9: .cfa -32 + ^ r8: .cfa -36 + ^
STACK CFI INIT 28ca4 3e0 .cfa: sp 0 +
STACK CFI 28ca6 .cfa: sp 20 + .ra: .cfa -4 + ^ r7: .cfa -8 + ^ r6: .cfa -12 + ^ r5: .cfa -16 + ^ r4: .cfa -20 + ^
STACK CFI 28ca8 .cfa: r7 8 +
STACK CFI 28cac r11: .cfa -24 + ^ r10: .cfa -28 + ^ r9: .cfa -32 + ^ r8: .cfa -36 + ^
STACK CFI INIT 29084 3a .cfa: sp 0 +
STACK CFI 29086 .cfa: sp 16 + .ra: .cfa -4 + ^ r7: .cfa -8 + ^ r5: .cfa -12 + ^ r4: .cfa -16 + ^
STACK CFI 29088 .cfa: r7 8 +
STACK CFI INIT 290be 3a .cfa: sp 0 +
STACK CFI 290c0 .cfa: sp 16 + .ra: .cfa -4 + ^ r7: .cfa -8 + ^ r5: .cfa -12 + ^ r4: .cfa -16 + ^
STACK CFI 290c2 .cfa: r7 8 +
STACK CFI INIT 290f8 4c .cfa: sp 0 +
STACK CFI 290fa .cfa: sp 20 + .ra: .cfa -4 + ^ r7: .cfa -8 + ^ r6: .cfa -12 + ^ r5: .cfa -16 + ^ r4: .cfa -20 + ^
STACK CFI 290fc .cfa: r7 8 +
STACK CFI 29100 r11: .cfa -24 + ^
STACK CFI INIT 29144 14 .cfa: sp 0 +
STACK CFI 29146 .cfa: sp 16 + .ra: .cfa -4 + ^ r7: .cfa -8 + ^ r6: .cfa -12 + ^ r4: .cfa -16 + ^
STACK CFI 29148 .cfa: r7 8 +
STACK CFI INIT 29158 4e .cfa: sp 0 +
STACK CFI 2915a .cfa: sp 20 + .ra: .cfa -4 + ^ r7: .cfa -8 + ^ r6: .cfa -12 + ^ r5: .cfa -16 + ^ r4: .cfa -20 + ^
STACK CFI 2915c .cfa: r7 8 +
STACK CFI 29160 r11: .cfa -24 + ^
STACK CFI INIT 291a6 3a .cfa: sp 0 +
STACK CFI 291a8 .cfa: sp 16 + .ra: .cfa -4 + ^ r7: .cfa -8 + ^ r5: .cfa -12 + ^ r4: .cfa -16 + ^
STACK CFI 291aa .cfa: r7 8 +
STACK CFI INIT 291e0 4e .cfa: sp 0 +
STACK CFI 291e2 .cfa: sp 20 + .ra: .cfa -4 + ^ r7: .cfa -8 + ^ r6: .cfa -12 + ^ r5: .cfa -16 + ^ r4: .cfa -20 + ^
STACK CFI 291e4 .cfa: r7 8 +
STACK CFI 291e8 r11: .cfa -24 + ^
STACK CFI INIT 2922e 3a .cfa: sp 0 +
STACK CFI 29230 .cfa: sp 16 + .ra: .cfa -4 + ^ r7: .cfa -8 + ^ r5: .cfa -12 + ^ r4: .cfa -16 + ^
STACK CFI 29232 .cfa: r7 8 +
STACK CFI INIT 29268 9a .cfa: sp 0 +
STACK CFI 2926a .cfa: sp 20 + .ra: .cfa -4 + ^ r7: .cfa -8 + ^ r6: .cfa -12 + ^ r5: .cfa -16 + ^ r4: .cfa -20 + ^
STACK CFI 2926c .cfa: r7 8 +
STACK CFI 29270 r11: .cfa -24 + ^ r9: .cfa -28 + ^ r8: .cfa -32 + ^
STACK CFI INIT 29302 33a .cfa: sp 0 +
STACK CFI 29304 .cfa: sp 20 + .ra: .cfa -4 + ^ r7: .cfa -8 + ^ r6: .cfa -12 + ^ r5: .cfa -16 + ^ r4: .cfa -20 + ^
STACK CFI 29306 .cfa: r7 8 +
STACK CFI 2930a r11: .cfa -24 + ^
STACK CFI INIT 2963c 3a .cfa: sp 0 +
STACK CFI 2963e .cfa: sp 16 + .ra: .cfa -4 + ^ r7: .cfa -8 + ^ r5: .cfa -12 + ^ r4: .cfa -16 + ^
STACK CFI 29640 .cfa: r7 8 +
STACK CFI INIT 29676 14 .cfa: sp 0 +
STACK CFI 29678 .cfa: sp 16 + .ra: .cfa -4 + ^ r7: .cfa -8 + ^ r6: .cfa -12 + ^ r4: .cfa -16 + ^
STACK CFI 2967a .cfa: r7 8 +
STACK CFI INIT 2968a 50 .cfa: sp 0 +
STACK CFI 2968c .cfa: sp 20 + .ra: .cfa -4 + ^ r7: .cfa -8 + ^ r6: .cfa -12 + ^ r5: .cfa -16 + ^ r4: .cfa -20 + ^
STACK CFI 2968e .cfa: r7 8 +
STACK CFI 29692 r11: .cfa -24 + ^
STACK CFI INIT 296da 5c .cfa: sp 0 +
STACK CFI 296dc .cfa: sp 20 + .ra: .cfa -4 + ^ r7: .cfa -8 + ^ r6: .cfa -12 + ^ r5: .cfa -16 + ^ r4: .cfa -20 + ^
STACK CFI 296de .cfa: r7 8 +
STACK CFI 296e2 r11: .cfa -24 + ^
STACK CFI INIT 29736 34 .cfa: sp 0 +
STACK CFI 29738 .cfa: sp 16 + .ra: .cfa -4 + ^ r7: .cfa -8 + ^ r6: .cfa -12 + ^ r4: .cfa -16 + ^
STACK CFI 2973a .cfa: r7 8 +
STACK CFI INIT 2976a 14 .cfa: sp 0 +
STACK CFI 2976c .cfa: sp 16 + .ra: .cfa -4 + ^ r7: .cfa -8 + ^ r6: .cfa -12 + ^ r4: .cfa -16 + ^
STACK CFI 2976e .cfa: r7 8 +
STACK CFI INIT 2977e 14 .cfa: sp 0 +
STACK CFI 29780 .cfa: sp 16 + .ra: .cfa -4 + ^ r7: .cfa -8 + ^ r6: .cfa -12 + ^ r4: .cfa -16 + ^
STACK CFI 29782 .cfa: r7 8 +
STACK CFI INIT 29792 3a .cfa: sp 0 +
STACK CFI 29794 .cfa: sp 16 + .ra: .cfa -4 + ^ r7: .cfa -8 + ^ r5: .cfa -12 + ^ r4: .cfa -16 + ^
STACK CFI 29796 .cfa: r7 8 +
STACK CFI INIT 297cc 3a .cfa: sp 0 +
STACK CFI 297ce .cfa: sp 16 + .ra: .cfa -4 + ^ r7: .cfa -8 + ^ r5: .cfa -12 + ^ r4: .cfa -16 + ^
STACK CFI 297d0 .cfa: r7 8 +
STACK CFI INIT 29806 3a .cfa: sp 0 +
STACK CFI 29808 .cfa: sp 16 + .ra: .cfa -4 + ^ r7: .cfa -8 + ^ r5: .cfa -12 + ^ r4: .cfa -16 + ^
STACK CFI 2980a .cfa: r7 8 +
STACK CFI INIT 29840 3a .cfa: sp 0 +
STACK CFI 29842 .cfa: sp 16 + .ra: .cfa -4 + ^ r7: .cfa -8 + ^ r5: .cfa -12 + ^ r4: .cfa -16 + ^
STACK CFI 29844 .cfa: r7 8 +
STACK CFI INIT 2987c 11c .cfa: sp 0 +
STACK CFI 2987e .cfa: sp 20 + .ra: .cfa -4 + ^ r7: .cfa -8 + ^ r6: .cfa -12 + ^ r5: .cfa -16 + ^ r4: .cfa -20 + ^
STACK CFI 29880 .cfa: r7 8 +
STACK CFI 29884 r11: .cfa -24 + ^ r10: .cfa -28 + ^ r9: .cfa -32 + ^ r8: .cfa -36 + ^
STACK CFI INIT 29998 19e .cfa: sp 0 +
STACK CFI 2999a .cfa: sp 20 + .ra: .cfa -4 + ^ r7: .cfa -8 + ^ r6: .cfa -12 + ^ r5: .cfa -16 + ^ r4: .cfa -20 + ^
STACK CFI 2999c .cfa: r7 8 +
STACK CFI 299a0 r11: .cfa -24 + ^ r10: .cfa -28 + ^ r9: .cfa -32 + ^ r8: .cfa -36 + ^
STACK CFI INIT 29b36 40 .cfa: sp 0 +
STACK CFI 29b38 .cfa: sp 20 + .ra: .cfa -4 + ^ r7: .cfa -8 + ^ r6: .cfa -12 + ^ r5: .cfa -16 + ^ r4: .cfa -20 + ^
STACK CFI 29b3a .cfa: r7 8 +
STACK CFI 29b3e r11: .cfa -24 + ^
STACK CFI INIT 29b76 40 .cfa: sp 0 +
STACK CFI 29b78 .cfa: sp 20 + .ra: .cfa -4 + ^ r7: .cfa -8 + ^ r6: .cfa -12 + ^ r5: .cfa -16 + ^ r4: .cfa -20 + ^
STACK CFI 29b7a .cfa: r7 8 +
STACK CFI 29b7e r11: .cfa -24 + ^
STACK CFI INIT 29bb6 110 .cfa: sp 0 +
STACK CFI 29bb8 .cfa: sp 20 + .ra: .cfa -4 + ^ r7: .cfa -8 + ^ r6: .cfa -12 + ^ r5: .cfa -16 + ^ r4: .cfa -20 + ^
STACK CFI 29bba .cfa: r7 8 +
STACK CFI 29bbe r10: .cfa -24 + ^ r9: .cfa -28 + ^ r8: .cfa -32 + ^
STACK CFI INIT 29cc6 17c .cfa: sp 0 +
STACK CFI 29cc8 .cfa: sp 20 + .ra: .cfa -4 + ^ r7: .cfa -8 + ^ r6: .cfa -12 + ^ r5: .cfa -16 + ^ r4: .cfa -20 + ^
STACK CFI 29cca .cfa: r7 8 +
STACK CFI 29cce r11: .cfa -24 + ^
STACK CFI INIT 29e42 134 .cfa: sp 0 +
STACK CFI 29e44 .cfa: sp 20 + .ra: .cfa -4 + ^ r7: .cfa -8 + ^ r6: .cfa -12 + ^ r5: .cfa -16 + ^ r4: .cfa -20 + ^
STACK CFI 29e46 .cfa: r7 8 +
STACK CFI 29e4a r10: .cfa -24 + ^ r9: .cfa -28 + ^ r8: .cfa -32 + ^
STACK CFI INIT 29f76 40 .cfa: sp 0 +
STACK CFI 29f78 .cfa: sp 20 + .ra: .cfa -4 + ^ r7: .cfa -8 + ^ r6: .cfa -12 + ^ r5: .cfa -16 + ^ r4: .cfa -20 + ^
STACK CFI 29f7a .cfa: r7 8 +
STACK CFI 29f7e r11: .cfa -24 + ^
STACK CFI INIT 29fb6 5c .cfa: sp 0 +
STACK CFI 29fbe .cfa: sp 20 + .ra: .cfa -4 + ^ r7: .cfa -8 + ^ r6: .cfa -12 + ^ r5: .cfa -16 + ^ r4: .cfa -20 + ^
STACK CFI 29fc0 .cfa: r7 8 +
STACK CFI 29fc4 r11: .cfa -24 + ^
STACK CFI INIT 2a012 2c .cfa: sp 0 +
STACK CFI 2a01a .cfa: sp 16 + .ra: .cfa -4 + ^ r7: .cfa -8 + ^ r5: .cfa -12 + ^ r4: .cfa -16 + ^
STACK CFI 2a01c .cfa: r7 8 +
STACK CFI INIT 2a03e 2c .cfa: sp 0 +
STACK CFI 2a046 .cfa: sp 16 + .ra: .cfa -4 + ^ r7: .cfa -8 + ^ r5: .cfa -12 + ^ r4: .cfa -16 + ^
STACK CFI 2a048 .cfa: r7 8 +
STACK CFI INIT 2a06a 64 .cfa: sp 0 +
STACK CFI 2a06c .cfa: sp 20 + .ra: .cfa -4 + ^ r7: .cfa -8 + ^ r6: .cfa -12 + ^ r5: .cfa -16 + ^ r4: .cfa -20 + ^
STACK CFI 2a06e .cfa: r7 8 +
STACK CFI 2a072 r11: .cfa -24 + ^ r9: .cfa -28 + ^ r8: .cfa -32 + ^
STACK CFI INIT 2a0ce 2c .cfa: sp 0 +
STACK CFI 2a0d6 .cfa: sp 16 + .ra: .cfa -4 + ^ r7: .cfa -8 + ^ r5: .cfa -12 + ^ r4: .cfa -16 + ^
STACK CFI 2a0d8 .cfa: r7 8 +
STACK CFI INIT 2a0fa 6e .cfa: sp 0 +
STACK CFI 2a102 .cfa: sp 20 + .ra: .cfa -4 + ^ r7: .cfa -8 + ^ r6: .cfa -12 + ^ r5: .cfa -16 + ^ r4: .cfa -20 + ^
STACK CFI 2a104 .cfa: r7 8 +
STACK CFI 2a108 r8: .cfa -24 + ^
STACK CFI INIT 2a168 2c .cfa: sp 0 +
STACK CFI 2a170 .cfa: sp 16 + .ra: .cfa -4 + ^ r7: .cfa -8 + ^ r5: .cfa -12 + ^ r4: .cfa -16 + ^
STACK CFI 2a172 .cfa: r7 8 +
STACK CFI INIT 2a194 2f4 .cfa: sp 0 +
STACK CFI 2a196 .cfa: sp 20 + .ra: .cfa -4 + ^ r7: .cfa -8 + ^ r6: .cfa -12 + ^ r5: .cfa -16 + ^ r4: .cfa -20 + ^
STACK CFI 2a198 .cfa: r7 8 +
STACK CFI 2a19c r11: .cfa -24 + ^ r10: .cfa -28 + ^ r9: .cfa -32 + ^ r8: .cfa -36 + ^
STACK CFI INIT 2a488 20 .cfa: sp 0 +
STACK CFI 2a48a .cfa: sp 16 + .ra: .cfa -4 + ^ r7: .cfa -8 + ^ r6: .cfa -12 + ^ r4: .cfa -16 + ^
STACK CFI 2a48c .cfa: r7 8 +
STACK CFI INIT 2a4b0 584 .cfa: sp 0 +
STACK CFI 2a4b2 .cfa: sp 20 + .ra: .cfa -4 + ^ r7: .cfa -8 + ^ r6: .cfa -12 + ^ r5: .cfa -16 + ^ r4: .cfa -20 + ^
STACK CFI 2a4b4 .cfa: r7 8 +
STACK CFI 2a4b8 r10: .cfa -24 + ^ r9: .cfa -28 + ^ r8: .cfa -32 + ^
STACK CFI INIT 2aa34 2 .cfa: sp 0 +
STACK CFI INIT 2aa38 84 .cfa: sp 0 +
STACK CFI 2aa3a .cfa: sp 16 + .ra: .cfa -4 + ^ r7: .cfa -8 + ^ r5: .cfa -12 + ^ r4: .cfa -16 + ^
STACK CFI 2aa3c .cfa: r7 8 +
STACK CFI INIT 2aabc 130 .cfa: sp 0 +
STACK CFI 2aabe .cfa: sp 20 + .ra: .cfa -4 + ^ r7: .cfa -8 + ^ r6: .cfa -12 + ^ r5: .cfa -16 + ^ r4: .cfa -20 + ^
STACK CFI 2aac0 .cfa: r7 8 +
STACK CFI 2aac4 r11: .cfa -24 + ^ r10: .cfa -28 + ^ r9: .cfa -32 + ^ r8: .cfa -36 + ^
STACK CFI INIT 2abec 6c .cfa: sp 0 +
STACK CFI 2abee .cfa: sp 16 + .ra: .cfa -4 + ^ r7: .cfa -8 + ^ r5: .cfa -12 + ^ r4: .cfa -16 + ^
STACK CFI 2abf0 .cfa: r7 8 +
STACK CFI INIT 2ac58 214 .cfa: sp 0 +
STACK CFI 2ac5a .cfa: sp 20 + .ra: .cfa -4 + ^ r7: .cfa -8 + ^ r6: .cfa -12 + ^ r5: .cfa -16 + ^ r4: .cfa -20 + ^
STACK CFI 2ac5c .cfa: r7 8 +
STACK CFI 2ac60 r11: .cfa -24 + ^ r10: .cfa -28 + ^ r9: .cfa -32 + ^ r8: .cfa -36 + ^
STACK CFI INIT 2ae6c 14 .cfa: sp 0 +
STACK CFI 2ae6e .cfa: sp 16 + .ra: .cfa -4 + ^ r7: .cfa -8 + ^ r6: .cfa -12 + ^ r4: .cfa -16 + ^
STACK CFI 2ae70 .cfa: r7 8 +
STACK CFI INIT 2ae80 14 .cfa: sp 0 +
STACK CFI 2ae82 .cfa: sp 16 + .ra: .cfa -4 + ^ r7: .cfa -8 + ^ r6: .cfa -12 + ^ r4: .cfa -16 + ^
STACK CFI 2ae84 .cfa: r7 8 +
STACK CFI INIT 2ae94 14 .cfa: sp 0 +
STACK CFI 2ae96 .cfa: sp 16 + .ra: .cfa -4 + ^ r7: .cfa -8 + ^ r6: .cfa -12 + ^ r4: .cfa -16 + ^
STACK CFI 2ae98 .cfa: r7 8 +
STACK CFI INIT 2aea8 14 .cfa: sp 0 +
STACK CFI 2aeaa .cfa: sp 16 + .ra: .cfa -4 + ^ r7: .cfa -8 + ^ r6: .cfa -12 + ^ r4: .cfa -16 + ^
STACK CFI 2aeac .cfa: r7 8 +
STACK CFI INIT 2aebc 106 .cfa: sp 0 +
STACK CFI 2aebe .cfa: sp 20 + .ra: .cfa -4 + ^ r7: .cfa -8 + ^ r6: .cfa -12 + ^ r5: .cfa -16 + ^ r4: .cfa -20 + ^
STACK CFI 2aec0 .cfa: r7 8 +
STACK CFI 2aec4 r11: .cfa -24 + ^ r10: .cfa -28 + ^ r9: .cfa -32 + ^ r8: .cfa -36 + ^
STACK CFI INIT 2afc2 28 .cfa: sp 0 +
STACK CFI 2afca .cfa: sp 16 + .ra: .cfa -4 + ^ r7: .cfa -8 + ^ r5: .cfa -12 + ^ r4: .cfa -16 + ^
STACK CFI 2afcc .cfa: r7 8 +
STACK CFI INIT 2afec cc .cfa: sp 0 +
STACK CFI 2afee .cfa: sp 20 + .ra: .cfa -4 + ^ r7: .cfa -8 + ^ r6: .cfa -12 + ^ r5: .cfa -16 + ^ r4: .cfa -20 + ^
STACK CFI 2aff0 .cfa: r7 8 +
STACK CFI 2aff4 r10: .cfa -24 + ^ r9: .cfa -28 + ^ r8: .cfa -32 + ^
STACK CFI INIT 2b0b8 12a .cfa: sp 0 +
STACK CFI 2b0ba .cfa: sp 20 + .ra: .cfa -4 + ^ r7: .cfa -8 + ^ r6: .cfa -12 + ^ r5: .cfa -16 + ^ r4: .cfa -20 + ^
STACK CFI 2b0bc .cfa: r7 8 +
STACK CFI 2b0c0 r11: .cfa -24 + ^ r10: .cfa -28 + ^ r9: .cfa -32 + ^ r8: .cfa -36 + ^
STACK CFI INIT 2b1e2 16 .cfa: sp 0 +
STACK CFI 2b1e4 .cfa: sp 16 + .ra: .cfa -4 + ^ r7: .cfa -8 + ^ r6: .cfa -12 + ^ r4: .cfa -16 + ^
STACK CFI 2b1e6 .cfa: r7 8 +
STACK CFI INIT 2b1f8 16 .cfa: sp 0 +
STACK CFI 2b1fa .cfa: sp 16 + .ra: .cfa -4 + ^ r7: .cfa -8 + ^ r6: .cfa -12 + ^ r4: .cfa -16 + ^
STACK CFI 2b1fc .cfa: r7 8 +
STACK CFI INIT 2b210 a4 .cfa: sp 0 +
STACK CFI 2b212 .cfa: sp 20 + .ra: .cfa -4 + ^ r7: .cfa -8 + ^ r6: .cfa -12 + ^ r5: .cfa -16 + ^ r4: .cfa -20 + ^
STACK CFI 2b214 .cfa: r7 8 +
STACK CFI 2b218 r8: .cfa -24 + ^
STACK CFI INIT 2b2b4 e8 .cfa: sp 0 +
STACK CFI 2b2b6 .cfa: sp 20 + .ra: .cfa -4 + ^ r7: .cfa -8 + ^ r6: .cfa -12 + ^ r5: .cfa -16 + ^ r4: .cfa -20 + ^
STACK CFI 2b2b8 .cfa: r7 8 +
STACK CFI 2b2bc r11: .cfa -24 + ^ r10: .cfa -28 + ^ r9: .cfa -32 + ^ r8: .cfa -36 + ^
STACK CFI INIT 2b39c 32 .cfa: sp 0 +
STACK CFI 2b39e .cfa: sp 16 + .ra: .cfa -4 + ^ r7: .cfa -8 + ^ r5: .cfa -12 + ^ r4: .cfa -16 + ^
STACK CFI 2b3a0 .cfa: r7 8 +
STACK CFI INIT 2b3d0 12c .cfa: sp 0 +
STACK CFI 2b3d2 .cfa: sp 20 + .ra: .cfa -4 + ^ r7: .cfa -8 + ^ r6: .cfa -12 + ^ r5: .cfa -16 + ^ r4: .cfa -20 + ^
STACK CFI 2b3d4 .cfa: r7 8 +
STACK CFI 2b3d8 r11: .cfa -24 + ^ r10: .cfa -28 + ^ r9: .cfa -32 + ^ r8: .cfa -36 + ^
STACK CFI INIT 2b4fc 8e .cfa: sp 0 +
STACK CFI 2b4fe .cfa: sp 20 + .ra: .cfa -4 + ^ r7: .cfa -8 + ^ r6: .cfa -12 + ^ r5: .cfa -16 + ^ r4: .cfa -20 + ^
STACK CFI 2b500 .cfa: r7 8 +
STACK CFI 2b504 r11: .cfa -24 + ^
STACK CFI INIT 2b58a a8 .cfa: sp 0 +
STACK CFI 2b58c .cfa: sp 20 + .ra: .cfa -4 + ^ r7: .cfa -8 + ^ r6: .cfa -12 + ^ r5: .cfa -16 + ^ r4: .cfa -20 + ^
STACK CFI 2b58e .cfa: r7 8 +
STACK CFI 2b592 r11: .cfa -24 + ^ r10: .cfa -28 + ^ r9: .cfa -32 + ^ r8: .cfa -36 + ^
STACK CFI INIT 2b632 30 .cfa: sp 0 +
STACK CFI 2b63a .cfa: sp 16 + .ra: .cfa -4 + ^ r7: .cfa -8 + ^ r5: .cfa -12 + ^ r4: .cfa -16 + ^
STACK CFI 2b63c .cfa: r7 8 +
STACK CFI INIT 2b662 36 .cfa: sp 0 +
STACK CFI 2b66a .cfa: sp 16 + .ra: .cfa -4 + ^ r7: .cfa -8 + ^ r5: .cfa -12 + ^ r4: .cfa -16 + ^
STACK CFI 2b66c .cfa: r7 8 +
STACK CFI INIT 2b698 2c .cfa: sp 0 +
STACK CFI 2b6a0 .cfa: sp 16 + .ra: .cfa -4 + ^ r7: .cfa -8 + ^ r5: .cfa -12 + ^ r4: .cfa -16 + ^
STACK CFI 2b6a2 .cfa: r7 8 +
STACK CFI INIT 2b6c4 32 .cfa: sp 0 +
STACK CFI 2b6c6 .cfa: sp 16 + .ra: .cfa -4 + ^ r7: .cfa -8 + ^ r5: .cfa -12 + ^ r4: .cfa -16 + ^
STACK CFI 2b6c8 .cfa: r7 8 +
STACK CFI INIT 2b6f6 2c .cfa: sp 0 +
STACK CFI 2b6fe .cfa: sp 16 + .ra: .cfa -4 + ^ r7: .cfa -8 + ^ r5: .cfa -12 + ^ r4: .cfa -16 + ^
STACK CFI 2b700 .cfa: r7 8 +
STACK CFI INIT 2b724 cc .cfa: sp 0 +
STACK CFI 2b726 .cfa: sp 20 + .ra: .cfa -4 + ^ r7: .cfa -8 + ^ r6: .cfa -12 + ^ r5: .cfa -16 + ^ r4: .cfa -20 + ^
STACK CFI 2b728 .cfa: r7 8 +
STACK CFI 2b72c r11: .cfa -24 + ^ r9: .cfa -28 + ^ r8: .cfa -32 + ^
STACK CFI INIT 2b7f0 19c .cfa: sp 0 +
STACK CFI 2b7f2 .cfa: sp 20 + .ra: .cfa -4 + ^ r7: .cfa -8 + ^ r6: .cfa -12 + ^ r5: .cfa -16 + ^ r4: .cfa -20 + ^
STACK CFI 2b7f4 .cfa: r7 8 +
STACK CFI 2b7f8 r11: .cfa -24 + ^
STACK CFI INIT 2b98c 2 .cfa: sp 0 +
STACK CFI INIT 2b990 15c .cfa: sp 0 +
STACK CFI 2b992 .cfa: sp 20 + .ra: .cfa -4 + ^ r7: .cfa -8 + ^ r6: .cfa -12 + ^ r5: .cfa -16 + ^ r4: .cfa -20 + ^
STACK CFI 2b994 .cfa: r7 8 +
STACK CFI 2b998 r8: .cfa -24 + ^
STACK CFI INIT 2baec 60 .cfa: sp 0 +
STACK CFI 2baee .cfa: sp 16 + .ra: .cfa -4 + ^ r7: .cfa -8 + ^ r6: .cfa -12 + ^ r4: .cfa -16 + ^
STACK CFI 2baf0 .cfa: r7 8 +
STACK CFI INIT 2bb4c 60 .cfa: sp 0 +
STACK CFI 2bb4e .cfa: sp 16 + .ra: .cfa -4 + ^ r7: .cfa -8 + ^ r6: .cfa -12 + ^ r4: .cfa -16 + ^
STACK CFI 2bb50 .cfa: r7 8 +
STACK CFI INIT 2bbac 2 .cfa: sp 0 +
STACK CFI INIT 2bbae e .cfa: sp 0 +
STACK CFI INIT 2bbbc e .cfa: sp 0 +
STACK CFI INIT 2bbca e .cfa: sp 0 +
STACK CFI INIT 2bbd8 2f4 .cfa: sp 0 +
STACK CFI 2bbda .cfa: sp 20 + .ra: .cfa -4 + ^ r7: .cfa -8 + ^ r6: .cfa -12 + ^ r5: .cfa -16 + ^ r4: .cfa -20 + ^
STACK CFI 2bbdc .cfa: r7 8 +
STACK CFI 2bbe0 r11: .cfa -24 + ^ r10: .cfa -28 + ^ r9: .cfa -32 + ^ r8: .cfa -36 + ^
STACK CFI INIT 2becc 20 .cfa: sp 0 +
STACK CFI 2bece .cfa: sp 16 + .ra: .cfa -4 + ^ r7: .cfa -8 + ^ r6: .cfa -12 + ^ r4: .cfa -16 + ^
STACK CFI 2bed0 .cfa: r7 8 +
STACK CFI INIT 2beec 2c8 .cfa: sp 0 +
STACK CFI 2beee .cfa: sp 20 + .ra: .cfa -4 + ^ r7: .cfa -8 + ^ r6: .cfa -12 + ^ r5: .cfa -16 + ^ r4: .cfa -20 + ^
STACK CFI 2bef0 .cfa: r7 8 +
STACK CFI 2bef4 r8: .cfa -24 + ^
STACK CFI INIT 2c1b4 2 .cfa: sp 0 +
STACK CFI INIT 2c1b8 7c .cfa: sp 0 +
STACK CFI 2c1ba .cfa: sp 16 + .ra: .cfa -4 + ^ r7: .cfa -8 + ^ r6: .cfa -12 + ^ r4: .cfa -16 + ^
STACK CFI 2c1bc .cfa: r7 8 +
STACK CFI INIT 2c234 9fc .cfa: sp 0 +
STACK CFI 2c236 .cfa: sp 20 + .ra: .cfa -4 + ^ r7: .cfa -8 + ^ r6: .cfa -12 + ^ r5: .cfa -16 + ^ r4: .cfa -20 + ^
STACK CFI 2c238 .cfa: r7 8 +
STACK CFI 2c23c r11: .cfa -24 + ^ r10: .cfa -28 + ^ r9: .cfa -32 + ^ r8: .cfa -36 + ^
STACK CFI INIT 2cc30 6c .cfa: sp 0 +
STACK CFI 2cc32 .cfa: sp 16 + .ra: .cfa -4 + ^ r7: .cfa -8 + ^ r6: .cfa -12 + ^ r4: .cfa -16 + ^
STACK CFI 2cc34 .cfa: r7 8 +
STACK CFI INIT 2cc9c f8 .cfa: sp 0 +
STACK CFI 2cc9e .cfa: sp 20 + .ra: .cfa -4 + ^ r7: .cfa -8 + ^ r6: .cfa -12 + ^ r5: .cfa -16 + ^ r4: .cfa -20 + ^
STACK CFI 2cca0 .cfa: r7 8 +
STACK CFI 2cca4 r11: .cfa -24 + ^
STACK CFI INIT 2cd94 fc .cfa: sp 0 +
STACK CFI 2cd96 .cfa: sp 16 + .ra: .cfa -4 + ^ r7: .cfa -8 + ^ r5: .cfa -12 + ^ r4: .cfa -16 + ^
STACK CFI 2cd98 .cfa: r7 8 +
STACK CFI INIT 2ce90 2e0 .cfa: sp 0 +
STACK CFI 2ce92 .cfa: sp 20 + .ra: .cfa -4 + ^ r7: .cfa -8 + ^ r6: .cfa -12 + ^ r5: .cfa -16 + ^ r4: .cfa -20 + ^
STACK CFI 2ce94 .cfa: r7 8 +
STACK CFI 2ce98 r11: .cfa -24 + ^ r9: .cfa -28 + ^ r8: .cfa -32 + ^
STACK CFI INIT 2d170 30 .cfa: sp 0 +
STACK CFI 2d172 .cfa: sp 16 + .ra: .cfa -4 + ^ r7: .cfa -8 + ^ r6: .cfa -12 + ^ r4: .cfa -16 + ^
STACK CFI 2d174 .cfa: r7 8 +
STACK CFI INIT 2d1a0 ac .cfa: sp 0 +
STACK CFI 2d1a2 .cfa: sp 16 + .ra: .cfa -4 + ^ r7: .cfa -8 + ^ r5: .cfa -12 + ^ r4: .cfa -16 + ^
STACK CFI 2d1a4 .cfa: r7 8 +
STACK CFI INIT 2d24c 24 .cfa: sp 0 +
STACK CFI 2d24e .cfa: sp 8 + .ra: .cfa -4 + ^ r7: .cfa -8 + ^
STACK CFI 2d250 .cfa: r7 8 +
STACK CFI INIT 2d270 1e0 .cfa: sp 0 +
STACK CFI 2d272 .cfa: sp 20 + .ra: .cfa -4 + ^ r7: .cfa -8 + ^ r6: .cfa -12 + ^ r5: .cfa -16 + ^ r4: .cfa -20 + ^
STACK CFI 2d274 .cfa: r7 8 +
STACK CFI 2d278 r11: .cfa -24 + ^ r10: .cfa -28 + ^ r9: .cfa -32 + ^ r8: .cfa -36 + ^
STACK CFI INIT 2d450 9c .cfa: sp 0 +
STACK CFI 2d452 .cfa: sp 16 + .ra: .cfa -4 + ^ r7: .cfa -8 + ^ r5: .cfa -12 + ^ r4: .cfa -16 + ^
STACK CFI 2d454 .cfa: r7 8 +
STACK CFI INIT 2d4ec cc .cfa: sp 0 +
STACK CFI 2d4ee .cfa: sp 16 + .ra: .cfa -4 + ^ r7: .cfa -8 + ^ r6: .cfa -12 + ^ r4: .cfa -16 + ^
STACK CFI 2d4f0 .cfa: r7 8 +
STACK CFI INIT 2d5b8 fc .cfa: sp 0 +
STACK CFI 2d5ba .cfa: sp 20 + .ra: .cfa -4 + ^ r7: .cfa -8 + ^ r6: .cfa -12 + ^ r5: .cfa -16 + ^ r4: .cfa -20 + ^
STACK CFI 2d5bc .cfa: r7 8 +
STACK CFI 2d5c0 r11: .cfa -24 + ^
STACK CFI INIT 2d6b4 bac .cfa: sp 0 +
STACK CFI 2d6b6 .cfa: sp 20 + .ra: .cfa -4 + ^ r7: .cfa -8 + ^ r6: .cfa -12 + ^ r5: .cfa -16 + ^ r4: .cfa -20 + ^
STACK CFI 2d6b8 .cfa: r7 8 +
STACK CFI 2d6bc r11: .cfa -24 + ^ r10: .cfa -28 + ^ r9: .cfa -32 + ^ r8: .cfa -36 + ^
STACK CFI INIT 2e260 84 .cfa: sp 0 +
STACK CFI 2e262 .cfa: sp 20 + .ra: .cfa -4 + ^ r7: .cfa -8 + ^ r6: .cfa -12 + ^ r5: .cfa -16 + ^ r4: .cfa -20 + ^
STACK CFI 2e264 .cfa: r7 8 +
STACK CFI 2e268 r11: .cfa -24 + ^
STACK CFI INIT 2e2e4 70 .cfa: sp 0 +
STACK CFI 2e2e6 .cfa: sp 20 + .ra: .cfa -4 + ^ r7: .cfa -8 + ^ r6: .cfa -12 + ^ r5: .cfa -16 + ^ r4: .cfa -20 + ^
STACK CFI 2e2e8 .cfa: r7 8 +
STACK CFI 2e2ec r8: .cfa -24 + ^
STACK CFI INIT 2e354 38 .cfa: sp 0 +
STACK CFI 2e356 .cfa: sp 16 + .ra: .cfa -4 + ^ r7: .cfa -8 + ^ r5: .cfa -12 + ^ r4: .cfa -16 + ^
STACK CFI 2e358 .cfa: r7 8 +
STACK CFI INIT 2e38c 2 .cfa: sp 0 +
STACK CFI INIT 2e38e 4 .cfa: sp 0 +
STACK CFI INIT 2e394 20 .cfa: sp 0 +
STACK CFI 2e396 .cfa: sp 16 + .ra: .cfa -4 + ^ r7: .cfa -8 + ^ r6: .cfa -12 + ^ r4: .cfa -16 + ^
STACK CFI 2e398 .cfa: r7 8 +
STACK CFI INIT 2e3b4 14 .cfa: sp 0 +
STACK CFI INIT 2e3c8 2 .cfa: sp 0 +
STACK CFI INIT 2e3ca 4 .cfa: sp 0 +
STACK CFI INIT 2e3d0 34 .cfa: sp 0 +
STACK CFI 2e3da .cfa: sp 16 + .ra: .cfa -4 + ^ r7: .cfa -8 + ^ r6: .cfa -12 + ^ r4: .cfa -16 + ^
STACK CFI 2e3dc .cfa: r7 8 +
STACK CFI INIT 2e404 18 .cfa: sp 0 +
STACK CFI INIT 2e41c c .cfa: sp 0 +
STACK CFI INIT 2e428 944 .cfa: sp 0 +
STACK CFI 2e42a .cfa: sp 20 + .ra: .cfa -4 + ^ r7: .cfa -8 + ^ r6: .cfa -12 + ^ r5: .cfa -16 + ^ r4: .cfa -20 + ^
STACK CFI 2e42c .cfa: r7 8 +
STACK CFI 2e430 r11: .cfa -24 + ^ r10: .cfa -28 + ^ r9: .cfa -32 + ^ r8: .cfa -36 + ^
STACK CFI INIT 2ed6c 5a8 .cfa: sp 0 +
STACK CFI 2ed6e .cfa: sp 20 + .ra: .cfa -4 + ^ r7: .cfa -8 + ^ r6: .cfa -12 + ^ r5: .cfa -16 + ^ r4: .cfa -20 + ^
STACK CFI 2ed70 .cfa: r7 8 +
STACK CFI 2ed74 r11: .cfa -24 + ^ r9: .cfa -28 + ^ r8: .cfa -32 + ^
STACK CFI INIT 2f314 560 .cfa: sp 0 +
STACK CFI 2f316 .cfa: sp 20 + .ra: .cfa -4 + ^ r7: .cfa -8 + ^ r6: .cfa -12 + ^ r5: .cfa -16 + ^ r4: .cfa -20 + ^
STACK CFI 2f318 .cfa: r7 8 +
STACK CFI 2f31c r11: .cfa -24 + ^ r9: .cfa -28 + ^ r8: .cfa -32 + ^
STACK CFI INIT 2f874 2f4 .cfa: sp 0 +
STACK CFI 2f876 .cfa: sp 20 + .ra: .cfa -4 + ^ r7: .cfa -8 + ^ r6: .cfa -12 + ^ r5: .cfa -16 + ^ r4: .cfa -20 + ^
STACK CFI 2f878 .cfa: r7 8 +
STACK CFI 2f87c r11: .cfa -24 + ^ r10: .cfa -28 + ^ r9: .cfa -32 + ^ r8: .cfa -36 + ^
STACK CFI INIT 2fb68 20 .cfa: sp 0 +
STACK CFI 2fb6a .cfa: sp 16 + .ra: .cfa -4 + ^ r7: .cfa -8 + ^ r6: .cfa -12 + ^ r4: .cfa -16 + ^
STACK CFI 2fb6c .cfa: r7 8 +
STACK CFI INIT 2fb88 2c8 .cfa: sp 0 +
STACK CFI 2fb8a .cfa: sp 20 + .ra: .cfa -4 + ^ r7: .cfa -8 + ^ r6: .cfa -12 + ^ r5: .cfa -16 + ^ r4: .cfa -20 + ^
STACK CFI 2fb8c .cfa: r7 8 +
STACK CFI 2fb90 r8: .cfa -24 + ^
STACK CFI INIT 2fe50 2 .cfa: sp 0 +
STACK CFI INIT 2fe54 2bc .cfa: sp 0 +
STACK CFI 2fe56 .cfa: sp 20 + .ra: .cfa -4 + ^ r7: .cfa -8 + ^ r6: .cfa -12 + ^ r5: .cfa -16 + ^ r4: .cfa -20 + ^
STACK CFI 2fe58 .cfa: r7 8 +
STACK CFI 2fe5c r11: .cfa -24 + ^ r9: .cfa -28 + ^ r8: .cfa -32 + ^
STACK CFI INIT 30110 2 .cfa: sp 0 +
STACK CFI INIT 30114 bc .cfa: sp 0 +
STACK CFI 30116 .cfa: sp 20 + .ra: .cfa -4 + ^ r7: .cfa -8 + ^ r6: .cfa -12 + ^ r5: .cfa -16 + ^ r4: .cfa -20 + ^
STACK CFI 30118 .cfa: r7 8 +
STACK CFI 3011c r8: .cfa -24 + ^
STACK CFI INIT 301d0 e8 .cfa: sp 0 +
STACK CFI 301d2 .cfa: sp 20 + .ra: .cfa -4 + ^ r7: .cfa -8 + ^ r6: .cfa -12 + ^ r5: .cfa -16 + ^ r4: .cfa -20 + ^
STACK CFI 301d4 .cfa: r7 8 +
STACK CFI 301d8 r8: .cfa -24 + ^
STACK CFI INIT 302b8 4 .cfa: sp 0 +
STACK CFI INIT 302bc 10 .cfa: sp 0 +
STACK CFI 302be .cfa: sp 8 + .ra: .cfa -4 + ^ r7: .cfa -8 + ^
STACK CFI 302c0 .cfa: r7 8 +
STACK CFI INIT 302cc 2 .cfa: sp 0 +
STACK CFI INIT 302ce 4 .cfa: sp 0 +
STACK CFI INIT 302d2 8 .cfa: sp 0 +
STACK CFI INIT 302da 14 .cfa: sp 0 +
STACK CFI 302dc .cfa: sp 8 + .ra: .cfa -4 + ^ r7: .cfa -8 + ^
STACK CFI 302de .cfa: r7 8 +
STACK CFI INIT 302ee 2 .cfa: sp 0 +
STACK CFI INIT 302f0 2 .cfa: sp 0 +
STACK CFI INIT 302f2 2 .cfa: sp 0 +
STACK CFI INIT 302f4 2 .cfa: sp 0 +
STACK CFI INIT 302f6 2 .cfa: sp 0 +
STACK CFI INIT 302f8 4 .cfa: sp 0 +
STACK CFI INIT 302fc 4e8 .cfa: sp 0 +
STACK CFI 302fe .cfa: sp 20 + .ra: .cfa -4 + ^ r7: .cfa -8 + ^ r6: .cfa -12 + ^ r5: .cfa -16 + ^ r4: .cfa -20 + ^
STACK CFI 30300 .cfa: r7 8 +
STACK CFI 30304 r11: .cfa -24 + ^ r10: .cfa -28 + ^ r9: .cfa -32 + ^ r8: .cfa -36 + ^
STACK CFI INIT 307e4 3a .cfa: sp 0 +
STACK CFI 307e6 .cfa: sp 16 + .ra: .cfa -4 + ^ r7: .cfa -8 + ^ r5: .cfa -12 + ^ r4: .cfa -16 + ^
STACK CFI 307e8 .cfa: r7 8 +
STACK CFI INIT 3081e 3a .cfa: sp 0 +
STACK CFI 30820 .cfa: sp 16 + .ra: .cfa -4 + ^ r7: .cfa -8 + ^ r5: .cfa -12 + ^ r4: .cfa -16 + ^
STACK CFI 30822 .cfa: r7 8 +
STACK CFI INIT 30858 10 .cfa: sp 0 +
STACK CFI 3085a .cfa: sp 8 + .ra: .cfa -4 + ^ r7: .cfa -8 + ^
STACK CFI 3085c .cfa: r7 8 +
STACK CFI INIT 30868 4 .cfa: sp 0 +
STACK CFI INIT 3086c 4 .cfa: sp 0 +
STACK CFI INIT 30870 4 .cfa: sp 0 +
STACK CFI INIT 30874 2 .cfa: sp 0 +
STACK CFI INIT 30878 78 .cfa: sp 0 +
STACK CFI 3087a .cfa: sp 16 + .ra: .cfa -4 + ^ r7: .cfa -8 + ^ r5: .cfa -12 + ^ r4: .cfa -16 + ^
STACK CFI 3087c .cfa: r7 8 +
STACK CFI INIT 308f0 70 .cfa: sp 0 +
STACK CFI 308f2 .cfa: sp 16 + .ra: .cfa -4 + ^ r7: .cfa -8 + ^ r5: .cfa -12 + ^ r4: .cfa -16 + ^
STACK CFI 308f4 .cfa: r7 8 +
STACK CFI INIT 30960 2 .cfa: sp 0 +
STACK CFI INIT 30962 2 .cfa: sp 0 +
STACK CFI INIT 30964 4 .cfa: sp 0 +
STACK CFI INIT 30968 4 .cfa: sp 0 +
STACK CFI INIT 3096c 78 .cfa: sp 0 +
STACK CFI 3096e .cfa: sp 16 + .ra: .cfa -4 + ^ r7: .cfa -8 + ^ r6: .cfa -12 + ^ r4: .cfa -16 + ^
STACK CFI 30970 .cfa: r7 8 +
STACK CFI INIT 309e4 16 .cfa: sp 0 +
STACK CFI 309e6 .cfa: sp 16 + .ra: .cfa -4 + ^ r7: .cfa -8 + ^ r6: .cfa -12 + ^ r4: .cfa -16 + ^
STACK CFI 309e8 .cfa: r7 8 +
STACK CFI INIT 309fc 34 .cfa: sp 0 +
STACK CFI 309fe .cfa: sp 8 + .ra: .cfa -4 + ^ r7: .cfa -8 + ^
STACK CFI 30a00 .cfa: r7 8 +
STACK CFI INIT 30a30 34 .cfa: sp 0 +
STACK CFI 30a32 .cfa: sp 8 + .ra: .cfa -4 + ^ r7: .cfa -8 + ^
STACK CFI 30a34 .cfa: r7 8 +
STACK CFI INIT 0 2c .cfa: sp 0 +
STACK CFI INIT 30a64 46 .cfa: sp 0 +
STACK CFI 30a66 .cfa: sp 16 + .ra: .cfa -4 + ^ r7: .cfa -8 + ^ r5: .cfa -12 + ^ r4: .cfa -16 + ^
STACK CFI 30a68 .cfa: r7 8 +
STACK CFI INIT 30aaa 76 .cfa: sp 0 +
STACK CFI 30aac .cfa: sp 20 + .ra: .cfa -4 + ^ r7: .cfa -8 + ^ r6: .cfa -12 + ^ r5: .cfa -16 + ^ r4: .cfa -20 + ^
STACK CFI 30aae .cfa: r7 8 +
STACK CFI 30ab2 r8: .cfa -24 + ^
STACK CFI INIT 30b20 116 .cfa: sp 0 +
STACK CFI 30b22 .cfa: sp 20 + .ra: .cfa -4 + ^ r7: .cfa -8 + ^ r6: .cfa -12 + ^ r5: .cfa -16 + ^ r4: .cfa -20 + ^
STACK CFI 30b24 .cfa: r7 8 +
STACK CFI 30b28 r11: .cfa -24 + ^ r10: .cfa -28 + ^ r9: .cfa -32 + ^ r8: .cfa -36 + ^
STACK CFI INIT 0 14 .cfa: sp 0 +
STACK CFI INIT 30c36 32 .cfa: sp 0 +
STACK CFI 30c38 .cfa: sp 20 + .ra: .cfa -4 + ^ r7: .cfa -8 + ^ r6: .cfa -12 + ^ r5: .cfa -16 + ^ r4: .cfa -20 + ^
STACK CFI 30c3a .cfa: r7 8 +
STACK CFI 30c3e r11: .cfa -24 + ^
STACK CFI INIT 30c68 38c .cfa: sp 0 +
STACK CFI 30c6a .cfa: sp 20 + .ra: .cfa -4 + ^ r7: .cfa -8 + ^ r6: .cfa -12 + ^ r5: .cfa -16 + ^ r4: .cfa -20 + ^
STACK CFI 30c6c .cfa: r7 8 +
STACK CFI 30c70 r11: .cfa -24 + ^ r10: .cfa -28 + ^ r9: .cfa -32 + ^ r8: .cfa -36 + ^
STACK CFI INIT 30ff4 ec .cfa: sp 0 +
STACK CFI 30ff6 .cfa: sp 20 + .ra: .cfa -4 + ^ r7: .cfa -8 + ^ r6: .cfa -12 + ^ r5: .cfa -16 + ^ r4: .cfa -20 + ^
STACK CFI 30ff8 .cfa: r7 8 +
STACK CFI 30ffc r11: .cfa -24 + ^ r9: .cfa -28 + ^ r8: .cfa -32 + ^
STACK CFI INIT 310e0 58 .cfa: sp 0 +
STACK CFI 310e2 .cfa: sp 20 + .ra: .cfa -4 + ^ r7: .cfa -8 + ^ r6: .cfa -12 + ^ r5: .cfa -16 + ^ r4: .cfa -20 + ^
STACK CFI 310e4 .cfa: r7 8 +
STACK CFI 310e8 r11: .cfa -24 + ^
STACK CFI INIT 31138 134 .cfa: sp 0 +
STACK CFI 3113a .cfa: sp 20 + .ra: .cfa -4 + ^ r7: .cfa -8 + ^ r6: .cfa -12 + ^ r5: .cfa -16 + ^ r4: .cfa -20 + ^
STACK CFI 3113c .cfa: r7 8 +
STACK CFI 31140 r11: .cfa -24 + ^ r9: .cfa -28 + ^ r8: .cfa -32 + ^
STACK CFI INIT 3126c d4 .cfa: sp 0 +
STACK CFI 3126e .cfa: sp 16 + .ra: .cfa -4 + ^ r7: .cfa -8 + ^ r5: .cfa -12 + ^ r4: .cfa -16 + ^
STACK CFI 31270 .cfa: r7 8 +
STACK CFI INIT 0 6 .cfa: sp 0 +
STACK CFI INIT 31340 6c .cfa: sp 0 +
STACK CFI 31342 .cfa: sp 20 + .ra: .cfa -4 + ^ r7: .cfa -8 + ^ r6: .cfa -12 + ^ r5: .cfa -16 + ^ r4: .cfa -20 + ^
STACK CFI 31344 .cfa: r7 8 +
STACK CFI 31348 r11: .cfa -24 + ^
STACK CFI INIT 313ac 13c .cfa: sp 0 +
STACK CFI 313ae .cfa: sp 20 + .ra: .cfa -4 + ^ r7: .cfa -8 + ^ r6: .cfa -12 + ^ r5: .cfa -16 + ^ r4: .cfa -20 + ^
STACK CFI 313b0 .cfa: r7 8 +
STACK CFI 313b4 r11: .cfa -24 + ^
STACK CFI INIT 0 6 .cfa: sp 0 +
STACK CFI INIT 0 6 .cfa: sp 0 +
STACK CFI INIT 0 6 .cfa: sp 0 +
STACK CFI INIT 0 6 .cfa: sp 0 +
STACK CFI INIT 314e8 a0 .cfa: sp 0 +
STACK CFI 314ea .cfa: sp 20 + .ra: .cfa -4 + ^ r7: .cfa -8 + ^ r6: .cfa -12 + ^ r5: .cfa -16 + ^ r4: .cfa -20 + ^
STACK CFI 314ec .cfa: r7 8 +
STACK CFI 314f0 r8: .cfa -24 + ^
STACK CFI INIT 0 1c .cfa: sp 0 +
STACK CFI INIT 0 26 .cfa: sp 0 +
STACK CFI 1a .cfa: sp 8 + .ra: .cfa -4 + ^ r7: .cfa -8 + ^
STACK CFI 1c .cfa: r7 8 +
STACK CFI INIT 31588 190 .cfa: sp 0 +
STACK CFI 3158a .cfa: sp 20 + .ra: .cfa -4 + ^ r7: .cfa -8 + ^ r6: .cfa -12 + ^ r5: .cfa -16 + ^ r4: .cfa -20 + ^
STACK CFI 3158c .cfa: r7 8 +
STACK CFI 31590 r11: .cfa -24 + ^ r9: .cfa -28 + ^ r8: .cfa -32 + ^
STACK CFI INIT 0 2a .cfa: sp 0 +
STACK CFI 2 .cfa: sp 8 + .ra: .cfa -4 + ^ r7: .cfa -8 + ^
STACK CFI 4 .cfa: r7 8 +
STACK CFI INIT 31718 194 .cfa: sp 0 +
STACK CFI 3171a .cfa: sp 20 + .ra: .cfa -4 + ^ r7: .cfa -8 + ^ r6: .cfa -12 + ^ r5: .cfa -16 + ^ r4: .cfa -20 + ^
STACK CFI 3171c .cfa: r7 8 +
STACK CFI 31720 r10: .cfa -24 + ^ r9: .cfa -28 + ^ r8: .cfa -32 + ^
STACK CFI INIT 318ac 190 .cfa: sp 0 +
STACK CFI 318ae .cfa: sp 20 + .ra: .cfa -4 + ^ r7: .cfa -8 + ^ r6: .cfa -12 + ^ r5: .cfa -16 + ^ r4: .cfa -20 + ^
STACK CFI 318b0 .cfa: r7 8 +
STACK CFI 318b4 r11: .cfa -24 + ^ r9: .cfa -28 + ^ r8: .cfa -32 + ^
STACK CFI INIT 0 2a .cfa: sp 0 +
STACK CFI 2 .cfa: sp 8 + .ra: .cfa -4 + ^ r7: .cfa -8 + ^
STACK CFI 4 .cfa: r7 8 +
STACK CFI INIT 31a3c 12c .cfa: sp 0 +
STACK CFI 31a3e .cfa: sp 20 + .ra: .cfa -4 + ^ r7: .cfa -8 + ^ r6: .cfa -12 + ^ r5: .cfa -16 + ^ r4: .cfa -20 + ^
STACK CFI 31a40 .cfa: r7 8 +
STACK CFI 31a44 r11: .cfa -24 + ^
STACK CFI INIT 0 6 .cfa: sp 0 +
STACK CFI INIT 31b68 15c .cfa: sp 0 +
STACK CFI 31b6a .cfa: sp 20 + .ra: .cfa -4 + ^ r7: .cfa -8 + ^ r6: .cfa -12 + ^ r5: .cfa -16 + ^ r4: .cfa -20 + ^
STACK CFI 31b6c .cfa: r7 8 +
STACK CFI 31b70 r11: .cfa -24 + ^ r9: .cfa -28 + ^ r8: .cfa -32 + ^
STACK CFI INIT 31cc4 a8 .cfa: sp 0 +
STACK CFI 31cc6 .cfa: sp 20 + .ra: .cfa -4 + ^ r7: .cfa -8 + ^ r6: .cfa -12 + ^ r5: .cfa -16 + ^ r4: .cfa -20 + ^
STACK CFI 31cc8 .cfa: r7 8 +
STACK CFI 31ccc r11: .cfa -24 + ^
STACK CFI INIT 0 20 .cfa: sp 0 +
STACK CFI INIT 0 26 .cfa: sp 0 +
STACK CFI 1a .cfa: sp 8 + .ra: .cfa -4 + ^ r7: .cfa -8 + ^
STACK CFI 1c .cfa: r7 8 +
STACK CFI INIT 0 80 .cfa: sp 0 +
STACK CFI 2 .cfa: sp 16 + .ra: .cfa -4 + ^ r7: .cfa -8 + ^ r6: .cfa -12 + ^ r4: .cfa -16 + ^
STACK CFI 4 .cfa: r7 8 +
STACK CFI INIT 0 24 .cfa: sp 0 +
STACK CFI INIT 31d6c c8 .cfa: sp 0 +
STACK CFI 31d6e .cfa: sp 20 + .ra: .cfa -4 + ^ r7: .cfa -8 + ^ r6: .cfa -12 + ^ r5: .cfa -16 + ^ r4: .cfa -20 + ^
STACK CFI 31d70 .cfa: r7 8 +
STACK CFI 31d74 r11: .cfa -24 + ^ r10: .cfa -28 + ^ r9: .cfa -32 + ^ r8: .cfa -36 + ^
STACK CFI INIT 31e34 d4 .cfa: sp 0 +
STACK CFI 31e36 .cfa: sp 20 + .ra: .cfa -4 + ^ r7: .cfa -8 + ^ r6: .cfa -12 + ^ r5: .cfa -16 + ^ r4: .cfa -20 + ^
STACK CFI 31e38 .cfa: r7 8 +
STACK CFI 31e3c r8: .cfa -24 + ^
STACK CFI INIT 31f08 4e .cfa: sp 0 +
STACK CFI 31f0a .cfa: sp 20 + .ra: .cfa -4 + ^ r7: .cfa -8 + ^ r6: .cfa -12 + ^ r5: .cfa -16 + ^ r4: .cfa -20 + ^
STACK CFI 31f0c .cfa: r7 8 +
STACK CFI 31f10 r8: .cfa -24 + ^
STACK CFI INIT 31f56 3a .cfa: sp 0 +
STACK CFI 31f58 .cfa: sp 20 + .ra: .cfa -4 + ^ r7: .cfa -8 + ^ r6: .cfa -12 + ^ r5: .cfa -16 + ^ r4: .cfa -20 + ^
STACK CFI 31f5a .cfa: r7 8 +
STACK CFI 31f5e r11: .cfa -24 + ^
STACK CFI INIT 31f90 e4 .cfa: sp 0 +
STACK CFI 31f92 .cfa: sp 16 + .ra: .cfa -4 + ^ r7: .cfa -8 + ^ r5: .cfa -12 + ^ r4: .cfa -16 + ^
STACK CFI 31f94 .cfa: r7 8 +
STACK CFI INIT 32074 90 .cfa: sp 0 +
STACK CFI 32076 .cfa: sp 16 + .ra: .cfa -4 + ^ r7: .cfa -8 + ^ r5: .cfa -12 + ^ r4: .cfa -16 + ^
STACK CFI 32078 .cfa: r7 8 +
STACK CFI INIT 32104 74 .cfa: sp 0 +
STACK CFI 32156 .cfa: sp 8 + .ra: .cfa -4 + ^ r7: .cfa -8 + ^
STACK CFI 32158 .cfa: r7 8 +
STACK CFI INIT 32178 34 .cfa: sp 0 +
STACK CFI 3217a .cfa: sp 16 + .ra: .cfa -4 + ^ r7: .cfa -8 + ^ r5: .cfa -12 + ^ r4: .cfa -16 + ^
STACK CFI 3217c .cfa: r7 8 +
STACK CFI INIT 321ac 20 .cfa: sp 0 +
STACK CFI 321ae .cfa: sp 16 + .ra: .cfa -4 + ^ r7: .cfa -8 + ^ r6: .cfa -12 + ^ r4: .cfa -16 + ^
STACK CFI 321b0 .cfa: r7 8 +
STACK CFI INIT 0 28 .cfa: sp 0 +
STACK CFI 2 .cfa: sp 8 + .ra: .cfa -4 + ^ r7: .cfa -8 + ^
STACK CFI 4 .cfa: r7 8 +
STACK CFI INIT 0 2c .cfa: sp 0 +
STACK CFI 2 .cfa: sp 8 + .ra: .cfa -4 + ^ r7: .cfa -8 + ^
STACK CFI 4 .cfa: r7 8 +
STACK CFI INIT 321cc 294 .cfa: sp 0 +
STACK CFI 321ce .cfa: sp 20 + .ra: .cfa -4 + ^ r7: .cfa -8 + ^ r6: .cfa -12 + ^ r5: .cfa -16 + ^ r4: .cfa -20 + ^
STACK CFI 321d0 .cfa: r7 8 +
STACK CFI 321d4 r11: .cfa -24 + ^ r9: .cfa -28 + ^ r8: .cfa -32 + ^
STACK CFI INIT 32460 50c .cfa: sp 0 +
STACK CFI 32462 .cfa: sp 20 + .ra: .cfa -4 + ^ r7: .cfa -8 + ^ r6: .cfa -12 + ^ r5: .cfa -16 + ^ r4: .cfa -20 + ^
STACK CFI 32464 .cfa: r7 8 +
STACK CFI 32468 r10: .cfa -24 + ^ r9: .cfa -28 + ^ r8: .cfa -32 + ^
STACK CFI INIT 3296c 1e4 .cfa: sp 0 +
STACK CFI 3296e .cfa: sp 20 + .ra: .cfa -4 + ^ r7: .cfa -8 + ^ r6: .cfa -12 + ^ r5: .cfa -16 + ^ r4: .cfa -20 + ^
STACK CFI 32970 .cfa: r7 8 +
STACK CFI 32974 r11: .cfa -24 + ^
STACK CFI INIT 32b50 48 .cfa: sp 0 +
STACK CFI 32b52 .cfa: sp 12 +
STACK CFI 32b54 .cfa: sp 20 + .ra: .cfa -16 + ^ r7: .cfa -20 + ^
STACK CFI 32b56 .cfa: r7 20 +
STACK CFI INIT 32b98 e0c .cfa: sp 0 +
STACK CFI 32b9a .cfa: sp 20 + .ra: .cfa -4 + ^ r7: .cfa -8 + ^ r6: .cfa -12 + ^ r5: .cfa -16 + ^ r4: .cfa -20 + ^
STACK CFI 32b9c .cfa: r7 8 +
STACK CFI 32ba0 r11: .cfa -24 + ^ r10: .cfa -28 + ^ r9: .cfa -32 + ^ r8: .cfa -36 + ^
STACK CFI INIT 339a4 118 .cfa: sp 0 +
STACK CFI 339a6 .cfa: sp 20 + .ra: .cfa -4 + ^ r7: .cfa -8 + ^ r6: .cfa -12 + ^ r5: .cfa -16 + ^ r4: .cfa -20 + ^
STACK CFI 339a8 .cfa: r7 8 +
STACK CFI 339ac r11: .cfa -24 + ^
STACK CFI INIT 33abc 38 .cfa: sp 0 +
STACK CFI 33ad0 .cfa: sp 8 + .ra: .cfa -4 + ^ r7: .cfa -8 + ^
STACK CFI 33ad2 .cfa: r7 8 +
STACK CFI INIT 33af4 2b8 .cfa: sp 0 +
STACK CFI 33af6 .cfa: sp 20 + .ra: .cfa -4 + ^ r7: .cfa -8 + ^ r6: .cfa -12 + ^ r5: .cfa -16 + ^ r4: .cfa -20 + ^
STACK CFI 33af8 .cfa: r7 8 +
STACK CFI 33afc r11: .cfa -24 + ^ r10: .cfa -28 + ^ r9: .cfa -32 + ^ r8: .cfa -36 + ^
STACK CFI INIT 33dac 60 .cfa: sp 0 +
STACK CFI 33dae .cfa: sp 16 + .ra: .cfa -4 + ^ r7: .cfa -8 + ^ r6: .cfa -12 + ^ r4: .cfa -16 + ^
STACK CFI 33db0 .cfa: r7 8 +
STACK CFI INIT 33e0c 7c .cfa: sp 0 +
STACK CFI 33e0e .cfa: sp 16 + .ra: .cfa -4 + ^ r7: .cfa -8 + ^ r5: .cfa -12 + ^ r4: .cfa -16 + ^
STACK CFI 33e10 .cfa: r7 8 +
STACK CFI INIT 33e88 8a8 .cfa: sp 0 +
STACK CFI 33e8a .cfa: sp 20 + .ra: .cfa -4 + ^ r7: .cfa -8 + ^ r6: .cfa -12 + ^ r5: .cfa -16 + ^ r4: .cfa -20 + ^
STACK CFI 33e8c .cfa: r7 8 +
STACK CFI 33e90 r11: .cfa -24 + ^ r10: .cfa -28 + ^ r9: .cfa -32 + ^ r8: .cfa -36 + ^
STACK CFI INIT 34730 c4 .cfa: sp 0 +
STACK CFI 34732 .cfa: sp 20 + .ra: .cfa -4 + ^ r7: .cfa -8 + ^ r6: .cfa -12 + ^ r5: .cfa -16 + ^ r4: .cfa -20 + ^
STACK CFI 34734 .cfa: r7 8 +
STACK CFI 34738 r10: .cfa -24 + ^ r9: .cfa -28 + ^ r8: .cfa -32 + ^
STACK CFI INIT 347f4 1600 .cfa: sp 0 +
STACK CFI 347f6 .cfa: sp 20 + .ra: .cfa -4 + ^ r7: .cfa -8 + ^ r6: .cfa -12 + ^ r5: .cfa -16 + ^ r4: .cfa -20 + ^
STACK CFI 347f8 .cfa: r7 8 +
STACK CFI 347fc r11: .cfa -24 + ^ r10: .cfa -28 + ^ r9: .cfa -32 + ^ r8: .cfa -36 + ^
STACK CFI INIT 35df4 38 .cfa: sp 0 +
STACK CFI 35df6 .cfa: sp 16 + .ra: .cfa -4 + ^ r7: .cfa -8 + ^ r5: .cfa -12 + ^ r4: .cfa -16 + ^
STACK CFI 35df8 .cfa: r7 8 +
STACK CFI INIT 35e2c 3a .cfa: sp 0 +
STACK CFI 35e2e .cfa: sp 16 + .ra: .cfa -4 + ^ r7: .cfa -8 + ^ r5: .cfa -12 + ^ r4: .cfa -16 + ^
STACK CFI 35e30 .cfa: r7 8 +
STACK CFI INIT 35e66 16 .cfa: sp 0 +
STACK CFI 35e68 .cfa: sp 16 + .ra: .cfa -4 + ^ r7: .cfa -8 + ^ r6: .cfa -12 + ^ r4: .cfa -16 + ^
STACK CFI 35e6a .cfa: r7 8 +
STACK CFI INIT 35e7c 3b4 .cfa: sp 0 +
STACK CFI 35e7e .cfa: sp 20 + .ra: .cfa -4 + ^ r7: .cfa -8 + ^ r6: .cfa -12 + ^ r5: .cfa -16 + ^ r4: .cfa -20 + ^
STACK CFI 35e80 .cfa: r7 8 +
STACK CFI 35e84 r10: .cfa -24 + ^ r9: .cfa -28 + ^ r8: .cfa -32 + ^
STACK CFI INIT 36230 174 .cfa: sp 0 +
STACK CFI 36232 .cfa: sp 20 + .ra: .cfa -4 + ^ r7: .cfa -8 + ^ r6: .cfa -12 + ^ r5: .cfa -16 + ^ r4: .cfa -20 + ^
STACK CFI 36234 .cfa: r7 8 +
STACK CFI 36238 r11: .cfa -24 + ^ r10: .cfa -28 + ^ r9: .cfa -32 + ^ r8: .cfa -36 + ^
STACK CFI INIT 363a4 1e .cfa: sp 0 +
STACK CFI 363a6 .cfa: sp 16 + .ra: .cfa -4 + ^ r7: .cfa -8 + ^ r6: .cfa -12 + ^ r4: .cfa -16 + ^
STACK CFI 363a8 .cfa: r7 8 +
STACK CFI INIT 0 16 .cfa: sp 0 +
STACK CFI 2 .cfa: sp 8 + .ra: .cfa -4 + ^ r7: .cfa -8 + ^
STACK CFI 4 .cfa: r7 8 +
STACK CFI INIT 363c4 244 .cfa: sp 0 +
STACK CFI 363c6 .cfa: sp 20 + .ra: .cfa -4 + ^ r7: .cfa -8 + ^ r6: .cfa -12 + ^ r5: .cfa -16 + ^ r4: .cfa -20 + ^
STACK CFI 363c8 .cfa: r7 8 +
STACK CFI 363cc r11: .cfa -24 + ^ r9: .cfa -28 + ^ r8: .cfa -32 + ^
STACK CFI INIT 0 64 .cfa: sp 0 +
STACK CFI 2 .cfa: sp 16 + .ra: .cfa -4 + ^ r7: .cfa -8 + ^ r6: .cfa -12 + ^ r4: .cfa -16 + ^
STACK CFI 4 .cfa: r7 8 +
STACK CFI INIT 0 e .cfa: sp 0 +
STACK CFI INIT 36608 104 .cfa: sp 0 +
STACK CFI 3660a .cfa: sp 20 + .ra: .cfa -4 + ^ r7: .cfa -8 + ^ r6: .cfa -12 + ^ r5: .cfa -16 + ^ r4: .cfa -20 + ^
STACK CFI 3660c .cfa: r7 8 +
STACK CFI 36610 r8: .cfa -24 + ^
STACK CFI INIT 3670c 2 .cfa: sp 0 +
STACK CFI INIT 3670e e .cfa: sp 0 +
STACK CFI INIT 3671c 19c .cfa: sp 0 +
STACK CFI 36728 .cfa: sp 20 + .ra: .cfa -4 + ^ r7: .cfa -8 + ^ r6: .cfa -12 + ^ r5: .cfa -16 + ^ r4: .cfa -20 + ^
STACK CFI 3672a .cfa: r7 8 +
STACK CFI 3672e r11: .cfa -24 + ^ r10: .cfa -28 + ^ r9: .cfa -32 + ^ r8: .cfa -36 + ^
STACK CFI INIT 368b8 3a .cfa: sp 0 +
STACK CFI 368ba .cfa: sp 16 + .ra: .cfa -4 + ^ r7: .cfa -8 + ^ r5: .cfa -12 + ^ r4: .cfa -16 + ^
STACK CFI 368bc .cfa: r7 8 +
STACK CFI INIT 368f4 10c .cfa: sp 0 +
STACK CFI 368f6 .cfa: sp 20 + .ra: .cfa -4 + ^ r7: .cfa -8 + ^ r6: .cfa -12 + ^ r5: .cfa -16 + ^ r4: .cfa -20 + ^
STACK CFI 368f8 .cfa: r7 8 +
STACK CFI 368fc r11: .cfa -24 + ^ r10: .cfa -28 + ^ r9: .cfa -32 + ^ r8: .cfa -36 + ^
STACK CFI INIT 36a00 e4 .cfa: sp 0 +
STACK CFI 36a02 .cfa: sp 20 + .ra: .cfa -4 + ^ r7: .cfa -8 + ^ r6: .cfa -12 + ^ r5: .cfa -16 + ^ r4: .cfa -20 + ^
STACK CFI 36a04 .cfa: r7 8 +
STACK CFI 36a08 r11: .cfa -24 + ^ r9: .cfa -28 + ^ r8: .cfa -32 + ^
STACK CFI INIT 36ae4 1ae .cfa: sp 0 +
STACK CFI 36ae6 .cfa: sp 20 + .ra: .cfa -4 + ^ r7: .cfa -8 + ^ r6: .cfa -12 + ^ r5: .cfa -16 + ^ r4: .cfa -20 + ^
STACK CFI 36ae8 .cfa: r7 8 +
STACK CFI 36aec r11: .cfa -24 + ^ r10: .cfa -28 + ^ r9: .cfa -32 + ^ r8: .cfa -36 + ^
STACK CFI INIT 36c94 1a4 .cfa: sp 0 +
STACK CFI 36c96 .cfa: sp 20 + .ra: .cfa -4 + ^ r7: .cfa -8 + ^ r6: .cfa -12 + ^ r5: .cfa -16 + ^ r4: .cfa -20 + ^
STACK CFI 36c98 .cfa: r7 8 +
STACK CFI 36c9c r11: .cfa -24 + ^ r10: .cfa -28 + ^ r9: .cfa -32 + ^ r8: .cfa -36 + ^
STACK CFI INIT 36e38 b8 .cfa: sp 0 +
STACK CFI 36e3a .cfa: sp 20 + .ra: .cfa -4 + ^ r7: .cfa -8 + ^ r6: .cfa -12 + ^ r5: .cfa -16 + ^ r4: .cfa -20 + ^
STACK CFI 36e3c .cfa: r7 8 +
STACK CFI 36e40 r11: .cfa -24 + ^ r10: .cfa -28 + ^ r9: .cfa -32 + ^ r8: .cfa -36 + ^
STACK CFI INIT 36ef0 108 .cfa: sp 0 +
STACK CFI 36ef2 .cfa: sp 20 + .ra: .cfa -4 + ^ r7: .cfa -8 + ^ r6: .cfa -12 + ^ r5: .cfa -16 + ^ r4: .cfa -20 + ^
STACK CFI 36ef4 .cfa: r7 8 +
STACK CFI 36ef8 r11: .cfa -24 + ^ r9: .cfa -28 + ^ r8: .cfa -32 + ^
STACK CFI INIT 36ff8 2 .cfa: sp 0 +
STACK CFI INIT 36ffa e .cfa: sp 0 +
STACK CFI INIT 37008 88 .cfa: sp 0 +
STACK CFI 3700a .cfa: sp 20 + .ra: .cfa -4 + ^ r7: .cfa -8 + ^ r6: .cfa -12 + ^ r5: .cfa -16 + ^ r4: .cfa -20 + ^
STACK CFI 3700c .cfa: r7 8 +
STACK CFI 37010 r11: .cfa -24 + ^
STACK CFI INIT 37090 1e .cfa: sp 0 +
STACK CFI 3709a .cfa: sp 16 + .ra: .cfa -4 + ^ r7: .cfa -8 + ^ r6: .cfa -12 + ^ r4: .cfa -16 + ^
STACK CFI 3709c .cfa: r7 8 +
STACK CFI INIT 370b0 d94 .cfa: sp 0 +
STACK CFI 370b2 .cfa: sp 20 + .ra: .cfa -4 + ^ r7: .cfa -8 + ^ r6: .cfa -12 + ^ r5: .cfa -16 + ^ r4: .cfa -20 + ^
STACK CFI 370b4 .cfa: r7 8 +
STACK CFI 370b8 r11: .cfa -24 + ^ r10: .cfa -28 + ^ r9: .cfa -32 + ^ r8: .cfa -36 + ^
STACK CFI INIT 37e44 28c .cfa: sp 0 +
STACK CFI 37e46 .cfa: sp 20 + .ra: .cfa -4 + ^ r7: .cfa -8 + ^ r6: .cfa -12 + ^ r5: .cfa -16 + ^ r4: .cfa -20 + ^
STACK CFI 37e48 .cfa: r7 8 +
STACK CFI 37e4c r11: .cfa -24 + ^ r10: .cfa -28 + ^ r9: .cfa -32 + ^ r8: .cfa -36 + ^
STACK CFI INIT 380d0 60 .cfa: sp 0 +
STACK CFI 380d2 .cfa: sp 16 + .ra: .cfa -4 + ^ r7: .cfa -8 + ^ r6: .cfa -12 + ^ r4: .cfa -16 + ^
STACK CFI 380d4 .cfa: r7 8 +
STACK CFI INIT 38130 10 .cfa: sp 0 +
STACK CFI INIT 38140 1c .cfa: sp 0 +
STACK CFI 38142 .cfa: sp 8 + .ra: .cfa -4 + ^ r7: .cfa -8 + ^
STACK CFI 38144 .cfa: r7 8 +
STACK CFI INIT 3815c 8 .cfa: sp 0 +
STACK CFI INIT 38164 4 .cfa: sp 0 +
STACK CFI INIT 38168 2 .cfa: sp 0 +
STACK CFI INIT 3816a 4 .cfa: sp 0 +
STACK CFI INIT 38170 20 .cfa: sp 0 +
STACK CFI 38172 .cfa: sp 16 + .ra: .cfa -4 + ^ r7: .cfa -8 + ^ r6: .cfa -12 + ^ r4: .cfa -16 + ^
STACK CFI 38174 .cfa: r7 8 +
STACK CFI INIT 38190 14 .cfa: sp 0 +
STACK CFI INIT 381a4 2 .cfa: sp 0 +
STACK CFI INIT 381a6 4 .cfa: sp 0 +
STACK CFI INIT 381aa 14 .cfa: sp 0 +
STACK CFI 381ac .cfa: sp 8 + .ra: .cfa -4 + ^ r7: .cfa -8 + ^
STACK CFI 381ae .cfa: r7 8 +
STACK CFI INIT 381c0 18 .cfa: sp 0 +
STACK CFI INIT 381d8 c .cfa: sp 0 +
STACK CFI INIT 381e4 2 .cfa: sp 0 +
STACK CFI INIT 381e6 e .cfa: sp 0 +
STACK CFI INIT 381f4 3a .cfa: sp 0 +
STACK CFI 381f6 .cfa: sp 16 + .ra: .cfa -4 + ^ r7: .cfa -8 + ^ r5: .cfa -12 + ^ r4: .cfa -16 + ^
STACK CFI 381f8 .cfa: r7 8 +
STACK CFI INIT 38230 90 .cfa: sp 0 +
STACK CFI 38232 .cfa: sp 20 + .ra: .cfa -4 + ^ r7: .cfa -8 + ^ r6: .cfa -12 + ^ r5: .cfa -16 + ^ r4: .cfa -20 + ^
STACK CFI 38234 .cfa: r7 8 +
STACK CFI 38238 r8: .cfa -24 + ^
STACK CFI INIT 382c0 3a .cfa: sp 0 +
STACK CFI 382c2 .cfa: sp 16 + .ra: .cfa -4 + ^ r7: .cfa -8 + ^ r5: .cfa -12 + ^ r4: .cfa -16 + ^
STACK CFI 382c4 .cfa: r7 8 +
STACK CFI INIT 382fa 4 .cfa: sp 0 +
STACK CFI INIT 38300 20 .cfa: sp 0 +
STACK CFI 38302 .cfa: sp 16 + .ra: .cfa -4 + ^ r7: .cfa -8 + ^ r6: .cfa -12 + ^ r4: .cfa -16 + ^
STACK CFI 38304 .cfa: r7 8 +
STACK CFI INIT 38320 14 .cfa: sp 0 +
STACK CFI INIT 38334 2 .cfa: sp 0 +
STACK CFI INIT 38336 4 .cfa: sp 0 +
STACK CFI INIT 3833c 190 .cfa: sp 0 +
STACK CFI 3833e .cfa: sp 20 + .ra: .cfa -4 + ^ r7: .cfa -8 + ^ r6: .cfa -12 + ^ r5: .cfa -16 + ^ r4: .cfa -20 + ^
STACK CFI 38340 .cfa: r7 8 +
STACK CFI 38344 r11: .cfa -24 + ^ r9: .cfa -28 + ^ r8: .cfa -32 + ^
STACK CFI INIT 384cc 18 .cfa: sp 0 +
STACK CFI INIT 384e4 c .cfa: sp 0 +
STACK CFI INIT 384f0 3a .cfa: sp 0 +
STACK CFI 384f2 .cfa: sp 16 + .ra: .cfa -4 + ^ r7: .cfa -8 + ^ r5: .cfa -12 + ^ r4: .cfa -16 + ^
STACK CFI 384f4 .cfa: r7 8 +
STACK CFI INIT 3852a 4 .cfa: sp 0 +
STACK CFI INIT 38530 e4 .cfa: sp 0 +
STACK CFI 38532 .cfa: sp 20 + .ra: .cfa -4 + ^ r7: .cfa -8 + ^ r6: .cfa -12 + ^ r5: .cfa -16 + ^ r4: .cfa -20 + ^
STACK CFI 38534 .cfa: r7 8 +
STACK CFI 38538 r11: .cfa -24 + ^
STACK CFI INIT 38614 68 .cfa: sp 0 +
STACK CFI 38616 .cfa: sp 16 + .ra: .cfa -4 + ^ r7: .cfa -8 + ^ r5: .cfa -12 + ^ r4: .cfa -16 + ^
STACK CFI 38618 .cfa: r7 8 +
STACK CFI INIT 3867c 6c .cfa: sp 0 +
STACK CFI 3867e .cfa: sp 16 + .ra: .cfa -4 + ^ r7: .cfa -8 + ^ r5: .cfa -12 + ^ r4: .cfa -16 + ^
STACK CFI 38680 .cfa: r7 8 +
STACK CFI INIT 386e8 4 .cfa: sp 0 +
STACK CFI INIT 386ec 20 .cfa: sp 0 +
STACK CFI 386ee .cfa: sp 16 + .ra: .cfa -4 + ^ r7: .cfa -8 + ^ r6: .cfa -12 + ^ r4: .cfa -16 + ^
STACK CFI 386f0 .cfa: r7 8 +
STACK CFI INIT 3870c 14 .cfa: sp 0 +
STACK CFI INIT 38720 2 .cfa: sp 0 +
STACK CFI INIT 38722 4 .cfa: sp 0 +
STACK CFI INIT 38728 200 .cfa: sp 0 +
STACK CFI 3872a .cfa: sp 16 + .ra: .cfa -4 + ^ r7: .cfa -8 + ^ r5: .cfa -12 + ^ r4: .cfa -16 + ^
STACK CFI 3872c .cfa: r7 8 +
STACK CFI INIT 38928 18 .cfa: sp 0 +
STACK CFI INIT 38940 c .cfa: sp 0 +
STACK CFI INIT 3894c 4 .cfa: sp 0 +
STACK CFI INIT 38950 20 .cfa: sp 0 +
STACK CFI 38952 .cfa: sp 16 + .ra: .cfa -4 + ^ r7: .cfa -8 + ^ r6: .cfa -12 + ^ r4: .cfa -16 + ^
STACK CFI 38954 .cfa: r7 8 +
STACK CFI INIT 38970 14 .cfa: sp 0 +
STACK CFI INIT 38984 2 .cfa: sp 0 +
STACK CFI INIT 38986 4 .cfa: sp 0 +
STACK CFI INIT 3898c 504 .cfa: sp 0 +
STACK CFI 3898e .cfa: sp 20 + .ra: .cfa -4 + ^ r7: .cfa -8 + ^ r6: .cfa -12 + ^ r5: .cfa -16 + ^ r4: .cfa -20 + ^
STACK CFI 38990 .cfa: r7 8 +
STACK CFI 38994 r10: .cfa -24 + ^ r9: .cfa -28 + ^ r8: .cfa -32 + ^
STACK CFI INIT 38e90 18 .cfa: sp 0 +
STACK CFI INIT 38ea8 c .cfa: sp 0 +
STACK CFI INIT 38eb4 2 .cfa: sp 0 +
STACK CFI INIT 38eb6 4 .cfa: sp 0 +
STACK CFI INIT 38ebc 20 .cfa: sp 0 +
STACK CFI 38ebe .cfa: sp 16 + .ra: .cfa -4 + ^ r7: .cfa -8 + ^ r6: .cfa -12 + ^ r4: .cfa -16 + ^
STACK CFI 38ec0 .cfa: r7 8 +
STACK CFI INIT 38edc 14 .cfa: sp 0 +
STACK CFI INIT 38ef0 2 .cfa: sp 0 +
STACK CFI INIT 38ef2 4 .cfa: sp 0 +
STACK CFI INIT 38ef8 1e8 .cfa: sp 0 +
STACK CFI 38efa .cfa: sp 20 + .ra: .cfa -4 + ^ r7: .cfa -8 + ^ r6: .cfa -12 + ^ r5: .cfa -16 + ^ r4: .cfa -20 + ^
STACK CFI 38efc .cfa: r7 8 +
STACK CFI 38f00 r11: .cfa -24 + ^
STACK CFI INIT 390e0 18 .cfa: sp 0 +
STACK CFI INIT 390f8 c .cfa: sp 0 +
STACK CFI INIT 39104 4 .cfa: sp 0 +
STACK CFI INIT 39108 e4 .cfa: sp 0 +
STACK CFI 3910a .cfa: sp 20 + .ra: .cfa -4 + ^ r7: .cfa -8 + ^ r6: .cfa -12 + ^ r5: .cfa -16 + ^ r4: .cfa -20 + ^
STACK CFI 3910c .cfa: r7 8 +
STACK CFI 39110 r11: .cfa -24 + ^
STACK CFI INIT 391ec 38 .cfa: sp 0 +
STACK CFI 391ee .cfa: sp 16 + .ra: .cfa -4 + ^ r7: .cfa -8 + ^ r6: .cfa -12 + ^ r4: .cfa -16 + ^
STACK CFI 391f0 .cfa: r7 8 +
STACK CFI INIT 39224 3c .cfa: sp 0 +
STACK CFI 39226 .cfa: sp 16 + .ra: .cfa -4 + ^ r7: .cfa -8 + ^ r6: .cfa -12 + ^ r4: .cfa -16 + ^
STACK CFI 39228 .cfa: r7 8 +
STACK CFI INIT 39260 2 .cfa: sp 0 +
STACK CFI INIT 39262 4 .cfa: sp 0 +
STACK CFI INIT 39268 20 .cfa: sp 0 +
STACK CFI 3926a .cfa: sp 16 + .ra: .cfa -4 + ^ r7: .cfa -8 + ^ r6: .cfa -12 + ^ r4: .cfa -16 + ^
STACK CFI 3926c .cfa: r7 8 +
STACK CFI INIT 39288 14 .cfa: sp 0 +
STACK CFI INIT 3929c 2 .cfa: sp 0 +
STACK CFI INIT 3929e 4 .cfa: sp 0 +
STACK CFI INIT 392a2 8 .cfa: sp 0 +
STACK CFI INIT 392ac 18 .cfa: sp 0 +
STACK CFI INIT 392c4 c .cfa: sp 0 +
STACK CFI INIT 392d0 184 .cfa: sp 0 +
STACK CFI 392d2 .cfa: sp 20 + .ra: .cfa -4 + ^ r7: .cfa -8 + ^ r6: .cfa -12 + ^ r5: .cfa -16 + ^ r4: .cfa -20 + ^
STACK CFI 392d4 .cfa: r7 8 +
STACK CFI 392d8 r8: .cfa -24 + ^
STACK CFI INIT 39460 dc .cfa: sp 0 +
STACK CFI 39462 .cfa: sp 16 + .ra: .cfa -4 + ^ r7: .cfa -8 + ^ r5: .cfa -12 + ^ r4: .cfa -16 + ^
STACK CFI 39464 .cfa: r7 8 +
STACK CFI INIT 3953c 4d8 .cfa: sp 0 +
STACK CFI 3953e .cfa: sp 20 + .ra: .cfa -4 + ^ r7: .cfa -8 + ^ r6: .cfa -12 + ^ r5: .cfa -16 + ^ r4: .cfa -20 + ^
STACK CFI 39540 .cfa: r7 8 +
STACK CFI 39544 r11: .cfa -24 + ^ r10: .cfa -28 + ^ r9: .cfa -32 + ^ r8: .cfa -36 + ^
STACK CFI INIT 39a14 10 .cfa: sp 0 +
STACK CFI 39a16 .cfa: sp 8 + .ra: .cfa -4 + ^ r7: .cfa -8 + ^
STACK CFI 39a18 .cfa: r7 8 +
STACK CFI INIT 39a24 64 .cfa: sp 0 +
STACK CFI 39a26 .cfa: sp 20 + .ra: .cfa -4 + ^ r7: .cfa -8 + ^ r6: .cfa -12 + ^ r5: .cfa -16 + ^ r4: .cfa -20 + ^
STACK CFI 39a28 .cfa: r7 8 +
STACK CFI 39a2c r11: .cfa -24 + ^
STACK CFI INIT 39a88 20 .cfa: sp 0 +
STACK CFI 39a8a .cfa: sp 16 + .ra: .cfa -4 + ^ r7: .cfa -8 + ^ r6: .cfa -12 + ^ r4: .cfa -16 + ^
STACK CFI 39a8c .cfa: r7 8 +
STACK CFI INIT 39aa8 20 .cfa: sp 0 +
STACK CFI 39aaa .cfa: sp 16 + .ra: .cfa -4 + ^ r7: .cfa -8 + ^ r6: .cfa -12 + ^ r4: .cfa -16 + ^
STACK CFI 39aac .cfa: r7 8 +
STACK CFI INIT 39ac8 28 .cfa: sp 0 +
STACK CFI 39aca .cfa: sp 16 + .ra: .cfa -4 + ^ r7: .cfa -8 + ^ r5: .cfa -12 + ^ r4: .cfa -16 + ^
STACK CFI 39acc .cfa: r7 8 +
STACK CFI INIT 39af0 cc .cfa: sp 0 +
STACK CFI 39af2 .cfa: sp 16 + .ra: .cfa -4 + ^ r7: .cfa -8 + ^ r6: .cfa -12 + ^ r4: .cfa -16 + ^
STACK CFI 39af4 .cfa: r7 8 +
STACK CFI INIT 39bbc 48 .cfa: sp 0 +
STACK CFI 39bbe .cfa: sp 16 + .ra: .cfa -4 + ^ r7: .cfa -8 + ^ r5: .cfa -12 + ^ r4: .cfa -16 + ^
STACK CFI 39bc0 .cfa: r7 8 +
STACK CFI INIT 39c04 60 .cfa: sp 0 +
STACK CFI 39c06 .cfa: sp 16 + .ra: .cfa -4 + ^ r7: .cfa -8 + ^ r6: .cfa -12 + ^ r4: .cfa -16 + ^
STACK CFI 39c08 .cfa: r7 8 +
STACK CFI INIT 39c64 46 .cfa: sp 0 +
STACK CFI 39c66 .cfa: sp 16 + .ra: .cfa -4 + ^ r7: .cfa -8 + ^ r5: .cfa -12 + ^ r4: .cfa -16 + ^
STACK CFI 39c68 .cfa: r7 8 +
STACK CFI INIT 39caa 10 .cfa: sp 0 +
STACK CFI 39cac .cfa: sp 8 + .ra: .cfa -4 + ^ r7: .cfa -8 + ^
STACK CFI 39cae .cfa: r7 8 +
STACK CFI INIT 39cbc 1c0 .cfa: sp 0 +
STACK CFI 39cbe .cfa: sp 20 + .ra: .cfa -4 + ^ r7: .cfa -8 + ^ r6: .cfa -12 + ^ r5: .cfa -16 + ^ r4: .cfa -20 + ^
STACK CFI 39cc0 .cfa: r7 8 +
STACK CFI 39cc4 r8: .cfa -24 + ^
STACK CFI INIT 39e7c 10 .cfa: sp 0 +
STACK CFI 39e7e .cfa: sp 8 + .ra: .cfa -4 + ^ r7: .cfa -8 + ^
STACK CFI 39e80 .cfa: r7 8 +
STACK CFI INIT 39e8c 8 .cfa: sp 0 +
STACK CFI INIT 39e94 10 .cfa: sp 0 +
STACK CFI 39e96 .cfa: sp 8 + .ra: .cfa -4 + ^ r7: .cfa -8 + ^
STACK CFI 39e98 .cfa: r7 8 +
STACK CFI INIT 39ea4 14 .cfa: sp 0 +
STACK CFI 39ea6 .cfa: sp 8 + .ra: .cfa -4 + ^ r7: .cfa -8 + ^
STACK CFI 39ea8 .cfa: r7 8 +
STACK CFI INIT 39eb8 27c .cfa: sp 0 +
STACK CFI 39eba .cfa: sp 20 + .ra: .cfa -4 + ^ r7: .cfa -8 + ^ r6: .cfa -12 + ^ r5: .cfa -16 + ^ r4: .cfa -20 + ^
STACK CFI 39ebc .cfa: r7 8 +
STACK CFI 39ec0 r11: .cfa -24 + ^ r10: .cfa -28 + ^ r9: .cfa -32 + ^ r8: .cfa -36 + ^
STACK CFI INIT 3a134 8 .cfa: sp 0 +
STACK CFI INIT 3a13c 10 .cfa: sp 0 +
STACK CFI 3a13e .cfa: sp 8 + .ra: .cfa -4 + ^ r7: .cfa -8 + ^
STACK CFI 3a140 .cfa: r7 8 +
STACK CFI INIT 3a14c 14 .cfa: sp 0 +
STACK CFI 3a14e .cfa: sp 8 + .ra: .cfa -4 + ^ r7: .cfa -8 + ^
STACK CFI 3a150 .cfa: r7 8 +
STACK CFI INIT 3a160 1f0 .cfa: sp 0 +
STACK CFI 3a162 .cfa: sp 20 + .ra: .cfa -4 + ^ r7: .cfa -8 + ^ r6: .cfa -12 + ^ r5: .cfa -16 + ^ r4: .cfa -20 + ^
STACK CFI 3a164 .cfa: r7 8 +
STACK CFI 3a168 r8: .cfa -24 + ^
STACK CFI INIT 3a350 8 .cfa: sp 0 +
STACK CFI INIT 3a358 10 .cfa: sp 0 +
STACK CFI 3a35a .cfa: sp 8 + .ra: .cfa -4 + ^ r7: .cfa -8 + ^
STACK CFI 3a35c .cfa: r7 8 +
STACK CFI INIT 3a368 14 .cfa: sp 0 +
STACK CFI 3a36a .cfa: sp 8 + .ra: .cfa -4 + ^ r7: .cfa -8 + ^
STACK CFI 3a36c .cfa: r7 8 +
STACK CFI INIT 0 74 .cfa: sp 0 +
STACK CFI 2 .cfa: sp 16 + .ra: .cfa -4 + ^ r7: .cfa -8 + ^ r5: .cfa -12 + ^ r4: .cfa -16 + ^
STACK CFI 4 .cfa: r7 8 +
STACK CFI INIT 3a37c 8 .cfa: sp 0 +
STACK CFI INIT 3a384 10 .cfa: sp 0 +
STACK CFI 3a386 .cfa: sp 8 + .ra: .cfa -4 + ^ r7: .cfa -8 + ^
STACK CFI 3a388 .cfa: r7 8 +
STACK CFI INIT 3a394 14 .cfa: sp 0 +
STACK CFI 3a396 .cfa: sp 8 + .ra: .cfa -4 + ^ r7: .cfa -8 + ^
STACK CFI 3a398 .cfa: r7 8 +
STACK CFI INIT 3a3a8 11c .cfa: sp 0 +
STACK CFI 3a3aa .cfa: sp 20 + .ra: .cfa -4 + ^ r7: .cfa -8 + ^ r6: .cfa -12 + ^ r5: .cfa -16 + ^ r4: .cfa -20 + ^
STACK CFI 3a3ac .cfa: r7 8 +
STACK CFI 3a3b0 r11: .cfa -24 + ^ r10: .cfa -28 + ^ r9: .cfa -32 + ^ r8: .cfa -36 + ^
STACK CFI INIT 3a4d0 460 .cfa: sp 0 +
STACK CFI 3a4d2 .cfa: sp 20 + .ra: .cfa -4 + ^ r7: .cfa -8 + ^ r6: .cfa -12 + ^ r5: .cfa -16 + ^ r4: .cfa -20 + ^
STACK CFI 3a4d4 .cfa: r7 8 +
STACK CFI 3a4d8 r11: .cfa -24 + ^ r10: .cfa -28 + ^ r9: .cfa -32 + ^ r8: .cfa -36 + ^
STACK CFI INIT 3a930 70 .cfa: sp 0 +
STACK CFI 3a932 .cfa: sp 20 + .ra: .cfa -4 + ^ r7: .cfa -8 + ^ r6: .cfa -12 + ^ r5: .cfa -16 + ^ r4: .cfa -20 + ^
STACK CFI 3a934 .cfa: r7 8 +
STACK CFI 3a938 r11: .cfa -24 + ^
STACK CFI INIT 3a9a0 140 .cfa: sp 0 +
STACK CFI 3a9a2 .cfa: sp 20 + .ra: .cfa -4 + ^ r7: .cfa -8 + ^ r6: .cfa -12 + ^ r5: .cfa -16 + ^ r4: .cfa -20 + ^
STACK CFI 3a9a4 .cfa: r7 8 +
STACK CFI 3a9a8 r11: .cfa -24 + ^ r10: .cfa -28 + ^ r9: .cfa -32 + ^ r8: .cfa -36 + ^
STACK CFI INIT 3aae0 870 .cfa: sp 0 +
STACK CFI 3aae2 .cfa: sp 20 + .ra: .cfa -4 + ^ r7: .cfa -8 + ^ r6: .cfa -12 + ^ r5: .cfa -16 + ^ r4: .cfa -20 + ^
STACK CFI 3aae4 .cfa: r7 8 +
STACK CFI 3aae8 r11: .cfa -24 + ^ r10: .cfa -28 + ^ r9: .cfa -32 + ^ r8: .cfa -36 + ^
STACK CFI INIT 0 18 .cfa: sp 0 +
STACK CFI 2 .cfa: sp 8 + .ra: .cfa -4 + ^ r7: .cfa -8 + ^
STACK CFI 4 .cfa: r7 8 +
STACK CFI INIT 0 4 .cfa: sp 0 +
STACK CFI INIT 3b350 108 .cfa: sp 0 +
STACK CFI 3b352 .cfa: sp 20 + .ra: .cfa -4 + ^ r7: .cfa -8 + ^ r6: .cfa -12 + ^ r5: .cfa -16 + ^ r4: .cfa -20 + ^
STACK CFI 3b354 .cfa: r7 8 +
STACK CFI 3b358 r11: .cfa -24 + ^ r10: .cfa -28 + ^ r9: .cfa -32 + ^ r8: .cfa -36 + ^
STACK CFI INIT 3b460 360 .cfa: sp 0 +
STACK CFI 3b462 .cfa: sp 20 + .ra: .cfa -4 + ^ r7: .cfa -8 + ^ r6: .cfa -12 + ^ r5: .cfa -16 + ^ r4: .cfa -20 + ^
STACK CFI 3b464 .cfa: r7 8 +
STACK CFI 3b468 r11: .cfa -24 + ^ r10: .cfa -28 + ^ r9: .cfa -32 + ^ r8: .cfa -36 + ^
STACK CFI INIT 3b7c0 4a0 .cfa: sp 0 +
STACK CFI 3b7c2 .cfa: sp 20 + .ra: .cfa -4 + ^ r7: .cfa -8 + ^ r6: .cfa -12 + ^ r5: .cfa -16 + ^ r4: .cfa -20 + ^
STACK CFI 3b7c4 .cfa: r7 8 +
STACK CFI 3b7c8 r11: .cfa -24 + ^ r10: .cfa -28 + ^ r9: .cfa -32 + ^ r8: .cfa -36 + ^
STACK CFI INIT 3bc60 10 .cfa: sp 0 +
STACK CFI 3bc62 .cfa: sp 8 + .ra: .cfa -4 + ^ r7: .cfa -8 + ^
STACK CFI 3bc64 .cfa: r7 8 +
STACK CFI INIT 0 4 .cfa: sp 0 +
STACK CFI INIT 3bc70 d6c .cfa: sp 0 +
STACK CFI 3bc72 .cfa: sp 20 + .ra: .cfa -4 + ^ r7: .cfa -8 + ^ r6: .cfa -12 + ^ r5: .cfa -16 + ^ r4: .cfa -20 + ^
STACK CFI 3bc74 .cfa: r7 8 +
STACK CFI 3bc78 r11: .cfa -24 + ^ r10: .cfa -28 + ^ r9: .cfa -32 + ^ r8: .cfa -36 + ^
STACK CFI INIT 3c9dc 8 .cfa: sp 0 +
STACK CFI INIT 3c9e4 10 .cfa: sp 0 +
STACK CFI 3c9e6 .cfa: sp 8 + .ra: .cfa -4 + ^ r7: .cfa -8 + ^
STACK CFI 3c9e8 .cfa: r7 8 +
STACK CFI INIT 3c9f4 14 .cfa: sp 0 +
STACK CFI 3c9f6 .cfa: sp 8 + .ra: .cfa -4 + ^ r7: .cfa -8 + ^
STACK CFI 3c9f8 .cfa: r7 8 +
STACK CFI INIT 0 e .cfa: sp 0 +
STACK CFI 2 .cfa: sp 8 + .ra: .cfa -4 + ^ r7: .cfa -8 + ^
STACK CFI 4 .cfa: r7 8 +
STACK CFI INIT 3ca08 f0 .cfa: sp 0 +
STACK CFI 3ca0a .cfa: sp 20 + .ra: .cfa -4 + ^ r7: .cfa -8 + ^ r6: .cfa -12 + ^ r5: .cfa -16 + ^ r4: .cfa -20 + ^
STACK CFI 3ca0c .cfa: r7 8 +
STACK CFI 3ca10 r11: .cfa -24 + ^ r10: .cfa -28 + ^ r9: .cfa -32 + ^ r8: .cfa -36 + ^
STACK CFI INIT 3cb00 470 .cfa: sp 0 +
STACK CFI 3cb02 .cfa: sp 20 + .ra: .cfa -4 + ^ r7: .cfa -8 + ^ r6: .cfa -12 + ^ r5: .cfa -16 + ^ r4: .cfa -20 + ^
STACK CFI 3cb04 .cfa: r7 8 +
STACK CFI 3cb08 r11: .cfa -24 + ^ r10: .cfa -28 + ^ r9: .cfa -32 + ^ r8: .cfa -36 + ^
STACK CFI INIT 3cf70 18 .cfa: sp 0 +
STACK CFI 3cf72 .cfa: sp 8 + .ra: .cfa -4 + ^ r7: .cfa -8 + ^
STACK CFI 3cf74 .cfa: r7 8 +
STACK CFI INIT 3cf88 fc .cfa: sp 0 +
STACK CFI 3cf8a .cfa: sp 20 + .ra: .cfa -4 + ^ r7: .cfa -8 + ^ r6: .cfa -12 + ^ r5: .cfa -16 + ^ r4: .cfa -20 + ^
STACK CFI 3cf8c .cfa: r7 8 +
STACK CFI 3cf90 r10: .cfa -24 + ^ r9: .cfa -28 + ^ r8: .cfa -32 + ^
STACK CFI INIT 3d090 570 .cfa: sp 0 +
STACK CFI 3d092 .cfa: sp 20 + .ra: .cfa -4 + ^ r7: .cfa -8 + ^ r6: .cfa -12 + ^ r5: .cfa -16 + ^ r4: .cfa -20 + ^
STACK CFI 3d094 .cfa: r7 8 +
STACK CFI 3d098 r11: .cfa -24 + ^ r10: .cfa -28 + ^ r9: .cfa -32 + ^ r8: .cfa -36 + ^
STACK CFI INIT 3d600 24 .cfa: sp 0 +
STACK CFI 3d602 .cfa: sp 8 + .ra: .cfa -4 + ^ r7: .cfa -8 + ^
STACK CFI 3d604 .cfa: r7 8 +
STACK CFI INIT 3d624 ec .cfa: sp 0 +
STACK CFI 3d626 .cfa: sp 20 + .ra: .cfa -4 + ^ r7: .cfa -8 + ^ r6: .cfa -12 + ^ r5: .cfa -16 + ^ r4: .cfa -20 + ^
STACK CFI 3d628 .cfa: r7 8 +
STACK CFI 3d62c r11: .cfa -24 + ^ r10: .cfa -28 + ^ r9: .cfa -32 + ^ r8: .cfa -36 + ^
STACK CFI INIT 3d710 260 .cfa: sp 0 +
STACK CFI 3d712 .cfa: sp 20 + .ra: .cfa -4 + ^ r7: .cfa -8 + ^ r6: .cfa -12 + ^ r5: .cfa -16 + ^ r4: .cfa -20 + ^
STACK CFI 3d714 .cfa: r7 8 +
STACK CFI 3d718 r11: .cfa -24 + ^ r10: .cfa -28 + ^ r9: .cfa -32 + ^ r8: .cfa -36 + ^
STACK CFI INIT 3d970 10 .cfa: sp 0 +
STACK CFI INIT 3d980 e8 .cfa: sp 0 +
STACK CFI 3d982 .cfa: sp 20 + .ra: .cfa -4 + ^ r7: .cfa -8 + ^ r6: .cfa -12 + ^ r5: .cfa -16 + ^ r4: .cfa -20 + ^
STACK CFI 3d984 .cfa: r7 8 +
STACK CFI 3d988 r10: .cfa -24 + ^ r9: .cfa -28 + ^ r8: .cfa -32 + ^
STACK CFI INIT 3da70 b0 .cfa: sp 0 +
STACK CFI 3da72 .cfa: sp 20 + .ra: .cfa -4 + ^ r7: .cfa -8 + ^ r6: .cfa -12 + ^ r5: .cfa -16 + ^ r4: .cfa -20 + ^
STACK CFI 3da74 .cfa: r7 8 +
STACK CFI 3da78 r8: .cfa -24 + ^
STACK CFI INIT 3db20 2 .cfa: sp 0 +
STACK CFI INIT 3db22 4 .cfa: sp 0 +
STACK CFI INIT 3db26 8 .cfa: sp 0 +
STACK CFI INIT 3db2e 2 .cfa: sp 0 +
STACK CFI INIT 3db30 ec .cfa: sp 0 +
STACK CFI 3db32 .cfa: sp 20 + .ra: .cfa -4 + ^ r7: .cfa -8 + ^ r6: .cfa -12 + ^ r5: .cfa -16 + ^ r4: .cfa -20 + ^
STACK CFI 3db34 .cfa: r7 8 +
STACK CFI 3db38 r11: .cfa -24 + ^ r10: .cfa -28 + ^ r9: .cfa -32 + ^ r8: .cfa -36 + ^
STACK CFI INIT 3dc20 360 .cfa: sp 0 +
STACK CFI 3dc22 .cfa: sp 20 + .ra: .cfa -4 + ^ r7: .cfa -8 + ^ r6: .cfa -12 + ^ r5: .cfa -16 + ^ r4: .cfa -20 + ^
STACK CFI 3dc24 .cfa: r7 8 +
STACK CFI 3dc28 r11: .cfa -24 + ^ r10: .cfa -28 + ^ r9: .cfa -32 + ^ r8: .cfa -36 + ^
STACK CFI INIT 3df80 fc .cfa: sp 0 +
STACK CFI 3df82 .cfa: sp 20 + .ra: .cfa -4 + ^ r7: .cfa -8 + ^ r6: .cfa -12 + ^ r5: .cfa -16 + ^ r4: .cfa -20 + ^
STACK CFI 3df84 .cfa: r7 8 +
STACK CFI 3df88 r11: .cfa -24 + ^ r10: .cfa -28 + ^ r9: .cfa -32 + ^ r8: .cfa -36 + ^
STACK CFI INIT 3e080 570 .cfa: sp 0 +
STACK CFI 3e082 .cfa: sp 20 + .ra: .cfa -4 + ^ r7: .cfa -8 + ^ r6: .cfa -12 + ^ r5: .cfa -16 + ^ r4: .cfa -20 + ^
STACK CFI 3e084 .cfa: r7 8 +
STACK CFI 3e088 r11: .cfa -24 + ^ r10: .cfa -28 + ^ r9: .cfa -32 + ^ r8: .cfa -36 + ^
STACK CFI INIT 3e5f0 e8 .cfa: sp 0 +
STACK CFI 3e5f2 .cfa: sp 20 + .ra: .cfa -4 + ^ r7: .cfa -8 + ^ r6: .cfa -12 + ^ r5: .cfa -16 + ^ r4: .cfa -20 + ^
STACK CFI 3e5f4 .cfa: r7 8 +
STACK CFI 3e5f8 r10: .cfa -24 + ^ r9: .cfa -28 + ^ r8: .cfa -32 + ^
STACK CFI INIT 3e6e0 b0 .cfa: sp 0 +
STACK CFI 3e6e2 .cfa: sp 20 + .ra: .cfa -4 + ^ r7: .cfa -8 + ^ r6: .cfa -12 + ^ r5: .cfa -16 + ^ r4: .cfa -20 + ^
STACK CFI 3e6e4 .cfa: r7 8 +
STACK CFI 3e6e8 r8: .cfa -24 + ^
STACK CFI INIT 3e790 2 .cfa: sp 0 +
STACK CFI INIT 3e794 294 .cfa: sp 0 +
STACK CFI 3e796 .cfa: sp 20 + .ra: .cfa -4 + ^ r7: .cfa -8 + ^ r6: .cfa -12 + ^ r5: .cfa -16 + ^ r4: .cfa -20 + ^
STACK CFI 3e798 .cfa: r7 8 +
STACK CFI 3e79c r11: .cfa -24 + ^ r10: .cfa -28 + ^ r9: .cfa -32 + ^ r8: .cfa -36 + ^
STACK CFI INIT 3ea28 294 .cfa: sp 0 +
STACK CFI 3ea2a .cfa: sp 20 + .ra: .cfa -4 + ^ r7: .cfa -8 + ^ r6: .cfa -12 + ^ r5: .cfa -16 + ^ r4: .cfa -20 + ^
STACK CFI 3ea2c .cfa: r7 8 +
STACK CFI 3ea30 r11: .cfa -24 + ^ r10: .cfa -28 + ^ r9: .cfa -32 + ^ r8: .cfa -36 + ^
STACK CFI INIT 3ecbc 22c .cfa: sp 0 +
STACK CFI 3ecbe .cfa: sp 20 + .ra: .cfa -4 + ^ r7: .cfa -8 + ^ r6: .cfa -12 + ^ r5: .cfa -16 + ^ r4: .cfa -20 + ^
STACK CFI 3ecc0 .cfa: r7 8 +
STACK CFI 3ecc4 r11: .cfa -24 + ^ r10: .cfa -28 + ^ r9: .cfa -32 + ^ r8: .cfa -36 + ^
STACK CFI INIT 3eee8 274 .cfa: sp 0 +
STACK CFI 3eeea .cfa: sp 20 + .ra: .cfa -4 + ^ r7: .cfa -8 + ^ r6: .cfa -12 + ^ r5: .cfa -16 + ^ r4: .cfa -20 + ^
STACK CFI 3eeec .cfa: r7 8 +
STACK CFI 3eef0 r11: .cfa -24 + ^ r10: .cfa -28 + ^ r9: .cfa -32 + ^ r8: .cfa -36 + ^
STACK CFI INIT 3f15c 42c .cfa: sp 0 +
STACK CFI 3f15e .cfa: sp 20 + .ra: .cfa -4 + ^ r7: .cfa -8 + ^ r6: .cfa -12 + ^ r5: .cfa -16 + ^ r4: .cfa -20 + ^
STACK CFI 3f160 .cfa: r7 8 +
STACK CFI 3f164 r11: .cfa -24 + ^ r10: .cfa -28 + ^ r9: .cfa -32 + ^ r8: .cfa -36 + ^
STACK CFI INIT 3f588 f8 .cfa: sp 0 +
STACK CFI 3f58a .cfa: sp 20 + .ra: .cfa -4 + ^ r7: .cfa -8 + ^ r6: .cfa -12 + ^ r5: .cfa -16 + ^ r4: .cfa -20 + ^
STACK CFI 3f58c .cfa: r7 8 +
STACK CFI 3f590 r8: .cfa -24 + ^
STACK CFI INIT 3f680 2 .cfa: sp 0 +
STACK CFI INIT 3f682 e .cfa: sp 0 +
STACK CFI INIT 3f690 3ea .cfa: sp 0 +
STACK CFI 3f692 .cfa: sp 20 + .ra: .cfa -4 + ^ r7: .cfa -8 + ^ r6: .cfa -12 + ^ r5: .cfa -16 + ^ r4: .cfa -20 + ^
STACK CFI 3f694 .cfa: r7 8 +
STACK CFI 3f698 r11: .cfa -24 + ^ r10: .cfa -28 + ^ r9: .cfa -32 + ^ r8: .cfa -36 + ^
STACK CFI INIT 3fa7c 1cc .cfa: sp 0 +
STACK CFI 3fa7e .cfa: sp 20 + .ra: .cfa -4 + ^ r7: .cfa -8 + ^ r6: .cfa -12 + ^ r5: .cfa -16 + ^ r4: .cfa -20 + ^
STACK CFI 3fa80 .cfa: r7 8 +
STACK CFI 3fa84 r11: .cfa -24 + ^ r10: .cfa -28 + ^ r9: .cfa -32 + ^ r8: .cfa -36 + ^
STACK CFI INIT 3fc48 44 .cfa: sp 0 +
STACK CFI 3fc4a .cfa: sp 16 + .ra: .cfa -4 + ^ r7: .cfa -8 + ^ r6: .cfa -12 + ^ r4: .cfa -16 + ^
STACK CFI 3fc4c .cfa: r7 8 +
STACK CFI INIT 3fc8c 38 .cfa: sp 0 +
STACK CFI 3fc8e .cfa: sp 16 + .ra: .cfa -4 + ^ r7: .cfa -8 + ^ r5: .cfa -12 + ^ r4: .cfa -16 + ^
STACK CFI 3fc90 .cfa: r7 8 +
STACK CFI INIT 3fcc4 18 .cfa: sp 0 +
STACK CFI 3fcc6 .cfa: sp 8 + .ra: .cfa -4 + ^ r7: .cfa -8 + ^
STACK CFI 3fcc8 .cfa: r7 8 +
STACK CFI INIT 3fcdc 420 .cfa: sp 0 +
STACK CFI 3fcde .cfa: sp 20 + .ra: .cfa -4 + ^ r7: .cfa -8 + ^ r6: .cfa -12 + ^ r5: .cfa -16 + ^ r4: .cfa -20 + ^
STACK CFI 3fce0 .cfa: r7 8 +
STACK CFI 3fce4 r11: .cfa -24 + ^ r10: .cfa -28 + ^ r9: .cfa -32 + ^ r8: .cfa -36 + ^
STACK CFI INIT 400fc 30 .cfa: sp 0 +
STACK CFI 400fe .cfa: sp 16 + .ra: .cfa -4 + ^ r7: .cfa -8 + ^ r6: .cfa -12 + ^ r4: .cfa -16 + ^
STACK CFI 40100 .cfa: r7 8 +
STACK CFI INIT 4012c c0 .cfa: sp 0 +
STACK CFI 4012e .cfa: sp 20 + .ra: .cfa -4 + ^ r7: .cfa -8 + ^ r6: .cfa -12 + ^ r5: .cfa -16 + ^ r4: .cfa -20 + ^
STACK CFI 40130 .cfa: r7 8 +
STACK CFI 40134 r11: .cfa -24 + ^ r9: .cfa -28 + ^ r8: .cfa -32 + ^
STACK CFI INIT 401ec 1ac .cfa: sp 0 +
STACK CFI 401ee .cfa: sp 20 + .ra: .cfa -4 + ^ r7: .cfa -8 + ^ r6: .cfa -12 + ^ r5: .cfa -16 + ^ r4: .cfa -20 + ^
STACK CFI 401f0 .cfa: r7 8 +
STACK CFI 401f4 r11: .cfa -24 + ^ r10: .cfa -28 + ^ r9: .cfa -32 + ^ r8: .cfa -36 + ^
STACK CFI INIT 40398 278 .cfa: sp 0 +
STACK CFI 4039a .cfa: sp 20 + .ra: .cfa -4 + ^ r7: .cfa -8 + ^ r6: .cfa -12 + ^ r5: .cfa -16 + ^ r4: .cfa -20 + ^
STACK CFI 4039c .cfa: r7 8 +
STACK CFI 403a0 r10: .cfa -24 + ^ r9: .cfa -28 + ^ r8: .cfa -32 + ^
STACK CFI INIT 40610 228 .cfa: sp 0 +
STACK CFI 40612 .cfa: sp 20 + .ra: .cfa -4 + ^ r7: .cfa -8 + ^ r6: .cfa -12 + ^ r5: .cfa -16 + ^ r4: .cfa -20 + ^
STACK CFI 40614 .cfa: r7 8 +
STACK CFI 40618 r11: .cfa -24 + ^
STACK CFI INIT 40838 384 .cfa: sp 0 +
STACK CFI 4083a .cfa: sp 20 + .ra: .cfa -4 + ^ r7: .cfa -8 + ^ r6: .cfa -12 + ^ r5: .cfa -16 + ^ r4: .cfa -20 + ^
STACK CFI 4083c .cfa: r7 8 +
STACK CFI 40840 r11: .cfa -24 + ^ r10: .cfa -28 + ^ r9: .cfa -32 + ^ r8: .cfa -36 + ^
STACK CFI INIT 40bbc 880 .cfa: sp 0 +
STACK CFI 40bbe .cfa: sp 20 + .ra: .cfa -4 + ^ r7: .cfa -8 + ^ r6: .cfa -12 + ^ r5: .cfa -16 + ^ r4: .cfa -20 + ^
STACK CFI 40bc0 .cfa: r7 8 +
STACK CFI 40bc4 r11: .cfa -24 + ^ r10: .cfa -28 + ^ r9: .cfa -32 + ^ r8: .cfa -36 + ^
STACK CFI INIT 4143c 4c .cfa: sp 0 +
STACK CFI 4143e .cfa: sp 20 + .ra: .cfa -4 + ^ r7: .cfa -8 + ^ r6: .cfa -12 + ^ r5: .cfa -16 + ^ r4: .cfa -20 + ^
STACK CFI 41440 .cfa: r7 8 +
STACK CFI 41444 r8: .cfa -24 + ^
STACK CFI INIT 41488 48 .cfa: sp 0 +
STACK CFI 4148a .cfa: sp 16 + .ra: .cfa -4 + ^ r7: .cfa -8 + ^ r6: .cfa -12 + ^ r4: .cfa -16 + ^
STACK CFI 4148c .cfa: r7 8 +
STACK CFI INIT 414d0 10 .cfa: sp 0 +
STACK CFI 414d2 .cfa: sp 8 + .ra: .cfa -4 + ^ r7: .cfa -8 + ^
STACK CFI 414d4 .cfa: r7 8 +
STACK CFI INIT 414e0 9a .cfa: sp 0 +
STACK CFI 414e2 .cfa: sp 20 + .ra: .cfa -4 + ^ r7: .cfa -8 + ^ r6: .cfa -12 + ^ r5: .cfa -16 + ^ r4: .cfa -20 + ^
STACK CFI 414e4 .cfa: r7 8 +
STACK CFI 414e8 r11: .cfa -24 + ^ r9: .cfa -28 + ^ r8: .cfa -32 + ^
STACK CFI INIT 4157c 54 .cfa: sp 0 +
STACK CFI 4157e .cfa: sp 8 + .ra: .cfa -4 + ^ r7: .cfa -8 + ^
STACK CFI 41580 .cfa: r7 8 +
STACK CFI INIT 415d0 34 .cfa: sp 0 +
STACK CFI 415d2 .cfa: sp 16 + .ra: .cfa -4 + ^ r7: .cfa -8 + ^ r5: .cfa -12 + ^ r4: .cfa -16 + ^
STACK CFI 415d4 .cfa: r7 8 +
STACK CFI INIT 41604 2c .cfa: sp 0 +
STACK CFI 41606 .cfa: sp 16 + .ra: .cfa -4 + ^ r7: .cfa -8 + ^ r5: .cfa -12 + ^ r4: .cfa -16 + ^
STACK CFI 41608 .cfa: r7 8 +
STACK CFI INIT 41630 74 .cfa: sp 0 +
STACK CFI 41632 .cfa: sp 8 + .ra: .cfa -4 + ^ r7: .cfa -8 + ^
STACK CFI 41634 .cfa: r7 8 +
STACK CFI INIT 416a4 1b0 .cfa: sp 0 +
STACK CFI 416a6 .cfa: sp 20 + .ra: .cfa -4 + ^ r7: .cfa -8 + ^ r6: .cfa -12 + ^ r5: .cfa -16 + ^ r4: .cfa -20 + ^
STACK CFI 416a8 .cfa: r7 8 +
STACK CFI 416ac r10: .cfa -24 + ^ r9: .cfa -28 + ^ r8: .cfa -32 + ^
STACK CFI INIT 41854 9a .cfa: sp 0 +
STACK CFI 41856 .cfa: sp 20 + .ra: .cfa -4 + ^ r7: .cfa -8 + ^ r6: .cfa -12 + ^ r5: .cfa -16 + ^ r4: .cfa -20 + ^
STACK CFI 41858 .cfa: r7 8 +
STACK CFI 4185c r11: .cfa -24 + ^ r9: .cfa -28 + ^ r8: .cfa -32 + ^
STACK CFI INIT 418f0 174 .cfa: sp 0 +
STACK CFI 418f2 .cfa: sp 20 + .ra: .cfa -4 + ^ r7: .cfa -8 + ^ r6: .cfa -12 + ^ r5: .cfa -16 + ^ r4: .cfa -20 + ^
STACK CFI 418f4 .cfa: r7 8 +
STACK CFI 418f8 r10: .cfa -24 + ^ r9: .cfa -28 + ^ r8: .cfa -32 + ^
STACK CFI INIT 41a64 218 .cfa: sp 0 +
STACK CFI 41a66 .cfa: sp 20 + .ra: .cfa -4 + ^ r7: .cfa -8 + ^ r6: .cfa -12 + ^ r5: .cfa -16 + ^ r4: .cfa -20 + ^
STACK CFI 41a68 .cfa: r7 8 +
STACK CFI 41a6c r11: .cfa -24 + ^ r10: .cfa -28 + ^ r9: .cfa -32 + ^ r8: .cfa -36 + ^
STACK CFI INIT 41c7c 1dc .cfa: sp 0 +
STACK CFI 41c7e .cfa: sp 20 + .ra: .cfa -4 + ^ r7: .cfa -8 + ^ r6: .cfa -12 + ^ r5: .cfa -16 + ^ r4: .cfa -20 + ^
STACK CFI 41c80 .cfa: r7 8 +
STACK CFI 41c84 r11: .cfa -24 + ^ r10: .cfa -28 + ^ r9: .cfa -32 + ^ r8: .cfa -36 + ^
STACK CFI INIT 41e58 188 .cfa: sp 0 +
STACK CFI 41e5a .cfa: sp 20 + .ra: .cfa -4 + ^ r7: .cfa -8 + ^ r6: .cfa -12 + ^ r5: .cfa -16 + ^ r4: .cfa -20 + ^
STACK CFI 41e5c .cfa: r7 8 +
STACK CFI 41e60 r11: .cfa -24 + ^ r10: .cfa -28 + ^ r9: .cfa -32 + ^ r8: .cfa -36 + ^
STACK CFI INIT 41fe0 9f8 .cfa: sp 0 +
STACK CFI 41fe2 .cfa: sp 20 + .ra: .cfa -4 + ^ r7: .cfa -8 + ^ r6: .cfa -12 + ^ r5: .cfa -16 + ^ r4: .cfa -20 + ^
STACK CFI 41fe4 .cfa: r7 8 +
STACK CFI 41fe8 r11: .cfa -24 + ^ r10: .cfa -28 + ^ r9: .cfa -32 + ^ r8: .cfa -36 + ^
STACK CFI INIT 429d8 184 .cfa: sp 0 +
STACK CFI 429da .cfa: sp 20 + .ra: .cfa -4 + ^ r7: .cfa -8 + ^ r6: .cfa -12 + ^ r5: .cfa -16 + ^ r4: .cfa -20 + ^
STACK CFI 429dc .cfa: r7 8 +
STACK CFI 429e0 r11: .cfa -24 + ^ r10: .cfa -28 + ^ r9: .cfa -32 + ^ r8: .cfa -36 + ^
STACK CFI INIT 42b60 73c .cfa: sp 0 +
STACK CFI 42b62 .cfa: sp 20 + .ra: .cfa -4 + ^ r7: .cfa -8 + ^ r6: .cfa -12 + ^ r5: .cfa -16 + ^ r4: .cfa -20 + ^
STACK CFI 42b64 .cfa: r7 8 +
STACK CFI 42b68 r11: .cfa -24 + ^ r10: .cfa -28 + ^ r9: .cfa -32 + ^ r8: .cfa -36 + ^
STACK CFI INIT 4329c 140 .cfa: sp 0 +
STACK CFI 4329e .cfa: sp 20 + .ra: .cfa -4 + ^ r7: .cfa -8 + ^ r6: .cfa -12 + ^ r5: .cfa -16 + ^ r4: .cfa -20 + ^
STACK CFI 432a0 .cfa: r7 8 +
STACK CFI 432a4 r11: .cfa -24 + ^ r10: .cfa -28 + ^ r9: .cfa -32 + ^ r8: .cfa -36 + ^
STACK CFI INIT 433dc e0 .cfa: sp 0 +
STACK CFI 433de .cfa: sp 20 + .ra: .cfa -4 + ^ r7: .cfa -8 + ^ r6: .cfa -12 + ^ r5: .cfa -16 + ^ r4: .cfa -20 + ^
STACK CFI 433e0 .cfa: r7 8 +
STACK CFI 433e4 r8: .cfa -24 + ^
STACK CFI INIT 434bc 194 .cfa: sp 0 +
STACK CFI 434be .cfa: sp 20 + .ra: .cfa -4 + ^ r7: .cfa -8 + ^ r6: .cfa -12 + ^ r5: .cfa -16 + ^ r4: .cfa -20 + ^
STACK CFI 434c0 .cfa: r7 8 +
STACK CFI 434c4 r8: .cfa -24 + ^
STACK CFI INIT 43650 22 .cfa: sp 0 +
STACK CFI 43652 .cfa: sp 16 + .ra: .cfa -4 + ^ r7: .cfa -8 + ^ r6: .cfa -12 + ^ r4: .cfa -16 + ^
STACK CFI 43654 .cfa: r7 8 +
STACK CFI INIT 43674 104 .cfa: sp 0 +
STACK CFI 43676 .cfa: sp 20 + .ra: .cfa -4 + ^ r7: .cfa -8 + ^ r6: .cfa -12 + ^ r5: .cfa -16 + ^ r4: .cfa -20 + ^
STACK CFI 43678 .cfa: r7 8 +
STACK CFI 4367c r10: .cfa -24 + ^ r9: .cfa -28 + ^ r8: .cfa -32 + ^
STACK CFI INIT 43778 144 .cfa: sp 0 +
STACK CFI 4377a .cfa: sp 20 + .ra: .cfa -4 + ^ r7: .cfa -8 + ^ r6: .cfa -12 + ^ r5: .cfa -16 + ^ r4: .cfa -20 + ^
STACK CFI 4377c .cfa: r7 8 +
STACK CFI 43780 r11: .cfa -24 + ^ r9: .cfa -28 + ^ r8: .cfa -32 + ^
STACK CFI INIT 438bc 21c .cfa: sp 0 +
STACK CFI 438be .cfa: sp 20 + .ra: .cfa -4 + ^ r7: .cfa -8 + ^ r6: .cfa -12 + ^ r5: .cfa -16 + ^ r4: .cfa -20 + ^
STACK CFI 438c0 .cfa: r7 8 +
STACK CFI 438c4 r11: .cfa -24 + ^ r10: .cfa -28 + ^ r9: .cfa -32 + ^ r8: .cfa -36 + ^
STACK CFI INIT 43ad8 6e .cfa: sp 0 +
STACK CFI 43ada .cfa: sp 20 + .ra: .cfa -4 + ^ r7: .cfa -8 + ^ r6: .cfa -12 + ^ r5: .cfa -16 + ^ r4: .cfa -20 + ^
STACK CFI 43adc .cfa: r7 8 +
STACK CFI 43ae0 r8: .cfa -24 + ^
STACK CFI INIT 43b50 e4 .cfa: sp 0 +
STACK CFI 43b52 .cfa: sp 20 + .ra: .cfa -4 + ^ r7: .cfa -8 + ^ r6: .cfa -12 + ^ r5: .cfa -16 + ^ r4: .cfa -20 + ^
STACK CFI 43b54 .cfa: r7 8 +
STACK CFI 43b58 r11: .cfa -24 + ^
STACK CFI INIT 43c34 9ac .cfa: sp 0 +
STACK CFI 43c36 .cfa: sp 20 + .ra: .cfa -4 + ^ r7: .cfa -8 + ^ r6: .cfa -12 + ^ r5: .cfa -16 + ^ r4: .cfa -20 + ^
STACK CFI 43c38 .cfa: r7 8 +
STACK CFI 43c3c r11: .cfa -24 + ^ r10: .cfa -28 + ^ r9: .cfa -32 + ^ r8: .cfa -36 + ^
STACK CFI INIT 445e0 e8 .cfa: sp 0 +
STACK CFI 445e2 .cfa: sp 20 + .ra: .cfa -4 + ^ r7: .cfa -8 + ^ r6: .cfa -12 + ^ r5: .cfa -16 + ^ r4: .cfa -20 + ^
STACK CFI 445e4 .cfa: r7 8 +
STACK CFI 445e8 r8: .cfa -24 + ^
STACK CFI INIT 446c8 19c .cfa: sp 0 +
STACK CFI 446ca .cfa: sp 20 + .ra: .cfa -4 + ^ r7: .cfa -8 + ^ r6: .cfa -12 + ^ r5: .cfa -16 + ^ r4: .cfa -20 + ^
STACK CFI 446cc .cfa: r7 8 +
STACK CFI 446d0 r11: .cfa -24 + ^ r10: .cfa -28 + ^ r9: .cfa -32 + ^ r8: .cfa -36 + ^
STACK CFI INIT 44870 e4 .cfa: sp 0 +
STACK CFI 44872 .cfa: sp 20 + .ra: .cfa -4 + ^ r7: .cfa -8 + ^ r6: .cfa -12 + ^ r5: .cfa -16 + ^ r4: .cfa -20 + ^
STACK CFI 44874 .cfa: r7 8 +
STACK CFI 44878 r11: .cfa -24 + ^
STACK CFI INIT 44954 150 .cfa: sp 0 +
STACK CFI 44956 .cfa: sp 20 + .ra: .cfa -4 + ^ r7: .cfa -8 + ^ r6: .cfa -12 + ^ r5: .cfa -16 + ^ r4: .cfa -20 + ^
STACK CFI 44958 .cfa: r7 8 +
STACK CFI 4495c r11: .cfa -24 + ^ r10: .cfa -28 + ^ r9: .cfa -32 + ^ r8: .cfa -36 + ^
STACK CFI INIT 44aa8 1064 .cfa: sp 0 +
STACK CFI 44aaa .cfa: sp 20 + .ra: .cfa -4 + ^ r7: .cfa -8 + ^ r6: .cfa -12 + ^ r5: .cfa -16 + ^ r4: .cfa -20 + ^
STACK CFI 44aac .cfa: r7 8 +
STACK CFI 44ab0 r11: .cfa -24 + ^ r10: .cfa -28 + ^ r9: .cfa -32 + ^ r8: .cfa -36 + ^
STACK CFI INIT 45b0c b78 .cfa: sp 0 +
STACK CFI 45b0e .cfa: sp 20 + .ra: .cfa -4 + ^ r7: .cfa -8 + ^ r6: .cfa -12 + ^ r5: .cfa -16 + ^ r4: .cfa -20 + ^
STACK CFI 45b10 .cfa: r7 8 +
STACK CFI 45b14 r11: .cfa -24 + ^ r10: .cfa -28 + ^ r9: .cfa -32 + ^ r8: .cfa -36 + ^
STACK CFI INIT 46684 3a4 .cfa: sp 0 +
STACK CFI 46686 .cfa: sp 20 + .ra: .cfa -4 + ^ r7: .cfa -8 + ^ r6: .cfa -12 + ^ r5: .cfa -16 + ^ r4: .cfa -20 + ^
STACK CFI 46688 .cfa: r7 8 +
STACK CFI 4668c r11: .cfa -24 + ^ r10: .cfa -28 + ^ r9: .cfa -32 + ^ r8: .cfa -36 + ^
STACK CFI INIT 46a28 ebc .cfa: sp 0 +
STACK CFI 46a2a .cfa: sp 20 + .ra: .cfa -4 + ^ r7: .cfa -8 + ^ r6: .cfa -12 + ^ r5: .cfa -16 + ^ r4: .cfa -20 + ^
STACK CFI 46a2c .cfa: r7 8 +
STACK CFI 46a30 r11: .cfa -24 + ^ r10: .cfa -28 + ^ r9: .cfa -32 + ^ r8: .cfa -36 + ^
STACK CFI INIT 478e4 10c .cfa: sp 0 +
STACK CFI 478e6 .cfa: sp 20 + .ra: .cfa -4 + ^ r7: .cfa -8 + ^ r6: .cfa -12 + ^ r5: .cfa -16 + ^ r4: .cfa -20 + ^
STACK CFI 478e8 .cfa: r7 8 +
STACK CFI 478ec r11: .cfa -24 + ^ r10: .cfa -28 + ^ r9: .cfa -32 + ^ r8: .cfa -36 + ^
STACK CFI INIT 479f0 c4 .cfa: sp 0 +
STACK CFI 47a0e .cfa: sp 20 + .ra: .cfa -4 + ^ r7: .cfa -8 + ^ r6: .cfa -12 + ^ r5: .cfa -16 + ^ r4: .cfa -20 + ^
STACK CFI 47a10 .cfa: r7 8 +
STACK CFI 47a14 r8: .cfa -24 + ^
STACK CFI INIT 47ab4 414 .cfa: sp 0 +
STACK CFI 47ab6 .cfa: sp 20 + .ra: .cfa -4 + ^ r7: .cfa -8 + ^ r6: .cfa -12 + ^ r5: .cfa -16 + ^ r4: .cfa -20 + ^
STACK CFI 47ab8 .cfa: r7 8 +
STACK CFI 47abc r11: .cfa -24 + ^ r10: .cfa -28 + ^ r9: .cfa -32 + ^ r8: .cfa -36 + ^
STACK CFI INIT 47ec8 276 .cfa: sp 0 +
STACK CFI 47eca .cfa: sp 20 + .ra: .cfa -4 + ^ r7: .cfa -8 + ^ r6: .cfa -12 + ^ r5: .cfa -16 + ^ r4: .cfa -20 + ^
STACK CFI 47ecc .cfa: r7 8 +
STACK CFI 47ed0 r11: .cfa -24 + ^ r10: .cfa -28 + ^ r9: .cfa -32 + ^ r8: .cfa -36 + ^
STACK CFI INIT 4813e 6e .cfa: sp 0 +
STACK CFI 48140 .cfa: sp 20 + .ra: .cfa -4 + ^ r7: .cfa -8 + ^ r6: .cfa -12 + ^ r5: .cfa -16 + ^ r4: .cfa -20 + ^
STACK CFI 48142 .cfa: r7 8 +
STACK CFI 48146 r8: .cfa -24 + ^
STACK CFI INIT 481ac 994 .cfa: sp 0 +
STACK CFI 481ae .cfa: sp 20 + .ra: .cfa -4 + ^ r7: .cfa -8 + ^ r6: .cfa -12 + ^ r5: .cfa -16 + ^ r4: .cfa -20 + ^
STACK CFI 481b0 .cfa: r7 8 +
STACK CFI 481b4 r11: .cfa -24 + ^ r10: .cfa -28 + ^ r9: .cfa -32 + ^ r8: .cfa -36 + ^
STACK CFI INIT 48b40 e0 .cfa: sp 0 +
STACK CFI 48b42 .cfa: sp 20 + .ra: .cfa -4 + ^ r7: .cfa -8 + ^ r6: .cfa -12 + ^ r5: .cfa -16 + ^ r4: .cfa -20 + ^
STACK CFI 48b44 .cfa: r7 8 +
STACK CFI 48b48 r11: .cfa -24 + ^ r10: .cfa -28 + ^ r9: .cfa -32 + ^ r8: .cfa -36 + ^
STACK CFI INIT 48c20 544 .cfa: sp 0 +
STACK CFI 48c22 .cfa: sp 20 + .ra: .cfa -4 + ^ r7: .cfa -8 + ^ r6: .cfa -12 + ^ r5: .cfa -16 + ^ r4: .cfa -20 + ^
STACK CFI 48c24 .cfa: r7 8 +
STACK CFI 48c28 r11: .cfa -24 + ^ r10: .cfa -28 + ^ r9: .cfa -32 + ^ r8: .cfa -36 + ^
