MODULE Linux arm64 04C60A0E65100BE2AFA4CF3B6F278B630 omgrod.minecraftifycpa.android64.so
INFO CODE_ID 0E0AC6041065E20BAFA4CF3B6F278B6386F1F749
INFO GENERATOR mozilla/dump_syms 2.3.4
PUBLIC 7a00 0 __on_dlclose
PUBLIC 7a10 0 __emutls_unregister_key
PUBLIC 7a18 0 __on_dlclose_late
PUBLIC 7a20 0 __atexit_handler_wrapper
PUBLIC 7a34 0 atexit
PUBLIC 7a50 0 pthread_atfork
PUBLIC 7a60 0 unwind_phase2
PUBLIC 7b94 0 _Unwind_Resume
PUBLIC 7c18 0 unwind_phase2_forced
PUBLIC m 7d0c 0 __unw_init_local
PUBLIC m 7db4 0 __unw_get_reg
PUBLIC 7e30 0 __unw_step_stage2
PUBLIC m 7e44 0 __unw_get_proc_info
PUBLIC m 7e84 0 __unw_resume
PUBLIC 7eac 0 libunwind::CFI_Parser<libunwind::LocalAddressSpace>::decodeFDE(libunwind::LocalAddressSpace&, unsigned long, libunwind::CFI_Parser<libunwind::LocalAddressSpace>::FDE_Info*, libunwind::CFI_Parser<libunwind::LocalAddressSpace>::CIE_Info*, bool)
PUBLIC 803c 0 libunwind::CFI_Parser<libunwind::LocalAddressSpace>::parseCIE(libunwind::LocalAddressSpace&, unsigned long, libunwind::CFI_Parser<libunwind::LocalAddressSpace>::CIE_Info*)
PUBLIC 8304 0 libunwind::AbstractUnwindCursor::~AbstractUnwindCursor()
PUBLIC 830c 0 libunwind::UnwindCursor<libunwind::LocalAddressSpace, libunwind::Registers_arm64>::~UnwindCursor()
PUBLIC 8314 0 libunwind::UnwindCursor<libunwind::LocalAddressSpace, libunwind::Registers_arm64>::validReg(int)
PUBLIC 8358 0 libunwind::UnwindCursor<libunwind::LocalAddressSpace, libunwind::Registers_arm64>::getReg(int)
PUBLIC 8440 0 libunwind::UnwindCursor<libunwind::LocalAddressSpace, libunwind::Registers_arm64>::setReg(int, unsigned long)
PUBLIC 8528 0 libunwind::UnwindCursor<libunwind::LocalAddressSpace, libunwind::Registers_arm64>::validFloatReg(int)
PUBLIC 853c 0 libunwind::UnwindCursor<libunwind::LocalAddressSpace, libunwind::Registers_arm64>::getFloatReg(int)
PUBLIC 854c 0 libunwind::UnwindCursor<libunwind::LocalAddressSpace, libunwind::Registers_arm64>::setFloatReg(int, double)
PUBLIC 855c 0 libunwind::UnwindCursor<libunwind::LocalAddressSpace, libunwind::Registers_arm64>::step(bool)
PUBLIC 864c 0 libunwind::UnwindCursor<libunwind::LocalAddressSpace, libunwind::Registers_arm64>::getInfo(unw_proc_info_t*)
PUBLIC 8690 0 libunwind::UnwindCursor<libunwind::LocalAddressSpace, libunwind::Registers_arm64>::jumpto()
PUBLIC 869c 0 libunwind::UnwindCursor<libunwind::LocalAddressSpace, libunwind::Registers_arm64>::isSignalFrame()
PUBLIC 86a8 0 libunwind::UnwindCursor<libunwind::LocalAddressSpace, libunwind::Registers_arm64>::getFunctionName(char*, unsigned long, unsigned long*)
PUBLIC 86d4 0 libunwind::UnwindCursor<libunwind::LocalAddressSpace, libunwind::Registers_arm64>::setInfoBasedOnIPRegister(bool)
PUBLIC 8954 0 libunwind::UnwindCursor<libunwind::LocalAddressSpace, libunwind::Registers_arm64>::getRegisterName(int)
PUBLIC 8960 0 libunwind::UnwindCursor<libunwind::LocalAddressSpace, libunwind::Registers_arm64>::stepThroughSigReturn(libunwind::Registers_arm64&)
PUBLIC 8a80 0 libunwind::DwarfInstructions<libunwind::LocalAddressSpace, libunwind::Registers_arm64>::stepWithDwarf(libunwind::LocalAddressSpace&, unsigned long, unsigned long, libunwind::Registers_arm64&, bool&, bool)
PUBLIC 8f08 0 libunwind::CFI_Parser<libunwind::LocalAddressSpace>::parseFDEInstructions(libunwind::LocalAddressSpace&, libunwind::CFI_Parser<libunwind::LocalAddressSpace>::FDE_Info const&, libunwind::CFI_Parser<libunwind::LocalAddressSpace>::CIE_Info const&, unsigned long, int, libunwind::CFI_Parser<libunwind::LocalAddressSpace>::PrologInfo*)
PUBLIC 9b50 0 libunwind::DwarfInstructions<libunwind::LocalAddressSpace, libunwind::Registers_arm64>::getCFA(libunwind::LocalAddressSpace&, libunwind::CFI_Parser<libunwind::LocalAddressSpace>::PrologInfo const&, libunwind::Registers_arm64 const&)
PUBLIC 9c84 0 libunwind::DwarfInstructions<libunwind::LocalAddressSpace, libunwind::Registers_arm64>::getSavedRegister(libunwind::LocalAddressSpace&, libunwind::Registers_arm64 const&, unsigned long, libunwind::CFI_Parser<libunwind::LocalAddressSpace>::RegisterLocation const&)
PUBLIC 9e94 0 libunwind::LocalAddressSpace::getEncodedP(unsigned long&, unsigned long, unsigned char, unsigned long)
PUBLIC a220 0 libunwind::LocalAddressSpace::getULEB128(unsigned long&, unsigned long)
PUBLIC a3e8 0 libunwind::DwarfInstructions<libunwind::LocalAddressSpace, libunwind::Registers_arm64>::evaluateExpression(unsigned long, libunwind::LocalAddressSpace&, libunwind::Registers_arm64 const&, unsigned long)
PUBLIC ada4 0 libunwind::UnwindCursor<libunwind::LocalAddressSpace, libunwind::Registers_arm64>::getInfoFromDwarfSection(unsigned long, libunwind::UnwindInfoSections const&, unsigned int)
PUBLIC b078 0 libunwind::findUnwindSectionsByPhdr(dl_phdr_info*, unsigned long, void*)
PUBLIC b1ac 0 libunwind::EHHeaderParser<libunwind::LocalAddressSpace>::decodeEHHdr(libunwind::LocalAddressSpace&, unsigned long, unsigned long, libunwind::EHHeaderParser<libunwind::LocalAddressSpace>::EHHeaderInfo&)
PUBLIC b2cc 0 libunwind::CFI_Parser<libunwind::LocalAddressSpace>::findFDE(libunwind::LocalAddressSpace&, unsigned long, unsigned long, unsigned long, unsigned long, libunwind::CFI_Parser<libunwind::LocalAddressSpace>::FDE_Info*, libunwind::CFI_Parser<libunwind::LocalAddressSpace>::CIE_Info*)
PUBLIC b494 0 libunwind::EHHeaderParser<libunwind::LocalAddressSpace>::findFDE(libunwind::LocalAddressSpace&, unsigned long, unsigned long, unsigned int, libunwind::CFI_Parser<libunwind::LocalAddressSpace>::FDE_Info*, libunwind::CFI_Parser<libunwind::LocalAddressSpace>::CIE_Info*)
PUBLIC b5fc 0 libunwind::EHHeaderParser<libunwind::LocalAddressSpace>::getTableEntrySize(unsigned char)
PUBLIC b6f8 0 libunwind::Registers_arm64::getRegisterName(int)
PUBLIC b728 0 __libunwind_Registers_arm64_jumpto
PUBLIC m b7b8 0 __unw_getcontext
PUBLIC b860 0 __aarch64_ldadd8_acq_rel
PUBLIC b890 0 init_have_lse_atomics
PUBLIC b928 0 __init_cpu_features_constructor
PUBLIC bec4 0 __init_cpu_features
PUBLIC bf50 0 __aarch64_ldadd8_relax
PUBLIC bf80 0 _ZNSt6__ndk14pairIKNS_12basic_stringIcNS_11char_traitsIcEENS_9allocatorIcEEEES6_EC2B8ne180000IRA11_KcRA10_SA_TnNS_9enable_ifIXclsr10_CheckArgsE17__enable_implicitIT_T0_EEEiE4typeELi0EEEOSG_OSH_
PUBLIC c0b8 0 std::__ndk1::pair<std::__ndk1::basic_string<char, std::__ndk1::char_traits<char>, std::__ndk1::allocator<char> > const, std::__ndk1::basic_string<char, std::__ndk1::char_traits<char>, std::__ndk1::allocator<char> > >::~pair()
PUBLIC c0fc 0 std::__ndk1::unordered_map<std::__ndk1::basic_string<char, std::__ndk1::char_traits<char>, std::__ndk1::allocator<char> >, std::__ndk1::basic_string<char, std::__ndk1::char_traits<char>, std::__ndk1::allocator<char> >, std::__ndk1::hash<std::__ndk1::basic_string<char, std::__ndk1::char_traits<char>, std::__ndk1::allocator<char> > >, std::__ndk1::equal_to<std::__ndk1::basic_string<char, std::__ndk1::char_traits<char>, std::__ndk1::allocator<char> > >, std::__ndk1::allocator<std::__ndk1::pair<std::__ndk1::basic_string<char, std::__ndk1::char_traits<char>, std::__ndk1::allocator<char> > const, std::__ndk1::basic_string<char, std::__ndk1::char_traits<char>, std::__ndk1::allocator<char> > > > >::unordered_map(std::initializer_list<std::__ndk1::pair<std::__ndk1::basic_string<char, std::__ndk1::char_traits<char>, std::__ndk1::allocator<char> > const, std::__ndk1::basic_string<char, std::__ndk1::char_traits<char>, std::__ndk1::allocator<char> > > >)
PUBLIC c824 0 std::__ndk1::unordered_map<std::__ndk1::basic_string<char, std::__ndk1::char_traits<char>, std::__ndk1::allocator<char> >, std::__ndk1::basic_string<char, std::__ndk1::char_traits<char>, std::__ndk1::allocator<char> >, std::__ndk1::hash<std::__ndk1::basic_string<char, std::__ndk1::char_traits<char>, std::__ndk1::allocator<char> > >, std::__ndk1::equal_to<std::__ndk1::basic_string<char, std::__ndk1::char_traits<char>, std::__ndk1::allocator<char> > >, std::__ndk1::allocator<std::__ndk1::pair<std::__ndk1::basic_string<char, std::__ndk1::char_traits<char>, std::__ndk1::allocator<char> > const, std::__ndk1::basic_string<char, std::__ndk1::char_traits<char>, std::__ndk1::allocator<char> > > > >::~unordered_map[abi:ne180000]()
PUBLIC c8b0 0 geode::Mod::setSavedValue<std::__ndk1::basic_string<char, std::__ndk1::char_traits<char>, std::__ndk1::allocator<char> > >(std::__ndk1::basic_string_view<char, std::__ndk1::char_traits<char> >, std::__ndk1::basic_string<char, std::__ndk1::char_traits<char>, std::__ndk1::allocator<char> > const&)
PUBLIC cba4 0 std::__ndk1::__hash_table<std::__ndk1::__hash_value_type<std::__ndk1::basic_string<char, std::__ndk1::char_traits<char>, std::__ndk1::allocator<char> >, std::__ndk1::basic_string<char, std::__ndk1::char_traits<char>, std::__ndk1::allocator<char> > >, std::__ndk1::__unordered_map_hasher<std::__ndk1::basic_string<char, std::__ndk1::char_traits<char>, std::__ndk1::allocator<char> >, std::__ndk1::__hash_value_type<std::__ndk1::basic_string<char, std::__ndk1::char_traits<char>, std::__ndk1::allocator<char> >, std::__ndk1::basic_string<char, std::__ndk1::char_traits<char>, std::__ndk1::allocator<char> > >, std::__ndk1::hash<std::__ndk1::basic_string<char, std::__ndk1::char_traits<char>, std::__ndk1::allocator<char> > >, std::__ndk1::equal_to<std::__ndk1::basic_string<char, std::__ndk1::char_traits<char>, std::__ndk1::allocator<char> > >, true>, std::__ndk1::__unordered_map_equal<std::__ndk1::basic_string<char, std::__ndk1::char_traits<char>, std::__ndk1::allocator<char> >, std::__ndk1::__hash_value_type<std::__ndk1::basic_string<char, std::__ndk1::char_traits<char>, std::__ndk1::allocator<char> >, std::__ndk1::basic_string<char, std::__ndk1::char_traits<char>, std::__ndk1::allocator<char> > >, std::__ndk1::equal_to<std::__ndk1::basic_string<char, std::__ndk1::char_traits<char>, std::__ndk1::allocator<char> > >, std::__ndk1::hash<std::__ndk1::basic_string<char, std::__ndk1::char_traits<char>, std::__ndk1::allocator<char> > >, true>, std::__ndk1::allocator<std::__ndk1::__hash_value_type<std::__ndk1::basic_string<char, std::__ndk1::char_traits<char>, std::__ndk1::allocator<char> >, std::__ndk1::basic_string<char, std::__ndk1::char_traits<char>, std::__ndk1::allocator<char> > > > >::~__hash_table()
PUBLIC cc28 0 __clang_call_terminate
PUBLIC cc38 0 std::__ndk1::unique_ptr<std::__ndk1::__hash_node<std::__ndk1::__hash_value_type<std::__ndk1::basic_string<char, std::__ndk1::char_traits<char>, std::__ndk1::allocator<char> >, std::__ndk1::basic_string<char, std::__ndk1::char_traits<char>, std::__ndk1::allocator<char> > >, void*>, std::__ndk1::__hash_node_destructor<std::__ndk1::allocator<std::__ndk1::__hash_node<std::__ndk1::__hash_value_type<std::__ndk1::basic_string<char, std::__ndk1::char_traits<char>, std::__ndk1::allocator<char> >, std::__ndk1::basic_string<char, std::__ndk1::char_traits<char>, std::__ndk1::allocator<char> > >, void*> > > >::~unique_ptr[abi:ne180000]()
PUBLIC cc94 0 std::__ndk1::__murmur2_or_cityhash<unsigned long, (unsigned long)64>::operator()[abi:ne180000](void const*, unsigned long) const
PUBLIC d0ec 0 std::__throw_bad_array_new_length([abi:ne180000], void)
PUBLIC d120 0 std::__ndk1::basic_string<char, std::__ndk1::char_traits<char>, std::__ndk1::allocator<char> >::__throw_length_error[abi:ne180000]() const
PUBLIC d134 0 std::__ndk1::__throw_length_error[abi:ne180000](char const*)
PUBLIC d184 0 std::length_error::length_error[abi:ne180000](char const*)
PUBLIC d1b4 0 std::__ndk1::shared_ptr<geode::SettingV3>::~shared_ptr[abi:ne180000]()
PUBLIC d204 0 std::__ndk1::shared_ptr<geode::StringSettingV3>::~shared_ptr[abi:ne180000]()
PUBLIC d254 0 geode::cast::traverseTypeinfoFor(void*, geode::cast::ClassTypeinfoType const*, char const*)
PUBLIC d34c 0 std::__ndk1::__hash_table<std::__ndk1::__hash_value_type<std::__ndk1::basic_string<char, std::__ndk1::char_traits<char>, std::__ndk1::allocator<char> >, std::__ndk1::basic_string<char, std::__ndk1::char_traits<char>, std::__ndk1::allocator<char> > >, std::__ndk1::__unordered_map_hasher<std::__ndk1::basic_string<char, std::__ndk1::char_traits<char>, std::__ndk1::allocator<char> >, std::__ndk1::__hash_value_type<std::__ndk1::basic_string<char, std::__ndk1::char_traits<char>, std::__ndk1::allocator<char> >, std::__ndk1::basic_string<char, std::__ndk1::char_traits<char>, std::__ndk1::allocator<char> > >, std::__ndk1::hash<std::__ndk1::basic_string<char, std::__ndk1::char_traits<char>, std::__ndk1::allocator<char> > >, std::__ndk1::equal_to<std::__ndk1::basic_string<char, std::__ndk1::char_traits<char>, std::__ndk1::allocator<char> > >, true>, std::__ndk1::__unordered_map_equal<std::__ndk1::basic_string<char, std::__ndk1::char_traits<char>, std::__ndk1::allocator<char> >, std::__ndk1::__hash_value_type<std::__ndk1::basic_string<char, std::__ndk1::char_traits<char>, std::__ndk1::allocator<char> >, std::__ndk1::basic_string<char, std::__ndk1::char_traits<char>, std::__ndk1::allocator<char> > >, std::__ndk1::equal_to<std::__ndk1::basic_string<char, std::__ndk1::char_traits<char>, std::__ndk1::allocator<char> > >, std::__ndk1::hash<std::__ndk1::basic_string<char, std::__ndk1::char_traits<char>, std::__ndk1::allocator<char> > >, true>, std::__ndk1::allocator<std::__ndk1::__hash_value_type<std::__ndk1::basic_string<char, std::__ndk1::char_traits<char>, std::__ndk1::allocator<char> >, std::__ndk1::basic_string<char, std::__ndk1::char_traits<char>, std::__ndk1::allocator<char> > > > >::find<std::__ndk1::basic_string<char, std::__ndk1::char_traits<char>, std::__ndk1::allocator<char> > >(std::__ndk1::basic_string<char, std::__ndk1::char_traits<char>, std::__ndk1::allocator<char> > const&) const
PUBLIC d584 0 std::__ndk1::__throw_out_of_range[abi:ne180000](char const*)
PUBLIC d5cc 0 std::out_of_range::out_of_range[abi:ne180000](char const*)
PUBLIC d604 0 std::__ndk1::basic_string<char, std::__ndk1::char_traits<char>, std::__ndk1::allocator<char> >::__init_copy_ctor_external(char const*, unsigned long)
PUBLIC d684 0 geode::impl::ResultData<matjson::Value&, std::__ndk1::basic_string<char, std::__ndk1::char_traits<char>, std::__ndk1::allocator<char> > >::~ResultData()
PUBLIC d6f8 0 geode::impl::ResultData<std::__ndk1::basic_string<char, std::__ndk1::char_traits<char>, std::__ndk1::allocator<char> >, std::__ndk1::basic_string<char, std::__ndk1::char_traits<char>, std::__ndk1::allocator<char> > >::~ResultData()
PUBLIC d76c 0 std::__ndk1::__throw_bad_variant_access[abi:ne180000]()
PUBLIC d7a0 0 std::__ndk1::__variant_detail::__visitation::__base::__dispatcher<(unsigned long)0>::__dispatch[abi:ne180000]<std::__ndk1::__variant_detail::__dtor<std::__ndk1::__variant_detail::__traits<std::__ndk1::reference_wrapper<matjson::Value>, std::__ndk1::basic_string<char, std::__ndk1::char_traits<char>, std::__ndk1::allocator<char> > >, (std::__ndk1::__variant_detail::_Trait)1>::__destroy[abi:ne180000]()::{lambda(auto:1&)#1}, std::__ndk1::__variant_detail::__base<(std::__ndk1::__variant_detail::__traits<std::__ndk1::reference_wrapper<matjson::Value>, std::__ndk1::basic_string<char, std::__ndk1::char_traits<char>, std::__ndk1::allocator<char> > >)1, matjson::Value, std::__ndk1::allocator<char> >&>(std::__ndk1::__variant_detail::__dtor<std::__ndk1::__variant_detail::__traits<std::__ndk1::reference_wrapper<matjson::Value>, std::__ndk1::basic_string<char, std::__ndk1::char_traits<char>, std::__ndk1::allocator<char> > >, (std::__ndk1::__variant_detail::_Trait)1>, std::__ndk1::__variant_detail::__base<(std::__ndk1::__variant_detail::__traits<std::__ndk1::reference_wrapper<matjson::Value>, std::__ndk1::basic_string<char, std::__ndk1::char_traits<char>, std::__ndk1::allocator<char> > >)1, matjson::Value, std::__ndk1::allocator<char> >&)
PUBLIC d7a4 0 std::__ndk1::__variant_detail::__visitation::__base::__dispatcher<(unsigned long)1>::__dispatch[abi:ne180000]<std::__ndk1::__variant_detail::__dtor<std::__ndk1::__variant_detail::__traits<std::__ndk1::reference_wrapper<matjson::Value>, std::__ndk1::basic_string<char, std::__ndk1::char_traits<char>, std::__ndk1::allocator<char> > >, (std::__ndk1::__variant_detail::_Trait)1>::__destroy[abi:ne180000]()::{lambda(auto:1&)#1}, std::__ndk1::__variant_detail::__base<(std::__ndk1::__variant_detail::__traits<std::__ndk1::reference_wrapper<matjson::Value>, std::__ndk1::basic_string<char, std::__ndk1::char_traits<char>, std::__ndk1::allocator<char> > >)1, matjson::Value, std::__ndk1::allocator<char> >&>(std::__ndk1::__variant_detail::__dtor<std::__ndk1::__variant_detail::__traits<std::__ndk1::reference_wrapper<matjson::Value>, std::__ndk1::basic_string<char, std::__ndk1::char_traits<char>, std::__ndk1::allocator<char> > >, (std::__ndk1::__variant_detail::_Trait)1>, std::__ndk1::__variant_detail::__base<(std::__ndk1::__variant_detail::__traits<std::__ndk1::reference_wrapper<matjson::Value>, std::__ndk1::basic_string<char, std::__ndk1::char_traits<char>, std::__ndk1::allocator<char> > >)1, matjson::Value, std::__ndk1::allocator<char> >&)
PUBLIC d7b8 0 std::__ndk1::__variant_detail::__visitation::__base::__dispatcher<(unsigned long)0>::__dispatch[abi:ne180000]<std::__ndk1::__variant_detail::__dtor<std::__ndk1::__variant_detail::__traits<std::__ndk1::basic_string<char, std::__ndk1::char_traits<char>, std::__ndk1::allocator<char> >, std::__ndk1::allocator<char> >, (std::__ndk1::__variant_detail::_Trait)1>::__destroy[abi:ne180000]()::{lambda(auto:1&)#1}, std::__ndk1::__variant_detail::__base<(std::__ndk1::__variant_detail::__traits<std::__ndk1::basic_string<char, std::__ndk1::char_traits<char>, std::__ndk1::allocator<char> >, std::__ndk1::allocator<char> >)1, std::__ndk1::allocator<char>, std::__ndk1::allocator<char> >&>(std::__ndk1::__variant_detail::__dtor<std::__ndk1::__variant_detail::__traits<std::__ndk1::basic_string<char, std::__ndk1::char_traits<char>, std::__ndk1::allocator<char> >, std::__ndk1::allocator<char> >, (std::__ndk1::__variant_detail::_Trait)1>, std::__ndk1::__variant_detail::__base<(std::__ndk1::__variant_detail::__traits<std::__ndk1::basic_string<char, std::__ndk1::char_traits<char>, std::__ndk1::allocator<char> >, std::__ndk1::allocator<char> >)1, std::__ndk1::allocator<char>, std::__ndk1::allocator<char> >&)
PUBLIC d7cc 0 std::__ndk1::__variant_detail::__visitation::__base::__dispatcher<(unsigned long)1>::__dispatch[abi:ne180000]<std::__ndk1::__variant_detail::__dtor<std::__ndk1::__variant_detail::__traits<std::__ndk1::basic_string<char, std::__ndk1::char_traits<char>, std::__ndk1::allocator<char> >, std::__ndk1::allocator<char> >, (std::__ndk1::__variant_detail::_Trait)1>::__destroy[abi:ne180000]()::{lambda(auto:1&)#1}, std::__ndk1::__variant_detail::__base<(std::__ndk1::__variant_detail::__traits<std::__ndk1::basic_string<char, std::__ndk1::char_traits<char>, std::__ndk1::allocator<char> >, std::__ndk1::allocator<char> >)1, std::__ndk1::allocator<char>, std::__ndk1::allocator<char> >&>(std::__ndk1::__variant_detail::__dtor<std::__ndk1::__variant_detail::__traits<std::__ndk1::basic_string<char, std::__ndk1::char_traits<char>, std::__ndk1::allocator<char> >, std::__ndk1::allocator<char> >, (std::__ndk1::__variant_detail::_Trait)1>, std::__ndk1::__variant_detail::__base<(std::__ndk1::__variant_detail::__traits<std::__ndk1::basic_string<char, std::__ndk1::char_traits<char>, std::__ndk1::allocator<char> >, std::__ndk1::allocator<char> >)1, std::__ndk1::allocator<char>, std::__ndk1::allocator<char> >&)
PUBLIC d7e0 0 geode::SettingChangedFilterV3::~SettingChangedFilterV3()
PUBLIC d830 0 std::__ndk1::__function::__base<void (std::__ndk1::shared_ptr<geode::SettingV3>)>::~__base()
PUBLIC d834 0 std::__ndk1::__function::__func<geode::listenForSettingChangesV3<std::__ndk1::basic_string<char, std::__ndk1::char_traits<char>, std::__ndk1::allocator<char> >, geodeExecFunction7<(anonymous namespace)::ExecFuncUnique7>()::{lambda(std::__ndk1::basic_string<char, std::__ndk1::char_traits<char>, std::__ndk1::allocator<char> >)#1}>(std::__ndk1::basic_string_view<char, std::__ndk1::char_traits<char> >, geodeExecFunction7<(anonymous namespace)::ExecFuncUnique7>()::{lambda(std::__ndk1::basic_string<char, std::__ndk1::char_traits<char>, std::__ndk1::allocator<char> >&&)#1}, geode::Mod*)::{lambda(std::__ndk1::shared_ptr<geode::SettingV3>)#1}, std::__ndk1::allocator<geode::listenForSettingChangesV3<std::__ndk1::basic_string<char, std::__ndk1::char_traits<char>, std::__ndk1::allocator<char> >, geodeExecFunction7<(anonymous namespace)::ExecFuncUnique7>()::{lambda(std::__ndk1::basic_string<char, std::__ndk1::char_traits<char>, std::__ndk1::allocator<char> >)#1}>(std::__ndk1::basic_string_view<char, std::__ndk1::char_traits<char> >, geodeExecFunction7<(anonymous namespace)::ExecFuncUnique7>()::{lambda(std::__ndk1::basic_string<char, std::__ndk1::char_traits<char>, std::__ndk1::allocator<char> >&&)#1}, geode::Mod*)::{lambda(std::__ndk1::shared_ptr<geode::SettingV3>)#1}>, void (std::__ndk1::shared_ptr<geode::SettingV3>)>::~__func()
PUBLIC d838 0 std::__ndk1::__function::__func<geode::listenForSettingChangesV3<std::__ndk1::basic_string<char, std::__ndk1::char_traits<char>, std::__ndk1::allocator<char> >, geodeExecFunction7<(anonymous namespace)::ExecFuncUnique7>()::{lambda(std::__ndk1::basic_string<char, std::__ndk1::char_traits<char>, std::__ndk1::allocator<char> >)#1}>(std::__ndk1::basic_string_view<char, std::__ndk1::char_traits<char> >, geodeExecFunction7<(anonymous namespace)::ExecFuncUnique7>()::{lambda(std::__ndk1::basic_string<char, std::__ndk1::char_traits<char>, std::__ndk1::allocator<char> >&&)#1}, geode::Mod*)::{lambda(std::__ndk1::shared_ptr<geode::SettingV3>)#1}, std::__ndk1::allocator<geode::listenForSettingChangesV3<std::__ndk1::basic_string<char, std::__ndk1::char_traits<char>, std::__ndk1::allocator<char> >, geodeExecFunction7<(anonymous namespace)::ExecFuncUnique7>()::{lambda(std::__ndk1::basic_string<char, std::__ndk1::char_traits<char>, std::__ndk1::allocator<char> >)#1}>(std::__ndk1::basic_string_view<char, std::__ndk1::char_traits<char> >, geodeExecFunction7<(anonymous namespace)::ExecFuncUnique7>()::{lambda(std::__ndk1::basic_string<char, std::__ndk1::char_traits<char>, std::__ndk1::allocator<char> >&&)#1}, geode::Mod*)::{lambda(std::__ndk1::shared_ptr<geode::SettingV3>)#1}>, void (std::__ndk1::shared_ptr<geode::SettingV3>)>::__clone() const
PUBLIC d86c 0 std::__ndk1::__function::__func<geode::listenForSettingChangesV3<std::__ndk1::basic_string<char, std::__ndk1::char_traits<char>, std::__ndk1::allocator<char> >, geodeExecFunction7<(anonymous namespace)::ExecFuncUnique7>()::{lambda(std::__ndk1::basic_string<char, std::__ndk1::char_traits<char>, std::__ndk1::allocator<char> >)#1}>(std::__ndk1::basic_string_view<char, std::__ndk1::char_traits<char> >, geodeExecFunction7<(anonymous namespace)::ExecFuncUnique7>()::{lambda(std::__ndk1::basic_string<char, std::__ndk1::char_traits<char>, std::__ndk1::allocator<char> >&&)#1}, geode::Mod*)::{lambda(std::__ndk1::shared_ptr<geode::SettingV3>)#1}, std::__ndk1::allocator<geode::listenForSettingChangesV3<std::__ndk1::basic_string<char, std::__ndk1::char_traits<char>, std::__ndk1::allocator<char> >, geodeExecFunction7<(anonymous namespace)::ExecFuncUnique7>()::{lambda(std::__ndk1::basic_string<char, std::__ndk1::char_traits<char>, std::__ndk1::allocator<char> >)#1}>(std::__ndk1::basic_string_view<char, std::__ndk1::char_traits<char> >, geodeExecFunction7<(anonymous namespace)::ExecFuncUnique7>()::{lambda(std::__ndk1::basic_string<char, std::__ndk1::char_traits<char>, std::__ndk1::allocator<char> >&&)#1}, geode::Mod*)::{lambda(std::__ndk1::shared_ptr<geode::SettingV3>)#1}>, void (std::__ndk1::shared_ptr<geode::SettingV3>)>::__clone(std::__ndk1::__function::__base<void (std::__ndk1::shared_ptr<geode::SettingV3>)>*) const
PUBLIC d880 0 std::__ndk1::__function::__func<geode::listenForSettingChangesV3<std::__ndk1::basic_string<char, std::__ndk1::char_traits<char>, std::__ndk1::allocator<char> >, geodeExecFunction7<(anonymous namespace)::ExecFuncUnique7>()::{lambda(std::__ndk1::basic_string<char, std::__ndk1::char_traits<char>, std::__ndk1::allocator<char> >)#1}>(std::__ndk1::basic_string_view<char, std::__ndk1::char_traits<char> >, geodeExecFunction7<(anonymous namespace)::ExecFuncUnique7>()::{lambda(std::__ndk1::basic_string<char, std::__ndk1::char_traits<char>, std::__ndk1::allocator<char> >&&)#1}, geode::Mod*)::{lambda(std::__ndk1::shared_ptr<geode::SettingV3>)#1}, std::__ndk1::allocator<geode::listenForSettingChangesV3<std::__ndk1::basic_string<char, std::__ndk1::char_traits<char>, std::__ndk1::allocator<char> >, geodeExecFunction7<(anonymous namespace)::ExecFuncUnique7>()::{lambda(std::__ndk1::basic_string<char, std::__ndk1::char_traits<char>, std::__ndk1::allocator<char> >)#1}>(std::__ndk1::basic_string_view<char, std::__ndk1::char_traits<char> >, geodeExecFunction7<(anonymous namespace)::ExecFuncUnique7>()::{lambda(std::__ndk1::basic_string<char, std::__ndk1::char_traits<char>, std::__ndk1::allocator<char> >&&)#1}, geode::Mod*)::{lambda(std::__ndk1::shared_ptr<geode::SettingV3>)#1}>, void (std::__ndk1::shared_ptr<geode::SettingV3>)>::destroy()
PUBLIC d884 0 std::__ndk1::__function::__func<geode::listenForSettingChangesV3<std::__ndk1::basic_string<char, std::__ndk1::char_traits<char>, std::__ndk1::allocator<char> >, geodeExecFunction7<(anonymous namespace)::ExecFuncUnique7>()::{lambda(std::__ndk1::basic_string<char, std::__ndk1::char_traits<char>, std::__ndk1::allocator<char> >)#1}>(std::__ndk1::basic_string_view<char, std::__ndk1::char_traits<char> >, geodeExecFunction7<(anonymous namespace)::ExecFuncUnique7>()::{lambda(std::__ndk1::basic_string<char, std::__ndk1::char_traits<char>, std::__ndk1::allocator<char> >&&)#1}, geode::Mod*)::{lambda(std::__ndk1::shared_ptr<geode::SettingV3>)#1}, std::__ndk1::allocator<geode::listenForSettingChangesV3<std::__ndk1::basic_string<char, std::__ndk1::char_traits<char>, std::__ndk1::allocator<char> >, geodeExecFunction7<(anonymous namespace)::ExecFuncUnique7>()::{lambda(std::__ndk1::basic_string<char, std::__ndk1::char_traits<char>, std::__ndk1::allocator<char> >)#1}>(std::__ndk1::basic_string_view<char, std::__ndk1::char_traits<char> >, geodeExecFunction7<(anonymous namespace)::ExecFuncUnique7>()::{lambda(std::__ndk1::basic_string<char, std::__ndk1::char_traits<char>, std::__ndk1::allocator<char> >&&)#1}, geode::Mod*)::{lambda(std::__ndk1::shared_ptr<geode::SettingV3>)#1}>, void (std::__ndk1::shared_ptr<geode::SettingV3>)>::destroy_deallocate()
PUBLIC d888 0 std::__ndk1::__function::__func<geode::listenForSettingChangesV3<std::__ndk1::basic_string<char, std::__ndk1::char_traits<char>, std::__ndk1::allocator<char> >, geodeExecFunction7<(anonymous namespace)::ExecFuncUnique7>()::{lambda(std::__ndk1::basic_string<char, std::__ndk1::char_traits<char>, std::__ndk1::allocator<char> >)#1}>(std::__ndk1::basic_string_view<char, std::__ndk1::char_traits<char> >, geodeExecFunction7<(anonymous namespace)::ExecFuncUnique7>()::{lambda(std::__ndk1::basic_string<char, std::__ndk1::char_traits<char>, std::__ndk1::allocator<char> >&&)#1}, geode::Mod*)::{lambda(std::__ndk1::shared_ptr<geode::SettingV3>)#1}, std::__ndk1::allocator<geode::listenForSettingChangesV3<std::__ndk1::basic_string<char, std::__ndk1::char_traits<char>, std::__ndk1::allocator<char> >, geodeExecFunction7<(anonymous namespace)::ExecFuncUnique7>()::{lambda(std::__ndk1::basic_string<char, std::__ndk1::char_traits<char>, std::__ndk1::allocator<char> >)#1}>(std::__ndk1::basic_string_view<char, std::__ndk1::char_traits<char> >, geodeExecFunction7<(anonymous namespace)::ExecFuncUnique7>()::{lambda(std::__ndk1::basic_string<char, std::__ndk1::char_traits<char>, std::__ndk1::allocator<char> >&&)#1}, geode::Mod*)::{lambda(std::__ndk1::shared_ptr<geode::SettingV3>)#1}>, void (std::__ndk1::shared_ptr<geode::SettingV3>)>::operator()(std::__ndk1::shared_ptr<geode::SettingV3>&&)
PUBLIC df04 0 std::__ndk1::__function::__func<geode::listenForSettingChangesV3<std::__ndk1::basic_string<char, std::__ndk1::char_traits<char>, std::__ndk1::allocator<char> >, geodeExecFunction7<(anonymous namespace)::ExecFuncUnique7>()::{lambda(std::__ndk1::basic_string<char, std::__ndk1::char_traits<char>, std::__ndk1::allocator<char> >)#1}>(std::__ndk1::basic_string_view<char, std::__ndk1::char_traits<char> >, geodeExecFunction7<(anonymous namespace)::ExecFuncUnique7>()::{lambda(std::__ndk1::basic_string<char, std::__ndk1::char_traits<char>, std::__ndk1::allocator<char> >&&)#1}, geode::Mod*)::{lambda(std::__ndk1::shared_ptr<geode::SettingV3>)#1}, std::__ndk1::allocator<geode::listenForSettingChangesV3<std::__ndk1::basic_string<char, std::__ndk1::char_traits<char>, std::__ndk1::allocator<char> >, geodeExecFunction7<(anonymous namespace)::ExecFuncUnique7>()::{lambda(std::__ndk1::basic_string<char, std::__ndk1::char_traits<char>, std::__ndk1::allocator<char> >)#1}>(std::__ndk1::basic_string_view<char, std::__ndk1::char_traits<char> >, geodeExecFunction7<(anonymous namespace)::ExecFuncUnique7>()::{lambda(std::__ndk1::basic_string<char, std::__ndk1::char_traits<char>, std::__ndk1::allocator<char> >&&)#1}, geode::Mod*)::{lambda(std::__ndk1::shared_ptr<geode::SettingV3>)#1}>, void (std::__ndk1::shared_ptr<geode::SettingV3>)>::target(std::type_info const&) const
PUBLIC df20 0 std::__ndk1::__function::__func<geode::listenForSettingChangesV3<std::__ndk1::basic_string<char, std::__ndk1::char_traits<char>, std::__ndk1::allocator<char> >, geodeExecFunction7<(anonymous namespace)::ExecFuncUnique7>()::{lambda(std::__ndk1::basic_string<char, std::__ndk1::char_traits<char>, std::__ndk1::allocator<char> >)#1}>(std::__ndk1::basic_string_view<char, std::__ndk1::char_traits<char> >, geodeExecFunction7<(anonymous namespace)::ExecFuncUnique7>()::{lambda(std::__ndk1::basic_string<char, std::__ndk1::char_traits<char>, std::__ndk1::allocator<char> >&&)#1}, geode::Mod*)::{lambda(std::__ndk1::shared_ptr<geode::SettingV3>)#1}, std::__ndk1::allocator<geode::listenForSettingChangesV3<std::__ndk1::basic_string<char, std::__ndk1::char_traits<char>, std::__ndk1::allocator<char> >, geodeExecFunction7<(anonymous namespace)::ExecFuncUnique7>()::{lambda(std::__ndk1::basic_string<char, std::__ndk1::char_traits<char>, std::__ndk1::allocator<char> >)#1}>(std::__ndk1::basic_string_view<char, std::__ndk1::char_traits<char> >, geodeExecFunction7<(anonymous namespace)::ExecFuncUnique7>()::{lambda(std::__ndk1::basic_string<char, std::__ndk1::char_traits<char>, std::__ndk1::allocator<char> >&&)#1}, geode::Mod*)::{lambda(std::__ndk1::shared_ptr<geode::SettingV3>)#1}>, void (std::__ndk1::shared_ptr<geode::SettingV3>)>::target_type() const
PUBLIC df2c 0 std::__ndk1::__variant_detail::__visitation::__base::__dispatcher<(unsigned long)0>::__dispatch[abi:ne180000]<std::__ndk1::__variant_detail::__dtor<std::__ndk1::__variant_detail::__traits<bool, std::__ndk1::basic_string<char, std::__ndk1::char_traits<char>, std::__ndk1::allocator<char> > >, (std::__ndk1::__variant_detail::_Trait)1>::__destroy[abi:ne180000]()::{lambda(auto:1&)#1}, std::__ndk1::__variant_detail::__base<(std::__ndk1::__variant_detail::__traits<bool, std::__ndk1::basic_string<char, std::__ndk1::char_traits<char>, std::__ndk1::allocator<char> > >)1, bool, std::__ndk1::allocator<char> >&>(std::__ndk1::__variant_detail::__dtor<std::__ndk1::__variant_detail::__traits<bool, std::__ndk1::basic_string<char, std::__ndk1::char_traits<char>, std::__ndk1::allocator<char> > >, (std::__ndk1::__variant_detail::_Trait)1>, std::__ndk1::__variant_detail::__base<(std::__ndk1::__variant_detail::__traits<bool, std::__ndk1::basic_string<char, std::__ndk1::char_traits<char>, std::__ndk1::allocator<char> > >)1, bool, std::__ndk1::allocator<char> >&)
PUBLIC df30 0 std::__ndk1::__variant_detail::__visitation::__base::__dispatcher<(unsigned long)1>::__dispatch[abi:ne180000]<std::__ndk1::__variant_detail::__dtor<std::__ndk1::__variant_detail::__traits<bool, std::__ndk1::basic_string<char, std::__ndk1::char_traits<char>, std::__ndk1::allocator<char> > >, (std::__ndk1::__variant_detail::_Trait)1>::__destroy[abi:ne180000]()::{lambda(auto:1&)#1}, std::__ndk1::__variant_detail::__base<(std::__ndk1::__variant_detail::__traits<bool, std::__ndk1::basic_string<char, std::__ndk1::char_traits<char>, std::__ndk1::allocator<char> > >)1, bool, std::__ndk1::allocator<char> >&>(std::__ndk1::__variant_detail::__dtor<std::__ndk1::__variant_detail::__traits<bool, std::__ndk1::basic_string<char, std::__ndk1::char_traits<char>, std::__ndk1::allocator<char> > >, (std::__ndk1::__variant_detail::_Trait)1>, std::__ndk1::__variant_detail::__base<(std::__ndk1::__variant_detail::__traits<bool, std::__ndk1::basic_string<char, std::__ndk1::char_traits<char>, std::__ndk1::allocator<char> > >)1, bool, std::__ndk1::allocator<char> >&)
PUBLIC df44 0 geode::EventListener<geode::SettingChangedFilterV3>::getPool() const
PUBLIC df48 0 geode::EventListener<geode::SettingChangedFilterV3>::handle(geode::Event*)
PUBLIC e0ac 0 geode::EventListener<geode::SettingChangedFilterV3>::~EventListener()
PUBLIC e148 0 geode::EventListener<geode::SettingChangedFilterV3>::~EventListener()
PUBLIC e1ec 0 _GLOBAL__sub_I_main.cpp
PUBLIC m ec38 0 geodeImplicitEntry
PUBLIC ec74 0 __udivti3
PUBLIC ec80 0 __udivmodti4
PUBLIC m eecc 0 __eqtf2
PUBLIC ef6c 0 __unordtf2
PUBLIC efa4 0 fmt::v11::detail::write_loc(fmt::v11::basic_appender<char>, fmt::v11::loc_value, fmt::v11::format_specs const&, fmt::v11::detail::locale_ref)
PUBLIC f238 0 fmt::v11::format_facet<std::__ndk1::locale>::~format_facet()
PUBLIC f2b4 0 fmt::v11::report_error(char const*)
PUBLIC f304 0 fmt::v11::format_error::runtime_error(char const*)
PUBLIC f330 0 fmt::v11::format_facet<std::__ndk1::locale>::do_put(fmt::v11::basic_appender<char>, fmt::v11::loc_value, fmt::v11::format_specs const&) const
PUBLIC faf0 0 fmt::v11::detail::loc_writer<char>::~loc_writer()
PUBLIC fb54 0 fmt::v11::detail::vformat_to<char>(fmt::v11::detail::buffer<char>&, fmt::v11::basic_string_view<char>, fmt::v11::detail::vformat_args<char>::type, fmt::v11::detail::locale_ref)
PUBLIC 100c4 0 fmt::v11::detail::is_printable(unsigned int)
PUBLIC 102ec 0 fmt::v11::detail::dragonbox::to_decimal<float>(float)
PUBLIC 105c8 0 fmt::v11::detail::dragonbox::to_decimal<double>(double)
PUBLIC 10b04 0 fmt::v11::basic_memory_buffer<char, (unsigned long)500, std::__ndk1::allocator<char> >::grow(fmt::v11::detail::buffer<char>&, unsigned long)
PUBLIC 10b7c 0 fmt::v11::format_facet<std::__ndk1::locale>::~format_facet()
PUBLIC 10c08 0 fmt::v11::format_error::~format_error()
PUBLIC 10c2c 0 fmt::v11::detail::copy_noinline<char, char const*, fmt::v11::basic_appender<char> >(char const*, char const*, fmt::v11::basic_appender<char>)
PUBLIC 10d7c 0 fmt::v11::detail::default_arg_formatter<char>::operator()<bool>(bool)
PUBLIC 10de4 0 fmt::v11::detail::default_arg_formatter<char>::operator()<char>(char)
PUBLIC 10e74 0 fmt::v11::detail::default_arg_formatter<char>::operator()<float>(float)
PUBLIC 10f60 0 fmt::v11::detail::default_arg_formatter<char>::operator()<double>(double)
PUBLIC 1104c 0 fmt::v11::detail::default_arg_formatter<char>::operator()<char const*>(char const*)
PUBLIC 11094 0 fmt::v11::detail::default_arg_formatter<char>::operator()<void const*>(void const*)
PUBLIC 1112c 0 _ZN3fmt3v116detail5writeIcNS0_14basic_appenderIcEEiTnNSt6__ndk19enable_ifIXaaaasr11is_integralIT1_EE5valuentsr3std7is_sameIS7_bEE5valuentsr3std7is_sameIS7_T_EE5valueEiE4typeELi0EEET0_SB_S7_
PUBLIC 1138c 0 fmt::v11::detail::copy_noinline<char, char*, fmt::v11::basic_appender<char> >(char*, char*, fmt::v11::basic_appender<char>)
PUBLIC 114dc 0 _ZN3fmt3v116detail5writeIcNS0_14basic_appenderIcEEjTnNSt6__ndk19enable_ifIXaaaasr11is_integralIT1_EE5valuentsr3std7is_sameIS7_bEE5valuentsr3std7is_sameIS7_T_EE5valueEiE4typeELi0EEET0_SB_S7_
PUBLIC 116bc 0 _ZN3fmt3v116detail5writeIcNS0_14basic_appenderIcEExTnNSt6__ndk19enable_ifIXaaaasr11is_integralIT1_EE5valuentsr3std7is_sameIS7_bEE5valuentsr3std7is_sameIS7_T_EE5valueEiE4typeELi0EEET0_SB_S7_
PUBLIC 11940 0 _ZN3fmt3v116detail5writeIcNS0_14basic_appenderIcEEyTnNSt6__ndk19enable_ifIXaaaasr11is_integralIT1_EE5valuentsr3std7is_sameIS7_bEE5valuentsr3std7is_sameIS7_T_EE5valueEiE4typeELi0EEET0_SB_S7_
PUBLIC 11b48 0 _ZN3fmt3v116detail5writeIcNS0_14basic_appenderIcEEnTnNSt6__ndk19enable_ifIXaaaasr11is_integralIT1_EE5valuentsr3std7is_sameIS7_bEE5valuentsr3std7is_sameIS7_T_EE5valueEiE4typeELi0EEET0_SB_S7_
PUBLIC 11ea8 0 _ZN3fmt3v116detail5writeIcNS0_14basic_appenderIcEEoTnNSt6__ndk19enable_ifIXaaaasr11is_integralIT1_EE5valuentsr3std7is_sameIS7_bEE5valuentsr3std7is_sameIS7_T_EE5valueEiE4typeELi0EEET0_SB_S7_
PUBLIC 121bc 0 _ZN3fmt3v116detail5writeIcNS0_14basic_appenderIcEEbTnNSt6__ndk19enable_ifIXsr3std7is_sameIT1_bEE5valueEiE4typeELi0EEET0_SA_S7_RKNS0_12format_specsENS1_10locale_refE
PUBLIC 1244c 0 fmt::v11::detail::write_int_noinline<char, fmt::v11::basic_appender<char>, unsigned int>(fmt::v11::basic_appender<char>, fmt::v11::detail::write_int_arg<unsigned int>, fmt::v11::format_specs const&, fmt::v11::detail::locale_ref)
PUBLIC 13228 0 fmt::v11::detail::fill<char, fmt::v11::basic_appender<char> >(fmt::v11::basic_appender<char>, unsigned long, fmt::v11::detail::fill_t const&)
PUBLIC 133f8 0 fmt::v11::detail::write_padded<char, (fmt::v11::align::type)1, fmt::v11::basic_appender<char>, fmt::v11::detail::write_char<char, fmt::v11::basic_appender<char> >(fmt::v11::basic_appender<char>, char, fmt::v11::format_specs const&)::{lambda(fmt::v11::basic_appender<char>&)#1}>(fmt::v11::basic_appender<char>, fmt::v11::format_specs const&, unsigned long, unsigned long, fmt::v11::detail::write_char<char, fmt::v11::basic_appender<char> >(fmt::v11::basic_appender<char>, char, fmt::v11::format_specs const&)::{lambda(fmt::v11::basic_appender<char>&)#1})
PUBLIC 13634 0 fmt::v11::detail::write_escaped_cp<fmt::v11::basic_appender<char>, char>(fmt::v11::basic_appender<char>, fmt::v11::detail::find_escape_result<char> const&)
PUBLIC 13940 0 fmt::v11::detail::write_codepoint<(unsigned long)2, char, fmt::v11::basic_appender<char> >(fmt::v11::basic_appender<char>, char, unsigned int)
PUBLIC 13ab8 0 fmt::v11::detail::write_codepoint<(unsigned long)8, char, fmt::v11::basic_appender<char> >(fmt::v11::basic_appender<char>, char, unsigned int)
PUBLIC 13c30 0 fmt::v11::detail::write_padded<char, (fmt::v11::align::type)1, fmt::v11::basic_appender<char>, fmt::v11::detail::write_nonfinite<char, fmt::v11::basic_appender<char> >(fmt::v11::basic_appender<char>, bool, fmt::v11::format_specs, fmt::v11::sign::type)::{lambda(fmt::v11::basic_appender<char>&)#1}>(fmt::v11::basic_appender<char>, fmt::v11::format_specs const&, unsigned long, unsigned long, fmt::v11::detail::write_nonfinite<char, fmt::v11::basic_appender<char> >(fmt::v11::basic_appender<char>, bool, fmt::v11::format_specs, fmt::v11::sign::type)::{lambda(fmt::v11::basic_appender<char>&)#1})
PUBLIC 13e70 0 fmt::v11::detail::do_write_float<char, fmt::v11::basic_appender<char>, fmt::v11::detail::dragonbox::decimal_fp<float>, fmt::v11::detail::digit_grouping<char> >(fmt::v11::basic_appender<char>, fmt::v11::detail::dragonbox::decimal_fp<float> const&, fmt::v11::format_specs const&, fmt::v11::detail::float_specs, fmt::v11::detail::locale_ref)
PUBLIC 14ae4 0 fmt::v11::detail::do_write_float<char, fmt::v11::basic_appender<char>, fmt::v11::detail::dragonbox::decimal_fp<float>, fmt::v11::detail::digit_grouping<char> >(fmt::v11::basic_appender<char>, fmt::v11::detail::dragonbox::decimal_fp<float> const&, fmt::v11::format_specs const&, fmt::v11::detail::float_specs, fmt::v11::detail::locale_ref)::{lambda(fmt::v11::basic_appender<char>(fmt::v11::basic_appender<char>))#1}::operator() const
PUBLIC 14c38 0 fmt::v11::detail::digit_grouping<char>::digit_grouping(fmt::v11::detail::locale_ref, bool)
PUBLIC 14ea4 0 fmt::v11::detail::digit_grouping<char>::~digit_grouping()
PUBLIC 14ee8 0 fmt::v11::detail::write_exponent<char, fmt::v11::basic_appender<char> >(int, fmt::v11::basic_appender<char>)
PUBLIC 150b8 0 _ZN3fmt3v116detail17write_significandIcjTnNSt6__ndk19enable_ifIXsr3std11is_integralIT0_EE5valueEiE4typeELi0EEEPT_S9_S5_iiS8_
PUBLIC 15234 0 std::__ndk1::basic_string<char, std::__ndk1::char_traits<char>, std::__ndk1::allocator<char> >::__assign_no_alias<true>(char const*, unsigned long)
PUBLIC 152e0 0 std::__ndk1::basic_string<char, std::__ndk1::char_traits<char>, std::__ndk1::allocator<char> >::__assign_no_alias<false>(char const*, unsigned long)
PUBLIC 153f0 0 fmt::v11::detail::digit_grouping<char>::apply<fmt::v11::basic_appender<char>, char>(fmt::v11::basic_appender<char>, fmt::v11::basic_string_view<char>) const
PUBLIC 157a8 0 fmt::v11::basic_memory_buffer<int, (unsigned long)500, std::__ndk1::allocator<int> >::grow(fmt::v11::detail::buffer<int>&, unsigned long)
PUBLIC 15848 0 fmt::v11::detail::do_write_float<char, fmt::v11::basic_appender<char>, fmt::v11::detail::dragonbox::decimal_fp<double>, fmt::v11::detail::digit_grouping<char> >(fmt::v11::basic_appender<char>, fmt::v11::detail::dragonbox::decimal_fp<double> const&, fmt::v11::format_specs const&, fmt::v11::detail::float_specs, fmt::v11::detail::locale_ref)
PUBLIC 164fc 0 fmt::v11::detail::do_write_float<char, fmt::v11::basic_appender<char>, fmt::v11::detail::dragonbox::decimal_fp<double>, fmt::v11::detail::digit_grouping<char> >(fmt::v11::basic_appender<char>, fmt::v11::detail::dragonbox::decimal_fp<double> const&, fmt::v11::format_specs const&, fmt::v11::detail::float_specs, fmt::v11::detail::locale_ref)::{lambda(fmt::v11::basic_appender<char>(fmt::v11::basic_appender<char>))#1}::operator() const
PUBLIC 16654 0 _ZN3fmt3v116detail17write_significandIcmTnNSt6__ndk19enable_ifIXsr3std11is_integralIT0_EE5valueEiE4typeELi0EEEPT_S9_S5_iiS8_
PUBLIC 167e4 0 fmt::v11::detail::write_float<char, fmt::v11::basic_appender<char>, long double>(fmt::v11::basic_appender<char>, long double, fmt::v11::format_specs, fmt::v11::detail::locale_ref)
PUBLIC 172e0 0 fmt::v11::detail::write_padded<char, (fmt::v11::align::type)2, fmt::v11::basic_appender<char>, fmt::v11::detail::write_bytes<char, (fmt::v11::align::type)2, fmt::v11::basic_appender<char> >(fmt::v11::basic_appender<char>, fmt::v11::basic_string_view<char>, fmt::v11::format_specs const&)::{lambda(fmt::v11::basic_appender<char>&)#1}>(fmt::v11::basic_appender<char>, fmt::v11::format_specs const&, unsigned long, unsigned long, fmt::v11::detail::write_bytes<char, (fmt::v11::align::type)2, fmt::v11::basic_appender<char> >(fmt::v11::basic_appender<char>, fmt::v11::basic_string_view<char>, fmt::v11::format_specs const&)::{lambda(fmt::v11::basic_appender<char>&)#1})
PUBLIC 174bc 0 fmt::v11::detail::format_dragon(fmt::v11::detail::basic_fp<unsigned __int128>, unsigned int, int, fmt::v11::detail::buffer<char>&, int&)
PUBLIC 188ec 0 fmt::v11::detail::bigint::operator<<=(int)
PUBLIC 18a10 0 fmt::v11::detail::bigint::assign_pow10(int)
PUBLIC 1916c 0 fmt::v11::detail::bigint::divmod_assign(fmt::v11::detail::bigint const&)
PUBLIC 1948c 0 fmt::v11::basic_memory_buffer<unsigned int, (unsigned long)32, std::__ndk1::allocator<unsigned int> >::grow(fmt::v11::detail::buffer<unsigned int>&, unsigned long)
PUBLIC 1952c 0 fmt::v11::detail::do_write_float<char, fmt::v11::basic_appender<char>, fmt::v11::detail::big_decimal_fp, fmt::v11::detail::digit_grouping<char> >(fmt::v11::basic_appender<char>, fmt::v11::detail::big_decimal_fp const&, fmt::v11::format_specs const&, fmt::v11::detail::float_specs, fmt::v11::detail::locale_ref)
PUBLIC 1a3dc 0 fmt::v11::detail::do_write_float<char, fmt::v11::basic_appender<char>, fmt::v11::detail::big_decimal_fp, fmt::v11::detail::digit_grouping<char> >(fmt::v11::basic_appender<char>, fmt::v11::detail::big_decimal_fp const&, fmt::v11::format_specs const&, fmt::v11::detail::float_specs, fmt::v11::detail::locale_ref)::{lambda(fmt::v11::basic_appender<char>(fmt::v11::basic_appender<char>))#1}::operator() const
PUBLIC 1a53c 0 fmt::v11::detail::write_padded<char, (fmt::v11::align::type)2, fmt::v11::basic_appender<char>, fmt::v11::detail::write_ptr<char, fmt::v11::basic_appender<char>, unsigned long>(fmt::v11::basic_appender<char>, unsigned long, fmt::v11::format_specs const*)::{lambda(fmt::v11::basic_appender<char>&)#1}>(fmt::v11::basic_appender<char>, fmt::v11::format_specs const&, unsigned long, unsigned long, fmt::v11::detail::write_ptr<char, fmt::v11::basic_appender<char>, unsigned long>(fmt::v11::basic_appender<char>, unsigned long, fmt::v11::format_specs const*)::{lambda(fmt::v11::basic_appender<char>&)#1})
PUBLIC 1a750 0 fmt::v11::detail::parse_replacement_field<char, fmt::v11::detail::vformat_to<char>(fmt::v11::detail::buffer<char>&, fmt::v11::basic_string_view<char>, fmt::v11::detail::vformat_args<char>::type, fmt::v11::detail::locale_ref)::format_handler&>(char const*, char const*, fmt::v11::detail::vformat_to<char>(fmt::v11::detail::buffer<char>&, fmt::v11::basic_string_view<char>, fmt::v11::detail::vformat_args<char>::type, fmt::v11::detail::locale_ref)::format_handler&)
PUBLIC 1c3ec 0 fmt::v11::detail::parse_dynamic_spec<char>(char const*, char const*, int&, fmt::v11::detail::arg_ref<char>&, fmt::v11::basic_format_parse_context<char>&)
PUBLIC 1c67c 0 fmt::v11::basic_format_args<fmt::v11::context>::get<char>(fmt::v11::basic_string_view<char>) const
PUBLIC 1c7d4 0 fmt::v11::detail::write_int_noinline<char, fmt::v11::basic_appender<char>, unsigned long>(fmt::v11::basic_appender<char>, fmt::v11::detail::write_int_arg<unsigned long>, fmt::v11::format_specs const&, fmt::v11::detail::locale_ref)
PUBLIC 1d628 0 fmt::v11::detail::write_int_noinline<char, fmt::v11::basic_appender<char>, unsigned __int128>(fmt::v11::basic_appender<char>, fmt::v11::detail::write_int_arg<unsigned __int128>, fmt::v11::format_specs const&, fmt::v11::detail::locale_ref)
PUBLIC 1e690 0 _ZN3fmt3v116detail15format_hexfloatIdTnNSt6__ndk19enable_ifIXntsr16is_double_doubleIT_EE5valueEiE4typeELi0EEEvS5_NS0_12format_specsERNS1_6bufferIcEE
PUBLIC 1ebb0 0 fmt::v11::detail::format_float<double>(double, int, fmt::v11::detail::float_specs, fmt::v11::detail::buffer<char>&)
PUBLIC 1f550 0 fmt::v11::detail::write<char, fmt::v11::basic_appender<char> >(fmt::v11::basic_appender<char>, fmt::v11::basic_string_view<char>, fmt::v11::format_specs const&)
PUBLIC 208bc 0 fmt::v11::detail::for_each_codepoint<fmt::v11::detail::compute_width(fmt::v11::basic_string_view<char>)::count_code_points>(fmt::v11::basic_string_view<char>, fmt::v11::detail::compute_width(fmt::v11::basic_string_view<char>)::count_code_points)::{lambda(char const*, char const*)#1}::operator()(char const*, char const*) const
PUBLIC 20a74 0 fmt::v11::detail::write_int<fmt::v11::basic_appender<char>, unsigned long, char>(fmt::v11::basic_appender<char>, unsigned long, unsigned int, fmt::v11::format_specs const&, fmt::v11::detail::digit_grouping<char> const&)
PUBLIC 20ff0 0 fmt::v11::detail::write_int<fmt::v11::basic_appender<char>, unsigned __int128, char>(fmt::v11::basic_appender<char>, unsigned __int128, unsigned int, fmt::v11::format_specs const&, fmt::v11::detail::digit_grouping<char> const&)
PUBLIC 21670 0 <.plt ELF section in omgrod.minecraftifycpa.android64.so>
STACK CFI INIT 7a00 10 .cfa: sp 0 +
STACK CFI INIT 7a10 8 .cfa: sp 0 +
STACK CFI INIT 7a18 8 .cfa: sp 0 +
STACK CFI INIT 7a20 14 .cfa: sp 0 +
STACK CFI INIT 7a34 1c .cfa: sp 0 +
STACK CFI INIT 7a50 10 .cfa: sp 0 +
STACK CFI INIT 7a60 134 .cfa: sp 0 +
STACK CFI INIT 7b94 84 .cfa: sp 0 +
STACK CFI INIT 7c18 f4 .cfa: sp 0 +
STACK CFI INIT 7d0c a8 .cfa: sp 0 +
STACK CFI INIT 7db4 7c .cfa: sp 0 +
STACK CFI INIT 7e30 14 .cfa: sp 0 +
STACK CFI INIT 7e44 40 .cfa: sp 0 +
STACK CFI INIT 7e84 28 .cfa: sp 0 +
STACK CFI INIT 7eac 190 .cfa: sp 0 +
STACK CFI INIT 803c 2c8 .cfa: sp 0 +
STACK CFI INIT 8304 8 .cfa: sp 0 +
STACK CFI INIT 830c 8 .cfa: sp 0 +
STACK CFI INIT 8314 44 .cfa: sp 0 +
STACK CFI INIT 8358 e8 .cfa: sp 0 +
STACK CFI INIT 8440 e8 .cfa: sp 0 +
STACK CFI INIT 8528 14 .cfa: sp 0 +
STACK CFI INIT 853c 10 .cfa: sp 0 +
STACK CFI INIT 854c 10 .cfa: sp 0 +
STACK CFI INIT 855c f0 .cfa: sp 0 +
STACK CFI INIT 864c 44 .cfa: sp 0 +
STACK CFI INIT 8690 c .cfa: sp 0 +
STACK CFI INIT 869c c .cfa: sp 0 +
STACK CFI INIT 86a8 2c .cfa: sp 0 +
STACK CFI INIT 86d4 280 .cfa: sp 0 +
STACK CFI INIT 8954 c .cfa: sp 0 +
STACK CFI INIT 8960 120 .cfa: sp 0 +
STACK CFI INIT 8a80 488 .cfa: sp 0 +
STACK CFI INIT 8f08 c48 .cfa: sp 0 +
STACK CFI INIT 9b50 134 .cfa: sp 0 +
STACK CFI INIT 9c84 210 .cfa: sp 0 +
STACK CFI INIT 9e94 38c .cfa: sp 0 +
STACK CFI INIT a220 1c8 .cfa: sp 0 +
STACK CFI INIT a3e8 9bc .cfa: sp 0 +
STACK CFI INIT ada4 2d4 .cfa: sp 0 +
STACK CFI INIT b078 134 .cfa: sp 0 +
STACK CFI INIT b1ac 120 .cfa: sp 0 +
STACK CFI INIT b2cc 1c8 .cfa: sp 0 +
STACK CFI INIT b494 168 .cfa: sp 0 +
STACK CFI INIT b5fc fc .cfa: sp 0 +
STACK CFI INIT b6f8 30 .cfa: sp 0 +
STACK CFI INIT b860 30 .cfa: sp 0 +
STACK CFI INIT b890 98 .cfa: sp 0 +
STACK CFI INIT b928 59c .cfa: sp 0 +
STACK CFI INIT bec4 8c .cfa: sp 0 +
STACK CFI INIT bf50 30 .cfa: sp 0 +
STACK CFI INIT c0b8 44 .cfa: sp 0 +
STACK CFI c0bc .cfa: sp 32 +
STACK CFI c0c4 .cfa: x29 32 + x19: .cfa -16 + ^ .ra: .cfa -24 + ^ x29: .cfa -32 + ^
STACK CFI c0e0 .cfa: sp 32 +
STACK CFI c0e8 .cfa: sp 0 +
STACK CFI c0ec .cfa: x29 32 +
STACK CFI c0f0 .cfa: sp 32 +
STACK CFI c0f8 .cfa: sp 0 +
STACK CFI INIT c824 8c .cfa: sp 0 +
STACK CFI c828 .cfa: sp 48 +
STACK CFI c834 .cfa: x29 48 + x19: .cfa -8 + ^ x20: .cfa -16 + ^ x21: .cfa -32 + ^ .ra: .cfa -40 + ^ x29: .cfa -48 + ^
STACK CFI c84c .cfa: sp 48 +
STACK CFI c858 .cfa: sp 0 +
STACK CFI c85c .cfa: x29 48 +
STACK CFI c8a0 .cfa: sp 48 +
STACK CFI c8ac .cfa: sp 0 +
STACK CFI INIT cba4 84 .cfa: sp 0 +
STACK CFI cba8 .cfa: sp 32 +
STACK CFI cbb0 .cfa: x29 32 + x19: .cfa -8 + ^ x20: .cfa -16 + ^ .ra: .cfa -24 + ^ x29: .cfa -32 + ^
STACK CFI cbcc .cfa: sp 32 +
STACK CFI cbd4 .cfa: sp 0 +
STACK CFI cbd8 .cfa: x29 32 +
STACK CFI cc1c .cfa: sp 32 +
STACK CFI cc24 .cfa: sp 0 +
STACK CFI INIT cc28 10 .cfa: sp 0 +
STACK CFI cc2c .cfa: sp 16 +
STACK CFI cc30 .cfa: x29 16 + .ra: .cfa -8 + ^ x29: .cfa -16 + ^
STACK CFI INIT cc38 5c .cfa: sp 0 +
STACK CFI cc3c .cfa: sp 32 +
STACK CFI cc44 .cfa: x29 32 + x19: .cfa -16 + ^ .ra: .cfa -24 + ^ x29: .cfa -32 + ^
STACK CFI cc7c .cfa: sp 32 +
STACK CFI cc84 .cfa: sp 0 +
STACK CFI cc88 .cfa: sp 32 +
STACK CFI cc90 .cfa: sp 0 +
STACK CFI INIT cc94 458 .cfa: sp 0 +
STACK CFI INIT d0ec 34 .cfa: sp 0 +
STACK CFI d0f0 .cfa: sp 32 +
STACK CFI d0f8 .cfa: x29 32 + x19: .cfa -16 + ^ .ra: .cfa -24 + ^ x29: .cfa -32 + ^
STACK CFI INIT d120 14 .cfa: sp 0 +
STACK CFI d124 .cfa: sp 16 +
STACK CFI d128 .cfa: x29 16 + .ra: .cfa -8 + ^ x29: .cfa -16 + ^
STACK CFI INIT d184 30 .cfa: sp 0 +
STACK CFI d188 .cfa: sp 32 +
STACK CFI d190 .cfa: x29 32 + x19: .cfa -16 + ^ .ra: .cfa -24 + ^ x29: .cfa -32 + ^
STACK CFI d1a8 .cfa: sp 32 +
STACK CFI d1b0 .cfa: sp 0 +
STACK CFI INIT d1b4 50 .cfa: sp 0 +
STACK CFI d1b8 .cfa: sp 32 +
STACK CFI d1c0 .cfa: x29 32 + x19: .cfa -16 + ^ .ra: .cfa -24 + ^ x29: .cfa -32 + ^
STACK CFI d1d8 .cfa: sp 32 +
STACK CFI d1e0 .cfa: sp 0 +
STACK CFI d1e4 .cfa: x29 32 +
STACK CFI d1f8 .cfa: sp 32 +
STACK CFI d200 .cfa: sp 0 +
STACK CFI INIT d204 50 .cfa: sp 0 +
STACK CFI d208 .cfa: sp 32 +
STACK CFI d210 .cfa: x29 32 + x19: .cfa -16 + ^ .ra: .cfa -24 + ^ x29: .cfa -32 + ^
STACK CFI d228 .cfa: sp 32 +
STACK CFI d230 .cfa: sp 0 +
STACK CFI d234 .cfa: x29 32 +
STACK CFI d248 .cfa: sp 32 +
STACK CFI d250 .cfa: sp 0 +
STACK CFI INIT d254 f8 .cfa: sp 0 +
STACK CFI d258 .cfa: sp 64 +
STACK CFI d268 .cfa: x29 64 + x19: .cfa -8 + ^ x20: .cfa -16 + ^ x21: .cfa -24 + ^ x22: .cfa -32 + ^ x23: .cfa -48 + ^ .ra: .cfa -56 + ^ x29: .cfa -64 + ^
STACK CFI d2c4 .cfa: sp 64 +
STACK CFI d2d4 .cfa: sp 0 +
STACK CFI d2d8 .cfa: x29 64 +
STACK CFI d2f4 .cfa: sp 64 +
STACK CFI d304 .cfa: sp 0 +
STACK CFI d308 .cfa: x29 64 +
STACK CFI d338 .cfa: sp 64 +
STACK CFI d348 .cfa: sp 0 +
STACK CFI INIT d34c 238 .cfa: sp 0 +
STACK CFI d350 .cfa: sp 64 +
STACK CFI d360 .cfa: x29 64 + x19: .cfa -8 + ^ x20: .cfa -16 + ^ x21: .cfa -24 + ^ x22: .cfa -32 + ^ x23: .cfa -40 + ^ x24: .cfa -48 + ^ .ra: .cfa -56 + ^ x29: .cfa -64 + ^
STACK CFI d3bc .cfa: sp 64 +
STACK CFI d3cc .cfa: sp 0 +
STACK CFI d3d0 .cfa: x29 64 +
STACK CFI d554 .cfa: sp 64 +
STACK CFI d564 .cfa: sp 0 +
STACK CFI d568 .cfa: x29 64 +
STACK CFI d570 .cfa: sp 64 +
STACK CFI d580 .cfa: sp 0 +
STACK CFI INIT d5cc 38 .cfa: sp 0 +
STACK CFI d5d0 .cfa: sp 32 +
STACK CFI d5d8 .cfa: x29 32 + x19: .cfa -16 + ^ .ra: .cfa -24 + ^ x29: .cfa -32 + ^
STACK CFI d5f8 .cfa: sp 32 +
STACK CFI d600 .cfa: sp 0 +
STACK CFI INIT d604 80 .cfa: sp 0 +
STACK CFI d608 .cfa: sp 48 +
STACK CFI d614 .cfa: x29 48 + x19: .cfa -8 + ^ x20: .cfa -16 + ^ x21: .cfa -24 + ^ x22: .cfa -32 + ^ .ra: .cfa -40 + ^ x29: .cfa -48 + ^
STACK CFI d62c .cfa: sp 48 +
STACK CFI d638 .cfa: sp 0 +
STACK CFI d63c .cfa: x29 48 +
STACK CFI d66c .cfa: sp 48 +
STACK CFI d678 .cfa: sp 0 +
STACK CFI d67c .cfa: x29 48 +
STACK CFI INIT d76c 34 .cfa: sp 0 +
STACK CFI d770 .cfa: sp 16 +
STACK CFI d774 .cfa: x29 16 + .ra: .cfa -8 + ^ x29: .cfa -16 + ^
STACK CFI INIT d7a0 4 .cfa: sp 0 +
STACK CFI INIT d7a4 14 .cfa: sp 0 +
STACK CFI INIT d7b8 14 .cfa: sp 0 +
STACK CFI INIT d7cc 14 .cfa: sp 0 +
STACK CFI INIT d7e0 50 .cfa: sp 0 +
STACK CFI d7e4 .cfa: sp 32 +
STACK CFI d7ec .cfa: x29 32 + x19: .cfa -16 + ^ .ra: .cfa -24 + ^ x29: .cfa -32 + ^
STACK CFI d804 .cfa: sp 32 +
STACK CFI d80c .cfa: sp 0 +
STACK CFI d810 .cfa: x29 32 +
STACK CFI d824 .cfa: sp 32 +
STACK CFI d82c .cfa: sp 0 +
STACK CFI INIT d830 4 .cfa: sp 0 +
STACK CFI INIT d834 4 .cfa: sp 0 +
STACK CFI INIT d838 34 .cfa: sp 0 +
STACK CFI d83c .cfa: sp 32 +
STACK CFI d844 .cfa: x29 32 + x19: .cfa -16 + ^ .ra: .cfa -24 + ^ x29: .cfa -32 + ^
STACK CFI d860 .cfa: sp 32 +
STACK CFI d868 .cfa: sp 0 +
STACK CFI INIT d86c 14 .cfa: sp 0 +
STACK CFI INIT d880 4 .cfa: sp 0 +
STACK CFI INIT d884 4 .cfa: sp 0 +
STACK CFI INIT df04 1c .cfa: sp 0 +
STACK CFI INIT df20 c .cfa: sp 0 +
STACK CFI INIT df2c 4 .cfa: sp 0 +
STACK CFI INIT df30 14 .cfa: sp 0 +
STACK CFI INIT df44 4 .cfa: sp 0 +
STACK CFI INIT e0ac 9c .cfa: sp 0 +
STACK CFI e0b0 .cfa: sp 32 +
STACK CFI e0b8 .cfa: x29 32 + x19: .cfa -8 + ^ x20: .cfa -16 + ^ .ra: .cfa -24 + ^ x29: .cfa -32 + ^
STACK CFI e13c .cfa: sp 32 +
STACK CFI e144 .cfa: sp 0 +
STACK CFI INIT e148 a4 .cfa: sp 0 +
STACK CFI e14c .cfa: sp 32 +
STACK CFI e154 .cfa: x29 32 + x19: .cfa -8 + ^ x20: .cfa -16 + ^ .ra: .cfa -24 + ^ x29: .cfa -32 + ^
STACK CFI e1e0 .cfa: sp 32 +
STACK CFI e1e8 .cfa: sp 0 +
STACK CFI INIT ec38 3c .cfa: sp 0 +
STACK CFI ec3c .cfa: sp 32 +
STACK CFI ec44 .cfa: x29 32 + x19: .cfa -16 + ^ .ra: .cfa -24 + ^ x29: .cfa -32 + ^
STACK CFI ec50 .cfa: sp 32 +
STACK CFI ec58 .cfa: sp 0 +
STACK CFI ec5c .cfa: x29 32 +
STACK CFI ec68 .cfa: sp 32 +
STACK CFI ec70 .cfa: sp 0 +
STACK CFI INIT ec74 c .cfa: sp 0 +
STACK CFI INIT ec80 24c .cfa: sp 0 +
STACK CFI INIT eecc a0 .cfa: sp 0 +
STACK CFI eed8 .cfa: sp 32 +
STACK CFI ef30 .cfa: sp 0 +
STACK CFI ef34 .cfa: sp 32 +
STACK CFI ef3c .cfa: sp 0 +
STACK CFI ef40 .cfa: sp 32 +
STACK CFI ef54 .cfa: sp 0 +
STACK CFI ef58 .cfa: sp 32 +
STACK CFI ef68 .cfa: sp 0 +
STACK CFI INIT ef6c 38 .cfa: sp 0 +
STACK CFI ef78 .cfa: sp 32 +
STACK CFI efa0 .cfa: sp 0 +
STACK CFI INIT f238 7c .cfa: sp 0 +
STACK CFI f23c .cfa: sp 32 +
STACK CFI f244 .cfa: x29 32 + x19: .cfa -16 + ^ .ra: .cfa -24 + ^ x29: .cfa -32 + ^
STACK CFI f270 .cfa: sp 32 +
STACK CFI f278 .cfa: sp 0 +
STACK CFI f27c .cfa: x29 32 +
STACK CFI f2a8 .cfa: sp 32 +
STACK CFI f2b0 .cfa: sp 0 +
STACK CFI INIT f304 2c .cfa: sp 0 +
STACK CFI f308 .cfa: sp 32 +
STACK CFI f310 .cfa: x29 32 + x19: .cfa -16 + ^ .ra: .cfa -24 + ^ x29: .cfa -32 + ^
STACK CFI f324 .cfa: sp 32 +
STACK CFI f32c .cfa: sp 0 +
STACK CFI INIT faf0 64 .cfa: sp 0 +
STACK CFI faf4 .cfa: sp 32 +
STACK CFI fafc .cfa: x29 32 + x19: .cfa -16 + ^ .ra: .cfa -24 + ^ x29: .cfa -32 + ^
STACK CFI fb18 .cfa: sp 32 +
STACK CFI fb20 .cfa: sp 0 +
STACK CFI fb24 .cfa: x29 32 +
STACK CFI fb48 .cfa: sp 32 +
STACK CFI fb50 .cfa: sp 0 +
STACK CFI INIT fb54 570 .cfa: sp 0 +
STACK CFI fb58 .cfa: sp 176 +
STACK CFI fb6c .cfa: x29 64 + x19: .cfa -8 + ^ x20: .cfa -16 + ^ x21: .cfa -24 + ^ x22: .cfa -32 + ^ x23: .cfa -40 + ^ x24: .cfa -48 + ^ .ra: .cfa -56 + ^ x29: .cfa -64 + ^
STACK CFI fd9c .cfa: sp 176 +
STACK CFI fdb0 .cfa: sp 0 +
STACK CFI fdb4 .cfa: x29 64 +
STACK CFI fe00 .cfa: sp 176 +
STACK CFI fe14 .cfa: sp 0 +
STACK CFI fe18 .cfa: x29 64 +
STACK CFI fe50 .cfa: sp 176 +
STACK CFI fe64 .cfa: sp 0 +
STACK CFI fe68 .cfa: x29 64 +
STACK CFI fe80 .cfa: sp 176 +
STACK CFI fe94 .cfa: sp 0 +
STACK CFI fe98 .cfa: x29 64 +
STACK CFI feb8 .cfa: sp 176 +
STACK CFI fecc .cfa: sp 0 +
STACK CFI fed0 .cfa: x29 64 +
STACK CFI fee8 .cfa: sp 176 +
STACK CFI fefc .cfa: sp 0 +
STACK CFI ff00 .cfa: x29 64 +
STACK CFI ff14 .cfa: sp 176 +
STACK CFI ff28 .cfa: sp 0 +
STACK CFI ff2c .cfa: x29 64 +
STACK CFI ff40 .cfa: sp 176 +
STACK CFI ff54 .cfa: sp 0 +
STACK CFI ff58 .cfa: x29 64 +
STACK CFI ff68 .cfa: sp 176 +
STACK CFI ff7c .cfa: sp 0 +
STACK CFI ff80 .cfa: x29 64 +
STACK CFI ff90 .cfa: sp 176 +
STACK CFI ffa4 .cfa: sp 0 +
STACK CFI ffa8 .cfa: x29 64 +
STACK CFI ffc0 .cfa: sp 176 +
STACK CFI ffd4 .cfa: sp 0 +
STACK CFI ffd8 .cfa: x29 64 +
STACK CFI ffec .cfa: sp 176 +
STACK CFI 10000 .cfa: sp 0 +
STACK CFI 10004 .cfa: x29 64 +
STACK CFI 1001c .cfa: sp 176 +
STACK CFI 10030 .cfa: sp 0 +
STACK CFI 10034 .cfa: x29 64 +
STACK CFI 10060 .cfa: sp 176 +
STACK CFI 10074 .cfa: sp 0 +
STACK CFI 10078 .cfa: x29 64 +
STACK CFI 1008c .cfa: sp 176 +
STACK CFI 100a0 .cfa: sp 0 +
STACK CFI 100a4 .cfa: x29 64 +
STACK CFI INIT 100c4 228 .cfa: sp 0 +
STACK CFI INIT 102ec 2dc .cfa: sp 0 +
STACK CFI INIT 105c8 53c .cfa: sp 0 +
STACK CFI INIT 10b04 78 .cfa: sp 0 +
STACK CFI 10b08 .cfa: sp 48 +
STACK CFI 10b14 .cfa: x29 48 + x19: .cfa -8 + ^ x20: .cfa -16 + ^ x21: .cfa -24 + ^ x22: .cfa -32 + ^ .ra: .cfa -40 + ^ x29: .cfa -48 + ^
STACK CFI 10b5c .cfa: sp 48 +
STACK CFI 10b68 .cfa: sp 0 +
STACK CFI 10b6c .cfa: sp 48 +
STACK CFI 10b78 .cfa: sp 0 +
STACK CFI INIT 10b7c 8c .cfa: sp 0 +
STACK CFI 10b80 .cfa: sp 32 +
STACK CFI 10b88 .cfa: x29 32 + x19: .cfa -16 + ^ .ra: .cfa -24 + ^ x29: .cfa -32 + ^
STACK CFI 10bbc .cfa: sp 32 +
STACK CFI 10bc4 .cfa: sp 0 +
STACK CFI 10bc8 .cfa: x29 32 +
STACK CFI 10bfc .cfa: sp 32 +
STACK CFI 10c04 .cfa: sp 0 +
STACK CFI INIT 10c08 24 .cfa: sp 0 +
STACK CFI 10c0c .cfa: sp 32 +
STACK CFI 10c14 .cfa: x29 32 + x19: .cfa -16 + ^ .ra: .cfa -24 + ^ x29: .cfa -32 + ^
STACK CFI 10c20 .cfa: sp 32 +
STACK CFI 10c28 .cfa: sp 0 +
STACK CFI INIT 10c2c 150 .cfa: sp 0 +
STACK CFI 10c30 .cfa: sp 48 +
STACK CFI 10c3c .cfa: x29 48 + x19: .cfa -8 + ^ x20: .cfa -16 + ^ x21: .cfa -24 + ^ x22: .cfa -32 + ^ .ra: .cfa -40 + ^ x29: .cfa -48 + ^
STACK CFI 10d6c .cfa: sp 48 +
STACK CFI 10d78 .cfa: sp 0 +
STACK CFI INIT 10d7c 68 .cfa: sp 0 +
STACK CFI 10d80 .cfa: sp 64 +
STACK CFI 10d8c .cfa: x29 32 + x19: .cfa -16 + ^ .ra: .cfa -24 + ^ x29: .cfa -32 + ^
STACK CFI 10dd0 .cfa: sp 64 +
STACK CFI 10ddc .cfa: sp 0 +
STACK CFI 10de0 .cfa: x29 32 +
STACK CFI INIT 10de4 90 .cfa: sp 0 +
STACK CFI 10de8 .cfa: sp 32 +
STACK CFI 10df0 .cfa: x29 32 + x19: .cfa -8 + ^ x20: .cfa -16 + ^ .ra: .cfa -24 + ^ x29: .cfa -32 + ^
STACK CFI 10e1c .cfa: sp 32 +
STACK CFI 10e24 .cfa: sp 0 +
STACK CFI 10e28 .cfa: x29 32 +
STACK CFI 10e68 .cfa: sp 32 +
STACK CFI 10e70 .cfa: sp 0 +
STACK CFI INIT 10e74 ec .cfa: sp 0 +
STACK CFI 10e78 .cfa: sp 112 +
STACK CFI 10e88 .cfa: x29 48 + x19: .cfa -8 + ^ x20: .cfa -16 + ^ x21: .cfa -32 + ^ .ra: .cfa -40 + ^ x29: .cfa -48 + ^
STACK CFI 10f48 .cfa: sp 112 +
STACK CFI 10f58 .cfa: sp 0 +
STACK CFI 10f5c .cfa: x29 48 +
STACK CFI INIT 10f60 ec .cfa: sp 0 +
STACK CFI 10f64 .cfa: sp 112 +
STACK CFI 10f74 .cfa: x29 48 + x19: .cfa -8 + ^ x20: .cfa -16 + ^ x21: .cfa -32 + ^ .ra: .cfa -40 + ^ x29: .cfa -48 + ^
STACK CFI 11034 .cfa: sp 112 +
STACK CFI 11044 .cfa: sp 0 +
STACK CFI 11048 .cfa: x29 48 +
STACK CFI INIT 1104c 48 .cfa: sp 0 +
STACK CFI 11050 .cfa: sp 32 +
STACK CFI 11058 .cfa: x29 32 + x19: .cfa -8 + ^ x20: .cfa -16 + ^ .ra: .cfa -24 + ^ x29: .cfa -32 + ^
STACK CFI 1107c .cfa: sp 32 +
STACK CFI 11084 .cfa: sp 0 +
STACK CFI 11088 .cfa: x29 32 +
STACK CFI INIT 11094 98 .cfa: sp 0 +
STACK CFI 11098 .cfa: sp 80 +
STACK CFI 110a4 .cfa: x29 32 + x19: .cfa -16 + ^ .ra: .cfa -24 + ^ x29: .cfa -32 + ^
STACK CFI 11118 .cfa: sp 80 +
STACK CFI 11124 .cfa: sp 0 +
STACK CFI 11128 .cfa: x29 32 +
STACK CFI INIT 1112c 260 .cfa: sp 0 +
STACK CFI 11130 .cfa: sp 112 +
STACK CFI 11148 .cfa: x29 80 + x19: .cfa -8 + ^ x20: .cfa -16 + ^ x21: .cfa -24 + ^ x22: .cfa -32 + ^ x23: .cfa -40 + ^ x24: .cfa -48 + ^ x25: .cfa -64 + ^ .ra: .cfa -72 + ^ x29: .cfa -80 + ^
STACK CFI 1132c .cfa: sp 112 +
STACK CFI 11344 .cfa: sp 0 +
STACK CFI 11348 .cfa: x29 80 +
STACK CFI INIT 1138c 150 .cfa: sp 0 +
STACK CFI 11390 .cfa: sp 48 +
STACK CFI 1139c .cfa: x29 48 + x19: .cfa -8 + ^ x20: .cfa -16 + ^ x21: .cfa -24 + ^ x22: .cfa -32 + ^ .ra: .cfa -40 + ^ x29: .cfa -48 + ^
STACK CFI 114cc .cfa: sp 48 +
STACK CFI 114d8 .cfa: sp 0 +
STACK CFI INIT 114dc 1e0 .cfa: sp 0 +
STACK CFI 114e0 .cfa: sp 96 +
STACK CFI 114f4 .cfa: x29 64 + x19: .cfa -8 + ^ x20: .cfa -16 + ^ x21: .cfa -24 + ^ x22: .cfa -32 + ^ x23: .cfa -40 + ^ x24: .cfa -48 + ^ .ra: .cfa -56 + ^ x29: .cfa -64 + ^
STACK CFI 11674 .cfa: sp 96 +
STACK CFI 11688 .cfa: sp 0 +
STACK CFI 1168c .cfa: x29 64 +
STACK CFI INIT 116bc 284 .cfa: sp 0 +
STACK CFI 116c0 .cfa: sp 112 +
STACK CFI 116d8 .cfa: x29 80 + x19: .cfa -8 + ^ x20: .cfa -16 + ^ x21: .cfa -24 + ^ x22: .cfa -32 + ^ x23: .cfa -40 + ^ x24: .cfa -48 + ^ x25: .cfa -64 + ^ .ra: .cfa -72 + ^ x29: .cfa -80 + ^
STACK CFI 118e0 .cfa: sp 112 +
STACK CFI 118f8 .cfa: sp 0 +
STACK CFI 118fc .cfa: x29 80 +
STACK CFI INIT 11940 208 .cfa: sp 0 +
STACK CFI 11944 .cfa: sp 96 +
STACK CFI 11958 .cfa: x29 64 + x19: .cfa -8 + ^ x20: .cfa -16 + ^ x21: .cfa -24 + ^ x22: .cfa -32 + ^ x23: .cfa -40 + ^ x24: .cfa -48 + ^ .ra: .cfa -56 + ^ x29: .cfa -64 + ^
STACK CFI 11b00 .cfa: sp 96 +
STACK CFI 11b14 .cfa: sp 0 +
STACK CFI 11b18 .cfa: x29 64 +
STACK CFI INIT 11b48 360 .cfa: sp 0 +
STACK CFI 11b4c .cfa: sp 160 +
STACK CFI 11b68 .cfa: x29 96 + x19: .cfa -8 + ^ x20: .cfa -16 + ^ x21: .cfa -24 + ^ x22: .cfa -32 + ^ x23: .cfa -40 + ^ x24: .cfa -48 + ^ x25: .cfa -56 + ^ x26: .cfa -64 + ^ x27: .cfa -72 + ^ x28: .cfa -80 + ^ .ra: .cfa -88 + ^ x29: .cfa -96 + ^
STACK CFI 11e34 .cfa: sp 160 +
STACK CFI 11e50 .cfa: sp 0 +
STACK CFI 11e54 .cfa: x29 96 +
STACK CFI INIT 11ea8 314 .cfa: sp 0 +
STACK CFI 11eac .cfa: sp 144 +
STACK CFI 11ec8 .cfa: x29 96 + x19: .cfa -8 + ^ x20: .cfa -16 + ^ x21: .cfa -24 + ^ x22: .cfa -32 + ^ x23: .cfa -40 + ^ x24: .cfa -48 + ^ x25: .cfa -56 + ^ x26: .cfa -64 + ^ x27: .cfa -72 + ^ x28: .cfa -80 + ^ .ra: .cfa -88 + ^ x29: .cfa -96 + ^
STACK CFI 12144 .cfa: sp 144 +
STACK CFI 12160 .cfa: sp 0 +
STACK CFI 12164 .cfa: x29 96 +
STACK CFI INIT 121bc 290 .cfa: sp 0 +
STACK CFI 121c0 .cfa: sp 128 +
STACK CFI 121d8 .cfa: x29 80 + x19: .cfa -8 + ^ x20: .cfa -16 + ^ x21: .cfa -24 + ^ x22: .cfa -32 + ^ x23: .cfa -40 + ^ x24: .cfa -48 + ^ x25: .cfa -56 + ^ x26: .cfa -64 + ^ .ra: .cfa -72 + ^ x29: .cfa -80 + ^
STACK CFI 1242c .cfa: sp 128 +
STACK CFI 12444 .cfa: sp 0 +
STACK CFI 12448 .cfa: x29 80 +
STACK CFI INIT 1244c ddc .cfa: sp 0 +
STACK CFI 12450 .cfa: sp 144 +
STACK CFI 1246c .cfa: x29 96 + x19: .cfa -8 + ^ x20: .cfa -16 + ^ x21: .cfa -24 + ^ x22: .cfa -32 + ^ x23: .cfa -40 + ^ x24: .cfa -48 + ^ x25: .cfa -56 + ^ x26: .cfa -64 + ^ x27: .cfa -72 + ^ x28: .cfa -80 + ^ .ra: .cfa -88 + ^ x29: .cfa -96 + ^
STACK CFI 13100 .cfa: sp 144 +
STACK CFI 1311c .cfa: sp 0 +
STACK CFI 13120 .cfa: x29 96 +
STACK CFI INIT 13228 1d0 .cfa: sp 0 +
STACK CFI 1322c .cfa: sp 80 +
STACK CFI 13240 .cfa: x29 80 + x19: .cfa -8 + ^ x20: .cfa -16 + ^ x21: .cfa -24 + ^ x22: .cfa -32 + ^ x23: .cfa -40 + ^ x24: .cfa -48 + ^ x25: .cfa -64 + ^ .ra: .cfa -72 + ^ x29: .cfa -80 + ^
STACK CFI 133e0 .cfa: sp 80 +
STACK CFI 133f4 .cfa: sp 0 +
STACK CFI INIT 133f8 23c .cfa: sp 0 +
STACK CFI 133fc .cfa: sp 112 +
STACK CFI 13410 .cfa: x29 64 + x19: .cfa -8 + ^ x20: .cfa -16 + ^ x21: .cfa -24 + ^ x22: .cfa -32 + ^ x23: .cfa -40 + ^ x24: .cfa -48 + ^ .ra: .cfa -56 + ^ x29: .cfa -64 + ^
STACK CFI 135ec .cfa: sp 112 +
STACK CFI 13600 .cfa: sp 0 +
STACK CFI 13604 .cfa: x29 64 +
STACK CFI INIT 13634 30c .cfa: sp 0 +
STACK CFI 13638 .cfa: sp 80 +
STACK CFI 1364c .cfa: x29 64 + x19: .cfa -8 + ^ x20: .cfa -16 + ^ x21: .cfa -24 + ^ x22: .cfa -32 + ^ x23: .cfa -40 + ^ x24: .cfa -48 + ^ .ra: .cfa -56 + ^ x29: .cfa -64 + ^
STACK CFI 137c8 .cfa: sp 80 +
STACK CFI 137dc .cfa: sp 0 +
STACK CFI 137e0 .cfa: x29 64 +
STACK CFI INIT 13940 178 .cfa: sp 0 +
STACK CFI 13944 .cfa: sp 80 +
STACK CFI 13958 .cfa: x29 64 + x19: .cfa -8 + ^ x20: .cfa -16 + ^ x21: .cfa -24 + ^ x22: .cfa -32 + ^ x23: .cfa -40 + ^ x24: .cfa -48 + ^ .ra: .cfa -56 + ^ x29: .cfa -64 + ^
STACK CFI 13a9c .cfa: sp 80 +
STACK CFI 13ab0 .cfa: sp 0 +
STACK CFI 13ab4 .cfa: x29 64 +
STACK CFI INIT 13ab8 178 .cfa: sp 0 +
STACK CFI 13abc .cfa: sp 80 +
STACK CFI 13ad0 .cfa: x29 64 + x19: .cfa -8 + ^ x20: .cfa -16 + ^ x21: .cfa -24 + ^ x22: .cfa -32 + ^ x23: .cfa -40 + ^ x24: .cfa -48 + ^ .ra: .cfa -56 + ^ x29: .cfa -64 + ^
STACK CFI 13c14 .cfa: sp 80 +
STACK CFI 13c28 .cfa: sp 0 +
STACK CFI 13c2c .cfa: x29 64 +
STACK CFI INIT 13c30 240 .cfa: sp 0 +
STACK CFI 13c34 .cfa: sp 96 +
STACK CFI 13c4c .cfa: x29 96 + x19: .cfa -8 + ^ x20: .cfa -16 + ^ x21: .cfa -24 + ^ x22: .cfa -32 + ^ x23: .cfa -40 + ^ x24: .cfa -48 + ^ x25: .cfa -56 + ^ x26: .cfa -64 + ^ x27: .cfa -72 + ^ x28: .cfa -80 + ^ .ra: .cfa -88 + ^ x29: .cfa -96 + ^
STACK CFI 13e54 .cfa: sp 96 +
STACK CFI 13e6c .cfa: sp 0 +
STACK CFI INIT 14ae4 154 .cfa: sp 0 +
STACK CFI 14ae8 .cfa: sp 96 +
STACK CFI 14afc .cfa: x29 64 + x19: .cfa -8 + ^ x20: .cfa -16 + ^ x21: .cfa -24 + ^ x22: .cfa -32 + ^ x23: .cfa -48 + ^ .ra: .cfa -56 + ^ x29: .cfa -64 + ^
STACK CFI 14bdc .cfa: sp 96 +
STACK CFI 14bf0 .cfa: sp 0 +
STACK CFI 14bf4 .cfa: x29 64 +
STACK CFI INIT 14ea4 44 .cfa: sp 0 +
STACK CFI 14ea8 .cfa: sp 32 +
STACK CFI 14eb0 .cfa: x29 32 + x19: .cfa -16 + ^ .ra: .cfa -24 + ^ x29: .cfa -32 + ^
STACK CFI 14ecc .cfa: sp 32 +
STACK CFI 14ed4 .cfa: sp 0 +
STACK CFI 14ed8 .cfa: x29 32 +
STACK CFI 14edc .cfa: sp 32 +
STACK CFI 14ee4 .cfa: sp 0 +
STACK CFI INIT 14ee8 1d0 .cfa: sp 0 +
STACK CFI 14eec .cfa: sp 64 +
STACK CFI 14efc .cfa: x29 64 + x19: .cfa -8 + ^ x20: .cfa -16 + ^ x21: .cfa -24 + ^ x22: .cfa -32 + ^ x23: .cfa -40 + ^ x24: .cfa -48 + ^ .ra: .cfa -56 + ^ x29: .cfa -64 + ^
STACK CFI 14fbc .cfa: sp 64 +
STACK CFI 14fcc .cfa: sp 0 +
STACK CFI 14fd0 .cfa: x29 64 +
STACK CFI INIT 150b8 17c .cfa: sp 0 +
STACK CFI INIT 15234 ac .cfa: sp 0 +
STACK CFI 15238 .cfa: sp 64 +
STACK CFI 15248 .cfa: x29 64 + x19: .cfa -8 + ^ x20: .cfa -16 + ^ x21: .cfa -24 + ^ x22: .cfa -32 + ^ x23: .cfa -48 + ^ .ra: .cfa -56 + ^ x29: .cfa -64 + ^
STACK CFI 152c4 .cfa: sp 64 +
STACK CFI 152d4 .cfa: sp 0 +
STACK CFI 152d8 .cfa: x29 64 +
STACK CFI INIT 152e0 110 .cfa: sp 0 +
STACK CFI 152e4 .cfa: sp 64 +
STACK CFI 152f4 .cfa: x29 64 + x19: .cfa -8 + ^ x20: .cfa -16 + ^ x21: .cfa -24 + ^ x22: .cfa -32 + ^ x23: .cfa -40 + ^ x24: .cfa -48 + ^ .ra: .cfa -56 + ^ x29: .cfa -64 + ^
STACK CFI 153d4 .cfa: sp 64 +
STACK CFI 153e4 .cfa: sp 0 +
STACK CFI 153e8 .cfa: x29 64 +
STACK CFI INIT 157a8 a0 .cfa: sp 0 +
STACK CFI 157ac .cfa: sp 48 +
STACK CFI 157b8 .cfa: x29 48 + x19: .cfa -8 + ^ x20: .cfa -16 + ^ x21: .cfa -24 + ^ x22: .cfa -32 + ^ .ra: .cfa -40 + ^ x29: .cfa -48 + ^
STACK CFI 15824 .cfa: sp 48 +
STACK CFI 15830 .cfa: sp 0 +
STACK CFI 15834 .cfa: sp 48 +
STACK CFI 15840 .cfa: sp 0 +
STACK CFI 15844 .cfa: x29 48 +
STACK CFI INIT 164fc 158 .cfa: sp 0 +
STACK CFI 16500 .cfa: sp 96 +
STACK CFI 16514 .cfa: x29 64 + x19: .cfa -8 + ^ x20: .cfa -16 + ^ x21: .cfa -24 + ^ x22: .cfa -32 + ^ x23: .cfa -48 + ^ .ra: .cfa -56 + ^ x29: .cfa -64 + ^
STACK CFI 165f8 .cfa: sp 96 +
STACK CFI 1660c .cfa: sp 0 +
STACK CFI 16610 .cfa: x29 64 +
STACK CFI INIT 16654 190 .cfa: sp 0 +
STACK CFI INIT 172e0 1dc .cfa: sp 0 +
STACK CFI 172e4 .cfa: sp 80 +
STACK CFI 172f8 .cfa: x29 80 + x19: .cfa -8 + ^ x20: .cfa -16 + ^ x21: .cfa -24 + ^ x22: .cfa -32 + ^ x23: .cfa -40 + ^ x24: .cfa -48 + ^ x25: .cfa -64 + ^ .ra: .cfa -72 + ^ x29: .cfa -80 + ^
STACK CFI 174a4 .cfa: sp 80 +
STACK CFI 174b8 .cfa: sp 0 +
STACK CFI INIT 188ec 124 .cfa: sp 0 +
STACK CFI 1891c .cfa: sp 32 +
STACK CFI 18924 .cfa: x29 32 + x19: .cfa -8 + ^ x20: .cfa -16 + ^ .ra: .cfa -24 + ^ x29: .cfa -32 + ^
STACK CFI 18a04 .cfa: sp 32 +
STACK CFI 18a0c .cfa: sp 0 +
STACK CFI INIT 1916c 320 .cfa: sp 0 +
STACK CFI 19170 .cfa: sp 64 +
STACK CFI 19180 .cfa: x29 64 + x19: .cfa -8 + ^ x20: .cfa -16 + ^ x21: .cfa -24 + ^ x22: .cfa -32 + ^ x23: .cfa -40 + ^ x24: .cfa -48 + ^ .ra: .cfa -56 + ^ x29: .cfa -64 + ^
STACK CFI 191fc .cfa: sp 64 +
STACK CFI 1920c .cfa: sp 0 +
STACK CFI 19210 .cfa: x29 64 +
STACK CFI 193e4 .cfa: sp 64 +
STACK CFI 193f4 .cfa: sp 0 +
STACK CFI 193f8 .cfa: x29 64 +
STACK CFI 19408 .cfa: sp 64 +
STACK CFI 19418 .cfa: sp 0 +
STACK CFI 1941c .cfa: x29 64 +
STACK CFI INIT 1948c a0 .cfa: sp 0 +
STACK CFI 19490 .cfa: sp 48 +
STACK CFI 1949c .cfa: x29 48 + x19: .cfa -8 + ^ x20: .cfa -16 + ^ x21: .cfa -24 + ^ x22: .cfa -32 + ^ .ra: .cfa -40 + ^ x29: .cfa -48 + ^
STACK CFI 19508 .cfa: sp 48 +
STACK CFI 19514 .cfa: sp 0 +
STACK CFI 19518 .cfa: sp 48 +
STACK CFI 19524 .cfa: sp 0 +
STACK CFI 19528 .cfa: x29 48 +
STACK CFI INIT 1a3dc 160 .cfa: sp 0 +
STACK CFI 1a3e0 .cfa: sp 64 +
STACK CFI 1a3f0 .cfa: x29 64 + x19: .cfa -8 + ^ x20: .cfa -16 + ^ x21: .cfa -24 + ^ x22: .cfa -32 + ^ x23: .cfa -48 + ^ .ra: .cfa -56 + ^ x29: .cfa -64 + ^
STACK CFI 1a4e8 .cfa: sp 64 +
STACK CFI 1a4f8 .cfa: sp 0 +
STACK CFI 1a4fc .cfa: x29 64 +
STACK CFI INIT 1a53c 214 .cfa: sp 0 +
STACK CFI 1a540 .cfa: sp 128 +
STACK CFI 1a55c .cfa: x29 96 + x19: .cfa -8 + ^ x20: .cfa -16 + ^ x21: .cfa -24 + ^ x22: .cfa -32 + ^ x23: .cfa -40 + ^ x24: .cfa -48 + ^ x25: .cfa -56 + ^ x26: .cfa -64 + ^ x27: .cfa -80 + ^ .ra: .cfa -88 + ^ x29: .cfa -96 + ^
STACK CFI 1a6d8 .cfa: sp 128 +
STACK CFI 1a6f4 .cfa: sp 0 +
STACK CFI 1a6f8 .cfa: x29 96 +
STACK CFI INIT 1c3ec 290 .cfa: sp 0 +
STACK CFI 1c3f0 .cfa: sp 16 +
STACK CFI 1c3f4 .cfa: x29 16 + .ra: .cfa -8 + ^ x29: .cfa -16 + ^
STACK CFI 1c480 .cfa: sp 16 +
STACK CFI 1c484 .cfa: sp 0 +
STACK CFI 1c488 .cfa: x29 16 +
STACK CFI 1c4d8 .cfa: sp 16 +
STACK CFI 1c4dc .cfa: sp 0 +
STACK CFI 1c4e0 .cfa: x29 16 +
STACK CFI 1c644 .cfa: sp 16 +
STACK CFI 1c648 .cfa: sp 0 +
STACK CFI 1c64c .cfa: x29 16 +
STACK CFI INIT 1c67c 158 .cfa: sp 0 +
STACK CFI 1c680 .cfa: sp 112 +
STACK CFI 1c69c .cfa: x29 96 + x19: .cfa -8 + ^ x20: .cfa -16 + ^ x21: .cfa -24 + ^ x22: .cfa -32 + ^ x23: .cfa -40 + ^ x24: .cfa -48 + ^ x25: .cfa -56 + ^ x26: .cfa -64 + ^ x27: .cfa -72 + ^ x28: .cfa -80 + ^ .ra: .cfa -88 + ^ x29: .cfa -96 + ^
STACK CFI 1c784 .cfa: sp 112 +
STACK CFI 1c788 .cfa: x29 96 +
STACK CFI 1c790 .cfa: sp 112 +
STACK CFI 1c7ac .cfa: sp 0 +
STACK CFI 1c7b0 .cfa: x29 96 +
STACK CFI 1c7d0 .cfa: sp 112 +
STACK CFI INIT 1c7d4 e54 .cfa: sp 0 +
STACK CFI 1c7d8 .cfa: sp 192 +
STACK CFI 1c7f4 .cfa: x29 96 + x19: .cfa -8 + ^ x20: .cfa -16 + ^ x21: .cfa -24 + ^ x22: .cfa -32 + ^ x23: .cfa -40 + ^ x24: .cfa -48 + ^ x25: .cfa -56 + ^ x26: .cfa -64 + ^ x27: .cfa -72 + ^ x28: .cfa -80 + ^ .ra: .cfa -88 + ^ x29: .cfa -96 + ^
STACK CFI 1d510 .cfa: sp 192 +
STACK CFI 1d52c .cfa: sp 0 +
STACK CFI 1d530 .cfa: x29 96 +
STACK CFI INIT 1d628 1068 .cfa: sp 0 +
STACK CFI 1d62c .cfa: sp 288 +
STACK CFI 1d648 .cfa: x29 96 + x19: .cfa -8 + ^ x20: .cfa -16 + ^ x21: .cfa -24 + ^ x22: .cfa -32 + ^ x23: .cfa -40 + ^ x24: .cfa -48 + ^ x25: .cfa -56 + ^ x26: .cfa -64 + ^ x27: .cfa -72 + ^ x28: .cfa -80 + ^ .ra: .cfa -88 + ^ x29: .cfa -96 + ^
STACK CFI 1e3d8 .cfa: sp 288 +
STACK CFI 1e3f4 .cfa: sp 0 +
STACK CFI 1e3f8 .cfa: x29 96 +
STACK CFI INIT 1e690 520 .cfa: sp 0 +
STACK CFI 1e694 .cfa: sp 144 +
STACK CFI 1e6b0 .cfa: x29 96 + x19: .cfa -8 + ^ x20: .cfa -16 + ^ x21: .cfa -24 + ^ x22: .cfa -32 + ^ x23: .cfa -40 + ^ x24: .cfa -48 + ^ x25: .cfa -56 + ^ x26: .cfa -64 + ^ x27: .cfa -72 + ^ x28: .cfa -80 + ^ .ra: .cfa -88 + ^ x29: .cfa -96 + ^
STACK CFI 1eb8c .cfa: sp 144 +
STACK CFI 1eba8 .cfa: sp 0 +
STACK CFI 1ebac .cfa: x29 96 +
STACK CFI INIT 1f550 136c .cfa: sp 0 +
STACK CFI 1f554 .cfa: sp 224 +
STACK CFI 1f570 .cfa: x29 96 + x19: .cfa -8 + ^ x20: .cfa -16 + ^ x21: .cfa -24 + ^ x22: .cfa -32 + ^ x23: .cfa -40 + ^ x24: .cfa -48 + ^ x25: .cfa -56 + ^ x26: .cfa -64 + ^ x27: .cfa -72 + ^ x28: .cfa -80 + ^ .ra: .cfa -88 + ^ x29: .cfa -96 + ^
STACK CFI 20898 .cfa: sp 224 +
STACK CFI 208b4 .cfa: sp 0 +
STACK CFI 208b8 .cfa: x29 96 +
STACK CFI INIT 208bc 1b8 .cfa: sp 0 +
STACK CFI INIT bf80 138 .cfa: sp 0 +
STACK CFI bf84 .cfa: sp 64 +
STACK CFI bf94 .cfa: x29 64 + x19: .cfa -8 + ^ x20: .cfa -16 + ^ x21: .cfa -24 + ^ x22: .cfa -32 + ^ x23: .cfa -40 + ^ x24: .cfa -48 + ^ .ra: .cfa -56 + ^ x29: .cfa -64 + ^
STACK CFI c030 .cfa: sp 64 +
STACK CFI c040 .cfa: sp 0 +
STACK CFI c044 .cfa: x29 64 +
STACK CFI c078 .cfa: sp 64 +
STACK CFI c088 .cfa: sp 0 +
STACK CFI c08c .cfa: x29 64 +
STACK CFI INIT c0fc 728 .cfa: sp 0 +
STACK CFI c100 .cfa: sp 144 +
STACK CFI c11c .cfa: x29 96 + x19: .cfa -8 + ^ x20: .cfa -16 + ^ x21: .cfa -24 + ^ x22: .cfa -32 + ^ x23: .cfa -40 + ^ x24: .cfa -48 + ^ x25: .cfa -56 + ^ x26: .cfa -64 + ^ x27: .cfa -72 + ^ x28: .cfa -80 + ^ .ra: .cfa -88 + ^ x29: .cfa -96 + ^
STACK CFI c794 .cfa: sp 144 +
STACK CFI c7b0 .cfa: sp 0 +
STACK CFI c7b4 .cfa: x29 96 +
STACK CFI INIT c8b0 2f4 .cfa: sp 0 +
STACK CFI c8b4 .cfa: sp 224 +
STACK CFI c8cc .cfa: x29 80 + x19: .cfa -8 + ^ x20: .cfa -16 + ^ x21: .cfa -24 + ^ x22: .cfa -32 + ^ x23: .cfa -40 + ^ x24: .cfa -48 + ^ x25: .cfa -64 + ^ .ra: .cfa -72 + ^ x29: .cfa -80 + ^
STACK CFI caac .cfa: sp 224 +
STACK CFI cac4 .cfa: sp 0 +
STACK CFI cac8 .cfa: x29 80 +
STACK CFI INIT d134 50 .cfa: sp 0 +
STACK CFI d138 .cfa: sp 32 +
STACK CFI d140 .cfa: x29 32 + x19: .cfa -8 + ^ x20: .cfa -16 + ^ .ra: .cfa -24 + ^ x29: .cfa -32 + ^
STACK CFI INIT d584 48 .cfa: sp 0 +
STACK CFI d588 .cfa: sp 32 +
STACK CFI d590 .cfa: x29 32 + x19: .cfa -8 + ^ x20: .cfa -16 + ^ .ra: .cfa -24 + ^ x29: .cfa -32 + ^
STACK CFI INIT d684 74 .cfa: sp 0 +
STACK CFI d688 .cfa: sp 48 +
STACK CFI d694 .cfa: x29 32 + x19: .cfa -8 + ^ x20: .cfa -16 + ^ .ra: .cfa -24 + ^ x29: .cfa -32 + ^
STACK CFI d6e0 .cfa: sp 48 +
STACK CFI d6ec .cfa: sp 0 +
STACK CFI d6f0 .cfa: x29 32 +
STACK CFI INIT d6f8 74 .cfa: sp 0 +
STACK CFI d6fc .cfa: sp 48 +
STACK CFI d708 .cfa: x29 32 + x19: .cfa -8 + ^ x20: .cfa -16 + ^ .ra: .cfa -24 + ^ x29: .cfa -32 + ^
STACK CFI d754 .cfa: sp 48 +
STACK CFI d760 .cfa: sp 0 +
STACK CFI d764 .cfa: x29 32 +
STACK CFI INIT d888 67c .cfa: sp 0 +
STACK CFI d88c .cfa: sp 96 +
STACK CFI d8a4 .cfa: x29 96 + x19: .cfa -8 + ^ x20: .cfa -16 + ^ x21: .cfa -24 + ^ x22: .cfa -32 + ^ x23: .cfa -40 + ^ x24: .cfa -48 + ^ x25: .cfa -56 + ^ x26: .cfa -64 + ^ x27: .cfa -72 + ^ x28: .cfa -80 + ^ .ra: .cfa -88 + ^ x29: .cfa -96 + ^
STACK CFI dd80 .cfa: sp 96 +
STACK CFI dd98 .cfa: sp 0 +
STACK CFI dd9c .cfa: x29 96 +
STACK CFI INIT df48 164 .cfa: sp 0 +
STACK CFI df4c .cfa: sp 112 +
STACK CFI df5c .cfa: x29 48 + x19: .cfa -8 + ^ x20: .cfa -16 + ^ x21: .cfa -24 + ^ x22: .cfa -32 + ^ .ra: .cfa -40 + ^ x29: .cfa -48 + ^
STACK CFI e048 .cfa: sp 112 +
STACK CFI e058 .cfa: sp 0 +
STACK CFI e05c .cfa: x29 48 +
STACK CFI INIT e1ec a4c .cfa: sp 0 +
STACK CFI e1f0 .cfa: sp 96 +
STACK CFI e208 .cfa: x29 96 + x19: .cfa -8 + ^ x20: .cfa -16 + ^ x21: .cfa -24 + ^ x22: .cfa -32 + ^ x23: .cfa -40 + ^ x24: .cfa -48 + ^ x25: .cfa -56 + ^ x26: .cfa -64 + ^ x27: .cfa -72 + ^ x28: .cfa -80 + ^ .ra: .cfa -88 + ^ x29: .cfa -96 + ^
STACK CFI e7c8 .cfa: sp 96 +
STACK CFI e7e0 .cfa: sp 0 +
STACK CFI e7e4 .cfa: x29 96 +
STACK CFI INIT efa4 294 .cfa: sp 0 +
STACK CFI efa8 .cfa: sp 240 +
STACK CFI efc0 .cfa: x29 80 + x19: .cfa -8 + ^ x20: .cfa -16 + ^ x21: .cfa -24 + ^ x22: .cfa -32 + ^ x23: .cfa -40 + ^ x24: .cfa -48 + ^ x25: .cfa -64 + ^ .ra: .cfa -72 + ^ x29: .cfa -80 + ^
STACK CFI f160 .cfa: sp 240 +
STACK CFI f178 .cfa: sp 0 +
STACK CFI f17c .cfa: x29 80 +
STACK CFI INIT f2b4 50 .cfa: sp 0 +
STACK CFI f2b8 .cfa: sp 32 +
STACK CFI f2c0 .cfa: x29 32 + x19: .cfa -8 + ^ x20: .cfa -16 + ^ .ra: .cfa -24 + ^ x29: .cfa -32 + ^
STACK CFI INIT f330 7c0 .cfa: sp 0 +
STACK CFI f334 .cfa: sp 320 +
STACK CFI f350 .cfa: x29 96 + x19: .cfa -8 + ^ x20: .cfa -16 + ^ x21: .cfa -24 + ^ x22: .cfa -32 + ^ x23: .cfa -40 + ^ x24: .cfa -48 + ^ x25: .cfa -56 + ^ x26: .cfa -64 + ^ x27: .cfa -72 + ^ x28: .cfa -80 + ^ .ra: .cfa -88 + ^ x29: .cfa -96 + ^
STACK CFI f9a0 .cfa: sp 320 +
STACK CFI f9bc .cfa: sp 0 +
STACK CFI f9c0 .cfa: x29 96 +
STACK CFI INIT 13e70 c74 .cfa: sp 0 +
STACK CFI 13e74 .cfa: sp 96 +
STACK CFI 13e8c .cfa: x29 96 + x19: .cfa -8 + ^ x20: .cfa -16 + ^ x21: .cfa -24 + ^ x22: .cfa -32 + ^ x23: .cfa -40 + ^ x24: .cfa -48 + ^ x25: .cfa -56 + ^ x26: .cfa -64 + ^ x27: .cfa -72 + ^ x28: .cfa -80 + ^ .ra: .cfa -88 + ^ x29: .cfa -96 + ^
STACK CFI 14904 .cfa: sp 96 +
STACK CFI 1491c .cfa: sp 0 +
STACK CFI 14920 .cfa: x29 96 +
STACK CFI INIT 14c38 26c .cfa: sp 0 +
STACK CFI 14c3c .cfa: sp 128 +
STACK CFI 14c4c .cfa: x29 48 + x19: .cfa -8 + ^ x20: .cfa -16 + ^ x21: .cfa -24 + ^ x22: .cfa -32 + ^ .ra: .cfa -40 + ^ x29: .cfa -48 + ^
STACK CFI 14df0 .cfa: sp 128 +
STACK CFI 14e00 .cfa: sp 0 +
STACK CFI 14e04 .cfa: x29 48 +
STACK CFI INIT 153f0 3b8 .cfa: sp 0 +
STACK CFI 153f4 .cfa: sp 96 +
STACK CFI 1540c .cfa: x29 96 + x19: .cfa -8 + ^ x20: .cfa -16 + ^ x21: .cfa -24 + ^ x22: .cfa -32 + ^ x23: .cfa -40 + ^ x24: .cfa -48 + ^ x25: .cfa -56 + ^ x26: .cfa -64 + ^ x27: .cfa -72 + ^ x28: .cfa -80 + ^ .ra: .cfa -88 + ^ x29: .cfa -96 + ^
STACK CFI 15748 .cfa: sp 96 +
STACK CFI 15760 .cfa: sp 0 +
STACK CFI 15764 .cfa: x29 96 +
STACK CFI INIT 15848 cb4 .cfa: sp 0 +
STACK CFI 1584c .cfa: sp 96 +
STACK CFI 15864 .cfa: x29 96 + x19: .cfa -8 + ^ x20: .cfa -16 + ^ x21: .cfa -24 + ^ x22: .cfa -32 + ^ x23: .cfa -40 + ^ x24: .cfa -48 + ^ x25: .cfa -56 + ^ x26: .cfa -64 + ^ x27: .cfa -72 + ^ x28: .cfa -80 + ^ .ra: .cfa -88 + ^ x29: .cfa -96 + ^
STACK CFI 1630c .cfa: sp 96 +
STACK CFI 16324 .cfa: sp 0 +
STACK CFI 16328 .cfa: x29 96 +
STACK CFI INIT 167e4 afc .cfa: sp 0 +
STACK CFI 167e8 .cfa: sp 96 +
STACK CFI 16800 .cfa: x29 96 + x19: .cfa -8 + ^ x20: .cfa -16 + ^ x21: .cfa -24 + ^ x22: .cfa -32 + ^ x23: .cfa -40 + ^ x24: .cfa -48 + ^ x25: .cfa -56 + ^ x26: .cfa -64 + ^ x27: .cfa -72 + ^ x28: .cfa -80 + ^ .ra: .cfa -88 + ^ x29: .cfa -96 + ^
STACK CFI 17254 .cfa: sp 96 +
STACK CFI 1726c .cfa: sp 0 +
STACK CFI 17270 .cfa: x29 96 +
STACK CFI INIT 174bc 1430 .cfa: sp 0 +
STACK CFI 174c0 .cfa: sp 96 +
STACK CFI 174d8 .cfa: x29 96 + x19: .cfa -8 + ^ x20: .cfa -16 + ^ x21: .cfa -24 + ^ x22: .cfa -32 + ^ x23: .cfa -40 + ^ x24: .cfa -48 + ^ x25: .cfa -56 + ^ x26: .cfa -64 + ^ x27: .cfa -72 + ^ x28: .cfa -80 + ^ .ra: .cfa -88 + ^ x29: .cfa -96 + ^
STACK CFI 18774 .cfa: sp 96 +
STACK CFI 1878c .cfa: sp 0 +
STACK CFI 18790 .cfa: x29 96 +
STACK CFI INIT 18a10 75c .cfa: sp 0 +
STACK CFI 18a14 .cfa: sp 368 +
STACK CFI 18a30 .cfa: x29 96 + x19: .cfa -8 + ^ x20: .cfa -16 + ^ x21: .cfa -24 + ^ x22: .cfa -32 + ^ x23: .cfa -40 + ^ x24: .cfa -48 + ^ x25: .cfa -56 + ^ x26: .cfa -64 + ^ x27: .cfa -72 + ^ x28: .cfa -80 + ^ .ra: .cfa -88 + ^ x29: .cfa -96 + ^
STACK CFI 18ae4 .cfa: sp 368 +
STACK CFI 18b00 .cfa: sp 0 +
STACK CFI 18b04 .cfa: x29 96 +
STACK CFI 18b58 .cfa: sp 368 +
STACK CFI 18b74 .cfa: sp 0 +
STACK CFI 18b78 .cfa: x29 96 +
STACK CFI INIT 1952c eb0 .cfa: sp 0 +
STACK CFI 19530 .cfa: sp 96 +
STACK CFI 19548 .cfa: x29 96 + x19: .cfa -8 + ^ x20: .cfa -16 + ^ x21: .cfa -24 + ^ x22: .cfa -32 + ^ x23: .cfa -40 + ^ x24: .cfa -48 + ^ x25: .cfa -56 + ^ x26: .cfa -64 + ^ x27: .cfa -72 + ^ x28: .cfa -80 + ^ .ra: .cfa -88 + ^ x29: .cfa -96 + ^
STACK CFI 1a1f0 .cfa: sp 96 +
STACK CFI 1a208 .cfa: sp 0 +
STACK CFI 1a20c .cfa: x29 96 +
STACK CFI INIT 1a750 1c9c .cfa: sp 0 +
STACK CFI 1a754 .cfa: sp 112 +
STACK CFI 1a770 .cfa: x29 96 + x19: .cfa -8 + ^ x20: .cfa -16 + ^ x21: .cfa -24 + ^ x22: .cfa -32 + ^ x23: .cfa -40 + ^ x24: .cfa -48 + ^ x25: .cfa -56 + ^ x26: .cfa -64 + ^ x27: .cfa -72 + ^ x28: .cfa -80 + ^ .ra: .cfa -88 + ^ x29: .cfa -96 + ^ v8: .cfa -112 + ^
STACK CFI 1ab58 .cfa: sp 112 +
STACK CFI 1ab74 .cfa: sp 0 +
STACK CFI 1ab78 .cfa: x29 96 +
STACK CFI INIT 1ebb0 9a0 .cfa: sp 0 +
STACK CFI 1ebb4 .cfa: sp 144 +
STACK CFI 1ebcc .cfa: x29 80 + x19: .cfa -8 + ^ x20: .cfa -16 + ^ x21: .cfa -24 + ^ x22: .cfa -32 + ^ x23: .cfa -40 + ^ x24: .cfa -48 + ^ x25: .cfa -64 + ^ .ra: .cfa -72 + ^ x29: .cfa -80 + ^
STACK CFI 1f4cc .cfa: sp 144 +
STACK CFI 1f4e4 .cfa: sp 0 +
STACK CFI 1f4e8 .cfa: x29 80 +
STACK CFI INIT 20a74 57c .cfa: sp 0 +
STACK CFI 20a78 .cfa: sp 96 +
STACK CFI 20a90 .cfa: x29 96 + x19: .cfa -8 + ^ x20: .cfa -16 + ^ x21: .cfa -24 + ^ x22: .cfa -32 + ^ x23: .cfa -40 + ^ x24: .cfa -48 + ^ x25: .cfa -56 + ^ x26: .cfa -64 + ^ x27: .cfa -72 + ^ x28: .cfa -80 + ^ .ra: .cfa -88 + ^ x29: .cfa -96 + ^
STACK CFI 20f54 .cfa: sp 96 +
STACK CFI 20f6c .cfa: sp 0 +
STACK CFI 20f70 .cfa: x29 96 +
STACK CFI INIT 20ff0 67c .cfa: sp 0 +
STACK CFI 20ff4 .cfa: sp 96 +
STACK CFI 2100c .cfa: x29 96 + x19: .cfa -8 + ^ x20: .cfa -16 + ^ x21: .cfa -24 + ^ x22: .cfa -32 + ^ x23: .cfa -40 + ^ x24: .cfa -48 + ^ x25: .cfa -56 + ^ x26: .cfa -64 + ^ x27: .cfa -72 + ^ x28: .cfa -80 + ^ .ra: .cfa -88 + ^ x29: .cfa -96 + ^
STACK CFI 215d0 .cfa: sp 96 +
STACK CFI 215e8 .cfa: sp 0 +
STACK CFI 215ec .cfa: x29 96 +
