MODULE Linux arm64 B0A8A9D522AB29D0999674812A2BEFAA0 hiimjustin000.more_icons.android64.so
INFO CODE_ID D5A9A8B0AB22D029999674812A2BEFAAF422367B
INFO GENERATOR mozilla/dump_syms 2.3.4
PUBLIC 35ba0 0 __on_dlclose
PUBLIC 35bb0 0 __emutls_unregister_key
PUBLIC 35bb8 0 __on_dlclose_late
PUBLIC 35bc0 0 __atexit_handler_wrapper
PUBLIC 35bd4 0 atexit
PUBLIC 35bf0 0 pthread_atfork
PUBLIC 35c00 0 unwind_phase2
PUBLIC 35d34 0 _Unwind_Resume
PUBLIC 35db8 0 unwind_phase2_forced
PUBLIC m 35eac 0 __unw_init_local
PUBLIC m 35f54 0 __unw_get_reg
PUBLIC 35fd0 0 __unw_step_stage2
PUBLIC m 35fe4 0 __unw_get_proc_info
PUBLIC m 36024 0 __unw_resume
PUBLIC 3604c 0 libunwind::CFI_Parser<libunwind::LocalAddressSpace>::decodeFDE(libunwind::LocalAddressSpace&, unsigned long, libunwind::CFI_Parser<libunwind::LocalAddressSpace>::FDE_Info*, libunwind::CFI_Parser<libunwind::LocalAddressSpace>::CIE_Info*, bool)
PUBLIC 361dc 0 libunwind::CFI_Parser<libunwind::LocalAddressSpace>::parseCIE(libunwind::LocalAddressSpace&, unsigned long, libunwind::CFI_Parser<libunwind::LocalAddressSpace>::CIE_Info*)
PUBLIC 364a4 0 libunwind::AbstractUnwindCursor::~AbstractUnwindCursor()
PUBLIC 364ac 0 libunwind::UnwindCursor<libunwind::LocalAddressSpace, libunwind::Registers_arm64>::~UnwindCursor()
PUBLIC 364b4 0 libunwind::UnwindCursor<libunwind::LocalAddressSpace, libunwind::Registers_arm64>::validReg(int)
PUBLIC 364f8 0 libunwind::UnwindCursor<libunwind::LocalAddressSpace, libunwind::Registers_arm64>::getReg(int)
PUBLIC 365e0 0 libunwind::UnwindCursor<libunwind::LocalAddressSpace, libunwind::Registers_arm64>::setReg(int, unsigned long)
PUBLIC 366c8 0 libunwind::UnwindCursor<libunwind::LocalAddressSpace, libunwind::Registers_arm64>::validFloatReg(int)
PUBLIC 366dc 0 libunwind::UnwindCursor<libunwind::LocalAddressSpace, libunwind::Registers_arm64>::getFloatReg(int)
PUBLIC 366ec 0 libunwind::UnwindCursor<libunwind::LocalAddressSpace, libunwind::Registers_arm64>::setFloatReg(int, double)
PUBLIC 366fc 0 libunwind::UnwindCursor<libunwind::LocalAddressSpace, libunwind::Registers_arm64>::step(bool)
PUBLIC 367ec 0 libunwind::UnwindCursor<libunwind::LocalAddressSpace, libunwind::Registers_arm64>::getInfo(unw_proc_info_t*)
PUBLIC 36830 0 libunwind::UnwindCursor<libunwind::LocalAddressSpace, libunwind::Registers_arm64>::jumpto()
PUBLIC 3683c 0 libunwind::UnwindCursor<libunwind::LocalAddressSpace, libunwind::Registers_arm64>::isSignalFrame()
PUBLIC 36848 0 libunwind::UnwindCursor<libunwind::LocalAddressSpace, libunwind::Registers_arm64>::getFunctionName(char*, unsigned long, unsigned long*)
PUBLIC 36874 0 libunwind::UnwindCursor<libunwind::LocalAddressSpace, libunwind::Registers_arm64>::setInfoBasedOnIPRegister(bool)
PUBLIC 36ab0 0 libunwind::UnwindCursor<libunwind::LocalAddressSpace, libunwind::Registers_arm64>::getRegisterName(int)
PUBLIC 36abc 0 libunwind::UnwindCursor<libunwind::LocalAddressSpace, libunwind::Registers_arm64>::stepThroughSigReturn(libunwind::Registers_arm64&)
PUBLIC 36bdc 0 libunwind::DwarfInstructions<libunwind::LocalAddressSpace, libunwind::Registers_arm64>::stepWithDwarf(libunwind::LocalAddressSpace&, unsigned long, unsigned long, libunwind::Registers_arm64&, bool&, bool)
PUBLIC 37070 0 libunwind::CFI_Parser<libunwind::LocalAddressSpace>::parseFDEInstructions(libunwind::LocalAddressSpace&, libunwind::CFI_Parser<libunwind::LocalAddressSpace>::FDE_Info const&, libunwind::CFI_Parser<libunwind::LocalAddressSpace>::CIE_Info const&, unsigned long, int, libunwind::CFI_Parser<libunwind::LocalAddressSpace>::PrologInfo*)
PUBLIC 37be8 0 libunwind::DwarfInstructions<libunwind::LocalAddressSpace, libunwind::Registers_arm64>::getCFA(libunwind::LocalAddressSpace&, libunwind::CFI_Parser<libunwind::LocalAddressSpace>::PrologInfo const&, libunwind::Registers_arm64 const&)
PUBLIC 37d1c 0 libunwind::DwarfInstructions<libunwind::LocalAddressSpace, libunwind::Registers_arm64>::getSavedRegister(libunwind::LocalAddressSpace&, libunwind::Registers_arm64 const&, unsigned long, libunwind::CFI_Parser<libunwind::LocalAddressSpace>::RegisterLocation const&)
PUBLIC 37f2c 0 libunwind::LocalAddressSpace::getEncodedP(unsigned long&, unsigned long, unsigned char, unsigned long)
PUBLIC 382b8 0 libunwind::LocalAddressSpace::getULEB128(unsigned long&, unsigned long)
PUBLIC 38480 0 libunwind::DwarfInstructions<libunwind::LocalAddressSpace, libunwind::Registers_arm64>::evaluateExpression(unsigned long, libunwind::LocalAddressSpace&, libunwind::Registers_arm64 const&, unsigned long)
PUBLIC 38e44 0 libunwind::UnwindCursor<libunwind::LocalAddressSpace, libunwind::Registers_arm64>::getInfoFromDwarfSection(unsigned long, libunwind::UnwindInfoSections const&, unsigned int)
PUBLIC 39118 0 libunwind::findUnwindSectionsByPhdr(dl_phdr_info*, unsigned long, void*)
PUBLIC 39248 0 libunwind::EHHeaderParser<libunwind::LocalAddressSpace>::decodeEHHdr(libunwind::LocalAddressSpace&, unsigned long, unsigned long, libunwind::EHHeaderParser<libunwind::LocalAddressSpace>::EHHeaderInfo&)
PUBLIC 39368 0 libunwind::CFI_Parser<libunwind::LocalAddressSpace>::findFDE(libunwind::LocalAddressSpace&, unsigned long, unsigned long, unsigned long, unsigned long, libunwind::CFI_Parser<libunwind::LocalAddressSpace>::FDE_Info*, libunwind::CFI_Parser<libunwind::LocalAddressSpace>::CIE_Info*)
PUBLIC 39530 0 libunwind::EHHeaderParser<libunwind::LocalAddressSpace>::findFDE(libunwind::LocalAddressSpace&, unsigned long, unsigned long, unsigned int, libunwind::CFI_Parser<libunwind::LocalAddressSpace>::FDE_Info*, libunwind::CFI_Parser<libunwind::LocalAddressSpace>::CIE_Info*)
PUBLIC 39698 0 libunwind::EHHeaderParser<libunwind::LocalAddressSpace>::getTableEntrySize(unsigned char)
PUBLIC 39794 0 libunwind::Registers_arm64::getRegisterName(int)
PUBLIC 397c4 0 __libunwind_Registers_arm64_jumpto
PUBLIC m 39854 0 __unw_getcontext
PUBLIC 398f0 0 __cxx_global_var_init
PUBLIC 3994c 0 std::__ndk1::vector<std::__ndk1::basic_string<char, std::__ndk1::char_traits<char>, std::__ndk1::allocator<char> >, std::__ndk1::allocator<std::__ndk1::basic_string<char, std::__ndk1::char_traits<char>, std::__ndk1::allocator<char> > > >::~vector[abi:ne190000]()
PUBLIC 399c8 0 __cxx_global_var_init.1
PUBLIC 39a24 0 __cxx_global_var_init.2
PUBLIC 39a80 0 __cxx_global_var_init.3
PUBLIC 39adc 0 __cxx_global_var_init.4
PUBLIC 39b38 0 __cxx_global_var_init.5
PUBLIC 39b94 0 __cxx_global_var_init.6
PUBLIC 39bf0 0 __cxx_global_var_init.7
PUBLIC 39c4c 0 __cxx_global_var_init.8
PUBLIC 39ca8 0 __cxx_global_var_init.9
PUBLIC 39d04 0 MoreIconsAPI::vectorForType(IconType)
PUBLIC 39e5c 0 MoreIconsAPI::activeForType(IconType, bool)
PUBLIC 39f34 0 MoreIcons::savedForType(IconType, bool)
PUBLIC 3a188 0 geode::Mod::getSavedValue<std::__ndk1::basic_string<char, std::__ndk1::char_traits<char>, std::__ndk1::allocator<char> > >(std::__ndk1::basic_string_view<char, std::__ndk1::char_traits<char> >, std::__ndk1::basic_string<char, std::__ndk1::char_traits<char>, std::__ndk1::allocator<char> > const&)
PUBLIC 3a42c 0 MoreIconsAPI::setIcon(std::__ndk1::basic_string<char, std::__ndk1::char_traits<char>, std::__ndk1::allocator<char> > const&, IconType, bool)
PUBLIC 3a4b4 0 geode::Mod::setSavedValue<std::__ndk1::basic_string<char, std::__ndk1::char_traits<char>, std::__ndk1::allocator<char> > >(std::__ndk1::basic_string_view<char, std::__ndk1::char_traits<char> >, std::__ndk1::basic_string<char, std::__ndk1::char_traits<char>, std::__ndk1::allocator<char> > const&)
PUBLIC 3a614 0 MoreIconsAPI::hasIcon(std::__ndk1::basic_string<char, std::__ndk1::char_traits<char>, std::__ndk1::allocator<char> > const&, IconType)
PUBLIC 3a710 0 MoreIconsAPI::getIconType(PlayerObject*)
PUBLIC 3a794 0 MoreIconsAPI::updateSimplePlayer(SimplePlayer*, IconType, bool)
PUBLIC 3a840 0 MoreIconsAPI::updateSimplePlayer(SimplePlayer*, std::__ndk1::basic_string<char, std::__ndk1::char_traits<char>, std::__ndk1::allocator<char> > const&, IconType)
PUBLIC 3af08 0 MoreIconsAPI::updateRobotSprite(GJRobotSprite*, std::__ndk1::basic_string<char, std::__ndk1::char_traits<char>, std::__ndk1::allocator<char> > const&, IconType)
PUBLIC 3b478 0 MoreIconsAPI::updatePlayerObject(PlayerObject*, IconType, bool)
PUBLIC 3b524 0 MoreIconsAPI::updatePlayerObject(PlayerObject*, std::__ndk1::basic_string<char, std::__ndk1::char_traits<char>, std::__ndk1::allocator<char> > const&, IconType)
PUBLIC 3bbfc 0 __clang_call_terminate
PUBLIC 3bc0c 0 std::__ndk1::basic_string<char, std::__ndk1::char_traits<char>, std::__ndk1::allocator<char> >::__throw_length_error[abi:ne190000]() const
PUBLIC 3bc20 0 std::__ndk1::__throw_length_error[abi:ne190000](char const*)
PUBLIC 3bc70 0 std::length_error::length_error[abi:ne190000](char const*)
PUBLIC 3bca0 0 std::__throw_bad_array_new_length([abi:ne190000], void)
PUBLIC 3bcd4 0 geode::impl::ResultData<matjson::Value&, std::__ndk1::basic_string<char, std::__ndk1::char_traits<char>, std::__ndk1::allocator<char> > >::~ResultData()
PUBLIC 3bd48 0 geode::impl::ResultData<std::__ndk1::basic_string<char, std::__ndk1::char_traits<char>, std::__ndk1::allocator<char> >, std::__ndk1::basic_string<char, std::__ndk1::char_traits<char>, std::__ndk1::allocator<char> > >::~ResultData()
PUBLIC 3bdbc 0 std::__ndk1::__throw_bad_variant_access[abi:ne190000]()
PUBLIC 3bdf0 0 std::__ndk1::__variant_detail::__visitation::__base::__dispatcher<(unsigned long)0>::__dispatch[abi:ne190000]<std::__ndk1::__variant_detail::__dtor<std::__ndk1::__variant_detail::__traits<std::__ndk1::reference_wrapper<matjson::Value>, std::__ndk1::basic_string<char, std::__ndk1::char_traits<char>, std::__ndk1::allocator<char> > >, (std::__ndk1::__variant_detail::_Trait)1>::__destroy[abi:ne190000]()::{lambda(auto:1&)#1}, std::__ndk1::__variant_detail::__base<(std::__ndk1::__variant_detail::__traits<std::__ndk1::reference_wrapper<matjson::Value>, std::__ndk1::basic_string<char, std::__ndk1::char_traits<char>, std::__ndk1::allocator<char> > >)1, matjson::Value, std::__ndk1::allocator<char> >&>(std::__ndk1::__variant_detail::__dtor<std::__ndk1::__variant_detail::__traits<std::__ndk1::reference_wrapper<matjson::Value>, std::__ndk1::basic_string<char, std::__ndk1::char_traits<char>, std::__ndk1::allocator<char> > >, (std::__ndk1::__variant_detail::_Trait)1>, std::__ndk1::__variant_detail::__base<(std::__ndk1::__variant_detail::__traits<std::__ndk1::reference_wrapper<matjson::Value>, std::__ndk1::basic_string<char, std::__ndk1::char_traits<char>, std::__ndk1::allocator<char> > >)1, matjson::Value, std::__ndk1::allocator<char> >&)
PUBLIC 3bdf4 0 std::__ndk1::__variant_detail::__visitation::__base::__dispatcher<(unsigned long)1>::__dispatch[abi:ne190000]<std::__ndk1::__variant_detail::__dtor<std::__ndk1::__variant_detail::__traits<std::__ndk1::reference_wrapper<matjson::Value>, std::__ndk1::basic_string<char, std::__ndk1::char_traits<char>, std::__ndk1::allocator<char> > >, (std::__ndk1::__variant_detail::_Trait)1>::__destroy[abi:ne190000]()::{lambda(auto:1&)#1}, std::__ndk1::__variant_detail::__base<(std::__ndk1::__variant_detail::__traits<std::__ndk1::reference_wrapper<matjson::Value>, std::__ndk1::basic_string<char, std::__ndk1::char_traits<char>, std::__ndk1::allocator<char> > >)1, matjson::Value, std::__ndk1::allocator<char> >&>(std::__ndk1::__variant_detail::__dtor<std::__ndk1::__variant_detail::__traits<std::__ndk1::reference_wrapper<matjson::Value>, std::__ndk1::basic_string<char, std::__ndk1::char_traits<char>, std::__ndk1::allocator<char> > >, (std::__ndk1::__variant_detail::_Trait)1>, std::__ndk1::__variant_detail::__base<(std::__ndk1::__variant_detail::__traits<std::__ndk1::reference_wrapper<matjson::Value>, std::__ndk1::basic_string<char, std::__ndk1::char_traits<char>, std::__ndk1::allocator<char> > >)1, matjson::Value, std::__ndk1::allocator<char> >&)
PUBLIC 3be08 0 std::__ndk1::basic_string<char, std::__ndk1::char_traits<char>, std::__ndk1::allocator<char> >::__init_copy_ctor_external(char const*, unsigned long)
PUBLIC 3be9c 0 std::__ndk1::__variant_detail::__visitation::__base::__dispatcher<(unsigned long)0>::__dispatch[abi:ne190000]<std::__ndk1::__variant_detail::__dtor<std::__ndk1::__variant_detail::__traits<std::__ndk1::basic_string<char, std::__ndk1::char_traits<char>, std::__ndk1::allocator<char> >, std::__ndk1::allocator<char> >, (std::__ndk1::__variant_detail::_Trait)1>::__destroy[abi:ne190000]()::{lambda(auto:1&)#1}, std::__ndk1::__variant_detail::__base<(std::__ndk1::__variant_detail::__traits<std::__ndk1::basic_string<char, std::__ndk1::char_traits<char>, std::__ndk1::allocator<char> >, std::__ndk1::allocator<char> >)1, std::__ndk1::allocator<char>, std::__ndk1::allocator<char> >&>(std::__ndk1::__variant_detail::__dtor<std::__ndk1::__variant_detail::__traits<std::__ndk1::basic_string<char, std::__ndk1::char_traits<char>, std::__ndk1::allocator<char> >, std::__ndk1::allocator<char> >, (std::__ndk1::__variant_detail::_Trait)1>, std::__ndk1::__variant_detail::__base<(std::__ndk1::__variant_detail::__traits<std::__ndk1::basic_string<char, std::__ndk1::char_traits<char>, std::__ndk1::allocator<char> >, std::__ndk1::allocator<char> >)1, std::__ndk1::allocator<char>, std::__ndk1::allocator<char> >&)
PUBLIC 3beb0 0 std::__ndk1::__variant_detail::__visitation::__base::__dispatcher<(unsigned long)1>::__dispatch[abi:ne190000]<std::__ndk1::__variant_detail::__dtor<std::__ndk1::__variant_detail::__traits<std::__ndk1::basic_string<char, std::__ndk1::char_traits<char>, std::__ndk1::allocator<char> >, std::__ndk1::allocator<char> >, (std::__ndk1::__variant_detail::_Trait)1>::__destroy[abi:ne190000]()::{lambda(auto:1&)#1}, std::__ndk1::__variant_detail::__base<(std::__ndk1::__variant_detail::__traits<std::__ndk1::basic_string<char, std::__ndk1::char_traits<char>, std::__ndk1::allocator<char> >, std::__ndk1::allocator<char> >)1, std::__ndk1::allocator<char>, std::__ndk1::allocator<char> >&>(std::__ndk1::__variant_detail::__dtor<std::__ndk1::__variant_detail::__traits<std::__ndk1::basic_string<char, std::__ndk1::char_traits<char>, std::__ndk1::allocator<char> >, std::__ndk1::allocator<char> >, (std::__ndk1::__variant_detail::_Trait)1>, std::__ndk1::__variant_detail::__base<(std::__ndk1::__variant_detail::__traits<std::__ndk1::basic_string<char, std::__ndk1::char_traits<char>, std::__ndk1::allocator<char> >, std::__ndk1::allocator<char> >)1, std::__ndk1::allocator<char>, std::__ndk1::allocator<char> >&)
PUBLIC 3bec4 0 geode::Mod::getSavedValue<std::__ndk1::basic_string<char, std::__ndk1::char_traits<char>, std::__ndk1::allocator<char> > >(std::__ndk1::basic_string_view<char, std::__ndk1::char_traits<char> >)
PUBLIC 3c0ac 0 geodeExecFunction15<(anonymous namespace)::ExecFuncUnique15>()::{lambda(SimplePlayer*, std::__ndk1::basic_string<char, std::__ndk1::char_traits<char>, std::__ndk1::allocator<char> > const&, IconType)#1}::__invoke(SimplePlayer*, std::__ndk1::basic_string<char, std::__ndk1::char_traits<char>, std::__ndk1::allocator<char> > const&, IconType)
PUBLIC 3c0c4 0 std::__ndk1::__function::__base<geode::ListenerResult(SimplePlayer*, std::__ndk1::basic_string<char, std::__ndk1::char_traits<char>, std::__ndk1::allocator<char> >, IconType)>::~__base()
PUBLIC 3c0c8 0 std::__ndk1::__function::__func<geode::ListenerResult (*)(SimplePlayer*, std::__ndk1::basic_string<char, std::__ndk1::char_traits<char>, std::__ndk1::allocator<char> > const&, IconType), std::__ndk1::allocator<geode::ListenerResult (*)(SimplePlayer*, std::__ndk1::basic_string<char, std::__ndk1::char_traits<char>, std::__ndk1::allocator<char> > const&, IconType)>, geode::ListenerResult(SimplePlayer*, std::__ndk1::basic_string<char, std::__ndk1::char_traits<char>, std::__ndk1::allocator<char> >, IconType)>::~__func()
PUBLIC 3c0cc 0 std::__ndk1::__function::__func<geode::ListenerResult (*)(SimplePlayer*, std::__ndk1::basic_string<char, std::__ndk1::char_traits<char>, std::__ndk1::allocator<char> > const&, IconType), std::__ndk1::allocator<geode::ListenerResult (*)(SimplePlayer*, std::__ndk1::basic_string<char, std::__ndk1::char_traits<char>, std::__ndk1::allocator<char> > const&, IconType)>, geode::ListenerResult(SimplePlayer*, std::__ndk1::basic_string<char, std::__ndk1::char_traits<char>, std::__ndk1::allocator<char> >, IconType)>::__clone() const
PUBLIC 3c100 0 std::__ndk1::__function::__func<geode::ListenerResult (*)(SimplePlayer*, std::__ndk1::basic_string<char, std::__ndk1::char_traits<char>, std::__ndk1::allocator<char> > const&, IconType), std::__ndk1::allocator<geode::ListenerResult (*)(SimplePlayer*, std::__ndk1::basic_string<char, std::__ndk1::char_traits<char>, std::__ndk1::allocator<char> > const&, IconType)>, geode::ListenerResult(SimplePlayer*, std::__ndk1::basic_string<char, std::__ndk1::char_traits<char>, std::__ndk1::allocator<char> >, IconType)>::__clone(std::__ndk1::__function::__base<geode::ListenerResult(SimplePlayer*, std::__ndk1::basic_string<char, std::__ndk1::char_traits<char>, std::__ndk1::allocator<char> >, IconType)>*) const
PUBLIC 3c114 0 std::__ndk1::__function::__func<geode::ListenerResult (*)(SimplePlayer*, std::__ndk1::basic_string<char, std::__ndk1::char_traits<char>, std::__ndk1::allocator<char> > const&, IconType), std::__ndk1::allocator<geode::ListenerResult (*)(SimplePlayer*, std::__ndk1::basic_string<char, std::__ndk1::char_traits<char>, std::__ndk1::allocator<char> > const&, IconType)>, geode::ListenerResult(SimplePlayer*, std::__ndk1::basic_string<char, std::__ndk1::char_traits<char>, std::__ndk1::allocator<char> >, IconType)>::destroy()
PUBLIC 3c118 0 std::__ndk1::__function::__func<geode::ListenerResult (*)(SimplePlayer*, std::__ndk1::basic_string<char, std::__ndk1::char_traits<char>, std::__ndk1::allocator<char> > const&, IconType), std::__ndk1::allocator<geode::ListenerResult (*)(SimplePlayer*, std::__ndk1::basic_string<char, std::__ndk1::char_traits<char>, std::__ndk1::allocator<char> > const&, IconType)>, geode::ListenerResult(SimplePlayer*, std::__ndk1::basic_string<char, std::__ndk1::char_traits<char>, std::__ndk1::allocator<char> >, IconType)>::destroy_deallocate()
PUBLIC 3c11c 0 std::__ndk1::__function::__func<geode::ListenerResult (*)(SimplePlayer*, std::__ndk1::basic_string<char, std::__ndk1::char_traits<char>, std::__ndk1::allocator<char> > const&, IconType), std::__ndk1::allocator<geode::ListenerResult (*)(SimplePlayer*, std::__ndk1::basic_string<char, std::__ndk1::char_traits<char>, std::__ndk1::allocator<char> > const&, IconType)>, geode::ListenerResult(SimplePlayer*, std::__ndk1::basic_string<char, std::__ndk1::char_traits<char>, std::__ndk1::allocator<char> >, IconType)>::operator()(SimplePlayer*&&, std::__ndk1::basic_string<char, std::__ndk1::char_traits<char>, std::__ndk1::allocator<char> >&&, IconType&&)
PUBLIC 3c138 0 std::__ndk1::__function::__func<geode::ListenerResult (*)(SimplePlayer*, std::__ndk1::basic_string<char, std::__ndk1::char_traits<char>, std::__ndk1::allocator<char> > const&, IconType), std::__ndk1::allocator<geode::ListenerResult (*)(SimplePlayer*, std::__ndk1::basic_string<char, std::__ndk1::char_traits<char>, std::__ndk1::allocator<char> > const&, IconType)>, geode::ListenerResult(SimplePlayer*, std::__ndk1::basic_string<char, std::__ndk1::char_traits<char>, std::__ndk1::allocator<char> >, IconType)>::target(std::type_info const&) const
PUBLIC 3c154 0 std::__ndk1::__function::__func<geode::ListenerResult (*)(SimplePlayer*, std::__ndk1::basic_string<char, std::__ndk1::char_traits<char>, std::__ndk1::allocator<char> > const&, IconType), std::__ndk1::allocator<geode::ListenerResult (*)(SimplePlayer*, std::__ndk1::basic_string<char, std::__ndk1::char_traits<char>, std::__ndk1::allocator<char> > const&, IconType)>, geode::ListenerResult(SimplePlayer*, std::__ndk1::basic_string<char, std::__ndk1::char_traits<char>, std::__ndk1::allocator<char> >, IconType)>::target_type() const
PUBLIC 3c160 0 geode::EventListener<geode::DispatchFilter<SimplePlayer*, std::__ndk1::basic_string<char, std::__ndk1::char_traits<char>, std::__ndk1::allocator<char> >, IconType> >::getPool() const
PUBLIC 3c210 0 geode::EventListener<geode::DispatchFilter<SimplePlayer*, std::__ndk1::basic_string<char, std::__ndk1::char_traits<char>, std::__ndk1::allocator<char> >, IconType> >::handle(geode::Event*)
PUBLIC 3c594 0 geode::EventListener<geode::DispatchFilter<SimplePlayer*, std::__ndk1::basic_string<char, std::__ndk1::char_traits<char>, std::__ndk1::allocator<char> >, IconType> >::~EventListener()
PUBLIC 3c600 0 geode::EventListener<geode::DispatchFilter<SimplePlayer*, std::__ndk1::basic_string<char, std::__ndk1::char_traits<char>, std::__ndk1::allocator<char> >, IconType> >::~EventListener()
PUBLIC 3c674 0 std::__ndk1::__hash_table<std::__ndk1::__hash_value_type<std::__ndk1::basic_string<char, std::__ndk1::char_traits<char>, std::__ndk1::allocator<char> >, geode::EventListenerPool*>, std::__ndk1::__unordered_map_hasher<std::__ndk1::basic_string<char, std::__ndk1::char_traits<char>, std::__ndk1::allocator<char> >, std::__ndk1::__hash_value_type<std::__ndk1::basic_string<char, std::__ndk1::char_traits<char>, std::__ndk1::allocator<char> >, geode::EventListenerPool*>, std::__ndk1::hash<std::__ndk1::basic_string<char, std::__ndk1::char_traits<char>, std::__ndk1::allocator<char> > >, std::__ndk1::equal_to<std::__ndk1::basic_string<char, std::__ndk1::char_traits<char>, std::__ndk1::allocator<char> > >, true>, std::__ndk1::__unordered_map_equal<std::__ndk1::basic_string<char, std::__ndk1::char_traits<char>, std::__ndk1::allocator<char> >, std::__ndk1::__hash_value_type<std::__ndk1::basic_string<char, std::__ndk1::char_traits<char>, std::__ndk1::allocator<char> >, geode::EventListenerPool*>, std::__ndk1::equal_to<std::__ndk1::basic_string<char, std::__ndk1::char_traits<char>, std::__ndk1::allocator<char> > >, std::__ndk1::hash<std::__ndk1::basic_string<char, std::__ndk1::char_traits<char>, std::__ndk1::allocator<char> > >, true>, std::__ndk1::allocator<std::__ndk1::__hash_value_type<std::__ndk1::basic_string<char, std::__ndk1::char_traits<char>, std::__ndk1::allocator<char> >, geode::EventListenerPool*> > >::find<std::__ndk1::basic_string<char, std::__ndk1::char_traits<char>, std::__ndk1::allocator<char> > >(std::__ndk1::basic_string<char, std::__ndk1::char_traits<char>, std::__ndk1::allocator<char> > const&) const
PUBLIC 3c8c8 0 std::__ndk1::__murmur2_or_cityhash<unsigned long, (unsigned long)64>::operator()[abi:ne190000](void const*, unsigned long) const
PUBLIC 3cd14 0 std::__ndk1::__hash_table<std::__ndk1::__hash_value_type<std::__ndk1::basic_string<char, std::__ndk1::char_traits<char>, std::__ndk1::allocator<char> >, geode::EventListenerPool*>, std::__ndk1::__unordered_map_hasher<std::__ndk1::basic_string<char, std::__ndk1::char_traits<char>, std::__ndk1::allocator<char> >, std::__ndk1::__hash_value_type<std::__ndk1::basic_string<char, std::__ndk1::char_traits<char>, std::__ndk1::allocator<char> >, geode::EventListenerPool*>, std::__ndk1::hash<std::__ndk1::basic_string<char, std::__ndk1::char_traits<char>, std::__ndk1::allocator<char> > >, std::__ndk1::equal_to<std::__ndk1::basic_string<char, std::__ndk1::char_traits<char>, std::__ndk1::allocator<char> > >, true>, std::__ndk1::__unordered_map_equal<std::__ndk1::basic_string<char, std::__ndk1::char_traits<char>, std::__ndk1::allocator<char> >, std::__ndk1::__hash_value_type<std::__ndk1::basic_string<char, std::__ndk1::char_traits<char>, std::__ndk1::allocator<char> >, geode::EventListenerPool*>, std::__ndk1::equal_to<std::__ndk1::basic_string<char, std::__ndk1::char_traits<char>, std::__ndk1::allocator<char> > >, std::__ndk1::hash<std::__ndk1::basic_string<char, std::__ndk1::char_traits<char>, std::__ndk1::allocator<char> > >, true>, std::__ndk1::allocator<std::__ndk1::__hash_value_type<std::__ndk1::basic_string<char, std::__ndk1::char_traits<char>, std::__ndk1::allocator<char> >, geode::EventListenerPool*> > >::__emplace_unique_key_args<std::__ndk1::basic_string<char, std::__ndk1::char_traits<char>, std::__ndk1::allocator<char> >, std::__ndk1::piecewise_construct_t const&, std::__ndk1::tuple<std::__ndk1::basic_string<char, std::__ndk1::char_traits<char>, std::__ndk1::allocator<char> > const&>, std::__ndk1::tuple<> >(std::__ndk1::basic_string<char, std::__ndk1::char_traits<char>, std::__ndk1::allocator<char> > const&, std::__ndk1::piecewise_construct_t const&, std::__ndk1::tuple<std::__ndk1::basic_string<char, std::__ndk1::char_traits<char>, std::__ndk1::allocator<char> > const&>, std::__ndk1::tuple<>)
PUBLIC 3d1d4 0 std::__ndk1::unique_ptr<std::__ndk1::__hash_node<std::__ndk1::__hash_value_type<std::__ndk1::basic_string<char, std::__ndk1::char_traits<char>, std::__ndk1::allocator<char> >, geode::EventListenerPool*>, void*>, std::__ndk1::__hash_node_destructor<std::__ndk1::allocator<std::__ndk1::__hash_node<std::__ndk1::__hash_value_type<std::__ndk1::basic_string<char, std::__ndk1::char_traits<char>, std::__ndk1::allocator<char> >, geode::EventListenerPool*>, void*> > > >::~unique_ptr[abi:ne190000]()
PUBLIC 3d224 0 std::__ndk1::__hash_table<std::__ndk1::__hash_value_type<std::__ndk1::basic_string<char, std::__ndk1::char_traits<char>, std::__ndk1::allocator<char> >, geode::EventListenerPool*>, std::__ndk1::__unordered_map_hasher<std::__ndk1::basic_string<char, std::__ndk1::char_traits<char>, std::__ndk1::allocator<char> >, std::__ndk1::__hash_value_type<std::__ndk1::basic_string<char, std::__ndk1::char_traits<char>, std::__ndk1::allocator<char> >, geode::EventListenerPool*>, std::__ndk1::hash<std::__ndk1::basic_string<char, std::__ndk1::char_traits<char>, std::__ndk1::allocator<char> > >, std::__ndk1::equal_to<std::__ndk1::basic_string<char, std::__ndk1::char_traits<char>, std::__ndk1::allocator<char> > >, true>, std::__ndk1::__unordered_map_equal<std::__ndk1::basic_string<char, std::__ndk1::char_traits<char>, std::__ndk1::allocator<char> >, std::__ndk1::__hash_value_type<std::__ndk1::basic_string<char, std::__ndk1::char_traits<char>, std::__ndk1::allocator<char> >, geode::EventListenerPool*>, std::__ndk1::equal_to<std::__ndk1::basic_string<char, std::__ndk1::char_traits<char>, std::__ndk1::allocator<char> > >, std::__ndk1::hash<std::__ndk1::basic_string<char, std::__ndk1::char_traits<char>, std::__ndk1::allocator<char> > >, true>, std::__ndk1::allocator<std::__ndk1::__hash_value_type<std::__ndk1::basic_string<char, std::__ndk1::char_traits<char>, std::__ndk1::allocator<char> >, geode::EventListenerPool*> > >::__do_rehash<true>(unsigned long)
PUBLIC 3d3d0 0 geode::cast::traverseTypeinfoFor(void*, geode::cast::ClassTypeinfoType const*, char const*)
PUBLIC 3d4d4 0 std::__ndk1::__throw_bad_function_call[abi:ne190000]()
PUBLIC 3d508 0 std::__ndk1::bad_function_call::~bad_function_call()
PUBLIC 3d52c 0 geodeExecFunction15<(anonymous namespace)::ExecFuncUnique15>()::{lambda(GJRobotSprite*, std::__ndk1::basic_string<char, std::__ndk1::char_traits<char>, std::__ndk1::allocator<char> > const&, IconType)#1}::__invoke(GJRobotSprite*, std::__ndk1::basic_string<char, std::__ndk1::char_traits<char>, std::__ndk1::allocator<char> > const&, IconType)
PUBLIC 3d544 0 std::__ndk1::__function::__base<geode::ListenerResult(GJRobotSprite*, std::__ndk1::basic_string<char, std::__ndk1::char_traits<char>, std::__ndk1::allocator<char> >, IconType)>::~__base()
PUBLIC 3d548 0 std::__ndk1::__function::__func<geode::ListenerResult (*)(GJRobotSprite*, std::__ndk1::basic_string<char, std::__ndk1::char_traits<char>, std::__ndk1::allocator<char> > const&, IconType), std::__ndk1::allocator<geode::ListenerResult (*)(GJRobotSprite*, std::__ndk1::basic_string<char, std::__ndk1::char_traits<char>, std::__ndk1::allocator<char> > const&, IconType)>, geode::ListenerResult(GJRobotSprite*, std::__ndk1::basic_string<char, std::__ndk1::char_traits<char>, std::__ndk1::allocator<char> >, IconType)>::~__func()
PUBLIC 3d54c 0 std::__ndk1::__function::__func<geode::ListenerResult (*)(GJRobotSprite*, std::__ndk1::basic_string<char, std::__ndk1::char_traits<char>, std::__ndk1::allocator<char> > const&, IconType), std::__ndk1::allocator<geode::ListenerResult (*)(GJRobotSprite*, std::__ndk1::basic_string<char, std::__ndk1::char_traits<char>, std::__ndk1::allocator<char> > const&, IconType)>, geode::ListenerResult(GJRobotSprite*, std::__ndk1::basic_string<char, std::__ndk1::char_traits<char>, std::__ndk1::allocator<char> >, IconType)>::__clone() const
PUBLIC 3d580 0 std::__ndk1::__function::__func<geode::ListenerResult (*)(GJRobotSprite*, std::__ndk1::basic_string<char, std::__ndk1::char_traits<char>, std::__ndk1::allocator<char> > const&, IconType), std::__ndk1::allocator<geode::ListenerResult (*)(GJRobotSprite*, std::__ndk1::basic_string<char, std::__ndk1::char_traits<char>, std::__ndk1::allocator<char> > const&, IconType)>, geode::ListenerResult(GJRobotSprite*, std::__ndk1::basic_string<char, std::__ndk1::char_traits<char>, std::__ndk1::allocator<char> >, IconType)>::__clone(std::__ndk1::__function::__base<geode::ListenerResult(GJRobotSprite*, std::__ndk1::basic_string<char, std::__ndk1::char_traits<char>, std::__ndk1::allocator<char> >, IconType)>*) const
PUBLIC 3d594 0 std::__ndk1::__function::__func<geode::ListenerResult (*)(GJRobotSprite*, std::__ndk1::basic_string<char, std::__ndk1::char_traits<char>, std::__ndk1::allocator<char> > const&, IconType), std::__ndk1::allocator<geode::ListenerResult (*)(GJRobotSprite*, std::__ndk1::basic_string<char, std::__ndk1::char_traits<char>, std::__ndk1::allocator<char> > const&, IconType)>, geode::ListenerResult(GJRobotSprite*, std::__ndk1::basic_string<char, std::__ndk1::char_traits<char>, std::__ndk1::allocator<char> >, IconType)>::destroy()
PUBLIC 3d598 0 std::__ndk1::__function::__func<geode::ListenerResult (*)(GJRobotSprite*, std::__ndk1::basic_string<char, std::__ndk1::char_traits<char>, std::__ndk1::allocator<char> > const&, IconType), std::__ndk1::allocator<geode::ListenerResult (*)(GJRobotSprite*, std::__ndk1::basic_string<char, std::__ndk1::char_traits<char>, std::__ndk1::allocator<char> > const&, IconType)>, geode::ListenerResult(GJRobotSprite*, std::__ndk1::basic_string<char, std::__ndk1::char_traits<char>, std::__ndk1::allocator<char> >, IconType)>::destroy_deallocate()
PUBLIC 3d59c 0 std::__ndk1::__function::__func<geode::ListenerResult (*)(GJRobotSprite*, std::__ndk1::basic_string<char, std::__ndk1::char_traits<char>, std::__ndk1::allocator<char> > const&, IconType), std::__ndk1::allocator<geode::ListenerResult (*)(GJRobotSprite*, std::__ndk1::basic_string<char, std::__ndk1::char_traits<char>, std::__ndk1::allocator<char> > const&, IconType)>, geode::ListenerResult(GJRobotSprite*, std::__ndk1::basic_string<char, std::__ndk1::char_traits<char>, std::__ndk1::allocator<char> >, IconType)>::operator()(GJRobotSprite*&&, std::__ndk1::basic_string<char, std::__ndk1::char_traits<char>, std::__ndk1::allocator<char> >&&, IconType&&)
PUBLIC 3d5b8 0 std::__ndk1::__function::__func<geode::ListenerResult (*)(GJRobotSprite*, std::__ndk1::basic_string<char, std::__ndk1::char_traits<char>, std::__ndk1::allocator<char> > const&, IconType), std::__ndk1::allocator<geode::ListenerResult (*)(GJRobotSprite*, std::__ndk1::basic_string<char, std::__ndk1::char_traits<char>, std::__ndk1::allocator<char> > const&, IconType)>, geode::ListenerResult(GJRobotSprite*, std::__ndk1::basic_string<char, std::__ndk1::char_traits<char>, std::__ndk1::allocator<char> >, IconType)>::target(std::type_info const&) const
PUBLIC 3d5d4 0 std::__ndk1::__function::__func<geode::ListenerResult (*)(GJRobotSprite*, std::__ndk1::basic_string<char, std::__ndk1::char_traits<char>, std::__ndk1::allocator<char> > const&, IconType), std::__ndk1::allocator<geode::ListenerResult (*)(GJRobotSprite*, std::__ndk1::basic_string<char, std::__ndk1::char_traits<char>, std::__ndk1::allocator<char> > const&, IconType)>, geode::ListenerResult(GJRobotSprite*, std::__ndk1::basic_string<char, std::__ndk1::char_traits<char>, std::__ndk1::allocator<char> >, IconType)>::target_type() const
PUBLIC 3d5e0 0 geode::EventListener<geode::DispatchFilter<GJRobotSprite*, std::__ndk1::basic_string<char, std::__ndk1::char_traits<char>, std::__ndk1::allocator<char> >, IconType> >::getPool() const
PUBLIC 3d690 0 geode::EventListener<geode::DispatchFilter<GJRobotSprite*, std::__ndk1::basic_string<char, std::__ndk1::char_traits<char>, std::__ndk1::allocator<char> >, IconType> >::handle(geode::Event*)
PUBLIC 3da14 0 geode::EventListener<geode::DispatchFilter<GJRobotSprite*, std::__ndk1::basic_string<char, std::__ndk1::char_traits<char>, std::__ndk1::allocator<char> >, IconType> >::~EventListener()
PUBLIC 3da80 0 geode::EventListener<geode::DispatchFilter<GJRobotSprite*, std::__ndk1::basic_string<char, std::__ndk1::char_traits<char>, std::__ndk1::allocator<char> >, IconType> >::~EventListener()
PUBLIC 3daf4 0 geodeExecFunction15<(anonymous namespace)::ExecFuncUnique15>()::{lambda(PlayerObject*, std::__ndk1::basic_string<char, std::__ndk1::char_traits<char>, std::__ndk1::allocator<char> > const&, IconType)#1}::__invoke(PlayerObject*, std::__ndk1::basic_string<char, std::__ndk1::char_traits<char>, std::__ndk1::allocator<char> > const&, IconType)
PUBLIC 3db0c 0 std::__ndk1::__function::__base<geode::ListenerResult(PlayerObject*, std::__ndk1::basic_string<char, std::__ndk1::char_traits<char>, std::__ndk1::allocator<char> >, IconType)>::~__base()
PUBLIC 3db10 0 std::__ndk1::__function::__func<geode::ListenerResult (*)(PlayerObject*, std::__ndk1::basic_string<char, std::__ndk1::char_traits<char>, std::__ndk1::allocator<char> > const&, IconType), std::__ndk1::allocator<geode::ListenerResult (*)(PlayerObject*, std::__ndk1::basic_string<char, std::__ndk1::char_traits<char>, std::__ndk1::allocator<char> > const&, IconType)>, geode::ListenerResult(PlayerObject*, std::__ndk1::basic_string<char, std::__ndk1::char_traits<char>, std::__ndk1::allocator<char> >, IconType)>::~__func()
PUBLIC 3db14 0 std::__ndk1::__function::__func<geode::ListenerResult (*)(PlayerObject*, std::__ndk1::basic_string<char, std::__ndk1::char_traits<char>, std::__ndk1::allocator<char> > const&, IconType), std::__ndk1::allocator<geode::ListenerResult (*)(PlayerObject*, std::__ndk1::basic_string<char, std::__ndk1::char_traits<char>, std::__ndk1::allocator<char> > const&, IconType)>, geode::ListenerResult(PlayerObject*, std::__ndk1::basic_string<char, std::__ndk1::char_traits<char>, std::__ndk1::allocator<char> >, IconType)>::__clone() const
PUBLIC 3db48 0 std::__ndk1::__function::__func<geode::ListenerResult (*)(PlayerObject*, std::__ndk1::basic_string<char, std::__ndk1::char_traits<char>, std::__ndk1::allocator<char> > const&, IconType), std::__ndk1::allocator<geode::ListenerResult (*)(PlayerObject*, std::__ndk1::basic_string<char, std::__ndk1::char_traits<char>, std::__ndk1::allocator<char> > const&, IconType)>, geode::ListenerResult(PlayerObject*, std::__ndk1::basic_string<char, std::__ndk1::char_traits<char>, std::__ndk1::allocator<char> >, IconType)>::__clone(std::__ndk1::__function::__base<geode::ListenerResult(PlayerObject*, std::__ndk1::basic_string<char, std::__ndk1::char_traits<char>, std::__ndk1::allocator<char> >, IconType)>*) const
PUBLIC 3db5c 0 std::__ndk1::__function::__func<geode::ListenerResult (*)(PlayerObject*, std::__ndk1::basic_string<char, std::__ndk1::char_traits<char>, std::__ndk1::allocator<char> > const&, IconType), std::__ndk1::allocator<geode::ListenerResult (*)(PlayerObject*, std::__ndk1::basic_string<char, std::__ndk1::char_traits<char>, std::__ndk1::allocator<char> > const&, IconType)>, geode::ListenerResult(PlayerObject*, std::__ndk1::basic_string<char, std::__ndk1::char_traits<char>, std::__ndk1::allocator<char> >, IconType)>::destroy()
PUBLIC 3db60 0 std::__ndk1::__function::__func<geode::ListenerResult (*)(PlayerObject*, std::__ndk1::basic_string<char, std::__ndk1::char_traits<char>, std::__ndk1::allocator<char> > const&, IconType), std::__ndk1::allocator<geode::ListenerResult (*)(PlayerObject*, std::__ndk1::basic_string<char, std::__ndk1::char_traits<char>, std::__ndk1::allocator<char> > const&, IconType)>, geode::ListenerResult(PlayerObject*, std::__ndk1::basic_string<char, std::__ndk1::char_traits<char>, std::__ndk1::allocator<char> >, IconType)>::destroy_deallocate()
PUBLIC 3db64 0 std::__ndk1::__function::__func<geode::ListenerResult (*)(PlayerObject*, std::__ndk1::basic_string<char, std::__ndk1::char_traits<char>, std::__ndk1::allocator<char> > const&, IconType), std::__ndk1::allocator<geode::ListenerResult (*)(PlayerObject*, std::__ndk1::basic_string<char, std::__ndk1::char_traits<char>, std::__ndk1::allocator<char> > const&, IconType)>, geode::ListenerResult(PlayerObject*, std::__ndk1::basic_string<char, std::__ndk1::char_traits<char>, std::__ndk1::allocator<char> >, IconType)>::operator()(PlayerObject*&&, std::__ndk1::basic_string<char, std::__ndk1::char_traits<char>, std::__ndk1::allocator<char> >&&, IconType&&)
PUBLIC 3db80 0 std::__ndk1::__function::__func<geode::ListenerResult (*)(PlayerObject*, std::__ndk1::basic_string<char, std::__ndk1::char_traits<char>, std::__ndk1::allocator<char> > const&, IconType), std::__ndk1::allocator<geode::ListenerResult (*)(PlayerObject*, std::__ndk1::basic_string<char, std::__ndk1::char_traits<char>, std::__ndk1::allocator<char> > const&, IconType)>, geode::ListenerResult(PlayerObject*, std::__ndk1::basic_string<char, std::__ndk1::char_traits<char>, std::__ndk1::allocator<char> >, IconType)>::target(std::type_info const&) const
PUBLIC 3db9c 0 std::__ndk1::__function::__func<geode::ListenerResult (*)(PlayerObject*, std::__ndk1::basic_string<char, std::__ndk1::char_traits<char>, std::__ndk1::allocator<char> > const&, IconType), std::__ndk1::allocator<geode::ListenerResult (*)(PlayerObject*, std::__ndk1::basic_string<char, std::__ndk1::char_traits<char>, std::__ndk1::allocator<char> > const&, IconType)>, geode::ListenerResult(PlayerObject*, std::__ndk1::basic_string<char, std::__ndk1::char_traits<char>, std::__ndk1::allocator<char> >, IconType)>::target_type() const
PUBLIC 3dba8 0 geode::EventListener<geode::DispatchFilter<PlayerObject*, std::__ndk1::basic_string<char, std::__ndk1::char_traits<char>, std::__ndk1::allocator<char> >, IconType> >::getPool() const
PUBLIC 3dc58 0 geode::EventListener<geode::DispatchFilter<PlayerObject*, std::__ndk1::basic_string<char, std::__ndk1::char_traits<char>, std::__ndk1::allocator<char> >, IconType> >::handle(geode::Event*)
PUBLIC 3dfdc 0 geode::EventListener<geode::DispatchFilter<PlayerObject*, std::__ndk1::basic_string<char, std::__ndk1::char_traits<char>, std::__ndk1::allocator<char> >, IconType> >::~EventListener()
PUBLIC 3e048 0 geode::EventListener<geode::DispatchFilter<PlayerObject*, std::__ndk1::basic_string<char, std::__ndk1::char_traits<char>, std::__ndk1::allocator<char> >, IconType> >::~EventListener()
PUBLIC 3e0bc 0 geodeExecFunction15<(anonymous namespace)::ExecFuncUnique15>()::{lambda(std::__ndk1::vector<std::__ndk1::basic_string<char, std::__ndk1::char_traits<char>, std::__ndk1::allocator<char> >, std::__ndk1::allocator<std::__ndk1::basic_string<char, std::__ndk1::char_traits<char>, std::__ndk1::allocator<char> > > >*, IconType)#1}::__invoke(std::__ndk1::vector<std::__ndk1::basic_string<char, std::__ndk1::char_traits<char>, std::__ndk1::allocator<char> >, std::__ndk1::allocator<std::__ndk1::basic_string<char, std::__ndk1::char_traits<char>, std::__ndk1::allocator<char> > > >*, IconType)
PUBLIC 3e4d8 0 std::__ndk1::__exception_guard_exceptions<std::__ndk1::_AllocatorDestroyRangeReverse<std::__ndk1::allocator<std::__ndk1::basic_string<char, std::__ndk1::char_traits<char>, std::__ndk1::allocator<char> > >, std::__ndk1::basic_string<char, std::__ndk1::char_traits<char>, std::__ndk1::allocator<char> >*> >::~__exception_guard_exceptions[abi:ne190000]()
PUBLIC 3e538 0 std::__ndk1::basic_string<char, std::__ndk1::char_traits<char>, std::__ndk1::allocator<char> >::__assign_no_alias<true>(char const*, unsigned long)
PUBLIC 3e5e4 0 std::__ndk1::basic_string<char, std::__ndk1::char_traits<char>, std::__ndk1::allocator<char> >::__assign_no_alias<false>(char const*, unsigned long)
PUBLIC 3e720 0 std::__ndk1::vector<std::__ndk1::basic_string<char, std::__ndk1::char_traits<char>, std::__ndk1::allocator<char> >, std::__ndk1::allocator<std::__ndk1::basic_string<char, std::__ndk1::char_traits<char>, std::__ndk1::allocator<char> > > >::__throw_length_error[abi:ne190000]() const
PUBLIC 3e734 0 geode::EventListener<geode::DispatchFilter<std::__ndk1::vector<std::__ndk1::basic_string<char, std::__ndk1::char_traits<char>, std::__ndk1::allocator<char> >, std::__ndk1::allocator<std::__ndk1::basic_string<char, std::__ndk1::char_traits<char>, std::__ndk1::allocator<char> > > >*, IconType> >::getPool() const
PUBLIC 3e7e4 0 geode::EventListener<geode::DispatchFilter<std::__ndk1::vector<std::__ndk1::basic_string<char, std::__ndk1::char_traits<char>, std::__ndk1::allocator<char> >, std::__ndk1::allocator<std::__ndk1::basic_string<char, std::__ndk1::char_traits<char>, std::__ndk1::allocator<char> > > >*, IconType> >::handle(geode::Event*)
PUBLIC 3ea9c 0 geode::EventListener<geode::DispatchFilter<std::__ndk1::vector<std::__ndk1::basic_string<char, std::__ndk1::char_traits<char>, std::__ndk1::allocator<char> >, std::__ndk1::allocator<std::__ndk1::basic_string<char, std::__ndk1::char_traits<char>, std::__ndk1::allocator<char> > > >*, IconType> >::~EventListener()
PUBLIC 3eb08 0 geode::EventListener<geode::DispatchFilter<std::__ndk1::vector<std::__ndk1::basic_string<char, std::__ndk1::char_traits<char>, std::__ndk1::allocator<char> >, std::__ndk1::allocator<std::__ndk1::basic_string<char, std::__ndk1::char_traits<char>, std::__ndk1::allocator<char> > > >*, IconType> >::~EventListener()
PUBLIC 3eb7c 0 std::__ndk1::__function::__base<geode::ListenerResult(std::__ndk1::vector<std::__ndk1::basic_string<char, std::__ndk1::char_traits<char>, std::__ndk1::allocator<char> >, std::__ndk1::allocator<std::__ndk1::basic_string<char, std::__ndk1::char_traits<char>, std::__ndk1::allocator<char> > > >*, IconType)>::~__base()
PUBLIC 3eb80 0 std::__ndk1::__function::__func<geode::ListenerResult (*)(std::__ndk1::vector<std::__ndk1::basic_string<char, std::__ndk1::char_traits<char>, std::__ndk1::allocator<char> >, std::__ndk1::allocator<std::__ndk1::basic_string<char, std::__ndk1::char_traits<char>, std::__ndk1::allocator<char> > > >*, IconType), std::__ndk1::allocator<geode::ListenerResult (*)(std::__ndk1::vector<std::__ndk1::basic_string<char, std::__ndk1::char_traits<char>, std::__ndk1::allocator<char> >, std::__ndk1::allocator<std::__ndk1::basic_string<char, std::__ndk1::char_traits<char>, std::__ndk1::allocator<char> > > >*, IconType)>, geode::ListenerResult(std::__ndk1::vector<std::__ndk1::basic_string<char, std::__ndk1::char_traits<char>, std::__ndk1::allocator<char> >, std::__ndk1::allocator<std::__ndk1::basic_string<char, std::__ndk1::char_traits<char>, std::__ndk1::allocator<char> > > >*, IconType)>::~__func()
PUBLIC 3eb84 0 std::__ndk1::__function::__func<geode::ListenerResult (*)(std::__ndk1::vector<std::__ndk1::basic_string<char, std::__ndk1::char_traits<char>, std::__ndk1::allocator<char> >, std::__ndk1::allocator<std::__ndk1::basic_string<char, std::__ndk1::char_traits<char>, std::__ndk1::allocator<char> > > >*, IconType), std::__ndk1::allocator<geode::ListenerResult (*)(std::__ndk1::vector<std::__ndk1::basic_string<char, std::__ndk1::char_traits<char>, std::__ndk1::allocator<char> >, std::__ndk1::allocator<std::__ndk1::basic_string<char, std::__ndk1::char_traits<char>, std::__ndk1::allocator<char> > > >*, IconType)>, geode::ListenerResult(std::__ndk1::vector<std::__ndk1::basic_string<char, std::__ndk1::char_traits<char>, std::__ndk1::allocator<char> >, std::__ndk1::allocator<std::__ndk1::basic_string<char, std::__ndk1::char_traits<char>, std::__ndk1::allocator<char> > > >*, IconType)>::__clone() const
PUBLIC 3ebb8 0 std::__ndk1::__function::__func<geode::ListenerResult (*)(std::__ndk1::vector<std::__ndk1::basic_string<char, std::__ndk1::char_traits<char>, std::__ndk1::allocator<char> >, std::__ndk1::allocator<std::__ndk1::basic_string<char, std::__ndk1::char_traits<char>, std::__ndk1::allocator<char> > > >*, IconType), std::__ndk1::allocator<geode::ListenerResult (*)(std::__ndk1::vector<std::__ndk1::basic_string<char, std::__ndk1::char_traits<char>, std::__ndk1::allocator<char> >, std::__ndk1::allocator<std::__ndk1::basic_string<char, std::__ndk1::char_traits<char>, std::__ndk1::allocator<char> > > >*, IconType)>, geode::ListenerResult(std::__ndk1::vector<std::__ndk1::basic_string<char, std::__ndk1::char_traits<char>, std::__ndk1::allocator<char> >, std::__ndk1::allocator<std::__ndk1::basic_string<char, std::__ndk1::char_traits<char>, std::__ndk1::allocator<char> > > >*, IconType)>::__clone(std::__ndk1::__function::__base<geode::ListenerResult(std::__ndk1::vector<std::__ndk1::basic_string<char, std::__ndk1::char_traits<char>, std::__ndk1::allocator<char> >, std::__ndk1::allocator<std::__ndk1::basic_string<char, std::__ndk1::char_traits<char>, std::__ndk1::allocator<char> > > >*, IconType)>*) const
PUBLIC 3ebcc 0 std::__ndk1::__function::__func<geode::ListenerResult (*)(std::__ndk1::vector<std::__ndk1::basic_string<char, std::__ndk1::char_traits<char>, std::__ndk1::allocator<char> >, std::__ndk1::allocator<std::__ndk1::basic_string<char, std::__ndk1::char_traits<char>, std::__ndk1::allocator<char> > > >*, IconType), std::__ndk1::allocator<geode::ListenerResult (*)(std::__ndk1::vector<std::__ndk1::basic_string<char, std::__ndk1::char_traits<char>, std::__ndk1::allocator<char> >, std::__ndk1::allocator<std::__ndk1::basic_string<char, std::__ndk1::char_traits<char>, std::__ndk1::allocator<char> > > >*, IconType)>, geode::ListenerResult(std::__ndk1::vector<std::__ndk1::basic_string<char, std::__ndk1::char_traits<char>, std::__ndk1::allocator<char> >, std::__ndk1::allocator<std::__ndk1::basic_string<char, std::__ndk1::char_traits<char>, std::__ndk1::allocator<char> > > >*, IconType)>::destroy()
PUBLIC 3ebd0 0 std::__ndk1::__function::__func<geode::ListenerResult (*)(std::__ndk1::vector<std::__ndk1::basic_string<char, std::__ndk1::char_traits<char>, std::__ndk1::allocator<char> >, std::__ndk1::allocator<std::__ndk1::basic_string<char, std::__ndk1::char_traits<char>, std::__ndk1::allocator<char> > > >*, IconType), std::__ndk1::allocator<geode::ListenerResult (*)(std::__ndk1::vector<std::__ndk1::basic_string<char, std::__ndk1::char_traits<char>, std::__ndk1::allocator<char> >, std::__ndk1::allocator<std::__ndk1::basic_string<char, std::__ndk1::char_traits<char>, std::__ndk1::allocator<char> > > >*, IconType)>, geode::ListenerResult(std::__ndk1::vector<std::__ndk1::basic_string<char, std::__ndk1::char_traits<char>, std::__ndk1::allocator<char> >, std::__ndk1::allocator<std::__ndk1::basic_string<char, std::__ndk1::char_traits<char>, std::__ndk1::allocator<char> > > >*, IconType)>::destroy_deallocate()
PUBLIC 3ebd4 0 std::__ndk1::__function::__func<geode::ListenerResult (*)(std::__ndk1::vector<std::__ndk1::basic_string<char, std::__ndk1::char_traits<char>, std::__ndk1::allocator<char> >, std::__ndk1::allocator<std::__ndk1::basic_string<char, std::__ndk1::char_traits<char>, std::__ndk1::allocator<char> > > >*, IconType), std::__ndk1::allocator<geode::ListenerResult (*)(std::__ndk1::vector<std::__ndk1::basic_string<char, std::__ndk1::char_traits<char>, std::__ndk1::allocator<char> >, std::__ndk1::allocator<std::__ndk1::basic_string<char, std::__ndk1::char_traits<char>, std::__ndk1::allocator<char> > > >*, IconType)>, geode::ListenerResult(std::__ndk1::vector<std::__ndk1::basic_string<char, std::__ndk1::char_traits<char>, std::__ndk1::allocator<char> >, std::__ndk1::allocator<std::__ndk1::basic_string<char, std::__ndk1::char_traits<char>, std::__ndk1::allocator<char> > > >*, IconType)>::operator()(std::__ndk1::vector<std::__ndk1::basic_string<char, std::__ndk1::char_traits<char>, std::__ndk1::allocator<char> >, std::__ndk1::allocator<std::__ndk1::basic_string<char, std::__ndk1::char_traits<char>, std::__ndk1::allocator<char> > > >*&&, IconType&&)
PUBLIC 3ebe8 0 std::__ndk1::__function::__func<geode::ListenerResult (*)(std::__ndk1::vector<std::__ndk1::basic_string<char, std::__ndk1::char_traits<char>, std::__ndk1::allocator<char> >, std::__ndk1::allocator<std::__ndk1::basic_string<char, std::__ndk1::char_traits<char>, std::__ndk1::allocator<char> > > >*, IconType), std::__ndk1::allocator<geode::ListenerResult (*)(std::__ndk1::vector<std::__ndk1::basic_string<char, std::__ndk1::char_traits<char>, std::__ndk1::allocator<char> >, std::__ndk1::allocator<std::__ndk1::basic_string<char, std::__ndk1::char_traits<char>, std::__ndk1::allocator<char> > > >*, IconType)>, geode::ListenerResult(std::__ndk1::vector<std::__ndk1::basic_string<char, std::__ndk1::char_traits<char>, std::__ndk1::allocator<char> >, std::__ndk1::allocator<std::__ndk1::basic_string<char, std::__ndk1::char_traits<char>, std::__ndk1::allocator<char> > > >*, IconType)>::target(std::type_info const&) const
PUBLIC 3ec04 0 std::__ndk1::__function::__func<geode::ListenerResult (*)(std::__ndk1::vector<std::__ndk1::basic_string<char, std::__ndk1::char_traits<char>, std::__ndk1::allocator<char> >, std::__ndk1::allocator<std::__ndk1::basic_string<char, std::__ndk1::char_traits<char>, std::__ndk1::allocator<char> > > >*, IconType), std::__ndk1::allocator<geode::ListenerResult (*)(std::__ndk1::vector<std::__ndk1::basic_string<char, std::__ndk1::char_traits<char>, std::__ndk1::allocator<char> >, std::__ndk1::allocator<std::__ndk1::basic_string<char, std::__ndk1::char_traits<char>, std::__ndk1::allocator<char> > > >*, IconType)>, geode::ListenerResult(std::__ndk1::vector<std::__ndk1::basic_string<char, std::__ndk1::char_traits<char>, std::__ndk1::allocator<char> >, std::__ndk1::allocator<std::__ndk1::basic_string<char, std::__ndk1::char_traits<char>, std::__ndk1::allocator<char> > > >*, IconType)>::target_type() const
PUBLIC 3ec10 0 geodeExecFunction15<(anonymous namespace)::ExecFuncUnique15>()::{lambda(GJRobotSprite*, std::__ndk1::basic_string<char, std::__ndk1::char_traits<char>, std::__ndk1::allocator<char> > const&)#1}::__invoke(GJRobotSprite*, std::__ndk1::basic_string<char, std::__ndk1::char_traits<char>, std::__ndk1::allocator<char> > const&)
PUBLIC 3ec48 0 std::__ndk1::__function::__base<geode::ListenerResult(GJRobotSprite*, std::__ndk1::basic_string<char, std::__ndk1::char_traits<char>, std::__ndk1::allocator<char> >)>::~__base()
PUBLIC 3ec4c 0 std::__ndk1::__function::__func<geode::ListenerResult (*)(GJRobotSprite*, std::__ndk1::basic_string<char, std::__ndk1::char_traits<char>, std::__ndk1::allocator<char> > const&), std::__ndk1::allocator<geode::ListenerResult (*)(GJRobotSprite*, std::__ndk1::basic_string<char, std::__ndk1::char_traits<char>, std::__ndk1::allocator<char> > const&)>, geode::ListenerResult(GJRobotSprite*, std::__ndk1::basic_string<char, std::__ndk1::char_traits<char>, std::__ndk1::allocator<char> >)>::~__func()
PUBLIC 3ec50 0 std::__ndk1::__function::__func<geode::ListenerResult (*)(GJRobotSprite*, std::__ndk1::basic_string<char, std::__ndk1::char_traits<char>, std::__ndk1::allocator<char> > const&), std::__ndk1::allocator<geode::ListenerResult (*)(GJRobotSprite*, std::__ndk1::basic_string<char, std::__ndk1::char_traits<char>, std::__ndk1::allocator<char> > const&)>, geode::ListenerResult(GJRobotSprite*, std::__ndk1::basic_string<char, std::__ndk1::char_traits<char>, std::__ndk1::allocator<char> >)>::__clone() const
PUBLIC 3ec84 0 std::__ndk1::__function::__func<geode::ListenerResult (*)(GJRobotSprite*, std::__ndk1::basic_string<char, std::__ndk1::char_traits<char>, std::__ndk1::allocator<char> > const&), std::__ndk1::allocator<geode::ListenerResult (*)(GJRobotSprite*, std::__ndk1::basic_string<char, std::__ndk1::char_traits<char>, std::__ndk1::allocator<char> > const&)>, geode::ListenerResult(GJRobotSprite*, std::__ndk1::basic_string<char, std::__ndk1::char_traits<char>, std::__ndk1::allocator<char> >)>::__clone(std::__ndk1::__function::__base<geode::ListenerResult(GJRobotSprite*, std::__ndk1::basic_string<char, std::__ndk1::char_traits<char>, std::__ndk1::allocator<char> >)>*) const
PUBLIC 3ec98 0 std::__ndk1::__function::__func<geode::ListenerResult (*)(GJRobotSprite*, std::__ndk1::basic_string<char, std::__ndk1::char_traits<char>, std::__ndk1::allocator<char> > const&), std::__ndk1::allocator<geode::ListenerResult (*)(GJRobotSprite*, std::__ndk1::basic_string<char, std::__ndk1::char_traits<char>, std::__ndk1::allocator<char> > const&)>, geode::ListenerResult(GJRobotSprite*, std::__ndk1::basic_string<char, std::__ndk1::char_traits<char>, std::__ndk1::allocator<char> >)>::destroy()
PUBLIC 3ec9c 0 std::__ndk1::__function::__func<geode::ListenerResult (*)(GJRobotSprite*, std::__ndk1::basic_string<char, std::__ndk1::char_traits<char>, std::__ndk1::allocator<char> > const&), std::__ndk1::allocator<geode::ListenerResult (*)(GJRobotSprite*, std::__ndk1::basic_string<char, std::__ndk1::char_traits<char>, std::__ndk1::allocator<char> > const&)>, geode::ListenerResult(GJRobotSprite*, std::__ndk1::basic_string<char, std::__ndk1::char_traits<char>, std::__ndk1::allocator<char> >)>::destroy_deallocate()
PUBLIC 3eca0 0 std::__ndk1::__function::__func<geode::ListenerResult (*)(GJRobotSprite*, std::__ndk1::basic_string<char, std::__ndk1::char_traits<char>, std::__ndk1::allocator<char> > const&), std::__ndk1::allocator<geode::ListenerResult (*)(GJRobotSprite*, std::__ndk1::basic_string<char, std::__ndk1::char_traits<char>, std::__ndk1::allocator<char> > const&)>, geode::ListenerResult(GJRobotSprite*, std::__ndk1::basic_string<char, std::__ndk1::char_traits<char>, std::__ndk1::allocator<char> >)>::operator()(GJRobotSprite*&&, std::__ndk1::basic_string<char, std::__ndk1::char_traits<char>, std::__ndk1::allocator<char> >&&)
PUBLIC 3ecb4 0 std::__ndk1::__function::__func<geode::ListenerResult (*)(GJRobotSprite*, std::__ndk1::basic_string<char, std::__ndk1::char_traits<char>, std::__ndk1::allocator<char> > const&), std::__ndk1::allocator<geode::ListenerResult (*)(GJRobotSprite*, std::__ndk1::basic_string<char, std::__ndk1::char_traits<char>, std::__ndk1::allocator<char> > const&)>, geode::ListenerResult(GJRobotSprite*, std::__ndk1::basic_string<char, std::__ndk1::char_traits<char>, std::__ndk1::allocator<char> >)>::target(std::type_info const&) const
PUBLIC 3ecd0 0 std::__ndk1::__function::__func<geode::ListenerResult (*)(GJRobotSprite*, std::__ndk1::basic_string<char, std::__ndk1::char_traits<char>, std::__ndk1::allocator<char> > const&), std::__ndk1::allocator<geode::ListenerResult (*)(GJRobotSprite*, std::__ndk1::basic_string<char, std::__ndk1::char_traits<char>, std::__ndk1::allocator<char> > const&)>, geode::ListenerResult(GJRobotSprite*, std::__ndk1::basic_string<char, std::__ndk1::char_traits<char>, std::__ndk1::allocator<char> >)>::target_type() const
PUBLIC 3ecdc 0 geode::EventListener<geode::DispatchFilter<GJRobotSprite*, std::__ndk1::basic_string<char, std::__ndk1::char_traits<char>, std::__ndk1::allocator<char> > > >::getPool() const
PUBLIC 3ed8c 0 geode::EventListener<geode::DispatchFilter<GJRobotSprite*, std::__ndk1::basic_string<char, std::__ndk1::char_traits<char>, std::__ndk1::allocator<char> > > >::handle(geode::Event*)
PUBLIC 3f0fc 0 geode::EventListener<geode::DispatchFilter<GJRobotSprite*, std::__ndk1::basic_string<char, std::__ndk1::char_traits<char>, std::__ndk1::allocator<char> > > >::~EventListener()
PUBLIC 3f168 0 geode::EventListener<geode::DispatchFilter<GJRobotSprite*, std::__ndk1::basic_string<char, std::__ndk1::char_traits<char>, std::__ndk1::allocator<char> > > >::~EventListener()
PUBLIC 3f1dc 0 geodeExecFunction15<(anonymous namespace)::ExecFuncUnique15>()::{lambda(PlayerObject*, std::__ndk1::basic_string<char, std::__ndk1::char_traits<char>, std::__ndk1::allocator<char> > const&)#1}::__invoke(PlayerObject*, std::__ndk1::basic_string<char, std::__ndk1::char_traits<char>, std::__ndk1::allocator<char> > const&)
PUBLIC 3f28c 0 std::__ndk1::__function::__base<geode::ListenerResult(PlayerObject*, std::__ndk1::basic_string<char, std::__ndk1::char_traits<char>, std::__ndk1::allocator<char> >)>::~__base()
PUBLIC 3f290 0 std::__ndk1::__function::__func<geode::ListenerResult (*)(PlayerObject*, std::__ndk1::basic_string<char, std::__ndk1::char_traits<char>, std::__ndk1::allocator<char> > const&), std::__ndk1::allocator<geode::ListenerResult (*)(PlayerObject*, std::__ndk1::basic_string<char, std::__ndk1::char_traits<char>, std::__ndk1::allocator<char> > const&)>, geode::ListenerResult(PlayerObject*, std::__ndk1::basic_string<char, std::__ndk1::char_traits<char>, std::__ndk1::allocator<char> >)>::~__func()
PUBLIC 3f294 0 std::__ndk1::__function::__func<geode::ListenerResult (*)(PlayerObject*, std::__ndk1::basic_string<char, std::__ndk1::char_traits<char>, std::__ndk1::allocator<char> > const&), std::__ndk1::allocator<geode::ListenerResult (*)(PlayerObject*, std::__ndk1::basic_string<char, std::__ndk1::char_traits<char>, std::__ndk1::allocator<char> > const&)>, geode::ListenerResult(PlayerObject*, std::__ndk1::basic_string<char, std::__ndk1::char_traits<char>, std::__ndk1::allocator<char> >)>::__clone() const
PUBLIC 3f2c8 0 std::__ndk1::__function::__func<geode::ListenerResult (*)(PlayerObject*, std::__ndk1::basic_string<char, std::__ndk1::char_traits<char>, std::__ndk1::allocator<char> > const&), std::__ndk1::allocator<geode::ListenerResult (*)(PlayerObject*, std::__ndk1::basic_string<char, std::__ndk1::char_traits<char>, std::__ndk1::allocator<char> > const&)>, geode::ListenerResult(PlayerObject*, std::__ndk1::basic_string<char, std::__ndk1::char_traits<char>, std::__ndk1::allocator<char> >)>::__clone(std::__ndk1::__function::__base<geode::ListenerResult(PlayerObject*, std::__ndk1::basic_string<char, std::__ndk1::char_traits<char>, std::__ndk1::allocator<char> >)>*) const
PUBLIC 3f2dc 0 std::__ndk1::__function::__func<geode::ListenerResult (*)(PlayerObject*, std::__ndk1::basic_string<char, std::__ndk1::char_traits<char>, std::__ndk1::allocator<char> > const&), std::__ndk1::allocator<geode::ListenerResult (*)(PlayerObject*, std::__ndk1::basic_string<char, std::__ndk1::char_traits<char>, std::__ndk1::allocator<char> > const&)>, geode::ListenerResult(PlayerObject*, std::__ndk1::basic_string<char, std::__ndk1::char_traits<char>, std::__ndk1::allocator<char> >)>::destroy()
PUBLIC 3f2e0 0 std::__ndk1::__function::__func<geode::ListenerResult (*)(PlayerObject*, std::__ndk1::basic_string<char, std::__ndk1::char_traits<char>, std::__ndk1::allocator<char> > const&), std::__ndk1::allocator<geode::ListenerResult (*)(PlayerObject*, std::__ndk1::basic_string<char, std::__ndk1::char_traits<char>, std::__ndk1::allocator<char> > const&)>, geode::ListenerResult(PlayerObject*, std::__ndk1::basic_string<char, std::__ndk1::char_traits<char>, std::__ndk1::allocator<char> >)>::destroy_deallocate()
PUBLIC 3f2e4 0 std::__ndk1::__function::__func<geode::ListenerResult (*)(PlayerObject*, std::__ndk1::basic_string<char, std::__ndk1::char_traits<char>, std::__ndk1::allocator<char> > const&), std::__ndk1::allocator<geode::ListenerResult (*)(PlayerObject*, std::__ndk1::basic_string<char, std::__ndk1::char_traits<char>, std::__ndk1::allocator<char> > const&)>, geode::ListenerResult(PlayerObject*, std::__ndk1::basic_string<char, std::__ndk1::char_traits<char>, std::__ndk1::allocator<char> >)>::operator()(PlayerObject*&&, std::__ndk1::basic_string<char, std::__ndk1::char_traits<char>, std::__ndk1::allocator<char> >&&)
PUBLIC 3f2f8 0 std::__ndk1::__function::__func<geode::ListenerResult (*)(PlayerObject*, std::__ndk1::basic_string<char, std::__ndk1::char_traits<char>, std::__ndk1::allocator<char> > const&), std::__ndk1::allocator<geode::ListenerResult (*)(PlayerObject*, std::__ndk1::basic_string<char, std::__ndk1::char_traits<char>, std::__ndk1::allocator<char> > const&)>, geode::ListenerResult(PlayerObject*, std::__ndk1::basic_string<char, std::__ndk1::char_traits<char>, std::__ndk1::allocator<char> >)>::target(std::type_info const&) const
PUBLIC 3f314 0 std::__ndk1::__function::__func<geode::ListenerResult (*)(PlayerObject*, std::__ndk1::basic_string<char, std::__ndk1::char_traits<char>, std::__ndk1::allocator<char> > const&), std::__ndk1::allocator<geode::ListenerResult (*)(PlayerObject*, std::__ndk1::basic_string<char, std::__ndk1::char_traits<char>, std::__ndk1::allocator<char> > const&)>, geode::ListenerResult(PlayerObject*, std::__ndk1::basic_string<char, std::__ndk1::char_traits<char>, std::__ndk1::allocator<char> >)>::target_type() const
PUBLIC 3f320 0 geode::EventListener<geode::DispatchFilter<PlayerObject*, std::__ndk1::basic_string<char, std::__ndk1::char_traits<char>, std::__ndk1::allocator<char> > > >::getPool() const
PUBLIC 3f3d0 0 geode::EventListener<geode::DispatchFilter<PlayerObject*, std::__ndk1::basic_string<char, std::__ndk1::char_traits<char>, std::__ndk1::allocator<char> > > >::handle(geode::Event*)
PUBLIC 3f740 0 geode::EventListener<geode::DispatchFilter<PlayerObject*, std::__ndk1::basic_string<char, std::__ndk1::char_traits<char>, std::__ndk1::allocator<char> > > >::~EventListener()
PUBLIC 3f7ac 0 geode::EventListener<geode::DispatchFilter<PlayerObject*, std::__ndk1::basic_string<char, std::__ndk1::char_traits<char>, std::__ndk1::allocator<char> > > >::~EventListener()
PUBLIC 3f820 0 geodeExecFunction15<(anonymous namespace)::ExecFuncUnique15>()::{lambda(std::__ndk1::basic_string<char, std::__ndk1::char_traits<char>, std::__ndk1::allocator<char> >*, IconType, bool)#1}::__invoke(std::__ndk1::basic_string<char, std::__ndk1::char_traits<char>, std::__ndk1::allocator<char> >*, IconType, bool)
PUBLIC 3f898 0 geode::EventListener<geode::DispatchFilter<std::__ndk1::basic_string<char, std::__ndk1::char_traits<char>, std::__ndk1::allocator<char> >*, IconType, bool> >::getPool() const
PUBLIC 3f948 0 geode::EventListener<geode::DispatchFilter<std::__ndk1::basic_string<char, std::__ndk1::char_traits<char>, std::__ndk1::allocator<char> >*, IconType, bool> >::handle(geode::Event*)
PUBLIC 3fc0c 0 geode::EventListener<geode::DispatchFilter<std::__ndk1::basic_string<char, std::__ndk1::char_traits<char>, std::__ndk1::allocator<char> >*, IconType, bool> >::~EventListener()
PUBLIC 3fc78 0 geode::EventListener<geode::DispatchFilter<std::__ndk1::basic_string<char, std::__ndk1::char_traits<char>, std::__ndk1::allocator<char> >*, IconType, bool> >::~EventListener()
PUBLIC 3fcec 0 std::__ndk1::__function::__base<geode::ListenerResult(std::__ndk1::basic_string<char, std::__ndk1::char_traits<char>, std::__ndk1::allocator<char> >*, IconType, bool)>::~__base()
PUBLIC 3fcf0 0 std::__ndk1::__function::__func<geode::ListenerResult (*)(std::__ndk1::basic_string<char, std::__ndk1::char_traits<char>, std::__ndk1::allocator<char> >*, IconType, bool), std::__ndk1::allocator<geode::ListenerResult (*)(std::__ndk1::basic_string<char, std::__ndk1::char_traits<char>, std::__ndk1::allocator<char> >*, IconType, bool)>, geode::ListenerResult(std::__ndk1::basic_string<char, std::__ndk1::char_traits<char>, std::__ndk1::allocator<char> >*, IconType, bool)>::~__func()
PUBLIC 3fcf4 0 std::__ndk1::__function::__func<geode::ListenerResult (*)(std::__ndk1::basic_string<char, std::__ndk1::char_traits<char>, std::__ndk1::allocator<char> >*, IconType, bool), std::__ndk1::allocator<geode::ListenerResult (*)(std::__ndk1::basic_string<char, std::__ndk1::char_traits<char>, std::__ndk1::allocator<char> >*, IconType, bool)>, geode::ListenerResult(std::__ndk1::basic_string<char, std::__ndk1::char_traits<char>, std::__ndk1::allocator<char> >*, IconType, bool)>::__clone() const
PUBLIC 3fd28 0 std::__ndk1::__function::__func<geode::ListenerResult (*)(std::__ndk1::basic_string<char, std::__ndk1::char_traits<char>, std::__ndk1::allocator<char> >*, IconType, bool), std::__ndk1::allocator<geode::ListenerResult (*)(std::__ndk1::basic_string<char, std::__ndk1::char_traits<char>, std::__ndk1::allocator<char> >*, IconType, bool)>, geode::ListenerResult(std::__ndk1::basic_string<char, std::__ndk1::char_traits<char>, std::__ndk1::allocator<char> >*, IconType, bool)>::__clone(std::__ndk1::__function::__base<geode::ListenerResult(std::__ndk1::basic_string<char, std::__ndk1::char_traits<char>, std::__ndk1::allocator<char> >*, IconType, bool)>*) const
PUBLIC 3fd3c 0 std::__ndk1::__function::__func<geode::ListenerResult (*)(std::__ndk1::basic_string<char, std::__ndk1::char_traits<char>, std::__ndk1::allocator<char> >*, IconType, bool), std::__ndk1::allocator<geode::ListenerResult (*)(std::__ndk1::basic_string<char, std::__ndk1::char_traits<char>, std::__ndk1::allocator<char> >*, IconType, bool)>, geode::ListenerResult(std::__ndk1::basic_string<char, std::__ndk1::char_traits<char>, std::__ndk1::allocator<char> >*, IconType, bool)>::destroy()
PUBLIC 3fd40 0 std::__ndk1::__function::__func<geode::ListenerResult (*)(std::__ndk1::basic_string<char, std::__ndk1::char_traits<char>, std::__ndk1::allocator<char> >*, IconType, bool), std::__ndk1::allocator<geode::ListenerResult (*)(std::__ndk1::basic_string<char, std::__ndk1::char_traits<char>, std::__ndk1::allocator<char> >*, IconType, bool)>, geode::ListenerResult(std::__ndk1::basic_string<char, std::__ndk1::char_traits<char>, std::__ndk1::allocator<char> >*, IconType, bool)>::destroy_deallocate()
PUBLIC 3fd44 0 std::__ndk1::__function::__func<geode::ListenerResult (*)(std::__ndk1::basic_string<char, std::__ndk1::char_traits<char>, std::__ndk1::allocator<char> >*, IconType, bool), std::__ndk1::allocator<geode::ListenerResult (*)(std::__ndk1::basic_string<char, std::__ndk1::char_traits<char>, std::__ndk1::allocator<char> >*, IconType, bool)>, geode::ListenerResult(std::__ndk1::basic_string<char, std::__ndk1::char_traits<char>, std::__ndk1::allocator<char> >*, IconType, bool)>::operator()(std::__ndk1::basic_string<char, std::__ndk1::char_traits<char>, std::__ndk1::allocator<char> >*&&, IconType&&, bool&&)
PUBLIC 3fd5c 0 std::__ndk1::__function::__func<geode::ListenerResult (*)(std::__ndk1::basic_string<char, std::__ndk1::char_traits<char>, std::__ndk1::allocator<char> >*, IconType, bool), std::__ndk1::allocator<geode::ListenerResult (*)(std::__ndk1::basic_string<char, std::__ndk1::char_traits<char>, std::__ndk1::allocator<char> >*, IconType, bool)>, geode::ListenerResult(std::__ndk1::basic_string<char, std::__ndk1::char_traits<char>, std::__ndk1::allocator<char> >*, IconType, bool)>::target(std::type_info const&) const
PUBLIC 3fd78 0 std::__ndk1::__function::__func<geode::ListenerResult (*)(std::__ndk1::basic_string<char, std::__ndk1::char_traits<char>, std::__ndk1::allocator<char> >*, IconType, bool), std::__ndk1::allocator<geode::ListenerResult (*)(std::__ndk1::basic_string<char, std::__ndk1::char_traits<char>, std::__ndk1::allocator<char> >*, IconType, bool)>, geode::ListenerResult(std::__ndk1::basic_string<char, std::__ndk1::char_traits<char>, std::__ndk1::allocator<char> >*, IconType, bool)>::target_type() const
PUBLIC 3fd84 0 geodeExecFunction15<(anonymous namespace)::ExecFuncUnique15>()::{lambda(std::__ndk1::basic_string<char, std::__ndk1::char_traits<char>, std::__ndk1::allocator<char> > const&, IconType, bool)#1}::__invoke(std::__ndk1::basic_string<char, std::__ndk1::char_traits<char>, std::__ndk1::allocator<char> > const&, IconType, bool)
PUBLIC 3fe30 0 std::__ndk1::__function::__base<geode::ListenerResult(std::__ndk1::basic_string<char, std::__ndk1::char_traits<char>, std::__ndk1::allocator<char> >, IconType, bool)>::~__base()
PUBLIC 3fe34 0 std::__ndk1::__function::__func<geode::ListenerResult (*)(std::__ndk1::basic_string<char, std::__ndk1::char_traits<char>, std::__ndk1::allocator<char> > const&, IconType, bool), std::__ndk1::allocator<geode::ListenerResult (*)(std::__ndk1::basic_string<char, std::__ndk1::char_traits<char>, std::__ndk1::allocator<char> > const&, IconType, bool)>, geode::ListenerResult(std::__ndk1::basic_string<char, std::__ndk1::char_traits<char>, std::__ndk1::allocator<char> >, IconType, bool)>::~__func()
PUBLIC 3fe38 0 std::__ndk1::__function::__func<geode::ListenerResult (*)(std::__ndk1::basic_string<char, std::__ndk1::char_traits<char>, std::__ndk1::allocator<char> > const&, IconType, bool), std::__ndk1::allocator<geode::ListenerResult (*)(std::__ndk1::basic_string<char, std::__ndk1::char_traits<char>, std::__ndk1::allocator<char> > const&, IconType, bool)>, geode::ListenerResult(std::__ndk1::basic_string<char, std::__ndk1::char_traits<char>, std::__ndk1::allocator<char> >, IconType, bool)>::__clone() const
PUBLIC 3fe6c 0 std::__ndk1::__function::__func<geode::ListenerResult (*)(std::__ndk1::basic_string<char, std::__ndk1::char_traits<char>, std::__ndk1::allocator<char> > const&, IconType, bool), std::__ndk1::allocator<geode::ListenerResult (*)(std::__ndk1::basic_string<char, std::__ndk1::char_traits<char>, std::__ndk1::allocator<char> > const&, IconType, bool)>, geode::ListenerResult(std::__ndk1::basic_string<char, std::__ndk1::char_traits<char>, std::__ndk1::allocator<char> >, IconType, bool)>::__clone(std::__ndk1::__function::__base<geode::ListenerResult(std::__ndk1::basic_string<char, std::__ndk1::char_traits<char>, std::__ndk1::allocator<char> >, IconType, bool)>*) const
PUBLIC 3fe80 0 std::__ndk1::__function::__func<geode::ListenerResult (*)(std::__ndk1::basic_string<char, std::__ndk1::char_traits<char>, std::__ndk1::allocator<char> > const&, IconType, bool), std::__ndk1::allocator<geode::ListenerResult (*)(std::__ndk1::basic_string<char, std::__ndk1::char_traits<char>, std::__ndk1::allocator<char> > const&, IconType, bool)>, geode::ListenerResult(std::__ndk1::basic_string<char, std::__ndk1::char_traits<char>, std::__ndk1::allocator<char> >, IconType, bool)>::destroy()
PUBLIC 3fe84 0 std::__ndk1::__function::__func<geode::ListenerResult (*)(std::__ndk1::basic_string<char, std::__ndk1::char_traits<char>, std::__ndk1::allocator<char> > const&, IconType, bool), std::__ndk1::allocator<geode::ListenerResult (*)(std::__ndk1::basic_string<char, std::__ndk1::char_traits<char>, std::__ndk1::allocator<char> > const&, IconType, bool)>, geode::ListenerResult(std::__ndk1::basic_string<char, std::__ndk1::char_traits<char>, std::__ndk1::allocator<char> >, IconType, bool)>::destroy_deallocate()
PUBLIC 3fe88 0 std::__ndk1::__function::__func<geode::ListenerResult (*)(std::__ndk1::basic_string<char, std::__ndk1::char_traits<char>, std::__ndk1::allocator<char> > const&, IconType, bool), std::__ndk1::allocator<geode::ListenerResult (*)(std::__ndk1::basic_string<char, std::__ndk1::char_traits<char>, std::__ndk1::allocator<char> > const&, IconType, bool)>, geode::ListenerResult(std::__ndk1::basic_string<char, std::__ndk1::char_traits<char>, std::__ndk1::allocator<char> >, IconType, bool)>::operator()(std::__ndk1::basic_string<char, std::__ndk1::char_traits<char>, std::__ndk1::allocator<char> >&&, IconType&&, bool&&)
PUBLIC 3fea0 0 std::__ndk1::__function::__func<geode::ListenerResult (*)(std::__ndk1::basic_string<char, std::__ndk1::char_traits<char>, std::__ndk1::allocator<char> > const&, IconType, bool), std::__ndk1::allocator<geode::ListenerResult (*)(std::__ndk1::basic_string<char, std::__ndk1::char_traits<char>, std::__ndk1::allocator<char> > const&, IconType, bool)>, geode::ListenerResult(std::__ndk1::basic_string<char, std::__ndk1::char_traits<char>, std::__ndk1::allocator<char> >, IconType, bool)>::target(std::type_info const&) const
PUBLIC 3febc 0 std::__ndk1::__function::__func<geode::ListenerResult (*)(std::__ndk1::basic_string<char, std::__ndk1::char_traits<char>, std::__ndk1::allocator<char> > const&, IconType, bool), std::__ndk1::allocator<geode::ListenerResult (*)(std::__ndk1::basic_string<char, std::__ndk1::char_traits<char>, std::__ndk1::allocator<char> > const&, IconType, bool)>, geode::ListenerResult(std::__ndk1::basic_string<char, std::__ndk1::char_traits<char>, std::__ndk1::allocator<char> >, IconType, bool)>::target_type() const
PUBLIC 3fec8 0 geode::EventListener<geode::DispatchFilter<std::__ndk1::basic_string<char, std::__ndk1::char_traits<char>, std::__ndk1::allocator<char> >, IconType, bool> >::getPool() const
PUBLIC 3ff78 0 geode::EventListener<geode::DispatchFilter<std::__ndk1::basic_string<char, std::__ndk1::char_traits<char>, std::__ndk1::allocator<char> >, IconType, bool> >::handle(geode::Event*)
PUBLIC 402f4 0 geode::EventListener<geode::DispatchFilter<std::__ndk1::basic_string<char, std::__ndk1::char_traits<char>, std::__ndk1::allocator<char> >, IconType, bool> >::~EventListener()
PUBLIC 40360 0 geode::EventListener<geode::DispatchFilter<std::__ndk1::basic_string<char, std::__ndk1::char_traits<char>, std::__ndk1::allocator<char> >, IconType, bool> >::~EventListener()
PUBLIC 403d4 0 _GLOBAL__sub_I_MoreIconsAPI.cpp
PUBLIC 41420 0 ButtonHooker::create(cocos2d::CCMenuItem*, cocos2d::CCObject*, void (cocos2d::CCObject::*)(cocos2d::CCObject*))
PUBLIC 41568 0 cocos2d::CCCopying::copyWithZone(cocos2d::CCZone*)
PUBLIC 41570 0 ButtonHooker::~ButtonHooker()
PUBLIC 41594 0 cocos2d::CCObject::update(float)
PUBLIC 41598 0 DummyNode::setBlendFunc(cocos2d::_ccBlendFunc)
PUBLIC 416c0 0 DummyNode::recursiveBlend(cocos2d::CCNode*, cocos2d::_ccBlendFunc)
PUBLIC 41820 0 geode::cocos::CCArrayExt<cocos2d::CCNode*, cocos2d::CCNode>::~CCArrayExt()
PUBLIC 41840 0 {virtual override thunk({offset(-320)}, DummyNode::setBlendFunc(cocos2d::_ccBlendFunc))}
PUBLIC 41848 0 DummyNode::~DummyNode()
PUBLIC 4186c 0 DummyNode::addChild(cocos2d::CCNode*, int, int)
PUBLIC 418f4 0 DummyNode::removeChild(cocos2d::CCNode*, bool)
PUBLIC 418f8 0 DummyNode::removeAllChildrenWithCleanup(bool)
PUBLIC 418fc 0 DummyNode::reorderChild(cocos2d::CCNode*, int)
PUBLIC 41900 0 DummyNode::sortAllChildren()
PUBLIC 41904 0 DummyNode::draw()
PUBLIC 41908 0 DummyNode::visit()
PUBLIC 4190c 0 LogCell::create(std::__ndk1::basic_string<char, std::__ndk1::char_traits<char>, std::__ndk1::allocator<char> > const&, geode::Severity, int, int, bool)
PUBLIC 41a30 0 LogCell::init(std::__ndk1::basic_string<char, std::__ndk1::char_traits<char>, std::__ndk1::allocator<char> > const&, geode::Severity, int, int, bool)
PUBLIC 41ec0 0 LogCell::draw()
PUBLIC 41f7c 0 LogCell::~LogCell()
PUBLIC 41fa0 0 {virtual override thunk({offset(-320)}, LogCell::~LogCell())}
PUBLIC 41fa8 0 {virtual override thunk({offset(-320)}, LogCell::~LogCell())}
PUBLIC 41fd0 0 cocos2d::CCKeyboardDelegate::keyUp(cocos2d::enumKeyCodes)
PUBLIC 41fd4 0 cocos2d::CCMouseDelegate::rightKeyDown()
PUBLIC 41fd8 0 cocos2d::CCMouseDelegate::rightKeyUp()
PUBLIC 41fdc 0 cocos2d::CCMouseDelegate::scrollWheel(float, float)
PUBLIC 41fe0 0 __aarch64_ldadd8_acq_rel
PUBLIC 42010 0 init_have_lse_atomics
PUBLIC 420a8 0 __init_cpu_features_constructor
PUBLIC 42354 0 __init_cpu_features
PUBLIC 423e0 0 __cxx_global_var_init.10
PUBLIC 4244c 0 std::__ndk1::unordered_map<std::__ndk1::basic_string<char, std::__ndk1::char_traits<char>, std::__ndk1::allocator<char> >, TexturePack, std::__ndk1::hash<std::__ndk1::basic_string<char, std::__ndk1::char_traits<char>, std::__ndk1::allocator<char> > >, std::__ndk1::equal_to<std::__ndk1::basic_string<char, std::__ndk1::char_traits<char>, std::__ndk1::allocator<char> > >, std::__ndk1::allocator<std::__ndk1::pair<std::__ndk1::basic_string<char, std::__ndk1::char_traits<char>, std::__ndk1::allocator<char> > const, TexturePack> > >::~unordered_map[abi:ne190000]()
PUBLIC 42450 0 __cxx_global_var_init.11
PUBLIC 424bc 0 __cxx_global_var_init.12
PUBLIC 42528 0 __cxx_global_var_init.13
PUBLIC 42594 0 __cxx_global_var_init.14
PUBLIC 42600 0 __cxx_global_var_init.15
PUBLIC 4266c 0 __cxx_global_var_init.16
PUBLIC 426d8 0 __cxx_global_var_init.17
PUBLIC 42744 0 __cxx_global_var_init.18
PUBLIC 427b0 0 __cxx_global_var_init.19
PUBLIC 4281c 0 std::__ndk1::unordered_map<std::__ndk1::basic_string<char, std::__ndk1::char_traits<char>, std::__ndk1::allocator<char> >, TrailInfo, std::__ndk1::hash<std::__ndk1::basic_string<char, std::__ndk1::char_traits<char>, std::__ndk1::allocator<char> > >, std::__ndk1::equal_to<std::__ndk1::basic_string<char, std::__ndk1::char_traits<char>, std::__ndk1::allocator<char> > >, std::__ndk1::allocator<std::__ndk1::pair<std::__ndk1::basic_string<char, std::__ndk1::char_traits<char>, std::__ndk1::allocator<char> > const, TrailInfo> > >::~unordered_map[abi:ne190000]()
PUBLIC 42858 0 __cxx_global_var_init.20
PUBLIC 428b4 0 std::__ndk1::vector<LogData, std::__ndk1::allocator<LogData> >::~vector[abi:ne190000]()
PUBLIC 42930 0 __cxx_global_var_init.21
PUBLIC 42978 0 LogLayer::create()
PUBLIC 42aa8 0 LogLayer::setup()
PUBLIC 43184 0 geode::cocos::CCMenuItemExt::createSpriteExtraWithFrameName(std::__ndk1::basic_string_view<char, std::__ndk1::char_traits<char> >, float, std::__ndk1::function<void (CCMenuItemSpriteExtra*)>)
PUBLIC 432d0 0 geode::cocos::CCMenuItemExt::createSpriteExtra(cocos2d::CCNode*, std::__ndk1::function<void (CCMenuItemSpriteExtra*)>)
PUBLIC 43698 0 LogLayer::page(int)
PUBLIC 4397c 0 LogLayer::keyDown(cocos2d::enumKeyCodes)
PUBLIC 43a60 0 geode::Popup<>::keyDown(cocos2d::enumKeyCodes)
PUBLIC 43a88 0 {virtual override thunk({offset(-344)}, LogLayer::keyDown(cocos2d::enumKeyCodes))}
PUBLIC 43a90 0 LogLayer::setIDPopupClosed(SetIDPopup*, int)
PUBLIC 43ad8 0 {virtual override thunk({offset(-672)}, LogLayer::setIDPopupClosed(SetIDPopup*, int))}
PUBLIC 43b24 0 geode::Popup<>::~Popup()
PUBLIC 43b90 0 LogLayer::~LogLayer()
PUBLIC 43c04 0 geode::Popup<>::registerWithTouchDispatcher()
PUBLIC 43c30 0 cocos2d::CCLayerRGBA::setOpacityModifyRGB(bool)
PUBLIC 43c34 0 cocos2d::CCLayerRGBA::isOpacityModifyRGB()
PUBLIC 43c3c 0 geode::Popup<>::onClose(cocos2d::CCObject*)
PUBLIC 43d70 0 {virtual override thunk({offset(-320)}, LogLayer::~LogLayer())}
PUBLIC 43ddc 0 {virtual override thunk({offset(-320)}, LogLayer::~LogLayer())}
PUBLIC 43e50 0 {virtual override thunk({offset(-408)}, cocos2d::CCLayerRGBA::setOpacityModifyRGB(bool))}
PUBLIC 43e54 0 {virtual override thunk({offset(-408)}, cocos2d::CCLayerRGBA::isOpacityModifyRGB())}
PUBLIC 43e5c 0 geode::Popup<>::~Popup()
PUBLIC 43e60 0 {virtual override thunk({offset(-320)}, geode::Popup<>::~Popup())}
PUBLIC 43ecc 0 {virtual override thunk({offset(-320)}, geode::Popup<>::~Popup())}
PUBLIC 43ed0 0 {virtual override thunk({offset(-344)}, geode::Popup<>::keyDown(cocos2d::enumKeyCodes))}
PUBLIC 43efc 0 geode::cocos::CCMenuItemExt::LambdaCallback<CCMenuItemSpriteExtra>::execute(cocos2d::CCNode*)
PUBLIC 43f6c 0 geode::cocos::CCMenuItemExt::LambdaCallback<CCMenuItemSpriteExtra>::~LambdaCallback()
PUBLIC 43fc8 0 geode::cocos::CCMenuItemExt::LambdaCallback<CCMenuItemSpriteExtra>::~LambdaCallback()
PUBLIC 4402c 0 std::__ndk1::__hash_table<std::__ndk1::__hash_value_type<std::__ndk1::basic_string<char, std::__ndk1::char_traits<char>, std::__ndk1::allocator<char> >, TexturePack>, std::__ndk1::__unordered_map_hasher<std::__ndk1::basic_string<char, std::__ndk1::char_traits<char>, std::__ndk1::allocator<char> >, std::__ndk1::__hash_value_type<std::__ndk1::basic_string<char, std::__ndk1::char_traits<char>, std::__ndk1::allocator<char> >, TexturePack>, std::__ndk1::hash<std::__ndk1::basic_string<char, std::__ndk1::char_traits<char>, std::__ndk1::allocator<char> > >, std::__ndk1::equal_to<std::__ndk1::basic_string<char, std::__ndk1::char_traits<char>, std::__ndk1::allocator<char> > >, true>, std::__ndk1::__unordered_map_equal<std::__ndk1::basic_string<char, std::__ndk1::char_traits<char>, std::__ndk1::allocator<char> >, std::__ndk1::__hash_value_type<std::__ndk1::basic_string<char, std::__ndk1::char_traits<char>, std::__ndk1::allocator<char> >, TexturePack>, std::__ndk1::equal_to<std::__ndk1::basic_string<char, std::__ndk1::char_traits<char>, std::__ndk1::allocator<char> > >, std::__ndk1::hash<std::__ndk1::basic_string<char, std::__ndk1::char_traits<char>, std::__ndk1::allocator<char> > >, true>, std::__ndk1::allocator<std::__ndk1::__hash_value_type<std::__ndk1::basic_string<char, std::__ndk1::char_traits<char>, std::__ndk1::allocator<char> >, TexturePack> > >::~__hash_table()
PUBLIC 440d0 0 std::__ndk1::__hash_table<std::__ndk1::__hash_value_type<std::__ndk1::basic_string<char, std::__ndk1::char_traits<char>, std::__ndk1::allocator<char> >, TrailInfo>, std::__ndk1::__unordered_map_hasher<std::__ndk1::basic_string<char, std::__ndk1::char_traits<char>, std::__ndk1::allocator<char> >, std::__ndk1::__hash_value_type<std::__ndk1::basic_string<char, std::__ndk1::char_traits<char>, std::__ndk1::allocator<char> >, TrailInfo>, std::__ndk1::hash<std::__ndk1::basic_string<char, std::__ndk1::char_traits<char>, std::__ndk1::allocator<char> > >, std::__ndk1::equal_to<std::__ndk1::basic_string<char, std::__ndk1::char_traits<char>, std::__ndk1::allocator<char> > >, true>, std::__ndk1::__unordered_map_equal<std::__ndk1::basic_string<char, std::__ndk1::char_traits<char>, std::__ndk1::allocator<char> >, std::__ndk1::__hash_value_type<std::__ndk1::basic_string<char, std::__ndk1::char_traits<char>, std::__ndk1::allocator<char> >, TrailInfo>, std::__ndk1::equal_to<std::__ndk1::basic_string<char, std::__ndk1::char_traits<char>, std::__ndk1::allocator<char> > >, std::__ndk1::hash<std::__ndk1::basic_string<char, std::__ndk1::char_traits<char>, std::__ndk1::allocator<char> > >, true>, std::__ndk1::allocator<std::__ndk1::__hash_value_type<std::__ndk1::basic_string<char, std::__ndk1::char_traits<char>, std::__ndk1::allocator<char> >, TrailInfo> > >::__deallocate_node(std::__ndk1::__hash_node_base<std::__ndk1::__hash_node<std::__ndk1::__hash_value_type<std::__ndk1::basic_string<char, std::__ndk1::char_traits<char>, std::__ndk1::allocator<char> >, TrailInfo>, void*>*>*)
PUBLIC 44168 0 geode::Popup<>::initBase(float, float, char const*, cocos2d::CCRect, bool)
PUBLIC 4446c 0 std::__ndk1::__function::__func<LogLayer::setup()::$_0, std::__ndk1::allocator<LogLayer::setup()::$_0>, void (CCMenuItemSpriteExtra*)>::~__func()
PUBLIC 44470 0 std::__ndk1::__function::__func<LogLayer::setup()::$_0, std::__ndk1::allocator<LogLayer::setup()::$_0>, void (CCMenuItemSpriteExtra*)>::__clone() const
PUBLIC 444a4 0 std::__ndk1::__function::__func<LogLayer::setup()::$_0, std::__ndk1::allocator<LogLayer::setup()::$_0>, void (CCMenuItemSpriteExtra*)>::__clone(std::__ndk1::__function::__base<void (CCMenuItemSpriteExtra*)>*) const
PUBLIC 444b8 0 std::__ndk1::__function::__func<LogLayer::setup()::$_0, std::__ndk1::allocator<LogLayer::setup()::$_0>, void (CCMenuItemSpriteExtra*)>::destroy()
PUBLIC 444bc 0 std::__ndk1::__function::__func<LogLayer::setup()::$_0, std::__ndk1::allocator<LogLayer::setup()::$_0>, void (CCMenuItemSpriteExtra*)>::destroy_deallocate()
PUBLIC 444c0 0 std::__ndk1::__function::__func<LogLayer::setup()::$_0, std::__ndk1::allocator<LogLayer::setup()::$_0>, void (CCMenuItemSpriteExtra*)>::operator()(CCMenuItemSpriteExtra*&&)
PUBLIC 444d0 0 std::__ndk1::__function::__func<LogLayer::setup()::$_0, std::__ndk1::allocator<LogLayer::setup()::$_0>, void (CCMenuItemSpriteExtra*)>::target(std::type_info const&) const
PUBLIC 444ec 0 std::__ndk1::__function::__func<LogLayer::setup()::$_0, std::__ndk1::allocator<LogLayer::setup()::$_0>, void (CCMenuItemSpriteExtra*)>::target_type() const
PUBLIC 444f8 0 std::__ndk1::__function::__func<LogLayer::setup()::$_1, std::__ndk1::allocator<LogLayer::setup()::$_1>, void (CCMenuItemSpriteExtra*)>::~__func()
PUBLIC 444fc 0 std::__ndk1::__function::__func<LogLayer::setup()::$_1, std::__ndk1::allocator<LogLayer::setup()::$_1>, void (CCMenuItemSpriteExtra*)>::__clone() const
PUBLIC 44530 0 std::__ndk1::__function::__func<LogLayer::setup()::$_1, std::__ndk1::allocator<LogLayer::setup()::$_1>, void (CCMenuItemSpriteExtra*)>::__clone(std::__ndk1::__function::__base<void (CCMenuItemSpriteExtra*)>*) const
PUBLIC 44544 0 std::__ndk1::__function::__func<LogLayer::setup()::$_1, std::__ndk1::allocator<LogLayer::setup()::$_1>, void (CCMenuItemSpriteExtra*)>::destroy()
PUBLIC 44548 0 std::__ndk1::__function::__func<LogLayer::setup()::$_1, std::__ndk1::allocator<LogLayer::setup()::$_1>, void (CCMenuItemSpriteExtra*)>::destroy_deallocate()
PUBLIC 4454c 0 std::__ndk1::__function::__func<LogLayer::setup()::$_1, std::__ndk1::allocator<LogLayer::setup()::$_1>, void (CCMenuItemSpriteExtra*)>::operator()(CCMenuItemSpriteExtra*&&)
PUBLIC 4455c 0 std::__ndk1::__function::__func<LogLayer::setup()::$_1, std::__ndk1::allocator<LogLayer::setup()::$_1>, void (CCMenuItemSpriteExtra*)>::target(std::type_info const&) const
PUBLIC 44578 0 std::__ndk1::__function::__func<LogLayer::setup()::$_1, std::__ndk1::allocator<LogLayer::setup()::$_1>, void (CCMenuItemSpriteExtra*)>::target_type() const
PUBLIC 44584 0 std::__ndk1::__function::__func<LogLayer::setup()::$_2, std::__ndk1::allocator<LogLayer::setup()::$_2>, void (CCMenuItemSpriteExtra*)>::~__func()
PUBLIC 44588 0 std::__ndk1::__function::__func<LogLayer::setup()::$_2, std::__ndk1::allocator<LogLayer::setup()::$_2>, void (CCMenuItemSpriteExtra*)>::__clone() const
PUBLIC 445bc 0 std::__ndk1::__function::__func<LogLayer::setup()::$_2, std::__ndk1::allocator<LogLayer::setup()::$_2>, void (CCMenuItemSpriteExtra*)>::__clone(std::__ndk1::__function::__base<void (CCMenuItemSpriteExtra*)>*) const
PUBLIC 445d0 0 std::__ndk1::__function::__func<LogLayer::setup()::$_2, std::__ndk1::allocator<LogLayer::setup()::$_2>, void (CCMenuItemSpriteExtra*)>::destroy()
PUBLIC 445d4 0 std::__ndk1::__function::__func<LogLayer::setup()::$_2, std::__ndk1::allocator<LogLayer::setup()::$_2>, void (CCMenuItemSpriteExtra*)>::destroy_deallocate()
PUBLIC 445d8 0 std::__ndk1::__function::__func<LogLayer::setup()::$_2, std::__ndk1::allocator<LogLayer::setup()::$_2>, void (CCMenuItemSpriteExtra*)>::operator()(CCMenuItemSpriteExtra*&&)
PUBLIC 44714 0 std::__ndk1::__function::__func<LogLayer::setup()::$_2, std::__ndk1::allocator<LogLayer::setup()::$_2>, void (CCMenuItemSpriteExtra*)>::target(std::type_info const&) const
PUBLIC 44730 0 std::__ndk1::__function::__func<LogLayer::setup()::$_2, std::__ndk1::allocator<LogLayer::setup()::$_2>, void (CCMenuItemSpriteExtra*)>::target_type() const
PUBLIC 4473c 0 std::__ndk1::__function::__func<LogLayer::setup()::$_3, std::__ndk1::allocator<LogLayer::setup()::$_3>, void (CCMenuItemSpriteExtra*)>::~__func()
PUBLIC 44740 0 std::__ndk1::__function::__func<LogLayer::setup()::$_3, std::__ndk1::allocator<LogLayer::setup()::$_3>, void (CCMenuItemSpriteExtra*)>::__clone() const
PUBLIC 44774 0 std::__ndk1::__function::__func<LogLayer::setup()::$_3, std::__ndk1::allocator<LogLayer::setup()::$_3>, void (CCMenuItemSpriteExtra*)>::__clone(std::__ndk1::__function::__base<void (CCMenuItemSpriteExtra*)>*) const
PUBLIC 44788 0 std::__ndk1::__function::__func<LogLayer::setup()::$_3, std::__ndk1::allocator<LogLayer::setup()::$_3>, void (CCMenuItemSpriteExtra*)>::destroy()
PUBLIC 4478c 0 std::__ndk1::__function::__func<LogLayer::setup()::$_3, std::__ndk1::allocator<LogLayer::setup()::$_3>, void (CCMenuItemSpriteExtra*)>::destroy_deallocate()
PUBLIC 44790 0 std::__ndk1::__function::__func<LogLayer::setup()::$_3, std::__ndk1::allocator<LogLayer::setup()::$_3>, void (CCMenuItemSpriteExtra*)>::operator()(CCMenuItemSpriteExtra*&&)
PUBLIC 44798 0 std::__ndk1::__function::__func<LogLayer::setup()::$_3, std::__ndk1::allocator<LogLayer::setup()::$_3>, void (CCMenuItemSpriteExtra*)>::target(std::type_info const&) const
PUBLIC 447b4 0 std::__ndk1::__function::__func<LogLayer::setup()::$_3, std::__ndk1::allocator<LogLayer::setup()::$_3>, void (CCMenuItemSpriteExtra*)>::target_type() const
PUBLIC 447c0 0 std::__ndk1::__function::__base<void (CCMenuItemSpriteExtra*)>::~__base()
PUBLIC 447c4 0 std::__ndk1::__function::__func<LogLayer::setup()::$_4, std::__ndk1::allocator<LogLayer::setup()::$_4>, void (CCMenuItemSpriteExtra*)>::~__func()
PUBLIC 447c8 0 std::__ndk1::__function::__func<LogLayer::setup()::$_4, std::__ndk1::allocator<LogLayer::setup()::$_4>, void (CCMenuItemSpriteExtra*)>::__clone() const
PUBLIC 447fc 0 std::__ndk1::__function::__func<LogLayer::setup()::$_4, std::__ndk1::allocator<LogLayer::setup()::$_4>, void (CCMenuItemSpriteExtra*)>::__clone(std::__ndk1::__function::__base<void (CCMenuItemSpriteExtra*)>*) const
PUBLIC 44810 0 std::__ndk1::__function::__func<LogLayer::setup()::$_4, std::__ndk1::allocator<LogLayer::setup()::$_4>, void (CCMenuItemSpriteExtra*)>::destroy()
PUBLIC 44814 0 std::__ndk1::__function::__func<LogLayer::setup()::$_4, std::__ndk1::allocator<LogLayer::setup()::$_4>, void (CCMenuItemSpriteExtra*)>::destroy_deallocate()
PUBLIC 44818 0 std::__ndk1::__function::__func<LogLayer::setup()::$_4, std::__ndk1::allocator<LogLayer::setup()::$_4>, void (CCMenuItemSpriteExtra*)>::operator()(CCMenuItemSpriteExtra*&&)
PUBLIC 448c0 0 std::__ndk1::__function::__func<LogLayer::setup()::$_4, std::__ndk1::allocator<LogLayer::setup()::$_4>, void (CCMenuItemSpriteExtra*)>::target(std::type_info const&) const
PUBLIC 448dc 0 std::__ndk1::__function::__func<LogLayer::setup()::$_4, std::__ndk1::allocator<LogLayer::setup()::$_4>, void (CCMenuItemSpriteExtra*)>::target_type() const
PUBLIC 448e8 0 geode::Popup<>::CloseEvent::~CloseEvent()
PUBLIC 44948 0 geode::Popup<>::CloseEvent::~CloseEvent()
PUBLIC 449b8 0 std::__ndk1::__shared_ptr_emplace<geode::Popup<>::CloseEvent::Impl, std::__ndk1::allocator<geode::Popup<>::CloseEvent::Impl> >::~__shared_ptr_emplace()
PUBLIC 449c8 0 std::__ndk1::__shared_ptr_emplace<geode::Popup<>::CloseEvent::Impl, std::__ndk1::allocator<geode::Popup<>::CloseEvent::Impl> >::~__shared_ptr_emplace()
PUBLIC 449f8 0 std::__ndk1::__shared_ptr_emplace<geode::Popup<>::CloseEvent::Impl, std::__ndk1::allocator<geode::Popup<>::CloseEvent::Impl> >::__on_zero_shared()
PUBLIC 449fc 0 std::__ndk1::__shared_ptr_emplace<geode::Popup<>::CloseEvent::Impl, std::__ndk1::allocator<geode::Popup<>::CloseEvent::Impl> >::__on_zero_shared_weak()
PUBLIC 44a00 0 __aarch64_ldadd8_relax
PUBLIC 44a30 0 __cxx_global_var_init
PUBLIC 44ea0 0 geode::modifier::ModifyBase<geode::modifier::ModifyDerive<MIFileUtils, cocos2d::CCFileUtils> >::~ModifyBase()
PUBLIC 44ebc 0 geode::modifier::ModifyDerive<MIFileUtils, cocos2d::CCFileUtils>::apply()
PUBLIC 45274 0 std::__ndk1::shared_ptr<geode::Hook>::~shared_ptr[abi:ne190000]()
PUBLIC 452c4 0 geode::impl::ResultData<geode::Hook*, std::__ndk1::basic_string<char, std::__ndk1::char_traits<char>, std::__ndk1::allocator<char> > >::~ResultData()
PUBLIC 45338 0 geode::modifier::ModifyBase<geode::modifier::ModifyDerive<MIFileUtils, cocos2d::CCFileUtils> >::apply()
PUBLIC 4533c 0 _ZN5geode15UnwrapExceptionC2IRPNS_4HookEQsr4implE18IsStringStreamableIT_EEENS_4impl5OkTagEOS5_
PUBLIC 45490 0 std::__ndk1::basic_stringstream<char, std::__ndk1::char_traits<char>, std::__ndk1::allocator<char> >::basic_stringstream[abi:ne190000]()
PUBLIC m 455c4 0 std::__ndk1::basic_stringstream<char, std::__ndk1::char_traits<char>, std::__ndk1::allocator<char> >::~basic_stringstream()
PUBLIC 45644 0 geode::UnwrapException::~UnwrapException()
PUBLIC 45668 0 std::__ndk1::__put_character_sequence[abi:ne190000]<char, std::__ndk1::char_traits<char> >(std::__ndk1::basic_ostream<char, std::__ndk1::char_traits<char> >, std::__ndk1::basic_ostream const*, unsigned long)
PUBLIC 4580c 0 std::__ndk1::__pad_and_output[abi:ne190000]<char, std::__ndk1::char_traits<char> >(std::__ndk1::char_traits<char>, std::__ndk1::ostreambuf_iterator const*, std::__ndk1::ostreambuf_iterator const, std::__ndk1::ostreambuf_iterator const, std::__ndk1::ios_base&, std::__ndk1::ostreambuf_iterator)
PUBLIC 459f8 0 std::__ndk1::basic_stringbuf<char, std::__ndk1::char_traits<char>, std::__ndk1::allocator<char> >::str[abi:ne190000]() &&
PUBLIC 45b68 0 std::__ndk1::basic_stringbuf<char, std::__ndk1::char_traits<char>, std::__ndk1::allocator<char> >::__init_buf_ptrs[abi:ne190000]()
PUBLIC 45cb0 0 std::__ndk1::basic_string<char, std::__ndk1::char_traits<char>, std::__ndk1::allocator<char> >::__erase_external_with_move(unsigned long, unsigned long)
PUBLIC 45d38 0 std::__ndk1::vector<std::__ndk1::basic_string<char, std::__ndk1::char_traits<char>, std::__ndk1::allocator<char> >, std::__ndk1::allocator<std::__ndk1::basic_string<char, std::__ndk1::char_traits<char>, std::__ndk1::allocator<char> > > >::__push_back_slow_path<std::__ndk1::basic_string<char, std::__ndk1::char_traits<char>, std::__ndk1::allocator<char> > const&>(std::__ndk1::basic_string<char, std::__ndk1::char_traits<char>, std::__ndk1::allocator<char> > const&)
PUBLIC 45ee8 0 std::__ndk1::__split_buffer<std::__ndk1::basic_string<char, std::__ndk1::char_traits<char>, std::__ndk1::allocator<char> >, std::__ndk1::allocator<std::__ndk1::basic_string<char, std::__ndk1::char_traits<char>, std::__ndk1::allocator<char> > >&>::~__split_buffer()
PUBLIC 45f50 0 std::__ndk1::__variant_detail::__visitation::__base::__dispatcher<(unsigned long)0>::__dispatch[abi:ne190000]<std::__ndk1::__variant_detail::__dtor<std::__ndk1::__variant_detail::__traits<geode::Hook*, std::__ndk1::basic_string<char, std::__ndk1::char_traits<char>, std::__ndk1::allocator<char> > >, (std::__ndk1::__variant_detail::_Trait)1>::__destroy[abi:ne190000]()::{lambda(auto:1&)#1}, std::__ndk1::__variant_detail::__base<(std::__ndk1::__variant_detail::__traits<geode::Hook*, std::__ndk1::basic_string<char, std::__ndk1::char_traits<char>, std::__ndk1::allocator<char> > >)1, geode::Hook, std::__ndk1::allocator<char> >&>(std::__ndk1::__variant_detail::__dtor<std::__ndk1::__variant_detail::__traits<geode::Hook*, std::__ndk1::basic_string<char, std::__ndk1::char_traits<char>, std::__ndk1::allocator<char> > >, (std::__ndk1::__variant_detail::_Trait)1>, std::__ndk1::__variant_detail::__base<(std::__ndk1::__variant_detail::__traits<geode::Hook*, std::__ndk1::basic_string<char, std::__ndk1::char_traits<char>, std::__ndk1::allocator<char> > >)1, geode::Hook, std::__ndk1::allocator<char> >&)
PUBLIC 45f54 0 std::__ndk1::__variant_detail::__visitation::__base::__dispatcher<(unsigned long)1>::__dispatch[abi:ne190000]<std::__ndk1::__variant_detail::__dtor<std::__ndk1::__variant_detail::__traits<geode::Hook*, std::__ndk1::basic_string<char, std::__ndk1::char_traits<char>, std::__ndk1::allocator<char> > >, (std::__ndk1::__variant_detail::_Trait)1>::__destroy[abi:ne190000]()::{lambda(auto:1&)#1}, std::__ndk1::__variant_detail::__base<(std::__ndk1::__variant_detail::__traits<geode::Hook*, std::__ndk1::basic_string<char, std::__ndk1::char_traits<char>, std::__ndk1::allocator<char> > >)1, geode::Hook, std::__ndk1::allocator<char> >&>(std::__ndk1::__variant_detail::__dtor<std::__ndk1::__variant_detail::__traits<geode::Hook*, std::__ndk1::basic_string<char, std::__ndk1::char_traits<char>, std::__ndk1::allocator<char> > >, (std::__ndk1::__variant_detail::_Trait)1>, std::__ndk1::__variant_detail::__base<(std::__ndk1::__variant_detail::__traits<geode::Hook*, std::__ndk1::basic_string<char, std::__ndk1::char_traits<char>, std::__ndk1::allocator<char> > >)1, geode::Hook, std::__ndk1::allocator<char> >&)
PUBLIC 45f68 0 std::__ndk1::__tree<std::__ndk1::__value_type<std::__ndk1::basic_string<char, std::__ndk1::char_traits<char>, std::__ndk1::allocator<char> >, std::__ndk1::shared_ptr<geode::Hook> >, std::__ndk1::__map_value_compare<std::__ndk1::basic_string<char, std::__ndk1::char_traits<char>, std::__ndk1::allocator<char> >, std::__ndk1::__value_type<std::__ndk1::basic_string<char, std::__ndk1::char_traits<char>, std::__ndk1::allocator<char> >, std::__ndk1::shared_ptr<geode::Hook> >, std::__ndk1::less<std::__ndk1::basic_string<char, std::__ndk1::char_traits<char>, std::__ndk1::allocator<char> > >, true>, std::__ndk1::allocator<std::__ndk1::__value_type<std::__ndk1::basic_string<char, std::__ndk1::char_traits<char>, std::__ndk1::allocator<char> >, std::__ndk1::shared_ptr<geode::Hook> > > >::find<std::__ndk1::basic_string<char, std::__ndk1::char_traits<char>, std::__ndk1::allocator<char> > >(std::__ndk1::basic_string<char, std::__ndk1::char_traits<char>, std::__ndk1::allocator<char> > const&)
PUBLIC 46090 0 std::__ndk1::__tree<std::__ndk1::__value_type<std::__ndk1::basic_string<char, std::__ndk1::char_traits<char>, std::__ndk1::allocator<char> >, std::__ndk1::shared_ptr<geode::Hook> >, std::__ndk1::__map_value_compare<std::__ndk1::basic_string<char, std::__ndk1::char_traits<char>, std::__ndk1::allocator<char> >, std::__ndk1::__value_type<std::__ndk1::basic_string<char, std::__ndk1::char_traits<char>, std::__ndk1::allocator<char> >, std::__ndk1::shared_ptr<geode::Hook> >, std::__ndk1::less<std::__ndk1::basic_string<char, std::__ndk1::char_traits<char>, std::__ndk1::allocator<char> > >, true>, std::__ndk1::allocator<std::__ndk1::__value_type<std::__ndk1::basic_string<char, std::__ndk1::char_traits<char>, std::__ndk1::allocator<char> >, std::__ndk1::shared_ptr<geode::Hook> > > >::erase(std::__ndk1::__tree_const_iterator<std::__ndk1::__value_type<std::__ndk1::basic_string<char, std::__ndk1::char_traits<char>, std::__ndk1::allocator<char> >, std::__ndk1::shared_ptr<geode::Hook> >, std::__ndk1::__tree_node<std::__ndk1::__value_type<std::__ndk1::basic_string<char, std::__ndk1::char_traits<char>, std::__ndk1::allocator<char> >, std::__ndk1::shared_ptr<geode::Hook> >, void*>*, long>)
PUBLIC 46164 0 std::__ndk1::__tree_remove[abi:ne190000]<std::__ndk1::__tree_node_base<void*>*>(std::__ndk1::__tree_node_base<void*>*, std::__ndk1::__tree_node_base<void*>*)
PUBLIC 4652c 0 std::__ndk1::__tree<std::__ndk1::__value_type<std::__ndk1::basic_string<char, std::__ndk1::char_traits<char>, std::__ndk1::allocator<char> >, std::__ndk1::shared_ptr<geode::Hook> >, std::__ndk1::__map_value_compare<std::__ndk1::basic_string<char, std::__ndk1::char_traits<char>, std::__ndk1::allocator<char> >, std::__ndk1::__value_type<std::__ndk1::basic_string<char, std::__ndk1::char_traits<char>, std::__ndk1::allocator<char> >, std::__ndk1::shared_ptr<geode::Hook> >, std::__ndk1::less<std::__ndk1::basic_string<char, std::__ndk1::char_traits<char>, std::__ndk1::allocator<char> > >, true>, std::__ndk1::allocator<std::__ndk1::__value_type<std::__ndk1::basic_string<char, std::__ndk1::char_traits<char>, std::__ndk1::allocator<char> >, std::__ndk1::shared_ptr<geode::Hook> > > >::destroy(std::__ndk1::__tree_node<std::__ndk1::__value_type<std::__ndk1::basic_string<char, std::__ndk1::char_traits<char>, std::__ndk1::allocator<char> >, std::__ndk1::shared_ptr<geode::Hook> >, void*>*)
PUBLIC 465b8 0 geode::modifier::AsStaticFunction_fullPathForFilename<MIFileUtils, gd::string (MIFileUtils::*)(char const*, bool)>::Impl<gd::string (MIFileUtils::*)(char const*, bool)>::function(MIFileUtils*, char const*, bool)
PUBLIC 467bc 0 geode::addresser::Addresser::addressOfVirtual<gd::string, cocos2d::CCFileUtils, char const*, bool>(gd::string (cocos2d::CCFileUtils::*)(char const*, bool))
PUBLIC 46884 0 cocos2d::CCFileUtils::CCFileUtils(geode::ZeroConstructorType, void*)
PUBLIC 4694c 0 gd::vector<gd::string>::~vector()
PUBLIC 469bc 0 geode::stl::_rb_insert_rebalance(bool, geode::stl::_rb_tree_base*, geode::stl::_rb_tree_base*, geode::stl::_rb_tree_base&)
PUBLIC 46c74 0 std::__ndk1::__tree<std::__ndk1::__value_type<gd::string, gd::string>, std::__ndk1::__map_value_compare<gd::string, std::__ndk1::__value_type<gd::string, gd::string>, std::__ndk1::less<gd::string>, true>, std::__ndk1::allocator<std::__ndk1::__value_type<gd::string, gd::string> > >::destroy(std::__ndk1::__tree_node<std::__ndk1::__value_type<gd::string, gd::string>, void*>*)
PUBLIC 46cc0 0 std::__ndk1::shared_ptr<tulip::hook::CallingConvention>::~shared_ptr[abi:ne190000]()
PUBLIC 46d10 0 tulip::hook::HandlerMetadata::~HandlerMetadata()
PUBLIC 46d74 0 std::__ndk1::vector<tulip::hook::AbstractType, std::__ndk1::allocator<tulip::hook::AbstractType> >::__throw_length_error[abi:ne190000]() const
PUBLIC 46d88 0 std::__ndk1::__tree<std::__ndk1::__value_type<std::__ndk1::basic_string<char, std::__ndk1::char_traits<char>, std::__ndk1::allocator<char> >, std::__ndk1::shared_ptr<geode::Hook> >, std::__ndk1::__map_value_compare<std::__ndk1::basic_string<char, std::__ndk1::char_traits<char>, std::__ndk1::allocator<char> >, std::__ndk1::__value_type<std::__ndk1::basic_string<char, std::__ndk1::char_traits<char>, std::__ndk1::allocator<char> >, std::__ndk1::shared_ptr<geode::Hook> >, std::__ndk1::less<std::__ndk1::basic_string<char, std::__ndk1::char_traits<char>, std::__ndk1::allocator<char> > >, true>, std::__ndk1::allocator<std::__ndk1::__value_type<std::__ndk1::basic_string<char, std::__ndk1::char_traits<char>, std::__ndk1::allocator<char> >, std::__ndk1::shared_ptr<geode::Hook> > > >::__emplace_unique_key_args<std::__ndk1::basic_string<char, std::__ndk1::char_traits<char>, std::__ndk1::allocator<char> >, std::__ndk1::piecewise_construct_t const&, std::__ndk1::tuple<std::__ndk1::basic_string<char, std::__ndk1::char_traits<char>, std::__ndk1::allocator<char> >&&>, std::__ndk1::tuple<> >(std::__ndk1::basic_string<char, std::__ndk1::char_traits<char>, std::__ndk1::allocator<char> > const&, std::__ndk1::piecewise_construct_t const&, std::__ndk1::tuple<std::__ndk1::basic_string<char, std::__ndk1::char_traits<char>, std::__ndk1::allocator<char> >&&>, std::__ndk1::tuple<>)
PUBLIC 46f00 0 std::__ndk1::__tree_balance_after_insert[abi:ne190000]<std::__ndk1::__tree_node_base<void*>*>(std::__ndk1::__tree_node_base<void*>*, std::__ndk1::__tree_node_base<void*>*)
PUBLIC 470a8 0 __cxx_global_var_init.10
PUBLIC 47590 0 geode::modifier::ModifyBase<geode::modifier::ModifyDerive<MICharacterColorPage, CharacterColorPage> >::~ModifyBase()
PUBLIC 475ac 0 geode::modifier::ModifyDerive<MICharacterColorPage, CharacterColorPage>::apply()
PUBLIC 47b94 0 geode::modifier::ModifyBase<geode::modifier::ModifyDerive<MICharacterColorPage, CharacterColorPage> >::apply()
PUBLIC 47b98 0 geode::modifier::ModifyBase<geode::modifier::ModifyDerive<MICharacterColorPage, CharacterColorPage> >::setHookPriorityBefore(std::__ndk1::basic_string_view<char, std::__ndk1::char_traits<char> >, std::__ndk1::basic_string_view<char, std::__ndk1::char_traits<char> >)
PUBLIC 48078 0 geode::modifier::ModifyBase<geode::modifier::ModifyDerive<MICharacterColorPage, CharacterColorPage> >::setHookPriorityBefore(std::__ndk1::basic_string_view<char, std::__ndk1::char_traits<char> >, geode::Mod*)::{lambda(geode::ModStateEvent*)#1}::operator()(geode::ModStateEvent*) const
PUBLIC 48188 0 std::__ndk1::__tree<std::__ndk1::__value_type<std::__ndk1::basic_string<char, std::__ndk1::char_traits<char>, std::__ndk1::allocator<char> >, std::__ndk1::shared_ptr<geode::Hook> >, std::__ndk1::__map_value_compare<std::__ndk1::basic_string<char, std::__ndk1::char_traits<char>, std::__ndk1::allocator<char> >, std::__ndk1::__value_type<std::__ndk1::basic_string<char, std::__ndk1::char_traits<char>, std::__ndk1::allocator<char> >, std::__ndk1::shared_ptr<geode::Hook> >, std::__ndk1::less<std::__ndk1::basic_string<char, std::__ndk1::char_traits<char>, std::__ndk1::allocator<char> > >, true>, std::__ndk1::allocator<std::__ndk1::__value_type<std::__ndk1::basic_string<char, std::__ndk1::char_traits<char>, std::__ndk1::allocator<char> >, std::__ndk1::shared_ptr<geode::Hook> > > >::__emplace_unique_key_args<std::__ndk1::basic_string<char, std::__ndk1::char_traits<char>, std::__ndk1::allocator<char> >, std::__ndk1::piecewise_construct_t const&, std::__ndk1::tuple<std::__ndk1::basic_string<char, std::__ndk1::char_traits<char>, std::__ndk1::allocator<char> > const&>, std::__ndk1::tuple<> >(std::__ndk1::basic_string<char, std::__ndk1::char_traits<char>, std::__ndk1::allocator<char> > const&, std::__ndk1::piecewise_construct_t const&, std::__ndk1::tuple<std::__ndk1::basic_string<char, std::__ndk1::char_traits<char>, std::__ndk1::allocator<char> > const&>, std::__ndk1::tuple<>)
PUBLIC 4837c 0 std::__ndk1::unique_ptr<std::__ndk1::__tree_node<std::__ndk1::__value_type<std::__ndk1::basic_string<char, std::__ndk1::char_traits<char>, std::__ndk1::allocator<char> >, std::__ndk1::shared_ptr<geode::Hook> >, void*>, std::__ndk1::__tree_node_destructor<std::__ndk1::allocator<std::__ndk1::__tree_node<std::__ndk1::__value_type<std::__ndk1::basic_string<char, std::__ndk1::char_traits<char>, std::__ndk1::allocator<char> >, std::__ndk1::shared_ptr<geode::Hook> >, void*> > > >::~unique_ptr[abi:ne190000]()
PUBLIC 483f8 0 _ZN5geode15UnwrapExceptionC2IRNSt6__ndk112basic_stringIcNS2_11char_traitsIcEENS2_9allocatorIcEEEEQsr4implE18IsStringStreamableIT_EEENS_4impl6ErrTagEOSA_
PUBLIC 48560 0 std::__ndk1::__function::__base<void (geode::ModStateEvent*)>::~__base()
PUBLIC 48564 0 std::__ndk1::__function::__func<geode::modifier::ModifyBase<geode::modifier::ModifyDerive<MICharacterColorPage, CharacterColorPage> >::setHookPriorityBefore(std::__ndk1::basic_string_view<char, std::__ndk1::char_traits<char> >, geode::Mod*)::{lambda(geode::ModStateEvent*)#1}, std::__ndk1::allocator<geode::modifier::ModifyBase<geode::modifier::ModifyDerive<MICharacterColorPage, CharacterColorPage> >::setHookPriorityBefore(std::__ndk1::basic_string_view<char, std::__ndk1::char_traits<char> >, geode::Mod*)::{lambda(geode::ModStateEvent*)#1}>, void (geode::ModStateEvent*)>::~__func()
PUBLIC 48568 0 std::__ndk1::__function::__func<geode::modifier::ModifyBase<geode::modifier::ModifyDerive<MICharacterColorPage, CharacterColorPage> >::setHookPriorityBefore(std::__ndk1::basic_string_view<char, std::__ndk1::char_traits<char> >, geode::Mod*)::{lambda(geode::ModStateEvent*)#1}, std::__ndk1::allocator<geode::modifier::ModifyBase<geode::modifier::ModifyDerive<MICharacterColorPage, CharacterColorPage> >::setHookPriorityBefore(std::__ndk1::basic_string_view<char, std::__ndk1::char_traits<char> >, geode::Mod*)::{lambda(geode::ModStateEvent*)#1}>, void (geode::ModStateEvent*)>::__clone() const
PUBLIC 485a0 0 std::__ndk1::__function::__func<geode::modifier::ModifyBase<geode::modifier::ModifyDerive<MICharacterColorPage, CharacterColorPage> >::setHookPriorityBefore(std::__ndk1::basic_string_view<char, std::__ndk1::char_traits<char> >, geode::Mod*)::{lambda(geode::ModStateEvent*)#1}, std::__ndk1::allocator<geode::modifier::ModifyBase<geode::modifier::ModifyDerive<MICharacterColorPage, CharacterColorPage> >::setHookPriorityBefore(std::__ndk1::basic_string_view<char, std::__ndk1::char_traits<char> >, geode::Mod*)::{lambda(geode::ModStateEvent*)#1}>, void (geode::ModStateEvent*)>::__clone(std::__ndk1::__function::__base<void (geode::ModStateEvent*)>*) const
PUBLIC 485b8 0 std::__ndk1::__function::__func<geode::modifier::ModifyBase<geode::modifier::ModifyDerive<MICharacterColorPage, CharacterColorPage> >::setHookPriorityBefore(std::__ndk1::basic_string_view<char, std::__ndk1::char_traits<char> >, geode::Mod*)::{lambda(geode::ModStateEvent*)#1}, std::__ndk1::allocator<geode::modifier::ModifyBase<geode::modifier::ModifyDerive<MICharacterColorPage, CharacterColorPage> >::setHookPriorityBefore(std::__ndk1::basic_string_view<char, std::__ndk1::char_traits<char> >, geode::Mod*)::{lambda(geode::ModStateEvent*)#1}>, void (geode::ModStateEvent*)>::destroy()
PUBLIC 485bc 0 std::__ndk1::__function::__func<geode::modifier::ModifyBase<geode::modifier::ModifyDerive<MICharacterColorPage, CharacterColorPage> >::setHookPriorityBefore(std::__ndk1::basic_string_view<char, std::__ndk1::char_traits<char> >, geode::Mod*)::{lambda(geode::ModStateEvent*)#1}, std::__ndk1::allocator<geode::modifier::ModifyBase<geode::modifier::ModifyDerive<MICharacterColorPage, CharacterColorPage> >::setHookPriorityBefore(std::__ndk1::basic_string_view<char, std::__ndk1::char_traits<char> >, geode::Mod*)::{lambda(geode::ModStateEvent*)#1}>, void (geode::ModStateEvent*)>::destroy_deallocate()
PUBLIC 485c0 0 std::__ndk1::__function::__func<geode::modifier::ModifyBase<geode::modifier::ModifyDerive<MICharacterColorPage, CharacterColorPage> >::setHookPriorityBefore(std::__ndk1::basic_string_view<char, std::__ndk1::char_traits<char> >, geode::Mod*)::{lambda(geode::ModStateEvent*)#1}, std::__ndk1::allocator<geode::modifier::ModifyBase<geode::modifier::ModifyDerive<MICharacterColorPage, CharacterColorPage> >::setHookPriorityBefore(std::__ndk1::basic_string_view<char, std::__ndk1::char_traits<char> >, geode::Mod*)::{lambda(geode::ModStateEvent*)#1}>, void (geode::ModStateEvent*)>::operator()(geode::ModStateEvent*&&)
PUBLIC 485c8 0 std::__ndk1::__function::__func<geode::modifier::ModifyBase<geode::modifier::ModifyDerive<MICharacterColorPage, CharacterColorPage> >::setHookPriorityBefore(std::__ndk1::basic_string_view<char, std::__ndk1::char_traits<char> >, geode::Mod*)::{lambda(geode::ModStateEvent*)#1}, std::__ndk1::allocator<geode::modifier::ModifyBase<geode::modifier::ModifyDerive<MICharacterColorPage, CharacterColorPage> >::setHookPriorityBefore(std::__ndk1::basic_string_view<char, std::__ndk1::char_traits<char> >, geode::Mod*)::{lambda(geode::ModStateEvent*)#1}>, void (geode::ModStateEvent*)>::target(std::type_info const&) const
PUBLIC 485e4 0 std::__ndk1::__function::__func<geode::modifier::ModifyBase<geode::modifier::ModifyDerive<MICharacterColorPage, CharacterColorPage> >::setHookPriorityBefore(std::__ndk1::basic_string_view<char, std::__ndk1::char_traits<char> >, geode::Mod*)::{lambda(geode::ModStateEvent*)#1}, std::__ndk1::allocator<geode::modifier::ModifyBase<geode::modifier::ModifyDerive<MICharacterColorPage, CharacterColorPage> >::setHookPriorityBefore(std::__ndk1::basic_string_view<char, std::__ndk1::char_traits<char> >, geode::Mod*)::{lambda(geode::ModStateEvent*)#1}>, void (geode::ModStateEvent*)>::target_type() const
PUBLIC 485f0 0 geode::EventListener<geode::ModStateFilter>::getPool() const
PUBLIC 485f4 0 geode::EventListener<geode::ModStateFilter>::handle(geode::Event*)
PUBLIC 48768 0 geode::EventListener<geode::ModStateFilter>::~EventListener()
PUBLIC 487c4 0 geode::EventListener<geode::ModStateFilter>::~EventListener()
PUBLIC 48828 0 std::__ndk1::__variant_detail::__visitation::__base::__dispatcher<(unsigned long)0>::__dispatch[abi:ne190000]<std::__ndk1::__variant_detail::__dtor<std::__ndk1::__variant_detail::__traits<std::__ndk1::monostate, std::__ndk1::basic_string<char, std::__ndk1::char_traits<char>, std::__ndk1::allocator<char> > >, (std::__ndk1::__variant_detail::_Trait)1>::__destroy[abi:ne190000]()::{lambda(auto:1&)#1}, std::__ndk1::__variant_detail::__base<(std::__ndk1::__variant_detail::__traits<std::__ndk1::monostate, std::__ndk1::basic_string<char, std::__ndk1::char_traits<char>, std::__ndk1::allocator<char> > >)1, std::__ndk1::__variant_detail::__traits, std::__ndk1::allocator<char> >&>(std::__ndk1::__variant_detail::__dtor<std::__ndk1::__variant_detail::__traits<std::__ndk1::monostate, std::__ndk1::basic_string<char, std::__ndk1::char_traits<char>, std::__ndk1::allocator<char> > >, (std::__ndk1::__variant_detail::_Trait)1>, std::__ndk1::__variant_detail::__base<(std::__ndk1::__variant_detail::__traits<std::__ndk1::monostate, std::__ndk1::basic_string<char, std::__ndk1::char_traits<char>, std::__ndk1::allocator<char> > >)1, std::__ndk1::__variant_detail::__traits, std::__ndk1::allocator<char> >&)
PUBLIC 4882c 0 std::__ndk1::__variant_detail::__visitation::__base::__dispatcher<(unsigned long)1>::__dispatch[abi:ne190000]<std::__ndk1::__variant_detail::__dtor<std::__ndk1::__variant_detail::__traits<std::__ndk1::monostate, std::__ndk1::basic_string<char, std::__ndk1::char_traits<char>, std::__ndk1::allocator<char> > >, (std::__ndk1::__variant_detail::_Trait)1>::__destroy[abi:ne190000]()::{lambda(auto:1&)#1}, std::__ndk1::__variant_detail::__base<(std::__ndk1::__variant_detail::__traits<std::__ndk1::monostate, std::__ndk1::basic_string<char, std::__ndk1::char_traits<char>, std::__ndk1::allocator<char> > >)1, std::__ndk1::__variant_detail::__traits, std::__ndk1::allocator<char> >&>(std::__ndk1::__variant_detail::__dtor<std::__ndk1::__variant_detail::__traits<std::__ndk1::monostate, std::__ndk1::basic_string<char, std::__ndk1::char_traits<char>, std::__ndk1::allocator<char> > >, (std::__ndk1::__variant_detail::_Trait)1>, std::__ndk1::__variant_detail::__base<(std::__ndk1::__variant_detail::__traits<std::__ndk1::monostate, std::__ndk1::basic_string<char, std::__ndk1::char_traits<char>, std::__ndk1::allocator<char> > >)1, std::__ndk1::__variant_detail::__traits, std::__ndk1::allocator<char> >&)
PUBLIC 48840 0 geode::modifier::AsStaticFunction_init<MICharacterColorPage, bool (MICharacterColorPage::*)()>::Impl<bool (MICharacterColorPage::*)()>::function(MICharacterColorPage*)
PUBLIC 489a4 0 geode::modifier::AsStaticFunction_toggleShip<MICharacterColorPage, void (MICharacterColorPage::*)(cocos2d::CCObject*)>::Impl<void (MICharacterColorPage::*)(cocos2d::CCObject*)>::function(MICharacterColorPage*, cocos2d::CCObject*)
PUBLIC 48adc 0 geode::addresser::Addresser::addressOfVirtual<bool, CharacterColorPage, >(bool (CharacterColorPage::*)())
PUBLIC 48b84 0 CharacterColorPage::CharacterColorPage(geode::ZeroConstructorType)
PUBLIC 48c08 0 geode::Mod::getSavedValue<bool>(std::__ndk1::basic_string_view<char, std::__ndk1::char_traits<char> >, bool const&)
PUBLIC 48de4 0 std::__ndk1::__variant_detail::__visitation::__base::__dispatcher<(unsigned long)0>::__dispatch[abi:ne190000]<std::__ndk1::__variant_detail::__dtor<std::__ndk1::__variant_detail::__traits<bool, std::__ndk1::basic_string<char, std::__ndk1::char_traits<char>, std::__ndk1::allocator<char> > >, (std::__ndk1::__variant_detail::_Trait)1>::__destroy[abi:ne190000]()::{lambda(auto:1&)#1}, std::__ndk1::__variant_detail::__base<(std::__ndk1::__variant_detail::__traits<bool, std::__ndk1::basic_string<char, std::__ndk1::char_traits<char>, std::__ndk1::allocator<char> > >)1, bool, std::__ndk1::allocator<char> >&>(std::__ndk1::__variant_detail::__dtor<std::__ndk1::__variant_detail::__traits<bool, std::__ndk1::basic_string<char, std::__ndk1::char_traits<char>, std::__ndk1::allocator<char> > >, (std::__ndk1::__variant_detail::_Trait)1>, std::__ndk1::__variant_detail::__base<(std::__ndk1::__variant_detail::__traits<bool, std::__ndk1::basic_string<char, std::__ndk1::char_traits<char>, std::__ndk1::allocator<char> > >)1, bool, std::__ndk1::allocator<char> >&)
PUBLIC 48de8 0 std::__ndk1::__variant_detail::__visitation::__base::__dispatcher<(unsigned long)1>::__dispatch[abi:ne190000]<std::__ndk1::__variant_detail::__dtor<std::__ndk1::__variant_detail::__traits<bool, std::__ndk1::basic_string<char, std::__ndk1::char_traits<char>, std::__ndk1::allocator<char> > >, (std::__ndk1::__variant_detail::_Trait)1>::__destroy[abi:ne190000]()::{lambda(auto:1&)#1}, std::__ndk1::__variant_detail::__base<(std::__ndk1::__variant_detail::__traits<bool, std::__ndk1::basic_string<char, std::__ndk1::char_traits<char>, std::__ndk1::allocator<char> > >)1, bool, std::__ndk1::allocator<char> >&>(std::__ndk1::__variant_detail::__dtor<std::__ndk1::__variant_detail::__traits<bool, std::__ndk1::basic_string<char, std::__ndk1::char_traits<char>, std::__ndk1::allocator<char> > >, (std::__ndk1::__variant_detail::_Trait)1>, std::__ndk1::__variant_detail::__base<(std::__ndk1::__variant_detail::__traits<bool, std::__ndk1::basic_string<char, std::__ndk1::char_traits<char>, std::__ndk1::allocator<char> > >)1, bool, std::__ndk1::allocator<char> >&)
PUBLIC 48dfc 0 __cxx_global_var_init.22
PUBLIC 4926c 0 geode::modifier::ModifyBase<geode::modifier::ModifyDerive<MIGameManager, GameManager> >::~ModifyBase()
PUBLIC 49288 0 geode::modifier::ModifyDerive<MIGameManager, GameManager>::apply()
PUBLIC 49bac 0 geode::modifier::ModifyBase<geode::modifier::ModifyDerive<MIGameManager, GameManager> >::apply()
PUBLIC 49bb0 0 geode::modifier::AsStaticFunction_loadIcon<MIGameManager, cocos2d::CCTexture2D* (MIGameManager::*)(int, int, int)>::Impl<cocos2d::CCTexture2D* (MIGameManager::*)(int, int, int)>::function(MIGameManager*, int, int, int)
PUBLIC 49fd4 0 geode::modifier::AsStaticFunction_reloadAllStep2<MIGameManager, void (MIGameManager::*)()>::Impl<void (MIGameManager::*)()>::function(MIGameManager*)
PUBLIC 4a418 0 geode::modifier::AsStaticFunction_sheetNameForIcon<MIGameManager, gd::string (MIGameManager::*)(int, int)>::Impl<gd::string (MIGameManager::*)(int, int)>::function(MIGameManager*, int, int)
PUBLIC 4a57c 0 geode::cocos::CCDictionaryExt<std::__ndk1::basic_string<char, std::__ndk1::char_traits<char>, std::__ndk1::allocator<char> >, cocos2d::CCDictionary*, cocos2d::CCDictionary>::~CCDictionaryExt()
PUBLIC 4a59c 0 gd::map<int, int>::insert_pair(std::__ndk1::pair<int, int> const&)
PUBLIC 4a73c 0 geode::Mod::getSettingValue<bool>(std::__ndk1::basic_string_view<char, std::__ndk1::char_traits<char> >) const
PUBLIC 4a868 0 std::__ndk1::__hash_table<std::__ndk1::__hash_value_type<std::__ndk1::basic_string<char, std::__ndk1::char_traits<char>, std::__ndk1::allocator<char> >, TexturePack>, std::__ndk1::__unordered_map_hasher<std::__ndk1::basic_string<char, std::__ndk1::char_traits<char>, std::__ndk1::allocator<char> >, std::__ndk1::__hash_value_type<std::__ndk1::basic_string<char, std::__ndk1::char_traits<char>, std::__ndk1::allocator<char> >, TexturePack>, std::__ndk1::hash<std::__ndk1::basic_string<char, std::__ndk1::char_traits<char>, std::__ndk1::allocator<char> > >, std::__ndk1::equal_to<std::__ndk1::basic_string<char, std::__ndk1::char_traits<char>, std::__ndk1::allocator<char> > >, true>, std::__ndk1::__unordered_map_equal<std::__ndk1::basic_string<char, std::__ndk1::char_traits<char>, std::__ndk1::allocator<char> >, std::__ndk1::__hash_value_type<std::__ndk1::basic_string<char, std::__ndk1::char_traits<char>, std::__ndk1::allocator<char> >, TexturePack>, std::__ndk1::equal_to<std::__ndk1::basic_string<char, std::__ndk1::char_traits<char>, std::__ndk1::allocator<char> > >, std::__ndk1::hash<std::__ndk1::basic_string<char, std::__ndk1::char_traits<char>, std::__ndk1::allocator<char> > >, true>, std::__ndk1::allocator<std::__ndk1::__hash_value_type<std::__ndk1::basic_string<char, std::__ndk1::char_traits<char>, std::__ndk1::allocator<char> >, TexturePack> > >::clear()
PUBLIC 4a920 0 __cxx_global_var_init.10
PUBLIC 4ad90 0 geode::modifier::ModifyBase<geode::modifier::ModifyDerive<MIBaseGameLayer, GJBaseGameLayer> >::~ModifyBase()
PUBLIC 4adac 0 geode::modifier::ModifyDerive<MIBaseGameLayer, GJBaseGameLayer>::apply()
PUBLIC 4b12c 0 geode::modifier::ModifyBase<geode::modifier::ModifyDerive<MIBaseGameLayer, GJBaseGameLayer> >::apply()
PUBLIC 4b130 0 geode::modifier::AsStaticFunction_playExitDualEffect<MIBaseGameLayer, void (MIBaseGameLayer::*)(PlayerObject*)>::Impl<void (MIBaseGameLayer::*)(PlayerObject*)>::function(MIBaseGameLayer*, PlayerObject*)
PUBLIC 4b268 0 geode::cocos::findFirstChildRecursive<SimplePlayer>(cocos2d::CCNode*, std::__ndk1::function<bool (SimplePlayer*)>)
PUBLIC 4b468 0 std::__ndk1::__function::__base<bool (SimplePlayer*)>::~__base()
PUBLIC 4b46c 0 std::__ndk1::__function::__func<MIBaseGameLayer::playExitDualEffect(PlayerObject*)::{lambda(SimplePlayer*)#1}, std::__ndk1::allocator<MIBaseGameLayer::playExitDualEffect(PlayerObject*)::{lambda(SimplePlayer*)#1}>, bool (SimplePlayer*)>::~__func()
PUBLIC 4b470 0 std::__ndk1::__function::__func<MIBaseGameLayer::playExitDualEffect(PlayerObject*)::{lambda(SimplePlayer*)#1}, std::__ndk1::allocator<MIBaseGameLayer::playExitDualEffect(PlayerObject*)::{lambda(SimplePlayer*)#1}>, bool (SimplePlayer*)>::__clone() const
PUBLIC 4b494 0 std::__ndk1::__function::__func<MIBaseGameLayer::playExitDualEffect(PlayerObject*)::{lambda(SimplePlayer*)#1}, std::__ndk1::allocator<MIBaseGameLayer::playExitDualEffect(PlayerObject*)::{lambda(SimplePlayer*)#1}>, bool (SimplePlayer*)>::__clone(std::__ndk1::__function::__base<bool (SimplePlayer*)>*) const
PUBLIC 4b4a4 0 std::__ndk1::__function::__func<MIBaseGameLayer::playExitDualEffect(PlayerObject*)::{lambda(SimplePlayer*)#1}, std::__ndk1::allocator<MIBaseGameLayer::playExitDualEffect(PlayerObject*)::{lambda(SimplePlayer*)#1}>, bool (SimplePlayer*)>::destroy()
PUBLIC 4b4a8 0 std::__ndk1::__function::__func<MIBaseGameLayer::playExitDualEffect(PlayerObject*)::{lambda(SimplePlayer*)#1}, std::__ndk1::allocator<MIBaseGameLayer::playExitDualEffect(PlayerObject*)::{lambda(SimplePlayer*)#1}>, bool (SimplePlayer*)>::destroy_deallocate()
PUBLIC 4b4ac 0 std::__ndk1::__function::__func<MIBaseGameLayer::playExitDualEffect(PlayerObject*)::{lambda(SimplePlayer*)#1}, std::__ndk1::allocator<MIBaseGameLayer::playExitDualEffect(PlayerObject*)::{lambda(SimplePlayer*)#1}>, bool (SimplePlayer*)>::operator()(SimplePlayer*&&)
PUBLIC 4b4d4 0 std::__ndk1::__function::__func<MIBaseGameLayer::playExitDualEffect(PlayerObject*)::{lambda(SimplePlayer*)#1}, std::__ndk1::allocator<MIBaseGameLayer::playExitDualEffect(PlayerObject*)::{lambda(SimplePlayer*)#1}>, bool (SimplePlayer*)>::target(std::type_info const&) const
PUBLIC 4b4f0 0 std::__ndk1::__function::__func<MIBaseGameLayer::playExitDualEffect(PlayerObject*)::{lambda(SimplePlayer*)#1}, std::__ndk1::allocator<MIBaseGameLayer::playExitDualEffect(PlayerObject*)::{lambda(SimplePlayer*)#1}>, bool (SimplePlayer*)>::target_type() const
PUBLIC 4b4fc 0 __cxx_global_var_init.22
PUBLIC 4bcf4 0 geode::modifier::ModifyBase<geode::modifier::ModifyDerive<MIGarageLayer, GJGarageLayer> >::~ModifyBase()
PUBLIC 4bd10 0 TrailInfo::~TrailInfo()
PUBLIC 4bd74 0 geode::modifier::ModifyDerive<MIGarageLayer, GJGarageLayer>::apply()
PUBLIC 4ce88 0 geode::modifier::ModifyBase<geode::modifier::ModifyDerive<MIGarageLayer, GJGarageLayer> >::apply()
PUBLIC 4ce8c 0 geode::modifier::ModifyBase<geode::modifier::ModifyDerive<MIGarageLayer, GJGarageLayer> >::setHookPriorityBefore(std::__ndk1::basic_string_view<char, std::__ndk1::char_traits<char> >, std::__ndk1::basic_string_view<char, std::__ndk1::char_traits<char> >)
PUBLIC 4d1e4 0 geode::modifier::ModifyBase<geode::modifier::ModifyDerive<MIGarageLayer, GJGarageLayer> >::getHook(std::__ndk1::basic_string_view<char, std::__ndk1::char_traits<char> >)
PUBLIC 4d3a8 0 geode::modifier::ModifyBase<geode::modifier::ModifyDerive<MIGarageLayer, GJGarageLayer> >::setHookPriorityBefore(std::__ndk1::basic_string_view<char, std::__ndk1::char_traits<char> >, geode::Mod*)::{lambda(geode::ModStateEvent*)#1}::operator()(geode::ModStateEvent*) const
PUBLIC 4d4b8 0 std::__ndk1::basic_string<char, std::__ndk1::char_traits<char>, std::__ndk1::allocator<char> >::__throw_out_of_range[abi:ne190000]() const
PUBLIC 4d4cc 0 std::__ndk1::__throw_out_of_range[abi:ne190000](char const*)
PUBLIC 4d51c 0 std::out_of_range::out_of_range[abi:ne190000](char const*)
PUBLIC 4d54c 0 std::__ndk1::__function::__func<geode::modifier::ModifyBase<geode::modifier::ModifyDerive<MIGarageLayer, GJGarageLayer> >::setHookPriorityBefore(std::__ndk1::basic_string_view<char, std::__ndk1::char_traits<char> >, geode::Mod*)::{lambda(geode::ModStateEvent*)#1}, std::__ndk1::allocator<geode::modifier::ModifyBase<geode::modifier::ModifyDerive<MIGarageLayer, GJGarageLayer> >::setHookPriorityBefore(std::__ndk1::basic_string_view<char, std::__ndk1::char_traits<char> >, geode::Mod*)::{lambda(geode::ModStateEvent*)#1}>, void (geode::ModStateEvent*)>::~__func()
PUBLIC 4d550 0 std::__ndk1::__function::__func<geode::modifier::ModifyBase<geode::modifier::ModifyDerive<MIGarageLayer, GJGarageLayer> >::setHookPriorityBefore(std::__ndk1::basic_string_view<char, std::__ndk1::char_traits<char> >, geode::Mod*)::{lambda(geode::ModStateEvent*)#1}, std::__ndk1::allocator<geode::modifier::ModifyBase<geode::modifier::ModifyDerive<MIGarageLayer, GJGarageLayer> >::setHookPriorityBefore(std::__ndk1::basic_string_view<char, std::__ndk1::char_traits<char> >, geode::Mod*)::{lambda(geode::ModStateEvent*)#1}>, void (geode::ModStateEvent*)>::__clone() const
PUBLIC 4d588 0 std::__ndk1::__function::__func<geode::modifier::ModifyBase<geode::modifier::ModifyDerive<MIGarageLayer, GJGarageLayer> >::setHookPriorityBefore(std::__ndk1::basic_string_view<char, std::__ndk1::char_traits<char> >, geode::Mod*)::{lambda(geode::ModStateEvent*)#1}, std::__ndk1::allocator<geode::modifier::ModifyBase<geode::modifier::ModifyDerive<MIGarageLayer, GJGarageLayer> >::setHookPriorityBefore(std::__ndk1::basic_string_view<char, std::__ndk1::char_traits<char> >, geode::Mod*)::{lambda(geode::ModStateEvent*)#1}>, void (geode::ModStateEvent*)>::__clone(std::__ndk1::__function::__base<void (geode::ModStateEvent*)>*) const
PUBLIC 4d5a0 0 std::__ndk1::__function::__func<geode::modifier::ModifyBase<geode::modifier::ModifyDerive<MIGarageLayer, GJGarageLayer> >::setHookPriorityBefore(std::__ndk1::basic_string_view<char, std::__ndk1::char_traits<char> >, geode::Mod*)::{lambda(geode::ModStateEvent*)#1}, std::__ndk1::allocator<geode::modifier::ModifyBase<geode::modifier::ModifyDerive<MIGarageLayer, GJGarageLayer> >::setHookPriorityBefore(std::__ndk1::basic_string_view<char, std::__ndk1::char_traits<char> >, geode::Mod*)::{lambda(geode::ModStateEvent*)#1}>, void (geode::ModStateEvent*)>::destroy()
PUBLIC 4d5a4 0 std::__ndk1::__function::__func<geode::modifier::ModifyBase<geode::modifier::ModifyDerive<MIGarageLayer, GJGarageLayer> >::setHookPriorityBefore(std::__ndk1::basic_string_view<char, std::__ndk1::char_traits<char> >, geode::Mod*)::{lambda(geode::ModStateEvent*)#1}, std::__ndk1::allocator<geode::modifier::ModifyBase<geode::modifier::ModifyDerive<MIGarageLayer, GJGarageLayer> >::setHookPriorityBefore(std::__ndk1::basic_string_view<char, std::__ndk1::char_traits<char> >, geode::Mod*)::{lambda(geode::ModStateEvent*)#1}>, void (geode::ModStateEvent*)>::destroy_deallocate()
PUBLIC 4d5a8 0 std::__ndk1::__function::__func<geode::modifier::ModifyBase<geode::modifier::ModifyDerive<MIGarageLayer, GJGarageLayer> >::setHookPriorityBefore(std::__ndk1::basic_string_view<char, std::__ndk1::char_traits<char> >, geode::Mod*)::{lambda(geode::ModStateEvent*)#1}, std::__ndk1::allocator<geode::modifier::ModifyBase<geode::modifier::ModifyDerive<MIGarageLayer, GJGarageLayer> >::setHookPriorityBefore(std::__ndk1::basic_string_view<char, std::__ndk1::char_traits<char> >, geode::Mod*)::{lambda(geode::ModStateEvent*)#1}>, void (geode::ModStateEvent*)>::operator()(geode::ModStateEvent*&&)
PUBLIC 4d5b0 0 std::__ndk1::__function::__func<geode::modifier::ModifyBase<geode::modifier::ModifyDerive<MIGarageLayer, GJGarageLayer> >::setHookPriorityBefore(std::__ndk1::basic_string_view<char, std::__ndk1::char_traits<char> >, geode::Mod*)::{lambda(geode::ModStateEvent*)#1}, std::__ndk1::allocator<geode::modifier::ModifyBase<geode::modifier::ModifyDerive<MIGarageLayer, GJGarageLayer> >::setHookPriorityBefore(std::__ndk1::basic_string_view<char, std::__ndk1::char_traits<char> >, geode::Mod*)::{lambda(geode::ModStateEvent*)#1}>, void (geode::ModStateEvent*)>::target(std::type_info const&) const
PUBLIC 4d5cc 0 std::__ndk1::__function::__func<geode::modifier::ModifyBase<geode::modifier::ModifyDerive<MIGarageLayer, GJGarageLayer> >::setHookPriorityBefore(std::__ndk1::basic_string_view<char, std::__ndk1::char_traits<char> >, geode::Mod*)::{lambda(geode::ModStateEvent*)#1}, std::__ndk1::allocator<geode::modifier::ModifyBase<geode::modifier::ModifyDerive<MIGarageLayer, GJGarageLayer> >::setHookPriorityBefore(std::__ndk1::basic_string_view<char, std::__ndk1::char_traits<char> >, geode::Mod*)::{lambda(geode::ModStateEvent*)#1}>, void (geode::ModStateEvent*)>::target_type() const
PUBLIC 4d5d8 0 geode::modifier::ModifyBase<geode::modifier::ModifyDerive<MIGarageLayer, GJGarageLayer> >::setHookPriorityAfter(std::__ndk1::basic_string_view<char, std::__ndk1::char_traits<char> >, geode::Mod*)::{lambda(geode::ModStateEvent*)#1}::operator()(geode::ModStateEvent*) const
PUBLIC 4d6e8 0 std::__ndk1::__function::__func<geode::modifier::ModifyBase<geode::modifier::ModifyDerive<MIGarageLayer, GJGarageLayer> >::setHookPriorityAfter(std::__ndk1::basic_string_view<char, std::__ndk1::char_traits<char> >, geode::Mod*)::{lambda(geode::ModStateEvent*)#1}, std::__ndk1::allocator<geode::modifier::ModifyBase<geode::modifier::ModifyDerive<MIGarageLayer, GJGarageLayer> >::setHookPriorityAfter(std::__ndk1::basic_string_view<char, std::__ndk1::char_traits<char> >, geode::Mod*)::{lambda(geode::ModStateEvent*)#1}>, void (geode::ModStateEvent*)>::~__func()
PUBLIC 4d6ec 0 std::__ndk1::__function::__func<geode::modifier::ModifyBase<geode::modifier::ModifyDerive<MIGarageLayer, GJGarageLayer> >::setHookPriorityAfter(std::__ndk1::basic_string_view<char, std::__ndk1::char_traits<char> >, geode::Mod*)::{lambda(geode::ModStateEvent*)#1}, std::__ndk1::allocator<geode::modifier::ModifyBase<geode::modifier::ModifyDerive<MIGarageLayer, GJGarageLayer> >::setHookPriorityAfter(std::__ndk1::basic_string_view<char, std::__ndk1::char_traits<char> >, geode::Mod*)::{lambda(geode::ModStateEvent*)#1}>, void (geode::ModStateEvent*)>::__clone() const
PUBLIC 4d724 0 std::__ndk1::__function::__func<geode::modifier::ModifyBase<geode::modifier::ModifyDerive<MIGarageLayer, GJGarageLayer> >::setHookPriorityAfter(std::__ndk1::basic_string_view<char, std::__ndk1::char_traits<char> >, geode::Mod*)::{lambda(geode::ModStateEvent*)#1}, std::__ndk1::allocator<geode::modifier::ModifyBase<geode::modifier::ModifyDerive<MIGarageLayer, GJGarageLayer> >::setHookPriorityAfter(std::__ndk1::basic_string_view<char, std::__ndk1::char_traits<char> >, geode::Mod*)::{lambda(geode::ModStateEvent*)#1}>, void (geode::ModStateEvent*)>::__clone(std::__ndk1::__function::__base<void (geode::ModStateEvent*)>*) const
PUBLIC 4d73c 0 std::__ndk1::__function::__func<geode::modifier::ModifyBase<geode::modifier::ModifyDerive<MIGarageLayer, GJGarageLayer> >::setHookPriorityAfter(std::__ndk1::basic_string_view<char, std::__ndk1::char_traits<char> >, geode::Mod*)::{lambda(geode::ModStateEvent*)#1}, std::__ndk1::allocator<geode::modifier::ModifyBase<geode::modifier::ModifyDerive<MIGarageLayer, GJGarageLayer> >::setHookPriorityAfter(std::__ndk1::basic_string_view<char, std::__ndk1::char_traits<char> >, geode::Mod*)::{lambda(geode::ModStateEvent*)#1}>, void (geode::ModStateEvent*)>::destroy()
PUBLIC 4d740 0 std::__ndk1::__function::__func<geode::modifier::ModifyBase<geode::modifier::ModifyDerive<MIGarageLayer, GJGarageLayer> >::setHookPriorityAfter(std::__ndk1::basic_string_view<char, std::__ndk1::char_traits<char> >, geode::Mod*)::{lambda(geode::ModStateEvent*)#1}, std::__ndk1::allocator<geode::modifier::ModifyBase<geode::modifier::ModifyDerive<MIGarageLayer, GJGarageLayer> >::setHookPriorityAfter(std::__ndk1::basic_string_view<char, std::__ndk1::char_traits<char> >, geode::Mod*)::{lambda(geode::ModStateEvent*)#1}>, void (geode::ModStateEvent*)>::destroy_deallocate()
PUBLIC 4d744 0 std::__ndk1::__function::__func<geode::modifier::ModifyBase<geode::modifier::ModifyDerive<MIGarageLayer, GJGarageLayer> >::setHookPriorityAfter(std::__ndk1::basic_string_view<char, std::__ndk1::char_traits<char> >, geode::Mod*)::{lambda(geode::ModStateEvent*)#1}, std::__ndk1::allocator<geode::modifier::ModifyBase<geode::modifier::ModifyDerive<MIGarageLayer, GJGarageLayer> >::setHookPriorityAfter(std::__ndk1::basic_string_view<char, std::__ndk1::char_traits<char> >, geode::Mod*)::{lambda(geode::ModStateEvent*)#1}>, void (geode::ModStateEvent*)>::operator()(geode::ModStateEvent*&&)
PUBLIC 4d74c 0 std::__ndk1::__function::__func<geode::modifier::ModifyBase<geode::modifier::ModifyDerive<MIGarageLayer, GJGarageLayer> >::setHookPriorityAfter(std::__ndk1::basic_string_view<char, std::__ndk1::char_traits<char> >, geode::Mod*)::{lambda(geode::ModStateEvent*)#1}, std::__ndk1::allocator<geode::modifier::ModifyBase<geode::modifier::ModifyDerive<MIGarageLayer, GJGarageLayer> >::setHookPriorityAfter(std::__ndk1::basic_string_view<char, std::__ndk1::char_traits<char> >, geode::Mod*)::{lambda(geode::ModStateEvent*)#1}>, void (geode::ModStateEvent*)>::target(std::type_info const&) const
PUBLIC 4d768 0 std::__ndk1::__function::__func<geode::modifier::ModifyBase<geode::modifier::ModifyDerive<MIGarageLayer, GJGarageLayer> >::setHookPriorityAfter(std::__ndk1::basic_string_view<char, std::__ndk1::char_traits<char> >, geode::Mod*)::{lambda(geode::ModStateEvent*)#1}, std::__ndk1::allocator<geode::modifier::ModifyBase<geode::modifier::ModifyDerive<MIGarageLayer, GJGarageLayer> >::setHookPriorityAfter(std::__ndk1::basic_string_view<char, std::__ndk1::char_traits<char> >, geode::Mod*)::{lambda(geode::ModStateEvent*)#1}>, void (geode::ModStateEvent*)>::target_type() const
PUBLIC 4d774 0 geode::modifier::AsStaticFunction_init<MIGarageLayer, bool (MIGarageLayer::*)()>::Impl<bool (MIGarageLayer::*)()>::function(MIGarageLayer*)
PUBLIC 4dcf4 0 geode::Hook::create<void (*)(MIGarageLayer*, cocos2d::CCObject*)>(void*, void (*)(MIGarageLayer*, cocos2d::CCObject*), std::__ndk1::basic_string<char, std::__ndk1::char_traits<char>, std::__ndk1::allocator<char> > const&, tulip::hook::TulipConvention, tulip::hook::HookMetadata const&)
PUBLIC 4de78 0 geode::modifier::AsStaticFunction_onArrow<MIGarageLayer, void (MIGarageLayer::*)(cocos2d::CCObject*)>::Impl<void (MIGarageLayer::*)(cocos2d::CCObject*)>::function(MIGarageLayer*, cocos2d::CCObject*)
PUBLIC 4e81c 0 geode::modifier::AsStaticFunction_onNavigate<MIGarageLayer, void (MIGarageLayer::*)(cocos2d::CCObject*)>::Impl<void (MIGarageLayer::*)(cocos2d::CCObject*)>::function(MIGarageLayer*, cocos2d::CCObject*)
PUBLIC 4e914 0 geode::modifier::AsStaticFunction_onSelect<MIGarageLayer, void (MIGarageLayer::*)(cocos2d::CCObject*)>::Impl<void (MIGarageLayer::*)(cocos2d::CCObject*)>::function(MIGarageLayer*, cocos2d::CCObject*)
PUBLIC 4e918 0 geode::modifier::AsStaticFunction_selectTab<MIGarageLayer, void (MIGarageLayer::*)(IconType)>::Impl<void (MIGarageLayer::*)(IconType)>::function(MIGarageLayer*, IconType)
PUBLIC 4eaf0 0 geode::modifier::AsStaticFunction_setupPage<MIGarageLayer, void (MIGarageLayer::*)(int, IconType)>::Impl<void (MIGarageLayer::*)(int, IconType)>::function(MIGarageLayer*, int, IconType)
PUBLIC 4eb34 0 geode::modifier::AsStaticFunction_updatePlayerColors<MIGarageLayer, void (MIGarageLayer::*)()>::Impl<void (MIGarageLayer::*)()>::function(MIGarageLayer*)
PUBLIC 4eb9c 0 geode::addresser::Addresser::addressOfVirtual<bool, GJGarageLayer, >(bool (GJGarageLayer::*)())
PUBLIC 4ec44 0 GJGarageLayer::GJGarageLayer(geode::ZeroConstructorType)
PUBLIC 4ecf8 0 gd::map<IconType, int>::insert_pair(std::__ndk1::pair<IconType, int> const&)
PUBLIC 4ee98 0 std::__ndk1::__tree<std::__ndk1::__value_type<IconType, int>, std::__ndk1::__map_value_compare<IconType, std::__ndk1::__value_type<IconType, int>, std::__ndk1::less<IconType>, true>, std::__ndk1::allocator<std::__ndk1::__value_type<IconType, int> > >::destroy(std::__ndk1::__tree_node<std::__ndk1::__value_type<IconType, int>, void*>*)
PUBLIC 4eed4 0 geode::modifier::FieldIntermediate<MIGarageLayer, GJGarageLayer>::self()
PUBLIC 4f070 0 geode::Mod::getSavedValue<int>(std::__ndk1::basic_string_view<char, std::__ndk1::char_traits<char> >, int const&)
PUBLIC 4f24c 0 MIGarageLayer::setupCustomPage(int)
PUBLIC 504a8 0 MIGarageLayer::findIconPage(IconType)
PUBLIC 50754 0 MIGarageLayer::createNavMenu()
PUBLIC 51020 0 MIGarageLayer::newOn2PToggle(cocos2d::CCObject*)
PUBLIC 511d0 0 MIGarageLayer::newSwap2PKit(cocos2d::CCObject*)
PUBLIC 51494 0 MIGarageLayer::onMoreIcons(cocos2d::CCObject*)
PUBLIC 514cc 0 geode::modifier::FieldContainer::getField(unsigned long)
PUBLIC 516fc 0 geode::modifier::FieldContainer::setField(unsigned long, unsigned long, std::__ndk1::function<void (void*)>)
PUBLIC 51810 0 geode::modifier::FieldIntermediate<MIGarageLayer, GJGarageLayer>::fieldDestructor(void*)
PUBLIC 51818 0 std::__ndk1::vector<void*, std::__ndk1::allocator<void*> >::__throw_length_error[abi:ne190000]() const
PUBLIC 5182c 0 std::__ndk1::vector<std::__ndk1::function<void (void*)>, std::__ndk1::allocator<std::__ndk1::function<void (void*)> > >::__push_back_slow_path<std::__ndk1::function<void (void*)> >(std::__ndk1::function<void (void*)>&&)
PUBLIC 51a4c 0 std::__ndk1::vector<std::__ndk1::function<void (void*)>, std::__ndk1::allocator<std::__ndk1::function<void (void*)> > >::__throw_length_error[abi:ne190000]() const
PUBLIC 51a60 0 std::__ndk1::vector<void*, std::__ndk1::allocator<void*> >::__throw_out_of_range[abi:ne190000]() const
PUBLIC 51a74 0 std::__ndk1::vector<std::__ndk1::function<void (void*)>, std::__ndk1::allocator<std::__ndk1::function<void (void*)> > >::__throw_out_of_range[abi:ne190000]() const
PUBLIC 51a88 0 std::__ndk1::__function::__base<void (void*)>::~__base()
PUBLIC 51a8c 0 std::__ndk1::__function::__func<void (*)(void*), std::__ndk1::allocator<void (*)(void*)>, void (void*)>::~__func()
PUBLIC 51a90 0 std::__ndk1::__function::__func<void (*)(void*), std::__ndk1::allocator<void (*)(void*)>, void (void*)>::__clone() const
PUBLIC 51ac8 0 std::__ndk1::__function::__func<void (*)(void*), std::__ndk1::allocator<void (*)(void*)>, void (void*)>::__clone(std::__ndk1::__function::__base<void (void*)>*) const
PUBLIC 51ae0 0 std::__ndk1::__function::__func<void (*)(void*), std::__ndk1::allocator<void (*)(void*)>, void (void*)>::destroy()
PUBLIC 51ae4 0 std::__ndk1::__function::__func<void (*)(void*), std::__ndk1::allocator<void (*)(void*)>, void (void*)>::destroy_deallocate()
PUBLIC 51ae8 0 std::__ndk1::__function::__func<void (*)(void*), std::__ndk1::allocator<void (*)(void*)>, void (void*)>::operator()(void*&&)
PUBLIC 51af8 0 std::__ndk1::__function::__func<void (*)(void*), std::__ndk1::allocator<void (*)(void*)>, void (void*)>::target(std::type_info const&) const
PUBLIC 51b14 0 std::__ndk1::__function::__func<void (*)(void*), std::__ndk1::allocator<void (*)(void*)>, void (void*)>::target_type() const
PUBLIC 51b20 0 matjson::Value::as<int>() const
PUBLIC 51c28 0 std::__ndk1::__variant_detail::__visitation::__base::__dispatcher<(unsigned long)0>::__dispatch[abi:ne190000]<std::__ndk1::__variant_detail::__dtor<std::__ndk1::__variant_detail::__traits<long, std::__ndk1::basic_string<char, std::__ndk1::char_traits<char>, std::__ndk1::allocator<char> > >, (std::__ndk1::__variant_detail::_Trait)1>::__destroy[abi:ne190000]()::{lambda(auto:1&)#1}, std::__ndk1::__variant_detail::__base<(std::__ndk1::__variant_detail::__traits<long, std::__ndk1::basic_string<char, std::__ndk1::char_traits<char>, std::__ndk1::allocator<char> > >)1, long, std::__ndk1::allocator<char> >&>(std::__ndk1::__variant_detail::__dtor<std::__ndk1::__variant_detail::__traits<long, std::__ndk1::basic_string<char, std::__ndk1::char_traits<char>, std::__ndk1::allocator<char> > >, (std::__ndk1::__variant_detail::_Trait)1>, std::__ndk1::__variant_detail::__base<(std::__ndk1::__variant_detail::__traits<long, std::__ndk1::basic_string<char, std::__ndk1::char_traits<char>, std::__ndk1::allocator<char> > >)1, long, std::__ndk1::allocator<char> >&)
PUBLIC 51c2c 0 std::__ndk1::__variant_detail::__visitation::__base::__dispatcher<(unsigned long)1>::__dispatch[abi:ne190000]<std::__ndk1::__variant_detail::__dtor<std::__ndk1::__variant_detail::__traits<long, std::__ndk1::basic_string<char, std::__ndk1::char_traits<char>, std::__ndk1::allocator<char> > >, (std::__ndk1::__variant_detail::_Trait)1>::__destroy[abi:ne190000]()::{lambda(auto:1&)#1}, std::__ndk1::__variant_detail::__base<(std::__ndk1::__variant_detail::__traits<long, std::__ndk1::basic_string<char, std::__ndk1::char_traits<char>, std::__ndk1::allocator<char> > >)1, long, std::__ndk1::allocator<char> >&>(std::__ndk1::__variant_detail::__dtor<std::__ndk1::__variant_detail::__traits<long, std::__ndk1::basic_string<char, std::__ndk1::char_traits<char>, std::__ndk1::allocator<char> > >, (std::__ndk1::__variant_detail::_Trait)1>, std::__ndk1::__variant_detail::__base<(std::__ndk1::__variant_detail::__traits<long, std::__ndk1::basic_string<char, std::__ndk1::char_traits<char>, std::__ndk1::allocator<char> > >)1, long, std::__ndk1::allocator<char> >&)
PUBLIC 51c40 0 std::__ndk1::__variant_detail::__visitation::__base::__dispatcher<(unsigned long)0>::__dispatch[abi:ne190000]<std::__ndk1::__variant_detail::__dtor<std::__ndk1::__variant_detail::__traits<int, std::__ndk1::basic_string<char, std::__ndk1::char_traits<char>, std::__ndk1::allocator<char> > >, (std::__ndk1::__variant_detail::_Trait)1>::__destroy[abi:ne190000]()::{lambda(auto:1&)#1}, std::__ndk1::__variant_detail::__base<(std::__ndk1::__variant_detail::__traits<int, std::__ndk1::basic_string<char, std::__ndk1::char_traits<char>, std::__ndk1::allocator<char> > >)1, int, std::__ndk1::allocator<char> >&>(std::__ndk1::__variant_detail::__dtor<std::__ndk1::__variant_detail::__traits<int, std::__ndk1::basic_string<char, std::__ndk1::char_traits<char>, std::__ndk1::allocator<char> > >, (std::__ndk1::__variant_detail::_Trait)1>, std::__ndk1::__variant_detail::__base<(std::__ndk1::__variant_detail::__traits<int, std::__ndk1::basic_string<char, std::__ndk1::char_traits<char>, std::__ndk1::allocator<char> > >)1, int, std::__ndk1::allocator<char> >&)
PUBLIC 51c44 0 std::__ndk1::__variant_detail::__visitation::__base::__dispatcher<(unsigned long)1>::__dispatch[abi:ne190000]<std::__ndk1::__variant_detail::__dtor<std::__ndk1::__variant_detail::__traits<int, std::__ndk1::basic_string<char, std::__ndk1::char_traits<char>, std::__ndk1::allocator<char> > >, (std::__ndk1::__variant_detail::_Trait)1>::__destroy[abi:ne190000]()::{lambda(auto:1&)#1}, std::__ndk1::__variant_detail::__base<(std::__ndk1::__variant_detail::__traits<int, std::__ndk1::basic_string<char, std::__ndk1::char_traits<char>, std::__ndk1::allocator<char> > >)1, int, std::__ndk1::allocator<char> >&>(std::__ndk1::__variant_detail::__dtor<std::__ndk1::__variant_detail::__traits<int, std::__ndk1::basic_string<char, std::__ndk1::char_traits<char>, std::__ndk1::allocator<char> > >, (std::__ndk1::__variant_detail::_Trait)1>, std::__ndk1::__variant_detail::__base<(std::__ndk1::__variant_detail::__traits<int, std::__ndk1::basic_string<char, std::__ndk1::char_traits<char>, std::__ndk1::allocator<char> > >)1, int, std::__ndk1::allocator<char> >&)
PUBLIC 51c58 0 geode::cocos::CCArrayExt<CCMenuItemSpriteExtra*, CCMenuItemSpriteExtra>::~CCArrayExt()
PUBLIC 51c74 0 MIGarageLayer::getPage()
PUBLIC 51f34 0 std::__ndk1::__hash_table<std::__ndk1::__hash_value_type<std::__ndk1::basic_string<char, std::__ndk1::char_traits<char>, std::__ndk1::allocator<char> >, TrailInfo>, std::__ndk1::__unordered_map_hasher<std::__ndk1::basic_string<char, std::__ndk1::char_traits<char>, std::__ndk1::allocator<char> >, std::__ndk1::__hash_value_type<std::__ndk1::basic_string<char, std::__ndk1::char_traits<char>, std::__ndk1::allocator<char> >, TrailInfo>, std::__ndk1::hash<std::__ndk1::basic_string<char, std::__ndk1::char_traits<char>, std::__ndk1::allocator<char> > >, std::__ndk1::equal_to<std::__ndk1::basic_string<char, std::__ndk1::char_traits<char>, std::__ndk1::allocator<char> > >, true>, std::__ndk1::__unordered_map_equal<std::__ndk1::basic_string<char, std::__ndk1::char_traits<char>, std::__ndk1::allocator<char> >, std::__ndk1::__hash_value_type<std::__ndk1::basic_string<char, std::__ndk1::char_traits<char>, std::__ndk1::allocator<char> >, TrailInfo>, std::__ndk1::equal_to<std::__ndk1::basic_string<char, std::__ndk1::char_traits<char>, std::__ndk1::allocator<char> > >, std::__ndk1::hash<std::__ndk1::basic_string<char, std::__ndk1::char_traits<char>, std::__ndk1::allocator<char> > >, true>, std::__ndk1::allocator<std::__ndk1::__hash_value_type<std::__ndk1::basic_string<char, std::__ndk1::char_traits<char>, std::__ndk1::allocator<char> >, TrailInfo> > >::__emplace_unique_key_args<std::__ndk1::basic_string<char, std::__ndk1::char_traits<char>, std::__ndk1::allocator<char> >, std::__ndk1::piecewise_construct_t const&, std::__ndk1::tuple<std::__ndk1::basic_string<char, std::__ndk1::char_traits<char>, std::__ndk1::allocator<char> > const&>, std::__ndk1::tuple<> >(std::__ndk1::basic_string<char, std::__ndk1::char_traits<char>, std::__ndk1::allocator<char> > const&, std::__ndk1::piecewise_construct_t const&, std::__ndk1::tuple<std::__ndk1::basic_string<char, std::__ndk1::char_traits<char>, std::__ndk1::allocator<char> > const&>, std::__ndk1::tuple<>)
PUBLIC 52428 0 std::__ndk1::__hash_table<std::__ndk1::__hash_value_type<std::__ndk1::basic_string<char, std::__ndk1::char_traits<char>, std::__ndk1::allocator<char> >, TrailInfo>, std::__ndk1::__unordered_map_hasher<std::__ndk1::basic_string<char, std::__ndk1::char_traits<char>, std::__ndk1::allocator<char> >, std::__ndk1::__hash_value_type<std::__ndk1::basic_string<char, std::__ndk1::char_traits<char>, std::__ndk1::allocator<char> >, TrailInfo>, std::__ndk1::hash<std::__ndk1::basic_string<char, std::__ndk1::char_traits<char>, std::__ndk1::allocator<char> > >, std::__ndk1::equal_to<std::__ndk1::basic_string<char, std::__ndk1::char_traits<char>, std::__ndk1::allocator<char> > >, true>, std::__ndk1::__unordered_map_equal<std::__ndk1::basic_string<char, std::__ndk1::char_traits<char>, std::__ndk1::allocator<char> >, std::__ndk1::__hash_value_type<std::__ndk1::basic_string<char, std::__ndk1::char_traits<char>, std::__ndk1::allocator<char> >, TrailInfo>, std::__ndk1::equal_to<std::__ndk1::basic_string<char, std::__ndk1::char_traits<char>, std::__ndk1::allocator<char> > >, std::__ndk1::hash<std::__ndk1::basic_string<char, std::__ndk1::char_traits<char>, std::__ndk1::allocator<char> > >, true>, std::__ndk1::allocator<std::__ndk1::__hash_value_type<std::__ndk1::basic_string<char, std::__ndk1::char_traits<char>, std::__ndk1::allocator<char> >, TrailInfo> > >::__do_rehash<true>(unsigned long)
PUBLIC 525d4 0 std::__ndk1::__hash_node_destructor<std::__ndk1::allocator<std::__ndk1::__hash_node<std::__ndk1::__hash_value_type<std::__ndk1::basic_string<char, std::__ndk1::char_traits<char>, std::__ndk1::allocator<char> >, TrailInfo>, void*> > >::operator()[abi:ne190000](std::__ndk1::__hash_node<std::__ndk1::__hash_value_type<std::__ndk1::basic_string<char, std::__ndk1::char_traits<char>, std::__ndk1::allocator<char> >, TrailInfo>, void*>*)
PUBLIC 52674 0 std::__ndk1::__exception_guard_exceptions<std::__ndk1::vector<std::__ndk1::basic_string<char, std::__ndk1::char_traits<char>, std::__ndk1::allocator<char> >, std::__ndk1::allocator<std::__ndk1::basic_string<char, std::__ndk1::char_traits<char>, std::__ndk1::allocator<char> > > >::__destroy_vector>::~__exception_guard_exceptions[abi:ne190000]()
PUBLIC 52700 0 MIGarageLayer::onCustomNavigate(cocos2d::CCObject*)
PUBLIC 52734 0 MIGarageLayer::swapDual(IconType)
PUBLIC 52864 0 MIGarageLayer::onSelect(cocos2d::CCObject*)
PUBLIC 54714 0 TrailInfo::TrailInfo(TrailInfo const&)
PUBLIC 54820 0 geode::cocos::CCMenuItemExt::createTogglerWithStandardSprites(float, std::__ndk1::function<void (CCMenuItemToggler*)>)
PUBLIC 54cf0 0 geode::cocos::CCMenuItemExt::LambdaCallback<CCMenuItemToggler>::execute(cocos2d::CCNode*)
PUBLIC 54d60 0 geode::cocos::CCMenuItemExt::LambdaCallback<CCMenuItemToggler>::~LambdaCallback()
PUBLIC 54dbc 0 geode::cocos::CCMenuItemExt::LambdaCallback<CCMenuItemToggler>::~LambdaCallback()
PUBLIC 54e20 0 std::__ndk1::__function::__func<MIGarageLayer::onCustomSpecialSelect(CCMenuItemSpriteExtra*)::{lambda(CCMenuItemToggler*)#1}, std::__ndk1::allocator<MIGarageLayer::onCustomSpecialSelect(CCMenuItemSpriteExtra*)::{lambda(CCMenuItemToggler*)#1}>, void (CCMenuItemToggler*)>::~__func()
PUBLIC 54e40 0 std::__ndk1::__function::__func<MIGarageLayer::onCustomSpecialSelect(CCMenuItemSpriteExtra*)::{lambda(CCMenuItemToggler*)#1}, std::__ndk1::allocator<MIGarageLayer::onCustomSpecialSelect(CCMenuItemSpriteExtra*)::{lambda(CCMenuItemToggler*)#1}>, void (CCMenuItemToggler*)>::~__func()
PUBLIC 54e80 0 std::__ndk1::__function::__func<MIGarageLayer::onCustomSpecialSelect(CCMenuItemSpriteExtra*)::{lambda(CCMenuItemToggler*)#1}, std::__ndk1::allocator<MIGarageLayer::onCustomSpecialSelect(CCMenuItemSpriteExtra*)::{lambda(CCMenuItemToggler*)#1}>, void (CCMenuItemToggler*)>::__clone() const
PUBLIC 54f00 0 std::__ndk1::__function::__func<MIGarageLayer::onCustomSpecialSelect(CCMenuItemSpriteExtra*)::{lambda(CCMenuItemToggler*)#1}, std::__ndk1::allocator<MIGarageLayer::onCustomSpecialSelect(CCMenuItemSpriteExtra*)::{lambda(CCMenuItemToggler*)#1}>, void (CCMenuItemToggler*)>::__clone(std::__ndk1::__function::__base<void (CCMenuItemToggler*)>*) const
PUBLIC 54f3c 0 std::__ndk1::__function::__func<MIGarageLayer::onCustomSpecialSelect(CCMenuItemSpriteExtra*)::{lambda(CCMenuItemToggler*)#1}, std::__ndk1::allocator<MIGarageLayer::onCustomSpecialSelect(CCMenuItemSpriteExtra*)::{lambda(CCMenuItemToggler*)#1}>, void (CCMenuItemToggler*)>::destroy()
PUBLIC 54f50 0 std::__ndk1::__function::__func<MIGarageLayer::onCustomSpecialSelect(CCMenuItemSpriteExtra*)::{lambda(CCMenuItemToggler*)#1}, std::__ndk1::allocator<MIGarageLayer::onCustomSpecialSelect(CCMenuItemSpriteExtra*)::{lambda(CCMenuItemToggler*)#1}>, void (CCMenuItemToggler*)>::destroy_deallocate()
PUBLIC 54f84 0 std::__ndk1::__function::__func<MIGarageLayer::onCustomSpecialSelect(CCMenuItemSpriteExtra*)::{lambda(CCMenuItemToggler*)#1}, std::__ndk1::allocator<MIGarageLayer::onCustomSpecialSelect(CCMenuItemSpriteExtra*)::{lambda(CCMenuItemToggler*)#1}>, void (CCMenuItemToggler*)>::operator()(CCMenuItemToggler*&&)
PUBLIC 55010 0 std::__ndk1::__function::__func<MIGarageLayer::onCustomSpecialSelect(CCMenuItemSpriteExtra*)::{lambda(CCMenuItemToggler*)#1}, std::__ndk1::allocator<MIGarageLayer::onCustomSpecialSelect(CCMenuItemSpriteExtra*)::{lambda(CCMenuItemToggler*)#1}>, void (CCMenuItemToggler*)>::target(std::type_info const&) const
PUBLIC 5502c 0 std::__ndk1::__function::__func<MIGarageLayer::onCustomSpecialSelect(CCMenuItemSpriteExtra*)::{lambda(CCMenuItemToggler*)#1}, std::__ndk1::allocator<MIGarageLayer::onCustomSpecialSelect(CCMenuItemSpriteExtra*)::{lambda(CCMenuItemToggler*)#1}>, void (CCMenuItemToggler*)>::target_type() const
PUBLIC 55038 0 std::__ndk1::__function::__func<MIGarageLayer::onCustomSpecialSelect(CCMenuItemSpriteExtra*)::{lambda(CCMenuItemToggler*)#2}, std::__ndk1::allocator<MIGarageLayer::onCustomSpecialSelect(CCMenuItemSpriteExtra*)::{lambda(CCMenuItemToggler*)#2}>, void (CCMenuItemToggler*)>::~__func()
PUBLIC 55058 0 std::__ndk1::__function::__func<MIGarageLayer::onCustomSpecialSelect(CCMenuItemSpriteExtra*)::{lambda(CCMenuItemToggler*)#2}, std::__ndk1::allocator<MIGarageLayer::onCustomSpecialSelect(CCMenuItemSpriteExtra*)::{lambda(CCMenuItemToggler*)#2}>, void (CCMenuItemToggler*)>::~__func()
PUBLIC 55098 0 std::__ndk1::__function::__func<MIGarageLayer::onCustomSpecialSelect(CCMenuItemSpriteExtra*)::{lambda(CCMenuItemToggler*)#2}, std::__ndk1::allocator<MIGarageLayer::onCustomSpecialSelect(CCMenuItemSpriteExtra*)::{lambda(CCMenuItemToggler*)#2}>, void (CCMenuItemToggler*)>::__clone() const
PUBLIC 55118 0 std::__ndk1::__function::__func<MIGarageLayer::onCustomSpecialSelect(CCMenuItemSpriteExtra*)::{lambda(CCMenuItemToggler*)#2}, std::__ndk1::allocator<MIGarageLayer::onCustomSpecialSelect(CCMenuItemSpriteExtra*)::{lambda(CCMenuItemToggler*)#2}>, void (CCMenuItemToggler*)>::__clone(std::__ndk1::__function::__base<void (CCMenuItemToggler*)>*) const
PUBLIC 55154 0 std::__ndk1::__function::__func<MIGarageLayer::onCustomSpecialSelect(CCMenuItemSpriteExtra*)::{lambda(CCMenuItemToggler*)#2}, std::__ndk1::allocator<MIGarageLayer::onCustomSpecialSelect(CCMenuItemSpriteExtra*)::{lambda(CCMenuItemToggler*)#2}>, void (CCMenuItemToggler*)>::destroy()
PUBLIC 55168 0 std::__ndk1::__function::__func<MIGarageLayer::onCustomSpecialSelect(CCMenuItemSpriteExtra*)::{lambda(CCMenuItemToggler*)#2}, std::__ndk1::allocator<MIGarageLayer::onCustomSpecialSelect(CCMenuItemSpriteExtra*)::{lambda(CCMenuItemToggler*)#2}>, void (CCMenuItemToggler*)>::destroy_deallocate()
PUBLIC 5519c 0 std::__ndk1::__function::__func<MIGarageLayer::onCustomSpecialSelect(CCMenuItemSpriteExtra*)::{lambda(CCMenuItemToggler*)#2}, std::__ndk1::allocator<MIGarageLayer::onCustomSpecialSelect(CCMenuItemSpriteExtra*)::{lambda(CCMenuItemToggler*)#2}>, void (CCMenuItemToggler*)>::operator()(CCMenuItemToggler*&&)
PUBLIC 55228 0 std::__ndk1::__function::__func<MIGarageLayer::onCustomSpecialSelect(CCMenuItemSpriteExtra*)::{lambda(CCMenuItemToggler*)#2}, std::__ndk1::allocator<MIGarageLayer::onCustomSpecialSelect(CCMenuItemSpriteExtra*)::{lambda(CCMenuItemToggler*)#2}>, void (CCMenuItemToggler*)>::target(std::type_info const&) const
PUBLIC 55244 0 std::__ndk1::__function::__func<MIGarageLayer::onCustomSpecialSelect(CCMenuItemSpriteExtra*)::{lambda(CCMenuItemToggler*)#2}, std::__ndk1::allocator<MIGarageLayer::onCustomSpecialSelect(CCMenuItemSpriteExtra*)::{lambda(CCMenuItemToggler*)#2}>, void (CCMenuItemToggler*)>::target_type() const
PUBLIC 55250 0 geode::Mod::getSavedValue<int>(std::__ndk1::basic_string_view<char, std::__ndk1::char_traits<char> >)
PUBLIC 553c0 0 std::__ndk1::__hash_table<std::__ndk1::__hash_value_type<std::__ndk1::basic_string<char, std::__ndk1::char_traits<char>, std::__ndk1::allocator<char> >, TexturePack>, std::__ndk1::__unordered_map_hasher<std::__ndk1::basic_string<char, std::__ndk1::char_traits<char>, std::__ndk1::allocator<char> >, std::__ndk1::__hash_value_type<std::__ndk1::basic_string<char, std::__ndk1::char_traits<char>, std::__ndk1::allocator<char> >, TexturePack>, std::__ndk1::hash<std::__ndk1::basic_string<char, std::__ndk1::char_traits<char>, std::__ndk1::allocator<char> > >, std::__ndk1::equal_to<std::__ndk1::basic_string<char, std::__ndk1::char_traits<char>, std::__ndk1::allocator<char> > >, true>, std::__ndk1::__unordered_map_equal<std::__ndk1::basic_string<char, std::__ndk1::char_traits<char>, std::__ndk1::allocator<char> >, std::__ndk1::__hash_value_type<std::__ndk1::basic_string<char, std::__ndk1::char_traits<char>, std::__ndk1::allocator<char> >, TexturePack>, std::__ndk1::equal_to<std::__ndk1::basic_string<char, std::__ndk1::char_traits<char>, std::__ndk1::allocator<char> > >, std::__ndk1::hash<std::__ndk1::basic_string<char, std::__ndk1::char_traits<char>, std::__ndk1::allocator<char> > >, true>, std::__ndk1::allocator<std::__ndk1::__hash_value_type<std::__ndk1::basic_string<char, std::__ndk1::char_traits<char>, std::__ndk1::allocator<char> >, TexturePack> > >::__emplace_unique_key_args<std::__ndk1::basic_string<char, std::__ndk1::char_traits<char>, std::__ndk1::allocator<char> >, std::__ndk1::piecewise_construct_t const&, std::__ndk1::tuple<std::__ndk1::basic_string<char, std::__ndk1::char_traits<char>, std::__ndk1::allocator<char> > const&>, std::__ndk1::tuple<> >(std::__ndk1::basic_string<char, std::__ndk1::char_traits<char>, std::__ndk1::allocator<char> > const&, std::__ndk1::piecewise_construct_t const&, std::__ndk1::tuple<std::__ndk1::basic_string<char, std::__ndk1::char_traits<char>, std::__ndk1::allocator<char> > const&>, std::__ndk1::tuple<>)
PUBLIC 5588c 0 std::__ndk1::unique_ptr<std::__ndk1::__hash_node<std::__ndk1::__hash_value_type<std::__ndk1::basic_string<char, std::__ndk1::char_traits<char>, std::__ndk1::allocator<char> >, TexturePack>, void*>, std::__ndk1::__hash_node_destructor<std::__ndk1::allocator<std::__ndk1::__hash_node<std::__ndk1::__hash_value_type<std::__ndk1::basic_string<char, std::__ndk1::char_traits<char>, std::__ndk1::allocator<char> >, TexturePack>, void*> > > >::~unique_ptr[abi:ne190000]()
PUBLIC 5590c 0 std::__ndk1::__hash_table<std::__ndk1::__hash_value_type<std::__ndk1::basic_string<char, std::__ndk1::char_traits<char>, std::__ndk1::allocator<char> >, TexturePack>, std::__ndk1::__unordered_map_hasher<std::__ndk1::basic_string<char, std::__ndk1::char_traits<char>, std::__ndk1::allocator<char> >, std::__ndk1::__hash_value_type<std::__ndk1::basic_string<char, std::__ndk1::char_traits<char>, std::__ndk1::allocator<char> >, TexturePack>, std::__ndk1::hash<std::__ndk1::basic_string<char, std::__ndk1::char_traits<char>, std::__ndk1::allocator<char> > >, std::__ndk1::equal_to<std::__ndk1::basic_string<char, std::__ndk1::char_traits<char>, std::__ndk1::allocator<char> > >, true>, std::__ndk1::__unordered_map_equal<std::__ndk1::basic_string<char, std::__ndk1::char_traits<char>, std::__ndk1::allocator<char> >, std::__ndk1::__hash_value_type<std::__ndk1::basic_string<char, std::__ndk1::char_traits<char>, std::__ndk1::allocator<char> >, TexturePack>, std::__ndk1::equal_to<std::__ndk1::basic_string<char, std::__ndk1::char_traits<char>, std::__ndk1::allocator<char> > >, std::__ndk1::hash<std::__ndk1::basic_string<char, std::__ndk1::char_traits<char>, std::__ndk1::allocator<char> > >, true>, std::__ndk1::allocator<std::__ndk1::__hash_value_type<std::__ndk1::basic_string<char, std::__ndk1::char_traits<char>, std::__ndk1::allocator<char> >, TexturePack> > >::__do_rehash<true>(unsigned long)
PUBLIC 55ab8 0 __cxx_global_var_init
PUBLIC 55f28 0 geode::modifier::ModifyBase<geode::modifier::ModifyDerive<MIRobotSprite, GJRobotSprite> >::~ModifyBase()
PUBLIC 55f44 0 geode::modifier::ModifyDerive<MIRobotSprite, GJRobotSprite>::apply()
PUBLIC 562b8 0 geode::modifier::ModifyBase<geode::modifier::ModifyDerive<MIRobotSprite, GJRobotSprite> >::apply()
PUBLIC 562bc 0 geode::modifier::AsStaticFunction_updateFrame<MIRobotSprite, void (MIRobotSprite::*)(int)>::Impl<void (MIRobotSprite::*)(int)>::function(MIRobotSprite*, int)
PUBLIC 56384 0 __cxx_global_var_init.22
PUBLIC 56c28 0 geode::modifier::ModifyBase<geode::modifier::ModifyDerive<MILoadingLayer, LoadingLayer> >::~ModifyBase()
PUBLIC 56c44 0 geode::modifier::ModifyDerive<MILoadingLayer, LoadingLayer>::apply()
PUBLIC 56f68 0 geode::modifier::ModifyBase<geode::modifier::ModifyDerive<MILoadingLayer, LoadingLayer> >::apply()
PUBLIC 56f6c 0 geode::modifier::ModifyBase<geode::modifier::ModifyDerive<MILoadingLayer, LoadingLayer> >::setHookPriorityAfter(std::__ndk1::basic_string_view<char, std::__ndk1::char_traits<char> >, geode::Mod*)::{lambda(geode::ModStateEvent*)#1}::operator()(geode::ModStateEvent*) const
PUBLIC 5707c 0 std::__ndk1::__function::__func<geode::modifier::ModifyBase<geode::modifier::ModifyDerive<MILoadingLayer, LoadingLayer> >::setHookPriorityAfter(std::__ndk1::basic_string_view<char, std::__ndk1::char_traits<char> >, geode::Mod*)::{lambda(geode::ModStateEvent*)#1}, std::__ndk1::allocator<geode::modifier::ModifyBase<geode::modifier::ModifyDerive<MILoadingLayer, LoadingLayer> >::setHookPriorityAfter(std::__ndk1::basic_string_view<char, std::__ndk1::char_traits<char> >, geode::Mod*)::{lambda(geode::ModStateEvent*)#1}>, void (geode::ModStateEvent*)>::~__func()
PUBLIC 57080 0 std::__ndk1::__function::__func<geode::modifier::ModifyBase<geode::modifier::ModifyDerive<MILoadingLayer, LoadingLayer> >::setHookPriorityAfter(std::__ndk1::basic_string_view<char, std::__ndk1::char_traits<char> >, geode::Mod*)::{lambda(geode::ModStateEvent*)#1}, std::__ndk1::allocator<geode::modifier::ModifyBase<geode::modifier::ModifyDerive<MILoadingLayer, LoadingLayer> >::setHookPriorityAfter(std::__ndk1::basic_string_view<char, std::__ndk1::char_traits<char> >, geode::Mod*)::{lambda(geode::ModStateEvent*)#1}>, void (geode::ModStateEvent*)>::__clone() const
PUBLIC 570b8 0 std::__ndk1::__function::__func<geode::modifier::ModifyBase<geode::modifier::ModifyDerive<MILoadingLayer, LoadingLayer> >::setHookPriorityAfter(std::__ndk1::basic_string_view<char, std::__ndk1::char_traits<char> >, geode::Mod*)::{lambda(geode::ModStateEvent*)#1}, std::__ndk1::allocator<geode::modifier::ModifyBase<geode::modifier::ModifyDerive<MILoadingLayer, LoadingLayer> >::setHookPriorityAfter(std::__ndk1::basic_string_view<char, std::__ndk1::char_traits<char> >, geode::Mod*)::{lambda(geode::ModStateEvent*)#1}>, void (geode::ModStateEvent*)>::__clone(std::__ndk1::__function::__base<void (geode::ModStateEvent*)>*) const
PUBLIC 570d0 0 std::__ndk1::__function::__func<geode::modifier::ModifyBase<geode::modifier::ModifyDerive<MILoadingLayer, LoadingLayer> >::setHookPriorityAfter(std::__ndk1::basic_string_view<char, std::__ndk1::char_traits<char> >, geode::Mod*)::{lambda(geode::ModStateEvent*)#1}, std::__ndk1::allocator<geode::modifier::ModifyBase<geode::modifier::ModifyDerive<MILoadingLayer, LoadingLayer> >::setHookPriorityAfter(std::__ndk1::basic_string_view<char, std::__ndk1::char_traits<char> >, geode::Mod*)::{lambda(geode::ModStateEvent*)#1}>, void (geode::ModStateEvent*)>::destroy()
PUBLIC 570d4 0 std::__ndk1::__function::__func<geode::modifier::ModifyBase<geode::modifier::ModifyDerive<MILoadingLayer, LoadingLayer> >::setHookPriorityAfter(std::__ndk1::basic_string_view<char, std::__ndk1::char_traits<char> >, geode::Mod*)::{lambda(geode::ModStateEvent*)#1}, std::__ndk1::allocator<geode::modifier::ModifyBase<geode::modifier::ModifyDerive<MILoadingLayer, LoadingLayer> >::setHookPriorityAfter(std::__ndk1::basic_string_view<char, std::__ndk1::char_traits<char> >, geode::Mod*)::{lambda(geode::ModStateEvent*)#1}>, void (geode::ModStateEvent*)>::destroy_deallocate()
PUBLIC 570d8 0 std::__ndk1::__function::__func<geode::modifier::ModifyBase<geode::modifier::ModifyDerive<MILoadingLayer, LoadingLayer> >::setHookPriorityAfter(std::__ndk1::basic_string_view<char, std::__ndk1::char_traits<char> >, geode::Mod*)::{lambda(geode::ModStateEvent*)#1}, std::__ndk1::allocator<geode::modifier::ModifyBase<geode::modifier::ModifyDerive<MILoadingLayer, LoadingLayer> >::setHookPriorityAfter(std::__ndk1::basic_string_view<char, std::__ndk1::char_traits<char> >, geode::Mod*)::{lambda(geode::ModStateEvent*)#1}>, void (geode::ModStateEvent*)>::operator()(geode::ModStateEvent*&&)
PUBLIC 570e0 0 std::__ndk1::__function::__func<geode::modifier::ModifyBase<geode::modifier::ModifyDerive<MILoadingLayer, LoadingLayer> >::setHookPriorityAfter(std::__ndk1::basic_string_view<char, std::__ndk1::char_traits<char> >, geode::Mod*)::{lambda(geode::ModStateEvent*)#1}, std::__ndk1::allocator<geode::modifier::ModifyBase<geode::modifier::ModifyDerive<MILoadingLayer, LoadingLayer> >::setHookPriorityAfter(std::__ndk1::basic_string_view<char, std::__ndk1::char_traits<char> >, geode::Mod*)::{lambda(geode::ModStateEvent*)#1}>, void (geode::ModStateEvent*)>::target(std::type_info const&) const
PUBLIC 570fc 0 std::__ndk1::__function::__func<geode::modifier::ModifyBase<geode::modifier::ModifyDerive<MILoadingLayer, LoadingLayer> >::setHookPriorityAfter(std::__ndk1::basic_string_view<char, std::__ndk1::char_traits<char> >, geode::Mod*)::{lambda(geode::ModStateEvent*)#1}, std::__ndk1::allocator<geode::modifier::ModifyBase<geode::modifier::ModifyDerive<MILoadingLayer, LoadingLayer> >::setHookPriorityAfter(std::__ndk1::basic_string_view<char, std::__ndk1::char_traits<char> >, geode::Mod*)::{lambda(geode::ModStateEvent*)#1}>, void (geode::ModStateEvent*)>::target_type() const
PUBLIC 57108 0 geode::modifier::AsStaticFunction_loadAssets<MILoadingLayer, void (MILoadingLayer::*)()>::Impl<void (MILoadingLayer::*)()>::function(MILoadingLayer*)
PUBLIC 5710c 0 MILoadingLayer::loadAssets()
PUBLIC 57554 0 geode::modifier::FieldIntermediate<MILoadingLayer, LoadingLayer>::self()
PUBLIC 576e4 0 geode::modifier::FieldIntermediate<MILoadingLayer, LoadingLayer>::fieldDestructor(void*)
PUBLIC 577a8 0 std::__ndk1::__function::__base<void ()>::~__base()
PUBLIC 577ac 0 std::__ndk1::__function::__func<MILoadingLayer::loadAssets()::{lambda()#1}, std::__ndk1::allocator<MILoadingLayer::loadAssets()::{lambda()#1}>, void ()>::~__func()
PUBLIC 577b0 0 std::__ndk1::__function::__func<MILoadingLayer::loadAssets()::{lambda()#1}, std::__ndk1::allocator<MILoadingLayer::loadAssets()::{lambda()#1}>, void ()>::__clone() const
PUBLIC 577e4 0 std::__ndk1::__function::__func<MILoadingLayer::loadAssets()::{lambda()#1}, std::__ndk1::allocator<MILoadingLayer::loadAssets()::{lambda()#1}>, void ()>::__clone(std::__ndk1::__function::__base<void ()>*) const
PUBLIC 577f8 0 std::__ndk1::__function::__func<MILoadingLayer::loadAssets()::{lambda()#1}, std::__ndk1::allocator<MILoadingLayer::loadAssets()::{lambda()#1}>, void ()>::destroy()
PUBLIC 577fc 0 std::__ndk1::__function::__func<MILoadingLayer::loadAssets()::{lambda()#1}, std::__ndk1::allocator<MILoadingLayer::loadAssets()::{lambda()#1}>, void ()>::destroy_deallocate()
PUBLIC 57800 0 std::__ndk1::__function::__func<MILoadingLayer::loadAssets()::{lambda()#1}, std::__ndk1::allocator<MILoadingLayer::loadAssets()::{lambda()#1}>, void ()>::operator()()
PUBLIC 57808 0 std::__ndk1::__function::__func<MILoadingLayer::loadAssets()::{lambda()#1}, std::__ndk1::allocator<MILoadingLayer::loadAssets()::{lambda()#1}>, void ()>::target(std::type_info const&) const
PUBLIC 57824 0 std::__ndk1::__function::__func<MILoadingLayer::loadAssets()::{lambda()#1}, std::__ndk1::allocator<MILoadingLayer::loadAssets()::{lambda()#1}>, void ()>::target_type() const
PUBLIC 57830 0 __cxx_global_var_init.10
PUBLIC 57ca0 0 geode::modifier::ModifyBase<geode::modifier::ModifyDerive<MIMenuGameLayer, MenuGameLayer> >::~ModifyBase()
PUBLIC 57cbc 0 geode::modifier::ModifyDerive<MIMenuGameLayer, MenuGameLayer>::apply()
PUBLIC 57fe8 0 geode::modifier::ModifyBase<geode::modifier::ModifyDerive<MIMenuGameLayer, MenuGameLayer> >::apply()
PUBLIC 57fec 0 geode::modifier::AsStaticFunction_resetPlayer<MIMenuGameLayer, void (MIMenuGameLayer::*)()>::Impl<void (MIMenuGameLayer::*)()>::function(MIMenuGameLayer*)
PUBLIC 58294 0 __cxx_global_var_init.10
PUBLIC 58b3c 0 geode::modifier::ModifyBase<geode::modifier::ModifyDerive<MIMenuLayer, MenuLayer> >::~ModifyBase()
PUBLIC 58b58 0 geode::modifier::ModifyDerive<MIMenuLayer, MenuLayer>::apply()
PUBLIC 58e4c 0 geode::modifier::ModifyBase<geode::modifier::ModifyDerive<MIMenuLayer, MenuLayer> >::apply()
PUBLIC 58e50 0 MIMenuLayer::onModify(geode::modifier::ModifyBase<geode::modifier::ModifyDerive<MIMenuLayer, MenuLayer> >&)::{lambda(geode::ModStateEvent*)#1}::operator()(geode::ModStateEvent*) const
PUBLIC 5913c 0 geode::impl::ResultData<void, std::__ndk1::basic_string<char, std::__ndk1::char_traits<char>, std::__ndk1::allocator<char> > >::~ResultData()
PUBLIC 591b0 0 std::__ndk1::__function::__func<MIMenuLayer::onModify(geode::modifier::ModifyBase<geode::modifier::ModifyDerive<MIMenuLayer, MenuLayer> >&)::{lambda(geode::ModStateEvent*)#1}, std::__ndk1::allocator<MIMenuLayer::onModify(geode::modifier::ModifyBase<geode::modifier::ModifyDerive<MIMenuLayer, MenuLayer> >&)::{lambda(geode::ModStateEvent*)#1}>, void (geode::ModStateEvent*)>::~__func()
PUBLIC 591b4 0 std::__ndk1::__function::__func<MIMenuLayer::onModify(geode::modifier::ModifyBase<geode::modifier::ModifyDerive<MIMenuLayer, MenuLayer> >&)::{lambda(geode::ModStateEvent*)#1}, std::__ndk1::allocator<MIMenuLayer::onModify(geode::modifier::ModifyBase<geode::modifier::ModifyDerive<MIMenuLayer, MenuLayer> >&)::{lambda(geode::ModStateEvent*)#1}>, void (geode::ModStateEvent*)>::__clone() const
PUBLIC 591ec 0 std::__ndk1::__function::__func<MIMenuLayer::onModify(geode::modifier::ModifyBase<geode::modifier::ModifyDerive<MIMenuLayer, MenuLayer> >&)::{lambda(geode::ModStateEvent*)#1}, std::__ndk1::allocator<MIMenuLayer::onModify(geode::modifier::ModifyBase<geode::modifier::ModifyDerive<MIMenuLayer, MenuLayer> >&)::{lambda(geode::ModStateEvent*)#1}>, void (geode::ModStateEvent*)>::__clone(std::__ndk1::__function::__base<void (geode::ModStateEvent*)>*) const
PUBLIC 59204 0 std::__ndk1::__function::__func<MIMenuLayer::onModify(geode::modifier::ModifyBase<geode::modifier::ModifyDerive<MIMenuLayer, MenuLayer> >&)::{lambda(geode::ModStateEvent*)#1}, std::__ndk1::allocator<MIMenuLayer::onModify(geode::modifier::ModifyBase<geode::modifier::ModifyDerive<MIMenuLayer, MenuLayer> >&)::{lambda(geode::ModStateEvent*)#1}>, void (geode::ModStateEvent*)>::destroy()
PUBLIC 59208 0 std::__ndk1::__function::__func<MIMenuLayer::onModify(geode::modifier::ModifyBase<geode::modifier::ModifyDerive<MIMenuLayer, MenuLayer> >&)::{lambda(geode::ModStateEvent*)#1}, std::__ndk1::allocator<MIMenuLayer::onModify(geode::modifier::ModifyBase<geode::modifier::ModifyDerive<MIMenuLayer, MenuLayer> >&)::{lambda(geode::ModStateEvent*)#1}>, void (geode::ModStateEvent*)>::destroy_deallocate()
PUBLIC 5920c 0 std::__ndk1::__function::__func<MIMenuLayer::onModify(geode::modifier::ModifyBase<geode::modifier::ModifyDerive<MIMenuLayer, MenuLayer> >&)::{lambda(geode::ModStateEvent*)#1}, std::__ndk1::allocator<MIMenuLayer::onModify(geode::modifier::ModifyBase<geode::modifier::ModifyDerive<MIMenuLayer, MenuLayer> >&)::{lambda(geode::ModStateEvent*)#1}>, void (geode::ModStateEvent*)>::operator()(geode::ModStateEvent*&&)
PUBLIC 59214 0 std::__ndk1::__function::__func<MIMenuLayer::onModify(geode::modifier::ModifyBase<geode::modifier::ModifyDerive<MIMenuLayer, MenuLayer> >&)::{lambda(geode::ModStateEvent*)#1}, std::__ndk1::allocator<MIMenuLayer::onModify(geode::modifier::ModifyBase<geode::modifier::ModifyDerive<MIMenuLayer, MenuLayer> >&)::{lambda(geode::ModStateEvent*)#1}>, void (geode::ModStateEvent*)>::target(std::type_info const&) const
PUBLIC 59230 0 std::__ndk1::__function::__func<MIMenuLayer::onModify(geode::modifier::ModifyBase<geode::modifier::ModifyDerive<MIMenuLayer, MenuLayer> >&)::{lambda(geode::ModStateEvent*)#1}, std::__ndk1::allocator<MIMenuLayer::onModify(geode::modifier::ModifyBase<geode::modifier::ModifyDerive<MIMenuLayer, MenuLayer> >&)::{lambda(geode::ModStateEvent*)#1}>, void (geode::ModStateEvent*)>::target_type() const
PUBLIC 5923c 0 geode::modifier::AsStaticFunction_init<MIMenuLayer, bool (MIMenuLayer::*)()>::Impl<bool (MIMenuLayer::*)()>::function(MIMenuLayer*)
PUBLIC 5935c 0 geode::addresser::Addresser::addressOfVirtual<bool, MenuLayer, >(bool (MenuLayer::*)())
PUBLIC 59404 0 MenuLayer::MenuLayer(geode::ZeroConstructorType)
PUBLIC 594a0 0 __cxx_global_var_init.22
PUBLIC 59d58 0 geode::modifier::ModifyBase<geode::modifier::ModifyDerive<MIPlayerObject, PlayerObject> >::~ModifyBase()
PUBLIC 59d74 0 geode::modifier::ModifyDerive<MIPlayerObject, PlayerObject>::apply()
PUBLIC 5b5b8 0 geode::modifier::ModifyBase<geode::modifier::ModifyDerive<MIPlayerObject, PlayerObject> >::apply()
PUBLIC 5b5bc 0 geode::modifier::ModifyBase<geode::modifier::ModifyDerive<MIPlayerObject, PlayerObject> >::setHookPriorityBefore(std::__ndk1::basic_string_view<char, std::__ndk1::char_traits<char> >, geode::Mod*)::{lambda(geode::ModStateEvent*)#1}::operator()(geode::ModStateEvent*) const
PUBLIC 5b6cc 0 std::__ndk1::__function::__func<geode::modifier::ModifyBase<geode::modifier::ModifyDerive<MIPlayerObject, PlayerObject> >::setHookPriorityBefore(std::__ndk1::basic_string_view<char, std::__ndk1::char_traits<char> >, geode::Mod*)::{lambda(geode::ModStateEvent*)#1}, std::__ndk1::allocator<geode::modifier::ModifyBase<geode::modifier::ModifyDerive<MIPlayerObject, PlayerObject> >::setHookPriorityBefore(std::__ndk1::basic_string_view<char, std::__ndk1::char_traits<char> >, geode::Mod*)::{lambda(geode::ModStateEvent*)#1}>, void (geode::ModStateEvent*)>::~__func()
PUBLIC 5b6d0 0 std::__ndk1::__function::__func<geode::modifier::ModifyBase<geode::modifier::ModifyDerive<MIPlayerObject, PlayerObject> >::setHookPriorityBefore(std::__ndk1::basic_string_view<char, std::__ndk1::char_traits<char> >, geode::Mod*)::{lambda(geode::ModStateEvent*)#1}, std::__ndk1::allocator<geode::modifier::ModifyBase<geode::modifier::ModifyDerive<MIPlayerObject, PlayerObject> >::setHookPriorityBefore(std::__ndk1::basic_string_view<char, std::__ndk1::char_traits<char> >, geode::Mod*)::{lambda(geode::ModStateEvent*)#1}>, void (geode::ModStateEvent*)>::__clone() const
PUBLIC 5b708 0 std::__ndk1::__function::__func<geode::modifier::ModifyBase<geode::modifier::ModifyDerive<MIPlayerObject, PlayerObject> >::setHookPriorityBefore(std::__ndk1::basic_string_view<char, std::__ndk1::char_traits<char> >, geode::Mod*)::{lambda(geode::ModStateEvent*)#1}, std::__ndk1::allocator<geode::modifier::ModifyBase<geode::modifier::ModifyDerive<MIPlayerObject, PlayerObject> >::setHookPriorityBefore(std::__ndk1::basic_string_view<char, std::__ndk1::char_traits<char> >, geode::Mod*)::{lambda(geode::ModStateEvent*)#1}>, void (geode::ModStateEvent*)>::__clone(std::__ndk1::__function::__base<void (geode::ModStateEvent*)>*) const
PUBLIC 5b720 0 std::__ndk1::__function::__func<geode::modifier::ModifyBase<geode::modifier::ModifyDerive<MIPlayerObject, PlayerObject> >::setHookPriorityBefore(std::__ndk1::basic_string_view<char, std::__ndk1::char_traits<char> >, geode::Mod*)::{lambda(geode::ModStateEvent*)#1}, std::__ndk1::allocator<geode::modifier::ModifyBase<geode::modifier::ModifyDerive<MIPlayerObject, PlayerObject> >::setHookPriorityBefore(std::__ndk1::basic_string_view<char, std::__ndk1::char_traits<char> >, geode::Mod*)::{lambda(geode::ModStateEvent*)#1}>, void (geode::ModStateEvent*)>::destroy()
PUBLIC 5b724 0 std::__ndk1::__function::__func<geode::modifier::ModifyBase<geode::modifier::ModifyDerive<MIPlayerObject, PlayerObject> >::setHookPriorityBefore(std::__ndk1::basic_string_view<char, std::__ndk1::char_traits<char> >, geode::Mod*)::{lambda(geode::ModStateEvent*)#1}, std::__ndk1::allocator<geode::modifier::ModifyBase<geode::modifier::ModifyDerive<MIPlayerObject, PlayerObject> >::setHookPriorityBefore(std::__ndk1::basic_string_view<char, std::__ndk1::char_traits<char> >, geode::Mod*)::{lambda(geode::ModStateEvent*)#1}>, void (geode::ModStateEvent*)>::destroy_deallocate()
PUBLIC 5b728 0 std::__ndk1::__function::__func<geode::modifier::ModifyBase<geode::modifier::ModifyDerive<MIPlayerObject, PlayerObject> >::setHookPriorityBefore(std::__ndk1::basic_string_view<char, std::__ndk1::char_traits<char> >, geode::Mod*)::{lambda(geode::ModStateEvent*)#1}, std::__ndk1::allocator<geode::modifier::ModifyBase<geode::modifier::ModifyDerive<MIPlayerObject, PlayerObject> >::setHookPriorityBefore(std::__ndk1::basic_string_view<char, std::__ndk1::char_traits<char> >, geode::Mod*)::{lambda(geode::ModStateEvent*)#1}>, void (geode::ModStateEvent*)>::operator()(geode::ModStateEvent*&&)
PUBLIC 5b730 0 std::__ndk1::__function::__func<geode::modifier::ModifyBase<geode::modifier::ModifyDerive<MIPlayerObject, PlayerObject> >::setHookPriorityBefore(std::__ndk1::basic_string_view<char, std::__ndk1::char_traits<char> >, geode::Mod*)::{lambda(geode::ModStateEvent*)#1}, std::__ndk1::allocator<geode::modifier::ModifyBase<geode::modifier::ModifyDerive<MIPlayerObject, PlayerObject> >::setHookPriorityBefore(std::__ndk1::basic_string_view<char, std::__ndk1::char_traits<char> >, geode::Mod*)::{lambda(geode::ModStateEvent*)#1}>, void (geode::ModStateEvent*)>::target(std::type_info const&) const
PUBLIC 5b74c 0 std::__ndk1::__function::__func<geode::modifier::ModifyBase<geode::modifier::ModifyDerive<MIPlayerObject, PlayerObject> >::setHookPriorityBefore(std::__ndk1::basic_string_view<char, std::__ndk1::char_traits<char> >, geode::Mod*)::{lambda(geode::ModStateEvent*)#1}, std::__ndk1::allocator<geode::modifier::ModifyBase<geode::modifier::ModifyDerive<MIPlayerObject, PlayerObject> >::setHookPriorityBefore(std::__ndk1::basic_string_view<char, std::__ndk1::char_traits<char> >, geode::Mod*)::{lambda(geode::ModStateEvent*)#1}>, void (geode::ModStateEvent*)>::target_type() const
PUBLIC 5b758 0 geode::Hook::create<void (*)(MIPlayerObject*, int)>(void*, void (*)(MIPlayerObject*, int), std::__ndk1::basic_string<char, std::__ndk1::char_traits<char>, std::__ndk1::allocator<char> > const&, tulip::hook::TulipConvention, tulip::hook::HookMetadata const&)
PUBLIC 5b8dc 0 geode::modifier::AsStaticFunction_createRobot<MIPlayerObject, void (MIPlayerObject::*)(int)>::Impl<void (MIPlayerObject::*)(int)>::function(MIPlayerObject*, int)
PUBLIC 5b904 0 geode::modifier::AsStaticFunction_createSpider<MIPlayerObject, void (MIPlayerObject::*)(int)>::Impl<void (MIPlayerObject::*)(int)>::function(MIPlayerObject*, int)
PUBLIC 5b92c 0 geode::modifier::AsStaticFunction_init<MIPlayerObject, bool (MIPlayerObject::*)(int, int, GJBaseGameLayer*, cocos2d::CCLayer*, bool)>::Impl<bool (MIPlayerObject::*)(int, int, GJBaseGameLayer*, cocos2d::CCLayer*, bool)>::function(MIPlayerObject*, int, int, GJBaseGameLayer*, cocos2d::CCLayer*, bool)
PUBLIC 5b970 0 geode::modifier::AsStaticFunction_setupStreak<MIPlayerObject, void (MIPlayerObject::*)()>::Impl<void (MIPlayerObject::*)()>::function(MIPlayerObject*)
PUBLIC 5be64 0 geode::modifier::AsStaticFunction_updatePlayerBirdFrame<MIPlayerObject, void (MIPlayerObject::*)(int)>::Impl<void (MIPlayerObject::*)(int)>::function(MIPlayerObject*, int)
PUBLIC 5be8c 0 geode::modifier::AsStaticFunction_updatePlayerDartFrame<MIPlayerObject, void (MIPlayerObject::*)(int)>::Impl<void (MIPlayerObject::*)(int)>::function(MIPlayerObject*, int)
PUBLIC 5beb4 0 geode::modifier::AsStaticFunction_updatePlayerFrame<MIPlayerObject, void (MIPlayerObject::*)(int)>::Impl<void (MIPlayerObject::*)(int)>::function(MIPlayerObject*, int)
PUBLIC 5bfb8 0 geode::modifier::AsStaticFunction_updatePlayerJetpackFrame<MIPlayerObject, void (MIPlayerObject::*)(int)>::Impl<void (MIPlayerObject::*)(int)>::function(MIPlayerObject*, int)
PUBLIC 5bfe0 0 geode::modifier::AsStaticFunction_updatePlayerRollFrame<MIPlayerObject, void (MIPlayerObject::*)(int)>::Impl<void (MIPlayerObject::*)(int)>::function(MIPlayerObject*, int)
PUBLIC 5c0e4 0 geode::modifier::AsStaticFunction_updatePlayerShipFrame<MIPlayerObject, void (MIPlayerObject::*)(int)>::Impl<void (MIPlayerObject::*)(int)>::function(MIPlayerObject*, int)
PUBLIC 5c10c 0 geode::modifier::AsStaticFunction_updatePlayerSwingFrame<MIPlayerObject, void (MIPlayerObject::*)(int)>::Impl<void (MIPlayerObject::*)(int)>::function(MIPlayerObject*, int)
PUBLIC 5c134 0 MIPlayerObject::updateIcon(IconType)
PUBLIC 5c268 0 MIPlayerObject::resetTrail()
PUBLIC 5c4f4 0 __cxx_global_var_init.10
PUBLIC 5cda8 0 geode::modifier::ModifyBase<geode::modifier::ModifyDerive<MIProfilePage, ProfilePage> >::~ModifyBase()
PUBLIC 5cdc4 0 geode::modifier::ModifyDerive<MIProfilePage, ProfilePage>::apply()
PUBLIC 5d3f0 0 geode::modifier::ModifyBase<geode::modifier::ModifyDerive<MIProfilePage, ProfilePage> >::apply()
PUBLIC 5d3f4 0 geode::modifier::ModifyBase<geode::modifier::ModifyDerive<MIProfilePage, ProfilePage> >::setHookPriorityBefore(std::__ndk1::basic_string_view<char, std::__ndk1::char_traits<char> >, geode::Mod*)::{lambda(geode::ModStateEvent*)#1}::operator()(geode::ModStateEvent*) const
PUBLIC 5d504 0 std::__ndk1::__function::__func<geode::modifier::ModifyBase<geode::modifier::ModifyDerive<MIProfilePage, ProfilePage> >::setHookPriorityBefore(std::__ndk1::basic_string_view<char, std::__ndk1::char_traits<char> >, geode::Mod*)::{lambda(geode::ModStateEvent*)#1}, std::__ndk1::allocator<geode::modifier::ModifyBase<geode::modifier::ModifyDerive<MIProfilePage, ProfilePage> >::setHookPriorityBefore(std::__ndk1::basic_string_view<char, std::__ndk1::char_traits<char> >, geode::Mod*)::{lambda(geode::ModStateEvent*)#1}>, void (geode::ModStateEvent*)>::~__func()
PUBLIC 5d508 0 std::__ndk1::__function::__func<geode::modifier::ModifyBase<geode::modifier::ModifyDerive<MIProfilePage, ProfilePage> >::setHookPriorityBefore(std::__ndk1::basic_string_view<char, std::__ndk1::char_traits<char> >, geode::Mod*)::{lambda(geode::ModStateEvent*)#1}, std::__ndk1::allocator<geode::modifier::ModifyBase<geode::modifier::ModifyDerive<MIProfilePage, ProfilePage> >::setHookPriorityBefore(std::__ndk1::basic_string_view<char, std::__ndk1::char_traits<char> >, geode::Mod*)::{lambda(geode::ModStateEvent*)#1}>, void (geode::ModStateEvent*)>::__clone() const
PUBLIC 5d540 0 std::__ndk1::__function::__func<geode::modifier::ModifyBase<geode::modifier::ModifyDerive<MIProfilePage, ProfilePage> >::setHookPriorityBefore(std::__ndk1::basic_string_view<char, std::__ndk1::char_traits<char> >, geode::Mod*)::{lambda(geode::ModStateEvent*)#1}, std::__ndk1::allocator<geode::modifier::ModifyBase<geode::modifier::ModifyDerive<MIProfilePage, ProfilePage> >::setHookPriorityBefore(std::__ndk1::basic_string_view<char, std::__ndk1::char_traits<char> >, geode::Mod*)::{lambda(geode::ModStateEvent*)#1}>, void (geode::ModStateEvent*)>::__clone(std::__ndk1::__function::__base<void (geode::ModStateEvent*)>*) const
PUBLIC 5d558 0 std::__ndk1::__function::__func<geode::modifier::ModifyBase<geode::modifier::ModifyDerive<MIProfilePage, ProfilePage> >::setHookPriorityBefore(std::__ndk1::basic_string_view<char, std::__ndk1::char_traits<char> >, geode::Mod*)::{lambda(geode::ModStateEvent*)#1}, std::__ndk1::allocator<geode::modifier::ModifyBase<geode::modifier::ModifyDerive<MIProfilePage, ProfilePage> >::setHookPriorityBefore(std::__ndk1::basic_string_view<char, std::__ndk1::char_traits<char> >, geode::Mod*)::{lambda(geode::ModStateEvent*)#1}>, void (geode::ModStateEvent*)>::destroy()
PUBLIC 5d55c 0 std::__ndk1::__function::__func<geode::modifier::ModifyBase<geode::modifier::ModifyDerive<MIProfilePage, ProfilePage> >::setHookPriorityBefore(std::__ndk1::basic_string_view<char, std::__ndk1::char_traits<char> >, geode::Mod*)::{lambda(geode::ModStateEvent*)#1}, std::__ndk1::allocator<geode::modifier::ModifyBase<geode::modifier::ModifyDerive<MIProfilePage, ProfilePage> >::setHookPriorityBefore(std::__ndk1::basic_string_view<char, std::__ndk1::char_traits<char> >, geode::Mod*)::{lambda(geode::ModStateEvent*)#1}>, void (geode::ModStateEvent*)>::destroy_deallocate()
PUBLIC 5d560 0 std::__ndk1::__function::__func<geode::modifier::ModifyBase<geode::modifier::ModifyDerive<MIProfilePage, ProfilePage> >::setHookPriorityBefore(std::__ndk1::basic_string_view<char, std::__ndk1::char_traits<char> >, geode::Mod*)::{lambda(geode::ModStateEvent*)#1}, std::__ndk1::allocator<geode::modifier::ModifyBase<geode::modifier::ModifyDerive<MIProfilePage, ProfilePage> >::setHookPriorityBefore(std::__ndk1::basic_string_view<char, std::__ndk1::char_traits<char> >, geode::Mod*)::{lambda(geode::ModStateEvent*)#1}>, void (geode::ModStateEvent*)>::operator()(geode::ModStateEvent*&&)
PUBLIC 5d568 0 std::__ndk1::__function::__func<geode::modifier::ModifyBase<geode::modifier::ModifyDerive<MIProfilePage, ProfilePage> >::setHookPriorityBefore(std::__ndk1::basic_string_view<char, std::__ndk1::char_traits<char> >, geode::Mod*)::{lambda(geode::ModStateEvent*)#1}, std::__ndk1::allocator<geode::modifier::ModifyBase<geode::modifier::ModifyDerive<MIProfilePage, ProfilePage> >::setHookPriorityBefore(std::__ndk1::basic_string_view<char, std::__ndk1::char_traits<char> >, geode::Mod*)::{lambda(geode::ModStateEvent*)#1}>, void (geode::ModStateEvent*)>::target(std::type_info const&) const
PUBLIC 5d584 0 std::__ndk1::__function::__func<geode::modifier::ModifyBase<geode::modifier::ModifyDerive<MIProfilePage, ProfilePage> >::setHookPriorityBefore(std::__ndk1::basic_string_view<char, std::__ndk1::char_traits<char> >, geode::Mod*)::{lambda(geode::ModStateEvent*)#1}, std::__ndk1::allocator<geode::modifier::ModifyBase<geode::modifier::ModifyDerive<MIProfilePage, ProfilePage> >::setHookPriorityBefore(std::__ndk1::basic_string_view<char, std::__ndk1::char_traits<char> >, geode::Mod*)::{lambda(geode::ModStateEvent*)#1}>, void (geode::ModStateEvent*)>::target_type() const
PUBLIC 5d590 0 geode::modifier::AsStaticFunction_loadPageFromUserInfo<MIProfilePage, void (MIProfilePage::*)(GJUserScore*)>::Impl<void (MIProfilePage::*)(GJUserScore*)>::function(MIProfilePage*, GJUserScore*)
PUBLIC 5d6bc 0 geode::modifier::AsStaticFunction_toggleShip<MIProfilePage, void (MIProfilePage::*)(cocos2d::CCObject*)>::Impl<void (MIProfilePage::*)(cocos2d::CCObject*)>::function(MIProfilePage*, cocos2d::CCObject*)
PUBLIC 5d89c 0 MIProfilePage::changePlayers()
PUBLIC 5dee4 0 MIProfilePage::newOn2PToggle(cocos2d::CCObject*)
PUBLIC 5dfe0 0 std::__ndk1::__function::__func<MIProfilePage::findPlayer(cocos2d::CCNode*)::{lambda(auto:1)#1}, std::__ndk1::allocator<MIProfilePage::findPlayer(cocos2d::CCNode*)::{lambda(auto:1)#1}>, bool (SimplePlayer*)>::~__func()
PUBLIC 5dfe4 0 std::__ndk1::__function::__func<MIProfilePage::findPlayer(cocos2d::CCNode*)::{lambda(auto:1)#1}, std::__ndk1::allocator<MIProfilePage::findPlayer(cocos2d::CCNode*)::{lambda(auto:1)#1}>, bool (SimplePlayer*)>::__clone() const
PUBLIC 5e008 0 std::__ndk1::__function::__func<MIProfilePage::findPlayer(cocos2d::CCNode*)::{lambda(auto:1)#1}, std::__ndk1::allocator<MIProfilePage::findPlayer(cocos2d::CCNode*)::{lambda(auto:1)#1}>, bool (SimplePlayer*)>::__clone(std::__ndk1::__function::__base<bool (SimplePlayer*)>*) const
PUBLIC 5e018 0 std::__ndk1::__function::__func<MIProfilePage::findPlayer(cocos2d::CCNode*)::{lambda(auto:1)#1}, std::__ndk1::allocator<MIProfilePage::findPlayer(cocos2d::CCNode*)::{lambda(auto:1)#1}>, bool (SimplePlayer*)>::destroy()
PUBLIC 5e01c 0 std::__ndk1::__function::__func<MIProfilePage::findPlayer(cocos2d::CCNode*)::{lambda(auto:1)#1}, std::__ndk1::allocator<MIProfilePage::findPlayer(cocos2d::CCNode*)::{lambda(auto:1)#1}>, bool (SimplePlayer*)>::destroy_deallocate()
PUBLIC 5e020 0 std::__ndk1::__function::__func<MIProfilePage::findPlayer(cocos2d::CCNode*)::{lambda(auto:1)#1}, std::__ndk1::allocator<MIProfilePage::findPlayer(cocos2d::CCNode*)::{lambda(auto:1)#1}>, bool (SimplePlayer*)>::operator()(SimplePlayer*&&)
PUBLIC 5e028 0 std::__ndk1::__function::__func<MIProfilePage::findPlayer(cocos2d::CCNode*)::{lambda(auto:1)#1}, std::__ndk1::allocator<MIProfilePage::findPlayer(cocos2d::CCNode*)::{lambda(auto:1)#1}>, bool (SimplePlayer*)>::target(std::type_info const&) const
PUBLIC 5e044 0 std::__ndk1::__function::__func<MIProfilePage::findPlayer(cocos2d::CCNode*)::{lambda(auto:1)#1}, std::__ndk1::allocator<MIProfilePage::findPlayer(cocos2d::CCNode*)::{lambda(auto:1)#1}>, bool (SimplePlayer*)>::target_type() const
PUBLIC 5e050 0 __cxx_global_var_init
PUBLIC 5e4c0 0 geode::modifier::ModifyBase<geode::modifier::ModifyDerive<MISimplePlayer, SimplePlayer> >::~ModifyBase()
PUBLIC 5e4dc 0 geode::modifier::ModifyDerive<MISimplePlayer, SimplePlayer>::apply()
PUBLIC 5e898 0 geode::modifier::ModifyBase<geode::modifier::ModifyDerive<MISimplePlayer, SimplePlayer> >::apply()
PUBLIC 5e89c 0 geode::modifier::AsStaticFunction_updatePlayerFrame<MISimplePlayer, void (MISimplePlayer::*)(int, IconType)>::Impl<void (MISimplePlayer::*)(int, IconType)>::function(MISimplePlayer*, int, IconType)
PUBLIC 5e964 0 geodeExecFunction12<(anonymous namespace)::ExecFuncUnique12>(geode::ModStateEvent*)
PUBLIC 5e9e4 0 geodeExecFunction17<(anonymous namespace)::ExecFuncUnique17>(geode::ModStateEvent*)
PUBLIC 5e9e8 0 std::__ndk1::vector<ImageData, std::__ndk1::allocator<ImageData> >::~vector[abi:ne190000]()
PUBLIC 5ea50 0 MoreIcons::getTexturePacks()
PUBLIC 5f4c8 0 IconPack::~IconPack()
PUBLIC 5f52c 0 std::__ndk1::vector<geode::texture_loader::Pack, std::__ndk1::allocator<geode::texture_loader::Pack> >::~vector[abi:ne190000]()
PUBLIC 5f594 0 std::__ndk1::vector<IconPack, std::__ndk1::allocator<IconPack> >::~vector[abi:ne190000]()
PUBLIC 5f658 0 MoreIcons::unzipVanillaAssets()
PUBLIC 601bc 0 MoreIcons::vanillaTexturePath(std::__ndk1::basic_string<char, std::__ndk1::char_traits<char>, std::__ndk1::allocator<char> > const&, bool)
PUBLIC 60724 0 naturalSorter(std::__ndk1::basic_string<char, std::__ndk1::char_traits<char>, std::__ndk1::allocator<char> > const&, std::__ndk1::basic_string<char, std::__ndk1::char_traits<char>, std::__ndk1::allocator<char> > const&)
PUBLIC 60f28 0 naturalSort(std::__ndk1::vector<std::__ndk1::basic_string<char, std::__ndk1::char_traits<char>, std::__ndk1::allocator<char> >, std::__ndk1::allocator<std::__ndk1::basic_string<char, std::__ndk1::char_traits<char>, std::__ndk1::allocator<char> > > >&)
PUBLIC 61fb0 0 getFrameName(std::__ndk1::basic_string<char, std::__ndk1::char_traits<char>, std::__ndk1::allocator<char> > const&, std::__ndk1::basic_string<char, std::__ndk1::char_traits<char>, std::__ndk1::allocator<char> > const&, IconType)
PUBLIC 6276c 0 replaceEnd(std::__ndk1::basic_string<char, std::__ndk1::char_traits<char>, std::__ndk1::allocator<char> > const&, unsigned long, std::__ndk1::basic_string_view<char, std::__ndk1::char_traits<char> >)
PUBLIC 628f4 0 BS::thread_pool<(unsigned char)0>::~thread_pool()
PUBLIC 62ac0 0 IconPack::IconPack(IconPack const&)
PUBLIC 62bd4 0 loadFolderIcon(std::__ndk1::__fs::filesystem::path const&, IconPack const&, IconType)::$_0::~$_0()
PUBLIC 62c50 0 loadFileIcon(std::__ndk1::__fs::filesystem::path const&, IconPack const&, IconType)::$_0::~$_0()
PUBLIC 62ccc 0 loadVanillaIcon(std::__ndk1::__fs::filesystem::path const&, IconPack const&, IconType)::$_0::~$_0()
PUBLIC 62d48 0 loadTrail(std::__ndk1::__fs::filesystem::path const&, IconPack const&)::$_0::~$_0()
PUBLIC 62dc4 0 loadVanillaTrail(std::__ndk1::__fs::filesystem::path const&, IconPack const&)::$_0::~$_0()
PUBLIC 62e40 0 MoreIcons::loadIcons(std::__ndk1::vector<IconPack, std::__ndk1::allocator<IconPack> > const&, std::__ndk1::basic_string_view<char, std::__ndk1::char_traits<char> >, IconType)
PUBLIC 65010 0 std::__ndk1::__fs::filesystem::directory_iterator::~directory_iterator[abi:ne190000]()
PUBLIC 65060 0 MoreIcons::infoForType(IconType)
PUBLIC 65104 0 MoreIcons::loadTrails(std::__ndk1::vector<IconPack, std::__ndk1::allocator<IconPack> > const&)
PUBLIC 66de8 0 MoreIcons::saveTrails()
PUBLIC 672a8 0 matjson::makeObject(std::initializer_list<std::__ndk1::pair<std::__ndk1::basic_string<char, std::__ndk1::char_traits<char>, std::__ndk1::allocator<char> >, matjson::Value> >)
PUBLIC 6758c 0 std::__ndk1::pair<std::__ndk1::basic_string<char, std::__ndk1::char_traits<char>, std::__ndk1::allocator<char> >, matjson::Value>::~pair()
PUBLIC 675c8 0 MoreIcons::showInfoPopup(bool)
PUBLIC 67968 0 _ZNSt6__ndk112__destroy_atB8ne190000I9ImageDataTnNS_9enable_ifIXntsr8is_arrayIT_EE5valueEiE4typeELi0EEEvPS3_
PUBLIC 679fc 0 ImageData::~ImageData()
PUBLIC 67a90 0 TexturePack::~TexturePack()
PUBLIC 67ad4 0 std::__ndk1::vector<IconPack, std::__ndk1::allocator<IconPack> >::__push_back_slow_path<IconPack>(IconPack&&)
PUBLIC 67cd4 0 std::__ndk1::vector<IconPack, std::__ndk1::allocator<IconPack> >::__throw_length_error[abi:ne190000]() const
PUBLIC 67ce8 0 geode::DispatchEvent<std::__ndk1::vector<geode::texture_loader::Pack, std::__ndk1::allocator<geode::texture_loader::Pack> >*>::~DispatchEvent()
PUBLIC 67d28 0 geode::DispatchEvent<std::__ndk1::vector<geode::texture_loader::Pack, std::__ndk1::allocator<geode::texture_loader::Pack> >*>::getPool() const
PUBLIC 67dd8 0 geode::DispatchEvent<std::__ndk1::vector<geode::texture_loader::Pack, std::__ndk1::allocator<geode::texture_loader::Pack> >*>::~DispatchEvent()
PUBLIC 67e1c 0 std::__ndk1::__fs::filesystem::path::operator/=[abi:ne190000](std::__ndk1::__fs::filesystem::path const&)
PUBLIC 67f04 0 geode::texture_loader::Pack::~Pack()
PUBLIC 67fdc 0 std::__ndk1::__introsort<std::__ndk1::_RangeAlgPolicy, bool (*&)(std::__ndk1::basic_string<char, std::__ndk1::char_traits<char>, std::__ndk1::allocator<char> > const&, std::__ndk1::basic_string<char, std::__ndk1::char_traits<char>, std::__ndk1::allocator<char> > const&), std::__ndk1::basic_string<char, std::__ndk1::char_traits<char>, std::__ndk1::allocator<char> >*, false>(std::__ndk1::basic_string<char, std::__ndk1::char_traits<char>, std::__ndk1::allocator<char> >*, std::__ndk1::basic_string<char, std::__ndk1::char_traits<char>, std::__ndk1::allocator<char> >*, bool (*&)(std::__ndk1::basic_string<char, std::__ndk1::char_traits<char>, std::__ndk1::allocator<char> > const&, std::__ndk1::basic_string<char, std::__ndk1::char_traits<char>, std::__ndk1::allocator<char> > const&), std::__ndk1::iterator_traits<std::__ndk1::basic_string<char, std::__ndk1::char_traits<char>, std::__ndk1::allocator<char> >*>::difference_type, bool)
PUBLIC 69304 0 std::__ndk1::__insertion_sort_incomplete[abi:ne190000]<std::__ndk1::_RangeAlgPolicy, bool (*&)(std::__ndk1::basic_string<char, std::__ndk1::char_traits<char>, std::__ndk1::allocator<char> > const&, std::__ndk1::basic_string<char, std::__ndk1::char_traits<char>, std::__ndk1::allocator<char> > const), std::__ndk1::allocator<char>*>(std::__ndk1::allocator<char>*, std::__ndk1::allocator<char>*, bool (*&)(std::__ndk1::basic_string<char, std::__ndk1::char_traits<char>, std::__ndk1::allocator<char> > const&, std::__ndk1::basic_string<char, std::__ndk1::char_traits<char>, std::__ndk1::allocator<char> > const))
PUBLIC 69878 0 std::__ndk1::__sort4[abi:ne190000]<std::__ndk1::_RangeAlgPolicy, bool (*&)(std::__ndk1::basic_string<char, std::__ndk1::char_traits<char>, std::__ndk1::allocator<char> > const&, std::__ndk1::basic_string<char, std::__ndk1::char_traits<char>, std::__ndk1::allocator<char> > const), std::__ndk1::allocator<char>*>(std::__ndk1::allocator<char>*, std::__ndk1::allocator<char>*, std::__ndk1::allocator<char>*, std::__ndk1::allocator<char>*, bool (*&)(std::__ndk1::basic_string<char, std::__ndk1::char_traits<char>, std::__ndk1::allocator<char> > const&, std::__ndk1::basic_string<char, std::__ndk1::char_traits<char>, std::__ndk1::allocator<char> > const))
PUBLIC 69a78 0 std::__ndk1::vector<matjson::Value, std::__ndk1::allocator<matjson::Value> >::~vector[abi:ne190000]()
PUBLIC 69ae0 0 std::__ndk1::__split_buffer<matjson::Value, std::__ndk1::allocator<matjson::Value>&>::~__split_buffer()
PUBLIC 69b34 0 std::__ndk1::vector<matjson::Value, std::__ndk1::allocator<matjson::Value> >::__throw_length_error[abi:ne190000]() const
PUBLIC 69b48 0 _ZNSt6__ndk112basic_stringIcNS_11char_traitsIcEENS_9allocatorIcEEE6appendB8ne190000IPKcTnNS_9enable_ifIXsr31__has_forward_iterator_categoryIT_EE5valueEiE4typeELi0EEERS5_SA_SA_
PUBLIC 69e8c 0 std::__ndk1::__function::__func<void (*)(geode::ModStateEvent*), std::__ndk1::allocator<void (*)(geode::ModStateEvent*)>, void (geode::ModStateEvent*)>::~__func()
PUBLIC 69e90 0 std::__ndk1::__function::__func<void (*)(geode::ModStateEvent*), std::__ndk1::allocator<void (*)(geode::ModStateEvent*)>, void (geode::ModStateEvent*)>::__clone() const
PUBLIC 69ec4 0 std::__ndk1::__function::__func<void (*)(geode::ModStateEvent*), std::__ndk1::allocator<void (*)(geode::ModStateEvent*)>, void (geode::ModStateEvent*)>::__clone(std::__ndk1::__function::__base<void (geode::ModStateEvent*)>*) const
PUBLIC 69ed8 0 std::__ndk1::__function::__func<void (*)(geode::ModStateEvent*), std::__ndk1::allocator<void (*)(geode::ModStateEvent*)>, void (geode::ModStateEvent*)>::destroy()
PUBLIC 69edc 0 std::__ndk1::__function::__func<void (*)(geode::ModStateEvent*), std::__ndk1::allocator<void (*)(geode::ModStateEvent*)>, void (geode::ModStateEvent*)>::destroy_deallocate()
PUBLIC 69ee0 0 std::__ndk1::__function::__func<void (*)(geode::ModStateEvent*), std::__ndk1::allocator<void (*)(geode::ModStateEvent*)>, void (geode::ModStateEvent*)>::operator()(geode::ModStateEvent*&&)
PUBLIC 69ef0 0 std::__ndk1::__function::__func<void (*)(geode::ModStateEvent*), std::__ndk1::allocator<void (*)(geode::ModStateEvent*)>, void (geode::ModStateEvent*)>::target(std::type_info const&) const
PUBLIC 69f0c 0 std::__ndk1::__function::__func<void (*)(geode::ModStateEvent*), std::__ndk1::allocator<void (*)(geode::ModStateEvent*)>, void (geode::ModStateEvent*)>::target_type() const
PUBLIC 69f18 0 std::__ndk1::unique_ptr<std::__ndk1::__tree_node<std::__ndk1::__value_type<std::__ndk1::basic_string<char, std::__ndk1::char_traits<char>, std::__ndk1::allocator<char> >, std::__ndk1::vector<std::__ndk1::basic_string<char, std::__ndk1::char_traits<char>, std::__ndk1::allocator<char> >, std::__ndk1::allocator<std::__ndk1::basic_string<char, std::__ndk1::char_traits<char>, std::__ndk1::allocator<char> > > > >, void*>, std::__ndk1::__tree_node_destructor<std::__ndk1::allocator<std::__ndk1::__tree_node<std::__ndk1::__value_type<std::__ndk1::basic_string<char, std::__ndk1::char_traits<char>, std::__ndk1::allocator<char> >, std::__ndk1::vector<std::__ndk1::basic_string<char, std::__ndk1::char_traits<char>, std::__ndk1::allocator<char> >, std::__ndk1::allocator<std::__ndk1::basic_string<char, std::__ndk1::char_traits<char>, std::__ndk1::allocator<char> > > > >, void*> > > >::~unique_ptr[abi:ne190000]()
PUBLIC 69fbc 0 std::__ndk1::vector<std::__ndk1::basic_string<char, std::__ndk1::char_traits<char>, std::__ndk1::allocator<char> >, std::__ndk1::allocator<std::__ndk1::basic_string<char, std::__ndk1::char_traits<char>, std::__ndk1::allocator<char> > > >::__init_with_size[abi:ne190000]<std::__ndk1::basic_string<char, std::__ndk1::char_traits<char>, std::__ndk1::allocator<char> >*, std::__ndk1::vector<std::__ndk1::basic_string<char, std::__ndk1::char_traits<char>, std::__ndk1::allocator<char> >, std::__ndk1::allocator<std::__ndk1::basic_string<char, std::__ndk1::char_traits<char>, std::__ndk1::allocator<char> > > >::__init_with_size[abi:ne190000]>(std::__ndk1::basic_string<char, std::__ndk1::char_traits<char>, std::__ndk1::allocator<char> >*, std::__ndk1::vector<std::__ndk1::basic_string<char, std::__ndk1::char_traits<char>, std::__ndk1::allocator<char> >, std::__ndk1::allocator<std::__ndk1::basic_string<char, std::__ndk1::char_traits<char>, std::__ndk1::allocator<char> > > >::__init_with_size[abi:ne190000], unsigned long)
PUBLIC 6a128 0 std::__ndk1::__tree<std::__ndk1::__value_type<std::__ndk1::basic_string<char, std::__ndk1::char_traits<char>, std::__ndk1::allocator<char> >, std::__ndk1::vector<std::__ndk1::basic_string<char, std::__ndk1::char_traits<char>, std::__ndk1::allocator<char> >, std::__ndk1::allocator<std::__ndk1::basic_string<char, std::__ndk1::char_traits<char>, std::__ndk1::allocator<char> > > > >, std::__ndk1::__map_value_compare<std::__ndk1::basic_string<char, std::__ndk1::char_traits<char>, std::__ndk1::allocator<char> >, std::__ndk1::__value_type<std::__ndk1::basic_string<char, std::__ndk1::char_traits<char>, std::__ndk1::allocator<char> >, std::__ndk1::vector<std::__ndk1::basic_string<char, std::__ndk1::char_traits<char>, std::__ndk1::allocator<char> >, std::__ndk1::allocator<std::__ndk1::basic_string<char, std::__ndk1::char_traits<char>, std::__ndk1::allocator<char> > > > >, std::__ndk1::less<std::__ndk1::basic_string<char, std::__ndk1::char_traits<char>, std::__ndk1::allocator<char> > >, true>, std::__ndk1::allocator<std::__ndk1::__value_type<std::__ndk1::basic_string<char, std::__ndk1::char_traits<char>, std::__ndk1::allocator<char> >, std::__ndk1::vector<std::__ndk1::basic_string<char, std::__ndk1::char_traits<char>, std::__ndk1::allocator<char> >, std::__ndk1::allocator<std::__ndk1::basic_string<char, std::__ndk1::char_traits<char>, std::__ndk1::allocator<char> > > > > > >::destroy(std::__ndk1::__tree_node<std::__ndk1::__value_type<std::__ndk1::basic_string<char, std::__ndk1::char_traits<char>, std::__ndk1::allocator<char> >, std::__ndk1::vector<std::__ndk1::basic_string<char, std::__ndk1::char_traits<char>, std::__ndk1::allocator<char> >, std::__ndk1::allocator<std::__ndk1::basic_string<char, std::__ndk1::char_traits<char>, std::__ndk1::allocator<char> > > > >, void*>*)
PUBLIC 6a1c4 0 std::__ndk1::pair<std::__ndk1::basic_string<char, std::__ndk1::char_traits<char>, std::__ndk1::allocator<char> >, std::__ndk1::vector<std::__ndk1::basic_string<char, std::__ndk1::char_traits<char>, std::__ndk1::allocator<char> >, std::__ndk1::allocator<std::__ndk1::basic_string<char, std::__ndk1::char_traits<char>, std::__ndk1::allocator<char> > > > >::~pair()
PUBLIC 6a250 0 std::__ndk1::__tree<std::__ndk1::__value_type<std::__ndk1::basic_string<char, std::__ndk1::char_traits<char>, std::__ndk1::allocator<char> >, std::__ndk1::vector<std::__ndk1::basic_string<char, std::__ndk1::char_traits<char>, std::__ndk1::allocator<char> >, std::__ndk1::allocator<std::__ndk1::basic_string<char, std::__ndk1::char_traits<char>, std::__ndk1::allocator<char> > > > >, std::__ndk1::__map_value_compare<std::__ndk1::basic_string<char, std::__ndk1::char_traits<char>, std::__ndk1::allocator<char> >, std::__ndk1::__value_type<std::__ndk1::basic_string<char, std::__ndk1::char_traits<char>, std::__ndk1::allocator<char> >, std::__ndk1::vector<std::__ndk1::basic_string<char, std::__ndk1::char_traits<char>, std::__ndk1::allocator<char> >, std::__ndk1::allocator<std::__ndk1::basic_string<char, std::__ndk1::char_traits<char>, std::__ndk1::allocator<char> > > > >, std::__ndk1::less<std::__ndk1::basic_string<char, std::__ndk1::char_traits<char>, std::__ndk1::allocator<char> > >, true>, std::__ndk1::allocator<std::__ndk1::__value_type<std::__ndk1::basic_string<char, std::__ndk1::char_traits<char>, std::__ndk1::allocator<char> >, std::__ndk1::vector<std::__ndk1::basic_string<char, std::__ndk1::char_traits<char>, std::__ndk1::allocator<char> >, std::__ndk1::allocator<std::__ndk1::basic_string<char, std::__ndk1::char_traits<char>, std::__ndk1::allocator<char> > > > > > >::__emplace_unique_key_args<std::__ndk1::basic_string<char, std::__ndk1::char_traits<char>, std::__ndk1::allocator<char> >, std::__ndk1::piecewise_construct_t const&, std::__ndk1::tuple<std::__ndk1::basic_string<char, std::__ndk1::char_traits<char>, std::__ndk1::allocator<char> > const&>, std::__ndk1::tuple<> >(std::__ndk1::basic_string<char, std::__ndk1::char_traits<char>, std::__ndk1::allocator<char> > const&, std::__ndk1::piecewise_construct_t const&, std::__ndk1::tuple<std::__ndk1::basic_string<char, std::__ndk1::char_traits<char>, std::__ndk1::allocator<char> > const&>, std::__ndk1::tuple<>)
PUBLIC 6a428 0 _ZN2BS11thread_poolILh0EEC2ITkNS_11init_func_cEZNS1_C1EmEUlvE_EEmOT_
PUBLIC 6a708 0 std::__ndk1::unique_ptr<std::__ndk1::thread [], std::__ndk1::default_delete<std::__ndk1::thread []> >::~unique_ptr[abi:ne190000]()
PUBLIC 6a75c 0 std::__ndk1::__function::__func<BS::thread_pool<(unsigned char)0>::{lambda(unsigned long)#1}, std::__ndk1::allocator<BS::thread_pool<(unsigned char)0>::{lambda(unsigned long)#1}>, void (unsigned long)>::~__func()
PUBLIC 6a760 0 std::__ndk1::__function::__func<BS::thread_pool<(unsigned char)0>::{lambda(unsigned long)#1}, std::__ndk1::allocator<BS::thread_pool<(unsigned char)0>::{lambda(unsigned long)#1}>, void (unsigned long)>::__clone() const
PUBLIC 6a784 0 std::__ndk1::__function::__func<BS::thread_pool<(unsigned char)0>::{lambda(unsigned long)#1}, std::__ndk1::allocator<BS::thread_pool<(unsigned char)0>::{lambda(unsigned long)#1}>, void (unsigned long)>::__clone(std::__ndk1::__function::__base<void (unsigned long)>*) const
PUBLIC 6a794 0 std::__ndk1::__function::__func<BS::thread_pool<(unsigned char)0>::{lambda(unsigned long)#1}, std::__ndk1::allocator<BS::thread_pool<(unsigned char)0>::{lambda(unsigned long)#1}>, void (unsigned long)>::destroy()
PUBLIC 6a798 0 std::__ndk1::__function::__func<BS::thread_pool<(unsigned char)0>::{lambda(unsigned long)#1}, std::__ndk1::allocator<BS::thread_pool<(unsigned char)0>::{lambda(unsigned long)#1}>, void (unsigned long)>::destroy_deallocate()
PUBLIC 6a79c 0 std::__ndk1::__function::__func<BS::thread_pool<(unsigned char)0>::{lambda(unsigned long)#1}, std::__ndk1::allocator<BS::thread_pool<(unsigned char)0>::{lambda(unsigned long)#1}>, void (unsigned long)>::operator()(unsigned long&&)
PUBLIC 6a7a0 0 std::__ndk1::__function::__func<BS::thread_pool<(unsigned char)0>::{lambda(unsigned long)#1}, std::__ndk1::allocator<BS::thread_pool<(unsigned char)0>::{lambda(unsigned long)#1}>, void (unsigned long)>::target(std::type_info const&) const
PUBLIC 6a7bc 0 std::__ndk1::__function::__func<BS::thread_pool<(unsigned char)0>::{lambda(unsigned long)#1}, std::__ndk1::allocator<BS::thread_pool<(unsigned char)0>::{lambda(unsigned long)#1}>, void (unsigned long)>::target_type() const
PUBLIC 6a7c8 0 std::__ndk1::__function::__base<void (unsigned long)>::~__base()
PUBLIC 6a7cc 0 std::__ndk1::__function::__func<BS::thread_pool<(unsigned char)0>::create_threads<BS::thread_pool<(unsigned char)0>::thread_pool(unsigned long)::{lambda()#1}>(unsigned long, BS::thread_pool<(unsigned char)0>::thread_pool(unsigned long)::{lambda()#1}&&)::{lambda(unsigned long)#1}, std::__ndk1::allocator<BS::thread_pool<(unsigned char)0>::create_threads<BS::thread_pool<(unsigned char)0>::thread_pool(unsigned long)::{lambda()#1}>(unsigned long, BS::thread_pool<(unsigned char)0>::thread_pool(unsigned long)::{lambda()#1}&&)::{lambda(unsigned long)#1}>, void (unsigned long)>::~__func()
PUBLIC 6a7d0 0 std::__ndk1::__function::__func<BS::thread_pool<(unsigned char)0>::create_threads<BS::thread_pool<(unsigned char)0>::thread_pool(unsigned long)::{lambda()#1}>(unsigned long, BS::thread_pool<(unsigned char)0>::thread_pool(unsigned long)::{lambda()#1}&&)::{lambda(unsigned long)#1}, std::__ndk1::allocator<BS::thread_pool<(unsigned char)0>::create_threads<BS::thread_pool<(unsigned char)0>::thread_pool(unsigned long)::{lambda()#1}>(unsigned long, BS::thread_pool<(unsigned char)0>::thread_pool(unsigned long)::{lambda()#1}&&)::{lambda(unsigned long)#1}>, void (unsigned long)>::__clone() const
PUBLIC 6a808 0 std::__ndk1::__function::__func<BS::thread_pool<(unsigned char)0>::create_threads<BS::thread_pool<(unsigned char)0>::thread_pool(unsigned long)::{lambda()#1}>(unsigned long, BS::thread_pool<(unsigned char)0>::thread_pool(unsigned long)::{lambda()#1}&&)::{lambda(unsigned long)#1}, std::__ndk1::allocator<BS::thread_pool<(unsigned char)0>::create_threads<BS::thread_pool<(unsigned char)0>::thread_pool(unsigned long)::{lambda()#1}>(unsigned long, BS::thread_pool<(unsigned char)0>::thread_pool(unsigned long)::{lambda()#1}&&)::{lambda(unsigned long)#1}>, void (unsigned long)>::__clone(std::__ndk1::__function::__base<void (unsigned long)>*) const
PUBLIC 6a820 0 std::__ndk1::__function::__func<BS::thread_pool<(unsigned char)0>::create_threads<BS::thread_pool<(unsigned char)0>::thread_pool(unsigned long)::{lambda()#1}>(unsigned long, BS::thread_pool<(unsigned char)0>::thread_pool(unsigned long)::{lambda()#1}&&)::{lambda(unsigned long)#1}, std::__ndk1::allocator<BS::thread_pool<(unsigned char)0>::create_threads<BS::thread_pool<(unsigned char)0>::thread_pool(unsigned long)::{lambda()#1}>(unsigned long, BS::thread_pool<(unsigned char)0>::thread_pool(unsigned long)::{lambda()#1}&&)::{lambda(unsigned long)#1}>, void (unsigned long)>::destroy()
PUBLIC 6a824 0 std::__ndk1::__function::__func<BS::thread_pool<(unsigned char)0>::create_threads<BS::thread_pool<(unsigned char)0>::thread_pool(unsigned long)::{lambda()#1}>(unsigned long, BS::thread_pool<(unsigned char)0>::thread_pool(unsigned long)::{lambda()#1}&&)::{lambda(unsigned long)#1}, std::__ndk1::allocator<BS::thread_pool<(unsigned char)0>::create_threads<BS::thread_pool<(unsigned char)0>::thread_pool(unsigned long)::{lambda()#1}>(unsigned long, BS::thread_pool<(unsigned char)0>::thread_pool(unsigned long)::{lambda()#1}&&)::{lambda(unsigned long)#1}>, void (unsigned long)>::destroy_deallocate()
PUBLIC 6a828 0 std::__ndk1::__function::__func<BS::thread_pool<(unsigned char)0>::create_threads<BS::thread_pool<(unsigned char)0>::thread_pool(unsigned long)::{lambda()#1}>(unsigned long, BS::thread_pool<(unsigned char)0>::thread_pool(unsigned long)::{lambda()#1}&&)::{lambda(unsigned long)#1}, std::__ndk1::allocator<BS::thread_pool<(unsigned char)0>::create_threads<BS::thread_pool<(unsigned char)0>::thread_pool(unsigned long)::{lambda()#1}>(unsigned long, BS::thread_pool<(unsigned char)0>::thread_pool(unsigned long)::{lambda()#1}&&)::{lambda(unsigned long)#1}>, void (unsigned long)>::operator()(unsigned long&&)
PUBLIC 6a82c 0 std::__ndk1::__function::__func<BS::thread_pool<(unsigned char)0>::create_threads<BS::thread_pool<(unsigned char)0>::thread_pool(unsigned long)::{lambda()#1}>(unsigned long, BS::thread_pool<(unsigned char)0>::thread_pool(unsigned long)::{lambda()#1}&&)::{lambda(unsigned long)#1}, std::__ndk1::allocator<BS::thread_pool<(unsigned char)0>::create_threads<BS::thread_pool<(unsigned char)0>::thread_pool(unsigned long)::{lambda()#1}>(unsigned long, BS::thread_pool<(unsigned char)0>::thread_pool(unsigned long)::{lambda()#1}&&)::{lambda(unsigned long)#1}>, void (unsigned long)>::target(std::type_info const&) const
PUBLIC 6a848 0 std::__ndk1::__function::__func<BS::thread_pool<(unsigned char)0>::create_threads<BS::thread_pool<(unsigned char)0>::thread_pool(unsigned long)::{lambda()#1}>(unsigned long, BS::thread_pool<(unsigned char)0>::thread_pool(unsigned long)::{lambda()#1}&&)::{lambda(unsigned long)#1}, std::__ndk1::allocator<BS::thread_pool<(unsigned char)0>::create_threads<BS::thread_pool<(unsigned char)0>::thread_pool(unsigned long)::{lambda()#1}>(unsigned long, BS::thread_pool<(unsigned char)0>::thread_pool(unsigned long)::{lambda()#1}&&)::{lambda(unsigned long)#1}>, void (unsigned long)>::target_type() const
PUBLIC 6a854 0 std::__ndk1::__thread_proxy[abi:ne190000]<std::__ndk1::tuple<std::__ndk1::unique_ptr<std::__ndk1::__thread_struct, std::__ndk1::default_delete<std::__ndk1::unique_ptr> >, BS::thread_pool<(unsigned char)0>::create_threads<BS::thread_pool::thread_pool(unsigned long)::{lambda()#1}>(unsigned long, BS::thread_pool::thread_pool(unsigned long)::{lambda()#1}&&)::{lambda()#1}> >(std::__ndk1::tuple<std::__ndk1::unique_ptr<std::__ndk1::__thread_struct, std::__ndk1::default_delete<std::__ndk1::unique_ptr> >, BS::thread_pool<(unsigned char)0>::create_threads<BS::thread_pool::thread_pool(unsigned long)::{lambda()#1}>(unsigned long, BS::thread_pool::thread_pool(unsigned long)::{lambda()#1}&&)::{lambda()#1}>)
PUBLIC 6ac9c 0 std::__ndk1::unique_ptr<std::__ndk1::tuple<std::__ndk1::unique_ptr<std::__ndk1::__thread_struct, std::__ndk1::default_delete<std::__ndk1::__thread_struct> >, BS::thread_pool<(unsigned char)0>::create_threads<BS::thread_pool<(unsigned char)0>::thread_pool(unsigned long)::{lambda()#1}>(unsigned long, BS::thread_pool<(unsigned char)0>::thread_pool(unsigned long)::{lambda()#1}&&)::{lambda()#1}>, std::__ndk1::default_delete<std::__ndk1::tuple<std::__ndk1::unique_ptr<std::__ndk1::__thread_struct, std::__ndk1::default_delete<std::__ndk1::__thread_struct> >, BS::thread_pool<(unsigned char)0>::create_threads<BS::thread_pool<(unsigned char)0>::thread_pool(unsigned long)::{lambda()#1}>(unsigned long, BS::thread_pool<(unsigned char)0>::thread_pool(unsigned long)::{lambda()#1}&&)::{lambda()#1}> > >::~unique_ptr[abi:ne190000]()
PUBLIC 6acec 0 std::__ndk1::unique_ptr<std::__ndk1::__thread_struct, std::__ndk1::default_delete<std::__ndk1::__thread_struct> >::~unique_ptr[abi:ne190000]()
PUBLIC 6ad28 0 std::__ndk1::deque<std::__ndk1::function<void ()>, std::__ndk1::allocator<std::__ndk1::function<void ()> > >::~deque[abi:ne190000]()
PUBLIC 6aef0 0 std::__ndk1::deque<std::__ndk1::function<void ()>, std::__ndk1::allocator<std::__ndk1::function<void ()> > >::__add_back_capacity()
PUBLIC 6b600 0 std::__ndk1::__function::__func<loadFolderIcon(std::__ndk1::__fs::filesystem::path const&, IconPack const&, IconType)::$_0, std::__ndk1::allocator<loadFolderIcon(std::__ndk1::__fs::filesystem::path const&, IconPack const&, IconType)::$_0>, void ()>::~__func()
PUBLIC 6b688 0 std::__ndk1::__function::__func<loadFolderIcon(std::__ndk1::__fs::filesystem::path const&, IconPack const&, IconType)::$_0, std::__ndk1::allocator<loadFolderIcon(std::__ndk1::__fs::filesystem::path const&, IconPack const&, IconType)::$_0>, void ()>::~__func()
PUBLIC 6b71c 0 std::__ndk1::__function::__func<loadFolderIcon(std::__ndk1::__fs::filesystem::path const&, IconPack const&, IconType)::$_0, std::__ndk1::allocator<loadFolderIcon(std::__ndk1::__fs::filesystem::path const&, IconPack const&, IconType)::$_0>, void ()>::__clone() const
PUBLIC 6b7d0 0 std::__ndk1::__function::__func<loadFolderIcon(std::__ndk1::__fs::filesystem::path const&, IconPack const&, IconType)::$_0, std::__ndk1::allocator<loadFolderIcon(std::__ndk1::__fs::filesystem::path const&, IconPack const&, IconType)::$_0>, void ()>::__clone(std::__ndk1::__function::__base<void ()>*) const
PUBLIC 6b870 0 std::__ndk1::__function::__func<loadFolderIcon(std::__ndk1::__fs::filesystem::path const&, IconPack const&, IconType)::$_0, std::__ndk1::allocator<loadFolderIcon(std::__ndk1::__fs::filesystem::path const&, IconPack const&, IconType)::$_0>, void ()>::destroy()
PUBLIC 6b8ec 0 std::__ndk1::__function::__func<loadFolderIcon(std::__ndk1::__fs::filesystem::path const&, IconPack const&, IconType)::$_0, std::__ndk1::allocator<loadFolderIcon(std::__ndk1::__fs::filesystem::path const&, IconPack const&, IconType)::$_0>, void ()>::destroy_deallocate()
PUBLIC 6b974 0 std::__ndk1::__function::__func<loadFolderIcon(std::__ndk1::__fs::filesystem::path const&, IconPack const&, IconType)::$_0, std::__ndk1::allocator<loadFolderIcon(std::__ndk1::__fs::filesystem::path const&, IconPack const&, IconType)::$_0>, void ()>::operator()()
PUBLIC 6d2d8 0 std::__ndk1::__function::__func<loadFolderIcon(std::__ndk1::__fs::filesystem::path const&, IconPack const&, IconType)::$_0, std::__ndk1::allocator<loadFolderIcon(std::__ndk1::__fs::filesystem::path const&, IconPack const&, IconType)::$_0>, void ()>::target(std::type_info const&) const
PUBLIC 6d2f4 0 std::__ndk1::__function::__func<loadFolderIcon(std::__ndk1::__fs::filesystem::path const&, IconPack const&, IconType)::$_0, std::__ndk1::allocator<loadFolderIcon(std::__ndk1::__fs::filesystem::path const&, IconPack const&, IconType)::$_0>, void ()>::target_type() const
PUBLIC 6d300 0 fmt::v11::detail::value<fmt::v11::context>::format_custom_arg<std::__ndk1::__fs::filesystem::path, fmt::v11::formatter<std::__ndk1::__fs::filesystem::path, char, void> >(void*, fmt::v11::basic_format_parse_context<char>&, fmt::v11::context&)
PUBLIC 6e1b0 0 fmt::v11::detail::parse_dynamic_spec<char>(char const*, char const*, int&, fmt::v11::detail::arg_ref<char>&, fmt::v11::basic_format_parse_context<char>&)
PUBLIC 6e354 0 fmt::v11::detail::do_parse_arg_id<char, fmt::v11::detail::dynamic_spec_id_handler<char>&>(char const*, char const*, fmt::v11::detail::dynamic_spec_id_handler<char>&)
PUBLIC 6e4ec 0 fmt::v11::detail::handle_dynamic_spec<fmt::v11::detail::width_checker, fmt::v11::context>(int&, fmt::v11::detail::arg_ref<fmt::v11::context::char_type>, fmt::v11::context&)
PUBLIC 6e600 0 fmt::v11::detail::write<char, fmt::v11::basic_appender<char> >(fmt::v11::basic_appender<char>, fmt::v11::basic_string_view<char>, fmt::v11::format_specs const&)
PUBLIC 6e87c 0 fmt::v11::detail::get_dynamic_spec<fmt::v11::detail::width_checker, fmt::v11::basic_format_arg<fmt::v11::context> >(fmt::v11::basic_format_arg<fmt::v11::context>)
PUBLIC 6e910 0 fmt::v11::basic_format_args<fmt::v11::context>::get<char>(fmt::v11::basic_string_view<char>) const
PUBLIC 6ea44 0 fmt::v11::detail::write_escaped_string<char, fmt::v11::detail::counting_iterator>(fmt::v11::detail::counting_iterator, fmt::v11::basic_string_view<char>)
PUBLIC 6ef28 0 fmt::v11::detail::write_padded<char, (fmt::v11::align::type)1, fmt::v11::basic_appender<char>, fmt::v11::detail::write<char, fmt::v11::basic_appender<char> >(fmt::v11::basic_appender<char>, fmt::v11::basic_string_view<char>, fmt::v11::format_specs const&)::{lambda(fmt::v11::basic_appender<char>)#1}>(fmt::v11::basic_appender<char>, fmt::v11::format_specs const&, unsigned long, unsigned long, fmt::v11::detail::write<char, fmt::v11::basic_appender<char> >(fmt::v11::basic_appender<char>, fmt::v11::basic_string_view<char>, fmt::v11::format_specs const&)::{lambda(fmt::v11::basic_appender<char>&&)#1})
PUBLIC 6f134 0 fmt::v11::detail::for_each_codepoint<fmt::v11::detail::code_point_index(fmt::v11::basic_string_view<char>, unsigned long)::{lambda(unsigned int, fmt::v11::basic_string_view<char>)#1}>(fmt::v11::basic_string_view<char>, fmt::v11::detail::code_point_index(fmt::v11::basic_string_view<char>, unsigned long)::{lambda(unsigned int, fmt::v11::basic_string_view<char>)#1})
PUBLIC 6f528 0 fmt::v11::detail::write_escaped_cp<fmt::v11::detail::counting_iterator, char>(fmt::v11::detail::counting_iterator, fmt::v11::detail::find_escape_result<char> const&)
PUBLIC 6f6bc 0 fmt::v11::detail::for_each_codepoint<fmt::v11::detail::compute_width(fmt::v11::basic_string_view<char>)::count_code_points>(fmt::v11::basic_string_view<char>, fmt::v11::detail::compute_width(fmt::v11::basic_string_view<char>)::count_code_points)::{lambda(char const*, char const*)#1}::operator()(char const*, char const*) const
PUBLIC 6f874 0 fmt::v11::detail::fill<char, fmt::v11::basic_appender<char> >(fmt::v11::basic_appender<char>, unsigned long, fmt::v11::detail::fill_t const&)
PUBLIC 6fa44 0 fmt::v11::detail::write_escaped_string<char, fmt::v11::basic_appender<char> >(fmt::v11::basic_appender<char>, fmt::v11::basic_string_view<char>)
PUBLIC 7008c 0 fmt::v11::detail::write_escaped_cp<fmt::v11::basic_appender<char>, char>(fmt::v11::basic_appender<char>, fmt::v11::detail::find_escape_result<char> const&)
PUBLIC 70270 0 fmt::v11::detail::write_codepoint<(unsigned long)2, char, fmt::v11::basic_appender<char> >(fmt::v11::basic_appender<char>, char, unsigned int)
PUBLIC 703e8 0 fmt::v11::detail::write_codepoint<(unsigned long)4, char, fmt::v11::basic_appender<char> >(fmt::v11::basic_appender<char>, char, unsigned int)
PUBLIC 70560 0 fmt::v11::detail::write_codepoint<(unsigned long)8, char, fmt::v11::basic_appender<char> >(fmt::v11::basic_appender<char>, char, unsigned int)
PUBLIC 706d8 0 fmt::v11::basic_memory_buffer<char, (unsigned long)500, std::__ndk1::allocator<char> >::grow(fmt::v11::detail::buffer<char>&, unsigned long)
PUBLIC 70750 0 fmt::v11::detail::write_codepoint<(unsigned long)2, char, std::__ndk1::back_insert_iterator<fmt::v11::basic_memory_buffer<char, (unsigned long)500, std::__ndk1::allocator<char> > > >(std::__ndk1::back_insert_iterator<fmt::v11::basic_memory_buffer<char, (unsigned long)500, std::__ndk1::allocator<char> > >, char, unsigned int)
PUBLIC 708c8 0 std::__ndk1::vector<LogData, std::__ndk1::allocator<LogData> >::__push_back_slow_path<LogData>(LogData&&)
PUBLIC 70a18 0 std::__ndk1::vector<LogData, std::__ndk1::allocator<LogData> >::__throw_length_error[abi:ne190000]() const
PUBLIC 70a2c 0 std::__ndk1::vector<ImageData, std::__ndk1::allocator<ImageData> >::__push_back_slow_path<ImageData>(ImageData&&)
PUBLIC 70c78 0 std::__ndk1::vector<ImageData, std::__ndk1::allocator<ImageData> >::__throw_length_error[abi:ne190000]() const
PUBLIC 70c8c 0 std::__ndk1::__function::__func<loadFileIcon(std::__ndk1::__fs::filesystem::path const&, IconPack const&, IconType)::$_0, std::__ndk1::allocator<loadFileIcon(std::__ndk1::__fs::filesystem::path const&, IconPack const&, IconType)::$_0>, void ()>::~__func()
PUBLIC 70d14 0 std::__ndk1::__function::__func<loadFileIcon(std::__ndk1::__fs::filesystem::path const&, IconPack const&, IconType)::$_0, std::__ndk1::allocator<loadFileIcon(std::__ndk1::__fs::filesystem::path const&, IconPack const&, IconType)::$_0>, void ()>::~__func()
PUBLIC 70da8 0 std::__ndk1::__function::__func<loadFileIcon(std::__ndk1::__fs::filesystem::path const&, IconPack const&, IconType)::$_0, std::__ndk1::allocator<loadFileIcon(std::__ndk1::__fs::filesystem::path const&, IconPack const&, IconType)::$_0>, void ()>::__clone() const
PUBLIC 70e5c 0 std::__ndk1::__function::__func<loadFileIcon(std::__ndk1::__fs::filesystem::path const&, IconPack const&, IconType)::$_0, std::__ndk1::allocator<loadFileIcon(std::__ndk1::__fs::filesystem::path const&, IconPack const&, IconType)::$_0>, void ()>::__clone(std::__ndk1::__function::__base<void ()>*) const
PUBLIC 70efc 0 std::__ndk1::__function::__func<loadFileIcon(std::__ndk1::__fs::filesystem::path const&, IconPack const&, IconType)::$_0, std::__ndk1::allocator<loadFileIcon(std::__ndk1::__fs::filesystem::path const&, IconPack const&, IconType)::$_0>, void ()>::destroy()
PUBLIC 70f78 0 std::__ndk1::__function::__func<loadFileIcon(std::__ndk1::__fs::filesystem::path const&, IconPack const&, IconType)::$_0, std::__ndk1::allocator<loadFileIcon(std::__ndk1::__fs::filesystem::path const&, IconPack const&, IconType)::$_0>, void ()>::destroy_deallocate()
PUBLIC 71000 0 std::__ndk1::__function::__func<loadFileIcon(std::__ndk1::__fs::filesystem::path const&, IconPack const&, IconType)::$_0, std::__ndk1::allocator<loadFileIcon(std::__ndk1::__fs::filesystem::path const&, IconPack const&, IconType)::$_0>, void ()>::operator()()
PUBLIC 729f8 0 std::__ndk1::__function::__func<loadFileIcon(std::__ndk1::__fs::filesystem::path const&, IconPack const&, IconType)::$_0, std::__ndk1::allocator<loadFileIcon(std::__ndk1::__fs::filesystem::path const&, IconPack const&, IconType)::$_0>, void ()>::target(std::type_info const&) const
PUBLIC 72a14 0 std::__ndk1::__function::__func<loadFileIcon(std::__ndk1::__fs::filesystem::path const&, IconPack const&, IconType)::$_0, std::__ndk1::allocator<loadFileIcon(std::__ndk1::__fs::filesystem::path const&, IconPack const&, IconType)::$_0>, void ()>::target_type() const
PUBLIC 72a20 0 printLog<std::__ndk1::__fs::filesystem::path const&, std::__ndk1::basic_string<char, std::__ndk1::char_traits<char>, std::__ndk1::allocator<char> >&>(geode::Severity, fmt::v11::basic_format_string<char, fmt::v11::type_identity<std::__ndk1::__fs::filesystem::path const&, std::__ndk1::basic_string<char, std::__ndk1::char_traits<char>, std::__ndk1::allocator<char> >&>::type>, std::__ndk1::__fs::filesystem::path const&, std::__ndk1::basic_string<char, std::__ndk1::char_traits<char>, std::__ndk1::allocator<char> >&)
PUBLIC 72be8 0 std::__ndk1::__function::__func<loadVanillaIcon(std::__ndk1::__fs::filesystem::path const&, IconPack const&, IconType)::$_0, std::__ndk1::allocator<loadVanillaIcon(std::__ndk1::__fs::filesystem::path const&, IconPack const&, IconType)::$_0>, void ()>::~__func()
PUBLIC 72c70 0 std::__ndk1::__function::__func<loadVanillaIcon(std::__ndk1::__fs::filesystem::path const&, IconPack const&, IconType)::$_0, std::__ndk1::allocator<loadVanillaIcon(std::__ndk1::__fs::filesystem::path const&, IconPack const&, IconType)::$_0>, void ()>::~__func()
PUBLIC 72d04 0 std::__ndk1::__function::__func<loadVanillaIcon(std::__ndk1::__fs::filesystem::path const&, IconPack const&, IconType)::$_0, std::__ndk1::allocator<loadVanillaIcon(std::__ndk1::__fs::filesystem::path const&, IconPack const&, IconType)::$_0>, void ()>::__clone() const
PUBLIC 72db8 0 std::__ndk1::__function::__func<loadVanillaIcon(std::__ndk1::__fs::filesystem::path const&, IconPack const&, IconType)::$_0, std::__ndk1::allocator<loadVanillaIcon(std::__ndk1::__fs::filesystem::path const&, IconPack const&, IconType)::$_0>, void ()>::__clone(std::__ndk1::__function::__base<void ()>*) const
PUBLIC 72e58 0 std::__ndk1::__function::__func<loadVanillaIcon(std::__ndk1::__fs::filesystem::path const&, IconPack const&, IconType)::$_0, std::__ndk1::allocator<loadVanillaIcon(std::__ndk1::__fs::filesystem::path const&, IconPack const&, IconType)::$_0>, void ()>::destroy()
PUBLIC 72ed4 0 std::__ndk1::__function::__func<loadVanillaIcon(std::__ndk1::__fs::filesystem::path const&, IconPack const&, IconType)::$_0, std::__ndk1::allocator<loadVanillaIcon(std::__ndk1::__fs::filesystem::path const&, IconPack const&, IconType)::$_0>, void ()>::destroy_deallocate()
PUBLIC 72f5c 0 std::__ndk1::__function::__func<loadVanillaIcon(std::__ndk1::__fs::filesystem::path const&, IconPack const&, IconType)::$_0, std::__ndk1::allocator<loadVanillaIcon(std::__ndk1::__fs::filesystem::path const&, IconPack const&, IconType)::$_0>, void ()>::operator()()
PUBLIC 74688 0 std::__ndk1::__function::__func<loadVanillaIcon(std::__ndk1::__fs::filesystem::path const&, IconPack const&, IconType)::$_0, std::__ndk1::allocator<loadVanillaIcon(std::__ndk1::__fs::filesystem::path const&, IconPack const&, IconType)::$_0>, void ()>::target(std::type_info const&) const
PUBLIC 746a4 0 std::__ndk1::__function::__func<loadVanillaIcon(std::__ndk1::__fs::filesystem::path const&, IconPack const&, IconType)::$_0, std::__ndk1::allocator<loadVanillaIcon(std::__ndk1::__fs::filesystem::path const&, IconPack const&, IconType)::$_0>, void ()>::target_type() const
PUBLIC 746b0 0 ImageData::operator=(ImageData&&)
PUBLIC 747bc 0 std::__ndk1::__function::__func<loadTrail(std::__ndk1::__fs::filesystem::path const&, IconPack const&)::$_0, std::__ndk1::allocator<loadTrail(std::__ndk1::__fs::filesystem::path const&, IconPack const&)::$_0>, void ()>::~__func()
PUBLIC 74844 0 std::__ndk1::__function::__func<loadTrail(std::__ndk1::__fs::filesystem::path const&, IconPack const&)::$_0, std::__ndk1::allocator<loadTrail(std::__ndk1::__fs::filesystem::path const&, IconPack const&)::$_0>, void ()>::~__func()
PUBLIC 748d8 0 std::__ndk1::__function::__func<loadTrail(std::__ndk1::__fs::filesystem::path const&, IconPack const&)::$_0, std::__ndk1::allocator<loadTrail(std::__ndk1::__fs::filesystem::path const&, IconPack const&)::$_0>, void ()>::__clone() const
PUBLIC 74994 0 std::__ndk1::__function::__func<loadTrail(std::__ndk1::__fs::filesystem::path const&, IconPack const&)::$_0, std::__ndk1::allocator<loadTrail(std::__ndk1::__fs::filesystem::path const&, IconPack const&)::$_0>, void ()>::__clone(std::__ndk1::__function::__base<void ()>*) const
PUBLIC 74a24 0 std::__ndk1::__function::__func<loadTrail(std::__ndk1::__fs::filesystem::path const&, IconPack const&)::$_0, std::__ndk1::allocator<loadTrail(std::__ndk1::__fs::filesystem::path const&, IconPack const&)::$_0>, void ()>::destroy()
PUBLIC 74aa0 0 std::__ndk1::__function::__func<loadTrail(std::__ndk1::__fs::filesystem::path const&, IconPack const&)::$_0, std::__ndk1::allocator<loadTrail(std::__ndk1::__fs::filesystem::path const&, IconPack const&)::$_0>, void ()>::destroy_deallocate()
PUBLIC 74b28 0 std::__ndk1::__function::__func<loadTrail(std::__ndk1::__fs::filesystem::path const&, IconPack const&)::$_0, std::__ndk1::allocator<loadTrail(std::__ndk1::__fs::filesystem::path const&, IconPack const&)::$_0>, void ()>::operator()()
PUBLIC 75904 0 std::__ndk1::__function::__func<loadTrail(std::__ndk1::__fs::filesystem::path const&, IconPack const&)::$_0, std::__ndk1::allocator<loadTrail(std::__ndk1::__fs::filesystem::path const&, IconPack const&)::$_0>, void ()>::target(std::type_info const&) const
PUBLIC 75920 0 std::__ndk1::__function::__func<loadTrail(std::__ndk1::__fs::filesystem::path const&, IconPack const&)::$_0, std::__ndk1::allocator<loadTrail(std::__ndk1::__fs::filesystem::path const&, IconPack const&)::$_0>, void ()>::target_type() const
PUBLIC 7592c 0 geode::impl::ResultData<matjson::Value, std::__ndk1::basic_string<char, std::__ndk1::char_traits<char>, std::__ndk1::allocator<char> > >::~ResultData()
PUBLIC 759a0 0 geode::impl::ResultData<bool, std::__ndk1::basic_string<char, std::__ndk1::char_traits<char>, std::__ndk1::allocator<char> > >::~ResultData()
PUBLIC 75a14 0 std::__ndk1::__variant_detail::__visitation::__base::__dispatcher<(unsigned long)0>::__dispatch[abi:ne190000]<std::__ndk1::__variant_detail::__dtor<std::__ndk1::__variant_detail::__traits<matjson::Value, std::__ndk1::basic_string<char, std::__ndk1::char_traits<char>, std::__ndk1::allocator<char> > >, (std::__ndk1::__variant_detail::_Trait)1>::__destroy[abi:ne190000]()::{lambda(auto:1&)#1}, std::__ndk1::__variant_detail::__base<(std::__ndk1::__variant_detail::__traits<matjson::Value, std::__ndk1::basic_string<char, std::__ndk1::char_traits<char>, std::__ndk1::allocator<char> > >)1, matjson, std::__ndk1::allocator<char> >&>(std::__ndk1::__variant_detail::__dtor<std::__ndk1::__variant_detail::__traits<matjson::Value, std::__ndk1::basic_string<char, std::__ndk1::char_traits<char>, std::__ndk1::allocator<char> > >, (std::__ndk1::__variant_detail::_Trait)1>, std::__ndk1::__variant_detail::__base<(std::__ndk1::__variant_detail::__traits<matjson::Value, std::__ndk1::basic_string<char, std::__ndk1::char_traits<char>, std::__ndk1::allocator<char> > >)1, matjson, std::__ndk1::allocator<char> >&)
PUBLIC 75a1c 0 std::__ndk1::__variant_detail::__visitation::__base::__dispatcher<(unsigned long)1>::__dispatch[abi:ne190000]<std::__ndk1::__variant_detail::__dtor<std::__ndk1::__variant_detail::__traits<matjson::Value, std::__ndk1::basic_string<char, std::__ndk1::char_traits<char>, std::__ndk1::allocator<char> > >, (std::__ndk1::__variant_detail::_Trait)1>::__destroy[abi:ne190000]()::{lambda(auto:1&)#1}, std::__ndk1::__variant_detail::__base<(std::__ndk1::__variant_detail::__traits<matjson::Value, std::__ndk1::basic_string<char, std::__ndk1::char_traits<char>, std::__ndk1::allocator<char> > >)1, matjson, std::__ndk1::allocator<char> >&>(std::__ndk1::__variant_detail::__dtor<std::__ndk1::__variant_detail::__traits<matjson::Value, std::__ndk1::basic_string<char, std::__ndk1::char_traits<char>, std::__ndk1::allocator<char> > >, (std::__ndk1::__variant_detail::_Trait)1>, std::__ndk1::__variant_detail::__base<(std::__ndk1::__variant_detail::__traits<matjson::Value, std::__ndk1::basic_string<char, std::__ndk1::char_traits<char>, std::__ndk1::allocator<char> > >)1, matjson, std::__ndk1::allocator<char> >&)
PUBLIC 75a30 0 std::__ndk1::__function::__func<loadVanillaTrail(std::__ndk1::__fs::filesystem::path const&, IconPack const&)::$_0, std::__ndk1::allocator<loadVanillaTrail(std::__ndk1::__fs::filesystem::path const&, IconPack const&)::$_0>, void ()>::~__func()
PUBLIC 75ab8 0 std::__ndk1::__function::__func<loadVanillaTrail(std::__ndk1::__fs::filesystem::path const&, IconPack const&)::$_0, std::__ndk1::allocator<loadVanillaTrail(std::__ndk1::__fs::filesystem::path const&, IconPack const&)::$_0>, void ()>::~__func()
PUBLIC 75b4c 0 std::__ndk1::__function::__func<loadVanillaTrail(std::__ndk1::__fs::filesystem::path const&, IconPack const&)::$_0, std::__ndk1::allocator<loadVanillaTrail(std::__ndk1::__fs::filesystem::path const&, IconPack const&)::$_0>, void ()>::__clone() const
PUBLIC 75c08 0 std::__ndk1::__function::__func<loadVanillaTrail(std::__ndk1::__fs::filesystem::path const&, IconPack const&)::$_0, std::__ndk1::allocator<loadVanillaTrail(std::__ndk1::__fs::filesystem::path const&, IconPack const&)::$_0>, void ()>::__clone(std::__ndk1::__function::__base<void ()>*) const
PUBLIC 75c98 0 std::__ndk1::__function::__func<loadVanillaTrail(std::__ndk1::__fs::filesystem::path const&, IconPack const&)::$_0, std::__ndk1::allocator<loadVanillaTrail(std::__ndk1::__fs::filesystem::path const&, IconPack const&)::$_0>, void ()>::destroy()
PUBLIC 75d14 0 std::__ndk1::__function::__func<loadVanillaTrail(std::__ndk1::__fs::filesystem::path const&, IconPack const&)::$_0, std::__ndk1::allocator<loadVanillaTrail(std::__ndk1::__fs::filesystem::path const&, IconPack const&)::$_0>, void ()>::destroy_deallocate()
PUBLIC 75d9c 0 std::__ndk1::__function::__func<loadVanillaTrail(std::__ndk1::__fs::filesystem::path const&, IconPack const&)::$_0, std::__ndk1::allocator<loadVanillaTrail(std::__ndk1::__fs::filesystem::path const&, IconPack const&)::$_0>, void ()>::operator()()
PUBLIC 76d50 0 std::__ndk1::__function::__func<loadVanillaTrail(std::__ndk1::__fs::filesystem::path const&, IconPack const&)::$_0, std::__ndk1::allocator<loadVanillaTrail(std::__ndk1::__fs::filesystem::path const&, IconPack const&)::$_0>, void ()>::target(std::type_info const&) const
PUBLIC 76d6c 0 std::__ndk1::__function::__func<loadVanillaTrail(std::__ndk1::__fs::filesystem::path const&, IconPack const&)::$_0, std::__ndk1::allocator<loadVanillaTrail(std::__ndk1::__fs::filesystem::path const&, IconPack const&)::$_0>, void ()>::target_type() const
PUBLIC 76d78 0 std::__ndk1::__function::__base<void (FLAlertLayer*, bool)>::~__base()
PUBLIC 76d7c 0 std::__ndk1::__function::__func<MoreIcons::showInfoPopup(bool)::$_0, std::__ndk1::allocator<MoreIcons::showInfoPopup(bool)::$_0>, void (FLAlertLayer*, bool)>::~__func()
PUBLIC 76d80 0 std::__ndk1::__function::__func<MoreIcons::showInfoPopup(bool)::$_0, std::__ndk1::allocator<MoreIcons::showInfoPopup(bool)::$_0>, void (FLAlertLayer*, bool)>::__clone() const
PUBLIC 76db8 0 std::__ndk1::__function::__func<MoreIcons::showInfoPopup(bool)::$_0, std::__ndk1::allocator<MoreIcons::showInfoPopup(bool)::$_0>, void (FLAlertLayer*, bool)>::__clone(std::__ndk1::__function::__base<void (FLAlertLayer*, bool)>*) const
PUBLIC 76dd0 0 std::__ndk1::__function::__func<MoreIcons::showInfoPopup(bool)::$_0, std::__ndk1::allocator<MoreIcons::showInfoPopup(bool)::$_0>, void (FLAlertLayer*, bool)>::destroy()
PUBLIC 76dd4 0 std::__ndk1::__function::__func<MoreIcons::showInfoPopup(bool)::$_0, std::__ndk1::allocator<MoreIcons::showInfoPopup(bool)::$_0>, void (FLAlertLayer*, bool)>::destroy_deallocate()
PUBLIC 76dd8 0 std::__ndk1::__function::__func<MoreIcons::showInfoPopup(bool)::$_0, std::__ndk1::allocator<MoreIcons::showInfoPopup(bool)::$_0>, void (FLAlertLayer*, bool)>::operator()(FLAlertLayer*&&, bool&&)
PUBLIC 76e90 0 std::__ndk1::__function::__func<MoreIcons::showInfoPopup(bool)::$_0, std::__ndk1::allocator<MoreIcons::showInfoPopup(bool)::$_0>, void (FLAlertLayer*, bool)>::target(std::type_info const&) const
PUBLIC 76eac 0 std::__ndk1::__function::__func<MoreIcons::showInfoPopup(bool)::$_0, std::__ndk1::allocator<MoreIcons::showInfoPopup(bool)::$_0>, void (FLAlertLayer*, bool)>::target_type() const
PUBLIC 76eb8 0 _GLOBAL__sub_I_MoreIcons.cpp
PUBLIC 77094 0 geode::getMod()
PUBLIC m 770d0 0 geodeImplicitEntry
PUBLIC 7710c 0 std::__ndk1::unordered_map<void*, bool, std::__ndk1::hash<void*>, std::__ndk1::equal_to<void*>, std::__ndk1::allocator<std::__ndk1::pair<void* const, bool> > >::~unordered_map[abi:ne190000]()
PUBLIC 77158 0 wrapFunction(unsigned long, tulip::hook::WrapperMetadata const&)
PUBLIC 7728c 0 geode::impl::ResultData<void*, std::__ndk1::basic_string<char, std::__ndk1::char_traits<char>, std::__ndk1::allocator<char> > >::unwrapErr() &
PUBLIC 77304 0 geode::impl::ResultData<void*, std::__ndk1::basic_string<char, std::__ndk1::char_traits<char>, std::__ndk1::allocator<char> > >::~ResultData()
PUBLIC 77378 0 tulip::hook::WrapperMetadata::~WrapperMetadata()
PUBLIC 773dc 0 cocos2d::CCObject::CCObject()
PUBLIC 77600 0 cocos2d::CCObject::~CCObject()
PUBLIC 77624 0 cocos2d::CCNode::~CCNode()
PUBLIC 77648 0 cocos2d::CCLayer::CCLayer()
PUBLIC 778cc 0 {virtual override thunk({offset(-320)}, cocos2d::CCLayer::~CCLayer())}
PUBLIC 778d4 0 cocos2d::CCLayer::~CCLayer()
PUBLIC 778f8 0 {virtual override thunk({offset(-320)}, cocos2d::CCLayer::~CCLayer())}
PUBLIC 77920 0 cocos2d::CCLayerRGBA::~CCLayerRGBA()
PUBLIC 77c20 0 {virtual override thunk({offset(-320)}, cocos2d::CCLayerRGBA::~CCLayerRGBA())}
PUBLIC 77c28 0 cocos2d::CCLayerRGBA::~CCLayerRGBA()
PUBLIC 77c4c 0 {virtual override thunk({offset(-320)}, cocos2d::CCLayerRGBA::~CCLayerRGBA())}
PUBLIC 77c74 0 cocos2d::CCLayerColor::CCLayerColor()
PUBLIC 77ed8 0 {virtual override thunk({offset(-320)}, cocos2d::CCLayerColor::~CCLayerColor())}
PUBLIC 77ee0 0 cocos2d::CCLayerColor::~CCLayerColor()
PUBLIC 77f04 0 {virtual override thunk({offset(-320)}, cocos2d::CCLayerColor::~CCLayerColor())}
PUBLIC 77f2c 0 cocos2d::CCTexture2D::~CCTexture2D()
PUBLIC 7819c 0 cocos2d::CCTexture2D::~CCTexture2D()
PUBLIC 781c0 0 cocos2d::CCTexture2D::CCTexture2D()
PUBLIC 783ec 0 cocos2d::CCImage::CCImage()
PUBLIC 78610 0 cocos2d::CCImage::~CCImage()
PUBLIC 78878 0 cocos2d::CCImage::~CCImage()
PUBLIC 7889c 0 cocos2d::CCSpriteBatchNode::CCSpriteBatchNode()
PUBLIC 78b08 0 cocos2d::CCSpriteBatchNode::~CCSpriteBatchNode()
PUBLIC 78dc0 0 cocos2d::CCSpriteBatchNode::~CCSpriteBatchNode()
PUBLIC 78de4 0 cocos2d::CCDictionary::setObject(cocos2d::CCObject*, gd::string const&)
PUBLIC 78f44 0 tulip::hook::AbstractFunction::from<void, cocos2d::CCDictionary*, cocos2d::CCObject*, gd::string const&>(void (*)(cocos2d::CCDictionary*, cocos2d::CCObject*, gd::string const&))
PUBLIC 79044 0 cocos2d::CCDictionary::CCDictionary()
PUBLIC 79268 0 cocos2d::CCDictionary::~CCDictionary()
PUBLIC 794d0 0 cocos2d::CCDictionary::~CCDictionary()
PUBLIC 794f4 0 cocos2d::CCDictionary::objectForKey(gd::string const&)
PUBLIC 79644 0 tulip::hook::AbstractFunction::from<cocos2d::CCObject*, cocos2d::CCDictionary*, gd::string const&>(cocos2d::CCObject* (*)(cocos2d::CCDictionary*, gd::string const&))
PUBLIC 796e8 0 cocos2d::CCDictionary::valueForKey(gd::string const&)
PUBLIC 79838 0 tulip::hook::AbstractFunction::from<cocos2d::CCString const*, cocos2d::CCDictionary*, gd::string const&>(cocos2d::CCString const* (*)(cocos2d::CCDictionary*, gd::string const&))
PUBLIC 798dc 0 FLAlertLayer::FLAlertLayer()
PUBLIC 79978 0 {virtual override thunk({offset(-320)}, FLAlertLayer::~FLAlertLayer())}
PUBLIC 79980 0 FLAlertLayer::~FLAlertLayer()
PUBLIC 799a4 0 {virtual override thunk({offset(-320)}, FLAlertLayer::~FLAlertLayer())}
PUBLIC 799cc 0 CCAnimatedSprite::runAnimation(gd::string)
PUBLIC 79b44 0 tulip::hook::AbstractFunction::from<void, CCAnimatedSprite*, gd::string>(void (*)(CCAnimatedSprite*, gd::string))
PUBLIC 79be4 0 CCMenuItemSpriteExtra::create(cocos2d::CCNode*, cocos2d::CCObject*, void (cocos2d::CCObject::*)(cocos2d::CCObject*))
PUBLIC 79bf8 0 CCMenuItemSpriteExtra::updateSprite()
PUBLIC 79cbc 0 CCMenuItemToggler::isToggled()
PUBLIC 79cc4 0 SetIDPopup::create(int, int, int, gd::string, gd::string, bool, int, float, bool, bool)
PUBLIC 79ec4 0 tulip::hook::AbstractFunction::from<SetIDPopup*, int, int, int, gd::string, gd::string, bool, int, float, bool, bool>(SetIDPopup* (*)(int, int, int, gd::string, gd::string, bool, int, float, bool, bool))
PUBLIC 7a590 0 GameManager::get()
PUBLIC 7a594 0 GameManager::keyForIcon(int, int)
PUBLIC 7a614 0 TextArea::create(gd::string, char const*, float, float, cocos2d::CCPoint, float, bool)
PUBLIC 7a7dc 0 tulip::hook::AbstractFunction::from<TextArea*, gd::string, char const*, float, float, cocos2d::CCPoint, float, bool>(TextArea* (*)(gd::string, char const*, float, float, cocos2d::CCPoint, float, bool))
PUBLIC 7ac70 0 TextArea::setString(gd::string)
PUBLIC 7ade8 0 tulip::hook::AbstractFunction::from<void, TextArea*, gd::string>(void (*)(TextArea*, gd::string))
PUBLIC 7ae88 0 cocos2d::CCLayerColor::~CCLayerColor()
PUBLIC 7b16c 0 cocos2d::CCLayer::~CCLayer()
PUBLIC 7b45c 0 cocos2d::CCNode::~CCNode()
PUBLIC 7b6fc 0 FLAlertLayer::~FLAlertLayer()
PUBLIC 7b9e0 0 cocos2d::CCObject::~CCObject()
PUBLIC 7bed4 0 _ZN5geode15UnwrapExceptionC2IRPvQsr4implE18IsStringStreamableIT_EEENS_4impl5OkTagEOS4_
PUBLIC 7c028 0 std::__ndk1::__variant_detail::__visitation::__base::__dispatcher<(unsigned long)0>::__dispatch[abi:ne190000]<std::__ndk1::__variant_detail::__dtor<std::__ndk1::__variant_detail::__traits<void*, std::__ndk1::basic_string<char, std::__ndk1::char_traits<char>, std::__ndk1::allocator<char> > >, (std::__ndk1::__variant_detail::_Trait)1>::__destroy[abi:ne190000]()::{lambda(auto:1&)#1}, std::__ndk1::__variant_detail::__base<(std::__ndk1::__variant_detail::__traits<void*, std::__ndk1::basic_string<char, std::__ndk1::char_traits<char>, std::__ndk1::allocator<char> > >)1, std::__ndk1::__variant_detail::__traits, std::__ndk1::allocator<char> >&>(std::__ndk1::__variant_detail::__dtor<std::__ndk1::__variant_detail::__traits<void*, std::__ndk1::basic_string<char, std::__ndk1::char_traits<char>, std::__ndk1::allocator<char> > >, (std::__ndk1::__variant_detail::_Trait)1>, std::__ndk1::__variant_detail::__base<(std::__ndk1::__variant_detail::__traits<void*, std::__ndk1::basic_string<char, std::__ndk1::char_traits<char>, std::__ndk1::allocator<char> > >)1, std::__ndk1::__variant_detail::__traits, std::__ndk1::allocator<char> >&)
PUBLIC 7c02c 0 std::__ndk1::__variant_detail::__visitation::__base::__dispatcher<(unsigned long)1>::__dispatch[abi:ne190000]<std::__ndk1::__variant_detail::__dtor<std::__ndk1::__variant_detail::__traits<void*, std::__ndk1::basic_string<char, std::__ndk1::char_traits<char>, std::__ndk1::allocator<char> > >, (std::__ndk1::__variant_detail::_Trait)1>::__destroy[abi:ne190000]()::{lambda(auto:1&)#1}, std::__ndk1::__variant_detail::__base<(std::__ndk1::__variant_detail::__traits<void*, std::__ndk1::basic_string<char, std::__ndk1::char_traits<char>, std::__ndk1::allocator<char> > >)1, std::__ndk1::__variant_detail::__traits, std::__ndk1::allocator<char> >&>(std::__ndk1::__variant_detail::__dtor<std::__ndk1::__variant_detail::__traits<void*, std::__ndk1::basic_string<char, std::__ndk1::char_traits<char>, std::__ndk1::allocator<char> > >, (std::__ndk1::__variant_detail::_Trait)1>, std::__ndk1::__variant_detail::__base<(std::__ndk1::__variant_detail::__traits<void*, std::__ndk1::basic_string<char, std::__ndk1::char_traits<char>, std::__ndk1::allocator<char> > >)1, std::__ndk1::__variant_detail::__traits, std::__ndk1::allocator<char> >&)
PUBLIC 7c040 0 std::__ndk1::__hash_table<std::__ndk1::__hash_value_type<void*, bool>, std::__ndk1::__unordered_map_hasher<void*, std::__ndk1::__hash_value_type<void*, bool>, std::__ndk1::hash<void*>, std::__ndk1::equal_to<void*>, true>, std::__ndk1::__unordered_map_equal<void*, std::__ndk1::__hash_value_type<void*, bool>, std::__ndk1::equal_to<void*>, std::__ndk1::hash<void*>, true>, std::__ndk1::allocator<std::__ndk1::__hash_value_type<void*, bool> > >::__emplace_unique_key_args<void*, std::__ndk1::piecewise_construct_t const&, std::__ndk1::tuple<void* const&>, std::__ndk1::tuple<> >(void* const&, std::__ndk1::piecewise_construct_t const&, std::__ndk1::tuple<void* const&>, std::__ndk1::tuple<>)
PUBLIC 7c54c 0 __udivti3
PUBLIC 7c558 0 __udivmodti4
PUBLIC m 7c7a4 0 __eqtf2
PUBLIC 7c844 0 __unordtf2
PUBLIC 7c87c 0 fmt::v11::detail::write_loc(fmt::v11::basic_appender<char>, fmt::v11::loc_value, fmt::v11::format_specs const&, fmt::v11::detail::locale_ref)
PUBLIC 7cb10 0 fmt::v11::format_facet<std::__ndk1::locale>::~format_facet()
PUBLIC 7cb8c 0 fmt::v11::report_error(char const*)
PUBLIC 7cbdc 0 fmt::v11::format_error::runtime_error(char const*)
PUBLIC 7cc08 0 fmt::v11::format_facet<std::__ndk1::locale>::do_put(fmt::v11::basic_appender<char>, fmt::v11::loc_value, fmt::v11::format_specs const&) const
PUBLIC 7d3c8 0 fmt::v11::detail::loc_writer<char>::~loc_writer()
PUBLIC 7d42c 0 fmt::v11::vformat(fmt::v11::basic_string_view<char>, fmt::v11::basic_format_args<fmt::v11::context>)
PUBLIC 7d578 0 fmt::v11::detail::vformat_to<char>(fmt::v11::detail::buffer<char>&, fmt::v11::basic_string_view<char>, fmt::v11::detail::vformat_args<char>::type, fmt::v11::detail::locale_ref)
PUBLIC 7dae8 0 fmt::v11::detail::is_printable(unsigned int)
PUBLIC 7dd10 0 fmt::v11::detail::dragonbox::to_decimal<float>(float)
PUBLIC 7dfec 0 fmt::v11::detail::dragonbox::to_decimal<double>(double)
PUBLIC m 7e528 0 fmt::v11::detail::locale_ref::locale_ref<std::__ndk1::locale>()
PUBLIC 7e530 0 fmt::v11::format_facet<std::__ndk1::locale>::~format_facet()
PUBLIC 7e5bc 0 fmt::v11::format_error::~format_error()
PUBLIC 7e5e0 0 fmt::v11::detail::copy_noinline<char, char const*, fmt::v11::basic_appender<char> >(char const*, char const*, fmt::v11::basic_appender<char>)
PUBLIC 7e730 0 fmt::v11::detail::default_arg_formatter<char>::operator()<bool>(bool)
PUBLIC 7e798 0 fmt::v11::detail::default_arg_formatter<char>::operator()<char>(char)
PUBLIC 7e828 0 fmt::v11::detail::default_arg_formatter<char>::operator()<float>(float)
PUBLIC 7e914 0 fmt::v11::detail::default_arg_formatter<char>::operator()<double>(double)
PUBLIC 7ea00 0 fmt::v11::detail::default_arg_formatter<char>::operator()<char const*>(char const*)
PUBLIC 7ea48 0 fmt::v11::detail::default_arg_formatter<char>::operator()<void const*>(void const*)
PUBLIC 7eae0 0 _ZN3fmt3v116detail5writeIcNS0_14basic_appenderIcEEiTnNSt6__ndk19enable_ifIXaaaasr11is_integralIT1_EE5valuentsr3std7is_sameIS7_bEE5valuentsr3std7is_sameIS7_T_EE5valueEiE4typeELi0EEET0_SB_S7_
PUBLIC 7ed40 0 fmt::v11::detail::copy_noinline<char, char*, fmt::v11::basic_appender<char> >(char*, char*, fmt::v11::basic_appender<char>)
PUBLIC 7ee90 0 _ZN3fmt3v116detail5writeIcNS0_14basic_appenderIcEEjTnNSt6__ndk19enable_ifIXaaaasr11is_integralIT1_EE5valuentsr3std7is_sameIS7_bEE5valuentsr3std7is_sameIS7_T_EE5valueEiE4typeELi0EEET0_SB_S7_
PUBLIC 7f070 0 _ZN3fmt3v116detail5writeIcNS0_14basic_appenderIcEExTnNSt6__ndk19enable_ifIXaaaasr11is_integralIT1_EE5valuentsr3std7is_sameIS7_bEE5valuentsr3std7is_sameIS7_T_EE5valueEiE4typeELi0EEET0_SB_S7_
PUBLIC 7f2f4 0 _ZN3fmt3v116detail5writeIcNS0_14basic_appenderIcEEyTnNSt6__ndk19enable_ifIXaaaasr11is_integralIT1_EE5valuentsr3std7is_sameIS7_bEE5valuentsr3std7is_sameIS7_T_EE5valueEiE4typeELi0EEET0_SB_S7_
PUBLIC 7f4fc 0 _ZN3fmt3v116detail5writeIcNS0_14basic_appenderIcEEnTnNSt6__ndk19enable_ifIXaaaasr11is_integralIT1_EE5valuentsr3std7is_sameIS7_bEE5valuentsr3std7is_sameIS7_T_EE5valueEiE4typeELi0EEET0_SB_S7_
PUBLIC 7f85c 0 _ZN3fmt3v116detail5writeIcNS0_14basic_appenderIcEEoTnNSt6__ndk19enable_ifIXaaaasr11is_integralIT1_EE5valuentsr3std7is_sameIS7_bEE5valuentsr3std7is_sameIS7_T_EE5valueEiE4typeELi0EEET0_SB_S7_
PUBLIC 7fb70 0 _ZN3fmt3v116detail5writeIcNS0_14basic_appenderIcEEbTnNSt6__ndk19enable_ifIXsr3std7is_sameIT1_bEE5valueEiE4typeELi0EEET0_SA_S7_RKNS0_12format_specsENS1_10locale_refE
PUBLIC 7fe24 0 fmt::v11::detail::write_int_noinline<char, fmt::v11::basic_appender<char>, unsigned int>(fmt::v11::basic_appender<char>, fmt::v11::detail::write_int_arg<unsigned int>, fmt::v11::format_specs const&, fmt::v11::detail::locale_ref)
PUBLIC 80bf0 0 fmt::v11::detail::write_padded<char, (fmt::v11::align::type)1, fmt::v11::basic_appender<char>, fmt::v11::detail::write_char<char, fmt::v11::basic_appender<char> >(fmt::v11::basic_appender<char>, char, fmt::v11::format_specs const&)::{lambda(fmt::v11::basic_appender<char>&)#1}>(fmt::v11::basic_appender<char>, fmt::v11::format_specs const&, unsigned long, unsigned long, fmt::v11::detail::write_char<char, fmt::v11::basic_appender<char> >(fmt::v11::basic_appender<char>, char, fmt::v11::format_specs const&)::{lambda(fmt::v11::basic_appender<char>&)#1})
PUBLIC 80e54 0 fmt::v11::detail::write_padded<char, (fmt::v11::align::type)1, fmt::v11::basic_appender<char>, fmt::v11::detail::write_nonfinite<char, fmt::v11::basic_appender<char> >(fmt::v11::basic_appender<char>, bool, fmt::v11::format_specs, fmt::v11::sign::type)::{lambda(fmt::v11::basic_appender<char>&)#1}>(fmt::v11::basic_appender<char>, fmt::v11::format_specs const&, unsigned long, unsigned long, fmt::v11::detail::write_nonfinite<char, fmt::v11::basic_appender<char> >(fmt::v11::basic_appender<char>, bool, fmt::v11::format_specs, fmt::v11::sign::type)::{lambda(fmt::v11::basic_appender<char>&)#1})
PUBLIC 810ac 0 fmt::v11::detail::do_write_float<char, fmt::v11::basic_appender<char>, fmt::v11::detail::dragonbox::decimal_fp<float>, fmt::v11::detail::digit_grouping<char> >(fmt::v11::basic_appender<char>, fmt::v11::detail::dragonbox::decimal_fp<float> const&, fmt::v11::format_specs const&, fmt::v11::detail::float_specs, fmt::v11::detail::locale_ref)
PUBLIC 81d30 0 fmt::v11::detail::do_write_float<char, fmt::v11::basic_appender<char>, fmt::v11::detail::dragonbox::decimal_fp<float>, fmt::v11::detail::digit_grouping<char> >(fmt::v11::basic_appender<char>, fmt::v11::detail::dragonbox::decimal_fp<float> const&, fmt::v11::format_specs const&, fmt::v11::detail::float_specs, fmt::v11::detail::locale_ref)::{lambda(fmt::v11::basic_appender<char>(fmt::v11::basic_appender<char>))#1}::operator() const
PUBLIC 81e84 0 fmt::v11::detail::digit_grouping<char>::digit_grouping(fmt::v11::detail::locale_ref, bool)
PUBLIC 820ec 0 fmt::v11::detail::digit_grouping<char>::~digit_grouping()
PUBLIC 82130 0 fmt::v11::detail::write_exponent<char, fmt::v11::basic_appender<char> >(int, fmt::v11::basic_appender<char>)
PUBLIC 82300 0 _ZN3fmt3v116detail17write_significandIcjTnNSt6__ndk19enable_ifIXsr3std11is_integralIT0_EE5valueEiE4typeELi0EEEPT_S9_S5_iiS8_
PUBLIC 8247c 0 fmt::v11::detail::digit_grouping<char>::apply<fmt::v11::basic_appender<char>, char>(fmt::v11::basic_appender<char>, fmt::v11::basic_string_view<char>) const
PUBLIC 82834 0 fmt::v11::basic_memory_buffer<int, (unsigned long)500, std::__ndk1::allocator<int> >::grow(fmt::v11::detail::buffer<int>&, unsigned long)
PUBLIC 828d4 0 fmt::v11::detail::do_write_float<char, fmt::v11::basic_appender<char>, fmt::v11::detail::dragonbox::decimal_fp<double>, fmt::v11::detail::digit_grouping<char> >(fmt::v11::basic_appender<char>, fmt::v11::detail::dragonbox::decimal_fp<double> const&, fmt::v11::format_specs const&, fmt::v11::detail::float_specs, fmt::v11::detail::locale_ref)
PUBLIC 83590 0 fmt::v11::detail::do_write_float<char, fmt::v11::basic_appender<char>, fmt::v11::detail::dragonbox::decimal_fp<double>, fmt::v11::detail::digit_grouping<char> >(fmt::v11::basic_appender<char>, fmt::v11::detail::dragonbox::decimal_fp<double> const&, fmt::v11::format_specs const&, fmt::v11::detail::float_specs, fmt::v11::detail::locale_ref)::{lambda(fmt::v11::basic_appender<char>(fmt::v11::basic_appender<char>))#1}::operator() const
PUBLIC 836e8 0 _ZN3fmt3v116detail17write_significandIcmTnNSt6__ndk19enable_ifIXsr3std11is_integralIT0_EE5valueEiE4typeELi0EEEPT_S9_S5_iiS8_
PUBLIC 83878 0 fmt::v11::detail::write_float<char, fmt::v11::basic_appender<char>, long double>(fmt::v11::basic_appender<char>, long double, fmt::v11::format_specs, fmt::v11::detail::locale_ref)
PUBLIC 84358 0 fmt::v11::detail::write_padded<char, (fmt::v11::align::type)2, fmt::v11::basic_appender<char>, fmt::v11::detail::write_bytes<char, (fmt::v11::align::type)2, fmt::v11::basic_appender<char> >(fmt::v11::basic_appender<char>, fmt::v11::basic_string_view<char>, fmt::v11::format_specs const&)::{lambda(fmt::v11::basic_appender<char>&)#1}>(fmt::v11::basic_appender<char>, fmt::v11::format_specs const&, unsigned long, unsigned long, fmt::v11::detail::write_bytes<char, (fmt::v11::align::type)2, fmt::v11::basic_appender<char> >(fmt::v11::basic_appender<char>, fmt::v11::basic_string_view<char>, fmt::v11::format_specs const&)::{lambda(fmt::v11::basic_appender<char>&)#1})
PUBLIC 8454c 0 fmt::v11::detail::format_dragon(fmt::v11::detail::basic_fp<unsigned __int128>, unsigned int, int, fmt::v11::detail::buffer<char>&, int&)
PUBLIC 85970 0 fmt::v11::detail::bigint::operator<<=(int)
PUBLIC 85a94 0 fmt::v11::detail::bigint::assign_pow10(int)
PUBLIC 861f0 0 fmt::v11::detail::bigint::divmod_assign(fmt::v11::detail::bigint const&)
PUBLIC 86514 0 fmt::v11::basic_memory_buffer<unsigned int, (unsigned long)32, std::__ndk1::allocator<unsigned int> >::grow(fmt::v11::detail::buffer<unsigned int>&, unsigned long)
PUBLIC 865b4 0 fmt::v11::detail::do_write_float<char, fmt::v11::basic_appender<char>, fmt::v11::detail::big_decimal_fp, fmt::v11::detail::digit_grouping<char> >(fmt::v11::basic_appender<char>, fmt::v11::detail::big_decimal_fp const&, fmt::v11::format_specs const&, fmt::v11::detail::float_specs, fmt::v11::detail::locale_ref)
PUBLIC 87490 0 fmt::v11::detail::do_write_float<char, fmt::v11::basic_appender<char>, fmt::v11::detail::big_decimal_fp, fmt::v11::detail::digit_grouping<char> >(fmt::v11::basic_appender<char>, fmt::v11::detail::big_decimal_fp const&, fmt::v11::format_specs const&, fmt::v11::detail::float_specs, fmt::v11::detail::locale_ref)::{lambda(fmt::v11::basic_appender<char>(fmt::v11::basic_appender<char>))#1}::operator() const
PUBLIC 875f0 0 fmt::v11::detail::write_padded<char, (fmt::v11::align::type)2, fmt::v11::basic_appender<char>, fmt::v11::detail::write_ptr<char, fmt::v11::basic_appender<char>, unsigned long>(fmt::v11::basic_appender<char>, unsigned long, fmt::v11::format_specs const*)::{lambda(fmt::v11::basic_appender<char>&)#1}>(fmt::v11::basic_appender<char>, fmt::v11::format_specs const&, unsigned long, unsigned long, fmt::v11::detail::write_ptr<char, fmt::v11::basic_appender<char>, unsigned long>(fmt::v11::basic_appender<char>, unsigned long, fmt::v11::format_specs const*)::{lambda(fmt::v11::basic_appender<char>&)#1})
PUBLIC 87804 0 fmt::v11::detail::parse_replacement_field<char, fmt::v11::detail::vformat_to<char>(fmt::v11::detail::buffer<char>&, fmt::v11::basic_string_view<char>, fmt::v11::detail::vformat_args<char>::type, fmt::v11::detail::locale_ref)::format_handler&>(char const*, char const*, fmt::v11::detail::vformat_to<char>(fmt::v11::detail::buffer<char>&, fmt::v11::basic_string_view<char>, fmt::v11::detail::vformat_args<char>::type, fmt::v11::detail::locale_ref)::format_handler&)
PUBLIC 89338 0 fmt::v11::detail::write_int_noinline<char, fmt::v11::basic_appender<char>, unsigned long>(fmt::v11::basic_appender<char>, fmt::v11::detail::write_int_arg<unsigned long>, fmt::v11::format_specs const&, fmt::v11::detail::locale_ref)
PUBLIC 8a190 0 fmt::v11::detail::write_int_noinline<char, fmt::v11::basic_appender<char>, unsigned __int128>(fmt::v11::basic_appender<char>, fmt::v11::detail::write_int_arg<unsigned __int128>, fmt::v11::format_specs const&, fmt::v11::detail::locale_ref)
PUBLIC 8b220 0 _ZN3fmt3v116detail15format_hexfloatIdTnNSt6__ndk19enable_ifIXntsr16is_double_doubleIT_EE5valueEiE4typeELi0EEEvS5_NS0_12format_specsERNS1_6bufferIcEE
PUBLIC 8b740 0 fmt::v11::detail::format_float<double>(double, int, fmt::v11::detail::float_specs, fmt::v11::detail::buffer<char>&)
PUBLIC 8c18c 0 fmt::v11::detail::write_int<fmt::v11::basic_appender<char>, unsigned long, char>(fmt::v11::basic_appender<char>, unsigned long, unsigned int, fmt::v11::format_specs const&, fmt::v11::detail::digit_grouping<char> const&)
PUBLIC 8c708 0 fmt::v11::detail::write_int<fmt::v11::basic_appender<char>, unsigned __int128, char>(fmt::v11::basic_appender<char>, unsigned __int128, unsigned int, fmt::v11::format_specs const&, fmt::v11::detail::digit_grouping<char> const&)
PUBLIC 8cd90 0 <.plt ELF section in hiimjustin000.more_icons.android64.so>
STACK CFI INIT 35ba0 10 .cfa: sp 0 +
STACK CFI INIT 35bb0 8 .cfa: sp 0 +
STACK CFI INIT 35bb8 8 .cfa: sp 0 +
STACK CFI INIT 35bc0 14 .cfa: sp 0 +
STACK CFI INIT 35bd4 1c .cfa: sp 0 +
STACK CFI INIT 35bf0 10 .cfa: sp 0 +
STACK CFI INIT 35c00 134 .cfa: sp 0 +
STACK CFI INIT 35d34 84 .cfa: sp 0 +
STACK CFI INIT 35db8 f4 .cfa: sp 0 +
STACK CFI INIT 35eac a8 .cfa: sp 0 +
STACK CFI INIT 35f54 7c .cfa: sp 0 +
STACK CFI INIT 35fd0 14 .cfa: sp 0 +
STACK CFI INIT 35fe4 40 .cfa: sp 0 +
STACK CFI INIT 36024 28 .cfa: sp 0 +
STACK CFI INIT 3604c 190 .cfa: sp 0 +
STACK CFI INIT 361dc 2c8 .cfa: sp 0 +
STACK CFI INIT 364a4 8 .cfa: sp 0 +
STACK CFI INIT 364ac 8 .cfa: sp 0 +
STACK CFI INIT 364b4 44 .cfa: sp 0 +
STACK CFI INIT 364f8 e8 .cfa: sp 0 +
STACK CFI INIT 365e0 e8 .cfa: sp 0 +
STACK CFI INIT 366c8 14 .cfa: sp 0 +
STACK CFI INIT 366dc 10 .cfa: sp 0 +
STACK CFI INIT 366ec 10 .cfa: sp 0 +
STACK CFI INIT 366fc f0 .cfa: sp 0 +
STACK CFI INIT 367ec 44 .cfa: sp 0 +
STACK CFI INIT 36830 c .cfa: sp 0 +
STACK CFI INIT 3683c c .cfa: sp 0 +
STACK CFI INIT 36848 2c .cfa: sp 0 +
STACK CFI INIT 36874 23c .cfa: sp 0 +
STACK CFI INIT 36ab0 c .cfa: sp 0 +
STACK CFI INIT 36abc 120 .cfa: sp 0 +
STACK CFI INIT 36bdc 494 .cfa: sp 0 +
STACK CFI INIT 37070 b78 .cfa: sp 0 +
STACK CFI INIT 37be8 134 .cfa: sp 0 +
STACK CFI INIT 37d1c 210 .cfa: sp 0 +
STACK CFI INIT 37f2c 38c .cfa: sp 0 +
STACK CFI INIT 382b8 1c8 .cfa: sp 0 +
STACK CFI INIT 38480 9c4 .cfa: sp 0 +
STACK CFI INIT 38e44 2d4 .cfa: sp 0 +
STACK CFI INIT 39118 130 .cfa: sp 0 +
STACK CFI INIT 39248 120 .cfa: sp 0 +
STACK CFI INIT 39368 1c8 .cfa: sp 0 +
STACK CFI INIT 39530 168 .cfa: sp 0 +
STACK CFI INIT 39698 fc .cfa: sp 0 +
STACK CFI INIT 39794 30 .cfa: sp 0 +
STACK CFI INIT 398f0 5c .cfa: sp 0 +
STACK CFI 398f4 .cfa: sp 16 +
STACK CFI 398f8 .cfa: x29 16 + .ra: .cfa -8 + ^ x29: .cfa -16 + ^
STACK CFI 3993c .cfa: sp 16 +
STACK CFI 39940 .cfa: sp 0 +
STACK CFI 39944 .cfa: sp 16 +
STACK CFI 39948 .cfa: sp 0 +
STACK CFI INIT 3994c 7c .cfa: sp 0 +
STACK CFI 39950 .cfa: sp 48 +
STACK CFI 3995c .cfa: x29 48 + x19: .cfa -8 + ^ x20: .cfa -16 + ^ x21: .cfa -32 + ^ .ra: .cfa -40 + ^ x29: .cfa -48 + ^
STACK CFI 399a8 .cfa: sp 48 +
STACK CFI 399b4 .cfa: sp 0 +
STACK CFI 399b8 .cfa: sp 48 +
STACK CFI 399c4 .cfa: sp 0 +
STACK CFI INIT 399c8 5c .cfa: sp 0 +
STACK CFI 399cc .cfa: sp 16 +
STACK CFI 399d0 .cfa: x29 16 + .ra: .cfa -8 + ^ x29: .cfa -16 + ^
STACK CFI 39a14 .cfa: sp 16 +
STACK CFI 39a18 .cfa: sp 0 +
STACK CFI 39a1c .cfa: sp 16 +
STACK CFI 39a20 .cfa: sp 0 +
STACK CFI INIT 39a24 5c .cfa: sp 0 +
STACK CFI 39a28 .cfa: sp 16 +
STACK CFI 39a2c .cfa: x29 16 + .ra: .cfa -8 + ^ x29: .cfa -16 + ^
STACK CFI 39a70 .cfa: sp 16 +
STACK CFI 39a74 .cfa: sp 0 +
STACK CFI 39a78 .cfa: sp 16 +
STACK CFI 39a7c .cfa: sp 0 +
STACK CFI INIT 39a80 5c .cfa: sp 0 +
STACK CFI 39a84 .cfa: sp 16 +
STACK CFI 39a88 .cfa: x29 16 + .ra: .cfa -8 + ^ x29: .cfa -16 + ^
STACK CFI 39acc .cfa: sp 16 +
STACK CFI 39ad0 .cfa: sp 0 +
STACK CFI 39ad4 .cfa: sp 16 +
STACK CFI 39ad8 .cfa: sp 0 +
STACK CFI INIT 39adc 5c .cfa: sp 0 +
STACK CFI 39ae0 .cfa: sp 16 +
STACK CFI 39ae4 .cfa: x29 16 + .ra: .cfa -8 + ^ x29: .cfa -16 + ^
STACK CFI 39b28 .cfa: sp 16 +
STACK CFI 39b2c .cfa: sp 0 +
STACK CFI 39b30 .cfa: sp 16 +
STACK CFI 39b34 .cfa: sp 0 +
STACK CFI INIT 39b38 5c .cfa: sp 0 +
STACK CFI 39b3c .cfa: sp 16 +
STACK CFI 39b40 .cfa: x29 16 + .ra: .cfa -8 + ^ x29: .cfa -16 + ^
STACK CFI 39b84 .cfa: sp 16 +
STACK CFI 39b88 .cfa: sp 0 +
STACK CFI 39b8c .cfa: sp 16 +
STACK CFI 39b90 .cfa: sp 0 +
STACK CFI INIT 39b94 5c .cfa: sp 0 +
STACK CFI 39b98 .cfa: sp 16 +
STACK CFI 39b9c .cfa: x29 16 + .ra: .cfa -8 + ^ x29: .cfa -16 + ^
STACK CFI 39be0 .cfa: sp 16 +
STACK CFI 39be4 .cfa: sp 0 +
STACK CFI 39be8 .cfa: sp 16 +
STACK CFI 39bec .cfa: sp 0 +
STACK CFI INIT 39bf0 5c .cfa: sp 0 +
STACK CFI 39bf4 .cfa: sp 16 +
STACK CFI 39bf8 .cfa: x29 16 + .ra: .cfa -8 + ^ x29: .cfa -16 + ^
STACK CFI 39c3c .cfa: sp 16 +
STACK CFI 39c40 .cfa: sp 0 +
STACK CFI 39c44 .cfa: sp 16 +
STACK CFI 39c48 .cfa: sp 0 +
STACK CFI INIT 39c4c 5c .cfa: sp 0 +
STACK CFI 39c50 .cfa: sp 16 +
STACK CFI 39c54 .cfa: x29 16 + .ra: .cfa -8 + ^ x29: .cfa -16 + ^
STACK CFI 39c98 .cfa: sp 16 +
STACK CFI 39c9c .cfa: sp 0 +
STACK CFI 39ca0 .cfa: sp 16 +
STACK CFI 39ca4 .cfa: sp 0 +
STACK CFI INIT 39ca8 5c .cfa: sp 0 +
STACK CFI 39cac .cfa: sp 16 +
STACK CFI 39cb0 .cfa: x29 16 + .ra: .cfa -8 + ^ x29: .cfa -16 + ^
STACK CFI 39cf4 .cfa: sp 16 +
STACK CFI 39cf8 .cfa: sp 0 +
STACK CFI 39cfc .cfa: sp 16 +
STACK CFI 39d00 .cfa: sp 0 +
STACK CFI INIT 39d04 158 .cfa: sp 0 +
STACK CFI 39de4 .cfa: sp 32 +
STACK CFI 39dec .cfa: x29 32 + x19: .cfa -16 + ^ .ra: .cfa -24 + ^ x29: .cfa -32 + ^
STACK CFI 39e04 .cfa: sp 32 +
STACK CFI 39e0c .cfa: sp 0 +
STACK CFI 39e10 .cfa: x29 32 +
STACK CFI 39e50 .cfa: sp 32 +
STACK CFI 39e58 .cfa: sp 0 +
STACK CFI INIT 3a42c 88 .cfa: sp 0 +
STACK CFI 3a430 .cfa: sp 64 +
STACK CFI 3a440 .cfa: x29 64 + x19: .cfa -8 + ^ x20: .cfa -16 + ^ x21: .cfa -24 + ^ x22: .cfa -32 + ^ x23: .cfa -48 + ^ .ra: .cfa -56 + ^ x29: .cfa -64 + ^
STACK CFI 3a488 .cfa: sp 64 +
STACK CFI 3a498 .cfa: sp 0 +
STACK CFI 3a49c .cfa: x29 64 +
STACK CFI 3a4a0 .cfa: sp 64 +
STACK CFI 3a4b0 .cfa: sp 0 +
STACK CFI INIT 3a614 fc .cfa: sp 0 +
STACK CFI 3a630 .cfa: sp 48 +
STACK CFI 3a63c .cfa: x29 48 + x19: .cfa -8 + ^ x20: .cfa -16 + ^ x21: .cfa -24 + ^ x22: .cfa -32 + ^ .ra: .cfa -40 + ^ x29: .cfa -48 + ^
STACK CFI 3a6e0 .cfa: sp 48 +
STACK CFI 3a6ec .cfa: sp 0 +
STACK CFI 3a6f8 .cfa: x29 48 +
STACK CFI 3a700 .cfa: sp 48 +
STACK CFI 3a70c .cfa: sp 0 +
STACK CFI INIT 3a710 84 .cfa: sp 0 +
STACK CFI INIT 3bbfc 10 .cfa: sp 0 +
STACK CFI 3bc00 .cfa: sp 16 +
STACK CFI 3bc04 .cfa: x29 16 + .ra: .cfa -8 + ^ x29: .cfa -16 + ^
STACK CFI INIT 3bc0c 14 .cfa: sp 0 +
STACK CFI 3bc10 .cfa: sp 16 +
STACK CFI 3bc14 .cfa: x29 16 + .ra: .cfa -8 + ^ x29: .cfa -16 + ^
STACK CFI INIT 3bc70 30 .cfa: sp 0 +
STACK CFI 3bc74 .cfa: sp 32 +
STACK CFI 3bc7c .cfa: x29 32 + x19: .cfa -16 + ^ .ra: .cfa -24 + ^ x29: .cfa -32 + ^
STACK CFI 3bc94 .cfa: sp 32 +
STACK CFI 3bc9c .cfa: sp 0 +
STACK CFI INIT 3bca0 34 .cfa: sp 0 +
STACK CFI 3bca4 .cfa: sp 32 +
STACK CFI 3bcac .cfa: x29 32 + x19: .cfa -16 + ^ .ra: .cfa -24 + ^ x29: .cfa -32 + ^
STACK CFI INIT 3bdbc 34 .cfa: sp 0 +
STACK CFI 3bdc0 .cfa: sp 16 +
STACK CFI 3bdc4 .cfa: x29 16 + .ra: .cfa -8 + ^ x29: .cfa -16 + ^
STACK CFI INIT 3bdf0 4 .cfa: sp 0 +
STACK CFI INIT 3bdf4 14 .cfa: sp 0 +
STACK CFI INIT 3be08 94 .cfa: sp 0 +
STACK CFI 3be0c .cfa: sp 48 +
STACK CFI 3be18 .cfa: x29 48 + x19: .cfa -8 + ^ x20: .cfa -16 + ^ x21: .cfa -24 + ^ x22: .cfa -32 + ^ .ra: .cfa -40 + ^ x29: .cfa -48 + ^
STACK CFI 3be30 .cfa: sp 48 +
STACK CFI 3be3c .cfa: sp 0 +
STACK CFI 3be40 .cfa: x29 48 +
STACK CFI 3be84 .cfa: sp 48 +
STACK CFI 3be90 .cfa: sp 0 +
STACK CFI 3be94 .cfa: x29 48 +
STACK CFI INIT 3be9c 14 .cfa: sp 0 +
STACK CFI INIT 3beb0 14 .cfa: sp 0 +
STACK CFI INIT 3c0ac 18 .cfa: sp 0 +
STACK CFI 3c0b0 .cfa: sp 16 +
STACK CFI 3c0b4 .cfa: x29 16 + .ra: .cfa -8 + ^ x29: .cfa -16 + ^
STACK CFI 3c0bc .cfa: sp 16 +
STACK CFI 3c0c0 .cfa: sp 0 +
STACK CFI INIT 3c0c4 4 .cfa: sp 0 +
STACK CFI INIT 3c0c8 4 .cfa: sp 0 +
STACK CFI INIT 3c0cc 34 .cfa: sp 0 +
STACK CFI 3c0d0 .cfa: sp 32 +
STACK CFI 3c0d8 .cfa: x29 32 + x19: .cfa -16 + ^ .ra: .cfa -24 + ^ x29: .cfa -32 + ^
STACK CFI 3c0f4 .cfa: sp 32 +
STACK CFI 3c0fc .cfa: sp 0 +
STACK CFI INIT 3c100 14 .cfa: sp 0 +
STACK CFI INIT 3c114 4 .cfa: sp 0 +
STACK CFI INIT 3c118 4 .cfa: sp 0 +
STACK CFI INIT 3c11c 1c .cfa: sp 0 +
STACK CFI INIT 3c138 1c .cfa: sp 0 +
STACK CFI INIT 3c154 c .cfa: sp 0 +
STACK CFI INIT 3c160 b0 .cfa: sp 0 +
STACK CFI 3c164 .cfa: sp 80 +
STACK CFI 3c174 .cfa: x29 48 + x19: .cfa -8 + ^ x20: .cfa -16 + ^ x21: .cfa -32 + ^ .ra: .cfa -40 + ^ x29: .cfa -48 + ^
STACK CFI 3c1f8 .cfa: sp 80 +
STACK CFI 3c208 .cfa: sp 0 +
STACK CFI 3c20c .cfa: x29 48 +
STACK CFI INIT 3c594 6c .cfa: sp 0 +
STACK CFI 3c598 .cfa: sp 32 +
STACK CFI 3c5a0 .cfa: x29 32 + x19: .cfa -16 + ^ .ra: .cfa -24 + ^ x29: .cfa -32 + ^
STACK CFI 3c5f4 .cfa: sp 32 +
STACK CFI 3c5fc .cfa: sp 0 +
STACK CFI INIT 3c600 74 .cfa: sp 0 +
STACK CFI 3c604 .cfa: sp 32 +
STACK CFI 3c60c .cfa: x29 32 + x19: .cfa -16 + ^ .ra: .cfa -24 + ^ x29: .cfa -32 + ^
STACK CFI 3c668 .cfa: sp 32 +
STACK CFI 3c670 .cfa: sp 0 +
STACK CFI INIT 3c8c8 44c .cfa: sp 0 +
STACK CFI INIT 3d1d4 50 .cfa: sp 0 +
STACK CFI 3d1f8 .cfa: sp 32 +
STACK CFI 3d200 .cfa: x29 32 + x19: .cfa -16 + ^ .ra: .cfa -24 + ^ x29: .cfa -32 + ^
STACK CFI 3d214 .cfa: sp 32 +
STACK CFI 3d21c .cfa: sp 0 +
STACK CFI INIT 3d224 1ac .cfa: sp 0 +
STACK CFI 3d228 .cfa: sp 32 +
STACK CFI 3d230 .cfa: x29 32 + x19: .cfa -8 + ^ x20: .cfa -16 + ^ .ra: .cfa -24 + ^ x29: .cfa -32 + ^
STACK CFI 3d320 .cfa: sp 32 +
STACK CFI 3d328 .cfa: sp 0 +
STACK CFI 3d32c .cfa: x29 32 +
STACK CFI INIT 3d3d0 104 .cfa: sp 0 +
STACK CFI 3d3d4 .cfa: sp 64 +
STACK CFI 3d3e4 .cfa: x29 64 + x19: .cfa -8 + ^ x20: .cfa -16 + ^ x21: .cfa -24 + ^ x22: .cfa -32 + ^ x23: .cfa -48 + ^ .ra: .cfa -56 + ^ x29: .cfa -64 + ^
STACK CFI 3d440 .cfa: sp 64 +
STACK CFI 3d450 .cfa: sp 0 +
STACK CFI 3d454 .cfa: x29 64 +
STACK CFI 3d470 .cfa: sp 64 +
STACK CFI 3d480 .cfa: sp 0 +
STACK CFI 3d484 .cfa: x29 64 +
STACK CFI 3d4c0 .cfa: sp 64 +
STACK CFI 3d4d0 .cfa: sp 0 +
STACK CFI INIT 3d4d4 34 .cfa: sp 0 +
STACK CFI 3d4d8 .cfa: sp 16 +
STACK CFI 3d4dc .cfa: x29 16 + .ra: .cfa -8 + ^ x29: .cfa -16 + ^
STACK CFI INIT 3d508 24 .cfa: sp 0 +
STACK CFI 3d50c .cfa: sp 32 +
STACK CFI 3d514 .cfa: x29 32 + x19: .cfa -16 + ^ .ra: .cfa -24 + ^ x29: .cfa -32 + ^
STACK CFI 3d520 .cfa: sp 32 +
STACK CFI 3d528 .cfa: sp 0 +
STACK CFI INIT 3d52c 18 .cfa: sp 0 +
STACK CFI 3d530 .cfa: sp 16 +
STACK CFI 3d534 .cfa: x29 16 + .ra: .cfa -8 + ^ x29: .cfa -16 + ^
STACK CFI 3d53c .cfa: sp 16 +
STACK CFI 3d540 .cfa: sp 0 +
STACK CFI INIT 3d544 4 .cfa: sp 0 +
STACK CFI INIT 3d548 4 .cfa: sp 0 +
STACK CFI INIT 3d54c 34 .cfa: sp 0 +
STACK CFI 3d550 .cfa: sp 32 +
STACK CFI 3d558 .cfa: x29 32 + x19: .cfa -16 + ^ .ra: .cfa -24 + ^ x29: .cfa -32 + ^
STACK CFI 3d574 .cfa: sp 32 +
STACK CFI 3d57c .cfa: sp 0 +
STACK CFI INIT 3d580 14 .cfa: sp 0 +
STACK CFI INIT 3d594 4 .cfa: sp 0 +
STACK CFI INIT 3d598 4 .cfa: sp 0 +
STACK CFI INIT 3d59c 1c .cfa: sp 0 +
STACK CFI INIT 3d5b8 1c .cfa: sp 0 +
STACK CFI INIT 3d5d4 c .cfa: sp 0 +
STACK CFI INIT 3d5e0 b0 .cfa: sp 0 +
STACK CFI 3d5e4 .cfa: sp 80 +
STACK CFI 3d5f4 .cfa: x29 48 + x19: .cfa -8 + ^ x20: .cfa -16 + ^ x21: .cfa -32 + ^ .ra: .cfa -40 + ^ x29: .cfa -48 + ^
STACK CFI 3d678 .cfa: sp 80 +
STACK CFI 3d688 .cfa: sp 0 +
STACK CFI 3d68c .cfa: x29 48 +
STACK CFI INIT 3da14 6c .cfa: sp 0 +
STACK CFI 3da18 .cfa: sp 32 +
STACK CFI 3da20 .cfa: x29 32 + x19: .cfa -16 + ^ .ra: .cfa -24 + ^ x29: .cfa -32 + ^
STACK CFI 3da74 .cfa: sp 32 +
STACK CFI 3da7c .cfa: sp 0 +
STACK CFI INIT 3da80 74 .cfa: sp 0 +
STACK CFI 3da84 .cfa: sp 32 +
STACK CFI 3da8c .cfa: x29 32 + x19: .cfa -16 + ^ .ra: .cfa -24 + ^ x29: .cfa -32 + ^
STACK CFI 3dae8 .cfa: sp 32 +
STACK CFI 3daf0 .cfa: sp 0 +
STACK CFI INIT 3daf4 18 .cfa: sp 0 +
STACK CFI 3daf8 .cfa: sp 16 +
STACK CFI 3dafc .cfa: x29 16 + .ra: .cfa -8 + ^ x29: .cfa -16 + ^
STACK CFI 3db04 .cfa: sp 16 +
STACK CFI 3db08 .cfa: sp 0 +
STACK CFI INIT 3db0c 4 .cfa: sp 0 +
STACK CFI INIT 3db10 4 .cfa: sp 0 +
STACK CFI INIT 3db14 34 .cfa: sp 0 +
STACK CFI 3db18 .cfa: sp 32 +
STACK CFI 3db20 .cfa: x29 32 + x19: .cfa -16 + ^ .ra: .cfa -24 + ^ x29: .cfa -32 + ^
STACK CFI 3db3c .cfa: sp 32 +
STACK CFI 3db44 .cfa: sp 0 +
STACK CFI INIT 3db48 14 .cfa: sp 0 +
STACK CFI INIT 3db5c 4 .cfa: sp 0 +
STACK CFI INIT 3db60 4 .cfa: sp 0 +
STACK CFI INIT 3db64 1c .cfa: sp 0 +
STACK CFI INIT 3db80 1c .cfa: sp 0 +
STACK CFI INIT 3db9c c .cfa: sp 0 +
STACK CFI INIT 3dba8 b0 .cfa: sp 0 +
STACK CFI 3dbac .cfa: sp 80 +
STACK CFI 3dbbc .cfa: x29 48 + x19: .cfa -8 + ^ x20: .cfa -16 + ^ x21: .cfa -32 + ^ .ra: .cfa -40 + ^ x29: .cfa -48 + ^
STACK CFI 3dc40 .cfa: sp 80 +
STACK CFI 3dc50 .cfa: sp 0 +
STACK CFI 3dc54 .cfa: x29 48 +
STACK CFI INIT 3dfdc 6c .cfa: sp 0 +
STACK CFI 3dfe0 .cfa: sp 32 +
STACK CFI 3dfe8 .cfa: x29 32 + x19: .cfa -16 + ^ .ra: .cfa -24 + ^ x29: .cfa -32 + ^
STACK CFI 3e03c .cfa: sp 32 +
STACK CFI 3e044 .cfa: sp 0 +
STACK CFI INIT 3e048 74 .cfa: sp 0 +
STACK CFI 3e04c .cfa: sp 32 +
STACK CFI 3e054 .cfa: x29 32 + x19: .cfa -16 + ^ .ra: .cfa -24 + ^ x29: .cfa -32 + ^
STACK CFI 3e0b0 .cfa: sp 32 +
STACK CFI 3e0b8 .cfa: sp 0 +
STACK CFI INIT 3e4d8 60 .cfa: sp 0 +
STACK CFI 3e4e8 .cfa: sp 32 +
STACK CFI 3e4f0 .cfa: x29 32 + x19: .cfa -8 + ^ x20: .cfa -16 + ^ .ra: .cfa -24 + ^ x29: .cfa -32 + ^
STACK CFI 3e52c .cfa: sp 32 +
STACK CFI 3e534 .cfa: sp 0 +
STACK CFI INIT 3e538 ac .cfa: sp 0 +
STACK CFI 3e53c .cfa: sp 64 +
STACK CFI 3e54c .cfa: x29 64 + x19: .cfa -8 + ^ x20: .cfa -16 + ^ x21: .cfa -24 + ^ x22: .cfa -32 + ^ x23: .cfa -48 + ^ .ra: .cfa -56 + ^ x29: .cfa -64 + ^
STACK CFI 3e5c8 .cfa: sp 64 +
STACK CFI 3e5d8 .cfa: sp 0 +
STACK CFI 3e5dc .cfa: x29 64 +
STACK CFI INIT 3e5e4 13c .cfa: sp 0 +
STACK CFI 3e5e8 .cfa: sp 64 +
STACK CFI 3e5f8 .cfa: x29 64 + x19: .cfa -8 + ^ x20: .cfa -16 + ^ x21: .cfa -24 + ^ x22: .cfa -32 + ^ x23: .cfa -40 + ^ x24: .cfa -48 + ^ .ra: .cfa -56 + ^ x29: .cfa -64 + ^
STACK CFI 3e6d8 .cfa: sp 64 +
STACK CFI 3e6e8 .cfa: sp 0 +
STACK CFI 3e6ec .cfa: x29 64 +
STACK CFI INIT 3e720 14 .cfa: sp 0 +
STACK CFI 3e724 .cfa: sp 16 +
STACK CFI 3e728 .cfa: x29 16 + .ra: .cfa -8 + ^ x29: .cfa -16 + ^
STACK CFI INIT 3e734 b0 .cfa: sp 0 +
STACK CFI 3e738 .cfa: sp 80 +
STACK CFI 3e748 .cfa: x29 48 + x19: .cfa -8 + ^ x20: .cfa -16 + ^ x21: .cfa -32 + ^ .ra: .cfa -40 + ^ x29: .cfa -48 + ^
STACK CFI 3e7cc .cfa: sp 80 +
STACK CFI 3e7dc .cfa: sp 0 +
STACK CFI 3e7e0 .cfa: x29 48 +
STACK CFI INIT 3ea9c 6c .cfa: sp 0 +
STACK CFI 3eaa0 .cfa: sp 32 +
STACK CFI 3eaa8 .cfa: x29 32 + x19: .cfa -16 + ^ .ra: .cfa -24 + ^ x29: .cfa -32 + ^
STACK CFI 3eafc .cfa: sp 32 +
STACK CFI 3eb04 .cfa: sp 0 +
STACK CFI INIT 3eb08 74 .cfa: sp 0 +
STACK CFI 3eb0c .cfa: sp 32 +
STACK CFI 3eb14 .cfa: x29 32 + x19: .cfa -16 + ^ .ra: .cfa -24 + ^ x29: .cfa -32 + ^
STACK CFI 3eb70 .cfa: sp 32 +
STACK CFI 3eb78 .cfa: sp 0 +
STACK CFI INIT 3eb7c 4 .cfa: sp 0 +
STACK CFI INIT 3eb80 4 .cfa: sp 0 +
STACK CFI INIT 3eb84 34 .cfa: sp 0 +
STACK CFI 3eb88 .cfa: sp 32 +
STACK CFI 3eb90 .cfa: x29 32 + x19: .cfa -16 + ^ .ra: .cfa -24 + ^ x29: .cfa -32 + ^
STACK CFI 3ebac .cfa: sp 32 +
STACK CFI 3ebb4 .cfa: sp 0 +
STACK CFI INIT 3ebb8 14 .cfa: sp 0 +
STACK CFI INIT 3ebcc 4 .cfa: sp 0 +
STACK CFI INIT 3ebd0 4 .cfa: sp 0 +
STACK CFI INIT 3ebd4 14 .cfa: sp 0 +
STACK CFI INIT 3ebe8 1c .cfa: sp 0 +
STACK CFI INIT 3ec04 c .cfa: sp 0 +
STACK CFI INIT 3ec10 38 .cfa: sp 0 +
STACK CFI 3ec30 .cfa: sp 16 +
STACK CFI 3ec34 .cfa: x29 16 + .ra: .cfa -8 + ^ x29: .cfa -16 + ^
STACK CFI 3ec3c .cfa: sp 16 +
STACK CFI 3ec40 .cfa: sp 0 +
STACK CFI INIT 3ec48 4 .cfa: sp 0 +
STACK CFI INIT 3ec4c 4 .cfa: sp 0 +
STACK CFI INIT 3ec50 34 .cfa: sp 0 +
STACK CFI 3ec54 .cfa: sp 32 +
STACK CFI 3ec5c .cfa: x29 32 + x19: .cfa -16 + ^ .ra: .cfa -24 + ^ x29: .cfa -32 + ^
STACK CFI 3ec78 .cfa: sp 32 +
STACK CFI 3ec80 .cfa: sp 0 +
STACK CFI INIT 3ec84 14 .cfa: sp 0 +
STACK CFI INIT 3ec98 4 .cfa: sp 0 +
STACK CFI INIT 3ec9c 4 .cfa: sp 0 +
STACK CFI INIT 3eca0 14 .cfa: sp 0 +
STACK CFI INIT 3ecb4 1c .cfa: sp 0 +
STACK CFI INIT 3ecd0 c .cfa: sp 0 +
STACK CFI INIT 3ecdc b0 .cfa: sp 0 +
STACK CFI 3ece0 .cfa: sp 80 +
STACK CFI 3ecf0 .cfa: x29 48 + x19: .cfa -8 + ^ x20: .cfa -16 + ^ x21: .cfa -32 + ^ .ra: .cfa -40 + ^ x29: .cfa -48 + ^
STACK CFI 3ed74 .cfa: sp 80 +
STACK CFI 3ed84 .cfa: sp 0 +
STACK CFI 3ed88 .cfa: x29 48 +
STACK CFI INIT 3f0fc 6c .cfa: sp 0 +
STACK CFI 3f100 .cfa: sp 32 +
STACK CFI 3f108 .cfa: x29 32 + x19: .cfa -16 + ^ .ra: .cfa -24 + ^ x29: .cfa -32 + ^
STACK CFI 3f15c .cfa: sp 32 +
STACK CFI 3f164 .cfa: sp 0 +
STACK CFI INIT 3f168 74 .cfa: sp 0 +
STACK CFI 3f16c .cfa: sp 32 +
STACK CFI 3f174 .cfa: x29 32 + x19: .cfa -16 + ^ .ra: .cfa -24 + ^ x29: .cfa -32 + ^
STACK CFI 3f1d0 .cfa: sp 32 +
STACK CFI 3f1d8 .cfa: sp 0 +
STACK CFI INIT 3f1dc b0 .cfa: sp 0 +
STACK CFI 3f278 .cfa: sp 16 +
STACK CFI 3f27c .cfa: x29 16 + .ra: .cfa -8 + ^ x29: .cfa -16 + ^
STACK CFI 3f280 .cfa: sp 16 +
STACK CFI 3f284 .cfa: sp 0 +
STACK CFI INIT 3f28c 4 .cfa: sp 0 +
STACK CFI INIT 3f290 4 .cfa: sp 0 +
STACK CFI INIT 3f294 34 .cfa: sp 0 +
STACK CFI 3f298 .cfa: sp 32 +
STACK CFI 3f2a0 .cfa: x29 32 + x19: .cfa -16 + ^ .ra: .cfa -24 + ^ x29: .cfa -32 + ^
STACK CFI 3f2bc .cfa: sp 32 +
STACK CFI 3f2c4 .cfa: sp 0 +
STACK CFI INIT 3f2c8 14 .cfa: sp 0 +
STACK CFI INIT 3f2dc 4 .cfa: sp 0 +
STACK CFI INIT 3f2e0 4 .cfa: sp 0 +
STACK CFI INIT 3f2e4 14 .cfa: sp 0 +
STACK CFI INIT 3f2f8 1c .cfa: sp 0 +
STACK CFI INIT 3f314 c .cfa: sp 0 +
STACK CFI INIT 3f320 b0 .cfa: sp 0 +
STACK CFI 3f324 .cfa: sp 80 +
STACK CFI 3f334 .cfa: x29 48 + x19: .cfa -8 + ^ x20: .cfa -16 + ^ x21: .cfa -32 + ^ .ra: .cfa -40 + ^ x29: .cfa -48 + ^
STACK CFI 3f3b8 .cfa: sp 80 +
STACK CFI 3f3c8 .cfa: sp 0 +
STACK CFI 3f3cc .cfa: x29 48 +
STACK CFI INIT 3f740 6c .cfa: sp 0 +
STACK CFI 3f744 .cfa: sp 32 +
STACK CFI 3f74c .cfa: x29 32 + x19: .cfa -16 + ^ .ra: .cfa -24 + ^ x29: .cfa -32 + ^
STACK CFI 3f7a0 .cfa: sp 32 +
STACK CFI 3f7a8 .cfa: sp 0 +
STACK CFI INIT 3f7ac 74 .cfa: sp 0 +
STACK CFI 3f7b0 .cfa: sp 32 +
STACK CFI 3f7b8 .cfa: x29 32 + x19: .cfa -16 + ^ .ra: .cfa -24 + ^ x29: .cfa -32 + ^
STACK CFI 3f814 .cfa: sp 32 +
STACK CFI 3f81c .cfa: sp 0 +
STACK CFI INIT 3f820 78 .cfa: sp 0 +
STACK CFI 3f824 .cfa: sp 64 +
STACK CFI 3f830 .cfa: x29 32 + x19: .cfa -8 + ^ x20: .cfa -16 + ^ .ra: .cfa -24 + ^ x29: .cfa -32 + ^
STACK CFI 3f884 .cfa: sp 64 +
STACK CFI 3f890 .cfa: sp 0 +
STACK CFI 3f894 .cfa: x29 32 +
STACK CFI INIT 3f898 b0 .cfa: sp 0 +
STACK CFI 3f89c .cfa: sp 80 +
STACK CFI 3f8ac .cfa: x29 48 + x19: .cfa -8 + ^ x20: .cfa -16 + ^ x21: .cfa -32 + ^ .ra: .cfa -40 + ^ x29: .cfa -48 + ^
STACK CFI 3f930 .cfa: sp 80 +
STACK CFI 3f940 .cfa: sp 0 +
STACK CFI 3f944 .cfa: x29 48 +
STACK CFI INIT 3fc0c 6c .cfa: sp 0 +
STACK CFI 3fc10 .cfa: sp 32 +
STACK CFI 3fc18 .cfa: x29 32 + x19: .cfa -16 + ^ .ra: .cfa -24 + ^ x29: .cfa -32 + ^
STACK CFI 3fc6c .cfa: sp 32 +
STACK CFI 3fc74 .cfa: sp 0 +
STACK CFI INIT 3fc78 74 .cfa: sp 0 +
STACK CFI 3fc7c .cfa: sp 32 +
STACK CFI 3fc84 .cfa: x29 32 + x19: .cfa -16 + ^ .ra: .cfa -24 + ^ x29: .cfa -32 + ^
STACK CFI 3fce0 .cfa: sp 32 +
STACK CFI 3fce8 .cfa: sp 0 +
STACK CFI INIT 3fcec 4 .cfa: sp 0 +
STACK CFI INIT 3fcf0 4 .cfa: sp 0 +
STACK CFI INIT 3fcf4 34 .cfa: sp 0 +
STACK CFI 3fcf8 .cfa: sp 32 +
STACK CFI 3fd00 .cfa: x29 32 + x19: .cfa -16 + ^ .ra: .cfa -24 + ^ x29: .cfa -32 + ^
STACK CFI 3fd1c .cfa: sp 32 +
STACK CFI 3fd24 .cfa: sp 0 +
STACK CFI INIT 3fd28 14 .cfa: sp 0 +
STACK CFI INIT 3fd3c 4 .cfa: sp 0 +
STACK CFI INIT 3fd40 4 .cfa: sp 0 +
STACK CFI INIT 3fd44 18 .cfa: sp 0 +
STACK CFI INIT 3fd5c 1c .cfa: sp 0 +
STACK CFI INIT 3fd78 c .cfa: sp 0 +
STACK CFI INIT 3fd84 ac .cfa: sp 0 +
STACK CFI 3fd88 .cfa: sp 96 +
STACK CFI 3fd9c .cfa: x29 64 + x19: .cfa -8 + ^ x20: .cfa -16 + ^ x21: .cfa -24 + ^ x22: .cfa -32 + ^ x23: .cfa -48 + ^ .ra: .cfa -56 + ^ x29: .cfa -64 + ^
STACK CFI 3fe14 .cfa: sp 96 +
STACK CFI 3fe28 .cfa: sp 0 +
STACK CFI 3fe2c .cfa: x29 64 +
STACK CFI INIT 3fe30 4 .cfa: sp 0 +
STACK CFI INIT 3fe34 4 .cfa: sp 0 +
STACK CFI INIT 3fe38 34 .cfa: sp 0 +
STACK CFI 3fe3c .cfa: sp 32 +
STACK CFI 3fe44 .cfa: x29 32 + x19: .cfa -16 + ^ .ra: .cfa -24 + ^ x29: .cfa -32 + ^
STACK CFI 3fe60 .cfa: sp 32 +
STACK CFI 3fe68 .cfa: sp 0 +
STACK CFI INIT 3fe6c 14 .cfa: sp 0 +
STACK CFI INIT 3fe80 4 .cfa: sp 0 +
STACK CFI INIT 3fe84 4 .cfa: sp 0 +
STACK CFI INIT 3fe88 18 .cfa: sp 0 +
STACK CFI INIT 3fea0 1c .cfa: sp 0 +
STACK CFI INIT 3febc c .cfa: sp 0 +
STACK CFI INIT 3fec8 b0 .cfa: sp 0 +
STACK CFI 3fecc .cfa: sp 80 +
STACK CFI 3fedc .cfa: x29 48 + x19: .cfa -8 + ^ x20: .cfa -16 + ^ x21: .cfa -32 + ^ .ra: .cfa -40 + ^ x29: .cfa -48 + ^
STACK CFI 3ff60 .cfa: sp 80 +
STACK CFI 3ff70 .cfa: sp 0 +
STACK CFI 3ff74 .cfa: x29 48 +
STACK CFI INIT 402f4 6c .cfa: sp 0 +
STACK CFI 402f8 .cfa: sp 32 +
STACK CFI 40300 .cfa: x29 32 + x19: .cfa -16 + ^ .ra: .cfa -24 + ^ x29: .cfa -32 + ^
STACK CFI 40354 .cfa: sp 32 +
STACK CFI 4035c .cfa: sp 0 +
STACK CFI INIT 40360 74 .cfa: sp 0 +
STACK CFI 40364 .cfa: sp 32 +
STACK CFI 4036c .cfa: x29 32 + x19: .cfa -16 + ^ .ra: .cfa -24 + ^ x29: .cfa -32 + ^
STACK CFI 403c8 .cfa: sp 32 +
STACK CFI 403d0 .cfa: sp 0 +
STACK CFI INIT 41568 8 .cfa: sp 0 +
STACK CFI INIT 41570 24 .cfa: sp 0 +
STACK CFI 41574 .cfa: sp 32 +
STACK CFI 4157c .cfa: x29 32 + x19: .cfa -16 + ^ .ra: .cfa -24 + ^ x29: .cfa -32 + ^
STACK CFI 41588 .cfa: sp 32 +
STACK CFI 41590 .cfa: sp 0 +
STACK CFI INIT 41594 4 .cfa: sp 0 +
STACK CFI INIT 41840 8 .cfa: sp 0 +
STACK CFI INIT 41848 24 .cfa: sp 0 +
STACK CFI 4184c .cfa: sp 32 +
STACK CFI 41854 .cfa: x29 32 + x19: .cfa -16 + ^ .ra: .cfa -24 + ^ x29: .cfa -32 + ^
STACK CFI 41860 .cfa: sp 32 +
STACK CFI 41868 .cfa: sp 0 +
STACK CFI INIT 4186c 88 .cfa: sp 0 +
STACK CFI 41870 .cfa: sp 48 +
STACK CFI 4187c .cfa: x29 48 + x19: .cfa -8 + ^ x20: .cfa -16 + ^ x21: .cfa -24 + ^ x22: .cfa -32 + ^ .ra: .cfa -40 + ^ x29: .cfa -48 + ^
STACK CFI 418e4 .cfa: sp 48 +
STACK CFI 418f0 .cfa: sp 0 +
STACK CFI INIT 418f4 4 .cfa: sp 0 +
STACK CFI INIT 418f8 4 .cfa: sp 0 +
STACK CFI INIT 418fc 4 .cfa: sp 0 +
STACK CFI INIT 41900 4 .cfa: sp 0 +
STACK CFI INIT 41904 4 .cfa: sp 0 +
STACK CFI INIT 41908 4 .cfa: sp 0 +
STACK CFI INIT 41ec0 bc .cfa: sp 0 +
STACK CFI 41ec4 .cfa: sp 64 +
STACK CFI 41ed0 .cfa: x29 32 + x19: .cfa -8 + ^ x20: .cfa -16 + ^ .ra: .cfa -24 + ^ x29: .cfa -32 + ^
STACK CFI 41f68 .cfa: sp 64 +
STACK CFI 41f74 .cfa: sp 0 +
STACK CFI 41f78 .cfa: x29 32 +
STACK CFI INIT 41f7c 24 .cfa: sp 0 +
STACK CFI 41f80 .cfa: sp 32 +
STACK CFI 41f88 .cfa: x29 32 + x19: .cfa -16 + ^ .ra: .cfa -24 + ^ x29: .cfa -32 + ^
STACK CFI 41f94 .cfa: sp 32 +
STACK CFI 41f9c .cfa: sp 0 +
STACK CFI INIT 41fa0 8 .cfa: sp 0 +
STACK CFI INIT 41fa8 28 .cfa: sp 0 +
STACK CFI 41fac .cfa: sp 32 +
STACK CFI 41fb4 .cfa: x29 32 + x19: .cfa -16 + ^ .ra: .cfa -24 + ^ x29: .cfa -32 + ^
STACK CFI 41fc4 .cfa: sp 32 +
STACK CFI 41fcc .cfa: sp 0 +
STACK CFI INIT 41fd0 4 .cfa: sp 0 +
STACK CFI INIT 41fd4 4 .cfa: sp 0 +
STACK CFI INIT 41fd8 4 .cfa: sp 0 +
STACK CFI INIT 41fdc 4 .cfa: sp 0 +
STACK CFI INIT 41fe0 30 .cfa: sp 0 +
STACK CFI INIT 42010 98 .cfa: sp 0 +
STACK CFI INIT 420a8 2ac .cfa: sp 0 +
STACK CFI INIT 42354 8c .cfa: sp 0 +
STACK CFI INIT 423e0 6c .cfa: sp 0 +
STACK CFI 423e4 .cfa: sp 16 +
STACK CFI 423e8 .cfa: x29 16 + .ra: .cfa -8 + ^ x29: .cfa -16 + ^
STACK CFI 4243c .cfa: sp 16 +
STACK CFI 42440 .cfa: sp 0 +
STACK CFI 42444 .cfa: sp 16 +
STACK CFI 42448 .cfa: sp 0 +
STACK CFI INIT 4244c 4 .cfa: sp 0 +
STACK CFI INIT 42450 6c .cfa: sp 0 +
STACK CFI 42454 .cfa: sp 16 +
STACK CFI 42458 .cfa: x29 16 + .ra: .cfa -8 + ^ x29: .cfa -16 + ^
STACK CFI 424ac .cfa: sp 16 +
STACK CFI 424b0 .cfa: sp 0 +
STACK CFI 424b4 .cfa: sp 16 +
STACK CFI 424b8 .cfa: sp 0 +
STACK CFI INIT 424bc 6c .cfa: sp 0 +
STACK CFI 424c0 .cfa: sp 16 +
STACK CFI 424c4 .cfa: x29 16 + .ra: .cfa -8 + ^ x29: .cfa -16 + ^
STACK CFI 42518 .cfa: sp 16 +
STACK CFI 4251c .cfa: sp 0 +
STACK CFI 42520 .cfa: sp 16 +
STACK CFI 42524 .cfa: sp 0 +
STACK CFI INIT 42528 6c .cfa: sp 0 +
STACK CFI 4252c .cfa: sp 16 +
STACK CFI 42530 .cfa: x29 16 + .ra: .cfa -8 + ^ x29: .cfa -16 + ^
STACK CFI 42584 .cfa: sp 16 +
STACK CFI 42588 .cfa: sp 0 +
STACK CFI 4258c .cfa: sp 16 +
STACK CFI 42590 .cfa: sp 0 +
STACK CFI INIT 42594 6c .cfa: sp 0 +
STACK CFI 42598 .cfa: sp 16 +
STACK CFI 4259c .cfa: x29 16 + .ra: .cfa -8 + ^ x29: .cfa -16 + ^
STACK CFI 425f0 .cfa: sp 16 +
STACK CFI 425f4 .cfa: sp 0 +
STACK CFI 425f8 .cfa: sp 16 +
STACK CFI 425fc .cfa: sp 0 +
STACK CFI INIT 42600 6c .cfa: sp 0 +
STACK CFI 42604 .cfa: sp 16 +
STACK CFI 42608 .cfa: x29 16 + .ra: .cfa -8 + ^ x29: .cfa -16 + ^
STACK CFI 4265c .cfa: sp 16 +
STACK CFI 42660 .cfa: sp 0 +
STACK CFI 42664 .cfa: sp 16 +
STACK CFI 42668 .cfa: sp 0 +
STACK CFI INIT 4266c 6c .cfa: sp 0 +
STACK CFI 42670 .cfa: sp 16 +
STACK CFI 42674 .cfa: x29 16 + .ra: .cfa -8 + ^ x29: .cfa -16 + ^
STACK CFI 426c8 .cfa: sp 16 +
STACK CFI 426cc .cfa: sp 0 +
STACK CFI 426d0 .cfa: sp 16 +
STACK CFI 426d4 .cfa: sp 0 +
STACK CFI INIT 426d8 6c .cfa: sp 0 +
STACK CFI 426dc .cfa: sp 16 +
STACK CFI 426e0 .cfa: x29 16 + .ra: .cfa -8 + ^ x29: .cfa -16 + ^
STACK CFI 42734 .cfa: sp 16 +
STACK CFI 42738 .cfa: sp 0 +
STACK CFI 4273c .cfa: sp 16 +
STACK CFI 42740 .cfa: sp 0 +
STACK CFI INIT 42744 6c .cfa: sp 0 +
STACK CFI 42748 .cfa: sp 16 +
STACK CFI 4274c .cfa: x29 16 + .ra: .cfa -8 + ^ x29: .cfa -16 + ^
STACK CFI 427a0 .cfa: sp 16 +
STACK CFI 427a4 .cfa: sp 0 +
STACK CFI 427a8 .cfa: sp 16 +
STACK CFI 427ac .cfa: sp 0 +
STACK CFI INIT 427b0 6c .cfa: sp 0 +
STACK CFI 427b4 .cfa: sp 16 +
STACK CFI 427b8 .cfa: x29 16 + .ra: .cfa -8 + ^ x29: .cfa -16 + ^
STACK CFI 4280c .cfa: sp 16 +
STACK CFI 42810 .cfa: sp 0 +
STACK CFI 42814 .cfa: sp 16 +
STACK CFI 42818 .cfa: sp 0 +
STACK CFI INIT 4281c 3c .cfa: sp 0 +
STACK CFI 42820 .cfa: sp 32 +
STACK CFI 42828 .cfa: x29 32 + x19: .cfa -16 + ^ .ra: .cfa -24 + ^ x29: .cfa -32 + ^
STACK CFI 42840 .cfa: sp 32 +
STACK CFI 42848 .cfa: sp 0 +
STACK CFI 4284c .cfa: sp 32 +
STACK CFI 42854 .cfa: sp 0 +
STACK CFI INIT 42858 5c .cfa: sp 0 +
STACK CFI 4285c .cfa: sp 16 +
STACK CFI 42860 .cfa: x29 16 + .ra: .cfa -8 + ^ x29: .cfa -16 + ^
STACK CFI 428a4 .cfa: sp 16 +
STACK CFI 428a8 .cfa: sp 0 +
STACK CFI 428ac .cfa: sp 16 +
STACK CFI 428b0 .cfa: sp 0 +
STACK CFI INIT 428b4 7c .cfa: sp 0 +
STACK CFI 428b8 .cfa: sp 48 +
STACK CFI 428c4 .cfa: x29 48 + x19: .cfa -8 + ^ x20: .cfa -16 + ^ x21: .cfa -32 + ^ .ra: .cfa -40 + ^ x29: .cfa -48 + ^
STACK CFI 42910 .cfa: sp 48 +
STACK CFI 4291c .cfa: sp 0 +
STACK CFI 42920 .cfa: sp 48 +
STACK CFI 4292c .cfa: sp 0 +
STACK CFI INIT 42930 48 .cfa: sp 0 +
STACK CFI 42944 .cfa: sp 16 +
STACK CFI 42948 .cfa: x29 16 + .ra: .cfa -8 + ^ x29: .cfa -16 + ^
STACK CFI 42954 .cfa: sp 16 +
STACK CFI 42958 .cfa: sp 0 +
STACK CFI INIT 4397c e4 .cfa: sp 0 +
STACK CFI 43980 .cfa: sp 32 +
STACK CFI 43988 .cfa: x29 32 + x19: .cfa -16 + ^ .ra: .cfa -24 + ^ x29: .cfa -32 + ^
STACK CFI 439a8 .cfa: sp 32 +
STACK CFI 439b0 .cfa: sp 0 +
STACK CFI 439b4 .cfa: x29 32 +
STACK CFI 439f8 .cfa: sp 32 +
STACK CFI 43a00 .cfa: sp 0 +
STACK CFI 43a04 .cfa: x29 32 +
STACK CFI 43a30 .cfa: sp 32 +
STACK CFI 43a38 .cfa: sp 0 +
STACK CFI 43a3c .cfa: sp 32 +
STACK CFI 43a44 .cfa: sp 0 +
STACK CFI 43a48 .cfa: x29 32 +
STACK CFI 43a54 .cfa: sp 32 +
STACK CFI 43a5c .cfa: sp 0 +
STACK CFI INIT 43a60 28 .cfa: sp 0 +
STACK CFI INIT 43a88 8 .cfa: sp 0 +
STACK CFI INIT 43a90 48 .cfa: sp 0 +
STACK CFI INIT 43ad8 4c .cfa: sp 0 +
STACK CFI INIT 43c04 2c .cfa: sp 0 +
STACK CFI 43c08 .cfa: sp 32 +
STACK CFI 43c10 .cfa: x29 32 + x19: .cfa -16 + ^ .ra: .cfa -24 + ^ x29: .cfa -32 + ^
STACK CFI 43c24 .cfa: sp 32 +
STACK CFI 43c2c .cfa: sp 0 +
STACK CFI INIT 43c30 4 .cfa: sp 0 +
STACK CFI INIT 43c34 8 .cfa: sp 0 +
STACK CFI INIT 43e50 4 .cfa: sp 0 +
STACK CFI INIT 43e54 8 .cfa: sp 0 +
STACK CFI INIT 43e5c 4 .cfa: sp 0 +
STACK CFI INIT 43ecc 4 .cfa: sp 0 +
STACK CFI INIT 43ed0 2c .cfa: sp 0 +
STACK CFI INIT 43efc 70 .cfa: sp 0 +
STACK CFI 43f00 .cfa: sp 48 +
STACK CFI 43f0c .cfa: x29 32 + x19: .cfa -16 + ^ .ra: .cfa -24 + ^ x29: .cfa -32 + ^
STACK CFI 43f44 .cfa: sp 48 +
STACK CFI 43f50 .cfa: sp 0 +
STACK CFI 43f54 .cfa: x29 32 +
STACK CFI INIT 43f6c 5c .cfa: sp 0 +
STACK CFI 43f70 .cfa: sp 32 +
STACK CFI 43f78 .cfa: x29 32 + x19: .cfa -16 + ^ .ra: .cfa -24 + ^ x29: .cfa -32 + ^
STACK CFI 43fbc .cfa: sp 32 +
STACK CFI 43fc4 .cfa: sp 0 +
STACK CFI INIT 43fc8 64 .cfa: sp 0 +
STACK CFI 43fcc .cfa: sp 32 +
STACK CFI 43fd4 .cfa: x29 32 + x19: .cfa -16 + ^ .ra: .cfa -24 + ^ x29: .cfa -32 + ^
STACK CFI 44020 .cfa: sp 32 +
STACK CFI 44028 .cfa: sp 0 +
STACK CFI INIT 4402c a4 .cfa: sp 0 +
STACK CFI 44030 .cfa: sp 48 +
STACK CFI 4403c .cfa: x29 48 + x19: .cfa -8 + ^ x20: .cfa -16 + ^ x21: .cfa -32 + ^ .ra: .cfa -40 + ^ x29: .cfa -48 + ^
STACK CFI 44054 .cfa: sp 48 +
STACK CFI 44060 .cfa: sp 0 +
STACK CFI 44064 .cfa: x29 48 +
STACK CFI 440c0 .cfa: sp 48 +
STACK CFI 440cc .cfa: sp 0 +
STACK CFI INIT 440d0 98 .cfa: sp 0 +
STACK CFI 440d8 .cfa: sp 32 +
STACK CFI 440e0 .cfa: x29 32 + x19: .cfa -8 + ^ x20: .cfa -16 + ^ .ra: .cfa -24 + ^ x29: .cfa -32 + ^
STACK CFI 4415c .cfa: sp 32 +
STACK CFI 44164 .cfa: sp 0 +
STACK CFI INIT 44168 304 .cfa: sp 0 +
STACK CFI 4416c .cfa: sp 128 +
STACK CFI 44184 .cfa: x29 64 + x19: .cfa -8 + ^ x20: .cfa -16 + ^ x21: .cfa -24 + ^ x22: .cfa -32 + ^ x23: .cfa -48 + ^ .ra: .cfa -56 + ^ x29: .cfa -64 + ^ v8: .cfa -72 + ^ v9: .cfa -80 + ^
STACK CFI 443b4 .cfa: sp 128 +
STACK CFI 443cc .cfa: sp 0 +
STACK CFI 443d0 .cfa: x29 64 +
STACK CFI INIT 4446c 4 .cfa: sp 0 +
STACK CFI INIT 44470 34 .cfa: sp 0 +
STACK CFI 44474 .cfa: sp 32 +
STACK CFI 4447c .cfa: x29 32 + x19: .cfa -16 + ^ .ra: .cfa -24 + ^ x29: .cfa -32 + ^
STACK CFI 44498 .cfa: sp 32 +
STACK CFI 444a0 .cfa: sp 0 +
STACK CFI INIT 444a4 14 .cfa: sp 0 +
STACK CFI INIT 444b8 4 .cfa: sp 0 +
STACK CFI INIT 444bc 4 .cfa: sp 0 +
STACK CFI INIT 444c0 10 .cfa: sp 0 +
STACK CFI INIT 444d0 1c .cfa: sp 0 +
STACK CFI INIT 444ec c .cfa: sp 0 +
STACK CFI INIT 444f8 4 .cfa: sp 0 +
STACK CFI INIT 444fc 34 .cfa: sp 0 +
STACK CFI 44500 .cfa: sp 32 +
STACK CFI 44508 .cfa: x29 32 + x19: .cfa -16 + ^ .ra: .cfa -24 + ^ x29: .cfa -32 + ^
STACK CFI 44524 .cfa: sp 32 +
STACK CFI 4452c .cfa: sp 0 +
STACK CFI INIT 44530 14 .cfa: sp 0 +
STACK CFI INIT 44544 4 .cfa: sp 0 +
STACK CFI INIT 44548 4 .cfa: sp 0 +
STACK CFI INIT 4454c 10 .cfa: sp 0 +
STACK CFI INIT 4455c 1c .cfa: sp 0 +
STACK CFI INIT 44578 c .cfa: sp 0 +
STACK CFI INIT 44584 4 .cfa: sp 0 +
STACK CFI INIT 44588 34 .cfa: sp 0 +
STACK CFI 4458c .cfa: sp 32 +
STACK CFI 44594 .cfa: x29 32 + x19: .cfa -16 + ^ .ra: .cfa -24 + ^ x29: .cfa -32 + ^
STACK CFI 445b0 .cfa: sp 32 +
STACK CFI 445b8 .cfa: sp 0 +
STACK CFI INIT 445bc 14 .cfa: sp 0 +
STACK CFI INIT 445d0 4 .cfa: sp 0 +
STACK CFI INIT 445d4 4 .cfa: sp 0 +
STACK CFI INIT 44714 1c .cfa: sp 0 +
STACK CFI INIT 44730 c .cfa: sp 0 +
STACK CFI INIT 4473c 4 .cfa: sp 0 +
STACK CFI INIT 44740 34 .cfa: sp 0 +
STACK CFI 44744 .cfa: sp 32 +
STACK CFI 4474c .cfa: x29 32 + x19: .cfa -16 + ^ .ra: .cfa -24 + ^ x29: .cfa -32 + ^
STACK CFI 44768 .cfa: sp 32 +
STACK CFI 44770 .cfa: sp 0 +
STACK CFI INIT 44774 14 .cfa: sp 0 +
STACK CFI INIT 44788 4 .cfa: sp 0 +
STACK CFI INIT 4478c 4 .cfa: sp 0 +
STACK CFI INIT 44790 8 .cfa: sp 0 +
STACK CFI INIT 44798 1c .cfa: sp 0 +
STACK CFI INIT 447b4 c .cfa: sp 0 +
STACK CFI INIT 447c0 4 .cfa: sp 0 +
STACK CFI INIT 447c4 4 .cfa: sp 0 +
STACK CFI INIT 447c8 34 .cfa: sp 0 +
STACK CFI 447cc .cfa: sp 32 +
STACK CFI 447d4 .cfa: x29 32 + x19: .cfa -16 + ^ .ra: .cfa -24 + ^ x29: .cfa -32 + ^
STACK CFI 447f0 .cfa: sp 32 +
STACK CFI 447f8 .cfa: sp 0 +
STACK CFI INIT 447fc 14 .cfa: sp 0 +
STACK CFI INIT 44810 4 .cfa: sp 0 +
STACK CFI INIT 44814 4 .cfa: sp 0 +
STACK CFI INIT 448c0 1c .cfa: sp 0 +
STACK CFI INIT 448dc c .cfa: sp 0 +
STACK CFI INIT 448e8 60 .cfa: sp 0 +
STACK CFI 448ec .cfa: sp 32 +
STACK CFI 448f4 .cfa: x29 32 + x19: .cfa -8 + ^ x20: .cfa -16 + ^ .ra: .cfa -24 + ^ x29: .cfa -32 + ^
STACK CFI 44914 .cfa: sp 32 +
STACK CFI 4491c .cfa: sp 0 +
STACK CFI 44920 .cfa: x29 32 +
STACK CFI 4493c .cfa: sp 32 +
STACK CFI 44944 .cfa: sp 0 +
STACK CFI INIT 44948 70 .cfa: sp 0 +
STACK CFI 4494c .cfa: sp 32 +
STACK CFI 44954 .cfa: x29 32 + x19: .cfa -8 + ^ x20: .cfa -16 + ^ .ra: .cfa -24 + ^ x29: .cfa -32 + ^
STACK CFI 4497c .cfa: sp 32 +
STACK CFI 44984 .cfa: sp 0 +
STACK CFI 44988 .cfa: x29 32 +
STACK CFI 449ac .cfa: sp 32 +
STACK CFI 449b4 .cfa: sp 0 +
STACK CFI INIT 449b8 10 .cfa: sp 0 +
STACK CFI INIT 449c8 30 .cfa: sp 0 +
STACK CFI 449cc .cfa: sp 32 +
STACK CFI 449d4 .cfa: x29 32 + x19: .cfa -16 + ^ .ra: .cfa -24 + ^ x29: .cfa -32 + ^
STACK CFI 449ec .cfa: sp 32 +
STACK CFI 449f4 .cfa: sp 0 +
STACK CFI INIT 449f8 4 .cfa: sp 0 +
STACK CFI INIT 449fc 4 .cfa: sp 0 +
STACK CFI INIT 44a00 30 .cfa: sp 0 +
STACK CFI INIT 44ea0 1c .cfa: sp 0 +
STACK CFI INIT 45274 50 .cfa: sp 0 +
STACK CFI 45278 .cfa: sp 32 +
STACK CFI 45280 .cfa: x29 32 + x19: .cfa -16 + ^ .ra: .cfa -24 + ^ x29: .cfa -32 + ^
STACK CFI 45298 .cfa: sp 32 +
STACK CFI 452a0 .cfa: sp 0 +
STACK CFI 452a4 .cfa: x29 32 +
STACK CFI 452b8 .cfa: sp 32 +
STACK CFI 452c0 .cfa: sp 0 +
STACK CFI INIT 45338 4 .cfa: sp 0 +
STACK CFI INIT 455c4 80 .cfa: sp 0 +
STACK CFI 455c8 .cfa: sp 48 +
STACK CFI 455d4 .cfa: x29 48 + x19: .cfa -8 + ^ x20: .cfa -16 + ^ x21: .cfa -32 + ^ .ra: .cfa -40 + ^ x29: .cfa -48 + ^
STACK CFI 45634 .cfa: sp 48 +
STACK CFI 45640 .cfa: sp 0 +
STACK CFI INIT 45644 24 .cfa: sp 0 +
STACK CFI 45648 .cfa: sp 32 +
STACK CFI 45650 .cfa: x29 32 + x19: .cfa -16 + ^ .ra: .cfa -24 + ^ x29: .cfa -32 + ^
STACK CFI 4565c .cfa: sp 32 +
STACK CFI 45664 .cfa: sp 0 +
STACK CFI INIT 45b68 148 .cfa: sp 0 +
STACK CFI 45b6c .cfa: sp 48 +
STACK CFI 45b78 .cfa: x29 48 + x19: .cfa -8 + ^ x20: .cfa -16 + ^ x21: .cfa -32 + ^ .ra: .cfa -40 + ^ x29: .cfa -48 + ^
STACK CFI 45ca0 .cfa: sp 48 +
STACK CFI 45cac .cfa: sp 0 +
STACK CFI INIT 45cb0 88 .cfa: sp 0 +
STACK CFI 45cb8 .cfa: sp 48 +
STACK CFI 45cc4 .cfa: x29 48 + x19: .cfa -8 + ^ x20: .cfa -16 + ^ x21: .cfa -24 + ^ x22: .cfa -32 + ^ .ra: .cfa -40 + ^ x29: .cfa -48 + ^
STACK CFI 45d28 .cfa: sp 48 +
STACK CFI 45d34 .cfa: sp 0 +
STACK CFI INIT 45ee8 68 .cfa: sp 0 +
STACK CFI 45eec .cfa: sp 32 +
STACK CFI 45ef4 .cfa: x29 32 + x19: .cfa -8 + ^ x20: .cfa -16 + ^ .ra: .cfa -24 + ^ x29: .cfa -32 + ^
STACK CFI 45f0c .cfa: sp 32 +
STACK CFI 45f14 .cfa: sp 0 +
STACK CFI 45f18 .cfa: x29 32 +
STACK CFI 45f44 .cfa: sp 32 +
STACK CFI 45f4c .cfa: sp 0 +
STACK CFI INIT 45f50 4 .cfa: sp 0 +
STACK CFI INIT 45f54 14 .cfa: sp 0 +
STACK CFI INIT 45f68 128 .cfa: sp 0 +
STACK CFI 45f6c .cfa: sp 64 +
STACK CFI 45f7c .cfa: x29 64 + x19: .cfa -8 + ^ x20: .cfa -16 + ^ x21: .cfa -24 + ^ x22: .cfa -32 + ^ x23: .cfa -40 + ^ x24: .cfa -48 + ^ .ra: .cfa -56 + ^ x29: .cfa -64 + ^
STACK CFI 4607c .cfa: sp 64 +
STACK CFI 4608c .cfa: sp 0 +
STACK CFI INIT 46090 d4 .cfa: sp 0 +
STACK CFI 46094 .cfa: sp 48 +
STACK CFI 460a0 .cfa: x29 48 + x19: .cfa -8 + ^ x20: .cfa -16 + ^ x21: .cfa -32 + ^ .ra: .cfa -40 + ^ x29: .cfa -48 + ^
STACK CFI 46130 .cfa: sp 48 +
STACK CFI 4613c .cfa: sp 0 +
STACK CFI 46140 .cfa: x29 48 +
STACK CFI INIT 46164 3c8 .cfa: sp 0 +
STACK CFI INIT 4652c 8c .cfa: sp 0 +
STACK CFI 46534 .cfa: sp 32 +
STACK CFI 4653c .cfa: x29 32 + x19: .cfa -8 + ^ x20: .cfa -16 + ^ .ra: .cfa -24 + ^ x29: .cfa -32 + ^
STACK CFI 46584 .cfa: sp 32 +
STACK CFI 4658c .cfa: sp 0 +
STACK CFI 46594 .cfa: x29 32 +
STACK CFI INIT 4694c 70 .cfa: sp 0 +
STACK CFI 46950 .cfa: sp 48 +
STACK CFI 4695c .cfa: x29 48 + x19: .cfa -8 + ^ x20: .cfa -16 + ^ x21: .cfa -32 + ^ .ra: .cfa -40 + ^ x29: .cfa -48 + ^
STACK CFI 4699c .cfa: sp 48 +
STACK CFI 469a8 .cfa: sp 0 +
STACK CFI 469ac .cfa: sp 48 +
STACK CFI 469b8 .cfa: sp 0 +
STACK CFI INIT 469bc 2b8 .cfa: sp 0 +
STACK CFI INIT 46c74 4c .cfa: sp 0 +
STACK CFI 46c7c .cfa: sp 32 +
STACK CFI 46c84 .cfa: x29 32 + x19: .cfa -16 + ^ .ra: .cfa -24 + ^ x29: .cfa -32 + ^
STACK CFI 46cb0 .cfa: sp 32 +
STACK CFI 46cb8 .cfa: sp 0 +
STACK CFI INIT 46cc0 50 .cfa: sp 0 +
STACK CFI 46cc4 .cfa: sp 32 +
STACK CFI 46ccc .cfa: x29 32 + x19: .cfa -16 + ^ .ra: .cfa -24 + ^ x29: .cfa -32 + ^
STACK CFI 46ce4 .cfa: sp 32 +
STACK CFI 46cec .cfa: sp 0 +
STACK CFI 46cf0 .cfa: x29 32 +
STACK CFI 46d04 .cfa: sp 32 +
STACK CFI 46d0c .cfa: sp 0 +
STACK CFI INIT 46d10 64 .cfa: sp 0 +
STACK CFI 46d14 .cfa: sp 32 +
STACK CFI 46d1c .cfa: x29 32 + x19: .cfa -16 + ^ .ra: .cfa -24 + ^ x29: .cfa -32 + ^
STACK CFI 46d48 .cfa: sp 32 +
STACK CFI 46d50 .cfa: sp 0 +
STACK CFI 46d54 .cfa: x29 32 +
STACK CFI 46d68 .cfa: sp 32 +
STACK CFI 46d70 .cfa: sp 0 +
STACK CFI INIT 46d74 14 .cfa: sp 0 +
STACK CFI 46d78 .cfa: sp 16 +
STACK CFI 46d7c .cfa: x29 16 + .ra: .cfa -8 + ^ x29: .cfa -16 + ^
STACK CFI INIT 46d88 178 .cfa: sp 0 +
STACK CFI 46d8c .cfa: sp 80 +
STACK CFI 46da0 .cfa: x29 80 + x19: .cfa -8 + ^ x20: .cfa -16 + ^ x21: .cfa -24 + ^ x22: .cfa -32 + ^ x23: .cfa -40 + ^ x24: .cfa -48 + ^ x25: .cfa -56 + ^ x26: .cfa -64 + ^ .ra: .cfa -72 + ^ x29: .cfa -80 + ^
STACK CFI 46ee8 .cfa: sp 80 +
STACK CFI 46efc .cfa: sp 0 +
STACK CFI INIT 46f00 1a8 .cfa: sp 0 +
STACK CFI INIT 47590 1c .cfa: sp 0 +
STACK CFI INIT 47b94 4 .cfa: sp 0 +
STACK CFI INIT 4837c 7c .cfa: sp 0 +
STACK CFI 48380 .cfa: sp 32 +
STACK CFI 48388 .cfa: x29 32 + x19: .cfa -8 + ^ x20: .cfa -16 + ^ .ra: .cfa -24 + ^ x29: .cfa -32 + ^
STACK CFI 483e0 .cfa: sp 32 +
STACK CFI 483e8 .cfa: sp 0 +
STACK CFI 483ec .cfa: sp 32 +
STACK CFI 483f4 .cfa: sp 0 +
STACK CFI INIT 48560 4 .cfa: sp 0 +
STACK CFI INIT 48564 4 .cfa: sp 0 +
STACK CFI INIT 48568 38 .cfa: sp 0 +
STACK CFI 4856c .cfa: sp 32 +
STACK CFI 48574 .cfa: x29 32 + x19: .cfa -16 + ^ .ra: .cfa -24 + ^ x29: .cfa -32 + ^
STACK CFI 48594 .cfa: sp 32 +
STACK CFI 4859c .cfa: sp 0 +
STACK CFI INIT 485a0 18 .cfa: sp 0 +
STACK CFI INIT 485b8 4 .cfa: sp 0 +
STACK CFI INIT 485bc 4 .cfa: sp 0 +
STACK CFI INIT 485c0 8 .cfa: sp 0 +
STACK CFI INIT 485c8 1c .cfa: sp 0 +
STACK CFI INIT 485e4 c .cfa: sp 0 +
STACK CFI INIT 485f0 4 .cfa: sp 0 +
STACK CFI INIT 48768 5c .cfa: sp 0 +
STACK CFI 4876c .cfa: sp 32 +
STACK CFI 48774 .cfa: x29 32 + x19: .cfa -16 + ^ .ra: .cfa -24 + ^ x29: .cfa -32 + ^
STACK CFI 487b8 .cfa: sp 32 +
STACK CFI 487c0 .cfa: sp 0 +
STACK CFI INIT 487c4 64 .cfa: sp 0 +
STACK CFI 487c8 .cfa: sp 32 +
STACK CFI 487d0 .cfa: x29 32 + x19: .cfa -16 + ^ .ra: .cfa -24 + ^ x29: .cfa -32 + ^
STACK CFI 4881c .cfa: sp 32 +
STACK CFI 48824 .cfa: sp 0 +
STACK CFI INIT 48828 4 .cfa: sp 0 +
STACK CFI INIT 4882c 14 .cfa: sp 0 +
STACK CFI INIT 48b84 84 .cfa: sp 0 +
STACK CFI 48b88 .cfa: sp 32 +
STACK CFI 48b90 .cfa: x29 32 + x19: .cfa -16 + ^ .ra: .cfa -24 + ^ x29: .cfa -32 + ^
STACK CFI 48bfc .cfa: sp 32 +
STACK CFI 48c04 .cfa: sp 0 +
STACK CFI INIT 48de4 4 .cfa: sp 0 +
STACK CFI INIT 48de8 14 .cfa: sp 0 +
STACK CFI INIT 4926c 1c .cfa: sp 0 +
STACK CFI INIT 49bac 4 .cfa: sp 0 +
STACK CFI INIT 49fd4 444 .cfa: sp 0 +
STACK CFI 49fd8 .cfa: sp 32 +
STACK CFI 49fe0 .cfa: x29 32 + x19: .cfa -8 + ^ x20: .cfa -16 + ^ .ra: .cfa -24 + ^ x29: .cfa -32 + ^
STACK CFI 4a40c .cfa: sp 32 +
STACK CFI 4a414 .cfa: sp 0 +
STACK CFI INIT 4a59c 1a0 .cfa: sp 0 +
STACK CFI 4a5a0 .cfa: sp 64 +
STACK CFI 4a5b0 .cfa: x29 64 + x19: .cfa -8 + ^ x20: .cfa -16 + ^ x21: .cfa -24 + ^ x22: .cfa -32 + ^ x23: .cfa -40 + ^ x24: .cfa -48 + ^ .ra: .cfa -56 + ^ x29: .cfa -64 + ^
STACK CFI 4a710 .cfa: sp 64 +
STACK CFI 4a720 .cfa: sp 0 +
STACK CFI 4a724 .cfa: x29 64 +
STACK CFI INIT 4a868 b8 .cfa: sp 0 +
STACK CFI 4a874 .cfa: sp 48 +
STACK CFI 4a880 .cfa: x29 48 + x19: .cfa -8 + ^ x20: .cfa -16 + ^ x21: .cfa -32 + ^ .ra: .cfa -40 + ^ x29: .cfa -48 + ^
STACK CFI 4a8b4 .cfa: sp 48 +
STACK CFI 4a8c0 .cfa: sp 0 +
STACK CFI 4a8c4 .cfa: x29 48 +
STACK CFI INIT 4ad90 1c .cfa: sp 0 +
STACK CFI INIT 4b12c 4 .cfa: sp 0 +
STACK CFI INIT 4b468 4 .cfa: sp 0 +
STACK CFI INIT 4b46c 4 .cfa: sp 0 +
STACK CFI INIT 4b470 24 .cfa: sp 0 +
STACK CFI 4b474 .cfa: sp 16 +
STACK CFI 4b478 .cfa: x29 16 + .ra: .cfa -8 + ^ x29: .cfa -16 + ^
STACK CFI 4b48c .cfa: sp 16 +
STACK CFI 4b490 .cfa: sp 0 +
STACK CFI INIT 4b494 10 .cfa: sp 0 +
STACK CFI INIT 4b4a4 4 .cfa: sp 0 +
STACK CFI INIT 4b4a8 4 .cfa: sp 0 +
STACK CFI INIT 4b4ac 28 .cfa: sp 0 +
STACK CFI 4b4b0 .cfa: sp 16 +
STACK CFI 4b4b4 .cfa: x29 16 + .ra: .cfa -8 + ^ x29: .cfa -16 + ^
STACK CFI 4b4cc .cfa: sp 16 +
STACK CFI 4b4d0 .cfa: sp 0 +
STACK CFI INIT 4b4d4 1c .cfa: sp 0 +
STACK CFI INIT 4b4f0 c .cfa: sp 0 +
STACK CFI INIT 4bcf4 1c .cfa: sp 0 +
STACK CFI INIT 4bd10 64 .cfa: sp 0 +
STACK CFI 4bd14 .cfa: sp 32 +
STACK CFI 4bd1c .cfa: x29 32 + x19: .cfa -16 + ^ .ra: .cfa -24 + ^ x29: .cfa -32 + ^
STACK CFI 4bd38 .cfa: sp 32 +
STACK CFI 4bd40 .cfa: sp 0 +
STACK CFI 4bd44 .cfa: x29 32 +
STACK CFI 4bd68 .cfa: sp 32 +
STACK CFI 4bd70 .cfa: sp 0 +
STACK CFI INIT 4ce88 4 .cfa: sp 0 +
STACK CFI INIT 4d4b8 14 .cfa: sp 0 +
STACK CFI 4d4bc .cfa: sp 16 +
STACK CFI 4d4c0 .cfa: x29 16 + .ra: .cfa -8 + ^ x29: .cfa -16 + ^
STACK CFI INIT 4d51c 30 .cfa: sp 0 +
STACK CFI 4d520 .cfa: sp 32 +
STACK CFI 4d528 .cfa: x29 32 + x19: .cfa -16 + ^ .ra: .cfa -24 + ^ x29: .cfa -32 + ^
STACK CFI 4d540 .cfa: sp 32 +
STACK CFI 4d548 .cfa: sp 0 +
STACK CFI INIT 4d54c 4 .cfa: sp 0 +
STACK CFI INIT 4d550 38 .cfa: sp 0 +
STACK CFI 4d554 .cfa: sp 32 +
STACK CFI 4d55c .cfa: x29 32 + x19: .cfa -16 + ^ .ra: .cfa -24 + ^ x29: .cfa -32 + ^
STACK CFI 4d57c .cfa: sp 32 +
STACK CFI 4d584 .cfa: sp 0 +
STACK CFI INIT 4d588 18 .cfa: sp 0 +
STACK CFI INIT 4d5a0 4 .cfa: sp 0 +
STACK CFI INIT 4d5a4 4 .cfa: sp 0 +
STACK CFI INIT 4d5a8 8 .cfa: sp 0 +
STACK CFI INIT 4d5b0 1c .cfa: sp 0 +
STACK CFI INIT 4d5cc c .cfa: sp 0 +
STACK CFI INIT 4d6e8 4 .cfa: sp 0 +
STACK CFI INIT 4d6ec 38 .cfa: sp 0 +
STACK CFI 4d6f0 .cfa: sp 32 +
STACK CFI 4d6f8 .cfa: x29 32 + x19: .cfa -16 + ^ .ra: .cfa -24 + ^ x29: .cfa -32 + ^
STACK CFI 4d718 .cfa: sp 32 +
STACK CFI 4d720 .cfa: sp 0 +
STACK CFI INIT 4d724 18 .cfa: sp 0 +
STACK CFI INIT 4d73c 4 .cfa: sp 0 +
STACK CFI INIT 4d740 4 .cfa: sp 0 +
STACK CFI INIT 4d744 8 .cfa: sp 0 +
STACK CFI INIT 4d74c 1c .cfa: sp 0 +
STACK CFI INIT 4d768 c .cfa: sp 0 +
STACK CFI INIT 4de78 9a4 .cfa: sp 0 +
STACK CFI 4de7c .cfa: sp 144 +
STACK CFI 4de98 .cfa: x29 96 + x19: .cfa -8 + ^ x20: .cfa -16 + ^ x21: .cfa -24 + ^ x22: .cfa -32 + ^ x23: .cfa -40 + ^ x24: .cfa -48 + ^ x25: .cfa -56 + ^ x26: .cfa -64 + ^ x27: .cfa -72 + ^ x28: .cfa -80 + ^ .ra: .cfa -88 + ^ x29: .cfa -96 + ^
STACK CFI 4e5d0 .cfa: sp 144 +
STACK CFI 4e5ec .cfa: sp 0 +
STACK CFI 4e5f0 .cfa: x29 96 +
STACK CFI 4e7f8 .cfa: sp 144 +
STACK CFI 4e814 .cfa: sp 0 +
STACK CFI 4e818 .cfa: x29 96 +
STACK CFI INIT 4e81c f8 .cfa: sp 0 +
STACK CFI 4e820 .cfa: sp 80 +
STACK CFI 4e834 .cfa: x29 80 + x19: .cfa -8 + ^ x20: .cfa -16 + ^ x21: .cfa -24 + ^ x22: .cfa -32 + ^ x23: .cfa -40 + ^ x24: .cfa -48 + ^ x25: .cfa -64 + ^ .ra: .cfa -72 + ^ x29: .cfa -80 + ^
STACK CFI 4e8fc .cfa: sp 80 +
STACK CFI 4e910 .cfa: sp 0 +
STACK CFI INIT 4e914 4 .cfa: sp 0 +
STACK CFI INIT 4e918 1d8 .cfa: sp 0 +
STACK CFI 4e91c .cfa: sp 80 +
STACK CFI 4e930 .cfa: x29 80 + x19: .cfa -8 + ^ x20: .cfa -16 + ^ x21: .cfa -24 + ^ x22: .cfa -32 + ^ x23: .cfa -40 + ^ x24: .cfa -48 + ^ x25: .cfa -64 + ^ .ra: .cfa -72 + ^ x29: .cfa -80 + ^
STACK CFI 4ea34 .cfa: sp 80 +
STACK CFI 4ea48 .cfa: sp 0 +
STACK CFI 4ea4c .cfa: x29 80 +
STACK CFI 4ea78 .cfa: sp 80 +
STACK CFI 4ea8c .cfa: sp 0 +
STACK CFI 4ea90 .cfa: x29 80 +
STACK CFI INIT 4eaf0 44 .cfa: sp 0 +
STACK CFI 4eaf4 .cfa: sp 32 +
STACK CFI 4eafc .cfa: x29 32 + x19: .cfa -16 + ^ .ra: .cfa -24 + ^ x29: .cfa -32 + ^
STACK CFI 4eb28 .cfa: sp 32 +
STACK CFI 4eb30 .cfa: sp 0 +
STACK CFI INIT 4eb34 68 .cfa: sp 0 +
STACK CFI 4eb38 .cfa: sp 32 +
STACK CFI 4eb40 .cfa: x29 32 + x19: .cfa -16 + ^ .ra: .cfa -24 + ^ x29: .cfa -32 + ^
STACK CFI 4eb84 .cfa: sp 32 +
STACK CFI 4eb8c .cfa: sp 0 +
STACK CFI 4eb90 .cfa: sp 32 +
STACK CFI 4eb98 .cfa: sp 0 +
STACK CFI INIT 4ec44 b4 .cfa: sp 0 +
STACK CFI 4ec48 .cfa: sp 32 +
STACK CFI 4ec50 .cfa: x29 32 + x19: .cfa -16 + ^ .ra: .cfa -24 + ^ x29: .cfa -32 + ^
STACK CFI 4ecec .cfa: sp 32 +
STACK CFI 4ecf4 .cfa: sp 0 +
STACK CFI INIT 4ecf8 1a0 .cfa: sp 0 +
STACK CFI 4ecfc .cfa: sp 64 +
STACK CFI 4ed0c .cfa: x29 64 + x19: .cfa -8 + ^ x20: .cfa -16 + ^ x21: .cfa -24 + ^ x22: .cfa -32 + ^ x23: .cfa -40 + ^ x24: .cfa -48 + ^ .ra: .cfa -56 + ^ x29: .cfa -64 + ^
STACK CFI 4ee6c .cfa: sp 64 +
STACK CFI 4ee7c .cfa: sp 0 +
STACK CFI 4ee80 .cfa: x29 64 +
STACK CFI INIT 4ee98 3c .cfa: sp 0 +
STACK CFI 4eea0 .cfa: sp 32 +
STACK CFI 4eea8 .cfa: x29 32 + x19: .cfa -16 + ^ .ra: .cfa -24 + ^ x29: .cfa -32 + ^
STACK CFI 4eec4 .cfa: sp 32 +
STACK CFI 4eecc .cfa: sp 0 +
STACK CFI INIT 51494 38 .cfa: sp 0 +
STACK CFI 514ac .cfa: sp 16 +
STACK CFI 514b0 .cfa: x29 16 + .ra: .cfa -8 + ^ x29: .cfa -16 + ^
STACK CFI 514bc .cfa: sp 16 +
STACK CFI 514c0 .cfa: sp 0 +
STACK CFI INIT 51810 8 .cfa: sp 0 +
STACK CFI INIT 51818 14 .cfa: sp 0 +
STACK CFI 5181c .cfa: sp 16 +
STACK CFI 51820 .cfa: x29 16 + .ra: .cfa -8 + ^ x29: .cfa -16 + ^
STACK CFI INIT 51a4c 14 .cfa: sp 0 +
STACK CFI 51a50 .cfa: sp 16 +
STACK CFI 51a54 .cfa: x29 16 + .ra: .cfa -8 + ^ x29: .cfa -16 + ^
STACK CFI INIT 51a60 14 .cfa: sp 0 +
STACK CFI 51a64 .cfa: sp 16 +
STACK CFI 51a68 .cfa: x29 16 + .ra: .cfa -8 + ^ x29: .cfa -16 + ^
STACK CFI INIT 51a74 14 .cfa: sp 0 +
STACK CFI 51a78 .cfa: sp 16 +
STACK CFI 51a7c .cfa: x29 16 + .ra: .cfa -8 + ^ x29: .cfa -16 + ^
STACK CFI INIT 51a88 4 .cfa: sp 0 +
STACK CFI INIT 51a8c 4 .cfa: sp 0 +
STACK CFI INIT 51a90 38 .cfa: sp 0 +
STACK CFI 51a94 .cfa: sp 32 +
STACK CFI 51a9c .cfa: x29 32 + x19: .cfa -16 + ^ .ra: .cfa -24 + ^ x29: .cfa -32 + ^
STACK CFI 51abc .cfa: sp 32 +
STACK CFI 51ac4 .cfa: sp 0 +
STACK CFI INIT 51ac8 18 .cfa: sp 0 +
STACK CFI INIT 51ae0 4 .cfa: sp 0 +
STACK CFI INIT 51ae4 4 .cfa: sp 0 +
STACK CFI INIT 51ae8 10 .cfa: sp 0 +
STACK CFI INIT 51af8 1c .cfa: sp 0 +
STACK CFI INIT 51b14 c .cfa: sp 0 +
STACK CFI INIT 51c28 4 .cfa: sp 0 +
STACK CFI INIT 51c2c 14 .cfa: sp 0 +
STACK CFI INIT 51c40 4 .cfa: sp 0 +
STACK CFI INIT 51c44 14 .cfa: sp 0 +
STACK CFI INIT 52428 1ac .cfa: sp 0 +
STACK CFI 5242c .cfa: sp 32 +
STACK CFI 52434 .cfa: x29 32 + x19: .cfa -8 + ^ x20: .cfa -16 + ^ .ra: .cfa -24 + ^ x29: .cfa -32 + ^
STACK CFI 52524 .cfa: sp 32 +
STACK CFI 5252c .cfa: sp 0 +
STACK CFI 52530 .cfa: x29 32 +
STACK CFI INIT 525d4 a0 .cfa: sp 0 +
STACK CFI 525d8 .cfa: sp 32 +
STACK CFI 525e0 .cfa: x29 32 + x19: .cfa -16 + ^ .ra: .cfa -24 + ^ x29: .cfa -32 + ^
STACK CFI 52610 .cfa: sp 32 +
STACK CFI 52618 .cfa: sp 0 +
STACK CFI 5261c .cfa: x29 32 +
STACK CFI 52620 .cfa: sp 32 +
STACK CFI 52628 .cfa: sp 0 +
STACK CFI 5262c .cfa: x29 32 +
STACK CFI 52668 .cfa: sp 32 +
STACK CFI 52670 .cfa: sp 0 +
STACK CFI INIT 52674 8c .cfa: sp 0 +
STACK CFI 52678 .cfa: sp 48 +
STACK CFI 52684 .cfa: x29 48 + x19: .cfa -8 + ^ x20: .cfa -16 + ^ x21: .cfa -24 + ^ x22: .cfa -32 + ^ .ra: .cfa -40 + ^ x29: .cfa -48 + ^
STACK CFI 5268c .cfa: sp 48 +
STACK CFI 52698 .cfa: sp 0 +
STACK CFI 5269c .cfa: x29 48 +
STACK CFI 526f0 .cfa: sp 48 +
STACK CFI 526fc .cfa: sp 0 +
STACK CFI INIT 52700 34 .cfa: sp 0 +
STACK CFI 52704 .cfa: sp 32 +
STACK CFI 5270c .cfa: x29 32 + x19: .cfa -16 + ^ .ra: .cfa -24 + ^ x29: .cfa -32 + ^
STACK CFI 52728 .cfa: sp 32 +
STACK CFI 52730 .cfa: sp 0 +
STACK CFI INIT 54cf0 70 .cfa: sp 0 +
STACK CFI 54cf4 .cfa: sp 48 +
STACK CFI 54d00 .cfa: x29 32 + x19: .cfa -16 + ^ .ra: .cfa -24 + ^ x29: .cfa -32 + ^
STACK CFI 54d38 .cfa: sp 48 +
STACK CFI 54d44 .cfa: sp 0 +
STACK CFI 54d48 .cfa: x29 32 +
STACK CFI INIT 54d60 5c .cfa: sp 0 +
STACK CFI 54d64 .cfa: sp 32 +
STACK CFI 54d6c .cfa: x29 32 + x19: .cfa -16 + ^ .ra: .cfa -24 + ^ x29: .cfa -32 + ^
STACK CFI 54db0 .cfa: sp 32 +
STACK CFI 54db8 .cfa: sp 0 +
STACK CFI INIT 54dbc 64 .cfa: sp 0 +
STACK CFI 54dc0 .cfa: sp 32 +
STACK CFI 54dc8 .cfa: x29 32 + x19: .cfa -16 + ^ .ra: .cfa -24 + ^ x29: .cfa -32 + ^
STACK CFI 54e14 .cfa: sp 32 +
STACK CFI 54e1c .cfa: sp 0 +
STACK CFI INIT 54e20 20 .cfa: sp 0 +
STACK CFI INIT 54e40 40 .cfa: sp 0 +
STACK CFI 54e58 .cfa: sp 32 +
STACK CFI 54e60 .cfa: x29 32 + x19: .cfa -16 + ^ .ra: .cfa -24 + ^ x29: .cfa -32 + ^
STACK CFI 54e74 .cfa: sp 32 +
STACK CFI 54e7c .cfa: sp 0 +
STACK CFI INIT 54f00 3c .cfa: sp 0 +
STACK CFI INIT 54f3c 14 .cfa: sp 0 +
STACK CFI INIT 54f50 34 .cfa: sp 0 +
STACK CFI 54f5c .cfa: sp 32 +
STACK CFI 54f64 .cfa: x29 32 + x19: .cfa -16 + ^ .ra: .cfa -24 + ^ x29: .cfa -32 + ^
STACK CFI 54f78 .cfa: sp 32 +
STACK CFI 54f80 .cfa: sp 0 +
STACK CFI INIT 54f84 8c .cfa: sp 0 +
STACK CFI 54f88 .cfa: sp 80 +
STACK CFI 54f98 .cfa: x29 48 + x19: .cfa -8 + ^ x20: .cfa -16 + ^ x21: .cfa -32 + ^ .ra: .cfa -40 + ^ x29: .cfa -48 + ^
STACK CFI 54ff8 .cfa: sp 80 +
STACK CFI 55008 .cfa: sp 0 +
STACK CFI 5500c .cfa: x29 48 +
STACK CFI INIT 55010 1c .cfa: sp 0 +
STACK CFI INIT 5502c c .cfa: sp 0 +
STACK CFI INIT 55038 20 .cfa: sp 0 +
STACK CFI INIT 55058 40 .cfa: sp 0 +
STACK CFI 55070 .cfa: sp 32 +
STACK CFI 55078 .cfa: x29 32 + x19: .cfa -16 + ^ .ra: .cfa -24 + ^ x29: .cfa -32 + ^
STACK CFI 5508c .cfa: sp 32 +
STACK CFI 55094 .cfa: sp 0 +
STACK CFI INIT 55118 3c .cfa: sp 0 +
STACK CFI INIT 55154 14 .cfa: sp 0 +
STACK CFI INIT 55168 34 .cfa: sp 0 +
STACK CFI 55174 .cfa: sp 32 +
STACK CFI 5517c .cfa: x29 32 + x19: .cfa -16 + ^ .ra: .cfa -24 + ^ x29: .cfa -32 + ^
STACK CFI 55190 .cfa: sp 32 +
STACK CFI 55198 .cfa: sp 0 +
STACK CFI INIT 5519c 8c .cfa: sp 0 +
STACK CFI 551a0 .cfa: sp 80 +
STACK CFI 551b0 .cfa: x29 48 + x19: .cfa -8 + ^ x20: .cfa -16 + ^ x21: .cfa -32 + ^ .ra: .cfa -40 + ^ x29: .cfa -48 + ^
STACK CFI 55210 .cfa: sp 80 +
STACK CFI 55220 .cfa: sp 0 +
STACK CFI 55224 .cfa: x29 48 +
STACK CFI INIT 55228 1c .cfa: sp 0 +
STACK CFI INIT 55244 c .cfa: sp 0 +
STACK CFI INIT 5588c 80 .cfa: sp 0 +
STACK CFI 55890 .cfa: sp 32 +
STACK CFI 55898 .cfa: x29 32 + x19: .cfa -16 + ^ .ra: .cfa -24 + ^ x29: .cfa -32 + ^
STACK CFI 558d0 .cfa: sp 32 +
STACK CFI 558d8 .cfa: sp 0 +
STACK CFI 558dc .cfa: sp 32 +
STACK CFI 558e4 .cfa: sp 0 +
STACK CFI 558e8 .cfa: x29 32 +
STACK CFI INIT 5590c 1ac .cfa: sp 0 +
STACK CFI 55910 .cfa: sp 32 +
STACK CFI 55918 .cfa: x29 32 + x19: .cfa -8 + ^ x20: .cfa -16 + ^ .ra: .cfa -24 + ^ x29: .cfa -32 + ^
STACK CFI 55a08 .cfa: sp 32 +
STACK CFI 55a10 .cfa: sp 0 +
STACK CFI 55a14 .cfa: x29 32 +
STACK CFI INIT 55f28 1c .cfa: sp 0 +
STACK CFI INIT 562b8 4 .cfa: sp 0 +
STACK CFI INIT 56c28 1c .cfa: sp 0 +
STACK CFI INIT 56f68 4 .cfa: sp 0 +
STACK CFI INIT 5707c 4 .cfa: sp 0 +
STACK CFI INIT 57080 38 .cfa: sp 0 +
STACK CFI 57084 .cfa: sp 32 +
STACK CFI 5708c .cfa: x29 32 + x19: .cfa -16 + ^ .ra: .cfa -24 + ^ x29: .cfa -32 + ^
STACK CFI 570ac .cfa: sp 32 +
STACK CFI 570b4 .cfa: sp 0 +
STACK CFI INIT 570b8 18 .cfa: sp 0 +
STACK CFI INIT 570d0 4 .cfa: sp 0 +
STACK CFI INIT 570d4 4 .cfa: sp 0 +
STACK CFI INIT 570d8 8 .cfa: sp 0 +
STACK CFI INIT 570e0 1c .cfa: sp 0 +
STACK CFI INIT 570fc c .cfa: sp 0 +
STACK CFI INIT 57108 4 .cfa: sp 0 +
STACK CFI INIT 576e4 c4 .cfa: sp 0 +
STACK CFI 576e8 .cfa: sp 48 +
STACK CFI 576f4 .cfa: x29 48 + x19: .cfa -8 + ^ x20: .cfa -16 + ^ x21: .cfa -24 + ^ x22: .cfa -32 + ^ .ra: .cfa -40 + ^ x29: .cfa -48 + ^
STACK CFI 57714 .cfa: sp 48 +
STACK CFI 57720 .cfa: sp 0 +
STACK CFI 57724 .cfa: x29 48 +
STACK CFI 57788 .cfa: sp 48 +
STACK CFI 57794 .cfa: sp 0 +
STACK CFI 57798 .cfa: sp 48 +
STACK CFI 577a4 .cfa: sp 0 +
STACK CFI INIT 577a8 4 .cfa: sp 0 +
STACK CFI INIT 577ac 4 .cfa: sp 0 +
STACK CFI INIT 577b0 34 .cfa: sp 0 +
STACK CFI 577b4 .cfa: sp 32 +
STACK CFI 577bc .cfa: x29 32 + x19: .cfa -16 + ^ .ra: .cfa -24 + ^ x29: .cfa -32 + ^
STACK CFI 577d8 .cfa: sp 32 +
STACK CFI 577e0 .cfa: sp 0 +
STACK CFI INIT 577e4 14 .cfa: sp 0 +
STACK CFI INIT 577f8 4 .cfa: sp 0 +
STACK CFI INIT 577fc 4 .cfa: sp 0 +
STACK CFI INIT 57800 8 .cfa: sp 0 +
STACK CFI INIT 57808 1c .cfa: sp 0 +
STACK CFI INIT 57824 c .cfa: sp 0 +
STACK CFI INIT 57ca0 1c .cfa: sp 0 +
STACK CFI INIT 57fe8 4 .cfa: sp 0 +
STACK CFI INIT 57fec 2a8 .cfa: sp 0 +
STACK CFI 57ff0 .cfa: sp 80 +
STACK CFI 58004 .cfa: x29 80 + x19: .cfa -8 + ^ x20: .cfa -16 + ^ x21: .cfa -24 + ^ x22: .cfa -32 + ^ x23: .cfa -40 + ^ x24: .cfa -48 + ^ x25: .cfa -64 + ^ .ra: .cfa -72 + ^ x29: .cfa -80 + ^
STACK CFI 5810c .cfa: sp 80 +
STACK CFI 58120 .cfa: sp 0 +
STACK CFI 58124 .cfa: x29 80 +
STACK CFI 58180 .cfa: sp 80 +
STACK CFI 58194 .cfa: sp 0 +
STACK CFI 58198 .cfa: x29 80 +
STACK CFI 581b8 .cfa: sp 80 +
STACK CFI 581cc .cfa: sp 0 +
STACK CFI 581d0 .cfa: sp 80 +
STACK CFI 581e4 .cfa: sp 0 +
STACK CFI 581e8 .cfa: x29 80 +
STACK CFI 581f4 .cfa: sp 80 +
STACK CFI 58208 .cfa: sp 0 +
STACK CFI 5820c .cfa: x29 80 +
STACK CFI 58218 .cfa: sp 80 +
STACK CFI 5822c .cfa: sp 0 +
STACK CFI 58230 .cfa: x29 80 +
STACK CFI 5823c .cfa: sp 80 +
STACK CFI 58250 .cfa: sp 0 +
STACK CFI 58254 .cfa: x29 80 +
STACK CFI 58260 .cfa: sp 80 +
STACK CFI 58274 .cfa: sp 0 +
STACK CFI 58278 .cfa: x29 80 +
STACK CFI 5827c .cfa: sp 80 +
STACK CFI 58290 .cfa: sp 0 +
STACK CFI INIT 58b3c 1c .cfa: sp 0 +
STACK CFI INIT 58e4c 4 .cfa: sp 0 +
STACK CFI INIT 591b0 4 .cfa: sp 0 +
STACK CFI INIT 591b4 38 .cfa: sp 0 +
STACK CFI 591b8 .cfa: sp 32 +
STACK CFI 591c0 .cfa: x29 32 + x19: .cfa -16 + ^ .ra: .cfa -24 + ^ x29: .cfa -32 + ^
STACK CFI 591e0 .cfa: sp 32 +
STACK CFI 591e8 .cfa: sp 0 +
STACK CFI INIT 591ec 18 .cfa: sp 0 +
STACK CFI INIT 59204 4 .cfa: sp 0 +
STACK CFI INIT 59208 4 .cfa: sp 0 +
STACK CFI INIT 5920c 8 .cfa: sp 0 +
STACK CFI INIT 59214 1c .cfa: sp 0 +
STACK CFI INIT 59230 c .cfa: sp 0 +
STACK CFI INIT 5923c 120 .cfa: sp 0 +
STACK CFI 59240 .cfa: sp 48 +
STACK CFI 5924c .cfa: x29 48 + x19: .cfa -8 + ^ x20: .cfa -16 + ^ x21: .cfa -24 + ^ x22: .cfa -32 + ^ .ra: .cfa -40 + ^ x29: .cfa -48 + ^
STACK CFI 5934c .cfa: sp 48 +
STACK CFI 59358 .cfa: sp 0 +
STACK CFI INIT 59404 9c .cfa: sp 0 +
STACK CFI INIT 59d58 1c .cfa: sp 0 +
STACK CFI INIT 5b5b8 4 .cfa: sp 0 +
STACK CFI INIT 5b6cc 4 .cfa: sp 0 +
STACK CFI INIT 5b6d0 38 .cfa: sp 0 +
STACK CFI 5b6d4 .cfa: sp 32 +
STACK CFI 5b6dc .cfa: x29 32 + x19: .cfa -16 + ^ .ra: .cfa -24 + ^ x29: .cfa -32 + ^
STACK CFI 5b6fc .cfa: sp 32 +
STACK CFI 5b704 .cfa: sp 0 +
STACK CFI INIT 5b708 18 .cfa: sp 0 +
STACK CFI INIT 5b720 4 .cfa: sp 0 +
STACK CFI INIT 5b724 4 .cfa: sp 0 +
STACK CFI INIT 5b728 8 .cfa: sp 0 +
STACK CFI INIT 5b730 1c .cfa: sp 0 +
STACK CFI INIT 5b74c c .cfa: sp 0 +
STACK CFI INIT 5b8dc 28 .cfa: sp 0 +
STACK CFI 5b8e0 .cfa: sp 32 +
STACK CFI 5b8e8 .cfa: x29 32 + x19: .cfa -16 + ^ .ra: .cfa -24 + ^ x29: .cfa -32 + ^
STACK CFI 5b8f8 .cfa: sp 32 +
STACK CFI 5b900 .cfa: sp 0 +
STACK CFI INIT 5b904 28 .cfa: sp 0 +
STACK CFI 5b908 .cfa: sp 32 +
STACK CFI 5b910 .cfa: x29 32 + x19: .cfa -16 + ^ .ra: .cfa -24 + ^ x29: .cfa -32 + ^
STACK CFI 5b920 .cfa: sp 32 +
STACK CFI 5b928 .cfa: sp 0 +
STACK CFI INIT 5b92c 44 .cfa: sp 0 +
STACK CFI 5b930 .cfa: sp 32 +
STACK CFI 5b938 .cfa: x29 32 + x19: .cfa -8 + ^ x20: .cfa -16 + ^ .ra: .cfa -24 + ^ x29: .cfa -32 + ^
STACK CFI 5b964 .cfa: sp 32 +
STACK CFI 5b96c .cfa: sp 0 +
STACK CFI INIT 5be64 28 .cfa: sp 0 +
STACK CFI 5be68 .cfa: sp 32 +
STACK CFI 5be70 .cfa: x29 32 + x19: .cfa -16 + ^ .ra: .cfa -24 + ^ x29: .cfa -32 + ^
STACK CFI 5be80 .cfa: sp 32 +
STACK CFI 5be88 .cfa: sp 0 +
STACK CFI INIT 5be8c 28 .cfa: sp 0 +
STACK CFI 5be90 .cfa: sp 32 +
STACK CFI 5be98 .cfa: x29 32 + x19: .cfa -16 + ^ .ra: .cfa -24 + ^ x29: .cfa -32 + ^
STACK CFI 5bea8 .cfa: sp 32 +
STACK CFI 5beb0 .cfa: sp 0 +
STACK CFI INIT 5bfb8 28 .cfa: sp 0 +
STACK CFI 5bfbc .cfa: sp 32 +
STACK CFI 5bfc4 .cfa: x29 32 + x19: .cfa -16 + ^ .ra: .cfa -24 + ^ x29: .cfa -32 + ^
STACK CFI 5bfd4 .cfa: sp 32 +
STACK CFI 5bfdc .cfa: sp 0 +
STACK CFI INIT 5c0e4 28 .cfa: sp 0 +
STACK CFI 5c0e8 .cfa: sp 32 +
STACK CFI 5c0f0 .cfa: x29 32 + x19: .cfa -16 + ^ .ra: .cfa -24 + ^ x29: .cfa -32 + ^
STACK CFI 5c100 .cfa: sp 32 +
STACK CFI 5c108 .cfa: sp 0 +
STACK CFI INIT 5c10c 28 .cfa: sp 0 +
STACK CFI 5c110 .cfa: sp 32 +
STACK CFI 5c118 .cfa: x29 32 + x19: .cfa -16 + ^ .ra: .cfa -24 + ^ x29: .cfa -32 + ^
STACK CFI 5c128 .cfa: sp 32 +
STACK CFI 5c130 .cfa: sp 0 +
STACK CFI INIT 5cda8 1c .cfa: sp 0 +
STACK CFI INIT 5d3f0 4 .cfa: sp 0 +
STACK CFI INIT 5d504 4 .cfa: sp 0 +
STACK CFI INIT 5d508 38 .cfa: sp 0 +
STACK CFI 5d50c .cfa: sp 32 +
STACK CFI 5d514 .cfa: x29 32 + x19: .cfa -16 + ^ .ra: .cfa -24 + ^ x29: .cfa -32 + ^
STACK CFI 5d534 .cfa: sp 32 +
STACK CFI 5d53c .cfa: sp 0 +
STACK CFI INIT 5d540 18 .cfa: sp 0 +
STACK CFI INIT 5d558 4 .cfa: sp 0 +
STACK CFI INIT 5d55c 4 .cfa: sp 0 +
STACK CFI INIT 5d560 8 .cfa: sp 0 +
STACK CFI INIT 5d568 1c .cfa: sp 0 +
STACK CFI INIT 5d584 c .cfa: sp 0 +
STACK CFI INIT 5dfe0 4 .cfa: sp 0 +
STACK CFI INIT 5dfe4 24 .cfa: sp 0 +
STACK CFI 5dfe8 .cfa: sp 16 +
STACK CFI 5dfec .cfa: x29 16 + .ra: .cfa -8 + ^ x29: .cfa -16 + ^
STACK CFI 5e000 .cfa: sp 16 +
STACK CFI 5e004 .cfa: sp 0 +
STACK CFI INIT 5e008 10 .cfa: sp 0 +
STACK CFI INIT 5e018 4 .cfa: sp 0 +
STACK CFI INIT 5e01c 4 .cfa: sp 0 +
STACK CFI INIT 5e020 8 .cfa: sp 0 +
STACK CFI INIT 5e028 1c .cfa: sp 0 +
STACK CFI INIT 5e044 c .cfa: sp 0 +
STACK CFI INIT 5e4c0 1c .cfa: sp 0 +
STACK CFI INIT 5e898 4 .cfa: sp 0 +
STACK CFI INIT 5e964 80 .cfa: sp 0 +
STACK CFI 5e968 .cfa: sp 32 +
STACK CFI 5e970 .cfa: x29 32 + x19: .cfa -16 + ^ .ra: .cfa -24 + ^ x29: .cfa -32 + ^
STACK CFI 5e9d8 .cfa: sp 32 +
STACK CFI 5e9e0 .cfa: sp 0 +
STACK CFI INIT 5e9e4 4 .cfa: sp 0 +
STACK CFI INIT 5e9e8 68 .cfa: sp 0 +
STACK CFI 5e9ec .cfa: sp 48 +
STACK CFI 5e9f8 .cfa: x29 48 + x19: .cfa -8 + ^ x20: .cfa -16 + ^ x21: .cfa -32 + ^ .ra: .cfa -40 + ^ x29: .cfa -48 + ^
STACK CFI 5ea30 .cfa: sp 48 +
STACK CFI 5ea3c .cfa: sp 0 +
STACK CFI 5ea40 .cfa: sp 48 +
STACK CFI 5ea4c .cfa: sp 0 +
STACK CFI INIT 5f4c8 64 .cfa: sp 0 +
STACK CFI 5f4cc .cfa: sp 32 +
STACK CFI 5f4d4 .cfa: x29 32 + x19: .cfa -16 + ^ .ra: .cfa -24 + ^ x29: .cfa -32 + ^
STACK CFI 5f4f0 .cfa: sp 32 +
STACK CFI 5f4f8 .cfa: sp 0 +
STACK CFI 5f4fc .cfa: x29 32 +
STACK CFI 5f520 .cfa: sp 32 +
STACK CFI 5f528 .cfa: sp 0 +
STACK CFI INIT 5f52c 68 .cfa: sp 0 +
STACK CFI 5f530 .cfa: sp 48 +
STACK CFI 5f53c .cfa: x29 48 + x19: .cfa -8 + ^ x20: .cfa -16 + ^ x21: .cfa -32 + ^ .ra: .cfa -40 + ^ x29: .cfa -48 + ^
STACK CFI 5f574 .cfa: sp 48 +
STACK CFI 5f580 .cfa: sp 0 +
STACK CFI 5f584 .cfa: sp 48 +
STACK CFI 5f590 .cfa: sp 0 +
STACK CFI INIT 5f594 c4 .cfa: sp 0 +
STACK CFI 5f598 .cfa: sp 48 +
STACK CFI 5f5a4 .cfa: x29 48 + x19: .cfa -8 + ^ x20: .cfa -16 + ^ x21: .cfa -24 + ^ x22: .cfa -32 + ^ .ra: .cfa -40 + ^ x29: .cfa -48 + ^
STACK CFI 5f5c4 .cfa: sp 48 +
STACK CFI 5f5d0 .cfa: sp 0 +
STACK CFI 5f5d4 .cfa: x29 48 +
STACK CFI 5f638 .cfa: sp 48 +
STACK CFI 5f644 .cfa: sp 0 +
STACK CFI 5f648 .cfa: sp 48 +
STACK CFI 5f654 .cfa: sp 0 +
STACK CFI INIT 61fb0 7bc .cfa: sp 0 +
STACK CFI 61fb4 .cfa: sp 176 +
STACK CFI 61fd0 .cfa: x29 96 + x19: .cfa -8 + ^ x20: .cfa -16 + ^ x21: .cfa -24 + ^ x22: .cfa -32 + ^ x23: .cfa -40 + ^ x24: .cfa -48 + ^ x25: .cfa -56 + ^ x26: .cfa -64 + ^ x27: .cfa -72 + ^ x28: .cfa -80 + ^ .ra: .cfa -88 + ^ x29: .cfa -96 + ^
STACK CFI 62724 .cfa: sp 176 +
STACK CFI 62740 .cfa: sp 0 +
STACK CFI 62744 .cfa: x29 96 +
STACK CFI INIT 62bd4 7c .cfa: sp 0 +
STACK CFI 62bd8 .cfa: sp 32 +
STACK CFI 62be0 .cfa: x29 32 + x19: .cfa -16 + ^ .ra: .cfa -24 + ^ x29: .cfa -32 + ^
STACK CFI 62c04 .cfa: sp 32 +
STACK CFI 62c0c .cfa: sp 0 +
STACK CFI 62c10 .cfa: x29 32 +
STACK CFI 62c44 .cfa: sp 32 +
STACK CFI 62c4c .cfa: sp 0 +
STACK CFI INIT 62c50 7c .cfa: sp 0 +
STACK CFI 62c54 .cfa: sp 32 +
STACK CFI 62c5c .cfa: x29 32 + x19: .cfa -16 + ^ .ra: .cfa -24 + ^ x29: .cfa -32 + ^
STACK CFI 62c80 .cfa: sp 32 +
STACK CFI 62c88 .cfa: sp 0 +
STACK CFI 62c8c .cfa: x29 32 +
STACK CFI 62cc0 .cfa: sp 32 +
STACK CFI 62cc8 .cfa: sp 0 +
STACK CFI INIT 62ccc 7c .cfa: sp 0 +
STACK CFI 62cd0 .cfa: sp 32 +
STACK CFI 62cd8 .cfa: x29 32 + x19: .cfa -16 + ^ .ra: .cfa -24 + ^ x29: .cfa -32 + ^
STACK CFI 62cfc .cfa: sp 32 +
STACK CFI 62d04 .cfa: sp 0 +
STACK CFI 62d08 .cfa: x29 32 +
STACK CFI 62d3c .cfa: sp 32 +
STACK CFI 62d44 .cfa: sp 0 +
STACK CFI INIT 62d48 7c .cfa: sp 0 +
STACK CFI 62d4c .cfa: sp 32 +
STACK CFI 62d54 .cfa: x29 32 + x19: .cfa -16 + ^ .ra: .cfa -24 + ^ x29: .cfa -32 + ^
STACK CFI 62d78 .cfa: sp 32 +
STACK CFI 62d80 .cfa: sp 0 +
STACK CFI 62d84 .cfa: x29 32 +
STACK CFI 62db8 .cfa: sp 32 +
STACK CFI 62dc0 .cfa: sp 0 +
STACK CFI INIT 62dc4 7c .cfa: sp 0 +
STACK CFI 62dc8 .cfa: sp 32 +
STACK CFI 62dd0 .cfa: x29 32 + x19: .cfa -16 + ^ .ra: .cfa -24 + ^ x29: .cfa -32 + ^
STACK CFI 62df4 .cfa: sp 32 +
STACK CFI 62dfc .cfa: sp 0 +
STACK CFI 62e00 .cfa: x29 32 +
STACK CFI 62e34 .cfa: sp 32 +
STACK CFI 62e3c .cfa: sp 0 +
STACK CFI INIT 65010 50 .cfa: sp 0 +
STACK CFI 65014 .cfa: sp 32 +
STACK CFI 6501c .cfa: x29 32 + x19: .cfa -16 + ^ .ra: .cfa -24 + ^ x29: .cfa -32 + ^
STACK CFI 65034 .cfa: sp 32 +
STACK CFI 6503c .cfa: sp 0 +
STACK CFI 65040 .cfa: x29 32 +
STACK CFI 65054 .cfa: sp 32 +
STACK CFI 6505c .cfa: sp 0 +
STACK CFI INIT 65060 a4 .cfa: sp 0 +
STACK CFI 6507c .cfa: sp 32 +
STACK CFI 65084 .cfa: x29 32 + x19: .cfa -16 + ^ .ra: .cfa -24 + ^ x29: .cfa -32 + ^
STACK CFI 6509c .cfa: sp 32 +
STACK CFI 650a4 .cfa: sp 0 +
STACK CFI 650a8 .cfa: x29 32 +
STACK CFI 650f8 .cfa: sp 32 +
STACK CFI 65100 .cfa: sp 0 +
STACK CFI INIT 6758c 3c .cfa: sp 0 +
STACK CFI 67590 .cfa: sp 32 +
STACK CFI 67598 .cfa: x29 32 + x19: .cfa -16 + ^ .ra: .cfa -24 + ^ x29: .cfa -32 + ^
STACK CFI 675ac .cfa: sp 32 +
STACK CFI 675b4 .cfa: sp 0 +
STACK CFI 675b8 .cfa: x29 32 +
STACK CFI 675bc .cfa: sp 32 +
STACK CFI 675c4 .cfa: sp 0 +
STACK CFI INIT 67968 94 .cfa: sp 0 +
STACK CFI 6796c .cfa: sp 32 +
STACK CFI 67974 .cfa: x29 32 + x19: .cfa -16 + ^ .ra: .cfa -24 + ^ x29: .cfa -32 + ^
STACK CFI 679a0 .cfa: sp 32 +
STACK CFI 679a8 .cfa: sp 0 +
STACK CFI 679ac .cfa: x29 32 +
STACK CFI 679f0 .cfa: sp 32 +
STACK CFI 679f8 .cfa: sp 0 +
STACK CFI INIT 679fc 94 .cfa: sp 0 +
STACK CFI 67a00 .cfa: sp 32 +
STACK CFI 67a08 .cfa: x29 32 + x19: .cfa -16 + ^ .ra: .cfa -24 + ^ x29: .cfa -32 + ^
STACK CFI 67a34 .cfa: sp 32 +
STACK CFI 67a3c .cfa: sp 0 +
STACK CFI 67a40 .cfa: x29 32 +
STACK CFI 67a84 .cfa: sp 32 +
STACK CFI 67a8c .cfa: sp 0 +
STACK CFI INIT 67a90 44 .cfa: sp 0 +
STACK CFI 67a94 .cfa: sp 32 +
STACK CFI 67a9c .cfa: x29 32 + x19: .cfa -16 + ^ .ra: .cfa -24 + ^ x29: .cfa -32 + ^
STACK CFI 67ab8 .cfa: sp 32 +
STACK CFI 67ac0 .cfa: sp 0 +
STACK CFI 67ac4 .cfa: x29 32 +
STACK CFI 67ac8 .cfa: sp 32 +
STACK CFI 67ad0 .cfa: sp 0 +
STACK CFI INIT 67ad4 200 .cfa: sp 0 +
STACK CFI 67ad8 .cfa: sp 64 +
STACK CFI 67ae8 .cfa: x29 64 + x19: .cfa -8 + ^ x20: .cfa -16 + ^ x21: .cfa -24 + ^ x22: .cfa -32 + ^ x23: .cfa -40 + ^ x24: .cfa -48 + ^ .ra: .cfa -56 + ^ x29: .cfa -64 + ^
STACK CFI 67cb8 .cfa: sp 64 +
STACK CFI 67cc8 .cfa: sp 0 +
STACK CFI 67ccc .cfa: x29 64 +
STACK CFI INIT 67cd4 14 .cfa: sp 0 +
STACK CFI 67cd8 .cfa: sp 16 +
STACK CFI 67cdc .cfa: x29 16 + .ra: .cfa -8 + ^ x29: .cfa -16 + ^
STACK CFI INIT 67ce8 40 .cfa: sp 0 +
STACK CFI 67d00 .cfa: sp 32 +
STACK CFI 67d08 .cfa: x29 32 + x19: .cfa -16 + ^ .ra: .cfa -24 + ^ x29: .cfa -32 + ^
STACK CFI 67d1c .cfa: sp 32 +
STACK CFI 67d24 .cfa: sp 0 +
STACK CFI INIT 67d28 b0 .cfa: sp 0 +
STACK CFI 67d2c .cfa: sp 80 +
STACK CFI 67d3c .cfa: x29 48 + x19: .cfa -8 + ^ x20: .cfa -16 + ^ x21: .cfa -32 + ^ .ra: .cfa -40 + ^ x29: .cfa -48 + ^
STACK CFI 67dc0 .cfa: sp 80 +
STACK CFI 67dd0 .cfa: sp 0 +
STACK CFI 67dd4 .cfa: x29 48 +
STACK CFI INIT 67dd8 44 .cfa: sp 0 +
STACK CFI 67ddc .cfa: sp 32 +
STACK CFI 67de4 .cfa: x29 32 + x19: .cfa -16 + ^ .ra: .cfa -24 + ^ x29: .cfa -32 + ^
STACK CFI 67e10 .cfa: sp 32 +
STACK CFI 67e18 .cfa: sp 0 +
STACK CFI INIT 67e1c e8 .cfa: sp 0 +
STACK CFI 67e20 .cfa: sp 32 +
STACK CFI 67e28 .cfa: x29 32 + x19: .cfa -8 + ^ x20: .cfa -16 + ^ .ra: .cfa -24 + ^ x29: .cfa -32 + ^
STACK CFI 67e68 .cfa: sp 32 +
STACK CFI 67e70 .cfa: sp 0 +
STACK CFI 67e74 .cfa: x29 32 +
STACK CFI 67eb0 .cfa: sp 32 +
STACK CFI 67eb8 .cfa: sp 0 +
STACK CFI 67ebc .cfa: x29 32 +
STACK CFI 67edc .cfa: sp 32 +
STACK CFI 67ee4 .cfa: sp 0 +
STACK CFI 67ee8 .cfa: x29 32 +
STACK CFI 67ef8 .cfa: sp 32 +
STACK CFI 67f00 .cfa: sp 0 +
STACK CFI INIT 67f04 d8 .cfa: sp 0 +
STACK CFI 67f08 .cfa: sp 48 +
STACK CFI 67f14 .cfa: x29 48 + x19: .cfa -8 + ^ x20: .cfa -16 + ^ x21: .cfa -32 + ^ .ra: .cfa -40 + ^ x29: .cfa -48 + ^
STACK CFI 67f48 .cfa: sp 48 +
STACK CFI 67f54 .cfa: sp 0 +
STACK CFI 67f58 .cfa: x29 48 +
STACK CFI 67fb4 .cfa: sp 48 +
STACK CFI 67fc0 .cfa: sp 0 +
STACK CFI 67fc4 .cfa: x29 48 +
STACK CFI INIT 69878 200 .cfa: sp 0 +
STACK CFI 6987c .cfa: sp 336 +
STACK CFI 69894 .cfa: x29 80 + x19: .cfa -8 + ^ x20: .cfa -16 + ^ x21: .cfa -24 + ^ x22: .cfa -32 + ^ x23: .cfa -40 + ^ x24: .cfa -48 + ^ x25: .cfa -56 + ^ x28: .cfa -64 + ^ .ra: .cfa -72 + ^ x29: .cfa -80 + ^
STACK CFI 69a58 .cfa: sp 336 +
STACK CFI 69a70 .cfa: sp 0 +
STACK CFI 69a74 .cfa: x29 80 +
STACK CFI INIT 69a78 68 .cfa: sp 0 +
STACK CFI 69a7c .cfa: sp 48 +
STACK CFI 69a88 .cfa: x29 48 + x19: .cfa -8 + ^ x20: .cfa -16 + ^ x21: .cfa -32 + ^ .ra: .cfa -40 + ^ x29: .cfa -48 + ^
STACK CFI 69ac0 .cfa: sp 48 +
STACK CFI 69acc .cfa: sp 0 +
STACK CFI 69ad0 .cfa: sp 48 +
STACK CFI 69adc .cfa: sp 0 +
STACK CFI INIT 69ae0 54 .cfa: sp 0 +
STACK CFI 69ae4 .cfa: sp 32 +
STACK CFI 69aec .cfa: x29 32 + x19: .cfa -8 + ^ x20: .cfa -16 + ^ .ra: .cfa -24 + ^ x29: .cfa -32 + ^
STACK CFI 69b1c .cfa: sp 32 +
STACK CFI 69b24 .cfa: sp 0 +
STACK CFI 69b28 .cfa: sp 32 +
STACK CFI 69b30 .cfa: sp 0 +
STACK CFI INIT 69b34 14 .cfa: sp 0 +
STACK CFI 69b38 .cfa: sp 16 +
STACK CFI 69b3c .cfa: x29 16 + .ra: .cfa -8 + ^ x29: .cfa -16 + ^
STACK CFI INIT 69e8c 4 .cfa: sp 0 +
STACK CFI INIT 69e90 34 .cfa: sp 0 +
STACK CFI 69e94 .cfa: sp 32 +
STACK CFI 69e9c .cfa: x29 32 + x19: .cfa -16 + ^ .ra: .cfa -24 + ^ x29: .cfa -32 + ^
STACK CFI 69eb8 .cfa: sp 32 +
STACK CFI 69ec0 .cfa: sp 0 +
STACK CFI INIT 69ec4 14 .cfa: sp 0 +
STACK CFI INIT 69ed8 4 .cfa: sp 0 +
STACK CFI INIT 69edc 4 .cfa: sp 0 +
STACK CFI INIT 69ee0 10 .cfa: sp 0 +
STACK CFI INIT 69ef0 1c .cfa: sp 0 +
STACK CFI INIT 69f0c c .cfa: sp 0 +
STACK CFI INIT 69f18 a4 .cfa: sp 0 +
STACK CFI 69f1c .cfa: sp 48 +
STACK CFI 69f28 .cfa: x29 48 + x19: .cfa -8 + ^ x20: .cfa -16 + ^ x21: .cfa -32 + ^ .ra: .cfa -40 + ^ x29: .cfa -48 + ^
STACK CFI 69f7c .cfa: sp 48 +
STACK CFI 69f88 .cfa: sp 0 +
STACK CFI 69f8c .cfa: x29 48 +
STACK CFI 69fac .cfa: sp 48 +
STACK CFI 69fb8 .cfa: sp 0 +
STACK CFI INIT 6a128 9c .cfa: sp 0 +
STACK CFI 6a130 .cfa: sp 48 +
STACK CFI 6a13c .cfa: x29 48 + x19: .cfa -8 + ^ x20: .cfa -16 + ^ x21: .cfa -32 + ^ .ra: .cfa -40 + ^ x29: .cfa -48 + ^
STACK CFI 6a190 .cfa: sp 0 + x19: x19 x20: x20 x21: x21 .ra: x30 x29: x29
STACK CFI 6a194 .cfa: x29 48 + x19: .cfa -8 + ^ x20: .cfa -16 + ^ x21: .cfa -32 + ^ .ra: .cfa -40 + ^ x29: .cfa -48 + ^
STACK CFI 6a1b4 .cfa: sp 48 +
STACK CFI 6a1c0 .cfa: sp 0 +
STACK CFI INIT 6a1c4 8c .cfa: sp 0 +
STACK CFI 6a1c8 .cfa: sp 48 +
STACK CFI 6a1d4 .cfa: x29 48 + x19: .cfa -8 + ^ x20: .cfa -16 + ^ x21: .cfa -32 + ^ .ra: .cfa -40 + ^ x29: .cfa -48 + ^
STACK CFI 6a22c .cfa: sp 48 +
STACK CFI 6a238 .cfa: sp 0 +
STACK CFI 6a23c .cfa: x29 48 +
STACK CFI 6a240 .cfa: sp 48 +
STACK CFI 6a24c .cfa: sp 0 +
STACK CFI INIT 6a708 54 .cfa: sp 0 +
STACK CFI 6a70c .cfa: sp 32 +
STACK CFI 6a714 .cfa: x29 32 + x19: .cfa -8 + ^ x20: .cfa -16 + ^ .ra: .cfa -24 + ^ x29: .cfa -32 + ^
STACK CFI 6a744 .cfa: sp 32 +
STACK CFI 6a74c .cfa: sp 0 +
STACK CFI 6a750 .cfa: sp 32 +
STACK CFI 6a758 .cfa: sp 0 +
STACK CFI INIT 6a75c 4 .cfa: sp 0 +
STACK CFI INIT 6a760 24 .cfa: sp 0 +
STACK CFI 6a764 .cfa: sp 16 +
STACK CFI 6a768 .cfa: x29 16 + .ra: .cfa -8 + ^ x29: .cfa -16 + ^
STACK CFI 6a77c .cfa: sp 16 +
STACK CFI 6a780 .cfa: sp 0 +
STACK CFI INIT 6a784 10 .cfa: sp 0 +
STACK CFI INIT 6a794 4 .cfa: sp 0 +
STACK CFI INIT 6a798 4 .cfa: sp 0 +
STACK CFI INIT 6a79c 4 .cfa: sp 0 +
STACK CFI INIT 6a7a0 1c .cfa: sp 0 +
STACK CFI INIT 6a7bc c .cfa: sp 0 +
STACK CFI INIT 6a7c8 4 .cfa: sp 0 +
STACK CFI INIT 6a7cc 4 .cfa: sp 0 +
STACK CFI INIT 6a7d0 38 .cfa: sp 0 +
STACK CFI 6a7d4 .cfa: sp 32 +
STACK CFI 6a7dc .cfa: x29 32 + x19: .cfa -16 + ^ .ra: .cfa -24 + ^ x29: .cfa -32 + ^
STACK CFI 6a7fc .cfa: sp 32 +
STACK CFI 6a804 .cfa: sp 0 +
STACK CFI INIT 6a808 18 .cfa: sp 0 +
STACK CFI INIT 6a820 4 .cfa: sp 0 +
STACK CFI INIT 6a824 4 .cfa: sp 0 +
STACK CFI INIT 6a828 4 .cfa: sp 0 +
STACK CFI INIT 6a82c 1c .cfa: sp 0 +
STACK CFI INIT 6a848 c .cfa: sp 0 +
STACK CFI INIT 6ac9c 50 .cfa: sp 0 +
STACK CFI 6aca0 .cfa: sp 32 +
STACK CFI 6aca8 .cfa: x29 32 + x19: .cfa -8 + ^ x20: .cfa -16 + ^ .ra: .cfa -24 + ^ x29: .cfa -32 + ^
STACK CFI 6acd4 .cfa: sp 32 +
STACK CFI 6acdc .cfa: sp 0 +
STACK CFI 6ace0 .cfa: sp 32 +
STACK CFI 6ace8 .cfa: sp 0 +
STACK CFI INIT 6acec 3c .cfa: sp 0 +
STACK CFI 6acf0 .cfa: sp 32 +
STACK CFI 6acf8 .cfa: x29 32 + x19: .cfa -16 + ^ .ra: .cfa -24 + ^ x29: .cfa -32 + ^
STACK CFI 6ad10 .cfa: sp 32 +
STACK CFI 6ad18 .cfa: sp 0 +
STACK CFI 6ad1c .cfa: sp 32 +
STACK CFI 6ad24 .cfa: sp 0 +
STACK CFI INIT 6ad28 1c8 .cfa: sp 0 +
STACK CFI 6ad2c .cfa: sp 80 +
STACK CFI 6ad40 .cfa: x29 80 + x19: .cfa -8 + ^ x20: .cfa -16 + ^ x21: .cfa -24 + ^ x22: .cfa -32 + ^ x23: .cfa -40 + ^ x24: .cfa -48 + ^ x25: .cfa -64 + ^ .ra: .cfa -72 + ^ x29: .cfa -80 + ^
STACK CFI 6aec0 .cfa: sp 80 +
STACK CFI 6aed4 .cfa: sp 0 +
STACK CFI 6aed8 .cfa: sp 80 +
STACK CFI 6aeec .cfa: sp 0 +
STACK CFI INIT 6b600 88 .cfa: sp 0 +
STACK CFI 6b604 .cfa: sp 32 +
STACK CFI 6b60c .cfa: x29 32 + x19: .cfa -16 + ^ .ra: .cfa -24 + ^ x29: .cfa -32 + ^
STACK CFI 6b63c .cfa: sp 32 +
STACK CFI 6b644 .cfa: sp 0 +
STACK CFI 6b648 .cfa: x29 32 +
STACK CFI 6b67c .cfa: sp 32 +
STACK CFI 6b684 .cfa: sp 0 +
STACK CFI INIT 6b688 94 .cfa: sp 0 +
STACK CFI 6b68c .cfa: sp 32 +
STACK CFI 6b694 .cfa: x29 32 + x19: .cfa -16 + ^ .ra: .cfa -24 + ^ x29: .cfa -32 + ^
STACK CFI 6b6c8 .cfa: sp 32 +
STACK CFI 6b6d0 .cfa: sp 0 +
STACK CFI 6b6d4 .cfa: x29 32 +
STACK CFI 6b710 .cfa: sp 32 +
STACK CFI 6b718 .cfa: sp 0 +
STACK CFI INIT 6b870 7c .cfa: sp 0 +
STACK CFI 6b874 .cfa: sp 32 +
STACK CFI 6b87c .cfa: x29 32 + x19: .cfa -16 + ^ .ra: .cfa -24 + ^ x29: .cfa -32 + ^
STACK CFI 6b8a0 .cfa: sp 32 +
STACK CFI 6b8a8 .cfa: sp 0 +
STACK CFI 6b8ac .cfa: x29 32 +
STACK CFI 6b8e0 .cfa: sp 32 +
STACK CFI 6b8e8 .cfa: sp 0 +
STACK CFI INIT 6b8ec 88 .cfa: sp 0 +
STACK CFI 6b8f0 .cfa: sp 32 +
STACK CFI 6b8f8 .cfa: x29 32 + x19: .cfa -16 + ^ .ra: .cfa -24 + ^ x29: .cfa -32 + ^
STACK CFI 6b920 .cfa: sp 32 +
STACK CFI 6b928 .cfa: sp 0 +
STACK CFI 6b92c .cfa: x29 32 +
STACK CFI 6b968 .cfa: sp 32 +
STACK CFI 6b970 .cfa: sp 0 +
STACK CFI INIT 6d2d8 1c .cfa: sp 0 +
STACK CFI INIT 6d2f4 c .cfa: sp 0 +
STACK CFI INIT 6e1b0 1a4 .cfa: sp 0 +
STACK CFI 6e1b4 .cfa: sp 64 +
STACK CFI 6e1c0 .cfa: x29 32 + x19: .cfa -8 + ^ x20: .cfa -16 + ^ .ra: .cfa -24 + ^ x29: .cfa -32 + ^
STACK CFI 6e2ec .cfa: sp 64 +
STACK CFI 6e2f8 .cfa: sp 0 +
STACK CFI 6e2fc .cfa: x29 32 +
STACK CFI INIT 6e354 198 .cfa: sp 0 +
STACK CFI 6e358 .cfa: sp 16 +
STACK CFI 6e35c .cfa: x29 16 + .ra: .cfa -8 + ^ x29: .cfa -16 + ^
STACK CFI 6e3f8 .cfa: sp 16 +
STACK CFI 6e3fc .cfa: sp 0 +
STACK CFI 6e400 .cfa: x29 16 +
STACK CFI 6e4cc .cfa: sp 16 +
STACK CFI 6e4d0 .cfa: sp 0 +
STACK CFI 6e4d4 .cfa: x29 16 +
STACK CFI INIT 6e4ec 114 .cfa: sp 0 +
STACK CFI 6e4f0 .cfa: sp 128 +
STACK CFI 6e500 .cfa: x29 48 + x19: .cfa -8 + ^ x20: .cfa -16 + ^ x21: .cfa -32 + ^ .ra: .cfa -40 + ^ x29: .cfa -48 + ^
STACK CFI 6e5cc .cfa: sp 128 +
STACK CFI 6e5dc .cfa: sp 0 +
STACK CFI 6e5e0 .cfa: x29 48 +
STACK CFI INIT 6e600 27c .cfa: sp 0 +
STACK CFI 6e604 .cfa: sp 176 +
STACK CFI 6e620 .cfa: x29 96 + x19: .cfa -8 + ^ x20: .cfa -16 + ^ x21: .cfa -24 + ^ x22: .cfa -32 + ^ x23: .cfa -40 + ^ x24: .cfa -48 + ^ x25: .cfa -56 + ^ x26: .cfa -64 + ^ x27: .cfa -72 + ^ x28: .cfa -80 + ^ .ra: .cfa -88 + ^ x29: .cfa -96 + ^
STACK CFI 6e858 .cfa: sp 176 +
STACK CFI 6e874 .cfa: sp 0 +
STACK CFI 6e878 .cfa: x29 96 +
STACK CFI INIT 6e87c 94 .cfa: sp 0 +
STACK CFI 6e880 .cfa: sp 16 +
STACK CFI 6e884 .cfa: x29 16 + .ra: .cfa -8 + ^ x29: .cfa -16 + ^
STACK CFI 6e8d8 .cfa: sp 16 +
STACK CFI 6e8dc .cfa: sp 0 +
STACK CFI 6e8e0 .cfa: x29 16 +
STACK CFI INIT 6e910 134 .cfa: sp 0 +
STACK CFI 6e914 .cfa: sp 96 +
STACK CFI 6e92c .cfa: x29 96 + x19: .cfa -8 + ^ x20: .cfa -16 + ^ x21: .cfa -24 + ^ x22: .cfa -32 + ^ x23: .cfa -40 + ^ x24: .cfa -48 + ^ x25: .cfa -56 + ^ x26: .cfa -64 + ^ x27: .cfa -72 + ^ x28: .cfa -80 + ^ .ra: .cfa -88 + ^ x29: .cfa -96 + ^
STACK CFI 6e9fc .cfa: sp 96 +
STACK CFI 6ea00 .cfa: x29 96 +
STACK CFI 6ea04 .cfa: sp 96 +
STACK CFI 6ea1c .cfa: sp 0 +
STACK CFI 6ea20 .cfa: x29 96 +
STACK CFI 6ea40 .cfa: sp 96 +
STACK CFI INIT 6ea44 4e4 .cfa: sp 0 +
STACK CFI 6ea48 .cfa: sp 160 +
STACK CFI 6ea64 .cfa: x29 96 + x19: .cfa -8 + ^ x20: .cfa -16 + ^ x21: .cfa -24 + ^ x22: .cfa -32 + ^ x23: .cfa -40 + ^ x24: .cfa -48 + ^ x25: .cfa -56 + ^ x26: .cfa -64 + ^ x27: .cfa -72 + ^ x28: .cfa -80 + ^ .ra: .cfa -88 + ^ x29: .cfa -96 + ^
STACK CFI 6ef04 .cfa: sp 160 +
STACK CFI 6ef20 .cfa: sp 0 +
STACK CFI 6ef24 .cfa: x29 96 +
STACK CFI INIT 6ef28 20c .cfa: sp 0 +
STACK CFI 6ef2c .cfa: sp 80 +
STACK CFI 6ef40 .cfa: x29 80 + x19: .cfa -8 + ^ x20: .cfa -16 + ^ x21: .cfa -24 + ^ x22: .cfa -32 + ^ x23: .cfa -40 + ^ x24: .cfa -48 + ^ x25: .cfa -64 + ^ .ra: .cfa -72 + ^ x29: .cfa -80 + ^
STACK CFI 6efd0 .cfa: sp 80 +
STACK CFI 6efe4 .cfa: sp 0 +
STACK CFI 6efe8 .cfa: x29 80 +
STACK CFI 6eff4 .cfa: sp 80 +
STACK CFI 6f008 .cfa: sp 0 +
STACK CFI 6f00c .cfa: x29 80 +
STACK CFI INIT 6f134 3f4 .cfa: sp 0 +
STACK CFI 6f138 .cfa: sp 128 +
STACK CFI 6f154 .cfa: x29 96 + x19: .cfa -8 + ^ x20: .cfa -16 + ^ x21: .cfa -24 + ^ x22: .cfa -32 + ^ x23: .cfa -40 + ^ x24: .cfa -48 + ^ x25: .cfa -56 + ^ x26: .cfa -64 + ^ x27: .cfa -72 + ^ x28: .cfa -80 + ^ .ra: .cfa -88 + ^ x29: .cfa -96 + ^
STACK CFI 6f504 .cfa: sp 128 +
STACK CFI 6f520 .cfa: sp 0 +
STACK CFI 6f524 .cfa: x29 96 +
STACK CFI INIT 6f528 194 .cfa: sp 0 +
STACK CFI 6f52c .cfa: sp 32 +
STACK CFI 6f534 .cfa: x29 16 + .ra: .cfa -8 + ^ x29: .cfa -16 + ^
STACK CFI 6f578 .cfa: sp 32 +
STACK CFI 6f580 .cfa: sp 0 +
STACK CFI 6f584 .cfa: x29 16 +
STACK CFI INIT 6f6bc 1b8 .cfa: sp 0 +
STACK CFI INIT 6f874 1d0 .cfa: sp 0 +
STACK CFI 6f878 .cfa: sp 80 +
STACK CFI 6f88c .cfa: x29 80 + x19: .cfa -8 + ^ x20: .cfa -16 + ^ x21: .cfa -24 + ^ x22: .cfa -32 + ^ x23: .cfa -40 + ^ x24: .cfa -48 + ^ x25: .cfa -64 + ^ .ra: .cfa -72 + ^ x29: .cfa -80 + ^
STACK CFI 6fa2c .cfa: sp 80 +
STACK CFI 6fa40 .cfa: sp 0 +
STACK CFI INIT 6fa44 648 .cfa: sp 0 +
STACK CFI 6fa48 .cfa: sp 160 +
STACK CFI 6fa64 .cfa: x29 96 + x19: .cfa -8 + ^ x20: .cfa -16 + ^ x21: .cfa -24 + ^ x22: .cfa -32 + ^ x23: .cfa -40 + ^ x24: .cfa -48 + ^ x25: .cfa -56 + ^ x26: .cfa -64 + ^ x27: .cfa -72 + ^ x28: .cfa -80 + ^ .ra: .cfa -88 + ^ x29: .cfa -96 + ^
STACK CFI 70068 .cfa: sp 160 +
STACK CFI 70084 .cfa: sp 0 +
STACK CFI 70088 .cfa: x29 96 +
STACK CFI INIT 7008c 1e4 .cfa: sp 0 +
STACK CFI 70090 .cfa: sp 32 +
STACK CFI 70098 .cfa: x29 32 + x19: .cfa -8 + ^ x20: .cfa -16 + ^ .ra: .cfa -24 + ^ x29: .cfa -32 + ^
STACK CFI 70188 .cfa: sp 32 +
STACK CFI 70190 .cfa: sp 0 +
STACK CFI 70194 .cfa: x29 32 +
STACK CFI 70208 .cfa: sp 32 +
STACK CFI 70210 .cfa: sp 0 +
STACK CFI 70214 .cfa: x29 32 +
STACK CFI 70224 .cfa: sp 32 +
STACK CFI 7022c .cfa: sp 0 +
STACK CFI 70230 .cfa: x29 32 +
STACK CFI 70240 .cfa: sp 32 +
STACK CFI 70248 .cfa: sp 0 +
STACK CFI 7024c .cfa: x29 32 +
STACK CFI INIT 70270 178 .cfa: sp 0 +
STACK CFI 70274 .cfa: sp 80 +
STACK CFI 70288 .cfa: x29 64 + x19: .cfa -8 + ^ x20: .cfa -16 + ^ x21: .cfa -24 + ^ x22: .cfa -32 + ^ x23: .cfa -40 + ^ x24: .cfa -48 + ^ .ra: .cfa -56 + ^ x29: .cfa -64 + ^
STACK CFI 703cc .cfa: sp 80 +
STACK CFI 703e0 .cfa: sp 0 +
STACK CFI 703e4 .cfa: x29 64 +
STACK CFI INIT 703e8 178 .cfa: sp 0 +
STACK CFI 703ec .cfa: sp 80 +
STACK CFI 70400 .cfa: x29 64 + x19: .cfa -8 + ^ x20: .cfa -16 + ^ x21: .cfa -24 + ^ x22: .cfa -32 + ^ x23: .cfa -40 + ^ x24: .cfa -48 + ^ .ra: .cfa -56 + ^ x29: .cfa -64 + ^
STACK CFI 70544 .cfa: sp 80 +
STACK CFI 70558 .cfa: sp 0 +
STACK CFI 7055c .cfa: x29 64 +
STACK CFI INIT 70560 178 .cfa: sp 0 +
STACK CFI 70564 .cfa: sp 80 +
STACK CFI 70578 .cfa: x29 64 + x19: .cfa -8 + ^ x20: .cfa -16 + ^ x21: .cfa -24 + ^ x22: .cfa -32 + ^ x23: .cfa -40 + ^ x24: .cfa -48 + ^ .ra: .cfa -56 + ^ x29: .cfa -64 + ^
STACK CFI 706bc .cfa: sp 80 +
STACK CFI 706d0 .cfa: sp 0 +
STACK CFI 706d4 .cfa: x29 64 +
STACK CFI INIT 706d8 78 .cfa: sp 0 +
STACK CFI 706dc .cfa: sp 48 +
STACK CFI 706e8 .cfa: x29 48 + x19: .cfa -8 + ^ x20: .cfa -16 + ^ x21: .cfa -24 + ^ x22: .cfa -32 + ^ .ra: .cfa -40 + ^ x29: .cfa -48 + ^
STACK CFI 70730 .cfa: sp 48 +
STACK CFI 7073c .cfa: sp 0 +
STACK CFI 70740 .cfa: sp 48 +
STACK CFI 7074c .cfa: sp 0 +
STACK CFI INIT 70750 178 .cfa: sp 0 +
STACK CFI 70754 .cfa: sp 80 +
STACK CFI 70768 .cfa: x29 64 + x19: .cfa -8 + ^ x20: .cfa -16 + ^ x21: .cfa -24 + ^ x22: .cfa -32 + ^ x23: .cfa -40 + ^ x24: .cfa -48 + ^ .ra: .cfa -56 + ^ x29: .cfa -64 + ^
STACK CFI 708ac .cfa: sp 80 +
STACK CFI 708c0 .cfa: sp 0 +
STACK CFI 708c4 .cfa: x29 64 +
STACK CFI INIT 708c8 150 .cfa: sp 0 +
STACK CFI 708cc .cfa: sp 80 +
STACK CFI 708e0 .cfa: x29 80 + x19: .cfa -8 + ^ x20: .cfa -16 + ^ x21: .cfa -24 + ^ x22: .cfa -32 + ^ x23: .cfa -40 + ^ x24: .cfa -48 + ^ x25: .cfa -64 + ^ .ra: .cfa -72 + ^ x29: .cfa -80 + ^
STACK CFI 709f8 .cfa: sp 80 +
STACK CFI 70a0c .cfa: sp 0 +
STACK CFI 70a10 .cfa: x29 80 +
STACK CFI INIT 70a18 14 .cfa: sp 0 +
STACK CFI 70a1c .cfa: sp 16 +
STACK CFI 70a20 .cfa: x29 16 + .ra: .cfa -8 + ^ x29: .cfa -16 + ^
STACK CFI INIT 70a2c 24c .cfa: sp 0 +
STACK CFI 70a30 .cfa: sp 80 +
STACK CFI 70a44 .cfa: x29 80 + x19: .cfa -8 + ^ x20: .cfa -16 + ^ x21: .cfa -24 + ^ x22: .cfa -32 + ^ x23: .cfa -40 + ^ x24: .cfa -48 + ^ x25: .cfa -64 + ^ .ra: .cfa -72 + ^ x29: .cfa -80 + ^
STACK CFI 70c58 .cfa: sp 80 +
STACK CFI 70c6c .cfa: sp 0 +
STACK CFI 70c70 .cfa: x29 80 +
STACK CFI INIT 70c78 14 .cfa: sp 0 +
STACK CFI 70c7c .cfa: sp 16 +
STACK CFI 70c80 .cfa: x29 16 + .ra: .cfa -8 + ^ x29: .cfa -16 + ^
STACK CFI INIT 70c8c 88 .cfa: sp 0 +
STACK CFI 70c90 .cfa: sp 32 +
STACK CFI 70c98 .cfa: x29 32 + x19: .cfa -16 + ^ .ra: .cfa -24 + ^ x29: .cfa -32 + ^
STACK CFI 70cc8 .cfa: sp 32 +
STACK CFI 70cd0 .cfa: sp 0 +
STACK CFI 70cd4 .cfa: x29 32 +
STACK CFI 70d08 .cfa: sp 32 +
STACK CFI 70d10 .cfa: sp 0 +
STACK CFI INIT 70d14 94 .cfa: sp 0 +
STACK CFI 70d18 .cfa: sp 32 +
STACK CFI 70d20 .cfa: x29 32 + x19: .cfa -16 + ^ .ra: .cfa -24 + ^ x29: .cfa -32 + ^
STACK CFI 70d54 .cfa: sp 32 +
STACK CFI 70d5c .cfa: sp 0 +
STACK CFI 70d60 .cfa: x29 32 +
STACK CFI 70d9c .cfa: sp 32 +
STACK CFI 70da4 .cfa: sp 0 +
STACK CFI INIT 70efc 7c .cfa: sp 0 +
STACK CFI 70f00 .cfa: sp 32 +
STACK CFI 70f08 .cfa: x29 32 + x19: .cfa -16 + ^ .ra: .cfa -24 + ^ x29: .cfa -32 + ^
STACK CFI 70f2c .cfa: sp 32 +
STACK CFI 70f34 .cfa: sp 0 +
STACK CFI 70f38 .cfa: x29 32 +
STACK CFI 70f6c .cfa: sp 32 +
STACK CFI 70f74 .cfa: sp 0 +
STACK CFI INIT 70f78 88 .cfa: sp 0 +
STACK CFI 70f7c .cfa: sp 32 +
STACK CFI 70f84 .cfa: x29 32 + x19: .cfa -16 + ^ .ra: .cfa -24 + ^ x29: .cfa -32 + ^
STACK CFI 70fac .cfa: sp 32 +
STACK CFI 70fb4 .cfa: sp 0 +
STACK CFI 70fb8 .cfa: x29 32 +
STACK CFI 70ff4 .cfa: sp 32 +
STACK CFI 70ffc .cfa: sp 0 +
STACK CFI INIT 729f8 1c .cfa: sp 0 +
STACK CFI INIT 72a14 c .cfa: sp 0 +
STACK CFI INIT 72be8 88 .cfa: sp 0 +
STACK CFI 72bec .cfa: sp 32 +
STACK CFI 72bf4 .cfa: x29 32 + x19: .cfa -16 + ^ .ra: .cfa -24 + ^ x29: .cfa -32 + ^
STACK CFI 72c24 .cfa: sp 32 +
STACK CFI 72c2c .cfa: sp 0 +
STACK CFI 72c30 .cfa: x29 32 +
STACK CFI 72c64 .cfa: sp 32 +
STACK CFI 72c6c .cfa: sp 0 +
STACK CFI INIT 72c70 94 .cfa: sp 0 +
STACK CFI 72c74 .cfa: sp 32 +
STACK CFI 72c7c .cfa: x29 32 + x19: .cfa -16 + ^ .ra: .cfa -24 + ^ x29: .cfa -32 + ^
STACK CFI 72cb0 .cfa: sp 32 +
STACK CFI 72cb8 .cfa: sp 0 +
STACK CFI 72cbc .cfa: x29 32 +
STACK CFI 72cf8 .cfa: sp 32 +
STACK CFI 72d00 .cfa: sp 0 +
STACK CFI INIT 72e58 7c .cfa: sp 0 +
STACK CFI 72e5c .cfa: sp 32 +
STACK CFI 72e64 .cfa: x29 32 + x19: .cfa -16 + ^ .ra: .cfa -24 + ^ x29: .cfa -32 + ^
STACK CFI 72e88 .cfa: sp 32 +
STACK CFI 72e90 .cfa: sp 0 +
STACK CFI 72e94 .cfa: x29 32 +
STACK CFI 72ec8 .cfa: sp 32 +
STACK CFI 72ed0 .cfa: sp 0 +
STACK CFI INIT 72ed4 88 .cfa: sp 0 +
STACK CFI 72ed8 .cfa: sp 32 +
STACK CFI 72ee0 .cfa: x29 32 + x19: .cfa -16 + ^ .ra: .cfa -24 + ^ x29: .cfa -32 + ^
STACK CFI 72f08 .cfa: sp 32 +
STACK CFI 72f10 .cfa: sp 0 +
STACK CFI 72f14 .cfa: x29 32 +
STACK CFI 72f50 .cfa: sp 32 +
STACK CFI 72f58 .cfa: sp 0 +
STACK CFI INIT 74688 1c .cfa: sp 0 +
STACK CFI INIT 746a4 c .cfa: sp 0 +
STACK CFI INIT 746b0 10c .cfa: sp 0 +
STACK CFI 746b4 .cfa: sp 48 +
STACK CFI 746c0 .cfa: x29 48 + x19: .cfa -8 + ^ x20: .cfa -16 + ^ x21: .cfa -32 + ^ .ra: .cfa -40 + ^ x29: .cfa -48 + ^
STACK CFI 747ac .cfa: sp 48 +
STACK CFI 747b8 .cfa: sp 0 +
STACK CFI INIT 747bc 88 .cfa: sp 0 +
STACK CFI 747c0 .cfa: sp 32 +
STACK CFI 747c8 .cfa: x29 32 + x19: .cfa -16 + ^ .ra: .cfa -24 + ^ x29: .cfa -32 + ^
STACK CFI 747f8 .cfa: sp 32 +
STACK CFI 74800 .cfa: sp 0 +
STACK CFI 74804 .cfa: x29 32 +
STACK CFI 74838 .cfa: sp 32 +
STACK CFI 74840 .cfa: sp 0 +
STACK CFI INIT 74844 94 .cfa: sp 0 +
STACK CFI 74848 .cfa: sp 32 +
STACK CFI 74850 .cfa: x29 32 + x19: .cfa -16 + ^ .ra: .cfa -24 + ^ x29: .cfa -32 + ^
STACK CFI 74884 .cfa: sp 32 +
STACK CFI 7488c .cfa: sp 0 +
STACK CFI 74890 .cfa: x29 32 +
STACK CFI 748cc .cfa: sp 32 +
STACK CFI 748d4 .cfa: sp 0 +
STACK CFI INIT 74a24 7c .cfa: sp 0 +
STACK CFI 74a28 .cfa: sp 32 +
STACK CFI 74a30 .cfa: x29 32 + x19: .cfa -16 + ^ .ra: .cfa -24 + ^ x29: .cfa -32 + ^
STACK CFI 74a54 .cfa: sp 32 +
STACK CFI 74a5c .cfa: sp 0 +
STACK CFI 74a60 .cfa: x29 32 +
STACK CFI 74a94 .cfa: sp 32 +
STACK CFI 74a9c .cfa: sp 0 +
STACK CFI INIT 74aa0 88 .cfa: sp 0 +
STACK CFI 74aa4 .cfa: sp 32 +
STACK CFI 74aac .cfa: x29 32 + x19: .cfa -16 + ^ .ra: .cfa -24 + ^ x29: .cfa -32 + ^
STACK CFI 74ad4 .cfa: sp 32 +
STACK CFI 74adc .cfa: sp 0 +
STACK CFI 74ae0 .cfa: x29 32 +
STACK CFI 74b1c .cfa: sp 32 +
STACK CFI 74b24 .cfa: sp 0 +
STACK CFI INIT 75904 1c .cfa: sp 0 +
STACK CFI INIT 75920 c .cfa: sp 0 +
STACK CFI INIT 75a14 8 .cfa: sp 0 +
STACK CFI INIT 75a1c 14 .cfa: sp 0 +
STACK CFI INIT 75a30 88 .cfa: sp 0 +
STACK CFI 75a34 .cfa: sp 32 +
STACK CFI 75a3c .cfa: x29 32 + x19: .cfa -16 + ^ .ra: .cfa -24 + ^ x29: .cfa -32 + ^
STACK CFI 75a6c .cfa: sp 32 +
STACK CFI 75a74 .cfa: sp 0 +
STACK CFI 75a78 .cfa: x29 32 +
STACK CFI 75aac .cfa: sp 32 +
STACK CFI 75ab4 .cfa: sp 0 +
STACK CFI INIT 75ab8 94 .cfa: sp 0 +
STACK CFI 75abc .cfa: sp 32 +
STACK CFI 75ac4 .cfa: x29 32 + x19: .cfa -16 + ^ .ra: .cfa -24 + ^ x29: .cfa -32 + ^
STACK CFI 75af8 .cfa: sp 32 +
STACK CFI 75b00 .cfa: sp 0 +
STACK CFI 75b04 .cfa: x29 32 +
STACK CFI 75b40 .cfa: sp 32 +
STACK CFI 75b48 .cfa: sp 0 +
STACK CFI INIT 75c98 7c .cfa: sp 0 +
STACK CFI 75c9c .cfa: sp 32 +
STACK CFI 75ca4 .cfa: x29 32 + x19: .cfa -16 + ^ .ra: .cfa -24 + ^ x29: .cfa -32 + ^
STACK CFI 75cc8 .cfa: sp 32 +
STACK CFI 75cd0 .cfa: sp 0 +
STACK CFI 75cd4 .cfa: x29 32 +
STACK CFI 75d08 .cfa: sp 32 +
STACK CFI 75d10 .cfa: sp 0 +
STACK CFI INIT 75d14 88 .cfa: sp 0 +
STACK CFI 75d18 .cfa: sp 32 +
STACK CFI 75d20 .cfa: x29 32 + x19: .cfa -16 + ^ .ra: .cfa -24 + ^ x29: .cfa -32 + ^
STACK CFI 75d48 .cfa: sp 32 +
STACK CFI 75d50 .cfa: sp 0 +
STACK CFI 75d54 .cfa: x29 32 +
STACK CFI 75d90 .cfa: sp 32 +
STACK CFI 75d98 .cfa: sp 0 +
STACK CFI INIT 76d50 1c .cfa: sp 0 +
STACK CFI INIT 76d6c c .cfa: sp 0 +
STACK CFI INIT 76d78 4 .cfa: sp 0 +
STACK CFI INIT 76d7c 4 .cfa: sp 0 +
STACK CFI INIT 76d80 38 .cfa: sp 0 +
STACK CFI 76d84 .cfa: sp 32 +
STACK CFI 76d8c .cfa: x29 32 + x19: .cfa -16 + ^ .ra: .cfa -24 + ^ x29: .cfa -32 + ^
STACK CFI 76dac .cfa: sp 32 +
STACK CFI 76db4 .cfa: sp 0 +
STACK CFI INIT 76db8 18 .cfa: sp 0 +
STACK CFI INIT 76dd0 4 .cfa: sp 0 +
STACK CFI INIT 76dd4 4 .cfa: sp 0 +
STACK CFI INIT 76e90 1c .cfa: sp 0 +
STACK CFI INIT 76eac c .cfa: sp 0 +
STACK CFI INIT 77094 3c .cfa: sp 0 +
STACK CFI 77098 .cfa: sp 32 +
STACK CFI 770a0 .cfa: x29 32 + x19: .cfa -16 + ^ .ra: .cfa -24 + ^ x29: .cfa -32 + ^
STACK CFI 770ac .cfa: sp 32 +
STACK CFI 770b4 .cfa: sp 0 +
STACK CFI 770b8 .cfa: x29 32 +
STACK CFI 770c4 .cfa: sp 32 +
STACK CFI 770cc .cfa: sp 0 +
STACK CFI INIT 770d0 3c .cfa: sp 0 +
STACK CFI 770d4 .cfa: sp 32 +
STACK CFI 770dc .cfa: x29 32 + x19: .cfa -16 + ^ .ra: .cfa -24 + ^ x29: .cfa -32 + ^
STACK CFI 770e8 .cfa: sp 32 +
STACK CFI 770f0 .cfa: sp 0 +
STACK CFI 770f4 .cfa: x29 32 +
STACK CFI 77100 .cfa: sp 32 +
STACK CFI 77108 .cfa: sp 0 +
STACK CFI INIT 7710c 4c .cfa: sp 0 +
STACK CFI 77110 .cfa: sp 32 +
STACK CFI 77118 .cfa: x29 32 + x19: .cfa -8 + ^ x20: .cfa -16 + ^ .ra: .cfa -24 + ^ x29: .cfa -32 + ^
STACK CFI 77140 .cfa: sp 32 +
STACK CFI 77148 .cfa: sp 0 +
STACK CFI 7714c .cfa: sp 32 +
STACK CFI 77154 .cfa: sp 0 +
STACK CFI INIT 77378 64 .cfa: sp 0 +
STACK CFI 7737c .cfa: sp 32 +
STACK CFI 77384 .cfa: x29 32 + x19: .cfa -16 + ^ .ra: .cfa -24 + ^ x29: .cfa -32 + ^
STACK CFI 773b0 .cfa: sp 32 +
STACK CFI 773b8 .cfa: sp 0 +
STACK CFI 773bc .cfa: x29 32 +
STACK CFI 773d0 .cfa: sp 32 +
STACK CFI 773d8 .cfa: sp 0 +
STACK CFI INIT 77600 24 .cfa: sp 0 +
STACK CFI 77604 .cfa: sp 32 +
STACK CFI 7760c .cfa: x29 32 + x19: .cfa -16 + ^ .ra: .cfa -24 + ^ x29: .cfa -32 + ^
STACK CFI 77618 .cfa: sp 32 +
STACK CFI 77620 .cfa: sp 0 +
STACK CFI INIT 77624 24 .cfa: sp 0 +
STACK CFI 77628 .cfa: sp 32 +
STACK CFI 77630 .cfa: x29 32 + x19: .cfa -16 + ^ .ra: .cfa -24 + ^ x29: .cfa -32 + ^
STACK CFI 7763c .cfa: sp 32 +
STACK CFI 77644 .cfa: sp 0 +
STACK CFI INIT 778cc 8 .cfa: sp 0 +
STACK CFI INIT 778d4 24 .cfa: sp 0 +
STACK CFI 778d8 .cfa: sp 32 +
STACK CFI 778e0 .cfa: x29 32 + x19: .cfa -16 + ^ .ra: .cfa -24 + ^ x29: .cfa -32 + ^
STACK CFI 778ec .cfa: sp 32 +
STACK CFI 778f4 .cfa: sp 0 +
STACK CFI INIT 778f8 28 .cfa: sp 0 +
STACK CFI 778fc .cfa: sp 32 +
STACK CFI 77904 .cfa: x29 32 + x19: .cfa -16 + ^ .ra: .cfa -24 + ^ x29: .cfa -32 + ^
STACK CFI 77914 .cfa: sp 32 +
STACK CFI 7791c .cfa: sp 0 +
STACK CFI INIT 77c20 8 .cfa: sp 0 +
STACK CFI INIT 77c28 24 .cfa: sp 0 +
STACK CFI 77c2c .cfa: sp 32 +
STACK CFI 77c34 .cfa: x29 32 + x19: .cfa -16 + ^ .ra: .cfa -24 + ^ x29: .cfa -32 + ^
STACK CFI 77c40 .cfa: sp 32 +
STACK CFI 77c48 .cfa: sp 0 +
STACK CFI INIT 77c4c 28 .cfa: sp 0 +
STACK CFI 77c50 .cfa: sp 32 +
STACK CFI 77c58 .cfa: x29 32 + x19: .cfa -16 + ^ .ra: .cfa -24 + ^ x29: .cfa -32 + ^
STACK CFI 77c68 .cfa: sp 32 +
STACK CFI 77c70 .cfa: sp 0 +
STACK CFI INIT 77ed8 8 .cfa: sp 0 +
STACK CFI INIT 77ee0 24 .cfa: sp 0 +
STACK CFI 77ee4 .cfa: sp 32 +
STACK CFI 77eec .cfa: x29 32 + x19: .cfa -16 + ^ .ra: .cfa -24 + ^ x29: .cfa -32 + ^
STACK CFI 77ef8 .cfa: sp 32 +
STACK CFI 77f00 .cfa: sp 0 +
STACK CFI INIT 77f04 28 .cfa: sp 0 +
STACK CFI 77f08 .cfa: sp 32 +
STACK CFI 77f10 .cfa: x29 32 + x19: .cfa -16 + ^ .ra: .cfa -24 + ^ x29: .cfa -32 + ^
STACK CFI 77f20 .cfa: sp 32 +
STACK CFI 77f28 .cfa: sp 0 +
STACK CFI INIT 7819c 24 .cfa: sp 0 +
STACK CFI 781a0 .cfa: sp 32 +
STACK CFI 781a8 .cfa: x29 32 + x19: .cfa -16 + ^ .ra: .cfa -24 + ^ x29: .cfa -32 + ^
STACK CFI 781b4 .cfa: sp 32 +
STACK CFI 781bc .cfa: sp 0 +
STACK CFI INIT 78878 24 .cfa: sp 0 +
STACK CFI 7887c .cfa: sp 32 +
STACK CFI 78884 .cfa: x29 32 + x19: .cfa -16 + ^ .ra: .cfa -24 + ^ x29: .cfa -32 + ^
STACK CFI 78890 .cfa: sp 32 +
STACK CFI 78898 .cfa: sp 0 +
STACK CFI INIT 78dc0 24 .cfa: sp 0 +
STACK CFI 78dc4 .cfa: sp 32 +
STACK CFI 78dcc .cfa: x29 32 + x19: .cfa -16 + ^ .ra: .cfa -24 + ^ x29: .cfa -32 + ^
STACK CFI 78dd8 .cfa: sp 32 +
STACK CFI 78de0 .cfa: sp 0 +
STACK CFI INIT 794d0 24 .cfa: sp 0 +
STACK CFI 794d4 .cfa: sp 32 +
STACK CFI 794dc .cfa: x29 32 + x19: .cfa -16 + ^ .ra: .cfa -24 + ^ x29: .cfa -32 + ^
STACK CFI 794e8 .cfa: sp 32 +
STACK CFI 794f0 .cfa: sp 0 +
STACK CFI INIT 798dc 9c .cfa: sp 0 +
STACK CFI 798e0 .cfa: sp 32 +
STACK CFI 798e8 .cfa: x29 32 + x19: .cfa -16 + ^ .ra: .cfa -24 + ^ x29: .cfa -32 + ^
STACK CFI 7996c .cfa: sp 32 +
STACK CFI 79974 .cfa: sp 0 +
STACK CFI INIT 79978 8 .cfa: sp 0 +
STACK CFI INIT 79980 24 .cfa: sp 0 +
STACK CFI 79984 .cfa: sp 32 +
STACK CFI 7998c .cfa: x29 32 + x19: .cfa -16 + ^ .ra: .cfa -24 + ^ x29: .cfa -32 + ^
STACK CFI 79998 .cfa: sp 32 +
STACK CFI 799a0 .cfa: sp 0 +
STACK CFI INIT 799a4 28 .cfa: sp 0 +
STACK CFI 799a8 .cfa: sp 32 +
STACK CFI 799b0 .cfa: x29 32 + x19: .cfa -16 + ^ .ra: .cfa -24 + ^ x29: .cfa -32 + ^
STACK CFI 799c0 .cfa: sp 32 +
STACK CFI 799c8 .cfa: sp 0 +
STACK CFI INIT 79be4 14 .cfa: sp 0 +
STACK CFI INIT 79bf8 c4 .cfa: sp 0 +
STACK CFI 79bfc .cfa: sp 80 +
STACK CFI 79c10 .cfa: x29 40 + x19: .cfa -8 + ^ x20: .cfa -16 + ^ x21: .cfa -24 + ^ .ra: .cfa -32 + ^ x29: .cfa -40 + ^ v8: .cfa -48 + ^
STACK CFI 79ca0 .cfa: sp 80 +
STACK CFI 79cb4 .cfa: sp 0 +
STACK CFI 79cb8 .cfa: x29 40 +
STACK CFI INIT 79cbc 8 .cfa: sp 0 +
STACK CFI INIT 7a590 4 .cfa: sp 0 +
STACK CFI INIT 7c028 4 .cfa: sp 0 +
STACK CFI INIT 7c02c 14 .cfa: sp 0 +
STACK CFI INIT 7c54c c .cfa: sp 0 +
STACK CFI INIT 7c558 24c .cfa: sp 0 +
STACK CFI INIT 7c7a4 a0 .cfa: sp 0 +
STACK CFI 7c7b0 .cfa: sp 32 +
STACK CFI 7c808 .cfa: sp 0 +
STACK CFI 7c80c .cfa: sp 32 +
STACK CFI 7c814 .cfa: sp 0 +
STACK CFI 7c818 .cfa: sp 32 +
STACK CFI 7c82c .cfa: sp 0 +
STACK CFI 7c830 .cfa: sp 32 +
STACK CFI 7c840 .cfa: sp 0 +
STACK CFI INIT 7c844 38 .cfa: sp 0 +
STACK CFI 7c850 .cfa: sp 32 +
STACK CFI 7c878 .cfa: sp 0 +
STACK CFI INIT 7cb10 7c .cfa: sp 0 +
STACK CFI 7cb14 .cfa: sp 32 +
STACK CFI 7cb1c .cfa: x29 32 + x19: .cfa -16 + ^ .ra: .cfa -24 + ^ x29: .cfa -32 + ^
STACK CFI 7cb48 .cfa: sp 32 +
STACK CFI 7cb50 .cfa: sp 0 +
STACK CFI 7cb54 .cfa: x29 32 +
STACK CFI 7cb80 .cfa: sp 32 +
STACK CFI 7cb88 .cfa: sp 0 +
STACK CFI INIT 7cbdc 2c .cfa: sp 0 +
STACK CFI 7cbe0 .cfa: sp 32 +
STACK CFI 7cbe8 .cfa: x29 32 + x19: .cfa -16 + ^ .ra: .cfa -24 + ^ x29: .cfa -32 + ^
STACK CFI 7cbfc .cfa: sp 32 +
STACK CFI 7cc04 .cfa: sp 0 +
STACK CFI INIT 7d3c8 64 .cfa: sp 0 +
STACK CFI 7d3cc .cfa: sp 32 +
STACK CFI 7d3d4 .cfa: x29 32 + x19: .cfa -16 + ^ .ra: .cfa -24 + ^ x29: .cfa -32 + ^
STACK CFI 7d3f0 .cfa: sp 32 +
STACK CFI 7d3f8 .cfa: sp 0 +
STACK CFI 7d3fc .cfa: x29 32 +
STACK CFI 7d420 .cfa: sp 32 +
STACK CFI 7d428 .cfa: sp 0 +
STACK CFI INIT 7d578 570 .cfa: sp 0 +
STACK CFI 7d57c .cfa: sp 176 +
STACK CFI 7d590 .cfa: x29 64 + x19: .cfa -8 + ^ x20: .cfa -16 + ^ x21: .cfa -24 + ^ x22: .cfa -32 + ^ x23: .cfa -40 + ^ x24: .cfa -48 + ^ .ra: .cfa -56 + ^ x29: .cfa -64 + ^
STACK CFI 7d7c0 .cfa: sp 176 +
STACK CFI 7d7d4 .cfa: sp 0 +
STACK CFI 7d7d8 .cfa: x29 64 +
STACK CFI 7d824 .cfa: sp 176 +
STACK CFI 7d838 .cfa: sp 0 +
STACK CFI 7d83c .cfa: x29 64 +
STACK CFI 7d874 .cfa: sp 176 +
STACK CFI 7d888 .cfa: sp 0 +
STACK CFI 7d88c .cfa: x29 64 +
STACK CFI 7d8a4 .cfa: sp 176 +
STACK CFI 7d8b8 .cfa: sp 0 +
STACK CFI 7d8bc .cfa: x29 64 +
STACK CFI 7d8dc .cfa: sp 176 +
STACK CFI 7d8f0 .cfa: sp 0 +
STACK CFI 7d8f4 .cfa: x29 64 +
STACK CFI 7d90c .cfa: sp 176 +
STACK CFI 7d920 .cfa: sp 0 +
STACK CFI 7d924 .cfa: x29 64 +
STACK CFI 7d938 .cfa: sp 176 +
STACK CFI 7d94c .cfa: sp 0 +
STACK CFI 7d950 .cfa: x29 64 +
STACK CFI 7d964 .cfa: sp 176 +
STACK CFI 7d978 .cfa: sp 0 +
STACK CFI 7d97c .cfa: x29 64 +
STACK CFI 7d98c .cfa: sp 176 +
STACK CFI 7d9a0 .cfa: sp 0 +
STACK CFI 7d9a4 .cfa: x29 64 +
STACK CFI 7d9b4 .cfa: sp 176 +
STACK CFI 7d9c8 .cfa: sp 0 +
STACK CFI 7d9cc .cfa: x29 64 +
STACK CFI 7d9e4 .cfa: sp 176 +
STACK CFI 7d9f8 .cfa: sp 0 +
STACK CFI 7d9fc .cfa: x29 64 +
STACK CFI 7da10 .cfa: sp 176 +
STACK CFI 7da24 .cfa: sp 0 +
STACK CFI 7da28 .cfa: x29 64 +
STACK CFI 7da40 .cfa: sp 176 +
STACK CFI 7da54 .cfa: sp 0 +
STACK CFI 7da58 .cfa: x29 64 +
STACK CFI 7da84 .cfa: sp 176 +
STACK CFI 7da98 .cfa: sp 0 +
STACK CFI 7da9c .cfa: x29 64 +
STACK CFI 7dab0 .cfa: sp 176 +
STACK CFI 7dac4 .cfa: sp 0 +
STACK CFI 7dac8 .cfa: x29 64 +
STACK CFI INIT 7dae8 228 .cfa: sp 0 +
STACK CFI INIT 7dd10 2dc .cfa: sp 0 +
STACK CFI INIT 7dfec 53c .cfa: sp 0 +
STACK CFI INIT 7e528 8 .cfa: sp 0 +
STACK CFI INIT 7e530 8c .cfa: sp 0 +
STACK CFI 7e534 .cfa: sp 32 +
STACK CFI 7e53c .cfa: x29 32 + x19: .cfa -16 + ^ .ra: .cfa -24 + ^ x29: .cfa -32 + ^
STACK CFI 7e570 .cfa: sp 32 +
STACK CFI 7e578 .cfa: sp 0 +
STACK CFI 7e57c .cfa: x29 32 +
STACK CFI 7e5b0 .cfa: sp 32 +
STACK CFI 7e5b8 .cfa: sp 0 +
STACK CFI INIT 7e5bc 24 .cfa: sp 0 +
STACK CFI 7e5c0 .cfa: sp 32 +
STACK CFI 7e5c8 .cfa: x29 32 + x19: .cfa -16 + ^ .ra: .cfa -24 + ^ x29: .cfa -32 + ^
STACK CFI 7e5d4 .cfa: sp 32 +
STACK CFI 7e5dc .cfa: sp 0 +
STACK CFI INIT 7e5e0 150 .cfa: sp 0 +
STACK CFI 7e5e4 .cfa: sp 48 +
STACK CFI 7e5f0 .cfa: x29 48 + x19: .cfa -8 + ^ x20: .cfa -16 + ^ x21: .cfa -24 + ^ x22: .cfa -32 + ^ .ra: .cfa -40 + ^ x29: .cfa -48 + ^
STACK CFI 7e720 .cfa: sp 48 +
STACK CFI 7e72c .cfa: sp 0 +
STACK CFI INIT 7e730 68 .cfa: sp 0 +
STACK CFI 7e734 .cfa: sp 64 +
STACK CFI 7e740 .cfa: x29 32 + x19: .cfa -16 + ^ .ra: .cfa -24 + ^ x29: .cfa -32 + ^
STACK CFI 7e784 .cfa: sp 64 +
STACK CFI 7e790 .cfa: sp 0 +
STACK CFI 7e794 .cfa: x29 32 +
STACK CFI INIT 7e798 90 .cfa: sp 0 +
STACK CFI 7e79c .cfa: sp 32 +
STACK CFI 7e7a4 .cfa: x29 32 + x19: .cfa -8 + ^ x20: .cfa -16 + ^ .ra: .cfa -24 + ^ x29: .cfa -32 + ^
STACK CFI 7e7d0 .cfa: sp 32 +
STACK CFI 7e7d8 .cfa: sp 0 +
STACK CFI 7e7dc .cfa: x29 32 +
STACK CFI 7e81c .cfa: sp 32 +
STACK CFI 7e824 .cfa: sp 0 +
STACK CFI INIT 7e828 ec .cfa: sp 0 +
STACK CFI 7e82c .cfa: sp 112 +
STACK CFI 7e83c .cfa: x29 48 + x19: .cfa -8 + ^ x20: .cfa -16 + ^ x21: .cfa -32 + ^ .ra: .cfa -40 + ^ x29: .cfa -48 + ^
STACK CFI 7e8fc .cfa: sp 112 +
STACK CFI 7e90c .cfa: sp 0 +
STACK CFI 7e910 .cfa: x29 48 +
STACK CFI INIT 7e914 ec .cfa: sp 0 +
STACK CFI 7e918 .cfa: sp 112 +
STACK CFI 7e928 .cfa: x29 48 + x19: .cfa -8 + ^ x20: .cfa -16 + ^ x21: .cfa -32 + ^ .ra: .cfa -40 + ^ x29: .cfa -48 + ^
STACK CFI 7e9e8 .cfa: sp 112 +
STACK CFI 7e9f8 .cfa: sp 0 +
STACK CFI 7e9fc .cfa: x29 48 +
STACK CFI INIT 7ea00 48 .cfa: sp 0 +
STACK CFI 7ea04 .cfa: sp 32 +
STACK CFI 7ea0c .cfa: x29 32 + x19: .cfa -8 + ^ x20: .cfa -16 + ^ .ra: .cfa -24 + ^ x29: .cfa -32 + ^
STACK CFI 7ea30 .cfa: sp 32 +
STACK CFI 7ea38 .cfa: sp 0 +
STACK CFI 7ea3c .cfa: x29 32 +
STACK CFI INIT 7ea48 98 .cfa: sp 0 +
STACK CFI 7ea4c .cfa: sp 80 +
STACK CFI 7ea58 .cfa: x29 32 + x19: .cfa -16 + ^ .ra: .cfa -24 + ^ x29: .cfa -32 + ^
STACK CFI 7eacc .cfa: sp 80 +
STACK CFI 7ead8 .cfa: sp 0 +
STACK CFI 7eadc .cfa: x29 32 +
STACK CFI INIT 7eae0 260 .cfa: sp 0 +
STACK CFI 7eae4 .cfa: sp 112 +
STACK CFI 7eafc .cfa: x29 80 + x19: .cfa -8 + ^ x20: .cfa -16 + ^ x21: .cfa -24 + ^ x22: .cfa -32 + ^ x23: .cfa -40 + ^ x24: .cfa -48 + ^ x25: .cfa -64 + ^ .ra: .cfa -72 + ^ x29: .cfa -80 + ^
STACK CFI 7ece0 .cfa: sp 112 +
STACK CFI 7ecf8 .cfa: sp 0 +
STACK CFI 7ecfc .cfa: x29 80 +
STACK CFI INIT 7ed40 150 .cfa: sp 0 +
STACK CFI 7ed44 .cfa: sp 48 +
STACK CFI 7ed50 .cfa: x29 48 + x19: .cfa -8 + ^ x20: .cfa -16 + ^ x21: .cfa -24 + ^ x22: .cfa -32 + ^ .ra: .cfa -40 + ^ x29: .cfa -48 + ^
STACK CFI 7ee80 .cfa: sp 48 +
STACK CFI 7ee8c .cfa: sp 0 +
STACK CFI INIT 7ee90 1e0 .cfa: sp 0 +
STACK CFI 7ee94 .cfa: sp 96 +
STACK CFI 7eea8 .cfa: x29 64 + x19: .cfa -8 + ^ x20: .cfa -16 + ^ x21: .cfa -24 + ^ x22: .cfa -32 + ^ x23: .cfa -40 + ^ x24: .cfa -48 + ^ .ra: .cfa -56 + ^ x29: .cfa -64 + ^
STACK CFI 7f028 .cfa: sp 96 +
STACK CFI 7f03c .cfa: sp 0 +
STACK CFI 7f040 .cfa: x29 64 +
STACK CFI INIT 7f070 284 .cfa: sp 0 +
STACK CFI 7f074 .cfa: sp 112 +
STACK CFI 7f08c .cfa: x29 80 + x19: .cfa -8 + ^ x20: .cfa -16 + ^ x21: .cfa -24 + ^ x22: .cfa -32 + ^ x23: .cfa -40 + ^ x24: .cfa -48 + ^ x25: .cfa -64 + ^ .ra: .cfa -72 + ^ x29: .cfa -80 + ^
STACK CFI 7f294 .cfa: sp 112 +
STACK CFI 7f2ac .cfa: sp 0 +
STACK CFI 7f2b0 .cfa: x29 80 +
STACK CFI INIT 7f2f4 208 .cfa: sp 0 +
STACK CFI 7f2f8 .cfa: sp 96 +
STACK CFI 7f30c .cfa: x29 64 + x19: .cfa -8 + ^ x20: .cfa -16 + ^ x21: .cfa -24 + ^ x22: .cfa -32 + ^ x23: .cfa -40 + ^ x24: .cfa -48 + ^ .ra: .cfa -56 + ^ x29: .cfa -64 + ^
STACK CFI 7f4b4 .cfa: sp 96 +
STACK CFI 7f4c8 .cfa: sp 0 +
STACK CFI 7f4cc .cfa: x29 64 +
STACK CFI INIT 7f4fc 360 .cfa: sp 0 +
STACK CFI 7f500 .cfa: sp 160 +
STACK CFI 7f51c .cfa: x29 96 + x19: .cfa -8 + ^ x20: .cfa -16 + ^ x21: .cfa -24 + ^ x22: .cfa -32 + ^ x23: .cfa -40 + ^ x24: .cfa -48 + ^ x25: .cfa -56 + ^ x26: .cfa -64 + ^ x27: .cfa -72 + ^ x28: .cfa -80 + ^ .ra: .cfa -88 + ^ x29: .cfa -96 + ^
STACK CFI 7f7e8 .cfa: sp 160 +
STACK CFI 7f804 .cfa: sp 0 +
STACK CFI 7f808 .cfa: x29 96 +
STACK CFI INIT 7f85c 314 .cfa: sp 0 +
STACK CFI 7f860 .cfa: sp 144 +
STACK CFI 7f87c .cfa: x29 96 + x19: .cfa -8 + ^ x20: .cfa -16 + ^ x21: .cfa -24 + ^ x22: .cfa -32 + ^ x23: .cfa -40 + ^ x24: .cfa -48 + ^ x25: .cfa -56 + ^ x26: .cfa -64 + ^ x27: .cfa -72 + ^ x28: .cfa -80 + ^ .ra: .cfa -88 + ^ x29: .cfa -96 + ^
STACK CFI 7faf8 .cfa: sp 144 +
STACK CFI 7fb14 .cfa: sp 0 +
STACK CFI 7fb18 .cfa: x29 96 +
STACK CFI INIT 7fb70 2b4 .cfa: sp 0 +
STACK CFI 7fb74 .cfa: sp 128 +
STACK CFI 7fb8c .cfa: x29 80 + x19: .cfa -8 + ^ x20: .cfa -16 + ^ x21: .cfa -24 + ^ x22: .cfa -32 + ^ x23: .cfa -40 + ^ x24: .cfa -48 + ^ x25: .cfa -56 + ^ x26: .cfa -64 + ^ .ra: .cfa -72 + ^ x29: .cfa -80 + ^
STACK CFI 7fd80 .cfa: sp 128 +
STACK CFI 7fd98 .cfa: sp 0 +
STACK CFI 7fd9c .cfa: x29 80 +
STACK CFI 7fe04 .cfa: sp 128 +
STACK CFI 7fe1c .cfa: sp 0 +
STACK CFI 7fe20 .cfa: x29 80 +
STACK CFI INIT 7fe24 dcc .cfa: sp 0 +
STACK CFI 7fe28 .cfa: sp 144 +
STACK CFI 7fe44 .cfa: x29 96 + x19: .cfa -8 + ^ x20: .cfa -16 + ^ x21: .cfa -24 + ^ x22: .cfa -32 + ^ x23: .cfa -40 + ^ x24: .cfa -48 + ^ x25: .cfa -56 + ^ x26: .cfa -64 + ^ x27: .cfa -72 + ^ x28: .cfa -80 + ^ .ra: .cfa -88 + ^ x29: .cfa -96 + ^
STACK CFI 80ac8 .cfa: sp 144 +
STACK CFI 80ae4 .cfa: sp 0 +
STACK CFI 80ae8 .cfa: x29 96 +
STACK CFI INIT 80bf0 264 .cfa: sp 0 +
STACK CFI 80bf4 .cfa: sp 112 +
STACK CFI 80c08 .cfa: x29 64 + x19: .cfa -8 + ^ x20: .cfa -16 + ^ x21: .cfa -24 + ^ x22: .cfa -32 + ^ x23: .cfa -40 + ^ x24: .cfa -48 + ^ .ra: .cfa -56 + ^ x29: .cfa -64 + ^
STACK CFI 80d84 .cfa: sp 112 +
STACK CFI 80d98 .cfa: sp 0 +
STACK CFI 80d9c .cfa: x29 64 +
STACK CFI 80e0c .cfa: sp 112 +
STACK CFI 80e20 .cfa: sp 0 +
STACK CFI 80e24 .cfa: x29 64 +
STACK CFI INIT 80e54 258 .cfa: sp 0 +
STACK CFI 80e58 .cfa: sp 96 +
STACK CFI 80e70 .cfa: x29 96 + x19: .cfa -8 + ^ x20: .cfa -16 + ^ x21: .cfa -24 + ^ x22: .cfa -32 + ^ x23: .cfa -40 + ^ x24: .cfa -48 + ^ x25: .cfa -56 + ^ x26: .cfa -64 + ^ x27: .cfa -72 + ^ x28: .cfa -80 + ^ .ra: .cfa -88 + ^ x29: .cfa -96 + ^
STACK CFI 81068 .cfa: sp 96 +
STACK CFI 81080 .cfa: sp 0 +
STACK CFI 81084 .cfa: x29 96 +
STACK CFI 81090 .cfa: sp 96 +
STACK CFI 810a8 .cfa: sp 0 +
STACK CFI INIT 81d30 154 .cfa: sp 0 +
STACK CFI 81d34 .cfa: sp 96 +
STACK CFI 81d48 .cfa: x29 64 + x19: .cfa -8 + ^ x20: .cfa -16 + ^ x21: .cfa -24 + ^ x22: .cfa -32 + ^ x23: .cfa -48 + ^ .ra: .cfa -56 + ^ x29: .cfa -64 + ^
STACK CFI 81e28 .cfa: sp 96 +
STACK CFI 81e3c .cfa: sp 0 +
STACK CFI 81e40 .cfa: x29 64 +
STACK CFI INIT 820ec 44 .cfa: sp 0 +
STACK CFI 820f0 .cfa: sp 32 +
STACK CFI 820f8 .cfa: x29 32 + x19: .cfa -16 + ^ .ra: .cfa -24 + ^ x29: .cfa -32 + ^
STACK CFI 82114 .cfa: sp 32 +
STACK CFI 8211c .cfa: sp 0 +
STACK CFI 82120 .cfa: x29 32 +
STACK CFI 82124 .cfa: sp 32 +
STACK CFI 8212c .cfa: sp 0 +
STACK CFI INIT 82130 1d0 .cfa: sp 0 +
STACK CFI 82134 .cfa: sp 64 +
STACK CFI 82144 .cfa: x29 64 + x19: .cfa -8 + ^ x20: .cfa -16 + ^ x21: .cfa -24 + ^ x22: .cfa -32 + ^ x23: .cfa -40 + ^ x24: .cfa -48 + ^ .ra: .cfa -56 + ^ x29: .cfa -64 + ^
STACK CFI 82204 .cfa: sp 64 +
STACK CFI 82214 .cfa: sp 0 +
STACK CFI 82218 .cfa: x29 64 +
STACK CFI INIT 82300 17c .cfa: sp 0 +
STACK CFI INIT 82834 a0 .cfa: sp 0 +
STACK CFI 82838 .cfa: sp 48 +
STACK CFI 82844 .cfa: x29 48 + x19: .cfa -8 + ^ x20: .cfa -16 + ^ x21: .cfa -24 + ^ x22: .cfa -32 + ^ .ra: .cfa -40 + ^ x29: .cfa -48 + ^
STACK CFI 828b0 .cfa: sp 48 +
STACK CFI 828bc .cfa: sp 0 +
STACK CFI 828c0 .cfa: sp 48 +
STACK CFI 828cc .cfa: sp 0 +
STACK CFI 828d0 .cfa: x29 48 +
STACK CFI INIT 83590 158 .cfa: sp 0 +
STACK CFI 83594 .cfa: sp 96 +
STACK CFI 835a8 .cfa: x29 64 + x19: .cfa -8 + ^ x20: .cfa -16 + ^ x21: .cfa -24 + ^ x22: .cfa -32 + ^ x23: .cfa -48 + ^ .ra: .cfa -56 + ^ x29: .cfa -64 + ^
STACK CFI 8368c .cfa: sp 96 +
STACK CFI 836a0 .cfa: sp 0 +
STACK CFI 836a4 .cfa: x29 64 +
STACK CFI INIT 836e8 190 .cfa: sp 0 +
STACK CFI INIT 84358 1f4 .cfa: sp 0 +
STACK CFI 8435c .cfa: sp 80 +
STACK CFI 84370 .cfa: x29 80 + x19: .cfa -8 + ^ x20: .cfa -16 + ^ x21: .cfa -24 + ^ x22: .cfa -32 + ^ x23: .cfa -40 + ^ x24: .cfa -48 + ^ x25: .cfa -64 + ^ .ra: .cfa -72 + ^ x29: .cfa -80 + ^
STACK CFI 84510 .cfa: sp 80 +
STACK CFI 84524 .cfa: sp 0 +
STACK CFI 84528 .cfa: x29 80 +
STACK CFI 84534 .cfa: sp 80 +
STACK CFI 84548 .cfa: sp 0 +
STACK CFI INIT 85970 124 .cfa: sp 0 +
STACK CFI 859a0 .cfa: sp 32 +
STACK CFI 859a8 .cfa: x29 32 + x19: .cfa -8 + ^ x20: .cfa -16 + ^ .ra: .cfa -24 + ^ x29: .cfa -32 + ^
STACK CFI 85a88 .cfa: sp 32 +
STACK CFI 85a90 .cfa: sp 0 +
STACK CFI INIT 861f0 324 .cfa: sp 0 +
STACK CFI 861f4 .cfa: sp 64 +
STACK CFI 86204 .cfa: x29 64 + x19: .cfa -8 + ^ x20: .cfa -16 + ^ x21: .cfa -24 + ^ x22: .cfa -32 + ^ x23: .cfa -40 + ^ x24: .cfa -48 + ^ .ra: .cfa -56 + ^ x29: .cfa -64 + ^
STACK CFI 86280 .cfa: sp 64 +
STACK CFI 86290 .cfa: sp 0 +
STACK CFI 86294 .cfa: x29 64 +
STACK CFI 8646c .cfa: sp 64 +
STACK CFI 8647c .cfa: sp 0 +
STACK CFI 86480 .cfa: x29 64 +
STACK CFI 86490 .cfa: sp 64 +
STACK CFI 864a0 .cfa: sp 0 +
STACK CFI 864a4 .cfa: x29 64 +
STACK CFI INIT 86514 a0 .cfa: sp 0 +
STACK CFI 86518 .cfa: sp 48 +
STACK CFI 86524 .cfa: x29 48 + x19: .cfa -8 + ^ x20: .cfa -16 + ^ x21: .cfa -24 + ^ x22: .cfa -32 + ^ .ra: .cfa -40 + ^ x29: .cfa -48 + ^
STACK CFI 86590 .cfa: sp 48 +
STACK CFI 8659c .cfa: sp 0 +
STACK CFI 865a0 .cfa: sp 48 +
STACK CFI 865ac .cfa: sp 0 +
STACK CFI 865b0 .cfa: x29 48 +
STACK CFI INIT 87490 160 .cfa: sp 0 +
STACK CFI 87494 .cfa: sp 64 +
STACK CFI 874a4 .cfa: x29 64 + x19: .cfa -8 + ^ x20: .cfa -16 + ^ x21: .cfa -24 + ^ x22: .cfa -32 + ^ x23: .cfa -48 + ^ .ra: .cfa -56 + ^ x29: .cfa -64 + ^
STACK CFI 8759c .cfa: sp 64 +
STACK CFI 875ac .cfa: sp 0 +
STACK CFI 875b0 .cfa: x29 64 +
STACK CFI INIT 875f0 214 .cfa: sp 0 +
STACK CFI 875f4 .cfa: sp 128 +
STACK CFI 87610 .cfa: x29 96 + x19: .cfa -8 + ^ x20: .cfa -16 + ^ x21: .cfa -24 + ^ x22: .cfa -32 + ^ x23: .cfa -40 + ^ x24: .cfa -48 + ^ x25: .cfa -56 + ^ x26: .cfa -64 + ^ x27: .cfa -80 + ^ .ra: .cfa -88 + ^ x29: .cfa -96 + ^
STACK CFI 8778c .cfa: sp 128 +
STACK CFI 877a8 .cfa: sp 0 +
STACK CFI 877ac .cfa: x29 96 +
STACK CFI INIT 89338 e58 .cfa: sp 0 +
STACK CFI 8933c .cfa: sp 192 +
STACK CFI 89358 .cfa: x29 96 + x19: .cfa -8 + ^ x20: .cfa -16 + ^ x21: .cfa -24 + ^ x22: .cfa -32 + ^ x23: .cfa -40 + ^ x24: .cfa -48 + ^ x25: .cfa -56 + ^ x26: .cfa -64 + ^ x27: .cfa -72 + ^ x28: .cfa -80 + ^ .ra: .cfa -88 + ^ x29: .cfa -96 + ^
STACK CFI 8a078 .cfa: sp 192 +
STACK CFI 8a094 .cfa: sp 0 +
STACK CFI 8a098 .cfa: x29 96 +
STACK CFI INIT 8a190 1090 .cfa: sp 0 +
STACK CFI 8a194 .cfa: sp 288 +
STACK CFI 8a1b0 .cfa: x29 96 + x19: .cfa -8 + ^ x20: .cfa -16 + ^ x21: .cfa -24 + ^ x22: .cfa -32 + ^ x23: .cfa -40 + ^ x24: .cfa -48 + ^ x25: .cfa -56 + ^ x26: .cfa -64 + ^ x27: .cfa -72 + ^ x28: .cfa -80 + ^ .ra: .cfa -88 + ^ x29: .cfa -96 + ^
STACK CFI 8af68 .cfa: sp 288 +
STACK CFI 8af84 .cfa: sp 0 +
STACK CFI 8af88 .cfa: x29 96 +
STACK CFI INIT 8b220 520 .cfa: sp 0 +
STACK CFI 8b224 .cfa: sp 144 +
STACK CFI 8b240 .cfa: x29 96 + x19: .cfa -8 + ^ x20: .cfa -16 + ^ x21: .cfa -24 + ^ x22: .cfa -32 + ^ x23: .cfa -40 + ^ x24: .cfa -48 + ^ x25: .cfa -56 + ^ x26: .cfa -64 + ^ x27: .cfa -72 + ^ x28: .cfa -80 + ^ .ra: .cfa -88 + ^ x29: .cfa -96 + ^
STACK CFI 8b71c .cfa: sp 144 +
STACK CFI 8b738 .cfa: sp 0 +
STACK CFI 8b73c .cfa: x29 96 +
STACK CFI INIT 39e5c d8 .cfa: sp 0 +
STACK CFI 39e60 .cfa: sp 96 +
STACK CFI 39e74 .cfa: x29 64 + x19: .cfa -8 + ^ x20: .cfa -16 + ^ x21: .cfa -24 + ^ x22: .cfa -32 + ^ x23: .cfa -48 + ^ .ra: .cfa -56 + ^ x29: .cfa -64 + ^
STACK CFI 39eec .cfa: sp 96 +
STACK CFI 39f00 .cfa: sp 0 +
STACK CFI 39f04 .cfa: x29 64 +
STACK CFI INIT 39f34 254 .cfa: sp 0 +
STACK CFI 39f38 .cfa: sp 80 +
STACK CFI 39f48 .cfa: x29 48 + x19: .cfa -8 + ^ x20: .cfa -16 + ^ x21: .cfa -24 + ^ x22: .cfa -32 + ^ .ra: .cfa -40 + ^ x29: .cfa -48 + ^
STACK CFI 3a144 .cfa: sp 80 +
STACK CFI 3a154 .cfa: sp 0 +
STACK CFI 3a158 .cfa: x29 48 +
STACK CFI INIT 3a188 2a4 .cfa: sp 0 +
STACK CFI 3a18c .cfa: sp 208 +
STACK CFI 3a1a0 .cfa: x29 64 + x19: .cfa -8 + ^ x20: .cfa -16 + ^ x21: .cfa -24 + ^ x22: .cfa -32 + ^ x23: .cfa -40 + ^ x24: .cfa -48 + ^ .ra: .cfa -56 + ^ x29: .cfa -64 + ^
STACK CFI 3a390 .cfa: sp 208 +
STACK CFI 3a3a4 .cfa: sp 0 +
STACK CFI 3a3a8 .cfa: x29 64 +
STACK CFI INIT 3a4b4 160 .cfa: sp 0 +
STACK CFI 3a4b8 .cfa: sp 128 +
STACK CFI 3a4d0 .cfa: x29 80 + x19: .cfa -8 + ^ x20: .cfa -16 + ^ x21: .cfa -24 + ^ x22: .cfa -32 + ^ x23: .cfa -40 + ^ x24: .cfa -48 + ^ x25: .cfa -64 + ^ .ra: .cfa -72 + ^ x29: .cfa -80 + ^
STACK CFI 3a580 .cfa: sp 128 +
STACK CFI 3a598 .cfa: sp 0 +
STACK CFI 3a59c .cfa: x29 80 +
STACK CFI INIT 3a794 ac .cfa: sp 0 +
STACK CFI 3a798 .cfa: sp 80 +
STACK CFI 3a7a8 .cfa: x29 48 + x19: .cfa -8 + ^ x20: .cfa -16 + ^ x21: .cfa -32 + ^ .ra: .cfa -40 + ^ x29: .cfa -48 + ^
STACK CFI 3a7fc .cfa: sp 80 +
STACK CFI 3a80c .cfa: sp 0 +
STACK CFI 3a810 .cfa: x29 48 +
STACK CFI INIT 3a840 6c8 .cfa: sp 0 +
STACK CFI 3a844 .cfa: sp 160 +
STACK CFI 3a860 .cfa: x29 80 + x19: .cfa -8 + ^ x20: .cfa -16 + ^ x21: .cfa -24 + ^ x22: .cfa -32 + ^ x23: .cfa -40 + ^ x24: .cfa -48 + ^ x25: .cfa -56 + ^ x26: .cfa -64 + ^ .ra: .cfa -72 + ^ x29: .cfa -80 + ^ v8: .cfa -96 + ^
STACK CFI 3ae68 .cfa: sp 160 +
STACK CFI 3ae84 .cfa: sp 0 +
STACK CFI 3ae88 .cfa: x29 80 +
STACK CFI INIT 3af08 570 .cfa: sp 0 +
STACK CFI 3af0c .cfa: sp 192 +
STACK CFI 3af2c .cfa: x29 96 + x19: .cfa -8 + ^ x20: .cfa -16 + ^ x21: .cfa -24 + ^ x22: .cfa -32 + ^ x23: .cfa -40 + ^ x24: .cfa -48 + ^ x25: .cfa -56 + ^ x26: .cfa -64 + ^ x27: .cfa -72 + ^ x28: .cfa -80 + ^ .ra: .cfa -88 + ^ x29: .cfa -96 + ^ v8: .cfa -112 + ^
STACK CFI 3b3f0 .cfa: sp 192 +
STACK CFI 3b410 .cfa: sp 0 +
STACK CFI 3b414 .cfa: x29 96 +
STACK CFI INIT 3b478 ac .cfa: sp 0 +
STACK CFI 3b47c .cfa: sp 80 +
STACK CFI 3b48c .cfa: x29 48 + x19: .cfa -8 + ^ x20: .cfa -16 + ^ x21: .cfa -32 + ^ .ra: .cfa -40 + ^ x29: .cfa -48 + ^
STACK CFI 3b4e0 .cfa: sp 80 +
STACK CFI 3b4f0 .cfa: sp 0 +
STACK CFI 3b4f4 .cfa: x29 48 +
STACK CFI INIT 3b524 6d8 .cfa: sp 0 +
STACK CFI 3b528 .cfa: sp 192 +
STACK CFI 3b548 .cfa: x29 96 + x19: .cfa -8 + ^ x20: .cfa -16 + ^ x21: .cfa -24 + ^ x22: .cfa -32 + ^ x23: .cfa -40 + ^ x24: .cfa -48 + ^ x25: .cfa -56 + ^ x26: .cfa -64 + ^ x27: .cfa -72 + ^ x28: .cfa -80 + ^ .ra: .cfa -88 + ^ x29: .cfa -96 + ^ v8: .cfa -112 + ^
STACK CFI 3bb68 .cfa: sp 192 +
STACK CFI 3bb88 .cfa: sp 0 +
STACK CFI 3bb8c .cfa: x29 96 +
STACK CFI INIT 3bc20 50 .cfa: sp 0 +
STACK CFI 3bc24 .cfa: sp 32 +
STACK CFI 3bc2c .cfa: x29 32 + x19: .cfa -8 + ^ x20: .cfa -16 + ^ .ra: .cfa -24 + ^ x29: .cfa -32 + ^
STACK CFI INIT 3bcd4 74 .cfa: sp 0 +
STACK CFI 3bcd8 .cfa: sp 48 +
STACK CFI 3bce4 .cfa: x29 32 + x19: .cfa -8 + ^ x20: .cfa -16 + ^ .ra: .cfa -24 + ^ x29: .cfa -32 + ^
STACK CFI 3bd30 .cfa: sp 48 +
STACK CFI 3bd3c .cfa: sp 0 +
STACK CFI 3bd40 .cfa: x29 32 +
STACK CFI INIT 3bd48 74 .cfa: sp 0 +
STACK CFI 3bd4c .cfa: sp 48 +
STACK CFI 3bd58 .cfa: x29 32 + x19: .cfa -8 + ^ x20: .cfa -16 + ^ .ra: .cfa -24 + ^ x29: .cfa -32 + ^
STACK CFI 3bda4 .cfa: sp 48 +
STACK CFI 3bdb0 .cfa: sp 0 +
STACK CFI 3bdb4 .cfa: x29 32 +
STACK CFI INIT 3bec4 1e8 .cfa: sp 0 +
STACK CFI 3bec8 .cfa: sp 160 +
STACK CFI 3bed8 .cfa: x29 48 + x19: .cfa -8 + ^ x20: .cfa -16 + ^ x21: .cfa -24 + ^ x22: .cfa -32 + ^ .ra: .cfa -40 + ^ x29: .cfa -48 + ^
STACK CFI 3c03c .cfa: sp 160 +
STACK CFI 3c04c .cfa: sp 0 +
STACK CFI 3c050 .cfa: x29 48 +
STACK CFI INIT 3c210 384 .cfa: sp 0 +
STACK CFI 3c214 .cfa: sp 208 +
STACK CFI 3c224 .cfa: x29 48 + x19: .cfa -8 + ^ x20: .cfa -16 + ^ x21: .cfa -24 + ^ x22: .cfa -32 + ^ .ra: .cfa -40 + ^ x29: .cfa -48 + ^
STACK CFI 3c400 .cfa: sp 208 +
STACK CFI 3c410 .cfa: sp 0 +
STACK CFI 3c414 .cfa: x29 48 +
STACK CFI INIT 3c674 254 .cfa: sp 0 +
STACK CFI 3c678 .cfa: sp 96 +
STACK CFI 3c690 .cfa: x29 80 + x19: .cfa -8 + ^ x20: .cfa -16 + ^ x21: .cfa -24 + ^ x22: .cfa -32 + ^ x23: .cfa -40 + ^ x24: .cfa -48 + ^ x25: .cfa -64 + ^ .ra: .cfa -72 + ^ x29: .cfa -80 + ^
STACK CFI 3c8a4 .cfa: sp 96 +
STACK CFI 3c8bc .cfa: sp 0 +
STACK CFI 3c8c0 .cfa: x29 80 +
STACK CFI INIT 3cd14 4c0 .cfa: sp 0 +
STACK CFI 3cd18 .cfa: sp 128 +
STACK CFI 3cd34 .cfa: x29 96 + x19: .cfa -8 + ^ x20: .cfa -16 + ^ x21: .cfa -24 + ^ x22: .cfa -32 + ^ x23: .cfa -40 + ^ x24: .cfa -48 + ^ x25: .cfa -56 + ^ x26: .cfa -64 + ^ x27: .cfa -72 + ^ x28: .cfa -80 + ^ .ra: .cfa -88 + ^ x29: .cfa -96 + ^
STACK CFI 3d184 .cfa: sp 128 +
STACK CFI 3d1a0 .cfa: sp 0 +
STACK CFI 3d1a4 .cfa: x29 96 +
STACK CFI INIT 3d690 384 .cfa: sp 0 +
STACK CFI 3d694 .cfa: sp 208 +
STACK CFI 3d6a4 .cfa: x29 48 + x19: .cfa -8 + ^ x20: .cfa -16 + ^ x21: .cfa -24 + ^ x22: .cfa -32 + ^ .ra: .cfa -40 + ^ x29: .cfa -48 + ^
STACK CFI 3d880 .cfa: sp 208 +
STACK CFI 3d890 .cfa: sp 0 +
STACK CFI 3d894 .cfa: x29 48 +
STACK CFI INIT 3dc58 384 .cfa: sp 0 +
STACK CFI 3dc5c .cfa: sp 208 +
STACK CFI 3dc6c .cfa: x29 48 + x19: .cfa -8 + ^ x20: .cfa -16 + ^ x21: .cfa -24 + ^ x22: .cfa -32 + ^ .ra: .cfa -40 + ^ x29: .cfa -48 + ^
STACK CFI 3de48 .cfa: sp 208 +
STACK CFI 3de58 .cfa: sp 0 +
STACK CFI 3de5c .cfa: x29 48 +
STACK CFI INIT 3e0bc 41c .cfa: sp 0 +
STACK CFI 3e0c0 .cfa: sp 160 +
STACK CFI 3e0dc .cfa: x29 96 + x19: .cfa -8 + ^ x20: .cfa -16 + ^ x21: .cfa -24 + ^ x22: .cfa -32 + ^ x23: .cfa -40 + ^ x24: .cfa -48 + ^ x25: .cfa -56 + ^ x26: .cfa -64 + ^ x27: .cfa -80 + ^ .ra: .cfa -88 + ^ x29: .cfa -96 + ^
STACK CFI 3e43c .cfa: sp 160 +
STACK CFI 3e458 .cfa: sp 0 +
STACK CFI 3e45c .cfa: x29 96 +
STACK CFI INIT 3e7e4 2b8 .cfa: sp 0 +
STACK CFI 3e7e8 .cfa: sp 144 +
STACK CFI 3e7f8 .cfa: x29 48 + x19: .cfa -8 + ^ x20: .cfa -16 + ^ x21: .cfa -24 + ^ x22: .cfa -32 + ^ .ra: .cfa -40 + ^ x29: .cfa -48 + ^
STACK CFI 3e9f8 .cfa: sp 144 +
STACK CFI 3ea08 .cfa: sp 0 +
STACK CFI 3ea0c .cfa: x29 48 +
STACK CFI INIT 3ed8c 370 .cfa: sp 0 +
STACK CFI 3ed90 .cfa: sp 176 +
STACK CFI 3eda0 .cfa: x29 48 + x19: .cfa -8 + ^ x20: .cfa -16 + ^ x21: .cfa -24 + ^ x22: .cfa -32 + ^ .ra: .cfa -40 + ^ x29: .cfa -48 + ^
STACK CFI 3ef7c .cfa: sp 176 +
STACK CFI 3ef8c .cfa: sp 0 +
STACK CFI 3ef90 .cfa: x29 48 +
STACK CFI INIT 3f3d0 370 .cfa: sp 0 +
STACK CFI 3f3d4 .cfa: sp 176 +
STACK CFI 3f3e4 .cfa: x29 48 + x19: .cfa -8 + ^ x20: .cfa -16 + ^ x21: .cfa -24 + ^ x22: .cfa -32 + ^ .ra: .cfa -40 + ^ x29: .cfa -48 + ^
STACK CFI 3f5c0 .cfa: sp 176 +
STACK CFI 3f5d0 .cfa: sp 0 +
STACK CFI 3f5d4 .cfa: x29 48 +
STACK CFI INIT 3f948 2c4 .cfa: sp 0 +
STACK CFI 3f94c .cfa: sp 144 +
STACK CFI 3f95c .cfa: x29 48 + x19: .cfa -8 + ^ x20: .cfa -16 + ^ x21: .cfa -24 + ^ x22: .cfa -32 + ^ .ra: .cfa -40 + ^ x29: .cfa -48 + ^
STACK CFI 3fb68 .cfa: sp 144 +
STACK CFI 3fb78 .cfa: sp 0 +
STACK CFI 3fb7c .cfa: x29 48 +
STACK CFI INIT 3ff78 37c .cfa: sp 0 +
STACK CFI 3ff7c .cfa: sp 176 +
STACK CFI 3ff8c .cfa: x29 48 + x19: .cfa -8 + ^ x20: .cfa -16 + ^ x21: .cfa -24 + ^ x22: .cfa -32 + ^ .ra: .cfa -40 + ^ x29: .cfa -48 + ^
STACK CFI 40168 .cfa: sp 176 +
STACK CFI 40178 .cfa: sp 0 +
STACK CFI 4017c .cfa: x29 48 +
STACK CFI INIT 403d4 104c .cfa: sp 0 +
STACK CFI 403d8 .cfa: sp 80 +
STACK CFI 403ec .cfa: x29 80 + x19: .cfa -8 + ^ x20: .cfa -16 + ^ x21: .cfa -24 + ^ x22: .cfa -32 + ^ x23: .cfa -40 + ^ x24: .cfa -48 + ^ x25: .cfa -56 + ^ x28: .cfa -64 + ^ .ra: .cfa -72 + ^ x29: .cfa -80 + ^
STACK CFI 40d00 .cfa: sp 80 +
STACK CFI 40d14 .cfa: sp 0 +
STACK CFI 40d18 .cfa: x29 80 +
STACK CFI INIT 41420 148 .cfa: sp 0 +
STACK CFI 41424 .cfa: sp 96 +
STACK CFI 41438 .cfa: x29 64 + x19: .cfa -8 + ^ x20: .cfa -16 + ^ x21: .cfa -24 + ^ x22: .cfa -32 + ^ x23: .cfa -40 + ^ x24: .cfa -48 + ^ .ra: .cfa -56 + ^ x29: .cfa -64 + ^
STACK CFI 41514 .cfa: sp 96 +
STACK CFI 41528 .cfa: sp 0 +
STACK CFI 4152c .cfa: x29 64 +
STACK CFI INIT 41598 128 .cfa: sp 0 +
STACK CFI 4159c .cfa: sp 96 +
STACK CFI 415b4 .cfa: x29 80 + x19: .cfa -8 + ^ x20: .cfa -16 + ^ x21: .cfa -24 + ^ x22: .cfa -32 + ^ x23: .cfa -40 + ^ x24: .cfa -48 + ^ x25: .cfa -64 + ^ .ra: .cfa -72 + ^ x29: .cfa -80 + ^
STACK CFI 41674 .cfa: sp 96 +
STACK CFI 4168c .cfa: sp 0 +
STACK CFI 41690 .cfa: x29 80 +
STACK CFI INIT 416c0 160 .cfa: sp 0 +
STACK CFI 416c4 .cfa: sp 96 +
STACK CFI 416dc .cfa: x29 80 + x19: .cfa -8 + ^ x20: .cfa -16 + ^ x21: .cfa -24 + ^ x22: .cfa -32 + ^ x23: .cfa -40 + ^ x24: .cfa -48 + ^ x25: .cfa -64 + ^ .ra: .cfa -72 + ^ x29: .cfa -80 + ^
STACK CFI 417d4 .cfa: sp 96 +
STACK CFI 417ec .cfa: sp 0 +
STACK CFI 417f0 .cfa: x29 80 +
STACK CFI INIT 41820 20 .cfa: sp 0 +
STACK CFI 41824 .cfa: sp 16 +
STACK CFI 41828 .cfa: x29 16 + .ra: .cfa -8 + ^ x29: .cfa -16 + ^
STACK CFI 41834 .cfa: sp 16 +
STACK CFI 41838 .cfa: sp 0 +
STACK CFI 4183c .cfa: x29 16 +
STACK CFI INIT 4190c 124 .cfa: sp 0 +
STACK CFI 41910 .cfa: sp 64 +
STACK CFI 41920 .cfa: x29 64 + x19: .cfa -8 + ^ x20: .cfa -16 + ^ x21: .cfa -24 + ^ x22: .cfa -32 + ^ x23: .cfa -40 + ^ x24: .cfa -48 + ^ .ra: .cfa -56 + ^ x29: .cfa -64 + ^
STACK CFI 419dc .cfa: sp 64 +
STACK CFI 419ec .cfa: sp 0 +
STACK CFI 419f0 .cfa: x29 64 +
STACK CFI 41a08 .cfa: sp 64 +
STACK CFI 41a18 .cfa: sp 0 +
STACK CFI 41a1c .cfa: x29 64 +
STACK CFI INIT 41a30 490 .cfa: sp 0 +
STACK CFI 41a34 .cfa: sp 160 +
STACK CFI 41a54 .cfa: x29 96 + x19: .cfa -8 + ^ x20: .cfa -16 + ^ x21: .cfa -24 + ^ x22: .cfa -32 + ^ x23: .cfa -40 + ^ x24: .cfa -48 + ^ x25: .cfa -56 + ^ x26: .cfa -64 + ^ x27: .cfa -72 + ^ x28: .cfa -80 + ^ .ra: .cfa -88 + ^ x29: .cfa -96 + ^ v8: .cfa -104 + ^ v9: .cfa -112 + ^
STACK CFI 41e74 .cfa: sp 160 +
STACK CFI 41e94 .cfa: sp 0 +
STACK CFI 41e98 .cfa: x29 96 +
STACK CFI INIT 42978 130 .cfa: sp 0 +
STACK CFI 4297c .cfa: sp 64 +
STACK CFI 42988 .cfa: x29 32 + x19: .cfa -8 + ^ x20: .cfa -16 + ^ .ra: .cfa -24 + ^ x29: .cfa -32 + ^
STACK CFI 42a70 .cfa: sp 64 +
STACK CFI 42a7c .cfa: sp 0 +
STACK CFI 42a80 .cfa: x29 32 +
STACK CFI INIT 42aa8 6dc .cfa: sp 0 +
STACK CFI 42aac .cfa: sp 384 +
STACK CFI 42ac4 .cfa: x29 56 + x19: .cfa -8 + ^ x20: .cfa -16 + ^ x21: .cfa -24 + ^ x22: .cfa -32 + ^ x28: .cfa -40 + ^ .ra: .cfa -48 + ^ x29: .cfa -56 + ^ v8: .cfa -64 + ^
STACK CFI 43090 .cfa: sp 384 +
STACK CFI 430a8 .cfa: sp 0 +
STACK CFI 430ac .cfa: x29 56 +
STACK CFI INIT 43184 14c .cfa: sp 0 +
STACK CFI 43188 .cfa: sp 112 +
STACK CFI 4319c .cfa: x29 40 + x19: .cfa -8 + ^ x20: .cfa -16 + ^ x21: .cfa -24 + ^ .ra: .cfa -32 + ^ x29: .cfa -40 + ^ v8: .cfa -48 + ^
STACK CFI 43264 .cfa: sp 112 +
STACK CFI 43278 .cfa: sp 0 +
STACK CFI 4327c .cfa: x29 40 +
STACK CFI INIT 432d0 3c8 .cfa: sp 0 +
STACK CFI 432d4 .cfa: sp 224 +
STACK CFI 432e8 .cfa: x29 64 + x19: .cfa -8 + ^ x20: .cfa -16 + ^ x21: .cfa -24 + ^ x22: .cfa -32 + ^ x23: .cfa -48 + ^ .ra: .cfa -56 + ^ x29: .cfa -64 + ^
STACK CFI 435a4 .cfa: sp 224 +
STACK CFI 435b8 .cfa: sp 0 +
STACK CFI 435bc .cfa: x29 64 +
STACK CFI INIT 43698 2e4 .cfa: sp 0 +
STACK CFI 4369c .cfa: sp 176 +
STACK CFI 436b8 .cfa: x29 96 + x19: .cfa -8 + ^ x20: .cfa -16 + ^ x21: .cfa -24 + ^ x22: .cfa -32 + ^ x23: .cfa -40 + ^ x24: .cfa -48 + ^ x25: .cfa -56 + ^ x26: .cfa -64 + ^ x27: .cfa -72 + ^ x28: .cfa -80 + ^ .ra: .cfa -88 + ^ x29: .cfa -96 + ^
STACK CFI 43914 .cfa: sp 176 +
STACK CFI 43930 .cfa: sp 0 +
STACK CFI 43934 .cfa: x29 96 +
STACK CFI INIT 43b24 6c .cfa: sp 0 +
STACK CFI 43b28 .cfa: sp 32 +
STACK CFI 43b30 .cfa: x29 32 + x19: .cfa -16 + ^ .ra: .cfa -24 + ^ x29: .cfa -32 + ^
STACK CFI 43b80 .cfa: sp 32 +
STACK CFI 43b88 .cfa: sp 0 +
STACK CFI 43b8c .cfa: x29 32 +
STACK CFI INIT 43b90 74 .cfa: sp 0 +
STACK CFI 43b94 .cfa: sp 32 +
STACK CFI 43b9c .cfa: x29 32 + x19: .cfa -16 + ^ .ra: .cfa -24 + ^ x29: .cfa -32 + ^
STACK CFI 43bf4 .cfa: sp 32 +
STACK CFI 43bfc .cfa: sp 0 +
STACK CFI 43c00 .cfa: x29 32 +
STACK CFI INIT 43c3c 134 .cfa: sp 0 +
STACK CFI 43c40 .cfa: sp 96 +
STACK CFI 43c50 .cfa: x29 48 + x19: .cfa -8 + ^ x20: .cfa -16 + ^ x21: .cfa -32 + ^ .ra: .cfa -40 + ^ x29: .cfa -48 + ^
STACK CFI 43d24 .cfa: sp 96 +
STACK CFI 43d34 .cfa: sp 0 +
STACK CFI 43d38 .cfa: x29 48 +
STACK CFI INIT 43d70 6c .cfa: sp 0 +
STACK CFI 43d74 .cfa: sp 32 +
STACK CFI 43d7c .cfa: x29 32 + x19: .cfa -16 + ^ .ra: .cfa -24 + ^ x29: .cfa -32 + ^
STACK CFI 43dcc .cfa: sp 32 +
STACK CFI 43dd4 .cfa: sp 0 +
STACK CFI 43dd8 .cfa: x29 32 +
STACK CFI INIT 43ddc 74 .cfa: sp 0 +
STACK CFI 43de0 .cfa: sp 32 +
STACK CFI 43de8 .cfa: x29 32 + x19: .cfa -16 + ^ .ra: .cfa -24 + ^ x29: .cfa -32 + ^
STACK CFI 43e40 .cfa: sp 32 +
STACK CFI 43e48 .cfa: sp 0 +
STACK CFI 43e4c .cfa: x29 32 +
STACK CFI INIT 43e60 6c .cfa: sp 0 +
STACK CFI 43e64 .cfa: sp 32 +
STACK CFI 43e6c .cfa: x29 32 + x19: .cfa -16 + ^ .ra: .cfa -24 + ^ x29: .cfa -32 + ^
STACK CFI 43ebc .cfa: sp 32 +
STACK CFI 43ec4 .cfa: sp 0 +
STACK CFI 43ec8 .cfa: x29 32 +
STACK CFI INIT 445d8 13c .cfa: sp 0 +
STACK CFI 445dc .cfa: sp 96 +
STACK CFI 445f0 .cfa: x29 64 + x19: .cfa -8 + ^ x20: .cfa -16 + ^ x21: .cfa -24 + ^ x22: .cfa -32 + ^ x23: .cfa -48 + ^ .ra: .cfa -56 + ^ x29: .cfa -64 + ^
STACK CFI 446c4 .cfa: sp 96 +
STACK CFI 446d8 .cfa: sp 0 +
STACK CFI 446dc .cfa: x29 64 +
STACK CFI INIT 44818 a8 .cfa: sp 0 +
STACK CFI 4481c .cfa: sp 64 +
STACK CFI 44828 .cfa: x29 32 + x19: .cfa -8 + ^ x20: .cfa -16 + ^ .ra: .cfa -24 + ^ x29: .cfa -32 + ^
STACK CFI 44880 .cfa: sp 64 +
STACK CFI 4488c .cfa: sp 0 +
STACK CFI 44890 .cfa: x29 32 +
STACK CFI INIT 44a30 470 .cfa: sp 0 +
STACK CFI 44a34 .cfa: sp 224 +
STACK CFI 44a50 .cfa: x29 96 + x19: .cfa -8 + ^ x20: .cfa -16 + ^ x21: .cfa -24 + ^ x22: .cfa -32 + ^ x23: .cfa -40 + ^ x24: .cfa -48 + ^ x25: .cfa -56 + ^ x26: .cfa -64 + ^ x27: .cfa -80 + ^ .ra: .cfa -88 + ^ x29: .cfa -96 + ^
STACK CFI 44cac .cfa: sp 224 +
STACK CFI 44cc8 .cfa: sp 0 +
STACK CFI 44ccc .cfa: x29 96 +
STACK CFI 44d98 .cfa: sp 224 +
STACK CFI 44db4 .cfa: sp 0 +
STACK CFI 44db8 .cfa: x29 96 +
STACK CFI INIT 44ebc 3b8 .cfa: sp 0 +
STACK CFI 44ec0 .cfa: sp 272 +
STACK CFI 44ed4 .cfa: x29 64 + x19: .cfa -8 + ^ x20: .cfa -16 + ^ x21: .cfa -24 + ^ x22: .cfa -32 + ^ x23: .cfa -40 + ^ x28: .cfa -48 + ^ .ra: .cfa -56 + ^ x29: .cfa -64 + ^
STACK CFI 45144 .cfa: sp 272 +
STACK CFI 45158 .cfa: sp 0 +
STACK CFI 4515c .cfa: x29 64 +
STACK CFI INIT 452c4 74 .cfa: sp 0 +
STACK CFI 452c8 .cfa: sp 48 +
STACK CFI 452d4 .cfa: x29 32 + x19: .cfa -8 + ^ x20: .cfa -16 + ^ .ra: .cfa -24 + ^ x29: .cfa -32 + ^
STACK CFI 45320 .cfa: sp 48 +
STACK CFI 4532c .cfa: sp 0 +
STACK CFI 45330 .cfa: x29 32 +
STACK CFI INIT 4533c 154 .cfa: sp 0 +
STACK CFI 45340 .cfa: sp 384 +
STACK CFI 45354 .cfa: x29 64 + x19: .cfa -8 + ^ x20: .cfa -16 + ^ x21: .cfa -24 + ^ x22: .cfa -32 + ^ x23: .cfa -40 + ^ x28: .cfa -48 + ^ .ra: .cfa -56 + ^ x29: .cfa -64 + ^
STACK CFI 45438 .cfa: sp 384 +
STACK CFI 4544c .cfa: sp 0 +
STACK CFI 45450 .cfa: x29 64 +
STACK CFI INIT 45490 134 .cfa: sp 0 +
STACK CFI 45494 .cfa: sp 80 +
STACK CFI 454a8 .cfa: x29 80 + x19: .cfa -8 + ^ x20: .cfa -16 + ^ x21: .cfa -24 + ^ x22: .cfa -32 + ^ x23: .cfa -40 + ^ x24: .cfa -48 + ^ x25: .cfa -56 + ^ x26: .cfa -64 + ^ .ra: .cfa -72 + ^ x29: .cfa -80 + ^
STACK CFI 45578 .cfa: sp 80 +
STACK CFI 4558c .cfa: sp 0 +
STACK CFI 45590 .cfa: x29 80 +
STACK CFI INIT 45668 1a4 .cfa: sp 0 +
STACK CFI 4566c .cfa: sp 112 +
STACK CFI 45684 .cfa: x29 80 + x19: .cfa -8 + ^ x20: .cfa -16 + ^ x21: .cfa -24 + ^ x22: .cfa -32 + ^ x23: .cfa -40 + ^ x24: .cfa -48 + ^ x25: .cfa -56 + ^ x26: .cfa -64 + ^ .ra: .cfa -72 + ^ x29: .cfa -80 + ^
STACK CFI 45774 .cfa: sp 112 +
STACK CFI 4578c .cfa: sp 0 +
STACK CFI 45790 .cfa: x29 80 +
STACK CFI INIT 4580c 1ec .cfa: sp 0 +
STACK CFI 45810 .cfa: sp 128 +
STACK CFI 4582c .cfa: x29 96 + x19: .cfa -8 + ^ x20: .cfa -16 + ^ x21: .cfa -24 + ^ x22: .cfa -32 + ^ x23: .cfa -40 + ^ x24: .cfa -48 + ^ x25: .cfa -56 + ^ x26: .cfa -64 + ^ x27: .cfa -80 + ^ .ra: .cfa -88 + ^ x29: .cfa -96 + ^
STACK CFI 459a8 .cfa: sp 128 +
STACK CFI 459c4 .cfa: sp 0 +
STACK CFI 459c8 .cfa: x29 96 +
STACK CFI INIT 459f8 170 .cfa: sp 0 +
STACK CFI 459fc .cfa: sp 48 +
STACK CFI 45a08 .cfa: x29 48 + x19: .cfa -8 + ^ x20: .cfa -16 + ^ x21: .cfa -32 + ^ .ra: .cfa -40 + ^ x29: .cfa -48 + ^
STACK CFI 45b3c .cfa: sp 48 +
STACK CFI 45b48 .cfa: sp 0 +
STACK CFI 45b4c .cfa: x29 48 +
STACK CFI INIT 45d38 1b0 .cfa: sp 0 +
STACK CFI 45d3c .cfa: sp 128 +
STACK CFI 45d54 .cfa: x29 80 + x19: .cfa -8 + ^ x20: .cfa -16 + ^ x21: .cfa -24 + ^ x22: .cfa -32 + ^ x23: .cfa -40 + ^ x24: .cfa -48 + ^ x25: .cfa -64 + ^ .ra: .cfa -72 + ^ x29: .cfa -80 + ^
STACK CFI 45e78 .cfa: sp 128 +
STACK CFI 45e90 .cfa: sp 0 +
STACK CFI 45e94 .cfa: x29 80 +
STACK CFI INIT 465b8 204 .cfa: sp 0 +
STACK CFI 465bc .cfa: sp 112 +
STACK CFI 465d0 .cfa: x29 48 + x19: .cfa -8 + ^ x20: .cfa -16 + ^ x21: .cfa -24 + ^ x22: .cfa -32 + ^ .ra: .cfa -40 + ^ x29: .cfa -48 + ^ v8: .cfa -64 + ^
STACK CFI 46724 .cfa: sp 112 +
STACK CFI 46738 .cfa: sp 0 +
STACK CFI 4673c .cfa: x29 48 +
STACK CFI INIT 467bc c8 .cfa: sp 0 +
STACK CFI 467c0 .cfa: sp 32 +
STACK CFI 467c8 .cfa: x29 32 + x19: .cfa -8 + ^ x20: .cfa -16 + ^ .ra: .cfa -24 + ^ x29: .cfa -32 + ^
STACK CFI 467fc .cfa: sp 32 +
STACK CFI 46804 .cfa: sp 0 +
STACK CFI 46808 .cfa: x29 32 +
STACK CFI 4680c .cfa: sp 32 +
STACK CFI 46814 .cfa: sp 0 +
STACK CFI 46818 .cfa: x29 32 +
STACK CFI INIT 46884 c8 .cfa: sp 0 +
STACK CFI 46888 .cfa: sp 80 +
STACK CFI 46898 .cfa: x29 48 + x19: .cfa -8 + ^ x20: .cfa -16 + ^ x21: .cfa -24 + ^ x22: .cfa -32 + ^ .ra: .cfa -40 + ^ x29: .cfa -48 + ^
STACK CFI 46904 .cfa: sp 80 +
STACK CFI 46914 .cfa: sp 0 +
STACK CFI 46918 .cfa: x29 48 +
STACK CFI INIT 470a8 4e8 .cfa: sp 0 +
STACK CFI 470ac .cfa: sp 224 +
STACK CFI 470c8 .cfa: x29 96 + x19: .cfa -8 + ^ x20: .cfa -16 + ^ x21: .cfa -24 + ^ x22: .cfa -32 + ^ x23: .cfa -40 + ^ x24: .cfa -48 + ^ x25: .cfa -56 + ^ x26: .cfa -64 + ^ x27: .cfa -80 + ^ .ra: .cfa -88 + ^ x29: .cfa -96 + ^
STACK CFI 47394 .cfa: sp 224 +
STACK CFI 473b0 .cfa: sp 0 +
STACK CFI 473b4 .cfa: x29 96 +
STACK CFI 47480 .cfa: sp 224 +
STACK CFI 4749c .cfa: sp 0 +
STACK CFI 474a0 .cfa: x29 96 +
STACK CFI INIT 475ac 5e8 .cfa: sp 0 +
STACK CFI 475b0 .cfa: sp 288 +
STACK CFI 475cc .cfa: x29 96 + x19: .cfa -8 + ^ x20: .cfa -16 + ^ x21: .cfa -24 + ^ x22: .cfa -32 + ^ x23: .cfa -40 + ^ x24: .cfa -48 + ^ x25: .cfa -56 + ^ x26: .cfa -64 + ^ x28: .cfa -80 + ^ .ra: .cfa -88 + ^ x29: .cfa -96 + ^
STACK CFI 479c8 .cfa: sp 288 +
STACK CFI 479e4 .cfa: sp 0 +
STACK CFI 479e8 .cfa: x29 96 +
STACK CFI INIT 47b98 4e0 .cfa: sp 0 +
STACK CFI 47b9c .cfa: sp 224 +
STACK CFI 47bb4 .cfa: x29 80 + x19: .cfa -8 + ^ x20: .cfa -16 + ^ x21: .cfa -24 + ^ x22: .cfa -32 + ^ x23: .cfa -40 + ^ x24: .cfa -48 + ^ x25: .cfa -64 + ^ .ra: .cfa -72 + ^ x29: .cfa -80 + ^
STACK CFI 47eec .cfa: sp 224 +
STACK CFI 47f04 .cfa: sp 0 +
STACK CFI 47f08 .cfa: x29 80 +
STACK CFI INIT 48078 110 .cfa: sp 0 +
STACK CFI 4807c .cfa: sp 96 +
STACK CFI 48090 .cfa: x29 64 + x19: .cfa -8 + ^ x20: .cfa -16 + ^ x21: .cfa -24 + ^ x22: .cfa -32 + ^ x23: .cfa -40 + ^ x24: .cfa -48 + ^ .ra: .cfa -56 + ^ x29: .cfa -64 + ^
STACK CFI 480d8 .cfa: sp 96 +
STACK CFI 480ec .cfa: sp 0 +
STACK CFI 480f0 .cfa: x29 64 +
STACK CFI INIT 48188 1f4 .cfa: sp 0 +
STACK CFI 4818c .cfa: sp 128 +
STACK CFI 481a8 .cfa: x29 96 + x19: .cfa -8 + ^ x20: .cfa -16 + ^ x21: .cfa -24 + ^ x22: .cfa -32 + ^ x23: .cfa -40 + ^ x24: .cfa -48 + ^ x25: .cfa -56 + ^ x26: .cfa -64 + ^ x27: .cfa -72 + ^ x28: .cfa -80 + ^ .ra: .cfa -88 + ^ x29: .cfa -96 + ^
STACK CFI 48334 .cfa: sp 128 +
STACK CFI 48350 .cfa: sp 0 +
STACK CFI 48354 .cfa: x29 96 +
STACK CFI INIT 483f8 168 .cfa: sp 0 +
STACK CFI 483fc .cfa: sp 384 +
STACK CFI 48410 .cfa: x29 64 + x19: .cfa -8 + ^ x20: .cfa -16 + ^ x21: .cfa -24 + ^ x22: .cfa -32 + ^ x23: .cfa -40 + ^ x28: .cfa -48 + ^ .ra: .cfa -56 + ^ x29: .cfa -64 + ^
STACK CFI 48508 .cfa: sp 384 +
STACK CFI 4851c .cfa: sp 0 +
STACK CFI 48520 .cfa: x29 64 +
STACK CFI INIT 485f4 174 .cfa: sp 0 +
STACK CFI 485f8 .cfa: sp 112 +
STACK CFI 48608 .cfa: x29 48 + x19: .cfa -8 + ^ x20: .cfa -16 + ^ x21: .cfa -32 + ^ .ra: .cfa -40 + ^ x29: .cfa -48 + ^
STACK CFI 48704 .cfa: sp 112 +
STACK CFI 48714 .cfa: sp 0 +
STACK CFI 48718 .cfa: x29 48 +
STACK CFI INIT 48840 164 .cfa: sp 0 +
STACK CFI 48844 .cfa: sp 96 +
STACK CFI 48858 .cfa: x29 64 + x19: .cfa -8 + ^ x20: .cfa -16 + ^ x21: .cfa -24 + ^ x22: .cfa -32 + ^ x23: .cfa -48 + ^ .ra: .cfa -56 + ^ x29: .cfa -64 + ^
STACK CFI 4895c .cfa: sp 96 +
STACK CFI 48970 .cfa: sp 0 +
STACK CFI 48974 .cfa: x29 64 +
STACK CFI INIT 489a4 138 .cfa: sp 0 +
STACK CFI 489a8 .cfa: sp 80 +
STACK CFI 489b8 .cfa: x29 48 + x19: .cfa -8 + ^ x20: .cfa -16 + ^ x21: .cfa -24 + ^ x22: .cfa -32 + ^ .ra: .cfa -40 + ^ x29: .cfa -48 + ^
STACK CFI 48a98 .cfa: sp 80 +
STACK CFI 48aa8 .cfa: sp 0 +
STACK CFI 48aac .cfa: x29 48 +
STACK CFI INIT 48adc a8 .cfa: sp 0 +
STACK CFI 48ae0 .cfa: sp 32 +
STACK CFI 48ae8 .cfa: x29 32 + x19: .cfa -16 + ^ .ra: .cfa -24 + ^ x29: .cfa -32 + ^
STACK CFI 48b1c .cfa: sp 32 +
STACK CFI 48b24 .cfa: sp 0 +
STACK CFI 48b28 .cfa: x29 32 +
STACK CFI 48b2c .cfa: sp 32 +
STACK CFI 48b34 .cfa: sp 0 +
STACK CFI 48b38 .cfa: x29 32 +
STACK CFI INIT 48c08 1dc .cfa: sp 0 +
STACK CFI 48c0c .cfa: sp 208 +
STACK CFI 48c24 .cfa: x29 80 + x19: .cfa -8 + ^ x20: .cfa -16 + ^ x21: .cfa -24 + ^ x22: .cfa -32 + ^ x23: .cfa -40 + ^ x24: .cfa -48 + ^ x25: .cfa -64 + ^ .ra: .cfa -72 + ^ x29: .cfa -80 + ^
STACK CFI 48d70 .cfa: sp 208 +
STACK CFI 48d88 .cfa: sp 0 +
STACK CFI 48d8c .cfa: x29 80 +
STACK CFI INIT 48dfc 470 .cfa: sp 0 +
STACK CFI 48e00 .cfa: sp 224 +
STACK CFI 48e1c .cfa: x29 96 + x19: .cfa -8 + ^ x20: .cfa -16 + ^ x21: .cfa -24 + ^ x22: .cfa -32 + ^ x23: .cfa -40 + ^ x24: .cfa -48 + ^ x25: .cfa -56 + ^ x26: .cfa -64 + ^ x27: .cfa -80 + ^ .ra: .cfa -88 + ^ x29: .cfa -96 + ^
STACK CFI 49078 .cfa: sp 224 +
STACK CFI 49094 .cfa: sp 0 +
STACK CFI 49098 .cfa: x29 96 +
STACK CFI 49164 .cfa: sp 224 +
STACK CFI 49180 .cfa: sp 0 +
STACK CFI 49184 .cfa: x29 96 +
STACK CFI INIT 49288 924 .cfa: sp 0 +
STACK CFI 4928c .cfa: sp 288 +
STACK CFI 492a8 .cfa: x29 96 + x19: .cfa -8 + ^ x20: .cfa -16 + ^ x21: .cfa -24 + ^ x22: .cfa -32 + ^ x23: .cfa -40 + ^ x24: .cfa -48 + ^ x25: .cfa -56 + ^ x26: .cfa -64 + ^ x27: .cfa -72 + ^ x28: .cfa -80 + ^ .ra: .cfa -88 + ^ x29: .cfa -96 + ^
STACK CFI 49924 .cfa: sp 288 +
STACK CFI 49940 .cfa: sp 0 +
STACK CFI 49944 .cfa: x29 96 +
STACK CFI INIT 49bb0 424 .cfa: sp 0 +
STACK CFI 49bb4 .cfa: sp 192 +
STACK CFI 49bd0 .cfa: x29 96 + x19: .cfa -8 + ^ x20: .cfa -16 + ^ x21: .cfa -24 + ^ x22: .cfa -32 + ^ x23: .cfa -40 + ^ x24: .cfa -48 + ^ x25: .cfa -56 + ^ x26: .cfa -64 + ^ x27: .cfa -80 + ^ .ra: .cfa -88 + ^ x29: .cfa -96 + ^
STACK CFI 49e94 .cfa: sp 192 +
STACK CFI 49eb0 .cfa: sp 0 +
STACK CFI 49eb4 .cfa: x29 96 +
STACK CFI INIT 4a418 164 .cfa: sp 0 +
STACK CFI 4a41c .cfa: sp 96 +
STACK CFI 4a428 .cfa: x29 32 + x19: .cfa -8 + ^ x20: .cfa -16 + ^ .ra: .cfa -24 + ^ x29: .cfa -32 + ^
STACK CFI 4a4d0 .cfa: sp 96 +
STACK CFI 4a4dc .cfa: sp 0 +
STACK CFI 4a4e0 .cfa: x29 32 +
STACK CFI INIT 4a57c 20 .cfa: sp 0 +
STACK CFI 4a580 .cfa: sp 16 +
STACK CFI 4a584 .cfa: x29 16 + .ra: .cfa -8 + ^ x29: .cfa -16 + ^
STACK CFI 4a590 .cfa: sp 16 +
STACK CFI 4a594 .cfa: sp 0 +
STACK CFI 4a598 .cfa: x29 16 +
STACK CFI INIT 4a73c 12c .cfa: sp 0 +
STACK CFI 4a740 .cfa: sp 80 +
STACK CFI 4a750 .cfa: x29 48 + x19: .cfa -8 + ^ x20: .cfa -16 + ^ x21: .cfa -24 + ^ x22: .cfa -32 + ^ .ra: .cfa -40 + ^ x29: .cfa -48 + ^
STACK CFI 4a84c .cfa: sp 80 +
STACK CFI 4a85c .cfa: sp 0 +
STACK CFI 4a860 .cfa: x29 48 +
STACK CFI INIT 4a920 470 .cfa: sp 0 +
STACK CFI 4a924 .cfa: sp 224 +
STACK CFI 4a940 .cfa: x29 96 + x19: .cfa -8 + ^ x20: .cfa -16 + ^ x21: .cfa -24 + ^ x22: .cfa -32 + ^ x23: .cfa -40 + ^ x24: .cfa -48 + ^ x25: .cfa -56 + ^ x26: .cfa -64 + ^ x27: .cfa -80 + ^ .ra: .cfa -88 + ^ x29: .cfa -96 + ^
STACK CFI 4ab9c .cfa: sp 224 +
STACK CFI 4abb8 .cfa: sp 0 +
STACK CFI 4abbc .cfa: x29 96 +
STACK CFI 4ac88 .cfa: sp 224 +
STACK CFI 4aca4 .cfa: sp 0 +
STACK CFI 4aca8 .cfa: x29 96 +
STACK CFI INIT 4adac 380 .cfa: sp 0 +
STACK CFI 4adb0 .cfa: sp 256 +
STACK CFI 4adc4 .cfa: x29 64 + x19: .cfa -8 + ^ x20: .cfa -16 + ^ x21: .cfa -24 + ^ x22: .cfa -32 + ^ x23: .cfa -48 + ^ .ra: .cfa -56 + ^ x29: .cfa -64 + ^
STACK CFI 4b000 .cfa: sp 256 +
STACK CFI 4b014 .cfa: sp 0 +
STACK CFI 4b018 .cfa: x29 64 +
STACK CFI INIT 4b130 138 .cfa: sp 0 +
STACK CFI 4b134 .cfa: sp 128 +
STACK CFI 4b148 .cfa: x29 64 + x19: .cfa -8 + ^ x20: .cfa -16 + ^ x21: .cfa -24 + ^ x22: .cfa -32 + ^ x23: .cfa -48 + ^ .ra: .cfa -56 + ^ x29: .cfa -64 + ^
STACK CFI 4b200 .cfa: sp 128 +
STACK CFI 4b214 .cfa: sp 0 +
STACK CFI 4b218 .cfa: x29 64 +
STACK CFI INIT 4b268 200 .cfa: sp 0 +
STACK CFI 4b26c .cfa: sp 144 +
STACK CFI 4b280 .cfa: x29 64 + x19: .cfa -8 + ^ x20: .cfa -16 + ^ x21: .cfa -24 + ^ x22: .cfa -32 + ^ x23: .cfa -40 + ^ x24: .cfa -48 + ^ .ra: .cfa -56 + ^ x29: .cfa -64 + ^
STACK CFI 4b3e8 .cfa: sp 144 +
STACK CFI 4b3fc .cfa: sp 0 +
STACK CFI 4b400 .cfa: x29 64 +
STACK CFI INIT 4b4fc 7f8 .cfa: sp 0 +
STACK CFI 4b500 .cfa: sp 336 +
STACK CFI 4b51c .cfa: x29 96 + x19: .cfa -8 + ^ x20: .cfa -16 + ^ x21: .cfa -24 + ^ x22: .cfa -32 + ^ x23: .cfa -40 + ^ x24: .cfa -48 + ^ x25: .cfa -56 + ^ x26: .cfa -64 + ^ x27: .cfa -72 + ^ x28: .cfa -80 + ^ .ra: .cfa -88 + ^ x29: .cfa -96 + ^
STACK CFI 4b6b4 .cfa: sp 336 +
STACK CFI 4b6d0 .cfa: sp 0 +
STACK CFI 4b6d4 .cfa: x29 96 +
STACK CFI 4baf0 .cfa: sp 336 +
STACK CFI 4bb0c .cfa: sp 0 +
STACK CFI 4bb10 .cfa: x29 96 +
STACK CFI INIT 4bd74 1114 .cfa: sp 0 +
STACK CFI 4bd78 .cfa: sp 288 +
STACK CFI 4bd94 .cfa: x29 96 + x19: .cfa -8 + ^ x20: .cfa -16 + ^ x21: .cfa -24 + ^ x22: .cfa -32 + ^ x23: .cfa -40 + ^ x24: .cfa -48 + ^ x25: .cfa -56 + ^ x26: .cfa -64 + ^ x27: .cfa -72 + ^ x28: .cfa -80 + ^ .ra: .cfa -88 + ^ x29: .cfa -96 + ^
STACK CFI 4c9bc .cfa: sp 288 +
STACK CFI 4c9d8 .cfa: sp 0 +
STACK CFI 4c9dc .cfa: x29 96 +
STACK CFI INIT 4ce8c 358 .cfa: sp 0 +
STACK CFI 4ce90 .cfa: sp 208 +
STACK CFI 4cea4 .cfa: x29 64 + x19: .cfa -8 + ^ x20: .cfa -16 + ^ x21: .cfa -24 + ^ x22: .cfa -32 + ^ x23: .cfa -48 + ^ .ra: .cfa -56 + ^ x29: .cfa -64 + ^
STACK CFI 4d0d0 .cfa: sp 208 +
STACK CFI 4d0e4 .cfa: sp 0 +
STACK CFI 4d0e8 .cfa: x29 64 +
STACK CFI INIT 4d1e4 1c4 .cfa: sp 0 +
STACK CFI 4d1e8 .cfa: sp 112 +
STACK CFI 4d1fc .cfa: x29 64 + x19: .cfa -8 + ^ x20: .cfa -16 + ^ x21: .cfa -24 + ^ x22: .cfa -32 + ^ x23: .cfa -48 + ^ .ra: .cfa -56 + ^ x29: .cfa -64 + ^
STACK CFI 4d2f8 .cfa: sp 112 +
STACK CFI 4d30c .cfa: sp 0 +
STACK CFI 4d310 .cfa: x29 64 +
STACK CFI INIT 4d3a8 110 .cfa: sp 0 +
STACK CFI 4d3ac .cfa: sp 96 +
STACK CFI 4d3c0 .cfa: x29 64 + x19: .cfa -8 + ^ x20: .cfa -16 + ^ x21: .cfa -24 + ^ x22: .cfa -32 + ^ x23: .cfa -40 + ^ x24: .cfa -48 + ^ .ra: .cfa -56 + ^ x29: .cfa -64 + ^
STACK CFI 4d408 .cfa: sp 96 +
STACK CFI 4d41c .cfa: sp 0 +
STACK CFI 4d420 .cfa: x29 64 +
STACK CFI INIT 4d4cc 50 .cfa: sp 0 +
STACK CFI 4d4d0 .cfa: sp 32 +
STACK CFI 4d4d8 .cfa: x29 32 + x19: .cfa -8 + ^ x20: .cfa -16 + ^ .ra: .cfa -24 + ^ x29: .cfa -32 + ^
STACK CFI INIT 4d5d8 110 .cfa: sp 0 +
STACK CFI 4d5dc .cfa: sp 96 +
STACK CFI 4d5f0 .cfa: x29 64 + x19: .cfa -8 + ^ x20: .cfa -16 + ^ x21: .cfa -24 + ^ x22: .cfa -32 + ^ x23: .cfa -40 + ^ x24: .cfa -48 + ^ .ra: .cfa -56 + ^ x29: .cfa -64 + ^
STACK CFI 4d638 .cfa: sp 96 +
STACK CFI 4d64c .cfa: sp 0 +
STACK CFI 4d650 .cfa: x29 64 +
STACK CFI INIT 4d774 580 .cfa: sp 0 +
STACK CFI 4d778 .cfa: sp 144 +
STACK CFI 4d790 .cfa: x29 80 + x19: .cfa -8 + ^ x20: .cfa -16 + ^ x21: .cfa -24 + ^ x22: .cfa -32 + ^ x23: .cfa -40 + ^ x24: .cfa -48 + ^ x25: .cfa -56 + ^ x26: .cfa -64 + ^ .ra: .cfa -72 + ^ x29: .cfa -80 + ^
STACK CFI 4dc54 .cfa: sp 144 +
STACK CFI 4dc6c .cfa: sp 0 +
STACK CFI 4dc70 .cfa: x29 80 +
STACK CFI INIT 4dcf4 184 .cfa: sp 0 +
STACK CFI 4dcf8 .cfa: sp 160 +
STACK CFI 4dd10 .cfa: x29 80 + x19: .cfa -8 + ^ x20: .cfa -16 + ^ x21: .cfa -24 + ^ x22: .cfa -32 + ^ x23: .cfa -40 + ^ x24: .cfa -48 + ^ x25: .cfa -56 + ^ x26: .cfa -64 + ^ .ra: .cfa -72 + ^ x29: .cfa -80 + ^
STACK CFI 4de10 .cfa: sp 160 +
STACK CFI 4de28 .cfa: sp 0 +
STACK CFI 4de2c .cfa: x29 80 +
STACK CFI INIT 4eb9c a8 .cfa: sp 0 +
STACK CFI 4eba0 .cfa: sp 32 +
STACK CFI 4eba8 .cfa: x29 32 + x19: .cfa -16 + ^ .ra: .cfa -24 + ^ x29: .cfa -32 + ^
STACK CFI 4ebdc .cfa: sp 32 +
STACK CFI 4ebe4 .cfa: sp 0 +
STACK CFI 4ebe8 .cfa: x29 32 +
STACK CFI 4ebec .cfa: sp 32 +
STACK CFI 4ebf4 .cfa: sp 0 +
STACK CFI 4ebf8 .cfa: x29 32 +
STACK CFI INIT 4eed4 19c .cfa: sp 0 +
STACK CFI 4eed8 .cfa: sp 112 +
STACK CFI 4eee8 .cfa: x29 48 + x19: .cfa -8 + ^ x20: .cfa -16 + ^ x21: .cfa -32 + ^ .ra: .cfa -40 + ^ x29: .cfa -48 + ^
STACK CFI 4efc8 .cfa: sp 112 +
STACK CFI 4efd8 .cfa: sp 0 +
STACK CFI 4efdc .cfa: x29 48 +
STACK CFI INIT 4f070 1dc .cfa: sp 0 +
STACK CFI 4f074 .cfa: sp 208 +
STACK CFI 4f08c .cfa: x29 80 + x19: .cfa -8 + ^ x20: .cfa -16 + ^ x21: .cfa -24 + ^ x22: .cfa -32 + ^ x23: .cfa -40 + ^ x24: .cfa -48 + ^ x25: .cfa -64 + ^ .ra: .cfa -72 + ^ x29: .cfa -80 + ^
STACK CFI 4f1d8 .cfa: sp 208 +
STACK CFI 4f1f0 .cfa: sp 0 +
STACK CFI 4f1f4 .cfa: x29 80 +
STACK CFI INIT 4f24c 125c .cfa: sp 0 +
STACK CFI 4f250 .cfa: sp 368 +
STACK CFI 4f270 .cfa: x29 96 + x19: .cfa -8 + ^ x20: .cfa -16 + ^ x21: .cfa -24 + ^ x22: .cfa -32 + ^ x23: .cfa -40 + ^ x24: .cfa -48 + ^ x25: .cfa -56 + ^ x26: .cfa -64 + ^ x27: .cfa -72 + ^ x28: .cfa -80 + ^ .ra: .cfa -88 + ^ x29: .cfa -96 + ^ v8: .cfa -112 + ^
STACK CFI 4f35c .cfa: sp 368 +
STACK CFI 4f37c .cfa: sp 0 +
STACK CFI 4f380 .cfa: x29 96 +
STACK CFI 5034c .cfa: sp 368 +
STACK CFI 5036c .cfa: sp 0 +
STACK CFI 50370 .cfa: x29 96 +
STACK CFI INIT 504a8 2ac .cfa: sp 0 +
STACK CFI 504ac .cfa: sp 144 +
STACK CFI 504c8 .cfa: x29 96 + x19: .cfa -8 + ^ x20: .cfa -16 + ^ x21: .cfa -24 + ^ x22: .cfa -32 + ^ x23: .cfa -40 + ^ x24: .cfa -48 + ^ x25: .cfa -56 + ^ x26: .cfa -64 + ^ x27: .cfa -72 + ^ x28: .cfa -80 + ^ .ra: .cfa -88 + ^ x29: .cfa -96 + ^
STACK CFI 506e0 .cfa: sp 144 +
STACK CFI 506fc .cfa: sp 0 +
STACK CFI 50700 .cfa: x29 96 +
STACK CFI INIT 50754 8cc .cfa: sp 0 +
STACK CFI 50758 .cfa: sp 176 +
STACK CFI 50774 .cfa: x29 96 + x19: .cfa -8 + ^ x20: .cfa -16 + ^ x21: .cfa -24 + ^ x22: .cfa -32 + ^ x23: .cfa -40 + ^ x24: .cfa -48 + ^ x25: .cfa -56 + ^ x26: .cfa -64 + ^ x27: .cfa -72 + ^ x28: .cfa -80 + ^ .ra: .cfa -88 + ^ x29: .cfa -96 + ^
STACK CFI 50fa8 .cfa: sp 176 +
STACK CFI 50fc4 .cfa: sp 0 +
STACK CFI 50fc8 .cfa: x29 96 +
STACK CFI INIT 51020 1b0 .cfa: sp 0 +
STACK CFI 51024 .cfa: sp 112 +
STACK CFI 5103c .cfa: x29 80 + x19: .cfa -8 + ^ x20: .cfa -16 + ^ x21: .cfa -24 + ^ x22: .cfa -32 + ^ x23: .cfa -40 + ^ x24: .cfa -48 + ^ x25: .cfa -64 + ^ .ra: .cfa -72 + ^ x29: .cfa -80 + ^
STACK CFI 51184 .cfa: sp 112 +
STACK CFI 5119c .cfa: sp 0 +
STACK CFI 511a0 .cfa: x29 80 +
STACK CFI INIT 511d0 2c4 .cfa: sp 0 +
STACK CFI 511d4 .cfa: sp 128 +
STACK CFI 511ec .cfa: x29 80 + x19: .cfa -8 + ^ x20: .cfa -16 + ^ x21: .cfa -24 + ^ x22: .cfa -32 + ^ x23: .cfa -40 + ^ x24: .cfa -48 + ^ x25: .cfa -64 + ^ .ra: .cfa -72 + ^ x29: .cfa -80 + ^
STACK CFI 51434 .cfa: sp 128 +
STACK CFI 5144c .cfa: sp 0 +
STACK CFI 51450 .cfa: x29 80 +
STACK CFI INIT 514cc 230 .cfa: sp 0 +
STACK CFI 514d0 .cfa: sp 176 +
STACK CFI 514ec .cfa: x29 96 + x19: .cfa -8 + ^ x20: .cfa -16 + ^ x21: .cfa -24 + ^ x22: .cfa -32 + ^ x23: .cfa -40 + ^ x24: .cfa -48 + ^ x25: .cfa -56 + ^ x26: .cfa -64 + ^ x27: .cfa -72 + ^ x28: .cfa -80 + ^ .ra: .cfa -88 + ^ x29: .cfa -96 + ^
STACK CFI 5152c .cfa: sp 176 +
STACK CFI 51548 .cfa: sp 0 +
STACK CFI 5154c .cfa: x29 96 +
STACK CFI INIT 516fc 114 .cfa: sp 0 +
STACK CFI 51700 .cfa: sp 64 +
STACK CFI 51710 .cfa: x29 64 + x19: .cfa -8 + ^ x20: .cfa -16 + ^ x21: .cfa -24 + ^ x22: .cfa -32 + ^ x23: .cfa -48 + ^ .ra: .cfa -56 + ^ x29: .cfa -64 + ^
STACK CFI 517ec .cfa: sp 64 +
STACK CFI 517fc .cfa: sp 0 +
STACK CFI 51800 .cfa: x29 64 +
STACK CFI INIT 5182c 220 .cfa: sp 0 +
STACK CFI 51830 .cfa: sp 96 +
STACK CFI 51848 .cfa: x29 96 + x19: .cfa -8 + ^ x20: .cfa -16 + ^ x21: .cfa -24 + ^ x22: .cfa -32 + ^ x23: .cfa -40 + ^ x24: .cfa -48 + ^ x25: .cfa -56 + ^ x26: .cfa -64 + ^ x27: .cfa -72 + ^ x28: .cfa -80 + ^ .ra: .cfa -88 + ^ x29: .cfa -96 + ^
STACK CFI 51a1c .cfa: sp 96 +
STACK CFI 51a34 .cfa: sp 0 +
STACK CFI 51a38 .cfa: x29 96 +
STACK CFI INIT 51b20 108 .cfa: sp 0 +
STACK CFI 51b24 .cfa: sp 112 +
STACK CFI 51b30 .cfa: x29 32 + x19: .cfa -8 + ^ x20: .cfa -16 + ^ .ra: .cfa -24 + ^ x29: .cfa -32 + ^
STACK CFI 51bf8 .cfa: sp 112 +
STACK CFI 51c04 .cfa: sp 0 +
STACK CFI 51c08 .cfa: x29 32 +
STACK CFI INIT 51c58 1c .cfa: sp 0 +
STACK CFI 51c5c .cfa: sp 16 +
STACK CFI 51c60 .cfa: x29 16 + .ra: .cfa -8 + ^ x29: .cfa -16 + ^
STACK CFI 51c68 .cfa: sp 16 +
STACK CFI 51c6c .cfa: sp 0 +
STACK CFI 51c70 .cfa: x29 16 +
STACK CFI INIT 51c74 2c0 .cfa: sp 0 +
STACK CFI 51c78 .cfa: sp 176 +
STACK CFI 51c94 .cfa: x29 96 + x19: .cfa -8 + ^ x20: .cfa -16 + ^ x21: .cfa -24 + ^ x22: .cfa -32 + ^ x23: .cfa -40 + ^ x24: .cfa -48 + ^ x25: .cfa -56 + ^ x26: .cfa -64 + ^ x27: .cfa -80 + ^ .ra: .cfa -88 + ^ x29: .cfa -96 + ^
STACK CFI 51ea4 .cfa: sp 176 +
STACK CFI 51ea8 .cfa: x29 96 +
STACK CFI 51ec0 .cfa: sp 176 +
STACK CFI 51edc .cfa: sp 0 +
STACK CFI 51ee0 .cfa: x29 96 +
STACK CFI INIT 51f34 4f4 .cfa: sp 0 +
STACK CFI 51f38 .cfa: sp 128 +
STACK CFI 51f54 .cfa: x29 96 + x19: .cfa -8 + ^ x20: .cfa -16 + ^ x21: .cfa -24 + ^ x22: .cfa -32 + ^ x23: .cfa -40 + ^ x24: .cfa -48 + ^ x25: .cfa -56 + ^ x26: .cfa -64 + ^ x27: .cfa -72 + ^ x28: .cfa -80 + ^ .ra: .cfa -88 + ^ x29: .cfa -96 + ^
STACK CFI 523bc .cfa: sp 128 +
STACK CFI 523d8 .cfa: sp 0 +
STACK CFI 523dc .cfa: x29 96 +
STACK CFI INIT 52734 130 .cfa: sp 0 +
STACK CFI 52738 .cfa: sp 112 +
STACK CFI 52744 .cfa: x29 32 + x19: .cfa -8 + ^ x20: .cfa -16 + ^ .ra: .cfa -24 + ^ x29: .cfa -32 + ^
STACK CFI 527ec .cfa: sp 112 +
STACK CFI 527f8 .cfa: sp 0 +
STACK CFI 527fc .cfa: x29 32 +
STACK CFI INIT 52864 1eb0 .cfa: sp 0 +
STACK CFI 52868 .cfa: sp 112 +
STACK CFI 52884 .cfa: x29 96 + x19: .cfa -8 + ^ x20: .cfa -16 + ^ x21: .cfa -24 + ^ x22: .cfa -32 + ^ x23: .cfa -40 + ^ x24: .cfa -48 + ^ x25: .cfa -56 + ^ x26: .cfa -64 + ^ x27: .cfa -72 + ^ x28: .cfa -80 + ^ .ra: .cfa -88 + ^ x29: .cfa -96 + ^ v8: .cfa -112 + ^
STACK CFI 53bc8 .cfa: sp 112 +
STACK CFI 53be4 .cfa: sp 0 +
STACK CFI 53be8 .cfa: x29 96 +
STACK CFI INIT 54714 10c .cfa: sp 0 +
STACK CFI 54718 .cfa: sp 32 +
STACK CFI 54720 .cfa: x29 32 + x19: .cfa -8 + ^ x20: .cfa -16 + ^ .ra: .cfa -24 + ^ x29: .cfa -32 + ^
STACK CFI 547c8 .cfa: sp 32 +
STACK CFI 547d0 .cfa: sp 0 +
STACK CFI 547d4 .cfa: x29 32 +
STACK CFI INIT 54820 4d0 .cfa: sp 0 +
STACK CFI 54824 .cfa: sp 272 +
STACK CFI 54838 .cfa: x29 64 + x19: .cfa -8 + ^ x20: .cfa -16 + ^ x21: .cfa -24 + ^ x22: .cfa -32 + ^ x23: .cfa -40 + ^ x28: .cfa -48 + ^ .ra: .cfa -56 + ^ x29: .cfa -64 + ^
STACK CFI 54bc0 .cfa: sp 272 +
STACK CFI 54bd4 .cfa: sp 0 +
STACK CFI 54bd8 .cfa: x29 64 +
STACK CFI INIT 54e80 80 .cfa: sp 0 +
STACK CFI 54e84 .cfa: sp 32 +
STACK CFI 54e8c .cfa: x29 32 + x19: .cfa -8 + ^ x20: .cfa -16 + ^ .ra: .cfa -24 + ^ x29: .cfa -32 + ^
STACK CFI 54ec8 .cfa: sp 32 +
STACK CFI 54ed0 .cfa: sp 0 +
STACK CFI 54ed4 .cfa: x29 32 +
STACK CFI 54ee0 .cfa: sp 32 +
STACK CFI 54ee8 .cfa: sp 0 +
STACK CFI 54eec .cfa: x29 32 +
STACK CFI INIT 55098 80 .cfa: sp 0 +
STACK CFI 5509c .cfa: sp 32 +
STACK CFI 550a4 .cfa: x29 32 + x19: .cfa -8 + ^ x20: .cfa -16 + ^ .ra: .cfa -24 + ^ x29: .cfa -32 + ^
STACK CFI 550e0 .cfa: sp 32 +
STACK CFI 550e8 .cfa: sp 0 +
STACK CFI 550ec .cfa: x29 32 +
STACK CFI 550f8 .cfa: sp 32 +
STACK CFI 55100 .cfa: sp 0 +
STACK CFI 55104 .cfa: x29 32 +
STACK CFI INIT 55250 170 .cfa: sp 0 +
STACK CFI 55254 .cfa: sp 160 +
STACK CFI 55264 .cfa: x29 48 + x19: .cfa -8 + ^ x20: .cfa -16 + ^ x21: .cfa -32 + ^ .ra: .cfa -40 + ^ x29: .cfa -48 + ^
STACK CFI 55364 .cfa: sp 160 +
STACK CFI 55374 .cfa: sp 0 +
STACK CFI 55378 .cfa: x29 48 +
STACK CFI INIT 553c0 4cc .cfa: sp 0 +
STACK CFI 553c4 .cfa: sp 128 +
STACK CFI 553e0 .cfa: x29 96 + x19: .cfa -8 + ^ x20: .cfa -16 + ^ x21: .cfa -24 + ^ x22: .cfa -32 + ^ x23: .cfa -40 + ^ x24: .cfa -48 + ^ x25: .cfa -56 + ^ x26: .cfa -64 + ^ x27: .cfa -72 + ^ x28: .cfa -80 + ^ .ra: .cfa -88 + ^ x29: .cfa -96 + ^
STACK CFI 5583c .cfa: sp 128 +
STACK CFI 55858 .cfa: sp 0 +
STACK CFI 5585c .cfa: x29 96 +
STACK CFI INIT 55ab8 470 .cfa: sp 0 +
STACK CFI 55abc .cfa: sp 224 +
STACK CFI 55ad8 .cfa: x29 96 + x19: .cfa -8 + ^ x20: .cfa -16 + ^ x21: .cfa -24 + ^ x22: .cfa -32 + ^ x23: .cfa -40 + ^ x24: .cfa -48 + ^ x25: .cfa -56 + ^ x26: .cfa -64 + ^ x27: .cfa -80 + ^ .ra: .cfa -88 + ^ x29: .cfa -96 + ^
STACK CFI 55d34 .cfa: sp 224 +
STACK CFI 55d50 .cfa: sp 0 +
STACK CFI 55d54 .cfa: x29 96 +
STACK CFI 55e20 .cfa: sp 224 +
STACK CFI 55e3c .cfa: sp 0 +
STACK CFI 55e40 .cfa: x29 96 +
STACK CFI INIT 55f44 374 .cfa: sp 0 +
STACK CFI 55f48 .cfa: sp 240 +
STACK CFI 55f5c .cfa: x29 64 + x19: .cfa -8 + ^ x20: .cfa -16 + ^ x21: .cfa -24 + ^ x22: .cfa -32 + ^ x23: .cfa -48 + ^ .ra: .cfa -56 + ^ x29: .cfa -64 + ^
STACK CFI 5618c .cfa: sp 240 +
STACK CFI 561a0 .cfa: sp 0 +
STACK CFI 561a4 .cfa: x29 64 +
STACK CFI INIT 562bc c8 .cfa: sp 0 +
STACK CFI 562c0 .cfa: sp 64 +
STACK CFI 562cc .cfa: x29 32 + x19: .cfa -8 + ^ x20: .cfa -16 + ^ .ra: .cfa -24 + ^ x29: .cfa -32 + ^
STACK CFI 56344 .cfa: sp 64 +
STACK CFI 56350 .cfa: sp 0 +
STACK CFI 56354 .cfa: x29 32 +
STACK CFI INIT 56384 8a4 .cfa: sp 0 +
STACK CFI 56388 .cfa: sp 272 +
STACK CFI 563a4 .cfa: x29 96 + x19: .cfa -8 + ^ x20: .cfa -16 + ^ x21: .cfa -24 + ^ x22: .cfa -32 + ^ x23: .cfa -40 + ^ x24: .cfa -48 + ^ x25: .cfa -56 + ^ x26: .cfa -64 + ^ x27: .cfa -72 + ^ x28: .cfa -80 + ^ .ra: .cfa -88 + ^ x29: .cfa -96 + ^
STACK CFI 56538 .cfa: sp 272 +
STACK CFI 56554 .cfa: sp 0 +
STACK CFI 56558 .cfa: x29 96 +
STACK CFI 569d0 .cfa: sp 272 +
STACK CFI 569ec .cfa: sp 0 +
STACK CFI 569f0 .cfa: x29 96 +
STACK CFI INIT 56c44 324 .cfa: sp 0 +
STACK CFI 56c48 .cfa: sp 224 +
STACK CFI 56c5c .cfa: x29 64 + x19: .cfa -8 + ^ x20: .cfa -16 + ^ x21: .cfa -24 + ^ x22: .cfa -32 + ^ x23: .cfa -48 + ^ .ra: .cfa -56 + ^ x29: .cfa -64 + ^
STACK CFI 56e50 .cfa: sp 224 +
STACK CFI 56e64 .cfa: sp 0 +
STACK CFI 56e68 .cfa: x29 64 +
STACK CFI INIT 56f6c 110 .cfa: sp 0 +
STACK CFI 56f70 .cfa: sp 96 +
STACK CFI 56f84 .cfa: x29 64 + x19: .cfa -8 + ^ x20: .cfa -16 + ^ x21: .cfa -24 + ^ x22: .cfa -32 + ^ x23: .cfa -40 + ^ x24: .cfa -48 + ^ .ra: .cfa -56 + ^ x29: .cfa -64 + ^
STACK CFI 56fcc .cfa: sp 96 +
STACK CFI 56fe0 .cfa: sp 0 +
STACK CFI 56fe4 .cfa: x29 64 +
STACK CFI INIT 5710c 448 .cfa: sp 0 +
STACK CFI 57110 .cfa: sp 144 +
STACK CFI 57128 .cfa: x29 80 + x19: .cfa -8 + ^ x20: .cfa -16 + ^ x21: .cfa -24 + ^ x22: .cfa -32 + ^ x23: .cfa -40 + ^ x24: .cfa -48 + ^ x25: .cfa -64 + ^ .ra: .cfa -72 + ^ x29: .cfa -80 + ^
STACK CFI 57158 .cfa: sp 144 +
STACK CFI 57170 .cfa: sp 0 +
STACK CFI 57174 .cfa: x29 80 +
STACK CFI 574e8 .cfa: sp 144 +
STACK CFI 57500 .cfa: sp 0 +
STACK CFI 57504 .cfa: x29 80 +
STACK CFI INIT 57554 190 .cfa: sp 0 +
STACK CFI 57558 .cfa: sp 112 +
STACK CFI 57568 .cfa: x29 48 + x19: .cfa -8 + ^ x20: .cfa -16 + ^ x21: .cfa -32 + ^ .ra: .cfa -40 + ^ x29: .cfa -48 + ^
STACK CFI 57638 .cfa: sp 112 +
STACK CFI 57648 .cfa: sp 0 +
STACK CFI 5764c .cfa: x29 48 +
STACK CFI INIT 57830 470 .cfa: sp 0 +
STACK CFI 57834 .cfa: sp 224 +
STACK CFI 57850 .cfa: x29 96 + x19: .cfa -8 + ^ x20: .cfa -16 + ^ x21: .cfa -24 + ^ x22: .cfa -32 + ^ x23: .cfa -40 + ^ x24: .cfa -48 + ^ x25: .cfa -56 + ^ x26: .cfa -64 + ^ x27: .cfa -80 + ^ .ra: .cfa -88 + ^ x29: .cfa -96 + ^
STACK CFI 57aac .cfa: sp 224 +
STACK CFI 57ac8 .cfa: sp 0 +
STACK CFI 57acc .cfa: x29 96 +
STACK CFI 57b98 .cfa: sp 224 +
STACK CFI 57bb4 .cfa: sp 0 +
STACK CFI 57bb8 .cfa: x29 96 +
STACK CFI INIT 57cbc 32c .cfa: sp 0 +
STACK CFI 57cc0 .cfa: sp 240 +
STACK CFI 57cd4 .cfa: x29 64 + x19: .cfa -8 + ^ x20: .cfa -16 + ^ x21: .cfa -24 + ^ x22: .cfa -32 + ^ x23: .cfa -48 + ^ .ra: .cfa -56 + ^ x29: .cfa -64 + ^
STACK CFI 57ed0 .cfa: sp 240 +
STACK CFI 57ee4 .cfa: sp 0 +
STACK CFI 57ee8 .cfa: x29 64 +
STACK CFI INIT 58294 8a8 .cfa: sp 0 +
STACK CFI 58298 .cfa: sp 240 +
STACK CFI 582b4 .cfa: x29 96 + x19: .cfa -8 + ^ x20: .cfa -16 + ^ x21: .cfa -24 + ^ x22: .cfa -32 + ^ x23: .cfa -40 + ^ x24: .cfa -48 + ^ x25: .cfa -56 + ^ x26: .cfa -64 + ^ x27: .cfa -80 + ^ .ra: .cfa -88 + ^ x29: .cfa -96 + ^
STACK CFI 58408 .cfa: sp 240 +
STACK CFI 58424 .cfa: sp 0 +
STACK CFI 58428 .cfa: x29 96 +
STACK CFI 588f0 .cfa: sp 240 +
STACK CFI 5890c .cfa: sp 0 +
STACK CFI 58910 .cfa: x29 96 +
STACK CFI INIT 58b58 2f4 .cfa: sp 0 +
STACK CFI 58b5c .cfa: sp 176 +
STACK CFI 58b70 .cfa: x29 64 + x19: .cfa -8 + ^ x20: .cfa -16 + ^ x21: .cfa -24 + ^ x22: .cfa -32 + ^ x23: .cfa -48 + ^ .ra: .cfa -56 + ^ x29: .cfa -64 + ^
STACK CFI 58d44 .cfa: sp 176 +
STACK CFI 58d58 .cfa: sp 0 +
STACK CFI 58d5c .cfa: x29 64 +
STACK CFI INIT 58e50 2ec .cfa: sp 0 +
STACK CFI 58e54 .cfa: sp 160 +
STACK CFI 58e68 .cfa: x29 64 + x19: .cfa -8 + ^ x20: .cfa -16 + ^ x21: .cfa -24 + ^ x22: .cfa -32 + ^ x23: .cfa -48 + ^ .ra: .cfa -56 + ^ x29: .cfa -64 + ^
STACK CFI 5905c .cfa: sp 160 +
STACK CFI 59070 .cfa: sp 0 +
STACK CFI 59074 .cfa: x29 64 +
STACK CFI INIT 5913c 74 .cfa: sp 0 +
STACK CFI 59140 .cfa: sp 48 +
STACK CFI 5914c .cfa: x29 32 + x19: .cfa -8 + ^ x20: .cfa -16 + ^ .ra: .cfa -24 + ^ x29: .cfa -32 + ^
STACK CFI 59198 .cfa: sp 48 +
STACK CFI 591a4 .cfa: sp 0 +
STACK CFI 591a8 .cfa: x29 32 +
STACK CFI INIT 5935c a8 .cfa: sp 0 +
STACK CFI 59360 .cfa: sp 32 +
STACK CFI 59368 .cfa: x29 32 + x19: .cfa -16 + ^ .ra: .cfa -24 + ^ x29: .cfa -32 + ^
STACK CFI 5939c .cfa: sp 32 +
STACK CFI 593a4 .cfa: sp 0 +
STACK CFI 593a8 .cfa: x29 32 +
STACK CFI 593ac .cfa: sp 32 +
STACK CFI 593b4 .cfa: sp 0 +
STACK CFI 593b8 .cfa: x29 32 +
STACK CFI INIT 594a0 8b8 .cfa: sp 0 +
STACK CFI 594a4 .cfa: sp 272 +
STACK CFI 594c0 .cfa: x29 96 + x19: .cfa -8 + ^ x20: .cfa -16 + ^ x21: .cfa -24 + ^ x22: .cfa -32 + ^ x23: .cfa -40 + ^ x24: .cfa -48 + ^ x25: .cfa -56 + ^ x26: .cfa -64 + ^ x27: .cfa -72 + ^ x28: .cfa -80 + ^ .ra: .cfa -88 + ^ x29: .cfa -96 + ^
STACK CFI 59668 .cfa: sp 272 +
STACK CFI 59684 .cfa: sp 0 +
STACK CFI 59688 .cfa: x29 96 +
STACK CFI 59b00 .cfa: sp 272 +
STACK CFI 59b1c .cfa: sp 0 +
STACK CFI 59b20 .cfa: x29 96 +
STACK CFI INIT 59d74 1844 .cfa: sp 0 +
STACK CFI 59d78 .cfa: sp 288 +
STACK CFI 59d94 .cfa: x29 96 + x19: .cfa -8 + ^ x20: .cfa -16 + ^ x21: .cfa -24 + ^ x22: .cfa -32 + ^ x23: .cfa -40 + ^ x24: .cfa -48 + ^ x25: .cfa -56 + ^ x26: .cfa -64 + ^ x27: .cfa -72 + ^ x28: .cfa -80 + ^ .ra: .cfa -88 + ^ x29: .cfa -96 + ^
STACK CFI 5af4c .cfa: sp 288 +
STACK CFI 5af68 .cfa: sp 0 +
STACK CFI 5af6c .cfa: x29 96 +
STACK CFI INIT 5b5bc 110 .cfa: sp 0 +
STACK CFI 5b5c0 .cfa: sp 96 +
STACK CFI 5b5d4 .cfa: x29 64 + x19: .cfa -8 + ^ x20: .cfa -16 + ^ x21: .cfa -24 + ^ x22: .cfa -32 + ^ x23: .cfa -40 + ^ x24: .cfa -48 + ^ .ra: .cfa -56 + ^ x29: .cfa -64 + ^
STACK CFI 5b61c .cfa: sp 96 +
STACK CFI 5b630 .cfa: sp 0 +
STACK CFI 5b634 .cfa: x29 64 +
STACK CFI INIT 5b758 184 .cfa: sp 0 +
STACK CFI 5b75c .cfa: sp 144 +
STACK CFI 5b774 .cfa: x29 80 + x19: .cfa -8 + ^ x20: .cfa -16 + ^ x21: .cfa -24 + ^ x22: .cfa -32 + ^ x23: .cfa -40 + ^ x24: .cfa -48 + ^ x25: .cfa -56 + ^ x26: .cfa -64 + ^ .ra: .cfa -72 + ^ x29: .cfa -80 + ^
STACK CFI 5b874 .cfa: sp 144 +
STACK CFI 5b88c .cfa: sp 0 +
STACK CFI 5b890 .cfa: x29 80 +
STACK CFI INIT 5b970 4f4 .cfa: sp 0 +
STACK CFI 5b974 .cfa: sp 224 +
STACK CFI 5b988 .cfa: x29 48 + x19: .cfa -8 + ^ x20: .cfa -16 + ^ x21: .cfa -24 + ^ x22: .cfa -32 + ^ .ra: .cfa -40 + ^ x29: .cfa -48 + ^ v8: .cfa -56 + ^ v9: .cfa -64 + ^
STACK CFI 5b9d8 .cfa: sp 224 +
STACK CFI 5b9ec .cfa: sp 0 +
STACK CFI 5b9f0 .cfa: x29 48 +
STACK CFI 5bb28 .cfa: sp 224 +
STACK CFI 5bb3c .cfa: sp 0 +
STACK CFI 5bb40 .cfa: x29 48 +
STACK CFI INIT 5beb4 104 .cfa: sp 0 +
STACK CFI 5beb8 .cfa: sp 80 +
STACK CFI 5bec8 .cfa: x29 48 + x19: .cfa -8 + ^ x20: .cfa -16 + ^ x21: .cfa -32 + ^ .ra: .cfa -40 + ^ x29: .cfa -48 + ^
STACK CFI 5befc .cfa: sp 80 +
STACK CFI 5bf0c .cfa: sp 0 +
STACK CFI 5bf10 .cfa: x29 48 +
STACK CFI 5bf74 .cfa: sp 80 +
STACK CFI 5bf84 .cfa: sp 0 +
STACK CFI 5bf88 .cfa: x29 48 +
STACK CFI INIT 5bfe0 104 .cfa: sp 0 +
STACK CFI 5bfe4 .cfa: sp 80 +
STACK CFI 5bff4 .cfa: x29 48 + x19: .cfa -8 + ^ x20: .cfa -16 + ^ x21: .cfa -32 + ^ .ra: .cfa -40 + ^ x29: .cfa -48 + ^
STACK CFI 5c028 .cfa: sp 80 +
STACK CFI 5c038 .cfa: sp 0 +
STACK CFI 5c03c .cfa: x29 48 +
STACK CFI 5c0a0 .cfa: sp 80 +
STACK CFI 5c0b0 .cfa: sp 0 +
STACK CFI 5c0b4 .cfa: x29 48 +
STACK CFI INIT 5c134 134 .cfa: sp 0 +
STACK CFI 5c138 .cfa: sp 64 +
STACK CFI 5c144 .cfa: x29 32 + x19: .cfa -8 + ^ x20: .cfa -16 + ^ .ra: .cfa -24 + ^ x29: .cfa -32 + ^
STACK CFI 5c1e0 .cfa: sp 64 +
STACK CFI 5c1ec .cfa: sp 0 +
STACK CFI 5c1f0 .cfa: x29 32 +
STACK CFI 5c204 .cfa: sp 64 +
STACK CFI 5c210 .cfa: sp 0 +
STACK CFI 5c214 .cfa: x29 32 +
STACK CFI 5c228 .cfa: sp 64 +
STACK CFI 5c234 .cfa: sp 0 +
STACK CFI 5c238 .cfa: x29 32 +
STACK CFI INIT 5c268 28c .cfa: sp 0 +
STACK CFI 5c26c .cfa: sp 208 +
STACK CFI 5c280 .cfa: x29 64 + x19: .cfa -8 + ^ x20: .cfa -16 + ^ x21: .cfa -24 + ^ x22: .cfa -32 + ^ x23: .cfa -48 + ^ .ra: .cfa -56 + ^ x29: .cfa -64 + ^
STACK CFI 5c450 .cfa: sp 208 +
STACK CFI 5c464 .cfa: sp 0 +
STACK CFI 5c468 .cfa: x29 64 +
STACK CFI INIT 5c4f4 8b4 .cfa: sp 0 +
STACK CFI 5c4f8 .cfa: sp 272 +
STACK CFI 5c514 .cfa: x29 96 + x19: .cfa -8 + ^ x20: .cfa -16 + ^ x21: .cfa -24 + ^ x22: .cfa -32 + ^ x23: .cfa -40 + ^ x24: .cfa -48 + ^ x25: .cfa -56 + ^ x26: .cfa -64 + ^ x27: .cfa -72 + ^ x28: .cfa -80 + ^ .ra: .cfa -88 + ^ x29: .cfa -96 + ^
STACK CFI 5c6b8 .cfa: sp 272 +
STACK CFI 5c6d4 .cfa: sp 0 +
STACK CFI 5c6d8 .cfa: x29 96 +
STACK CFI 5cb50 .cfa: sp 272 +
STACK CFI 5cb6c .cfa: sp 0 +
STACK CFI 5cb70 .cfa: x29 96 +
STACK CFI INIT 5cdc4 62c .cfa: sp 0 +
STACK CFI 5cdc8 .cfa: sp 288 +
STACK CFI 5cde4 .cfa: x29 96 + x19: .cfa -8 + ^ x20: .cfa -16 + ^ x21: .cfa -24 + ^ x22: .cfa -32 + ^ x23: .cfa -40 + ^ x24: .cfa -48 + ^ x25: .cfa -56 + ^ x26: .cfa -64 + ^ x28: .cfa -80 + ^ .ra: .cfa -88 + ^ x29: .cfa -96 + ^
STACK CFI 5d218 .cfa: sp 288 +
STACK CFI 5d234 .cfa: sp 0 +
STACK CFI 5d238 .cfa: x29 96 +
STACK CFI INIT 5d3f4 110 .cfa: sp 0 +
STACK CFI 5d3f8 .cfa: sp 96 +
STACK CFI 5d40c .cfa: x29 64 + x19: .cfa -8 + ^ x20: .cfa -16 + ^ x21: .cfa -24 + ^ x22: .cfa -32 + ^ x23: .cfa -40 + ^ x24: .cfa -48 + ^ .ra: .cfa -56 + ^ x29: .cfa -64 + ^
STACK CFI 5d454 .cfa: sp 96 +
STACK CFI 5d468 .cfa: sp 0 +
STACK CFI 5d46c .cfa: x29 64 +
STACK CFI INIT 5d590 12c .cfa: sp 0 +
STACK CFI 5d594 .cfa: sp 80 +
STACK CFI 5d5a4 .cfa: x29 48 + x19: .cfa -8 + ^ x20: .cfa -16 + ^ x21: .cfa -32 + ^ .ra: .cfa -40 + ^ x29: .cfa -48 + ^
STACK CFI 5d678 .cfa: sp 80 +
STACK CFI 5d688 .cfa: sp 0 +
STACK CFI 5d68c .cfa: x29 48 +
STACK CFI INIT 5d6bc 1e0 .cfa: sp 0 +
STACK CFI 5d6c0 .cfa: sp 128 +
STACK CFI 5d6d4 .cfa: x29 64 + x19: .cfa -8 + ^ x20: .cfa -16 + ^ x21: .cfa -24 + ^ x22: .cfa -32 + ^ x23: .cfa -48 + ^ .ra: .cfa -56 + ^ x29: .cfa -64 + ^
STACK CFI 5d81c .cfa: sp 128 +
STACK CFI 5d830 .cfa: sp 0 +
STACK CFI 5d834 .cfa: x29 64 +
STACK CFI INIT 5d89c 648 .cfa: sp 0 +
STACK CFI 5d8a0 .cfa: sp 144 +
STACK CFI 5d8b8 .cfa: x29 80 + x19: .cfa -8 + ^ x20: .cfa -16 + ^ x21: .cfa -24 + ^ x22: .cfa -32 + ^ x23: .cfa -40 + ^ x24: .cfa -48 + ^ x25: .cfa -64 + ^ .ra: .cfa -72 + ^ x29: .cfa -80 + ^
STACK CFI 5ddc4 .cfa: sp 144 +
STACK CFI 5dddc .cfa: sp 0 +
STACK CFI 5dde0 .cfa: x29 80 +
STACK CFI INIT 5dee4 fc .cfa: sp 0 +
STACK CFI 5dee8 .cfa: sp 80 +
STACK CFI 5def8 .cfa: x29 48 + x19: .cfa -8 + ^ x20: .cfa -16 + ^ x21: .cfa -24 + ^ x22: .cfa -32 + ^ .ra: .cfa -40 + ^ x29: .cfa -48 + ^
STACK CFI 5df9c .cfa: sp 80 +
STACK CFI 5dfac .cfa: sp 0 +
STACK CFI 5dfb0 .cfa: x29 48 +
STACK CFI INIT 5e050 470 .cfa: sp 0 +
STACK CFI 5e054 .cfa: sp 224 +
STACK CFI 5e070 .cfa: x29 96 + x19: .cfa -8 + ^ x20: .cfa -16 + ^ x21: .cfa -24 + ^ x22: .cfa -32 + ^ x23: .cfa -40 + ^ x24: .cfa -48 + ^ x25: .cfa -56 + ^ x26: .cfa -64 + ^ x27: .cfa -80 + ^ .ra: .cfa -88 + ^ x29: .cfa -96 + ^
STACK CFI 5e2cc .cfa: sp 224 +
STACK CFI 5e2e8 .cfa: sp 0 +
STACK CFI 5e2ec .cfa: x29 96 +
STACK CFI 5e3b8 .cfa: sp 224 +
STACK CFI 5e3d4 .cfa: sp 0 +
STACK CFI 5e3d8 .cfa: x29 96 +
STACK CFI INIT 5e4dc 3bc .cfa: sp 0 +
STACK CFI 5e4e0 .cfa: sp 256 +
STACK CFI 5e4f4 .cfa: x29 64 + x19: .cfa -8 + ^ x20: .cfa -16 + ^ x21: .cfa -24 + ^ x22: .cfa -32 + ^ x23: .cfa -48 + ^ .ra: .cfa -56 + ^ x29: .cfa -64 + ^
STACK CFI 5e760 .cfa: sp 256 +
STACK CFI 5e774 .cfa: sp 0 +
STACK CFI 5e778 .cfa: x29 64 +
STACK CFI INIT 5e89c c8 .cfa: sp 0 +
STACK CFI 5e8a0 .cfa: sp 64 +
STACK CFI 5e8ac .cfa: x29 32 + x19: .cfa -8 + ^ x20: .cfa -16 + ^ .ra: .cfa -24 + ^ x29: .cfa -32 + ^
STACK CFI 5e924 .cfa: sp 64 +
STACK CFI 5e930 .cfa: sp 0 +
STACK CFI 5e934 .cfa: x29 32 +
STACK CFI INIT 5ea50 a78 .cfa: sp 0 +
STACK CFI 5ea54 .cfa: sp 336 +
STACK CFI 5ea70 .cfa: x29 96 + x19: .cfa -8 + ^ x20: .cfa -16 + ^ x21: .cfa -24 + ^ x22: .cfa -32 + ^ x23: .cfa -40 + ^ x24: .cfa -48 + ^ x25: .cfa -56 + ^ x26: .cfa -64 + ^ x27: .cfa -72 + ^ x28: .cfa -80 + ^ .ra: .cfa -88 + ^ x29: .cfa -96 + ^
STACK CFI 5f2b0 .cfa: sp 336 +
STACK CFI 5f2cc .cfa: sp 0 +
STACK CFI 5f2d0 .cfa: x29 96 +
STACK CFI INIT 5f658 b64 .cfa: sp 0 +
STACK CFI 5f65c .cfa: sp 304 +
STACK CFI 5f674 .cfa: x29 80 + x19: .cfa -8 + ^ x20: .cfa -16 + ^ x21: .cfa -24 + ^ x22: .cfa -32 + ^ x23: .cfa -40 + ^ x24: .cfa -48 + ^ x25: .cfa -56 + ^ x28: .cfa -64 + ^ .ra: .cfa -72 + ^ x29: .cfa -80 + ^
STACK CFI 5fea4 .cfa: sp 304 +
STACK CFI 5febc .cfa: sp 0 +
STACK CFI 5fec0 .cfa: x29 80 +
STACK CFI INIT 601bc 568 .cfa: sp 0 +
STACK CFI 601c0 .cfa: sp 176 +
STACK CFI 601d0 .cfa: x29 48 + x19: .cfa -8 + ^ x20: .cfa -16 + ^ x21: .cfa -24 + ^ x22: .cfa -32 + ^ .ra: .cfa -40 + ^ x29: .cfa -48 + ^
STACK CFI 60538 .cfa: sp 176 +
STACK CFI 60548 .cfa: sp 0 +
STACK CFI 6054c .cfa: x29 48 +
STACK CFI INIT 60724 804 .cfa: sp 0 +
STACK CFI 60728 .cfa: sp 240 +
STACK CFI 60744 .cfa: x29 96 + x19: .cfa -8 + ^ x20: .cfa -16 + ^ x21: .cfa -24 + ^ x22: .cfa -32 + ^ x23: .cfa -40 + ^ x24: .cfa -48 + ^ x25: .cfa -56 + ^ x26: .cfa -64 + ^ x27: .cfa -72 + ^ x28: .cfa -80 + ^ .ra: .cfa -88 + ^ x29: .cfa -96 + ^
STACK CFI 60d80 .cfa: sp 240 +
STACK CFI 60d9c .cfa: sp 0 +
STACK CFI 60da0 .cfa: x29 96 +
STACK CFI INIT 60f28 1088 .cfa: sp 0 +
STACK CFI 60f2c .cfa: sp 336 +
STACK CFI 60f48 .cfa: x29 96 + x19: .cfa -8 + ^ x20: .cfa -16 + ^ x21: .cfa -24 + ^ x22: .cfa -32 + ^ x23: .cfa -40 + ^ x24: .cfa -48 + ^ x25: .cfa -56 + ^ x26: .cfa -64 + ^ x27: .cfa -72 + ^ x28: .cfa -80 + ^ .ra: .cfa -88 + ^ x29: .cfa -96 + ^
STACK CFI 61db0 .cfa: sp 336 +
STACK CFI 61dcc .cfa: sp 0 +
STACK CFI 61dd0 .cfa: x29 96 +
STACK CFI INIT 6276c 188 .cfa: sp 0 +
STACK CFI 62770 .cfa: sp 160 +
STACK CFI 62788 .cfa: x29 80 + x19: .cfa -8 + ^ x20: .cfa -16 + ^ x21: .cfa -24 + ^ x22: .cfa -32 + ^ x23: .cfa -40 + ^ x24: .cfa -48 + ^ x25: .cfa -56 + ^ x26: .cfa -64 + ^ .ra: .cfa -72 + ^ x29: .cfa -80 + ^
STACK CFI 62890 .cfa: sp 160 +
STACK CFI 628a8 .cfa: sp 0 +
STACK CFI 628ac .cfa: x29 80 +
STACK CFI INIT 628f4 1cc .cfa: sp 0 +
STACK CFI 628f8 .cfa: sp 96 +
STACK CFI 6290c .cfa: x29 64 + x19: .cfa -8 + ^ x20: .cfa -16 + ^ x21: .cfa -24 + ^ x22: .cfa -32 + ^ x23: .cfa -48 + ^ .ra: .cfa -56 + ^ x29: .cfa -64 + ^
STACK CFI 62a90 .cfa: sp 96 +
STACK CFI 62aa4 .cfa: sp 0 +
STACK CFI 62aa8 .cfa: x29 64 +
STACK CFI INIT 62ac0 114 .cfa: sp 0 +
STACK CFI 62ac4 .cfa: sp 32 +
STACK CFI 62acc .cfa: x29 32 + x19: .cfa -8 + ^ x20: .cfa -16 + ^ .ra: .cfa -24 + ^ x29: .cfa -32 + ^
STACK CFI 62b28 .cfa: sp 32 +
STACK CFI 62b30 .cfa: sp 0 +
STACK CFI 62b34 .cfa: x29 32 +
STACK CFI 62b7c .cfa: sp 32 +
STACK CFI 62b84 .cfa: sp 0 +
STACK CFI 62b88 .cfa: x29 32 +
STACK CFI INIT 62e40 21d0 .cfa: sp 0 +
STACK CFI 62e44 .cfa: sp 96 +
STACK CFI 62e5c .cfa: x29 96 + x19: .cfa -8 + ^ x20: .cfa -16 + ^ x21: .cfa -24 + ^ x22: .cfa -32 + ^ x23: .cfa -40 + ^ x24: .cfa -48 + ^ x25: .cfa -56 + ^ x26: .cfa -64 + ^ x27: .cfa -72 + ^ x28: .cfa -80 + ^ .ra: .cfa -88 + ^ x29: .cfa -96 + ^
STACK CFI 649b8 .cfa: sp 96 +
STACK CFI 649d0 .cfa: sp 0 +
STACK CFI 649d4 .cfa: x29 96 +
STACK CFI INIT 65104 1ce4 .cfa: sp 0 +
STACK CFI 65108 .cfa: sp 96 +
STACK CFI 65120 .cfa: x29 96 + x19: .cfa -8 + ^ x20: .cfa -16 + ^ x21: .cfa -24 + ^ x22: .cfa -32 + ^ x23: .cfa -40 + ^ x24: .cfa -48 + ^ x25: .cfa -56 + ^ x26: .cfa -64 + ^ x27: .cfa -72 + ^ x28: .cfa -80 + ^ .ra: .cfa -88 + ^ x29: .cfa -96 + ^
STACK CFI 668b4 .cfa: sp 96 +
STACK CFI 668cc .cfa: sp 0 +
STACK CFI 668d0 .cfa: x29 96 +
STACK CFI INIT 66de8 4c0 .cfa: sp 0 +
STACK CFI 66dec .cfa: sp 384 +
STACK CFI 66e08 .cfa: x29 96 + x19: .cfa -8 + ^ x20: .cfa -16 + ^ x21: .cfa -24 + ^ x22: .cfa -32 + ^ x23: .cfa -40 + ^ x24: .cfa -48 + ^ x25: .cfa -56 + ^ x26: .cfa -64 + ^ x27: .cfa -72 + ^ x28: .cfa -80 + ^ .ra: .cfa -88 + ^ x29: .cfa -96 + ^
STACK CFI 67114 .cfa: sp 384 +
STACK CFI 67130 .cfa: sp 0 +
STACK CFI 67134 .cfa: x29 96 +
STACK CFI INIT 672a8 2e4 .cfa: sp 0 +
STACK CFI 672ac .cfa: sp 224 +
STACK CFI 672c8 .cfa: x29 96 + x19: .cfa -8 + ^ x20: .cfa -16 + ^ x21: .cfa -24 + ^ x22: .cfa -32 + ^ x23: .cfa -40 + ^ x24: .cfa -48 + ^ x25: .cfa -56 + ^ x26: .cfa -64 + ^ x27: .cfa -72 + ^ x28: .cfa -80 + ^ .ra: .cfa -88 + ^ x29: .cfa -96 + ^
STACK CFI 674dc .cfa: sp 224 +
STACK CFI 674f8 .cfa: sp 0 +
STACK CFI 674fc .cfa: x29 96 +
STACK CFI INIT 675c8 3a0 .cfa: sp 0 +
STACK CFI 675cc .cfa: sp 80 +
STACK CFI 675e0 .cfa: x29 80 + x19: .cfa -8 + ^ x20: .cfa -16 + ^ x21: .cfa -24 + ^ x22: .cfa -32 + ^ x23: .cfa -40 + ^ x24: .cfa -48 + ^ x25: .cfa -56 + ^ x28: .cfa -64 + ^ .ra: .cfa -72 + ^ x29: .cfa -80 + ^
STACK CFI 678b8 .cfa: sp 80 +
STACK CFI 678cc .cfa: sp 0 +
STACK CFI 678d0 .cfa: x29 80 +
STACK CFI INIT 67fdc 1328 .cfa: sp 0 +
STACK CFI 67fe0 .cfa: sp 288 +
STACK CFI 67ffc .cfa: x29 96 + x19: .cfa -8 + ^ x20: .cfa -16 + ^ x21: .cfa -24 + ^ x22: .cfa -32 + ^ x23: .cfa -40 + ^ x24: .cfa -48 + ^ x25: .cfa -56 + ^ x26: .cfa -64 + ^ x27: .cfa -72 + ^ x28: .cfa -80 + ^ .ra: .cfa -88 + ^ x29: .cfa -96 + ^
STACK CFI 68a9c .cfa: sp 288 +
STACK CFI 68ab8 .cfa: sp 0 +
STACK CFI 68abc .cfa: x29 96 +
STACK CFI 69238 .cfa: sp 288 +
STACK CFI 69254 .cfa: sp 0 +
STACK CFI 69258 .cfa: x29 96 +
STACK CFI INIT 69304 574 .cfa: sp 0 +
STACK CFI 69308 .cfa: sp 96 +
STACK CFI 69320 .cfa: x29 96 + x19: .cfa -8 + ^ x20: .cfa -16 + ^ x21: .cfa -24 + ^ x22: .cfa -32 + ^ x23: .cfa -40 + ^ x24: .cfa -48 + ^ x25: .cfa -56 + ^ x26: .cfa -64 + ^ x27: .cfa -72 + ^ x28: .cfa -80 + ^ .ra: .cfa -88 + ^ x29: .cfa -96 + ^
STACK CFI 69810 .cfa: sp 96 +
STACK CFI 69828 .cfa: sp 0 +
STACK CFI 6982c .cfa: x29 96 +
STACK CFI INIT 69b48 344 .cfa: sp 0 +
STACK CFI 69b4c .cfa: sp 128 +
STACK CFI 69b68 .cfa: x29 96 + x19: .cfa -8 + ^ x20: .cfa -16 + ^ x21: .cfa -24 + ^ x22: .cfa -32 + ^ x23: .cfa -40 + ^ x24: .cfa -48 + ^ x25: .cfa -56 + ^ x26: .cfa -64 + ^ x27: .cfa -72 + ^ x28: .cfa -80 + ^ .ra: .cfa -88 + ^ x29: .cfa -96 + ^
STACK CFI 69de0 .cfa: sp 128 +
STACK CFI 69dfc .cfa: sp 0 +
STACK CFI 69e00 .cfa: x29 96 +
STACK CFI INIT 69fbc 16c .cfa: sp 0 +
STACK CFI 69fc0 .cfa: sp 144 +
STACK CFI 69fd4 .cfa: x29 64 + x19: .cfa -8 + ^ x20: .cfa -16 + ^ x21: .cfa -24 + ^ x22: .cfa -32 + ^ x23: .cfa -40 + ^ x24: .cfa -48 + ^ .ra: .cfa -56 + ^ x29: .cfa -64 + ^
STACK CFI 6a0bc .cfa: sp 144 +
STACK CFI 6a0d0 .cfa: sp 0 +
STACK CFI 6a0d4 .cfa: x29 64 +
STACK CFI INIT 6a250 1d8 .cfa: sp 0 +
STACK CFI 6a254 .cfa: sp 128 +
STACK CFI 6a270 .cfa: x29 96 + x19: .cfa -8 + ^ x20: .cfa -16 + ^ x21: .cfa -24 + ^ x22: .cfa -32 + ^ x23: .cfa -40 + ^ x24: .cfa -48 + ^ x25: .cfa -56 + ^ x26: .cfa -64 + ^ x27: .cfa -72 + ^ x28: .cfa -80 + ^ .ra: .cfa -88 + ^ x29: .cfa -96 + ^
STACK CFI 6a3e0 .cfa: sp 128 +
STACK CFI 6a3fc .cfa: sp 0 +
STACK CFI 6a400 .cfa: x29 96 +
STACK CFI INIT 6a428 2e0 .cfa: sp 0 +
STACK CFI 6a42c .cfa: sp 112 +
STACK CFI 6a444 .cfa: x29 80 + x19: .cfa -8 + ^ x20: .cfa -16 + ^ x21: .cfa -24 + ^ x22: .cfa -32 + ^ x23: .cfa -40 + ^ x24: .cfa -48 + ^ x25: .cfa -64 + ^ .ra: .cfa -72 + ^ x29: .cfa -80 + ^
STACK CFI 6a5f8 .cfa: sp 112 +
STACK CFI 6a610 .cfa: sp 0 +
STACK CFI 6a614 .cfa: x29 80 +
STACK CFI INIT 6a854 448 .cfa: sp 0 +
STACK CFI 6a858 .cfa: sp 208 +
STACK CFI 6a874 .cfa: x29 96 + x19: .cfa -8 + ^ x20: .cfa -16 + ^ x21: .cfa -24 + ^ x22: .cfa -32 + ^ x23: .cfa -40 + ^ x24: .cfa -48 + ^ x25: .cfa -56 + ^ x26: .cfa -64 + ^ x27: .cfa -72 + ^ x28: .cfa -80 + ^ .ra: .cfa -88 + ^ x29: .cfa -96 + ^
STACK CFI 6abc0 .cfa: sp 208 +
STACK CFI 6abdc .cfa: sp 0 +
STACK CFI 6abe0 .cfa: x29 96 +
STACK CFI INIT 6aef0 710 .cfa: sp 0 +
STACK CFI 6aef4 .cfa: sp 96 +
STACK CFI 6af0c .cfa: x29 96 + x19: .cfa -8 + ^ x20: .cfa -16 + ^ x21: .cfa -24 + ^ x22: .cfa -32 + ^ x23: .cfa -40 + ^ x24: .cfa -48 + ^ x25: .cfa -56 + ^ x26: .cfa -64 + ^ x27: .cfa -80 + ^ .ra: .cfa -88 + ^ x29: .cfa -96 + ^
STACK CFI 6b260 .cfa: sp 96 +
STACK CFI 6b278 .cfa: sp 0 +
STACK CFI 6b27c .cfa: x29 96 +
STACK CFI 6b49c .cfa: sp 96 +
STACK CFI 6b4b4 .cfa: sp 0 +
STACK CFI 6b4b8 .cfa: x29 96 +
STACK CFI INIT 6b71c b4 .cfa: sp 0 +
STACK CFI 6b720 .cfa: sp 48 +
STACK CFI 6b72c .cfa: x29 48 + x19: .cfa -8 + ^ x20: .cfa -16 + ^ x21: .cfa -32 + ^ .ra: .cfa -40 + ^ x29: .cfa -48 + ^
STACK CFI 6b790 .cfa: sp 48 +
STACK CFI 6b79c .cfa: sp 0 +
STACK CFI 6b7a0 .cfa: x29 48 +
STACK CFI INIT 6b7d0 a0 .cfa: sp 0 +
STACK CFI 6b7d4 .cfa: sp 48 +
STACK CFI 6b7e0 .cfa: x29 48 + x19: .cfa -8 + ^ x20: .cfa -16 + ^ x21: .cfa -32 + ^ .ra: .cfa -40 + ^ x29: .cfa -48 + ^
STACK CFI 6b828 .cfa: sp 48 +
STACK CFI 6b834 .cfa: sp 0 +
STACK CFI 6b838 .cfa: x29 48 +
STACK CFI 6b84c .cfa: sp 48 +
STACK CFI 6b858 .cfa: sp 0 +
STACK CFI 6b85c .cfa: x29 48 +
STACK CFI INIT 6b974 1964 .cfa: sp 0 +
STACK CFI 6b978 .cfa: sp 128 +
STACK CFI 6b998 .cfa: x29 96 + x19: .cfa -8 + ^ x20: .cfa -16 + ^ x21: .cfa -24 + ^ x22: .cfa -32 + ^ x23: .cfa -40 + ^ x24: .cfa -48 + ^ x25: .cfa -56 + ^ x26: .cfa -64 + ^ x27: .cfa -72 + ^ x28: .cfa -80 + ^ .ra: .cfa -88 + ^ x29: .cfa -96 + ^ v8: .cfa -104 + ^ v9: .cfa -112 + ^ v10: .cfa -128 + ^
STACK CFI 6cde4 .cfa: sp 128 +
STACK CFI 6ce04 .cfa: sp 0 +
STACK CFI 6ce08 .cfa: x29 96 +
STACK CFI INIT 6d300 eb0 .cfa: sp 0 +
STACK CFI 6d304 .cfa: sp 96 +
STACK CFI 6d31c .cfa: x29 96 + x19: .cfa -8 + ^ x20: .cfa -16 + ^ x21: .cfa -24 + ^ x22: .cfa -32 + ^ x23: .cfa -40 + ^ x24: .cfa -48 + ^ x25: .cfa -56 + ^ x26: .cfa -64 + ^ x27: .cfa -72 + ^ x28: .cfa -80 + ^ .ra: .cfa -88 + ^ x29: .cfa -96 + ^
STACK CFI 6e05c .cfa: sp 96 +
STACK CFI 6e074 .cfa: sp 0 +
STACK CFI 6e078 .cfa: x29 96 +
STACK CFI INIT 70da8 b4 .cfa: sp 0 +
STACK CFI 70dac .cfa: sp 48 +
STACK CFI 70db8 .cfa: x29 48 + x19: .cfa -8 + ^ x20: .cfa -16 + ^ x21: .cfa -32 + ^ .ra: .cfa -40 + ^ x29: .cfa -48 + ^
STACK CFI 70e1c .cfa: sp 48 +
STACK CFI 70e28 .cfa: sp 0 +
STACK CFI 70e2c .cfa: x29 48 +
STACK CFI INIT 70e5c a0 .cfa: sp 0 +
STACK CFI 70e60 .cfa: sp 48 +
STACK CFI 70e6c .cfa: x29 48 + x19: .cfa -8 + ^ x20: .cfa -16 + ^ x21: .cfa -32 + ^ .ra: .cfa -40 + ^ x29: .cfa -48 + ^
STACK CFI 70eb4 .cfa: sp 48 +
STACK CFI 70ec0 .cfa: sp 0 +
STACK CFI 70ec4 .cfa: x29 48 +
STACK CFI 70ed8 .cfa: sp 48 +
STACK CFI 70ee4 .cfa: sp 0 +
STACK CFI 70ee8 .cfa: x29 48 +
STACK CFI INIT 71000 19f8 .cfa: sp 0 +
STACK CFI 71004 .cfa: sp 480 +
STACK CFI 71024 .cfa: x29 96 + x19: .cfa -8 + ^ x20: .cfa -16 + ^ x21: .cfa -24 + ^ x22: .cfa -32 + ^ x23: .cfa -40 + ^ x24: .cfa -48 + ^ x25: .cfa -56 + ^ x26: .cfa -64 + ^ x27: .cfa -72 + ^ x28: .cfa -80 + ^ .ra: .cfa -88 + ^ x29: .cfa -96 + ^ v8: .cfa -112 + ^
STACK CFI 723c8 .cfa: sp 480 +
STACK CFI 723e8 .cfa: sp 0 +
STACK CFI 723ec .cfa: x29 96 +
STACK CFI INIT 72a20 1c8 .cfa: sp 0 +
STACK CFI 72a24 .cfa: sp 160 +
STACK CFI 72a3c .cfa: x29 80 + x19: .cfa -8 + ^ x20: .cfa -16 + ^ x21: .cfa -24 + ^ x22: .cfa -32 + ^ x23: .cfa -40 + ^ x24: .cfa -48 + ^ x25: .cfa -64 + ^ .ra: .cfa -72 + ^ x29: .cfa -80 + ^
STACK CFI 72b88 .cfa: sp 160 +
STACK CFI 72ba0 .cfa: sp 0 +
STACK CFI 72ba4 .cfa: x29 80 +
STACK CFI INIT 72d04 b4 .cfa: sp 0 +
STACK CFI 72d08 .cfa: sp 48 +
STACK CFI 72d14 .cfa: x29 48 + x19: .cfa -8 + ^ x20: .cfa -16 + ^ x21: .cfa -32 + ^ .ra: .cfa -40 + ^ x29: .cfa -48 + ^
STACK CFI 72d78 .cfa: sp 48 +
STACK CFI 72d84 .cfa: sp 0 +
STACK CFI 72d88 .cfa: x29 48 +
STACK CFI INIT 72db8 a0 .cfa: sp 0 +
STACK CFI 72dbc .cfa: sp 48 +
STACK CFI 72dc8 .cfa: x29 48 + x19: .cfa -8 + ^ x20: .cfa -16 + ^ x21: .cfa -32 + ^ .ra: .cfa -40 + ^ x29: .cfa -48 + ^
STACK CFI 72e10 .cfa: sp 48 +
STACK CFI 72e1c .cfa: sp 0 +
STACK CFI 72e20 .cfa: x29 48 +
STACK CFI 72e34 .cfa: sp 48 +
STACK CFI 72e40 .cfa: sp 0 +
STACK CFI 72e44 .cfa: x29 48 +
STACK CFI INIT 72f5c 172c .cfa: sp 0 +
STACK CFI 72f60 .cfa: sp 112 +
STACK CFI 72f7c .cfa: x29 96 + x19: .cfa -8 + ^ x20: .cfa -16 + ^ x21: .cfa -24 + ^ x22: .cfa -32 + ^ x23: .cfa -40 + ^ x24: .cfa -48 + ^ x25: .cfa -56 + ^ x26: .cfa -64 + ^ x27: .cfa -72 + ^ x28: .cfa -80 + ^ .ra: .cfa -88 + ^ x29: .cfa -96 + ^ v8: .cfa -112 + ^
STACK CFI 74228 .cfa: sp 112 +
STACK CFI 74244 .cfa: sp 0 +
STACK CFI 74248 .cfa: x29 96 +
STACK CFI INIT 748d8 bc .cfa: sp 0 +
STACK CFI 748dc .cfa: sp 48 +
STACK CFI 748e8 .cfa: x29 48 + x19: .cfa -8 + ^ x20: .cfa -16 + ^ x21: .cfa -32 + ^ .ra: .cfa -40 + ^ x29: .cfa -48 + ^
STACK CFI 74934 .cfa: sp 48 +
STACK CFI 74940 .cfa: sp 0 +
STACK CFI 74944 .cfa: x29 48 +
STACK CFI 74954 .cfa: sp 48 +
STACK CFI 74960 .cfa: sp 0 +
STACK CFI 74964 .cfa: x29 48 +
STACK CFI INIT 74994 90 .cfa: sp 0 +
STACK CFI 74998 .cfa: sp 48 +
STACK CFI 749a4 .cfa: x29 48 + x19: .cfa -8 + ^ x20: .cfa -16 + ^ x21: .cfa -32 + ^ .ra: .cfa -40 + ^ x29: .cfa -48 + ^
STACK CFI 749e4 .cfa: sp 48 +
STACK CFI 749f0 .cfa: sp 0 +
STACK CFI 749f4 .cfa: x29 48 +
STACK CFI 74a00 .cfa: sp 48 +
STACK CFI 74a0c .cfa: sp 0 +
STACK CFI 74a10 .cfa: x29 48 +
STACK CFI INIT 74b28 ddc .cfa: sp 0 +
STACK CFI 74b2c .cfa: sp 448 +
STACK CFI 74b48 .cfa: x29 96 + x19: .cfa -8 + ^ x20: .cfa -16 + ^ x21: .cfa -24 + ^ x22: .cfa -32 + ^ x23: .cfa -40 + ^ x24: .cfa -48 + ^ x25: .cfa -56 + ^ x26: .cfa -64 + ^ x27: .cfa -72 + ^ x28: .cfa -80 + ^ .ra: .cfa -88 + ^ x29: .cfa -96 + ^
STACK CFI 754e8 .cfa: sp 448 +
STACK CFI 75504 .cfa: sp 0 +
STACK CFI 75508 .cfa: x29 96 +
STACK CFI INIT 7592c 74 .cfa: sp 0 +
STACK CFI 75930 .cfa: sp 48 +
STACK CFI 7593c .cfa: x29 32 + x19: .cfa -8 + ^ x20: .cfa -16 + ^ .ra: .cfa -24 + ^ x29: .cfa -32 + ^
STACK CFI 75988 .cfa: sp 48 +
STACK CFI 75994 .cfa: sp 0 +
STACK CFI 75998 .cfa: x29 32 +
STACK CFI INIT 759a0 74 .cfa: sp 0 +
STACK CFI 759a4 .cfa: sp 48 +
STACK CFI 759b0 .cfa: x29 32 + x19: .cfa -8 + ^ x20: .cfa -16 + ^ .ra: .cfa -24 + ^ x29: .cfa -32 + ^
STACK CFI 759fc .cfa: sp 48 +
STACK CFI 75a08 .cfa: sp 0 +
STACK CFI 75a0c .cfa: x29 32 +
STACK CFI INIT 75b4c bc .cfa: sp 0 +
STACK CFI 75b50 .cfa: sp 48 +
STACK CFI 75b5c .cfa: x29 48 + x19: .cfa -8 + ^ x20: .cfa -16 + ^ x21: .cfa -32 + ^ .ra: .cfa -40 + ^ x29: .cfa -48 + ^
STACK CFI 75ba8 .cfa: sp 48 +
STACK CFI 75bb4 .cfa: sp 0 +
STACK CFI 75bb8 .cfa: x29 48 +
STACK CFI 75bc8 .cfa: sp 48 +
STACK CFI 75bd4 .cfa: sp 0 +
STACK CFI 75bd8 .cfa: x29 48 +
STACK CFI INIT 75c08 90 .cfa: sp 0 +
STACK CFI 75c0c .cfa: sp 48 +
STACK CFI 75c18 .cfa: x29 48 + x19: .cfa -8 + ^ x20: .cfa -16 + ^ x21: .cfa -32 + ^ .ra: .cfa -40 + ^ x29: .cfa -48 + ^
STACK CFI 75c58 .cfa: sp 48 +
STACK CFI 75c64 .cfa: sp 0 +
STACK CFI 75c68 .cfa: x29 48 +
STACK CFI 75c74 .cfa: sp 48 +
STACK CFI 75c80 .cfa: sp 0 +
STACK CFI 75c84 .cfa: x29 48 +
STACK CFI INIT 75d9c fb4 .cfa: sp 0 +
STACK CFI 75da0 .cfa: sp 400 +
STACK CFI 75dbc .cfa: x29 96 + x19: .cfa -8 + ^ x20: .cfa -16 + ^ x21: .cfa -24 + ^ x22: .cfa -32 + ^ x23: .cfa -40 + ^ x24: .cfa -48 + ^ x25: .cfa -56 + ^ x26: .cfa -64 + ^ x27: .cfa -72 + ^ x28: .cfa -80 + ^ .ra: .cfa -88 + ^ x29: .cfa -96 + ^
STACK CFI 76ad4 .cfa: sp 400 +
STACK CFI 76af0 .cfa: sp 0 +
STACK CFI 76af4 .cfa: x29 96 +
STACK CFI INIT 76dd8 b8 .cfa: sp 0 +
STACK CFI 76ddc .cfa: sp 64 +
STACK CFI 76de8 .cfa: x29 32 + x19: .cfa -8 + ^ x20: .cfa -16 + ^ .ra: .cfa -24 + ^ x29: .cfa -32 + ^
STACK CFI 76e50 .cfa: sp 64 +
STACK CFI 76e5c .cfa: sp 0 +
STACK CFI 76e60 .cfa: x29 32 +
STACK CFI INIT 76eb8 1dc .cfa: sp 0 +
STACK CFI 76ebc .cfa: sp 96 +
STACK CFI 76ed0 .cfa: x29 64 + x19: .cfa -8 + ^ x20: .cfa -16 + ^ x21: .cfa -24 + ^ x22: .cfa -32 + ^ x23: .cfa -48 + ^ .ra: .cfa -56 + ^ x29: .cfa -64 + ^
STACK CFI 76ff8 .cfa: sp 96 +
STACK CFI 7700c .cfa: sp 0 +
STACK CFI 77010 .cfa: x29 64 +
STACK CFI INIT 77158 134 .cfa: sp 0 +
STACK CFI 7715c .cfa: sp 80 +
STACK CFI 77168 .cfa: x29 32 + x19: .cfa -8 + ^ x20: .cfa -16 + ^ .ra: .cfa -24 + ^ x29: .cfa -32 + ^
STACK CFI 77198 .cfa: sp 80 +
STACK CFI 771a4 .cfa: sp 0 +
STACK CFI 771a8 .cfa: x29 32 +
STACK CFI INIT 7728c 78 .cfa: sp 0 +
STACK CFI 77290 .cfa: sp 32 +
STACK CFI 77298 .cfa: x29 32 + x19: .cfa -8 + ^ x20: .cfa -16 + ^ .ra: .cfa -24 + ^ x29: .cfa -32 + ^
STACK CFI 772a4 .cfa: sp 32 +
STACK CFI 772ac .cfa: sp 0 +
STACK CFI 772b0 .cfa: x29 32 +
STACK CFI INIT 77304 74 .cfa: sp 0 +
STACK CFI 77308 .cfa: sp 48 +
STACK CFI 77314 .cfa: x29 32 + x19: .cfa -8 + ^ x20: .cfa -16 + ^ .ra: .cfa -24 + ^ x29: .cfa -32 + ^
STACK CFI 77360 .cfa: sp 48 +
STACK CFI 7736c .cfa: sp 0 +
STACK CFI 77370 .cfa: x29 32 +
STACK CFI INIT 773dc 224 .cfa: sp 0 +
STACK CFI 773e0 .cfa: sp 128 +
STACK CFI 773f0 .cfa: x29 48 + x19: .cfa -8 + ^ x20: .cfa -16 + ^ x21: .cfa -32 + ^ .ra: .cfa -40 + ^ x29: .cfa -48 + ^
STACK CFI 774a0 .cfa: sp 128 +
STACK CFI 774b0 .cfa: sp 0 +
STACK CFI 774b4 .cfa: x29 48 +
STACK CFI INIT 77648 284 .cfa: sp 0 +
STACK CFI 7764c .cfa: sp 128 +
STACK CFI 7765c .cfa: x29 48 + x19: .cfa -8 + ^ x20: .cfa -16 + ^ x21: .cfa -32 + ^ .ra: .cfa -40 + ^ x29: .cfa -48 + ^
STACK CFI 77774 .cfa: sp 128 +
STACK CFI 77784 .cfa: sp 0 +
STACK CFI 77788 .cfa: x29 48 +
STACK CFI INIT 77920 300 .cfa: sp 0 +
STACK CFI 77924 .cfa: sp 144 +
STACK CFI 77938 .cfa: x29 64 + x19: .cfa -8 + ^ x20: .cfa -16 + ^ x21: .cfa -24 + ^ x22: .cfa -32 + ^ x23: .cfa -48 + ^ .ra: .cfa -56 + ^ x29: .cfa -64 + ^
STACK CFI 77acc .cfa: sp 144 +
STACK CFI 77ae0 .cfa: sp 0 +
STACK CFI 77ae4 .cfa: x29 64 +
STACK CFI INIT 77c74 264 .cfa: sp 0 +
STACK CFI 77c78 .cfa: sp 128 +
STACK CFI 77c88 .cfa: x29 48 + x19: .cfa -8 + ^ x20: .cfa -16 + ^ x21: .cfa -32 + ^ .ra: .cfa -40 + ^ x29: .cfa -48 + ^
STACK CFI 77d80 .cfa: sp 128 +
STACK CFI 77d90 .cfa: sp 0 +
STACK CFI 77d94 .cfa: x29 48 +
STACK CFI INIT 77f2c 270 .cfa: sp 0 +
STACK CFI 77f30 .cfa: sp 144 +
STACK CFI 77f44 .cfa: x29 64 + x19: .cfa -8 + ^ x20: .cfa -16 + ^ x21: .cfa -24 + ^ x22: .cfa -32 + ^ x23: .cfa -48 + ^ .ra: .cfa -56 + ^ x29: .cfa -64 + ^
STACK CFI 78048 .cfa: sp 144 +
STACK CFI 7805c .cfa: sp 0 +
STACK CFI 78060 .cfa: x29 64 +
STACK CFI INIT 781c0 22c .cfa: sp 0 +
STACK CFI 781c4 .cfa: sp 128 +
STACK CFI 781d4 .cfa: x29 48 + x19: .cfa -8 + ^ x20: .cfa -16 + ^ x21: .cfa -32 + ^ .ra: .cfa -40 + ^ x29: .cfa -48 + ^
STACK CFI 7828c .cfa: sp 128 +
STACK CFI 7829c .cfa: sp 0 +
STACK CFI 782a0 .cfa: x29 48 +
STACK CFI INIT 783ec 224 .cfa: sp 0 +
STACK CFI 783f0 .cfa: sp 128 +
STACK CFI 78400 .cfa: x29 48 + x19: .cfa -8 + ^ x20: .cfa -16 + ^ x21: .cfa -32 + ^ .ra: .cfa -40 + ^ x29: .cfa -48 + ^
STACK CFI 784b0 .cfa: sp 128 +
STACK CFI 784c0 .cfa: sp 0 +
STACK CFI 784c4 .cfa: x29 48 +
STACK CFI INIT 78610 268 .cfa: sp 0 +
STACK CFI 78614 .cfa: sp 144 +
STACK CFI 78628 .cfa: x29 64 + x19: .cfa -8 + ^ x20: .cfa -16 + ^ x21: .cfa -24 + ^ x22: .cfa -32 + ^ x23: .cfa -48 + ^ .ra: .cfa -56 + ^ x29: .cfa -64 + ^
STACK CFI 78724 .cfa: sp 144 +
STACK CFI 78738 .cfa: sp 0 +
STACK CFI 7873c .cfa: x29 64 +
STACK CFI INIT 7889c 26c .cfa: sp 0 +
STACK CFI 788a0 .cfa: sp 128 +
STACK CFI 788b0 .cfa: x29 48 + x19: .cfa -8 + ^ x20: .cfa -16 + ^ x21: .cfa -32 + ^ .ra: .cfa -40 + ^ x29: .cfa -48 + ^
STACK CFI 789a8 .cfa: sp 128 +
STACK CFI 789b8 .cfa: sp 0 +
STACK CFI 789bc .cfa: x29 48 +
STACK CFI INIT 78b08 2b8 .cfa: sp 0 +
STACK CFI 78b0c .cfa: sp 144 +
STACK CFI 78b20 .cfa: x29 64 + x19: .cfa -8 + ^ x20: .cfa -16 + ^ x21: .cfa -24 + ^ x22: .cfa -32 + ^ x23: .cfa -48 + ^ .ra: .cfa -56 + ^ x29: .cfa -64 + ^
STACK CFI 78c6c .cfa: sp 144 +
STACK CFI 78c80 .cfa: sp 0 +
STACK CFI 78c84 .cfa: x29 64 +
STACK CFI INIT 78de4 160 .cfa: sp 0 +
STACK CFI 78de8 .cfa: sp 144 +
STACK CFI 78dfc .cfa: x29 64 + x19: .cfa -8 + ^ x20: .cfa -16 + ^ x21: .cfa -24 + ^ x22: .cfa -32 + ^ x23: .cfa -48 + ^ .ra: .cfa -56 + ^ x29: .cfa -64 + ^
STACK CFI 78e4c .cfa: sp 144 +
STACK CFI 78e60 .cfa: sp 0 +
STACK CFI 78e64 .cfa: x29 64 +
STACK CFI INIT 78f44 100 .cfa: sp 0 +
STACK CFI 78f48 .cfa: sp 64 +
STACK CFI 78f58 .cfa: x29 48 + x19: .cfa -8 + ^ x20: .cfa -16 + ^ x21: .cfa -24 + ^ x22: .cfa -32 + ^ .ra: .cfa -40 + ^ x29: .cfa -48 + ^
STACK CFI 78ffc .cfa: sp 64 +
STACK CFI 7900c .cfa: sp 0 +
STACK CFI 79010 .cfa: x29 48 +
STACK CFI INIT 79044 224 .cfa: sp 0 +
STACK CFI 79048 .cfa: sp 128 +
STACK CFI 79058 .cfa: x29 48 + x19: .cfa -8 + ^ x20: .cfa -16 + ^ x21: .cfa -32 + ^ .ra: .cfa -40 + ^ x29: .cfa -48 + ^
STACK CFI 79108 .cfa: sp 128 +
STACK CFI 79118 .cfa: sp 0 +
STACK CFI 7911c .cfa: x29 48 +
STACK CFI INIT 79268 268 .cfa: sp 0 +
STACK CFI 7926c .cfa: sp 144 +
STACK CFI 79280 .cfa: x29 64 + x19: .cfa -8 + ^ x20: .cfa -16 + ^ x21: .cfa -24 + ^ x22: .cfa -32 + ^ x23: .cfa -48 + ^ .ra: .cfa -56 + ^ x29: .cfa -64 + ^
STACK CFI 7937c .cfa: sp 144 +
STACK CFI 79390 .cfa: sp 0 +
STACK CFI 79394 .cfa: x29 64 +
STACK CFI INIT 794f4 150 .cfa: sp 0 +
STACK CFI 794f8 .cfa: sp 128 +
STACK CFI 79508 .cfa: x29 48 + x19: .cfa -8 + ^ x20: .cfa -16 + ^ x21: .cfa -24 + ^ x22: .cfa -32 + ^ .ra: .cfa -40 + ^ x29: .cfa -48 + ^
STACK CFI 79550 .cfa: sp 128 +
STACK CFI 79560 .cfa: sp 0 +
STACK CFI 79564 .cfa: x29 48 +
STACK CFI INIT 79644 a4 .cfa: sp 0 +
STACK CFI 79648 .cfa: sp 64 +
STACK CFI 79658 .cfa: x29 48 + x19: .cfa -8 + ^ x20: .cfa -16 + ^ x21: .cfa -32 + ^ .ra: .cfa -40 + ^ x29: .cfa -48 + ^
STACK CFI 796bc .cfa: sp 64 +
STACK CFI 796cc .cfa: sp 0 +
STACK CFI 796d0 .cfa: x29 48 +
STACK CFI INIT 796e8 150 .cfa: sp 0 +
STACK CFI 796ec .cfa: sp 128 +
STACK CFI 796fc .cfa: x29 48 + x19: .cfa -8 + ^ x20: .cfa -16 + ^ x21: .cfa -24 + ^ x22: .cfa -32 + ^ .ra: .cfa -40 + ^ x29: .cfa -48 + ^
STACK CFI 79744 .cfa: sp 128 +
STACK CFI 79754 .cfa: sp 0 +
STACK CFI 79758 .cfa: x29 48 +
STACK CFI INIT 79838 a4 .cfa: sp 0 +
STACK CFI 7983c .cfa: sp 64 +
STACK CFI 7984c .cfa: x29 48 + x19: .cfa -8 + ^ x20: .cfa -16 + ^ x21: .cfa -32 + ^ .ra: .cfa -40 + ^ x29: .cfa -48 + ^
STACK CFI 798b0 .cfa: sp 64 +
STACK CFI 798c0 .cfa: sp 0 +
STACK CFI 798c4 .cfa: x29 48 +
STACK CFI INIT 799cc 178 .cfa: sp 0 +
STACK CFI 799d0 .cfa: sp 128 +
STACK CFI 799e0 .cfa: x29 48 + x19: .cfa -8 + ^ x20: .cfa -16 + ^ x21: .cfa -24 + ^ x22: .cfa -32 + ^ .ra: .cfa -40 + ^ x29: .cfa -48 + ^
STACK CFI 79a3c .cfa: sp 128 +
STACK CFI 79a4c .cfa: sp 0 +
STACK CFI 79a50 .cfa: x29 48 +
STACK CFI INIT 79b44 a0 .cfa: sp 0 +
STACK CFI 79b48 .cfa: sp 48 +
STACK CFI 79b54 .cfa: x29 48 + x19: .cfa -8 + ^ x20: .cfa -16 + ^ x21: .cfa -32 + ^ .ra: .cfa -40 + ^ x29: .cfa -48 + ^
STACK CFI 79bbc .cfa: sp 48 +
STACK CFI 79bc8 .cfa: sp 0 +
STACK CFI 79bcc .cfa: x29 48 +
STACK CFI INIT 79cc4 200 .cfa: sp 0 +
STACK CFI 79cc8 .cfa: sp 208 +
STACK CFI 79ce8 .cfa: x29 96 + x19: .cfa -8 + ^ x20: .cfa -16 + ^ x21: .cfa -24 + ^ x22: .cfa -32 + ^ x23: .cfa -40 + ^ x24: .cfa -48 + ^ x25: .cfa -56 + ^ x26: .cfa -64 + ^ x27: .cfa -72 + ^ x28: .cfa -80 + ^ .ra: .cfa -88 + ^ x29: .cfa -96 + ^ v8: .cfa -112 + ^
STACK CFI 79da4 .cfa: sp 208 +
STACK CFI 79dc4 .cfa: sp 0 +
STACK CFI 79dc8 .cfa: x29 96 +
STACK CFI INIT 79ec4 6cc .cfa: sp 0 +
STACK CFI 79ec8 .cfa: sp 96 +
STACK CFI 79ee0 .cfa: x29 80 + x19: .cfa -8 + ^ x20: .cfa -16 + ^ x21: .cfa -24 + ^ x22: .cfa -32 + ^ x23: .cfa -40 + ^ x24: .cfa -48 + ^ x25: .cfa -64 + ^ .ra: .cfa -72 + ^ x29: .cfa -80 + ^
STACK CFI 7a4cc .cfa: sp 96 +
STACK CFI 7a4e4 .cfa: sp 0 +
STACK CFI 7a4e8 .cfa: x29 80 +
STACK CFI INIT 7a594 80 .cfa: sp 0 +
STACK CFI 7a598 .cfa: sp 32 +
STACK CFI 7a5a0 .cfa: x29 32 + x19: .cfa -8 + ^ x20: .cfa -16 + ^ .ra: .cfa -24 + ^ x29: .cfa -32 + ^
STACK CFI 7a5c4 .cfa: sp 32 +
STACK CFI 7a5cc .cfa: sp 0 +
STACK CFI 7a5d0 .cfa: x29 32 +
STACK CFI INIT 7a614 1c8 .cfa: sp 0 +
STACK CFI 7a618 .cfa: sp 192 +
STACK CFI 7a634 .cfa: x29 64 + x19: .cfa -8 + ^ x20: .cfa -16 + ^ x21: .cfa -24 + ^ x22: .cfa -32 + ^ x23: .cfa -40 + ^ x24: .cfa -48 + ^ .ra: .cfa -56 + ^ x29: .cfa -64 + ^ v8: .cfa -72 + ^ v9: .cfa -80 + ^ v10: .cfa -96 + ^
STACK CFI 7a6c8 .cfa: sp 192 +
STACK CFI 7a6e4 .cfa: sp 0 +
STACK CFI 7a6e8 .cfa: x29 64 +
STACK CFI INIT 7a7dc 494 .cfa: sp 0 +
STACK CFI 7a7e0 .cfa: sp 112 +
STACK CFI 7a7f8 .cfa: x29 80 + x19: .cfa -8 + ^ x20: .cfa -16 + ^ x21: .cfa -24 + ^ x22: .cfa -32 + ^ x23: .cfa -40 + ^ x24: .cfa -48 + ^ x25: .cfa -64 + ^ .ra: .cfa -72 + ^ x29: .cfa -80 + ^
STACK CFI 7abdc .cfa: sp 112 +
STACK CFI 7abf4 .cfa: sp 0 +
STACK CFI 7abf8 .cfa: x29 80 +
STACK CFI INIT 7ac70 178 .cfa: sp 0 +
STACK CFI 7ac74 .cfa: sp 128 +
STACK CFI 7ac84 .cfa: x29 48 + x19: .cfa -8 + ^ x20: .cfa -16 + ^ x21: .cfa -24 + ^ x22: .cfa -32 + ^ .ra: .cfa -40 + ^ x29: .cfa -48 + ^
STACK CFI 7ace0 .cfa: sp 128 +
STACK CFI 7acf0 .cfa: sp 0 +
STACK CFI 7acf4 .cfa: x29 48 +
STACK CFI INIT 7ade8 a0 .cfa: sp 0 +
STACK CFI 7adec .cfa: sp 48 +
STACK CFI 7adf8 .cfa: x29 48 + x19: .cfa -8 + ^ x20: .cfa -16 + ^ x21: .cfa -32 + ^ .ra: .cfa -40 + ^ x29: .cfa -48 + ^
STACK CFI 7ae60 .cfa: sp 48 +
STACK CFI 7ae6c .cfa: sp 0 +
STACK CFI 7ae70 .cfa: x29 48 +
STACK CFI INIT 7ae88 2e4 .cfa: sp 0 +
STACK CFI 7ae8c .cfa: sp 144 +
STACK CFI 7aea0 .cfa: x29 64 + x19: .cfa -8 + ^ x20: .cfa -16 + ^ x21: .cfa -24 + ^ x22: .cfa -32 + ^ x23: .cfa -48 + ^ .ra: .cfa -56 + ^ x29: .cfa -64 + ^
STACK CFI 7b018 .cfa: sp 144 +
STACK CFI 7b02c .cfa: sp 0 +
STACK CFI 7b030 .cfa: x29 64 +
STACK CFI INIT 7b16c 2f0 .cfa: sp 0 +
STACK CFI 7b170 .cfa: sp 144 +
STACK CFI 7b184 .cfa: x29 64 + x19: .cfa -8 + ^ x20: .cfa -16 + ^ x21: .cfa -24 + ^ x22: .cfa -32 + ^ x23: .cfa -48 + ^ .ra: .cfa -56 + ^ x29: .cfa -64 + ^
STACK CFI 7b308 .cfa: sp 144 +
STACK CFI 7b31c .cfa: sp 0 +
STACK CFI 7b320 .cfa: x29 64 +
STACK CFI INIT 7b45c 2a0 .cfa: sp 0 +
STACK CFI 7b460 .cfa: sp 144 +
STACK CFI 7b474 .cfa: x29 64 + x19: .cfa -8 + ^ x20: .cfa -16 + ^ x21: .cfa -24 + ^ x22: .cfa -32 + ^ x23: .cfa -48 + ^ .ra: .cfa -56 + ^ x29: .cfa -64 + ^
STACK CFI 7b5a8 .cfa: sp 144 +
STACK CFI 7b5bc .cfa: sp 0 +
STACK CFI 7b5c0 .cfa: x29 64 +
STACK CFI INIT 7b6fc 2e4 .cfa: sp 0 +
STACK CFI 7b700 .cfa: sp 144 +
STACK CFI 7b714 .cfa: x29 64 + x19: .cfa -8 + ^ x20: .cfa -16 + ^ x21: .cfa -24 + ^ x22: .cfa -32 + ^ x23: .cfa -48 + ^ .ra: .cfa -56 + ^ x29: .cfa -64 + ^
STACK CFI 7b88c .cfa: sp 144 +
STACK CFI 7b8a0 .cfa: sp 0 +
STACK CFI 7b8a4 .cfa: x29 64 +
STACK CFI INIT 7b9e0 4f4 .cfa: sp 0 +
STACK CFI 7b9e4 .cfa: sp 144 +
STACK CFI 7b9f8 .cfa: x29 64 + x19: .cfa -8 + ^ x20: .cfa -16 + ^ x21: .cfa -24 + ^ x22: .cfa -32 + ^ x23: .cfa -48 + ^ .ra: .cfa -56 + ^ x29: .cfa -64 + ^
STACK CFI 7bd2c .cfa: sp 144 +
STACK CFI 7bd40 .cfa: sp 0 +
STACK CFI 7bd44 .cfa: x29 64 +
STACK CFI INIT 7bed4 154 .cfa: sp 0 +
STACK CFI 7bed8 .cfa: sp 384 +
STACK CFI 7beec .cfa: x29 64 + x19: .cfa -8 + ^ x20: .cfa -16 + ^ x21: .cfa -24 + ^ x22: .cfa -32 + ^ x23: .cfa -40 + ^ x28: .cfa -48 + ^ .ra: .cfa -56 + ^ x29: .cfa -64 + ^
STACK CFI 7bfd0 .cfa: sp 384 +
STACK CFI 7bfe4 .cfa: sp 0 +
STACK CFI 7bfe8 .cfa: x29 64 +
STACK CFI INIT 7c040 50c .cfa: sp 0 +
STACK CFI 7c044 .cfa: sp 64 +
STACK CFI 7c054 .cfa: x29 64 + x19: .cfa -8 + ^ x20: .cfa -16 + ^ x21: .cfa -24 + ^ x22: .cfa -32 + ^ x23: .cfa -40 + ^ x24: .cfa -48 + ^ .ra: .cfa -56 + ^ x29: .cfa -64 + ^
STACK CFI 7c174 .cfa: sp 64 +
STACK CFI 7c184 .cfa: sp 0 +
STACK CFI 7c188 .cfa: x29 64 +
STACK CFI 7c520 .cfa: sp 64 +
STACK CFI 7c530 .cfa: sp 0 +
STACK CFI 7c534 .cfa: x29 64 +
STACK CFI INIT 7c87c 294 .cfa: sp 0 +
STACK CFI 7c880 .cfa: sp 240 +
STACK CFI 7c898 .cfa: x29 80 + x19: .cfa -8 + ^ x20: .cfa -16 + ^ x21: .cfa -24 + ^ x22: .cfa -32 + ^ x23: .cfa -40 + ^ x24: .cfa -48 + ^ x25: .cfa -64 + ^ .ra: .cfa -72 + ^ x29: .cfa -80 + ^
STACK CFI 7ca38 .cfa: sp 240 +
STACK CFI 7ca50 .cfa: sp 0 +
STACK CFI 7ca54 .cfa: x29 80 +
STACK CFI INIT 7cb8c 50 .cfa: sp 0 +
STACK CFI 7cb90 .cfa: sp 32 +
STACK CFI 7cb98 .cfa: x29 32 + x19: .cfa -8 + ^ x20: .cfa -16 + ^ .ra: .cfa -24 + ^ x29: .cfa -32 + ^
STACK CFI INIT 7cc08 7c0 .cfa: sp 0 +
STACK CFI 7cc0c .cfa: sp 320 +
STACK CFI 7cc28 .cfa: x29 96 + x19: .cfa -8 + ^ x20: .cfa -16 + ^ x21: .cfa -24 + ^ x22: .cfa -32 + ^ x23: .cfa -40 + ^ x24: .cfa -48 + ^ x25: .cfa -56 + ^ x26: .cfa -64 + ^ x27: .cfa -72 + ^ x28: .cfa -80 + ^ .ra: .cfa -88 + ^ x29: .cfa -96 + ^
STACK CFI 7d278 .cfa: sp 320 +
STACK CFI 7d294 .cfa: sp 0 +
STACK CFI 7d298 .cfa: x29 96 +
STACK CFI INIT 7d42c 14c .cfa: sp 0 +
STACK CFI 7d430 .cfa: sp 80 +
STACK CFI 7d444 .cfa: x29 80 + x19: .cfa -8 + ^ x20: .cfa -16 + ^ x21: .cfa -24 + ^ x22: .cfa -32 + ^ x23: .cfa -40 + ^ x24: .cfa -48 + ^ x28: .cfa -64 + ^ .ra: .cfa -72 + ^ x29: .cfa -80 + ^
STACK CFI 7d4d8 .cfa: sp 80 +
STACK CFI 7d4ec .cfa: sp 0 +
STACK CFI 7d4f0 .cfa: x29 80 +
STACK CFI INIT 810ac c84 .cfa: sp 0 +
STACK CFI 810b0 .cfa: sp 96 +
STACK CFI 810c8 .cfa: x29 96 + x19: .cfa -8 + ^ x20: .cfa -16 + ^ x21: .cfa -24 + ^ x22: .cfa -32 + ^ x23: .cfa -40 + ^ x24: .cfa -48 + ^ x25: .cfa -56 + ^ x26: .cfa -64 + ^ x27: .cfa -72 + ^ x28: .cfa -80 + ^ .ra: .cfa -88 + ^ x29: .cfa -96 + ^
STACK CFI 81b50 .cfa: sp 96 +
STACK CFI 81b68 .cfa: sp 0 +
STACK CFI 81b6c .cfa: x29 96 +
STACK CFI INIT 81e84 268 .cfa: sp 0 +
STACK CFI 81e88 .cfa: sp 128 +
STACK CFI 81e98 .cfa: x29 48 + x19: .cfa -8 + ^ x20: .cfa -16 + ^ x21: .cfa -24 + ^ x22: .cfa -32 + ^ .ra: .cfa -40 + ^ x29: .cfa -48 + ^
STACK CFI 82038 .cfa: sp 128 +
STACK CFI 82048 .cfa: sp 0 +
STACK CFI 8204c .cfa: x29 48 +
STACK CFI INIT 8247c 3b8 .cfa: sp 0 +
STACK CFI 82480 .cfa: sp 96 +
STACK CFI 82498 .cfa: x29 96 + x19: .cfa -8 + ^ x20: .cfa -16 + ^ x21: .cfa -24 + ^ x22: .cfa -32 + ^ x23: .cfa -40 + ^ x24: .cfa -48 + ^ x25: .cfa -56 + ^ x26: .cfa -64 + ^ x27: .cfa -72 + ^ x28: .cfa -80 + ^ .ra: .cfa -88 + ^ x29: .cfa -96 + ^
STACK CFI 827d4 .cfa: sp 96 +
STACK CFI 827ec .cfa: sp 0 +
STACK CFI 827f0 .cfa: x29 96 +
STACK CFI INIT 828d4 cbc .cfa: sp 0 +
STACK CFI 828d8 .cfa: sp 96 +
STACK CFI 828f0 .cfa: x29 96 + x19: .cfa -8 + ^ x20: .cfa -16 + ^ x21: .cfa -24 + ^ x22: .cfa -32 + ^ x23: .cfa -40 + ^ x24: .cfa -48 + ^ x25: .cfa -56 + ^ x26: .cfa -64 + ^ x27: .cfa -72 + ^ x28: .cfa -80 + ^ .ra: .cfa -88 + ^ x29: .cfa -96 + ^
STACK CFI 833a0 .cfa: sp 96 +
STACK CFI 833b8 .cfa: sp 0 +
STACK CFI 833bc .cfa: x29 96 +
STACK CFI INIT 83878 ae0 .cfa: sp 0 +
STACK CFI 8387c .cfa: sp 96 +
STACK CFI 83894 .cfa: x29 96 + x19: .cfa -8 + ^ x20: .cfa -16 + ^ x21: .cfa -24 + ^ x22: .cfa -32 + ^ x23: .cfa -40 + ^ x24: .cfa -48 + ^ x25: .cfa -56 + ^ x26: .cfa -64 + ^ x27: .cfa -72 + ^ x28: .cfa -80 + ^ .ra: .cfa -88 + ^ x29: .cfa -96 + ^
STACK CFI 842cc .cfa: sp 96 +
STACK CFI 842e4 .cfa: sp 0 +
STACK CFI 842e8 .cfa: x29 96 +
STACK CFI INIT 8454c 1424 .cfa: sp 0 +
STACK CFI 84550 .cfa: sp 96 +
STACK CFI 84568 .cfa: x29 96 + x19: .cfa -8 + ^ x20: .cfa -16 + ^ x21: .cfa -24 + ^ x22: .cfa -32 + ^ x23: .cfa -40 + ^ x24: .cfa -48 + ^ x25: .cfa -56 + ^ x26: .cfa -64 + ^ x27: .cfa -72 + ^ x28: .cfa -80 + ^ .ra: .cfa -88 + ^ x29: .cfa -96 + ^
STACK CFI 85800 .cfa: sp 96 +
STACK CFI 85818 .cfa: sp 0 +
STACK CFI 8581c .cfa: x29 96 +
STACK CFI INIT 85a94 75c .cfa: sp 0 +
STACK CFI 85a98 .cfa: sp 368 +
STACK CFI 85ab4 .cfa: x29 96 + x19: .cfa -8 + ^ x20: .cfa -16 + ^ x21: .cfa -24 + ^ x22: .cfa -32 + ^ x23: .cfa -40 + ^ x24: .cfa -48 + ^ x25: .cfa -56 + ^ x26: .cfa -64 + ^ x27: .cfa -72 + ^ x28: .cfa -80 + ^ .ra: .cfa -88 + ^ x29: .cfa -96 + ^
STACK CFI 85b68 .cfa: sp 368 +
STACK CFI 85b84 .cfa: sp 0 +
STACK CFI 85b88 .cfa: x29 96 +
STACK CFI 85bdc .cfa: sp 368 +
STACK CFI 85bf8 .cfa: sp 0 +
STACK CFI 85bfc .cfa: x29 96 +
STACK CFI INIT 865b4 edc .cfa: sp 0 +
STACK CFI 865b8 .cfa: sp 96 +
STACK CFI 865d0 .cfa: x29 96 + x19: .cfa -8 + ^ x20: .cfa -16 + ^ x21: .cfa -24 + ^ x22: .cfa -32 + ^ x23: .cfa -40 + ^ x24: .cfa -48 + ^ x25: .cfa -56 + ^ x26: .cfa -64 + ^ x27: .cfa -72 + ^ x28: .cfa -80 + ^ .ra: .cfa -88 + ^ x29: .cfa -96 + ^
STACK CFI 87288 .cfa: sp 96 +
STACK CFI 872a0 .cfa: sp 0 +
STACK CFI 872a4 .cfa: x29 96 +
STACK CFI INIT 87804 1b34 .cfa: sp 0 +
STACK CFI 87808 .cfa: sp 112 +
STACK CFI 87824 .cfa: x29 96 + x19: .cfa -8 + ^ x20: .cfa -16 + ^ x21: .cfa -24 + ^ x22: .cfa -32 + ^ x23: .cfa -40 + ^ x24: .cfa -48 + ^ x25: .cfa -56 + ^ x26: .cfa -64 + ^ x27: .cfa -72 + ^ x28: .cfa -80 + ^ .ra: .cfa -88 + ^ x29: .cfa -96 + ^ v8: .cfa -112 + ^
STACK CFI 87c04 .cfa: sp 112 +
STACK CFI 87c20 .cfa: sp 0 +
STACK CFI 87c24 .cfa: x29 96 +
STACK CFI INIT 8b740 a4c .cfa: sp 0 +
STACK CFI 8b744 .cfa: sp 144 +
STACK CFI 8b75c .cfa: x29 80 + x19: .cfa -8 + ^ x20: .cfa -16 + ^ x21: .cfa -24 + ^ x22: .cfa -32 + ^ x23: .cfa -40 + ^ x24: .cfa -48 + ^ x25: .cfa -64 + ^ .ra: .cfa -72 + ^ x29: .cfa -80 + ^
STACK CFI 8c0e4 .cfa: sp 144 +
STACK CFI 8c0fc .cfa: sp 0 +
STACK CFI 8c100 .cfa: x29 80 +
STACK CFI INIT 8c18c 57c .cfa: sp 0 +
STACK CFI 8c190 .cfa: sp 96 +
STACK CFI 8c1a8 .cfa: x29 96 + x19: .cfa -8 + ^ x20: .cfa -16 + ^ x21: .cfa -24 + ^ x22: .cfa -32 + ^ x23: .cfa -40 + ^ x24: .cfa -48 + ^ x25: .cfa -56 + ^ x26: .cfa -64 + ^ x27: .cfa -72 + ^ x28: .cfa -80 + ^ .ra: .cfa -88 + ^ x29: .cfa -96 + ^
STACK CFI 8c66c .cfa: sp 96 +
STACK CFI 8c684 .cfa: sp 0 +
STACK CFI 8c688 .cfa: x29 96 +
STACK CFI INIT 8c708 67c .cfa: sp 0 +
STACK CFI 8c70c .cfa: sp 96 +
STACK CFI 8c724 .cfa: x29 96 + x19: .cfa -8 + ^ x20: .cfa -16 + ^ x21: .cfa -24 + ^ x22: .cfa -32 + ^ x23: .cfa -40 + ^ x24: .cfa -48 + ^ x25: .cfa -56 + ^ x26: .cfa -64 + ^ x27: .cfa -72 + ^ x28: .cfa -80 + ^ .ra: .cfa -88 + ^ x29: .cfa -96 + ^
STACK CFI 8cce8 .cfa: sp 96 +
STACK CFI 8cd00 .cfa: sp 0 +
STACK CFI 8cd04 .cfa: x29 96 +
