MODULE Linux arm64 6BCB9AB73B86AF3A5D24DE00191C1AF50 alphalaneous.auto_build_helper.android64.so
INFO CODE_ID B79ACB6B863B3AAF5D24DE00191C1AF5FB8B4FC0
INFO GENERATOR mozilla/dump_syms 2.3.4
PUBLIC 65f0 0 __on_dlclose
PUBLIC 6600 0 __emutls_unregister_key
PUBLIC 6608 0 __on_dlclose_late
PUBLIC 6610 0 __atexit_handler_wrapper
PUBLIC 6624 0 atexit
PUBLIC 6640 0 pthread_atfork
PUBLIC 6650 0 unwind_phase2
PUBLIC 6784 0 _Unwind_Resume
PUBLIC 6808 0 unwind_phase2_forced
PUBLIC m 68fc 0 __unw_init_local
PUBLIC m 69a4 0 __unw_get_reg
PUBLIC 6a20 0 __unw_step_stage2
PUBLIC m 6a34 0 __unw_get_proc_info
PUBLIC m 6a74 0 __unw_resume
PUBLIC 6a9c 0 libunwind::CFI_Parser<libunwind::LocalAddressSpace>::decodeFDE(libunwind::LocalAddressSpace&, unsigned long, libunwind::CFI_Parser<libunwind::LocalAddressSpace>::FDE_Info*, libunwind::CFI_Parser<libunwind::LocalAddressSpace>::CIE_Info*, bool)
PUBLIC 6c2c 0 libunwind::CFI_Parser<libunwind::LocalAddressSpace>::parseCIE(libunwind::LocalAddressSpace&, unsigned long, libunwind::CFI_Parser<libunwind::LocalAddressSpace>::CIE_Info*)
PUBLIC 6ef4 0 libunwind::AbstractUnwindCursor::~AbstractUnwindCursor()
PUBLIC 6efc 0 libunwind::UnwindCursor<libunwind::LocalAddressSpace, libunwind::Registers_arm64>::~UnwindCursor()
PUBLIC 6f04 0 libunwind::UnwindCursor<libunwind::LocalAddressSpace, libunwind::Registers_arm64>::validReg(int)
PUBLIC 6f48 0 libunwind::UnwindCursor<libunwind::LocalAddressSpace, libunwind::Registers_arm64>::getReg(int)
PUBLIC 7030 0 libunwind::UnwindCursor<libunwind::LocalAddressSpace, libunwind::Registers_arm64>::setReg(int, unsigned long)
PUBLIC 7118 0 libunwind::UnwindCursor<libunwind::LocalAddressSpace, libunwind::Registers_arm64>::validFloatReg(int)
PUBLIC 712c 0 libunwind::UnwindCursor<libunwind::LocalAddressSpace, libunwind::Registers_arm64>::getFloatReg(int)
PUBLIC 713c 0 libunwind::UnwindCursor<libunwind::LocalAddressSpace, libunwind::Registers_arm64>::setFloatReg(int, double)
PUBLIC 714c 0 libunwind::UnwindCursor<libunwind::LocalAddressSpace, libunwind::Registers_arm64>::step(bool)
PUBLIC 723c 0 libunwind::UnwindCursor<libunwind::LocalAddressSpace, libunwind::Registers_arm64>::getInfo(unw_proc_info_t*)
PUBLIC 7280 0 libunwind::UnwindCursor<libunwind::LocalAddressSpace, libunwind::Registers_arm64>::jumpto()
PUBLIC 728c 0 libunwind::UnwindCursor<libunwind::LocalAddressSpace, libunwind::Registers_arm64>::isSignalFrame()
PUBLIC 7298 0 libunwind::UnwindCursor<libunwind::LocalAddressSpace, libunwind::Registers_arm64>::getFunctionName(char*, unsigned long, unsigned long*)
PUBLIC 72c4 0 libunwind::UnwindCursor<libunwind::LocalAddressSpace, libunwind::Registers_arm64>::setInfoBasedOnIPRegister(bool)
PUBLIC 7544 0 libunwind::UnwindCursor<libunwind::LocalAddressSpace, libunwind::Registers_arm64>::getRegisterName(int)
PUBLIC 7550 0 libunwind::UnwindCursor<libunwind::LocalAddressSpace, libunwind::Registers_arm64>::stepThroughSigReturn(libunwind::Registers_arm64&)
PUBLIC 7670 0 libunwind::DwarfInstructions<libunwind::LocalAddressSpace, libunwind::Registers_arm64>::stepWithDwarf(libunwind::LocalAddressSpace&, unsigned long, unsigned long, libunwind::Registers_arm64&, bool&, bool)
PUBLIC 7af8 0 libunwind::CFI_Parser<libunwind::LocalAddressSpace>::parseFDEInstructions(libunwind::LocalAddressSpace&, libunwind::CFI_Parser<libunwind::LocalAddressSpace>::FDE_Info const&, libunwind::CFI_Parser<libunwind::LocalAddressSpace>::CIE_Info const&, unsigned long, int, libunwind::CFI_Parser<libunwind::LocalAddressSpace>::PrologInfo*)
PUBLIC 8740 0 libunwind::DwarfInstructions<libunwind::LocalAddressSpace, libunwind::Registers_arm64>::getCFA(libunwind::LocalAddressSpace&, libunwind::CFI_Parser<libunwind::LocalAddressSpace>::PrologInfo const&, libunwind::Registers_arm64 const&)
PUBLIC 8874 0 libunwind::DwarfInstructions<libunwind::LocalAddressSpace, libunwind::Registers_arm64>::getSavedRegister(libunwind::LocalAddressSpace&, libunwind::Registers_arm64 const&, unsigned long, libunwind::CFI_Parser<libunwind::LocalAddressSpace>::RegisterLocation const&)
PUBLIC 8a84 0 libunwind::LocalAddressSpace::getEncodedP(unsigned long&, unsigned long, unsigned char, unsigned long)
PUBLIC 8e10 0 libunwind::LocalAddressSpace::getULEB128(unsigned long&, unsigned long)
PUBLIC 8fd8 0 libunwind::DwarfInstructions<libunwind::LocalAddressSpace, libunwind::Registers_arm64>::evaluateExpression(unsigned long, libunwind::LocalAddressSpace&, libunwind::Registers_arm64 const&, unsigned long)
PUBLIC 9994 0 libunwind::UnwindCursor<libunwind::LocalAddressSpace, libunwind::Registers_arm64>::getInfoFromDwarfSection(unsigned long, libunwind::UnwindInfoSections const&, unsigned int)
PUBLIC 9c68 0 libunwind::findUnwindSectionsByPhdr(dl_phdr_info*, unsigned long, void*)
PUBLIC 9d9c 0 libunwind::EHHeaderParser<libunwind::LocalAddressSpace>::decodeEHHdr(libunwind::LocalAddressSpace&, unsigned long, unsigned long, libunwind::EHHeaderParser<libunwind::LocalAddressSpace>::EHHeaderInfo&)
PUBLIC 9ebc 0 libunwind::CFI_Parser<libunwind::LocalAddressSpace>::findFDE(libunwind::LocalAddressSpace&, unsigned long, unsigned long, unsigned long, unsigned long, libunwind::CFI_Parser<libunwind::LocalAddressSpace>::FDE_Info*, libunwind::CFI_Parser<libunwind::LocalAddressSpace>::CIE_Info*)
PUBLIC a084 0 libunwind::EHHeaderParser<libunwind::LocalAddressSpace>::findFDE(libunwind::LocalAddressSpace&, unsigned long, unsigned long, unsigned int, libunwind::CFI_Parser<libunwind::LocalAddressSpace>::FDE_Info*, libunwind::CFI_Parser<libunwind::LocalAddressSpace>::CIE_Info*)
PUBLIC a1ec 0 libunwind::EHHeaderParser<libunwind::LocalAddressSpace>::getTableEntrySize(unsigned char)
PUBLIC a2e8 0 libunwind::Registers_arm64::getRegisterName(int)
PUBLIC a318 0 __libunwind_Registers_arm64_jumpto
PUBLIC m a3a8 0 __unw_getcontext
PUBLIC a450 0 __aarch64_ldadd8_relax
PUBLIC a480 0 init_have_lse_atomics
PUBLIC a518 0 __init_cpu_features_constructor
PUBLIC aab4 0 __init_cpu_features
PUBLIC ab40 0 __aarch64_ldadd8_acq_rel
PUBLIC ab70 0 __cxx_global_var_init
PUBLIC aff4 0 geode::modifier::ModifyBase<geode::modifier::ModifyDerive<MyEditorUI, EditorUI> >::~ModifyBase()
PUBLIC b00c 0 __cxx_global_var_init.1
PUBLIC b490 0 geode::modifier::ModifyBase<geode::modifier::ModifyDerive<MyEditorPauseLayer, EditorPauseLayer> >::~ModifyBase()
PUBLIC b4a8 0 geode::modifier::ModifyDerive<MyEditorUI, EditorUI>::apply()
PUBLIC bd94 0 std::__ndk1::shared_ptr<geode::Hook>::~shared_ptr[abi:ne180000]()
PUBLIC bde4 0 geode::impl::ResultData<geode::Hook*, std::__ndk1::basic_string<char, std::__ndk1::char_traits<char>, std::__ndk1::allocator<char> > >::~ResultData()
PUBLIC be58 0 std::__ndk1::vector<std::__ndk1::basic_string<char, std::__ndk1::char_traits<char>, std::__ndk1::allocator<char> >, std::__ndk1::allocator<std::__ndk1::basic_string<char, std::__ndk1::char_traits<char>, std::__ndk1::allocator<char> > > >::~vector[abi:ne180000]()
PUBLIC bed4 0 geode::modifier::ModifyBase<geode::modifier::ModifyDerive<MyEditorUI, EditorUI> >::apply()
PUBLIC bed8 0 __clang_call_terminate
PUBLIC bee8 0 _ZN5geode15UnwrapExceptionC2IRPNS_4HookEQsr4implE18IsStringStreamableIT_EEENS_4impl5OkTagEOS5_
PUBLIC c03c 0 std::__ndk1::__throw_bad_variant_access[abi:ne180000]()
PUBLIC c070 0 std::__ndk1::basic_stringstream<char, std::__ndk1::char_traits<char>, std::__ndk1::allocator<char> >::basic_stringstream[abi:ne180000]()
PUBLIC m c19c 0 std::__ndk1::basic_stringstream<char, std::__ndk1::char_traits<char>, std::__ndk1::allocator<char> >::~basic_stringstream()
PUBLIC c21c 0 geode::UnwrapException::~UnwrapException()
PUBLIC c240 0 std::__ndk1::__put_character_sequence[abi:ne180000]<char, std::__ndk1::char_traits<char> >(std::__ndk1::basic_ostream<char, std::__ndk1::char_traits<char> >, std::__ndk1::basic_ostream const*, unsigned long)
PUBLIC c3e4 0 std::__ndk1::__pad_and_output[abi:ne180000]<char, std::__ndk1::char_traits<char> >(std::__ndk1::char_traits<char>, std::__ndk1::ostreambuf_iterator const*, std::__ndk1::ostreambuf_iterator const, std::__ndk1::ostreambuf_iterator const, std::__ndk1::ios_base&, std::__ndk1::ostreambuf_iterator)
PUBLIC c5c0 0 std::__ndk1::basic_string<char, std::__ndk1::char_traits<char>, std::__ndk1::allocator<char> >::__throw_length_error[abi:ne180000]() const
PUBLIC c5d4 0 std::__ndk1::__throw_length_error[abi:ne180000](char const*)
PUBLIC c624 0 std::length_error::length_error[abi:ne180000](char const*)
PUBLIC c654 0 std::__throw_bad_array_new_length([abi:ne180000], void)
PUBLIC c688 0 std::__ndk1::basic_stringbuf<char, std::__ndk1::char_traits<char>, std::__ndk1::allocator<char> >::str[abi:ne180000]() &&
PUBLIC c800 0 std::__ndk1::basic_stringbuf<char, std::__ndk1::char_traits<char>, std::__ndk1::allocator<char> >::__init_buf_ptrs[abi:ne180000]()
PUBLIC c948 0 std::__ndk1::vector<std::__ndk1::basic_string<char, std::__ndk1::char_traits<char>, std::__ndk1::allocator<char> >, std::__ndk1::allocator<std::__ndk1::basic_string<char, std::__ndk1::char_traits<char>, std::__ndk1::allocator<char> > > >::__push_back_slow_path<std::__ndk1::basic_string<char, std::__ndk1::char_traits<char>, std::__ndk1::allocator<char> > const&>(std::__ndk1::basic_string<char, std::__ndk1::char_traits<char>, std::__ndk1::allocator<char> > const&)
PUBLIC cb6c 0 std::__ndk1::basic_string<char, std::__ndk1::char_traits<char>, std::__ndk1::allocator<char> >::__init_copy_ctor_external(char const*, unsigned long)
PUBLIC cbec 0 std::__ndk1::__split_buffer<std::__ndk1::basic_string<char, std::__ndk1::char_traits<char>, std::__ndk1::allocator<char> >, std::__ndk1::allocator<std::__ndk1::basic_string<char, std::__ndk1::char_traits<char>, std::__ndk1::allocator<char> > >&>::~__split_buffer()
PUBLIC cc54 0 std::__ndk1::vector<std::__ndk1::basic_string<char, std::__ndk1::char_traits<char>, std::__ndk1::allocator<char> >, std::__ndk1::allocator<std::__ndk1::basic_string<char, std::__ndk1::char_traits<char>, std::__ndk1::allocator<char> > > >::__throw_length_error[abi:ne180000]() const
PUBLIC cc68 0 std::__ndk1::__variant_detail::__visitation::__base::__dispatcher<(unsigned long)0>::__dispatch[abi:ne180000]<std::__ndk1::__variant_detail::__dtor<std::__ndk1::__variant_detail::__traits<geode::Hook*, std::__ndk1::basic_string<char, std::__ndk1::char_traits<char>, std::__ndk1::allocator<char> > >, (std::__ndk1::__variant_detail::_Trait)1>::__destroy[abi:ne180000]()::{lambda(auto:1&)#1}, std::__ndk1::__variant_detail::__base<(std::__ndk1::__variant_detail::__traits<geode::Hook*, std::__ndk1::basic_string<char, std::__ndk1::char_traits<char>, std::__ndk1::allocator<char> > >)1, geode::Hook, std::__ndk1::allocator<char> >&>(std::__ndk1::__variant_detail::__dtor<std::__ndk1::__variant_detail::__traits<geode::Hook*, std::__ndk1::basic_string<char, std::__ndk1::char_traits<char>, std::__ndk1::allocator<char> > >, (std::__ndk1::__variant_detail::_Trait)1>, std::__ndk1::__variant_detail::__base<(std::__ndk1::__variant_detail::__traits<geode::Hook*, std::__ndk1::basic_string<char, std::__ndk1::char_traits<char>, std::__ndk1::allocator<char> > >)1, geode::Hook, std::__ndk1::allocator<char> >&)
PUBLIC cc6c 0 std::__ndk1::__variant_detail::__visitation::__base::__dispatcher<(unsigned long)1>::__dispatch[abi:ne180000]<std::__ndk1::__variant_detail::__dtor<std::__ndk1::__variant_detail::__traits<geode::Hook*, std::__ndk1::basic_string<char, std::__ndk1::char_traits<char>, std::__ndk1::allocator<char> > >, (std::__ndk1::__variant_detail::_Trait)1>::__destroy[abi:ne180000]()::{lambda(auto:1&)#1}, std::__ndk1::__variant_detail::__base<(std::__ndk1::__variant_detail::__traits<geode::Hook*, std::__ndk1::basic_string<char, std::__ndk1::char_traits<char>, std::__ndk1::allocator<char> > >)1, geode::Hook, std::__ndk1::allocator<char> >&>(std::__ndk1::__variant_detail::__dtor<std::__ndk1::__variant_detail::__traits<geode::Hook*, std::__ndk1::basic_string<char, std::__ndk1::char_traits<char>, std::__ndk1::allocator<char> > >, (std::__ndk1::__variant_detail::_Trait)1>, std::__ndk1::__variant_detail::__base<(std::__ndk1::__variant_detail::__traits<geode::Hook*, std::__ndk1::basic_string<char, std::__ndk1::char_traits<char>, std::__ndk1::allocator<char> > >)1, geode::Hook, std::__ndk1::allocator<char> >&)
PUBLIC cc80 0 std::__ndk1::__tree<std::__ndk1::__value_type<std::__ndk1::basic_string<char, std::__ndk1::char_traits<char>, std::__ndk1::allocator<char> >, std::__ndk1::shared_ptr<geode::Hook> >, std::__ndk1::__map_value_compare<std::__ndk1::basic_string<char, std::__ndk1::char_traits<char>, std::__ndk1::allocator<char> >, std::__ndk1::__value_type<std::__ndk1::basic_string<char, std::__ndk1::char_traits<char>, std::__ndk1::allocator<char> >, std::__ndk1::shared_ptr<geode::Hook> >, std::__ndk1::less<std::__ndk1::basic_string<char, std::__ndk1::char_traits<char>, std::__ndk1::allocator<char> > >, true>, std::__ndk1::allocator<std::__ndk1::__value_type<std::__ndk1::basic_string<char, std::__ndk1::char_traits<char>, std::__ndk1::allocator<char> >, std::__ndk1::shared_ptr<geode::Hook> > > >::find<std::__ndk1::basic_string<char, std::__ndk1::char_traits<char>, std::__ndk1::allocator<char> > >(std::__ndk1::basic_string<char, std::__ndk1::char_traits<char>, std::__ndk1::allocator<char> > const&)
PUBLIC cda0 0 std::__ndk1::__tree<std::__ndk1::__value_type<std::__ndk1::basic_string<char, std::__ndk1::char_traits<char>, std::__ndk1::allocator<char> >, std::__ndk1::shared_ptr<geode::Hook> >, std::__ndk1::__map_value_compare<std::__ndk1::basic_string<char, std::__ndk1::char_traits<char>, std::__ndk1::allocator<char> >, std::__ndk1::__value_type<std::__ndk1::basic_string<char, std::__ndk1::char_traits<char>, std::__ndk1::allocator<char> >, std::__ndk1::shared_ptr<geode::Hook> >, std::__ndk1::less<std::__ndk1::basic_string<char, std::__ndk1::char_traits<char>, std::__ndk1::allocator<char> > >, true>, std::__ndk1::allocator<std::__ndk1::__value_type<std::__ndk1::basic_string<char, std::__ndk1::char_traits<char>, std::__ndk1::allocator<char> >, std::__ndk1::shared_ptr<geode::Hook> > > >::erase(std::__ndk1::__tree_const_iterator<std::__ndk1::__value_type<std::__ndk1::basic_string<char, std::__ndk1::char_traits<char>, std::__ndk1::allocator<char> >, std::__ndk1::shared_ptr<geode::Hook> >, std::__ndk1::__tree_node<std::__ndk1::__value_type<std::__ndk1::basic_string<char, std::__ndk1::char_traits<char>, std::__ndk1::allocator<char> >, std::__ndk1::shared_ptr<geode::Hook> >, void*>*, long>)
PUBLIC d244 0 std::__ndk1::__tree<std::__ndk1::__value_type<std::__ndk1::basic_string<char, std::__ndk1::char_traits<char>, std::__ndk1::allocator<char> >, std::__ndk1::shared_ptr<geode::Hook> >, std::__ndk1::__map_value_compare<std::__ndk1::basic_string<char, std::__ndk1::char_traits<char>, std::__ndk1::allocator<char> >, std::__ndk1::__value_type<std::__ndk1::basic_string<char, std::__ndk1::char_traits<char>, std::__ndk1::allocator<char> >, std::__ndk1::shared_ptr<geode::Hook> >, std::__ndk1::less<std::__ndk1::basic_string<char, std::__ndk1::char_traits<char>, std::__ndk1::allocator<char> > >, true>, std::__ndk1::allocator<std::__ndk1::__value_type<std::__ndk1::basic_string<char, std::__ndk1::char_traits<char>, std::__ndk1::allocator<char> >, std::__ndk1::shared_ptr<geode::Hook> > > >::destroy(std::__ndk1::__tree_node<std::__ndk1::__value_type<std::__ndk1::basic_string<char, std::__ndk1::char_traits<char>, std::__ndk1::allocator<char> >, std::__ndk1::shared_ptr<geode::Hook> >, void*>*)
PUBLIC d2c8 0 geode::modifier::AsStaticFunction_init<MyEditorUI, bool (MyEditorUI::*)(LevelEditorLayer*)>::Impl<bool (MyEditorUI::*)(LevelEditorLayer*)>::function(MyEditorUI*, LevelEditorLayer*)
PUBLIC d570 0 geode::modifier::AsStaticFunction_pasteObjects<MyEditorUI, cocos2d::CCArray* (MyEditorUI::*)(gd::string, bool, bool)>::Impl<cocos2d::CCArray* (MyEditorUI::*)(gd::string, bool, bool)>::function(MyEditorUI*, gd::string, bool, bool)
PUBLIC d664 0 geode::modifier::AsStaticFunction_showUI<MyEditorUI, void (MyEditorUI::*)(bool)>::Impl<void (MyEditorUI::*)(bool)>::function(MyEditorUI*, bool)
PUBLIC d6bc 0 std::__ndk1::shared_ptr<tulip::hook::CallingConvention>::~shared_ptr[abi:ne180000]()
PUBLIC d70c 0 tulip::hook::HandlerMetadata::~HandlerMetadata()
PUBLIC d770 0 std::__ndk1::vector<tulip::hook::AbstractType, std::__ndk1::allocator<tulip::hook::AbstractType> >::__throw_length_error[abi:ne180000]() const
PUBLIC d784 0 geode::Mod::getSettingValue<bool>(std::__ndk1::basic_string_view<char, std::__ndk1::char_traits<char> >) const
PUBLIC d8c0 0 MyEditorUI::onToggleAutoBuildHelper(cocos2d::CCObject*)
PUBLIC d954 0 geode::cast::traverseTypeinfoFor(void*, geode::cast::ClassTypeinfoType const*, char const*)
PUBLIC da4c 0 geode::modifier::FieldIntermediate<MyEditorUI, EditorUI>::self()
PUBLIC dbd8 0 geode::modifier::FieldContainer::getField(unsigned long)
PUBLIC e01c 0 geode::modifier::FieldContainer::setField(unsigned long, unsigned long, std::__ndk1::function<void (void*)>)
PUBLIC e128 0 geode::modifier::FieldIntermediate<MyEditorUI, EditorUI>::fieldDestructor(void*)
PUBLIC e12c 0 std::__ndk1::vector<void*, std::__ndk1::allocator<void*> >::__throw_length_error[abi:ne180000]() const
PUBLIC e140 0 std::__ndk1::vector<std::__ndk1::function<void (void*)>, std::__ndk1::allocator<std::__ndk1::function<void (void*)> > >::__throw_length_error[abi:ne180000]() const
PUBLIC e154 0 std::__ndk1::vector<void*, std::__ndk1::allocator<void*> >::__throw_out_of_range[abi:ne180000]() const
PUBLIC e160 0 std::__ndk1::__throw_out_of_range[abi:ne180000](char const*)
PUBLIC e1b0 0 std::out_of_range::out_of_range[abi:ne180000](char const*)
PUBLIC e1e0 0 std::__ndk1::vector<std::__ndk1::function<void (void*)>, std::__ndk1::allocator<std::__ndk1::function<void (void*)> > >::__throw_out_of_range[abi:ne180000]() const
PUBLIC e1ec 0 std::__ndk1::__function::__base<void (void*)>::~__base()
PUBLIC e1f0 0 std::__ndk1::__function::__func<void (*)(void*), std::__ndk1::allocator<void (*)(void*)>, void (void*)>::~__func()
PUBLIC e1f4 0 std::__ndk1::__function::__func<void (*)(void*), std::__ndk1::allocator<void (*)(void*)>, void (void*)>::__clone() const
PUBLIC e22c 0 std::__ndk1::__function::__func<void (*)(void*), std::__ndk1::allocator<void (*)(void*)>, void (void*)>::__clone(std::__ndk1::__function::__base<void (void*)>*) const
PUBLIC e244 0 std::__ndk1::__function::__func<void (*)(void*), std::__ndk1::allocator<void (*)(void*)>, void (void*)>::destroy()
PUBLIC e248 0 std::__ndk1::__function::__func<void (*)(void*), std::__ndk1::allocator<void (*)(void*)>, void (void*)>::destroy_deallocate()
PUBLIC e24c 0 std::__ndk1::__function::__func<void (*)(void*), std::__ndk1::allocator<void (*)(void*)>, void (void*)>::operator()(void*&&)
PUBLIC e25c 0 std::__ndk1::__function::__func<void (*)(void*), std::__ndk1::allocator<void (*)(void*)>, void (void*)>::target(std::type_info const&) const
PUBLIC e278 0 std::__ndk1::__function::__func<void (*)(void*), std::__ndk1::allocator<void (*)(void*)>, void (void*)>::target_type() const
PUBLIC e284 0 std::__ndk1::__tree<std::__ndk1::__value_type<std::__ndk1::basic_string<char, std::__ndk1::char_traits<char>, std::__ndk1::allocator<char> >, std::__ndk1::shared_ptr<geode::Hook> >, std::__ndk1::__map_value_compare<std::__ndk1::basic_string<char, std::__ndk1::char_traits<char>, std::__ndk1::allocator<char> >, std::__ndk1::__value_type<std::__ndk1::basic_string<char, std::__ndk1::char_traits<char>, std::__ndk1::allocator<char> >, std::__ndk1::shared_ptr<geode::Hook> >, std::__ndk1::less<std::__ndk1::basic_string<char, std::__ndk1::char_traits<char>, std::__ndk1::allocator<char> > >, true>, std::__ndk1::allocator<std::__ndk1::__value_type<std::__ndk1::basic_string<char, std::__ndk1::char_traits<char>, std::__ndk1::allocator<char> >, std::__ndk1::shared_ptr<geode::Hook> > > >::__emplace_unique_key_args<std::__ndk1::basic_string<char, std::__ndk1::char_traits<char>, std::__ndk1::allocator<char> >, std::__ndk1::piecewise_construct_t const&, std::__ndk1::tuple<std::__ndk1::basic_string<char, std::__ndk1::char_traits<char>, std::__ndk1::allocator<char> >&&>, std::__ndk1::tuple<> >(std::__ndk1::basic_string<char, std::__ndk1::char_traits<char>, std::__ndk1::allocator<char> > const&, std::__ndk1::piecewise_construct_t const&, std::__ndk1::tuple<std::__ndk1::basic_string<char, std::__ndk1::char_traits<char>, std::__ndk1::allocator<char> >&&>, std::__ndk1::tuple<>)
PUBLIC e3ec 0 std::__ndk1::__tree_balance_after_insert[abi:ne180000]<std::__ndk1::__tree_node_base<void*>*>(std::__ndk1::__tree_node_base<void*>*, std::__ndk1::__tree_node_base<void*>*)
PUBLIC e59c 0 geode::modifier::ModifyDerive<MyEditorPauseLayer, EditorPauseLayer>::apply()
PUBLIC e8e8 0 geode::modifier::ModifyBase<geode::modifier::ModifyDerive<MyEditorPauseLayer, EditorPauseLayer> >::apply()
PUBLIC e8ec 0 geode::modifier::AsStaticFunction_init<MyEditorPauseLayer, bool (MyEditorPauseLayer::*)(LevelEditorLayer*)>::Impl<bool (MyEditorPauseLayer::*)(LevelEditorLayer*)>::function(MyEditorPauseLayer*, LevelEditorLayer*)
PUBLIC eb44 0 geode::modifier::FieldIntermediate<MyEditorPauseLayer, EditorPauseLayer>::self()
PUBLIC ecd0 0 geode::modifier::FieldIntermediate<MyEditorPauseLayer, EditorPauseLayer>::fieldDestructor(void*)
PUBLIC m ecd4 0 geodeImplicitEntry
PUBLIC ed10 0 wrapFunction(unsigned long, tulip::hook::WrapperMetadata const&)
PUBLIC ee44 0 geode::impl::ResultData<void*, std::__ndk1::basic_string<char, std::__ndk1::char_traits<char>, std::__ndk1::allocator<char> > >::unwrapErr() &
PUBLIC eebc 0 geode::impl::ResultData<void*, std::__ndk1::basic_string<char, std::__ndk1::char_traits<char>, std::__ndk1::allocator<char> > >::~ResultData()
PUBLIC ef30 0 tulip::hook::WrapperMetadata::~WrapperMetadata()
PUBLIC ef94 0 EditorUI::pasteObjects(gd::string, bool, bool)
PUBLIC f12c 0 tulip::hook::AbstractFunction::from<cocos2d::CCArray*, EditorUI*, gd::string, bool, bool>(cocos2d::CCArray* (*)(EditorUI*, gd::string, bool, bool))
PUBLIC f3ec 0 _ZN5geode15UnwrapExceptionC2IRPvQsr4implE18IsStringStreamableIT_EEENS_4impl5OkTagEOS4_
PUBLIC f540 0 _ZN5geode15UnwrapExceptionC2IRNSt6__ndk112basic_stringIcNS2_11char_traitsIcEENS2_9allocatorIcEEEEQsr4implE18IsStringStreamableIT_EEENS_4impl6ErrTagEOSA_
PUBLIC f6a8 0 std::__ndk1::__variant_detail::__visitation::__base::__dispatcher<(unsigned long)0>::__dispatch[abi:ne180000]<std::__ndk1::__variant_detail::__dtor<std::__ndk1::__variant_detail::__traits<void*, std::__ndk1::basic_string<char, std::__ndk1::char_traits<char>, std::__ndk1::allocator<char> > >, (std::__ndk1::__variant_detail::_Trait)1>::__destroy[abi:ne180000]()::{lambda(auto:1&)#1}, std::__ndk1::__variant_detail::__base<(std::__ndk1::__variant_detail::__traits<void*, std::__ndk1::basic_string<char, std::__ndk1::char_traits<char>, std::__ndk1::allocator<char> > >)1, std::__ndk1::__variant_detail::__traits, std::__ndk1::allocator<char> >&>(std::__ndk1::__variant_detail::__dtor<std::__ndk1::__variant_detail::__traits<void*, std::__ndk1::basic_string<char, std::__ndk1::char_traits<char>, std::__ndk1::allocator<char> > >, (std::__ndk1::__variant_detail::_Trait)1>, std::__ndk1::__variant_detail::__base<(std::__ndk1::__variant_detail::__traits<void*, std::__ndk1::basic_string<char, std::__ndk1::char_traits<char>, std::__ndk1::allocator<char> > >)1, std::__ndk1::__variant_detail::__traits, std::__ndk1::allocator<char> >&)
PUBLIC f6ac 0 std::__ndk1::__variant_detail::__visitation::__base::__dispatcher<(unsigned long)1>::__dispatch[abi:ne180000]<std::__ndk1::__variant_detail::__dtor<std::__ndk1::__variant_detail::__traits<void*, std::__ndk1::basic_string<char, std::__ndk1::char_traits<char>, std::__ndk1::allocator<char> > >, (std::__ndk1::__variant_detail::_Trait)1>::__destroy[abi:ne180000]()::{lambda(auto:1&)#1}, std::__ndk1::__variant_detail::__base<(std::__ndk1::__variant_detail::__traits<void*, std::__ndk1::basic_string<char, std::__ndk1::char_traits<char>, std::__ndk1::allocator<char> > >)1, std::__ndk1::__variant_detail::__traits, std::__ndk1::allocator<char> >&>(std::__ndk1::__variant_detail::__dtor<std::__ndk1::__variant_detail::__traits<void*, std::__ndk1::basic_string<char, std::__ndk1::char_traits<char>, std::__ndk1::allocator<char> > >, (std::__ndk1::__variant_detail::_Trait)1>, std::__ndk1::__variant_detail::__base<(std::__ndk1::__variant_detail::__traits<void*, std::__ndk1::basic_string<char, std::__ndk1::char_traits<char>, std::__ndk1::allocator<char> > >)1, std::__ndk1::__variant_detail::__traits, std::__ndk1::allocator<char> >&)
PUBLIC f6c0 0 <.plt ELF section in alphalaneous.auto_build_helper.android64.so>
STACK CFI INIT 65f0 10 .cfa: sp 0 +
STACK CFI INIT 6600 8 .cfa: sp 0 +
STACK CFI INIT 6608 8 .cfa: sp 0 +
STACK CFI INIT 6610 14 .cfa: sp 0 +
STACK CFI INIT 6624 1c .cfa: sp 0 +
STACK CFI INIT 6640 10 .cfa: sp 0 +
STACK CFI INIT 6650 134 .cfa: sp 0 +
STACK CFI INIT 6784 84 .cfa: sp 0 +
STACK CFI INIT 6808 f4 .cfa: sp 0 +
STACK CFI INIT 68fc a8 .cfa: sp 0 +
STACK CFI INIT 69a4 7c .cfa: sp 0 +
STACK CFI INIT 6a20 14 .cfa: sp 0 +
STACK CFI INIT 6a34 40 .cfa: sp 0 +
STACK CFI INIT 6a74 28 .cfa: sp 0 +
STACK CFI INIT 6a9c 190 .cfa: sp 0 +
STACK CFI INIT 6c2c 2c8 .cfa: sp 0 +
STACK CFI INIT 6ef4 8 .cfa: sp 0 +
STACK CFI INIT 6efc 8 .cfa: sp 0 +
STACK CFI INIT 6f04 44 .cfa: sp 0 +
STACK CFI INIT 6f48 e8 .cfa: sp 0 +
STACK CFI INIT 7030 e8 .cfa: sp 0 +
STACK CFI INIT 7118 14 .cfa: sp 0 +
STACK CFI INIT 712c 10 .cfa: sp 0 +
STACK CFI INIT 713c 10 .cfa: sp 0 +
STACK CFI INIT 714c f0 .cfa: sp 0 +
STACK CFI INIT 723c 44 .cfa: sp 0 +
STACK CFI INIT 7280 c .cfa: sp 0 +
STACK CFI INIT 728c c .cfa: sp 0 +
STACK CFI INIT 7298 2c .cfa: sp 0 +
STACK CFI INIT 72c4 280 .cfa: sp 0 +
STACK CFI INIT 7544 c .cfa: sp 0 +
STACK CFI INIT 7550 120 .cfa: sp 0 +
STACK CFI INIT 7670 488 .cfa: sp 0 +
STACK CFI INIT 7af8 c48 .cfa: sp 0 +
STACK CFI INIT 8740 134 .cfa: sp 0 +
STACK CFI INIT 8874 210 .cfa: sp 0 +
STACK CFI INIT 8a84 38c .cfa: sp 0 +
STACK CFI INIT 8e10 1c8 .cfa: sp 0 +
STACK CFI INIT 8fd8 9bc .cfa: sp 0 +
STACK CFI INIT 9994 2d4 .cfa: sp 0 +
STACK CFI INIT 9c68 134 .cfa: sp 0 +
STACK CFI INIT 9d9c 120 .cfa: sp 0 +
STACK CFI INIT 9ebc 1c8 .cfa: sp 0 +
STACK CFI INIT a084 168 .cfa: sp 0 +
STACK CFI INIT a1ec fc .cfa: sp 0 +
STACK CFI INIT a2e8 30 .cfa: sp 0 +
STACK CFI INIT a450 30 .cfa: sp 0 +
STACK CFI INIT a480 98 .cfa: sp 0 +
STACK CFI INIT a518 59c .cfa: sp 0 +
STACK CFI INIT aab4 8c .cfa: sp 0 +
STACK CFI INIT ab40 30 .cfa: sp 0 +
STACK CFI INIT aff4 18 .cfa: sp 0 +
STACK CFI INIT b490 18 .cfa: sp 0 +
STACK CFI INIT bd94 50 .cfa: sp 0 +
STACK CFI bd98 .cfa: sp 32 +
STACK CFI bda0 .cfa: x29 32 + x19: .cfa -16 + ^ .ra: .cfa -24 + ^ x29: .cfa -32 + ^
STACK CFI bdb8 .cfa: sp 32 +
STACK CFI bdc0 .cfa: sp 0 +
STACK CFI bdc4 .cfa: x29 32 +
STACK CFI bdd8 .cfa: sp 32 +
STACK CFI bde0 .cfa: sp 0 +
STACK CFI INIT be58 7c .cfa: sp 0 +
STACK CFI be5c .cfa: sp 48 +
STACK CFI be68 .cfa: x29 48 + x19: .cfa -8 + ^ x20: .cfa -16 + ^ x21: .cfa -32 + ^ .ra: .cfa -40 + ^ x29: .cfa -48 + ^
STACK CFI beb4 .cfa: sp 48 +
STACK CFI bec0 .cfa: sp 0 +
STACK CFI bec4 .cfa: sp 48 +
STACK CFI bed0 .cfa: sp 0 +
STACK CFI INIT bed4 4 .cfa: sp 0 +
STACK CFI INIT bed8 10 .cfa: sp 0 +
STACK CFI bedc .cfa: sp 16 +
STACK CFI bee0 .cfa: x29 16 + .ra: .cfa -8 + ^ x29: .cfa -16 + ^
STACK CFI INIT c03c 34 .cfa: sp 0 +
STACK CFI c040 .cfa: sp 16 +
STACK CFI c044 .cfa: x29 16 + .ra: .cfa -8 + ^ x29: .cfa -16 + ^
STACK CFI INIT c19c 80 .cfa: sp 0 +
STACK CFI c1a0 .cfa: sp 48 +
STACK CFI c1ac .cfa: x29 48 + x19: .cfa -8 + ^ x20: .cfa -16 + ^ x21: .cfa -32 + ^ .ra: .cfa -40 + ^ x29: .cfa -48 + ^
STACK CFI c20c .cfa: sp 48 +
STACK CFI c218 .cfa: sp 0 +
STACK CFI INIT c21c 24 .cfa: sp 0 +
STACK CFI c220 .cfa: sp 32 +
STACK CFI c228 .cfa: x29 32 + x19: .cfa -16 + ^ .ra: .cfa -24 + ^ x29: .cfa -32 + ^
STACK CFI c234 .cfa: sp 32 +
STACK CFI c23c .cfa: sp 0 +
STACK CFI INIT c5c0 14 .cfa: sp 0 +
STACK CFI c5c4 .cfa: sp 16 +
STACK CFI c5c8 .cfa: x29 16 + .ra: .cfa -8 + ^ x29: .cfa -16 + ^
STACK CFI INIT c624 30 .cfa: sp 0 +
STACK CFI c628 .cfa: sp 32 +
STACK CFI c630 .cfa: x29 32 + x19: .cfa -16 + ^ .ra: .cfa -24 + ^ x29: .cfa -32 + ^
STACK CFI c648 .cfa: sp 32 +
STACK CFI c650 .cfa: sp 0 +
STACK CFI INIT c654 34 .cfa: sp 0 +
STACK CFI c658 .cfa: sp 32 +
STACK CFI c660 .cfa: x29 32 + x19: .cfa -16 + ^ .ra: .cfa -24 + ^ x29: .cfa -32 + ^
STACK CFI INIT c800 148 .cfa: sp 0 +
STACK CFI c804 .cfa: sp 48 +
STACK CFI c810 .cfa: x29 48 + x19: .cfa -8 + ^ x20: .cfa -16 + ^ x21: .cfa -32 + ^ .ra: .cfa -40 + ^ x29: .cfa -48 + ^
STACK CFI c938 .cfa: sp 48 +
STACK CFI c944 .cfa: sp 0 +
STACK CFI INIT cb6c 80 .cfa: sp 0 +
STACK CFI cb70 .cfa: sp 48 +
STACK CFI cb7c .cfa: x29 48 + x19: .cfa -8 + ^ x20: .cfa -16 + ^ x21: .cfa -24 + ^ x22: .cfa -32 + ^ .ra: .cfa -40 + ^ x29: .cfa -48 + ^
STACK CFI cb94 .cfa: sp 48 +
STACK CFI cba0 .cfa: sp 0 +
STACK CFI cba4 .cfa: x29 48 +
STACK CFI cbd4 .cfa: sp 48 +
STACK CFI cbe0 .cfa: sp 0 +
STACK CFI cbe4 .cfa: x29 48 +
STACK CFI INIT cbec 68 .cfa: sp 0 +
STACK CFI cbf0 .cfa: sp 32 +
STACK CFI cbf8 .cfa: x29 32 + x19: .cfa -8 + ^ x20: .cfa -16 + ^ .ra: .cfa -24 + ^ x29: .cfa -32 + ^
STACK CFI cc10 .cfa: sp 32 +
STACK CFI cc18 .cfa: sp 0 +
STACK CFI cc1c .cfa: x29 32 +
STACK CFI cc48 .cfa: sp 32 +
STACK CFI cc50 .cfa: sp 0 +
STACK CFI INIT cc54 14 .cfa: sp 0 +
STACK CFI cc58 .cfa: sp 16 +
STACK CFI cc5c .cfa: x29 16 + .ra: .cfa -8 + ^ x29: .cfa -16 + ^
STACK CFI INIT cc68 4 .cfa: sp 0 +
STACK CFI INIT cc6c 14 .cfa: sp 0 +
STACK CFI INIT cc80 120 .cfa: sp 0 +
STACK CFI cc84 .cfa: sp 64 +
STACK CFI cc94 .cfa: x29 64 + x19: .cfa -8 + ^ x20: .cfa -16 + ^ x21: .cfa -24 + ^ x22: .cfa -32 + ^ x23: .cfa -40 + ^ x24: .cfa -48 + ^ .ra: .cfa -56 + ^ x29: .cfa -64 + ^
STACK CFI cd8c .cfa: sp 64 +
STACK CFI cd9c .cfa: sp 0 +
STACK CFI INIT cda0 4a4 .cfa: sp 0 +
STACK CFI cda4 .cfa: sp 32 +
STACK CFI cdac .cfa: x29 32 + x19: .cfa -8 + ^ x20: .cfa -16 + ^ .ra: .cfa -24 + ^ x29: .cfa -32 + ^
STACK CFI d18c .cfa: sp 32 +
STACK CFI d194 .cfa: sp 0 +
STACK CFI d198 .cfa: x29 32 +
STACK CFI INIT d244 84 .cfa: sp 0 +
STACK CFI d24c .cfa: sp 32 +
STACK CFI d254 .cfa: x29 32 + x19: .cfa -8 + ^ x20: .cfa -16 + ^ .ra: .cfa -24 + ^ x29: .cfa -32 + ^
STACK CFI d294 .cfa: sp 32 +
STACK CFI d29c .cfa: sp 0 +
STACK CFI d2a4 .cfa: x29 32 +
STACK CFI INIT d664 58 .cfa: sp 0 +
STACK CFI d668 .cfa: sp 32 +
STACK CFI d670 .cfa: x29 32 + x19: .cfa -8 + ^ x20: .cfa -16 + ^ .ra: .cfa -24 + ^ x29: .cfa -32 + ^
STACK CFI d6a4 .cfa: sp 32 +
STACK CFI d6ac .cfa: sp 0 +
STACK CFI d6b0 .cfa: sp 32 +
STACK CFI d6b8 .cfa: sp 0 +
STACK CFI INIT d6bc 50 .cfa: sp 0 +
STACK CFI d6c0 .cfa: sp 32 +
STACK CFI d6c8 .cfa: x29 32 + x19: .cfa -16 + ^ .ra: .cfa -24 + ^ x29: .cfa -32 + ^
STACK CFI d6e0 .cfa: sp 32 +
STACK CFI d6e8 .cfa: sp 0 +
STACK CFI d6ec .cfa: x29 32 +
STACK CFI d700 .cfa: sp 32 +
STACK CFI d708 .cfa: sp 0 +
STACK CFI INIT d70c 64 .cfa: sp 0 +
STACK CFI d710 .cfa: sp 32 +
STACK CFI d718 .cfa: x29 32 + x19: .cfa -16 + ^ .ra: .cfa -24 + ^ x29: .cfa -32 + ^
STACK CFI d744 .cfa: sp 32 +
STACK CFI d74c .cfa: sp 0 +
STACK CFI d750 .cfa: x29 32 +
STACK CFI d764 .cfa: sp 32 +
STACK CFI d76c .cfa: sp 0 +
STACK CFI INIT d770 14 .cfa: sp 0 +
STACK CFI d774 .cfa: sp 16 +
STACK CFI d778 .cfa: x29 16 + .ra: .cfa -8 + ^ x29: .cfa -16 + ^
STACK CFI INIT d784 13c .cfa: sp 0 +
STACK CFI d788 .cfa: sp 80 +
STACK CFI d798 .cfa: x29 48 + x19: .cfa -8 + ^ x20: .cfa -16 + ^ x21: .cfa -24 + ^ x22: .cfa -32 + ^ .ra: .cfa -40 + ^ x29: .cfa -48 + ^
STACK CFI d8a8 .cfa: sp 80 +
STACK CFI d8b8 .cfa: sp 0 +
STACK CFI d8bc .cfa: x29 48 +
STACK CFI INIT d8c0 94 .cfa: sp 0 +
STACK CFI d8c4 .cfa: sp 48 +
STACK CFI d8d0 .cfa: x29 48 + x19: .cfa -8 + ^ x20: .cfa -16 + ^ x21: .cfa -24 + ^ x22: .cfa -32 + ^ .ra: .cfa -40 + ^ x29: .cfa -48 + ^
STACK CFI d904 .cfa: sp 48 +
STACK CFI d910 .cfa: sp 0 +
STACK CFI d914 .cfa: x29 48 +
STACK CFI d944 .cfa: sp 48 +
STACK CFI d950 .cfa: sp 0 +
STACK CFI INIT d954 f8 .cfa: sp 0 +
STACK CFI d958 .cfa: sp 64 +
STACK CFI d968 .cfa: x29 64 + x19: .cfa -8 + ^ x20: .cfa -16 + ^ x21: .cfa -24 + ^ x22: .cfa -32 + ^ x23: .cfa -48 + ^ .ra: .cfa -56 + ^ x29: .cfa -64 + ^
STACK CFI d9c4 .cfa: sp 64 +
STACK CFI d9d4 .cfa: sp 0 +
STACK CFI d9d8 .cfa: x29 64 +
STACK CFI d9f4 .cfa: sp 64 +
STACK CFI da04 .cfa: sp 0 +
STACK CFI da08 .cfa: x29 64 +
STACK CFI da38 .cfa: sp 64 +
STACK CFI da48 .cfa: sp 0 +
STACK CFI INIT e128 4 .cfa: sp 0 +
STACK CFI INIT e12c 14 .cfa: sp 0 +
STACK CFI e130 .cfa: sp 16 +
STACK CFI e134 .cfa: x29 16 + .ra: .cfa -8 + ^ x29: .cfa -16 + ^
STACK CFI INIT e140 14 .cfa: sp 0 +
STACK CFI e144 .cfa: sp 16 +
STACK CFI e148 .cfa: x29 16 + .ra: .cfa -8 + ^ x29: .cfa -16 + ^
STACK CFI INIT e154 c .cfa: sp 0 +
STACK CFI e158 .cfa: sp 16 +
STACK CFI e15c .cfa: x29 16 + .ra: .cfa -8 + ^ x29: .cfa -16 + ^
STACK CFI INIT e1b0 30 .cfa: sp 0 +
STACK CFI e1b4 .cfa: sp 32 +
STACK CFI e1bc .cfa: x29 32 + x19: .cfa -16 + ^ .ra: .cfa -24 + ^ x29: .cfa -32 + ^
STACK CFI e1d4 .cfa: sp 32 +
STACK CFI e1dc .cfa: sp 0 +
STACK CFI INIT e1e0 c .cfa: sp 0 +
STACK CFI e1e4 .cfa: sp 16 +
STACK CFI e1e8 .cfa: x29 16 + .ra: .cfa -8 + ^ x29: .cfa -16 + ^
STACK CFI INIT e1ec 4 .cfa: sp 0 +
STACK CFI INIT e1f0 4 .cfa: sp 0 +
STACK CFI INIT e1f4 38 .cfa: sp 0 +
STACK CFI e1f8 .cfa: sp 32 +
STACK CFI e200 .cfa: x29 32 + x19: .cfa -16 + ^ .ra: .cfa -24 + ^ x29: .cfa -32 + ^
STACK CFI e220 .cfa: sp 32 +
STACK CFI e228 .cfa: sp 0 +
STACK CFI INIT e22c 18 .cfa: sp 0 +
STACK CFI INIT e244 4 .cfa: sp 0 +
STACK CFI INIT e248 4 .cfa: sp 0 +
STACK CFI INIT e24c 10 .cfa: sp 0 +
STACK CFI INIT e25c 1c .cfa: sp 0 +
STACK CFI INIT e278 c .cfa: sp 0 +
STACK CFI INIT e284 168 .cfa: sp 0 +
STACK CFI e288 .cfa: sp 80 +
STACK CFI e29c .cfa: x29 80 + x19: .cfa -8 + ^ x20: .cfa -16 + ^ x21: .cfa -24 + ^ x22: .cfa -32 + ^ x23: .cfa -40 + ^ x24: .cfa -48 + ^ x25: .cfa -56 + ^ x26: .cfa -64 + ^ .ra: .cfa -72 + ^ x29: .cfa -80 + ^
STACK CFI e3d4 .cfa: sp 80 +
STACK CFI e3e8 .cfa: sp 0 +
STACK CFI INIT e3ec 1b0 .cfa: sp 0 +
STACK CFI INIT e8e8 4 .cfa: sp 0 +
STACK CFI INIT ecd0 4 .cfa: sp 0 +
STACK CFI INIT ecd4 3c .cfa: sp 0 +
STACK CFI ecd8 .cfa: sp 32 +
STACK CFI ece0 .cfa: x29 32 + x19: .cfa -16 + ^ .ra: .cfa -24 + ^ x29: .cfa -32 + ^
STACK CFI ecec .cfa: sp 32 +
STACK CFI ecf4 .cfa: sp 0 +
STACK CFI ecf8 .cfa: x29 32 +
STACK CFI ed04 .cfa: sp 32 +
STACK CFI ed0c .cfa: sp 0 +
STACK CFI INIT ef30 64 .cfa: sp 0 +
STACK CFI ef34 .cfa: sp 32 +
STACK CFI ef3c .cfa: x29 32 + x19: .cfa -16 + ^ .ra: .cfa -24 + ^ x29: .cfa -32 + ^
STACK CFI ef68 .cfa: sp 32 +
STACK CFI ef70 .cfa: sp 0 +
STACK CFI ef74 .cfa: x29 32 +
STACK CFI ef88 .cfa: sp 32 +
STACK CFI ef90 .cfa: sp 0 +
STACK CFI INIT f6a8 4 .cfa: sp 0 +
STACK CFI INIT f6ac 14 .cfa: sp 0 +
STACK CFI INIT ab70 484 .cfa: sp 0 +
STACK CFI ab74 .cfa: sp 224 +
STACK CFI ab90 .cfa: x29 96 + x19: .cfa -8 + ^ x20: .cfa -16 + ^ x21: .cfa -24 + ^ x22: .cfa -32 + ^ x23: .cfa -40 + ^ x24: .cfa -48 + ^ x25: .cfa -56 + ^ x26: .cfa -64 + ^ x27: .cfa -72 + ^ x28: .cfa -80 + ^ .ra: .cfa -88 + ^ x29: .cfa -96 + ^
STACK CFI ae00 .cfa: sp 224 +
STACK CFI ae1c .cfa: sp 0 +
STACK CFI ae20 .cfa: x29 96 +
STACK CFI aeec .cfa: sp 224 +
STACK CFI af08 .cfa: sp 0 +
STACK CFI af0c .cfa: x29 96 +
STACK CFI INIT b00c 484 .cfa: sp 0 +
STACK CFI b010 .cfa: sp 224 +
STACK CFI b02c .cfa: x29 96 + x19: .cfa -8 + ^ x20: .cfa -16 + ^ x21: .cfa -24 + ^ x22: .cfa -32 + ^ x23: .cfa -40 + ^ x24: .cfa -48 + ^ x25: .cfa -56 + ^ x26: .cfa -64 + ^ x27: .cfa -72 + ^ x28: .cfa -80 + ^ .ra: .cfa -88 + ^ x29: .cfa -96 + ^
STACK CFI b29c .cfa: sp 224 +
STACK CFI b2b8 .cfa: sp 0 +
STACK CFI b2bc .cfa: x29 96 +
STACK CFI b388 .cfa: sp 224 +
STACK CFI b3a4 .cfa: sp 0 +
STACK CFI b3a8 .cfa: x29 96 +
STACK CFI INIT b4a8 8ec .cfa: sp 0 +
STACK CFI b4ac .cfa: sp 240 +
STACK CFI b4c8 .cfa: x29 96 + x19: .cfa -8 + ^ x20: .cfa -16 + ^ x21: .cfa -24 + ^ x22: .cfa -32 + ^ x23: .cfa -40 + ^ x24: .cfa -48 + ^ x25: .cfa -56 + ^ x26: .cfa -64 + ^ x27: .cfa -80 + ^ .ra: .cfa -88 + ^ x29: .cfa -96 + ^
STACK CFI bae0 .cfa: sp 240 +
STACK CFI bafc .cfa: sp 0 +
STACK CFI bb00 .cfa: x29 96 +
STACK CFI INIT bde4 74 .cfa: sp 0 +
STACK CFI bde8 .cfa: sp 48 +
STACK CFI bdf4 .cfa: x29 32 + x19: .cfa -8 + ^ x20: .cfa -16 + ^ .ra: .cfa -24 + ^ x29: .cfa -32 + ^
STACK CFI be40 .cfa: sp 48 +
STACK CFI be4c .cfa: sp 0 +
STACK CFI be50 .cfa: x29 32 +
STACK CFI INIT bee8 154 .cfa: sp 0 +
STACK CFI beec .cfa: sp 384 +
STACK CFI bf00 .cfa: x29 64 + x19: .cfa -8 + ^ x20: .cfa -16 + ^ x21: .cfa -24 + ^ x22: .cfa -32 + ^ x23: .cfa -40 + ^ x28: .cfa -48 + ^ .ra: .cfa -56 + ^ x29: .cfa -64 + ^
STACK CFI bfe4 .cfa: sp 384 +
STACK CFI bff8 .cfa: sp 0 +
STACK CFI bffc .cfa: x29 64 +
STACK CFI INIT c070 12c .cfa: sp 0 +
STACK CFI c074 .cfa: sp 80 +
STACK CFI c088 .cfa: x29 80 + x19: .cfa -8 + ^ x20: .cfa -16 + ^ x21: .cfa -24 + ^ x22: .cfa -32 + ^ x23: .cfa -40 + ^ x24: .cfa -48 + ^ x25: .cfa -56 + ^ x26: .cfa -64 + ^ .ra: .cfa -72 + ^ x29: .cfa -80 + ^
STACK CFI c150 .cfa: sp 80 +
STACK CFI c164 .cfa: sp 0 +
STACK CFI c168 .cfa: x29 80 +
STACK CFI INIT c240 1a4 .cfa: sp 0 +
STACK CFI c244 .cfa: sp 112 +
STACK CFI c25c .cfa: x29 80 + x19: .cfa -8 + ^ x20: .cfa -16 + ^ x21: .cfa -24 + ^ x22: .cfa -32 + ^ x23: .cfa -40 + ^ x24: .cfa -48 + ^ x25: .cfa -56 + ^ x26: .cfa -64 + ^ .ra: .cfa -72 + ^ x29: .cfa -80 + ^
STACK CFI c34c .cfa: sp 112 +
STACK CFI c364 .cfa: sp 0 +
STACK CFI c368 .cfa: x29 80 +
STACK CFI INIT c3e4 1dc .cfa: sp 0 +
STACK CFI c3e8 .cfa: sp 128 +
STACK CFI c404 .cfa: x29 96 + x19: .cfa -8 + ^ x20: .cfa -16 + ^ x21: .cfa -24 + ^ x22: .cfa -32 + ^ x23: .cfa -40 + ^ x24: .cfa -48 + ^ x25: .cfa -56 + ^ x26: .cfa -64 + ^ x27: .cfa -80 + ^ .ra: .cfa -88 + ^ x29: .cfa -96 + ^
STACK CFI c570 .cfa: sp 128 +
STACK CFI c58c .cfa: sp 0 +
STACK CFI c590 .cfa: x29 96 +
STACK CFI INIT c5d4 50 .cfa: sp 0 +
STACK CFI c5d8 .cfa: sp 32 +
STACK CFI c5e0 .cfa: x29 32 + x19: .cfa -8 + ^ x20: .cfa -16 + ^ .ra: .cfa -24 + ^ x29: .cfa -32 + ^
STACK CFI INIT c688 178 .cfa: sp 0 +
STACK CFI c68c .cfa: sp 80 +
STACK CFI c6a0 .cfa: x29 80 + x19: .cfa -8 + ^ x20: .cfa -16 + ^ x21: .cfa -24 + ^ x22: .cfa -32 + ^ x23: .cfa -40 + ^ x24: .cfa -48 + ^ x25: .cfa -64 + ^ .ra: .cfa -72 + ^ x29: .cfa -80 + ^
STACK CFI c7cc .cfa: sp 80 +
STACK CFI c7e0 .cfa: sp 0 +
STACK CFI c7e4 .cfa: x29 80 +
STACK CFI INIT c948 224 .cfa: sp 0 +
STACK CFI c94c .cfa: sp 128 +
STACK CFI c964 .cfa: x29 80 + x19: .cfa -8 + ^ x20: .cfa -16 + ^ x21: .cfa -24 + ^ x22: .cfa -32 + ^ x23: .cfa -40 + ^ x24: .cfa -48 + ^ x25: .cfa -64 + ^ .ra: .cfa -72 + ^ x29: .cfa -80 + ^
STACK CFI cb00 .cfa: sp 128 +
STACK CFI cb18 .cfa: sp 0 +
STACK CFI cb1c .cfa: x29 80 +
STACK CFI INIT d2c8 2a8 .cfa: sp 0 +
STACK CFI d2cc .cfa: sp 128 +
STACK CFI d2e8 .cfa: x29 80 + x19: .cfa -8 + ^ x20: .cfa -16 + ^ x21: .cfa -24 + ^ x22: .cfa -32 + ^ x23: .cfa -40 + ^ x24: .cfa -48 + ^ x25: .cfa -56 + ^ x26: .cfa -64 + ^ .ra: .cfa -72 + ^ x29: .cfa -80 + ^ v8: .cfa -96 + ^
STACK CFI d520 .cfa: sp 128 +
STACK CFI d53c .cfa: sp 0 +
STACK CFI d540 .cfa: x29 80 +
STACK CFI INIT d570 f4 .cfa: sp 0 +
STACK CFI d574 .cfa: sp 96 +
STACK CFI d588 .cfa: x29 64 + x19: .cfa -8 + ^ x20: .cfa -16 + ^ x21: .cfa -24 + ^ x22: .cfa -32 + ^ x23: .cfa -48 + ^ .ra: .cfa -56 + ^ x29: .cfa -64 + ^
STACK CFI d614 .cfa: sp 96 +
STACK CFI d628 .cfa: sp 0 +
STACK CFI d62c .cfa: x29 64 +
STACK CFI INIT da4c 18c .cfa: sp 0 +
STACK CFI da50 .cfa: sp 112 +
STACK CFI da60 .cfa: x29 48 + x19: .cfa -8 + ^ x20: .cfa -16 + ^ x21: .cfa -32 + ^ .ra: .cfa -40 + ^ x29: .cfa -48 + ^
STACK CFI db30 .cfa: sp 112 +
STACK CFI db40 .cfa: sp 0 +
STACK CFI db44 .cfa: x29 48 +
STACK CFI INIT dbd8 444 .cfa: sp 0 +
STACK CFI dbdc .cfa: sp 176 +
STACK CFI dbf8 .cfa: x29 96 + x19: .cfa -8 + ^ x20: .cfa -16 + ^ x21: .cfa -24 + ^ x22: .cfa -32 + ^ x23: .cfa -40 + ^ x24: .cfa -48 + ^ x25: .cfa -56 + ^ x26: .cfa -64 + ^ x27: .cfa -72 + ^ x28: .cfa -80 + ^ .ra: .cfa -88 + ^ x29: .cfa -96 + ^
STACK CFI dc38 .cfa: sp 176 +
STACK CFI dc54 .cfa: sp 0 +
STACK CFI dc58 .cfa: x29 96 +
STACK CFI INIT e01c 10c .cfa: sp 0 +
STACK CFI e020 .cfa: sp 64 +
STACK CFI e030 .cfa: x29 64 + x19: .cfa -8 + ^ x20: .cfa -16 + ^ x21: .cfa -24 + ^ x22: .cfa -32 + ^ x23: .cfa -48 + ^ .ra: .cfa -56 + ^ x29: .cfa -64 + ^
STACK CFI e108 .cfa: sp 64 +
STACK CFI e118 .cfa: sp 0 +
STACK CFI e11c .cfa: x29 64 +
STACK CFI INIT e160 50 .cfa: sp 0 +
STACK CFI e164 .cfa: sp 32 +
STACK CFI e16c .cfa: x29 32 + x19: .cfa -8 + ^ x20: .cfa -16 + ^ .ra: .cfa -24 + ^ x29: .cfa -32 + ^
STACK CFI INIT e59c 34c .cfa: sp 0 +
STACK CFI e5a0 .cfa: sp 208 +
STACK CFI e5b4 .cfa: x29 64 + x19: .cfa -8 + ^ x20: .cfa -16 + ^ x21: .cfa -24 + ^ x22: .cfa -32 + ^ x23: .cfa -40 + ^ x24: .cfa -48 + ^ .ra: .cfa -56 + ^ x29: .cfa -64 + ^
STACK CFI e7c4 .cfa: sp 208 +
STACK CFI e7d8 .cfa: sp 0 +
STACK CFI e7dc .cfa: x29 64 +
STACK CFI INIT e8ec 258 .cfa: sp 0 +
STACK CFI e8f0 .cfa: sp 112 +
STACK CFI e908 .cfa: x29 64 + x19: .cfa -8 + ^ x20: .cfa -16 + ^ x21: .cfa -24 + ^ x22: .cfa -32 + ^ x23: .cfa -40 + ^ x24: .cfa -48 + ^ .ra: .cfa -56 + ^ x29: .cfa -64 + ^ v8: .cfa -80 + ^
STACK CFI eaf8 .cfa: sp 112 +
STACK CFI eb10 .cfa: sp 0 +
STACK CFI eb14 .cfa: x29 64 +
STACK CFI INIT eb44 18c .cfa: sp 0 +
STACK CFI eb48 .cfa: sp 112 +
STACK CFI eb58 .cfa: x29 48 + x19: .cfa -8 + ^ x20: .cfa -16 + ^ x21: .cfa -32 + ^ .ra: .cfa -40 + ^ x29: .cfa -48 + ^
STACK CFI ec28 .cfa: sp 112 +
STACK CFI ec38 .cfa: sp 0 +
STACK CFI ec3c .cfa: x29 48 +
STACK CFI INIT ed10 134 .cfa: sp 0 +
STACK CFI ed14 .cfa: sp 80 +
STACK CFI ed20 .cfa: x29 32 + x19: .cfa -8 + ^ x20: .cfa -16 + ^ .ra: .cfa -24 + ^ x29: .cfa -32 + ^
STACK CFI ed50 .cfa: sp 80 +
STACK CFI ed5c .cfa: sp 0 +
STACK CFI ed60 .cfa: x29 32 +
STACK CFI INIT ee44 78 .cfa: sp 0 +
STACK CFI ee48 .cfa: sp 32 +
STACK CFI ee50 .cfa: x29 32 + x19: .cfa -8 + ^ x20: .cfa -16 + ^ .ra: .cfa -24 + ^ x29: .cfa -32 + ^
STACK CFI ee5c .cfa: sp 32 +
STACK CFI ee64 .cfa: sp 0 +
STACK CFI ee68 .cfa: x29 32 +
STACK CFI INIT eebc 74 .cfa: sp 0 +
STACK CFI eec0 .cfa: sp 48 +
STACK CFI eecc .cfa: x29 32 + x19: .cfa -8 + ^ x20: .cfa -16 + ^ .ra: .cfa -24 + ^ x29: .cfa -32 + ^
STACK CFI ef18 .cfa: sp 48 +
STACK CFI ef24 .cfa: sp 0 +
STACK CFI ef28 .cfa: x29 32 +
STACK CFI INIT ef94 198 .cfa: sp 0 +
STACK CFI ef98 .cfa: sp 144 +
STACK CFI efac .cfa: x29 64 + x19: .cfa -8 + ^ x20: .cfa -16 + ^ x21: .cfa -24 + ^ x22: .cfa -32 + ^ x23: .cfa -40 + ^ x24: .cfa -48 + ^ .ra: .cfa -56 + ^ x29: .cfa -64 + ^
STACK CFI f020 .cfa: sp 144 +
STACK CFI f034 .cfa: sp 0 +
STACK CFI f038 .cfa: x29 64 +
STACK CFI INIT f12c 2c0 .cfa: sp 0 +
STACK CFI f130 .cfa: sp 96 +
STACK CFI f148 .cfa: x29 80 + x19: .cfa -8 + ^ x20: .cfa -16 + ^ x21: .cfa -24 + ^ x22: .cfa -32 + ^ x23: .cfa -40 + ^ x24: .cfa -48 + ^ x25: .cfa -64 + ^ .ra: .cfa -72 + ^ x29: .cfa -80 + ^
STACK CFI f388 .cfa: sp 96 +
STACK CFI f3a0 .cfa: sp 0 +
STACK CFI f3a4 .cfa: x29 80 +
STACK CFI INIT f3ec 154 .cfa: sp 0 +
STACK CFI f3f0 .cfa: sp 384 +
STACK CFI f404 .cfa: x29 64 + x19: .cfa -8 + ^ x20: .cfa -16 + ^ x21: .cfa -24 + ^ x22: .cfa -32 + ^ x23: .cfa -40 + ^ x28: .cfa -48 + ^ .ra: .cfa -56 + ^ x29: .cfa -64 + ^
STACK CFI f4e8 .cfa: sp 384 +
STACK CFI f4fc .cfa: sp 0 +
STACK CFI f500 .cfa: x29 64 +
STACK CFI INIT f540 168 .cfa: sp 0 +
STACK CFI f544 .cfa: sp 384 +
STACK CFI f558 .cfa: x29 64 + x19: .cfa -8 + ^ x20: .cfa -16 + ^ x21: .cfa -24 + ^ x22: .cfa -32 + ^ x23: .cfa -40 + ^ x28: .cfa -48 + ^ .ra: .cfa -56 + ^ x29: .cfa -64 + ^
STACK CFI f650 .cfa: sp 384 +
STACK CFI f664 .cfa: sp 0 +
STACK CFI f668 .cfa: x29 64 +
