MODULE Linux arm64 3EAF16870986E05F0E150F4C5C9A8DCC0 saumondeluxe.rainbow_icon.android64.so
INFO CODE_ID 8716AF3E86095FE00E150F4C5C9A8DCC45B6287A
INFO GENERATOR mozilla/dump_syms 2.3.4
FILE 0 /home/runner/work/Rainbow-Icon/Rainbow-Icon/geode-sdk-clone/loader/include/Geode/utils/addresser.hpp
FILE 1 /home/runner/work/Rainbow-Icon/Rainbow-Icon/geode-sdk-clone/loader/include/Geode/c++stl/gnustl-map.hpp
FILE 2 /home/runner/work/Rainbow-Icon/Rainbow-Icon/geode-sdk-clone/loader/include/Geode/platform/ItaniumCast.hpp
FILE 3 /usr/local/lib/android/sdk/ndk/27.2.12479018/toolchains/llvm/prebuilt/linux-x86_64/sysroot/usr/include/c++/v1/ostream
FILE 4 /usr/local/lib/android/sdk/ndk/27.2.12479018/toolchains/llvm/prebuilt/linux-x86_64/sysroot/usr/include/c++/v1/variant
FILE 5 /usr/local/lib/android/sdk/ndk/27.2.12479018/toolchains/llvm/prebuilt/linux-x86_64/sysroot/usr/include/c++/v1/locale
FILE 6 /usr/local/lib/android/sdk/ndk/27.2.12479018/toolchains/llvm/prebuilt/linux-x86_64/sysroot/usr/include/c++/v1/stdexcept
FILE 7 /usr/local/lib/android/sdk/ndk/27.2.12479018/toolchains/llvm/prebuilt/linux-x86_64/sysroot/usr/include/c++/v1/__tree
FILE 8 /usr/local/lib/android/sdk/ndk/27.2.12479018/toolchains/llvm/prebuilt/linux-x86_64/sysroot/usr/include/c++/v1/new
FILE 9 /home/runner/work/Rainbow-Icon/Rainbow-Icon/build/bindings/bindings/Geode/modify/PlayerObject.hpp
FILE 10 /home/runner/work/Rainbow-Icon/Rainbow-Icon/build/bindings/bindings/Geode/modify/PlayLayer.hpp
FILE 11 /home/runner/work/Rainbow-Icon/Rainbow-Icon/build/bindings/bindings/Geode/modify/LevelEditorLayer.hpp
FILE 12 /home/runner/work/Rainbow-Icon/Rainbow-Icon/build/bindings/bindings/Geode/modify/EditorPauseLayer.hpp
FILE 13 /home/runner/work/Rainbow-Icon/Rainbow-Icon/build/bindings/bindings/Geode/modify/PauseLayer.hpp
FILE 14 /home/runner/work/Rainbow-Icon/Rainbow-Icon/src/main.cpp
FILE 15 /home/runner/work/Rainbow-Icon/Rainbow-Icon/geode-sdk-clone/loader/include/Geode/modify/Modify.hpp
FILE 16 /usr/local/lib/android/sdk/ndk/27.2.12479018/toolchains/llvm/prebuilt/linux-x86_64/sysroot/usr/include/c++/v1/vector
FILE 17 /usr/local/lib/android/sdk/ndk/27.2.12479018/toolchains/llvm/prebuilt/linux-x86_64/sysroot/usr/include/c++/v1/string
FILE 18 /home/runner/work/Rainbow-Icon/Rainbow-Icon/cpm-cache/result/28b1b03e0682509636d5e5825265ce2421aac4dc/include/Geode/Result.hpp
FILE 19 /usr/local/lib/android/sdk/ndk/27.2.12479018/toolchains/llvm/prebuilt/linux-x86_64/sysroot/usr/include/c++/v1/__memory/shared_ptr.h
FILE 20 /usr/local/lib/android/sdk/ndk/27.2.12479018/toolchains/llvm/prebuilt/linux-x86_64/sysroot/usr/include/c++/v1/sstream
FILE 21 /usr/local/lib/android/sdk/ndk/27.2.12479018/toolchains/llvm/prebuilt/linux-x86_64/sysroot/usr/include/c++/v1/__split_buffer
FILE 22 /home/runner/work/Rainbow-Icon/Rainbow-Icon/cpm-cache/tuliphook/727bc6fdab39f84eb52f1519195d5488a312e77e/include/tulip/HandlerData.hpp
FILE 23 /home/runner/work/Rainbow-Icon/Rainbow-Icon/build/bindings/bindings/Geode/binding/PlayLayer.hpp
FILE 24 /home/runner/work/Rainbow-Icon/Rainbow-Icon/geode-sdk-clone/loader/include/Geode/loader/Mod.hpp
FILE 25 /home/runner/work/Rainbow-Icon/Rainbow-Icon/build/bindings/bindings/Geode/binding/GJBaseGameLayer.hpp
FILE 26 /home/runner/work/Rainbow-Icon/Rainbow-Icon/build/bindings/bindings/Geode/binding/GJGameState.hpp
FILE 27 /home/runner/work/Rainbow-Icon/Rainbow-Icon/geode-sdk-clone/loader/include/Geode/c++stl/gnustl/unordered_map.h
FILE 28 /home/runner/work/Rainbow-Icon/Rainbow-Icon/geode-sdk-clone/loader/include/Geode/c++stl/gnustl/unordered_set.h
FILE 29 /home/runner/work/Rainbow-Icon/Rainbow-Icon/geode-sdk-clone/loader/include/Geode/c++stl/gnustl.hpp
FILE 30 /home/runner/work/Rainbow-Icon/Rainbow-Icon/geode-sdk-clone/loader/include/Geode/c++stl/gnustl/hashtable_policy.h
FILE 31 /usr/local/lib/android/sdk/ndk/27.2.12479018/toolchains/llvm/prebuilt/linux-x86_64/sysroot/usr/include/c++/v1/__utility/pair.h
FILE 32 /home/runner/work/Rainbow-Icon/Rainbow-Icon/build/bindings/bindings/Geode/binding/LevelEditorLayer.hpp
FILE 33 /home/runner/work/Rainbow-Icon/Rainbow-Icon/build/bindings/bindings/Geode/binding/PauseLayer.hpp
FILE 34 /home/runner/work/Rainbow-Icon/Rainbow-Icon/geode-sdk-clone/entry.cpp
FILE 35 /home/runner/work/Rainbow-Icon/Rainbow-Icon/build/bindings/bindings/Geode/GeneratedSource.cpp
FILE 36 /usr/local/lib/android/sdk/ndk/27.2.12479018/toolchains/llvm/prebuilt/linux-x86_64/sysroot/usr/include/c++/v1/unordered_map
FILE 37 /home/runner/work/Rainbow-Icon/Rainbow-Icon/cpm-cache/tuliphook/727bc6fdab39f84eb52f1519195d5488a312e77e/include/tulip/WrapperData.hpp
FILE 38 /usr/local/lib/android/sdk/ndk/27.2.12479018/toolchains/llvm/prebuilt/linux-x86_64/sysroot/usr/include/c++/v1/__hash_table
FILE 39 /home/runner/work/Rainbow-Icon/Rainbow-Icon/cpm-cache/tuliphook/727bc6fdab39f84eb52f1519195d5488a312e77e/include/tulip/AbstractFunction.hpp
FILE 40 /home/runner/work/Rainbow-Icon/Rainbow-Icon/geode-sdk-clone/loader/include/Geode/cocos/cocoa/CCObject.h
FILE 41 /home/runner/work/Rainbow-Icon/Rainbow-Icon/geode-sdk-clone/loader/include/Geode/cocos/robtop/keyboard_dispatcher/CCKeyboardDelegate.h
FILE 42 /home/runner/work/Rainbow-Icon/Rainbow-Icon/geode-sdk-clone/loader/include/Geode/cocos/robtop/mouse_dispatcher/CCMouseDelegate.h
PUBLIC 11020 0 __on_dlclose
PUBLIC 11030 0 __emutls_unregister_key
PUBLIC 11038 0 __on_dlclose_late
PUBLIC 11040 0 __atexit_handler_wrapper
PUBLIC 11054 0 atexit
PUBLIC 11070 0 pthread_atfork
PUBLIC 11080 0 unwind_phase2
PUBLIC 111b4 0 _Unwind_Resume
PUBLIC 11238 0 unwind_phase2_forced
PUBLIC m 1132c 0 __unw_init_local
PUBLIC m 113d4 0 __unw_get_reg
PUBLIC 11450 0 __unw_step_stage2
PUBLIC m 11464 0 __unw_get_proc_info
PUBLIC m 114a4 0 __unw_resume
PUBLIC 114cc 0 libunwind::CFI_Parser<libunwind::LocalAddressSpace>::decodeFDE(libunwind::LocalAddressSpace&, unsigned long, libunwind::CFI_Parser<libunwind::LocalAddressSpace>::FDE_Info*, libunwind::CFI_Parser<libunwind::LocalAddressSpace>::CIE_Info*, bool)
PUBLIC 1165c 0 libunwind::CFI_Parser<libunwind::LocalAddressSpace>::parseCIE(libunwind::LocalAddressSpace&, unsigned long, libunwind::CFI_Parser<libunwind::LocalAddressSpace>::CIE_Info*)
PUBLIC 11924 0 libunwind::AbstractUnwindCursor::~AbstractUnwindCursor()
PUBLIC 1192c 0 libunwind::UnwindCursor<libunwind::LocalAddressSpace, libunwind::Registers_arm64>::~UnwindCursor()
PUBLIC 11934 0 libunwind::UnwindCursor<libunwind::LocalAddressSpace, libunwind::Registers_arm64>::validReg(int)
PUBLIC 11978 0 libunwind::UnwindCursor<libunwind::LocalAddressSpace, libunwind::Registers_arm64>::getReg(int)
PUBLIC 11a60 0 libunwind::UnwindCursor<libunwind::LocalAddressSpace, libunwind::Registers_arm64>::setReg(int, unsigned long)
PUBLIC 11b48 0 libunwind::UnwindCursor<libunwind::LocalAddressSpace, libunwind::Registers_arm64>::validFloatReg(int)
PUBLIC 11b5c 0 libunwind::UnwindCursor<libunwind::LocalAddressSpace, libunwind::Registers_arm64>::getFloatReg(int)
PUBLIC 11b6c 0 libunwind::UnwindCursor<libunwind::LocalAddressSpace, libunwind::Registers_arm64>::setFloatReg(int, double)
PUBLIC 11b7c 0 libunwind::UnwindCursor<libunwind::LocalAddressSpace, libunwind::Registers_arm64>::step(bool)
PUBLIC 11c6c 0 libunwind::UnwindCursor<libunwind::LocalAddressSpace, libunwind::Registers_arm64>::getInfo(unw_proc_info_t*)
PUBLIC 11cb0 0 libunwind::UnwindCursor<libunwind::LocalAddressSpace, libunwind::Registers_arm64>::jumpto()
PUBLIC 11cbc 0 libunwind::UnwindCursor<libunwind::LocalAddressSpace, libunwind::Registers_arm64>::isSignalFrame()
PUBLIC 11cc8 0 libunwind::UnwindCursor<libunwind::LocalAddressSpace, libunwind::Registers_arm64>::getFunctionName(char*, unsigned long, unsigned long*)
PUBLIC 11cf4 0 libunwind::UnwindCursor<libunwind::LocalAddressSpace, libunwind::Registers_arm64>::setInfoBasedOnIPRegister(bool)
PUBLIC 11f74 0 libunwind::UnwindCursor<libunwind::LocalAddressSpace, libunwind::Registers_arm64>::getRegisterName(int)
PUBLIC 11f80 0 libunwind::UnwindCursor<libunwind::LocalAddressSpace, libunwind::Registers_arm64>::stepThroughSigReturn(libunwind::Registers_arm64&)
PUBLIC 120a0 0 libunwind::DwarfInstructions<libunwind::LocalAddressSpace, libunwind::Registers_arm64>::stepWithDwarf(libunwind::LocalAddressSpace&, unsigned long, unsigned long, libunwind::Registers_arm64&, bool&, bool)
PUBLIC 12528 0 libunwind::CFI_Parser<libunwind::LocalAddressSpace>::parseFDEInstructions(libunwind::LocalAddressSpace&, libunwind::CFI_Parser<libunwind::LocalAddressSpace>::FDE_Info const&, libunwind::CFI_Parser<libunwind::LocalAddressSpace>::CIE_Info const&, unsigned long, int, libunwind::CFI_Parser<libunwind::LocalAddressSpace>::PrologInfo*)
PUBLIC 13170 0 libunwind::DwarfInstructions<libunwind::LocalAddressSpace, libunwind::Registers_arm64>::getCFA(libunwind::LocalAddressSpace&, libunwind::CFI_Parser<libunwind::LocalAddressSpace>::PrologInfo const&, libunwind::Registers_arm64 const&)
PUBLIC 132a4 0 libunwind::DwarfInstructions<libunwind::LocalAddressSpace, libunwind::Registers_arm64>::getSavedRegister(libunwind::LocalAddressSpace&, libunwind::Registers_arm64 const&, unsigned long, libunwind::CFI_Parser<libunwind::LocalAddressSpace>::RegisterLocation const&)
PUBLIC 134b4 0 libunwind::LocalAddressSpace::getEncodedP(unsigned long&, unsigned long, unsigned char, unsigned long)
PUBLIC 13840 0 libunwind::LocalAddressSpace::getULEB128(unsigned long&, unsigned long)
PUBLIC 13a08 0 libunwind::DwarfInstructions<libunwind::LocalAddressSpace, libunwind::Registers_arm64>::evaluateExpression(unsigned long, libunwind::LocalAddressSpace&, libunwind::Registers_arm64 const&, unsigned long)
PUBLIC 143c4 0 libunwind::UnwindCursor<libunwind::LocalAddressSpace, libunwind::Registers_arm64>::getInfoFromDwarfSection(unsigned long, libunwind::UnwindInfoSections const&, unsigned int)
PUBLIC 14698 0 libunwind::findUnwindSectionsByPhdr(dl_phdr_info*, unsigned long, void*)
PUBLIC 147cc 0 libunwind::EHHeaderParser<libunwind::LocalAddressSpace>::decodeEHHdr(libunwind::LocalAddressSpace&, unsigned long, unsigned long, libunwind::EHHeaderParser<libunwind::LocalAddressSpace>::EHHeaderInfo&)
PUBLIC 148ec 0 libunwind::CFI_Parser<libunwind::LocalAddressSpace>::findFDE(libunwind::LocalAddressSpace&, unsigned long, unsigned long, unsigned long, unsigned long, libunwind::CFI_Parser<libunwind::LocalAddressSpace>::FDE_Info*, libunwind::CFI_Parser<libunwind::LocalAddressSpace>::CIE_Info*)
PUBLIC 14ab4 0 libunwind::EHHeaderParser<libunwind::LocalAddressSpace>::findFDE(libunwind::LocalAddressSpace&, unsigned long, unsigned long, unsigned int, libunwind::CFI_Parser<libunwind::LocalAddressSpace>::FDE_Info*, libunwind::CFI_Parser<libunwind::LocalAddressSpace>::CIE_Info*)
PUBLIC 14c1c 0 libunwind::EHHeaderParser<libunwind::LocalAddressSpace>::getTableEntrySize(unsigned char)
PUBLIC 14d18 0 libunwind::Registers_arm64::getRegisterName(int)
PUBLIC 14d48 0 __libunwind_Registers_arm64_jumpto
PUBLIC m 14dd8 0 __unw_getcontext
PUBLIC 14e80 0 __aarch64_ldadd8_relax
PUBLIC 14eb0 0 init_have_lse_atomics
PUBLIC 14f48 0 __init_cpu_features_constructor
PUBLIC 154e4 0 __init_cpu_features
PUBLIC 15570 0 __aarch64_ldadd8_acq_rel
FUNC 155a0 188 0 getRainbow(float, float, float)
155a0 10 74 14
155b0 144 76 14
156f4 4 80 14
156f8 4 81 14
156fc 4 79 14
15700 4 80 14
15704 4 81 14
15708 4 79 14
1570c 1c 83 14
FUNC 15728 34 0 __cxx_global_var_init
15728 34 387 15
FUNC 1575c 41c 0 __cxx_global_var_init.1
15780 3f8 387 15
FUNC 15b78 41c 0 __cxx_global_var_init.2
15b9c 3f8 387 15
FUNC 15f94 18 0 geode::modifier::ModifyBase<geode::modifier::ModifyDerive<hook98<(anonymous namespace)::hook98Parent>, PlayerObject> >::~ModifyBase()
15f94 18 141 15
FUNC 15fac 18 0 geode::modifier::ModifyBase<geode::modifier::ModifyDerive<hook103<(anonymous namespace)::hook103Parent>, PlayLayer> >::~ModifyBase()
15fac 18 141 15
FUNC 15fc4 18 0 geode::modifier::ModifyBase<geode::modifier::ModifyDerive<hook237<(anonymous namespace)::hook237Parent>, LevelEditorLayer> >::~ModifyBase()
15fc4 18 141 15
FUNC 15fdc 444 0 __cxx_global_var_init.3
16018 408 387 15
FUNC 16420 18 0 geode::modifier::ModifyBase<geode::modifier::ModifyDerive<SettingsBTN, EditorPauseLayer> >::~ModifyBase()
16420 18 141 15
FUNC 16438 444 0 __cxx_global_var_init.4
16474 408 387 15
FUNC 1687c 18 0 geode::modifier::ModifyBase<geode::modifier::ModifyDerive<OpenSettings, PauseLayer> >::~ModifyBase()
1687c 18 141 15
FUNC 16894 4 0 geode::modifier::ModifyDerive<hook98<(anonymous namespace)::hook98Parent>, PlayerObject>::apply()
16894 4 2426 9
FUNC 16898 50 0 std::__ndk1::shared_ptr<geode::Hook>::~shared_ptr[abi:ne180000]()
16898 c 643 19
168a4 8 644 19
168ac 10 645 19
168bc c 646 19
168c8 20 645 19
FUNC 168e8 74 0 geode::impl::ResultData<geode::Hook*, std::__ndk1::basic_string<char, std::__ndk1::char_traits<char>, std::__ndk1::allocator<char> > >::~ResultData()
168e8 74 334 18
FUNC 1695c 7c 0 std::__ndk1::vector<std::__ndk1::basic_string<char, std::__ndk1::char_traits<char>, std::__ndk1::allocator<char> >, std::__ndk1::allocator<std::__ndk1::basic_string<char, std::__ndk1::char_traits<char>, std::__ndk1::allocator<char> > > >::~vector[abi:ne180000]()
1695c 7c 501 16
FUNC 169d8 4 0 geode::modifier::ModifyBase<geode::modifier::ModifyDerive<hook98<(anonymous namespace)::hook98Parent>, PlayerObject> >::apply()
169d8 4 357 15
PUBLIC 169dc 0 __clang_call_terminate
FUNC 169ec 154 0 _ZN5geode15UnwrapExceptionC2IRPNS_4HookEQsr4implE18IsStringStreamableIT_EEENS_4impl5OkTagEOS5_
169ec 20 316 18
16a0c 48 315 18
16a54 5c 314 18
16ab0 4 315 18
16ab4 18 314 18
16acc 34 316 18
16b00 40 314 18
FUNC 16b40 34 0 std::__ndk1::__throw_bad_variant_access[abi:ne180000]()
16b40 8 285 4
16b48 2c 287 4
FUNC 16b74 124 0 std::__ndk1::basic_stringstream<char, std::__ndk1::char_traits<char>, std::__ndk1::allocator<char> >::basic_stringstream[abi:ne180000]()
16b74 124 1010 20
FUNC 16c98 80 0 std::__ndk1::basic_stringstream<char, std::__ndk1::char_traits<char>, std::__ndk1::allocator<char> >::~basic_stringstream()
16c98 80 1102 20
FUNC 16d18 24 0 geode::UnwrapException::~UnwrapException()
16d18 24 325 18
FUNC 16d3c 198 0 std::__ndk1::__put_character_sequence[abi:ne180000]<char, std::__ndk1::char_traits<char> >(std::__ndk1::basic_ostream<char, std::__ndk1::char_traits<char> >, std::__ndk1::basic_ostream const*, unsigned long)
16d3c 34 665 3
16d70 c 669 3
16d7c 8 670 3
16d84 c 673 3
16d90 4 678 3
16d94 4 673 3
16d98 4 675 3
16d9c 54 678 3
16df0 10 675 3
16e00 10 672 3
16e10 1c 680 3
16e2c 8 683 3
16e34 38 687 3
16e6c 10 678 3
16e7c 18 683 3
16e94 10 684 3
16ea4 30 685 3
FUNC 16ed4 1b4 0 std::__ndk1::__pad_and_output[abi:ne180000]<char, std::__ndk1::char_traits<char> >(std::__ndk1::char_traits<char>, std::__ndk1::ostreambuf_iterator const*, std::__ndk1::ostreambuf_iterator const, std::__ndk1::ostreambuf_iterator const, std::__ndk1::ios_base&, std::__ndk1::ostreambuf_iterator)
16ed4 30 1246 5
16f04 4 1247 5
16f08 4 1250 5
16f0c 4 1249 5
16f10 10 1255 5
16f20 c 1251 5
16f2c 8 1256 5
16f34 1c 1257 5
16f50 8 1262 5
16f58 4c 1263 5
16fa4 2c 1264 5
16fd0 1c 1268 5
16fec 4 1269 5
16ff0 8 1270 5
16ff8 20 1271 5
17018 c 1276 5
17024 34 1278 5
17058 30 1268 5
FUNC 17088 14 0 std::__ndk1::basic_string<char, std::__ndk1::char_traits<char>, std::__ndk1::allocator<char> >::__throw_length_error[abi:ne180000]() const
17088 8 2118 17
17090 c 2119 17
FUNC 1709c 50 0 std::__ndk1::__throw_length_error[abi:ne180000](char const*)
1709c 10 239 6
170ac 40 241 6
FUNC 170ec 30 0 std::length_error::length_error[abi:ne180000](char const*)
170ec 30 152 6
FUNC 1711c 34 0 std::__throw_bad_array_new_length([abi:ne180000], void)
1711c c 172 8
17128 28 174 8
FUNC 17150 15c 0 std::__ndk1::basic_stringbuf<char, std::__ndk1::char_traits<char>, std::__ndk1::allocator<char> >::str[abi:ne180000]() &&
17150 18 396 20
17168 40 397 20
171a8 8 398 20
171b0 8 402 20
171b8 4 398 20
171bc 4 402 20
171c0 4 398 20
171c4 c 402 20
171d0 4 398 20
171d4 8 402 20
171dc 4 398 20
171e0 4 402 20
171e4 4 398 20
171e8 3c 402 20
17224 4 401 20
17228 30 402 20
17258 1c 403 20
17274 4 404 20
17278 34 406 20
FUNC 172ac 148 0 std::__ndk1::basic_stringbuf<char, std::__ndk1::char_traits<char>, std::__ndk1::allocator<char> >::__init_buf_ptrs[abi:ne180000]()
172ac 10 626 20
172bc 8 628 20
172c4 4 630 20
172c8 4 628 20
172cc 4 627 20
172d0 8 629 20
172d8 4 628 20
172dc 4 629 20
172e0 4 630 20
172e4 4 631 20
172e8 4 632 20
172ec 4 631 20
172f0 4 632 20
172f4 4 634 20
172f8 20 636 20
17318 4 635 20
1731c 4 636 20
17320 4 635 20
17324 3c 636 20
17360 14 637 20
17374 4 638 20
17378 4 637 20
1737c 4 638 20
17380 8 637 20
17388 4 638 20
1738c 48 639 20
173d4 4 640 20
173d8 4 643 20
173dc 8 644 20
173e4 10 647 20
FUNC 173f4 218 0 std::__ndk1::vector<std::__ndk1::basic_string<char, std::__ndk1::char_traits<char>, std::__ndk1::allocator<char> >, std::__ndk1::allocator<std::__ndk1::basic_string<char, std::__ndk1::char_traits<char>, std::__ndk1::allocator<char> > > >::__push_back_slow_path<std::__ndk1::basic_string<char, std::__ndk1::char_traits<char>, std::__ndk1::allocator<char> > const&>(std::__ndk1::basic_string<char, std::__ndk1::char_traits<char>, std::__ndk1::allocator<char> > const&)
173f4 30 1449 16
17424 94 1451 16
174b8 4 1453 16
174bc 4 1451 16
174c0 24 1453 16
174e4 4 1455 16
174e8 4 1454 16
174ec 4 1455 16
174f0 4 1454 16
174f4 44 1455 16
17538 4 1457 16
1753c 10 1455 16
1754c 70 1457 16
175bc 2c 1451 16
175e8 24 1457 16
FUNC 1760c 70 0 std::__ndk1::basic_string<char, std::__ndk1::char_traits<char>, std::__ndk1::allocator<char> >::__init_copy_ctor_external(char const*, unsigned long)
1760c 14 2232 17
17620 8 2237 17
17628 10 2239 17
17638 8 2241 17
17640 10 2243 17
17650 8 2247 17
17658 4 2246 17
1765c 4 2247 17
17660 14 2250 17
17674 8 2242 17
FUNC 1767c 68 0 std::__ndk1::__split_buffer<std::__ndk1::basic_string<char, std::__ndk1::char_traits<char>, std::__ndk1::allocator<char> >, std::__ndk1::allocator<std::__ndk1::basic_string<char, std::__ndk1::char_traits<char>, std::__ndk1::allocator<char> > >&>::~__split_buffer()
1767c c 352 21
17688 10 353 21
17698 8 354 21
176a0 c 355 21
176ac 2c 353 21
176d8 c 356 21
FUNC 176e4 14 0 std::__ndk1::vector<std::__ndk1::basic_string<char, std::__ndk1::char_traits<char>, std::__ndk1::allocator<char> >, std::__ndk1::allocator<std::__ndk1::basic_string<char, std::__ndk1::char_traits<char>, std::__ndk1::allocator<char> > > >::__throw_length_error[abi:ne180000]() const
176e4 14 940 16
FUNC 176f8 4 0 std::__ndk1::__variant_detail::__visitation::__base::__dispatcher<(unsigned long)0>::__dispatch[abi:ne180000]<std::__ndk1::__variant_detail::__dtor<std::__ndk1::__variant_detail::__traits<geode::Hook*, std::__ndk1::basic_string<char, std::__ndk1::char_traits<char>, std::__ndk1::allocator<char> > >, (std::__ndk1::__variant_detail::_Trait)1>::__destroy[abi:ne180000]()::{lambda(auto:1&)#1}, std::__ndk1::__variant_detail::__base<(std::__ndk1::__variant_detail::__traits<geode::Hook*, std::__ndk1::basic_string<char, std::__ndk1::char_traits<char>, std::__ndk1::allocator<char> > >)1, geode::Hook, std::__ndk1::allocator<char> >&>(std::__ndk1::__variant_detail::__dtor<std::__ndk1::__variant_detail::__traits<geode::Hook*, std::__ndk1::basic_string<char, std::__ndk1::char_traits<char>, std::__ndk1::allocator<char> > >, (std::__ndk1::__variant_detail::_Trait)1>, std::__ndk1::__variant_detail::__base<(std::__ndk1::__variant_detail::__traits<geode::Hook*, std::__ndk1::basic_string<char, std::__ndk1::char_traits<char>, std::__ndk1::allocator<char> > >)1, geode::Hook, std::__ndk1::allocator<char> >&)
176f8 4 526 4
FUNC 176fc 14 0 std::__ndk1::__variant_detail::__visitation::__base::__dispatcher<(unsigned long)1>::__dispatch[abi:ne180000]<std::__ndk1::__variant_detail::__dtor<std::__ndk1::__variant_detail::__traits<geode::Hook*, std::__ndk1::basic_string<char, std::__ndk1::char_traits<char>, std::__ndk1::allocator<char> > >, (std::__ndk1::__variant_detail::_Trait)1>::__destroy[abi:ne180000]()::{lambda(auto:1&)#1}, std::__ndk1::__variant_detail::__base<(std::__ndk1::__variant_detail::__traits<geode::Hook*, std::__ndk1::basic_string<char, std::__ndk1::char_traits<char>, std::__ndk1::allocator<char> > >)1, geode::Hook, std::__ndk1::allocator<char> >&>(std::__ndk1::__variant_detail::__dtor<std::__ndk1::__variant_detail::__traits<geode::Hook*, std::__ndk1::basic_string<char, std::__ndk1::char_traits<char>, std::__ndk1::allocator<char> > >, (std::__ndk1::__variant_detail::_Trait)1>, std::__ndk1::__variant_detail::__base<(std::__ndk1::__variant_detail::__traits<geode::Hook*, std::__ndk1::basic_string<char, std::__ndk1::char_traits<char>, std::__ndk1::allocator<char> > >)1, geode::Hook, std::__ndk1::allocator<char> >&)
176fc 14 526 4
FUNC 17710 fc 0 std::__ndk1::__tree<std::__ndk1::__value_type<std::__ndk1::basic_string<char, std::__ndk1::char_traits<char>, std::__ndk1::allocator<char> >, std::__ndk1::shared_ptr<geode::Hook> >, std::__ndk1::__map_value_compare<std::__ndk1::basic_string<char, std::__ndk1::char_traits<char>, std::__ndk1::allocator<char> >, std::__ndk1::__value_type<std::__ndk1::basic_string<char, std::__ndk1::char_traits<char>, std::__ndk1::allocator<char> >, std::__ndk1::shared_ptr<geode::Hook> >, std::__ndk1::less<std::__ndk1::basic_string<char, std::__ndk1::char_traits<char>, std::__ndk1::allocator<char> > >, true>, std::__ndk1::allocator<std::__ndk1::__value_type<std::__ndk1::basic_string<char, std::__ndk1::char_traits<char>, std::__ndk1::allocator<char> >, std::__ndk1::shared_ptr<geode::Hook> > > >::find<std::__ndk1::basic_string<char, std::__ndk1::char_traits<char>, std::__ndk1::allocator<char> > >(std::__ndk1::basic_string<char, std::__ndk1::char_traits<char>, std::__ndk1::allocator<char> > const&)
17710 18 2087 7
17728 7c 2088 7
177a4 50 2089 7
177f4 18 2092 7
FUNC 1780c 454 0 std::__ndk1::__tree<std::__ndk1::__value_type<std::__ndk1::basic_string<char, std::__ndk1::char_traits<char>, std::__ndk1::allocator<char> >, std::__ndk1::shared_ptr<geode::Hook> >, std::__ndk1::__map_value_compare<std::__ndk1::basic_string<char, std::__ndk1::char_traits<char>, std::__ndk1::allocator<char> >, std::__ndk1::__value_type<std::__ndk1::basic_string<char, std::__ndk1::char_traits<char>, std::__ndk1::allocator<char> >, std::__ndk1::shared_ptr<geode::Hook> >, std::__ndk1::less<std::__ndk1::basic_string<char, std::__ndk1::char_traits<char>, std::__ndk1::allocator<char> > >, true>, std::__ndk1::allocator<std::__ndk1::__value_type<std::__ndk1::basic_string<char, std::__ndk1::char_traits<char>, std::__ndk1::allocator<char> >, std::__ndk1::shared_ptr<geode::Hook> > > >::erase(std::__ndk1::__tree_const_iterator<std::__ndk1::__value_type<std::__ndk1::basic_string<char, std::__ndk1::char_traits<char>, std::__ndk1::allocator<char> >, std::__ndk1::shared_ptr<geode::Hook> >, std::__ndk1::__tree_node<std::__ndk1::__value_type<std::__ndk1::basic_string<char, std::__ndk1::char_traits<char>, std::__ndk1::allocator<char> >, std::__ndk1::shared_ptr<geode::Hook> >, void*>*, long>)
1780c c 2046 7
17818 284 2048 7
17a9c 14 2050 7
17ab0 4 2048 7
17ab4 c 2050 7
17ac0 a4 2048 7
17b64 40 2050 7
17ba4 10 2051 7
17bb4 a0 2048 7
17c54 c 2050 7
FUNC 17c60 84 0 std::__ndk1::__tree<std::__ndk1::__value_type<std::__ndk1::basic_string<char, std::__ndk1::char_traits<char>, std::__ndk1::allocator<char> >, std::__ndk1::shared_ptr<geode::Hook> >, std::__ndk1::__map_value_compare<std::__ndk1::basic_string<char, std::__ndk1::char_traits<char>, std::__ndk1::allocator<char> >, std::__ndk1::__value_type<std::__ndk1::basic_string<char, std::__ndk1::char_traits<char>, std::__ndk1::allocator<char> >, std::__ndk1::shared_ptr<geode::Hook> >, std::__ndk1::less<std::__ndk1::basic_string<char, std::__ndk1::char_traits<char>, std::__ndk1::allocator<char> > >, true>, std::__ndk1::allocator<std::__ndk1::__value_type<std::__ndk1::basic_string<char, std::__ndk1::char_traits<char>, std::__ndk1::allocator<char> >, std::__ndk1::shared_ptr<geode::Hook> > > >::destroy(std::__ndk1::__tree_node<std::__ndk1::__value_type<std::__ndk1::basic_string<char, std::__ndk1::char_traits<char>, std::__ndk1::allocator<char> >, std::__ndk1::shared_ptr<geode::Hook> >, void*>*)
17c60 14 1544 7
17c74 8 1545 7
17c7c 8 1546 7
17c84 28 1548 7
17cac 10 1549 7
17cbc 4 1551 7
17cc0 24 1548 7
FUNC 17ce4 39c 0 geode::modifier::ModifyDerive<hook103<(anonymous namespace)::hook103Parent>, PlayLayer>::apply()
17ce4 2c 1276 10
17d10 258 1285 10
17f68 28 1408 10
17f90 f0 1285 10
FUNC 18080 4 0 geode::modifier::ModifyBase<geode::modifier::ModifyDerive<hook103<(anonymous namespace)::hook103Parent>, PlayLayer> >::apply()
18080 4 357 15
FUNC 18084 b8 0 geode::addresser::getVirtual<void (PlayLayer::*)(float)>(void (PlayLayer::*)(float))
18084 c 169 0
18090 ac 170 0
FUNC 1813c 540 0 geode::modifier::AsStaticFunction_postUpdate<hook103<(anonymous namespace)::hook103Parent>, void (hook103<(anonymous namespace)::hook103Parent>::*)(float)>::Impl<void (hook103<(anonymous namespace)::hook103Parent>::*)(float)>::function(hook103<(anonymous namespace)::hook103Parent>*, float)
1813c 540 30 10
FUNC 1867c 94 0 PlayLayer::PlayLayer(geode::ZeroConstructorType)
1867c 94 19 23
FUNC 18710 71c 0 GJBaseGameLayer::GJBaseGameLayer(geode::ZeroConstructorType, unsigned long)
18710 71c 18 25
FUNC 18e2c 550 0 GJGameState::GJGameState()
18e2c 550 23 26
FUNC 1937c 78 0 geode::stl::unordered_map<int, int, geode::stl::hash<int>, geode::stl::equal_to<int>, std::__ndk1::allocator<std::__ndk1::pair<int const, int> > >::~unordered_map()
1937c 78 98 27
FUNC 193f4 78 0 geode::stl::unordered_set<int, geode::stl::hash<int>, geode::stl::equal_to<int>, std::__ndk1::allocator<int> >::~unordered_set()
193f4 78 93 28
FUNC 1946c 84 0 geode::stl::unordered_map<int, gd::string, geode::stl::hash<int>, geode::stl::equal_to<int>, std::__ndk1::allocator<std::__ndk1::pair<int const, gd::string> > >::~unordered_map()
1946c 84 98 27
FUNC 194f0 1c 0 gd::map<std::__ndk1::pair<int, int>, int>::~map()
194f0 8 284 29
194f8 8 285 29
19500 8 286 29
19508 4 285 29
FUNC 1950c 8c 0 geode::stl::unordered_map<int, gd::vector<LabelGameObject*>, geode::stl::hash<int>, geode::stl::equal_to<int>, std::__ndk1::allocator<std::__ndk1::pair<int const, gd::vector<LabelGameObject*> > > >::~unordered_map()
1950c 8c 98 27
FUNC 19598 78 0 geode::stl::unordered_map<int, std::__ndk1::pair<int, int>, geode::stl::hash<int>, geode::stl::equal_to<int>, std::__ndk1::allocator<std::__ndk1::pair<int const, std::__ndk1::pair<int, int> > > >::~unordered_map()
19598 78 98 27
FUNC 19610 8c 0 geode::stl::unordered_map<int, gd::vector<GameObject*>, geode::stl::hash<int>, geode::stl::equal_to<int>, std::__ndk1::allocator<std::__ndk1::pair<int const, gd::vector<GameObject*> > > >::~unordered_map()
19610 8c 98 27
FUNC 1969c 78 0 geode::stl::unordered_map<int, cocos2d::CCPoint, geode::stl::hash<int>, geode::stl::equal_to<int>, std::__ndk1::allocator<std::__ndk1::pair<int const, cocos2d::CCPoint> > >::~unordered_map()
1969c 78 98 27
FUNC 19714 104 0 gd::vector<geode::stl::unordered_map<int, int, geode::stl::hash<int>, geode::stl::equal_to<int>, std::__ndk1::allocator<std::__ndk1::pair<int const, int> > > >::~vector()
19714 14 538 29
19728 8 539 29
19730 20 540 29
19750 4c 541 29
1979c 68 543 29
19804 14 545 29
FUNC 19818 440 0 GJGameState::~GJGameState()
19818 440 23 26
FUNC 19c58 78 0 geode::stl::unordered_map<int, SongChannelState, geode::stl::hash<int>, geode::stl::equal_to<int>, std::__ndk1::allocator<std::__ndk1::pair<int const, SongChannelState> > >::~unordered_map()
19c58 78 98 27
FUNC 19cd0 1c 0 gd::map<std::__ndk1::pair<int, int>, SFXTriggerInstance>::~map()
19cd0 8 284 29
19cd8 8 285 29
19ce0 8 286 29
19ce8 4 285 29
FUNC 19cec 90 0 geode::stl::unordered_map<int, std::__ndk1::vector<int, std::__ndk1::allocator<int> >, geode::stl::hash<int>, geode::stl::equal_to<int>, std::__ndk1::allocator<std::__ndk1::pair<int const, std::__ndk1::vector<int, std::__ndk1::allocator<int> > > > >::~unordered_map()
19cec 90 98 27
FUNC 19d7c 98 0 gd::vector<EnterEffectInstance>::~vector()
19d7c 10 538 29
19d8c 8 539 29
19d94 10 540 29
19da4 18 541 29
19dbc c 540 29
19dc8 34 543 29
19dfc 10 545 29
19e0c 4 543 29
19e10 4 541 29
FUNC 19e14 60 0 geode::stl::unordered_map<int, std::__ndk1::vector<EnterEffectInstance, std::__ndk1::allocator<EnterEffectInstance> >, geode::stl::hash<int>, geode::stl::equal_to<int>, std::__ndk1::allocator<std::__ndk1::pair<int const, std::__ndk1::vector<EnterEffectInstance, std::__ndk1::allocator<EnterEffectInstance> > > > >::~unordered_map()
19e14 60 98 27
FUNC 19e74 1c 0 gd::map<std::__ndk1::pair<GJGameEvent, int>, int>::~map()
19e74 8 284 29
19e7c 8 285 29
19e84 8 286 29
19e8c 4 285 29
FUNC 19e90 1c 0 gd::map<std::__ndk1::pair<GJGameEvent, int>, gd::vector<EventTriggerInstance> >::~map()
19e90 8 284 29
19e98 8 285 29
19ea0 8 286 29
19ea8 4 285 29
FUNC 19eac 78 0 geode::stl::unordered_map<int, EnhancedGameObject*, geode::stl::hash<int>, geode::stl::equal_to<int>, std::__ndk1::allocator<std::__ndk1::pair<int const, EnhancedGameObject*> > >::~unordered_map()
19eac 78 98 27
FUNC 19f24 78 0 geode::stl::unordered_map<int, GameObjectPhysics, geode::stl::hash<int>, geode::stl::equal_to<int>, std::__ndk1::allocator<std::__ndk1::pair<int const, GameObjectPhysics> > >::~unordered_map()
19f24 78 98 27
FUNC 19f9c 78 0 geode::stl::unordered_map<int, GJValueTween, geode::stl::hash<int>, geode::stl::equal_to<int>, std::__ndk1::allocator<std::__ndk1::pair<int const, GJValueTween> > >::~unordered_map()
19f9c 78 98 27
FUNC 1a014 78 0 geode::stl::unordered_map<int, bool, geode::stl::hash<int>, geode::stl::equal_to<int>, std::__ndk1::allocator<std::__ndk1::pair<int const, bool> > >::~unordered_map()
1a014 78 98 27
FUNC 1a08c 1cc 0 gd::map<std::__ndk1::pair<GJGameEvent, int>, gd::vector<EventTriggerInstance> >::map(std::__ndk1::map<std::__ndk1::pair<GJGameEvent, int>, gd::vector<EventTriggerInstance>, std::__ndk1::less<std::__ndk1::pair<GJGameEvent, int> >, std::__ndk1::allocator<std::__ndk1::pair<std::__ndk1::pair<GJGameEvent, int> const, gd::vector<EventTriggerInstance> > > >)
1a08c 20 136 29
1a0ac 14 137 29
1a0c0 4 138 29
1a0c4 4 140 29
1a0c8 3c 142 29
1a104 70 143 29
1a174 50 144 29
1a1c4 30 142 29
1a1f4 38 145 29
1a22c 8 143 29
1a234 24 144 29
FUNC 1a258 250 0 gd::map<std::__ndk1::pair<GJGameEvent, int>, gd::vector<EventTriggerInstance> >::insert_pair(std::__ndk1::pair<std::__ndk1::pair<GJGameEvent, int>, gd::vector<EventTriggerInstance> > const&)
1a258 1c 112 29
1a274 10 113 29
1a284 18 116 29
1a29c c 119 29
1a2a8 4 116 29
1a2ac 2c 118 29
1a2d8 4 123 29
1a2dc c 124 29
1a2e8 30 128 29
1a318 48 125 29
1a360 18 128 29
1a378 50 125 29
1a3c8 34 131 29
1a3fc 8c 132 29
1a488 18 134 29
1a4a0 8 128 29
FUNC 1a4a8 80 0 std::__ndk1::pair<std::__ndk1::pair<GJGameEvent, int>, gd::vector<EventTriggerInstance> >::~pair()
1a4a8 80 80 31
FUNC 1a528 80 0 std::__ndk1::pair<std::__ndk1::pair<GJGameEvent, int> const, gd::vector<EventTriggerInstance> >::~pair()
1a528 80 80 31
FUNC 1a5a8 194 0 gd::vector<EventTriggerInstance>::vector(gd::vector<EventTriggerInstance> const&)
1a5a8 1c 335 29
1a5c4 24 336 29
1a5e8 24 337 29
1a60c 18 338 29
1a624 4 339 29
1a628 8 340 29
1a630 c 339 29
1a63c 30 342 29
1a66c 14 343 29
1a680 14 345 29
1a694 98 343 29
1a72c 10 345 29
FUNC 1a73c 250 0 geode::stl::_rb_insert_rebalance(bool, geode::stl::_rb_tree_base*, geode::stl::_rb_tree_base*, geode::stl::_rb_tree_base&)
1a73c 4 113 1
1a740 4 111 1
1a744 4 116 1
1a748 4 113 1
1a74c 4 115 1
1a750 4 118 1
1a754 4 121 1
1a758 4 119 1
1a75c 4 121 1
1a760 10 125 1
1a770 4 130 1
1a774 10 132 1
1a784 4 122 1
1a788 8 123 1
1a790 1c 137 1
1a7ac 4 138 1
1a7b0 c 140 1
1a7bc c 160 1
1a7c8 18 167 1
1a7e0 4 141 1
1a7e4 c 142 1
1a7f0 30 149 1
1a820 4c 169 1
1a86c 4 173 1
1a870 4 171 1
1a874 4 172 1
1a878 44 173 1
1a8bc 48 151 1
1a904 4 155 1
1a908 4 151 1
1a90c 4 155 1
1a910 4 153 1
1a914 4 154 1
1a918 44 155 1
1a95c 28 137 1
1a984 4 177 1
1a988 4 178 1
FUNC 1a98c 1c8 0 gd::vector<EventTriggerInstance>::operator=(gd::vector<EventTriggerInstance> const&)
1a98c 14 357 29
1a9a0 50 358 29
1a9f0 1c 360 29
1aa0c 24 361 29
1aa30 14 362 29
1aa44 4 363 29
1aa48 4 362 29
1aa4c 4 363 29
1aa50 4 364 29
1aa54 c 363 29
1aa60 30 366 29
1aa90 14 367 29
1aaa4 18 370 29
1aabc 98 367 29
FUNC 1ab54 80 0 gd::vector<EventTriggerInstance>::~vector()
1ab54 10 538 29
1ab64 8 539 29
1ab6c 20 540 29
1ab8c 10 541 29
1ab9c 28 543 29
1abc4 10 545 29
FUNC 1abd4 98 0 std::__ndk1::__tree<std::__ndk1::__value_type<std::__ndk1::pair<GJGameEvent, int>, gd::vector<EventTriggerInstance> >, std::__ndk1::__map_value_compare<std::__ndk1::pair<GJGameEvent, int>, std::__ndk1::__value_type<std::__ndk1::pair<GJGameEvent, int>, gd::vector<EventTriggerInstance> >, std::__ndk1::less<std::__ndk1::pair<GJGameEvent, int> >, true>, std::__ndk1::allocator<std::__ndk1::__value_type<std::__ndk1::pair<GJGameEvent, int>, gd::vector<EventTriggerInstance> > > >::destroy(std::__ndk1::__tree_node<std::__ndk1::__value_type<std::__ndk1::pair<GJGameEvent, int>, gd::vector<EventTriggerInstance> >, void*>*)
1abd4 18 1544 7
1abec c 1545 7
1abf8 c 1546 7
1ac04 34 1548 7
1ac38 4 1551 7
1ac3c 1c 1548 7
1ac58 14 1549 7
FUNC 1ac6c 4c 0 gd::map<std::__ndk1::pair<int, int>, SFXTriggerInstance>::erase(geode::stl::_rb_tree_node<std::__ndk1::pair<std::__ndk1::pair<int, int>, SFXTriggerInstance> >*)
1ac6c 10 148 29
1ac7c 14 149 29
1ac90 4 150 29
1ac94 c 151 29
1aca0 14 149 29
1acb4 4 154 29
FUNC 1acb8 4c 0 gd::map<int, EnterEffectAnimValue>::erase(geode::stl::_rb_tree_node<std::__ndk1::pair<int, EnterEffectAnimValue> >*)
1acb8 10 148 29
1acc8 14 149 29
1acdc 4 150 29
1ace0 c 151 29
1acec 14 149 29
1ad00 4 154 29
FUNC 1ad04 88 0 geode::stl::__detail::_Hashtable_alloc<std::__ndk1::allocator<geode::stl::__detail::_Hash_node<std::__ndk1::pair<int const, std::__ndk1::vector<EnterEffectInstance, std::__ndk1::allocator<EnterEffectInstance> > >, false> > >::_M_deallocate_nodes(geode::stl::__detail::_Hash_node<std::__ndk1::pair<int const, std::__ndk1::vector<EnterEffectInstance, std::__ndk1::allocator<EnterEffectInstance> > >, false>*)
1ad04 10 1985 30
1ad14 c 1986 30
1ad20 18 1990 30
1ad38 4 1986 30
1ad3c 4 1990 30
1ad40 4 1989 30
1ad44 34 1990 30
1ad78 10 1992 30
1ad88 4 1990 30
FUNC 1ad8c 4c 0 gd::map<std::__ndk1::pair<GJGameEvent, int>, int>::erase(geode::stl::_rb_tree_node<std::__ndk1::pair<std::__ndk1::pair<GJGameEvent, int>, int> >*)
1ad8c 10 148 29
1ad9c 14 149 29
1adb0 4 150 29
1adb4 c 151 29
1adc0 14 149 29
1add4 4 154 29
FUNC 1add8 a8 0 gd::map<std::__ndk1::pair<GJGameEvent, int>, gd::vector<EventTriggerInstance> >::erase(geode::stl::_rb_tree_node<std::__ndk1::pair<std::__ndk1::pair<GJGameEvent, int>, gd::vector<EventTriggerInstance> > >*)
1add8 14 148 29
1adec 14 149 29
1ae00 10 151 29
1ae10 c 149 29
1ae1c 4 150 29
1ae20 5c 151 29
1ae7c 4 154 29
FUNC 1ae80 4c 0 gd::map<std::__ndk1::pair<int, int>, int>::erase(geode::stl::_rb_tree_node<std::__ndk1::pair<std::__ndk1::pair<int, int>, int> >*)
1ae80 10 148 29
1ae90 14 149 29
1aea4 4 150 29
1aea8 c 151 29
1aeb4 14 149 29
1aec8 4 154 29
FUNC 1aecc 50 0 std::__ndk1::shared_ptr<tulip::hook::CallingConvention>::~shared_ptr[abi:ne180000]()
1aecc c 643 19
1aed8 8 644 19
1aee0 10 645 19
1aef0 c 646 19
1aefc 20 645 19
FUNC 1af1c 64 0 tulip::hook::HandlerMetadata::~HandlerMetadata()
1af1c 64 12 22
FUNC 1af80 12c 0 geode::Mod::getSettingValue<double>(std::__ndk1::basic_string_view<char, std::__ndk1::char_traits<char> >) const
1af80 24 228 24
1afa4 7c 230 24
1b020 8 231 24
1b028 54 230 24
1b07c 30 234 24
FUNC 1b0ac 114 0 geode::Mod::getSettingValue<long>(std::__ndk1::basic_string_view<char, std::__ndk1::char_traits<char> >) const
1b0ac 20 228 24
1b0cc 94 230 24
1b160 8 231 24
1b168 2c 230 24
1b194 2c 234 24
FUNC 1b1c0 130 0 geode::Mod::getSettingValue<bool>(std::__ndk1::basic_string_view<char, std::__ndk1::char_traits<char> >) const
1b1c0 20 228 24
1b1e0 7c 230 24
1b25c 10 231 24
1b26c 50 230 24
1b2bc 8 234 24
1b2c4 8 230 24
1b2cc 24 234 24
FUNC 1b2f0 d8 0 geode::cast::traverseTypeinfoFor(void*, geode::cast::ClassTypeinfoType const*, char const*)
1b2f0 14 57 2
1b304 c 59 2
1b310 1c 60 2
1b32c 4 64 2
1b330 4 65 2
1b334 8 64 2
1b33c c 65 2
1b348 4 67 2
1b34c 4 60 2
1b350 4 59 2
1b354 c 60 2
1b360 18 69 2
1b378 18 80 2
1b390 c 71 2
1b39c 4 73 2
1b3a0 4 74 2
1b3a4 4 73 2
1b3a8 8 74 2
1b3b0 18 71 2
FUNC 1b3c8 104 0 std::__ndk1::__tree<std::__ndk1::__value_type<std::__ndk1::basic_string<char, std::__ndk1::char_traits<char>, std::__ndk1::allocator<char> >, std::__ndk1::shared_ptr<geode::Hook> >, std::__ndk1::__map_value_compare<std::__ndk1::basic_string<char, std::__ndk1::char_traits<char>, std::__ndk1::allocator<char> >, std::__ndk1::__value_type<std::__ndk1::basic_string<char, std::__ndk1::char_traits<char>, std::__ndk1::allocator<char> >, std::__ndk1::shared_ptr<geode::Hook> >, std::__ndk1::less<std::__ndk1::basic_string<char, std::__ndk1::char_traits<char>, std::__ndk1::allocator<char> > >, true>, std::__ndk1::allocator<std::__ndk1::__value_type<std::__ndk1::basic_string<char, std::__ndk1::char_traits<char>, std::__ndk1::allocator<char> >, std::__ndk1::shared_ptr<geode::Hook> > > >::__find_equal<std::__ndk1::basic_string<char, std::__ndk1::char_traits<char>, std::__ndk1::allocator<char> > >(std::__ndk1::__tree_end_node<std::__ndk1::__tree_node_base<void*>*>*&, std::__ndk1::basic_string<char, std::__ndk1::char_traits<char>, std::__ndk1::allocator<char> > const&)
1b3c8 20 1682 7
1b3e8 4 1683 7
1b3ec 20 1685 7
1b40c 10 1688 7
1b41c 50 1687 7
1b46c 2c 1695 7
1b498 14 1696 7
1b4ac 20 1711 7
FUNC 1b4cc 19c 0 std::__ndk1::__tree_balance_after_insert[abi:ne180000]<std::__ndk1::__tree_node_base<void*>*>(std::__ndk1::__tree_node_base<void*>*, std::__ndk1::__tree_node_base<void*>*)
1b4cc c 285 7
1b4d8 34 286 7
1b50c 10 288 7
1b51c 10 310 7
1b52c 4 289 7
1b530 c 290 7
1b53c c 297 7
1b548 38 299 7
1b580 4 303 7
1b584 4 299 7
1b588 8 305 7
1b590 4 330 7
1b594 14 317 7
1b5a8 30 319 7
1b5d8 4 323 7
1b5dc 4 319 7
1b5e0 8 325 7
1b5e8 4 322 7
1b5ec 4 325 7
1b5f0 4 324 7
1b5f4 2c 325 7
1b620 8 330 7
1b628 8 305 7
1b630 4 302 7
1b634 4 304 7
1b638 2c 305 7
1b664 4 330 7
FUNC 1b668 3d0 0 geode::modifier::ModifyDerive<hook237<(anonymous namespace)::hook237Parent>, LevelEditorLayer>::apply()
1b668 2c 1626 11
1b694 27c 1634 11
1b910 28 1791 11
1b938 100 1634 11
FUNC 1ba38 4 0 geode::modifier::ModifyBase<geode::modifier::ModifyDerive<hook237<(anonymous namespace)::hook237Parent>, LevelEditorLayer> >::apply()
1ba38 4 357 15
FUNC 1ba3c b8 0 geode::addresser::getVirtual<void (LevelEditorLayer::*)(float)>(void (LevelEditorLayer::*)(float))
1ba3c c 169 0
1ba48 ac 170 0
FUNC 1baf4 41c 0 geode::modifier::AsStaticFunction_postUpdate<hook237<(anonymous namespace)::hook237Parent>, void (hook237<(anonymous namespace)::hook237Parent>::*)(float)>::Impl<void (hook237<(anonymous namespace)::hook237Parent>::*)(float)>::function(hook237<(anonymous namespace)::hook237Parent>*, float)
1baf4 41c 30 10
FUNC 1bf10 78 0 LevelEditorLayer::LevelEditorLayer(geode::ZeroConstructorType)
1bf10 78 17 32
FUNC 1bf88 3a4 0 geode::modifier::ModifyDerive<SettingsBTN, EditorPauseLayer>::apply()
1bf88 2c 576 12
1bfb4 258 584 12
1c20c 28 634 12
1c234 f8 584 12
FUNC 1c32c 4 0 geode::modifier::ModifyBase<geode::modifier::ModifyDerive<SettingsBTN, EditorPauseLayer> >::apply()
1c32c 4 357 15
FUNC 1c330 18c 0 geode::modifier::AsStaticFunction_init<SettingsBTN, bool (SettingsBTN::*)(LevelEditorLayer*)>::Impl<bool (SettingsBTN::*)(LevelEditorLayer*)>::function(SettingsBTN*, LevelEditorLayer*)
1c330 18c 305 10
FUNC 1c4bc 30 0 SettingsBTN::btnSettings(cocos2d::CCObject*)
1c4bc c 339 14
1c4c8 24 340 14
FUNC 1c4ec 380 0 geode::modifier::ModifyDerive<OpenSettings, PauseLayer>::apply()
1c4ec 2c 281 13
1c518 240 287 13
1c758 28 311 13
1c780 ec 287 13
FUNC 1c86c 4 0 geode::modifier::ModifyBase<geode::modifier::ModifyDerive<OpenSettings, PauseLayer> >::apply()
1c86c 4 357 15
FUNC 1c870 a8 0 geode::addresser::getVirtual<void (PauseLayer::*)()>(void (PauseLayer::*)())
1c870 c 169 0
1c87c 9c 170 0
FUNC 1c918 194 0 geode::modifier::AsStaticFunction_customSetup<OpenSettings, void (OpenSettings::*)()>::Impl<void (OpenSettings::*)()>::function(OpenSettings*)
1c918 194 25 13
FUNC 1caac 8c 0 PauseLayer::PauseLayer(geode::ZeroConstructorType)
1caac 8c 17 33
FUNC 1cb38 30 0 OpenSettings::btnSettings(cocos2d::CCObject*)
1cb38 c 368 14
1cb44 24 369 14
FUNC 1cb68 30 0 geodeImplicitEntry
1cb68 c 16 34
1cb74 18 18 34
1cb8c c 19 34
FUNC 1cb98 4c 0 std::__ndk1::unordered_map<void*, bool, std::__ndk1::hash<void*>, std::__ndk1::equal_to<void*>, std::__ndk1::allocator<std::__ndk1::pair<void* const, bool> > >::~unordered_map[abi:ne180000]()
1cb98 10 1178 36
1cba8 3c 1180 36
FUNC 1cbe4 134 0 wrapFunction(unsigned long, tulip::hook::WrapperMetadata const&)
1cbe4 1c 27 35
1cc00 8 28 35
1cc08 8 29 35
1cc10 4 32 35
1cc14 20 33 35
1cc34 4 32 35
1cc38 c 29 35
1cc44 30 30 35
1cc74 7c 32 35
1ccf0 28 33 35
FUNC 1cd18 78 0 geode::impl::ResultData<void*, std::__ndk1::basic_string<char, std::__ndk1::char_traits<char>, std::__ndk1::allocator<char> > >::unwrapErr() &
1cd18 c 472 18
1cd24 c 473 18
1cd30 10 474 18
1cd40 50 477 18
FUNC 1cd90 74 0 geode::impl::ResultData<void*, std::__ndk1::basic_string<char, std::__ndk1::char_traits<char>, std::__ndk1::allocator<char> > >::~ResultData()
1cd90 74 334 18
FUNC 1ce04 64 0 tulip::hook::WrapperMetadata::~WrapperMetadata()
1ce04 64 10 37
FUNC 1ce68 24 0 cocos2d::CCObject::~CCObject()
1ce68 24 76 35
FUNC 1ce8c 24 0 cocos2d::CCNode::~CCNode()
1ce8c 24 106 35
FUNC 1ceb0 8 0 {virtual override thunk({offset(-320)}, cocos2d::CCLayer::~CCLayer())}
FUNC 1ceb8 24 0 cocos2d::CCLayer::~CCLayer()
1ceb8 24 447 35
FUNC 1cedc 28 0 {virtual override thunk({offset(-320)}, cocos2d::CCLayer::~CCLayer())}
FUNC 1cf04 82c 0 GJBaseGameLayer::~GJBaseGameLayer()
1cf04 60 5255 35
1cf64 40 5258 35
1cfa4 14 5260 35
1cfb8 c 5264 35
1cfc4 c 5267 35
1cfd0 38 5268 35
1d008 5dc 5269 35
1d5e4 4c 5258 35
1d630 50 5268 35
1d680 30 5260 35
1d6b0 10 5261 35
1d6c0 30 5262 35
1d6f0 34 5260 35
1d724 8 5269 35
1d72c 4 5258 35
FUNC 1d730 71c 0 GJBaseGameLayer::GJBaseGameLayer(geode::CutoffConstructorType, unsigned long)
1d730 71c 18 25
FUNC 1de4c 8 0 {virtual override thunk({offset(-320)}, GJBaseGameLayer::~GJBaseGameLayer())}
FUNC 1de54 24 0 GJBaseGameLayer::~GJBaseGameLayer()
1de54 24 5255 35
FUNC 1de78 28 0 {virtual override thunk({offset(-320)}, GJBaseGameLayer::~GJBaseGameLayer())}
FUNC 1dea0 17c 0 GJBaseGameLayer::toggleGroupTriggered(int, bool, gd::vector<int> const&, int, int)
1dea0 40 5275 35
1dee0 14 5278 35
1def4 20 5282 35
1df14 2c 5283 35
1df40 38 5278 35
1df78 10 5279 35
1df88 4 5278 35
1df8c 4 5280 35
1df90 8c 5278 35
FUNC 1e01c 150 0 tulip::hook::AbstractFunction::from<void, GJBaseGameLayer*, int, bool, gd::vector<int> const&, int, int>(void (*)(GJBaseGameLayer*, int, bool, gd::vector<int> const&, int, int))
1e01c 1c 39 39
1e038 4 42 39
1e03c 4 41 39
1e040 c 40 39
1e04c 4 41 39
1e050 e0 42 39
1e130 3c 45 39
FUNC 1e16c 8 0 {virtual override thunk({offset(-408)}, GJBaseGameLayer::toggleGroupTriggered(int, bool, gd::vector<int> const&, int, int))}
FUNC 1e174 18c 0 GJBaseGameLayer::spawnGroup(int, bool, double, gd::vector<int> const&, int, int)
1e174 48 5285 35
1e1bc 14 5288 35
1e1d0 24 5292 35
1e1f4 30 5293 35
1e224 38 5288 35
1e25c 10 5289 35
1e26c 4 5288 35
1e270 4 5290 35
1e274 8c 5288 35
FUNC 1e300 154 0 tulip::hook::AbstractFunction::from<void, GJBaseGameLayer*, int, bool, double, gd::vector<int> const&, int, int>(void (*)(GJBaseGameLayer*, int, bool, double, gd::vector<int> const&, int, int))
1e300 1c 39 39
1e31c 4 42 39
1e320 4 41 39
1e324 c 40 39
1e330 4 41 39
1e334 e4 42 39
1e418 3c 45 39
FUNC 1e454 8 0 {virtual override thunk({offset(-408)}, GJBaseGameLayer::spawnGroup(int, bool, double, gd::vector<int> const&, int, int))}
FUNC 1e45c 16c 0 GJBaseGameLayer::spawnObject(GameObject*, double, gd::vector<int> const&)
1e45c 38 5295 35
1e494 14 5298 35
1e4a8 18 5302 35
1e4c0 2c 5303 35
1e4ec 38 5298 35
1e524 10 5299 35
1e534 4 5298 35
1e538 4 5300 35
1e53c 8c 5298 35
FUNC 1e5c8 fc 0 tulip::hook::AbstractFunction::from<void, GJBaseGameLayer*, GameObject*, double, gd::vector<int> const&>(void (*)(GJBaseGameLayer*, GameObject*, double, gd::vector<int> const&))
1e5c8 1c 39 39
1e5e4 4 42 39
1e5e8 4 41 39
1e5ec 8 40 39
1e5f4 4 41 39
1e5f8 94 42 39
1e68c 38 45 39
FUNC 1e6c4 8 0 {virtual override thunk({offset(-408)}, GJBaseGameLayer::spawnObject(GameObject*, double, gd::vector<int> const&))}
FUNC 1e6cc 15c 0 GJBaseGameLayer::activatePlatformerEndTrigger(EndTriggerGameObject*, gd::vector<int> const&)
1e6cc 30 5305 35
1e6fc 14 5308 35
1e710 14 5312 35
1e724 28 5313 35
1e74c 38 5308 35
1e784 10 5309 35
1e794 4 5308 35
1e798 4 5310 35
1e79c 8c 5308 35
FUNC 1e828 f0 0 tulip::hook::AbstractFunction::from<void, GJBaseGameLayer*, EndTriggerGameObject*, gd::vector<int> const&>(void (*)(GJBaseGameLayer*, EndTriggerGameObject*, gd::vector<int> const&))
1e828 1c 39 39
1e844 4 42 39
1e848 4 41 39
1e84c 8 40 39
1e854 4 41 39
1e858 88 42 39
1e8e0 38 45 39
FUNC 1e918 4 0 GJBaseGameLayer::toggleGlitter(bool)
1e918 4 5315 35
FUNC 1e91c 8 0 GJBaseGameLayer::timeForPos(cocos2d::CCPoint, int, int, bool, int)
1e91c 8 5317 35
FUNC 1e924 8 0 GJBaseGameLayer::posForTime(float)
1e924 8 5319 35
FUNC 1e92c 4 0 GJBaseGameLayer::resetSPTriggered()
1e92c 4 5321 35
FUNC 1e930 174 0 GJBaseGameLayer::createCustomParticle(gd::string const&, cocos2d::ParticleStruct const&, int, bool)
1e930 3c 5323 35
1e96c 14 5326 35
1e980 1c 5330 35
1e99c 2c 5331 35
1e9c8 38 5326 35
1ea00 10 5327 35
1ea10 4 5326 35
1ea14 4 5328 35
1ea18 8c 5326 35
FUNC 1eaa4 140 0 tulip::hook::AbstractFunction::from<TodoReturnPlaceholder, GJBaseGameLayer*, gd::string const&, cocos2d::ParticleStruct const&, int, bool>(TodoReturnPlaceholder (*)(GJBaseGameLayer*, gd::string const&, cocos2d::ParticleStruct const&, int, bool))
1eaa4 1c 39 39
1eac0 4 42 39
1eac4 4 41 39
1eac8 8 40 39
1ead0 4 41 39
1ead4 d4 42 39
1eba8 3c 45 39
FUNC 1ebe4 18c 0 GJBaseGameLayer::claimCustomParticle(gd::string const&, cocos2d::ParticleStruct const&, int, int, int, bool)
1ebe4 48 5333 35
1ec2c 14 5336 35
1ec40 24 5340 35
1ec64 30 5341 35
1ec94 38 5336 35
1eccc 10 5337 35
1ecdc 4 5336 35
1ece0 4 5338 35
1ece4 8c 5336 35
FUNC 1ed70 154 0 tulip::hook::AbstractFunction::from<TodoReturnPlaceholder, GJBaseGameLayer*, gd::string const&, cocos2d::ParticleStruct const&, int, int, int, bool>(TodoReturnPlaceholder (*)(GJBaseGameLayer*, gd::string const&, cocos2d::ParticleStruct const&, int, int, int, bool))
1ed70 1c 39 39
1ed8c 4 42 39
1ed90 4 41 39
1ed94 8 40 39
1ed9c 4 41 39
1eda0 e8 42 39
1ee88 3c 45 39
FUNC 1eec4 15c 0 GJBaseGameLayer::unclaimCustomParticle(gd::string const&, cocos2d::CCParticleSystemQuad*)
1eec4 30 5343 35
1eef4 14 5346 35
1ef08 14 5350 35
1ef1c 28 5351 35
1ef44 38 5346 35
1ef7c 10 5347 35
1ef8c 4 5346 35
1ef90 4 5348 35
1ef94 8c 5346 35
FUNC 1f020 f0 0 tulip::hook::AbstractFunction::from<TodoReturnPlaceholder, GJBaseGameLayer*, gd::string const&, cocos2d::CCParticleSystemQuad*>(TodoReturnPlaceholder (*)(GJBaseGameLayer*, gd::string const&, cocos2d::CCParticleSystemQuad*))
1f020 1c 39 39
1f03c 4 42 39
1f040 4 41 39
1f044 8 40 39
1f04c 4 41 39
1f050 88 42 39
1f0d8 38 45 39
FUNC 1f110 31c 0 PlayLayer::~PlayLayer()
1f110 78 7419 35
1f188 40 7422 35
1f1c8 14 7424 35
1f1dc c 7428 35
1f1e8 2c 7431 35
1f214 8 7432 35
1f21c 4c 7431 35
1f268 2c 7432 35
1f294 54 7433 35
1f2e8 4c 7422 35
1f334 c 7432 35
1f340 8 7431 35
1f348 3c 7432 35
1f384 30 7424 35
1f3b4 10 7425 35
1f3c4 30 7426 35
1f3f4 34 7424 35
1f428 4 7422 35
FUNC 1f42c 8 0 {virtual override thunk({offset(-320)}, PlayLayer::~PlayLayer())}
FUNC 1f434 24 0 PlayLayer::~PlayLayer()
1f434 24 7419 35
FUNC 1f458 28 0 {virtual override thunk({offset(-320)}, PlayLayer::~PlayLayer())}
FUNC 1f480 15c 0 PlayLayer::activatePlatformerEndTrigger(EndTriggerGameObject*, gd::vector<int> const&)
1f480 30 7439 35
1f4b0 14 7442 35
1f4c4 14 7446 35
1f4d8 28 7447 35
1f500 38 7442 35
1f538 10 7443 35
1f548 4 7442 35
1f54c 4 7444 35
1f550 8c 7442 35
FUNC 1f5dc f0 0 tulip::hook::AbstractFunction::from<void, PlayLayer*, EndTriggerGameObject*, gd::vector<int> const&>(void (*)(PlayLayer*, EndTriggerGameObject*, gd::vector<int> const&))
1f5dc 1c 39 39
1f5f8 4 42 39
1f5fc 4 41 39
1f600 8 40 39
1f608 4 41 39
1f60c 88 42 39
1f694 38 45 39
FUNC 1f6cc 8 0 cocos2d::CCCopying::copyWithZone(cocos2d::CCZone*)
1f6cc 8 72 40
FUNC 1f6d4 4 0 cocos2d::CCObject::update(float)
1f6d4 4 139 40
FUNC 1f6d8 4 0 cocos2d::CCKeyboardDelegate::keyUp(cocos2d::enumKeyCodes)
1f6d8 4 209 41
FUNC 1f6dc 4 0 cocos2d::CCMouseDelegate::rightKeyDown()
1f6dc 4 13 42
FUNC 1f6e0 4 0 cocos2d::CCMouseDelegate::rightKeyUp()
1f6e0 4 15 42
FUNC 1f6e4 4 0 cocos2d::CCMouseDelegate::scrollWheel(float, float)
1f6e4 4 17 42
FUNC 1f6e8 290 0 cocos2d::CCNode::~CCNode()
1f6e8 38 106 35
1f720 40 109 35
1f760 14 111 35
1f774 c 115 35
1f780 8 118 35
1f788 c 119 35
1f794 44 118 35
1f7d8 2c 119 35
1f804 30 120 35
1f834 4c 109 35
1f880 c 119 35
1f88c 8 118 35
1f894 3c 119 35
1f8d0 30 111 35
1f900 10 112 35
1f910 30 113 35
1f940 34 111 35
1f974 4 109 35
FUNC 1f978 2e0 0 cocos2d::CCLayer::~CCLayer()
1f978 58 447 35
1f9d0 40 450 35
1fa10 14 452 35
1fa24 c 456 35
1fa30 10 459 35
1fa40 c 460 35
1fa4c 6c 459 35
1fab8 2c 460 35
1fae4 30 461 35
1fb14 4c 450 35
1fb60 c 460 35
1fb6c 8 459 35
1fb74 3c 460 35
1fbb0 30 452 35
1fbe0 10 453 35
1fbf0 30 454 35
1fc20 34 452 35
1fc54 4 450 35
FUNC 1fc58 4ac 0 cocos2d::CCObject::~CCObject()
1fc58 38 76 35
1fc90 40 79 35
1fcd0 14 81 35
1fce4 c 85 35
1fcf0 4 88 35
1fcf4 8 89 35
1fcfc 14 88 35
1fd10 2c 89 35
1fd3c 230 90 35
1ff6c 4c 79 35
1ffb8 54 90 35
2000c c 89 35
20018 8 88 35
20020 3c 89 35
2005c 30 81 35
2008c 10 82 35
2009c 30 83 35
200cc 34 81 35
20100 4 79 35
FUNC 20104 154 0 _ZN5geode15UnwrapExceptionC2IRPvQsr4implE18IsStringStreamableIT_EEENS_4impl5OkTagEOS4_
20104 20 316 18
20124 48 315 18
2016c 5c 314 18
201c8 4 315 18
201cc 18 314 18
201e4 34 316 18
20218 40 314 18
FUNC 20258 168 0 _ZN5geode15UnwrapExceptionC2IRNSt6__ndk112basic_stringIcNS2_11char_traitsIcEENS2_9allocatorIcEEEEQsr4implE18IsStringStreamableIT_EEENS_4impl6ErrTagEOSA_
20258 20 304 18
20278 5c 303 18
202d4 5c 302 18
20330 4 303 18
20334 18 302 18
2034c 34 304 18
20380 40 302 18
FUNC 203c0 4 0 std::__ndk1::__variant_detail::__visitation::__base::__dispatcher<(unsigned long)0>::__dispatch[abi:ne180000]<std::__ndk1::__variant_detail::__dtor<std::__ndk1::__variant_detail::__traits<void*, std::__ndk1::basic_string<char, std::__ndk1::char_traits<char>, std::__ndk1::allocator<char> > >, (std::__ndk1::__variant_detail::_Trait)1>::__destroy[abi:ne180000]()::{lambda(auto:1&)#1}, std::__ndk1::__variant_detail::__base<(std::__ndk1::__variant_detail::__traits<void*, std::__ndk1::basic_string<char, std::__ndk1::char_traits<char>, std::__ndk1::allocator<char> > >)1, std::__ndk1::__variant_detail::__traits, std::__ndk1::allocator<char> >&>(std::__ndk1::__variant_detail::__dtor<std::__ndk1::__variant_detail::__traits<void*, std::__ndk1::basic_string<char, std::__ndk1::char_traits<char>, std::__ndk1::allocator<char> > >, (std::__ndk1::__variant_detail::_Trait)1>, std::__ndk1::__variant_detail::__base<(std::__ndk1::__variant_detail::__traits<void*, std::__ndk1::basic_string<char, std::__ndk1::char_traits<char>, std::__ndk1::allocator<char> > >)1, std::__ndk1::__variant_detail::__traits, std::__ndk1::allocator<char> >&)
203c0 4 526 4
FUNC 203c4 14 0 std::__ndk1::__variant_detail::__visitation::__base::__dispatcher<(unsigned long)1>::__dispatch[abi:ne180000]<std::__ndk1::__variant_detail::__dtor<std::__ndk1::__variant_detail::__traits<void*, std::__ndk1::basic_string<char, std::__ndk1::char_traits<char>, std::__ndk1::allocator<char> > >, (std::__ndk1::__variant_detail::_Trait)1>::__destroy[abi:ne180000]()::{lambda(auto:1&)#1}, std::__ndk1::__variant_detail::__base<(std::__ndk1::__variant_detail::__traits<void*, std::__ndk1::basic_string<char, std::__ndk1::char_traits<char>, std::__ndk1::allocator<char> > >)1, std::__ndk1::__variant_detail::__traits, std::__ndk1::allocator<char> >&>(std::__ndk1::__variant_detail::__dtor<std::__ndk1::__variant_detail::__traits<void*, std::__ndk1::basic_string<char, std::__ndk1::char_traits<char>, std::__ndk1::allocator<char> > >, (std::__ndk1::__variant_detail::_Trait)1>, std::__ndk1::__variant_detail::__base<(std::__ndk1::__variant_detail::__traits<void*, std::__ndk1::basic_string<char, std::__ndk1::char_traits<char>, std::__ndk1::allocator<char> > >)1, std::__ndk1::__variant_detail::__traits, std::__ndk1::allocator<char> >&)
203c4 14 526 4
FUNC 203d8 430 0 std::__ndk1::__hash_table<std::__ndk1::__hash_value_type<void*, bool>, std::__ndk1::__unordered_map_hasher<void*, std::__ndk1::__hash_value_type<void*, bool>, std::__ndk1::hash<void*>, std::__ndk1::equal_to<void*>, true>, std::__ndk1::__unordered_map_equal<void*, std::__ndk1::__hash_value_type<void*, bool>, std::__ndk1::equal_to<void*>, std::__ndk1::hash<void*>, true>, std::__ndk1::allocator<std::__ndk1::__hash_value_type<void*, bool> > >::__emplace_unique_key_args<void*, std::__ndk1::piecewise_construct_t const&, std::__ndk1::tuple<void* const&>, std::__ndk1::tuple<> >(void* const&, std::__ndk1::piecewise_construct_t const&, std::__ndk1::tuple<void* const&>, std::__ndk1::tuple<>)
203d8 14 1473 38
203ec 8 1474 38
203f4 10 1475 38
20404 30 1474 38
20434 4 1479 38
20438 3c 1480 38
20474 8 1481 38
2047c 8 1482 38
20484 c 1484 38
20490 10 1486 38
204a0 30 1484 38
204d0 8 1483 38
204d8 8 1492 38
204e0 4 1493 38
204e4 c 1492 38
204f0 8 1493 38
204f8 8 1492 38
20500 4 1493 38
20504 4 1492 38
20508 14 1493 38
2051c 2c 1495 38
20548 1b0 1494 38
206f8 30 1497 38
20728 8 1500 38
20730 4 1501 38
20734 c 1510 38
20740 8 1503 38
20748 4 1504 38
2074c 4 1503 38
20750 4 1506 38
20754 8 1507 38
2075c 34 1508 38
20790 c 1515 38
2079c 18 1520 38
207b4 34 1494 38
207e8 8 1496 38
207f0 8 1494 38
207f8 10 1517 38
PUBLIC 20810 0 <.plt ELF section in saumondeluxe.rainbow_icon.android64.so>
STACK CFI INIT 11020 10 .cfa: sp 0 +
STACK CFI INIT 11030 8 .cfa: sp 0 +
STACK CFI INIT 11038 8 .cfa: sp 0 +
STACK CFI INIT 11040 14 .cfa: sp 0 +
STACK CFI INIT 11054 1c .cfa: sp 0 +
STACK CFI INIT 11070 10 .cfa: sp 0 +
STACK CFI INIT 11080 134 .cfa: sp 0 +
STACK CFI INIT 111b4 84 .cfa: sp 0 +
STACK CFI INIT 11238 f4 .cfa: sp 0 +
STACK CFI INIT 1132c a8 .cfa: sp 0 +
STACK CFI INIT 113d4 7c .cfa: sp 0 +
STACK CFI INIT 11450 14 .cfa: sp 0 +
STACK CFI INIT 11464 40 .cfa: sp 0 +
STACK CFI INIT 114a4 28 .cfa: sp 0 +
STACK CFI INIT 114cc 190 .cfa: sp 0 +
STACK CFI INIT 1165c 2c8 .cfa: sp 0 +
STACK CFI INIT 11924 8 .cfa: sp 0 +
STACK CFI INIT 1192c 8 .cfa: sp 0 +
STACK CFI INIT 11934 44 .cfa: sp 0 +
STACK CFI INIT 11978 e8 .cfa: sp 0 +
STACK CFI INIT 11a60 e8 .cfa: sp 0 +
STACK CFI INIT 11b48 14 .cfa: sp 0 +
STACK CFI INIT 11b5c 10 .cfa: sp 0 +
STACK CFI INIT 11b6c 10 .cfa: sp 0 +
STACK CFI INIT 11b7c f0 .cfa: sp 0 +
STACK CFI INIT 11c6c 44 .cfa: sp 0 +
STACK CFI INIT 11cb0 c .cfa: sp 0 +
STACK CFI INIT 11cbc c .cfa: sp 0 +
STACK CFI INIT 11cc8 2c .cfa: sp 0 +
STACK CFI INIT 11cf4 280 .cfa: sp 0 +
STACK CFI INIT 11f74 c .cfa: sp 0 +
STACK CFI INIT 11f80 120 .cfa: sp 0 +
STACK CFI INIT 120a0 488 .cfa: sp 0 +
STACK CFI INIT 12528 c48 .cfa: sp 0 +
STACK CFI INIT 13170 134 .cfa: sp 0 +
STACK CFI INIT 132a4 210 .cfa: sp 0 +
STACK CFI INIT 134b4 38c .cfa: sp 0 +
STACK CFI INIT 13840 1c8 .cfa: sp 0 +
STACK CFI INIT 13a08 9bc .cfa: sp 0 +
STACK CFI INIT 143c4 2d4 .cfa: sp 0 +
STACK CFI INIT 14698 134 .cfa: sp 0 +
STACK CFI INIT 147cc 120 .cfa: sp 0 +
STACK CFI INIT 148ec 1c8 .cfa: sp 0 +
STACK CFI INIT 14ab4 168 .cfa: sp 0 +
STACK CFI INIT 14c1c fc .cfa: sp 0 +
STACK CFI INIT 14d18 30 .cfa: sp 0 +
STACK CFI INIT 14e80 30 .cfa: sp 0 +
STACK CFI INIT 14eb0 98 .cfa: sp 0 +
STACK CFI INIT 14f48 59c .cfa: sp 0 +
STACK CFI INIT 154e4 8c .cfa: sp 0 +
STACK CFI INIT 15570 30 .cfa: sp 0 +
STACK CFI INIT 155a0 188 .cfa: sp 0 +
STACK CFI 155a4 .cfa: sp 48 +
STACK CFI 155b0 .cfa: x29 16 + .ra: .cfa -8 + ^ x29: .cfa -16 + ^ v8: .cfa -24 + ^ v9: .cfa -32 + ^ v10: .cfa -40 + ^ v11: .cfa -48 + ^
STACK CFI 15718 .cfa: sp 48 +
STACK CFI 15724 .cfa: sp 0 +
STACK CFI INIT 15728 34 .cfa: sp 0 +
STACK CFI INIT 15f94 18 .cfa: sp 0 +
STACK CFI INIT 15fac 18 .cfa: sp 0 +
STACK CFI INIT 15fc4 18 .cfa: sp 0 +
STACK CFI INIT 16420 18 .cfa: sp 0 +
STACK CFI INIT 1687c 18 .cfa: sp 0 +
STACK CFI INIT 16894 4 .cfa: sp 0 +
STACK CFI INIT 16898 50 .cfa: sp 0 +
STACK CFI 1689c .cfa: sp 32 +
STACK CFI 168a4 .cfa: x29 32 + x19: .cfa -16 + ^ .ra: .cfa -24 + ^ x29: .cfa -32 + ^
STACK CFI 168bc .cfa: sp 32 +
STACK CFI 168c4 .cfa: sp 0 +
STACK CFI 168c8 .cfa: x29 32 +
STACK CFI 168dc .cfa: sp 32 +
STACK CFI 168e4 .cfa: sp 0 +
STACK CFI INIT 1695c 7c .cfa: sp 0 +
STACK CFI 16960 .cfa: sp 48 +
STACK CFI 1696c .cfa: x29 48 + x19: .cfa -8 + ^ x20: .cfa -16 + ^ x21: .cfa -32 + ^ .ra: .cfa -40 + ^ x29: .cfa -48 + ^
STACK CFI 169b8 .cfa: sp 48 +
STACK CFI 169c4 .cfa: sp 0 +
STACK CFI 169c8 .cfa: sp 48 +
STACK CFI 169d4 .cfa: sp 0 +
STACK CFI INIT 169d8 4 .cfa: sp 0 +
STACK CFI INIT 169dc 10 .cfa: sp 0 +
STACK CFI 169e0 .cfa: sp 16 +
STACK CFI 169e4 .cfa: x29 16 + .ra: .cfa -8 + ^ x29: .cfa -16 + ^
STACK CFI INIT 16b40 34 .cfa: sp 0 +
STACK CFI 16b44 .cfa: sp 16 +
STACK CFI 16b48 .cfa: x29 16 + .ra: .cfa -8 + ^ x29: .cfa -16 + ^
STACK CFI INIT 16c98 80 .cfa: sp 0 +
STACK CFI 16c9c .cfa: sp 48 +
STACK CFI 16ca8 .cfa: x29 48 + x19: .cfa -8 + ^ x20: .cfa -16 + ^ x21: .cfa -32 + ^ .ra: .cfa -40 + ^ x29: .cfa -48 + ^
STACK CFI 16d08 .cfa: sp 48 +
STACK CFI 16d14 .cfa: sp 0 +
STACK CFI INIT 16d18 24 .cfa: sp 0 +
STACK CFI 16d1c .cfa: sp 32 +
STACK CFI 16d24 .cfa: x29 32 + x19: .cfa -16 + ^ .ra: .cfa -24 + ^ x29: .cfa -32 + ^
STACK CFI 16d30 .cfa: sp 32 +
STACK CFI 16d38 .cfa: sp 0 +
STACK CFI INIT 17088 14 .cfa: sp 0 +
STACK CFI 1708c .cfa: sp 16 +
STACK CFI 17090 .cfa: x29 16 + .ra: .cfa -8 + ^ x29: .cfa -16 + ^
STACK CFI INIT 170ec 30 .cfa: sp 0 +
STACK CFI 170f0 .cfa: sp 32 +
STACK CFI 170f8 .cfa: x29 32 + x19: .cfa -16 + ^ .ra: .cfa -24 + ^ x29: .cfa -32 + ^
STACK CFI 17110 .cfa: sp 32 +
STACK CFI 17118 .cfa: sp 0 +
STACK CFI INIT 1711c 34 .cfa: sp 0 +
STACK CFI 17120 .cfa: sp 32 +
STACK CFI 17128 .cfa: x29 32 + x19: .cfa -16 + ^ .ra: .cfa -24 + ^ x29: .cfa -32 + ^
STACK CFI INIT 172ac 148 .cfa: sp 0 +
STACK CFI 172b0 .cfa: sp 48 +
STACK CFI 172bc .cfa: x29 48 + x19: .cfa -8 + ^ x20: .cfa -16 + ^ x21: .cfa -32 + ^ .ra: .cfa -40 + ^ x29: .cfa -48 + ^
STACK CFI 173e4 .cfa: sp 48 +
STACK CFI 173f0 .cfa: sp 0 +
STACK CFI INIT 1760c 70 .cfa: sp 0 +
STACK CFI 17610 .cfa: sp 48 +
STACK CFI 1761c .cfa: x29 48 + x19: .cfa -8 + ^ x20: .cfa -16 + ^ x21: .cfa -24 + ^ x22: .cfa -32 + ^ .ra: .cfa -40 + ^ x29: .cfa -48 + ^
STACK CFI 17664 .cfa: sp 48 +
STACK CFI 17670 .cfa: sp 0 +
STACK CFI 17674 .cfa: x29 48 +
STACK CFI INIT 1767c 68 .cfa: sp 0 +
STACK CFI 17680 .cfa: sp 32 +
STACK CFI 17688 .cfa: x29 32 + x19: .cfa -8 + ^ x20: .cfa -16 + ^ .ra: .cfa -24 + ^ x29: .cfa -32 + ^
STACK CFI 176a0 .cfa: sp 32 +
STACK CFI 176a8 .cfa: sp 0 +
STACK CFI 176ac .cfa: x29 32 +
STACK CFI 176d8 .cfa: sp 32 +
STACK CFI 176e0 .cfa: sp 0 +
STACK CFI INIT 176e4 14 .cfa: sp 0 +
STACK CFI 176e8 .cfa: sp 16 +
STACK CFI 176ec .cfa: x29 16 + .ra: .cfa -8 + ^ x29: .cfa -16 + ^
STACK CFI INIT 176f8 4 .cfa: sp 0 +
STACK CFI INIT 176fc 14 .cfa: sp 0 +
STACK CFI INIT 17710 fc .cfa: sp 0 +
STACK CFI 17714 .cfa: sp 64 +
STACK CFI 17724 .cfa: x29 64 + x19: .cfa -8 + ^ x20: .cfa -16 + ^ x21: .cfa -24 + ^ x22: .cfa -32 + ^ x23: .cfa -40 + ^ x24: .cfa -48 + ^ .ra: .cfa -56 + ^ x29: .cfa -64 + ^
STACK CFI 177f8 .cfa: sp 64 +
STACK CFI 17808 .cfa: sp 0 +
STACK CFI INIT 1780c 454 .cfa: sp 0 +
STACK CFI 17810 .cfa: sp 32 +
STACK CFI 17818 .cfa: x29 32 + x19: .cfa -8 + ^ x20: .cfa -16 + ^ .ra: .cfa -24 + ^ x29: .cfa -32 + ^
STACK CFI 17ba8 .cfa: sp 32 +
STACK CFI 17bb0 .cfa: sp 0 +
STACK CFI 17bb4 .cfa: x29 32 +
STACK CFI INIT 17c60 84 .cfa: sp 0 +
STACK CFI 17c68 .cfa: sp 32 +
STACK CFI 17c70 .cfa: x29 32 + x19: .cfa -8 + ^ x20: .cfa -16 + ^ .ra: .cfa -24 + ^ x29: .cfa -32 + ^
STACK CFI 17cb0 .cfa: sp 32 +
STACK CFI 17cb8 .cfa: sp 0 +
STACK CFI 17cc0 .cfa: x29 32 +
STACK CFI INIT 18080 4 .cfa: sp 0 +
STACK CFI INIT 1813c 540 .cfa: sp 0 +
STACK CFI 18140 .cfa: sp 176 +
STACK CFI 18164 .cfa: x29 96 + x19: .cfa -8 + ^ x20: .cfa -16 + ^ x21: .cfa -24 + ^ x22: .cfa -32 + ^ x23: .cfa -40 + ^ x24: .cfa -48 + ^ x25: .cfa -56 + ^ x26: .cfa -64 + ^ x27: .cfa -72 + ^ x28: .cfa -80 + ^ .ra: .cfa -88 + ^ x29: .cfa -96 + ^ v8: .cfa -104 + ^ v9: .cfa -112 + ^ v10: .cfa -120 + ^ v11: .cfa -128 + ^
STACK CFI 1863c .cfa: sp 176 +
STACK CFI 18660 .cfa: sp 0 +
STACK CFI 18664 .cfa: x29 96 +
STACK CFI INIT 1867c 94 .cfa: sp 0 +
STACK CFI 18680 .cfa: sp 32 +
STACK CFI 18688 .cfa: x29 32 + x19: .cfa -16 + ^ .ra: .cfa -24 + ^ x29: .cfa -32 + ^
STACK CFI 18704 .cfa: sp 32 +
STACK CFI 1870c .cfa: sp 0 +
STACK CFI INIT 1937c 78 .cfa: sp 0 +
STACK CFI 19380 .cfa: sp 48 +
STACK CFI 1938c .cfa: x29 48 + x19: .cfa -8 + ^ x20: .cfa -16 + ^ x21: .cfa -32 + ^ .ra: .cfa -40 + ^ x29: .cfa -48 + ^
STACK CFI 193d4 .cfa: sp 48 +
STACK CFI 193e0 .cfa: sp 0 +
STACK CFI 193e4 .cfa: sp 48 +
STACK CFI 193f0 .cfa: sp 0 +
STACK CFI INIT 193f4 78 .cfa: sp 0 +
STACK CFI 193f8 .cfa: sp 48 +
STACK CFI 19404 .cfa: x29 48 + x19: .cfa -8 + ^ x20: .cfa -16 + ^ x21: .cfa -32 + ^ .ra: .cfa -40 + ^ x29: .cfa -48 + ^
STACK CFI 1944c .cfa: sp 48 +
STACK CFI 19458 .cfa: sp 0 +
STACK CFI 1945c .cfa: sp 48 +
STACK CFI 19468 .cfa: sp 0 +
STACK CFI INIT 1946c 84 .cfa: sp 0 +
STACK CFI 19470 .cfa: sp 48 +
STACK CFI 1947c .cfa: x29 48 + x19: .cfa -8 + ^ x20: .cfa -16 + ^ x21: .cfa -24 + ^ x22: .cfa -32 + ^ .ra: .cfa -40 + ^ x29: .cfa -48 + ^
STACK CFI 194d0 .cfa: sp 48 +
STACK CFI 194dc .cfa: sp 0 +
STACK CFI 194e0 .cfa: sp 48 +
STACK CFI 194ec .cfa: sp 0 +
STACK CFI INIT 1950c 8c .cfa: sp 0 +
STACK CFI 19510 .cfa: sp 48 +
STACK CFI 1951c .cfa: x29 48 + x19: .cfa -8 + ^ x20: .cfa -16 + ^ x21: .cfa -24 + ^ x22: .cfa -32 + ^ .ra: .cfa -40 + ^ x29: .cfa -48 + ^
STACK CFI 19554 .cfa: sp 48 +
STACK CFI 19560 .cfa: sp 0 +
STACK CFI 19564 .cfa: x29 48 +
STACK CFI 19588 .cfa: sp 48 +
STACK CFI 19594 .cfa: sp 0 +
STACK CFI INIT 19598 78 .cfa: sp 0 +
STACK CFI 1959c .cfa: sp 48 +
STACK CFI 195a8 .cfa: x29 48 + x19: .cfa -8 + ^ x20: .cfa -16 + ^ x21: .cfa -32 + ^ .ra: .cfa -40 + ^ x29: .cfa -48 + ^
STACK CFI 195f0 .cfa: sp 48 +
STACK CFI 195fc .cfa: sp 0 +
STACK CFI 19600 .cfa: sp 48 +
STACK CFI 1960c .cfa: sp 0 +
STACK CFI INIT 19610 8c .cfa: sp 0 +
STACK CFI 19614 .cfa: sp 48 +
STACK CFI 19620 .cfa: x29 48 + x19: .cfa -8 + ^ x20: .cfa -16 + ^ x21: .cfa -24 + ^ x22: .cfa -32 + ^ .ra: .cfa -40 + ^ x29: .cfa -48 + ^
STACK CFI 19658 .cfa: sp 48 +
STACK CFI 19664 .cfa: sp 0 +
STACK CFI 19668 .cfa: x29 48 +
STACK CFI 1968c .cfa: sp 48 +
STACK CFI 19698 .cfa: sp 0 +
STACK CFI INIT 1969c 78 .cfa: sp 0 +
STACK CFI 196a0 .cfa: sp 48 +
STACK CFI 196ac .cfa: x29 48 + x19: .cfa -8 + ^ x20: .cfa -16 + ^ x21: .cfa -32 + ^ .ra: .cfa -40 + ^ x29: .cfa -48 + ^
STACK CFI 196f4 .cfa: sp 48 +
STACK CFI 19700 .cfa: sp 0 +
STACK CFI 19704 .cfa: sp 48 +
STACK CFI 19710 .cfa: sp 0 +
STACK CFI INIT 19714 104 .cfa: sp 0 +
STACK CFI 19718 .cfa: sp 64 +
STACK CFI 19728 .cfa: x29 64 + x19: .cfa -8 + ^ x20: .cfa -16 + ^ x21: .cfa -24 + ^ x22: .cfa -32 + ^ x23: .cfa -48 + ^ .ra: .cfa -56 + ^ x29: .cfa -64 + ^
STACK CFI 197f0 .cfa: sp 64 +
STACK CFI 19800 .cfa: sp 0 +
STACK CFI 19804 .cfa: sp 64 +
STACK CFI 19814 .cfa: sp 0 +
STACK CFI INIT 19c58 78 .cfa: sp 0 +
STACK CFI 19c5c .cfa: sp 48 +
STACK CFI 19c68 .cfa: x29 48 + x19: .cfa -8 + ^ x20: .cfa -16 + ^ x21: .cfa -32 + ^ .ra: .cfa -40 + ^ x29: .cfa -48 + ^
STACK CFI 19cb0 .cfa: sp 48 +
STACK CFI 19cbc .cfa: sp 0 +
STACK CFI 19cc0 .cfa: sp 48 +
STACK CFI 19ccc .cfa: sp 0 +
STACK CFI INIT 19cec 90 .cfa: sp 0 +
STACK CFI 19cf0 .cfa: sp 48 +
STACK CFI 19cfc .cfa: x29 48 + x19: .cfa -8 + ^ x20: .cfa -16 + ^ x21: .cfa -24 + ^ x22: .cfa -32 + ^ .ra: .cfa -40 + ^ x29: .cfa -48 + ^
STACK CFI 19d34 .cfa: sp 48 +
STACK CFI 19d40 .cfa: sp 0 +
STACK CFI 19d44 .cfa: x29 48 +
STACK CFI 19d6c .cfa: sp 48 +
STACK CFI 19d78 .cfa: sp 0 +
STACK CFI INIT 19eac 78 .cfa: sp 0 +
STACK CFI 19eb0 .cfa: sp 48 +
STACK CFI 19ebc .cfa: x29 48 + x19: .cfa -8 + ^ x20: .cfa -16 + ^ x21: .cfa -32 + ^ .ra: .cfa -40 + ^ x29: .cfa -48 + ^
STACK CFI 19f04 .cfa: sp 48 +
STACK CFI 19f10 .cfa: sp 0 +
STACK CFI 19f14 .cfa: sp 48 +
STACK CFI 19f20 .cfa: sp 0 +
STACK CFI INIT 19f24 78 .cfa: sp 0 +
STACK CFI 19f28 .cfa: sp 48 +
STACK CFI 19f34 .cfa: x29 48 + x19: .cfa -8 + ^ x20: .cfa -16 + ^ x21: .cfa -32 + ^ .ra: .cfa -40 + ^ x29: .cfa -48 + ^
STACK CFI 19f7c .cfa: sp 48 +
STACK CFI 19f88 .cfa: sp 0 +
STACK CFI 19f8c .cfa: sp 48 +
STACK CFI 19f98 .cfa: sp 0 +
STACK CFI INIT 19f9c 78 .cfa: sp 0 +
STACK CFI 19fa0 .cfa: sp 48 +
STACK CFI 19fac .cfa: x29 48 + x19: .cfa -8 + ^ x20: .cfa -16 + ^ x21: .cfa -32 + ^ .ra: .cfa -40 + ^ x29: .cfa -48 + ^
STACK CFI 19ff4 .cfa: sp 48 +
STACK CFI 1a000 .cfa: sp 0 +
STACK CFI 1a004 .cfa: sp 48 +
STACK CFI 1a010 .cfa: sp 0 +
STACK CFI INIT 1a014 78 .cfa: sp 0 +
STACK CFI 1a018 .cfa: sp 48 +
STACK CFI 1a024 .cfa: x29 48 + x19: .cfa -8 + ^ x20: .cfa -16 + ^ x21: .cfa -32 + ^ .ra: .cfa -40 + ^ x29: .cfa -48 + ^
STACK CFI 1a06c .cfa: sp 48 +
STACK CFI 1a078 .cfa: sp 0 +
STACK CFI 1a07c .cfa: sp 48 +
STACK CFI 1a088 .cfa: sp 0 +
STACK CFI INIT 1a258 250 .cfa: sp 0 +
STACK CFI 1a25c .cfa: sp 80 +
STACK CFI 1a270 .cfa: x29 80 + x19: .cfa -8 + ^ x20: .cfa -16 + ^ x21: .cfa -24 + ^ x22: .cfa -32 + ^ x23: .cfa -40 + ^ x24: .cfa -48 + ^ x25: .cfa -64 + ^ .ra: .cfa -72 + ^ x29: .cfa -80 + ^
STACK CFI 1a488 .cfa: sp 80 +
STACK CFI 1a49c .cfa: sp 0 +
STACK CFI 1a4a0 .cfa: x29 80 +
STACK CFI INIT 1a4a8 80 .cfa: sp 0 +
STACK CFI 1a4ac .cfa: sp 48 +
STACK CFI 1a4b8 .cfa: x29 48 + x19: .cfa -8 + ^ x20: .cfa -16 + ^ x21: .cfa -32 + ^ .ra: .cfa -40 + ^ x29: .cfa -48 + ^
STACK CFI 1a508 .cfa: sp 48 +
STACK CFI 1a514 .cfa: sp 0 +
STACK CFI 1a518 .cfa: sp 48 +
STACK CFI 1a524 .cfa: sp 0 +
STACK CFI INIT 1a528 80 .cfa: sp 0 +
STACK CFI 1a52c .cfa: sp 48 +
STACK CFI 1a538 .cfa: x29 48 + x19: .cfa -8 + ^ x20: .cfa -16 + ^ x21: .cfa -32 + ^ .ra: .cfa -40 + ^ x29: .cfa -48 + ^
STACK CFI 1a588 .cfa: sp 48 +
STACK CFI 1a594 .cfa: sp 0 +
STACK CFI 1a598 .cfa: sp 48 +
STACK CFI 1a5a4 .cfa: sp 0 +
STACK CFI INIT 1a73c 250 .cfa: sp 0 +
STACK CFI INIT 1a98c 1c8 .cfa: sp 0 +
STACK CFI 1a990 .cfa: sp 64 +
STACK CFI 1a9a0 .cfa: x29 64 + x19: .cfa -8 + ^ x20: .cfa -16 + ^ x21: .cfa -24 + ^ x22: .cfa -32 + ^ x23: .cfa -48 + ^ .ra: .cfa -56 + ^ x29: .cfa -64 + ^
STACK CFI 1aaa8 .cfa: sp 64 +
STACK CFI 1aab8 .cfa: sp 0 +
STACK CFI 1aabc .cfa: x29 64 +
STACK CFI INIT 1ab54 80 .cfa: sp 0 +
STACK CFI 1ab58 .cfa: sp 48 +
STACK CFI 1ab64 .cfa: x29 48 + x19: .cfa -8 + ^ x20: .cfa -16 + ^ x21: .cfa -32 + ^ .ra: .cfa -40 + ^ x29: .cfa -48 + ^
STACK CFI 1abb4 .cfa: sp 48 +
STACK CFI 1abc0 .cfa: sp 0 +
STACK CFI 1abc4 .cfa: sp 48 +
STACK CFI 1abd0 .cfa: sp 0 +
STACK CFI INIT 1abd4 98 .cfa: sp 0 +
STACK CFI 1abdc .cfa: sp 48 +
STACK CFI 1abe8 .cfa: x29 48 + x19: .cfa -8 + ^ x20: .cfa -16 + ^ x21: .cfa -32 + ^ .ra: .cfa -40 + ^ x29: .cfa -48 + ^
STACK CFI 1ac38 .cfa: sp 0 + x19: x19 x20: x20 x21: x21 .ra: x30 x29: x29
STACK CFI 1ac3c .cfa: x29 48 + x19: .cfa -8 + ^ x20: .cfa -16 + ^ x21: .cfa -32 + ^ .ra: .cfa -40 + ^ x29: .cfa -48 + ^
STACK CFI 1ac5c .cfa: sp 48 +
STACK CFI 1ac68 .cfa: sp 0 +
STACK CFI INIT 1ac6c 4c .cfa: sp 0 +
STACK CFI 1ac74 .cfa: sp 32 +
STACK CFI 1ac7c .cfa: x29 32 + x19: .cfa -8 + ^ x20: .cfa -16 + ^ .ra: .cfa -24 + ^ x29: .cfa -32 + ^
STACK CFI 1acac .cfa: sp 32 +
STACK CFI 1acb4 .cfa: sp 0 +
STACK CFI INIT 1acb8 4c .cfa: sp 0 +
STACK CFI 1acc0 .cfa: sp 32 +
STACK CFI 1acc8 .cfa: x29 32 + x19: .cfa -8 + ^ x20: .cfa -16 + ^ .ra: .cfa -24 + ^ x29: .cfa -32 + ^
STACK CFI 1acf8 .cfa: sp 32 +
STACK CFI 1ad00 .cfa: sp 0 +
STACK CFI INIT 1ad8c 4c .cfa: sp 0 +
STACK CFI 1ad94 .cfa: sp 32 +
STACK CFI 1ad9c .cfa: x29 32 + x19: .cfa -8 + ^ x20: .cfa -16 + ^ .ra: .cfa -24 + ^ x29: .cfa -32 + ^
STACK CFI 1adcc .cfa: sp 32 +
STACK CFI 1add4 .cfa: sp 0 +
STACK CFI INIT 1add8 a8 .cfa: sp 0 +
STACK CFI 1ade0 .cfa: sp 48 +
STACK CFI 1adec .cfa: x29 48 + x19: .cfa -8 + ^ x20: .cfa -16 + ^ x21: .cfa -24 + ^ x22: .cfa -32 + ^ .ra: .cfa -40 + ^ x29: .cfa -48 + ^
STACK CFI 1ae70 .cfa: sp 48 +
STACK CFI 1ae7c .cfa: sp 0 +
STACK CFI INIT 1ae80 4c .cfa: sp 0 +
STACK CFI 1ae88 .cfa: sp 32 +
STACK CFI 1ae90 .cfa: x29 32 + x19: .cfa -8 + ^ x20: .cfa -16 + ^ .ra: .cfa -24 + ^ x29: .cfa -32 + ^
STACK CFI 1aec0 .cfa: sp 32 +
STACK CFI 1aec8 .cfa: sp 0 +
STACK CFI INIT 1aecc 50 .cfa: sp 0 +
STACK CFI 1aed0 .cfa: sp 32 +
STACK CFI 1aed8 .cfa: x29 32 + x19: .cfa -16 + ^ .ra: .cfa -24 + ^ x29: .cfa -32 + ^
STACK CFI 1aef0 .cfa: sp 32 +
STACK CFI 1aef8 .cfa: sp 0 +
STACK CFI 1aefc .cfa: x29 32 +
STACK CFI 1af10 .cfa: sp 32 +
STACK CFI 1af18 .cfa: sp 0 +
STACK CFI INIT 1af1c 64 .cfa: sp 0 +
STACK CFI 1af20 .cfa: sp 32 +
STACK CFI 1af28 .cfa: x29 32 + x19: .cfa -16 + ^ .ra: .cfa -24 + ^ x29: .cfa -32 + ^
STACK CFI 1af54 .cfa: sp 32 +
STACK CFI 1af5c .cfa: sp 0 +
STACK CFI 1af60 .cfa: x29 32 +
STACK CFI 1af74 .cfa: sp 32 +
STACK CFI 1af7c .cfa: sp 0 +
STACK CFI INIT 1af80 12c .cfa: sp 0 +
STACK CFI 1af84 .cfa: sp 96 +
STACK CFI 1af98 .cfa: x29 48 + x19: .cfa -8 + ^ x20: .cfa -16 + ^ x21: .cfa -24 + ^ x22: .cfa -32 + ^ .ra: .cfa -40 + ^ x29: .cfa -48 + ^ v8: .cfa -64 + ^
STACK CFI 1b090 .cfa: sp 96 +
STACK CFI 1b0a4 .cfa: sp 0 +
STACK CFI 1b0a8 .cfa: x29 48 +
STACK CFI INIT 1b0ac 114 .cfa: sp 0 +
STACK CFI 1b0b0 .cfa: sp 80 +
STACK CFI 1b0c0 .cfa: x29 48 + x19: .cfa -8 + ^ x20: .cfa -16 + ^ x21: .cfa -24 + ^ x22: .cfa -32 + ^ .ra: .cfa -40 + ^ x29: .cfa -48 + ^
STACK CFI 1b1a8 .cfa: sp 80 +
STACK CFI 1b1b8 .cfa: sp 0 +
STACK CFI 1b1bc .cfa: x29 48 +
STACK CFI INIT 1b1c0 130 .cfa: sp 0 +
STACK CFI 1b1c4 .cfa: sp 80 +
STACK CFI 1b1d4 .cfa: x29 48 + x19: .cfa -8 + ^ x20: .cfa -16 + ^ x21: .cfa -24 + ^ x22: .cfa -32 + ^ .ra: .cfa -40 + ^ x29: .cfa -48 + ^
STACK CFI 1b2d8 .cfa: sp 80 +
STACK CFI 1b2e8 .cfa: sp 0 +
STACK CFI 1b2ec .cfa: x29 48 +
STACK CFI INIT 1b2f0 d8 .cfa: sp 0 +
STACK CFI 1b2f4 .cfa: sp 64 +
STACK CFI 1b304 .cfa: x29 64 + x19: .cfa -8 + ^ x20: .cfa -16 + ^ x21: .cfa -24 + ^ x22: .cfa -32 + ^ x23: .cfa -48 + ^ .ra: .cfa -56 + ^ x29: .cfa -64 + ^
STACK CFI 1b37c .cfa: sp 64 +
STACK CFI 1b38c .cfa: sp 0 +
STACK CFI 1b390 .cfa: x29 64 +
STACK CFI INIT 1b3c8 104 .cfa: sp 0 +
STACK CFI 1b3cc .cfa: sp 80 +
STACK CFI 1b3e0 .cfa: x29 80 + x19: .cfa -8 + ^ x20: .cfa -16 + ^ x21: .cfa -24 + ^ x22: .cfa -32 + ^ x23: .cfa -40 + ^ x24: .cfa -48 + ^ x25: .cfa -56 + ^ x26: .cfa -64 + ^ .ra: .cfa -72 + ^ x29: .cfa -80 + ^
STACK CFI 1b4b4 .cfa: sp 80 +
STACK CFI 1b4c8 .cfa: sp 0 +
STACK CFI INIT 1b4cc 19c .cfa: sp 0 +
STACK CFI INIT 1ba38 4 .cfa: sp 0 +
STACK CFI INIT 1baf4 41c .cfa: sp 0 +
STACK CFI 1baf8 .cfa: sp 160 +
STACK CFI 1bb1c .cfa: x29 96 + x19: .cfa -8 + ^ x20: .cfa -16 + ^ x21: .cfa -24 + ^ x22: .cfa -32 + ^ x23: .cfa -40 + ^ x24: .cfa -48 + ^ x25: .cfa -56 + ^ x26: .cfa -64 + ^ x27: .cfa -80 + ^ .ra: .cfa -88 + ^ x29: .cfa -96 + ^ v8: .cfa -104 + ^ v9: .cfa -112 + ^ v10: .cfa -120 + ^ v11: .cfa -128 + ^
STACK CFI 1bed0 .cfa: sp 160 +
STACK CFI 1bef4 .cfa: sp 0 +
STACK CFI 1bef8 .cfa: x29 96 +
STACK CFI INIT 1bf10 78 .cfa: sp 0 +
STACK CFI 1bf14 .cfa: sp 32 +
STACK CFI 1bf1c .cfa: x29 32 + x19: .cfa -16 + ^ .ra: .cfa -24 + ^ x29: .cfa -32 + ^
STACK CFI 1bf7c .cfa: sp 32 +
STACK CFI 1bf84 .cfa: sp 0 +
STACK CFI INIT 1c32c 4 .cfa: sp 0 +
STACK CFI INIT 1c4bc 30 .cfa: sp 0 +
STACK CFI 1c4c0 .cfa: sp 32 +
STACK CFI 1c4c8 .cfa: x29 32 + x19: .cfa -16 + ^ .ra: .cfa -24 + ^ x29: .cfa -32 + ^
STACK CFI 1c4e0 .cfa: sp 32 +
STACK CFI 1c4e8 .cfa: sp 0 +
STACK CFI INIT 1c86c 4 .cfa: sp 0 +
STACK CFI INIT 1caac 8c .cfa: sp 0 +
STACK CFI 1cab0 .cfa: sp 32 +
STACK CFI 1cab8 .cfa: x29 32 + x19: .cfa -16 + ^ .ra: .cfa -24 + ^ x29: .cfa -32 + ^
STACK CFI 1cb2c .cfa: sp 32 +
STACK CFI 1cb34 .cfa: sp 0 +
STACK CFI INIT 1cb38 30 .cfa: sp 0 +
STACK CFI 1cb3c .cfa: sp 32 +
STACK CFI 1cb44 .cfa: x29 32 + x19: .cfa -16 + ^ .ra: .cfa -24 + ^ x29: .cfa -32 + ^
STACK CFI 1cb5c .cfa: sp 32 +
STACK CFI 1cb64 .cfa: sp 0 +
STACK CFI INIT 1cb68 30 .cfa: sp 0 +
STACK CFI 1cb6c .cfa: sp 32 +
STACK CFI 1cb74 .cfa: x29 32 + x19: .cfa -16 + ^ .ra: .cfa -24 + ^ x29: .cfa -32 + ^
STACK CFI 1cb8c .cfa: sp 32 +
STACK CFI 1cb94 .cfa: sp 0 +
STACK CFI INIT 1cb98 4c .cfa: sp 0 +
STACK CFI 1cb9c .cfa: sp 32 +
STACK CFI 1cba4 .cfa: x29 32 + x19: .cfa -8 + ^ x20: .cfa -16 + ^ .ra: .cfa -24 + ^ x29: .cfa -32 + ^
STACK CFI 1cbcc .cfa: sp 32 +
STACK CFI 1cbd4 .cfa: sp 0 +
STACK CFI 1cbd8 .cfa: sp 32 +
STACK CFI 1cbe0 .cfa: sp 0 +
STACK CFI INIT 1ce04 64 .cfa: sp 0 +
STACK CFI 1ce08 .cfa: sp 32 +
STACK CFI 1ce10 .cfa: x29 32 + x19: .cfa -16 + ^ .ra: .cfa -24 + ^ x29: .cfa -32 + ^
STACK CFI 1ce3c .cfa: sp 32 +
STACK CFI 1ce44 .cfa: sp 0 +
STACK CFI 1ce48 .cfa: x29 32 +
STACK CFI 1ce5c .cfa: sp 32 +
STACK CFI 1ce64 .cfa: sp 0 +
STACK CFI INIT 1ce68 24 .cfa: sp 0 +
STACK CFI 1ce6c .cfa: sp 32 +
STACK CFI 1ce74 .cfa: x29 32 + x19: .cfa -16 + ^ .ra: .cfa -24 + ^ x29: .cfa -32 + ^
STACK CFI 1ce80 .cfa: sp 32 +
STACK CFI 1ce88 .cfa: sp 0 +
STACK CFI INIT 1ce8c 24 .cfa: sp 0 +
STACK CFI 1ce90 .cfa: sp 32 +
STACK CFI 1ce98 .cfa: x29 32 + x19: .cfa -16 + ^ .ra: .cfa -24 + ^ x29: .cfa -32 + ^
STACK CFI 1cea4 .cfa: sp 32 +
STACK CFI 1ceac .cfa: sp 0 +
STACK CFI INIT 1ceb0 8 .cfa: sp 0 +
STACK CFI INIT 1ceb8 24 .cfa: sp 0 +
STACK CFI 1cebc .cfa: sp 32 +
STACK CFI 1cec4 .cfa: x29 32 + x19: .cfa -16 + ^ .ra: .cfa -24 + ^ x29: .cfa -32 + ^
STACK CFI 1ced0 .cfa: sp 32 +
STACK CFI 1ced8 .cfa: sp 0 +
STACK CFI INIT 1cedc 28 .cfa: sp 0 +
STACK CFI 1cee0 .cfa: sp 32 +
STACK CFI 1cee8 .cfa: x29 32 + x19: .cfa -16 + ^ .ra: .cfa -24 + ^ x29: .cfa -32 + ^
STACK CFI 1cef8 .cfa: sp 32 +
STACK CFI 1cf00 .cfa: sp 0 +
STACK CFI INIT 1de4c 8 .cfa: sp 0 +
STACK CFI INIT 1de54 24 .cfa: sp 0 +
STACK CFI 1de58 .cfa: sp 32 +
STACK CFI 1de60 .cfa: x29 32 + x19: .cfa -16 + ^ .ra: .cfa -24 + ^ x29: .cfa -32 + ^
STACK CFI 1de6c .cfa: sp 32 +
STACK CFI 1de74 .cfa: sp 0 +
STACK CFI INIT 1de78 28 .cfa: sp 0 +
STACK CFI 1de7c .cfa: sp 32 +
STACK CFI 1de84 .cfa: x29 32 + x19: .cfa -16 + ^ .ra: .cfa -24 + ^ x29: .cfa -32 + ^
STACK CFI 1de94 .cfa: sp 32 +
STACK CFI 1de9c .cfa: sp 0 +
STACK CFI INIT 1e16c 8 .cfa: sp 0 +
STACK CFI INIT 1e454 8 .cfa: sp 0 +
STACK CFI INIT 1e6c4 8 .cfa: sp 0 +
STACK CFI INIT 1e918 4 .cfa: sp 0 +
STACK CFI INIT 1e91c 8 .cfa: sp 0 +
STACK CFI INIT 1e924 8 .cfa: sp 0 +
STACK CFI INIT 1e92c 4 .cfa: sp 0 +
STACK CFI INIT 1f42c 8 .cfa: sp 0 +
STACK CFI INIT 1f434 24 .cfa: sp 0 +
STACK CFI 1f438 .cfa: sp 32 +
STACK CFI 1f440 .cfa: x29 32 + x19: .cfa -16 + ^ .ra: .cfa -24 + ^ x29: .cfa -32 + ^
STACK CFI 1f44c .cfa: sp 32 +
STACK CFI 1f454 .cfa: sp 0 +
STACK CFI INIT 1f458 28 .cfa: sp 0 +
STACK CFI 1f45c .cfa: sp 32 +
STACK CFI 1f464 .cfa: x29 32 + x19: .cfa -16 + ^ .ra: .cfa -24 + ^ x29: .cfa -32 + ^
STACK CFI 1f474 .cfa: sp 32 +
STACK CFI 1f47c .cfa: sp 0 +
STACK CFI INIT 1f6cc 8 .cfa: sp 0 +
STACK CFI INIT 1f6d4 4 .cfa: sp 0 +
STACK CFI INIT 1f6d8 4 .cfa: sp 0 +
STACK CFI INIT 1f6dc 4 .cfa: sp 0 +
STACK CFI INIT 1f6e0 4 .cfa: sp 0 +
STACK CFI INIT 1f6e4 4 .cfa: sp 0 +
STACK CFI INIT 203c0 4 .cfa: sp 0 +
STACK CFI INIT 203c4 14 .cfa: sp 0 +
STACK CFI INIT 1575c 41c .cfa: sp 0 +
STACK CFI 15760 .cfa: sp 224 +
STACK CFI 1577c .cfa: x29 96 + x19: .cfa -8 + ^ x20: .cfa -16 + ^ x21: .cfa -24 + ^ x22: .cfa -32 + ^ x23: .cfa -40 + ^ x24: .cfa -48 + ^ x25: .cfa -56 + ^ x26: .cfa -64 + ^ x27: .cfa -72 + ^ x28: .cfa -80 + ^ .ra: .cfa -88 + ^ x29: .cfa -96 + ^
STACK CFI 15a64 .cfa: sp 224 +
STACK CFI 15a80 .cfa: sp 0 +
STACK CFI 15a84 .cfa: x29 96 +
STACK CFI INIT 15b78 41c .cfa: sp 0 +
STACK CFI 15b7c .cfa: sp 224 +
STACK CFI 15b98 .cfa: x29 96 + x19: .cfa -8 + ^ x20: .cfa -16 + ^ x21: .cfa -24 + ^ x22: .cfa -32 + ^ x23: .cfa -40 + ^ x24: .cfa -48 + ^ x25: .cfa -56 + ^ x26: .cfa -64 + ^ x27: .cfa -72 + ^ x28: .cfa -80 + ^ .ra: .cfa -88 + ^ x29: .cfa -96 + ^
STACK CFI 15e80 .cfa: sp 224 +
STACK CFI 15e9c .cfa: sp 0 +
STACK CFI 15ea0 .cfa: x29 96 +
STACK CFI INIT 15fdc 444 .cfa: sp 0 +
STACK CFI 15fe0 .cfa: sp 224 +
STACK CFI 15ffc .cfa: x29 96 + x19: .cfa -8 + ^ x20: .cfa -16 + ^ x21: .cfa -24 + ^ x22: .cfa -32 + ^ x23: .cfa -40 + ^ x24: .cfa -48 + ^ x25: .cfa -56 + ^ x26: .cfa -64 + ^ x27: .cfa -72 + ^ x28: .cfa -80 + ^ .ra: .cfa -88 + ^ x29: .cfa -96 + ^
STACK CFI 16230 .cfa: sp 224 +
STACK CFI 1624c .cfa: sp 0 +
STACK CFI 16250 .cfa: x29 96 +
STACK CFI 1631c .cfa: sp 224 +
STACK CFI 16338 .cfa: sp 0 +
STACK CFI 1633c .cfa: x29 96 +
STACK CFI INIT 16438 444 .cfa: sp 0 +
STACK CFI 1643c .cfa: sp 224 +
STACK CFI 16458 .cfa: x29 96 + x19: .cfa -8 + ^ x20: .cfa -16 + ^ x21: .cfa -24 + ^ x22: .cfa -32 + ^ x23: .cfa -40 + ^ x24: .cfa -48 + ^ x25: .cfa -56 + ^ x26: .cfa -64 + ^ x27: .cfa -72 + ^ x28: .cfa -80 + ^ .ra: .cfa -88 + ^ x29: .cfa -96 + ^
STACK CFI 1668c .cfa: sp 224 +
STACK CFI 166a8 .cfa: sp 0 +
STACK CFI 166ac .cfa: x29 96 +
STACK CFI 16778 .cfa: sp 224 +
STACK CFI 16794 .cfa: sp 0 +
STACK CFI 16798 .cfa: x29 96 +
STACK CFI INIT 168e8 74 .cfa: sp 0 +
STACK CFI 168ec .cfa: sp 48 +
STACK CFI 168f8 .cfa: x29 32 + x19: .cfa -8 + ^ x20: .cfa -16 + ^ .ra: .cfa -24 + ^ x29: .cfa -32 + ^
STACK CFI 16944 .cfa: sp 48 +
STACK CFI 16950 .cfa: sp 0 +
STACK CFI 16954 .cfa: x29 32 +
STACK CFI INIT 169ec 154 .cfa: sp 0 +
STACK CFI 169f0 .cfa: sp 384 +
STACK CFI 16a04 .cfa: x29 64 + x19: .cfa -8 + ^ x20: .cfa -16 + ^ x21: .cfa -24 + ^ x22: .cfa -32 + ^ x23: .cfa -40 + ^ x28: .cfa -48 + ^ .ra: .cfa -56 + ^ x29: .cfa -64 + ^
STACK CFI 16ae8 .cfa: sp 384 +
STACK CFI 16afc .cfa: sp 0 +
STACK CFI 16b00 .cfa: x29 64 +
STACK CFI INIT 16b74 124 .cfa: sp 0 +
STACK CFI 16b78 .cfa: sp 80 +
STACK CFI 16b8c .cfa: x29 80 + x19: .cfa -8 + ^ x20: .cfa -16 + ^ x21: .cfa -24 + ^ x22: .cfa -32 + ^ x23: .cfa -40 + ^ x24: .cfa -48 + ^ x25: .cfa -56 + ^ x26: .cfa -64 + ^ .ra: .cfa -72 + ^ x29: .cfa -80 + ^
STACK CFI 16c58 .cfa: sp 80 +
STACK CFI 16c6c .cfa: sp 0 +
STACK CFI 16c70 .cfa: x29 80 +
STACK CFI INIT 16d3c 198 .cfa: sp 0 +
STACK CFI 16d40 .cfa: sp 112 +
STACK CFI 16d58 .cfa: x29 80 + x19: .cfa -8 + ^ x20: .cfa -16 + ^ x21: .cfa -24 + ^ x22: .cfa -32 + ^ x23: .cfa -40 + ^ x24: .cfa -48 + ^ x25: .cfa -56 + ^ x26: .cfa -64 + ^ .ra: .cfa -72 + ^ x29: .cfa -80 + ^
STACK CFI 16e48 .cfa: sp 112 +
STACK CFI 16e60 .cfa: sp 0 +
STACK CFI 16e64 .cfa: x29 80 +
STACK CFI INIT 16ed4 1b4 .cfa: sp 0 +
STACK CFI 16ed8 .cfa: sp 128 +
STACK CFI 16ef4 .cfa: x29 96 + x19: .cfa -8 + ^ x20: .cfa -16 + ^ x21: .cfa -24 + ^ x22: .cfa -32 + ^ x23: .cfa -40 + ^ x24: .cfa -48 + ^ x25: .cfa -56 + ^ x26: .cfa -64 + ^ x27: .cfa -80 + ^ .ra: .cfa -88 + ^ x29: .cfa -96 + ^
STACK CFI 17038 .cfa: sp 128 +
STACK CFI 17054 .cfa: sp 0 +
STACK CFI 17058 .cfa: x29 96 +
STACK CFI INIT 1709c 50 .cfa: sp 0 +
STACK CFI 170a0 .cfa: sp 32 +
STACK CFI 170a8 .cfa: x29 32 + x19: .cfa -8 + ^ x20: .cfa -16 + ^ .ra: .cfa -24 + ^ x29: .cfa -32 + ^
STACK CFI INIT 17150 15c .cfa: sp 0 +
STACK CFI 17154 .cfa: sp 80 +
STACK CFI 17168 .cfa: x29 80 + x19: .cfa -8 + ^ x20: .cfa -16 + ^ x21: .cfa -24 + ^ x22: .cfa -32 + ^ x23: .cfa -40 + ^ x24: .cfa -48 + ^ x25: .cfa -64 + ^ .ra: .cfa -72 + ^ x29: .cfa -80 + ^
STACK CFI 17278 .cfa: sp 80 +
STACK CFI 1728c .cfa: sp 0 +
STACK CFI 17290 .cfa: x29 80 +
STACK CFI INIT 173f4 218 .cfa: sp 0 +
STACK CFI 173f8 .cfa: sp 128 +
STACK CFI 17410 .cfa: x29 80 + x19: .cfa -8 + ^ x20: .cfa -16 + ^ x21: .cfa -24 + ^ x22: .cfa -32 + ^ x23: .cfa -40 + ^ x24: .cfa -48 + ^ x25: .cfa -64 + ^ .ra: .cfa -72 + ^ x29: .cfa -80 + ^
STACK CFI 175a0 .cfa: sp 128 +
STACK CFI 175b8 .cfa: sp 0 +
STACK CFI 175bc .cfa: x29 80 +
STACK CFI INIT 17ce4 39c .cfa: sp 0 +
STACK CFI 17ce8 .cfa: sp 192 +
STACK CFI 17cfc .cfa: x29 64 + x19: .cfa -8 + ^ x20: .cfa -16 + ^ x21: .cfa -24 + ^ x22: .cfa -32 + ^ x23: .cfa -40 + ^ x24: .cfa -48 + ^ .ra: .cfa -56 + ^ x29: .cfa -64 + ^
STACK CFI 17f78 .cfa: sp 192 +
STACK CFI 17f8c .cfa: sp 0 +
STACK CFI 17f90 .cfa: x29 64 +
STACK CFI INIT 18084 b8 .cfa: sp 0 +
STACK CFI 18088 .cfa: sp 32 +
STACK CFI 18090 .cfa: x29 32 + x19: .cfa -8 + ^ x20: .cfa -16 + ^ .ra: .cfa -24 + ^ x29: .cfa -32 + ^
STACK CFI 180c4 .cfa: sp 32 +
STACK CFI 180cc .cfa: sp 0 +
STACK CFI 180d0 .cfa: x29 32 +
STACK CFI 180d4 .cfa: sp 32 +
STACK CFI 180dc .cfa: sp 0 +
STACK CFI 180e0 .cfa: x29 32 +
STACK CFI INIT 18710 71c .cfa: sp 0 +
STACK CFI 18714 .cfa: sp 80 +
STACK CFI 18728 .cfa: x29 80 + x19: .cfa -8 + ^ x20: .cfa -16 + ^ x21: .cfa -24 + ^ x22: .cfa -32 + ^ x23: .cfa -40 + ^ x24: .cfa -48 + ^ x25: .cfa -56 + ^ x26: .cfa -64 + ^ .ra: .cfa -72 + ^ x29: .cfa -80 + ^
STACK CFI 18b44 .cfa: sp 80 +
STACK CFI 18b58 .cfa: sp 0 +
STACK CFI 18b5c .cfa: x29 80 +
STACK CFI INIT 18e2c 550 .cfa: sp 0 +
STACK CFI 18e30 .cfa: sp 96 +
STACK CFI 18e44 .cfa: x29 64 + x19: .cfa -8 + ^ x20: .cfa -16 + ^ x21: .cfa -24 + ^ x22: .cfa -32 + ^ x23: .cfa -48 + ^ .ra: .cfa -56 + ^ x29: .cfa -64 + ^
STACK CFI 191e4 .cfa: sp 96 +
STACK CFI 191f8 .cfa: sp 0 +
STACK CFI 191fc .cfa: x29 64 +
STACK CFI INIT 194f0 1c .cfa: sp 0 +
STACK CFI 194f4 .cfa: sp 16 +
STACK CFI 194f8 .cfa: x29 16 + .ra: .cfa -8 + ^ x29: .cfa -16 + ^
STACK CFI 19500 .cfa: sp 16 +
STACK CFI 19504 .cfa: sp 0 +
STACK CFI 19508 .cfa: x29 16 +
STACK CFI INIT 19818 440 .cfa: sp 0 +
STACK CFI 1981c .cfa: sp 48 +
STACK CFI 19828 .cfa: x29 48 + x19: .cfa -8 + ^ x20: .cfa -16 + ^ x21: .cfa -24 + ^ x22: .cfa -32 + ^ .ra: .cfa -40 + ^ x29: .cfa -48 + ^
STACK CFI 19bd0 .cfa: sp 48 +
STACK CFI 19bdc .cfa: sp 0 +
STACK CFI 19be0 .cfa: x29 48 +
STACK CFI 19c30 .cfa: sp 48 +
STACK CFI 19c3c .cfa: sp 0 +
STACK CFI 19c40 .cfa: x29 48 +
STACK CFI INIT 19cd0 1c .cfa: sp 0 +
STACK CFI 19cd4 .cfa: sp 16 +
STACK CFI 19cd8 .cfa: x29 16 + .ra: .cfa -8 + ^ x29: .cfa -16 + ^
STACK CFI 19ce0 .cfa: sp 16 +
STACK CFI 19ce4 .cfa: sp 0 +
STACK CFI 19ce8 .cfa: x29 16 +
STACK CFI INIT 19d7c 98 .cfa: sp 0 +
STACK CFI 19d80 .cfa: sp 48 +
STACK CFI 19d8c .cfa: x29 48 + x19: .cfa -8 + ^ x20: .cfa -16 + ^ x21: .cfa -32 + ^ .ra: .cfa -40 + ^ x29: .cfa -48 + ^
STACK CFI 19dec .cfa: sp 48 +
STACK CFI 19df8 .cfa: sp 0 +
STACK CFI 19dfc .cfa: sp 48 +
STACK CFI 19e08 .cfa: sp 0 +
STACK CFI 19e0c .cfa: x29 48 +
STACK CFI INIT 19e14 60 .cfa: sp 0 +
STACK CFI 19e18 .cfa: sp 32 +
STACK CFI 19e20 .cfa: x29 32 + x19: .cfa -8 + ^ x20: .cfa -16 + ^ .ra: .cfa -24 + ^ x29: .cfa -32 + ^
STACK CFI 19e58 .cfa: sp 32 +
STACK CFI 19e60 .cfa: sp 0 +
STACK CFI 19e64 .cfa: sp 32 +
STACK CFI 19e6c .cfa: sp 0 +
STACK CFI 19e70 .cfa: x29 32 +
STACK CFI INIT 19e74 1c .cfa: sp 0 +
STACK CFI 19e78 .cfa: sp 16 +
STACK CFI 19e7c .cfa: x29 16 + .ra: .cfa -8 + ^ x29: .cfa -16 + ^
STACK CFI 19e84 .cfa: sp 16 +
STACK CFI 19e88 .cfa: sp 0 +
STACK CFI 19e8c .cfa: x29 16 +
STACK CFI INIT 19e90 1c .cfa: sp 0 +
STACK CFI 19e94 .cfa: sp 16 +
STACK CFI 19e98 .cfa: x29 16 + .ra: .cfa -8 + ^ x29: .cfa -16 + ^
STACK CFI 19ea0 .cfa: sp 16 +
STACK CFI 19ea4 .cfa: sp 0 +
STACK CFI 19ea8 .cfa: x29 16 +
STACK CFI INIT 1a08c 1cc .cfa: sp 0 +
STACK CFI 1a090 .cfa: sp 160 +
STACK CFI 1a0a8 .cfa: x29 80 + x19: .cfa -8 + ^ x20: .cfa -16 + ^ x21: .cfa -24 + ^ x22: .cfa -32 + ^ x23: .cfa -40 + ^ x24: .cfa -48 + ^ x25: .cfa -56 + ^ x26: .cfa -64 + ^ .ra: .cfa -72 + ^ x29: .cfa -80 + ^
STACK CFI 1a204 .cfa: sp 160 +
STACK CFI 1a21c .cfa: sp 0 +
STACK CFI 1a220 .cfa: x29 80 +
STACK CFI INIT 1a5a8 194 .cfa: sp 0 +
STACK CFI 1a5ac .cfa: sp 64 +
STACK CFI 1a5bc .cfa: x29 64 + x19: .cfa -8 + ^ x20: .cfa -16 + ^ x21: .cfa -24 + ^ x22: .cfa -32 + ^ x23: .cfa -48 + ^ .ra: .cfa -56 + ^ x29: .cfa -64 + ^
STACK CFI 1a680 .cfa: sp 64 +
STACK CFI 1a690 .cfa: sp 0 +
STACK CFI 1a694 .cfa: x29 64 +
STACK CFI INIT 1ad04 88 .cfa: sp 0 +
STACK CFI 1ad08 .cfa: sp 48 +
STACK CFI 1ad14 .cfa: x29 48 + x19: .cfa -8 + ^ x20: .cfa -16 + ^ x21: .cfa -24 + ^ x22: .cfa -32 + ^ .ra: .cfa -40 + ^ x29: .cfa -48 + ^
STACK CFI 1ad78 .cfa: sp 48 +
STACK CFI 1ad84 .cfa: sp 0 +
STACK CFI 1ad88 .cfa: x29 48 +
STACK CFI INIT 1b668 3d0 .cfa: sp 0 +
STACK CFI 1b66c .cfa: sp 240 +
STACK CFI 1b680 .cfa: x29 64 + x19: .cfa -8 + ^ x20: .cfa -16 + ^ x21: .cfa -24 + ^ x22: .cfa -32 + ^ x23: .cfa -48 + ^ .ra: .cfa -56 + ^ x29: .cfa -64 + ^
STACK CFI 1b920 .cfa: sp 240 +
STACK CFI 1b934 .cfa: sp 0 +
STACK CFI 1b938 .cfa: x29 64 +
STACK CFI INIT 1ba3c b8 .cfa: sp 0 +
STACK CFI 1ba40 .cfa: sp 32 +
STACK CFI 1ba48 .cfa: x29 32 + x19: .cfa -8 + ^ x20: .cfa -16 + ^ .ra: .cfa -24 + ^ x29: .cfa -32 + ^
STACK CFI 1ba7c .cfa: sp 32 +
STACK CFI 1ba84 .cfa: sp 0 +
STACK CFI 1ba88 .cfa: x29 32 +
STACK CFI 1ba8c .cfa: sp 32 +
STACK CFI 1ba94 .cfa: sp 0 +
STACK CFI 1ba98 .cfa: x29 32 +
STACK CFI INIT 1bf88 3a4 .cfa: sp 0 +
STACK CFI 1bf8c .cfa: sp 208 +
STACK CFI 1bfa0 .cfa: x29 64 + x19: .cfa -8 + ^ x20: .cfa -16 + ^ x21: .cfa -24 + ^ x22: .cfa -32 + ^ x23: .cfa -40 + ^ x24: .cfa -48 + ^ .ra: .cfa -56 + ^ x29: .cfa -64 + ^
STACK CFI 1c21c .cfa: sp 208 +
STACK CFI 1c230 .cfa: sp 0 +
STACK CFI 1c234 .cfa: x29 64 +
STACK CFI INIT 1c330 18c .cfa: sp 0 +
STACK CFI 1c334 .cfa: sp 96 +
STACK CFI 1c348 .cfa: x29 64 + x19: .cfa -8 + ^ x20: .cfa -16 + ^ x21: .cfa -24 + ^ x22: .cfa -32 + ^ x23: .cfa -40 + ^ x24: .cfa -48 + ^ .ra: .cfa -56 + ^ x29: .cfa -64 + ^
STACK CFI 1c474 .cfa: sp 96 +
STACK CFI 1c488 .cfa: sp 0 +
STACK CFI 1c48c .cfa: x29 64 +
STACK CFI INIT 1c4ec 380 .cfa: sp 0 +
STACK CFI 1c4f0 .cfa: sp 224 +
STACK CFI 1c504 .cfa: x29 64 + x19: .cfa -8 + ^ x20: .cfa -16 + ^ x21: .cfa -24 + ^ x22: .cfa -32 + ^ x23: .cfa -48 + ^ .ra: .cfa -56 + ^ x29: .cfa -64 + ^
STACK CFI 1c768 .cfa: sp 224 +
STACK CFI 1c77c .cfa: sp 0 +
STACK CFI 1c780 .cfa: x29 64 +
STACK CFI INIT 1c870 a8 .cfa: sp 0 +
STACK CFI 1c874 .cfa: sp 32 +
STACK CFI 1c87c .cfa: x29 32 + x19: .cfa -8 + ^ x20: .cfa -16 + ^ .ra: .cfa -24 + ^ x29: .cfa -32 + ^
STACK CFI 1c8b0 .cfa: sp 32 +
STACK CFI 1c8b8 .cfa: sp 0 +
STACK CFI 1c8bc .cfa: x29 32 +
STACK CFI 1c8c0 .cfa: sp 32 +
STACK CFI 1c8c8 .cfa: sp 0 +
STACK CFI 1c8cc .cfa: x29 32 +
STACK CFI INIT 1c918 194 .cfa: sp 0 +
STACK CFI 1c91c .cfa: sp 112 +
STACK CFI 1c930 .cfa: x29 64 + x19: .cfa -8 + ^ x20: .cfa -16 + ^ x21: .cfa -24 + ^ x22: .cfa -32 + ^ x23: .cfa -48 + ^ .ra: .cfa -56 + ^ x29: .cfa -64 + ^
STACK CFI 1ca64 .cfa: sp 112 +
STACK CFI 1ca78 .cfa: sp 0 +
STACK CFI 1ca7c .cfa: x29 64 +
STACK CFI INIT 1cbe4 134 .cfa: sp 0 +
STACK CFI 1cbe8 .cfa: sp 80 +
STACK CFI 1cbf4 .cfa: x29 32 + x19: .cfa -8 + ^ x20: .cfa -16 + ^ .ra: .cfa -24 + ^ x29: .cfa -32 + ^
STACK CFI 1cc24 .cfa: sp 80 +
STACK CFI 1cc30 .cfa: sp 0 +
STACK CFI 1cc34 .cfa: x29 32 +
STACK CFI INIT 1cd18 78 .cfa: sp 0 +
STACK CFI 1cd1c .cfa: sp 32 +
STACK CFI 1cd24 .cfa: x29 32 + x19: .cfa -8 + ^ x20: .cfa -16 + ^ .ra: .cfa -24 + ^ x29: .cfa -32 + ^
STACK CFI 1cd30 .cfa: sp 32 +
STACK CFI 1cd38 .cfa: sp 0 +
STACK CFI 1cd3c .cfa: x29 32 +
STACK CFI INIT 1cd90 74 .cfa: sp 0 +
STACK CFI 1cd94 .cfa: sp 48 +
STACK CFI 1cda0 .cfa: x29 32 + x19: .cfa -8 + ^ x20: .cfa -16 + ^ .ra: .cfa -24 + ^ x29: .cfa -32 + ^
STACK CFI 1cdec .cfa: sp 48 +
STACK CFI 1cdf8 .cfa: sp 0 +
STACK CFI 1cdfc .cfa: x29 32 +
STACK CFI INIT 1cf04 82c .cfa: sp 0 +
STACK CFI 1cf08 .cfa: sp 144 +
STACK CFI 1cf1c .cfa: x29 64 + x19: .cfa -8 + ^ x20: .cfa -16 + ^ x21: .cfa -24 + ^ x22: .cfa -32 + ^ x23: .cfa -48 + ^ .ra: .cfa -56 + ^ x29: .cfa -64 + ^
STACK CFI 1d560 .cfa: sp 144 +
STACK CFI 1d574 .cfa: sp 0 +
STACK CFI 1d578 .cfa: x29 64 +
STACK CFI INIT 1d730 71c .cfa: sp 0 +
STACK CFI 1d734 .cfa: sp 80 +
STACK CFI 1d748 .cfa: x29 80 + x19: .cfa -8 + ^ x20: .cfa -16 + ^ x21: .cfa -24 + ^ x22: .cfa -32 + ^ x23: .cfa -40 + ^ x24: .cfa -48 + ^ x25: .cfa -56 + ^ x26: .cfa -64 + ^ .ra: .cfa -72 + ^ x29: .cfa -80 + ^
STACK CFI 1db64 .cfa: sp 80 +
STACK CFI 1db78 .cfa: sp 0 +
STACK CFI 1db7c .cfa: x29 80 +
STACK CFI INIT 1dea0 17c .cfa: sp 0 +
STACK CFI 1dea4 .cfa: sp 160 +
STACK CFI 1debc .cfa: x29 80 + x19: .cfa -8 + ^ x20: .cfa -16 + ^ x21: .cfa -24 + ^ x22: .cfa -32 + ^ x23: .cfa -40 + ^ x24: .cfa -48 + ^ x25: .cfa -56 + ^ x26: .cfa -64 + ^ .ra: .cfa -72 + ^ x29: .cfa -80 + ^
STACK CFI 1df24 .cfa: sp 160 +
STACK CFI 1df3c .cfa: sp 0 +
STACK CFI 1df40 .cfa: x29 80 +
STACK CFI INIT 1e01c 150 .cfa: sp 0 +
STACK CFI 1e020 .cfa: sp 96 +
STACK CFI 1e030 .cfa: x29 48 + x19: .cfa -8 + ^ x20: .cfa -16 + ^ x21: .cfa -24 + ^ x22: .cfa -32 + ^ .ra: .cfa -40 + ^ x29: .cfa -48 + ^
STACK CFI 1e130 .cfa: sp 96 +
STACK CFI 1e140 .cfa: sp 0 +
STACK CFI 1e144 .cfa: x29 48 +
STACK CFI INIT 1e174 18c .cfa: sp 0 +
STACK CFI 1e178 .cfa: sp 176 +
STACK CFI 1e194 .cfa: x29 80 + x19: .cfa -8 + ^ x20: .cfa -16 + ^ x21: .cfa -24 + ^ x22: .cfa -32 + ^ x23: .cfa -40 + ^ x24: .cfa -48 + ^ x25: .cfa -56 + ^ x26: .cfa -64 + ^ .ra: .cfa -72 + ^ x29: .cfa -80 + ^ v8: .cfa -96 + ^
STACK CFI 1e204 .cfa: sp 176 +
STACK CFI 1e220 .cfa: sp 0 +
STACK CFI 1e224 .cfa: x29 80 +
STACK CFI INIT 1e300 154 .cfa: sp 0 +
STACK CFI 1e304 .cfa: sp 96 +
STACK CFI 1e314 .cfa: x29 48 + x19: .cfa -8 + ^ x20: .cfa -16 + ^ x21: .cfa -24 + ^ x22: .cfa -32 + ^ .ra: .cfa -40 + ^ x29: .cfa -48 + ^
STACK CFI 1e418 .cfa: sp 96 +
STACK CFI 1e428 .cfa: sp 0 +
STACK CFI 1e42c .cfa: x29 48 +
STACK CFI INIT 1e45c 16c .cfa: sp 0 +
STACK CFI 1e460 .cfa: sp 144 +
STACK CFI 1e478 .cfa: x29 56 + x19: .cfa -8 + ^ x20: .cfa -16 + ^ x21: .cfa -24 + ^ x22: .cfa -32 + ^ x23: .cfa -40 + ^ .ra: .cfa -48 + ^ x29: .cfa -56 + ^ v8: .cfa -64 + ^
STACK CFI 1e4d0 .cfa: sp 144 +
STACK CFI 1e4e8 .cfa: sp 0 +
STACK CFI 1e4ec .cfa: x29 56 +
STACK CFI INIT 1e5c8 fc .cfa: sp 0 +
STACK CFI 1e5cc .cfa: sp 64 +
STACK CFI 1e5dc .cfa: x29 48 + x19: .cfa -8 + ^ x20: .cfa -16 + ^ x21: .cfa -24 + ^ x22: .cfa -32 + ^ .ra: .cfa -40 + ^ x29: .cfa -48 + ^
STACK CFI 1e68c .cfa: sp 64 +
STACK CFI 1e69c .cfa: sp 0 +
STACK CFI 1e6a0 .cfa: x29 48 +
STACK CFI INIT 1e6cc 15c .cfa: sp 0 +
STACK CFI 1e6d0 .cfa: sp 144 +
STACK CFI 1e6e4 .cfa: x29 64 + x19: .cfa -8 + ^ x20: .cfa -16 + ^ x21: .cfa -24 + ^ x22: .cfa -32 + ^ x23: .cfa -48 + ^ .ra: .cfa -56 + ^ x29: .cfa -64 + ^
STACK CFI 1e734 .cfa: sp 144 +
STACK CFI 1e748 .cfa: sp 0 +
STACK CFI 1e74c .cfa: x29 64 +
STACK CFI INIT 1e828 f0 .cfa: sp 0 +
STACK CFI 1e82c .cfa: sp 64 +
STACK CFI 1e83c .cfa: x29 48 + x19: .cfa -8 + ^ x20: .cfa -16 + ^ x21: .cfa -24 + ^ x22: .cfa -32 + ^ .ra: .cfa -40 + ^ x29: .cfa -48 + ^
STACK CFI 1e8e0 .cfa: sp 64 +
STACK CFI 1e8f0 .cfa: sp 0 +
STACK CFI 1e8f4 .cfa: x29 48 +
STACK CFI INIT 1e930 174 .cfa: sp 0 +
STACK CFI 1e934 .cfa: sp 160 +
STACK CFI 1e94c .cfa: x29 80 + x19: .cfa -8 + ^ x20: .cfa -16 + ^ x21: .cfa -24 + ^ x22: .cfa -32 + ^ x23: .cfa -40 + ^ x24: .cfa -48 + ^ x25: .cfa -64 + ^ .ra: .cfa -72 + ^ x29: .cfa -80 + ^
STACK CFI 1e9ac .cfa: sp 160 +
STACK CFI 1e9c4 .cfa: sp 0 +
STACK CFI 1e9c8 .cfa: x29 80 +
STACK CFI INIT 1eaa4 140 .cfa: sp 0 +
STACK CFI 1eaa8 .cfa: sp 64 +
STACK CFI 1eab8 .cfa: x29 48 + x19: .cfa -8 + ^ x20: .cfa -16 + ^ x21: .cfa -24 + ^ x22: .cfa -32 + ^ .ra: .cfa -40 + ^ x29: .cfa -48 + ^
STACK CFI 1eba8 .cfa: sp 64 +
STACK CFI 1ebb8 .cfa: sp 0 +
STACK CFI 1ebbc .cfa: x29 48 +
STACK CFI INIT 1ebe4 18c .cfa: sp 0 +
STACK CFI 1ebe8 .cfa: sp 176 +
STACK CFI 1ec04 .cfa: x29 96 + x19: .cfa -8 + ^ x20: .cfa -16 + ^ x21: .cfa -24 + ^ x22: .cfa -32 + ^ x23: .cfa -40 + ^ x24: .cfa -48 + ^ x25: .cfa -56 + ^ x26: .cfa -64 + ^ x27: .cfa -80 + ^ .ra: .cfa -88 + ^ x29: .cfa -96 + ^
STACK CFI 1ec74 .cfa: sp 176 +
STACK CFI 1ec90 .cfa: sp 0 +
STACK CFI 1ec94 .cfa: x29 96 +
STACK CFI INIT 1ed70 154 .cfa: sp 0 +
STACK CFI 1ed74 .cfa: sp 64 +
STACK CFI 1ed84 .cfa: x29 48 + x19: .cfa -8 + ^ x20: .cfa -16 + ^ x21: .cfa -24 + ^ x22: .cfa -32 + ^ .ra: .cfa -40 + ^ x29: .cfa -48 + ^
STACK CFI 1ee88 .cfa: sp 64 +
STACK CFI 1ee98 .cfa: sp 0 +
STACK CFI 1ee9c .cfa: x29 48 +
STACK CFI INIT 1eec4 15c .cfa: sp 0 +
STACK CFI 1eec8 .cfa: sp 144 +
STACK CFI 1eedc .cfa: x29 64 + x19: .cfa -8 + ^ x20: .cfa -16 + ^ x21: .cfa -24 + ^ x22: .cfa -32 + ^ x23: .cfa -48 + ^ .ra: .cfa -56 + ^ x29: .cfa -64 + ^
STACK CFI 1ef2c .cfa: sp 144 +
STACK CFI 1ef40 .cfa: sp 0 +
STACK CFI 1ef44 .cfa: x29 64 +
STACK CFI INIT 1f020 f0 .cfa: sp 0 +
STACK CFI 1f024 .cfa: sp 64 +
STACK CFI 1f034 .cfa: x29 48 + x19: .cfa -8 + ^ x20: .cfa -16 + ^ x21: .cfa -24 + ^ x22: .cfa -32 + ^ .ra: .cfa -40 + ^ x29: .cfa -48 + ^
STACK CFI 1f0d8 .cfa: sp 64 +
STACK CFI 1f0e8 .cfa: sp 0 +
STACK CFI 1f0ec .cfa: x29 48 +
STACK CFI INIT 1f110 31c .cfa: sp 0 +
STACK CFI 1f114 .cfa: sp 144 +
STACK CFI 1f128 .cfa: x29 64 + x19: .cfa -8 + ^ x20: .cfa -16 + ^ x21: .cfa -24 + ^ x22: .cfa -32 + ^ x23: .cfa -48 + ^ .ra: .cfa -56 + ^ x29: .cfa -64 + ^
STACK CFI 1f2d0 .cfa: sp 144 +
STACK CFI 1f2e4 .cfa: sp 0 +
STACK CFI 1f2e8 .cfa: x29 64 +
STACK CFI INIT 1f480 15c .cfa: sp 0 +
STACK CFI 1f484 .cfa: sp 144 +
STACK CFI 1f498 .cfa: x29 64 + x19: .cfa -8 + ^ x20: .cfa -16 + ^ x21: .cfa -24 + ^ x22: .cfa -32 + ^ x23: .cfa -48 + ^ .ra: .cfa -56 + ^ x29: .cfa -64 + ^
STACK CFI 1f4e8 .cfa: sp 144 +
STACK CFI 1f4fc .cfa: sp 0 +
STACK CFI 1f500 .cfa: x29 64 +
STACK CFI INIT 1f5dc f0 .cfa: sp 0 +
STACK CFI 1f5e0 .cfa: sp 64 +
STACK CFI 1f5f0 .cfa: x29 48 + x19: .cfa -8 + ^ x20: .cfa -16 + ^ x21: .cfa -24 + ^ x22: .cfa -32 + ^ .ra: .cfa -40 + ^ x29: .cfa -48 + ^
STACK CFI 1f694 .cfa: sp 64 +
STACK CFI 1f6a4 .cfa: sp 0 +
STACK CFI 1f6a8 .cfa: x29 48 +
STACK CFI INIT 1f6e8 290 .cfa: sp 0 +
STACK CFI 1f6ec .cfa: sp 144 +
STACK CFI 1f700 .cfa: x29 64 + x19: .cfa -8 + ^ x20: .cfa -16 + ^ x21: .cfa -24 + ^ x22: .cfa -32 + ^ x23: .cfa -48 + ^ .ra: .cfa -56 + ^ x29: .cfa -64 + ^
STACK CFI 1f81c .cfa: sp 144 +
STACK CFI 1f830 .cfa: sp 0 +
STACK CFI 1f834 .cfa: x29 64 +
STACK CFI INIT 1f978 2e0 .cfa: sp 0 +
STACK CFI 1f97c .cfa: sp 144 +
STACK CFI 1f990 .cfa: x29 64 + x19: .cfa -8 + ^ x20: .cfa -16 + ^ x21: .cfa -24 + ^ x22: .cfa -32 + ^ x23: .cfa -48 + ^ .ra: .cfa -56 + ^ x29: .cfa -64 + ^
STACK CFI 1fafc .cfa: sp 144 +
STACK CFI 1fb10 .cfa: sp 0 +
STACK CFI 1fb14 .cfa: x29 64 +
STACK CFI INIT 1fc58 4ac .cfa: sp 0 +
STACK CFI 1fc5c .cfa: sp 144 +
STACK CFI 1fc70 .cfa: x29 64 + x19: .cfa -8 + ^ x20: .cfa -16 + ^ x21: .cfa -24 + ^ x22: .cfa -32 + ^ x23: .cfa -48 + ^ .ra: .cfa -56 + ^ x29: .cfa -64 + ^
STACK CFI 1ff54 .cfa: sp 144 +
STACK CFI 1ff68 .cfa: sp 0 +
STACK CFI 1ff6c .cfa: x29 64 +
STACK CFI INIT 20104 154 .cfa: sp 0 +
STACK CFI 20108 .cfa: sp 384 +
STACK CFI 2011c .cfa: x29 64 + x19: .cfa -8 + ^ x20: .cfa -16 + ^ x21: .cfa -24 + ^ x22: .cfa -32 + ^ x23: .cfa -40 + ^ x28: .cfa -48 + ^ .ra: .cfa -56 + ^ x29: .cfa -64 + ^
STACK CFI 20200 .cfa: sp 384 +
STACK CFI 20214 .cfa: sp 0 +
STACK CFI 20218 .cfa: x29 64 +
STACK CFI INIT 20258 168 .cfa: sp 0 +
STACK CFI 2025c .cfa: sp 384 +
STACK CFI 20270 .cfa: x29 64 + x19: .cfa -8 + ^ x20: .cfa -16 + ^ x21: .cfa -24 + ^ x22: .cfa -32 + ^ x23: .cfa -40 + ^ x28: .cfa -48 + ^ .ra: .cfa -56 + ^ x29: .cfa -64 + ^
STACK CFI 20368 .cfa: sp 384 +
STACK CFI 2037c .cfa: sp 0 +
STACK CFI 20380 .cfa: x29 64 +
STACK CFI INIT 203d8 430 .cfa: sp 0 +
STACK CFI 203dc .cfa: sp 64 +
STACK CFI 203ec .cfa: x29 64 + x19: .cfa -8 + ^ x20: .cfa -16 + ^ x21: .cfa -24 + ^ x22: .cfa -32 + ^ x23: .cfa -40 + ^ x24: .cfa -48 + ^ .ra: .cfa -56 + ^ x29: .cfa -64 + ^
STACK CFI 207a0 .cfa: sp 64 +
STACK CFI 207b0 .cfa: sp 0 +
STACK CFI 207b4 .cfa: x29 64 +
