MODULE Linux arm64 465E6A0053731CAB88190EF7EC472C400 alphalaneous.mod_previews.android64.so
INFO CODE_ID 006A5E467353AB1C88190EF7EC472C40A97F305D
INFO GENERATOR mozilla/dump_syms 2.3.4
PUBLIC 1a340 0 __on_dlclose
PUBLIC 1a350 0 __emutls_unregister_key
PUBLIC 1a358 0 __on_dlclose_late
PUBLIC 1a360 0 __atexit_handler_wrapper
PUBLIC 1a374 0 atexit
PUBLIC 1a390 0 pthread_atfork
PUBLIC 1a3a0 0 unwind_phase2
PUBLIC 1a4d4 0 _Unwind_Resume
PUBLIC 1a558 0 unwind_phase2_forced
PUBLIC m 1a64c 0 __unw_init_local
PUBLIC m 1a6f4 0 __unw_get_reg
PUBLIC 1a770 0 __unw_step_stage2
PUBLIC m 1a784 0 __unw_get_proc_info
PUBLIC m 1a7c4 0 __unw_resume
PUBLIC 1a7ec 0 libunwind::CFI_Parser<libunwind::LocalAddressSpace>::decodeFDE(libunwind::LocalAddressSpace&, unsigned long, libunwind::CFI_Parser<libunwind::LocalAddressSpace>::FDE_Info*, libunwind::CFI_Parser<libunwind::LocalAddressSpace>::CIE_Info*, bool)
PUBLIC 1a97c 0 libunwind::CFI_Parser<libunwind::LocalAddressSpace>::parseCIE(libunwind::LocalAddressSpace&, unsigned long, libunwind::CFI_Parser<libunwind::LocalAddressSpace>::CIE_Info*)
PUBLIC 1ac44 0 libunwind::AbstractUnwindCursor::~AbstractUnwindCursor()
PUBLIC 1ac4c 0 libunwind::UnwindCursor<libunwind::LocalAddressSpace, libunwind::Registers_arm64>::~UnwindCursor()
PUBLIC 1ac54 0 libunwind::UnwindCursor<libunwind::LocalAddressSpace, libunwind::Registers_arm64>::validReg(int)
PUBLIC 1ac98 0 libunwind::UnwindCursor<libunwind::LocalAddressSpace, libunwind::Registers_arm64>::getReg(int)
PUBLIC 1ad80 0 libunwind::UnwindCursor<libunwind::LocalAddressSpace, libunwind::Registers_arm64>::setReg(int, unsigned long)
PUBLIC 1ae68 0 libunwind::UnwindCursor<libunwind::LocalAddressSpace, libunwind::Registers_arm64>::validFloatReg(int)
PUBLIC 1ae7c 0 libunwind::UnwindCursor<libunwind::LocalAddressSpace, libunwind::Registers_arm64>::getFloatReg(int)
PUBLIC 1ae8c 0 libunwind::UnwindCursor<libunwind::LocalAddressSpace, libunwind::Registers_arm64>::setFloatReg(int, double)
PUBLIC 1ae9c 0 libunwind::UnwindCursor<libunwind::LocalAddressSpace, libunwind::Registers_arm64>::step(bool)
PUBLIC 1af8c 0 libunwind::UnwindCursor<libunwind::LocalAddressSpace, libunwind::Registers_arm64>::getInfo(unw_proc_info_t*)
PUBLIC 1afd0 0 libunwind::UnwindCursor<libunwind::LocalAddressSpace, libunwind::Registers_arm64>::jumpto()
PUBLIC 1afdc 0 libunwind::UnwindCursor<libunwind::LocalAddressSpace, libunwind::Registers_arm64>::isSignalFrame()
PUBLIC 1afe8 0 libunwind::UnwindCursor<libunwind::LocalAddressSpace, libunwind::Registers_arm64>::getFunctionName(char*, unsigned long, unsigned long*)
PUBLIC 1b014 0 libunwind::UnwindCursor<libunwind::LocalAddressSpace, libunwind::Registers_arm64>::setInfoBasedOnIPRegister(bool)
PUBLIC 1b294 0 libunwind::UnwindCursor<libunwind::LocalAddressSpace, libunwind::Registers_arm64>::getRegisterName(int)
PUBLIC 1b2a0 0 libunwind::UnwindCursor<libunwind::LocalAddressSpace, libunwind::Registers_arm64>::stepThroughSigReturn(libunwind::Registers_arm64&)
PUBLIC 1b3c0 0 libunwind::DwarfInstructions<libunwind::LocalAddressSpace, libunwind::Registers_arm64>::stepWithDwarf(libunwind::LocalAddressSpace&, unsigned long, unsigned long, libunwind::Registers_arm64&, bool&, bool)
PUBLIC 1b848 0 libunwind::CFI_Parser<libunwind::LocalAddressSpace>::parseFDEInstructions(libunwind::LocalAddressSpace&, libunwind::CFI_Parser<libunwind::LocalAddressSpace>::FDE_Info const&, libunwind::CFI_Parser<libunwind::LocalAddressSpace>::CIE_Info const&, unsigned long, int, libunwind::CFI_Parser<libunwind::LocalAddressSpace>::PrologInfo*)
PUBLIC 1c490 0 libunwind::DwarfInstructions<libunwind::LocalAddressSpace, libunwind::Registers_arm64>::getCFA(libunwind::LocalAddressSpace&, libunwind::CFI_Parser<libunwind::LocalAddressSpace>::PrologInfo const&, libunwind::Registers_arm64 const&)
PUBLIC 1c5c4 0 libunwind::DwarfInstructions<libunwind::LocalAddressSpace, libunwind::Registers_arm64>::getSavedRegister(libunwind::LocalAddressSpace&, libunwind::Registers_arm64 const&, unsigned long, libunwind::CFI_Parser<libunwind::LocalAddressSpace>::RegisterLocation const&)
PUBLIC 1c7d4 0 libunwind::LocalAddressSpace::getEncodedP(unsigned long&, unsigned long, unsigned char, unsigned long)
PUBLIC 1cb60 0 libunwind::LocalAddressSpace::getULEB128(unsigned long&, unsigned long)
PUBLIC 1cd28 0 libunwind::DwarfInstructions<libunwind::LocalAddressSpace, libunwind::Registers_arm64>::evaluateExpression(unsigned long, libunwind::LocalAddressSpace&, libunwind::Registers_arm64 const&, unsigned long)
PUBLIC 1d6e4 0 libunwind::UnwindCursor<libunwind::LocalAddressSpace, libunwind::Registers_arm64>::getInfoFromDwarfSection(unsigned long, libunwind::UnwindInfoSections const&, unsigned int)
PUBLIC 1d9b8 0 libunwind::findUnwindSectionsByPhdr(dl_phdr_info*, unsigned long, void*)
PUBLIC 1daec 0 libunwind::EHHeaderParser<libunwind::LocalAddressSpace>::decodeEHHdr(libunwind::LocalAddressSpace&, unsigned long, unsigned long, libunwind::EHHeaderParser<libunwind::LocalAddressSpace>::EHHeaderInfo&)
PUBLIC 1dc0c 0 libunwind::CFI_Parser<libunwind::LocalAddressSpace>::findFDE(libunwind::LocalAddressSpace&, unsigned long, unsigned long, unsigned long, unsigned long, libunwind::CFI_Parser<libunwind::LocalAddressSpace>::FDE_Info*, libunwind::CFI_Parser<libunwind::LocalAddressSpace>::CIE_Info*)
PUBLIC 1ddd4 0 libunwind::EHHeaderParser<libunwind::LocalAddressSpace>::findFDE(libunwind::LocalAddressSpace&, unsigned long, unsigned long, unsigned int, libunwind::CFI_Parser<libunwind::LocalAddressSpace>::FDE_Info*, libunwind::CFI_Parser<libunwind::LocalAddressSpace>::CIE_Info*)
PUBLIC 1df3c 0 libunwind::EHHeaderParser<libunwind::LocalAddressSpace>::getTableEntrySize(unsigned char)
PUBLIC 1e038 0 libunwind::Registers_arm64::getRegisterName(int)
PUBLIC 1e068 0 __libunwind_Registers_arm64_jumpto
PUBLIC m 1e0f8 0 __unw_getcontext
PUBLIC 1e194 0 ImageCache::addImage(cocos2d::CCImage*, std::__ndk1::basic_string<char, std::__ndk1::char_traits<char>, std::__ndk1::allocator<char> >)
PUBLIC 1e4b0 0 std::__ndk1::pair<std::__ndk1::basic_string<char, std::__ndk1::char_traits<char>, std::__ndk1::allocator<char> >, geode::Ref<cocos2d::CCImage> >::~pair()
PUBLIC 1e4f4 0 ImageCache::getImage(std::__ndk1::basic_string<char, std::__ndk1::char_traits<char>, std::__ndk1::allocator<char> >)
PUBLIC 1e658 0 std::__ndk1::vector<std::__ndk1::pair<std::__ndk1::basic_string<char, std::__ndk1::char_traits<char>, std::__ndk1::allocator<char> >, geode::Ref<cocos2d::CCImage> >, std::__ndk1::allocator<std::__ndk1::pair<std::__ndk1::basic_string<char, std::__ndk1::char_traits<char>, std::__ndk1::allocator<char> >, geode::Ref<cocos2d::CCImage> > > >::__throw_length_error[abi:ne180000]() const
PUBLIC 1e66c 0 __clang_call_terminate
PUBLIC 1e67c 0 std::__ndk1::__throw_length_error[abi:ne180000](char const*)
PUBLIC 1e6cc 0 std::length_error::length_error[abi:ne180000](char const*)
PUBLIC 1e6fc 0 std::__throw_bad_array_new_length([abi:ne180000], void)
PUBLIC 1e730 0 std::__ndk1::basic_string<char, std::__ndk1::char_traits<char>, std::__ndk1::allocator<char> >::__init_copy_ctor_external(char const*, unsigned long)
PUBLIC 1e7b0 0 std::__ndk1::basic_string<char, std::__ndk1::char_traits<char>, std::__ndk1::allocator<char> >::__throw_length_error[abi:ne180000]() const
PUBLIC 1e7d0 0 __aarch64_ldadd8_relax
PUBLIC 1e800 0 init_have_lse_atomics
PUBLIC 1e898 0 __init_cpu_features_constructor
PUBLIC 1ee34 0 __init_cpu_features
PUBLIC 1eec0 0 __aarch64_ldadd8_acq_rel
PUBLIC 1eef0 0 ImagePopup::init(int, int, std::__ndk1::basic_string<char, std::__ndk1::char_traits<char>, std::__ndk1::allocator<char> >)
PUBLIC 1f4e4 0 geode::Mod::getSettingValue<bool>(std::__ndk1::basic_string_view<char, std::__ndk1::char_traits<char> >) const
PUBLIC 1f618 0 ImagePopup::showImage(int)
PUBLIC 1fb40 0 ImagePopup::setup()
PUBLIC 1fe68 0 ImagePopup::onPrev(cocos2d::CCObject*)
PUBLIC 1fe84 0 ImagePopup::onNext(cocos2d::CCObject*)
PUBLIC 1fea0 0 ImagePopup::onClose(cocos2d::CCObject*)
PUBLIC 1fef0 0 ImagePopup::create(int, int, std::__ndk1::basic_string<char, std::__ndk1::char_traits<char>, std::__ndk1::allocator<char> >)
PUBLIC 200ac 0 cocos2d::CCCopying::copyWithZone(cocos2d::CCZone*)
PUBLIC 200b4 0 ImagePopup::~ImagePopup()
PUBLIC 2016c 0 ImagePopup::~ImagePopup()
PUBLIC 2022c 0 geode::Popup<>::registerWithTouchDispatcher()
PUBLIC 20258 0 geode::Popup<>::keyDown(cocos2d::enumKeyCodes)
PUBLIC 20280 0 cocos2d::CCLayerRGBA::setOpacityModifyRGB(bool)
PUBLIC 20284 0 cocos2d::CCLayerRGBA::isOpacityModifyRGB()
PUBLIC 2028c 0 {virtual override thunk({offset(-320)}, ImagePopup::~ImagePopup())}
PUBLIC 20348 0 {virtual override thunk({offset(-320)}, ImagePopup::~ImagePopup())}
PUBLIC 2040c 0 {virtual override thunk({offset(-344)}, geode::Popup<>::keyDown(cocos2d::enumKeyCodes))}
PUBLIC 20438 0 cocos2d::CCKeyboardDelegate::keyUp(cocos2d::enumKeyCodes)
PUBLIC 2043c 0 cocos2d::CCMouseDelegate::rightKeyDown()
PUBLIC 20440 0 cocos2d::CCMouseDelegate::rightKeyUp()
PUBLIC 20444 0 cocos2d::CCMouseDelegate::scrollWheel(float, float)
PUBLIC 20448 0 {virtual override thunk({offset(-408)}, cocos2d::CCLayerRGBA::setOpacityModifyRGB(bool))}
PUBLIC 2044c 0 {virtual override thunk({offset(-408)}, cocos2d::CCLayerRGBA::isOpacityModifyRGB())}
PUBLIC 20454 0 std::__ndk1::basic_string<char, std::__ndk1::char_traits<char>, std::__ndk1::allocator<char> >::__assign_no_alias<true>(char const*, unsigned long)
PUBLIC 20500 0 std::__ndk1::basic_string<char, std::__ndk1::char_traits<char>, std::__ndk1::allocator<char> >::__assign_no_alias<false>(char const*, unsigned long)
PUBLIC 20610 0 geode::Popup<>::~Popup()
PUBLIC 2067c 0 geode::Popup<>::~Popup()
PUBLIC 20680 0 geode::Popup<>::onClose(cocos2d::CCObject*)
PUBLIC 207c8 0 {virtual override thunk({offset(-320)}, geode::Popup<>::~Popup())}
PUBLIC 20834 0 {virtual override thunk({offset(-320)}, geode::Popup<>::~Popup())}
PUBLIC 20838 0 geode::Popup<>::CloseEvent::~CloseEvent()
PUBLIC 20898 0 geode::Popup<>::CloseEvent::~CloseEvent()
PUBLIC 20908 0 std::__ndk1::__shared_ptr_emplace<geode::Popup<>::CloseEvent::Impl, std::__ndk1::allocator<geode::Popup<>::CloseEvent::Impl> >::~__shared_ptr_emplace()
PUBLIC 20918 0 std::__ndk1::__shared_ptr_emplace<geode::Popup<>::CloseEvent::Impl, std::__ndk1::allocator<geode::Popup<>::CloseEvent::Impl> >::~__shared_ptr_emplace()
PUBLIC 20948 0 std::__ndk1::__shared_ptr_emplace<geode::Popup<>::CloseEvent::Impl, std::__ndk1::allocator<geode::Popup<>::CloseEvent::Impl> >::__on_zero_shared()
PUBLIC 2094c 0 std::__ndk1::__shared_ptr_emplace<geode::Popup<>::CloseEvent::Impl, std::__ndk1::allocator<geode::Popup<>::CloseEvent::Impl> >::__on_zero_shared_weak()
PUBLIC 20950 0 geode::cast::traverseTypeinfoFor(void*, geode::cast::ClassTypeinfoType const*, char const*)
PUBLIC 20a54 0 geode::Ref<cocos2d::CCNode>::~Ref()
PUBLIC 20a70 0 __cxx_global_var_init
PUBLIC 20bd0 0 std::__ndk1::__function::__base<void (cocos2d::CCNode*)>::~__base()
PUBLIC 20bd4 0 std::__ndk1::__function::__func<AlphaUtils::ModifyLoad<MyModPopup>::ModifyLoad(std::__ndk1::basic_string<char, std::__ndk1::char_traits<char>, std::__ndk1::allocator<char> >)::{lambda(cocos2d::CCNode*)#1}, std::__ndk1::allocator<AlphaUtils::ModifyLoad<MyModPopup>::ModifyLoad(std::__ndk1::basic_string<char, std::__ndk1::char_traits<char>, std::__ndk1::allocator<char> >)::{lambda(cocos2d::CCNode*)#1}>, void (cocos2d::CCNode*)>::~__func()
PUBLIC 20bd8 0 std::__ndk1::__function::__func<AlphaUtils::ModifyLoad<MyModPopup>::ModifyLoad(std::__ndk1::basic_string<char, std::__ndk1::char_traits<char>, std::__ndk1::allocator<char> >)::{lambda(cocos2d::CCNode*)#1}, std::__ndk1::allocator<AlphaUtils::ModifyLoad<MyModPopup>::ModifyLoad(std::__ndk1::basic_string<char, std::__ndk1::char_traits<char>, std::__ndk1::allocator<char> >)::{lambda(cocos2d::CCNode*)#1}>, void (cocos2d::CCNode*)>::__clone() const
PUBLIC 20bfc 0 std::__ndk1::__function::__func<AlphaUtils::ModifyLoad<MyModPopup>::ModifyLoad(std::__ndk1::basic_string<char, std::__ndk1::char_traits<char>, std::__ndk1::allocator<char> >)::{lambda(cocos2d::CCNode*)#1}, std::__ndk1::allocator<AlphaUtils::ModifyLoad<MyModPopup>::ModifyLoad(std::__ndk1::basic_string<char, std::__ndk1::char_traits<char>, std::__ndk1::allocator<char> >)::{lambda(cocos2d::CCNode*)#1}>, void (cocos2d::CCNode*)>::__clone(std::__ndk1::__function::__base<void (cocos2d::CCNode*)>*) const
PUBLIC 20c0c 0 std::__ndk1::__function::__func<AlphaUtils::ModifyLoad<MyModPopup>::ModifyLoad(std::__ndk1::basic_string<char, std::__ndk1::char_traits<char>, std::__ndk1::allocator<char> >)::{lambda(cocos2d::CCNode*)#1}, std::__ndk1::allocator<AlphaUtils::ModifyLoad<MyModPopup>::ModifyLoad(std::__ndk1::basic_string<char, std::__ndk1::char_traits<char>, std::__ndk1::allocator<char> >)::{lambda(cocos2d::CCNode*)#1}>, void (cocos2d::CCNode*)>::destroy()
PUBLIC 20c10 0 std::__ndk1::__function::__func<AlphaUtils::ModifyLoad<MyModPopup>::ModifyLoad(std::__ndk1::basic_string<char, std::__ndk1::char_traits<char>, std::__ndk1::allocator<char> >)::{lambda(cocos2d::CCNode*)#1}, std::__ndk1::allocator<AlphaUtils::ModifyLoad<MyModPopup>::ModifyLoad(std::__ndk1::basic_string<char, std::__ndk1::char_traits<char>, std::__ndk1::allocator<char> >)::{lambda(cocos2d::CCNode*)#1}>, void (cocos2d::CCNode*)>::destroy_deallocate()
PUBLIC 20c14 0 std::__ndk1::__function::__func<AlphaUtils::ModifyLoad<MyModPopup>::ModifyLoad(std::__ndk1::basic_string<char, std::__ndk1::char_traits<char>, std::__ndk1::allocator<char> >)::{lambda(cocos2d::CCNode*)#1}, std::__ndk1::allocator<AlphaUtils::ModifyLoad<MyModPopup>::ModifyLoad(std::__ndk1::basic_string<char, std::__ndk1::char_traits<char>, std::__ndk1::allocator<char> >)::{lambda(cocos2d::CCNode*)#1}>, void (cocos2d::CCNode*)>::operator()(cocos2d::CCNode*&&)
PUBLIC 21b14 0 std::__ndk1::__function::__func<AlphaUtils::ModifyLoad<MyModPopup>::ModifyLoad(std::__ndk1::basic_string<char, std::__ndk1::char_traits<char>, std::__ndk1::allocator<char> >)::{lambda(cocos2d::CCNode*)#1}, std::__ndk1::allocator<AlphaUtils::ModifyLoad<MyModPopup>::ModifyLoad(std::__ndk1::basic_string<char, std::__ndk1::char_traits<char>, std::__ndk1::allocator<char> >)::{lambda(cocos2d::CCNode*)#1}>, void (cocos2d::CCNode*)>::target(std::type_info const&) const
PUBLIC 21b30 0 std::__ndk1::__function::__func<AlphaUtils::ModifyLoad<MyModPopup>::ModifyLoad(std::__ndk1::basic_string<char, std::__ndk1::char_traits<char>, std::__ndk1::allocator<char> >)::{lambda(cocos2d::CCNode*)#1}, std::__ndk1::allocator<AlphaUtils::ModifyLoad<MyModPopup>::ModifyLoad(std::__ndk1::basic_string<char, std::__ndk1::char_traits<char>, std::__ndk1::allocator<char> >)::{lambda(cocos2d::CCNode*)#1}>, void (cocos2d::CCNode*)>::target_type() const
PUBLIC 21b3c 0 geode::modifier::FieldIntermediate<MyModPopup, cocos2d::CCNode>::self()
PUBLIC 221bc 0 MyModPopup::showPopup(cocos2d::CCObject*)
PUBLIC 222bc 0 std::__ndk1::vector<std::__ndk1::basic_string<char, std::__ndk1::char_traits<char>, std::__ndk1::allocator<char> >, std::__ndk1::allocator<std::__ndk1::basic_string<char, std::__ndk1::char_traits<char>, std::__ndk1::allocator<char> > > >::~vector[abi:ne180000]()
PUBLIC 22338 0 AlphaUtils::Cocos::getChildByClassName(cocos2d::CCNode*, std::__ndk1::basic_string<char, std::__ndk1::char_traits<char>, std::__ndk1::allocator<char> >, int)
PUBLIC 22574 0 std::__ndk1::basic_string<char, std::__ndk1::char_traits<char>, std::__ndk1::allocator<char> >::__assign_external(char const*, unsigned long)
PUBLIC 2269c 0 std::__ndk1::basic_string<char, std::__ndk1::char_traits<char>, std::__ndk1::allocator<char> >::__assign_external(char const*)
PUBLIC 226d0 0 geode::modifier::FieldIntermediate<MyModPopup, cocos2d::CCNode>::fieldDestructor(void*)
PUBLIC 22720 0 std::__ndk1::vector<void*, std::__ndk1::allocator<void*> >::__throw_length_error[abi:ne180000]() const
PUBLIC 22734 0 std::__ndk1::vector<std::__ndk1::function<void (void*)>, std::__ndk1::allocator<std::__ndk1::function<void (void*)> > >::__throw_length_error[abi:ne180000]() const
PUBLIC 22748 0 std::__ndk1::vector<void*, std::__ndk1::allocator<void*> >::__throw_out_of_range[abi:ne180000]() const
PUBLIC 22754 0 std::__ndk1::__throw_out_of_range[abi:ne180000](char const*)
PUBLIC 227a4 0 std::out_of_range::out_of_range[abi:ne180000](char const*)
PUBLIC 227d4 0 std::__ndk1::vector<std::__ndk1::function<void (void*)>, std::__ndk1::allocator<std::__ndk1::function<void (void*)> > >::__throw_out_of_range[abi:ne180000]() const
PUBLIC 227e0 0 std::__ndk1::__tree<std::__ndk1::__value_type<int, geode::Ref<CCMenuItemSpriteExtra> >, std::__ndk1::__map_value_compare<int, std::__ndk1::__value_type<int, geode::Ref<CCMenuItemSpriteExtra> >, std::__ndk1::less<int>, true>, std::__ndk1::allocator<std::__ndk1::__value_type<int, geode::Ref<CCMenuItemSpriteExtra> > > >::destroy(std::__ndk1::__tree_node<std::__ndk1::__value_type<int, geode::Ref<CCMenuItemSpriteExtra> >, void*>*)
PUBLIC 22830 0 std::__ndk1::__tree<std::__ndk1::__value_type<int, geode::Ref<cocos2d::CCSprite> >, std::__ndk1::__map_value_compare<int, std::__ndk1::__value_type<int, geode::Ref<cocos2d::CCSprite> >, std::__ndk1::less<int>, true>, std::__ndk1::allocator<std::__ndk1::__value_type<int, geode::Ref<cocos2d::CCSprite> > > >::destroy(std::__ndk1::__tree_node<std::__ndk1::__value_type<int, geode::Ref<cocos2d::CCSprite> >, void*>*)
PUBLIC 22880 0 std::__ndk1::__tree<std::__ndk1::__value_type<std::__ndk1::basic_string<char, std::__ndk1::char_traits<char>, std::__ndk1::allocator<char> >, geode::EventListener<geode::Task<geode::utils::web::WebResponse, geode::utils::web::WebProgress> > >, std::__ndk1::__map_value_compare<std::__ndk1::basic_string<char, std::__ndk1::char_traits<char>, std::__ndk1::allocator<char> >, std::__ndk1::__value_type<std::__ndk1::basic_string<char, std::__ndk1::char_traits<char>, std::__ndk1::allocator<char> >, geode::EventListener<geode::Task<geode::utils::web::WebResponse, geode::utils::web::WebProgress> > >, std::__ndk1::less<std::__ndk1::basic_string<char, std::__ndk1::char_traits<char>, std::__ndk1::allocator<char> > >, true>, std::__ndk1::allocator<std::__ndk1::__value_type<std::__ndk1::basic_string<char, std::__ndk1::char_traits<char>, std::__ndk1::allocator<char> >, geode::EventListener<geode::Task<geode::utils::web::WebResponse, geode::utils::web::WebProgress> > > > >::destroy(std::__ndk1::__tree_node<std::__ndk1::__value_type<std::__ndk1::basic_string<char, std::__ndk1::char_traits<char>, std::__ndk1::allocator<char> >, geode::EventListener<geode::Task<geode::utils::web::WebResponse, geode::utils::web::WebProgress> > >, void*>*)
PUBLIC 22958 0 geode::EventListener<geode::Task<geode::utils::web::WebResponse, geode::utils::web::WebProgress> >::~EventListener()
PUBLIC 229f4 0 geode::Task<geode::utils::web::WebResponse, geode::utils::web::WebProgress>::~Task()
PUBLIC 22a44 0 geode::EventListener<geode::Task<geode::utils::web::WebResponse, geode::utils::web::WebProgress> >::getPool() const
PUBLIC 22a48 0 geode::EventListener<geode::Task<geode::utils::web::WebResponse, geode::utils::web::WebProgress> >::handle(geode::Event*)
PUBLIC 22c14 0 geode::EventListener<geode::Task<geode::utils::web::WebResponse, geode::utils::web::WebProgress> >::~EventListener()
PUBLIC 22cb8 0 std::__ndk1::__throw_bad_function_call[abi:ne180000]()
PUBLIC 22cec 0 std::__ndk1::bad_function_call::~bad_function_call()
PUBLIC 22d10 0 std::__ndk1::__function::__base<void (void*)>::~__base()
PUBLIC 22d14 0 std::__ndk1::__function::__func<void (*)(void*), std::__ndk1::allocator<void (*)(void*)>, void (void*)>::~__func()
PUBLIC 22d18 0 std::__ndk1::__function::__func<void (*)(void*), std::__ndk1::allocator<void (*)(void*)>, void (void*)>::__clone() const
PUBLIC 22d50 0 std::__ndk1::__function::__func<void (*)(void*), std::__ndk1::allocator<void (*)(void*)>, void (void*)>::__clone(std::__ndk1::__function::__base<void (void*)>*) const
PUBLIC 22d68 0 std::__ndk1::__function::__func<void (*)(void*), std::__ndk1::allocator<void (*)(void*)>, void (void*)>::destroy()
PUBLIC 22d6c 0 std::__ndk1::__function::__func<void (*)(void*), std::__ndk1::allocator<void (*)(void*)>, void (void*)>::destroy_deallocate()
PUBLIC 22d70 0 std::__ndk1::__function::__func<void (*)(void*), std::__ndk1::allocator<void (*)(void*)>, void (void*)>::operator()(void*&&)
PUBLIC 22d80 0 std::__ndk1::__function::__func<void (*)(void*), std::__ndk1::allocator<void (*)(void*)>, void (void*)>::target(std::type_info const&) const
PUBLIC 22d9c 0 std::__ndk1::__function::__func<void (*)(void*), std::__ndk1::allocator<void (*)(void*)>, void (void*)>::target_type() const
PUBLIC 22da8 0 std::__ndk1::__tree<std::__ndk1::__value_type<std::__ndk1::basic_string<char, std::__ndk1::char_traits<char>, std::__ndk1::allocator<char> >, geode::EventListener<geode::Task<geode::utils::web::WebResponse, geode::utils::web::WebProgress> > >, std::__ndk1::__map_value_compare<std::__ndk1::basic_string<char, std::__ndk1::char_traits<char>, std::__ndk1::allocator<char> >, std::__ndk1::__value_type<std::__ndk1::basic_string<char, std::__ndk1::char_traits<char>, std::__ndk1::allocator<char> >, geode::EventListener<geode::Task<geode::utils::web::WebResponse, geode::utils::web::WebProgress> > >, std::__ndk1::less<std::__ndk1::basic_string<char, std::__ndk1::char_traits<char>, std::__ndk1::allocator<char> > >, true>, std::__ndk1::allocator<std::__ndk1::__value_type<std::__ndk1::basic_string<char, std::__ndk1::char_traits<char>, std::__ndk1::allocator<char> >, geode::EventListener<geode::Task<geode::utils::web::WebResponse, geode::utils::web::WebProgress> > > > >::__emplace_unique_key_args<std::__ndk1::basic_string<char, std::__ndk1::char_traits<char>, std::__ndk1::allocator<char> >, std::__ndk1::piecewise_construct_t const&, std::__ndk1::tuple<std::__ndk1::basic_string<char, std::__ndk1::char_traits<char>, std::__ndk1::allocator<char> > const&>, std::__ndk1::tuple<> >(std::__ndk1::basic_string<char, std::__ndk1::char_traits<char>, std::__ndk1::allocator<char> > const&, std::__ndk1::piecewise_construct_t const&, std::__ndk1::tuple<std::__ndk1::basic_string<char, std::__ndk1::char_traits<char>, std::__ndk1::allocator<char> > const&>, std::__ndk1::tuple<>)
PUBLIC 2304c 0 geode::Task<geode::utils::web::WebResponse, geode::utils::web::WebProgress>::setListener(geode::EventListenerProtocol*)
PUBLIC 23250 0 geode::Task<geode::utils::web::WebResponse, geode::utils::web::WebProgress>::setListener(geode::EventListenerProtocol*)::{lambda()#1}::~{lambda()#1}()
PUBLIC 232a0 0 geode::Task<geode::utils::web::WebResponse, geode::utils::web::WebProgress>::setListener(geode::EventListenerProtocol*)::{lambda()#2}::~{lambda()#2}()
PUBLIC 232f0 0 std::__ndk1::__function::__func<geode::Task<geode::utils::web::WebResponse, geode::utils::web::WebProgress>::setListener(geode::EventListenerProtocol*)::{lambda()#1}, std::__ndk1::allocator<geode::Task<geode::utils::web::WebResponse, geode::utils::web::WebProgress>::setListener(geode::EventListenerProtocol*)::{lambda()#1}>, void ()>::~__func()
PUBLIC 2334c 0 std::__ndk1::__function::__func<geode::Task<geode::utils::web::WebResponse, geode::utils::web::WebProgress>::setListener(geode::EventListenerProtocol*)::{lambda()#1}, std::__ndk1::allocator<geode::Task<geode::utils::web::WebResponse, geode::utils::web::WebProgress>::setListener(geode::EventListenerProtocol*)::{lambda()#1}>, void ()>::~__func()
PUBLIC 233b8 0 std::__ndk1::__function::__func<geode::Task<geode::utils::web::WebResponse, geode::utils::web::WebProgress>::setListener(geode::EventListenerProtocol*)::{lambda()#1}, std::__ndk1::allocator<geode::Task<geode::utils::web::WebResponse, geode::utils::web::WebProgress>::setListener(geode::EventListenerProtocol*)::{lambda()#1}>, void ()>::__clone() const
PUBLIC 23410 0 std::__ndk1::__function::__func<geode::Task<geode::utils::web::WebResponse, geode::utils::web::WebProgress>::setListener(geode::EventListenerProtocol*)::{lambda()#1}, std::__ndk1::allocator<geode::Task<geode::utils::web::WebResponse, geode::utils::web::WebProgress>::setListener(geode::EventListenerProtocol*)::{lambda()#1}>, void ()>::__clone(std::__ndk1::__function::__base<void ()>*) const
PUBLIC 2345c 0 std::__ndk1::__function::__func<geode::Task<geode::utils::web::WebResponse, geode::utils::web::WebProgress>::setListener(geode::EventListenerProtocol*)::{lambda()#1}, std::__ndk1::allocator<geode::Task<geode::utils::web::WebResponse, geode::utils::web::WebProgress>::setListener(geode::EventListenerProtocol*)::{lambda()#1}>, void ()>::destroy()
PUBLIC 234ac 0 std::__ndk1::__function::__func<geode::Task<geode::utils::web::WebResponse, geode::utils::web::WebProgress>::setListener(geode::EventListenerProtocol*)::{lambda()#1}, std::__ndk1::allocator<geode::Task<geode::utils::web::WebResponse, geode::utils::web::WebProgress>::setListener(geode::EventListenerProtocol*)::{lambda()#1}>, void ()>::destroy_deallocate()
PUBLIC 2350c 0 std::__ndk1::__function::__func<geode::Task<geode::utils::web::WebResponse, geode::utils::web::WebProgress>::setListener(geode::EventListenerProtocol*)::{lambda()#1}, std::__ndk1::allocator<geode::Task<geode::utils::web::WebResponse, geode::utils::web::WebProgress>::setListener(geode::EventListenerProtocol*)::{lambda()#1}>, void ()>::operator()()
PUBLIC 236dc 0 std::__ndk1::__function::__func<geode::Task<geode::utils::web::WebResponse, geode::utils::web::WebProgress>::setListener(geode::EventListenerProtocol*)::{lambda()#1}, std::__ndk1::allocator<geode::Task<geode::utils::web::WebResponse, geode::utils::web::WebProgress>::setListener(geode::EventListenerProtocol*)::{lambda()#1}>, void ()>::target(std::type_info const&) const
PUBLIC 236f8 0 std::__ndk1::__function::__func<geode::Task<geode::utils::web::WebResponse, geode::utils::web::WebProgress>::setListener(geode::EventListenerProtocol*)::{lambda()#1}, std::__ndk1::allocator<geode::Task<geode::utils::web::WebResponse, geode::utils::web::WebProgress>::setListener(geode::EventListenerProtocol*)::{lambda()#1}>, void ()>::target_type() const
PUBLIC 23704 0 geode::Task<geode::utils::web::WebResponse, geode::utils::web::WebProgress>::Event::~Event()
PUBLIC 23764 0 geode::Task<geode::utils::web::WebResponse, geode::utils::web::WebProgress>::Event::~Event()
PUBLIC 237d4 0 std::__ndk1::__function::__func<geode::Task<geode::utils::web::WebResponse, geode::utils::web::WebProgress>::setListener(geode::EventListenerProtocol*)::{lambda()#2}, std::__ndk1::allocator<geode::Task<geode::utils::web::WebResponse, geode::utils::web::WebProgress>::setListener(geode::EventListenerProtocol*)::{lambda()#2}>, void ()>::~__func()
PUBLIC 23830 0 std::__ndk1::__function::__func<geode::Task<geode::utils::web::WebResponse, geode::utils::web::WebProgress>::setListener(geode::EventListenerProtocol*)::{lambda()#2}, std::__ndk1::allocator<geode::Task<geode::utils::web::WebResponse, geode::utils::web::WebProgress>::setListener(geode::EventListenerProtocol*)::{lambda()#2}>, void ()>::~__func()
PUBLIC 2389c 0 std::__ndk1::__function::__func<geode::Task<geode::utils::web::WebResponse, geode::utils::web::WebProgress>::setListener(geode::EventListenerProtocol*)::{lambda()#2}, std::__ndk1::allocator<geode::Task<geode::utils::web::WebResponse, geode::utils::web::WebProgress>::setListener(geode::EventListenerProtocol*)::{lambda()#2}>, void ()>::__clone() const
PUBLIC 238f4 0 std::__ndk1::__function::__func<geode::Task<geode::utils::web::WebResponse, geode::utils::web::WebProgress>::setListener(geode::EventListenerProtocol*)::{lambda()#2}, std::__ndk1::allocator<geode::Task<geode::utils::web::WebResponse, geode::utils::web::WebProgress>::setListener(geode::EventListenerProtocol*)::{lambda()#2}>, void ()>::__clone(std::__ndk1::__function::__base<void ()>*) const
PUBLIC 23940 0 std::__ndk1::__function::__func<geode::Task<geode::utils::web::WebResponse, geode::utils::web::WebProgress>::setListener(geode::EventListenerProtocol*)::{lambda()#2}, std::__ndk1::allocator<geode::Task<geode::utils::web::WebResponse, geode::utils::web::WebProgress>::setListener(geode::EventListenerProtocol*)::{lambda()#2}>, void ()>::destroy()
PUBLIC 23990 0 std::__ndk1::__function::__func<geode::Task<geode::utils::web::WebResponse, geode::utils::web::WebProgress>::setListener(geode::EventListenerProtocol*)::{lambda()#2}, std::__ndk1::allocator<geode::Task<geode::utils::web::WebResponse, geode::utils::web::WebProgress>::setListener(geode::EventListenerProtocol*)::{lambda()#2}>, void ()>::destroy_deallocate()
PUBLIC 239f0 0 std::__ndk1::__function::__func<geode::Task<geode::utils::web::WebResponse, geode::utils::web::WebProgress>::setListener(geode::EventListenerProtocol*)::{lambda()#2}, std::__ndk1::allocator<geode::Task<geode::utils::web::WebResponse, geode::utils::web::WebProgress>::setListener(geode::EventListenerProtocol*)::{lambda()#2}>, void ()>::operator()()
PUBLIC 23bb4 0 std::__ndk1::__function::__func<geode::Task<geode::utils::web::WebResponse, geode::utils::web::WebProgress>::setListener(geode::EventListenerProtocol*)::{lambda()#2}, std::__ndk1::allocator<geode::Task<geode::utils::web::WebResponse, geode::utils::web::WebProgress>::setListener(geode::EventListenerProtocol*)::{lambda()#2}>, void ()>::target(std::type_info const&) const
PUBLIC 23bd0 0 std::__ndk1::__function::__func<geode::Task<geode::utils::web::WebResponse, geode::utils::web::WebProgress>::setListener(geode::EventListenerProtocol*)::{lambda()#2}, std::__ndk1::allocator<geode::Task<geode::utils::web::WebResponse, geode::utils::web::WebProgress>::setListener(geode::EventListenerProtocol*)::{lambda()#2}>, void ()>::target_type() const
PUBLIC 23bdc 0 std::__ndk1::__tree_balance_after_insert[abi:ne180000]<std::__ndk1::__tree_node_base<void*>*>(std::__ndk1::__tree_node_base<void*>*, std::__ndk1::__tree_node_base<void*>*)
PUBLIC 23d8c 0 std::__ndk1::unique_ptr<std::__ndk1::__tree_node<std::__ndk1::__value_type<std::__ndk1::basic_string<char, std::__ndk1::char_traits<char>, std::__ndk1::allocator<char> >, geode::EventListener<geode::Task<geode::utils::web::WebResponse, geode::utils::web::WebProgress> > >, void*>, std::__ndk1::__tree_node_destructor<std::__ndk1::allocator<std::__ndk1::__tree_node<std::__ndk1::__value_type<std::__ndk1::basic_string<char, std::__ndk1::char_traits<char>, std::__ndk1::allocator<char> >, geode::EventListener<geode::Task<geode::utils::web::WebResponse, geode::utils::web::WebProgress> > >, void*> > > >::reset[abi:ne180000](std::__ndk1::__tree_node<std::__ndk1::__value_type<std::__ndk1::basic_string<char, std::__ndk1::char_traits<char>, std::__ndk1::allocator<char> >, geode::EventListener<geode::Task<geode::utils::web::WebResponse, geode::utils::web::WebProgress> > >, void*>*)
PUBLIC 23e6c 0 std::__ndk1::__function::__value_func<void (geode::Task<geode::utils::web::WebResponse, geode::utils::web::WebProgress>::Event*)>::swap[abi:ne180000](std::__ndk1::__function::__value_func<void (geode::Task<geode::utils::web::WebResponse, geode::utils::web::WebProgress>::Event*)>&)
PUBLIC 24004 0 std::__ndk1::__function::__func<MyModPopup::checkIfMain(std::__ndk1::basic_string<char, std::__ndk1::char_traits<char>, std::__ndk1::allocator<char> >, std::__ndk1::function<void (bool)>)::{lambda(geode::Task<geode::utils::web::WebResponse, geode::utils::web::WebProgress>::Event*)#1}, std::__ndk1::allocator<MyModPopup::checkIfMain(std::__ndk1::basic_string<char, std::__ndk1::char_traits<char>, std::__ndk1::allocator<char> >, std::__ndk1::function<void (bool)>)::{lambda(geode::Task<geode::utils::web::WebResponse, geode::utils::web::WebProgress>::Event*)#1}>, void (geode::Task<geode::utils::web::WebResponse, geode::utils::web::WebProgress>::Event*)>::~__func()
PUBLIC 24050 0 std::__ndk1::__function::__func<MyModPopup::checkIfMain(std::__ndk1::basic_string<char, std::__ndk1::char_traits<char>, std::__ndk1::allocator<char> >, std::__ndk1::function<void (bool)>)::{lambda(geode::Task<geode::utils::web::WebResponse, geode::utils::web::WebProgress>::Event*)#1}, std::__ndk1::allocator<MyModPopup::checkIfMain(std::__ndk1::basic_string<char, std::__ndk1::char_traits<char>, std::__ndk1::allocator<char> >, std::__ndk1::function<void (bool)>)::{lambda(geode::Task<geode::utils::web::WebResponse, geode::utils::web::WebProgress>::Event*)#1}>, void (geode::Task<geode::utils::web::WebResponse, geode::utils::web::WebProgress>::Event*)>::~__func()
PUBLIC 240ac 0 std::__ndk1::__function::__func<MyModPopup::checkIfMain(std::__ndk1::basic_string<char, std::__ndk1::char_traits<char>, std::__ndk1::allocator<char> >, std::__ndk1::function<void (bool)>)::{lambda(geode::Task<geode::utils::web::WebResponse, geode::utils::web::WebProgress>::Event*)#1}, std::__ndk1::allocator<MyModPopup::checkIfMain(std::__ndk1::basic_string<char, std::__ndk1::char_traits<char>, std::__ndk1::allocator<char> >, std::__ndk1::function<void (bool)>)::{lambda(geode::Task<geode::utils::web::WebResponse, geode::utils::web::WebProgress>::Event*)#1}>, void (geode::Task<geode::utils::web::WebResponse, geode::utils::web::WebProgress>::Event*)>::__clone() const
PUBLIC 24148 0 std::__ndk1::__function::__func<MyModPopup::checkIfMain(std::__ndk1::basic_string<char, std::__ndk1::char_traits<char>, std::__ndk1::allocator<char> >, std::__ndk1::function<void (bool)>)::{lambda(geode::Task<geode::utils::web::WebResponse, geode::utils::web::WebProgress>::Event*)#1}, std::__ndk1::allocator<MyModPopup::checkIfMain(std::__ndk1::basic_string<char, std::__ndk1::char_traits<char>, std::__ndk1::allocator<char> >, std::__ndk1::function<void (bool)>)::{lambda(geode::Task<geode::utils::web::WebResponse, geode::utils::web::WebProgress>::Event*)#1}>, void (geode::Task<geode::utils::web::WebResponse, geode::utils::web::WebProgress>::Event*)>::__clone(std::__ndk1::__function::__base<void (geode::Task<geode::utils::web::WebResponse, geode::utils::web::WebProgress>::Event*)>*) const
PUBLIC 241d0 0 std::__ndk1::__function::__func<MyModPopup::checkIfMain(std::__ndk1::basic_string<char, std::__ndk1::char_traits<char>, std::__ndk1::allocator<char> >, std::__ndk1::function<void (bool)>)::{lambda(geode::Task<geode::utils::web::WebResponse, geode::utils::web::WebProgress>::Event*)#1}, std::__ndk1::allocator<MyModPopup::checkIfMain(std::__ndk1::basic_string<char, std::__ndk1::char_traits<char>, std::__ndk1::allocator<char> >, std::__ndk1::function<void (bool)>)::{lambda(geode::Task<geode::utils::web::WebResponse, geode::utils::web::WebProgress>::Event*)#1}>, void (geode::Task<geode::utils::web::WebResponse, geode::utils::web::WebProgress>::Event*)>::destroy()
PUBLIC 24210 0 std::__ndk1::__function::__func<MyModPopup::checkIfMain(std::__ndk1::basic_string<char, std::__ndk1::char_traits<char>, std::__ndk1::allocator<char> >, std::__ndk1::function<void (bool)>)::{lambda(geode::Task<geode::utils::web::WebResponse, geode::utils::web::WebProgress>::Event*)#1}, std::__ndk1::allocator<MyModPopup::checkIfMain(std::__ndk1::basic_string<char, std::__ndk1::char_traits<char>, std::__ndk1::allocator<char> >, std::__ndk1::function<void (bool)>)::{lambda(geode::Task<geode::utils::web::WebResponse, geode::utils::web::WebProgress>::Event*)#1}>, void (geode::Task<geode::utils::web::WebResponse, geode::utils::web::WebProgress>::Event*)>::destroy_deallocate()
PUBLIC 24260 0 std::__ndk1::__function::__func<MyModPopup::checkIfMain(std::__ndk1::basic_string<char, std::__ndk1::char_traits<char>, std::__ndk1::allocator<char> >, std::__ndk1::function<void (bool)>)::{lambda(geode::Task<geode::utils::web::WebResponse, geode::utils::web::WebProgress>::Event*)#1}, std::__ndk1::allocator<MyModPopup::checkIfMain(std::__ndk1::basic_string<char, std::__ndk1::char_traits<char>, std::__ndk1::allocator<char> >, std::__ndk1::function<void (bool)>)::{lambda(geode::Task<geode::utils::web::WebResponse, geode::utils::web::WebProgress>::Event*)#1}>, void (geode::Task<geode::utils::web::WebResponse, geode::utils::web::WebProgress>::Event*)>::operator()(geode::Task<geode::utils::web::WebResponse, geode::utils::web::WebProgress>::Event*&&)
PUBLIC 242f4 0 std::__ndk1::__function::__func<MyModPopup::checkIfMain(std::__ndk1::basic_string<char, std::__ndk1::char_traits<char>, std::__ndk1::allocator<char> >, std::__ndk1::function<void (bool)>)::{lambda(geode::Task<geode::utils::web::WebResponse, geode::utils::web::WebProgress>::Event*)#1}, std::__ndk1::allocator<MyModPopup::checkIfMain(std::__ndk1::basic_string<char, std::__ndk1::char_traits<char>, std::__ndk1::allocator<char> >, std::__ndk1::function<void (bool)>)::{lambda(geode::Task<geode::utils::web::WebResponse, geode::utils::web::WebProgress>::Event*)#1}>, void (geode::Task<geode::utils::web::WebResponse, geode::utils::web::WebProgress>::Event*)>::target(std::type_info const&) const
PUBLIC 24310 0 std::__ndk1::__function::__func<MyModPopup::checkIfMain(std::__ndk1::basic_string<char, std::__ndk1::char_traits<char>, std::__ndk1::allocator<char> >, std::__ndk1::function<void (bool)>)::{lambda(geode::Task<geode::utils::web::WebResponse, geode::utils::web::WebProgress>::Event*)#1}, std::__ndk1::allocator<MyModPopup::checkIfMain(std::__ndk1::basic_string<char, std::__ndk1::char_traits<char>, std::__ndk1::allocator<char> >, std::__ndk1::function<void (bool)>)::{lambda(geode::Task<geode::utils::web::WebResponse, geode::utils::web::WebProgress>::Event*)#1}>, void (geode::Task<geode::utils::web::WebResponse, geode::utils::web::WebProgress>::Event*)>::target_type() const
PUBLIC 2431c 0 std::__ndk1::__function::__func<MyModPopup::modify()::{lambda(bool)#1}, std::__ndk1::allocator<MyModPopup::modify()::{lambda(bool)#1}>, void (bool)>::~__func()
PUBLIC 2433c 0 std::__ndk1::__function::__func<MyModPopup::modify()::{lambda(bool)#1}, std::__ndk1::allocator<MyModPopup::modify()::{lambda(bool)#1}>, void (bool)>::~__func()
PUBLIC 2437c 0 std::__ndk1::__function::__func<MyModPopup::modify()::{lambda(bool)#1}, std::__ndk1::allocator<MyModPopup::modify()::{lambda(bool)#1}>, void (bool)>::__clone() const
PUBLIC 24408 0 std::__ndk1::__function::__func<MyModPopup::modify()::{lambda(bool)#1}, std::__ndk1::allocator<MyModPopup::modify()::{lambda(bool)#1}>, void (bool)>::__clone(std::__ndk1::__function::__base<void (bool)>*) const
PUBLIC 2444c 0 std::__ndk1::__function::__func<MyModPopup::modify()::{lambda(bool)#1}, std::__ndk1::allocator<MyModPopup::modify()::{lambda(bool)#1}>, void (bool)>::destroy()
PUBLIC 24460 0 std::__ndk1::__function::__func<MyModPopup::modify()::{lambda(bool)#1}, std::__ndk1::allocator<MyModPopup::modify()::{lambda(bool)#1}>, void (bool)>::destroy_deallocate()
PUBLIC 24494 0 std::__ndk1::__function::__func<MyModPopup::modify()::{lambda(bool)#1}, std::__ndk1::allocator<MyModPopup::modify()::{lambda(bool)#1}>, void (bool)>::operator()(bool&&)
PUBLIC 24cec 0 std::__ndk1::__function::__func<MyModPopup::modify()::{lambda(bool)#1}, std::__ndk1::allocator<MyModPopup::modify()::{lambda(bool)#1}>, void (bool)>::target(std::type_info const&) const
PUBLIC 24d08 0 std::__ndk1::__function::__func<MyModPopup::modify()::{lambda(bool)#1}, std::__ndk1::allocator<MyModPopup::modify()::{lambda(bool)#1}>, void (bool)>::target_type() const
PUBLIC 24d14 0 MyModPopup::onImageDownloadFinish(int, cocos2d::CCSprite*)
PUBLIC 25258 0 MyModPopup::listenForDescription(float)
PUBLIC 2554c 0 std::__ndk1::__function::__func<MyModPopup::modify()::{lambda(bool)#1}::operator()(bool) const::{lambda(geode::Task<geode::utils::web::WebResponse, geode::utils::web::WebProgress>::Event*)#1}, std::__ndk1::allocator<MyModPopup::modify()::{lambda(bool)#1}::operator()(bool) const::{lambda(geode::Task<geode::utils::web::WebResponse, geode::utils::web::WebProgress>::Event*)#1}>, void (geode::Task<geode::utils::web::WebResponse, geode::utils::web::WebProgress>::Event*)>::~__func()
PUBLIC 2556c 0 std::__ndk1::__function::__func<MyModPopup::modify()::{lambda(bool)#1}::operator()(bool) const::{lambda(geode::Task<geode::utils::web::WebResponse, geode::utils::web::WebProgress>::Event*)#1}, std::__ndk1::allocator<MyModPopup::modify()::{lambda(bool)#1}::operator()(bool) const::{lambda(geode::Task<geode::utils::web::WebResponse, geode::utils::web::WebProgress>::Event*)#1}>, void (geode::Task<geode::utils::web::WebResponse, geode::utils::web::WebProgress>::Event*)>::~__func()
PUBLIC 255ac 0 std::__ndk1::__function::__func<MyModPopup::modify()::{lambda(bool)#1}::operator()(bool) const::{lambda(geode::Task<geode::utils::web::WebResponse, geode::utils::web::WebProgress>::Event*)#1}, std::__ndk1::allocator<MyModPopup::modify()::{lambda(bool)#1}::operator()(bool) const::{lambda(geode::Task<geode::utils::web::WebResponse, geode::utils::web::WebProgress>::Event*)#1}>, void (geode::Task<geode::utils::web::WebResponse, geode::utils::web::WebProgress>::Event*)>::__clone() const
PUBLIC 2563c 0 std::__ndk1::__function::__func<MyModPopup::modify()::{lambda(bool)#1}::operator()(bool) const::{lambda(geode::Task<geode::utils::web::WebResponse, geode::utils::web::WebProgress>::Event*)#1}, std::__ndk1::allocator<MyModPopup::modify()::{lambda(bool)#1}::operator()(bool) const::{lambda(geode::Task<geode::utils::web::WebResponse, geode::utils::web::WebProgress>::Event*)#1}>, void (geode::Task<geode::utils::web::WebResponse, geode::utils::web::WebProgress>::Event*)>::__clone(std::__ndk1::__function::__base<void (geode::Task<geode::utils::web::WebResponse, geode::utils::web::WebProgress>::Event*)>*) const
PUBLIC 25688 0 std::__ndk1::__function::__func<MyModPopup::modify()::{lambda(bool)#1}::operator()(bool) const::{lambda(geode::Task<geode::utils::web::WebResponse, geode::utils::web::WebProgress>::Event*)#1}, std::__ndk1::allocator<MyModPopup::modify()::{lambda(bool)#1}::operator()(bool) const::{lambda(geode::Task<geode::utils::web::WebResponse, geode::utils::web::WebProgress>::Event*)#1}>, void (geode::Task<geode::utils::web::WebResponse, geode::utils::web::WebProgress>::Event*)>::destroy()
PUBLIC 2569c 0 std::__ndk1::__function::__func<MyModPopup::modify()::{lambda(bool)#1}::operator()(bool) const::{lambda(geode::Task<geode::utils::web::WebResponse, geode::utils::web::WebProgress>::Event*)#1}, std::__ndk1::allocator<MyModPopup::modify()::{lambda(bool)#1}::operator()(bool) const::{lambda(geode::Task<geode::utils::web::WebResponse, geode::utils::web::WebProgress>::Event*)#1}>, void (geode::Task<geode::utils::web::WebResponse, geode::utils::web::WebProgress>::Event*)>::destroy_deallocate()
PUBLIC 256d0 0 std::__ndk1::__function::__func<MyModPopup::modify()::{lambda(bool)#1}::operator()(bool) const::{lambda(geode::Task<geode::utils::web::WebResponse, geode::utils::web::WebProgress>::Event*)#1}, std::__ndk1::allocator<MyModPopup::modify()::{lambda(bool)#1}::operator()(bool) const::{lambda(geode::Task<geode::utils::web::WebResponse, geode::utils::web::WebProgress>::Event*)#1}>, void (geode::Task<geode::utils::web::WebResponse, geode::utils::web::WebProgress>::Event*)>::operator()(geode::Task<geode::utils::web::WebResponse, geode::utils::web::WebProgress>::Event*&&)
PUBLIC 2597c 0 std::__ndk1::__function::__func<MyModPopup::modify()::{lambda(bool)#1}::operator()(bool) const::{lambda(geode::Task<geode::utils::web::WebResponse, geode::utils::web::WebProgress>::Event*)#1}, std::__ndk1::allocator<MyModPopup::modify()::{lambda(bool)#1}::operator()(bool) const::{lambda(geode::Task<geode::utils::web::WebResponse, geode::utils::web::WebProgress>::Event*)#1}>, void (geode::Task<geode::utils::web::WebResponse, geode::utils::web::WebProgress>::Event*)>::target(std::type_info const&) const
PUBLIC 25998 0 std::__ndk1::__function::__func<MyModPopup::modify()::{lambda(bool)#1}::operator()(bool) const::{lambda(geode::Task<geode::utils::web::WebResponse, geode::utils::web::WebProgress>::Event*)#1}, std::__ndk1::allocator<MyModPopup::modify()::{lambda(bool)#1}::operator()(bool) const::{lambda(geode::Task<geode::utils::web::WebResponse, geode::utils::web::WebProgress>::Event*)#1}>, void (geode::Task<geode::utils::web::WebResponse, geode::utils::web::WebProgress>::Event*)>::target_type() const
PUBLIC 259a4 0 MyModPopup::modify()::{lambda(bool)#1}::operator()(bool) const::{lambda(geode::Task<geode::utils::web::WebResponse, geode::utils::web::WebProgress>::Event*)#1}::operator()(geode::Task<geode::utils::web::WebResponse, geode::utils::web::WebProgress>::Event*) const::{lambda()#1}::~{lambda()#1}()
PUBLIC 259e8 0 std::__ndk1::vector<unsigned char, std::__ndk1::allocator<unsigned char> >::__throw_length_error[abi:ne180000]() const
PUBLIC 259fc 0 std::__ndk1::__thread_proxy[abi:ne180000]<std::__ndk1::tuple<std::__ndk1::unique_ptr<std::__ndk1::__thread_struct, std::__ndk1::default_delete<std::__ndk1::unique_ptr> >, MyModPopup::modify()::{lambda(bool)#1}::operator()(bool) const::{lambda(geode::Task<{lambda(bool)#1}::utils::web::WebResponse, {lambda(bool)#1}::utils::WebProgress>::Event*)#1}::operator()(geode::Task<{lambda(bool)#1}::utils::web::WebResponse, {lambda(bool)#1}::utils::WebProgress>::Event) const::{lambda()#1}> >(std::__ndk1::tuple<std::__ndk1::unique_ptr<std::__ndk1::__thread_struct, std::__ndk1::default_delete<std::__ndk1::unique_ptr> >, MyModPopup::modify()::{lambda(bool)#1}::operator()(bool) const::{lambda(geode::Task<{lambda(bool)#1}::utils::web::WebResponse, {lambda(bool)#1}::utils::WebProgress>::Event*)#1}::operator()(geode::Task<{lambda(bool)#1}::utils::web::WebResponse, {lambda(bool)#1}::utils::WebProgress>::Event) const::{lambda()#1}>)
PUBLIC 25c7c 0 std::__ndk1::unique_ptr<std::__ndk1::tuple<std::__ndk1::unique_ptr<std::__ndk1::__thread_struct, std::__ndk1::default_delete<std::__ndk1::__thread_struct> >, MyModPopup::modify()::{lambda(bool)#1}::operator()(bool) const::{lambda(geode::Task<geode::utils::web::WebResponse, geode::utils::web::WebProgress>::Event*)#1}::operator()(geode::Task<geode::utils::web::WebResponse, geode::utils::web::WebProgress>::Event*) const::{lambda()#1}>, std::__ndk1::default_delete<std::__ndk1::tuple<std::__ndk1::unique_ptr<std::__ndk1::__thread_struct, std::__ndk1::default_delete<std::__ndk1::__thread_struct> >, MyModPopup::modify()::{lambda(bool)#1}::operator()(bool) const::{lambda(geode::Task<geode::utils::web::WebResponse, geode::utils::web::WebProgress>::Event*)#1}::operator()(geode::Task<geode::utils::web::WebResponse, geode::utils::web::WebProgress>::Event*) const::{lambda()#1}> > >::~unique_ptr[abi:ne180000]()
PUBLIC 25cec 0 std::__ndk1::unique_ptr<std::__ndk1::__thread_struct, std::__ndk1::default_delete<std::__ndk1::__thread_struct> >::~unique_ptr[abi:ne180000]()
PUBLIC 25d28 0 std::__ndk1::__function::__func<MyModPopup::modify()::{lambda(bool)#1}::operator()(bool) const::{lambda(geode::Task<geode::utils::web::WebResponse, geode::utils::web::WebProgress>::Event*)#1}::operator()(geode::Task<geode::utils::web::WebResponse, geode::utils::web::WebProgress>::Event*) const::{lambda()#1}::operator()() const::{lambda()#1}, std::__ndk1::allocator<MyModPopup::modify()::{lambda(bool)#1}::operator()(bool) const::{lambda(geode::Task<geode::utils::web::WebResponse, geode::utils::web::WebProgress>::Event*)#1}::operator()(geode::Task<geode::utils::web::WebResponse, geode::utils::web::WebProgress>::Event*) const::{lambda()#1}::operator()() const::{lambda()#1}>, void ()>::~__func()
PUBLIC 25d48 0 std::__ndk1::__function::__func<MyModPopup::modify()::{lambda(bool)#1}::operator()(bool) const::{lambda(geode::Task<geode::utils::web::WebResponse, geode::utils::web::WebProgress>::Event*)#1}::operator()(geode::Task<geode::utils::web::WebResponse, geode::utils::web::WebProgress>::Event*) const::{lambda()#1}::operator()() const::{lambda()#1}, std::__ndk1::allocator<MyModPopup::modify()::{lambda(bool)#1}::operator()(bool) const::{lambda(geode::Task<geode::utils::web::WebResponse, geode::utils::web::WebProgress>::Event*)#1}::operator()(geode::Task<geode::utils::web::WebResponse, geode::utils::web::WebProgress>::Event*) const::{lambda()#1}::operator()() const::{lambda()#1}>, void ()>::~__func()
PUBLIC 25d88 0 std::__ndk1::__function::__func<MyModPopup::modify()::{lambda(bool)#1}::operator()(bool) const::{lambda(geode::Task<geode::utils::web::WebResponse, geode::utils::web::WebProgress>::Event*)#1}::operator()(geode::Task<geode::utils::web::WebResponse, geode::utils::web::WebProgress>::Event*) const::{lambda()#1}::operator()() const::{lambda()#1}, std::__ndk1::allocator<MyModPopup::modify()::{lambda(bool)#1}::operator()(bool) const::{lambda(geode::Task<geode::utils::web::WebResponse, geode::utils::web::WebProgress>::Event*)#1}::operator()(geode::Task<geode::utils::web::WebResponse, geode::utils::web::WebProgress>::Event*) const::{lambda()#1}::operator()() const::{lambda()#1}>, void ()>::__clone() const
PUBLIC 25e1c 0 std::__ndk1::__function::__func<MyModPopup::modify()::{lambda(bool)#1}::operator()(bool) const::{lambda(geode::Task<geode::utils::web::WebResponse, geode::utils::web::WebProgress>::Event*)#1}::operator()(geode::Task<geode::utils::web::WebResponse, geode::utils::web::WebProgress>::Event*) const::{lambda()#1}::operator()() const::{lambda()#1}, std::__ndk1::allocator<MyModPopup::modify()::{lambda(bool)#1}::operator()(bool) const::{lambda(geode::Task<geode::utils::web::WebResponse, geode::utils::web::WebProgress>::Event*)#1}::operator()(geode::Task<geode::utils::web::WebResponse, geode::utils::web::WebProgress>::Event*) const::{lambda()#1}::operator()() const::{lambda()#1}>, void ()>::__clone(std::__ndk1::__function::__base<void ()>*) const
PUBLIC 25e68 0 std::__ndk1::__function::__func<MyModPopup::modify()::{lambda(bool)#1}::operator()(bool) const::{lambda(geode::Task<geode::utils::web::WebResponse, geode::utils::web::WebProgress>::Event*)#1}::operator()(geode::Task<geode::utils::web::WebResponse, geode::utils::web::WebProgress>::Event*) const::{lambda()#1}::operator()() const::{lambda()#1}, std::__ndk1::allocator<MyModPopup::modify()::{lambda(bool)#1}::operator()(bool) const::{lambda(geode::Task<geode::utils::web::WebResponse, geode::utils::web::WebProgress>::Event*)#1}::operator()(geode::Task<geode::utils::web::WebResponse, geode::utils::web::WebProgress>::Event*) const::{lambda()#1}::operator()() const::{lambda()#1}>, void ()>::destroy()
PUBLIC 25e7c 0 std::__ndk1::__function::__func<MyModPopup::modify()::{lambda(bool)#1}::operator()(bool) const::{lambda(geode::Task<geode::utils::web::WebResponse, geode::utils::web::WebProgress>::Event*)#1}::operator()(geode::Task<geode::utils::web::WebResponse, geode::utils::web::WebProgress>::Event*) const::{lambda()#1}::operator()() const::{lambda()#1}, std::__ndk1::allocator<MyModPopup::modify()::{lambda(bool)#1}::operator()(bool) const::{lambda(geode::Task<geode::utils::web::WebResponse, geode::utils::web::WebProgress>::Event*)#1}::operator()(geode::Task<geode::utils::web::WebResponse, geode::utils::web::WebProgress>::Event*) const::{lambda()#1}::operator()() const::{lambda()#1}>, void ()>::destroy_deallocate()
PUBLIC 25eb0 0 std::__ndk1::__function::__func<MyModPopup::modify()::{lambda(bool)#1}::operator()(bool) const::{lambda(geode::Task<geode::utils::web::WebResponse, geode::utils::web::WebProgress>::Event*)#1}::operator()(geode::Task<geode::utils::web::WebResponse, geode::utils::web::WebProgress>::Event*) const::{lambda()#1}::operator()() const::{lambda()#1}, std::__ndk1::allocator<MyModPopup::modify()::{lambda(bool)#1}::operator()(bool) const::{lambda(geode::Task<geode::utils::web::WebResponse, geode::utils::web::WebProgress>::Event*)#1}::operator()(geode::Task<geode::utils::web::WebResponse, geode::utils::web::WebProgress>::Event*) const::{lambda()#1}::operator()() const::{lambda()#1}>, void ()>::operator()()
PUBLIC 260dc 0 std::__ndk1::__function::__func<MyModPopup::modify()::{lambda(bool)#1}::operator()(bool) const::{lambda(geode::Task<geode::utils::web::WebResponse, geode::utils::web::WebProgress>::Event*)#1}::operator()(geode::Task<geode::utils::web::WebResponse, geode::utils::web::WebProgress>::Event*) const::{lambda()#1}::operator()() const::{lambda()#1}, std::__ndk1::allocator<MyModPopup::modify()::{lambda(bool)#1}::operator()(bool) const::{lambda(geode::Task<geode::utils::web::WebResponse, geode::utils::web::WebProgress>::Event*)#1}::operator()(geode::Task<geode::utils::web::WebResponse, geode::utils::web::WebProgress>::Event*) const::{lambda()#1}::operator()() const::{lambda()#1}>, void ()>::target(std::type_info const&) const
PUBLIC 260f8 0 std::__ndk1::__function::__func<MyModPopup::modify()::{lambda(bool)#1}::operator()(bool) const::{lambda(geode::Task<geode::utils::web::WebResponse, geode::utils::web::WebProgress>::Event*)#1}::operator()(geode::Task<geode::utils::web::WebResponse, geode::utils::web::WebProgress>::Event*) const::{lambda()#1}::operator()() const::{lambda()#1}, std::__ndk1::allocator<MyModPopup::modify()::{lambda(bool)#1}::operator()(bool) const::{lambda(geode::Task<geode::utils::web::WebResponse, geode::utils::web::WebProgress>::Event*)#1}::operator()(geode::Task<geode::utils::web::WebResponse, geode::utils::web::WebProgress>::Event*) const::{lambda()#1}::operator()() const::{lambda()#1}>, void ()>::target_type() const
PUBLIC m 26104 0 geodeImplicitEntry
PUBLIC 26140 0 std::__ndk1::unordered_map<void*, bool, std::__ndk1::hash<void*>, std::__ndk1::equal_to<void*>, std::__ndk1::allocator<std::__ndk1::pair<void* const, bool> > >::~unordered_map[abi:ne180000]()
PUBLIC 2618c 0 wrapFunction(unsigned long, tulip::hook::WrapperMetadata const&)
PUBLIC 262c0 0 geode::impl::ResultData<void*, std::__ndk1::basic_string<char, std::__ndk1::char_traits<char>, std::__ndk1::allocator<char> > >::unwrapErr() &
PUBLIC 26338 0 geode::impl::ResultData<void*, std::__ndk1::basic_string<char, std::__ndk1::char_traits<char>, std::__ndk1::allocator<char> > >::~ResultData()
PUBLIC 263ac 0 std::__ndk1::shared_ptr<tulip::hook::CallingConvention>::~shared_ptr[abi:ne180000]()
PUBLIC 263fc 0 tulip::hook::WrapperMetadata::~WrapperMetadata()
PUBLIC 26460 0 cocos2d::CCObject::~CCObject()
PUBLIC 26484 0 cocos2d::CCNode::~CCNode()
PUBLIC 264a8 0 {virtual override thunk({offset(-320)}, cocos2d::CCLayer::~CCLayer())}
PUBLIC 264b0 0 cocos2d::CCLayer::~CCLayer()
PUBLIC 264d4 0 {virtual override thunk({offset(-320)}, cocos2d::CCLayer::~CCLayer())}
PUBLIC 264fc 0 cocos2d::CCLayerRGBA::~CCLayerRGBA()
PUBLIC 267fc 0 {virtual override thunk({offset(-320)}, cocos2d::CCLayerRGBA::~CCLayerRGBA())}
PUBLIC 26804 0 cocos2d::CCLayerRGBA::~CCLayerRGBA()
PUBLIC 26828 0 {virtual override thunk({offset(-320)}, cocos2d::CCLayerRGBA::~CCLayerRGBA())}
PUBLIC 26850 0 cocos2d::CCLayerColor::CCLayerColor()
PUBLIC 26ab4 0 {virtual override thunk({offset(-320)}, cocos2d::CCLayerColor::~CCLayerColor())}
PUBLIC 26abc 0 cocos2d::CCLayerColor::~CCLayerColor()
PUBLIC 26ae0 0 {virtual override thunk({offset(-320)}, cocos2d::CCLayerColor::~CCLayerColor())}
PUBLIC 26b08 0 cocos2d::CCTexture2D::~CCTexture2D()
PUBLIC 26d78 0 cocos2d::CCTexture2D::~CCTexture2D()
PUBLIC 26d9c 0 cocos2d::CCTexture2D::CCTexture2D()
PUBLIC 26fc8 0 cocos2d::CCImage::CCImage()
PUBLIC 271ec 0 cocos2d::CCImage::~CCImage()
PUBLIC 27454 0 cocos2d::CCImage::~CCImage()
PUBLIC 27478 0 {virtual override thunk({offset(-320)}, FLAlertLayer::~FLAlertLayer())}
PUBLIC 27480 0 FLAlertLayer::~FLAlertLayer()
PUBLIC 274a4 0 {virtual override thunk({offset(-320)}, FLAlertLayer::~FLAlertLayer())}
PUBLIC 274cc 0 cocos2d::CCObject::update(float)
PUBLIC 274d0 0 cocos2d::CCLayerColor::~CCLayerColor()
PUBLIC 277b4 0 cocos2d::CCLayer::~CCLayer()
PUBLIC 27aa4 0 cocos2d::CCNode::~CCNode()
PUBLIC 27d44 0 FLAlertLayer::~FLAlertLayer()
PUBLIC 28028 0 cocos2d::CCObject::~CCObject()
PUBLIC 2851c 0 _ZN5geode15UnwrapExceptionC2IRPvQsr4implE18IsStringStreamableIT_EEENS_4impl5OkTagEOS4_
PUBLIC 28670 0 std::__ndk1::__throw_bad_variant_access[abi:ne180000]()
PUBLIC 286a4 0 std::__ndk1::basic_stringstream<char, std::__ndk1::char_traits<char>, std::__ndk1::allocator<char> >::basic_stringstream[abi:ne180000]()
PUBLIC m 287d0 0 std::__ndk1::basic_stringstream<char, std::__ndk1::char_traits<char>, std::__ndk1::allocator<char> >::~basic_stringstream()
PUBLIC 28850 0 geode::UnwrapException::~UnwrapException()
PUBLIC 28874 0 std::__ndk1::__put_character_sequence[abi:ne180000]<char, std::__ndk1::char_traits<char> >(std::__ndk1::basic_ostream<char, std::__ndk1::char_traits<char> >, std::__ndk1::basic_ostream const*, unsigned long)
PUBLIC 28b4c 0 std::__ndk1::basic_stringbuf<char, std::__ndk1::char_traits<char>, std::__ndk1::allocator<char> >::str[abi:ne180000]() &&
PUBLIC 28de4 0 _ZN5geode15UnwrapExceptionC2IRNSt6__ndk112basic_stringIcNS2_11char_traitsIcEENS2_9allocatorIcEEEEQsr4implE18IsStringStreamableIT_EEENS_4impl6ErrTagEOSA_
PUBLIC 28f4c 0 std::__ndk1::__variant_detail::__visitation::__base::__dispatcher<(unsigned long)0>::__dispatch[abi:ne180000]<std::__ndk1::__variant_detail::__dtor<std::__ndk1::__variant_detail::__traits<void*, std::__ndk1::basic_string<char, std::__ndk1::char_traits<char>, std::__ndk1::allocator<char> > >, (std::__ndk1::__variant_detail::_Trait)1>::__destroy[abi:ne180000]()::{lambda(auto:1&)#1}, std::__ndk1::__variant_detail::__base<(std::__ndk1::__variant_detail::__traits<void*, std::__ndk1::basic_string<char, std::__ndk1::char_traits<char>, std::__ndk1::allocator<char> > >)1, std::__ndk1::__variant_detail::__traits, std::__ndk1::allocator<char> >&>(std::__ndk1::__variant_detail::__dtor<std::__ndk1::__variant_detail::__traits<void*, std::__ndk1::basic_string<char, std::__ndk1::char_traits<char>, std::__ndk1::allocator<char> > >, (std::__ndk1::__variant_detail::_Trait)1>, std::__ndk1::__variant_detail::__base<(std::__ndk1::__variant_detail::__traits<void*, std::__ndk1::basic_string<char, std::__ndk1::char_traits<char>, std::__ndk1::allocator<char> > >)1, std::__ndk1::__variant_detail::__traits, std::__ndk1::allocator<char> >&)
PUBLIC 28f50 0 std::__ndk1::__variant_detail::__visitation::__base::__dispatcher<(unsigned long)1>::__dispatch[abi:ne180000]<std::__ndk1::__variant_detail::__dtor<std::__ndk1::__variant_detail::__traits<void*, std::__ndk1::basic_string<char, std::__ndk1::char_traits<char>, std::__ndk1::allocator<char> > >, (std::__ndk1::__variant_detail::_Trait)1>::__destroy[abi:ne180000]()::{lambda(auto:1&)#1}, std::__ndk1::__variant_detail::__base<(std::__ndk1::__variant_detail::__traits<void*, std::__ndk1::basic_string<char, std::__ndk1::char_traits<char>, std::__ndk1::allocator<char> > >)1, std::__ndk1::__variant_detail::__traits, std::__ndk1::allocator<char> >&>(std::__ndk1::__variant_detail::__dtor<std::__ndk1::__variant_detail::__traits<void*, std::__ndk1::basic_string<char, std::__ndk1::char_traits<char>, std::__ndk1::allocator<char> > >, (std::__ndk1::__variant_detail::_Trait)1>, std::__ndk1::__variant_detail::__base<(std::__ndk1::__variant_detail::__traits<void*, std::__ndk1::basic_string<char, std::__ndk1::char_traits<char>, std::__ndk1::allocator<char> > >)1, std::__ndk1::__variant_detail::__traits, std::__ndk1::allocator<char> >&)
PUBLIC 28f64 0 std::__ndk1::__hash_table<std::__ndk1::__hash_value_type<void*, bool>, std::__ndk1::__unordered_map_hasher<void*, std::__ndk1::__hash_value_type<void*, bool>, std::__ndk1::hash<void*>, std::__ndk1::equal_to<void*>, true>, std::__ndk1::__unordered_map_equal<void*, std::__ndk1::__hash_value_type<void*, bool>, std::__ndk1::equal_to<void*>, std::__ndk1::hash<void*>, true>, std::__ndk1::allocator<std::__ndk1::__hash_value_type<void*, bool> > >::__emplace_unique_key_args<void*, std::__ndk1::piecewise_construct_t const&, std::__ndk1::tuple<void* const&>, std::__ndk1::tuple<> >(void* const&, std::__ndk1::piecewise_construct_t const&, std::__ndk1::tuple<void* const&>, std::__ndk1::tuple<>)
PUBLIC 29470 0 __udivti3
PUBLIC 2947c 0 __udivmodti4
PUBLIC m 296c8 0 __eqtf2
PUBLIC 29768 0 __unordtf2
PUBLIC 297a0 0 fmt::v11::detail::write_loc(fmt::v11::basic_appender<char>, fmt::v11::loc_value, fmt::v11::format_specs const&, fmt::v11::detail::locale_ref)
PUBLIC 29a34 0 fmt::v11::format_facet<std::__ndk1::locale>::~format_facet()
PUBLIC 29ab0 0 fmt::v11::report_error(char const*)
PUBLIC 29b00 0 fmt::v11::format_error::runtime_error(char const*)
PUBLIC 29b2c 0 fmt::v11::format_facet<std::__ndk1::locale>::do_put(fmt::v11::basic_appender<char>, fmt::v11::loc_value, fmt::v11::format_specs const&) const
PUBLIC 2a2ec 0 fmt::v11::detail::loc_writer<char>::~loc_writer()
PUBLIC 2a350 0 fmt::v11::detail::vformat_to<char>(fmt::v11::detail::buffer<char>&, fmt::v11::basic_string_view<char>, fmt::v11::detail::vformat_args<char>::type, fmt::v11::detail::locale_ref)
PUBLIC 2a8c0 0 fmt::v11::detail::is_printable(unsigned int)
PUBLIC 2aae8 0 fmt::v11::detail::dragonbox::to_decimal<float>(float)
PUBLIC 2adc4 0 fmt::v11::detail::dragonbox::to_decimal<double>(double)
PUBLIC 2b300 0 fmt::v11::basic_memory_buffer<char, (unsigned long)500, std::__ndk1::allocator<char> >::grow(fmt::v11::detail::buffer<char>&, unsigned long)
PUBLIC 2b378 0 fmt::v11::format_facet<std::__ndk1::locale>::~format_facet()
PUBLIC 2b404 0 fmt::v11::format_error::~format_error()
PUBLIC 2b428 0 fmt::v11::detail::copy_noinline<char, char const*, fmt::v11::basic_appender<char> >(char const*, char const*, fmt::v11::basic_appender<char>)
PUBLIC 2b578 0 fmt::v11::detail::default_arg_formatter<char>::operator()<bool>(bool)
PUBLIC 2b5e0 0 fmt::v11::detail::default_arg_formatter<char>::operator()<char>(char)
PUBLIC 2b670 0 fmt::v11::detail::default_arg_formatter<char>::operator()<float>(float)
PUBLIC 2b75c 0 fmt::v11::detail::default_arg_formatter<char>::operator()<double>(double)
PUBLIC 2b848 0 fmt::v11::detail::default_arg_formatter<char>::operator()<char const*>(char const*)
PUBLIC 2b890 0 fmt::v11::detail::default_arg_formatter<char>::operator()<void const*>(void const*)
PUBLIC 2b928 0 _ZN3fmt3v116detail5writeIcNS0_14basic_appenderIcEEiTnNSt6__ndk19enable_ifIXaaaasr11is_integralIT1_EE5valuentsr3std7is_sameIS7_bEE5valuentsr3std7is_sameIS7_T_EE5valueEiE4typeELi0EEET0_SB_S7_
PUBLIC 2bb88 0 fmt::v11::detail::copy_noinline<char, char*, fmt::v11::basic_appender<char> >(char*, char*, fmt::v11::basic_appender<char>)
PUBLIC 2bcd8 0 _ZN3fmt3v116detail5writeIcNS0_14basic_appenderIcEEjTnNSt6__ndk19enable_ifIXaaaasr11is_integralIT1_EE5valuentsr3std7is_sameIS7_bEE5valuentsr3std7is_sameIS7_T_EE5valueEiE4typeELi0EEET0_SB_S7_
PUBLIC 2beb8 0 _ZN3fmt3v116detail5writeIcNS0_14basic_appenderIcEExTnNSt6__ndk19enable_ifIXaaaasr11is_integralIT1_EE5valuentsr3std7is_sameIS7_bEE5valuentsr3std7is_sameIS7_T_EE5valueEiE4typeELi0EEET0_SB_S7_
PUBLIC 2c13c 0 _ZN3fmt3v116detail5writeIcNS0_14basic_appenderIcEEyTnNSt6__ndk19enable_ifIXaaaasr11is_integralIT1_EE5valuentsr3std7is_sameIS7_bEE5valuentsr3std7is_sameIS7_T_EE5valueEiE4typeELi0EEET0_SB_S7_
PUBLIC 2c344 0 _ZN3fmt3v116detail5writeIcNS0_14basic_appenderIcEEnTnNSt6__ndk19enable_ifIXaaaasr11is_integralIT1_EE5valuentsr3std7is_sameIS7_bEE5valuentsr3std7is_sameIS7_T_EE5valueEiE4typeELi0EEET0_SB_S7_
PUBLIC 2c6a4 0 _ZN3fmt3v116detail5writeIcNS0_14basic_appenderIcEEoTnNSt6__ndk19enable_ifIXaaaasr11is_integralIT1_EE5valuentsr3std7is_sameIS7_bEE5valuentsr3std7is_sameIS7_T_EE5valueEiE4typeELi0EEET0_SB_S7_
PUBLIC 2c9b8 0 _ZN3fmt3v116detail5writeIcNS0_14basic_appenderIcEEbTnNSt6__ndk19enable_ifIXsr3std7is_sameIT1_bEE5valueEiE4typeELi0EEET0_SA_S7_RKNS0_12format_specsENS1_10locale_refE
PUBLIC 2cc48 0 fmt::v11::detail::write_int_noinline<char, fmt::v11::basic_appender<char>, unsigned int>(fmt::v11::basic_appender<char>, fmt::v11::detail::write_int_arg<unsigned int>, fmt::v11::format_specs const&, fmt::v11::detail::locale_ref)
PUBLIC 2da24 0 fmt::v11::detail::fill<char, fmt::v11::basic_appender<char> >(fmt::v11::basic_appender<char>, unsigned long, fmt::v11::detail::fill_t const&)
PUBLIC 2dbf4 0 fmt::v11::detail::write_padded<char, (fmt::v11::align::type)1, fmt::v11::basic_appender<char>, fmt::v11::detail::write_char<char, fmt::v11::basic_appender<char> >(fmt::v11::basic_appender<char>, char, fmt::v11::format_specs const&)::{lambda(fmt::v11::basic_appender<char>&)#1}>(fmt::v11::basic_appender<char>, fmt::v11::format_specs const&, unsigned long, unsigned long, fmt::v11::detail::write_char<char, fmt::v11::basic_appender<char> >(fmt::v11::basic_appender<char>, char, fmt::v11::format_specs const&)::{lambda(fmt::v11::basic_appender<char>&)#1})
PUBLIC 2de30 0 fmt::v11::detail::write_escaped_cp<fmt::v11::basic_appender<char>, char>(fmt::v11::basic_appender<char>, fmt::v11::detail::find_escape_result<char> const&)
PUBLIC 2e13c 0 fmt::v11::detail::write_codepoint<(unsigned long)2, char, fmt::v11::basic_appender<char> >(fmt::v11::basic_appender<char>, char, unsigned int)
PUBLIC 2e2b4 0 fmt::v11::detail::write_codepoint<(unsigned long)8, char, fmt::v11::basic_appender<char> >(fmt::v11::basic_appender<char>, char, unsigned int)
PUBLIC 2e42c 0 fmt::v11::detail::write_padded<char, (fmt::v11::align::type)1, fmt::v11::basic_appender<char>, fmt::v11::detail::write_nonfinite<char, fmt::v11::basic_appender<char> >(fmt::v11::basic_appender<char>, bool, fmt::v11::format_specs, fmt::v11::sign::type)::{lambda(fmt::v11::basic_appender<char>&)#1}>(fmt::v11::basic_appender<char>, fmt::v11::format_specs const&, unsigned long, unsigned long, fmt::v11::detail::write_nonfinite<char, fmt::v11::basic_appender<char> >(fmt::v11::basic_appender<char>, bool, fmt::v11::format_specs, fmt::v11::sign::type)::{lambda(fmt::v11::basic_appender<char>&)#1})
PUBLIC 2e66c 0 fmt::v11::detail::do_write_float<char, fmt::v11::basic_appender<char>, fmt::v11::detail::dragonbox::decimal_fp<float>, fmt::v11::detail::digit_grouping<char> >(fmt::v11::basic_appender<char>, fmt::v11::detail::dragonbox::decimal_fp<float> const&, fmt::v11::format_specs const&, fmt::v11::detail::float_specs, fmt::v11::detail::locale_ref)
PUBLIC 2f2e0 0 fmt::v11::detail::do_write_float<char, fmt::v11::basic_appender<char>, fmt::v11::detail::dragonbox::decimal_fp<float>, fmt::v11::detail::digit_grouping<char> >(fmt::v11::basic_appender<char>, fmt::v11::detail::dragonbox::decimal_fp<float> const&, fmt::v11::format_specs const&, fmt::v11::detail::float_specs, fmt::v11::detail::locale_ref)::{lambda(fmt::v11::basic_appender<char>(fmt::v11::basic_appender<char>))#1}::operator() const
PUBLIC 2f434 0 fmt::v11::detail::digit_grouping<char>::digit_grouping(fmt::v11::detail::locale_ref, bool)
PUBLIC 2f6a0 0 fmt::v11::detail::digit_grouping<char>::~digit_grouping()
PUBLIC 2f6e4 0 fmt::v11::detail::write_exponent<char, fmt::v11::basic_appender<char> >(int, fmt::v11::basic_appender<char>)
PUBLIC 2f8b4 0 _ZN3fmt3v116detail17write_significandIcjTnNSt6__ndk19enable_ifIXsr3std11is_integralIT0_EE5valueEiE4typeELi0EEEPT_S9_S5_iiS8_
PUBLIC 2fa30 0 fmt::v11::detail::digit_grouping<char>::apply<fmt::v11::basic_appender<char>, char>(fmt::v11::basic_appender<char>, fmt::v11::basic_string_view<char>) const
PUBLIC 2fde8 0 fmt::v11::basic_memory_buffer<int, (unsigned long)500, std::__ndk1::allocator<int> >::grow(fmt::v11::detail::buffer<int>&, unsigned long)
PUBLIC 2fe88 0 fmt::v11::detail::do_write_float<char, fmt::v11::basic_appender<char>, fmt::v11::detail::dragonbox::decimal_fp<double>, fmt::v11::detail::digit_grouping<char> >(fmt::v11::basic_appender<char>, fmt::v11::detail::dragonbox::decimal_fp<double> const&, fmt::v11::format_specs const&, fmt::v11::detail::float_specs, fmt::v11::detail::locale_ref)
PUBLIC 30b3c 0 fmt::v11::detail::do_write_float<char, fmt::v11::basic_appender<char>, fmt::v11::detail::dragonbox::decimal_fp<double>, fmt::v11::detail::digit_grouping<char> >(fmt::v11::basic_appender<char>, fmt::v11::detail::dragonbox::decimal_fp<double> const&, fmt::v11::format_specs const&, fmt::v11::detail::float_specs, fmt::v11::detail::locale_ref)::{lambda(fmt::v11::basic_appender<char>(fmt::v11::basic_appender<char>))#1}::operator() const
PUBLIC 30c94 0 _ZN3fmt3v116detail17write_significandIcmTnNSt6__ndk19enable_ifIXsr3std11is_integralIT0_EE5valueEiE4typeELi0EEEPT_S9_S5_iiS8_
PUBLIC 30e24 0 fmt::v11::detail::write_float<char, fmt::v11::basic_appender<char>, long double>(fmt::v11::basic_appender<char>, long double, fmt::v11::format_specs, fmt::v11::detail::locale_ref)
PUBLIC 31920 0 fmt::v11::detail::write_padded<char, (fmt::v11::align::type)2, fmt::v11::basic_appender<char>, fmt::v11::detail::write_bytes<char, (fmt::v11::align::type)2, fmt::v11::basic_appender<char> >(fmt::v11::basic_appender<char>, fmt::v11::basic_string_view<char>, fmt::v11::format_specs const&)::{lambda(fmt::v11::basic_appender<char>&)#1}>(fmt::v11::basic_appender<char>, fmt::v11::format_specs const&, unsigned long, unsigned long, fmt::v11::detail::write_bytes<char, (fmt::v11::align::type)2, fmt::v11::basic_appender<char> >(fmt::v11::basic_appender<char>, fmt::v11::basic_string_view<char>, fmt::v11::format_specs const&)::{lambda(fmt::v11::basic_appender<char>&)#1})
PUBLIC 31afc 0 fmt::v11::detail::format_dragon(fmt::v11::detail::basic_fp<unsigned __int128>, unsigned int, int, fmt::v11::detail::buffer<char>&, int&)
PUBLIC 32f2c 0 fmt::v11::detail::bigint::operator<<=(int)
PUBLIC 33050 0 fmt::v11::detail::bigint::assign_pow10(int)
PUBLIC 337ac 0 fmt::v11::detail::bigint::divmod_assign(fmt::v11::detail::bigint const&)
PUBLIC 33acc 0 fmt::v11::basic_memory_buffer<unsigned int, (unsigned long)32, std::__ndk1::allocator<unsigned int> >::grow(fmt::v11::detail::buffer<unsigned int>&, unsigned long)
PUBLIC 33b6c 0 fmt::v11::detail::do_write_float<char, fmt::v11::basic_appender<char>, fmt::v11::detail::big_decimal_fp, fmt::v11::detail::digit_grouping<char> >(fmt::v11::basic_appender<char>, fmt::v11::detail::big_decimal_fp const&, fmt::v11::format_specs const&, fmt::v11::detail::float_specs, fmt::v11::detail::locale_ref)
PUBLIC 34a1c 0 fmt::v11::detail::do_write_float<char, fmt::v11::basic_appender<char>, fmt::v11::detail::big_decimal_fp, fmt::v11::detail::digit_grouping<char> >(fmt::v11::basic_appender<char>, fmt::v11::detail::big_decimal_fp const&, fmt::v11::format_specs const&, fmt::v11::detail::float_specs, fmt::v11::detail::locale_ref)::{lambda(fmt::v11::basic_appender<char>(fmt::v11::basic_appender<char>))#1}::operator() const
PUBLIC 34b7c 0 fmt::v11::detail::write_padded<char, (fmt::v11::align::type)2, fmt::v11::basic_appender<char>, fmt::v11::detail::write_ptr<char, fmt::v11::basic_appender<char>, unsigned long>(fmt::v11::basic_appender<char>, unsigned long, fmt::v11::format_specs const*)::{lambda(fmt::v11::basic_appender<char>&)#1}>(fmt::v11::basic_appender<char>, fmt::v11::format_specs const&, unsigned long, unsigned long, fmt::v11::detail::write_ptr<char, fmt::v11::basic_appender<char>, unsigned long>(fmt::v11::basic_appender<char>, unsigned long, fmt::v11::format_specs const*)::{lambda(fmt::v11::basic_appender<char>&)#1})
PUBLIC 34d90 0 fmt::v11::detail::parse_replacement_field<char, fmt::v11::detail::vformat_to<char>(fmt::v11::detail::buffer<char>&, fmt::v11::basic_string_view<char>, fmt::v11::detail::vformat_args<char>::type, fmt::v11::detail::locale_ref)::format_handler&>(char const*, char const*, fmt::v11::detail::vformat_to<char>(fmt::v11::detail::buffer<char>&, fmt::v11::basic_string_view<char>, fmt::v11::detail::vformat_args<char>::type, fmt::v11::detail::locale_ref)::format_handler&)
PUBLIC 36a2c 0 fmt::v11::detail::parse_dynamic_spec<char>(char const*, char const*, int&, fmt::v11::detail::arg_ref<char>&, fmt::v11::basic_format_parse_context<char>&)
PUBLIC 36cbc 0 fmt::v11::basic_format_args<fmt::v11::context>::get<char>(fmt::v11::basic_string_view<char>) const
PUBLIC 36e14 0 fmt::v11::detail::write_int_noinline<char, fmt::v11::basic_appender<char>, unsigned long>(fmt::v11::basic_appender<char>, fmt::v11::detail::write_int_arg<unsigned long>, fmt::v11::format_specs const&, fmt::v11::detail::locale_ref)
PUBLIC 37c68 0 fmt::v11::detail::write_int_noinline<char, fmt::v11::basic_appender<char>, unsigned __int128>(fmt::v11::basic_appender<char>, fmt::v11::detail::write_int_arg<unsigned __int128>, fmt::v11::format_specs const&, fmt::v11::detail::locale_ref)
PUBLIC 38cd0 0 _ZN3fmt3v116detail15format_hexfloatIdTnNSt6__ndk19enable_ifIXntsr16is_double_doubleIT_EE5valueEiE4typeELi0EEEvS5_NS0_12format_specsERNS1_6bufferIcEE
PUBLIC 391f0 0 fmt::v11::detail::format_float<double>(double, int, fmt::v11::detail::float_specs, fmt::v11::detail::buffer<char>&)
PUBLIC 39b90 0 fmt::v11::detail::write<char, fmt::v11::basic_appender<char> >(fmt::v11::basic_appender<char>, fmt::v11::basic_string_view<char>, fmt::v11::format_specs const&)
PUBLIC 3aefc 0 fmt::v11::detail::for_each_codepoint<fmt::v11::detail::compute_width(fmt::v11::basic_string_view<char>)::count_code_points>(fmt::v11::basic_string_view<char>, fmt::v11::detail::compute_width(fmt::v11::basic_string_view<char>)::count_code_points)::{lambda(char const*, char const*)#1}::operator()(char const*, char const*) const
PUBLIC 3b0b4 0 fmt::v11::detail::write_int<fmt::v11::basic_appender<char>, unsigned long, char>(fmt::v11::basic_appender<char>, unsigned long, unsigned int, fmt::v11::format_specs const&, fmt::v11::detail::digit_grouping<char> const&)
PUBLIC 3b630 0 fmt::v11::detail::write_int<fmt::v11::basic_appender<char>, unsigned __int128, char>(fmt::v11::basic_appender<char>, unsigned __int128, unsigned int, fmt::v11::format_specs const&, fmt::v11::detail::digit_grouping<char> const&)
PUBLIC 3bcb0 0 <.plt ELF section in alphalaneous.mod_previews.android64.so>
STACK CFI INIT 1a340 10 .cfa: sp 0 +
STACK CFI INIT 1a350 8 .cfa: sp 0 +
STACK CFI INIT 1a358 8 .cfa: sp 0 +
STACK CFI INIT 1a360 14 .cfa: sp 0 +
STACK CFI INIT 1a374 1c .cfa: sp 0 +
STACK CFI INIT 1a390 10 .cfa: sp 0 +
STACK CFI INIT 1a3a0 134 .cfa: sp 0 +
STACK CFI INIT 1a4d4 84 .cfa: sp 0 +
STACK CFI INIT 1a558 f4 .cfa: sp 0 +
STACK CFI INIT 1a64c a8 .cfa: sp 0 +
STACK CFI INIT 1a6f4 7c .cfa: sp 0 +
STACK CFI INIT 1a770 14 .cfa: sp 0 +
STACK CFI INIT 1a784 40 .cfa: sp 0 +
STACK CFI INIT 1a7c4 28 .cfa: sp 0 +
STACK CFI INIT 1a7ec 190 .cfa: sp 0 +
STACK CFI INIT 1a97c 2c8 .cfa: sp 0 +
STACK CFI INIT 1ac44 8 .cfa: sp 0 +
STACK CFI INIT 1ac4c 8 .cfa: sp 0 +
STACK CFI INIT 1ac54 44 .cfa: sp 0 +
STACK CFI INIT 1ac98 e8 .cfa: sp 0 +
STACK CFI INIT 1ad80 e8 .cfa: sp 0 +
STACK CFI INIT 1ae68 14 .cfa: sp 0 +
STACK CFI INIT 1ae7c 10 .cfa: sp 0 +
STACK CFI INIT 1ae8c 10 .cfa: sp 0 +
STACK CFI INIT 1ae9c f0 .cfa: sp 0 +
STACK CFI INIT 1af8c 44 .cfa: sp 0 +
STACK CFI INIT 1afd0 c .cfa: sp 0 +
STACK CFI INIT 1afdc c .cfa: sp 0 +
STACK CFI INIT 1afe8 2c .cfa: sp 0 +
STACK CFI INIT 1b014 280 .cfa: sp 0 +
STACK CFI INIT 1b294 c .cfa: sp 0 +
STACK CFI INIT 1b2a0 120 .cfa: sp 0 +
STACK CFI INIT 1b3c0 488 .cfa: sp 0 +
STACK CFI INIT 1b848 c48 .cfa: sp 0 +
STACK CFI INIT 1c490 134 .cfa: sp 0 +
STACK CFI INIT 1c5c4 210 .cfa: sp 0 +
STACK CFI INIT 1c7d4 38c .cfa: sp 0 +
STACK CFI INIT 1cb60 1c8 .cfa: sp 0 +
STACK CFI INIT 1cd28 9bc .cfa: sp 0 +
STACK CFI INIT 1d6e4 2d4 .cfa: sp 0 +
STACK CFI INIT 1d9b8 134 .cfa: sp 0 +
STACK CFI INIT 1daec 120 .cfa: sp 0 +
STACK CFI INIT 1dc0c 1c8 .cfa: sp 0 +
STACK CFI INIT 1ddd4 168 .cfa: sp 0 +
STACK CFI INIT 1df3c fc .cfa: sp 0 +
STACK CFI INIT 1e038 30 .cfa: sp 0 +
STACK CFI INIT 1e658 14 .cfa: sp 0 +
STACK CFI 1e65c .cfa: sp 16 +
STACK CFI 1e660 .cfa: x29 16 + .ra: .cfa -8 + ^ x29: .cfa -16 + ^
STACK CFI INIT 1e66c 10 .cfa: sp 0 +
STACK CFI 1e670 .cfa: sp 16 +
STACK CFI 1e674 .cfa: x29 16 + .ra: .cfa -8 + ^ x29: .cfa -16 + ^
STACK CFI INIT 1e6cc 30 .cfa: sp 0 +
STACK CFI 1e6d0 .cfa: sp 32 +
STACK CFI 1e6d8 .cfa: x29 32 + x19: .cfa -16 + ^ .ra: .cfa -24 + ^ x29: .cfa -32 + ^
STACK CFI 1e6f0 .cfa: sp 32 +
STACK CFI 1e6f8 .cfa: sp 0 +
STACK CFI INIT 1e6fc 34 .cfa: sp 0 +
STACK CFI 1e700 .cfa: sp 32 +
STACK CFI 1e708 .cfa: x29 32 + x19: .cfa -16 + ^ .ra: .cfa -24 + ^ x29: .cfa -32 + ^
STACK CFI INIT 1e730 80 .cfa: sp 0 +
STACK CFI 1e734 .cfa: sp 48 +
STACK CFI 1e740 .cfa: x29 48 + x19: .cfa -8 + ^ x20: .cfa -16 + ^ x21: .cfa -24 + ^ x22: .cfa -32 + ^ .ra: .cfa -40 + ^ x29: .cfa -48 + ^
STACK CFI 1e758 .cfa: sp 48 +
STACK CFI 1e764 .cfa: sp 0 +
STACK CFI 1e768 .cfa: x29 48 +
STACK CFI 1e798 .cfa: sp 48 +
STACK CFI 1e7a4 .cfa: sp 0 +
STACK CFI 1e7a8 .cfa: x29 48 +
STACK CFI INIT 1e7b0 14 .cfa: sp 0 +
STACK CFI 1e7b4 .cfa: sp 16 +
STACK CFI 1e7b8 .cfa: x29 16 + .ra: .cfa -8 + ^ x29: .cfa -16 + ^
STACK CFI INIT 1e7d0 30 .cfa: sp 0 +
STACK CFI INIT 1e800 98 .cfa: sp 0 +
STACK CFI INIT 1e898 59c .cfa: sp 0 +
STACK CFI INIT 1ee34 8c .cfa: sp 0 +
STACK CFI INIT 1eec0 30 .cfa: sp 0 +
STACK CFI INIT 1fe68 1c .cfa: sp 0 +
STACK CFI INIT 1fe84 1c .cfa: sp 0 +
STACK CFI INIT 1fea0 50 .cfa: sp 0 +
STACK CFI 1fea4 .cfa: sp 32 +
STACK CFI 1feac .cfa: x29 32 + x19: .cfa -16 + ^ .ra: .cfa -24 + ^ x29: .cfa -32 + ^
STACK CFI 1fee4 .cfa: sp 32 +
STACK CFI 1feec .cfa: sp 0 +
STACK CFI INIT 200ac 8 .cfa: sp 0 +
STACK CFI INIT 2022c 2c .cfa: sp 0 +
STACK CFI 20230 .cfa: sp 32 +
STACK CFI 20238 .cfa: x29 32 + x19: .cfa -16 + ^ .ra: .cfa -24 + ^ x29: .cfa -32 + ^
STACK CFI 2024c .cfa: sp 32 +
STACK CFI 20254 .cfa: sp 0 +
STACK CFI INIT 20258 28 .cfa: sp 0 +
STACK CFI INIT 20280 4 .cfa: sp 0 +
STACK CFI INIT 20284 8 .cfa: sp 0 +
STACK CFI INIT 2040c 2c .cfa: sp 0 +
STACK CFI INIT 20438 4 .cfa: sp 0 +
STACK CFI INIT 2043c 4 .cfa: sp 0 +
STACK CFI INIT 20440 4 .cfa: sp 0 +
STACK CFI INIT 20444 4 .cfa: sp 0 +
STACK CFI INIT 20448 4 .cfa: sp 0 +
STACK CFI INIT 2044c 8 .cfa: sp 0 +
STACK CFI INIT 20454 ac .cfa: sp 0 +
STACK CFI 20458 .cfa: sp 64 +
STACK CFI 20468 .cfa: x29 64 + x19: .cfa -8 + ^ x20: .cfa -16 + ^ x21: .cfa -24 + ^ x22: .cfa -32 + ^ x23: .cfa -48 + ^ .ra: .cfa -56 + ^ x29: .cfa -64 + ^
STACK CFI 204e4 .cfa: sp 64 +
STACK CFI 204f4 .cfa: sp 0 +
STACK CFI 204f8 .cfa: x29 64 +
STACK CFI INIT 20500 110 .cfa: sp 0 +
STACK CFI 20504 .cfa: sp 64 +
STACK CFI 20514 .cfa: x29 64 + x19: .cfa -8 + ^ x20: .cfa -16 + ^ x21: .cfa -24 + ^ x22: .cfa -32 + ^ x23: .cfa -40 + ^ x24: .cfa -48 + ^ .ra: .cfa -56 + ^ x29: .cfa -64 + ^
STACK CFI 205f4 .cfa: sp 64 +
STACK CFI 20604 .cfa: sp 0 +
STACK CFI 20608 .cfa: x29 64 +
STACK CFI INIT 2067c 4 .cfa: sp 0 +
STACK CFI INIT 20834 4 .cfa: sp 0 +
STACK CFI INIT 20838 60 .cfa: sp 0 +
STACK CFI 2083c .cfa: sp 32 +
STACK CFI 20844 .cfa: x29 32 + x19: .cfa -8 + ^ x20: .cfa -16 + ^ .ra: .cfa -24 + ^ x29: .cfa -32 + ^
STACK CFI 20864 .cfa: sp 32 +
STACK CFI 2086c .cfa: sp 0 +
STACK CFI 20870 .cfa: x29 32 +
STACK CFI 2088c .cfa: sp 32 +
STACK CFI 20894 .cfa: sp 0 +
STACK CFI INIT 20898 70 .cfa: sp 0 +
STACK CFI 2089c .cfa: sp 32 +
STACK CFI 208a4 .cfa: x29 32 + x19: .cfa -8 + ^ x20: .cfa -16 + ^ .ra: .cfa -24 + ^ x29: .cfa -32 + ^
STACK CFI 208cc .cfa: sp 32 +
STACK CFI 208d4 .cfa: sp 0 +
STACK CFI 208d8 .cfa: x29 32 +
STACK CFI 208fc .cfa: sp 32 +
STACK CFI 20904 .cfa: sp 0 +
STACK CFI INIT 20908 10 .cfa: sp 0 +
STACK CFI INIT 20918 30 .cfa: sp 0 +
STACK CFI 2091c .cfa: sp 32 +
STACK CFI 20924 .cfa: x29 32 + x19: .cfa -16 + ^ .ra: .cfa -24 + ^ x29: .cfa -32 + ^
STACK CFI 2093c .cfa: sp 32 +
STACK CFI 20944 .cfa: sp 0 +
STACK CFI INIT 20948 4 .cfa: sp 0 +
STACK CFI INIT 2094c 4 .cfa: sp 0 +
STACK CFI INIT 20950 104 .cfa: sp 0 +
STACK CFI 20954 .cfa: sp 64 +
STACK CFI 20964 .cfa: x29 64 + x19: .cfa -8 + ^ x20: .cfa -16 + ^ x21: .cfa -24 + ^ x22: .cfa -32 + ^ x23: .cfa -48 + ^ .ra: .cfa -56 + ^ x29: .cfa -64 + ^
STACK CFI 209c0 .cfa: sp 64 +
STACK CFI 209d0 .cfa: sp 0 +
STACK CFI 209d4 .cfa: x29 64 +
STACK CFI 209f0 .cfa: sp 64 +
STACK CFI 20a00 .cfa: sp 0 +
STACK CFI 20a04 .cfa: x29 64 +
STACK CFI 20a40 .cfa: sp 64 +
STACK CFI 20a50 .cfa: sp 0 +
STACK CFI INIT 20bd0 4 .cfa: sp 0 +
STACK CFI INIT 20bd4 4 .cfa: sp 0 +
STACK CFI INIT 20bd8 24 .cfa: sp 0 +
STACK CFI 20bdc .cfa: sp 16 +
STACK CFI 20be0 .cfa: x29 16 + .ra: .cfa -8 + ^ x29: .cfa -16 + ^
STACK CFI 20bf4 .cfa: sp 16 +
STACK CFI 20bf8 .cfa: sp 0 +
STACK CFI INIT 20bfc 10 .cfa: sp 0 +
STACK CFI INIT 20c0c 4 .cfa: sp 0 +
STACK CFI INIT 20c10 4 .cfa: sp 0 +
STACK CFI INIT 21b14 1c .cfa: sp 0 +
STACK CFI INIT 21b30 c .cfa: sp 0 +
STACK CFI INIT 222bc 7c .cfa: sp 0 +
STACK CFI 222c0 .cfa: sp 48 +
STACK CFI 222cc .cfa: x29 48 + x19: .cfa -8 + ^ x20: .cfa -16 + ^ x21: .cfa -32 + ^ .ra: .cfa -40 + ^ x29: .cfa -48 + ^
STACK CFI 22318 .cfa: sp 48 +
STACK CFI 22324 .cfa: sp 0 +
STACK CFI 22328 .cfa: sp 48 +
STACK CFI 22334 .cfa: sp 0 +
STACK CFI INIT 22574 128 .cfa: sp 0 +
STACK CFI 22578 .cfa: sp 80 +
STACK CFI 2258c .cfa: x29 80 + x19: .cfa -8 + ^ x20: .cfa -16 + ^ x21: .cfa -24 + ^ x22: .cfa -32 + ^ x23: .cfa -40 + ^ x24: .cfa -48 + ^ x25: .cfa -64 + ^ .ra: .cfa -72 + ^ x29: .cfa -80 + ^
STACK CFI 2267c .cfa: sp 80 +
STACK CFI 22690 .cfa: sp 0 +
STACK CFI 22694 .cfa: x29 80 +
STACK CFI INIT 2269c 34 .cfa: sp 0 +
STACK CFI 226a0 .cfa: sp 32 +
STACK CFI 226a8 .cfa: x29 32 + x19: .cfa -8 + ^ x20: .cfa -16 + ^ .ra: .cfa -24 + ^ x29: .cfa -32 + ^
STACK CFI 226c4 .cfa: sp 32 +
STACK CFI 226cc .cfa: sp 0 +
STACK CFI INIT 22720 14 .cfa: sp 0 +
STACK CFI 22724 .cfa: sp 16 +
STACK CFI 22728 .cfa: x29 16 + .ra: .cfa -8 + ^ x29: .cfa -16 + ^
STACK CFI INIT 22734 14 .cfa: sp 0 +
STACK CFI 22738 .cfa: sp 16 +
STACK CFI 2273c .cfa: x29 16 + .ra: .cfa -8 + ^ x29: .cfa -16 + ^
STACK CFI INIT 22748 c .cfa: sp 0 +
STACK CFI 2274c .cfa: sp 16 +
STACK CFI 22750 .cfa: x29 16 + .ra: .cfa -8 + ^ x29: .cfa -16 + ^
STACK CFI INIT 227a4 30 .cfa: sp 0 +
STACK CFI 227a8 .cfa: sp 32 +
STACK CFI 227b0 .cfa: x29 32 + x19: .cfa -16 + ^ .ra: .cfa -24 + ^ x29: .cfa -32 + ^
STACK CFI 227c8 .cfa: sp 32 +
STACK CFI 227d0 .cfa: sp 0 +
STACK CFI INIT 227d4 c .cfa: sp 0 +
STACK CFI 227d8 .cfa: sp 16 +
STACK CFI 227dc .cfa: x29 16 + .ra: .cfa -8 + ^ x29: .cfa -16 + ^
STACK CFI INIT 22880 d8 .cfa: sp 0 +
STACK CFI 22888 .cfa: sp 48 +
STACK CFI 22894 .cfa: x29 48 + x19: .cfa -8 + ^ x20: .cfa -16 + ^ x21: .cfa -32 + ^ .ra: .cfa -40 + ^ x29: .cfa -48 + ^
STACK CFI 228ec .cfa: sp 0 + x19: x19 x20: x20 x21: x21 .ra: x30 x29: x29
STACK CFI 228f0 .cfa: x29 48 + x19: .cfa -8 + ^ x20: .cfa -16 + ^ x21: .cfa -32 + ^ .ra: .cfa -40 + ^ x29: .cfa -48 + ^
STACK CFI 22948 .cfa: sp 48 +
STACK CFI 22954 .cfa: sp 0 +
STACK CFI INIT 22958 9c .cfa: sp 0 +
STACK CFI 2295c .cfa: sp 32 +
STACK CFI 22964 .cfa: x29 32 + x19: .cfa -8 + ^ x20: .cfa -16 + ^ .ra: .cfa -24 + ^ x29: .cfa -32 + ^
STACK CFI 229e8 .cfa: sp 32 +
STACK CFI 229f0 .cfa: sp 0 +
STACK CFI INIT 229f4 50 .cfa: sp 0 +
STACK CFI 229f8 .cfa: sp 32 +
STACK CFI 22a00 .cfa: x29 32 + x19: .cfa -16 + ^ .ra: .cfa -24 + ^ x29: .cfa -32 + ^
STACK CFI 22a18 .cfa: sp 32 +
STACK CFI 22a20 .cfa: sp 0 +
STACK CFI 22a24 .cfa: x29 32 +
STACK CFI 22a38 .cfa: sp 32 +
STACK CFI 22a40 .cfa: sp 0 +
STACK CFI INIT 22a44 4 .cfa: sp 0 +
STACK CFI INIT 22c14 a4 .cfa: sp 0 +
STACK CFI 22c18 .cfa: sp 32 +
STACK CFI 22c20 .cfa: x29 32 + x19: .cfa -8 + ^ x20: .cfa -16 + ^ .ra: .cfa -24 + ^ x29: .cfa -32 + ^
STACK CFI 22cac .cfa: sp 32 +
STACK CFI 22cb4 .cfa: sp 0 +
STACK CFI INIT 22cb8 34 .cfa: sp 0 +
STACK CFI 22cbc .cfa: sp 16 +
STACK CFI 22cc0 .cfa: x29 16 + .ra: .cfa -8 + ^ x29: .cfa -16 + ^
STACK CFI INIT 22cec 24 .cfa: sp 0 +
STACK CFI 22cf0 .cfa: sp 32 +
STACK CFI 22cf8 .cfa: x29 32 + x19: .cfa -16 + ^ .ra: .cfa -24 + ^ x29: .cfa -32 + ^
STACK CFI 22d04 .cfa: sp 32 +
STACK CFI 22d0c .cfa: sp 0 +
STACK CFI INIT 22d10 4 .cfa: sp 0 +
STACK CFI INIT 22d14 4 .cfa: sp 0 +
STACK CFI INIT 22d18 38 .cfa: sp 0 +
STACK CFI 22d1c .cfa: sp 32 +
STACK CFI 22d24 .cfa: x29 32 + x19: .cfa -16 + ^ .ra: .cfa -24 + ^ x29: .cfa -32 + ^
STACK CFI 22d44 .cfa: sp 32 +
STACK CFI 22d4c .cfa: sp 0 +
STACK CFI INIT 22d50 18 .cfa: sp 0 +
STACK CFI INIT 22d68 4 .cfa: sp 0 +
STACK CFI INIT 22d6c 4 .cfa: sp 0 +
STACK CFI INIT 22d70 10 .cfa: sp 0 +
STACK CFI INIT 22d80 1c .cfa: sp 0 +
STACK CFI INIT 22d9c c .cfa: sp 0 +
STACK CFI INIT 23250 50 .cfa: sp 0 +
STACK CFI 23254 .cfa: sp 32 +
STACK CFI 2325c .cfa: x29 32 + x19: .cfa -16 + ^ .ra: .cfa -24 + ^ x29: .cfa -32 + ^
STACK CFI 23274 .cfa: sp 32 +
STACK CFI 2327c .cfa: sp 0 +
STACK CFI 23280 .cfa: x29 32 +
STACK CFI 23294 .cfa: sp 32 +
STACK CFI 2329c .cfa: sp 0 +
STACK CFI INIT 232a0 50 .cfa: sp 0 +
STACK CFI 232a4 .cfa: sp 32 +
STACK CFI 232ac .cfa: x29 32 + x19: .cfa -16 + ^ .ra: .cfa -24 + ^ x29: .cfa -32 + ^
STACK CFI 232c4 .cfa: sp 32 +
STACK CFI 232cc .cfa: sp 0 +
STACK CFI 232d0 .cfa: x29 32 +
STACK CFI 232e4 .cfa: sp 32 +
STACK CFI 232ec .cfa: sp 0 +
STACK CFI INIT 232f0 5c .cfa: sp 0 +
STACK CFI 232f4 .cfa: sp 32 +
STACK CFI 232fc .cfa: x29 32 + x19: .cfa -16 + ^ .ra: .cfa -24 + ^ x29: .cfa -32 + ^
STACK CFI 23320 .cfa: sp 32 +
STACK CFI 23328 .cfa: sp 0 +
STACK CFI 2332c .cfa: x29 32 +
STACK CFI 23340 .cfa: sp 32 +
STACK CFI 23348 .cfa: sp 0 +
STACK CFI INIT 2334c 6c .cfa: sp 0 +
STACK CFI 23350 .cfa: sp 32 +
STACK CFI 23358 .cfa: x29 32 + x19: .cfa -8 + ^ x20: .cfa -16 + ^ .ra: .cfa -24 + ^ x29: .cfa -32 + ^
STACK CFI 23384 .cfa: sp 32 +
STACK CFI 2338c .cfa: sp 0 +
STACK CFI 23390 .cfa: x29 32 +
STACK CFI 233ac .cfa: sp 32 +
STACK CFI 233b4 .cfa: sp 0 +
STACK CFI INIT 233b8 58 .cfa: sp 0 +
STACK CFI 233bc .cfa: sp 32 +
STACK CFI 233c4 .cfa: x29 32 + x19: .cfa -8 + ^ x20: .cfa -16 + ^ .ra: .cfa -24 + ^ x29: .cfa -32 + ^
STACK CFI 23404 .cfa: sp 32 +
STACK CFI 2340c .cfa: sp 0 +
STACK CFI INIT 23410 4c .cfa: sp 0 +
STACK CFI 23414 .cfa: sp 32 +
STACK CFI 2341c .cfa: x29 32 + x19: .cfa -8 + ^ x20: .cfa -16 + ^ .ra: .cfa -24 + ^ x29: .cfa -32 + ^
STACK CFI 23450 .cfa: sp 32 +
STACK CFI 23458 .cfa: sp 0 +
STACK CFI INIT 2345c 50 .cfa: sp 0 +
STACK CFI 23460 .cfa: sp 32 +
STACK CFI 23468 .cfa: x29 32 + x19: .cfa -16 + ^ .ra: .cfa -24 + ^ x29: .cfa -32 + ^
STACK CFI 23480 .cfa: sp 32 +
STACK CFI 23488 .cfa: sp 0 +
STACK CFI 2348c .cfa: x29 32 +
STACK CFI 234a0 .cfa: sp 32 +
STACK CFI 234a8 .cfa: sp 0 +
STACK CFI INIT 234ac 60 .cfa: sp 0 +
STACK CFI 234b0 .cfa: sp 32 +
STACK CFI 234b8 .cfa: x29 32 + x19: .cfa -8 + ^ x20: .cfa -16 + ^ .ra: .cfa -24 + ^ x29: .cfa -32 + ^
STACK CFI 234d8 .cfa: sp 32 +
STACK CFI 234e0 .cfa: sp 0 +
STACK CFI 234e4 .cfa: x29 32 +
STACK CFI 23500 .cfa: sp 32 +
STACK CFI 23508 .cfa: sp 0 +
STACK CFI INIT 236dc 1c .cfa: sp 0 +
STACK CFI INIT 236f8 c .cfa: sp 0 +
STACK CFI INIT 23704 60 .cfa: sp 0 +
STACK CFI 23708 .cfa: sp 32 +
STACK CFI 23710 .cfa: x29 32 + x19: .cfa -8 + ^ x20: .cfa -16 + ^ .ra: .cfa -24 + ^ x29: .cfa -32 + ^
STACK CFI 23730 .cfa: sp 32 +
STACK CFI 23738 .cfa: sp 0 +
STACK CFI 2373c .cfa: x29 32 +
STACK CFI 23758 .cfa: sp 32 +
STACK CFI 23760 .cfa: sp 0 +
STACK CFI INIT 23764 70 .cfa: sp 0 +
STACK CFI 23768 .cfa: sp 32 +
STACK CFI 23770 .cfa: x29 32 + x19: .cfa -8 + ^ x20: .cfa -16 + ^ .ra: .cfa -24 + ^ x29: .cfa -32 + ^
STACK CFI 23798 .cfa: sp 32 +
STACK CFI 237a0 .cfa: sp 0 +
STACK CFI 237a4 .cfa: x29 32 +
STACK CFI 237c8 .cfa: sp 32 +
STACK CFI 237d0 .cfa: sp 0 +
STACK CFI INIT 237d4 5c .cfa: sp 0 +
STACK CFI 237d8 .cfa: sp 32 +
STACK CFI 237e0 .cfa: x29 32 + x19: .cfa -16 + ^ .ra: .cfa -24 + ^ x29: .cfa -32 + ^
STACK CFI 23804 .cfa: sp 32 +
STACK CFI 2380c .cfa: sp 0 +
STACK CFI 23810 .cfa: x29 32 +
STACK CFI 23824 .cfa: sp 32 +
STACK CFI 2382c .cfa: sp 0 +
STACK CFI INIT 23830 6c .cfa: sp 0 +
STACK CFI 23834 .cfa: sp 32 +
STACK CFI 2383c .cfa: x29 32 + x19: .cfa -8 + ^ x20: .cfa -16 + ^ .ra: .cfa -24 + ^ x29: .cfa -32 + ^
STACK CFI 23868 .cfa: sp 32 +
STACK CFI 23870 .cfa: sp 0 +
STACK CFI 23874 .cfa: x29 32 +
STACK CFI 23890 .cfa: sp 32 +
STACK CFI 23898 .cfa: sp 0 +
STACK CFI INIT 2389c 58 .cfa: sp 0 +
STACK CFI 238a0 .cfa: sp 32 +
STACK CFI 238a8 .cfa: x29 32 + x19: .cfa -8 + ^ x20: .cfa -16 + ^ .ra: .cfa -24 + ^ x29: .cfa -32 + ^
STACK CFI 238e8 .cfa: sp 32 +
STACK CFI 238f0 .cfa: sp 0 +
STACK CFI INIT 238f4 4c .cfa: sp 0 +
STACK CFI 238f8 .cfa: sp 32 +
STACK CFI 23900 .cfa: x29 32 + x19: .cfa -8 + ^ x20: .cfa -16 + ^ .ra: .cfa -24 + ^ x29: .cfa -32 + ^
STACK CFI 23934 .cfa: sp 32 +
STACK CFI 2393c .cfa: sp 0 +
STACK CFI INIT 23940 50 .cfa: sp 0 +
STACK CFI 23944 .cfa: sp 32 +
STACK CFI 2394c .cfa: x29 32 + x19: .cfa -16 + ^ .ra: .cfa -24 + ^ x29: .cfa -32 + ^
STACK CFI 23964 .cfa: sp 32 +
STACK CFI 2396c .cfa: sp 0 +
STACK CFI 23970 .cfa: x29 32 +
STACK CFI 23984 .cfa: sp 32 +
STACK CFI 2398c .cfa: sp 0 +
STACK CFI INIT 23990 60 .cfa: sp 0 +
STACK CFI 23994 .cfa: sp 32 +
STACK CFI 2399c .cfa: x29 32 + x19: .cfa -8 + ^ x20: .cfa -16 + ^ .ra: .cfa -24 + ^ x29: .cfa -32 + ^
STACK CFI 239bc .cfa: sp 32 +
STACK CFI 239c4 .cfa: sp 0 +
STACK CFI 239c8 .cfa: x29 32 +
STACK CFI 239e4 .cfa: sp 32 +
STACK CFI 239ec .cfa: sp 0 +
STACK CFI INIT 23bb4 1c .cfa: sp 0 +
STACK CFI INIT 23bd0 c .cfa: sp 0 +
STACK CFI INIT 23bdc 1b0 .cfa: sp 0 +
STACK CFI INIT 23d8c e0 .cfa: sp 0 +
STACK CFI 23d90 .cfa: sp 48 +
STACK CFI 23d9c .cfa: x29 48 + x19: .cfa -8 + ^ x20: .cfa -16 + ^ x21: .cfa -32 + ^ .ra: .cfa -40 + ^ x29: .cfa -48 + ^
STACK CFI 23df4 .cfa: sp 48 +
STACK CFI 23e00 .cfa: sp 0 +
STACK CFI 23e04 .cfa: x29 48 +
STACK CFI 23e5c .cfa: sp 48 +
STACK CFI 23e68 .cfa: sp 0 +
STACK CFI INIT 24004 4c .cfa: sp 0 +
STACK CFI INIT 24050 5c .cfa: sp 0 +
STACK CFI 24054 .cfa: sp 32 +
STACK CFI 2405c .cfa: x29 32 + x19: .cfa -16 + ^ .ra: .cfa -24 + ^ x29: .cfa -32 + ^
STACK CFI 240a0 .cfa: sp 32 +
STACK CFI 240a8 .cfa: sp 0 +
STACK CFI INIT 24148 88 .cfa: sp 0 +
STACK CFI 2414c .cfa: sp 32 +
STACK CFI 24154 .cfa: x29 32 + x19: .cfa -16 + ^ .ra: .cfa -24 + ^ x29: .cfa -32 + ^
STACK CFI 24194 .cfa: sp 32 +
STACK CFI 2419c .cfa: sp 0 +
STACK CFI 241a0 .cfa: x29 32 +
STACK CFI 241a4 .cfa: sp 32 +
STACK CFI 241ac .cfa: sp 0 +
STACK CFI 241b0 .cfa: x29 32 +
STACK CFI 241c4 .cfa: sp 32 +
STACK CFI 241cc .cfa: sp 0 +
STACK CFI INIT 241d0 40 .cfa: sp 0 +
STACK CFI INIT 24210 50 .cfa: sp 0 +
STACK CFI 24214 .cfa: sp 32 +
STACK CFI 2421c .cfa: x29 32 + x19: .cfa -16 + ^ .ra: .cfa -24 + ^ x29: .cfa -32 + ^
STACK CFI 24254 .cfa: sp 32 +
STACK CFI 2425c .cfa: sp 0 +
STACK CFI INIT 24260 94 .cfa: sp 0 +
STACK CFI 24264 .cfa: sp 48 +
STACK CFI 24270 .cfa: x29 32 + x19: .cfa -8 + ^ x20: .cfa -16 + ^ .ra: .cfa -24 + ^ x29: .cfa -32 + ^
STACK CFI 242cc .cfa: sp 48 +
STACK CFI 242d8 .cfa: sp 0 +
STACK CFI 242dc .cfa: x29 32 +
STACK CFI INIT 242f4 1c .cfa: sp 0 +
STACK CFI INIT 24310 c .cfa: sp 0 +
STACK CFI INIT 2431c 20 .cfa: sp 0 +
STACK CFI INIT 2433c 40 .cfa: sp 0 +
STACK CFI 24354 .cfa: sp 32 +
STACK CFI 2435c .cfa: x29 32 + x19: .cfa -16 + ^ .ra: .cfa -24 + ^ x29: .cfa -32 + ^
STACK CFI 24370 .cfa: sp 32 +
STACK CFI 24378 .cfa: sp 0 +
STACK CFI INIT 24408 44 .cfa: sp 0 +
STACK CFI INIT 2444c 14 .cfa: sp 0 +
STACK CFI INIT 24460 34 .cfa: sp 0 +
STACK CFI 2446c .cfa: sp 32 +
STACK CFI 24474 .cfa: x29 32 + x19: .cfa -16 + ^ .ra: .cfa -24 + ^ x29: .cfa -32 + ^
STACK CFI 24488 .cfa: sp 32 +
STACK CFI 24490 .cfa: sp 0 +
STACK CFI INIT 24cec 1c .cfa: sp 0 +
STACK CFI INIT 24d08 c .cfa: sp 0 +
STACK CFI INIT 25258 2f4 .cfa: sp 0 +
STACK CFI 2525c .cfa: sp 96 +
STACK CFI 25274 .cfa: x29 64 + x19: .cfa -8 + ^ x20: .cfa -16 + ^ x21: .cfa -24 + ^ x22: .cfa -32 + ^ x23: .cfa -40 + ^ x24: .cfa -48 + ^ .ra: .cfa -56 + ^ x29: .cfa -64 + ^ v8: .cfa -72 + ^ v9: .cfa -80 + ^
STACK CFI 2552c .cfa: sp 96 +
STACK CFI 25544 .cfa: sp 0 +
STACK CFI 25548 .cfa: x29 64 +
STACK CFI INIT 2554c 20 .cfa: sp 0 +
STACK CFI INIT 2556c 40 .cfa: sp 0 +
STACK CFI 25584 .cfa: sp 32 +
STACK CFI 2558c .cfa: x29 32 + x19: .cfa -16 + ^ .ra: .cfa -24 + ^ x29: .cfa -32 + ^
STACK CFI 255a0 .cfa: sp 32 +
STACK CFI 255a8 .cfa: sp 0 +
STACK CFI INIT 2563c 4c .cfa: sp 0 +
STACK CFI INIT 25688 14 .cfa: sp 0 +
STACK CFI INIT 2569c 34 .cfa: sp 0 +
STACK CFI 256a8 .cfa: sp 32 +
STACK CFI 256b0 .cfa: x29 32 + x19: .cfa -16 + ^ .ra: .cfa -24 + ^ x29: .cfa -32 + ^
STACK CFI 256c4 .cfa: sp 32 +
STACK CFI 256cc .cfa: sp 0 +
STACK CFI INIT 2597c 1c .cfa: sp 0 +
STACK CFI INIT 25998 c .cfa: sp 0 +
STACK CFI INIT 259a4 44 .cfa: sp 0 +
STACK CFI 259a8 .cfa: sp 32 +
STACK CFI 259b0 .cfa: x29 32 + x19: .cfa -16 + ^ .ra: .cfa -24 + ^ x29: .cfa -32 + ^
STACK CFI 259d0 .cfa: sp 32 +
STACK CFI 259d8 .cfa: sp 0 +
STACK CFI 259dc .cfa: sp 32 +
STACK CFI 259e4 .cfa: sp 0 +
STACK CFI INIT 259e8 14 .cfa: sp 0 +
STACK CFI 259ec .cfa: sp 16 +
STACK CFI 259f0 .cfa: x29 16 + .ra: .cfa -8 + ^ x29: .cfa -16 + ^
STACK CFI INIT 25c7c 70 .cfa: sp 0 +
STACK CFI 25c80 .cfa: sp 32 +
STACK CFI 25c88 .cfa: x29 32 + x19: .cfa -8 + ^ x20: .cfa -16 + ^ .ra: .cfa -24 + ^ x29: .cfa -32 + ^
STACK CFI 25cd4 .cfa: sp 32 +
STACK CFI 25cdc .cfa: sp 0 +
STACK CFI 25ce0 .cfa: sp 32 +
STACK CFI 25ce8 .cfa: sp 0 +
STACK CFI INIT 25cec 3c .cfa: sp 0 +
STACK CFI 25cf0 .cfa: sp 32 +
STACK CFI 25cf8 .cfa: x29 32 + x19: .cfa -16 + ^ .ra: .cfa -24 + ^ x29: .cfa -32 + ^
STACK CFI 25d10 .cfa: sp 32 +
STACK CFI 25d18 .cfa: sp 0 +
STACK CFI 25d1c .cfa: sp 32 +
STACK CFI 25d24 .cfa: sp 0 +
STACK CFI INIT 25d28 20 .cfa: sp 0 +
STACK CFI INIT 25d48 40 .cfa: sp 0 +
STACK CFI 25d60 .cfa: sp 32 +
STACK CFI 25d68 .cfa: x29 32 + x19: .cfa -16 + ^ .ra: .cfa -24 + ^ x29: .cfa -32 + ^
STACK CFI 25d7c .cfa: sp 32 +
STACK CFI 25d84 .cfa: sp 0 +
STACK CFI INIT 25e1c 4c .cfa: sp 0 +
STACK CFI INIT 25e68 14 .cfa: sp 0 +
STACK CFI INIT 25e7c 34 .cfa: sp 0 +
STACK CFI 25e88 .cfa: sp 32 +
STACK CFI 25e90 .cfa: x29 32 + x19: .cfa -16 + ^ .ra: .cfa -24 + ^ x29: .cfa -32 + ^
STACK CFI 25ea4 .cfa: sp 32 +
STACK CFI 25eac .cfa: sp 0 +
STACK CFI INIT 260dc 1c .cfa: sp 0 +
STACK CFI INIT 260f8 c .cfa: sp 0 +
STACK CFI INIT 26104 3c .cfa: sp 0 +
STACK CFI 26108 .cfa: sp 32 +
STACK CFI 26110 .cfa: x29 32 + x19: .cfa -16 + ^ .ra: .cfa -24 + ^ x29: .cfa -32 + ^
STACK CFI 2611c .cfa: sp 32 +
STACK CFI 26124 .cfa: sp 0 +
STACK CFI 26128 .cfa: x29 32 +
STACK CFI 26134 .cfa: sp 32 +
STACK CFI 2613c .cfa: sp 0 +
STACK CFI INIT 26140 4c .cfa: sp 0 +
STACK CFI 26144 .cfa: sp 32 +
STACK CFI 2614c .cfa: x29 32 + x19: .cfa -8 + ^ x20: .cfa -16 + ^ .ra: .cfa -24 + ^ x29: .cfa -32 + ^
STACK CFI 26174 .cfa: sp 32 +
STACK CFI 2617c .cfa: sp 0 +
STACK CFI 26180 .cfa: sp 32 +
STACK CFI 26188 .cfa: sp 0 +
STACK CFI INIT 263ac 50 .cfa: sp 0 +
STACK CFI 263b0 .cfa: sp 32 +
STACK CFI 263b8 .cfa: x29 32 + x19: .cfa -16 + ^ .ra: .cfa -24 + ^ x29: .cfa -32 + ^
STACK CFI 263d0 .cfa: sp 32 +
STACK CFI 263d8 .cfa: sp 0 +
STACK CFI 263dc .cfa: x29 32 +
STACK CFI 263f0 .cfa: sp 32 +
STACK CFI 263f8 .cfa: sp 0 +
STACK CFI INIT 263fc 64 .cfa: sp 0 +
STACK CFI 26400 .cfa: sp 32 +
STACK CFI 26408 .cfa: x29 32 + x19: .cfa -16 + ^ .ra: .cfa -24 + ^ x29: .cfa -32 + ^
STACK CFI 26434 .cfa: sp 32 +
STACK CFI 2643c .cfa: sp 0 +
STACK CFI 26440 .cfa: x29 32 +
STACK CFI 26454 .cfa: sp 32 +
STACK CFI 2645c .cfa: sp 0 +
STACK CFI INIT 26460 24 .cfa: sp 0 +
STACK CFI 26464 .cfa: sp 32 +
STACK CFI 2646c .cfa: x29 32 + x19: .cfa -16 + ^ .ra: .cfa -24 + ^ x29: .cfa -32 + ^
STACK CFI 26478 .cfa: sp 32 +
STACK CFI 26480 .cfa: sp 0 +
STACK CFI INIT 26484 24 .cfa: sp 0 +
STACK CFI 26488 .cfa: sp 32 +
STACK CFI 26490 .cfa: x29 32 + x19: .cfa -16 + ^ .ra: .cfa -24 + ^ x29: .cfa -32 + ^
STACK CFI 2649c .cfa: sp 32 +
STACK CFI 264a4 .cfa: sp 0 +
STACK CFI INIT 264a8 8 .cfa: sp 0 +
STACK CFI INIT 264b0 24 .cfa: sp 0 +
STACK CFI 264b4 .cfa: sp 32 +
STACK CFI 264bc .cfa: x29 32 + x19: .cfa -16 + ^ .ra: .cfa -24 + ^ x29: .cfa -32 + ^
STACK CFI 264c8 .cfa: sp 32 +
STACK CFI 264d0 .cfa: sp 0 +
STACK CFI INIT 264d4 28 .cfa: sp 0 +
STACK CFI 264d8 .cfa: sp 32 +
STACK CFI 264e0 .cfa: x29 32 + x19: .cfa -16 + ^ .ra: .cfa -24 + ^ x29: .cfa -32 + ^
STACK CFI 264f0 .cfa: sp 32 +
STACK CFI 264f8 .cfa: sp 0 +
STACK CFI INIT 267fc 8 .cfa: sp 0 +
STACK CFI INIT 26804 24 .cfa: sp 0 +
STACK CFI 26808 .cfa: sp 32 +
STACK CFI 26810 .cfa: x29 32 + x19: .cfa -16 + ^ .ra: .cfa -24 + ^ x29: .cfa -32 + ^
STACK CFI 2681c .cfa: sp 32 +
STACK CFI 26824 .cfa: sp 0 +
STACK CFI INIT 26828 28 .cfa: sp 0 +
STACK CFI 2682c .cfa: sp 32 +
STACK CFI 26834 .cfa: x29 32 + x19: .cfa -16 + ^ .ra: .cfa -24 + ^ x29: .cfa -32 + ^
STACK CFI 26844 .cfa: sp 32 +
STACK CFI 2684c .cfa: sp 0 +
STACK CFI INIT 26ab4 8 .cfa: sp 0 +
STACK CFI INIT 26abc 24 .cfa: sp 0 +
STACK CFI 26ac0 .cfa: sp 32 +
STACK CFI 26ac8 .cfa: x29 32 + x19: .cfa -16 + ^ .ra: .cfa -24 + ^ x29: .cfa -32 + ^
STACK CFI 26ad4 .cfa: sp 32 +
STACK CFI 26adc .cfa: sp 0 +
STACK CFI INIT 26ae0 28 .cfa: sp 0 +
STACK CFI 26ae4 .cfa: sp 32 +
STACK CFI 26aec .cfa: x29 32 + x19: .cfa -16 + ^ .ra: .cfa -24 + ^ x29: .cfa -32 + ^
STACK CFI 26afc .cfa: sp 32 +
STACK CFI 26b04 .cfa: sp 0 +
STACK CFI INIT 26d78 24 .cfa: sp 0 +
STACK CFI 26d7c .cfa: sp 32 +
STACK CFI 26d84 .cfa: x29 32 + x19: .cfa -16 + ^ .ra: .cfa -24 + ^ x29: .cfa -32 + ^
STACK CFI 26d90 .cfa: sp 32 +
STACK CFI 26d98 .cfa: sp 0 +
STACK CFI INIT 27454 24 .cfa: sp 0 +
STACK CFI 27458 .cfa: sp 32 +
STACK CFI 27460 .cfa: x29 32 + x19: .cfa -16 + ^ .ra: .cfa -24 + ^ x29: .cfa -32 + ^
STACK CFI 2746c .cfa: sp 32 +
STACK CFI 27474 .cfa: sp 0 +
STACK CFI INIT 27478 8 .cfa: sp 0 +
STACK CFI INIT 27480 24 .cfa: sp 0 +
STACK CFI 27484 .cfa: sp 32 +
STACK CFI 2748c .cfa: x29 32 + x19: .cfa -16 + ^ .ra: .cfa -24 + ^ x29: .cfa -32 + ^
STACK CFI 27498 .cfa: sp 32 +
STACK CFI 274a0 .cfa: sp 0 +
STACK CFI INIT 274a4 28 .cfa: sp 0 +
STACK CFI 274a8 .cfa: sp 32 +
STACK CFI 274b0 .cfa: x29 32 + x19: .cfa -16 + ^ .ra: .cfa -24 + ^ x29: .cfa -32 + ^
STACK CFI 274c0 .cfa: sp 32 +
STACK CFI 274c8 .cfa: sp 0 +
STACK CFI INIT 274cc 4 .cfa: sp 0 +
STACK CFI INIT 28670 34 .cfa: sp 0 +
STACK CFI 28674 .cfa: sp 16 +
STACK CFI 28678 .cfa: x29 16 + .ra: .cfa -8 + ^ x29: .cfa -16 + ^
STACK CFI INIT 287d0 80 .cfa: sp 0 +
STACK CFI 287d4 .cfa: sp 48 +
STACK CFI 287e0 .cfa: x29 48 + x19: .cfa -8 + ^ x20: .cfa -16 + ^ x21: .cfa -32 + ^ .ra: .cfa -40 + ^ x29: .cfa -48 + ^
STACK CFI 28840 .cfa: sp 48 +
STACK CFI 2884c .cfa: sp 0 +
STACK CFI INIT 28850 24 .cfa: sp 0 +
STACK CFI 28854 .cfa: sp 32 +
STACK CFI 2885c .cfa: x29 32 + x19: .cfa -16 + ^ .ra: .cfa -24 + ^ x29: .cfa -32 + ^
STACK CFI 28868 .cfa: sp 32 +
STACK CFI 28870 .cfa: sp 0 +
STACK CFI INIT 28f4c 4 .cfa: sp 0 +
STACK CFI INIT 28f50 14 .cfa: sp 0 +
STACK CFI INIT 29470 c .cfa: sp 0 +
STACK CFI INIT 2947c 24c .cfa: sp 0 +
STACK CFI INIT 296c8 a0 .cfa: sp 0 +
STACK CFI 296d4 .cfa: sp 32 +
STACK CFI 2972c .cfa: sp 0 +
STACK CFI 29730 .cfa: sp 32 +
STACK CFI 29738 .cfa: sp 0 +
STACK CFI 2973c .cfa: sp 32 +
STACK CFI 29750 .cfa: sp 0 +
STACK CFI 29754 .cfa: sp 32 +
STACK CFI 29764 .cfa: sp 0 +
STACK CFI INIT 29768 38 .cfa: sp 0 +
STACK CFI 29774 .cfa: sp 32 +
STACK CFI 2979c .cfa: sp 0 +
STACK CFI INIT 29a34 7c .cfa: sp 0 +
STACK CFI 29a38 .cfa: sp 32 +
STACK CFI 29a40 .cfa: x29 32 + x19: .cfa -16 + ^ .ra: .cfa -24 + ^ x29: .cfa -32 + ^
STACK CFI 29a6c .cfa: sp 32 +
STACK CFI 29a74 .cfa: sp 0 +
STACK CFI 29a78 .cfa: x29 32 +
STACK CFI 29aa4 .cfa: sp 32 +
STACK CFI 29aac .cfa: sp 0 +
STACK CFI INIT 29b00 2c .cfa: sp 0 +
STACK CFI 29b04 .cfa: sp 32 +
STACK CFI 29b0c .cfa: x29 32 + x19: .cfa -16 + ^ .ra: .cfa -24 + ^ x29: .cfa -32 + ^
STACK CFI 29b20 .cfa: sp 32 +
STACK CFI 29b28 .cfa: sp 0 +
STACK CFI INIT 2a2ec 64 .cfa: sp 0 +
STACK CFI 2a2f0 .cfa: sp 32 +
STACK CFI 2a2f8 .cfa: x29 32 + x19: .cfa -16 + ^ .ra: .cfa -24 + ^ x29: .cfa -32 + ^
STACK CFI 2a314 .cfa: sp 32 +
STACK CFI 2a31c .cfa: sp 0 +
STACK CFI 2a320 .cfa: x29 32 +
STACK CFI 2a344 .cfa: sp 32 +
STACK CFI 2a34c .cfa: sp 0 +
STACK CFI INIT 2a350 570 .cfa: sp 0 +
STACK CFI 2a354 .cfa: sp 176 +
STACK CFI 2a368 .cfa: x29 64 + x19: .cfa -8 + ^ x20: .cfa -16 + ^ x21: .cfa -24 + ^ x22: .cfa -32 + ^ x23: .cfa -40 + ^ x24: .cfa -48 + ^ .ra: .cfa -56 + ^ x29: .cfa -64 + ^
STACK CFI 2a598 .cfa: sp 176 +
STACK CFI 2a5ac .cfa: sp 0 +
STACK CFI 2a5b0 .cfa: x29 64 +
STACK CFI 2a5fc .cfa: sp 176 +
STACK CFI 2a610 .cfa: sp 0 +
STACK CFI 2a614 .cfa: x29 64 +
STACK CFI 2a64c .cfa: sp 176 +
STACK CFI 2a660 .cfa: sp 0 +
STACK CFI 2a664 .cfa: x29 64 +
STACK CFI 2a67c .cfa: sp 176 +
STACK CFI 2a690 .cfa: sp 0 +
STACK CFI 2a694 .cfa: x29 64 +
STACK CFI 2a6b4 .cfa: sp 176 +
STACK CFI 2a6c8 .cfa: sp 0 +
STACK CFI 2a6cc .cfa: x29 64 +
STACK CFI 2a6e4 .cfa: sp 176 +
STACK CFI 2a6f8 .cfa: sp 0 +
STACK CFI 2a6fc .cfa: x29 64 +
STACK CFI 2a710 .cfa: sp 176 +
STACK CFI 2a724 .cfa: sp 0 +
STACK CFI 2a728 .cfa: x29 64 +
STACK CFI 2a73c .cfa: sp 176 +
STACK CFI 2a750 .cfa: sp 0 +
STACK CFI 2a754 .cfa: x29 64 +
STACK CFI 2a764 .cfa: sp 176 +
STACK CFI 2a778 .cfa: sp 0 +
STACK CFI 2a77c .cfa: x29 64 +
STACK CFI 2a78c .cfa: sp 176 +
STACK CFI 2a7a0 .cfa: sp 0 +
STACK CFI 2a7a4 .cfa: x29 64 +
STACK CFI 2a7bc .cfa: sp 176 +
STACK CFI 2a7d0 .cfa: sp 0 +
STACK CFI 2a7d4 .cfa: x29 64 +
STACK CFI 2a7e8 .cfa: sp 176 +
STACK CFI 2a7fc .cfa: sp 0 +
STACK CFI 2a800 .cfa: x29 64 +
STACK CFI 2a818 .cfa: sp 176 +
STACK CFI 2a82c .cfa: sp 0 +
STACK CFI 2a830 .cfa: x29 64 +
STACK CFI 2a85c .cfa: sp 176 +
STACK CFI 2a870 .cfa: sp 0 +
STACK CFI 2a874 .cfa: x29 64 +
STACK CFI 2a888 .cfa: sp 176 +
STACK CFI 2a89c .cfa: sp 0 +
STACK CFI 2a8a0 .cfa: x29 64 +
STACK CFI INIT 2a8c0 228 .cfa: sp 0 +
STACK CFI INIT 2aae8 2dc .cfa: sp 0 +
STACK CFI INIT 2adc4 53c .cfa: sp 0 +
STACK CFI INIT 2b300 78 .cfa: sp 0 +
STACK CFI 2b304 .cfa: sp 48 +
STACK CFI 2b310 .cfa: x29 48 + x19: .cfa -8 + ^ x20: .cfa -16 + ^ x21: .cfa -24 + ^ x22: .cfa -32 + ^ .ra: .cfa -40 + ^ x29: .cfa -48 + ^
STACK CFI 2b358 .cfa: sp 48 +
STACK CFI 2b364 .cfa: sp 0 +
STACK CFI 2b368 .cfa: sp 48 +
STACK CFI 2b374 .cfa: sp 0 +
STACK CFI INIT 2b378 8c .cfa: sp 0 +
STACK CFI 2b37c .cfa: sp 32 +
STACK CFI 2b384 .cfa: x29 32 + x19: .cfa -16 + ^ .ra: .cfa -24 + ^ x29: .cfa -32 + ^
STACK CFI 2b3b8 .cfa: sp 32 +
STACK CFI 2b3c0 .cfa: sp 0 +
STACK CFI 2b3c4 .cfa: x29 32 +
STACK CFI 2b3f8 .cfa: sp 32 +
STACK CFI 2b400 .cfa: sp 0 +
STACK CFI INIT 2b404 24 .cfa: sp 0 +
STACK CFI 2b408 .cfa: sp 32 +
STACK CFI 2b410 .cfa: x29 32 + x19: .cfa -16 + ^ .ra: .cfa -24 + ^ x29: .cfa -32 + ^
STACK CFI 2b41c .cfa: sp 32 +
STACK CFI 2b424 .cfa: sp 0 +
STACK CFI INIT 2b428 150 .cfa: sp 0 +
STACK CFI 2b42c .cfa: sp 48 +
STACK CFI 2b438 .cfa: x29 48 + x19: .cfa -8 + ^ x20: .cfa -16 + ^ x21: .cfa -24 + ^ x22: .cfa -32 + ^ .ra: .cfa -40 + ^ x29: .cfa -48 + ^
STACK CFI 2b568 .cfa: sp 48 +
STACK CFI 2b574 .cfa: sp 0 +
STACK CFI INIT 2b578 68 .cfa: sp 0 +
STACK CFI 2b57c .cfa: sp 64 +
STACK CFI 2b588 .cfa: x29 32 + x19: .cfa -16 + ^ .ra: .cfa -24 + ^ x29: .cfa -32 + ^
STACK CFI 2b5cc .cfa: sp 64 +
STACK CFI 2b5d8 .cfa: sp 0 +
STACK CFI 2b5dc .cfa: x29 32 +
STACK CFI INIT 2b5e0 90 .cfa: sp 0 +
STACK CFI 2b5e4 .cfa: sp 32 +
STACK CFI 2b5ec .cfa: x29 32 + x19: .cfa -8 + ^ x20: .cfa -16 + ^ .ra: .cfa -24 + ^ x29: .cfa -32 + ^
STACK CFI 2b618 .cfa: sp 32 +
STACK CFI 2b620 .cfa: sp 0 +
STACK CFI 2b624 .cfa: x29 32 +
STACK CFI 2b664 .cfa: sp 32 +
STACK CFI 2b66c .cfa: sp 0 +
STACK CFI INIT 2b670 ec .cfa: sp 0 +
STACK CFI 2b674 .cfa: sp 112 +
STACK CFI 2b684 .cfa: x29 48 + x19: .cfa -8 + ^ x20: .cfa -16 + ^ x21: .cfa -32 + ^ .ra: .cfa -40 + ^ x29: .cfa -48 + ^
STACK CFI 2b744 .cfa: sp 112 +
STACK CFI 2b754 .cfa: sp 0 +
STACK CFI 2b758 .cfa: x29 48 +
STACK CFI INIT 2b75c ec .cfa: sp 0 +
STACK CFI 2b760 .cfa: sp 112 +
STACK CFI 2b770 .cfa: x29 48 + x19: .cfa -8 + ^ x20: .cfa -16 + ^ x21: .cfa -32 + ^ .ra: .cfa -40 + ^ x29: .cfa -48 + ^
STACK CFI 2b830 .cfa: sp 112 +
STACK CFI 2b840 .cfa: sp 0 +
STACK CFI 2b844 .cfa: x29 48 +
STACK CFI INIT 2b848 48 .cfa: sp 0 +
STACK CFI 2b84c .cfa: sp 32 +
STACK CFI 2b854 .cfa: x29 32 + x19: .cfa -8 + ^ x20: .cfa -16 + ^ .ra: .cfa -24 + ^ x29: .cfa -32 + ^
STACK CFI 2b878 .cfa: sp 32 +
STACK CFI 2b880 .cfa: sp 0 +
STACK CFI 2b884 .cfa: x29 32 +
STACK CFI INIT 2b890 98 .cfa: sp 0 +
STACK CFI 2b894 .cfa: sp 80 +
STACK CFI 2b8a0 .cfa: x29 32 + x19: .cfa -16 + ^ .ra: .cfa -24 + ^ x29: .cfa -32 + ^
STACK CFI 2b914 .cfa: sp 80 +
STACK CFI 2b920 .cfa: sp 0 +
STACK CFI 2b924 .cfa: x29 32 +
STACK CFI INIT 2b928 260 .cfa: sp 0 +
STACK CFI 2b92c .cfa: sp 112 +
STACK CFI 2b944 .cfa: x29 80 + x19: .cfa -8 + ^ x20: .cfa -16 + ^ x21: .cfa -24 + ^ x22: .cfa -32 + ^ x23: .cfa -40 + ^ x24: .cfa -48 + ^ x25: .cfa -64 + ^ .ra: .cfa -72 + ^ x29: .cfa -80 + ^
STACK CFI 2bb28 .cfa: sp 112 +
STACK CFI 2bb40 .cfa: sp 0 +
STACK CFI 2bb44 .cfa: x29 80 +
STACK CFI INIT 2bb88 150 .cfa: sp 0 +
STACK CFI 2bb8c .cfa: sp 48 +
STACK CFI 2bb98 .cfa: x29 48 + x19: .cfa -8 + ^ x20: .cfa -16 + ^ x21: .cfa -24 + ^ x22: .cfa -32 + ^ .ra: .cfa -40 + ^ x29: .cfa -48 + ^
STACK CFI 2bcc8 .cfa: sp 48 +
STACK CFI 2bcd4 .cfa: sp 0 +
STACK CFI INIT 2bcd8 1e0 .cfa: sp 0 +
STACK CFI 2bcdc .cfa: sp 96 +
STACK CFI 2bcf0 .cfa: x29 64 + x19: .cfa -8 + ^ x20: .cfa -16 + ^ x21: .cfa -24 + ^ x22: .cfa -32 + ^ x23: .cfa -40 + ^ x24: .cfa -48 + ^ .ra: .cfa -56 + ^ x29: .cfa -64 + ^
STACK CFI 2be70 .cfa: sp 96 +
STACK CFI 2be84 .cfa: sp 0 +
STACK CFI 2be88 .cfa: x29 64 +
STACK CFI INIT 2beb8 284 .cfa: sp 0 +
STACK CFI 2bebc .cfa: sp 112 +
STACK CFI 2bed4 .cfa: x29 80 + x19: .cfa -8 + ^ x20: .cfa -16 + ^ x21: .cfa -24 + ^ x22: .cfa -32 + ^ x23: .cfa -40 + ^ x24: .cfa -48 + ^ x25: .cfa -64 + ^ .ra: .cfa -72 + ^ x29: .cfa -80 + ^
STACK CFI 2c0dc .cfa: sp 112 +
STACK CFI 2c0f4 .cfa: sp 0 +
STACK CFI 2c0f8 .cfa: x29 80 +
STACK CFI INIT 2c13c 208 .cfa: sp 0 +
STACK CFI 2c140 .cfa: sp 96 +
STACK CFI 2c154 .cfa: x29 64 + x19: .cfa -8 + ^ x20: .cfa -16 + ^ x21: .cfa -24 + ^ x22: .cfa -32 + ^ x23: .cfa -40 + ^ x24: .cfa -48 + ^ .ra: .cfa -56 + ^ x29: .cfa -64 + ^
STACK CFI 2c2fc .cfa: sp 96 +
STACK CFI 2c310 .cfa: sp 0 +
STACK CFI 2c314 .cfa: x29 64 +
STACK CFI INIT 2c344 360 .cfa: sp 0 +
STACK CFI 2c348 .cfa: sp 160 +
STACK CFI 2c364 .cfa: x29 96 + x19: .cfa -8 + ^ x20: .cfa -16 + ^ x21: .cfa -24 + ^ x22: .cfa -32 + ^ x23: .cfa -40 + ^ x24: .cfa -48 + ^ x25: .cfa -56 + ^ x26: .cfa -64 + ^ x27: .cfa -72 + ^ x28: .cfa -80 + ^ .ra: .cfa -88 + ^ x29: .cfa -96 + ^
STACK CFI 2c630 .cfa: sp 160 +
STACK CFI 2c64c .cfa: sp 0 +
STACK CFI 2c650 .cfa: x29 96 +
STACK CFI INIT 2c6a4 314 .cfa: sp 0 +
STACK CFI 2c6a8 .cfa: sp 144 +
STACK CFI 2c6c4 .cfa: x29 96 + x19: .cfa -8 + ^ x20: .cfa -16 + ^ x21: .cfa -24 + ^ x22: .cfa -32 + ^ x23: .cfa -40 + ^ x24: .cfa -48 + ^ x25: .cfa -56 + ^ x26: .cfa -64 + ^ x27: .cfa -72 + ^ x28: .cfa -80 + ^ .ra: .cfa -88 + ^ x29: .cfa -96 + ^
STACK CFI 2c940 .cfa: sp 144 +
STACK CFI 2c95c .cfa: sp 0 +
STACK CFI 2c960 .cfa: x29 96 +
STACK CFI INIT 2c9b8 290 .cfa: sp 0 +
STACK CFI 2c9bc .cfa: sp 128 +
STACK CFI 2c9d4 .cfa: x29 80 + x19: .cfa -8 + ^ x20: .cfa -16 + ^ x21: .cfa -24 + ^ x22: .cfa -32 + ^ x23: .cfa -40 + ^ x24: .cfa -48 + ^ x25: .cfa -56 + ^ x26: .cfa -64 + ^ .ra: .cfa -72 + ^ x29: .cfa -80 + ^
STACK CFI 2cc28 .cfa: sp 128 +
STACK CFI 2cc40 .cfa: sp 0 +
STACK CFI 2cc44 .cfa: x29 80 +
STACK CFI INIT 2cc48 ddc .cfa: sp 0 +
STACK CFI 2cc4c .cfa: sp 144 +
STACK CFI 2cc68 .cfa: x29 96 + x19: .cfa -8 + ^ x20: .cfa -16 + ^ x21: .cfa -24 + ^ x22: .cfa -32 + ^ x23: .cfa -40 + ^ x24: .cfa -48 + ^ x25: .cfa -56 + ^ x26: .cfa -64 + ^ x27: .cfa -72 + ^ x28: .cfa -80 + ^ .ra: .cfa -88 + ^ x29: .cfa -96 + ^
STACK CFI 2d8fc .cfa: sp 144 +
STACK CFI 2d918 .cfa: sp 0 +
STACK CFI 2d91c .cfa: x29 96 +
STACK CFI INIT 2da24 1d0 .cfa: sp 0 +
STACK CFI 2da28 .cfa: sp 80 +
STACK CFI 2da3c .cfa: x29 80 + x19: .cfa -8 + ^ x20: .cfa -16 + ^ x21: .cfa -24 + ^ x22: .cfa -32 + ^ x23: .cfa -40 + ^ x24: .cfa -48 + ^ x25: .cfa -64 + ^ .ra: .cfa -72 + ^ x29: .cfa -80 + ^
STACK CFI 2dbdc .cfa: sp 80 +
STACK CFI 2dbf0 .cfa: sp 0 +
STACK CFI INIT 2dbf4 23c .cfa: sp 0 +
STACK CFI 2dbf8 .cfa: sp 112 +
STACK CFI 2dc0c .cfa: x29 64 + x19: .cfa -8 + ^ x20: .cfa -16 + ^ x21: .cfa -24 + ^ x22: .cfa -32 + ^ x23: .cfa -40 + ^ x24: .cfa -48 + ^ .ra: .cfa -56 + ^ x29: .cfa -64 + ^
STACK CFI 2dde8 .cfa: sp 112 +
STACK CFI 2ddfc .cfa: sp 0 +
STACK CFI 2de00 .cfa: x29 64 +
STACK CFI INIT 2de30 30c .cfa: sp 0 +
STACK CFI 2de34 .cfa: sp 80 +
STACK CFI 2de48 .cfa: x29 64 + x19: .cfa -8 + ^ x20: .cfa -16 + ^ x21: .cfa -24 + ^ x22: .cfa -32 + ^ x23: .cfa -40 + ^ x24: .cfa -48 + ^ .ra: .cfa -56 + ^ x29: .cfa -64 + ^
STACK CFI 2dfc4 .cfa: sp 80 +
STACK CFI 2dfd8 .cfa: sp 0 +
STACK CFI 2dfdc .cfa: x29 64 +
STACK CFI INIT 2e13c 178 .cfa: sp 0 +
STACK CFI 2e140 .cfa: sp 80 +
STACK CFI 2e154 .cfa: x29 64 + x19: .cfa -8 + ^ x20: .cfa -16 + ^ x21: .cfa -24 + ^ x22: .cfa -32 + ^ x23: .cfa -40 + ^ x24: .cfa -48 + ^ .ra: .cfa -56 + ^ x29: .cfa -64 + ^
STACK CFI 2e298 .cfa: sp 80 +
STACK CFI 2e2ac .cfa: sp 0 +
STACK CFI 2e2b0 .cfa: x29 64 +
STACK CFI INIT 2e2b4 178 .cfa: sp 0 +
STACK CFI 2e2b8 .cfa: sp 80 +
STACK CFI 2e2cc .cfa: x29 64 + x19: .cfa -8 + ^ x20: .cfa -16 + ^ x21: .cfa -24 + ^ x22: .cfa -32 + ^ x23: .cfa -40 + ^ x24: .cfa -48 + ^ .ra: .cfa -56 + ^ x29: .cfa -64 + ^
STACK CFI 2e410 .cfa: sp 80 +
STACK CFI 2e424 .cfa: sp 0 +
STACK CFI 2e428 .cfa: x29 64 +
STACK CFI INIT 2e42c 240 .cfa: sp 0 +
STACK CFI 2e430 .cfa: sp 96 +
STACK CFI 2e448 .cfa: x29 96 + x19: .cfa -8 + ^ x20: .cfa -16 + ^ x21: .cfa -24 + ^ x22: .cfa -32 + ^ x23: .cfa -40 + ^ x24: .cfa -48 + ^ x25: .cfa -56 + ^ x26: .cfa -64 + ^ x27: .cfa -72 + ^ x28: .cfa -80 + ^ .ra: .cfa -88 + ^ x29: .cfa -96 + ^
STACK CFI 2e650 .cfa: sp 96 +
STACK CFI 2e668 .cfa: sp 0 +
STACK CFI INIT 2f2e0 154 .cfa: sp 0 +
STACK CFI 2f2e4 .cfa: sp 96 +
STACK CFI 2f2f8 .cfa: x29 64 + x19: .cfa -8 + ^ x20: .cfa -16 + ^ x21: .cfa -24 + ^ x22: .cfa -32 + ^ x23: .cfa -48 + ^ .ra: .cfa -56 + ^ x29: .cfa -64 + ^
STACK CFI 2f3d8 .cfa: sp 96 +
STACK CFI 2f3ec .cfa: sp 0 +
STACK CFI 2f3f0 .cfa: x29 64 +
STACK CFI INIT 2f6a0 44 .cfa: sp 0 +
STACK CFI 2f6a4 .cfa: sp 32 +
STACK CFI 2f6ac .cfa: x29 32 + x19: .cfa -16 + ^ .ra: .cfa -24 + ^ x29: .cfa -32 + ^
STACK CFI 2f6c8 .cfa: sp 32 +
STACK CFI 2f6d0 .cfa: sp 0 +
STACK CFI 2f6d4 .cfa: x29 32 +
STACK CFI 2f6d8 .cfa: sp 32 +
STACK CFI 2f6e0 .cfa: sp 0 +
STACK CFI INIT 2f6e4 1d0 .cfa: sp 0 +
STACK CFI 2f6e8 .cfa: sp 64 +
STACK CFI 2f6f8 .cfa: x29 64 + x19: .cfa -8 + ^ x20: .cfa -16 + ^ x21: .cfa -24 + ^ x22: .cfa -32 + ^ x23: .cfa -40 + ^ x24: .cfa -48 + ^ .ra: .cfa -56 + ^ x29: .cfa -64 + ^
STACK CFI 2f7b8 .cfa: sp 64 +
STACK CFI 2f7c8 .cfa: sp 0 +
STACK CFI 2f7cc .cfa: x29 64 +
STACK CFI INIT 2f8b4 17c .cfa: sp 0 +
STACK CFI INIT 2fde8 a0 .cfa: sp 0 +
STACK CFI 2fdec .cfa: sp 48 +
STACK CFI 2fdf8 .cfa: x29 48 + x19: .cfa -8 + ^ x20: .cfa -16 + ^ x21: .cfa -24 + ^ x22: .cfa -32 + ^ .ra: .cfa -40 + ^ x29: .cfa -48 + ^
STACK CFI 2fe64 .cfa: sp 48 +
STACK CFI 2fe70 .cfa: sp 0 +
STACK CFI 2fe74 .cfa: sp 48 +
STACK CFI 2fe80 .cfa: sp 0 +
STACK CFI 2fe84 .cfa: x29 48 +
STACK CFI INIT 30b3c 158 .cfa: sp 0 +
STACK CFI 30b40 .cfa: sp 96 +
STACK CFI 30b54 .cfa: x29 64 + x19: .cfa -8 + ^ x20: .cfa -16 + ^ x21: .cfa -24 + ^ x22: .cfa -32 + ^ x23: .cfa -48 + ^ .ra: .cfa -56 + ^ x29: .cfa -64 + ^
STACK CFI 30c38 .cfa: sp 96 +
STACK CFI 30c4c .cfa: sp 0 +
STACK CFI 30c50 .cfa: x29 64 +
STACK CFI INIT 30c94 190 .cfa: sp 0 +
STACK CFI INIT 31920 1dc .cfa: sp 0 +
STACK CFI 31924 .cfa: sp 80 +
STACK CFI 31938 .cfa: x29 80 + x19: .cfa -8 + ^ x20: .cfa -16 + ^ x21: .cfa -24 + ^ x22: .cfa -32 + ^ x23: .cfa -40 + ^ x24: .cfa -48 + ^ x25: .cfa -64 + ^ .ra: .cfa -72 + ^ x29: .cfa -80 + ^
STACK CFI 31ae4 .cfa: sp 80 +
STACK CFI 31af8 .cfa: sp 0 +
STACK CFI INIT 32f2c 124 .cfa: sp 0 +
STACK CFI 32f5c .cfa: sp 32 +
STACK CFI 32f64 .cfa: x29 32 + x19: .cfa -8 + ^ x20: .cfa -16 + ^ .ra: .cfa -24 + ^ x29: .cfa -32 + ^
STACK CFI 33044 .cfa: sp 32 +
STACK CFI 3304c .cfa: sp 0 +
STACK CFI INIT 337ac 320 .cfa: sp 0 +
STACK CFI 337b0 .cfa: sp 64 +
STACK CFI 337c0 .cfa: x29 64 + x19: .cfa -8 + ^ x20: .cfa -16 + ^ x21: .cfa -24 + ^ x22: .cfa -32 + ^ x23: .cfa -40 + ^ x24: .cfa -48 + ^ .ra: .cfa -56 + ^ x29: .cfa -64 + ^
STACK CFI 3383c .cfa: sp 64 +
STACK CFI 3384c .cfa: sp 0 +
STACK CFI 33850 .cfa: x29 64 +
STACK CFI 33a24 .cfa: sp 64 +
STACK CFI 33a34 .cfa: sp 0 +
STACK CFI 33a38 .cfa: x29 64 +
STACK CFI 33a48 .cfa: sp 64 +
STACK CFI 33a58 .cfa: sp 0 +
STACK CFI 33a5c .cfa: x29 64 +
STACK CFI INIT 33acc a0 .cfa: sp 0 +
STACK CFI 33ad0 .cfa: sp 48 +
STACK CFI 33adc .cfa: x29 48 + x19: .cfa -8 + ^ x20: .cfa -16 + ^ x21: .cfa -24 + ^ x22: .cfa -32 + ^ .ra: .cfa -40 + ^ x29: .cfa -48 + ^
STACK CFI 33b48 .cfa: sp 48 +
STACK CFI 33b54 .cfa: sp 0 +
STACK CFI 33b58 .cfa: sp 48 +
STACK CFI 33b64 .cfa: sp 0 +
STACK CFI 33b68 .cfa: x29 48 +
STACK CFI INIT 34a1c 160 .cfa: sp 0 +
STACK CFI 34a20 .cfa: sp 64 +
STACK CFI 34a30 .cfa: x29 64 + x19: .cfa -8 + ^ x20: .cfa -16 + ^ x21: .cfa -24 + ^ x22: .cfa -32 + ^ x23: .cfa -48 + ^ .ra: .cfa -56 + ^ x29: .cfa -64 + ^
STACK CFI 34b28 .cfa: sp 64 +
STACK CFI 34b38 .cfa: sp 0 +
STACK CFI 34b3c .cfa: x29 64 +
STACK CFI INIT 34b7c 214 .cfa: sp 0 +
STACK CFI 34b80 .cfa: sp 128 +
STACK CFI 34b9c .cfa: x29 96 + x19: .cfa -8 + ^ x20: .cfa -16 + ^ x21: .cfa -24 + ^ x22: .cfa -32 + ^ x23: .cfa -40 + ^ x24: .cfa -48 + ^ x25: .cfa -56 + ^ x26: .cfa -64 + ^ x27: .cfa -80 + ^ .ra: .cfa -88 + ^ x29: .cfa -96 + ^
STACK CFI 34d18 .cfa: sp 128 +
STACK CFI 34d34 .cfa: sp 0 +
STACK CFI 34d38 .cfa: x29 96 +
STACK CFI INIT 36a2c 290 .cfa: sp 0 +
STACK CFI 36a30 .cfa: sp 16 +
STACK CFI 36a34 .cfa: x29 16 + .ra: .cfa -8 + ^ x29: .cfa -16 + ^
STACK CFI 36ac0 .cfa: sp 16 +
STACK CFI 36ac4 .cfa: sp 0 +
STACK CFI 36ac8 .cfa: x29 16 +
STACK CFI 36b18 .cfa: sp 16 +
STACK CFI 36b1c .cfa: sp 0 +
STACK CFI 36b20 .cfa: x29 16 +
STACK CFI 36c84 .cfa: sp 16 +
STACK CFI 36c88 .cfa: sp 0 +
STACK CFI 36c8c .cfa: x29 16 +
STACK CFI INIT 36cbc 158 .cfa: sp 0 +
STACK CFI 36cc0 .cfa: sp 112 +
STACK CFI 36cdc .cfa: x29 96 + x19: .cfa -8 + ^ x20: .cfa -16 + ^ x21: .cfa -24 + ^ x22: .cfa -32 + ^ x23: .cfa -40 + ^ x24: .cfa -48 + ^ x25: .cfa -56 + ^ x26: .cfa -64 + ^ x27: .cfa -72 + ^ x28: .cfa -80 + ^ .ra: .cfa -88 + ^ x29: .cfa -96 + ^
STACK CFI 36dc4 .cfa: sp 112 +
STACK CFI 36dc8 .cfa: x29 96 +
STACK CFI 36dd0 .cfa: sp 112 +
STACK CFI 36dec .cfa: sp 0 +
STACK CFI 36df0 .cfa: x29 96 +
STACK CFI 36e10 .cfa: sp 112 +
STACK CFI INIT 36e14 e54 .cfa: sp 0 +
STACK CFI 36e18 .cfa: sp 192 +
STACK CFI 36e34 .cfa: x29 96 + x19: .cfa -8 + ^ x20: .cfa -16 + ^ x21: .cfa -24 + ^ x22: .cfa -32 + ^ x23: .cfa -40 + ^ x24: .cfa -48 + ^ x25: .cfa -56 + ^ x26: .cfa -64 + ^ x27: .cfa -72 + ^ x28: .cfa -80 + ^ .ra: .cfa -88 + ^ x29: .cfa -96 + ^
STACK CFI 37b50 .cfa: sp 192 +
STACK CFI 37b6c .cfa: sp 0 +
STACK CFI 37b70 .cfa: x29 96 +
STACK CFI INIT 37c68 1068 .cfa: sp 0 +
STACK CFI 37c6c .cfa: sp 288 +
STACK CFI 37c88 .cfa: x29 96 + x19: .cfa -8 + ^ x20: .cfa -16 + ^ x21: .cfa -24 + ^ x22: .cfa -32 + ^ x23: .cfa -40 + ^ x24: .cfa -48 + ^ x25: .cfa -56 + ^ x26: .cfa -64 + ^ x27: .cfa -72 + ^ x28: .cfa -80 + ^ .ra: .cfa -88 + ^ x29: .cfa -96 + ^
STACK CFI 38a18 .cfa: sp 288 +
STACK CFI 38a34 .cfa: sp 0 +
STACK CFI 38a38 .cfa: x29 96 +
STACK CFI INIT 38cd0 520 .cfa: sp 0 +
STACK CFI 38cd4 .cfa: sp 144 +
STACK CFI 38cf0 .cfa: x29 96 + x19: .cfa -8 + ^ x20: .cfa -16 + ^ x21: .cfa -24 + ^ x22: .cfa -32 + ^ x23: .cfa -40 + ^ x24: .cfa -48 + ^ x25: .cfa -56 + ^ x26: .cfa -64 + ^ x27: .cfa -72 + ^ x28: .cfa -80 + ^ .ra: .cfa -88 + ^ x29: .cfa -96 + ^
STACK CFI 391cc .cfa: sp 144 +
STACK CFI 391e8 .cfa: sp 0 +
STACK CFI 391ec .cfa: x29 96 +
STACK CFI INIT 39b90 136c .cfa: sp 0 +
STACK CFI 39b94 .cfa: sp 224 +
STACK CFI 39bb0 .cfa: x29 96 + x19: .cfa -8 + ^ x20: .cfa -16 + ^ x21: .cfa -24 + ^ x22: .cfa -32 + ^ x23: .cfa -40 + ^ x24: .cfa -48 + ^ x25: .cfa -56 + ^ x26: .cfa -64 + ^ x27: .cfa -72 + ^ x28: .cfa -80 + ^ .ra: .cfa -88 + ^ x29: .cfa -96 + ^
STACK CFI 3aed8 .cfa: sp 224 +
STACK CFI 3aef4 .cfa: sp 0 +
STACK CFI 3aef8 .cfa: x29 96 +
STACK CFI INIT 3aefc 1b8 .cfa: sp 0 +
STACK CFI INIT 1e194 31c .cfa: sp 0 +
STACK CFI 1e198 .cfa: sp 128 +
STACK CFI 1e1b0 .cfa: x29 80 + x19: .cfa -8 + ^ x20: .cfa -16 + ^ x21: .cfa -24 + ^ x22: .cfa -32 + ^ x23: .cfa -40 + ^ x24: .cfa -48 + ^ x25: .cfa -64 + ^ .ra: .cfa -72 + ^ x29: .cfa -80 + ^
STACK CFI 1e420 .cfa: sp 128 +
STACK CFI 1e438 .cfa: sp 0 +
STACK CFI 1e43c .cfa: x29 80 +
STACK CFI INIT 1e4b0 44 .cfa: sp 0 +
STACK CFI 1e4b4 .cfa: sp 32 +
STACK CFI 1e4bc .cfa: x29 32 + x19: .cfa -16 + ^ .ra: .cfa -24 + ^ x29: .cfa -32 + ^
STACK CFI 1e4d4 .cfa: sp 32 +
STACK CFI 1e4dc .cfa: sp 0 +
STACK CFI 1e4e0 .cfa: x29 32 +
STACK CFI 1e4e4 .cfa: sp 32 +
STACK CFI 1e4ec .cfa: sp 0 +
STACK CFI 1e4f0 .cfa: x29 32 +
STACK CFI INIT 1e4f4 164 .cfa: sp 0 +
STACK CFI 1e4f8 .cfa: sp 48 +
STACK CFI 1e504 .cfa: x29 48 + x19: .cfa -8 + ^ x20: .cfa -16 + ^ x21: .cfa -24 + ^ x22: .cfa -32 + ^ .ra: .cfa -40 + ^ x29: .cfa -48 + ^
STACK CFI 1e62c .cfa: sp 48 +
STACK CFI 1e638 .cfa: sp 0 +
STACK CFI 1e63c .cfa: x29 48 +
STACK CFI 1e644 .cfa: sp 48 +
STACK CFI 1e650 .cfa: sp 0 +
STACK CFI 1e654 .cfa: x29 48 +
STACK CFI INIT 1e67c 50 .cfa: sp 0 +
STACK CFI 1e680 .cfa: sp 32 +
STACK CFI 1e688 .cfa: x29 32 + x19: .cfa -8 + ^ x20: .cfa -16 + ^ .ra: .cfa -24 + ^ x29: .cfa -32 + ^
STACK CFI INIT 1eef0 5f4 .cfa: sp 0 +
STACK CFI 1eef4 .cfa: sp 128 +
STACK CFI 1ef0c .cfa: x29 80 + x19: .cfa -8 + ^ x20: .cfa -16 + ^ x21: .cfa -24 + ^ x22: .cfa -32 + ^ x23: .cfa -40 + ^ x24: .cfa -48 + ^ x25: .cfa -56 + ^ x26: .cfa -64 + ^ .ra: .cfa -72 + ^ x29: .cfa -80 + ^
STACK CFI 1f480 .cfa: sp 128 +
STACK CFI 1f498 .cfa: sp 0 +
STACK CFI 1f49c .cfa: x29 80 +
STACK CFI INIT 1f4e4 134 .cfa: sp 0 +
STACK CFI 1f4e8 .cfa: sp 80 +
STACK CFI 1f4f8 .cfa: x29 48 + x19: .cfa -8 + ^ x20: .cfa -16 + ^ x21: .cfa -24 + ^ x22: .cfa -32 + ^ .ra: .cfa -40 + ^ x29: .cfa -48 + ^
STACK CFI 1f5fc .cfa: sp 80 +
STACK CFI 1f60c .cfa: sp 0 +
STACK CFI 1f610 .cfa: x29 48 +
STACK CFI INIT 1f618 528 .cfa: sp 0 +
STACK CFI 1f61c .cfa: sp 96 +
STACK CFI 1f634 .cfa: x29 96 + x19: .cfa -8 + ^ x20: .cfa -16 + ^ x21: .cfa -24 + ^ x22: .cfa -32 + ^ x23: .cfa -40 + ^ x24: .cfa -48 + ^ x25: .cfa -56 + ^ x26: .cfa -64 + ^ x27: .cfa -72 + ^ x28: .cfa -80 + ^ .ra: .cfa -88 + ^ x29: .cfa -96 + ^
STACK CFI 1f9a8 .cfa: sp 96 +
STACK CFI 1f9c0 .cfa: sp 0 +
STACK CFI 1f9c4 .cfa: x29 96 +
STACK CFI INIT 1fb40 328 .cfa: sp 0 +
STACK CFI 1fb44 .cfa: sp 96 +
STACK CFI 1fb5c .cfa: x29 80 + x19: .cfa -8 + ^ x20: .cfa -16 + ^ x21: .cfa -24 + ^ x22: .cfa -32 + ^ x23: .cfa -40 + ^ x24: .cfa -48 + ^ x25: .cfa -56 + ^ x28: .cfa -64 + ^ .ra: .cfa -72 + ^ x29: .cfa -80 + ^ v8: .cfa -88 + ^ v9: .cfa -96 + ^
STACK CFI 1fdc0 .cfa: sp 96 +
STACK CFI 1fdd8 .cfa: sp 0 +
STACK CFI 1fddc .cfa: x29 80 +
STACK CFI INIT 1fef0 1bc .cfa: sp 0 +
STACK CFI 1fef4 .cfa: sp 96 +
STACK CFI 1ff08 .cfa: x29 64 + x19: .cfa -8 + ^ x20: .cfa -16 + ^ x21: .cfa -24 + ^ x22: .cfa -32 + ^ x23: .cfa -48 + ^ .ra: .cfa -56 + ^ x29: .cfa -64 + ^
STACK CFI 20058 .cfa: sp 96 +
STACK CFI 2006c .cfa: sp 0 +
STACK CFI 20070 .cfa: x29 64 +
STACK CFI INIT 200b4 b8 .cfa: sp 0 +
STACK CFI 200b8 .cfa: sp 32 +
STACK CFI 200c0 .cfa: x29 32 + x19: .cfa -16 + ^ .ra: .cfa -24 + ^ x29: .cfa -32 + ^
STACK CFI 2015c .cfa: sp 32 +
STACK CFI 20164 .cfa: sp 0 +
STACK CFI 20168 .cfa: x29 32 +
STACK CFI INIT 2016c c0 .cfa: sp 0 +
STACK CFI 20170 .cfa: sp 32 +
STACK CFI 20178 .cfa: x29 32 + x19: .cfa -16 + ^ .ra: .cfa -24 + ^ x29: .cfa -32 + ^
STACK CFI 2021c .cfa: sp 32 +
STACK CFI 20224 .cfa: sp 0 +
STACK CFI 20228 .cfa: x29 32 +
STACK CFI INIT 2028c bc .cfa: sp 0 +
STACK CFI 20290 .cfa: sp 32 +
STACK CFI 20298 .cfa: x29 32 + x19: .cfa -8 + ^ x20: .cfa -16 + ^ .ra: .cfa -24 + ^ x29: .cfa -32 + ^
STACK CFI 20338 .cfa: sp 32 +
STACK CFI 20340 .cfa: sp 0 +
STACK CFI 20344 .cfa: x29 32 +
STACK CFI INIT 20348 c4 .cfa: sp 0 +
STACK CFI 2034c .cfa: sp 32 +
STACK CFI 20354 .cfa: x29 32 + x19: .cfa -8 + ^ x20: .cfa -16 + ^ .ra: .cfa -24 + ^ x29: .cfa -32 + ^
STACK CFI 203fc .cfa: sp 32 +
STACK CFI 20404 .cfa: sp 0 +
STACK CFI 20408 .cfa: x29 32 +
STACK CFI INIT 20610 6c .cfa: sp 0 +
STACK CFI 20614 .cfa: sp 32 +
STACK CFI 2061c .cfa: x29 32 + x19: .cfa -16 + ^ .ra: .cfa -24 + ^ x29: .cfa -32 + ^
STACK CFI 2066c .cfa: sp 32 +
STACK CFI 20674 .cfa: sp 0 +
STACK CFI 20678 .cfa: x29 32 +
STACK CFI INIT 20680 148 .cfa: sp 0 +
STACK CFI 20684 .cfa: sp 96 +
STACK CFI 20694 .cfa: x29 48 + x19: .cfa -8 + ^ x20: .cfa -16 + ^ x21: .cfa -32 + ^ .ra: .cfa -40 + ^ x29: .cfa -48 + ^
STACK CFI 2077c .cfa: sp 96 +
STACK CFI 2078c .cfa: sp 0 +
STACK CFI 20790 .cfa: x29 48 +
STACK CFI INIT 207c8 6c .cfa: sp 0 +
STACK CFI 207cc .cfa: sp 32 +
STACK CFI 207d4 .cfa: x29 32 + x19: .cfa -16 + ^ .ra: .cfa -24 + ^ x29: .cfa -32 + ^
STACK CFI 20824 .cfa: sp 32 +
STACK CFI 2082c .cfa: sp 0 +
STACK CFI 20830 .cfa: x29 32 +
STACK CFI INIT 20a54 1c .cfa: sp 0 +
STACK CFI 20a58 .cfa: sp 16 +
STACK CFI 20a5c .cfa: x29 16 + .ra: .cfa -8 + ^ x29: .cfa -16 + ^
STACK CFI 20a64 .cfa: sp 16 +
STACK CFI 20a68 .cfa: sp 0 +
STACK CFI 20a6c .cfa: x29 16 +
STACK CFI INIT 20a70 160 .cfa: sp 0 +
STACK CFI 20a74 .cfa: sp 128 +
STACK CFI 20a80 .cfa: x29 32 + x19: .cfa -8 + ^ x20: .cfa -16 + ^ .ra: .cfa -24 + ^ x29: .cfa -32 + ^
STACK CFI 20b4c .cfa: sp 128 +
STACK CFI 20b58 .cfa: sp 0 +
STACK CFI 20b5c .cfa: x29 32 +
STACK CFI INIT 20c14 f00 .cfa: sp 0 +
STACK CFI 20c18 .cfa: sp 96 +
STACK CFI 20c34 .cfa: x29 88 + x19: .cfa -8 + ^ x20: .cfa -16 + ^ x21: .cfa -24 + ^ x22: .cfa -32 + ^ x23: .cfa -40 + ^ x24: .cfa -48 + ^ x25: .cfa -56 + ^ x26: .cfa -64 + ^ x28: .cfa -72 + ^ .ra: .cfa -80 + ^ x29: .cfa -88 + ^ v8: .cfa -96 + ^
STACK CFI 21884 .cfa: sp 96 +
STACK CFI 218a0 .cfa: sp 0 +
STACK CFI 218a4 .cfa: x29 88 +
STACK CFI INIT 21b3c 680 .cfa: sp 0 +
STACK CFI 21b40 .cfa: sp 224 +
STACK CFI 21b5c .cfa: x29 96 + x19: .cfa -8 + ^ x20: .cfa -16 + ^ x21: .cfa -24 + ^ x22: .cfa -32 + ^ x23: .cfa -40 + ^ x24: .cfa -48 + ^ x25: .cfa -56 + ^ x26: .cfa -64 + ^ x27: .cfa -72 + ^ x28: .cfa -80 + ^ .ra: .cfa -88 + ^ x29: .cfa -96 + ^
STACK CFI 22048 .cfa: sp 224 +
STACK CFI 22064 .cfa: sp 0 +
STACK CFI 22068 .cfa: x29 96 +
STACK CFI INIT 221bc 100 .cfa: sp 0 +
STACK CFI 221c0 .cfa: sp 80 +
STACK CFI 221d0 .cfa: x29 48 + x19: .cfa -8 + ^ x20: .cfa -16 + ^ x21: .cfa -32 + ^ .ra: .cfa -40 + ^ x29: .cfa -48 + ^
STACK CFI 22278 .cfa: sp 80 +
STACK CFI 22288 .cfa: sp 0 +
STACK CFI 2228c .cfa: x29 48 +
STACK CFI INIT 22338 23c .cfa: sp 0 +
STACK CFI 2233c .cfa: sp 144 +
STACK CFI 22358 .cfa: x29 96 + x19: .cfa -8 + ^ x20: .cfa -16 + ^ x21: .cfa -24 + ^ x22: .cfa -32 + ^ x23: .cfa -40 + ^ x24: .cfa -48 + ^ x25: .cfa -56 + ^ x26: .cfa -64 + ^ x27: .cfa -72 + ^ x28: .cfa -80 + ^ .ra: .cfa -88 + ^ x29: .cfa -96 + ^
STACK CFI 22524 .cfa: sp 144 +
STACK CFI 22540 .cfa: sp 0 +
STACK CFI 22544 .cfa: x29 96 +
STACK CFI INIT 226d0 50 .cfa: sp 0 +
STACK CFI 226d4 .cfa: sp 32 +
STACK CFI 226dc .cfa: x29 32 + x19: .cfa -16 + ^ .ra: .cfa -24 + ^ x29: .cfa -32 + ^
STACK CFI 22710 .cfa: sp 32 +
STACK CFI 22718 .cfa: sp 0 +
STACK CFI 2271c .cfa: x29 32 +
STACK CFI INIT 22754 50 .cfa: sp 0 +
STACK CFI 22758 .cfa: sp 32 +
STACK CFI 22760 .cfa: x29 32 + x19: .cfa -8 + ^ x20: .cfa -16 + ^ .ra: .cfa -24 + ^ x29: .cfa -32 + ^
STACK CFI INIT 227e0 50 .cfa: sp 0 +
STACK CFI 227e4 .cfa: sp 32 +
STACK CFI 227ec .cfa: x29 32 + x19: .cfa -16 + ^ .ra: .cfa -24 + ^ x29: .cfa -32 + ^
STACK CFI 22814 .cfa: sp 32 +
STACK CFI 2281c .cfa: sp 0 +
STACK CFI 22820 .cfa: sp 32 +
STACK CFI 22828 .cfa: sp 0 +
STACK CFI 2282c .cfa: x29 32 +
STACK CFI INIT 22830 50 .cfa: sp 0 +
STACK CFI 22834 .cfa: sp 32 +
STACK CFI 2283c .cfa: x29 32 + x19: .cfa -16 + ^ .ra: .cfa -24 + ^ x29: .cfa -32 + ^
STACK CFI 22864 .cfa: sp 32 +
STACK CFI 2286c .cfa: sp 0 +
STACK CFI 22870 .cfa: sp 32 +
STACK CFI 22878 .cfa: sp 0 +
STACK CFI 2287c .cfa: x29 32 +
STACK CFI INIT 22a48 1cc .cfa: sp 0 +
STACK CFI 22a4c .cfa: sp 128 +
STACK CFI 22a5c .cfa: x29 48 + x19: .cfa -8 + ^ x20: .cfa -16 + ^ x21: .cfa -32 + ^ .ra: .cfa -40 + ^ x29: .cfa -48 + ^
STACK CFI 22b98 .cfa: sp 128 +
STACK CFI 22ba8 .cfa: sp 0 +
STACK CFI 22bac .cfa: x29 48 +
STACK CFI INIT 22da8 2a4 .cfa: sp 0 +
STACK CFI 22dac .cfa: sp 128 +
STACK CFI 22dc8 .cfa: x29 96 + x19: .cfa -8 + ^ x20: .cfa -16 + ^ x21: .cfa -24 + ^ x22: .cfa -32 + ^ x23: .cfa -40 + ^ x24: .cfa -48 + ^ x25: .cfa -56 + ^ x26: .cfa -64 + ^ x27: .cfa -72 + ^ x28: .cfa -80 + ^ .ra: .cfa -88 + ^ x29: .cfa -96 + ^
STACK CFI 22f68 .cfa: sp 128 +
STACK CFI 22f84 .cfa: sp 0 +
STACK CFI 22f88 .cfa: x29 96 +
STACK CFI INIT 2304c 204 .cfa: sp 0 +
STACK CFI 23050 .cfa: sp 128 +
STACK CFI 23064 .cfa: x29 64 + x19: .cfa -8 + ^ x20: .cfa -16 + ^ x21: .cfa -24 + ^ x22: .cfa -32 + ^ x23: .cfa -40 + ^ x24: .cfa -48 + ^ .ra: .cfa -56 + ^ x29: .cfa -64 + ^
STACK CFI 23188 .cfa: sp 128 +
STACK CFI 2319c .cfa: sp 0 +
STACK CFI 231a0 .cfa: x29 64 +
STACK CFI INIT 2350c 1d0 .cfa: sp 0 +
STACK CFI 23510 .cfa: sp 128 +
STACK CFI 23524 .cfa: x29 64 + x19: .cfa -8 + ^ x20: .cfa -16 + ^ x21: .cfa -24 + ^ x22: .cfa -32 + ^ x23: .cfa -48 + ^ .ra: .cfa -56 + ^ x29: .cfa -64 + ^
STACK CFI 2369c .cfa: sp 128 +
STACK CFI 236b0 .cfa: sp 0 +
STACK CFI 236b4 .cfa: x29 64 +
STACK CFI INIT 239f0 1c4 .cfa: sp 0 +
STACK CFI 239f4 .cfa: sp 112 +
STACK CFI 23a04 .cfa: x29 48 + x19: .cfa -8 + ^ x20: .cfa -16 + ^ x21: .cfa -24 + ^ x22: .cfa -32 + ^ .ra: .cfa -40 + ^ x29: .cfa -48 + ^
STACK CFI 23b78 .cfa: sp 112 +
STACK CFI 23b88 .cfa: sp 0 +
STACK CFI 23b8c .cfa: x29 48 +
STACK CFI INIT 23e6c 198 .cfa: sp 0 +
STACK CFI 23e70 .cfa: sp 96 +
STACK CFI 23e80 .cfa: x29 48 + x19: .cfa -8 + ^ x20: .cfa -16 + ^ x21: .cfa -32 + ^ .ra: .cfa -40 + ^ x29: .cfa -48 + ^
STACK CFI 23f5c .cfa: sp 96 +
STACK CFI 23f6c .cfa: sp 0 +
STACK CFI 23f70 .cfa: x29 48 +
STACK CFI INIT 240ac 9c .cfa: sp 0 +
STACK CFI 240b0 .cfa: sp 32 +
STACK CFI 240b8 .cfa: x29 32 + x19: .cfa -8 + ^ x20: .cfa -16 + ^ .ra: .cfa -24 + ^ x29: .cfa -32 + ^
STACK CFI 24104 .cfa: sp 32 +
STACK CFI 2410c .cfa: sp 0 +
STACK CFI 24110 .cfa: x29 32 +
STACK CFI 24128 .cfa: sp 32 +
STACK CFI 24130 .cfa: sp 0 +
STACK CFI 24134 .cfa: x29 32 +
STACK CFI INIT 2437c 8c .cfa: sp 0 +
STACK CFI 24380 .cfa: sp 32 +
STACK CFI 24388 .cfa: x29 32 + x19: .cfa -8 + ^ x20: .cfa -16 + ^ .ra: .cfa -24 + ^ x29: .cfa -32 + ^
STACK CFI 243cc .cfa: sp 32 +
STACK CFI 243d4 .cfa: sp 0 +
STACK CFI 243d8 .cfa: x29 32 +
STACK CFI 243e8 .cfa: sp 32 +
STACK CFI 243f0 .cfa: sp 0 +
STACK CFI 243f4 .cfa: x29 32 +
STACK CFI INIT 24494 858 .cfa: sp 0 +
STACK CFI 24498 .cfa: sp 96 +
STACK CFI 244b0 .cfa: x29 96 + x19: .cfa -8 + ^ x20: .cfa -16 + ^ x21: .cfa -24 + ^ x22: .cfa -32 + ^ x23: .cfa -40 + ^ x24: .cfa -48 + ^ x25: .cfa -56 + ^ x26: .cfa -64 + ^ x27: .cfa -72 + ^ x28: .cfa -80 + ^ .ra: .cfa -88 + ^ x29: .cfa -96 + ^
STACK CFI 24b10 .cfa: sp 96 +
STACK CFI 24b28 .cfa: sp 0 +
STACK CFI 24b2c .cfa: x29 96 +
STACK CFI INIT 24d14 544 .cfa: sp 0 +
STACK CFI 24d18 .cfa: sp 128 +
STACK CFI 24d38 .cfa: x29 96 + x19: .cfa -8 + ^ x20: .cfa -16 + ^ x21: .cfa -24 + ^ x22: .cfa -32 + ^ x23: .cfa -40 + ^ x24: .cfa -48 + ^ x25: .cfa -56 + ^ x26: .cfa -64 + ^ x27: .cfa -72 + ^ x28: .cfa -80 + ^ .ra: .cfa -88 + ^ x29: .cfa -96 + ^ v8: .cfa -104 + ^ v9: .cfa -112 + ^ v10: .cfa -128 + ^
STACK CFI 251ec .cfa: sp 128 +
STACK CFI 2520c .cfa: sp 0 +
STACK CFI 25210 .cfa: x29 96 +
STACK CFI INIT 255ac 90 .cfa: sp 0 +
STACK CFI 255b0 .cfa: sp 32 +
STACK CFI 255b8 .cfa: x29 32 + x19: .cfa -8 + ^ x20: .cfa -16 + ^ .ra: .cfa -24 + ^ x29: .cfa -32 + ^
STACK CFI 25600 .cfa: sp 32 +
STACK CFI 25608 .cfa: sp 0 +
STACK CFI 2560c .cfa: x29 32 +
STACK CFI 2561c .cfa: sp 32 +
STACK CFI 25624 .cfa: sp 0 +
STACK CFI 25628 .cfa: x29 32 +
STACK CFI INIT 256d0 2ac .cfa: sp 0 +
STACK CFI 256d4 .cfa: sp 192 +
STACK CFI 256e8 .cfa: x29 64 + x19: .cfa -8 + ^ x20: .cfa -16 + ^ x21: .cfa -24 + ^ x22: .cfa -32 + ^ x23: .cfa -48 + ^ .ra: .cfa -56 + ^ x29: .cfa -64 + ^
STACK CFI 25864 .cfa: sp 192 +
STACK CFI 25878 .cfa: sp 0 +
STACK CFI 2587c .cfa: x29 64 +
STACK CFI INIT 259fc 280 .cfa: sp 0 +
STACK CFI 25a00 .cfa: sp 176 +
STACK CFI 25a10 .cfa: x29 48 + x19: .cfa -8 + ^ x20: .cfa -16 + ^ x21: .cfa -24 + ^ x22: .cfa -32 + ^ .ra: .cfa -40 + ^ x29: .cfa -48 + ^
STACK CFI 25ba0 .cfa: sp 176 +
STACK CFI 25bb0 .cfa: sp 0 +
STACK CFI 25bb4 .cfa: x29 48 +
STACK CFI INIT 25d88 94 .cfa: sp 0 +
STACK CFI 25d8c .cfa: sp 32 +
STACK CFI 25d94 .cfa: x29 32 + x19: .cfa -8 + ^ x20: .cfa -16 + ^ .ra: .cfa -24 + ^ x29: .cfa -32 + ^
STACK CFI 25de0 .cfa: sp 32 +
STACK CFI 25de8 .cfa: sp 0 +
STACK CFI 25dec .cfa: x29 32 +
STACK CFI 25dfc .cfa: sp 32 +
STACK CFI 25e04 .cfa: sp 0 +
STACK CFI 25e08 .cfa: x29 32 +
STACK CFI INIT 25eb0 22c .cfa: sp 0 +
STACK CFI 25eb4 .cfa: sp 96 +
STACK CFI 25ecc .cfa: x29 96 + x19: .cfa -8 + ^ x20: .cfa -16 + ^ x21: .cfa -24 + ^ x22: .cfa -32 + ^ x23: .cfa -40 + ^ x24: .cfa -48 + ^ x25: .cfa -56 + ^ x26: .cfa -64 + ^ x27: .cfa -72 + ^ x28: .cfa -80 + ^ .ra: .cfa -88 + ^ x29: .cfa -96 + ^
STACK CFI 26028 .cfa: sp 96 +
STACK CFI 26040 .cfa: sp 0 +
STACK CFI 26044 .cfa: x29 96 +
STACK CFI INIT 2618c 134 .cfa: sp 0 +
STACK CFI 26190 .cfa: sp 80 +
STACK CFI 2619c .cfa: x29 32 + x19: .cfa -8 + ^ x20: .cfa -16 + ^ .ra: .cfa -24 + ^ x29: .cfa -32 + ^
STACK CFI 261cc .cfa: sp 80 +
STACK CFI 261d8 .cfa: sp 0 +
STACK CFI 261dc .cfa: x29 32 +
STACK CFI INIT 262c0 78 .cfa: sp 0 +
STACK CFI 262c4 .cfa: sp 32 +
STACK CFI 262cc .cfa: x29 32 + x19: .cfa -8 + ^ x20: .cfa -16 + ^ .ra: .cfa -24 + ^ x29: .cfa -32 + ^
STACK CFI 262d8 .cfa: sp 32 +
STACK CFI 262e0 .cfa: sp 0 +
STACK CFI 262e4 .cfa: x29 32 +
STACK CFI INIT 26338 74 .cfa: sp 0 +
STACK CFI 2633c .cfa: sp 48 +
STACK CFI 26348 .cfa: x29 32 + x19: .cfa -8 + ^ x20: .cfa -16 + ^ .ra: .cfa -24 + ^ x29: .cfa -32 + ^
STACK CFI 26394 .cfa: sp 48 +
STACK CFI 263a0 .cfa: sp 0 +
STACK CFI 263a4 .cfa: x29 32 +
STACK CFI INIT 264fc 300 .cfa: sp 0 +
STACK CFI 26500 .cfa: sp 144 +
STACK CFI 26514 .cfa: x29 64 + x19: .cfa -8 + ^ x20: .cfa -16 + ^ x21: .cfa -24 + ^ x22: .cfa -32 + ^ x23: .cfa -48 + ^ .ra: .cfa -56 + ^ x29: .cfa -64 + ^
STACK CFI 266a8 .cfa: sp 144 +
STACK CFI 266bc .cfa: sp 0 +
STACK CFI 266c0 .cfa: x29 64 +
STACK CFI INIT 26850 264 .cfa: sp 0 +
STACK CFI 26854 .cfa: sp 128 +
STACK CFI 26864 .cfa: x29 48 + x19: .cfa -8 + ^ x20: .cfa -16 + ^ x21: .cfa -32 + ^ .ra: .cfa -40 + ^ x29: .cfa -48 + ^
STACK CFI 2695c .cfa: sp 128 +
STACK CFI 2696c .cfa: sp 0 +
STACK CFI 26970 .cfa: x29 48 +
STACK CFI INIT 26b08 270 .cfa: sp 0 +
STACK CFI 26b0c .cfa: sp 144 +
STACK CFI 26b20 .cfa: x29 64 + x19: .cfa -8 + ^ x20: .cfa -16 + ^ x21: .cfa -24 + ^ x22: .cfa -32 + ^ x23: .cfa -48 + ^ .ra: .cfa -56 + ^ x29: .cfa -64 + ^
STACK CFI 26c24 .cfa: sp 144 +
STACK CFI 26c38 .cfa: sp 0 +
STACK CFI 26c3c .cfa: x29 64 +
STACK CFI INIT 26d9c 22c .cfa: sp 0 +
STACK CFI 26da0 .cfa: sp 128 +
STACK CFI 26db0 .cfa: x29 48 + x19: .cfa -8 + ^ x20: .cfa -16 + ^ x21: .cfa -32 + ^ .ra: .cfa -40 + ^ x29: .cfa -48 + ^
STACK CFI 26e68 .cfa: sp 128 +
STACK CFI 26e78 .cfa: sp 0 +
STACK CFI 26e7c .cfa: x29 48 +
STACK CFI INIT 26fc8 224 .cfa: sp 0 +
STACK CFI 26fcc .cfa: sp 128 +
STACK CFI 26fdc .cfa: x29 48 + x19: .cfa -8 + ^ x20: .cfa -16 + ^ x21: .cfa -32 + ^ .ra: .cfa -40 + ^ x29: .cfa -48 + ^
STACK CFI 2708c .cfa: sp 128 +
STACK CFI 2709c .cfa: sp 0 +
STACK CFI 270a0 .cfa: x29 48 +
STACK CFI INIT 271ec 268 .cfa: sp 0 +
STACK CFI 271f0 .cfa: sp 144 +
STACK CFI 27204 .cfa: x29 64 + x19: .cfa -8 + ^ x20: .cfa -16 + ^ x21: .cfa -24 + ^ x22: .cfa -32 + ^ x23: .cfa -48 + ^ .ra: .cfa -56 + ^ x29: .cfa -64 + ^
STACK CFI 27300 .cfa: sp 144 +
STACK CFI 27314 .cfa: sp 0 +
STACK CFI 27318 .cfa: x29 64 +
STACK CFI INIT 274d0 2e4 .cfa: sp 0 +
STACK CFI 274d4 .cfa: sp 144 +
STACK CFI 274e8 .cfa: x29 64 + x19: .cfa -8 + ^ x20: .cfa -16 + ^ x21: .cfa -24 + ^ x22: .cfa -32 + ^ x23: .cfa -48 + ^ .ra: .cfa -56 + ^ x29: .cfa -64 + ^
STACK CFI 27660 .cfa: sp 144 +
STACK CFI 27674 .cfa: sp 0 +
STACK CFI 27678 .cfa: x29 64 +
STACK CFI INIT 277b4 2f0 .cfa: sp 0 +
STACK CFI 277b8 .cfa: sp 144 +
STACK CFI 277cc .cfa: x29 64 + x19: .cfa -8 + ^ x20: .cfa -16 + ^ x21: .cfa -24 + ^ x22: .cfa -32 + ^ x23: .cfa -48 + ^ .ra: .cfa -56 + ^ x29: .cfa -64 + ^
STACK CFI 27950 .cfa: sp 144 +
STACK CFI 27964 .cfa: sp 0 +
STACK CFI 27968 .cfa: x29 64 +
STACK CFI INIT 27aa4 2a0 .cfa: sp 0 +
STACK CFI 27aa8 .cfa: sp 144 +
STACK CFI 27abc .cfa: x29 64 + x19: .cfa -8 + ^ x20: .cfa -16 + ^ x21: .cfa -24 + ^ x22: .cfa -32 + ^ x23: .cfa -48 + ^ .ra: .cfa -56 + ^ x29: .cfa -64 + ^
STACK CFI 27bf0 .cfa: sp 144 +
STACK CFI 27c04 .cfa: sp 0 +
STACK CFI 27c08 .cfa: x29 64 +
STACK CFI INIT 27d44 2e4 .cfa: sp 0 +
STACK CFI 27d48 .cfa: sp 144 +
STACK CFI 27d5c .cfa: x29 64 + x19: .cfa -8 + ^ x20: .cfa -16 + ^ x21: .cfa -24 + ^ x22: .cfa -32 + ^ x23: .cfa -48 + ^ .ra: .cfa -56 + ^ x29: .cfa -64 + ^
STACK CFI 27ed4 .cfa: sp 144 +
STACK CFI 27ee8 .cfa: sp 0 +
STACK CFI 27eec .cfa: x29 64 +
STACK CFI INIT 28028 4f4 .cfa: sp 0 +
STACK CFI 2802c .cfa: sp 144 +
STACK CFI 28040 .cfa: x29 64 + x19: .cfa -8 + ^ x20: .cfa -16 + ^ x21: .cfa -24 + ^ x22: .cfa -32 + ^ x23: .cfa -48 + ^ .ra: .cfa -56 + ^ x29: .cfa -64 + ^
STACK CFI 28374 .cfa: sp 144 +
STACK CFI 28388 .cfa: sp 0 +
STACK CFI 2838c .cfa: x29 64 +
STACK CFI INIT 2851c 154 .cfa: sp 0 +
STACK CFI 28520 .cfa: sp 384 +
STACK CFI 28534 .cfa: x29 64 + x19: .cfa -8 + ^ x20: .cfa -16 + ^ x21: .cfa -24 + ^ x22: .cfa -32 + ^ x23: .cfa -40 + ^ x28: .cfa -48 + ^ .ra: .cfa -56 + ^ x29: .cfa -64 + ^
STACK CFI 28618 .cfa: sp 384 +
STACK CFI 2862c .cfa: sp 0 +
STACK CFI 28630 .cfa: x29 64 +
STACK CFI INIT 286a4 12c .cfa: sp 0 +
STACK CFI 286a8 .cfa: sp 80 +
STACK CFI 286bc .cfa: x29 80 + x19: .cfa -8 + ^ x20: .cfa -16 + ^ x21: .cfa -24 + ^ x22: .cfa -32 + ^ x23: .cfa -40 + ^ x24: .cfa -48 + ^ x25: .cfa -56 + ^ x26: .cfa -64 + ^ .ra: .cfa -72 + ^ x29: .cfa -80 + ^
STACK CFI 28784 .cfa: sp 80 +
STACK CFI 28798 .cfa: sp 0 +
STACK CFI 2879c .cfa: x29 80 +
STACK CFI INIT 28874 2d8 .cfa: sp 0 +
STACK CFI 28878 .cfa: sp 144 +
STACK CFI 28894 .cfa: x29 96 + x19: .cfa -8 + ^ x20: .cfa -16 + ^ x21: .cfa -24 + ^ x22: .cfa -32 + ^ x23: .cfa -40 + ^ x24: .cfa -48 + ^ x25: .cfa -56 + ^ x26: .cfa -64 + ^ x27: .cfa -72 + ^ x28: .cfa -80 + ^ .ra: .cfa -88 + ^ x29: .cfa -96 + ^
STACK CFI 28a98 .cfa: sp 144 +
STACK CFI 28ab4 .cfa: sp 0 +
STACK CFI 28ab8 .cfa: x29 96 +
STACK CFI INIT 28b4c 298 .cfa: sp 0 +
STACK CFI 28b50 .cfa: sp 80 +
STACK CFI 28b64 .cfa: x29 80 + x19: .cfa -8 + ^ x20: .cfa -16 + ^ x21: .cfa -24 + ^ x22: .cfa -32 + ^ x23: .cfa -40 + ^ x24: .cfa -48 + ^ x25: .cfa -64 + ^ .ra: .cfa -72 + ^ x29: .cfa -80 + ^
STACK CFI 28db0 .cfa: sp 80 +
STACK CFI 28dc4 .cfa: sp 0 +
STACK CFI 28dc8 .cfa: x29 80 +
STACK CFI INIT 28de4 168 .cfa: sp 0 +
STACK CFI 28de8 .cfa: sp 384 +
STACK CFI 28dfc .cfa: x29 64 + x19: .cfa -8 + ^ x20: .cfa -16 + ^ x21: .cfa -24 + ^ x22: .cfa -32 + ^ x23: .cfa -40 + ^ x28: .cfa -48 + ^ .ra: .cfa -56 + ^ x29: .cfa -64 + ^
STACK CFI 28ef4 .cfa: sp 384 +
STACK CFI 28f08 .cfa: sp 0 +
STACK CFI 28f0c .cfa: x29 64 +
STACK CFI INIT 28f64 50c .cfa: sp 0 +
STACK CFI 28f68 .cfa: sp 64 +
STACK CFI 28f78 .cfa: x29 64 + x19: .cfa -8 + ^ x20: .cfa -16 + ^ x21: .cfa -24 + ^ x22: .cfa -32 + ^ x23: .cfa -40 + ^ x24: .cfa -48 + ^ .ra: .cfa -56 + ^ x29: .cfa -64 + ^
STACK CFI 29098 .cfa: sp 64 +
STACK CFI 290a8 .cfa: sp 0 +
STACK CFI 290ac .cfa: x29 64 +
STACK CFI 29444 .cfa: sp 64 +
STACK CFI 29454 .cfa: sp 0 +
STACK CFI 29458 .cfa: x29 64 +
STACK CFI INIT 297a0 294 .cfa: sp 0 +
STACK CFI 297a4 .cfa: sp 240 +
STACK CFI 297bc .cfa: x29 80 + x19: .cfa -8 + ^ x20: .cfa -16 + ^ x21: .cfa -24 + ^ x22: .cfa -32 + ^ x23: .cfa -40 + ^ x24: .cfa -48 + ^ x25: .cfa -64 + ^ .ra: .cfa -72 + ^ x29: .cfa -80 + ^
STACK CFI 2995c .cfa: sp 240 +
STACK CFI 29974 .cfa: sp 0 +
STACK CFI 29978 .cfa: x29 80 +
STACK CFI INIT 29ab0 50 .cfa: sp 0 +
STACK CFI 29ab4 .cfa: sp 32 +
STACK CFI 29abc .cfa: x29 32 + x19: .cfa -8 + ^ x20: .cfa -16 + ^ .ra: .cfa -24 + ^ x29: .cfa -32 + ^
STACK CFI INIT 29b2c 7c0 .cfa: sp 0 +
STACK CFI 29b30 .cfa: sp 320 +
STACK CFI 29b4c .cfa: x29 96 + x19: .cfa -8 + ^ x20: .cfa -16 + ^ x21: .cfa -24 + ^ x22: .cfa -32 + ^ x23: .cfa -40 + ^ x24: .cfa -48 + ^ x25: .cfa -56 + ^ x26: .cfa -64 + ^ x27: .cfa -72 + ^ x28: .cfa -80 + ^ .ra: .cfa -88 + ^ x29: .cfa -96 + ^
STACK CFI 2a19c .cfa: sp 320 +
STACK CFI 2a1b8 .cfa: sp 0 +
STACK CFI 2a1bc .cfa: x29 96 +
STACK CFI INIT 2e66c c74 .cfa: sp 0 +
STACK CFI 2e670 .cfa: sp 96 +
STACK CFI 2e688 .cfa: x29 96 + x19: .cfa -8 + ^ x20: .cfa -16 + ^ x21: .cfa -24 + ^ x22: .cfa -32 + ^ x23: .cfa -40 + ^ x24: .cfa -48 + ^ x25: .cfa -56 + ^ x26: .cfa -64 + ^ x27: .cfa -72 + ^ x28: .cfa -80 + ^ .ra: .cfa -88 + ^ x29: .cfa -96 + ^
STACK CFI 2f100 .cfa: sp 96 +
STACK CFI 2f118 .cfa: sp 0 +
STACK CFI 2f11c .cfa: x29 96 +
STACK CFI INIT 2f434 26c .cfa: sp 0 +
STACK CFI 2f438 .cfa: sp 128 +
STACK CFI 2f448 .cfa: x29 48 + x19: .cfa -8 + ^ x20: .cfa -16 + ^ x21: .cfa -24 + ^ x22: .cfa -32 + ^ .ra: .cfa -40 + ^ x29: .cfa -48 + ^
STACK CFI 2f5ec .cfa: sp 128 +
STACK CFI 2f5fc .cfa: sp 0 +
STACK CFI 2f600 .cfa: x29 48 +
STACK CFI INIT 2fa30 3b8 .cfa: sp 0 +
STACK CFI 2fa34 .cfa: sp 96 +
STACK CFI 2fa4c .cfa: x29 96 + x19: .cfa -8 + ^ x20: .cfa -16 + ^ x21: .cfa -24 + ^ x22: .cfa -32 + ^ x23: .cfa -40 + ^ x24: .cfa -48 + ^ x25: .cfa -56 + ^ x26: .cfa -64 + ^ x27: .cfa -72 + ^ x28: .cfa -80 + ^ .ra: .cfa -88 + ^ x29: .cfa -96 + ^
STACK CFI 2fd88 .cfa: sp 96 +
STACK CFI 2fda0 .cfa: sp 0 +
STACK CFI 2fda4 .cfa: x29 96 +
STACK CFI INIT 2fe88 cb4 .cfa: sp 0 +
STACK CFI 2fe8c .cfa: sp 96 +
STACK CFI 2fea4 .cfa: x29 96 + x19: .cfa -8 + ^ x20: .cfa -16 + ^ x21: .cfa -24 + ^ x22: .cfa -32 + ^ x23: .cfa -40 + ^ x24: .cfa -48 + ^ x25: .cfa -56 + ^ x26: .cfa -64 + ^ x27: .cfa -72 + ^ x28: .cfa -80 + ^ .ra: .cfa -88 + ^ x29: .cfa -96 + ^
STACK CFI 3094c .cfa: sp 96 +
STACK CFI 30964 .cfa: sp 0 +
STACK CFI 30968 .cfa: x29 96 +
STACK CFI INIT 30e24 afc .cfa: sp 0 +
STACK CFI 30e28 .cfa: sp 96 +
STACK CFI 30e40 .cfa: x29 96 + x19: .cfa -8 + ^ x20: .cfa -16 + ^ x21: .cfa -24 + ^ x22: .cfa -32 + ^ x23: .cfa -40 + ^ x24: .cfa -48 + ^ x25: .cfa -56 + ^ x26: .cfa -64 + ^ x27: .cfa -72 + ^ x28: .cfa -80 + ^ .ra: .cfa -88 + ^ x29: .cfa -96 + ^
STACK CFI 31894 .cfa: sp 96 +
STACK CFI 318ac .cfa: sp 0 +
STACK CFI 318b0 .cfa: x29 96 +
STACK CFI INIT 31afc 1430 .cfa: sp 0 +
STACK CFI 31b00 .cfa: sp 96 +
STACK CFI 31b18 .cfa: x29 96 + x19: .cfa -8 + ^ x20: .cfa -16 + ^ x21: .cfa -24 + ^ x22: .cfa -32 + ^ x23: .cfa -40 + ^ x24: .cfa -48 + ^ x25: .cfa -56 + ^ x26: .cfa -64 + ^ x27: .cfa -72 + ^ x28: .cfa -80 + ^ .ra: .cfa -88 + ^ x29: .cfa -96 + ^
STACK CFI 32db4 .cfa: sp 96 +
STACK CFI 32dcc .cfa: sp 0 +
STACK CFI 32dd0 .cfa: x29 96 +
STACK CFI INIT 33050 75c .cfa: sp 0 +
STACK CFI 33054 .cfa: sp 368 +
STACK CFI 33070 .cfa: x29 96 + x19: .cfa -8 + ^ x20: .cfa -16 + ^ x21: .cfa -24 + ^ x22: .cfa -32 + ^ x23: .cfa -40 + ^ x24: .cfa -48 + ^ x25: .cfa -56 + ^ x26: .cfa -64 + ^ x27: .cfa -72 + ^ x28: .cfa -80 + ^ .ra: .cfa -88 + ^ x29: .cfa -96 + ^
STACK CFI 33124 .cfa: sp 368 +
STACK CFI 33140 .cfa: sp 0 +
STACK CFI 33144 .cfa: x29 96 +
STACK CFI 33198 .cfa: sp 368 +
STACK CFI 331b4 .cfa: sp 0 +
STACK CFI 331b8 .cfa: x29 96 +
STACK CFI INIT 33b6c eb0 .cfa: sp 0 +
STACK CFI 33b70 .cfa: sp 96 +
STACK CFI 33b88 .cfa: x29 96 + x19: .cfa -8 + ^ x20: .cfa -16 + ^ x21: .cfa -24 + ^ x22: .cfa -32 + ^ x23: .cfa -40 + ^ x24: .cfa -48 + ^ x25: .cfa -56 + ^ x26: .cfa -64 + ^ x27: .cfa -72 + ^ x28: .cfa -80 + ^ .ra: .cfa -88 + ^ x29: .cfa -96 + ^
STACK CFI 34830 .cfa: sp 96 +
STACK CFI 34848 .cfa: sp 0 +
STACK CFI 3484c .cfa: x29 96 +
STACK CFI INIT 34d90 1c9c .cfa: sp 0 +
STACK CFI 34d94 .cfa: sp 112 +
STACK CFI 34db0 .cfa: x29 96 + x19: .cfa -8 + ^ x20: .cfa -16 + ^ x21: .cfa -24 + ^ x22: .cfa -32 + ^ x23: .cfa -40 + ^ x24: .cfa -48 + ^ x25: .cfa -56 + ^ x26: .cfa -64 + ^ x27: .cfa -72 + ^ x28: .cfa -80 + ^ .ra: .cfa -88 + ^ x29: .cfa -96 + ^ v8: .cfa -112 + ^
STACK CFI 35198 .cfa: sp 112 +
STACK CFI 351b4 .cfa: sp 0 +
STACK CFI 351b8 .cfa: x29 96 +
STACK CFI INIT 391f0 9a0 .cfa: sp 0 +
STACK CFI 391f4 .cfa: sp 144 +
STACK CFI 3920c .cfa: x29 80 + x19: .cfa -8 + ^ x20: .cfa -16 + ^ x21: .cfa -24 + ^ x22: .cfa -32 + ^ x23: .cfa -40 + ^ x24: .cfa -48 + ^ x25: .cfa -64 + ^ .ra: .cfa -72 + ^ x29: .cfa -80 + ^
STACK CFI 39b0c .cfa: sp 144 +
STACK CFI 39b24 .cfa: sp 0 +
STACK CFI 39b28 .cfa: x29 80 +
STACK CFI INIT 3b0b4 57c .cfa: sp 0 +
STACK CFI 3b0b8 .cfa: sp 96 +
STACK CFI 3b0d0 .cfa: x29 96 + x19: .cfa -8 + ^ x20: .cfa -16 + ^ x21: .cfa -24 + ^ x22: .cfa -32 + ^ x23: .cfa -40 + ^ x24: .cfa -48 + ^ x25: .cfa -56 + ^ x26: .cfa -64 + ^ x27: .cfa -72 + ^ x28: .cfa -80 + ^ .ra: .cfa -88 + ^ x29: .cfa -96 + ^
STACK CFI 3b594 .cfa: sp 96 +
STACK CFI 3b5ac .cfa: sp 0 +
STACK CFI 3b5b0 .cfa: x29 96 +
STACK CFI INIT 3b630 67c .cfa: sp 0 +
STACK CFI 3b634 .cfa: sp 96 +
STACK CFI 3b64c .cfa: x29 96 + x19: .cfa -8 + ^ x20: .cfa -16 + ^ x21: .cfa -24 + ^ x22: .cfa -32 + ^ x23: .cfa -40 + ^ x24: .cfa -48 + ^ x25: .cfa -56 + ^ x26: .cfa -64 + ^ x27: .cfa -72 + ^ x28: .cfa -80 + ^ .ra: .cfa -88 + ^ x29: .cfa -96 + ^
STACK CFI 3bc10 .cfa: sp 96 +
STACK CFI 3bc28 .cfa: sp 0 +
STACK CFI 3bc2c .cfa: x29 96 +
