MODULE Linux arm64 F82003B38AD3C2260B53399D1310B7790 nytelyte.wave_trail_drag_fix.android64.so
INFO CODE_ID B30320F8D38A26C20B53399D1310B779FFD56063
INFO GENERATOR mozilla/dump_syms 2.3.4
PUBLIC c7a0 0 __on_dlclose
PUBLIC c7b0 0 __emutls_unregister_key
PUBLIC c7b8 0 __on_dlclose_late
PUBLIC c7c0 0 __atexit_handler_wrapper
PUBLIC c7d4 0 atexit
PUBLIC c7f0 0 pthread_atfork
PUBLIC c800 0 __aarch64_ldadd8_relax
PUBLIC c830 0 init_have_lse_atomics
PUBLIC c8c8 0 __init_cpu_features_constructor
PUBLIC ce64 0 __init_cpu_features
PUBLIC cef0 0 __aarch64_ldadd8_acq_rel
PUBLIC cf20 0 __cxx_global_var_init
PUBLIC d940 0 geode::modifier::ModifyBase<geode::modifier::ModifyDerive<WTDFPlayerObject, PlayerObject> >::~ModifyBase()
PUBLIC d958 0 __cxx_global_var_init.1
PUBLIC ddb4 0 __cxx_global_var_init.2
PUBLIC e210 0 geode::modifier::ModifyBase<geode::modifier::ModifyDerive<hook281<(anonymous namespace)::hook281Parent>, PlayLayer> >::~ModifyBase()
PUBLIC e228 0 geode::modifier::ModifyBase<geode::modifier::ModifyDerive<hook291<(anonymous namespace)::hook291Parent>, GJBaseGameLayer> >::~ModifyBase()
PUBLIC e240 0 geode::modifier::ModifyDerive<WTDFPlayerObject, PlayerObject>::apply()
PUBLIC f64c 0 std::__ndk1::shared_ptr<geode::Hook>::~shared_ptr[abi:ne180000]()
PUBLIC f69c 0 geode::impl::ResultData<geode::Hook*, std::__ndk1::basic_string<char, std::__ndk1::char_traits<char>, std::__ndk1::allocator<char> > >::~ResultData()
PUBLIC f710 0 std::__ndk1::vector<std::__ndk1::basic_string<char, std::__ndk1::char_traits<char>, std::__ndk1::allocator<char> >, std::__ndk1::allocator<std::__ndk1::basic_string<char, std::__ndk1::char_traits<char>, std::__ndk1::allocator<char> > > >::~vector[abi:ne180000]()
PUBLIC f78c 0 geode::modifier::ModifyBase<geode::modifier::ModifyDerive<WTDFPlayerObject, PlayerObject> >::apply()
PUBLIC f790 0 __clang_call_terminate
PUBLIC f7a0 0 geode::impl::ResultData<void, std::__ndk1::basic_string<char, std::__ndk1::char_traits<char>, std::__ndk1::allocator<char> > >::~ResultData()
PUBLIC f814 0 std::__ndk1::basic_string<char, std::__ndk1::char_traits<char>, std::__ndk1::allocator<char> >::__throw_length_error[abi:ne180000]() const
PUBLIC f828 0 std::__ndk1::__throw_length_error[abi:ne180000](char const*)
PUBLIC f878 0 std::length_error::length_error[abi:ne180000](char const*)
PUBLIC f8a8 0 std::__throw_bad_array_new_length([abi:ne180000], void)
PUBLIC f8dc 0 geode::modifier::ModifyBase<geode::modifier::ModifyDerive<WTDFPlayerObject, PlayerObject> >::setHookPriorityAfter(std::__ndk1::basic_string_view<char, std::__ndk1::char_traits<char> >, geode::Mod*)::{lambda(geode::ModStateEvent*)#1}::operator()(geode::ModStateEvent*) const
PUBLIC f9ec 0 std::__ndk1::__tree<std::__ndk1::__value_type<std::__ndk1::basic_string<char, std::__ndk1::char_traits<char>, std::__ndk1::allocator<char> >, std::__ndk1::shared_ptr<geode::Hook> >, std::__ndk1::__map_value_compare<std::__ndk1::basic_string<char, std::__ndk1::char_traits<char>, std::__ndk1::allocator<char> >, std::__ndk1::__value_type<std::__ndk1::basic_string<char, std::__ndk1::char_traits<char>, std::__ndk1::allocator<char> >, std::__ndk1::shared_ptr<geode::Hook> >, std::__ndk1::less<std::__ndk1::basic_string<char, std::__ndk1::char_traits<char>, std::__ndk1::allocator<char> > >, true>, std::__ndk1::allocator<std::__ndk1::__value_type<std::__ndk1::basic_string<char, std::__ndk1::char_traits<char>, std::__ndk1::allocator<char> >, std::__ndk1::shared_ptr<geode::Hook> > > >::find<std::__ndk1::basic_string<char, std::__ndk1::char_traits<char>, std::__ndk1::allocator<char> > >(std::__ndk1::basic_string<char, std::__ndk1::char_traits<char>, std::__ndk1::allocator<char> > const&)
PUBLIC fb0c 0 std::__ndk1::basic_string<char, std::__ndk1::char_traits<char>, std::__ndk1::allocator<char> >::__init_copy_ctor_external(char const*, unsigned long)
PUBLIC fb8c 0 std::__ndk1::__tree_balance_after_insert[abi:ne180000]<std::__ndk1::__tree_node_base<void*>*>(std::__ndk1::__tree_node_base<void*>*, std::__ndk1::__tree_node_base<void*>*)
PUBLIC fd3c 0 _ZN5geode15UnwrapExceptionC2IRPNS_4HookEQsr4implE18IsStringStreamableIT_EEENS_4impl5OkTagEOS5_
PUBLIC fe90 0 std::__ndk1::__throw_bad_variant_access[abi:ne180000]()
PUBLIC fec4 0 std::__ndk1::basic_stringstream<char, std::__ndk1::char_traits<char>, std::__ndk1::allocator<char> >::basic_stringstream[abi:ne180000]()
PUBLIC m fff0 0 std::__ndk1::basic_stringstream<char, std::__ndk1::char_traits<char>, std::__ndk1::allocator<char> >::~basic_stringstream()
PUBLIC 10070 0 geode::UnwrapException::~UnwrapException()
PUBLIC 10094 0 std::__ndk1::__put_character_sequence[abi:ne180000]<char, std::__ndk1::char_traits<char> >(std::__ndk1::basic_ostream<char, std::__ndk1::char_traits<char> >, std::__ndk1::basic_ostream const*, unsigned long)
PUBLIC 10238 0 std::__ndk1::__pad_and_output[abi:ne180000]<char, std::__ndk1::char_traits<char> >(std::__ndk1::char_traits<char>, std::__ndk1::ostreambuf_iterator const*, std::__ndk1::ostreambuf_iterator const, std::__ndk1::ostreambuf_iterator const, std::__ndk1::ios_base&, std::__ndk1::ostreambuf_iterator)
PUBLIC 10414 0 std::__ndk1::basic_stringbuf<char, std::__ndk1::char_traits<char>, std::__ndk1::allocator<char> >::str[abi:ne180000]() &&
PUBLIC 1058c 0 std::__ndk1::basic_stringbuf<char, std::__ndk1::char_traits<char>, std::__ndk1::allocator<char> >::__init_buf_ptrs[abi:ne180000]()
PUBLIC 106d4 0 _ZN5geode15UnwrapExceptionC2IRNSt6__ndk112basic_stringIcNS2_11char_traitsIcEENS2_9allocatorIcEEEEQsr4implE18IsStringStreamableIT_EEENS_4impl6ErrTagEOSA_
PUBLIC 1083c 0 std::__ndk1::__function::__base<void (geode::ModStateEvent*)>::~__base()
PUBLIC 10840 0 std::__ndk1::__function::__func<geode::modifier::ModifyBase<geode::modifier::ModifyDerive<WTDFPlayerObject, PlayerObject> >::setHookPriorityAfter(std::__ndk1::basic_string_view<char, std::__ndk1::char_traits<char> >, geode::Mod*)::{lambda(geode::ModStateEvent*)#1}, std::__ndk1::allocator<geode::modifier::ModifyBase<geode::modifier::ModifyDerive<WTDFPlayerObject, PlayerObject> >::setHookPriorityAfter(std::__ndk1::basic_string_view<char, std::__ndk1::char_traits<char> >, geode::Mod*)::{lambda(geode::ModStateEvent*)#1}>, void (geode::ModStateEvent*)>::~__func()
PUBLIC 10844 0 std::__ndk1::__function::__func<geode::modifier::ModifyBase<geode::modifier::ModifyDerive<WTDFPlayerObject, PlayerObject> >::setHookPriorityAfter(std::__ndk1::basic_string_view<char, std::__ndk1::char_traits<char> >, geode::Mod*)::{lambda(geode::ModStateEvent*)#1}, std::__ndk1::allocator<geode::modifier::ModifyBase<geode::modifier::ModifyDerive<WTDFPlayerObject, PlayerObject> >::setHookPriorityAfter(std::__ndk1::basic_string_view<char, std::__ndk1::char_traits<char> >, geode::Mod*)::{lambda(geode::ModStateEvent*)#1}>, void (geode::ModStateEvent*)>::__clone() const
PUBLIC 1087c 0 std::__ndk1::__function::__func<geode::modifier::ModifyBase<geode::modifier::ModifyDerive<WTDFPlayerObject, PlayerObject> >::setHookPriorityAfter(std::__ndk1::basic_string_view<char, std::__ndk1::char_traits<char> >, geode::Mod*)::{lambda(geode::ModStateEvent*)#1}, std::__ndk1::allocator<geode::modifier::ModifyBase<geode::modifier::ModifyDerive<WTDFPlayerObject, PlayerObject> >::setHookPriorityAfter(std::__ndk1::basic_string_view<char, std::__ndk1::char_traits<char> >, geode::Mod*)::{lambda(geode::ModStateEvent*)#1}>, void (geode::ModStateEvent*)>::__clone(std::__ndk1::__function::__base<void (geode::ModStateEvent*)>*) const
PUBLIC 10894 0 std::__ndk1::__function::__func<geode::modifier::ModifyBase<geode::modifier::ModifyDerive<WTDFPlayerObject, PlayerObject> >::setHookPriorityAfter(std::__ndk1::basic_string_view<char, std::__ndk1::char_traits<char> >, geode::Mod*)::{lambda(geode::ModStateEvent*)#1}, std::__ndk1::allocator<geode::modifier::ModifyBase<geode::modifier::ModifyDerive<WTDFPlayerObject, PlayerObject> >::setHookPriorityAfter(std::__ndk1::basic_string_view<char, std::__ndk1::char_traits<char> >, geode::Mod*)::{lambda(geode::ModStateEvent*)#1}>, void (geode::ModStateEvent*)>::destroy()
PUBLIC 10898 0 std::__ndk1::__function::__func<geode::modifier::ModifyBase<geode::modifier::ModifyDerive<WTDFPlayerObject, PlayerObject> >::setHookPriorityAfter(std::__ndk1::basic_string_view<char, std::__ndk1::char_traits<char> >, geode::Mod*)::{lambda(geode::ModStateEvent*)#1}, std::__ndk1::allocator<geode::modifier::ModifyBase<geode::modifier::ModifyDerive<WTDFPlayerObject, PlayerObject> >::setHookPriorityAfter(std::__ndk1::basic_string_view<char, std::__ndk1::char_traits<char> >, geode::Mod*)::{lambda(geode::ModStateEvent*)#1}>, void (geode::ModStateEvent*)>::destroy_deallocate()
PUBLIC 1089c 0 std::__ndk1::__function::__func<geode::modifier::ModifyBase<geode::modifier::ModifyDerive<WTDFPlayerObject, PlayerObject> >::setHookPriorityAfter(std::__ndk1::basic_string_view<char, std::__ndk1::char_traits<char> >, geode::Mod*)::{lambda(geode::ModStateEvent*)#1}, std::__ndk1::allocator<geode::modifier::ModifyBase<geode::modifier::ModifyDerive<WTDFPlayerObject, PlayerObject> >::setHookPriorityAfter(std::__ndk1::basic_string_view<char, std::__ndk1::char_traits<char> >, geode::Mod*)::{lambda(geode::ModStateEvent*)#1}>, void (geode::ModStateEvent*)>::operator()(geode::ModStateEvent*&&)
PUBLIC 108a4 0 std::__ndk1::__function::__func<geode::modifier::ModifyBase<geode::modifier::ModifyDerive<WTDFPlayerObject, PlayerObject> >::setHookPriorityAfter(std::__ndk1::basic_string_view<char, std::__ndk1::char_traits<char> >, geode::Mod*)::{lambda(geode::ModStateEvent*)#1}, std::__ndk1::allocator<geode::modifier::ModifyBase<geode::modifier::ModifyDerive<WTDFPlayerObject, PlayerObject> >::setHookPriorityAfter(std::__ndk1::basic_string_view<char, std::__ndk1::char_traits<char> >, geode::Mod*)::{lambda(geode::ModStateEvent*)#1}>, void (geode::ModStateEvent*)>::target(std::type_info const&) const
PUBLIC 108c0 0 std::__ndk1::__function::__func<geode::modifier::ModifyBase<geode::modifier::ModifyDerive<WTDFPlayerObject, PlayerObject> >::setHookPriorityAfter(std::__ndk1::basic_string_view<char, std::__ndk1::char_traits<char> >, geode::Mod*)::{lambda(geode::ModStateEvent*)#1}, std::__ndk1::allocator<geode::modifier::ModifyBase<geode::modifier::ModifyDerive<WTDFPlayerObject, PlayerObject> >::setHookPriorityAfter(std::__ndk1::basic_string_view<char, std::__ndk1::char_traits<char> >, geode::Mod*)::{lambda(geode::ModStateEvent*)#1}>, void (geode::ModStateEvent*)>::target_type() const
PUBLIC 108cc 0 geode::EventListener<geode::ModStateFilter>::getPool() const
PUBLIC 108d0 0 geode::EventListener<geode::ModStateFilter>::handle(geode::Event*)
PUBLIC 10a2c 0 geode::EventListener<geode::ModStateFilter>::~EventListener()
PUBLIC 10a88 0 geode::EventListener<geode::ModStateFilter>::~EventListener()
PUBLIC 10aec 0 geode::cast::traverseTypeinfoFor(void*, geode::cast::ClassTypeinfoType const*, char const*)
PUBLIC 10be8 0 std::__ndk1::__variant_detail::__visitation::__base::__dispatcher<(unsigned long)0>::__dispatch[abi:ne180000]<std::__ndk1::__variant_detail::__dtor<std::__ndk1::__variant_detail::__traits<std::__ndk1::monostate, std::__ndk1::basic_string<char, std::__ndk1::char_traits<char>, std::__ndk1::allocator<char> > >, (std::__ndk1::__variant_detail::_Trait)1>::__destroy[abi:ne180000]()::{lambda(auto:1&)#1}, std::__ndk1::__variant_detail::__base<(std::__ndk1::__variant_detail::__traits<std::__ndk1::monostate, std::__ndk1::basic_string<char, std::__ndk1::char_traits<char>, std::__ndk1::allocator<char> > >)1, std::__ndk1::__variant_detail::__traits, std::__ndk1::allocator<char> >&>(std::__ndk1::__variant_detail::__dtor<std::__ndk1::__variant_detail::__traits<std::__ndk1::monostate, std::__ndk1::basic_string<char, std::__ndk1::char_traits<char>, std::__ndk1::allocator<char> > >, (std::__ndk1::__variant_detail::_Trait)1>, std::__ndk1::__variant_detail::__base<(std::__ndk1::__variant_detail::__traits<std::__ndk1::monostate, std::__ndk1::basic_string<char, std::__ndk1::char_traits<char>, std::__ndk1::allocator<char> > >)1, std::__ndk1::__variant_detail::__traits, std::__ndk1::allocator<char> >&)
PUBLIC 10bec 0 std::__ndk1::__variant_detail::__visitation::__base::__dispatcher<(unsigned long)1>::__dispatch[abi:ne180000]<std::__ndk1::__variant_detail::__dtor<std::__ndk1::__variant_detail::__traits<std::__ndk1::monostate, std::__ndk1::basic_string<char, std::__ndk1::char_traits<char>, std::__ndk1::allocator<char> > >, (std::__ndk1::__variant_detail::_Trait)1>::__destroy[abi:ne180000]()::{lambda(auto:1&)#1}, std::__ndk1::__variant_detail::__base<(std::__ndk1::__variant_detail::__traits<std::__ndk1::monostate, std::__ndk1::basic_string<char, std::__ndk1::char_traits<char>, std::__ndk1::allocator<char> > >)1, std::__ndk1::__variant_detail::__traits, std::__ndk1::allocator<char> >&>(std::__ndk1::__variant_detail::__dtor<std::__ndk1::__variant_detail::__traits<std::__ndk1::monostate, std::__ndk1::basic_string<char, std::__ndk1::char_traits<char>, std::__ndk1::allocator<char> > >, (std::__ndk1::__variant_detail::_Trait)1>, std::__ndk1::__variant_detail::__base<(std::__ndk1::__variant_detail::__traits<std::__ndk1::monostate, std::__ndk1::basic_string<char, std::__ndk1::char_traits<char>, std::__ndk1::allocator<char> > >)1, std::__ndk1::__variant_detail::__traits, std::__ndk1::allocator<char> >&)
PUBLIC 10c00 0 std::__ndk1::vector<std::__ndk1::basic_string<char, std::__ndk1::char_traits<char>, std::__ndk1::allocator<char> >, std::__ndk1::allocator<std::__ndk1::basic_string<char, std::__ndk1::char_traits<char>, std::__ndk1::allocator<char> > > >::__push_back_slow_path<std::__ndk1::basic_string<char, std::__ndk1::char_traits<char>, std::__ndk1::allocator<char> > const&>(std::__ndk1::basic_string<char, std::__ndk1::char_traits<char>, std::__ndk1::allocator<char> > const&)
PUBLIC 10e24 0 std::__ndk1::__split_buffer<std::__ndk1::basic_string<char, std::__ndk1::char_traits<char>, std::__ndk1::allocator<char> >, std::__ndk1::allocator<std::__ndk1::basic_string<char, std::__ndk1::char_traits<char>, std::__ndk1::allocator<char> > >&>::~__split_buffer()
PUBLIC 10e8c 0 std::__ndk1::vector<std::__ndk1::basic_string<char, std::__ndk1::char_traits<char>, std::__ndk1::allocator<char> >, std::__ndk1::allocator<std::__ndk1::basic_string<char, std::__ndk1::char_traits<char>, std::__ndk1::allocator<char> > > >::__throw_length_error[abi:ne180000]() const
PUBLIC 10ea0 0 std::__ndk1::__variant_detail::__visitation::__base::__dispatcher<(unsigned long)0>::__dispatch[abi:ne180000]<std::__ndk1::__variant_detail::__dtor<std::__ndk1::__variant_detail::__traits<geode::Hook*, std::__ndk1::basic_string<char, std::__ndk1::char_traits<char>, std::__ndk1::allocator<char> > >, (std::__ndk1::__variant_detail::_Trait)1>::__destroy[abi:ne180000]()::{lambda(auto:1&)#1}, std::__ndk1::__variant_detail::__base<(std::__ndk1::__variant_detail::__traits<geode::Hook*, std::__ndk1::basic_string<char, std::__ndk1::char_traits<char>, std::__ndk1::allocator<char> > >)1, geode::Hook, std::__ndk1::allocator<char> >&>(std::__ndk1::__variant_detail::__dtor<std::__ndk1::__variant_detail::__traits<geode::Hook*, std::__ndk1::basic_string<char, std::__ndk1::char_traits<char>, std::__ndk1::allocator<char> > >, (std::__ndk1::__variant_detail::_Trait)1>, std::__ndk1::__variant_detail::__base<(std::__ndk1::__variant_detail::__traits<geode::Hook*, std::__ndk1::basic_string<char, std::__ndk1::char_traits<char>, std::__ndk1::allocator<char> > >)1, geode::Hook, std::__ndk1::allocator<char> >&)
PUBLIC 10ea4 0 std::__ndk1::__variant_detail::__visitation::__base::__dispatcher<(unsigned long)1>::__dispatch[abi:ne180000]<std::__ndk1::__variant_detail::__dtor<std::__ndk1::__variant_detail::__traits<geode::Hook*, std::__ndk1::basic_string<char, std::__ndk1::char_traits<char>, std::__ndk1::allocator<char> > >, (std::__ndk1::__variant_detail::_Trait)1>::__destroy[abi:ne180000]()::{lambda(auto:1&)#1}, std::__ndk1::__variant_detail::__base<(std::__ndk1::__variant_detail::__traits<geode::Hook*, std::__ndk1::basic_string<char, std::__ndk1::char_traits<char>, std::__ndk1::allocator<char> > >)1, geode::Hook, std::__ndk1::allocator<char> >&>(std::__ndk1::__variant_detail::__dtor<std::__ndk1::__variant_detail::__traits<geode::Hook*, std::__ndk1::basic_string<char, std::__ndk1::char_traits<char>, std::__ndk1::allocator<char> > >, (std::__ndk1::__variant_detail::_Trait)1>, std::__ndk1::__variant_detail::__base<(std::__ndk1::__variant_detail::__traits<geode::Hook*, std::__ndk1::basic_string<char, std::__ndk1::char_traits<char>, std::__ndk1::allocator<char> > >)1, geode::Hook, std::__ndk1::allocator<char> >&)
PUBLIC 10eb8 0 std::__ndk1::__tree<std::__ndk1::__value_type<std::__ndk1::basic_string<char, std::__ndk1::char_traits<char>, std::__ndk1::allocator<char> >, std::__ndk1::shared_ptr<geode::Hook> >, std::__ndk1::__map_value_compare<std::__ndk1::basic_string<char, std::__ndk1::char_traits<char>, std::__ndk1::allocator<char> >, std::__ndk1::__value_type<std::__ndk1::basic_string<char, std::__ndk1::char_traits<char>, std::__ndk1::allocator<char> >, std::__ndk1::shared_ptr<geode::Hook> >, std::__ndk1::less<std::__ndk1::basic_string<char, std::__ndk1::char_traits<char>, std::__ndk1::allocator<char> > >, true>, std::__ndk1::allocator<std::__ndk1::__value_type<std::__ndk1::basic_string<char, std::__ndk1::char_traits<char>, std::__ndk1::allocator<char> >, std::__ndk1::shared_ptr<geode::Hook> > > >::erase(std::__ndk1::__tree_const_iterator<std::__ndk1::__value_type<std::__ndk1::basic_string<char, std::__ndk1::char_traits<char>, std::__ndk1::allocator<char> >, std::__ndk1::shared_ptr<geode::Hook> >, std::__ndk1::__tree_node<std::__ndk1::__value_type<std::__ndk1::basic_string<char, std::__ndk1::char_traits<char>, std::__ndk1::allocator<char> >, std::__ndk1::shared_ptr<geode::Hook> >, void*>*, long>)
PUBLIC 1135c 0 std::__ndk1::__tree<std::__ndk1::__value_type<std::__ndk1::basic_string<char, std::__ndk1::char_traits<char>, std::__ndk1::allocator<char> >, std::__ndk1::shared_ptr<geode::Hook> >, std::__ndk1::__map_value_compare<std::__ndk1::basic_string<char, std::__ndk1::char_traits<char>, std::__ndk1::allocator<char> >, std::__ndk1::__value_type<std::__ndk1::basic_string<char, std::__ndk1::char_traits<char>, std::__ndk1::allocator<char> >, std::__ndk1::shared_ptr<geode::Hook> >, std::__ndk1::less<std::__ndk1::basic_string<char, std::__ndk1::char_traits<char>, std::__ndk1::allocator<char> > >, true>, std::__ndk1::allocator<std::__ndk1::__value_type<std::__ndk1::basic_string<char, std::__ndk1::char_traits<char>, std::__ndk1::allocator<char> >, std::__ndk1::shared_ptr<geode::Hook> > > >::destroy(std::__ndk1::__tree_node<std::__ndk1::__value_type<std::__ndk1::basic_string<char, std::__ndk1::char_traits<char>, std::__ndk1::allocator<char> >, std::__ndk1::shared_ptr<geode::Hook> >, void*>*)
PUBLIC 113e0 0 geode::Hook::create<void (*)(WTDFPlayerObject*, float)>(void*, void (*)(WTDFPlayerObject*, float), std::__ndk1::basic_string<char, std::__ndk1::char_traits<char>, std::__ndk1::allocator<char> > const&, tulip::hook::TulipConvention, tulip::hook::HookMetadata const&)
PUBLIC 11564 0 geode::modifier::AsStaticFunction_update<WTDFPlayerObject, void (WTDFPlayerObject::*)(float)>::Impl<void (WTDFPlayerObject::*)(float)>::function(WTDFPlayerObject*, float)
PUBLIC 1161c 0 geode::Hook::create<void (*)(WTDFPlayerObject*)>(void*, void (*)(WTDFPlayerObject*), std::__ndk1::basic_string<char, std::__ndk1::char_traits<char>, std::__ndk1::allocator<char> > const&, tulip::hook::TulipConvention, tulip::hook::HookMetadata const&)
PUBLIC 11750 0 geode::modifier::AsStaticFunction_resetObject<WTDFPlayerObject, void (WTDFPlayerObject::*)()>::Impl<void (WTDFPlayerObject::*)()>::function(WTDFPlayerObject*)
PUBLIC 117ac 0 geode::Hook::create<void (*)(WTDFPlayerObject*, bool)>(void*, void (*)(WTDFPlayerObject*, bool), std::__ndk1::basic_string<char, std::__ndk1::char_traits<char>, std::__ndk1::allocator<char> > const&, tulip::hook::TulipConvention, tulip::hook::HookMetadata const&)
PUBLIC 11930 0 geode::modifier::AsStaticFunction_doReversePlayer<WTDFPlayerObject, void (WTDFPlayerObject::*)(bool)>::Impl<void (WTDFPlayerObject::*)(bool)>::function(WTDFPlayerObject*, bool)
PUBLIC 1196c 0 geode::modifier::AsStaticFunction_placeStreakPoint<WTDFPlayerObject, void (WTDFPlayerObject::*)()>::Impl<void (WTDFPlayerObject::*)()>::function(WTDFPlayerObject*)
PUBLIC 11984 0 geode::modifier::AsStaticFunction_postCollision<WTDFPlayerObject, void (WTDFPlayerObject::*)(float)>::Impl<void (WTDFPlayerObject::*)(float)>::function(WTDFPlayerObject*, float)
PUBLIC 11f08 0 geode::modifier::AsStaticFunction_preSlopeCollision<WTDFPlayerObject, bool (WTDFPlayerObject::*)(float, GameObject*)>::Impl<bool (WTDFPlayerObject::*)(float, GameObject*)>::function(WTDFPlayerObject*, float, GameObject*)
PUBLIC 11f4c 0 geode::modifier::AsStaticFunction_pushButton<WTDFPlayerObject, bool (WTDFPlayerObject::*)(PlayerButton)>::Impl<bool (WTDFPlayerObject::*)(PlayerButton)>::function(WTDFPlayerObject*, PlayerButton)
PUBLIC 120e4 0 geode::modifier::AsStaticFunction_spiderTestJump<WTDFPlayerObject, void (WTDFPlayerObject::*)(bool)>::Impl<void (WTDFPlayerObject::*)(bool)>::function(WTDFPlayerObject*, bool)
PUBLIC 121f4 0 geode::modifier::AsStaticFunction_toggleVisibility<WTDFPlayerObject, void (WTDFPlayerObject::*)(bool)>::Impl<void (WTDFPlayerObject::*)(bool)>::function(WTDFPlayerObject*, bool)
PUBLIC 12244 0 geode::addresser::Addresser::addressOfVirtual<void, PlayerObject, float>(void (PlayerObject::*)(float))
PUBLIC 1230c 0 PlayerObject::PlayerObject(geode::ZeroConstructorType)
PUBLIC 125c8 0 gd::map<int, bool>::~map()
PUBLIC 125e4 0 geode::stl::unordered_set<int, geode::stl::hash<int>, geode::stl::equal_to<int>, std::__ndk1::allocator<int> >::~unordered_set()
PUBLIC 1265c 0 geode::stl::unordered_map<int, GameObject*, geode::stl::hash<int>, geode::stl::equal_to<int>, std::__ndk1::allocator<std::__ndk1::pair<int const, GameObject*> > >::~unordered_map()
PUBLIC 126d4 0 geode::stl::unordered_map<int, GJPointDouble, geode::stl::hash<int>, geode::stl::equal_to<int>, std::__ndk1::allocator<std::__ndk1::pair<int const, GJPointDouble> > >::~unordered_map()
PUBLIC 1274c 0 GameObject::~GameObject()
PUBLIC 12794 0 gd::map<int, bool>::erase(geode::stl::_rb_tree_node<std::__ndk1::pair<int, bool> >*)
PUBLIC 127e8 0 std::__ndk1::shared_ptr<tulip::hook::CallingConvention>::~shared_ptr[abi:ne180000]()
PUBLIC 12838 0 tulip::hook::HandlerMetadata::~HandlerMetadata()
PUBLIC 1289c 0 geode::modifier::FieldIntermediate<WTDFPlayerObject, PlayerObject>::self()
PUBLIC 12f08 0 geode::modifier::FieldIntermediate<WTDFPlayerObject, PlayerObject>::fieldDestructor(void*)
PUBLIC 12f0c 0 std::__ndk1::vector<void*, std::__ndk1::allocator<void*> >::__throw_length_error[abi:ne180000]() const
PUBLIC 12f20 0 std::__ndk1::vector<std::__ndk1::function<void (void*)>, std::__ndk1::allocator<std::__ndk1::function<void (void*)> > >::__throw_length_error[abi:ne180000]() const
PUBLIC 12f34 0 std::__ndk1::vector<void*, std::__ndk1::allocator<void*> >::__throw_out_of_range[abi:ne180000]() const
PUBLIC 12f40 0 std::__ndk1::__throw_out_of_range[abi:ne180000](char const*)
PUBLIC 12f90 0 std::out_of_range::out_of_range[abi:ne180000](char const*)
PUBLIC 12fc0 0 std::__ndk1::vector<std::__ndk1::function<void (void*)>, std::__ndk1::allocator<std::__ndk1::function<void (void*)> > >::__throw_out_of_range[abi:ne180000]() const
PUBLIC 12fcc 0 std::__ndk1::__function::__base<void (void*)>::~__base()
PUBLIC 12fd0 0 std::__ndk1::__function::__func<void (*)(void*), std::__ndk1::allocator<void (*)(void*)>, void (void*)>::~__func()
PUBLIC 12fd4 0 std::__ndk1::__function::__func<void (*)(void*), std::__ndk1::allocator<void (*)(void*)>, void (void*)>::__clone() const
PUBLIC 1300c 0 std::__ndk1::__function::__func<void (*)(void*), std::__ndk1::allocator<void (*)(void*)>, void (void*)>::__clone(std::__ndk1::__function::__base<void (void*)>*) const
PUBLIC 13024 0 std::__ndk1::__function::__func<void (*)(void*), std::__ndk1::allocator<void (*)(void*)>, void (void*)>::destroy()
PUBLIC 13028 0 std::__ndk1::__function::__func<void (*)(void*), std::__ndk1::allocator<void (*)(void*)>, void (void*)>::destroy_deallocate()
PUBLIC 1302c 0 std::__ndk1::__function::__func<void (*)(void*), std::__ndk1::allocator<void (*)(void*)>, void (void*)>::operator()(void*&&)
PUBLIC 1303c 0 std::__ndk1::__function::__func<void (*)(void*), std::__ndk1::allocator<void (*)(void*)>, void (void*)>::target(std::type_info const&) const
PUBLIC 13058 0 std::__ndk1::__function::__func<void (*)(void*), std::__ndk1::allocator<void (*)(void*)>, void (void*)>::target_type() const
PUBLIC 13064 0 std::__ndk1::__tree<std::__ndk1::__value_type<std::__ndk1::basic_string<char, std::__ndk1::char_traits<char>, std::__ndk1::allocator<char> >, std::__ndk1::shared_ptr<geode::Hook> >, std::__ndk1::__map_value_compare<std::__ndk1::basic_string<char, std::__ndk1::char_traits<char>, std::__ndk1::allocator<char> >, std::__ndk1::__value_type<std::__ndk1::basic_string<char, std::__ndk1::char_traits<char>, std::__ndk1::allocator<char> >, std::__ndk1::shared_ptr<geode::Hook> >, std::__ndk1::less<std::__ndk1::basic_string<char, std::__ndk1::char_traits<char>, std::__ndk1::allocator<char> > >, true>, std::__ndk1::allocator<std::__ndk1::__value_type<std::__ndk1::basic_string<char, std::__ndk1::char_traits<char>, std::__ndk1::allocator<char> >, std::__ndk1::shared_ptr<geode::Hook> > > >::__emplace_unique_key_args<std::__ndk1::basic_string<char, std::__ndk1::char_traits<char>, std::__ndk1::allocator<char> >, std::__ndk1::piecewise_construct_t const&, std::__ndk1::tuple<std::__ndk1::basic_string<char, std::__ndk1::char_traits<char>, std::__ndk1::allocator<char> >&&>, std::__ndk1::tuple<> >(std::__ndk1::basic_string<char, std::__ndk1::char_traits<char>, std::__ndk1::allocator<char> > const&, std::__ndk1::piecewise_construct_t const&, std::__ndk1::tuple<std::__ndk1::basic_string<char, std::__ndk1::char_traits<char>, std::__ndk1::allocator<char> >&&>, std::__ndk1::tuple<>)
PUBLIC 131cc 0 geode::addresser::Addresser::addressOfVirtual<void, PlayerObject, >(void (PlayerObject::*)())
PUBLIC 13294 0 WTDFPlayerObject::addWaveTrailPoint(cocos2d::CCPoint)
PUBLIC 133d8 0 geode::modifier::ModifyDerive<hook281<(anonymous namespace)::hook281Parent>, PlayLayer>::apply()
PUBLIC 13740 0 geode::modifier::ModifyBase<geode::modifier::ModifyDerive<hook281<(anonymous namespace)::hook281Parent>, PlayLayer> >::apply()
PUBLIC 13744 0 geode::modifier::AsStaticFunction_playEndAnimationToPos<hook281<(anonymous namespace)::hook281Parent>, void (hook281<(anonymous namespace)::hook281Parent>::*)(cocos2d::CCPoint)>::Impl<void (hook281<(anonymous namespace)::hook281Parent>::*)(cocos2d::CCPoint)>::function(hook281<(anonymous namespace)::hook281Parent>*, cocos2d::CCPoint)
PUBLIC 1380c 0 geode::modifier::ModifyDerive<hook291<(anonymous namespace)::hook291Parent>, GJBaseGameLayer>::apply()
PUBLIC 13f18 0 geode::modifier::ModifyBase<geode::modifier::ModifyDerive<hook291<(anonymous namespace)::hook291Parent>, GJBaseGameLayer> >::apply()
PUBLIC 13f1c 0 geode::modifier::AsStaticFunction_teleportPlayer<hook291<(anonymous namespace)::hook291Parent>, void (hook291<(anonymous namespace)::hook291Parent>::*)(TeleportPortalObject*, PlayerObject*)>::Impl<void (hook291<(anonymous namespace)::hook291Parent>::*)(TeleportPortalObject*, PlayerObject*)>::function(hook291<(anonymous namespace)::hook291Parent>*, TeleportPortalObject*, PlayerObject*)
PUBLIC 13fc4 0 geode::modifier::AsStaticFunction_toggleDualMode<hook291<(anonymous namespace)::hook291Parent>, void (hook291<(anonymous namespace)::hook291Parent>::*)(GameObject*, bool, PlayerObject*, bool)>::Impl<void (hook291<(anonymous namespace)::hook291Parent>::*)(GameObject*, bool, PlayerObject*, bool)>::function(hook291<(anonymous namespace)::hook291Parent>*, GameObject*, bool, PlayerObject*, bool)
PUBLIC m 140f4 0 geodeImplicitEntry
PUBLIC 14130 0 std::__ndk1::unordered_map<void*, bool, std::__ndk1::hash<void*>, std::__ndk1::equal_to<void*>, std::__ndk1::allocator<std::__ndk1::pair<void* const, bool> > >::~unordered_map[abi:ne180000]()
PUBLIC 1417c 0 wrapFunction(unsigned long, tulip::hook::WrapperMetadata const&)
PUBLIC 142b0 0 geode::impl::ResultData<void*, std::__ndk1::basic_string<char, std::__ndk1::char_traits<char>, std::__ndk1::allocator<char> > >::unwrapErr() &
PUBLIC 14328 0 geode::impl::ResultData<void*, std::__ndk1::basic_string<char, std::__ndk1::char_traits<char>, std::__ndk1::allocator<char> > >::~ResultData()
PUBLIC 1439c 0 tulip::hook::WrapperMetadata::~WrapperMetadata()
PUBLIC 14400 0 cocos2d::CCObject::~CCObject()
PUBLIC 14424 0 cocos2d::CCNode::~CCNode()
PUBLIC 14448 0 cocos2d::CCNodeRGBA::~CCNodeRGBA()
PUBLIC 1446c 0 cocos2d::CCSprite::~CCSprite()
PUBLIC 14490 0 cocos2d::CCNodeRGBA::~CCNodeRGBA()
PUBLIC 14720 0 cocos2d::CCSprite::~CCSprite()
PUBLIC 149b8 0 cocos2d::CCCopying::copyWithZone(cocos2d::CCZone*)
PUBLIC 149c0 0 cocos2d::CCObject::update(float)
PUBLIC 149c4 0 cocos2d::CCNodeRGBA::setOpacityModifyRGB(bool)
PUBLIC 149c8 0 cocos2d::CCNodeRGBA::isOpacityModifyRGB()
PUBLIC 149d0 0 {virtual override thunk({offset(-320)}, cocos2d::CCNodeRGBA::setOpacityModifyRGB(bool))}
PUBLIC 149d4 0 {virtual override thunk({offset(-320)}, cocos2d::CCNodeRGBA::isOpacityModifyRGB())}
PUBLIC 149dc 0 cocos2d::CCSprite::setBlendFunc(cocos2d::_ccBlendFunc)
PUBLIC 149e8 0 cocos2d::CCSprite::getBlendFunc()
PUBLIC 149f4 0 cocos2d::CCSprite::isDirty()
PUBLIC 149fc 0 cocos2d::CCSprite::setDirty(bool)
PUBLIC 14a04 0 {virtual override thunk({offset(-344)}, cocos2d::CCSprite::setBlendFunc(cocos2d::_ccBlendFunc))}
PUBLIC 14a0c 0 {virtual override thunk({offset(-344)}, cocos2d::CCSprite::getBlendFunc())}
PUBLIC 14a14 0 cocos2d::CCNode::~CCNode()
PUBLIC 14c8c 0 cocos2d::CCObject::~CCObject()
PUBLIC 15158 0 _ZN5geode15UnwrapExceptionC2IRPvQsr4implE18IsStringStreamableIT_EEENS_4impl5OkTagEOS4_
PUBLIC 152ac 0 std::__ndk1::__variant_detail::__visitation::__base::__dispatcher<(unsigned long)0>::__dispatch[abi:ne180000]<std::__ndk1::__variant_detail::__dtor<std::__ndk1::__variant_detail::__traits<void*, std::__ndk1::basic_string<char, std::__ndk1::char_traits<char>, std::__ndk1::allocator<char> > >, (std::__ndk1::__variant_detail::_Trait)1>::__destroy[abi:ne180000]()::{lambda(auto:1&)#1}, std::__ndk1::__variant_detail::__base<(std::__ndk1::__variant_detail::__traits<void*, std::__ndk1::basic_string<char, std::__ndk1::char_traits<char>, std::__ndk1::allocator<char> > >)1, std::__ndk1::__variant_detail::__traits, std::__ndk1::allocator<char> >&>(std::__ndk1::__variant_detail::__dtor<std::__ndk1::__variant_detail::__traits<void*, std::__ndk1::basic_string<char, std::__ndk1::char_traits<char>, std::__ndk1::allocator<char> > >, (std::__ndk1::__variant_detail::_Trait)1>, std::__ndk1::__variant_detail::__base<(std::__ndk1::__variant_detail::__traits<void*, std::__ndk1::basic_string<char, std::__ndk1::char_traits<char>, std::__ndk1::allocator<char> > >)1, std::__ndk1::__variant_detail::__traits, std::__ndk1::allocator<char> >&)
PUBLIC 152b0 0 std::__ndk1::__variant_detail::__visitation::__base::__dispatcher<(unsigned long)1>::__dispatch[abi:ne180000]<std::__ndk1::__variant_detail::__dtor<std::__ndk1::__variant_detail::__traits<void*, std::__ndk1::basic_string<char, std::__ndk1::char_traits<char>, std::__ndk1::allocator<char> > >, (std::__ndk1::__variant_detail::_Trait)1>::__destroy[abi:ne180000]()::{lambda(auto:1&)#1}, std::__ndk1::__variant_detail::__base<(std::__ndk1::__variant_detail::__traits<void*, std::__ndk1::basic_string<char, std::__ndk1::char_traits<char>, std::__ndk1::allocator<char> > >)1, std::__ndk1::__variant_detail::__traits, std::__ndk1::allocator<char> >&>(std::__ndk1::__variant_detail::__dtor<std::__ndk1::__variant_detail::__traits<void*, std::__ndk1::basic_string<char, std::__ndk1::char_traits<char>, std::__ndk1::allocator<char> > >, (std::__ndk1::__variant_detail::_Trait)1>, std::__ndk1::__variant_detail::__base<(std::__ndk1::__variant_detail::__traits<void*, std::__ndk1::basic_string<char, std::__ndk1::char_traits<char>, std::__ndk1::allocator<char> > >)1, std::__ndk1::__variant_detail::__traits, std::__ndk1::allocator<char> >&)
PUBLIC 152c4 0 std::__ndk1::__hash_table<std::__ndk1::__hash_value_type<void*, bool>, std::__ndk1::__unordered_map_hasher<void*, std::__ndk1::__hash_value_type<void*, bool>, std::__ndk1::hash<void*>, std::__ndk1::equal_to<void*>, true>, std::__ndk1::__unordered_map_equal<void*, std::__ndk1::__hash_value_type<void*, bool>, std::__ndk1::equal_to<void*>, std::__ndk1::hash<void*>, true>, std::__ndk1::allocator<std::__ndk1::__hash_value_type<void*, bool> > >::__emplace_unique_key_args<void*, std::__ndk1::piecewise_construct_t const&, std::__ndk1::tuple<void* const&>, std::__ndk1::tuple<> >(void* const&, std::__ndk1::piecewise_construct_t const&, std::__ndk1::tuple<void* const&>, std::__ndk1::tuple<>)
PUBLIC 157b0 0 <.plt ELF section in nytelyte.wave_trail_drag_fix.android64.so>
STACK CFI INIT c7a0 10 .cfa: sp 0 +
STACK CFI INIT c7b0 8 .cfa: sp 0 +
STACK CFI INIT c7b8 8 .cfa: sp 0 +
STACK CFI INIT c7c0 14 .cfa: sp 0 +
STACK CFI INIT c7d4 1c .cfa: sp 0 +
STACK CFI INIT c7f0 10 .cfa: sp 0 +
STACK CFI INIT c800 30 .cfa: sp 0 +
STACK CFI INIT c830 98 .cfa: sp 0 +
STACK CFI INIT c8c8 59c .cfa: sp 0 +
STACK CFI INIT ce64 8c .cfa: sp 0 +
STACK CFI INIT cef0 30 .cfa: sp 0 +
STACK CFI INIT d940 18 .cfa: sp 0 +
STACK CFI INIT e210 18 .cfa: sp 0 +
STACK CFI INIT e228 18 .cfa: sp 0 +
STACK CFI INIT f64c 50 .cfa: sp 0 +
STACK CFI f650 .cfa: sp 32 +
STACK CFI f658 .cfa: x29 32 + x19: .cfa -16 + ^ .ra: .cfa -24 + ^ x29: .cfa -32 + ^
STACK CFI f670 .cfa: sp 32 +
STACK CFI f678 .cfa: sp 0 +
STACK CFI f67c .cfa: x29 32 +
STACK CFI f690 .cfa: sp 32 +
STACK CFI f698 .cfa: sp 0 +
STACK CFI INIT f710 7c .cfa: sp 0 +
STACK CFI f714 .cfa: sp 48 +
STACK CFI f720 .cfa: x29 48 + x19: .cfa -8 + ^ x20: .cfa -16 + ^ x21: .cfa -32 + ^ .ra: .cfa -40 + ^ x29: .cfa -48 + ^
STACK CFI f76c .cfa: sp 48 +
STACK CFI f778 .cfa: sp 0 +
STACK CFI f77c .cfa: sp 48 +
STACK CFI f788 .cfa: sp 0 +
STACK CFI INIT f78c 4 .cfa: sp 0 +
STACK CFI INIT f790 10 .cfa: sp 0 +
STACK CFI f794 .cfa: sp 16 +
STACK CFI f798 .cfa: x29 16 + .ra: .cfa -8 + ^ x29: .cfa -16 + ^
STACK CFI INIT f814 14 .cfa: sp 0 +
STACK CFI f818 .cfa: sp 16 +
STACK CFI f81c .cfa: x29 16 + .ra: .cfa -8 + ^ x29: .cfa -16 + ^
STACK CFI INIT f878 30 .cfa: sp 0 +
STACK CFI f87c .cfa: sp 32 +
STACK CFI f884 .cfa: x29 32 + x19: .cfa -16 + ^ .ra: .cfa -24 + ^ x29: .cfa -32 + ^
STACK CFI f89c .cfa: sp 32 +
STACK CFI f8a4 .cfa: sp 0 +
STACK CFI INIT f8a8 34 .cfa: sp 0 +
STACK CFI f8ac .cfa: sp 32 +
STACK CFI f8b4 .cfa: x29 32 + x19: .cfa -16 + ^ .ra: .cfa -24 + ^ x29: .cfa -32 + ^
STACK CFI INIT f9ec 120 .cfa: sp 0 +
STACK CFI f9f0 .cfa: sp 64 +
STACK CFI fa00 .cfa: x29 64 + x19: .cfa -8 + ^ x20: .cfa -16 + ^ x21: .cfa -24 + ^ x22: .cfa -32 + ^ x23: .cfa -40 + ^ x24: .cfa -48 + ^ .ra: .cfa -56 + ^ x29: .cfa -64 + ^
STACK CFI faf8 .cfa: sp 64 +
STACK CFI fb08 .cfa: sp 0 +
STACK CFI INIT fb0c 80 .cfa: sp 0 +
STACK CFI fb10 .cfa: sp 48 +
STACK CFI fb1c .cfa: x29 48 + x19: .cfa -8 + ^ x20: .cfa -16 + ^ x21: .cfa -24 + ^ x22: .cfa -32 + ^ .ra: .cfa -40 + ^ x29: .cfa -48 + ^
STACK CFI fb34 .cfa: sp 48 +
STACK CFI fb40 .cfa: sp 0 +
STACK CFI fb44 .cfa: x29 48 +
STACK CFI fb74 .cfa: sp 48 +
STACK CFI fb80 .cfa: sp 0 +
STACK CFI fb84 .cfa: x29 48 +
STACK CFI INIT fb8c 1b0 .cfa: sp 0 +
STACK CFI INIT fe90 34 .cfa: sp 0 +
STACK CFI fe94 .cfa: sp 16 +
STACK CFI fe98 .cfa: x29 16 + .ra: .cfa -8 + ^ x29: .cfa -16 + ^
STACK CFI INIT fff0 80 .cfa: sp 0 +
STACK CFI fff4 .cfa: sp 48 +
STACK CFI 10000 .cfa: x29 48 + x19: .cfa -8 + ^ x20: .cfa -16 + ^ x21: .cfa -32 + ^ .ra: .cfa -40 + ^ x29: .cfa -48 + ^
STACK CFI 10060 .cfa: sp 48 +
STACK CFI 1006c .cfa: sp 0 +
STACK CFI INIT 10070 24 .cfa: sp 0 +
STACK CFI 10074 .cfa: sp 32 +
STACK CFI 1007c .cfa: x29 32 + x19: .cfa -16 + ^ .ra: .cfa -24 + ^ x29: .cfa -32 + ^
STACK CFI 10088 .cfa: sp 32 +
STACK CFI 10090 .cfa: sp 0 +
STACK CFI INIT 1058c 148 .cfa: sp 0 +
STACK CFI 10590 .cfa: sp 48 +
STACK CFI 1059c .cfa: x29 48 + x19: .cfa -8 + ^ x20: .cfa -16 + ^ x21: .cfa -32 + ^ .ra: .cfa -40 + ^ x29: .cfa -48 + ^
STACK CFI 106c4 .cfa: sp 48 +
STACK CFI 106d0 .cfa: sp 0 +
STACK CFI INIT 1083c 4 .cfa: sp 0 +
STACK CFI INIT 10840 4 .cfa: sp 0 +
STACK CFI INIT 10844 38 .cfa: sp 0 +
STACK CFI 10848 .cfa: sp 32 +
STACK CFI 10850 .cfa: x29 32 + x19: .cfa -16 + ^ .ra: .cfa -24 + ^ x29: .cfa -32 + ^
STACK CFI 10870 .cfa: sp 32 +
STACK CFI 10878 .cfa: sp 0 +
STACK CFI INIT 1087c 18 .cfa: sp 0 +
STACK CFI INIT 10894 4 .cfa: sp 0 +
STACK CFI INIT 10898 4 .cfa: sp 0 +
STACK CFI INIT 1089c 8 .cfa: sp 0 +
STACK CFI INIT 108a4 1c .cfa: sp 0 +
STACK CFI INIT 108c0 c .cfa: sp 0 +
STACK CFI INIT 108cc 4 .cfa: sp 0 +
STACK CFI INIT 10a2c 5c .cfa: sp 0 +
STACK CFI 10a30 .cfa: sp 32 +
STACK CFI 10a38 .cfa: x29 32 + x19: .cfa -16 + ^ .ra: .cfa -24 + ^ x29: .cfa -32 + ^
STACK CFI 10a7c .cfa: sp 32 +
STACK CFI 10a84 .cfa: sp 0 +
STACK CFI INIT 10a88 64 .cfa: sp 0 +
STACK CFI 10a8c .cfa: sp 32 +
STACK CFI 10a94 .cfa: x29 32 + x19: .cfa -16 + ^ .ra: .cfa -24 + ^ x29: .cfa -32 + ^
STACK CFI 10ae0 .cfa: sp 32 +
STACK CFI 10ae8 .cfa: sp 0 +
STACK CFI INIT 10aec fc .cfa: sp 0 +
STACK CFI 10af0 .cfa: sp 64 +
STACK CFI 10b00 .cfa: x29 64 + x19: .cfa -8 + ^ x20: .cfa -16 + ^ x21: .cfa -24 + ^ x22: .cfa -32 + ^ x23: .cfa -48 + ^ .ra: .cfa -56 + ^ x29: .cfa -64 + ^
STACK CFI 10b64 .cfa: sp 64 +
STACK CFI 10b74 .cfa: sp 0 +
STACK CFI 10b78 .cfa: x29 64 +
STACK CFI 10b94 .cfa: sp 64 +
STACK CFI 10ba4 .cfa: sp 0 +
STACK CFI 10ba8 .cfa: x29 64 +
STACK CFI 10bd4 .cfa: sp 64 +
STACK CFI 10be4 .cfa: sp 0 +
STACK CFI INIT 10be8 4 .cfa: sp 0 +
STACK CFI INIT 10bec 14 .cfa: sp 0 +
STACK CFI INIT 10e24 68 .cfa: sp 0 +
STACK CFI 10e28 .cfa: sp 32 +
STACK CFI 10e30 .cfa: x29 32 + x19: .cfa -8 + ^ x20: .cfa -16 + ^ .ra: .cfa -24 + ^ x29: .cfa -32 + ^
STACK CFI 10e48 .cfa: sp 32 +
STACK CFI 10e50 .cfa: sp 0 +
STACK CFI 10e54 .cfa: x29 32 +
STACK CFI 10e80 .cfa: sp 32 +
STACK CFI 10e88 .cfa: sp 0 +
STACK CFI INIT 10e8c 14 .cfa: sp 0 +
STACK CFI 10e90 .cfa: sp 16 +
STACK CFI 10e94 .cfa: x29 16 + .ra: .cfa -8 + ^ x29: .cfa -16 + ^
STACK CFI INIT 10ea0 4 .cfa: sp 0 +
STACK CFI INIT 10ea4 14 .cfa: sp 0 +
STACK CFI INIT 10eb8 4a4 .cfa: sp 0 +
STACK CFI 10ebc .cfa: sp 32 +
STACK CFI 10ec4 .cfa: x29 32 + x19: .cfa -8 + ^ x20: .cfa -16 + ^ .ra: .cfa -24 + ^ x29: .cfa -32 + ^
STACK CFI 112a4 .cfa: sp 32 +
STACK CFI 112ac .cfa: sp 0 +
STACK CFI 112b0 .cfa: x29 32 +
STACK CFI INIT 1135c 84 .cfa: sp 0 +
STACK CFI 11364 .cfa: sp 32 +
STACK CFI 1136c .cfa: x29 32 + x19: .cfa -8 + ^ x20: .cfa -16 + ^ .ra: .cfa -24 + ^ x29: .cfa -32 + ^
STACK CFI 113ac .cfa: sp 32 +
STACK CFI 113b4 .cfa: sp 0 +
STACK CFI 113bc .cfa: x29 32 +
STACK CFI INIT 11564 b8 .cfa: sp 0 +
STACK CFI 11568 .cfa: sp 64 +
STACK CFI 11578 .cfa: x29 32 + x19: .cfa -8 + ^ x20: .cfa -16 + ^ .ra: .cfa -24 + ^ x29: .cfa -32 + ^ v8: .cfa -48 + ^
STACK CFI 11604 .cfa: sp 64 +
STACK CFI 11614 .cfa: sp 0 +
STACK CFI 11618 .cfa: x29 32 +
STACK CFI INIT 11750 5c .cfa: sp 0 +
STACK CFI 11754 .cfa: sp 32 +
STACK CFI 1175c .cfa: x29 32 + x19: .cfa -16 + ^ .ra: .cfa -24 + ^ x29: .cfa -32 + ^
STACK CFI 117a0 .cfa: sp 32 +
STACK CFI 117a8 .cfa: sp 0 +
STACK CFI INIT 11930 3c .cfa: sp 0 +
STACK CFI 11934 .cfa: sp 32 +
STACK CFI 1193c .cfa: x29 32 + x19: .cfa -8 + ^ x20: .cfa -16 + ^ .ra: .cfa -24 + ^ x29: .cfa -32 + ^
STACK CFI 11960 .cfa: sp 32 +
STACK CFI 11968 .cfa: sp 0 +
STACK CFI INIT 1196c 18 .cfa: sp 0 +
STACK CFI INIT 11984 584 .cfa: sp 0 +
STACK CFI 11988 .cfa: sp 160 +
STACK CFI 119a8 .cfa: x29 64 + x19: .cfa -8 + ^ x20: .cfa -16 + ^ x21: .cfa -24 + ^ x22: .cfa -32 + ^ x23: .cfa -48 + ^ .ra: .cfa -56 + ^ x29: .cfa -64 + ^ v8: .cfa -72 + ^ v9: .cfa -80 + ^ v10: .cfa -88 + ^ v11: .cfa -96 + ^ v12: .cfa -104 + ^ v13: .cfa -112 + ^
STACK CFI 11acc .cfa: sp 160 +
STACK CFI 11aec .cfa: sp 0 +
STACK CFI 11af0 .cfa: x29 64 +
STACK CFI INIT 11f08 44 .cfa: sp 0 +
STACK CFI 11f0c .cfa: sp 48 +
STACK CFI 11f18 .cfa: x29 48 + x19: .cfa -8 + ^ x20: .cfa -16 + ^ x21: .cfa -32 + ^ .ra: .cfa -40 + ^ x29: .cfa -48 + ^
STACK CFI 11f3c .cfa: sp 48 +
STACK CFI 11f48 .cfa: sp 0 +
STACK CFI INIT 11f4c 198 .cfa: sp 0 +
STACK CFI 11f50 .cfa: sp 80 +
STACK CFI 11f64 .cfa: x29 64 + x19: .cfa -8 + ^ x20: .cfa -16 + ^ x21: .cfa -24 + ^ x22: .cfa -32 + ^ x23: .cfa -48 + ^ .ra: .cfa -56 + ^ x29: .cfa -64 + ^
STACK CFI 11fac .cfa: sp 80 +
STACK CFI 11fc0 .cfa: sp 0 +
STACK CFI 11fc4 .cfa: x29 64 +
STACK CFI 12040 .cfa: sp 80 +
STACK CFI 12054 .cfa: sp 0 +
STACK CFI 12058 .cfa: x29 64 +
STACK CFI 120c8 .cfa: sp 80 +
STACK CFI 120dc .cfa: sp 0 +
STACK CFI 120e0 .cfa: x29 64 +
STACK CFI INIT 120e4 110 .cfa: sp 0 +
STACK CFI 120e8 .cfa: sp 64 +
STACK CFI 120f8 .cfa: x29 48 + x19: .cfa -8 + ^ x20: .cfa -16 + ^ x21: .cfa -24 + ^ x22: .cfa -32 + ^ .ra: .cfa -40 + ^ x29: .cfa -48 + ^
STACK CFI 12150 .cfa: sp 64 +
STACK CFI 12160 .cfa: sp 0 +
STACK CFI 12164 .cfa: x29 48 +
STACK CFI 121dc .cfa: sp 64 +
STACK CFI 121ec .cfa: sp 0 +
STACK CFI 121f0 .cfa: x29 48 +
STACK CFI INIT 121f4 50 .cfa: sp 0 +
STACK CFI 121f8 .cfa: sp 48 +
STACK CFI 12204 .cfa: x29 48 + x19: .cfa -8 + ^ x20: .cfa -16 + ^ x21: .cfa -32 + ^ .ra: .cfa -40 + ^ x29: .cfa -48 + ^
STACK CFI 12234 .cfa: sp 48 +
STACK CFI 12240 .cfa: sp 0 +
STACK CFI INIT 125e4 78 .cfa: sp 0 +
STACK CFI 125e8 .cfa: sp 48 +
STACK CFI 125f4 .cfa: x29 48 + x19: .cfa -8 + ^ x20: .cfa -16 + ^ x21: .cfa -32 + ^ .ra: .cfa -40 + ^ x29: .cfa -48 + ^
STACK CFI 1263c .cfa: sp 48 +
STACK CFI 12648 .cfa: sp 0 +
STACK CFI 1264c .cfa: sp 48 +
STACK CFI 12658 .cfa: sp 0 +
STACK CFI INIT 1265c 78 .cfa: sp 0 +
STACK CFI 12660 .cfa: sp 48 +
STACK CFI 1266c .cfa: x29 48 + x19: .cfa -8 + ^ x20: .cfa -16 + ^ x21: .cfa -32 + ^ .ra: .cfa -40 + ^ x29: .cfa -48 + ^
STACK CFI 126b4 .cfa: sp 48 +
STACK CFI 126c0 .cfa: sp 0 +
STACK CFI 126c4 .cfa: sp 48 +
STACK CFI 126d0 .cfa: sp 0 +
STACK CFI INIT 126d4 78 .cfa: sp 0 +
STACK CFI 126d8 .cfa: sp 48 +
STACK CFI 126e4 .cfa: x29 48 + x19: .cfa -8 + ^ x20: .cfa -16 + ^ x21: .cfa -32 + ^ .ra: .cfa -40 + ^ x29: .cfa -48 + ^
STACK CFI 1272c .cfa: sp 48 +
STACK CFI 12738 .cfa: sp 0 +
STACK CFI 1273c .cfa: sp 48 +
STACK CFI 12748 .cfa: sp 0 +
STACK CFI INIT 1274c 48 .cfa: sp 0 +
STACK CFI 12750 .cfa: sp 32 +
STACK CFI 12758 .cfa: x29 32 + x19: .cfa -16 + ^ .ra: .cfa -24 + ^ x29: .cfa -32 + ^
STACK CFI 12788 .cfa: sp 32 +
STACK CFI 12790 .cfa: sp 0 +
STACK CFI INIT 12794 54 .cfa: sp 0 +
STACK CFI 1279c .cfa: sp 32 +
STACK CFI 127a4 .cfa: x29 32 + x19: .cfa -8 + ^ x20: .cfa -16 + ^ .ra: .cfa -24 + ^ x29: .cfa -32 + ^
STACK CFI 127dc .cfa: sp 32 +
STACK CFI 127e4 .cfa: sp 0 +
STACK CFI INIT 127e8 50 .cfa: sp 0 +
STACK CFI 127ec .cfa: sp 32 +
STACK CFI 127f4 .cfa: x29 32 + x19: .cfa -16 + ^ .ra: .cfa -24 + ^ x29: .cfa -32 + ^
STACK CFI 1280c .cfa: sp 32 +
STACK CFI 12814 .cfa: sp 0 +
STACK CFI 12818 .cfa: x29 32 +
STACK CFI 1282c .cfa: sp 32 +
STACK CFI 12834 .cfa: sp 0 +
STACK CFI INIT 12838 64 .cfa: sp 0 +
STACK CFI 1283c .cfa: sp 32 +
STACK CFI 12844 .cfa: x29 32 + x19: .cfa -16 + ^ .ra: .cfa -24 + ^ x29: .cfa -32 + ^
STACK CFI 12870 .cfa: sp 32 +
STACK CFI 12878 .cfa: sp 0 +
STACK CFI 1287c .cfa: x29 32 +
STACK CFI 12890 .cfa: sp 32 +
STACK CFI 12898 .cfa: sp 0 +
STACK CFI INIT 12f08 4 .cfa: sp 0 +
STACK CFI INIT 12f0c 14 .cfa: sp 0 +
STACK CFI 12f10 .cfa: sp 16 +
STACK CFI 12f14 .cfa: x29 16 + .ra: .cfa -8 + ^ x29: .cfa -16 + ^
STACK CFI INIT 12f20 14 .cfa: sp 0 +
STACK CFI 12f24 .cfa: sp 16 +
STACK CFI 12f28 .cfa: x29 16 + .ra: .cfa -8 + ^ x29: .cfa -16 + ^
STACK CFI INIT 12f34 c .cfa: sp 0 +
STACK CFI 12f38 .cfa: sp 16 +
STACK CFI 12f3c .cfa: x29 16 + .ra: .cfa -8 + ^ x29: .cfa -16 + ^
STACK CFI INIT 12f90 30 .cfa: sp 0 +
STACK CFI 12f94 .cfa: sp 32 +
STACK CFI 12f9c .cfa: x29 32 + x19: .cfa -16 + ^ .ra: .cfa -24 + ^ x29: .cfa -32 + ^
STACK CFI 12fb4 .cfa: sp 32 +
STACK CFI 12fbc .cfa: sp 0 +
STACK CFI INIT 12fc0 c .cfa: sp 0 +
STACK CFI 12fc4 .cfa: sp 16 +
STACK CFI 12fc8 .cfa: x29 16 + .ra: .cfa -8 + ^ x29: .cfa -16 + ^
STACK CFI INIT 12fcc 4 .cfa: sp 0 +
STACK CFI INIT 12fd0 4 .cfa: sp 0 +
STACK CFI INIT 12fd4 38 .cfa: sp 0 +
STACK CFI 12fd8 .cfa: sp 32 +
STACK CFI 12fe0 .cfa: x29 32 + x19: .cfa -16 + ^ .ra: .cfa -24 + ^ x29: .cfa -32 + ^
STACK CFI 13000 .cfa: sp 32 +
STACK CFI 13008 .cfa: sp 0 +
STACK CFI INIT 1300c 18 .cfa: sp 0 +
STACK CFI INIT 13024 4 .cfa: sp 0 +
STACK CFI INIT 13028 4 .cfa: sp 0 +
STACK CFI INIT 1302c 10 .cfa: sp 0 +
STACK CFI INIT 1303c 1c .cfa: sp 0 +
STACK CFI INIT 13058 c .cfa: sp 0 +
STACK CFI INIT 13064 168 .cfa: sp 0 +
STACK CFI 13068 .cfa: sp 80 +
STACK CFI 1307c .cfa: x29 80 + x19: .cfa -8 + ^ x20: .cfa -16 + ^ x21: .cfa -24 + ^ x22: .cfa -32 + ^ x23: .cfa -40 + ^ x24: .cfa -48 + ^ x25: .cfa -56 + ^ x26: .cfa -64 + ^ .ra: .cfa -72 + ^ x29: .cfa -80 + ^
STACK CFI 131b4 .cfa: sp 80 +
STACK CFI 131c8 .cfa: sp 0 +
STACK CFI INIT 13294 144 .cfa: sp 0 +
STACK CFI 13298 .cfa: sp 80 +
STACK CFI 132ac .cfa: x29 48 + x19: .cfa -8 + ^ x20: .cfa -16 + ^ x21: .cfa -24 + ^ x22: .cfa -32 + ^ .ra: .cfa -40 + ^ x29: .cfa -48 + ^ v8: .cfa -56 + ^ v9: .cfa -64 + ^
STACK CFI 133bc .cfa: sp 80 +
STACK CFI 133d0 .cfa: sp 0 +
STACK CFI 133d4 .cfa: x29 48 +
STACK CFI INIT 13740 4 .cfa: sp 0 +
STACK CFI INIT 13744 c8 .cfa: sp 0 +
STACK CFI 13748 .cfa: sp 80 +
STACK CFI 1375c .cfa: x29 40 + x19: .cfa -8 + ^ x20: .cfa -16 + ^ x21: .cfa -24 + ^ .ra: .cfa -32 + ^ x29: .cfa -40 + ^ v8: .cfa -48 + ^
STACK CFI 137f0 .cfa: sp 80 +
STACK CFI 13804 .cfa: sp 0 +
STACK CFI 13808 .cfa: x29 40 +
STACK CFI INIT 13f18 4 .cfa: sp 0 +
STACK CFI INIT 13f1c a8 .cfa: sp 0 +
STACK CFI 13f20 .cfa: sp 64 +
STACK CFI 13f30 .cfa: x29 48 + x19: .cfa -8 + ^ x20: .cfa -16 + ^ x21: .cfa -32 + ^ .ra: .cfa -40 + ^ x29: .cfa -48 + ^
STACK CFI 13fac .cfa: sp 64 +
STACK CFI 13fbc .cfa: sp 0 +
STACK CFI 13fc0 .cfa: x29 48 +
STACK CFI INIT 13fc4 130 .cfa: sp 0 +
STACK CFI 13fc8 .cfa: sp 128 +
STACK CFI 13fe0 .cfa: x29 56 + x19: .cfa -8 + ^ x20: .cfa -16 + ^ x21: .cfa -24 + ^ x22: .cfa -32 + ^ x23: .cfa -40 + ^ .ra: .cfa -48 + ^ x29: .cfa -56 + ^ v8: .cfa -64 + ^
STACK CFI 140a0 .cfa: sp 128 +
STACK CFI 140b8 .cfa: sp 0 +
STACK CFI 140bc .cfa: x29 56 +
STACK CFI 140d4 .cfa: sp 128 +
STACK CFI 140ec .cfa: sp 0 +
STACK CFI 140f0 .cfa: x29 56 +
STACK CFI INIT 140f4 3c .cfa: sp 0 +
STACK CFI 140f8 .cfa: sp 32 +
STACK CFI 14100 .cfa: x29 32 + x19: .cfa -16 + ^ .ra: .cfa -24 + ^ x29: .cfa -32 + ^
STACK CFI 1410c .cfa: sp 32 +
STACK CFI 14114 .cfa: sp 0 +
STACK CFI 14118 .cfa: x29 32 +
STACK CFI 14124 .cfa: sp 32 +
STACK CFI 1412c .cfa: sp 0 +
STACK CFI INIT 14130 4c .cfa: sp 0 +
STACK CFI 14134 .cfa: sp 32 +
STACK CFI 1413c .cfa: x29 32 + x19: .cfa -8 + ^ x20: .cfa -16 + ^ .ra: .cfa -24 + ^ x29: .cfa -32 + ^
STACK CFI 14164 .cfa: sp 32 +
STACK CFI 1416c .cfa: sp 0 +
STACK CFI 14170 .cfa: sp 32 +
STACK CFI 14178 .cfa: sp 0 +
STACK CFI INIT 1439c 64 .cfa: sp 0 +
STACK CFI 143a0 .cfa: sp 32 +
STACK CFI 143a8 .cfa: x29 32 + x19: .cfa -16 + ^ .ra: .cfa -24 + ^ x29: .cfa -32 + ^
STACK CFI 143d4 .cfa: sp 32 +
STACK CFI 143dc .cfa: sp 0 +
STACK CFI 143e0 .cfa: x29 32 +
STACK CFI 143f4 .cfa: sp 32 +
STACK CFI 143fc .cfa: sp 0 +
STACK CFI INIT 14400 24 .cfa: sp 0 +
STACK CFI 14404 .cfa: sp 32 +
STACK CFI 1440c .cfa: x29 32 + x19: .cfa -16 + ^ .ra: .cfa -24 + ^ x29: .cfa -32 + ^
STACK CFI 14418 .cfa: sp 32 +
STACK CFI 14420 .cfa: sp 0 +
STACK CFI INIT 14424 24 .cfa: sp 0 +
STACK CFI 14428 .cfa: sp 32 +
STACK CFI 14430 .cfa: x29 32 + x19: .cfa -16 + ^ .ra: .cfa -24 + ^ x29: .cfa -32 + ^
STACK CFI 1443c .cfa: sp 32 +
STACK CFI 14444 .cfa: sp 0 +
STACK CFI INIT 14448 24 .cfa: sp 0 +
STACK CFI 1444c .cfa: sp 32 +
STACK CFI 14454 .cfa: x29 32 + x19: .cfa -16 + ^ .ra: .cfa -24 + ^ x29: .cfa -32 + ^
STACK CFI 14460 .cfa: sp 32 +
STACK CFI 14468 .cfa: sp 0 +
STACK CFI INIT 1446c 24 .cfa: sp 0 +
STACK CFI 14470 .cfa: sp 32 +
STACK CFI 14478 .cfa: x29 32 + x19: .cfa -16 + ^ .ra: .cfa -24 + ^ x29: .cfa -32 + ^
STACK CFI 14484 .cfa: sp 32 +
STACK CFI 1448c .cfa: sp 0 +
STACK CFI INIT 149b8 8 .cfa: sp 0 +
STACK CFI INIT 149c0 4 .cfa: sp 0 +
STACK CFI INIT 149c4 4 .cfa: sp 0 +
STACK CFI INIT 149c8 8 .cfa: sp 0 +
STACK CFI INIT 149d0 4 .cfa: sp 0 +
STACK CFI INIT 149d4 8 .cfa: sp 0 +
STACK CFI INIT 149dc c .cfa: sp 0 +
STACK CFI INIT 149e8 c .cfa: sp 0 +
STACK CFI INIT 149f4 8 .cfa: sp 0 +
STACK CFI INIT 149fc 8 .cfa: sp 0 +
STACK CFI INIT 14a04 8 .cfa: sp 0 +
STACK CFI INIT 14a0c 8 .cfa: sp 0 +
STACK CFI INIT 152ac 4 .cfa: sp 0 +
STACK CFI INIT 152b0 14 .cfa: sp 0 +
STACK CFI INIT cf20 a20 .cfa: sp 0 +
STACK CFI cf24 .cfa: sp 304 +
STACK CFI cf40 .cfa: x29 96 + x19: .cfa -8 + ^ x20: .cfa -16 + ^ x21: .cfa -24 + ^ x22: .cfa -32 + ^ x23: .cfa -40 + ^ x24: .cfa -48 + ^ x25: .cfa -56 + ^ x26: .cfa -64 + ^ x27: .cfa -72 + ^ x28: .cfa -80 + ^ .ra: .cfa -88 + ^ x29: .cfa -96 + ^
STACK CFI d100 .cfa: sp 304 +
STACK CFI d11c .cfa: sp 0 +
STACK CFI d120 .cfa: x29 96 +
STACK CFI d744 .cfa: sp 304 +
STACK CFI d760 .cfa: sp 0 +
STACK CFI d764 .cfa: x29 96 +
STACK CFI INIT d958 45c .cfa: sp 0 +
STACK CFI d95c .cfa: sp 224 +
STACK CFI d978 .cfa: x29 96 + x19: .cfa -8 + ^ x20: .cfa -16 + ^ x21: .cfa -24 + ^ x22: .cfa -32 + ^ x23: .cfa -40 + ^ x24: .cfa -48 + ^ x25: .cfa -56 + ^ x26: .cfa -64 + ^ x27: .cfa -72 + ^ x28: .cfa -80 + ^ .ra: .cfa -88 + ^ x29: .cfa -96 + ^
STACK CFI dc9c .cfa: sp 224 +
STACK CFI dcb8 .cfa: sp 0 +
STACK CFI dcbc .cfa: x29 96 +
STACK CFI INIT ddb4 45c .cfa: sp 0 +
STACK CFI ddb8 .cfa: sp 224 +
STACK CFI ddd4 .cfa: x29 96 + x19: .cfa -8 + ^ x20: .cfa -16 + ^ x21: .cfa -24 + ^ x22: .cfa -32 + ^ x23: .cfa -40 + ^ x24: .cfa -48 + ^ x25: .cfa -56 + ^ x26: .cfa -64 + ^ x27: .cfa -72 + ^ x28: .cfa -80 + ^ .ra: .cfa -88 + ^ x29: .cfa -96 + ^
STACK CFI e0f8 .cfa: sp 224 +
STACK CFI e114 .cfa: sp 0 +
STACK CFI e118 .cfa: x29 96 +
STACK CFI INIT e240 140c .cfa: sp 0 +
STACK CFI e244 .cfa: sp 288 +
STACK CFI e260 .cfa: x29 96 + x19: .cfa -8 + ^ x20: .cfa -16 + ^ x21: .cfa -24 + ^ x22: .cfa -32 + ^ x23: .cfa -40 + ^ x24: .cfa -48 + ^ x25: .cfa -56 + ^ x26: .cfa -64 + ^ x27: .cfa -72 + ^ x28: .cfa -80 + ^ .ra: .cfa -88 + ^ x29: .cfa -96 + ^
STACK CFI f0d4 .cfa: sp 288 +
STACK CFI f0f0 .cfa: sp 0 +
STACK CFI f0f4 .cfa: x29 96 +
STACK CFI INIT f69c 74 .cfa: sp 0 +
STACK CFI f6a0 .cfa: sp 48 +
STACK CFI f6ac .cfa: x29 32 + x19: .cfa -8 + ^ x20: .cfa -16 + ^ .ra: .cfa -24 + ^ x29: .cfa -32 + ^
STACK CFI f6f8 .cfa: sp 48 +
STACK CFI f704 .cfa: sp 0 +
STACK CFI f708 .cfa: x29 32 +
STACK CFI INIT f7a0 74 .cfa: sp 0 +
STACK CFI f7a4 .cfa: sp 48 +
STACK CFI f7b0 .cfa: x29 32 + x19: .cfa -8 + ^ x20: .cfa -16 + ^ .ra: .cfa -24 + ^ x29: .cfa -32 + ^
STACK CFI f7fc .cfa: sp 48 +
STACK CFI f808 .cfa: sp 0 +
STACK CFI f80c .cfa: x29 32 +
STACK CFI INIT f828 50 .cfa: sp 0 +
STACK CFI f82c .cfa: sp 32 +
STACK CFI f834 .cfa: x29 32 + x19: .cfa -8 + ^ x20: .cfa -16 + ^ .ra: .cfa -24 + ^ x29: .cfa -32 + ^
STACK CFI INIT f8dc 110 .cfa: sp 0 +
STACK CFI f8e0 .cfa: sp 96 +
STACK CFI f8f4 .cfa: x29 64 + x19: .cfa -8 + ^ x20: .cfa -16 + ^ x21: .cfa -24 + ^ x22: .cfa -32 + ^ x23: .cfa -40 + ^ x24: .cfa -48 + ^ .ra: .cfa -56 + ^ x29: .cfa -64 + ^
STACK CFI f93c .cfa: sp 96 +
STACK CFI f950 .cfa: sp 0 +
STACK CFI f954 .cfa: x29 64 +
STACK CFI INIT fd3c 154 .cfa: sp 0 +
STACK CFI fd40 .cfa: sp 384 +
STACK CFI fd54 .cfa: x29 64 + x19: .cfa -8 + ^ x20: .cfa -16 + ^ x21: .cfa -24 + ^ x22: .cfa -32 + ^ x23: .cfa -40 + ^ x28: .cfa -48 + ^ .ra: .cfa -56 + ^ x29: .cfa -64 + ^
STACK CFI fe38 .cfa: sp 384 +
STACK CFI fe4c .cfa: sp 0 +
STACK CFI fe50 .cfa: x29 64 +
STACK CFI INIT fec4 12c .cfa: sp 0 +
STACK CFI fec8 .cfa: sp 80 +
STACK CFI fedc .cfa: x29 80 + x19: .cfa -8 + ^ x20: .cfa -16 + ^ x21: .cfa -24 + ^ x22: .cfa -32 + ^ x23: .cfa -40 + ^ x24: .cfa -48 + ^ x25: .cfa -56 + ^ x26: .cfa -64 + ^ .ra: .cfa -72 + ^ x29: .cfa -80 + ^
STACK CFI ffa4 .cfa: sp 80 +
STACK CFI ffb8 .cfa: sp 0 +
STACK CFI ffbc .cfa: x29 80 +
STACK CFI INIT 10094 1a4 .cfa: sp 0 +
STACK CFI 10098 .cfa: sp 112 +
STACK CFI 100b0 .cfa: x29 80 + x19: .cfa -8 + ^ x20: .cfa -16 + ^ x21: .cfa -24 + ^ x22: .cfa -32 + ^ x23: .cfa -40 + ^ x24: .cfa -48 + ^ x25: .cfa -56 + ^ x26: .cfa -64 + ^ .ra: .cfa -72 + ^ x29: .cfa -80 + ^
STACK CFI 101a0 .cfa: sp 112 +
STACK CFI 101b8 .cfa: sp 0 +
STACK CFI 101bc .cfa: x29 80 +
STACK CFI INIT 10238 1dc .cfa: sp 0 +
STACK CFI 1023c .cfa: sp 128 +
STACK CFI 10258 .cfa: x29 96 + x19: .cfa -8 + ^ x20: .cfa -16 + ^ x21: .cfa -24 + ^ x22: .cfa -32 + ^ x23: .cfa -40 + ^ x24: .cfa -48 + ^ x25: .cfa -56 + ^ x26: .cfa -64 + ^ x27: .cfa -80 + ^ .ra: .cfa -88 + ^ x29: .cfa -96 + ^
STACK CFI 103c4 .cfa: sp 128 +
STACK CFI 103e0 .cfa: sp 0 +
STACK CFI 103e4 .cfa: x29 96 +
STACK CFI INIT 10414 178 .cfa: sp 0 +
STACK CFI 10418 .cfa: sp 80 +
STACK CFI 1042c .cfa: x29 80 + x19: .cfa -8 + ^ x20: .cfa -16 + ^ x21: .cfa -24 + ^ x22: .cfa -32 + ^ x23: .cfa -40 + ^ x24: .cfa -48 + ^ x25: .cfa -64 + ^ .ra: .cfa -72 + ^ x29: .cfa -80 + ^
STACK CFI 10558 .cfa: sp 80 +
STACK CFI 1056c .cfa: sp 0 +
STACK CFI 10570 .cfa: x29 80 +
STACK CFI INIT 106d4 168 .cfa: sp 0 +
STACK CFI 106d8 .cfa: sp 384 +
STACK CFI 106ec .cfa: x29 64 + x19: .cfa -8 + ^ x20: .cfa -16 + ^ x21: .cfa -24 + ^ x22: .cfa -32 + ^ x23: .cfa -40 + ^ x28: .cfa -48 + ^ .ra: .cfa -56 + ^ x29: .cfa -64 + ^
STACK CFI 107e4 .cfa: sp 384 +
STACK CFI 107f8 .cfa: sp 0 +
STACK CFI 107fc .cfa: x29 64 +
STACK CFI INIT 108d0 15c .cfa: sp 0 +
STACK CFI 108d4 .cfa: sp 112 +
STACK CFI 108e4 .cfa: x29 48 + x19: .cfa -8 + ^ x20: .cfa -16 + ^ x21: .cfa -24 + ^ x22: .cfa -32 + ^ .ra: .cfa -40 + ^ x29: .cfa -48 + ^
STACK CFI 109c8 .cfa: sp 112 +
STACK CFI 109d8 .cfa: sp 0 +
STACK CFI 109dc .cfa: x29 48 +
STACK CFI INIT 10c00 224 .cfa: sp 0 +
STACK CFI 10c04 .cfa: sp 128 +
STACK CFI 10c1c .cfa: x29 80 + x19: .cfa -8 + ^ x20: .cfa -16 + ^ x21: .cfa -24 + ^ x22: .cfa -32 + ^ x23: .cfa -40 + ^ x24: .cfa -48 + ^ x25: .cfa -64 + ^ .ra: .cfa -72 + ^ x29: .cfa -80 + ^
STACK CFI 10db8 .cfa: sp 128 +
STACK CFI 10dd0 .cfa: sp 0 +
STACK CFI 10dd4 .cfa: x29 80 +
STACK CFI INIT 113e0 184 .cfa: sp 0 +
STACK CFI 113e4 .cfa: sp 144 +
STACK CFI 113fc .cfa: x29 80 + x19: .cfa -8 + ^ x20: .cfa -16 + ^ x21: .cfa -24 + ^ x22: .cfa -32 + ^ x23: .cfa -40 + ^ x24: .cfa -48 + ^ x25: .cfa -56 + ^ x26: .cfa -64 + ^ .ra: .cfa -72 + ^ x29: .cfa -80 + ^
STACK CFI 114fc .cfa: sp 144 +
STACK CFI 11514 .cfa: sp 0 +
STACK CFI 11518 .cfa: x29 80 +
STACK CFI INIT 1161c 134 .cfa: sp 0 +
STACK CFI 11620 .cfa: sp 128 +
STACK CFI 11634 .cfa: x29 64 + x19: .cfa -8 + ^ x20: .cfa -16 + ^ x21: .cfa -24 + ^ x22: .cfa -32 + ^ x23: .cfa -40 + ^ x24: .cfa -48 + ^ .ra: .cfa -56 + ^ x29: .cfa -64 + ^
STACK CFI 11700 .cfa: sp 128 +
STACK CFI 11714 .cfa: sp 0 +
STACK CFI 11718 .cfa: x29 64 +
STACK CFI INIT 117ac 184 .cfa: sp 0 +
STACK CFI 117b0 .cfa: sp 160 +
STACK CFI 117c8 .cfa: x29 80 + x19: .cfa -8 + ^ x20: .cfa -16 + ^ x21: .cfa -24 + ^ x22: .cfa -32 + ^ x23: .cfa -40 + ^ x24: .cfa -48 + ^ x25: .cfa -56 + ^ x26: .cfa -64 + ^ .ra: .cfa -72 + ^ x29: .cfa -80 + ^
STACK CFI 118c8 .cfa: sp 160 +
STACK CFI 118e0 .cfa: sp 0 +
STACK CFI 118e4 .cfa: x29 80 +
STACK CFI INIT 12244 c8 .cfa: sp 0 +
STACK CFI 12248 .cfa: sp 32 +
STACK CFI 12250 .cfa: x29 32 + x19: .cfa -8 + ^ x20: .cfa -16 + ^ .ra: .cfa -24 + ^ x29: .cfa -32 + ^
STACK CFI 12284 .cfa: sp 32 +
STACK CFI 1228c .cfa: sp 0 +
STACK CFI 12290 .cfa: x29 32 +
STACK CFI 12294 .cfa: sp 32 +
STACK CFI 1229c .cfa: sp 0 +
STACK CFI 122a0 .cfa: x29 32 +
STACK CFI INIT 1230c 2bc .cfa: sp 0 +
STACK CFI 12310 .cfa: sp 48 +
STACK CFI 1231c .cfa: x29 32 + x19: .cfa -8 + ^ x20: .cfa -16 + ^ .ra: .cfa -24 + ^ x29: .cfa -32 + ^ v8: .cfa -48 + ^
STACK CFI 12528 .cfa: sp 48 +
STACK CFI 12534 .cfa: sp 0 +
STACK CFI 12538 .cfa: x29 32 +
STACK CFI INIT 125c8 1c .cfa: sp 0 +
STACK CFI 125cc .cfa: sp 16 +
STACK CFI 125d0 .cfa: x29 16 + .ra: .cfa -8 + ^ x29: .cfa -16 + ^
STACK CFI 125d8 .cfa: sp 16 +
STACK CFI 125dc .cfa: sp 0 +
STACK CFI 125e0 .cfa: x29 16 +
STACK CFI INIT 1289c 66c .cfa: sp 0 +
STACK CFI 128a0 .cfa: sp 224 +
STACK CFI 128bc .cfa: x29 96 + x19: .cfa -8 + ^ x20: .cfa -16 + ^ x21: .cfa -24 + ^ x22: .cfa -32 + ^ x23: .cfa -40 + ^ x24: .cfa -48 + ^ x25: .cfa -56 + ^ x26: .cfa -64 + ^ x27: .cfa -72 + ^ x28: .cfa -80 + ^ .ra: .cfa -88 + ^ x29: .cfa -96 + ^
STACK CFI 12d98 .cfa: sp 224 +
STACK CFI 12db4 .cfa: sp 0 +
STACK CFI 12db8 .cfa: x29 96 +
STACK CFI INIT 12f40 50 .cfa: sp 0 +
STACK CFI 12f44 .cfa: sp 32 +
STACK CFI 12f4c .cfa: x29 32 + x19: .cfa -8 + ^ x20: .cfa -16 + ^ .ra: .cfa -24 + ^ x29: .cfa -32 + ^
STACK CFI INIT 131cc c8 .cfa: sp 0 +
STACK CFI 131d0 .cfa: sp 32 +
STACK CFI 131d8 .cfa: x29 32 + x19: .cfa -8 + ^ x20: .cfa -16 + ^ .ra: .cfa -24 + ^ x29: .cfa -32 + ^
STACK CFI 1320c .cfa: sp 32 +
STACK CFI 13214 .cfa: sp 0 +
STACK CFI 13218 .cfa: x29 32 +
STACK CFI 1321c .cfa: sp 32 +
STACK CFI 13224 .cfa: sp 0 +
STACK CFI 13228 .cfa: x29 32 +
STACK CFI INIT 133d8 368 .cfa: sp 0 +
STACK CFI 133dc .cfa: sp 240 +
STACK CFI 133f0 .cfa: x29 64 + x19: .cfa -8 + ^ x20: .cfa -16 + ^ x21: .cfa -24 + ^ x22: .cfa -32 + ^ x23: .cfa -48 + ^ .ra: .cfa -56 + ^ x29: .cfa -64 + ^
STACK CFI 13614 .cfa: sp 240 +
STACK CFI 13628 .cfa: sp 0 +
STACK CFI 1362c .cfa: x29 64 +
STACK CFI INIT 1380c 70c .cfa: sp 0 +
STACK CFI 13810 .cfa: sp 304 +
STACK CFI 1382c .cfa: x29 96 + x19: .cfa -8 + ^ x20: .cfa -16 + ^ x21: .cfa -24 + ^ x22: .cfa -32 + ^ x23: .cfa -40 + ^ x24: .cfa -48 + ^ x25: .cfa -56 + ^ x26: .cfa -64 + ^ x27: .cfa -72 + ^ x28: .cfa -80 + ^ .ra: .cfa -88 + ^ x29: .cfa -96 + ^
STACK CFI 13d14 .cfa: sp 304 +
STACK CFI 13d30 .cfa: sp 0 +
STACK CFI 13d34 .cfa: x29 96 +
STACK CFI INIT 1417c 134 .cfa: sp 0 +
STACK CFI 14180 .cfa: sp 80 +
STACK CFI 1418c .cfa: x29 32 + x19: .cfa -8 + ^ x20: .cfa -16 + ^ .ra: .cfa -24 + ^ x29: .cfa -32 + ^
STACK CFI 141bc .cfa: sp 80 +
STACK CFI 141c8 .cfa: sp 0 +
STACK CFI 141cc .cfa: x29 32 +
STACK CFI INIT 142b0 78 .cfa: sp 0 +
STACK CFI 142b4 .cfa: sp 32 +
STACK CFI 142bc .cfa: x29 32 + x19: .cfa -8 + ^ x20: .cfa -16 + ^ .ra: .cfa -24 + ^ x29: .cfa -32 + ^
STACK CFI 142c8 .cfa: sp 32 +
STACK CFI 142d0 .cfa: sp 0 +
STACK CFI 142d4 .cfa: x29 32 +
STACK CFI INIT 14328 74 .cfa: sp 0 +
STACK CFI 1432c .cfa: sp 48 +
STACK CFI 14338 .cfa: x29 32 + x19: .cfa -8 + ^ x20: .cfa -16 + ^ .ra: .cfa -24 + ^ x29: .cfa -32 + ^
STACK CFI 14384 .cfa: sp 48 +
STACK CFI 14390 .cfa: sp 0 +
STACK CFI 14394 .cfa: x29 32 +
STACK CFI INIT 14490 290 .cfa: sp 0 +
STACK CFI 14494 .cfa: sp 128 +
STACK CFI 144a8 .cfa: x29 64 + x19: .cfa -8 + ^ x20: .cfa -16 + ^ x21: .cfa -24 + ^ x22: .cfa -32 + ^ x23: .cfa -48 + ^ .ra: .cfa -56 + ^ x29: .cfa -64 + ^
STACK CFI 145cc .cfa: sp 128 +
STACK CFI 145e0 .cfa: sp 0 +
STACK CFI 145e4 .cfa: x29 64 +
STACK CFI INIT 14720 298 .cfa: sp 0 +
STACK CFI 14724 .cfa: sp 128 +
STACK CFI 14738 .cfa: x29 64 + x19: .cfa -8 + ^ x20: .cfa -16 + ^ x21: .cfa -24 + ^ x22: .cfa -32 + ^ x23: .cfa -48 + ^ .ra: .cfa -56 + ^ x29: .cfa -64 + ^
STACK CFI 14864 .cfa: sp 128 +
STACK CFI 14878 .cfa: sp 0 +
STACK CFI 1487c .cfa: x29 64 +
STACK CFI INIT 14a14 278 .cfa: sp 0 +
STACK CFI 14a18 .cfa: sp 128 +
STACK CFI 14a2c .cfa: x29 64 + x19: .cfa -8 + ^ x20: .cfa -16 + ^ x21: .cfa -24 + ^ x22: .cfa -32 + ^ x23: .cfa -48 + ^ .ra: .cfa -56 + ^ x29: .cfa -64 + ^
STACK CFI 14b38 .cfa: sp 128 +
STACK CFI 14b4c .cfa: sp 0 +
STACK CFI 14b50 .cfa: x29 64 +
STACK CFI INIT 14c8c 4cc .cfa: sp 0 +
STACK CFI 14c90 .cfa: sp 128 +
STACK CFI 14ca4 .cfa: x29 64 + x19: .cfa -8 + ^ x20: .cfa -16 + ^ x21: .cfa -24 + ^ x22: .cfa -32 + ^ x23: .cfa -48 + ^ .ra: .cfa -56 + ^ x29: .cfa -64 + ^
STACK CFI 14fb0 .cfa: sp 128 +
STACK CFI 14fc4 .cfa: sp 0 +
STACK CFI 14fc8 .cfa: x29 64 +
STACK CFI INIT 15158 154 .cfa: sp 0 +
STACK CFI 1515c .cfa: sp 384 +
STACK CFI 15170 .cfa: x29 64 + x19: .cfa -8 + ^ x20: .cfa -16 + ^ x21: .cfa -24 + ^ x22: .cfa -32 + ^ x23: .cfa -40 + ^ x28: .cfa -48 + ^ .ra: .cfa -56 + ^ x29: .cfa -64 + ^
STACK CFI 15254 .cfa: sp 384 +
STACK CFI 15268 .cfa: sp 0 +
STACK CFI 1526c .cfa: x29 64 +
STACK CFI INIT 152c4 4e0 .cfa: sp 0 +
STACK CFI 152c8 .cfa: sp 64 +
STACK CFI 152d8 .cfa: x29 64 + x19: .cfa -8 + ^ x20: .cfa -16 + ^ x21: .cfa -24 + ^ x22: .cfa -32 + ^ x23: .cfa -40 + ^ x24: .cfa -48 + ^ .ra: .cfa -56 + ^ x29: .cfa -64 + ^
STACK CFI 15778 .cfa: sp 64 +
STACK CFI 15788 .cfa: sp 0 +
STACK CFI 1578c .cfa: x29 64 +
