MODULE Linux arm64 1113492273ED714F62D954D3DA1B21DC0 bitz.fakegdmod.android64.so
INFO CODE_ID 22491311ED734F7162D954D3DA1B21DCBA0DA424
INFO GENERATOR mozilla/dump_syms 2.3.4
PUBLIC 4e80 0 __on_dlclose
PUBLIC 4e90 0 __emutls_unregister_key
PUBLIC 4e98 0 __on_dlclose_late
PUBLIC 4ea0 0 __atexit_handler_wrapper
PUBLIC 4eb4 0 atexit
PUBLIC 4ed0 0 pthread_atfork
PUBLIC 4ee0 0 __aarch64_ldadd8_relax
PUBLIC 4f10 0 init_have_lse_atomics
PUBLIC 4fa8 0 __init_cpu_features_constructor
PUBLIC 5544 0 __init_cpu_features
PUBLIC 55d0 0 __aarch64_ldadd8_acq_rel
PUBLIC 5600 0 __cxx_global_var_init
PUBLIC 5a5c 0 __cxx_global_var_init.1
PUBLIC 5eb8 0 __cxx_global_var_init.2
PUBLIC 6314 0 __cxx_global_var_init.3
PUBLIC 6770 0 __cxx_global_var_init.4
PUBLIC 6bcc 0 geode::modifier::ModifyBase<geode::modifier::ModifyDerive<hook70<(anonymous namespace)::hook70Parent>, SupportLayer> >::~ModifyBase()
PUBLIC 6be4 0 geode::modifier::ModifyBase<geode::modifier::ModifyDerive<hook93<(anonymous namespace)::hook93Parent>, ProfilePage> >::~ModifyBase()
PUBLIC 6bfc 0 geode::modifier::ModifyBase<geode::modifier::ModifyDerive<hook110<(anonymous namespace)::hook110Parent>, RateStarsLayer> >::~ModifyBase()
PUBLIC 6c14 0 geode::modifier::ModifyBase<geode::modifier::ModifyDerive<hook131<(anonymous namespace)::hook131Parent>, RateDemonLayer> >::~ModifyBase()
PUBLIC 6c2c 0 geode::modifier::ModifyBase<geode::modifier::ModifyDerive<hook145<(anonymous namespace)::hook145Parent>, LevelInfoLayer> >::~ModifyBase()
PUBLIC 6c44 0 geode::modifier::ModifyDerive<hook70<(anonymous namespace)::hook70Parent>, SupportLayer>::apply()
PUBLIC 6fb8 0 std::__ndk1::shared_ptr<geode::Hook>::~shared_ptr[abi:ne180000]()
PUBLIC 7008 0 geode::impl::ResultData<geode::Hook*, std::__ndk1::basic_string<char, std::__ndk1::char_traits<char>, std::__ndk1::allocator<char> > >::~ResultData()
PUBLIC 707c 0 std::__ndk1::vector<std::__ndk1::basic_string<char, std::__ndk1::char_traits<char>, std::__ndk1::allocator<char> >, std::__ndk1::allocator<std::__ndk1::basic_string<char, std::__ndk1::char_traits<char>, std::__ndk1::allocator<char> > > >::~vector[abi:ne180000]()
PUBLIC 70f8 0 geode::modifier::ModifyBase<geode::modifier::ModifyDerive<hook70<(anonymous namespace)::hook70Parent>, SupportLayer> >::apply()
PUBLIC 70fc 0 __clang_call_terminate
PUBLIC 710c 0 _ZN5geode15UnwrapExceptionC2IRPNS_4HookEQsr4implE18IsStringStreamableIT_EEENS_4impl5OkTagEOS5_
PUBLIC 7260 0 std::__ndk1::__throw_bad_variant_access[abi:ne180000]()
PUBLIC 7294 0 std::__ndk1::basic_stringstream<char, std::__ndk1::char_traits<char>, std::__ndk1::allocator<char> >::basic_stringstream[abi:ne180000]()
PUBLIC m 73c0 0 std::__ndk1::basic_stringstream<char, std::__ndk1::char_traits<char>, std::__ndk1::allocator<char> >::~basic_stringstream()
PUBLIC 7440 0 geode::UnwrapException::~UnwrapException()
PUBLIC 7464 0 std::__ndk1::__put_character_sequence[abi:ne180000]<char, std::__ndk1::char_traits<char> >(std::__ndk1::basic_ostream<char, std::__ndk1::char_traits<char> >, std::__ndk1::basic_ostream const*, unsigned long)
PUBLIC 7608 0 std::__ndk1::__pad_and_output[abi:ne180000]<char, std::__ndk1::char_traits<char> >(std::__ndk1::char_traits<char>, std::__ndk1::ostreambuf_iterator const*, std::__ndk1::ostreambuf_iterator const, std::__ndk1::ostreambuf_iterator const, std::__ndk1::ios_base&, std::__ndk1::ostreambuf_iterator)
PUBLIC 77e4 0 std::__ndk1::basic_string<char, std::__ndk1::char_traits<char>, std::__ndk1::allocator<char> >::__throw_length_error[abi:ne180000]() const
PUBLIC 77f8 0 std::__ndk1::__throw_length_error[abi:ne180000](char const*)
PUBLIC 7848 0 std::length_error::length_error[abi:ne180000](char const*)
PUBLIC 7878 0 std::__throw_bad_array_new_length([abi:ne180000], void)
PUBLIC 78ac 0 std::__ndk1::basic_stringbuf<char, std::__ndk1::char_traits<char>, std::__ndk1::allocator<char> >::str[abi:ne180000]() &&
PUBLIC 7a24 0 std::__ndk1::basic_stringbuf<char, std::__ndk1::char_traits<char>, std::__ndk1::allocator<char> >::__init_buf_ptrs[abi:ne180000]()
PUBLIC 7b6c 0 std::__ndk1::vector<std::__ndk1::basic_string<char, std::__ndk1::char_traits<char>, std::__ndk1::allocator<char> >, std::__ndk1::allocator<std::__ndk1::basic_string<char, std::__ndk1::char_traits<char>, std::__ndk1::allocator<char> > > >::__push_back_slow_path<std::__ndk1::basic_string<char, std::__ndk1::char_traits<char>, std::__ndk1::allocator<char> > const&>(std::__ndk1::basic_string<char, std::__ndk1::char_traits<char>, std::__ndk1::allocator<char> > const&)
PUBLIC 7d90 0 std::__ndk1::basic_string<char, std::__ndk1::char_traits<char>, std::__ndk1::allocator<char> >::__init_copy_ctor_external(char const*, unsigned long)
PUBLIC 7e10 0 std::__ndk1::__split_buffer<std::__ndk1::basic_string<char, std::__ndk1::char_traits<char>, std::__ndk1::allocator<char> >, std::__ndk1::allocator<std::__ndk1::basic_string<char, std::__ndk1::char_traits<char>, std::__ndk1::allocator<char> > >&>::~__split_buffer()
PUBLIC 7e78 0 std::__ndk1::vector<std::__ndk1::basic_string<char, std::__ndk1::char_traits<char>, std::__ndk1::allocator<char> >, std::__ndk1::allocator<std::__ndk1::basic_string<char, std::__ndk1::char_traits<char>, std::__ndk1::allocator<char> > > >::__throw_length_error[abi:ne180000]() const
PUBLIC 7e8c 0 std::__ndk1::__variant_detail::__visitation::__base::__dispatcher<(unsigned long)0>::__dispatch[abi:ne180000]<std::__ndk1::__variant_detail::__dtor<std::__ndk1::__variant_detail::__traits<geode::Hook*, std::__ndk1::basic_string<char, std::__ndk1::char_traits<char>, std::__ndk1::allocator<char> > >, (std::__ndk1::__variant_detail::_Trait)1>::__destroy[abi:ne180000]()::{lambda(auto:1&)#1}, std::__ndk1::__variant_detail::__base<(std::__ndk1::__variant_detail::__traits<geode::Hook*, std::__ndk1::basic_string<char, std::__ndk1::char_traits<char>, std::__ndk1::allocator<char> > >)1, geode::Hook, std::__ndk1::allocator<char> >&>(std::__ndk1::__variant_detail::__dtor<std::__ndk1::__variant_detail::__traits<geode::Hook*, std::__ndk1::basic_string<char, std::__ndk1::char_traits<char>, std::__ndk1::allocator<char> > >, (std::__ndk1::__variant_detail::_Trait)1>, std::__ndk1::__variant_detail::__base<(std::__ndk1::__variant_detail::__traits<geode::Hook*, std::__ndk1::basic_string<char, std::__ndk1::char_traits<char>, std::__ndk1::allocator<char> > >)1, geode::Hook, std::__ndk1::allocator<char> >&)
PUBLIC 7e90 0 std::__ndk1::__variant_detail::__visitation::__base::__dispatcher<(unsigned long)1>::__dispatch[abi:ne180000]<std::__ndk1::__variant_detail::__dtor<std::__ndk1::__variant_detail::__traits<geode::Hook*, std::__ndk1::basic_string<char, std::__ndk1::char_traits<char>, std::__ndk1::allocator<char> > >, (std::__ndk1::__variant_detail::_Trait)1>::__destroy[abi:ne180000]()::{lambda(auto:1&)#1}, std::__ndk1::__variant_detail::__base<(std::__ndk1::__variant_detail::__traits<geode::Hook*, std::__ndk1::basic_string<char, std::__ndk1::char_traits<char>, std::__ndk1::allocator<char> > >)1, geode::Hook, std::__ndk1::allocator<char> >&>(std::__ndk1::__variant_detail::__dtor<std::__ndk1::__variant_detail::__traits<geode::Hook*, std::__ndk1::basic_string<char, std::__ndk1::char_traits<char>, std::__ndk1::allocator<char> > >, (std::__ndk1::__variant_detail::_Trait)1>, std::__ndk1::__variant_detail::__base<(std::__ndk1::__variant_detail::__traits<geode::Hook*, std::__ndk1::basic_string<char, std::__ndk1::char_traits<char>, std::__ndk1::allocator<char> > >)1, geode::Hook, std::__ndk1::allocator<char> >&)
PUBLIC 7ea4 0 std::__ndk1::__tree<std::__ndk1::__value_type<std::__ndk1::basic_string<char, std::__ndk1::char_traits<char>, std::__ndk1::allocator<char> >, std::__ndk1::shared_ptr<geode::Hook> >, std::__ndk1::__map_value_compare<std::__ndk1::basic_string<char, std::__ndk1::char_traits<char>, std::__ndk1::allocator<char> >, std::__ndk1::__value_type<std::__ndk1::basic_string<char, std::__ndk1::char_traits<char>, std::__ndk1::allocator<char> >, std::__ndk1::shared_ptr<geode::Hook> >, std::__ndk1::less<std::__ndk1::basic_string<char, std::__ndk1::char_traits<char>, std::__ndk1::allocator<char> > >, true>, std::__ndk1::allocator<std::__ndk1::__value_type<std::__ndk1::basic_string<char, std::__ndk1::char_traits<char>, std::__ndk1::allocator<char> >, std::__ndk1::shared_ptr<geode::Hook> > > >::find<std::__ndk1::basic_string<char, std::__ndk1::char_traits<char>, std::__ndk1::allocator<char> > >(std::__ndk1::basic_string<char, std::__ndk1::char_traits<char>, std::__ndk1::allocator<char> > const&)
PUBLIC 7fc4 0 std::__ndk1::__tree<std::__ndk1::__value_type<std::__ndk1::basic_string<char, std::__ndk1::char_traits<char>, std::__ndk1::allocator<char> >, std::__ndk1::shared_ptr<geode::Hook> >, std::__ndk1::__map_value_compare<std::__ndk1::basic_string<char, std::__ndk1::char_traits<char>, std::__ndk1::allocator<char> >, std::__ndk1::__value_type<std::__ndk1::basic_string<char, std::__ndk1::char_traits<char>, std::__ndk1::allocator<char> >, std::__ndk1::shared_ptr<geode::Hook> >, std::__ndk1::less<std::__ndk1::basic_string<char, std::__ndk1::char_traits<char>, std::__ndk1::allocator<char> > >, true>, std::__ndk1::allocator<std::__ndk1::__value_type<std::__ndk1::basic_string<char, std::__ndk1::char_traits<char>, std::__ndk1::allocator<char> >, std::__ndk1::shared_ptr<geode::Hook> > > >::erase(std::__ndk1::__tree_const_iterator<std::__ndk1::__value_type<std::__ndk1::basic_string<char, std::__ndk1::char_traits<char>, std::__ndk1::allocator<char> >, std::__ndk1::shared_ptr<geode::Hook> >, std::__ndk1::__tree_node<std::__ndk1::__value_type<std::__ndk1::basic_string<char, std::__ndk1::char_traits<char>, std::__ndk1::allocator<char> >, std::__ndk1::shared_ptr<geode::Hook> >, void*>*, long>)
PUBLIC 8468 0 std::__ndk1::__tree<std::__ndk1::__value_type<std::__ndk1::basic_string<char, std::__ndk1::char_traits<char>, std::__ndk1::allocator<char> >, std::__ndk1::shared_ptr<geode::Hook> >, std::__ndk1::__map_value_compare<std::__ndk1::basic_string<char, std::__ndk1::char_traits<char>, std::__ndk1::allocator<char> >, std::__ndk1::__value_type<std::__ndk1::basic_string<char, std::__ndk1::char_traits<char>, std::__ndk1::allocator<char> >, std::__ndk1::shared_ptr<geode::Hook> >, std::__ndk1::less<std::__ndk1::basic_string<char, std::__ndk1::char_traits<char>, std::__ndk1::allocator<char> > >, true>, std::__ndk1::allocator<std::__ndk1::__value_type<std::__ndk1::basic_string<char, std::__ndk1::char_traits<char>, std::__ndk1::allocator<char> >, std::__ndk1::shared_ptr<geode::Hook> > > >::destroy(std::__ndk1::__tree_node<std::__ndk1::__value_type<std::__ndk1::basic_string<char, std::__ndk1::char_traits<char>, std::__ndk1::allocator<char> >, std::__ndk1::shared_ptr<geode::Hook> >, void*>*)
PUBLIC 84ec 0 geode::modifier::AsStaticFunction_onRequestAccess<hook70<(anonymous namespace)::hook70Parent>, void (hook70<(anonymous namespace)::hook70Parent>::*)(cocos2d::CCObject*)>::Impl<void (hook70<(anonymous namespace)::hook70Parent>::*)(cocos2d::CCObject*)>::function(hook70<(anonymous namespace)::hook70Parent>*, cocos2d::CCObject*)
PUBLIC 8658 0 std::__ndk1::shared_ptr<tulip::hook::CallingConvention>::~shared_ptr[abi:ne180000]()
PUBLIC 86a8 0 tulip::hook::HandlerMetadata::~HandlerMetadata()
PUBLIC 870c 0 geode::Mod::getSettingValue<long>(std::__ndk1::basic_string_view<char, std::__ndk1::char_traits<char> >) const
PUBLIC 882c 0 cocos2d::CCSequence::create(cocos2d::CCFiniteTimeAction*, ...)
PUBLIC 88c4 0 modCheck::DelayMod(cocos2d::CCObject*)
PUBLIC 8ae0 0 geode::cast::traverseTypeinfoFor(void*, geode::cast::ClassTypeinfoType const*, char const*)
PUBLIC 8bd8 0 std::__ndk1::__tree<std::__ndk1::__value_type<std::__ndk1::basic_string<char, std::__ndk1::char_traits<char>, std::__ndk1::allocator<char> >, std::__ndk1::shared_ptr<geode::Hook> >, std::__ndk1::__map_value_compare<std::__ndk1::basic_string<char, std::__ndk1::char_traits<char>, std::__ndk1::allocator<char> >, std::__ndk1::__value_type<std::__ndk1::basic_string<char, std::__ndk1::char_traits<char>, std::__ndk1::allocator<char> >, std::__ndk1::shared_ptr<geode::Hook> >, std::__ndk1::less<std::__ndk1::basic_string<char, std::__ndk1::char_traits<char>, std::__ndk1::allocator<char> > >, true>, std::__ndk1::allocator<std::__ndk1::__value_type<std::__ndk1::basic_string<char, std::__ndk1::char_traits<char>, std::__ndk1::allocator<char> >, std::__ndk1::shared_ptr<geode::Hook> > > >::__emplace_unique_key_args<std::__ndk1::basic_string<char, std::__ndk1::char_traits<char>, std::__ndk1::allocator<char> >, std::__ndk1::piecewise_construct_t const&, std::__ndk1::tuple<std::__ndk1::basic_string<char, std::__ndk1::char_traits<char>, std::__ndk1::allocator<char> >&&>, std::__ndk1::tuple<> >(std::__ndk1::basic_string<char, std::__ndk1::char_traits<char>, std::__ndk1::allocator<char> > const&, std::__ndk1::piecewise_construct_t const&, std::__ndk1::tuple<std::__ndk1::basic_string<char, std::__ndk1::char_traits<char>, std::__ndk1::allocator<char> >&&>, std::__ndk1::tuple<>)
PUBLIC 8d40 0 std::__ndk1::__tree_balance_after_insert[abi:ne180000]<std::__ndk1::__tree_node_base<void*>*>(std::__ndk1::__tree_node_base<void*>*, std::__ndk1::__tree_node_base<void*>*)
PUBLIC 8ef0 0 geode::modifier::ModifyDerive<hook93<(anonymous namespace)::hook93Parent>, ProfilePage>::apply()
PUBLIC 9260 0 geode::modifier::ModifyBase<geode::modifier::ModifyDerive<hook93<(anonymous namespace)::hook93Parent>, ProfilePage> >::apply()
PUBLIC 9264 0 geode::modifier::AsStaticFunction_loadPageFromUserInfo<hook93<(anonymous namespace)::hook93Parent>, void (hook93<(anonymous namespace)::hook93Parent>::*)(GJUserScore*)>::Impl<void (hook93<(anonymous namespace)::hook93Parent>::*)(GJUserScore*)>::function(hook93<(anonymous namespace)::hook93Parent>*, GJUserScore*)
PUBLIC 92cc 0 geode::modifier::ModifyDerive<hook110<(anonymous namespace)::hook110Parent>, RateStarsLayer>::apply()
PUBLIC 9618 0 geode::modifier::ModifyBase<geode::modifier::ModifyDerive<hook110<(anonymous namespace)::hook110Parent>, RateStarsLayer> >::apply()
PUBLIC 961c 0 geode::modifier::AsStaticFunction_onRate<hook110<(anonymous namespace)::hook110Parent>, void (hook110<(anonymous namespace)::hook110Parent>::*)(cocos2d::CCObject*)>::Impl<void (hook110<(anonymous namespace)::hook110Parent>::*)(cocos2d::CCObject*)>::function(hook110<(anonymous namespace)::hook110Parent>*, cocos2d::CCObject*)
PUBLIC 9758 0 modCheck::DelayRate(cocos2d::CCObject*)
PUBLIC 98d0 0 geode::modifier::ModifyDerive<hook131<(anonymous namespace)::hook131Parent>, RateDemonLayer>::apply()
PUBLIC 9c1c 0 geode::modifier::ModifyBase<geode::modifier::ModifyDerive<hook131<(anonymous namespace)::hook131Parent>, RateDemonLayer> >::apply()
PUBLIC 9c20 0 geode::modifier::AsStaticFunction_onRate<hook131<(anonymous namespace)::hook131Parent>, void (hook131<(anonymous namespace)::hook131Parent>::*)(cocos2d::CCObject*)>::Impl<void (hook131<(anonymous namespace)::hook131Parent>::*)(cocos2d::CCObject*)>::function(hook131<(anonymous namespace)::hook131Parent>*, cocos2d::CCObject*)
PUBLIC 9d04 0 geode::modifier::ModifyDerive<hook145<(anonymous namespace)::hook145Parent>, LevelInfoLayer>::apply()
PUBLIC a06c 0 geode::modifier::ModifyBase<geode::modifier::ModifyDerive<hook145<(anonymous namespace)::hook145Parent>, LevelInfoLayer> >::apply()
PUBLIC a070 0 geode::modifier::AsStaticFunction_levelDeleteFailed<hook145<(anonymous namespace)::hook145Parent>, void (hook145<(anonymous namespace)::hook145Parent>::*)(int)>::Impl<void (hook145<(anonymous namespace)::hook145Parent>::*)(int)>::function(hook145<(anonymous namespace)::hook145Parent>*, int)
PUBLIC a2ec 0 geode::addresser::Addresser::addressOfVirtual<void, LevelInfoLayer, int>(void (LevelInfoLayer::*)(int))
PUBLIC a394 0 LevelInfoLayer::LevelInfoLayer(geode::ZeroConstructorType)
PUBLIC m a448 0 geodeImplicitEntry
PUBLIC a484 0 wrapFunction(unsigned long, tulip::hook::WrapperMetadata const&)
PUBLIC a5b8 0 geode::impl::ResultData<void*, std::__ndk1::basic_string<char, std::__ndk1::char_traits<char>, std::__ndk1::allocator<char> > >::unwrapErr() &
PUBLIC a630 0 geode::impl::ResultData<void*, std::__ndk1::basic_string<char, std::__ndk1::char_traits<char>, std::__ndk1::allocator<char> > >::~ResultData()
PUBLIC a6a4 0 tulip::hook::WrapperMetadata::~WrapperMetadata()
PUBLIC a708 0 FLAlertLayer::create(FLAlertLayerProtocol*, char const*, gd::string, char const*, char const*, float)
PUBLIC a8c0 0 tulip::hook::AbstractFunction::from<FLAlertLayer*, FLAlertLayerProtocol*, char const*, gd::string, char const*, char const*, float>(FLAlertLayer* (*)(FLAlertLayerProtocol*, char const*, gd::string, char const*, char const*, float))
PUBLIC aa2c 0 UploadActionPopup::create(UploadPopupDelegate*, gd::string)
PUBLIC abac 0 tulip::hook::AbstractFunction::from<UploadActionPopup*, UploadPopupDelegate*, gd::string>(UploadActionPopup* (*)(UploadPopupDelegate*, gd::string))
PUBLIC ac58 0 tulip::hook::AbstractFunction::from<void, UploadActionPopup*, gd::string>(void (*)(UploadActionPopup*, gd::string))
PUBLIC acfc 0 UploadActionPopup::showSuccessMessage(gd::string)
PUBLIC ae74 0 _ZN5geode15UnwrapExceptionC2IRPvQsr4implE18IsStringStreamableIT_EEENS_4impl5OkTagEOS4_
PUBLIC afc8 0 _ZN5geode15UnwrapExceptionC2IRNSt6__ndk112basic_stringIcNS2_11char_traitsIcEENS2_9allocatorIcEEEEQsr4implE18IsStringStreamableIT_EEENS_4impl6ErrTagEOSA_
PUBLIC b130 0 std::__ndk1::__variant_detail::__visitation::__base::__dispatcher<(unsigned long)0>::__dispatch[abi:ne180000]<std::__ndk1::__variant_detail::__dtor<std::__ndk1::__variant_detail::__traits<void*, std::__ndk1::basic_string<char, std::__ndk1::char_traits<char>, std::__ndk1::allocator<char> > >, (std::__ndk1::__variant_detail::_Trait)1>::__destroy[abi:ne180000]()::{lambda(auto:1&)#1}, std::__ndk1::__variant_detail::__base<(std::__ndk1::__variant_detail::__traits<void*, std::__ndk1::basic_string<char, std::__ndk1::char_traits<char>, std::__ndk1::allocator<char> > >)1, std::__ndk1::__variant_detail::__traits, std::__ndk1::allocator<char> >&>(std::__ndk1::__variant_detail::__dtor<std::__ndk1::__variant_detail::__traits<void*, std::__ndk1::basic_string<char, std::__ndk1::char_traits<char>, std::__ndk1::allocator<char> > >, (std::__ndk1::__variant_detail::_Trait)1>, std::__ndk1::__variant_detail::__base<(std::__ndk1::__variant_detail::__traits<void*, std::__ndk1::basic_string<char, std::__ndk1::char_traits<char>, std::__ndk1::allocator<char> > >)1, std::__ndk1::__variant_detail::__traits, std::__ndk1::allocator<char> >&)
PUBLIC b134 0 std::__ndk1::__variant_detail::__visitation::__base::__dispatcher<(unsigned long)1>::__dispatch[abi:ne180000]<std::__ndk1::__variant_detail::__dtor<std::__ndk1::__variant_detail::__traits<void*, std::__ndk1::basic_string<char, std::__ndk1::char_traits<char>, std::__ndk1::allocator<char> > >, (std::__ndk1::__variant_detail::_Trait)1>::__destroy[abi:ne180000]()::{lambda(auto:1&)#1}, std::__ndk1::__variant_detail::__base<(std::__ndk1::__variant_detail::__traits<void*, std::__ndk1::basic_string<char, std::__ndk1::char_traits<char>, std::__ndk1::allocator<char> > >)1, std::__ndk1::__variant_detail::__traits, std::__ndk1::allocator<char> >&>(std::__ndk1::__variant_detail::__dtor<std::__ndk1::__variant_detail::__traits<void*, std::__ndk1::basic_string<char, std::__ndk1::char_traits<char>, std::__ndk1::allocator<char> > >, (std::__ndk1::__variant_detail::_Trait)1>, std::__ndk1::__variant_detail::__base<(std::__ndk1::__variant_detail::__traits<void*, std::__ndk1::basic_string<char, std::__ndk1::char_traits<char>, std::__ndk1::allocator<char> > >)1, std::__ndk1::__variant_detail::__traits, std::__ndk1::allocator<char> >&)
PUBLIC b150 0 <.plt ELF section in bitz.fakegdmod.android64.so>
STACK CFI INIT 4e80 10 .cfa: sp 0 +
STACK CFI INIT 4e90 8 .cfa: sp 0 +
STACK CFI INIT 4e98 8 .cfa: sp 0 +
STACK CFI INIT 4ea0 14 .cfa: sp 0 +
STACK CFI INIT 4eb4 1c .cfa: sp 0 +
STACK CFI INIT 4ed0 10 .cfa: sp 0 +
STACK CFI INIT 4ee0 30 .cfa: sp 0 +
STACK CFI INIT 4f10 98 .cfa: sp 0 +
STACK CFI INIT 4fa8 59c .cfa: sp 0 +
STACK CFI INIT 5544 8c .cfa: sp 0 +
STACK CFI INIT 55d0 30 .cfa: sp 0 +
STACK CFI INIT 6bcc 18 .cfa: sp 0 +
STACK CFI INIT 6be4 18 .cfa: sp 0 +
STACK CFI INIT 6bfc 18 .cfa: sp 0 +
STACK CFI INIT 6c14 18 .cfa: sp 0 +
STACK CFI INIT 6c2c 18 .cfa: sp 0 +
STACK CFI INIT 6fb8 50 .cfa: sp 0 +
STACK CFI 6fbc .cfa: sp 32 +
STACK CFI 6fc4 .cfa: x29 32 + x19: .cfa -16 + ^ .ra: .cfa -24 + ^ x29: .cfa -32 + ^
STACK CFI 6fdc .cfa: sp 32 +
STACK CFI 6fe4 .cfa: sp 0 +
STACK CFI 6fe8 .cfa: x29 32 +
STACK CFI 6ffc .cfa: sp 32 +
STACK CFI 7004 .cfa: sp 0 +
STACK CFI INIT 707c 7c .cfa: sp 0 +
STACK CFI 7080 .cfa: sp 48 +
STACK CFI 708c .cfa: x29 48 + x19: .cfa -8 + ^ x20: .cfa -16 + ^ x21: .cfa -32 + ^ .ra: .cfa -40 + ^ x29: .cfa -48 + ^
STACK CFI 70d8 .cfa: sp 48 +
STACK CFI 70e4 .cfa: sp 0 +
STACK CFI 70e8 .cfa: sp 48 +
STACK CFI 70f4 .cfa: sp 0 +
STACK CFI INIT 70f8 4 .cfa: sp 0 +
STACK CFI INIT 70fc 10 .cfa: sp 0 +
STACK CFI 7100 .cfa: sp 16 +
STACK CFI 7104 .cfa: x29 16 + .ra: .cfa -8 + ^ x29: .cfa -16 + ^
STACK CFI INIT 7260 34 .cfa: sp 0 +
STACK CFI 7264 .cfa: sp 16 +
STACK CFI 7268 .cfa: x29 16 + .ra: .cfa -8 + ^ x29: .cfa -16 + ^
STACK CFI INIT 73c0 80 .cfa: sp 0 +
STACK CFI 73c4 .cfa: sp 48 +
STACK CFI 73d0 .cfa: x29 48 + x19: .cfa -8 + ^ x20: .cfa -16 + ^ x21: .cfa -32 + ^ .ra: .cfa -40 + ^ x29: .cfa -48 + ^
STACK CFI 7430 .cfa: sp 48 +
STACK CFI 743c .cfa: sp 0 +
STACK CFI INIT 7440 24 .cfa: sp 0 +
STACK CFI 7444 .cfa: sp 32 +
STACK CFI 744c .cfa: x29 32 + x19: .cfa -16 + ^ .ra: .cfa -24 + ^ x29: .cfa -32 + ^
STACK CFI 7458 .cfa: sp 32 +
STACK CFI 7460 .cfa: sp 0 +
STACK CFI INIT 77e4 14 .cfa: sp 0 +
STACK CFI 77e8 .cfa: sp 16 +
STACK CFI 77ec .cfa: x29 16 + .ra: .cfa -8 + ^ x29: .cfa -16 + ^
STACK CFI INIT 7848 30 .cfa: sp 0 +
STACK CFI 784c .cfa: sp 32 +
STACK CFI 7854 .cfa: x29 32 + x19: .cfa -16 + ^ .ra: .cfa -24 + ^ x29: .cfa -32 + ^
STACK CFI 786c .cfa: sp 32 +
STACK CFI 7874 .cfa: sp 0 +
STACK CFI INIT 7878 34 .cfa: sp 0 +
STACK CFI 787c .cfa: sp 32 +
STACK CFI 7884 .cfa: x29 32 + x19: .cfa -16 + ^ .ra: .cfa -24 + ^ x29: .cfa -32 + ^
STACK CFI INIT 7a24 148 .cfa: sp 0 +
STACK CFI 7a28 .cfa: sp 48 +
STACK CFI 7a34 .cfa: x29 48 + x19: .cfa -8 + ^ x20: .cfa -16 + ^ x21: .cfa -32 + ^ .ra: .cfa -40 + ^ x29: .cfa -48 + ^
STACK CFI 7b5c .cfa: sp 48 +
STACK CFI 7b68 .cfa: sp 0 +
STACK CFI INIT 7d90 80 .cfa: sp 0 +
STACK CFI 7d94 .cfa: sp 48 +
STACK CFI 7da0 .cfa: x29 48 + x19: .cfa -8 + ^ x20: .cfa -16 + ^ x21: .cfa -24 + ^ x22: .cfa -32 + ^ .ra: .cfa -40 + ^ x29: .cfa -48 + ^
STACK CFI 7db8 .cfa: sp 48 +
STACK CFI 7dc4 .cfa: sp 0 +
STACK CFI 7dc8 .cfa: x29 48 +
STACK CFI 7df8 .cfa: sp 48 +
STACK CFI 7e04 .cfa: sp 0 +
STACK CFI 7e08 .cfa: x29 48 +
STACK CFI INIT 7e10 68 .cfa: sp 0 +
STACK CFI 7e14 .cfa: sp 32 +
STACK CFI 7e1c .cfa: x29 32 + x19: .cfa -8 + ^ x20: .cfa -16 + ^ .ra: .cfa -24 + ^ x29: .cfa -32 + ^
STACK CFI 7e34 .cfa: sp 32 +
STACK CFI 7e3c .cfa: sp 0 +
STACK CFI 7e40 .cfa: x29 32 +
STACK CFI 7e6c .cfa: sp 32 +
STACK CFI 7e74 .cfa: sp 0 +
STACK CFI INIT 7e78 14 .cfa: sp 0 +
STACK CFI 7e7c .cfa: sp 16 +
STACK CFI 7e80 .cfa: x29 16 + .ra: .cfa -8 + ^ x29: .cfa -16 + ^
STACK CFI INIT 7e8c 4 .cfa: sp 0 +
STACK CFI INIT 7e90 14 .cfa: sp 0 +
STACK CFI INIT 7ea4 120 .cfa: sp 0 +
STACK CFI 7ea8 .cfa: sp 64 +
STACK CFI 7eb8 .cfa: x29 64 + x19: .cfa -8 + ^ x20: .cfa -16 + ^ x21: .cfa -24 + ^ x22: .cfa -32 + ^ x23: .cfa -40 + ^ x24: .cfa -48 + ^ .ra: .cfa -56 + ^ x29: .cfa -64 + ^
STACK CFI 7fb0 .cfa: sp 64 +
STACK CFI 7fc0 .cfa: sp 0 +
STACK CFI INIT 7fc4 4a4 .cfa: sp 0 +
STACK CFI 7fc8 .cfa: sp 32 +
STACK CFI 7fd0 .cfa: x29 32 + x19: .cfa -8 + ^ x20: .cfa -16 + ^ .ra: .cfa -24 + ^ x29: .cfa -32 + ^
STACK CFI 83b0 .cfa: sp 32 +
STACK CFI 83b8 .cfa: sp 0 +
STACK CFI 83bc .cfa: x29 32 +
STACK CFI INIT 8468 84 .cfa: sp 0 +
STACK CFI 8470 .cfa: sp 32 +
STACK CFI 8478 .cfa: x29 32 + x19: .cfa -8 + ^ x20: .cfa -16 + ^ .ra: .cfa -24 + ^ x29: .cfa -32 + ^
STACK CFI 84b8 .cfa: sp 32 +
STACK CFI 84c0 .cfa: sp 0 +
STACK CFI 84c8 .cfa: x29 32 +
STACK CFI INIT 8658 50 .cfa: sp 0 +
STACK CFI 865c .cfa: sp 32 +
STACK CFI 8664 .cfa: x29 32 + x19: .cfa -16 + ^ .ra: .cfa -24 + ^ x29: .cfa -32 + ^
STACK CFI 867c .cfa: sp 32 +
STACK CFI 8684 .cfa: sp 0 +
STACK CFI 8688 .cfa: x29 32 +
STACK CFI 869c .cfa: sp 32 +
STACK CFI 86a4 .cfa: sp 0 +
STACK CFI INIT 86a8 64 .cfa: sp 0 +
STACK CFI 86ac .cfa: sp 32 +
STACK CFI 86b4 .cfa: x29 32 + x19: .cfa -16 + ^ .ra: .cfa -24 + ^ x29: .cfa -32 + ^
STACK CFI 86e0 .cfa: sp 32 +
STACK CFI 86e8 .cfa: sp 0 +
STACK CFI 86ec .cfa: x29 32 +
STACK CFI 8700 .cfa: sp 32 +
STACK CFI 8708 .cfa: sp 0 +
STACK CFI INIT 870c 120 .cfa: sp 0 +
STACK CFI 8710 .cfa: sp 80 +
STACK CFI 8720 .cfa: x29 48 + x19: .cfa -8 + ^ x20: .cfa -16 + ^ x21: .cfa -24 + ^ x22: .cfa -32 + ^ .ra: .cfa -40 + ^ x29: .cfa -48 + ^
STACK CFI 8814 .cfa: sp 80 +
STACK CFI 8824 .cfa: sp 0 +
STACK CFI 8828 .cfa: x29 48 +
STACK CFI INIT 882c 98 .cfa: sp 0 +
STACK CFI 8830 .cfa: sp 304 +
STACK CFI 883c .cfa: x29 32 + x19: .cfa -8 + ^ x28: .cfa -16 + ^ .ra: .cfa -24 + ^ x29: .cfa -32 + ^
STACK CFI 88b0 .cfa: sp 304 +
STACK CFI 88bc .cfa: sp 0 +
STACK CFI 88c0 .cfa: x29 32 +
STACK CFI INIT 8ae0 f8 .cfa: sp 0 +
STACK CFI 8ae4 .cfa: sp 64 +
STACK CFI 8af4 .cfa: x29 64 + x19: .cfa -8 + ^ x20: .cfa -16 + ^ x21: .cfa -24 + ^ x22: .cfa -32 + ^ x23: .cfa -48 + ^ .ra: .cfa -56 + ^ x29: .cfa -64 + ^
STACK CFI 8b50 .cfa: sp 64 +
STACK CFI 8b60 .cfa: sp 0 +
STACK CFI 8b64 .cfa: x29 64 +
STACK CFI 8b80 .cfa: sp 64 +
STACK CFI 8b90 .cfa: sp 0 +
STACK CFI 8b94 .cfa: x29 64 +
STACK CFI 8bc4 .cfa: sp 64 +
STACK CFI 8bd4 .cfa: sp 0 +
STACK CFI INIT 8bd8 168 .cfa: sp 0 +
STACK CFI 8bdc .cfa: sp 80 +
STACK CFI 8bf0 .cfa: x29 80 + x19: .cfa -8 + ^ x20: .cfa -16 + ^ x21: .cfa -24 + ^ x22: .cfa -32 + ^ x23: .cfa -40 + ^ x24: .cfa -48 + ^ x25: .cfa -56 + ^ x26: .cfa -64 + ^ .ra: .cfa -72 + ^ x29: .cfa -80 + ^
STACK CFI 8d28 .cfa: sp 80 +
STACK CFI 8d3c .cfa: sp 0 +
STACK CFI INIT 8d40 1b0 .cfa: sp 0 +
STACK CFI INIT 9260 4 .cfa: sp 0 +
STACK CFI INIT 9264 68 .cfa: sp 0 +
STACK CFI 9268 .cfa: sp 48 +
STACK CFI 9274 .cfa: x29 48 + x19: .cfa -8 + ^ x20: .cfa -16 + ^ x21: .cfa -32 + ^ .ra: .cfa -40 + ^ x29: .cfa -48 + ^
STACK CFI 92bc .cfa: sp 48 +
STACK CFI 92c8 .cfa: sp 0 +
STACK CFI INIT 9618 4 .cfa: sp 0 +
STACK CFI INIT 9c1c 4 .cfa: sp 0 +
STACK CFI INIT a06c 4 .cfa: sp 0 +
STACK CFI INIT a394 b4 .cfa: sp 0 +
STACK CFI a398 .cfa: sp 32 +
STACK CFI a3a0 .cfa: x29 32 + x19: .cfa -16 + ^ .ra: .cfa -24 + ^ x29: .cfa -32 + ^
STACK CFI a43c .cfa: sp 32 +
STACK CFI a444 .cfa: sp 0 +
STACK CFI INIT a448 3c .cfa: sp 0 +
STACK CFI a44c .cfa: sp 32 +
STACK CFI a454 .cfa: x29 32 + x19: .cfa -16 + ^ .ra: .cfa -24 + ^ x29: .cfa -32 + ^
STACK CFI a460 .cfa: sp 32 +
STACK CFI a468 .cfa: sp 0 +
STACK CFI a46c .cfa: x29 32 +
STACK CFI a478 .cfa: sp 32 +
STACK CFI a480 .cfa: sp 0 +
STACK CFI INIT a6a4 64 .cfa: sp 0 +
STACK CFI a6a8 .cfa: sp 32 +
STACK CFI a6b0 .cfa: x29 32 + x19: .cfa -16 + ^ .ra: .cfa -24 + ^ x29: .cfa -32 + ^
STACK CFI a6dc .cfa: sp 32 +
STACK CFI a6e4 .cfa: sp 0 +
STACK CFI a6e8 .cfa: x29 32 +
STACK CFI a6fc .cfa: sp 32 +
STACK CFI a704 .cfa: sp 0 +
STACK CFI INIT b130 4 .cfa: sp 0 +
STACK CFI INIT b134 14 .cfa: sp 0 +
STACK CFI INIT 5600 45c .cfa: sp 0 +
STACK CFI 5604 .cfa: sp 224 +
STACK CFI 5620 .cfa: x29 96 + x19: .cfa -8 + ^ x20: .cfa -16 + ^ x21: .cfa -24 + ^ x22: .cfa -32 + ^ x23: .cfa -40 + ^ x24: .cfa -48 + ^ x25: .cfa -56 + ^ x26: .cfa -64 + ^ x27: .cfa -72 + ^ x28: .cfa -80 + ^ .ra: .cfa -88 + ^ x29: .cfa -96 + ^
STACK CFI 5944 .cfa: sp 224 +
STACK CFI 5960 .cfa: sp 0 +
STACK CFI 5964 .cfa: x29 96 +
STACK CFI INIT 5a5c 45c .cfa: sp 0 +
STACK CFI 5a60 .cfa: sp 224 +
STACK CFI 5a7c .cfa: x29 96 + x19: .cfa -8 + ^ x20: .cfa -16 + ^ x21: .cfa -24 + ^ x22: .cfa -32 + ^ x23: .cfa -40 + ^ x24: .cfa -48 + ^ x25: .cfa -56 + ^ x26: .cfa -64 + ^ x27: .cfa -72 + ^ x28: .cfa -80 + ^ .ra: .cfa -88 + ^ x29: .cfa -96 + ^
STACK CFI 5da0 .cfa: sp 224 +
STACK CFI 5dbc .cfa: sp 0 +
STACK CFI 5dc0 .cfa: x29 96 +
STACK CFI INIT 5eb8 45c .cfa: sp 0 +
STACK CFI 5ebc .cfa: sp 224 +
STACK CFI 5ed8 .cfa: x29 96 + x19: .cfa -8 + ^ x20: .cfa -16 + ^ x21: .cfa -24 + ^ x22: .cfa -32 + ^ x23: .cfa -40 + ^ x24: .cfa -48 + ^ x25: .cfa -56 + ^ x26: .cfa -64 + ^ x27: .cfa -72 + ^ x28: .cfa -80 + ^ .ra: .cfa -88 + ^ x29: .cfa -96 + ^
STACK CFI 61fc .cfa: sp 224 +
STACK CFI 6218 .cfa: sp 0 +
STACK CFI 621c .cfa: x29 96 +
STACK CFI INIT 6314 45c .cfa: sp 0 +
STACK CFI 6318 .cfa: sp 224 +
STACK CFI 6334 .cfa: x29 96 + x19: .cfa -8 + ^ x20: .cfa -16 + ^ x21: .cfa -24 + ^ x22: .cfa -32 + ^ x23: .cfa -40 + ^ x24: .cfa -48 + ^ x25: .cfa -56 + ^ x26: .cfa -64 + ^ x27: .cfa -72 + ^ x28: .cfa -80 + ^ .ra: .cfa -88 + ^ x29: .cfa -96 + ^
STACK CFI 6658 .cfa: sp 224 +
STACK CFI 6674 .cfa: sp 0 +
STACK CFI 6678 .cfa: x29 96 +
STACK CFI INIT 6770 45c .cfa: sp 0 +
STACK CFI 6774 .cfa: sp 224 +
STACK CFI 6790 .cfa: x29 96 + x19: .cfa -8 + ^ x20: .cfa -16 + ^ x21: .cfa -24 + ^ x22: .cfa -32 + ^ x23: .cfa -40 + ^ x24: .cfa -48 + ^ x25: .cfa -56 + ^ x26: .cfa -64 + ^ x27: .cfa -72 + ^ x28: .cfa -80 + ^ .ra: .cfa -88 + ^ x29: .cfa -96 + ^
STACK CFI 6ab4 .cfa: sp 224 +
STACK CFI 6ad0 .cfa: sp 0 +
STACK CFI 6ad4 .cfa: x29 96 +
STACK CFI INIT 6c44 374 .cfa: sp 0 +
STACK CFI 6c48 .cfa: sp 256 +
STACK CFI 6c5c .cfa: x29 64 + x19: .cfa -8 + ^ x20: .cfa -16 + ^ x21: .cfa -24 + ^ x22: .cfa -32 + ^ x23: .cfa -48 + ^ .ra: .cfa -56 + ^ x29: .cfa -64 + ^
STACK CFI 6e8c .cfa: sp 256 +
STACK CFI 6ea0 .cfa: sp 0 +
STACK CFI 6ea4 .cfa: x29 64 +
STACK CFI INIT 7008 74 .cfa: sp 0 +
STACK CFI 700c .cfa: sp 48 +
STACK CFI 7018 .cfa: x29 32 + x19: .cfa -8 + ^ x20: .cfa -16 + ^ .ra: .cfa -24 + ^ x29: .cfa -32 + ^
STACK CFI 7064 .cfa: sp 48 +
STACK CFI 7070 .cfa: sp 0 +
STACK CFI 7074 .cfa: x29 32 +
STACK CFI INIT 710c 154 .cfa: sp 0 +
STACK CFI 7110 .cfa: sp 384 +
STACK CFI 7124 .cfa: x29 64 + x19: .cfa -8 + ^ x20: .cfa -16 + ^ x21: .cfa -24 + ^ x22: .cfa -32 + ^ x23: .cfa -40 + ^ x28: .cfa -48 + ^ .ra: .cfa -56 + ^ x29: .cfa -64 + ^
STACK CFI 7208 .cfa: sp 384 +
STACK CFI 721c .cfa: sp 0 +
STACK CFI 7220 .cfa: x29 64 +
STACK CFI INIT 7294 12c .cfa: sp 0 +
STACK CFI 7298 .cfa: sp 80 +
STACK CFI 72ac .cfa: x29 80 + x19: .cfa -8 + ^ x20: .cfa -16 + ^ x21: .cfa -24 + ^ x22: .cfa -32 + ^ x23: .cfa -40 + ^ x24: .cfa -48 + ^ x25: .cfa -56 + ^ x26: .cfa -64 + ^ .ra: .cfa -72 + ^ x29: .cfa -80 + ^
STACK CFI 7374 .cfa: sp 80 +
STACK CFI 7388 .cfa: sp 0 +
STACK CFI 738c .cfa: x29 80 +
STACK CFI INIT 7464 1a4 .cfa: sp 0 +
STACK CFI 7468 .cfa: sp 112 +
STACK CFI 7480 .cfa: x29 80 + x19: .cfa -8 + ^ x20: .cfa -16 + ^ x21: .cfa -24 + ^ x22: .cfa -32 + ^ x23: .cfa -40 + ^ x24: .cfa -48 + ^ x25: .cfa -56 + ^ x26: .cfa -64 + ^ .ra: .cfa -72 + ^ x29: .cfa -80 + ^
STACK CFI 7570 .cfa: sp 112 +
STACK CFI 7588 .cfa: sp 0 +
STACK CFI 758c .cfa: x29 80 +
STACK CFI INIT 7608 1dc .cfa: sp 0 +
STACK CFI 760c .cfa: sp 128 +
STACK CFI 7628 .cfa: x29 96 + x19: .cfa -8 + ^ x20: .cfa -16 + ^ x21: .cfa -24 + ^ x22: .cfa -32 + ^ x23: .cfa -40 + ^ x24: .cfa -48 + ^ x25: .cfa -56 + ^ x26: .cfa -64 + ^ x27: .cfa -80 + ^ .ra: .cfa -88 + ^ x29: .cfa -96 + ^
STACK CFI 7794 .cfa: sp 128 +
STACK CFI 77b0 .cfa: sp 0 +
STACK CFI 77b4 .cfa: x29 96 +
STACK CFI INIT 77f8 50 .cfa: sp 0 +
STACK CFI 77fc .cfa: sp 32 +
STACK CFI 7804 .cfa: x29 32 + x19: .cfa -8 + ^ x20: .cfa -16 + ^ .ra: .cfa -24 + ^ x29: .cfa -32 + ^
STACK CFI INIT 78ac 178 .cfa: sp 0 +
STACK CFI 78b0 .cfa: sp 80 +
STACK CFI 78c4 .cfa: x29 80 + x19: .cfa -8 + ^ x20: .cfa -16 + ^ x21: .cfa -24 + ^ x22: .cfa -32 + ^ x23: .cfa -40 + ^ x24: .cfa -48 + ^ x25: .cfa -64 + ^ .ra: .cfa -72 + ^ x29: .cfa -80 + ^
STACK CFI 79f0 .cfa: sp 80 +
STACK CFI 7a04 .cfa: sp 0 +
STACK CFI 7a08 .cfa: x29 80 +
STACK CFI INIT 7b6c 224 .cfa: sp 0 +
STACK CFI 7b70 .cfa: sp 128 +
STACK CFI 7b88 .cfa: x29 80 + x19: .cfa -8 + ^ x20: .cfa -16 + ^ x21: .cfa -24 + ^ x22: .cfa -32 + ^ x23: .cfa -40 + ^ x24: .cfa -48 + ^ x25: .cfa -64 + ^ .ra: .cfa -72 + ^ x29: .cfa -80 + ^
STACK CFI 7d24 .cfa: sp 128 +
STACK CFI 7d3c .cfa: sp 0 +
STACK CFI 7d40 .cfa: x29 80 +
STACK CFI INIT 84ec 16c .cfa: sp 0 +
STACK CFI 84f0 .cfa: sp 80 +
STACK CFI 8504 .cfa: x29 64 + x19: .cfa -8 + ^ x20: .cfa -16 + ^ x21: .cfa -24 + ^ x22: .cfa -32 + ^ x23: .cfa -40 + ^ x24: .cfa -48 + ^ .ra: .cfa -56 + ^ x29: .cfa -64 + ^
STACK CFI 8618 .cfa: sp 80 +
STACK CFI 862c .cfa: sp 0 +
STACK CFI 8630 .cfa: x29 64 +
STACK CFI INIT 88c4 21c .cfa: sp 0 +
STACK CFI 88c8 .cfa: sp 128 +
STACK CFI 88e4 .cfa: x29 96 + x19: .cfa -8 + ^ x20: .cfa -16 + ^ x21: .cfa -24 + ^ x22: .cfa -32 + ^ x23: .cfa -40 + ^ x24: .cfa -48 + ^ x25: .cfa -56 + ^ x26: .cfa -64 + ^ x27: .cfa -80 + ^ .ra: .cfa -88 + ^ x29: .cfa -96 + ^
STACK CFI 8990 .cfa: sp 128 +
STACK CFI 89ac .cfa: sp 0 +
STACK CFI 89b0 .cfa: x29 96 +
STACK CFI INIT 8ef0 370 .cfa: sp 0 +
STACK CFI 8ef4 .cfa: sp 256 +
STACK CFI 8f08 .cfa: x29 64 + x19: .cfa -8 + ^ x20: .cfa -16 + ^ x21: .cfa -24 + ^ x22: .cfa -32 + ^ x23: .cfa -48 + ^ .ra: .cfa -56 + ^ x29: .cfa -64 + ^
STACK CFI 9134 .cfa: sp 256 +
STACK CFI 9148 .cfa: sp 0 +
STACK CFI 914c .cfa: x29 64 +
STACK CFI INIT 92cc 34c .cfa: sp 0 +
STACK CFI 92d0 .cfa: sp 208 +
STACK CFI 92e4 .cfa: x29 64 + x19: .cfa -8 + ^ x20: .cfa -16 + ^ x21: .cfa -24 + ^ x22: .cfa -32 + ^ x23: .cfa -40 + ^ x24: .cfa -48 + ^ .ra: .cfa -56 + ^ x29: .cfa -64 + ^
STACK CFI 94f4 .cfa: sp 208 +
STACK CFI 9508 .cfa: sp 0 +
STACK CFI 950c .cfa: x29 64 +
STACK CFI INIT 961c 13c .cfa: sp 0 +
STACK CFI 9620 .cfa: sp 64 +
STACK CFI 9630 .cfa: x29 48 + x19: .cfa -8 + ^ x20: .cfa -16 + ^ x21: .cfa -24 + ^ x22: .cfa -32 + ^ .ra: .cfa -40 + ^ x29: .cfa -48 + ^
STACK CFI 96f0 .cfa: sp 64 +
STACK CFI 9700 .cfa: sp 0 +
STACK CFI 9704 .cfa: x29 48 +
STACK CFI 971c .cfa: sp 64 +
STACK CFI 972c .cfa: sp 0 +
STACK CFI 9730 .cfa: x29 48 +
STACK CFI INIT 9758 178 .cfa: sp 0 +
STACK CFI 975c .cfa: sp 96 +
STACK CFI 9774 .cfa: x29 80 + x19: .cfa -8 + ^ x20: .cfa -16 + ^ x21: .cfa -24 + ^ x22: .cfa -32 + ^ x23: .cfa -40 + ^ x24: .cfa -48 + ^ x25: .cfa -64 + ^ .ra: .cfa -72 + ^ x29: .cfa -80 + ^
STACK CFI 9820 .cfa: sp 96 +
STACK CFI 9838 .cfa: sp 0 +
STACK CFI 983c .cfa: x29 80 +
STACK CFI INIT 98d0 34c .cfa: sp 0 +
STACK CFI 98d4 .cfa: sp 208 +
STACK CFI 98e8 .cfa: x29 64 + x19: .cfa -8 + ^ x20: .cfa -16 + ^ x21: .cfa -24 + ^ x22: .cfa -32 + ^ x23: .cfa -40 + ^ x24: .cfa -48 + ^ .ra: .cfa -56 + ^ x29: .cfa -64 + ^
STACK CFI 9af8 .cfa: sp 208 +
STACK CFI 9b0c .cfa: sp 0 +
STACK CFI 9b10 .cfa: x29 64 +
STACK CFI INIT 9c20 e4 .cfa: sp 0 +
STACK CFI 9c24 .cfa: sp 64 +
STACK CFI 9c34 .cfa: x29 48 + x19: .cfa -8 + ^ x20: .cfa -16 + ^ x21: .cfa -24 + ^ x22: .cfa -32 + ^ .ra: .cfa -40 + ^ x29: .cfa -48 + ^
STACK CFI 9cc8 .cfa: sp 64 +
STACK CFI 9cd8 .cfa: sp 0 +
STACK CFI 9cdc .cfa: x29 48 +
STACK CFI INIT 9d04 368 .cfa: sp 0 +
STACK CFI 9d08 .cfa: sp 240 +
STACK CFI 9d1c .cfa: x29 64 + x19: .cfa -8 + ^ x20: .cfa -16 + ^ x21: .cfa -24 + ^ x22: .cfa -32 + ^ x23: .cfa -48 + ^ .ra: .cfa -56 + ^ x29: .cfa -64 + ^
STACK CFI 9f48 .cfa: sp 240 +
STACK CFI 9f5c .cfa: sp 0 +
STACK CFI 9f60 .cfa: x29 64 +
STACK CFI INIT a070 27c .cfa: sp 0 +
STACK CFI a074 .cfa: sp 96 +
STACK CFI a088 .cfa: x29 64 + x19: .cfa -8 + ^ x20: .cfa -16 + ^ x21: .cfa -24 + ^ x22: .cfa -32 + ^ x23: .cfa -40 + ^ x24: .cfa -48 + ^ .ra: .cfa -56 + ^ x29: .cfa -64 + ^
STACK CFI a1fc .cfa: sp 96 +
STACK CFI a210 .cfa: sp 0 +
STACK CFI a214 .cfa: x29 64 +
STACK CFI a244 .cfa: sp 96 +
STACK CFI a258 .cfa: sp 0 +
STACK CFI a25c .cfa: x29 64 +
STACK CFI INIT a2ec a8 .cfa: sp 0 +
STACK CFI a2f0 .cfa: sp 32 +
STACK CFI a2f8 .cfa: x29 32 + x19: .cfa -16 + ^ .ra: .cfa -24 + ^ x29: .cfa -32 + ^
STACK CFI a32c .cfa: sp 32 +
STACK CFI a334 .cfa: sp 0 +
STACK CFI a338 .cfa: x29 32 +
STACK CFI a33c .cfa: sp 32 +
STACK CFI a344 .cfa: sp 0 +
STACK CFI a348 .cfa: x29 32 +
STACK CFI INIT a484 134 .cfa: sp 0 +
STACK CFI a488 .cfa: sp 80 +
STACK CFI a494 .cfa: x29 32 + x19: .cfa -8 + ^ x20: .cfa -16 + ^ .ra: .cfa -24 + ^ x29: .cfa -32 + ^
STACK CFI a4c4 .cfa: sp 80 +
STACK CFI a4d0 .cfa: sp 0 +
STACK CFI a4d4 .cfa: x29 32 +
STACK CFI INIT a5b8 78 .cfa: sp 0 +
STACK CFI a5bc .cfa: sp 32 +
STACK CFI a5c4 .cfa: x29 32 + x19: .cfa -8 + ^ x20: .cfa -16 + ^ .ra: .cfa -24 + ^ x29: .cfa -32 + ^
STACK CFI a5d0 .cfa: sp 32 +
STACK CFI a5d8 .cfa: sp 0 +
STACK CFI a5dc .cfa: x29 32 +
STACK CFI INIT a630 74 .cfa: sp 0 +
STACK CFI a634 .cfa: sp 48 +
STACK CFI a640 .cfa: x29 32 + x19: .cfa -8 + ^ x20: .cfa -16 + ^ .ra: .cfa -24 + ^ x29: .cfa -32 + ^
STACK CFI a68c .cfa: sp 48 +
STACK CFI a698 .cfa: sp 0 +
STACK CFI a69c .cfa: x29 32 +
STACK CFI INIT a708 1b8 .cfa: sp 0 +
STACK CFI a70c .cfa: sp 160 +
STACK CFI a728 .cfa: x29 72 + x19: .cfa -8 + ^ x20: .cfa -16 + ^ x21: .cfa -24 + ^ x22: .cfa -32 + ^ x23: .cfa -40 + ^ x24: .cfa -48 + ^ x25: .cfa -56 + ^ .ra: .cfa -64 + ^ x29: .cfa -72 + ^ v8: .cfa -80 + ^
STACK CFI a7ac .cfa: sp 160 +
STACK CFI a7c8 .cfa: sp 0 +
STACK CFI a7cc .cfa: x29 72 +
STACK CFI INIT a8c0 16c .cfa: sp 0 +
STACK CFI a8c4 .cfa: sp 64 +
STACK CFI a8d4 .cfa: x29 48 + x19: .cfa -8 + ^ x20: .cfa -16 + ^ x21: .cfa -24 + ^ x22: .cfa -32 + ^ .ra: .cfa -40 + ^ x29: .cfa -48 + ^
STACK CFI a9cc .cfa: sp 64 +
STACK CFI a9dc .cfa: sp 0 +
STACK CFI a9e0 .cfa: x29 48 +
STACK CFI INIT aa2c 180 .cfa: sp 0 +
STACK CFI aa30 .cfa: sp 128 +
STACK CFI aa40 .cfa: x29 48 + x19: .cfa -8 + ^ x20: .cfa -16 + ^ x21: .cfa -24 + ^ x22: .cfa -32 + ^ .ra: .cfa -40 + ^ x29: .cfa -48 + ^
STACK CFI aaa4 .cfa: sp 128 +
STACK CFI aab4 .cfa: sp 0 +
STACK CFI aab8 .cfa: x29 48 +
STACK CFI INIT abac ac .cfa: sp 0 +
STACK CFI abb0 .cfa: sp 64 +
STACK CFI abc0 .cfa: x29 48 + x19: .cfa -8 + ^ x20: .cfa -16 + ^ x21: .cfa -32 + ^ .ra: .cfa -40 + ^ x29: .cfa -48 + ^
STACK CFI ac2c .cfa: sp 64 +
STACK CFI ac3c .cfa: sp 0 +
STACK CFI ac40 .cfa: x29 48 +
STACK CFI INIT ac58 a4 .cfa: sp 0 +
STACK CFI ac5c .cfa: sp 48 +
STACK CFI ac68 .cfa: x29 48 + x19: .cfa -8 + ^ x20: .cfa -16 + ^ x21: .cfa -32 + ^ .ra: .cfa -40 + ^ x29: .cfa -48 + ^
STACK CFI acd4 .cfa: sp 48 +
STACK CFI ace0 .cfa: sp 0 +
STACK CFI ace4 .cfa: x29 48 +
STACK CFI INIT acfc 178 .cfa: sp 0 +
STACK CFI ad00 .cfa: sp 128 +
STACK CFI ad10 .cfa: x29 48 + x19: .cfa -8 + ^ x20: .cfa -16 + ^ x21: .cfa -24 + ^ x22: .cfa -32 + ^ .ra: .cfa -40 + ^ x29: .cfa -48 + ^
STACK CFI ad6c .cfa: sp 128 +
STACK CFI ad7c .cfa: sp 0 +
STACK CFI ad80 .cfa: x29 48 +
STACK CFI INIT ae74 154 .cfa: sp 0 +
STACK CFI ae78 .cfa: sp 384 +
STACK CFI ae8c .cfa: x29 64 + x19: .cfa -8 + ^ x20: .cfa -16 + ^ x21: .cfa -24 + ^ x22: .cfa -32 + ^ x23: .cfa -40 + ^ x28: .cfa -48 + ^ .ra: .cfa -56 + ^ x29: .cfa -64 + ^
STACK CFI af70 .cfa: sp 384 +
STACK CFI af84 .cfa: sp 0 +
STACK CFI af88 .cfa: x29 64 +
STACK CFI INIT afc8 168 .cfa: sp 0 +
STACK CFI afcc .cfa: sp 384 +
STACK CFI afe0 .cfa: x29 64 + x19: .cfa -8 + ^ x20: .cfa -16 + ^ x21: .cfa -24 + ^ x22: .cfa -32 + ^ x23: .cfa -40 + ^ x28: .cfa -48 + ^ .ra: .cfa -56 + ^ x29: .cfa -64 + ^
STACK CFI b0d8 .cfa: sp 384 +
STACK CFI b0ec .cfa: sp 0 +
STACK CFI b0f0 .cfa: x29 64 +
