MODULE Linux arm64 1830A89D0E8F4BDCAD09D0B4561A32AD0 alphalaneous.happy_textures.android64.so
INFO CODE_ID 9DA830188F0EDC4BAD09D0B4561A32AD2011D0F8
INFO GENERATOR mozilla/dump_syms 2.3.4
PUBLIC 63e70 0 __on_dlclose
PUBLIC 63e80 0 __emutls_unregister_key
PUBLIC 63e88 0 __on_dlclose_late
PUBLIC 63e90 0 __atexit_handler_wrapper
PUBLIC 63ea4 0 atexit
PUBLIC 63ec0 0 pthread_atfork
PUBLIC 63ed0 0 unwind_phase2
PUBLIC 64004 0 _Unwind_Resume
PUBLIC 64088 0 unwind_phase2_forced
PUBLIC m 6417c 0 __unw_init_local
PUBLIC m 64224 0 __unw_get_reg
PUBLIC 642a0 0 __unw_step_stage2
PUBLIC m 642b4 0 __unw_get_proc_info
PUBLIC m 642f4 0 __unw_resume
PUBLIC 6431c 0 libunwind::CFI_Parser<libunwind::LocalAddressSpace>::decodeFDE(libunwind::LocalAddressSpace&, unsigned long, libunwind::CFI_Parser<libunwind::LocalAddressSpace>::FDE_Info*, libunwind::CFI_Parser<libunwind::LocalAddressSpace>::CIE_Info*, bool)
PUBLIC 644ac 0 libunwind::CFI_Parser<libunwind::LocalAddressSpace>::parseCIE(libunwind::LocalAddressSpace&, unsigned long, libunwind::CFI_Parser<libunwind::LocalAddressSpace>::CIE_Info*)
PUBLIC 64774 0 libunwind::AbstractUnwindCursor::~AbstractUnwindCursor()
PUBLIC 6477c 0 libunwind::UnwindCursor<libunwind::LocalAddressSpace, libunwind::Registers_arm64>::~UnwindCursor()
PUBLIC 64784 0 libunwind::UnwindCursor<libunwind::LocalAddressSpace, libunwind::Registers_arm64>::validReg(int)
PUBLIC 647c8 0 libunwind::UnwindCursor<libunwind::LocalAddressSpace, libunwind::Registers_arm64>::getReg(int)
PUBLIC 648b0 0 libunwind::UnwindCursor<libunwind::LocalAddressSpace, libunwind::Registers_arm64>::setReg(int, unsigned long)
PUBLIC 64998 0 libunwind::UnwindCursor<libunwind::LocalAddressSpace, libunwind::Registers_arm64>::validFloatReg(int)
PUBLIC 649ac 0 libunwind::UnwindCursor<libunwind::LocalAddressSpace, libunwind::Registers_arm64>::getFloatReg(int)
PUBLIC 649bc 0 libunwind::UnwindCursor<libunwind::LocalAddressSpace, libunwind::Registers_arm64>::setFloatReg(int, double)
PUBLIC 649cc 0 libunwind::UnwindCursor<libunwind::LocalAddressSpace, libunwind::Registers_arm64>::step(bool)
PUBLIC 64abc 0 libunwind::UnwindCursor<libunwind::LocalAddressSpace, libunwind::Registers_arm64>::getInfo(unw_proc_info_t*)
PUBLIC 64b00 0 libunwind::UnwindCursor<libunwind::LocalAddressSpace, libunwind::Registers_arm64>::jumpto()
PUBLIC 64b0c 0 libunwind::UnwindCursor<libunwind::LocalAddressSpace, libunwind::Registers_arm64>::isSignalFrame()
PUBLIC 64b18 0 libunwind::UnwindCursor<libunwind::LocalAddressSpace, libunwind::Registers_arm64>::getFunctionName(char*, unsigned long, unsigned long*)
PUBLIC 64b44 0 libunwind::UnwindCursor<libunwind::LocalAddressSpace, libunwind::Registers_arm64>::setInfoBasedOnIPRegister(bool)
PUBLIC 64dc4 0 libunwind::UnwindCursor<libunwind::LocalAddressSpace, libunwind::Registers_arm64>::getRegisterName(int)
PUBLIC 64dd0 0 libunwind::UnwindCursor<libunwind::LocalAddressSpace, libunwind::Registers_arm64>::stepThroughSigReturn(libunwind::Registers_arm64&)
PUBLIC 64ef0 0 libunwind::DwarfInstructions<libunwind::LocalAddressSpace, libunwind::Registers_arm64>::stepWithDwarf(libunwind::LocalAddressSpace&, unsigned long, unsigned long, libunwind::Registers_arm64&, bool&, bool)
PUBLIC 65378 0 libunwind::CFI_Parser<libunwind::LocalAddressSpace>::parseFDEInstructions(libunwind::LocalAddressSpace&, libunwind::CFI_Parser<libunwind::LocalAddressSpace>::FDE_Info const&, libunwind::CFI_Parser<libunwind::LocalAddressSpace>::CIE_Info const&, unsigned long, int, libunwind::CFI_Parser<libunwind::LocalAddressSpace>::PrologInfo*)
PUBLIC 65fc0 0 libunwind::DwarfInstructions<libunwind::LocalAddressSpace, libunwind::Registers_arm64>::getCFA(libunwind::LocalAddressSpace&, libunwind::CFI_Parser<libunwind::LocalAddressSpace>::PrologInfo const&, libunwind::Registers_arm64 const&)
PUBLIC 660f4 0 libunwind::DwarfInstructions<libunwind::LocalAddressSpace, libunwind::Registers_arm64>::getSavedRegister(libunwind::LocalAddressSpace&, libunwind::Registers_arm64 const&, unsigned long, libunwind::CFI_Parser<libunwind::LocalAddressSpace>::RegisterLocation const&)
PUBLIC 66304 0 libunwind::LocalAddressSpace::getEncodedP(unsigned long&, unsigned long, unsigned char, unsigned long)
PUBLIC 66690 0 libunwind::LocalAddressSpace::getULEB128(unsigned long&, unsigned long)
PUBLIC 66858 0 libunwind::DwarfInstructions<libunwind::LocalAddressSpace, libunwind::Registers_arm64>::evaluateExpression(unsigned long, libunwind::LocalAddressSpace&, libunwind::Registers_arm64 const&, unsigned long)
PUBLIC 67214 0 libunwind::UnwindCursor<libunwind::LocalAddressSpace, libunwind::Registers_arm64>::getInfoFromDwarfSection(unsigned long, libunwind::UnwindInfoSections const&, unsigned int)
PUBLIC 674e8 0 libunwind::findUnwindSectionsByPhdr(dl_phdr_info*, unsigned long, void*)
PUBLIC 6761c 0 libunwind::EHHeaderParser<libunwind::LocalAddressSpace>::decodeEHHdr(libunwind::LocalAddressSpace&, unsigned long, unsigned long, libunwind::EHHeaderParser<libunwind::LocalAddressSpace>::EHHeaderInfo&)
PUBLIC 6773c 0 libunwind::CFI_Parser<libunwind::LocalAddressSpace>::findFDE(libunwind::LocalAddressSpace&, unsigned long, unsigned long, unsigned long, unsigned long, libunwind::CFI_Parser<libunwind::LocalAddressSpace>::FDE_Info*, libunwind::CFI_Parser<libunwind::LocalAddressSpace>::CIE_Info*)
PUBLIC 67904 0 libunwind::EHHeaderParser<libunwind::LocalAddressSpace>::findFDE(libunwind::LocalAddressSpace&, unsigned long, unsigned long, unsigned int, libunwind::CFI_Parser<libunwind::LocalAddressSpace>::FDE_Info*, libunwind::CFI_Parser<libunwind::LocalAddressSpace>::CIE_Info*)
PUBLIC 67a6c 0 libunwind::EHHeaderParser<libunwind::LocalAddressSpace>::getTableEntrySize(unsigned char)
PUBLIC 67b68 0 libunwind::Registers_arm64::getRegisterName(int)
PUBLIC 67b98 0 __libunwind_Registers_arm64_jumpto
PUBLIC m 67c28 0 __unw_getcontext
PUBLIC 67cc4 0 Callbacks::generateMenuLayerCallbacks()
PUBLIC 683f8 0 Callbacks::generateCreatorLayerCallbacks()
PUBLIC 69018 0 Callbacks::generateGarageCallbacks()
PUBLIC 6930c 0 Callbacks::getDummyButton()
PUBLIC 6946c 0 std::__ndk1::basic_string<char, std::__ndk1::char_traits<char>, std::__ndk1::allocator<char> >::__throw_length_error[abi:ne180000]() const
PUBLIC 69480 0 std::__ndk1::__throw_length_error[abi:ne180000](char const*)
PUBLIC 694d0 0 std::length_error::length_error[abi:ne180000](char const*)
PUBLIC 69500 0 cocos2d::CCCopying::copyWithZone(cocos2d::CCZone*)
PUBLIC 69508 0 cocos2d::CCBool::~CCBool()
PUBLIC 6952c 0 cocos2d::CCBool::acceptVisitor(cocos2d::CCDataVisitor&)
PUBLIC 69544 0 cocos2d::CCObject::update(float)
PUBLIC 69548 0 std::__ndk1::__tree<std::__ndk1::__value_type<std::__ndk1::basic_string<char, std::__ndk1::char_traits<char>, std::__ndk1::allocator<char> >, geode::Ref<cocos2d::CCNode> >, std::__ndk1::__map_value_compare<std::__ndk1::basic_string<char, std::__ndk1::char_traits<char>, std::__ndk1::allocator<char> >, std::__ndk1::__value_type<std::__ndk1::basic_string<char, std::__ndk1::char_traits<char>, std::__ndk1::allocator<char> >, geode::Ref<cocos2d::CCNode> >, std::__ndk1::less<std::__ndk1::basic_string<char, std::__ndk1::char_traits<char>, std::__ndk1::allocator<char> > >, true>, std::__ndk1::allocator<std::__ndk1::__value_type<std::__ndk1::basic_string<char, std::__ndk1::char_traits<char>, std::__ndk1::allocator<char> >, geode::Ref<cocos2d::CCNode> > > >::__emplace_unique_key_args<std::__ndk1::basic_string<char, std::__ndk1::char_traits<char>, std::__ndk1::allocator<char> >, std::__ndk1::piecewise_construct_t const&, std::__ndk1::tuple<std::__ndk1::basic_string<char, std::__ndk1::char_traits<char>, std::__ndk1::allocator<char> >&&>, std::__ndk1::tuple<> >(std::__ndk1::basic_string<char, std::__ndk1::char_traits<char>, std::__ndk1::allocator<char> > const&, std::__ndk1::piecewise_construct_t const&, std::__ndk1::tuple<std::__ndk1::basic_string<char, std::__ndk1::char_traits<char>, std::__ndk1::allocator<char> >&&>, std::__ndk1::tuple<>)
PUBLIC 696ac 0 std::__ndk1::__tree_balance_after_insert[abi:ne180000]<std::__ndk1::__tree_node_base<void*>*>(std::__ndk1::__tree_node_base<void*>*, std::__ndk1::__tree_node_base<void*>*)
PUBLIC 6985c 0 std::__ndk1::__tree<std::__ndk1::__value_type<std::__ndk1::basic_string<char, std::__ndk1::char_traits<char>, std::__ndk1::allocator<char> >, std::__ndk1::pair<cocos2d::CCNode*, void (cocos2d::CCObject::*)(cocos2d::CCObject*)> >, std::__ndk1::__map_value_compare<std::__ndk1::basic_string<char, std::__ndk1::char_traits<char>, std::__ndk1::allocator<char> >, std::__ndk1::__value_type<std::__ndk1::basic_string<char, std::__ndk1::char_traits<char>, std::__ndk1::allocator<char> >, std::__ndk1::pair<cocos2d::CCNode*, void (cocos2d::CCObject::*)(cocos2d::CCObject*)> >, std::__ndk1::less<std::__ndk1::basic_string<char, std::__ndk1::char_traits<char>, std::__ndk1::allocator<char> > >, true>, std::__ndk1::allocator<std::__ndk1::__value_type<std::__ndk1::basic_string<char, std::__ndk1::char_traits<char>, std::__ndk1::allocator<char> >, std::__ndk1::pair<cocos2d::CCNode*, void (cocos2d::CCObject::*)(cocos2d::CCObject*)> > > >::destroy(std::__ndk1::__tree_node<std::__ndk1::__value_type<std::__ndk1::basic_string<char, std::__ndk1::char_traits<char>, std::__ndk1::allocator<char> >, std::__ndk1::pair<cocos2d::CCNode*, void (cocos2d::CCObject::*)(cocos2d::CCObject*)> >, void*>*)
PUBLIC 698ac 0 std::__ndk1::__tree<std::__ndk1::__value_type<std::__ndk1::basic_string<char, std::__ndk1::char_traits<char>, std::__ndk1::allocator<char> >, std::__ndk1::map<std::__ndk1::basic_string<char, std::__ndk1::char_traits<char>, std::__ndk1::allocator<char> >, std::__ndk1::pair<cocos2d::CCNode*, void (cocos2d::CCObject::*)(cocos2d::CCObject*)>, std::__ndk1::less<std::__ndk1::basic_string<char, std::__ndk1::char_traits<char>, std::__ndk1::allocator<char> > >, std::__ndk1::allocator<std::__ndk1::pair<std::__ndk1::basic_string<char, std::__ndk1::char_traits<char>, std::__ndk1::allocator<char> > const, std::__ndk1::pair<cocos2d::CCNode*, void (cocos2d::CCObject::*)(cocos2d::CCObject*)> > > > >, std::__ndk1::__map_value_compare<std::__ndk1::basic_string<char, std::__ndk1::char_traits<char>, std::__ndk1::allocator<char> >, std::__ndk1::__value_type<std::__ndk1::basic_string<char, std::__ndk1::char_traits<char>, std::__ndk1::allocator<char> >, std::__ndk1::map<std::__ndk1::basic_string<char, std::__ndk1::char_traits<char>, std::__ndk1::allocator<char> >, std::__ndk1::pair<cocos2d::CCNode*, void (cocos2d::CCObject::*)(cocos2d::CCObject*)>, std::__ndk1::less<std::__ndk1::basic_string<char, std::__ndk1::char_traits<char>, std::__ndk1::allocator<char> > >, std::__ndk1::allocator<std::__ndk1::pair<std::__ndk1::basic_string<char, std::__ndk1::char_traits<char>, std::__ndk1::allocator<char> > const, std::__ndk1::pair<cocos2d::CCNode*, void (cocos2d::CCObject::*)(cocos2d::CCObject*)> > > > >, std::__ndk1::less<std::__ndk1::basic_string<char, std::__ndk1::char_traits<char>, std::__ndk1::allocator<char> > >, true>, std::__ndk1::allocator<std::__ndk1::__value_type<std::__ndk1::basic_string<char, std::__ndk1::char_traits<char>, std::__ndk1::allocator<char> >, std::__ndk1::map<std::__ndk1::basic_string<char, std::__ndk1::char_traits<char>, std::__ndk1::allocator<char> >, std::__ndk1::pair<cocos2d::CCNode*, void (cocos2d::CCObject::*)(cocos2d::CCObject*)>, std::__ndk1::less<std::__ndk1::basic_string<char, std::__ndk1::char_traits<char>, std::__ndk1::allocator<char> > >, std::__ndk1::allocator<std::__ndk1::pair<std::__ndk1::basic_string<char, std::__ndk1::char_traits<char>, std::__ndk1::allocator<char> > const, std::__ndk1::pair<cocos2d::CCNode*, void (cocos2d::CCObject::*)(cocos2d::CCObject*)> > > > > > >::__emplace_unique_key_args<std::__ndk1::basic_string<char, std::__ndk1::char_traits<char>, std::__ndk1::allocator<char> >, std::__ndk1::piecewise_construct_t const&, std::__ndk1::tuple<std::__ndk1::basic_string<char, std::__ndk1::char_traits<char>, std::__ndk1::allocator<char> >&&>, std::__ndk1::tuple<> >(std::__ndk1::basic_string<char, std::__ndk1::char_traits<char>, std::__ndk1::allocator<char> > const&, std::__ndk1::piecewise_construct_t const&, std::__ndk1::tuple<std::__ndk1::basic_string<char, std::__ndk1::char_traits<char>, std::__ndk1::allocator<char> >&&>, std::__ndk1::tuple<>)
PUBLIC 69a1c 0 std::__ndk1::__tree<std::__ndk1::__value_type<std::__ndk1::basic_string<char, std::__ndk1::char_traits<char>, std::__ndk1::allocator<char> >, std::__ndk1::pair<cocos2d::CCNode*, void (cocos2d::CCObject::*)(cocos2d::CCObject*)> >, std::__ndk1::__map_value_compare<std::__ndk1::basic_string<char, std::__ndk1::char_traits<char>, std::__ndk1::allocator<char> >, std::__ndk1::__value_type<std::__ndk1::basic_string<char, std::__ndk1::char_traits<char>, std::__ndk1::allocator<char> >, std::__ndk1::pair<cocos2d::CCNode*, void (cocos2d::CCObject::*)(cocos2d::CCObject*)> >, std::__ndk1::less<std::__ndk1::basic_string<char, std::__ndk1::char_traits<char>, std::__ndk1::allocator<char> > >, true>, std::__ndk1::allocator<std::__ndk1::__value_type<std::__ndk1::basic_string<char, std::__ndk1::char_traits<char>, std::__ndk1::allocator<char> >, std::__ndk1::pair<cocos2d::CCNode*, void (cocos2d::CCObject::*)(cocos2d::CCObject*)> > > >::__assign_multi<std::__ndk1::__tree_const_iterator<std::__ndk1::__value_type<std::__ndk1::basic_string<char, std::__ndk1::char_traits<char>, std::__ndk1::allocator<char> >, std::__ndk1::pair<cocos2d::CCNode*, void (cocos2d::CCObject::*)(cocos2d::CCObject*)> >, std::__ndk1::__tree_node<std::__ndk1::__value_type<std::__ndk1::basic_string<char, std::__ndk1::char_traits<char>, std::__ndk1::allocator<char> >, std::__ndk1::pair<cocos2d::CCNode*, void (cocos2d::CCObject::*)(cocos2d::CCObject*)> >, void*>*, long> >(std::__ndk1::__tree_const_iterator<std::__ndk1::__value_type<std::__ndk1::basic_string<char, std::__ndk1::char_traits<char>, std::__ndk1::allocator<char> >, std::__ndk1::pair<cocos2d::CCNode*, void (cocos2d::CCObject::*)(cocos2d::CCObject*)> >, std::__ndk1::__tree_node<std::__ndk1::__value_type<std::__ndk1::basic_string<char, std::__ndk1::char_traits<char>, std::__ndk1::allocator<char> >, std::__ndk1::pair<cocos2d::CCNode*, void (cocos2d::CCObject::*)(cocos2d::CCObject*)> >, void*>*, long>, std::__ndk1::__tree_const_iterator<std::__ndk1::__value_type<std::__ndk1::basic_string<char, std::__ndk1::char_traits<char>, std::__ndk1::allocator<char> >, std::__ndk1::pair<cocos2d::CCNode*, void (cocos2d::CCObject::*)(cocos2d::CCObject*)> >, std::__ndk1::__tree_node<std::__ndk1::__value_type<std::__ndk1::basic_string<char, std::__ndk1::char_traits<char>, std::__ndk1::allocator<char> >, std::__ndk1::pair<cocos2d::CCNode*, void (cocos2d::CCObject::*)(cocos2d::CCObject*)> >, void*>*, long>)
PUBLIC 69f38 0 std::__ndk1::__tree<std::__ndk1::__value_type<std::__ndk1::basic_string<char, std::__ndk1::char_traits<char>, std::__ndk1::allocator<char> >, std::__ndk1::pair<cocos2d::CCNode*, void (cocos2d::CCObject::*)(cocos2d::CCObject*)> >, std::__ndk1::__map_value_compare<std::__ndk1::basic_string<char, std::__ndk1::char_traits<char>, std::__ndk1::allocator<char> >, std::__ndk1::__value_type<std::__ndk1::basic_string<char, std::__ndk1::char_traits<char>, std::__ndk1::allocator<char> >, std::__ndk1::pair<cocos2d::CCNode*, void (cocos2d::CCObject::*)(cocos2d::CCObject*)> >, std::__ndk1::less<std::__ndk1::basic_string<char, std::__ndk1::char_traits<char>, std::__ndk1::allocator<char> > >, true>, std::__ndk1::allocator<std::__ndk1::__value_type<std::__ndk1::basic_string<char, std::__ndk1::char_traits<char>, std::__ndk1::allocator<char> >, std::__ndk1::pair<cocos2d::CCNode*, void (cocos2d::CCObject::*)(cocos2d::CCObject*)> > > >::_DetachedTreeCache::~_DetachedTreeCache[abi:ne180000]()
PUBLIC 69f90 0 std::__ndk1::basic_string<char, std::__ndk1::char_traits<char>, std::__ndk1::allocator<char> >::__assign_no_alias<true>(char const*, unsigned long)
PUBLIC 6a03c 0 std::__ndk1::basic_string<char, std::__ndk1::char_traits<char>, std::__ndk1::allocator<char> >::__assign_no_alias<false>(char const*, unsigned long)
PUBLIC 6a14c 0 std::__ndk1::unique_ptr<std::__ndk1::__tree_node<std::__ndk1::__value_type<std::__ndk1::basic_string<char, std::__ndk1::char_traits<char>, std::__ndk1::allocator<char> >, std::__ndk1::pair<cocos2d::CCNode*, void (cocos2d::CCObject::*)(cocos2d::CCObject*)> >, void*>, std::__ndk1::__tree_node_destructor<std::__ndk1::allocator<std::__ndk1::__tree_node<std::__ndk1::__value_type<std::__ndk1::basic_string<char, std::__ndk1::char_traits<char>, std::__ndk1::allocator<char> >, std::__ndk1::pair<cocos2d::CCNode*, void (cocos2d::CCObject::*)(cocos2d::CCObject*)> >, void*> > > >::~unique_ptr[abi:ne180000]()
PUBLIC 6a19c 0 std::__ndk1::basic_string<char, std::__ndk1::char_traits<char>, std::__ndk1::allocator<char> >::__init_copy_ctor_external(char const*, unsigned long)
PUBLIC 6a21c 0 std::__ndk1::__tree<std::__ndk1::__value_type<std::__ndk1::basic_string<char, std::__ndk1::char_traits<char>, std::__ndk1::allocator<char> >, std::__ndk1::pair<cocos2d::CCNode*, void (cocos2d::CCObject::*)(cocos2d::CCObject*)> >, std::__ndk1::__map_value_compare<std::__ndk1::basic_string<char, std::__ndk1::char_traits<char>, std::__ndk1::allocator<char> >, std::__ndk1::__value_type<std::__ndk1::basic_string<char, std::__ndk1::char_traits<char>, std::__ndk1::allocator<char> >, std::__ndk1::pair<cocos2d::CCNode*, void (cocos2d::CCObject::*)(cocos2d::CCObject*)> >, std::__ndk1::less<std::__ndk1::basic_string<char, std::__ndk1::char_traits<char>, std::__ndk1::allocator<char> > >, true>, std::__ndk1::allocator<std::__ndk1::__value_type<std::__ndk1::basic_string<char, std::__ndk1::char_traits<char>, std::__ndk1::allocator<char> >, std::__ndk1::pair<cocos2d::CCNode*, void (cocos2d::CCObject::*)(cocos2d::CCObject*)> > > >::__emplace_unique_key_args<std::__ndk1::basic_string<char, std::__ndk1::char_traits<char>, std::__ndk1::allocator<char> >, std::__ndk1::piecewise_construct_t const&, std::__ndk1::tuple<std::__ndk1::basic_string<char, std::__ndk1::char_traits<char>, std::__ndk1::allocator<char> >&&>, std::__ndk1::tuple<> >(std::__ndk1::basic_string<char, std::__ndk1::char_traits<char>, std::__ndk1::allocator<char> > const&, std::__ndk1::piecewise_construct_t const&, std::__ndk1::tuple<std::__ndk1::basic_string<char, std::__ndk1::char_traits<char>, std::__ndk1::allocator<char> >&&>, std::__ndk1::tuple<>)
PUBLIC 6a390 0 __aarch64_ldadd8_relax
PUBLIC 6a3c0 0 init_have_lse_atomics
PUBLIC 6a458 0 __init_cpu_features_constructor
PUBLIC 6a9f4 0 __init_cpu_features
PUBLIC 6aa80 0 __aarch64_ldadd8_acq_rel
PUBLIC 6aab0 0 UIModding::updateColors(cocos2d::CCNode*, std::__ndk1::basic_string<char, std::__ndk1::char_traits<char>, std::__ndk1::allocator<char> >)
PUBLIC 6ac04 0 UIModding::getColors(std::__ndk1::basic_string<char, std::__ndk1::char_traits<char>, std::__ndk1::allocator<char> >)
PUBLIC 6b3d4 0 std::__ndk1::basic_string<char, std::__ndk1::char_traits<char>, std::__ndk1::allocator<char> >::basic_string[abi:ne180000]<0>()
PUBLIC 6b470 0 geode::impl::ResultData<long, std::__ndk1::basic_string<char, std::__ndk1::char_traits<char>, std::__ndk1::allocator<char> > >::~ResultData()
PUBLIC 6b4e4 0 geode::impl::ResultData<matjson::Value, matjson::ParseError>::~ResultData()
PUBLIC 6b558 0 UIModding::recursiveModify(cocos2d::CCNode*, matjson::Value)
PUBLIC 6bd38 0 geode::impl::ResultData<std::__ndk1::basic_string<char, std::__ndk1::char_traits<char>, std::__ndk1::allocator<char> >, std::__ndk1::basic_string<char, std::__ndk1::char_traits<char>, std::__ndk1::allocator<char> > >::~ResultData()
PUBLIC 6bdac 0 UIModding::handleModifications(cocos2d::CCNode*, matjson::Value)
PUBLIC 7667c 0 geode::cocos::CCArrayExt<cocos2d::CCNode*, cocos2d::CCNode>::~CCArrayExt()
PUBLIC 7669c 0 geode::impl::ResultData<std::__ndk1::vector<matjson::Value, std::__ndk1::allocator<matjson::Value> >&, std::__ndk1::basic_string<char, std::__ndk1::char_traits<char>, std::__ndk1::allocator<char> > >::unwrap() &
PUBLIC 76718 0 UIModding::createAction(cocos2d::CCNode*, matjson::Value)
PUBLIC 77e30 0 geode::impl::ResultData<std::__ndk1::vector<matjson::Value, std::__ndk1::allocator<matjson::Value> >&, std::__ndk1::basic_string<char, std::__ndk1::char_traits<char>, std::__ndk1::allocator<char> > >::~ResultData()
PUBLIC 77ea4 0 geode::impl::ResultData<bool, std::__ndk1::basic_string<char, std::__ndk1::char_traits<char>, std::__ndk1::allocator<char> > >::~ResultData()
PUBLIC 77f18 0 geode::impl::ResultData<double, std::__ndk1::basic_string<char, std::__ndk1::char_traits<char>, std::__ndk1::allocator<char> > >::~ResultData()
PUBLIC 77f8c 0 std::__ndk1::operator==[abi:ne180000]<char, std::__ndk1::char_traits<char>, std::__ndk1::allocator<char> >(std::__ndk1::basic_string<char, std::__ndk1::char_traits<char>, std::__ndk1::allocator<char> > const&, std::__ndk1::basic_string const*)
PUBLIC 7800c 0 UIModding::getAxisAlignment(std::__ndk1::basic_string<char, std::__ndk1::char_traits<char>, std::__ndk1::allocator<char> >)
PUBLIC 78110 0 gd::vector<gd::string>::~vector()
PUBLIC 78180 0 geode::cast::typeinfo_cast<FLAlertLayer*, cocos2d::CCNode*>(cocos2d::CCNode*)
PUBLIC 781ac 0 UIModding::stringToBlendingMode(std::__ndk1::basic_string<char, std::__ndk1::char_traits<char>, std::__ndk1::allocator<char> >)
PUBLIC 78498 0 std::__ndk1::map<std::__ndk1::basic_string<char, std::__ndk1::char_traits<char>, std::__ndk1::allocator<char> >, unsigned int, std::__ndk1::less<std::__ndk1::basic_string<char, std::__ndk1::char_traits<char>, std::__ndk1::allocator<char> > >, std::__ndk1::allocator<std::__ndk1::pair<std::__ndk1::basic_string<char, std::__ndk1::char_traits<char>, std::__ndk1::allocator<char> > const, unsigned int> > >::~map[abi:ne180000]()
PUBLIC 784a0 0 cocos2d::CCNode::getChildByType<ButtonSprite, ButtonSprite>(int)
PUBLIC 78568 0 generateValidSprites(std::__ndk1::basic_string<char, std::__ndk1::char_traits<char>, std::__ndk1::allocator<char> >, matjson::Value)
PUBLIC 79494 0 Utils::getActivePacks()
PUBLIC 7a0e4 0 std::__ndk1::__fs::filesystem::directory_iterator::~directory_iterator[abi:ne180000]()
PUBLIC 7a134 0 std::__ndk1::vector<std::__ndk1::basic_string<char, std::__ndk1::char_traits<char>, std::__ndk1::allocator<char> >, std::__ndk1::allocator<std::__ndk1::basic_string<char, std::__ndk1::char_traits<char>, std::__ndk1::allocator<char> > > >::~vector[abi:ne180000]()
PUBLIC 7a1b0 0 std::__ndk1::vector<std::__ndk1::__fs::filesystem::path, std::__ndk1::allocator<std::__ndk1::__fs::filesystem::path> >::~vector[abi:ne180000]()
PUBLIC 7a22c 0 Utils::getValidSprite(char const*)
PUBLIC 7a30c 0 Utils::getRandomNumber(int, int)
PUBLIC 7a56c 0 Utils::updateSprite(CCMenuItemSpriteExtra*)
PUBLIC 7a630 0 Utils::getValidSpriteFrame(char const*)
PUBLIC 7a710 0 UIModding::evaluateIf(cocos2d::CCNode*, matjson::Value)
PUBLIC 7c4ec 0 LabelValues::getValueMap(std::__ndk1::basic_string<char, std::__ndk1::char_traits<char>, std::__ndk1::allocator<char> >)
PUBLIC 81db8 0 rift::Value::~Value()
PUBLIC 81e2c 0 geode::impl::ResultData<rift::Value, rift::CompileError>::~ResultData()
PUBLIC 81ea0 0 std::__ndk1::unordered_map<std::__ndk1::basic_string<char, std::__ndk1::char_traits<char>, std::__ndk1::allocator<char> >, rift::Value, std::__ndk1::hash<std::__ndk1::basic_string<char, std::__ndk1::char_traits<char>, std::__ndk1::allocator<char> > >, std::__ndk1::equal_to<std::__ndk1::basic_string<char, std::__ndk1::char_traits<char>, std::__ndk1::allocator<char> > >, std::__ndk1::allocator<std::__ndk1::pair<std::__ndk1::basic_string<char, std::__ndk1::char_traits<char>, std::__ndk1::allocator<char> > const, rift::Value> > >::~unordered_map[abi:ne180000]()
PUBLIC 81f68 0 EventCCMenuItemSpriteExtra::setOnClick(matjson::Value)
PUBLIC 820e8 0 EventCCMenuItemSpriteExtra::setOnRelease(matjson::Value)
PUBLIC 82268 0 EventCCMenuItemSpriteExtra::setOnActivate(matjson::Value)
PUBLIC 823e8 0 MyFLAlertLayer::setRift()
PUBLIC 824f8 0 DataNode::create(cocos2d::CCNode*)
PUBLIC 82554 0 UIModding::doUICheck(cocos2d::CCNode*, bool)
PUBLIC 83904 0 UIModding::startFileListeners()
PUBLIC 84078 0 UIModding::loadNodeFiles()
PUBLIC 84bcc 0 std::__ndk1::pair<std::__ndk1::basic_string<char, std::__ndk1::char_traits<char>, std::__ndk1::allocator<char> > const, matjson::Value>::~pair()
PUBLIC 84c08 0 UIModding::doUICheckForType(std::__ndk1::basic_string<char, std::__ndk1::char_traits<char>, std::__ndk1::allocator<char> >, cocos2d::CCNode*)
PUBLIC 84d0c 0 __cxx_global_var_init.200
PUBLIC 84d6c 0 geode::modifier::ModifyBase<geode::modifier::ModifyDerive<MyCCLabelBMFont, cocos2d::CCLabelBMFont> >::~ModifyBase()
PUBLIC 84d88 0 __cxx_global_var_init.201
PUBLIC 84de8 0 geode::modifier::ModifyBase<geode::modifier::ModifyDerive<EventCCMenuItemSpriteExtra, CCMenuItemSpriteExtra> >::~ModifyBase()
PUBLIC 84e04 0 __cxx_global_var_init.202
PUBLIC 84e64 0 geode::modifier::ModifyBase<geode::modifier::ModifyDerive<MyTextArea, TextArea> >::~ModifyBase()
PUBLIC 84e80 0 __cxx_global_var_init.203
PUBLIC 84ee0 0 geode::modifier::ModifyBase<geode::modifier::ModifyDerive<MyFLAlertLayer, FLAlertLayer> >::~ModifyBase()
PUBLIC 84efc 0 __cxx_global_var_init.204
PUBLIC 84f5c 0 geode::modifier::ModifyBase<geode::modifier::ModifyDerive<MyCCNode, cocos2d::CCNode> >::~ModifyBase()
PUBLIC 84f78 0 std::__throw_bad_array_new_length([abi:ne180000], void)
PUBLIC 84fac 0 __clang_call_terminate
PUBLIC 84fbc 0 std::__ndk1::__throw_bad_variant_access[abi:ne180000]()
PUBLIC 84ff0 0 geode::UnwrapException::~UnwrapException()
PUBLIC 85014 0 std::__ndk1::__variant_detail::__visitation::__base::__dispatcher<(unsigned long)0>::__dispatch[abi:ne180000]<std::__ndk1::__variant_detail::__dtor<std::__ndk1::__variant_detail::__traits<long, std::__ndk1::basic_string<char, std::__ndk1::char_traits<char>, std::__ndk1::allocator<char> > >, (std::__ndk1::__variant_detail::_Trait)1>::__destroy[abi:ne180000]()::{lambda(auto:1&)#1}, std::__ndk1::__variant_detail::__base<(std::__ndk1::__variant_detail::__traits<long, std::__ndk1::basic_string<char, std::__ndk1::char_traits<char>, std::__ndk1::allocator<char> > >)1, long, std::__ndk1::allocator<char> >&>(std::__ndk1::__variant_detail::__dtor<std::__ndk1::__variant_detail::__traits<long, std::__ndk1::basic_string<char, std::__ndk1::char_traits<char>, std::__ndk1::allocator<char> > >, (std::__ndk1::__variant_detail::_Trait)1>, std::__ndk1::__variant_detail::__base<(std::__ndk1::__variant_detail::__traits<long, std::__ndk1::basic_string<char, std::__ndk1::char_traits<char>, std::__ndk1::allocator<char> > >)1, long, std::__ndk1::allocator<char> >&)
PUBLIC 85018 0 std::__ndk1::__variant_detail::__visitation::__base::__dispatcher<(unsigned long)1>::__dispatch[abi:ne180000]<std::__ndk1::__variant_detail::__dtor<std::__ndk1::__variant_detail::__traits<long, std::__ndk1::basic_string<char, std::__ndk1::char_traits<char>, std::__ndk1::allocator<char> > >, (std::__ndk1::__variant_detail::_Trait)1>::__destroy[abi:ne180000]()::{lambda(auto:1&)#1}, std::__ndk1::__variant_detail::__base<(std::__ndk1::__variant_detail::__traits<long, std::__ndk1::basic_string<char, std::__ndk1::char_traits<char>, std::__ndk1::allocator<char> > >)1, long, std::__ndk1::allocator<char> >&>(std::__ndk1::__variant_detail::__dtor<std::__ndk1::__variant_detail::__traits<long, std::__ndk1::basic_string<char, std::__ndk1::char_traits<char>, std::__ndk1::allocator<char> > >, (std::__ndk1::__variant_detail::_Trait)1>, std::__ndk1::__variant_detail::__base<(std::__ndk1::__variant_detail::__traits<long, std::__ndk1::basic_string<char, std::__ndk1::char_traits<char>, std::__ndk1::allocator<char> > >)1, long, std::__ndk1::allocator<char> >&)
PUBLIC 8502c 0 std::__ndk1::__variant_detail::__visitation::__base::__dispatcher<(unsigned long)0>::__dispatch[abi:ne180000]<std::__ndk1::__variant_detail::__dtor<std::__ndk1::__variant_detail::__traits<matjson::Value, std::__ndk1::__variant_detail::__traits::ParseError>, (std::__ndk1::__variant_detail::_Trait)1>::__destroy[abi:ne180000]()::{lambda(auto:1&)#1}, std::__ndk1::__variant_detail::__base<(std::__ndk1::__variant_detail::__traits<matjson::Value, std::__ndk1::__variant_detail::__traits::ParseError>)1, matjson, matjson::Value>&>(std::__ndk1::__variant_detail::__dtor<std::__ndk1::__variant_detail::__traits<matjson::Value, std::__ndk1::__variant_detail::__traits::ParseError>, (std::__ndk1::__variant_detail::_Trait)1>, std::__ndk1::__variant_detail::__base<(std::__ndk1::__variant_detail::__traits<matjson::Value, std::__ndk1::__variant_detail::__traits::ParseError>)1, matjson, matjson::Value>&)
PUBLIC 85034 0 std::__ndk1::__variant_detail::__visitation::__base::__dispatcher<(unsigned long)1>::__dispatch[abi:ne180000]<std::__ndk1::__variant_detail::__dtor<std::__ndk1::__variant_detail::__traits<matjson::Value, std::__ndk1::__variant_detail::__traits::ParseError>, (std::__ndk1::__variant_detail::_Trait)1>::__destroy[abi:ne180000]()::{lambda(auto:1&)#1}, std::__ndk1::__variant_detail::__base<(std::__ndk1::__variant_detail::__traits<matjson::Value, std::__ndk1::__variant_detail::__traits::ParseError>)1, matjson, matjson::Value>&>(std::__ndk1::__variant_detail::__dtor<std::__ndk1::__variant_detail::__traits<matjson::Value, std::__ndk1::__variant_detail::__traits::ParseError>, (std::__ndk1::__variant_detail::_Trait)1>, std::__ndk1::__variant_detail::__base<(std::__ndk1::__variant_detail::__traits<matjson::Value, std::__ndk1::__variant_detail::__traits::ParseError>)1, matjson, matjson::Value>&)
PUBLIC 85048 0 std::__ndk1::__variant_detail::__visitation::__base::__dispatcher<(unsigned long)0>::__dispatch[abi:ne180000]<std::__ndk1::__variant_detail::__dtor<std::__ndk1::__variant_detail::__traits<std::__ndk1::basic_string<char, std::__ndk1::char_traits<char>, std::__ndk1::allocator<char> >, std::__ndk1::allocator<char> >, (std::__ndk1::__variant_detail::_Trait)1>::__destroy[abi:ne180000]()::{lambda(auto:1&)#1}, std::__ndk1::__variant_detail::__base<(std::__ndk1::__variant_detail::__traits<std::__ndk1::basic_string<char, std::__ndk1::char_traits<char>, std::__ndk1::allocator<char> >, std::__ndk1::allocator<char> >)1, std::__ndk1::allocator<char>, std::__ndk1::allocator<char> >&>(std::__ndk1::__variant_detail::__dtor<std::__ndk1::__variant_detail::__traits<std::__ndk1::basic_string<char, std::__ndk1::char_traits<char>, std::__ndk1::allocator<char> >, std::__ndk1::allocator<char> >, (std::__ndk1::__variant_detail::_Trait)1>, std::__ndk1::__variant_detail::__base<(std::__ndk1::__variant_detail::__traits<std::__ndk1::basic_string<char, std::__ndk1::char_traits<char>, std::__ndk1::allocator<char> >, std::__ndk1::allocator<char> >)1, std::__ndk1::allocator<char>, std::__ndk1::allocator<char> >&)
PUBLIC 8505c 0 std::__ndk1::__variant_detail::__visitation::__base::__dispatcher<(unsigned long)1>::__dispatch[abi:ne180000]<std::__ndk1::__variant_detail::__dtor<std::__ndk1::__variant_detail::__traits<std::__ndk1::basic_string<char, std::__ndk1::char_traits<char>, std::__ndk1::allocator<char> >, std::__ndk1::allocator<char> >, (std::__ndk1::__variant_detail::_Trait)1>::__destroy[abi:ne180000]()::{lambda(auto:1&)#1}, std::__ndk1::__variant_detail::__base<(std::__ndk1::__variant_detail::__traits<std::__ndk1::basic_string<char, std::__ndk1::char_traits<char>, std::__ndk1::allocator<char> >, std::__ndk1::allocator<char> >)1, std::__ndk1::allocator<char>, std::__ndk1::allocator<char> >&>(std::__ndk1::__variant_detail::__dtor<std::__ndk1::__variant_detail::__traits<std::__ndk1::basic_string<char, std::__ndk1::char_traits<char>, std::__ndk1::allocator<char> >, std::__ndk1::allocator<char> >, (std::__ndk1::__variant_detail::_Trait)1>, std::__ndk1::__variant_detail::__base<(std::__ndk1::__variant_detail::__traits<std::__ndk1::basic_string<char, std::__ndk1::char_traits<char>, std::__ndk1::allocator<char> >, std::__ndk1::allocator<char> >)1, std::__ndk1::allocator<char>, std::__ndk1::allocator<char> >&)
PUBLIC 85070 0 std::__ndk1::basic_string<char, std::__ndk1::char_traits<char>, std::__ndk1::allocator<char> >::__throw_out_of_range[abi:ne180000]() const
PUBLIC 85084 0 std::__ndk1::__throw_out_of_range[abi:ne180000](char const*)
PUBLIC 850d4 0 std::out_of_range::out_of_range[abi:ne180000](char const*)
PUBLIC 85104 0 _ZN5geode15UnwrapExceptionC2IRNSt6__ndk112basic_stringIcNS2_11char_traitsIcEENS2_9allocatorIcEEEEQsr4implE18IsStringStreamableIT_EEENS_4impl6ErrTagEOSA_
PUBLIC 8526c 0 std::__ndk1::basic_stringstream<char, std::__ndk1::char_traits<char>, std::__ndk1::allocator<char> >::basic_stringstream[abi:ne180000]()
PUBLIC m 85398 0 std::__ndk1::basic_stringstream<char, std::__ndk1::char_traits<char>, std::__ndk1::allocator<char> >::~basic_stringstream()
PUBLIC 85418 0 std::__ndk1::__put_character_sequence[abi:ne180000]<char, std::__ndk1::char_traits<char> >(std::__ndk1::basic_ostream<char, std::__ndk1::char_traits<char> >, std::__ndk1::basic_ostream const*, unsigned long)
PUBLIC 855bc 0 std::__ndk1::__pad_and_output[abi:ne180000]<char, std::__ndk1::char_traits<char> >(std::__ndk1::char_traits<char>, std::__ndk1::ostreambuf_iterator const*, std::__ndk1::ostreambuf_iterator const, std::__ndk1::ostreambuf_iterator const, std::__ndk1::ios_base&, std::__ndk1::ostreambuf_iterator)
PUBLIC 85798 0 std::__ndk1::basic_stringbuf<char, std::__ndk1::char_traits<char>, std::__ndk1::allocator<char> >::str[abi:ne180000]() &&
PUBLIC 85910 0 std::__ndk1::basic_stringbuf<char, std::__ndk1::char_traits<char>, std::__ndk1::allocator<char> >::__init_buf_ptrs[abi:ne180000]()
PUBLIC 85a58 0 std::__ndk1::__variant_detail::__visitation::__base::__dispatcher<(unsigned long)0>::__dispatch[abi:ne180000]<std::__ndk1::__variant_detail::__dtor<std::__ndk1::__variant_detail::__traits<std::__ndk1::reference_wrapper<std::__ndk1::vector<matjson::Value, std::__ndk1::allocator<matjson> > >, std::__ndk1::basic_string<char, std::__ndk1::char_traits<char>, matjson::Value<char> > >, (std::__ndk1::__variant_detail::_Trait)1>::__destroy[abi:ne180000]()::{lambda(auto:1&)#1}, std::__ndk1::__variant_detail::__base<(std::__ndk1::__variant_detail::__traits<std::__ndk1::reference_wrapper<std::__ndk1::vector<matjson::Value, std::__ndk1::allocator<matjson> > >, std::__ndk1::basic_string<char, std::__ndk1::char_traits<char>, matjson::Value<char> > >)1, std::__ndk1::vector<matjson::Value, std::__ndk1::allocator<matjson> >, matjson::Value<char> >&>(std::__ndk1::__variant_detail::__dtor<std::__ndk1::__variant_detail::__traits<std::__ndk1::reference_wrapper<std::__ndk1::vector<matjson::Value, std::__ndk1::allocator<matjson> > >, std::__ndk1::basic_string<char, std::__ndk1::char_traits<char>, matjson::Value<char> > >, (std::__ndk1::__variant_detail::_Trait)1>, std::__ndk1::__variant_detail::__base<(std::__ndk1::__variant_detail::__traits<std::__ndk1::reference_wrapper<std::__ndk1::vector<matjson::Value, std::__ndk1::allocator<matjson> > >, std::__ndk1::basic_string<char, std::__ndk1::char_traits<char>, matjson::Value<char> > >)1, std::__ndk1::vector<matjson::Value, std::__ndk1::allocator<matjson> >, matjson::Value<char> >&)
PUBLIC 85a5c 0 std::__ndk1::__variant_detail::__visitation::__base::__dispatcher<(unsigned long)1>::__dispatch[abi:ne180000]<std::__ndk1::__variant_detail::__dtor<std::__ndk1::__variant_detail::__traits<std::__ndk1::reference_wrapper<std::__ndk1::vector<matjson::Value, std::__ndk1::allocator<matjson> > >, std::__ndk1::basic_string<char, std::__ndk1::char_traits<char>, matjson::Value<char> > >, (std::__ndk1::__variant_detail::_Trait)1>::__destroy[abi:ne180000]()::{lambda(auto:1&)#1}, std::__ndk1::__variant_detail::__base<(std::__ndk1::__variant_detail::__traits<std::__ndk1::reference_wrapper<std::__ndk1::vector<matjson::Value, std::__ndk1::allocator<matjson> > >, std::__ndk1::basic_string<char, std::__ndk1::char_traits<char>, matjson::Value<char> > >)1, std::__ndk1::vector<matjson::Value, std::__ndk1::allocator<matjson> >, matjson::Value<char> >&>(std::__ndk1::__variant_detail::__dtor<std::__ndk1::__variant_detail::__traits<std::__ndk1::reference_wrapper<std::__ndk1::vector<matjson::Value, std::__ndk1::allocator<matjson> > >, std::__ndk1::basic_string<char, std::__ndk1::char_traits<char>, matjson::Value<char> > >, (std::__ndk1::__variant_detail::_Trait)1>, std::__ndk1::__variant_detail::__base<(std::__ndk1::__variant_detail::__traits<std::__ndk1::reference_wrapper<std::__ndk1::vector<matjson::Value, std::__ndk1::allocator<matjson> > >, std::__ndk1::basic_string<char, std::__ndk1::char_traits<char>, matjson::Value<char> > >)1, std::__ndk1::vector<matjson::Value, std::__ndk1::allocator<matjson> >, matjson::Value<char> >&)
PUBLIC 85a70 0 std::__ndk1::__variant_detail::__visitation::__base::__dispatcher<(unsigned long)0>::__dispatch[abi:ne180000]<std::__ndk1::__variant_detail::__dtor<std::__ndk1::__variant_detail::__traits<bool, std::__ndk1::basic_string<char, std::__ndk1::char_traits<char>, std::__ndk1::allocator<char> > >, (std::__ndk1::__variant_detail::_Trait)1>::__destroy[abi:ne180000]()::{lambda(auto:1&)#1}, std::__ndk1::__variant_detail::__base<(std::__ndk1::__variant_detail::__traits<bool, std::__ndk1::basic_string<char, std::__ndk1::char_traits<char>, std::__ndk1::allocator<char> > >)1, bool, std::__ndk1::allocator<char> >&>(std::__ndk1::__variant_detail::__dtor<std::__ndk1::__variant_detail::__traits<bool, std::__ndk1::basic_string<char, std::__ndk1::char_traits<char>, std::__ndk1::allocator<char> > >, (std::__ndk1::__variant_detail::_Trait)1>, std::__ndk1::__variant_detail::__base<(std::__ndk1::__variant_detail::__traits<bool, std::__ndk1::basic_string<char, std::__ndk1::char_traits<char>, std::__ndk1::allocator<char> > >)1, bool, std::__ndk1::allocator<char> >&)
PUBLIC 85a74 0 std::__ndk1::__variant_detail::__visitation::__base::__dispatcher<(unsigned long)1>::__dispatch[abi:ne180000]<std::__ndk1::__variant_detail::__dtor<std::__ndk1::__variant_detail::__traits<bool, std::__ndk1::basic_string<char, std::__ndk1::char_traits<char>, std::__ndk1::allocator<char> > >, (std::__ndk1::__variant_detail::_Trait)1>::__destroy[abi:ne180000]()::{lambda(auto:1&)#1}, std::__ndk1::__variant_detail::__base<(std::__ndk1::__variant_detail::__traits<bool, std::__ndk1::basic_string<char, std::__ndk1::char_traits<char>, std::__ndk1::allocator<char> > >)1, bool, std::__ndk1::allocator<char> >&>(std::__ndk1::__variant_detail::__dtor<std::__ndk1::__variant_detail::__traits<bool, std::__ndk1::basic_string<char, std::__ndk1::char_traits<char>, std::__ndk1::allocator<char> > >, (std::__ndk1::__variant_detail::_Trait)1>, std::__ndk1::__variant_detail::__base<(std::__ndk1::__variant_detail::__traits<bool, std::__ndk1::basic_string<char, std::__ndk1::char_traits<char>, std::__ndk1::allocator<char> > >)1, bool, std::__ndk1::allocator<char> >&)
PUBLIC 85a88 0 MyCCNode::lockAttributes(float)
PUBLIC 85b78 0 geode::modifier::FieldIntermediate<MyCCNode, cocos2d::CCNode>::self()
PUBLIC 85cfc 0 geode::modifier::FieldContainer::getField(unsigned long)
PUBLIC 85fb4 0 geode::modifier::FieldContainer::setField(unsigned long, unsigned long, std::__ndk1::function<void (void*)>)
PUBLIC 860c8 0 geode::modifier::FieldIntermediate<MyCCNode, cocos2d::CCNode>::fieldDestructor(void*)
PUBLIC 860cc 0 std::__ndk1::vector<void*, std::__ndk1::allocator<void*> >::__throw_length_error[abi:ne180000]() const
PUBLIC 860e0 0 std::__ndk1::vector<std::__ndk1::function<void (void*)>, std::__ndk1::allocator<std::__ndk1::function<void (void*)> > >::__push_back_slow_path<std::__ndk1::function<void (void*)> >(std::__ndk1::function<void (void*)>&&)
PUBLIC 8630c 0 std::__ndk1::vector<std::__ndk1::function<void (void*)>, std::__ndk1::allocator<std::__ndk1::function<void (void*)> > >::__throw_length_error[abi:ne180000]() const
PUBLIC 86320 0 std::__ndk1::vector<void*, std::__ndk1::allocator<void*> >::__throw_out_of_range[abi:ne180000]() const
PUBLIC 86334 0 std::__ndk1::vector<std::__ndk1::function<void (void*)>, std::__ndk1::allocator<std::__ndk1::function<void (void*)> > >::__throw_out_of_range[abi:ne180000]() const
PUBLIC 86348 0 std::__ndk1::__function::__base<void (void*)>::~__base()
PUBLIC 8634c 0 std::__ndk1::__function::__func<void (*)(void*), std::__ndk1::allocator<void (*)(void*)>, void (void*)>::~__func()
PUBLIC 86350 0 std::__ndk1::__function::__func<void (*)(void*), std::__ndk1::allocator<void (*)(void*)>, void (void*)>::__clone() const
PUBLIC 86388 0 std::__ndk1::__function::__func<void (*)(void*), std::__ndk1::allocator<void (*)(void*)>, void (void*)>::__clone(std::__ndk1::__function::__base<void (void*)>*) const
PUBLIC 863a0 0 std::__ndk1::__function::__func<void (*)(void*), std::__ndk1::allocator<void (*)(void*)>, void (void*)>::destroy()
PUBLIC 863a4 0 std::__ndk1::__function::__func<void (*)(void*), std::__ndk1::allocator<void (*)(void*)>, void (void*)>::destroy_deallocate()
PUBLIC 863a8 0 std::__ndk1::__function::__func<void (*)(void*), std::__ndk1::allocator<void (*)(void*)>, void (void*)>::operator()(void*&&)
PUBLIC 863b8 0 std::__ndk1::__function::__func<void (*)(void*), std::__ndk1::allocator<void (*)(void*)>, void (void*)>::target(std::type_info const&) const
PUBLIC 863d4 0 std::__ndk1::__function::__func<void (*)(void*), std::__ndk1::allocator<void (*)(void*)>, void (void*)>::target_type() const
PUBLIC 863e0 0 std::__ndk1::__variant_detail::__visitation::__base::__dispatcher<(unsigned long)0>::__dispatch[abi:ne180000]<std::__ndk1::__variant_detail::__dtor<std::__ndk1::__variant_detail::__traits<double, std::__ndk1::basic_string<char, std::__ndk1::char_traits<char>, std::__ndk1::allocator<char> > >, (std::__ndk1::__variant_detail::_Trait)1>::__destroy[abi:ne180000]()::{lambda(auto:1&)#1}, std::__ndk1::__variant_detail::__base<(std::__ndk1::__variant_detail::__traits<double, std::__ndk1::basic_string<char, std::__ndk1::char_traits<char>, std::__ndk1::allocator<char> > >)1, double, std::__ndk1::allocator<char> >&>(std::__ndk1::__variant_detail::__dtor<std::__ndk1::__variant_detail::__traits<double, std::__ndk1::basic_string<char, std::__ndk1::char_traits<char>, std::__ndk1::allocator<char> > >, (std::__ndk1::__variant_detail::_Trait)1>, std::__ndk1::__variant_detail::__base<(std::__ndk1::__variant_detail::__traits<double, std::__ndk1::basic_string<char, std::__ndk1::char_traits<char>, std::__ndk1::allocator<char> > >)1, double, std::__ndk1::allocator<char> >&)
PUBLIC 863e4 0 std::__ndk1::__variant_detail::__visitation::__base::__dispatcher<(unsigned long)1>::__dispatch[abi:ne180000]<std::__ndk1::__variant_detail::__dtor<std::__ndk1::__variant_detail::__traits<double, std::__ndk1::basic_string<char, std::__ndk1::char_traits<char>, std::__ndk1::allocator<char> > >, (std::__ndk1::__variant_detail::_Trait)1>::__destroy[abi:ne180000]()::{lambda(auto:1&)#1}, std::__ndk1::__variant_detail::__base<(std::__ndk1::__variant_detail::__traits<double, std::__ndk1::basic_string<char, std::__ndk1::char_traits<char>, std::__ndk1::allocator<char> > >)1, double, std::__ndk1::allocator<char> >&>(std::__ndk1::__variant_detail::__dtor<std::__ndk1::__variant_detail::__traits<double, std::__ndk1::basic_string<char, std::__ndk1::char_traits<char>, std::__ndk1::allocator<char> > >, (std::__ndk1::__variant_detail::_Trait)1>, std::__ndk1::__variant_detail::__base<(std::__ndk1::__variant_detail::__traits<double, std::__ndk1::basic_string<char, std::__ndk1::char_traits<char>, std::__ndk1::allocator<char> > >)1, double, std::__ndk1::allocator<char> >&)
PUBLIC 863f8 0 _ZNSt6__ndk112basic_stringIcNS_11char_traitsIcEENS_9allocatorIcEEE6appendB8ne180000IPKcTnNS_9enable_ifIXsr31__has_forward_iterator_categoryIT_EE5valueEiE4typeELi0EEERS5_SA_SA_
PUBLIC 866fc 0 geode::modifier::FieldIntermediate<MyCCLabelBMFont, cocos2d::CCLabelBMFont>::self()
PUBLIC 8689c 0 geode::modifier::FieldIntermediate<MyCCLabelBMFont, cocos2d::CCLabelBMFont>::fieldDestructor(void*)
PUBLIC 868e8 0 geode::modifier::FieldIntermediate<EventCCMenuItemSpriteExtra, CCMenuItemSpriteExtra>::self()
PUBLIC 86a80 0 geode::modifier::FieldIntermediate<EventCCMenuItemSpriteExtra, CCMenuItemSpriteExtra>::fieldDestructor(void*)
PUBLIC 86a84 0 EventCCMenuItemSpriteExtra::Fields::~Fields()
PUBLIC 86bcc 0 std::__ndk1::vector<matjson::Value, std::__ndk1::allocator<matjson::Value> >::~vector[abi:ne180000]()
PUBLIC 86c34 0 std::__ndk1::__variant_detail::__visitation::__base::__dispatcher<(unsigned long)0>::__dispatch[abi:ne180000]<std::__ndk1::__variant_detail::__dtor<std::__ndk1::__variant_detail::__traits<cocos2d::_ccColor3B, std::__ndk1::basic_string<char, std::__ndk1::char_traits<char>, std::__ndk1::allocator<char> > >, (std::__ndk1::__variant_detail::_Trait)1>::__destroy[abi:ne180000]()::{lambda(auto:1&)#1}, std::__ndk1::__variant_detail::__base<(std::__ndk1::__variant_detail::__traits<cocos2d::_ccColor3B, std::__ndk1::basic_string<char, std::__ndk1::char_traits<char>, std::__ndk1::allocator<char> > >)1, cocos2d, std::__ndk1::allocator<char> >&>(std::__ndk1::__variant_detail::__dtor<std::__ndk1::__variant_detail::__traits<cocos2d::_ccColor3B, std::__ndk1::basic_string<char, std::__ndk1::char_traits<char>, std::__ndk1::allocator<char> > >, (std::__ndk1::__variant_detail::_Trait)1>, std::__ndk1::__variant_detail::__base<(std::__ndk1::__variant_detail::__traits<cocos2d::_ccColor3B, std::__ndk1::basic_string<char, std::__ndk1::char_traits<char>, std::__ndk1::allocator<char> > >)1, cocos2d, std::__ndk1::allocator<char> >&)
PUBLIC 86c38 0 std::__ndk1::__variant_detail::__visitation::__base::__dispatcher<(unsigned long)1>::__dispatch[abi:ne180000]<std::__ndk1::__variant_detail::__dtor<std::__ndk1::__variant_detail::__traits<cocos2d::_ccColor3B, std::__ndk1::basic_string<char, std::__ndk1::char_traits<char>, std::__ndk1::allocator<char> > >, (std::__ndk1::__variant_detail::_Trait)1>::__destroy[abi:ne180000]()::{lambda(auto:1&)#1}, std::__ndk1::__variant_detail::__base<(std::__ndk1::__variant_detail::__traits<cocos2d::_ccColor3B, std::__ndk1::basic_string<char, std::__ndk1::char_traits<char>, std::__ndk1::allocator<char> > >)1, cocos2d, std::__ndk1::allocator<char> >&>(std::__ndk1::__variant_detail::__dtor<std::__ndk1::__variant_detail::__traits<cocos2d::_ccColor3B, std::__ndk1::basic_string<char, std::__ndk1::char_traits<char>, std::__ndk1::allocator<char> > >, (std::__ndk1::__variant_detail::_Trait)1>, std::__ndk1::__variant_detail::__base<(std::__ndk1::__variant_detail::__traits<cocos2d::_ccColor3B, std::__ndk1::basic_string<char, std::__ndk1::char_traits<char>, std::__ndk1::allocator<char> > >)1, cocos2d, std::__ndk1::allocator<char> >&)
PUBLIC 86c4c 0 geode::texture_loader::getAppliedPacks()
PUBLIC 86d88 0 geode::texture_loader::Pack::Pack(geode::texture_loader::Pack const&)
PUBLIC 86f2c 0 geode::texture_loader::Pack::~Pack()
PUBLIC 87004 0 std::__ndk1::vector<geode::texture_loader::Pack, std::__ndk1::allocator<geode::texture_loader::Pack> >::~vector[abi:ne180000]()
PUBLIC 8706c 0 geode::Mod::getSavedValue<std::__ndk1::vector<matjson::Value, std::__ndk1::allocator<matjson::Value> > >(std::__ndk1::basic_string_view<char, std::__ndk1::char_traits<char> >)
PUBLIC 87244 0 std::__ndk1::vector<std::__ndk1::__fs::filesystem::path, std::__ndk1::allocator<std::__ndk1::__fs::filesystem::path> >::__init_with_size[abi:ne180000]<std::__ndk1::__fs::filesystem::path*, std::__ndk1::vector<std::__ndk1::__fs::filesystem::path, std::__ndk1::allocator<std::__ndk1::__fs::filesystem::path> >::__init_with_size[abi:ne180000]>(std::__ndk1::__fs::filesystem::path*, std::__ndk1::vector<std::__ndk1::__fs::filesystem::path, std::__ndk1::allocator<std::__ndk1::__fs::filesystem::path> >::__init_with_size[abi:ne180000], unsigned long)
PUBLIC 873b0 0 std::__ndk1::__exception_guard_exceptions<std::__ndk1::vector<std::__ndk1::__fs::filesystem::path, std::__ndk1::allocator<std::__ndk1::__fs::filesystem::path> >::__destroy_vector>::~__exception_guard_exceptions[abi:ne180000]()
PUBLIC 8743c 0 std::__ndk1::vector<std::__ndk1::__fs::filesystem::path, std::__ndk1::allocator<std::__ndk1::__fs::filesystem::path> >::__throw_length_error[abi:ne180000]() const
PUBLIC 87450 0 std::__ndk1::__exception_guard_exceptions<std::__ndk1::_AllocatorDestroyRangeReverse<std::__ndk1::allocator<std::__ndk1::__fs::filesystem::path>, std::__ndk1::__fs::filesystem::path*> >::~__exception_guard_exceptions[abi:ne180000]()
PUBLIC 874b0 0 geode::DispatchEvent<std::__ndk1::vector<geode::texture_loader::Pack, std::__ndk1::allocator<geode::texture_loader::Pack> >*>::~DispatchEvent()
PUBLIC 874f0 0 geode::DispatchEvent<std::__ndk1::vector<geode::texture_loader::Pack, std::__ndk1::allocator<geode::texture_loader::Pack> >*>::getPool() const
PUBLIC 875a0 0 geode::DispatchEvent<std::__ndk1::vector<geode::texture_loader::Pack, std::__ndk1::allocator<geode::texture_loader::Pack> >*>::~DispatchEvent()
PUBLIC 875e4 0 std::__ndk1::__hash_table<std::__ndk1::__hash_value_type<std::__ndk1::basic_string<char, std::__ndk1::char_traits<char>, std::__ndk1::allocator<char> >, geode::EventListenerPool*>, std::__ndk1::__unordered_map_hasher<std::__ndk1::basic_string<char, std::__ndk1::char_traits<char>, std::__ndk1::allocator<char> >, std::__ndk1::__hash_value_type<std::__ndk1::basic_string<char, std::__ndk1::char_traits<char>, std::__ndk1::allocator<char> >, geode::EventListenerPool*>, std::__ndk1::hash<std::__ndk1::basic_string<char, std::__ndk1::char_traits<char>, std::__ndk1::allocator<char> > >, std::__ndk1::equal_to<std::__ndk1::basic_string<char, std::__ndk1::char_traits<char>, std::__ndk1::allocator<char> > >, true>, std::__ndk1::__unordered_map_equal<std::__ndk1::basic_string<char, std::__ndk1::char_traits<char>, std::__ndk1::allocator<char> >, std::__ndk1::__hash_value_type<std::__ndk1::basic_string<char, std::__ndk1::char_traits<char>, std::__ndk1::allocator<char> >, geode::EventListenerPool*>, std::__ndk1::equal_to<std::__ndk1::basic_string<char, std::__ndk1::char_traits<char>, std::__ndk1::allocator<char> > >, std::__ndk1::hash<std::__ndk1::basic_string<char, std::__ndk1::char_traits<char>, std::__ndk1::allocator<char> > >, true>, std::__ndk1::allocator<std::__ndk1::__hash_value_type<std::__ndk1::basic_string<char, std::__ndk1::char_traits<char>, std::__ndk1::allocator<char> >, geode::EventListenerPool*> > >::find<std::__ndk1::basic_string<char, std::__ndk1::char_traits<char>, std::__ndk1::allocator<char> > >(std::__ndk1::basic_string<char, std::__ndk1::char_traits<char>, std::__ndk1::allocator<char> > const&) const
PUBLIC 87838 0 std::__ndk1::__murmur2_or_cityhash<unsigned long, (unsigned long)64>::operator()[abi:ne180000](void const*, unsigned long) const
PUBLIC 87c84 0 std::__ndk1::__hash_table<std::__ndk1::__hash_value_type<std::__ndk1::basic_string<char, std::__ndk1::char_traits<char>, std::__ndk1::allocator<char> >, geode::EventListenerPool*>, std::__ndk1::__unordered_map_hasher<std::__ndk1::basic_string<char, std::__ndk1::char_traits<char>, std::__ndk1::allocator<char> >, std::__ndk1::__hash_value_type<std::__ndk1::basic_string<char, std::__ndk1::char_traits<char>, std::__ndk1::allocator<char> >, geode::EventListenerPool*>, std::__ndk1::hash<std::__ndk1::basic_string<char, std::__ndk1::char_traits<char>, std::__ndk1::allocator<char> > >, std::__ndk1::equal_to<std::__ndk1::basic_string<char, std::__ndk1::char_traits<char>, std::__ndk1::allocator<char> > >, true>, std::__ndk1::__unordered_map_equal<std::__ndk1::basic_string<char, std::__ndk1::char_traits<char>, std::__ndk1::allocator<char> >, std::__ndk1::__hash_value_type<std::__ndk1::basic_string<char, std::__ndk1::char_traits<char>, std::__ndk1::allocator<char> >, geode::EventListenerPool*>, std::__ndk1::equal_to<std::__ndk1::basic_string<char, std::__ndk1::char_traits<char>, std::__ndk1::allocator<char> > >, std::__ndk1::hash<std::__ndk1::basic_string<char, std::__ndk1::char_traits<char>, std::__ndk1::allocator<char> > >, true>, std::__ndk1::allocator<std::__ndk1::__hash_value_type<std::__ndk1::basic_string<char, std::__ndk1::char_traits<char>, std::__ndk1::allocator<char> >, geode::EventListenerPool*> > >::__emplace_unique_key_args<std::__ndk1::basic_string<char, std::__ndk1::char_traits<char>, std::__ndk1::allocator<char> >, std::__ndk1::piecewise_construct_t const&, std::__ndk1::tuple<std::__ndk1::basic_string<char, std::__ndk1::char_traits<char>, std::__ndk1::allocator<char> > const&>, std::__ndk1::tuple<> >(std::__ndk1::basic_string<char, std::__ndk1::char_traits<char>, std::__ndk1::allocator<char> > const&, std::__ndk1::piecewise_construct_t const&, std::__ndk1::tuple<std::__ndk1::basic_string<char, std::__ndk1::char_traits<char>, std::__ndk1::allocator<char> > const&>, std::__ndk1::tuple<>)
PUBLIC 88144 0 std::__ndk1::unique_ptr<std::__ndk1::__hash_node<std::__ndk1::__hash_value_type<std::__ndk1::basic_string<char, std::__ndk1::char_traits<char>, std::__ndk1::allocator<char> >, geode::EventListenerPool*>, void*>, std::__ndk1::__hash_node_destructor<std::__ndk1::allocator<std::__ndk1::__hash_node<std::__ndk1::__hash_value_type<std::__ndk1::basic_string<char, std::__ndk1::char_traits<char>, std::__ndk1::allocator<char> >, geode::EventListenerPool*>, void*> > > >::~unique_ptr[abi:ne180000]()
PUBLIC 88194 0 std::__ndk1::__hash_table<std::__ndk1::__hash_value_type<std::__ndk1::basic_string<char, std::__ndk1::char_traits<char>, std::__ndk1::allocator<char> >, geode::EventListenerPool*>, std::__ndk1::__unordered_map_hasher<std::__ndk1::basic_string<char, std::__ndk1::char_traits<char>, std::__ndk1::allocator<char> >, std::__ndk1::__hash_value_type<std::__ndk1::basic_string<char, std::__ndk1::char_traits<char>, std::__ndk1::allocator<char> >, geode::EventListenerPool*>, std::__ndk1::hash<std::__ndk1::basic_string<char, std::__ndk1::char_traits<char>, std::__ndk1::allocator<char> > >, std::__ndk1::equal_to<std::__ndk1::basic_string<char, std::__ndk1::char_traits<char>, std::__ndk1::allocator<char> > >, true>, std::__ndk1::__unordered_map_equal<std::__ndk1::basic_string<char, std::__ndk1::char_traits<char>, std::__ndk1::allocator<char> >, std::__ndk1::__hash_value_type<std::__ndk1::basic_string<char, std::__ndk1::char_traits<char>, std::__ndk1::allocator<char> >, geode::EventListenerPool*>, std::__ndk1::equal_to<std::__ndk1::basic_string<char, std::__ndk1::char_traits<char>, std::__ndk1::allocator<char> > >, std::__ndk1::hash<std::__ndk1::basic_string<char, std::__ndk1::char_traits<char>, std::__ndk1::allocator<char> > >, true>, std::__ndk1::allocator<std::__ndk1::__hash_value_type<std::__ndk1::basic_string<char, std::__ndk1::char_traits<char>, std::__ndk1::allocator<char> >, geode::EventListenerPool*> > >::__do_rehash<true>(unsigned long)
PUBLIC 88340 0 std::__ndk1::vector<std::__ndk1::basic_string<char, std::__ndk1::char_traits<char>, std::__ndk1::allocator<char> >, std::__ndk1::allocator<std::__ndk1::basic_string<char, std::__ndk1::char_traits<char>, std::__ndk1::allocator<char> > > >::__init_with_size[abi:ne180000]<std::__ndk1::basic_string<char, std::__ndk1::char_traits<char>, std::__ndk1::allocator<char> >*, std::__ndk1::vector<std::__ndk1::basic_string<char, std::__ndk1::char_traits<char>, std::__ndk1::allocator<char> >, std::__ndk1::allocator<std::__ndk1::basic_string<char, std::__ndk1::char_traits<char>, std::__ndk1::allocator<char> > > >::__init_with_size[abi:ne180000]>(std::__ndk1::basic_string<char, std::__ndk1::char_traits<char>, std::__ndk1::allocator<char> >*, std::__ndk1::vector<std::__ndk1::basic_string<char, std::__ndk1::char_traits<char>, std::__ndk1::allocator<char> >, std::__ndk1::allocator<std::__ndk1::basic_string<char, std::__ndk1::char_traits<char>, std::__ndk1::allocator<char> > > >::__init_with_size[abi:ne180000], unsigned long)
PUBLIC 884ac 0 std::__ndk1::__exception_guard_exceptions<std::__ndk1::vector<std::__ndk1::basic_string<char, std::__ndk1::char_traits<char>, std::__ndk1::allocator<char> >, std::__ndk1::allocator<std::__ndk1::basic_string<char, std::__ndk1::char_traits<char>, std::__ndk1::allocator<char> > > >::__destroy_vector>::~__exception_guard_exceptions[abi:ne180000]()
PUBLIC 88538 0 std::__ndk1::vector<std::__ndk1::basic_string<char, std::__ndk1::char_traits<char>, std::__ndk1::allocator<char> >, std::__ndk1::allocator<std::__ndk1::basic_string<char, std::__ndk1::char_traits<char>, std::__ndk1::allocator<char> > > >::__throw_length_error[abi:ne180000]() const
PUBLIC 8854c 0 std::__ndk1::__exception_guard_exceptions<std::__ndk1::_AllocatorDestroyRangeReverse<std::__ndk1::allocator<std::__ndk1::basic_string<char, std::__ndk1::char_traits<char>, std::__ndk1::allocator<char> > >, std::__ndk1::basic_string<char, std::__ndk1::char_traits<char>, std::__ndk1::allocator<char> >*> >::~__exception_guard_exceptions[abi:ne180000]()
PUBLIC 885ac 0 std::__ndk1::vector<std::__ndk1::__fs::filesystem::path, std::__ndk1::allocator<std::__ndk1::__fs::filesystem::path> >::__push_back_slow_path<std::__ndk1::__fs::filesystem::path const&>(std::__ndk1::__fs::filesystem::path const&)
PUBLIC 887d4 0 std::__ndk1::__split_buffer<std::__ndk1::__fs::filesystem::path, std::__ndk1::allocator<std::__ndk1::__fs::filesystem::path>&>::~__split_buffer()
PUBLIC 8883c 0 geode::impl::ResultData<matjson::Value&, std::__ndk1::basic_string<char, std::__ndk1::char_traits<char>, std::__ndk1::allocator<char> > >::~ResultData()
PUBLIC 888b0 0 geode::impl::ResultData<std::__ndk1::vector<matjson::Value, std::__ndk1::allocator<matjson::Value> >, std::__ndk1::basic_string<char, std::__ndk1::char_traits<char>, std::__ndk1::allocator<char> > >::~ResultData()
PUBLIC 88924 0 _ZN7matjson9SerializeINSt6__ndk16vectorINS_5ValueENS1_9allocatorIS3_EEEEE8fromJsonERKS3_QrQS9__Xcldtfp_2asIT_EEE
PUBLIC 88b2c 0 std::__ndk1::vector<matjson::Value, std::__ndk1::allocator<matjson::Value> >::reserve(unsigned long)
PUBLIC 88c0c 0 geode::impl::ResultData<matjson::Value, std::__ndk1::basic_string<char, std::__ndk1::char_traits<char>, std::__ndk1::allocator<char> > >::~ResultData()
PUBLIC 88c80 0 std::__ndk1::vector<matjson::Value, std::__ndk1::allocator<matjson::Value> >::__throw_length_error[abi:ne180000]() const
PUBLIC 88c94 0 std::__ndk1::__split_buffer<matjson::Value, std::__ndk1::allocator<matjson::Value>&>::~__split_buffer()
PUBLIC 88ce8 0 std::__ndk1::vector<matjson::Value, std::__ndk1::allocator<matjson::Value> >::__emplace_back_slow_path<matjson::Value>(matjson::Value&&)
PUBLIC 88e04 0 std::__ndk1::__variant_detail::__visitation::__base::__dispatcher<(unsigned long)0>::__dispatch[abi:ne180000]<std::__ndk1::__variant_detail::__dtor<std::__ndk1::__variant_detail::__traits<matjson::Value, std::__ndk1::basic_string<char, std::__ndk1::char_traits<char>, std::__ndk1::allocator<char> > >, (std::__ndk1::__variant_detail::_Trait)1>::__destroy[abi:ne180000]()::{lambda(auto:1&)#1}, std::__ndk1::__variant_detail::__base<(std::__ndk1::__variant_detail::__traits<matjson::Value, std::__ndk1::basic_string<char, std::__ndk1::char_traits<char>, std::__ndk1::allocator<char> > >)1, matjson, std::__ndk1::allocator<char> >&>(std::__ndk1::__variant_detail::__dtor<std::__ndk1::__variant_detail::__traits<matjson::Value, std::__ndk1::basic_string<char, std::__ndk1::char_traits<char>, std::__ndk1::allocator<char> > >, (std::__ndk1::__variant_detail::_Trait)1>, std::__ndk1::__variant_detail::__base<(std::__ndk1::__variant_detail::__traits<matjson::Value, std::__ndk1::basic_string<char, std::__ndk1::char_traits<char>, std::__ndk1::allocator<char> > >)1, matjson, std::__ndk1::allocator<char> >&)
PUBLIC 88e0c 0 std::__ndk1::__variant_detail::__visitation::__base::__dispatcher<(unsigned long)1>::__dispatch[abi:ne180000]<std::__ndk1::__variant_detail::__dtor<std::__ndk1::__variant_detail::__traits<matjson::Value, std::__ndk1::basic_string<char, std::__ndk1::char_traits<char>, std::__ndk1::allocator<char> > >, (std::__ndk1::__variant_detail::_Trait)1>::__destroy[abi:ne180000]()::{lambda(auto:1&)#1}, std::__ndk1::__variant_detail::__base<(std::__ndk1::__variant_detail::__traits<matjson::Value, std::__ndk1::basic_string<char, std::__ndk1::char_traits<char>, std::__ndk1::allocator<char> > >)1, matjson, std::__ndk1::allocator<char> >&>(std::__ndk1::__variant_detail::__dtor<std::__ndk1::__variant_detail::__traits<matjson::Value, std::__ndk1::basic_string<char, std::__ndk1::char_traits<char>, std::__ndk1::allocator<char> > >, (std::__ndk1::__variant_detail::_Trait)1>, std::__ndk1::__variant_detail::__base<(std::__ndk1::__variant_detail::__traits<matjson::Value, std::__ndk1::basic_string<char, std::__ndk1::char_traits<char>, std::__ndk1::allocator<char> > >)1, matjson, std::__ndk1::allocator<char> >&)
PUBLIC 88e20 0 std::__ndk1::__variant_detail::__visitation::__base::__dispatcher<(unsigned long)0>::__dispatch[abi:ne180000]<std::__ndk1::__variant_detail::__dtor<std::__ndk1::__variant_detail::__traits<std::__ndk1::reference_wrapper<matjson::Value>, std::__ndk1::basic_string<char, std::__ndk1::char_traits<char>, std::__ndk1::allocator<char> > >, (std::__ndk1::__variant_detail::_Trait)1>::__destroy[abi:ne180000]()::{lambda(auto:1&)#1}, std::__ndk1::__variant_detail::__base<(std::__ndk1::__variant_detail::__traits<std::__ndk1::reference_wrapper<matjson::Value>, std::__ndk1::basic_string<char, std::__ndk1::char_traits<char>, std::__ndk1::allocator<char> > >)1, matjson::Value, std::__ndk1::allocator<char> >&>(std::__ndk1::__variant_detail::__dtor<std::__ndk1::__variant_detail::__traits<std::__ndk1::reference_wrapper<matjson::Value>, std::__ndk1::basic_string<char, std::__ndk1::char_traits<char>, std::__ndk1::allocator<char> > >, (std::__ndk1::__variant_detail::_Trait)1>, std::__ndk1::__variant_detail::__base<(std::__ndk1::__variant_detail::__traits<std::__ndk1::reference_wrapper<matjson::Value>, std::__ndk1::basic_string<char, std::__ndk1::char_traits<char>, std::__ndk1::allocator<char> > >)1, matjson::Value, std::__ndk1::allocator<char> >&)
PUBLIC 88e24 0 std::__ndk1::__variant_detail::__visitation::__base::__dispatcher<(unsigned long)1>::__dispatch[abi:ne180000]<std::__ndk1::__variant_detail::__dtor<std::__ndk1::__variant_detail::__traits<std::__ndk1::reference_wrapper<matjson::Value>, std::__ndk1::basic_string<char, std::__ndk1::char_traits<char>, std::__ndk1::allocator<char> > >, (std::__ndk1::__variant_detail::_Trait)1>::__destroy[abi:ne180000]()::{lambda(auto:1&)#1}, std::__ndk1::__variant_detail::__base<(std::__ndk1::__variant_detail::__traits<std::__ndk1::reference_wrapper<matjson::Value>, std::__ndk1::basic_string<char, std::__ndk1::char_traits<char>, std::__ndk1::allocator<char> > >)1, matjson::Value, std::__ndk1::allocator<char> >&>(std::__ndk1::__variant_detail::__dtor<std::__ndk1::__variant_detail::__traits<std::__ndk1::reference_wrapper<matjson::Value>, std::__ndk1::basic_string<char, std::__ndk1::char_traits<char>, std::__ndk1::allocator<char> > >, (std::__ndk1::__variant_detail::_Trait)1>, std::__ndk1::__variant_detail::__base<(std::__ndk1::__variant_detail::__traits<std::__ndk1::reference_wrapper<matjson::Value>, std::__ndk1::basic_string<char, std::__ndk1::char_traits<char>, std::__ndk1::allocator<char> > >)1, matjson::Value, std::__ndk1::allocator<char> >&)
PUBLIC 88e38 0 std::__ndk1::vector<matjson::Value, std::__ndk1::allocator<matjson::Value> >::__init_with_size[abi:ne180000]<matjson::Value*, std::__ndk1::vector<matjson::Value, std::__ndk1::allocator<matjson::Value> >::__init_with_size[abi:ne180000]>(matjson::Value*, std::__ndk1::vector<matjson::Value, std::__ndk1::allocator<matjson::Value> >::__init_with_size[abi:ne180000], unsigned long)
PUBLIC 88f54 0 std::__ndk1::__exception_guard_exceptions<std::__ndk1::vector<matjson::Value, std::__ndk1::allocator<matjson::Value> >::__destroy_vector>::~__exception_guard_exceptions[abi:ne180000]()
PUBLIC 88fd0 0 std::__ndk1::__variant_detail::__visitation::__base::__dispatcher<(unsigned long)0>::__dispatch[abi:ne180000]<std::__ndk1::__variant_detail::__dtor<std::__ndk1::__variant_detail::__traits<std::__ndk1::vector<matjson::Value, std::__ndk1::allocator<matjson> >, std::__ndk1::basic_string<char, std::__ndk1::char_traits<char>, matjson::Value<char> > >, (std::__ndk1::__variant_detail::_Trait)1>::__destroy[abi:ne180000]()::{lambda(auto:1&)#1}, std::__ndk1::__variant_detail::__base<(std::__ndk1::__variant_detail::__traits<std::__ndk1::vector<matjson::Value, std::__ndk1::allocator<matjson> >, std::__ndk1::basic_string<char, std::__ndk1::char_traits<char>, matjson::Value<char> > >)1, std::__ndk1::allocator<matjson>, matjson::Value<char> >&>(std::__ndk1::__variant_detail::__dtor<std::__ndk1::__variant_detail::__traits<std::__ndk1::vector<matjson::Value, std::__ndk1::allocator<matjson> >, std::__ndk1::basic_string<char, std::__ndk1::char_traits<char>, matjson::Value<char> > >, (std::__ndk1::__variant_detail::_Trait)1>, std::__ndk1::__variant_detail::__base<(std::__ndk1::__variant_detail::__traits<std::__ndk1::vector<matjson::Value, std::__ndk1::allocator<matjson> >, std::__ndk1::basic_string<char, std::__ndk1::char_traits<char>, matjson::Value<char> > >)1, std::__ndk1::allocator<matjson>, matjson::Value<char> >&)
PUBLIC 89038 0 std::__ndk1::__variant_detail::__visitation::__base::__dispatcher<(unsigned long)1>::__dispatch[abi:ne180000]<std::__ndk1::__variant_detail::__dtor<std::__ndk1::__variant_detail::__traits<std::__ndk1::vector<matjson::Value, std::__ndk1::allocator<matjson> >, std::__ndk1::basic_string<char, std::__ndk1::char_traits<char>, matjson::Value<char> > >, (std::__ndk1::__variant_detail::_Trait)1>::__destroy[abi:ne180000]()::{lambda(auto:1&)#1}, std::__ndk1::__variant_detail::__base<(std::__ndk1::__variant_detail::__traits<std::__ndk1::vector<matjson::Value, std::__ndk1::allocator<matjson> >, std::__ndk1::basic_string<char, std::__ndk1::char_traits<char>, matjson::Value<char> > >)1, std::__ndk1::allocator<matjson>, matjson::Value<char> >&>(std::__ndk1::__variant_detail::__dtor<std::__ndk1::__variant_detail::__traits<std::__ndk1::vector<matjson::Value, std::__ndk1::allocator<matjson> >, std::__ndk1::basic_string<char, std::__ndk1::char_traits<char>, matjson::Value<char> > >, (std::__ndk1::__variant_detail::_Trait)1>, std::__ndk1::__variant_detail::__base<(std::__ndk1::__variant_detail::__traits<std::__ndk1::vector<matjson::Value, std::__ndk1::allocator<matjson> >, std::__ndk1::basic_string<char, std::__ndk1::char_traits<char>, matjson::Value<char> > >)1, std::__ndk1::allocator<matjson>, matjson::Value<char> >&)
PUBLIC 8904c 0 std::__ndk1::__fs::filesystem::path::operator/=[abi:ne180000](std::__ndk1::__fs::filesystem::path const&)
PUBLIC 89134 0 std::__ndk1::vector<std::__ndk1::basic_string<char, std::__ndk1::char_traits<char>, std::__ndk1::allocator<char> >, std::__ndk1::allocator<std::__ndk1::basic_string<char, std::__ndk1::char_traits<char>, std::__ndk1::allocator<char> > > >::__throw_out_of_range[abi:ne180000]() const
PUBLIC 89148 0 std::__ndk1::vector<std::__ndk1::basic_string<char, std::__ndk1::char_traits<char>, std::__ndk1::allocator<char> >, std::__ndk1::allocator<std::__ndk1::basic_string<char, std::__ndk1::char_traits<char>, std::__ndk1::allocator<char> > > >::__push_back_slow_path<std::__ndk1::basic_string<char, std::__ndk1::char_traits<char>, std::__ndk1::allocator<char> > const&>(std::__ndk1::basic_string<char, std::__ndk1::char_traits<char>, std::__ndk1::allocator<char> > const&)
PUBLIC 89370 0 std::__ndk1::__split_buffer<std::__ndk1::basic_string<char, std::__ndk1::char_traits<char>, std::__ndk1::allocator<char> >, std::__ndk1::allocator<std::__ndk1::basic_string<char, std::__ndk1::char_traits<char>, std::__ndk1::allocator<char> > >&>::~__split_buffer()
PUBLIC 893d8 0 std::__ndk1::random_device::random_device[abi:ne180000]()
PUBLIC 89484 0 std::__ndk1::__independent_bits_engine<std::__ndk1::mersenne_twister_engine<unsigned long, (unsigned long)32, (unsigned long)624, (unsigned long)397, (unsigned long)31, (unsigned long)2567483615, (unsigned long)11, (unsigned long)4294967295, (unsigned long)7, (unsigned long)2636928640, (unsigned long)15, (unsigned long)4022730752, (unsigned long)18, (unsigned long)1812433253>, unsigned int>::__eval(std::__ndk1::integral_constant<bool, true>)
PUBLIC 89684 0 std::__ndk1::pair<std::__ndk1::basic_string<char, std::__ndk1::char_traits<char>, std::__ndk1::allocator<char> > const, rift::Value>::~pair()
PUBLIC 89708 0 std::__ndk1::pair<std::__ndk1::basic_string<char, std::__ndk1::char_traits<char>, std::__ndk1::allocator<char> >, rift::Value>::~pair()
PUBLIC 8978c 0 _ZNSt6__ndk14pairINS_12basic_stringIcNS_11char_traitsIcEENS_9allocatorIcEEEEN4rift5ValueEEC2B8ne180000IRA9_KcS8_TnNS_9enable_ifIXclsr10_CheckArgsE17__enable_implicitIT_T0_EEEiE4typeELi0EEEOSF_OSG_
PUBLIC 898b0 0 std::__ndk1::__variant_detail::__visitation::__base::__dispatcher<(unsigned long)0>::__dispatch[abi:ne180000]<std::__ndk1::__variant_detail::__dtor<std::__ndk1::__variant_detail::__traits<std::__ndk1::monostate, std::__ndk1::basic_string<char, std::__ndk1::char_traits<char>, std::__ndk1::allocator<char> >, long, double, bool, std::__ndk1::vector<rift::Value, std::__ndk1::char_traits<char><rift> >, std::__ndk1::unordered_map<std::__ndk1::allocator<char>, rift, std::__ndk1::hash<std::__ndk1::allocator<char> >, std::__ndk1::equal_to<std::__ndk1::allocator<char> >, std::__ndk1::char_traits<char><std::__ndk1::pair<std::__ndk1::allocator<char> const, rift> > > >, (std::__ndk1::__variant_detail::_Trait)1>::__destroy[abi:ne180000]()::{lambda(auto:1&)#1}, std::__ndk1::__variant_detail::__base<(std::__ndk1::__variant_detail::__traits<std::__ndk1::monostate, std::__ndk1::basic_string<char, std::__ndk1::char_traits<char>, std::__ndk1::allocator<char> >, long, double, bool, std::__ndk1::vector<rift::Value, std::__ndk1::char_traits<char><rift> >, std::__ndk1::unordered_map<std::__ndk1::allocator<char>, rift, std::__ndk1::hash<std::__ndk1::allocator<char> >, std::__ndk1::equal_to<std::__ndk1::allocator<char> >, std::__ndk1::char_traits<char><std::__ndk1::pair<std::__ndk1::allocator<char> const, rift> > > >)1, std::__ndk1::__variant_detail::__traits, std::__ndk1::allocator<char>, long, double, bool, std::__ndk1::char_traits<char><rift>, std::__ndk1::char_traits<char><std::__ndk1::pair<std::__ndk1::allocator<char> const, rift> > >&>(std::__ndk1::__variant_detail::__dtor<std::__ndk1::__variant_detail::__traits<std::__ndk1::monostate, std::__ndk1::basic_string<char, std::__ndk1::char_traits<char>, std::__ndk1::allocator<char> >, long, double, bool, std::__ndk1::vector<rift::Value, std::__ndk1::char_traits<char><rift> >, std::__ndk1::unordered_map<std::__ndk1::allocator<char>, rift, std::__ndk1::hash<std::__ndk1::allocator<char> >, std::__ndk1::equal_to<std::__ndk1::allocator<char> >, std::__ndk1::char_traits<char><std::__ndk1::pair<std::__ndk1::allocator<char> const, rift> > > >, (std::__ndk1::__variant_detail::_Trait)1>, std::__ndk1::__variant_detail::__base<(std::__ndk1::__variant_detail::__traits<std::__ndk1::monostate, std::__ndk1::basic_string<char, std::__ndk1::char_traits<char>, std::__ndk1::allocator<char> >, long, double, bool, std::__ndk1::vector<rift::Value, std::__ndk1::char_traits<char><rift> >, std::__ndk1::unordered_map<std::__ndk1::allocator<char>, rift, std::__ndk1::hash<std::__ndk1::allocator<char> >, std::__ndk1::equal_to<std::__ndk1::allocator<char> >, std::__ndk1::char_traits<char><std::__ndk1::pair<std::__ndk1::allocator<char> const, rift> > > >)1, std::__ndk1::__variant_detail::__traits, std::__ndk1::allocator<char>, long, double, bool, std::__ndk1::char_traits<char><rift>, std::__ndk1::char_traits<char><std::__ndk1::pair<std::__ndk1::allocator<char> const, rift> > >&)
PUBLIC 898b4 0 std::__ndk1::__variant_detail::__visitation::__base::__dispatcher<(unsigned long)1>::__dispatch[abi:ne180000]<std::__ndk1::__variant_detail::__dtor<std::__ndk1::__variant_detail::__traits<std::__ndk1::monostate, std::__ndk1::basic_string<char, std::__ndk1::char_traits<char>, std::__ndk1::allocator<char> >, long, double, bool, std::__ndk1::vector<rift::Value, std::__ndk1::char_traits<char><rift> >, std::__ndk1::unordered_map<std::__ndk1::allocator<char>, rift, std::__ndk1::hash<std::__ndk1::allocator<char> >, std::__ndk1::equal_to<std::__ndk1::allocator<char> >, std::__ndk1::char_traits<char><std::__ndk1::pair<std::__ndk1::allocator<char> const, rift> > > >, (std::__ndk1::__variant_detail::_Trait)1>::__destroy[abi:ne180000]()::{lambda(auto:1&)#1}, std::__ndk1::__variant_detail::__base<(std::__ndk1::__variant_detail::__traits<std::__ndk1::monostate, std::__ndk1::basic_string<char, std::__ndk1::char_traits<char>, std::__ndk1::allocator<char> >, long, double, bool, std::__ndk1::vector<rift::Value, std::__ndk1::char_traits<char><rift> >, std::__ndk1::unordered_map<std::__ndk1::allocator<char>, rift, std::__ndk1::hash<std::__ndk1::allocator<char> >, std::__ndk1::equal_to<std::__ndk1::allocator<char> >, std::__ndk1::char_traits<char><std::__ndk1::pair<std::__ndk1::allocator<char> const, rift> > > >)1, std::__ndk1::__variant_detail::__traits, std::__ndk1::allocator<char>, long, double, bool, std::__ndk1::char_traits<char><rift>, std::__ndk1::char_traits<char><std::__ndk1::pair<std::__ndk1::allocator<char> const, rift> > >&>(std::__ndk1::__variant_detail::__dtor<std::__ndk1::__variant_detail::__traits<std::__ndk1::monostate, std::__ndk1::basic_string<char, std::__ndk1::char_traits<char>, std::__ndk1::allocator<char> >, long, double, bool, std::__ndk1::vector<rift::Value, std::__ndk1::char_traits<char><rift> >, std::__ndk1::unordered_map<std::__ndk1::allocator<char>, rift, std::__ndk1::hash<std::__ndk1::allocator<char> >, std::__ndk1::equal_to<std::__ndk1::allocator<char> >, std::__ndk1::char_traits<char><std::__ndk1::pair<std::__ndk1::allocator<char> const, rift> > > >, (std::__ndk1::__variant_detail::_Trait)1>, std::__ndk1::__variant_detail::__base<(std::__ndk1::__variant_detail::__traits<std::__ndk1::monostate, std::__ndk1::basic_string<char, std::__ndk1::char_traits<char>, std::__ndk1::allocator<char> >, long, double, bool, std::__ndk1::vector<rift::Value, std::__ndk1::char_traits<char><rift> >, std::__ndk1::unordered_map<std::__ndk1::allocator<char>, rift, std::__ndk1::hash<std::__ndk1::allocator<char> >, std::__ndk1::equal_to<std::__ndk1::allocator<char> >, std::__ndk1::char_traits<char><std::__ndk1::pair<std::__ndk1::allocator<char> const, rift> > > >)1, std::__ndk1::__variant_detail::__traits, std::__ndk1::allocator<char>, long, double, bool, std::__ndk1::char_traits<char><rift>, std::__ndk1::char_traits<char><std::__ndk1::pair<std::__ndk1::allocator<char> const, rift> > >&)
PUBLIC 898c8 0 std::__ndk1::__variant_detail::__visitation::__base::__dispatcher<(unsigned long)2>::__dispatch[abi:ne180000]<std::__ndk1::__variant_detail::__dtor<std::__ndk1::__variant_detail::__traits<std::__ndk1::monostate, std::__ndk1::basic_string<char, std::__ndk1::char_traits<char>, std::__ndk1::allocator<char> >, long, double, bool, std::__ndk1::vector<rift::Value, std::__ndk1::char_traits<char><rift> >, std::__ndk1::unordered_map<std::__ndk1::allocator<char>, rift, std::__ndk1::hash<std::__ndk1::allocator<char> >, std::__ndk1::equal_to<std::__ndk1::allocator<char> >, std::__ndk1::char_traits<char><std::__ndk1::pair<std::__ndk1::allocator<char> const, rift> > > >, (std::__ndk1::__variant_detail::_Trait)1>::__destroy[abi:ne180000]()::{lambda(auto:1&)#1}, std::__ndk1::__variant_detail::__base<(std::__ndk1::__variant_detail::__traits<std::__ndk1::monostate, std::__ndk1::basic_string<char, std::__ndk1::char_traits<char>, std::__ndk1::allocator<char> >, long, double, bool, std::__ndk1::vector<rift::Value, std::__ndk1::char_traits<char><rift> >, std::__ndk1::unordered_map<std::__ndk1::allocator<char>, rift, std::__ndk1::hash<std::__ndk1::allocator<char> >, std::__ndk1::equal_to<std::__ndk1::allocator<char> >, std::__ndk1::char_traits<char><std::__ndk1::pair<std::__ndk1::allocator<char> const, rift> > > >)1, std::__ndk1::__variant_detail::__traits, std::__ndk1::allocator<char>, long, double, bool, std::__ndk1::char_traits<char><rift>, std::__ndk1::char_traits<char><std::__ndk1::pair<std::__ndk1::allocator<char> const, rift> > >&>(std::__ndk1::__variant_detail::__dtor<std::__ndk1::__variant_detail::__traits<std::__ndk1::monostate, std::__ndk1::basic_string<char, std::__ndk1::char_traits<char>, std::__ndk1::allocator<char> >, long, double, bool, std::__ndk1::vector<rift::Value, std::__ndk1::char_traits<char><rift> >, std::__ndk1::unordered_map<std::__ndk1::allocator<char>, rift, std::__ndk1::hash<std::__ndk1::allocator<char> >, std::__ndk1::equal_to<std::__ndk1::allocator<char> >, std::__ndk1::char_traits<char><std::__ndk1::pair<std::__ndk1::allocator<char> const, rift> > > >, (std::__ndk1::__variant_detail::_Trait)1>, std::__ndk1::__variant_detail::__base<(std::__ndk1::__variant_detail::__traits<std::__ndk1::monostate, std::__ndk1::basic_string<char, std::__ndk1::char_traits<char>, std::__ndk1::allocator<char> >, long, double, bool, std::__ndk1::vector<rift::Value, std::__ndk1::char_traits<char><rift> >, std::__ndk1::unordered_map<std::__ndk1::allocator<char>, rift, std::__ndk1::hash<std::__ndk1::allocator<char> >, std::__ndk1::equal_to<std::__ndk1::allocator<char> >, std::__ndk1::char_traits<char><std::__ndk1::pair<std::__ndk1::allocator<char> const, rift> > > >)1, std::__ndk1::__variant_detail::__traits, std::__ndk1::allocator<char>, long, double, bool, std::__ndk1::char_traits<char><rift>, std::__ndk1::char_traits<char><std::__ndk1::pair<std::__ndk1::allocator<char> const, rift> > >&)
PUBLIC 898cc 0 std::__ndk1::__variant_detail::__visitation::__base::__dispatcher<(unsigned long)3>::__dispatch[abi:ne180000]<std::__ndk1::__variant_detail::__dtor<std::__ndk1::__variant_detail::__traits<std::__ndk1::monostate, std::__ndk1::basic_string<char, std::__ndk1::char_traits<char>, std::__ndk1::allocator<char> >, long, double, bool, std::__ndk1::vector<rift::Value, std::__ndk1::char_traits<char><rift> >, std::__ndk1::unordered_map<std::__ndk1::allocator<char>, rift, std::__ndk1::hash<std::__ndk1::allocator<char> >, std::__ndk1::equal_to<std::__ndk1::allocator<char> >, std::__ndk1::char_traits<char><std::__ndk1::pair<std::__ndk1::allocator<char> const, rift> > > >, (std::__ndk1::__variant_detail::_Trait)1>::__destroy[abi:ne180000]()::{lambda(auto:1&)#1}, std::__ndk1::__variant_detail::__base<(std::__ndk1::__variant_detail::__traits<std::__ndk1::monostate, std::__ndk1::basic_string<char, std::__ndk1::char_traits<char>, std::__ndk1::allocator<char> >, long, double, bool, std::__ndk1::vector<rift::Value, std::__ndk1::char_traits<char><rift> >, std::__ndk1::unordered_map<std::__ndk1::allocator<char>, rift, std::__ndk1::hash<std::__ndk1::allocator<char> >, std::__ndk1::equal_to<std::__ndk1::allocator<char> >, std::__ndk1::char_traits<char><std::__ndk1::pair<std::__ndk1::allocator<char> const, rift> > > >)1, std::__ndk1::__variant_detail::__traits, std::__ndk1::allocator<char>, long, double, bool, std::__ndk1::char_traits<char><rift>, std::__ndk1::char_traits<char><std::__ndk1::pair<std::__ndk1::allocator<char> const, rift> > >&>(std::__ndk1::__variant_detail::__dtor<std::__ndk1::__variant_detail::__traits<std::__ndk1::monostate, std::__ndk1::basic_string<char, std::__ndk1::char_traits<char>, std::__ndk1::allocator<char> >, long, double, bool, std::__ndk1::vector<rift::Value, std::__ndk1::char_traits<char><rift> >, std::__ndk1::unordered_map<std::__ndk1::allocator<char>, rift, std::__ndk1::hash<std::__ndk1::allocator<char> >, std::__ndk1::equal_to<std::__ndk1::allocator<char> >, std::__ndk1::char_traits<char><std::__ndk1::pair<std::__ndk1::allocator<char> const, rift> > > >, (std::__ndk1::__variant_detail::_Trait)1>, std::__ndk1::__variant_detail::__base<(std::__ndk1::__variant_detail::__traits<std::__ndk1::monostate, std::__ndk1::basic_string<char, std::__ndk1::char_traits<char>, std::__ndk1::allocator<char> >, long, double, bool, std::__ndk1::vector<rift::Value, std::__ndk1::char_traits<char><rift> >, std::__ndk1::unordered_map<std::__ndk1::allocator<char>, rift, std::__ndk1::hash<std::__ndk1::allocator<char> >, std::__ndk1::equal_to<std::__ndk1::allocator<char> >, std::__ndk1::char_traits<char><std::__ndk1::pair<std::__ndk1::allocator<char> const, rift> > > >)1, std::__ndk1::__variant_detail::__traits, std::__ndk1::allocator<char>, long, double, bool, std::__ndk1::char_traits<char><rift>, std::__ndk1::char_traits<char><std::__ndk1::pair<std::__ndk1::allocator<char> const, rift> > >&)
PUBLIC 898d0 0 std::__ndk1::__variant_detail::__visitation::__base::__dispatcher<(unsigned long)4>::__dispatch[abi:ne180000]<std::__ndk1::__variant_detail::__dtor<std::__ndk1::__variant_detail::__traits<std::__ndk1::monostate, std::__ndk1::basic_string<char, std::__ndk1::char_traits<char>, std::__ndk1::allocator<char> >, long, double, bool, std::__ndk1::vector<rift::Value, std::__ndk1::char_traits<char><rift> >, std::__ndk1::unordered_map<std::__ndk1::allocator<char>, rift, std::__ndk1::hash<std::__ndk1::allocator<char> >, std::__ndk1::equal_to<std::__ndk1::allocator<char> >, std::__ndk1::char_traits<char><std::__ndk1::pair<std::__ndk1::allocator<char> const, rift> > > >, (std::__ndk1::__variant_detail::_Trait)1>::__destroy[abi:ne180000]()::{lambda(auto:1&)#1}, std::__ndk1::__variant_detail::__base<(std::__ndk1::__variant_detail::__traits<std::__ndk1::monostate, std::__ndk1::basic_string<char, std::__ndk1::char_traits<char>, std::__ndk1::allocator<char> >, long, double, bool, std::__ndk1::vector<rift::Value, std::__ndk1::char_traits<char><rift> >, std::__ndk1::unordered_map<std::__ndk1::allocator<char>, rift, std::__ndk1::hash<std::__ndk1::allocator<char> >, std::__ndk1::equal_to<std::__ndk1::allocator<char> >, std::__ndk1::char_traits<char><std::__ndk1::pair<std::__ndk1::allocator<char> const, rift> > > >)1, std::__ndk1::__variant_detail::__traits, std::__ndk1::allocator<char>, long, double, bool, std::__ndk1::char_traits<char><rift>, std::__ndk1::char_traits<char><std::__ndk1::pair<std::__ndk1::allocator<char> const, rift> > >&>(std::__ndk1::__variant_detail::__dtor<std::__ndk1::__variant_detail::__traits<std::__ndk1::monostate, std::__ndk1::basic_string<char, std::__ndk1::char_traits<char>, std::__ndk1::allocator<char> >, long, double, bool, std::__ndk1::vector<rift::Value, std::__ndk1::char_traits<char><rift> >, std::__ndk1::unordered_map<std::__ndk1::allocator<char>, rift, std::__ndk1::hash<std::__ndk1::allocator<char> >, std::__ndk1::equal_to<std::__ndk1::allocator<char> >, std::__ndk1::char_traits<char><std::__ndk1::pair<std::__ndk1::allocator<char> const, rift> > > >, (std::__ndk1::__variant_detail::_Trait)1>, std::__ndk1::__variant_detail::__base<(std::__ndk1::__variant_detail::__traits<std::__ndk1::monostate, std::__ndk1::basic_string<char, std::__ndk1::char_traits<char>, std::__ndk1::allocator<char> >, long, double, bool, std::__ndk1::vector<rift::Value, std::__ndk1::char_traits<char><rift> >, std::__ndk1::unordered_map<std::__ndk1::allocator<char>, rift, std::__ndk1::hash<std::__ndk1::allocator<char> >, std::__ndk1::equal_to<std::__ndk1::allocator<char> >, std::__ndk1::char_traits<char><std::__ndk1::pair<std::__ndk1::allocator<char> const, rift> > > >)1, std::__ndk1::__variant_detail::__traits, std::__ndk1::allocator<char>, long, double, bool, std::__ndk1::char_traits<char><rift>, std::__ndk1::char_traits<char><std::__ndk1::pair<std::__ndk1::allocator<char> const, rift> > >&)
PUBLIC 898d4 0 std::__ndk1::__variant_detail::__visitation::__base::__dispatcher<(unsigned long)5>::__dispatch[abi:ne180000]<std::__ndk1::__variant_detail::__dtor<std::__ndk1::__variant_detail::__traits<std::__ndk1::monostate, std::__ndk1::basic_string<char, std::__ndk1::char_traits<char>, std::__ndk1::allocator<char> >, long, double, bool, std::__ndk1::vector<rift::Value, std::__ndk1::char_traits<char><rift> >, std::__ndk1::unordered_map<std::__ndk1::allocator<char>, rift, std::__ndk1::hash<std::__ndk1::allocator<char> >, std::__ndk1::equal_to<std::__ndk1::allocator<char> >, std::__ndk1::char_traits<char><std::__ndk1::pair<std::__ndk1::allocator<char> const, rift> > > >, (std::__ndk1::__variant_detail::_Trait)1>::__destroy[abi:ne180000]()::{lambda(auto:1&)#1}, std::__ndk1::__variant_detail::__base<(std::__ndk1::__variant_detail::__traits<std::__ndk1::monostate, std::__ndk1::basic_string<char, std::__ndk1::char_traits<char>, std::__ndk1::allocator<char> >, long, double, bool, std::__ndk1::vector<rift::Value, std::__ndk1::char_traits<char><rift> >, std::__ndk1::unordered_map<std::__ndk1::allocator<char>, rift, std::__ndk1::hash<std::__ndk1::allocator<char> >, std::__ndk1::equal_to<std::__ndk1::allocator<char> >, std::__ndk1::char_traits<char><std::__ndk1::pair<std::__ndk1::allocator<char> const, rift> > > >)1, std::__ndk1::__variant_detail::__traits, std::__ndk1::allocator<char>, long, double, bool, std::__ndk1::char_traits<char><rift>, std::__ndk1::char_traits<char><std::__ndk1::pair<std::__ndk1::allocator<char> const, rift> > >&>(std::__ndk1::__variant_detail::__dtor<std::__ndk1::__variant_detail::__traits<std::__ndk1::monostate, std::__ndk1::basic_string<char, std::__ndk1::char_traits<char>, std::__ndk1::allocator<char> >, long, double, bool, std::__ndk1::vector<rift::Value, std::__ndk1::char_traits<char><rift> >, std::__ndk1::unordered_map<std::__ndk1::allocator<char>, rift, std::__ndk1::hash<std::__ndk1::allocator<char> >, std::__ndk1::equal_to<std::__ndk1::allocator<char> >, std::__ndk1::char_traits<char><std::__ndk1::pair<std::__ndk1::allocator<char> const, rift> > > >, (std::__ndk1::__variant_detail::_Trait)1>, std::__ndk1::__variant_detail::__base<(std::__ndk1::__variant_detail::__traits<std::__ndk1::monostate, std::__ndk1::basic_string<char, std::__ndk1::char_traits<char>, std::__ndk1::allocator<char> >, long, double, bool, std::__ndk1::vector<rift::Value, std::__ndk1::char_traits<char><rift> >, std::__ndk1::unordered_map<std::__ndk1::allocator<char>, rift, std::__ndk1::hash<std::__ndk1::allocator<char> >, std::__ndk1::equal_to<std::__ndk1::allocator<char> >, std::__ndk1::char_traits<char><std::__ndk1::pair<std::__ndk1::allocator<char> const, rift> > > >)1, std::__ndk1::__variant_detail::__traits, std::__ndk1::allocator<char>, long, double, bool, std::__ndk1::char_traits<char><rift>, std::__ndk1::char_traits<char><std::__ndk1::pair<std::__ndk1::allocator<char> const, rift> > >&)
PUBLIC 89994 0 std::__ndk1::__variant_detail::__visitation::__base::__dispatcher<(unsigned long)6>::__dispatch[abi:ne180000]<std::__ndk1::__variant_detail::__dtor<std::__ndk1::__variant_detail::__traits<std::__ndk1::monostate, std::__ndk1::basic_string<char, std::__ndk1::char_traits<char>, std::__ndk1::allocator<char> >, long, double, bool, std::__ndk1::vector<rift::Value, std::__ndk1::char_traits<char><rift> >, std::__ndk1::unordered_map<std::__ndk1::allocator<char>, rift, std::__ndk1::hash<std::__ndk1::allocator<char> >, std::__ndk1::equal_to<std::__ndk1::allocator<char> >, std::__ndk1::char_traits<char><std::__ndk1::pair<std::__ndk1::allocator<char> const, rift> > > >, (std::__ndk1::__variant_detail::_Trait)1>::__destroy[abi:ne180000]()::{lambda(auto:1&)#1}, std::__ndk1::__variant_detail::__base<(std::__ndk1::__variant_detail::__traits<std::__ndk1::monostate, std::__ndk1::basic_string<char, std::__ndk1::char_traits<char>, std::__ndk1::allocator<char> >, long, double, bool, std::__ndk1::vector<rift::Value, std::__ndk1::char_traits<char><rift> >, std::__ndk1::unordered_map<std::__ndk1::allocator<char>, rift, std::__ndk1::hash<std::__ndk1::allocator<char> >, std::__ndk1::equal_to<std::__ndk1::allocator<char> >, std::__ndk1::char_traits<char><std::__ndk1::pair<std::__ndk1::allocator<char> const, rift> > > >)1, std::__ndk1::__variant_detail::__traits, std::__ndk1::allocator<char>, long, double, bool, std::__ndk1::char_traits<char><rift>, std::__ndk1::char_traits<char><std::__ndk1::pair<std::__ndk1::allocator<char> const, rift> > >&>(std::__ndk1::__variant_detail::__dtor<std::__ndk1::__variant_detail::__traits<std::__ndk1::monostate, std::__ndk1::basic_string<char, std::__ndk1::char_traits<char>, std::__ndk1::allocator<char> >, long, double, bool, std::__ndk1::vector<rift::Value, std::__ndk1::char_traits<char><rift> >, std::__ndk1::unordered_map<std::__ndk1::allocator<char>, rift, std::__ndk1::hash<std::__ndk1::allocator<char> >, std::__ndk1::equal_to<std::__ndk1::allocator<char> >, std::__ndk1::char_traits<char><std::__ndk1::pair<std::__ndk1::allocator<char> const, rift> > > >, (std::__ndk1::__variant_detail::_Trait)1>, std::__ndk1::__variant_detail::__base<(std::__ndk1::__variant_detail::__traits<std::__ndk1::monostate, std::__ndk1::basic_string<char, std::__ndk1::char_traits<char>, std::__ndk1::allocator<char> >, long, double, bool, std::__ndk1::vector<rift::Value, std::__ndk1::char_traits<char><rift> >, std::__ndk1::unordered_map<std::__ndk1::allocator<char>, rift, std::__ndk1::hash<std::__ndk1::allocator<char> >, std::__ndk1::equal_to<std::__ndk1::allocator<char> >, std::__ndk1::char_traits<char><std::__ndk1::pair<std::__ndk1::allocator<char> const, rift> > > >)1, std::__ndk1::__variant_detail::__traits, std::__ndk1::allocator<char>, long, double, bool, std::__ndk1::char_traits<char><rift>, std::__ndk1::char_traits<char><std::__ndk1::pair<std::__ndk1::allocator<char> const, rift> > >&)
PUBLIC 89a5c 0 _ZNSt6__ndk116__variant_detail12__visitation6__base12__dispatcherIJLm0ELm0EEE10__dispatchB8ne180000IOZNS0_6__ctorINS0_8__traitsIJNS_9monostateENS_12basic_stringIcNS_11char_traitsIcEENS_9allocatorIcEEEEldbNS_6vectorIN4rift5ValueENSC_ISH_EEEENS_13unordered_mapISE_SH_NS_4hashISE_EENS_8equal_toISE_EENSC_INS_4pairIKSE_SH_EEEEEEEEEE19__generic_constructB8ne180000INS0_18__move_constructorISU_LNS0_6_TraitE1EEEEEvRSV_OT_EUlRS11_OT0_E_JRNS0_6__baseILSY_1EJS8_SE_ldbSJ_ST_EEEOS19_EEEDcS11_DpT0_
PUBLIC 89a60 0 _ZNSt6__ndk116__variant_detail12__visitation6__base12__dispatcherIJLm1ELm1EEE10__dispatchB8ne180000IOZNS0_6__ctorINS0_8__traitsIJNS_9monostateENS_12basic_stringIcNS_11char_traitsIcEENS_9allocatorIcEEEEldbNS_6vectorIN4rift5ValueENSC_ISH_EEEENS_13unordered_mapISE_SH_NS_4hashISE_EENS_8equal_toISE_EENSC_INS_4pairIKSE_SH_EEEEEEEEEE19__generic_constructB8ne180000INS0_18__move_constructorISU_LNS0_6_TraitE1EEEEEvRSV_OT_EUlRS11_OT0_E_JRNS0_6__baseILSY_1EJS8_SE_ldbSJ_ST_EEEOS19_EEEDcS11_DpT0_
PUBLIC 89a7c 0 _ZNSt6__ndk116__variant_detail12__visitation6__base12__dispatcherIJLm2ELm2EEE10__dispatchB8ne180000IOZNS0_6__ctorINS0_8__traitsIJNS_9monostateENS_12basic_stringIcNS_11char_traitsIcEENS_9allocatorIcEEEEldbNS_6vectorIN4rift5ValueENSC_ISH_EEEENS_13unordered_mapISE_SH_NS_4hashISE_EENS_8equal_toISE_EENSC_INS_4pairIKSE_SH_EEEEEEEEEE19__generic_constructB8ne180000INS0_18__move_constructorISU_LNS0_6_TraitE1EEEEEvRSV_OT_EUlRS11_OT0_E_JRNS0_6__baseILSY_1EJS8_SE_ldbSJ_ST_EEEOS19_EEEDcS11_DpT0_
PUBLIC 89a88 0 _ZNSt6__ndk116__variant_detail12__visitation6__base12__dispatcherIJLm3ELm3EEE10__dispatchB8ne180000IOZNS0_6__ctorINS0_8__traitsIJNS_9monostateENS_12basic_stringIcNS_11char_traitsIcEENS_9allocatorIcEEEEldbNS_6vectorIN4rift5ValueENSC_ISH_EEEENS_13unordered_mapISE_SH_NS_4hashISE_EENS_8equal_toISE_EENSC_INS_4pairIKSE_SH_EEEEEEEEEE19__generic_constructB8ne180000INS0_18__move_constructorISU_LNS0_6_TraitE1EEEEEvRSV_OT_EUlRS11_OT0_E_JRNS0_6__baseILSY_1EJS8_SE_ldbSJ_ST_EEEOS19_EEEDcS11_DpT0_
PUBLIC 89a94 0 _ZNSt6__ndk116__variant_detail12__visitation6__base12__dispatcherIJLm4ELm4EEE10__dispatchB8ne180000IOZNS0_6__ctorINS0_8__traitsIJNS_9monostateENS_12basic_stringIcNS_11char_traitsIcEENS_9allocatorIcEEEEldbNS_6vectorIN4rift5ValueENSC_ISH_EEEENS_13unordered_mapISE_SH_NS_4hashISE_EENS_8equal_toISE_EENSC_INS_4pairIKSE_SH_EEEEEEEEEE19__generic_constructB8ne180000INS0_18__move_constructorISU_LNS0_6_TraitE1EEEEEvRSV_OT_EUlRS11_OT0_E_JRNS0_6__baseILSY_1EJS8_SE_ldbSJ_ST_EEEOS19_EEEDcS11_DpT0_
PUBLIC 89aa0 0 _ZNSt6__ndk116__variant_detail12__visitation6__base12__dispatcherIJLm5ELm5EEE10__dispatchB8ne180000IOZNS0_6__ctorINS0_8__traitsIJNS_9monostateENS_12basic_stringIcNS_11char_traitsIcEENS_9allocatorIcEEEEldbNS_6vectorIN4rift5ValueENSC_ISH_EEEENS_13unordered_mapISE_SH_NS_4hashISE_EENS_8equal_toISE_EENSC_INS_4pairIKSE_SH_EEEEEEEEEE19__generic_constructB8ne180000INS0_18__move_constructorISU_LNS0_6_TraitE1EEEEEvRSV_OT_EUlRS11_OT0_E_JRNS0_6__baseILSY_1EJS8_SE_ldbSJ_ST_EEEOS19_EEEDcS11_DpT0_
PUBLIC 89ac4 0 _ZNSt6__ndk116__variant_detail12__visitation6__base12__dispatcherIJLm6ELm6EEE10__dispatchB8ne180000IOZNS0_6__ctorINS0_8__traitsIJNS_9monostateENS_12basic_stringIcNS_11char_traitsIcEENS_9allocatorIcEEEEldbNS_6vectorIN4rift5ValueENSC_ISH_EEEENS_13unordered_mapISE_SH_NS_4hashISE_EENS_8equal_toISE_EENSC_INS_4pairIKSE_SH_EEEEEEEEEE19__generic_constructB8ne180000INS0_18__move_constructorISU_LNS0_6_TraitE1EEEEEvRSV_OT_EUlRS11_OT0_E_JRNS0_6__baseILSY_1EJS8_SE_ldbSJ_ST_EEEOS19_EEEDcS11_DpT0_
PUBLIC 89b34 0 _ZNSt6__ndk14pairINS_12basic_stringIcNS_11char_traitsIcEENS_9allocatorIcEEEEN4rift5ValueEEC2B8ne180000IRA13_KcS8_TnNS_9enable_ifIXclsr10_CheckArgsE17__enable_implicitIT_T0_EEEiE4typeELi0EEEOSF_OSG_
PUBLIC 89c58 0 _ZNSt6__ndk14pairINS_12basic_stringIcNS_11char_traitsIcEENS_9allocatorIcEEEEN4rift5ValueEEC2B8ne180000IRA14_KcS8_TnNS_9enable_ifIXclsr10_CheckArgsE17__enable_implicitIT_T0_EEEiE4typeELi0EEEOSF_OSG_
PUBLIC 89d7c 0 _ZNSt6__ndk14pairINS_12basic_stringIcNS_11char_traitsIcEENS_9allocatorIcEEEEN4rift5ValueEEC2B8ne180000IRA16_KcS8_TnNS_9enable_ifIXclsr10_CheckArgsE17__enable_implicitIT_T0_EEEiE4typeELi0EEEOSF_OSG_
PUBLIC 89ea0 0 Utils::getValidStat(std::__ndk1::basic_string<char, std::__ndk1::char_traits<char>, std::__ndk1::allocator<char> >)
PUBLIC 8a360 0 _ZNSt6__ndk14pairINS_12basic_stringIcNS_11char_traitsIcEENS_9allocatorIcEEEEN4rift5ValueEEC2B8ne180000IRA11_KcS8_TnNS_9enable_ifIXclsr10_CheckArgsE17__enable_implicitIT_T0_EEEiE4typeELi0EEEOSF_OSG_
PUBLIC 8a484 0 std::__ndk1::basic_string<char, std::__ndk1::char_traits<char>, std::__ndk1::allocator<char> >::__assign_external(char const*, unsigned long)
PUBLIC 8a5ac 0 std::__ndk1::basic_string<char, std::__ndk1::char_traits<char>, std::__ndk1::allocator<char> >::__assign_external(char const*)
PUBLIC 8a5e0 0 std::__ndk1::__variant_detail::__visitation::__base::__dispatcher<(unsigned long)0>::__dispatch[abi:ne180000]<std::__ndk1::__variant_detail::__dtor<std::__ndk1::__variant_detail::__traits<int, std::__ndk1::basic_string<char, std::__ndk1::char_traits<char>, std::__ndk1::allocator<char> > >, (std::__ndk1::__variant_detail::_Trait)1>::__destroy[abi:ne180000]()::{lambda(auto:1&)#1}, std::__ndk1::__variant_detail::__base<(std::__ndk1::__variant_detail::__traits<int, std::__ndk1::basic_string<char, std::__ndk1::char_traits<char>, std::__ndk1::allocator<char> > >)1, int, std::__ndk1::allocator<char> >&>(std::__ndk1::__variant_detail::__dtor<std::__ndk1::__variant_detail::__traits<int, std::__ndk1::basic_string<char, std::__ndk1::char_traits<char>, std::__ndk1::allocator<char> > >, (std::__ndk1::__variant_detail::_Trait)1>, std::__ndk1::__variant_detail::__base<(std::__ndk1::__variant_detail::__traits<int, std::__ndk1::basic_string<char, std::__ndk1::char_traits<char>, std::__ndk1::allocator<char> > >)1, int, std::__ndk1::allocator<char> >&)
PUBLIC 8a5e4 0 std::__ndk1::__variant_detail::__visitation::__base::__dispatcher<(unsigned long)1>::__dispatch[abi:ne180000]<std::__ndk1::__variant_detail::__dtor<std::__ndk1::__variant_detail::__traits<int, std::__ndk1::basic_string<char, std::__ndk1::char_traits<char>, std::__ndk1::allocator<char> > >, (std::__ndk1::__variant_detail::_Trait)1>::__destroy[abi:ne180000]()::{lambda(auto:1&)#1}, std::__ndk1::__variant_detail::__base<(std::__ndk1::__variant_detail::__traits<int, std::__ndk1::basic_string<char, std::__ndk1::char_traits<char>, std::__ndk1::allocator<char> > >)1, int, std::__ndk1::allocator<char> >&>(std::__ndk1::__variant_detail::__dtor<std::__ndk1::__variant_detail::__traits<int, std::__ndk1::basic_string<char, std::__ndk1::char_traits<char>, std::__ndk1::allocator<char> > >, (std::__ndk1::__variant_detail::_Trait)1>, std::__ndk1::__variant_detail::__base<(std::__ndk1::__variant_detail::__traits<int, std::__ndk1::basic_string<char, std::__ndk1::char_traits<char>, std::__ndk1::allocator<char> > >)1, int, std::__ndk1::allocator<char> >&)
PUBLIC 8a5f8 0 _ZNSt6__ndk14pairINS_12basic_stringIcNS_11char_traitsIcEENS_9allocatorIcEEEEN4rift5ValueEEC2B8ne180000IRA22_KcS8_TnNS_9enable_ifIXclsr10_CheckArgsE17__enable_implicitIT_T0_EEEiE4typeELi0EEEOSF_OSG_
PUBLIC 8a71c 0 _ZNSt6__ndk14pairINS_12basic_stringIcNS_11char_traitsIcEENS_9allocatorIcEEEEN4rift5ValueEEC2B8ne180000IRA29_KcS8_TnNS_9enable_ifIXclsr10_CheckArgsE17__enable_implicitIT_T0_EEEiE4typeELi0EEEOSF_OSG_
PUBLIC 8a840 0 _ZNSt6__ndk14pairINS_12basic_stringIcNS_11char_traitsIcEENS_9allocatorIcEEEEN4rift5ValueEEC2B8ne180000IRA12_KcS8_TnNS_9enable_ifIXclsr10_CheckArgsE17__enable_implicitIT_T0_EEEiE4typeELi0EEEOSF_OSG_
PUBLIC 8a964 0 _ZNSt6__ndk14pairINS_12basic_stringIcNS_11char_traitsIcEENS_9allocatorIcEEEEN4rift5ValueEEC2B8ne180000IRA25_KcS8_TnNS_9enable_ifIXclsr10_CheckArgsE17__enable_implicitIT_T0_EEEiE4typeELi0EEEOSF_OSG_
PUBLIC 8aa88 0 _ZNSt6__ndk14pairINS_12basic_stringIcNS_11char_traitsIcEENS_9allocatorIcEEEEN4rift5ValueEEC2B8ne180000IRA23_KcS8_TnNS_9enable_ifIXclsr10_CheckArgsE17__enable_implicitIT_T0_EEEiE4typeELi0EEEOSF_OSG_
PUBLIC 8abac 0 _ZNSt6__ndk14pairINS_12basic_stringIcNS_11char_traitsIcEENS_9allocatorIcEEEEN4rift5ValueEEC2B8ne180000IRA18_KcS8_TnNS_9enable_ifIXclsr10_CheckArgsE17__enable_implicitIT_T0_EEEiE4typeELi0EEEOSF_OSG_
PUBLIC 8acd0 0 _ZNSt6__ndk14pairINS_12basic_stringIcNS_11char_traitsIcEENS_9allocatorIcEEEEN4rift5ValueEEC2B8ne180000IRA17_KcS8_TnNS_9enable_ifIXclsr10_CheckArgsE17__enable_implicitIT_T0_EEEiE4typeELi0EEEOSF_OSG_
PUBLIC 8adf4 0 _ZNSt6__ndk14pairINS_12basic_stringIcNS_11char_traitsIcEENS_9allocatorIcEEEEN4rift5ValueEEC2B8ne180000IRA19_KcS8_TnNS_9enable_ifIXclsr10_CheckArgsE17__enable_implicitIT_T0_EEEiE4typeELi0EEEOSF_OSG_
PUBLIC 8af18 0 _ZNSt6__ndk14pairINS_12basic_stringIcNS_11char_traitsIcEENS_9allocatorIcEEEEN4rift5ValueEEC2B8ne180000IRA20_KcS8_TnNS_9enable_ifIXclsr10_CheckArgsE17__enable_implicitIT_T0_EEEiE4typeELi0EEEOSF_OSG_
PUBLIC 8b03c 0 _ZNSt6__ndk14pairINS_12basic_stringIcNS_11char_traitsIcEENS_9allocatorIcEEEEN4rift5ValueEEC2B8ne180000IRA28_KcS8_TnNS_9enable_ifIXclsr10_CheckArgsE17__enable_implicitIT_T0_EEEiE4typeELi0EEEOSF_OSG_
PUBLIC 8b160 0 Utils::getLevel()
PUBLIC 8b28c 0 geode::cast::traverseTypeinfoFor(void*, geode::cast::ClassTypeinfoType const*, char const*)
PUBLIC 8b390 0 _ZNSt6__ndk14pairINS_12basic_stringIcNS_11char_traitsIcEENS_9allocatorIcEEEEN4rift5ValueEEC2B8ne180000IRA21_KcS8_TnNS_9enable_ifIXclsr10_CheckArgsE17__enable_implicitIT_T0_EEEiE4typeELi0EEEOSF_OSG_
PUBLIC 8b4b4 0 _ZNSt6__ndk14pairINS_12basic_stringIcNS_11char_traitsIcEENS_9allocatorIcEEEEN4rift5ValueEEC2B8ne180000IRA15_KcS8_TnNS_9enable_ifIXclsr10_CheckArgsE17__enable_implicitIT_T0_EEEiE4typeELi0EEEOSF_OSG_
PUBLIC 8b5d8 0 Utils::getLayer<LevelBrowserLayer*>()
PUBLIC 8b6dc 0 _ZNSt6__ndk14pairINS_12basic_stringIcNS_11char_traitsIcEENS_9allocatorIcEEEEN4rift5ValueEEC2B8ne180000IRA24_KcS8_TnNS_9enable_ifIXclsr10_CheckArgsE17__enable_implicitIT_T0_EEEiE4typeELi0EEEOSF_OSG_
PUBLIC 8b800 0 std::__ndk1::__hash_table<std::__ndk1::__hash_value_type<std::__ndk1::basic_string<char, std::__ndk1::char_traits<char>, std::__ndk1::allocator<char> >, rift::Value>, std::__ndk1::__unordered_map_hasher<std::__ndk1::basic_string<char, std::__ndk1::char_traits<char>, std::__ndk1::allocator<char> >, std::__ndk1::__hash_value_type<std::__ndk1::basic_string<char, std::__ndk1::char_traits<char>, std::__ndk1::allocator<char> >, rift::Value>, std::__ndk1::hash<std::__ndk1::basic_string<char, std::__ndk1::char_traits<char>, std::__ndk1::allocator<char> > >, std::__ndk1::equal_to<std::__ndk1::basic_string<char, std::__ndk1::char_traits<char>, std::__ndk1::allocator<char> > >, true>, std::__ndk1::__unordered_map_equal<std::__ndk1::basic_string<char, std::__ndk1::char_traits<char>, std::__ndk1::allocator<char> >, std::__ndk1::__hash_value_type<std::__ndk1::basic_string<char, std::__ndk1::char_traits<char>, std::__ndk1::allocator<char> >, rift::Value>, std::__ndk1::equal_to<std::__ndk1::basic_string<char, std::__ndk1::char_traits<char>, std::__ndk1::allocator<char> > >, std::__ndk1::hash<std::__ndk1::basic_string<char, std::__ndk1::char_traits<char>, std::__ndk1::allocator<char> > >, true>, std::__ndk1::allocator<std::__ndk1::__hash_value_type<std::__ndk1::basic_string<char, std::__ndk1::char_traits<char>, std::__ndk1::allocator<char> >, rift::Value> > >::~__hash_table()
PUBLIC 8b8c8 0 std::__ndk1::__hash_table<std::__ndk1::__hash_value_type<std::__ndk1::basic_string<char, std::__ndk1::char_traits<char>, std::__ndk1::allocator<char> >, rift::Value>, std::__ndk1::__unordered_map_hasher<std::__ndk1::basic_string<char, std::__ndk1::char_traits<char>, std::__ndk1::allocator<char> >, std::__ndk1::__hash_value_type<std::__ndk1::basic_string<char, std::__ndk1::char_traits<char>, std::__ndk1::allocator<char> >, rift::Value>, std::__ndk1::hash<std::__ndk1::basic_string<char, std::__ndk1::char_traits<char>, std::__ndk1::allocator<char> > >, std::__ndk1::equal_to<std::__ndk1::basic_string<char, std::__ndk1::char_traits<char>, std::__ndk1::allocator<char> > >, true>, std::__ndk1::__unordered_map_equal<std::__ndk1::basic_string<char, std::__ndk1::char_traits<char>, std::__ndk1::allocator<char> >, std::__ndk1::__hash_value_type<std::__ndk1::basic_string<char, std::__ndk1::char_traits<char>, std::__ndk1::allocator<char> >, rift::Value>, std::__ndk1::equal_to<std::__ndk1::basic_string<char, std::__ndk1::char_traits<char>, std::__ndk1::allocator<char> > >, std::__ndk1::hash<std::__ndk1::basic_string<char, std::__ndk1::char_traits<char>, std::__ndk1::allocator<char> > >, true>, std::__ndk1::allocator<std::__ndk1::__hash_value_type<std::__ndk1::basic_string<char, std::__ndk1::char_traits<char>, std::__ndk1::allocator<char> >, rift::Value> > >::__emplace_unique_key_args<std::__ndk1::basic_string<char, std::__ndk1::char_traits<char>, std::__ndk1::allocator<char> >, std::__ndk1::pair<std::__ndk1::basic_string<char, std::__ndk1::char_traits<char>, std::__ndk1::allocator<char> > const, rift::Value> const&>(std::__ndk1::basic_string<char, std::__ndk1::char_traits<char>, std::__ndk1::allocator<char> > const&, std::__ndk1::pair<std::__ndk1::basic_string<char, std::__ndk1::char_traits<char>, std::__ndk1::allocator<char> > const, rift::Value> const&)
PUBLIC 8bd40 0 std::__ndk1::__hash_table<std::__ndk1::__hash_value_type<std::__ndk1::basic_string<char, std::__ndk1::char_traits<char>, std::__ndk1::allocator<char> >, rift::Value>, std::__ndk1::__unordered_map_hasher<std::__ndk1::basic_string<char, std::__ndk1::char_traits<char>, std::__ndk1::allocator<char> >, std::__ndk1::__hash_value_type<std::__ndk1::basic_string<char, std::__ndk1::char_traits<char>, std::__ndk1::allocator<char> >, rift::Value>, std::__ndk1::hash<std::__ndk1::basic_string<char, std::__ndk1::char_traits<char>, std::__ndk1::allocator<char> > >, std::__ndk1::equal_to<std::__ndk1::basic_string<char, std::__ndk1::char_traits<char>, std::__ndk1::allocator<char> > >, true>, std::__ndk1::__unordered_map_equal<std::__ndk1::basic_string<char, std::__ndk1::char_traits<char>, std::__ndk1::allocator<char> >, std::__ndk1::__hash_value_type<std::__ndk1::basic_string<char, std::__ndk1::char_traits<char>, std::__ndk1::allocator<char> >, rift::Value>, std::__ndk1::equal_to<std::__ndk1::basic_string<char, std::__ndk1::char_traits<char>, std::__ndk1::allocator<char> > >, std::__ndk1::hash<std::__ndk1::basic_string<char, std::__ndk1::char_traits<char>, std::__ndk1::allocator<char> > >, true>, std::__ndk1::allocator<std::__ndk1::__hash_value_type<std::__ndk1::basic_string<char, std::__ndk1::char_traits<char>, std::__ndk1::allocator<char> >, rift::Value> > >::__construct_node_hash<std::__ndk1::pair<std::__ndk1::basic_string<char, std::__ndk1::char_traits<char>, std::__ndk1::allocator<char> > const, rift::Value> const&, >(unsigned long, std::__ndk1::pair<std::__ndk1::basic_string<char, std::__ndk1::char_traits<char>, std::__ndk1::allocator<char> > const, rift::Value> const&, &&)
PUBLIC 8be68 0 std::__ndk1::unique_ptr<std::__ndk1::__hash_node<std::__ndk1::__hash_value_type<std::__ndk1::basic_string<char, std::__ndk1::char_traits<char>, std::__ndk1::allocator<char> >, rift::Value>, void*>, std::__ndk1::__hash_node_destructor<std::__ndk1::allocator<std::__ndk1::__hash_node<std::__ndk1::__hash_value_type<std::__ndk1::basic_string<char, std::__ndk1::char_traits<char>, std::__ndk1::allocator<char> >, rift::Value>, void*> > > >::~unique_ptr[abi:ne180000]()
PUBLIC 8bf04 0 _ZNSt6__ndk116__variant_detail12__visitation6__base12__dispatcherIJLm0ELm0EEE10__dispatchB8ne180000IOZNS0_6__ctorINS0_8__traitsIJNS_9monostateENS_12basic_stringIcNS_11char_traitsIcEENS_9allocatorIcEEEEldbNS_6vectorIN4rift5ValueENSC_ISH_EEEENS_13unordered_mapISE_SH_NS_4hashISE_EENS_8equal_toISE_EENSC_INS_4pairIKSE_SH_EEEEEEEEEE19__generic_constructB8ne180000IRKNS0_18__copy_constructorISU_LNS0_6_TraitE1EEEEEvRSV_OT_EUlRS13_OT0_E_JRNS0_6__baseILSY_1EJS8_SE_ldbSJ_ST_EEERKS1B_EEEDcS13_DpT0_
PUBLIC 8bf08 0 _ZNSt6__ndk116__variant_detail12__visitation6__base12__dispatcherIJLm1ELm1EEE10__dispatchB8ne180000IOZNS0_6__ctorINS0_8__traitsIJNS_9monostateENS_12basic_stringIcNS_11char_traitsIcEENS_9allocatorIcEEEEldbNS_6vectorIN4rift5ValueENSC_ISH_EEEENS_13unordered_mapISE_SH_NS_4hashISE_EENS_8equal_toISE_EENSC_INS_4pairIKSE_SH_EEEEEEEEEE19__generic_constructB8ne180000IRKNS0_18__copy_constructorISU_LNS0_6_TraitE1EEEEEvRSV_OT_EUlRS13_OT0_E_JRNS0_6__baseILSY_1EJS8_SE_ldbSJ_ST_EEERKS1B_EEEDcS13_DpT0_
PUBLIC 8bf34 0 _ZNSt6__ndk116__variant_detail12__visitation6__base12__dispatcherIJLm2ELm2EEE10__dispatchB8ne180000IOZNS0_6__ctorINS0_8__traitsIJNS_9monostateENS_12basic_stringIcNS_11char_traitsIcEENS_9allocatorIcEEEEldbNS_6vectorIN4rift5ValueENSC_ISH_EEEENS_13unordered_mapISE_SH_NS_4hashISE_EENS_8equal_toISE_EENSC_INS_4pairIKSE_SH_EEEEEEEEEE19__generic_constructB8ne180000IRKNS0_18__copy_constructorISU_LNS0_6_TraitE1EEEEEvRSV_OT_EUlRS13_OT0_E_JRNS0_6__baseILSY_1EJS8_SE_ldbSJ_ST_EEERKS1B_EEEDcS13_DpT0_
PUBLIC 8bf40 0 _ZNSt6__ndk116__variant_detail12__visitation6__base12__dispatcherIJLm3ELm3EEE10__dispatchB8ne180000IOZNS0_6__ctorINS0_8__traitsIJNS_9monostateENS_12basic_stringIcNS_11char_traitsIcEENS_9allocatorIcEEEEldbNS_6vectorIN4rift5ValueENSC_ISH_EEEENS_13unordered_mapISE_SH_NS_4hashISE_EENS_8equal_toISE_EENSC_INS_4pairIKSE_SH_EEEEEEEEEE19__generic_constructB8ne180000IRKNS0_18__copy_constructorISU_LNS0_6_TraitE1EEEEEvRSV_OT_EUlRS13_OT0_E_JRNS0_6__baseILSY_1EJS8_SE_ldbSJ_ST_EEERKS1B_EEEDcS13_DpT0_
PUBLIC 8bf4c 0 _ZNSt6__ndk116__variant_detail12__visitation6__base12__dispatcherIJLm4ELm4EEE10__dispatchB8ne180000IOZNS0_6__ctorINS0_8__traitsIJNS_9monostateENS_12basic_stringIcNS_11char_traitsIcEENS_9allocatorIcEEEEldbNS_6vectorIN4rift5ValueENSC_ISH_EEEENS_13unordered_mapISE_SH_NS_4hashISE_EENS_8equal_toISE_EENSC_INS_4pairIKSE_SH_EEEEEEEEEE19__generic_constructB8ne180000IRKNS0_18__copy_constructorISU_LNS0_6_TraitE1EEEEEvRSV_OT_EUlRS13_OT0_E_JRNS0_6__baseILSY_1EJS8_SE_ldbSJ_ST_EEERKS1B_EEEDcS13_DpT0_
PUBLIC 8bf58 0 _ZNSt6__ndk116__variant_detail12__visitation6__base12__dispatcherIJLm5ELm5EEE10__dispatchB8ne180000IOZNS0_6__ctorINS0_8__traitsIJNS_9monostateENS_12basic_stringIcNS_11char_traitsIcEENS_9allocatorIcEEEEldbNS_6vectorIN4rift5ValueENSC_ISH_EEEENS_13unordered_mapISE_SH_NS_4hashISE_EENS_8equal_toISE_EENSC_INS_4pairIKSE_SH_EEEEEEEEEE19__generic_constructB8ne180000IRKNS0_18__copy_constructorISU_LNS0_6_TraitE1EEEEEvRSV_OT_EUlRS13_OT0_E_JRNS0_6__baseILSY_1EJS8_SE_ldbSJ_ST_EEERKS1B_EEEDcS13_DpT0_
PUBLIC 8bf88 0 _ZNSt6__ndk116__variant_detail12__visitation6__base12__dispatcherIJLm6ELm6EEE10__dispatchB8ne180000IOZNS0_6__ctorINS0_8__traitsIJNS_9monostateENS_12basic_stringIcNS_11char_traitsIcEENS_9allocatorIcEEEEldbNS_6vectorIN4rift5ValueENSC_ISH_EEEENS_13unordered_mapISE_SH_NS_4hashISE_EENS_8equal_toISE_EENSC_INS_4pairIKSE_SH_EEEEEEEEEE19__generic_constructB8ne180000IRKNS0_18__copy_constructorISU_LNS0_6_TraitE1EEEEEvRSV_OT_EUlRS13_OT0_E_JRNS0_6__baseILSY_1EJS8_SE_ldbSJ_ST_EEERKS1B_EEEDcS13_DpT0_
PUBLIC 8bf94 0 std::__ndk1::vector<rift::Value, std::__ndk1::allocator<rift::Value> >::__init_with_size[abi:ne180000]<rift::Value*, std::__ndk1::vector<rift::Value, std::__ndk1::allocator<rift::Value> >::__init_with_size[abi:ne180000]>(rift::Value*, std::__ndk1::vector<rift::Value, std::__ndk1::allocator<rift::Value> >::__init_with_size[abi:ne180000], unsigned long)
PUBLIC 8c0f8 0 std::__ndk1::__exception_guard_exceptions<std::__ndk1::vector<rift::Value, std::__ndk1::allocator<rift::Value> >::__destroy_vector>::~__exception_guard_exceptions[abi:ne180000]()
PUBLIC 8c1d0 0 std::__ndk1::vector<rift::Value, std::__ndk1::allocator<rift::Value> >::__throw_length_error[abi:ne180000]() const
PUBLIC 8c1e4 0 std::__ndk1::unordered_map<std::__ndk1::basic_string<char, std::__ndk1::char_traits<char>, std::__ndk1::allocator<char> >, rift::Value, std::__ndk1::hash<std::__ndk1::basic_string<char, std::__ndk1::char_traits<char>, std::__ndk1::allocator<char> > >, std::__ndk1::equal_to<std::__ndk1::basic_string<char, std::__ndk1::char_traits<char>, std::__ndk1::allocator<char> > >, std::__ndk1::allocator<std::__ndk1::pair<std::__ndk1::basic_string<char, std::__ndk1::char_traits<char>, std::__ndk1::allocator<char> > const, rift::Value> > >::unordered_map(std::__ndk1::unordered_map<std::__ndk1::basic_string<char, std::__ndk1::char_traits<char>, std::__ndk1::allocator<char> >, rift::Value, std::__ndk1::hash<std::__ndk1::basic_string<char, std::__ndk1::char_traits<char>, std::__ndk1::allocator<char> > >, std::__ndk1::equal_to<std::__ndk1::basic_string<char, std::__ndk1::char_traits<char>, std::__ndk1::allocator<char> > >, std::__ndk1::allocator<std::__ndk1::pair<std::__ndk1::basic_string<char, std::__ndk1::char_traits<char>, std::__ndk1::allocator<char> > const, rift::Value> > > const&)
PUBLIC 8c320 0 std::__ndk1::__hash_table<std::__ndk1::__hash_value_type<std::__ndk1::basic_string<char, std::__ndk1::char_traits<char>, std::__ndk1::allocator<char> >, rift::Value>, std::__ndk1::__unordered_map_hasher<std::__ndk1::basic_string<char, std::__ndk1::char_traits<char>, std::__ndk1::allocator<char> >, std::__ndk1::__hash_value_type<std::__ndk1::basic_string<char, std::__ndk1::char_traits<char>, std::__ndk1::allocator<char> >, rift::Value>, std::__ndk1::hash<std::__ndk1::basic_string<char, std::__ndk1::char_traits<char>, std::__ndk1::allocator<char> > >, std::__ndk1::equal_to<std::__ndk1::basic_string<char, std::__ndk1::char_traits<char>, std::__ndk1::allocator<char> > >, true>, std::__ndk1::__unordered_map_equal<std::__ndk1::basic_string<char, std::__ndk1::char_traits<char>, std::__ndk1::allocator<char> >, std::__ndk1::__hash_value_type<std::__ndk1::basic_string<char, std::__ndk1::char_traits<char>, std::__ndk1::allocator<char> >, rift::Value>, std::__ndk1::equal_to<std::__ndk1::basic_string<char, std::__ndk1::char_traits<char>, std::__ndk1::allocator<char> > >, std::__ndk1::hash<std::__ndk1::basic_string<char, std::__ndk1::char_traits<char>, std::__ndk1::allocator<char> > >, true>, std::__ndk1::allocator<std::__ndk1::__hash_value_type<std::__ndk1::basic_string<char, std::__ndk1::char_traits<char>, std::__ndk1::allocator<char> >, rift::Value> > >::__do_rehash<true>(unsigned long)
PUBLIC 8c4cc 0 _ZNSt6__ndk14pairIKNS_12basic_stringIcNS_11char_traitsIcEENS_9allocatorIcEEEEN4rift5ValueEEC2B8ne180000IRA16_KcS9_TnNS_9enable_ifIXclsr10_CheckArgsE17__enable_implicitIT_T0_EEEiE4typeELi0EEEOSG_OSH_
PUBLIC 8c5f0 0 _ZNSt6__ndk14pairIKNS_12basic_stringIcNS_11char_traitsIcEENS_9allocatorIcEEEEN4rift5ValueEEC2B8ne180000IRA11_KcS9_TnNS_9enable_ifIXclsr10_CheckArgsE17__enable_implicitIT_T0_EEEiE4typeELi0EEEOSG_OSH_
PUBLIC 8c714 0 _ZNSt6__ndk14pairIKNS_12basic_stringIcNS_11char_traitsIcEENS_9allocatorIcEEEEN4rift5ValueEEC2B8ne180000IRA13_KcS9_TnNS_9enable_ifIXclsr10_CheckArgsE17__enable_implicitIT_T0_EEEiE4typeELi0EEEOSG_OSH_
PUBLIC 8c838 0 _ZNSt6__ndk14pairIKNS_12basic_stringIcNS_11char_traitsIcEENS_9allocatorIcEEEEN4rift5ValueEEC2B8ne180000IRA14_KcS9_TnNS_9enable_ifIXclsr10_CheckArgsE17__enable_implicitIT_T0_EEEiE4typeELi0EEEOSG_OSH_
PUBLIC 8c95c 0 _ZNSt6__ndk14pairIKNS_12basic_stringIcNS_11char_traitsIcEENS_9allocatorIcEEEEN4rift5ValueEEC2B8ne180000IRA12_KcS9_TnNS_9enable_ifIXclsr10_CheckArgsE17__enable_implicitIT_T0_EEEiE4typeELi0EEEOSG_OSH_
PUBLIC 8ca80 0 _ZNSt6__ndk14pairIKNS_12basic_stringIcNS_11char_traitsIcEENS_9allocatorIcEEEEN4rift5ValueEEC2B8ne180000IRA10_KcS9_TnNS_9enable_ifIXclsr10_CheckArgsE17__enable_implicitIT_T0_EEEiE4typeELi0EEEOSG_OSH_
PUBLIC 8cba4 0 geode::cocos::CCDictionaryExt<std::__ndk1::basic_string<char, std::__ndk1::char_traits<char>, std::__ndk1::allocator<char> >, cocos2d::CCSpriteFrame*, cocos2d::CCSpriteFrame>::~CCDictionaryExt()
PUBLIC 8cbc4 0 geode::cocos::CCDictionaryExt<std::__ndk1::basic_string<char, std::__ndk1::char_traits<char>, std::__ndk1::allocator<char> >, cocos2d::CCTexture2D*, cocos2d::CCTexture2D>::~CCDictionaryExt()
PUBLIC 8cbe0 0 std::__ndk1::__variant_detail::__dtor<std::__ndk1::__variant_detail::__traits<std::__ndk1::monostate, std::__ndk1::basic_string<char, std::__ndk1::char_traits<char>, std::__ndk1::allocator<char> >, long, double, bool, std::__ndk1::vector<rift::Value, std::__ndk1::allocator<rift::Value> >, std::__ndk1::unordered_map<std::__ndk1::basic_string<char, std::__ndk1::char_traits<char>, std::__ndk1::allocator<char> >, rift::Value, std::__ndk1::hash<std::__ndk1::basic_string<char, std::__ndk1::char_traits<char>, std::__ndk1::allocator<char> > >, std::__ndk1::equal_to<std::__ndk1::basic_string<char, std::__ndk1::char_traits<char>, std::__ndk1::allocator<char> > >, std::__ndk1::allocator<std::__ndk1::pair<std::__ndk1::basic_string<char, std::__ndk1::char_traits<char>, std::__ndk1::allocator<char> > const, rift::Value> > > >, (std::__ndk1::__variant_detail::_Trait)1>::~__dtor()
PUBLIC 8cc54 0 std::__ndk1::__variant_detail::__visitation::__base::__dispatcher<(unsigned long)0>::__dispatch[abi:ne180000]<std::__ndk1::__variant_detail::__dtor<std::__ndk1::__variant_detail::__traits<rift::Value, std::__ndk1::__variant_detail::__traits::CompileError>, (std::__ndk1::__variant_detail::_Trait)1>::__destroy[abi:ne180000]()::{lambda(auto:1&)#1}, std::__ndk1::__variant_detail::__base<(std::__ndk1::__variant_detail::__traits<rift::Value, std::__ndk1::__variant_detail::__traits::CompileError>)1, rift, rift::Value>&>(std::__ndk1::__variant_detail::__dtor<std::__ndk1::__variant_detail::__traits<rift::Value, std::__ndk1::__variant_detail::__traits::CompileError>, (std::__ndk1::__variant_detail::_Trait)1>, std::__ndk1::__variant_detail::__base<(std::__ndk1::__variant_detail::__traits<rift::Value, std::__ndk1::__variant_detail::__traits::CompileError>)1, rift, rift::Value>&)
PUBLIC 8ccc8 0 std::__ndk1::__variant_detail::__visitation::__base::__dispatcher<(unsigned long)1>::__dispatch[abi:ne180000]<std::__ndk1::__variant_detail::__dtor<std::__ndk1::__variant_detail::__traits<rift::Value, std::__ndk1::__variant_detail::__traits::CompileError>, (std::__ndk1::__variant_detail::_Trait)1>::__destroy[abi:ne180000]()::{lambda(auto:1&)#1}, std::__ndk1::__variant_detail::__base<(std::__ndk1::__variant_detail::__traits<rift::Value, std::__ndk1::__variant_detail::__traits::CompileError>)1, rift, rift::Value>&>(std::__ndk1::__variant_detail::__dtor<std::__ndk1::__variant_detail::__traits<rift::Value, std::__ndk1::__variant_detail::__traits::CompileError>, (std::__ndk1::__variant_detail::_Trait)1>, std::__ndk1::__variant_detail::__base<(std::__ndk1::__variant_detail::__traits<rift::Value, std::__ndk1::__variant_detail::__traits::CompileError>)1, rift, rift::Value>&)
PUBLIC 8cd0c 0 UIModding::UIModding()
PUBLIC 8ce20 0 std::__ndk1::unordered_map<cocos2d::CCTexture2D*, std::__ndk1::basic_string<char, std::__ndk1::char_traits<char>, std::__ndk1::allocator<char> >, std::__ndk1::hash<cocos2d::CCTexture2D*>, std::__ndk1::equal_to<cocos2d::CCTexture2D*>, std::__ndk1::allocator<std::__ndk1::pair<cocos2d::CCTexture2D* const, std::__ndk1::basic_string<char, std::__ndk1::char_traits<char>, std::__ndk1::allocator<char> > > > >::~unordered_map[abi:ne180000]()
PUBLIC 8ce90 0 std::__ndk1::unordered_map<std::__ndk1::basic_string<char, std::__ndk1::char_traits<char>, std::__ndk1::allocator<char> >, bool, std::__ndk1::hash<std::__ndk1::basic_string<char, std::__ndk1::char_traits<char>, std::__ndk1::allocator<char> > >, std::__ndk1::equal_to<std::__ndk1::basic_string<char, std::__ndk1::char_traits<char>, std::__ndk1::allocator<char> > >, std::__ndk1::allocator<std::__ndk1::pair<std::__ndk1::basic_string<char, std::__ndk1::char_traits<char>, std::__ndk1::allocator<char> > const, bool> > >::~unordered_map[abi:ne180000]()
PUBLIC 8cf00 0 std::__ndk1::__tree<std::__ndk1::__value_type<std::__ndk1::basic_string<char, std::__ndk1::char_traits<char>, std::__ndk1::allocator<char> >, std::__ndk1::basic_string<char, std::__ndk1::char_traits<char>, std::__ndk1::allocator<char> > >, std::__ndk1::__map_value_compare<std::__ndk1::basic_string<char, std::__ndk1::char_traits<char>, std::__ndk1::allocator<char> >, std::__ndk1::__value_type<std::__ndk1::basic_string<char, std::__ndk1::char_traits<char>, std::__ndk1::allocator<char> >, std::__ndk1::basic_string<char, std::__ndk1::char_traits<char>, std::__ndk1::allocator<char> > >, std::__ndk1::less<std::__ndk1::basic_string<char, std::__ndk1::char_traits<char>, std::__ndk1::allocator<char> > >, true>, std::__ndk1::allocator<std::__ndk1::__value_type<std::__ndk1::basic_string<char, std::__ndk1::char_traits<char>, std::__ndk1::allocator<char> >, std::__ndk1::basic_string<char, std::__ndk1::char_traits<char>, std::__ndk1::allocator<char> > > > >::destroy(std::__ndk1::__tree_node<std::__ndk1::__value_type<std::__ndk1::basic_string<char, std::__ndk1::char_traits<char>, std::__ndk1::allocator<char> >, std::__ndk1::basic_string<char, std::__ndk1::char_traits<char>, std::__ndk1::allocator<char> > >, void*>*)
PUBLIC 8cf78 0 std::__ndk1::__tree<std::__ndk1::__value_type<std::__ndk1::basic_string<char, std::__ndk1::char_traits<char>, std::__ndk1::allocator<char> >, ColorData>, std::__ndk1::__map_value_compare<std::__ndk1::basic_string<char, std::__ndk1::char_traits<char>, std::__ndk1::allocator<char> >, std::__ndk1::__value_type<std::__ndk1::basic_string<char, std::__ndk1::char_traits<char>, std::__ndk1::allocator<char> >, ColorData>, std::__ndk1::less<std::__ndk1::basic_string<char, std::__ndk1::char_traits<char>, std::__ndk1::allocator<char> > >, true>, std::__ndk1::allocator<std::__ndk1::__value_type<std::__ndk1::basic_string<char, std::__ndk1::char_traits<char>, std::__ndk1::allocator<char> >, ColorData> > >::destroy(std::__ndk1::__tree_node<std::__ndk1::__value_type<std::__ndk1::basic_string<char, std::__ndk1::char_traits<char>, std::__ndk1::allocator<char> >, ColorData>, void*>*)
PUBLIC 8cfc8 0 std::__ndk1::__tree<std::__ndk1::__value_type<std::__ndk1::basic_string<char, std::__ndk1::char_traits<char>, std::__ndk1::allocator<char> >, matjson::Value>, std::__ndk1::__map_value_compare<std::__ndk1::basic_string<char, std::__ndk1::char_traits<char>, std::__ndk1::allocator<char> >, std::__ndk1::__value_type<std::__ndk1::basic_string<char, std::__ndk1::char_traits<char>, std::__ndk1::allocator<char> >, matjson::Value>, std::__ndk1::less<std::__ndk1::basic_string<char, std::__ndk1::char_traits<char>, std::__ndk1::allocator<char> > >, true>, std::__ndk1::allocator<std::__ndk1::__value_type<std::__ndk1::basic_string<char, std::__ndk1::char_traits<char>, std::__ndk1::allocator<char> >, matjson::Value> > >::destroy(std::__ndk1::__tree_node<std::__ndk1::__value_type<std::__ndk1::basic_string<char, std::__ndk1::char_traits<char>, std::__ndk1::allocator<char> >, matjson::Value>, void*>*)
PUBLIC 8d020 0 std::__ndk1::vector<matjson::Value, std::__ndk1::allocator<matjson::Value> >::__push_back_slow_path<matjson::Value const&>(matjson::Value const&)
PUBLIC 8d1c4 0 Utils::getNodeName(cocos2d::CCObject*)
PUBLIC 8d510 0 geode::modifier::FieldIntermediate<MyFLAlertLayer, FLAlertLayer>::self()
PUBLIC 8d694 0 geode::modifier::FieldIntermediate<MyFLAlertLayer, FLAlertLayer>::fieldDestructor(void*)
PUBLIC 8d698 0 geode::modifier::FieldIntermediate<MyTextArea, TextArea>::self()
PUBLIC 8d828 0 geode::modifier::FieldIntermediate<MyTextArea, TextArea>::fieldDestructor(void*)
PUBLIC 8d888 0 DataNode::~DataNode()
PUBLIC 8d8ac 0 DataNode::init(cocos2d::CCNode*)
PUBLIC 8d8bc 0 std::__ndk1::__fs::filesystem::recursive_directory_iterator::~recursive_directory_iterator[abi:ne180000]()
PUBLIC 8d90c 0 std::__ndk1::unordered_map<std::__ndk1::__fs::filesystem::path, std::__ndk1::chrono::time_point<std::__ndk1::__fs::filesystem::_FilesystemClock, std::__ndk1::chrono::duration<__int128, std::__ndk1::ratio<(long)1, (long)1000000000> > >, std::__ndk1::hash<std::__ndk1::__fs::filesystem::path>, std::__ndk1::equal_to<std::__ndk1::__fs::filesystem::path>, std::__ndk1::allocator<std::__ndk1::pair<std::__ndk1::__fs::filesystem::path const, std::__ndk1::chrono::time_point<std::__ndk1::__fs::filesystem::_FilesystemClock, std::__ndk1::chrono::duration<__int128, std::__ndk1::ratio<(long)1, (long)1000000000> > > > > >::~unordered_map[abi:ne180000]()
PUBLIC 8d97c 0 std::__ndk1::__hash_table<std::__ndk1::__hash_value_type<std::__ndk1::__fs::filesystem::path, std::__ndk1::chrono::time_point<std::__ndk1::__fs::filesystem::_FilesystemClock, std::__ndk1::chrono::duration<__int128, std::__ndk1::ratio<(long)1, (long)1000000000> > > >, std::__ndk1::__unordered_map_hasher<std::__ndk1::__fs::filesystem::path, std::__ndk1::__hash_value_type<std::__ndk1::__fs::filesystem::path, std::__ndk1::chrono::time_point<std::__ndk1::__fs::filesystem::_FilesystemClock, std::__ndk1::chrono::duration<__int128, std::__ndk1::ratio<(long)1, (long)1000000000> > > >, std::__ndk1::hash<std::__ndk1::__fs::filesystem::path>, std::__ndk1::equal_to<std::__ndk1::__fs::filesystem::path>, true>, std::__ndk1::__unordered_map_equal<std::__ndk1::__fs::filesystem::path, std::__ndk1::__hash_value_type<std::__ndk1::__fs::filesystem::path, std::__ndk1::chrono::time_point<std::__ndk1::__fs::filesystem::_FilesystemClock, std::__ndk1::chrono::duration<__int128, std::__ndk1::ratio<(long)1, (long)1000000000> > > >, std::__ndk1::equal_to<std::__ndk1::__fs::filesystem::path>, std::__ndk1::hash<std::__ndk1::__fs::filesystem::path>, true>, std::__ndk1::allocator<std::__ndk1::__hash_value_type<std::__ndk1::__fs::filesystem::path, std::__ndk1::chrono::time_point<std::__ndk1::__fs::filesystem::_FilesystemClock, std::__ndk1::chrono::duration<__int128, std::__ndk1::ratio<(long)1, (long)1000000000> > > > > >::__emplace_unique_key_args<std::__ndk1::__fs::filesystem::path, std::__ndk1::piecewise_construct_t const&, std::__ndk1::tuple<std::__ndk1::__fs::filesystem::path const&>, std::__ndk1::tuple<> >(std::__ndk1::__fs::filesystem::path const&, std::__ndk1::piecewise_construct_t const&, std::__ndk1::tuple<std::__ndk1::__fs::filesystem::path const&>, std::__ndk1::tuple<>)
PUBLIC 8df14 0 std::__ndk1::unique_ptr<std::__ndk1::__hash_node<std::__ndk1::__hash_value_type<std::__ndk1::__fs::filesystem::path, std::__ndk1::chrono::time_point<std::__ndk1::__fs::filesystem::_FilesystemClock, std::__ndk1::chrono::duration<__int128, std::__ndk1::ratio<(long)1, (long)1000000000> > > >, void*>, std::__ndk1::__hash_node_destructor<std::__ndk1::allocator<std::__ndk1::__hash_node<std::__ndk1::__hash_value_type<std::__ndk1::__fs::filesystem::path, std::__ndk1::chrono::time_point<std::__ndk1::__fs::filesystem::_FilesystemClock, std::__ndk1::chrono::duration<__int128, std::__ndk1::ratio<(long)1, (long)1000000000> > > >, void*> > > >::~unique_ptr[abi:ne180000]()
PUBLIC 8df64 0 std::__ndk1::vector<FileWatcher*, std::__ndk1::allocator<FileWatcher*> >::__throw_length_error[abi:ne180000]() const
PUBLIC 8df78 0 geode::modifier::ModifyBase<geode::modifier::ModifyDerive<MyCCLabelBMFont, cocos2d::CCLabelBMFont> >::ModifyBase()
PUBLIC 8e380 0 geode::modifier::ModifyDerive<MyCCLabelBMFont, cocos2d::CCLabelBMFont>::apply()
PUBLIC 8ea14 0 MyCCLabelBMFont::onModify<geode::modifier::ModifyBase<geode::modifier::ModifyDerive<MyCCLabelBMFont, cocos2d::CCLabelBMFont> > >(geode::modifier::ModifyBase<geode::modifier::ModifyDerive<MyCCLabelBMFont, cocos2d::CCLabelBMFont> >&)
PUBLIC 8ebc0 0 std::__ndk1::shared_ptr<geode::Hook>::~shared_ptr[abi:ne180000]()
PUBLIC 8ec10 0 geode::impl::ResultData<geode::Hook*, std::__ndk1::basic_string<char, std::__ndk1::char_traits<char>, std::__ndk1::allocator<char> > >::~ResultData()
PUBLIC 8ec84 0 geode::modifier::ModifyBase<geode::modifier::ModifyDerive<MyCCLabelBMFont, cocos2d::CCLabelBMFont> >::apply()
PUBLIC 8ec88 0 std::__ndk1::__function::__func<MyCCLabelBMFont::onModify<geode::modifier::ModifyBase<geode::modifier::ModifyDerive<MyCCLabelBMFont, cocos2d::CCLabelBMFont> > >(geode::modifier::ModifyBase<geode::modifier::ModifyDerive<MyCCLabelBMFont, cocos2d::CCLabelBMFont> >&)::{lambda()#1}, std::__ndk1::allocator<MyCCLabelBMFont::onModify<geode::modifier::ModifyBase<geode::modifier::ModifyDerive<MyCCLabelBMFont, cocos2d::CCLabelBMFont> > >(geode::modifier::ModifyBase<geode::modifier::ModifyDerive<MyCCLabelBMFont, cocos2d::CCLabelBMFont> >&)::{lambda()#1}>, void ()>::~__func()
PUBLIC 8ec8c 0 std::__ndk1::__function::__func<MyCCLabelBMFont::onModify<geode::modifier::ModifyBase<geode::modifier::ModifyDerive<MyCCLabelBMFont, cocos2d::CCLabelBMFont> > >(geode::modifier::ModifyBase<geode::modifier::ModifyDerive<MyCCLabelBMFont, cocos2d::CCLabelBMFont> >&)::{lambda()#1}, std::__ndk1::allocator<MyCCLabelBMFont::onModify<geode::modifier::ModifyBase<geode::modifier::ModifyDerive<MyCCLabelBMFont, cocos2d::CCLabelBMFont> > >(geode::modifier::ModifyBase<geode::modifier::ModifyDerive<MyCCLabelBMFont, cocos2d::CCLabelBMFont> >&)::{lambda()#1}>, void ()>::__clone() const
PUBLIC 8ecc0 0 std::__ndk1::__function::__func<MyCCLabelBMFont::onModify<geode::modifier::ModifyBase<geode::modifier::ModifyDerive<MyCCLabelBMFont, cocos2d::CCLabelBMFont> > >(geode::modifier::ModifyBase<geode::modifier::ModifyDerive<MyCCLabelBMFont, cocos2d::CCLabelBMFont> >&)::{lambda()#1}, std::__ndk1::allocator<MyCCLabelBMFont::onModify<geode::modifier::ModifyBase<geode::modifier::ModifyDerive<MyCCLabelBMFont, cocos2d::CCLabelBMFont> > >(geode::modifier::ModifyBase<geode::modifier::ModifyDerive<MyCCLabelBMFont, cocos2d::CCLabelBMFont> >&)::{lambda()#1}>, void ()>::__clone(std::__ndk1::__function::__base<void ()>*) const
PUBLIC 8ecd4 0 std::__ndk1::__function::__func<MyCCLabelBMFont::onModify<geode::modifier::ModifyBase<geode::modifier::ModifyDerive<MyCCLabelBMFont, cocos2d::CCLabelBMFont> > >(geode::modifier::ModifyBase<geode::modifier::ModifyDerive<MyCCLabelBMFont, cocos2d::CCLabelBMFont> >&)::{lambda()#1}, std::__ndk1::allocator<MyCCLabelBMFont::onModify<geode::modifier::ModifyBase<geode::modifier::ModifyDerive<MyCCLabelBMFont, cocos2d::CCLabelBMFont> > >(geode::modifier::ModifyBase<geode::modifier::ModifyDerive<MyCCLabelBMFont, cocos2d::CCLabelBMFont> >&)::{lambda()#1}>, void ()>::destroy()
PUBLIC 8ecd8 0 std::__ndk1::__function::__func<MyCCLabelBMFont::onModify<geode::modifier::ModifyBase<geode::modifier::ModifyDerive<MyCCLabelBMFont, cocos2d::CCLabelBMFont> > >(geode::modifier::ModifyBase<geode::modifier::ModifyDerive<MyCCLabelBMFont, cocos2d::CCLabelBMFont> >&)::{lambda()#1}, std::__ndk1::allocator<MyCCLabelBMFont::onModify<geode::modifier::ModifyBase<geode::modifier::ModifyDerive<MyCCLabelBMFont, cocos2d::CCLabelBMFont> > >(geode::modifier::ModifyBase<geode::modifier::ModifyDerive<MyCCLabelBMFont, cocos2d::CCLabelBMFont> >&)::{lambda()#1}>, void ()>::destroy_deallocate()
PUBLIC 8ecdc 0 std::__ndk1::__function::__func<MyCCLabelBMFont::onModify<geode::modifier::ModifyBase<geode::modifier::ModifyDerive<MyCCLabelBMFont, cocos2d::CCLabelBMFont> > >(geode::modifier::ModifyBase<geode::modifier::ModifyDerive<MyCCLabelBMFont, cocos2d::CCLabelBMFont> >&)::{lambda()#1}, std::__ndk1::allocator<MyCCLabelBMFont::onModify<geode::modifier::ModifyBase<geode::modifier::ModifyDerive<MyCCLabelBMFont, cocos2d::CCLabelBMFont> > >(geode::modifier::ModifyBase<geode::modifier::ModifyDerive<MyCCLabelBMFont, cocos2d::CCLabelBMFont> >&)::{lambda()#1}>, void ()>::operator()()
PUBLIC 8ece4 0 std::__ndk1::__function::__func<MyCCLabelBMFont::onModify<geode::modifier::ModifyBase<geode::modifier::ModifyDerive<MyCCLabelBMFont, cocos2d::CCLabelBMFont> > >(geode::modifier::ModifyBase<geode::modifier::ModifyDerive<MyCCLabelBMFont, cocos2d::CCLabelBMFont> >&)::{lambda()#1}, std::__ndk1::allocator<MyCCLabelBMFont::onModify<geode::modifier::ModifyBase<geode::modifier::ModifyDerive<MyCCLabelBMFont, cocos2d::CCLabelBMFont> > >(geode::modifier::ModifyBase<geode::modifier::ModifyDerive<MyCCLabelBMFont, cocos2d::CCLabelBMFont> >&)::{lambda()#1}>, void ()>::target(std::type_info const&) const
PUBLIC 8ed00 0 std::__ndk1::__function::__func<MyCCLabelBMFont::onModify<geode::modifier::ModifyBase<geode::modifier::ModifyDerive<MyCCLabelBMFont, cocos2d::CCLabelBMFont> > >(geode::modifier::ModifyBase<geode::modifier::ModifyDerive<MyCCLabelBMFont, cocos2d::CCLabelBMFont> >&)::{lambda()#1}, std::__ndk1::allocator<MyCCLabelBMFont::onModify<geode::modifier::ModifyBase<geode::modifier::ModifyDerive<MyCCLabelBMFont, cocos2d::CCLabelBMFont> > >(geode::modifier::ModifyBase<geode::modifier::ModifyDerive<MyCCLabelBMFont, cocos2d::CCLabelBMFont> >&)::{lambda()#1}>, void ()>::target_type() const
PUBLIC 8ed0c 0 MyCCLabelBMFont::onModify<geode::modifier::ModifyBase<geode::modifier::ModifyDerive<MyCCLabelBMFont, cocos2d::CCLabelBMFont> > >(geode::modifier::ModifyBase<geode::modifier::ModifyDerive<MyCCLabelBMFont, cocos2d::CCLabelBMFont> >&)::{lambda()#1}::operator()() const
PUBLIC 8ee54 0 Utils::getHookPrioLatest(std::__ndk1::basic_string<char, std::__ndk1::char_traits<char>, std::__ndk1::allocator<char> > const&)
PUBLIC 8f0a8 0 geode::modifier::ModifyBase<geode::modifier::ModifyDerive<MyCCLabelBMFont, cocos2d::CCLabelBMFont> >::setHookPriorityBefore(std::__ndk1::basic_string_view<char, std::__ndk1::char_traits<char> >, std::__ndk1::basic_string_view<char, std::__ndk1::char_traits<char> >)
PUBLIC 8f240 0 geode::modifier::ModifyBase<geode::modifier::ModifyDerive<MyCCLabelBMFont, cocos2d::CCLabelBMFont> >::setHookPriorityBefore(std::__ndk1::basic_string_view<char, std::__ndk1::char_traits<char> >, geode::Mod*)
PUBLIC 8f52c 0 geode::modifier::ModifyBase<geode::modifier::ModifyDerive<MyCCLabelBMFont, cocos2d::CCLabelBMFont> >::getHook(std::__ndk1::basic_string_view<char, std::__ndk1::char_traits<char> >)
PUBLIC 8f6d4 0 geode::modifier::ModifyBase<geode::modifier::ModifyDerive<MyCCLabelBMFont, cocos2d::CCLabelBMFont> >::setHookPriorityBefore(std::__ndk1::basic_string_view<char, std::__ndk1::char_traits<char> >, geode::Mod*)::{lambda(geode::ModStateEvent*)#1}::operator()(geode::ModStateEvent*) const
PUBLIC 8f7e8 0 std::__ndk1::__tree<std::__ndk1::__value_type<std::__ndk1::basic_string<char, std::__ndk1::char_traits<char>, std::__ndk1::allocator<char> >, std::__ndk1::shared_ptr<geode::Hook> >, std::__ndk1::__map_value_compare<std::__ndk1::basic_string<char, std::__ndk1::char_traits<char>, std::__ndk1::allocator<char> >, std::__ndk1::__value_type<std::__ndk1::basic_string<char, std::__ndk1::char_traits<char>, std::__ndk1::allocator<char> >, std::__ndk1::shared_ptr<geode::Hook> >, std::__ndk1::less<std::__ndk1::basic_string<char, std::__ndk1::char_traits<char>, std::__ndk1::allocator<char> > >, true>, std::__ndk1::allocator<std::__ndk1::__value_type<std::__ndk1::basic_string<char, std::__ndk1::char_traits<char>, std::__ndk1::allocator<char> >, std::__ndk1::shared_ptr<geode::Hook> > > >::find<std::__ndk1::basic_string<char, std::__ndk1::char_traits<char>, std::__ndk1::allocator<char> > >(std::__ndk1::basic_string<char, std::__ndk1::char_traits<char>, std::__ndk1::allocator<char> > const&)
PUBLIC 8f908 0 std::__ndk1::__tree<std::__ndk1::__value_type<std::__ndk1::basic_string<char, std::__ndk1::char_traits<char>, std::__ndk1::allocator<char> >, std::__ndk1::shared_ptr<geode::Hook> >, std::__ndk1::__map_value_compare<std::__ndk1::basic_string<char, std::__ndk1::char_traits<char>, std::__ndk1::allocator<char> >, std::__ndk1::__value_type<std::__ndk1::basic_string<char, std::__ndk1::char_traits<char>, std::__ndk1::allocator<char> >, std::__ndk1::shared_ptr<geode::Hook> >, std::__ndk1::less<std::__ndk1::basic_string<char, std::__ndk1::char_traits<char>, std::__ndk1::allocator<char> > >, true>, std::__ndk1::allocator<std::__ndk1::__value_type<std::__ndk1::basic_string<char, std::__ndk1::char_traits<char>, std::__ndk1::allocator<char> >, std::__ndk1::shared_ptr<geode::Hook> > > >::__emplace_unique_key_args<std::__ndk1::basic_string<char, std::__ndk1::char_traits<char>, std::__ndk1::allocator<char> >, std::__ndk1::piecewise_construct_t const&, std::__ndk1::tuple<std::__ndk1::basic_string<char, std::__ndk1::char_traits<char>, std::__ndk1::allocator<char> > const&>, std::__ndk1::tuple<> >(std::__ndk1::basic_string<char, std::__ndk1::char_traits<char>, std::__ndk1::allocator<char> > const&, std::__ndk1::piecewise_construct_t const&, std::__ndk1::tuple<std::__ndk1::basic_string<char, std::__ndk1::char_traits<char>, std::__ndk1::allocator<char> > const&>, std::__ndk1::tuple<>)
PUBLIC 8fafc 0 std::__ndk1::unique_ptr<std::__ndk1::__tree_node<std::__ndk1::__value_type<std::__ndk1::basic_string<char, std::__ndk1::char_traits<char>, std::__ndk1::allocator<char> >, std::__ndk1::shared_ptr<geode::Hook> >, void*>, std::__ndk1::__tree_node_destructor<std::__ndk1::allocator<std::__ndk1::__tree_node<std::__ndk1::__value_type<std::__ndk1::basic_string<char, std::__ndk1::char_traits<char>, std::__ndk1::allocator<char> >, std::__ndk1::shared_ptr<geode::Hook> >, void*> > > >::~unique_ptr[abi:ne180000]()
PUBLIC 8fb78 0 _ZN5geode15UnwrapExceptionC2IRPNS_4HookEQsr4implE18IsStringStreamableIT_EEENS_4impl5OkTagEOS5_
PUBLIC 8fccc 0 std::__ndk1::__function::__func<geode::modifier::ModifyBase<geode::modifier::ModifyDerive<MyCCLabelBMFont, cocos2d::CCLabelBMFont> >::setHookPriorityBefore(std::__ndk1::basic_string_view<char, std::__ndk1::char_traits<char> >, geode::Mod*)::{lambda(geode::ModStateEvent*)#1}, std::__ndk1::allocator<geode::modifier::ModifyBase<geode::modifier::ModifyDerive<MyCCLabelBMFont, cocos2d::CCLabelBMFont> >::setHookPriorityBefore(std::__ndk1::basic_string_view<char, std::__ndk1::char_traits<char> >, geode::Mod*)::{lambda(geode::ModStateEvent*)#1}>, void (geode::ModStateEvent*)>::~__func()
PUBLIC 8fcd0 0 std::__ndk1::__function::__func<geode::modifier::ModifyBase<geode::modifier::ModifyDerive<MyCCLabelBMFont, cocos2d::CCLabelBMFont> >::setHookPriorityBefore(std::__ndk1::basic_string_view<char, std::__ndk1::char_traits<char> >, geode::Mod*)::{lambda(geode::ModStateEvent*)#1}, std::__ndk1::allocator<geode::modifier::ModifyBase<geode::modifier::ModifyDerive<MyCCLabelBMFont, cocos2d::CCLabelBMFont> >::setHookPriorityBefore(std::__ndk1::basic_string_view<char, std::__ndk1::char_traits<char> >, geode::Mod*)::{lambda(geode::ModStateEvent*)#1}>, void (geode::ModStateEvent*)>::__clone() const
PUBLIC 8fd08 0 std::__ndk1::__function::__func<geode::modifier::ModifyBase<geode::modifier::ModifyDerive<MyCCLabelBMFont, cocos2d::CCLabelBMFont> >::setHookPriorityBefore(std::__ndk1::basic_string_view<char, std::__ndk1::char_traits<char> >, geode::Mod*)::{lambda(geode::ModStateEvent*)#1}, std::__ndk1::allocator<geode::modifier::ModifyBase<geode::modifier::ModifyDerive<MyCCLabelBMFont, cocos2d::CCLabelBMFont> >::setHookPriorityBefore(std::__ndk1::basic_string_view<char, std::__ndk1::char_traits<char> >, geode::Mod*)::{lambda(geode::ModStateEvent*)#1}>, void (geode::ModStateEvent*)>::__clone(std::__ndk1::__function::__base<void (geode::ModStateEvent*)>*) const
PUBLIC 8fd20 0 std::__ndk1::__function::__func<geode::modifier::ModifyBase<geode::modifier::ModifyDerive<MyCCLabelBMFont, cocos2d::CCLabelBMFont> >::setHookPriorityBefore(std::__ndk1::basic_string_view<char, std::__ndk1::char_traits<char> >, geode::Mod*)::{lambda(geode::ModStateEvent*)#1}, std::__ndk1::allocator<geode::modifier::ModifyBase<geode::modifier::ModifyDerive<MyCCLabelBMFont, cocos2d::CCLabelBMFont> >::setHookPriorityBefore(std::__ndk1::basic_string_view<char, std::__ndk1::char_traits<char> >, geode::Mod*)::{lambda(geode::ModStateEvent*)#1}>, void (geode::ModStateEvent*)>::destroy()
PUBLIC 8fd24 0 std::__ndk1::__function::__func<geode::modifier::ModifyBase<geode::modifier::ModifyDerive<MyCCLabelBMFont, cocos2d::CCLabelBMFont> >::setHookPriorityBefore(std::__ndk1::basic_string_view<char, std::__ndk1::char_traits<char> >, geode::Mod*)::{lambda(geode::ModStateEvent*)#1}, std::__ndk1::allocator<geode::modifier::ModifyBase<geode::modifier::ModifyDerive<MyCCLabelBMFont, cocos2d::CCLabelBMFont> >::setHookPriorityBefore(std::__ndk1::basic_string_view<char, std::__ndk1::char_traits<char> >, geode::Mod*)::{lambda(geode::ModStateEvent*)#1}>, void (geode::ModStateEvent*)>::destroy_deallocate()
PUBLIC 8fd28 0 std::__ndk1::__function::__func<geode::modifier::ModifyBase<geode::modifier::ModifyDerive<MyCCLabelBMFont, cocos2d::CCLabelBMFont> >::setHookPriorityBefore(std::__ndk1::basic_string_view<char, std::__ndk1::char_traits<char> >, geode::Mod*)::{lambda(geode::ModStateEvent*)#1}, std::__ndk1::allocator<geode::modifier::ModifyBase<geode::modifier::ModifyDerive<MyCCLabelBMFont, cocos2d::CCLabelBMFont> >::setHookPriorityBefore(std::__ndk1::basic_string_view<char, std::__ndk1::char_traits<char> >, geode::Mod*)::{lambda(geode::ModStateEvent*)#1}>, void (geode::ModStateEvent*)>::operator()(geode::ModStateEvent*&&)
PUBLIC 8fd34 0 std::__ndk1::__function::__func<geode::modifier::ModifyBase<geode::modifier::ModifyDerive<MyCCLabelBMFont, cocos2d::CCLabelBMFont> >::setHookPriorityBefore(std::__ndk1::basic_string_view<char, std::__ndk1::char_traits<char> >, geode::Mod*)::{lambda(geode::ModStateEvent*)#1}, std::__ndk1::allocator<geode::modifier::ModifyBase<geode::modifier::ModifyDerive<MyCCLabelBMFont, cocos2d::CCLabelBMFont> >::setHookPriorityBefore(std::__ndk1::basic_string_view<char, std::__ndk1::char_traits<char> >, geode::Mod*)::{lambda(geode::ModStateEvent*)#1}>, void (geode::ModStateEvent*)>::target(std::type_info const&) const
PUBLIC 8fd50 0 std::__ndk1::__function::__func<geode::modifier::ModifyBase<geode::modifier::ModifyDerive<MyCCLabelBMFont, cocos2d::CCLabelBMFont> >::setHookPriorityBefore(std::__ndk1::basic_string_view<char, std::__ndk1::char_traits<char> >, geode::Mod*)::{lambda(geode::ModStateEvent*)#1}, std::__ndk1::allocator<geode::modifier::ModifyBase<geode::modifier::ModifyDerive<MyCCLabelBMFont, cocos2d::CCLabelBMFont> >::setHookPriorityBefore(std::__ndk1::basic_string_view<char, std::__ndk1::char_traits<char> >, geode::Mod*)::{lambda(geode::ModStateEvent*)#1}>, void (geode::ModStateEvent*)>::target_type() const
PUBLIC 8fd5c 0 geode::EventListener<geode::ModStateFilter>::getPool() const
PUBLIC 8fd60 0 geode::EventListener<geode::ModStateFilter>::handle(geode::Event*)
PUBLIC 8fed4 0 geode::EventListener<geode::ModStateFilter>::~EventListener()
PUBLIC 8ff30 0 geode::EventListener<geode::ModStateFilter>::~EventListener()
PUBLIC 8ff94 0 std::__ndk1::__variant_detail::__visitation::__base::__dispatcher<(unsigned long)0>::__dispatch[abi:ne180000]<std::__ndk1::__variant_detail::__dtor<std::__ndk1::__variant_detail::__traits<std::__ndk1::monostate, std::__ndk1::basic_string<char, std::__ndk1::char_traits<char>, std::__ndk1::allocator<char> > >, (std::__ndk1::__variant_detail::_Trait)1>::__destroy[abi:ne180000]()::{lambda(auto:1&)#1}, std::__ndk1::__variant_detail::__base<(std::__ndk1::__variant_detail::__traits<std::__ndk1::monostate, std::__ndk1::basic_string<char, std::__ndk1::char_traits<char>, std::__ndk1::allocator<char> > >)1, std::__ndk1::__variant_detail::__traits, std::__ndk1::allocator<char> >&>(std::__ndk1::__variant_detail::__dtor<std::__ndk1::__variant_detail::__traits<std::__ndk1::monostate, std::__ndk1::basic_string<char, std::__ndk1::char_traits<char>, std::__ndk1::allocator<char> > >, (std::__ndk1::__variant_detail::_Trait)1>, std::__ndk1::__variant_detail::__base<(std::__ndk1::__variant_detail::__traits<std::__ndk1::monostate, std::__ndk1::basic_string<char, std::__ndk1::char_traits<char>, std::__ndk1::allocator<char> > >)1, std::__ndk1::__variant_detail::__traits, std::__ndk1::allocator<char> >&)
PUBLIC 8ff98 0 std::__ndk1::__variant_detail::__visitation::__base::__dispatcher<(unsigned long)1>::__dispatch[abi:ne180000]<std::__ndk1::__variant_detail::__dtor<std::__ndk1::__variant_detail::__traits<std::__ndk1::monostate, std::__ndk1::basic_string<char, std::__ndk1::char_traits<char>, std::__ndk1::allocator<char> > >, (std::__ndk1::__variant_detail::_Trait)1>::__destroy[abi:ne180000]()::{lambda(auto:1&)#1}, std::__ndk1::__variant_detail::__base<(std::__ndk1::__variant_detail::__traits<std::__ndk1::monostate, std::__ndk1::basic_string<char, std::__ndk1::char_traits<char>, std::__ndk1::allocator<char> > >)1, std::__ndk1::__variant_detail::__traits, std::__ndk1::allocator<char> >&>(std::__ndk1::__variant_detail::__dtor<std::__ndk1::__variant_detail::__traits<std::__ndk1::monostate, std::__ndk1::basic_string<char, std::__ndk1::char_traits<char>, std::__ndk1::allocator<char> > >, (std::__ndk1::__variant_detail::_Trait)1>, std::__ndk1::__variant_detail::__base<(std::__ndk1::__variant_detail::__traits<std::__ndk1::monostate, std::__ndk1::basic_string<char, std::__ndk1::char_traits<char>, std::__ndk1::allocator<char> > >)1, std::__ndk1::__variant_detail::__traits, std::__ndk1::allocator<char> >&)
PUBLIC 8ffac 0 std::__ndk1::__function::__func<MyCCLabelBMFont::onModify<geode::modifier::ModifyBase<geode::modifier::ModifyDerive<MyCCLabelBMFont, cocos2d::CCLabelBMFont> > >(geode::modifier::ModifyBase<geode::modifier::ModifyDerive<MyCCLabelBMFont, cocos2d::CCLabelBMFont> >&)::{lambda()#2}, std::__ndk1::allocator<MyCCLabelBMFont::onModify<geode::modifier::ModifyBase<geode::modifier::ModifyDerive<MyCCLabelBMFont, cocos2d::CCLabelBMFont> > >(geode::modifier::ModifyBase<geode::modifier::ModifyDerive<MyCCLabelBMFont, cocos2d::CCLabelBMFont> >&)::{lambda()#2}>, void ()>::~__func()
PUBLIC 8ffb0 0 std::__ndk1::__function::__func<MyCCLabelBMFont::onModify<geode::modifier::ModifyBase<geode::modifier::ModifyDerive<MyCCLabelBMFont, cocos2d::CCLabelBMFont> > >(geode::modifier::ModifyBase<geode::modifier::ModifyDerive<MyCCLabelBMFont, cocos2d::CCLabelBMFont> >&)::{lambda()#2}, std::__ndk1::allocator<MyCCLabelBMFont::onModify<geode::modifier::ModifyBase<geode::modifier::ModifyDerive<MyCCLabelBMFont, cocos2d::CCLabelBMFont> > >(geode::modifier::ModifyBase<geode::modifier::ModifyDerive<MyCCLabelBMFont, cocos2d::CCLabelBMFont> >&)::{lambda()#2}>, void ()>::__clone() const
PUBLIC 8ffe4 0 std::__ndk1::__function::__func<MyCCLabelBMFont::onModify<geode::modifier::ModifyBase<geode::modifier::ModifyDerive<MyCCLabelBMFont, cocos2d::CCLabelBMFont> > >(geode::modifier::ModifyBase<geode::modifier::ModifyDerive<MyCCLabelBMFont, cocos2d::CCLabelBMFont> >&)::{lambda()#2}, std::__ndk1::allocator<MyCCLabelBMFont::onModify<geode::modifier::ModifyBase<geode::modifier::ModifyDerive<MyCCLabelBMFont, cocos2d::CCLabelBMFont> > >(geode::modifier::ModifyBase<geode::modifier::ModifyDerive<MyCCLabelBMFont, cocos2d::CCLabelBMFont> >&)::{lambda()#2}>, void ()>::__clone(std::__ndk1::__function::__base<void ()>*) const
PUBLIC 8fff8 0 std::__ndk1::__function::__func<MyCCLabelBMFont::onModify<geode::modifier::ModifyBase<geode::modifier::ModifyDerive<MyCCLabelBMFont, cocos2d::CCLabelBMFont> > >(geode::modifier::ModifyBase<geode::modifier::ModifyDerive<MyCCLabelBMFont, cocos2d::CCLabelBMFont> >&)::{lambda()#2}, std::__ndk1::allocator<MyCCLabelBMFont::onModify<geode::modifier::ModifyBase<geode::modifier::ModifyDerive<MyCCLabelBMFont, cocos2d::CCLabelBMFont> > >(geode::modifier::ModifyBase<geode::modifier::ModifyDerive<MyCCLabelBMFont, cocos2d::CCLabelBMFont> >&)::{lambda()#2}>, void ()>::destroy()
PUBLIC 8fffc 0 std::__ndk1::__function::__func<MyCCLabelBMFont::onModify<geode::modifier::ModifyBase<geode::modifier::ModifyDerive<MyCCLabelBMFont, cocos2d::CCLabelBMFont> > >(geode::modifier::ModifyBase<geode::modifier::ModifyDerive<MyCCLabelBMFont, cocos2d::CCLabelBMFont> >&)::{lambda()#2}, std::__ndk1::allocator<MyCCLabelBMFont::onModify<geode::modifier::ModifyBase<geode::modifier::ModifyDerive<MyCCLabelBMFont, cocos2d::CCLabelBMFont> > >(geode::modifier::ModifyBase<geode::modifier::ModifyDerive<MyCCLabelBMFont, cocos2d::CCLabelBMFont> >&)::{lambda()#2}>, void ()>::destroy_deallocate()
PUBLIC 90000 0 std::__ndk1::__function::__func<MyCCLabelBMFont::onModify<geode::modifier::ModifyBase<geode::modifier::ModifyDerive<MyCCLabelBMFont, cocos2d::CCLabelBMFont> > >(geode::modifier::ModifyBase<geode::modifier::ModifyDerive<MyCCLabelBMFont, cocos2d::CCLabelBMFont> >&)::{lambda()#2}, std::__ndk1::allocator<MyCCLabelBMFont::onModify<geode::modifier::ModifyBase<geode::modifier::ModifyDerive<MyCCLabelBMFont, cocos2d::CCLabelBMFont> > >(geode::modifier::ModifyBase<geode::modifier::ModifyDerive<MyCCLabelBMFont, cocos2d::CCLabelBMFont> >&)::{lambda()#2}>, void ()>::operator()()
PUBLIC 90008 0 std::__ndk1::__function::__func<MyCCLabelBMFont::onModify<geode::modifier::ModifyBase<geode::modifier::ModifyDerive<MyCCLabelBMFont, cocos2d::CCLabelBMFont> > >(geode::modifier::ModifyBase<geode::modifier::ModifyDerive<MyCCLabelBMFont, cocos2d::CCLabelBMFont> >&)::{lambda()#2}, std::__ndk1::allocator<MyCCLabelBMFont::onModify<geode::modifier::ModifyBase<geode::modifier::ModifyDerive<MyCCLabelBMFont, cocos2d::CCLabelBMFont> > >(geode::modifier::ModifyBase<geode::modifier::ModifyDerive<MyCCLabelBMFont, cocos2d::CCLabelBMFont> >&)::{lambda()#2}>, void ()>::target(std::type_info const&) const
PUBLIC 90024 0 std::__ndk1::__function::__func<MyCCLabelBMFont::onModify<geode::modifier::ModifyBase<geode::modifier::ModifyDerive<MyCCLabelBMFont, cocos2d::CCLabelBMFont> > >(geode::modifier::ModifyBase<geode::modifier::ModifyDerive<MyCCLabelBMFont, cocos2d::CCLabelBMFont> >&)::{lambda()#2}, std::__ndk1::allocator<MyCCLabelBMFont::onModify<geode::modifier::ModifyBase<geode::modifier::ModifyDerive<MyCCLabelBMFont, cocos2d::CCLabelBMFont> > >(geode::modifier::ModifyBase<geode::modifier::ModifyDerive<MyCCLabelBMFont, cocos2d::CCLabelBMFont> >&)::{lambda()#2}>, void ()>::target_type() const
PUBLIC 90030 0 MyCCLabelBMFont::onModify<geode::modifier::ModifyBase<geode::modifier::ModifyDerive<MyCCLabelBMFont, cocos2d::CCLabelBMFont> > >(geode::modifier::ModifyBase<geode::modifier::ModifyDerive<MyCCLabelBMFont, cocos2d::CCLabelBMFont> >&)::{lambda()#2}::operator()() const
PUBLIC 9017c 0 std::__ndk1::__function::__func<MyCCLabelBMFont::onModify<geode::modifier::ModifyBase<geode::modifier::ModifyDerive<MyCCLabelBMFont, cocos2d::CCLabelBMFont> > >(geode::modifier::ModifyBase<geode::modifier::ModifyDerive<MyCCLabelBMFont, cocos2d::CCLabelBMFont> >&)::{lambda()#3}, std::__ndk1::allocator<MyCCLabelBMFont::onModify<geode::modifier::ModifyBase<geode::modifier::ModifyDerive<MyCCLabelBMFont, cocos2d::CCLabelBMFont> > >(geode::modifier::ModifyBase<geode::modifier::ModifyDerive<MyCCLabelBMFont, cocos2d::CCLabelBMFont> >&)::{lambda()#3}>, void ()>::~__func()
PUBLIC 90180 0 std::__ndk1::__function::__func<MyCCLabelBMFont::onModify<geode::modifier::ModifyBase<geode::modifier::ModifyDerive<MyCCLabelBMFont, cocos2d::CCLabelBMFont> > >(geode::modifier::ModifyBase<geode::modifier::ModifyDerive<MyCCLabelBMFont, cocos2d::CCLabelBMFont> >&)::{lambda()#3}, std::__ndk1::allocator<MyCCLabelBMFont::onModify<geode::modifier::ModifyBase<geode::modifier::ModifyDerive<MyCCLabelBMFont, cocos2d::CCLabelBMFont> > >(geode::modifier::ModifyBase<geode::modifier::ModifyDerive<MyCCLabelBMFont, cocos2d::CCLabelBMFont> >&)::{lambda()#3}>, void ()>::__clone() const
PUBLIC 901b4 0 std::__ndk1::__function::__func<MyCCLabelBMFont::onModify<geode::modifier::ModifyBase<geode::modifier::ModifyDerive<MyCCLabelBMFont, cocos2d::CCLabelBMFont> > >(geode::modifier::ModifyBase<geode::modifier::ModifyDerive<MyCCLabelBMFont, cocos2d::CCLabelBMFont> >&)::{lambda()#3}, std::__ndk1::allocator<MyCCLabelBMFont::onModify<geode::modifier::ModifyBase<geode::modifier::ModifyDerive<MyCCLabelBMFont, cocos2d::CCLabelBMFont> > >(geode::modifier::ModifyBase<geode::modifier::ModifyDerive<MyCCLabelBMFont, cocos2d::CCLabelBMFont> >&)::{lambda()#3}>, void ()>::__clone(std::__ndk1::__function::__base<void ()>*) const
PUBLIC 901c8 0 std::__ndk1::__function::__func<MyCCLabelBMFont::onModify<geode::modifier::ModifyBase<geode::modifier::ModifyDerive<MyCCLabelBMFont, cocos2d::CCLabelBMFont> > >(geode::modifier::ModifyBase<geode::modifier::ModifyDerive<MyCCLabelBMFont, cocos2d::CCLabelBMFont> >&)::{lambda()#3}, std::__ndk1::allocator<MyCCLabelBMFont::onModify<geode::modifier::ModifyBase<geode::modifier::ModifyDerive<MyCCLabelBMFont, cocos2d::CCLabelBMFont> > >(geode::modifier::ModifyBase<geode::modifier::ModifyDerive<MyCCLabelBMFont, cocos2d::CCLabelBMFont> >&)::{lambda()#3}>, void ()>::destroy()
PUBLIC 901cc 0 std::__ndk1::__function::__func<MyCCLabelBMFont::onModify<geode::modifier::ModifyBase<geode::modifier::ModifyDerive<MyCCLabelBMFont, cocos2d::CCLabelBMFont> > >(geode::modifier::ModifyBase<geode::modifier::ModifyDerive<MyCCLabelBMFont, cocos2d::CCLabelBMFont> >&)::{lambda()#3}, std::__ndk1::allocator<MyCCLabelBMFont::onModify<geode::modifier::ModifyBase<geode::modifier::ModifyDerive<MyCCLabelBMFont, cocos2d::CCLabelBMFont> > >(geode::modifier::ModifyBase<geode::modifier::ModifyDerive<MyCCLabelBMFont, cocos2d::CCLabelBMFont> >&)::{lambda()#3}>, void ()>::destroy_deallocate()
PUBLIC 901d0 0 std::__ndk1::__function::__func<MyCCLabelBMFont::onModify<geode::modifier::ModifyBase<geode::modifier::ModifyDerive<MyCCLabelBMFont, cocos2d::CCLabelBMFont> > >(geode::modifier::ModifyBase<geode::modifier::ModifyDerive<MyCCLabelBMFont, cocos2d::CCLabelBMFont> >&)::{lambda()#3}, std::__ndk1::allocator<MyCCLabelBMFont::onModify<geode::modifier::ModifyBase<geode::modifier::ModifyDerive<MyCCLabelBMFont, cocos2d::CCLabelBMFont> > >(geode::modifier::ModifyBase<geode::modifier::ModifyDerive<MyCCLabelBMFont, cocos2d::CCLabelBMFont> >&)::{lambda()#3}>, void ()>::operator()()
PUBLIC 901d8 0 std::__ndk1::__function::__func<MyCCLabelBMFont::onModify<geode::modifier::ModifyBase<geode::modifier::ModifyDerive<MyCCLabelBMFont, cocos2d::CCLabelBMFont> > >(geode::modifier::ModifyBase<geode::modifier::ModifyDerive<MyCCLabelBMFont, cocos2d::CCLabelBMFont> >&)::{lambda()#3}, std::__ndk1::allocator<MyCCLabelBMFont::onModify<geode::modifier::ModifyBase<geode::modifier::ModifyDerive<MyCCLabelBMFont, cocos2d::CCLabelBMFont> > >(geode::modifier::ModifyBase<geode::modifier::ModifyDerive<MyCCLabelBMFont, cocos2d::CCLabelBMFont> >&)::{lambda()#3}>, void ()>::target(std::type_info const&) const
PUBLIC 901f4 0 std::__ndk1::__function::__func<MyCCLabelBMFont::onModify<geode::modifier::ModifyBase<geode::modifier::ModifyDerive<MyCCLabelBMFont, cocos2d::CCLabelBMFont> > >(geode::modifier::ModifyBase<geode::modifier::ModifyDerive<MyCCLabelBMFont, cocos2d::CCLabelBMFont> >&)::{lambda()#3}, std::__ndk1::allocator<MyCCLabelBMFont::onModify<geode::modifier::ModifyBase<geode::modifier::ModifyDerive<MyCCLabelBMFont, cocos2d::CCLabelBMFont> > >(geode::modifier::ModifyBase<geode::modifier::ModifyDerive<MyCCLabelBMFont, cocos2d::CCLabelBMFont> >&)::{lambda()#3}>, void ()>::target_type() const
PUBLIC 90200 0 MyCCLabelBMFont::onModify<geode::modifier::ModifyBase<geode::modifier::ModifyDerive<MyCCLabelBMFont, cocos2d::CCLabelBMFont> > >(geode::modifier::ModifyBase<geode::modifier::ModifyDerive<MyCCLabelBMFont, cocos2d::CCLabelBMFont> >&)::{lambda()#3}::operator()() const
PUBLIC 9034c 0 std::__ndk1::__variant_detail::__visitation::__base::__dispatcher<(unsigned long)0>::__dispatch[abi:ne180000]<std::__ndk1::__variant_detail::__dtor<std::__ndk1::__variant_detail::__traits<geode::Hook*, std::__ndk1::basic_string<char, std::__ndk1::char_traits<char>, std::__ndk1::allocator<char> > >, (std::__ndk1::__variant_detail::_Trait)1>::__destroy[abi:ne180000]()::{lambda(auto:1&)#1}, std::__ndk1::__variant_detail::__base<(std::__ndk1::__variant_detail::__traits<geode::Hook*, std::__ndk1::basic_string<char, std::__ndk1::char_traits<char>, std::__ndk1::allocator<char> > >)1, geode::Hook, std::__ndk1::allocator<char> >&>(std::__ndk1::__variant_detail::__dtor<std::__ndk1::__variant_detail::__traits<geode::Hook*, std::__ndk1::basic_string<char, std::__ndk1::char_traits<char>, std::__ndk1::allocator<char> > >, (std::__ndk1::__variant_detail::_Trait)1>, std::__ndk1::__variant_detail::__base<(std::__ndk1::__variant_detail::__traits<geode::Hook*, std::__ndk1::basic_string<char, std::__ndk1::char_traits<char>, std::__ndk1::allocator<char> > >)1, geode::Hook, std::__ndk1::allocator<char> >&)
PUBLIC 90350 0 std::__ndk1::__variant_detail::__visitation::__base::__dispatcher<(unsigned long)1>::__dispatch[abi:ne180000]<std::__ndk1::__variant_detail::__dtor<std::__ndk1::__variant_detail::__traits<geode::Hook*, std::__ndk1::basic_string<char, std::__ndk1::char_traits<char>, std::__ndk1::allocator<char> > >, (std::__ndk1::__variant_detail::_Trait)1>::__destroy[abi:ne180000]()::{lambda(auto:1&)#1}, std::__ndk1::__variant_detail::__base<(std::__ndk1::__variant_detail::__traits<geode::Hook*, std::__ndk1::basic_string<char, std::__ndk1::char_traits<char>, std::__ndk1::allocator<char> > >)1, geode::Hook, std::__ndk1::allocator<char> >&>(std::__ndk1::__variant_detail::__dtor<std::__ndk1::__variant_detail::__traits<geode::Hook*, std::__ndk1::basic_string<char, std::__ndk1::char_traits<char>, std::__ndk1::allocator<char> > >, (std::__ndk1::__variant_detail::_Trait)1>, std::__ndk1::__variant_detail::__base<(std::__ndk1::__variant_detail::__traits<geode::Hook*, std::__ndk1::basic_string<char, std::__ndk1::char_traits<char>, std::__ndk1::allocator<char> > >)1, geode::Hook, std::__ndk1::allocator<char> >&)
PUBLIC 90364 0 std::__ndk1::__tree<std::__ndk1::__value_type<std::__ndk1::basic_string<char, std::__ndk1::char_traits<char>, std::__ndk1::allocator<char> >, std::__ndk1::shared_ptr<geode::Hook> >, std::__ndk1::__map_value_compare<std::__ndk1::basic_string<char, std::__ndk1::char_traits<char>, std::__ndk1::allocator<char> >, std::__ndk1::__value_type<std::__ndk1::basic_string<char, std::__ndk1::char_traits<char>, std::__ndk1::allocator<char> >, std::__ndk1::shared_ptr<geode::Hook> >, std::__ndk1::less<std::__ndk1::basic_string<char, std::__ndk1::char_traits<char>, std::__ndk1::allocator<char> > >, true>, std::__ndk1::allocator<std::__ndk1::__value_type<std::__ndk1::basic_string<char, std::__ndk1::char_traits<char>, std::__ndk1::allocator<char> >, std::__ndk1::shared_ptr<geode::Hook> > > >::erase(std::__ndk1::__tree_const_iterator<std::__ndk1::__value_type<std::__ndk1::basic_string<char, std::__ndk1::char_traits<char>, std::__ndk1::allocator<char> >, std::__ndk1::shared_ptr<geode::Hook> >, std::__ndk1::__tree_node<std::__ndk1::__value_type<std::__ndk1::basic_string<char, std::__ndk1::char_traits<char>, std::__ndk1::allocator<char> >, std::__ndk1::shared_ptr<geode::Hook> >, void*>*, long>)
PUBLIC 90438 0 std::__ndk1::__tree_remove[abi:ne180000]<std::__ndk1::__tree_node_base<void*>*>(std::__ndk1::__tree_node_base<void*>*, std::__ndk1::__tree_node_base<void*>*)
PUBLIC 90800 0 std::__ndk1::__tree<std::__ndk1::__value_type<std::__ndk1::basic_string<char, std::__ndk1::char_traits<char>, std::__ndk1::allocator<char> >, std::__ndk1::shared_ptr<geode::Hook> >, std::__ndk1::__map_value_compare<std::__ndk1::basic_string<char, std::__ndk1::char_traits<char>, std::__ndk1::allocator<char> >, std::__ndk1::__value_type<std::__ndk1::basic_string<char, std::__ndk1::char_traits<char>, std::__ndk1::allocator<char> >, std::__ndk1::shared_ptr<geode::Hook> >, std::__ndk1::less<std::__ndk1::basic_string<char, std::__ndk1::char_traits<char>, std::__ndk1::allocator<char> > >, true>, std::__ndk1::allocator<std::__ndk1::__value_type<std::__ndk1::basic_string<char, std::__ndk1::char_traits<char>, std::__ndk1::allocator<char> >, std::__ndk1::shared_ptr<geode::Hook> > > >::destroy(std::__ndk1::__tree_node<std::__ndk1::__value_type<std::__ndk1::basic_string<char, std::__ndk1::char_traits<char>, std::__ndk1::allocator<char> >, std::__ndk1::shared_ptr<geode::Hook> >, void*>*)
PUBLIC 9088c 0 geode::Hook::create<cocos2d::CCLabelBMFont* (*)(char const*, char const*, float, cocos2d::CCTextAlignment, cocos2d::CCPoint)>(void*, cocos2d::CCLabelBMFont* (*)(char const*, char const*, float, cocos2d::CCTextAlignment, cocos2d::CCPoint), std::__ndk1::basic_string<char, std::__ndk1::char_traits<char>, std::__ndk1::allocator<char> > const&, tulip::hook::TulipConvention, tulip::hook::HookMetadata const&)
PUBLIC 909a4 0 geode::modifier::AsStaticFunction_create<MyCCLabelBMFont, cocos2d::CCLabelBMFont* (*)(char const*, char const*, float, cocos2d::CCTextAlignment, cocos2d::CCPoint)>::Impl<cocos2d::CCLabelBMFont* (*)(char const*, char const*, float, cocos2d::CCTextAlignment, cocos2d::CCPoint)>::function(char const*, char const*, float, cocos2d::CCTextAlignment, cocos2d::CCPoint)
PUBLIC 909f4 0 geode::Hook::create<void (*)(MyCCLabelBMFont*, float, float, float)>(void*, void (*)(MyCCLabelBMFont*, float, float, float), std::__ndk1::basic_string<char, std::__ndk1::char_traits<char>, std::__ndk1::allocator<char> > const&, tulip::hook::TulipConvention, tulip::hook::HookMetadata const&)
PUBLIC 90b0c 0 geode::modifier::AsStaticFunction_limitLabelWidth<MyCCLabelBMFont, void (MyCCLabelBMFont::*)(float, float, float)>::Impl<void (MyCCLabelBMFont::*)(float, float, float)>::function(MyCCLabelBMFont*, float, float, float)
PUBLIC 90b8c 0 geode::Hook::create<void (*)(MyCCLabelBMFont*, char const*, bool)>(void*, void (*)(MyCCLabelBMFont*, char const*, bool), std::__ndk1::basic_string<char, std::__ndk1::char_traits<char>, std::__ndk1::allocator<char> > const&, tulip::hook::TulipConvention, tulip::hook::HookMetadata const&)
PUBLIC 90ca4 0 geode::modifier::AsStaticFunction_setString<MyCCLabelBMFont, void (MyCCLabelBMFont::*)(char const*, bool)>::Impl<void (MyCCLabelBMFont::*)(char const*, bool)>::function(MyCCLabelBMFont*, char const*, bool)
PUBLIC 90ca8 0 tulip::hook::AbstractFunction::from<cocos2d::CCLabelBMFont*, char const*, char const*, float, cocos2d::CCTextAlignment, cocos2d::CCPoint>(cocos2d::CCLabelBMFont* (*)(char const*, char const*, float, cocos2d::CCTextAlignment, cocos2d::CCPoint))
PUBLIC 91064 0 std::__ndk1::shared_ptr<tulip::hook::CallingConvention>::~shared_ptr[abi:ne180000]()
PUBLIC 910b4 0 tulip::hook::HandlerMetadata::~HandlerMetadata()
PUBLIC 91118 0 std::__ndk1::vector<tulip::hook::AbstractType, std::__ndk1::allocator<tulip::hook::AbstractType> >::__throw_length_error[abi:ne180000]() const
PUBLIC 9112c 0 MyCCLabelBMFont::create(char const*, char const*, float, cocos2d::CCTextAlignment, cocos2d::CCPoint)
PUBLIC 91208 0 geode::Mod::getSettingValue<bool>(std::__ndk1::basic_string_view<char, std::__ndk1::char_traits<char> >) const
PUBLIC 9133c 0 MyCCLabelBMFont::checkParent(float)
PUBLIC 91438 0 std::__ndk1::__tree<std::__ndk1::__value_type<std::__ndk1::basic_string<char, std::__ndk1::char_traits<char>, std::__ndk1::allocator<char> >, std::__ndk1::shared_ptr<geode::Hook> >, std::__ndk1::__map_value_compare<std::__ndk1::basic_string<char, std::__ndk1::char_traits<char>, std::__ndk1::allocator<char> >, std::__ndk1::__value_type<std::__ndk1::basic_string<char, std::__ndk1::char_traits<char>, std::__ndk1::allocator<char> >, std::__ndk1::shared_ptr<geode::Hook> >, std::__ndk1::less<std::__ndk1::basic_string<char, std::__ndk1::char_traits<char>, std::__ndk1::allocator<char> > >, true>, std::__ndk1::allocator<std::__ndk1::__value_type<std::__ndk1::basic_string<char, std::__ndk1::char_traits<char>, std::__ndk1::allocator<char> >, std::__ndk1::shared_ptr<geode::Hook> > > >::__emplace_unique_key_args<std::__ndk1::basic_string<char, std::__ndk1::char_traits<char>, std::__ndk1::allocator<char> >, std::__ndk1::piecewise_construct_t const&, std::__ndk1::tuple<std::__ndk1::basic_string<char, std::__ndk1::char_traits<char>, std::__ndk1::allocator<char> >&&>, std::__ndk1::tuple<> >(std::__ndk1::basic_string<char, std::__ndk1::char_traits<char>, std::__ndk1::allocator<char> > const&, std::__ndk1::piecewise_construct_t const&, std::__ndk1::tuple<std::__ndk1::basic_string<char, std::__ndk1::char_traits<char>, std::__ndk1::allocator<char> >&&>, std::__ndk1::tuple<>)
PUBLIC 915b0 0 tulip::hook::AbstractFunction::from<void, MyCCLabelBMFont*, float, float, float>(void (*)(MyCCLabelBMFont*, float, float, float))
PUBLIC 91894 0 geode::addresser::Addresser::addressOfVirtual<void, cocos2d::CCLabelBMFont, char const*, bool>(void (cocos2d::CCLabelBMFont::*)(char const*, bool))
PUBLIC 91980 0 cocos2d::CCLabelBMFont::CCLabelBMFont(geode::ZeroConstructorType)
PUBLIC 91a64 0 tulip::hook::AbstractFunction::from<void, MyCCLabelBMFont*, char const*, bool>(void (*)(MyCCLabelBMFont*, char const*, bool))
PUBLIC 91b70 0 MyCCLabelBMFont::setString(char const*, bool)
PUBLIC 91d74 0 MyCCLabelBMFont::riftString(std::__ndk1::basic_string<char, std::__ndk1::char_traits<char>, std::__ndk1::allocator<char> >)
PUBLIC 92130 0 geode::impl::ResultData<std::__ndk1::basic_string<char, std::__ndk1::char_traits<char>, std::__ndk1::allocator<char> >, rift::RuntimeError>::~ResultData()
PUBLIC 921a4 0 std::__ndk1::__variant_detail::__visitation::__base::__dispatcher<(unsigned long)0>::__dispatch[abi:ne180000]<std::__ndk1::__variant_detail::__dtor<std::__ndk1::__variant_detail::__traits<std::__ndk1::unique_ptr<rift::Script, std::__ndk1::default_delete<rift> >, std::__ndk1::unique_ptr::CompileError>, (std::__ndk1::__variant_detail::_Trait)1>::__destroy[abi:ne180000]()::{lambda(auto:1&)#1}, std::__ndk1::__variant_detail::__base<(std::__ndk1::__variant_detail::__traits<std::__ndk1::unique_ptr<rift::Script, std::__ndk1::default_delete<rift> >, std::__ndk1::unique_ptr::CompileError>)1, std::__ndk1::default_delete<rift>, std::__ndk1::unique_ptr<rift::Script, std::__ndk1::default_delete<rift> > >&>(std::__ndk1::__variant_detail::__dtor<std::__ndk1::__variant_detail::__traits<std::__ndk1::unique_ptr<rift::Script, std::__ndk1::default_delete<rift> >, std::__ndk1::unique_ptr::CompileError>, (std::__ndk1::__variant_detail::_Trait)1>, std::__ndk1::__variant_detail::__base<(std::__ndk1::__variant_detail::__traits<std::__ndk1::unique_ptr<rift::Script, std::__ndk1::default_delete<rift> >, std::__ndk1::unique_ptr::CompileError>)1, std::__ndk1::default_delete<rift>, std::__ndk1::unique_ptr<rift::Script, std::__ndk1::default_delete<rift> > >&)
PUBLIC 921f0 0 std::__ndk1::__variant_detail::__visitation::__base::__dispatcher<(unsigned long)1>::__dispatch[abi:ne180000]<std::__ndk1::__variant_detail::__dtor<std::__ndk1::__variant_detail::__traits<std::__ndk1::unique_ptr<rift::Script, std::__ndk1::default_delete<rift> >, std::__ndk1::unique_ptr::CompileError>, (std::__ndk1::__variant_detail::_Trait)1>::__destroy[abi:ne180000]()::{lambda(auto:1&)#1}, std::__ndk1::__variant_detail::__base<(std::__ndk1::__variant_detail::__traits<std::__ndk1::unique_ptr<rift::Script, std::__ndk1::default_delete<rift> >, std::__ndk1::unique_ptr::CompileError>)1, std::__ndk1::default_delete<rift>, std::__ndk1::unique_ptr<rift::Script, std::__ndk1::default_delete<rift> > >&>(std::__ndk1::__variant_detail::__dtor<std::__ndk1::__variant_detail::__traits<std::__ndk1::unique_ptr<rift::Script, std::__ndk1::default_delete<rift> >, std::__ndk1::unique_ptr::CompileError>, (std::__ndk1::__variant_detail::_Trait)1>, std::__ndk1::__variant_detail::__base<(std::__ndk1::__variant_detail::__traits<std::__ndk1::unique_ptr<rift::Script, std::__ndk1::default_delete<rift> >, std::__ndk1::unique_ptr::CompileError>)1, std::__ndk1::default_delete<rift>, std::__ndk1::unique_ptr<rift::Script, std::__ndk1::default_delete<rift> > >&)
PUBLIC 92234 0 std::__ndk1::__variant_detail::__visitation::__base::__dispatcher<(unsigned long)0>::__dispatch[abi:ne180000]<std::__ndk1::__variant_detail::__dtor<std::__ndk1::__variant_detail::__traits<std::__ndk1::basic_string<char, std::__ndk1::char_traits<char>, std::__ndk1::allocator<char> >, rift::RuntimeError>, (std::__ndk1::__variant_detail::_Trait)1>::__destroy[abi:ne180000]()::{lambda(auto:1&)#1}, std::__ndk1::__variant_detail::__base<(std::__ndk1::__variant_detail::__traits<std::__ndk1::basic_string<char, std::__ndk1::char_traits<char>, std::__ndk1::allocator<char> >, rift::RuntimeError>)1, std::__ndk1::allocator<char>, rift>&>(std::__ndk1::__variant_detail::__dtor<std::__ndk1::__variant_detail::__traits<std::__ndk1::basic_string<char, std::__ndk1::char_traits<char>, std::__ndk1::allocator<char> >, rift::RuntimeError>, (std::__ndk1::__variant_detail::_Trait)1>, std::__ndk1::__variant_detail::__base<(std::__ndk1::__variant_detail::__traits<std::__ndk1::basic_string<char, std::__ndk1::char_traits<char>, std::__ndk1::allocator<char> >, rift::RuntimeError>)1, std::__ndk1::allocator<char>, rift>&)
PUBLIC 92248 0 std::__ndk1::__variant_detail::__visitation::__base::__dispatcher<(unsigned long)1>::__dispatch[abi:ne180000]<std::__ndk1::__variant_detail::__dtor<std::__ndk1::__variant_detail::__traits<std::__ndk1::basic_string<char, std::__ndk1::char_traits<char>, std::__ndk1::allocator<char> >, rift::RuntimeError>, (std::__ndk1::__variant_detail::_Trait)1>::__destroy[abi:ne180000]()::{lambda(auto:1&)#1}, std::__ndk1::__variant_detail::__base<(std::__ndk1::__variant_detail::__traits<std::__ndk1::basic_string<char, std::__ndk1::char_traits<char>, std::__ndk1::allocator<char> >, rift::RuntimeError>)1, std::__ndk1::allocator<char>, rift>&>(std::__ndk1::__variant_detail::__dtor<std::__ndk1::__variant_detail::__traits<std::__ndk1::basic_string<char, std::__ndk1::char_traits<char>, std::__ndk1::allocator<char> >, rift::RuntimeError>, (std::__ndk1::__variant_detail::_Trait)1>, std::__ndk1::__variant_detail::__base<(std::__ndk1::__variant_detail::__traits<std::__ndk1::basic_string<char, std::__ndk1::char_traits<char>, std::__ndk1::allocator<char> >, rift::RuntimeError>)1, std::__ndk1::allocator<char>, rift>&)
PUBLIC 9225c 0 std::__ndk1::__function::__func<geodeExecFunction58<(anonymous namespace)::ExecFuncUnique58>()::{lambda()#1}, std::__ndk1::allocator<geodeExecFunction58<(anonymous namespace)::ExecFuncUnique58>()::{lambda()#1}>, void ()>::~__func()
PUBLIC 92260 0 std::__ndk1::__function::__func<geodeExecFunction58<(anonymous namespace)::ExecFuncUnique58>()::{lambda()#1}, std::__ndk1::allocator<geodeExecFunction58<(anonymous namespace)::ExecFuncUnique58>()::{lambda()#1}>, void ()>::__clone() const
PUBLIC 92284 0 std::__ndk1::__function::__func<geodeExecFunction58<(anonymous namespace)::ExecFuncUnique58>()::{lambda()#1}, std::__ndk1::allocator<geodeExecFunction58<(anonymous namespace)::ExecFuncUnique58>()::{lambda()#1}>, void ()>::__clone(std::__ndk1::__function::__base<void ()>*) const
PUBLIC 92294 0 std::__ndk1::__function::__func<geodeExecFunction58<(anonymous namespace)::ExecFuncUnique58>()::{lambda()#1}, std::__ndk1::allocator<geodeExecFunction58<(anonymous namespace)::ExecFuncUnique58>()::{lambda()#1}>, void ()>::destroy()
PUBLIC 92298 0 std::__ndk1::__function::__func<geodeExecFunction58<(anonymous namespace)::ExecFuncUnique58>()::{lambda()#1}, std::__ndk1::allocator<geodeExecFunction58<(anonymous namespace)::ExecFuncUnique58>()::{lambda()#1}>, void ()>::destroy_deallocate()
PUBLIC 9229c 0 std::__ndk1::__function::__func<geodeExecFunction58<(anonymous namespace)::ExecFuncUnique58>()::{lambda()#1}, std::__ndk1::allocator<geodeExecFunction58<(anonymous namespace)::ExecFuncUnique58>()::{lambda()#1}>, void ()>::operator()()
PUBLIC 92330 0 std::__ndk1::__function::__func<geodeExecFunction58<(anonymous namespace)::ExecFuncUnique58>()::{lambda()#1}, std::__ndk1::allocator<geodeExecFunction58<(anonymous namespace)::ExecFuncUnique58>()::{lambda()#1}>, void ()>::target(std::type_info const&) const
PUBLIC 9234c 0 std::__ndk1::__function::__func<geodeExecFunction58<(anonymous namespace)::ExecFuncUnique58>()::{lambda()#1}, std::__ndk1::allocator<geodeExecFunction58<(anonymous namespace)::ExecFuncUnique58>()::{lambda()#1}>, void ()>::target_type() const
PUBLIC 92358 0 SceneHandler::~SceneHandler()
PUBLIC 923ac 0 SceneHandler::~SceneHandler()
PUBLIC 92408 0 SceneHandler::update(float)
PUBLIC 924e8 0 SceneHandler::checkForUpdates(cocos2d::CCScene*)
PUBLIC 92888 0 std::__ndk1::__hash_table<cocos2d::CCNode*, std::__ndk1::hash<cocos2d::CCNode*>, std::__ndk1::equal_to<cocos2d::CCNode*>, std::__ndk1::allocator<cocos2d::CCNode*> >::find<cocos2d::CCNode*>(cocos2d::CCNode* const&)
PUBLIC 92998 0 std::__ndk1::__hash_table<cocos2d::CCNode*, std::__ndk1::hash<cocos2d::CCNode*>, std::__ndk1::equal_to<cocos2d::CCNode*>, std::__ndk1::allocator<cocos2d::CCNode*> >::__emplace_unique_key_args<cocos2d::CCNode*, cocos2d::CCNode* const&>(cocos2d::CCNode* const&, cocos2d::CCNode* const&)
PUBLIC 92cf4 0 std::__ndk1::__hash_table<cocos2d::CCNode*, std::__ndk1::hash<cocos2d::CCNode*>, std::__ndk1::equal_to<cocos2d::CCNode*>, std::__ndk1::allocator<cocos2d::CCNode*> >::__do_rehash<true>(unsigned long)
PUBLIC 92ea0 0 geode::modifier::ModifyBase<geode::modifier::ModifyDerive<EventCCMenuItemSpriteExtra, CCMenuItemSpriteExtra> >::ModifyBase()
PUBLIC 9329c 0 geode::modifier::ModifyDerive<EventCCMenuItemSpriteExtra, CCMenuItemSpriteExtra>::apply()
PUBLIC 93934 0 geode::modifier::ModifyBase<geode::modifier::ModifyDerive<EventCCMenuItemSpriteExtra, CCMenuItemSpriteExtra> >::apply()
PUBLIC 93938 0 geode::Hook::create<void (*)(EventCCMenuItemSpriteExtra*)>(void*, void (*)(EventCCMenuItemSpriteExtra*), std::__ndk1::basic_string<char, std::__ndk1::char_traits<char>, std::__ndk1::allocator<char> > const&, tulip::hook::TulipConvention, tulip::hook::HookMetadata const&)
PUBLIC 93a6c 0 geode::modifier::AsStaticFunction_activate<EventCCMenuItemSpriteExtra, void (EventCCMenuItemSpriteExtra::*)()>::Impl<void (EventCCMenuItemSpriteExtra::*)()>::function(EventCCMenuItemSpriteExtra*)
PUBLIC 93a70 0 geode::modifier::AsStaticFunction_selected<EventCCMenuItemSpriteExtra, void (EventCCMenuItemSpriteExtra::*)()>::Impl<void (EventCCMenuItemSpriteExtra::*)()>::function(EventCCMenuItemSpriteExtra*)
PUBLIC 93a74 0 geode::modifier::AsStaticFunction_unselected<EventCCMenuItemSpriteExtra, void (EventCCMenuItemSpriteExtra::*)()>::Impl<void (EventCCMenuItemSpriteExtra::*)()>::function(EventCCMenuItemSpriteExtra*)
PUBLIC 93a78 0 geode::addresser::Addresser::addressOfVirtual<void, CCMenuItemSpriteExtra, >(void (CCMenuItemSpriteExtra::*)())
PUBLIC 93b64 0 CCMenuItemSpriteExtra::CCMenuItemSpriteExtra(geode::ZeroConstructorType)
PUBLIC 93c44 0 EventCCMenuItemSpriteExtra::activate()
PUBLIC 93d40 0 EventCCMenuItemSpriteExtra::modifyForEach(std::__ndk1::vector<matjson::Value, std::__ndk1::allocator<matjson::Value> >)
PUBLIC 93e6c 0 EventCCMenuItemSpriteExtra::selected()
PUBLIC 93f68 0 EventCCMenuItemSpriteExtra::unselected()
PUBLIC 94064 0 geode::modifier::ModifyBase<geode::modifier::ModifyDerive<MyTextArea, TextArea> >::ModifyBase()
PUBLIC 944ec 0 geode::modifier::ModifyDerive<MyTextArea, TextArea>::apply()
PUBLIC 9477c 0 geode::modifier::ModifyBase<geode::modifier::ModifyDerive<MyTextArea, TextArea> >::apply()
PUBLIC 94780 0 std::__ndk1::__function::__func<MyTextArea::onModify<geode::modifier::ModifyBase<geode::modifier::ModifyDerive<MyTextArea, TextArea> > >(geode::modifier::ModifyBase<geode::modifier::ModifyDerive<MyTextArea, TextArea> >&)::{lambda()#1}, std::__ndk1::allocator<MyTextArea::onModify<geode::modifier::ModifyBase<geode::modifier::ModifyDerive<MyTextArea, TextArea> > >(geode::modifier::ModifyBase<geode::modifier::ModifyDerive<MyTextArea, TextArea> >&)::{lambda()#1}>, void ()>::~__func()
PUBLIC 94784 0 std::__ndk1::__function::__func<MyTextArea::onModify<geode::modifier::ModifyBase<geode::modifier::ModifyDerive<MyTextArea, TextArea> > >(geode::modifier::ModifyBase<geode::modifier::ModifyDerive<MyTextArea, TextArea> >&)::{lambda()#1}, std::__ndk1::allocator<MyTextArea::onModify<geode::modifier::ModifyBase<geode::modifier::ModifyDerive<MyTextArea, TextArea> > >(geode::modifier::ModifyBase<geode::modifier::ModifyDerive<MyTextArea, TextArea> >&)::{lambda()#1}>, void ()>::__clone() const
PUBLIC 947b8 0 std::__ndk1::__function::__func<MyTextArea::onModify<geode::modifier::ModifyBase<geode::modifier::ModifyDerive<MyTextArea, TextArea> > >(geode::modifier::ModifyBase<geode::modifier::ModifyDerive<MyTextArea, TextArea> >&)::{lambda()#1}, std::__ndk1::allocator<MyTextArea::onModify<geode::modifier::ModifyBase<geode::modifier::ModifyDerive<MyTextArea, TextArea> > >(geode::modifier::ModifyBase<geode::modifier::ModifyDerive<MyTextArea, TextArea> >&)::{lambda()#1}>, void ()>::__clone(std::__ndk1::__function::__base<void ()>*) const
PUBLIC 947cc 0 std::__ndk1::__function::__func<MyTextArea::onModify<geode::modifier::ModifyBase<geode::modifier::ModifyDerive<MyTextArea, TextArea> > >(geode::modifier::ModifyBase<geode::modifier::ModifyDerive<MyTextArea, TextArea> >&)::{lambda()#1}, std::__ndk1::allocator<MyTextArea::onModify<geode::modifier::ModifyBase<geode::modifier::ModifyDerive<MyTextArea, TextArea> > >(geode::modifier::ModifyBase<geode::modifier::ModifyDerive<MyTextArea, TextArea> >&)::{lambda()#1}>, void ()>::destroy()
PUBLIC 947d0 0 std::__ndk1::__function::__func<MyTextArea::onModify<geode::modifier::ModifyBase<geode::modifier::ModifyDerive<MyTextArea, TextArea> > >(geode::modifier::ModifyBase<geode::modifier::ModifyDerive<MyTextArea, TextArea> >&)::{lambda()#1}, std::__ndk1::allocator<MyTextArea::onModify<geode::modifier::ModifyBase<geode::modifier::ModifyDerive<MyTextArea, TextArea> > >(geode::modifier::ModifyBase<geode::modifier::ModifyDerive<MyTextArea, TextArea> >&)::{lambda()#1}>, void ()>::destroy_deallocate()
PUBLIC 947d4 0 std::__ndk1::__function::__func<MyTextArea::onModify<geode::modifier::ModifyBase<geode::modifier::ModifyDerive<MyTextArea, TextArea> > >(geode::modifier::ModifyBase<geode::modifier::ModifyDerive<MyTextArea, TextArea> >&)::{lambda()#1}, std::__ndk1::allocator<MyTextArea::onModify<geode::modifier::ModifyBase<geode::modifier::ModifyDerive<MyTextArea, TextArea> > >(geode::modifier::ModifyBase<geode::modifier::ModifyDerive<MyTextArea, TextArea> >&)::{lambda()#1}>, void ()>::operator()()
PUBLIC 947dc 0 std::__ndk1::__function::__func<MyTextArea::onModify<geode::modifier::ModifyBase<geode::modifier::ModifyDerive<MyTextArea, TextArea> > >(geode::modifier::ModifyBase<geode::modifier::ModifyDerive<MyTextArea, TextArea> >&)::{lambda()#1}, std::__ndk1::allocator<MyTextArea::onModify<geode::modifier::ModifyBase<geode::modifier::ModifyDerive<MyTextArea, TextArea> > >(geode::modifier::ModifyBase<geode::modifier::ModifyDerive<MyTextArea, TextArea> >&)::{lambda()#1}>, void ()>::target(std::type_info const&) const
PUBLIC 947f8 0 std::__ndk1::__function::__func<MyTextArea::onModify<geode::modifier::ModifyBase<geode::modifier::ModifyDerive<MyTextArea, TextArea> > >(geode::modifier::ModifyBase<geode::modifier::ModifyDerive<MyTextArea, TextArea> >&)::{lambda()#1}, std::__ndk1::allocator<MyTextArea::onModify<geode::modifier::ModifyBase<geode::modifier::ModifyDerive<MyTextArea, TextArea> > >(geode::modifier::ModifyBase<geode::modifier::ModifyDerive<MyTextArea, TextArea> >&)::{lambda()#1}>, void ()>::target_type() const
PUBLIC 94804 0 MyTextArea::onModify<geode::modifier::ModifyBase<geode::modifier::ModifyDerive<MyTextArea, TextArea> > >(geode::modifier::ModifyBase<geode::modifier::ModifyDerive<MyTextArea, TextArea> >&)::{lambda()#1}::operator()() const
PUBLIC 94924 0 geode::modifier::ModifyBase<geode::modifier::ModifyDerive<MyTextArea, TextArea> >::setHookPriorityBefore(std::__ndk1::basic_string_view<char, std::__ndk1::char_traits<char> >, std::__ndk1::basic_string_view<char, std::__ndk1::char_traits<char> >)
PUBLIC 94abc 0 geode::modifier::ModifyBase<geode::modifier::ModifyDerive<MyTextArea, TextArea> >::setHookPriorityBefore(std::__ndk1::basic_string_view<char, std::__ndk1::char_traits<char> >, geode::Mod*)
PUBLIC 94da8 0 geode::modifier::ModifyBase<geode::modifier::ModifyDerive<MyTextArea, TextArea> >::getHook(std::__ndk1::basic_string_view<char, std::__ndk1::char_traits<char> >)
PUBLIC 94f50 0 geode::modifier::ModifyBase<geode::modifier::ModifyDerive<MyTextArea, TextArea> >::setHookPriorityBefore(std::__ndk1::basic_string_view<char, std::__ndk1::char_traits<char> >, geode::Mod*)::{lambda(geode::ModStateEvent*)#1}::operator()(geode::ModStateEvent*) const
PUBLIC 95064 0 std::__ndk1::__function::__func<geode::modifier::ModifyBase<geode::modifier::ModifyDerive<MyTextArea, TextArea> >::setHookPriorityBefore(std::__ndk1::basic_string_view<char, std::__ndk1::char_traits<char> >, geode::Mod*)::{lambda(geode::ModStateEvent*)#1}, std::__ndk1::allocator<geode::modifier::ModifyBase<geode::modifier::ModifyDerive<MyTextArea, TextArea> >::setHookPriorityBefore(std::__ndk1::basic_string_view<char, std::__ndk1::char_traits<char> >, geode::Mod*)::{lambda(geode::ModStateEvent*)#1}>, void (geode::ModStateEvent*)>::~__func()
PUBLIC 95068 0 std::__ndk1::__function::__func<geode::modifier::ModifyBase<geode::modifier::ModifyDerive<MyTextArea, TextArea> >::setHookPriorityBefore(std::__ndk1::basic_string_view<char, std::__ndk1::char_traits<char> >, geode::Mod*)::{lambda(geode::ModStateEvent*)#1}, std::__ndk1::allocator<geode::modifier::ModifyBase<geode::modifier::ModifyDerive<MyTextArea, TextArea> >::setHookPriorityBefore(std::__ndk1::basic_string_view<char, std::__ndk1::char_traits<char> >, geode::Mod*)::{lambda(geode::ModStateEvent*)#1}>, void (geode::ModStateEvent*)>::__clone() const
PUBLIC 950a0 0 std::__ndk1::__function::__func<geode::modifier::ModifyBase<geode::modifier::ModifyDerive<MyTextArea, TextArea> >::setHookPriorityBefore(std::__ndk1::basic_string_view<char, std::__ndk1::char_traits<char> >, geode::Mod*)::{lambda(geode::ModStateEvent*)#1}, std::__ndk1::allocator<geode::modifier::ModifyBase<geode::modifier::ModifyDerive<MyTextArea, TextArea> >::setHookPriorityBefore(std::__ndk1::basic_string_view<char, std::__ndk1::char_traits<char> >, geode::Mod*)::{lambda(geode::ModStateEvent*)#1}>, void (geode::ModStateEvent*)>::__clone(std::__ndk1::__function::__base<void (geode::ModStateEvent*)>*) const
PUBLIC 950b8 0 std::__ndk1::__function::__func<geode::modifier::ModifyBase<geode::modifier::ModifyDerive<MyTextArea, TextArea> >::setHookPriorityBefore(std::__ndk1::basic_string_view<char, std::__ndk1::char_traits<char> >, geode::Mod*)::{lambda(geode::ModStateEvent*)#1}, std::__ndk1::allocator<geode::modifier::ModifyBase<geode::modifier::ModifyDerive<MyTextArea, TextArea> >::setHookPriorityBefore(std::__ndk1::basic_string_view<char, std::__ndk1::char_traits<char> >, geode::Mod*)::{lambda(geode::ModStateEvent*)#1}>, void (geode::ModStateEvent*)>::destroy()
PUBLIC 950bc 0 std::__ndk1::__function::__func<geode::modifier::ModifyBase<geode::modifier::ModifyDerive<MyTextArea, TextArea> >::setHookPriorityBefore(std::__ndk1::basic_string_view<char, std::__ndk1::char_traits<char> >, geode::Mod*)::{lambda(geode::ModStateEvent*)#1}, std::__ndk1::allocator<geode::modifier::ModifyBase<geode::modifier::ModifyDerive<MyTextArea, TextArea> >::setHookPriorityBefore(std::__ndk1::basic_string_view<char, std::__ndk1::char_traits<char> >, geode::Mod*)::{lambda(geode::ModStateEvent*)#1}>, void (geode::ModStateEvent*)>::destroy_deallocate()
PUBLIC 950c0 0 std::__ndk1::__function::__func<geode::modifier::ModifyBase<geode::modifier::ModifyDerive<MyTextArea, TextArea> >::setHookPriorityBefore(std::__ndk1::basic_string_view<char, std::__ndk1::char_traits<char> >, geode::Mod*)::{lambda(geode::ModStateEvent*)#1}, std::__ndk1::allocator<geode::modifier::ModifyBase<geode::modifier::ModifyDerive<MyTextArea, TextArea> >::setHookPriorityBefore(std::__ndk1::basic_string_view<char, std::__ndk1::char_traits<char> >, geode::Mod*)::{lambda(geode::ModStateEvent*)#1}>, void (geode::ModStateEvent*)>::operator()(geode::ModStateEvent*&&)
PUBLIC 950cc 0 std::__ndk1::__function::__func<geode::modifier::ModifyBase<geode::modifier::ModifyDerive<MyTextArea, TextArea> >::setHookPriorityBefore(std::__ndk1::basic_string_view<char, std::__ndk1::char_traits<char> >, geode::Mod*)::{lambda(geode::ModStateEvent*)#1}, std::__ndk1::allocator<geode::modifier::ModifyBase<geode::modifier::ModifyDerive<MyTextArea, TextArea> >::setHookPriorityBefore(std::__ndk1::basic_string_view<char, std::__ndk1::char_traits<char> >, geode::Mod*)::{lambda(geode::ModStateEvent*)#1}>, void (geode::ModStateEvent*)>::target(std::type_info const&) const
PUBLIC 950e8 0 std::__ndk1::__function::__func<geode::modifier::ModifyBase<geode::modifier::ModifyDerive<MyTextArea, TextArea> >::setHookPriorityBefore(std::__ndk1::basic_string_view<char, std::__ndk1::char_traits<char> >, geode::Mod*)::{lambda(geode::ModStateEvent*)#1}, std::__ndk1::allocator<geode::modifier::ModifyBase<geode::modifier::ModifyDerive<MyTextArea, TextArea> >::setHookPriorityBefore(std::__ndk1::basic_string_view<char, std::__ndk1::char_traits<char> >, geode::Mod*)::{lambda(geode::ModStateEvent*)#1}>, void (geode::ModStateEvent*)>::target_type() const
PUBLIC 950f4 0 geode::Hook::create<void (*)(MyTextArea*, gd::string)>(void*, void (*)(MyTextArea*, gd::string), std::__ndk1::basic_string<char, std::__ndk1::char_traits<char>, std::__ndk1::allocator<char> > const&, tulip::hook::TulipConvention, tulip::hook::HookMetadata const&)
PUBLIC 95278 0 geode::modifier::AsStaticFunction_setString<MyTextArea, void (MyTextArea::*)(gd::string)>::Impl<void (MyTextArea::*)(gd::string)>::function(MyTextArea*, gd::string)
PUBLIC 952fc 0 MyTextArea::setString(gd::string)
PUBLIC 954b0 0 MyTextArea::riftString(std::__ndk1::basic_string<char, std::__ndk1::char_traits<char>, std::__ndk1::allocator<char> >)
PUBLIC 95808 0 geode::modifier::ModifyBase<geode::modifier::ModifyDerive<MyFLAlertLayer, FLAlertLayer> >::ModifyBase()
PUBLIC 95c90 0 geode::modifier::ModifyDerive<MyFLAlertLayer, FLAlertLayer>::apply()
PUBLIC 95f18 0 geode::modifier::ModifyBase<geode::modifier::ModifyDerive<MyFLAlertLayer, FLAlertLayer> >::apply()
PUBLIC 95f1c 0 std::__ndk1::__function::__func<MyFLAlertLayer::onModify<geode::modifier::ModifyBase<geode::modifier::ModifyDerive<MyFLAlertLayer, FLAlertLayer> > >(geode::modifier::ModifyBase<geode::modifier::ModifyDerive<MyFLAlertLayer, FLAlertLayer> >&)::{lambda()#1}, std::__ndk1::allocator<MyFLAlertLayer::onModify<geode::modifier::ModifyBase<geode::modifier::ModifyDerive<MyFLAlertLayer, FLAlertLayer> > >(geode::modifier::ModifyBase<geode::modifier::ModifyDerive<MyFLAlertLayer, FLAlertLayer> >&)::{lambda()#1}>, void ()>::~__func()
PUBLIC 95f20 0 std::__ndk1::__function::__func<MyFLAlertLayer::onModify<geode::modifier::ModifyBase<geode::modifier::ModifyDerive<MyFLAlertLayer, FLAlertLayer> > >(geode::modifier::ModifyBase<geode::modifier::ModifyDerive<MyFLAlertLayer, FLAlertLayer> >&)::{lambda()#1}, std::__ndk1::allocator<MyFLAlertLayer::onModify<geode::modifier::ModifyBase<geode::modifier::ModifyDerive<MyFLAlertLayer, FLAlertLayer> > >(geode::modifier::ModifyBase<geode::modifier::ModifyDerive<MyFLAlertLayer, FLAlertLayer> >&)::{lambda()#1}>, void ()>::__clone() const
PUBLIC 95f54 0 std::__ndk1::__function::__func<MyFLAlertLayer::onModify<geode::modifier::ModifyBase<geode::modifier::ModifyDerive<MyFLAlertLayer, FLAlertLayer> > >(geode::modifier::ModifyBase<geode::modifier::ModifyDerive<MyFLAlertLayer, FLAlertLayer> >&)::{lambda()#1}, std::__ndk1::allocator<MyFLAlertLayer::onModify<geode::modifier::ModifyBase<geode::modifier::ModifyDerive<MyFLAlertLayer, FLAlertLayer> > >(geode::modifier::ModifyBase<geode::modifier::ModifyDerive<MyFLAlertLayer, FLAlertLayer> >&)::{lambda()#1}>, void ()>::__clone(std::__ndk1::__function::__base<void ()>*) const
PUBLIC 95f68 0 std::__ndk1::__function::__func<MyFLAlertLayer::onModify<geode::modifier::ModifyBase<geode::modifier::ModifyDerive<MyFLAlertLayer, FLAlertLayer> > >(geode::modifier::ModifyBase<geode::modifier::ModifyDerive<MyFLAlertLayer, FLAlertLayer> >&)::{lambda()#1}, std::__ndk1::allocator<MyFLAlertLayer::onModify<geode::modifier::ModifyBase<geode::modifier::ModifyDerive<MyFLAlertLayer, FLAlertLayer> > >(geode::modifier::ModifyBase<geode::modifier::ModifyDerive<MyFLAlertLayer, FLAlertLayer> >&)::{lambda()#1}>, void ()>::destroy()
PUBLIC 95f6c 0 std::__ndk1::__function::__func<MyFLAlertLayer::onModify<geode::modifier::ModifyBase<geode::modifier::ModifyDerive<MyFLAlertLayer, FLAlertLayer> > >(geode::modifier::ModifyBase<geode::modifier::ModifyDerive<MyFLAlertLayer, FLAlertLayer> >&)::{lambda()#1}, std::__ndk1::allocator<MyFLAlertLayer::onModify<geode::modifier::ModifyBase<geode::modifier::ModifyDerive<MyFLAlertLayer, FLAlertLayer> > >(geode::modifier::ModifyBase<geode::modifier::ModifyDerive<MyFLAlertLayer, FLAlertLayer> >&)::{lambda()#1}>, void ()>::destroy_deallocate()
PUBLIC 95f70 0 std::__ndk1::__function::__func<MyFLAlertLayer::onModify<geode::modifier::ModifyBase<geode::modifier::ModifyDerive<MyFLAlertLayer, FLAlertLayer> > >(geode::modifier::ModifyBase<geode::modifier::ModifyDerive<MyFLAlertLayer, FLAlertLayer> >&)::{lambda()#1}, std::__ndk1::allocator<MyFLAlertLayer::onModify<geode::modifier::ModifyBase<geode::modifier::ModifyDerive<MyFLAlertLayer, FLAlertLayer> > >(geode::modifier::ModifyBase<geode::modifier::ModifyDerive<MyFLAlertLayer, FLAlertLayer> >&)::{lambda()#1}>, void ()>::operator()()
PUBLIC 95f78 0 std::__ndk1::__function::__func<MyFLAlertLayer::onModify<geode::modifier::ModifyBase<geode::modifier::ModifyDerive<MyFLAlertLayer, FLAlertLayer> > >(geode::modifier::ModifyBase<geode::modifier::ModifyDerive<MyFLAlertLayer, FLAlertLayer> >&)::{lambda()#1}, std::__ndk1::allocator<MyFLAlertLayer::onModify<geode::modifier::ModifyBase<geode::modifier::ModifyDerive<MyFLAlertLayer, FLAlertLayer> > >(geode::modifier::ModifyBase<geode::modifier::ModifyDerive<MyFLAlertLayer, FLAlertLayer> >&)::{lambda()#1}>, void ()>::target(std::type_info const&) const
PUBLIC 95f94 0 std::__ndk1::__function::__func<MyFLAlertLayer::onModify<geode::modifier::ModifyBase<geode::modifier::ModifyDerive<MyFLAlertLayer, FLAlertLayer> > >(geode::modifier::ModifyBase<geode::modifier::ModifyDerive<MyFLAlertLayer, FLAlertLayer> >&)::{lambda()#1}, std::__ndk1::allocator<MyFLAlertLayer::onModify<geode::modifier::ModifyBase<geode::modifier::ModifyDerive<MyFLAlertLayer, FLAlertLayer> > >(geode::modifier::ModifyBase<geode::modifier::ModifyDerive<MyFLAlertLayer, FLAlertLayer> >&)::{lambda()#1}>, void ()>::target_type() const
PUBLIC 95fa0 0 MyFLAlertLayer::onModify<geode::modifier::ModifyBase<geode::modifier::ModifyDerive<MyFLAlertLayer, FLAlertLayer> > >(geode::modifier::ModifyBase<geode::modifier::ModifyDerive<MyFLAlertLayer, FLAlertLayer> >&)::{lambda()#1}::operator()() const
PUBLIC 960bc 0 geode::modifier::ModifyBase<geode::modifier::ModifyDerive<MyFLAlertLayer, FLAlertLayer> >::setHookPriorityBefore(std::__ndk1::basic_string_view<char, std::__ndk1::char_traits<char> >, std::__ndk1::basic_string_view<char, std::__ndk1::char_traits<char> >)
PUBLIC 96254 0 geode::modifier::ModifyBase<geode::modifier::ModifyDerive<MyFLAlertLayer, FLAlertLayer> >::setHookPriorityBefore(std::__ndk1::basic_string_view<char, std::__ndk1::char_traits<char> >, geode::Mod*)
PUBLIC 96540 0 geode::modifier::ModifyBase<geode::modifier::ModifyDerive<MyFLAlertLayer, FLAlertLayer> >::getHook(std::__ndk1::basic_string_view<char, std::__ndk1::char_traits<char> >)
PUBLIC 966e8 0 geode::modifier::ModifyBase<geode::modifier::ModifyDerive<MyFLAlertLayer, FLAlertLayer> >::setHookPriorityBefore(std::__ndk1::basic_string_view<char, std::__ndk1::char_traits<char> >, geode::Mod*)::{lambda(geode::ModStateEvent*)#1}::operator()(geode::ModStateEvent*) const
PUBLIC 967fc 0 std::__ndk1::__function::__base<void (geode::ModStateEvent*)>::~__base()
PUBLIC 96800 0 std::__ndk1::__function::__func<geode::modifier::ModifyBase<geode::modifier::ModifyDerive<MyFLAlertLayer, FLAlertLayer> >::setHookPriorityBefore(std::__ndk1::basic_string_view<char, std::__ndk1::char_traits<char> >, geode::Mod*)::{lambda(geode::ModStateEvent*)#1}, std::__ndk1::allocator<geode::modifier::ModifyBase<geode::modifier::ModifyDerive<MyFLAlertLayer, FLAlertLayer> >::setHookPriorityBefore(std::__ndk1::basic_string_view<char, std::__ndk1::char_traits<char> >, geode::Mod*)::{lambda(geode::ModStateEvent*)#1}>, void (geode::ModStateEvent*)>::~__func()
PUBLIC 96804 0 std::__ndk1::__function::__func<geode::modifier::ModifyBase<geode::modifier::ModifyDerive<MyFLAlertLayer, FLAlertLayer> >::setHookPriorityBefore(std::__ndk1::basic_string_view<char, std::__ndk1::char_traits<char> >, geode::Mod*)::{lambda(geode::ModStateEvent*)#1}, std::__ndk1::allocator<geode::modifier::ModifyBase<geode::modifier::ModifyDerive<MyFLAlertLayer, FLAlertLayer> >::setHookPriorityBefore(std::__ndk1::basic_string_view<char, std::__ndk1::char_traits<char> >, geode::Mod*)::{lambda(geode::ModStateEvent*)#1}>, void (geode::ModStateEvent*)>::__clone() const
PUBLIC 9683c 0 std::__ndk1::__function::__func<geode::modifier::ModifyBase<geode::modifier::ModifyDerive<MyFLAlertLayer, FLAlertLayer> >::setHookPriorityBefore(std::__ndk1::basic_string_view<char, std::__ndk1::char_traits<char> >, geode::Mod*)::{lambda(geode::ModStateEvent*)#1}, std::__ndk1::allocator<geode::modifier::ModifyBase<geode::modifier::ModifyDerive<MyFLAlertLayer, FLAlertLayer> >::setHookPriorityBefore(std::__ndk1::basic_string_view<char, std::__ndk1::char_traits<char> >, geode::Mod*)::{lambda(geode::ModStateEvent*)#1}>, void (geode::ModStateEvent*)>::__clone(std::__ndk1::__function::__base<void (geode::ModStateEvent*)>*) const
PUBLIC 96854 0 std::__ndk1::__function::__func<geode::modifier::ModifyBase<geode::modifier::ModifyDerive<MyFLAlertLayer, FLAlertLayer> >::setHookPriorityBefore(std::__ndk1::basic_string_view<char, std::__ndk1::char_traits<char> >, geode::Mod*)::{lambda(geode::ModStateEvent*)#1}, std::__ndk1::allocator<geode::modifier::ModifyBase<geode::modifier::ModifyDerive<MyFLAlertLayer, FLAlertLayer> >::setHookPriorityBefore(std::__ndk1::basic_string_view<char, std::__ndk1::char_traits<char> >, geode::Mod*)::{lambda(geode::ModStateEvent*)#1}>, void (geode::ModStateEvent*)>::destroy()
PUBLIC 96858 0 std::__ndk1::__function::__func<geode::modifier::ModifyBase<geode::modifier::ModifyDerive<MyFLAlertLayer, FLAlertLayer> >::setHookPriorityBefore(std::__ndk1::basic_string_view<char, std::__ndk1::char_traits<char> >, geode::Mod*)::{lambda(geode::ModStateEvent*)#1}, std::__ndk1::allocator<geode::modifier::ModifyBase<geode::modifier::ModifyDerive<MyFLAlertLayer, FLAlertLayer> >::setHookPriorityBefore(std::__ndk1::basic_string_view<char, std::__ndk1::char_traits<char> >, geode::Mod*)::{lambda(geode::ModStateEvent*)#1}>, void (geode::ModStateEvent*)>::destroy_deallocate()
PUBLIC 9685c 0 std::__ndk1::__function::__func<geode::modifier::ModifyBase<geode::modifier::ModifyDerive<MyFLAlertLayer, FLAlertLayer> >::setHookPriorityBefore(std::__ndk1::basic_string_view<char, std::__ndk1::char_traits<char> >, geode::Mod*)::{lambda(geode::ModStateEvent*)#1}, std::__ndk1::allocator<geode::modifier::ModifyBase<geode::modifier::ModifyDerive<MyFLAlertLayer, FLAlertLayer> >::setHookPriorityBefore(std::__ndk1::basic_string_view<char, std::__ndk1::char_traits<char> >, geode::Mod*)::{lambda(geode::ModStateEvent*)#1}>, void (geode::ModStateEvent*)>::operator()(geode::ModStateEvent*&&)
PUBLIC 96868 0 std::__ndk1::__function::__func<geode::modifier::ModifyBase<geode::modifier::ModifyDerive<MyFLAlertLayer, FLAlertLayer> >::setHookPriorityBefore(std::__ndk1::basic_string_view<char, std::__ndk1::char_traits<char> >, geode::Mod*)::{lambda(geode::ModStateEvent*)#1}, std::__ndk1::allocator<geode::modifier::ModifyBase<geode::modifier::ModifyDerive<MyFLAlertLayer, FLAlertLayer> >::setHookPriorityBefore(std::__ndk1::basic_string_view<char, std::__ndk1::char_traits<char> >, geode::Mod*)::{lambda(geode::ModStateEvent*)#1}>, void (geode::ModStateEvent*)>::target(std::type_info const&) const
PUBLIC 96884 0 std::__ndk1::__function::__func<geode::modifier::ModifyBase<geode::modifier::ModifyDerive<MyFLAlertLayer, FLAlertLayer> >::setHookPriorityBefore(std::__ndk1::basic_string_view<char, std::__ndk1::char_traits<char> >, geode::Mod*)::{lambda(geode::ModStateEvent*)#1}, std::__ndk1::allocator<geode::modifier::ModifyBase<geode::modifier::ModifyDerive<MyFLAlertLayer, FLAlertLayer> >::setHookPriorityBefore(std::__ndk1::basic_string_view<char, std::__ndk1::char_traits<char> >, geode::Mod*)::{lambda(geode::ModStateEvent*)#1}>, void (geode::ModStateEvent*)>::target_type() const
PUBLIC 96890 0 geode::Hook::create<bool (*)(MyFLAlertLayer*, FLAlertLayerProtocol*, char const*, gd::string, char const*, char const*, float, bool, float, float)>(void*, bool (*)(MyFLAlertLayer*, FLAlertLayerProtocol*, char const*, gd::string, char const*, char const*, float, bool, float, float), std::__ndk1::basic_string<char, std::__ndk1::char_traits<char>, std::__ndk1::allocator<char> > const&, tulip::hook::TulipConvention, tulip::hook::HookMetadata const&)
PUBLIC 969a8 0 geode::modifier::AsStaticFunction_init<MyFLAlertLayer, bool (MyFLAlertLayer::*)(FLAlertLayerProtocol*, char const*, gd::string, char const*, char const*, float, bool, float, float)>::Impl<bool (MyFLAlertLayer::*)(FLAlertLayerProtocol*, char const*, gd::string, char const*, char const*, float, bool, float, float)>::function(MyFLAlertLayer*, FLAlertLayerProtocol*, char const*, gd::string, char const*, char const*, float, bool, float, float)
PUBLIC 96aa0 0 tulip::hook::AbstractFunction::from<bool, MyFLAlertLayer*, FLAlertLayerProtocol*, char const*, gd::string, char const*, char const*, float, bool, float, float>(bool (*)(MyFLAlertLayer*, FLAlertLayerProtocol*, char const*, gd::string, char const*, char const*, float, bool, float, float))
PUBLIC 97398 0 MyFLAlertLayer::init(FLAlertLayerProtocol*, char const*, gd::string, char const*, char const*, float, bool, float, float)
PUBLIC 974e8 0 geode::modifier::ModifyBase<geode::modifier::ModifyDerive<MyCCNode, cocos2d::CCNode> >::ModifyBase()
PUBLIC 978e4 0 geode::modifier::ModifyDerive<MyCCNode, cocos2d::CCNode>::apply()
PUBLIC 97b7c 0 geode::modifier::ModifyBase<geode::modifier::ModifyDerive<MyCCNode, cocos2d::CCNode> >::apply()
PUBLIC 97b80 0 geode::Hook::create<void (*)(MyCCNode*)>(void*, void (*)(MyCCNode*), std::__ndk1::basic_string<char, std::__ndk1::char_traits<char>, std::__ndk1::allocator<char> > const&, tulip::hook::TulipConvention, tulip::hook::HookMetadata const&)
PUBLIC 97cb4 0 geode::modifier::AsStaticFunction_cleanup<MyCCNode, void (MyCCNode::*)()>::Impl<void (MyCCNode::*)()>::function(MyCCNode*)
PUBLIC 97d00 0 geode::addresser::Addresser::addressOfVirtual<void, cocos2d::CCNode, >(void (cocos2d::CCNode::*)())
PUBLIC 97e3c 0 std::__ndk1::__tree<std::__ndk1::__value_type<std::__ndk1::basic_string<char, std::__ndk1::char_traits<char>, std::__ndk1::allocator<char> >, ColorData>, std::__ndk1::__map_value_compare<std::__ndk1::basic_string<char, std::__ndk1::char_traits<char>, std::__ndk1::allocator<char> >, std::__ndk1::__value_type<std::__ndk1::basic_string<char, std::__ndk1::char_traits<char>, std::__ndk1::allocator<char> >, ColorData>, std::__ndk1::less<std::__ndk1::basic_string<char, std::__ndk1::char_traits<char>, std::__ndk1::allocator<char> > >, true>, std::__ndk1::allocator<std::__ndk1::__value_type<std::__ndk1::basic_string<char, std::__ndk1::char_traits<char>, std::__ndk1::allocator<char> >, ColorData> > >::__emplace_unique_key_args<std::__ndk1::basic_string<char, std::__ndk1::char_traits<char>, std::__ndk1::allocator<char> >, std::__ndk1::piecewise_construct_t const&, std::__ndk1::tuple<std::__ndk1::basic_string<char, std::__ndk1::char_traits<char>, std::__ndk1::allocator<char> > const&>, std::__ndk1::tuple<> >(std::__ndk1::basic_string<char, std::__ndk1::char_traits<char>, std::__ndk1::allocator<char> > const&, std::__ndk1::piecewise_construct_t const&, std::__ndk1::tuple<std::__ndk1::basic_string<char, std::__ndk1::char_traits<char>, std::__ndk1::allocator<char> > const&>, std::__ndk1::tuple<>)
PUBLIC 98014 0 std::__ndk1::unique_ptr<std::__ndk1::__tree_node<std::__ndk1::__value_type<std::__ndk1::basic_string<char, std::__ndk1::char_traits<char>, std::__ndk1::allocator<char> >, ColorData>, void*>, std::__ndk1::__tree_node_destructor<std::__ndk1::allocator<std::__ndk1::__tree_node<std::__ndk1::__value_type<std::__ndk1::basic_string<char, std::__ndk1::char_traits<char>, std::__ndk1::allocator<char> >, ColorData>, void*> > > >::~unique_ptr[abi:ne180000]()
PUBLIC 98064 0 std::__ndk1::__tree<std::__ndk1::__value_type<std::__ndk1::basic_string<char, std::__ndk1::char_traits<char>, std::__ndk1::allocator<char> >, ColorData>, std::__ndk1::__map_value_compare<std::__ndk1::basic_string<char, std::__ndk1::char_traits<char>, std::__ndk1::allocator<char> >, std::__ndk1::__value_type<std::__ndk1::basic_string<char, std::__ndk1::char_traits<char>, std::__ndk1::allocator<char> >, ColorData>, std::__ndk1::less<std::__ndk1::basic_string<char, std::__ndk1::char_traits<char>, std::__ndk1::allocator<char> > >, true>, std::__ndk1::allocator<std::__ndk1::__value_type<std::__ndk1::basic_string<char, std::__ndk1::char_traits<char>, std::__ndk1::allocator<char> >, ColorData> > >::__emplace_unique_key_args<std::__ndk1::basic_string<char, std::__ndk1::char_traits<char>, std::__ndk1::allocator<char> >, std::__ndk1::pair<std::__ndk1::basic_string<char, std::__ndk1::char_traits<char>, std::__ndk1::allocator<char> > const, ColorData> >(std::__ndk1::basic_string<char, std::__ndk1::char_traits<char>, std::__ndk1::allocator<char> > const&, std::__ndk1::pair<std::__ndk1::basic_string<char, std::__ndk1::char_traits<char>, std::__ndk1::allocator<char> > const, ColorData>&&)
PUBLIC 9823c 0 std::__ndk1::unique_ptr<std::__ndk1::__tree_node<std::__ndk1::__value_type<std::__ndk1::basic_string<char, std::__ndk1::char_traits<char>, std::__ndk1::allocator<char> >, std::__ndk1::map<std::__ndk1::basic_string<char, std::__ndk1::char_traits<char>, std::__ndk1::allocator<char> >, std::__ndk1::pair<cocos2d::CCNode*, void (cocos2d::CCObject::*)(cocos2d::CCObject*)>, std::__ndk1::less<std::__ndk1::basic_string<char, std::__ndk1::char_traits<char>, std::__ndk1::allocator<char> > >, std::__ndk1::allocator<std::__ndk1::pair<std::__ndk1::basic_string<char, std::__ndk1::char_traits<char>, std::__ndk1::allocator<char> > const, std::__ndk1::pair<cocos2d::CCNode*, void (cocos2d::CCObject::*)(cocos2d::CCObject*)> > > > >, void*>, std::__ndk1::__tree_node_destructor<std::__ndk1::allocator<std::__ndk1::__tree_node<std::__ndk1::__value_type<std::__ndk1::basic_string<char, std::__ndk1::char_traits<char>, std::__ndk1::allocator<char> >, std::__ndk1::map<std::__ndk1::basic_string<char, std::__ndk1::char_traits<char>, std::__ndk1::allocator<char> >, std::__ndk1::pair<cocos2d::CCNode*, void (cocos2d::CCObject::*)(cocos2d::CCObject*)>, std::__ndk1::less<std::__ndk1::basic_string<char, std::__ndk1::char_traits<char>, std::__ndk1::allocator<char> > >, std::__ndk1::allocator<std::__ndk1::pair<std::__ndk1::basic_string<char, std::__ndk1::char_traits<char>, std::__ndk1::allocator<char> > const, std::__ndk1::pair<cocos2d::CCNode*, void (cocos2d::CCObject::*)(cocos2d::CCObject*)> > > > >, void*> > > >::~unique_ptr[abi:ne180000]()
PUBLIC 98294 0 std::__ndk1::__tree<std::__ndk1::__value_type<std::__ndk1::basic_string<char, std::__ndk1::char_traits<char>, std::__ndk1::allocator<char> >, unsigned int>, std::__ndk1::__map_value_compare<std::__ndk1::basic_string<char, std::__ndk1::char_traits<char>, std::__ndk1::allocator<char> >, std::__ndk1::__value_type<std::__ndk1::basic_string<char, std::__ndk1::char_traits<char>, std::__ndk1::allocator<char> >, unsigned int>, std::__ndk1::less<std::__ndk1::basic_string<char, std::__ndk1::char_traits<char>, std::__ndk1::allocator<char> > >, true>, std::__ndk1::allocator<std::__ndk1::__value_type<std::__ndk1::basic_string<char, std::__ndk1::char_traits<char>, std::__ndk1::allocator<char> >, unsigned int> > >::__emplace_hint_unique_key_args<std::__ndk1::basic_string<char, std::__ndk1::char_traits<char>, std::__ndk1::allocator<char> >, std::__ndk1::pair<std::__ndk1::basic_string<char, std::__ndk1::char_traits<char>, std::__ndk1::allocator<char> > const, unsigned int> const&>(std::__ndk1::__tree_const_iterator<std::__ndk1::__value_type<std::__ndk1::basic_string<char, std::__ndk1::char_traits<char>, std::__ndk1::allocator<char> >, unsigned int>, std::__ndk1::__tree_node<std::__ndk1::__value_type<std::__ndk1::basic_string<char, std::__ndk1::char_traits<char>, std::__ndk1::allocator<char> >, unsigned int>, void*>*, long>, std::__ndk1::basic_string<char, std::__ndk1::char_traits<char>, std::__ndk1::allocator<char> > const&, std::__ndk1::pair<std::__ndk1::basic_string<char, std::__ndk1::char_traits<char>, std::__ndk1::allocator<char> > const, unsigned int> const&)
PUBLIC 98514 0 std::__ndk1::unique_ptr<std::__ndk1::__tree_node<std::__ndk1::__value_type<std::__ndk1::basic_string<char, std::__ndk1::char_traits<char>, std::__ndk1::allocator<char> >, unsigned int>, void*>, std::__ndk1::__tree_node_destructor<std::__ndk1::allocator<std::__ndk1::__tree_node<std::__ndk1::__value_type<std::__ndk1::basic_string<char, std::__ndk1::char_traits<char>, std::__ndk1::allocator<char> >, unsigned int>, void*> > > >::~unique_ptr[abi:ne180000]()
PUBLIC 98564 0 std::__ndk1::__tree<std::__ndk1::__value_type<std::__ndk1::basic_string<char, std::__ndk1::char_traits<char>, std::__ndk1::allocator<char> >, unsigned int>, std::__ndk1::__map_value_compare<std::__ndk1::basic_string<char, std::__ndk1::char_traits<char>, std::__ndk1::allocator<char> >, std::__ndk1::__value_type<std::__ndk1::basic_string<char, std::__ndk1::char_traits<char>, std::__ndk1::allocator<char> >, unsigned int>, std::__ndk1::less<std::__ndk1::basic_string<char, std::__ndk1::char_traits<char>, std::__ndk1::allocator<char> > >, true>, std::__ndk1::allocator<std::__ndk1::__value_type<std::__ndk1::basic_string<char, std::__ndk1::char_traits<char>, std::__ndk1::allocator<char> >, unsigned int> > >::destroy(std::__ndk1::__tree_node<std::__ndk1::__value_type<std::__ndk1::basic_string<char, std::__ndk1::char_traits<char>, std::__ndk1::allocator<char> >, unsigned int>, void*>*)
PUBLIC 985ac 0 std::__ndk1::__tree<std::__ndk1::__value_type<std::__ndk1::basic_string<char, std::__ndk1::char_traits<char>, std::__ndk1::allocator<char> >, std::__ndk1::basic_string<char, std::__ndk1::char_traits<char>, std::__ndk1::allocator<char> > >, std::__ndk1::__map_value_compare<std::__ndk1::basic_string<char, std::__ndk1::char_traits<char>, std::__ndk1::allocator<char> >, std::__ndk1::__value_type<std::__ndk1::basic_string<char, std::__ndk1::char_traits<char>, std::__ndk1::allocator<char> >, std::__ndk1::basic_string<char, std::__ndk1::char_traits<char>, std::__ndk1::allocator<char> > >, std::__ndk1::less<std::__ndk1::basic_string<char, std::__ndk1::char_traits<char>, std::__ndk1::allocator<char> > >, true>, std::__ndk1::allocator<std::__ndk1::__value_type<std::__ndk1::basic_string<char, std::__ndk1::char_traits<char>, std::__ndk1::allocator<char> >, std::__ndk1::basic_string<char, std::__ndk1::char_traits<char>, std::__ndk1::allocator<char> > > > >::find<std::__ndk1::basic_string<char, std::__ndk1::char_traits<char>, std::__ndk1::allocator<char> > >(std::__ndk1::basic_string<char, std::__ndk1::char_traits<char>, std::__ndk1::allocator<char> > const&) const
PUBLIC 986cc 0 std::__ndk1::__tree<std::__ndk1::__value_type<std::__ndk1::basic_string<char, std::__ndk1::char_traits<char>, std::__ndk1::allocator<char> >, std::__ndk1::basic_string<char, std::__ndk1::char_traits<char>, std::__ndk1::allocator<char> > >, std::__ndk1::__map_value_compare<std::__ndk1::basic_string<char, std::__ndk1::char_traits<char>, std::__ndk1::allocator<char> >, std::__ndk1::__value_type<std::__ndk1::basic_string<char, std::__ndk1::char_traits<char>, std::__ndk1::allocator<char> >, std::__ndk1::basic_string<char, std::__ndk1::char_traits<char>, std::__ndk1::allocator<char> > >, std::__ndk1::less<std::__ndk1::basic_string<char, std::__ndk1::char_traits<char>, std::__ndk1::allocator<char> > >, true>, std::__ndk1::allocator<std::__ndk1::__value_type<std::__ndk1::basic_string<char, std::__ndk1::char_traits<char>, std::__ndk1::allocator<char> >, std::__ndk1::basic_string<char, std::__ndk1::char_traits<char>, std::__ndk1::allocator<char> > > > >::__emplace_unique_key_args<std::__ndk1::basic_string<char, std::__ndk1::char_traits<char>, std::__ndk1::allocator<char> >, std::__ndk1::piecewise_construct_t const&, std::__ndk1::tuple<std::__ndk1::basic_string<char, std::__ndk1::char_traits<char>, std::__ndk1::allocator<char> > const&>, std::__ndk1::tuple<> >(std::__ndk1::basic_string<char, std::__ndk1::char_traits<char>, std::__ndk1::allocator<char> > const&, std::__ndk1::piecewise_construct_t const&, std::__ndk1::tuple<std::__ndk1::basic_string<char, std::__ndk1::char_traits<char>, std::__ndk1::allocator<char> > const&>, std::__ndk1::tuple<>)
PUBLIC 988a4 0 std::__ndk1::unique_ptr<std::__ndk1::__tree_node<std::__ndk1::__value_type<std::__ndk1::basic_string<char, std::__ndk1::char_traits<char>, std::__ndk1::allocator<char> >, std::__ndk1::basic_string<char, std::__ndk1::char_traits<char>, std::__ndk1::allocator<char> > >, void*>, std::__ndk1::__tree_node_destructor<std::__ndk1::allocator<std::__ndk1::__tree_node<std::__ndk1::__value_type<std::__ndk1::basic_string<char, std::__ndk1::char_traits<char>, std::__ndk1::allocator<char> >, std::__ndk1::basic_string<char, std::__ndk1::char_traits<char>, std::__ndk1::allocator<char> > >, void*> > > >::~unique_ptr[abi:ne180000]()
PUBLIC 98900 0 std::__ndk1::__thread_proxy[abi:ne180000]<std::__ndk1::tuple<std::__ndk1::unique_ptr<std::__ndk1::__thread_struct, std::__ndk1::default_delete<std::__ndk1::unique_ptr> >, UIModding::startFileListeners()::$_0, FileWatcher*> >(std::__ndk1::tuple<std::__ndk1::unique_ptr<std::__ndk1::__thread_struct, std::__ndk1::default_delete<std::__ndk1::unique_ptr> >, UIModding::startFileListeners()::$_0, FileWatcher*>)
PUBLIC 99164 0 std::__ndk1::unique_ptr<std::__ndk1::tuple<std::__ndk1::unique_ptr<std::__ndk1::__thread_struct, std::__ndk1::default_delete<std::__ndk1::__thread_struct> >, UIModding::startFileListeners()::$_0, FileWatcher*>, std::__ndk1::default_delete<std::__ndk1::tuple<std::__ndk1::unique_ptr<std::__ndk1::__thread_struct, std::__ndk1::default_delete<std::__ndk1::__thread_struct> >, UIModding::startFileListeners()::$_0, FileWatcher*> > >::~unique_ptr[abi:ne180000]()
PUBLIC 991b4 0 std::__ndk1::unique_ptr<std::__ndk1::__thread_struct, std::__ndk1::default_delete<std::__ndk1::__thread_struct> >::~unique_ptr[abi:ne180000]()
PUBLIC 991f0 0 std::__ndk1::__throw_bad_function_call[abi:ne180000]()
PUBLIC 99224 0 std::__ndk1::bad_function_call::~bad_function_call()
PUBLIC 99248 0 std::__ndk1::__function::__base<void (std::__ndk1::__fs::filesystem::path, FileStatus)>::~__base()
PUBLIC 9924c 0 std::__ndk1::__function::__func<UIModding::startFileListeners()::$_0::operator()(FileWatcher*) const::{lambda(std::__ndk1::__fs::filesystem::path, FileStatus)#1}, std::__ndk1::allocator<UIModding::startFileListeners()::$_0::operator()(FileWatcher*) const::{lambda(std::__ndk1::__fs::filesystem::path, FileStatus)#1}>, void (std::__ndk1::__fs::filesystem::path, FileStatus)>::~__func()
PUBLIC 99250 0 std::__ndk1::__function::__func<UIModding::startFileListeners()::$_0::operator()(FileWatcher*) const::{lambda(std::__ndk1::__fs::filesystem::path, FileStatus)#1}, std::__ndk1::allocator<UIModding::startFileListeners()::$_0::operator()(FileWatcher*) const::{lambda(std::__ndk1::__fs::filesystem::path, FileStatus)#1}>, void (std::__ndk1::__fs::filesystem::path, FileStatus)>::__clone() const
PUBLIC 99274 0 std::__ndk1::__function::__func<UIModding::startFileListeners()::$_0::operator()(FileWatcher*) const::{lambda(std::__ndk1::__fs::filesystem::path, FileStatus)#1}, std::__ndk1::allocator<UIModding::startFileListeners()::$_0::operator()(FileWatcher*) const::{lambda(std::__ndk1::__fs::filesystem::path, FileStatus)#1}>, void (std::__ndk1::__fs::filesystem::path, FileStatus)>::__clone(std::__ndk1::__function::__base<void (std::__ndk1::__fs::filesystem::path, FileStatus)>*) const
PUBLIC 99284 0 std::__ndk1::__function::__func<UIModding::startFileListeners()::$_0::operator()(FileWatcher*) const::{lambda(std::__ndk1::__fs::filesystem::path, FileStatus)#1}, std::__ndk1::allocator<UIModding::startFileListeners()::$_0::operator()(FileWatcher*) const::{lambda(std::__ndk1::__fs::filesystem::path, FileStatus)#1}>, void (std::__ndk1::__fs::filesystem::path, FileStatus)>::destroy()
PUBLIC 99288 0 std::__ndk1::__function::__func<UIModding::startFileListeners()::$_0::operator()(FileWatcher*) const::{lambda(std::__ndk1::__fs::filesystem::path, FileStatus)#1}, std::__ndk1::allocator<UIModding::startFileListeners()::$_0::operator()(FileWatcher*) const::{lambda(std::__ndk1::__fs::filesystem::path, FileStatus)#1}>, void (std::__ndk1::__fs::filesystem::path, FileStatus)>::destroy_deallocate()
PUBLIC 9928c 0 std::__ndk1::__function::__func<UIModding::startFileListeners()::$_0::operator()(FileWatcher*) const::{lambda(std::__ndk1::__fs::filesystem::path, FileStatus)#1}, std::__ndk1::allocator<UIModding::startFileListeners()::$_0::operator()(FileWatcher*) const::{lambda(std::__ndk1::__fs::filesystem::path, FileStatus)#1}>, void (std::__ndk1::__fs::filesystem::path, FileStatus)>::operator()(std::__ndk1::__fs::filesystem::path&&, FileStatus&&)
PUBLIC 993ec 0 std::__ndk1::__function::__func<UIModding::startFileListeners()::$_0::operator()(FileWatcher*) const::{lambda(std::__ndk1::__fs::filesystem::path, FileStatus)#1}, std::__ndk1::allocator<UIModding::startFileListeners()::$_0::operator()(FileWatcher*) const::{lambda(std::__ndk1::__fs::filesystem::path, FileStatus)#1}>, void (std::__ndk1::__fs::filesystem::path, FileStatus)>::target(std::type_info const&) const
PUBLIC 99408 0 std::__ndk1::__function::__func<UIModding::startFileListeners()::$_0::operator()(FileWatcher*) const::{lambda(std::__ndk1::__fs::filesystem::path, FileStatus)#1}, std::__ndk1::allocator<UIModding::startFileListeners()::$_0::operator()(FileWatcher*) const::{lambda(std::__ndk1::__fs::filesystem::path, FileStatus)#1}>, void (std::__ndk1::__fs::filesystem::path, FileStatus)>::target_type() const
PUBLIC 99414 0 std::__ndk1::__function::__base<void ()>::~__base()
PUBLIC 99418 0 std::__ndk1::__function::__func<UIModding::startFileListeners()::$_0::operator()(FileWatcher*) const::{lambda(std::__ndk1::__fs::filesystem::path(std::__ndk1::__fs::filesystem::path, FileStatus), FileStatus)#1}::operator() const::{lambda()#1}, std::__ndk1::allocator<UIModding::startFileListeners()::$_0::operator()(FileWatcher*) const::{lambda(std::__ndk1::__fs::filesystem::path(std::__ndk1::__fs::filesystem::path, FileStatus), FileStatus)#1}::operator() const::{lambda()#1}>, void ()>::~__func()
PUBLIC 9941c 0 std::__ndk1::__function::__func<UIModding::startFileListeners()::$_0::operator()(FileWatcher*) const::{lambda(std::__ndk1::__fs::filesystem::path(std::__ndk1::__fs::filesystem::path, FileStatus), FileStatus)#1}::operator() const::{lambda()#1}, std::__ndk1::allocator<UIModding::startFileListeners()::$_0::operator()(FileWatcher*) const::{lambda(std::__ndk1::__fs::filesystem::path(std::__ndk1::__fs::filesystem::path, FileStatus), FileStatus)#1}::operator() const::{lambda()#1}>, void ()>::__clone() const
PUBLIC 99440 0 std::__ndk1::__function::__func<UIModding::startFileListeners()::$_0::operator()(FileWatcher*) const::{lambda(std::__ndk1::__fs::filesystem::path(std::__ndk1::__fs::filesystem::path, FileStatus), FileStatus)#1}::operator() const::{lambda()#1}, std::__ndk1::allocator<UIModding::startFileListeners()::$_0::operator()(FileWatcher*) const::{lambda(std::__ndk1::__fs::filesystem::path(std::__ndk1::__fs::filesystem::path, FileStatus), FileStatus)#1}::operator() const::{lambda()#1}>, void ()>::__clone(std::__ndk1::__function::__base<void ()>*) const
PUBLIC 99450 0 std::__ndk1::__function::__func<UIModding::startFileListeners()::$_0::operator()(FileWatcher*) const::{lambda(std::__ndk1::__fs::filesystem::path(std::__ndk1::__fs::filesystem::path, FileStatus), FileStatus)#1}::operator() const::{lambda()#1}, std::__ndk1::allocator<UIModding::startFileListeners()::$_0::operator()(FileWatcher*) const::{lambda(std::__ndk1::__fs::filesystem::path(std::__ndk1::__fs::filesystem::path, FileStatus), FileStatus)#1}::operator() const::{lambda()#1}>, void ()>::destroy()
PUBLIC 99454 0 std::__ndk1::__function::__func<UIModding::startFileListeners()::$_0::operator()(FileWatcher*) const::{lambda(std::__ndk1::__fs::filesystem::path(std::__ndk1::__fs::filesystem::path, FileStatus), FileStatus)#1}::operator() const::{lambda()#1}, std::__ndk1::allocator<UIModding::startFileListeners()::$_0::operator()(FileWatcher*) const::{lambda(std::__ndk1::__fs::filesystem::path(std::__ndk1::__fs::filesystem::path, FileStatus), FileStatus)#1}::operator() const::{lambda()#1}>, void ()>::destroy_deallocate()
PUBLIC 99458 0 std::__ndk1::__function::__func<UIModding::startFileListeners()::$_0::operator()(FileWatcher*) const::{lambda(std::__ndk1::__fs::filesystem::path(std::__ndk1::__fs::filesystem::path, FileStatus), FileStatus)#1}::operator() const::{lambda()#1}, std::__ndk1::allocator<UIModding::startFileListeners()::$_0::operator()(FileWatcher*) const::{lambda(std::__ndk1::__fs::filesystem::path(std::__ndk1::__fs::filesystem::path, FileStatus), FileStatus)#1}::operator() const::{lambda()#1}>, void ()>::operator()()
PUBLIC 99664 0 std::__ndk1::__function::__func<UIModding::startFileListeners()::$_0::operator()(FileWatcher*) const::{lambda(std::__ndk1::__fs::filesystem::path(std::__ndk1::__fs::filesystem::path, FileStatus), FileStatus)#1}::operator() const::{lambda()#1}, std::__ndk1::allocator<UIModding::startFileListeners()::$_0::operator()(FileWatcher*) const::{lambda(std::__ndk1::__fs::filesystem::path(std::__ndk1::__fs::filesystem::path, FileStatus), FileStatus)#1}::operator() const::{lambda()#1}>, void ()>::target(std::type_info const&) const
PUBLIC 99680 0 std::__ndk1::__function::__func<UIModding::startFileListeners()::$_0::operator()(FileWatcher*) const::{lambda(std::__ndk1::__fs::filesystem::path(std::__ndk1::__fs::filesystem::path, FileStatus), FileStatus)#1}::operator() const::{lambda()#1}, std::__ndk1::allocator<UIModding::startFileListeners()::$_0::operator()(FileWatcher*) const::{lambda(std::__ndk1::__fs::filesystem::path(std::__ndk1::__fs::filesystem::path, FileStatus), FileStatus)#1}::operator() const::{lambda()#1}>, void ()>::target_type() const
PUBLIC 9968c 0 std::__ndk1::__tree<std::__ndk1::__value_type<std::__ndk1::basic_string<char, std::__ndk1::char_traits<char>, std::__ndk1::allocator<char> >, matjson::Value>, std::__ndk1::__map_value_compare<std::__ndk1::basic_string<char, std::__ndk1::char_traits<char>, std::__ndk1::allocator<char> >, std::__ndk1::__value_type<std::__ndk1::basic_string<char, std::__ndk1::char_traits<char>, std::__ndk1::allocator<char> >, matjson::Value>, std::__ndk1::less<std::__ndk1::basic_string<char, std::__ndk1::char_traits<char>, std::__ndk1::allocator<char> > >, true>, std::__ndk1::allocator<std::__ndk1::__value_type<std::__ndk1::basic_string<char, std::__ndk1::char_traits<char>, std::__ndk1::allocator<char> >, matjson::Value> > >::__emplace_unique_key_args<std::__ndk1::basic_string<char, std::__ndk1::char_traits<char>, std::__ndk1::allocator<char> >, std::__ndk1::pair<std::__ndk1::basic_string<char, std::__ndk1::char_traits<char>, std::__ndk1::allocator<char> > const, matjson::Value> >(std::__ndk1::basic_string<char, std::__ndk1::char_traits<char>, std::__ndk1::allocator<char> > const&, std::__ndk1::pair<std::__ndk1::basic_string<char, std::__ndk1::char_traits<char>, std::__ndk1::allocator<char> > const, matjson::Value>&&)
PUBLIC 99860 0 std::__ndk1::unique_ptr<std::__ndk1::__tree_node<std::__ndk1::__value_type<std::__ndk1::basic_string<char, std::__ndk1::char_traits<char>, std::__ndk1::allocator<char> >, matjson::Value>, void*>, std::__ndk1::__tree_node_destructor<std::__ndk1::allocator<std::__ndk1::__tree_node<std::__ndk1::__value_type<std::__ndk1::basic_string<char, std::__ndk1::char_traits<char>, std::__ndk1::allocator<char> >, matjson::Value>, void*> > > >::~unique_ptr[abi:ne180000]()
PUBLIC 998b4 0 std::__ndk1::__tree<std::__ndk1::__value_type<std::__ndk1::basic_string<char, std::__ndk1::char_traits<char>, std::__ndk1::allocator<char> >, matjson::Value>, std::__ndk1::__map_value_compare<std::__ndk1::basic_string<char, std::__ndk1::char_traits<char>, std::__ndk1::allocator<char> >, std::__ndk1::__value_type<std::__ndk1::basic_string<char, std::__ndk1::char_traits<char>, std::__ndk1::allocator<char> >, matjson::Value>, std::__ndk1::less<std::__ndk1::basic_string<char, std::__ndk1::char_traits<char>, std::__ndk1::allocator<char> > >, true>, std::__ndk1::allocator<std::__ndk1::__value_type<std::__ndk1::basic_string<char, std::__ndk1::char_traits<char>, std::__ndk1::allocator<char> >, matjson::Value> > >::find<std::__ndk1::basic_string<char, std::__ndk1::char_traits<char>, std::__ndk1::allocator<char> > >(std::__ndk1::basic_string<char, std::__ndk1::char_traits<char>, std::__ndk1::allocator<char> > const&) const
PUBLIC 999d4 0 std::__ndk1::__tree<std::__ndk1::__value_type<std::__ndk1::basic_string<char, std::__ndk1::char_traits<char>, std::__ndk1::allocator<char> >, matjson::Value>, std::__ndk1::__map_value_compare<std::__ndk1::basic_string<char, std::__ndk1::char_traits<char>, std::__ndk1::allocator<char> >, std::__ndk1::__value_type<std::__ndk1::basic_string<char, std::__ndk1::char_traits<char>, std::__ndk1::allocator<char> >, matjson::Value>, std::__ndk1::less<std::__ndk1::basic_string<char, std::__ndk1::char_traits<char>, std::__ndk1::allocator<char> > >, true>, std::__ndk1::allocator<std::__ndk1::__value_type<std::__ndk1::basic_string<char, std::__ndk1::char_traits<char>, std::__ndk1::allocator<char> >, matjson::Value> > >::__emplace_unique_key_args<std::__ndk1::basic_string<char, std::__ndk1::char_traits<char>, std::__ndk1::allocator<char> >, std::__ndk1::piecewise_construct_t const&, std::__ndk1::tuple<std::__ndk1::basic_string<char, std::__ndk1::char_traits<char>, std::__ndk1::allocator<char> > const&>, std::__ndk1::tuple<> >(std::__ndk1::basic_string<char, std::__ndk1::char_traits<char>, std::__ndk1::allocator<char> > const&, std::__ndk1::piecewise_construct_t const&, std::__ndk1::tuple<std::__ndk1::basic_string<char, std::__ndk1::char_traits<char>, std::__ndk1::allocator<char> > const&>, std::__ndk1::tuple<>)
PUBLIC 99be4 0 _GLOBAL__sub_I_UIModding.cpp
PUBLIC 9a400 0 CustomAlert::create(float, float, std::__ndk1::basic_string<char, std::__ndk1::char_traits<char>, std::__ndk1::allocator<char> >, std::__ndk1::basic_string<char, std::__ndk1::char_traits<char>, std::__ndk1::allocator<char> >)
PUBLIC 9a75c 0 geode::Popup<>::setTitle(std::__ndk1::basic_string<char, std::__ndk1::char_traits<char>, std::__ndk1::allocator<char> > const&, char const*, float, float)
PUBLIC 9a8a8 0 CustomAlert::setup()
PUBLIC 9a8b0 0 geode::Popup<>::~Popup()
PUBLIC 9a91c 0 CustomAlert::~CustomAlert()
PUBLIC 9a990 0 geode::Popup<>::registerWithTouchDispatcher()
PUBLIC 9a9bc 0 geode::Popup<>::keyDown(cocos2d::enumKeyCodes)
PUBLIC 9a9e4 0 cocos2d::CCLayerRGBA::setOpacityModifyRGB(bool)
PUBLIC 9a9e8 0 cocos2d::CCLayerRGBA::isOpacityModifyRGB()
PUBLIC 9a9f0 0 geode::Popup<>::onClose(cocos2d::CCObject*)
PUBLIC 9ab38 0 {virtual override thunk({offset(-320)}, CustomAlert::~CustomAlert())}
PUBLIC 9aba4 0 {virtual override thunk({offset(-320)}, CustomAlert::~CustomAlert())}
PUBLIC 9ac18 0 {virtual override thunk({offset(-344)}, geode::Popup<>::keyDown(cocos2d::enumKeyCodes))}
PUBLIC 9ac44 0 cocos2d::CCKeyboardDelegate::keyUp(cocos2d::enumKeyCodes)
PUBLIC 9ac48 0 cocos2d::CCMouseDelegate::rightKeyDown()
PUBLIC 9ac4c 0 cocos2d::CCMouseDelegate::rightKeyUp()
PUBLIC 9ac50 0 cocos2d::CCMouseDelegate::scrollWheel(float, float)
PUBLIC 9ac54 0 {virtual override thunk({offset(-408)}, cocos2d::CCLayerRGBA::setOpacityModifyRGB(bool))}
PUBLIC 9ac58 0 {virtual override thunk({offset(-408)}, cocos2d::CCLayerRGBA::isOpacityModifyRGB())}
PUBLIC 9ac60 0 geode::Popup<>::~Popup()
PUBLIC 9ac64 0 {virtual override thunk({offset(-320)}, geode::Popup<>::~Popup())}
PUBLIC 9acd0 0 {virtual override thunk({offset(-320)}, geode::Popup<>::~Popup())}
PUBLIC 9acd4 0 geode::Popup<>::initBase(float, float, char const*, cocos2d::CCRect, bool)
PUBLIC 9afdc 0 geode::Popup<>::CloseEvent::~CloseEvent()
PUBLIC 9b03c 0 geode::Popup<>::CloseEvent::~CloseEvent()
PUBLIC 9b0ac 0 std::__ndk1::__shared_ptr_emplace<geode::Popup<>::CloseEvent::Impl, std::__ndk1::allocator<geode::Popup<>::CloseEvent::Impl> >::~__shared_ptr_emplace()
PUBLIC 9b0bc 0 std::__ndk1::__shared_ptr_emplace<geode::Popup<>::CloseEvent::Impl, std::__ndk1::allocator<geode::Popup<>::CloseEvent::Impl> >::~__shared_ptr_emplace()
PUBLIC 9b0ec 0 std::__ndk1::__shared_ptr_emplace<geode::Popup<>::CloseEvent::Impl, std::__ndk1::allocator<geode::Popup<>::CloseEvent::Impl> >::__on_zero_shared()
PUBLIC 9b0f0 0 std::__ndk1::__shared_ptr_emplace<geode::Popup<>::CloseEvent::Impl, std::__ndk1::allocator<geode::Popup<>::CloseEvent::Impl> >::__on_zero_shared_weak()
PUBLIC 9b0f4 0 __cxx_global_var_init
PUBLIC 9b530 0 __cxx_global_var_init.1
PUBLIC 9b96c 0 __cxx_global_var_init.2
PUBLIC 9bda8 0 __cxx_global_var_init.3
PUBLIC 9c1e4 0 geode::modifier::ModifyBase<geode::modifier::ModifyDerive<hook12<(anonymous namespace)::hook12Parent>, GJBaseGameLayer> >::~ModifyBase()
PUBLIC 9c200 0 geode::modifier::ModifyBase<geode::modifier::ModifyDerive<hook21<(anonymous namespace)::hook21Parent>, cocos2d::CCSpriteBatchNode> >::~ModifyBase()
PUBLIC 9c21c 0 geode::modifier::ModifyBase<geode::modifier::ModifyDerive<hook36<(anonymous namespace)::hook36Parent>, cocos2d::CCLabelBMFont> >::~ModifyBase()
PUBLIC 9c238 0 geode::modifier::ModifyBase<geode::modifier::ModifyDerive<hook51<(anonymous namespace)::hook51Parent>, cocos2d::CCTextureCache> >::~ModifyBase()
PUBLIC 9c254 0 geode::modifier::ModifyDerive<hook12<(anonymous namespace)::hook12Parent>, GJBaseGameLayer>::apply()
PUBLIC 9c590 0 geode::modifier::ModifyBase<geode::modifier::ModifyDerive<hook12<(anonymous namespace)::hook12Parent>, GJBaseGameLayer> >::apply()
PUBLIC 9c594 0 geode::modifier::AsStaticFunction_createTextLayers<hook12<(anonymous namespace)::hook12Parent>, void (hook12<(anonymous namespace)::hook12Parent>::*)()>::Impl<void (hook12<(anonymous namespace)::hook12Parent>::*)()>::function(hook12<(anonymous namespace)::hook12Parent>*)
PUBLIC 9c5c0 0 geode::modifier::ModifyDerive<hook21<(anonymous namespace)::hook21Parent>, cocos2d::CCSpriteBatchNode>::apply()
PUBLIC 9c990 0 geode::modifier::ModifyBase<geode::modifier::ModifyDerive<hook21<(anonymous namespace)::hook21Parent>, cocos2d::CCSpriteBatchNode> >::apply()
PUBLIC 9c994 0 geode::modifier::AsStaticFunction_initWithTexture<hook21<(anonymous namespace)::hook21Parent>, bool (hook21<(anonymous namespace)::hook21Parent>::*)(cocos2d::CCTexture2D*, unsigned int)>::Impl<bool (hook21<(anonymous namespace)::hook21Parent>::*)(cocos2d::CCTexture2D*, unsigned int)>::function(hook21<(anonymous namespace)::hook21Parent>*, cocos2d::CCTexture2D*, unsigned int)
PUBLIC 9ca3c 0 geode::modifier::ModifyDerive<hook36<(anonymous namespace)::hook36Parent>, cocos2d::CCLabelBMFont>::apply()
PUBLIC 9ce14 0 geode::modifier::ModifyBase<geode::modifier::ModifyDerive<hook36<(anonymous namespace)::hook36Parent>, cocos2d::CCLabelBMFont> >::apply()
PUBLIC 9ce18 0 geode::modifier::AsStaticFunction_createBatched<hook36<(anonymous namespace)::hook36Parent>, cocos2d::CCLabelBMFont* (*)(char const*, char const*, cocos2d::CCArray*, int)>::Impl<cocos2d::CCLabelBMFont* (*)(char const*, char const*, cocos2d::CCArray*, int)>::function(char const*, char const*, cocos2d::CCArray*, int)
PUBLIC 9cec8 0 geode::modifier::ModifyDerive<hook51<(anonymous namespace)::hook51Parent>, cocos2d::CCTextureCache>::apply()
PUBLIC 9d28c 0 geode::modifier::ModifyBase<geode::modifier::ModifyDerive<hook51<(anonymous namespace)::hook51Parent>, cocos2d::CCTextureCache> >::apply()
PUBLIC 9d290 0 geode::modifier::AsStaticFunction_addImage<hook51<(anonymous namespace)::hook51Parent>, cocos2d::CCTexture2D* (hook51<(anonymous namespace)::hook51Parent>::*)(char const*, bool)>::Impl<cocos2d::CCTexture2D* (hook51<(anonymous namespace)::hook51Parent>::*)(char const*, bool)>::function(hook51<(anonymous namespace)::hook51Parent>*, char const*, bool)
PUBLIC 9d358 0 setBackground(cocos2d::CCNode*)
PUBLIC 9d4b0 0 Utils::setColorIfExists(cocos2d::CCRGBAProtocol*, std::__ndk1::basic_string<char, std::__ndk1::char_traits<char>, std::__ndk1::allocator<char> >)
PUBLIC 9d61c 0 __cxx_global_var_init.4
PUBLIC 9db28 0 geode::modifier::ModifyBase<geode::modifier::ModifyDerive<EventCCMenu, cocos2d::CCMenu> >::~ModifyBase()
PUBLIC 9db44 0 __cxx_global_var_init.5
PUBLIC 9e0ac 0 geode::modifier::ModifyBase<geode::modifier::ModifyDerive<MyCCScale9Sprite, cocos2d::extension::CCScale9Sprite> >::~ModifyBase()
PUBLIC 9e0c8 0 __cxx_global_var_init.6
PUBLIC 9e5d4 0 geode::modifier::ModifyBase<geode::modifier::ModifyDerive<MyCommentCell, CommentCell> >::~ModifyBase()
PUBLIC 9e5f0 0 __cxx_global_var_init.7
PUBLIC 9eafc 0 geode::modifier::ModifyBase<geode::modifier::ModifyDerive<MyEditLevelLayer, EditLevelLayer> >::~ModifyBase()
PUBLIC 9eb18 0 __cxx_global_var_init.8
PUBLIC 9f024 0 geode::modifier::ModifyBase<geode::modifier::ModifyDerive<MyGJCommentListLayer, GJCommentListLayer> >::~ModifyBase()
PUBLIC 9f040 0 __cxx_global_var_init.9
PUBLIC 9f54c 0 geode::modifier::ModifyBase<geode::modifier::ModifyDerive<MyGJDropDownLayer, GJDropDownLayer> >::~ModifyBase()
PUBLIC 9f568 0 __cxx_global_var_init.10
PUBLIC 9fa74 0 geode::modifier::ModifyBase<geode::modifier::ModifyDerive<MyGJListLayer, GJListLayer> >::~ModifyBase()
PUBLIC 9fa90 0 __cxx_global_var_init.11
PUBLIC 9ff9c 0 geode::modifier::ModifyBase<geode::modifier::ModifyDerive<MyInfoLayer, InfoLayer> >::~ModifyBase()
PUBLIC 9ffb8 0 __cxx_global_var_init.12
PUBLIC a04c4 0 geode::modifier::ModifyBase<geode::modifier::ModifyDerive<MyLevelCell, LevelCell> >::~ModifyBase()
PUBLIC a04e0 0 __cxx_global_var_init.13
PUBLIC a09ec 0 geode::modifier::ModifyBase<geode::modifier::ModifyDerive<MyLevelListCell, LevelListCell> >::~ModifyBase()
PUBLIC a0a08 0 __cxx_global_var_init.14
PUBLIC a0f14 0 geode::modifier::ModifyBase<geode::modifier::ModifyDerive<MyGJScoreCell, GJScoreCell> >::~ModifyBase()
PUBLIC a0f30 0 __cxx_global_var_init.15
PUBLIC a143c 0 geode::modifier::ModifyBase<geode::modifier::ModifyDerive<MyGJUserCell, GJUserCell> >::~ModifyBase()
PUBLIC a1458 0 __cxx_global_var_init.16
PUBLIC a1964 0 geode::modifier::ModifyBase<geode::modifier::ModifyDerive<MyAchievementCell, AchievementCell> >::~ModifyBase()
PUBLIC a1980 0 __cxx_global_var_init.17
PUBLIC a1e8c 0 geode::modifier::ModifyBase<geode::modifier::ModifyDerive<MyStatsCell, StatsCell> >::~ModifyBase()
PUBLIC a1ea8 0 __cxx_global_var_init.18
PUBLIC a23b4 0 geode::modifier::ModifyBase<geode::modifier::ModifyDerive<MyGJMessageCell, GJMessageCell> >::~ModifyBase()
PUBLIC a23d0 0 __cxx_global_var_init.19
PUBLIC a28dc 0 geode::modifier::ModifyBase<geode::modifier::ModifyDerive<MyMapPackCell, MapPackCell> >::~ModifyBase()
PUBLIC a28f8 0 __cxx_global_var_init.20
PUBLIC a2e04 0 geode::modifier::ModifyBase<geode::modifier::ModifyDerive<MyGJLevelScoreCell, GJLevelScoreCell> >::~ModifyBase()
PUBLIC a2e20 0 __cxx_global_var_init.21
PUBLIC a332c 0 geode::modifier::ModifyBase<geode::modifier::ModifyDerive<MyGJRequestCell, GJRequestCell> >::~ModifyBase()
PUBLIC a3348 0 __cxx_global_var_init.22
PUBLIC a3854 0 geode::modifier::ModifyBase<geode::modifier::ModifyDerive<MyLevelSearchLayer, LevelSearchLayer> >::~ModifyBase()
PUBLIC a3870 0 __cxx_global_var_init.23
PUBLIC a3cf0 0 geode::modifier::ModifyBase<geode::modifier::ModifyDerive<MyLoadingLayer, LoadingLayer> >::~ModifyBase()
PUBLIC a3d0c 0 __cxx_global_var_init.24
PUBLIC a4218 0 geode::modifier::ModifyBase<geode::modifier::ModifyDerive<MyMenuGameLayer, MenuGameLayer> >::~ModifyBase()
PUBLIC a4234 0 __cxx_global_var_init.25
PUBLIC a4740 0 geode::modifier::ModifyBase<geode::modifier::ModifyDerive<MyMenuLayer, MenuLayer> >::~ModifyBase()
PUBLIC a475c 0 __cxx_global_var_init.26
PUBLIC a4c68 0 geode::modifier::ModifyBase<geode::modifier::ModifyDerive<MyGJChestSprite, GJChestSprite> >::~ModifyBase()
PUBLIC a4c84 0 __cxx_global_var_init.27
PUBLIC a4cd0 0 geode::modifier::ModifyBase<geode::modifier::ModifyDerive<MyCCTextInputNode, CCTextInputNode> >::~ModifyBase()
PUBLIC a4cec 0 __cxx_global_var_init.28
PUBLIC a51f8 0 geode::modifier::ModifyBase<geode::modifier::ModifyDerive<MyLevelInfoLayer, LevelInfoLayer> >::~ModifyBase()
PUBLIC a5214 0 __cxx_global_var_init.29
PUBLIC a5720 0 geode::modifier::ModifyBase<geode::modifier::ModifyDerive<MyCustomMusicCell, CustomMusicCell> >::~ModifyBase()
PUBLIC a573c 0 __cxx_global_var_init.32
PUBLIC a5c48 0 geode::modifier::ModifyBase<geode::modifier::ModifyDerive<MyGJGarageLayer, GJGarageLayer> >::~ModifyBase()
PUBLIC a5c64 0 __cxx_global_var_init.34
PUBLIC a6298 0 geode::modifier::ModifyBase<geode::modifier::ModifyDerive<MyCCSpriteWithHue, CCSpriteWithHue> >::~ModifyBase()
PUBLIC a62b4 0 __cxx_global_var_init.35
PUBLIC a67ac 0 geode::modifier::ModifyBase<geode::modifier::ModifyDerive<MyCCSprite, cocos2d::CCSprite> >::~ModifyBase()
PUBLIC a67c8 0 __cxx_global_var_init.36
PUBLIC a6c48 0 geode::modifier::ModifyBase<geode::modifier::ModifyDerive<MyCCDirector, cocos2d::CCDirector> >::~ModifyBase()
PUBLIC a6c64 0 __cxx_global_var_init.37
PUBLIC a70a0 0 __cxx_global_var_init.38
PUBLIC a74dc 0 __cxx_global_var_init.39
PUBLIC a79a0 0 __cxx_global_var_init.40
PUBLIC a7e64 0 __cxx_global_var_init.41
PUBLIC a8328 0 _GLOBAL__sub_I_main.cpp
PUBLIC a84f0 0 geode::modifier::ModifyBase<geode::modifier::ModifyDerive<hook76<(anonymous namespace)::hook76Parent>, cocos2d::CCObject> >::~ModifyBase()
PUBLIC a850c 0 geode::modifier::ModifyBase<geode::modifier::ModifyDerive<hook97<(anonymous namespace)::hook97Parent>, cocos2d::CCPoolManager> >::~ModifyBase()
PUBLIC a8528 0 geode::modifier::ModifyBase<geode::modifier::ModifyDerive<hook22<(anonymous namespace)::hook22Parent>, cocos2d::CCDirector> >::~ModifyBase()
PUBLIC a8544 0 geode::modifier::ModifyBase<geode::modifier::ModifyDerive<hook34<(anonymous namespace)::hook34Parent>, LeaderboardsLayer> >::~ModifyBase()
PUBLIC a8560 0 geode::modifier::ModifyBase<geode::modifier::ModifyDerive<hook47<(anonymous namespace)::hook47Parent>, LevelBrowserLayer> >::~ModifyBase()
PUBLIC a857c 0 std::__ndk1::__throw_bad_optional_access[abi:ne180000]()
PUBLIC a85b0 0 Utils::getHookPrioLatest(std::__ndk1::basic_string<char, std::__ndk1::char_traits<char>, std::__ndk1::allocator<char> > const&)
PUBLIC a8804 0 std::__ndk1::__function::__func<geodeExecFunction58<(anonymous namespace)::ExecFuncUnique58>()::{lambda()#1}, std::__ndk1::allocator<geodeExecFunction58<(anonymous namespace)::ExecFuncUnique58>()::{lambda()#1}>, void ()>::~__func()
PUBLIC a8808 0 std::__ndk1::__function::__func<geodeExecFunction58<(anonymous namespace)::ExecFuncUnique58>()::{lambda()#1}, std::__ndk1::allocator<geodeExecFunction58<(anonymous namespace)::ExecFuncUnique58>()::{lambda()#1}>, void ()>::__clone() const
PUBLIC a882c 0 std::__ndk1::__function::__func<geodeExecFunction58<(anonymous namespace)::ExecFuncUnique58>()::{lambda()#1}, std::__ndk1::allocator<geodeExecFunction58<(anonymous namespace)::ExecFuncUnique58>()::{lambda()#1}>, void ()>::__clone(std::__ndk1::__function::__base<void ()>*) const
PUBLIC a883c 0 std::__ndk1::__function::__func<geodeExecFunction58<(anonymous namespace)::ExecFuncUnique58>()::{lambda()#1}, std::__ndk1::allocator<geodeExecFunction58<(anonymous namespace)::ExecFuncUnique58>()::{lambda()#1}>, void ()>::destroy()
PUBLIC a8840 0 std::__ndk1::__function::__func<geodeExecFunction58<(anonymous namespace)::ExecFuncUnique58>()::{lambda()#1}, std::__ndk1::allocator<geodeExecFunction58<(anonymous namespace)::ExecFuncUnique58>()::{lambda()#1}>, void ()>::destroy_deallocate()
PUBLIC a8844 0 std::__ndk1::__function::__func<geodeExecFunction58<(anonymous namespace)::ExecFuncUnique58>()::{lambda()#1}, std::__ndk1::allocator<geodeExecFunction58<(anonymous namespace)::ExecFuncUnique58>()::{lambda()#1}>, void ()>::operator()()
PUBLIC a88d8 0 std::__ndk1::__function::__func<geodeExecFunction58<(anonymous namespace)::ExecFuncUnique58>()::{lambda()#1}, std::__ndk1::allocator<geodeExecFunction58<(anonymous namespace)::ExecFuncUnique58>()::{lambda()#1}>, void ()>::target(std::type_info const&) const
PUBLIC a88f4 0 std::__ndk1::__function::__func<geodeExecFunction58<(anonymous namespace)::ExecFuncUnique58>()::{lambda()#1}, std::__ndk1::allocator<geodeExecFunction58<(anonymous namespace)::ExecFuncUnique58>()::{lambda()#1}>, void ()>::target_type() const
PUBLIC a8900 0 geode::modifier::ModifyDerive<EventCCMenu, cocos2d::CCMenu>::apply()
PUBLIC a8c88 0 geode::modifier::ModifyBase<geode::modifier::ModifyDerive<EventCCMenu, cocos2d::CCMenu> >::apply()
PUBLIC a8c8c 0 std::__ndk1::__function::__func<EventCCMenu::onModify<geode::modifier::ModifyBase<geode::modifier::ModifyDerive<EventCCMenu, cocos2d::CCMenu> > >(geode::modifier::ModifyBase<geode::modifier::ModifyDerive<EventCCMenu, cocos2d::CCMenu> >&)::{lambda()#1}, std::__ndk1::allocator<EventCCMenu::onModify<geode::modifier::ModifyBase<geode::modifier::ModifyDerive<EventCCMenu, cocos2d::CCMenu> > >(geode::modifier::ModifyBase<geode::modifier::ModifyDerive<EventCCMenu, cocos2d::CCMenu> >&)::{lambda()#1}>, void ()>::~__func()
PUBLIC a8c90 0 std::__ndk1::__function::__func<EventCCMenu::onModify<geode::modifier::ModifyBase<geode::modifier::ModifyDerive<EventCCMenu, cocos2d::CCMenu> > >(geode::modifier::ModifyBase<geode::modifier::ModifyDerive<EventCCMenu, cocos2d::CCMenu> >&)::{lambda()#1}, std::__ndk1::allocator<EventCCMenu::onModify<geode::modifier::ModifyBase<geode::modifier::ModifyDerive<EventCCMenu, cocos2d::CCMenu> > >(geode::modifier::ModifyBase<geode::modifier::ModifyDerive<EventCCMenu, cocos2d::CCMenu> >&)::{lambda()#1}>, void ()>::__clone() const
PUBLIC a8cc4 0 std::__ndk1::__function::__func<EventCCMenu::onModify<geode::modifier::ModifyBase<geode::modifier::ModifyDerive<EventCCMenu, cocos2d::CCMenu> > >(geode::modifier::ModifyBase<geode::modifier::ModifyDerive<EventCCMenu, cocos2d::CCMenu> >&)::{lambda()#1}, std::__ndk1::allocator<EventCCMenu::onModify<geode::modifier::ModifyBase<geode::modifier::ModifyDerive<EventCCMenu, cocos2d::CCMenu> > >(geode::modifier::ModifyBase<geode::modifier::ModifyDerive<EventCCMenu, cocos2d::CCMenu> >&)::{lambda()#1}>, void ()>::__clone(std::__ndk1::__function::__base<void ()>*) const
PUBLIC a8cd8 0 std::__ndk1::__function::__func<EventCCMenu::onModify<geode::modifier::ModifyBase<geode::modifier::ModifyDerive<EventCCMenu, cocos2d::CCMenu> > >(geode::modifier::ModifyBase<geode::modifier::ModifyDerive<EventCCMenu, cocos2d::CCMenu> >&)::{lambda()#1}, std::__ndk1::allocator<EventCCMenu::onModify<geode::modifier::ModifyBase<geode::modifier::ModifyDerive<EventCCMenu, cocos2d::CCMenu> > >(geode::modifier::ModifyBase<geode::modifier::ModifyDerive<EventCCMenu, cocos2d::CCMenu> >&)::{lambda()#1}>, void ()>::destroy()
PUBLIC a8cdc 0 std::__ndk1::__function::__func<EventCCMenu::onModify<geode::modifier::ModifyBase<geode::modifier::ModifyDerive<EventCCMenu, cocos2d::CCMenu> > >(geode::modifier::ModifyBase<geode::modifier::ModifyDerive<EventCCMenu, cocos2d::CCMenu> >&)::{lambda()#1}, std::__ndk1::allocator<EventCCMenu::onModify<geode::modifier::ModifyBase<geode::modifier::ModifyDerive<EventCCMenu, cocos2d::CCMenu> > >(geode::modifier::ModifyBase<geode::modifier::ModifyDerive<EventCCMenu, cocos2d::CCMenu> >&)::{lambda()#1}>, void ()>::destroy_deallocate()
PUBLIC a8ce0 0 std::__ndk1::__function::__func<EventCCMenu::onModify<geode::modifier::ModifyBase<geode::modifier::ModifyDerive<EventCCMenu, cocos2d::CCMenu> > >(geode::modifier::ModifyBase<geode::modifier::ModifyDerive<EventCCMenu, cocos2d::CCMenu> >&)::{lambda()#1}, std::__ndk1::allocator<EventCCMenu::onModify<geode::modifier::ModifyBase<geode::modifier::ModifyDerive<EventCCMenu, cocos2d::CCMenu> > >(geode::modifier::ModifyBase<geode::modifier::ModifyDerive<EventCCMenu, cocos2d::CCMenu> >&)::{lambda()#1}>, void ()>::operator()()
PUBLIC a9278 0 std::__ndk1::__function::__func<EventCCMenu::onModify<geode::modifier::ModifyBase<geode::modifier::ModifyDerive<EventCCMenu, cocos2d::CCMenu> > >(geode::modifier::ModifyBase<geode::modifier::ModifyDerive<EventCCMenu, cocos2d::CCMenu> >&)::{lambda()#1}, std::__ndk1::allocator<EventCCMenu::onModify<geode::modifier::ModifyBase<geode::modifier::ModifyDerive<EventCCMenu, cocos2d::CCMenu> > >(geode::modifier::ModifyBase<geode::modifier::ModifyDerive<EventCCMenu, cocos2d::CCMenu> >&)::{lambda()#1}>, void ()>::target(std::type_info const&) const
PUBLIC a9294 0 std::__ndk1::__function::__func<EventCCMenu::onModify<geode::modifier::ModifyBase<geode::modifier::ModifyDerive<EventCCMenu, cocos2d::CCMenu> > >(geode::modifier::ModifyBase<geode::modifier::ModifyDerive<EventCCMenu, cocos2d::CCMenu> >&)::{lambda()#1}, std::__ndk1::allocator<EventCCMenu::onModify<geode::modifier::ModifyBase<geode::modifier::ModifyDerive<EventCCMenu, cocos2d::CCMenu> > >(geode::modifier::ModifyBase<geode::modifier::ModifyDerive<EventCCMenu, cocos2d::CCMenu> >&)::{lambda()#1}>, void ()>::target_type() const
PUBLIC a92a0 0 geode::modifier::ModifyBase<geode::modifier::ModifyDerive<EventCCMenu, cocos2d::CCMenu> >::setHookPriorityBefore(std::__ndk1::basic_string_view<char, std::__ndk1::char_traits<char> >, geode::Mod*)::{lambda(geode::ModStateEvent*)#1}::operator()(geode::ModStateEvent*) const
PUBLIC a93b0 0 std::__ndk1::__function::__func<geode::modifier::ModifyBase<geode::modifier::ModifyDerive<EventCCMenu, cocos2d::CCMenu> >::setHookPriorityBefore(std::__ndk1::basic_string_view<char, std::__ndk1::char_traits<char> >, geode::Mod*)::{lambda(geode::ModStateEvent*)#1}, std::__ndk1::allocator<geode::modifier::ModifyBase<geode::modifier::ModifyDerive<EventCCMenu, cocos2d::CCMenu> >::setHookPriorityBefore(std::__ndk1::basic_string_view<char, std::__ndk1::char_traits<char> >, geode::Mod*)::{lambda(geode::ModStateEvent*)#1}>, void (geode::ModStateEvent*)>::~__func()
PUBLIC a93b4 0 std::__ndk1::__function::__func<geode::modifier::ModifyBase<geode::modifier::ModifyDerive<EventCCMenu, cocos2d::CCMenu> >::setHookPriorityBefore(std::__ndk1::basic_string_view<char, std::__ndk1::char_traits<char> >, geode::Mod*)::{lambda(geode::ModStateEvent*)#1}, std::__ndk1::allocator<geode::modifier::ModifyBase<geode::modifier::ModifyDerive<EventCCMenu, cocos2d::CCMenu> >::setHookPriorityBefore(std::__ndk1::basic_string_view<char, std::__ndk1::char_traits<char> >, geode::Mod*)::{lambda(geode::ModStateEvent*)#1}>, void (geode::ModStateEvent*)>::__clone() const
PUBLIC a93ec 0 std::__ndk1::__function::__func<geode::modifier::ModifyBase<geode::modifier::ModifyDerive<EventCCMenu, cocos2d::CCMenu> >::setHookPriorityBefore(std::__ndk1::basic_string_view<char, std::__ndk1::char_traits<char> >, geode::Mod*)::{lambda(geode::ModStateEvent*)#1}, std::__ndk1::allocator<geode::modifier::ModifyBase<geode::modifier::ModifyDerive<EventCCMenu, cocos2d::CCMenu> >::setHookPriorityBefore(std::__ndk1::basic_string_view<char, std::__ndk1::char_traits<char> >, geode::Mod*)::{lambda(geode::ModStateEvent*)#1}>, void (geode::ModStateEvent*)>::__clone(std::__ndk1::__function::__base<void (geode::ModStateEvent*)>*) const
PUBLIC a9404 0 std::__ndk1::__function::__func<geode::modifier::ModifyBase<geode::modifier::ModifyDerive<EventCCMenu, cocos2d::CCMenu> >::setHookPriorityBefore(std::__ndk1::basic_string_view<char, std::__ndk1::char_traits<char> >, geode::Mod*)::{lambda(geode::ModStateEvent*)#1}, std::__ndk1::allocator<geode::modifier::ModifyBase<geode::modifier::ModifyDerive<EventCCMenu, cocos2d::CCMenu> >::setHookPriorityBefore(std::__ndk1::basic_string_view<char, std::__ndk1::char_traits<char> >, geode::Mod*)::{lambda(geode::ModStateEvent*)#1}>, void (geode::ModStateEvent*)>::destroy()
PUBLIC a9408 0 std::__ndk1::__function::__func<geode::modifier::ModifyBase<geode::modifier::ModifyDerive<EventCCMenu, cocos2d::CCMenu> >::setHookPriorityBefore(std::__ndk1::basic_string_view<char, std::__ndk1::char_traits<char> >, geode::Mod*)::{lambda(geode::ModStateEvent*)#1}, std::__ndk1::allocator<geode::modifier::ModifyBase<geode::modifier::ModifyDerive<EventCCMenu, cocos2d::CCMenu> >::setHookPriorityBefore(std::__ndk1::basic_string_view<char, std::__ndk1::char_traits<char> >, geode::Mod*)::{lambda(geode::ModStateEvent*)#1}>, void (geode::ModStateEvent*)>::destroy_deallocate()
PUBLIC a940c 0 std::__ndk1::__function::__func<geode::modifier::ModifyBase<geode::modifier::ModifyDerive<EventCCMenu, cocos2d::CCMenu> >::setHookPriorityBefore(std::__ndk1::basic_string_view<char, std::__ndk1::char_traits<char> >, geode::Mod*)::{lambda(geode::ModStateEvent*)#1}, std::__ndk1::allocator<geode::modifier::ModifyBase<geode::modifier::ModifyDerive<EventCCMenu, cocos2d::CCMenu> >::setHookPriorityBefore(std::__ndk1::basic_string_view<char, std::__ndk1::char_traits<char> >, geode::Mod*)::{lambda(geode::ModStateEvent*)#1}>, void (geode::ModStateEvent*)>::operator()(geode::ModStateEvent*&&)
PUBLIC a9414 0 std::__ndk1::__function::__func<geode::modifier::ModifyBase<geode::modifier::ModifyDerive<EventCCMenu, cocos2d::CCMenu> >::setHookPriorityBefore(std::__ndk1::basic_string_view<char, std::__ndk1::char_traits<char> >, geode::Mod*)::{lambda(geode::ModStateEvent*)#1}, std::__ndk1::allocator<geode::modifier::ModifyBase<geode::modifier::ModifyDerive<EventCCMenu, cocos2d::CCMenu> >::setHookPriorityBefore(std::__ndk1::basic_string_view<char, std::__ndk1::char_traits<char> >, geode::Mod*)::{lambda(geode::ModStateEvent*)#1}>, void (geode::ModStateEvent*)>::target(std::type_info const&) const
PUBLIC a9430 0 std::__ndk1::__function::__func<geode::modifier::ModifyBase<geode::modifier::ModifyDerive<EventCCMenu, cocos2d::CCMenu> >::setHookPriorityBefore(std::__ndk1::basic_string_view<char, std::__ndk1::char_traits<char> >, geode::Mod*)::{lambda(geode::ModStateEvent*)#1}, std::__ndk1::allocator<geode::modifier::ModifyBase<geode::modifier::ModifyDerive<EventCCMenu, cocos2d::CCMenu> >::setHookPriorityBefore(std::__ndk1::basic_string_view<char, std::__ndk1::char_traits<char> >, geode::Mod*)::{lambda(geode::ModStateEvent*)#1}>, void (geode::ModStateEvent*)>::target_type() const
PUBLIC a943c 0 geode::modifier::AsStaticFunction_initWithArray<EventCCMenu, bool (EventCCMenu::*)(cocos2d::CCArray*)>::Impl<bool (EventCCMenu::*)(cocos2d::CCArray*)>::function(EventCCMenu*, cocos2d::CCArray*)
PUBLIC a94e8 0 EventCCMenu::check(float)
PUBLIC a9918 0 EventCCMenu::checkTouch(cocos2d::CCNode*, bool)
PUBLIC a9d20 0 geode::modifier::FieldIntermediate<EventCCMenu, cocos2d::CCMenu>::self()
PUBLIC a9eb0 0 geode::modifier::FieldIntermediate<EventCCMenu, cocos2d::CCMenu>::fieldDestructor(void*)
PUBLIC a9eb4 0 cocos2d::CCNode::getChildByType<cocos2d::CCSprite, cocos2d::CCSprite>(int)
PUBLIC a9f7c 0 EventCCMenuItemSpriteExtra::runOnHover()
PUBLIC aa054 0 EventCCMenuItemSpriteExtra::runOnExit()
PUBLIC aa12c 0 geode::modifier::ModifyDerive<MyCCScale9Sprite, cocos2d::extension::CCScale9Sprite>::apply()
PUBLIC aa794 0 geode::modifier::ModifyBase<geode::modifier::ModifyDerive<MyCCScale9Sprite, cocos2d::extension::CCScale9Sprite> >::apply()
PUBLIC aa798 0 std::__ndk1::__function::__func<MyCCScale9Sprite::onModify<geode::modifier::ModifyBase<geode::modifier::ModifyDerive<MyCCScale9Sprite, cocos2d::extension::CCScale9Sprite> > >(geode::modifier::ModifyBase<geode::modifier::ModifyDerive<MyCCScale9Sprite, cocos2d::extension::CCScale9Sprite> >&)::{lambda()#1}, std::__ndk1::allocator<MyCCScale9Sprite::onModify<geode::modifier::ModifyBase<geode::modifier::ModifyDerive<MyCCScale9Sprite, cocos2d::extension::CCScale9Sprite> > >(geode::modifier::ModifyBase<geode::modifier::ModifyDerive<MyCCScale9Sprite, cocos2d::extension::CCScale9Sprite> >&)::{lambda()#1}>, void ()>::~__func()
PUBLIC aa79c 0 std::__ndk1::__function::__func<MyCCScale9Sprite::onModify<geode::modifier::ModifyBase<geode::modifier::ModifyDerive<MyCCScale9Sprite, cocos2d::extension::CCScale9Sprite> > >(geode::modifier::ModifyBase<geode::modifier::ModifyDerive<MyCCScale9Sprite, cocos2d::extension::CCScale9Sprite> >&)::{lambda()#1}, std::__ndk1::allocator<MyCCScale9Sprite::onModify<geode::modifier::ModifyBase<geode::modifier::ModifyDerive<MyCCScale9Sprite, cocos2d::extension::CCScale9Sprite> > >(geode::modifier::ModifyBase<geode::modifier::ModifyDerive<MyCCScale9Sprite, cocos2d::extension::CCScale9Sprite> >&)::{lambda()#1}>, void ()>::__clone() const
PUBLIC aa7d0 0 std::__ndk1::__function::__func<MyCCScale9Sprite::onModify<geode::modifier::ModifyBase<geode::modifier::ModifyDerive<MyCCScale9Sprite, cocos2d::extension::CCScale9Sprite> > >(geode::modifier::ModifyBase<geode::modifier::ModifyDerive<MyCCScale9Sprite, cocos2d::extension::CCScale9Sprite> >&)::{lambda()#1}, std::__ndk1::allocator<MyCCScale9Sprite::onModify<geode::modifier::ModifyBase<geode::modifier::ModifyDerive<MyCCScale9Sprite, cocos2d::extension::CCScale9Sprite> > >(geode::modifier::ModifyBase<geode::modifier::ModifyDerive<MyCCScale9Sprite, cocos2d::extension::CCScale9Sprite> >&)::{lambda()#1}>, void ()>::__clone(std::__ndk1::__function::__base<void ()>*) const
PUBLIC aa7e4 0 std::__ndk1::__function::__func<MyCCScale9Sprite::onModify<geode::modifier::ModifyBase<geode::modifier::ModifyDerive<MyCCScale9Sprite, cocos2d::extension::CCScale9Sprite> > >(geode::modifier::ModifyBase<geode::modifier::ModifyDerive<MyCCScale9Sprite, cocos2d::extension::CCScale9Sprite> >&)::{lambda()#1}, std::__ndk1::allocator<MyCCScale9Sprite::onModify<geode::modifier::ModifyBase<geode::modifier::ModifyDerive<MyCCScale9Sprite, cocos2d::extension::CCScale9Sprite> > >(geode::modifier::ModifyBase<geode::modifier::ModifyDerive<MyCCScale9Sprite, cocos2d::extension::CCScale9Sprite> >&)::{lambda()#1}>, void ()>::destroy()
PUBLIC aa7e8 0 std::__ndk1::__function::__func<MyCCScale9Sprite::onModify<geode::modifier::ModifyBase<geode::modifier::ModifyDerive<MyCCScale9Sprite, cocos2d::extension::CCScale9Sprite> > >(geode::modifier::ModifyBase<geode::modifier::ModifyDerive<MyCCScale9Sprite, cocos2d::extension::CCScale9Sprite> >&)::{lambda()#1}, std::__ndk1::allocator<MyCCScale9Sprite::onModify<geode::modifier::ModifyBase<geode::modifier::ModifyDerive<MyCCScale9Sprite, cocos2d::extension::CCScale9Sprite> > >(geode::modifier::ModifyBase<geode::modifier::ModifyDerive<MyCCScale9Sprite, cocos2d::extension::CCScale9Sprite> >&)::{lambda()#1}>, void ()>::destroy_deallocate()
PUBLIC aa7ec 0 std::__ndk1::__function::__func<MyCCScale9Sprite::onModify<geode::modifier::ModifyBase<geode::modifier::ModifyDerive<MyCCScale9Sprite, cocos2d::extension::CCScale9Sprite> > >(geode::modifier::ModifyBase<geode::modifier::ModifyDerive<MyCCScale9Sprite, cocos2d::extension::CCScale9Sprite> >&)::{lambda()#1}, std::__ndk1::allocator<MyCCScale9Sprite::onModify<geode::modifier::ModifyBase<geode::modifier::ModifyDerive<MyCCScale9Sprite, cocos2d::extension::CCScale9Sprite> > >(geode::modifier::ModifyBase<geode::modifier::ModifyDerive<MyCCScale9Sprite, cocos2d::extension::CCScale9Sprite> >&)::{lambda()#1}>, void ()>::operator()()
PUBLIC aa938 0 std::__ndk1::__function::__func<MyCCScale9Sprite::onModify<geode::modifier::ModifyBase<geode::modifier::ModifyDerive<MyCCScale9Sprite, cocos2d::extension::CCScale9Sprite> > >(geode::modifier::ModifyBase<geode::modifier::ModifyDerive<MyCCScale9Sprite, cocos2d::extension::CCScale9Sprite> >&)::{lambda()#1}, std::__ndk1::allocator<MyCCScale9Sprite::onModify<geode::modifier::ModifyBase<geode::modifier::ModifyDerive<MyCCScale9Sprite, cocos2d::extension::CCScale9Sprite> > >(geode::modifier::ModifyBase<geode::modifier::ModifyDerive<MyCCScale9Sprite, cocos2d::extension::CCScale9Sprite> >&)::{lambda()#1}>, void ()>::target(std::type_info const&) const
PUBLIC aa954 0 std::__ndk1::__function::__func<MyCCScale9Sprite::onModify<geode::modifier::ModifyBase<geode::modifier::ModifyDerive<MyCCScale9Sprite, cocos2d::extension::CCScale9Sprite> > >(geode::modifier::ModifyBase<geode::modifier::ModifyDerive<MyCCScale9Sprite, cocos2d::extension::CCScale9Sprite> >&)::{lambda()#1}, std::__ndk1::allocator<MyCCScale9Sprite::onModify<geode::modifier::ModifyBase<geode::modifier::ModifyDerive<MyCCScale9Sprite, cocos2d::extension::CCScale9Sprite> > >(geode::modifier::ModifyBase<geode::modifier::ModifyDerive<MyCCScale9Sprite, cocos2d::extension::CCScale9Sprite> >&)::{lambda()#1}>, void ()>::target_type() const
PUBLIC aa960 0 geode::modifier::ModifyBase<geode::modifier::ModifyDerive<MyCCScale9Sprite, cocos2d::extension::CCScale9Sprite> >::setHookPriorityBefore(std::__ndk1::basic_string_view<char, std::__ndk1::char_traits<char> >, std::__ndk1::basic_string_view<char, std::__ndk1::char_traits<char> >)
PUBLIC aae58 0 geode::modifier::ModifyBase<geode::modifier::ModifyDerive<MyCCScale9Sprite, cocos2d::extension::CCScale9Sprite> >::setHookPriorityBefore(std::__ndk1::basic_string_view<char, std::__ndk1::char_traits<char> >, geode::Mod*)::{lambda(geode::ModStateEvent*)#1}::operator()(geode::ModStateEvent*) const
PUBLIC aaf68 0 std::__ndk1::__function::__func<geode::modifier::ModifyBase<geode::modifier::ModifyDerive<MyCCScale9Sprite, cocos2d::extension::CCScale9Sprite> >::setHookPriorityBefore(std::__ndk1::basic_string_view<char, std::__ndk1::char_traits<char> >, geode::Mod*)::{lambda(geode::ModStateEvent*)#1}, std::__ndk1::allocator<geode::modifier::ModifyBase<geode::modifier::ModifyDerive<MyCCScale9Sprite, cocos2d::extension::CCScale9Sprite> >::setHookPriorityBefore(std::__ndk1::basic_string_view<char, std::__ndk1::char_traits<char> >, geode::Mod*)::{lambda(geode::ModStateEvent*)#1}>, void (geode::ModStateEvent*)>::~__func()
PUBLIC aaf6c 0 std::__ndk1::__function::__func<geode::modifier::ModifyBase<geode::modifier::ModifyDerive<MyCCScale9Sprite, cocos2d::extension::CCScale9Sprite> >::setHookPriorityBefore(std::__ndk1::basic_string_view<char, std::__ndk1::char_traits<char> >, geode::Mod*)::{lambda(geode::ModStateEvent*)#1}, std::__ndk1::allocator<geode::modifier::ModifyBase<geode::modifier::ModifyDerive<MyCCScale9Sprite, cocos2d::extension::CCScale9Sprite> >::setHookPriorityBefore(std::__ndk1::basic_string_view<char, std::__ndk1::char_traits<char> >, geode::Mod*)::{lambda(geode::ModStateEvent*)#1}>, void (geode::ModStateEvent*)>::__clone() const
PUBLIC aafa4 0 std::__ndk1::__function::__func<geode::modifier::ModifyBase<geode::modifier::ModifyDerive<MyCCScale9Sprite, cocos2d::extension::CCScale9Sprite> >::setHookPriorityBefore(std::__ndk1::basic_string_view<char, std::__ndk1::char_traits<char> >, geode::Mod*)::{lambda(geode::ModStateEvent*)#1}, std::__ndk1::allocator<geode::modifier::ModifyBase<geode::modifier::ModifyDerive<MyCCScale9Sprite, cocos2d::extension::CCScale9Sprite> >::setHookPriorityBefore(std::__ndk1::basic_string_view<char, std::__ndk1::char_traits<char> >, geode::Mod*)::{lambda(geode::ModStateEvent*)#1}>, void (geode::ModStateEvent*)>::__clone(std::__ndk1::__function::__base<void (geode::ModStateEvent*)>*) const
PUBLIC aafbc 0 std::__ndk1::__function::__func<geode::modifier::ModifyBase<geode::modifier::ModifyDerive<MyCCScale9Sprite, cocos2d::extension::CCScale9Sprite> >::setHookPriorityBefore(std::__ndk1::basic_string_view<char, std::__ndk1::char_traits<char> >, geode::Mod*)::{lambda(geode::ModStateEvent*)#1}, std::__ndk1::allocator<geode::modifier::ModifyBase<geode::modifier::ModifyDerive<MyCCScale9Sprite, cocos2d::extension::CCScale9Sprite> >::setHookPriorityBefore(std::__ndk1::basic_string_view<char, std::__ndk1::char_traits<char> >, geode::Mod*)::{lambda(geode::ModStateEvent*)#1}>, void (geode::ModStateEvent*)>::destroy()
PUBLIC aafc0 0 std::__ndk1::__function::__func<geode::modifier::ModifyBase<geode::modifier::ModifyDerive<MyCCScale9Sprite, cocos2d::extension::CCScale9Sprite> >::setHookPriorityBefore(std::__ndk1::basic_string_view<char, std::__ndk1::char_traits<char> >, geode::Mod*)::{lambda(geode::ModStateEvent*)#1}, std::__ndk1::allocator<geode::modifier::ModifyBase<geode::modifier::ModifyDerive<MyCCScale9Sprite, cocos2d::extension::CCScale9Sprite> >::setHookPriorityBefore(std::__ndk1::basic_string_view<char, std::__ndk1::char_traits<char> >, geode::Mod*)::{lambda(geode::ModStateEvent*)#1}>, void (geode::ModStateEvent*)>::destroy_deallocate()
PUBLIC aafc4 0 std::__ndk1::__function::__func<geode::modifier::ModifyBase<geode::modifier::ModifyDerive<MyCCScale9Sprite, cocos2d::extension::CCScale9Sprite> >::setHookPriorityBefore(std::__ndk1::basic_string_view<char, std::__ndk1::char_traits<char> >, geode::Mod*)::{lambda(geode::ModStateEvent*)#1}, std::__ndk1::allocator<geode::modifier::ModifyBase<geode::modifier::ModifyDerive<MyCCScale9Sprite, cocos2d::extension::CCScale9Sprite> >::setHookPriorityBefore(std::__ndk1::basic_string_view<char, std::__ndk1::char_traits<char> >, geode::Mod*)::{lambda(geode::ModStateEvent*)#1}>, void (geode::ModStateEvent*)>::operator()(geode::ModStateEvent*&&)
PUBLIC aafcc 0 std::__ndk1::__function::__func<geode::modifier::ModifyBase<geode::modifier::ModifyDerive<MyCCScale9Sprite, cocos2d::extension::CCScale9Sprite> >::setHookPriorityBefore(std::__ndk1::basic_string_view<char, std::__ndk1::char_traits<char> >, geode::Mod*)::{lambda(geode::ModStateEvent*)#1}, std::__ndk1::allocator<geode::modifier::ModifyBase<geode::modifier::ModifyDerive<MyCCScale9Sprite, cocos2d::extension::CCScale9Sprite> >::setHookPriorityBefore(std::__ndk1::basic_string_view<char, std::__ndk1::char_traits<char> >, geode::Mod*)::{lambda(geode::ModStateEvent*)#1}>, void (geode::ModStateEvent*)>::target(std::type_info const&) const
PUBLIC aafe8 0 std::__ndk1::__function::__func<geode::modifier::ModifyBase<geode::modifier::ModifyDerive<MyCCScale9Sprite, cocos2d::extension::CCScale9Sprite> >::setHookPriorityBefore(std::__ndk1::basic_string_view<char, std::__ndk1::char_traits<char> >, geode::Mod*)::{lambda(geode::ModStateEvent*)#1}, std::__ndk1::allocator<geode::modifier::ModifyBase<geode::modifier::ModifyDerive<MyCCScale9Sprite, cocos2d::extension::CCScale9Sprite> >::setHookPriorityBefore(std::__ndk1::basic_string_view<char, std::__ndk1::char_traits<char> >, geode::Mod*)::{lambda(geode::ModStateEvent*)#1}>, void (geode::ModStateEvent*)>::target_type() const
PUBLIC aaff4 0 std::__ndk1::__function::__func<MyCCScale9Sprite::onModify<geode::modifier::ModifyBase<geode::modifier::ModifyDerive<MyCCScale9Sprite, cocos2d::extension::CCScale9Sprite> > >(geode::modifier::ModifyBase<geode::modifier::ModifyDerive<MyCCScale9Sprite, cocos2d::extension::CCScale9Sprite> >&)::{lambda()#2}, std::__ndk1::allocator<MyCCScale9Sprite::onModify<geode::modifier::ModifyBase<geode::modifier::ModifyDerive<MyCCScale9Sprite, cocos2d::extension::CCScale9Sprite> > >(geode::modifier::ModifyBase<geode::modifier::ModifyDerive<MyCCScale9Sprite, cocos2d::extension::CCScale9Sprite> >&)::{lambda()#2}>, void ()>::~__func()
PUBLIC aaff8 0 std::__ndk1::__function::__func<MyCCScale9Sprite::onModify<geode::modifier::ModifyBase<geode::modifier::ModifyDerive<MyCCScale9Sprite, cocos2d::extension::CCScale9Sprite> > >(geode::modifier::ModifyBase<geode::modifier::ModifyDerive<MyCCScale9Sprite, cocos2d::extension::CCScale9Sprite> >&)::{lambda()#2}, std::__ndk1::allocator<MyCCScale9Sprite::onModify<geode::modifier::ModifyBase<geode::modifier::ModifyDerive<MyCCScale9Sprite, cocos2d::extension::CCScale9Sprite> > >(geode::modifier::ModifyBase<geode::modifier::ModifyDerive<MyCCScale9Sprite, cocos2d::extension::CCScale9Sprite> >&)::{lambda()#2}>, void ()>::__clone() const
PUBLIC ab02c 0 std::__ndk1::__function::__func<MyCCScale9Sprite::onModify<geode::modifier::ModifyBase<geode::modifier::ModifyDerive<MyCCScale9Sprite, cocos2d::extension::CCScale9Sprite> > >(geode::modifier::ModifyBase<geode::modifier::ModifyDerive<MyCCScale9Sprite, cocos2d::extension::CCScale9Sprite> >&)::{lambda()#2}, std::__ndk1::allocator<MyCCScale9Sprite::onModify<geode::modifier::ModifyBase<geode::modifier::ModifyDerive<MyCCScale9Sprite, cocos2d::extension::CCScale9Sprite> > >(geode::modifier::ModifyBase<geode::modifier::ModifyDerive<MyCCScale9Sprite, cocos2d::extension::CCScale9Sprite> >&)::{lambda()#2}>, void ()>::__clone(std::__ndk1::__function::__base<void ()>*) const
PUBLIC ab040 0 std::__ndk1::__function::__func<MyCCScale9Sprite::onModify<geode::modifier::ModifyBase<geode::modifier::ModifyDerive<MyCCScale9Sprite, cocos2d::extension::CCScale9Sprite> > >(geode::modifier::ModifyBase<geode::modifier::ModifyDerive<MyCCScale9Sprite, cocos2d::extension::CCScale9Sprite> >&)::{lambda()#2}, std::__ndk1::allocator<MyCCScale9Sprite::onModify<geode::modifier::ModifyBase<geode::modifier::ModifyDerive<MyCCScale9Sprite, cocos2d::extension::CCScale9Sprite> > >(geode::modifier::ModifyBase<geode::modifier::ModifyDerive<MyCCScale9Sprite, cocos2d::extension::CCScale9Sprite> >&)::{lambda()#2}>, void ()>::destroy()
PUBLIC ab044 0 std::__ndk1::__function::__func<MyCCScale9Sprite::onModify<geode::modifier::ModifyBase<geode::modifier::ModifyDerive<MyCCScale9Sprite, cocos2d::extension::CCScale9Sprite> > >(geode::modifier::ModifyBase<geode::modifier::ModifyDerive<MyCCScale9Sprite, cocos2d::extension::CCScale9Sprite> >&)::{lambda()#2}, std::__ndk1::allocator<MyCCScale9Sprite::onModify<geode::modifier::ModifyBase<geode::modifier::ModifyDerive<MyCCScale9Sprite, cocos2d::extension::CCScale9Sprite> > >(geode::modifier::ModifyBase<geode::modifier::ModifyDerive<MyCCScale9Sprite, cocos2d::extension::CCScale9Sprite> >&)::{lambda()#2}>, void ()>::destroy_deallocate()
PUBLIC ab048 0 std::__ndk1::__function::__func<MyCCScale9Sprite::onModify<geode::modifier::ModifyBase<geode::modifier::ModifyDerive<MyCCScale9Sprite, cocos2d::extension::CCScale9Sprite> > >(geode::modifier::ModifyBase<geode::modifier::ModifyDerive<MyCCScale9Sprite, cocos2d::extension::CCScale9Sprite> >&)::{lambda()#2}, std::__ndk1::allocator<MyCCScale9Sprite::onModify<geode::modifier::ModifyBase<geode::modifier::ModifyDerive<MyCCScale9Sprite, cocos2d::extension::CCScale9Sprite> > >(geode::modifier::ModifyBase<geode::modifier::ModifyDerive<MyCCScale9Sprite, cocos2d::extension::CCScale9Sprite> >&)::{lambda()#2}>, void ()>::operator()()
PUBLIC ab194 0 std::__ndk1::__function::__func<MyCCScale9Sprite::onModify<geode::modifier::ModifyBase<geode::modifier::ModifyDerive<MyCCScale9Sprite, cocos2d::extension::CCScale9Sprite> > >(geode::modifier::ModifyBase<geode::modifier::ModifyDerive<MyCCScale9Sprite, cocos2d::extension::CCScale9Sprite> >&)::{lambda()#2}, std::__ndk1::allocator<MyCCScale9Sprite::onModify<geode::modifier::ModifyBase<geode::modifier::ModifyDerive<MyCCScale9Sprite, cocos2d::extension::CCScale9Sprite> > >(geode::modifier::ModifyBase<geode::modifier::ModifyDerive<MyCCScale9Sprite, cocos2d::extension::CCScale9Sprite> >&)::{lambda()#2}>, void ()>::target(std::type_info const&) const
PUBLIC ab1b0 0 std::__ndk1::__function::__func<MyCCScale9Sprite::onModify<geode::modifier::ModifyBase<geode::modifier::ModifyDerive<MyCCScale9Sprite, cocos2d::extension::CCScale9Sprite> > >(geode::modifier::ModifyBase<geode::modifier::ModifyDerive<MyCCScale9Sprite, cocos2d::extension::CCScale9Sprite> >&)::{lambda()#2}, std::__ndk1::allocator<MyCCScale9Sprite::onModify<geode::modifier::ModifyBase<geode::modifier::ModifyDerive<MyCCScale9Sprite, cocos2d::extension::CCScale9Sprite> > >(geode::modifier::ModifyBase<geode::modifier::ModifyDerive<MyCCScale9Sprite, cocos2d::extension::CCScale9Sprite> >&)::{lambda()#2}>, void ()>::target_type() const
PUBLIC ab1bc 0 geode::modifier::AsStaticFunction_visit<MyCCScale9Sprite, void (MyCCScale9Sprite::*)()>::Impl<void (MyCCScale9Sprite::*)()>::function(MyCCScale9Sprite*)
PUBLIC ac46c 0 geode::modifier::AsStaticFunction_initWithFile<MyCCScale9Sprite, bool (MyCCScale9Sprite::*)(char const*, cocos2d::CCRect, cocos2d::CCRect)>::Impl<bool (MyCCScale9Sprite::*)(char const*, cocos2d::CCRect, cocos2d::CCRect)>::function(MyCCScale9Sprite*, char const*, cocos2d::CCRect, cocos2d::CCRect)
PUBLIC ac618 0 geode::addresser::Addresser::addressOfVirtual<void, cocos2d::extension::CCScale9Sprite, >(void (cocos2d::extension::CCScale9Sprite::*)())
PUBLIC ac6c0 0 cocos2d::extension::CCScale9Sprite::CCScale9Sprite(geode::ZeroConstructorType)
PUBLIC ac738 0 std::__ndk1::vector<cocos2d::CCRect, std::__ndk1::allocator<cocos2d::CCRect> >::push_back[abi:ne180000](cocos2d::CCRect const&)
PUBLIC ac934 0 geode::modifier::FieldIntermediate<MyCCScale9Sprite, cocos2d::extension::CCScale9Sprite>::self()
PUBLIC acad4 0 geode::modifier::FieldIntermediate<MyCCScale9Sprite, cocos2d::extension::CCScale9Sprite>::fieldDestructor(void*)
PUBLIC acb18 0 std::__ndk1::vector<cocos2d::CCRect, std::__ndk1::allocator<cocos2d::CCRect> >::__throw_length_error[abi:ne180000]() const
PUBLIC acb2c 0 std::__ndk1::vector<cocos2d::CCRect, std::__ndk1::allocator<cocos2d::CCRect> >::__throw_out_of_range[abi:ne180000]() const
PUBLIC acb40 0 geode::addresser::Addresser::addressOfVirtual<bool, cocos2d::extension::CCScale9Sprite, char const*, cocos2d::CCRect, cocos2d::CCRect>(bool (cocos2d::extension::CCScale9Sprite::*)(char const*, cocos2d::CCRect, cocos2d::CCRect))
PUBLIC acbe8 0 geode::modifier::ModifyDerive<MyCommentCell, CommentCell>::apply()
PUBLIC acf70 0 geode::modifier::ModifyBase<geode::modifier::ModifyDerive<MyCommentCell, CommentCell> >::apply()
PUBLIC acf74 0 std::__ndk1::__function::__func<MyCommentCell::onModify<geode::modifier::ModifyBase<geode::modifier::ModifyDerive<MyCommentCell, CommentCell> > >(geode::modifier::ModifyBase<geode::modifier::ModifyDerive<MyCommentCell, CommentCell> >&)::{lambda()#1}, std::__ndk1::allocator<MyCommentCell::onModify<geode::modifier::ModifyBase<geode::modifier::ModifyDerive<MyCommentCell, CommentCell> > >(geode::modifier::ModifyBase<geode::modifier::ModifyDerive<MyCommentCell, CommentCell> >&)::{lambda()#1}>, void ()>::~__func()
PUBLIC acf78 0 std::__ndk1::__function::__func<MyCommentCell::onModify<geode::modifier::ModifyBase<geode::modifier::ModifyDerive<MyCommentCell, CommentCell> > >(geode::modifier::ModifyBase<geode::modifier::ModifyDerive<MyCommentCell, CommentCell> >&)::{lambda()#1}, std::__ndk1::allocator<MyCommentCell::onModify<geode::modifier::ModifyBase<geode::modifier::ModifyDerive<MyCommentCell, CommentCell> > >(geode::modifier::ModifyBase<geode::modifier::ModifyDerive<MyCommentCell, CommentCell> >&)::{lambda()#1}>, void ()>::__clone() const
PUBLIC acfac 0 std::__ndk1::__function::__func<MyCommentCell::onModify<geode::modifier::ModifyBase<geode::modifier::ModifyDerive<MyCommentCell, CommentCell> > >(geode::modifier::ModifyBase<geode::modifier::ModifyDerive<MyCommentCell, CommentCell> >&)::{lambda()#1}, std::__ndk1::allocator<MyCommentCell::onModify<geode::modifier::ModifyBase<geode::modifier::ModifyDerive<MyCommentCell, CommentCell> > >(geode::modifier::ModifyBase<geode::modifier::ModifyDerive<MyCommentCell, CommentCell> >&)::{lambda()#1}>, void ()>::__clone(std::__ndk1::__function::__base<void ()>*) const
PUBLIC acfc0 0 std::__ndk1::__function::__func<MyCommentCell::onModify<geode::modifier::ModifyBase<geode::modifier::ModifyDerive<MyCommentCell, CommentCell> > >(geode::modifier::ModifyBase<geode::modifier::ModifyDerive<MyCommentCell, CommentCell> >&)::{lambda()#1}, std::__ndk1::allocator<MyCommentCell::onModify<geode::modifier::ModifyBase<geode::modifier::ModifyDerive<MyCommentCell, CommentCell> > >(geode::modifier::ModifyBase<geode::modifier::ModifyDerive<MyCommentCell, CommentCell> >&)::{lambda()#1}>, void ()>::destroy()
PUBLIC acfc4 0 std::__ndk1::__function::__func<MyCommentCell::onModify<geode::modifier::ModifyBase<geode::modifier::ModifyDerive<MyCommentCell, CommentCell> > >(geode::modifier::ModifyBase<geode::modifier::ModifyDerive<MyCommentCell, CommentCell> >&)::{lambda()#1}, std::__ndk1::allocator<MyCommentCell::onModify<geode::modifier::ModifyBase<geode::modifier::ModifyDerive<MyCommentCell, CommentCell> > >(geode::modifier::ModifyBase<geode::modifier::ModifyDerive<MyCommentCell, CommentCell> >&)::{lambda()#1}>, void ()>::destroy_deallocate()
PUBLIC acfc8 0 std::__ndk1::__function::__func<MyCommentCell::onModify<geode::modifier::ModifyBase<geode::modifier::ModifyDerive<MyCommentCell, CommentCell> > >(geode::modifier::ModifyBase<geode::modifier::ModifyDerive<MyCommentCell, CommentCell> >&)::{lambda()#1}, std::__ndk1::allocator<MyCommentCell::onModify<geode::modifier::ModifyBase<geode::modifier::ModifyDerive<MyCommentCell, CommentCell> > >(geode::modifier::ModifyBase<geode::modifier::ModifyDerive<MyCommentCell, CommentCell> >&)::{lambda()#1}>, void ()>::operator()()
PUBLIC ad560 0 std::__ndk1::__function::__func<MyCommentCell::onModify<geode::modifier::ModifyBase<geode::modifier::ModifyDerive<MyCommentCell, CommentCell> > >(geode::modifier::ModifyBase<geode::modifier::ModifyDerive<MyCommentCell, CommentCell> >&)::{lambda()#1}, std::__ndk1::allocator<MyCommentCell::onModify<geode::modifier::ModifyBase<geode::modifier::ModifyDerive<MyCommentCell, CommentCell> > >(geode::modifier::ModifyBase<geode::modifier::ModifyDerive<MyCommentCell, CommentCell> >&)::{lambda()#1}>, void ()>::target(std::type_info const&) const
PUBLIC ad57c 0 std::__ndk1::__function::__func<MyCommentCell::onModify<geode::modifier::ModifyBase<geode::modifier::ModifyDerive<MyCommentCell, CommentCell> > >(geode::modifier::ModifyBase<geode::modifier::ModifyDerive<MyCommentCell, CommentCell> >&)::{lambda()#1}, std::__ndk1::allocator<MyCommentCell::onModify<geode::modifier::ModifyBase<geode::modifier::ModifyDerive<MyCommentCell, CommentCell> > >(geode::modifier::ModifyBase<geode::modifier::ModifyDerive<MyCommentCell, CommentCell> >&)::{lambda()#1}>, void ()>::target_type() const
PUBLIC ad588 0 geode::modifier::ModifyBase<geode::modifier::ModifyDerive<MyCommentCell, CommentCell> >::setHookPriorityBefore(std::__ndk1::basic_string_view<char, std::__ndk1::char_traits<char> >, geode::Mod*)::{lambda(geode::ModStateEvent*)#1}::operator()(geode::ModStateEvent*) const
PUBLIC ad698 0 std::__ndk1::__function::__func<geode::modifier::ModifyBase<geode::modifier::ModifyDerive<MyCommentCell, CommentCell> >::setHookPriorityBefore(std::__ndk1::basic_string_view<char, std::__ndk1::char_traits<char> >, geode::Mod*)::{lambda(geode::ModStateEvent*)#1}, std::__ndk1::allocator<geode::modifier::ModifyBase<geode::modifier::ModifyDerive<MyCommentCell, CommentCell> >::setHookPriorityBefore(std::__ndk1::basic_string_view<char, std::__ndk1::char_traits<char> >, geode::Mod*)::{lambda(geode::ModStateEvent*)#1}>, void (geode::ModStateEvent*)>::~__func()
PUBLIC ad69c 0 std::__ndk1::__function::__func<geode::modifier::ModifyBase<geode::modifier::ModifyDerive<MyCommentCell, CommentCell> >::setHookPriorityBefore(std::__ndk1::basic_string_view<char, std::__ndk1::char_traits<char> >, geode::Mod*)::{lambda(geode::ModStateEvent*)#1}, std::__ndk1::allocator<geode::modifier::ModifyBase<geode::modifier::ModifyDerive<MyCommentCell, CommentCell> >::setHookPriorityBefore(std::__ndk1::basic_string_view<char, std::__ndk1::char_traits<char> >, geode::Mod*)::{lambda(geode::ModStateEvent*)#1}>, void (geode::ModStateEvent*)>::__clone() const
PUBLIC ad6d4 0 std::__ndk1::__function::__func<geode::modifier::ModifyBase<geode::modifier::ModifyDerive<MyCommentCell, CommentCell> >::setHookPriorityBefore(std::__ndk1::basic_string_view<char, std::__ndk1::char_traits<char> >, geode::Mod*)::{lambda(geode::ModStateEvent*)#1}, std::__ndk1::allocator<geode::modifier::ModifyBase<geode::modifier::ModifyDerive<MyCommentCell, CommentCell> >::setHookPriorityBefore(std::__ndk1::basic_string_view<char, std::__ndk1::char_traits<char> >, geode::Mod*)::{lambda(geode::ModStateEvent*)#1}>, void (geode::ModStateEvent*)>::__clone(std::__ndk1::__function::__base<void (geode::ModStateEvent*)>*) const
PUBLIC ad6ec 0 std::__ndk1::__function::__func<geode::modifier::ModifyBase<geode::modifier::ModifyDerive<MyCommentCell, CommentCell> >::setHookPriorityBefore(std::__ndk1::basic_string_view<char, std::__ndk1::char_traits<char> >, geode::Mod*)::{lambda(geode::ModStateEvent*)#1}, std::__ndk1::allocator<geode::modifier::ModifyBase<geode::modifier::ModifyDerive<MyCommentCell, CommentCell> >::setHookPriorityBefore(std::__ndk1::basic_string_view<char, std::__ndk1::char_traits<char> >, geode::Mod*)::{lambda(geode::ModStateEvent*)#1}>, void (geode::ModStateEvent*)>::destroy()
PUBLIC ad6f0 0 std::__ndk1::__function::__func<geode::modifier::ModifyBase<geode::modifier::ModifyDerive<MyCommentCell, CommentCell> >::setHookPriorityBefore(std::__ndk1::basic_string_view<char, std::__ndk1::char_traits<char> >, geode::Mod*)::{lambda(geode::ModStateEvent*)#1}, std::__ndk1::allocator<geode::modifier::ModifyBase<geode::modifier::ModifyDerive<MyCommentCell, CommentCell> >::setHookPriorityBefore(std::__ndk1::basic_string_view<char, std::__ndk1::char_traits<char> >, geode::Mod*)::{lambda(geode::ModStateEvent*)#1}>, void (geode::ModStateEvent*)>::destroy_deallocate()
PUBLIC ad6f4 0 std::__ndk1::__function::__func<geode::modifier::ModifyBase<geode::modifier::ModifyDerive<MyCommentCell, CommentCell> >::setHookPriorityBefore(std::__ndk1::basic_string_view<char, std::__ndk1::char_traits<char> >, geode::Mod*)::{lambda(geode::ModStateEvent*)#1}, std::__ndk1::allocator<geode::modifier::ModifyBase<geode::modifier::ModifyDerive<MyCommentCell, CommentCell> >::setHookPriorityBefore(std::__ndk1::basic_string_view<char, std::__ndk1::char_traits<char> >, geode::Mod*)::{lambda(geode::ModStateEvent*)#1}>, void (geode::ModStateEvent*)>::operator()(geode::ModStateEvent*&&)
PUBLIC ad6fc 0 std::__ndk1::__function::__func<geode::modifier::ModifyBase<geode::modifier::ModifyDerive<MyCommentCell, CommentCell> >::setHookPriorityBefore(std::__ndk1::basic_string_view<char, std::__ndk1::char_traits<char> >, geode::Mod*)::{lambda(geode::ModStateEvent*)#1}, std::__ndk1::allocator<geode::modifier::ModifyBase<geode::modifier::ModifyDerive<MyCommentCell, CommentCell> >::setHookPriorityBefore(std::__ndk1::basic_string_view<char, std::__ndk1::char_traits<char> >, geode::Mod*)::{lambda(geode::ModStateEvent*)#1}>, void (geode::ModStateEvent*)>::target(std::type_info const&) const
PUBLIC ad718 0 std::__ndk1::__function::__func<geode::modifier::ModifyBase<geode::modifier::ModifyDerive<MyCommentCell, CommentCell> >::setHookPriorityBefore(std::__ndk1::basic_string_view<char, std::__ndk1::char_traits<char> >, geode::Mod*)::{lambda(geode::ModStateEvent*)#1}, std::__ndk1::allocator<geode::modifier::ModifyBase<geode::modifier::ModifyDerive<MyCommentCell, CommentCell> >::setHookPriorityBefore(std::__ndk1::basic_string_view<char, std::__ndk1::char_traits<char> >, geode::Mod*)::{lambda(geode::ModStateEvent*)#1}>, void (geode::ModStateEvent*)>::target_type() const
PUBLIC ad724 0 geode::modifier::AsStaticFunction_loadFromComment<MyCommentCell, void (MyCommentCell::*)(GJComment*)>::Impl<void (MyCommentCell::*)(GJComment*)>::function(MyCommentCell*, GJComment*)
PUBLIC ad7d4 0 MyCommentCell::checkBG(float)
PUBLIC adc30 0 geode::modifier::FieldIntermediate<MyCommentCell, CommentCell>::self()
PUBLIC addc0 0 geode::modifier::FieldIntermediate<MyCommentCell, CommentCell>::fieldDestructor(void*)
PUBLIC addc4 0 geode::modifier::ModifyDerive<MyEditLevelLayer, EditLevelLayer>::apply()
PUBLIC ae130 0 geode::modifier::ModifyBase<geode::modifier::ModifyDerive<MyEditLevelLayer, EditLevelLayer> >::apply()
PUBLIC ae134 0 std::__ndk1::__function::__func<MyEditLevelLayer::onModify<geode::modifier::ModifyBase<geode::modifier::ModifyDerive<MyEditLevelLayer, EditLevelLayer> > >(geode::modifier::ModifyBase<geode::modifier::ModifyDerive<MyEditLevelLayer, EditLevelLayer> >&)::{lambda()#1}, std::__ndk1::allocator<MyEditLevelLayer::onModify<geode::modifier::ModifyBase<geode::modifier::ModifyDerive<MyEditLevelLayer, EditLevelLayer> > >(geode::modifier::ModifyBase<geode::modifier::ModifyDerive<MyEditLevelLayer, EditLevelLayer> >&)::{lambda()#1}>, void ()>::~__func()
PUBLIC ae138 0 std::__ndk1::__function::__func<MyEditLevelLayer::onModify<geode::modifier::ModifyBase<geode::modifier::ModifyDerive<MyEditLevelLayer, EditLevelLayer> > >(geode::modifier::ModifyBase<geode::modifier::ModifyDerive<MyEditLevelLayer, EditLevelLayer> >&)::{lambda()#1}, std::__ndk1::allocator<MyEditLevelLayer::onModify<geode::modifier::ModifyBase<geode::modifier::ModifyDerive<MyEditLevelLayer, EditLevelLayer> > >(geode::modifier::ModifyBase<geode::modifier::ModifyDerive<MyEditLevelLayer, EditLevelLayer> >&)::{lambda()#1}>, void ()>::__clone() const
PUBLIC ae16c 0 std::__ndk1::__function::__func<MyEditLevelLayer::onModify<geode::modifier::ModifyBase<geode::modifier::ModifyDerive<MyEditLevelLayer, EditLevelLayer> > >(geode::modifier::ModifyBase<geode::modifier::ModifyDerive<MyEditLevelLayer, EditLevelLayer> >&)::{lambda()#1}, std::__ndk1::allocator<MyEditLevelLayer::onModify<geode::modifier::ModifyBase<geode::modifier::ModifyDerive<MyEditLevelLayer, EditLevelLayer> > >(geode::modifier::ModifyBase<geode::modifier::ModifyDerive<MyEditLevelLayer, EditLevelLayer> >&)::{lambda()#1}>, void ()>::__clone(std::__ndk1::__function::__base<void ()>*) const
PUBLIC ae180 0 std::__ndk1::__function::__func<MyEditLevelLayer::onModify<geode::modifier::ModifyBase<geode::modifier::ModifyDerive<MyEditLevelLayer, EditLevelLayer> > >(geode::modifier::ModifyBase<geode::modifier::ModifyDerive<MyEditLevelLayer, EditLevelLayer> >&)::{lambda()#1}, std::__ndk1::allocator<MyEditLevelLayer::onModify<geode::modifier::ModifyBase<geode::modifier::ModifyDerive<MyEditLevelLayer, EditLevelLayer> > >(geode::modifier::ModifyBase<geode::modifier::ModifyDerive<MyEditLevelLayer, EditLevelLayer> >&)::{lambda()#1}>, void ()>::destroy()
PUBLIC ae184 0 std::__ndk1::__function::__func<MyEditLevelLayer::onModify<geode::modifier::ModifyBase<geode::modifier::ModifyDerive<MyEditLevelLayer, EditLevelLayer> > >(geode::modifier::ModifyBase<geode::modifier::ModifyDerive<MyEditLevelLayer, EditLevelLayer> >&)::{lambda()#1}, std::__ndk1::allocator<MyEditLevelLayer::onModify<geode::modifier::ModifyBase<geode::modifier::ModifyDerive<MyEditLevelLayer, EditLevelLayer> > >(geode::modifier::ModifyBase<geode::modifier::ModifyDerive<MyEditLevelLayer, EditLevelLayer> >&)::{lambda()#1}>, void ()>::destroy_deallocate()
PUBLIC ae188 0 std::__ndk1::__function::__func<MyEditLevelLayer::onModify<geode::modifier::ModifyBase<geode::modifier::ModifyDerive<MyEditLevelLayer, EditLevelLayer> > >(geode::modifier::ModifyBase<geode::modifier::ModifyDerive<MyEditLevelLayer, EditLevelLayer> >&)::{lambda()#1}, std::__ndk1::allocator<MyEditLevelLayer::onModify<geode::modifier::ModifyBase<geode::modifier::ModifyDerive<MyEditLevelLayer, EditLevelLayer> > >(geode::modifier::ModifyBase<geode::modifier::ModifyDerive<MyEditLevelLayer, EditLevelLayer> >&)::{lambda()#1}>, void ()>::operator()()
PUBLIC ae6e8 0 std::__ndk1::__function::__func<MyEditLevelLayer::onModify<geode::modifier::ModifyBase<geode::modifier::ModifyDerive<MyEditLevelLayer, EditLevelLayer> > >(geode::modifier::ModifyBase<geode::modifier::ModifyDerive<MyEditLevelLayer, EditLevelLayer> >&)::{lambda()#1}, std::__ndk1::allocator<MyEditLevelLayer::onModify<geode::modifier::ModifyBase<geode::modifier::ModifyDerive<MyEditLevelLayer, EditLevelLayer> > >(geode::modifier::ModifyBase<geode::modifier::ModifyDerive<MyEditLevelLayer, EditLevelLayer> >&)::{lambda()#1}>, void ()>::target(std::type_info const&) const
PUBLIC ae704 0 std::__ndk1::__function::__func<MyEditLevelLayer::onModify<geode::modifier::ModifyBase<geode::modifier::ModifyDerive<MyEditLevelLayer, EditLevelLayer> > >(geode::modifier::ModifyBase<geode::modifier::ModifyDerive<MyEditLevelLayer, EditLevelLayer> >&)::{lambda()#1}, std::__ndk1::allocator<MyEditLevelLayer::onModify<geode::modifier::ModifyBase<geode::modifier::ModifyDerive<MyEditLevelLayer, EditLevelLayer> > >(geode::modifier::ModifyBase<geode::modifier::ModifyDerive<MyEditLevelLayer, EditLevelLayer> >&)::{lambda()#1}>, void ()>::target_type() const
PUBLIC ae710 0 geode::modifier::ModifyBase<geode::modifier::ModifyDerive<MyEditLevelLayer, EditLevelLayer> >::setHookPriorityBefore(std::__ndk1::basic_string_view<char, std::__ndk1::char_traits<char> >, geode::Mod*)::{lambda(geode::ModStateEvent*)#1}::operator()(geode::ModStateEvent*) const
PUBLIC ae820 0 std::__ndk1::__function::__func<geode::modifier::ModifyBase<geode::modifier::ModifyDerive<MyEditLevelLayer, EditLevelLayer> >::setHookPriorityBefore(std::__ndk1::basic_string_view<char, std::__ndk1::char_traits<char> >, geode::Mod*)::{lambda(geode::ModStateEvent*)#1}, std::__ndk1::allocator<geode::modifier::ModifyBase<geode::modifier::ModifyDerive<MyEditLevelLayer, EditLevelLayer> >::setHookPriorityBefore(std::__ndk1::basic_string_view<char, std::__ndk1::char_traits<char> >, geode::Mod*)::{lambda(geode::ModStateEvent*)#1}>, void (geode::ModStateEvent*)>::~__func()
PUBLIC ae824 0 std::__ndk1::__function::__func<geode::modifier::ModifyBase<geode::modifier::ModifyDerive<MyEditLevelLayer, EditLevelLayer> >::setHookPriorityBefore(std::__ndk1::basic_string_view<char, std::__ndk1::char_traits<char> >, geode::Mod*)::{lambda(geode::ModStateEvent*)#1}, std::__ndk1::allocator<geode::modifier::ModifyBase<geode::modifier::ModifyDerive<MyEditLevelLayer, EditLevelLayer> >::setHookPriorityBefore(std::__ndk1::basic_string_view<char, std::__ndk1::char_traits<char> >, geode::Mod*)::{lambda(geode::ModStateEvent*)#1}>, void (geode::ModStateEvent*)>::__clone() const
PUBLIC ae85c 0 std::__ndk1::__function::__func<geode::modifier::ModifyBase<geode::modifier::ModifyDerive<MyEditLevelLayer, EditLevelLayer> >::setHookPriorityBefore(std::__ndk1::basic_string_view<char, std::__ndk1::char_traits<char> >, geode::Mod*)::{lambda(geode::ModStateEvent*)#1}, std::__ndk1::allocator<geode::modifier::ModifyBase<geode::modifier::ModifyDerive<MyEditLevelLayer, EditLevelLayer> >::setHookPriorityBefore(std::__ndk1::basic_string_view<char, std::__ndk1::char_traits<char> >, geode::Mod*)::{lambda(geode::ModStateEvent*)#1}>, void (geode::ModStateEvent*)>::__clone(std::__ndk1::__function::__base<void (geode::ModStateEvent*)>*) const
PUBLIC ae874 0 std::__ndk1::__function::__func<geode::modifier::ModifyBase<geode::modifier::ModifyDerive<MyEditLevelLayer, EditLevelLayer> >::setHookPriorityBefore(std::__ndk1::basic_string_view<char, std::__ndk1::char_traits<char> >, geode::Mod*)::{lambda(geode::ModStateEvent*)#1}, std::__ndk1::allocator<geode::modifier::ModifyBase<geode::modifier::ModifyDerive<MyEditLevelLayer, EditLevelLayer> >::setHookPriorityBefore(std::__ndk1::basic_string_view<char, std::__ndk1::char_traits<char> >, geode::Mod*)::{lambda(geode::ModStateEvent*)#1}>, void (geode::ModStateEvent*)>::destroy()
PUBLIC ae878 0 std::__ndk1::__function::__func<geode::modifier::ModifyBase<geode::modifier::ModifyDerive<MyEditLevelLayer, EditLevelLayer> >::setHookPriorityBefore(std::__ndk1::basic_string_view<char, std::__ndk1::char_traits<char> >, geode::Mod*)::{lambda(geode::ModStateEvent*)#1}, std::__ndk1::allocator<geode::modifier::ModifyBase<geode::modifier::ModifyDerive<MyEditLevelLayer, EditLevelLayer> >::setHookPriorityBefore(std::__ndk1::basic_string_view<char, std::__ndk1::char_traits<char> >, geode::Mod*)::{lambda(geode::ModStateEvent*)#1}>, void (geode::ModStateEvent*)>::destroy_deallocate()
PUBLIC ae87c 0 std::__ndk1::__function::__func<geode::modifier::ModifyBase<geode::modifier::ModifyDerive<MyEditLevelLayer, EditLevelLayer> >::setHookPriorityBefore(std::__ndk1::basic_string_view<char, std::__ndk1::char_traits<char> >, geode::Mod*)::{lambda(geode::ModStateEvent*)#1}, std::__ndk1::allocator<geode::modifier::ModifyBase<geode::modifier::ModifyDerive<MyEditLevelLayer, EditLevelLayer> >::setHookPriorityBefore(std::__ndk1::basic_string_view<char, std::__ndk1::char_traits<char> >, geode::Mod*)::{lambda(geode::ModStateEvent*)#1}>, void (geode::ModStateEvent*)>::operator()(geode::ModStateEvent*&&)
PUBLIC ae884 0 std::__ndk1::__function::__func<geode::modifier::ModifyBase<geode::modifier::ModifyDerive<MyEditLevelLayer, EditLevelLayer> >::setHookPriorityBefore(std::__ndk1::basic_string_view<char, std::__ndk1::char_traits<char> >, geode::Mod*)::{lambda(geode::ModStateEvent*)#1}, std::__ndk1::allocator<geode::modifier::ModifyBase<geode::modifier::ModifyDerive<MyEditLevelLayer, EditLevelLayer> >::setHookPriorityBefore(std::__ndk1::basic_string_view<char, std::__ndk1::char_traits<char> >, geode::Mod*)::{lambda(geode::ModStateEvent*)#1}>, void (geode::ModStateEvent*)>::target(std::type_info const&) const
PUBLIC ae8a0 0 std::__ndk1::__function::__func<geode::modifier::ModifyBase<geode::modifier::ModifyDerive<MyEditLevelLayer, EditLevelLayer> >::setHookPriorityBefore(std::__ndk1::basic_string_view<char, std::__ndk1::char_traits<char> >, geode::Mod*)::{lambda(geode::ModStateEvent*)#1}, std::__ndk1::allocator<geode::modifier::ModifyBase<geode::modifier::ModifyDerive<MyEditLevelLayer, EditLevelLayer> >::setHookPriorityBefore(std::__ndk1::basic_string_view<char, std::__ndk1::char_traits<char> >, geode::Mod*)::{lambda(geode::ModStateEvent*)#1}>, void (geode::ModStateEvent*)>::target_type() const
PUBLIC ae8ac 0 geode::modifier::AsStaticFunction_init<MyEditLevelLayer, bool (MyEditLevelLayer::*)(GJGameLevel*)>::Impl<bool (MyEditLevelLayer::*)(GJGameLevel*)>::function(MyEditLevelLayer*, GJGameLevel*)
PUBLIC aea68 0 geode::modifier::ModifyDerive<MyGJCommentListLayer, GJCommentListLayer>::apply()
PUBLIC aee8c 0 geode::modifier::ModifyBase<geode::modifier::ModifyDerive<MyGJCommentListLayer, GJCommentListLayer> >::apply()
PUBLIC aee90 0 std::__ndk1::__function::__func<MyGJCommentListLayer::onModify<geode::modifier::ModifyBase<geode::modifier::ModifyDerive<MyGJCommentListLayer, GJCommentListLayer> > >(geode::modifier::ModifyBase<geode::modifier::ModifyDerive<MyGJCommentListLayer, GJCommentListLayer> >&)::{lambda()#1}, std::__ndk1::allocator<MyGJCommentListLayer::onModify<geode::modifier::ModifyBase<geode::modifier::ModifyDerive<MyGJCommentListLayer, GJCommentListLayer> > >(geode::modifier::ModifyBase<geode::modifier::ModifyDerive<MyGJCommentListLayer, GJCommentListLayer> >&)::{lambda()#1}>, void ()>::~__func()
PUBLIC aee94 0 std::__ndk1::__function::__func<MyGJCommentListLayer::onModify<geode::modifier::ModifyBase<geode::modifier::ModifyDerive<MyGJCommentListLayer, GJCommentListLayer> > >(geode::modifier::ModifyBase<geode::modifier::ModifyDerive<MyGJCommentListLayer, GJCommentListLayer> >&)::{lambda()#1}, std::__ndk1::allocator<MyGJCommentListLayer::onModify<geode::modifier::ModifyBase<geode::modifier::ModifyDerive<MyGJCommentListLayer, GJCommentListLayer> > >(geode::modifier::ModifyBase<geode::modifier::ModifyDerive<MyGJCommentListLayer, GJCommentListLayer> >&)::{lambda()#1}>, void ()>::__clone() const
PUBLIC aeec8 0 std::__ndk1::__function::__func<MyGJCommentListLayer::onModify<geode::modifier::ModifyBase<geode::modifier::ModifyDerive<MyGJCommentListLayer, GJCommentListLayer> > >(geode::modifier::ModifyBase<geode::modifier::ModifyDerive<MyGJCommentListLayer, GJCommentListLayer> >&)::{lambda()#1}, std::__ndk1::allocator<MyGJCommentListLayer::onModify<geode::modifier::ModifyBase<geode::modifier::ModifyDerive<MyGJCommentListLayer, GJCommentListLayer> > >(geode::modifier::ModifyBase<geode::modifier::ModifyDerive<MyGJCommentListLayer, GJCommentListLayer> >&)::{lambda()#1}>, void ()>::__clone(std::__ndk1::__function::__base<void ()>*) const
PUBLIC aeedc 0 std::__ndk1::__function::__func<MyGJCommentListLayer::onModify<geode::modifier::ModifyBase<geode::modifier::ModifyDerive<MyGJCommentListLayer, GJCommentListLayer> > >(geode::modifier::ModifyBase<geode::modifier::ModifyDerive<MyGJCommentListLayer, GJCommentListLayer> >&)::{lambda()#1}, std::__ndk1::allocator<MyGJCommentListLayer::onModify<geode::modifier::ModifyBase<geode::modifier::ModifyDerive<MyGJCommentListLayer, GJCommentListLayer> > >(geode::modifier::ModifyBase<geode::modifier::ModifyDerive<MyGJCommentListLayer, GJCommentListLayer> >&)::{lambda()#1}>, void ()>::destroy()
PUBLIC aeee0 0 std::__ndk1::__function::__func<MyGJCommentListLayer::onModify<geode::modifier::ModifyBase<geode::modifier::ModifyDerive<MyGJCommentListLayer, GJCommentListLayer> > >(geode::modifier::ModifyBase<geode::modifier::ModifyDerive<MyGJCommentListLayer, GJCommentListLayer> >&)::{lambda()#1}, std::__ndk1::allocator<MyGJCommentListLayer::onModify<geode::modifier::ModifyBase<geode::modifier::ModifyDerive<MyGJCommentListLayer, GJCommentListLayer> > >(geode::modifier::ModifyBase<geode::modifier::ModifyDerive<MyGJCommentListLayer, GJCommentListLayer> >&)::{lambda()#1}>, void ()>::destroy_deallocate()
PUBLIC aeee4 0 std::__ndk1::__function::__func<MyGJCommentListLayer::onModify<geode::modifier::ModifyBase<geode::modifier::ModifyDerive<MyGJCommentListLayer, GJCommentListLayer> > >(geode::modifier::ModifyBase<geode::modifier::ModifyDerive<MyGJCommentListLayer, GJCommentListLayer> >&)::{lambda()#1}, std::__ndk1::allocator<MyGJCommentListLayer::onModify<geode::modifier::ModifyBase<geode::modifier::ModifyDerive<MyGJCommentListLayer, GJCommentListLayer> > >(geode::modifier::ModifyBase<geode::modifier::ModifyDerive<MyGJCommentListLayer, GJCommentListLayer> >&)::{lambda()#1}>, void ()>::operator()()
PUBLIC af47c 0 std::__ndk1::__function::__func<MyGJCommentListLayer::onModify<geode::modifier::ModifyBase<geode::modifier::ModifyDerive<MyGJCommentListLayer, GJCommentListLayer> > >(geode::modifier::ModifyBase<geode::modifier::ModifyDerive<MyGJCommentListLayer, GJCommentListLayer> >&)::{lambda()#1}, std::__ndk1::allocator<MyGJCommentListLayer::onModify<geode::modifier::ModifyBase<geode::modifier::ModifyDerive<MyGJCommentListLayer, GJCommentListLayer> > >(geode::modifier::ModifyBase<geode::modifier::ModifyDerive<MyGJCommentListLayer, GJCommentListLayer> >&)::{lambda()#1}>, void ()>::target(std::type_info const&) const
PUBLIC af498 0 std::__ndk1::__function::__func<MyGJCommentListLayer::onModify<geode::modifier::ModifyBase<geode::modifier::ModifyDerive<MyGJCommentListLayer, GJCommentListLayer> > >(geode::modifier::ModifyBase<geode::modifier::ModifyDerive<MyGJCommentListLayer, GJCommentListLayer> >&)::{lambda()#1}, std::__ndk1::allocator<MyGJCommentListLayer::onModify<geode::modifier::ModifyBase<geode::modifier::ModifyDerive<MyGJCommentListLayer, GJCommentListLayer> > >(geode::modifier::ModifyBase<geode::modifier::ModifyDerive<MyGJCommentListLayer, GJCommentListLayer> >&)::{lambda()#1}>, void ()>::target_type() const
PUBLIC af4a4 0 geode::modifier::ModifyBase<geode::modifier::ModifyDerive<MyGJCommentListLayer, GJCommentListLayer> >::setHookPriorityBefore(std::__ndk1::basic_string_view<char, std::__ndk1::char_traits<char> >, geode::Mod*)::{lambda(geode::ModStateEvent*)#1}::operator()(geode::ModStateEvent*) const
PUBLIC af5b4 0 std::__ndk1::__function::__func<geode::modifier::ModifyBase<geode::modifier::ModifyDerive<MyGJCommentListLayer, GJCommentListLayer> >::setHookPriorityBefore(std::__ndk1::basic_string_view<char, std::__ndk1::char_traits<char> >, geode::Mod*)::{lambda(geode::ModStateEvent*)#1}, std::__ndk1::allocator<geode::modifier::ModifyBase<geode::modifier::ModifyDerive<MyGJCommentListLayer, GJCommentListLayer> >::setHookPriorityBefore(std::__ndk1::basic_string_view<char, std::__ndk1::char_traits<char> >, geode::Mod*)::{lambda(geode::ModStateEvent*)#1}>, void (geode::ModStateEvent*)>::~__func()
PUBLIC af5b8 0 std::__ndk1::__function::__func<geode::modifier::ModifyBase<geode::modifier::ModifyDerive<MyGJCommentListLayer, GJCommentListLayer> >::setHookPriorityBefore(std::__ndk1::basic_string_view<char, std::__ndk1::char_traits<char> >, geode::Mod*)::{lambda(geode::ModStateEvent*)#1}, std::__ndk1::allocator<geode::modifier::ModifyBase<geode::modifier::ModifyDerive<MyGJCommentListLayer, GJCommentListLayer> >::setHookPriorityBefore(std::__ndk1::basic_string_view<char, std::__ndk1::char_traits<char> >, geode::Mod*)::{lambda(geode::ModStateEvent*)#1}>, void (geode::ModStateEvent*)>::__clone() const
PUBLIC af5f0 0 std::__ndk1::__function::__func<geode::modifier::ModifyBase<geode::modifier::ModifyDerive<MyGJCommentListLayer, GJCommentListLayer> >::setHookPriorityBefore(std::__ndk1::basic_string_view<char, std::__ndk1::char_traits<char> >, geode::Mod*)::{lambda(geode::ModStateEvent*)#1}, std::__ndk1::allocator<geode::modifier::ModifyBase<geode::modifier::ModifyDerive<MyGJCommentListLayer, GJCommentListLayer> >::setHookPriorityBefore(std::__ndk1::basic_string_view<char, std::__ndk1::char_traits<char> >, geode::Mod*)::{lambda(geode::ModStateEvent*)#1}>, void (geode::ModStateEvent*)>::__clone(std::__ndk1::__function::__base<void (geode::ModStateEvent*)>*) const
PUBLIC af608 0 std::__ndk1::__function::__func<geode::modifier::ModifyBase<geode::modifier::ModifyDerive<MyGJCommentListLayer, GJCommentListLayer> >::setHookPriorityBefore(std::__ndk1::basic_string_view<char, std::__ndk1::char_traits<char> >, geode::Mod*)::{lambda(geode::ModStateEvent*)#1}, std::__ndk1::allocator<geode::modifier::ModifyBase<geode::modifier::ModifyDerive<MyGJCommentListLayer, GJCommentListLayer> >::setHookPriorityBefore(std::__ndk1::basic_string_view<char, std::__ndk1::char_traits<char> >, geode::Mod*)::{lambda(geode::ModStateEvent*)#1}>, void (geode::ModStateEvent*)>::destroy()
PUBLIC af60c 0 std::__ndk1::__function::__func<geode::modifier::ModifyBase<geode::modifier::ModifyDerive<MyGJCommentListLayer, GJCommentListLayer> >::setHookPriorityBefore(std::__ndk1::basic_string_view<char, std::__ndk1::char_traits<char> >, geode::Mod*)::{lambda(geode::ModStateEvent*)#1}, std::__ndk1::allocator<geode::modifier::ModifyBase<geode::modifier::ModifyDerive<MyGJCommentListLayer, GJCommentListLayer> >::setHookPriorityBefore(std::__ndk1::basic_string_view<char, std::__ndk1::char_traits<char> >, geode::Mod*)::{lambda(geode::ModStateEvent*)#1}>, void (geode::ModStateEvent*)>::destroy_deallocate()
PUBLIC af610 0 std::__ndk1::__function::__func<geode::modifier::ModifyBase<geode::modifier::ModifyDerive<MyGJCommentListLayer, GJCommentListLayer> >::setHookPriorityBefore(std::__ndk1::basic_string_view<char, std::__ndk1::char_traits<char> >, geode::Mod*)::{lambda(geode::ModStateEvent*)#1}, std::__ndk1::allocator<geode::modifier::ModifyBase<geode::modifier::ModifyDerive<MyGJCommentListLayer, GJCommentListLayer> >::setHookPriorityBefore(std::__ndk1::basic_string_view<char, std::__ndk1::char_traits<char> >, geode::Mod*)::{lambda(geode::ModStateEvent*)#1}>, void (geode::ModStateEvent*)>::operator()(geode::ModStateEvent*&&)
PUBLIC af618 0 std::__ndk1::__function::__func<geode::modifier::ModifyBase<geode::modifier::ModifyDerive<MyGJCommentListLayer, GJCommentListLayer> >::setHookPriorityBefore(std::__ndk1::basic_string_view<char, std::__ndk1::char_traits<char> >, geode::Mod*)::{lambda(geode::ModStateEvent*)#1}, std::__ndk1::allocator<geode::modifier::ModifyBase<geode::modifier::ModifyDerive<MyGJCommentListLayer, GJCommentListLayer> >::setHookPriorityBefore(std::__ndk1::basic_string_view<char, std::__ndk1::char_traits<char> >, geode::Mod*)::{lambda(geode::ModStateEvent*)#1}>, void (geode::ModStateEvent*)>::target(std::type_info const&) const
PUBLIC af634 0 std::__ndk1::__function::__func<geode::modifier::ModifyBase<geode::modifier::ModifyDerive<MyGJCommentListLayer, GJCommentListLayer> >::setHookPriorityBefore(std::__ndk1::basic_string_view<char, std::__ndk1::char_traits<char> >, geode::Mod*)::{lambda(geode::ModStateEvent*)#1}, std::__ndk1::allocator<geode::modifier::ModifyBase<geode::modifier::ModifyDerive<MyGJCommentListLayer, GJCommentListLayer> >::setHookPriorityBefore(std::__ndk1::basic_string_view<char, std::__ndk1::char_traits<char> >, geode::Mod*)::{lambda(geode::ModStateEvent*)#1}>, void (geode::ModStateEvent*)>::target_type() const
PUBLIC af640 0 geode::modifier::AsStaticFunction_create<MyGJCommentListLayer, GJCommentListLayer* (*)(BoomListView*, char const*, cocos2d::_ccColor4B, float, float, bool)>::Impl<GJCommentListLayer* (*)(BoomListView*, char const*, cocos2d::_ccColor4B, float, float, bool)>::function(BoomListView*, char const*, cocos2d::_ccColor4B, float, float, bool)
PUBLIC afb64 0 MyGJCommentListLayer::checkForParent(float)
PUBLIC afbbc 0 MyGJCommentListLayer::listenForPosition(float)
PUBLIC afc5c 0 MyGJCommentListLayer::listenForDisable(float)
PUBLIC afe20 0 MyGJCommentListLayer::updateBordersWithParent(cocos2d::CCNode*)
PUBLIC b009c 0 MyGJCommentListLayer::createMask(cocos2d::extension::CCScale9Sprite*)
PUBLIC b0440 0 geode::modifier::FieldIntermediate<MyGJCommentListLayer, GJCommentListLayer>::self()
PUBLIC b05d0 0 geode::modifier::FieldIntermediate<MyGJCommentListLayer, GJCommentListLayer>::fieldDestructor(void*)
PUBLIC b05d4 0 geode::modifier::ModifyDerive<MyGJDropDownLayer, GJDropDownLayer>::apply()
PUBLIC b0954 0 geode::modifier::ModifyBase<geode::modifier::ModifyDerive<MyGJDropDownLayer, GJDropDownLayer> >::apply()
PUBLIC b0958 0 std::__ndk1::__function::__func<MyGJDropDownLayer::onModify<geode::modifier::ModifyBase<geode::modifier::ModifyDerive<MyGJDropDownLayer, GJDropDownLayer> > >(geode::modifier::ModifyBase<geode::modifier::ModifyDerive<MyGJDropDownLayer, GJDropDownLayer> >&)::{lambda()#1}, std::__ndk1::allocator<MyGJDropDownLayer::onModify<geode::modifier::ModifyBase<geode::modifier::ModifyDerive<MyGJDropDownLayer, GJDropDownLayer> > >(geode::modifier::ModifyBase<geode::modifier::ModifyDerive<MyGJDropDownLayer, GJDropDownLayer> >&)::{lambda()#1}>, void ()>::~__func()
PUBLIC b095c 0 std::__ndk1::__function::__func<MyGJDropDownLayer::onModify<geode::modifier::ModifyBase<geode::modifier::ModifyDerive<MyGJDropDownLayer, GJDropDownLayer> > >(geode::modifier::ModifyBase<geode::modifier::ModifyDerive<MyGJDropDownLayer, GJDropDownLayer> >&)::{lambda()#1}, std::__ndk1::allocator<MyGJDropDownLayer::onModify<geode::modifier::ModifyBase<geode::modifier::ModifyDerive<MyGJDropDownLayer, GJDropDownLayer> > >(geode::modifier::ModifyBase<geode::modifier::ModifyDerive<MyGJDropDownLayer, GJDropDownLayer> >&)::{lambda()#1}>, void ()>::__clone() const
PUBLIC b0990 0 std::__ndk1::__function::__func<MyGJDropDownLayer::onModify<geode::modifier::ModifyBase<geode::modifier::ModifyDerive<MyGJDropDownLayer, GJDropDownLayer> > >(geode::modifier::ModifyBase<geode::modifier::ModifyDerive<MyGJDropDownLayer, GJDropDownLayer> >&)::{lambda()#1}, std::__ndk1::allocator<MyGJDropDownLayer::onModify<geode::modifier::ModifyBase<geode::modifier::ModifyDerive<MyGJDropDownLayer, GJDropDownLayer> > >(geode::modifier::ModifyBase<geode::modifier::ModifyDerive<MyGJDropDownLayer, GJDropDownLayer> >&)::{lambda()#1}>, void ()>::__clone(std::__ndk1::__function::__base<void ()>*) const
PUBLIC b09a4 0 std::__ndk1::__function::__func<MyGJDropDownLayer::onModify<geode::modifier::ModifyBase<geode::modifier::ModifyDerive<MyGJDropDownLayer, GJDropDownLayer> > >(geode::modifier::ModifyBase<geode::modifier::ModifyDerive<MyGJDropDownLayer, GJDropDownLayer> >&)::{lambda()#1}, std::__ndk1::allocator<MyGJDropDownLayer::onModify<geode::modifier::ModifyBase<geode::modifier::ModifyDerive<MyGJDropDownLayer, GJDropDownLayer> > >(geode::modifier::ModifyBase<geode::modifier::ModifyDerive<MyGJDropDownLayer, GJDropDownLayer> >&)::{lambda()#1}>, void ()>::destroy()
PUBLIC b09a8 0 std::__ndk1::__function::__func<MyGJDropDownLayer::onModify<geode::modifier::ModifyBase<geode::modifier::ModifyDerive<MyGJDropDownLayer, GJDropDownLayer> > >(geode::modifier::ModifyBase<geode::modifier::ModifyDerive<MyGJDropDownLayer, GJDropDownLayer> >&)::{lambda()#1}, std::__ndk1::allocator<MyGJDropDownLayer::onModify<geode::modifier::ModifyBase<geode::modifier::ModifyDerive<MyGJDropDownLayer, GJDropDownLayer> > >(geode::modifier::ModifyBase<geode::modifier::ModifyDerive<MyGJDropDownLayer, GJDropDownLayer> >&)::{lambda()#1}>, void ()>::destroy_deallocate()
PUBLIC b09ac 0 std::__ndk1::__function::__func<MyGJDropDownLayer::onModify<geode::modifier::ModifyBase<geode::modifier::ModifyDerive<MyGJDropDownLayer, GJDropDownLayer> > >(geode::modifier::ModifyBase<geode::modifier::ModifyDerive<MyGJDropDownLayer, GJDropDownLayer> >&)::{lambda()#1}, std::__ndk1::allocator<MyGJDropDownLayer::onModify<geode::modifier::ModifyBase<geode::modifier::ModifyDerive<MyGJDropDownLayer, GJDropDownLayer> > >(geode::modifier::ModifyBase<geode::modifier::ModifyDerive<MyGJDropDownLayer, GJDropDownLayer> >&)::{lambda()#1}>, void ()>::operator()()
PUBLIC b0f44 0 std::__ndk1::__function::__func<MyGJDropDownLayer::onModify<geode::modifier::ModifyBase<geode::modifier::ModifyDerive<MyGJDropDownLayer, GJDropDownLayer> > >(geode::modifier::ModifyBase<geode::modifier::ModifyDerive<MyGJDropDownLayer, GJDropDownLayer> >&)::{lambda()#1}, std::__ndk1::allocator<MyGJDropDownLayer::onModify<geode::modifier::ModifyBase<geode::modifier::ModifyDerive<MyGJDropDownLayer, GJDropDownLayer> > >(geode::modifier::ModifyBase<geode::modifier::ModifyDerive<MyGJDropDownLayer, GJDropDownLayer> >&)::{lambda()#1}>, void ()>::target(std::type_info const&) const
PUBLIC b0f60 0 std::__ndk1::__function::__func<MyGJDropDownLayer::onModify<geode::modifier::ModifyBase<geode::modifier::ModifyDerive<MyGJDropDownLayer, GJDropDownLayer> > >(geode::modifier::ModifyBase<geode::modifier::ModifyDerive<MyGJDropDownLayer, GJDropDownLayer> >&)::{lambda()#1}, std::__ndk1::allocator<MyGJDropDownLayer::onModify<geode::modifier::ModifyBase<geode::modifier::ModifyDerive<MyGJDropDownLayer, GJDropDownLayer> > >(geode::modifier::ModifyBase<geode::modifier::ModifyDerive<MyGJDropDownLayer, GJDropDownLayer> >&)::{lambda()#1}>, void ()>::target_type() const
PUBLIC b0f6c 0 geode::modifier::ModifyBase<geode::modifier::ModifyDerive<MyGJDropDownLayer, GJDropDownLayer> >::setHookPriorityBefore(std::__ndk1::basic_string_view<char, std::__ndk1::char_traits<char> >, geode::Mod*)::{lambda(geode::ModStateEvent*)#1}::operator()(geode::ModStateEvent*) const
PUBLIC b107c 0 std::__ndk1::__function::__func<geode::modifier::ModifyBase<geode::modifier::ModifyDerive<MyGJDropDownLayer, GJDropDownLayer> >::setHookPriorityBefore(std::__ndk1::basic_string_view<char, std::__ndk1::char_traits<char> >, geode::Mod*)::{lambda(geode::ModStateEvent*)#1}, std::__ndk1::allocator<geode::modifier::ModifyBase<geode::modifier::ModifyDerive<MyGJDropDownLayer, GJDropDownLayer> >::setHookPriorityBefore(std::__ndk1::basic_string_view<char, std::__ndk1::char_traits<char> >, geode::Mod*)::{lambda(geode::ModStateEvent*)#1}>, void (geode::ModStateEvent*)>::~__func()
PUBLIC b1080 0 std::__ndk1::__function::__func<geode::modifier::ModifyBase<geode::modifier::ModifyDerive<MyGJDropDownLayer, GJDropDownLayer> >::setHookPriorityBefore(std::__ndk1::basic_string_view<char, std::__ndk1::char_traits<char> >, geode::Mod*)::{lambda(geode::ModStateEvent*)#1}, std::__ndk1::allocator<geode::modifier::ModifyBase<geode::modifier::ModifyDerive<MyGJDropDownLayer, GJDropDownLayer> >::setHookPriorityBefore(std::__ndk1::basic_string_view<char, std::__ndk1::char_traits<char> >, geode::Mod*)::{lambda(geode::ModStateEvent*)#1}>, void (geode::ModStateEvent*)>::__clone() const
PUBLIC b10b8 0 std::__ndk1::__function::__func<geode::modifier::ModifyBase<geode::modifier::ModifyDerive<MyGJDropDownLayer, GJDropDownLayer> >::setHookPriorityBefore(std::__ndk1::basic_string_view<char, std::__ndk1::char_traits<char> >, geode::Mod*)::{lambda(geode::ModStateEvent*)#1}, std::__ndk1::allocator<geode::modifier::ModifyBase<geode::modifier::ModifyDerive<MyGJDropDownLayer, GJDropDownLayer> >::setHookPriorityBefore(std::__ndk1::basic_string_view<char, std::__ndk1::char_traits<char> >, geode::Mod*)::{lambda(geode::ModStateEvent*)#1}>, void (geode::ModStateEvent*)>::__clone(std::__ndk1::__function::__base<void (geode::ModStateEvent*)>*) const
PUBLIC b10d0 0 std::__ndk1::__function::__func<geode::modifier::ModifyBase<geode::modifier::ModifyDerive<MyGJDropDownLayer, GJDropDownLayer> >::setHookPriorityBefore(std::__ndk1::basic_string_view<char, std::__ndk1::char_traits<char> >, geode::Mod*)::{lambda(geode::ModStateEvent*)#1}, std::__ndk1::allocator<geode::modifier::ModifyBase<geode::modifier::ModifyDerive<MyGJDropDownLayer, GJDropDownLayer> >::setHookPriorityBefore(std::__ndk1::basic_string_view<char, std::__ndk1::char_traits<char> >, geode::Mod*)::{lambda(geode::ModStateEvent*)#1}>, void (geode::ModStateEvent*)>::destroy()
PUBLIC b10d4 0 std::__ndk1::__function::__func<geode::modifier::ModifyBase<geode::modifier::ModifyDerive<MyGJDropDownLayer, GJDropDownLayer> >::setHookPriorityBefore(std::__ndk1::basic_string_view<char, std::__ndk1::char_traits<char> >, geode::Mod*)::{lambda(geode::ModStateEvent*)#1}, std::__ndk1::allocator<geode::modifier::ModifyBase<geode::modifier::ModifyDerive<MyGJDropDownLayer, GJDropDownLayer> >::setHookPriorityBefore(std::__ndk1::basic_string_view<char, std::__ndk1::char_traits<char> >, geode::Mod*)::{lambda(geode::ModStateEvent*)#1}>, void (geode::ModStateEvent*)>::destroy_deallocate()
PUBLIC b10d8 0 std::__ndk1::__function::__func<geode::modifier::ModifyBase<geode::modifier::ModifyDerive<MyGJDropDownLayer, GJDropDownLayer> >::setHookPriorityBefore(std::__ndk1::basic_string_view<char, std::__ndk1::char_traits<char> >, geode::Mod*)::{lambda(geode::ModStateEvent*)#1}, std::__ndk1::allocator<geode::modifier::ModifyBase<geode::modifier::ModifyDerive<MyGJDropDownLayer, GJDropDownLayer> >::setHookPriorityBefore(std::__ndk1::basic_string_view<char, std::__ndk1::char_traits<char> >, geode::Mod*)::{lambda(geode::ModStateEvent*)#1}>, void (geode::ModStateEvent*)>::operator()(geode::ModStateEvent*&&)
PUBLIC b10e0 0 std::__ndk1::__function::__func<geode::modifier::ModifyBase<geode::modifier::ModifyDerive<MyGJDropDownLayer, GJDropDownLayer> >::setHookPriorityBefore(std::__ndk1::basic_string_view<char, std::__ndk1::char_traits<char> >, geode::Mod*)::{lambda(geode::ModStateEvent*)#1}, std::__ndk1::allocator<geode::modifier::ModifyBase<geode::modifier::ModifyDerive<MyGJDropDownLayer, GJDropDownLayer> >::setHookPriorityBefore(std::__ndk1::basic_string_view<char, std::__ndk1::char_traits<char> >, geode::Mod*)::{lambda(geode::ModStateEvent*)#1}>, void (geode::ModStateEvent*)>::target(std::type_info const&) const
PUBLIC b10fc 0 std::__ndk1::__function::__func<geode::modifier::ModifyBase<geode::modifier::ModifyDerive<MyGJDropDownLayer, GJDropDownLayer> >::setHookPriorityBefore(std::__ndk1::basic_string_view<char, std::__ndk1::char_traits<char> >, geode::Mod*)::{lambda(geode::ModStateEvent*)#1}, std::__ndk1::allocator<geode::modifier::ModifyBase<geode::modifier::ModifyDerive<MyGJDropDownLayer, GJDropDownLayer> >::setHookPriorityBefore(std::__ndk1::basic_string_view<char, std::__ndk1::char_traits<char> >, geode::Mod*)::{lambda(geode::ModStateEvent*)#1}>, void (geode::ModStateEvent*)>::target_type() const
PUBLIC b1108 0 geode::modifier::AsStaticFunction_showLayer<MyGJDropDownLayer, void (MyGJDropDownLayer::*)(bool)>::Impl<void (MyGJDropDownLayer::*)(bool)>::function(MyGJDropDownLayer*, bool)
PUBLIC b12cc 0 geode::addresser::Addresser::addressOfVirtual<void, GJDropDownLayer, bool>(void (GJDropDownLayer::*)(bool))
PUBLIC b1374 0 GJDropDownLayer::GJDropDownLayer(geode::ZeroConstructorType)
PUBLIC b13fc 0 cocos2d::CCSequence::create(cocos2d::CCFiniteTimeAction*, ...)
PUBLIC b1494 0 geode::modifier::ModifyDerive<MyGJListLayer, GJListLayer>::apply()
PUBLIC b189c 0 geode::modifier::ModifyBase<geode::modifier::ModifyDerive<MyGJListLayer, GJListLayer> >::apply()
PUBLIC b18a0 0 std::__ndk1::__function::__func<MyGJListLayer::onModify<geode::modifier::ModifyBase<geode::modifier::ModifyDerive<MyGJListLayer, GJListLayer> > >(geode::modifier::ModifyBase<geode::modifier::ModifyDerive<MyGJListLayer, GJListLayer> >&)::{lambda()#1}, std::__ndk1::allocator<MyGJListLayer::onModify<geode::modifier::ModifyBase<geode::modifier::ModifyDerive<MyGJListLayer, GJListLayer> > >(geode::modifier::ModifyBase<geode::modifier::ModifyDerive<MyGJListLayer, GJListLayer> >&)::{lambda()#1}>, void ()>::~__func()
PUBLIC b18a4 0 std::__ndk1::__function::__func<MyGJListLayer::onModify<geode::modifier::ModifyBase<geode::modifier::ModifyDerive<MyGJListLayer, GJListLayer> > >(geode::modifier::ModifyBase<geode::modifier::ModifyDerive<MyGJListLayer, GJListLayer> >&)::{lambda()#1}, std::__ndk1::allocator<MyGJListLayer::onModify<geode::modifier::ModifyBase<geode::modifier::ModifyDerive<MyGJListLayer, GJListLayer> > >(geode::modifier::ModifyBase<geode::modifier::ModifyDerive<MyGJListLayer, GJListLayer> >&)::{lambda()#1}>, void ()>::__clone() const
PUBLIC b18d8 0 std::__ndk1::__function::__func<MyGJListLayer::onModify<geode::modifier::ModifyBase<geode::modifier::ModifyDerive<MyGJListLayer, GJListLayer> > >(geode::modifier::ModifyBase<geode::modifier::ModifyDerive<MyGJListLayer, GJListLayer> >&)::{lambda()#1}, std::__ndk1::allocator<MyGJListLayer::onModify<geode::modifier::ModifyBase<geode::modifier::ModifyDerive<MyGJListLayer, GJListLayer> > >(geode::modifier::ModifyBase<geode::modifier::ModifyDerive<MyGJListLayer, GJListLayer> >&)::{lambda()#1}>, void ()>::__clone(std::__ndk1::__function::__base<void ()>*) const
PUBLIC b18ec 0 std::__ndk1::__function::__func<MyGJListLayer::onModify<geode::modifier::ModifyBase<geode::modifier::ModifyDerive<MyGJListLayer, GJListLayer> > >(geode::modifier::ModifyBase<geode::modifier::ModifyDerive<MyGJListLayer, GJListLayer> >&)::{lambda()#1}, std::__ndk1::allocator<MyGJListLayer::onModify<geode::modifier::ModifyBase<geode::modifier::ModifyDerive<MyGJListLayer, GJListLayer> > >(geode::modifier::ModifyBase<geode::modifier::ModifyDerive<MyGJListLayer, GJListLayer> >&)::{lambda()#1}>, void ()>::destroy()
PUBLIC b18f0 0 std::__ndk1::__function::__func<MyGJListLayer::onModify<geode::modifier::ModifyBase<geode::modifier::ModifyDerive<MyGJListLayer, GJListLayer> > >(geode::modifier::ModifyBase<geode::modifier::ModifyDerive<MyGJListLayer, GJListLayer> >&)::{lambda()#1}, std::__ndk1::allocator<MyGJListLayer::onModify<geode::modifier::ModifyBase<geode::modifier::ModifyDerive<MyGJListLayer, GJListLayer> > >(geode::modifier::ModifyBase<geode::modifier::ModifyDerive<MyGJListLayer, GJListLayer> >&)::{lambda()#1}>, void ()>::destroy_deallocate()
PUBLIC b18f4 0 std::__ndk1::__function::__func<MyGJListLayer::onModify<geode::modifier::ModifyBase<geode::modifier::ModifyDerive<MyGJListLayer, GJListLayer> > >(geode::modifier::ModifyBase<geode::modifier::ModifyDerive<MyGJListLayer, GJListLayer> >&)::{lambda()#1}, std::__ndk1::allocator<MyGJListLayer::onModify<geode::modifier::ModifyBase<geode::modifier::ModifyDerive<MyGJListLayer, GJListLayer> > >(geode::modifier::ModifyBase<geode::modifier::ModifyDerive<MyGJListLayer, GJListLayer> >&)::{lambda()#1}>, void ()>::operator()()
PUBLIC b1e54 0 std::__ndk1::__function::__func<MyGJListLayer::onModify<geode::modifier::ModifyBase<geode::modifier::ModifyDerive<MyGJListLayer, GJListLayer> > >(geode::modifier::ModifyBase<geode::modifier::ModifyDerive<MyGJListLayer, GJListLayer> >&)::{lambda()#1}, std::__ndk1::allocator<MyGJListLayer::onModify<geode::modifier::ModifyBase<geode::modifier::ModifyDerive<MyGJListLayer, GJListLayer> > >(geode::modifier::ModifyBase<geode::modifier::ModifyDerive<MyGJListLayer, GJListLayer> >&)::{lambda()#1}>, void ()>::target(std::type_info const&) const
PUBLIC b1e70 0 std::__ndk1::__function::__func<MyGJListLayer::onModify<geode::modifier::ModifyBase<geode::modifier::ModifyDerive<MyGJListLayer, GJListLayer> > >(geode::modifier::ModifyBase<geode::modifier::ModifyDerive<MyGJListLayer, GJListLayer> >&)::{lambda()#1}, std::__ndk1::allocator<MyGJListLayer::onModify<geode::modifier::ModifyBase<geode::modifier::ModifyDerive<MyGJListLayer, GJListLayer> > >(geode::modifier::ModifyBase<geode::modifier::ModifyDerive<MyGJListLayer, GJListLayer> >&)::{lambda()#1}>, void ()>::target_type() const
PUBLIC b1e7c 0 geode::modifier::ModifyBase<geode::modifier::ModifyDerive<MyGJListLayer, GJListLayer> >::setHookPriorityBefore(std::__ndk1::basic_string_view<char, std::__ndk1::char_traits<char> >, geode::Mod*)::{lambda(geode::ModStateEvent*)#1}::operator()(geode::ModStateEvent*) const
PUBLIC b1f8c 0 std::__ndk1::__function::__func<geode::modifier::ModifyBase<geode::modifier::ModifyDerive<MyGJListLayer, GJListLayer> >::setHookPriorityBefore(std::__ndk1::basic_string_view<char, std::__ndk1::char_traits<char> >, geode::Mod*)::{lambda(geode::ModStateEvent*)#1}, std::__ndk1::allocator<geode::modifier::ModifyBase<geode::modifier::ModifyDerive<MyGJListLayer, GJListLayer> >::setHookPriorityBefore(std::__ndk1::basic_string_view<char, std::__ndk1::char_traits<char> >, geode::Mod*)::{lambda(geode::ModStateEvent*)#1}>, void (geode::ModStateEvent*)>::~__func()
PUBLIC b1f90 0 std::__ndk1::__function::__func<geode::modifier::ModifyBase<geode::modifier::ModifyDerive<MyGJListLayer, GJListLayer> >::setHookPriorityBefore(std::__ndk1::basic_string_view<char, std::__ndk1::char_traits<char> >, geode::Mod*)::{lambda(geode::ModStateEvent*)#1}, std::__ndk1::allocator<geode::modifier::ModifyBase<geode::modifier::ModifyDerive<MyGJListLayer, GJListLayer> >::setHookPriorityBefore(std::__ndk1::basic_string_view<char, std::__ndk1::char_traits<char> >, geode::Mod*)::{lambda(geode::ModStateEvent*)#1}>, void (geode::ModStateEvent*)>::__clone() const
PUBLIC b1fc8 0 std::__ndk1::__function::__func<geode::modifier::ModifyBase<geode::modifier::ModifyDerive<MyGJListLayer, GJListLayer> >::setHookPriorityBefore(std::__ndk1::basic_string_view<char, std::__ndk1::char_traits<char> >, geode::Mod*)::{lambda(geode::ModStateEvent*)#1}, std::__ndk1::allocator<geode::modifier::ModifyBase<geode::modifier::ModifyDerive<MyGJListLayer, GJListLayer> >::setHookPriorityBefore(std::__ndk1::basic_string_view<char, std::__ndk1::char_traits<char> >, geode::Mod*)::{lambda(geode::ModStateEvent*)#1}>, void (geode::ModStateEvent*)>::__clone(std::__ndk1::__function::__base<void (geode::ModStateEvent*)>*) const
PUBLIC b1fe0 0 std::__ndk1::__function::__func<geode::modifier::ModifyBase<geode::modifier::ModifyDerive<MyGJListLayer, GJListLayer> >::setHookPriorityBefore(std::__ndk1::basic_string_view<char, std::__ndk1::char_traits<char> >, geode::Mod*)::{lambda(geode::ModStateEvent*)#1}, std::__ndk1::allocator<geode::modifier::ModifyBase<geode::modifier::ModifyDerive<MyGJListLayer, GJListLayer> >::setHookPriorityBefore(std::__ndk1::basic_string_view<char, std::__ndk1::char_traits<char> >, geode::Mod*)::{lambda(geode::ModStateEvent*)#1}>, void (geode::ModStateEvent*)>::destroy()
PUBLIC b1fe4 0 std::__ndk1::__function::__func<geode::modifier::ModifyBase<geode::modifier::ModifyDerive<MyGJListLayer, GJListLayer> >::setHookPriorityBefore(std::__ndk1::basic_string_view<char, std::__ndk1::char_traits<char> >, geode::Mod*)::{lambda(geode::ModStateEvent*)#1}, std::__ndk1::allocator<geode::modifier::ModifyBase<geode::modifier::ModifyDerive<MyGJListLayer, GJListLayer> >::setHookPriorityBefore(std::__ndk1::basic_string_view<char, std::__ndk1::char_traits<char> >, geode::Mod*)::{lambda(geode::ModStateEvent*)#1}>, void (geode::ModStateEvent*)>::destroy_deallocate()
PUBLIC b1fe8 0 std::__ndk1::__function::__func<geode::modifier::ModifyBase<geode::modifier::ModifyDerive<MyGJListLayer, GJListLayer> >::setHookPriorityBefore(std::__ndk1::basic_string_view<char, std::__ndk1::char_traits<char> >, geode::Mod*)::{lambda(geode::ModStateEvent*)#1}, std::__ndk1::allocator<geode::modifier::ModifyBase<geode::modifier::ModifyDerive<MyGJListLayer, GJListLayer> >::setHookPriorityBefore(std::__ndk1::basic_string_view<char, std::__ndk1::char_traits<char> >, geode::Mod*)::{lambda(geode::ModStateEvent*)#1}>, void (geode::ModStateEvent*)>::operator()(geode::ModStateEvent*&&)
PUBLIC b1ff0 0 std::__ndk1::__function::__func<geode::modifier::ModifyBase<geode::modifier::ModifyDerive<MyGJListLayer, GJListLayer> >::setHookPriorityBefore(std::__ndk1::basic_string_view<char, std::__ndk1::char_traits<char> >, geode::Mod*)::{lambda(geode::ModStateEvent*)#1}, std::__ndk1::allocator<geode::modifier::ModifyBase<geode::modifier::ModifyDerive<MyGJListLayer, GJListLayer> >::setHookPriorityBefore(std::__ndk1::basic_string_view<char, std::__ndk1::char_traits<char> >, geode::Mod*)::{lambda(geode::ModStateEvent*)#1}>, void (geode::ModStateEvent*)>::target(std::type_info const&) const
PUBLIC b200c 0 std::__ndk1::__function::__func<geode::modifier::ModifyBase<geode::modifier::ModifyDerive<MyGJListLayer, GJListLayer> >::setHookPriorityBefore(std::__ndk1::basic_string_view<char, std::__ndk1::char_traits<char> >, geode::Mod*)::{lambda(geode::ModStateEvent*)#1}, std::__ndk1::allocator<geode::modifier::ModifyBase<geode::modifier::ModifyDerive<MyGJListLayer, GJListLayer> >::setHookPriorityBefore(std::__ndk1::basic_string_view<char, std::__ndk1::char_traits<char> >, geode::Mod*)::{lambda(geode::ModStateEvent*)#1}>, void (geode::ModStateEvent*)>::target_type() const
PUBLIC b2018 0 geode::modifier::AsStaticFunction_create<MyGJListLayer, GJListLayer* (*)(BoomListView*, char const*, cocos2d::_ccColor4B, float, float, int)>::Impl<GJListLayer* (*)(BoomListView*, char const*, cocos2d::_ccColor4B, float, float, int)>::function(BoomListView*, char const*, cocos2d::_ccColor4B, float, float, int)
PUBLIC b2144 0 geode::modifier::ModifyDerive<MyInfoLayer, InfoLayer>::apply()
PUBLIC b24ec 0 geode::modifier::ModifyBase<geode::modifier::ModifyDerive<MyInfoLayer, InfoLayer> >::apply()
PUBLIC b24f0 0 std::__ndk1::__function::__func<MyInfoLayer::onModify<geode::modifier::ModifyBase<geode::modifier::ModifyDerive<MyInfoLayer, InfoLayer> > >(geode::modifier::ModifyBase<geode::modifier::ModifyDerive<MyInfoLayer, InfoLayer> >&)::{lambda()#1}, std::__ndk1::allocator<MyInfoLayer::onModify<geode::modifier::ModifyBase<geode::modifier::ModifyDerive<MyInfoLayer, InfoLayer> > >(geode::modifier::ModifyBase<geode::modifier::ModifyDerive<MyInfoLayer, InfoLayer> >&)::{lambda()#1}>, void ()>::~__func()
PUBLIC b24f4 0 std::__ndk1::__function::__func<MyInfoLayer::onModify<geode::modifier::ModifyBase<geode::modifier::ModifyDerive<MyInfoLayer, InfoLayer> > >(geode::modifier::ModifyBase<geode::modifier::ModifyDerive<MyInfoLayer, InfoLayer> >&)::{lambda()#1}, std::__ndk1::allocator<MyInfoLayer::onModify<geode::modifier::ModifyBase<geode::modifier::ModifyDerive<MyInfoLayer, InfoLayer> > >(geode::modifier::ModifyBase<geode::modifier::ModifyDerive<MyInfoLayer, InfoLayer> >&)::{lambda()#1}>, void ()>::__clone() const
PUBLIC b2528 0 std::__ndk1::__function::__func<MyInfoLayer::onModify<geode::modifier::ModifyBase<geode::modifier::ModifyDerive<MyInfoLayer, InfoLayer> > >(geode::modifier::ModifyBase<geode::modifier::ModifyDerive<MyInfoLayer, InfoLayer> >&)::{lambda()#1}, std::__ndk1::allocator<MyInfoLayer::onModify<geode::modifier::ModifyBase<geode::modifier::ModifyDerive<MyInfoLayer, InfoLayer> > >(geode::modifier::ModifyBase<geode::modifier::ModifyDerive<MyInfoLayer, InfoLayer> >&)::{lambda()#1}>, void ()>::__clone(std::__ndk1::__function::__base<void ()>*) const
PUBLIC b253c 0 std::__ndk1::__function::__func<MyInfoLayer::onModify<geode::modifier::ModifyBase<geode::modifier::ModifyDerive<MyInfoLayer, InfoLayer> > >(geode::modifier::ModifyBase<geode::modifier::ModifyDerive<MyInfoLayer, InfoLayer> >&)::{lambda()#1}, std::__ndk1::allocator<MyInfoLayer::onModify<geode::modifier::ModifyBase<geode::modifier::ModifyDerive<MyInfoLayer, InfoLayer> > >(geode::modifier::ModifyBase<geode::modifier::ModifyDerive<MyInfoLayer, InfoLayer> >&)::{lambda()#1}>, void ()>::destroy()
PUBLIC b2540 0 std::__ndk1::__function::__func<MyInfoLayer::onModify<geode::modifier::ModifyBase<geode::modifier::ModifyDerive<MyInfoLayer, InfoLayer> > >(geode::modifier::ModifyBase<geode::modifier::ModifyDerive<MyInfoLayer, InfoLayer> >&)::{lambda()#1}, std::__ndk1::allocator<MyInfoLayer::onModify<geode::modifier::ModifyBase<geode::modifier::ModifyDerive<MyInfoLayer, InfoLayer> > >(geode::modifier::ModifyBase<geode::modifier::ModifyDerive<MyInfoLayer, InfoLayer> >&)::{lambda()#1}>, void ()>::destroy_deallocate()
PUBLIC b2544 0 std::__ndk1::__function::__func<MyInfoLayer::onModify<geode::modifier::ModifyBase<geode::modifier::ModifyDerive<MyInfoLayer, InfoLayer> > >(geode::modifier::ModifyBase<geode::modifier::ModifyDerive<MyInfoLayer, InfoLayer> >&)::{lambda()#1}, std::__ndk1::allocator<MyInfoLayer::onModify<geode::modifier::ModifyBase<geode::modifier::ModifyDerive<MyInfoLayer, InfoLayer> > >(geode::modifier::ModifyBase<geode::modifier::ModifyDerive<MyInfoLayer, InfoLayer> >&)::{lambda()#1}>, void ()>::operator()()
PUBLIC b2a98 0 std::__ndk1::__function::__func<MyInfoLayer::onModify<geode::modifier::ModifyBase<geode::modifier::ModifyDerive<MyInfoLayer, InfoLayer> > >(geode::modifier::ModifyBase<geode::modifier::ModifyDerive<MyInfoLayer, InfoLayer> >&)::{lambda()#1}, std::__ndk1::allocator<MyInfoLayer::onModify<geode::modifier::ModifyBase<geode::modifier::ModifyDerive<MyInfoLayer, InfoLayer> > >(geode::modifier::ModifyBase<geode::modifier::ModifyDerive<MyInfoLayer, InfoLayer> >&)::{lambda()#1}>, void ()>::target(std::type_info const&) const
PUBLIC b2ab4 0 std::__ndk1::__function::__func<MyInfoLayer::onModify<geode::modifier::ModifyBase<geode::modifier::ModifyDerive<MyInfoLayer, InfoLayer> > >(geode::modifier::ModifyBase<geode::modifier::ModifyDerive<MyInfoLayer, InfoLayer> >&)::{lambda()#1}, std::__ndk1::allocator<MyInfoLayer::onModify<geode::modifier::ModifyBase<geode::modifier::ModifyDerive<MyInfoLayer, InfoLayer> > >(geode::modifier::ModifyBase<geode::modifier::ModifyDerive<MyInfoLayer, InfoLayer> >&)::{lambda()#1}>, void ()>::target_type() const
PUBLIC b2ac0 0 geode::modifier::ModifyBase<geode::modifier::ModifyDerive<MyInfoLayer, InfoLayer> >::setHookPriorityBefore(std::__ndk1::basic_string_view<char, std::__ndk1::char_traits<char> >, geode::Mod*)::{lambda(geode::ModStateEvent*)#1}::operator()(geode::ModStateEvent*) const
PUBLIC b2bd0 0 std::__ndk1::__function::__func<geode::modifier::ModifyBase<geode::modifier::ModifyDerive<MyInfoLayer, InfoLayer> >::setHookPriorityBefore(std::__ndk1::basic_string_view<char, std::__ndk1::char_traits<char> >, geode::Mod*)::{lambda(geode::ModStateEvent*)#1}, std::__ndk1::allocator<geode::modifier::ModifyBase<geode::modifier::ModifyDerive<MyInfoLayer, InfoLayer> >::setHookPriorityBefore(std::__ndk1::basic_string_view<char, std::__ndk1::char_traits<char> >, geode::Mod*)::{lambda(geode::ModStateEvent*)#1}>, void (geode::ModStateEvent*)>::~__func()
PUBLIC b2bd4 0 std::__ndk1::__function::__func<geode::modifier::ModifyBase<geode::modifier::ModifyDerive<MyInfoLayer, InfoLayer> >::setHookPriorityBefore(std::__ndk1::basic_string_view<char, std::__ndk1::char_traits<char> >, geode::Mod*)::{lambda(geode::ModStateEvent*)#1}, std::__ndk1::allocator<geode::modifier::ModifyBase<geode::modifier::ModifyDerive<MyInfoLayer, InfoLayer> >::setHookPriorityBefore(std::__ndk1::basic_string_view<char, std::__ndk1::char_traits<char> >, geode::Mod*)::{lambda(geode::ModStateEvent*)#1}>, void (geode::ModStateEvent*)>::__clone() const
PUBLIC b2c0c 0 std::__ndk1::__function::__func<geode::modifier::ModifyBase<geode::modifier::ModifyDerive<MyInfoLayer, InfoLayer> >::setHookPriorityBefore(std::__ndk1::basic_string_view<char, std::__ndk1::char_traits<char> >, geode::Mod*)::{lambda(geode::ModStateEvent*)#1}, std::__ndk1::allocator<geode::modifier::ModifyBase<geode::modifier::ModifyDerive<MyInfoLayer, InfoLayer> >::setHookPriorityBefore(std::__ndk1::basic_string_view<char, std::__ndk1::char_traits<char> >, geode::Mod*)::{lambda(geode::ModStateEvent*)#1}>, void (geode::ModStateEvent*)>::__clone(std::__ndk1::__function::__base<void (geode::ModStateEvent*)>*) const
PUBLIC b2c24 0 std::__ndk1::__function::__func<geode::modifier::ModifyBase<geode::modifier::ModifyDerive<MyInfoLayer, InfoLayer> >::setHookPriorityBefore(std::__ndk1::basic_string_view<char, std::__ndk1::char_traits<char> >, geode::Mod*)::{lambda(geode::ModStateEvent*)#1}, std::__ndk1::allocator<geode::modifier::ModifyBase<geode::modifier::ModifyDerive<MyInfoLayer, InfoLayer> >::setHookPriorityBefore(std::__ndk1::basic_string_view<char, std::__ndk1::char_traits<char> >, geode::Mod*)::{lambda(geode::ModStateEvent*)#1}>, void (geode::ModStateEvent*)>::destroy()
PUBLIC b2c28 0 std::__ndk1::__function::__func<geode::modifier::ModifyBase<geode::modifier::ModifyDerive<MyInfoLayer, InfoLayer> >::setHookPriorityBefore(std::__ndk1::basic_string_view<char, std::__ndk1::char_traits<char> >, geode::Mod*)::{lambda(geode::ModStateEvent*)#1}, std::__ndk1::allocator<geode::modifier::ModifyBase<geode::modifier::ModifyDerive<MyInfoLayer, InfoLayer> >::setHookPriorityBefore(std::__ndk1::basic_string_view<char, std::__ndk1::char_traits<char> >, geode::Mod*)::{lambda(geode::ModStateEvent*)#1}>, void (geode::ModStateEvent*)>::destroy_deallocate()
PUBLIC b2c2c 0 std::__ndk1::__function::__func<geode::modifier::ModifyBase<geode::modifier::ModifyDerive<MyInfoLayer, InfoLayer> >::setHookPriorityBefore(std::__ndk1::basic_string_view<char, std::__ndk1::char_traits<char> >, geode::Mod*)::{lambda(geode::ModStateEvent*)#1}, std::__ndk1::allocator<geode::modifier::ModifyBase<geode::modifier::ModifyDerive<MyInfoLayer, InfoLayer> >::setHookPriorityBefore(std::__ndk1::basic_string_view<char, std::__ndk1::char_traits<char> >, geode::Mod*)::{lambda(geode::ModStateEvent*)#1}>, void (geode::ModStateEvent*)>::operator()(geode::ModStateEvent*&&)
PUBLIC b2c34 0 std::__ndk1::__function::__func<geode::modifier::ModifyBase<geode::modifier::ModifyDerive<MyInfoLayer, InfoLayer> >::setHookPriorityBefore(std::__ndk1::basic_string_view<char, std::__ndk1::char_traits<char> >, geode::Mod*)::{lambda(geode::ModStateEvent*)#1}, std::__ndk1::allocator<geode::modifier::ModifyBase<geode::modifier::ModifyDerive<MyInfoLayer, InfoLayer> >::setHookPriorityBefore(std::__ndk1::basic_string_view<char, std::__ndk1::char_traits<char> >, geode::Mod*)::{lambda(geode::ModStateEvent*)#1}>, void (geode::ModStateEvent*)>::target(std::type_info const&) const
PUBLIC b2c50 0 std::__ndk1::__function::__func<geode::modifier::ModifyBase<geode::modifier::ModifyDerive<MyInfoLayer, InfoLayer> >::setHookPriorityBefore(std::__ndk1::basic_string_view<char, std::__ndk1::char_traits<char> >, geode::Mod*)::{lambda(geode::ModStateEvent*)#1}, std::__ndk1::allocator<geode::modifier::ModifyBase<geode::modifier::ModifyDerive<MyInfoLayer, InfoLayer> >::setHookPriorityBefore(std::__ndk1::basic_string_view<char, std::__ndk1::char_traits<char> >, geode::Mod*)::{lambda(geode::ModStateEvent*)#1}>, void (geode::ModStateEvent*)>::target_type() const
PUBLIC b2c5c 0 geode::modifier::AsStaticFunction_init<MyInfoLayer, bool (MyInfoLayer::*)(GJGameLevel*, GJUserScore*, GJLevelList*)>::Impl<bool (MyInfoLayer::*)(GJGameLevel*, GJUserScore*, GJLevelList*)>::function(MyInfoLayer*, GJGameLevel*, GJUserScore*, GJLevelList*)
PUBLIC b2e38 0 geode::modifier::ModifyDerive<MyLevelCell, LevelCell>::apply()
PUBLIC b31b8 0 geode::modifier::ModifyBase<geode::modifier::ModifyDerive<MyLevelCell, LevelCell> >::apply()
PUBLIC b31bc 0 std::__ndk1::__function::__func<MyLevelCell::onModify<geode::modifier::ModifyBase<geode::modifier::ModifyDerive<MyLevelCell, LevelCell> > >(geode::modifier::ModifyBase<geode::modifier::ModifyDerive<MyLevelCell, LevelCell> >&)::{lambda()#1}, std::__ndk1::allocator<MyLevelCell::onModify<geode::modifier::ModifyBase<geode::modifier::ModifyDerive<MyLevelCell, LevelCell> > >(geode::modifier::ModifyBase<geode::modifier::ModifyDerive<MyLevelCell, LevelCell> >&)::{lambda()#1}>, void ()>::~__func()
PUBLIC b31c0 0 std::__ndk1::__function::__func<MyLevelCell::onModify<geode::modifier::ModifyBase<geode::modifier::ModifyDerive<MyLevelCell, LevelCell> > >(geode::modifier::ModifyBase<geode::modifier::ModifyDerive<MyLevelCell, LevelCell> >&)::{lambda()#1}, std::__ndk1::allocator<MyLevelCell::onModify<geode::modifier::ModifyBase<geode::modifier::ModifyDerive<MyLevelCell, LevelCell> > >(geode::modifier::ModifyBase<geode::modifier::ModifyDerive<MyLevelCell, LevelCell> >&)::{lambda()#1}>, void ()>::__clone() const
PUBLIC b31f4 0 std::__ndk1::__function::__func<MyLevelCell::onModify<geode::modifier::ModifyBase<geode::modifier::ModifyDerive<MyLevelCell, LevelCell> > >(geode::modifier::ModifyBase<geode::modifier::ModifyDerive<MyLevelCell, LevelCell> >&)::{lambda()#1}, std::__ndk1::allocator<MyLevelCell::onModify<geode::modifier::ModifyBase<geode::modifier::ModifyDerive<MyLevelCell, LevelCell> > >(geode::modifier::ModifyBase<geode::modifier::ModifyDerive<MyLevelCell, LevelCell> >&)::{lambda()#1}>, void ()>::__clone(std::__ndk1::__function::__base<void ()>*) const
PUBLIC b3208 0 std::__ndk1::__function::__func<MyLevelCell::onModify<geode::modifier::ModifyBase<geode::modifier::ModifyDerive<MyLevelCell, LevelCell> > >(geode::modifier::ModifyBase<geode::modifier::ModifyDerive<MyLevelCell, LevelCell> >&)::{lambda()#1}, std::__ndk1::allocator<MyLevelCell::onModify<geode::modifier::ModifyBase<geode::modifier::ModifyDerive<MyLevelCell, LevelCell> > >(geode::modifier::ModifyBase<geode::modifier::ModifyDerive<MyLevelCell, LevelCell> >&)::{lambda()#1}>, void ()>::destroy()
PUBLIC b320c 0 std::__ndk1::__function::__func<MyLevelCell::onModify<geode::modifier::ModifyBase<geode::modifier::ModifyDerive<MyLevelCell, LevelCell> > >(geode::modifier::ModifyBase<geode::modifier::ModifyDerive<MyLevelCell, LevelCell> >&)::{lambda()#1}, std::__ndk1::allocator<MyLevelCell::onModify<geode::modifier::ModifyBase<geode::modifier::ModifyDerive<MyLevelCell, LevelCell> > >(geode::modifier::ModifyBase<geode::modifier::ModifyDerive<MyLevelCell, LevelCell> >&)::{lambda()#1}>, void ()>::destroy_deallocate()
PUBLIC b3210 0 std::__ndk1::__function::__func<MyLevelCell::onModify<geode::modifier::ModifyBase<geode::modifier::ModifyDerive<MyLevelCell, LevelCell> > >(geode::modifier::ModifyBase<geode::modifier::ModifyDerive<MyLevelCell, LevelCell> >&)::{lambda()#1}, std::__ndk1::allocator<MyLevelCell::onModify<geode::modifier::ModifyBase<geode::modifier::ModifyDerive<MyLevelCell, LevelCell> > >(geode::modifier::ModifyBase<geode::modifier::ModifyDerive<MyLevelCell, LevelCell> >&)::{lambda()#1}>, void ()>::operator()()
PUBLIC b37a0 0 std::__ndk1::__function::__func<MyLevelCell::onModify<geode::modifier::ModifyBase<geode::modifier::ModifyDerive<MyLevelCell, LevelCell> > >(geode::modifier::ModifyBase<geode::modifier::ModifyDerive<MyLevelCell, LevelCell> >&)::{lambda()#1}, std::__ndk1::allocator<MyLevelCell::onModify<geode::modifier::ModifyBase<geode::modifier::ModifyDerive<MyLevelCell, LevelCell> > >(geode::modifier::ModifyBase<geode::modifier::ModifyDerive<MyLevelCell, LevelCell> >&)::{lambda()#1}>, void ()>::target(std::type_info const&) const
PUBLIC b37bc 0 std::__ndk1::__function::__func<MyLevelCell::onModify<geode::modifier::ModifyBase<geode::modifier::ModifyDerive<MyLevelCell, LevelCell> > >(geode::modifier::ModifyBase<geode::modifier::ModifyDerive<MyLevelCell, LevelCell> >&)::{lambda()#1}, std::__ndk1::allocator<MyLevelCell::onModify<geode::modifier::ModifyBase<geode::modifier::ModifyDerive<MyLevelCell, LevelCell> > >(geode::modifier::ModifyBase<geode::modifier::ModifyDerive<MyLevelCell, LevelCell> >&)::{lambda()#1}>, void ()>::target_type() const
PUBLIC b37c8 0 geode::modifier::ModifyBase<geode::modifier::ModifyDerive<MyLevelCell, LevelCell> >::setHookPriorityBefore(std::__ndk1::basic_string_view<char, std::__ndk1::char_traits<char> >, geode::Mod*)::{lambda(geode::ModStateEvent*)#1}::operator()(geode::ModStateEvent*) const
PUBLIC b38d8 0 std::__ndk1::__function::__func<geode::modifier::ModifyBase<geode::modifier::ModifyDerive<MyLevelCell, LevelCell> >::setHookPriorityBefore(std::__ndk1::basic_string_view<char, std::__ndk1::char_traits<char> >, geode::Mod*)::{lambda(geode::ModStateEvent*)#1}, std::__ndk1::allocator<geode::modifier::ModifyBase<geode::modifier::ModifyDerive<MyLevelCell, LevelCell> >::setHookPriorityBefore(std::__ndk1::basic_string_view<char, std::__ndk1::char_traits<char> >, geode::Mod*)::{lambda(geode::ModStateEvent*)#1}>, void (geode::ModStateEvent*)>::~__func()
PUBLIC b38dc 0 std::__ndk1::__function::__func<geode::modifier::ModifyBase<geode::modifier::ModifyDerive<MyLevelCell, LevelCell> >::setHookPriorityBefore(std::__ndk1::basic_string_view<char, std::__ndk1::char_traits<char> >, geode::Mod*)::{lambda(geode::ModStateEvent*)#1}, std::__ndk1::allocator<geode::modifier::ModifyBase<geode::modifier::ModifyDerive<MyLevelCell, LevelCell> >::setHookPriorityBefore(std::__ndk1::basic_string_view<char, std::__ndk1::char_traits<char> >, geode::Mod*)::{lambda(geode::ModStateEvent*)#1}>, void (geode::ModStateEvent*)>::__clone() const
PUBLIC b3914 0 std::__ndk1::__function::__func<geode::modifier::ModifyBase<geode::modifier::ModifyDerive<MyLevelCell, LevelCell> >::setHookPriorityBefore(std::__ndk1::basic_string_view<char, std::__ndk1::char_traits<char> >, geode::Mod*)::{lambda(geode::ModStateEvent*)#1}, std::__ndk1::allocator<geode::modifier::ModifyBase<geode::modifier::ModifyDerive<MyLevelCell, LevelCell> >::setHookPriorityBefore(std::__ndk1::basic_string_view<char, std::__ndk1::char_traits<char> >, geode::Mod*)::{lambda(geode::ModStateEvent*)#1}>, void (geode::ModStateEvent*)>::__clone(std::__ndk1::__function::__base<void (geode::ModStateEvent*)>*) const
PUBLIC b392c 0 std::__ndk1::__function::__func<geode::modifier::ModifyBase<geode::modifier::ModifyDerive<MyLevelCell, LevelCell> >::setHookPriorityBefore(std::__ndk1::basic_string_view<char, std::__ndk1::char_traits<char> >, geode::Mod*)::{lambda(geode::ModStateEvent*)#1}, std::__ndk1::allocator<geode::modifier::ModifyBase<geode::modifier::ModifyDerive<MyLevelCell, LevelCell> >::setHookPriorityBefore(std::__ndk1::basic_string_view<char, std::__ndk1::char_traits<char> >, geode::Mod*)::{lambda(geode::ModStateEvent*)#1}>, void (geode::ModStateEvent*)>::destroy()
PUBLIC b3930 0 std::__ndk1::__function::__func<geode::modifier::ModifyBase<geode::modifier::ModifyDerive<MyLevelCell, LevelCell> >::setHookPriorityBefore(std::__ndk1::basic_string_view<char, std::__ndk1::char_traits<char> >, geode::Mod*)::{lambda(geode::ModStateEvent*)#1}, std::__ndk1::allocator<geode::modifier::ModifyBase<geode::modifier::ModifyDerive<MyLevelCell, LevelCell> >::setHookPriorityBefore(std::__ndk1::basic_string_view<char, std::__ndk1::char_traits<char> >, geode::Mod*)::{lambda(geode::ModStateEvent*)#1}>, void (geode::ModStateEvent*)>::destroy_deallocate()
PUBLIC b3934 0 std::__ndk1::__function::__func<geode::modifier::ModifyBase<geode::modifier::ModifyDerive<MyLevelCell, LevelCell> >::setHookPriorityBefore(std::__ndk1::basic_string_view<char, std::__ndk1::char_traits<char> >, geode::Mod*)::{lambda(geode::ModStateEvent*)#1}, std::__ndk1::allocator<geode::modifier::ModifyBase<geode::modifier::ModifyDerive<MyLevelCell, LevelCell> >::setHookPriorityBefore(std::__ndk1::basic_string_view<char, std::__ndk1::char_traits<char> >, geode::Mod*)::{lambda(geode::ModStateEvent*)#1}>, void (geode::ModStateEvent*)>::operator()(geode::ModStateEvent*&&)
PUBLIC b393c 0 std::__ndk1::__function::__func<geode::modifier::ModifyBase<geode::modifier::ModifyDerive<MyLevelCell, LevelCell> >::setHookPriorityBefore(std::__ndk1::basic_string_view<char, std::__ndk1::char_traits<char> >, geode::Mod*)::{lambda(geode::ModStateEvent*)#1}, std::__ndk1::allocator<geode::modifier::ModifyBase<geode::modifier::ModifyDerive<MyLevelCell, LevelCell> >::setHookPriorityBefore(std::__ndk1::basic_string_view<char, std::__ndk1::char_traits<char> >, geode::Mod*)::{lambda(geode::ModStateEvent*)#1}>, void (geode::ModStateEvent*)>::target(std::type_info const&) const
PUBLIC b3958 0 std::__ndk1::__function::__func<geode::modifier::ModifyBase<geode::modifier::ModifyDerive<MyLevelCell, LevelCell> >::setHookPriorityBefore(std::__ndk1::basic_string_view<char, std::__ndk1::char_traits<char> >, geode::Mod*)::{lambda(geode::ModStateEvent*)#1}, std::__ndk1::allocator<geode::modifier::ModifyBase<geode::modifier::ModifyDerive<MyLevelCell, LevelCell> >::setHookPriorityBefore(std::__ndk1::basic_string_view<char, std::__ndk1::char_traits<char> >, geode::Mod*)::{lambda(geode::ModStateEvent*)#1}>, void (geode::ModStateEvent*)>::target_type() const
PUBLIC b3964 0 geode::modifier::AsStaticFunction_loadFromLevel<MyLevelCell, void (MyLevelCell::*)(GJGameLevel*)>::Impl<void (MyLevelCell::*)(GJGameLevel*)>::function(MyLevelCell*, GJGameLevel*)
PUBLIC b3a1c 0 MyLevelCell::checkBG(float)
PUBLIC b3e60 0 geode::modifier::FieldIntermediate<MyLevelCell, LevelCell>::self()
PUBLIC b3ff0 0 geode::modifier::FieldIntermediate<MyLevelCell, LevelCell>::fieldDestructor(void*)
PUBLIC b3ff4 0 geode::modifier::ModifyDerive<MyLevelListCell, LevelListCell>::apply()
PUBLIC b437c 0 geode::modifier::ModifyBase<geode::modifier::ModifyDerive<MyLevelListCell, LevelListCell> >::apply()
PUBLIC b4380 0 std::__ndk1::__function::__func<MyLevelListCell::onModify<geode::modifier::ModifyBase<geode::modifier::ModifyDerive<MyLevelListCell, LevelListCell> > >(geode::modifier::ModifyBase<geode::modifier::ModifyDerive<MyLevelListCell, LevelListCell> >&)::{lambda()#1}, std::__ndk1::allocator<MyLevelListCell::onModify<geode::modifier::ModifyBase<geode::modifier::ModifyDerive<MyLevelListCell, LevelListCell> > >(geode::modifier::ModifyBase<geode::modifier::ModifyDerive<MyLevelListCell, LevelListCell> >&)::{lambda()#1}>, void ()>::~__func()
PUBLIC b4384 0 std::__ndk1::__function::__func<MyLevelListCell::onModify<geode::modifier::ModifyBase<geode::modifier::ModifyDerive<MyLevelListCell, LevelListCell> > >(geode::modifier::ModifyBase<geode::modifier::ModifyDerive<MyLevelListCell, LevelListCell> >&)::{lambda()#1}, std::__ndk1::allocator<MyLevelListCell::onModify<geode::modifier::ModifyBase<geode::modifier::ModifyDerive<MyLevelListCell, LevelListCell> > >(geode::modifier::ModifyBase<geode::modifier::ModifyDerive<MyLevelListCell, LevelListCell> >&)::{lambda()#1}>, void ()>::__clone() const
PUBLIC b43b8 0 std::__ndk1::__function::__func<MyLevelListCell::onModify<geode::modifier::ModifyBase<geode::modifier::ModifyDerive<MyLevelListCell, LevelListCell> > >(geode::modifier::ModifyBase<geode::modifier::ModifyDerive<MyLevelListCell, LevelListCell> >&)::{lambda()#1}, std::__ndk1::allocator<MyLevelListCell::onModify<geode::modifier::ModifyBase<geode::modifier::ModifyDerive<MyLevelListCell, LevelListCell> > >(geode::modifier::ModifyBase<geode::modifier::ModifyDerive<MyLevelListCell, LevelListCell> >&)::{lambda()#1}>, void ()>::__clone(std::__ndk1::__function::__base<void ()>*) const
PUBLIC b43cc 0 std::__ndk1::__function::__func<MyLevelListCell::onModify<geode::modifier::ModifyBase<geode::modifier::ModifyDerive<MyLevelListCell, LevelListCell> > >(geode::modifier::ModifyBase<geode::modifier::ModifyDerive<MyLevelListCell, LevelListCell> >&)::{lambda()#1}, std::__ndk1::allocator<MyLevelListCell::onModify<geode::modifier::ModifyBase<geode::modifier::ModifyDerive<MyLevelListCell, LevelListCell> > >(geode::modifier::ModifyBase<geode::modifier::ModifyDerive<MyLevelListCell, LevelListCell> >&)::{lambda()#1}>, void ()>::destroy()
PUBLIC b43d0 0 std::__ndk1::__function::__func<MyLevelListCell::onModify<geode::modifier::ModifyBase<geode::modifier::ModifyDerive<MyLevelListCell, LevelListCell> > >(geode::modifier::ModifyBase<geode::modifier::ModifyDerive<MyLevelListCell, LevelListCell> >&)::{lambda()#1}, std::__ndk1::allocator<MyLevelListCell::onModify<geode::modifier::ModifyBase<geode::modifier::ModifyDerive<MyLevelListCell, LevelListCell> > >(geode::modifier::ModifyBase<geode::modifier::ModifyDerive<MyLevelListCell, LevelListCell> >&)::{lambda()#1}>, void ()>::destroy_deallocate()
PUBLIC b43d4 0 std::__ndk1::__function::__func<MyLevelListCell::onModify<geode::modifier::ModifyBase<geode::modifier::ModifyDerive<MyLevelListCell, LevelListCell> > >(geode::modifier::ModifyBase<geode::modifier::ModifyDerive<MyLevelListCell, LevelListCell> >&)::{lambda()#1}, std::__ndk1::allocator<MyLevelListCell::onModify<geode::modifier::ModifyBase<geode::modifier::ModifyDerive<MyLevelListCell, LevelListCell> > >(geode::modifier::ModifyBase<geode::modifier::ModifyDerive<MyLevelListCell, LevelListCell> >&)::{lambda()#1}>, void ()>::operator()()
PUBLIC b496c 0 std::__ndk1::__function::__func<MyLevelListCell::onModify<geode::modifier::ModifyBase<geode::modifier::ModifyDerive<MyLevelListCell, LevelListCell> > >(geode::modifier::ModifyBase<geode::modifier::ModifyDerive<MyLevelListCell, LevelListCell> >&)::{lambda()#1}, std::__ndk1::allocator<MyLevelListCell::onModify<geode::modifier::ModifyBase<geode::modifier::ModifyDerive<MyLevelListCell, LevelListCell> > >(geode::modifier::ModifyBase<geode::modifier::ModifyDerive<MyLevelListCell, LevelListCell> >&)::{lambda()#1}>, void ()>::target(std::type_info const&) const
PUBLIC b4988 0 std::__ndk1::__function::__func<MyLevelListCell::onModify<geode::modifier::ModifyBase<geode::modifier::ModifyDerive<MyLevelListCell, LevelListCell> > >(geode::modifier::ModifyBase<geode::modifier::ModifyDerive<MyLevelListCell, LevelListCell> >&)::{lambda()#1}, std::__ndk1::allocator<MyLevelListCell::onModify<geode::modifier::ModifyBase<geode::modifier::ModifyDerive<MyLevelListCell, LevelListCell> > >(geode::modifier::ModifyBase<geode::modifier::ModifyDerive<MyLevelListCell, LevelListCell> >&)::{lambda()#1}>, void ()>::target_type() const
PUBLIC b4994 0 geode::modifier::ModifyBase<geode::modifier::ModifyDerive<MyLevelListCell, LevelListCell> >::setHookPriorityBefore(std::__ndk1::basic_string_view<char, std::__ndk1::char_traits<char> >, geode::Mod*)::{lambda(geode::ModStateEvent*)#1}::operator()(geode::ModStateEvent*) const
PUBLIC b4aa4 0 std::__ndk1::__function::__func<geode::modifier::ModifyBase<geode::modifier::ModifyDerive<MyLevelListCell, LevelListCell> >::setHookPriorityBefore(std::__ndk1::basic_string_view<char, std::__ndk1::char_traits<char> >, geode::Mod*)::{lambda(geode::ModStateEvent*)#1}, std::__ndk1::allocator<geode::modifier::ModifyBase<geode::modifier::ModifyDerive<MyLevelListCell, LevelListCell> >::setHookPriorityBefore(std::__ndk1::basic_string_view<char, std::__ndk1::char_traits<char> >, geode::Mod*)::{lambda(geode::ModStateEvent*)#1}>, void (geode::ModStateEvent*)>::~__func()
PUBLIC b4aa8 0 std::__ndk1::__function::__func<geode::modifier::ModifyBase<geode::modifier::ModifyDerive<MyLevelListCell, LevelListCell> >::setHookPriorityBefore(std::__ndk1::basic_string_view<char, std::__ndk1::char_traits<char> >, geode::Mod*)::{lambda(geode::ModStateEvent*)#1}, std::__ndk1::allocator<geode::modifier::ModifyBase<geode::modifier::ModifyDerive<MyLevelListCell, LevelListCell> >::setHookPriorityBefore(std::__ndk1::basic_string_view<char, std::__ndk1::char_traits<char> >, geode::Mod*)::{lambda(geode::ModStateEvent*)#1}>, void (geode::ModStateEvent*)>::__clone() const
PUBLIC b4ae0 0 std::__ndk1::__function::__func<geode::modifier::ModifyBase<geode::modifier::ModifyDerive<MyLevelListCell, LevelListCell> >::setHookPriorityBefore(std::__ndk1::basic_string_view<char, std::__ndk1::char_traits<char> >, geode::Mod*)::{lambda(geode::ModStateEvent*)#1}, std::__ndk1::allocator<geode::modifier::ModifyBase<geode::modifier::ModifyDerive<MyLevelListCell, LevelListCell> >::setHookPriorityBefore(std::__ndk1::basic_string_view<char, std::__ndk1::char_traits<char> >, geode::Mod*)::{lambda(geode::ModStateEvent*)#1}>, void (geode::ModStateEvent*)>::__clone(std::__ndk1::__function::__base<void (geode::ModStateEvent*)>*) const
PUBLIC b4af8 0 std::__ndk1::__function::__func<geode::modifier::ModifyBase<geode::modifier::ModifyDerive<MyLevelListCell, LevelListCell> >::setHookPriorityBefore(std::__ndk1::basic_string_view<char, std::__ndk1::char_traits<char> >, geode::Mod*)::{lambda(geode::ModStateEvent*)#1}, std::__ndk1::allocator<geode::modifier::ModifyBase<geode::modifier::ModifyDerive<MyLevelListCell, LevelListCell> >::setHookPriorityBefore(std::__ndk1::basic_string_view<char, std::__ndk1::char_traits<char> >, geode::Mod*)::{lambda(geode::ModStateEvent*)#1}>, void (geode::ModStateEvent*)>::destroy()
PUBLIC b4afc 0 std::__ndk1::__function::__func<geode::modifier::ModifyBase<geode::modifier::ModifyDerive<MyLevelListCell, LevelListCell> >::setHookPriorityBefore(std::__ndk1::basic_string_view<char, std::__ndk1::char_traits<char> >, geode::Mod*)::{lambda(geode::ModStateEvent*)#1}, std::__ndk1::allocator<geode::modifier::ModifyBase<geode::modifier::ModifyDerive<MyLevelListCell, LevelListCell> >::setHookPriorityBefore(std::__ndk1::basic_string_view<char, std::__ndk1::char_traits<char> >, geode::Mod*)::{lambda(geode::ModStateEvent*)#1}>, void (geode::ModStateEvent*)>::destroy_deallocate()
PUBLIC b4b00 0 std::__ndk1::__function::__func<geode::modifier::ModifyBase<geode::modifier::ModifyDerive<MyLevelListCell, LevelListCell> >::setHookPriorityBefore(std::__ndk1::basic_string_view<char, std::__ndk1::char_traits<char> >, geode::Mod*)::{lambda(geode::ModStateEvent*)#1}, std::__ndk1::allocator<geode::modifier::ModifyBase<geode::modifier::ModifyDerive<MyLevelListCell, LevelListCell> >::setHookPriorityBefore(std::__ndk1::basic_string_view<char, std::__ndk1::char_traits<char> >, geode::Mod*)::{lambda(geode::ModStateEvent*)#1}>, void (geode::ModStateEvent*)>::operator()(geode::ModStateEvent*&&)
PUBLIC b4b08 0 std::__ndk1::__function::__func<geode::modifier::ModifyBase<geode::modifier::ModifyDerive<MyLevelListCell, LevelListCell> >::setHookPriorityBefore(std::__ndk1::basic_string_view<char, std::__ndk1::char_traits<char> >, geode::Mod*)::{lambda(geode::ModStateEvent*)#1}, std::__ndk1::allocator<geode::modifier::ModifyBase<geode::modifier::ModifyDerive<MyLevelListCell, LevelListCell> >::setHookPriorityBefore(std::__ndk1::basic_string_view<char, std::__ndk1::char_traits<char> >, geode::Mod*)::{lambda(geode::ModStateEvent*)#1}>, void (geode::ModStateEvent*)>::target(std::type_info const&) const
PUBLIC b4b24 0 std::__ndk1::__function::__func<geode::modifier::ModifyBase<geode::modifier::ModifyDerive<MyLevelListCell, LevelListCell> >::setHookPriorityBefore(std::__ndk1::basic_string_view<char, std::__ndk1::char_traits<char> >, geode::Mod*)::{lambda(geode::ModStateEvent*)#1}, std::__ndk1::allocator<geode::modifier::ModifyBase<geode::modifier::ModifyDerive<MyLevelListCell, LevelListCell> >::setHookPriorityBefore(std::__ndk1::basic_string_view<char, std::__ndk1::char_traits<char> >, geode::Mod*)::{lambda(geode::ModStateEvent*)#1}>, void (geode::ModStateEvent*)>::target_type() const
PUBLIC b4b30 0 geode::modifier::AsStaticFunction_loadFromList<MyLevelListCell, void (MyLevelListCell::*)(GJLevelList*)>::Impl<void (MyLevelListCell::*)(GJLevelList*)>::function(MyLevelListCell*, GJLevelList*)
PUBLIC b4be8 0 MyLevelListCell::checkBG(float)
PUBLIC b502c 0 geode::modifier::FieldIntermediate<MyLevelListCell, LevelListCell>::self()
PUBLIC b51bc 0 geode::modifier::FieldIntermediate<MyLevelListCell, LevelListCell>::fieldDestructor(void*)
PUBLIC b51c0 0 geode::modifier::ModifyDerive<MyGJScoreCell, GJScoreCell>::apply()
PUBLIC b5548 0 geode::modifier::ModifyBase<geode::modifier::ModifyDerive<MyGJScoreCell, GJScoreCell> >::apply()
PUBLIC b554c 0 std::__ndk1::__function::__func<MyGJScoreCell::onModify<geode::modifier::ModifyBase<geode::modifier::ModifyDerive<MyGJScoreCell, GJScoreCell> > >(geode::modifier::ModifyBase<geode::modifier::ModifyDerive<MyGJScoreCell, GJScoreCell> >&)::{lambda()#1}, std::__ndk1::allocator<MyGJScoreCell::onModify<geode::modifier::ModifyBase<geode::modifier::ModifyDerive<MyGJScoreCell, GJScoreCell> > >(geode::modifier::ModifyBase<geode::modifier::ModifyDerive<MyGJScoreCell, GJScoreCell> >&)::{lambda()#1}>, void ()>::~__func()
PUBLIC b5550 0 std::__ndk1::__function::__func<MyGJScoreCell::onModify<geode::modifier::ModifyBase<geode::modifier::ModifyDerive<MyGJScoreCell, GJScoreCell> > >(geode::modifier::ModifyBase<geode::modifier::ModifyDerive<MyGJScoreCell, GJScoreCell> >&)::{lambda()#1}, std::__ndk1::allocator<MyGJScoreCell::onModify<geode::modifier::ModifyBase<geode::modifier::ModifyDerive<MyGJScoreCell, GJScoreCell> > >(geode::modifier::ModifyBase<geode::modifier::ModifyDerive<MyGJScoreCell, GJScoreCell> >&)::{lambda()#1}>, void ()>::__clone() const
PUBLIC b5584 0 std::__ndk1::__function::__func<MyGJScoreCell::onModify<geode::modifier::ModifyBase<geode::modifier::ModifyDerive<MyGJScoreCell, GJScoreCell> > >(geode::modifier::ModifyBase<geode::modifier::ModifyDerive<MyGJScoreCell, GJScoreCell> >&)::{lambda()#1}, std::__ndk1::allocator<MyGJScoreCell::onModify<geode::modifier::ModifyBase<geode::modifier::ModifyDerive<MyGJScoreCell, GJScoreCell> > >(geode::modifier::ModifyBase<geode::modifier::ModifyDerive<MyGJScoreCell, GJScoreCell> >&)::{lambda()#1}>, void ()>::__clone(std::__ndk1::__function::__base<void ()>*) const
PUBLIC b5598 0 std::__ndk1::__function::__func<MyGJScoreCell::onModify<geode::modifier::ModifyBase<geode::modifier::ModifyDerive<MyGJScoreCell, GJScoreCell> > >(geode::modifier::ModifyBase<geode::modifier::ModifyDerive<MyGJScoreCell, GJScoreCell> >&)::{lambda()#1}, std::__ndk1::allocator<MyGJScoreCell::onModify<geode::modifier::ModifyBase<geode::modifier::ModifyDerive<MyGJScoreCell, GJScoreCell> > >(geode::modifier::ModifyBase<geode::modifier::ModifyDerive<MyGJScoreCell, GJScoreCell> >&)::{lambda()#1}>, void ()>::destroy()
PUBLIC b559c 0 std::__ndk1::__function::__func<MyGJScoreCell::onModify<geode::modifier::ModifyBase<geode::modifier::ModifyDerive<MyGJScoreCell, GJScoreCell> > >(geode::modifier::ModifyBase<geode::modifier::ModifyDerive<MyGJScoreCell, GJScoreCell> >&)::{lambda()#1}, std::__ndk1::allocator<MyGJScoreCell::onModify<geode::modifier::ModifyBase<geode::modifier::ModifyDerive<MyGJScoreCell, GJScoreCell> > >(geode::modifier::ModifyBase<geode::modifier::ModifyDerive<MyGJScoreCell, GJScoreCell> >&)::{lambda()#1}>, void ()>::destroy_deallocate()
PUBLIC b55a0 0 std::__ndk1::__function::__func<MyGJScoreCell::onModify<geode::modifier::ModifyBase<geode::modifier::ModifyDerive<MyGJScoreCell, GJScoreCell> > >(geode::modifier::ModifyBase<geode::modifier::ModifyDerive<MyGJScoreCell, GJScoreCell> >&)::{lambda()#1}, std::__ndk1::allocator<MyGJScoreCell::onModify<geode::modifier::ModifyBase<geode::modifier::ModifyDerive<MyGJScoreCell, GJScoreCell> > >(geode::modifier::ModifyBase<geode::modifier::ModifyDerive<MyGJScoreCell, GJScoreCell> >&)::{lambda()#1}>, void ()>::operator()()
PUBLIC b5b38 0 std::__ndk1::__function::__func<MyGJScoreCell::onModify<geode::modifier::ModifyBase<geode::modifier::ModifyDerive<MyGJScoreCell, GJScoreCell> > >(geode::modifier::ModifyBase<geode::modifier::ModifyDerive<MyGJScoreCell, GJScoreCell> >&)::{lambda()#1}, std::__ndk1::allocator<MyGJScoreCell::onModify<geode::modifier::ModifyBase<geode::modifier::ModifyDerive<MyGJScoreCell, GJScoreCell> > >(geode::modifier::ModifyBase<geode::modifier::ModifyDerive<MyGJScoreCell, GJScoreCell> >&)::{lambda()#1}>, void ()>::target(std::type_info const&) const
PUBLIC b5b54 0 std::__ndk1::__function::__func<MyGJScoreCell::onModify<geode::modifier::ModifyBase<geode::modifier::ModifyDerive<MyGJScoreCell, GJScoreCell> > >(geode::modifier::ModifyBase<geode::modifier::ModifyDerive<MyGJScoreCell, GJScoreCell> >&)::{lambda()#1}, std::__ndk1::allocator<MyGJScoreCell::onModify<geode::modifier::ModifyBase<geode::modifier::ModifyDerive<MyGJScoreCell, GJScoreCell> > >(geode::modifier::ModifyBase<geode::modifier::ModifyDerive<MyGJScoreCell, GJScoreCell> >&)::{lambda()#1}>, void ()>::target_type() const
PUBLIC b5b60 0 geode::modifier::ModifyBase<geode::modifier::ModifyDerive<MyGJScoreCell, GJScoreCell> >::setHookPriorityBefore(std::__ndk1::basic_string_view<char, std::__ndk1::char_traits<char> >, geode::Mod*)::{lambda(geode::ModStateEvent*)#1}::operator()(geode::ModStateEvent*) const
PUBLIC b5c70 0 std::__ndk1::__function::__func<geode::modifier::ModifyBase<geode::modifier::ModifyDerive<MyGJScoreCell, GJScoreCell> >::setHookPriorityBefore(std::__ndk1::basic_string_view<char, std::__ndk1::char_traits<char> >, geode::Mod*)::{lambda(geode::ModStateEvent*)#1}, std::__ndk1::allocator<geode::modifier::ModifyBase<geode::modifier::ModifyDerive<MyGJScoreCell, GJScoreCell> >::setHookPriorityBefore(std::__ndk1::basic_string_view<char, std::__ndk1::char_traits<char> >, geode::Mod*)::{lambda(geode::ModStateEvent*)#1}>, void (geode::ModStateEvent*)>::~__func()
PUBLIC b5c74 0 std::__ndk1::__function::__func<geode::modifier::ModifyBase<geode::modifier::ModifyDerive<MyGJScoreCell, GJScoreCell> >::setHookPriorityBefore(std::__ndk1::basic_string_view<char, std::__ndk1::char_traits<char> >, geode::Mod*)::{lambda(geode::ModStateEvent*)#1}, std::__ndk1::allocator<geode::modifier::ModifyBase<geode::modifier::ModifyDerive<MyGJScoreCell, GJScoreCell> >::setHookPriorityBefore(std::__ndk1::basic_string_view<char, std::__ndk1::char_traits<char> >, geode::Mod*)::{lambda(geode::ModStateEvent*)#1}>, void (geode::ModStateEvent*)>::__clone() const
PUBLIC b5cac 0 std::__ndk1::__function::__func<geode::modifier::ModifyBase<geode::modifier::ModifyDerive<MyGJScoreCell, GJScoreCell> >::setHookPriorityBefore(std::__ndk1::basic_string_view<char, std::__ndk1::char_traits<char> >, geode::Mod*)::{lambda(geode::ModStateEvent*)#1}, std::__ndk1::allocator<geode::modifier::ModifyBase<geode::modifier::ModifyDerive<MyGJScoreCell, GJScoreCell> >::setHookPriorityBefore(std::__ndk1::basic_string_view<char, std::__ndk1::char_traits<char> >, geode::Mod*)::{lambda(geode::ModStateEvent*)#1}>, void (geode::ModStateEvent*)>::__clone(std::__ndk1::__function::__base<void (geode::ModStateEvent*)>*) const
PUBLIC b5cc4 0 std::__ndk1::__function::__func<geode::modifier::ModifyBase<geode::modifier::ModifyDerive<MyGJScoreCell, GJScoreCell> >::setHookPriorityBefore(std::__ndk1::basic_string_view<char, std::__ndk1::char_traits<char> >, geode::Mod*)::{lambda(geode::ModStateEvent*)#1}, std::__ndk1::allocator<geode::modifier::ModifyBase<geode::modifier::ModifyDerive<MyGJScoreCell, GJScoreCell> >::setHookPriorityBefore(std::__ndk1::basic_string_view<char, std::__ndk1::char_traits<char> >, geode::Mod*)::{lambda(geode::ModStateEvent*)#1}>, void (geode::ModStateEvent*)>::destroy()
PUBLIC b5cc8 0 std::__ndk1::__function::__func<geode::modifier::ModifyBase<geode::modifier::ModifyDerive<MyGJScoreCell, GJScoreCell> >::setHookPriorityBefore(std::__ndk1::basic_string_view<char, std::__ndk1::char_traits<char> >, geode::Mod*)::{lambda(geode::ModStateEvent*)#1}, std::__ndk1::allocator<geode::modifier::ModifyBase<geode::modifier::ModifyDerive<MyGJScoreCell, GJScoreCell> >::setHookPriorityBefore(std::__ndk1::basic_string_view<char, std::__ndk1::char_traits<char> >, geode::Mod*)::{lambda(geode::ModStateEvent*)#1}>, void (geode::ModStateEvent*)>::destroy_deallocate()
PUBLIC b5ccc 0 std::__ndk1::__function::__func<geode::modifier::ModifyBase<geode::modifier::ModifyDerive<MyGJScoreCell, GJScoreCell> >::setHookPriorityBefore(std::__ndk1::basic_string_view<char, std::__ndk1::char_traits<char> >, geode::Mod*)::{lambda(geode::ModStateEvent*)#1}, std::__ndk1::allocator<geode::modifier::ModifyBase<geode::modifier::ModifyDerive<MyGJScoreCell, GJScoreCell> >::setHookPriorityBefore(std::__ndk1::basic_string_view<char, std::__ndk1::char_traits<char> >, geode::Mod*)::{lambda(geode::ModStateEvent*)#1}>, void (geode::ModStateEvent*)>::operator()(geode::ModStateEvent*&&)
PUBLIC b5cd4 0 std::__ndk1::__function::__func<geode::modifier::ModifyBase<geode::modifier::ModifyDerive<MyGJScoreCell, GJScoreCell> >::setHookPriorityBefore(std::__ndk1::basic_string_view<char, std::__ndk1::char_traits<char> >, geode::Mod*)::{lambda(geode::ModStateEvent*)#1}, std::__ndk1::allocator<geode::modifier::ModifyBase<geode::modifier::ModifyDerive<MyGJScoreCell, GJScoreCell> >::setHookPriorityBefore(std::__ndk1::basic_string_view<char, std::__ndk1::char_traits<char> >, geode::Mod*)::{lambda(geode::ModStateEvent*)#1}>, void (geode::ModStateEvent*)>::target(std::type_info const&) const
PUBLIC b5cf0 0 std::__ndk1::__function::__func<geode::modifier::ModifyBase<geode::modifier::ModifyDerive<MyGJScoreCell, GJScoreCell> >::setHookPriorityBefore(std::__ndk1::basic_string_view<char, std::__ndk1::char_traits<char> >, geode::Mod*)::{lambda(geode::ModStateEvent*)#1}, std::__ndk1::allocator<geode::modifier::ModifyBase<geode::modifier::ModifyDerive<MyGJScoreCell, GJScoreCell> >::setHookPriorityBefore(std::__ndk1::basic_string_view<char, std::__ndk1::char_traits<char> >, geode::Mod*)::{lambda(geode::ModStateEvent*)#1}>, void (geode::ModStateEvent*)>::target_type() const
PUBLIC b5cfc 0 geode::modifier::AsStaticFunction_loadFromScore<MyGJScoreCell, void (MyGJScoreCell::*)(GJUserScore*)>::Impl<void (MyGJScoreCell::*)(GJUserScore*)>::function(MyGJScoreCell*, GJUserScore*)
PUBLIC b5db4 0 MyGJScoreCell::checkBG(float)
PUBLIC b61f8 0 geode::modifier::FieldIntermediate<MyGJScoreCell, GJScoreCell>::self()
PUBLIC b6388 0 geode::modifier::FieldIntermediate<MyGJScoreCell, GJScoreCell>::fieldDestructor(void*)
PUBLIC b638c 0 geode::modifier::ModifyDerive<MyGJUserCell, GJUserCell>::apply()
PUBLIC b6714 0 geode::modifier::ModifyBase<geode::modifier::ModifyDerive<MyGJUserCell, GJUserCell> >::apply()
PUBLIC b6718 0 std::__ndk1::__function::__func<MyGJUserCell::onModify<geode::modifier::ModifyBase<geode::modifier::ModifyDerive<MyGJUserCell, GJUserCell> > >(geode::modifier::ModifyBase<geode::modifier::ModifyDerive<MyGJUserCell, GJUserCell> >&)::{lambda()#1}, std::__ndk1::allocator<MyGJUserCell::onModify<geode::modifier::ModifyBase<geode::modifier::ModifyDerive<MyGJUserCell, GJUserCell> > >(geode::modifier::ModifyBase<geode::modifier::ModifyDerive<MyGJUserCell, GJUserCell> >&)::{lambda()#1}>, void ()>::~__func()
PUBLIC b671c 0 std::__ndk1::__function::__func<MyGJUserCell::onModify<geode::modifier::ModifyBase<geode::modifier::ModifyDerive<MyGJUserCell, GJUserCell> > >(geode::modifier::ModifyBase<geode::modifier::ModifyDerive<MyGJUserCell, GJUserCell> >&)::{lambda()#1}, std::__ndk1::allocator<MyGJUserCell::onModify<geode::modifier::ModifyBase<geode::modifier::ModifyDerive<MyGJUserCell, GJUserCell> > >(geode::modifier::ModifyBase<geode::modifier::ModifyDerive<MyGJUserCell, GJUserCell> >&)::{lambda()#1}>, void ()>::__clone() const
PUBLIC b6750 0 std::__ndk1::__function::__func<MyGJUserCell::onModify<geode::modifier::ModifyBase<geode::modifier::ModifyDerive<MyGJUserCell, GJUserCell> > >(geode::modifier::ModifyBase<geode::modifier::ModifyDerive<MyGJUserCell, GJUserCell> >&)::{lambda()#1}, std::__ndk1::allocator<MyGJUserCell::onModify<geode::modifier::ModifyBase<geode::modifier::ModifyDerive<MyGJUserCell, GJUserCell> > >(geode::modifier::ModifyBase<geode::modifier::ModifyDerive<MyGJUserCell, GJUserCell> >&)::{lambda()#1}>, void ()>::__clone(std::__ndk1::__function::__base<void ()>*) const
PUBLIC b6764 0 std::__ndk1::__function::__func<MyGJUserCell::onModify<geode::modifier::ModifyBase<geode::modifier::ModifyDerive<MyGJUserCell, GJUserCell> > >(geode::modifier::ModifyBase<geode::modifier::ModifyDerive<MyGJUserCell, GJUserCell> >&)::{lambda()#1}, std::__ndk1::allocator<MyGJUserCell::onModify<geode::modifier::ModifyBase<geode::modifier::ModifyDerive<MyGJUserCell, GJUserCell> > >(geode::modifier::ModifyBase<geode::modifier::ModifyDerive<MyGJUserCell, GJUserCell> >&)::{lambda()#1}>, void ()>::destroy()
PUBLIC b6768 0 std::__ndk1::__function::__func<MyGJUserCell::onModify<geode::modifier::ModifyBase<geode::modifier::ModifyDerive<MyGJUserCell, GJUserCell> > >(geode::modifier::ModifyBase<geode::modifier::ModifyDerive<MyGJUserCell, GJUserCell> >&)::{lambda()#1}, std::__ndk1::allocator<MyGJUserCell::onModify<geode::modifier::ModifyBase<geode::modifier::ModifyDerive<MyGJUserCell, GJUserCell> > >(geode::modifier::ModifyBase<geode::modifier::ModifyDerive<MyGJUserCell, GJUserCell> >&)::{lambda()#1}>, void ()>::destroy_deallocate()
PUBLIC b676c 0 std::__ndk1::__function::__func<MyGJUserCell::onModify<geode::modifier::ModifyBase<geode::modifier::ModifyDerive<MyGJUserCell, GJUserCell> > >(geode::modifier::ModifyBase<geode::modifier::ModifyDerive<MyGJUserCell, GJUserCell> >&)::{lambda()#1}, std::__ndk1::allocator<MyGJUserCell::onModify<geode::modifier::ModifyBase<geode::modifier::ModifyDerive<MyGJUserCell, GJUserCell> > >(geode::modifier::ModifyBase<geode::modifier::ModifyDerive<MyGJUserCell, GJUserCell> >&)::{lambda()#1}>, void ()>::operator()()
PUBLIC b6d04 0 std::__ndk1::__function::__func<MyGJUserCell::onModify<geode::modifier::ModifyBase<geode::modifier::ModifyDerive<MyGJUserCell, GJUserCell> > >(geode::modifier::ModifyBase<geode::modifier::ModifyDerive<MyGJUserCell, GJUserCell> >&)::{lambda()#1}, std::__ndk1::allocator<MyGJUserCell::onModify<geode::modifier::ModifyBase<geode::modifier::ModifyDerive<MyGJUserCell, GJUserCell> > >(geode::modifier::ModifyBase<geode::modifier::ModifyDerive<MyGJUserCell, GJUserCell> >&)::{lambda()#1}>, void ()>::target(std::type_info const&) const
PUBLIC b6d20 0 std::__ndk1::__function::__func<MyGJUserCell::onModify<geode::modifier::ModifyBase<geode::modifier::ModifyDerive<MyGJUserCell, GJUserCell> > >(geode::modifier::ModifyBase<geode::modifier::ModifyDerive<MyGJUserCell, GJUserCell> >&)::{lambda()#1}, std::__ndk1::allocator<MyGJUserCell::onModify<geode::modifier::ModifyBase<geode::modifier::ModifyDerive<MyGJUserCell, GJUserCell> > >(geode::modifier::ModifyBase<geode::modifier::ModifyDerive<MyGJUserCell, GJUserCell> >&)::{lambda()#1}>, void ()>::target_type() const
PUBLIC b6d2c 0 geode::modifier::ModifyBase<geode::modifier::ModifyDerive<MyGJUserCell, GJUserCell> >::setHookPriorityBefore(std::__ndk1::basic_string_view<char, std::__ndk1::char_traits<char> >, geode::Mod*)::{lambda(geode::ModStateEvent*)#1}::operator()(geode::ModStateEvent*) const
PUBLIC b6e3c 0 std::__ndk1::__function::__func<geode::modifier::ModifyBase<geode::modifier::ModifyDerive<MyGJUserCell, GJUserCell> >::setHookPriorityBefore(std::__ndk1::basic_string_view<char, std::__ndk1::char_traits<char> >, geode::Mod*)::{lambda(geode::ModStateEvent*)#1}, std::__ndk1::allocator<geode::modifier::ModifyBase<geode::modifier::ModifyDerive<MyGJUserCell, GJUserCell> >::setHookPriorityBefore(std::__ndk1::basic_string_view<char, std::__ndk1::char_traits<char> >, geode::Mod*)::{lambda(geode::ModStateEvent*)#1}>, void (geode::ModStateEvent*)>::~__func()
PUBLIC b6e40 0 std::__ndk1::__function::__func<geode::modifier::ModifyBase<geode::modifier::ModifyDerive<MyGJUserCell, GJUserCell> >::setHookPriorityBefore(std::__ndk1::basic_string_view<char, std::__ndk1::char_traits<char> >, geode::Mod*)::{lambda(geode::ModStateEvent*)#1}, std::__ndk1::allocator<geode::modifier::ModifyBase<geode::modifier::ModifyDerive<MyGJUserCell, GJUserCell> >::setHookPriorityBefore(std::__ndk1::basic_string_view<char, std::__ndk1::char_traits<char> >, geode::Mod*)::{lambda(geode::ModStateEvent*)#1}>, void (geode::ModStateEvent*)>::__clone() const
PUBLIC b6e78 0 std::__ndk1::__function::__func<geode::modifier::ModifyBase<geode::modifier::ModifyDerive<MyGJUserCell, GJUserCell> >::setHookPriorityBefore(std::__ndk1::basic_string_view<char, std::__ndk1::char_traits<char> >, geode::Mod*)::{lambda(geode::ModStateEvent*)#1}, std::__ndk1::allocator<geode::modifier::ModifyBase<geode::modifier::ModifyDerive<MyGJUserCell, GJUserCell> >::setHookPriorityBefore(std::__ndk1::basic_string_view<char, std::__ndk1::char_traits<char> >, geode::Mod*)::{lambda(geode::ModStateEvent*)#1}>, void (geode::ModStateEvent*)>::__clone(std::__ndk1::__function::__base<void (geode::ModStateEvent*)>*) const
PUBLIC b6e90 0 std::__ndk1::__function::__func<geode::modifier::ModifyBase<geode::modifier::ModifyDerive<MyGJUserCell, GJUserCell> >::setHookPriorityBefore(std::__ndk1::basic_string_view<char, std::__ndk1::char_traits<char> >, geode::Mod*)::{lambda(geode::ModStateEvent*)#1}, std::__ndk1::allocator<geode::modifier::ModifyBase<geode::modifier::ModifyDerive<MyGJUserCell, GJUserCell> >::setHookPriorityBefore(std::__ndk1::basic_string_view<char, std::__ndk1::char_traits<char> >, geode::Mod*)::{lambda(geode::ModStateEvent*)#1}>, void (geode::ModStateEvent*)>::destroy()
PUBLIC b6e94 0 std::__ndk1::__function::__func<geode::modifier::ModifyBase<geode::modifier::ModifyDerive<MyGJUserCell, GJUserCell> >::setHookPriorityBefore(std::__ndk1::basic_string_view<char, std::__ndk1::char_traits<char> >, geode::Mod*)::{lambda(geode::ModStateEvent*)#1}, std::__ndk1::allocator<geode::modifier::ModifyBase<geode::modifier::ModifyDerive<MyGJUserCell, GJUserCell> >::setHookPriorityBefore(std::__ndk1::basic_string_view<char, std::__ndk1::char_traits<char> >, geode::Mod*)::{lambda(geode::ModStateEvent*)#1}>, void (geode::ModStateEvent*)>::destroy_deallocate()
PUBLIC b6e98 0 std::__ndk1::__function::__func<geode::modifier::ModifyBase<geode::modifier::ModifyDerive<MyGJUserCell, GJUserCell> >::setHookPriorityBefore(std::__ndk1::basic_string_view<char, std::__ndk1::char_traits<char> >, geode::Mod*)::{lambda(geode::ModStateEvent*)#1}, std::__ndk1::allocator<geode::modifier::ModifyBase<geode::modifier::ModifyDerive<MyGJUserCell, GJUserCell> >::setHookPriorityBefore(std::__ndk1::basic_string_view<char, std::__ndk1::char_traits<char> >, geode::Mod*)::{lambda(geode::ModStateEvent*)#1}>, void (geode::ModStateEvent*)>::operator()(geode::ModStateEvent*&&)
PUBLIC b6ea0 0 std::__ndk1::__function::__func<geode::modifier::ModifyBase<geode::modifier::ModifyDerive<MyGJUserCell, GJUserCell> >::setHookPriorityBefore(std::__ndk1::basic_string_view<char, std::__ndk1::char_traits<char> >, geode::Mod*)::{lambda(geode::ModStateEvent*)#1}, std::__ndk1::allocator<geode::modifier::ModifyBase<geode::modifier::ModifyDerive<MyGJUserCell, GJUserCell> >::setHookPriorityBefore(std::__ndk1::basic_string_view<char, std::__ndk1::char_traits<char> >, geode::Mod*)::{lambda(geode::ModStateEvent*)#1}>, void (geode::ModStateEvent*)>::target(std::type_info const&) const
PUBLIC b6ebc 0 std::__ndk1::__function::__func<geode::modifier::ModifyBase<geode::modifier::ModifyDerive<MyGJUserCell, GJUserCell> >::setHookPriorityBefore(std::__ndk1::basic_string_view<char, std::__ndk1::char_traits<char> >, geode::Mod*)::{lambda(geode::ModStateEvent*)#1}, std::__ndk1::allocator<geode::modifier::ModifyBase<geode::modifier::ModifyDerive<MyGJUserCell, GJUserCell> >::setHookPriorityBefore(std::__ndk1::basic_string_view<char, std::__ndk1::char_traits<char> >, geode::Mod*)::{lambda(geode::ModStateEvent*)#1}>, void (geode::ModStateEvent*)>::target_type() const
PUBLIC b6ec8 0 geode::modifier::AsStaticFunction_loadFromScore<MyGJUserCell, void (MyGJUserCell::*)(GJUserScore*)>::Impl<void (MyGJUserCell::*)(GJUserScore*)>::function(MyGJUserCell*, GJUserScore*)
PUBLIC b6f80 0 MyGJUserCell::checkBG(float)
PUBLIC b73c4 0 geode::modifier::FieldIntermediate<MyGJUserCell, GJUserCell>::self()
PUBLIC b7554 0 geode::modifier::FieldIntermediate<MyGJUserCell, GJUserCell>::fieldDestructor(void*)
PUBLIC b7558 0 geode::modifier::ModifyDerive<MyAchievementCell, AchievementCell>::apply()
PUBLIC b78e0 0 geode::modifier::ModifyBase<geode::modifier::ModifyDerive<MyAchievementCell, AchievementCell> >::apply()
PUBLIC b78e4 0 std::__ndk1::__function::__func<MyAchievementCell::onModify<geode::modifier::ModifyBase<geode::modifier::ModifyDerive<MyAchievementCell, AchievementCell> > >(geode::modifier::ModifyBase<geode::modifier::ModifyDerive<MyAchievementCell, AchievementCell> >&)::{lambda()#1}, std::__ndk1::allocator<MyAchievementCell::onModify<geode::modifier::ModifyBase<geode::modifier::ModifyDerive<MyAchievementCell, AchievementCell> > >(geode::modifier::ModifyBase<geode::modifier::ModifyDerive<MyAchievementCell, AchievementCell> >&)::{lambda()#1}>, void ()>::~__func()
PUBLIC b78e8 0 std::__ndk1::__function::__func<MyAchievementCell::onModify<geode::modifier::ModifyBase<geode::modifier::ModifyDerive<MyAchievementCell, AchievementCell> > >(geode::modifier::ModifyBase<geode::modifier::ModifyDerive<MyAchievementCell, AchievementCell> >&)::{lambda()#1}, std::__ndk1::allocator<MyAchievementCell::onModify<geode::modifier::ModifyBase<geode::modifier::ModifyDerive<MyAchievementCell, AchievementCell> > >(geode::modifier::ModifyBase<geode::modifier::ModifyDerive<MyAchievementCell, AchievementCell> >&)::{lambda()#1}>, void ()>::__clone() const
PUBLIC b791c 0 std::__ndk1::__function::__func<MyAchievementCell::onModify<geode::modifier::ModifyBase<geode::modifier::ModifyDerive<MyAchievementCell, AchievementCell> > >(geode::modifier::ModifyBase<geode::modifier::ModifyDerive<MyAchievementCell, AchievementCell> >&)::{lambda()#1}, std::__ndk1::allocator<MyAchievementCell::onModify<geode::modifier::ModifyBase<geode::modifier::ModifyDerive<MyAchievementCell, AchievementCell> > >(geode::modifier::ModifyBase<geode::modifier::ModifyDerive<MyAchievementCell, AchievementCell> >&)::{lambda()#1}>, void ()>::__clone(std::__ndk1::__function::__base<void ()>*) const
PUBLIC b7930 0 std::__ndk1::__function::__func<MyAchievementCell::onModify<geode::modifier::ModifyBase<geode::modifier::ModifyDerive<MyAchievementCell, AchievementCell> > >(geode::modifier::ModifyBase<geode::modifier::ModifyDerive<MyAchievementCell, AchievementCell> >&)::{lambda()#1}, std::__ndk1::allocator<MyAchievementCell::onModify<geode::modifier::ModifyBase<geode::modifier::ModifyDerive<MyAchievementCell, AchievementCell> > >(geode::modifier::ModifyBase<geode::modifier::ModifyDerive<MyAchievementCell, AchievementCell> >&)::{lambda()#1}>, void ()>::destroy()
PUBLIC b7934 0 std::__ndk1::__function::__func<MyAchievementCell::onModify<geode::modifier::ModifyBase<geode::modifier::ModifyDerive<MyAchievementCell, AchievementCell> > >(geode::modifier::ModifyBase<geode::modifier::ModifyDerive<MyAchievementCell, AchievementCell> >&)::{lambda()#1}, std::__ndk1::allocator<MyAchievementCell::onModify<geode::modifier::ModifyBase<geode::modifier::ModifyDerive<MyAchievementCell, AchievementCell> > >(geode::modifier::ModifyBase<geode::modifier::ModifyDerive<MyAchievementCell, AchievementCell> >&)::{lambda()#1}>, void ()>::destroy_deallocate()
PUBLIC b7938 0 std::__ndk1::__function::__func<MyAchievementCell::onModify<geode::modifier::ModifyBase<geode::modifier::ModifyDerive<MyAchievementCell, AchievementCell> > >(geode::modifier::ModifyBase<geode::modifier::ModifyDerive<MyAchievementCell, AchievementCell> >&)::{lambda()#1}, std::__ndk1::allocator<MyAchievementCell::onModify<geode::modifier::ModifyBase<geode::modifier::ModifyDerive<MyAchievementCell, AchievementCell> > >(geode::modifier::ModifyBase<geode::modifier::ModifyDerive<MyAchievementCell, AchievementCell> >&)::{lambda()#1}>, void ()>::operator()()
PUBLIC b7ed0 0 std::__ndk1::__function::__func<MyAchievementCell::onModify<geode::modifier::ModifyBase<geode::modifier::ModifyDerive<MyAchievementCell, AchievementCell> > >(geode::modifier::ModifyBase<geode::modifier::ModifyDerive<MyAchievementCell, AchievementCell> >&)::{lambda()#1}, std::__ndk1::allocator<MyAchievementCell::onModify<geode::modifier::ModifyBase<geode::modifier::ModifyDerive<MyAchievementCell, AchievementCell> > >(geode::modifier::ModifyBase<geode::modifier::ModifyDerive<MyAchievementCell, AchievementCell> >&)::{lambda()#1}>, void ()>::target(std::type_info const&) const
PUBLIC b7eec 0 std::__ndk1::__function::__func<MyAchievementCell::onModify<geode::modifier::ModifyBase<geode::modifier::ModifyDerive<MyAchievementCell, AchievementCell> > >(geode::modifier::ModifyBase<geode::modifier::ModifyDerive<MyAchievementCell, AchievementCell> >&)::{lambda()#1}, std::__ndk1::allocator<MyAchievementCell::onModify<geode::modifier::ModifyBase<geode::modifier::ModifyDerive<MyAchievementCell, AchievementCell> > >(geode::modifier::ModifyBase<geode::modifier::ModifyDerive<MyAchievementCell, AchievementCell> >&)::{lambda()#1}>, void ()>::target_type() const
PUBLIC b7ef8 0 geode::modifier::ModifyBase<geode::modifier::ModifyDerive<MyAchievementCell, AchievementCell> >::setHookPriorityBefore(std::__ndk1::basic_string_view<char, std::__ndk1::char_traits<char> >, geode::Mod*)::{lambda(geode::ModStateEvent*)#1}::operator()(geode::ModStateEvent*) const
PUBLIC b8008 0 std::__ndk1::__function::__func<geode::modifier::ModifyBase<geode::modifier::ModifyDerive<MyAchievementCell, AchievementCell> >::setHookPriorityBefore(std::__ndk1::basic_string_view<char, std::__ndk1::char_traits<char> >, geode::Mod*)::{lambda(geode::ModStateEvent*)#1}, std::__ndk1::allocator<geode::modifier::ModifyBase<geode::modifier::ModifyDerive<MyAchievementCell, AchievementCell> >::setHookPriorityBefore(std::__ndk1::basic_string_view<char, std::__ndk1::char_traits<char> >, geode::Mod*)::{lambda(geode::ModStateEvent*)#1}>, void (geode::ModStateEvent*)>::~__func()
PUBLIC b800c 0 std::__ndk1::__function::__func<geode::modifier::ModifyBase<geode::modifier::ModifyDerive<MyAchievementCell, AchievementCell> >::setHookPriorityBefore(std::__ndk1::basic_string_view<char, std::__ndk1::char_traits<char> >, geode::Mod*)::{lambda(geode::ModStateEvent*)#1}, std::__ndk1::allocator<geode::modifier::ModifyBase<geode::modifier::ModifyDerive<MyAchievementCell, AchievementCell> >::setHookPriorityBefore(std::__ndk1::basic_string_view<char, std::__ndk1::char_traits<char> >, geode::Mod*)::{lambda(geode::ModStateEvent*)#1}>, void (geode::ModStateEvent*)>::__clone() const
PUBLIC b8044 0 std::__ndk1::__function::__func<geode::modifier::ModifyBase<geode::modifier::ModifyDerive<MyAchievementCell, AchievementCell> >::setHookPriorityBefore(std::__ndk1::basic_string_view<char, std::__ndk1::char_traits<char> >, geode::Mod*)::{lambda(geode::ModStateEvent*)#1}, std::__ndk1::allocator<geode::modifier::ModifyBase<geode::modifier::ModifyDerive<MyAchievementCell, AchievementCell> >::setHookPriorityBefore(std::__ndk1::basic_string_view<char, std::__ndk1::char_traits<char> >, geode::Mod*)::{lambda(geode::ModStateEvent*)#1}>, void (geode::ModStateEvent*)>::__clone(std::__ndk1::__function::__base<void (geode::ModStateEvent*)>*) const
PUBLIC b805c 0 std::__ndk1::__function::__func<geode::modifier::ModifyBase<geode::modifier::ModifyDerive<MyAchievementCell, AchievementCell> >::setHookPriorityBefore(std::__ndk1::basic_string_view<char, std::__ndk1::char_traits<char> >, geode::Mod*)::{lambda(geode::ModStateEvent*)#1}, std::__ndk1::allocator<geode::modifier::ModifyBase<geode::modifier::ModifyDerive<MyAchievementCell, AchievementCell> >::setHookPriorityBefore(std::__ndk1::basic_string_view<char, std::__ndk1::char_traits<char> >, geode::Mod*)::{lambda(geode::ModStateEvent*)#1}>, void (geode::ModStateEvent*)>::destroy()
PUBLIC b8060 0 std::__ndk1::__function::__func<geode::modifier::ModifyBase<geode::modifier::ModifyDerive<MyAchievementCell, AchievementCell> >::setHookPriorityBefore(std::__ndk1::basic_string_view<char, std::__ndk1::char_traits<char> >, geode::Mod*)::{lambda(geode::ModStateEvent*)#1}, std::__ndk1::allocator<geode::modifier::ModifyBase<geode::modifier::ModifyDerive<MyAchievementCell, AchievementCell> >::setHookPriorityBefore(std::__ndk1::basic_string_view<char, std::__ndk1::char_traits<char> >, geode::Mod*)::{lambda(geode::ModStateEvent*)#1}>, void (geode::ModStateEvent*)>::destroy_deallocate()
PUBLIC b8064 0 std::__ndk1::__function::__func<geode::modifier::ModifyBase<geode::modifier::ModifyDerive<MyAchievementCell, AchievementCell> >::setHookPriorityBefore(std::__ndk1::basic_string_view<char, std::__ndk1::char_traits<char> >, geode::Mod*)::{lambda(geode::ModStateEvent*)#1}, std::__ndk1::allocator<geode::modifier::ModifyBase<geode::modifier::ModifyDerive<MyAchievementCell, AchievementCell> >::setHookPriorityBefore(std::__ndk1::basic_string_view<char, std::__ndk1::char_traits<char> >, geode::Mod*)::{lambda(geode::ModStateEvent*)#1}>, void (geode::ModStateEvent*)>::operator()(geode::ModStateEvent*&&)
PUBLIC b806c 0 std::__ndk1::__function::__func<geode::modifier::ModifyBase<geode::modifier::ModifyDerive<MyAchievementCell, AchievementCell> >::setHookPriorityBefore(std::__ndk1::basic_string_view<char, std::__ndk1::char_traits<char> >, geode::Mod*)::{lambda(geode::ModStateEvent*)#1}, std::__ndk1::allocator<geode::modifier::ModifyBase<geode::modifier::ModifyDerive<MyAchievementCell, AchievementCell> >::setHookPriorityBefore(std::__ndk1::basic_string_view<char, std::__ndk1::char_traits<char> >, geode::Mod*)::{lambda(geode::ModStateEvent*)#1}>, void (geode::ModStateEvent*)>::target(std::type_info const&) const
PUBLIC b8088 0 std::__ndk1::__function::__func<geode::modifier::ModifyBase<geode::modifier::ModifyDerive<MyAchievementCell, AchievementCell> >::setHookPriorityBefore(std::__ndk1::basic_string_view<char, std::__ndk1::char_traits<char> >, geode::Mod*)::{lambda(geode::ModStateEvent*)#1}, std::__ndk1::allocator<geode::modifier::ModifyBase<geode::modifier::ModifyDerive<MyAchievementCell, AchievementCell> >::setHookPriorityBefore(std::__ndk1::basic_string_view<char, std::__ndk1::char_traits<char> >, geode::Mod*)::{lambda(geode::ModStateEvent*)#1}>, void (geode::ModStateEvent*)>::target_type() const
PUBLIC b8094 0 geode::modifier::AsStaticFunction_loadFromDict<MyAchievementCell, void (MyAchievementCell::*)(cocos2d::CCDictionary*)>::Impl<void (MyAchievementCell::*)(cocos2d::CCDictionary*)>::function(MyAchievementCell*, cocos2d::CCDictionary*)
PUBLIC b814c 0 MyAchievementCell::checkBG(float)
PUBLIC b8590 0 geode::modifier::FieldIntermediate<MyAchievementCell, AchievementCell>::self()
PUBLIC b8720 0 geode::modifier::FieldIntermediate<MyAchievementCell, AchievementCell>::fieldDestructor(void*)
PUBLIC b8724 0 geode::modifier::ModifyDerive<MyStatsCell, StatsCell>::apply()
PUBLIC b8aac 0 geode::modifier::ModifyBase<geode::modifier::ModifyDerive<MyStatsCell, StatsCell> >::apply()
PUBLIC b8ab0 0 std::__ndk1::__function::__func<MyStatsCell::onModify<geode::modifier::ModifyBase<geode::modifier::ModifyDerive<MyStatsCell, StatsCell> > >(geode::modifier::ModifyBase<geode::modifier::ModifyDerive<MyStatsCell, StatsCell> >&)::{lambda()#1}, std::__ndk1::allocator<MyStatsCell::onModify<geode::modifier::ModifyBase<geode::modifier::ModifyDerive<MyStatsCell, StatsCell> > >(geode::modifier::ModifyBase<geode::modifier::ModifyDerive<MyStatsCell, StatsCell> >&)::{lambda()#1}>, void ()>::~__func()
PUBLIC b8ab4 0 std::__ndk1::__function::__func<MyStatsCell::onModify<geode::modifier::ModifyBase<geode::modifier::ModifyDerive<MyStatsCell, StatsCell> > >(geode::modifier::ModifyBase<geode::modifier::ModifyDerive<MyStatsCell, StatsCell> >&)::{lambda()#1}, std::__ndk1::allocator<MyStatsCell::onModify<geode::modifier::ModifyBase<geode::modifier::ModifyDerive<MyStatsCell, StatsCell> > >(geode::modifier::ModifyBase<geode::modifier::ModifyDerive<MyStatsCell, StatsCell> >&)::{lambda()#1}>, void ()>::__clone() const
PUBLIC b8ae8 0 std::__ndk1::__function::__func<MyStatsCell::onModify<geode::modifier::ModifyBase<geode::modifier::ModifyDerive<MyStatsCell, StatsCell> > >(geode::modifier::ModifyBase<geode::modifier::ModifyDerive<MyStatsCell, StatsCell> >&)::{lambda()#1}, std::__ndk1::allocator<MyStatsCell::onModify<geode::modifier::ModifyBase<geode::modifier::ModifyDerive<MyStatsCell, StatsCell> > >(geode::modifier::ModifyBase<geode::modifier::ModifyDerive<MyStatsCell, StatsCell> >&)::{lambda()#1}>, void ()>::__clone(std::__ndk1::__function::__base<void ()>*) const
PUBLIC b8afc 0 std::__ndk1::__function::__func<MyStatsCell::onModify<geode::modifier::ModifyBase<geode::modifier::ModifyDerive<MyStatsCell, StatsCell> > >(geode::modifier::ModifyBase<geode::modifier::ModifyDerive<MyStatsCell, StatsCell> >&)::{lambda()#1}, std::__ndk1::allocator<MyStatsCell::onModify<geode::modifier::ModifyBase<geode::modifier::ModifyDerive<MyStatsCell, StatsCell> > >(geode::modifier::ModifyBase<geode::modifier::ModifyDerive<MyStatsCell, StatsCell> >&)::{lambda()#1}>, void ()>::destroy()
PUBLIC b8b00 0 std::__ndk1::__function::__func<MyStatsCell::onModify<geode::modifier::ModifyBase<geode::modifier::ModifyDerive<MyStatsCell, StatsCell> > >(geode::modifier::ModifyBase<geode::modifier::ModifyDerive<MyStatsCell, StatsCell> >&)::{lambda()#1}, std::__ndk1::allocator<MyStatsCell::onModify<geode::modifier::ModifyBase<geode::modifier::ModifyDerive<MyStatsCell, StatsCell> > >(geode::modifier::ModifyBase<geode::modifier::ModifyDerive<MyStatsCell, StatsCell> >&)::{lambda()#1}>, void ()>::destroy_deallocate()
PUBLIC b8b04 0 std::__ndk1::__function::__func<MyStatsCell::onModify<geode::modifier::ModifyBase<geode::modifier::ModifyDerive<MyStatsCell, StatsCell> > >(geode::modifier::ModifyBase<geode::modifier::ModifyDerive<MyStatsCell, StatsCell> >&)::{lambda()#1}, std::__ndk1::allocator<MyStatsCell::onModify<geode::modifier::ModifyBase<geode::modifier::ModifyDerive<MyStatsCell, StatsCell> > >(geode::modifier::ModifyBase<geode::modifier::ModifyDerive<MyStatsCell, StatsCell> >&)::{lambda()#1}>, void ()>::operator()()
PUBLIC b909c 0 std::__ndk1::__function::__func<MyStatsCell::onModify<geode::modifier::ModifyBase<geode::modifier::ModifyDerive<MyStatsCell, StatsCell> > >(geode::modifier::ModifyBase<geode::modifier::ModifyDerive<MyStatsCell, StatsCell> >&)::{lambda()#1}, std::__ndk1::allocator<MyStatsCell::onModify<geode::modifier::ModifyBase<geode::modifier::ModifyDerive<MyStatsCell, StatsCell> > >(geode::modifier::ModifyBase<geode::modifier::ModifyDerive<MyStatsCell, StatsCell> >&)::{lambda()#1}>, void ()>::target(std::type_info const&) const
PUBLIC b90b8 0 std::__ndk1::__function::__func<MyStatsCell::onModify<geode::modifier::ModifyBase<geode::modifier::ModifyDerive<MyStatsCell, StatsCell> > >(geode::modifier::ModifyBase<geode::modifier::ModifyDerive<MyStatsCell, StatsCell> >&)::{lambda()#1}, std::__ndk1::allocator<MyStatsCell::onModify<geode::modifier::ModifyBase<geode::modifier::ModifyDerive<MyStatsCell, StatsCell> > >(geode::modifier::ModifyBase<geode::modifier::ModifyDerive<MyStatsCell, StatsCell> >&)::{lambda()#1}>, void ()>::target_type() const
PUBLIC b90c4 0 geode::modifier::ModifyBase<geode::modifier::ModifyDerive<MyStatsCell, StatsCell> >::setHookPriorityBefore(std::__ndk1::basic_string_view<char, std::__ndk1::char_traits<char> >, geode::Mod*)::{lambda(geode::ModStateEvent*)#1}::operator()(geode::ModStateEvent*) const
PUBLIC b91d4 0 std::__ndk1::__function::__func<geode::modifier::ModifyBase<geode::modifier::ModifyDerive<MyStatsCell, StatsCell> >::setHookPriorityBefore(std::__ndk1::basic_string_view<char, std::__ndk1::char_traits<char> >, geode::Mod*)::{lambda(geode::ModStateEvent*)#1}, std::__ndk1::allocator<geode::modifier::ModifyBase<geode::modifier::ModifyDerive<MyStatsCell, StatsCell> >::setHookPriorityBefore(std::__ndk1::basic_string_view<char, std::__ndk1::char_traits<char> >, geode::Mod*)::{lambda(geode::ModStateEvent*)#1}>, void (geode::ModStateEvent*)>::~__func()
PUBLIC b91d8 0 std::__ndk1::__function::__func<geode::modifier::ModifyBase<geode::modifier::ModifyDerive<MyStatsCell, StatsCell> >::setHookPriorityBefore(std::__ndk1::basic_string_view<char, std::__ndk1::char_traits<char> >, geode::Mod*)::{lambda(geode::ModStateEvent*)#1}, std::__ndk1::allocator<geode::modifier::ModifyBase<geode::modifier::ModifyDerive<MyStatsCell, StatsCell> >::setHookPriorityBefore(std::__ndk1::basic_string_view<char, std::__ndk1::char_traits<char> >, geode::Mod*)::{lambda(geode::ModStateEvent*)#1}>, void (geode::ModStateEvent*)>::__clone() const
PUBLIC b9210 0 std::__ndk1::__function::__func<geode::modifier::ModifyBase<geode::modifier::ModifyDerive<MyStatsCell, StatsCell> >::setHookPriorityBefore(std::__ndk1::basic_string_view<char, std::__ndk1::char_traits<char> >, geode::Mod*)::{lambda(geode::ModStateEvent*)#1}, std::__ndk1::allocator<geode::modifier::ModifyBase<geode::modifier::ModifyDerive<MyStatsCell, StatsCell> >::setHookPriorityBefore(std::__ndk1::basic_string_view<char, std::__ndk1::char_traits<char> >, geode::Mod*)::{lambda(geode::ModStateEvent*)#1}>, void (geode::ModStateEvent*)>::__clone(std::__ndk1::__function::__base<void (geode::ModStateEvent*)>*) const
PUBLIC b9228 0 std::__ndk1::__function::__func<geode::modifier::ModifyBase<geode::modifier::ModifyDerive<MyStatsCell, StatsCell> >::setHookPriorityBefore(std::__ndk1::basic_string_view<char, std::__ndk1::char_traits<char> >, geode::Mod*)::{lambda(geode::ModStateEvent*)#1}, std::__ndk1::allocator<geode::modifier::ModifyBase<geode::modifier::ModifyDerive<MyStatsCell, StatsCell> >::setHookPriorityBefore(std::__ndk1::basic_string_view<char, std::__ndk1::char_traits<char> >, geode::Mod*)::{lambda(geode::ModStateEvent*)#1}>, void (geode::ModStateEvent*)>::destroy()
PUBLIC b922c 0 std::__ndk1::__function::__func<geode::modifier::ModifyBase<geode::modifier::ModifyDerive<MyStatsCell, StatsCell> >::setHookPriorityBefore(std::__ndk1::basic_string_view<char, std::__ndk1::char_traits<char> >, geode::Mod*)::{lambda(geode::ModStateEvent*)#1}, std::__ndk1::allocator<geode::modifier::ModifyBase<geode::modifier::ModifyDerive<MyStatsCell, StatsCell> >::setHookPriorityBefore(std::__ndk1::basic_string_view<char, std::__ndk1::char_traits<char> >, geode::Mod*)::{lambda(geode::ModStateEvent*)#1}>, void (geode::ModStateEvent*)>::destroy_deallocate()
PUBLIC b9230 0 std::__ndk1::__function::__func<geode::modifier::ModifyBase<geode::modifier::ModifyDerive<MyStatsCell, StatsCell> >::setHookPriorityBefore(std::__ndk1::basic_string_view<char, std::__ndk1::char_traits<char> >, geode::Mod*)::{lambda(geode::ModStateEvent*)#1}, std::__ndk1::allocator<geode::modifier::ModifyBase<geode::modifier::ModifyDerive<MyStatsCell, StatsCell> >::setHookPriorityBefore(std::__ndk1::basic_string_view<char, std::__ndk1::char_traits<char> >, geode::Mod*)::{lambda(geode::ModStateEvent*)#1}>, void (geode::ModStateEvent*)>::operator()(geode::ModStateEvent*&&)
PUBLIC b9238 0 std::__ndk1::__function::__func<geode::modifier::ModifyBase<geode::modifier::ModifyDerive<MyStatsCell, StatsCell> >::setHookPriorityBefore(std::__ndk1::basic_string_view<char, std::__ndk1::char_traits<char> >, geode::Mod*)::{lambda(geode::ModStateEvent*)#1}, std::__ndk1::allocator<geode::modifier::ModifyBase<geode::modifier::ModifyDerive<MyStatsCell, StatsCell> >::setHookPriorityBefore(std::__ndk1::basic_string_view<char, std::__ndk1::char_traits<char> >, geode::Mod*)::{lambda(geode::ModStateEvent*)#1}>, void (geode::ModStateEvent*)>::target(std::type_info const&) const
PUBLIC b9254 0 std::__ndk1::__function::__func<geode::modifier::ModifyBase<geode::modifier::ModifyDerive<MyStatsCell, StatsCell> >::setHookPriorityBefore(std::__ndk1::basic_string_view<char, std::__ndk1::char_traits<char> >, geode::Mod*)::{lambda(geode::ModStateEvent*)#1}, std::__ndk1::allocator<geode::modifier::ModifyBase<geode::modifier::ModifyDerive<MyStatsCell, StatsCell> >::setHookPriorityBefore(std::__ndk1::basic_string_view<char, std::__ndk1::char_traits<char> >, geode::Mod*)::{lambda(geode::ModStateEvent*)#1}>, void (geode::ModStateEvent*)>::target_type() const
PUBLIC b9260 0 geode::modifier::AsStaticFunction_loadFromObject<MyStatsCell, void (MyStatsCell::*)(StatsObject*)>::Impl<void (MyStatsCell::*)(StatsObject*)>::function(MyStatsCell*, StatsObject*)
PUBLIC b9318 0 MyStatsCell::checkBG(float)
PUBLIC b975c 0 geode::modifier::FieldIntermediate<MyStatsCell, StatsCell>::self()
PUBLIC b98ec 0 geode::modifier::FieldIntermediate<MyStatsCell, StatsCell>::fieldDestructor(void*)
PUBLIC b98f0 0 geode::modifier::ModifyDerive<MyGJMessageCell, GJMessageCell>::apply()
PUBLIC b9c78 0 geode::modifier::ModifyBase<geode::modifier::ModifyDerive<MyGJMessageCell, GJMessageCell> >::apply()
PUBLIC b9c7c 0 std::__ndk1::__function::__func<MyGJMessageCell::onModify<geode::modifier::ModifyBase<geode::modifier::ModifyDerive<MyGJMessageCell, GJMessageCell> > >(geode::modifier::ModifyBase<geode::modifier::ModifyDerive<MyGJMessageCell, GJMessageCell> >&)::{lambda()#1}, std::__ndk1::allocator<MyGJMessageCell::onModify<geode::modifier::ModifyBase<geode::modifier::ModifyDerive<MyGJMessageCell, GJMessageCell> > >(geode::modifier::ModifyBase<geode::modifier::ModifyDerive<MyGJMessageCell, GJMessageCell> >&)::{lambda()#1}>, void ()>::~__func()
PUBLIC b9c80 0 std::__ndk1::__function::__func<MyGJMessageCell::onModify<geode::modifier::ModifyBase<geode::modifier::ModifyDerive<MyGJMessageCell, GJMessageCell> > >(geode::modifier::ModifyBase<geode::modifier::ModifyDerive<MyGJMessageCell, GJMessageCell> >&)::{lambda()#1}, std::__ndk1::allocator<MyGJMessageCell::onModify<geode::modifier::ModifyBase<geode::modifier::ModifyDerive<MyGJMessageCell, GJMessageCell> > >(geode::modifier::ModifyBase<geode::modifier::ModifyDerive<MyGJMessageCell, GJMessageCell> >&)::{lambda()#1}>, void ()>::__clone() const
PUBLIC b9cb4 0 std::__ndk1::__function::__func<MyGJMessageCell::onModify<geode::modifier::ModifyBase<geode::modifier::ModifyDerive<MyGJMessageCell, GJMessageCell> > >(geode::modifier::ModifyBase<geode::modifier::ModifyDerive<MyGJMessageCell, GJMessageCell> >&)::{lambda()#1}, std::__ndk1::allocator<MyGJMessageCell::onModify<geode::modifier::ModifyBase<geode::modifier::ModifyDerive<MyGJMessageCell, GJMessageCell> > >(geode::modifier::ModifyBase<geode::modifier::ModifyDerive<MyGJMessageCell, GJMessageCell> >&)::{lambda()#1}>, void ()>::__clone(std::__ndk1::__function::__base<void ()>*) const
PUBLIC b9cc8 0 std::__ndk1::__function::__func<MyGJMessageCell::onModify<geode::modifier::ModifyBase<geode::modifier::ModifyDerive<MyGJMessageCell, GJMessageCell> > >(geode::modifier::ModifyBase<geode::modifier::ModifyDerive<MyGJMessageCell, GJMessageCell> >&)::{lambda()#1}, std::__ndk1::allocator<MyGJMessageCell::onModify<geode::modifier::ModifyBase<geode::modifier::ModifyDerive<MyGJMessageCell, GJMessageCell> > >(geode::modifier::ModifyBase<geode::modifier::ModifyDerive<MyGJMessageCell, GJMessageCell> >&)::{lambda()#1}>, void ()>::destroy()
PUBLIC b9ccc 0 std::__ndk1::__function::__func<MyGJMessageCell::onModify<geode::modifier::ModifyBase<geode::modifier::ModifyDerive<MyGJMessageCell, GJMessageCell> > >(geode::modifier::ModifyBase<geode::modifier::ModifyDerive<MyGJMessageCell, GJMessageCell> >&)::{lambda()#1}, std::__ndk1::allocator<MyGJMessageCell::onModify<geode::modifier::ModifyBase<geode::modifier::ModifyDerive<MyGJMessageCell, GJMessageCell> > >(geode::modifier::ModifyBase<geode::modifier::ModifyDerive<MyGJMessageCell, GJMessageCell> >&)::{lambda()#1}>, void ()>::destroy_deallocate()
PUBLIC b9cd0 0 std::__ndk1::__function::__func<MyGJMessageCell::onModify<geode::modifier::ModifyBase<geode::modifier::ModifyDerive<MyGJMessageCell, GJMessageCell> > >(geode::modifier::ModifyBase<geode::modifier::ModifyDerive<MyGJMessageCell, GJMessageCell> >&)::{lambda()#1}, std::__ndk1::allocator<MyGJMessageCell::onModify<geode::modifier::ModifyBase<geode::modifier::ModifyDerive<MyGJMessageCell, GJMessageCell> > >(geode::modifier::ModifyBase<geode::modifier::ModifyDerive<MyGJMessageCell, GJMessageCell> >&)::{lambda()#1}>, void ()>::operator()()
PUBLIC ba268 0 std::__ndk1::__function::__func<MyGJMessageCell::onModify<geode::modifier::ModifyBase<geode::modifier::ModifyDerive<MyGJMessageCell, GJMessageCell> > >(geode::modifier::ModifyBase<geode::modifier::ModifyDerive<MyGJMessageCell, GJMessageCell> >&)::{lambda()#1}, std::__ndk1::allocator<MyGJMessageCell::onModify<geode::modifier::ModifyBase<geode::modifier::ModifyDerive<MyGJMessageCell, GJMessageCell> > >(geode::modifier::ModifyBase<geode::modifier::ModifyDerive<MyGJMessageCell, GJMessageCell> >&)::{lambda()#1}>, void ()>::target(std::type_info const&) const
PUBLIC ba284 0 std::__ndk1::__function::__func<MyGJMessageCell::onModify<geode::modifier::ModifyBase<geode::modifier::ModifyDerive<MyGJMessageCell, GJMessageCell> > >(geode::modifier::ModifyBase<geode::modifier::ModifyDerive<MyGJMessageCell, GJMessageCell> >&)::{lambda()#1}, std::__ndk1::allocator<MyGJMessageCell::onModify<geode::modifier::ModifyBase<geode::modifier::ModifyDerive<MyGJMessageCell, GJMessageCell> > >(geode::modifier::ModifyBase<geode::modifier::ModifyDerive<MyGJMessageCell, GJMessageCell> >&)::{lambda()#1}>, void ()>::target_type() const
PUBLIC ba290 0 geode::modifier::ModifyBase<geode::modifier::ModifyDerive<MyGJMessageCell, GJMessageCell> >::setHookPriorityBefore(std::__ndk1::basic_string_view<char, std::__ndk1::char_traits<char> >, geode::Mod*)::{lambda(geode::ModStateEvent*)#1}::operator()(geode::ModStateEvent*) const
PUBLIC ba3a0 0 std::__ndk1::__function::__func<geode::modifier::ModifyBase<geode::modifier::ModifyDerive<MyGJMessageCell, GJMessageCell> >::setHookPriorityBefore(std::__ndk1::basic_string_view<char, std::__ndk1::char_traits<char> >, geode::Mod*)::{lambda(geode::ModStateEvent*)#1}, std::__ndk1::allocator<geode::modifier::ModifyBase<geode::modifier::ModifyDerive<MyGJMessageCell, GJMessageCell> >::setHookPriorityBefore(std::__ndk1::basic_string_view<char, std::__ndk1::char_traits<char> >, geode::Mod*)::{lambda(geode::ModStateEvent*)#1}>, void (geode::ModStateEvent*)>::~__func()
PUBLIC ba3a4 0 std::__ndk1::__function::__func<geode::modifier::ModifyBase<geode::modifier::ModifyDerive<MyGJMessageCell, GJMessageCell> >::setHookPriorityBefore(std::__ndk1::basic_string_view<char, std::__ndk1::char_traits<char> >, geode::Mod*)::{lambda(geode::ModStateEvent*)#1}, std::__ndk1::allocator<geode::modifier::ModifyBase<geode::modifier::ModifyDerive<MyGJMessageCell, GJMessageCell> >::setHookPriorityBefore(std::__ndk1::basic_string_view<char, std::__ndk1::char_traits<char> >, geode::Mod*)::{lambda(geode::ModStateEvent*)#1}>, void (geode::ModStateEvent*)>::__clone() const
PUBLIC ba3dc 0 std::__ndk1::__function::__func<geode::modifier::ModifyBase<geode::modifier::ModifyDerive<MyGJMessageCell, GJMessageCell> >::setHookPriorityBefore(std::__ndk1::basic_string_view<char, std::__ndk1::char_traits<char> >, geode::Mod*)::{lambda(geode::ModStateEvent*)#1}, std::__ndk1::allocator<geode::modifier::ModifyBase<geode::modifier::ModifyDerive<MyGJMessageCell, GJMessageCell> >::setHookPriorityBefore(std::__ndk1::basic_string_view<char, std::__ndk1::char_traits<char> >, geode::Mod*)::{lambda(geode::ModStateEvent*)#1}>, void (geode::ModStateEvent*)>::__clone(std::__ndk1::__function::__base<void (geode::ModStateEvent*)>*) const
PUBLIC ba3f4 0 std::__ndk1::__function::__func<geode::modifier::ModifyBase<geode::modifier::ModifyDerive<MyGJMessageCell, GJMessageCell> >::setHookPriorityBefore(std::__ndk1::basic_string_view<char, std::__ndk1::char_traits<char> >, geode::Mod*)::{lambda(geode::ModStateEvent*)#1}, std::__ndk1::allocator<geode::modifier::ModifyBase<geode::modifier::ModifyDerive<MyGJMessageCell, GJMessageCell> >::setHookPriorityBefore(std::__ndk1::basic_string_view<char, std::__ndk1::char_traits<char> >, geode::Mod*)::{lambda(geode::ModStateEvent*)#1}>, void (geode::ModStateEvent*)>::destroy()
PUBLIC ba3f8 0 std::__ndk1::__function::__func<geode::modifier::ModifyBase<geode::modifier::ModifyDerive<MyGJMessageCell, GJMessageCell> >::setHookPriorityBefore(std::__ndk1::basic_string_view<char, std::__ndk1::char_traits<char> >, geode::Mod*)::{lambda(geode::ModStateEvent*)#1}, std::__ndk1::allocator<geode::modifier::ModifyBase<geode::modifier::ModifyDerive<MyGJMessageCell, GJMessageCell> >::setHookPriorityBefore(std::__ndk1::basic_string_view<char, std::__ndk1::char_traits<char> >, geode::Mod*)::{lambda(geode::ModStateEvent*)#1}>, void (geode::ModStateEvent*)>::destroy_deallocate()
PUBLIC ba3fc 0 std::__ndk1::__function::__func<geode::modifier::ModifyBase<geode::modifier::ModifyDerive<MyGJMessageCell, GJMessageCell> >::setHookPriorityBefore(std::__ndk1::basic_string_view<char, std::__ndk1::char_traits<char> >, geode::Mod*)::{lambda(geode::ModStateEvent*)#1}, std::__ndk1::allocator<geode::modifier::ModifyBase<geode::modifier::ModifyDerive<MyGJMessageCell, GJMessageCell> >::setHookPriorityBefore(std::__ndk1::basic_string_view<char, std::__ndk1::char_traits<char> >, geode::Mod*)::{lambda(geode::ModStateEvent*)#1}>, void (geode::ModStateEvent*)>::operator()(geode::ModStateEvent*&&)
PUBLIC ba404 0 std::__ndk1::__function::__func<geode::modifier::ModifyBase<geode::modifier::ModifyDerive<MyGJMessageCell, GJMessageCell> >::setHookPriorityBefore(std::__ndk1::basic_string_view<char, std::__ndk1::char_traits<char> >, geode::Mod*)::{lambda(geode::ModStateEvent*)#1}, std::__ndk1::allocator<geode::modifier::ModifyBase<geode::modifier::ModifyDerive<MyGJMessageCell, GJMessageCell> >::setHookPriorityBefore(std::__ndk1::basic_string_view<char, std::__ndk1::char_traits<char> >, geode::Mod*)::{lambda(geode::ModStateEvent*)#1}>, void (geode::ModStateEvent*)>::target(std::type_info const&) const
PUBLIC ba420 0 std::__ndk1::__function::__func<geode::modifier::ModifyBase<geode::modifier::ModifyDerive<MyGJMessageCell, GJMessageCell> >::setHookPriorityBefore(std::__ndk1::basic_string_view<char, std::__ndk1::char_traits<char> >, geode::Mod*)::{lambda(geode::ModStateEvent*)#1}, std::__ndk1::allocator<geode::modifier::ModifyBase<geode::modifier::ModifyDerive<MyGJMessageCell, GJMessageCell> >::setHookPriorityBefore(std::__ndk1::basic_string_view<char, std::__ndk1::char_traits<char> >, geode::Mod*)::{lambda(geode::ModStateEvent*)#1}>, void (geode::ModStateEvent*)>::target_type() const
PUBLIC ba42c 0 geode::modifier::AsStaticFunction_loadFromMessage<MyGJMessageCell, void (MyGJMessageCell::*)(GJUserMessage*)>::Impl<void (MyGJMessageCell::*)(GJUserMessage*)>::function(MyGJMessageCell*, GJUserMessage*)
PUBLIC ba4e4 0 MyGJMessageCell::checkBG(float)
PUBLIC ba928 0 geode::modifier::FieldIntermediate<MyGJMessageCell, GJMessageCell>::self()
PUBLIC baab8 0 geode::modifier::FieldIntermediate<MyGJMessageCell, GJMessageCell>::fieldDestructor(void*)
PUBLIC baabc 0 geode::modifier::ModifyDerive<MyMapPackCell, MapPackCell>::apply()
PUBLIC bae44 0 geode::modifier::ModifyBase<geode::modifier::ModifyDerive<MyMapPackCell, MapPackCell> >::apply()
PUBLIC bae48 0 std::__ndk1::__function::__func<MyMapPackCell::onModify<geode::modifier::ModifyBase<geode::modifier::ModifyDerive<MyMapPackCell, MapPackCell> > >(geode::modifier::ModifyBase<geode::modifier::ModifyDerive<MyMapPackCell, MapPackCell> >&)::{lambda()#1}, std::__ndk1::allocator<MyMapPackCell::onModify<geode::modifier::ModifyBase<geode::modifier::ModifyDerive<MyMapPackCell, MapPackCell> > >(geode::modifier::ModifyBase<geode::modifier::ModifyDerive<MyMapPackCell, MapPackCell> >&)::{lambda()#1}>, void ()>::~__func()
PUBLIC bae4c 0 std::__ndk1::__function::__func<MyMapPackCell::onModify<geode::modifier::ModifyBase<geode::modifier::ModifyDerive<MyMapPackCell, MapPackCell> > >(geode::modifier::ModifyBase<geode::modifier::ModifyDerive<MyMapPackCell, MapPackCell> >&)::{lambda()#1}, std::__ndk1::allocator<MyMapPackCell::onModify<geode::modifier::ModifyBase<geode::modifier::ModifyDerive<MyMapPackCell, MapPackCell> > >(geode::modifier::ModifyBase<geode::modifier::ModifyDerive<MyMapPackCell, MapPackCell> >&)::{lambda()#1}>, void ()>::__clone() const
PUBLIC bae80 0 std::__ndk1::__function::__func<MyMapPackCell::onModify<geode::modifier::ModifyBase<geode::modifier::ModifyDerive<MyMapPackCell, MapPackCell> > >(geode::modifier::ModifyBase<geode::modifier::ModifyDerive<MyMapPackCell, MapPackCell> >&)::{lambda()#1}, std::__ndk1::allocator<MyMapPackCell::onModify<geode::modifier::ModifyBase<geode::modifier::ModifyDerive<MyMapPackCell, MapPackCell> > >(geode::modifier::ModifyBase<geode::modifier::ModifyDerive<MyMapPackCell, MapPackCell> >&)::{lambda()#1}>, void ()>::__clone(std::__ndk1::__function::__base<void ()>*) const
PUBLIC bae94 0 std::__ndk1::__function::__func<MyMapPackCell::onModify<geode::modifier::ModifyBase<geode::modifier::ModifyDerive<MyMapPackCell, MapPackCell> > >(geode::modifier::ModifyBase<geode::modifier::ModifyDerive<MyMapPackCell, MapPackCell> >&)::{lambda()#1}, std::__ndk1::allocator<MyMapPackCell::onModify<geode::modifier::ModifyBase<geode::modifier::ModifyDerive<MyMapPackCell, MapPackCell> > >(geode::modifier::ModifyBase<geode::modifier::ModifyDerive<MyMapPackCell, MapPackCell> >&)::{lambda()#1}>, void ()>::destroy()
PUBLIC bae98 0 std::__ndk1::__function::__func<MyMapPackCell::onModify<geode::modifier::ModifyBase<geode::modifier::ModifyDerive<MyMapPackCell, MapPackCell> > >(geode::modifier::ModifyBase<geode::modifier::ModifyDerive<MyMapPackCell, MapPackCell> >&)::{lambda()#1}, std::__ndk1::allocator<MyMapPackCell::onModify<geode::modifier::ModifyBase<geode::modifier::ModifyDerive<MyMapPackCell, MapPackCell> > >(geode::modifier::ModifyBase<geode::modifier::ModifyDerive<MyMapPackCell, MapPackCell> >&)::{lambda()#1}>, void ()>::destroy_deallocate()
PUBLIC bae9c 0 std::__ndk1::__function::__func<MyMapPackCell::onModify<geode::modifier::ModifyBase<geode::modifier::ModifyDerive<MyMapPackCell, MapPackCell> > >(geode::modifier::ModifyBase<geode::modifier::ModifyDerive<MyMapPackCell, MapPackCell> >&)::{lambda()#1}, std::__ndk1::allocator<MyMapPackCell::onModify<geode::modifier::ModifyBase<geode::modifier::ModifyDerive<MyMapPackCell, MapPackCell> > >(geode::modifier::ModifyBase<geode::modifier::ModifyDerive<MyMapPackCell, MapPackCell> >&)::{lambda()#1}>, void ()>::operator()()
PUBLIC bb434 0 std::__ndk1::__function::__func<MyMapPackCell::onModify<geode::modifier::ModifyBase<geode::modifier::ModifyDerive<MyMapPackCell, MapPackCell> > >(geode::modifier::ModifyBase<geode::modifier::ModifyDerive<MyMapPackCell, MapPackCell> >&)::{lambda()#1}, std::__ndk1::allocator<MyMapPackCell::onModify<geode::modifier::ModifyBase<geode::modifier::ModifyDerive<MyMapPackCell, MapPackCell> > >(geode::modifier::ModifyBase<geode::modifier::ModifyDerive<MyMapPackCell, MapPackCell> >&)::{lambda()#1}>, void ()>::target(std::type_info const&) const
PUBLIC bb450 0 std::__ndk1::__function::__func<MyMapPackCell::onModify<geode::modifier::ModifyBase<geode::modifier::ModifyDerive<MyMapPackCell, MapPackCell> > >(geode::modifier::ModifyBase<geode::modifier::ModifyDerive<MyMapPackCell, MapPackCell> >&)::{lambda()#1}, std::__ndk1::allocator<MyMapPackCell::onModify<geode::modifier::ModifyBase<geode::modifier::ModifyDerive<MyMapPackCell, MapPackCell> > >(geode::modifier::ModifyBase<geode::modifier::ModifyDerive<MyMapPackCell, MapPackCell> >&)::{lambda()#1}>, void ()>::target_type() const
PUBLIC bb45c 0 geode::modifier::ModifyBase<geode::modifier::ModifyDerive<MyMapPackCell, MapPackCell> >::setHookPriorityBefore(std::__ndk1::basic_string_view<char, std::__ndk1::char_traits<char> >, geode::Mod*)::{lambda(geode::ModStateEvent*)#1}::operator()(geode::ModStateEvent*) const
PUBLIC bb56c 0 std::__ndk1::__function::__func<geode::modifier::ModifyBase<geode::modifier::ModifyDerive<MyMapPackCell, MapPackCell> >::setHookPriorityBefore(std::__ndk1::basic_string_view<char, std::__ndk1::char_traits<char> >, geode::Mod*)::{lambda(geode::ModStateEvent*)#1}, std::__ndk1::allocator<geode::modifier::ModifyBase<geode::modifier::ModifyDerive<MyMapPackCell, MapPackCell> >::setHookPriorityBefore(std::__ndk1::basic_string_view<char, std::__ndk1::char_traits<char> >, geode::Mod*)::{lambda(geode::ModStateEvent*)#1}>, void (geode::ModStateEvent*)>::~__func()
PUBLIC bb570 0 std::__ndk1::__function::__func<geode::modifier::ModifyBase<geode::modifier::ModifyDerive<MyMapPackCell, MapPackCell> >::setHookPriorityBefore(std::__ndk1::basic_string_view<char, std::__ndk1::char_traits<char> >, geode::Mod*)::{lambda(geode::ModStateEvent*)#1}, std::__ndk1::allocator<geode::modifier::ModifyBase<geode::modifier::ModifyDerive<MyMapPackCell, MapPackCell> >::setHookPriorityBefore(std::__ndk1::basic_string_view<char, std::__ndk1::char_traits<char> >, geode::Mod*)::{lambda(geode::ModStateEvent*)#1}>, void (geode::ModStateEvent*)>::__clone() const
PUBLIC bb5a8 0 std::__ndk1::__function::__func<geode::modifier::ModifyBase<geode::modifier::ModifyDerive<MyMapPackCell, MapPackCell> >::setHookPriorityBefore(std::__ndk1::basic_string_view<char, std::__ndk1::char_traits<char> >, geode::Mod*)::{lambda(geode::ModStateEvent*)#1}, std::__ndk1::allocator<geode::modifier::ModifyBase<geode::modifier::ModifyDerive<MyMapPackCell, MapPackCell> >::setHookPriorityBefore(std::__ndk1::basic_string_view<char, std::__ndk1::char_traits<char> >, geode::Mod*)::{lambda(geode::ModStateEvent*)#1}>, void (geode::ModStateEvent*)>::__clone(std::__ndk1::__function::__base<void (geode::ModStateEvent*)>*) const
PUBLIC bb5c0 0 std::__ndk1::__function::__func<geode::modifier::ModifyBase<geode::modifier::ModifyDerive<MyMapPackCell, MapPackCell> >::setHookPriorityBefore(std::__ndk1::basic_string_view<char, std::__ndk1::char_traits<char> >, geode::Mod*)::{lambda(geode::ModStateEvent*)#1}, std::__ndk1::allocator<geode::modifier::ModifyBase<geode::modifier::ModifyDerive<MyMapPackCell, MapPackCell> >::setHookPriorityBefore(std::__ndk1::basic_string_view<char, std::__ndk1::char_traits<char> >, geode::Mod*)::{lambda(geode::ModStateEvent*)#1}>, void (geode::ModStateEvent*)>::destroy()
PUBLIC bb5c4 0 std::__ndk1::__function::__func<geode::modifier::ModifyBase<geode::modifier::ModifyDerive<MyMapPackCell, MapPackCell> >::setHookPriorityBefore(std::__ndk1::basic_string_view<char, std::__ndk1::char_traits<char> >, geode::Mod*)::{lambda(geode::ModStateEvent*)#1}, std::__ndk1::allocator<geode::modifier::ModifyBase<geode::modifier::ModifyDerive<MyMapPackCell, MapPackCell> >::setHookPriorityBefore(std::__ndk1::basic_string_view<char, std::__ndk1::char_traits<char> >, geode::Mod*)::{lambda(geode::ModStateEvent*)#1}>, void (geode::ModStateEvent*)>::destroy_deallocate()
PUBLIC bb5c8 0 std::__ndk1::__function::__func<geode::modifier::ModifyBase<geode::modifier::ModifyDerive<MyMapPackCell, MapPackCell> >::setHookPriorityBefore(std::__ndk1::basic_string_view<char, std::__ndk1::char_traits<char> >, geode::Mod*)::{lambda(geode::ModStateEvent*)#1}, std::__ndk1::allocator<geode::modifier::ModifyBase<geode::modifier::ModifyDerive<MyMapPackCell, MapPackCell> >::setHookPriorityBefore(std::__ndk1::basic_string_view<char, std::__ndk1::char_traits<char> >, geode::Mod*)::{lambda(geode::ModStateEvent*)#1}>, void (geode::ModStateEvent*)>::operator()(geode::ModStateEvent*&&)
PUBLIC bb5d0 0 std::__ndk1::__function::__func<geode::modifier::ModifyBase<geode::modifier::ModifyDerive<MyMapPackCell, MapPackCell> >::setHookPriorityBefore(std::__ndk1::basic_string_view<char, std::__ndk1::char_traits<char> >, geode::Mod*)::{lambda(geode::ModStateEvent*)#1}, std::__ndk1::allocator<geode::modifier::ModifyBase<geode::modifier::ModifyDerive<MyMapPackCell, MapPackCell> >::setHookPriorityBefore(std::__ndk1::basic_string_view<char, std::__ndk1::char_traits<char> >, geode::Mod*)::{lambda(geode::ModStateEvent*)#1}>, void (geode::ModStateEvent*)>::target(std::type_info const&) const
PUBLIC bb5ec 0 std::__ndk1::__function::__func<geode::modifier::ModifyBase<geode::modifier::ModifyDerive<MyMapPackCell, MapPackCell> >::setHookPriorityBefore(std::__ndk1::basic_string_view<char, std::__ndk1::char_traits<char> >, geode::Mod*)::{lambda(geode::ModStateEvent*)#1}, std::__ndk1::allocator<geode::modifier::ModifyBase<geode::modifier::ModifyDerive<MyMapPackCell, MapPackCell> >::setHookPriorityBefore(std::__ndk1::basic_string_view<char, std::__ndk1::char_traits<char> >, geode::Mod*)::{lambda(geode::ModStateEvent*)#1}>, void (geode::ModStateEvent*)>::target_type() const
PUBLIC bb5f8 0 geode::modifier::AsStaticFunction_loadFromMapPack<MyMapPackCell, void (MyMapPackCell::*)(GJMapPack*)>::Impl<void (MyMapPackCell::*)(GJMapPack*)>::function(MyMapPackCell*, GJMapPack*)
PUBLIC bb6b0 0 MyMapPackCell::checkBG(float)
PUBLIC bbaf4 0 geode::modifier::FieldIntermediate<MyMapPackCell, MapPackCell>::self()
PUBLIC bbc84 0 geode::modifier::FieldIntermediate<MyMapPackCell, MapPackCell>::fieldDestructor(void*)
PUBLIC bbc88 0 geode::modifier::ModifyDerive<MyGJLevelScoreCell, GJLevelScoreCell>::apply()
PUBLIC bc010 0 geode::modifier::ModifyBase<geode::modifier::ModifyDerive<MyGJLevelScoreCell, GJLevelScoreCell> >::apply()
PUBLIC bc014 0 std::__ndk1::__function::__func<MyGJLevelScoreCell::onModify<geode::modifier::ModifyBase<geode::modifier::ModifyDerive<MyGJLevelScoreCell, GJLevelScoreCell> > >(geode::modifier::ModifyBase<geode::modifier::ModifyDerive<MyGJLevelScoreCell, GJLevelScoreCell> >&)::{lambda()#1}, std::__ndk1::allocator<MyGJLevelScoreCell::onModify<geode::modifier::ModifyBase<geode::modifier::ModifyDerive<MyGJLevelScoreCell, GJLevelScoreCell> > >(geode::modifier::ModifyBase<geode::modifier::ModifyDerive<MyGJLevelScoreCell, GJLevelScoreCell> >&)::{lambda()#1}>, void ()>::~__func()
PUBLIC bc018 0 std::__ndk1::__function::__func<MyGJLevelScoreCell::onModify<geode::modifier::ModifyBase<geode::modifier::ModifyDerive<MyGJLevelScoreCell, GJLevelScoreCell> > >(geode::modifier::ModifyBase<geode::modifier::ModifyDerive<MyGJLevelScoreCell, GJLevelScoreCell> >&)::{lambda()#1}, std::__ndk1::allocator<MyGJLevelScoreCell::onModify<geode::modifier::ModifyBase<geode::modifier::ModifyDerive<MyGJLevelScoreCell, GJLevelScoreCell> > >(geode::modifier::ModifyBase<geode::modifier::ModifyDerive<MyGJLevelScoreCell, GJLevelScoreCell> >&)::{lambda()#1}>, void ()>::__clone() const
PUBLIC bc04c 0 std::__ndk1::__function::__func<MyGJLevelScoreCell::onModify<geode::modifier::ModifyBase<geode::modifier::ModifyDerive<MyGJLevelScoreCell, GJLevelScoreCell> > >(geode::modifier::ModifyBase<geode::modifier::ModifyDerive<MyGJLevelScoreCell, GJLevelScoreCell> >&)::{lambda()#1}, std::__ndk1::allocator<MyGJLevelScoreCell::onModify<geode::modifier::ModifyBase<geode::modifier::ModifyDerive<MyGJLevelScoreCell, GJLevelScoreCell> > >(geode::modifier::ModifyBase<geode::modifier::ModifyDerive<MyGJLevelScoreCell, GJLevelScoreCell> >&)::{lambda()#1}>, void ()>::__clone(std::__ndk1::__function::__base<void ()>*) const
PUBLIC bc060 0 std::__ndk1::__function::__func<MyGJLevelScoreCell::onModify<geode::modifier::ModifyBase<geode::modifier::ModifyDerive<MyGJLevelScoreCell, GJLevelScoreCell> > >(geode::modifier::ModifyBase<geode::modifier::ModifyDerive<MyGJLevelScoreCell, GJLevelScoreCell> >&)::{lambda()#1}, std::__ndk1::allocator<MyGJLevelScoreCell::onModify<geode::modifier::ModifyBase<geode::modifier::ModifyDerive<MyGJLevelScoreCell, GJLevelScoreCell> > >(geode::modifier::ModifyBase<geode::modifier::ModifyDerive<MyGJLevelScoreCell, GJLevelScoreCell> >&)::{lambda()#1}>, void ()>::destroy()
PUBLIC bc064 0 std::__ndk1::__function::__func<MyGJLevelScoreCell::onModify<geode::modifier::ModifyBase<geode::modifier::ModifyDerive<MyGJLevelScoreCell, GJLevelScoreCell> > >(geode::modifier::ModifyBase<geode::modifier::ModifyDerive<MyGJLevelScoreCell, GJLevelScoreCell> >&)::{lambda()#1}, std::__ndk1::allocator<MyGJLevelScoreCell::onModify<geode::modifier::ModifyBase<geode::modifier::ModifyDerive<MyGJLevelScoreCell, GJLevelScoreCell> > >(geode::modifier::ModifyBase<geode::modifier::ModifyDerive<MyGJLevelScoreCell, GJLevelScoreCell> >&)::{lambda()#1}>, void ()>::destroy_deallocate()
PUBLIC bc068 0 std::__ndk1::__function::__func<MyGJLevelScoreCell::onModify<geode::modifier::ModifyBase<geode::modifier::ModifyDerive<MyGJLevelScoreCell, GJLevelScoreCell> > >(geode::modifier::ModifyBase<geode::modifier::ModifyDerive<MyGJLevelScoreCell, GJLevelScoreCell> >&)::{lambda()#1}, std::__ndk1::allocator<MyGJLevelScoreCell::onModify<geode::modifier::ModifyBase<geode::modifier::ModifyDerive<MyGJLevelScoreCell, GJLevelScoreCell> > >(geode::modifier::ModifyBase<geode::modifier::ModifyDerive<MyGJLevelScoreCell, GJLevelScoreCell> >&)::{lambda()#1}>, void ()>::operator()()
PUBLIC bc600 0 std::__ndk1::__function::__func<MyGJLevelScoreCell::onModify<geode::modifier::ModifyBase<geode::modifier::ModifyDerive<MyGJLevelScoreCell, GJLevelScoreCell> > >(geode::modifier::ModifyBase<geode::modifier::ModifyDerive<MyGJLevelScoreCell, GJLevelScoreCell> >&)::{lambda()#1}, std::__ndk1::allocator<MyGJLevelScoreCell::onModify<geode::modifier::ModifyBase<geode::modifier::ModifyDerive<MyGJLevelScoreCell, GJLevelScoreCell> > >(geode::modifier::ModifyBase<geode::modifier::ModifyDerive<MyGJLevelScoreCell, GJLevelScoreCell> >&)::{lambda()#1}>, void ()>::target(std::type_info const&) const
PUBLIC bc61c 0 std::__ndk1::__function::__func<MyGJLevelScoreCell::onModify<geode::modifier::ModifyBase<geode::modifier::ModifyDerive<MyGJLevelScoreCell, GJLevelScoreCell> > >(geode::modifier::ModifyBase<geode::modifier::ModifyDerive<MyGJLevelScoreCell, GJLevelScoreCell> >&)::{lambda()#1}, std::__ndk1::allocator<MyGJLevelScoreCell::onModify<geode::modifier::ModifyBase<geode::modifier::ModifyDerive<MyGJLevelScoreCell, GJLevelScoreCell> > >(geode::modifier::ModifyBase<geode::modifier::ModifyDerive<MyGJLevelScoreCell, GJLevelScoreCell> >&)::{lambda()#1}>, void ()>::target_type() const
PUBLIC bc628 0 geode::modifier::ModifyBase<geode::modifier::ModifyDerive<MyGJLevelScoreCell, GJLevelScoreCell> >::setHookPriorityBefore(std::__ndk1::basic_string_view<char, std::__ndk1::char_traits<char> >, geode::Mod*)::{lambda(geode::ModStateEvent*)#1}::operator()(geode::ModStateEvent*) const
PUBLIC bc738 0 std::__ndk1::__function::__func<geode::modifier::ModifyBase<geode::modifier::ModifyDerive<MyGJLevelScoreCell, GJLevelScoreCell> >::setHookPriorityBefore(std::__ndk1::basic_string_view<char, std::__ndk1::char_traits<char> >, geode::Mod*)::{lambda(geode::ModStateEvent*)#1}, std::__ndk1::allocator<geode::modifier::ModifyBase<geode::modifier::ModifyDerive<MyGJLevelScoreCell, GJLevelScoreCell> >::setHookPriorityBefore(std::__ndk1::basic_string_view<char, std::__ndk1::char_traits<char> >, geode::Mod*)::{lambda(geode::ModStateEvent*)#1}>, void (geode::ModStateEvent*)>::~__func()
PUBLIC bc73c 0 std::__ndk1::__function::__func<geode::modifier::ModifyBase<geode::modifier::ModifyDerive<MyGJLevelScoreCell, GJLevelScoreCell> >::setHookPriorityBefore(std::__ndk1::basic_string_view<char, std::__ndk1::char_traits<char> >, geode::Mod*)::{lambda(geode::ModStateEvent*)#1}, std::__ndk1::allocator<geode::modifier::ModifyBase<geode::modifier::ModifyDerive<MyGJLevelScoreCell, GJLevelScoreCell> >::setHookPriorityBefore(std::__ndk1::basic_string_view<char, std::__ndk1::char_traits<char> >, geode::Mod*)::{lambda(geode::ModStateEvent*)#1}>, void (geode::ModStateEvent*)>::__clone() const
PUBLIC bc774 0 std::__ndk1::__function::__func<geode::modifier::ModifyBase<geode::modifier::ModifyDerive<MyGJLevelScoreCell, GJLevelScoreCell> >::setHookPriorityBefore(std::__ndk1::basic_string_view<char, std::__ndk1::char_traits<char> >, geode::Mod*)::{lambda(geode::ModStateEvent*)#1}, std::__ndk1::allocator<geode::modifier::ModifyBase<geode::modifier::ModifyDerive<MyGJLevelScoreCell, GJLevelScoreCell> >::setHookPriorityBefore(std::__ndk1::basic_string_view<char, std::__ndk1::char_traits<char> >, geode::Mod*)::{lambda(geode::ModStateEvent*)#1}>, void (geode::ModStateEvent*)>::__clone(std::__ndk1::__function::__base<void (geode::ModStateEvent*)>*) const
PUBLIC bc78c 0 std::__ndk1::__function::__func<geode::modifier::ModifyBase<geode::modifier::ModifyDerive<MyGJLevelScoreCell, GJLevelScoreCell> >::setHookPriorityBefore(std::__ndk1::basic_string_view<char, std::__ndk1::char_traits<char> >, geode::Mod*)::{lambda(geode::ModStateEvent*)#1}, std::__ndk1::allocator<geode::modifier::ModifyBase<geode::modifier::ModifyDerive<MyGJLevelScoreCell, GJLevelScoreCell> >::setHookPriorityBefore(std::__ndk1::basic_string_view<char, std::__ndk1::char_traits<char> >, geode::Mod*)::{lambda(geode::ModStateEvent*)#1}>, void (geode::ModStateEvent*)>::destroy()
PUBLIC bc790 0 std::__ndk1::__function::__func<geode::modifier::ModifyBase<geode::modifier::ModifyDerive<MyGJLevelScoreCell, GJLevelScoreCell> >::setHookPriorityBefore(std::__ndk1::basic_string_view<char, std::__ndk1::char_traits<char> >, geode::Mod*)::{lambda(geode::ModStateEvent*)#1}, std::__ndk1::allocator<geode::modifier::ModifyBase<geode::modifier::ModifyDerive<MyGJLevelScoreCell, GJLevelScoreCell> >::setHookPriorityBefore(std::__ndk1::basic_string_view<char, std::__ndk1::char_traits<char> >, geode::Mod*)::{lambda(geode::ModStateEvent*)#1}>, void (geode::ModStateEvent*)>::destroy_deallocate()
PUBLIC bc794 0 std::__ndk1::__function::__func<geode::modifier::ModifyBase<geode::modifier::ModifyDerive<MyGJLevelScoreCell, GJLevelScoreCell> >::setHookPriorityBefore(std::__ndk1::basic_string_view<char, std::__ndk1::char_traits<char> >, geode::Mod*)::{lambda(geode::ModStateEvent*)#1}, std::__ndk1::allocator<geode::modifier::ModifyBase<geode::modifier::ModifyDerive<MyGJLevelScoreCell, GJLevelScoreCell> >::setHookPriorityBefore(std::__ndk1::basic_string_view<char, std::__ndk1::char_traits<char> >, geode::Mod*)::{lambda(geode::ModStateEvent*)#1}>, void (geode::ModStateEvent*)>::operator()(geode::ModStateEvent*&&)
PUBLIC bc79c 0 std::__ndk1::__function::__func<geode::modifier::ModifyBase<geode::modifier::ModifyDerive<MyGJLevelScoreCell, GJLevelScoreCell> >::setHookPriorityBefore(std::__ndk1::basic_string_view<char, std::__ndk1::char_traits<char> >, geode::Mod*)::{lambda(geode::ModStateEvent*)#1}, std::__ndk1::allocator<geode::modifier::ModifyBase<geode::modifier::ModifyDerive<MyGJLevelScoreCell, GJLevelScoreCell> >::setHookPriorityBefore(std::__ndk1::basic_string_view<char, std::__ndk1::char_traits<char> >, geode::Mod*)::{lambda(geode::ModStateEvent*)#1}>, void (geode::ModStateEvent*)>::target(std::type_info const&) const
PUBLIC bc7b8 0 std::__ndk1::__function::__func<geode::modifier::ModifyBase<geode::modifier::ModifyDerive<MyGJLevelScoreCell, GJLevelScoreCell> >::setHookPriorityBefore(std::__ndk1::basic_string_view<char, std::__ndk1::char_traits<char> >, geode::Mod*)::{lambda(geode::ModStateEvent*)#1}, std::__ndk1::allocator<geode::modifier::ModifyBase<geode::modifier::ModifyDerive<MyGJLevelScoreCell, GJLevelScoreCell> >::setHookPriorityBefore(std::__ndk1::basic_string_view<char, std::__ndk1::char_traits<char> >, geode::Mod*)::{lambda(geode::ModStateEvent*)#1}>, void (geode::ModStateEvent*)>::target_type() const
PUBLIC bc7c4 0 geode::modifier::AsStaticFunction_loadFromScore<MyGJLevelScoreCell, void (MyGJLevelScoreCell::*)(GJUserScore*)>::Impl<void (MyGJLevelScoreCell::*)(GJUserScore*)>::function(MyGJLevelScoreCell*, GJUserScore*)
PUBLIC bc87c 0 MyGJLevelScoreCell::checkBG(float)
PUBLIC bccc0 0 geode::modifier::FieldIntermediate<MyGJLevelScoreCell, GJLevelScoreCell>::self()
PUBLIC bce50 0 geode::modifier::FieldIntermediate<MyGJLevelScoreCell, GJLevelScoreCell>::fieldDestructor(void*)
PUBLIC bce54 0 geode::modifier::ModifyDerive<MyGJRequestCell, GJRequestCell>::apply()
PUBLIC bd1dc 0 geode::modifier::ModifyBase<geode::modifier::ModifyDerive<MyGJRequestCell, GJRequestCell> >::apply()
PUBLIC bd1e0 0 std::__ndk1::__function::__func<MyGJRequestCell::onModify<geode::modifier::ModifyBase<geode::modifier::ModifyDerive<MyGJRequestCell, GJRequestCell> > >(geode::modifier::ModifyBase<geode::modifier::ModifyDerive<MyGJRequestCell, GJRequestCell> >&)::{lambda()#1}, std::__ndk1::allocator<MyGJRequestCell::onModify<geode::modifier::ModifyBase<geode::modifier::ModifyDerive<MyGJRequestCell, GJRequestCell> > >(geode::modifier::ModifyBase<geode::modifier::ModifyDerive<MyGJRequestCell, GJRequestCell> >&)::{lambda()#1}>, void ()>::~__func()
PUBLIC bd1e4 0 std::__ndk1::__function::__func<MyGJRequestCell::onModify<geode::modifier::ModifyBase<geode::modifier::ModifyDerive<MyGJRequestCell, GJRequestCell> > >(geode::modifier::ModifyBase<geode::modifier::ModifyDerive<MyGJRequestCell, GJRequestCell> >&)::{lambda()#1}, std::__ndk1::allocator<MyGJRequestCell::onModify<geode::modifier::ModifyBase<geode::modifier::ModifyDerive<MyGJRequestCell, GJRequestCell> > >(geode::modifier::ModifyBase<geode::modifier::ModifyDerive<MyGJRequestCell, GJRequestCell> >&)::{lambda()#1}>, void ()>::__clone() const
PUBLIC bd218 0 std::__ndk1::__function::__func<MyGJRequestCell::onModify<geode::modifier::ModifyBase<geode::modifier::ModifyDerive<MyGJRequestCell, GJRequestCell> > >(geode::modifier::ModifyBase<geode::modifier::ModifyDerive<MyGJRequestCell, GJRequestCell> >&)::{lambda()#1}, std::__ndk1::allocator<MyGJRequestCell::onModify<geode::modifier::ModifyBase<geode::modifier::ModifyDerive<MyGJRequestCell, GJRequestCell> > >(geode::modifier::ModifyBase<geode::modifier::ModifyDerive<MyGJRequestCell, GJRequestCell> >&)::{lambda()#1}>, void ()>::__clone(std::__ndk1::__function::__base<void ()>*) const
PUBLIC bd22c 0 std::__ndk1::__function::__func<MyGJRequestCell::onModify<geode::modifier::ModifyBase<geode::modifier::ModifyDerive<MyGJRequestCell, GJRequestCell> > >(geode::modifier::ModifyBase<geode::modifier::ModifyDerive<MyGJRequestCell, GJRequestCell> >&)::{lambda()#1}, std::__ndk1::allocator<MyGJRequestCell::onModify<geode::modifier::ModifyBase<geode::modifier::ModifyDerive<MyGJRequestCell, GJRequestCell> > >(geode::modifier::ModifyBase<geode::modifier::ModifyDerive<MyGJRequestCell, GJRequestCell> >&)::{lambda()#1}>, void ()>::destroy()
PUBLIC bd230 0 std::__ndk1::__function::__func<MyGJRequestCell::onModify<geode::modifier::ModifyBase<geode::modifier::ModifyDerive<MyGJRequestCell, GJRequestCell> > >(geode::modifier::ModifyBase<geode::modifier::ModifyDerive<MyGJRequestCell, GJRequestCell> >&)::{lambda()#1}, std::__ndk1::allocator<MyGJRequestCell::onModify<geode::modifier::ModifyBase<geode::modifier::ModifyDerive<MyGJRequestCell, GJRequestCell> > >(geode::modifier::ModifyBase<geode::modifier::ModifyDerive<MyGJRequestCell, GJRequestCell> >&)::{lambda()#1}>, void ()>::destroy_deallocate()
PUBLIC bd234 0 std::__ndk1::__function::__func<MyGJRequestCell::onModify<geode::modifier::ModifyBase<geode::modifier::ModifyDerive<MyGJRequestCell, GJRequestCell> > >(geode::modifier::ModifyBase<geode::modifier::ModifyDerive<MyGJRequestCell, GJRequestCell> >&)::{lambda()#1}, std::__ndk1::allocator<MyGJRequestCell::onModify<geode::modifier::ModifyBase<geode::modifier::ModifyDerive<MyGJRequestCell, GJRequestCell> > >(geode::modifier::ModifyBase<geode::modifier::ModifyDerive<MyGJRequestCell, GJRequestCell> >&)::{lambda()#1}>, void ()>::operator()()
PUBLIC bd7cc 0 std::__ndk1::__function::__func<MyGJRequestCell::onModify<geode::modifier::ModifyBase<geode::modifier::ModifyDerive<MyGJRequestCell, GJRequestCell> > >(geode::modifier::ModifyBase<geode::modifier::ModifyDerive<MyGJRequestCell, GJRequestCell> >&)::{lambda()#1}, std::__ndk1::allocator<MyGJRequestCell::onModify<geode::modifier::ModifyBase<geode::modifier::ModifyDerive<MyGJRequestCell, GJRequestCell> > >(geode::modifier::ModifyBase<geode::modifier::ModifyDerive<MyGJRequestCell, GJRequestCell> >&)::{lambda()#1}>, void ()>::target(std::type_info const&) const
PUBLIC bd7e8 0 std::__ndk1::__function::__func<MyGJRequestCell::onModify<geode::modifier::ModifyBase<geode::modifier::ModifyDerive<MyGJRequestCell, GJRequestCell> > >(geode::modifier::ModifyBase<geode::modifier::ModifyDerive<MyGJRequestCell, GJRequestCell> >&)::{lambda()#1}, std::__ndk1::allocator<MyGJRequestCell::onModify<geode::modifier::ModifyBase<geode::modifier::ModifyDerive<MyGJRequestCell, GJRequestCell> > >(geode::modifier::ModifyBase<geode::modifier::ModifyDerive<MyGJRequestCell, GJRequestCell> >&)::{lambda()#1}>, void ()>::target_type() const
PUBLIC bd7f4 0 geode::modifier::ModifyBase<geode::modifier::ModifyDerive<MyGJRequestCell, GJRequestCell> >::setHookPriorityBefore(std::__ndk1::basic_string_view<char, std::__ndk1::char_traits<char> >, geode::Mod*)::{lambda(geode::ModStateEvent*)#1}::operator()(geode::ModStateEvent*) const
PUBLIC bd904 0 std::__ndk1::__function::__func<geode::modifier::ModifyBase<geode::modifier::ModifyDerive<MyGJRequestCell, GJRequestCell> >::setHookPriorityBefore(std::__ndk1::basic_string_view<char, std::__ndk1::char_traits<char> >, geode::Mod*)::{lambda(geode::ModStateEvent*)#1}, std::__ndk1::allocator<geode::modifier::ModifyBase<geode::modifier::ModifyDerive<MyGJRequestCell, GJRequestCell> >::setHookPriorityBefore(std::__ndk1::basic_string_view<char, std::__ndk1::char_traits<char> >, geode::Mod*)::{lambda(geode::ModStateEvent*)#1}>, void (geode::ModStateEvent*)>::~__func()
PUBLIC bd908 0 std::__ndk1::__function::__func<geode::modifier::ModifyBase<geode::modifier::ModifyDerive<MyGJRequestCell, GJRequestCell> >::setHookPriorityBefore(std::__ndk1::basic_string_view<char, std::__ndk1::char_traits<char> >, geode::Mod*)::{lambda(geode::ModStateEvent*)#1}, std::__ndk1::allocator<geode::modifier::ModifyBase<geode::modifier::ModifyDerive<MyGJRequestCell, GJRequestCell> >::setHookPriorityBefore(std::__ndk1::basic_string_view<char, std::__ndk1::char_traits<char> >, geode::Mod*)::{lambda(geode::ModStateEvent*)#1}>, void (geode::ModStateEvent*)>::__clone() const
PUBLIC bd940 0 std::__ndk1::__function::__func<geode::modifier::ModifyBase<geode::modifier::ModifyDerive<MyGJRequestCell, GJRequestCell> >::setHookPriorityBefore(std::__ndk1::basic_string_view<char, std::__ndk1::char_traits<char> >, geode::Mod*)::{lambda(geode::ModStateEvent*)#1}, std::__ndk1::allocator<geode::modifier::ModifyBase<geode::modifier::ModifyDerive<MyGJRequestCell, GJRequestCell> >::setHookPriorityBefore(std::__ndk1::basic_string_view<char, std::__ndk1::char_traits<char> >, geode::Mod*)::{lambda(geode::ModStateEvent*)#1}>, void (geode::ModStateEvent*)>::__clone(std::__ndk1::__function::__base<void (geode::ModStateEvent*)>*) const
PUBLIC bd958 0 std::__ndk1::__function::__func<geode::modifier::ModifyBase<geode::modifier::ModifyDerive<MyGJRequestCell, GJRequestCell> >::setHookPriorityBefore(std::__ndk1::basic_string_view<char, std::__ndk1::char_traits<char> >, geode::Mod*)::{lambda(geode::ModStateEvent*)#1}, std::__ndk1::allocator<geode::modifier::ModifyBase<geode::modifier::ModifyDerive<MyGJRequestCell, GJRequestCell> >::setHookPriorityBefore(std::__ndk1::basic_string_view<char, std::__ndk1::char_traits<char> >, geode::Mod*)::{lambda(geode::ModStateEvent*)#1}>, void (geode::ModStateEvent*)>::destroy()
PUBLIC bd95c 0 std::__ndk1::__function::__func<geode::modifier::ModifyBase<geode::modifier::ModifyDerive<MyGJRequestCell, GJRequestCell> >::setHookPriorityBefore(std::__ndk1::basic_string_view<char, std::__ndk1::char_traits<char> >, geode::Mod*)::{lambda(geode::ModStateEvent*)#1}, std::__ndk1::allocator<geode::modifier::ModifyBase<geode::modifier::ModifyDerive<MyGJRequestCell, GJRequestCell> >::setHookPriorityBefore(std::__ndk1::basic_string_view<char, std::__ndk1::char_traits<char> >, geode::Mod*)::{lambda(geode::ModStateEvent*)#1}>, void (geode::ModStateEvent*)>::destroy_deallocate()
PUBLIC bd960 0 std::__ndk1::__function::__func<geode::modifier::ModifyBase<geode::modifier::ModifyDerive<MyGJRequestCell, GJRequestCell> >::setHookPriorityBefore(std::__ndk1::basic_string_view<char, std::__ndk1::char_traits<char> >, geode::Mod*)::{lambda(geode::ModStateEvent*)#1}, std::__ndk1::allocator<geode::modifier::ModifyBase<geode::modifier::ModifyDerive<MyGJRequestCell, GJRequestCell> >::setHookPriorityBefore(std::__ndk1::basic_string_view<char, std::__ndk1::char_traits<char> >, geode::Mod*)::{lambda(geode::ModStateEvent*)#1}>, void (geode::ModStateEvent*)>::operator()(geode::ModStateEvent*&&)
PUBLIC bd968 0 std::__ndk1::__function::__func<geode::modifier::ModifyBase<geode::modifier::ModifyDerive<MyGJRequestCell, GJRequestCell> >::setHookPriorityBefore(std::__ndk1::basic_string_view<char, std::__ndk1::char_traits<char> >, geode::Mod*)::{lambda(geode::ModStateEvent*)#1}, std::__ndk1::allocator<geode::modifier::ModifyBase<geode::modifier::ModifyDerive<MyGJRequestCell, GJRequestCell> >::setHookPriorityBefore(std::__ndk1::basic_string_view<char, std::__ndk1::char_traits<char> >, geode::Mod*)::{lambda(geode::ModStateEvent*)#1}>, void (geode::ModStateEvent*)>::target(std::type_info const&) const
PUBLIC bd984 0 std::__ndk1::__function::__func<geode::modifier::ModifyBase<geode::modifier::ModifyDerive<MyGJRequestCell, GJRequestCell> >::setHookPriorityBefore(std::__ndk1::basic_string_view<char, std::__ndk1::char_traits<char> >, geode::Mod*)::{lambda(geode::ModStateEvent*)#1}, std::__ndk1::allocator<geode::modifier::ModifyBase<geode::modifier::ModifyDerive<MyGJRequestCell, GJRequestCell> >::setHookPriorityBefore(std::__ndk1::basic_string_view<char, std::__ndk1::char_traits<char> >, geode::Mod*)::{lambda(geode::ModStateEvent*)#1}>, void (geode::ModStateEvent*)>::target_type() const
PUBLIC bd990 0 geode::modifier::AsStaticFunction_loadFromScore<MyGJRequestCell, void (MyGJRequestCell::*)(GJUserScore*)>::Impl<void (MyGJRequestCell::*)(GJUserScore*)>::function(MyGJRequestCell*, GJUserScore*)
PUBLIC bda48 0 MyGJRequestCell::checkBG(float)
PUBLIC bde8c 0 geode::modifier::FieldIntermediate<MyGJRequestCell, GJRequestCell>::self()
PUBLIC be01c 0 geode::modifier::FieldIntermediate<MyGJRequestCell, GJRequestCell>::fieldDestructor(void*)
PUBLIC be020 0 geode::modifier::ModifyDerive<MyLevelSearchLayer, LevelSearchLayer>::apply()
PUBLIC be380 0 geode::modifier::ModifyBase<geode::modifier::ModifyDerive<MyLevelSearchLayer, LevelSearchLayer> >::apply()
PUBLIC be384 0 std::__ndk1::__function::__func<MyLevelSearchLayer::onModify<geode::modifier::ModifyBase<geode::modifier::ModifyDerive<MyLevelSearchLayer, LevelSearchLayer> > >(geode::modifier::ModifyBase<geode::modifier::ModifyDerive<MyLevelSearchLayer, LevelSearchLayer> >&)::{lambda()#1}, std::__ndk1::allocator<MyLevelSearchLayer::onModify<geode::modifier::ModifyBase<geode::modifier::ModifyDerive<MyLevelSearchLayer, LevelSearchLayer> > >(geode::modifier::ModifyBase<geode::modifier::ModifyDerive<MyLevelSearchLayer, LevelSearchLayer> >&)::{lambda()#1}>, void ()>::~__func()
PUBLIC be388 0 std::__ndk1::__function::__func<MyLevelSearchLayer::onModify<geode::modifier::ModifyBase<geode::modifier::ModifyDerive<MyLevelSearchLayer, LevelSearchLayer> > >(geode::modifier::ModifyBase<geode::modifier::ModifyDerive<MyLevelSearchLayer, LevelSearchLayer> >&)::{lambda()#1}, std::__ndk1::allocator<MyLevelSearchLayer::onModify<geode::modifier::ModifyBase<geode::modifier::ModifyDerive<MyLevelSearchLayer, LevelSearchLayer> > >(geode::modifier::ModifyBase<geode::modifier::ModifyDerive<MyLevelSearchLayer, LevelSearchLayer> >&)::{lambda()#1}>, void ()>::__clone() const
PUBLIC be3bc 0 std::__ndk1::__function::__func<MyLevelSearchLayer::onModify<geode::modifier::ModifyBase<geode::modifier::ModifyDerive<MyLevelSearchLayer, LevelSearchLayer> > >(geode::modifier::ModifyBase<geode::modifier::ModifyDerive<MyLevelSearchLayer, LevelSearchLayer> >&)::{lambda()#1}, std::__ndk1::allocator<MyLevelSearchLayer::onModify<geode::modifier::ModifyBase<geode::modifier::ModifyDerive<MyLevelSearchLayer, LevelSearchLayer> > >(geode::modifier::ModifyBase<geode::modifier::ModifyDerive<MyLevelSearchLayer, LevelSearchLayer> >&)::{lambda()#1}>, void ()>::__clone(std::__ndk1::__function::__base<void ()>*) const
PUBLIC be3d0 0 std::__ndk1::__function::__func<MyLevelSearchLayer::onModify<geode::modifier::ModifyBase<geode::modifier::ModifyDerive<MyLevelSearchLayer, LevelSearchLayer> > >(geode::modifier::ModifyBase<geode::modifier::ModifyDerive<MyLevelSearchLayer, LevelSearchLayer> >&)::{lambda()#1}, std::__ndk1::allocator<MyLevelSearchLayer::onModify<geode::modifier::ModifyBase<geode::modifier::ModifyDerive<MyLevelSearchLayer, LevelSearchLayer> > >(geode::modifier::ModifyBase<geode::modifier::ModifyDerive<MyLevelSearchLayer, LevelSearchLayer> >&)::{lambda()#1}>, void ()>::destroy()
PUBLIC be3d4 0 std::__ndk1::__function::__func<MyLevelSearchLayer::onModify<geode::modifier::ModifyBase<geode::modifier::ModifyDerive<MyLevelSearchLayer, LevelSearchLayer> > >(geode::modifier::ModifyBase<geode::modifier::ModifyDerive<MyLevelSearchLayer, LevelSearchLayer> >&)::{lambda()#1}, std::__ndk1::allocator<MyLevelSearchLayer::onModify<geode::modifier::ModifyBase<geode::modifier::ModifyDerive<MyLevelSearchLayer, LevelSearchLayer> > >(geode::modifier::ModifyBase<geode::modifier::ModifyDerive<MyLevelSearchLayer, LevelSearchLayer> >&)::{lambda()#1}>, void ()>::destroy_deallocate()
PUBLIC be3d8 0 std::__ndk1::__function::__func<MyLevelSearchLayer::onModify<geode::modifier::ModifyBase<geode::modifier::ModifyDerive<MyLevelSearchLayer, LevelSearchLayer> > >(geode::modifier::ModifyBase<geode::modifier::ModifyDerive<MyLevelSearchLayer, LevelSearchLayer> >&)::{lambda()#1}, std::__ndk1::allocator<MyLevelSearchLayer::onModify<geode::modifier::ModifyBase<geode::modifier::ModifyDerive<MyLevelSearchLayer, LevelSearchLayer> > >(geode::modifier::ModifyBase<geode::modifier::ModifyDerive<MyLevelSearchLayer, LevelSearchLayer> >&)::{lambda()#1}>, void ()>::operator()()
PUBLIC be934 0 std::__ndk1::__function::__func<MyLevelSearchLayer::onModify<geode::modifier::ModifyBase<geode::modifier::ModifyDerive<MyLevelSearchLayer, LevelSearchLayer> > >(geode::modifier::ModifyBase<geode::modifier::ModifyDerive<MyLevelSearchLayer, LevelSearchLayer> >&)::{lambda()#1}, std::__ndk1::allocator<MyLevelSearchLayer::onModify<geode::modifier::ModifyBase<geode::modifier::ModifyDerive<MyLevelSearchLayer, LevelSearchLayer> > >(geode::modifier::ModifyBase<geode::modifier::ModifyDerive<MyLevelSearchLayer, LevelSearchLayer> >&)::{lambda()#1}>, void ()>::target(std::type_info const&) const
PUBLIC be950 0 std::__ndk1::__function::__func<MyLevelSearchLayer::onModify<geode::modifier::ModifyBase<geode::modifier::ModifyDerive<MyLevelSearchLayer, LevelSearchLayer> > >(geode::modifier::ModifyBase<geode::modifier::ModifyDerive<MyLevelSearchLayer, LevelSearchLayer> >&)::{lambda()#1}, std::__ndk1::allocator<MyLevelSearchLayer::onModify<geode::modifier::ModifyBase<geode::modifier::ModifyDerive<MyLevelSearchLayer, LevelSearchLayer> > >(geode::modifier::ModifyBase<geode::modifier::ModifyDerive<MyLevelSearchLayer, LevelSearchLayer> >&)::{lambda()#1}>, void ()>::target_type() const
PUBLIC be95c 0 geode::modifier::ModifyBase<geode::modifier::ModifyDerive<MyLevelSearchLayer, LevelSearchLayer> >::setHookPriorityBefore(std::__ndk1::basic_string_view<char, std::__ndk1::char_traits<char> >, geode::Mod*)::{lambda(geode::ModStateEvent*)#1}::operator()(geode::ModStateEvent*) const
PUBLIC bea6c 0 std::__ndk1::__function::__func<geode::modifier::ModifyBase<geode::modifier::ModifyDerive<MyLevelSearchLayer, LevelSearchLayer> >::setHookPriorityBefore(std::__ndk1::basic_string_view<char, std::__ndk1::char_traits<char> >, geode::Mod*)::{lambda(geode::ModStateEvent*)#1}, std::__ndk1::allocator<geode::modifier::ModifyBase<geode::modifier::ModifyDerive<MyLevelSearchLayer, LevelSearchLayer> >::setHookPriorityBefore(std::__ndk1::basic_string_view<char, std::__ndk1::char_traits<char> >, geode::Mod*)::{lambda(geode::ModStateEvent*)#1}>, void (geode::ModStateEvent*)>::~__func()
PUBLIC bea70 0 std::__ndk1::__function::__func<geode::modifier::ModifyBase<geode::modifier::ModifyDerive<MyLevelSearchLayer, LevelSearchLayer> >::setHookPriorityBefore(std::__ndk1::basic_string_view<char, std::__ndk1::char_traits<char> >, geode::Mod*)::{lambda(geode::ModStateEvent*)#1}, std::__ndk1::allocator<geode::modifier::ModifyBase<geode::modifier::ModifyDerive<MyLevelSearchLayer, LevelSearchLayer> >::setHookPriorityBefore(std::__ndk1::basic_string_view<char, std::__ndk1::char_traits<char> >, geode::Mod*)::{lambda(geode::ModStateEvent*)#1}>, void (geode::ModStateEvent*)>::__clone() const
PUBLIC beaa8 0 std::__ndk1::__function::__func<geode::modifier::ModifyBase<geode::modifier::ModifyDerive<MyLevelSearchLayer, LevelSearchLayer> >::setHookPriorityBefore(std::__ndk1::basic_string_view<char, std::__ndk1::char_traits<char> >, geode::Mod*)::{lambda(geode::ModStateEvent*)#1}, std::__ndk1::allocator<geode::modifier::ModifyBase<geode::modifier::ModifyDerive<MyLevelSearchLayer, LevelSearchLayer> >::setHookPriorityBefore(std::__ndk1::basic_string_view<char, std::__ndk1::char_traits<char> >, geode::Mod*)::{lambda(geode::ModStateEvent*)#1}>, void (geode::ModStateEvent*)>::__clone(std::__ndk1::__function::__base<void (geode::ModStateEvent*)>*) const
PUBLIC beac0 0 std::__ndk1::__function::__func<geode::modifier::ModifyBase<geode::modifier::ModifyDerive<MyLevelSearchLayer, LevelSearchLayer> >::setHookPriorityBefore(std::__ndk1::basic_string_view<char, std::__ndk1::char_traits<char> >, geode::Mod*)::{lambda(geode::ModStateEvent*)#1}, std::__ndk1::allocator<geode::modifier::ModifyBase<geode::modifier::ModifyDerive<MyLevelSearchLayer, LevelSearchLayer> >::setHookPriorityBefore(std::__ndk1::basic_string_view<char, std::__ndk1::char_traits<char> >, geode::Mod*)::{lambda(geode::ModStateEvent*)#1}>, void (geode::ModStateEvent*)>::destroy()
PUBLIC beac4 0 std::__ndk1::__function::__func<geode::modifier::ModifyBase<geode::modifier::ModifyDerive<MyLevelSearchLayer, LevelSearchLayer> >::setHookPriorityBefore(std::__ndk1::basic_string_view<char, std::__ndk1::char_traits<char> >, geode::Mod*)::{lambda(geode::ModStateEvent*)#1}, std::__ndk1::allocator<geode::modifier::ModifyBase<geode::modifier::ModifyDerive<MyLevelSearchLayer, LevelSearchLayer> >::setHookPriorityBefore(std::__ndk1::basic_string_view<char, std::__ndk1::char_traits<char> >, geode::Mod*)::{lambda(geode::ModStateEvent*)#1}>, void (geode::ModStateEvent*)>::destroy_deallocate()
PUBLIC beac8 0 std::__ndk1::__function::__func<geode::modifier::ModifyBase<geode::modifier::ModifyDerive<MyLevelSearchLayer, LevelSearchLayer> >::setHookPriorityBefore(std::__ndk1::basic_string_view<char, std::__ndk1::char_traits<char> >, geode::Mod*)::{lambda(geode::ModStateEvent*)#1}, std::__ndk1::allocator<geode::modifier::ModifyBase<geode::modifier::ModifyDerive<MyLevelSearchLayer, LevelSearchLayer> >::setHookPriorityBefore(std::__ndk1::basic_string_view<char, std::__ndk1::char_traits<char> >, geode::Mod*)::{lambda(geode::ModStateEvent*)#1}>, void (geode::ModStateEvent*)>::operator()(geode::ModStateEvent*&&)
PUBLIC bead0 0 std::__ndk1::__function::__func<geode::modifier::ModifyBase<geode::modifier::ModifyDerive<MyLevelSearchLayer, LevelSearchLayer> >::setHookPriorityBefore(std::__ndk1::basic_string_view<char, std::__ndk1::char_traits<char> >, geode::Mod*)::{lambda(geode::ModStateEvent*)#1}, std::__ndk1::allocator<geode::modifier::ModifyBase<geode::modifier::ModifyDerive<MyLevelSearchLayer, LevelSearchLayer> >::setHookPriorityBefore(std::__ndk1::basic_string_view<char, std::__ndk1::char_traits<char> >, geode::Mod*)::{lambda(geode::ModStateEvent*)#1}>, void (geode::ModStateEvent*)>::target(std::type_info const&) const
PUBLIC beaec 0 std::__ndk1::__function::__func<geode::modifier::ModifyBase<geode::modifier::ModifyDerive<MyLevelSearchLayer, LevelSearchLayer> >::setHookPriorityBefore(std::__ndk1::basic_string_view<char, std::__ndk1::char_traits<char> >, geode::Mod*)::{lambda(geode::ModStateEvent*)#1}, std::__ndk1::allocator<geode::modifier::ModifyBase<geode::modifier::ModifyDerive<MyLevelSearchLayer, LevelSearchLayer> >::setHookPriorityBefore(std::__ndk1::basic_string_view<char, std::__ndk1::char_traits<char> >, geode::Mod*)::{lambda(geode::ModStateEvent*)#1}>, void (geode::ModStateEvent*)>::target_type() const
PUBLIC beaf8 0 geode::modifier::AsStaticFunction_init<MyLevelSearchLayer, bool (MyLevelSearchLayer::*)(int)>::Impl<bool (MyLevelSearchLayer::*)(int)>::function(MyLevelSearchLayer*, int)
PUBLIC beea0 0 geode::modifier::ModifyDerive<MyLoadingLayer, LoadingLayer>::apply()
PUBLIC bf490 0 geode::modifier::ModifyBase<geode::modifier::ModifyDerive<MyLoadingLayer, LoadingLayer> >::apply()
PUBLIC bf494 0 geode::modifier::AsStaticFunction_init<MyLoadingLayer, bool (MyLoadingLayer::*)(bool)>::Impl<bool (MyLoadingLayer::*)(bool)>::function(MyLoadingLayer*, bool)
PUBLIC bf7bc 0 geode::modifier::AsStaticFunction_loadAssets<MyLoadingLayer, void (MyLoadingLayer::*)()>::Impl<void (MyLoadingLayer::*)()>::function(MyLoadingLayer*)
PUBLIC bf940 0 std::__ndk1::__function::__func<MyLoadingLayer::loadAssets()::{lambda()#1}, std::__ndk1::allocator<MyLoadingLayer::loadAssets()::{lambda()#1}>, void ()>::~__func()
PUBLIC bf944 0 std::__ndk1::__function::__func<MyLoadingLayer::loadAssets()::{lambda()#1}, std::__ndk1::allocator<MyLoadingLayer::loadAssets()::{lambda()#1}>, void ()>::__clone() const
PUBLIC bf968 0 std::__ndk1::__function::__func<MyLoadingLayer::loadAssets()::{lambda()#1}, std::__ndk1::allocator<MyLoadingLayer::loadAssets()::{lambda()#1}>, void ()>::__clone(std::__ndk1::__function::__base<void ()>*) const
PUBLIC bf978 0 std::__ndk1::__function::__func<MyLoadingLayer::loadAssets()::{lambda()#1}, std::__ndk1::allocator<MyLoadingLayer::loadAssets()::{lambda()#1}>, void ()>::destroy()
PUBLIC bf97c 0 std::__ndk1::__function::__func<MyLoadingLayer::loadAssets()::{lambda()#1}, std::__ndk1::allocator<MyLoadingLayer::loadAssets()::{lambda()#1}>, void ()>::destroy_deallocate()
PUBLIC bf980 0 std::__ndk1::__function::__func<MyLoadingLayer::loadAssets()::{lambda()#1}, std::__ndk1::allocator<MyLoadingLayer::loadAssets()::{lambda()#1}>, void ()>::operator()()
PUBLIC c155c 0 std::__ndk1::__function::__func<MyLoadingLayer::loadAssets()::{lambda()#1}, std::__ndk1::allocator<MyLoadingLayer::loadAssets()::{lambda()#1}>, void ()>::target(std::type_info const&) const
PUBLIC c1578 0 std::__ndk1::__function::__func<MyLoadingLayer::loadAssets()::{lambda()#1}, std::__ndk1::allocator<MyLoadingLayer::loadAssets()::{lambda()#1}>, void ()>::target_type() const
PUBLIC c1584 0 Utils::qualityToNormal(std::__ndk1::basic_string<char, std::__ndk1::char_traits<char>, std::__ndk1::allocator<char> >)
PUBLIC c1a3c 0 std::__ndk1::__hash_table<std::__ndk1::__hash_value_type<std::__ndk1::basic_string<char, std::__ndk1::char_traits<char>, std::__ndk1::allocator<char> >, bool>, std::__ndk1::__unordered_map_hasher<std::__ndk1::basic_string<char, std::__ndk1::char_traits<char>, std::__ndk1::allocator<char> >, std::__ndk1::__hash_value_type<std::__ndk1::basic_string<char, std::__ndk1::char_traits<char>, std::__ndk1::allocator<char> >, bool>, std::__ndk1::hash<std::__ndk1::basic_string<char, std::__ndk1::char_traits<char>, std::__ndk1::allocator<char> > >, std::__ndk1::equal_to<std::__ndk1::basic_string<char, std::__ndk1::char_traits<char>, std::__ndk1::allocator<char> > >, true>, std::__ndk1::__unordered_map_equal<std::__ndk1::basic_string<char, std::__ndk1::char_traits<char>, std::__ndk1::allocator<char> >, std::__ndk1::__hash_value_type<std::__ndk1::basic_string<char, std::__ndk1::char_traits<char>, std::__ndk1::allocator<char> >, bool>, std::__ndk1::equal_to<std::__ndk1::basic_string<char, std::__ndk1::char_traits<char>, std::__ndk1::allocator<char> > >, std::__ndk1::hash<std::__ndk1::basic_string<char, std::__ndk1::char_traits<char>, std::__ndk1::allocator<char> > >, true>, std::__ndk1::allocator<std::__ndk1::__hash_value_type<std::__ndk1::basic_string<char, std::__ndk1::char_traits<char>, std::__ndk1::allocator<char> >, bool> > >::__emplace_unique_key_args<std::__ndk1::basic_string<char, std::__ndk1::char_traits<char>, std::__ndk1::allocator<char> >, std::__ndk1::piecewise_construct_t const&, std::__ndk1::tuple<std::__ndk1::basic_string<char, std::__ndk1::char_traits<char>, std::__ndk1::allocator<char> >&&>, std::__ndk1::tuple<> >(std::__ndk1::basic_string<char, std::__ndk1::char_traits<char>, std::__ndk1::allocator<char> > const&, std::__ndk1::piecewise_construct_t const&, std::__ndk1::tuple<std::__ndk1::basic_string<char, std::__ndk1::char_traits<char>, std::__ndk1::allocator<char> >&&>, std::__ndk1::tuple<>)
PUBLIC c204c 0 std::__ndk1::unique_ptr<std::__ndk1::__hash_node<std::__ndk1::__hash_value_type<std::__ndk1::basic_string<char, std::__ndk1::char_traits<char>, std::__ndk1::allocator<char> >, bool>, void*>, std::__ndk1::__hash_node_destructor<std::__ndk1::allocator<std::__ndk1::__hash_node<std::__ndk1::__hash_value_type<std::__ndk1::basic_string<char, std::__ndk1::char_traits<char>, std::__ndk1::allocator<char> >, bool>, void*> > > >::~unique_ptr[abi:ne180000]()
PUBLIC c209c 0 Config::loadIntoJson(geode::texture_loader::Pack)
PUBLIC c2468 0 geode::texture_loader::getAvailablePacks()
PUBLIC c25a4 0 Config::loadSettings(geode::texture_loader::Pack, matjson::Value)
PUBLIC m c2f2c 0 std::__ndk1::basic_ifstream<char, std::__ndk1::char_traits<char> >::~basic_ifstream()
PUBLIC c2f7c 0 std::__ndk1::unique_ptr<std::__ndk1::__hash_node<std::__ndk1::__hash_value_type<std::__ndk1::basic_string<char, std::__ndk1::char_traits<char>, std::__ndk1::allocator<char> >, std::__ndk1::vector<matjson::Value, std::__ndk1::allocator<matjson::Value> > >, void*>, std::__ndk1::__hash_node_destructor<std::__ndk1::allocator<std::__ndk1::__hash_node<std::__ndk1::__hash_value_type<std::__ndk1::basic_string<char, std::__ndk1::char_traits<char>, std::__ndk1::allocator<char> >, std::__ndk1::vector<matjson::Value, std::__ndk1::allocator<matjson::Value> > >, void*> > > >::~unique_ptr[abi:ne180000]()
PUBLIC c300c 0 geode::modifier::ModifyDerive<MyMenuGameLayer, MenuGameLayer>::apply()
PUBLIC c3364 0 geode::modifier::ModifyBase<geode::modifier::ModifyDerive<MyMenuGameLayer, MenuGameLayer> >::apply()
PUBLIC c3368 0 std::__ndk1::__function::__func<MyMenuGameLayer::onModify<geode::modifier::ModifyBase<geode::modifier::ModifyDerive<MyMenuGameLayer, MenuGameLayer> > >(geode::modifier::ModifyBase<geode::modifier::ModifyDerive<MyMenuGameLayer, MenuGameLayer> >&)::{lambda()#1}, std::__ndk1::allocator<MyMenuGameLayer::onModify<geode::modifier::ModifyBase<geode::modifier::ModifyDerive<MyMenuGameLayer, MenuGameLayer> > >(geode::modifier::ModifyBase<geode::modifier::ModifyDerive<MyMenuGameLayer, MenuGameLayer> >&)::{lambda()#1}>, void ()>::~__func()
PUBLIC c336c 0 std::__ndk1::__function::__func<MyMenuGameLayer::onModify<geode::modifier::ModifyBase<geode::modifier::ModifyDerive<MyMenuGameLayer, MenuGameLayer> > >(geode::modifier::ModifyBase<geode::modifier::ModifyDerive<MyMenuGameLayer, MenuGameLayer> >&)::{lambda()#1}, std::__ndk1::allocator<MyMenuGameLayer::onModify<geode::modifier::ModifyBase<geode::modifier::ModifyDerive<MyMenuGameLayer, MenuGameLayer> > >(geode::modifier::ModifyBase<geode::modifier::ModifyDerive<MyMenuGameLayer, MenuGameLayer> >&)::{lambda()#1}>, void ()>::__clone() const
PUBLIC c33a0 0 std::__ndk1::__function::__func<MyMenuGameLayer::onModify<geode::modifier::ModifyBase<geode::modifier::ModifyDerive<MyMenuGameLayer, MenuGameLayer> > >(geode::modifier::ModifyBase<geode::modifier::ModifyDerive<MyMenuGameLayer, MenuGameLayer> >&)::{lambda()#1}, std::__ndk1::allocator<MyMenuGameLayer::onModify<geode::modifier::ModifyBase<geode::modifier::ModifyDerive<MyMenuGameLayer, MenuGameLayer> > >(geode::modifier::ModifyBase<geode::modifier::ModifyDerive<MyMenuGameLayer, MenuGameLayer> >&)::{lambda()#1}>, void ()>::__clone(std::__ndk1::__function::__base<void ()>*) const
PUBLIC c33b4 0 std::__ndk1::__function::__func<MyMenuGameLayer::onModify<geode::modifier::ModifyBase<geode::modifier::ModifyDerive<MyMenuGameLayer, MenuGameLayer> > >(geode::modifier::ModifyBase<geode::modifier::ModifyDerive<MyMenuGameLayer, MenuGameLayer> >&)::{lambda()#1}, std::__ndk1::allocator<MyMenuGameLayer::onModify<geode::modifier::ModifyBase<geode::modifier::ModifyDerive<MyMenuGameLayer, MenuGameLayer> > >(geode::modifier::ModifyBase<geode::modifier::ModifyDerive<MyMenuGameLayer, MenuGameLayer> >&)::{lambda()#1}>, void ()>::destroy()
PUBLIC c33b8 0 std::__ndk1::__function::__func<MyMenuGameLayer::onModify<geode::modifier::ModifyBase<geode::modifier::ModifyDerive<MyMenuGameLayer, MenuGameLayer> > >(geode::modifier::ModifyBase<geode::modifier::ModifyDerive<MyMenuGameLayer, MenuGameLayer> >&)::{lambda()#1}, std::__ndk1::allocator<MyMenuGameLayer::onModify<geode::modifier::ModifyBase<geode::modifier::ModifyDerive<MyMenuGameLayer, MenuGameLayer> > >(geode::modifier::ModifyBase<geode::modifier::ModifyDerive<MyMenuGameLayer, MenuGameLayer> >&)::{lambda()#1}>, void ()>::destroy_deallocate()
PUBLIC c33bc 0 std::__ndk1::__function::__func<MyMenuGameLayer::onModify<geode::modifier::ModifyBase<geode::modifier::ModifyDerive<MyMenuGameLayer, MenuGameLayer> > >(geode::modifier::ModifyBase<geode::modifier::ModifyDerive<MyMenuGameLayer, MenuGameLayer> >&)::{lambda()#1}, std::__ndk1::allocator<MyMenuGameLayer::onModify<geode::modifier::ModifyBase<geode::modifier::ModifyDerive<MyMenuGameLayer, MenuGameLayer> > >(geode::modifier::ModifyBase<geode::modifier::ModifyDerive<MyMenuGameLayer, MenuGameLayer> >&)::{lambda()#1}>, void ()>::operator()()
PUBLIC c3918 0 std::__ndk1::__function::__func<MyMenuGameLayer::onModify<geode::modifier::ModifyBase<geode::modifier::ModifyDerive<MyMenuGameLayer, MenuGameLayer> > >(geode::modifier::ModifyBase<geode::modifier::ModifyDerive<MyMenuGameLayer, MenuGameLayer> >&)::{lambda()#1}, std::__ndk1::allocator<MyMenuGameLayer::onModify<geode::modifier::ModifyBase<geode::modifier::ModifyDerive<MyMenuGameLayer, MenuGameLayer> > >(geode::modifier::ModifyBase<geode::modifier::ModifyDerive<MyMenuGameLayer, MenuGameLayer> >&)::{lambda()#1}>, void ()>::target(std::type_info const&) const
PUBLIC c3934 0 std::__ndk1::__function::__func<MyMenuGameLayer::onModify<geode::modifier::ModifyBase<geode::modifier::ModifyDerive<MyMenuGameLayer, MenuGameLayer> > >(geode::modifier::ModifyBase<geode::modifier::ModifyDerive<MyMenuGameLayer, MenuGameLayer> >&)::{lambda()#1}, std::__ndk1::allocator<MyMenuGameLayer::onModify<geode::modifier::ModifyBase<geode::modifier::ModifyDerive<MyMenuGameLayer, MenuGameLayer> > >(geode::modifier::ModifyBase<geode::modifier::ModifyDerive<MyMenuGameLayer, MenuGameLayer> >&)::{lambda()#1}>, void ()>::target_type() const
PUBLIC c3940 0 geode::modifier::ModifyBase<geode::modifier::ModifyDerive<MyMenuGameLayer, MenuGameLayer> >::setHookPriorityBefore(std::__ndk1::basic_string_view<char, std::__ndk1::char_traits<char> >, geode::Mod*)::{lambda(geode::ModStateEvent*)#1}::operator()(geode::ModStateEvent*) const
PUBLIC c3a50 0 std::__ndk1::__function::__func<geode::modifier::ModifyBase<geode::modifier::ModifyDerive<MyMenuGameLayer, MenuGameLayer> >::setHookPriorityBefore(std::__ndk1::basic_string_view<char, std::__ndk1::char_traits<char> >, geode::Mod*)::{lambda(geode::ModStateEvent*)#1}, std::__ndk1::allocator<geode::modifier::ModifyBase<geode::modifier::ModifyDerive<MyMenuGameLayer, MenuGameLayer> >::setHookPriorityBefore(std::__ndk1::basic_string_view<char, std::__ndk1::char_traits<char> >, geode::Mod*)::{lambda(geode::ModStateEvent*)#1}>, void (geode::ModStateEvent*)>::~__func()
PUBLIC c3a54 0 std::__ndk1::__function::__func<geode::modifier::ModifyBase<geode::modifier::ModifyDerive<MyMenuGameLayer, MenuGameLayer> >::setHookPriorityBefore(std::__ndk1::basic_string_view<char, std::__ndk1::char_traits<char> >, geode::Mod*)::{lambda(geode::ModStateEvent*)#1}, std::__ndk1::allocator<geode::modifier::ModifyBase<geode::modifier::ModifyDerive<MyMenuGameLayer, MenuGameLayer> >::setHookPriorityBefore(std::__ndk1::basic_string_view<char, std::__ndk1::char_traits<char> >, geode::Mod*)::{lambda(geode::ModStateEvent*)#1}>, void (geode::ModStateEvent*)>::__clone() const
PUBLIC c3a8c 0 std::__ndk1::__function::__func<geode::modifier::ModifyBase<geode::modifier::ModifyDerive<MyMenuGameLayer, MenuGameLayer> >::setHookPriorityBefore(std::__ndk1::basic_string_view<char, std::__ndk1::char_traits<char> >, geode::Mod*)::{lambda(geode::ModStateEvent*)#1}, std::__ndk1::allocator<geode::modifier::ModifyBase<geode::modifier::ModifyDerive<MyMenuGameLayer, MenuGameLayer> >::setHookPriorityBefore(std::__ndk1::basic_string_view<char, std::__ndk1::char_traits<char> >, geode::Mod*)::{lambda(geode::ModStateEvent*)#1}>, void (geode::ModStateEvent*)>::__clone(std::__ndk1::__function::__base<void (geode::ModStateEvent*)>*) const
PUBLIC c3aa4 0 std::__ndk1::__function::__func<geode::modifier::ModifyBase<geode::modifier::ModifyDerive<MyMenuGameLayer, MenuGameLayer> >::setHookPriorityBefore(std::__ndk1::basic_string_view<char, std::__ndk1::char_traits<char> >, geode::Mod*)::{lambda(geode::ModStateEvent*)#1}, std::__ndk1::allocator<geode::modifier::ModifyBase<geode::modifier::ModifyDerive<MyMenuGameLayer, MenuGameLayer> >::setHookPriorityBefore(std::__ndk1::basic_string_view<char, std::__ndk1::char_traits<char> >, geode::Mod*)::{lambda(geode::ModStateEvent*)#1}>, void (geode::ModStateEvent*)>::destroy()
PUBLIC c3aa8 0 std::__ndk1::__function::__func<geode::modifier::ModifyBase<geode::modifier::ModifyDerive<MyMenuGameLayer, MenuGameLayer> >::setHookPriorityBefore(std::__ndk1::basic_string_view<char, std::__ndk1::char_traits<char> >, geode::Mod*)::{lambda(geode::ModStateEvent*)#1}, std::__ndk1::allocator<geode::modifier::ModifyBase<geode::modifier::ModifyDerive<MyMenuGameLayer, MenuGameLayer> >::setHookPriorityBefore(std::__ndk1::basic_string_view<char, std::__ndk1::char_traits<char> >, geode::Mod*)::{lambda(geode::ModStateEvent*)#1}>, void (geode::ModStateEvent*)>::destroy_deallocate()
PUBLIC c3aac 0 std::__ndk1::__function::__func<geode::modifier::ModifyBase<geode::modifier::ModifyDerive<MyMenuGameLayer, MenuGameLayer> >::setHookPriorityBefore(std::__ndk1::basic_string_view<char, std::__ndk1::char_traits<char> >, geode::Mod*)::{lambda(geode::ModStateEvent*)#1}, std::__ndk1::allocator<geode::modifier::ModifyBase<geode::modifier::ModifyDerive<MyMenuGameLayer, MenuGameLayer> >::setHookPriorityBefore(std::__ndk1::basic_string_view<char, std::__ndk1::char_traits<char> >, geode::Mod*)::{lambda(geode::ModStateEvent*)#1}>, void (geode::ModStateEvent*)>::operator()(geode::ModStateEvent*&&)
PUBLIC c3ab4 0 std::__ndk1::__function::__func<geode::modifier::ModifyBase<geode::modifier::ModifyDerive<MyMenuGameLayer, MenuGameLayer> >::setHookPriorityBefore(std::__ndk1::basic_string_view<char, std::__ndk1::char_traits<char> >, geode::Mod*)::{lambda(geode::ModStateEvent*)#1}, std::__ndk1::allocator<geode::modifier::ModifyBase<geode::modifier::ModifyDerive<MyMenuGameLayer, MenuGameLayer> >::setHookPriorityBefore(std::__ndk1::basic_string_view<char, std::__ndk1::char_traits<char> >, geode::Mod*)::{lambda(geode::ModStateEvent*)#1}>, void (geode::ModStateEvent*)>::target(std::type_info const&) const
PUBLIC c3ad0 0 std::__ndk1::__function::__func<geode::modifier::ModifyBase<geode::modifier::ModifyDerive<MyMenuGameLayer, MenuGameLayer> >::setHookPriorityBefore(std::__ndk1::basic_string_view<char, std::__ndk1::char_traits<char> >, geode::Mod*)::{lambda(geode::ModStateEvent*)#1}, std::__ndk1::allocator<geode::modifier::ModifyBase<geode::modifier::ModifyDerive<MyMenuGameLayer, MenuGameLayer> >::setHookPriorityBefore(std::__ndk1::basic_string_view<char, std::__ndk1::char_traits<char> >, geode::Mod*)::{lambda(geode::ModStateEvent*)#1}>, void (geode::ModStateEvent*)>::target_type() const
PUBLIC c3adc 0 geode::modifier::AsStaticFunction_update<MyMenuGameLayer, void (MyMenuGameLayer::*)(float)>::Impl<void (MyMenuGameLayer::*)(float)>::function(MyMenuGameLayer*, float)
PUBLIC c3e8c 0 geode::addresser::Addresser::addressOfVirtual<void, MenuGameLayer, float>(void (MenuGameLayer::*)(float))
PUBLIC c3f34 0 MenuGameLayer::MenuGameLayer(geode::ZeroConstructorType)
PUBLIC c3fcc 0 MyMenuGameLayer::updateGroundSprite(cocos2d::CCSprite*)
PUBLIC c4200 0 geode::modifier::ModifyDerive<MyMenuLayer, MenuLayer>::apply()
PUBLIC c4ac8 0 geode::modifier::ModifyBase<geode::modifier::ModifyDerive<MyMenuLayer, MenuLayer> >::apply()
PUBLIC c4acc 0 std::__ndk1::__function::__func<MyMenuLayer::onModify<geode::modifier::ModifyBase<geode::modifier::ModifyDerive<MyMenuLayer, MenuLayer> > >(geode::modifier::ModifyBase<geode::modifier::ModifyDerive<MyMenuLayer, MenuLayer> >&)::{lambda()#1}, std::__ndk1::allocator<MyMenuLayer::onModify<geode::modifier::ModifyBase<geode::modifier::ModifyDerive<MyMenuLayer, MenuLayer> > >(geode::modifier::ModifyBase<geode::modifier::ModifyDerive<MyMenuLayer, MenuLayer> >&)::{lambda()#1}>, void ()>::~__func()
PUBLIC c4ad0 0 std::__ndk1::__function::__func<MyMenuLayer::onModify<geode::modifier::ModifyBase<geode::modifier::ModifyDerive<MyMenuLayer, MenuLayer> > >(geode::modifier::ModifyBase<geode::modifier::ModifyDerive<MyMenuLayer, MenuLayer> >&)::{lambda()#1}, std::__ndk1::allocator<MyMenuLayer::onModify<geode::modifier::ModifyBase<geode::modifier::ModifyDerive<MyMenuLayer, MenuLayer> > >(geode::modifier::ModifyBase<geode::modifier::ModifyDerive<MyMenuLayer, MenuLayer> >&)::{lambda()#1}>, void ()>::__clone() const
PUBLIC c4b04 0 std::__ndk1::__function::__func<MyMenuLayer::onModify<geode::modifier::ModifyBase<geode::modifier::ModifyDerive<MyMenuLayer, MenuLayer> > >(geode::modifier::ModifyBase<geode::modifier::ModifyDerive<MyMenuLayer, MenuLayer> >&)::{lambda()#1}, std::__ndk1::allocator<MyMenuLayer::onModify<geode::modifier::ModifyBase<geode::modifier::ModifyDerive<MyMenuLayer, MenuLayer> > >(geode::modifier::ModifyBase<geode::modifier::ModifyDerive<MyMenuLayer, MenuLayer> >&)::{lambda()#1}>, void ()>::__clone(std::__ndk1::__function::__base<void ()>*) const
PUBLIC c4b18 0 std::__ndk1::__function::__func<MyMenuLayer::onModify<geode::modifier::ModifyBase<geode::modifier::ModifyDerive<MyMenuLayer, MenuLayer> > >(geode::modifier::ModifyBase<geode::modifier::ModifyDerive<MyMenuLayer, MenuLayer> >&)::{lambda()#1}, std::__ndk1::allocator<MyMenuLayer::onModify<geode::modifier::ModifyBase<geode::modifier::ModifyDerive<MyMenuLayer, MenuLayer> > >(geode::modifier::ModifyBase<geode::modifier::ModifyDerive<MyMenuLayer, MenuLayer> >&)::{lambda()#1}>, void ()>::destroy()
PUBLIC c4b1c 0 std::__ndk1::__function::__func<MyMenuLayer::onModify<geode::modifier::ModifyBase<geode::modifier::ModifyDerive<MyMenuLayer, MenuLayer> > >(geode::modifier::ModifyBase<geode::modifier::ModifyDerive<MyMenuLayer, MenuLayer> >&)::{lambda()#1}, std::__ndk1::allocator<MyMenuLayer::onModify<geode::modifier::ModifyBase<geode::modifier::ModifyDerive<MyMenuLayer, MenuLayer> > >(geode::modifier::ModifyBase<geode::modifier::ModifyDerive<MyMenuLayer, MenuLayer> >&)::{lambda()#1}>, void ()>::destroy_deallocate()
PUBLIC c4b20 0 std::__ndk1::__function::__func<MyMenuLayer::onModify<geode::modifier::ModifyBase<geode::modifier::ModifyDerive<MyMenuLayer, MenuLayer> > >(geode::modifier::ModifyBase<geode::modifier::ModifyDerive<MyMenuLayer, MenuLayer> >&)::{lambda()#1}, std::__ndk1::allocator<MyMenuLayer::onModify<geode::modifier::ModifyBase<geode::modifier::ModifyDerive<MyMenuLayer, MenuLayer> > >(geode::modifier::ModifyBase<geode::modifier::ModifyDerive<MyMenuLayer, MenuLayer> >&)::{lambda()#1}>, void ()>::operator()()
PUBLIC c5074 0 std::__ndk1::__function::__func<MyMenuLayer::onModify<geode::modifier::ModifyBase<geode::modifier::ModifyDerive<MyMenuLayer, MenuLayer> > >(geode::modifier::ModifyBase<geode::modifier::ModifyDerive<MyMenuLayer, MenuLayer> >&)::{lambda()#1}, std::__ndk1::allocator<MyMenuLayer::onModify<geode::modifier::ModifyBase<geode::modifier::ModifyDerive<MyMenuLayer, MenuLayer> > >(geode::modifier::ModifyBase<geode::modifier::ModifyDerive<MyMenuLayer, MenuLayer> >&)::{lambda()#1}>, void ()>::target(std::type_info const&) const
PUBLIC c5090 0 std::__ndk1::__function::__func<MyMenuLayer::onModify<geode::modifier::ModifyBase<geode::modifier::ModifyDerive<MyMenuLayer, MenuLayer> > >(geode::modifier::ModifyBase<geode::modifier::ModifyDerive<MyMenuLayer, MenuLayer> >&)::{lambda()#1}, std::__ndk1::allocator<MyMenuLayer::onModify<geode::modifier::ModifyBase<geode::modifier::ModifyDerive<MyMenuLayer, MenuLayer> > >(geode::modifier::ModifyBase<geode::modifier::ModifyDerive<MyMenuLayer, MenuLayer> >&)::{lambda()#1}>, void ()>::target_type() const
PUBLIC c509c 0 geode::modifier::ModifyBase<geode::modifier::ModifyDerive<MyMenuLayer, MenuLayer> >::setHookPriorityBefore(std::__ndk1::basic_string_view<char, std::__ndk1::char_traits<char> >, geode::Mod*)::{lambda(geode::ModStateEvent*)#1}::operator()(geode::ModStateEvent*) const
PUBLIC c51ac 0 std::__ndk1::__function::__func<geode::modifier::ModifyBase<geode::modifier::ModifyDerive<MyMenuLayer, MenuLayer> >::setHookPriorityBefore(std::__ndk1::basic_string_view<char, std::__ndk1::char_traits<char> >, geode::Mod*)::{lambda(geode::ModStateEvent*)#1}, std::__ndk1::allocator<geode::modifier::ModifyBase<geode::modifier::ModifyDerive<MyMenuLayer, MenuLayer> >::setHookPriorityBefore(std::__ndk1::basic_string_view<char, std::__ndk1::char_traits<char> >, geode::Mod*)::{lambda(geode::ModStateEvent*)#1}>, void (geode::ModStateEvent*)>::~__func()
PUBLIC c51b0 0 std::__ndk1::__function::__func<geode::modifier::ModifyBase<geode::modifier::ModifyDerive<MyMenuLayer, MenuLayer> >::setHookPriorityBefore(std::__ndk1::basic_string_view<char, std::__ndk1::char_traits<char> >, geode::Mod*)::{lambda(geode::ModStateEvent*)#1}, std::__ndk1::allocator<geode::modifier::ModifyBase<geode::modifier::ModifyDerive<MyMenuLayer, MenuLayer> >::setHookPriorityBefore(std::__ndk1::basic_string_view<char, std::__ndk1::char_traits<char> >, geode::Mod*)::{lambda(geode::ModStateEvent*)#1}>, void (geode::ModStateEvent*)>::__clone() const
PUBLIC c51e8 0 std::__ndk1::__function::__func<geode::modifier::ModifyBase<geode::modifier::ModifyDerive<MyMenuLayer, MenuLayer> >::setHookPriorityBefore(std::__ndk1::basic_string_view<char, std::__ndk1::char_traits<char> >, geode::Mod*)::{lambda(geode::ModStateEvent*)#1}, std::__ndk1::allocator<geode::modifier::ModifyBase<geode::modifier::ModifyDerive<MyMenuLayer, MenuLayer> >::setHookPriorityBefore(std::__ndk1::basic_string_view<char, std::__ndk1::char_traits<char> >, geode::Mod*)::{lambda(geode::ModStateEvent*)#1}>, void (geode::ModStateEvent*)>::__clone(std::__ndk1::__function::__base<void (geode::ModStateEvent*)>*) const
PUBLIC c5200 0 std::__ndk1::__function::__func<geode::modifier::ModifyBase<geode::modifier::ModifyDerive<MyMenuLayer, MenuLayer> >::setHookPriorityBefore(std::__ndk1::basic_string_view<char, std::__ndk1::char_traits<char> >, geode::Mod*)::{lambda(geode::ModStateEvent*)#1}, std::__ndk1::allocator<geode::modifier::ModifyBase<geode::modifier::ModifyDerive<MyMenuLayer, MenuLayer> >::setHookPriorityBefore(std::__ndk1::basic_string_view<char, std::__ndk1::char_traits<char> >, geode::Mod*)::{lambda(geode::ModStateEvent*)#1}>, void (geode::ModStateEvent*)>::destroy()
PUBLIC c5204 0 std::__ndk1::__function::__func<geode::modifier::ModifyBase<geode::modifier::ModifyDerive<MyMenuLayer, MenuLayer> >::setHookPriorityBefore(std::__ndk1::basic_string_view<char, std::__ndk1::char_traits<char> >, geode::Mod*)::{lambda(geode::ModStateEvent*)#1}, std::__ndk1::allocator<geode::modifier::ModifyBase<geode::modifier::ModifyDerive<MyMenuLayer, MenuLayer> >::setHookPriorityBefore(std::__ndk1::basic_string_view<char, std::__ndk1::char_traits<char> >, geode::Mod*)::{lambda(geode::ModStateEvent*)#1}>, void (geode::ModStateEvent*)>::destroy_deallocate()
PUBLIC c5208 0 std::__ndk1::__function::__func<geode::modifier::ModifyBase<geode::modifier::ModifyDerive<MyMenuLayer, MenuLayer> >::setHookPriorityBefore(std::__ndk1::basic_string_view<char, std::__ndk1::char_traits<char> >, geode::Mod*)::{lambda(geode::ModStateEvent*)#1}, std::__ndk1::allocator<geode::modifier::ModifyBase<geode::modifier::ModifyDerive<MyMenuLayer, MenuLayer> >::setHookPriorityBefore(std::__ndk1::basic_string_view<char, std::__ndk1::char_traits<char> >, geode::Mod*)::{lambda(geode::ModStateEvent*)#1}>, void (geode::ModStateEvent*)>::operator()(geode::ModStateEvent*&&)
PUBLIC c5210 0 std::__ndk1::__function::__func<geode::modifier::ModifyBase<geode::modifier::ModifyDerive<MyMenuLayer, MenuLayer> >::setHookPriorityBefore(std::__ndk1::basic_string_view<char, std::__ndk1::char_traits<char> >, geode::Mod*)::{lambda(geode::ModStateEvent*)#1}, std::__ndk1::allocator<geode::modifier::ModifyBase<geode::modifier::ModifyDerive<MyMenuLayer, MenuLayer> >::setHookPriorityBefore(std::__ndk1::basic_string_view<char, std::__ndk1::char_traits<char> >, geode::Mod*)::{lambda(geode::ModStateEvent*)#1}>, void (geode::ModStateEvent*)>::target(std::type_info const&) const
PUBLIC c522c 0 std::__ndk1::__function::__func<geode::modifier::ModifyBase<geode::modifier::ModifyDerive<MyMenuLayer, MenuLayer> >::setHookPriorityBefore(std::__ndk1::basic_string_view<char, std::__ndk1::char_traits<char> >, geode::Mod*)::{lambda(geode::ModStateEvent*)#1}, std::__ndk1::allocator<geode::modifier::ModifyBase<geode::modifier::ModifyDerive<MyMenuLayer, MenuLayer> >::setHookPriorityBefore(std::__ndk1::basic_string_view<char, std::__ndk1::char_traits<char> >, geode::Mod*)::{lambda(geode::ModStateEvent*)#1}>, void (geode::ModStateEvent*)>::target_type() const
PUBLIC c5238 0 geode::modifier::AsStaticFunction_init<MyMenuLayer, bool (MyMenuLayer::*)()>::Impl<bool (MyMenuLayer::*)()>::function(MyMenuLayer*)
PUBLIC c56b8 0 geode::Hook::create<void (*)(MyMenuLayer*, cocos2d::CCObject*)>(void*, void (*)(MyMenuLayer*, cocos2d::CCObject*), std::__ndk1::basic_string<char, std::__ndk1::char_traits<char>, std::__ndk1::allocator<char> > const&, tulip::hook::TulipConvention, tulip::hook::HookMetadata const&)
PUBLIC c583c 0 geode::modifier::AsStaticFunction_onCreator<MyMenuLayer, void (MyMenuLayer::*)(cocos2d::CCObject*)>::Impl<void (MyMenuLayer::*)(cocos2d::CCObject*)>::function(MyMenuLayer*, cocos2d::CCObject*)
PUBLIC c5970 0 geode::modifier::AsStaticFunction_onGarage<MyMenuLayer, void (MyMenuLayer::*)(cocos2d::CCObject*)>::Impl<void (MyMenuLayer::*)(cocos2d::CCObject*)>::function(MyMenuLayer*, cocos2d::CCObject*)
PUBLIC c5aa4 0 geode::modifier::AsStaticFunction_onPlay<MyMenuLayer, void (MyMenuLayer::*)(cocos2d::CCObject*)>::Impl<void (MyMenuLayer::*)(cocos2d::CCObject*)>::function(MyMenuLayer*, cocos2d::CCObject*)
PUBLIC c5bdc 0 geode::addresser::Addresser::addressOfVirtual<bool, MenuLayer, >(bool (MenuLayer::*)())
PUBLIC c5c84 0 MenuLayer::MenuLayer(geode::ZeroConstructorType)
PUBLIC c5d20 0 geode::modifier::ModifyDerive<MyGJChestSprite, GJChestSprite>::apply()
PUBLIC c60ec 0 geode::modifier::ModifyBase<geode::modifier::ModifyDerive<MyGJChestSprite, GJChestSprite> >::apply()
PUBLIC c60f0 0 std::__ndk1::__function::__func<MyGJChestSprite::onModify<geode::modifier::ModifyBase<geode::modifier::ModifyDerive<MyGJChestSprite, GJChestSprite> > >(geode::modifier::ModifyBase<geode::modifier::ModifyDerive<MyGJChestSprite, GJChestSprite> >&)::{lambda()#1}, std::__ndk1::allocator<MyGJChestSprite::onModify<geode::modifier::ModifyBase<geode::modifier::ModifyDerive<MyGJChestSprite, GJChestSprite> > >(geode::modifier::ModifyBase<geode::modifier::ModifyDerive<MyGJChestSprite, GJChestSprite> >&)::{lambda()#1}>, void ()>::~__func()
PUBLIC c60f4 0 std::__ndk1::__function::__func<MyGJChestSprite::onModify<geode::modifier::ModifyBase<geode::modifier::ModifyDerive<MyGJChestSprite, GJChestSprite> > >(geode::modifier::ModifyBase<geode::modifier::ModifyDerive<MyGJChestSprite, GJChestSprite> >&)::{lambda()#1}, std::__ndk1::allocator<MyGJChestSprite::onModify<geode::modifier::ModifyBase<geode::modifier::ModifyDerive<MyGJChestSprite, GJChestSprite> > >(geode::modifier::ModifyBase<geode::modifier::ModifyDerive<MyGJChestSprite, GJChestSprite> >&)::{lambda()#1}>, void ()>::__clone() const
PUBLIC c6128 0 std::__ndk1::__function::__func<MyGJChestSprite::onModify<geode::modifier::ModifyBase<geode::modifier::ModifyDerive<MyGJChestSprite, GJChestSprite> > >(geode::modifier::ModifyBase<geode::modifier::ModifyDerive<MyGJChestSprite, GJChestSprite> >&)::{lambda()#1}, std::__ndk1::allocator<MyGJChestSprite::onModify<geode::modifier::ModifyBase<geode::modifier::ModifyDerive<MyGJChestSprite, GJChestSprite> > >(geode::modifier::ModifyBase<geode::modifier::ModifyDerive<MyGJChestSprite, GJChestSprite> >&)::{lambda()#1}>, void ()>::__clone(std::__ndk1::__function::__base<void ()>*) const
PUBLIC c613c 0 std::__ndk1::__function::__func<MyGJChestSprite::onModify<geode::modifier::ModifyBase<geode::modifier::ModifyDerive<MyGJChestSprite, GJChestSprite> > >(geode::modifier::ModifyBase<geode::modifier::ModifyDerive<MyGJChestSprite, GJChestSprite> >&)::{lambda()#1}, std::__ndk1::allocator<MyGJChestSprite::onModify<geode::modifier::ModifyBase<geode::modifier::ModifyDerive<MyGJChestSprite, GJChestSprite> > >(geode::modifier::ModifyBase<geode::modifier::ModifyDerive<MyGJChestSprite, GJChestSprite> >&)::{lambda()#1}>, void ()>::destroy()
PUBLIC c6140 0 std::__ndk1::__function::__func<MyGJChestSprite::onModify<geode::modifier::ModifyBase<geode::modifier::ModifyDerive<MyGJChestSprite, GJChestSprite> > >(geode::modifier::ModifyBase<geode::modifier::ModifyDerive<MyGJChestSprite, GJChestSprite> >&)::{lambda()#1}, std::__ndk1::allocator<MyGJChestSprite::onModify<geode::modifier::ModifyBase<geode::modifier::ModifyDerive<MyGJChestSprite, GJChestSprite> > >(geode::modifier::ModifyBase<geode::modifier::ModifyDerive<MyGJChestSprite, GJChestSprite> >&)::{lambda()#1}>, void ()>::destroy_deallocate()
PUBLIC c6144 0 std::__ndk1::__function::__func<MyGJChestSprite::onModify<geode::modifier::ModifyBase<geode::modifier::ModifyDerive<MyGJChestSprite, GJChestSprite> > >(geode::modifier::ModifyBase<geode::modifier::ModifyDerive<MyGJChestSprite, GJChestSprite> >&)::{lambda()#1}, std::__ndk1::allocator<MyGJChestSprite::onModify<geode::modifier::ModifyBase<geode::modifier::ModifyDerive<MyGJChestSprite, GJChestSprite> > >(geode::modifier::ModifyBase<geode::modifier::ModifyDerive<MyGJChestSprite, GJChestSprite> >&)::{lambda()#1}>, void ()>::operator()()
PUBLIC c66dc 0 std::__ndk1::__function::__func<MyGJChestSprite::onModify<geode::modifier::ModifyBase<geode::modifier::ModifyDerive<MyGJChestSprite, GJChestSprite> > >(geode::modifier::ModifyBase<geode::modifier::ModifyDerive<MyGJChestSprite, GJChestSprite> >&)::{lambda()#1}, std::__ndk1::allocator<MyGJChestSprite::onModify<geode::modifier::ModifyBase<geode::modifier::ModifyDerive<MyGJChestSprite, GJChestSprite> > >(geode::modifier::ModifyBase<geode::modifier::ModifyDerive<MyGJChestSprite, GJChestSprite> >&)::{lambda()#1}>, void ()>::target(std::type_info const&) const
PUBLIC c66f8 0 std::__ndk1::__function::__func<MyGJChestSprite::onModify<geode::modifier::ModifyBase<geode::modifier::ModifyDerive<MyGJChestSprite, GJChestSprite> > >(geode::modifier::ModifyBase<geode::modifier::ModifyDerive<MyGJChestSprite, GJChestSprite> >&)::{lambda()#1}, std::__ndk1::allocator<MyGJChestSprite::onModify<geode::modifier::ModifyBase<geode::modifier::ModifyDerive<MyGJChestSprite, GJChestSprite> > >(geode::modifier::ModifyBase<geode::modifier::ModifyDerive<MyGJChestSprite, GJChestSprite> >&)::{lambda()#1}>, void ()>::target_type() const
PUBLIC c6704 0 geode::modifier::ModifyBase<geode::modifier::ModifyDerive<MyGJChestSprite, GJChestSprite> >::setHookPriorityBefore(std::__ndk1::basic_string_view<char, std::__ndk1::char_traits<char> >, geode::Mod*)::{lambda(geode::ModStateEvent*)#1}::operator()(geode::ModStateEvent*) const
PUBLIC c6814 0 std::__ndk1::__function::__func<geode::modifier::ModifyBase<geode::modifier::ModifyDerive<MyGJChestSprite, GJChestSprite> >::setHookPriorityBefore(std::__ndk1::basic_string_view<char, std::__ndk1::char_traits<char> >, geode::Mod*)::{lambda(geode::ModStateEvent*)#1}, std::__ndk1::allocator<geode::modifier::ModifyBase<geode::modifier::ModifyDerive<MyGJChestSprite, GJChestSprite> >::setHookPriorityBefore(std::__ndk1::basic_string_view<char, std::__ndk1::char_traits<char> >, geode::Mod*)::{lambda(geode::ModStateEvent*)#1}>, void (geode::ModStateEvent*)>::~__func()
PUBLIC c6818 0 std::__ndk1::__function::__func<geode::modifier::ModifyBase<geode::modifier::ModifyDerive<MyGJChestSprite, GJChestSprite> >::setHookPriorityBefore(std::__ndk1::basic_string_view<char, std::__ndk1::char_traits<char> >, geode::Mod*)::{lambda(geode::ModStateEvent*)#1}, std::__ndk1::allocator<geode::modifier::ModifyBase<geode::modifier::ModifyDerive<MyGJChestSprite, GJChestSprite> >::setHookPriorityBefore(std::__ndk1::basic_string_view<char, std::__ndk1::char_traits<char> >, geode::Mod*)::{lambda(geode::ModStateEvent*)#1}>, void (geode::ModStateEvent*)>::__clone() const
PUBLIC c6850 0 std::__ndk1::__function::__func<geode::modifier::ModifyBase<geode::modifier::ModifyDerive<MyGJChestSprite, GJChestSprite> >::setHookPriorityBefore(std::__ndk1::basic_string_view<char, std::__ndk1::char_traits<char> >, geode::Mod*)::{lambda(geode::ModStateEvent*)#1}, std::__ndk1::allocator<geode::modifier::ModifyBase<geode::modifier::ModifyDerive<MyGJChestSprite, GJChestSprite> >::setHookPriorityBefore(std::__ndk1::basic_string_view<char, std::__ndk1::char_traits<char> >, geode::Mod*)::{lambda(geode::ModStateEvent*)#1}>, void (geode::ModStateEvent*)>::__clone(std::__ndk1::__function::__base<void (geode::ModStateEvent*)>*) const
PUBLIC c6868 0 std::__ndk1::__function::__func<geode::modifier::ModifyBase<geode::modifier::ModifyDerive<MyGJChestSprite, GJChestSprite> >::setHookPriorityBefore(std::__ndk1::basic_string_view<char, std::__ndk1::char_traits<char> >, geode::Mod*)::{lambda(geode::ModStateEvent*)#1}, std::__ndk1::allocator<geode::modifier::ModifyBase<geode::modifier::ModifyDerive<MyGJChestSprite, GJChestSprite> >::setHookPriorityBefore(std::__ndk1::basic_string_view<char, std::__ndk1::char_traits<char> >, geode::Mod*)::{lambda(geode::ModStateEvent*)#1}>, void (geode::ModStateEvent*)>::destroy()
PUBLIC c686c 0 std::__ndk1::__function::__func<geode::modifier::ModifyBase<geode::modifier::ModifyDerive<MyGJChestSprite, GJChestSprite> >::setHookPriorityBefore(std::__ndk1::basic_string_view<char, std::__ndk1::char_traits<char> >, geode::Mod*)::{lambda(geode::ModStateEvent*)#1}, std::__ndk1::allocator<geode::modifier::ModifyBase<geode::modifier::ModifyDerive<MyGJChestSprite, GJChestSprite> >::setHookPriorityBefore(std::__ndk1::basic_string_view<char, std::__ndk1::char_traits<char> >, geode::Mod*)::{lambda(geode::ModStateEvent*)#1}>, void (geode::ModStateEvent*)>::destroy_deallocate()
PUBLIC c6870 0 std::__ndk1::__function::__func<geode::modifier::ModifyBase<geode::modifier::ModifyDerive<MyGJChestSprite, GJChestSprite> >::setHookPriorityBefore(std::__ndk1::basic_string_view<char, std::__ndk1::char_traits<char> >, geode::Mod*)::{lambda(geode::ModStateEvent*)#1}, std::__ndk1::allocator<geode::modifier::ModifyBase<geode::modifier::ModifyDerive<MyGJChestSprite, GJChestSprite> >::setHookPriorityBefore(std::__ndk1::basic_string_view<char, std::__ndk1::char_traits<char> >, geode::Mod*)::{lambda(geode::ModStateEvent*)#1}>, void (geode::ModStateEvent*)>::operator()(geode::ModStateEvent*&&)
PUBLIC c6878 0 std::__ndk1::__function::__func<geode::modifier::ModifyBase<geode::modifier::ModifyDerive<MyGJChestSprite, GJChestSprite> >::setHookPriorityBefore(std::__ndk1::basic_string_view<char, std::__ndk1::char_traits<char> >, geode::Mod*)::{lambda(geode::ModStateEvent*)#1}, std::__ndk1::allocator<geode::modifier::ModifyBase<geode::modifier::ModifyDerive<MyGJChestSprite, GJChestSprite> >::setHookPriorityBefore(std::__ndk1::basic_string_view<char, std::__ndk1::char_traits<char> >, geode::Mod*)::{lambda(geode::ModStateEvent*)#1}>, void (geode::ModStateEvent*)>::target(std::type_info const&) const
PUBLIC c6894 0 std::__ndk1::__function::__func<geode::modifier::ModifyBase<geode::modifier::ModifyDerive<MyGJChestSprite, GJChestSprite> >::setHookPriorityBefore(std::__ndk1::basic_string_view<char, std::__ndk1::char_traits<char> >, geode::Mod*)::{lambda(geode::ModStateEvent*)#1}, std::__ndk1::allocator<geode::modifier::ModifyBase<geode::modifier::ModifyDerive<MyGJChestSprite, GJChestSprite> >::setHookPriorityBefore(std::__ndk1::basic_string_view<char, std::__ndk1::char_traits<char> >, geode::Mod*)::{lambda(geode::ModStateEvent*)#1}>, void (geode::ModStateEvent*)>::target_type() const
PUBLIC c68a0 0 geode::modifier::AsStaticFunction_switchToState<MyGJChestSprite, void (MyGJChestSprite::*)(ChestSpriteState, bool)>::Impl<void (MyGJChestSprite::*)(ChestSpriteState, bool)>::function(MyGJChestSprite*, ChestSpriteState, bool)
PUBLIC c6d64 0 MyGJChestSprite::getChildBySpriteFrameName(cocos2d::CCNode*, char const*, int)
PUBLIC c6e88 0 geode::modifier::ModifyDerive<MyCCTextInputNode, CCTextInputNode>::apply()
PUBLIC c6e8c 0 geode::modifier::ModifyBase<geode::modifier::ModifyDerive<MyCCTextInputNode, CCTextInputNode> >::apply()
PUBLIC c6e90 0 geode::modifier::ModifyDerive<MyLevelInfoLayer, LevelInfoLayer>::apply()
PUBLIC c71d0 0 geode::modifier::ModifyBase<geode::modifier::ModifyDerive<MyLevelInfoLayer, LevelInfoLayer> >::apply()
PUBLIC c71d4 0 std::__ndk1::__function::__func<MyLevelInfoLayer::onModify<geode::modifier::ModifyBase<geode::modifier::ModifyDerive<MyLevelInfoLayer, LevelInfoLayer> > >(geode::modifier::ModifyBase<geode::modifier::ModifyDerive<MyLevelInfoLayer, LevelInfoLayer> >&)::{lambda()#1}, std::__ndk1::allocator<MyLevelInfoLayer::onModify<geode::modifier::ModifyBase<geode::modifier::ModifyDerive<MyLevelInfoLayer, LevelInfoLayer> > >(geode::modifier::ModifyBase<geode::modifier::ModifyDerive<MyLevelInfoLayer, LevelInfoLayer> >&)::{lambda()#1}>, void ()>::~__func()
PUBLIC c71d8 0 std::__ndk1::__function::__func<MyLevelInfoLayer::onModify<geode::modifier::ModifyBase<geode::modifier::ModifyDerive<MyLevelInfoLayer, LevelInfoLayer> > >(geode::modifier::ModifyBase<geode::modifier::ModifyDerive<MyLevelInfoLayer, LevelInfoLayer> >&)::{lambda()#1}, std::__ndk1::allocator<MyLevelInfoLayer::onModify<geode::modifier::ModifyBase<geode::modifier::ModifyDerive<MyLevelInfoLayer, LevelInfoLayer> > >(geode::modifier::ModifyBase<geode::modifier::ModifyDerive<MyLevelInfoLayer, LevelInfoLayer> >&)::{lambda()#1}>, void ()>::__clone() const
PUBLIC c720c 0 std::__ndk1::__function::__func<MyLevelInfoLayer::onModify<geode::modifier::ModifyBase<geode::modifier::ModifyDerive<MyLevelInfoLayer, LevelInfoLayer> > >(geode::modifier::ModifyBase<geode::modifier::ModifyDerive<MyLevelInfoLayer, LevelInfoLayer> >&)::{lambda()#1}, std::__ndk1::allocator<MyLevelInfoLayer::onModify<geode::modifier::ModifyBase<geode::modifier::ModifyDerive<MyLevelInfoLayer, LevelInfoLayer> > >(geode::modifier::ModifyBase<geode::modifier::ModifyDerive<MyLevelInfoLayer, LevelInfoLayer> >&)::{lambda()#1}>, void ()>::__clone(std::__ndk1::__function::__base<void ()>*) const
PUBLIC c7220 0 std::__ndk1::__function::__func<MyLevelInfoLayer::onModify<geode::modifier::ModifyBase<geode::modifier::ModifyDerive<MyLevelInfoLayer, LevelInfoLayer> > >(geode::modifier::ModifyBase<geode::modifier::ModifyDerive<MyLevelInfoLayer, LevelInfoLayer> >&)::{lambda()#1}, std::__ndk1::allocator<MyLevelInfoLayer::onModify<geode::modifier::ModifyBase<geode::modifier::ModifyDerive<MyLevelInfoLayer, LevelInfoLayer> > >(geode::modifier::ModifyBase<geode::modifier::ModifyDerive<MyLevelInfoLayer, LevelInfoLayer> >&)::{lambda()#1}>, void ()>::destroy()
PUBLIC c7224 0 std::__ndk1::__function::__func<MyLevelInfoLayer::onModify<geode::modifier::ModifyBase<geode::modifier::ModifyDerive<MyLevelInfoLayer, LevelInfoLayer> > >(geode::modifier::ModifyBase<geode::modifier::ModifyDerive<MyLevelInfoLayer, LevelInfoLayer> >&)::{lambda()#1}, std::__ndk1::allocator<MyLevelInfoLayer::onModify<geode::modifier::ModifyBase<geode::modifier::ModifyDerive<MyLevelInfoLayer, LevelInfoLayer> > >(geode::modifier::ModifyBase<geode::modifier::ModifyDerive<MyLevelInfoLayer, LevelInfoLayer> >&)::{lambda()#1}>, void ()>::destroy_deallocate()
PUBLIC c7228 0 std::__ndk1::__function::__func<MyLevelInfoLayer::onModify<geode::modifier::ModifyBase<geode::modifier::ModifyDerive<MyLevelInfoLayer, LevelInfoLayer> > >(geode::modifier::ModifyBase<geode::modifier::ModifyDerive<MyLevelInfoLayer, LevelInfoLayer> >&)::{lambda()#1}, std::__ndk1::allocator<MyLevelInfoLayer::onModify<geode::modifier::ModifyBase<geode::modifier::ModifyDerive<MyLevelInfoLayer, LevelInfoLayer> > >(geode::modifier::ModifyBase<geode::modifier::ModifyDerive<MyLevelInfoLayer, LevelInfoLayer> >&)::{lambda()#1}>, void ()>::operator()()
PUBLIC c77c0 0 std::__ndk1::__function::__func<MyLevelInfoLayer::onModify<geode::modifier::ModifyBase<geode::modifier::ModifyDerive<MyLevelInfoLayer, LevelInfoLayer> > >(geode::modifier::ModifyBase<geode::modifier::ModifyDerive<MyLevelInfoLayer, LevelInfoLayer> >&)::{lambda()#1}, std::__ndk1::allocator<MyLevelInfoLayer::onModify<geode::modifier::ModifyBase<geode::modifier::ModifyDerive<MyLevelInfoLayer, LevelInfoLayer> > >(geode::modifier::ModifyBase<geode::modifier::ModifyDerive<MyLevelInfoLayer, LevelInfoLayer> >&)::{lambda()#1}>, void ()>::target(std::type_info const&) const
PUBLIC c77dc 0 std::__ndk1::__function::__func<MyLevelInfoLayer::onModify<geode::modifier::ModifyBase<geode::modifier::ModifyDerive<MyLevelInfoLayer, LevelInfoLayer> > >(geode::modifier::ModifyBase<geode::modifier::ModifyDerive<MyLevelInfoLayer, LevelInfoLayer> >&)::{lambda()#1}, std::__ndk1::allocator<MyLevelInfoLayer::onModify<geode::modifier::ModifyBase<geode::modifier::ModifyDerive<MyLevelInfoLayer, LevelInfoLayer> > >(geode::modifier::ModifyBase<geode::modifier::ModifyDerive<MyLevelInfoLayer, LevelInfoLayer> >&)::{lambda()#1}>, void ()>::target_type() const
PUBLIC c77e8 0 geode::modifier::ModifyBase<geode::modifier::ModifyDerive<MyLevelInfoLayer, LevelInfoLayer> >::setHookPriorityBefore(std::__ndk1::basic_string_view<char, std::__ndk1::char_traits<char> >, geode::Mod*)::{lambda(geode::ModStateEvent*)#1}::operator()(geode::ModStateEvent*) const
PUBLIC c78f8 0 std::__ndk1::__function::__func<geode::modifier::ModifyBase<geode::modifier::ModifyDerive<MyLevelInfoLayer, LevelInfoLayer> >::setHookPriorityBefore(std::__ndk1::basic_string_view<char, std::__ndk1::char_traits<char> >, geode::Mod*)::{lambda(geode::ModStateEvent*)#1}, std::__ndk1::allocator<geode::modifier::ModifyBase<geode::modifier::ModifyDerive<MyLevelInfoLayer, LevelInfoLayer> >::setHookPriorityBefore(std::__ndk1::basic_string_view<char, std::__ndk1::char_traits<char> >, geode::Mod*)::{lambda(geode::ModStateEvent*)#1}>, void (geode::ModStateEvent*)>::~__func()
PUBLIC c78fc 0 std::__ndk1::__function::__func<geode::modifier::ModifyBase<geode::modifier::ModifyDerive<MyLevelInfoLayer, LevelInfoLayer> >::setHookPriorityBefore(std::__ndk1::basic_string_view<char, std::__ndk1::char_traits<char> >, geode::Mod*)::{lambda(geode::ModStateEvent*)#1}, std::__ndk1::allocator<geode::modifier::ModifyBase<geode::modifier::ModifyDerive<MyLevelInfoLayer, LevelInfoLayer> >::setHookPriorityBefore(std::__ndk1::basic_string_view<char, std::__ndk1::char_traits<char> >, geode::Mod*)::{lambda(geode::ModStateEvent*)#1}>, void (geode::ModStateEvent*)>::__clone() const
PUBLIC c7934 0 std::__ndk1::__function::__func<geode::modifier::ModifyBase<geode::modifier::ModifyDerive<MyLevelInfoLayer, LevelInfoLayer> >::setHookPriorityBefore(std::__ndk1::basic_string_view<char, std::__ndk1::char_traits<char> >, geode::Mod*)::{lambda(geode::ModStateEvent*)#1}, std::__ndk1::allocator<geode::modifier::ModifyBase<geode::modifier::ModifyDerive<MyLevelInfoLayer, LevelInfoLayer> >::setHookPriorityBefore(std::__ndk1::basic_string_view<char, std::__ndk1::char_traits<char> >, geode::Mod*)::{lambda(geode::ModStateEvent*)#1}>, void (geode::ModStateEvent*)>::__clone(std::__ndk1::__function::__base<void (geode::ModStateEvent*)>*) const
PUBLIC c794c 0 std::__ndk1::__function::__func<geode::modifier::ModifyBase<geode::modifier::ModifyDerive<MyLevelInfoLayer, LevelInfoLayer> >::setHookPriorityBefore(std::__ndk1::basic_string_view<char, std::__ndk1::char_traits<char> >, geode::Mod*)::{lambda(geode::ModStateEvent*)#1}, std::__ndk1::allocator<geode::modifier::ModifyBase<geode::modifier::ModifyDerive<MyLevelInfoLayer, LevelInfoLayer> >::setHookPriorityBefore(std::__ndk1::basic_string_view<char, std::__ndk1::char_traits<char> >, geode::Mod*)::{lambda(geode::ModStateEvent*)#1}>, void (geode::ModStateEvent*)>::destroy()
PUBLIC c7950 0 std::__ndk1::__function::__func<geode::modifier::ModifyBase<geode::modifier::ModifyDerive<MyLevelInfoLayer, LevelInfoLayer> >::setHookPriorityBefore(std::__ndk1::basic_string_view<char, std::__ndk1::char_traits<char> >, geode::Mod*)::{lambda(geode::ModStateEvent*)#1}, std::__ndk1::allocator<geode::modifier::ModifyBase<geode::modifier::ModifyDerive<MyLevelInfoLayer, LevelInfoLayer> >::setHookPriorityBefore(std::__ndk1::basic_string_view<char, std::__ndk1::char_traits<char> >, geode::Mod*)::{lambda(geode::ModStateEvent*)#1}>, void (geode::ModStateEvent*)>::destroy_deallocate()
PUBLIC c7954 0 std::__ndk1::__function::__func<geode::modifier::ModifyBase<geode::modifier::ModifyDerive<MyLevelInfoLayer, LevelInfoLayer> >::setHookPriorityBefore(std::__ndk1::basic_string_view<char, std::__ndk1::char_traits<char> >, geode::Mod*)::{lambda(geode::ModStateEvent*)#1}, std::__ndk1::allocator<geode::modifier::ModifyBase<geode::modifier::ModifyDerive<MyLevelInfoLayer, LevelInfoLayer> >::setHookPriorityBefore(std::__ndk1::basic_string_view<char, std::__ndk1::char_traits<char> >, geode::Mod*)::{lambda(geode::ModStateEvent*)#1}>, void (geode::ModStateEvent*)>::operator()(geode::ModStateEvent*&&)
PUBLIC c795c 0 std::__ndk1::__function::__func<geode::modifier::ModifyBase<geode::modifier::ModifyDerive<MyLevelInfoLayer, LevelInfoLayer> >::setHookPriorityBefore(std::__ndk1::basic_string_view<char, std::__ndk1::char_traits<char> >, geode::Mod*)::{lambda(geode::ModStateEvent*)#1}, std::__ndk1::allocator<geode::modifier::ModifyBase<geode::modifier::ModifyDerive<MyLevelInfoLayer, LevelInfoLayer> >::setHookPriorityBefore(std::__ndk1::basic_string_view<char, std::__ndk1::char_traits<char> >, geode::Mod*)::{lambda(geode::ModStateEvent*)#1}>, void (geode::ModStateEvent*)>::target(std::type_info const&) const
PUBLIC c7978 0 std::__ndk1::__function::__func<geode::modifier::ModifyBase<geode::modifier::ModifyDerive<MyLevelInfoLayer, LevelInfoLayer> >::setHookPriorityBefore(std::__ndk1::basic_string_view<char, std::__ndk1::char_traits<char> >, geode::Mod*)::{lambda(geode::ModStateEvent*)#1}, std::__ndk1::allocator<geode::modifier::ModifyBase<geode::modifier::ModifyDerive<MyLevelInfoLayer, LevelInfoLayer> >::setHookPriorityBefore(std::__ndk1::basic_string_view<char, std::__ndk1::char_traits<char> >, geode::Mod*)::{lambda(geode::ModStateEvent*)#1}>, void (geode::ModStateEvent*)>::target_type() const
PUBLIC c7984 0 geode::modifier::AsStaticFunction_loadLevelStep<MyLevelInfoLayer, void (MyLevelInfoLayer::*)()>::Impl<void (MyLevelInfoLayer::*)()>::function(MyLevelInfoLayer*)
PUBLIC c7f10 0 Utils::getValidSprite(char const*)
PUBLIC c7ff0 0 geode::modifier::FieldIntermediate<MyLevelInfoLayer, LevelInfoLayer>::self()
PUBLIC c817c 0 geode::modifier::FieldIntermediate<MyLevelInfoLayer, LevelInfoLayer>::fieldDestructor(void*)
PUBLIC c8180 0 geode::modifier::ModifyDerive<MyCustomMusicCell, CustomMusicCell>::apply()
PUBLIC c8508 0 geode::modifier::ModifyBase<geode::modifier::ModifyDerive<MyCustomMusicCell, CustomMusicCell> >::apply()
PUBLIC c850c 0 std::__ndk1::__function::__func<MyCustomMusicCell::onModify<geode::modifier::ModifyBase<geode::modifier::ModifyDerive<MyCustomMusicCell, CustomMusicCell> > >(geode::modifier::ModifyBase<geode::modifier::ModifyDerive<MyCustomMusicCell, CustomMusicCell> >&)::{lambda()#1}, std::__ndk1::allocator<MyCustomMusicCell::onModify<geode::modifier::ModifyBase<geode::modifier::ModifyDerive<MyCustomMusicCell, CustomMusicCell> > >(geode::modifier::ModifyBase<geode::modifier::ModifyDerive<MyCustomMusicCell, CustomMusicCell> >&)::{lambda()#1}>, void ()>::~__func()
PUBLIC c8510 0 std::__ndk1::__function::__func<MyCustomMusicCell::onModify<geode::modifier::ModifyBase<geode::modifier::ModifyDerive<MyCustomMusicCell, CustomMusicCell> > >(geode::modifier::ModifyBase<geode::modifier::ModifyDerive<MyCustomMusicCell, CustomMusicCell> >&)::{lambda()#1}, std::__ndk1::allocator<MyCustomMusicCell::onModify<geode::modifier::ModifyBase<geode::modifier::ModifyDerive<MyCustomMusicCell, CustomMusicCell> > >(geode::modifier::ModifyBase<geode::modifier::ModifyDerive<MyCustomMusicCell, CustomMusicCell> >&)::{lambda()#1}>, void ()>::__clone() const
PUBLIC c8544 0 std::__ndk1::__function::__func<MyCustomMusicCell::onModify<geode::modifier::ModifyBase<geode::modifier::ModifyDerive<MyCustomMusicCell, CustomMusicCell> > >(geode::modifier::ModifyBase<geode::modifier::ModifyDerive<MyCustomMusicCell, CustomMusicCell> >&)::{lambda()#1}, std::__ndk1::allocator<MyCustomMusicCell::onModify<geode::modifier::ModifyBase<geode::modifier::ModifyDerive<MyCustomMusicCell, CustomMusicCell> > >(geode::modifier::ModifyBase<geode::modifier::ModifyDerive<MyCustomMusicCell, CustomMusicCell> >&)::{lambda()#1}>, void ()>::__clone(std::__ndk1::__function::__base<void ()>*) const
PUBLIC c8558 0 std::__ndk1::__function::__func<MyCustomMusicCell::onModify<geode::modifier::ModifyBase<geode::modifier::ModifyDerive<MyCustomMusicCell, CustomMusicCell> > >(geode::modifier::ModifyBase<geode::modifier::ModifyDerive<MyCustomMusicCell, CustomMusicCell> >&)::{lambda()#1}, std::__ndk1::allocator<MyCustomMusicCell::onModify<geode::modifier::ModifyBase<geode::modifier::ModifyDerive<MyCustomMusicCell, CustomMusicCell> > >(geode::modifier::ModifyBase<geode::modifier::ModifyDerive<MyCustomMusicCell, CustomMusicCell> >&)::{lambda()#1}>, void ()>::destroy()
PUBLIC c855c 0 std::__ndk1::__function::__func<MyCustomMusicCell::onModify<geode::modifier::ModifyBase<geode::modifier::ModifyDerive<MyCustomMusicCell, CustomMusicCell> > >(geode::modifier::ModifyBase<geode::modifier::ModifyDerive<MyCustomMusicCell, CustomMusicCell> >&)::{lambda()#1}, std::__ndk1::allocator<MyCustomMusicCell::onModify<geode::modifier::ModifyBase<geode::modifier::ModifyDerive<MyCustomMusicCell, CustomMusicCell> > >(geode::modifier::ModifyBase<geode::modifier::ModifyDerive<MyCustomMusicCell, CustomMusicCell> >&)::{lambda()#1}>, void ()>::destroy_deallocate()
PUBLIC c8560 0 std::__ndk1::__function::__func<MyCustomMusicCell::onModify<geode::modifier::ModifyBase<geode::modifier::ModifyDerive<MyCustomMusicCell, CustomMusicCell> > >(geode::modifier::ModifyBase<geode::modifier::ModifyDerive<MyCustomMusicCell, CustomMusicCell> >&)::{lambda()#1}, std::__ndk1::allocator<MyCustomMusicCell::onModify<geode::modifier::ModifyBase<geode::modifier::ModifyDerive<MyCustomMusicCell, CustomMusicCell> > >(geode::modifier::ModifyBase<geode::modifier::ModifyDerive<MyCustomMusicCell, CustomMusicCell> >&)::{lambda()#1}>, void ()>::operator()()
PUBLIC c8af8 0 std::__ndk1::__function::__func<MyCustomMusicCell::onModify<geode::modifier::ModifyBase<geode::modifier::ModifyDerive<MyCustomMusicCell, CustomMusicCell> > >(geode::modifier::ModifyBase<geode::modifier::ModifyDerive<MyCustomMusicCell, CustomMusicCell> >&)::{lambda()#1}, std::__ndk1::allocator<MyCustomMusicCell::onModify<geode::modifier::ModifyBase<geode::modifier::ModifyDerive<MyCustomMusicCell, CustomMusicCell> > >(geode::modifier::ModifyBase<geode::modifier::ModifyDerive<MyCustomMusicCell, CustomMusicCell> >&)::{lambda()#1}>, void ()>::target(std::type_info const&) const
PUBLIC c8b14 0 std::__ndk1::__function::__func<MyCustomMusicCell::onModify<geode::modifier::ModifyBase<geode::modifier::ModifyDerive<MyCustomMusicCell, CustomMusicCell> > >(geode::modifier::ModifyBase<geode::modifier::ModifyDerive<MyCustomMusicCell, CustomMusicCell> >&)::{lambda()#1}, std::__ndk1::allocator<MyCustomMusicCell::onModify<geode::modifier::ModifyBase<geode::modifier::ModifyDerive<MyCustomMusicCell, CustomMusicCell> > >(geode::modifier::ModifyBase<geode::modifier::ModifyDerive<MyCustomMusicCell, CustomMusicCell> >&)::{lambda()#1}>, void ()>::target_type() const
PUBLIC c8b20 0 geode::modifier::ModifyBase<geode::modifier::ModifyDerive<MyCustomMusicCell, CustomMusicCell> >::setHookPriorityBefore(std::__ndk1::basic_string_view<char, std::__ndk1::char_traits<char> >, geode::Mod*)::{lambda(geode::ModStateEvent*)#1}::operator()(geode::ModStateEvent*) const
PUBLIC c8c30 0 std::__ndk1::__function::__func<geode::modifier::ModifyBase<geode::modifier::ModifyDerive<MyCustomMusicCell, CustomMusicCell> >::setHookPriorityBefore(std::__ndk1::basic_string_view<char, std::__ndk1::char_traits<char> >, geode::Mod*)::{lambda(geode::ModStateEvent*)#1}, std::__ndk1::allocator<geode::modifier::ModifyBase<geode::modifier::ModifyDerive<MyCustomMusicCell, CustomMusicCell> >::setHookPriorityBefore(std::__ndk1::basic_string_view<char, std::__ndk1::char_traits<char> >, geode::Mod*)::{lambda(geode::ModStateEvent*)#1}>, void (geode::ModStateEvent*)>::~__func()
PUBLIC c8c34 0 std::__ndk1::__function::__func<geode::modifier::ModifyBase<geode::modifier::ModifyDerive<MyCustomMusicCell, CustomMusicCell> >::setHookPriorityBefore(std::__ndk1::basic_string_view<char, std::__ndk1::char_traits<char> >, geode::Mod*)::{lambda(geode::ModStateEvent*)#1}, std::__ndk1::allocator<geode::modifier::ModifyBase<geode::modifier::ModifyDerive<MyCustomMusicCell, CustomMusicCell> >::setHookPriorityBefore(std::__ndk1::basic_string_view<char, std::__ndk1::char_traits<char> >, geode::Mod*)::{lambda(geode::ModStateEvent*)#1}>, void (geode::ModStateEvent*)>::__clone() const
PUBLIC c8c6c 0 std::__ndk1::__function::__func<geode::modifier::ModifyBase<geode::modifier::ModifyDerive<MyCustomMusicCell, CustomMusicCell> >::setHookPriorityBefore(std::__ndk1::basic_string_view<char, std::__ndk1::char_traits<char> >, geode::Mod*)::{lambda(geode::ModStateEvent*)#1}, std::__ndk1::allocator<geode::modifier::ModifyBase<geode::modifier::ModifyDerive<MyCustomMusicCell, CustomMusicCell> >::setHookPriorityBefore(std::__ndk1::basic_string_view<char, std::__ndk1::char_traits<char> >, geode::Mod*)::{lambda(geode::ModStateEvent*)#1}>, void (geode::ModStateEvent*)>::__clone(std::__ndk1::__function::__base<void (geode::ModStateEvent*)>*) const
PUBLIC c8c84 0 std::__ndk1::__function::__func<geode::modifier::ModifyBase<geode::modifier::ModifyDerive<MyCustomMusicCell, CustomMusicCell> >::setHookPriorityBefore(std::__ndk1::basic_string_view<char, std::__ndk1::char_traits<char> >, geode::Mod*)::{lambda(geode::ModStateEvent*)#1}, std::__ndk1::allocator<geode::modifier::ModifyBase<geode::modifier::ModifyDerive<MyCustomMusicCell, CustomMusicCell> >::setHookPriorityBefore(std::__ndk1::basic_string_view<char, std::__ndk1::char_traits<char> >, geode::Mod*)::{lambda(geode::ModStateEvent*)#1}>, void (geode::ModStateEvent*)>::destroy()
PUBLIC c8c88 0 std::__ndk1::__function::__func<geode::modifier::ModifyBase<geode::modifier::ModifyDerive<MyCustomMusicCell, CustomMusicCell> >::setHookPriorityBefore(std::__ndk1::basic_string_view<char, std::__ndk1::char_traits<char> >, geode::Mod*)::{lambda(geode::ModStateEvent*)#1}, std::__ndk1::allocator<geode::modifier::ModifyBase<geode::modifier::ModifyDerive<MyCustomMusicCell, CustomMusicCell> >::setHookPriorityBefore(std::__ndk1::basic_string_view<char, std::__ndk1::char_traits<char> >, geode::Mod*)::{lambda(geode::ModStateEvent*)#1}>, void (geode::ModStateEvent*)>::destroy_deallocate()
PUBLIC c8c8c 0 std::__ndk1::__function::__func<geode::modifier::ModifyBase<geode::modifier::ModifyDerive<MyCustomMusicCell, CustomMusicCell> >::setHookPriorityBefore(std::__ndk1::basic_string_view<char, std::__ndk1::char_traits<char> >, geode::Mod*)::{lambda(geode::ModStateEvent*)#1}, std::__ndk1::allocator<geode::modifier::ModifyBase<geode::modifier::ModifyDerive<MyCustomMusicCell, CustomMusicCell> >::setHookPriorityBefore(std::__ndk1::basic_string_view<char, std::__ndk1::char_traits<char> >, geode::Mod*)::{lambda(geode::ModStateEvent*)#1}>, void (geode::ModStateEvent*)>::operator()(geode::ModStateEvent*&&)
PUBLIC c8c94 0 std::__ndk1::__function::__func<geode::modifier::ModifyBase<geode::modifier::ModifyDerive<MyCustomMusicCell, CustomMusicCell> >::setHookPriorityBefore(std::__ndk1::basic_string_view<char, std::__ndk1::char_traits<char> >, geode::Mod*)::{lambda(geode::ModStateEvent*)#1}, std::__ndk1::allocator<geode::modifier::ModifyBase<geode::modifier::ModifyDerive<MyCustomMusicCell, CustomMusicCell> >::setHookPriorityBefore(std::__ndk1::basic_string_view<char, std::__ndk1::char_traits<char> >, geode::Mod*)::{lambda(geode::ModStateEvent*)#1}>, void (geode::ModStateEvent*)>::target(std::type_info const&) const
PUBLIC c8cb0 0 std::__ndk1::__function::__func<geode::modifier::ModifyBase<geode::modifier::ModifyDerive<MyCustomMusicCell, CustomMusicCell> >::setHookPriorityBefore(std::__ndk1::basic_string_view<char, std::__ndk1::char_traits<char> >, geode::Mod*)::{lambda(geode::ModStateEvent*)#1}, std::__ndk1::allocator<geode::modifier::ModifyBase<geode::modifier::ModifyDerive<MyCustomMusicCell, CustomMusicCell> >::setHookPriorityBefore(std::__ndk1::basic_string_view<char, std::__ndk1::char_traits<char> >, geode::Mod*)::{lambda(geode::ModStateEvent*)#1}>, void (geode::ModStateEvent*)>::target_type() const
PUBLIC c8cbc 0 geode::modifier::AsStaticFunction_loadFromObject<MyCustomMusicCell, void (MyCustomMusicCell::*)(SongInfoObject*)>::Impl<void (MyCustomMusicCell::*)(SongInfoObject*)>::function(MyCustomMusicCell*, SongInfoObject*)
PUBLIC c8d74 0 MyCustomMusicCell::checkBG(float)
PUBLIC c90e4 0 geode::modifier::FieldIntermediate<MyCustomMusicCell, CustomMusicCell>::self()
PUBLIC c9270 0 geode::modifier::FieldIntermediate<MyCustomMusicCell, CustomMusicCell>::fieldDestructor(void*)
PUBLIC c9274 0 geode::modifier::ModifyDerive<MyGJGarageLayer, GJGarageLayer>::apply()
PUBLIC c95f4 0 geode::modifier::ModifyBase<geode::modifier::ModifyDerive<MyGJGarageLayer, GJGarageLayer> >::apply()
PUBLIC c95f8 0 std::__ndk1::__function::__func<MyGJGarageLayer::onModify<geode::modifier::ModifyBase<geode::modifier::ModifyDerive<MyGJGarageLayer, GJGarageLayer> > >(geode::modifier::ModifyBase<geode::modifier::ModifyDerive<MyGJGarageLayer, GJGarageLayer> >&)::{lambda()#1}, std::__ndk1::allocator<MyGJGarageLayer::onModify<geode::modifier::ModifyBase<geode::modifier::ModifyDerive<MyGJGarageLayer, GJGarageLayer> > >(geode::modifier::ModifyBase<geode::modifier::ModifyDerive<MyGJGarageLayer, GJGarageLayer> >&)::{lambda()#1}>, void ()>::~__func()
PUBLIC c95fc 0 std::__ndk1::__function::__func<MyGJGarageLayer::onModify<geode::modifier::ModifyBase<geode::modifier::ModifyDerive<MyGJGarageLayer, GJGarageLayer> > >(geode::modifier::ModifyBase<geode::modifier::ModifyDerive<MyGJGarageLayer, GJGarageLayer> >&)::{lambda()#1}, std::__ndk1::allocator<MyGJGarageLayer::onModify<geode::modifier::ModifyBase<geode::modifier::ModifyDerive<MyGJGarageLayer, GJGarageLayer> > >(geode::modifier::ModifyBase<geode::modifier::ModifyDerive<MyGJGarageLayer, GJGarageLayer> >&)::{lambda()#1}>, void ()>::__clone() const
PUBLIC c9630 0 std::__ndk1::__function::__func<MyGJGarageLayer::onModify<geode::modifier::ModifyBase<geode::modifier::ModifyDerive<MyGJGarageLayer, GJGarageLayer> > >(geode::modifier::ModifyBase<geode::modifier::ModifyDerive<MyGJGarageLayer, GJGarageLayer> >&)::{lambda()#1}, std::__ndk1::allocator<MyGJGarageLayer::onModify<geode::modifier::ModifyBase<geode::modifier::ModifyDerive<MyGJGarageLayer, GJGarageLayer> > >(geode::modifier::ModifyBase<geode::modifier::ModifyDerive<MyGJGarageLayer, GJGarageLayer> >&)::{lambda()#1}>, void ()>::__clone(std::__ndk1::__function::__base<void ()>*) const
PUBLIC c9644 0 std::__ndk1::__function::__func<MyGJGarageLayer::onModify<geode::modifier::ModifyBase<geode::modifier::ModifyDerive<MyGJGarageLayer, GJGarageLayer> > >(geode::modifier::ModifyBase<geode::modifier::ModifyDerive<MyGJGarageLayer, GJGarageLayer> >&)::{lambda()#1}, std::__ndk1::allocator<MyGJGarageLayer::onModify<geode::modifier::ModifyBase<geode::modifier::ModifyDerive<MyGJGarageLayer, GJGarageLayer> > >(geode::modifier::ModifyBase<geode::modifier::ModifyDerive<MyGJGarageLayer, GJGarageLayer> >&)::{lambda()#1}>, void ()>::destroy()
PUBLIC c9648 0 std::__ndk1::__function::__func<MyGJGarageLayer::onModify<geode::modifier::ModifyBase<geode::modifier::ModifyDerive<MyGJGarageLayer, GJGarageLayer> > >(geode::modifier::ModifyBase<geode::modifier::ModifyDerive<MyGJGarageLayer, GJGarageLayer> >&)::{lambda()#1}, std::__ndk1::allocator<MyGJGarageLayer::onModify<geode::modifier::ModifyBase<geode::modifier::ModifyDerive<MyGJGarageLayer, GJGarageLayer> > >(geode::modifier::ModifyBase<geode::modifier::ModifyDerive<MyGJGarageLayer, GJGarageLayer> >&)::{lambda()#1}>, void ()>::destroy_deallocate()
PUBLIC c964c 0 std::__ndk1::__function::__func<MyGJGarageLayer::onModify<geode::modifier::ModifyBase<geode::modifier::ModifyDerive<MyGJGarageLayer, GJGarageLayer> > >(geode::modifier::ModifyBase<geode::modifier::ModifyDerive<MyGJGarageLayer, GJGarageLayer> >&)::{lambda()#1}, std::__ndk1::allocator<MyGJGarageLayer::onModify<geode::modifier::ModifyBase<geode::modifier::ModifyDerive<MyGJGarageLayer, GJGarageLayer> > >(geode::modifier::ModifyBase<geode::modifier::ModifyDerive<MyGJGarageLayer, GJGarageLayer> >&)::{lambda()#1}>, void ()>::operator()()
PUBLIC c9bd8 0 std::__ndk1::__function::__func<MyGJGarageLayer::onModify<geode::modifier::ModifyBase<geode::modifier::ModifyDerive<MyGJGarageLayer, GJGarageLayer> > >(geode::modifier::ModifyBase<geode::modifier::ModifyDerive<MyGJGarageLayer, GJGarageLayer> >&)::{lambda()#1}, std::__ndk1::allocator<MyGJGarageLayer::onModify<geode::modifier::ModifyBase<geode::modifier::ModifyDerive<MyGJGarageLayer, GJGarageLayer> > >(geode::modifier::ModifyBase<geode::modifier::ModifyDerive<MyGJGarageLayer, GJGarageLayer> >&)::{lambda()#1}>, void ()>::target(std::type_info const&) const
PUBLIC c9bf4 0 std::__ndk1::__function::__func<MyGJGarageLayer::onModify<geode::modifier::ModifyBase<geode::modifier::ModifyDerive<MyGJGarageLayer, GJGarageLayer> > >(geode::modifier::ModifyBase<geode::modifier::ModifyDerive<MyGJGarageLayer, GJGarageLayer> >&)::{lambda()#1}, std::__ndk1::allocator<MyGJGarageLayer::onModify<geode::modifier::ModifyBase<geode::modifier::ModifyDerive<MyGJGarageLayer, GJGarageLayer> > >(geode::modifier::ModifyBase<geode::modifier::ModifyDerive<MyGJGarageLayer, GJGarageLayer> >&)::{lambda()#1}>, void ()>::target_type() const
PUBLIC c9c00 0 geode::modifier::ModifyBase<geode::modifier::ModifyDerive<MyGJGarageLayer, GJGarageLayer> >::setHookPriorityBefore(std::__ndk1::basic_string_view<char, std::__ndk1::char_traits<char> >, geode::Mod*)::{lambda(geode::ModStateEvent*)#1}::operator()(geode::ModStateEvent*) const
PUBLIC c9d10 0 std::__ndk1::__function::__func<geode::modifier::ModifyBase<geode::modifier::ModifyDerive<MyGJGarageLayer, GJGarageLayer> >::setHookPriorityBefore(std::__ndk1::basic_string_view<char, std::__ndk1::char_traits<char> >, geode::Mod*)::{lambda(geode::ModStateEvent*)#1}, std::__ndk1::allocator<geode::modifier::ModifyBase<geode::modifier::ModifyDerive<MyGJGarageLayer, GJGarageLayer> >::setHookPriorityBefore(std::__ndk1::basic_string_view<char, std::__ndk1::char_traits<char> >, geode::Mod*)::{lambda(geode::ModStateEvent*)#1}>, void (geode::ModStateEvent*)>::~__func()
PUBLIC c9d14 0 std::__ndk1::__function::__func<geode::modifier::ModifyBase<geode::modifier::ModifyDerive<MyGJGarageLayer, GJGarageLayer> >::setHookPriorityBefore(std::__ndk1::basic_string_view<char, std::__ndk1::char_traits<char> >, geode::Mod*)::{lambda(geode::ModStateEvent*)#1}, std::__ndk1::allocator<geode::modifier::ModifyBase<geode::modifier::ModifyDerive<MyGJGarageLayer, GJGarageLayer> >::setHookPriorityBefore(std::__ndk1::basic_string_view<char, std::__ndk1::char_traits<char> >, geode::Mod*)::{lambda(geode::ModStateEvent*)#1}>, void (geode::ModStateEvent*)>::__clone() const
PUBLIC c9d4c 0 std::__ndk1::__function::__func<geode::modifier::ModifyBase<geode::modifier::ModifyDerive<MyGJGarageLayer, GJGarageLayer> >::setHookPriorityBefore(std::__ndk1::basic_string_view<char, std::__ndk1::char_traits<char> >, geode::Mod*)::{lambda(geode::ModStateEvent*)#1}, std::__ndk1::allocator<geode::modifier::ModifyBase<geode::modifier::ModifyDerive<MyGJGarageLayer, GJGarageLayer> >::setHookPriorityBefore(std::__ndk1::basic_string_view<char, std::__ndk1::char_traits<char> >, geode::Mod*)::{lambda(geode::ModStateEvent*)#1}>, void (geode::ModStateEvent*)>::__clone(std::__ndk1::__function::__base<void (geode::ModStateEvent*)>*) const
PUBLIC c9d64 0 std::__ndk1::__function::__func<geode::modifier::ModifyBase<geode::modifier::ModifyDerive<MyGJGarageLayer, GJGarageLayer> >::setHookPriorityBefore(std::__ndk1::basic_string_view<char, std::__ndk1::char_traits<char> >, geode::Mod*)::{lambda(geode::ModStateEvent*)#1}, std::__ndk1::allocator<geode::modifier::ModifyBase<geode::modifier::ModifyDerive<MyGJGarageLayer, GJGarageLayer> >::setHookPriorityBefore(std::__ndk1::basic_string_view<char, std::__ndk1::char_traits<char> >, geode::Mod*)::{lambda(geode::ModStateEvent*)#1}>, void (geode::ModStateEvent*)>::destroy()
PUBLIC c9d68 0 std::__ndk1::__function::__func<geode::modifier::ModifyBase<geode::modifier::ModifyDerive<MyGJGarageLayer, GJGarageLayer> >::setHookPriorityBefore(std::__ndk1::basic_string_view<char, std::__ndk1::char_traits<char> >, geode::Mod*)::{lambda(geode::ModStateEvent*)#1}, std::__ndk1::allocator<geode::modifier::ModifyBase<geode::modifier::ModifyDerive<MyGJGarageLayer, GJGarageLayer> >::setHookPriorityBefore(std::__ndk1::basic_string_view<char, std::__ndk1::char_traits<char> >, geode::Mod*)::{lambda(geode::ModStateEvent*)#1}>, void (geode::ModStateEvent*)>::destroy_deallocate()
