MODULE Linux arm64 5ED6F488F4CDD5F778ABD38D4E323E100 mat.reference-image.android64.so
INFO CODE_ID 88F4D65ECDF4F7D578ABD38D4E323E105DDD184A
INFO GENERATOR mozilla/dump_syms 2.3.4
PUBLIC 64c0 0 __on_dlclose
PUBLIC 64d0 0 __emutls_unregister_key
PUBLIC 64d8 0 __on_dlclose_late
PUBLIC 64e0 0 __atexit_handler_wrapper
PUBLIC 64f4 0 atexit
PUBLIC 6510 0 pthread_atfork
PUBLIC 6520 0 __aarch64_ldadd8_relax
PUBLIC 6550 0 init_have_lse_atomics
PUBLIC 65e8 0 __init_cpu_features_constructor
PUBLIC 6b84 0 __init_cpu_features
PUBLIC 6c10 0 __aarch64_ldadd8_acq_rel
PUBLIC 6c40 0 __cxx_global_var_init
PUBLIC 7814 0 geode::modifier::ModifyBase<geode::modifier::ModifyDerive<MyEditorUI, EditorUI> >::~ModifyBase()
PUBLIC 782c 0 geode::modifier::ModifyDerive<MyEditorUI, EditorUI>::apply()
PUBLIC 7c68 0 std::__ndk1::shared_ptr<geode::Hook>::~shared_ptr[abi:ne180000]()
PUBLIC 7cb8 0 geode::impl::ResultData<geode::Hook*, std::__ndk1::basic_string<char, std::__ndk1::char_traits<char>, std::__ndk1::allocator<char> > >::~ResultData()
PUBLIC 7d2c 0 std::__ndk1::vector<std::__ndk1::basic_string<char, std::__ndk1::char_traits<char>, std::__ndk1::allocator<char> >, std::__ndk1::allocator<std::__ndk1::basic_string<char, std::__ndk1::char_traits<char>, std::__ndk1::allocator<char> > > >::~vector[abi:ne180000]()
PUBLIC 7da8 0 geode::modifier::ModifyBase<geode::modifier::ModifyDerive<MyEditorUI, EditorUI> >::apply()
PUBLIC 7dac 0 __clang_call_terminate
PUBLIC 7dbc 0 _ZN5geode15UnwrapExceptionC2IRPNS_4HookEQsr4implE18IsStringStreamableIT_EEENS_4impl5OkTagEOS5_
PUBLIC 7f10 0 std::__ndk1::__throw_bad_variant_access[abi:ne180000]()
PUBLIC 7f44 0 std::__ndk1::basic_stringstream<char, std::__ndk1::char_traits<char>, std::__ndk1::allocator<char> >::basic_stringstream[abi:ne180000]()
PUBLIC m 8070 0 std::__ndk1::basic_stringstream<char, std::__ndk1::char_traits<char>, std::__ndk1::allocator<char> >::~basic_stringstream()
PUBLIC 80f0 0 geode::UnwrapException::~UnwrapException()
PUBLIC 8114 0 std::__ndk1::__put_character_sequence[abi:ne180000]<char, std::__ndk1::char_traits<char> >(std::__ndk1::basic_ostream<char, std::__ndk1::char_traits<char> >, std::__ndk1::basic_ostream const*, unsigned long)
PUBLIC 82b8 0 std::__ndk1::__pad_and_output[abi:ne180000]<char, std::__ndk1::char_traits<char> >(std::__ndk1::char_traits<char>, std::__ndk1::ostreambuf_iterator const*, std::__ndk1::ostreambuf_iterator const, std::__ndk1::ostreambuf_iterator const, std::__ndk1::ios_base&, std::__ndk1::ostreambuf_iterator)
PUBLIC 8494 0 std::__ndk1::basic_string<char, std::__ndk1::char_traits<char>, std::__ndk1::allocator<char> >::__throw_length_error[abi:ne180000]() const
PUBLIC 84a8 0 std::__ndk1::__throw_length_error[abi:ne180000](char const*)
PUBLIC 84f8 0 std::length_error::length_error[abi:ne180000](char const*)
PUBLIC 8528 0 std::__throw_bad_array_new_length([abi:ne180000], void)
PUBLIC 855c 0 std::__ndk1::basic_stringbuf<char, std::__ndk1::char_traits<char>, std::__ndk1::allocator<char> >::str[abi:ne180000]() &&
PUBLIC 86d4 0 std::__ndk1::basic_stringbuf<char, std::__ndk1::char_traits<char>, std::__ndk1::allocator<char> >::__init_buf_ptrs[abi:ne180000]()
PUBLIC 881c 0 std::__ndk1::basic_string<char, std::__ndk1::char_traits<char>, std::__ndk1::allocator<char> >::__init_copy_ctor_external(char const*, unsigned long)
PUBLIC 889c 0 std::__ndk1::__split_buffer<std::__ndk1::basic_string<char, std::__ndk1::char_traits<char>, std::__ndk1::allocator<char> >, std::__ndk1::allocator<std::__ndk1::basic_string<char, std::__ndk1::char_traits<char>, std::__ndk1::allocator<char> > >&>::~__split_buffer()
PUBLIC 8904 0 std::__ndk1::vector<std::__ndk1::basic_string<char, std::__ndk1::char_traits<char>, std::__ndk1::allocator<char> >, std::__ndk1::allocator<std::__ndk1::basic_string<char, std::__ndk1::char_traits<char>, std::__ndk1::allocator<char> > > >::__throw_length_error[abi:ne180000]() const
PUBLIC 8918 0 std::__ndk1::__variant_detail::__visitation::__base::__dispatcher<(unsigned long)0>::__dispatch[abi:ne180000]<std::__ndk1::__variant_detail::__dtor<std::__ndk1::__variant_detail::__traits<geode::Hook*, std::__ndk1::basic_string<char, std::__ndk1::char_traits<char>, std::__ndk1::allocator<char> > >, (std::__ndk1::__variant_detail::_Trait)1>::__destroy[abi:ne180000]()::{lambda(auto:1&)#1}, std::__ndk1::__variant_detail::__base<(std::__ndk1::__variant_detail::__traits<geode::Hook*, std::__ndk1::basic_string<char, std::__ndk1::char_traits<char>, std::__ndk1::allocator<char> > >)1, geode::Hook, std::__ndk1::allocator<char> >&>(std::__ndk1::__variant_detail::__dtor<std::__ndk1::__variant_detail::__traits<geode::Hook*, std::__ndk1::basic_string<char, std::__ndk1::char_traits<char>, std::__ndk1::allocator<char> > >, (std::__ndk1::__variant_detail::_Trait)1>, std::__ndk1::__variant_detail::__base<(std::__ndk1::__variant_detail::__traits<geode::Hook*, std::__ndk1::basic_string<char, std::__ndk1::char_traits<char>, std::__ndk1::allocator<char> > >)1, geode::Hook, std::__ndk1::allocator<char> >&)
PUBLIC 891c 0 std::__ndk1::__variant_detail::__visitation::__base::__dispatcher<(unsigned long)1>::__dispatch[abi:ne180000]<std::__ndk1::__variant_detail::__dtor<std::__ndk1::__variant_detail::__traits<geode::Hook*, std::__ndk1::basic_string<char, std::__ndk1::char_traits<char>, std::__ndk1::allocator<char> > >, (std::__ndk1::__variant_detail::_Trait)1>::__destroy[abi:ne180000]()::{lambda(auto:1&)#1}, std::__ndk1::__variant_detail::__base<(std::__ndk1::__variant_detail::__traits<geode::Hook*, std::__ndk1::basic_string<char, std::__ndk1::char_traits<char>, std::__ndk1::allocator<char> > >)1, geode::Hook, std::__ndk1::allocator<char> >&>(std::__ndk1::__variant_detail::__dtor<std::__ndk1::__variant_detail::__traits<geode::Hook*, std::__ndk1::basic_string<char, std::__ndk1::char_traits<char>, std::__ndk1::allocator<char> > >, (std::__ndk1::__variant_detail::_Trait)1>, std::__ndk1::__variant_detail::__base<(std::__ndk1::__variant_detail::__traits<geode::Hook*, std::__ndk1::basic_string<char, std::__ndk1::char_traits<char>, std::__ndk1::allocator<char> > >)1, geode::Hook, std::__ndk1::allocator<char> >&)
PUBLIC 8930 0 std::__ndk1::__tree<std::__ndk1::__value_type<std::__ndk1::basic_string<char, std::__ndk1::char_traits<char>, std::__ndk1::allocator<char> >, std::__ndk1::shared_ptr<geode::Hook> >, std::__ndk1::__map_value_compare<std::__ndk1::basic_string<char, std::__ndk1::char_traits<char>, std::__ndk1::allocator<char> >, std::__ndk1::__value_type<std::__ndk1::basic_string<char, std::__ndk1::char_traits<char>, std::__ndk1::allocator<char> >, std::__ndk1::shared_ptr<geode::Hook> >, std::__ndk1::less<std::__ndk1::basic_string<char, std::__ndk1::char_traits<char>, std::__ndk1::allocator<char> > >, true>, std::__ndk1::allocator<std::__ndk1::__value_type<std::__ndk1::basic_string<char, std::__ndk1::char_traits<char>, std::__ndk1::allocator<char> >, std::__ndk1::shared_ptr<geode::Hook> > > >::destroy(std::__ndk1::__tree_node<std::__ndk1::__value_type<std::__ndk1::basic_string<char, std::__ndk1::char_traits<char>, std::__ndk1::allocator<char> >, std::__ndk1::shared_ptr<geode::Hook> >, void*>*)
PUBLIC 89b4 0 geode::modifier::AsStaticFunction_createMoveMenu<MyEditorUI, void (MyEditorUI::*)()>::Impl<void (MyEditorUI::*)()>::function(MyEditorUI*)
PUBLIC 8a68 0 std::__ndk1::shared_ptr<tulip::hook::CallingConvention>::~shared_ptr[abi:ne180000]()
PUBLIC 8ab8 0 tulip::hook::HandlerMetadata::~HandlerMetadata()
PUBLIC 8b1c 0 MyEditorUI::onButton(cocos2d::CCObject*)
PUBLIC 90ec 0 MyEditorUI::myUpdate(float)
PUBLIC 9270 0 geode::cocos::CCArrayExt<GameObject*, GameObject>::~CCArrayExt()
PUBLIC 928c 0 geode::Task<geode::Result<std::__ndk1::__fs::filesystem::path, std::__ndk1::basic_string<char, std::__ndk1::char_traits<char>, std::__ndk1::allocator<char> > >, std::__ndk1::monostate>::~Task()
PUBLIC 92dc 0 geode::utils::file::FilePickOptions::~FilePickOptions()
PUBLIC 9364 0 geode::modifier::FieldIntermediate<MyEditorUI, EditorUI>::self()
PUBLIC 99a4 0 geode::modifier::FieldIntermediate<MyEditorUI, EditorUI>::fieldDestructor(void*)
PUBLIC 99a8 0 std::__ndk1::vector<void*, std::__ndk1::allocator<void*> >::__throw_length_error[abi:ne180000]() const
PUBLIC 99bc 0 std::__ndk1::vector<std::__ndk1::function<void (void*)>, std::__ndk1::allocator<std::__ndk1::function<void (void*)> > >::__throw_length_error[abi:ne180000]() const
PUBLIC 99d0 0 std::__ndk1::vector<void*, std::__ndk1::allocator<void*> >::__throw_out_of_range[abi:ne180000]() const
PUBLIC 99dc 0 std::__ndk1::__throw_out_of_range[abi:ne180000](char const*)
PUBLIC 9a2c 0 std::out_of_range::out_of_range[abi:ne180000](char const*)
PUBLIC 9a5c 0 std::__ndk1::vector<std::__ndk1::function<void (void*)>, std::__ndk1::allocator<std::__ndk1::function<void (void*)> > >::__throw_out_of_range[abi:ne180000]() const
PUBLIC 9a68 0 std::__ndk1::__function::__base<void (void*)>::~__base()
PUBLIC 9a6c 0 std::__ndk1::__function::__func<void (*)(void*), std::__ndk1::allocator<void (*)(void*)>, void (void*)>::~__func()
PUBLIC 9a70 0 std::__ndk1::__function::__func<void (*)(void*), std::__ndk1::allocator<void (*)(void*)>, void (void*)>::__clone() const
PUBLIC 9aa8 0 std::__ndk1::__function::__func<void (*)(void*), std::__ndk1::allocator<void (*)(void*)>, void (void*)>::__clone(std::__ndk1::__function::__base<void (void*)>*) const
PUBLIC 9ac0 0 std::__ndk1::__function::__func<void (*)(void*), std::__ndk1::allocator<void (*)(void*)>, void (void*)>::destroy()
PUBLIC 9ac4 0 std::__ndk1::__function::__func<void (*)(void*), std::__ndk1::allocator<void (*)(void*)>, void (void*)>::destroy_deallocate()
PUBLIC 9ac8 0 std::__ndk1::__function::__func<void (*)(void*), std::__ndk1::allocator<void (*)(void*)>, void (void*)>::operator()(void*&&)
PUBLIC 9ad8 0 std::__ndk1::__function::__func<void (*)(void*), std::__ndk1::allocator<void (*)(void*)>, void (void*)>::target(std::type_info const&) const
PUBLIC 9af4 0 std::__ndk1::__function::__func<void (*)(void*), std::__ndk1::allocator<void (*)(void*)>, void (void*)>::target_type() const
PUBLIC 9b00 0 geode::EventListener<geode::Task<geode::Result<std::__ndk1::__fs::filesystem::path, std::__ndk1::basic_string<char, std::__ndk1::char_traits<char>, std::__ndk1::allocator<char> > >, std::__ndk1::monostate> >::getPool() const
PUBLIC 9b04 0 geode::EventListener<geode::Task<geode::Result<std::__ndk1::__fs::filesystem::path, std::__ndk1::basic_string<char, std::__ndk1::char_traits<char>, std::__ndk1::allocator<char> > >, std::__ndk1::monostate> >::handle(geode::Event*)
PUBLIC 9ca8 0 geode::EventListener<geode::Task<geode::Result<std::__ndk1::__fs::filesystem::path, std::__ndk1::basic_string<char, std::__ndk1::char_traits<char>, std::__ndk1::allocator<char> > >, std::__ndk1::monostate> >::~EventListener()
PUBLIC 9d44 0 geode::EventListener<geode::Task<geode::Result<std::__ndk1::__fs::filesystem::path, std::__ndk1::basic_string<char, std::__ndk1::char_traits<char>, std::__ndk1::allocator<char> > >, std::__ndk1::monostate> >::~EventListener()
PUBLIC 9de8 0 geode::Task<geode::Result<std::__ndk1::__fs::filesystem::path, std::__ndk1::basic_string<char, std::__ndk1::char_traits<char>, std::__ndk1::allocator<char> > >, std::__ndk1::monostate>::setListener(geode::EventListenerProtocol*)::{lambda()#1}::~{lambda()#1}()
PUBLIC 9e38 0 std::__ndk1::__function::__func<geode::Task<geode::Result<std::__ndk1::__fs::filesystem::path, std::__ndk1::basic_string<char, std::__ndk1::char_traits<char>, std::__ndk1::allocator<char> > >, std::__ndk1::monostate>::setListener(geode::EventListenerProtocol*)::{lambda()#1}, std::__ndk1::allocator<geode::Task<geode::Result<std::__ndk1::__fs::filesystem::path, std::__ndk1::basic_string<char, std::__ndk1::char_traits<char>, std::__ndk1::allocator<char> > >, std::__ndk1::monostate>::setListener(geode::EventListenerProtocol*)::{lambda()#1}>, void ()>::~__func()
PUBLIC 9e94 0 std::__ndk1::__function::__func<geode::Task<geode::Result<std::__ndk1::__fs::filesystem::path, std::__ndk1::basic_string<char, std::__ndk1::char_traits<char>, std::__ndk1::allocator<char> > >, std::__ndk1::monostate>::setListener(geode::EventListenerProtocol*)::{lambda()#1}, std::__ndk1::allocator<geode::Task<geode::Result<std::__ndk1::__fs::filesystem::path, std::__ndk1::basic_string<char, std::__ndk1::char_traits<char>, std::__ndk1::allocator<char> > >, std::__ndk1::monostate>::setListener(geode::EventListenerProtocol*)::{lambda()#1}>, void ()>::~__func()
PUBLIC 9f00 0 std::__ndk1::__function::__func<geode::Task<geode::Result<std::__ndk1::__fs::filesystem::path, std::__ndk1::basic_string<char, std::__ndk1::char_traits<char>, std::__ndk1::allocator<char> > >, std::__ndk1::monostate>::setListener(geode::EventListenerProtocol*)::{lambda()#1}, std::__ndk1::allocator<geode::Task<geode::Result<std::__ndk1::__fs::filesystem::path, std::__ndk1::basic_string<char, std::__ndk1::char_traits<char>, std::__ndk1::allocator<char> > >, std::__ndk1::monostate>::setListener(geode::EventListenerProtocol*)::{lambda()#1}>, void ()>::__clone() const
PUBLIC 9f58 0 std::__ndk1::__function::__func<geode::Task<geode::Result<std::__ndk1::__fs::filesystem::path, std::__ndk1::basic_string<char, std::__ndk1::char_traits<char>, std::__ndk1::allocator<char> > >, std::__ndk1::monostate>::setListener(geode::EventListenerProtocol*)::{lambda()#1}, std::__ndk1::allocator<geode::Task<geode::Result<std::__ndk1::__fs::filesystem::path, std::__ndk1::basic_string<char, std::__ndk1::char_traits<char>, std::__ndk1::allocator<char> > >, std::__ndk1::monostate>::setListener(geode::EventListenerProtocol*)::{lambda()#1}>, void ()>::__clone(std::__ndk1::__function::__base<void ()>*) const
PUBLIC 9fa4 0 std::__ndk1::__function::__func<geode::Task<geode::Result<std::__ndk1::__fs::filesystem::path, std::__ndk1::basic_string<char, std::__ndk1::char_traits<char>, std::__ndk1::allocator<char> > >, std::__ndk1::monostate>::setListener(geode::EventListenerProtocol*)::{lambda()#1}, std::__ndk1::allocator<geode::Task<geode::Result<std::__ndk1::__fs::filesystem::path, std::__ndk1::basic_string<char, std::__ndk1::char_traits<char>, std::__ndk1::allocator<char> > >, std::__ndk1::monostate>::setListener(geode::EventListenerProtocol*)::{lambda()#1}>, void ()>::destroy()
PUBLIC 9ff4 0 std::__ndk1::__function::__func<geode::Task<geode::Result<std::__ndk1::__fs::filesystem::path, std::__ndk1::basic_string<char, std::__ndk1::char_traits<char>, std::__ndk1::allocator<char> > >, std::__ndk1::monostate>::setListener(geode::EventListenerProtocol*)::{lambda()#1}, std::__ndk1::allocator<geode::Task<geode::Result<std::__ndk1::__fs::filesystem::path, std::__ndk1::basic_string<char, std::__ndk1::char_traits<char>, std::__ndk1::allocator<char> > >, std::__ndk1::monostate>::setListener(geode::EventListenerProtocol*)::{lambda()#1}>, void ()>::destroy_deallocate()
PUBLIC a054 0 std::__ndk1::__function::__func<geode::Task<geode::Result<std::__ndk1::__fs::filesystem::path, std::__ndk1::basic_string<char, std::__ndk1::char_traits<char>, std::__ndk1::allocator<char> > >, std::__ndk1::monostate>::setListener(geode::EventListenerProtocol*)::{lambda()#1}, std::__ndk1::allocator<geode::Task<geode::Result<std::__ndk1::__fs::filesystem::path, std::__ndk1::basic_string<char, std::__ndk1::char_traits<char>, std::__ndk1::allocator<char> > >, std::__ndk1::monostate>::setListener(geode::EventListenerProtocol*)::{lambda()#1}>, void ()>::operator()()
PUBLIC a224 0 std::__ndk1::__function::__func<geode::Task<geode::Result<std::__ndk1::__fs::filesystem::path, std::__ndk1::basic_string<char, std::__ndk1::char_traits<char>, std::__ndk1::allocator<char> > >, std::__ndk1::monostate>::setListener(geode::EventListenerProtocol*)::{lambda()#1}, std::__ndk1::allocator<geode::Task<geode::Result<std::__ndk1::__fs::filesystem::path, std::__ndk1::basic_string<char, std::__ndk1::char_traits<char>, std::__ndk1::allocator<char> > >, std::__ndk1::monostate>::setListener(geode::EventListenerProtocol*)::{lambda()#1}>, void ()>::target(std::type_info const&) const
PUBLIC a240 0 std::__ndk1::__function::__func<geode::Task<geode::Result<std::__ndk1::__fs::filesystem::path, std::__ndk1::basic_string<char, std::__ndk1::char_traits<char>, std::__ndk1::allocator<char> > >, std::__ndk1::monostate>::setListener(geode::EventListenerProtocol*)::{lambda()#1}, std::__ndk1::allocator<geode::Task<geode::Result<std::__ndk1::__fs::filesystem::path, std::__ndk1::basic_string<char, std::__ndk1::char_traits<char>, std::__ndk1::allocator<char> > >, std::__ndk1::monostate>::setListener(geode::EventListenerProtocol*)::{lambda()#1}>, void ()>::target_type() const
PUBLIC a24c 0 geode::Task<geode::Result<std::__ndk1::__fs::filesystem::path, std::__ndk1::basic_string<char, std::__ndk1::char_traits<char>, std::__ndk1::allocator<char> > >, std::__ndk1::monostate>::Event::~Event()
PUBLIC a2ac 0 geode::Task<geode::Result<std::__ndk1::__fs::filesystem::path, std::__ndk1::basic_string<char, std::__ndk1::char_traits<char>, std::__ndk1::allocator<char> > >, std::__ndk1::monostate>::Event::~Event()
PUBLIC a31c 0 std::__ndk1::__function::__func<geode::Task<geode::Result<std::__ndk1::__fs::filesystem::path, std::__ndk1::basic_string<char, std::__ndk1::char_traits<char>, std::__ndk1::allocator<char> > >, std::__ndk1::monostate>::setListener(geode::EventListenerProtocol*)::{lambda()#2}, std::__ndk1::allocator<geode::Task<geode::Result<std::__ndk1::__fs::filesystem::path, std::__ndk1::basic_string<char, std::__ndk1::char_traits<char>, std::__ndk1::allocator<char> > >, std::__ndk1::monostate>::setListener(geode::EventListenerProtocol*)::{lambda()#2}>, void ()>::~__func()
PUBLIC a378 0 std::__ndk1::__function::__func<geode::Task<geode::Result<std::__ndk1::__fs::filesystem::path, std::__ndk1::basic_string<char, std::__ndk1::char_traits<char>, std::__ndk1::allocator<char> > >, std::__ndk1::monostate>::setListener(geode::EventListenerProtocol*)::{lambda()#2}, std::__ndk1::allocator<geode::Task<geode::Result<std::__ndk1::__fs::filesystem::path, std::__ndk1::basic_string<char, std::__ndk1::char_traits<char>, std::__ndk1::allocator<char> > >, std::__ndk1::monostate>::setListener(geode::EventListenerProtocol*)::{lambda()#2}>, void ()>::~__func()
PUBLIC a3e4 0 std::__ndk1::__function::__func<geode::Task<geode::Result<std::__ndk1::__fs::filesystem::path, std::__ndk1::basic_string<char, std::__ndk1::char_traits<char>, std::__ndk1::allocator<char> > >, std::__ndk1::monostate>::setListener(geode::EventListenerProtocol*)::{lambda()#2}, std::__ndk1::allocator<geode::Task<geode::Result<std::__ndk1::__fs::filesystem::path, std::__ndk1::basic_string<char, std::__ndk1::char_traits<char>, std::__ndk1::allocator<char> > >, std::__ndk1::monostate>::setListener(geode::EventListenerProtocol*)::{lambda()#2}>, void ()>::__clone() const
PUBLIC a43c 0 std::__ndk1::__function::__func<geode::Task<geode::Result<std::__ndk1::__fs::filesystem::path, std::__ndk1::basic_string<char, std::__ndk1::char_traits<char>, std::__ndk1::allocator<char> > >, std::__ndk1::monostate>::setListener(geode::EventListenerProtocol*)::{lambda()#2}, std::__ndk1::allocator<geode::Task<geode::Result<std::__ndk1::__fs::filesystem::path, std::__ndk1::basic_string<char, std::__ndk1::char_traits<char>, std::__ndk1::allocator<char> > >, std::__ndk1::monostate>::setListener(geode::EventListenerProtocol*)::{lambda()#2}>, void ()>::__clone(std::__ndk1::__function::__base<void ()>*) const
PUBLIC a488 0 std::__ndk1::__function::__func<geode::Task<geode::Result<std::__ndk1::__fs::filesystem::path, std::__ndk1::basic_string<char, std::__ndk1::char_traits<char>, std::__ndk1::allocator<char> > >, std::__ndk1::monostate>::setListener(geode::EventListenerProtocol*)::{lambda()#2}, std::__ndk1::allocator<geode::Task<geode::Result<std::__ndk1::__fs::filesystem::path, std::__ndk1::basic_string<char, std::__ndk1::char_traits<char>, std::__ndk1::allocator<char> > >, std::__ndk1::monostate>::setListener(geode::EventListenerProtocol*)::{lambda()#2}>, void ()>::destroy()
PUBLIC a4d8 0 std::__ndk1::__function::__func<geode::Task<geode::Result<std::__ndk1::__fs::filesystem::path, std::__ndk1::basic_string<char, std::__ndk1::char_traits<char>, std::__ndk1::allocator<char> > >, std::__ndk1::monostate>::setListener(geode::EventListenerProtocol*)::{lambda()#2}, std::__ndk1::allocator<geode::Task<geode::Result<std::__ndk1::__fs::filesystem::path, std::__ndk1::basic_string<char, std::__ndk1::char_traits<char>, std::__ndk1::allocator<char> > >, std::__ndk1::monostate>::setListener(geode::EventListenerProtocol*)::{lambda()#2}>, void ()>::destroy_deallocate()
PUBLIC a538 0 std::__ndk1::__function::__func<geode::Task<geode::Result<std::__ndk1::__fs::filesystem::path, std::__ndk1::basic_string<char, std::__ndk1::char_traits<char>, std::__ndk1::allocator<char> > >, std::__ndk1::monostate>::setListener(geode::EventListenerProtocol*)::{lambda()#2}, std::__ndk1::allocator<geode::Task<geode::Result<std::__ndk1::__fs::filesystem::path, std::__ndk1::basic_string<char, std::__ndk1::char_traits<char>, std::__ndk1::allocator<char> > >, std::__ndk1::monostate>::setListener(geode::EventListenerProtocol*)::{lambda()#2}>, void ()>::operator()()
PUBLIC a6fc 0 std::__ndk1::__function::__func<geode::Task<geode::Result<std::__ndk1::__fs::filesystem::path, std::__ndk1::basic_string<char, std::__ndk1::char_traits<char>, std::__ndk1::allocator<char> > >, std::__ndk1::monostate>::setListener(geode::EventListenerProtocol*)::{lambda()#2}, std::__ndk1::allocator<geode::Task<geode::Result<std::__ndk1::__fs::filesystem::path, std::__ndk1::basic_string<char, std::__ndk1::char_traits<char>, std::__ndk1::allocator<char> > >, std::__ndk1::monostate>::setListener(geode::EventListenerProtocol*)::{lambda()#2}>, void ()>::target(std::type_info const&) const
PUBLIC a718 0 std::__ndk1::__function::__func<geode::Task<geode::Result<std::__ndk1::__fs::filesystem::path, std::__ndk1::basic_string<char, std::__ndk1::char_traits<char>, std::__ndk1::allocator<char> > >, std::__ndk1::monostate>::setListener(geode::EventListenerProtocol*)::{lambda()#2}, std::__ndk1::allocator<geode::Task<geode::Result<std::__ndk1::__fs::filesystem::path, std::__ndk1::basic_string<char, std::__ndk1::char_traits<char>, std::__ndk1::allocator<char> > >, std::__ndk1::monostate>::setListener(geode::EventListenerProtocol*)::{lambda()#2}>, void ()>::target_type() const
PUBLIC a724 0 geode::cast::traverseTypeinfoFor(void*, geode::cast::ClassTypeinfoType const*, char const*)
PUBLIC a820 0 std::__ndk1::__throw_bad_function_call[abi:ne180000]()
PUBLIC a854 0 std::__ndk1::bad_function_call::~bad_function_call()
PUBLIC a878 0 std::__ndk1::__function::__base<void (geode::Task<geode::Result<std::__ndk1::__fs::filesystem::path, std::__ndk1::basic_string<char, std::__ndk1::char_traits<char>, std::__ndk1::allocator<char> > >, std::__ndk1::monostate>::Event*)>::~__base()
PUBLIC a87c 0 _ZNSt6__ndk110__function6__funcIZNK5geode4TaskINS2_6ResultINS_4__fs10filesystem4pathENS_12basic_stringIcNS_11char_traitsIcEENS_9allocatorIcEEEEEENS_9monostateEE6listenIZN10MyEditorUI8onButtonEPN7cocos2d8CCObjectEEUlPSE_E_ZNKSG_6listenISN_EEvOT_EUlRKSP_E_ZNKSO_ISN_EEvSQ_EUlvE_EEvSQ_OT0_OT1_EUlPNSG_5EventEE_NSB_IS11_EEFvS10_EED0Ev
PUBLIC a880 0 _ZNKSt6__ndk110__function6__funcIZNK5geode4TaskINS2_6ResultINS_4__fs10filesystem4pathENS_12basic_stringIcNS_11char_traitsIcEENS_9allocatorIcEEEEEENS_9monostateEE6listenIZN10MyEditorUI8onButtonEPN7cocos2d8CCObjectEEUlPSE_E_ZNKSG_6listenISN_EEvOT_EUlRKSP_E_ZNKSO_ISN_EEvSQ_EUlvE_EEvSQ_OT0_OT1_EUlPNSG_5EventEE_NSB_IS11_EEFvS10_EE7__cloneEv
PUBLIC a8c0 0 _ZNKSt6__ndk110__function6__funcIZNK5geode4TaskINS2_6ResultINS_4__fs10filesystem4pathENS_12basic_stringIcNS_11char_traitsIcEENS_9allocatorIcEEEEEENS_9monostateEE6listenIZN10MyEditorUI8onButtonEPN7cocos2d8CCObjectEEUlPSE_E_ZNKSG_6listenISN_EEvOT_EUlRKSP_E_ZNKSO_ISN_EEvSQ_EUlvE_EEvSQ_OT0_OT1_EUlPNSG_5EventEE_NSB_IS11_EEFvS10_EE7__cloneEPNS0_6__baseIS13_EE
PUBLIC a8e0 0 _ZNSt6__ndk110__function6__funcIZNK5geode4TaskINS2_6ResultINS_4__fs10filesystem4pathENS_12basic_stringIcNS_11char_traitsIcEENS_9allocatorIcEEEEEENS_9monostateEE6listenIZN10MyEditorUI8onButtonEPN7cocos2d8CCObjectEEUlPSE_E_ZNKSG_6listenISN_EEvOT_EUlRKSP_E_ZNKSO_ISN_EEvSQ_EUlvE_EEvSQ_OT0_OT1_EUlPNSG_5EventEE_NSB_IS11_EEFvS10_EE7destroyEv
PUBLIC a8e4 0 _ZNSt6__ndk110__function6__funcIZNK5geode4TaskINS2_6ResultINS_4__fs10filesystem4pathENS_12basic_stringIcNS_11char_traitsIcEENS_9allocatorIcEEEEEENS_9monostateEE6listenIZN10MyEditorUI8onButtonEPN7cocos2d8CCObjectEEUlPSE_E_ZNKSG_6listenISN_EEvOT_EUlRKSP_E_ZNKSO_ISN_EEvSQ_EUlvE_EEvSQ_OT0_OT1_EUlPNSG_5EventEE_NSB_IS11_EEFvS10_EE18destroy_deallocateEv
PUBLIC a8e8 0 _ZNSt6__ndk110__function6__funcIZNK5geode4TaskINS2_6ResultINS_4__fs10filesystem4pathENS_12basic_stringIcNS_11char_traitsIcEENS_9allocatorIcEEEEEENS_9monostateEE6listenIZN10MyEditorUI8onButtonEPN7cocos2d8CCObjectEEUlPSE_E_ZNKSG_6listenISN_EEvOT_EUlRKSP_E_ZNKSO_ISN_EEvSQ_EUlvE_EEvSQ_OT0_OT1_EUlPNSG_5EventEE_NSB_IS11_EEFvS10_EEclEOS10_
PUBLIC ac24 0 _ZNKSt6__ndk110__function6__funcIZNK5geode4TaskINS2_6ResultINS_4__fs10filesystem4pathENS_12basic_stringIcNS_11char_traitsIcEENS_9allocatorIcEEEEEENS_9monostateEE6listenIZN10MyEditorUI8onButtonEPN7cocos2d8CCObjectEEUlPSE_E_ZNKSG_6listenISN_EEvOT_EUlRKSP_E_ZNKSO_ISN_EEvSQ_EUlvE_EEvSQ_OT0_OT1_EUlPNSG_5EventEE_NSB_IS11_EEFvS10_EE6targetERKSt9type_info
PUBLIC ac40 0 _ZNKSt6__ndk110__function6__funcIZNK5geode4TaskINS2_6ResultINS_4__fs10filesystem4pathENS_12basic_stringIcNS_11char_traitsIcEENS_9allocatorIcEEEEEENS_9monostateEE6listenIZN10MyEditorUI8onButtonEPN7cocos2d8CCObjectEEUlPSE_E_ZNKSG_6listenISN_EEvOT_EUlRKSP_E_ZNKSO_ISN_EEvSQ_EUlvE_EEvSQ_OT0_OT1_EUlPNSG_5EventEE_NSB_IS11_EEFvS10_EE11target_typeEv
PUBLIC ac4c 0 std::__ndk1::__function::__base<void ()>::~__base()
PUBLIC ac50 0 _ZNSt6__ndk110__function6__funcIZZNK5geode4TaskINS2_6ResultINS_4__fs10filesystem4pathENS_12basic_stringIcNS_11char_traitsIcEENS_9allocatorIcEEEEEENS_9monostateEE6listenIZN10MyEditorUI8onButtonEPN7cocos2d8CCObjectEEUlPSE_E_ZNKSG_6listenISN_EEvOT_EUlRKSP_E_ZNKSO_ISN_EEvSQ_EUlvE_EEvSQ_OT0_OT1_ENUlPNSG_5EventEE_clES10_EUlvE_NSB_IS12_EEFvvEED0Ev
PUBLIC ac54 0 _ZNKSt6__ndk110__function6__funcIZZNK5geode4TaskINS2_6ResultINS_4__fs10filesystem4pathENS_12basic_stringIcNS_11char_traitsIcEENS_9allocatorIcEEEEEENS_9monostateEE6listenIZN10MyEditorUI8onButtonEPN7cocos2d8CCObjectEEUlPSE_E_ZNKSG_6listenISN_EEvOT_EUlRKSP_E_ZNKSO_ISN_EEvSQ_EUlvE_EEvSQ_OT0_OT1_ENUlPNSG_5EventEE_clES10_EUlvE_NSB_IS12_EEFvvEE7__cloneEv
PUBLIC ac88 0 _ZNKSt6__ndk110__function6__funcIZZNK5geode4TaskINS2_6ResultINS_4__fs10filesystem4pathENS_12basic_stringIcNS_11char_traitsIcEENS_9allocatorIcEEEEEENS_9monostateEE6listenIZN10MyEditorUI8onButtonEPN7cocos2d8CCObjectEEUlPSE_E_ZNKSG_6listenISN_EEvOT_EUlRKSP_E_ZNKSO_ISN_EEvSQ_EUlvE_EEvSQ_OT0_OT1_ENUlPNSG_5EventEE_clES10_EUlvE_NSB_IS12_EEFvvEE7__cloneEPNS0_6__baseIS14_EE
PUBLIC ac9c 0 _ZNSt6__ndk110__function6__funcIZZNK5geode4TaskINS2_6ResultINS_4__fs10filesystem4pathENS_12basic_stringIcNS_11char_traitsIcEENS_9allocatorIcEEEEEENS_9monostateEE6listenIZN10MyEditorUI8onButtonEPN7cocos2d8CCObjectEEUlPSE_E_ZNKSG_6listenISN_EEvOT_EUlRKSP_E_ZNKSO_ISN_EEvSQ_EUlvE_EEvSQ_OT0_OT1_ENUlPNSG_5EventEE_clES10_EUlvE_NSB_IS12_EEFvvEE7destroyEv
PUBLIC aca0 0 _ZNSt6__ndk110__function6__funcIZZNK5geode4TaskINS2_6ResultINS_4__fs10filesystem4pathENS_12basic_stringIcNS_11char_traitsIcEENS_9allocatorIcEEEEEENS_9monostateEE6listenIZN10MyEditorUI8onButtonEPN7cocos2d8CCObjectEEUlPSE_E_ZNKSG_6listenISN_EEvOT_EUlRKSP_E_ZNKSO_ISN_EEvSQ_EUlvE_EEvSQ_OT0_OT1_ENUlPNSG_5EventEE_clES10_EUlvE_NSB_IS12_EEFvvEE18destroy_deallocateEv
PUBLIC aca4 0 _ZNSt6__ndk110__function6__funcIZZNK5geode4TaskINS2_6ResultINS_4__fs10filesystem4pathENS_12basic_stringIcNS_11char_traitsIcEENS_9allocatorIcEEEEEENS_9monostateEE6listenIZN10MyEditorUI8onButtonEPN7cocos2d8CCObjectEEUlPSE_E_ZNKSG_6listenISN_EEvOT_EUlRKSP_E_ZNKSO_ISN_EEvSQ_EUlvE_EEvSQ_OT0_OT1_ENUlPNSG_5EventEE_clES10_EUlvE_NSB_IS12_EEFvvEEclEv
PUBLIC acbc 0 _ZNKSt6__ndk110__function6__funcIZZNK5geode4TaskINS2_6ResultINS_4__fs10filesystem4pathENS_12basic_stringIcNS_11char_traitsIcEENS_9allocatorIcEEEEEENS_9monostateEE6listenIZN10MyEditorUI8onButtonEPN7cocos2d8CCObjectEEUlPSE_E_ZNKSG_6listenISN_EEvOT_EUlRKSP_E_ZNKSO_ISN_EEvSQ_EUlvE_EEvSQ_OT0_OT1_ENUlPNSG_5EventEE_clES10_EUlvE_NSB_IS12_EEFvvEE6targetERKSt9type_info
PUBLIC acd8 0 _ZNKSt6__ndk110__function6__funcIZZNK5geode4TaskINS2_6ResultINS_4__fs10filesystem4pathENS_12basic_stringIcNS_11char_traitsIcEENS_9allocatorIcEEEEEENS_9monostateEE6listenIZN10MyEditorUI8onButtonEPN7cocos2d8CCObjectEEUlPSE_E_ZNKSG_6listenISN_EEvOT_EUlRKSP_E_ZNKSO_ISN_EEvSQ_EUlvE_EEvSQ_OT0_OT1_ENUlPNSG_5EventEE_clES10_EUlvE_NSB_IS12_EEFvvEE11target_typeEv
PUBLIC ace4 0 std::__ndk1::vector<geode::utils::file::FilePickOptions::Filter, std::__ndk1::allocator<geode::utils::file::FilePickOptions::Filter> >::__destroy_vector::operator()[abi:ne180000]()
PUBLIC adc8 0 std::__ndk1::__tree_balance_after_insert[abi:ne180000]<std::__ndk1::__tree_node_base<void*>*>(std::__ndk1::__tree_node_base<void*>*, std::__ndk1::__tree_node_base<void*>*)
PUBLIC m af78 0 geodeImplicitEntry
PUBLIC afb4 0 wrapFunction(unsigned long, tulip::hook::WrapperMetadata const&)
PUBLIC b0e8 0 geode::impl::ResultData<void*, std::__ndk1::basic_string<char, std::__ndk1::char_traits<char>, std::__ndk1::allocator<char> > >::unwrapErr() &
PUBLIC b160 0 geode::impl::ResultData<void*, std::__ndk1::basic_string<char, std::__ndk1::char_traits<char>, std::__ndk1::allocator<char> > >::~ResultData()
PUBLIC b1d4 0 tulip::hook::WrapperMetadata::~WrapperMetadata()
PUBLIC b238 0 FLAlertLayer::create(FLAlertLayerProtocol*, char const*, gd::string, char const*, char const*, float)
PUBLIC b3f0 0 tulip::hook::AbstractFunction::from<FLAlertLayer*, FLAlertLayerProtocol*, char const*, gd::string, char const*, char const*, float>(FLAlertLayer* (*)(FLAlertLayerProtocol*, char const*, gd::string, char const*, char const*, float))
PUBLIC b55c 0 _ZN5geode15UnwrapExceptionC2IRPvQsr4implE18IsStringStreamableIT_EEENS_4impl5OkTagEOS4_
PUBLIC b6b0 0 _ZN5geode15UnwrapExceptionC2IRNSt6__ndk112basic_stringIcNS2_11char_traitsIcEENS2_9allocatorIcEEEEQsr4implE18IsStringStreamableIT_EEENS_4impl6ErrTagEOSA_
PUBLIC b818 0 std::__ndk1::__variant_detail::__visitation::__base::__dispatcher<(unsigned long)0>::__dispatch[abi:ne180000]<std::__ndk1::__variant_detail::__dtor<std::__ndk1::__variant_detail::__traits<void*, std::__ndk1::basic_string<char, std::__ndk1::char_traits<char>, std::__ndk1::allocator<char> > >, (std::__ndk1::__variant_detail::_Trait)1>::__destroy[abi:ne180000]()::{lambda(auto:1&)#1}, std::__ndk1::__variant_detail::__base<(std::__ndk1::__variant_detail::__traits<void*, std::__ndk1::basic_string<char, std::__ndk1::char_traits<char>, std::__ndk1::allocator<char> > >)1, std::__ndk1::__variant_detail::__traits, std::__ndk1::allocator<char> >&>(std::__ndk1::__variant_detail::__dtor<std::__ndk1::__variant_detail::__traits<void*, std::__ndk1::basic_string<char, std::__ndk1::char_traits<char>, std::__ndk1::allocator<char> > >, (std::__ndk1::__variant_detail::_Trait)1>, std::__ndk1::__variant_detail::__base<(std::__ndk1::__variant_detail::__traits<void*, std::__ndk1::basic_string<char, std::__ndk1::char_traits<char>, std::__ndk1::allocator<char> > >)1, std::__ndk1::__variant_detail::__traits, std::__ndk1::allocator<char> >&)
PUBLIC b81c 0 std::__ndk1::__variant_detail::__visitation::__base::__dispatcher<(unsigned long)1>::__dispatch[abi:ne180000]<std::__ndk1::__variant_detail::__dtor<std::__ndk1::__variant_detail::__traits<void*, std::__ndk1::basic_string<char, std::__ndk1::char_traits<char>, std::__ndk1::allocator<char> > >, (std::__ndk1::__variant_detail::_Trait)1>::__destroy[abi:ne180000]()::{lambda(auto:1&)#1}, std::__ndk1::__variant_detail::__base<(std::__ndk1::__variant_detail::__traits<void*, std::__ndk1::basic_string<char, std::__ndk1::char_traits<char>, std::__ndk1::allocator<char> > >)1, std::__ndk1::__variant_detail::__traits, std::__ndk1::allocator<char> >&>(std::__ndk1::__variant_detail::__dtor<std::__ndk1::__variant_detail::__traits<void*, std::__ndk1::basic_string<char, std::__ndk1::char_traits<char>, std::__ndk1::allocator<char> > >, (std::__ndk1::__variant_detail::_Trait)1>, std::__ndk1::__variant_detail::__base<(std::__ndk1::__variant_detail::__traits<void*, std::__ndk1::basic_string<char, std::__ndk1::char_traits<char>, std::__ndk1::allocator<char> > >)1, std::__ndk1::__variant_detail::__traits, std::__ndk1::allocator<char> >&)
PUBLIC b830 0 <.plt ELF section in mat.reference-image.android64.so>
STACK CFI INIT 64c0 10 .cfa: sp 0 +
STACK CFI INIT 64d0 8 .cfa: sp 0 +
STACK CFI INIT 64d8 8 .cfa: sp 0 +
STACK CFI INIT 64e0 14 .cfa: sp 0 +
STACK CFI INIT 64f4 1c .cfa: sp 0 +
STACK CFI INIT 6510 10 .cfa: sp 0 +
STACK CFI INIT 6520 30 .cfa: sp 0 +
STACK CFI INIT 6550 98 .cfa: sp 0 +
STACK CFI INIT 65e8 59c .cfa: sp 0 +
STACK CFI INIT 6b84 8c .cfa: sp 0 +
STACK CFI INIT 6c10 30 .cfa: sp 0 +
STACK CFI INIT 7814 18 .cfa: sp 0 +
STACK CFI INIT 7c68 50 .cfa: sp 0 +
STACK CFI 7c6c .cfa: sp 32 +
STACK CFI 7c74 .cfa: x29 32 + x19: .cfa -16 + ^ .ra: .cfa -24 + ^ x29: .cfa -32 + ^
STACK CFI 7c8c .cfa: sp 32 +
STACK CFI 7c94 .cfa: sp 0 +
STACK CFI 7c98 .cfa: x29 32 +
STACK CFI 7cac .cfa: sp 32 +
STACK CFI 7cb4 .cfa: sp 0 +
STACK CFI INIT 7d2c 7c .cfa: sp 0 +
STACK CFI 7d30 .cfa: sp 48 +
STACK CFI 7d3c .cfa: x29 48 + x19: .cfa -8 + ^ x20: .cfa -16 + ^ x21: .cfa -32 + ^ .ra: .cfa -40 + ^ x29: .cfa -48 + ^
STACK CFI 7d88 .cfa: sp 48 +
STACK CFI 7d94 .cfa: sp 0 +
STACK CFI 7d98 .cfa: sp 48 +
STACK CFI 7da4 .cfa: sp 0 +
STACK CFI INIT 7da8 4 .cfa: sp 0 +
STACK CFI INIT 7dac 10 .cfa: sp 0 +
STACK CFI 7db0 .cfa: sp 16 +
STACK CFI 7db4 .cfa: x29 16 + .ra: .cfa -8 + ^ x29: .cfa -16 + ^
STACK CFI INIT 7f10 34 .cfa: sp 0 +
STACK CFI 7f14 .cfa: sp 16 +
STACK CFI 7f18 .cfa: x29 16 + .ra: .cfa -8 + ^ x29: .cfa -16 + ^
STACK CFI INIT 8070 80 .cfa: sp 0 +
STACK CFI 8074 .cfa: sp 48 +
STACK CFI 8080 .cfa: x29 48 + x19: .cfa -8 + ^ x20: .cfa -16 + ^ x21: .cfa -32 + ^ .ra: .cfa -40 + ^ x29: .cfa -48 + ^
STACK CFI 80e0 .cfa: sp 48 +
STACK CFI 80ec .cfa: sp 0 +
STACK CFI INIT 80f0 24 .cfa: sp 0 +
STACK CFI 80f4 .cfa: sp 32 +
STACK CFI 80fc .cfa: x29 32 + x19: .cfa -16 + ^ .ra: .cfa -24 + ^ x29: .cfa -32 + ^
STACK CFI 8108 .cfa: sp 32 +
STACK CFI 8110 .cfa: sp 0 +
STACK CFI INIT 8494 14 .cfa: sp 0 +
STACK CFI 8498 .cfa: sp 16 +
STACK CFI 849c .cfa: x29 16 + .ra: .cfa -8 + ^ x29: .cfa -16 + ^
STACK CFI INIT 84f8 30 .cfa: sp 0 +
STACK CFI 84fc .cfa: sp 32 +
STACK CFI 8504 .cfa: x29 32 + x19: .cfa -16 + ^ .ra: .cfa -24 + ^ x29: .cfa -32 + ^
STACK CFI 851c .cfa: sp 32 +
STACK CFI 8524 .cfa: sp 0 +
STACK CFI INIT 8528 34 .cfa: sp 0 +
STACK CFI 852c .cfa: sp 32 +
STACK CFI 8534 .cfa: x29 32 + x19: .cfa -16 + ^ .ra: .cfa -24 + ^ x29: .cfa -32 + ^
STACK CFI INIT 86d4 148 .cfa: sp 0 +
STACK CFI 86d8 .cfa: sp 48 +
STACK CFI 86e4 .cfa: x29 48 + x19: .cfa -8 + ^ x20: .cfa -16 + ^ x21: .cfa -32 + ^ .ra: .cfa -40 + ^ x29: .cfa -48 + ^
STACK CFI 880c .cfa: sp 48 +
STACK CFI 8818 .cfa: sp 0 +
STACK CFI INIT 881c 80 .cfa: sp 0 +
STACK CFI 8820 .cfa: sp 48 +
STACK CFI 882c .cfa: x29 48 + x19: .cfa -8 + ^ x20: .cfa -16 + ^ x21: .cfa -24 + ^ x22: .cfa -32 + ^ .ra: .cfa -40 + ^ x29: .cfa -48 + ^
STACK CFI 8844 .cfa: sp 48 +
STACK CFI 8850 .cfa: sp 0 +
STACK CFI 8854 .cfa: x29 48 +
STACK CFI 8884 .cfa: sp 48 +
STACK CFI 8890 .cfa: sp 0 +
STACK CFI 8894 .cfa: x29 48 +
STACK CFI INIT 889c 68 .cfa: sp 0 +
STACK CFI 88a0 .cfa: sp 32 +
STACK CFI 88a8 .cfa: x29 32 + x19: .cfa -8 + ^ x20: .cfa -16 + ^ .ra: .cfa -24 + ^ x29: .cfa -32 + ^
STACK CFI 88c0 .cfa: sp 32 +
STACK CFI 88c8 .cfa: sp 0 +
STACK CFI 88cc .cfa: x29 32 +
STACK CFI 88f8 .cfa: sp 32 +
STACK CFI 8900 .cfa: sp 0 +
STACK CFI INIT 8904 14 .cfa: sp 0 +
STACK CFI 8908 .cfa: sp 16 +
STACK CFI 890c .cfa: x29 16 + .ra: .cfa -8 + ^ x29: .cfa -16 + ^
STACK CFI INIT 8918 4 .cfa: sp 0 +
STACK CFI INIT 891c 14 .cfa: sp 0 +
STACK CFI INIT 8930 84 .cfa: sp 0 +
STACK CFI 8938 .cfa: sp 32 +
STACK CFI 8940 .cfa: x29 32 + x19: .cfa -8 + ^ x20: .cfa -16 + ^ .ra: .cfa -24 + ^ x29: .cfa -32 + ^
STACK CFI 8980 .cfa: sp 32 +
STACK CFI 8988 .cfa: sp 0 +
STACK CFI 8990 .cfa: x29 32 +
STACK CFI INIT 89b4 b4 .cfa: sp 0 +
STACK CFI 89b8 .cfa: sp 32 +
STACK CFI 89c0 .cfa: x29 32 + x19: .cfa -8 + ^ x20: .cfa -16 + ^ .ra: .cfa -24 + ^ x29: .cfa -32 + ^
STACK CFI 8a5c .cfa: sp 32 +
STACK CFI 8a64 .cfa: sp 0 +
STACK CFI INIT 8a68 50 .cfa: sp 0 +
STACK CFI 8a6c .cfa: sp 32 +
STACK CFI 8a74 .cfa: x29 32 + x19: .cfa -16 + ^ .ra: .cfa -24 + ^ x29: .cfa -32 + ^
STACK CFI 8a8c .cfa: sp 32 +
STACK CFI 8a94 .cfa: sp 0 +
STACK CFI 8a98 .cfa: x29 32 +
STACK CFI 8aac .cfa: sp 32 +
STACK CFI 8ab4 .cfa: sp 0 +
STACK CFI INIT 8ab8 64 .cfa: sp 0 +
STACK CFI 8abc .cfa: sp 32 +
STACK CFI 8ac4 .cfa: x29 32 + x19: .cfa -16 + ^ .ra: .cfa -24 + ^ x29: .cfa -32 + ^
STACK CFI 8af0 .cfa: sp 32 +
STACK CFI 8af8 .cfa: sp 0 +
STACK CFI 8afc .cfa: x29 32 +
STACK CFI 8b10 .cfa: sp 32 +
STACK CFI 8b18 .cfa: sp 0 +
STACK CFI INIT 90ec 184 .cfa: sp 0 +
STACK CFI 90f0 .cfa: sp 32 +
STACK CFI 90f8 .cfa: x29 32 + x19: .cfa -8 + ^ x20: .cfa -16 + ^ .ra: .cfa -24 + ^ x29: .cfa -32 + ^
STACK CFI 9230 .cfa: sp 32 +
STACK CFI 9238 .cfa: sp 0 +
STACK CFI 923c .cfa: x29 32 +
STACK CFI 9264 .cfa: sp 32 +
STACK CFI 926c .cfa: sp 0 +
STACK CFI INIT 928c 50 .cfa: sp 0 +
STACK CFI 9290 .cfa: sp 32 +
STACK CFI 9298 .cfa: x29 32 + x19: .cfa -16 + ^ .ra: .cfa -24 + ^ x29: .cfa -32 + ^
STACK CFI 92b0 .cfa: sp 32 +
STACK CFI 92b8 .cfa: sp 0 +
STACK CFI 92bc .cfa: x29 32 +
STACK CFI 92d0 .cfa: sp 32 +
STACK CFI 92d8 .cfa: sp 0 +
STACK CFI INIT 92dc 88 .cfa: sp 0 +
STACK CFI 92e0 .cfa: sp 48 +
STACK CFI 92ec .cfa: x29 32 + x19: .cfa -8 + ^ x20: .cfa -16 + ^ .ra: .cfa -24 + ^ x29: .cfa -32 + ^
STACK CFI 932c .cfa: sp 48 +
STACK CFI 9338 .cfa: sp 0 +
STACK CFI 933c .cfa: x29 32 +
STACK CFI 9350 .cfa: sp 48 +
STACK CFI 935c .cfa: sp 0 +
STACK CFI 9360 .cfa: x29 32 +
STACK CFI INIT 99a4 4 .cfa: sp 0 +
STACK CFI INIT 99a8 14 .cfa: sp 0 +
STACK CFI 99ac .cfa: sp 16 +
STACK CFI 99b0 .cfa: x29 16 + .ra: .cfa -8 + ^ x29: .cfa -16 + ^
STACK CFI INIT 99bc 14 .cfa: sp 0 +
STACK CFI 99c0 .cfa: sp 16 +
STACK CFI 99c4 .cfa: x29 16 + .ra: .cfa -8 + ^ x29: .cfa -16 + ^
STACK CFI INIT 99d0 c .cfa: sp 0 +
STACK CFI 99d4 .cfa: sp 16 +
STACK CFI 99d8 .cfa: x29 16 + .ra: .cfa -8 + ^ x29: .cfa -16 + ^
STACK CFI INIT 9a2c 30 .cfa: sp 0 +
STACK CFI 9a30 .cfa: sp 32 +
STACK CFI 9a38 .cfa: x29 32 + x19: .cfa -16 + ^ .ra: .cfa -24 + ^ x29: .cfa -32 + ^
STACK CFI 9a50 .cfa: sp 32 +
STACK CFI 9a58 .cfa: sp 0 +
STACK CFI INIT 9a5c c .cfa: sp 0 +
STACK CFI 9a60 .cfa: sp 16 +
STACK CFI 9a64 .cfa: x29 16 + .ra: .cfa -8 + ^ x29: .cfa -16 + ^
STACK CFI INIT 9a68 4 .cfa: sp 0 +
STACK CFI INIT 9a6c 4 .cfa: sp 0 +
STACK CFI INIT 9a70 38 .cfa: sp 0 +
STACK CFI 9a74 .cfa: sp 32 +
STACK CFI 9a7c .cfa: x29 32 + x19: .cfa -16 + ^ .ra: .cfa -24 + ^ x29: .cfa -32 + ^
STACK CFI 9a9c .cfa: sp 32 +
STACK CFI 9aa4 .cfa: sp 0 +
STACK CFI INIT 9aa8 18 .cfa: sp 0 +
STACK CFI INIT 9ac0 4 .cfa: sp 0 +
STACK CFI INIT 9ac4 4 .cfa: sp 0 +
STACK CFI INIT 9ac8 10 .cfa: sp 0 +
STACK CFI INIT 9ad8 1c .cfa: sp 0 +
STACK CFI INIT 9af4 c .cfa: sp 0 +
STACK CFI INIT 9b00 4 .cfa: sp 0 +
STACK CFI INIT 9ca8 9c .cfa: sp 0 +
STACK CFI 9cac .cfa: sp 32 +
STACK CFI 9cb4 .cfa: x29 32 + x19: .cfa -8 + ^ x20: .cfa -16 + ^ .ra: .cfa -24 + ^ x29: .cfa -32 + ^
STACK CFI 9d38 .cfa: sp 32 +
STACK CFI 9d40 .cfa: sp 0 +
STACK CFI INIT 9d44 a4 .cfa: sp 0 +
STACK CFI 9d48 .cfa: sp 32 +
STACK CFI 9d50 .cfa: x29 32 + x19: .cfa -8 + ^ x20: .cfa -16 + ^ .ra: .cfa -24 + ^ x29: .cfa -32 + ^
STACK CFI 9ddc .cfa: sp 32 +
STACK CFI 9de4 .cfa: sp 0 +
STACK CFI INIT 9de8 50 .cfa: sp 0 +
STACK CFI 9dec .cfa: sp 32 +
STACK CFI 9df4 .cfa: x29 32 + x19: .cfa -16 + ^ .ra: .cfa -24 + ^ x29: .cfa -32 + ^
STACK CFI 9e0c .cfa: sp 32 +
STACK CFI 9e14 .cfa: sp 0 +
STACK CFI 9e18 .cfa: x29 32 +
STACK CFI 9e2c .cfa: sp 32 +
STACK CFI 9e34 .cfa: sp 0 +
STACK CFI INIT 9e38 5c .cfa: sp 0 +
STACK CFI 9e3c .cfa: sp 32 +
STACK CFI 9e44 .cfa: x29 32 + x19: .cfa -16 + ^ .ra: .cfa -24 + ^ x29: .cfa -32 + ^
STACK CFI 9e68 .cfa: sp 32 +
STACK CFI 9e70 .cfa: sp 0 +
STACK CFI 9e74 .cfa: x29 32 +
STACK CFI 9e88 .cfa: sp 32 +
STACK CFI 9e90 .cfa: sp 0 +
STACK CFI INIT 9e94 6c .cfa: sp 0 +
STACK CFI 9e98 .cfa: sp 32 +
STACK CFI 9ea0 .cfa: x29 32 + x19: .cfa -8 + ^ x20: .cfa -16 + ^ .ra: .cfa -24 + ^ x29: .cfa -32 + ^
STACK CFI 9ecc .cfa: sp 32 +
STACK CFI 9ed4 .cfa: sp 0 +
STACK CFI 9ed8 .cfa: x29 32 +
STACK CFI 9ef4 .cfa: sp 32 +
STACK CFI 9efc .cfa: sp 0 +
STACK CFI INIT 9f00 58 .cfa: sp 0 +
STACK CFI 9f04 .cfa: sp 32 +
STACK CFI 9f0c .cfa: x29 32 + x19: .cfa -8 + ^ x20: .cfa -16 + ^ .ra: .cfa -24 + ^ x29: .cfa -32 + ^
STACK CFI 9f4c .cfa: sp 32 +
STACK CFI 9f54 .cfa: sp 0 +
STACK CFI INIT 9f58 4c .cfa: sp 0 +
STACK CFI 9f5c .cfa: sp 32 +
STACK CFI 9f64 .cfa: x29 32 + x19: .cfa -8 + ^ x20: .cfa -16 + ^ .ra: .cfa -24 + ^ x29: .cfa -32 + ^
STACK CFI 9f98 .cfa: sp 32 +
STACK CFI 9fa0 .cfa: sp 0 +
STACK CFI INIT 9fa4 50 .cfa: sp 0 +
STACK CFI 9fa8 .cfa: sp 32 +
STACK CFI 9fb0 .cfa: x29 32 + x19: .cfa -16 + ^ .ra: .cfa -24 + ^ x29: .cfa -32 + ^
STACK CFI 9fc8 .cfa: sp 32 +
STACK CFI 9fd0 .cfa: sp 0 +
STACK CFI 9fd4 .cfa: x29 32 +
STACK CFI 9fe8 .cfa: sp 32 +
STACK CFI 9ff0 .cfa: sp 0 +
STACK CFI INIT 9ff4 60 .cfa: sp 0 +
STACK CFI 9ff8 .cfa: sp 32 +
STACK CFI a000 .cfa: x29 32 + x19: .cfa -8 + ^ x20: .cfa -16 + ^ .ra: .cfa -24 + ^ x29: .cfa -32 + ^
STACK CFI a020 .cfa: sp 32 +
STACK CFI a028 .cfa: sp 0 +
STACK CFI a02c .cfa: x29 32 +
STACK CFI a048 .cfa: sp 32 +
STACK CFI a050 .cfa: sp 0 +
STACK CFI INIT a224 1c .cfa: sp 0 +
STACK CFI INIT a240 c .cfa: sp 0 +
STACK CFI INIT a24c 60 .cfa: sp 0 +
STACK CFI a250 .cfa: sp 32 +
STACK CFI a258 .cfa: x29 32 + x19: .cfa -8 + ^ x20: .cfa -16 + ^ .ra: .cfa -24 + ^ x29: .cfa -32 + ^
STACK CFI a278 .cfa: sp 32 +
STACK CFI a280 .cfa: sp 0 +
STACK CFI a284 .cfa: x29 32 +
STACK CFI a2a0 .cfa: sp 32 +
STACK CFI a2a8 .cfa: sp 0 +
STACK CFI INIT a2ac 70 .cfa: sp 0 +
STACK CFI a2b0 .cfa: sp 32 +
STACK CFI a2b8 .cfa: x29 32 + x19: .cfa -8 + ^ x20: .cfa -16 + ^ .ra: .cfa -24 + ^ x29: .cfa -32 + ^
STACK CFI a2e0 .cfa: sp 32 +
STACK CFI a2e8 .cfa: sp 0 +
STACK CFI a2ec .cfa: x29 32 +
STACK CFI a310 .cfa: sp 32 +
STACK CFI a318 .cfa: sp 0 +
STACK CFI INIT a31c 5c .cfa: sp 0 +
STACK CFI a320 .cfa: sp 32 +
STACK CFI a328 .cfa: x29 32 + x19: .cfa -16 + ^ .ra: .cfa -24 + ^ x29: .cfa -32 + ^
STACK CFI a34c .cfa: sp 32 +
STACK CFI a354 .cfa: sp 0 +
STACK CFI a358 .cfa: x29 32 +
STACK CFI a36c .cfa: sp 32 +
STACK CFI a374 .cfa: sp 0 +
STACK CFI INIT a378 6c .cfa: sp 0 +
STACK CFI a37c .cfa: sp 32 +
STACK CFI a384 .cfa: x29 32 + x19: .cfa -8 + ^ x20: .cfa -16 + ^ .ra: .cfa -24 + ^ x29: .cfa -32 + ^
STACK CFI a3b0 .cfa: sp 32 +
STACK CFI a3b8 .cfa: sp 0 +
STACK CFI a3bc .cfa: x29 32 +
STACK CFI a3d8 .cfa: sp 32 +
STACK CFI a3e0 .cfa: sp 0 +
STACK CFI INIT a3e4 58 .cfa: sp 0 +
STACK CFI a3e8 .cfa: sp 32 +
STACK CFI a3f0 .cfa: x29 32 + x19: .cfa -8 + ^ x20: .cfa -16 + ^ .ra: .cfa -24 + ^ x29: .cfa -32 + ^
STACK CFI a430 .cfa: sp 32 +
STACK CFI a438 .cfa: sp 0 +
STACK CFI INIT a43c 4c .cfa: sp 0 +
STACK CFI a440 .cfa: sp 32 +
STACK CFI a448 .cfa: x29 32 + x19: .cfa -8 + ^ x20: .cfa -16 + ^ .ra: .cfa -24 + ^ x29: .cfa -32 + ^
STACK CFI a47c .cfa: sp 32 +
STACK CFI a484 .cfa: sp 0 +
STACK CFI INIT a488 50 .cfa: sp 0 +
STACK CFI a48c .cfa: sp 32 +
STACK CFI a494 .cfa: x29 32 + x19: .cfa -16 + ^ .ra: .cfa -24 + ^ x29: .cfa -32 + ^
STACK CFI a4ac .cfa: sp 32 +
STACK CFI a4b4 .cfa: sp 0 +
STACK CFI a4b8 .cfa: x29 32 +
STACK CFI a4cc .cfa: sp 32 +
STACK CFI a4d4 .cfa: sp 0 +
STACK CFI INIT a4d8 60 .cfa: sp 0 +
STACK CFI a4dc .cfa: sp 32 +
STACK CFI a4e4 .cfa: x29 32 + x19: .cfa -8 + ^ x20: .cfa -16 + ^ .ra: .cfa -24 + ^ x29: .cfa -32 + ^
STACK CFI a504 .cfa: sp 32 +
STACK CFI a50c .cfa: sp 0 +
STACK CFI a510 .cfa: x29 32 +
STACK CFI a52c .cfa: sp 32 +
STACK CFI a534 .cfa: sp 0 +
STACK CFI INIT a6fc 1c .cfa: sp 0 +
STACK CFI INIT a718 c .cfa: sp 0 +
STACK CFI INIT a724 fc .cfa: sp 0 +
STACK CFI a728 .cfa: sp 64 +
STACK CFI a738 .cfa: x29 64 + x19: .cfa -8 + ^ x20: .cfa -16 + ^ x21: .cfa -24 + ^ x22: .cfa -32 + ^ x23: .cfa -48 + ^ .ra: .cfa -56 + ^ x29: .cfa -64 + ^
STACK CFI a79c .cfa: sp 64 +
STACK CFI a7ac .cfa: sp 0 +
STACK CFI a7b0 .cfa: x29 64 +
STACK CFI a7cc .cfa: sp 64 +
STACK CFI a7dc .cfa: sp 0 +
STACK CFI a7e0 .cfa: x29 64 +
STACK CFI a80c .cfa: sp 64 +
STACK CFI a81c .cfa: sp 0 +
STACK CFI INIT a820 34 .cfa: sp 0 +
STACK CFI a824 .cfa: sp 16 +
STACK CFI a828 .cfa: x29 16 + .ra: .cfa -8 + ^ x29: .cfa -16 + ^
STACK CFI INIT a854 24 .cfa: sp 0 +
STACK CFI a858 .cfa: sp 32 +
STACK CFI a860 .cfa: x29 32 + x19: .cfa -16 + ^ .ra: .cfa -24 + ^ x29: .cfa -32 + ^
STACK CFI a86c .cfa: sp 32 +
STACK CFI a874 .cfa: sp 0 +
STACK CFI INIT a878 4 .cfa: sp 0 +
STACK CFI INIT a87c 4 .cfa: sp 0 +
STACK CFI INIT a880 40 .cfa: sp 0 +
STACK CFI a884 .cfa: sp 32 +
STACK CFI a88c .cfa: x29 32 + x19: .cfa -16 + ^ .ra: .cfa -24 + ^ x29: .cfa -32 + ^
STACK CFI a8b4 .cfa: sp 32 +
STACK CFI a8bc .cfa: sp 0 +
STACK CFI INIT a8c0 20 .cfa: sp 0 +
STACK CFI INIT a8e0 4 .cfa: sp 0 +
STACK CFI INIT a8e4 4 .cfa: sp 0 +
STACK CFI INIT ac24 1c .cfa: sp 0 +
STACK CFI INIT ac40 c .cfa: sp 0 +
STACK CFI INIT ac4c 4 .cfa: sp 0 +
STACK CFI INIT ac50 4 .cfa: sp 0 +
STACK CFI INIT ac54 34 .cfa: sp 0 +
STACK CFI ac58 .cfa: sp 32 +
STACK CFI ac60 .cfa: x29 32 + x19: .cfa -16 + ^ .ra: .cfa -24 + ^ x29: .cfa -32 + ^
STACK CFI ac7c .cfa: sp 32 +
STACK CFI ac84 .cfa: sp 0 +
STACK CFI INIT ac88 14 .cfa: sp 0 +
STACK CFI INIT ac9c 4 .cfa: sp 0 +
STACK CFI INIT aca0 4 .cfa: sp 0 +
STACK CFI INIT aca4 18 .cfa: sp 0 +
STACK CFI INIT acbc 1c .cfa: sp 0 +
STACK CFI INIT acd8 c .cfa: sp 0 +
STACK CFI INIT ace4 e4 .cfa: sp 0 +
STACK CFI ace8 .cfa: sp 64 +
STACK CFI acf8 .cfa: x29 64 + x19: .cfa -8 + ^ x20: .cfa -16 + ^ x21: .cfa -24 + ^ x22: .cfa -32 + ^ x23: .cfa -40 + ^ x24: .cfa -48 + ^ .ra: .cfa -56 + ^ x29: .cfa -64 + ^
STACK CFI ad1c .cfa: sp 64 +
STACK CFI ad2c .cfa: sp 0 +
STACK CFI ad30 .cfa: x29 64 +
STACK CFI ada0 .cfa: sp 64 +
STACK CFI adb0 .cfa: sp 0 +
STACK CFI adb4 .cfa: sp 64 +
STACK CFI adc4 .cfa: sp 0 +
STACK CFI INIT adc8 1b0 .cfa: sp 0 +
STACK CFI INIT af78 3c .cfa: sp 0 +
STACK CFI af7c .cfa: sp 32 +
STACK CFI af84 .cfa: x29 32 + x19: .cfa -16 + ^ .ra: .cfa -24 + ^ x29: .cfa -32 + ^
STACK CFI af90 .cfa: sp 32 +
STACK CFI af98 .cfa: sp 0 +
STACK CFI af9c .cfa: x29 32 +
STACK CFI afa8 .cfa: sp 32 +
STACK CFI afb0 .cfa: sp 0 +
STACK CFI INIT b1d4 64 .cfa: sp 0 +
STACK CFI b1d8 .cfa: sp 32 +
STACK CFI b1e0 .cfa: x29 32 + x19: .cfa -16 + ^ .ra: .cfa -24 + ^ x29: .cfa -32 + ^
STACK CFI b20c .cfa: sp 32 +
STACK CFI b214 .cfa: sp 0 +
STACK CFI b218 .cfa: x29 32 +
STACK CFI b22c .cfa: sp 32 +
STACK CFI b234 .cfa: sp 0 +
STACK CFI INIT b818 4 .cfa: sp 0 +
STACK CFI INIT b81c 14 .cfa: sp 0 +
STACK CFI INIT 6c40 bd4 .cfa: sp 0 +
STACK CFI 6c44 .cfa: sp 240 +
STACK CFI 6c60 .cfa: x29 96 + x19: .cfa -8 + ^ x20: .cfa -16 + ^ x21: .cfa -24 + ^ x22: .cfa -32 + ^ x23: .cfa -40 + ^ x24: .cfa -48 + ^ x25: .cfa -56 + ^ x26: .cfa -64 + ^ x27: .cfa -72 + ^ x28: .cfa -80 + ^ .ra: .cfa -88 + ^ x29: .cfa -96 + ^
STACK CFI 703c .cfa: sp 240 +
STACK CFI 7058 .cfa: sp 0 +
STACK CFI 705c .cfa: x29 96 +
STACK CFI 76bc .cfa: sp 240 +
STACK CFI 76d8 .cfa: sp 0 +
STACK CFI 76dc .cfa: x29 96 +
STACK CFI INIT 782c 43c .cfa: sp 0 +
STACK CFI 7830 .cfa: sp 256 +
STACK CFI 784c .cfa: x29 96 + x19: .cfa -8 + ^ x20: .cfa -16 + ^ x21: .cfa -24 + ^ x22: .cfa -32 + ^ x23: .cfa -40 + ^ x24: .cfa -48 + ^ x25: .cfa -56 + ^ x26: .cfa -64 + ^ x27: .cfa -72 + ^ x28: .cfa -80 + ^ .ra: .cfa -88 + ^ x29: .cfa -96 + ^
STACK CFI 7b3c .cfa: sp 256 +
STACK CFI 7b58 .cfa: sp 0 +
STACK CFI 7b5c .cfa: x29 96 +
STACK CFI INIT 7cb8 74 .cfa: sp 0 +
STACK CFI 7cbc .cfa: sp 48 +
STACK CFI 7cc8 .cfa: x29 32 + x19: .cfa -8 + ^ x20: .cfa -16 + ^ .ra: .cfa -24 + ^ x29: .cfa -32 + ^
STACK CFI 7d14 .cfa: sp 48 +
STACK CFI 7d20 .cfa: sp 0 +
STACK CFI 7d24 .cfa: x29 32 +
STACK CFI INIT 7dbc 154 .cfa: sp 0 +
STACK CFI 7dc0 .cfa: sp 384 +
STACK CFI 7dd4 .cfa: x29 64 + x19: .cfa -8 + ^ x20: .cfa -16 + ^ x21: .cfa -24 + ^ x22: .cfa -32 + ^ x23: .cfa -40 + ^ x28: .cfa -48 + ^ .ra: .cfa -56 + ^ x29: .cfa -64 + ^
STACK CFI 7eb8 .cfa: sp 384 +
STACK CFI 7ecc .cfa: sp 0 +
STACK CFI 7ed0 .cfa: x29 64 +
STACK CFI INIT 7f44 12c .cfa: sp 0 +
STACK CFI 7f48 .cfa: sp 80 +
STACK CFI 7f5c .cfa: x29 80 + x19: .cfa -8 + ^ x20: .cfa -16 + ^ x21: .cfa -24 + ^ x22: .cfa -32 + ^ x23: .cfa -40 + ^ x24: .cfa -48 + ^ x25: .cfa -56 + ^ x26: .cfa -64 + ^ .ra: .cfa -72 + ^ x29: .cfa -80 + ^
STACK CFI 8024 .cfa: sp 80 +
STACK CFI 8038 .cfa: sp 0 +
STACK CFI 803c .cfa: x29 80 +
STACK CFI INIT 8114 1a4 .cfa: sp 0 +
STACK CFI 8118 .cfa: sp 112 +
STACK CFI 8130 .cfa: x29 80 + x19: .cfa -8 + ^ x20: .cfa -16 + ^ x21: .cfa -24 + ^ x22: .cfa -32 + ^ x23: .cfa -40 + ^ x24: .cfa -48 + ^ x25: .cfa -56 + ^ x26: .cfa -64 + ^ .ra: .cfa -72 + ^ x29: .cfa -80 + ^
STACK CFI 8220 .cfa: sp 112 +
STACK CFI 8238 .cfa: sp 0 +
STACK CFI 823c .cfa: x29 80 +
STACK CFI INIT 82b8 1dc .cfa: sp 0 +
STACK CFI 82bc .cfa: sp 128 +
STACK CFI 82d8 .cfa: x29 96 + x19: .cfa -8 + ^ x20: .cfa -16 + ^ x21: .cfa -24 + ^ x22: .cfa -32 + ^ x23: .cfa -40 + ^ x24: .cfa -48 + ^ x25: .cfa -56 + ^ x26: .cfa -64 + ^ x27: .cfa -80 + ^ .ra: .cfa -88 + ^ x29: .cfa -96 + ^
STACK CFI 8444 .cfa: sp 128 +
STACK CFI 8460 .cfa: sp 0 +
STACK CFI 8464 .cfa: x29 96 +
STACK CFI INIT 84a8 50 .cfa: sp 0 +
STACK CFI 84ac .cfa: sp 32 +
STACK CFI 84b4 .cfa: x29 32 + x19: .cfa -8 + ^ x20: .cfa -16 + ^ .ra: .cfa -24 + ^ x29: .cfa -32 + ^
STACK CFI INIT 855c 178 .cfa: sp 0 +
STACK CFI 8560 .cfa: sp 80 +
STACK CFI 8574 .cfa: x29 80 + x19: .cfa -8 + ^ x20: .cfa -16 + ^ x21: .cfa -24 + ^ x22: .cfa -32 + ^ x23: .cfa -40 + ^ x24: .cfa -48 + ^ x25: .cfa -64 + ^ .ra: .cfa -72 + ^ x29: .cfa -80 + ^
STACK CFI 86a0 .cfa: sp 80 +
STACK CFI 86b4 .cfa: sp 0 +
STACK CFI 86b8 .cfa: x29 80 +
STACK CFI INIT 8b1c 5d0 .cfa: sp 0 +
STACK CFI 8b20 .cfa: sp 256 +
STACK CFI 8b3c .cfa: x29 96 + x19: .cfa -8 + ^ x20: .cfa -16 + ^ x21: .cfa -24 + ^ x22: .cfa -32 + ^ x23: .cfa -40 + ^ x24: .cfa -48 + ^ x25: .cfa -56 + ^ x26: .cfa -64 + ^ x27: .cfa -72 + ^ x28: .cfa -80 + ^ .ra: .cfa -88 + ^ x29: .cfa -96 + ^
STACK CFI 8f38 .cfa: sp 256 +
STACK CFI 8f54 .cfa: sp 0 +
STACK CFI 8f58 .cfa: x29 96 +
STACK CFI INIT 9270 1c .cfa: sp 0 +
STACK CFI 9274 .cfa: sp 16 +
STACK CFI 9278 .cfa: x29 16 + .ra: .cfa -8 + ^ x29: .cfa -16 + ^
STACK CFI 9280 .cfa: sp 16 +
STACK CFI 9284 .cfa: sp 0 +
STACK CFI 9288 .cfa: x29 16 +
STACK CFI INIT 9364 640 .cfa: sp 0 +
STACK CFI 9368 .cfa: sp 224 +
STACK CFI 9384 .cfa: x29 96 + x19: .cfa -8 + ^ x20: .cfa -16 + ^ x21: .cfa -24 + ^ x22: .cfa -32 + ^ x23: .cfa -40 + ^ x24: .cfa -48 + ^ x25: .cfa -56 + ^ x26: .cfa -64 + ^ x27: .cfa -72 + ^ x28: .cfa -80 + ^ .ra: .cfa -88 + ^ x29: .cfa -96 + ^
STACK CFI 9834 .cfa: sp 224 +
STACK CFI 9850 .cfa: sp 0 +
STACK CFI 9854 .cfa: x29 96 +
STACK CFI INIT 99dc 50 .cfa: sp 0 +
STACK CFI 99e0 .cfa: sp 32 +
STACK CFI 99e8 .cfa: x29 32 + x19: .cfa -8 + ^ x20: .cfa -16 + ^ .ra: .cfa -24 + ^ x29: .cfa -32 + ^
STACK CFI INIT 9b04 1a4 .cfa: sp 0 +
STACK CFI 9b08 .cfa: sp 128 +
STACK CFI 9b18 .cfa: x29 48 + x19: .cfa -8 + ^ x20: .cfa -16 + ^ x21: .cfa -24 + ^ x22: .cfa -32 + ^ .ra: .cfa -40 + ^ x29: .cfa -48 + ^
STACK CFI 9c2c .cfa: sp 128 +
STACK CFI 9c3c .cfa: sp 0 +
STACK CFI 9c40 .cfa: x29 48 +
STACK CFI INIT a054 1d0 .cfa: sp 0 +
STACK CFI a058 .cfa: sp 128 +
STACK CFI a06c .cfa: x29 64 + x19: .cfa -8 + ^ x20: .cfa -16 + ^ x21: .cfa -24 + ^ x22: .cfa -32 + ^ x23: .cfa -48 + ^ .ra: .cfa -56 + ^ x29: .cfa -64 + ^
STACK CFI a1e4 .cfa: sp 128 +
STACK CFI a1f8 .cfa: sp 0 +
STACK CFI a1fc .cfa: x29 64 +
STACK CFI INIT a538 1c4 .cfa: sp 0 +
STACK CFI a53c .cfa: sp 112 +
STACK CFI a54c .cfa: x29 48 + x19: .cfa -8 + ^ x20: .cfa -16 + ^ x21: .cfa -24 + ^ x22: .cfa -32 + ^ .ra: .cfa -40 + ^ x29: .cfa -48 + ^
STACK CFI a6c0 .cfa: sp 112 +
STACK CFI a6d0 .cfa: sp 0 +
STACK CFI a6d4 .cfa: x29 48 +
STACK CFI INIT a8e8 33c .cfa: sp 0 +
STACK CFI a8ec .cfa: sp 176 +
STACK CFI a900 .cfa: x29 64 + x19: .cfa -8 + ^ x20: .cfa -16 + ^ x21: .cfa -24 + ^ x22: .cfa -32 + ^ x23: .cfa -48 + ^ .ra: .cfa -56 + ^ x29: .cfa -64 + ^
STACK CFI aa8c .cfa: sp 176 +
STACK CFI aaa0 .cfa: sp 0 +
STACK CFI aaa4 .cfa: x29 64 +
STACK CFI INIT afb4 134 .cfa: sp 0 +
STACK CFI afb8 .cfa: sp 80 +
STACK CFI afc4 .cfa: x29 32 + x19: .cfa -8 + ^ x20: .cfa -16 + ^ .ra: .cfa -24 + ^ x29: .cfa -32 + ^
STACK CFI aff4 .cfa: sp 80 +
STACK CFI b000 .cfa: sp 0 +
STACK CFI b004 .cfa: x29 32 +
STACK CFI INIT b0e8 78 .cfa: sp 0 +
STACK CFI b0ec .cfa: sp 32 +
STACK CFI b0f4 .cfa: x29 32 + x19: .cfa -8 + ^ x20: .cfa -16 + ^ .ra: .cfa -24 + ^ x29: .cfa -32 + ^
STACK CFI b100 .cfa: sp 32 +
STACK CFI b108 .cfa: sp 0 +
STACK CFI b10c .cfa: x29 32 +
STACK CFI INIT b160 74 .cfa: sp 0 +
STACK CFI b164 .cfa: sp 48 +
STACK CFI b170 .cfa: x29 32 + x19: .cfa -8 + ^ x20: .cfa -16 + ^ .ra: .cfa -24 + ^ x29: .cfa -32 + ^
STACK CFI b1bc .cfa: sp 48 +
STACK CFI b1c8 .cfa: sp 0 +
STACK CFI b1cc .cfa: x29 32 +
STACK CFI INIT b238 1b8 .cfa: sp 0 +
STACK CFI b23c .cfa: sp 160 +
STACK CFI b258 .cfa: x29 72 + x19: .cfa -8 + ^ x20: .cfa -16 + ^ x21: .cfa -24 + ^ x22: .cfa -32 + ^ x23: .cfa -40 + ^ x24: .cfa -48 + ^ x25: .cfa -56 + ^ .ra: .cfa -64 + ^ x29: .cfa -72 + ^ v8: .cfa -80 + ^
STACK CFI b2dc .cfa: sp 160 +
STACK CFI b2f8 .cfa: sp 0 +
STACK CFI b2fc .cfa: x29 72 +
STACK CFI INIT b3f0 16c .cfa: sp 0 +
STACK CFI b3f4 .cfa: sp 64 +
STACK CFI b404 .cfa: x29 48 + x19: .cfa -8 + ^ x20: .cfa -16 + ^ x21: .cfa -24 + ^ x22: .cfa -32 + ^ .ra: .cfa -40 + ^ x29: .cfa -48 + ^
STACK CFI b4fc .cfa: sp 64 +
STACK CFI b50c .cfa: sp 0 +
STACK CFI b510 .cfa: x29 48 +
STACK CFI INIT b55c 154 .cfa: sp 0 +
STACK CFI b560 .cfa: sp 384 +
STACK CFI b574 .cfa: x29 64 + x19: .cfa -8 + ^ x20: .cfa -16 + ^ x21: .cfa -24 + ^ x22: .cfa -32 + ^ x23: .cfa -40 + ^ x28: .cfa -48 + ^ .ra: .cfa -56 + ^ x29: .cfa -64 + ^
STACK CFI b658 .cfa: sp 384 +
STACK CFI b66c .cfa: sp 0 +
STACK CFI b670 .cfa: x29 64 +
STACK CFI INIT b6b0 168 .cfa: sp 0 +
STACK CFI b6b4 .cfa: sp 384 +
STACK CFI b6c8 .cfa: x29 64 + x19: .cfa -8 + ^ x20: .cfa -16 + ^ x21: .cfa -24 + ^ x22: .cfa -32 + ^ x23: .cfa -40 + ^ x28: .cfa -48 + ^ .ra: .cfa -56 + ^ x29: .cfa -64 + ^
STACK CFI b7c0 .cfa: sp 384 +
STACK CFI b7d4 .cfa: sp 0 +
STACK CFI b7d8 .cfa: x29 64 +
