MODULE Linux arm64 CFC3F68C2BC984BD967498A8EE860ED50 viper.restart_from_any_checkpoint.android64.so
INFO CODE_ID 8CF6C3CFC92BBD84967498A8EE860ED571D7870F
INFO GENERATOR mozilla/dump_syms 2.3.4
PUBLIC 5410 0 __on_dlclose
PUBLIC 5420 0 __emutls_unregister_key
PUBLIC 5428 0 __on_dlclose_late
PUBLIC 5430 0 __atexit_handler_wrapper
PUBLIC 5444 0 atexit
PUBLIC 5460 0 pthread_atfork
PUBLIC 5470 0 __aarch64_ldadd8_relax
PUBLIC 54a0 0 init_have_lse_atomics
PUBLIC 5538 0 __init_cpu_features_constructor
PUBLIC 5ad4 0 __init_cpu_features
PUBLIC 5b60 0 __aarch64_ldadd8_acq_rel
PUBLIC 5b90 0 __cxx_global_var_init
PUBLIC 5fec 0 geode::modifier::ModifyBase<geode::modifier::ModifyDerive<hook54<(anonymous namespace)::hook54Parent>, SetIDPopup> >::~ModifyBase()
PUBLIC 6004 0 __cxx_global_var_init.1
PUBLIC 6488 0 geode::modifier::ModifyBase<geode::modifier::ModifyDerive<hihihihihihi, PlayLayer> >::~ModifyBase()
PUBLIC 64a0 0 __cxx_global_var_init.2
PUBLIC 6924 0 geode::modifier::ModifyBase<geode::modifier::ModifyDerive<endLayer, EndLevelLayer> >::~ModifyBase()
PUBLIC 693c 0 geode::modifier::ModifyDerive<hook54<(anonymous namespace)::hook54Parent>, SetIDPopup>::apply()
PUBLIC 6c94 0 std::__ndk1::shared_ptr<geode::Hook>::~shared_ptr[abi:ne180000]()
PUBLIC 6ce4 0 geode::impl::ResultData<geode::Hook*, std::__ndk1::basic_string<char, std::__ndk1::char_traits<char>, std::__ndk1::allocator<char> > >::~ResultData()
PUBLIC 6d58 0 std::__ndk1::vector<std::__ndk1::basic_string<char, std::__ndk1::char_traits<char>, std::__ndk1::allocator<char> >, std::__ndk1::allocator<std::__ndk1::basic_string<char, std::__ndk1::char_traits<char>, std::__ndk1::allocator<char> > > >::~vector[abi:ne180000]()
PUBLIC 6dd4 0 geode::modifier::ModifyBase<geode::modifier::ModifyDerive<hook54<(anonymous namespace)::hook54Parent>, SetIDPopup> >::apply()
PUBLIC 6dd8 0 __clang_call_terminate
PUBLIC 6de8 0 _ZN5geode15UnwrapExceptionC2IRPNS_4HookEQsr4implE18IsStringStreamableIT_EEENS_4impl5OkTagEOS5_
PUBLIC 6f3c 0 std::__ndk1::__throw_bad_variant_access[abi:ne180000]()
PUBLIC 6f70 0 std::__ndk1::basic_stringstream<char, std::__ndk1::char_traits<char>, std::__ndk1::allocator<char> >::basic_stringstream[abi:ne180000]()
PUBLIC m 709c 0 std::__ndk1::basic_stringstream<char, std::__ndk1::char_traits<char>, std::__ndk1::allocator<char> >::~basic_stringstream()
PUBLIC 711c 0 geode::UnwrapException::~UnwrapException()
PUBLIC 7140 0 std::__ndk1::__put_character_sequence[abi:ne180000]<char, std::__ndk1::char_traits<char> >(std::__ndk1::basic_ostream<char, std::__ndk1::char_traits<char> >, std::__ndk1::basic_ostream const*, unsigned long)
PUBLIC 72e4 0 std::__ndk1::__pad_and_output[abi:ne180000]<char, std::__ndk1::char_traits<char> >(std::__ndk1::char_traits<char>, std::__ndk1::ostreambuf_iterator const*, std::__ndk1::ostreambuf_iterator const, std::__ndk1::ostreambuf_iterator const, std::__ndk1::ios_base&, std::__ndk1::ostreambuf_iterator)
PUBLIC 74c0 0 std::__ndk1::basic_string<char, std::__ndk1::char_traits<char>, std::__ndk1::allocator<char> >::__throw_length_error[abi:ne180000]() const
PUBLIC 74d4 0 std::__ndk1::__throw_length_error[abi:ne180000](char const*)
PUBLIC 7524 0 std::length_error::length_error[abi:ne180000](char const*)
PUBLIC 7554 0 std::__throw_bad_array_new_length([abi:ne180000], void)
PUBLIC 7588 0 std::__ndk1::basic_stringbuf<char, std::__ndk1::char_traits<char>, std::__ndk1::allocator<char> >::str[abi:ne180000]() &&
PUBLIC 7700 0 std::__ndk1::basic_stringbuf<char, std::__ndk1::char_traits<char>, std::__ndk1::allocator<char> >::__init_buf_ptrs[abi:ne180000]()
PUBLIC 7848 0 std::__ndk1::vector<std::__ndk1::basic_string<char, std::__ndk1::char_traits<char>, std::__ndk1::allocator<char> >, std::__ndk1::allocator<std::__ndk1::basic_string<char, std::__ndk1::char_traits<char>, std::__ndk1::allocator<char> > > >::__push_back_slow_path<std::__ndk1::basic_string<char, std::__ndk1::char_traits<char>, std::__ndk1::allocator<char> > const&>(std::__ndk1::basic_string<char, std::__ndk1::char_traits<char>, std::__ndk1::allocator<char> > const&)
PUBLIC 7a6c 0 std::__ndk1::basic_string<char, std::__ndk1::char_traits<char>, std::__ndk1::allocator<char> >::__init_copy_ctor_external(char const*, unsigned long)
PUBLIC 7aec 0 std::__ndk1::__split_buffer<std::__ndk1::basic_string<char, std::__ndk1::char_traits<char>, std::__ndk1::allocator<char> >, std::__ndk1::allocator<std::__ndk1::basic_string<char, std::__ndk1::char_traits<char>, std::__ndk1::allocator<char> > >&>::~__split_buffer()
PUBLIC 7b54 0 std::__ndk1::vector<std::__ndk1::basic_string<char, std::__ndk1::char_traits<char>, std::__ndk1::allocator<char> >, std::__ndk1::allocator<std::__ndk1::basic_string<char, std::__ndk1::char_traits<char>, std::__ndk1::allocator<char> > > >::__throw_length_error[abi:ne180000]() const
PUBLIC 7b68 0 std::__ndk1::__variant_detail::__visitation::__base::__dispatcher<(unsigned long)0>::__dispatch[abi:ne180000]<std::__ndk1::__variant_detail::__dtor<std::__ndk1::__variant_detail::__traits<geode::Hook*, std::__ndk1::basic_string<char, std::__ndk1::char_traits<char>, std::__ndk1::allocator<char> > >, (std::__ndk1::__variant_detail::_Trait)1>::__destroy[abi:ne180000]()::{lambda(auto:1&)#1}, std::__ndk1::__variant_detail::__base<(std::__ndk1::__variant_detail::__traits<geode::Hook*, std::__ndk1::basic_string<char, std::__ndk1::char_traits<char>, std::__ndk1::allocator<char> > >)1, geode::Hook, std::__ndk1::allocator<char> >&>(std::__ndk1::__variant_detail::__dtor<std::__ndk1::__variant_detail::__traits<geode::Hook*, std::__ndk1::basic_string<char, std::__ndk1::char_traits<char>, std::__ndk1::allocator<char> > >, (std::__ndk1::__variant_detail::_Trait)1>, std::__ndk1::__variant_detail::__base<(std::__ndk1::__variant_detail::__traits<geode::Hook*, std::__ndk1::basic_string<char, std::__ndk1::char_traits<char>, std::__ndk1::allocator<char> > >)1, geode::Hook, std::__ndk1::allocator<char> >&)
PUBLIC 7b6c 0 std::__ndk1::__variant_detail::__visitation::__base::__dispatcher<(unsigned long)1>::__dispatch[abi:ne180000]<std::__ndk1::__variant_detail::__dtor<std::__ndk1::__variant_detail::__traits<geode::Hook*, std::__ndk1::basic_string<char, std::__ndk1::char_traits<char>, std::__ndk1::allocator<char> > >, (std::__ndk1::__variant_detail::_Trait)1>::__destroy[abi:ne180000]()::{lambda(auto:1&)#1}, std::__ndk1::__variant_detail::__base<(std::__ndk1::__variant_detail::__traits<geode::Hook*, std::__ndk1::basic_string<char, std::__ndk1::char_traits<char>, std::__ndk1::allocator<char> > >)1, geode::Hook, std::__ndk1::allocator<char> >&>(std::__ndk1::__variant_detail::__dtor<std::__ndk1::__variant_detail::__traits<geode::Hook*, std::__ndk1::basic_string<char, std::__ndk1::char_traits<char>, std::__ndk1::allocator<char> > >, (std::__ndk1::__variant_detail::_Trait)1>, std::__ndk1::__variant_detail::__base<(std::__ndk1::__variant_detail::__traits<geode::Hook*, std::__ndk1::basic_string<char, std::__ndk1::char_traits<char>, std::__ndk1::allocator<char> > >)1, geode::Hook, std::__ndk1::allocator<char> >&)
PUBLIC 7b80 0 std::__ndk1::__tree<std::__ndk1::__value_type<std::__ndk1::basic_string<char, std::__ndk1::char_traits<char>, std::__ndk1::allocator<char> >, std::__ndk1::shared_ptr<geode::Hook> >, std::__ndk1::__map_value_compare<std::__ndk1::basic_string<char, std::__ndk1::char_traits<char>, std::__ndk1::allocator<char> >, std::__ndk1::__value_type<std::__ndk1::basic_string<char, std::__ndk1::char_traits<char>, std::__ndk1::allocator<char> >, std::__ndk1::shared_ptr<geode::Hook> >, std::__ndk1::less<std::__ndk1::basic_string<char, std::__ndk1::char_traits<char>, std::__ndk1::allocator<char> > >, true>, std::__ndk1::allocator<std::__ndk1::__value_type<std::__ndk1::basic_string<char, std::__ndk1::char_traits<char>, std::__ndk1::allocator<char> >, std::__ndk1::shared_ptr<geode::Hook> > > >::find<std::__ndk1::basic_string<char, std::__ndk1::char_traits<char>, std::__ndk1::allocator<char> > >(std::__ndk1::basic_string<char, std::__ndk1::char_traits<char>, std::__ndk1::allocator<char> > const&)
PUBLIC 7ca0 0 std::__ndk1::__tree<std::__ndk1::__value_type<std::__ndk1::basic_string<char, std::__ndk1::char_traits<char>, std::__ndk1::allocator<char> >, std::__ndk1::shared_ptr<geode::Hook> >, std::__ndk1::__map_value_compare<std::__ndk1::basic_string<char, std::__ndk1::char_traits<char>, std::__ndk1::allocator<char> >, std::__ndk1::__value_type<std::__ndk1::basic_string<char, std::__ndk1::char_traits<char>, std::__ndk1::allocator<char> >, std::__ndk1::shared_ptr<geode::Hook> >, std::__ndk1::less<std::__ndk1::basic_string<char, std::__ndk1::char_traits<char>, std::__ndk1::allocator<char> > >, true>, std::__ndk1::allocator<std::__ndk1::__value_type<std::__ndk1::basic_string<char, std::__ndk1::char_traits<char>, std::__ndk1::allocator<char> >, std::__ndk1::shared_ptr<geode::Hook> > > >::erase(std::__ndk1::__tree_const_iterator<std::__ndk1::__value_type<std::__ndk1::basic_string<char, std::__ndk1::char_traits<char>, std::__ndk1::allocator<char> >, std::__ndk1::shared_ptr<geode::Hook> >, std::__ndk1::__tree_node<std::__ndk1::__value_type<std::__ndk1::basic_string<char, std::__ndk1::char_traits<char>, std::__ndk1::allocator<char> >, std::__ndk1::shared_ptr<geode::Hook> >, void*>*, long>)
PUBLIC 8144 0 std::__ndk1::__tree<std::__ndk1::__value_type<std::__ndk1::basic_string<char, std::__ndk1::char_traits<char>, std::__ndk1::allocator<char> >, std::__ndk1::shared_ptr<geode::Hook> >, std::__ndk1::__map_value_compare<std::__ndk1::basic_string<char, std::__ndk1::char_traits<char>, std::__ndk1::allocator<char> >, std::__ndk1::__value_type<std::__ndk1::basic_string<char, std::__ndk1::char_traits<char>, std::__ndk1::allocator<char> >, std::__ndk1::shared_ptr<geode::Hook> >, std::__ndk1::less<std::__ndk1::basic_string<char, std::__ndk1::char_traits<char>, std::__ndk1::allocator<char> > >, true>, std::__ndk1::allocator<std::__ndk1::__value_type<std::__ndk1::basic_string<char, std::__ndk1::char_traits<char>, std::__ndk1::allocator<char> >, std::__ndk1::shared_ptr<geode::Hook> > > >::destroy(std::__ndk1::__tree_node<std::__ndk1::__value_type<std::__ndk1::basic_string<char, std::__ndk1::char_traits<char>, std::__ndk1::allocator<char> >, std::__ndk1::shared_ptr<geode::Hook> >, void*>*)
PUBLIC 81c8 0 geode::modifier::AsStaticFunction_onCancel<hook54<(anonymous namespace)::hook54Parent>, void (hook54<(anonymous namespace)::hook54Parent>::*)(cocos2d::CCObject*)>::Impl<void (hook54<(anonymous namespace)::hook54Parent>::*)(cocos2d::CCObject*)>::function(hook54<(anonymous namespace)::hook54Parent>*, cocos2d::CCObject*)
PUBLIC 8274 0 std::__ndk1::shared_ptr<tulip::hook::CallingConvention>::~shared_ptr[abi:ne180000]()
PUBLIC 82c4 0 tulip::hook::HandlerMetadata::~HandlerMetadata()
PUBLIC 8328 0 geode::cast::traverseTypeinfoFor(void*, geode::cast::ClassTypeinfoType const*, char const*)
PUBLIC 8420 0 CheckPointPopup::setIDPopupClosed(SetIDPopup*, int)
PUBLIC 84cc 0 std::__ndk1::__tree<std::__ndk1::__value_type<std::__ndk1::basic_string<char, std::__ndk1::char_traits<char>, std::__ndk1::allocator<char> >, std::__ndk1::shared_ptr<geode::Hook> >, std::__ndk1::__map_value_compare<std::__ndk1::basic_string<char, std::__ndk1::char_traits<char>, std::__ndk1::allocator<char> >, std::__ndk1::__value_type<std::__ndk1::basic_string<char, std::__ndk1::char_traits<char>, std::__ndk1::allocator<char> >, std::__ndk1::shared_ptr<geode::Hook> >, std::__ndk1::less<std::__ndk1::basic_string<char, std::__ndk1::char_traits<char>, std::__ndk1::allocator<char> > >, true>, std::__ndk1::allocator<std::__ndk1::__value_type<std::__ndk1::basic_string<char, std::__ndk1::char_traits<char>, std::__ndk1::allocator<char> >, std::__ndk1::shared_ptr<geode::Hook> > > >::__emplace_unique_key_args<std::__ndk1::basic_string<char, std::__ndk1::char_traits<char>, std::__ndk1::allocator<char> >, std::__ndk1::piecewise_construct_t const&, std::__ndk1::tuple<std::__ndk1::basic_string<char, std::__ndk1::char_traits<char>, std::__ndk1::allocator<char> >&&>, std::__ndk1::tuple<> >(std::__ndk1::basic_string<char, std::__ndk1::char_traits<char>, std::__ndk1::allocator<char> > const&, std::__ndk1::piecewise_construct_t const&, std::__ndk1::tuple<std::__ndk1::basic_string<char, std::__ndk1::char_traits<char>, std::__ndk1::allocator<char> >&&>, std::__ndk1::tuple<>)
PUBLIC 8634 0 std::__ndk1::__tree_balance_after_insert[abi:ne180000]<std::__ndk1::__tree_node_base<void*>*>(std::__ndk1::__tree_node_base<void*>*, std::__ndk1::__tree_node_base<void*>*)
PUBLIC 87e4 0 geode::modifier::ModifyDerive<hihihihihihi, PlayLayer>::apply()
PUBLIC 8b58 0 geode::modifier::ModifyBase<geode::modifier::ModifyDerive<hihihihihihi, PlayLayer> >::apply()
PUBLIC 8b5c 0 geode::modifier::AsStaticFunction_loadFromCheckpoint<hihihihihihi, void (hihihihihihi::*)(CheckpointObject*)>::Impl<void (hihihihihihi::*)(CheckpointObject*)>::function(hihihihihihi*, CheckpointObject*)
PUBLIC 8bb8 0 geode::modifier::FieldIntermediate<hihihihihihi, PlayLayer>::self()
PUBLIC 8d44 0 geode::modifier::FieldContainer::getField(unsigned long)
PUBLIC 9188 0 geode::modifier::FieldContainer::setField(unsigned long, unsigned long, std::__ndk1::function<void (void*)>)
PUBLIC 9294 0 geode::modifier::FieldIntermediate<hihihihihihi, PlayLayer>::fieldDestructor(void*)
PUBLIC 9298 0 std::__ndk1::vector<void*, std::__ndk1::allocator<void*> >::__throw_length_error[abi:ne180000]() const
PUBLIC 92ac 0 std::__ndk1::vector<std::__ndk1::function<void (void*)>, std::__ndk1::allocator<std::__ndk1::function<void (void*)> > >::__throw_length_error[abi:ne180000]() const
PUBLIC 92c0 0 std::__ndk1::vector<void*, std::__ndk1::allocator<void*> >::__throw_out_of_range[abi:ne180000]() const
PUBLIC 92cc 0 std::__ndk1::__throw_out_of_range[abi:ne180000](char const*)
PUBLIC 931c 0 std::out_of_range::out_of_range[abi:ne180000](char const*)
PUBLIC 934c 0 std::__ndk1::vector<std::__ndk1::function<void (void*)>, std::__ndk1::allocator<std::__ndk1::function<void (void*)> > >::__throw_out_of_range[abi:ne180000]() const
PUBLIC 9358 0 std::__ndk1::__function::__base<void (void*)>::~__base()
PUBLIC 935c 0 std::__ndk1::__function::__func<void (*)(void*), std::__ndk1::allocator<void (*)(void*)>, void (void*)>::~__func()
PUBLIC 9360 0 std::__ndk1::__function::__func<void (*)(void*), std::__ndk1::allocator<void (*)(void*)>, void (void*)>::__clone() const
PUBLIC 9398 0 std::__ndk1::__function::__func<void (*)(void*), std::__ndk1::allocator<void (*)(void*)>, void (void*)>::__clone(std::__ndk1::__function::__base<void (void*)>*) const
PUBLIC 93b0 0 std::__ndk1::__function::__func<void (*)(void*), std::__ndk1::allocator<void (*)(void*)>, void (void*)>::destroy()
PUBLIC 93b4 0 std::__ndk1::__function::__func<void (*)(void*), std::__ndk1::allocator<void (*)(void*)>, void (void*)>::destroy_deallocate()
PUBLIC 93b8 0 std::__ndk1::__function::__func<void (*)(void*), std::__ndk1::allocator<void (*)(void*)>, void (void*)>::operator()(void*&&)
PUBLIC 93c8 0 std::__ndk1::__function::__func<void (*)(void*), std::__ndk1::allocator<void (*)(void*)>, void (void*)>::target(std::type_info const&) const
PUBLIC 93e4 0 std::__ndk1::__function::__func<void (*)(void*), std::__ndk1::allocator<void (*)(void*)>, void (void*)>::target_type() const
PUBLIC 93f0 0 geode::modifier::ModifyDerive<endLayer, EndLevelLayer>::apply()
PUBLIC 9768 0 geode::modifier::ModifyBase<geode::modifier::ModifyDerive<endLayer, EndLevelLayer> >::apply()
PUBLIC 976c 0 geode::modifier::AsStaticFunction_onRestartCheckpoint<endLayer, void (endLayer::*)(cocos2d::CCObject*)>::Impl<void (endLayer::*)(cocos2d::CCObject*)>::function(endLayer*, cocos2d::CCObject*)
PUBLIC 9fb4 0 geode::modifier::FieldIntermediate<endLayer, EndLevelLayer>::self()
PUBLIC a140 0 geode::modifier::FieldIntermediate<endLayer, EndLevelLayer>::fieldDestructor(void*)
PUBLIC a144 0 std::__ndk1::__function::__base<void (int)>::~__base()
PUBLIC a148 0 std::__ndk1::__function::__func<endLayer::onRestartCheckpoint(cocos2d::CCObject*)::{lambda(int)#1}, std::__ndk1::allocator<endLayer::onRestartCheckpoint(cocos2d::CCObject*)::{lambda(int)#1}>, void (int)>::~__func()
PUBLIC a14c 0 std::__ndk1::__function::__func<endLayer::onRestartCheckpoint(cocos2d::CCObject*)::{lambda(int)#1}, std::__ndk1::allocator<endLayer::onRestartCheckpoint(cocos2d::CCObject*)::{lambda(int)#1}>, void (int)>::__clone() const
PUBLIC a18c 0 std::__ndk1::__function::__func<endLayer::onRestartCheckpoint(cocos2d::CCObject*)::{lambda(int)#1}, std::__ndk1::allocator<endLayer::onRestartCheckpoint(cocos2d::CCObject*)::{lambda(int)#1}>, void (int)>::__clone(std::__ndk1::__function::__base<void (int)>*) const
PUBLIC a1ac 0 std::__ndk1::__function::__func<endLayer::onRestartCheckpoint(cocos2d::CCObject*)::{lambda(int)#1}, std::__ndk1::allocator<endLayer::onRestartCheckpoint(cocos2d::CCObject*)::{lambda(int)#1}>, void (int)>::destroy()
PUBLIC a1b0 0 std::__ndk1::__function::__func<endLayer::onRestartCheckpoint(cocos2d::CCObject*)::{lambda(int)#1}, std::__ndk1::allocator<endLayer::onRestartCheckpoint(cocos2d::CCObject*)::{lambda(int)#1}>, void (int)>::destroy_deallocate()
PUBLIC a1b4 0 std::__ndk1::__function::__func<endLayer::onRestartCheckpoint(cocos2d::CCObject*)::{lambda(int)#1}, std::__ndk1::allocator<endLayer::onRestartCheckpoint(cocos2d::CCObject*)::{lambda(int)#1}>, void (int)>::operator()(int&&)
PUBLIC a488 0 std::__ndk1::__function::__func<endLayer::onRestartCheckpoint(cocos2d::CCObject*)::{lambda(int)#1}, std::__ndk1::allocator<endLayer::onRestartCheckpoint(cocos2d::CCObject*)::{lambda(int)#1}>, void (int)>::target(std::type_info const&) const
PUBLIC a4a4 0 std::__ndk1::__function::__func<endLayer::onRestartCheckpoint(cocos2d::CCObject*)::{lambda(int)#1}, std::__ndk1::allocator<endLayer::onRestartCheckpoint(cocos2d::CCObject*)::{lambda(int)#1}>, void (int)>::target_type() const
PUBLIC m a4b0 0 geodeImplicitEntry
PUBLIC a4ec 0 wrapFunction(unsigned long, tulip::hook::WrapperMetadata const&)
PUBLIC a620 0 geode::impl::ResultData<void*, std::__ndk1::basic_string<char, std::__ndk1::char_traits<char>, std::__ndk1::allocator<char> > >::unwrapErr() &
PUBLIC a698 0 geode::impl::ResultData<void*, std::__ndk1::basic_string<char, std::__ndk1::char_traits<char>, std::__ndk1::allocator<char> > >::~ResultData()
PUBLIC a70c 0 tulip::hook::WrapperMetadata::~WrapperMetadata()
PUBLIC a770 0 SetIDPopup::create(int, int, int, gd::string, gd::string, bool, int, float, bool, bool)
PUBLIC a970 0 tulip::hook::AbstractFunction::from<SetIDPopup*, int, int, int, gd::string, gd::string, bool, int, float, bool, bool>(SetIDPopup* (*)(int, int, int, gd::string, gd::string, bool, int, float, bool, bool))
PUBLIC ada8 0 _ZN5geode15UnwrapExceptionC2IRPvQsr4implE18IsStringStreamableIT_EEENS_4impl5OkTagEOS4_
PUBLIC aefc 0 _ZN5geode15UnwrapExceptionC2IRNSt6__ndk112basic_stringIcNS2_11char_traitsIcEENS2_9allocatorIcEEEEQsr4implE18IsStringStreamableIT_EEENS_4impl6ErrTagEOSA_
PUBLIC b064 0 std::__ndk1::__variant_detail::__visitation::__base::__dispatcher<(unsigned long)0>::__dispatch[abi:ne180000]<std::__ndk1::__variant_detail::__dtor<std::__ndk1::__variant_detail::__traits<void*, std::__ndk1::basic_string<char, std::__ndk1::char_traits<char>, std::__ndk1::allocator<char> > >, (std::__ndk1::__variant_detail::_Trait)1>::__destroy[abi:ne180000]()::{lambda(auto:1&)#1}, std::__ndk1::__variant_detail::__base<(std::__ndk1::__variant_detail::__traits<void*, std::__ndk1::basic_string<char, std::__ndk1::char_traits<char>, std::__ndk1::allocator<char> > >)1, std::__ndk1::__variant_detail::__traits, std::__ndk1::allocator<char> >&>(std::__ndk1::__variant_detail::__dtor<std::__ndk1::__variant_detail::__traits<void*, std::__ndk1::basic_string<char, std::__ndk1::char_traits<char>, std::__ndk1::allocator<char> > >, (std::__ndk1::__variant_detail::_Trait)1>, std::__ndk1::__variant_detail::__base<(std::__ndk1::__variant_detail::__traits<void*, std::__ndk1::basic_string<char, std::__ndk1::char_traits<char>, std::__ndk1::allocator<char> > >)1, std::__ndk1::__variant_detail::__traits, std::__ndk1::allocator<char> >&)
PUBLIC b068 0 std::__ndk1::__variant_detail::__visitation::__base::__dispatcher<(unsigned long)1>::__dispatch[abi:ne180000]<std::__ndk1::__variant_detail::__dtor<std::__ndk1::__variant_detail::__traits<void*, std::__ndk1::basic_string<char, std::__ndk1::char_traits<char>, std::__ndk1::allocator<char> > >, (std::__ndk1::__variant_detail::_Trait)1>::__destroy[abi:ne180000]()::{lambda(auto:1&)#1}, std::__ndk1::__variant_detail::__base<(std::__ndk1::__variant_detail::__traits<void*, std::__ndk1::basic_string<char, std::__ndk1::char_traits<char>, std::__ndk1::allocator<char> > >)1, std::__ndk1::__variant_detail::__traits, std::__ndk1::allocator<char> >&>(std::__ndk1::__variant_detail::__dtor<std::__ndk1::__variant_detail::__traits<void*, std::__ndk1::basic_string<char, std::__ndk1::char_traits<char>, std::__ndk1::allocator<char> > >, (std::__ndk1::__variant_detail::_Trait)1>, std::__ndk1::__variant_detail::__base<(std::__ndk1::__variant_detail::__traits<void*, std::__ndk1::basic_string<char, std::__ndk1::char_traits<char>, std::__ndk1::allocator<char> > >)1, std::__ndk1::__variant_detail::__traits, std::__ndk1::allocator<char> >&)
PUBLIC b07c 0 std::__ndk1::vector<tulip::hook::AbstractType, std::__ndk1::allocator<tulip::hook::AbstractType> >::__throw_length_error[abi:ne180000]() const
PUBLIC b090 0 <.plt ELF section in viper.restart_from_any_checkpoint.android64.so>
STACK CFI INIT 5410 10 .cfa: sp 0 +
STACK CFI INIT 5420 8 .cfa: sp 0 +
STACK CFI INIT 5428 8 .cfa: sp 0 +
STACK CFI INIT 5430 14 .cfa: sp 0 +
STACK CFI INIT 5444 1c .cfa: sp 0 +
STACK CFI INIT 5460 10 .cfa: sp 0 +
STACK CFI INIT 5470 30 .cfa: sp 0 +
STACK CFI INIT 54a0 98 .cfa: sp 0 +
STACK CFI INIT 5538 59c .cfa: sp 0 +
STACK CFI INIT 5ad4 8c .cfa: sp 0 +
STACK CFI INIT 5b60 30 .cfa: sp 0 +
STACK CFI INIT 5fec 18 .cfa: sp 0 +
STACK CFI INIT 6488 18 .cfa: sp 0 +
STACK CFI INIT 6924 18 .cfa: sp 0 +
STACK CFI INIT 6c94 50 .cfa: sp 0 +
STACK CFI 6c98 .cfa: sp 32 +
STACK CFI 6ca0 .cfa: x29 32 + x19: .cfa -16 + ^ .ra: .cfa -24 + ^ x29: .cfa -32 + ^
STACK CFI 6cb8 .cfa: sp 32 +
STACK CFI 6cc0 .cfa: sp 0 +
STACK CFI 6cc4 .cfa: x29 32 +
STACK CFI 6cd8 .cfa: sp 32 +
STACK CFI 6ce0 .cfa: sp 0 +
STACK CFI INIT 6d58 7c .cfa: sp 0 +
STACK CFI 6d5c .cfa: sp 48 +
STACK CFI 6d68 .cfa: x29 48 + x19: .cfa -8 + ^ x20: .cfa -16 + ^ x21: .cfa -32 + ^ .ra: .cfa -40 + ^ x29: .cfa -48 + ^
STACK CFI 6db4 .cfa: sp 48 +
STACK CFI 6dc0 .cfa: sp 0 +
STACK CFI 6dc4 .cfa: sp 48 +
STACK CFI 6dd0 .cfa: sp 0 +
STACK CFI INIT 6dd4 4 .cfa: sp 0 +
STACK CFI INIT 6dd8 10 .cfa: sp 0 +
STACK CFI 6ddc .cfa: sp 16 +
STACK CFI 6de0 .cfa: x29 16 + .ra: .cfa -8 + ^ x29: .cfa -16 + ^
STACK CFI INIT 6f3c 34 .cfa: sp 0 +
STACK CFI 6f40 .cfa: sp 16 +
STACK CFI 6f44 .cfa: x29 16 + .ra: .cfa -8 + ^ x29: .cfa -16 + ^
STACK CFI INIT 709c 80 .cfa: sp 0 +
STACK CFI 70a0 .cfa: sp 48 +
STACK CFI 70ac .cfa: x29 48 + x19: .cfa -8 + ^ x20: .cfa -16 + ^ x21: .cfa -32 + ^ .ra: .cfa -40 + ^ x29: .cfa -48 + ^
STACK CFI 710c .cfa: sp 48 +
STACK CFI 7118 .cfa: sp 0 +
STACK CFI INIT 711c 24 .cfa: sp 0 +
STACK CFI 7120 .cfa: sp 32 +
STACK CFI 7128 .cfa: x29 32 + x19: .cfa -16 + ^ .ra: .cfa -24 + ^ x29: .cfa -32 + ^
STACK CFI 7134 .cfa: sp 32 +
STACK CFI 713c .cfa: sp 0 +
STACK CFI INIT 74c0 14 .cfa: sp 0 +
STACK CFI 74c4 .cfa: sp 16 +
STACK CFI 74c8 .cfa: x29 16 + .ra: .cfa -8 + ^ x29: .cfa -16 + ^
STACK CFI INIT 7524 30 .cfa: sp 0 +
STACK CFI 7528 .cfa: sp 32 +
STACK CFI 7530 .cfa: x29 32 + x19: .cfa -16 + ^ .ra: .cfa -24 + ^ x29: .cfa -32 + ^
STACK CFI 7548 .cfa: sp 32 +
STACK CFI 7550 .cfa: sp 0 +
STACK CFI INIT 7554 34 .cfa: sp 0 +
STACK CFI 7558 .cfa: sp 32 +
STACK CFI 7560 .cfa: x29 32 + x19: .cfa -16 + ^ .ra: .cfa -24 + ^ x29: .cfa -32 + ^
STACK CFI INIT 7700 148 .cfa: sp 0 +
STACK CFI 7704 .cfa: sp 48 +
STACK CFI 7710 .cfa: x29 48 + x19: .cfa -8 + ^ x20: .cfa -16 + ^ x21: .cfa -32 + ^ .ra: .cfa -40 + ^ x29: .cfa -48 + ^
STACK CFI 7838 .cfa: sp 48 +
STACK CFI 7844 .cfa: sp 0 +
STACK CFI INIT 7a6c 80 .cfa: sp 0 +
STACK CFI 7a70 .cfa: sp 48 +
STACK CFI 7a7c .cfa: x29 48 + x19: .cfa -8 + ^ x20: .cfa -16 + ^ x21: .cfa -24 + ^ x22: .cfa -32 + ^ .ra: .cfa -40 + ^ x29: .cfa -48 + ^
STACK CFI 7a94 .cfa: sp 48 +
STACK CFI 7aa0 .cfa: sp 0 +
STACK CFI 7aa4 .cfa: x29 48 +
STACK CFI 7ad4 .cfa: sp 48 +
STACK CFI 7ae0 .cfa: sp 0 +
STACK CFI 7ae4 .cfa: x29 48 +
STACK CFI INIT 7aec 68 .cfa: sp 0 +
STACK CFI 7af0 .cfa: sp 32 +
STACK CFI 7af8 .cfa: x29 32 + x19: .cfa -8 + ^ x20: .cfa -16 + ^ .ra: .cfa -24 + ^ x29: .cfa -32 + ^
STACK CFI 7b10 .cfa: sp 32 +
STACK CFI 7b18 .cfa: sp 0 +
STACK CFI 7b1c .cfa: x29 32 +
STACK CFI 7b48 .cfa: sp 32 +
STACK CFI 7b50 .cfa: sp 0 +
STACK CFI INIT 7b54 14 .cfa: sp 0 +
STACK CFI 7b58 .cfa: sp 16 +
STACK CFI 7b5c .cfa: x29 16 + .ra: .cfa -8 + ^ x29: .cfa -16 + ^
STACK CFI INIT 7b68 4 .cfa: sp 0 +
STACK CFI INIT 7b6c 14 .cfa: sp 0 +
STACK CFI INIT 7b80 120 .cfa: sp 0 +
STACK CFI 7b84 .cfa: sp 64 +
STACK CFI 7b94 .cfa: x29 64 + x19: .cfa -8 + ^ x20: .cfa -16 + ^ x21: .cfa -24 + ^ x22: .cfa -32 + ^ x23: .cfa -40 + ^ x24: .cfa -48 + ^ .ra: .cfa -56 + ^ x29: .cfa -64 + ^
STACK CFI 7c8c .cfa: sp 64 +
STACK CFI 7c9c .cfa: sp 0 +
STACK CFI INIT 7ca0 4a4 .cfa: sp 0 +
STACK CFI 7ca4 .cfa: sp 32 +
STACK CFI 7cac .cfa: x29 32 + x19: .cfa -8 + ^ x20: .cfa -16 + ^ .ra: .cfa -24 + ^ x29: .cfa -32 + ^
STACK CFI 808c .cfa: sp 32 +
STACK CFI 8094 .cfa: sp 0 +
STACK CFI 8098 .cfa: x29 32 +
STACK CFI INIT 8144 84 .cfa: sp 0 +
STACK CFI 814c .cfa: sp 32 +
STACK CFI 8154 .cfa: x29 32 + x19: .cfa -8 + ^ x20: .cfa -16 + ^ .ra: .cfa -24 + ^ x29: .cfa -32 + ^
STACK CFI 8194 .cfa: sp 32 +
STACK CFI 819c .cfa: sp 0 +
STACK CFI 81a4 .cfa: x29 32 +
STACK CFI INIT 81c8 ac .cfa: sp 0 +
STACK CFI 81cc .cfa: sp 32 +
STACK CFI 81d4 .cfa: x29 32 + x19: .cfa -16 + ^ .ra: .cfa -24 + ^ x29: .cfa -32 + ^
STACK CFI 823c .cfa: sp 32 +
STACK CFI 8244 .cfa: sp 0 +
STACK CFI 8248 .cfa: x29 32 +
STACK CFI 8268 .cfa: sp 32 +
STACK CFI 8270 .cfa: sp 0 +
STACK CFI INIT 8274 50 .cfa: sp 0 +
STACK CFI 8278 .cfa: sp 32 +
STACK CFI 8280 .cfa: x29 32 + x19: .cfa -16 + ^ .ra: .cfa -24 + ^ x29: .cfa -32 + ^
STACK CFI 8298 .cfa: sp 32 +
STACK CFI 82a0 .cfa: sp 0 +
STACK CFI 82a4 .cfa: x29 32 +
STACK CFI 82b8 .cfa: sp 32 +
STACK CFI 82c0 .cfa: sp 0 +
STACK CFI INIT 82c4 64 .cfa: sp 0 +
STACK CFI 82c8 .cfa: sp 32 +
STACK CFI 82d0 .cfa: x29 32 + x19: .cfa -16 + ^ .ra: .cfa -24 + ^ x29: .cfa -32 + ^
STACK CFI 82fc .cfa: sp 32 +
STACK CFI 8304 .cfa: sp 0 +
STACK CFI 8308 .cfa: x29 32 +
STACK CFI 831c .cfa: sp 32 +
STACK CFI 8324 .cfa: sp 0 +
STACK CFI INIT 8328 f8 .cfa: sp 0 +
STACK CFI 832c .cfa: sp 64 +
STACK CFI 833c .cfa: x29 64 + x19: .cfa -8 + ^ x20: .cfa -16 + ^ x21: .cfa -24 + ^ x22: .cfa -32 + ^ x23: .cfa -48 + ^ .ra: .cfa -56 + ^ x29: .cfa -64 + ^
STACK CFI 8398 .cfa: sp 64 +
STACK CFI 83a8 .cfa: sp 0 +
STACK CFI 83ac .cfa: x29 64 +
STACK CFI 83c8 .cfa: sp 64 +
STACK CFI 83d8 .cfa: sp 0 +
STACK CFI 83dc .cfa: x29 64 +
STACK CFI 840c .cfa: sp 64 +
STACK CFI 841c .cfa: sp 0 +
STACK CFI INIT 8420 ac .cfa: sp 0 +
STACK CFI 8424 .cfa: sp 64 +
STACK CFI 8434 .cfa: x29 48 + x19: .cfa -8 + ^ x20: .cfa -16 + ^ x21: .cfa -32 + ^ .ra: .cfa -40 + ^ x29: .cfa -48 + ^
STACK CFI 84b4 .cfa: sp 64 +
STACK CFI 84c4 .cfa: sp 0 +
STACK CFI 84c8 .cfa: x29 48 +
STACK CFI INIT 84cc 168 .cfa: sp 0 +
STACK CFI 84d0 .cfa: sp 80 +
STACK CFI 84e4 .cfa: x29 80 + x19: .cfa -8 + ^ x20: .cfa -16 + ^ x21: .cfa -24 + ^ x22: .cfa -32 + ^ x23: .cfa -40 + ^ x24: .cfa -48 + ^ x25: .cfa -56 + ^ x26: .cfa -64 + ^ .ra: .cfa -72 + ^ x29: .cfa -80 + ^
STACK CFI 861c .cfa: sp 80 +
STACK CFI 8630 .cfa: sp 0 +
STACK CFI INIT 8634 1b0 .cfa: sp 0 +
STACK CFI INIT 8b58 4 .cfa: sp 0 +
STACK CFI INIT 8b5c 5c .cfa: sp 0 +
STACK CFI 8b60 .cfa: sp 48 +
STACK CFI 8b6c .cfa: x29 48 + x19: .cfa -8 + ^ x20: .cfa -16 + ^ x21: .cfa -32 + ^ .ra: .cfa -40 + ^ x29: .cfa -48 + ^
STACK CFI 8ba8 .cfa: sp 48 +
STACK CFI 8bb4 .cfa: sp 0 +
STACK CFI INIT 9294 4 .cfa: sp 0 +
STACK CFI INIT 9298 14 .cfa: sp 0 +
STACK CFI 929c .cfa: sp 16 +
STACK CFI 92a0 .cfa: x29 16 + .ra: .cfa -8 + ^ x29: .cfa -16 + ^
STACK CFI INIT 92ac 14 .cfa: sp 0 +
STACK CFI 92b0 .cfa: sp 16 +
STACK CFI 92b4 .cfa: x29 16 + .ra: .cfa -8 + ^ x29: .cfa -16 + ^
STACK CFI INIT 92c0 c .cfa: sp 0 +
STACK CFI 92c4 .cfa: sp 16 +
STACK CFI 92c8 .cfa: x29 16 + .ra: .cfa -8 + ^ x29: .cfa -16 + ^
STACK CFI INIT 931c 30 .cfa: sp 0 +
STACK CFI 9320 .cfa: sp 32 +
STACK CFI 9328 .cfa: x29 32 + x19: .cfa -16 + ^ .ra: .cfa -24 + ^ x29: .cfa -32 + ^
STACK CFI 9340 .cfa: sp 32 +
STACK CFI 9348 .cfa: sp 0 +
STACK CFI INIT 934c c .cfa: sp 0 +
STACK CFI 9350 .cfa: sp 16 +
STACK CFI 9354 .cfa: x29 16 + .ra: .cfa -8 + ^ x29: .cfa -16 + ^
STACK CFI INIT 9358 4 .cfa: sp 0 +
STACK CFI INIT 935c 4 .cfa: sp 0 +
STACK CFI INIT 9360 38 .cfa: sp 0 +
STACK CFI 9364 .cfa: sp 32 +
STACK CFI 936c .cfa: x29 32 + x19: .cfa -16 + ^ .ra: .cfa -24 + ^ x29: .cfa -32 + ^
STACK CFI 938c .cfa: sp 32 +
STACK CFI 9394 .cfa: sp 0 +
STACK CFI INIT 9398 18 .cfa: sp 0 +
STACK CFI INIT 93b0 4 .cfa: sp 0 +
STACK CFI INIT 93b4 4 .cfa: sp 0 +
STACK CFI INIT 93b8 10 .cfa: sp 0 +
STACK CFI INIT 93c8 1c .cfa: sp 0 +
STACK CFI INIT 93e4 c .cfa: sp 0 +
STACK CFI INIT 9768 4 .cfa: sp 0 +
STACK CFI INIT a140 4 .cfa: sp 0 +
STACK CFI INIT a144 4 .cfa: sp 0 +
STACK CFI INIT a148 4 .cfa: sp 0 +
STACK CFI INIT a14c 40 .cfa: sp 0 +
STACK CFI a150 .cfa: sp 32 +
STACK CFI a158 .cfa: x29 32 + x19: .cfa -16 + ^ .ra: .cfa -24 + ^ x29: .cfa -32 + ^
STACK CFI a180 .cfa: sp 32 +
STACK CFI a188 .cfa: sp 0 +
STACK CFI INIT a18c 20 .cfa: sp 0 +
STACK CFI INIT a1ac 4 .cfa: sp 0 +
STACK CFI INIT a1b0 4 .cfa: sp 0 +
STACK CFI INIT a1b4 2d4 .cfa: sp 0 +
STACK CFI a1b8 .cfa: sp 112 +
STACK CFI a1d0 .cfa: x29 80 + x19: .cfa -8 + ^ x20: .cfa -16 + ^ x21: .cfa -24 + ^ x22: .cfa -32 + ^ x23: .cfa -40 + ^ x24: .cfa -48 + ^ x25: .cfa -56 + ^ x26: .cfa -64 + ^ .ra: .cfa -72 + ^ x29: .cfa -80 + ^
STACK CFI a43c .cfa: sp 112 +
STACK CFI a454 .cfa: sp 0 +
STACK CFI a458 .cfa: x29 80 +
STACK CFI a468 .cfa: sp 112 +
STACK CFI a480 .cfa: sp 0 +
STACK CFI a484 .cfa: x29 80 +
STACK CFI INIT a488 1c .cfa: sp 0 +
STACK CFI INIT a4a4 c .cfa: sp 0 +
STACK CFI INIT a4b0 3c .cfa: sp 0 +
STACK CFI a4b4 .cfa: sp 32 +
STACK CFI a4bc .cfa: x29 32 + x19: .cfa -16 + ^ .ra: .cfa -24 + ^ x29: .cfa -32 + ^
STACK CFI a4c8 .cfa: sp 32 +
STACK CFI a4d0 .cfa: sp 0 +
STACK CFI a4d4 .cfa: x29 32 +
STACK CFI a4e0 .cfa: sp 32 +
STACK CFI a4e8 .cfa: sp 0 +
STACK CFI INIT a70c 64 .cfa: sp 0 +
STACK CFI a710 .cfa: sp 32 +
STACK CFI a718 .cfa: x29 32 + x19: .cfa -16 + ^ .ra: .cfa -24 + ^ x29: .cfa -32 + ^
STACK CFI a744 .cfa: sp 32 +
STACK CFI a74c .cfa: sp 0 +
STACK CFI a750 .cfa: x29 32 +
STACK CFI a764 .cfa: sp 32 +
STACK CFI a76c .cfa: sp 0 +
STACK CFI INIT b064 4 .cfa: sp 0 +
STACK CFI INIT b068 14 .cfa: sp 0 +
STACK CFI INIT b07c 14 .cfa: sp 0 +
STACK CFI b080 .cfa: sp 16 +
STACK CFI b084 .cfa: x29 16 + .ra: .cfa -8 + ^ x29: .cfa -16 + ^
STACK CFI INIT 5b90 45c .cfa: sp 0 +
STACK CFI 5b94 .cfa: sp 224 +
STACK CFI 5bb0 .cfa: x29 96 + x19: .cfa -8 + ^ x20: .cfa -16 + ^ x21: .cfa -24 + ^ x22: .cfa -32 + ^ x23: .cfa -40 + ^ x24: .cfa -48 + ^ x25: .cfa -56 + ^ x26: .cfa -64 + ^ x27: .cfa -72 + ^ x28: .cfa -80 + ^ .ra: .cfa -88 + ^ x29: .cfa -96 + ^
STACK CFI 5ed4 .cfa: sp 224 +
STACK CFI 5ef0 .cfa: sp 0 +
STACK CFI 5ef4 .cfa: x29 96 +
STACK CFI INIT 6004 484 .cfa: sp 0 +
STACK CFI 6008 .cfa: sp 224 +
STACK CFI 6024 .cfa: x29 96 + x19: .cfa -8 + ^ x20: .cfa -16 + ^ x21: .cfa -24 + ^ x22: .cfa -32 + ^ x23: .cfa -40 + ^ x24: .cfa -48 + ^ x25: .cfa -56 + ^ x26: .cfa -64 + ^ x27: .cfa -72 + ^ x28: .cfa -80 + ^ .ra: .cfa -88 + ^ x29: .cfa -96 + ^
STACK CFI 6294 .cfa: sp 224 +
STACK CFI 62b0 .cfa: sp 0 +
STACK CFI 62b4 .cfa: x29 96 +
STACK CFI 6380 .cfa: sp 224 +
STACK CFI 639c .cfa: sp 0 +
STACK CFI 63a0 .cfa: x29 96 +
STACK CFI INIT 64a0 484 .cfa: sp 0 +
STACK CFI 64a4 .cfa: sp 224 +
STACK CFI 64c0 .cfa: x29 96 + x19: .cfa -8 + ^ x20: .cfa -16 + ^ x21: .cfa -24 + ^ x22: .cfa -32 + ^ x23: .cfa -40 + ^ x24: .cfa -48 + ^ x25: .cfa -56 + ^ x26: .cfa -64 + ^ x27: .cfa -72 + ^ x28: .cfa -80 + ^ .ra: .cfa -88 + ^ x29: .cfa -96 + ^
STACK CFI 6730 .cfa: sp 224 +
STACK CFI 674c .cfa: sp 0 +
STACK CFI 6750 .cfa: x29 96 +
STACK CFI 681c .cfa: sp 224 +
STACK CFI 6838 .cfa: sp 0 +
STACK CFI 683c .cfa: x29 96 +
STACK CFI INIT 693c 358 .cfa: sp 0 +
STACK CFI 6940 .cfa: sp 208 +
STACK CFI 6954 .cfa: x29 64 + x19: .cfa -8 + ^ x20: .cfa -16 + ^ x21: .cfa -24 + ^ x22: .cfa -32 + ^ x23: .cfa -48 + ^ .ra: .cfa -56 + ^ x29: .cfa -64 + ^
STACK CFI 6b70 .cfa: sp 208 +
STACK CFI 6b84 .cfa: sp 0 +
STACK CFI 6b88 .cfa: x29 64 +
STACK CFI INIT 6ce4 74 .cfa: sp 0 +
STACK CFI 6ce8 .cfa: sp 48 +
STACK CFI 6cf4 .cfa: x29 32 + x19: .cfa -8 + ^ x20: .cfa -16 + ^ .ra: .cfa -24 + ^ x29: .cfa -32 + ^
STACK CFI 6d40 .cfa: sp 48 +
STACK CFI 6d4c .cfa: sp 0 +
STACK CFI 6d50 .cfa: x29 32 +
STACK CFI INIT 6de8 154 .cfa: sp 0 +
STACK CFI 6dec .cfa: sp 384 +
STACK CFI 6e00 .cfa: x29 64 + x19: .cfa -8 + ^ x20: .cfa -16 + ^ x21: .cfa -24 + ^ x22: .cfa -32 + ^ x23: .cfa -40 + ^ x28: .cfa -48 + ^ .ra: .cfa -56 + ^ x29: .cfa -64 + ^
STACK CFI 6ee4 .cfa: sp 384 +
STACK CFI 6ef8 .cfa: sp 0 +
STACK CFI 6efc .cfa: x29 64 +
STACK CFI INIT 6f70 12c .cfa: sp 0 +
STACK CFI 6f74 .cfa: sp 80 +
STACK CFI 6f88 .cfa: x29 80 + x19: .cfa -8 + ^ x20: .cfa -16 + ^ x21: .cfa -24 + ^ x22: .cfa -32 + ^ x23: .cfa -40 + ^ x24: .cfa -48 + ^ x25: .cfa -56 + ^ x26: .cfa -64 + ^ .ra: .cfa -72 + ^ x29: .cfa -80 + ^
STACK CFI 7050 .cfa: sp 80 +
STACK CFI 7064 .cfa: sp 0 +
STACK CFI 7068 .cfa: x29 80 +
STACK CFI INIT 7140 1a4 .cfa: sp 0 +
STACK CFI 7144 .cfa: sp 112 +
STACK CFI 715c .cfa: x29 80 + x19: .cfa -8 + ^ x20: .cfa -16 + ^ x21: .cfa -24 + ^ x22: .cfa -32 + ^ x23: .cfa -40 + ^ x24: .cfa -48 + ^ x25: .cfa -56 + ^ x26: .cfa -64 + ^ .ra: .cfa -72 + ^ x29: .cfa -80 + ^
STACK CFI 724c .cfa: sp 112 +
STACK CFI 7264 .cfa: sp 0 +
STACK CFI 7268 .cfa: x29 80 +
STACK CFI INIT 72e4 1dc .cfa: sp 0 +
STACK CFI 72e8 .cfa: sp 128 +
STACK CFI 7304 .cfa: x29 96 + x19: .cfa -8 + ^ x20: .cfa -16 + ^ x21: .cfa -24 + ^ x22: .cfa -32 + ^ x23: .cfa -40 + ^ x24: .cfa -48 + ^ x25: .cfa -56 + ^ x26: .cfa -64 + ^ x27: .cfa -80 + ^ .ra: .cfa -88 + ^ x29: .cfa -96 + ^
STACK CFI 7470 .cfa: sp 128 +
STACK CFI 748c .cfa: sp 0 +
STACK CFI 7490 .cfa: x29 96 +
STACK CFI INIT 74d4 50 .cfa: sp 0 +
STACK CFI 74d8 .cfa: sp 32 +
STACK CFI 74e0 .cfa: x29 32 + x19: .cfa -8 + ^ x20: .cfa -16 + ^ .ra: .cfa -24 + ^ x29: .cfa -32 + ^
STACK CFI INIT 7588 178 .cfa: sp 0 +
STACK CFI 758c .cfa: sp 80 +
STACK CFI 75a0 .cfa: x29 80 + x19: .cfa -8 + ^ x20: .cfa -16 + ^ x21: .cfa -24 + ^ x22: .cfa -32 + ^ x23: .cfa -40 + ^ x24: .cfa -48 + ^ x25: .cfa -64 + ^ .ra: .cfa -72 + ^ x29: .cfa -80 + ^
STACK CFI 76cc .cfa: sp 80 +
STACK CFI 76e0 .cfa: sp 0 +
STACK CFI 76e4 .cfa: x29 80 +
STACK CFI INIT 7848 224 .cfa: sp 0 +
STACK CFI 784c .cfa: sp 128 +
STACK CFI 7864 .cfa: x29 80 + x19: .cfa -8 + ^ x20: .cfa -16 + ^ x21: .cfa -24 + ^ x22: .cfa -32 + ^ x23: .cfa -40 + ^ x24: .cfa -48 + ^ x25: .cfa -64 + ^ .ra: .cfa -72 + ^ x29: .cfa -80 + ^
STACK CFI 7a00 .cfa: sp 128 +
STACK CFI 7a18 .cfa: sp 0 +
STACK CFI 7a1c .cfa: x29 80 +
STACK CFI INIT 87e4 374 .cfa: sp 0 +
STACK CFI 87e8 .cfa: sp 256 +
STACK CFI 87fc .cfa: x29 64 + x19: .cfa -8 + ^ x20: .cfa -16 + ^ x21: .cfa -24 + ^ x22: .cfa -32 + ^ x23: .cfa -48 + ^ .ra: .cfa -56 + ^ x29: .cfa -64 + ^
STACK CFI 8a2c .cfa: sp 256 +
STACK CFI 8a40 .cfa: sp 0 +
STACK CFI 8a44 .cfa: x29 64 +
STACK CFI INIT 8bb8 18c .cfa: sp 0 +
STACK CFI 8bbc .cfa: sp 112 +
STACK CFI 8bcc .cfa: x29 48 + x19: .cfa -8 + ^ x20: .cfa -16 + ^ x21: .cfa -32 + ^ .ra: .cfa -40 + ^ x29: .cfa -48 + ^
STACK CFI 8c98 .cfa: sp 112 +
STACK CFI 8ca8 .cfa: sp 0 +
STACK CFI 8cac .cfa: x29 48 +
STACK CFI INIT 8d44 444 .cfa: sp 0 +
STACK CFI 8d48 .cfa: sp 176 +
STACK CFI 8d64 .cfa: x29 96 + x19: .cfa -8 + ^ x20: .cfa -16 + ^ x21: .cfa -24 + ^ x22: .cfa -32 + ^ x23: .cfa -40 + ^ x24: .cfa -48 + ^ x25: .cfa -56 + ^ x26: .cfa -64 + ^ x27: .cfa -72 + ^ x28: .cfa -80 + ^ .ra: .cfa -88 + ^ x29: .cfa -96 + ^
STACK CFI 8da4 .cfa: sp 176 +
STACK CFI 8dc0 .cfa: sp 0 +
STACK CFI 8dc4 .cfa: x29 96 +
STACK CFI INIT 9188 10c .cfa: sp 0 +
STACK CFI 918c .cfa: sp 64 +
STACK CFI 919c .cfa: x29 64 + x19: .cfa -8 + ^ x20: .cfa -16 + ^ x21: .cfa -24 + ^ x22: .cfa -32 + ^ x23: .cfa -48 + ^ .ra: .cfa -56 + ^ x29: .cfa -64 + ^
STACK CFI 9274 .cfa: sp 64 +
STACK CFI 9284 .cfa: sp 0 +
STACK CFI 9288 .cfa: x29 64 +
STACK CFI INIT 92cc 50 .cfa: sp 0 +
STACK CFI 92d0 .cfa: sp 32 +
STACK CFI 92d8 .cfa: x29 32 + x19: .cfa -8 + ^ x20: .cfa -16 + ^ .ra: .cfa -24 + ^ x29: .cfa -32 + ^
STACK CFI INIT 93f0 378 .cfa: sp 0 +
STACK CFI 93f4 .cfa: sp 256 +
STACK CFI 9408 .cfa: x29 64 + x19: .cfa -8 + ^ x20: .cfa -16 + ^ x21: .cfa -24 + ^ x22: .cfa -32 + ^ x23: .cfa -48 + ^ .ra: .cfa -56 + ^ x29: .cfa -64 + ^
STACK CFI 963c .cfa: sp 256 +
STACK CFI 9650 .cfa: sp 0 +
STACK CFI 9654 .cfa: x29 64 +
STACK CFI INIT 976c 848 .cfa: sp 0 +
STACK CFI 9770 .cfa: sp 256 +
STACK CFI 978c .cfa: x29 72 + x19: .cfa -8 + ^ x20: .cfa -16 + ^ x21: .cfa -24 + ^ x22: .cfa -32 + ^ x23: .cfa -40 + ^ x24: .cfa -48 + ^ x25: .cfa -56 + ^ .ra: .cfa -64 + ^ x29: .cfa -72 + ^ v8: .cfa -80 + ^
STACK CFI 97d4 .cfa: sp 256 +
STACK CFI 97f0 .cfa: sp 0 +
STACK CFI 97f4 .cfa: x29 72 +
STACK CFI 9de8 .cfa: sp 256 +
STACK CFI 9e04 .cfa: sp 0 +
STACK CFI 9e08 .cfa: x29 72 +
STACK CFI INIT 9fb4 18c .cfa: sp 0 +
STACK CFI 9fb8 .cfa: sp 112 +
STACK CFI 9fc8 .cfa: x29 48 + x19: .cfa -8 + ^ x20: .cfa -16 + ^ x21: .cfa -32 + ^ .ra: .cfa -40 + ^ x29: .cfa -48 + ^
STACK CFI a098 .cfa: sp 112 +
STACK CFI a0a8 .cfa: sp 0 +
STACK CFI a0ac .cfa: x29 48 +
STACK CFI INIT a4ec 134 .cfa: sp 0 +
STACK CFI a4f0 .cfa: sp 80 +
STACK CFI a4fc .cfa: x29 32 + x19: .cfa -8 + ^ x20: .cfa -16 + ^ .ra: .cfa -24 + ^ x29: .cfa -32 + ^
STACK CFI a52c .cfa: sp 80 +
STACK CFI a538 .cfa: sp 0 +
STACK CFI a53c .cfa: x29 32 +
STACK CFI INIT a620 78 .cfa: sp 0 +
STACK CFI a624 .cfa: sp 32 +
STACK CFI a62c .cfa: x29 32 + x19: .cfa -8 + ^ x20: .cfa -16 + ^ .ra: .cfa -24 + ^ x29: .cfa -32 + ^
STACK CFI a638 .cfa: sp 32 +
STACK CFI a640 .cfa: sp 0 +
STACK CFI a644 .cfa: x29 32 +
STACK CFI INIT a698 74 .cfa: sp 0 +
STACK CFI a69c .cfa: sp 48 +
STACK CFI a6a8 .cfa: x29 32 + x19: .cfa -8 + ^ x20: .cfa -16 + ^ .ra: .cfa -24 + ^ x29: .cfa -32 + ^
STACK CFI a6f4 .cfa: sp 48 +
STACK CFI a700 .cfa: sp 0 +
STACK CFI a704 .cfa: x29 32 +
STACK CFI INIT a770 200 .cfa: sp 0 +
STACK CFI a774 .cfa: sp 208 +
STACK CFI a794 .cfa: x29 96 + x19: .cfa -8 + ^ x20: .cfa -16 + ^ x21: .cfa -24 + ^ x22: .cfa -32 + ^ x23: .cfa -40 + ^ x24: .cfa -48 + ^ x25: .cfa -56 + ^ x26: .cfa -64 + ^ x27: .cfa -72 + ^ x28: .cfa -80 + ^ .ra: .cfa -88 + ^ x29: .cfa -96 + ^ v8: .cfa -112 + ^
STACK CFI a850 .cfa: sp 208 +
STACK CFI a870 .cfa: sp 0 +
STACK CFI a874 .cfa: x29 96 +
STACK CFI INIT a970 438 .cfa: sp 0 +
STACK CFI a974 .cfa: sp 96 +
STACK CFI a988 .cfa: x29 64 + x19: .cfa -8 + ^ x20: .cfa -16 + ^ x21: .cfa -24 + ^ x22: .cfa -32 + ^ x23: .cfa -40 + ^ x24: .cfa -48 + ^ .ra: .cfa -56 + ^ x29: .cfa -64 + ^
STACK CFI ad38 .cfa: sp 96 +
STACK CFI ad4c .cfa: sp 0 +
STACK CFI ad50 .cfa: x29 64 +
STACK CFI INIT ada8 154 .cfa: sp 0 +
STACK CFI adac .cfa: sp 384 +
STACK CFI adc0 .cfa: x29 64 + x19: .cfa -8 + ^ x20: .cfa -16 + ^ x21: .cfa -24 + ^ x22: .cfa -32 + ^ x23: .cfa -40 + ^ x28: .cfa -48 + ^ .ra: .cfa -56 + ^ x29: .cfa -64 + ^
STACK CFI aea4 .cfa: sp 384 +
STACK CFI aeb8 .cfa: sp 0 +
STACK CFI aebc .cfa: x29 64 +
STACK CFI INIT aefc 168 .cfa: sp 0 +
STACK CFI af00 .cfa: sp 384 +
STACK CFI af14 .cfa: x29 64 + x19: .cfa -8 + ^ x20: .cfa -16 + ^ x21: .cfa -24 + ^ x22: .cfa -32 + ^ x23: .cfa -40 + ^ x28: .cfa -48 + ^ .ra: .cfa -56 + ^ x29: .cfa -64 + ^
STACK CFI b00c .cfa: sp 384 +
STACK CFI b020 .cfa: sp 0 +
STACK CFI b024 .cfa: x29 64 +
