MODULE Linux arm64 7A97ADCE2F9B1398CB4490CDF9E9CFC20 nwo5.better_object_tab_icons.android64.so
INFO CODE_ID CEAD977A9B2F9813CB4490CDF9E9CFC2CA4366DC
INFO GENERATOR mozilla/dump_syms 2.3.4
PUBLIC 4b80 0 __on_dlclose
PUBLIC 4b90 0 __emutls_unregister_key
PUBLIC 4b98 0 __on_dlclose_late
PUBLIC 4ba0 0 __atexit_handler_wrapper
PUBLIC 4bb4 0 atexit
PUBLIC 4bd0 0 pthread_atfork
PUBLIC 4be0 0 unwind_phase2
PUBLIC 4d14 0 _Unwind_Resume
PUBLIC 4d98 0 unwind_phase2_forced
PUBLIC m 4e8c 0 __unw_init_local
PUBLIC m 4f34 0 __unw_get_reg
PUBLIC 4fb0 0 __unw_step_stage2
PUBLIC m 4fc4 0 __unw_get_proc_info
PUBLIC m 5004 0 __unw_resume
PUBLIC 502c 0 libunwind::CFI_Parser<libunwind::LocalAddressSpace>::decodeFDE(libunwind::LocalAddressSpace&, unsigned long, libunwind::CFI_Parser<libunwind::LocalAddressSpace>::FDE_Info*, libunwind::CFI_Parser<libunwind::LocalAddressSpace>::CIE_Info*, bool)
PUBLIC 51bc 0 libunwind::CFI_Parser<libunwind::LocalAddressSpace>::parseCIE(libunwind::LocalAddressSpace&, unsigned long, libunwind::CFI_Parser<libunwind::LocalAddressSpace>::CIE_Info*)
PUBLIC 5484 0 libunwind::AbstractUnwindCursor::~AbstractUnwindCursor()
PUBLIC 548c 0 libunwind::UnwindCursor<libunwind::LocalAddressSpace, libunwind::Registers_arm64>::~UnwindCursor()
PUBLIC 5494 0 libunwind::UnwindCursor<libunwind::LocalAddressSpace, libunwind::Registers_arm64>::validReg(int)
PUBLIC 54d8 0 libunwind::UnwindCursor<libunwind::LocalAddressSpace, libunwind::Registers_arm64>::getReg(int)
PUBLIC 55c0 0 libunwind::UnwindCursor<libunwind::LocalAddressSpace, libunwind::Registers_arm64>::setReg(int, unsigned long)
PUBLIC 56a8 0 libunwind::UnwindCursor<libunwind::LocalAddressSpace, libunwind::Registers_arm64>::validFloatReg(int)
PUBLIC 56bc 0 libunwind::UnwindCursor<libunwind::LocalAddressSpace, libunwind::Registers_arm64>::getFloatReg(int)
PUBLIC 56cc 0 libunwind::UnwindCursor<libunwind::LocalAddressSpace, libunwind::Registers_arm64>::setFloatReg(int, double)
PUBLIC 56dc 0 libunwind::UnwindCursor<libunwind::LocalAddressSpace, libunwind::Registers_arm64>::step(bool)
PUBLIC 57cc 0 libunwind::UnwindCursor<libunwind::LocalAddressSpace, libunwind::Registers_arm64>::getInfo(unw_proc_info_t*)
PUBLIC 5810 0 libunwind::UnwindCursor<libunwind::LocalAddressSpace, libunwind::Registers_arm64>::jumpto()
PUBLIC 581c 0 libunwind::UnwindCursor<libunwind::LocalAddressSpace, libunwind::Registers_arm64>::isSignalFrame()
PUBLIC 5828 0 libunwind::UnwindCursor<libunwind::LocalAddressSpace, libunwind::Registers_arm64>::getFunctionName(char*, unsigned long, unsigned long*)
PUBLIC 5854 0 libunwind::UnwindCursor<libunwind::LocalAddressSpace, libunwind::Registers_arm64>::setInfoBasedOnIPRegister(bool)
PUBLIC 5ad4 0 libunwind::UnwindCursor<libunwind::LocalAddressSpace, libunwind::Registers_arm64>::getRegisterName(int)
PUBLIC 5ae0 0 libunwind::UnwindCursor<libunwind::LocalAddressSpace, libunwind::Registers_arm64>::stepThroughSigReturn(libunwind::Registers_arm64&)
PUBLIC 5c00 0 libunwind::DwarfInstructions<libunwind::LocalAddressSpace, libunwind::Registers_arm64>::stepWithDwarf(libunwind::LocalAddressSpace&, unsigned long, unsigned long, libunwind::Registers_arm64&, bool&, bool)
PUBLIC 6088 0 libunwind::CFI_Parser<libunwind::LocalAddressSpace>::parseFDEInstructions(libunwind::LocalAddressSpace&, libunwind::CFI_Parser<libunwind::LocalAddressSpace>::FDE_Info const&, libunwind::CFI_Parser<libunwind::LocalAddressSpace>::CIE_Info const&, unsigned long, int, libunwind::CFI_Parser<libunwind::LocalAddressSpace>::PrologInfo*)
PUBLIC 6cd0 0 libunwind::DwarfInstructions<libunwind::LocalAddressSpace, libunwind::Registers_arm64>::getCFA(libunwind::LocalAddressSpace&, libunwind::CFI_Parser<libunwind::LocalAddressSpace>::PrologInfo const&, libunwind::Registers_arm64 const&)
PUBLIC 6e04 0 libunwind::DwarfInstructions<libunwind::LocalAddressSpace, libunwind::Registers_arm64>::getSavedRegister(libunwind::LocalAddressSpace&, libunwind::Registers_arm64 const&, unsigned long, libunwind::CFI_Parser<libunwind::LocalAddressSpace>::RegisterLocation const&)
PUBLIC 7014 0 libunwind::LocalAddressSpace::getEncodedP(unsigned long&, unsigned long, unsigned char, unsigned long)
PUBLIC 73a0 0 libunwind::LocalAddressSpace::getULEB128(unsigned long&, unsigned long)
PUBLIC 7568 0 libunwind::DwarfInstructions<libunwind::LocalAddressSpace, libunwind::Registers_arm64>::evaluateExpression(unsigned long, libunwind::LocalAddressSpace&, libunwind::Registers_arm64 const&, unsigned long)
PUBLIC 7f24 0 libunwind::UnwindCursor<libunwind::LocalAddressSpace, libunwind::Registers_arm64>::getInfoFromDwarfSection(unsigned long, libunwind::UnwindInfoSections const&, unsigned int)
PUBLIC 81f8 0 libunwind::findUnwindSectionsByPhdr(dl_phdr_info*, unsigned long, void*)
PUBLIC 832c 0 libunwind::EHHeaderParser<libunwind::LocalAddressSpace>::decodeEHHdr(libunwind::LocalAddressSpace&, unsigned long, unsigned long, libunwind::EHHeaderParser<libunwind::LocalAddressSpace>::EHHeaderInfo&)
PUBLIC 844c 0 libunwind::CFI_Parser<libunwind::LocalAddressSpace>::findFDE(libunwind::LocalAddressSpace&, unsigned long, unsigned long, unsigned long, unsigned long, libunwind::CFI_Parser<libunwind::LocalAddressSpace>::FDE_Info*, libunwind::CFI_Parser<libunwind::LocalAddressSpace>::CIE_Info*)
PUBLIC 8614 0 libunwind::EHHeaderParser<libunwind::LocalAddressSpace>::findFDE(libunwind::LocalAddressSpace&, unsigned long, unsigned long, unsigned int, libunwind::CFI_Parser<libunwind::LocalAddressSpace>::FDE_Info*, libunwind::CFI_Parser<libunwind::LocalAddressSpace>::CIE_Info*)
PUBLIC 877c 0 libunwind::EHHeaderParser<libunwind::LocalAddressSpace>::getTableEntrySize(unsigned char)
PUBLIC 8878 0 libunwind::Registers_arm64::getRegisterName(int)
PUBLIC 88a8 0 __libunwind_Registers_arm64_jumpto
PUBLIC m 8938 0 __unw_getcontext
PUBLIC 89e0 0 __aarch64_ldadd8_relax
PUBLIC 8a10 0 init_have_lse_atomics
PUBLIC 8aa8 0 __init_cpu_features_constructor
PUBLIC 9044 0 __init_cpu_features
PUBLIC 90d0 0 __aarch64_ldadd8_acq_rel
PUBLIC 9100 0 __cxx_global_var_init
PUBLIC 9cd4 0 geode::modifier::ModifyBase<geode::modifier::ModifyDerive<editui, EditorUI> >::~ModifyBase()
PUBLIC 9cec 0 geode::modifier::ModifyDerive<editui, EditorUI>::apply()
PUBLIC a2e8 0 std::__ndk1::shared_ptr<geode::Hook>::~shared_ptr[abi:ne180000]()
PUBLIC a338 0 geode::impl::ResultData<geode::Hook*, std::__ndk1::basic_string<char, std::__ndk1::char_traits<char>, std::__ndk1::allocator<char> > >::~ResultData()
PUBLIC a3ac 0 std::__ndk1::vector<std::__ndk1::basic_string<char, std::__ndk1::char_traits<char>, std::__ndk1::allocator<char> >, std::__ndk1::allocator<std::__ndk1::basic_string<char, std::__ndk1::char_traits<char>, std::__ndk1::allocator<char> > > >::~vector[abi:ne180000]()
PUBLIC a428 0 geode::modifier::ModifyBase<geode::modifier::ModifyDerive<editui, EditorUI> >::apply()
PUBLIC a42c 0 __clang_call_terminate
PUBLIC a43c 0 _ZN5geode15UnwrapExceptionC2IRPNS_4HookEQsr4implE18IsStringStreamableIT_EEENS_4impl5OkTagEOS5_
PUBLIC ab38 0 std::__ndk1::__throw_bad_variant_access[abi:ne180000]()
PUBLIC m ab6c 0 std::__ndk1::basic_stringstream<char, std::__ndk1::char_traits<char>, std::__ndk1::allocator<char> >::~basic_stringstream()
PUBLIC abec 0 geode::UnwrapException::~UnwrapException()
PUBLIC ac10 0 std::__ndk1::basic_string<char, std::__ndk1::char_traits<char>, std::__ndk1::allocator<char> >::__throw_length_error[abi:ne180000]() const
PUBLIC ac24 0 std::__ndk1::__throw_length_error[abi:ne180000](char const*)
PUBLIC ac74 0 std::length_error::length_error[abi:ne180000](char const*)
PUBLIC aca4 0 std::__throw_bad_array_new_length([abi:ne180000], void)
PUBLIC acd8 0 std::__ndk1::basic_string<char, std::__ndk1::char_traits<char>, std::__ndk1::allocator<char> >::__init_copy_ctor_external(char const*, unsigned long)
PUBLIC ad54 0 std::__ndk1::__split_buffer<std::__ndk1::basic_string<char, std::__ndk1::char_traits<char>, std::__ndk1::allocator<char> >, std::__ndk1::allocator<std::__ndk1::basic_string<char, std::__ndk1::char_traits<char>, std::__ndk1::allocator<char> > >&>::~__split_buffer()
PUBLIC adbc 0 std::__ndk1::vector<std::__ndk1::basic_string<char, std::__ndk1::char_traits<char>, std::__ndk1::allocator<char> >, std::__ndk1::allocator<std::__ndk1::basic_string<char, std::__ndk1::char_traits<char>, std::__ndk1::allocator<char> > > >::__throw_length_error[abi:ne180000]() const
PUBLIC add0 0 std::__ndk1::__variant_detail::__visitation::__base::__dispatcher<(unsigned long)0>::__dispatch[abi:ne180000]<std::__ndk1::__variant_detail::__dtor<std::__ndk1::__variant_detail::__traits<geode::Hook*, std::__ndk1::basic_string<char, std::__ndk1::char_traits<char>, std::__ndk1::allocator<char> > >, (std::__ndk1::__variant_detail::_Trait)1>::__destroy[abi:ne180000]()::{lambda(auto:1&)#1}, std::__ndk1::__variant_detail::__base<(std::__ndk1::__variant_detail::__traits<geode::Hook*, std::__ndk1::basic_string<char, std::__ndk1::char_traits<char>, std::__ndk1::allocator<char> > >)1, geode::Hook, std::__ndk1::allocator<char> >&>(std::__ndk1::__variant_detail::__dtor<std::__ndk1::__variant_detail::__traits<geode::Hook*, std::__ndk1::basic_string<char, std::__ndk1::char_traits<char>, std::__ndk1::allocator<char> > >, (std::__ndk1::__variant_detail::_Trait)1>, std::__ndk1::__variant_detail::__base<(std::__ndk1::__variant_detail::__traits<geode::Hook*, std::__ndk1::basic_string<char, std::__ndk1::char_traits<char>, std::__ndk1::allocator<char> > >)1, geode::Hook, std::__ndk1::allocator<char> >&)
PUBLIC add4 0 std::__ndk1::__variant_detail::__visitation::__base::__dispatcher<(unsigned long)1>::__dispatch[abi:ne180000]<std::__ndk1::__variant_detail::__dtor<std::__ndk1::__variant_detail::__traits<geode::Hook*, std::__ndk1::basic_string<char, std::__ndk1::char_traits<char>, std::__ndk1::allocator<char> > >, (std::__ndk1::__variant_detail::_Trait)1>::__destroy[abi:ne180000]()::{lambda(auto:1&)#1}, std::__ndk1::__variant_detail::__base<(std::__ndk1::__variant_detail::__traits<geode::Hook*, std::__ndk1::basic_string<char, std::__ndk1::char_traits<char>, std::__ndk1::allocator<char> > >)1, geode::Hook, std::__ndk1::allocator<char> >&>(std::__ndk1::__variant_detail::__dtor<std::__ndk1::__variant_detail::__traits<geode::Hook*, std::__ndk1::basic_string<char, std::__ndk1::char_traits<char>, std::__ndk1::allocator<char> > >, (std::__ndk1::__variant_detail::_Trait)1>, std::__ndk1::__variant_detail::__base<(std::__ndk1::__variant_detail::__traits<geode::Hook*, std::__ndk1::basic_string<char, std::__ndk1::char_traits<char>, std::__ndk1::allocator<char> > >)1, geode::Hook, std::__ndk1::allocator<char> >&)
PUBLIC ade8 0 std::__ndk1::__tree<std::__ndk1::__value_type<std::__ndk1::basic_string<char, std::__ndk1::char_traits<char>, std::__ndk1::allocator<char> >, std::__ndk1::shared_ptr<geode::Hook> >, std::__ndk1::__map_value_compare<std::__ndk1::basic_string<char, std::__ndk1::char_traits<char>, std::__ndk1::allocator<char> >, std::__ndk1::__value_type<std::__ndk1::basic_string<char, std::__ndk1::char_traits<char>, std::__ndk1::allocator<char> >, std::__ndk1::shared_ptr<geode::Hook> >, std::__ndk1::less<std::__ndk1::basic_string<char, std::__ndk1::char_traits<char>, std::__ndk1::allocator<char> > >, true>, std::__ndk1::allocator<std::__ndk1::__value_type<std::__ndk1::basic_string<char, std::__ndk1::char_traits<char>, std::__ndk1::allocator<char> >, std::__ndk1::shared_ptr<geode::Hook> > > >::destroy(std::__ndk1::__tree_node<std::__ndk1::__value_type<std::__ndk1::basic_string<char, std::__ndk1::char_traits<char>, std::__ndk1::allocator<char> >, std::__ndk1::shared_ptr<geode::Hook> >, void*>*)
PUBLIC ae6c 0 geode::modifier::AsStaticFunction_init<editui, bool (editui::*)(LevelEditorLayer*)>::Impl<bool (editui::*)(LevelEditorLayer*)>::function(editui*, LevelEditorLayer*)
PUBLIC ae70 0 std::__ndk1::shared_ptr<tulip::hook::CallingConvention>::~shared_ptr[abi:ne180000]()
PUBLIC aec0 0 tulip::hook::HandlerMetadata::~HandlerMetadata()
PUBLIC af24 0 editui::init(LevelEditorLayer*)
PUBLIC cf54 0 geode::Mod::getSettingValue<bool>(std::__ndk1::basic_string_view<char, std::__ndk1::char_traits<char> >) const
PUBLIC d084 0 geode::cast::traverseTypeinfoFor(void*, geode::cast::ClassTypeinfoType const*, char const*)
PUBLIC m d17c 0 geodeImplicitEntry
PUBLIC d1c0 0 <.plt ELF section in nwo5.better_object_tab_icons.android64.so>
STACK CFI INIT 4b80 10 .cfa: sp 0 +
STACK CFI INIT 4b90 8 .cfa: sp 0 +
STACK CFI INIT 4b98 8 .cfa: sp 0 +
STACK CFI INIT 4ba0 14 .cfa: sp 0 +
STACK CFI INIT 4bb4 1c .cfa: sp 0 +
STACK CFI INIT 4bd0 10 .cfa: sp 0 +
STACK CFI INIT 4be0 134 .cfa: sp 0 +
STACK CFI INIT 4d14 84 .cfa: sp 0 +
STACK CFI INIT 4d98 f4 .cfa: sp 0 +
STACK CFI INIT 4e8c a8 .cfa: sp 0 +
STACK CFI INIT 4f34 7c .cfa: sp 0 +
STACK CFI INIT 4fb0 14 .cfa: sp 0 +
STACK CFI INIT 4fc4 40 .cfa: sp 0 +
STACK CFI INIT 5004 28 .cfa: sp 0 +
STACK CFI INIT 502c 190 .cfa: sp 0 +
STACK CFI INIT 51bc 2c8 .cfa: sp 0 +
STACK CFI INIT 5484 8 .cfa: sp 0 +
STACK CFI INIT 548c 8 .cfa: sp 0 +
STACK CFI INIT 5494 44 .cfa: sp 0 +
STACK CFI INIT 54d8 e8 .cfa: sp 0 +
STACK CFI INIT 55c0 e8 .cfa: sp 0 +
STACK CFI INIT 56a8 14 .cfa: sp 0 +
STACK CFI INIT 56bc 10 .cfa: sp 0 +
STACK CFI INIT 56cc 10 .cfa: sp 0 +
STACK CFI INIT 56dc f0 .cfa: sp 0 +
STACK CFI INIT 57cc 44 .cfa: sp 0 +
STACK CFI INIT 5810 c .cfa: sp 0 +
STACK CFI INIT 581c c .cfa: sp 0 +
STACK CFI INIT 5828 2c .cfa: sp 0 +
STACK CFI INIT 5854 280 .cfa: sp 0 +
STACK CFI INIT 5ad4 c .cfa: sp 0 +
STACK CFI INIT 5ae0 120 .cfa: sp 0 +
STACK CFI INIT 5c00 488 .cfa: sp 0 +
STACK CFI INIT 6088 c48 .cfa: sp 0 +
STACK CFI INIT 6cd0 134 .cfa: sp 0 +
STACK CFI INIT 6e04 210 .cfa: sp 0 +
STACK CFI INIT 7014 38c .cfa: sp 0 +
STACK CFI INIT 73a0 1c8 .cfa: sp 0 +
STACK CFI INIT 7568 9bc .cfa: sp 0 +
STACK CFI INIT 7f24 2d4 .cfa: sp 0 +
STACK CFI INIT 81f8 134 .cfa: sp 0 +
STACK CFI INIT 832c 120 .cfa: sp 0 +
STACK CFI INIT 844c 1c8 .cfa: sp 0 +
STACK CFI INIT 8614 168 .cfa: sp 0 +
STACK CFI INIT 877c fc .cfa: sp 0 +
STACK CFI INIT 8878 30 .cfa: sp 0 +
STACK CFI INIT 89e0 30 .cfa: sp 0 +
STACK CFI INIT 8a10 98 .cfa: sp 0 +
STACK CFI INIT 8aa8 59c .cfa: sp 0 +
STACK CFI INIT 9044 8c .cfa: sp 0 +
STACK CFI INIT 90d0 30 .cfa: sp 0 +
STACK CFI INIT 9cd4 18 .cfa: sp 0 +
STACK CFI INIT a2e8 50 .cfa: sp 0 +
STACK CFI a2ec .cfa: sp 32 +
STACK CFI a2f4 .cfa: x29 32 + x19: .cfa -16 + ^ .ra: .cfa -24 + ^ x29: .cfa -32 + ^
STACK CFI a30c .cfa: sp 32 +
STACK CFI a314 .cfa: sp 0 +
STACK CFI a318 .cfa: x29 32 +
STACK CFI a32c .cfa: sp 32 +
STACK CFI a334 .cfa: sp 0 +
STACK CFI INIT a3ac 7c .cfa: sp 0 +
STACK CFI a3b0 .cfa: sp 48 +
STACK CFI a3bc .cfa: x29 48 + x19: .cfa -8 + ^ x20: .cfa -16 + ^ x21: .cfa -32 + ^ .ra: .cfa -40 + ^ x29: .cfa -48 + ^
STACK CFI a408 .cfa: sp 48 +
STACK CFI a414 .cfa: sp 0 +
STACK CFI a418 .cfa: sp 48 +
STACK CFI a424 .cfa: sp 0 +
STACK CFI INIT a428 4 .cfa: sp 0 +
STACK CFI INIT a42c 10 .cfa: sp 0 +
STACK CFI a430 .cfa: sp 16 +
STACK CFI a434 .cfa: x29 16 + .ra: .cfa -8 + ^ x29: .cfa -16 + ^
STACK CFI INIT ab38 34 .cfa: sp 0 +
STACK CFI ab3c .cfa: sp 16 +
STACK CFI ab40 .cfa: x29 16 + .ra: .cfa -8 + ^ x29: .cfa -16 + ^
STACK CFI INIT ab6c 80 .cfa: sp 0 +
STACK CFI ab70 .cfa: sp 48 +
STACK CFI ab7c .cfa: x29 48 + x19: .cfa -8 + ^ x20: .cfa -16 + ^ x21: .cfa -32 + ^ .ra: .cfa -40 + ^ x29: .cfa -48 + ^
STACK CFI abdc .cfa: sp 48 +
STACK CFI abe8 .cfa: sp 0 +
STACK CFI INIT abec 24 .cfa: sp 0 +
STACK CFI abf0 .cfa: sp 32 +
STACK CFI abf8 .cfa: x29 32 + x19: .cfa -16 + ^ .ra: .cfa -24 + ^ x29: .cfa -32 + ^
STACK CFI ac04 .cfa: sp 32 +
STACK CFI ac0c .cfa: sp 0 +
STACK CFI INIT ac10 14 .cfa: sp 0 +
STACK CFI ac14 .cfa: sp 16 +
STACK CFI ac18 .cfa: x29 16 + .ra: .cfa -8 + ^ x29: .cfa -16 + ^
STACK CFI INIT ac74 30 .cfa: sp 0 +
STACK CFI ac78 .cfa: sp 32 +
STACK CFI ac80 .cfa: x29 32 + x19: .cfa -16 + ^ .ra: .cfa -24 + ^ x29: .cfa -32 + ^
STACK CFI ac98 .cfa: sp 32 +
STACK CFI aca0 .cfa: sp 0 +
STACK CFI INIT aca4 34 .cfa: sp 0 +
STACK CFI aca8 .cfa: sp 32 +
STACK CFI acb0 .cfa: x29 32 + x19: .cfa -16 + ^ .ra: .cfa -24 + ^ x29: .cfa -32 + ^
STACK CFI INIT acd8 7c .cfa: sp 0 +
STACK CFI acdc .cfa: sp 48 +
STACK CFI ace8 .cfa: x29 48 + x19: .cfa -8 + ^ x20: .cfa -16 + ^ x21: .cfa -24 + ^ x22: .cfa -32 + ^ .ra: .cfa -40 + ^ x29: .cfa -48 + ^
STACK CFI ad00 .cfa: sp 48 +
STACK CFI ad0c .cfa: sp 0 +
STACK CFI ad10 .cfa: x29 48 +
STACK CFI ad40 .cfa: sp 48 +
STACK CFI ad4c .cfa: sp 0 +
STACK CFI ad50 .cfa: x29 48 +
STACK CFI INIT ad54 68 .cfa: sp 0 +
STACK CFI ad58 .cfa: sp 32 +
STACK CFI ad60 .cfa: x29 32 + x19: .cfa -8 + ^ x20: .cfa -16 + ^ .ra: .cfa -24 + ^ x29: .cfa -32 + ^
STACK CFI ad78 .cfa: sp 32 +
STACK CFI ad80 .cfa: sp 0 +
STACK CFI ad84 .cfa: x29 32 +
STACK CFI adb0 .cfa: sp 32 +
STACK CFI adb8 .cfa: sp 0 +
STACK CFI INIT adbc 14 .cfa: sp 0 +
STACK CFI adc0 .cfa: sp 16 +
STACK CFI adc4 .cfa: x29 16 + .ra: .cfa -8 + ^ x29: .cfa -16 + ^
STACK CFI INIT add0 4 .cfa: sp 0 +
STACK CFI INIT add4 14 .cfa: sp 0 +
STACK CFI INIT ade8 84 .cfa: sp 0 +
STACK CFI adf0 .cfa: sp 32 +
STACK CFI adf8 .cfa: x29 32 + x19: .cfa -8 + ^ x20: .cfa -16 + ^ .ra: .cfa -24 + ^ x29: .cfa -32 + ^
STACK CFI ae38 .cfa: sp 32 +
STACK CFI ae40 .cfa: sp 0 +
STACK CFI ae48 .cfa: x29 32 +
STACK CFI INIT ae6c 4 .cfa: sp 0 +
STACK CFI INIT ae70 50 .cfa: sp 0 +
STACK CFI ae74 .cfa: sp 32 +
STACK CFI ae7c .cfa: x29 32 + x19: .cfa -16 + ^ .ra: .cfa -24 + ^ x29: .cfa -32 + ^
STACK CFI ae94 .cfa: sp 32 +
STACK CFI ae9c .cfa: sp 0 +
STACK CFI aea0 .cfa: x29 32 +
STACK CFI aeb4 .cfa: sp 32 +
STACK CFI aebc .cfa: sp 0 +
STACK CFI INIT aec0 64 .cfa: sp 0 +
STACK CFI aec4 .cfa: sp 32 +
STACK CFI aecc .cfa: x29 32 + x19: .cfa -16 + ^ .ra: .cfa -24 + ^ x29: .cfa -32 + ^
STACK CFI aef8 .cfa: sp 32 +
STACK CFI af00 .cfa: sp 0 +
STACK CFI af04 .cfa: x29 32 +
STACK CFI af18 .cfa: sp 32 +
STACK CFI af20 .cfa: sp 0 +
STACK CFI INIT af24 2030 .cfa: sp 0 +
STACK CFI af28 .cfa: sp 96 +
STACK CFI af3c .cfa: x29 64 + x19: .cfa -8 + ^ x20: .cfa -16 + ^ x21: .cfa -24 + ^ x22: .cfa -32 + ^ x23: .cfa -40 + ^ x24: .cfa -48 + ^ .ra: .cfa -56 + ^ x29: .cfa -64 + ^
STACK CFI cf38 .cfa: sp 96 +
STACK CFI cf4c .cfa: sp 0 +
STACK CFI cf50 .cfa: x29 64 +
STACK CFI INIT cf54 130 .cfa: sp 0 +
STACK CFI cf58 .cfa: sp 80 +
STACK CFI cf68 .cfa: x29 48 + x19: .cfa -8 + ^ x20: .cfa -16 + ^ x21: .cfa -24 + ^ x22: .cfa -32 + ^ .ra: .cfa -40 + ^ x29: .cfa -48 + ^
STACK CFI d06c .cfa: sp 80 +
STACK CFI d07c .cfa: sp 0 +
STACK CFI d080 .cfa: x29 48 +
STACK CFI INIT d084 f8 .cfa: sp 0 +
STACK CFI d088 .cfa: sp 64 +
STACK CFI d098 .cfa: x29 64 + x19: .cfa -8 + ^ x20: .cfa -16 + ^ x21: .cfa -24 + ^ x22: .cfa -32 + ^ x23: .cfa -48 + ^ .ra: .cfa -56 + ^ x29: .cfa -64 + ^
STACK CFI d0f4 .cfa: sp 64 +
STACK CFI d104 .cfa: sp 0 +
STACK CFI d108 .cfa: x29 64 +
STACK CFI d124 .cfa: sp 64 +
STACK CFI d134 .cfa: sp 0 +
STACK CFI d138 .cfa: x29 64 +
STACK CFI d168 .cfa: sp 64 +
STACK CFI d178 .cfa: sp 0 +
STACK CFI INIT d17c 3c .cfa: sp 0 +
STACK CFI d180 .cfa: sp 32 +
STACK CFI d188 .cfa: x29 32 + x19: .cfa -16 + ^ .ra: .cfa -24 + ^ x29: .cfa -32 + ^
STACK CFI d194 .cfa: sp 32 +
STACK CFI d19c .cfa: sp 0 +
STACK CFI d1a0 .cfa: x29 32 +
STACK CFI d1ac .cfa: sp 32 +
STACK CFI d1b4 .cfa: sp 0 +
STACK CFI INIT 9100 bd4 .cfa: sp 0 +
STACK CFI 9104 .cfa: sp 240 +
STACK CFI 9120 .cfa: x29 96 + x19: .cfa -8 + ^ x20: .cfa -16 + ^ x21: .cfa -24 + ^ x22: .cfa -32 + ^ x23: .cfa -40 + ^ x24: .cfa -48 + ^ x25: .cfa -56 + ^ x26: .cfa -64 + ^ x27: .cfa -72 + ^ x28: .cfa -80 + ^ .ra: .cfa -88 + ^ x29: .cfa -96 + ^
STACK CFI 94fc .cfa: sp 240 +
STACK CFI 9518 .cfa: sp 0 +
STACK CFI 951c .cfa: x29 96 +
STACK CFI 9b7c .cfa: sp 240 +
STACK CFI 9b98 .cfa: sp 0 +
STACK CFI 9b9c .cfa: x29 96 +
STACK CFI INIT 9cec 5fc .cfa: sp 0 +
STACK CFI 9cf0 .cfa: sp 224 +
STACK CFI 9d0c .cfa: x29 96 + x19: .cfa -8 + ^ x20: .cfa -16 + ^ x21: .cfa -24 + ^ x22: .cfa -32 + ^ x23: .cfa -40 + ^ x24: .cfa -48 + ^ x25: .cfa -56 + ^ x26: .cfa -64 + ^ x27: .cfa -72 + ^ x28: .cfa -80 + ^ .ra: .cfa -88 + ^ x29: .cfa -96 + ^
STACK CFI a1cc .cfa: sp 224 +
STACK CFI a1e8 .cfa: sp 0 +
STACK CFI a1ec .cfa: x29 96 +
STACK CFI INIT a338 74 .cfa: sp 0 +
STACK CFI a33c .cfa: sp 48 +
STACK CFI a348 .cfa: x29 32 + x19: .cfa -8 + ^ x20: .cfa -16 + ^ .ra: .cfa -24 + ^ x29: .cfa -32 + ^
STACK CFI a394 .cfa: sp 48 +
STACK CFI a3a0 .cfa: sp 0 +
STACK CFI a3a4 .cfa: x29 32 +
STACK CFI INIT a43c 6fc .cfa: sp 0 +
STACK CFI a440 .cfa: sp 496 +
STACK CFI a45c .cfa: x29 96 + x19: .cfa -8 + ^ x20: .cfa -16 + ^ x21: .cfa -24 + ^ x22: .cfa -32 + ^ x23: .cfa -40 + ^ x24: .cfa -48 + ^ x25: .cfa -56 + ^ x26: .cfa -64 + ^ x27: .cfa -72 + ^ x28: .cfa -80 + ^ .ra: .cfa -88 + ^ x29: .cfa -96 + ^
STACK CFI aa0c .cfa: sp 496 +
STACK CFI aa28 .cfa: sp 0 +
STACK CFI aa2c .cfa: x29 96 +
STACK CFI INIT ac24 50 .cfa: sp 0 +
STACK CFI ac28 .cfa: sp 32 +
STACK CFI ac30 .cfa: x29 32 + x19: .cfa -8 + ^ x20: .cfa -16 + ^ .ra: .cfa -24 + ^ x29: .cfa -32 + ^
