MODULE Linux arm64 5B62FA664B54C19964DA6D3530361DF50 kittenchilly.randomize_icon_on_death.android64.so
INFO CODE_ID 66FA625B544B99C164DA6D3530361DF5A93A3B9D
INFO GENERATOR mozilla/dump_syms 2.3.4
PUBLIC 4de0 0 __on_dlclose
PUBLIC 4df0 0 __emutls_unregister_key
PUBLIC 4df8 0 __on_dlclose_late
PUBLIC 4e00 0 __atexit_handler_wrapper
PUBLIC 4e14 0 atexit
PUBLIC 4e30 0 pthread_atfork
PUBLIC 4e40 0 unwind_phase2
PUBLIC 4f74 0 _Unwind_Resume
PUBLIC 4ff8 0 unwind_phase2_forced
PUBLIC m 50ec 0 __unw_init_local
PUBLIC m 5194 0 __unw_get_reg
PUBLIC 5210 0 __unw_step_stage2
PUBLIC m 5224 0 __unw_get_proc_info
PUBLIC m 5264 0 __unw_resume
PUBLIC 528c 0 libunwind::CFI_Parser<libunwind::LocalAddressSpace>::decodeFDE(libunwind::LocalAddressSpace&, unsigned long, libunwind::CFI_Parser<libunwind::LocalAddressSpace>::FDE_Info*, libunwind::CFI_Parser<libunwind::LocalAddressSpace>::CIE_Info*, bool)
PUBLIC 541c 0 libunwind::CFI_Parser<libunwind::LocalAddressSpace>::parseCIE(libunwind::LocalAddressSpace&, unsigned long, libunwind::CFI_Parser<libunwind::LocalAddressSpace>::CIE_Info*)
PUBLIC 56e4 0 libunwind::AbstractUnwindCursor::~AbstractUnwindCursor()
PUBLIC 56ec 0 libunwind::UnwindCursor<libunwind::LocalAddressSpace, libunwind::Registers_arm64>::~UnwindCursor()
PUBLIC 56f4 0 libunwind::UnwindCursor<libunwind::LocalAddressSpace, libunwind::Registers_arm64>::validReg(int)
PUBLIC 5738 0 libunwind::UnwindCursor<libunwind::LocalAddressSpace, libunwind::Registers_arm64>::getReg(int)
PUBLIC 5820 0 libunwind::UnwindCursor<libunwind::LocalAddressSpace, libunwind::Registers_arm64>::setReg(int, unsigned long)
PUBLIC 5908 0 libunwind::UnwindCursor<libunwind::LocalAddressSpace, libunwind::Registers_arm64>::validFloatReg(int)
PUBLIC 591c 0 libunwind::UnwindCursor<libunwind::LocalAddressSpace, libunwind::Registers_arm64>::getFloatReg(int)
PUBLIC 592c 0 libunwind::UnwindCursor<libunwind::LocalAddressSpace, libunwind::Registers_arm64>::setFloatReg(int, double)
PUBLIC 593c 0 libunwind::UnwindCursor<libunwind::LocalAddressSpace, libunwind::Registers_arm64>::step(bool)
PUBLIC 5a2c 0 libunwind::UnwindCursor<libunwind::LocalAddressSpace, libunwind::Registers_arm64>::getInfo(unw_proc_info_t*)
PUBLIC 5a70 0 libunwind::UnwindCursor<libunwind::LocalAddressSpace, libunwind::Registers_arm64>::jumpto()
PUBLIC 5a7c 0 libunwind::UnwindCursor<libunwind::LocalAddressSpace, libunwind::Registers_arm64>::isSignalFrame()
PUBLIC 5a88 0 libunwind::UnwindCursor<libunwind::LocalAddressSpace, libunwind::Registers_arm64>::getFunctionName(char*, unsigned long, unsigned long*)
PUBLIC 5ab4 0 libunwind::UnwindCursor<libunwind::LocalAddressSpace, libunwind::Registers_arm64>::setInfoBasedOnIPRegister(bool)
PUBLIC 5d34 0 libunwind::UnwindCursor<libunwind::LocalAddressSpace, libunwind::Registers_arm64>::getRegisterName(int)
PUBLIC 5d40 0 libunwind::UnwindCursor<libunwind::LocalAddressSpace, libunwind::Registers_arm64>::stepThroughSigReturn(libunwind::Registers_arm64&)
PUBLIC 5e60 0 libunwind::DwarfInstructions<libunwind::LocalAddressSpace, libunwind::Registers_arm64>::stepWithDwarf(libunwind::LocalAddressSpace&, unsigned long, unsigned long, libunwind::Registers_arm64&, bool&, bool)
PUBLIC 62e8 0 libunwind::CFI_Parser<libunwind::LocalAddressSpace>::parseFDEInstructions(libunwind::LocalAddressSpace&, libunwind::CFI_Parser<libunwind::LocalAddressSpace>::FDE_Info const&, libunwind::CFI_Parser<libunwind::LocalAddressSpace>::CIE_Info const&, unsigned long, int, libunwind::CFI_Parser<libunwind::LocalAddressSpace>::PrologInfo*)
PUBLIC 6f30 0 libunwind::DwarfInstructions<libunwind::LocalAddressSpace, libunwind::Registers_arm64>::getCFA(libunwind::LocalAddressSpace&, libunwind::CFI_Parser<libunwind::LocalAddressSpace>::PrologInfo const&, libunwind::Registers_arm64 const&)
PUBLIC 7064 0 libunwind::DwarfInstructions<libunwind::LocalAddressSpace, libunwind::Registers_arm64>::getSavedRegister(libunwind::LocalAddressSpace&, libunwind::Registers_arm64 const&, unsigned long, libunwind::CFI_Parser<libunwind::LocalAddressSpace>::RegisterLocation const&)
PUBLIC 7274 0 libunwind::LocalAddressSpace::getEncodedP(unsigned long&, unsigned long, unsigned char, unsigned long)
PUBLIC 7600 0 libunwind::LocalAddressSpace::getULEB128(unsigned long&, unsigned long)
PUBLIC 77c8 0 libunwind::DwarfInstructions<libunwind::LocalAddressSpace, libunwind::Registers_arm64>::evaluateExpression(unsigned long, libunwind::LocalAddressSpace&, libunwind::Registers_arm64 const&, unsigned long)
PUBLIC 8184 0 libunwind::UnwindCursor<libunwind::LocalAddressSpace, libunwind::Registers_arm64>::getInfoFromDwarfSection(unsigned long, libunwind::UnwindInfoSections const&, unsigned int)
PUBLIC 8458 0 libunwind::findUnwindSectionsByPhdr(dl_phdr_info*, unsigned long, void*)
PUBLIC 858c 0 libunwind::EHHeaderParser<libunwind::LocalAddressSpace>::decodeEHHdr(libunwind::LocalAddressSpace&, unsigned long, unsigned long, libunwind::EHHeaderParser<libunwind::LocalAddressSpace>::EHHeaderInfo&)
PUBLIC 86ac 0 libunwind::CFI_Parser<libunwind::LocalAddressSpace>::findFDE(libunwind::LocalAddressSpace&, unsigned long, unsigned long, unsigned long, unsigned long, libunwind::CFI_Parser<libunwind::LocalAddressSpace>::FDE_Info*, libunwind::CFI_Parser<libunwind::LocalAddressSpace>::CIE_Info*)
PUBLIC 8874 0 libunwind::EHHeaderParser<libunwind::LocalAddressSpace>::findFDE(libunwind::LocalAddressSpace&, unsigned long, unsigned long, unsigned int, libunwind::CFI_Parser<libunwind::LocalAddressSpace>::FDE_Info*, libunwind::CFI_Parser<libunwind::LocalAddressSpace>::CIE_Info*)
PUBLIC 89dc 0 libunwind::EHHeaderParser<libunwind::LocalAddressSpace>::getTableEntrySize(unsigned char)
PUBLIC 8ad8 0 libunwind::Registers_arm64::getRegisterName(int)
PUBLIC 8b08 0 __libunwind_Registers_arm64_jumpto
PUBLIC m 8b98 0 __unw_getcontext
PUBLIC 8c40 0 __aarch64_ldadd8_relax
PUBLIC 8c70 0 init_have_lse_atomics
PUBLIC 8d08 0 __init_cpu_features_constructor
PUBLIC 92a4 0 __init_cpu_features
PUBLIC 9330 0 __aarch64_ldadd8_acq_rel
PUBLIC 9360 0 __cxx_global_var_init
PUBLIC 9910 0 std::__ndk1::map<UnlockType, std::__ndk1::vector<int, std::__ndk1::allocator<int> >, std::__ndk1::less<UnlockType>, std::__ndk1::allocator<std::__ndk1::pair<UnlockType const, std::__ndk1::vector<int, std::__ndk1::allocator<int> > > > >::~map[abi:ne180000]()
PUBLIC 9918 0 updateFrames(PlayerObject*)
PUBLIC 9a6c 0 __cxx_global_var_init.1
PUBLIC a60c 0 geode::modifier::ModifyBase<geode::modifier::ModifyDerive<hook39<(anonymous namespace)::hook39Parent>, PlayLayer> >::~ModifyBase()
PUBLIC a624 0 __clang_call_terminate
PUBLIC a634 0 std::__ndk1::vector<int, std::__ndk1::allocator<int> >::__throw_length_error[abi:ne180000]() const
PUBLIC a648 0 std::__ndk1::__throw_length_error[abi:ne180000](char const*)
PUBLIC a698 0 std::length_error::length_error[abi:ne180000](char const*)
PUBLIC a6c8 0 std::__throw_bad_array_new_length([abi:ne180000], void)
PUBLIC a6fc 0 std::__ndk1::unique_ptr<std::__ndk1::__tree_node<std::__ndk1::__value_type<UnlockType, std::__ndk1::vector<int, std::__ndk1::allocator<int> > >, void*>, std::__ndk1::__tree_node_destructor<std::__ndk1::allocator<std::__ndk1::__tree_node<std::__ndk1::__value_type<UnlockType, std::__ndk1::vector<int, std::__ndk1::allocator<int> > >, void*> > > >::~unique_ptr[abi:ne180000]()
PUBLIC a748 0 std::__ndk1::__tree_balance_after_insert[abi:ne180000]<std::__ndk1::__tree_node_base<void*>*>(std::__ndk1::__tree_node_base<void*>*, std::__ndk1::__tree_node_base<void*>*)
PUBLIC a8f8 0 std::__ndk1::__tree<std::__ndk1::__value_type<UnlockType, std::__ndk1::vector<int, std::__ndk1::allocator<int> > >, std::__ndk1::__map_value_compare<UnlockType, std::__ndk1::__value_type<UnlockType, std::__ndk1::vector<int, std::__ndk1::allocator<int> > >, std::__ndk1::less<UnlockType>, true>, std::__ndk1::allocator<std::__ndk1::__value_type<UnlockType, std::__ndk1::vector<int, std::__ndk1::allocator<int> > > > >::destroy(std::__ndk1::__tree_node<std::__ndk1::__value_type<UnlockType, std::__ndk1::vector<int, std::__ndk1::allocator<int> > >, void*>*)
PUBLIC a940 0 geode::modifier::ModifyDerive<hook39<(anonymous namespace)::hook39Parent>, PlayLayer>::apply()
PUBLIC ad58 0 std::__ndk1::shared_ptr<geode::Hook>::~shared_ptr[abi:ne180000]()
PUBLIC ada8 0 geode::impl::ResultData<geode::Hook*, std::__ndk1::basic_string<char, std::__ndk1::char_traits<char>, std::__ndk1::allocator<char> > >::~ResultData()
PUBLIC ae1c 0 std::__ndk1::vector<std::__ndk1::basic_string<char, std::__ndk1::char_traits<char>, std::__ndk1::allocator<char> >, std::__ndk1::allocator<std::__ndk1::basic_string<char, std::__ndk1::char_traits<char>, std::__ndk1::allocator<char> > > >::~vector[abi:ne180000]()
PUBLIC ae98 0 geode::modifier::ModifyBase<geode::modifier::ModifyDerive<hook39<(anonymous namespace)::hook39Parent>, PlayLayer> >::apply()
PUBLIC ae9c 0 _ZN5geode15UnwrapExceptionC2IRPNS_4HookEQsr4implE18IsStringStreamableIT_EEENS_4impl5OkTagEOS5_
PUBLIC aff0 0 std::__ndk1::__throw_bad_variant_access[abi:ne180000]()
PUBLIC b024 0 std::__ndk1::basic_stringstream<char, std::__ndk1::char_traits<char>, std::__ndk1::allocator<char> >::basic_stringstream[abi:ne180000]()
PUBLIC m b150 0 std::__ndk1::basic_stringstream<char, std::__ndk1::char_traits<char>, std::__ndk1::allocator<char> >::~basic_stringstream()
PUBLIC b1d0 0 geode::UnwrapException::~UnwrapException()
PUBLIC b1f4 0 std::__ndk1::__put_character_sequence[abi:ne180000]<char, std::__ndk1::char_traits<char> >(std::__ndk1::basic_ostream<char, std::__ndk1::char_traits<char> >, std::__ndk1::basic_ostream const*, unsigned long)
PUBLIC b398 0 std::__ndk1::__pad_and_output[abi:ne180000]<char, std::__ndk1::char_traits<char> >(std::__ndk1::char_traits<char>, std::__ndk1::ostreambuf_iterator const*, std::__ndk1::ostreambuf_iterator const, std::__ndk1::ostreambuf_iterator const, std::__ndk1::ios_base&, std::__ndk1::ostreambuf_iterator)
PUBLIC b574 0 std::__ndk1::basic_string<char, std::__ndk1::char_traits<char>, std::__ndk1::allocator<char> >::__throw_length_error[abi:ne180000]() const
PUBLIC b588 0 std::__ndk1::basic_stringbuf<char, std::__ndk1::char_traits<char>, std::__ndk1::allocator<char> >::str[abi:ne180000]() &&
PUBLIC b700 0 std::__ndk1::basic_stringbuf<char, std::__ndk1::char_traits<char>, std::__ndk1::allocator<char> >::__init_buf_ptrs[abi:ne180000]()
PUBLIC b848 0 std::__ndk1::basic_string<char, std::__ndk1::char_traits<char>, std::__ndk1::allocator<char> >::__init_copy_ctor_external(char const*, unsigned long)
PUBLIC b8c8 0 std::__ndk1::__split_buffer<std::__ndk1::basic_string<char, std::__ndk1::char_traits<char>, std::__ndk1::allocator<char> >, std::__ndk1::allocator<std::__ndk1::basic_string<char, std::__ndk1::char_traits<char>, std::__ndk1::allocator<char> > >&>::~__split_buffer()
PUBLIC b930 0 std::__ndk1::vector<std::__ndk1::basic_string<char, std::__ndk1::char_traits<char>, std::__ndk1::allocator<char> >, std::__ndk1::allocator<std::__ndk1::basic_string<char, std::__ndk1::char_traits<char>, std::__ndk1::allocator<char> > > >::__throw_length_error[abi:ne180000]() const
PUBLIC b944 0 std::__ndk1::__variant_detail::__visitation::__base::__dispatcher<(unsigned long)0>::__dispatch[abi:ne180000]<std::__ndk1::__variant_detail::__dtor<std::__ndk1::__variant_detail::__traits<geode::Hook*, std::__ndk1::basic_string<char, std::__ndk1::char_traits<char>, std::__ndk1::allocator<char> > >, (std::__ndk1::__variant_detail::_Trait)1>::__destroy[abi:ne180000]()::{lambda(auto:1&)#1}, std::__ndk1::__variant_detail::__base<(std::__ndk1::__variant_detail::__traits<geode::Hook*, std::__ndk1::basic_string<char, std::__ndk1::char_traits<char>, std::__ndk1::allocator<char> > >)1, geode::Hook, std::__ndk1::allocator<char> >&>(std::__ndk1::__variant_detail::__dtor<std::__ndk1::__variant_detail::__traits<geode::Hook*, std::__ndk1::basic_string<char, std::__ndk1::char_traits<char>, std::__ndk1::allocator<char> > >, (std::__ndk1::__variant_detail::_Trait)1>, std::__ndk1::__variant_detail::__base<(std::__ndk1::__variant_detail::__traits<geode::Hook*, std::__ndk1::basic_string<char, std::__ndk1::char_traits<char>, std::__ndk1::allocator<char> > >)1, geode::Hook, std::__ndk1::allocator<char> >&)
PUBLIC b948 0 std::__ndk1::__variant_detail::__visitation::__base::__dispatcher<(unsigned long)1>::__dispatch[abi:ne180000]<std::__ndk1::__variant_detail::__dtor<std::__ndk1::__variant_detail::__traits<geode::Hook*, std::__ndk1::basic_string<char, std::__ndk1::char_traits<char>, std::__ndk1::allocator<char> > >, (std::__ndk1::__variant_detail::_Trait)1>::__destroy[abi:ne180000]()::{lambda(auto:1&)#1}, std::__ndk1::__variant_detail::__base<(std::__ndk1::__variant_detail::__traits<geode::Hook*, std::__ndk1::basic_string<char, std::__ndk1::char_traits<char>, std::__ndk1::allocator<char> > >)1, geode::Hook, std::__ndk1::allocator<char> >&>(std::__ndk1::__variant_detail::__dtor<std::__ndk1::__variant_detail::__traits<geode::Hook*, std::__ndk1::basic_string<char, std::__ndk1::char_traits<char>, std::__ndk1::allocator<char> > >, (std::__ndk1::__variant_detail::_Trait)1>, std::__ndk1::__variant_detail::__base<(std::__ndk1::__variant_detail::__traits<geode::Hook*, std::__ndk1::basic_string<char, std::__ndk1::char_traits<char>, std::__ndk1::allocator<char> > >)1, geode::Hook, std::__ndk1::allocator<char> >&)
PUBLIC b95c 0 std::__ndk1::__tree<std::__ndk1::__value_type<std::__ndk1::basic_string<char, std::__ndk1::char_traits<char>, std::__ndk1::allocator<char> >, std::__ndk1::shared_ptr<geode::Hook> >, std::__ndk1::__map_value_compare<std::__ndk1::basic_string<char, std::__ndk1::char_traits<char>, std::__ndk1::allocator<char> >, std::__ndk1::__value_type<std::__ndk1::basic_string<char, std::__ndk1::char_traits<char>, std::__ndk1::allocator<char> >, std::__ndk1::shared_ptr<geode::Hook> >, std::__ndk1::less<std::__ndk1::basic_string<char, std::__ndk1::char_traits<char>, std::__ndk1::allocator<char> > >, true>, std::__ndk1::allocator<std::__ndk1::__value_type<std::__ndk1::basic_string<char, std::__ndk1::char_traits<char>, std::__ndk1::allocator<char> >, std::__ndk1::shared_ptr<geode::Hook> > > >::destroy(std::__ndk1::__tree_node<std::__ndk1::__value_type<std::__ndk1::basic_string<char, std::__ndk1::char_traits<char>, std::__ndk1::allocator<char> >, std::__ndk1::shared_ptr<geode::Hook> >, void*>*)
PUBLIC b9e0 0 geode::modifier::AsStaticFunction_resetLevel<hook39<(anonymous namespace)::hook39Parent>, void (hook39<(anonymous namespace)::hook39Parent>::*)()>::Impl<void (hook39<(anonymous namespace)::hook39Parent>::*)()>::function(hook39<(anonymous namespace)::hook39Parent>*)
PUBLIC bd80 0 std::__ndk1::shared_ptr<tulip::hook::CallingConvention>::~shared_ptr[abi:ne180000]()
PUBLIC bdd0 0 tulip::hook::HandlerMetadata::~HandlerMetadata()
PUBLIC m be34 0 geodeImplicitEntry
PUBLIC be70 0 <.plt ELF section in kittenchilly.randomize_icon_on_death.android64.so>
STACK CFI INIT 4de0 10 .cfa: sp 0 +
STACK CFI INIT 4df0 8 .cfa: sp 0 +
STACK CFI INIT 4df8 8 .cfa: sp 0 +
STACK CFI INIT 4e00 14 .cfa: sp 0 +
STACK CFI INIT 4e14 1c .cfa: sp 0 +
STACK CFI INIT 4e30 10 .cfa: sp 0 +
STACK CFI INIT 4e40 134 .cfa: sp 0 +
STACK CFI INIT 4f74 84 .cfa: sp 0 +
STACK CFI INIT 4ff8 f4 .cfa: sp 0 +
STACK CFI INIT 50ec a8 .cfa: sp 0 +
STACK CFI INIT 5194 7c .cfa: sp 0 +
STACK CFI INIT 5210 14 .cfa: sp 0 +
STACK CFI INIT 5224 40 .cfa: sp 0 +
STACK CFI INIT 5264 28 .cfa: sp 0 +
STACK CFI INIT 528c 190 .cfa: sp 0 +
STACK CFI INIT 541c 2c8 .cfa: sp 0 +
STACK CFI INIT 56e4 8 .cfa: sp 0 +
STACK CFI INIT 56ec 8 .cfa: sp 0 +
STACK CFI INIT 56f4 44 .cfa: sp 0 +
STACK CFI INIT 5738 e8 .cfa: sp 0 +
STACK CFI INIT 5820 e8 .cfa: sp 0 +
STACK CFI INIT 5908 14 .cfa: sp 0 +
STACK CFI INIT 591c 10 .cfa: sp 0 +
STACK CFI INIT 592c 10 .cfa: sp 0 +
STACK CFI INIT 593c f0 .cfa: sp 0 +
STACK CFI INIT 5a2c 44 .cfa: sp 0 +
STACK CFI INIT 5a70 c .cfa: sp 0 +
STACK CFI INIT 5a7c c .cfa: sp 0 +
STACK CFI INIT 5a88 2c .cfa: sp 0 +
STACK CFI INIT 5ab4 280 .cfa: sp 0 +
STACK CFI INIT 5d34 c .cfa: sp 0 +
STACK CFI INIT 5d40 120 .cfa: sp 0 +
STACK CFI INIT 5e60 488 .cfa: sp 0 +
STACK CFI INIT 62e8 c48 .cfa: sp 0 +
STACK CFI INIT 6f30 134 .cfa: sp 0 +
STACK CFI INIT 7064 210 .cfa: sp 0 +
STACK CFI INIT 7274 38c .cfa: sp 0 +
STACK CFI INIT 7600 1c8 .cfa: sp 0 +
STACK CFI INIT 77c8 9bc .cfa: sp 0 +
STACK CFI INIT 8184 2d4 .cfa: sp 0 +
STACK CFI INIT 8458 134 .cfa: sp 0 +
STACK CFI INIT 858c 120 .cfa: sp 0 +
STACK CFI INIT 86ac 1c8 .cfa: sp 0 +
STACK CFI INIT 8874 168 .cfa: sp 0 +
STACK CFI INIT 89dc fc .cfa: sp 0 +
STACK CFI INIT 8ad8 30 .cfa: sp 0 +
STACK CFI INIT 8c40 30 .cfa: sp 0 +
STACK CFI INIT 8c70 98 .cfa: sp 0 +
STACK CFI INIT 8d08 59c .cfa: sp 0 +
STACK CFI INIT 92a4 8c .cfa: sp 0 +
STACK CFI INIT 9330 30 .cfa: sp 0 +
STACK CFI INIT 9910 8 .cfa: sp 0 +
STACK CFI INIT 9918 154 .cfa: sp 0 +
STACK CFI 991c .cfa: sp 32 +
STACK CFI 9924 .cfa: x29 32 + x19: .cfa -8 + ^ x20: .cfa -16 + ^ .ra: .cfa -24 + ^ x29: .cfa -32 + ^
STACK CFI 9a18 .cfa: sp 32 +
STACK CFI 9a20 .cfa: sp 0 +
STACK CFI 9a24 .cfa: x29 32 +
STACK CFI INIT a60c 18 .cfa: sp 0 +
STACK CFI INIT a624 10 .cfa: sp 0 +
STACK CFI a628 .cfa: sp 16 +
STACK CFI a62c .cfa: x29 16 + .ra: .cfa -8 + ^ x29: .cfa -16 + ^
STACK CFI INIT a634 14 .cfa: sp 0 +
STACK CFI a638 .cfa: sp 16 +
STACK CFI a63c .cfa: x29 16 + .ra: .cfa -8 + ^ x29: .cfa -16 + ^
STACK CFI INIT a698 30 .cfa: sp 0 +
STACK CFI a69c .cfa: sp 32 +
STACK CFI a6a4 .cfa: x29 32 + x19: .cfa -16 + ^ .ra: .cfa -24 + ^ x29: .cfa -32 + ^
STACK CFI a6bc .cfa: sp 32 +
STACK CFI a6c4 .cfa: sp 0 +
STACK CFI INIT a6c8 34 .cfa: sp 0 +
STACK CFI a6cc .cfa: sp 32 +
STACK CFI a6d4 .cfa: x29 32 + x19: .cfa -16 + ^ .ra: .cfa -24 + ^ x29: .cfa -32 + ^
STACK CFI INIT a6fc 4c .cfa: sp 0 +
STACK CFI a700 .cfa: sp 32 +
STACK CFI a708 .cfa: x29 32 + x19: .cfa -16 + ^ .ra: .cfa -24 + ^ x29: .cfa -32 + ^
STACK CFI a730 .cfa: sp 32 +
STACK CFI a738 .cfa: sp 0 +
STACK CFI a73c .cfa: sp 32 +
STACK CFI a744 .cfa: sp 0 +
STACK CFI INIT a748 1b0 .cfa: sp 0 +
STACK CFI INIT a8f8 48 .cfa: sp 0 +
STACK CFI a900 .cfa: sp 32 +
STACK CFI a908 .cfa: x29 32 + x19: .cfa -16 + ^ .ra: .cfa -24 + ^ x29: .cfa -32 + ^
STACK CFI a930 .cfa: sp 32 +
STACK CFI a938 .cfa: sp 0 +
STACK CFI INIT ad58 50 .cfa: sp 0 +
STACK CFI ad5c .cfa: sp 32 +
STACK CFI ad64 .cfa: x29 32 + x19: .cfa -16 + ^ .ra: .cfa -24 + ^ x29: .cfa -32 + ^
STACK CFI ad7c .cfa: sp 32 +
STACK CFI ad84 .cfa: sp 0 +
STACK CFI ad88 .cfa: x29 32 +
STACK CFI ad9c .cfa: sp 32 +
STACK CFI ada4 .cfa: sp 0 +
STACK CFI INIT ae1c 7c .cfa: sp 0 +
STACK CFI ae20 .cfa: sp 48 +
STACK CFI ae2c .cfa: x29 48 + x19: .cfa -8 + ^ x20: .cfa -16 + ^ x21: .cfa -32 + ^ .ra: .cfa -40 + ^ x29: .cfa -48 + ^
STACK CFI ae78 .cfa: sp 48 +
STACK CFI ae84 .cfa: sp 0 +
STACK CFI ae88 .cfa: sp 48 +
STACK CFI ae94 .cfa: sp 0 +
STACK CFI INIT ae98 4 .cfa: sp 0 +
STACK CFI INIT aff0 34 .cfa: sp 0 +
STACK CFI aff4 .cfa: sp 16 +
STACK CFI aff8 .cfa: x29 16 + .ra: .cfa -8 + ^ x29: .cfa -16 + ^
STACK CFI INIT b150 80 .cfa: sp 0 +
STACK CFI b154 .cfa: sp 48 +
STACK CFI b160 .cfa: x29 48 + x19: .cfa -8 + ^ x20: .cfa -16 + ^ x21: .cfa -32 + ^ .ra: .cfa -40 + ^ x29: .cfa -48 + ^
STACK CFI b1c0 .cfa: sp 48 +
STACK CFI b1cc .cfa: sp 0 +
STACK CFI INIT b1d0 24 .cfa: sp 0 +
STACK CFI b1d4 .cfa: sp 32 +
STACK CFI b1dc .cfa: x29 32 + x19: .cfa -16 + ^ .ra: .cfa -24 + ^ x29: .cfa -32 + ^
STACK CFI b1e8 .cfa: sp 32 +
STACK CFI b1f0 .cfa: sp 0 +
STACK CFI INIT b574 14 .cfa: sp 0 +
STACK CFI b578 .cfa: sp 16 +
STACK CFI b57c .cfa: x29 16 + .ra: .cfa -8 + ^ x29: .cfa -16 + ^
STACK CFI INIT b700 148 .cfa: sp 0 +
STACK CFI b704 .cfa: sp 48 +
STACK CFI b710 .cfa: x29 48 + x19: .cfa -8 + ^ x20: .cfa -16 + ^ x21: .cfa -32 + ^ .ra: .cfa -40 + ^ x29: .cfa -48 + ^
STACK CFI b838 .cfa: sp 48 +
STACK CFI b844 .cfa: sp 0 +
STACK CFI INIT b848 80 .cfa: sp 0 +
STACK CFI b84c .cfa: sp 48 +
STACK CFI b858 .cfa: x29 48 + x19: .cfa -8 + ^ x20: .cfa -16 + ^ x21: .cfa -24 + ^ x22: .cfa -32 + ^ .ra: .cfa -40 + ^ x29: .cfa -48 + ^
STACK CFI b870 .cfa: sp 48 +
STACK CFI b87c .cfa: sp 0 +
STACK CFI b880 .cfa: x29 48 +
STACK CFI b8b0 .cfa: sp 48 +
STACK CFI b8bc .cfa: sp 0 +
STACK CFI b8c0 .cfa: x29 48 +
STACK CFI INIT b8c8 68 .cfa: sp 0 +
STACK CFI b8cc .cfa: sp 32 +
STACK CFI b8d4 .cfa: x29 32 + x19: .cfa -8 + ^ x20: .cfa -16 + ^ .ra: .cfa -24 + ^ x29: .cfa -32 + ^
STACK CFI b8ec .cfa: sp 32 +
STACK CFI b8f4 .cfa: sp 0 +
STACK CFI b8f8 .cfa: x29 32 +
STACK CFI b924 .cfa: sp 32 +
STACK CFI b92c .cfa: sp 0 +
STACK CFI INIT b930 14 .cfa: sp 0 +
STACK CFI b934 .cfa: sp 16 +
STACK CFI b938 .cfa: x29 16 + .ra: .cfa -8 + ^ x29: .cfa -16 + ^
STACK CFI INIT b944 4 .cfa: sp 0 +
STACK CFI INIT b948 14 .cfa: sp 0 +
STACK CFI INIT b95c 84 .cfa: sp 0 +
STACK CFI b964 .cfa: sp 32 +
STACK CFI b96c .cfa: x29 32 + x19: .cfa -8 + ^ x20: .cfa -16 + ^ .ra: .cfa -24 + ^ x29: .cfa -32 + ^
STACK CFI b9ac .cfa: sp 32 +
STACK CFI b9b4 .cfa: sp 0 +
STACK CFI b9bc .cfa: x29 32 +
STACK CFI INIT bd80 50 .cfa: sp 0 +
STACK CFI bd84 .cfa: sp 32 +
STACK CFI bd8c .cfa: x29 32 + x19: .cfa -16 + ^ .ra: .cfa -24 + ^ x29: .cfa -32 + ^
STACK CFI bda4 .cfa: sp 32 +
STACK CFI bdac .cfa: sp 0 +
STACK CFI bdb0 .cfa: x29 32 +
STACK CFI bdc4 .cfa: sp 32 +
STACK CFI bdcc .cfa: sp 0 +
STACK CFI INIT bdd0 64 .cfa: sp 0 +
STACK CFI bdd4 .cfa: sp 32 +
STACK CFI bddc .cfa: x29 32 + x19: .cfa -16 + ^ .ra: .cfa -24 + ^ x29: .cfa -32 + ^
STACK CFI be08 .cfa: sp 32 +
STACK CFI be10 .cfa: sp 0 +
STACK CFI be14 .cfa: x29 32 +
STACK CFI be28 .cfa: sp 32 +
STACK CFI be30 .cfa: sp 0 +
STACK CFI INIT be34 3c .cfa: sp 0 +
STACK CFI be38 .cfa: sp 32 +
STACK CFI be40 .cfa: x29 32 + x19: .cfa -16 + ^ .ra: .cfa -24 + ^ x29: .cfa -32 + ^
STACK CFI be4c .cfa: sp 32 +
STACK CFI be54 .cfa: sp 0 +
STACK CFI be58 .cfa: x29 32 +
STACK CFI be64 .cfa: sp 32 +
STACK CFI be6c .cfa: sp 0 +
STACK CFI INIT 9360 5b0 .cfa: sp 0 +
STACK CFI 9364 .cfa: sp 96 +
STACK CFI 937c .cfa: x29 96 + x19: .cfa -8 + ^ x20: .cfa -16 + ^ x21: .cfa -24 + ^ x22: .cfa -32 + ^ x23: .cfa -40 + ^ x24: .cfa -48 + ^ x25: .cfa -56 + ^ x26: .cfa -64 + ^ x27: .cfa -72 + ^ x28: .cfa -80 + ^ .ra: .cfa -88 + ^ x29: .cfa -96 + ^
STACK CFI 9638 .cfa: sp 96 +
STACK CFI 9650 .cfa: sp 0 +
STACK CFI 9654 .cfa: x29 96 +
STACK CFI 9740 .cfa: sp 96 +
STACK CFI 9758 .cfa: sp 0 +
STACK CFI 975c .cfa: x29 96 +
STACK CFI INIT 9a6c ba0 .cfa: sp 0 +
STACK CFI 9a70 .cfa: sp 240 +
STACK CFI 9a8c .cfa: x29 96 + x19: .cfa -8 + ^ x20: .cfa -16 + ^ x21: .cfa -24 + ^ x22: .cfa -32 + ^ x23: .cfa -40 + ^ x24: .cfa -48 + ^ x25: .cfa -56 + ^ x26: .cfa -64 + ^ x27: .cfa -72 + ^ x28: .cfa -80 + ^ .ra: .cfa -88 + ^ x29: .cfa -96 + ^
STACK CFI a4b4 .cfa: sp 240 +
STACK CFI a4d0 .cfa: sp 0 +
STACK CFI a4d4 .cfa: x29 96 +
STACK CFI INIT a648 50 .cfa: sp 0 +
STACK CFI a64c .cfa: sp 32 +
STACK CFI a654 .cfa: x29 32 + x19: .cfa -8 + ^ x20: .cfa -16 + ^ .ra: .cfa -24 + ^ x29: .cfa -32 + ^
STACK CFI INIT a940 418 .cfa: sp 0 +
STACK CFI a944 .cfa: sp 224 +
STACK CFI a960 .cfa: x29 96 + x19: .cfa -8 + ^ x20: .cfa -16 + ^ x21: .cfa -24 + ^ x22: .cfa -32 + ^ x23: .cfa -40 + ^ x24: .cfa -48 + ^ x25: .cfa -56 + ^ x26: .cfa -64 + ^ x27: .cfa -80 + ^ .ra: .cfa -88 + ^ x29: .cfa -96 + ^
STACK CFI ac3c .cfa: sp 224 +
STACK CFI ac58 .cfa: sp 0 +
STACK CFI ac5c .cfa: x29 96 +
STACK CFI INIT ada8 74 .cfa: sp 0 +
STACK CFI adac .cfa: sp 48 +
STACK CFI adb8 .cfa: x29 32 + x19: .cfa -8 + ^ x20: .cfa -16 + ^ .ra: .cfa -24 + ^ x29: .cfa -32 + ^
STACK CFI ae04 .cfa: sp 48 +
STACK CFI ae10 .cfa: sp 0 +
STACK CFI ae14 .cfa: x29 32 +
STACK CFI INIT ae9c 154 .cfa: sp 0 +
STACK CFI aea0 .cfa: sp 384 +
STACK CFI aeb4 .cfa: x29 64 + x19: .cfa -8 + ^ x20: .cfa -16 + ^ x21: .cfa -24 + ^ x22: .cfa -32 + ^ x23: .cfa -40 + ^ x28: .cfa -48 + ^ .ra: .cfa -56 + ^ x29: .cfa -64 + ^
STACK CFI af98 .cfa: sp 384 +
STACK CFI afac .cfa: sp 0 +
STACK CFI afb0 .cfa: x29 64 +
STACK CFI INIT b024 12c .cfa: sp 0 +
STACK CFI b028 .cfa: sp 80 +
STACK CFI b03c .cfa: x29 80 + x19: .cfa -8 + ^ x20: .cfa -16 + ^ x21: .cfa -24 + ^ x22: .cfa -32 + ^ x23: .cfa -40 + ^ x24: .cfa -48 + ^ x25: .cfa -56 + ^ x26: .cfa -64 + ^ .ra: .cfa -72 + ^ x29: .cfa -80 + ^
STACK CFI b104 .cfa: sp 80 +
STACK CFI b118 .cfa: sp 0 +
STACK CFI b11c .cfa: x29 80 +
STACK CFI INIT b1f4 1a4 .cfa: sp 0 +
STACK CFI b1f8 .cfa: sp 112 +
STACK CFI b210 .cfa: x29 80 + x19: .cfa -8 + ^ x20: .cfa -16 + ^ x21: .cfa -24 + ^ x22: .cfa -32 + ^ x23: .cfa -40 + ^ x24: .cfa -48 + ^ x25: .cfa -56 + ^ x26: .cfa -64 + ^ .ra: .cfa -72 + ^ x29: .cfa -80 + ^
STACK CFI b300 .cfa: sp 112 +
STACK CFI b318 .cfa: sp 0 +
STACK CFI b31c .cfa: x29 80 +
STACK CFI INIT b398 1dc .cfa: sp 0 +
STACK CFI b39c .cfa: sp 128 +
STACK CFI b3b8 .cfa: x29 96 + x19: .cfa -8 + ^ x20: .cfa -16 + ^ x21: .cfa -24 + ^ x22: .cfa -32 + ^ x23: .cfa -40 + ^ x24: .cfa -48 + ^ x25: .cfa -56 + ^ x26: .cfa -64 + ^ x27: .cfa -80 + ^ .ra: .cfa -88 + ^ x29: .cfa -96 + ^
STACK CFI b524 .cfa: sp 128 +
STACK CFI b540 .cfa: sp 0 +
STACK CFI b544 .cfa: x29 96 +
STACK CFI INIT b588 178 .cfa: sp 0 +
STACK CFI b58c .cfa: sp 80 +
STACK CFI b5a0 .cfa: x29 80 + x19: .cfa -8 + ^ x20: .cfa -16 + ^ x21: .cfa -24 + ^ x22: .cfa -32 + ^ x23: .cfa -40 + ^ x24: .cfa -48 + ^ x25: .cfa -64 + ^ .ra: .cfa -72 + ^ x29: .cfa -80 + ^
STACK CFI b6cc .cfa: sp 80 +
STACK CFI b6e0 .cfa: sp 0 +
STACK CFI b6e4 .cfa: x29 80 +
STACK CFI INIT b9e0 3a0 .cfa: sp 0 +
STACK CFI b9e4 .cfa: sp 128 +
STACK CFI ba00 .cfa: x29 96 + x19: .cfa -8 + ^ x20: .cfa -16 + ^ x21: .cfa -24 + ^ x22: .cfa -32 + ^ x23: .cfa -40 + ^ x24: .cfa -48 + ^ x25: .cfa -56 + ^ x26: .cfa -64 + ^ x27: .cfa -80 + ^ .ra: .cfa -88 + ^ x29: .cfa -96 + ^
STACK CFI bd30 .cfa: sp 128 +
STACK CFI bd4c .cfa: sp 0 +
STACK CFI bd50 .cfa: x29 96 +
