MODULE Linux arm64 06E790E5494CBFEC918035BB49AFE4180 cdc.level_thumbnails.android64.so
INFO CODE_ID E590E7064C49ECBF918035BB49AFE41840A1F99C
INFO GENERATOR mozilla/dump_syms 2.3.4
PUBLIC 1bfa0 0 __on_dlclose
PUBLIC 1bfb0 0 __emutls_unregister_key
PUBLIC 1bfb8 0 __on_dlclose_late
PUBLIC 1bfc0 0 __atexit_handler_wrapper
PUBLIC 1bfd4 0 atexit
PUBLIC 1bff0 0 pthread_atfork
PUBLIC 1c000 0 __aarch64_ldadd8_relax
PUBLIC 1c030 0 init_have_lse_atomics
PUBLIC 1c0c8 0 __init_cpu_features_constructor
PUBLIC 1c664 0 __init_cpu_features
PUBLIC 1c6f0 0 __aarch64_ldadd8_acq_rel
PUBLIC 1c720 0 geode::Ref<cocos2d::CCDictionary>::~Ref()
PUBLIC 1c740 0 ImageCache::addImage(cocos2d::CCImage*, std::__ndk1::basic_string<char, std::__ndk1::char_traits<char>, std::__ndk1::allocator<char> >)
PUBLIC 1c888 0 geode::Mod::getSettingValue<long>(std::__ndk1::basic_string_view<char, std::__ndk1::char_traits<char> >) const
PUBLIC 1c9a0 0 __clang_call_terminate
PUBLIC 1c9b0 0 geode::cast::traverseTypeinfoFor(void*, geode::cast::ClassTypeinfoType const*, char const*)
PUBLIC 1cab4 0 ThumbnailPopup::onDownload(cocos2d::CCObject*)
PUBLIC 1cc4c 0 ThumbnailPopup::onOpenFolder(cocos2d::CCObject*)
PUBLIC 1ce74 0 ThumbnailPopup::openDiscordServerPopup(cocos2d::CCObject*)
PUBLIC 1d0d8 0 ThumbnailPopup::setup(int)
PUBLIC 1dffc 0 ThumbnailPopup::recenter(cocos2d::CCObject*)
PUBLIC 1e19c 0 geode::Task<geode::utils::web::WebResponse, geode::utils::web::WebProgress>::~Task()
PUBLIC 1e1ec 0 ThumbnailPopup::onDownloadFinished(cocos2d::CCSprite*)
PUBLIC 1e3e0 0 ThumbnailPopup::ThumbnailPopup()
PUBLIC 1e5a8 0 ThumbnailPopup::ccTouchBegan(cocos2d::CCTouch*, cocos2d::CCEvent*)
PUBLIC 1ed08 0 geode::Ref<cocos2d::CCTouch>::~Ref()
PUBLIC 1ed24 0 {virtual override thunk({offset(-320)}, ThumbnailPopup::ccTouchBegan(cocos2d::CCTouch*, cocos2d::CCEvent*))}
PUBLIC 1ed40 0 ThumbnailPopup::ccTouchMoved(cocos2d::CCTouch*, cocos2d::CCEvent*)
PUBLIC 1ef9c 0 {virtual override thunk({offset(-320)}, ThumbnailPopup::ccTouchMoved(cocos2d::CCTouch*, cocos2d::CCEvent*))}
PUBLIC 1efa4 0 ThumbnailPopup::ccTouchEnded(cocos2d::CCTouch*, cocos2d::CCEvent*)
PUBLIC 1f2a8 0 {virtual override thunk({offset(-320)}, ThumbnailPopup::ccTouchEnded(cocos2d::CCTouch*, cocos2d::CCEvent*))}
PUBLIC 1f2b0 0 cocos2d::CCCopying::copyWithZone(cocos2d::CCZone*)
PUBLIC 1f2b8 0 ThumbnailPopup::~ThumbnailPopup()
PUBLIC 1f43c 0 ThumbnailPopup::~ThumbnailPopup()
PUBLIC 1f460 0 geode::Popup<int>::registerWithTouchDispatcher()
PUBLIC 1f48c 0 geode::Popup<int>::keyDown(cocos2d::enumKeyCodes)
PUBLIC 1f4b4 0 cocos2d::CCLayerRGBA::setOpacityModifyRGB(bool)
PUBLIC 1f4b8 0 cocos2d::CCLayerRGBA::isOpacityModifyRGB()
PUBLIC 1f4c0 0 geode::Popup<int>::onClose(cocos2d::CCObject*)
PUBLIC 1f608 0 {virtual override thunk({offset(-320)}, ThumbnailPopup::~ThumbnailPopup())}
PUBLIC 1f610 0 {virtual override thunk({offset(-320)}, ThumbnailPopup::~ThumbnailPopup())}
PUBLIC 1f638 0 {virtual override thunk({offset(-344)}, geode::Popup<int>::keyDown(cocos2d::enumKeyCodes))}
PUBLIC 1f664 0 cocos2d::CCKeyboardDelegate::keyUp(cocos2d::enumKeyCodes)
PUBLIC 1f668 0 cocos2d::CCMouseDelegate::rightKeyDown()
PUBLIC 1f66c 0 cocos2d::CCMouseDelegate::rightKeyUp()
PUBLIC 1f670 0 cocos2d::CCMouseDelegate::scrollWheel(float, float)
PUBLIC 1f674 0 {virtual override thunk({offset(-408)}, cocos2d::CCLayerRGBA::setOpacityModifyRGB(bool))}
PUBLIC 1f678 0 {virtual override thunk({offset(-408)}, cocos2d::CCLayerRGBA::isOpacityModifyRGB())}
PUBLIC 1f680 0 __cxx_global_var_init
PUBLIC 1fb00 0 geode::modifier::ModifyBase<geode::modifier::ModifyDerive<LevelInfoLayer2, LevelInfoLayer> >::~ModifyBase()
PUBLIC 1fb1c 0 std::__ndk1::basic_string<char, std::__ndk1::char_traits<char>, std::__ndk1::allocator<char> >::__throw_length_error[abi:ne180000]() const
PUBLIC 1fb30 0 std::__ndk1::__throw_length_error[abi:ne180000](char const*)
PUBLIC 1fb80 0 std::length_error::length_error[abi:ne180000](char const*)
PUBLIC 1fbb0 0 std::__throw_bad_array_new_length([abi:ne180000], void)
PUBLIC 1fbe4 0 cocos2d::CCFloat::~CCFloat()
PUBLIC 1fc08 0 cocos2d::CCFloat::acceptVisitor(cocos2d::CCDataVisitor&)
PUBLIC 1fc20 0 cocos2d::CCObject::update(float)
PUBLIC 1fc24 0 geode::EventListener<geode::Task<geode::utils::web::WebResponse, geode::utils::web::WebProgress> >::~EventListener()
PUBLIC 1fcc0 0 std::__ndk1::unordered_set<geode::Ref<cocos2d::CCTouch>, std::__ndk1::hash<geode::Ref<cocos2d::CCTouch> >, std::__ndk1::equal_to<geode::Ref<cocos2d::CCTouch> >, std::__ndk1::allocator<geode::Ref<cocos2d::CCTouch> > >::~unordered_set[abi:ne180000]()
PUBLIC 1fd30 0 geode::Popup<int>::~Popup()
PUBLIC 1fd9c 0 geode::Popup<int>::~Popup()
PUBLIC 1fda0 0 {virtual override thunk({offset(-320)}, geode::Popup<int>::~Popup())}
PUBLIC 1fe0c 0 {virtual override thunk({offset(-320)}, geode::Popup<int>::~Popup())}
PUBLIC 1fe10 0 geode::Task<geode::utils::web::WebResponse, geode::utils::web::WebProgress>::setListener(geode::EventListenerProtocol*)
PUBLIC 2002c 0 geode::EventListener<geode::Task<geode::utils::web::WebResponse, geode::utils::web::WebProgress> >::getPool() const
PUBLIC 20030 0 geode::EventListener<geode::Task<geode::utils::web::WebResponse, geode::utils::web::WebProgress> >::handle(geode::Event*)
PUBLIC 201fc 0 geode::EventListener<geode::Task<geode::utils::web::WebResponse, geode::utils::web::WebProgress> >::~EventListener()
PUBLIC 202a0 0 geode::Task<geode::utils::web::WebResponse, geode::utils::web::WebProgress>::setListener(geode::EventListenerProtocol*)::{lambda()#1}::~{lambda()#1}()
PUBLIC 202f0 0 geode::Task<geode::utils::web::WebResponse, geode::utils::web::WebProgress>::setListener(geode::EventListenerProtocol*)::{lambda()#2}::~{lambda()#2}()
PUBLIC 20340 0 std::__ndk1::__function::__func<geode::Task<geode::utils::web::WebResponse, geode::utils::web::WebProgress>::setListener(geode::EventListenerProtocol*)::{lambda()#1}, std::__ndk1::allocator<geode::Task<geode::utils::web::WebResponse, geode::utils::web::WebProgress>::setListener(geode::EventListenerProtocol*)::{lambda()#1}>, void ()>::~__func()
PUBLIC 2039c 0 std::__ndk1::__function::__func<geode::Task<geode::utils::web::WebResponse, geode::utils::web::WebProgress>::setListener(geode::EventListenerProtocol*)::{lambda()#1}, std::__ndk1::allocator<geode::Task<geode::utils::web::WebResponse, geode::utils::web::WebProgress>::setListener(geode::EventListenerProtocol*)::{lambda()#1}>, void ()>::~__func()
PUBLIC 20408 0 std::__ndk1::__function::__func<geode::Task<geode::utils::web::WebResponse, geode::utils::web::WebProgress>::setListener(geode::EventListenerProtocol*)::{lambda()#1}, std::__ndk1::allocator<geode::Task<geode::utils::web::WebResponse, geode::utils::web::WebProgress>::setListener(geode::EventListenerProtocol*)::{lambda()#1}>, void ()>::__clone() const
PUBLIC 20460 0 std::__ndk1::__function::__func<geode::Task<geode::utils::web::WebResponse, geode::utils::web::WebProgress>::setListener(geode::EventListenerProtocol*)::{lambda()#1}, std::__ndk1::allocator<geode::Task<geode::utils::web::WebResponse, geode::utils::web::WebProgress>::setListener(geode::EventListenerProtocol*)::{lambda()#1}>, void ()>::__clone(std::__ndk1::__function::__base<void ()>*) const
PUBLIC 204ac 0 std::__ndk1::__function::__func<geode::Task<geode::utils::web::WebResponse, geode::utils::web::WebProgress>::setListener(geode::EventListenerProtocol*)::{lambda()#1}, std::__ndk1::allocator<geode::Task<geode::utils::web::WebResponse, geode::utils::web::WebProgress>::setListener(geode::EventListenerProtocol*)::{lambda()#1}>, void ()>::destroy()
PUBLIC 204fc 0 std::__ndk1::__function::__func<geode::Task<geode::utils::web::WebResponse, geode::utils::web::WebProgress>::setListener(geode::EventListenerProtocol*)::{lambda()#1}, std::__ndk1::allocator<geode::Task<geode::utils::web::WebResponse, geode::utils::web::WebProgress>::setListener(geode::EventListenerProtocol*)::{lambda()#1}>, void ()>::destroy_deallocate()
PUBLIC 2055c 0 std::__ndk1::__function::__func<geode::Task<geode::utils::web::WebResponse, geode::utils::web::WebProgress>::setListener(geode::EventListenerProtocol*)::{lambda()#1}, std::__ndk1::allocator<geode::Task<geode::utils::web::WebResponse, geode::utils::web::WebProgress>::setListener(geode::EventListenerProtocol*)::{lambda()#1}>, void ()>::operator()()
PUBLIC 20564 0 std::__ndk1::__function::__func<geode::Task<geode::utils::web::WebResponse, geode::utils::web::WebProgress>::setListener(geode::EventListenerProtocol*)::{lambda()#1}, std::__ndk1::allocator<geode::Task<geode::utils::web::WebResponse, geode::utils::web::WebProgress>::setListener(geode::EventListenerProtocol*)::{lambda()#1}>, void ()>::target(std::type_info const&) const
PUBLIC 20580 0 std::__ndk1::__function::__func<geode::Task<geode::utils::web::WebResponse, geode::utils::web::WebProgress>::setListener(geode::EventListenerProtocol*)::{lambda()#1}, std::__ndk1::allocator<geode::Task<geode::utils::web::WebResponse, geode::utils::web::WebProgress>::setListener(geode::EventListenerProtocol*)::{lambda()#1}>, void ()>::target_type() const
PUBLIC 2058c 0 geode::Task<geode::utils::web::WebResponse, geode::utils::web::WebProgress>::setListener(geode::EventListenerProtocol*)::{lambda()#1}::operator()() const
PUBLIC 2075c 0 geode::Task<geode::utils::web::WebResponse, geode::utils::web::WebProgress>::Event::~Event()
PUBLIC 207bc 0 geode::Task<geode::utils::web::WebResponse, geode::utils::web::WebProgress>::Event::~Event()
PUBLIC 2082c 0 std::__ndk1::__function::__func<geode::Task<geode::utils::web::WebResponse, geode::utils::web::WebProgress>::setListener(geode::EventListenerProtocol*)::{lambda()#2}, std::__ndk1::allocator<geode::Task<geode::utils::web::WebResponse, geode::utils::web::WebProgress>::setListener(geode::EventListenerProtocol*)::{lambda()#2}>, void ()>::~__func()
PUBLIC 20888 0 std::__ndk1::__function::__func<geode::Task<geode::utils::web::WebResponse, geode::utils::web::WebProgress>::setListener(geode::EventListenerProtocol*)::{lambda()#2}, std::__ndk1::allocator<geode::Task<geode::utils::web::WebResponse, geode::utils::web::WebProgress>::setListener(geode::EventListenerProtocol*)::{lambda()#2}>, void ()>::~__func()
PUBLIC 208f4 0 std::__ndk1::__function::__func<geode::Task<geode::utils::web::WebResponse, geode::utils::web::WebProgress>::setListener(geode::EventListenerProtocol*)::{lambda()#2}, std::__ndk1::allocator<geode::Task<geode::utils::web::WebResponse, geode::utils::web::WebProgress>::setListener(geode::EventListenerProtocol*)::{lambda()#2}>, void ()>::__clone() const
PUBLIC 2094c 0 std::__ndk1::__function::__func<geode::Task<geode::utils::web::WebResponse, geode::utils::web::WebProgress>::setListener(geode::EventListenerProtocol*)::{lambda()#2}, std::__ndk1::allocator<geode::Task<geode::utils::web::WebResponse, geode::utils::web::WebProgress>::setListener(geode::EventListenerProtocol*)::{lambda()#2}>, void ()>::__clone(std::__ndk1::__function::__base<void ()>*) const
PUBLIC 20998 0 std::__ndk1::__function::__func<geode::Task<geode::utils::web::WebResponse, geode::utils::web::WebProgress>::setListener(geode::EventListenerProtocol*)::{lambda()#2}, std::__ndk1::allocator<geode::Task<geode::utils::web::WebResponse, geode::utils::web::WebProgress>::setListener(geode::EventListenerProtocol*)::{lambda()#2}>, void ()>::destroy()
PUBLIC 209e8 0 std::__ndk1::__function::__func<geode::Task<geode::utils::web::WebResponse, geode::utils::web::WebProgress>::setListener(geode::EventListenerProtocol*)::{lambda()#2}, std::__ndk1::allocator<geode::Task<geode::utils::web::WebResponse, geode::utils::web::WebProgress>::setListener(geode::EventListenerProtocol*)::{lambda()#2}>, void ()>::destroy_deallocate()
PUBLIC 20a48 0 std::__ndk1::__function::__func<geode::Task<geode::utils::web::WebResponse, geode::utils::web::WebProgress>::setListener(geode::EventListenerProtocol*)::{lambda()#2}, std::__ndk1::allocator<geode::Task<geode::utils::web::WebResponse, geode::utils::web::WebProgress>::setListener(geode::EventListenerProtocol*)::{lambda()#2}>, void ()>::operator()()
PUBLIC 20a50 0 std::__ndk1::__function::__func<geode::Task<geode::utils::web::WebResponse, geode::utils::web::WebProgress>::setListener(geode::EventListenerProtocol*)::{lambda()#2}, std::__ndk1::allocator<geode::Task<geode::utils::web::WebResponse, geode::utils::web::WebProgress>::setListener(geode::EventListenerProtocol*)::{lambda()#2}>, void ()>::target(std::type_info const&) const
PUBLIC 20a6c 0 std::__ndk1::__function::__func<geode::Task<geode::utils::web::WebResponse, geode::utils::web::WebProgress>::setListener(geode::EventListenerProtocol*)::{lambda()#2}, std::__ndk1::allocator<geode::Task<geode::utils::web::WebResponse, geode::utils::web::WebProgress>::setListener(geode::EventListenerProtocol*)::{lambda()#2}>, void ()>::target_type() const
PUBLIC 20a78 0 geode::Task<geode::utils::web::WebResponse, geode::utils::web::WebProgress>::setListener(geode::EventListenerProtocol*)::{lambda()#2}::operator()() const
PUBLIC 20c3c 0 std::__ndk1::__throw_bad_function_call[abi:ne180000]()
PUBLIC 20c70 0 std::__ndk1::bad_function_call::~bad_function_call()
PUBLIC 20c94 0 std::__ndk1::__function::__func<ThumbnailPopup::openDiscordServerPopup(cocos2d::CCObject*)::$_0, std::__ndk1::allocator<ThumbnailPopup::openDiscordServerPopup(cocos2d::CCObject*)::$_0>, void (FLAlertLayer*, bool)>::~__func()
PUBLIC 20c98 0 std::__ndk1::__function::__func<ThumbnailPopup::openDiscordServerPopup(cocos2d::CCObject*)::$_0, std::__ndk1::allocator<ThumbnailPopup::openDiscordServerPopup(cocos2d::CCObject*)::$_0>, void (FLAlertLayer*, bool)>::__clone() const
PUBLIC 20ccc 0 std::__ndk1::__function::__func<ThumbnailPopup::openDiscordServerPopup(cocos2d::CCObject*)::$_0, std::__ndk1::allocator<ThumbnailPopup::openDiscordServerPopup(cocos2d::CCObject*)::$_0>, void (FLAlertLayer*, bool)>::__clone(std::__ndk1::__function::__base<void (FLAlertLayer*, bool)>*) const
PUBLIC 20ce0 0 std::__ndk1::__function::__func<ThumbnailPopup::openDiscordServerPopup(cocos2d::CCObject*)::$_0, std::__ndk1::allocator<ThumbnailPopup::openDiscordServerPopup(cocos2d::CCObject*)::$_0>, void (FLAlertLayer*, bool)>::destroy()
PUBLIC 20ce4 0 std::__ndk1::__function::__func<ThumbnailPopup::openDiscordServerPopup(cocos2d::CCObject*)::$_0, std::__ndk1::allocator<ThumbnailPopup::openDiscordServerPopup(cocos2d::CCObject*)::$_0>, void (FLAlertLayer*, bool)>::destroy_deallocate()
PUBLIC 20ce8 0 std::__ndk1::__function::__func<ThumbnailPopup::openDiscordServerPopup(cocos2d::CCObject*)::$_0, std::__ndk1::allocator<ThumbnailPopup::openDiscordServerPopup(cocos2d::CCObject*)::$_0>, void (FLAlertLayer*, bool)>::operator()(FLAlertLayer*&&, bool&&)
PUBLIC 20d18 0 std::__ndk1::__function::__func<ThumbnailPopup::openDiscordServerPopup(cocos2d::CCObject*)::$_0, std::__ndk1::allocator<ThumbnailPopup::openDiscordServerPopup(cocos2d::CCObject*)::$_0>, void (FLAlertLayer*, bool)>::target(std::type_info const&) const
PUBLIC 20d34 0 std::__ndk1::__function::__func<ThumbnailPopup::openDiscordServerPopup(cocos2d::CCObject*)::$_0, std::__ndk1::allocator<ThumbnailPopup::openDiscordServerPopup(cocos2d::CCObject*)::$_0>, void (FLAlertLayer*, bool)>::target_type() const
PUBLIC 20d40 0 std::__ndk1::__function::__base<void (FLAlertLayer*, bool)>::~__base()
PUBLIC 20d44 0 std::__ndk1::__function::__func<ThumbnailPopup::openDiscordServerPopup(cocos2d::CCObject*)::$_1, std::__ndk1::allocator<ThumbnailPopup::openDiscordServerPopup(cocos2d::CCObject*)::$_1>, void (FLAlertLayer*, bool)>::~__func()
PUBLIC 20d48 0 std::__ndk1::__function::__func<ThumbnailPopup::openDiscordServerPopup(cocos2d::CCObject*)::$_1, std::__ndk1::allocator<ThumbnailPopup::openDiscordServerPopup(cocos2d::CCObject*)::$_1>, void (FLAlertLayer*, bool)>::__clone() const
PUBLIC 20d7c 0 std::__ndk1::__function::__func<ThumbnailPopup::openDiscordServerPopup(cocos2d::CCObject*)::$_1, std::__ndk1::allocator<ThumbnailPopup::openDiscordServerPopup(cocos2d::CCObject*)::$_1>, void (FLAlertLayer*, bool)>::__clone(std::__ndk1::__function::__base<void (FLAlertLayer*, bool)>*) const
PUBLIC 20d90 0 std::__ndk1::__function::__func<ThumbnailPopup::openDiscordServerPopup(cocos2d::CCObject*)::$_1, std::__ndk1::allocator<ThumbnailPopup::openDiscordServerPopup(cocos2d::CCObject*)::$_1>, void (FLAlertLayer*, bool)>::destroy()
PUBLIC 20d94 0 std::__ndk1::__function::__func<ThumbnailPopup::openDiscordServerPopup(cocos2d::CCObject*)::$_1, std::__ndk1::allocator<ThumbnailPopup::openDiscordServerPopup(cocos2d::CCObject*)::$_1>, void (FLAlertLayer*, bool)>::destroy_deallocate()
PUBLIC 20d98 0 std::__ndk1::__function::__func<ThumbnailPopup::openDiscordServerPopup(cocos2d::CCObject*)::$_1, std::__ndk1::allocator<ThumbnailPopup::openDiscordServerPopup(cocos2d::CCObject*)::$_1>, void (FLAlertLayer*, bool)>::operator()(FLAlertLayer*&&, bool&&)
PUBLIC 20dc8 0 std::__ndk1::__function::__func<ThumbnailPopup::openDiscordServerPopup(cocos2d::CCObject*)::$_1, std::__ndk1::allocator<ThumbnailPopup::openDiscordServerPopup(cocos2d::CCObject*)::$_1>, void (FLAlertLayer*, bool)>::target(std::type_info const&) const
PUBLIC 20de4 0 std::__ndk1::__function::__func<ThumbnailPopup::openDiscordServerPopup(cocos2d::CCObject*)::$_1, std::__ndk1::allocator<ThumbnailPopup::openDiscordServerPopup(cocos2d::CCObject*)::$_1>, void (FLAlertLayer*, bool)>::target_type() const
PUBLIC 20df0 0 std::__ndk1::__function::__value_func<void (geode::Task<geode::utils::web::WebResponse, geode::utils::web::WebProgress>::Event*)>::swap[abi:ne180000](std::__ndk1::__function::__value_func<void (geode::Task<geode::utils::web::WebResponse, geode::utils::web::WebProgress>::Event*)>&)
PUBLIC 20f88 0 std::__ndk1::__function::__base<void (geode::Task<geode::utils::web::WebResponse, geode::utils::web::WebProgress>::Event*)>::~__base()
PUBLIC 20f8c 0 std::__ndk1::__function::__func<ThumbnailPopup::setup(int)::$_0, std::__ndk1::allocator<ThumbnailPopup::setup(int)::$_0>, void (geode::Task<geode::utils::web::WebResponse, geode::utils::web::WebProgress>::Event*)>::~__func()
PUBLIC 20f90 0 std::__ndk1::__function::__func<ThumbnailPopup::setup(int)::$_0, std::__ndk1::allocator<ThumbnailPopup::setup(int)::$_0>, void (geode::Task<geode::utils::web::WebResponse, geode::utils::web::WebProgress>::Event*)>::__clone() const
PUBLIC 20fc4 0 std::__ndk1::__function::__func<ThumbnailPopup::setup(int)::$_0, std::__ndk1::allocator<ThumbnailPopup::setup(int)::$_0>, void (geode::Task<geode::utils::web::WebResponse, geode::utils::web::WebProgress>::Event*)>::__clone(std::__ndk1::__function::__base<void (geode::Task<geode::utils::web::WebResponse, geode::utils::web::WebProgress>::Event*)>*) const
PUBLIC 20fd8 0 std::__ndk1::__function::__func<ThumbnailPopup::setup(int)::$_0, std::__ndk1::allocator<ThumbnailPopup::setup(int)::$_0>, void (geode::Task<geode::utils::web::WebResponse, geode::utils::web::WebProgress>::Event*)>::destroy()
PUBLIC 20fdc 0 std::__ndk1::__function::__func<ThumbnailPopup::setup(int)::$_0, std::__ndk1::allocator<ThumbnailPopup::setup(int)::$_0>, void (geode::Task<geode::utils::web::WebResponse, geode::utils::web::WebProgress>::Event*)>::destroy_deallocate()
PUBLIC 20fe0 0 std::__ndk1::__function::__func<ThumbnailPopup::setup(int)::$_0, std::__ndk1::allocator<ThumbnailPopup::setup(int)::$_0>, void (geode::Task<geode::utils::web::WebResponse, geode::utils::web::WebProgress>::Event*)>::operator()(geode::Task<geode::utils::web::WebResponse, geode::utils::web::WebProgress>::Event*&&)
PUBLIC 21370 0 std::__ndk1::__function::__func<ThumbnailPopup::setup(int)::$_0, std::__ndk1::allocator<ThumbnailPopup::setup(int)::$_0>, void (geode::Task<geode::utils::web::WebResponse, geode::utils::web::WebProgress>::Event*)>::target(std::type_info const&) const
PUBLIC 2138c 0 std::__ndk1::__function::__func<ThumbnailPopup::setup(int)::$_0, std::__ndk1::allocator<ThumbnailPopup::setup(int)::$_0>, void (geode::Task<geode::utils::web::WebResponse, geode::utils::web::WebProgress>::Event*)>::target_type() const
PUBLIC 21398 0 std::__ndk1::__throw_bad_variant_access[abi:ne180000]()
PUBLIC 213cc 0 std::__ndk1::vector<unsigned char, std::__ndk1::allocator<unsigned char> >::__throw_length_error[abi:ne180000]() const
PUBLIC 213e0 0 std::__ndk1::__thread_proxy[abi:ne180000]<std::__ndk1::tuple<std::__ndk1::unique_ptr<std::__ndk1::__thread_struct, std::__ndk1::default_delete<std::__ndk1::unique_ptr> >, ThumbnailPopup::setup(int)::$_0::operator()(geode::Task<$_0::utils::web::WebResponse, $_0::utils::WebProgress>::Event*) const::{lambda()#1}> >(std::__ndk1::tuple<std::__ndk1::unique_ptr<std::__ndk1::__thread_struct, std::__ndk1::default_delete<std::__ndk1::unique_ptr> >, ThumbnailPopup::setup(int)::$_0::operator()(geode::Task<$_0::utils::web::WebResponse, $_0::utils::WebProgress>::Event*) const::{lambda()#1}>)
PUBLIC 21590 0 std::__ndk1::unique_ptr<std::__ndk1::tuple<std::__ndk1::unique_ptr<std::__ndk1::__thread_struct, std::__ndk1::default_delete<std::__ndk1::__thread_struct> >, ThumbnailPopup::setup(int)::$_0::operator()(geode::Task<geode::utils::web::WebResponse, geode::utils::web::WebProgress>::Event*) const::{lambda()#1}>, std::__ndk1::default_delete<std::__ndk1::tuple<std::__ndk1::unique_ptr<std::__ndk1::__thread_struct, std::__ndk1::default_delete<std::__ndk1::__thread_struct> >, ThumbnailPopup::setup(int)::$_0::operator()(geode::Task<geode::utils::web::WebResponse, geode::utils::web::WebProgress>::Event*) const::{lambda()#1}> > >::~unique_ptr[abi:ne180000]()
PUBLIC 215f0 0 std::__ndk1::unique_ptr<std::__ndk1::__thread_struct, std::__ndk1::default_delete<std::__ndk1::__thread_struct> >::~unique_ptr[abi:ne180000]()
PUBLIC 2162c 0 std::__ndk1::__function::__base<void ()>::~__base()
PUBLIC 21630 0 std::__ndk1::__function::__func<ThumbnailPopup::setup(int)::$_0::operator()(geode::Task<geode::utils::web::WebResponse, geode::utils::web::WebProgress>::Event*) const::{lambda()#1}::operator()() const::{lambda()#1}, std::__ndk1::allocator<ThumbnailPopup::setup(int)::$_0::operator()(geode::Task<geode::utils::web::WebResponse, geode::utils::web::WebProgress>::Event*) const::{lambda()#1}::operator()() const::{lambda()#1}>, void ()>::~__func()
PUBLIC 21634 0 std::__ndk1::__function::__func<ThumbnailPopup::setup(int)::$_0::operator()(geode::Task<geode::utils::web::WebResponse, geode::utils::web::WebProgress>::Event*) const::{lambda()#1}::operator()() const::{lambda()#1}, std::__ndk1::allocator<ThumbnailPopup::setup(int)::$_0::operator()(geode::Task<geode::utils::web::WebResponse, geode::utils::web::WebProgress>::Event*) const::{lambda()#1}::operator()() const::{lambda()#1}>, void ()>::__clone() const
PUBLIC 21668 0 std::__ndk1::__function::__func<ThumbnailPopup::setup(int)::$_0::operator()(geode::Task<geode::utils::web::WebResponse, geode::utils::web::WebProgress>::Event*) const::{lambda()#1}::operator()() const::{lambda()#1}, std::__ndk1::allocator<ThumbnailPopup::setup(int)::$_0::operator()(geode::Task<geode::utils::web::WebResponse, geode::utils::web::WebProgress>::Event*) const::{lambda()#1}::operator()() const::{lambda()#1}>, void ()>::__clone(std::__ndk1::__function::__base<void ()>*) const
PUBLIC 2167c 0 std::__ndk1::__function::__func<ThumbnailPopup::setup(int)::$_0::operator()(geode::Task<geode::utils::web::WebResponse, geode::utils::web::WebProgress>::Event*) const::{lambda()#1}::operator()() const::{lambda()#1}, std::__ndk1::allocator<ThumbnailPopup::setup(int)::$_0::operator()(geode::Task<geode::utils::web::WebResponse, geode::utils::web::WebProgress>::Event*) const::{lambda()#1}::operator()() const::{lambda()#1}>, void ()>::destroy()
PUBLIC 21680 0 std::__ndk1::__function::__func<ThumbnailPopup::setup(int)::$_0::operator()(geode::Task<geode::utils::web::WebResponse, geode::utils::web::WebProgress>::Event*) const::{lambda()#1}::operator()() const::{lambda()#1}, std::__ndk1::allocator<ThumbnailPopup::setup(int)::$_0::operator()(geode::Task<geode::utils::web::WebResponse, geode::utils::web::WebProgress>::Event*) const::{lambda()#1}::operator()() const::{lambda()#1}>, void ()>::destroy_deallocate()
PUBLIC 21684 0 std::__ndk1::__function::__func<ThumbnailPopup::setup(int)::$_0::operator()(geode::Task<geode::utils::web::WebResponse, geode::utils::web::WebProgress>::Event*) const::{lambda()#1}::operator()() const::{lambda()#1}, std::__ndk1::allocator<ThumbnailPopup::setup(int)::$_0::operator()(geode::Task<geode::utils::web::WebResponse, geode::utils::web::WebProgress>::Event*) const::{lambda()#1}::operator()() const::{lambda()#1}>, void ()>::operator()()
PUBLIC 2189c 0 std::__ndk1::__function::__func<ThumbnailPopup::setup(int)::$_0::operator()(geode::Task<geode::utils::web::WebResponse, geode::utils::web::WebProgress>::Event*) const::{lambda()#1}::operator()() const::{lambda()#1}, std::__ndk1::allocator<ThumbnailPopup::setup(int)::$_0::operator()(geode::Task<geode::utils::web::WebResponse, geode::utils::web::WebProgress>::Event*) const::{lambda()#1}::operator()() const::{lambda()#1}>, void ()>::target(std::type_info const&) const
PUBLIC 218b8 0 std::__ndk1::__function::__func<ThumbnailPopup::setup(int)::$_0::operator()(geode::Task<geode::utils::web::WebResponse, geode::utils::web::WebProgress>::Event*) const::{lambda()#1}::operator()() const::{lambda()#1}, std::__ndk1::allocator<ThumbnailPopup::setup(int)::$_0::operator()(geode::Task<geode::utils::web::WebResponse, geode::utils::web::WebProgress>::Event*) const::{lambda()#1}::operator()() const::{lambda()#1}>, void ()>::target_type() const
PUBLIC 218c4 0 fmt::v11::detail::value<fmt::v11::context>::format_custom_arg<std::__ndk1::__fs::filesystem::path, fmt::v11::formatter<std::__ndk1::__fs::filesystem::path, char, void> >(void*, fmt::v11::basic_format_parse_context<char>&, fmt::v11::context&)
PUBLIC 219ec 0 fmt::v11::formatter<std::__ndk1::__fs::filesystem::path, char, void>::format<fmt::v11::context>(std::__ndk1::__fs::filesystem::path const&, fmt::v11::context&) const
PUBLIC 21cac 0 fmt::v11::detail::parse_align<char>(char const*, char const*, fmt::v11::format_specs&)
PUBLIC 21e84 0 fmt::v11::detail::parse_dynamic_spec<char>(char const*, char const*, int&, fmt::v11::detail::arg_ref<char>&, fmt::v11::basic_format_parse_context<char>&)
PUBLIC 22028 0 fmt::v11::detail::do_parse_arg_id<char, fmt::v11::detail::dynamic_spec_id_handler<char>&>(char const*, char const*, fmt::v11::detail::dynamic_spec_id_handler<char>&)
PUBLIC 221bc 0 fmt::v11::detail::handle_dynamic_spec<fmt::v11::detail::width_checker, fmt::v11::context>(int&, fmt::v11::detail::arg_ref<fmt::v11::context::char_type>, fmt::v11::context&)
PUBLIC 222d0 0 fmt::v11::detail::write<char, fmt::v11::basic_appender<char> >(fmt::v11::basic_appender<char>, fmt::v11::basic_string_view<char>, fmt::v11::format_specs const&)
PUBLIC 2254c 0 std::__ndk1::basic_string<char, std::__ndk1::char_traits<char>, std::__ndk1::allocator<char> >::__init_copy_ctor_external(char const*, unsigned long)
PUBLIC 225cc 0 fmt::v11::detail::get_dynamic_spec<fmt::v11::detail::width_checker, fmt::v11::basic_format_arg<fmt::v11::context> >(fmt::v11::basic_format_arg<fmt::v11::context>)
PUBLIC 22660 0 fmt::v11::basic_format_args<fmt::v11::context>::get<char>(fmt::v11::basic_string_view<char>) const
PUBLIC 227b8 0 fmt::v11::detail::write_escaped_string<char, fmt::v11::detail::counting_iterator>(fmt::v11::detail::counting_iterator, fmt::v11::basic_string_view<char>)
PUBLIC 22cd8 0 fmt::v11::detail::write_padded<char, (fmt::v11::align::type)1, fmt::v11::basic_appender<char>, fmt::v11::detail::write<char, fmt::v11::basic_appender<char> >(fmt::v11::basic_appender<char>, fmt::v11::basic_string_view<char>, fmt::v11::format_specs const&)::{lambda(fmt::v11::basic_appender<char>)#1}>(fmt::v11::basic_appender<char>, fmt::v11::format_specs const&, unsigned long, unsigned long, fmt::v11::detail::write<char, fmt::v11::basic_appender<char> >(fmt::v11::basic_appender<char>, fmt::v11::basic_string_view<char>, fmt::v11::format_specs const&)::{lambda(fmt::v11::basic_appender<char>&&)#1})
PUBLIC 22ee4 0 fmt::v11::detail::for_each_codepoint<fmt::v11::detail::code_point_index(fmt::v11::basic_string_view<char>, unsigned long)::{lambda(unsigned int, fmt::v11::basic_string_view<char>)#1}>(fmt::v11::basic_string_view<char>, fmt::v11::detail::code_point_index(fmt::v11::basic_string_view<char>, unsigned long)::{lambda(unsigned int, fmt::v11::basic_string_view<char>)#1})
PUBLIC 2330c 0 fmt::v11::detail::write_escaped_cp<fmt::v11::detail::counting_iterator, char>(fmt::v11::detail::counting_iterator, fmt::v11::detail::find_escape_result<char> const&)
PUBLIC 234a0 0 fmt::v11::detail::for_each_codepoint<fmt::v11::detail::compute_width(fmt::v11::basic_string_view<char>)::count_code_points>(fmt::v11::basic_string_view<char>, fmt::v11::detail::compute_width(fmt::v11::basic_string_view<char>)::count_code_points)::{lambda(char const*, char const*)#1}::operator()(char const*, char const*) const
PUBLIC 23658 0 fmt::v11::detail::fill<char, fmt::v11::basic_appender<char> >(fmt::v11::basic_appender<char>, unsigned long, fmt::v11::detail::fill_t const&)
PUBLIC 23828 0 fmt::v11::detail::write_escaped_string<char, fmt::v11::basic_appender<char> >(fmt::v11::basic_appender<char>, fmt::v11::basic_string_view<char>)
PUBLIC 23ea4 0 fmt::v11::detail::write_escaped_cp<fmt::v11::basic_appender<char>, char>(fmt::v11::basic_appender<char>, fmt::v11::detail::find_escape_result<char> const&)
PUBLIC 24088 0 fmt::v11::detail::write_codepoint<(unsigned long)2, char, fmt::v11::basic_appender<char> >(fmt::v11::basic_appender<char>, char, unsigned int)
PUBLIC 24200 0 fmt::v11::detail::write_codepoint<(unsigned long)4, char, fmt::v11::basic_appender<char> >(fmt::v11::basic_appender<char>, char, unsigned int)
PUBLIC 24378 0 fmt::v11::detail::write_codepoint<(unsigned long)8, char, fmt::v11::basic_appender<char> >(fmt::v11::basic_appender<char>, char, unsigned int)
PUBLIC 244f0 0 fmt::v11::basic_memory_buffer<char, (unsigned long)500, std::__ndk1::allocator<char> >::grow(fmt::v11::detail::buffer<char>&, unsigned long)
PUBLIC 24568 0 fmt::v11::detail::write_escaped_string<char, std::__ndk1::back_insert_iterator<fmt::v11::basic_memory_buffer<char, (unsigned long)500, std::__ndk1::allocator<char> > > >(std::__ndk1::back_insert_iterator<fmt::v11::basic_memory_buffer<char, (unsigned long)500, std::__ndk1::allocator<char> > >, fmt::v11::basic_string_view<char>)
PUBLIC 24be4 0 fmt::v11::detail::write_escaped_cp<std::__ndk1::back_insert_iterator<fmt::v11::basic_memory_buffer<char, (unsigned long)500, std::__ndk1::allocator<char> > >, char>(std::__ndk1::back_insert_iterator<fmt::v11::basic_memory_buffer<char, (unsigned long)500, std::__ndk1::allocator<char> > >, fmt::v11::detail::find_escape_result<char> const&)
PUBLIC 24dc8 0 fmt::v11::detail::write_codepoint<(unsigned long)2, char, std::__ndk1::back_insert_iterator<fmt::v11::basic_memory_buffer<char, (unsigned long)500, std::__ndk1::allocator<char> > > >(std::__ndk1::back_insert_iterator<fmt::v11::basic_memory_buffer<char, (unsigned long)500, std::__ndk1::allocator<char> > >, char, unsigned int)
PUBLIC 24f40 0 fmt::v11::detail::write_codepoint<(unsigned long)4, char, std::__ndk1::back_insert_iterator<fmt::v11::basic_memory_buffer<char, (unsigned long)500, std::__ndk1::allocator<char> > > >(std::__ndk1::back_insert_iterator<fmt::v11::basic_memory_buffer<char, (unsigned long)500, std::__ndk1::allocator<char> > >, char, unsigned int)
PUBLIC 250b8 0 fmt::v11::detail::write_codepoint<(unsigned long)8, char, std::__ndk1::back_insert_iterator<fmt::v11::basic_memory_buffer<char, (unsigned long)500, std::__ndk1::allocator<char> > > >(std::__ndk1::back_insert_iterator<fmt::v11::basic_memory_buffer<char, (unsigned long)500, std::__ndk1::allocator<char> > >, char, unsigned int)
PUBLIC 25230 0 geode::Popup<int>::initBase(float, float, int, char const*, cocos2d::CCRect, bool)
PUBLIC 25544 0 std::__ndk1::unique_ptr<std::__ndk1::__hash_node<geode::Ref<cocos2d::CCTouch>, void*>, std::__ndk1::__hash_node_destructor<std::__ndk1::allocator<std::__ndk1::__hash_node<geode::Ref<cocos2d::CCTouch>, void*> > > >::~unique_ptr[abi:ne180000]()
PUBLIC 25590 0 geode::modifier::ModifyDerive<LevelInfoLayer2, LevelInfoLayer>::apply()
PUBLIC 25940 0 std::__ndk1::shared_ptr<geode::Hook>::~shared_ptr[abi:ne180000]()
PUBLIC 25990 0 geode::impl::ResultData<geode::Hook*, std::__ndk1::basic_string<char, std::__ndk1::char_traits<char>, std::__ndk1::allocator<char> > >::~ResultData()
PUBLIC 25a04 0 std::__ndk1::vector<std::__ndk1::basic_string<char, std::__ndk1::char_traits<char>, std::__ndk1::allocator<char> >, std::__ndk1::allocator<std::__ndk1::basic_string<char, std::__ndk1::char_traits<char>, std::__ndk1::allocator<char> > > >::~vector[abi:ne180000]()
PUBLIC 25a80 0 geode::modifier::ModifyBase<geode::modifier::ModifyDerive<LevelInfoLayer2, LevelInfoLayer> >::apply()
PUBLIC 25a84 0 _ZN5geode15UnwrapExceptionC2IRPNS_4HookEQsr4implE18IsStringStreamableIT_EEENS_4impl5OkTagEOS5_
PUBLIC 25bd8 0 std::__ndk1::basic_stringstream<char, std::__ndk1::char_traits<char>, std::__ndk1::allocator<char> >::basic_stringstream[abi:ne180000]()
PUBLIC m 25d04 0 std::__ndk1::basic_stringstream<char, std::__ndk1::char_traits<char>, std::__ndk1::allocator<char> >::~basic_stringstream()
PUBLIC 25d84 0 geode::UnwrapException::~UnwrapException()
PUBLIC 25da8 0 std::__ndk1::__put_character_sequence[abi:ne180000]<char, std::__ndk1::char_traits<char> >(std::__ndk1::basic_ostream<char, std::__ndk1::char_traits<char> >, std::__ndk1::basic_ostream const*, unsigned long)
PUBLIC 25f4c 0 std::__ndk1::__pad_and_output[abi:ne180000]<char, std::__ndk1::char_traits<char> >(std::__ndk1::char_traits<char>, std::__ndk1::ostreambuf_iterator const*, std::__ndk1::ostreambuf_iterator const, std::__ndk1::ostreambuf_iterator const, std::__ndk1::ios_base&, std::__ndk1::ostreambuf_iterator)
PUBLIC 26128 0 std::__ndk1::basic_stringbuf<char, std::__ndk1::char_traits<char>, std::__ndk1::allocator<char> >::str[abi:ne180000]() &&
PUBLIC 262a0 0 std::__ndk1::basic_stringbuf<char, std::__ndk1::char_traits<char>, std::__ndk1::allocator<char> >::__init_buf_ptrs[abi:ne180000]()
PUBLIC 263e8 0 std::__ndk1::vector<std::__ndk1::basic_string<char, std::__ndk1::char_traits<char>, std::__ndk1::allocator<char> >, std::__ndk1::allocator<std::__ndk1::basic_string<char, std::__ndk1::char_traits<char>, std::__ndk1::allocator<char> > > >::__push_back_slow_path<std::__ndk1::basic_string<char, std::__ndk1::char_traits<char>, std::__ndk1::allocator<char> > const&>(std::__ndk1::basic_string<char, std::__ndk1::char_traits<char>, std::__ndk1::allocator<char> > const&)
PUBLIC 26610 0 std::__ndk1::__split_buffer<std::__ndk1::basic_string<char, std::__ndk1::char_traits<char>, std::__ndk1::allocator<char> >, std::__ndk1::allocator<std::__ndk1::basic_string<char, std::__ndk1::char_traits<char>, std::__ndk1::allocator<char> > >&>::~__split_buffer()
PUBLIC 26678 0 std::__ndk1::vector<std::__ndk1::basic_string<char, std::__ndk1::char_traits<char>, std::__ndk1::allocator<char> >, std::__ndk1::allocator<std::__ndk1::basic_string<char, std::__ndk1::char_traits<char>, std::__ndk1::allocator<char> > > >::__throw_length_error[abi:ne180000]() const
PUBLIC 2668c 0 std::__ndk1::__variant_detail::__visitation::__base::__dispatcher<(unsigned long)0>::__dispatch[abi:ne180000]<std::__ndk1::__variant_detail::__dtor<std::__ndk1::__variant_detail::__traits<geode::Hook*, std::__ndk1::basic_string<char, std::__ndk1::char_traits<char>, std::__ndk1::allocator<char> > >, (std::__ndk1::__variant_detail::_Trait)1>::__destroy[abi:ne180000]()::{lambda(auto:1&)#1}, std::__ndk1::__variant_detail::__base<(std::__ndk1::__variant_detail::__traits<geode::Hook*, std::__ndk1::basic_string<char, std::__ndk1::char_traits<char>, std::__ndk1::allocator<char> > >)1, geode::Hook, std::__ndk1::allocator<char> >&>(std::__ndk1::__variant_detail::__dtor<std::__ndk1::__variant_detail::__traits<geode::Hook*, std::__ndk1::basic_string<char, std::__ndk1::char_traits<char>, std::__ndk1::allocator<char> > >, (std::__ndk1::__variant_detail::_Trait)1>, std::__ndk1::__variant_detail::__base<(std::__ndk1::__variant_detail::__traits<geode::Hook*, std::__ndk1::basic_string<char, std::__ndk1::char_traits<char>, std::__ndk1::allocator<char> > >)1, geode::Hook, std::__ndk1::allocator<char> >&)
PUBLIC 26690 0 std::__ndk1::__variant_detail::__visitation::__base::__dispatcher<(unsigned long)1>::__dispatch[abi:ne180000]<std::__ndk1::__variant_detail::__dtor<std::__ndk1::__variant_detail::__traits<geode::Hook*, std::__ndk1::basic_string<char, std::__ndk1::char_traits<char>, std::__ndk1::allocator<char> > >, (std::__ndk1::__variant_detail::_Trait)1>::__destroy[abi:ne180000]()::{lambda(auto:1&)#1}, std::__ndk1::__variant_detail::__base<(std::__ndk1::__variant_detail::__traits<geode::Hook*, std::__ndk1::basic_string<char, std::__ndk1::char_traits<char>, std::__ndk1::allocator<char> > >)1, geode::Hook, std::__ndk1::allocator<char> >&>(std::__ndk1::__variant_detail::__dtor<std::__ndk1::__variant_detail::__traits<geode::Hook*, std::__ndk1::basic_string<char, std::__ndk1::char_traits<char>, std::__ndk1::allocator<char> > >, (std::__ndk1::__variant_detail::_Trait)1>, std::__ndk1::__variant_detail::__base<(std::__ndk1::__variant_detail::__traits<geode::Hook*, std::__ndk1::basic_string<char, std::__ndk1::char_traits<char>, std::__ndk1::allocator<char> > >)1, geode::Hook, std::__ndk1::allocator<char> >&)
PUBLIC 266a4 0 std::__ndk1::__tree<std::__ndk1::__value_type<std::__ndk1::basic_string<char, std::__ndk1::char_traits<char>, std::__ndk1::allocator<char> >, std::__ndk1::shared_ptr<geode::Hook> >, std::__ndk1::__map_value_compare<std::__ndk1::basic_string<char, std::__ndk1::char_traits<char>, std::__ndk1::allocator<char> >, std::__ndk1::__value_type<std::__ndk1::basic_string<char, std::__ndk1::char_traits<char>, std::__ndk1::allocator<char> >, std::__ndk1::shared_ptr<geode::Hook> >, std::__ndk1::less<std::__ndk1::basic_string<char, std::__ndk1::char_traits<char>, std::__ndk1::allocator<char> > >, true>, std::__ndk1::allocator<std::__ndk1::__value_type<std::__ndk1::basic_string<char, std::__ndk1::char_traits<char>, std::__ndk1::allocator<char> >, std::__ndk1::shared_ptr<geode::Hook> > > >::find<std::__ndk1::basic_string<char, std::__ndk1::char_traits<char>, std::__ndk1::allocator<char> > >(std::__ndk1::basic_string<char, std::__ndk1::char_traits<char>, std::__ndk1::allocator<char> > const&)
PUBLIC 267c4 0 std::__ndk1::__tree<std::__ndk1::__value_type<std::__ndk1::basic_string<char, std::__ndk1::char_traits<char>, std::__ndk1::allocator<char> >, std::__ndk1::shared_ptr<geode::Hook> >, std::__ndk1::__map_value_compare<std::__ndk1::basic_string<char, std::__ndk1::char_traits<char>, std::__ndk1::allocator<char> >, std::__ndk1::__value_type<std::__ndk1::basic_string<char, std::__ndk1::char_traits<char>, std::__ndk1::allocator<char> >, std::__ndk1::shared_ptr<geode::Hook> >, std::__ndk1::less<std::__ndk1::basic_string<char, std::__ndk1::char_traits<char>, std::__ndk1::allocator<char> > >, true>, std::__ndk1::allocator<std::__ndk1::__value_type<std::__ndk1::basic_string<char, std::__ndk1::char_traits<char>, std::__ndk1::allocator<char> >, std::__ndk1::shared_ptr<geode::Hook> > > >::erase(std::__ndk1::__tree_const_iterator<std::__ndk1::__value_type<std::__ndk1::basic_string<char, std::__ndk1::char_traits<char>, std::__ndk1::allocator<char> >, std::__ndk1::shared_ptr<geode::Hook> >, std::__ndk1::__tree_node<std::__ndk1::__value_type<std::__ndk1::basic_string<char, std::__ndk1::char_traits<char>, std::__ndk1::allocator<char> >, std::__ndk1::shared_ptr<geode::Hook> >, void*>*, long>)
PUBLIC 26898 0 std::__ndk1::__tree_remove[abi:ne180000]<std::__ndk1::__tree_node_base<void*>*>(std::__ndk1::__tree_node_base<void*>*, std::__ndk1::__tree_node_base<void*>*)
PUBLIC 26c60 0 std::__ndk1::__tree<std::__ndk1::__value_type<std::__ndk1::basic_string<char, std::__ndk1::char_traits<char>, std::__ndk1::allocator<char> >, std::__ndk1::shared_ptr<geode::Hook> >, std::__ndk1::__map_value_compare<std::__ndk1::basic_string<char, std::__ndk1::char_traits<char>, std::__ndk1::allocator<char> >, std::__ndk1::__value_type<std::__ndk1::basic_string<char, std::__ndk1::char_traits<char>, std::__ndk1::allocator<char> >, std::__ndk1::shared_ptr<geode::Hook> >, std::__ndk1::less<std::__ndk1::basic_string<char, std::__ndk1::char_traits<char>, std::__ndk1::allocator<char> > >, true>, std::__ndk1::allocator<std::__ndk1::__value_type<std::__ndk1::basic_string<char, std::__ndk1::char_traits<char>, std::__ndk1::allocator<char> >, std::__ndk1::shared_ptr<geode::Hook> > > >::destroy(std::__ndk1::__tree_node<std::__ndk1::__value_type<std::__ndk1::basic_string<char, std::__ndk1::char_traits<char>, std::__ndk1::allocator<char> >, std::__ndk1::shared_ptr<geode::Hook> >, void*>*)
PUBLIC 26cec 0 geode::modifier::AsStaticFunction_init<LevelInfoLayer2, bool (LevelInfoLayer2::*)(GJGameLevel*, bool)>::Impl<bool (LevelInfoLayer2::*)(GJGameLevel*, bool)>::function(LevelInfoLayer2*, GJGameLevel*, bool)
PUBLIC 26e40 0 std::__ndk1::shared_ptr<tulip::hook::CallingConvention>::~shared_ptr[abi:ne180000]()
PUBLIC 26e90 0 tulip::hook::HandlerMetadata::~HandlerMetadata()
PUBLIC 26ef4 0 std::__ndk1::vector<tulip::hook::AbstractType, std::__ndk1::allocator<tulip::hook::AbstractType> >::__throw_length_error[abi:ne180000]() const
PUBLIC 26f08 0 LevelInfoLayer2::onThumbnailButton(cocos2d::CCObject*)
PUBLIC 27018 0 geode::Mod::getSettingValue<bool>(std::__ndk1::basic_string_view<char, std::__ndk1::char_traits<char> >) const
PUBLIC 2714c 0 std::__ndk1::__tree<std::__ndk1::__value_type<std::__ndk1::basic_string<char, std::__ndk1::char_traits<char>, std::__ndk1::allocator<char> >, std::__ndk1::shared_ptr<geode::Hook> >, std::__ndk1::__map_value_compare<std::__ndk1::basic_string<char, std::__ndk1::char_traits<char>, std::__ndk1::allocator<char> >, std::__ndk1::__value_type<std::__ndk1::basic_string<char, std::__ndk1::char_traits<char>, std::__ndk1::allocator<char> >, std::__ndk1::shared_ptr<geode::Hook> >, std::__ndk1::less<std::__ndk1::basic_string<char, std::__ndk1::char_traits<char>, std::__ndk1::allocator<char> > >, true>, std::__ndk1::allocator<std::__ndk1::__value_type<std::__ndk1::basic_string<char, std::__ndk1::char_traits<char>, std::__ndk1::allocator<char> >, std::__ndk1::shared_ptr<geode::Hook> > > >::__emplace_unique_key_args<std::__ndk1::basic_string<char, std::__ndk1::char_traits<char>, std::__ndk1::allocator<char> >, std::__ndk1::piecewise_construct_t const&, std::__ndk1::tuple<std::__ndk1::basic_string<char, std::__ndk1::char_traits<char>, std::__ndk1::allocator<char> >&&>, std::__ndk1::tuple<> >(std::__ndk1::basic_string<char, std::__ndk1::char_traits<char>, std::__ndk1::allocator<char> > const&, std::__ndk1::piecewise_construct_t const&, std::__ndk1::tuple<std::__ndk1::basic_string<char, std::__ndk1::char_traits<char>, std::__ndk1::allocator<char> >&&>, std::__ndk1::tuple<>)
PUBLIC 272c4 0 std::__ndk1::__tree_balance_after_insert[abi:ne180000]<std::__ndk1::__tree_node_base<void*>*>(std::__ndk1::__tree_node_base<void*>*, std::__ndk1::__tree_node_base<void*>*)
PUBLIC 27474 0 geode::Popup<int>::CloseEvent::~CloseEvent()
PUBLIC 274d4 0 geode::Popup<int>::CloseEvent::~CloseEvent()
PUBLIC 27544 0 std::__ndk1::__shared_ptr_emplace<geode::Popup<int>::CloseEvent::Impl, std::__ndk1::allocator<geode::Popup<int>::CloseEvent::Impl> >::~__shared_ptr_emplace()
PUBLIC 27554 0 std::__ndk1::__shared_ptr_emplace<geode::Popup<int>::CloseEvent::Impl, std::__ndk1::allocator<geode::Popup<int>::CloseEvent::Impl> >::~__shared_ptr_emplace()
PUBLIC 27584 0 std::__ndk1::__shared_ptr_emplace<geode::Popup<int>::CloseEvent::Impl, std::__ndk1::allocator<geode::Popup<int>::CloseEvent::Impl> >::__on_zero_shared()
PUBLIC 27588 0 std::__ndk1::__shared_ptr_emplace<geode::Popup<int>::CloseEvent::Impl, std::__ndk1::allocator<geode::Popup<int>::CloseEvent::Impl> >::__on_zero_shared_weak()
PUBLIC 2758c 0 __cxx_global_var_init
PUBLIC 27a0c 0 geode::modifier::ModifyBase<geode::modifier::ModifyDerive<MyPauseLayer, PauseLayer> >::~ModifyBase()
PUBLIC 27a28 0 __cxx_global_var_init.1
PUBLIC 27ea8 0 geode::modifier::ModifyBase<geode::modifier::ModifyDerive<MyLevelCell, LevelCell> >::~ModifyBase()
PUBLIC 27ec4 0 geode::modifier::ModifyDerive<MyPauseLayer, PauseLayer>::apply()
PUBLIC 281f4 0 geode::modifier::ModifyBase<geode::modifier::ModifyDerive<MyPauseLayer, PauseLayer> >::apply()
PUBLIC 281f8 0 geode::modifier::AsStaticFunction_customSetup<MyPauseLayer, void (MyPauseLayer::*)()>::Impl<void (MyPauseLayer::*)()>::function(MyPauseLayer*)
PUBLIC 282e8 0 geode::addresser::Addresser::addressOfVirtual<void, PauseLayer, >(void (PauseLayer::*)())
PUBLIC 28390 0 PauseLayer::PauseLayer(geode::ZeroConstructorType)
PUBLIC 2841c 0 MyPauseLayer::onScreenshot(cocos2d::CCObject*)
PUBLIC 28c74 0 geode::modifier::ModifyDerive<MyLevelCell, LevelCell>::apply()
PUBLIC 28fb4 0 geode::modifier::ModifyBase<geode::modifier::ModifyDerive<MyLevelCell, LevelCell> >::apply()
PUBLIC 28fb8 0 geode::modifier::AsStaticFunction_loadCustomLevelCell<MyLevelCell, void (MyLevelCell::*)()>::Impl<void (MyLevelCell::*)()>::function(MyLevelCell*)
PUBLIC 299f4 0 MyLevelCell::checkParent(float)
PUBLIC 29a74 0 geode::modifier::FieldIntermediate<MyLevelCell, LevelCell>::self()
PUBLIC 2a198 0 geode::modifier::FieldIntermediate<MyLevelCell, LevelCell>::fieldDestructor(void*)
PUBLIC 2a2ac 0 std::__ndk1::vector<void*, std::__ndk1::allocator<void*> >::__throw_length_error[abi:ne180000]() const
PUBLIC 2a2c0 0 std::__ndk1::vector<std::__ndk1::function<void (void*)>, std::__ndk1::allocator<std::__ndk1::function<void (void*)> > >::__throw_length_error[abi:ne180000]() const
PUBLIC 2a2d4 0 std::__ndk1::vector<void*, std::__ndk1::allocator<void*> >::__throw_out_of_range[abi:ne180000]() const
PUBLIC 2a2e0 0 std::__ndk1::__throw_out_of_range[abi:ne180000](char const*)
PUBLIC 2a330 0 std::out_of_range::out_of_range[abi:ne180000](char const*)
PUBLIC 2a360 0 std::__ndk1::vector<std::__ndk1::function<void (void*)>, std::__ndk1::allocator<std::__ndk1::function<void (void*)> > >::__throw_out_of_range[abi:ne180000]() const
PUBLIC 2a36c 0 geode::Ref<cocos2d::CCLayerColor>::~Ref()
PUBLIC 2a388 0 geode::Ref<cocos2d::CCLabelBMFont>::~Ref()
PUBLIC 2a3a4 0 geode::Ref<LoadingCircle>::~Ref()
PUBLIC 2a3c0 0 std::__ndk1::__function::__base<void (void*)>::~__base()
PUBLIC 2a3c4 0 std::__ndk1::__function::__func<void (*)(void*), std::__ndk1::allocator<void (*)(void*)>, void (void*)>::~__func()
PUBLIC 2a3c8 0 std::__ndk1::__function::__func<void (*)(void*), std::__ndk1::allocator<void (*)(void*)>, void (void*)>::__clone() const
PUBLIC 2a400 0 std::__ndk1::__function::__func<void (*)(void*), std::__ndk1::allocator<void (*)(void*)>, void (void*)>::__clone(std::__ndk1::__function::__base<void (void*)>*) const
PUBLIC 2a418 0 std::__ndk1::__function::__func<void (*)(void*), std::__ndk1::allocator<void (*)(void*)>, void (void*)>::destroy()
PUBLIC 2a41c 0 std::__ndk1::__function::__func<void (*)(void*), std::__ndk1::allocator<void (*)(void*)>, void (void*)>::destroy_deallocate()
PUBLIC 2a420 0 std::__ndk1::__function::__func<void (*)(void*), std::__ndk1::allocator<void (*)(void*)>, void (void*)>::operator()(void*&&)
PUBLIC 2a430 0 std::__ndk1::__function::__func<void (*)(void*), std::__ndk1::allocator<void (*)(void*)>, void (void*)>::target(std::type_info const&) const
PUBLIC 2a44c 0 std::__ndk1::__function::__func<void (*)(void*), std::__ndk1::allocator<void (*)(void*)>, void (void*)>::target_type() const
PUBLIC 2a458 0 MyLevelCell::setDailyAttributes()
PUBLIC 2a7c4 0 MyLevelCell::onDownloadFinished(cocos2d::CCSprite*)
PUBLIC 2ac4c 0 std::__ndk1::__function::__func<MyLevelCell::startDownload()::{lambda(geode::Task<geode::utils::web::WebResponse, geode::utils::web::WebProgress>::Event*)#1}, std::__ndk1::allocator<MyLevelCell::startDownload()::{lambda(geode::Task<geode::utils::web::WebResponse, geode::utils::web::WebProgress>::Event*)#1}>, void (geode::Task<geode::utils::web::WebResponse, geode::utils::web::WebProgress>::Event*)>::~__func()
PUBLIC 2ac50 0 std::__ndk1::__function::__func<MyLevelCell::startDownload()::{lambda(geode::Task<geode::utils::web::WebResponse, geode::utils::web::WebProgress>::Event*)#1}, std::__ndk1::allocator<MyLevelCell::startDownload()::{lambda(geode::Task<geode::utils::web::WebResponse, geode::utils::web::WebProgress>::Event*)#1}>, void (geode::Task<geode::utils::web::WebResponse, geode::utils::web::WebProgress>::Event*)>::__clone() const
PUBLIC 2ac88 0 std::__ndk1::__function::__func<MyLevelCell::startDownload()::{lambda(geode::Task<geode::utils::web::WebResponse, geode::utils::web::WebProgress>::Event*)#1}, std::__ndk1::allocator<MyLevelCell::startDownload()::{lambda(geode::Task<geode::utils::web::WebResponse, geode::utils::web::WebProgress>::Event*)#1}>, void (geode::Task<geode::utils::web::WebResponse, geode::utils::web::WebProgress>::Event*)>::__clone(std::__ndk1::__function::__base<void (geode::Task<geode::utils::web::WebResponse, geode::utils::web::WebProgress>::Event*)>*) const
PUBLIC 2aca0 0 std::__ndk1::__function::__func<MyLevelCell::startDownload()::{lambda(geode::Task<geode::utils::web::WebResponse, geode::utils::web::WebProgress>::Event*)#1}, std::__ndk1::allocator<MyLevelCell::startDownload()::{lambda(geode::Task<geode::utils::web::WebResponse, geode::utils::web::WebProgress>::Event*)#1}>, void (geode::Task<geode::utils::web::WebResponse, geode::utils::web::WebProgress>::Event*)>::destroy()
PUBLIC 2aca4 0 std::__ndk1::__function::__func<MyLevelCell::startDownload()::{lambda(geode::Task<geode::utils::web::WebResponse, geode::utils::web::WebProgress>::Event*)#1}, std::__ndk1::allocator<MyLevelCell::startDownload()::{lambda(geode::Task<geode::utils::web::WebResponse, geode::utils::web::WebProgress>::Event*)#1}>, void (geode::Task<geode::utils::web::WebResponse, geode::utils::web::WebProgress>::Event*)>::destroy_deallocate()
PUBLIC 2aca8 0 std::__ndk1::__function::__func<MyLevelCell::startDownload()::{lambda(geode::Task<geode::utils::web::WebResponse, geode::utils::web::WebProgress>::Event*)#1}, std::__ndk1::allocator<MyLevelCell::startDownload()::{lambda(geode::Task<geode::utils::web::WebResponse, geode::utils::web::WebProgress>::Event*)#1}>, void (geode::Task<geode::utils::web::WebResponse, geode::utils::web::WebProgress>::Event*)>::operator()(geode::Task<geode::utils::web::WebResponse, geode::utils::web::WebProgress>::Event*&&)
PUBLIC 2b104 0 std::__ndk1::__function::__func<MyLevelCell::startDownload()::{lambda(geode::Task<geode::utils::web::WebResponse, geode::utils::web::WebProgress>::Event*)#1}, std::__ndk1::allocator<MyLevelCell::startDownload()::{lambda(geode::Task<geode::utils::web::WebResponse, geode::utils::web::WebProgress>::Event*)#1}>, void (geode::Task<geode::utils::web::WebResponse, geode::utils::web::WebProgress>::Event*)>::target(std::type_info const&) const
PUBLIC 2b120 0 std::__ndk1::__function::__func<MyLevelCell::startDownload()::{lambda(geode::Task<geode::utils::web::WebResponse, geode::utils::web::WebProgress>::Event*)#1}, std::__ndk1::allocator<MyLevelCell::startDownload()::{lambda(geode::Task<geode::utils::web::WebResponse, geode::utils::web::WebProgress>::Event*)#1}>, void (geode::Task<geode::utils::web::WebResponse, geode::utils::web::WebProgress>::Event*)>::target_type() const
PUBLIC 2b12c 0 std::__ndk1::__thread_proxy[abi:ne180000]<std::__ndk1::tuple<std::__ndk1::unique_ptr<std::__ndk1::__thread_struct, std::__ndk1::default_delete<std::__ndk1::unique_ptr> >, MyLevelCell::startDownload()::{lambda(geode::Task<MyLevelCell::utils::web::WebResponse, MyLevelCell::utils::WebProgress>::Event*)#1}::operator()(geode::Task<MyLevelCell::utils::web::WebResponse, MyLevelCell::utils::WebProgress>::Event) const::{lambda()#1}> >(std::__ndk1::tuple<std::__ndk1::unique_ptr<std::__ndk1::__thread_struct, std::__ndk1::default_delete<std::__ndk1::unique_ptr> >, MyLevelCell::startDownload()::{lambda(geode::Task<MyLevelCell::utils::web::WebResponse, MyLevelCell::utils::WebProgress>::Event*)#1}::operator()(geode::Task<MyLevelCell::utils::web::WebResponse, MyLevelCell::utils::WebProgress>::Event) const::{lambda()#1}>)
PUBLIC 2b3cc 0 std::__ndk1::unique_ptr<std::__ndk1::tuple<std::__ndk1::unique_ptr<std::__ndk1::__thread_struct, std::__ndk1::default_delete<std::__ndk1::__thread_struct> >, MyLevelCell::startDownload()::{lambda(geode::Task<geode::utils::web::WebResponse, geode::utils::web::WebProgress>::Event*)#1}::operator()(geode::Task<geode::utils::web::WebResponse, geode::utils::web::WebProgress>::Event*) const::{lambda()#1}>, std::__ndk1::default_delete<std::__ndk1::tuple<std::__ndk1::unique_ptr<std::__ndk1::__thread_struct, std::__ndk1::default_delete<std::__ndk1::__thread_struct> >, MyLevelCell::startDownload()::{lambda(geode::Task<geode::utils::web::WebResponse, geode::utils::web::WebProgress>::Event*)#1}::operator()(geode::Task<geode::utils::web::WebResponse, geode::utils::web::WebProgress>::Event*) const::{lambda()#1}> > >::~unique_ptr[abi:ne180000]()
PUBLIC 2b42c 0 std::__ndk1::__function::__func<MyLevelCell::startDownload()::{lambda(geode::Task<geode::utils::web::WebResponse, geode::utils::web::WebProgress>::Event*)#1}::operator()(geode::Task<geode::utils::web::WebResponse, geode::utils::web::WebProgress>::Event*) const::{lambda()#1}::operator()() const::{lambda()#1}, std::__ndk1::allocator<MyLevelCell::startDownload()::{lambda(geode::Task<geode::utils::web::WebResponse, geode::utils::web::WebProgress>::Event*)#1}::operator()(geode::Task<geode::utils::web::WebResponse, geode::utils::web::WebProgress>::Event*) const::{lambda()#1}::operator()() const::{lambda()#1}>, void ()>::~__func()
PUBLIC 2b450 0 std::__ndk1::__function::__func<MyLevelCell::startDownload()::{lambda(geode::Task<geode::utils::web::WebResponse, geode::utils::web::WebProgress>::Event*)#1}::operator()(geode::Task<geode::utils::web::WebResponse, geode::utils::web::WebProgress>::Event*) const::{lambda()#1}::operator()() const::{lambda()#1}, std::__ndk1::allocator<MyLevelCell::startDownload()::{lambda(geode::Task<geode::utils::web::WebResponse, geode::utils::web::WebProgress>::Event*)#1}::operator()(geode::Task<geode::utils::web::WebResponse, geode::utils::web::WebProgress>::Event*) const::{lambda()#1}::operator()() const::{lambda()#1}>, void ()>::~__func()
PUBLIC 2b490 0 std::__ndk1::__function::__func<MyLevelCell::startDownload()::{lambda(geode::Task<geode::utils::web::WebResponse, geode::utils::web::WebProgress>::Event*)#1}::operator()(geode::Task<geode::utils::web::WebResponse, geode::utils::web::WebProgress>::Event*) const::{lambda()#1}::operator()() const::{lambda()#1}, std::__ndk1::allocator<MyLevelCell::startDownload()::{lambda(geode::Task<geode::utils::web::WebResponse, geode::utils::web::WebProgress>::Event*)#1}::operator()(geode::Task<geode::utils::web::WebResponse, geode::utils::web::WebProgress>::Event*) const::{lambda()#1}::operator()() const::{lambda()#1}>, void ()>::__clone() const
PUBLIC 2b550 0 std::__ndk1::__function::__func<MyLevelCell::startDownload()::{lambda(geode::Task<geode::utils::web::WebResponse, geode::utils::web::WebProgress>::Event*)#1}::operator()(geode::Task<geode::utils::web::WebResponse, geode::utils::web::WebProgress>::Event*) const::{lambda()#1}::operator()() const::{lambda()#1}, std::__ndk1::allocator<MyLevelCell::startDownload()::{lambda(geode::Task<geode::utils::web::WebResponse, geode::utils::web::WebProgress>::Event*)#1}::operator()(geode::Task<geode::utils::web::WebResponse, geode::utils::web::WebProgress>::Event*) const::{lambda()#1}::operator()() const::{lambda()#1}>, void ()>::__clone(std::__ndk1::__function::__base<void ()>*) const
PUBLIC 2b5fc 0 std::__ndk1::__function::__func<MyLevelCell::startDownload()::{lambda(geode::Task<geode::utils::web::WebResponse, geode::utils::web::WebProgress>::Event*)#1}::operator()(geode::Task<geode::utils::web::WebResponse, geode::utils::web::WebProgress>::Event*) const::{lambda()#1}::operator()() const::{lambda()#1}, std::__ndk1::allocator<MyLevelCell::startDownload()::{lambda(geode::Task<geode::utils::web::WebResponse, geode::utils::web::WebProgress>::Event*)#1}::operator()(geode::Task<geode::utils::web::WebResponse, geode::utils::web::WebProgress>::Event*) const::{lambda()#1}::operator()() const::{lambda()#1}>, void ()>::destroy()
PUBLIC 2b614 0 std::__ndk1::__function::__func<MyLevelCell::startDownload()::{lambda(geode::Task<geode::utils::web::WebResponse, geode::utils::web::WebProgress>::Event*)#1}::operator()(geode::Task<geode::utils::web::WebResponse, geode::utils::web::WebProgress>::Event*) const::{lambda()#1}::operator()() const::{lambda()#1}, std::__ndk1::allocator<MyLevelCell::startDownload()::{lambda(geode::Task<geode::utils::web::WebResponse, geode::utils::web::WebProgress>::Event*)#1}::operator()(geode::Task<geode::utils::web::WebResponse, geode::utils::web::WebProgress>::Event*) const::{lambda()#1}::operator()() const::{lambda()#1}>, void ()>::destroy_deallocate()
PUBLIC 2b648 0 std::__ndk1::__function::__func<MyLevelCell::startDownload()::{lambda(geode::Task<geode::utils::web::WebResponse, geode::utils::web::WebProgress>::Event*)#1}::operator()(geode::Task<geode::utils::web::WebResponse, geode::utils::web::WebProgress>::Event*) const::{lambda()#1}::operator()() const::{lambda()#1}, std::__ndk1::allocator<MyLevelCell::startDownload()::{lambda(geode::Task<geode::utils::web::WebResponse, geode::utils::web::WebProgress>::Event*)#1}::operator()(geode::Task<geode::utils::web::WebResponse, geode::utils::web::WebProgress>::Event*) const::{lambda()#1}::operator()() const::{lambda()#1}>, void ()>::operator()()
PUBLIC 2b884 0 std::__ndk1::__function::__func<MyLevelCell::startDownload()::{lambda(geode::Task<geode::utils::web::WebResponse, geode::utils::web::WebProgress>::Event*)#1}::operator()(geode::Task<geode::utils::web::WebResponse, geode::utils::web::WebProgress>::Event*) const::{lambda()#1}::operator()() const::{lambda()#1}, std::__ndk1::allocator<MyLevelCell::startDownload()::{lambda(geode::Task<geode::utils::web::WebResponse, geode::utils::web::WebProgress>::Event*)#1}::operator()(geode::Task<geode::utils::web::WebResponse, geode::utils::web::WebProgress>::Event*) const::{lambda()#1}::operator()() const::{lambda()#1}>, void ()>::target(std::type_info const&) const
PUBLIC 2b8a0 0 std::__ndk1::__function::__func<MyLevelCell::startDownload()::{lambda(geode::Task<geode::utils::web::WebResponse, geode::utils::web::WebProgress>::Event*)#1}::operator()(geode::Task<geode::utils::web::WebResponse, geode::utils::web::WebProgress>::Event*) const::{lambda()#1}::operator()() const::{lambda()#1}, std::__ndk1::allocator<MyLevelCell::startDownload()::{lambda(geode::Task<geode::utils::web::WebResponse, geode::utils::web::WebProgress>::Event*)#1}::operator()(geode::Task<geode::utils::web::WebResponse, geode::utils::web::WebProgress>::Event*) const::{lambda()#1}::operator()() const::{lambda()#1}>, void ()>::target_type() const
PUBLIC 2b8ac 0 std::__ndk1::__throw_bad_optional_access[abi:ne180000]()
PUBLIC m 2b8e0 0 geodeImplicitEntry
PUBLIC 2b91c 0 std::__ndk1::unordered_map<void*, bool, std::__ndk1::hash<void*>, std::__ndk1::equal_to<void*>, std::__ndk1::allocator<std::__ndk1::pair<void* const, bool> > >::~unordered_map[abi:ne180000]()
PUBLIC 2b968 0 wrapFunction(unsigned long, tulip::hook::WrapperMetadata const&)
PUBLIC 2ba9c 0 geode::impl::ResultData<void*, std::__ndk1::basic_string<char, std::__ndk1::char_traits<char>, std::__ndk1::allocator<char> > >::unwrapErr() &
PUBLIC 2bb14 0 geode::impl::ResultData<void*, std::__ndk1::basic_string<char, std::__ndk1::char_traits<char>, std::__ndk1::allocator<char> > >::~ResultData()
PUBLIC 2bb88 0 tulip::hook::WrapperMetadata::~WrapperMetadata()
PUBLIC 2bbec 0 cocos2d::CCObject::CCObject()
PUBLIC 2be10 0 cocos2d::CCObject::~CCObject()
PUBLIC 2be34 0 cocos2d::CCNode::~CCNode()
PUBLIC 2be58 0 {virtual override thunk({offset(-320)}, cocos2d::CCLayer::~CCLayer())}
PUBLIC 2be60 0 cocos2d::CCLayer::~CCLayer()
PUBLIC 2be84 0 {virtual override thunk({offset(-320)}, cocos2d::CCLayer::~CCLayer())}
PUBLIC 2beac 0 cocos2d::CCLayerRGBA::~CCLayerRGBA()
PUBLIC 2c1ac 0 {virtual override thunk({offset(-320)}, cocos2d::CCLayerRGBA::~CCLayerRGBA())}
PUBLIC 2c1b4 0 cocos2d::CCLayerRGBA::~CCLayerRGBA()
PUBLIC 2c1d8 0 {virtual override thunk({offset(-320)}, cocos2d::CCLayerRGBA::~CCLayerRGBA())}
PUBLIC 2c200 0 cocos2d::CCLayerColor::CCLayerColor()
PUBLIC 2c464 0 {virtual override thunk({offset(-320)}, cocos2d::CCLayerColor::~CCLayerColor())}
PUBLIC 2c46c 0 cocos2d::CCLayerColor::~CCLayerColor()
PUBLIC 2c490 0 {virtual override thunk({offset(-320)}, cocos2d::CCLayerColor::~CCLayerColor())}
PUBLIC 2c4b8 0 cocos2d::CCTexture2D::~CCTexture2D()
PUBLIC 2c728 0 cocos2d::CCTexture2D::~CCTexture2D()
PUBLIC 2c74c 0 cocos2d::CCTexture2D::CCTexture2D()
PUBLIC 2c978 0 cocos2d::CCImage::CCImage()
PUBLIC 2cb9c 0 cocos2d::CCImage::~CCImage()
PUBLIC 2ce04 0 cocos2d::CCImage::~CCImage()
PUBLIC 2ce28 0 cocos2d::CCDictionary::setObject(cocos2d::CCObject*, gd::string const&)
PUBLIC 2cf88 0 tulip::hook::AbstractFunction::from<void, cocos2d::CCDictionary*, cocos2d::CCObject*, gd::string const&>(void (*)(cocos2d::CCDictionary*, cocos2d::CCObject*, gd::string const&))
PUBLIC 2d090 0 cocos2d::CCDictionary::objectForKey(gd::string const&)
PUBLIC 2d1e0 0 tulip::hook::AbstractFunction::from<cocos2d::CCObject*, cocos2d::CCDictionary*, gd::string const&>(cocos2d::CCObject* (*)(cocos2d::CCDictionary*, gd::string const&))
PUBLIC 2d288 0 cocos2d::CCDictionary::removeObjectForKey(gd::string const&)
PUBLIC 2d3d8 0 tulip::hook::AbstractFunction::from<void, cocos2d::CCDictionary*, gd::string const&>(void (*)(cocos2d::CCDictionary*, gd::string const&))
PUBLIC 2d484 0 {virtual override thunk({offset(-320)}, FLAlertLayer::~FLAlertLayer())}
PUBLIC 2d48c 0 FLAlertLayer::~FLAlertLayer()
PUBLIC 2d4b0 0 {virtual override thunk({offset(-320)}, FLAlertLayer::~FLAlertLayer())}
PUBLIC 2d4d8 0 FLAlertLayer::create(FLAlertLayerProtocol*, char const*, gd::string, char const*, char const*, float)
PUBLIC 2d690 0 tulip::hook::AbstractFunction::from<FLAlertLayer*, FLAlertLayerProtocol*, char const*, gd::string, char const*, char const*, float>(FLAlertLayer* (*)(FLAlertLayerProtocol*, char const*, gd::string, char const*, char const*, float))
PUBLIC 2db74 0 cocos2d::CCLayerColor::~CCLayerColor()
PUBLIC 2de58 0 FLAlertLayer::~FLAlertLayer()
PUBLIC 2e13c 0 cocos2d::CCNode::~CCNode()
PUBLIC 2e3dc 0 cocos2d::CCLayer::~CCLayer()
PUBLIC 2e6cc 0 cocos2d::CCObject::~CCObject()
PUBLIC 2ebc0 0 _ZN5geode15UnwrapExceptionC2IRPvQsr4implE18IsStringStreamableIT_EEENS_4impl5OkTagEOS4_
PUBLIC 2ed14 0 _ZN5geode15UnwrapExceptionC2IRNSt6__ndk112basic_stringIcNS2_11char_traitsIcEENS2_9allocatorIcEEEEQsr4implE18IsStringStreamableIT_EEENS_4impl6ErrTagEOSA_
PUBLIC 2ee7c 0 std::__ndk1::__variant_detail::__visitation::__base::__dispatcher<(unsigned long)0>::__dispatch[abi:ne180000]<std::__ndk1::__variant_detail::__dtor<std::__ndk1::__variant_detail::__traits<void*, std::__ndk1::basic_string<char, std::__ndk1::char_traits<char>, std::__ndk1::allocator<char> > >, (std::__ndk1::__variant_detail::_Trait)1>::__destroy[abi:ne180000]()::{lambda(auto:1&)#1}, std::__ndk1::__variant_detail::__base<(std::__ndk1::__variant_detail::__traits<void*, std::__ndk1::basic_string<char, std::__ndk1::char_traits<char>, std::__ndk1::allocator<char> > >)1, std::__ndk1::__variant_detail::__traits, std::__ndk1::allocator<char> >&>(std::__ndk1::__variant_detail::__dtor<std::__ndk1::__variant_detail::__traits<void*, std::__ndk1::basic_string<char, std::__ndk1::char_traits<char>, std::__ndk1::allocator<char> > >, (std::__ndk1::__variant_detail::_Trait)1>, std::__ndk1::__variant_detail::__base<(std::__ndk1::__variant_detail::__traits<void*, std::__ndk1::basic_string<char, std::__ndk1::char_traits<char>, std::__ndk1::allocator<char> > >)1, std::__ndk1::__variant_detail::__traits, std::__ndk1::allocator<char> >&)
PUBLIC 2ee80 0 std::__ndk1::__variant_detail::__visitation::__base::__dispatcher<(unsigned long)1>::__dispatch[abi:ne180000]<std::__ndk1::__variant_detail::__dtor<std::__ndk1::__variant_detail::__traits<void*, std::__ndk1::basic_string<char, std::__ndk1::char_traits<char>, std::__ndk1::allocator<char> > >, (std::__ndk1::__variant_detail::_Trait)1>::__destroy[abi:ne180000]()::{lambda(auto:1&)#1}, std::__ndk1::__variant_detail::__base<(std::__ndk1::__variant_detail::__traits<void*, std::__ndk1::basic_string<char, std::__ndk1::char_traits<char>, std::__ndk1::allocator<char> > >)1, std::__ndk1::__variant_detail::__traits, std::__ndk1::allocator<char> >&>(std::__ndk1::__variant_detail::__dtor<std::__ndk1::__variant_detail::__traits<void*, std::__ndk1::basic_string<char, std::__ndk1::char_traits<char>, std::__ndk1::allocator<char> > >, (std::__ndk1::__variant_detail::_Trait)1>, std::__ndk1::__variant_detail::__base<(std::__ndk1::__variant_detail::__traits<void*, std::__ndk1::basic_string<char, std::__ndk1::char_traits<char>, std::__ndk1::allocator<char> > >)1, std::__ndk1::__variant_detail::__traits, std::__ndk1::allocator<char> >&)
PUBLIC 2ee94 0 std::__ndk1::__hash_table<std::__ndk1::__hash_value_type<void*, bool>, std::__ndk1::__unordered_map_hasher<void*, std::__ndk1::__hash_value_type<void*, bool>, std::__ndk1::hash<void*>, std::__ndk1::equal_to<void*>, true>, std::__ndk1::__unordered_map_equal<void*, std::__ndk1::__hash_value_type<void*, bool>, std::__ndk1::equal_to<void*>, std::__ndk1::hash<void*>, true>, std::__ndk1::allocator<std::__ndk1::__hash_value_type<void*, bool> > >::__emplace_unique_key_args<void*, std::__ndk1::piecewise_construct_t const&, std::__ndk1::tuple<void* const&>, std::__ndk1::tuple<> >(void* const&, std::__ndk1::piecewise_construct_t const&, std::__ndk1::tuple<void* const&>, std::__ndk1::tuple<>)
PUBLIC 2f3a0 0 __udivti3
PUBLIC 2f3ac 0 __udivmodti4
PUBLIC m 2f5f8 0 __eqtf2
PUBLIC 2f698 0 __unordtf2
PUBLIC 2f6d0 0 fmt::v11::detail::write_loc(fmt::v11::basic_appender<char>, fmt::v11::loc_value, fmt::v11::format_specs const&, fmt::v11::detail::locale_ref)
PUBLIC 2f964 0 fmt::v11::format_facet<std::__ndk1::locale>::~format_facet()
PUBLIC 2f9e0 0 fmt::v11::report_error(char const*)
PUBLIC 2fa30 0 fmt::v11::format_error::runtime_error(char const*)
PUBLIC 2fa5c 0 fmt::v11::format_facet<std::__ndk1::locale>::do_put(fmt::v11::basic_appender<char>, fmt::v11::loc_value, fmt::v11::format_specs const&) const
PUBLIC 3021c 0 fmt::v11::detail::loc_writer<char>::~loc_writer()
PUBLIC 30280 0 fmt::v11::detail::vformat_to<char>(fmt::v11::detail::buffer<char>&, fmt::v11::basic_string_view<char>, fmt::v11::detail::vformat_args<char>::type, fmt::v11::detail::locale_ref)
PUBLIC 307f0 0 fmt::v11::detail::is_printable(unsigned int)
PUBLIC 30a18 0 fmt::v11::detail::dragonbox::to_decimal<float>(float)
PUBLIC 30cf4 0 fmt::v11::detail::dragonbox::to_decimal<double>(double)
PUBLIC 31230 0 fmt::v11::format_facet<std::__ndk1::locale>::~format_facet()
PUBLIC 312bc 0 fmt::v11::format_error::~format_error()
PUBLIC 312e0 0 fmt::v11::detail::copy_noinline<char, char const*, fmt::v11::basic_appender<char> >(char const*, char const*, fmt::v11::basic_appender<char>)
PUBLIC 31430 0 fmt::v11::detail::default_arg_formatter<char>::operator()<bool>(bool)
PUBLIC 31498 0 fmt::v11::detail::default_arg_formatter<char>::operator()<char>(char)
PUBLIC 31528 0 fmt::v11::detail::default_arg_formatter<char>::operator()<float>(float)
PUBLIC 31614 0 fmt::v11::detail::default_arg_formatter<char>::operator()<double>(double)
PUBLIC 31700 0 fmt::v11::detail::default_arg_formatter<char>::operator()<char const*>(char const*)
PUBLIC 31748 0 fmt::v11::detail::default_arg_formatter<char>::operator()<void const*>(void const*)
PUBLIC 317e0 0 _ZN3fmt3v116detail5writeIcNS0_14basic_appenderIcEEiTnNSt6__ndk19enable_ifIXaaaasr11is_integralIT1_EE5valuentsr3std7is_sameIS7_bEE5valuentsr3std7is_sameIS7_T_EE5valueEiE4typeELi0EEET0_SB_S7_
PUBLIC 31a40 0 fmt::v11::detail::copy_noinline<char, char*, fmt::v11::basic_appender<char> >(char*, char*, fmt::v11::basic_appender<char>)
PUBLIC 31b90 0 _ZN3fmt3v116detail5writeIcNS0_14basic_appenderIcEEjTnNSt6__ndk19enable_ifIXaaaasr11is_integralIT1_EE5valuentsr3std7is_sameIS7_bEE5valuentsr3std7is_sameIS7_T_EE5valueEiE4typeELi0EEET0_SB_S7_
PUBLIC 31d70 0 _ZN3fmt3v116detail5writeIcNS0_14basic_appenderIcEExTnNSt6__ndk19enable_ifIXaaaasr11is_integralIT1_EE5valuentsr3std7is_sameIS7_bEE5valuentsr3std7is_sameIS7_T_EE5valueEiE4typeELi0EEET0_SB_S7_
PUBLIC 31ff4 0 _ZN3fmt3v116detail5writeIcNS0_14basic_appenderIcEEyTnNSt6__ndk19enable_ifIXaaaasr11is_integralIT1_EE5valuentsr3std7is_sameIS7_bEE5valuentsr3std7is_sameIS7_T_EE5valueEiE4typeELi0EEET0_SB_S7_
PUBLIC 321fc 0 _ZN3fmt3v116detail5writeIcNS0_14basic_appenderIcEEnTnNSt6__ndk19enable_ifIXaaaasr11is_integralIT1_EE5valuentsr3std7is_sameIS7_bEE5valuentsr3std7is_sameIS7_T_EE5valueEiE4typeELi0EEET0_SB_S7_
PUBLIC 3255c 0 _ZN3fmt3v116detail5writeIcNS0_14basic_appenderIcEEoTnNSt6__ndk19enable_ifIXaaaasr11is_integralIT1_EE5valuentsr3std7is_sameIS7_bEE5valuentsr3std7is_sameIS7_T_EE5valueEiE4typeELi0EEET0_SB_S7_
PUBLIC 32870 0 _ZN3fmt3v116detail5writeIcNS0_14basic_appenderIcEEbTnNSt6__ndk19enable_ifIXsr3std7is_sameIT1_bEE5valueEiE4typeELi0EEET0_SA_S7_RKNS0_12format_specsENS1_10locale_refE
PUBLIC 32b24 0 fmt::v11::detail::write_int_noinline<char, fmt::v11::basic_appender<char>, unsigned int>(fmt::v11::basic_appender<char>, fmt::v11::detail::write_int_arg<unsigned int>, fmt::v11::format_specs const&, fmt::v11::detail::locale_ref)
PUBLIC 33904 0 fmt::v11::detail::write_padded<char, (fmt::v11::align::type)1, fmt::v11::basic_appender<char>, fmt::v11::detail::write_char<char, fmt::v11::basic_appender<char> >(fmt::v11::basic_appender<char>, char, fmt::v11::format_specs const&)::{lambda(fmt::v11::basic_appender<char>&)#1}>(fmt::v11::basic_appender<char>, fmt::v11::format_specs const&, unsigned long, unsigned long, fmt::v11::detail::write_char<char, fmt::v11::basic_appender<char> >(fmt::v11::basic_appender<char>, char, fmt::v11::format_specs const&)::{lambda(fmt::v11::basic_appender<char>&)#1})
PUBLIC 33b68 0 fmt::v11::detail::write_padded<char, (fmt::v11::align::type)1, fmt::v11::basic_appender<char>, fmt::v11::detail::write_nonfinite<char, fmt::v11::basic_appender<char> >(fmt::v11::basic_appender<char>, bool, fmt::v11::format_specs, fmt::v11::sign::type)::{lambda(fmt::v11::basic_appender<char>&)#1}>(fmt::v11::basic_appender<char>, fmt::v11::format_specs const&, unsigned long, unsigned long, fmt::v11::detail::write_nonfinite<char, fmt::v11::basic_appender<char> >(fmt::v11::basic_appender<char>, bool, fmt::v11::format_specs, fmt::v11::sign::type)::{lambda(fmt::v11::basic_appender<char>&)#1})
PUBLIC 33dc0 0 fmt::v11::detail::do_write_float<char, fmt::v11::basic_appender<char>, fmt::v11::detail::dragonbox::decimal_fp<float>, fmt::v11::detail::digit_grouping<char> >(fmt::v11::basic_appender<char>, fmt::v11::detail::dragonbox::decimal_fp<float> const&, fmt::v11::format_specs const&, fmt::v11::detail::float_specs, fmt::v11::detail::locale_ref)
PUBLIC 34a44 0 fmt::v11::detail::do_write_float<char, fmt::v11::basic_appender<char>, fmt::v11::detail::dragonbox::decimal_fp<float>, fmt::v11::detail::digit_grouping<char> >(fmt::v11::basic_appender<char>, fmt::v11::detail::dragonbox::decimal_fp<float> const&, fmt::v11::format_specs const&, fmt::v11::detail::float_specs, fmt::v11::detail::locale_ref)::{lambda(fmt::v11::basic_appender<char>(fmt::v11::basic_appender<char>))#1}::operator() const
PUBLIC 34b98 0 fmt::v11::detail::digit_grouping<char>::digit_grouping(fmt::v11::detail::locale_ref, bool)
PUBLIC 34e04 0 fmt::v11::detail::digit_grouping<char>::~digit_grouping()
PUBLIC 34e48 0 fmt::v11::detail::write_exponent<char, fmt::v11::basic_appender<char> >(int, fmt::v11::basic_appender<char>)
PUBLIC 35018 0 _ZN3fmt3v116detail17write_significandIcjTnNSt6__ndk19enable_ifIXsr3std11is_integralIT0_EE5valueEiE4typeELi0EEEPT_S9_S5_iiS8_
PUBLIC 35194 0 std::__ndk1::basic_string<char, std::__ndk1::char_traits<char>, std::__ndk1::allocator<char> >::__assign_no_alias<true>(char const*, unsigned long)
PUBLIC 35240 0 std::__ndk1::basic_string<char, std::__ndk1::char_traits<char>, std::__ndk1::allocator<char> >::__assign_no_alias<false>(char const*, unsigned long)
PUBLIC 35350 0 fmt::v11::detail::digit_grouping<char>::apply<fmt::v11::basic_appender<char>, char>(fmt::v11::basic_appender<char>, fmt::v11::basic_string_view<char>) const
PUBLIC 35708 0 fmt::v11::basic_memory_buffer<int, (unsigned long)500, std::__ndk1::allocator<int> >::grow(fmt::v11::detail::buffer<int>&, unsigned long)
PUBLIC 357a8 0 fmt::v11::detail::do_write_float<char, fmt::v11::basic_appender<char>, fmt::v11::detail::dragonbox::decimal_fp<double>, fmt::v11::detail::digit_grouping<char> >(fmt::v11::basic_appender<char>, fmt::v11::detail::dragonbox::decimal_fp<double> const&, fmt::v11::format_specs const&, fmt::v11::detail::float_specs, fmt::v11::detail::locale_ref)
PUBLIC 36468 0 fmt::v11::detail::do_write_float<char, fmt::v11::basic_appender<char>, fmt::v11::detail::dragonbox::decimal_fp<double>, fmt::v11::detail::digit_grouping<char> >(fmt::v11::basic_appender<char>, fmt::v11::detail::dragonbox::decimal_fp<double> const&, fmt::v11::format_specs const&, fmt::v11::detail::float_specs, fmt::v11::detail::locale_ref)::{lambda(fmt::v11::basic_appender<char>(fmt::v11::basic_appender<char>))#1}::operator() const
PUBLIC 365c0 0 _ZN3fmt3v116detail17write_significandIcmTnNSt6__ndk19enable_ifIXsr3std11is_integralIT0_EE5valueEiE4typeELi0EEEPT_S9_S5_iiS8_
PUBLIC 36750 0 fmt::v11::detail::write_float<char, fmt::v11::basic_appender<char>, long double>(fmt::v11::basic_appender<char>, long double, fmt::v11::format_specs, fmt::v11::detail::locale_ref)
PUBLIC 37248 0 fmt::v11::detail::write_padded<char, (fmt::v11::align::type)2, fmt::v11::basic_appender<char>, fmt::v11::detail::write_bytes<char, (fmt::v11::align::type)2, fmt::v11::basic_appender<char> >(fmt::v11::basic_appender<char>, fmt::v11::basic_string_view<char>, fmt::v11::format_specs const&)::{lambda(fmt::v11::basic_appender<char>&)#1}>(fmt::v11::basic_appender<char>, fmt::v11::format_specs const&, unsigned long, unsigned long, fmt::v11::detail::write_bytes<char, (fmt::v11::align::type)2, fmt::v11::basic_appender<char> >(fmt::v11::basic_appender<char>, fmt::v11::basic_string_view<char>, fmt::v11::format_specs const&)::{lambda(fmt::v11::basic_appender<char>&)#1})
PUBLIC 3743c 0 fmt::v11::detail::format_dragon(fmt::v11::detail::basic_fp<unsigned __int128>, unsigned int, int, fmt::v11::detail::buffer<char>&, int&)
PUBLIC 3886c 0 fmt::v11::detail::bigint::operator<<=(int)
PUBLIC 38990 0 fmt::v11::detail::bigint::assign_pow10(int)
PUBLIC 390ec 0 fmt::v11::detail::bigint::divmod_assign(fmt::v11::detail::bigint const&)
PUBLIC 3940c 0 fmt::v11::basic_memory_buffer<unsigned int, (unsigned long)32, std::__ndk1::allocator<unsigned int> >::grow(fmt::v11::detail::buffer<unsigned int>&, unsigned long)
PUBLIC 394ac 0 fmt::v11::detail::do_write_float<char, fmt::v11::basic_appender<char>, fmt::v11::detail::big_decimal_fp, fmt::v11::detail::digit_grouping<char> >(fmt::v11::basic_appender<char>, fmt::v11::detail::big_decimal_fp const&, fmt::v11::format_specs const&, fmt::v11::detail::float_specs, fmt::v11::detail::locale_ref)
PUBLIC 3a38c 0 fmt::v11::detail::do_write_float<char, fmt::v11::basic_appender<char>, fmt::v11::detail::big_decimal_fp, fmt::v11::detail::digit_grouping<char> >(fmt::v11::basic_appender<char>, fmt::v11::detail::big_decimal_fp const&, fmt::v11::format_specs const&, fmt::v11::detail::float_specs, fmt::v11::detail::locale_ref)::{lambda(fmt::v11::basic_appender<char>(fmt::v11::basic_appender<char>))#1}::operator() const
PUBLIC 3a4ec 0 fmt::v11::detail::write_padded<char, (fmt::v11::align::type)2, fmt::v11::basic_appender<char>, fmt::v11::detail::write_ptr<char, fmt::v11::basic_appender<char>, unsigned long>(fmt::v11::basic_appender<char>, unsigned long, fmt::v11::format_specs const*)::{lambda(fmt::v11::basic_appender<char>&)#1}>(fmt::v11::basic_appender<char>, fmt::v11::format_specs const&, unsigned long, unsigned long, fmt::v11::detail::write_ptr<char, fmt::v11::basic_appender<char>, unsigned long>(fmt::v11::basic_appender<char>, unsigned long, fmt::v11::format_specs const*)::{lambda(fmt::v11::basic_appender<char>&)#1})
PUBLIC 3a700 0 fmt::v11::detail::parse_replacement_field<char, fmt::v11::detail::vformat_to<char>(fmt::v11::detail::buffer<char>&, fmt::v11::basic_string_view<char>, fmt::v11::detail::vformat_args<char>::type, fmt::v11::detail::locale_ref)::format_handler&>(char const*, char const*, fmt::v11::detail::vformat_to<char>(fmt::v11::detail::buffer<char>&, fmt::v11::basic_string_view<char>, fmt::v11::detail::vformat_args<char>::type, fmt::v11::detail::locale_ref)::format_handler&)
PUBLIC 3c1e4 0 fmt::v11::detail::write_int_noinline<char, fmt::v11::basic_appender<char>, unsigned long>(fmt::v11::basic_appender<char>, fmt::v11::detail::write_int_arg<unsigned long>, fmt::v11::format_specs const&, fmt::v11::detail::locale_ref)
PUBLIC 3d044 0 fmt::v11::detail::write_int_noinline<char, fmt::v11::basic_appender<char>, unsigned __int128>(fmt::v11::basic_appender<char>, fmt::v11::detail::write_int_arg<unsigned __int128>, fmt::v11::format_specs const&, fmt::v11::detail::locale_ref)
PUBLIC 3e0d4 0 _ZN3fmt3v116detail15format_hexfloatIdTnNSt6__ndk19enable_ifIXntsr16is_double_doubleIT_EE5valueEiE4typeELi0EEEvS5_NS0_12format_specsERNS1_6bufferIcEE
PUBLIC 3e5f4 0 fmt::v11::detail::format_float<double>(double, int, fmt::v11::detail::float_specs, fmt::v11::detail::buffer<char>&)
PUBLIC 3ef94 0 fmt::v11::detail::write_int<fmt::v11::basic_appender<char>, unsigned long, char>(fmt::v11::basic_appender<char>, unsigned long, unsigned int, fmt::v11::format_specs const&, fmt::v11::detail::digit_grouping<char> const&)
PUBLIC 3f510 0 fmt::v11::detail::write_int<fmt::v11::basic_appender<char>, unsigned __int128, char>(fmt::v11::basic_appender<char>, unsigned __int128, unsigned int, fmt::v11::format_specs const&, fmt::v11::detail::digit_grouping<char> const&)
PUBLIC 3fb90 0 <.plt ELF section in cdc.level_thumbnails.android64.so>
STACK CFI INIT 1bfa0 10 .cfa: sp 0 +
STACK CFI INIT 1bfb0 8 .cfa: sp 0 +
STACK CFI INIT 1bfb8 8 .cfa: sp 0 +
STACK CFI INIT 1bfc0 14 .cfa: sp 0 +
STACK CFI INIT 1bfd4 1c .cfa: sp 0 +
STACK CFI INIT 1bff0 10 .cfa: sp 0 +
STACK CFI INIT 1c000 30 .cfa: sp 0 +
STACK CFI INIT 1c030 98 .cfa: sp 0 +
STACK CFI INIT 1c0c8 59c .cfa: sp 0 +
STACK CFI INIT 1c664 8c .cfa: sp 0 +
STACK CFI INIT 1c6f0 30 .cfa: sp 0 +
STACK CFI INIT 1c9a0 10 .cfa: sp 0 +
STACK CFI 1c9a4 .cfa: sp 16 +
STACK CFI 1c9a8 .cfa: x29 16 + .ra: .cfa -8 + ^ x29: .cfa -16 + ^
STACK CFI INIT 1c9b0 104 .cfa: sp 0 +
STACK CFI 1c9b4 .cfa: sp 64 +
STACK CFI 1c9c4 .cfa: x29 64 + x19: .cfa -8 + ^ x20: .cfa -16 + ^ x21: .cfa -24 + ^ x22: .cfa -32 + ^ x23: .cfa -48 + ^ .ra: .cfa -56 + ^ x29: .cfa -64 + ^
STACK CFI 1ca20 .cfa: sp 64 +
STACK CFI 1ca30 .cfa: sp 0 +
STACK CFI 1ca34 .cfa: x29 64 +
STACK CFI 1ca50 .cfa: sp 64 +
STACK CFI 1ca60 .cfa: sp 0 +
STACK CFI 1ca64 .cfa: x29 64 +
STACK CFI 1caa0 .cfa: sp 64 +
STACK CFI 1cab0 .cfa: sp 0 +
STACK CFI INIT 1e19c 50 .cfa: sp 0 +
STACK CFI 1e1a0 .cfa: sp 32 +
STACK CFI 1e1a8 .cfa: x29 32 + x19: .cfa -16 + ^ .ra: .cfa -24 + ^ x29: .cfa -32 + ^
STACK CFI 1e1c0 .cfa: sp 32 +
STACK CFI 1e1c8 .cfa: sp 0 +
STACK CFI 1e1cc .cfa: x29 32 +
STACK CFI 1e1e0 .cfa: sp 32 +
STACK CFI 1e1e8 .cfa: sp 0 +
STACK CFI INIT 1ed24 1c .cfa: sp 0 +
STACK CFI 1ed28 .cfa: sp 16 +
STACK CFI 1ed2c .cfa: x29 16 + .ra: .cfa -8 + ^ x29: .cfa -16 + ^
STACK CFI 1ed38 .cfa: sp 16 +
STACK CFI 1ed3c .cfa: sp 0 +
STACK CFI INIT 1ef9c 8 .cfa: sp 0 +
STACK CFI INIT 1f2a8 8 .cfa: sp 0 +
STACK CFI INIT 1f2b0 8 .cfa: sp 0 +
STACK CFI INIT 1f43c 24 .cfa: sp 0 +
STACK CFI 1f440 .cfa: sp 32 +
STACK CFI 1f448 .cfa: x29 32 + x19: .cfa -16 + ^ .ra: .cfa -24 + ^ x29: .cfa -32 + ^
STACK CFI 1f454 .cfa: sp 32 +
STACK CFI 1f45c .cfa: sp 0 +
STACK CFI INIT 1f460 2c .cfa: sp 0 +
STACK CFI 1f464 .cfa: sp 32 +
STACK CFI 1f46c .cfa: x29 32 + x19: .cfa -16 + ^ .ra: .cfa -24 + ^ x29: .cfa -32 + ^
STACK CFI 1f480 .cfa: sp 32 +
STACK CFI 1f488 .cfa: sp 0 +
STACK CFI INIT 1f48c 28 .cfa: sp 0 +
STACK CFI INIT 1f4b4 4 .cfa: sp 0 +
STACK CFI INIT 1f4b8 8 .cfa: sp 0 +
STACK CFI INIT 1f608 8 .cfa: sp 0 +
STACK CFI INIT 1f610 28 .cfa: sp 0 +
STACK CFI 1f614 .cfa: sp 32 +
STACK CFI 1f61c .cfa: x29 32 + x19: .cfa -16 + ^ .ra: .cfa -24 + ^ x29: .cfa -32 + ^
STACK CFI 1f62c .cfa: sp 32 +
STACK CFI 1f634 .cfa: sp 0 +
STACK CFI INIT 1f638 2c .cfa: sp 0 +
STACK CFI INIT 1f664 4 .cfa: sp 0 +
STACK CFI INIT 1f668 4 .cfa: sp 0 +
STACK CFI INIT 1f66c 4 .cfa: sp 0 +
STACK CFI INIT 1f670 4 .cfa: sp 0 +
STACK CFI INIT 1f674 4 .cfa: sp 0 +
STACK CFI INIT 1f678 8 .cfa: sp 0 +
STACK CFI INIT 1fb00 1c .cfa: sp 0 +
STACK CFI INIT 1fb1c 14 .cfa: sp 0 +
STACK CFI 1fb20 .cfa: sp 16 +
STACK CFI 1fb24 .cfa: x29 16 + .ra: .cfa -8 + ^ x29: .cfa -16 + ^
STACK CFI INIT 1fb80 30 .cfa: sp 0 +
STACK CFI 1fb84 .cfa: sp 32 +
STACK CFI 1fb8c .cfa: x29 32 + x19: .cfa -16 + ^ .ra: .cfa -24 + ^ x29: .cfa -32 + ^
STACK CFI 1fba4 .cfa: sp 32 +
STACK CFI 1fbac .cfa: sp 0 +
STACK CFI INIT 1fbb0 34 .cfa: sp 0 +
STACK CFI 1fbb4 .cfa: sp 32 +
STACK CFI 1fbbc .cfa: x29 32 + x19: .cfa -16 + ^ .ra: .cfa -24 + ^ x29: .cfa -32 + ^
STACK CFI INIT 1fbe4 24 .cfa: sp 0 +
STACK CFI 1fbe8 .cfa: sp 32 +
STACK CFI 1fbf0 .cfa: x29 32 + x19: .cfa -16 + ^ .ra: .cfa -24 + ^ x29: .cfa -32 + ^
STACK CFI 1fbfc .cfa: sp 32 +
STACK CFI 1fc04 .cfa: sp 0 +
STACK CFI INIT 1fc08 18 .cfa: sp 0 +
STACK CFI INIT 1fc20 4 .cfa: sp 0 +
STACK CFI INIT 1fc24 9c .cfa: sp 0 +
STACK CFI 1fc28 .cfa: sp 32 +
STACK CFI 1fc30 .cfa: x29 32 + x19: .cfa -8 + ^ x20: .cfa -16 + ^ .ra: .cfa -24 + ^ x29: .cfa -32 + ^
STACK CFI 1fcb4 .cfa: sp 32 +
STACK CFI 1fcbc .cfa: sp 0 +
STACK CFI INIT 1fd9c 4 .cfa: sp 0 +
STACK CFI INIT 1fe0c 4 .cfa: sp 0 +
STACK CFI INIT 2002c 4 .cfa: sp 0 +
STACK CFI INIT 201fc a4 .cfa: sp 0 +
STACK CFI 20200 .cfa: sp 32 +
STACK CFI 20208 .cfa: x29 32 + x19: .cfa -8 + ^ x20: .cfa -16 + ^ .ra: .cfa -24 + ^ x29: .cfa -32 + ^
STACK CFI 20294 .cfa: sp 32 +
STACK CFI 2029c .cfa: sp 0 +
STACK CFI INIT 202a0 50 .cfa: sp 0 +
STACK CFI 202a4 .cfa: sp 32 +
STACK CFI 202ac .cfa: x29 32 + x19: .cfa -16 + ^ .ra: .cfa -24 + ^ x29: .cfa -32 + ^
STACK CFI 202c4 .cfa: sp 32 +
STACK CFI 202cc .cfa: sp 0 +
STACK CFI 202d0 .cfa: x29 32 +
STACK CFI 202e4 .cfa: sp 32 +
STACK CFI 202ec .cfa: sp 0 +
STACK CFI INIT 202f0 50 .cfa: sp 0 +
STACK CFI 202f4 .cfa: sp 32 +
STACK CFI 202fc .cfa: x29 32 + x19: .cfa -16 + ^ .ra: .cfa -24 + ^ x29: .cfa -32 + ^
STACK CFI 20314 .cfa: sp 32 +
STACK CFI 2031c .cfa: sp 0 +
STACK CFI 20320 .cfa: x29 32 +
STACK CFI 20334 .cfa: sp 32 +
STACK CFI 2033c .cfa: sp 0 +
STACK CFI INIT 20340 5c .cfa: sp 0 +
STACK CFI 20344 .cfa: sp 32 +
STACK CFI 2034c .cfa: x29 32 + x19: .cfa -16 + ^ .ra: .cfa -24 + ^ x29: .cfa -32 + ^
STACK CFI 20370 .cfa: sp 32 +
STACK CFI 20378 .cfa: sp 0 +
STACK CFI 2037c .cfa: x29 32 +
STACK CFI 20390 .cfa: sp 32 +
STACK CFI 20398 .cfa: sp 0 +
STACK CFI INIT 2039c 6c .cfa: sp 0 +
STACK CFI 203a0 .cfa: sp 32 +
STACK CFI 203a8 .cfa: x29 32 + x19: .cfa -8 + ^ x20: .cfa -16 + ^ .ra: .cfa -24 + ^ x29: .cfa -32 + ^
STACK CFI 203d4 .cfa: sp 32 +
STACK CFI 203dc .cfa: sp 0 +
STACK CFI 203e0 .cfa: x29 32 +
STACK CFI 203fc .cfa: sp 32 +
STACK CFI 20404 .cfa: sp 0 +
STACK CFI INIT 20408 58 .cfa: sp 0 +
STACK CFI 2040c .cfa: sp 32 +
STACK CFI 20414 .cfa: x29 32 + x19: .cfa -8 + ^ x20: .cfa -16 + ^ .ra: .cfa -24 + ^ x29: .cfa -32 + ^
STACK CFI 20454 .cfa: sp 32 +
STACK CFI 2045c .cfa: sp 0 +
STACK CFI INIT 20460 4c .cfa: sp 0 +
STACK CFI 20464 .cfa: sp 32 +
STACK CFI 2046c .cfa: x29 32 + x19: .cfa -8 + ^ x20: .cfa -16 + ^ .ra: .cfa -24 + ^ x29: .cfa -32 + ^
STACK CFI 204a0 .cfa: sp 32 +
STACK CFI 204a8 .cfa: sp 0 +
STACK CFI INIT 204ac 50 .cfa: sp 0 +
STACK CFI 204b0 .cfa: sp 32 +
STACK CFI 204b8 .cfa: x29 32 + x19: .cfa -16 + ^ .ra: .cfa -24 + ^ x29: .cfa -32 + ^
STACK CFI 204d0 .cfa: sp 32 +
STACK CFI 204d8 .cfa: sp 0 +
STACK CFI 204dc .cfa: x29 32 +
STACK CFI 204f0 .cfa: sp 32 +
STACK CFI 204f8 .cfa: sp 0 +
STACK CFI INIT 204fc 60 .cfa: sp 0 +
STACK CFI 20500 .cfa: sp 32 +
STACK CFI 20508 .cfa: x29 32 + x19: .cfa -8 + ^ x20: .cfa -16 + ^ .ra: .cfa -24 + ^ x29: .cfa -32 + ^
STACK CFI 20528 .cfa: sp 32 +
STACK CFI 20530 .cfa: sp 0 +
STACK CFI 20534 .cfa: x29 32 +
STACK CFI 20550 .cfa: sp 32 +
STACK CFI 20558 .cfa: sp 0 +
STACK CFI INIT 2055c 8 .cfa: sp 0 +
STACK CFI INIT 20564 1c .cfa: sp 0 +
STACK CFI INIT 20580 c .cfa: sp 0 +
STACK CFI INIT 2075c 60 .cfa: sp 0 +
STACK CFI 20760 .cfa: sp 32 +
STACK CFI 20768 .cfa: x29 32 + x19: .cfa -8 + ^ x20: .cfa -16 + ^ .ra: .cfa -24 + ^ x29: .cfa -32 + ^
STACK CFI 20788 .cfa: sp 32 +
STACK CFI 20790 .cfa: sp 0 +
STACK CFI 20794 .cfa: x29 32 +
STACK CFI 207b0 .cfa: sp 32 +
STACK CFI 207b8 .cfa: sp 0 +
STACK CFI INIT 207bc 70 .cfa: sp 0 +
STACK CFI 207c0 .cfa: sp 32 +
STACK CFI 207c8 .cfa: x29 32 + x19: .cfa -8 + ^ x20: .cfa -16 + ^ .ra: .cfa -24 + ^ x29: .cfa -32 + ^
STACK CFI 207f0 .cfa: sp 32 +
STACK CFI 207f8 .cfa: sp 0 +
STACK CFI 207fc .cfa: x29 32 +
STACK CFI 20820 .cfa: sp 32 +
STACK CFI 20828 .cfa: sp 0 +
STACK CFI INIT 2082c 5c .cfa: sp 0 +
STACK CFI 20830 .cfa: sp 32 +
STACK CFI 20838 .cfa: x29 32 + x19: .cfa -16 + ^ .ra: .cfa -24 + ^ x29: .cfa -32 + ^
STACK CFI 2085c .cfa: sp 32 +
STACK CFI 20864 .cfa: sp 0 +
STACK CFI 20868 .cfa: x29 32 +
STACK CFI 2087c .cfa: sp 32 +
STACK CFI 20884 .cfa: sp 0 +
STACK CFI INIT 20888 6c .cfa: sp 0 +
STACK CFI 2088c .cfa: sp 32 +
STACK CFI 20894 .cfa: x29 32 + x19: .cfa -8 + ^ x20: .cfa -16 + ^ .ra: .cfa -24 + ^ x29: .cfa -32 + ^
STACK CFI 208c0 .cfa: sp 32 +
STACK CFI 208c8 .cfa: sp 0 +
STACK CFI 208cc .cfa: x29 32 +
STACK CFI 208e8 .cfa: sp 32 +
STACK CFI 208f0 .cfa: sp 0 +
STACK CFI INIT 208f4 58 .cfa: sp 0 +
STACK CFI 208f8 .cfa: sp 32 +
STACK CFI 20900 .cfa: x29 32 + x19: .cfa -8 + ^ x20: .cfa -16 + ^ .ra: .cfa -24 + ^ x29: .cfa -32 + ^
STACK CFI 20940 .cfa: sp 32 +
STACK CFI 20948 .cfa: sp 0 +
STACK CFI INIT 2094c 4c .cfa: sp 0 +
STACK CFI 20950 .cfa: sp 32 +
STACK CFI 20958 .cfa: x29 32 + x19: .cfa -8 + ^ x20: .cfa -16 + ^ .ra: .cfa -24 + ^ x29: .cfa -32 + ^
STACK CFI 2098c .cfa: sp 32 +
STACK CFI 20994 .cfa: sp 0 +
STACK CFI INIT 20998 50 .cfa: sp 0 +
STACK CFI 2099c .cfa: sp 32 +
STACK CFI 209a4 .cfa: x29 32 + x19: .cfa -16 + ^ .ra: .cfa -24 + ^ x29: .cfa -32 + ^
STACK CFI 209bc .cfa: sp 32 +
STACK CFI 209c4 .cfa: sp 0 +
STACK CFI 209c8 .cfa: x29 32 +
STACK CFI 209dc .cfa: sp 32 +
STACK CFI 209e4 .cfa: sp 0 +
STACK CFI INIT 209e8 60 .cfa: sp 0 +
STACK CFI 209ec .cfa: sp 32 +
STACK CFI 209f4 .cfa: x29 32 + x19: .cfa -8 + ^ x20: .cfa -16 + ^ .ra: .cfa -24 + ^ x29: .cfa -32 + ^
STACK CFI 20a14 .cfa: sp 32 +
STACK CFI 20a1c .cfa: sp 0 +
STACK CFI 20a20 .cfa: x29 32 +
STACK CFI 20a3c .cfa: sp 32 +
STACK CFI 20a44 .cfa: sp 0 +
STACK CFI INIT 20a48 8 .cfa: sp 0 +
STACK CFI INIT 20a50 1c .cfa: sp 0 +
STACK CFI INIT 20a6c c .cfa: sp 0 +
STACK CFI INIT 20c3c 34 .cfa: sp 0 +
STACK CFI 20c40 .cfa: sp 16 +
STACK CFI 20c44 .cfa: x29 16 + .ra: .cfa -8 + ^ x29: .cfa -16 + ^
STACK CFI INIT 20c70 24 .cfa: sp 0 +
STACK CFI 20c74 .cfa: sp 32 +
STACK CFI 20c7c .cfa: x29 32 + x19: .cfa -16 + ^ .ra: .cfa -24 + ^ x29: .cfa -32 + ^
STACK CFI 20c88 .cfa: sp 32 +
STACK CFI 20c90 .cfa: sp 0 +
STACK CFI INIT 20c94 4 .cfa: sp 0 +
STACK CFI INIT 20c98 34 .cfa: sp 0 +
STACK CFI 20c9c .cfa: sp 32 +
STACK CFI 20ca4 .cfa: x29 32 + x19: .cfa -16 + ^ .ra: .cfa -24 + ^ x29: .cfa -32 + ^
STACK CFI 20cc0 .cfa: sp 32 +
STACK CFI 20cc8 .cfa: sp 0 +
STACK CFI INIT 20ccc 14 .cfa: sp 0 +
STACK CFI INIT 20ce0 4 .cfa: sp 0 +
STACK CFI INIT 20ce4 4 .cfa: sp 0 +
STACK CFI INIT 20ce8 30 .cfa: sp 0 +
STACK CFI 20cf4 .cfa: sp 16 +
STACK CFI 20cf8 .cfa: x29 16 + .ra: .cfa -8 + ^ x29: .cfa -16 + ^
STACK CFI 20d0c .cfa: sp 16 +
STACK CFI 20d10 .cfa: sp 0 +
STACK CFI INIT 20d18 1c .cfa: sp 0 +
STACK CFI INIT 20d34 c .cfa: sp 0 +
STACK CFI INIT 20d40 4 .cfa: sp 0 +
STACK CFI INIT 20d44 4 .cfa: sp 0 +
STACK CFI INIT 20d48 34 .cfa: sp 0 +
STACK CFI 20d4c .cfa: sp 32 +
STACK CFI 20d54 .cfa: x29 32 + x19: .cfa -16 + ^ .ra: .cfa -24 + ^ x29: .cfa -32 + ^
STACK CFI 20d70 .cfa: sp 32 +
STACK CFI 20d78 .cfa: sp 0 +
STACK CFI INIT 20d7c 14 .cfa: sp 0 +
STACK CFI INIT 20d90 4 .cfa: sp 0 +
STACK CFI INIT 20d94 4 .cfa: sp 0 +
STACK CFI INIT 20d98 30 .cfa: sp 0 +
STACK CFI 20da4 .cfa: sp 16 +
STACK CFI 20da8 .cfa: x29 16 + .ra: .cfa -8 + ^ x29: .cfa -16 + ^
STACK CFI 20dbc .cfa: sp 16 +
STACK CFI 20dc0 .cfa: sp 0 +
STACK CFI INIT 20dc8 1c .cfa: sp 0 +
STACK CFI INIT 20de4 c .cfa: sp 0 +
STACK CFI INIT 20f88 4 .cfa: sp 0 +
STACK CFI INIT 20f8c 4 .cfa: sp 0 +
STACK CFI INIT 20f90 34 .cfa: sp 0 +
STACK CFI 20f94 .cfa: sp 32 +
STACK CFI 20f9c .cfa: x29 32 + x19: .cfa -16 + ^ .ra: .cfa -24 + ^ x29: .cfa -32 + ^
STACK CFI 20fb8 .cfa: sp 32 +
STACK CFI 20fc0 .cfa: sp 0 +
STACK CFI INIT 20fc4 14 .cfa: sp 0 +
STACK CFI INIT 20fd8 4 .cfa: sp 0 +
STACK CFI INIT 20fdc 4 .cfa: sp 0 +
STACK CFI INIT 21370 1c .cfa: sp 0 +
STACK CFI INIT 2138c c .cfa: sp 0 +
STACK CFI INIT 21398 34 .cfa: sp 0 +
STACK CFI 2139c .cfa: sp 16 +
STACK CFI 213a0 .cfa: x29 16 + .ra: .cfa -8 + ^ x29: .cfa -16 + ^
STACK CFI INIT 213cc 14 .cfa: sp 0 +
STACK CFI 213d0 .cfa: sp 16 +
STACK CFI 213d4 .cfa: x29 16 + .ra: .cfa -8 + ^ x29: .cfa -16 + ^
STACK CFI INIT 21590 60 .cfa: sp 0 +
STACK CFI 21594 .cfa: sp 32 +
STACK CFI 2159c .cfa: x29 32 + x19: .cfa -8 + ^ x20: .cfa -16 + ^ .ra: .cfa -24 + ^ x29: .cfa -32 + ^
STACK CFI 215d8 .cfa: sp 32 +
STACK CFI 215e0 .cfa: sp 0 +
STACK CFI 215e4 .cfa: sp 32 +
STACK CFI 215ec .cfa: sp 0 +
STACK CFI INIT 215f0 3c .cfa: sp 0 +
STACK CFI 215f4 .cfa: sp 32 +
STACK CFI 215fc .cfa: x29 32 + x19: .cfa -16 + ^ .ra: .cfa -24 + ^ x29: .cfa -32 + ^
STACK CFI 21614 .cfa: sp 32 +
STACK CFI 2161c .cfa: sp 0 +
STACK CFI 21620 .cfa: sp 32 +
STACK CFI 21628 .cfa: sp 0 +
STACK CFI INIT 2162c 4 .cfa: sp 0 +
STACK CFI INIT 21630 4 .cfa: sp 0 +
STACK CFI INIT 21634 34 .cfa: sp 0 +
STACK CFI 21638 .cfa: sp 32 +
STACK CFI 21640 .cfa: x29 32 + x19: .cfa -16 + ^ .ra: .cfa -24 + ^ x29: .cfa -32 + ^
STACK CFI 2165c .cfa: sp 32 +
STACK CFI 21664 .cfa: sp 0 +
STACK CFI INIT 21668 14 .cfa: sp 0 +
STACK CFI INIT 2167c 4 .cfa: sp 0 +
STACK CFI INIT 21680 4 .cfa: sp 0 +
STACK CFI INIT 2189c 1c .cfa: sp 0 +
STACK CFI INIT 218b8 c .cfa: sp 0 +
STACK CFI INIT 218c4 128 .cfa: sp 0 +
STACK CFI 218c8 .cfa: sp 128 +
STACK CFI 218dc .cfa: x29 64 + x19: .cfa -8 + ^ x20: .cfa -16 + ^ x21: .cfa -24 + ^ x22: .cfa -32 + ^ x23: .cfa -48 + ^ .ra: .cfa -56 + ^ x29: .cfa -64 + ^
STACK CFI 219d0 .cfa: sp 128 +
STACK CFI 219e4 .cfa: sp 0 +
STACK CFI 219e8 .cfa: x29 64 +
STACK CFI INIT 21cac 1d8 .cfa: sp 0 +
STACK CFI 21cb0 .cfa: sp 16 +
STACK CFI 21cb4 .cfa: x29 16 + .ra: .cfa -8 + ^ x29: .cfa -16 + ^
STACK CFI 21df4 .cfa: sp 16 +
STACK CFI 21df8 .cfa: sp 0 +
STACK CFI 21dfc .cfa: x29 16 +
STACK CFI INIT 21e84 1a4 .cfa: sp 0 +
STACK CFI 21e88 .cfa: sp 64 +
STACK CFI 21e94 .cfa: x29 32 + x19: .cfa -8 + ^ x20: .cfa -16 + ^ .ra: .cfa -24 + ^ x29: .cfa -32 + ^
STACK CFI 21fc0 .cfa: sp 64 +
STACK CFI 21fcc .cfa: sp 0 +
STACK CFI 21fd0 .cfa: x29 32 +
STACK CFI INIT 22028 194 .cfa: sp 0 +
STACK CFI 2202c .cfa: sp 16 +
STACK CFI 22030 .cfa: x29 16 + .ra: .cfa -8 + ^ x29: .cfa -16 + ^
STACK CFI 220c8 .cfa: sp 16 +
STACK CFI 220cc .cfa: sp 0 +
STACK CFI 220d0 .cfa: x29 16 +
STACK CFI 2219c .cfa: sp 16 +
STACK CFI 221a0 .cfa: sp 0 +
STACK CFI 221a4 .cfa: x29 16 +
STACK CFI INIT 221bc 114 .cfa: sp 0 +
STACK CFI 221c0 .cfa: sp 128 +
STACK CFI 221d0 .cfa: x29 48 + x19: .cfa -8 + ^ x20: .cfa -16 + ^ x21: .cfa -32 + ^ .ra: .cfa -40 + ^ x29: .cfa -48 + ^
STACK CFI 2229c .cfa: sp 128 +
STACK CFI 222ac .cfa: sp 0 +
STACK CFI 222b0 .cfa: x29 48 +
STACK CFI INIT 222d0 27c .cfa: sp 0 +
STACK CFI 222d4 .cfa: sp 176 +
STACK CFI 222f0 .cfa: x29 96 + x19: .cfa -8 + ^ x20: .cfa -16 + ^ x21: .cfa -24 + ^ x22: .cfa -32 + ^ x23: .cfa -40 + ^ x24: .cfa -48 + ^ x25: .cfa -56 + ^ x26: .cfa -64 + ^ x27: .cfa -72 + ^ x28: .cfa -80 + ^ .ra: .cfa -88 + ^ x29: .cfa -96 + ^
STACK CFI 22528 .cfa: sp 176 +
STACK CFI 22544 .cfa: sp 0 +
STACK CFI 22548 .cfa: x29 96 +
STACK CFI INIT 2254c 80 .cfa: sp 0 +
STACK CFI 22550 .cfa: sp 48 +
STACK CFI 2255c .cfa: x29 48 + x19: .cfa -8 + ^ x20: .cfa -16 + ^ x21: .cfa -24 + ^ x22: .cfa -32 + ^ .ra: .cfa -40 + ^ x29: .cfa -48 + ^
STACK CFI 22574 .cfa: sp 48 +
STACK CFI 22580 .cfa: sp 0 +
STACK CFI 22584 .cfa: x29 48 +
STACK CFI 225b4 .cfa: sp 48 +
STACK CFI 225c0 .cfa: sp 0 +
STACK CFI 225c4 .cfa: x29 48 +
STACK CFI INIT 225cc 94 .cfa: sp 0 +
STACK CFI 225d0 .cfa: sp 16 +
STACK CFI 225d4 .cfa: x29 16 + .ra: .cfa -8 + ^ x29: .cfa -16 + ^
STACK CFI 22628 .cfa: sp 16 +
STACK CFI 2262c .cfa: sp 0 +
STACK CFI 22630 .cfa: x29 16 +
STACK CFI INIT 22660 158 .cfa: sp 0 +
STACK CFI 22664 .cfa: sp 112 +
STACK CFI 22680 .cfa: x29 96 + x19: .cfa -8 + ^ x20: .cfa -16 + ^ x21: .cfa -24 + ^ x22: .cfa -32 + ^ x23: .cfa -40 + ^ x24: .cfa -48 + ^ x25: .cfa -56 + ^ x26: .cfa -64 + ^ x27: .cfa -72 + ^ x28: .cfa -80 + ^ .ra: .cfa -88 + ^ x29: .cfa -96 + ^
STACK CFI 22768 .cfa: sp 112 +
STACK CFI 2276c .cfa: x29 96 +
STACK CFI 22774 .cfa: sp 112 +
STACK CFI 22790 .cfa: sp 0 +
STACK CFI 22794 .cfa: x29 96 +
STACK CFI 227b4 .cfa: sp 112 +
STACK CFI INIT 227b8 520 .cfa: sp 0 +
STACK CFI 227bc .cfa: sp 176 +
STACK CFI 227d8 .cfa: x29 96 + x19: .cfa -8 + ^ x20: .cfa -16 + ^ x21: .cfa -24 + ^ x22: .cfa -32 + ^ x23: .cfa -40 + ^ x24: .cfa -48 + ^ x25: .cfa -56 + ^ x26: .cfa -64 + ^ x27: .cfa -72 + ^ x28: .cfa -80 + ^ .ra: .cfa -88 + ^ x29: .cfa -96 + ^
STACK CFI 22cb4 .cfa: sp 176 +
STACK CFI 22cd0 .cfa: sp 0 +
STACK CFI 22cd4 .cfa: x29 96 +
STACK CFI INIT 22cd8 20c .cfa: sp 0 +
STACK CFI 22cdc .cfa: sp 80 +
STACK CFI 22cf0 .cfa: x29 80 + x19: .cfa -8 + ^ x20: .cfa -16 + ^ x21: .cfa -24 + ^ x22: .cfa -32 + ^ x23: .cfa -40 + ^ x24: .cfa -48 + ^ x25: .cfa -64 + ^ .ra: .cfa -72 + ^ x29: .cfa -80 + ^
STACK CFI 22d80 .cfa: sp 80 +
STACK CFI 22d94 .cfa: sp 0 +
STACK CFI 22d98 .cfa: x29 80 +
STACK CFI 22da4 .cfa: sp 80 +
STACK CFI 22db8 .cfa: sp 0 +
STACK CFI 22dbc .cfa: x29 80 +
STACK CFI INIT 22ee4 428 .cfa: sp 0 +
STACK CFI 22ee8 .cfa: sp 128 +
STACK CFI 22f04 .cfa: x29 96 + x19: .cfa -8 + ^ x20: .cfa -16 + ^ x21: .cfa -24 + ^ x22: .cfa -32 + ^ x23: .cfa -40 + ^ x24: .cfa -48 + ^ x25: .cfa -56 + ^ x26: .cfa -64 + ^ x27: .cfa -72 + ^ x28: .cfa -80 + ^ .ra: .cfa -88 + ^ x29: .cfa -96 + ^
STACK CFI 232e8 .cfa: sp 128 +
STACK CFI 23304 .cfa: sp 0 +
STACK CFI 23308 .cfa: x29 96 +
STACK CFI INIT 2330c 194 .cfa: sp 0 +
STACK CFI 23310 .cfa: sp 32 +
STACK CFI 23318 .cfa: x29 16 + .ra: .cfa -8 + ^ x29: .cfa -16 + ^
STACK CFI 2335c .cfa: sp 32 +
STACK CFI 23364 .cfa: sp 0 +
STACK CFI 23368 .cfa: x29 16 +
STACK CFI INIT 234a0 1b8 .cfa: sp 0 +
STACK CFI INIT 23658 1d0 .cfa: sp 0 +
STACK CFI 2365c .cfa: sp 80 +
STACK CFI 23670 .cfa: x29 80 + x19: .cfa -8 + ^ x20: .cfa -16 + ^ x21: .cfa -24 + ^ x22: .cfa -32 + ^ x23: .cfa -40 + ^ x24: .cfa -48 + ^ x25: .cfa -64 + ^ .ra: .cfa -72 + ^ x29: .cfa -80 + ^
STACK CFI 23810 .cfa: sp 80 +
STACK CFI 23824 .cfa: sp 0 +
STACK CFI INIT 23828 67c .cfa: sp 0 +
STACK CFI 2382c .cfa: sp 176 +
STACK CFI 23848 .cfa: x29 96 + x19: .cfa -8 + ^ x20: .cfa -16 + ^ x21: .cfa -24 + ^ x22: .cfa -32 + ^ x23: .cfa -40 + ^ x24: .cfa -48 + ^ x25: .cfa -56 + ^ x26: .cfa -64 + ^ x27: .cfa -72 + ^ x28: .cfa -80 + ^ .ra: .cfa -88 + ^ x29: .cfa -96 + ^
STACK CFI 23e80 .cfa: sp 176 +
STACK CFI 23e9c .cfa: sp 0 +
STACK CFI 23ea0 .cfa: x29 96 +
STACK CFI INIT 23ea4 1e4 .cfa: sp 0 +
STACK CFI 23ea8 .cfa: sp 32 +
STACK CFI 23eb0 .cfa: x29 32 + x19: .cfa -8 + ^ x20: .cfa -16 + ^ .ra: .cfa -24 + ^ x29: .cfa -32 + ^
STACK CFI 23fa0 .cfa: sp 32 +
STACK CFI 23fa8 .cfa: sp 0 +
STACK CFI 23fac .cfa: x29 32 +
STACK CFI 24020 .cfa: sp 32 +
STACK CFI 24028 .cfa: sp 0 +
STACK CFI 2402c .cfa: x29 32 +
STACK CFI 2403c .cfa: sp 32 +
STACK CFI 24044 .cfa: sp 0 +
STACK CFI 24048 .cfa: x29 32 +
STACK CFI 24058 .cfa: sp 32 +
STACK CFI 24060 .cfa: sp 0 +
STACK CFI 24064 .cfa: x29 32 +
STACK CFI INIT 24088 178 .cfa: sp 0 +
STACK CFI 2408c .cfa: sp 80 +
STACK CFI 240a0 .cfa: x29 64 + x19: .cfa -8 + ^ x20: .cfa -16 + ^ x21: .cfa -24 + ^ x22: .cfa -32 + ^ x23: .cfa -40 + ^ x24: .cfa -48 + ^ .ra: .cfa -56 + ^ x29: .cfa -64 + ^
STACK CFI 241e4 .cfa: sp 80 +
STACK CFI 241f8 .cfa: sp 0 +
STACK CFI 241fc .cfa: x29 64 +
STACK CFI INIT 24200 178 .cfa: sp 0 +
STACK CFI 24204 .cfa: sp 80 +
STACK CFI 24218 .cfa: x29 64 + x19: .cfa -8 + ^ x20: .cfa -16 + ^ x21: .cfa -24 + ^ x22: .cfa -32 + ^ x23: .cfa -40 + ^ x24: .cfa -48 + ^ .ra: .cfa -56 + ^ x29: .cfa -64 + ^
STACK CFI 2435c .cfa: sp 80 +
STACK CFI 24370 .cfa: sp 0 +
STACK CFI 24374 .cfa: x29 64 +
STACK CFI INIT 24378 178 .cfa: sp 0 +
STACK CFI 2437c .cfa: sp 80 +
STACK CFI 24390 .cfa: x29 64 + x19: .cfa -8 + ^ x20: .cfa -16 + ^ x21: .cfa -24 + ^ x22: .cfa -32 + ^ x23: .cfa -40 + ^ x24: .cfa -48 + ^ .ra: .cfa -56 + ^ x29: .cfa -64 + ^
STACK CFI 244d4 .cfa: sp 80 +
STACK CFI 244e8 .cfa: sp 0 +
STACK CFI 244ec .cfa: x29 64 +
STACK CFI INIT 244f0 78 .cfa: sp 0 +
STACK CFI 244f4 .cfa: sp 48 +
STACK CFI 24500 .cfa: x29 48 + x19: .cfa -8 + ^ x20: .cfa -16 + ^ x21: .cfa -24 + ^ x22: .cfa -32 + ^ .ra: .cfa -40 + ^ x29: .cfa -48 + ^
STACK CFI 24548 .cfa: sp 48 +
STACK CFI 24554 .cfa: sp 0 +
STACK CFI 24558 .cfa: sp 48 +
STACK CFI 24564 .cfa: sp 0 +
STACK CFI INIT 24568 67c .cfa: sp 0 +
STACK CFI 2456c .cfa: sp 176 +
STACK CFI 24588 .cfa: x29 96 + x19: .cfa -8 + ^ x20: .cfa -16 + ^ x21: .cfa -24 + ^ x22: .cfa -32 + ^ x23: .cfa -40 + ^ x24: .cfa -48 + ^ x25: .cfa -56 + ^ x26: .cfa -64 + ^ x27: .cfa -72 + ^ x28: .cfa -80 + ^ .ra: .cfa -88 + ^ x29: .cfa -96 + ^
STACK CFI 24bc0 .cfa: sp 176 +
STACK CFI 24bdc .cfa: sp 0 +
STACK CFI 24be0 .cfa: x29 96 +
STACK CFI INIT 24be4 1e4 .cfa: sp 0 +
STACK CFI 24be8 .cfa: sp 32 +
STACK CFI 24bf0 .cfa: x29 32 + x19: .cfa -8 + ^ x20: .cfa -16 + ^ .ra: .cfa -24 + ^ x29: .cfa -32 + ^
STACK CFI 24ce0 .cfa: sp 32 +
STACK CFI 24ce8 .cfa: sp 0 +
STACK CFI 24cec .cfa: x29 32 +
STACK CFI 24d60 .cfa: sp 32 +
STACK CFI 24d68 .cfa: sp 0 +
STACK CFI 24d6c .cfa: x29 32 +
STACK CFI 24d7c .cfa: sp 32 +
STACK CFI 24d84 .cfa: sp 0 +
STACK CFI 24d88 .cfa: x29 32 +
STACK CFI 24d98 .cfa: sp 32 +
STACK CFI 24da0 .cfa: sp 0 +
STACK CFI 24da4 .cfa: x29 32 +
STACK CFI INIT 24dc8 178 .cfa: sp 0 +
STACK CFI 24dcc .cfa: sp 80 +
STACK CFI 24de0 .cfa: x29 64 + x19: .cfa -8 + ^ x20: .cfa -16 + ^ x21: .cfa -24 + ^ x22: .cfa -32 + ^ x23: .cfa -40 + ^ x24: .cfa -48 + ^ .ra: .cfa -56 + ^ x29: .cfa -64 + ^
STACK CFI 24f24 .cfa: sp 80 +
STACK CFI 24f38 .cfa: sp 0 +
STACK CFI 24f3c .cfa: x29 64 +
STACK CFI INIT 24f40 178 .cfa: sp 0 +
STACK CFI 24f44 .cfa: sp 80 +
STACK CFI 24f58 .cfa: x29 64 + x19: .cfa -8 + ^ x20: .cfa -16 + ^ x21: .cfa -24 + ^ x22: .cfa -32 + ^ x23: .cfa -40 + ^ x24: .cfa -48 + ^ .ra: .cfa -56 + ^ x29: .cfa -64 + ^
STACK CFI 2509c .cfa: sp 80 +
STACK CFI 250b0 .cfa: sp 0 +
STACK CFI 250b4 .cfa: x29 64 +
STACK CFI INIT 250b8 178 .cfa: sp 0 +
STACK CFI 250bc .cfa: sp 80 +
STACK CFI 250d0 .cfa: x29 64 + x19: .cfa -8 + ^ x20: .cfa -16 + ^ x21: .cfa -24 + ^ x22: .cfa -32 + ^ x23: .cfa -40 + ^ x24: .cfa -48 + ^ .ra: .cfa -56 + ^ x29: .cfa -64 + ^
STACK CFI 25214 .cfa: sp 80 +
STACK CFI 25228 .cfa: sp 0 +
STACK CFI 2522c .cfa: x29 64 +
STACK CFI INIT 25230 314 .cfa: sp 0 +
STACK CFI 25234 .cfa: sp 128 +
STACK CFI 2524c .cfa: x29 64 + x19: .cfa -8 + ^ x20: .cfa -16 + ^ x21: .cfa -24 + ^ x22: .cfa -32 + ^ x23: .cfa -40 + ^ x24: .cfa -48 + ^ .ra: .cfa -56 + ^ x29: .cfa -64 + ^ v8: .cfa -72 + ^ v9: .cfa -80 + ^
STACK CFI 25488 .cfa: sp 128 +
STACK CFI 254a0 .cfa: sp 0 +
STACK CFI 254a4 .cfa: x29 64 +
STACK CFI INIT 25940 50 .cfa: sp 0 +
STACK CFI 25944 .cfa: sp 32 +
STACK CFI 2594c .cfa: x29 32 + x19: .cfa -16 + ^ .ra: .cfa -24 + ^ x29: .cfa -32 + ^
STACK CFI 25964 .cfa: sp 32 +
STACK CFI 2596c .cfa: sp 0 +
STACK CFI 25970 .cfa: x29 32 +
STACK CFI 25984 .cfa: sp 32 +
STACK CFI 2598c .cfa: sp 0 +
STACK CFI INIT 25a04 7c .cfa: sp 0 +
STACK CFI 25a08 .cfa: sp 48 +
STACK CFI 25a14 .cfa: x29 48 + x19: .cfa -8 + ^ x20: .cfa -16 + ^ x21: .cfa -32 + ^ .ra: .cfa -40 + ^ x29: .cfa -48 + ^
STACK CFI 25a60 .cfa: sp 48 +
STACK CFI 25a6c .cfa: sp 0 +
STACK CFI 25a70 .cfa: sp 48 +
STACK CFI 25a7c .cfa: sp 0 +
STACK CFI INIT 25a80 4 .cfa: sp 0 +
STACK CFI INIT 25d04 80 .cfa: sp 0 +
STACK CFI 25d08 .cfa: sp 48 +
STACK CFI 25d14 .cfa: x29 48 + x19: .cfa -8 + ^ x20: .cfa -16 + ^ x21: .cfa -32 + ^ .ra: .cfa -40 + ^ x29: .cfa -48 + ^
STACK CFI 25d74 .cfa: sp 48 +
STACK CFI 25d80 .cfa: sp 0 +
STACK CFI INIT 25d84 24 .cfa: sp 0 +
STACK CFI 25d88 .cfa: sp 32 +
STACK CFI 25d90 .cfa: x29 32 + x19: .cfa -16 + ^ .ra: .cfa -24 + ^ x29: .cfa -32 + ^
STACK CFI 25d9c .cfa: sp 32 +
STACK CFI 25da4 .cfa: sp 0 +
STACK CFI INIT 262a0 148 .cfa: sp 0 +
STACK CFI 262a4 .cfa: sp 48 +
STACK CFI 262b0 .cfa: x29 48 + x19: .cfa -8 + ^ x20: .cfa -16 + ^ x21: .cfa -32 + ^ .ra: .cfa -40 + ^ x29: .cfa -48 + ^
STACK CFI 263d8 .cfa: sp 48 +
STACK CFI 263e4 .cfa: sp 0 +
STACK CFI INIT 26610 68 .cfa: sp 0 +
STACK CFI 26614 .cfa: sp 32 +
STACK CFI 2661c .cfa: x29 32 + x19: .cfa -8 + ^ x20: .cfa -16 + ^ .ra: .cfa -24 + ^ x29: .cfa -32 + ^
STACK CFI 26634 .cfa: sp 32 +
STACK CFI 2663c .cfa: sp 0 +
STACK CFI 26640 .cfa: x29 32 +
STACK CFI 2666c .cfa: sp 32 +
STACK CFI 26674 .cfa: sp 0 +
STACK CFI INIT 26678 14 .cfa: sp 0 +
STACK CFI 2667c .cfa: sp 16 +
STACK CFI 26680 .cfa: x29 16 + .ra: .cfa -8 + ^ x29: .cfa -16 + ^
STACK CFI INIT 2668c 4 .cfa: sp 0 +
STACK CFI INIT 26690 14 .cfa: sp 0 +
STACK CFI INIT 266a4 120 .cfa: sp 0 +
STACK CFI 266a8 .cfa: sp 64 +
STACK CFI 266b8 .cfa: x29 64 + x19: .cfa -8 + ^ x20: .cfa -16 + ^ x21: .cfa -24 + ^ x22: .cfa -32 + ^ x23: .cfa -40 + ^ x24: .cfa -48 + ^ .ra: .cfa -56 + ^ x29: .cfa -64 + ^
STACK CFI 267b0 .cfa: sp 64 +
STACK CFI 267c0 .cfa: sp 0 +
STACK CFI INIT 267c4 d4 .cfa: sp 0 +
STACK CFI 267c8 .cfa: sp 48 +
STACK CFI 267d4 .cfa: x29 48 + x19: .cfa -8 + ^ x20: .cfa -16 + ^ x21: .cfa -32 + ^ .ra: .cfa -40 + ^ x29: .cfa -48 + ^
STACK CFI 26864 .cfa: sp 48 +
STACK CFI 26870 .cfa: sp 0 +
STACK CFI 26874 .cfa: x29 48 +
STACK CFI INIT 26898 3c8 .cfa: sp 0 +
STACK CFI INIT 26c60 8c .cfa: sp 0 +
STACK CFI 26c68 .cfa: sp 32 +
STACK CFI 26c70 .cfa: x29 32 + x19: .cfa -8 + ^ x20: .cfa -16 + ^ .ra: .cfa -24 + ^ x29: .cfa -32 + ^
STACK CFI 26cb8 .cfa: sp 32 +
STACK CFI 26cc0 .cfa: sp 0 +
STACK CFI 26cc8 .cfa: x29 32 +
STACK CFI INIT 26e40 50 .cfa: sp 0 +
STACK CFI 26e44 .cfa: sp 32 +
STACK CFI 26e4c .cfa: x29 32 + x19: .cfa -16 + ^ .ra: .cfa -24 + ^ x29: .cfa -32 + ^
STACK CFI 26e64 .cfa: sp 32 +
STACK CFI 26e6c .cfa: sp 0 +
STACK CFI 26e70 .cfa: x29 32 +
STACK CFI 26e84 .cfa: sp 32 +
STACK CFI 26e8c .cfa: sp 0 +
STACK CFI INIT 26e90 64 .cfa: sp 0 +
STACK CFI 26e94 .cfa: sp 32 +
STACK CFI 26e9c .cfa: x29 32 + x19: .cfa -16 + ^ .ra: .cfa -24 + ^ x29: .cfa -32 + ^
STACK CFI 26ec8 .cfa: sp 32 +
STACK CFI 26ed0 .cfa: sp 0 +
STACK CFI 26ed4 .cfa: x29 32 +
STACK CFI 26ee8 .cfa: sp 32 +
STACK CFI 26ef0 .cfa: sp 0 +
STACK CFI INIT 26ef4 14 .cfa: sp 0 +
STACK CFI 26ef8 .cfa: sp 16 +
STACK CFI 26efc .cfa: x29 16 + .ra: .cfa -8 + ^ x29: .cfa -16 + ^
STACK CFI INIT 2714c 178 .cfa: sp 0 +
STACK CFI 27150 .cfa: sp 80 +
STACK CFI 27164 .cfa: x29 80 + x19: .cfa -8 + ^ x20: .cfa -16 + ^ x21: .cfa -24 + ^ x22: .cfa -32 + ^ x23: .cfa -40 + ^ x24: .cfa -48 + ^ x25: .cfa -56 + ^ x26: .cfa -64 + ^ .ra: .cfa -72 + ^ x29: .cfa -80 + ^
STACK CFI 272ac .cfa: sp 80 +
STACK CFI 272c0 .cfa: sp 0 +
STACK CFI INIT 272c4 1b0 .cfa: sp 0 +
STACK CFI INIT 27474 60 .cfa: sp 0 +
STACK CFI 27478 .cfa: sp 32 +
STACK CFI 27480 .cfa: x29 32 + x19: .cfa -8 + ^ x20: .cfa -16 + ^ .ra: .cfa -24 + ^ x29: .cfa -32 + ^
STACK CFI 274a0 .cfa: sp 32 +
STACK CFI 274a8 .cfa: sp 0 +
STACK CFI 274ac .cfa: x29 32 +
STACK CFI 274c8 .cfa: sp 32 +
STACK CFI 274d0 .cfa: sp 0 +
STACK CFI INIT 274d4 70 .cfa: sp 0 +
STACK CFI 274d8 .cfa: sp 32 +
STACK CFI 274e0 .cfa: x29 32 + x19: .cfa -8 + ^ x20: .cfa -16 + ^ .ra: .cfa -24 + ^ x29: .cfa -32 + ^
STACK CFI 27508 .cfa: sp 32 +
STACK CFI 27510 .cfa: sp 0 +
STACK CFI 27514 .cfa: x29 32 +
STACK CFI 27538 .cfa: sp 32 +
STACK CFI 27540 .cfa: sp 0 +
STACK CFI INIT 27544 10 .cfa: sp 0 +
STACK CFI INIT 27554 30 .cfa: sp 0 +
STACK CFI 27558 .cfa: sp 32 +
STACK CFI 27560 .cfa: x29 32 + x19: .cfa -16 + ^ .ra: .cfa -24 + ^ x29: .cfa -32 + ^
STACK CFI 27578 .cfa: sp 32 +
STACK CFI 27580 .cfa: sp 0 +
STACK CFI INIT 27584 4 .cfa: sp 0 +
STACK CFI INIT 27588 4 .cfa: sp 0 +
STACK CFI INIT 27a0c 1c .cfa: sp 0 +
STACK CFI INIT 27ea8 1c .cfa: sp 0 +
STACK CFI INIT 281f4 4 .cfa: sp 0 +
STACK CFI INIT 281f8 f0 .cfa: sp 0 +
STACK CFI 281fc .cfa: sp 48 +
STACK CFI 28208 .cfa: x29 48 + x19: .cfa -8 + ^ x20: .cfa -16 + ^ x21: .cfa -32 + ^ .ra: .cfa -40 + ^ x29: .cfa -48 + ^
STACK CFI 282a8 .cfa: sp 48 +
STACK CFI 282b4 .cfa: sp 0 +
STACK CFI 282b8 .cfa: x29 48 +
STACK CFI 282d8 .cfa: sp 48 +
STACK CFI 282e4 .cfa: sp 0 +
STACK CFI INIT 28390 8c .cfa: sp 0 +
STACK CFI 28394 .cfa: sp 32 +
STACK CFI 2839c .cfa: x29 32 + x19: .cfa -16 + ^ .ra: .cfa -24 + ^ x29: .cfa -32 + ^
STACK CFI 28410 .cfa: sp 32 +
STACK CFI 28418 .cfa: sp 0 +
STACK CFI INIT 28fb4 4 .cfa: sp 0 +
STACK CFI INIT 299f4 80 .cfa: sp 0 +
STACK CFI 299f8 .cfa: sp 32 +
STACK CFI 29a00 .cfa: x29 32 + x19: .cfa -16 + ^ .ra: .cfa -24 + ^ x29: .cfa -32 + ^
STACK CFI 29a5c .cfa: sp 32 +
STACK CFI 29a64 .cfa: sp 0 +
STACK CFI 29a68 .cfa: sp 32 +
STACK CFI 29a70 .cfa: sp 0 +
STACK CFI INIT 2a2ac 14 .cfa: sp 0 +
STACK CFI 2a2b0 .cfa: sp 16 +
STACK CFI 2a2b4 .cfa: x29 16 + .ra: .cfa -8 + ^ x29: .cfa -16 + ^
STACK CFI INIT 2a2c0 14 .cfa: sp 0 +
STACK CFI 2a2c4 .cfa: sp 16 +
STACK CFI 2a2c8 .cfa: x29 16 + .ra: .cfa -8 + ^ x29: .cfa -16 + ^
STACK CFI INIT 2a2d4 c .cfa: sp 0 +
STACK CFI 2a2d8 .cfa: sp 16 +
STACK CFI 2a2dc .cfa: x29 16 + .ra: .cfa -8 + ^ x29: .cfa -16 + ^
STACK CFI INIT 2a330 30 .cfa: sp 0 +
STACK CFI 2a334 .cfa: sp 32 +
STACK CFI 2a33c .cfa: x29 32 + x19: .cfa -16 + ^ .ra: .cfa -24 + ^ x29: .cfa -32 + ^
STACK CFI 2a354 .cfa: sp 32 +
STACK CFI 2a35c .cfa: sp 0 +
STACK CFI INIT 2a360 c .cfa: sp 0 +
STACK CFI 2a364 .cfa: sp 16 +
STACK CFI 2a368 .cfa: x29 16 + .ra: .cfa -8 + ^ x29: .cfa -16 + ^
STACK CFI INIT 2a3c0 4 .cfa: sp 0 +
STACK CFI INIT 2a3c4 4 .cfa: sp 0 +
STACK CFI INIT 2a3c8 38 .cfa: sp 0 +
STACK CFI 2a3cc .cfa: sp 32 +
STACK CFI 2a3d4 .cfa: x29 32 + x19: .cfa -16 + ^ .ra: .cfa -24 + ^ x29: .cfa -32 + ^
STACK CFI 2a3f4 .cfa: sp 32 +
STACK CFI 2a3fc .cfa: sp 0 +
STACK CFI INIT 2a400 18 .cfa: sp 0 +
STACK CFI INIT 2a418 4 .cfa: sp 0 +
STACK CFI INIT 2a41c 4 .cfa: sp 0 +
STACK CFI INIT 2a420 10 .cfa: sp 0 +
STACK CFI INIT 2a430 1c .cfa: sp 0 +
STACK CFI INIT 2a44c c .cfa: sp 0 +
STACK CFI INIT 2a7c4 488 .cfa: sp 0 +
STACK CFI 2a7c8 .cfa: sp 144 +
STACK CFI 2a7e4 .cfa: x29 64 + x19: .cfa -8 + ^ x20: .cfa -16 + ^ x21: .cfa -24 + ^ x22: .cfa -32 + ^ x23: .cfa -40 + ^ x24: .cfa -48 + ^ .ra: .cfa -56 + ^ x29: .cfa -64 + ^ v8: .cfa -72 + ^ v9: .cfa -80 + ^ v10: .cfa -96 + ^
STACK CFI 2ac28 .cfa: sp 144 +
STACK CFI 2ac44 .cfa: sp 0 +
STACK CFI 2ac48 .cfa: x29 64 +
STACK CFI INIT 2ac4c 4 .cfa: sp 0 +
STACK CFI INIT 2ac50 38 .cfa: sp 0 +
STACK CFI 2ac54 .cfa: sp 32 +
STACK CFI 2ac5c .cfa: x29 32 + x19: .cfa -16 + ^ .ra: .cfa -24 + ^ x29: .cfa -32 + ^
STACK CFI 2ac7c .cfa: sp 32 +
STACK CFI 2ac84 .cfa: sp 0 +
STACK CFI INIT 2ac88 18 .cfa: sp 0 +
STACK CFI INIT 2aca0 4 .cfa: sp 0 +
STACK CFI INIT 2aca4 4 .cfa: sp 0 +
STACK CFI INIT 2b104 1c .cfa: sp 0 +
STACK CFI INIT 2b120 c .cfa: sp 0 +
STACK CFI INIT 2b3cc 60 .cfa: sp 0 +
STACK CFI 2b3d0 .cfa: sp 32 +
STACK CFI 2b3d8 .cfa: x29 32 + x19: .cfa -8 + ^ x20: .cfa -16 + ^ .ra: .cfa -24 + ^ x29: .cfa -32 + ^
STACK CFI 2b414 .cfa: sp 32 +
STACK CFI 2b41c .cfa: sp 0 +
STACK CFI 2b420 .cfa: sp 32 +
STACK CFI 2b428 .cfa: sp 0 +
STACK CFI INIT 2b42c 24 .cfa: sp 0 +
STACK CFI INIT 2b450 40 .cfa: sp 0 +
STACK CFI 2b468 .cfa: sp 32 +
STACK CFI 2b470 .cfa: x29 32 + x19: .cfa -16 + ^ .ra: .cfa -24 + ^ x29: .cfa -32 + ^
STACK CFI 2b484 .cfa: sp 32 +
STACK CFI 2b48c .cfa: sp 0 +
STACK CFI INIT 2b5fc 18 .cfa: sp 0 +
STACK CFI INIT 2b614 34 .cfa: sp 0 +
STACK CFI 2b620 .cfa: sp 32 +
STACK CFI 2b628 .cfa: x29 32 + x19: .cfa -16 + ^ .ra: .cfa -24 + ^ x29: .cfa -32 + ^
STACK CFI 2b63c .cfa: sp 32 +
STACK CFI 2b644 .cfa: sp 0 +
STACK CFI INIT 2b884 1c .cfa: sp 0 +
STACK CFI INIT 2b8a0 c .cfa: sp 0 +
STACK CFI INIT 2b8ac 34 .cfa: sp 0 +
STACK CFI 2b8b0 .cfa: sp 16 +
STACK CFI 2b8b4 .cfa: x29 16 + .ra: .cfa -8 + ^ x29: .cfa -16 + ^
STACK CFI INIT 2b8e0 3c .cfa: sp 0 +
STACK CFI 2b8e4 .cfa: sp 32 +
STACK CFI 2b8ec .cfa: x29 32 + x19: .cfa -16 + ^ .ra: .cfa -24 + ^ x29: .cfa -32 + ^
STACK CFI 2b8f8 .cfa: sp 32 +
STACK CFI 2b900 .cfa: sp 0 +
STACK CFI 2b904 .cfa: x29 32 +
STACK CFI 2b910 .cfa: sp 32 +
STACK CFI 2b918 .cfa: sp 0 +
STACK CFI INIT 2b91c 4c .cfa: sp 0 +
STACK CFI 2b920 .cfa: sp 32 +
STACK CFI 2b928 .cfa: x29 32 + x19: .cfa -8 + ^ x20: .cfa -16 + ^ .ra: .cfa -24 + ^ x29: .cfa -32 + ^
STACK CFI 2b950 .cfa: sp 32 +
STACK CFI 2b958 .cfa: sp 0 +
STACK CFI 2b95c .cfa: sp 32 +
STACK CFI 2b964 .cfa: sp 0 +
STACK CFI INIT 2bb88 64 .cfa: sp 0 +
STACK CFI 2bb8c .cfa: sp 32 +
STACK CFI 2bb94 .cfa: x29 32 + x19: .cfa -16 + ^ .ra: .cfa -24 + ^ x29: .cfa -32 + ^
STACK CFI 2bbc0 .cfa: sp 32 +
STACK CFI 2bbc8 .cfa: sp 0 +
STACK CFI 2bbcc .cfa: x29 32 +
STACK CFI 2bbe0 .cfa: sp 32 +
STACK CFI 2bbe8 .cfa: sp 0 +
STACK CFI INIT 2be10 24 .cfa: sp 0 +
STACK CFI 2be14 .cfa: sp 32 +
STACK CFI 2be1c .cfa: x29 32 + x19: .cfa -16 + ^ .ra: .cfa -24 + ^ x29: .cfa -32 + ^
STACK CFI 2be28 .cfa: sp 32 +
STACK CFI 2be30 .cfa: sp 0 +
STACK CFI INIT 2be34 24 .cfa: sp 0 +
STACK CFI 2be38 .cfa: sp 32 +
STACK CFI 2be40 .cfa: x29 32 + x19: .cfa -16 + ^ .ra: .cfa -24 + ^ x29: .cfa -32 + ^
STACK CFI 2be4c .cfa: sp 32 +
STACK CFI 2be54 .cfa: sp 0 +
STACK CFI INIT 2be58 8 .cfa: sp 0 +
STACK CFI INIT 2be60 24 .cfa: sp 0 +
STACK CFI 2be64 .cfa: sp 32 +
STACK CFI 2be6c .cfa: x29 32 + x19: .cfa -16 + ^ .ra: .cfa -24 + ^ x29: .cfa -32 + ^
STACK CFI 2be78 .cfa: sp 32 +
STACK CFI 2be80 .cfa: sp 0 +
STACK CFI INIT 2be84 28 .cfa: sp 0 +
STACK CFI 2be88 .cfa: sp 32 +
STACK CFI 2be90 .cfa: x29 32 + x19: .cfa -16 + ^ .ra: .cfa -24 + ^ x29: .cfa -32 + ^
STACK CFI 2bea0 .cfa: sp 32 +
STACK CFI 2bea8 .cfa: sp 0 +
STACK CFI INIT 2c1ac 8 .cfa: sp 0 +
STACK CFI INIT 2c1b4 24 .cfa: sp 0 +
STACK CFI 2c1b8 .cfa: sp 32 +
STACK CFI 2c1c0 .cfa: x29 32 + x19: .cfa -16 + ^ .ra: .cfa -24 + ^ x29: .cfa -32 + ^
STACK CFI 2c1cc .cfa: sp 32 +
STACK CFI 2c1d4 .cfa: sp 0 +
STACK CFI INIT 2c1d8 28 .cfa: sp 0 +
STACK CFI 2c1dc .cfa: sp 32 +
STACK CFI 2c1e4 .cfa: x29 32 + x19: .cfa -16 + ^ .ra: .cfa -24 + ^ x29: .cfa -32 + ^
STACK CFI 2c1f4 .cfa: sp 32 +
STACK CFI 2c1fc .cfa: sp 0 +
STACK CFI INIT 2c464 8 .cfa: sp 0 +
STACK CFI INIT 2c46c 24 .cfa: sp 0 +
STACK CFI 2c470 .cfa: sp 32 +
STACK CFI 2c478 .cfa: x29 32 + x19: .cfa -16 + ^ .ra: .cfa -24 + ^ x29: .cfa -32 + ^
STACK CFI 2c484 .cfa: sp 32 +
STACK CFI 2c48c .cfa: sp 0 +
STACK CFI INIT 2c490 28 .cfa: sp 0 +
STACK CFI 2c494 .cfa: sp 32 +
STACK CFI 2c49c .cfa: x29 32 + x19: .cfa -16 + ^ .ra: .cfa -24 + ^ x29: .cfa -32 + ^
STACK CFI 2c4ac .cfa: sp 32 +
STACK CFI 2c4b4 .cfa: sp 0 +
STACK CFI INIT 2c728 24 .cfa: sp 0 +
STACK CFI 2c72c .cfa: sp 32 +
STACK CFI 2c734 .cfa: x29 32 + x19: .cfa -16 + ^ .ra: .cfa -24 + ^ x29: .cfa -32 + ^
STACK CFI 2c740 .cfa: sp 32 +
STACK CFI 2c748 .cfa: sp 0 +
STACK CFI INIT 2ce04 24 .cfa: sp 0 +
STACK CFI 2ce08 .cfa: sp 32 +
STACK CFI 2ce10 .cfa: x29 32 + x19: .cfa -16 + ^ .ra: .cfa -24 + ^ x29: .cfa -32 + ^
STACK CFI 2ce1c .cfa: sp 32 +
STACK CFI 2ce24 .cfa: sp 0 +
STACK CFI INIT 2d484 8 .cfa: sp 0 +
STACK CFI INIT 2d48c 24 .cfa: sp 0 +
STACK CFI 2d490 .cfa: sp 32 +
STACK CFI 2d498 .cfa: x29 32 + x19: .cfa -16 + ^ .ra: .cfa -24 + ^ x29: .cfa -32 + ^
STACK CFI 2d4a4 .cfa: sp 32 +
STACK CFI 2d4ac .cfa: sp 0 +
STACK CFI INIT 2d4b0 28 .cfa: sp 0 +
STACK CFI 2d4b4 .cfa: sp 32 +
STACK CFI 2d4bc .cfa: x29 32 + x19: .cfa -16 + ^ .ra: .cfa -24 + ^ x29: .cfa -32 + ^
STACK CFI 2d4cc .cfa: sp 32 +
STACK CFI 2d4d4 .cfa: sp 0 +
STACK CFI INIT 2ee7c 4 .cfa: sp 0 +
STACK CFI INIT 2ee80 14 .cfa: sp 0 +
STACK CFI INIT 2f3a0 c .cfa: sp 0 +
STACK CFI INIT 2f3ac 24c .cfa: sp 0 +
STACK CFI INIT 2f5f8 a0 .cfa: sp 0 +
STACK CFI 2f604 .cfa: sp 32 +
STACK CFI 2f65c .cfa: sp 0 +
STACK CFI 2f660 .cfa: sp 32 +
STACK CFI 2f668 .cfa: sp 0 +
STACK CFI 2f66c .cfa: sp 32 +
STACK CFI 2f680 .cfa: sp 0 +
STACK CFI 2f684 .cfa: sp 32 +
STACK CFI 2f694 .cfa: sp 0 +
STACK CFI INIT 2f698 38 .cfa: sp 0 +
STACK CFI 2f6a4 .cfa: sp 32 +
STACK CFI 2f6cc .cfa: sp 0 +
STACK CFI INIT 2f964 7c .cfa: sp 0 +
STACK CFI 2f968 .cfa: sp 32 +
STACK CFI 2f970 .cfa: x29 32 + x19: .cfa -16 + ^ .ra: .cfa -24 + ^ x29: .cfa -32 + ^
STACK CFI 2f99c .cfa: sp 32 +
STACK CFI 2f9a4 .cfa: sp 0 +
STACK CFI 2f9a8 .cfa: x29 32 +
STACK CFI 2f9d4 .cfa: sp 32 +
STACK CFI 2f9dc .cfa: sp 0 +
STACK CFI INIT 2fa30 2c .cfa: sp 0 +
STACK CFI 2fa34 .cfa: sp 32 +
STACK CFI 2fa3c .cfa: x29 32 + x19: .cfa -16 + ^ .ra: .cfa -24 + ^ x29: .cfa -32 + ^
STACK CFI 2fa50 .cfa: sp 32 +
STACK CFI 2fa58 .cfa: sp 0 +
STACK CFI INIT 3021c 64 .cfa: sp 0 +
STACK CFI 30220 .cfa: sp 32 +
STACK CFI 30228 .cfa: x29 32 + x19: .cfa -16 + ^ .ra: .cfa -24 + ^ x29: .cfa -32 + ^
STACK CFI 30244 .cfa: sp 32 +
STACK CFI 3024c .cfa: sp 0 +
STACK CFI 30250 .cfa: x29 32 +
STACK CFI 30274 .cfa: sp 32 +
STACK CFI 3027c .cfa: sp 0 +
STACK CFI INIT 30280 570 .cfa: sp 0 +
STACK CFI 30284 .cfa: sp 176 +
STACK CFI 30298 .cfa: x29 64 + x19: .cfa -8 + ^ x20: .cfa -16 + ^ x21: .cfa -24 + ^ x22: .cfa -32 + ^ x23: .cfa -40 + ^ x24: .cfa -48 + ^ .ra: .cfa -56 + ^ x29: .cfa -64 + ^
STACK CFI 304c8 .cfa: sp 176 +
STACK CFI 304dc .cfa: sp 0 +
STACK CFI 304e0 .cfa: x29 64 +
STACK CFI 3052c .cfa: sp 176 +
STACK CFI 30540 .cfa: sp 0 +
STACK CFI 30544 .cfa: x29 64 +
STACK CFI 3057c .cfa: sp 176 +
STACK CFI 30590 .cfa: sp 0 +
STACK CFI 30594 .cfa: x29 64 +
STACK CFI 305ac .cfa: sp 176 +
STACK CFI 305c0 .cfa: sp 0 +
STACK CFI 305c4 .cfa: x29 64 +
STACK CFI 305e4 .cfa: sp 176 +
STACK CFI 305f8 .cfa: sp 0 +
STACK CFI 305fc .cfa: x29 64 +
STACK CFI 30614 .cfa: sp 176 +
STACK CFI 30628 .cfa: sp 0 +
STACK CFI 3062c .cfa: x29 64 +
STACK CFI 30640 .cfa: sp 176 +
STACK CFI 30654 .cfa: sp 0 +
STACK CFI 30658 .cfa: x29 64 +
STACK CFI 3066c .cfa: sp 176 +
STACK CFI 30680 .cfa: sp 0 +
STACK CFI 30684 .cfa: x29 64 +
STACK CFI 30694 .cfa: sp 176 +
STACK CFI 306a8 .cfa: sp 0 +
STACK CFI 306ac .cfa: x29 64 +
STACK CFI 306bc .cfa: sp 176 +
STACK CFI 306d0 .cfa: sp 0 +
STACK CFI 306d4 .cfa: x29 64 +
STACK CFI 306ec .cfa: sp 176 +
STACK CFI 30700 .cfa: sp 0 +
STACK CFI 30704 .cfa: x29 64 +
STACK CFI 30718 .cfa: sp 176 +
STACK CFI 3072c .cfa: sp 0 +
STACK CFI 30730 .cfa: x29 64 +
STACK CFI 30748 .cfa: sp 176 +
STACK CFI 3075c .cfa: sp 0 +
STACK CFI 30760 .cfa: x29 64 +
STACK CFI 3078c .cfa: sp 176 +
STACK CFI 307a0 .cfa: sp 0 +
STACK CFI 307a4 .cfa: x29 64 +
STACK CFI 307b8 .cfa: sp 176 +
STACK CFI 307cc .cfa: sp 0 +
STACK CFI 307d0 .cfa: x29 64 +
STACK CFI INIT 307f0 228 .cfa: sp 0 +
STACK CFI INIT 30a18 2dc .cfa: sp 0 +
STACK CFI INIT 30cf4 53c .cfa: sp 0 +
STACK CFI INIT 31230 8c .cfa: sp 0 +
STACK CFI 31234 .cfa: sp 32 +
STACK CFI 3123c .cfa: x29 32 + x19: .cfa -16 + ^ .ra: .cfa -24 + ^ x29: .cfa -32 + ^
STACK CFI 31270 .cfa: sp 32 +
STACK CFI 31278 .cfa: sp 0 +
STACK CFI 3127c .cfa: x29 32 +
STACK CFI 312b0 .cfa: sp 32 +
STACK CFI 312b8 .cfa: sp 0 +
STACK CFI INIT 312bc 24 .cfa: sp 0 +
STACK CFI 312c0 .cfa: sp 32 +
STACK CFI 312c8 .cfa: x29 32 + x19: .cfa -16 + ^ .ra: .cfa -24 + ^ x29: .cfa -32 + ^
STACK CFI 312d4 .cfa: sp 32 +
STACK CFI 312dc .cfa: sp 0 +
STACK CFI INIT 312e0 150 .cfa: sp 0 +
STACK CFI 312e4 .cfa: sp 48 +
STACK CFI 312f0 .cfa: x29 48 + x19: .cfa -8 + ^ x20: .cfa -16 + ^ x21: .cfa -24 + ^ x22: .cfa -32 + ^ .ra: .cfa -40 + ^ x29: .cfa -48 + ^
STACK CFI 31420 .cfa: sp 48 +
STACK CFI 3142c .cfa: sp 0 +
STACK CFI INIT 31430 68 .cfa: sp 0 +
STACK CFI 31434 .cfa: sp 64 +
STACK CFI 31440 .cfa: x29 32 + x19: .cfa -16 + ^ .ra: .cfa -24 + ^ x29: .cfa -32 + ^
STACK CFI 31484 .cfa: sp 64 +
STACK CFI 31490 .cfa: sp 0 +
STACK CFI 31494 .cfa: x29 32 +
STACK CFI INIT 31498 90 .cfa: sp 0 +
STACK CFI 3149c .cfa: sp 32 +
STACK CFI 314a4 .cfa: x29 32 + x19: .cfa -8 + ^ x20: .cfa -16 + ^ .ra: .cfa -24 + ^ x29: .cfa -32 + ^
STACK CFI 314d0 .cfa: sp 32 +
STACK CFI 314d8 .cfa: sp 0 +
STACK CFI 314dc .cfa: x29 32 +
STACK CFI 3151c .cfa: sp 32 +
STACK CFI 31524 .cfa: sp 0 +
STACK CFI INIT 31528 ec .cfa: sp 0 +
STACK CFI 3152c .cfa: sp 112 +
STACK CFI 3153c .cfa: x29 48 + x19: .cfa -8 + ^ x20: .cfa -16 + ^ x21: .cfa -32 + ^ .ra: .cfa -40 + ^ x29: .cfa -48 + ^
STACK CFI 315fc .cfa: sp 112 +
STACK CFI 3160c .cfa: sp 0 +
STACK CFI 31610 .cfa: x29 48 +
STACK CFI INIT 31614 ec .cfa: sp 0 +
STACK CFI 31618 .cfa: sp 112 +
STACK CFI 31628 .cfa: x29 48 + x19: .cfa -8 + ^ x20: .cfa -16 + ^ x21: .cfa -32 + ^ .ra: .cfa -40 + ^ x29: .cfa -48 + ^
STACK CFI 316e8 .cfa: sp 112 +
STACK CFI 316f8 .cfa: sp 0 +
STACK CFI 316fc .cfa: x29 48 +
STACK CFI INIT 31700 48 .cfa: sp 0 +
STACK CFI 31704 .cfa: sp 32 +
STACK CFI 3170c .cfa: x29 32 + x19: .cfa -8 + ^ x20: .cfa -16 + ^ .ra: .cfa -24 + ^ x29: .cfa -32 + ^
STACK CFI 31730 .cfa: sp 32 +
STACK CFI 31738 .cfa: sp 0 +
STACK CFI 3173c .cfa: x29 32 +
STACK CFI INIT 31748 98 .cfa: sp 0 +
STACK CFI 3174c .cfa: sp 80 +
STACK CFI 31758 .cfa: x29 32 + x19: .cfa -16 + ^ .ra: .cfa -24 + ^ x29: .cfa -32 + ^
STACK CFI 317cc .cfa: sp 80 +
STACK CFI 317d8 .cfa: sp 0 +
STACK CFI 317dc .cfa: x29 32 +
STACK CFI INIT 317e0 260 .cfa: sp 0 +
STACK CFI 317e4 .cfa: sp 112 +
STACK CFI 317fc .cfa: x29 80 + x19: .cfa -8 + ^ x20: .cfa -16 + ^ x21: .cfa -24 + ^ x22: .cfa -32 + ^ x23: .cfa -40 + ^ x24: .cfa -48 + ^ x25: .cfa -64 + ^ .ra: .cfa -72 + ^ x29: .cfa -80 + ^
STACK CFI 319e0 .cfa: sp 112 +
STACK CFI 319f8 .cfa: sp 0 +
STACK CFI 319fc .cfa: x29 80 +
STACK CFI INIT 31a40 150 .cfa: sp 0 +
STACK CFI 31a44 .cfa: sp 48 +
STACK CFI 31a50 .cfa: x29 48 + x19: .cfa -8 + ^ x20: .cfa -16 + ^ x21: .cfa -24 + ^ x22: .cfa -32 + ^ .ra: .cfa -40 + ^ x29: .cfa -48 + ^
STACK CFI 31b80 .cfa: sp 48 +
STACK CFI 31b8c .cfa: sp 0 +
STACK CFI INIT 31b90 1e0 .cfa: sp 0 +
STACK CFI 31b94 .cfa: sp 96 +
STACK CFI 31ba8 .cfa: x29 64 + x19: .cfa -8 + ^ x20: .cfa -16 + ^ x21: .cfa -24 + ^ x22: .cfa -32 + ^ x23: .cfa -40 + ^ x24: .cfa -48 + ^ .ra: .cfa -56 + ^ x29: .cfa -64 + ^
STACK CFI 31d28 .cfa: sp 96 +
STACK CFI 31d3c .cfa: sp 0 +
STACK CFI 31d40 .cfa: x29 64 +
STACK CFI INIT 31d70 284 .cfa: sp 0 +
STACK CFI 31d74 .cfa: sp 112 +
STACK CFI 31d8c .cfa: x29 80 + x19: .cfa -8 + ^ x20: .cfa -16 + ^ x21: .cfa -24 + ^ x22: .cfa -32 + ^ x23: .cfa -40 + ^ x24: .cfa -48 + ^ x25: .cfa -64 + ^ .ra: .cfa -72 + ^ x29: .cfa -80 + ^
STACK CFI 31f94 .cfa: sp 112 +
STACK CFI 31fac .cfa: sp 0 +
STACK CFI 31fb0 .cfa: x29 80 +
STACK CFI INIT 31ff4 208 .cfa: sp 0 +
STACK CFI 31ff8 .cfa: sp 96 +
STACK CFI 3200c .cfa: x29 64 + x19: .cfa -8 + ^ x20: .cfa -16 + ^ x21: .cfa -24 + ^ x22: .cfa -32 + ^ x23: .cfa -40 + ^ x24: .cfa -48 + ^ .ra: .cfa -56 + ^ x29: .cfa -64 + ^
STACK CFI 321b4 .cfa: sp 96 +
STACK CFI 321c8 .cfa: sp 0 +
STACK CFI 321cc .cfa: x29 64 +
STACK CFI INIT 321fc 360 .cfa: sp 0 +
STACK CFI 32200 .cfa: sp 160 +
STACK CFI 3221c .cfa: x29 96 + x19: .cfa -8 + ^ x20: .cfa -16 + ^ x21: .cfa -24 + ^ x22: .cfa -32 + ^ x23: .cfa -40 + ^ x24: .cfa -48 + ^ x25: .cfa -56 + ^ x26: .cfa -64 + ^ x27: .cfa -72 + ^ x28: .cfa -80 + ^ .ra: .cfa -88 + ^ x29: .cfa -96 + ^
STACK CFI 324e8 .cfa: sp 160 +
STACK CFI 32504 .cfa: sp 0 +
STACK CFI 32508 .cfa: x29 96 +
STACK CFI INIT 3255c 314 .cfa: sp 0 +
STACK CFI 32560 .cfa: sp 144 +
STACK CFI 3257c .cfa: x29 96 + x19: .cfa -8 + ^ x20: .cfa -16 + ^ x21: .cfa -24 + ^ x22: .cfa -32 + ^ x23: .cfa -40 + ^ x24: .cfa -48 + ^ x25: .cfa -56 + ^ x26: .cfa -64 + ^ x27: .cfa -72 + ^ x28: .cfa -80 + ^ .ra: .cfa -88 + ^ x29: .cfa -96 + ^
STACK CFI 327f8 .cfa: sp 144 +
STACK CFI 32814 .cfa: sp 0 +
STACK CFI 32818 .cfa: x29 96 +
STACK CFI INIT 32870 2b4 .cfa: sp 0 +
STACK CFI 32874 .cfa: sp 128 +
STACK CFI 3288c .cfa: x29 80 + x19: .cfa -8 + ^ x20: .cfa -16 + ^ x21: .cfa -24 + ^ x22: .cfa -32 + ^ x23: .cfa -40 + ^ x24: .cfa -48 + ^ x25: .cfa -56 + ^ x26: .cfa -64 + ^ .ra: .cfa -72 + ^ x29: .cfa -80 + ^
STACK CFI 32a80 .cfa: sp 128 +
STACK CFI 32a98 .cfa: sp 0 +
STACK CFI 32a9c .cfa: x29 80 +
STACK CFI 32b04 .cfa: sp 128 +
STACK CFI 32b1c .cfa: sp 0 +
STACK CFI 32b20 .cfa: x29 80 +
STACK CFI INIT 32b24 de0 .cfa: sp 0 +
STACK CFI 32b28 .cfa: sp 144 +
STACK CFI 32b44 .cfa: x29 96 + x19: .cfa -8 + ^ x20: .cfa -16 + ^ x21: .cfa -24 + ^ x22: .cfa -32 + ^ x23: .cfa -40 + ^ x24: .cfa -48 + ^ x25: .cfa -56 + ^ x26: .cfa -64 + ^ x27: .cfa -72 + ^ x28: .cfa -80 + ^ .ra: .cfa -88 + ^ x29: .cfa -96 + ^
STACK CFI 337dc .cfa: sp 144 +
STACK CFI 337f8 .cfa: sp 0 +
STACK CFI 337fc .cfa: x29 96 +
STACK CFI INIT 33904 264 .cfa: sp 0 +
STACK CFI 33908 .cfa: sp 112 +
STACK CFI 3391c .cfa: x29 64 + x19: .cfa -8 + ^ x20: .cfa -16 + ^ x21: .cfa -24 + ^ x22: .cfa -32 + ^ x23: .cfa -40 + ^ x24: .cfa -48 + ^ .ra: .cfa -56 + ^ x29: .cfa -64 + ^
STACK CFI 33a98 .cfa: sp 112 +
STACK CFI 33aac .cfa: sp 0 +
STACK CFI 33ab0 .cfa: x29 64 +
STACK CFI 33b20 .cfa: sp 112 +
STACK CFI 33b34 .cfa: sp 0 +
STACK CFI 33b38 .cfa: x29 64 +
STACK CFI INIT 33b68 258 .cfa: sp 0 +
STACK CFI 33b6c .cfa: sp 96 +
STACK CFI 33b84 .cfa: x29 96 + x19: .cfa -8 + ^ x20: .cfa -16 + ^ x21: .cfa -24 + ^ x22: .cfa -32 + ^ x23: .cfa -40 + ^ x24: .cfa -48 + ^ x25: .cfa -56 + ^ x26: .cfa -64 + ^ x27: .cfa -72 + ^ x28: .cfa -80 + ^ .ra: .cfa -88 + ^ x29: .cfa -96 + ^
STACK CFI 33d7c .cfa: sp 96 +
STACK CFI 33d94 .cfa: sp 0 +
STACK CFI 33d98 .cfa: x29 96 +
STACK CFI 33da4 .cfa: sp 96 +
STACK CFI 33dbc .cfa: sp 0 +
STACK CFI INIT 34a44 154 .cfa: sp 0 +
STACK CFI 34a48 .cfa: sp 96 +
STACK CFI 34a5c .cfa: x29 64 + x19: .cfa -8 + ^ x20: .cfa -16 + ^ x21: .cfa -24 + ^ x22: .cfa -32 + ^ x23: .cfa -48 + ^ .ra: .cfa -56 + ^ x29: .cfa -64 + ^
STACK CFI 34b3c .cfa: sp 96 +
STACK CFI 34b50 .cfa: sp 0 +
STACK CFI 34b54 .cfa: x29 64 +
STACK CFI INIT 34e04 44 .cfa: sp 0 +
STACK CFI 34e08 .cfa: sp 32 +
STACK CFI 34e10 .cfa: x29 32 + x19: .cfa -16 + ^ .ra: .cfa -24 + ^ x29: .cfa -32 + ^
STACK CFI 34e2c .cfa: sp 32 +
STACK CFI 34e34 .cfa: sp 0 +
STACK CFI 34e38 .cfa: x29 32 +
STACK CFI 34e3c .cfa: sp 32 +
STACK CFI 34e44 .cfa: sp 0 +
STACK CFI INIT 34e48 1d0 .cfa: sp 0 +
STACK CFI 34e4c .cfa: sp 64 +
STACK CFI 34e5c .cfa: x29 64 + x19: .cfa -8 + ^ x20: .cfa -16 + ^ x21: .cfa -24 + ^ x22: .cfa -32 + ^ x23: .cfa -40 + ^ x24: .cfa -48 + ^ .ra: .cfa -56 + ^ x29: .cfa -64 + ^
STACK CFI 34f1c .cfa: sp 64 +
STACK CFI 34f2c .cfa: sp 0 +
STACK CFI 34f30 .cfa: x29 64 +
STACK CFI INIT 35018 17c .cfa: sp 0 +
STACK CFI INIT 35194 ac .cfa: sp 0 +
STACK CFI 35198 .cfa: sp 64 +
STACK CFI 351a8 .cfa: x29 64 + x19: .cfa -8 + ^ x20: .cfa -16 + ^ x21: .cfa -24 + ^ x22: .cfa -32 + ^ x23: .cfa -48 + ^ .ra: .cfa -56 + ^ x29: .cfa -64 + ^
STACK CFI 35224 .cfa: sp 64 +
STACK CFI 35234 .cfa: sp 0 +
STACK CFI 35238 .cfa: x29 64 +
STACK CFI INIT 35240 110 .cfa: sp 0 +
STACK CFI 35244 .cfa: sp 64 +
STACK CFI 35254 .cfa: x29 64 + x19: .cfa -8 + ^ x20: .cfa -16 + ^ x21: .cfa -24 + ^ x22: .cfa -32 + ^ x23: .cfa -40 + ^ x24: .cfa -48 + ^ .ra: .cfa -56 + ^ x29: .cfa -64 + ^
STACK CFI 35334 .cfa: sp 64 +
STACK CFI 35344 .cfa: sp 0 +
STACK CFI 35348 .cfa: x29 64 +
STACK CFI INIT 35708 a0 .cfa: sp 0 +
STACK CFI 3570c .cfa: sp 48 +
STACK CFI 35718 .cfa: x29 48 + x19: .cfa -8 + ^ x20: .cfa -16 + ^ x21: .cfa -24 + ^ x22: .cfa -32 + ^ .ra: .cfa -40 + ^ x29: .cfa -48 + ^
STACK CFI 35784 .cfa: sp 48 +
STACK CFI 35790 .cfa: sp 0 +
STACK CFI 35794 .cfa: sp 48 +
STACK CFI 357a0 .cfa: sp 0 +
STACK CFI 357a4 .cfa: x29 48 +
STACK CFI INIT 36468 158 .cfa: sp 0 +
STACK CFI 3646c .cfa: sp 96 +
STACK CFI 36480 .cfa: x29 64 + x19: .cfa -8 + ^ x20: .cfa -16 + ^ x21: .cfa -24 + ^ x22: .cfa -32 + ^ x23: .cfa -48 + ^ .ra: .cfa -56 + ^ x29: .cfa -64 + ^
STACK CFI 36564 .cfa: sp 96 +
STACK CFI 36578 .cfa: sp 0 +
STACK CFI 3657c .cfa: x29 64 +
STACK CFI INIT 365c0 190 .cfa: sp 0 +
STACK CFI INIT 37248 1f4 .cfa: sp 0 +
STACK CFI 3724c .cfa: sp 80 +
STACK CFI 37260 .cfa: x29 80 + x19: .cfa -8 + ^ x20: .cfa -16 + ^ x21: .cfa -24 + ^ x22: .cfa -32 + ^ x23: .cfa -40 + ^ x24: .cfa -48 + ^ x25: .cfa -64 + ^ .ra: .cfa -72 + ^ x29: .cfa -80 + ^
STACK CFI 37400 .cfa: sp 80 +
STACK CFI 37414 .cfa: sp 0 +
STACK CFI 37418 .cfa: x29 80 +
STACK CFI 37424 .cfa: sp 80 +
STACK CFI 37438 .cfa: sp 0 +
STACK CFI INIT 3886c 124 .cfa: sp 0 +
STACK CFI 3889c .cfa: sp 32 +
STACK CFI 388a4 .cfa: x29 32 + x19: .cfa -8 + ^ x20: .cfa -16 + ^ .ra: .cfa -24 + ^ x29: .cfa -32 + ^
STACK CFI 38984 .cfa: sp 32 +
STACK CFI 3898c .cfa: sp 0 +
STACK CFI INIT 390ec 320 .cfa: sp 0 +
STACK CFI 390f0 .cfa: sp 64 +
STACK CFI 39100 .cfa: x29 64 + x19: .cfa -8 + ^ x20: .cfa -16 + ^ x21: .cfa -24 + ^ x22: .cfa -32 + ^ x23: .cfa -40 + ^ x24: .cfa -48 + ^ .ra: .cfa -56 + ^ x29: .cfa -64 + ^
STACK CFI 3917c .cfa: sp 64 +
STACK CFI 3918c .cfa: sp 0 +
STACK CFI 39190 .cfa: x29 64 +
STACK CFI 39364 .cfa: sp 64 +
STACK CFI 39374 .cfa: sp 0 +
STACK CFI 39378 .cfa: x29 64 +
STACK CFI 39388 .cfa: sp 64 +
STACK CFI 39398 .cfa: sp 0 +
STACK CFI 3939c .cfa: x29 64 +
STACK CFI INIT 3940c a0 .cfa: sp 0 +
STACK CFI 39410 .cfa: sp 48 +
STACK CFI 3941c .cfa: x29 48 + x19: .cfa -8 + ^ x20: .cfa -16 + ^ x21: .cfa -24 + ^ x22: .cfa -32 + ^ .ra: .cfa -40 + ^ x29: .cfa -48 + ^
STACK CFI 39488 .cfa: sp 48 +
STACK CFI 39494 .cfa: sp 0 +
STACK CFI 39498 .cfa: sp 48 +
STACK CFI 394a4 .cfa: sp 0 +
STACK CFI 394a8 .cfa: x29 48 +
STACK CFI INIT 3a38c 160 .cfa: sp 0 +
STACK CFI 3a390 .cfa: sp 64 +
STACK CFI 3a3a0 .cfa: x29 64 + x19: .cfa -8 + ^ x20: .cfa -16 + ^ x21: .cfa -24 + ^ x22: .cfa -32 + ^ x23: .cfa -48 + ^ .ra: .cfa -56 + ^ x29: .cfa -64 + ^
STACK CFI 3a498 .cfa: sp 64 +
STACK CFI 3a4a8 .cfa: sp 0 +
STACK CFI 3a4ac .cfa: x29 64 +
STACK CFI INIT 3a4ec 214 .cfa: sp 0 +
STACK CFI 3a4f0 .cfa: sp 128 +
STACK CFI 3a50c .cfa: x29 96 + x19: .cfa -8 + ^ x20: .cfa -16 + ^ x21: .cfa -24 + ^ x22: .cfa -32 + ^ x23: .cfa -40 + ^ x24: .cfa -48 + ^ x25: .cfa -56 + ^ x26: .cfa -64 + ^ x27: .cfa -80 + ^ .ra: .cfa -88 + ^ x29: .cfa -96 + ^
STACK CFI 3a688 .cfa: sp 128 +
STACK CFI 3a6a4 .cfa: sp 0 +
STACK CFI 3a6a8 .cfa: x29 96 +
STACK CFI INIT 3c1e4 e60 .cfa: sp 0 +
STACK CFI 3c1e8 .cfa: sp 192 +
STACK CFI 3c204 .cfa: x29 96 + x19: .cfa -8 + ^ x20: .cfa -16 + ^ x21: .cfa -24 + ^ x22: .cfa -32 + ^ x23: .cfa -40 + ^ x24: .cfa -48 + ^ x25: .cfa -56 + ^ x26: .cfa -64 + ^ x27: .cfa -72 + ^ x28: .cfa -80 + ^ .ra: .cfa -88 + ^ x29: .cfa -96 + ^
STACK CFI 3cf2c .cfa: sp 192 +
STACK CFI 3cf48 .cfa: sp 0 +
STACK CFI 3cf4c .cfa: x29 96 +
STACK CFI INIT 3d044 1090 .cfa: sp 0 +
STACK CFI 3d048 .cfa: sp 288 +
STACK CFI 3d064 .cfa: x29 96 + x19: .cfa -8 + ^ x20: .cfa -16 + ^ x21: .cfa -24 + ^ x22: .cfa -32 + ^ x23: .cfa -40 + ^ x24: .cfa -48 + ^ x25: .cfa -56 + ^ x26: .cfa -64 + ^ x27: .cfa -72 + ^ x28: .cfa -80 + ^ .ra: .cfa -88 + ^ x29: .cfa -96 + ^
STACK CFI 3de1c .cfa: sp 288 +
STACK CFI 3de38 .cfa: sp 0 +
STACK CFI 3de3c .cfa: x29 96 +
STACK CFI INIT 3e0d4 520 .cfa: sp 0 +
STACK CFI 3e0d8 .cfa: sp 144 +
STACK CFI 3e0f4 .cfa: x29 96 + x19: .cfa -8 + ^ x20: .cfa -16 + ^ x21: .cfa -24 + ^ x22: .cfa -32 + ^ x23: .cfa -40 + ^ x24: .cfa -48 + ^ x25: .cfa -56 + ^ x26: .cfa -64 + ^ x27: .cfa -72 + ^ x28: .cfa -80 + ^ .ra: .cfa -88 + ^ x29: .cfa -96 + ^
STACK CFI 3e5d0 .cfa: sp 144 +
STACK CFI 3e5ec .cfa: sp 0 +
STACK CFI 3e5f0 .cfa: x29 96 +
STACK CFI INIT 1c720 20 .cfa: sp 0 +
STACK CFI 1c724 .cfa: sp 16 +
STACK CFI 1c728 .cfa: x29 16 + .ra: .cfa -8 + ^ x29: .cfa -16 + ^
STACK CFI 1c734 .cfa: sp 16 +
STACK CFI 1c738 .cfa: sp 0 +
STACK CFI 1c73c .cfa: x29 16 +
STACK CFI INIT 1c740 148 .cfa: sp 0 +
STACK CFI 1c744 .cfa: sp 80 +
STACK CFI 1c758 .cfa: x29 64 + x19: .cfa -8 + ^ x20: .cfa -16 + ^ x21: .cfa -24 + ^ x22: .cfa -32 + ^ x23: .cfa -40 + ^ x24: .cfa -48 + ^ .ra: .cfa -56 + ^ x29: .cfa -64 + ^
STACK CFI 1c844 .cfa: sp 80 +
STACK CFI 1c858 .cfa: sp 0 +
STACK CFI 1c85c .cfa: x29 64 +
STACK CFI INIT 1c888 118 .cfa: sp 0 +
STACK CFI 1c88c .cfa: sp 80 +
STACK CFI 1c89c .cfa: x29 48 + x19: .cfa -8 + ^ x20: .cfa -16 + ^ x21: .cfa -24 + ^ x22: .cfa -32 + ^ .ra: .cfa -40 + ^ x29: .cfa -48 + ^
STACK CFI 1c984 .cfa: sp 80 +
STACK CFI 1c994 .cfa: sp 0 +
STACK CFI 1c998 .cfa: x29 48 +
STACK CFI INIT 1cab4 198 .cfa: sp 0 +
STACK CFI 1cab8 .cfa: sp 80 +
STACK CFI 1cacc .cfa: x29 80 + x19: .cfa -8 + ^ x20: .cfa -16 + ^ x21: .cfa -24 + ^ x22: .cfa -32 + ^ x23: .cfa -40 + ^ x24: .cfa -48 + ^ x28: .cfa -64 + ^ .ra: .cfa -72 + ^ x29: .cfa -80 + ^
STACK CFI 1cba8 .cfa: sp 80 +
STACK CFI 1cbbc .cfa: sp 0 +
STACK CFI 1cbc0 .cfa: x29 80 +
STACK CFI INIT 1cc4c 228 .cfa: sp 0 +
STACK CFI 1cc50 .cfa: sp 80 +
STACK CFI 1cc64 .cfa: x29 80 + x19: .cfa -8 + ^ x20: .cfa -16 + ^ x21: .cfa -24 + ^ x22: .cfa -32 + ^ x23: .cfa -40 + ^ x24: .cfa -48 + ^ x28: .cfa -64 + ^ .ra: .cfa -72 + ^ x29: .cfa -80 + ^
STACK CFI 1cdb8 .cfa: sp 80 +
STACK CFI 1cdcc .cfa: sp 0 +
STACK CFI 1cdd0 .cfa: x29 80 +
STACK CFI INIT 1ce74 264 .cfa: sp 0 +
STACK CFI 1ce78 .cfa: sp 176 +
STACK CFI 1ce84 .cfa: x29 32 + x19: .cfa -8 + ^ x20: .cfa -16 + ^ .ra: .cfa -24 + ^ x29: .cfa -32 + ^
STACK CFI 1d00c .cfa: sp 176 +
STACK CFI 1d018 .cfa: sp 0 +
STACK CFI 1d01c .cfa: x29 32 +
STACK CFI INIT 1d0d8 f24 .cfa: sp 0 +
STACK CFI 1d0dc .cfa: sp 96 +
STACK CFI 1d0f4 .cfa: x29 96 + x19: .cfa -8 + ^ x20: .cfa -16 + ^ x21: .cfa -24 + ^ x22: .cfa -32 + ^ x23: .cfa -40 + ^ x24: .cfa -48 + ^ x25: .cfa -56 + ^ x26: .cfa -64 + ^ x27: .cfa -72 + ^ x28: .cfa -80 + ^ .ra: .cfa -88 + ^ x29: .cfa -96 + ^
STACK CFI 1de88 .cfa: sp 96 +
STACK CFI 1dea0 .cfa: sp 0 +
STACK CFI 1dea4 .cfa: x29 96 +
STACK CFI INIT 1dffc 1a0 .cfa: sp 0 +
STACK CFI 1e000 .cfa: sp 112 +
STACK CFI 1e014 .cfa: x29 48 + x19: .cfa -8 + ^ x20: .cfa -16 + ^ x21: .cfa -32 + ^ .ra: .cfa -40 + ^ x29: .cfa -48 + ^ v8: .cfa -56 + ^ v9: .cfa -64 + ^
STACK CFI 1e148 .cfa: sp 112 +
STACK CFI 1e15c .cfa: sp 0 +
STACK CFI 1e160 .cfa: x29 48 +
STACK CFI INIT 1e1ec 1f4 .cfa: sp 0 +
STACK CFI 1e1f0 .cfa: sp 112 +
STACK CFI 1e204 .cfa: x29 48 + x19: .cfa -8 + ^ x20: .cfa -16 + ^ x21: .cfa -24 + ^ x22: .cfa -32 + ^ .ra: .cfa -40 + ^ x29: .cfa -48 + ^ v8: .cfa -64 + ^
STACK CFI 1e388 .cfa: sp 112 +
STACK CFI 1e39c .cfa: sp 0 +
STACK CFI 1e3a0 .cfa: x29 48 +
STACK CFI INIT 1e3e0 1c8 .cfa: sp 0 +
STACK CFI 1e3e4 .cfa: sp 80 +
STACK CFI 1e3f4 .cfa: x29 48 + x19: .cfa -8 + ^ x20: .cfa -16 + ^ x21: .cfa -24 + ^ x22: .cfa -32 + ^ .ra: .cfa -40 + ^ x29: .cfa -48 + ^
STACK CFI 1e508 .cfa: sp 80 +
STACK CFI 1e518 .cfa: sp 0 +
STACK CFI 1e51c .cfa: x29 48 +
STACK CFI INIT 1e5a8 760 .cfa: sp 0 +
STACK CFI 1e5ac .cfa: sp 208 +
STACK CFI 1e5d4 .cfa: x29 80 + x19: .cfa -8 + ^ x20: .cfa -16 + ^ x21: .cfa -24 + ^ x22: .cfa -32 + ^ x23: .cfa -40 + ^ x24: .cfa -48 + ^ x25: .cfa -56 + ^ x26: .cfa -64 + ^ .ra: .cfa -72 + ^ x29: .cfa -80 + ^ v8: .cfa -88 + ^ v9: .cfa -96 + ^ v10: .cfa -104 + ^ v11: .cfa -112 + ^ v12: .cfa -120 + ^ v13: .cfa -128 + ^ v14: .cfa -144 + ^
STACK CFI 1ec58 .cfa: sp 208 +
STACK CFI 1ec80 .cfa: sp 0 +
STACK CFI 1ec84 .cfa: x29 80 +
STACK CFI INIT 1ed08 1c .cfa: sp 0 +
STACK CFI 1ed0c .cfa: sp 16 +
STACK CFI 1ed10 .cfa: x29 16 + .ra: .cfa -8 + ^ x29: .cfa -16 + ^
STACK CFI 1ed18 .cfa: sp 16 +
STACK CFI 1ed1c .cfa: sp 0 +
STACK CFI 1ed20 .cfa: x29 16 +
STACK CFI INIT 1ed40 25c .cfa: sp 0 +
STACK CFI 1ed44 .cfa: sp 112 +
STACK CFI 1ed60 .cfa: x29 56 + x19: .cfa -8 + ^ x20: .cfa -16 + ^ x21: .cfa -24 + ^ x22: .cfa -32 + ^ x23: .cfa -40 + ^ .ra: .cfa -48 + ^ x29: .cfa -56 + ^ v8: .cfa -64 + ^ v9: .cfa -72 + ^ v10: .cfa -80 + ^
STACK CFI 1ef30 .cfa: sp 112 +
STACK CFI 1ef4c .cfa: sp 0 +
STACK CFI 1ef50 .cfa: x29 56 +
STACK CFI INIT 1efa4 304 .cfa: sp 0 +
STACK CFI 1efa8 .cfa: sp 48 +
STACK CFI 1efb8 .cfa: x29 40 + x19: .cfa -8 + ^ x20: .cfa -16 + ^ x21: .cfa -24 + ^ .ra: .cfa -32 + ^ x29: .cfa -40 + ^ v8: .cfa -48 + ^
STACK CFI 1f28c .cfa: sp 48 +
STACK CFI 1f29c .cfa: sp 0 +
STACK CFI 1f2a0 .cfa: x29 40 +
STACK CFI INIT 1f2b8 184 .cfa: sp 0 +
STACK CFI 1f2bc .cfa: sp 48 +
STACK CFI 1f2c8 .cfa: x29 48 + x19: .cfa -8 + ^ x20: .cfa -16 + ^ x21: .cfa -32 + ^ .ra: .cfa -40 + ^ x29: .cfa -48 + ^
STACK CFI 1f3fc .cfa: sp 48 +
STACK CFI 1f408 .cfa: sp 0 +
STACK CFI 1f40c .cfa: x29 48 +
STACK CFI INIT 1f4c0 148 .cfa: sp 0 +
STACK CFI 1f4c4 .cfa: sp 96 +
STACK CFI 1f4d4 .cfa: x29 48 + x19: .cfa -8 + ^ x20: .cfa -16 + ^ x21: .cfa -32 + ^ .ra: .cfa -40 + ^ x29: .cfa -48 + ^
STACK CFI 1f5bc .cfa: sp 96 +
STACK CFI 1f5cc .cfa: sp 0 +
STACK CFI 1f5d0 .cfa: x29 48 +
STACK CFI INIT 1f680 480 .cfa: sp 0 +
STACK CFI 1f684 .cfa: sp 224 +
STACK CFI 1f6a0 .cfa: x29 96 + x19: .cfa -8 + ^ x20: .cfa -16 + ^ x21: .cfa -24 + ^ x22: .cfa -32 + ^ x23: .cfa -40 + ^ x24: .cfa -48 + ^ x25: .cfa -56 + ^ x26: .cfa -64 + ^ x27: .cfa -80 + ^ .ra: .cfa -88 + ^ x29: .cfa -96 + ^
STACK CFI 1f90c .cfa: sp 224 +
STACK CFI 1f928 .cfa: sp 0 +
STACK CFI 1f92c .cfa: x29 96 +
STACK CFI 1f9f8 .cfa: sp 224 +
STACK CFI 1fa14 .cfa: sp 0 +
STACK CFI 1fa18 .cfa: x29 96 +
STACK CFI INIT 1fb30 50 .cfa: sp 0 +
STACK CFI 1fb34 .cfa: sp 32 +
STACK CFI 1fb3c .cfa: x29 32 + x19: .cfa -8 + ^ x20: .cfa -16 + ^ .ra: .cfa -24 + ^ x29: .cfa -32 + ^
STACK CFI INIT 1fcc0 70 .cfa: sp 0 +
STACK CFI 1fcc4 .cfa: sp 48 +
STACK CFI 1fcd0 .cfa: x29 48 + x19: .cfa -8 + ^ x20: .cfa -16 + ^ x21: .cfa -32 + ^ .ra: .cfa -40 + ^ x29: .cfa -48 + ^
STACK CFI 1fce8 .cfa: sp 48 +
STACK CFI 1fcf4 .cfa: sp 0 +
STACK CFI 1fcf8 .cfa: x29 48 +
STACK CFI 1fd1c .cfa: sp 48 +
STACK CFI 1fd28 .cfa: sp 0 +
STACK CFI 1fd2c .cfa: x29 48 +
STACK CFI INIT 1fd30 6c .cfa: sp 0 +
STACK CFI 1fd34 .cfa: sp 32 +
STACK CFI 1fd3c .cfa: x29 32 + x19: .cfa -16 + ^ .ra: .cfa -24 + ^ x29: .cfa -32 + ^
STACK CFI 1fd8c .cfa: sp 32 +
STACK CFI 1fd94 .cfa: sp 0 +
STACK CFI 1fd98 .cfa: x29 32 +
STACK CFI INIT 1fda0 6c .cfa: sp 0 +
STACK CFI 1fda4 .cfa: sp 32 +
STACK CFI 1fdac .cfa: x29 32 + x19: .cfa -16 + ^ .ra: .cfa -24 + ^ x29: .cfa -32 + ^
STACK CFI 1fdfc .cfa: sp 32 +
STACK CFI 1fe04 .cfa: sp 0 +
STACK CFI 1fe08 .cfa: x29 32 +
STACK CFI INIT 1fe10 21c .cfa: sp 0 +
STACK CFI 1fe14 .cfa: sp 192 +
STACK CFI 1fe28 .cfa: x29 64 + x19: .cfa -8 + ^ x20: .cfa -16 + ^ x21: .cfa -24 + ^ x22: .cfa -32 + ^ x23: .cfa -48 + ^ .ra: .cfa -56 + ^ x29: .cfa -64 + ^
STACK CFI 1ff68 .cfa: sp 192 +
STACK CFI 1ff7c .cfa: sp 0 +
STACK CFI 1ff80 .cfa: x29 64 +
STACK CFI INIT 20030 1cc .cfa: sp 0 +
STACK CFI 20034 .cfa: sp 128 +
STACK CFI 20044 .cfa: x29 48 + x19: .cfa -8 + ^ x20: .cfa -16 + ^ x21: .cfa -32 + ^ .ra: .cfa -40 + ^ x29: .cfa -48 + ^
STACK CFI 20180 .cfa: sp 128 +
STACK CFI 20190 .cfa: sp 0 +
STACK CFI 20194 .cfa: x29 48 +
STACK CFI INIT 2058c 1d0 .cfa: sp 0 +
STACK CFI 20590 .cfa: sp 128 +
STACK CFI 205a4 .cfa: x29 64 + x19: .cfa -8 + ^ x20: .cfa -16 + ^ x21: .cfa -24 + ^ x22: .cfa -32 + ^ x23: .cfa -48 + ^ .ra: .cfa -56 + ^ x29: .cfa -64 + ^
STACK CFI 2071c .cfa: sp 128 +
STACK CFI 20730 .cfa: sp 0 +
STACK CFI 20734 .cfa: x29 64 +
STACK CFI INIT 20a78 1c4 .cfa: sp 0 +
STACK CFI 20a7c .cfa: sp 112 +
STACK CFI 20a8c .cfa: x29 48 + x19: .cfa -8 + ^ x20: .cfa -16 + ^ x21: .cfa -24 + ^ x22: .cfa -32 + ^ .ra: .cfa -40 + ^ x29: .cfa -48 + ^
STACK CFI 20c00 .cfa: sp 112 +
STACK CFI 20c10 .cfa: sp 0 +
STACK CFI 20c14 .cfa: x29 48 +
STACK CFI INIT 20df0 198 .cfa: sp 0 +
STACK CFI 20df4 .cfa: sp 96 +
STACK CFI 20e04 .cfa: x29 48 + x19: .cfa -8 + ^ x20: .cfa -16 + ^ x21: .cfa -32 + ^ .ra: .cfa -40 + ^ x29: .cfa -48 + ^
STACK CFI 20ee0 .cfa: sp 96 +
STACK CFI 20ef0 .cfa: sp 0 +
STACK CFI 20ef4 .cfa: x29 48 +
STACK CFI INIT 20fe0 390 .cfa: sp 0 +
STACK CFI 20fe4 .cfa: sp 192 +
STACK CFI 20ffc .cfa: x29 64 + x19: .cfa -8 + ^ x20: .cfa -16 + ^ x21: .cfa -24 + ^ x22: .cfa -32 + ^ x23: .cfa -40 + ^ x24: .cfa -48 + ^ .ra: .cfa -56 + ^ x29: .cfa -64 + ^ v8: .cfa -80 + ^
STACK CFI 21264 .cfa: sp 192 +
STACK CFI 2127c .cfa: sp 0 +
STACK CFI 21280 .cfa: x29 64 +
STACK CFI INIT 213e0 1b0 .cfa: sp 0 +
STACK CFI 213e4 .cfa: sp 128 +
STACK CFI 213f4 .cfa: x29 48 + x19: .cfa -8 + ^ x20: .cfa -16 + ^ x21: .cfa -24 + ^ x22: .cfa -32 + ^ .ra: .cfa -40 + ^ x29: .cfa -48 + ^
STACK CFI 2150c .cfa: sp 128 +
STACK CFI 2151c .cfa: sp 0 +
STACK CFI 21520 .cfa: x29 48 +
STACK CFI INIT 21684 218 .cfa: sp 0 +
STACK CFI 21688 .cfa: sp 96 +
STACK CFI 216a0 .cfa: x29 96 + x19: .cfa -8 + ^ x20: .cfa -16 + ^ x21: .cfa -24 + ^ x22: .cfa -32 + ^ x23: .cfa -40 + ^ x24: .cfa -48 + ^ x25: .cfa -56 + ^ x26: .cfa -64 + ^ x27: .cfa -72 + ^ x28: .cfa -80 + ^ .ra: .cfa -88 + ^ x29: .cfa -96 + ^
STACK CFI 217d8 .cfa: sp 96 +
STACK CFI 217f0 .cfa: sp 0 +
STACK CFI 217f4 .cfa: x29 96 +
STACK CFI INIT 219ec 2c0 .cfa: sp 0 +
STACK CFI 219f0 .cfa: sp 80 +
STACK CFI 21a04 .cfa: x29 80 + x19: .cfa -8 + ^ x20: .cfa -16 + ^ x21: .cfa -24 + ^ x22: .cfa -32 + ^ x23: .cfa -40 + ^ x24: .cfa -48 + ^ x28: .cfa -64 + ^ .ra: .cfa -72 + ^ x29: .cfa -80 + ^
STACK CFI 21c14 .cfa: sp 80 +
STACK CFI 21c28 .cfa: sp 0 +
STACK CFI 21c2c .cfa: x29 80 +
STACK CFI INIT 25544 4c .cfa: sp 0 +
STACK CFI 25548 .cfa: sp 32 +
STACK CFI 25550 .cfa: x29 32 + x19: .cfa -16 + ^ .ra: .cfa -24 + ^ x29: .cfa -32 + ^
STACK CFI 25574 .cfa: sp 32 +
STACK CFI 2557c .cfa: sp 0 +
STACK CFI 25580 .cfa: sp 32 +
STACK CFI 25588 .cfa: sp 0 +
STACK CFI 2558c .cfa: x29 32 +
STACK CFI INIT 25590 3b0 .cfa: sp 0 +
STACK CFI 25594 .cfa: sp 224 +
STACK CFI 255a8 .cfa: x29 64 + x19: .cfa -8 + ^ x20: .cfa -16 + ^ x21: .cfa -24 + ^ x22: .cfa -32 + ^ x23: .cfa -48 + ^ .ra: .cfa -56 + ^ x29: .cfa -64 + ^
STACK CFI 25810 .cfa: sp 224 +
STACK CFI 25824 .cfa: sp 0 +
STACK CFI 25828 .cfa: x29 64 +
STACK CFI INIT 25990 74 .cfa: sp 0 +
STACK CFI 25994 .cfa: sp 48 +
STACK CFI 259a0 .cfa: x29 32 + x19: .cfa -8 + ^ x20: .cfa -16 + ^ .ra: .cfa -24 + ^ x29: .cfa -32 + ^
STACK CFI 259ec .cfa: sp 48 +
STACK CFI 259f8 .cfa: sp 0 +
STACK CFI 259fc .cfa: x29 32 +
STACK CFI INIT 25a84 154 .cfa: sp 0 +
STACK CFI 25a88 .cfa: sp 384 +
STACK CFI 25a9c .cfa: x29 64 + x19: .cfa -8 + ^ x20: .cfa -16 + ^ x21: .cfa -24 + ^ x22: .cfa -32 + ^ x23: .cfa -40 + ^ x28: .cfa -48 + ^ .ra: .cfa -56 + ^ x29: .cfa -64 + ^
STACK CFI 25b80 .cfa: sp 384 +
STACK CFI 25b94 .cfa: sp 0 +
STACK CFI 25b98 .cfa: x29 64 +
STACK CFI INIT 25bd8 12c .cfa: sp 0 +
STACK CFI 25bdc .cfa: sp 80 +
STACK CFI 25bf0 .cfa: x29 80 + x19: .cfa -8 + ^ x20: .cfa -16 + ^ x21: .cfa -24 + ^ x22: .cfa -32 + ^ x23: .cfa -40 + ^ x24: .cfa -48 + ^ x25: .cfa -56 + ^ x26: .cfa -64 + ^ .ra: .cfa -72 + ^ x29: .cfa -80 + ^
STACK CFI 25cb8 .cfa: sp 80 +
STACK CFI 25ccc .cfa: sp 0 +
STACK CFI 25cd0 .cfa: x29 80 +
STACK CFI INIT 25da8 1a4 .cfa: sp 0 +
STACK CFI 25dac .cfa: sp 112 +
STACK CFI 25dc4 .cfa: x29 80 + x19: .cfa -8 + ^ x20: .cfa -16 + ^ x21: .cfa -24 + ^ x22: .cfa -32 + ^ x23: .cfa -40 + ^ x24: .cfa -48 + ^ x25: .cfa -56 + ^ x26: .cfa -64 + ^ .ra: .cfa -72 + ^ x29: .cfa -80 + ^
STACK CFI 25eb4 .cfa: sp 112 +
STACK CFI 25ecc .cfa: sp 0 +
STACK CFI 25ed0 .cfa: x29 80 +
STACK CFI INIT 25f4c 1dc .cfa: sp 0 +
STACK CFI 25f50 .cfa: sp 128 +
STACK CFI 25f6c .cfa: x29 96 + x19: .cfa -8 + ^ x20: .cfa -16 + ^ x21: .cfa -24 + ^ x22: .cfa -32 + ^ x23: .cfa -40 + ^ x24: .cfa -48 + ^ x25: .cfa -56 + ^ x26: .cfa -64 + ^ x27: .cfa -80 + ^ .ra: .cfa -88 + ^ x29: .cfa -96 + ^
STACK CFI 260d8 .cfa: sp 128 +
STACK CFI 260f4 .cfa: sp 0 +
STACK CFI 260f8 .cfa: x29 96 +
STACK CFI INIT 26128 178 .cfa: sp 0 +
STACK CFI 2612c .cfa: sp 80 +
STACK CFI 26140 .cfa: x29 80 + x19: .cfa -8 + ^ x20: .cfa -16 + ^ x21: .cfa -24 + ^ x22: .cfa -32 + ^ x23: .cfa -40 + ^ x24: .cfa -48 + ^ x25: .cfa -64 + ^ .ra: .cfa -72 + ^ x29: .cfa -80 + ^
STACK CFI 2626c .cfa: sp 80 +
STACK CFI 26280 .cfa: sp 0 +
STACK CFI 26284 .cfa: x29 80 +
STACK CFI INIT 263e8 228 .cfa: sp 0 +
STACK CFI 263ec .cfa: sp 128 +
STACK CFI 26404 .cfa: x29 80 + x19: .cfa -8 + ^ x20: .cfa -16 + ^ x21: .cfa -24 + ^ x22: .cfa -32 + ^ x23: .cfa -40 + ^ x24: .cfa -48 + ^ x25: .cfa -64 + ^ .ra: .cfa -72 + ^ x29: .cfa -80 + ^
STACK CFI 265a0 .cfa: sp 128 +
STACK CFI 265b8 .cfa: sp 0 +
STACK CFI 265bc .cfa: x29 80 +
STACK CFI INIT 26cec 154 .cfa: sp 0 +
STACK CFI 26cf0 .cfa: sp 96 +
STACK CFI 26d04 .cfa: x29 64 + x19: .cfa -8 + ^ x20: .cfa -16 + ^ x21: .cfa -24 + ^ x22: .cfa -32 + ^ x23: .cfa -48 + ^ .ra: .cfa -56 + ^ x29: .cfa -64 + ^
STACK CFI 26df8 .cfa: sp 96 +
STACK CFI 26e0c .cfa: sp 0 +
STACK CFI 26e10 .cfa: x29 64 +
STACK CFI INIT 26f08 110 .cfa: sp 0 +
STACK CFI 26f0c .cfa: sp 80 +
STACK CFI 26f1c .cfa: x29 48 + x19: .cfa -8 + ^ x20: .cfa -16 + ^ x21: .cfa -32 + ^ .ra: .cfa -40 + ^ x29: .cfa -48 + ^
STACK CFI 26fcc .cfa: sp 80 +
STACK CFI 26fdc .cfa: sp 0 +
STACK CFI 26fe0 .cfa: x29 48 +
STACK CFI INIT 27018 134 .cfa: sp 0 +
STACK CFI 2701c .cfa: sp 80 +
STACK CFI 2702c .cfa: x29 48 + x19: .cfa -8 + ^ x20: .cfa -16 + ^ x21: .cfa -24 + ^ x22: .cfa -32 + ^ .ra: .cfa -40 + ^ x29: .cfa -48 + ^
STACK CFI 27130 .cfa: sp 80 +
STACK CFI 27140 .cfa: sp 0 +
STACK CFI 27144 .cfa: x29 48 +
STACK CFI INIT 2758c 480 .cfa: sp 0 +
STACK CFI 27590 .cfa: sp 224 +
STACK CFI 275ac .cfa: x29 96 + x19: .cfa -8 + ^ x20: .cfa -16 + ^ x21: .cfa -24 + ^ x22: .cfa -32 + ^ x23: .cfa -40 + ^ x24: .cfa -48 + ^ x25: .cfa -56 + ^ x26: .cfa -64 + ^ x27: .cfa -80 + ^ .ra: .cfa -88 + ^ x29: .cfa -96 + ^
STACK CFI 27818 .cfa: sp 224 +
STACK CFI 27834 .cfa: sp 0 +
STACK CFI 27838 .cfa: x29 96 +
STACK CFI 27904 .cfa: sp 224 +
STACK CFI 27920 .cfa: sp 0 +
STACK CFI 27924 .cfa: x29 96 +
STACK CFI INIT 27a28 480 .cfa: sp 0 +
STACK CFI 27a2c .cfa: sp 224 +
STACK CFI 27a48 .cfa: x29 96 + x19: .cfa -8 + ^ x20: .cfa -16 + ^ x21: .cfa -24 + ^ x22: .cfa -32 + ^ x23: .cfa -40 + ^ x24: .cfa -48 + ^ x25: .cfa -56 + ^ x26: .cfa -64 + ^ x27: .cfa -80 + ^ .ra: .cfa -88 + ^ x29: .cfa -96 + ^
STACK CFI 27cb4 .cfa: sp 224 +
STACK CFI 27cd0 .cfa: sp 0 +
STACK CFI 27cd4 .cfa: x29 96 +
STACK CFI 27da0 .cfa: sp 224 +
STACK CFI 27dbc .cfa: sp 0 +
STACK CFI 27dc0 .cfa: x29 96 +
STACK CFI INIT 27ec4 330 .cfa: sp 0 +
STACK CFI 27ec8 .cfa: sp 224 +
STACK CFI 27edc .cfa: x29 64 + x19: .cfa -8 + ^ x20: .cfa -16 + ^ x21: .cfa -24 + ^ x22: .cfa -32 + ^ x23: .cfa -48 + ^ .ra: .cfa -56 + ^ x29: .cfa -64 + ^
STACK CFI 280e4 .cfa: sp 224 +
STACK CFI 280f8 .cfa: sp 0 +
STACK CFI 280fc .cfa: x29 64 +
STACK CFI INIT 282e8 a8 .cfa: sp 0 +
STACK CFI 282ec .cfa: sp 32 +
STACK CFI 282f4 .cfa: x29 32 + x19: .cfa -16 + ^ .ra: .cfa -24 + ^ x29: .cfa -32 + ^
STACK CFI 28328 .cfa: sp 32 +
STACK CFI 28330 .cfa: sp 0 +
STACK CFI 28334 .cfa: x29 32 +
STACK CFI 28338 .cfa: sp 32 +
STACK CFI 28340 .cfa: sp 0 +
STACK CFI 28344 .cfa: x29 32 +
STACK CFI INIT 2841c 858 .cfa: sp 0 +
STACK CFI 28420 .cfa: sp 128 +
STACK CFI 28440 .cfa: x29 96 + x19: .cfa -8 + ^ x20: .cfa -16 + ^ x21: .cfa -24 + ^ x22: .cfa -32 + ^ x23: .cfa -40 + ^ x24: .cfa -48 + ^ x25: .cfa -56 + ^ x26: .cfa -64 + ^ x27: .cfa -72 + ^ x28: .cfa -80 + ^ .ra: .cfa -88 + ^ x29: .cfa -96 + ^ v8: .cfa -104 + ^ v9: .cfa -112 + ^ v10: .cfa -120 + ^ v11: .cfa -128 + ^
STACK CFI 284ec .cfa: sp 128 +
STACK CFI 2850c .cfa: sp 0 +
STACK CFI 28510 .cfa: x29 96 +
STACK CFI 28b6c .cfa: sp 128 +
STACK CFI 28b8c .cfa: sp 0 +
STACK CFI 28b90 .cfa: x29 96 +
STACK CFI INIT 28c74 340 .cfa: sp 0 +
STACK CFI 28c78 .cfa: sp 240 +
STACK CFI 28c8c .cfa: x29 64 + x19: .cfa -8 + ^ x20: .cfa -16 + ^ x21: .cfa -24 + ^ x22: .cfa -32 + ^ x23: .cfa -48 + ^ .ra: .cfa -56 + ^ x29: .cfa -64 + ^
STACK CFI 28e9c .cfa: sp 240 +
STACK CFI 28eb0 .cfa: sp 0 +
STACK CFI 28eb4 .cfa: x29 64 +
STACK CFI INIT 28fb8 a3c .cfa: sp 0 +
STACK CFI 28fbc .cfa: sp 112 +
STACK CFI 28fd8 .cfa: x29 96 + x19: .cfa -8 + ^ x20: .cfa -16 + ^ x21: .cfa -24 + ^ x22: .cfa -32 + ^ x23: .cfa -40 + ^ x24: .cfa -48 + ^ x25: .cfa -56 + ^ x26: .cfa -64 + ^ x27: .cfa -72 + ^ x28: .cfa -80 + ^ .ra: .cfa -88 + ^ x29: .cfa -96 + ^ v8: .cfa -112 + ^
STACK CFI 2990c .cfa: sp 112 +
STACK CFI 29928 .cfa: sp 0 +
STACK CFI 2992c .cfa: x29 96 +
STACK CFI INIT 29a74 724 .cfa: sp 0 +
STACK CFI 29a78 .cfa: sp 224 +
STACK CFI 29a94 .cfa: x29 96 + x19: .cfa -8 + ^ x20: .cfa -16 + ^ x21: .cfa -24 + ^ x22: .cfa -32 + ^ x23: .cfa -40 + ^ x24: .cfa -48 + ^ x25: .cfa -56 + ^ x26: .cfa -64 + ^ x27: .cfa -72 + ^ x28: .cfa -80 + ^ .ra: .cfa -88 + ^ x29: .cfa -96 + ^
STACK CFI 29fbc .cfa: sp 224 +
STACK CFI 29fd8 .cfa: sp 0 +
STACK CFI 29fdc .cfa: x29 96 +
STACK CFI INIT 2a198 114 .cfa: sp 0 +
STACK CFI 2a19c .cfa: sp 48 +
STACK CFI 2a1a8 .cfa: x29 48 + x19: .cfa -8 + ^ x20: .cfa -16 + ^ x21: .cfa -32 + ^ .ra: .cfa -40 + ^ x29: .cfa -48 + ^
STACK CFI 2a284 .cfa: sp 48 +
STACK CFI 2a290 .cfa: sp 0 +
STACK CFI 2a294 .cfa: x29 48 +
STACK CFI INIT 2a2e0 50 .cfa: sp 0 +
STACK CFI 2a2e4 .cfa: sp 32 +
STACK CFI 2a2ec .cfa: x29 32 + x19: .cfa -8 + ^ x20: .cfa -16 + ^ .ra: .cfa -24 + ^ x29: .cfa -32 + ^
STACK CFI INIT 2a36c 1c .cfa: sp 0 +
STACK CFI 2a370 .cfa: sp 16 +
STACK CFI 2a374 .cfa: x29 16 + .ra: .cfa -8 + ^ x29: .cfa -16 + ^
STACK CFI 2a37c .cfa: sp 16 +
STACK CFI 2a380 .cfa: sp 0 +
STACK CFI 2a384 .cfa: x29 16 +
STACK CFI INIT 2a388 1c .cfa: sp 0 +
STACK CFI 2a38c .cfa: sp 16 +
STACK CFI 2a390 .cfa: x29 16 + .ra: .cfa -8 + ^ x29: .cfa -16 + ^
STACK CFI 2a398 .cfa: sp 16 +
STACK CFI 2a39c .cfa: sp 0 +
STACK CFI 2a3a0 .cfa: x29 16 +
STACK CFI INIT 2a3a4 1c .cfa: sp 0 +
STACK CFI 2a3a8 .cfa: sp 16 +
STACK CFI 2a3ac .cfa: x29 16 + .ra: .cfa -8 + ^ x29: .cfa -16 + ^
STACK CFI 2a3b4 .cfa: sp 16 +
STACK CFI 2a3b8 .cfa: sp 0 +
STACK CFI 2a3bc .cfa: x29 16 +
STACK CFI INIT 2a458 36c .cfa: sp 0 +
STACK CFI 2a45c .cfa: sp 96 +
STACK CFI 2a470 .cfa: x29 48 + x19: .cfa -8 + ^ x20: .cfa -16 + ^ x21: .cfa -24 + ^ x22: .cfa -32 + ^ .ra: .cfa -40 + ^ x29: .cfa -48 + ^ v8: .cfa -56 + ^ v9: .cfa -64 + ^
STACK CFI 2a77c .cfa: sp 96 +
STACK CFI 2a790 .cfa: sp 0 +
STACK CFI 2a794 .cfa: x29 48 +
STACK CFI INIT 2aca8 45c .cfa: sp 0 +
STACK CFI 2acac .cfa: sp 80 +
STACK CFI 2acc0 .cfa: x29 80 + x19: .cfa -8 + ^ x20: .cfa -16 + ^ x21: .cfa -24 + ^ x22: .cfa -32 + ^ x23: .cfa -40 + ^ x24: .cfa -48 + ^ x25: .cfa -56 + ^ x28: .cfa -64 + ^ .ra: .cfa -72 + ^ x29: .cfa -80 + ^
STACK CFI 2aeb0 .cfa: sp 80 +
STACK CFI 2aec4 .cfa: sp 0 +
STACK CFI 2aec8 .cfa: x29 80 +
STACK CFI 2afe4 .cfa: sp 80 +
STACK CFI 2aff8 .cfa: sp 0 +
STACK CFI 2affc .cfa: x29 80 +
STACK CFI INIT 2b12c 2a0 .cfa: sp 0 +
STACK CFI 2b130 .cfa: sp 192 +
STACK CFI 2b148 .cfa: x29 80 + x19: .cfa -8 + ^ x20: .cfa -16 + ^ x21: .cfa -24 + ^ x22: .cfa -32 + ^ x23: .cfa -40 + ^ x24: .cfa -48 + ^ x25: .cfa -56 + ^ x26: .cfa -64 + ^ .ra: .cfa -72 + ^ x29: .cfa -80 + ^
STACK CFI 2b2f8 .cfa: sp 192 +
STACK CFI 2b310 .cfa: sp 0 +
STACK CFI 2b314 .cfa: x29 80 +
STACK CFI INIT 2b490 c0 .cfa: sp 0 +
STACK CFI 2b494 .cfa: sp 64 +
STACK CFI 2b4a4 .cfa: x29 64 + x19: .cfa -8 + ^ x20: .cfa -16 + ^ x21: .cfa -24 + ^ x22: .cfa -32 + ^ x23: .cfa -48 + ^ .ra: .cfa -56 + ^ x29: .cfa -64 + ^
STACK CFI 2b50c .cfa: sp 64 +
STACK CFI 2b51c .cfa: sp 0 +
STACK CFI 2b520 .cfa: x29 64 +
STACK CFI INIT 2b550 ac .cfa: sp 0 +
STACK CFI 2b554 .cfa: sp 64 +
STACK CFI 2b564 .cfa: x29 64 + x19: .cfa -8 + ^ x20: .cfa -16 + ^ x21: .cfa -24 + ^ x22: .cfa -32 + ^ x23: .cfa -48 + ^ .ra: .cfa -56 + ^ x29: .cfa -64 + ^
STACK CFI 2b5c0 .cfa: sp 64 +
STACK CFI 2b5d0 .cfa: sp 0 +
STACK CFI 2b5d4 .cfa: x29 64 +
STACK CFI INIT 2b648 23c .cfa: sp 0 +
STACK CFI 2b64c .cfa: sp 96 +
STACK CFI 2b664 .cfa: x29 96 + x19: .cfa -8 + ^ x20: .cfa -16 + ^ x21: .cfa -24 + ^ x22: .cfa -32 + ^ x23: .cfa -40 + ^ x24: .cfa -48 + ^ x25: .cfa -56 + ^ x26: .cfa -64 + ^ x27: .cfa -72 + ^ x28: .cfa -80 + ^ .ra: .cfa -88 + ^ x29: .cfa -96 + ^
STACK CFI 2b7c0 .cfa: sp 96 +
STACK CFI 2b7d8 .cfa: sp 0 +
STACK CFI 2b7dc .cfa: x29 96 +
STACK CFI INIT 2b968 134 .cfa: sp 0 +
STACK CFI 2b96c .cfa: sp 80 +
STACK CFI 2b978 .cfa: x29 32 + x19: .cfa -8 + ^ x20: .cfa -16 + ^ .ra: .cfa -24 + ^ x29: .cfa -32 + ^
STACK CFI 2b9a8 .cfa: sp 80 +
STACK CFI 2b9b4 .cfa: sp 0 +
STACK CFI 2b9b8 .cfa: x29 32 +
STACK CFI INIT 2ba9c 78 .cfa: sp 0 +
STACK CFI 2baa0 .cfa: sp 32 +
STACK CFI 2baa8 .cfa: x29 32 + x19: .cfa -8 + ^ x20: .cfa -16 + ^ .ra: .cfa -24 + ^ x29: .cfa -32 + ^
STACK CFI 2bab4 .cfa: sp 32 +
STACK CFI 2babc .cfa: sp 0 +
STACK CFI 2bac0 .cfa: x29 32 +
STACK CFI INIT 2bb14 74 .cfa: sp 0 +
STACK CFI 2bb18 .cfa: sp 48 +
STACK CFI 2bb24 .cfa: x29 32 + x19: .cfa -8 + ^ x20: .cfa -16 + ^ .ra: .cfa -24 + ^ x29: .cfa -32 + ^
STACK CFI 2bb70 .cfa: sp 48 +
STACK CFI 2bb7c .cfa: sp 0 +
STACK CFI 2bb80 .cfa: x29 32 +
STACK CFI INIT 2bbec 224 .cfa: sp 0 +
STACK CFI 2bbf0 .cfa: sp 128 +
STACK CFI 2bc00 .cfa: x29 48 + x19: .cfa -8 + ^ x20: .cfa -16 + ^ x21: .cfa -32 + ^ .ra: .cfa -40 + ^ x29: .cfa -48 + ^
STACK CFI 2bcb0 .cfa: sp 128 +
STACK CFI 2bcc0 .cfa: sp 0 +
STACK CFI 2bcc4 .cfa: x29 48 +
STACK CFI INIT 2beac 300 .cfa: sp 0 +
STACK CFI 2beb0 .cfa: sp 144 +
STACK CFI 2bec4 .cfa: x29 64 + x19: .cfa -8 + ^ x20: .cfa -16 + ^ x21: .cfa -24 + ^ x22: .cfa -32 + ^ x23: .cfa -48 + ^ .ra: .cfa -56 + ^ x29: .cfa -64 + ^
STACK CFI 2c058 .cfa: sp 144 +
STACK CFI 2c06c .cfa: sp 0 +
STACK CFI 2c070 .cfa: x29 64 +
STACK CFI INIT 2c200 264 .cfa: sp 0 +
STACK CFI 2c204 .cfa: sp 128 +
STACK CFI 2c214 .cfa: x29 48 + x19: .cfa -8 + ^ x20: .cfa -16 + ^ x21: .cfa -32 + ^ .ra: .cfa -40 + ^ x29: .cfa -48 + ^
STACK CFI 2c30c .cfa: sp 128 +
STACK CFI 2c31c .cfa: sp 0 +
STACK CFI 2c320 .cfa: x29 48 +
STACK CFI INIT 2c4b8 270 .cfa: sp 0 +
STACK CFI 2c4bc .cfa: sp 144 +
STACK CFI 2c4d0 .cfa: x29 64 + x19: .cfa -8 + ^ x20: .cfa -16 + ^ x21: .cfa -24 + ^ x22: .cfa -32 + ^ x23: .cfa -48 + ^ .ra: .cfa -56 + ^ x29: .cfa -64 + ^
STACK CFI 2c5d4 .cfa: sp 144 +
STACK CFI 2c5e8 .cfa: sp 0 +
STACK CFI 2c5ec .cfa: x29 64 +
STACK CFI INIT 2c74c 22c .cfa: sp 0 +
STACK CFI 2c750 .cfa: sp 128 +
STACK CFI 2c760 .cfa: x29 48 + x19: .cfa -8 + ^ x20: .cfa -16 + ^ x21: .cfa -32 + ^ .ra: .cfa -40 + ^ x29: .cfa -48 + ^
STACK CFI 2c818 .cfa: sp 128 +
STACK CFI 2c828 .cfa: sp 0 +
STACK CFI 2c82c .cfa: x29 48 +
STACK CFI INIT 2c978 224 .cfa: sp 0 +
STACK CFI 2c97c .cfa: sp 128 +
STACK CFI 2c98c .cfa: x29 48 + x19: .cfa -8 + ^ x20: .cfa -16 + ^ x21: .cfa -32 + ^ .ra: .cfa -40 + ^ x29: .cfa -48 + ^
STACK CFI 2ca3c .cfa: sp 128 +
STACK CFI 2ca4c .cfa: sp 0 +
STACK CFI 2ca50 .cfa: x29 48 +
STACK CFI INIT 2cb9c 268 .cfa: sp 0 +
STACK CFI 2cba0 .cfa: sp 144 +
STACK CFI 2cbb4 .cfa: x29 64 + x19: .cfa -8 + ^ x20: .cfa -16 + ^ x21: .cfa -24 + ^ x22: .cfa -32 + ^ x23: .cfa -48 + ^ .ra: .cfa -56 + ^ x29: .cfa -64 + ^
STACK CFI 2ccb0 .cfa: sp 144 +
STACK CFI 2ccc4 .cfa: sp 0 +
STACK CFI 2ccc8 .cfa: x29 64 +
STACK CFI INIT 2ce28 160 .cfa: sp 0 +
STACK CFI 2ce2c .cfa: sp 144 +
STACK CFI 2ce40 .cfa: x29 64 + x19: .cfa -8 + ^ x20: .cfa -16 + ^ x21: .cfa -24 + ^ x22: .cfa -32 + ^ x23: .cfa -48 + ^ .ra: .cfa -56 + ^ x29: .cfa -64 + ^
STACK CFI 2ce90 .cfa: sp 144 +
STACK CFI 2cea4 .cfa: sp 0 +
STACK CFI 2cea8 .cfa: x29 64 +
STACK CFI INIT 2cf88 108 .cfa: sp 0 +
STACK CFI 2cf8c .cfa: sp 64 +
STACK CFI 2cf9c .cfa: x29 48 + x19: .cfa -8 + ^ x20: .cfa -16 + ^ x21: .cfa -24 + ^ x22: .cfa -32 + ^ .ra: .cfa -40 + ^ x29: .cfa -48 + ^
STACK CFI 2d048 .cfa: sp 64 +
STACK CFI 2d058 .cfa: sp 0 +
STACK CFI 2d05c .cfa: x29 48 +
STACK CFI INIT 2d090 150 .cfa: sp 0 +
STACK CFI 2d094 .cfa: sp 128 +
STACK CFI 2d0a4 .cfa: x29 48 + x19: .cfa -8 + ^ x20: .cfa -16 + ^ x21: .cfa -24 + ^ x22: .cfa -32 + ^ .ra: .cfa -40 + ^ x29: .cfa -48 + ^
STACK CFI 2d0ec .cfa: sp 128 +
STACK CFI 2d0fc .cfa: sp 0 +
STACK CFI 2d100 .cfa: x29 48 +
STACK CFI INIT 2d1e0 a8 .cfa: sp 0 +
STACK CFI 2d1e4 .cfa: sp 64 +
STACK CFI 2d1f4 .cfa: x29 48 + x19: .cfa -8 + ^ x20: .cfa -16 + ^ x21: .cfa -32 + ^ .ra: .cfa -40 + ^ x29: .cfa -48 + ^
STACK CFI 2d25c .cfa: sp 64 +
STACK CFI 2d26c .cfa: sp 0 +
STACK CFI 2d270 .cfa: x29 48 +
STACK CFI INIT 2d288 150 .cfa: sp 0 +
STACK CFI 2d28c .cfa: sp 128 +
STACK CFI 2d29c .cfa: x29 48 + x19: .cfa -8 + ^ x20: .cfa -16 + ^ x21: .cfa -24 + ^ x22: .cfa -32 + ^ .ra: .cfa -40 + ^ x29: .cfa -48 + ^
STACK CFI 2d2e4 .cfa: sp 128 +
STACK CFI 2d2f4 .cfa: sp 0 +
STACK CFI 2d2f8 .cfa: x29 48 +
STACK CFI INIT 2d3d8 ac .cfa: sp 0 +
STACK CFI 2d3dc .cfa: sp 64 +
STACK CFI 2d3ec .cfa: x29 48 + x19: .cfa -8 + ^ x20: .cfa -16 + ^ x21: .cfa -32 + ^ .ra: .cfa -40 + ^ x29: .cfa -48 + ^
STACK CFI 2d458 .cfa: sp 64 +
STACK CFI 2d468 .cfa: sp 0 +
STACK CFI 2d46c .cfa: x29 48 +
STACK CFI INIT 2d4d8 1b8 .cfa: sp 0 +
STACK CFI 2d4dc .cfa: sp 160 +
STACK CFI 2d4f8 .cfa: x29 72 + x19: .cfa -8 + ^ x20: .cfa -16 + ^ x21: .cfa -24 + ^ x22: .cfa -32 + ^ x23: .cfa -40 + ^ x24: .cfa -48 + ^ x25: .cfa -56 + ^ .ra: .cfa -64 + ^ x29: .cfa -72 + ^ v8: .cfa -80 + ^
STACK CFI 2d57c .cfa: sp 160 +
STACK CFI 2d598 .cfa: sp 0 +
STACK CFI 2d59c .cfa: x29 72 +
STACK CFI INIT 2d690 4e4 .cfa: sp 0 +
STACK CFI 2d694 .cfa: sp 96 +
STACK CFI 2d6ac .cfa: x29 80 + x19: .cfa -8 + ^ x20: .cfa -16 + ^ x21: .cfa -24 + ^ x22: .cfa -32 + ^ x23: .cfa -40 + ^ x24: .cfa -48 + ^ x25: .cfa -64 + ^ .ra: .cfa -72 + ^ x29: .cfa -80 + ^
STACK CFI 2daf0 .cfa: sp 96 +
STACK CFI 2db08 .cfa: sp 0 +
STACK CFI 2db0c .cfa: x29 80 +
STACK CFI INIT 2db74 2e4 .cfa: sp 0 +
STACK CFI 2db78 .cfa: sp 144 +
STACK CFI 2db8c .cfa: x29 64 + x19: .cfa -8 + ^ x20: .cfa -16 + ^ x21: .cfa -24 + ^ x22: .cfa -32 + ^ x23: .cfa -48 + ^ .ra: .cfa -56 + ^ x29: .cfa -64 + ^
STACK CFI 2dd04 .cfa: sp 144 +
STACK CFI 2dd18 .cfa: sp 0 +
STACK CFI 2dd1c .cfa: x29 64 +
STACK CFI INIT 2de58 2e4 .cfa: sp 0 +
STACK CFI 2de5c .cfa: sp 144 +
STACK CFI 2de70 .cfa: x29 64 + x19: .cfa -8 + ^ x20: .cfa -16 + ^ x21: .cfa -24 + ^ x22: .cfa -32 + ^ x23: .cfa -48 + ^ .ra: .cfa -56 + ^ x29: .cfa -64 + ^
STACK CFI 2dfe8 .cfa: sp 144 +
STACK CFI 2dffc .cfa: sp 0 +
STACK CFI 2e000 .cfa: x29 64 +
STACK CFI INIT 2e13c 2a0 .cfa: sp 0 +
STACK CFI 2e140 .cfa: sp 144 +
STACK CFI 2e154 .cfa: x29 64 + x19: .cfa -8 + ^ x20: .cfa -16 + ^ x21: .cfa -24 + ^ x22: .cfa -32 + ^ x23: .cfa -48 + ^ .ra: .cfa -56 + ^ x29: .cfa -64 + ^
STACK CFI 2e288 .cfa: sp 144 +
STACK CFI 2e29c .cfa: sp 0 +
STACK CFI 2e2a0 .cfa: x29 64 +
STACK CFI INIT 2e3dc 2f0 .cfa: sp 0 +
STACK CFI 2e3e0 .cfa: sp 144 +
STACK CFI 2e3f4 .cfa: x29 64 + x19: .cfa -8 + ^ x20: .cfa -16 + ^ x21: .cfa -24 + ^ x22: .cfa -32 + ^ x23: .cfa -48 + ^ .ra: .cfa -56 + ^ x29: .cfa -64 + ^
STACK CFI 2e578 .cfa: sp 144 +
STACK CFI 2e58c .cfa: sp 0 +
STACK CFI 2e590 .cfa: x29 64 +
STACK CFI INIT 2e6cc 4f4 .cfa: sp 0 +
STACK CFI 2e6d0 .cfa: sp 144 +
STACK CFI 2e6e4 .cfa: x29 64 + x19: .cfa -8 + ^ x20: .cfa -16 + ^ x21: .cfa -24 + ^ x22: .cfa -32 + ^ x23: .cfa -48 + ^ .ra: .cfa -56 + ^ x29: .cfa -64 + ^
STACK CFI 2ea18 .cfa: sp 144 +
STACK CFI 2ea2c .cfa: sp 0 +
STACK CFI 2ea30 .cfa: x29 64 +
STACK CFI INIT 2ebc0 154 .cfa: sp 0 +
STACK CFI 2ebc4 .cfa: sp 384 +
STACK CFI 2ebd8 .cfa: x29 64 + x19: .cfa -8 + ^ x20: .cfa -16 + ^ x21: .cfa -24 + ^ x22: .cfa -32 + ^ x23: .cfa -40 + ^ x28: .cfa -48 + ^ .ra: .cfa -56 + ^ x29: .cfa -64 + ^
STACK CFI 2ecbc .cfa: sp 384 +
STACK CFI 2ecd0 .cfa: sp 0 +
STACK CFI 2ecd4 .cfa: x29 64 +
STACK CFI INIT 2ed14 168 .cfa: sp 0 +
STACK CFI 2ed18 .cfa: sp 384 +
STACK CFI 2ed2c .cfa: x29 64 + x19: .cfa -8 + ^ x20: .cfa -16 + ^ x21: .cfa -24 + ^ x22: .cfa -32 + ^ x23: .cfa -40 + ^ x28: .cfa -48 + ^ .ra: .cfa -56 + ^ x29: .cfa -64 + ^
STACK CFI 2ee24 .cfa: sp 384 +
STACK CFI 2ee38 .cfa: sp 0 +
STACK CFI 2ee3c .cfa: x29 64 +
STACK CFI INIT 2ee94 50c .cfa: sp 0 +
STACK CFI 2ee98 .cfa: sp 64 +
STACK CFI 2eea8 .cfa: x29 64 + x19: .cfa -8 + ^ x20: .cfa -16 + ^ x21: .cfa -24 + ^ x22: .cfa -32 + ^ x23: .cfa -40 + ^ x24: .cfa -48 + ^ .ra: .cfa -56 + ^ x29: .cfa -64 + ^
STACK CFI 2efc8 .cfa: sp 64 +
STACK CFI 2efd8 .cfa: sp 0 +
STACK CFI 2efdc .cfa: x29 64 +
STACK CFI 2f374 .cfa: sp 64 +
STACK CFI 2f384 .cfa: sp 0 +
STACK CFI 2f388 .cfa: x29 64 +
STACK CFI INIT 2f6d0 294 .cfa: sp 0 +
STACK CFI 2f6d4 .cfa: sp 240 +
STACK CFI 2f6ec .cfa: x29 80 + x19: .cfa -8 + ^ x20: .cfa -16 + ^ x21: .cfa -24 + ^ x22: .cfa -32 + ^ x23: .cfa -40 + ^ x24: .cfa -48 + ^ x25: .cfa -64 + ^ .ra: .cfa -72 + ^ x29: .cfa -80 + ^
STACK CFI 2f88c .cfa: sp 240 +
STACK CFI 2f8a4 .cfa: sp 0 +
STACK CFI 2f8a8 .cfa: x29 80 +
STACK CFI INIT 2f9e0 50 .cfa: sp 0 +
STACK CFI 2f9e4 .cfa: sp 32 +
STACK CFI 2f9ec .cfa: x29 32 + x19: .cfa -8 + ^ x20: .cfa -16 + ^ .ra: .cfa -24 + ^ x29: .cfa -32 + ^
STACK CFI INIT 2fa5c 7c0 .cfa: sp 0 +
STACK CFI 2fa60 .cfa: sp 320 +
STACK CFI 2fa7c .cfa: x29 96 + x19: .cfa -8 + ^ x20: .cfa -16 + ^ x21: .cfa -24 + ^ x22: .cfa -32 + ^ x23: .cfa -40 + ^ x24: .cfa -48 + ^ x25: .cfa -56 + ^ x26: .cfa -64 + ^ x27: .cfa -72 + ^ x28: .cfa -80 + ^ .ra: .cfa -88 + ^ x29: .cfa -96 + ^
STACK CFI 300cc .cfa: sp 320 +
STACK CFI 300e8 .cfa: sp 0 +
STACK CFI 300ec .cfa: x29 96 +
STACK CFI INIT 33dc0 c84 .cfa: sp 0 +
STACK CFI 33dc4 .cfa: sp 96 +
STACK CFI 33ddc .cfa: x29 96 + x19: .cfa -8 + ^ x20: .cfa -16 + ^ x21: .cfa -24 + ^ x22: .cfa -32 + ^ x23: .cfa -40 + ^ x24: .cfa -48 + ^ x25: .cfa -56 + ^ x26: .cfa -64 + ^ x27: .cfa -72 + ^ x28: .cfa -80 + ^ .ra: .cfa -88 + ^ x29: .cfa -96 + ^
STACK CFI 34864 .cfa: sp 96 +
STACK CFI 3487c .cfa: sp 0 +
STACK CFI 34880 .cfa: x29 96 +
STACK CFI INIT 34b98 26c .cfa: sp 0 +
STACK CFI 34b9c .cfa: sp 128 +
STACK CFI 34bac .cfa: x29 48 + x19: .cfa -8 + ^ x20: .cfa -16 + ^ x21: .cfa -24 + ^ x22: .cfa -32 + ^ .ra: .cfa -40 + ^ x29: .cfa -48 + ^
STACK CFI 34d50 .cfa: sp 128 +
STACK CFI 34d60 .cfa: sp 0 +
STACK CFI 34d64 .cfa: x29 48 +
STACK CFI INIT 35350 3b8 .cfa: sp 0 +
STACK CFI 35354 .cfa: sp 96 +
STACK CFI 3536c .cfa: x29 96 + x19: .cfa -8 + ^ x20: .cfa -16 + ^ x21: .cfa -24 + ^ x22: .cfa -32 + ^ x23: .cfa -40 + ^ x24: .cfa -48 + ^ x25: .cfa -56 + ^ x26: .cfa -64 + ^ x27: .cfa -72 + ^ x28: .cfa -80 + ^ .ra: .cfa -88 + ^ x29: .cfa -96 + ^
STACK CFI 356a8 .cfa: sp 96 +
STACK CFI 356c0 .cfa: sp 0 +
STACK CFI 356c4 .cfa: x29 96 +
STACK CFI INIT 357a8 cc0 .cfa: sp 0 +
STACK CFI 357ac .cfa: sp 96 +
STACK CFI 357c4 .cfa: x29 96 + x19: .cfa -8 + ^ x20: .cfa -16 + ^ x21: .cfa -24 + ^ x22: .cfa -32 + ^ x23: .cfa -40 + ^ x24: .cfa -48 + ^ x25: .cfa -56 + ^ x26: .cfa -64 + ^ x27: .cfa -72 + ^ x28: .cfa -80 + ^ .ra: .cfa -88 + ^ x29: .cfa -96 + ^
STACK CFI 36278 .cfa: sp 96 +
STACK CFI 36290 .cfa: sp 0 +
STACK CFI 36294 .cfa: x29 96 +
STACK CFI INIT 36750 af8 .cfa: sp 0 +
STACK CFI 36754 .cfa: sp 96 +
STACK CFI 3676c .cfa: x29 96 + x19: .cfa -8 + ^ x20: .cfa -16 + ^ x21: .cfa -24 + ^ x22: .cfa -32 + ^ x23: .cfa -40 + ^ x24: .cfa -48 + ^ x25: .cfa -56 + ^ x26: .cfa -64 + ^ x27: .cfa -72 + ^ x28: .cfa -80 + ^ .ra: .cfa -88 + ^ x29: .cfa -96 + ^
STACK CFI 371bc .cfa: sp 96 +
STACK CFI 371d4 .cfa: sp 0 +
STACK CFI 371d8 .cfa: x29 96 +
STACK CFI INIT 3743c 1430 .cfa: sp 0 +
STACK CFI 37440 .cfa: sp 96 +
STACK CFI 37458 .cfa: x29 96 + x19: .cfa -8 + ^ x20: .cfa -16 + ^ x21: .cfa -24 + ^ x22: .cfa -32 + ^ x23: .cfa -40 + ^ x24: .cfa -48 + ^ x25: .cfa -56 + ^ x26: .cfa -64 + ^ x27: .cfa -72 + ^ x28: .cfa -80 + ^ .ra: .cfa -88 + ^ x29: .cfa -96 + ^
STACK CFI 386f4 .cfa: sp 96 +
STACK CFI 3870c .cfa: sp 0 +
STACK CFI 38710 .cfa: x29 96 +
STACK CFI INIT 38990 75c .cfa: sp 0 +
STACK CFI 38994 .cfa: sp 368 +
STACK CFI 389b0 .cfa: x29 96 + x19: .cfa -8 + ^ x20: .cfa -16 + ^ x21: .cfa -24 + ^ x22: .cfa -32 + ^ x23: .cfa -40 + ^ x24: .cfa -48 + ^ x25: .cfa -56 + ^ x26: .cfa -64 + ^ x27: .cfa -72 + ^ x28: .cfa -80 + ^ .ra: .cfa -88 + ^ x29: .cfa -96 + ^
STACK CFI 38a64 .cfa: sp 368 +
STACK CFI 38a80 .cfa: sp 0 +
STACK CFI 38a84 .cfa: x29 96 +
STACK CFI 38ad8 .cfa: sp 368 +
STACK CFI 38af4 .cfa: sp 0 +
STACK CFI 38af8 .cfa: x29 96 +
STACK CFI INIT 394ac ee0 .cfa: sp 0 +
STACK CFI 394b0 .cfa: sp 96 +
STACK CFI 394c8 .cfa: x29 96 + x19: .cfa -8 + ^ x20: .cfa -16 + ^ x21: .cfa -24 + ^ x22: .cfa -32 + ^ x23: .cfa -40 + ^ x24: .cfa -48 + ^ x25: .cfa -56 + ^ x26: .cfa -64 + ^ x27: .cfa -72 + ^ x28: .cfa -80 + ^ .ra: .cfa -88 + ^ x29: .cfa -96 + ^
STACK CFI 3a184 .cfa: sp 96 +
STACK CFI 3a19c .cfa: sp 0 +
STACK CFI 3a1a0 .cfa: x29 96 +
STACK CFI INIT 3a700 1ae4 .cfa: sp 0 +
STACK CFI 3a704 .cfa: sp 112 +
STACK CFI 3a720 .cfa: x29 96 + x19: .cfa -8 + ^ x20: .cfa -16 + ^ x21: .cfa -24 + ^ x22: .cfa -32 + ^ x23: .cfa -40 + ^ x24: .cfa -48 + ^ x25: .cfa -56 + ^ x26: .cfa -64 + ^ x27: .cfa -72 + ^ x28: .cfa -80 + ^ .ra: .cfa -88 + ^ x29: .cfa -96 + ^ v8: .cfa -112 + ^
STACK CFI 3ab14 .cfa: sp 112 +
STACK CFI 3ab30 .cfa: sp 0 +
STACK CFI 3ab34 .cfa: x29 96 +
STACK CFI INIT 3e5f4 9a0 .cfa: sp 0 +
STACK CFI 3e5f8 .cfa: sp 144 +
STACK CFI 3e610 .cfa: x29 80 + x19: .cfa -8 + ^ x20: .cfa -16 + ^ x21: .cfa -24 + ^ x22: .cfa -32 + ^ x23: .cfa -40 + ^ x24: .cfa -48 + ^ x25: .cfa -64 + ^ .ra: .cfa -72 + ^ x29: .cfa -80 + ^
STACK CFI 3ef10 .cfa: sp 144 +
STACK CFI 3ef28 .cfa: sp 0 +
STACK CFI 3ef2c .cfa: x29 80 +
STACK CFI INIT 3ef94 57c .cfa: sp 0 +
STACK CFI 3ef98 .cfa: sp 96 +
STACK CFI 3efb0 .cfa: x29 96 + x19: .cfa -8 + ^ x20: .cfa -16 + ^ x21: .cfa -24 + ^ x22: .cfa -32 + ^ x23: .cfa -40 + ^ x24: .cfa -48 + ^ x25: .cfa -56 + ^ x26: .cfa -64 + ^ x27: .cfa -72 + ^ x28: .cfa -80 + ^ .ra: .cfa -88 + ^ x29: .cfa -96 + ^
STACK CFI 3f474 .cfa: sp 96 +
STACK CFI 3f48c .cfa: sp 0 +
STACK CFI 3f490 .cfa: x29 96 +
STACK CFI INIT 3f510 67c .cfa: sp 0 +
STACK CFI 3f514 .cfa: sp 96 +
STACK CFI 3f52c .cfa: x29 96 + x19: .cfa -8 + ^ x20: .cfa -16 + ^ x21: .cfa -24 + ^ x22: .cfa -32 + ^ x23: .cfa -40 + ^ x24: .cfa -48 + ^ x25: .cfa -56 + ^ x26: .cfa -64 + ^ x27: .cfa -72 + ^ x28: .cfa -80 + ^ .ra: .cfa -88 + ^ x29: .cfa -96 + ^
STACK CFI 3faf0 .cfa: sp 96 +
STACK CFI 3fb08 .cfa: sp 0 +
STACK CFI 3fb0c .cfa: x29 96 +
