MODULE Linux arm EB7A02BF91A2156D0C0E42B4D752928C0 weebify.level_info_in_pause_menu.android32.so
INFO CODE_ID BF027AEBA2916D150C0E42B4D752928C3A7EF670
INFO GENERATOR mozilla/dump_syms 2.3.4
FILE 0 /home/runner/work/lvlinfo-in-pause-geode/lvlinfo-in-pause-geode/geode-sdk-clone/loader/include/Geode/utils/addresser.hpp
FILE 1 /usr/local/lib/android/sdk/ndk/27.2.12479018/toolchains/llvm/prebuilt/linux-x86_64/sysroot/usr/include/c++/v1/ostream
FILE 2 /usr/local/lib/android/sdk/ndk/27.2.12479018/toolchains/llvm/prebuilt/linux-x86_64/sysroot/usr/include/c++/v1/locale
FILE 3 /usr/local/lib/android/sdk/ndk/27.2.12479018/toolchains/llvm/prebuilt/linux-x86_64/sysroot/usr/include/c++/v1/stdexcept
FILE 4 /usr/local/lib/android/sdk/ndk/27.2.12479018/toolchains/llvm/prebuilt/linux-x86_64/sysroot/usr/include/c++/v1/__tree
FILE 5 /usr/local/lib/android/sdk/ndk/27.2.12479018/toolchains/llvm/prebuilt/linux-x86_64/sysroot/usr/include/c++/v1/variant
FILE 6 /usr/local/lib/android/sdk/ndk/27.2.12479018/toolchains/llvm/prebuilt/linux-x86_64/sysroot/usr/include/c++/v1/new
FILE 7 /home/runner/work/lvlinfo-in-pause-geode/lvlinfo-in-pause-geode/build/bindings/bindings/Geode/modify/PauseLayer.hpp
FILE 8 /usr/local/lib/android/sdk/ndk/27.2.12479018/toolchains/llvm/prebuilt/linux-x86_64/sysroot/usr/include/c++/v1/sstream
FILE 9 /home/runner/work/lvlinfo-in-pause-geode/lvlinfo-in-pause-geode/src/utils.hpp
FILE 10 /usr/local/lib/android/sdk/ndk/27.2.12479018/toolchains/llvm/prebuilt/linux-x86_64/sysroot/usr/include/c++/v1/deque
FILE 11 /home/runner/work/lvlinfo-in-pause-geode/lvlinfo-in-pause-geode/geode-sdk-clone/loader/include/Geode/modify/Modify.hpp
FILE 12 /usr/local/lib/android/sdk/ndk/27.2.12479018/toolchains/llvm/prebuilt/linux-x86_64/sysroot/usr/include/c++/v1/string
FILE 13 /usr/local/lib/android/sdk/ndk/27.2.12479018/toolchains/llvm/prebuilt/linux-x86_64/sysroot/usr/include/c++/v1/__split_buffer
FILE 14 /usr/local/lib/android/sdk/ndk/27.2.12479018/toolchains/llvm/prebuilt/linux-x86_64/sysroot/usr/include/c++/v1/__memory/shared_ptr.h
FILE 15 /home/runner/work/lvlinfo-in-pause-geode/lvlinfo-in-pause-geode/cpm-cache/result/28b1b03e0682509636d5e5825265ce2421aac4dc/include/Geode/Result.hpp
FILE 16 /usr/local/lib/android/sdk/ndk/27.2.12479018/toolchains/llvm/prebuilt/linux-x86_64/sysroot/usr/include/c++/v1/vector
FILE 17 /usr/local/lib/android/sdk/ndk/27.2.12479018/toolchains/llvm/prebuilt/linux-x86_64/sysroot/usr/include/c++/v1/__memory/unique_ptr.h
FILE 18 /home/runner/work/lvlinfo-in-pause-geode/lvlinfo-in-pause-geode/src/main.cpp
FILE 19 /home/runner/work/lvlinfo-in-pause-geode/lvlinfo-in-pause-geode/cpm-cache/tuliphook/727bc6fdab39f84eb52f1519195d5488a312e77e/include/tulip/HandlerData.hpp
FILE 20 /home/runner/work/lvlinfo-in-pause-geode/lvlinfo-in-pause-geode/build/bindings/bindings/Geode/binding/PauseLayer.hpp
FILE 21 /home/runner/work/lvlinfo-in-pause-geode/lvlinfo-in-pause-geode/geode-sdk-clone/entry.cpp
FILE 22 /home/runner/work/lvlinfo-in-pause-geode/lvlinfo-in-pause-geode/build/bindings/bindings/Geode/GeneratedSource.cpp
FILE 23 /home/runner/work/lvlinfo-in-pause-geode/lvlinfo-in-pause-geode/cpm-cache/tuliphook/727bc6fdab39f84eb52f1519195d5488a312e77e/include/tulip/WrapperData.hpp
FILE 24 /home/runner/work/lvlinfo-in-pause-geode/lvlinfo-in-pause-geode/cpm-cache/tuliphook/727bc6fdab39f84eb52f1519195d5488a312e77e/include/tulip/AbstractFunction.hpp
PUBLIC 2d60 0 __on_dlclose
PUBLIC 2d70 0 __emutls_unregister_key
PUBLIC 2d74 0 __on_dlclose_late
PUBLIC 2d78 0 __atexit_handler_wrapper
PUBLIC 2d84 0 atexit
PUBLIC 2da4 0 pthread_atfork
FUNC 2db4 60 0 std::__ndk1::basic_ostringstream<char, std::__ndk1::char_traits<char>, std::__ndk1::allocator<char> >::~basic_ostringstream()
2db4 60 1103 8
FUNC 2e14 22c 0 formatTime(int)
2e14 e 24 9
2e22 70 25 9
2e92 4 26 9
2e96 12 25 9
2ea8 1a 26 9
2ec2 1c 27 9
2ede 4 28 9
2ee2 26 30 9
2f08 10 31 9
2f18 a 32 9
2f22 12 35 9
2f34 6e 36 9
2fa2 6 37 9
2fa8 4 36 9
2fac 4e 37 9
2ffa 6 36 9
3000 18 25 9
3018 28 37 9
FUNC 3040 7c 0 std::__ndk1::deque<int, std::__ndk1::allocator<int> >::~deque[abi:ne180000]()
3040 8 564 10
3048 3c 565 10
3084 4 569 10
3088 8 570 10
3090 4 569 10
3094 28 571 10
FUNC 30bc 68 0 std::__ndk1::basic_stringstream<char, std::__ndk1::char_traits<char>, std::__ndk1::allocator<char> >::~basic_stringstream()
30bc 68 1102 8
FUNC 3124 878 0 __cxx_global_var_init
3144 858 387 11
FUNC 399c 1c 0 geode::modifier::ModifyBase<geode::modifier::ModifyDerive<ModPauseLayer, PauseLayer> >::~ModifyBase()
399c 1c 141 11
FUNC 39b8 108 0 std::__ndk1::__put_character_sequence[abi:ne180000]<char, std::__ndk1::char_traits<char> >(std::__ndk1::basic_ostream<char, std::__ndk1::char_traits<char> >, std::__ndk1::basic_ostream const*, unsigned int)
39b8 1c 665 1
39d4 6 669 1
39da 6 670 1
39e0 c 673 1
39ec 2 678 1
39ee 4 675 1
39f2 4 673 1
39f6 2a 678 1
3a20 2 672 1
3a22 4 675 1
3a26 4 672 1
3a2a 8 675 1
3a32 4 672 1
3a36 4 675 1
3a3a 6 672 1
3a40 16 680 1
3a56 10 683 1
3a66 16 687 1
3a7c a 678 1
3a86 e 683 1
3a94 e 684 1
3aa2 1e 685 1
FUNC 3ac0 110 0 std::__ndk1::__pad_and_output[abi:ne180000]<char, std::__ndk1::char_traits<char> >(std::__ndk1::char_traits<char>, std::__ndk1::ostreambuf_iterator const*, std::__ndk1::ostreambuf_iterator const, std::__ndk1::ostreambuf_iterator const, std::__ndk1::ios_base&, std::__ndk1::ostreambuf_iterator)
3ac0 10 1246 2
3ad0 12 1247 2
3ae2 2 1249 2
3ae4 6 1255 2
3aea 4 1250 2
3aee 6 1251 2
3af4 4 1256 2
3af8 e 1257 2
3b06 a 1262 2
3b10 3a 1263 2
3b4a 2 1264 2
3b4c 2 1263 2
3b4e 18 1264 2
3b66 12 1268 2
3b78 4 1269 2
3b7c 4 1270 2
3b80 12 1271 2
3b92 14 1276 2
3ba6 10 1278 2
3bb6 1a 1268 2
PUBLIC 3bd1 0 __clang_call_terminate
FUNC 3bdc 10 0 std::__ndk1::basic_string<char, std::__ndk1::char_traits<char>, std::__ndk1::allocator<char> >::__throw_length_error[abi:ne180000]() const
3bdc 4 2118 12
3be0 c 2119 12
FUNC 3bec 38 0 std::__ndk1::__throw_length_error[abi:ne180000](char const*)
3bec 6 239 3
3bf2 32 241 3
FUNC 3c24 18 0 std::length_error::length_error[abi:ne180000](char const*)
3c24 18 152 3
FUNC 3c3c 28 0 std::__throw_bad_array_new_length([abi:ne180000], void)
3c3c 4 172 6
3c40 24 174 6
FUNC 3c64 e0 0 std::__ndk1::basic_stringbuf<char, std::__ndk1::char_traits<char>, std::__ndk1::allocator<char> >::__init_buf_ptrs[abi:ne180000]()
3c64 8 626 8
3c6c c 628 8
3c78 4 629 8
3c7c 2 630 8
3c7e 2 628 8
3c80 2 627 8
3c82 4 628 8
3c86 8 629 8
3c8e 4 628 8
3c92 2 630 8
3c94 6 631 8
3c9a 6 632 8
3ca0 2 631 8
3ca2 4 634 8
3ca6 2 636 8
3ca8 6 635 8
3cae 42 636 8
3cf0 4 637 8
3cf4 4 638 8
3cf8 c 637 8
3d04 2 638 8
3d06 4 637 8
3d0a 2 638 8
3d0c 6 639 8
3d12 6 643 8
3d18 6 647 8
3d1e c 641 8
3d2a e 639 8
3d38 6 644 8
3d3e 6 647 8
FUNC 3d44 66 0 std::__ndk1::basic_string<char, std::__ndk1::char_traits<char>, std::__ndk1::allocator<char> >::__assign_no_alias<true>(char const*, unsigned int)
3d44 c 2450 12
3d50 4 2452 12
3d54 8 2457 12
3d5c c 2458 12
3d68 34 2464 12
3d9c 8 2466 12
3da4 6 2464 12
FUNC 3daa 11e 0 std::__ndk1::__split_buffer<int*, std::__ndk1::allocator<int*> >::push_front(int* const&)
3daa c 454 13
3db6 e 455 13
3dc4 8 456 13
3dcc 4 457 13
3dd0 4 459 13
3dd4 c 458 13
3de0 12 459 13
3df2 8 460 13
3dfa 6 459 13
3e00 c 462 13
3e0c 1c 463 13
3e28 6e 464 13
3e96 4 469 13
3e9a 4 465 13
3e9e 4 467 13
3ea2 8 469 13
3eaa c 471 13
3eb6 6 472 13
3ebc 8 473 13
3ec4 4 463 13
FUNC 3ed0 584 0 geode::modifier::ModifyDerive<ModPauseLayer, PauseLayer>::apply()
3ed0 10 281 7
3ee0 244 298 7
4124 21e 308 7
4342 12 311 7
4354 26 298 7
437a 2c 308 7
43a6 ae 298 7
FUNC 4454 3a 0 std::__ndk1::shared_ptr<geode::Hook>::~shared_ptr[abi:ne180000]()
4454 4 643 14
4458 4 644 14
445c 1a 645 14
4476 4 646 14
447a 12 645 14
448c 2 646 14
FUNC 4490 60 0 geode::impl::ResultData<geode::Hook*, std::__ndk1::basic_string<char, std::__ndk1::char_traits<char>, std::__ndk1::allocator<char> > >::~ResultData()
4490 60 334 15
FUNC 44f0 3e 0 std::__ndk1::vector<std::__ndk1::basic_string<char, std::__ndk1::char_traits<char>, std::__ndk1::allocator<char> >, std::__ndk1::allocator<std::__ndk1::basic_string<char, std::__ndk1::char_traits<char>, std::__ndk1::allocator<char> > > >::~vector[abi:ne180000]()
44f0 3e 501 16
FUNC 452e 2 0 geode::modifier::ModifyBase<geode::modifier::ModifyDerive<ModPauseLayer, PauseLayer> >::apply()
452e 2 357 11
FUNC 4530 cc 0 std::__ndk1::__tree<std::__ndk1::__value_type<std::__ndk1::basic_string<char, std::__ndk1::char_traits<char>, std::__ndk1::allocator<char> >, std::__ndk1::shared_ptr<geode::Hook> >, std::__ndk1::__map_value_compare<std::__ndk1::basic_string<char, std::__ndk1::char_traits<char>, std::__ndk1::allocator<char> >, std::__ndk1::__value_type<std::__ndk1::basic_string<char, std::__ndk1::char_traits<char>, std::__ndk1::allocator<char> >, std::__ndk1::shared_ptr<geode::Hook> >, std::__ndk1::less<std::__ndk1::basic_string<char, std::__ndk1::char_traits<char>, std::__ndk1::allocator<char> > >, true>, std::__ndk1::allocator<std::__ndk1::__value_type<std::__ndk1::basic_string<char, std::__ndk1::char_traits<char>, std::__ndk1::allocator<char> >, std::__ndk1::shared_ptr<geode::Hook> > > >::find<std::__ndk1::basic_string<char, std::__ndk1::char_traits<char>, std::__ndk1::allocator<char> > >(std::__ndk1::basic_string<char, std::__ndk1::char_traits<char>, std::__ndk1::allocator<char> > const&)
4530 8 2087 4
4538 76 2088 4
45ae 42 2089 4
45f0 c 2092 4
FUNC 45fc ba 0 std::__ndk1::__tree<std::__ndk1::__value_type<std::__ndk1::basic_string<char, std::__ndk1::char_traits<char>, std::__ndk1::allocator<char> >, std::__ndk1::shared_ptr<geode::Hook> >, std::__ndk1::__map_value_compare<std::__ndk1::basic_string<char, std::__ndk1::char_traits<char>, std::__ndk1::allocator<char> >, std::__ndk1::__value_type<std::__ndk1::basic_string<char, std::__ndk1::char_traits<char>, std::__ndk1::allocator<char> >, std::__ndk1::shared_ptr<geode::Hook> >, std::__ndk1::less<std::__ndk1::basic_string<char, std::__ndk1::char_traits<char>, std::__ndk1::allocator<char> > >, true>, std::__ndk1::allocator<std::__ndk1::__value_type<std::__ndk1::basic_string<char, std::__ndk1::char_traits<char>, std::__ndk1::allocator<char> >, std::__ndk1::shared_ptr<geode::Hook> > > >::__find_equal<std::__ndk1::basic_string<char, std::__ndk1::char_traits<char>, std::__ndk1::allocator<char> > >(std::__ndk1::__tree_end_node<std::__ndk1::__tree_node_base<void*>*>*&, std::__ndk1::basic_string<char, std::__ndk1::char_traits<char>, std::__ndk1::allocator<char> > const&)
45fc e 1682 4
460a 4 1683 4
460e 1a 1685 4
4628 8 1688 4
4630 44 1687 4
4674 26 1695 4
469a 12 1696 4
46ac a 1711 4
FUNC 46b6 5c 0 std::__ndk1::unique_ptr<std::__ndk1::__tree_node<std::__ndk1::__value_type<std::__ndk1::basic_string<char, std::__ndk1::char_traits<char>, std::__ndk1::allocator<char> >, std::__ndk1::shared_ptr<geode::Hook> >, void*>, std::__ndk1::__tree_node_destructor<std::__ndk1::allocator<std::__ndk1::__tree_node<std::__ndk1::__value_type<std::__ndk1::basic_string<char, std::__ndk1::char_traits<char>, std::__ndk1::allocator<char> >, std::__ndk1::shared_ptr<geode::Hook> >, void*> > > >::~unique_ptr[abi:ne180000]()
46b6 5c 240 17
FUNC 4712 46 0 std::__ndk1::basic_string<char, std::__ndk1::char_traits<char>, std::__ndk1::allocator<char> >::__init_copy_ctor_external(char const*, unsigned int)
4712 a 2232 12
471c 4 2237 12
4720 a 2239 12
472a 6 2241 12
4730 c 2243 12
473c 8 2247 12
4744 2 2246 12
4746 6 2250 12
474c 6 2252 12
4752 6 2242 12
FUNC 4758 14a 0 std::__ndk1::__tree_balance_after_insert[abi:ne180000]<std::__ndk1::__tree_node_base<void*>*>(std::__ndk1::__tree_node_base<void*>*, std::__ndk1::__tree_node_base<void*>*)
4758 c 285 4
4764 28 330 4
478c a 286 4
4796 c 288 4
47a2 c 310 4
47ae 4 289 4
47b2 a 290 4
47bc 6 297 4
47c2 28 299 4
47ea 4 303 4
47ee 2 299 4
47f0 6 305 4
47f6 a 317 4
4800 22 319 4
4822 4 323 4
4826 2 319 4
4828 6 325 4
482e 4 322 4
4832 4 324 4
4836 2e 325 4
4864 6 330 4
486a 4 302 4
486e 2 305 4
4870 4 304 4
4874 2c 305 4
48a0 2 330 4
FUNC 48a4 f8 0 _ZN5geode15UnwrapExceptionC2IRPNS_4HookEQsr4implE18IsStringStreamableIT_EEENS_4impl5OkTagEOS5_
48a4 1a 316 15
48be 2c 315 15
48ea 5a 314 15
4944 24 316 15
4968 34 314 15
FUNC 499c 34 0 std::__ndk1::__throw_bad_variant_access[abi:ne180000]()
499c 4 285 5
49a0 30 287 5
FUNC 49d0 d8 0 std::__ndk1::basic_stringstream<char, std::__ndk1::char_traits<char>, std::__ndk1::allocator<char> >::basic_stringstream[abi:ne180000]()
49d0 d8 1010 8
FUNC 4aa8 10 0 geode::UnwrapException::~UnwrapException()
4aa8 10 325 15
FUNC 4ab8 ce 0 std::__ndk1::basic_stringbuf<char, std::__ndk1::char_traits<char>, std::__ndk1::allocator<char> >::str[abi:ne180000]() &&
4ab8 a 396 8
4ac2 2a 397 8
4aec 1e 398 8
4b0a 8 402 8
4b12 4 401 8
4b16 42 402 8
4b58 12 403 8
4b6a 6 404 8
4b70 16 406 8
FUNC 4b88 104 0 _ZN5geode15UnwrapExceptionC2IRNSt6__ndk112basic_stringIcNS2_11char_traitsIcEENS2_9allocatorIcEEEEQsr4implE18IsStringStreamableIT_EEENS_4impl6ErrTagEOSA_
4b88 1a 304 15
4ba2 3a 303 15
4bdc 5a 302 15
4c36 24 304 15
4c5a 32 302 15
FUNC 4c8c 2 0 std::__ndk1::__variant_detail::__visitation::__base::__dispatcher<(unsigned int)0>::__dispatch[abi:ne180000]<std::__ndk1::__variant_detail::__dtor<std::__ndk1::__variant_detail::__traits<std::__ndk1::monostate, std::__ndk1::basic_string<char, std::__ndk1::char_traits<char>, std::__ndk1::allocator<char> > >, (std::__ndk1::__variant_detail::_Trait)1>::__destroy[abi:ne180000]()::{lambda(auto:1&)#1}, std::__ndk1::__variant_detail::__base<(std::__ndk1::__variant_detail::__traits<std::__ndk1::monostate, std::__ndk1::basic_string<char, std::__ndk1::char_traits<char>, std::__ndk1::allocator<char> > >)1, std::__ndk1::__variant_detail::__traits, std::__ndk1::allocator<char> >&>(std::__ndk1::__variant_detail::__dtor<std::__ndk1::__variant_detail::__traits<std::__ndk1::monostate, std::__ndk1::basic_string<char, std::__ndk1::char_traits<char>, std::__ndk1::allocator<char> > >, (std::__ndk1::__variant_detail::_Trait)1>, std::__ndk1::__variant_detail::__base<(std::__ndk1::__variant_detail::__traits<std::__ndk1::monostate, std::__ndk1::basic_string<char, std::__ndk1::char_traits<char>, std::__ndk1::allocator<char> > >)1, std::__ndk1::__variant_detail::__traits, std::__ndk1::allocator<char> >&)
4c8c 2 526 5
FUNC 4c8e e 0 std::__ndk1::__variant_detail::__visitation::__base::__dispatcher<(unsigned int)1>::__dispatch[abi:ne180000]<std::__ndk1::__variant_detail::__dtor<std::__ndk1::__variant_detail::__traits<std::__ndk1::monostate, std::__ndk1::basic_string<char, std::__ndk1::char_traits<char>, std::__ndk1::allocator<char> > >, (std::__ndk1::__variant_detail::_Trait)1>::__destroy[abi:ne180000]()::{lambda(auto:1&)#1}, std::__ndk1::__variant_detail::__base<(std::__ndk1::__variant_detail::__traits<std::__ndk1::monostate, std::__ndk1::basic_string<char, std::__ndk1::char_traits<char>, std::__ndk1::allocator<char> > >)1, std::__ndk1::__variant_detail::__traits, std::__ndk1::allocator<char> >&>(std::__ndk1::__variant_detail::__dtor<std::__ndk1::__variant_detail::__traits<std::__ndk1::monostate, std::__ndk1::basic_string<char, std::__ndk1::char_traits<char>, std::__ndk1::allocator<char> > >, (std::__ndk1::__variant_detail::_Trait)1>, std::__ndk1::__variant_detail::__base<(std::__ndk1::__variant_detail::__traits<std::__ndk1::monostate, std::__ndk1::basic_string<char, std::__ndk1::char_traits<char>, std::__ndk1::allocator<char> > >)1, std::__ndk1::__variant_detail::__traits, std::__ndk1::allocator<char> >&)
4c8e e 526 5
FUNC 4c9c 3c 0 std::__ndk1::__split_buffer<std::__ndk1::basic_string<char, std::__ndk1::char_traits<char>, std::__ndk1::allocator<char> >, std::__ndk1::allocator<std::__ndk1::basic_string<char, std::__ndk1::char_traits<char>, std::__ndk1::allocator<char> > >&>::~__split_buffer()
4c9c 6 352 13
4ca2 8 353 13
4caa 4 354 13
4cae 6 355 13
4cb4 4 356 13
4cb8 20 353 13
FUNC 4cd8 10 0 std::__ndk1::vector<std::__ndk1::basic_string<char, std::__ndk1::char_traits<char>, std::__ndk1::allocator<char> >, std::__ndk1::allocator<std::__ndk1::basic_string<char, std::__ndk1::char_traits<char>, std::__ndk1::allocator<char> > > >::__throw_length_error[abi:ne180000]() const
4cd8 10 940 16
FUNC 4ce8 2 0 std::__ndk1::__variant_detail::__visitation::__base::__dispatcher<(unsigned int)0>::__dispatch[abi:ne180000]<std::__ndk1::__variant_detail::__dtor<std::__ndk1::__variant_detail::__traits<geode::Hook*, std::__ndk1::basic_string<char, std::__ndk1::char_traits<char>, std::__ndk1::allocator<char> > >, (std::__ndk1::__variant_detail::_Trait)1>::__destroy[abi:ne180000]()::{lambda(auto:1&)#1}, std::__ndk1::__variant_detail::__base<(std::__ndk1::__variant_detail::__traits<geode::Hook*, std::__ndk1::basic_string<char, std::__ndk1::char_traits<char>, std::__ndk1::allocator<char> > >)1, geode::Hook, std::__ndk1::allocator<char> >&>(std::__ndk1::__variant_detail::__dtor<std::__ndk1::__variant_detail::__traits<geode::Hook*, std::__ndk1::basic_string<char, std::__ndk1::char_traits<char>, std::__ndk1::allocator<char> > >, (std::__ndk1::__variant_detail::_Trait)1>, std::__ndk1::__variant_detail::__base<(std::__ndk1::__variant_detail::__traits<geode::Hook*, std::__ndk1::basic_string<char, std::__ndk1::char_traits<char>, std::__ndk1::allocator<char> > >)1, geode::Hook, std::__ndk1::allocator<char> >&)
4ce8 2 526 5
FUNC 4cea e 0 std::__ndk1::__variant_detail::__visitation::__base::__dispatcher<(unsigned int)1>::__dispatch[abi:ne180000]<std::__ndk1::__variant_detail::__dtor<std::__ndk1::__variant_detail::__traits<geode::Hook*, std::__ndk1::basic_string<char, std::__ndk1::char_traits<char>, std::__ndk1::allocator<char> > >, (std::__ndk1::__variant_detail::_Trait)1>::__destroy[abi:ne180000]()::{lambda(auto:1&)#1}, std::__ndk1::__variant_detail::__base<(std::__ndk1::__variant_detail::__traits<geode::Hook*, std::__ndk1::basic_string<char, std::__ndk1::char_traits<char>, std::__ndk1::allocator<char> > >)1, geode::Hook, std::__ndk1::allocator<char> >&>(std::__ndk1::__variant_detail::__dtor<std::__ndk1::__variant_detail::__traits<geode::Hook*, std::__ndk1::basic_string<char, std::__ndk1::char_traits<char>, std::__ndk1::allocator<char> > >, (std::__ndk1::__variant_detail::_Trait)1>, std::__ndk1::__variant_detail::__base<(std::__ndk1::__variant_detail::__traits<geode::Hook*, std::__ndk1::basic_string<char, std::__ndk1::char_traits<char>, std::__ndk1::allocator<char> > >)1, geode::Hook, std::__ndk1::allocator<char> >&)
4cea e 526 5
FUNC 4cf8 5a 0 std::__ndk1::__tree<std::__ndk1::__value_type<std::__ndk1::basic_string<char, std::__ndk1::char_traits<char>, std::__ndk1::allocator<char> >, std::__ndk1::shared_ptr<geode::Hook> >, std::__ndk1::__map_value_compare<std::__ndk1::basic_string<char, std::__ndk1::char_traits<char>, std::__ndk1::allocator<char> >, std::__ndk1::__value_type<std::__ndk1::basic_string<char, std::__ndk1::char_traits<char>, std::__ndk1::allocator<char> >, std::__ndk1::shared_ptr<geode::Hook> >, std::__ndk1::less<std::__ndk1::basic_string<char, std::__ndk1::char_traits<char>, std::__ndk1::allocator<char> > >, true>, std::__ndk1::allocator<std::__ndk1::__value_type<std::__ndk1::basic_string<char, std::__ndk1::char_traits<char>, std::__ndk1::allocator<char> >, std::__ndk1::shared_ptr<geode::Hook> > > >::destroy(std::__ndk1::__tree_node<std::__ndk1::__value_type<std::__ndk1::basic_string<char, std::__ndk1::char_traits<char>, std::__ndk1::allocator<char> >, std::__ndk1::shared_ptr<geode::Hook> >, void*>*)
4cf8 2 1544 4
4cfa a 1551 4
4d04 6 1545 4
4d0a 6 1546 4
4d10 38 1548 4
4d48 a 1549 4
FUNC 4d54 2c 0 geode::modifier::AsStaticFunction_onResume<ModPauseLayer, void (ModPauseLayer::*)(cocos2d::CCObject*)>::Impl<void (ModPauseLayer::*)(cocos2d::CCObject*)>::function(ModPauseLayer*, cocos2d::CCObject*)
4d54 26 80 7
4d7a 6 77 18
FUNC 4d80 7c 0 geode::addresser::getVirtual<void (PauseLayer::*)()>(void (PauseLayer::*)())
4d80 4 169 0
4d84 78 170 0
FUNC 4dfc 158 0 geode::modifier::AsStaticFunction_customSetup<ModPauseLayer, void (ModPauseLayer::*)()>::Impl<void (ModPauseLayer::*)()>::function(ModPauseLayer*)
4dfc 158 130 7
FUNC 4f54 3a 0 std::__ndk1::shared_ptr<tulip::hook::CallingConvention>::~shared_ptr[abi:ne180000]()
4f54 4 643 14
4f58 4 644 14
4f5c 1a 645 14
4f76 4 646 14
4f7a 12 645 14
4f8c 2 646 14
FUNC 4f8e 46 0 tulip::hook::HandlerMetadata::~HandlerMetadata()
4f8e 46 12 19
FUNC 4fd4 78 0 PauseLayer::PauseLayer(geode::ZeroConstructorType)
4fd4 78 17 20
FUNC 504c ec4 0 ModPauseLayer::onInfo(cocos2d::CCObject*)
504c 16 40 18
5062 4 41 18
5066 6 42 18
506c 4 41 18
5070 c 42 18
507c 4 41 18
5080 52 42 18
50d2 4 43 18
50d6 6 42 18
50dc 2 43 18
50de 14 42 18
50f2 16 43 18
5108 18 44 18
5120 18 45 18
5138 3a 46 18
5172 e 43 18
5180 c 48 18
518c 138 49 18
52c4 24 52 18
52e8 1e 53 18
5306 fc 49 18
5402 12 50 18
5414 e 49 18
5422 8 56 18
542a 1a 57 18
5444 30 58 18
5474 32 59 18
54a6 1e 57 18
54c4 6c 62 18
5530 706 63 18
5c36 a 66 18
5c40 80 67 18
5cc0 40 65 18
5d00 3a 70 18
5d3a c 72 18
5d46 4e 73 18
5d94 a 63 18
5d9e 6 62 18
5da4 6 67 18
5daa 4 49 18
5dae e 63 18
5dbc 14 57 18
5dd0 18 49 18
5de8 4a 63 18
5e32 24 65 18
5e56 18 42 18
5e6e c 49 18
5e7a a 63 18
5e84 8 49 18
5e8c 66 63 18
5ef2 1e 73 18
FUNC 5f10 20 0 geodeImplicitEntry
5f10 4 16 21
5f14 8 18 21
5f1c 4 19 21
5f20 a 18 21
5f2a 6 19 21
FUNC 5f30 cc 0 wrapFunction(unsigned int, tulip::hook::WrapperMetadata const&)
5f30 16 27 22
5f46 4 28 22
5f4a 4 29 22
5f4e 2 33 22
5f50 2 32 22
5f52 24 33 22
5f76 4 29 22
5f7a 24 30 22
5f9e 36 32 22
5fd4 28 33 22
FUNC 5ffc 48 0 geode::impl::ResultData<void*, std::__ndk1::basic_string<char, std::__ndk1::char_traits<char>, std::__ndk1::allocator<char> > >::unwrapErr() &
5ffc 4 472 15
6000 4 473 15
6004 6 474 15
600a 3a 477 15
FUNC 6044 60 0 geode::impl::ResultData<void*, std::__ndk1::basic_string<char, std::__ndk1::char_traits<char>, std::__ndk1::allocator<char> > >::~ResultData()
6044 60 334 15
FUNC 60a4 46 0 tulip::hook::WrapperMetadata::~WrapperMetadata()
60a4 46 10 23
FUNC 60ec 11c 0 FLAlertLayer::create(FLAlertLayerProtocol*, char const*, gd::string, char const*, char const*, float)
60ec 12 1154 22
60fe 22 1156 22
6120 4e 1160 22
616e 22 1156 22
6190 8 1157 22
6198 4 1156 22
619c 8 1158 22
61a4 38 1156 22
61dc 2c 1160 22
FUNC 6210 100 0 tulip::hook::AbstractFunction::from<FLAlertLayer*, FLAlertLayerProtocol*, char const*, gd::string, char const*, char const*, float>(FLAlertLayer* (*)(FLAlertLayerProtocol*, char const*, gd::string, char const*, char const*, float))
6210 10 39 24
6220 4 41 24
6224 6 40 24
622a b0 42 24
62da 36 45 24
FUNC 6310 f8 0 _ZN5geode15UnwrapExceptionC2IRPvQsr4implE18IsStringStreamableIT_EEENS_4impl5OkTagEOS4_
6310 1a 316 15
632a 2c 315 15
6356 5a 314 15
63b0 24 316 15
63d4 34 314 15
FUNC 6408 2 0 std::__ndk1::__variant_detail::__visitation::__base::__dispatcher<(unsigned int)0>::__dispatch[abi:ne180000]<std::__ndk1::__variant_detail::__dtor<std::__ndk1::__variant_detail::__traits<void*, std::__ndk1::basic_string<char, std::__ndk1::char_traits<char>, std::__ndk1::allocator<char> > >, (std::__ndk1::__variant_detail::_Trait)1>::__destroy[abi:ne180000]()::{lambda(auto:1&)#1}, std::__ndk1::__variant_detail::__base<(std::__ndk1::__variant_detail::__traits<void*, std::__ndk1::basic_string<char, std::__ndk1::char_traits<char>, std::__ndk1::allocator<char> > >)1, std::__ndk1::__variant_detail::__traits, std::__ndk1::allocator<char> >&>(std::__ndk1::__variant_detail::__dtor<std::__ndk1::__variant_detail::__traits<void*, std::__ndk1::basic_string<char, std::__ndk1::char_traits<char>, std::__ndk1::allocator<char> > >, (std::__ndk1::__variant_detail::_Trait)1>, std::__ndk1::__variant_detail::__base<(std::__ndk1::__variant_detail::__traits<void*, std::__ndk1::basic_string<char, std::__ndk1::char_traits<char>, std::__ndk1::allocator<char> > >)1, std::__ndk1::__variant_detail::__traits, std::__ndk1::allocator<char> >&)
6408 2 526 5
FUNC 640a e 0 std::__ndk1::__variant_detail::__visitation::__base::__dispatcher<(unsigned int)1>::__dispatch[abi:ne180000]<std::__ndk1::__variant_detail::__dtor<std::__ndk1::__variant_detail::__traits<void*, std::__ndk1::basic_string<char, std::__ndk1::char_traits<char>, std::__ndk1::allocator<char> > >, (std::__ndk1::__variant_detail::_Trait)1>::__destroy[abi:ne180000]()::{lambda(auto:1&)#1}, std::__ndk1::__variant_detail::__base<(std::__ndk1::__variant_detail::__traits<void*, std::__ndk1::basic_string<char, std::__ndk1::char_traits<char>, std::__ndk1::allocator<char> > >)1, std::__ndk1::__variant_detail::__traits, std::__ndk1::allocator<char> >&>(std::__ndk1::__variant_detail::__dtor<std::__ndk1::__variant_detail::__traits<void*, std::__ndk1::basic_string<char, std::__ndk1::char_traits<char>, std::__ndk1::allocator<char> > >, (std::__ndk1::__variant_detail::_Trait)1>, std::__ndk1::__variant_detail::__base<(std::__ndk1::__variant_detail::__traits<void*, std::__ndk1::basic_string<char, std::__ndk1::char_traits<char>, std::__ndk1::allocator<char> > >)1, std::__ndk1::__variant_detail::__traits, std::__ndk1::allocator<char> >&)
640a e 526 5
PUBLIC 6419 0 __ThumbV7PILongThunk___cxa_atexit
PUBLIC 6425 0 __ThumbV7PILongThunk__ZdlPv
PUBLIC 6431 0 __ThumbV7PILongThunk__ZN10PauseLayer8onResumeEPN7cocos2d8CCObjectE
PUBLIC 643d 0 __ThumbV7PILongThunk__ZN5geode9addresser9Addresser19followThunkFunctionEi
PUBLIC 6450 0 <.plt ELF section in weebify.level_info_in_pause_menu.android32.so>
STACK CFI INIT 2db4 60 .cfa: sp 0 +
STACK CFI 2db6 .cfa: sp 20 + .ra: .cfa -4 + ^ r7: .cfa -8 + ^ r6: .cfa -12 + ^ r5: .cfa -16 + ^ r4: .cfa -20 + ^
STACK CFI 2db8 .cfa: r7 8 +
STACK CFI 2dbc r11: .cfa -24 + ^
STACK CFI INIT 2e14 22c .cfa: sp 0 +
STACK CFI 2e16 .cfa: sp 20 + .ra: .cfa -4 + ^ r7: .cfa -8 + ^ r6: .cfa -12 + ^ r5: .cfa -16 + ^ r4: .cfa -20 + ^
STACK CFI 2e18 .cfa: r7 8 +
STACK CFI 2e1c r11: .cfa -24 + ^ r10: .cfa -28 + ^ r9: .cfa -32 + ^ r8: .cfa -36 + ^
STACK CFI INIT 3040 7c .cfa: sp 0 +
STACK CFI 3042 .cfa: sp 20 + .ra: .cfa -4 + ^ r7: .cfa -8 + ^ r6: .cfa -12 + ^ r5: .cfa -16 + ^ r4: .cfa -20 + ^
STACK CFI 3044 .cfa: r7 8 +
STACK CFI 3048 r11: .cfa -24 + ^
STACK CFI INIT 30bc 68 .cfa: sp 0 +
STACK CFI 30be .cfa: sp 20 + .ra: .cfa -4 + ^ r7: .cfa -8 + ^ r6: .cfa -12 + ^ r5: .cfa -16 + ^ r4: .cfa -20 + ^
STACK CFI 30c0 .cfa: r7 8 +
STACK CFI 30c4 r11: .cfa -24 + ^
STACK CFI INIT 3124 878 .cfa: sp 0 +
STACK CFI 3126 .cfa: sp 20 + .ra: .cfa -4 + ^ r7: .cfa -8 + ^ r6: .cfa -12 + ^ r5: .cfa -16 + ^ r4: .cfa -20 + ^
STACK CFI 3128 .cfa: r7 8 +
STACK CFI 312c r11: .cfa -24 + ^ r10: .cfa -28 + ^ r9: .cfa -32 + ^ r8: .cfa -36 + ^
STACK CFI INIT 399c 1c .cfa: sp 0 +
STACK CFI 399e .cfa: sp 16 + .ra: .cfa -4 + ^ r7: .cfa -8 + ^ r6: .cfa -12 + ^ r4: .cfa -16 + ^
STACK CFI 39a0 .cfa: r7 8 +
STACK CFI INIT 39b8 108 .cfa: sp 0 +
STACK CFI 39ba .cfa: sp 20 + .ra: .cfa -4 + ^ r7: .cfa -8 + ^ r6: .cfa -12 + ^ r5: .cfa -16 + ^ r4: .cfa -20 + ^
STACK CFI 39bc .cfa: r7 8 +
STACK CFI 39c0 r11: .cfa -24 + ^ r10: .cfa -28 + ^ r9: .cfa -32 + ^ r8: .cfa -36 + ^
STACK CFI INIT 3ac0 110 .cfa: sp 0 +
STACK CFI 3ac2 .cfa: sp 20 + .ra: .cfa -4 + ^ r7: .cfa -8 + ^ r6: .cfa -12 + ^ r5: .cfa -16 + ^ r4: .cfa -20 + ^
STACK CFI 3ac4 .cfa: r7 8 +
STACK CFI 3ac8 r11: .cfa -24 + ^ r10: .cfa -28 + ^ r9: .cfa -32 + ^ r8: .cfa -36 + ^
STACK CFI INIT 3bd0 c .cfa: sp 0 +
STACK CFI 3bd2 .cfa: sp 8 + .ra: .cfa -4 + ^ r7: .cfa -8 + ^
STACK CFI 3bd4 .cfa: r7 8 +
STACK CFI INIT 3bdc 10 .cfa: sp 0 +
STACK CFI 3bde .cfa: sp 8 + .ra: .cfa -4 + ^ r7: .cfa -8 + ^
STACK CFI 3be0 .cfa: r7 8 +
STACK CFI INIT 3bec 38 .cfa: sp 0 +
STACK CFI 3bee .cfa: sp 16 + .ra: .cfa -4 + ^ r7: .cfa -8 + ^ r5: .cfa -12 + ^ r4: .cfa -16 + ^
STACK CFI 3bf0 .cfa: r7 8 +
STACK CFI INIT 3c24 18 .cfa: sp 0 +
STACK CFI 3c26 .cfa: sp 8 + .ra: .cfa -4 + ^ r7: .cfa -8 + ^
STACK CFI 3c28 .cfa: r7 8 +
STACK CFI INIT 3c3c 28 .cfa: sp 0 +
STACK CFI 3c3e .cfa: sp 8 + .ra: .cfa -4 + ^ r7: .cfa -8 + ^
STACK CFI 3c40 .cfa: r7 8 +
STACK CFI INIT 3c64 e0 .cfa: sp 0 +
STACK CFI 3c66 .cfa: sp 20 + .ra: .cfa -4 + ^ r7: .cfa -8 + ^ r6: .cfa -12 + ^ r5: .cfa -16 + ^ r4: .cfa -20 + ^
STACK CFI 3c68 .cfa: r7 8 +
STACK CFI 3c6c r11: .cfa -24 + ^ r9: .cfa -28 + ^ r8: .cfa -32 + ^
STACK CFI INIT 3d44 66 .cfa: sp 0 +
STACK CFI 3d46 .cfa: sp 20 + .ra: .cfa -4 + ^ r7: .cfa -8 + ^ r6: .cfa -12 + ^ r5: .cfa -16 + ^ r4: .cfa -20 + ^
STACK CFI 3d48 .cfa: r7 8 +
STACK CFI 3d4c r11: .cfa -24 + ^ r9: .cfa -28 + ^ r8: .cfa -32 + ^
STACK CFI INIT 3daa 11e .cfa: sp 0 +
STACK CFI 3dac .cfa: sp 20 + .ra: .cfa -4 + ^ r7: .cfa -8 + ^ r6: .cfa -12 + ^ r5: .cfa -16 + ^ r4: .cfa -20 + ^
STACK CFI 3dae .cfa: r7 8 +
STACK CFI 3db2 r11: .cfa -24 + ^ r10: .cfa -28 + ^ r9: .cfa -32 + ^ r8: .cfa -36 + ^
STACK CFI INIT 3ed0 584 .cfa: sp 0 +
STACK CFI 3ed2 .cfa: sp 20 + .ra: .cfa -4 + ^ r7: .cfa -8 + ^ r6: .cfa -12 + ^ r5: .cfa -16 + ^ r4: .cfa -20 + ^
STACK CFI 3ed4 .cfa: r7 8 +
STACK CFI 3ed8 r10: .cfa -24 + ^ r9: .cfa -28 + ^ r8: .cfa -32 + ^
STACK CFI INIT 4454 3a .cfa: sp 0 +
STACK CFI 4456 .cfa: sp 16 + .ra: .cfa -4 + ^ r7: .cfa -8 + ^ r5: .cfa -12 + ^ r4: .cfa -16 + ^
STACK CFI 4458 .cfa: r7 8 +
STACK CFI INIT 4490 60 .cfa: sp 0 +
STACK CFI 4492 .cfa: sp 16 + .ra: .cfa -4 + ^ r7: .cfa -8 + ^ r6: .cfa -12 + ^ r4: .cfa -16 + ^
STACK CFI 4494 .cfa: r7 8 +
STACK CFI INIT 44f0 3e .cfa: sp 0 +
STACK CFI 44f2 .cfa: sp 20 + .ra: .cfa -4 + ^ r7: .cfa -8 + ^ r6: .cfa -12 + ^ r5: .cfa -16 + ^ r4: .cfa -20 + ^
STACK CFI 44f4 .cfa: r7 8 +
STACK CFI 44f8 r11: .cfa -24 + ^
STACK CFI INIT 452e 2 .cfa: sp 0 +
STACK CFI INIT 4530 cc .cfa: sp 0 +
STACK CFI 4532 .cfa: sp 20 + .ra: .cfa -4 + ^ r7: .cfa -8 + ^ r6: .cfa -12 + ^ r5: .cfa -16 + ^ r4: .cfa -20 + ^
STACK CFI 4534 .cfa: r7 8 +
STACK CFI 4538 r10: .cfa -24 + ^ r9: .cfa -28 + ^ r8: .cfa -32 + ^
STACK CFI INIT 45fc ba .cfa: sp 0 +
STACK CFI 45fe .cfa: sp 20 + .ra: .cfa -4 + ^ r7: .cfa -8 + ^ r6: .cfa -12 + ^ r5: .cfa -16 + ^ r4: .cfa -20 + ^
STACK CFI 4600 .cfa: r7 8 +
STACK CFI 4604 r11: .cfa -24 + ^ r10: .cfa -28 + ^ r9: .cfa -32 + ^ r8: .cfa -36 + ^
STACK CFI INIT 46b6 5c .cfa: sp 0 +
STACK CFI 46b8 .cfa: sp 20 + .ra: .cfa -4 + ^ r7: .cfa -8 + ^ r6: .cfa -12 + ^ r5: .cfa -16 + ^ r4: .cfa -20 + ^
STACK CFI 46ba .cfa: r7 8 +
STACK CFI 46be r11: .cfa -24 + ^
STACK CFI INIT 4712 46 .cfa: sp 0 +
STACK CFI 4714 .cfa: sp 20 + .ra: .cfa -4 + ^ r7: .cfa -8 + ^ r6: .cfa -12 + ^ r5: .cfa -16 + ^ r4: .cfa -20 + ^
STACK CFI 4716 .cfa: r7 8 +
STACK CFI 471a r8: .cfa -24 + ^
STACK CFI INIT 4758 14a .cfa: sp 0 +
STACK CFI 476a .cfa: sp 16 + .ra: .cfa -4 + ^ r7: .cfa -8 + ^ r6: .cfa -12 + ^ r4: .cfa -16 + ^
STACK CFI 476c .cfa: r7 8 +
STACK CFI INIT 48a4 f8 .cfa: sp 0 +
STACK CFI 48a6 .cfa: sp 20 + .ra: .cfa -4 + ^ r7: .cfa -8 + ^ r6: .cfa -12 + ^ r5: .cfa -16 + ^ r4: .cfa -20 + ^
STACK CFI 48a8 .cfa: r7 8 +
STACK CFI 48ac r8: .cfa -24 + ^
STACK CFI INIT 499c 34 .cfa: sp 0 +
STACK CFI 499e .cfa: sp 8 + .ra: .cfa -4 + ^ r7: .cfa -8 + ^
STACK CFI 49a0 .cfa: r7 8 +
STACK CFI INIT 49d0 d8 .cfa: sp 0 +
STACK CFI 49d2 .cfa: sp 20 + .ra: .cfa -4 + ^ r7: .cfa -8 + ^ r6: .cfa -12 + ^ r5: .cfa -16 + ^ r4: .cfa -20 + ^
STACK CFI 49d4 .cfa: r7 8 +
STACK CFI 49d8 r11: .cfa -24 + ^ r10: .cfa -28 + ^ r9: .cfa -32 + ^ r8: .cfa -36 + ^
STACK CFI INIT 4aa8 10 .cfa: sp 0 +
STACK CFI 4aaa .cfa: sp 8 + .ra: .cfa -4 + ^ r7: .cfa -8 + ^
STACK CFI 4aac .cfa: r7 8 +
STACK CFI INIT 4ab8 ce .cfa: sp 0 +
STACK CFI 4aba .cfa: sp 20 + .ra: .cfa -4 + ^ r7: .cfa -8 + ^ r6: .cfa -12 + ^ r5: .cfa -16 + ^ r4: .cfa -20 + ^
STACK CFI 4abc .cfa: r7 8 +
STACK CFI 4ac0 r10: .cfa -24 + ^ r9: .cfa -28 + ^ r8: .cfa -32 + ^
STACK CFI INIT 4b88 104 .cfa: sp 0 +
STACK CFI 4b8a .cfa: sp 20 + .ra: .cfa -4 + ^ r7: .cfa -8 + ^ r6: .cfa -12 + ^ r5: .cfa -16 + ^ r4: .cfa -20 + ^
STACK CFI 4b8c .cfa: r7 8 +
STACK CFI 4b90 r8: .cfa -24 + ^
STACK CFI INIT 4c8c 2 .cfa: sp 0 +
STACK CFI INIT 4c8e e .cfa: sp 0 +
STACK CFI INIT 4c9c 3c .cfa: sp 0 +
STACK CFI 4c9e .cfa: sp 16 + .ra: .cfa -4 + ^ r7: .cfa -8 + ^ r5: .cfa -12 + ^ r4: .cfa -16 + ^
STACK CFI 4ca0 .cfa: r7 8 +
STACK CFI INIT 4cd8 10 .cfa: sp 0 +
STACK CFI 4cda .cfa: sp 8 + .ra: .cfa -4 + ^ r7: .cfa -8 + ^
STACK CFI 4cdc .cfa: r7 8 +
STACK CFI INIT 4ce8 2 .cfa: sp 0 +
STACK CFI INIT 4cea e .cfa: sp 0 +
STACK CFI INIT 4cf8 5a .cfa: sp 0 +
STACK CFI 4d00 .cfa: sp 16 + .ra: .cfa -4 + ^ r7: .cfa -8 + ^ r5: .cfa -12 + ^ r4: .cfa -16 + ^
STACK CFI 4d02 .cfa: r7 8 +
STACK CFI INIT 4d54 2c .cfa: sp 0 +
STACK CFI 4d56 .cfa: sp 16 + .ra: .cfa -4 + ^ r7: .cfa -8 + ^ r5: .cfa -12 + ^ r4: .cfa -16 + ^
STACK CFI 4d58 .cfa: r7 8 +
STACK CFI INIT 4d80 7c .cfa: sp 0 +
STACK CFI 4d82 .cfa: sp 16 + .ra: .cfa -4 + ^ r7: .cfa -8 + ^ r6: .cfa -12 + ^ r4: .cfa -16 + ^
STACK CFI 4d84 .cfa: r7 8 +
STACK CFI INIT 4dfc 158 .cfa: sp 0 +
STACK CFI 4dfe .cfa: sp 20 + .ra: .cfa -4 + ^ r7: .cfa -8 + ^ r6: .cfa -12 + ^ r5: .cfa -16 + ^ r4: .cfa -20 + ^
STACK CFI 4e00 .cfa: r7 8 +
STACK CFI 4e04 r11: .cfa -24 + ^
STACK CFI INIT 4f54 3a .cfa: sp 0 +
STACK CFI 4f56 .cfa: sp 16 + .ra: .cfa -4 + ^ r7: .cfa -8 + ^ r5: .cfa -12 + ^ r4: .cfa -16 + ^
STACK CFI 4f58 .cfa: r7 8 +
STACK CFI INIT 4f8e 46 .cfa: sp 0 +
STACK CFI 4f90 .cfa: sp 16 + .ra: .cfa -4 + ^ r7: .cfa -8 + ^ r5: .cfa -12 + ^ r4: .cfa -16 + ^
STACK CFI 4f92 .cfa: r7 8 +
STACK CFI INIT 4fd4 78 .cfa: sp 0 +
STACK CFI 4fd6 .cfa: sp 16 + .ra: .cfa -4 + ^ r7: .cfa -8 + ^ r6: .cfa -12 + ^ r4: .cfa -16 + ^
STACK CFI 4fd8 .cfa: r7 8 +
STACK CFI INIT 504c ec4 .cfa: sp 0 +
STACK CFI 504e .cfa: sp 20 + .ra: .cfa -4 + ^ r7: .cfa -8 + ^ r6: .cfa -12 + ^ r5: .cfa -16 + ^ r4: .cfa -20 + ^
STACK CFI 5050 .cfa: r7 8 +
STACK CFI 5054 r11: .cfa -24 + ^ r10: .cfa -28 + ^ r9: .cfa -32 + ^ r8: .cfa -36 + ^
STACK CFI INIT 0 20 .cfa: sp 0 +
STACK CFI 2 .cfa: sp 16 + .ra: .cfa -4 + ^ r7: .cfa -8 + ^ r6: .cfa -12 + ^ r4: .cfa -16 + ^
STACK CFI 4 .cfa: r7 8 +
STACK CFI INIT 5f10 20 .cfa: sp 0 +
STACK CFI 5f12 .cfa: sp 16 + .ra: .cfa -4 + ^ r7: .cfa -8 + ^ r6: .cfa -12 + ^ r4: .cfa -16 + ^
STACK CFI 5f14 .cfa: r7 8 +
STACK CFI INIT 5f30 cc .cfa: sp 0 +
STACK CFI 5f32 .cfa: sp 16 + .ra: .cfa -4 + ^ r7: .cfa -8 + ^ r6: .cfa -12 + ^ r4: .cfa -16 + ^
STACK CFI 5f34 .cfa: r7 8 +
STACK CFI INIT 5ffc 48 .cfa: sp 0 +
STACK CFI 5ffe .cfa: sp 16 + .ra: .cfa -4 + ^ r7: .cfa -8 + ^ r5: .cfa -12 + ^ r4: .cfa -16 + ^
STACK CFI 6000 .cfa: r7 8 +
STACK CFI INIT 6044 60 .cfa: sp 0 +
STACK CFI 6046 .cfa: sp 16 + .ra: .cfa -4 + ^ r7: .cfa -8 + ^ r6: .cfa -12 + ^ r4: .cfa -16 + ^
STACK CFI 6048 .cfa: r7 8 +
STACK CFI INIT 60a4 46 .cfa: sp 0 +
STACK CFI 60a6 .cfa: sp 16 + .ra: .cfa -4 + ^ r7: .cfa -8 + ^ r5: .cfa -12 + ^ r4: .cfa -16 + ^
STACK CFI 60a8 .cfa: r7 8 +
STACK CFI INIT 60ec 11c .cfa: sp 0 +
STACK CFI 60ee .cfa: sp 20 + .ra: .cfa -4 + ^ r7: .cfa -8 + ^ r6: .cfa -12 + ^ r5: .cfa -16 + ^ r4: .cfa -20 + ^
STACK CFI 60f0 .cfa: r7 8 +
STACK CFI 60f4 r11: .cfa -24 + ^ r10: .cfa -28 + ^ r9: .cfa -32 + ^ r8: .cfa -36 + ^
STACK CFI INIT 6210 100 .cfa: sp 0 +
STACK CFI 6212 .cfa: sp 20 + .ra: .cfa -4 + ^ r7: .cfa -8 + ^ r6: .cfa -12 + ^ r5: .cfa -16 + ^ r4: .cfa -20 + ^
STACK CFI 6214 .cfa: r7 8 +
STACK CFI 6218 r10: .cfa -24 + ^ r9: .cfa -28 + ^ r8: .cfa -32 + ^
STACK CFI INIT 0 70 .cfa: sp 0 +
STACK CFI 2 .cfa: sp 20 + .ra: .cfa -4 + ^ r7: .cfa -8 + ^ r6: .cfa -12 + ^ r5: .cfa -16 + ^ r4: .cfa -20 + ^
STACK CFI 4 .cfa: r7 8 +
STACK CFI 8 r11: .cfa -24 + ^
STACK CFI INIT 0 18 .cfa: sp 0 +
STACK CFI 2 .cfa: sp 8 + .ra: .cfa -4 + ^ r7: .cfa -8 + ^
STACK CFI 4 .cfa: r7 8 +
STACK CFI INIT 0 e .cfa: sp 0 +
STACK CFI 2 .cfa: sp 8 + .ra: .cfa -4 + ^ r7: .cfa -8 + ^
STACK CFI 4 .cfa: r7 8 +
STACK CFI INIT 6310 f8 .cfa: sp 0 +
STACK CFI 6312 .cfa: sp 20 + .ra: .cfa -4 + ^ r7: .cfa -8 + ^ r6: .cfa -12 + ^ r5: .cfa -16 + ^ r4: .cfa -20 + ^
STACK CFI 6314 .cfa: r7 8 +
STACK CFI 6318 r8: .cfa -24 + ^
STACK CFI INIT 6408 2 .cfa: sp 0 +
STACK CFI INIT 640a e .cfa: sp 0 +
