MODULE Linux arm 3A7DF97A0EEC4B104B692C8F6B3221E80 firee.overchargedlevels.android32.so
INFO CODE_ID 7AF97D3AEC0E104B4B692C8F6B3221E8FB483EAF
INFO GENERATOR mozilla/dump_syms 2.3.4
PUBLIC a6b0 0 __on_dlclose
PUBLIC a6c0 0 __emutls_unregister_key
PUBLIC a6c4 0 __on_dlclose_late
PUBLIC a6c8 0 __atexit_handler_wrapper
PUBLIC a6d4 0 atexit
PUBLIC a6f4 0 pthread_atfork
FUNC a704 2f4 0 __cxx_global_var_init
FUNC a9f8 20 0 geode::modifier::ModifyBase<geode::modifier::ModifyDerive<OLBoomScrollLayer, BoomScrollLayer> >::~ModifyBase()
FUNC aa20 3a4 0 geode::modifier::ModifyDerive<OLBoomScrollLayer, BoomScrollLayer>::apply()
FUNC adc4 3a 0 std::__ndk1::shared_ptr<geode::Hook>::~shared_ptr[abi:ne180000]()
FUNC ae00 60 0 geode::impl::ResultData<geode::Hook*, std::__ndk1::basic_string<char, std::__ndk1::char_traits<char>, std::__ndk1::allocator<char> > >::~ResultData()
FUNC ae60 3e 0 std::__ndk1::vector<std::__ndk1::basic_string<char, std::__ndk1::char_traits<char>, std::__ndk1::allocator<char> >, std::__ndk1::allocator<std::__ndk1::basic_string<char, std::__ndk1::char_traits<char>, std::__ndk1::allocator<char> > > >::~vector[abi:ne180000]()
FUNC ae9e 2 0 geode::modifier::ModifyBase<geode::modifier::ModifyDerive<OLBoomScrollLayer, BoomScrollLayer> >::apply()
PUBLIC aea1 0 __clang_call_terminate
FUNC aeac f8 0 _ZN5geode15UnwrapExceptionC2IRPNS_4HookEQsr4implE18IsStringStreamableIT_EEENS_4impl5OkTagEOS5_
FUNC afa4 34 0 std::__ndk1::__throw_bad_variant_access[abi:ne180000]()
FUNC afd8 d8 0 std::__ndk1::basic_stringstream<char, std::__ndk1::char_traits<char>, std::__ndk1::allocator<char> >::basic_stringstream[abi:ne180000]()
FUNC b0b0 68 0 std::__ndk1::basic_stringstream<char, std::__ndk1::char_traits<char>, std::__ndk1::allocator<char> >::~basic_stringstream()
FUNC b118 10 0 geode::UnwrapException::~UnwrapException()
FUNC b128 108 0 std::__ndk1::__put_character_sequence[abi:ne180000]<char, std::__ndk1::char_traits<char> >(std::__ndk1::basic_ostream<char, std::__ndk1::char_traits<char> >, std::__ndk1::basic_ostream const*, unsigned int)
FUNC b230 110 0 std::__ndk1::__pad_and_output[abi:ne180000]<char, std::__ndk1::char_traits<char> >(std::__ndk1::char_traits<char>, std::__ndk1::ostreambuf_iterator const*, std::__ndk1::ostreambuf_iterator const, std::__ndk1::ostreambuf_iterator const, std::__ndk1::ios_base&, std::__ndk1::ostreambuf_iterator)
FUNC b340 10 0 std::__ndk1::basic_string<char, std::__ndk1::char_traits<char>, std::__ndk1::allocator<char> >::__throw_length_error[abi:ne180000]() const
FUNC b350 38 0 std::__ndk1::__throw_length_error[abi:ne180000](char const*)
FUNC b388 18 0 std::length_error::length_error[abi:ne180000](char const*)
FUNC b3a0 28 0 std::__throw_bad_array_new_length([abi:ne180000], void)
FUNC b3c8 ce 0 std::__ndk1::basic_stringbuf<char, std::__ndk1::char_traits<char>, std::__ndk1::allocator<char> >::str[abi:ne180000]() &&
FUNC b496 e0 0 std::__ndk1::basic_stringbuf<char, std::__ndk1::char_traits<char>, std::__ndk1::allocator<char> >::__init_buf_ptrs[abi:ne180000]()
FUNC b578 164 0 std::__ndk1::vector<std::__ndk1::basic_string<char, std::__ndk1::char_traits<char>, std::__ndk1::allocator<char> >, std::__ndk1::allocator<std::__ndk1::basic_string<char, std::__ndk1::char_traits<char>, std::__ndk1::allocator<char> > > >::__push_back_slow_path<std::__ndk1::basic_string<char, std::__ndk1::char_traits<char>, std::__ndk1::allocator<char> > const&>(std::__ndk1::basic_string<char, std::__ndk1::char_traits<char>, std::__ndk1::allocator<char> > const&)
FUNC b6dc 46 0 std::__ndk1::basic_string<char, std::__ndk1::char_traits<char>, std::__ndk1::allocator<char> >::__init_copy_ctor_external(char const*, unsigned int)
FUNC b722 3c 0 std::__ndk1::__split_buffer<std::__ndk1::basic_string<char, std::__ndk1::char_traits<char>, std::__ndk1::allocator<char> >, std::__ndk1::allocator<std::__ndk1::basic_string<char, std::__ndk1::char_traits<char>, std::__ndk1::allocator<char> > >&>::~__split_buffer()
FUNC b760 10 0 std::__ndk1::vector<std::__ndk1::basic_string<char, std::__ndk1::char_traits<char>, std::__ndk1::allocator<char> >, std::__ndk1::allocator<std::__ndk1::basic_string<char, std::__ndk1::char_traits<char>, std::__ndk1::allocator<char> > > >::__throw_length_error[abi:ne180000]() const
FUNC b770 2 0 std::__ndk1::__variant_detail::__visitation::__base::__dispatcher<(unsigned int)0>::__dispatch[abi:ne180000]<std::__ndk1::__variant_detail::__dtor<std::__ndk1::__variant_detail::__traits<geode::Hook*, std::__ndk1::basic_string<char, std::__ndk1::char_traits<char>, std::__ndk1::allocator<char> > >, (std::__ndk1::__variant_detail::_Trait)1>::__destroy[abi:ne180000]()::{lambda(auto:1&)#1}, std::__ndk1::__variant_detail::__base<(std::__ndk1::__variant_detail::__traits<geode::Hook*, std::__ndk1::basic_string<char, std::__ndk1::char_traits<char>, std::__ndk1::allocator<char> > >)1, geode::Hook, std::__ndk1::allocator<char> >&>(std::__ndk1::__variant_detail::__dtor<std::__ndk1::__variant_detail::__traits<geode::Hook*, std::__ndk1::basic_string<char, std::__ndk1::char_traits<char>, std::__ndk1::allocator<char> > >, (std::__ndk1::__variant_detail::_Trait)1>, std::__ndk1::__variant_detail::__base<(std::__ndk1::__variant_detail::__traits<geode::Hook*, std::__ndk1::basic_string<char, std::__ndk1::char_traits<char>, std::__ndk1::allocator<char> > >)1, geode::Hook, std::__ndk1::allocator<char> >&)
FUNC b772 e 0 std::__ndk1::__variant_detail::__visitation::__base::__dispatcher<(unsigned int)1>::__dispatch[abi:ne180000]<std::__ndk1::__variant_detail::__dtor<std::__ndk1::__variant_detail::__traits<geode::Hook*, std::__ndk1::basic_string<char, std::__ndk1::char_traits<char>, std::__ndk1::allocator<char> > >, (std::__ndk1::__variant_detail::_Trait)1>::__destroy[abi:ne180000]()::{lambda(auto:1&)#1}, std::__ndk1::__variant_detail::__base<(std::__ndk1::__variant_detail::__traits<geode::Hook*, std::__ndk1::basic_string<char, std::__ndk1::char_traits<char>, std::__ndk1::allocator<char> > >)1, geode::Hook, std::__ndk1::allocator<char> >&>(std::__ndk1::__variant_detail::__dtor<std::__ndk1::__variant_detail::__traits<geode::Hook*, std::__ndk1::basic_string<char, std::__ndk1::char_traits<char>, std::__ndk1::allocator<char> > >, (std::__ndk1::__variant_detail::_Trait)1>, std::__ndk1::__variant_detail::__base<(std::__ndk1::__variant_detail::__traits<geode::Hook*, std::__ndk1::basic_string<char, std::__ndk1::char_traits<char>, std::__ndk1::allocator<char> > >)1, geode::Hook, std::__ndk1::allocator<char> >&)
FUNC b780 c0 0 std::__ndk1::__tree<std::__ndk1::__value_type<std::__ndk1::basic_string<char, std::__ndk1::char_traits<char>, std::__ndk1::allocator<char> >, std::__ndk1::shared_ptr<geode::Hook> >, std::__ndk1::__map_value_compare<std::__ndk1::basic_string<char, std::__ndk1::char_traits<char>, std::__ndk1::allocator<char> >, std::__ndk1::__value_type<std::__ndk1::basic_string<char, std::__ndk1::char_traits<char>, std::__ndk1::allocator<char> >, std::__ndk1::shared_ptr<geode::Hook> >, std::__ndk1::less<std::__ndk1::basic_string<char, std::__ndk1::char_traits<char>, std::__ndk1::allocator<char> > >, true>, std::__ndk1::allocator<std::__ndk1::__value_type<std::__ndk1::basic_string<char, std::__ndk1::char_traits<char>, std::__ndk1::allocator<char> >, std::__ndk1::shared_ptr<geode::Hook> > > >::find<std::__ndk1::basic_string<char, std::__ndk1::char_traits<char>, std::__ndk1::allocator<char> > >(std::__ndk1::basic_string<char, std::__ndk1::char_traits<char>, std::__ndk1::allocator<char> > const&)
FUNC b840 82 0 std::__ndk1::__tree<std::__ndk1::__value_type<std::__ndk1::basic_string<char, std::__ndk1::char_traits<char>, std::__ndk1::allocator<char> >, std::__ndk1::shared_ptr<geode::Hook> >, std::__ndk1::__map_value_compare<std::__ndk1::basic_string<char, std::__ndk1::char_traits<char>, std::__ndk1::allocator<char> >, std::__ndk1::__value_type<std::__ndk1::basic_string<char, std::__ndk1::char_traits<char>, std::__ndk1::allocator<char> >, std::__ndk1::shared_ptr<geode::Hook> >, std::__ndk1::less<std::__ndk1::basic_string<char, std::__ndk1::char_traits<char>, std::__ndk1::allocator<char> > >, true>, std::__ndk1::allocator<std::__ndk1::__value_type<std::__ndk1::basic_string<char, std::__ndk1::char_traits<char>, std::__ndk1::allocator<char> >, std::__ndk1::shared_ptr<geode::Hook> > > >::erase(std::__ndk1::__tree_const_iterator<std::__ndk1::__value_type<std::__ndk1::basic_string<char, std::__ndk1::char_traits<char>, std::__ndk1::allocator<char> >, std::__ndk1::shared_ptr<geode::Hook> >, std::__ndk1::__tree_node<std::__ndk1::__value_type<std::__ndk1::basic_string<char, std::__ndk1::char_traits<char>, std::__ndk1::allocator<char> >, std::__ndk1::shared_ptr<geode::Hook> >, void*>*, int>)
FUNC b8c2 274 0 std::__ndk1::__tree_remove[abi:ne180000]<std::__ndk1::__tree_node_base<void*>*>(std::__ndk1::__tree_node_base<void*>*, std::__ndk1::__tree_node_base<void*>*)
FUNC bb36 5e 0 std::__ndk1::__tree<std::__ndk1::__value_type<std::__ndk1::basic_string<char, std::__ndk1::char_traits<char>, std::__ndk1::allocator<char> >, std::__ndk1::shared_ptr<geode::Hook> >, std::__ndk1::__map_value_compare<std::__ndk1::basic_string<char, std::__ndk1::char_traits<char>, std::__ndk1::allocator<char> >, std::__ndk1::__value_type<std::__ndk1::basic_string<char, std::__ndk1::char_traits<char>, std::__ndk1::allocator<char> >, std::__ndk1::shared_ptr<geode::Hook> >, std::__ndk1::less<std::__ndk1::basic_string<char, std::__ndk1::char_traits<char>, std::__ndk1::allocator<char> > >, true>, std::__ndk1::allocator<std::__ndk1::__value_type<std::__ndk1::basic_string<char, std::__ndk1::char_traits<char>, std::__ndk1::allocator<char> >, std::__ndk1::shared_ptr<geode::Hook> > > >::destroy(std::__ndk1::__tree_node<std::__ndk1::__value_type<std::__ndk1::basic_string<char, std::__ndk1::char_traits<char>, std::__ndk1::allocator<char> >, std::__ndk1::shared_ptr<geode::Hook> >, void*>*)
FUNC bb94 12c 0 geode::modifier::AsStaticFunction_init<OLBoomScrollLayer, bool (OLBoomScrollLayer::*)(cocos2d::CCArray*, int, bool, cocos2d::CCArray*, DynamicScrollDelegate*)>::Impl<bool (OLBoomScrollLayer::*)(cocos2d::CCArray*, int, bool, cocos2d::CCArray*, DynamicScrollDelegate*)>::function(OLBoomScrollLayer*, cocos2d::CCArray*, int, bool, cocos2d::CCArray*, DynamicScrollDelegate*)
FUNC bcc0 3a 0 std::__ndk1::shared_ptr<tulip::hook::CallingConvention>::~shared_ptr[abi:ne180000]()
FUNC bcfa 46 0 tulip::hook::HandlerMetadata::~HandlerMetadata()
FUNC bd40 10 0 std::__ndk1::vector<tulip::hook::AbstractType, std::__ndk1::allocator<tulip::hook::AbstractType> >::__throw_length_error[abi:ne180000]() const
FUNC bd50 f8 0 geode::Mod::getSettingValue<bool>(std::__ndk1::basic_string_view<char, std::__ndk1::char_traits<char> >) const
FUNC be48 8c 0 geode::cast::traverseTypeinfoFor(void*, geode::cast::ClassTypeinfoType const*, char const*)
FUNC bed4 2 0 std::__ndk1::__function::__base<void ()>::~__base()
FUNC bed6 4 0 std::__ndk1::__function::__func<OLBoomScrollLayer::init(cocos2d::CCArray*, int, bool, cocos2d::CCArray*, DynamicScrollDelegate*)::{lambda()#1}, std::__ndk1::allocator<OLBoomScrollLayer::init(cocos2d::CCArray*, int, bool, cocos2d::CCArray*, DynamicScrollDelegate*)::{lambda()#1}>, void ()>::~__func()
FUNC bedc 28 0 std::__ndk1::__function::__func<OLBoomScrollLayer::init(cocos2d::CCArray*, int, bool, cocos2d::CCArray*, DynamicScrollDelegate*)::{lambda()#1}, std::__ndk1::allocator<OLBoomScrollLayer::init(cocos2d::CCArray*, int, bool, cocos2d::CCArray*, DynamicScrollDelegate*)::{lambda()#1}>, void ()>::__clone() const
FUNC bf04 1c 0 std::__ndk1::__function::__func<OLBoomScrollLayer::init(cocos2d::CCArray*, int, bool, cocos2d::CCArray*, DynamicScrollDelegate*)::{lambda()#1}, std::__ndk1::allocator<OLBoomScrollLayer::init(cocos2d::CCArray*, int, bool, cocos2d::CCArray*, DynamicScrollDelegate*)::{lambda()#1}>, void ()>::__clone(std::__ndk1::__function::__base<void ()>*) const
FUNC bf20 2 0 std::__ndk1::__function::__func<OLBoomScrollLayer::init(cocos2d::CCArray*, int, bool, cocos2d::CCArray*, DynamicScrollDelegate*)::{lambda()#1}, std::__ndk1::allocator<OLBoomScrollLayer::init(cocos2d::CCArray*, int, bool, cocos2d::CCArray*, DynamicScrollDelegate*)::{lambda()#1}>, void ()>::destroy()
FUNC bf22 4 0 std::__ndk1::__function::__func<OLBoomScrollLayer::init(cocos2d::CCArray*, int, bool, cocos2d::CCArray*, DynamicScrollDelegate*)::{lambda()#1}, std::__ndk1::allocator<OLBoomScrollLayer::init(cocos2d::CCArray*, int, bool, cocos2d::CCArray*, DynamicScrollDelegate*)::{lambda()#1}>, void ()>::destroy_deallocate()
FUNC bf28 2a8 0 std::__ndk1::__function::__func<OLBoomScrollLayer::init(cocos2d::CCArray*, int, bool, cocos2d::CCArray*, DynamicScrollDelegate*)::{lambda()#1}, std::__ndk1::allocator<OLBoomScrollLayer::init(cocos2d::CCArray*, int, bool, cocos2d::CCArray*, DynamicScrollDelegate*)::{lambda()#1}>, void ()>::operator()()
FUNC c1d0 18 0 std::__ndk1::__function::__func<OLBoomScrollLayer::init(cocos2d::CCArray*, int, bool, cocos2d::CCArray*, DynamicScrollDelegate*)::{lambda()#1}, std::__ndk1::allocator<OLBoomScrollLayer::init(cocos2d::CCArray*, int, bool, cocos2d::CCArray*, DynamicScrollDelegate*)::{lambda()#1}>, void ()>::target(std::type_info const&) const
FUNC c1e8 c 0 std::__ndk1::__function::__func<OLBoomScrollLayer::init(cocos2d::CCArray*, int, bool, cocos2d::CCArray*, DynamicScrollDelegate*)::{lambda()#1}, std::__ndk1::allocator<OLBoomScrollLayer::init(cocos2d::CCArray*, int, bool, cocos2d::CCArray*, DynamicScrollDelegate*)::{lambda()#1}>, void ()>::target_type() const
FUNC c1f4 2c 0 OLBoomScrollLayer::goToPage(cocos2d::CCObject*)
FUNC c220 ba 0 std::__ndk1::__tree<std::__ndk1::__value_type<std::__ndk1::basic_string<char, std::__ndk1::char_traits<char>, std::__ndk1::allocator<char> >, std::__ndk1::shared_ptr<geode::Hook> >, std::__ndk1::__map_value_compare<std::__ndk1::basic_string<char, std::__ndk1::char_traits<char>, std::__ndk1::allocator<char> >, std::__ndk1::__value_type<std::__ndk1::basic_string<char, std::__ndk1::char_traits<char>, std::__ndk1::allocator<char> >, std::__ndk1::shared_ptr<geode::Hook> >, std::__ndk1::less<std::__ndk1::basic_string<char, std::__ndk1::char_traits<char>, std::__ndk1::allocator<char> > >, true>, std::__ndk1::allocator<std::__ndk1::__value_type<std::__ndk1::basic_string<char, std::__ndk1::char_traits<char>, std::__ndk1::allocator<char> >, std::__ndk1::shared_ptr<geode::Hook> > > >::__find_equal<std::__ndk1::basic_string<char, std::__ndk1::char_traits<char>, std::__ndk1::allocator<char> > >(std::__ndk1::__tree_end_node<std::__ndk1::__tree_node_base<void*>*>*&, std::__ndk1::basic_string<char, std::__ndk1::char_traits<char>, std::__ndk1::allocator<char> > const&)
FUNC c2da 14a 0 std::__ndk1::__tree_balance_after_insert[abi:ne180000]<std::__ndk1::__tree_node_base<void*>*>(std::__ndk1::__tree_node_base<void*>*, std::__ndk1::__tree_node_base<void*>*)
FUNC c424 40c 0 __cxx_global_var_init
FUNC c830 20 0 geode::modifier::ModifyBase<geode::modifier::ModifyDerive<hook22<(anonymous namespace)::hook22Parent>, LevelPage> >::~ModifyBase()
FUNC c850 5a8 0 geode::modifier::ModifyDerive<hook22<(anonymous namespace)::hook22Parent>, LevelPage>::apply()
FUNC cdf8 2 0 geode::modifier::ModifyBase<geode::modifier::ModifyDerive<hook22<(anonymous namespace)::hook22Parent>, LevelPage> >::apply()
FUNC cdfc 1e8 0 geode::modifier::ModifyBase<geode::modifier::ModifyDerive<hook22<(anonymous namespace)::hook22Parent>, LevelPage> >::setHookPriority(std::__ndk1::basic_string_view<char, std::__ndk1::char_traits<char> >, int)
FUNC cfe4 5e 0 std::__ndk1::basic_string<char, std::__ndk1::char_traits<char>, std::__ndk1::allocator<char> >::basic_string[abi:ne180000]<0>()
FUNC d042 5c 0 std::__ndk1::unique_ptr<std::__ndk1::__tree_node<std::__ndk1::__value_type<std::__ndk1::basic_string<char, std::__ndk1::char_traits<char>, std::__ndk1::allocator<char> >, std::__ndk1::shared_ptr<geode::Hook> >, void*>, std::__ndk1::__tree_node_destructor<std::__ndk1::allocator<std::__ndk1::__tree_node<std::__ndk1::__value_type<std::__ndk1::basic_string<char, std::__ndk1::char_traits<char>, std::__ndk1::allocator<char> >, std::__ndk1::shared_ptr<geode::Hook> >, void*> > > >::~unique_ptr[abi:ne180000]()
FUNC d09e 2 0 std::__ndk1::__variant_detail::__visitation::__base::__dispatcher<(unsigned int)0>::__dispatch[abi:ne180000]<std::__ndk1::__variant_detail::__dtor<std::__ndk1::__variant_detail::__traits<std::__ndk1::monostate, std::__ndk1::basic_string<char, std::__ndk1::char_traits<char>, std::__ndk1::allocator<char> > >, (std::__ndk1::__variant_detail::_Trait)1>::__destroy[abi:ne180000]()::{lambda(auto:1&)#1}, std::__ndk1::__variant_detail::__base<(std::__ndk1::__variant_detail::__traits<std::__ndk1::monostate, std::__ndk1::basic_string<char, std::__ndk1::char_traits<char>, std::__ndk1::allocator<char> > >)1, std::__ndk1::__variant_detail::__traits, std::__ndk1::allocator<char> >&>(std::__ndk1::__variant_detail::__dtor<std::__ndk1::__variant_detail::__traits<std::__ndk1::monostate, std::__ndk1::basic_string<char, std::__ndk1::char_traits<char>, std::__ndk1::allocator<char> > >, (std::__ndk1::__variant_detail::_Trait)1>, std::__ndk1::__variant_detail::__base<(std::__ndk1::__variant_detail::__traits<std::__ndk1::monostate, std::__ndk1::basic_string<char, std::__ndk1::char_traits<char>, std::__ndk1::allocator<char> > >)1, std::__ndk1::__variant_detail::__traits, std::__ndk1::allocator<char> >&)
FUNC d0a0 e 0 std::__ndk1::__variant_detail::__visitation::__base::__dispatcher<(unsigned int)1>::__dispatch[abi:ne180000]<std::__ndk1::__variant_detail::__dtor<std::__ndk1::__variant_detail::__traits<std::__ndk1::monostate, std::__ndk1::basic_string<char, std::__ndk1::char_traits<char>, std::__ndk1::allocator<char> > >, (std::__ndk1::__variant_detail::_Trait)1>::__destroy[abi:ne180000]()::{lambda(auto:1&)#1}, std::__ndk1::__variant_detail::__base<(std::__ndk1::__variant_detail::__traits<std::__ndk1::monostate, std::__ndk1::basic_string<char, std::__ndk1::char_traits<char>, std::__ndk1::allocator<char> > >)1, std::__ndk1::__variant_detail::__traits, std::__ndk1::allocator<char> >&>(std::__ndk1::__variant_detail::__dtor<std::__ndk1::__variant_detail::__traits<std::__ndk1::monostate, std::__ndk1::basic_string<char, std::__ndk1::char_traits<char>, std::__ndk1::allocator<char> > >, (std::__ndk1::__variant_detail::_Trait)1>, std::__ndk1::__variant_detail::__base<(std::__ndk1::__variant_detail::__traits<std::__ndk1::monostate, std::__ndk1::basic_string<char, std::__ndk1::char_traits<char>, std::__ndk1::allocator<char> > >)1, std::__ndk1::__variant_detail::__traits, std::__ndk1::allocator<char> >&)
FUNC d0b0 15f4 0 geode::modifier::AsStaticFunction_init<hook22<(anonymous namespace)::hook22Parent>, bool (hook22<(anonymous namespace)::hook22Parent>::*)(GJGameLevel*)>::Impl<bool (hook22<(anonymous namespace)::hook22Parent>::*)(GJGameLevel*)>::function(hook22<(anonymous namespace)::hook22Parent>*, GJGameLevel*)
FUNC e6a4 1310 0 geode::modifier::AsStaticFunction_updateDynamicPage<hook22<(anonymous namespace)::hook22Parent>, void (hook22<(anonymous namespace)::hook22Parent>::*)(GJGameLevel*)>::Impl<void (hook22<(anonymous namespace)::hook22Parent>::*)(GJGameLevel*)>::function(hook22<(anonymous namespace)::hook22Parent>*, GJGameLevel*)
FUNC f9c0 1bc 0 hook22<(anonymous namespace)::hook22Parent>::createClippingNode()
FUNC fb7c 4e8 0 geode::modifier::FieldIntermediate<hook22<(anonymous namespace)::hook22Parent>, LevelPage>::operator->()
FUNC 10064 48 0 cocos2d::CCSequence::create(cocos2d::CCFiniteTimeAction*, ...)
FUNC 100ac 40 0 geode::cocos::CCMenuItemExt::LambdaCallback<CCMenuItemSpriteExtra>::execute(cocos2d::CCNode*)
FUNC 100ec 4 0 cocos2d::CCCopying::copyWithZone(cocos2d::CCZone*)
FUNC 100f0 38 0 geode::cocos::CCMenuItemExt::LambdaCallback<CCMenuItemSpriteExtra>::~LambdaCallback()
FUNC 10128 3c 0 geode::cocos::CCMenuItemExt::LambdaCallback<CCMenuItemSpriteExtra>::~LambdaCallback()
FUNC 10164 2 0 cocos2d::CCObject::update(float)
FUNC 10168 34 0 std::__ndk1::__throw_bad_function_call[abi:ne180000]()
FUNC 1019c 10 0 std::__ndk1::bad_function_call::~bad_function_call()
FUNC 101ac 2 0 std::__ndk1::__function::__base<void (CCMenuItemSpriteExtra*)>::~__base()
FUNC 101ae 4 0 std::__ndk1::__function::__func<hook22<(anonymous namespace)::hook22Parent>::init(GJGameLevel*)::{lambda(cocos2d::CCObject*)#1}, std::__ndk1::allocator<hook22<(anonymous namespace)::hook22Parent>::init(GJGameLevel*)::{lambda(cocos2d::CCObject*)#1}>, void (CCMenuItemSpriteExtra*)>::~__func()
FUNC 101b4 20 0 std::__ndk1::__function::__func<hook22<(anonymous namespace)::hook22Parent>::init(GJGameLevel*)::{lambda(cocos2d::CCObject*)#1}, std::__ndk1::allocator<hook22<(anonymous namespace)::hook22Parent>::init(GJGameLevel*)::{lambda(cocos2d::CCObject*)#1}>, void (CCMenuItemSpriteExtra*)>::__clone() const
FUNC 101d4 14 0 std::__ndk1::__function::__func<hook22<(anonymous namespace)::hook22Parent>::init(GJGameLevel*)::{lambda(cocos2d::CCObject*)#1}, std::__ndk1::allocator<hook22<(anonymous namespace)::hook22Parent>::init(GJGameLevel*)::{lambda(cocos2d::CCObject*)#1}>, void (CCMenuItemSpriteExtra*)>::__clone(std::__ndk1::__function::__base<void (CCMenuItemSpriteExtra*)>*) const
FUNC 101e8 2 0 std::__ndk1::__function::__func<hook22<(anonymous namespace)::hook22Parent>::init(GJGameLevel*)::{lambda(cocos2d::CCObject*)#1}, std::__ndk1::allocator<hook22<(anonymous namespace)::hook22Parent>::init(GJGameLevel*)::{lambda(cocos2d::CCObject*)#1}>, void (CCMenuItemSpriteExtra*)>::destroy()
FUNC 101ea 4 0 std::__ndk1::__function::__func<hook22<(anonymous namespace)::hook22Parent>::init(GJGameLevel*)::{lambda(cocos2d::CCObject*)#1}, std::__ndk1::allocator<hook22<(anonymous namespace)::hook22Parent>::init(GJGameLevel*)::{lambda(cocos2d::CCObject*)#1}>, void (CCMenuItemSpriteExtra*)>::destroy_deallocate()
FUNC 101f0 14 0 std::__ndk1::__function::__func<hook22<(anonymous namespace)::hook22Parent>::init(GJGameLevel*)::{lambda(cocos2d::CCObject*)#1}, std::__ndk1::allocator<hook22<(anonymous namespace)::hook22Parent>::init(GJGameLevel*)::{lambda(cocos2d::CCObject*)#1}>, void (CCMenuItemSpriteExtra*)>::operator()(CCMenuItemSpriteExtra*&&)
FUNC 10204 18 0 std::__ndk1::__function::__func<hook22<(anonymous namespace)::hook22Parent>::init(GJGameLevel*)::{lambda(cocos2d::CCObject*)#1}, std::__ndk1::allocator<hook22<(anonymous namespace)::hook22Parent>::init(GJGameLevel*)::{lambda(cocos2d::CCObject*)#1}>, void (CCMenuItemSpriteExtra*)>::target(std::type_info const&) const
FUNC 1021c c 0 std::__ndk1::__function::__func<hook22<(anonymous namespace)::hook22Parent>::init(GJGameLevel*)::{lambda(cocos2d::CCObject*)#1}, std::__ndk1::allocator<hook22<(anonymous namespace)::hook22Parent>::init(GJGameLevel*)::{lambda(cocos2d::CCObject*)#1}>, void (CCMenuItemSpriteExtra*)>::target_type() const
FUNC 10228 2 0 geode::modifier::FieldIntermediate<hook22<(anonymous namespace)::hook22Parent>, LevelPage>::fieldDestructor(void*)
FUNC 1022c 10 0 std::__ndk1::vector<void*, std::__ndk1::allocator<void*> >::__throw_length_error[abi:ne180000]() const
FUNC 1023c 10 0 std::__ndk1::vector<std::__ndk1::function<void (void*)>, std::__ndk1::allocator<std::__ndk1::function<void (void*)> > >::__throw_length_error[abi:ne180000]() const
FUNC 1024c 10 0 std::__ndk1::vector<void*, std::__ndk1::allocator<void*> >::__throw_out_of_range[abi:ne180000]() const
FUNC 1025c 38 0 std::__ndk1::__throw_out_of_range[abi:ne180000](char const*)
FUNC 10294 18 0 std::out_of_range::out_of_range[abi:ne180000](char const*)
FUNC 102ac 10 0 std::__ndk1::vector<std::__ndk1::function<void (void*)>, std::__ndk1::allocator<std::__ndk1::function<void (void*)> > >::__throw_out_of_range[abi:ne180000]() const
FUNC 102bc 2 0 std::__ndk1::__function::__base<void (void*)>::~__base()
FUNC 102be 4 0 std::__ndk1::__function::__func<void (*)(void*), std::__ndk1::allocator<void (*)(void*)>, void (void*)>::~__func()
FUNC 102c4 20 0 std::__ndk1::__function::__func<void (*)(void*), std::__ndk1::allocator<void (*)(void*)>, void (void*)>::__clone() const
FUNC 102e4 14 0 std::__ndk1::__function::__func<void (*)(void*), std::__ndk1::allocator<void (*)(void*)>, void (void*)>::__clone(std::__ndk1::__function::__base<void (void*)>*) const
FUNC 102f8 2 0 std::__ndk1::__function::__func<void (*)(void*), std::__ndk1::allocator<void (*)(void*)>, void (void*)>::destroy()
FUNC 102fa 4 0 std::__ndk1::__function::__func<void (*)(void*), std::__ndk1::allocator<void (*)(void*)>, void (void*)>::destroy_deallocate()
FUNC 102fe 8 0 std::__ndk1::__function::__func<void (*)(void*), std::__ndk1::allocator<void (*)(void*)>, void (void*)>::operator()(void*&&)
FUNC 10308 18 0 std::__ndk1::__function::__func<void (*)(void*), std::__ndk1::allocator<void (*)(void*)>, void (void*)>::target(std::type_info const&) const
FUNC 10320 c 0 std::__ndk1::__function::__func<void (*)(void*), std::__ndk1::allocator<void (*)(void*)>, void (void*)>::target_type() const
FUNC 1032c 7a 0 std::__ndk1::basic_string<char, std::__ndk1::char_traits<char>, std::__ndk1::allocator<char> >::substr[abi:ne180000](unsigned int, unsigned int) const
FUNC 103a6 48 0 std::__ndk1::operator==[abi:ne180000]<char, std::__ndk1::char_traits<char>, std::__ndk1::allocator<char> >(std::__ndk1::basic_string<char, std::__ndk1::char_traits<char>, std::__ndk1::allocator<char> > const&, std::__ndk1::basic_string const*)
FUNC 103ee b2 0 std::__ndk1::basic_string<char, std::__ndk1::char_traits<char>, std::__ndk1::allocator<char> >::__assign_external(char const*, unsigned int)
FUNC 104a0 10 0 std::__ndk1::basic_string<char, std::__ndk1::char_traits<char>, std::__ndk1::allocator<char> >::__throw_out_of_range[abi:ne180000]() const
FUNC 104b0 2d0 0 __cxx_global_var_init
FUNC 10780 20 0 geode::modifier::ModifyBase<geode::modifier::ModifyDerive<hook6<(anonymous namespace)::hook6Parent>, LevelSelectLayer> >::~ModifyBase()
FUNC 107a0 320 0 geode::modifier::ModifyDerive<hook6<(anonymous namespace)::hook6Parent>, LevelSelectLayer>::apply()
FUNC 10ac0 2 0 geode::modifier::ModifyBase<geode::modifier::ModifyDerive<hook6<(anonymous namespace)::hook6Parent>, LevelSelectLayer> >::apply()
FUNC 10ac4 50 0 geode::modifier::AsStaticFunction_init<hook6<(anonymous namespace)::hook6Parent>, bool (hook6<(anonymous namespace)::hook6Parent>::*)(int)>::Impl<bool (hook6<(anonymous namespace)::hook6Parent>::*)(int)>::function(hook6<(anonymous namespace)::hook6Parent>*, int)
FUNC 10b14 2d0 0 __cxx_global_var_init
FUNC 10de4 20 0 geode::modifier::ModifyBase<geode::modifier::ModifyDerive<hook7<(anonymous namespace)::hook7Parent>, PlayLayer> >::~ModifyBase()
FUNC 10e10 350 0 geode::modifier::ModifyDerive<hook7<(anonymous namespace)::hook7Parent>, PlayLayer>::apply()
FUNC 11160 2 0 geode::modifier::ModifyBase<geode::modifier::ModifyDerive<hook7<(anonymous namespace)::hook7Parent>, PlayLayer> >::apply()
FUNC 11164 2c 0 geode::modifier::AsStaticFunction_init<hook7<(anonymous namespace)::hook7Parent>, bool (hook7<(anonymous namespace)::hook7Parent>::*)(GJGameLevel*, bool, bool)>::Impl<bool (hook7<(anonymous namespace)::hook7Parent>::*)(GJGameLevel*, bool, bool)>::function(hook7<(anonymous namespace)::hook7Parent>*, GJGameLevel*, bool, bool)
FUNC 11190 2d0 0 __cxx_global_var_init
FUNC 11460 20 0 geode::modifier::ModifyBase<geode::modifier::ModifyDerive<hook12<(anonymous namespace)::hook12Parent>, cocos2d::CCLayer> >::~ModifyBase()
FUNC 11480 2d0 0 geode::modifier::ModifyDerive<hook12<(anonymous namespace)::hook12Parent>, cocos2d::CCLayer>::apply()
FUNC 11750 2 0 geode::modifier::ModifyBase<geode::modifier::ModifyDerive<hook12<(anonymous namespace)::hook12Parent>, cocos2d::CCLayer> >::apply()
FUNC 11754 7c 0 geode::addresser::getVirtual<bool (cocos2d::CCLayer::*)()>(bool (cocos2d::CCLayer::*)())
FUNC 117d0 d4 0 geode::modifier::AsStaticFunction_init<hook12<(anonymous namespace)::hook12Parent>, bool (hook12<(anonymous namespace)::hook12Parent>::*)()>::Impl<bool (hook12<(anonymous namespace)::hook12Parent>::*)()>::function(hook12<(anonymous namespace)::hook12Parent>*)
FUNC 118a4 5c 0 cocos2d::CCLayer::CCLayer(geode::ZeroConstructorType)
FUNC 11900 4 0 std::__ndk1::__function::__func<hook12<(anonymous namespace)::hook12Parent>::init()::{lambda()#1}, std::__ndk1::allocator<hook12<(anonymous namespace)::hook12Parent>::init()::{lambda()#1}>, void ()>::~__func()
FUNC 11904 20 0 std::__ndk1::__function::__func<hook12<(anonymous namespace)::hook12Parent>::init()::{lambda()#1}, std::__ndk1::allocator<hook12<(anonymous namespace)::hook12Parent>::init()::{lambda()#1}>, void ()>::__clone() const
FUNC 11924 14 0 std::__ndk1::__function::__func<hook12<(anonymous namespace)::hook12Parent>::init()::{lambda()#1}, std::__ndk1::allocator<hook12<(anonymous namespace)::hook12Parent>::init()::{lambda()#1}>, void ()>::__clone(std::__ndk1::__function::__base<void ()>*) const
FUNC 11938 2 0 std::__ndk1::__function::__func<hook12<(anonymous namespace)::hook12Parent>::init()::{lambda()#1}, std::__ndk1::allocator<hook12<(anonymous namespace)::hook12Parent>::init()::{lambda()#1}>, void ()>::destroy()
FUNC 1193a 4 0 std::__ndk1::__function::__func<hook12<(anonymous namespace)::hook12Parent>::init()::{lambda()#1}, std::__ndk1::allocator<hook12<(anonymous namespace)::hook12Parent>::init()::{lambda()#1}>, void ()>::destroy_deallocate()
FUNC 11940 48 0 std::__ndk1::__function::__func<hook12<(anonymous namespace)::hook12Parent>::init()::{lambda()#1}, std::__ndk1::allocator<hook12<(anonymous namespace)::hook12Parent>::init()::{lambda()#1}>, void ()>::operator()()
FUNC 11988 18 0 std::__ndk1::__function::__func<hook12<(anonymous namespace)::hook12Parent>::init()::{lambda()#1}, std::__ndk1::allocator<hook12<(anonymous namespace)::hook12Parent>::init()::{lambda()#1}>, void ()>::target(std::type_info const&) const
FUNC 119a0 c 0 std::__ndk1::__function::__func<hook12<(anonymous namespace)::hook12Parent>::init()::{lambda()#1}, std::__ndk1::allocator<hook12<(anonymous namespace)::hook12Parent>::init()::{lambda()#1}>, void ()>::target_type() const
FUNC 119ac 20 0 geodeImplicitEntry
FUNC 119cc 28 0 std::__ndk1::unordered_map<void*, bool, std::__ndk1::hash<void*>, std::__ndk1::equal_to<void*>, std::__ndk1::allocator<std::__ndk1::pair<void* const, bool> > >::~unordered_map[abi:ne180000]()
FUNC 119f4 cc 0 wrapFunction(unsigned int, tulip::hook::WrapperMetadata const&)
FUNC 11ac0 48 0 geode::impl::ResultData<void*, std::__ndk1::basic_string<char, std::__ndk1::char_traits<char>, std::__ndk1::allocator<char> > >::unwrapErr() &
FUNC 11b08 60 0 geode::impl::ResultData<void*, std::__ndk1::basic_string<char, std::__ndk1::char_traits<char>, std::__ndk1::allocator<char> > >::~ResultData()
FUNC 11b68 46 0 tulip::hook::WrapperMetadata::~WrapperMetadata()
FUNC 11bb0 1b4 0 cocos2d::CCObject::CCObject()
FUNC 11d64 10 0 cocos2d::CCObject::~CCObject()
FUNC 11d74 10 0 cocos2d::CCNode::~CCNode()
FUNC 11d84 8 0 {virtual override thunk({offset(-264)}, cocos2d::CCLayer::~CCLayer())}
FUNC 11d8c 10 0 cocos2d::CCLayer::~CCLayer()
FUNC 11d9c 14 0 {virtual override thunk({offset(-264)}, cocos2d::CCLayer::~CCLayer())}
FUNC 11db0 e4 0 cocos2d::CCDictionary::objectForKey(gd::string const&)
FUNC 11ea0 70 0 tulip::hook::AbstractFunction::from<cocos2d::CCObject*, cocos2d::CCDictionary*, gd::string const&>(cocos2d::CCObject* (*)(cocos2d::CCDictionary*, gd::string const&))
FUNC 11f10 e4 0 cocos2d::CCDictionary::valueForKey(gd::string const&)
FUNC 12000 70 0 tulip::hook::AbstractFunction::from<cocos2d::CCString const*, cocos2d::CCDictionary*, gd::string const&>(cocos2d::CCString const* (*)(cocos2d::CCDictionary*, gd::string const&))
FUNC 12070 128 0 TextArea::create(gd::string, char const*, float, float, cocos2d::CCPoint, float, bool)
FUNC 121a0 560 0 tulip::hook::AbstractFunction::from<TextArea*, gd::string, char const*, float, float, cocos2d::CCPoint, float, bool>(TextArea* (*)(gd::string, char const*, float, float, cocos2d::CCPoint, float, bool))
FUNC 12700 f8 0 TextArea::setString(gd::string)
FUNC 12800 70 0 tulip::hook::AbstractFunction::from<void, TextArea*, gd::string>(void (*)(TextArea*, gd::string))
FUNC 12870 2 0 cocos2d::CCKeyboardDelegate::keyUp(cocos2d::enumKeyCodes)
FUNC 12872 2 0 cocos2d::CCMouseDelegate::rightKeyDown()
FUNC 12874 2 0 cocos2d::CCMouseDelegate::rightKeyUp()
FUNC 12876 2 0 cocos2d::CCMouseDelegate::scrollWheel(float, float)
FUNC 12878 22c 0 cocos2d::CCNode::~CCNode()
FUNC 12aa4 274 0 cocos2d::CCLayer::~CCLayer()
FUNC 12d18 42c 0 cocos2d::CCObject::~CCObject()
FUNC 13144 f8 0 _ZN5geode15UnwrapExceptionC2IRPvQsr4implE18IsStringStreamableIT_EEENS_4impl5OkTagEOS4_
FUNC 1323c 104 0 _ZN5geode15UnwrapExceptionC2IRNSt6__ndk112basic_stringIcNS2_11char_traitsIcEENS2_9allocatorIcEEEEQsr4implE18IsStringStreamableIT_EEENS_4impl6ErrTagEOSA_
FUNC 13340 2 0 std::__ndk1::__variant_detail::__visitation::__base::__dispatcher<(unsigned int)0>::__dispatch[abi:ne180000]<std::__ndk1::__variant_detail::__dtor<std::__ndk1::__variant_detail::__traits<void*, std::__ndk1::basic_string<char, std::__ndk1::char_traits<char>, std::__ndk1::allocator<char> > >, (std::__ndk1::__variant_detail::_Trait)1>::__destroy[abi:ne180000]()::{lambda(auto:1&)#1}, std::__ndk1::__variant_detail::__base<(std::__ndk1::__variant_detail::__traits<void*, std::__ndk1::basic_string<char, std::__ndk1::char_traits<char>, std::__ndk1::allocator<char> > >)1, std::__ndk1::__variant_detail::__traits, std::__ndk1::allocator<char> >&>(std::__ndk1::__variant_detail::__dtor<std::__ndk1::__variant_detail::__traits<void*, std::__ndk1::basic_string<char, std::__ndk1::char_traits<char>, std::__ndk1::allocator<char> > >, (std::__ndk1::__variant_detail::_Trait)1>, std::__ndk1::__variant_detail::__base<(std::__ndk1::__variant_detail::__traits<void*, std::__ndk1::basic_string<char, std::__ndk1::char_traits<char>, std::__ndk1::allocator<char> > >)1, std::__ndk1::__variant_detail::__traits, std::__ndk1::allocator<char> >&)
FUNC 13342 e 0 std::__ndk1::__variant_detail::__visitation::__base::__dispatcher<(unsigned int)1>::__dispatch[abi:ne180000]<std::__ndk1::__variant_detail::__dtor<std::__ndk1::__variant_detail::__traits<void*, std::__ndk1::basic_string<char, std::__ndk1::char_traits<char>, std::__ndk1::allocator<char> > >, (std::__ndk1::__variant_detail::_Trait)1>::__destroy[abi:ne180000]()::{lambda(auto:1&)#1}, std::__ndk1::__variant_detail::__base<(std::__ndk1::__variant_detail::__traits<void*, std::__ndk1::basic_string<char, std::__ndk1::char_traits<char>, std::__ndk1::allocator<char> > >)1, std::__ndk1::__variant_detail::__traits, std::__ndk1::allocator<char> >&>(std::__ndk1::__variant_detail::__dtor<std::__ndk1::__variant_detail::__traits<void*, std::__ndk1::basic_string<char, std::__ndk1::char_traits<char>, std::__ndk1::allocator<char> > >, (std::__ndk1::__variant_detail::_Trait)1>, std::__ndk1::__variant_detail::__base<(std::__ndk1::__variant_detail::__traits<void*, std::__ndk1::basic_string<char, std::__ndk1::char_traits<char>, std::__ndk1::allocator<char> > >)1, std::__ndk1::__variant_detail::__traits, std::__ndk1::allocator<char> >&)
FUNC 13350 3ea 0 std::__ndk1::__hash_table<std::__ndk1::__hash_value_type<void*, bool>, std::__ndk1::__unordered_map_hasher<void*, std::__ndk1::__hash_value_type<void*, bool>, std::__ndk1::hash<void*>, std::__ndk1::equal_to<void*>, true>, std::__ndk1::__unordered_map_equal<void*, std::__ndk1::__hash_value_type<void*, bool>, std::__ndk1::equal_to<void*>, std::__ndk1::hash<void*>, true>, std::__ndk1::allocator<std::__ndk1::__hash_value_type<void*, bool> > >::__emplace_unique_key_args<void*, std::__ndk1::piecewise_construct_t const&, std::__ndk1::tuple<void* const&>, std::__ndk1::tuple<> >(void* const&, std::__ndk1::piecewise_construct_t const&, std::__ndk1::tuple<void* const&>, std::__ndk1::tuple<>)
FUNC 1373c 1cc 0 fmt::v11::detail::write_loc(fmt::v11::basic_appender<char>, fmt::v11::loc_value, fmt::v11::format_specs const&, fmt::v11::detail::locale_ref)
FUNC 13908 44 0 fmt::v11::format_facet<std::__ndk1::locale>::~format_facet()
FUNC 1394c 38 0 fmt::v11::report_error(char const*)
FUNC 13984 18 0 fmt::v11::format_error::runtime_error(char const*)
FUNC 1399c 420 0 fmt::v11::format_facet<std::__ndk1::locale>::do_put(fmt::v11::basic_appender<char>, fmt::v11::loc_value, fmt::v11::format_specs const&) const
FUNC 13dbc 30 0 fmt::v11::detail::loc_writer<char>::~loc_writer()
FUNC 13dec c0 0 fmt::v11::vformat(fmt::v11::basic_string_view<char>, fmt::v11::basic_format_args<fmt::v11::context>)
FUNC 13eac 1ac 0 fmt::v11::detail::dragonbox::cache_accessor<double>::get_cached_power(int)
FUNC 14058 278 0 fmt::v11::detail::vformat_to<char>(fmt::v11::detail::buffer<char>&, fmt::v11::basic_string_view<char>, fmt::v11::detail::vformat_args<char>::type, fmt::v11::detail::locale_ref)
FUNC 142d0 228 0 fmt::v11::detail::is_printable(unsigned int)
FUNC 144f8 384 0 fmt::v11::detail::dragonbox::to_decimal<float>(float)
FUNC 1487c 880 0 fmt::v11::detail::dragonbox::to_decimal<double>(double)
FUNC 150fc 4c 0 fmt::v11::basic_memory_buffer<char, (unsigned int)500, std::__ndk1::allocator<char> >::grow(fmt::v11::detail::buffer<char>&, unsigned int)
FUNC 15148 48 0 fmt::v11::format_facet<std::__ndk1::locale>::~format_facet()
FUNC 15190 10 0 fmt::v11::format_error::~format_error()
FUNC 151a0 9a 0 fmt::v11::detail::copy_noinline<char, char const*, fmt::v11::basic_appender<char> >(char const*, char const*, fmt::v11::basic_appender<char>)
FUNC 1523c 54 0 fmt::v11::detail::default_arg_formatter<char>::operator()<bool>(bool)
FUNC 15290 34 0 fmt::v11::detail::default_arg_formatter<char>::operator()<char>(char)
FUNC 152c4 2c 0 fmt::v11::detail::default_arg_formatter<char>::operator()<char const*>(char const*)
FUNC 152f0 74 0 fmt::v11::detail::default_arg_formatter<char>::operator()<void const*>(void const*)
FUNC 15364 1b0 0 _ZN3fmt3v116detail5writeIcNS0_14basic_appenderIcEEiTnNSt6__ndk19enable_ifIXaaaasr11is_integralIT1_EE5valuentsr3std7is_sameIS7_bEE5valuentsr3std7is_sameIS7_T_EE5valueEiE4typeELi0EEET0_SB_S7_
FUNC 15514 9a 0 fmt::v11::detail::copy_noinline<char, char*, fmt::v11::basic_appender<char> >(char*, char*, fmt::v11::basic_appender<char>)
FUNC 155b0 174 0 _ZN3fmt3v116detail5writeIcNS0_14basic_appenderIcEEjTnNSt6__ndk19enable_ifIXaaaasr11is_integralIT1_EE5valuentsr3std7is_sameIS7_bEE5valuentsr3std7is_sameIS7_T_EE5valueEiE4typeELi0EEET0_SB_S7_
FUNC 15724 218 0 _ZN3fmt3v116detail5writeIcNS0_14basic_appenderIcEExTnNSt6__ndk19enable_ifIXaaaasr11is_integralIT1_EE5valuentsr3std7is_sameIS7_bEE5valuentsr3std7is_sameIS7_T_EE5valueEiE4typeELi0EEET0_SB_S7_
FUNC 1593c 1dc 0 _ZN3fmt3v116detail5writeIcNS0_14basic_appenderIcEEyTnNSt6__ndk19enable_ifIXaaaasr11is_integralIT1_EE5valuentsr3std7is_sameIS7_bEE5valuentsr3std7is_sameIS7_T_EE5valueEiE4typeELi0EEET0_SB_S7_
FUNC 15b18 188 0 _ZN3fmt3v116detail5writeIcNS0_14basic_appenderIcEEbTnNSt6__ndk19enable_ifIXsr3std7is_sameIT1_bEE5valueEiE4typeELi0EEET0_SA_S7_RKNS0_12format_specsENS1_10locale_refE
FUNC 15ca0 9f8 0 fmt::v11::detail::write_int_noinline<char, fmt::v11::basic_appender<char>, unsigned int>(fmt::v11::basic_appender<char>, fmt::v11::detail::write_int_arg<unsigned int>, fmt::v11::format_specs const&, fmt::v11::detail::locale_ref)
FUNC 16698 fa 0 fmt::v11::detail::fill<char, fmt::v11::basic_appender<char> >(fmt::v11::basic_appender<char>, unsigned int, fmt::v11::detail::fill_t const&)
FUNC 16794 184 0 fmt::v11::detail::write_padded<char, (fmt::v11::align::type)1, fmt::v11::basic_appender<char>, fmt::v11::detail::write_char<char, fmt::v11::basic_appender<char> >(fmt::v11::basic_appender<char>, char, fmt::v11::format_specs const&)::{lambda(fmt::v11::basic_appender<char>&)#1}>(fmt::v11::basic_appender<char>, fmt::v11::format_specs const&, unsigned int, unsigned int, fmt::v11::detail::write_char<char, fmt::v11::basic_appender<char> >(fmt::v11::basic_appender<char>, char, fmt::v11::format_specs const&)::{lambda(fmt::v11::basic_appender<char>&)#1})
FUNC 16918 214 0 fmt::v11::detail::write_escaped_cp<fmt::v11::basic_appender<char>, char>(fmt::v11::basic_appender<char>, fmt::v11::detail::find_escape_result<char> const&)
FUNC 16b2c e0 0 fmt::v11::detail::write_codepoint<(unsigned int)2, char, fmt::v11::basic_appender<char> >(fmt::v11::basic_appender<char>, char, unsigned int)
FUNC 16c0c e0 0 fmt::v11::detail::write_codepoint<(unsigned int)8, char, fmt::v11::basic_appender<char> >(fmt::v11::basic_appender<char>, char, unsigned int)
FUNC 16cf0 73c 0 _ZN3fmt3v116detail5writeIcNS0_14basic_appenderIcEEfTnNSt6__ndk19enable_ifIXsr13is_fast_floatIT1_EE5valueEiE4typeELi0EEET0_SA_S7_
FUNC 1742c 140 0 fmt::v11::detail::write_padded<char, (fmt::v11::align::type)1, fmt::v11::basic_appender<char>, fmt::v11::detail::write_nonfinite<char, fmt::v11::basic_appender<char> >(fmt::v11::basic_appender<char>, bool, fmt::v11::format_specs, fmt::v11::sign::type)::{lambda(fmt::v11::basic_appender<char>&)#1}>(fmt::v11::basic_appender<char>, fmt::v11::format_specs const&, unsigned int, unsigned int, fmt::v11::detail::write_nonfinite<char, fmt::v11::basic_appender<char> >(fmt::v11::basic_appender<char>, bool, fmt::v11::format_specs, fmt::v11::sign::type)::{lambda(fmt::v11::basic_appender<char>&)#1})
FUNC 1756c e0 0 fmt::v11::detail::do_write_float<char, fmt::v11::basic_appender<char>, fmt::v11::detail::dragonbox::decimal_fp<float>, fmt::v11::detail::digit_grouping<char> >(fmt::v11::basic_appender<char>, fmt::v11::detail::dragonbox::decimal_fp<float> const&, fmt::v11::format_specs const&, fmt::v11::detail::float_specs, fmt::v11::detail::locale_ref)::{lambda(fmt::v11::basic_appender<char>(fmt::v11::basic_appender<char>))#1}::operator() const
FUNC 1764c 194 0 fmt::v11::detail::digit_grouping<char>::digit_grouping(fmt::v11::detail::locale_ref, bool)
FUNC 177e0 22 0 fmt::v11::detail::digit_grouping<char>::~digit_grouping()
FUNC 17804 104 0 fmt::v11::detail::write_exponent<char, fmt::v11::basic_appender<char> >(int, fmt::v11::basic_appender<char>)
FUNC 17908 144 0 _ZN3fmt3v116detail17write_significandIcjTnNSt6__ndk19enable_ifIXsr3std11is_integralIT0_EE5valueEiE4typeELi0EEEPT_S9_S5_iiS8_
FUNC 17a4c 66 0 std::__ndk1::basic_string<char, std::__ndk1::char_traits<char>, std::__ndk1::allocator<char> >::__assign_no_alias<true>(char const*, unsigned int)
FUNC 17ab2 a6 0 std::__ndk1::basic_string<char, std::__ndk1::char_traits<char>, std::__ndk1::allocator<char> >::__assign_no_alias<false>(char const*, unsigned int)
FUNC 17b58 21c 0 fmt::v11::detail::digit_grouping<char>::apply<fmt::v11::basic_appender<char>, char>(fmt::v11::basic_appender<char>, fmt::v11::basic_string_view<char>) const
FUNC 17d74 6e 0 fmt::v11::basic_memory_buffer<int, (unsigned int)500, std::__ndk1::allocator<int> >::grow(fmt::v11::detail::buffer<int>&, unsigned int)
FUNC 17df0 e4 0 _ZN3fmt3v116detail5writeIcNS0_14basic_appenderIcEEdTnNSt6__ndk19enable_ifIXsr13is_fast_floatIT1_EE5valueEiE4typeELi0EEET0_SA_S7_
FUNC 17ed4 9ac 0 fmt::v11::detail::do_write_float<char, fmt::v11::basic_appender<char>, fmt::v11::detail::dragonbox::decimal_fp<double>, fmt::v11::detail::digit_grouping<char> >(fmt::v11::basic_appender<char>, fmt::v11::detail::dragonbox::decimal_fp<double> const&, fmt::v11::format_specs const&, fmt::v11::detail::float_specs, fmt::v11::detail::locale_ref)
FUNC 18880 e8 0 fmt::v11::detail::do_write_float<char, fmt::v11::basic_appender<char>, fmt::v11::detail::dragonbox::decimal_fp<double>, fmt::v11::detail::digit_grouping<char> >(fmt::v11::basic_appender<char>, fmt::v11::detail::dragonbox::decimal_fp<double> const&, fmt::v11::format_specs const&, fmt::v11::detail::float_specs, fmt::v11::detail::locale_ref)::{lambda(fmt::v11::basic_appender<char>(fmt::v11::basic_appender<char>))#1}::operator() const
FUNC 18968 19c 0 _ZN3fmt3v116detail17write_significandIcyTnNSt6__ndk19enable_ifIXsr3std11is_integralIT0_EE5valueEiE4typeELi0EEEPT_S9_S5_iiS8_
FUNC 18b10 e4 0 _ZN3fmt3v116detail5writeIcNS0_14basic_appenderIcEEeTnNSt6__ndk19enable_ifIXsr13is_fast_floatIT1_EE5valueEiE4typeELi0EEET0_SA_S7_
FUNC 18bf4 150 0 fmt::v11::detail::write_padded<char, (fmt::v11::align::type)2, fmt::v11::basic_appender<char>, fmt::v11::detail::write_ptr<char, fmt::v11::basic_appender<char>, unsigned int>(fmt::v11::basic_appender<char>, unsigned int, fmt::v11::format_specs const*)::{lambda(fmt::v11::basic_appender<char>&)#1}>(fmt::v11::basic_appender<char>, fmt::v11::format_specs const&, unsigned int, unsigned int, fmt::v11::detail::write_ptr<char, fmt::v11::basic_appender<char>, unsigned int>(fmt::v11::basic_appender<char>, unsigned int, fmt::v11::format_specs const*)::{lambda(fmt::v11::basic_appender<char>&)#1})
FUNC 18d48 1660 0 fmt::v11::detail::parse_replacement_field<char, fmt::v11::detail::vformat_to<char>(fmt::v11::detail::buffer<char>&, fmt::v11::basic_string_view<char>, fmt::v11::detail::vformat_args<char>::type, fmt::v11::detail::locale_ref)::format_handler&>(char const*, char const*, fmt::v11::detail::vformat_to<char>(fmt::v11::detail::buffer<char>&, fmt::v11::basic_string_view<char>, fmt::v11::detail::vformat_args<char>::type, fmt::v11::detail::locale_ref)::format_handler&)
FUNC 1a3a8 1cc 0 fmt::v11::detail::parse_dynamic_spec<char>(char const*, char const*, int&, fmt::v11::detail::arg_ref<char>&, fmt::v11::basic_format_parse_context<char>&)
FUNC 1a574 106 0 fmt::v11::basic_format_args<fmt::v11::context>::get<char>(fmt::v11::basic_string_view<char>) const
FUNC 1a67c b78 0 fmt::v11::detail::write_int_noinline<char, fmt::v11::basic_appender<char>, unsigned long long>(fmt::v11::basic_appender<char>, fmt::v11::detail::write_int_arg<unsigned long long>, fmt::v11::format_specs const&, fmt::v11::detail::locale_ref)
FUNC 1b1f4 3a4 0 _ZN3fmt3v116detail15format_hexfloatIdTnNSt6__ndk19enable_ifIXntsr16is_double_doubleIT_EE5valueEiE4typeELi0EEEvS5_NS0_12format_specsERNS1_6bufferIcEE
FUNC 1b598 ebc 0 fmt::v11::detail::format_float<double>(double, int, fmt::v11::detail::float_specs, fmt::v11::detail::buffer<char>&)
FUNC 1c454 10c 0 fmt::v11::detail::write_padded<char, (fmt::v11::align::type)2, fmt::v11::basic_appender<char>, fmt::v11::detail::write_bytes<char, (fmt::v11::align::type)2, fmt::v11::basic_appender<char> >(fmt::v11::basic_appender<char>, fmt::v11::basic_string_view<char>, fmt::v11::format_specs const&)::{lambda(fmt::v11::basic_appender<char>&)#1}>(fmt::v11::basic_appender<char>, fmt::v11::format_specs const&, unsigned int, unsigned int, fmt::v11::detail::write_bytes<char, (fmt::v11::align::type)2, fmt::v11::basic_appender<char> >(fmt::v11::basic_appender<char>, fmt::v11::basic_string_view<char>, fmt::v11::format_specs const&)::{lambda(fmt::v11::basic_appender<char>&)#1})
FUNC 1c560 c4 0 fmt::v11::detail::bigint::operator<<=(int)
FUNC 1c624 414 0 fmt::v11::detail::bigint::assign_pow10(int)
FUNC 1ca38 276 0 fmt::v11::detail::bigint::divmod_assign(fmt::v11::detail::bigint const&)
FUNC 1ccae 6e 0 fmt::v11::basic_memory_buffer<unsigned int, (unsigned int)32, std::__ndk1::allocator<unsigned int> >::grow(fmt::v11::detail::buffer<unsigned int>&, unsigned int)
FUNC 1cd1c 994 0 fmt::v11::detail::do_write_float<char, fmt::v11::basic_appender<char>, fmt::v11::detail::big_decimal_fp, fmt::v11::detail::digit_grouping<char> >(fmt::v11::basic_appender<char>, fmt::v11::detail::big_decimal_fp const&, fmt::v11::format_specs const&, fmt::v11::detail::float_specs, fmt::v11::detail::locale_ref)
FUNC 1d6b0 e0 0 fmt::v11::detail::do_write_float<char, fmt::v11::basic_appender<char>, fmt::v11::detail::big_decimal_fp, fmt::v11::detail::digit_grouping<char> >(fmt::v11::basic_appender<char>, fmt::v11::detail::big_decimal_fp const&, fmt::v11::format_specs const&, fmt::v11::detail::float_specs, fmt::v11::detail::locale_ref)::{lambda(fmt::v11::basic_appender<char>(fmt::v11::basic_appender<char>))#1}::operator() const
FUNC 1d790 820 0 fmt::v11::detail::write<char, fmt::v11::basic_appender<char> >(fmt::v11::basic_appender<char>, fmt::v11::basic_string_view<char>, fmt::v11::format_specs const&)
FUNC 1dfb0 124 0 fmt::v11::detail::for_each_codepoint<fmt::v11::detail::find_escape(char const*, char const*)::{lambda(unsigned int, fmt::v11::basic_string_view<char>)#1}>(fmt::v11::basic_string_view<char>, fmt::v11::detail::find_escape(char const*, char const*)::{lambda(unsigned int, fmt::v11::basic_string_view<char>)#1})::{lambda(char const*, char const*)#1}::operator()(char const*, char const*) const
FUNC 1e0e0 1e4 0 fmt::v11::detail::for_each_codepoint<fmt::v11::detail::compute_width(fmt::v11::basic_string_view<char>)::count_code_points>(fmt::v11::basic_string_view<char>, fmt::v11::detail::compute_width(fmt::v11::basic_string_view<char>)::count_code_points)::{lambda(char const*, char const*)#1}::operator()(char const*, char const*) const
FUNC 1e2c4 544 0 fmt::v11::detail::write_int<fmt::v11::basic_appender<char>, unsigned long long, char>(fmt::v11::basic_appender<char>, unsigned long long, unsigned int, fmt::v11::format_specs const&, fmt::v11::detail::digit_grouping<char> const&)
PUBLIC 1e809 0 __ThumbV7PILongThunk___cxa_atexit
PUBLIC 1e815 0 __ThumbV7PILongThunk__ZdlPv
PUBLIC 1e821 0 __ThumbV7PILongThunk__ZN15BoomScrollLayer11quickUpdateEv
PUBLIC 1e82d 0 __ThumbV7PILongThunk__ZN9LevelPage4initEP11GJGameLevel
PUBLIC 1e839 0 __ThumbV7PILongThunk__ZN9LevelPage6onPlayEPN7cocos2d8CCObjectE
PUBLIC 1e845 0 __ThumbV7PILongThunk__ZN5geode9addresser9Addresser19followThunkFunctionEi
PUBLIC 1e851 0 __ThumbV7PILongThunk__ZNSt6__ndk16locale5facetD2Ev
PUBLIC 1e860 0 <.plt ELF section in firee.overchargedlevels.android32.so>
STACK CFI INIT a704 2f4 .cfa: sp 0 +
STACK CFI a706 .cfa: sp 20 + .ra: .cfa -4 + ^ r7: .cfa -8 + ^ r6: .cfa -12 + ^ r5: .cfa -16 + ^ r4: .cfa -20 + ^
STACK CFI a708 .cfa: r7 8 +
STACK CFI a70c r11: .cfa -24 + ^ r10: .cfa -28 + ^ r9: .cfa -32 + ^ r8: .cfa -36 + ^
STACK CFI INIT a9f8 20 .cfa: sp 0 +
STACK CFI a9fa .cfa: sp 16 + .ra: .cfa -4 + ^ r7: .cfa -8 + ^ r6: .cfa -12 + ^ r4: .cfa -16 + ^
STACK CFI a9fc .cfa: r7 8 +
STACK CFI INIT aa20 3a4 .cfa: sp 0 +
STACK CFI aa22 .cfa: sp 20 + .ra: .cfa -4 + ^ r7: .cfa -8 + ^ r6: .cfa -12 + ^ r5: .cfa -16 + ^ r4: .cfa -20 + ^
STACK CFI aa24 .cfa: r7 8 +
STACK CFI aa28 r11: .cfa -24 + ^ r10: .cfa -28 + ^ r9: .cfa -32 + ^ r8: .cfa -36 + ^
STACK CFI INIT adc4 3a .cfa: sp 0 +
STACK CFI adc6 .cfa: sp 16 + .ra: .cfa -4 + ^ r7: .cfa -8 + ^ r5: .cfa -12 + ^ r4: .cfa -16 + ^
STACK CFI adc8 .cfa: r7 8 +
STACK CFI INIT ae00 60 .cfa: sp 0 +
STACK CFI ae02 .cfa: sp 16 + .ra: .cfa -4 + ^ r7: .cfa -8 + ^ r6: .cfa -12 + ^ r4: .cfa -16 + ^
STACK CFI ae04 .cfa: r7 8 +
STACK CFI INIT ae60 3e .cfa: sp 0 +
STACK CFI ae62 .cfa: sp 20 + .ra: .cfa -4 + ^ r7: .cfa -8 + ^ r6: .cfa -12 + ^ r5: .cfa -16 + ^ r4: .cfa -20 + ^
STACK CFI ae64 .cfa: r7 8 +
STACK CFI ae68 r11: .cfa -24 + ^
STACK CFI INIT ae9e 2 .cfa: sp 0 +
STACK CFI INIT aea0 c .cfa: sp 0 +
STACK CFI aea2 .cfa: sp 8 + .ra: .cfa -4 + ^ r7: .cfa -8 + ^
STACK CFI aea4 .cfa: r7 8 +
STACK CFI INIT aeac f8 .cfa: sp 0 +
STACK CFI aeae .cfa: sp 20 + .ra: .cfa -4 + ^ r7: .cfa -8 + ^ r6: .cfa -12 + ^ r5: .cfa -16 + ^ r4: .cfa -20 + ^
STACK CFI aeb0 .cfa: r7 8 +
STACK CFI aeb4 r8: .cfa -24 + ^
STACK CFI INIT afa4 34 .cfa: sp 0 +
STACK CFI afa6 .cfa: sp 8 + .ra: .cfa -4 + ^ r7: .cfa -8 + ^
STACK CFI afa8 .cfa: r7 8 +
STACK CFI INIT afd8 d8 .cfa: sp 0 +
STACK CFI afda .cfa: sp 20 + .ra: .cfa -4 + ^ r7: .cfa -8 + ^ r6: .cfa -12 + ^ r5: .cfa -16 + ^ r4: .cfa -20 + ^
STACK CFI afdc .cfa: r7 8 +
STACK CFI afe0 r11: .cfa -24 + ^ r10: .cfa -28 + ^ r9: .cfa -32 + ^ r8: .cfa -36 + ^
STACK CFI INIT b0b0 68 .cfa: sp 0 +
STACK CFI b0b2 .cfa: sp 20 + .ra: .cfa -4 + ^ r7: .cfa -8 + ^ r6: .cfa -12 + ^ r5: .cfa -16 + ^ r4: .cfa -20 + ^
STACK CFI b0b4 .cfa: r7 8 +
STACK CFI b0b8 r11: .cfa -24 + ^
STACK CFI INIT b118 10 .cfa: sp 0 +
STACK CFI b11a .cfa: sp 8 + .ra: .cfa -4 + ^ r7: .cfa -8 + ^
STACK CFI b11c .cfa: r7 8 +
STACK CFI INIT b128 108 .cfa: sp 0 +
STACK CFI b12a .cfa: sp 20 + .ra: .cfa -4 + ^ r7: .cfa -8 + ^ r6: .cfa -12 + ^ r5: .cfa -16 + ^ r4: .cfa -20 + ^
STACK CFI b12c .cfa: r7 8 +
STACK CFI b130 r11: .cfa -24 + ^ r10: .cfa -28 + ^ r9: .cfa -32 + ^ r8: .cfa -36 + ^
STACK CFI INIT b230 110 .cfa: sp 0 +
STACK CFI b232 .cfa: sp 20 + .ra: .cfa -4 + ^ r7: .cfa -8 + ^ r6: .cfa -12 + ^ r5: .cfa -16 + ^ r4: .cfa -20 + ^
STACK CFI b234 .cfa: r7 8 +
STACK CFI b238 r11: .cfa -24 + ^ r10: .cfa -28 + ^ r9: .cfa -32 + ^ r8: .cfa -36 + ^
STACK CFI INIT b340 10 .cfa: sp 0 +
STACK CFI b342 .cfa: sp 8 + .ra: .cfa -4 + ^ r7: .cfa -8 + ^
STACK CFI b344 .cfa: r7 8 +
STACK CFI INIT b350 38 .cfa: sp 0 +
STACK CFI b352 .cfa: sp 16 + .ra: .cfa -4 + ^ r7: .cfa -8 + ^ r5: .cfa -12 + ^ r4: .cfa -16 + ^
STACK CFI b354 .cfa: r7 8 +
STACK CFI INIT b388 18 .cfa: sp 0 +
STACK CFI b38a .cfa: sp 8 + .ra: .cfa -4 + ^ r7: .cfa -8 + ^
STACK CFI b38c .cfa: r7 8 +
STACK CFI INIT b3a0 28 .cfa: sp 0 +
STACK CFI b3a2 .cfa: sp 8 + .ra: .cfa -4 + ^ r7: .cfa -8 + ^
STACK CFI b3a4 .cfa: r7 8 +
STACK CFI INIT b3c8 ce .cfa: sp 0 +
STACK CFI b3ca .cfa: sp 20 + .ra: .cfa -4 + ^ r7: .cfa -8 + ^ r6: .cfa -12 + ^ r5: .cfa -16 + ^ r4: .cfa -20 + ^
STACK CFI b3cc .cfa: r7 8 +
STACK CFI b3d0 r10: .cfa -24 + ^ r9: .cfa -28 + ^ r8: .cfa -32 + ^
STACK CFI INIT b496 e0 .cfa: sp 0 +
STACK CFI b498 .cfa: sp 20 + .ra: .cfa -4 + ^ r7: .cfa -8 + ^ r6: .cfa -12 + ^ r5: .cfa -16 + ^ r4: .cfa -20 + ^
STACK CFI b49a .cfa: r7 8 +
STACK CFI b49e r11: .cfa -24 + ^ r9: .cfa -28 + ^ r8: .cfa -32 + ^
STACK CFI INIT b578 164 .cfa: sp 0 +
STACK CFI b57a .cfa: sp 20 + .ra: .cfa -4 + ^ r7: .cfa -8 + ^ r6: .cfa -12 + ^ r5: .cfa -16 + ^ r4: .cfa -20 + ^
STACK CFI b57c .cfa: r7 8 +
STACK CFI b580 r10: .cfa -24 + ^ r9: .cfa -28 + ^ r8: .cfa -32 + ^
STACK CFI INIT b6dc 46 .cfa: sp 0 +
STACK CFI b6de .cfa: sp 20 + .ra: .cfa -4 + ^ r7: .cfa -8 + ^ r6: .cfa -12 + ^ r5: .cfa -16 + ^ r4: .cfa -20 + ^
STACK CFI b6e0 .cfa: r7 8 +
STACK CFI b6e4 r8: .cfa -24 + ^
STACK CFI INIT b722 3c .cfa: sp 0 +
STACK CFI b724 .cfa: sp 16 + .ra: .cfa -4 + ^ r7: .cfa -8 + ^ r5: .cfa -12 + ^ r4: .cfa -16 + ^
STACK CFI b726 .cfa: r7 8 +
STACK CFI INIT b760 10 .cfa: sp 0 +
STACK CFI b762 .cfa: sp 8 + .ra: .cfa -4 + ^ r7: .cfa -8 + ^
STACK CFI b764 .cfa: r7 8 +
STACK CFI INIT b770 2 .cfa: sp 0 +
STACK CFI INIT b772 e .cfa: sp 0 +
STACK CFI INIT b780 c0 .cfa: sp 0 +
STACK CFI b782 .cfa: sp 20 + .ra: .cfa -4 + ^ r7: .cfa -8 + ^ r6: .cfa -12 + ^ r5: .cfa -16 + ^ r4: .cfa -20 + ^
STACK CFI b784 .cfa: r7 8 +
STACK CFI b788 r10: .cfa -24 + ^ r9: .cfa -28 + ^ r8: .cfa -32 + ^
STACK CFI INIT b840 82 .cfa: sp 0 +
STACK CFI b842 .cfa: sp 20 + .ra: .cfa -4 + ^ r7: .cfa -8 + ^ r6: .cfa -12 + ^ r5: .cfa -16 + ^ r4: .cfa -20 + ^
STACK CFI b844 .cfa: r7 8 +
STACK CFI b848 r11: .cfa -24 + ^
STACK CFI INIT b8c2 274 .cfa: sp 0 +
STACK CFI b8c4 .cfa: sp 20 + .ra: .cfa -4 + ^ r7: .cfa -8 + ^ r6: .cfa -12 + ^ r5: .cfa -16 + ^ r4: .cfa -20 + ^
STACK CFI b8c6 .cfa: r7 8 +
STACK CFI b8ca r8: .cfa -24 + ^
STACK CFI INIT bb36 5e .cfa: sp 0 +
STACK CFI bb3e .cfa: sp 16 + .ra: .cfa -4 + ^ r7: .cfa -8 + ^ r5: .cfa -12 + ^ r4: .cfa -16 + ^
STACK CFI bb40 .cfa: r7 8 +
STACK CFI INIT bb94 12c .cfa: sp 0 +
STACK CFI bb96 .cfa: sp 20 + .ra: .cfa -4 + ^ r7: .cfa -8 + ^ r6: .cfa -12 + ^ r5: .cfa -16 + ^ r4: .cfa -20 + ^
STACK CFI bb98 .cfa: r7 8 +
STACK CFI bb9c r11: .cfa -24 + ^ r10: .cfa -28 + ^ r9: .cfa -32 + ^ r8: .cfa -36 + ^
STACK CFI INIT bcc0 3a .cfa: sp 0 +
STACK CFI bcc2 .cfa: sp 16 + .ra: .cfa -4 + ^ r7: .cfa -8 + ^ r5: .cfa -12 + ^ r4: .cfa -16 + ^
STACK CFI bcc4 .cfa: r7 8 +
STACK CFI INIT bcfa 46 .cfa: sp 0 +
STACK CFI bcfc .cfa: sp 16 + .ra: .cfa -4 + ^ r7: .cfa -8 + ^ r5: .cfa -12 + ^ r4: .cfa -16 + ^
STACK CFI bcfe .cfa: r7 8 +
STACK CFI INIT bd40 10 .cfa: sp 0 +
STACK CFI bd42 .cfa: sp 8 + .ra: .cfa -4 + ^ r7: .cfa -8 + ^
STACK CFI bd44 .cfa: r7 8 +
STACK CFI INIT bd50 f8 .cfa: sp 0 +
STACK CFI bd52 .cfa: sp 20 + .ra: .cfa -4 + ^ r7: .cfa -8 + ^ r6: .cfa -12 + ^ r5: .cfa -16 + ^ r4: .cfa -20 + ^
STACK CFI bd54 .cfa: r7 8 +
STACK CFI bd58 r11: .cfa -24 + ^
STACK CFI INIT be48 8c .cfa: sp 0 +
STACK CFI be4a .cfa: sp 20 + .ra: .cfa -4 + ^ r7: .cfa -8 + ^ r6: .cfa -12 + ^ r5: .cfa -16 + ^ r4: .cfa -20 + ^
STACK CFI be4c .cfa: r7 8 +
STACK CFI be50 r11: .cfa -24 + ^ r9: .cfa -28 + ^ r8: .cfa -32 + ^
STACK CFI INIT bed4 2 .cfa: sp 0 +
STACK CFI INIT bed6 4 .cfa: sp 0 +
STACK CFI INIT bedc 28 .cfa: sp 0 +
STACK CFI bede .cfa: sp 16 + .ra: .cfa -4 + ^ r7: .cfa -8 + ^ r5: .cfa -12 + ^ r4: .cfa -16 + ^
STACK CFI bee0 .cfa: r7 8 +
STACK CFI INIT bf04 1c .cfa: sp 0 +
STACK CFI INIT bf20 2 .cfa: sp 0 +
STACK CFI INIT bf22 4 .cfa: sp 0 +
STACK CFI INIT bf28 2a8 .cfa: sp 0 +
STACK CFI bf2a .cfa: sp 20 + .ra: .cfa -4 + ^ r7: .cfa -8 + ^ r6: .cfa -12 + ^ r5: .cfa -16 + ^ r4: .cfa -20 + ^
STACK CFI bf2c .cfa: r7 8 +
STACK CFI bf30 r11: .cfa -24 + ^ r10: .cfa -28 + ^ r9: .cfa -32 + ^ r8: .cfa -36 + ^
STACK CFI INIT c1d0 18 .cfa: sp 0 +
STACK CFI INIT c1e8 c .cfa: sp 0 +
STACK CFI INIT c1f4 2c .cfa: sp 0 +
STACK CFI c1fc .cfa: sp 16 + .ra: .cfa -4 + ^ r7: .cfa -8 + ^ r5: .cfa -12 + ^ r4: .cfa -16 + ^
STACK CFI c1fe .cfa: r7 8 +
STACK CFI INIT c220 ba .cfa: sp 0 +
STACK CFI c222 .cfa: sp 20 + .ra: .cfa -4 + ^ r7: .cfa -8 + ^ r6: .cfa -12 + ^ r5: .cfa -16 + ^ r4: .cfa -20 + ^
STACK CFI c224 .cfa: r7 8 +
STACK CFI c228 r11: .cfa -24 + ^ r10: .cfa -28 + ^ r9: .cfa -32 + ^ r8: .cfa -36 + ^
STACK CFI INIT c2da 14a .cfa: sp 0 +
STACK CFI c2ec .cfa: sp 16 + .ra: .cfa -4 + ^ r7: .cfa -8 + ^ r6: .cfa -12 + ^ r4: .cfa -16 + ^
STACK CFI c2ee .cfa: r7 8 +
STACK CFI INIT c424 40c .cfa: sp 0 +
STACK CFI c426 .cfa: sp 20 + .ra: .cfa -4 + ^ r7: .cfa -8 + ^ r6: .cfa -12 + ^ r5: .cfa -16 + ^ r4: .cfa -20 + ^
STACK CFI c428 .cfa: r7 8 +
STACK CFI c42c r11: .cfa -24 + ^ r10: .cfa -28 + ^ r9: .cfa -32 + ^ r8: .cfa -36 + ^
STACK CFI INIT c830 20 .cfa: sp 0 +
STACK CFI c832 .cfa: sp 16 + .ra: .cfa -4 + ^ r7: .cfa -8 + ^ r6: .cfa -12 + ^ r4: .cfa -16 + ^
STACK CFI c834 .cfa: r7 8 +
STACK CFI INIT c850 5a8 .cfa: sp 0 +
STACK CFI c852 .cfa: sp 20 + .ra: .cfa -4 + ^ r7: .cfa -8 + ^ r6: .cfa -12 + ^ r5: .cfa -16 + ^ r4: .cfa -20 + ^
STACK CFI c854 .cfa: r7 8 +
STACK CFI c858 r10: .cfa -24 + ^ r9: .cfa -28 + ^ r8: .cfa -32 + ^
STACK CFI INIT cdf8 2 .cfa: sp 0 +
STACK CFI INIT cdfc 1e8 .cfa: sp 0 +
STACK CFI cdfe .cfa: sp 20 + .ra: .cfa -4 + ^ r7: .cfa -8 + ^ r6: .cfa -12 + ^ r5: .cfa -16 + ^ r4: .cfa -20 + ^
STACK CFI ce00 .cfa: r7 8 +
STACK CFI ce04 r11: .cfa -24 + ^ r10: .cfa -28 + ^ r9: .cfa -32 + ^ r8: .cfa -36 + ^
STACK CFI INIT cfe4 5e .cfa: sp 0 +
STACK CFI cfe6 .cfa: sp 20 + .ra: .cfa -4 + ^ r7: .cfa -8 + ^ r6: .cfa -12 + ^ r5: .cfa -16 + ^ r4: .cfa -20 + ^
STACK CFI cfe8 .cfa: r7 8 +
STACK CFI cfec r11: .cfa -24 + ^ r9: .cfa -28 + ^ r8: .cfa -32 + ^
STACK CFI INIT d042 5c .cfa: sp 0 +
STACK CFI d044 .cfa: sp 20 + .ra: .cfa -4 + ^ r7: .cfa -8 + ^ r6: .cfa -12 + ^ r5: .cfa -16 + ^ r4: .cfa -20 + ^
STACK CFI d046 .cfa: r7 8 +
STACK CFI d04a r11: .cfa -24 + ^
STACK CFI INIT d09e 2 .cfa: sp 0 +
STACK CFI INIT d0a0 e .cfa: sp 0 +
STACK CFI INIT d0b0 15f4 .cfa: sp 0 +
STACK CFI d0b2 .cfa: sp 20 + .ra: .cfa -4 + ^ r7: .cfa -8 + ^ r6: .cfa -12 + ^ r5: .cfa -16 + ^ r4: .cfa -20 + ^
STACK CFI d0b4 .cfa: r7 8 +
STACK CFI d0b8 r11: .cfa -24 + ^ r10: .cfa -28 + ^ r9: .cfa -32 + ^ r8: .cfa -36 + ^
STACK CFI INIT e6a4 1310 .cfa: sp 0 +
STACK CFI e6a6 .cfa: sp 20 + .ra: .cfa -4 + ^ r7: .cfa -8 + ^ r6: .cfa -12 + ^ r5: .cfa -16 + ^ r4: .cfa -20 + ^
STACK CFI e6a8 .cfa: r7 8 +
STACK CFI e6ac r11: .cfa -24 + ^ r10: .cfa -28 + ^ r9: .cfa -32 + ^ r8: .cfa -36 + ^
STACK CFI INIT f9c0 1bc .cfa: sp 0 +
STACK CFI f9c2 .cfa: sp 20 + .ra: .cfa -4 + ^ r7: .cfa -8 + ^ r6: .cfa -12 + ^ r5: .cfa -16 + ^ r4: .cfa -20 + ^
STACK CFI f9c4 .cfa: r7 8 +
STACK CFI f9c8 r11: .cfa -24 + ^ r9: .cfa -28 + ^ r8: .cfa -32 + ^
STACK CFI INIT fb7c 4e8 .cfa: sp 0 +
STACK CFI fb7e .cfa: sp 20 + .ra: .cfa -4 + ^ r7: .cfa -8 + ^ r6: .cfa -12 + ^ r5: .cfa -16 + ^ r4: .cfa -20 + ^
STACK CFI fb80 .cfa: r7 8 +
STACK CFI fb84 r11: .cfa -24 + ^ r10: .cfa -28 + ^ r9: .cfa -32 + ^ r8: .cfa -36 + ^
STACK CFI INIT 10064 48 .cfa: sp 0 +
STACK CFI 10066 .cfa: sp 12 +
STACK CFI 10068 .cfa: sp 20 + .ra: .cfa -16 + ^ r7: .cfa -20 + ^
STACK CFI 1006a .cfa: r7 20 +
STACK CFI INIT 100ac 40 .cfa: sp 0 +
STACK CFI 100ae .cfa: sp 8 + .ra: .cfa -4 + ^ r7: .cfa -8 + ^
STACK CFI 100b0 .cfa: r7 8 +
STACK CFI INIT 100ec 4 .cfa: sp 0 +
STACK CFI INIT 100f0 38 .cfa: sp 0 +
STACK CFI 100f2 .cfa: sp 16 + .ra: .cfa -4 + ^ r7: .cfa -8 + ^ r6: .cfa -12 + ^ r4: .cfa -16 + ^
STACK CFI 100f4 .cfa: r7 8 +
STACK CFI INIT 10128 3c .cfa: sp 0 +
STACK CFI 1012a .cfa: sp 16 + .ra: .cfa -4 + ^ r7: .cfa -8 + ^ r6: .cfa -12 + ^ r4: .cfa -16 + ^
STACK CFI 1012c .cfa: r7 8 +
STACK CFI INIT 10164 2 .cfa: sp 0 +
STACK CFI INIT 10168 34 .cfa: sp 0 +
STACK CFI 1016a .cfa: sp 8 + .ra: .cfa -4 + ^ r7: .cfa -8 + ^
STACK CFI 1016c .cfa: r7 8 +
STACK CFI INIT 1019c 10 .cfa: sp 0 +
STACK CFI 1019e .cfa: sp 8 + .ra: .cfa -4 + ^ r7: .cfa -8 + ^
STACK CFI 101a0 .cfa: r7 8 +
STACK CFI INIT 101ac 2 .cfa: sp 0 +
STACK CFI INIT 101ae 4 .cfa: sp 0 +
STACK CFI INIT 101b4 20 .cfa: sp 0 +
STACK CFI 101b6 .cfa: sp 16 + .ra: .cfa -4 + ^ r7: .cfa -8 + ^ r6: .cfa -12 + ^ r4: .cfa -16 + ^
STACK CFI 101b8 .cfa: r7 8 +
STACK CFI INIT 101d4 14 .cfa: sp 0 +
STACK CFI INIT 101e8 2 .cfa: sp 0 +
STACK CFI INIT 101ea 4 .cfa: sp 0 +
STACK CFI INIT 101f0 14 .cfa: sp 0 +
STACK CFI INIT 10204 18 .cfa: sp 0 +
STACK CFI INIT 1021c c .cfa: sp 0 +
STACK CFI INIT 10228 2 .cfa: sp 0 +
STACK CFI INIT 1022c 10 .cfa: sp 0 +
STACK CFI 1022e .cfa: sp 8 + .ra: .cfa -4 + ^ r7: .cfa -8 + ^
STACK CFI 10230 .cfa: r7 8 +
STACK CFI INIT 1023c 10 .cfa: sp 0 +
STACK CFI 1023e .cfa: sp 8 + .ra: .cfa -4 + ^ r7: .cfa -8 + ^
STACK CFI 10240 .cfa: r7 8 +
STACK CFI INIT 1024c 10 .cfa: sp 0 +
STACK CFI 1024e .cfa: sp 8 + .ra: .cfa -4 + ^ r7: .cfa -8 + ^
STACK CFI 10250 .cfa: r7 8 +
STACK CFI INIT 1025c 38 .cfa: sp 0 +
STACK CFI 1025e .cfa: sp 16 + .ra: .cfa -4 + ^ r7: .cfa -8 + ^ r5: .cfa -12 + ^ r4: .cfa -16 + ^
STACK CFI 10260 .cfa: r7 8 +
STACK CFI INIT 10294 18 .cfa: sp 0 +
STACK CFI 10296 .cfa: sp 8 + .ra: .cfa -4 + ^ r7: .cfa -8 + ^
STACK CFI 10298 .cfa: r7 8 +
STACK CFI INIT 102ac 10 .cfa: sp 0 +
STACK CFI 102ae .cfa: sp 8 + .ra: .cfa -4 + ^ r7: .cfa -8 + ^
STACK CFI 102b0 .cfa: r7 8 +
STACK CFI INIT 102bc 2 .cfa: sp 0 +
STACK CFI INIT 102be 4 .cfa: sp 0 +
STACK CFI INIT 102c4 20 .cfa: sp 0 +
STACK CFI 102c6 .cfa: sp 16 + .ra: .cfa -4 + ^ r7: .cfa -8 + ^ r6: .cfa -12 + ^ r4: .cfa -16 + ^
STACK CFI 102c8 .cfa: r7 8 +
STACK CFI INIT 102e4 14 .cfa: sp 0 +
STACK CFI INIT 102f8 2 .cfa: sp 0 +
STACK CFI INIT 102fa 4 .cfa: sp 0 +
STACK CFI INIT 102fe 8 .cfa: sp 0 +
STACK CFI INIT 10308 18 .cfa: sp 0 +
STACK CFI INIT 10320 c .cfa: sp 0 +
STACK CFI INIT 1032c 7a .cfa: sp 0 +
STACK CFI 1032e .cfa: sp 20 + .ra: .cfa -4 + ^ r7: .cfa -8 + ^ r6: .cfa -12 + ^ r5: .cfa -16 + ^ r4: .cfa -20 + ^
STACK CFI 10330 .cfa: r7 8 +
STACK CFI 10334 r11: .cfa -24 + ^ r9: .cfa -28 + ^ r8: .cfa -32 + ^
STACK CFI INIT 103a6 48 .cfa: sp 0 +
STACK CFI 103a8 .cfa: sp 20 + .ra: .cfa -4 + ^ r7: .cfa -8 + ^ r6: .cfa -12 + ^ r5: .cfa -16 + ^ r4: .cfa -20 + ^
STACK CFI 103aa .cfa: r7 8 +
STACK CFI 103ae r8: .cfa -24 + ^
STACK CFI INIT 103ee b2 .cfa: sp 0 +
STACK CFI 103f0 .cfa: sp 20 + .ra: .cfa -4 + ^ r7: .cfa -8 + ^ r6: .cfa -12 + ^ r5: .cfa -16 + ^ r4: .cfa -20 + ^
STACK CFI 103f2 .cfa: r7 8 +
STACK CFI 103f6 r11: .cfa -24 + ^ r10: .cfa -28 + ^ r9: .cfa -32 + ^ r8: .cfa -36 + ^
STACK CFI INIT 104a0 10 .cfa: sp 0 +
STACK CFI 104a2 .cfa: sp 8 + .ra: .cfa -4 + ^ r7: .cfa -8 + ^
STACK CFI 104a4 .cfa: r7 8 +
STACK CFI INIT 104b0 2d0 .cfa: sp 0 +
STACK CFI 104b2 .cfa: sp 20 + .ra: .cfa -4 + ^ r7: .cfa -8 + ^ r6: .cfa -12 + ^ r5: .cfa -16 + ^ r4: .cfa -20 + ^
STACK CFI 104b4 .cfa: r7 8 +
STACK CFI 104b8 r11: .cfa -24 + ^ r10: .cfa -28 + ^ r9: .cfa -32 + ^ r8: .cfa -36 + ^
STACK CFI INIT 10780 20 .cfa: sp 0 +
STACK CFI 10782 .cfa: sp 16 + .ra: .cfa -4 + ^ r7: .cfa -8 + ^ r6: .cfa -12 + ^ r4: .cfa -16 + ^
STACK CFI 10784 .cfa: r7 8 +
STACK CFI INIT 107a0 320 .cfa: sp 0 +
STACK CFI 107a2 .cfa: sp 20 + .ra: .cfa -4 + ^ r7: .cfa -8 + ^ r6: .cfa -12 + ^ r5: .cfa -16 + ^ r4: .cfa -20 + ^
STACK CFI 107a4 .cfa: r7 8 +
STACK CFI 107a8 r10: .cfa -24 + ^ r9: .cfa -28 + ^ r8: .cfa -32 + ^
STACK CFI INIT 10ac0 2 .cfa: sp 0 +
STACK CFI INIT 10ac4 50 .cfa: sp 0 +
STACK CFI 10ac6 .cfa: sp 20 + .ra: .cfa -4 + ^ r7: .cfa -8 + ^ r6: .cfa -12 + ^ r5: .cfa -16 + ^ r4: .cfa -20 + ^
STACK CFI 10ac8 .cfa: r7 8 +
STACK CFI 10acc r11: .cfa -24 + ^
STACK CFI INIT 10b14 2d0 .cfa: sp 0 +
STACK CFI 10b16 .cfa: sp 20 + .ra: .cfa -4 + ^ r7: .cfa -8 + ^ r6: .cfa -12 + ^ r5: .cfa -16 + ^ r4: .cfa -20 + ^
STACK CFI 10b18 .cfa: r7 8 +
STACK CFI 10b1c r11: .cfa -24 + ^ r10: .cfa -28 + ^ r9: .cfa -32 + ^ r8: .cfa -36 + ^
STACK CFI INIT 10de4 20 .cfa: sp 0 +
STACK CFI 10de6 .cfa: sp 16 + .ra: .cfa -4 + ^ r7: .cfa -8 + ^ r6: .cfa -12 + ^ r4: .cfa -16 + ^
STACK CFI 10de8 .cfa: r7 8 +
STACK CFI INIT 10e10 350 .cfa: sp 0 +
STACK CFI 10e12 .cfa: sp 20 + .ra: .cfa -4 + ^ r7: .cfa -8 + ^ r6: .cfa -12 + ^ r5: .cfa -16 + ^ r4: .cfa -20 + ^
STACK CFI 10e14 .cfa: r7 8 +
STACK CFI 10e18 r11: .cfa -24 + ^ r10: .cfa -28 + ^ r9: .cfa -32 + ^ r8: .cfa -36 + ^
STACK CFI INIT 11160 2 .cfa: sp 0 +
STACK CFI INIT 11164 2c .cfa: sp 0 +
STACK CFI 11166 .cfa: sp 16 + .ra: .cfa -4 + ^ r7: .cfa -8 + ^ r5: .cfa -12 + ^ r4: .cfa -16 + ^
STACK CFI 11168 .cfa: r7 8 +
STACK CFI INIT 11190 2d0 .cfa: sp 0 +
STACK CFI 11192 .cfa: sp 20 + .ra: .cfa -4 + ^ r7: .cfa -8 + ^ r6: .cfa -12 + ^ r5: .cfa -16 + ^ r4: .cfa -20 + ^
STACK CFI 11194 .cfa: r7 8 +
STACK CFI 11198 r11: .cfa -24 + ^ r10: .cfa -28 + ^ r9: .cfa -32 + ^ r8: .cfa -36 + ^
STACK CFI INIT 11460 20 .cfa: sp 0 +
STACK CFI 11462 .cfa: sp 16 + .ra: .cfa -4 + ^ r7: .cfa -8 + ^ r6: .cfa -12 + ^ r4: .cfa -16 + ^
STACK CFI 11464 .cfa: r7 8 +
STACK CFI INIT 11480 2d0 .cfa: sp 0 +
STACK CFI 11482 .cfa: sp 20 + .ra: .cfa -4 + ^ r7: .cfa -8 + ^ r6: .cfa -12 + ^ r5: .cfa -16 + ^ r4: .cfa -20 + ^
STACK CFI 11484 .cfa: r7 8 +
STACK CFI 11488 r11: .cfa -24 + ^ r9: .cfa -28 + ^ r8: .cfa -32 + ^
STACK CFI INIT 11750 2 .cfa: sp 0 +
STACK CFI INIT 11754 7c .cfa: sp 0 +
STACK CFI 11756 .cfa: sp 16 + .ra: .cfa -4 + ^ r7: .cfa -8 + ^ r6: .cfa -12 + ^ r4: .cfa -16 + ^
STACK CFI 11758 .cfa: r7 8 +
STACK CFI INIT 117d0 d4 .cfa: sp 0 +
STACK CFI 117d2 .cfa: sp 20 + .ra: .cfa -4 + ^ r7: .cfa -8 + ^ r6: .cfa -12 + ^ r5: .cfa -16 + ^ r4: .cfa -20 + ^
STACK CFI 117d4 .cfa: r7 8 +
STACK CFI 117d8 r11: .cfa -24 + ^
STACK CFI INIT 118a4 5c .cfa: sp 0 +
STACK CFI 118a6 .cfa: sp 16 + .ra: .cfa -4 + ^ r7: .cfa -8 + ^ r5: .cfa -12 + ^ r4: .cfa -16 + ^
STACK CFI 118a8 .cfa: r7 8 +
STACK CFI INIT 11900 4 .cfa: sp 0 +
STACK CFI INIT 11904 20 .cfa: sp 0 +
STACK CFI 11906 .cfa: sp 16 + .ra: .cfa -4 + ^ r7: .cfa -8 + ^ r6: .cfa -12 + ^ r4: .cfa -16 + ^
STACK CFI 11908 .cfa: r7 8 +
STACK CFI INIT 11924 14 .cfa: sp 0 +
STACK CFI INIT 11938 2 .cfa: sp 0 +
STACK CFI INIT 1193a 4 .cfa: sp 0 +
STACK CFI INIT 11940 48 .cfa: sp 0 +
STACK CFI 11942 .cfa: sp 8 + .ra: .cfa -4 + ^ r7: .cfa -8 + ^
STACK CFI 11944 .cfa: r7 8 +
STACK CFI INIT 11988 18 .cfa: sp 0 +
STACK CFI INIT 119a0 c .cfa: sp 0 +
STACK CFI INIT 0 c .cfa: sp 0 +
STACK CFI INIT 0 c .cfa: sp 0 +
STACK CFI INIT 0 20 .cfa: sp 0 +
STACK CFI 2 .cfa: sp 16 + .ra: .cfa -4 + ^ r7: .cfa -8 + ^ r6: .cfa -12 + ^ r4: .cfa -16 + ^
STACK CFI 4 .cfa: r7 8 +
STACK CFI INIT 119ac 20 .cfa: sp 0 +
STACK CFI 119ae .cfa: sp 16 + .ra: .cfa -4 + ^ r7: .cfa -8 + ^ r6: .cfa -12 + ^ r4: .cfa -16 + ^
STACK CFI 119b0 .cfa: r7 8 +
STACK CFI INIT 119cc 28 .cfa: sp 0 +
STACK CFI 119ce .cfa: sp 16 + .ra: .cfa -4 + ^ r7: .cfa -8 + ^ r5: .cfa -12 + ^ r4: .cfa -16 + ^
STACK CFI 119d0 .cfa: r7 8 +
STACK CFI INIT 119f4 cc .cfa: sp 0 +
STACK CFI 119f6 .cfa: sp 16 + .ra: .cfa -4 + ^ r7: .cfa -8 + ^ r6: .cfa -12 + ^ r4: .cfa -16 + ^
STACK CFI 119f8 .cfa: r7 8 +
STACK CFI INIT 11ac0 48 .cfa: sp 0 +
STACK CFI 11ac2 .cfa: sp 16 + .ra: .cfa -4 + ^ r7: .cfa -8 + ^ r5: .cfa -12 + ^ r4: .cfa -16 + ^
STACK CFI 11ac4 .cfa: r7 8 +
STACK CFI INIT 11b08 60 .cfa: sp 0 +
STACK CFI 11b0a .cfa: sp 16 + .ra: .cfa -4 + ^ r7: .cfa -8 + ^ r6: .cfa -12 + ^ r4: .cfa -16 + ^
STACK CFI 11b0c .cfa: r7 8 +
STACK CFI INIT 11b68 46 .cfa: sp 0 +
STACK CFI 11b6a .cfa: sp 16 + .ra: .cfa -4 + ^ r7: .cfa -8 + ^ r5: .cfa -12 + ^ r4: .cfa -16 + ^
STACK CFI 11b6c .cfa: r7 8 +
STACK CFI INIT 11bb0 1b4 .cfa: sp 0 +
STACK CFI 11bb2 .cfa: sp 20 + .ra: .cfa -4 + ^ r7: .cfa -8 + ^ r6: .cfa -12 + ^ r5: .cfa -16 + ^ r4: .cfa -20 + ^
STACK CFI 11bb4 .cfa: r7 8 +
STACK CFI 11bb8 r8: .cfa -24 + ^
STACK CFI INIT 11d64 10 .cfa: sp 0 +
STACK CFI 11d66 .cfa: sp 8 + .ra: .cfa -4 + ^ r7: .cfa -8 + ^
STACK CFI 11d68 .cfa: r7 8 +
STACK CFI INIT 11d74 10 .cfa: sp 0 +
STACK CFI 11d76 .cfa: sp 8 + .ra: .cfa -4 + ^ r7: .cfa -8 + ^
STACK CFI 11d78 .cfa: r7 8 +
STACK CFI INIT 11d84 8 .cfa: sp 0 +
STACK CFI INIT 11d8c 10 .cfa: sp 0 +
STACK CFI 11d8e .cfa: sp 8 + .ra: .cfa -4 + ^ r7: .cfa -8 + ^
STACK CFI 11d90 .cfa: r7 8 +
STACK CFI INIT 11d9c 14 .cfa: sp 0 +
STACK CFI 11d9e .cfa: sp 8 + .ra: .cfa -4 + ^ r7: .cfa -8 + ^
STACK CFI 11da0 .cfa: r7 8 +
STACK CFI INIT 11db0 e4 .cfa: sp 0 +
STACK CFI 11db2 .cfa: sp 20 + .ra: .cfa -4 + ^ r7: .cfa -8 + ^ r6: .cfa -12 + ^ r5: .cfa -16 + ^ r4: .cfa -20 + ^
STACK CFI 11db4 .cfa: r7 8 +
STACK CFI 11db8 r11: .cfa -24 + ^ r9: .cfa -28 + ^ r8: .cfa -32 + ^
STACK CFI INIT 11ea0 70 .cfa: sp 0 +
STACK CFI 11ea2 .cfa: sp 20 + .ra: .cfa -4 + ^ r7: .cfa -8 + ^ r6: .cfa -12 + ^ r5: .cfa -16 + ^ r4: .cfa -20 + ^
STACK CFI 11ea4 .cfa: r7 8 +
STACK CFI 11ea8 r8: .cfa -24 + ^
STACK CFI INIT 11f10 e4 .cfa: sp 0 +
STACK CFI 11f12 .cfa: sp 20 + .ra: .cfa -4 + ^ r7: .cfa -8 + ^ r6: .cfa -12 + ^ r5: .cfa -16 + ^ r4: .cfa -20 + ^
STACK CFI 11f14 .cfa: r7 8 +
STACK CFI 11f18 r11: .cfa -24 + ^ r9: .cfa -28 + ^ r8: .cfa -32 + ^
STACK CFI INIT 12000 70 .cfa: sp 0 +
STACK CFI 12002 .cfa: sp 20 + .ra: .cfa -4 + ^ r7: .cfa -8 + ^ r6: .cfa -12 + ^ r5: .cfa -16 + ^ r4: .cfa -20 + ^
STACK CFI 12004 .cfa: r7 8 +
STACK CFI 12008 r8: .cfa -24 + ^
STACK CFI INIT 0 18 .cfa: sp 0 +
STACK CFI 2 .cfa: sp 8 + .ra: .cfa -4 + ^ r7: .cfa -8 + ^
STACK CFI 4 .cfa: r7 8 +
STACK CFI INIT 12070 128 .cfa: sp 0 +
STACK CFI 12072 .cfa: sp 20 + .ra: .cfa -4 + ^ r7: .cfa -8 + ^ r6: .cfa -12 + ^ r5: .cfa -16 + ^ r4: .cfa -20 + ^
STACK CFI 12074 .cfa: r7 8 +
STACK CFI 12078 r11: .cfa -24 + ^ r10: .cfa -28 + ^ r9: .cfa -32 + ^ r8: .cfa -36 + ^
STACK CFI INIT 121a0 560 .cfa: sp 0 +
STACK CFI 121a2 .cfa: sp 20 + .ra: .cfa -4 + ^ r7: .cfa -8 + ^ r6: .cfa -12 + ^ r5: .cfa -16 + ^ r4: .cfa -20 + ^
STACK CFI 121a4 .cfa: r7 8 +
STACK CFI 121a8 r11: .cfa -24 + ^ r10: .cfa -28 + ^ r9: .cfa -32 + ^ r8: .cfa -36 + ^
STACK CFI INIT 12700 f8 .cfa: sp 0 +
STACK CFI 12702 .cfa: sp 20 + .ra: .cfa -4 + ^ r7: .cfa -8 + ^ r6: .cfa -12 + ^ r5: .cfa -16 + ^ r4: .cfa -20 + ^
STACK CFI 12704 .cfa: r7 8 +
STACK CFI 12708 r11: .cfa -24 + ^ r9: .cfa -28 + ^ r8: .cfa -32 + ^
STACK CFI INIT 12800 70 .cfa: sp 0 +
STACK CFI 12802 .cfa: sp 20 + .ra: .cfa -4 + ^ r7: .cfa -8 + ^ r6: .cfa -12 + ^ r5: .cfa -16 + ^ r4: .cfa -20 + ^
STACK CFI 12804 .cfa: r7 8 +
STACK CFI 12808 r11: .cfa -24 + ^
STACK CFI INIT 12870 2 .cfa: sp 0 +
STACK CFI INIT 12872 2 .cfa: sp 0 +
STACK CFI INIT 12874 2 .cfa: sp 0 +
STACK CFI INIT 12876 2 .cfa: sp 0 +
STACK CFI INIT 12878 22c .cfa: sp 0 +
STACK CFI 1287a .cfa: sp 20 + .ra: .cfa -4 + ^ r7: .cfa -8 + ^ r6: .cfa -12 + ^ r5: .cfa -16 + ^ r4: .cfa -20 + ^
STACK CFI 1287c .cfa: r7 8 +
STACK CFI 12880 r11: .cfa -24 + ^ r10: .cfa -28 + ^ r9: .cfa -32 + ^ r8: .cfa -36 + ^
STACK CFI INIT 12aa4 274 .cfa: sp 0 +
STACK CFI 12aa6 .cfa: sp 20 + .ra: .cfa -4 + ^ r7: .cfa -8 + ^ r6: .cfa -12 + ^ r5: .cfa -16 + ^ r4: .cfa -20 + ^
STACK CFI 12aa8 .cfa: r7 8 +
STACK CFI 12aac r11: .cfa -24 + ^ r10: .cfa -28 + ^ r9: .cfa -32 + ^ r8: .cfa -36 + ^
STACK CFI INIT 12d18 42c .cfa: sp 0 +
STACK CFI 12d1a .cfa: sp 20 + .ra: .cfa -4 + ^ r7: .cfa -8 + ^ r6: .cfa -12 + ^ r5: .cfa -16 + ^ r4: .cfa -20 + ^
STACK CFI 12d1c .cfa: r7 8 +
STACK CFI 12d20 r11: .cfa -24 + ^ r10: .cfa -28 + ^ r9: .cfa -32 + ^ r8: .cfa -36 + ^
STACK CFI INIT 13144 f8 .cfa: sp 0 +
STACK CFI 13146 .cfa: sp 20 + .ra: .cfa -4 + ^ r7: .cfa -8 + ^ r6: .cfa -12 + ^ r5: .cfa -16 + ^ r4: .cfa -20 + ^
STACK CFI 13148 .cfa: r7 8 +
STACK CFI 1314c r8: .cfa -24 + ^
STACK CFI INIT 1323c 104 .cfa: sp 0 +
STACK CFI 1323e .cfa: sp 20 + .ra: .cfa -4 + ^ r7: .cfa -8 + ^ r6: .cfa -12 + ^ r5: .cfa -16 + ^ r4: .cfa -20 + ^
STACK CFI 13240 .cfa: r7 8 +
STACK CFI 13244 r8: .cfa -24 + ^
STACK CFI INIT 13340 2 .cfa: sp 0 +
STACK CFI INIT 13342 e .cfa: sp 0 +
STACK CFI INIT 13350 3ea .cfa: sp 0 +
STACK CFI 13352 .cfa: sp 20 + .ra: .cfa -4 + ^ r7: .cfa -8 + ^ r6: .cfa -12 + ^ r5: .cfa -16 + ^ r4: .cfa -20 + ^
STACK CFI 13354 .cfa: r7 8 +
STACK CFI 13358 r11: .cfa -24 + ^ r10: .cfa -28 + ^ r9: .cfa -32 + ^ r8: .cfa -36 + ^
STACK CFI INIT 1373c 1cc .cfa: sp 0 +
STACK CFI 1373e .cfa: sp 20 + .ra: .cfa -4 + ^ r7: .cfa -8 + ^ r6: .cfa -12 + ^ r5: .cfa -16 + ^ r4: .cfa -20 + ^
STACK CFI 13740 .cfa: r7 8 +
STACK CFI 13744 r11: .cfa -24 + ^ r10: .cfa -28 + ^ r9: .cfa -32 + ^ r8: .cfa -36 + ^
STACK CFI INIT 13908 44 .cfa: sp 0 +
STACK CFI 1390a .cfa: sp 16 + .ra: .cfa -4 + ^ r7: .cfa -8 + ^ r6: .cfa -12 + ^ r4: .cfa -16 + ^
STACK CFI 1390c .cfa: r7 8 +
STACK CFI INIT 1394c 38 .cfa: sp 0 +
STACK CFI 1394e .cfa: sp 16 + .ra: .cfa -4 + ^ r7: .cfa -8 + ^ r5: .cfa -12 + ^ r4: .cfa -16 + ^
STACK CFI 13950 .cfa: r7 8 +
STACK CFI INIT 13984 18 .cfa: sp 0 +
STACK CFI 13986 .cfa: sp 8 + .ra: .cfa -4 + ^ r7: .cfa -8 + ^
STACK CFI 13988 .cfa: r7 8 +
STACK CFI INIT 1399c 420 .cfa: sp 0 +
STACK CFI 1399e .cfa: sp 20 + .ra: .cfa -4 + ^ r7: .cfa -8 + ^ r6: .cfa -12 + ^ r5: .cfa -16 + ^ r4: .cfa -20 + ^
STACK CFI 139a0 .cfa: r7 8 +
STACK CFI 139a4 r11: .cfa -24 + ^ r10: .cfa -28 + ^ r9: .cfa -32 + ^ r8: .cfa -36 + ^
STACK CFI INIT 13dbc 30 .cfa: sp 0 +
STACK CFI 13dbe .cfa: sp 16 + .ra: .cfa -4 + ^ r7: .cfa -8 + ^ r6: .cfa -12 + ^ r4: .cfa -16 + ^
STACK CFI 13dc0 .cfa: r7 8 +
STACK CFI INIT 13dec c0 .cfa: sp 0 +
STACK CFI 13dee .cfa: sp 20 + .ra: .cfa -4 + ^ r7: .cfa -8 + ^ r6: .cfa -12 + ^ r5: .cfa -16 + ^ r4: .cfa -20 + ^
STACK CFI 13df0 .cfa: r7 8 +
STACK CFI 13df4 r11: .cfa -24 + ^ r9: .cfa -28 + ^ r8: .cfa -32 + ^
STACK CFI INIT 13eac 1ac .cfa: sp 0 +
STACK CFI 13eae .cfa: sp 20 + .ra: .cfa -4 + ^ r7: .cfa -8 + ^ r6: .cfa -12 + ^ r5: .cfa -16 + ^ r4: .cfa -20 + ^
STACK CFI 13eb0 .cfa: r7 8 +
STACK CFI 13eb4 r11: .cfa -24 + ^ r10: .cfa -28 + ^ r9: .cfa -32 + ^ r8: .cfa -36 + ^
STACK CFI INIT 14058 278 .cfa: sp 0 +
STACK CFI 1405a .cfa: sp 20 + .ra: .cfa -4 + ^ r7: .cfa -8 + ^ r6: .cfa -12 + ^ r5: .cfa -16 + ^ r4: .cfa -20 + ^
STACK CFI 1405c .cfa: r7 8 +
STACK CFI 14060 r10: .cfa -24 + ^ r9: .cfa -28 + ^ r8: .cfa -32 + ^
STACK CFI INIT 142d0 228 .cfa: sp 0 +
STACK CFI 142d2 .cfa: sp 20 + .ra: .cfa -4 + ^ r7: .cfa -8 + ^ r6: .cfa -12 + ^ r5: .cfa -16 + ^ r4: .cfa -20 + ^
STACK CFI 142d4 .cfa: r7 8 +
STACK CFI 142d8 r11: .cfa -24 + ^
STACK CFI INIT 144f8 384 .cfa: sp 0 +
STACK CFI 144fa .cfa: sp 20 + .ra: .cfa -4 + ^ r7: .cfa -8 + ^ r6: .cfa -12 + ^ r5: .cfa -16 + ^ r4: .cfa -20 + ^
STACK CFI 144fc .cfa: r7 8 +
STACK CFI 14500 r11: .cfa -24 + ^ r10: .cfa -28 + ^ r9: .cfa -32 + ^ r8: .cfa -36 + ^
STACK CFI INIT 1487c 880 .cfa: sp 0 +
STACK CFI 1487e .cfa: sp 20 + .ra: .cfa -4 + ^ r7: .cfa -8 + ^ r6: .cfa -12 + ^ r5: .cfa -16 + ^ r4: .cfa -20 + ^
STACK CFI 14880 .cfa: r7 8 +
STACK CFI 14884 r11: .cfa -24 + ^ r10: .cfa -28 + ^ r9: .cfa -32 + ^ r8: .cfa -36 + ^
STACK CFI INIT 150fc 4c .cfa: sp 0 +
STACK CFI 150fe .cfa: sp 20 + .ra: .cfa -4 + ^ r7: .cfa -8 + ^ r6: .cfa -12 + ^ r5: .cfa -16 + ^ r4: .cfa -20 + ^
STACK CFI 15100 .cfa: r7 8 +
STACK CFI 15104 r8: .cfa -24 + ^
STACK CFI INIT 15148 48 .cfa: sp 0 +
STACK CFI 1514a .cfa: sp 16 + .ra: .cfa -4 + ^ r7: .cfa -8 + ^ r6: .cfa -12 + ^ r4: .cfa -16 + ^
STACK CFI 1514c .cfa: r7 8 +
STACK CFI INIT 15190 10 .cfa: sp 0 +
STACK CFI 15192 .cfa: sp 8 + .ra: .cfa -4 + ^ r7: .cfa -8 + ^
STACK CFI 15194 .cfa: r7 8 +
STACK CFI INIT 151a0 9a .cfa: sp 0 +
STACK CFI 151a2 .cfa: sp 20 + .ra: .cfa -4 + ^ r7: .cfa -8 + ^ r6: .cfa -12 + ^ r5: .cfa -16 + ^ r4: .cfa -20 + ^
STACK CFI 151a4 .cfa: r7 8 +
STACK CFI 151a8 r11: .cfa -24 + ^ r9: .cfa -28 + ^ r8: .cfa -32 + ^
STACK CFI INIT 1523c 54 .cfa: sp 0 +
STACK CFI 1523e .cfa: sp 8 + .ra: .cfa -4 + ^ r7: .cfa -8 + ^
STACK CFI 15240 .cfa: r7 8 +
STACK CFI INIT 15290 34 .cfa: sp 0 +
STACK CFI 15292 .cfa: sp 16 + .ra: .cfa -4 + ^ r7: .cfa -8 + ^ r5: .cfa -12 + ^ r4: .cfa -16 + ^
STACK CFI 15294 .cfa: r7 8 +
STACK CFI INIT 152c4 2c .cfa: sp 0 +
STACK CFI 152c6 .cfa: sp 16 + .ra: .cfa -4 + ^ r7: .cfa -8 + ^ r5: .cfa -12 + ^ r4: .cfa -16 + ^
STACK CFI 152c8 .cfa: r7 8 +
STACK CFI INIT 152f0 74 .cfa: sp 0 +
STACK CFI 152f2 .cfa: sp 8 + .ra: .cfa -4 + ^ r7: .cfa -8 + ^
STACK CFI 152f4 .cfa: r7 8 +
STACK CFI INIT 15364 1b0 .cfa: sp 0 +
STACK CFI 15366 .cfa: sp 20 + .ra: .cfa -4 + ^ r7: .cfa -8 + ^ r6: .cfa -12 + ^ r5: .cfa -16 + ^ r4: .cfa -20 + ^
STACK CFI 15368 .cfa: r7 8 +
STACK CFI 1536c r10: .cfa -24 + ^ r9: .cfa -28 + ^ r8: .cfa -32 + ^
STACK CFI INIT 15514 9a .cfa: sp 0 +
STACK CFI 15516 .cfa: sp 20 + .ra: .cfa -4 + ^ r7: .cfa -8 + ^ r6: .cfa -12 + ^ r5: .cfa -16 + ^ r4: .cfa -20 + ^
STACK CFI 15518 .cfa: r7 8 +
STACK CFI 1551c r11: .cfa -24 + ^ r9: .cfa -28 + ^ r8: .cfa -32 + ^
STACK CFI INIT 155b0 174 .cfa: sp 0 +
STACK CFI 155b2 .cfa: sp 20 + .ra: .cfa -4 + ^ r7: .cfa -8 + ^ r6: .cfa -12 + ^ r5: .cfa -16 + ^ r4: .cfa -20 + ^
STACK CFI 155b4 .cfa: r7 8 +
STACK CFI 155b8 r10: .cfa -24 + ^ r9: .cfa -28 + ^ r8: .cfa -32 + ^
STACK CFI INIT 15724 218 .cfa: sp 0 +
STACK CFI 15726 .cfa: sp 20 + .ra: .cfa -4 + ^ r7: .cfa -8 + ^ r6: .cfa -12 + ^ r5: .cfa -16 + ^ r4: .cfa -20 + ^
STACK CFI 15728 .cfa: r7 8 +
STACK CFI 1572c r11: .cfa -24 + ^ r10: .cfa -28 + ^ r9: .cfa -32 + ^ r8: .cfa -36 + ^
STACK CFI INIT 1593c 1dc .cfa: sp 0 +
STACK CFI 1593e .cfa: sp 20 + .ra: .cfa -4 + ^ r7: .cfa -8 + ^ r6: .cfa -12 + ^ r5: .cfa -16 + ^ r4: .cfa -20 + ^
STACK CFI 15940 .cfa: r7 8 +
STACK CFI 15944 r11: .cfa -24 + ^ r10: .cfa -28 + ^ r9: .cfa -32 + ^ r8: .cfa -36 + ^
STACK CFI INIT 15b18 188 .cfa: sp 0 +
STACK CFI 15b1a .cfa: sp 20 + .ra: .cfa -4 + ^ r7: .cfa -8 + ^ r6: .cfa -12 + ^ r5: .cfa -16 + ^ r4: .cfa -20 + ^
STACK CFI 15b1c .cfa: r7 8 +
STACK CFI 15b20 r11: .cfa -24 + ^ r10: .cfa -28 + ^ r9: .cfa -32 + ^ r8: .cfa -36 + ^
STACK CFI INIT 15ca0 9f8 .cfa: sp 0 +
STACK CFI 15ca2 .cfa: sp 20 + .ra: .cfa -4 + ^ r7: .cfa -8 + ^ r6: .cfa -12 + ^ r5: .cfa -16 + ^ r4: .cfa -20 + ^
STACK CFI 15ca4 .cfa: r7 8 +
STACK CFI 15ca8 r11: .cfa -24 + ^ r10: .cfa -28 + ^ r9: .cfa -32 + ^ r8: .cfa -36 + ^
STACK CFI INIT 16698 fa .cfa: sp 0 +
STACK CFI 1669a .cfa: sp 20 + .ra: .cfa -4 + ^ r7: .cfa -8 + ^ r6: .cfa -12 + ^ r5: .cfa -16 + ^ r4: .cfa -20 + ^
STACK CFI 1669c .cfa: r7 8 +
STACK CFI 166a0 r11: .cfa -24 + ^ r10: .cfa -28 + ^ r9: .cfa -32 + ^ r8: .cfa -36 + ^
STACK CFI INIT 16794 184 .cfa: sp 0 +
STACK CFI 16796 .cfa: sp 20 + .ra: .cfa -4 + ^ r7: .cfa -8 + ^ r6: .cfa -12 + ^ r5: .cfa -16 + ^ r4: .cfa -20 + ^
STACK CFI 16798 .cfa: r7 8 +
STACK CFI 1679c r11: .cfa -24 + ^ r10: .cfa -28 + ^ r9: .cfa -32 + ^ r8: .cfa -36 + ^
STACK CFI INIT 16918 214 .cfa: sp 0 +
STACK CFI 1691a .cfa: sp 20 + .ra: .cfa -4 + ^ r7: .cfa -8 + ^ r6: .cfa -12 + ^ r5: .cfa -16 + ^ r4: .cfa -20 + ^
STACK CFI 1691c .cfa: r7 8 +
STACK CFI 16920 r8: .cfa -24 + ^
STACK CFI INIT 16b2c e0 .cfa: sp 0 +
STACK CFI 16b2e .cfa: sp 20 + .ra: .cfa -4 + ^ r7: .cfa -8 + ^ r6: .cfa -12 + ^ r5: .cfa -16 + ^ r4: .cfa -20 + ^
STACK CFI 16b30 .cfa: r7 8 +
STACK CFI 16b34 r8: .cfa -24 + ^
STACK CFI INIT 16c0c e0 .cfa: sp 0 +
STACK CFI 16c0e .cfa: sp 20 + .ra: .cfa -4 + ^ r7: .cfa -8 + ^ r6: .cfa -12 + ^ r5: .cfa -16 + ^ r4: .cfa -20 + ^
STACK CFI 16c10 .cfa: r7 8 +
STACK CFI 16c14 r8: .cfa -24 + ^
STACK CFI INIT 16cf0 73c .cfa: sp 0 +
STACK CFI 16cf2 .cfa: sp 20 + .ra: .cfa -4 + ^ r7: .cfa -8 + ^ r6: .cfa -12 + ^ r5: .cfa -16 + ^ r4: .cfa -20 + ^
STACK CFI 16cf4 .cfa: r7 8 +
STACK CFI 16cf8 r11: .cfa -24 + ^ r10: .cfa -28 + ^ r9: .cfa -32 + ^ r8: .cfa -36 + ^
STACK CFI INIT 1742c 140 .cfa: sp 0 +
STACK CFI 1742e .cfa: sp 20 + .ra: .cfa -4 + ^ r7: .cfa -8 + ^ r6: .cfa -12 + ^ r5: .cfa -16 + ^ r4: .cfa -20 + ^
STACK CFI 17430 .cfa: r7 8 +
STACK CFI 17434 r11: .cfa -24 + ^ r10: .cfa -28 + ^ r9: .cfa -32 + ^ r8: .cfa -36 + ^
STACK CFI INIT 1756c e0 .cfa: sp 0 +
STACK CFI 1756e .cfa: sp 20 + .ra: .cfa -4 + ^ r7: .cfa -8 + ^ r6: .cfa -12 + ^ r5: .cfa -16 + ^ r4: .cfa -20 + ^
STACK CFI 17570 .cfa: r7 8 +
STACK CFI 17574 r8: .cfa -24 + ^
STACK CFI INIT 1764c 194 .cfa: sp 0 +
STACK CFI 1764e .cfa: sp 20 + .ra: .cfa -4 + ^ r7: .cfa -8 + ^ r6: .cfa -12 + ^ r5: .cfa -16 + ^ r4: .cfa -20 + ^
STACK CFI 17650 .cfa: r7 8 +
STACK CFI 17654 r8: .cfa -24 + ^
STACK CFI INIT 177e0 22 .cfa: sp 0 +
STACK CFI 177e2 .cfa: sp 16 + .ra: .cfa -4 + ^ r7: .cfa -8 + ^ r6: .cfa -12 + ^ r4: .cfa -16 + ^
STACK CFI 177e4 .cfa: r7 8 +
STACK CFI INIT 17804 104 .cfa: sp 0 +
STACK CFI 17806 .cfa: sp 20 + .ra: .cfa -4 + ^ r7: .cfa -8 + ^ r6: .cfa -12 + ^ r5: .cfa -16 + ^ r4: .cfa -20 + ^
STACK CFI 17808 .cfa: r7 8 +
STACK CFI 1780c r10: .cfa -24 + ^ r9: .cfa -28 + ^ r8: .cfa -32 + ^
STACK CFI INIT 17908 144 .cfa: sp 0 +
STACK CFI 1790a .cfa: sp 20 + .ra: .cfa -4 + ^ r7: .cfa -8 + ^ r6: .cfa -12 + ^ r5: .cfa -16 + ^ r4: .cfa -20 + ^
STACK CFI 1790c .cfa: r7 8 +
STACK CFI 17910 r11: .cfa -24 + ^ r9: .cfa -28 + ^ r8: .cfa -32 + ^
STACK CFI INIT 17a4c 66 .cfa: sp 0 +
STACK CFI 17a4e .cfa: sp 20 + .ra: .cfa -4 + ^ r7: .cfa -8 + ^ r6: .cfa -12 + ^ r5: .cfa -16 + ^ r4: .cfa -20 + ^
STACK CFI 17a50 .cfa: r7 8 +
STACK CFI 17a54 r11: .cfa -24 + ^ r9: .cfa -28 + ^ r8: .cfa -32 + ^
STACK CFI INIT 17ab2 a6 .cfa: sp 0 +
STACK CFI 17ab4 .cfa: sp 20 + .ra: .cfa -4 + ^ r7: .cfa -8 + ^ r6: .cfa -12 + ^ r5: .cfa -16 + ^ r4: .cfa -20 + ^
STACK CFI 17ab6 .cfa: r7 8 +
STACK CFI 17aba r10: .cfa -24 + ^ r9: .cfa -28 + ^ r8: .cfa -32 + ^
STACK CFI INIT 17b58 21c .cfa: sp 0 +
STACK CFI 17b5a .cfa: sp 20 + .ra: .cfa -4 + ^ r7: .cfa -8 + ^ r6: .cfa -12 + ^ r5: .cfa -16 + ^ r4: .cfa -20 + ^
STACK CFI 17b5c .cfa: r7 8 +
STACK CFI 17b60 r11: .cfa -24 + ^ r10: .cfa -28 + ^ r9: .cfa -32 + ^ r8: .cfa -36 + ^
STACK CFI INIT 17d74 6e .cfa: sp 0 +
STACK CFI 17d76 .cfa: sp 20 + .ra: .cfa -4 + ^ r7: .cfa -8 + ^ r6: .cfa -12 + ^ r5: .cfa -16 + ^ r4: .cfa -20 + ^
STACK CFI 17d78 .cfa: r7 8 +
STACK CFI 17d7c r8: .cfa -24 + ^
STACK CFI INIT 17df0 e4 .cfa: sp 0 +
STACK CFI 17df2 .cfa: sp 20 + .ra: .cfa -4 + ^ r7: .cfa -8 + ^ r6: .cfa -12 + ^ r5: .cfa -16 + ^ r4: .cfa -20 + ^
STACK CFI 17df4 .cfa: r7 8 +
STACK CFI 17df8 r11: .cfa -24 + ^
STACK CFI INIT 17ed4 9ac .cfa: sp 0 +
STACK CFI 17ed6 .cfa: sp 20 + .ra: .cfa -4 + ^ r7: .cfa -8 + ^ r6: .cfa -12 + ^ r5: .cfa -16 + ^ r4: .cfa -20 + ^
STACK CFI 17ed8 .cfa: r7 8 +
STACK CFI 17edc r11: .cfa -24 + ^ r10: .cfa -28 + ^ r9: .cfa -32 + ^ r8: .cfa -36 + ^
STACK CFI INIT 18880 e8 .cfa: sp 0 +
STACK CFI 18882 .cfa: sp 20 + .ra: .cfa -4 + ^ r7: .cfa -8 + ^ r6: .cfa -12 + ^ r5: .cfa -16 + ^ r4: .cfa -20 + ^
STACK CFI 18884 .cfa: r7 8 +
STACK CFI 18888 r8: .cfa -24 + ^
STACK CFI INIT 18968 19c .cfa: sp 0 +
STACK CFI 1896a .cfa: sp 20 + .ra: .cfa -4 + ^ r7: .cfa -8 + ^ r6: .cfa -12 + ^ r5: .cfa -16 + ^ r4: .cfa -20 + ^
STACK CFI 1896c .cfa: r7 8 +
STACK CFI 18970 r11: .cfa -24 + ^ r10: .cfa -28 + ^ r9: .cfa -32 + ^ r8: .cfa -36 + ^
STACK CFI INIT 18b10 e4 .cfa: sp 0 +
STACK CFI 18b12 .cfa: sp 20 + .ra: .cfa -4 + ^ r7: .cfa -8 + ^ r6: .cfa -12 + ^ r5: .cfa -16 + ^ r4: .cfa -20 + ^
STACK CFI 18b14 .cfa: r7 8 +
STACK CFI 18b18 r11: .cfa -24 + ^
STACK CFI INIT 18bf4 150 .cfa: sp 0 +
STACK CFI 18bf6 .cfa: sp 20 + .ra: .cfa -4 + ^ r7: .cfa -8 + ^ r6: .cfa -12 + ^ r5: .cfa -16 + ^ r4: .cfa -20 + ^
STACK CFI 18bf8 .cfa: r7 8 +
STACK CFI 18bfc r11: .cfa -24 + ^ r10: .cfa -28 + ^ r9: .cfa -32 + ^ r8: .cfa -36 + ^
STACK CFI INIT 18d48 1660 .cfa: sp 0 +
STACK CFI 18d4a .cfa: sp 20 + .ra: .cfa -4 + ^ r7: .cfa -8 + ^ r6: .cfa -12 + ^ r5: .cfa -16 + ^ r4: .cfa -20 + ^
STACK CFI 18d4c .cfa: r7 8 +
STACK CFI 18d50 r11: .cfa -24 + ^ r10: .cfa -28 + ^ r9: .cfa -32 + ^ r8: .cfa -36 + ^
STACK CFI INIT 1a3a8 1cc .cfa: sp 0 +
STACK CFI 1a3aa .cfa: sp 20 + .ra: .cfa -4 + ^ r7: .cfa -8 + ^ r6: .cfa -12 + ^ r5: .cfa -16 + ^ r4: .cfa -20 + ^
STACK CFI 1a3ac .cfa: r7 8 +
STACK CFI 1a3b0 r8: .cfa -24 + ^
STACK CFI INIT 1a574 106 .cfa: sp 0 +
STACK CFI 1a576 .cfa: sp 20 + .ra: .cfa -4 + ^ r7: .cfa -8 + ^ r6: .cfa -12 + ^ r5: .cfa -16 + ^ r4: .cfa -20 + ^
STACK CFI 1a578 .cfa: r7 8 +
STACK CFI 1a57c r11: .cfa -24 + ^ r10: .cfa -28 + ^ r9: .cfa -32 + ^ r8: .cfa -36 + ^
STACK CFI INIT 1a67c b78 .cfa: sp 0 +
STACK CFI 1a67e .cfa: sp 20 + .ra: .cfa -4 + ^ r7: .cfa -8 + ^ r6: .cfa -12 + ^ r5: .cfa -16 + ^ r4: .cfa -20 + ^
STACK CFI 1a680 .cfa: r7 8 +
STACK CFI 1a684 r11: .cfa -24 + ^ r10: .cfa -28 + ^ r9: .cfa -32 + ^ r8: .cfa -36 + ^
STACK CFI INIT 1b1f4 3a4 .cfa: sp 0 +
STACK CFI 1b1f6 .cfa: sp 20 + .ra: .cfa -4 + ^ r7: .cfa -8 + ^ r6: .cfa -12 + ^ r5: .cfa -16 + ^ r4: .cfa -20 + ^
STACK CFI 1b1f8 .cfa: r7 8 +
STACK CFI 1b1fc r11: .cfa -24 + ^ r10: .cfa -28 + ^ r9: .cfa -32 + ^ r8: .cfa -36 + ^
STACK CFI INIT 1b598 ebc .cfa: sp 0 +
STACK CFI 1b59a .cfa: sp 20 + .ra: .cfa -4 + ^ r7: .cfa -8 + ^ r6: .cfa -12 + ^ r5: .cfa -16 + ^ r4: .cfa -20 + ^
STACK CFI 1b59c .cfa: r7 8 +
STACK CFI 1b5a0 r11: .cfa -24 + ^ r10: .cfa -28 + ^ r9: .cfa -32 + ^ r8: .cfa -36 + ^
STACK CFI INIT 1c454 10c .cfa: sp 0 +
STACK CFI 1c456 .cfa: sp 20 + .ra: .cfa -4 + ^ r7: .cfa -8 + ^ r6: .cfa -12 + ^ r5: .cfa -16 + ^ r4: .cfa -20 + ^
STACK CFI 1c458 .cfa: r7 8 +
STACK CFI 1c45c r11: .cfa -24 + ^ r10: .cfa -28 + ^ r9: .cfa -32 + ^ r8: .cfa -36 + ^
STACK CFI INIT 1c560 c4 .cfa: sp 0 +
STACK CFI 1c57e .cfa: sp 20 + .ra: .cfa -4 + ^ r7: .cfa -8 + ^ r6: .cfa -12 + ^ r5: .cfa -16 + ^ r4: .cfa -20 + ^
STACK CFI 1c580 .cfa: r7 8 +
STACK CFI 1c584 r8: .cfa -24 + ^
STACK CFI INIT 1c624 414 .cfa: sp 0 +
STACK CFI 1c626 .cfa: sp 20 + .ra: .cfa -4 + ^ r7: .cfa -8 + ^ r6: .cfa -12 + ^ r5: .cfa -16 + ^ r4: .cfa -20 + ^
STACK CFI 1c628 .cfa: r7 8 +
STACK CFI 1c62c r11: .cfa -24 + ^ r10: .cfa -28 + ^ r9: .cfa -32 + ^ r8: .cfa -36 + ^
STACK CFI INIT 1ca38 276 .cfa: sp 0 +
STACK CFI 1ca3a .cfa: sp 20 + .ra: .cfa -4 + ^ r7: .cfa -8 + ^ r6: .cfa -12 + ^ r5: .cfa -16 + ^ r4: .cfa -20 + ^
STACK CFI 1ca3c .cfa: r7 8 +
STACK CFI 1ca40 r11: .cfa -24 + ^ r10: .cfa -28 + ^ r9: .cfa -32 + ^ r8: .cfa -36 + ^
STACK CFI INIT 1ccae 6e .cfa: sp 0 +
STACK CFI 1ccb0 .cfa: sp 20 + .ra: .cfa -4 + ^ r7: .cfa -8 + ^ r6: .cfa -12 + ^ r5: .cfa -16 + ^ r4: .cfa -20 + ^
STACK CFI 1ccb2 .cfa: r7 8 +
STACK CFI 1ccb6 r8: .cfa -24 + ^
STACK CFI INIT 1cd1c 994 .cfa: sp 0 +
STACK CFI 1cd1e .cfa: sp 20 + .ra: .cfa -4 + ^ r7: .cfa -8 + ^ r6: .cfa -12 + ^ r5: .cfa -16 + ^ r4: .cfa -20 + ^
STACK CFI 1cd20 .cfa: r7 8 +
STACK CFI 1cd24 r11: .cfa -24 + ^ r10: .cfa -28 + ^ r9: .cfa -32 + ^ r8: .cfa -36 + ^
STACK CFI INIT 1d6b0 e0 .cfa: sp 0 +
STACK CFI 1d6b2 .cfa: sp 20 + .ra: .cfa -4 + ^ r7: .cfa -8 + ^ r6: .cfa -12 + ^ r5: .cfa -16 + ^ r4: .cfa -20 + ^
STACK CFI 1d6b4 .cfa: r7 8 +
STACK CFI 1d6b8 r11: .cfa -24 + ^ r10: .cfa -28 + ^ r9: .cfa -32 + ^ r8: .cfa -36 + ^
STACK CFI INIT 1d790 820 .cfa: sp 0 +
STACK CFI 1d792 .cfa: sp 20 + .ra: .cfa -4 + ^ r7: .cfa -8 + ^ r6: .cfa -12 + ^ r5: .cfa -16 + ^ r4: .cfa -20 + ^
STACK CFI 1d794 .cfa: r7 8 +
STACK CFI 1d798 r11: .cfa -24 + ^ r10: .cfa -28 + ^ r9: .cfa -32 + ^ r8: .cfa -36 + ^
STACK CFI INIT 1dfb0 124 .cfa: sp 0 +
STACK CFI 1dfb2 .cfa: sp 20 + .ra: .cfa -4 + ^ r7: .cfa -8 + ^ r6: .cfa -12 + ^ r5: .cfa -16 + ^ r4: .cfa -20 + ^
STACK CFI 1dfb4 .cfa: r7 8 +
STACK CFI 1dfb8 r11: .cfa -24 + ^ r10: .cfa -28 + ^ r9: .cfa -32 + ^ r8: .cfa -36 + ^
STACK CFI INIT 1e0e0 1e4 .cfa: sp 0 +
STACK CFI 1e0e2 .cfa: sp 20 + .ra: .cfa -4 + ^ r7: .cfa -8 + ^ r6: .cfa -12 + ^ r5: .cfa -16 + ^ r4: .cfa -20 + ^
STACK CFI 1e0e4 .cfa: r7 8 +
STACK CFI 1e0e8 r11: .cfa -24 + ^ r10: .cfa -28 + ^ r9: .cfa -32 + ^ r8: .cfa -36 + ^
STACK CFI INIT 1e2c4 544 .cfa: sp 0 +
STACK CFI 1e2c6 .cfa: sp 20 + .ra: .cfa -4 + ^ r7: .cfa -8 + ^ r6: .cfa -12 + ^ r5: .cfa -16 + ^ r4: .cfa -20 + ^
STACK CFI 1e2c8 .cfa: r7 8 +
STACK CFI 1e2cc r11: .cfa -24 + ^ r10: .cfa -28 + ^ r9: .cfa -32 + ^ r8: .cfa -36 + ^
