MODULE Linux arm64 9EF67CDC1D6DF44AA0FADFEBD1D4FE1C0 raydeeux_thesillydoggo.evenmoreleveltags.android64.so
INFO CODE_ID DC7CF69E6D1D4AF4A0FADFEBD1D4FE1C1B09093F
INFO GENERATOR mozilla/dump_syms 2.3.4
PUBLIC 102c0 0 __on_dlclose
PUBLIC 102d0 0 __emutls_unregister_key
PUBLIC 102d8 0 __on_dlclose_late
PUBLIC 102e0 0 __atexit_handler_wrapper
PUBLIC 102f4 0 atexit
PUBLIC 10310 0 pthread_atfork
PUBLIC 10320 0 unwind_phase2
PUBLIC 10454 0 _Unwind_Resume
PUBLIC 104d8 0 unwind_phase2_forced
PUBLIC m 105cc 0 __unw_init_local
PUBLIC m 10674 0 __unw_get_reg
PUBLIC 106f0 0 __unw_step_stage2
PUBLIC m 10704 0 __unw_get_proc_info
PUBLIC m 10744 0 __unw_resume
PUBLIC 1076c 0 libunwind::CFI_Parser<libunwind::LocalAddressSpace>::decodeFDE(libunwind::LocalAddressSpace&, unsigned long, libunwind::CFI_Parser<libunwind::LocalAddressSpace>::FDE_Info*, libunwind::CFI_Parser<libunwind::LocalAddressSpace>::CIE_Info*, bool)
PUBLIC 108fc 0 libunwind::CFI_Parser<libunwind::LocalAddressSpace>::parseCIE(libunwind::LocalAddressSpace&, unsigned long, libunwind::CFI_Parser<libunwind::LocalAddressSpace>::CIE_Info*)
PUBLIC 10bc4 0 libunwind::AbstractUnwindCursor::~AbstractUnwindCursor()
PUBLIC 10bcc 0 libunwind::UnwindCursor<libunwind::LocalAddressSpace, libunwind::Registers_arm64>::~UnwindCursor()
PUBLIC 10bd4 0 libunwind::UnwindCursor<libunwind::LocalAddressSpace, libunwind::Registers_arm64>::validReg(int)
PUBLIC 10c18 0 libunwind::UnwindCursor<libunwind::LocalAddressSpace, libunwind::Registers_arm64>::getReg(int)
PUBLIC 10d00 0 libunwind::UnwindCursor<libunwind::LocalAddressSpace, libunwind::Registers_arm64>::setReg(int, unsigned long)
PUBLIC 10de8 0 libunwind::UnwindCursor<libunwind::LocalAddressSpace, libunwind::Registers_arm64>::validFloatReg(int)
PUBLIC 10dfc 0 libunwind::UnwindCursor<libunwind::LocalAddressSpace, libunwind::Registers_arm64>::getFloatReg(int)
PUBLIC 10e0c 0 libunwind::UnwindCursor<libunwind::LocalAddressSpace, libunwind::Registers_arm64>::setFloatReg(int, double)
PUBLIC 10e1c 0 libunwind::UnwindCursor<libunwind::LocalAddressSpace, libunwind::Registers_arm64>::step(bool)
PUBLIC 10f0c 0 libunwind::UnwindCursor<libunwind::LocalAddressSpace, libunwind::Registers_arm64>::getInfo(unw_proc_info_t*)
PUBLIC 10f50 0 libunwind::UnwindCursor<libunwind::LocalAddressSpace, libunwind::Registers_arm64>::jumpto()
PUBLIC 10f5c 0 libunwind::UnwindCursor<libunwind::LocalAddressSpace, libunwind::Registers_arm64>::isSignalFrame()
PUBLIC 10f68 0 libunwind::UnwindCursor<libunwind::LocalAddressSpace, libunwind::Registers_arm64>::getFunctionName(char*, unsigned long, unsigned long*)
PUBLIC 10f94 0 libunwind::UnwindCursor<libunwind::LocalAddressSpace, libunwind::Registers_arm64>::setInfoBasedOnIPRegister(bool)
PUBLIC 11214 0 libunwind::UnwindCursor<libunwind::LocalAddressSpace, libunwind::Registers_arm64>::getRegisterName(int)
PUBLIC 11220 0 libunwind::UnwindCursor<libunwind::LocalAddressSpace, libunwind::Registers_arm64>::stepThroughSigReturn(libunwind::Registers_arm64&)
PUBLIC 11340 0 libunwind::DwarfInstructions<libunwind::LocalAddressSpace, libunwind::Registers_arm64>::stepWithDwarf(libunwind::LocalAddressSpace&, unsigned long, unsigned long, libunwind::Registers_arm64&, bool&, bool)
PUBLIC 117c8 0 libunwind::CFI_Parser<libunwind::LocalAddressSpace>::parseFDEInstructions(libunwind::LocalAddressSpace&, libunwind::CFI_Parser<libunwind::LocalAddressSpace>::FDE_Info const&, libunwind::CFI_Parser<libunwind::LocalAddressSpace>::CIE_Info const&, unsigned long, int, libunwind::CFI_Parser<libunwind::LocalAddressSpace>::PrologInfo*)
PUBLIC 12410 0 libunwind::DwarfInstructions<libunwind::LocalAddressSpace, libunwind::Registers_arm64>::getCFA(libunwind::LocalAddressSpace&, libunwind::CFI_Parser<libunwind::LocalAddressSpace>::PrologInfo const&, libunwind::Registers_arm64 const&)
PUBLIC 12544 0 libunwind::DwarfInstructions<libunwind::LocalAddressSpace, libunwind::Registers_arm64>::getSavedRegister(libunwind::LocalAddressSpace&, libunwind::Registers_arm64 const&, unsigned long, libunwind::CFI_Parser<libunwind::LocalAddressSpace>::RegisterLocation const&)
PUBLIC 12754 0 libunwind::LocalAddressSpace::getEncodedP(unsigned long&, unsigned long, unsigned char, unsigned long)
PUBLIC 12ae0 0 libunwind::LocalAddressSpace::getULEB128(unsigned long&, unsigned long)
PUBLIC 12ca8 0 libunwind::DwarfInstructions<libunwind::LocalAddressSpace, libunwind::Registers_arm64>::evaluateExpression(unsigned long, libunwind::LocalAddressSpace&, libunwind::Registers_arm64 const&, unsigned long)
PUBLIC 13664 0 libunwind::UnwindCursor<libunwind::LocalAddressSpace, libunwind::Registers_arm64>::getInfoFromDwarfSection(unsigned long, libunwind::UnwindInfoSections const&, unsigned int)
PUBLIC 13938 0 libunwind::findUnwindSectionsByPhdr(dl_phdr_info*, unsigned long, void*)
PUBLIC 13a6c 0 libunwind::EHHeaderParser<libunwind::LocalAddressSpace>::decodeEHHdr(libunwind::LocalAddressSpace&, unsigned long, unsigned long, libunwind::EHHeaderParser<libunwind::LocalAddressSpace>::EHHeaderInfo&)
PUBLIC 13b8c 0 libunwind::CFI_Parser<libunwind::LocalAddressSpace>::findFDE(libunwind::LocalAddressSpace&, unsigned long, unsigned long, unsigned long, unsigned long, libunwind::CFI_Parser<libunwind::LocalAddressSpace>::FDE_Info*, libunwind::CFI_Parser<libunwind::LocalAddressSpace>::CIE_Info*)
PUBLIC 13d54 0 libunwind::EHHeaderParser<libunwind::LocalAddressSpace>::findFDE(libunwind::LocalAddressSpace&, unsigned long, unsigned long, unsigned int, libunwind::CFI_Parser<libunwind::LocalAddressSpace>::FDE_Info*, libunwind::CFI_Parser<libunwind::LocalAddressSpace>::CIE_Info*)
PUBLIC 13ebc 0 libunwind::EHHeaderParser<libunwind::LocalAddressSpace>::getTableEntrySize(unsigned char)
PUBLIC 13fb8 0 libunwind::Registers_arm64::getRegisterName(int)
PUBLIC 13fe8 0 __libunwind_Registers_arm64_jumpto
PUBLIC m 14078 0 __unw_getcontext
PUBLIC 14120 0 __aarch64_ldadd8_acq_rel
PUBLIC 14150 0 init_have_lse_atomics
PUBLIC 141e8 0 __init_cpu_features_constructor
PUBLIC 14784 0 __init_cpu_features
PUBLIC 14810 0 __aarch64_ldadd8_relax
PUBLIC 14840 0 std::__ndk1::basic_regex<char, std::__ndk1::regex_traits<char> >::basic_regex[abi:ne180000](char const*, std::__ndk1::regex_constants::syntax_option_type)
PUBLIC 14900 0 std::__ndk1::basic_regex<char, std::__ndk1::regex_traits<char> >::~basic_regex()
PUBLIC 14960 0 std::__ndk1::vector<int, std::__ndk1::allocator<int> >::~vector[abi:ne180000]()
PUBLIC 14978 0 __cxx_global_var_init.6
PUBLIC 14dfc 0 geode::modifier::ModifyBase<geode::modifier::ModifyDerive<MyLevelInfoLayer, LevelInfoLayer> >::~ModifyBase()
PUBLIC 14e14 0 __cxx_global_var_init.7
PUBLIC 15524 0 geode::modifier::ModifyBase<geode::modifier::ModifyDerive<MyFLAlertLayer, FLAlertLayer> >::~ModifyBase()
PUBLIC 1553c 0 std::__ndk1::shared_ptr<std::__ndk1::__empty_state<char> >::~shared_ptr[abi:ne180000]()
PUBLIC 1558c 0 __clang_call_terminate
PUBLIC 1559c 0 std::__ndk1::__throw_length_error[abi:ne180000](char const*)
PUBLIC 155ec 0 std::length_error::length_error[abi:ne180000](char const*)
PUBLIC 1561c 0 std::__throw_bad_array_new_length([abi:ne180000], void)
PUBLIC 15650 0 std::__ndk1::basic_regex<char, std::__ndk1::regex_traits<char> >::__parse<char const*>(char const*, char const*)
PUBLIC 15d14 0 std::__ndk1::__throw_regex_error[abi:ne180000]<(std::__ndk1::regex_constants::error_type)17>()
PUBLIC 15d60 0 std::__ndk1::basic_regex<char, std::__ndk1::regex_traits<char> >::__parse_ecma_exp<char const*>(char const*, char const*)
PUBLIC 15fcc 0 std::__ndk1::basic_regex<char, std::__ndk1::regex_traits<char> >::__parse_basic_reg_exp<char const*>(char const*, char const*)
PUBLIC 16174 0 std::__ndk1::basic_regex<char, std::__ndk1::regex_traits<char> >::__parse_extended_reg_exp<char const*>(char const*, char const*)
PUBLIC 162e4 0 std::__ndk1::__throw_regex_error[abi:ne180000]<(std::__ndk1::regex_constants::error_type)14>()
PUBLIC 16330 0 std::__ndk1::__end_state<char>::~__end_state()
PUBLIC 16334 0 std::__ndk1::__end_state<char>::__exec(std::__ndk1::__state<char>&) const
PUBLIC 16340 0 std::__ndk1::__node<char>::__exec_split(bool, std::__ndk1::__state<char>&) const
PUBLIC 16344 0 std::__ndk1::__node<char>::__exec(std::__ndk1::__state<char>&) const
PUBLIC 16348 0 std::__ndk1::__shared_ptr_pointer<std::__ndk1::__empty_state<char>*, std::__ndk1::shared_ptr<std::__ndk1::__empty_state<char> >::__shared_ptr_default_delete<std::__ndk1::__empty_state<char>, std::__ndk1::__empty_state<char> >, std::__ndk1::allocator<std::__ndk1::__empty_state<char> > >::~__shared_ptr_pointer()
PUBLIC 1636c 0 std::__ndk1::__shared_ptr_pointer<std::__ndk1::__empty_state<char>*, std::__ndk1::shared_ptr<std::__ndk1::__empty_state<char> >::__shared_ptr_default_delete<std::__ndk1::__empty_state<char>, std::__ndk1::__empty_state<char> >, std::__ndk1::allocator<std::__ndk1::__empty_state<char> > >::__on_zero_shared()
PUBLIC 16384 0 std::__ndk1::__shared_ptr_pointer<std::__ndk1::__empty_state<char>*, std::__ndk1::shared_ptr<std::__ndk1::__empty_state<char> >::__shared_ptr_default_delete<std::__ndk1::__empty_state<char>, std::__ndk1::__empty_state<char> >, std::__ndk1::allocator<std::__ndk1::__empty_state<char> > >::__get_deleter(std::type_info const&) const
PUBLIC 163a0 0 std::__ndk1::__shared_ptr_pointer<std::__ndk1::__empty_state<char>*, std::__ndk1::shared_ptr<std::__ndk1::__empty_state<char> >::__shared_ptr_default_delete<std::__ndk1::__empty_state<char>, std::__ndk1::__empty_state<char> >, std::__ndk1::allocator<std::__ndk1::__empty_state<char> > >::__on_zero_shared_weak()
PUBLIC 163a4 0 std::__ndk1::__empty_state<char>::~__empty_state()
PUBLIC 163ec 0 std::__ndk1::__empty_state<char>::__exec(std::__ndk1::__state<char>&) const
PUBLIC 16400 0 std::__ndk1::__owns_one_state<char>::~__owns_one_state()
PUBLIC 16448 0 std::__ndk1::basic_regex<char, std::__ndk1::regex_traits<char> >::__parse_assertion<char const*>(char const*, char const*)
PUBLIC 167ac 0 std::__ndk1::basic_regex<char, std::__ndk1::regex_traits<char> >::__parse_atom<char const*>(char const*, char const*)
PUBLIC 16df0 0 std::__ndk1::basic_regex<char, std::__ndk1::regex_traits<char> >::__parse_ERE_dupl_symbol<char const*>(char const*, char const*, std::__ndk1::__owns_one_state<char>*, unsigned int, unsigned int)
PUBLIC 171e4 0 std::__ndk1::basic_regex<char, std::__ndk1::regex_traits<char> >::basic_regex[abi:ne180000]()
PUBLIC 17250 0 std::__ndk1::basic_regex<char, std::__ndk1::regex_traits<char> >::__push_lookahead(std::__ndk1::basic_regex<char, std::__ndk1::regex_traits<char> > const&, bool, unsigned int)
PUBLIC 17304 0 std::__ndk1::__throw_regex_error[abi:ne180000]<(std::__ndk1::regex_constants::error_type)6>()
PUBLIC 17350 0 std::__ndk1::__l_anchor_multiline<char>::~__l_anchor_multiline()
PUBLIC 17398 0 std::__ndk1::__l_anchor_multiline<char>::__exec(std::__ndk1::__state<char>&) const
PUBLIC 173fc 0 std::__ndk1::__r_anchor_multiline<char>::~__r_anchor_multiline()
PUBLIC 17444 0 std::__ndk1::__r_anchor_multiline<char>::__exec(std::__ndk1::__state<char>&) const
PUBLIC 17498 0 std::__ndk1::__word_boundary<char, std::__ndk1::regex_traits<char> >::~__word_boundary()
PUBLIC 174f4 0 std::__ndk1::__word_boundary<char, std::__ndk1::regex_traits<char> >::~__word_boundary()
PUBLIC 1754c 0 std::__ndk1::__word_boundary<char, std::__ndk1::regex_traits<char> >::__exec(std::__ndk1::__state<char>&) const
PUBLIC 1765c 0 std::__ndk1::__lookahead<char, std::__ndk1::regex_traits<char> >::~__lookahead()
PUBLIC 176ec 0 std::__ndk1::__lookahead<char, std::__ndk1::regex_traits<char> >::~__lookahead()
PUBLIC 17778 0 std::__ndk1::__lookahead<char, std::__ndk1::regex_traits<char> >::__exec(std::__ndk1::__state<char>&) const
PUBLIC 1794c 0 std::__ndk1::basic_regex<char, std::__ndk1::regex_traits<char> >::__match_at_start_ecma<std::__ndk1::allocator<std::__ndk1::sub_match<char const*> > >(char const*, char const*, std::__ndk1::match_results<char const*, std::__ndk1::allocator<std::__ndk1::sub_match<char const*> > >&, std::__ndk1::regex_constants::match_flag_type, bool) const
PUBLIC 17d98 0 std::__ndk1::vector<std::__ndk1::sub_match<char const*>, std::__ndk1::allocator<std::__ndk1::sub_match<char const*> > >::assign(unsigned long, std::__ndk1::sub_match<char const*> const&)
PUBLIC 17f68 0 std::__ndk1::vector<std::__ndk1::sub_match<char const*>, std::__ndk1::allocator<std::__ndk1::sub_match<char const*> > >::__throw_length_error[abi:ne180000]() const
PUBLIC 17f7c 0 std::__ndk1::__state<char>::~__state()
PUBLIC 17fc0 0 std::__ndk1::__throw_regex_error[abi:ne180000]<(std::__ndk1::regex_constants::error_type)12>()
PUBLIC 1800c 0 std::__ndk1::__state<char>::__state(std::__ndk1::__state<char> const&)
PUBLIC 1817c 0 std::__ndk1::__throw_regex_error[abi:ne180000]<(std::__ndk1::regex_constants::error_type)16>()
PUBLIC 181c8 0 std::__ndk1::vector<std::__ndk1::__state<char>, std::__ndk1::allocator<std::__ndk1::__state<char> > >::~vector[abi:ne180000]()
PUBLIC 18260 0 std::__ndk1::vector<std::__ndk1::__state<char>, std::__ndk1::allocator<std::__ndk1::__state<char> > >::__push_back_slow_path<std::__ndk1::__state<char> >(std::__ndk1::__state<char>&&)
PUBLIC 1843c 0 std::__ndk1::vector<std::__ndk1::__state<char>, std::__ndk1::allocator<std::__ndk1::__state<char> > >::__throw_length_error[abi:ne180000]() const
PUBLIC 18450 0 std::__ndk1::vector<std::__ndk1::sub_match<char const*>, std::__ndk1::allocator<std::__ndk1::sub_match<char const*> > >::__append(unsigned long, std::__ndk1::sub_match<char const*> const&)
PUBLIC 185f8 0 std::__ndk1::vector<std::__ndk1::pair<unsigned long, char const*>, std::__ndk1::allocator<std::__ndk1::pair<unsigned long, char const*> > >::__append(unsigned long)
PUBLIC 18724 0 std::__ndk1::vector<std::__ndk1::pair<unsigned long, char const*>, std::__ndk1::allocator<std::__ndk1::pair<unsigned long, char const*> > >::__throw_length_error[abi:ne180000]() const
PUBLIC 18738 0 std::__ndk1::basic_regex<char, std::__ndk1::regex_traits<char> >::__parse_bracket_expression<char const*>(char const*, char const*)
PUBLIC 1982c 0 std::__ndk1::__throw_regex_error[abi:ne180000]<(std::__ndk1::regex_constants::error_type)11>()
PUBLIC 19878 0 std::__ndk1::__match_any_but_newline<char>::~__match_any_but_newline()
PUBLIC 198c0 0 std::__ndk1::__throw_regex_error[abi:ne180000]<(std::__ndk1::regex_constants::error_type)3>()
PUBLIC 1990c 0 std::__ndk1::basic_regex<char, std::__ndk1::regex_traits<char> >::__parse_character_escape<char const*>(char const*, char const*, std::__ndk1::basic_string<char, std::__ndk1::char_traits<char>, std::__ndk1::allocator<char> >*)
PUBLIC 19e18 0 std::__ndk1::basic_regex<char, std::__ndk1::regex_traits<char> >::__push_char(char)
PUBLIC 19f58 0 std::__ndk1::__throw_regex_error[abi:ne180000]<(std::__ndk1::regex_constants::error_type)4>()
PUBLIC 19fa4 0 std::__ndk1::basic_regex<char, std::__ndk1::regex_traits<char> >::__push_back_ref(int)
PUBLIC 1a06c 0 std::__ndk1::__match_char_icase<char, std::__ndk1::regex_traits<char> >::~__match_char_icase()
PUBLIC 1a0c8 0 std::__ndk1::__match_char_icase<char, std::__ndk1::regex_traits<char> >::~__match_char_icase()
PUBLIC 1a120 0 std::__ndk1::__match_char_icase<char, std::__ndk1::regex_traits<char> >::__exec(std::__ndk1::__state<char>&) const
PUBLIC 1a1a0 0 std::__ndk1::__match_char_collate<char, std::__ndk1::regex_traits<char> >::~__match_char_collate()
PUBLIC 1a1fc 0 std::__ndk1::__match_char_collate<char, std::__ndk1::regex_traits<char> >::~__match_char_collate()
PUBLIC 1a254 0 std::__ndk1::__match_char_collate<char, std::__ndk1::regex_traits<char> >::__exec(std::__ndk1::__state<char>&) const
PUBLIC 1a29c 0 std::__ndk1::__match_char<char>::~__match_char()
PUBLIC 1a2e4 0 std::__ndk1::__match_char<char>::__exec(std::__ndk1::__state<char>&) const
PUBLIC 1a32c 0 std::__ndk1::__back_ref_icase<char, std::__ndk1::regex_traits<char> >::~__back_ref_icase()
PUBLIC 1a388 0 std::__ndk1::__back_ref_icase<char, std::__ndk1::regex_traits<char> >::~__back_ref_icase()
PUBLIC 1a3e0 0 std::__ndk1::__back_ref_icase<char, std::__ndk1::regex_traits<char> >::__exec(std::__ndk1::__state<char>&) const
PUBLIC 1a4d8 0 std::__ndk1::__back_ref_collate<char, std::__ndk1::regex_traits<char> >::~__back_ref_collate()
PUBLIC 1a534 0 std::__ndk1::__back_ref_collate<char, std::__ndk1::regex_traits<char> >::~__back_ref_collate()
PUBLIC 1a58c 0 std::__ndk1::__back_ref_collate<char, std::__ndk1::regex_traits<char> >::__exec(std::__ndk1::__state<char>&) const
PUBLIC 1a61c 0 std::__ndk1::__back_ref<char>::~__back_ref()
PUBLIC 1a664 0 std::__ndk1::__back_ref<char>::__exec(std::__ndk1::__state<char>&) const
PUBLIC 1a734 0 std::__ndk1::__bracket_expression<char, std::__ndk1::regex_traits<char> >::__add_char[abi:ne180000](char)
PUBLIC 1abe4 0 std::__ndk1::__bracket_expression<char, std::__ndk1::regex_traits<char> >::__bracket_expression[abi:ne180000](std::__ndk1::regex_traits<char> const&, std::__ndk1::__node<char>*, bool, bool, bool)
PUBLIC 1adc0 0 std::__ndk1::vector<std::__ndk1::basic_string<char, std::__ndk1::char_traits<char>, std::__ndk1::allocator<char> >, std::__ndk1::allocator<std::__ndk1::basic_string<char, std::__ndk1::char_traits<char>, std::__ndk1::allocator<char> > > >::~vector[abi:ne180000]()
PUBLIC 1ae3c 0 std::__ndk1::vector<std::__ndk1::pair<std::__ndk1::basic_string<char, std::__ndk1::char_traits<char>, std::__ndk1::allocator<char> >, std::__ndk1::basic_string<char, std::__ndk1::char_traits<char>, std::__ndk1::allocator<char> > >, std::__ndk1::allocator<std::__ndk1::pair<std::__ndk1::basic_string<char, std::__ndk1::char_traits<char>, std::__ndk1::allocator<char> >, std::__ndk1::basic_string<char, std::__ndk1::char_traits<char>, std::__ndk1::allocator<char> > > > >::~vector[abi:ne180000]()
PUBLIC 1aee0 0 std::__ndk1::__bracket_expression<char, std::__ndk1::regex_traits<char> >::~__bracket_expression()
PUBLIC 1b02c 0 std::__ndk1::__bracket_expression<char, std::__ndk1::regex_traits<char> >::~__bracket_expression()
PUBLIC 1b050 0 std::__ndk1::__bracket_expression<char, std::__ndk1::regex_traits<char> >::__exec(std::__ndk1::__state<char>&) const
PUBLIC 1bcbc 0 std::__ndk1::pair<std::__ndk1::basic_string<char, std::__ndk1::char_traits<char>, std::__ndk1::allocator<char> >, std::__ndk1::basic_string<char, std::__ndk1::char_traits<char>, std::__ndk1::allocator<char> > >::~pair()
PUBLIC 1bd00 0 std::__ndk1::basic_string<char, std::__ndk1::char_traits<char>, std::__ndk1::allocator<char> >::__throw_length_error[abi:ne180000]() const
PUBLIC 1bd14 0 std::__ndk1::basic_string<char, std::__ndk1::char_traits<char>, std::__ndk1::allocator<char> >::__assign_no_alias<true>(char const*, unsigned long)
PUBLIC 1bdc0 0 std::__ndk1::basic_string<char, std::__ndk1::char_traits<char>, std::__ndk1::allocator<char> >::__assign_no_alias<false>(char const*, unsigned long)
PUBLIC 1bed0 0 std::__ndk1::regex_traits<char>::__transform_primary<char*>(char*, char*, char) const
PUBLIC 1c094 0 std::__ndk1::vector<char, std::__ndk1::allocator<char> >::__throw_length_error[abi:ne180000]() const
PUBLIC 1c0a8 0 std::__ndk1::__throw_regex_error[abi:ne180000]<(std::__ndk1::regex_constants::error_type)5>()
PUBLIC 1c0f4 0 std::__ndk1::basic_regex<char, std::__ndk1::regex_traits<char> >::__parse_class_escape<char const*>(char const*, char const*, std::__ndk1::basic_string<char, std::__ndk1::char_traits<char>, std::__ndk1::allocator<char> >&, std::__ndk1::__bracket_expression<char, std::__ndk1::regex_traits<char> >*)
PUBLIC 1c6bc 0 std::__ndk1::basic_regex<char, std::__ndk1::regex_traits<char> >::__parse_awk_escape<char const*>(char const*, char const*, std::__ndk1::basic_string<char, std::__ndk1::char_traits<char>, std::__ndk1::allocator<char> >*)
PUBLIC 1cb80 0 std::__ndk1::__bracket_expression<char, std::__ndk1::regex_traits<char> >::__add_digraph[abi:ne180000](char, char)
PUBLIC 1cfa0 0 std::__ndk1::__throw_regex_error[abi:ne180000]<(std::__ndk1::regex_constants::error_type)1>()
PUBLIC 1cfec 0 std::__ndk1::regex_traits<char>::__lookup_collatename<char const*>(char const*, char const*, char) const
PUBLIC 1d2a0 0 std::__ndk1::vector<std::__ndk1::basic_string<char, std::__ndk1::char_traits<char>, std::__ndk1::allocator<char> >, std::__ndk1::allocator<std::__ndk1::basic_string<char, std::__ndk1::char_traits<char>, std::__ndk1::allocator<char> > > >::__push_back_slow_path<std::__ndk1::basic_string<char, std::__ndk1::char_traits<char>, std::__ndk1::allocator<char> > const&>(std::__ndk1::basic_string<char, std::__ndk1::char_traits<char>, std::__ndk1::allocator<char> > const&)
PUBLIC 1d4c4 0 std::__ndk1::basic_string<char, std::__ndk1::char_traits<char>, std::__ndk1::allocator<char> >::__init_copy_ctor_external(char const*, unsigned long)
PUBLIC 1d544 0 std::__ndk1::__split_buffer<std::__ndk1::basic_string<char, std::__ndk1::char_traits<char>, std::__ndk1::allocator<char> >, std::__ndk1::allocator<std::__ndk1::basic_string<char, std::__ndk1::char_traits<char>, std::__ndk1::allocator<char> > >&>::~__split_buffer()
PUBLIC 1d5ac 0 std::__ndk1::vector<std::__ndk1::basic_string<char, std::__ndk1::char_traits<char>, std::__ndk1::allocator<char> >, std::__ndk1::allocator<std::__ndk1::basic_string<char, std::__ndk1::char_traits<char>, std::__ndk1::allocator<char> > > >::__throw_length_error[abi:ne180000]() const
PUBLIC 1d5c0 0 std::__ndk1::__throw_regex_error[abi:ne180000]<(std::__ndk1::regex_constants::error_type)2>()
PUBLIC 1d60c 0 std::__ndk1::regex_traits<char>::transform<std::__ndk1::__wrap_iter<char*> >(std::__ndk1::__wrap_iter<char*>, std::__ndk1::__wrap_iter<char*>) const
PUBLIC 1d7c0 0 std::__ndk1::__throw_regex_error[abi:ne180000]<(std::__ndk1::regex_constants::error_type)9>()
PUBLIC 1d80c 0 std::__ndk1::vector<std::__ndk1::pair<std::__ndk1::basic_string<char, std::__ndk1::char_traits<char>, std::__ndk1::allocator<char> >, std::__ndk1::basic_string<char, std::__ndk1::char_traits<char>, std::__ndk1::allocator<char> > >, std::__ndk1::allocator<std::__ndk1::pair<std::__ndk1::basic_string<char, std::__ndk1::char_traits<char>, std::__ndk1::allocator<char> >, std::__ndk1::basic_string<char, std::__ndk1::char_traits<char>, std::__ndk1::allocator<char> > > > >::__push_back_slow_path<std::__ndk1::pair<std::__ndk1::basic_string<char, std::__ndk1::char_traits<char>, std::__ndk1::allocator<char> >, std::__ndk1::basic_string<char, std::__ndk1::char_traits<char>, std::__ndk1::allocator<char> > > >(std::__ndk1::pair<std::__ndk1::basic_string<char, std::__ndk1::char_traits<char>, std::__ndk1::allocator<char> >, std::__ndk1::basic_string<char, std::__ndk1::char_traits<char>, std::__ndk1::allocator<char> > >&&)
PUBLIC 1d9b4 0 std::__ndk1::vector<std::__ndk1::pair<std::__ndk1::basic_string<char, std::__ndk1::char_traits<char>, std::__ndk1::allocator<char> >, std::__ndk1::basic_string<char, std::__ndk1::char_traits<char>, std::__ndk1::allocator<char> > >, std::__ndk1::allocator<std::__ndk1::pair<std::__ndk1::basic_string<char, std::__ndk1::char_traits<char>, std::__ndk1::allocator<char> >, std::__ndk1::basic_string<char, std::__ndk1::char_traits<char>, std::__ndk1::allocator<char> > > > >::__throw_length_error[abi:ne180000]() const
PUBLIC 1d9c8 0 std::__ndk1::vector<std::__ndk1::pair<char, char>, std::__ndk1::allocator<std::__ndk1::pair<char, char> > >::__throw_length_error[abi:ne180000]() const
PUBLIC 1d9dc 0 std::__ndk1::__begin_marked_subexpression<char>::~__begin_marked_subexpression()
PUBLIC 1da24 0 std::__ndk1::__begin_marked_subexpression<char>::__exec(std::__ndk1::__state<char>&) const
PUBLIC 1da54 0 std::__ndk1::__end_marked_subexpression<char>::~__end_marked_subexpression()
PUBLIC 1da9c 0 std::__ndk1::__end_marked_subexpression<char>::__exec(std::__ndk1::__state<char>&) const
PUBLIC 1dad4 0 std::__ndk1::basic_regex<char, std::__ndk1::regex_traits<char> >::__push_loop(unsigned long, unsigned long, std::__ndk1::__owns_one_state<char>*, unsigned long, unsigned long, bool)
PUBLIC 1dc14 0 std::__ndk1::__throw_regex_error[abi:ne180000]<(std::__ndk1::regex_constants::error_type)8>()
PUBLIC 1dc60 0 std::__ndk1::__throw_regex_error[abi:ne180000]<(std::__ndk1::regex_constants::error_type)7>()
PUBLIC 1dcac 0 std::__ndk1::__loop<char>::~__loop()
PUBLIC 1dd14 0 std::__ndk1::__loop<char>::__exec(std::__ndk1::__state<char>&) const
PUBLIC 1ded8 0 std::__ndk1::__loop<char>::__exec_split(bool, std::__ndk1::__state<char>&) const
PUBLIC 1df9c 0 std::__ndk1::__owns_two_states<char>::~__owns_two_states()
PUBLIC 1e004 0 std::__ndk1::__repeat_one_loop<char>::~__repeat_one_loop()
PUBLIC 1e008 0 std::__ndk1::__repeat_one_loop<char>::__exec(std::__ndk1::__state<char>&) const
PUBLIC 1e01c 0 std::__ndk1::__owns_two_states<char>::~__owns_two_states()
PUBLIC 1e088 0 std::__ndk1::__alternate<char>::~__alternate()
PUBLIC 1e0f0 0 std::__ndk1::__alternate<char>::__exec(std::__ndk1::__state<char>&) const
PUBLIC 1e0fc 0 std::__ndk1::__alternate<char>::__exec_split(bool, std::__ndk1::__state<char>&) const
PUBLIC 1e120 0 std::__ndk1::__node<char>::~__node()
PUBLIC 1e124 0 std::__ndk1::__empty_non_own_state<char>::~__empty_non_own_state()
PUBLIC 1e128 0 std::__ndk1::__empty_non_own_state<char>::__exec(std::__ndk1::__state<char>&) const
PUBLIC 1e13c 0 std::__ndk1::__throw_regex_error[abi:ne180000]<(std::__ndk1::regex_constants::error_type)15>()
PUBLIC 1e188 0 std::__ndk1::basic_regex<char, std::__ndk1::regex_traits<char> >::__parse_nondupl_RE<char const*>(char const*, char const*)
PUBLIC 1e484 0 std::__ndk1::basic_regex<char, std::__ndk1::regex_traits<char> >::__parse_RE_dupl_symbol<char const*>(char const*, char const*, std::__ndk1::__owns_one_state<char>*, unsigned int, unsigned int)
PUBLIC 1e6f4 0 std::__ndk1::__owns_one_state<char>::~__owns_one_state()
PUBLIC 1e720 0 std::__ndk1::__match_any<char>::~__match_any()
PUBLIC 1e768 0 std::__ndk1::__match_any<char>::__exec(std::__ndk1::__state<char>&) const
PUBLIC 1e7a8 0 std::__ndk1::basic_regex<char, std::__ndk1::regex_traits<char> >::__test_back_ref(char)
PUBLIC 1e808 0 std::__ndk1::basic_regex<char, std::__ndk1::regex_traits<char> >::__parse_ERE_expression<char const*>(char const*, char const*)
PUBLIC 1eb54 0 geode::modifier::ModifyDerive<MyLevelInfoLayer, LevelInfoLayer>::apply()
PUBLIC 1f59c 0 std::__ndk1::shared_ptr<geode::Hook>::~shared_ptr[abi:ne180000]()
PUBLIC 1f5ec 0 geode::impl::ResultData<geode::Hook*, std::__ndk1::basic_string<char, std::__ndk1::char_traits<char>, std::__ndk1::allocator<char> > >::~ResultData()
PUBLIC 1f660 0 geode::modifier::ModifyBase<geode::modifier::ModifyDerive<MyLevelInfoLayer, LevelInfoLayer> >::apply()
PUBLIC 1f664 0 _ZN5geode15UnwrapExceptionC2IRPNS_4HookEQsr4implE18IsStringStreamableIT_EEENS_4impl5OkTagEOS5_
PUBLIC 1f7b8 0 std::__ndk1::__throw_bad_variant_access[abi:ne180000]()
PUBLIC 1f7ec 0 std::__ndk1::basic_stringstream<char, std::__ndk1::char_traits<char>, std::__ndk1::allocator<char> >::basic_stringstream[abi:ne180000]()
PUBLIC m 1f918 0 std::__ndk1::basic_stringstream<char, std::__ndk1::char_traits<char>, std::__ndk1::allocator<char> >::~basic_stringstream()
PUBLIC 1f998 0 geode::UnwrapException::~UnwrapException()
PUBLIC 1f9bc 0 std::__ndk1::__put_character_sequence[abi:ne180000]<char, std::__ndk1::char_traits<char> >(std::__ndk1::basic_ostream<char, std::__ndk1::char_traits<char> >, std::__ndk1::basic_ostream const*, unsigned long)
PUBLIC 1fb60 0 std::__ndk1::__pad_and_output[abi:ne180000]<char, std::__ndk1::char_traits<char> >(std::__ndk1::char_traits<char>, std::__ndk1::ostreambuf_iterator const*, std::__ndk1::ostreambuf_iterator const, std::__ndk1::ostreambuf_iterator const, std::__ndk1::ios_base&, std::__ndk1::ostreambuf_iterator)
PUBLIC 1fd3c 0 std::__ndk1::basic_stringbuf<char, std::__ndk1::char_traits<char>, std::__ndk1::allocator<char> >::str[abi:ne180000]() &&
PUBLIC 1feb4 0 std::__ndk1::basic_stringbuf<char, std::__ndk1::char_traits<char>, std::__ndk1::allocator<char> >::__init_buf_ptrs[abi:ne180000]()
PUBLIC 1fffc 0 std::__ndk1::__variant_detail::__visitation::__base::__dispatcher<(unsigned long)0>::__dispatch[abi:ne180000]<std::__ndk1::__variant_detail::__dtor<std::__ndk1::__variant_detail::__traits<geode::Hook*, std::__ndk1::basic_string<char, std::__ndk1::char_traits<char>, std::__ndk1::allocator<char> > >, (std::__ndk1::__variant_detail::_Trait)1>::__destroy[abi:ne180000]()::{lambda(auto:1&)#1}, std::__ndk1::__variant_detail::__base<(std::__ndk1::__variant_detail::__traits<geode::Hook*, std::__ndk1::basic_string<char, std::__ndk1::char_traits<char>, std::__ndk1::allocator<char> > >)1, geode::Hook, std::__ndk1::allocator<char> >&>(std::__ndk1::__variant_detail::__dtor<std::__ndk1::__variant_detail::__traits<geode::Hook*, std::__ndk1::basic_string<char, std::__ndk1::char_traits<char>, std::__ndk1::allocator<char> > >, (std::__ndk1::__variant_detail::_Trait)1>, std::__ndk1::__variant_detail::__base<(std::__ndk1::__variant_detail::__traits<geode::Hook*, std::__ndk1::basic_string<char, std::__ndk1::char_traits<char>, std::__ndk1::allocator<char> > >)1, geode::Hook, std::__ndk1::allocator<char> >&)
PUBLIC 20000 0 std::__ndk1::__variant_detail::__visitation::__base::__dispatcher<(unsigned long)1>::__dispatch[abi:ne180000]<std::__ndk1::__variant_detail::__dtor<std::__ndk1::__variant_detail::__traits<geode::Hook*, std::__ndk1::basic_string<char, std::__ndk1::char_traits<char>, std::__ndk1::allocator<char> > >, (std::__ndk1::__variant_detail::_Trait)1>::__destroy[abi:ne180000]()::{lambda(auto:1&)#1}, std::__ndk1::__variant_detail::__base<(std::__ndk1::__variant_detail::__traits<geode::Hook*, std::__ndk1::basic_string<char, std::__ndk1::char_traits<char>, std::__ndk1::allocator<char> > >)1, geode::Hook, std::__ndk1::allocator<char> >&>(std::__ndk1::__variant_detail::__dtor<std::__ndk1::__variant_detail::__traits<geode::Hook*, std::__ndk1::basic_string<char, std::__ndk1::char_traits<char>, std::__ndk1::allocator<char> > >, (std::__ndk1::__variant_detail::_Trait)1>, std::__ndk1::__variant_detail::__base<(std::__ndk1::__variant_detail::__traits<geode::Hook*, std::__ndk1::basic_string<char, std::__ndk1::char_traits<char>, std::__ndk1::allocator<char> > >)1, geode::Hook, std::__ndk1::allocator<char> >&)
PUBLIC 20014 0 std::__ndk1::__tree<std::__ndk1::__value_type<std::__ndk1::basic_string<char, std::__ndk1::char_traits<char>, std::__ndk1::allocator<char> >, std::__ndk1::shared_ptr<geode::Hook> >, std::__ndk1::__map_value_compare<std::__ndk1::basic_string<char, std::__ndk1::char_traits<char>, std::__ndk1::allocator<char> >, std::__ndk1::__value_type<std::__ndk1::basic_string<char, std::__ndk1::char_traits<char>, std::__ndk1::allocator<char> >, std::__ndk1::shared_ptr<geode::Hook> >, std::__ndk1::less<std::__ndk1::basic_string<char, std::__ndk1::char_traits<char>, std::__ndk1::allocator<char> > >, true>, std::__ndk1::allocator<std::__ndk1::__value_type<std::__ndk1::basic_string<char, std::__ndk1::char_traits<char>, std::__ndk1::allocator<char> >, std::__ndk1::shared_ptr<geode::Hook> > > >::find<std::__ndk1::basic_string<char, std::__ndk1::char_traits<char>, std::__ndk1::allocator<char> > >(std::__ndk1::basic_string<char, std::__ndk1::char_traits<char>, std::__ndk1::allocator<char> > const&)
PUBLIC 20134 0 std::__ndk1::__tree<std::__ndk1::__value_type<std::__ndk1::basic_string<char, std::__ndk1::char_traits<char>, std::__ndk1::allocator<char> >, std::__ndk1::shared_ptr<geode::Hook> >, std::__ndk1::__map_value_compare<std::__ndk1::basic_string<char, std::__ndk1::char_traits<char>, std::__ndk1::allocator<char> >, std::__ndk1::__value_type<std::__ndk1::basic_string<char, std::__ndk1::char_traits<char>, std::__ndk1::allocator<char> >, std::__ndk1::shared_ptr<geode::Hook> >, std::__ndk1::less<std::__ndk1::basic_string<char, std::__ndk1::char_traits<char>, std::__ndk1::allocator<char> > >, true>, std::__ndk1::allocator<std::__ndk1::__value_type<std::__ndk1::basic_string<char, std::__ndk1::char_traits<char>, std::__ndk1::allocator<char> >, std::__ndk1::shared_ptr<geode::Hook> > > >::erase(std::__ndk1::__tree_const_iterator<std::__ndk1::__value_type<std::__ndk1::basic_string<char, std::__ndk1::char_traits<char>, std::__ndk1::allocator<char> >, std::__ndk1::shared_ptr<geode::Hook> >, std::__ndk1::__tree_node<std::__ndk1::__value_type<std::__ndk1::basic_string<char, std::__ndk1::char_traits<char>, std::__ndk1::allocator<char> >, std::__ndk1::shared_ptr<geode::Hook> >, void*>*, long>)
PUBLIC 205d8 0 std::__ndk1::__tree<std::__ndk1::__value_type<std::__ndk1::basic_string<char, std::__ndk1::char_traits<char>, std::__ndk1::allocator<char> >, std::__ndk1::shared_ptr<geode::Hook> >, std::__ndk1::__map_value_compare<std::__ndk1::basic_string<char, std::__ndk1::char_traits<char>, std::__ndk1::allocator<char> >, std::__ndk1::__value_type<std::__ndk1::basic_string<char, std::__ndk1::char_traits<char>, std::__ndk1::allocator<char> >, std::__ndk1::shared_ptr<geode::Hook> >, std::__ndk1::less<std::__ndk1::basic_string<char, std::__ndk1::char_traits<char>, std::__ndk1::allocator<char> > >, true>, std::__ndk1::allocator<std::__ndk1::__value_type<std::__ndk1::basic_string<char, std::__ndk1::char_traits<char>, std::__ndk1::allocator<char> >, std::__ndk1::shared_ptr<geode::Hook> > > >::destroy(std::__ndk1::__tree_node<std::__ndk1::__value_type<std::__ndk1::basic_string<char, std::__ndk1::char_traits<char>, std::__ndk1::allocator<char> >, std::__ndk1::shared_ptr<geode::Hook> >, void*>*)
PUBLIC 2065c 0 geode::modifier::AsStaticFunction_levelDownloadFinished<MyLevelInfoLayer, void (MyLevelInfoLayer::*)(GJGameLevel*)>::Impl<void (MyLevelInfoLayer::*)(GJGameLevel*)>::function(MyLevelInfoLayer*, GJGameLevel*)
PUBLIC 20a3c 0 geode::modifier::AsStaticFunction_init<MyLevelInfoLayer, bool (MyLevelInfoLayer::*)(GJGameLevel*, bool)>::Impl<bool (MyLevelInfoLayer::*)(GJGameLevel*, bool)>::function(MyLevelInfoLayer*, GJGameLevel*, bool)
PUBLIC 21754 0 geode::Hook::create<void (*)(MyLevelInfoLayer*, cocos2d::CCObject*)>(void*, void (*)(MyLevelInfoLayer*, cocos2d::CCObject*), std::__ndk1::basic_string<char, std::__ndk1::char_traits<char>, std::__ndk1::allocator<char> > const&, tulip::hook::TulipConvention, tulip::hook::HookMetadata const&)
PUBLIC 218d8 0 geode::modifier::AsStaticFunction_onPlay<MyLevelInfoLayer, void (MyLevelInfoLayer::*)(cocos2d::CCObject*)>::Impl<void (MyLevelInfoLayer::*)(cocos2d::CCObject*)>::function(MyLevelInfoLayer*, cocos2d::CCObject*)
PUBLIC 21914 0 geode::modifier::AsStaticFunction_onUpdate<MyLevelInfoLayer, void (MyLevelInfoLayer::*)(cocos2d::CCObject*)>::Impl<void (MyLevelInfoLayer::*)(cocos2d::CCObject*)>::function(MyLevelInfoLayer*, cocos2d::CCObject*)
PUBLIC 21950 0 geode::addresser::Addresser::addressOfVirtual<void, LevelInfoLayer, GJGameLevel*>(void (LevelInfoLayer::*)(GJGameLevel*))
PUBLIC 219f8 0 LevelInfoLayer::LevelInfoLayer(geode::ZeroConstructorType)
PUBLIC 21aac 0 std::__ndk1::shared_ptr<tulip::hook::CallingConvention>::~shared_ptr[abi:ne180000]()
PUBLIC 21afc 0 tulip::hook::HandlerMetadata::~HandlerMetadata()
PUBLIC 21b60 0 std::__ndk1::vector<tulip::hook::AbstractType, std::__ndk1::allocator<tulip::hook::AbstractType> >::__throw_length_error[abi:ne180000]() const
PUBLIC 21b74 0 MyLevelInfoLayer::displayTags(GJGameLevel const*)
PUBLIC 22434 0 geode::modifier::FieldIntermediate<MyLevelInfoLayer, LevelInfoLayer>::self()
PUBLIC 22a88 0 geode::modifier::FieldIntermediate<MyLevelInfoLayer, LevelInfoLayer>::fieldDestructor(void*)
PUBLIC 22aa0 0 std::__ndk1::vector<void*, std::__ndk1::allocator<void*> >::__throw_length_error[abi:ne180000]() const
PUBLIC 22ab4 0 std::__ndk1::vector<std::__ndk1::function<void (void*)>, std::__ndk1::allocator<std::__ndk1::function<void (void*)> > >::__throw_length_error[abi:ne180000]() const
PUBLIC 22ac8 0 std::__ndk1::vector<void*, std::__ndk1::allocator<void*> >::__throw_out_of_range[abi:ne180000]() const
PUBLIC 22ad4 0 std::__ndk1::__throw_out_of_range[abi:ne180000](char const*)
PUBLIC 22b24 0 std::out_of_range::out_of_range[abi:ne180000](char const*)
PUBLIC 22b54 0 std::__ndk1::vector<std::__ndk1::function<void (void*)>, std::__ndk1::allocator<std::__ndk1::function<void (void*)> > >::__throw_out_of_range[abi:ne180000]() const
PUBLIC 22b60 0 std::__ndk1::__function::__base<void (void*)>::~__base()
PUBLIC 22b64 0 std::__ndk1::__function::__func<void (*)(void*), std::__ndk1::allocator<void (*)(void*)>, void (void*)>::~__func()
PUBLIC 22b68 0 std::__ndk1::__function::__func<void (*)(void*), std::__ndk1::allocator<void (*)(void*)>, void (void*)>::__clone() const
PUBLIC 22ba0 0 std::__ndk1::__function::__func<void (*)(void*), std::__ndk1::allocator<void (*)(void*)>, void (void*)>::__clone(std::__ndk1::__function::__base<void (void*)>*) const
PUBLIC 22bb8 0 std::__ndk1::__function::__func<void (*)(void*), std::__ndk1::allocator<void (*)(void*)>, void (void*)>::destroy()
PUBLIC 22bbc 0 std::__ndk1::__function::__func<void (*)(void*), std::__ndk1::allocator<void (*)(void*)>, void (void*)>::destroy_deallocate()
PUBLIC 22bc0 0 std::__ndk1::__function::__func<void (*)(void*), std::__ndk1::allocator<void (*)(void*)>, void (void*)>::operator()(void*&&)
PUBLIC 22bd0 0 std::__ndk1::__function::__func<void (*)(void*), std::__ndk1::allocator<void (*)(void*)>, void (void*)>::target(std::type_info const&) const
PUBLIC 22bec 0 std::__ndk1::__function::__func<void (*)(void*), std::__ndk1::allocator<void (*)(void*)>, void (void*)>::target_type() const
PUBLIC 22bf8 0 MyLevelInfoLayer::displayTagIf(cocos2d::CCNode*, bool)
PUBLIC 22d18 0 geode::Mod::getSettingValue<bool>(std::__ndk1::basic_string_view<char, std::__ndk1::char_traits<char> >) const
PUBLIC 22e48 0 geode::Mod::getSettingValue<long>(std::__ndk1::basic_string_view<char, std::__ndk1::char_traits<char> >) const
PUBLIC 22f5c 0 MyLevelInfoLayer::frequencyOfRegexPatternInString(std::__ndk1::basic_regex<char, std::__ndk1::regex_traits<char> > const&, std::__ndk1::basic_string<char, std::__ndk1::char_traits<char>, std::__ndk1::allocator<char> > const&)
PUBLIC 2338c 0 geode::cast::traverseTypeinfoFor(void*, geode::cast::ClassTypeinfoType const*, char const*)
PUBLIC 23484 0 std::__ndk1::basic_regex<char, std::__ndk1::regex_traits<char> >::__search<std::__ndk1::allocator<std::__ndk1::sub_match<char const*> > >(char const*, char const*, std::__ndk1::match_results<char const*, std::__ndk1::allocator<std::__ndk1::sub_match<char const*> > >&, std::__ndk1::regex_constants::match_flag_type) const
PUBLIC 236f0 0 std::__ndk1::match_results<std::__ndk1::__wrap_iter<char const*>, std::__ndk1::allocator<std::__ndk1::sub_match<std::__ndk1::__wrap_iter<char const*> > > >::__assign[abi:ne180000]<char const*, std::__ndk1::allocator<std::__ndk1::sub_match<char const*> > >(std::__ndk1::__wrap_iter<char const*>, std::__ndk1::__wrap_iter<char const*>, std::__ndk1::match_results<char const*, std::__ndk1::allocator<std::__ndk1::sub_match<char const*> > > const&, bool)
PUBLIC 23a08 0 std::__ndk1::basic_regex<char, std::__ndk1::regex_traits<char> >::__match_at_start_posix_nosubs<std::__ndk1::allocator<std::__ndk1::sub_match<char const*> > >(char const*, char const*, std::__ndk1::match_results<char const*, std::__ndk1::allocator<std::__ndk1::sub_match<char const*> > >&, std::__ndk1::regex_constants::match_flag_type, bool) const
PUBLIC 248b0 0 std::__ndk1::basic_regex<char, std::__ndk1::regex_traits<char> >::__match_at_start_posix_subs<std::__ndk1::allocator<std::__ndk1::sub_match<char const*> > >(char const*, char const*, std::__ndk1::match_results<char const*, std::__ndk1::allocator<std::__ndk1::sub_match<char const*> > >&, std::__ndk1::regex_constants::match_flag_type, bool) const
PUBLIC 252b0 0 std::__ndk1::deque<std::__ndk1::__state<char>, std::__ndk1::allocator<std::__ndk1::__state<char> > >::~deque[abi:ne180000]()
PUBLIC 25478 0 std::__ndk1::deque<std::__ndk1::__state<char>, std::__ndk1::allocator<std::__ndk1::__state<char> > >::__add_back_capacity()
PUBLIC 25a68 0 std::__ndk1::__split_buffer<std::__ndk1::__state<char>*, std::__ndk1::allocator<std::__ndk1::__state<char>*> >::push_back(std::__ndk1::__state<char>*&&)
PUBLIC 25bf0 0 std::__ndk1::__split_buffer<std::__ndk1::__state<char>*, std::__ndk1::allocator<std::__ndk1::__state<char>*> >::push_front(std::__ndk1::__state<char>*&&)
PUBLIC 25d7c 0 std::__ndk1::__split_buffer<std::__ndk1::__state<char>*, std::__ndk1::allocator<std::__ndk1::__state<char>*> >::push_front(std::__ndk1::__state<char>* const&)
PUBLIC 25f08 0 std::__ndk1::vector<std::__ndk1::sub_match<std::__ndk1::__wrap_iter<char const*> >, std::__ndk1::allocator<std::__ndk1::sub_match<std::__ndk1::__wrap_iter<char const*> > > >::__throw_length_error[abi:ne180000]() const
PUBLIC 25f1c 0 std::__ndk1::__tree<std::__ndk1::__value_type<std::__ndk1::basic_string<char, std::__ndk1::char_traits<char>, std::__ndk1::allocator<char> >, std::__ndk1::shared_ptr<geode::Hook> >, std::__ndk1::__map_value_compare<std::__ndk1::basic_string<char, std::__ndk1::char_traits<char>, std::__ndk1::allocator<char> >, std::__ndk1::__value_type<std::__ndk1::basic_string<char, std::__ndk1::char_traits<char>, std::__ndk1::allocator<char> >, std::__ndk1::shared_ptr<geode::Hook> >, std::__ndk1::less<std::__ndk1::basic_string<char, std::__ndk1::char_traits<char>, std::__ndk1::allocator<char> > >, true>, std::__ndk1::allocator<std::__ndk1::__value_type<std::__ndk1::basic_string<char, std::__ndk1::char_traits<char>, std::__ndk1::allocator<char> >, std::__ndk1::shared_ptr<geode::Hook> > > >::__emplace_unique_key_args<std::__ndk1::basic_string<char, std::__ndk1::char_traits<char>, std::__ndk1::allocator<char> >, std::__ndk1::piecewise_construct_t const&, std::__ndk1::tuple<std::__ndk1::basic_string<char, std::__ndk1::char_traits<char>, std::__ndk1::allocator<char> >&&>, std::__ndk1::tuple<> >(std::__ndk1::basic_string<char, std::__ndk1::char_traits<char>, std::__ndk1::allocator<char> > const&, std::__ndk1::piecewise_construct_t const&, std::__ndk1::tuple<std::__ndk1::basic_string<char, std::__ndk1::char_traits<char>, std::__ndk1::allocator<char> >&&>, std::__ndk1::tuple<>)
PUBLIC 26084 0 std::__ndk1::__tree_balance_after_insert[abi:ne180000]<std::__ndk1::__tree_node_base<void*>*>(std::__ndk1::__tree_node_base<void*>*, std::__ndk1::__tree_node_base<void*>*)
PUBLIC 26234 0 MyLevelInfoLayer::createTagSprite(std::__ndk1::basic_string<char, std::__ndk1::char_traits<char>, std::__ndk1::allocator<char> >&&, geode::CircleBaseColor)
PUBLIC 2633c 0 MyLevelInfoLayer::pushBackAddChild(cocos2d::CCNode*, std::__ndk1::basic_string<char, std::__ndk1::char_traits<char>, std::__ndk1::allocator<char> >&&)
PUBLIC 26514 0 MyLevelInfoLayer::pushBackMakeInvis(cocos2d::CCNode*)
PUBLIC 266c0 0 std::__ndk1::vector<cocos2d::CCNode*, std::__ndk1::allocator<cocos2d::CCNode*> >::__throw_length_error[abi:ne180000]() const
PUBLIC 266d4 0 geode::modifier::ModifyDerive<MyFLAlertLayer, FLAlertLayer>::apply()
PUBLIC 27378 0 geode::modifier::ModifyBase<geode::modifier::ModifyDerive<MyFLAlertLayer, FLAlertLayer> >::apply()
PUBLIC 2737c 0 _ZN5geode15UnwrapExceptionC2IRNSt6__ndk112basic_stringIcNS2_11char_traitsIcEENS2_9allocatorIcEEEEQsr4implE18IsStringStreamableIT_EEENS_4impl6ErrTagEOSA_
PUBLIC 274e4 0 std::__ndk1::__variant_detail::__visitation::__base::__dispatcher<(unsigned long)0>::__dispatch[abi:ne180000]<std::__ndk1::__variant_detail::__dtor<std::__ndk1::__variant_detail::__traits<std::__ndk1::monostate, std::__ndk1::basic_string<char, std::__ndk1::char_traits<char>, std::__ndk1::allocator<char> > >, (std::__ndk1::__variant_detail::_Trait)1>::__destroy[abi:ne180000]()::{lambda(auto:1&)#1}, std::__ndk1::__variant_detail::__base<(std::__ndk1::__variant_detail::__traits<std::__ndk1::monostate, std::__ndk1::basic_string<char, std::__ndk1::char_traits<char>, std::__ndk1::allocator<char> > >)1, std::__ndk1::__variant_detail::__traits, std::__ndk1::allocator<char> >&>(std::__ndk1::__variant_detail::__dtor<std::__ndk1::__variant_detail::__traits<std::__ndk1::monostate, std::__ndk1::basic_string<char, std::__ndk1::char_traits<char>, std::__ndk1::allocator<char> > >, (std::__ndk1::__variant_detail::_Trait)1>, std::__ndk1::__variant_detail::__base<(std::__ndk1::__variant_detail::__traits<std::__ndk1::monostate, std::__ndk1::basic_string<char, std::__ndk1::char_traits<char>, std::__ndk1::allocator<char> > >)1, std::__ndk1::__variant_detail::__traits, std::__ndk1::allocator<char> >&)
PUBLIC 274e8 0 std::__ndk1::__variant_detail::__visitation::__base::__dispatcher<(unsigned long)1>::__dispatch[abi:ne180000]<std::__ndk1::__variant_detail::__dtor<std::__ndk1::__variant_detail::__traits<std::__ndk1::monostate, std::__ndk1::basic_string<char, std::__ndk1::char_traits<char>, std::__ndk1::allocator<char> > >, (std::__ndk1::__variant_detail::_Trait)1>::__destroy[abi:ne180000]()::{lambda(auto:1&)#1}, std::__ndk1::__variant_detail::__base<(std::__ndk1::__variant_detail::__traits<std::__ndk1::monostate, std::__ndk1::basic_string<char, std::__ndk1::char_traits<char>, std::__ndk1::allocator<char> > >)1, std::__ndk1::__variant_detail::__traits, std::__ndk1::allocator<char> >&>(std::__ndk1::__variant_detail::__dtor<std::__ndk1::__variant_detail::__traits<std::__ndk1::monostate, std::__ndk1::basic_string<char, std::__ndk1::char_traits<char>, std::__ndk1::allocator<char> > >, (std::__ndk1::__variant_detail::_Trait)1>, std::__ndk1::__variant_detail::__base<(std::__ndk1::__variant_detail::__traits<std::__ndk1::monostate, std::__ndk1::basic_string<char, std::__ndk1::char_traits<char>, std::__ndk1::allocator<char> > >)1, std::__ndk1::__variant_detail::__traits, std::__ndk1::allocator<char> >&)
PUBLIC 274fc 0 geode::modifier::AsStaticFunction_init<MyFLAlertLayer, bool (MyFLAlertLayer::*)(FLAlertLayerProtocol*, char const*, gd::string, char const*, char const*, float, bool, float, float)>::Impl<bool (MyFLAlertLayer::*)(FLAlertLayerProtocol*, char const*, gd::string, char const*, char const*, float, bool, float, float)>::function(MyFLAlertLayer*, FLAlertLayerProtocol*, char const*, gd::string, char const*, char const*, float, bool, float, float)
PUBLIC 27b98 0 _GLOBAL__sub_I_main.cpp
PUBLIC m 27ca0 0 geodeImplicitEntry
PUBLIC 27cdc 0 wrapFunction(unsigned long, tulip::hook::WrapperMetadata const&)
PUBLIC 27e10 0 geode::impl::ResultData<void*, std::__ndk1::basic_string<char, std::__ndk1::char_traits<char>, std::__ndk1::allocator<char> > >::unwrapErr() &
PUBLIC 27e88 0 geode::impl::ResultData<void*, std::__ndk1::basic_string<char, std::__ndk1::char_traits<char>, std::__ndk1::allocator<char> > >::~ResultData()
PUBLIC 27efc 0 tulip::hook::WrapperMetadata::~WrapperMetadata()
PUBLIC 27f60 0 tulip::hook::AbstractFunction::from<gd::string, gd::string const&, bool, int>(gd::string (*)(gd::string const&, bool, int))
PUBLIC 28064 0 cocos2d::ZipUtils::decompressString(gd::string const&, bool, int)
PUBLIC 281cc 0 FLAlertLayer::init(FLAlertLayerProtocol*, char const*, gd::string, char const*, char const*, float, bool, float, float)
PUBLIC 283b4 0 tulip::hook::AbstractFunction::from<bool, FLAlertLayer*, FLAlertLayerProtocol*, char const*, gd::string, char const*, char const*, float, bool, float, float>(bool (*)(FLAlertLayer*, FLAlertLayerProtocol*, char const*, gd::string, char const*, char const*, float, bool, float, float))
PUBLIC 28cac 0 _ZN5geode15UnwrapExceptionC2IRPvQsr4implE18IsStringStreamableIT_EEENS_4impl5OkTagEOS4_
PUBLIC 28e00 0 std::__ndk1::__variant_detail::__visitation::__base::__dispatcher<(unsigned long)0>::__dispatch[abi:ne180000]<std::__ndk1::__variant_detail::__dtor<std::__ndk1::__variant_detail::__traits<void*, std::__ndk1::basic_string<char, std::__ndk1::char_traits<char>, std::__ndk1::allocator<char> > >, (std::__ndk1::__variant_detail::_Trait)1>::__destroy[abi:ne180000]()::{lambda(auto:1&)#1}, std::__ndk1::__variant_detail::__base<(std::__ndk1::__variant_detail::__traits<void*, std::__ndk1::basic_string<char, std::__ndk1::char_traits<char>, std::__ndk1::allocator<char> > >)1, std::__ndk1::__variant_detail::__traits, std::__ndk1::allocator<char> >&>(std::__ndk1::__variant_detail::__dtor<std::__ndk1::__variant_detail::__traits<void*, std::__ndk1::basic_string<char, std::__ndk1::char_traits<char>, std::__ndk1::allocator<char> > >, (std::__ndk1::__variant_detail::_Trait)1>, std::__ndk1::__variant_detail::__base<(std::__ndk1::__variant_detail::__traits<void*, std::__ndk1::basic_string<char, std::__ndk1::char_traits<char>, std::__ndk1::allocator<char> > >)1, std::__ndk1::__variant_detail::__traits, std::__ndk1::allocator<char> >&)
PUBLIC 28e04 0 std::__ndk1::__variant_detail::__visitation::__base::__dispatcher<(unsigned long)1>::__dispatch[abi:ne180000]<std::__ndk1::__variant_detail::__dtor<std::__ndk1::__variant_detail::__traits<void*, std::__ndk1::basic_string<char, std::__ndk1::char_traits<char>, std::__ndk1::allocator<char> > >, (std::__ndk1::__variant_detail::_Trait)1>::__destroy[abi:ne180000]()::{lambda(auto:1&)#1}, std::__ndk1::__variant_detail::__base<(std::__ndk1::__variant_detail::__traits<void*, std::__ndk1::basic_string<char, std::__ndk1::char_traits<char>, std::__ndk1::allocator<char> > >)1, std::__ndk1::__variant_detail::__traits, std::__ndk1::allocator<char> >&>(std::__ndk1::__variant_detail::__dtor<std::__ndk1::__variant_detail::__traits<void*, std::__ndk1::basic_string<char, std::__ndk1::char_traits<char>, std::__ndk1::allocator<char> > >, (std::__ndk1::__variant_detail::_Trait)1>, std::__ndk1::__variant_detail::__base<(std::__ndk1::__variant_detail::__traits<void*, std::__ndk1::basic_string<char, std::__ndk1::char_traits<char>, std::__ndk1::allocator<char> > >)1, std::__ndk1::__variant_detail::__traits, std::__ndk1::allocator<char> >&)
PUBLIC 28e18 0 __udivti3
PUBLIC 28e24 0 __udivmodti4
PUBLIC m 29070 0 __eqtf2
PUBLIC 29110 0 __unordtf2
PUBLIC 29148 0 fmt::v11::detail::write_loc(fmt::v11::basic_appender<char>, fmt::v11::loc_value, fmt::v11::format_specs const&, fmt::v11::detail::locale_ref)
PUBLIC 293dc 0 fmt::v11::format_facet<std::__ndk1::locale>::~format_facet()
PUBLIC 29458 0 fmt::v11::report_error(char const*)
PUBLIC 294a8 0 fmt::v11::format_error::runtime_error(char const*)
PUBLIC 294d4 0 fmt::v11::format_facet<std::__ndk1::locale>::do_put(fmt::v11::basic_appender<char>, fmt::v11::loc_value, fmt::v11::format_specs const&) const
PUBLIC 29c94 0 fmt::v11::detail::loc_writer<char>::~loc_writer()
PUBLIC 29cf8 0 fmt::v11::detail::vformat_to<char>(fmt::v11::detail::buffer<char>&, fmt::v11::basic_string_view<char>, fmt::v11::detail::vformat_args<char>::type, fmt::v11::detail::locale_ref)
PUBLIC 2a268 0 fmt::v11::detail::is_printable(unsigned int)
PUBLIC 2a490 0 fmt::v11::detail::dragonbox::to_decimal<float>(float)
PUBLIC 2a76c 0 fmt::v11::detail::dragonbox::to_decimal<double>(double)
PUBLIC 2aca8 0 fmt::v11::basic_memory_buffer<char, (unsigned long)500, std::__ndk1::allocator<char> >::grow(fmt::v11::detail::buffer<char>&, unsigned long)
PUBLIC 2ad20 0 fmt::v11::format_facet<std::__ndk1::locale>::~format_facet()
PUBLIC 2adac 0 fmt::v11::format_error::~format_error()
PUBLIC 2add0 0 fmt::v11::detail::copy_noinline<char, char const*, fmt::v11::basic_appender<char> >(char const*, char const*, fmt::v11::basic_appender<char>)
PUBLIC 2af20 0 fmt::v11::detail::default_arg_formatter<char>::operator()<bool>(bool)
PUBLIC 2af88 0 fmt::v11::detail::default_arg_formatter<char>::operator()<char>(char)
PUBLIC 2b018 0 fmt::v11::detail::default_arg_formatter<char>::operator()<float>(float)
PUBLIC 2b104 0 fmt::v11::detail::default_arg_formatter<char>::operator()<double>(double)
PUBLIC 2b1f0 0 fmt::v11::detail::default_arg_formatter<char>::operator()<char const*>(char const*)
PUBLIC 2b238 0 fmt::v11::detail::default_arg_formatter<char>::operator()<void const*>(void const*)
PUBLIC 2b2d0 0 _ZN3fmt3v116detail5writeIcNS0_14basic_appenderIcEEiTnNSt6__ndk19enable_ifIXaaaasr11is_integralIT1_EE5valuentsr3std7is_sameIS7_bEE5valuentsr3std7is_sameIS7_T_EE5valueEiE4typeELi0EEET0_SB_S7_
PUBLIC 2b530 0 fmt::v11::detail::copy_noinline<char, char*, fmt::v11::basic_appender<char> >(char*, char*, fmt::v11::basic_appender<char>)
PUBLIC 2b680 0 _ZN3fmt3v116detail5writeIcNS0_14basic_appenderIcEEjTnNSt6__ndk19enable_ifIXaaaasr11is_integralIT1_EE5valuentsr3std7is_sameIS7_bEE5valuentsr3std7is_sameIS7_T_EE5valueEiE4typeELi0EEET0_SB_S7_
PUBLIC 2b860 0 _ZN3fmt3v116detail5writeIcNS0_14basic_appenderIcEExTnNSt6__ndk19enable_ifIXaaaasr11is_integralIT1_EE5valuentsr3std7is_sameIS7_bEE5valuentsr3std7is_sameIS7_T_EE5valueEiE4typeELi0EEET0_SB_S7_
PUBLIC 2bae4 0 _ZN3fmt3v116detail5writeIcNS0_14basic_appenderIcEEyTnNSt6__ndk19enable_ifIXaaaasr11is_integralIT1_EE5valuentsr3std7is_sameIS7_bEE5valuentsr3std7is_sameIS7_T_EE5valueEiE4typeELi0EEET0_SB_S7_
PUBLIC 2bcec 0 _ZN3fmt3v116detail5writeIcNS0_14basic_appenderIcEEnTnNSt6__ndk19enable_ifIXaaaasr11is_integralIT1_EE5valuentsr3std7is_sameIS7_bEE5valuentsr3std7is_sameIS7_T_EE5valueEiE4typeELi0EEET0_SB_S7_
PUBLIC 2c04c 0 _ZN3fmt3v116detail5writeIcNS0_14basic_appenderIcEEoTnNSt6__ndk19enable_ifIXaaaasr11is_integralIT1_EE5valuentsr3std7is_sameIS7_bEE5valuentsr3std7is_sameIS7_T_EE5valueEiE4typeELi0EEET0_SB_S7_
PUBLIC 2c360 0 _ZN3fmt3v116detail5writeIcNS0_14basic_appenderIcEEbTnNSt6__ndk19enable_ifIXsr3std7is_sameIT1_bEE5valueEiE4typeELi0EEET0_SA_S7_RKNS0_12format_specsENS1_10locale_refE
PUBLIC 2c5f0 0 fmt::v11::detail::write_int_noinline<char, fmt::v11::basic_appender<char>, unsigned int>(fmt::v11::basic_appender<char>, fmt::v11::detail::write_int_arg<unsigned int>, fmt::v11::format_specs const&, fmt::v11::detail::locale_ref)
PUBLIC 2d3cc 0 fmt::v11::detail::fill<char, fmt::v11::basic_appender<char> >(fmt::v11::basic_appender<char>, unsigned long, fmt::v11::detail::fill_t const&)
PUBLIC 2d59c 0 fmt::v11::detail::write_padded<char, (fmt::v11::align::type)1, fmt::v11::basic_appender<char>, fmt::v11::detail::write_char<char, fmt::v11::basic_appender<char> >(fmt::v11::basic_appender<char>, char, fmt::v11::format_specs const&)::{lambda(fmt::v11::basic_appender<char>&)#1}>(fmt::v11::basic_appender<char>, fmt::v11::format_specs const&, unsigned long, unsigned long, fmt::v11::detail::write_char<char, fmt::v11::basic_appender<char> >(fmt::v11::basic_appender<char>, char, fmt::v11::format_specs const&)::{lambda(fmt::v11::basic_appender<char>&)#1})
PUBLIC 2d7d8 0 fmt::v11::detail::write_escaped_cp<fmt::v11::basic_appender<char>, char>(fmt::v11::basic_appender<char>, fmt::v11::detail::find_escape_result<char> const&)
PUBLIC 2dae4 0 fmt::v11::detail::write_codepoint<(unsigned long)2, char, fmt::v11::basic_appender<char> >(fmt::v11::basic_appender<char>, char, unsigned int)
PUBLIC 2dc5c 0 fmt::v11::detail::write_codepoint<(unsigned long)8, char, fmt::v11::basic_appender<char> >(fmt::v11::basic_appender<char>, char, unsigned int)
PUBLIC 2ddd4 0 fmt::v11::detail::write_padded<char, (fmt::v11::align::type)1, fmt::v11::basic_appender<char>, fmt::v11::detail::write_nonfinite<char, fmt::v11::basic_appender<char> >(fmt::v11::basic_appender<char>, bool, fmt::v11::format_specs, fmt::v11::sign::type)::{lambda(fmt::v11::basic_appender<char>&)#1}>(fmt::v11::basic_appender<char>, fmt::v11::format_specs const&, unsigned long, unsigned long, fmt::v11::detail::write_nonfinite<char, fmt::v11::basic_appender<char> >(fmt::v11::basic_appender<char>, bool, fmt::v11::format_specs, fmt::v11::sign::type)::{lambda(fmt::v11::basic_appender<char>&)#1})
PUBLIC 2e014 0 fmt::v11::detail::do_write_float<char, fmt::v11::basic_appender<char>, fmt::v11::detail::dragonbox::decimal_fp<float>, fmt::v11::detail::digit_grouping<char> >(fmt::v11::basic_appender<char>, fmt::v11::detail::dragonbox::decimal_fp<float> const&, fmt::v11::format_specs const&, fmt::v11::detail::float_specs, fmt::v11::detail::locale_ref)
PUBLIC 2ec88 0 fmt::v11::detail::do_write_float<char, fmt::v11::basic_appender<char>, fmt::v11::detail::dragonbox::decimal_fp<float>, fmt::v11::detail::digit_grouping<char> >(fmt::v11::basic_appender<char>, fmt::v11::detail::dragonbox::decimal_fp<float> const&, fmt::v11::format_specs const&, fmt::v11::detail::float_specs, fmt::v11::detail::locale_ref)::{lambda(fmt::v11::basic_appender<char>(fmt::v11::basic_appender<char>))#1}::operator() const
PUBLIC 2eddc 0 fmt::v11::detail::digit_grouping<char>::digit_grouping(fmt::v11::detail::locale_ref, bool)
PUBLIC 2f048 0 fmt::v11::detail::digit_grouping<char>::~digit_grouping()
PUBLIC 2f08c 0 fmt::v11::detail::write_exponent<char, fmt::v11::basic_appender<char> >(int, fmt::v11::basic_appender<char>)
PUBLIC 2f25c 0 _ZN3fmt3v116detail17write_significandIcjTnNSt6__ndk19enable_ifIXsr3std11is_integralIT0_EE5valueEiE4typeELi0EEEPT_S9_S5_iiS8_
PUBLIC 2f3d8 0 fmt::v11::detail::digit_grouping<char>::apply<fmt::v11::basic_appender<char>, char>(fmt::v11::basic_appender<char>, fmt::v11::basic_string_view<char>) const
PUBLIC 2f790 0 fmt::v11::basic_memory_buffer<int, (unsigned long)500, std::__ndk1::allocator<int> >::grow(fmt::v11::detail::buffer<int>&, unsigned long)
PUBLIC 2f830 0 fmt::v11::detail::do_write_float<char, fmt::v11::basic_appender<char>, fmt::v11::detail::dragonbox::decimal_fp<double>, fmt::v11::detail::digit_grouping<char> >(fmt::v11::basic_appender<char>, fmt::v11::detail::dragonbox::decimal_fp<double> const&, fmt::v11::format_specs const&, fmt::v11::detail::float_specs, fmt::v11::detail::locale_ref)
PUBLIC 304e4 0 fmt::v11::detail::do_write_float<char, fmt::v11::basic_appender<char>, fmt::v11::detail::dragonbox::decimal_fp<double>, fmt::v11::detail::digit_grouping<char> >(fmt::v11::basic_appender<char>, fmt::v11::detail::dragonbox::decimal_fp<double> const&, fmt::v11::format_specs const&, fmt::v11::detail::float_specs, fmt::v11::detail::locale_ref)::{lambda(fmt::v11::basic_appender<char>(fmt::v11::basic_appender<char>))#1}::operator() const
PUBLIC 3063c 0 _ZN3fmt3v116detail17write_significandIcmTnNSt6__ndk19enable_ifIXsr3std11is_integralIT0_EE5valueEiE4typeELi0EEEPT_S9_S5_iiS8_
PUBLIC 307cc 0 fmt::v11::detail::write_float<char, fmt::v11::basic_appender<char>, long double>(fmt::v11::basic_appender<char>, long double, fmt::v11::format_specs, fmt::v11::detail::locale_ref)
PUBLIC 312c8 0 fmt::v11::detail::write_padded<char, (fmt::v11::align::type)2, fmt::v11::basic_appender<char>, fmt::v11::detail::write_bytes<char, (fmt::v11::align::type)2, fmt::v11::basic_appender<char> >(fmt::v11::basic_appender<char>, fmt::v11::basic_string_view<char>, fmt::v11::format_specs const&)::{lambda(fmt::v11::basic_appender<char>&)#1}>(fmt::v11::basic_appender<char>, fmt::v11::format_specs const&, unsigned long, unsigned long, fmt::v11::detail::write_bytes<char, (fmt::v11::align::type)2, fmt::v11::basic_appender<char> >(fmt::v11::basic_appender<char>, fmt::v11::basic_string_view<char>, fmt::v11::format_specs const&)::{lambda(fmt::v11::basic_appender<char>&)#1})
PUBLIC 314a4 0 fmt::v11::detail::format_dragon(fmt::v11::detail::basic_fp<unsigned __int128>, unsigned int, int, fmt::v11::detail::buffer<char>&, int&)
PUBLIC 328d4 0 fmt::v11::detail::bigint::operator<<=(int)
PUBLIC 329f8 0 fmt::v11::detail::bigint::assign_pow10(int)
PUBLIC 33154 0 fmt::v11::detail::bigint::divmod_assign(fmt::v11::detail::bigint const&)
PUBLIC 33474 0 fmt::v11::basic_memory_buffer<unsigned int, (unsigned long)32, std::__ndk1::allocator<unsigned int> >::grow(fmt::v11::detail::buffer<unsigned int>&, unsigned long)
PUBLIC 33514 0 fmt::v11::detail::do_write_float<char, fmt::v11::basic_appender<char>, fmt::v11::detail::big_decimal_fp, fmt::v11::detail::digit_grouping<char> >(fmt::v11::basic_appender<char>, fmt::v11::detail::big_decimal_fp const&, fmt::v11::format_specs const&, fmt::v11::detail::float_specs, fmt::v11::detail::locale_ref)
PUBLIC 343c4 0 fmt::v11::detail::do_write_float<char, fmt::v11::basic_appender<char>, fmt::v11::detail::big_decimal_fp, fmt::v11::detail::digit_grouping<char> >(fmt::v11::basic_appender<char>, fmt::v11::detail::big_decimal_fp const&, fmt::v11::format_specs const&, fmt::v11::detail::float_specs, fmt::v11::detail::locale_ref)::{lambda(fmt::v11::basic_appender<char>(fmt::v11::basic_appender<char>))#1}::operator() const
PUBLIC 34524 0 fmt::v11::detail::write_padded<char, (fmt::v11::align::type)2, fmt::v11::basic_appender<char>, fmt::v11::detail::write_ptr<char, fmt::v11::basic_appender<char>, unsigned long>(fmt::v11::basic_appender<char>, unsigned long, fmt::v11::format_specs const*)::{lambda(fmt::v11::basic_appender<char>&)#1}>(fmt::v11::basic_appender<char>, fmt::v11::format_specs const&, unsigned long, unsigned long, fmt::v11::detail::write_ptr<char, fmt::v11::basic_appender<char>, unsigned long>(fmt::v11::basic_appender<char>, unsigned long, fmt::v11::format_specs const*)::{lambda(fmt::v11::basic_appender<char>&)#1})
PUBLIC 34738 0 fmt::v11::detail::parse_replacement_field<char, fmt::v11::detail::vformat_to<char>(fmt::v11::detail::buffer<char>&, fmt::v11::basic_string_view<char>, fmt::v11::detail::vformat_args<char>::type, fmt::v11::detail::locale_ref)::format_handler&>(char const*, char const*, fmt::v11::detail::vformat_to<char>(fmt::v11::detail::buffer<char>&, fmt::v11::basic_string_view<char>, fmt::v11::detail::vformat_args<char>::type, fmt::v11::detail::locale_ref)::format_handler&)
PUBLIC 363d4 0 fmt::v11::detail::parse_dynamic_spec<char>(char const*, char const*, int&, fmt::v11::detail::arg_ref<char>&, fmt::v11::basic_format_parse_context<char>&)
PUBLIC 36664 0 fmt::v11::basic_format_args<fmt::v11::context>::get<char>(fmt::v11::basic_string_view<char>) const
PUBLIC 367bc 0 fmt::v11::detail::write_int_noinline<char, fmt::v11::basic_appender<char>, unsigned long>(fmt::v11::basic_appender<char>, fmt::v11::detail::write_int_arg<unsigned long>, fmt::v11::format_specs const&, fmt::v11::detail::locale_ref)
PUBLIC 37610 0 fmt::v11::detail::write_int_noinline<char, fmt::v11::basic_appender<char>, unsigned __int128>(fmt::v11::basic_appender<char>, fmt::v11::detail::write_int_arg<unsigned __int128>, fmt::v11::format_specs const&, fmt::v11::detail::locale_ref)
PUBLIC 38678 0 _ZN3fmt3v116detail15format_hexfloatIdTnNSt6__ndk19enable_ifIXntsr16is_double_doubleIT_EE5valueEiE4typeELi0EEEvS5_NS0_12format_specsERNS1_6bufferIcEE
PUBLIC 38b98 0 fmt::v11::detail::format_float<double>(double, int, fmt::v11::detail::float_specs, fmt::v11::detail::buffer<char>&)
PUBLIC 39538 0 fmt::v11::detail::write<char, fmt::v11::basic_appender<char> >(fmt::v11::basic_appender<char>, fmt::v11::basic_string_view<char>, fmt::v11::format_specs const&)
PUBLIC 3a8a4 0 fmt::v11::detail::for_each_codepoint<fmt::v11::detail::compute_width(fmt::v11::basic_string_view<char>)::count_code_points>(fmt::v11::basic_string_view<char>, fmt::v11::detail::compute_width(fmt::v11::basic_string_view<char>)::count_code_points)::{lambda(char const*, char const*)#1}::operator()(char const*, char const*) const
PUBLIC 3aa5c 0 fmt::v11::detail::write_int<fmt::v11::basic_appender<char>, unsigned long, char>(fmt::v11::basic_appender<char>, unsigned long, unsigned int, fmt::v11::format_specs const&, fmt::v11::detail::digit_grouping<char> const&)
PUBLIC 3afd8 0 fmt::v11::detail::write_int<fmt::v11::basic_appender<char>, unsigned __int128, char>(fmt::v11::basic_appender<char>, unsigned __int128, unsigned int, fmt::v11::format_specs const&, fmt::v11::detail::digit_grouping<char> const&)
PUBLIC 3b654 0 __CortexA53843419_1A008
PUBLIC 3b65c 0 __CortexA53843419_31004
PUBLIC 3b670 0 <.plt ELF section in raydeeux_thesillydoggo.evenmoreleveltags.android64.so>
STACK CFI INIT 102c0 10 .cfa: sp 0 +
STACK CFI INIT 102d0 8 .cfa: sp 0 +
STACK CFI INIT 102d8 8 .cfa: sp 0 +
STACK CFI INIT 102e0 14 .cfa: sp 0 +
STACK CFI INIT 102f4 1c .cfa: sp 0 +
STACK CFI INIT 10310 10 .cfa: sp 0 +
STACK CFI INIT 10320 134 .cfa: sp 0 +
STACK CFI INIT 10454 84 .cfa: sp 0 +
STACK CFI INIT 104d8 f4 .cfa: sp 0 +
STACK CFI INIT 105cc a8 .cfa: sp 0 +
STACK CFI INIT 10674 7c .cfa: sp 0 +
STACK CFI INIT 106f0 14 .cfa: sp 0 +
STACK CFI INIT 10704 40 .cfa: sp 0 +
STACK CFI INIT 10744 28 .cfa: sp 0 +
STACK CFI INIT 1076c 190 .cfa: sp 0 +
STACK CFI INIT 108fc 2c8 .cfa: sp 0 +
STACK CFI INIT 10bc4 8 .cfa: sp 0 +
STACK CFI INIT 10bcc 8 .cfa: sp 0 +
STACK CFI INIT 10bd4 44 .cfa: sp 0 +
STACK CFI INIT 10c18 e8 .cfa: sp 0 +
STACK CFI INIT 10d00 e8 .cfa: sp 0 +
STACK CFI INIT 10de8 14 .cfa: sp 0 +
STACK CFI INIT 10dfc 10 .cfa: sp 0 +
STACK CFI INIT 10e0c 10 .cfa: sp 0 +
STACK CFI INIT 10e1c f0 .cfa: sp 0 +
STACK CFI INIT 10f0c 44 .cfa: sp 0 +
STACK CFI INIT 10f50 c .cfa: sp 0 +
STACK CFI INIT 10f5c c .cfa: sp 0 +
STACK CFI INIT 10f68 2c .cfa: sp 0 +
STACK CFI INIT 10f94 280 .cfa: sp 0 +
STACK CFI INIT 11214 c .cfa: sp 0 +
STACK CFI INIT 11220 120 .cfa: sp 0 +
STACK CFI INIT 11340 488 .cfa: sp 0 +
STACK CFI INIT 117c8 c48 .cfa: sp 0 +
STACK CFI INIT 12410 134 .cfa: sp 0 +
STACK CFI INIT 12544 210 .cfa: sp 0 +
STACK CFI INIT 12754 38c .cfa: sp 0 +
STACK CFI INIT 12ae0 1c8 .cfa: sp 0 +
STACK CFI INIT 12ca8 9bc .cfa: sp 0 +
STACK CFI INIT 13664 2d4 .cfa: sp 0 +
STACK CFI INIT 13938 134 .cfa: sp 0 +
STACK CFI INIT 13a6c 120 .cfa: sp 0 +
STACK CFI INIT 13b8c 1c8 .cfa: sp 0 +
STACK CFI INIT 13d54 168 .cfa: sp 0 +
STACK CFI INIT 13ebc fc .cfa: sp 0 +
STACK CFI INIT 13fb8 30 .cfa: sp 0 +
STACK CFI INIT 14120 30 .cfa: sp 0 +
STACK CFI INIT 14150 98 .cfa: sp 0 +
STACK CFI INIT 141e8 59c .cfa: sp 0 +
STACK CFI INIT 14784 8c .cfa: sp 0 +
STACK CFI INIT 14810 30 .cfa: sp 0 +
STACK CFI INIT 14900 60 .cfa: sp 0 +
STACK CFI 14904 .cfa: sp 32 +
STACK CFI 1490c .cfa: x29 32 + x19: .cfa -8 + ^ x20: .cfa -16 + ^ .ra: .cfa -24 + ^ x29: .cfa -32 + ^
STACK CFI 1492c .cfa: sp 32 +
STACK CFI 14934 .cfa: sp 0 +
STACK CFI 14938 .cfa: x29 32 +
STACK CFI 14954 .cfa: sp 32 +
STACK CFI 1495c .cfa: sp 0 +
STACK CFI INIT 14960 18 .cfa: sp 0 +
STACK CFI INIT 14dfc 18 .cfa: sp 0 +
STACK CFI INIT 15524 18 .cfa: sp 0 +
STACK CFI INIT 1553c 50 .cfa: sp 0 +
STACK CFI 15540 .cfa: sp 32 +
STACK CFI 15548 .cfa: x29 32 + x19: .cfa -16 + ^ .ra: .cfa -24 + ^ x29: .cfa -32 + ^
STACK CFI 15560 .cfa: sp 32 +
STACK CFI 15568 .cfa: sp 0 +
STACK CFI 1556c .cfa: x29 32 +
STACK CFI 15580 .cfa: sp 32 +
STACK CFI 15588 .cfa: sp 0 +
STACK CFI INIT 1558c 10 .cfa: sp 0 +
STACK CFI 15590 .cfa: sp 16 +
STACK CFI 15594 .cfa: x29 16 + .ra: .cfa -8 + ^ x29: .cfa -16 + ^
STACK CFI INIT 155ec 30 .cfa: sp 0 +
STACK CFI 155f0 .cfa: sp 32 +
STACK CFI 155f8 .cfa: x29 32 + x19: .cfa -16 + ^ .ra: .cfa -24 + ^ x29: .cfa -32 + ^
STACK CFI 15610 .cfa: sp 32 +
STACK CFI 15618 .cfa: sp 0 +
STACK CFI INIT 1561c 34 .cfa: sp 0 +
STACK CFI 15620 .cfa: sp 32 +
STACK CFI 15628 .cfa: x29 32 + x19: .cfa -16 + ^ .ra: .cfa -24 + ^ x29: .cfa -32 + ^
STACK CFI INIT 15d60 26c .cfa: sp 0 +
STACK CFI 15d64 .cfa: sp 112 +
STACK CFI 15d80 .cfa: x29 96 + x19: .cfa -8 + ^ x20: .cfa -16 + ^ x21: .cfa -24 + ^ x22: .cfa -32 + ^ x23: .cfa -40 + ^ x24: .cfa -48 + ^ x25: .cfa -56 + ^ x26: .cfa -64 + ^ x27: .cfa -72 + ^ x28: .cfa -80 + ^ .ra: .cfa -88 + ^ x29: .cfa -96 + ^
STACK CFI 15fac .cfa: sp 112 +
STACK CFI 15fc8 .cfa: sp 0 +
STACK CFI INIT 15fcc 1a8 .cfa: sp 0 +
STACK CFI 15fd0 .cfa: sp 64 +
STACK CFI 15fe0 .cfa: x29 64 + x19: .cfa -8 + ^ x20: .cfa -16 + ^ x21: .cfa -24 + ^ x22: .cfa -32 + ^ x23: .cfa -48 + ^ .ra: .cfa -56 + ^ x29: .cfa -64 + ^
STACK CFI 16064 .cfa: sp 64 +
STACK CFI 16074 .cfa: sp 0 +
STACK CFI 16078 .cfa: x29 64 +
STACK CFI 16080 .cfa: sp 64 +
STACK CFI 16090 .cfa: sp 0 +
STACK CFI 16094 .cfa: x29 64 +
STACK CFI 1615c .cfa: sp 64 +
STACK CFI 1616c .cfa: sp 0 +
STACK CFI 16170 .cfa: x29 64 +
STACK CFI INIT 16174 170 .cfa: sp 0 +
STACK CFI 16178 .cfa: sp 96 +
STACK CFI 16190 .cfa: x29 96 + x19: .cfa -8 + ^ x20: .cfa -16 + ^ x21: .cfa -24 + ^ x22: .cfa -32 + ^ x23: .cfa -40 + ^ x24: .cfa -48 + ^ x25: .cfa -56 + ^ x26: .cfa -64 + ^ x27: .cfa -80 + ^ .ra: .cfa -88 + ^ x29: .cfa -96 + ^
STACK CFI 162c4 .cfa: sp 96 +
STACK CFI 162dc .cfa: sp 0 +
STACK CFI 162e0 .cfa: x29 96 +
STACK CFI INIT 16330 4 .cfa: sp 0 +
STACK CFI INIT 16334 c .cfa: sp 0 +
STACK CFI INIT 16340 4 .cfa: sp 0 +
STACK CFI INIT 16344 4 .cfa: sp 0 +
STACK CFI INIT 16348 24 .cfa: sp 0 +
STACK CFI 1634c .cfa: sp 32 +
STACK CFI 16354 .cfa: x29 32 + x19: .cfa -16 + ^ .ra: .cfa -24 + ^ x29: .cfa -32 + ^
STACK CFI 16360 .cfa: sp 32 +
STACK CFI 16368 .cfa: sp 0 +
STACK CFI INIT 1636c 18 .cfa: sp 0 +
STACK CFI INIT 16384 1c .cfa: sp 0 +
STACK CFI INIT 163a0 4 .cfa: sp 0 +
STACK CFI INIT 163a4 48 .cfa: sp 0 +
STACK CFI 163c0 .cfa: sp 32 +
STACK CFI 163c8 .cfa: x29 32 + x19: .cfa -16 + ^ .ra: .cfa -24 + ^ x29: .cfa -32 + ^
STACK CFI 163e0 .cfa: sp 32 +
STACK CFI 163e8 .cfa: sp 0 +
STACK CFI INIT 163ec 14 .cfa: sp 0 +
STACK CFI INIT 16400 48 .cfa: sp 0 +
STACK CFI 1641c .cfa: sp 32 +
STACK CFI 16424 .cfa: x29 32 + x19: .cfa -16 + ^ .ra: .cfa -24 + ^ x29: .cfa -32 + ^
STACK CFI 1643c .cfa: sp 32 +
STACK CFI 16444 .cfa: sp 0 +
STACK CFI INIT 16df0 3f4 .cfa: sp 0 +
STACK CFI 16df4 .cfa: sp 32 +
STACK CFI 16dfc .cfa: x29 32 + x19: .cfa -16 + ^ .ra: .cfa -24 + ^ x29: .cfa -32 + ^
STACK CFI 16f48 .cfa: sp 32 +
STACK CFI 16f50 .cfa: sp 0 +
STACK CFI 16f54 .cfa: x29 32 +
STACK CFI 16f5c .cfa: sp 32 +
STACK CFI 16f64 .cfa: sp 0 +
STACK CFI 16f68 .cfa: x29 32 +
STACK CFI 16fa4 .cfa: sp 32 +
STACK CFI 16fac .cfa: sp 0 +
STACK CFI 16fb0 .cfa: x29 32 +
STACK CFI 16fec .cfa: sp 32 +
STACK CFI 16ff4 .cfa: sp 0 +
STACK CFI 16ff8 .cfa: x29 32 +
STACK CFI 17024 .cfa: sp 32 +
STACK CFI 1702c .cfa: sp 0 +
STACK CFI 17030 .cfa: x29 32 +
STACK CFI 1704c .cfa: sp 32 +
STACK CFI 17054 .cfa: sp 0 +
STACK CFI 17058 .cfa: x29 32 +
STACK CFI 170bc .cfa: sp 32 +
STACK CFI 170c4 .cfa: sp 0 +
STACK CFI 170c8 .cfa: x29 32 +
STACK CFI 17198 .cfa: sp 32 +
STACK CFI 171a0 .cfa: sp 0 +
STACK CFI 171a4 .cfa: x29 32 +
STACK CFI 171d0 .cfa: sp 32 +
STACK CFI 171d8 .cfa: sp 0 +
STACK CFI 171dc .cfa: x29 32 +
STACK CFI INIT 17250 b4 .cfa: sp 0 +
STACK CFI 17254 .cfa: sp 64 +
STACK CFI 17264 .cfa: x29 64 + x19: .cfa -8 + ^ x20: .cfa -16 + ^ x21: .cfa -24 + ^ x22: .cfa -32 + ^ x23: .cfa -48 + ^ .ra: .cfa -56 + ^ x29: .cfa -64 + ^
STACK CFI 172f0 .cfa: sp 64 +
STACK CFI 17300 .cfa: sp 0 +
STACK CFI INIT 17350 48 .cfa: sp 0 +
STACK CFI 1736c .cfa: sp 32 +
STACK CFI 17374 .cfa: x29 32 + x19: .cfa -16 + ^ .ra: .cfa -24 + ^ x29: .cfa -32 + ^
STACK CFI 1738c .cfa: sp 32 +
STACK CFI 17394 .cfa: sp 0 +
STACK CFI INIT 17398 64 .cfa: sp 0 +
STACK CFI INIT 173fc 48 .cfa: sp 0 +
STACK CFI 17418 .cfa: sp 32 +
STACK CFI 17420 .cfa: x29 32 + x19: .cfa -16 + ^ .ra: .cfa -24 + ^ x29: .cfa -32 + ^
STACK CFI 17438 .cfa: sp 32 +
STACK CFI 17440 .cfa: sp 0 +
STACK CFI INIT 17444 54 .cfa: sp 0 +
STACK CFI INIT 17498 5c .cfa: sp 0 +
STACK CFI 1749c .cfa: sp 32 +
STACK CFI 174a4 .cfa: x29 32 + x19: .cfa -16 + ^ .ra: .cfa -24 + ^ x29: .cfa -32 + ^
STACK CFI 174dc .cfa: sp 32 +
STACK CFI 174e4 .cfa: sp 0 +
STACK CFI 174e8 .cfa: sp 32 +
STACK CFI 174f0 .cfa: sp 0 +
STACK CFI INIT 174f4 58 .cfa: sp 0 +
STACK CFI 174f8 .cfa: sp 32 +
STACK CFI 17500 .cfa: x29 32 + x19: .cfa -16 + ^ .ra: .cfa -24 + ^ x29: .cfa -32 + ^
STACK CFI 17540 .cfa: sp 32 +
STACK CFI 17548 .cfa: sp 0 +
STACK CFI INIT 1754c 110 .cfa: sp 0 +
STACK CFI INIT 1765c 90 .cfa: sp 0 +
STACK CFI 17660 .cfa: sp 32 +
STACK CFI 17668 .cfa: x29 32 + x19: .cfa -8 + ^ x20: .cfa -16 + ^ .ra: .cfa -24 + ^ x29: .cfa -32 + ^
STACK CFI 176d4 .cfa: sp 32 +
STACK CFI 176dc .cfa: sp 0 +
STACK CFI 176e0 .cfa: sp 32 +
STACK CFI 176e8 .cfa: sp 0 +
STACK CFI INIT 176ec 8c .cfa: sp 0 +
STACK CFI 176f0 .cfa: sp 32 +
STACK CFI 176f8 .cfa: x29 32 + x19: .cfa -8 + ^ x20: .cfa -16 + ^ .ra: .cfa -24 + ^ x29: .cfa -32 + ^
STACK CFI 1776c .cfa: sp 32 +
STACK CFI 17774 .cfa: sp 0 +
STACK CFI INIT 17d98 1d0 .cfa: sp 0 +
STACK CFI 17d9c .cfa: sp 48 +
STACK CFI 17da8 .cfa: x29 48 + x19: .cfa -8 + ^ x20: .cfa -16 + ^ x21: .cfa -24 + ^ x22: .cfa -32 + ^ .ra: .cfa -40 + ^ x29: .cfa -48 + ^
STACK CFI 17f38 .cfa: sp 48 +
STACK CFI 17f44 .cfa: sp 0 +
STACK CFI 17f48 .cfa: x29 48 +
STACK CFI 17f54 .cfa: sp 48 +
STACK CFI 17f60 .cfa: sp 0 +
STACK CFI 17f64 .cfa: x29 48 +
STACK CFI INIT 17f68 14 .cfa: sp 0 +
STACK CFI 17f6c .cfa: sp 16 +
STACK CFI 17f70 .cfa: x29 16 + .ra: .cfa -8 + ^ x29: .cfa -16 + ^
STACK CFI INIT 17f7c 44 .cfa: sp 0 +
STACK CFI 17f80 .cfa: sp 32 +
STACK CFI 17f88 .cfa: x29 32 + x19: .cfa -16 + ^ .ra: .cfa -24 + ^ x29: .cfa -32 + ^
STACK CFI 17fa8 .cfa: sp 32 +
STACK CFI 17fb0 .cfa: sp 0 +
STACK CFI 17fb4 .cfa: sp 32 +
STACK CFI 17fbc .cfa: sp 0 +
STACK CFI INIT 181c8 98 .cfa: sp 0 +
STACK CFI 181cc .cfa: sp 48 +
STACK CFI 181d8 .cfa: x29 48 + x19: .cfa -8 + ^ x20: .cfa -16 + ^ x21: .cfa -32 + ^ .ra: .cfa -40 + ^ x29: .cfa -48 + ^
STACK CFI 181f8 .cfa: sp 48 +
STACK CFI 18204 .cfa: sp 0 +
STACK CFI 18208 .cfa: x29 48 +
STACK CFI 18240 .cfa: sp 48 +
STACK CFI 1824c .cfa: sp 0 +
STACK CFI 18250 .cfa: sp 48 +
STACK CFI 1825c .cfa: sp 0 +
STACK CFI INIT 18260 1dc .cfa: sp 0 +
STACK CFI 18264 .cfa: sp 48 +
STACK CFI 18270 .cfa: x29 48 + x19: .cfa -8 + ^ x20: .cfa -16 + ^ x21: .cfa -24 + ^ x22: .cfa -32 + ^ .ra: .cfa -40 + ^ x29: .cfa -48 + ^
STACK CFI 18424 .cfa: sp 48 +
STACK CFI 18430 .cfa: sp 0 +
STACK CFI 18434 .cfa: x29 48 +
STACK CFI INIT 1843c 14 .cfa: sp 0 +
STACK CFI 18440 .cfa: sp 16 +
STACK CFI 18444 .cfa: x29 16 + .ra: .cfa -8 + ^ x29: .cfa -16 + ^
STACK CFI INIT 18450 1a8 .cfa: sp 0 +
STACK CFI 18454 .cfa: sp 64 +
STACK CFI 18464 .cfa: x29 64 + x19: .cfa -8 + ^ x20: .cfa -16 + ^ x21: .cfa -24 + ^ x22: .cfa -32 + ^ x23: .cfa -40 + ^ x24: .cfa -48 + ^ .ra: .cfa -56 + ^ x29: .cfa -64 + ^
STACK CFI 185c8 .cfa: sp 64 +
STACK CFI 185d8 .cfa: sp 0 +
STACK CFI 185dc .cfa: sp 64 +
STACK CFI 185ec .cfa: sp 0 +
STACK CFI 185f0 .cfa: x29 64 +
STACK CFI INIT 185f8 12c .cfa: sp 0 +
STACK CFI 185fc .cfa: sp 64 +
STACK CFI 1860c .cfa: x29 64 + x19: .cfa -8 + ^ x20: .cfa -16 + ^ x21: .cfa -24 + ^ x22: .cfa -32 + ^ x23: .cfa -40 + ^ x24: .cfa -48 + ^ .ra: .cfa -56 + ^ x29: .cfa -64 + ^
STACK CFI 186f4 .cfa: sp 64 +
STACK CFI 18704 .cfa: sp 0 +
STACK CFI 18708 .cfa: sp 64 +
STACK CFI 18718 .cfa: sp 0 +
STACK CFI 1871c .cfa: x29 64 +
STACK CFI INIT 18724 14 .cfa: sp 0 +
STACK CFI 18728 .cfa: sp 16 +
STACK CFI 1872c .cfa: x29 16 + .ra: .cfa -8 + ^ x29: .cfa -16 + ^
STACK CFI INIT 19878 48 .cfa: sp 0 +
STACK CFI 19894 .cfa: sp 32 +
STACK CFI 1989c .cfa: x29 32 + x19: .cfa -16 + ^ .ra: .cfa -24 + ^ x29: .cfa -32 + ^
STACK CFI 198b4 .cfa: sp 32 +
STACK CFI 198bc .cfa: sp 0 +
STACK CFI INIT 1990c 50c .cfa: sp 0 +
STACK CFI 19910 .cfa: sp 32 +
STACK CFI 19918 .cfa: x29 32 + x19: .cfa -16 + ^ .ra: .cfa -24 + ^ x29: .cfa -32 + ^
STACK CFI 19a60 .cfa: sp 32 +
STACK CFI 19a68 .cfa: sp 0 +
STACK CFI 19a6c .cfa: x29 32 +
STACK CFI 19bdc .cfa: sp 32 +
STACK CFI 19be4 .cfa: sp 0 +
STACK CFI 19be8 .cfa: x29 32 +
STACK CFI 19c04 .cfa: sp 32 +
STACK CFI 19c0c .cfa: sp 0 +
STACK CFI 19c10 .cfa: x29 32 +
STACK CFI 19c6c .cfa: sp 32 +
STACK CFI 19c74 .cfa: sp 0 +
STACK CFI 19c78 .cfa: x29 32 +
STACK CFI 19c94 .cfa: sp 32 +
STACK CFI 19c9c .cfa: sp 0 +
STACK CFI 19ca0 .cfa: x29 32 +
STACK CFI 19cbc .cfa: sp 32 +
STACK CFI 19cc4 .cfa: sp 0 +
STACK CFI 19cc8 .cfa: x29 32 +
STACK CFI 19ce4 .cfa: sp 32 +
STACK CFI 19cec .cfa: sp 0 +
STACK CFI 19cf0 .cfa: x29 32 +
STACK CFI 19d08 .cfa: sp 32 +
STACK CFI 19d10 .cfa: sp 0 +
STACK CFI 19d14 .cfa: x29 32 +
STACK CFI 19d30 .cfa: sp 32 +
STACK CFI 19d38 .cfa: sp 0 +
STACK CFI 19d3c .cfa: x29 32 +
STACK CFI 19d58 .cfa: sp 32 +
STACK CFI 19d60 .cfa: sp 0 +
STACK CFI 19d64 .cfa: x29 32 +
STACK CFI 19d80 .cfa: sp 32 +
STACK CFI 19d88 .cfa: sp 0 +
STACK CFI 19d8c .cfa: x29 32 +
STACK CFI 19de0 .cfa: sp 32 +
STACK CFI 19de8 .cfa: sp 0 +
STACK CFI 19dec .cfa: x29 32 +
STACK CFI 19e08 .cfa: sp 32 +
STACK CFI 19e10 .cfa: sp 0 +
STACK CFI 19e14 .cfa: x29 32 +
STACK CFI INIT 19fa4 c8 .cfa: sp 0 +
STACK CFI 19fa8 .cfa: sp 48 +
STACK CFI 19fb4 .cfa: x29 48 + x19: .cfa -8 + ^ x20: .cfa -16 + ^ x21: .cfa -32 + ^ .ra: .cfa -40 + ^ x29: .cfa -48 + ^
STACK CFI 1a05c .cfa: sp 48 +
STACK CFI 1a068 .cfa: sp 0 +
STACK CFI INIT 1a06c 5c .cfa: sp 0 +
STACK CFI 1a070 .cfa: sp 32 +
STACK CFI 1a078 .cfa: x29 32 + x19: .cfa -16 + ^ .ra: .cfa -24 + ^ x29: .cfa -32 + ^
STACK CFI 1a0b0 .cfa: sp 32 +
STACK CFI 1a0b8 .cfa: sp 0 +
STACK CFI 1a0bc .cfa: sp 32 +
STACK CFI 1a0c4 .cfa: sp 0 +
STACK CFI INIT 1a0c8 58 .cfa: sp 0 +
STACK CFI 1a0cc .cfa: sp 32 +
STACK CFI 1a0d4 .cfa: x29 32 + x19: .cfa -16 + ^ .ra: .cfa -24 + ^ x29: .cfa -32 + ^
STACK CFI 1a114 .cfa: sp 32 +
STACK CFI 1a11c .cfa: sp 0 +
STACK CFI INIT 1a120 80 .cfa: sp 0 +
STACK CFI 1a124 .cfa: sp 32 +
STACK CFI 1a12c .cfa: x29 32 + x19: .cfa -8 + ^ x20: .cfa -16 + ^ .ra: .cfa -24 + ^ x29: .cfa -32 + ^
STACK CFI 1a17c .cfa: sp 32 +
STACK CFI 1a184 .cfa: sp 0 +
STACK CFI 1a188 .cfa: x29 32 +
STACK CFI 1a194 .cfa: sp 32 +
STACK CFI 1a19c .cfa: sp 0 +
STACK CFI INIT 1a1a0 5c .cfa: sp 0 +
STACK CFI 1a1a4 .cfa: sp 32 +
STACK CFI 1a1ac .cfa: x29 32 + x19: .cfa -16 + ^ .ra: .cfa -24 + ^ x29: .cfa -32 + ^
STACK CFI 1a1e4 .cfa: sp 32 +
STACK CFI 1a1ec .cfa: sp 0 +
STACK CFI 1a1f0 .cfa: sp 32 +
STACK CFI 1a1f8 .cfa: sp 0 +
STACK CFI INIT 1a1fc 58 .cfa: sp 0 +
STACK CFI 1a200 .cfa: sp 32 +
STACK CFI 1a208 .cfa: x29 32 + x19: .cfa -16 + ^ .ra: .cfa -24 + ^ x29: .cfa -32 + ^
STACK CFI 1a248 .cfa: sp 32 +
STACK CFI 1a250 .cfa: sp 0 +
STACK CFI INIT 1a254 48 .cfa: sp 0 +
STACK CFI INIT 1a29c 48 .cfa: sp 0 +
STACK CFI 1a2b8 .cfa: sp 32 +
STACK CFI 1a2c0 .cfa: x29 32 + x19: .cfa -16 + ^ .ra: .cfa -24 + ^ x29: .cfa -32 + ^
STACK CFI 1a2d8 .cfa: sp 32 +
STACK CFI 1a2e0 .cfa: sp 0 +
STACK CFI INIT 1a2e4 48 .cfa: sp 0 +
STACK CFI INIT 1a32c 5c .cfa: sp 0 +
STACK CFI 1a330 .cfa: sp 32 +
STACK CFI 1a338 .cfa: x29 32 + x19: .cfa -16 + ^ .ra: .cfa -24 + ^ x29: .cfa -32 + ^
STACK CFI 1a370 .cfa: sp 32 +
STACK CFI 1a378 .cfa: sp 0 +
STACK CFI 1a37c .cfa: sp 32 +
STACK CFI 1a384 .cfa: sp 0 +
STACK CFI INIT 1a388 58 .cfa: sp 0 +
STACK CFI 1a38c .cfa: sp 32 +
STACK CFI 1a394 .cfa: x29 32 + x19: .cfa -16 + ^ .ra: .cfa -24 + ^ x29: .cfa -32 + ^
STACK CFI 1a3d4 .cfa: sp 32 +
STACK CFI 1a3dc .cfa: sp 0 +
STACK CFI INIT 1a3e0 f8 .cfa: sp 0 +
STACK CFI 1a3e4 .cfa: sp 64 +
STACK CFI 1a3f4 .cfa: x29 64 + x19: .cfa -8 + ^ x20: .cfa -16 + ^ x21: .cfa -24 + ^ x22: .cfa -32 + ^ x23: .cfa -40 + ^ x24: .cfa -48 + ^ .ra: .cfa -56 + ^ x29: .cfa -64 + ^
STACK CFI 1a438 .cfa: sp 64 +
STACK CFI 1a448 .cfa: sp 0 +
STACK CFI 1a44c .cfa: x29 64 +
STACK CFI 1a4c4 .cfa: sp 64 +
STACK CFI 1a4d4 .cfa: sp 0 +
STACK CFI INIT 1a4d8 5c .cfa: sp 0 +
STACK CFI 1a4dc .cfa: sp 32 +
STACK CFI 1a4e4 .cfa: x29 32 + x19: .cfa -16 + ^ .ra: .cfa -24 + ^ x29: .cfa -32 + ^
STACK CFI 1a51c .cfa: sp 32 +
STACK CFI 1a524 .cfa: sp 0 +
STACK CFI 1a528 .cfa: sp 32 +
STACK CFI 1a530 .cfa: sp 0 +
STACK CFI INIT 1a534 58 .cfa: sp 0 +
STACK CFI 1a538 .cfa: sp 32 +
STACK CFI 1a540 .cfa: x29 32 + x19: .cfa -16 + ^ .ra: .cfa -24 + ^ x29: .cfa -32 + ^
STACK CFI 1a580 .cfa: sp 32 +
STACK CFI 1a588 .cfa: sp 0 +
STACK CFI INIT 1a58c 90 .cfa: sp 0 +
STACK CFI INIT 1a61c 48 .cfa: sp 0 +
STACK CFI 1a638 .cfa: sp 32 +
STACK CFI 1a640 .cfa: x29 32 + x19: .cfa -16 + ^ .ra: .cfa -24 + ^ x29: .cfa -32 + ^
STACK CFI 1a658 .cfa: sp 32 +
STACK CFI 1a660 .cfa: sp 0 +
STACK CFI INIT 1a664 d0 .cfa: sp 0 +
STACK CFI 1a668 .cfa: sp 48 +
STACK CFI 1a674 .cfa: x29 48 + x19: .cfa -8 + ^ x20: .cfa -16 + ^ x21: .cfa -24 + ^ x22: .cfa -32 + ^ .ra: .cfa -40 + ^ x29: .cfa -48 + ^
STACK CFI 1a6f8 .cfa: sp 48 +
STACK CFI 1a704 .cfa: sp 0 +
STACK CFI 1a708 .cfa: x29 48 +
STACK CFI 1a720 .cfa: sp 48 +
STACK CFI 1a72c .cfa: sp 0 +
STACK CFI 1a730 .cfa: x29 48 +
STACK CFI INIT 1a734 4b0 .cfa: sp 0 +
STACK CFI 1a738 .cfa: sp 80 +
STACK CFI 1a74c .cfa: x29 80 + x19: .cfa -8 + ^ x20: .cfa -16 + ^ x21: .cfa -24 + ^ x22: .cfa -32 + ^ x23: .cfa -40 + ^ x24: .cfa -48 + ^ x25: .cfa -64 + ^ .ra: .cfa -72 + ^ x29: .cfa -80 + ^
STACK CFI 1a780 .cfa: sp 80 +
STACK CFI 1a794 .cfa: sp 0 +
STACK CFI 1a798 .cfa: x29 80 +
STACK CFI 1ab58 .cfa: sp 80 +
STACK CFI 1ab6c .cfa: sp 0 +
STACK CFI 1ab70 .cfa: x29 80 +
STACK CFI 1abc8 .cfa: sp 80 +
STACK CFI 1abdc .cfa: sp 0 +
STACK CFI 1abe0 .cfa: x29 80 +
STACK CFI INIT 1adc0 7c .cfa: sp 0 +
STACK CFI 1adc4 .cfa: sp 48 +
STACK CFI 1add0 .cfa: x29 48 + x19: .cfa -8 + ^ x20: .cfa -16 + ^ x21: .cfa -32 + ^ .ra: .cfa -40 + ^ x29: .cfa -48 + ^
STACK CFI 1ae1c .cfa: sp 48 +
STACK CFI 1ae28 .cfa: sp 0 +
STACK CFI 1ae2c .cfa: sp 48 +
STACK CFI 1ae38 .cfa: sp 0 +
STACK CFI INIT 1ae3c a4 .cfa: sp 0 +
STACK CFI 1ae40 .cfa: sp 48 +
STACK CFI 1ae4c .cfa: x29 48 + x19: .cfa -8 + ^ x20: .cfa -16 + ^ x21: .cfa -32 + ^ .ra: .cfa -40 + ^ x29: .cfa -48 + ^
STACK CFI 1ae6c .cfa: sp 48 +
STACK CFI 1ae78 .cfa: sp 0 +
STACK CFI 1ae7c .cfa: x29 48 +
STACK CFI 1aec0 .cfa: sp 48 +
STACK CFI 1aecc .cfa: sp 0 +
STACK CFI 1aed0 .cfa: sp 48 +
STACK CFI 1aedc .cfa: sp 0 +
STACK CFI INIT 1aee0 14c .cfa: sp 0 +
STACK CFI 1aee4 .cfa: sp 48 +
STACK CFI 1aef0 .cfa: x29 48 + x19: .cfa -8 + ^ x20: .cfa -16 + ^ x21: .cfa -32 + ^ .ra: .cfa -40 + ^ x29: .cfa -48 + ^
STACK CFI 1b00c .cfa: sp 48 +
STACK CFI 1b018 .cfa: sp 0 +
STACK CFI 1b01c .cfa: sp 48 +
STACK CFI 1b028 .cfa: sp 0 +
STACK CFI INIT 1b02c 24 .cfa: sp 0 +
STACK CFI 1b030 .cfa: sp 32 +
STACK CFI 1b038 .cfa: x29 32 + x19: .cfa -16 + ^ .ra: .cfa -24 + ^ x29: .cfa -32 + ^
STACK CFI 1b044 .cfa: sp 32 +
STACK CFI 1b04c .cfa: sp 0 +
STACK CFI INIT 1bcbc 44 .cfa: sp 0 +
STACK CFI 1bcc0 .cfa: sp 32 +
STACK CFI 1bcc8 .cfa: x29 32 + x19: .cfa -16 + ^ .ra: .cfa -24 + ^ x29: .cfa -32 + ^
STACK CFI 1bce4 .cfa: sp 32 +
STACK CFI 1bcec .cfa: sp 0 +
STACK CFI 1bcf0 .cfa: x29 32 +
STACK CFI 1bcf4 .cfa: sp 32 +
STACK CFI 1bcfc .cfa: sp 0 +
STACK CFI INIT 1bd00 14 .cfa: sp 0 +
STACK CFI 1bd04 .cfa: sp 16 +
STACK CFI 1bd08 .cfa: x29 16 + .ra: .cfa -8 + ^ x29: .cfa -16 + ^
STACK CFI INIT 1bd14 ac .cfa: sp 0 +
STACK CFI 1bd18 .cfa: sp 64 +
STACK CFI 1bd28 .cfa: x29 64 + x19: .cfa -8 + ^ x20: .cfa -16 + ^ x21: .cfa -24 + ^ x22: .cfa -32 + ^ x23: .cfa -48 + ^ .ra: .cfa -56 + ^ x29: .cfa -64 + ^
STACK CFI 1bda4 .cfa: sp 64 +
STACK CFI 1bdb4 .cfa: sp 0 +
STACK CFI 1bdb8 .cfa: x29 64 +
STACK CFI INIT 1bdc0 110 .cfa: sp 0 +
STACK CFI 1bdc4 .cfa: sp 64 +
STACK CFI 1bdd4 .cfa: x29 64 + x19: .cfa -8 + ^ x20: .cfa -16 + ^ x21: .cfa -24 + ^ x22: .cfa -32 + ^ x23: .cfa -40 + ^ x24: .cfa -48 + ^ .ra: .cfa -56 + ^ x29: .cfa -64 + ^
STACK CFI 1beb4 .cfa: sp 64 +
STACK CFI 1bec4 .cfa: sp 0 +
STACK CFI 1bec8 .cfa: x29 64 +
STACK CFI INIT 1c094 14 .cfa: sp 0 +
STACK CFI 1c098 .cfa: sp 16 +
STACK CFI 1c09c .cfa: x29 16 + .ra: .cfa -8 + ^ x29: .cfa -16 + ^
STACK CFI INIT 1c0f4 5c8 .cfa: sp 0 +
STACK CFI 1c0f8 .cfa: sp 80 +
STACK CFI 1c10c .cfa: x29 80 + x19: .cfa -8 + ^ x20: .cfa -16 + ^ x21: .cfa -24 + ^ x22: .cfa -32 + ^ x23: .cfa -40 + ^ x24: .cfa -48 + ^ x25: .cfa -56 + ^ x26: .cfa -64 + ^ .ra: .cfa -72 + ^ x29: .cfa -80 + ^
STACK CFI 1c1fc .cfa: sp 80 +
STACK CFI 1c210 .cfa: sp 0 +
STACK CFI 1c214 .cfa: x29 80 +
STACK CFI 1c268 .cfa: sp 80 +
STACK CFI 1c27c .cfa: sp 0 +
STACK CFI 1c280 .cfa: x29 80 +
STACK CFI 1c69c .cfa: sp 80 +
STACK CFI 1c6b0 .cfa: sp 0 +
STACK CFI 1c6b4 .cfa: x29 80 +
STACK CFI INIT 1c6bc 4c4 .cfa: sp 0 +
STACK CFI 1c6c0 .cfa: sp 32 +
STACK CFI 1c6c8 .cfa: x29 32 + x19: .cfa -16 + ^ .ra: .cfa -24 + ^ x29: .cfa -32 + ^
STACK CFI 1c71c .cfa: sp 32 +
STACK CFI 1c724 .cfa: sp 0 +
STACK CFI 1c728 .cfa: x29 32 +
STACK CFI 1c768 .cfa: sp 32 +
STACK CFI 1c770 .cfa: sp 0 +
STACK CFI 1c774 .cfa: x29 32 +
STACK CFI 1c7a4 .cfa: sp 32 +
STACK CFI 1c7ac .cfa: sp 0 +
STACK CFI 1c7b0 .cfa: x29 32 +
STACK CFI 1c7e0 .cfa: sp 32 +
STACK CFI 1c7e8 .cfa: sp 0 +
STACK CFI 1c7ec .cfa: x29 32 +
STACK CFI 1c7fc .cfa: sp 32 +
STACK CFI 1c804 .cfa: sp 0 +
STACK CFI 1c808 .cfa: x29 32 +
STACK CFI 1c828 .cfa: sp 32 +
STACK CFI 1c830 .cfa: sp 0 +
STACK CFI 1c834 .cfa: x29 32 +
STACK CFI 1c854 .cfa: sp 32 +
STACK CFI 1c85c .cfa: sp 0 +
STACK CFI 1c860 .cfa: x29 32 +
STACK CFI 1c880 .cfa: sp 32 +
STACK CFI 1c888 .cfa: sp 0 +
STACK CFI 1c88c .cfa: x29 32 +
STACK CFI 1c8ac .cfa: sp 32 +
STACK CFI 1c8b4 .cfa: sp 0 +
STACK CFI 1c8b8 .cfa: x29 32 +
STACK CFI 1c93c .cfa: sp 32 +
STACK CFI 1c944 .cfa: sp 0 +
STACK CFI 1c948 .cfa: x29 32 +
STACK CFI 1c958 .cfa: sp 32 +
STACK CFI 1c960 .cfa: sp 0 +
STACK CFI 1c964 .cfa: x29 32 +
STACK CFI 1c974 .cfa: sp 32 +
STACK CFI 1c97c .cfa: sp 0 +
STACK CFI 1c980 .cfa: x29 32 +
STACK CFI 1c990 .cfa: sp 32 +
STACK CFI 1c998 .cfa: sp 0 +
STACK CFI 1c99c .cfa: x29 32 +
STACK CFI 1c9ac .cfa: sp 32 +
STACK CFI 1c9b4 .cfa: sp 0 +
STACK CFI 1c9b8 .cfa: x29 32 +
STACK CFI 1c9c8 .cfa: sp 32 +
STACK CFI 1c9d0 .cfa: sp 0 +
STACK CFI 1c9d4 .cfa: x29 32 +
STACK CFI 1c9e4 .cfa: sp 32 +
STACK CFI 1c9ec .cfa: sp 0 +
STACK CFI 1c9f0 .cfa: x29 32 +
STACK CFI 1ca00 .cfa: sp 32 +
STACK CFI 1ca08 .cfa: sp 0 +
STACK CFI 1ca0c .cfa: x29 32 +
STACK CFI 1ca30 .cfa: sp 32 +
STACK CFI 1ca38 .cfa: sp 0 +
STACK CFI 1ca3c .cfa: x29 32 +
STACK CFI 1ca54 .cfa: sp 32 +
STACK CFI 1ca5c .cfa: sp 0 +
STACK CFI 1ca60 .cfa: x29 32 +
STACK CFI 1ca78 .cfa: sp 32 +
STACK CFI 1ca80 .cfa: sp 0 +
STACK CFI 1ca84 .cfa: x29 32 +
STACK CFI 1ca9c .cfa: sp 32 +
STACK CFI 1caa4 .cfa: sp 0 +
STACK CFI 1caa8 .cfa: x29 32 +
STACK CFI 1cac0 .cfa: sp 32 +
STACK CFI 1cac8 .cfa: sp 0 +
STACK CFI 1cacc .cfa: x29 32 +
STACK CFI 1cae4 .cfa: sp 32 +
STACK CFI 1caec .cfa: sp 0 +
STACK CFI 1caf0 .cfa: x29 32 +
STACK CFI 1cb08 .cfa: sp 32 +
STACK CFI 1cb10 .cfa: sp 0 +
STACK CFI 1cb14 .cfa: x29 32 +
STACK CFI 1cb2c .cfa: sp 32 +
STACK CFI 1cb34 .cfa: sp 0 +
STACK CFI 1cb38 .cfa: x29 32 +
STACK CFI 1cb50 .cfa: sp 32 +
STACK CFI 1cb58 .cfa: sp 0 +
STACK CFI 1cb5c .cfa: x29 32 +
STACK CFI 1cb70 .cfa: sp 32 +
STACK CFI 1cb78 .cfa: sp 0 +
STACK CFI 1cb7c .cfa: x29 32 +
STACK CFI INIT 1cb80 420 .cfa: sp 0 +
STACK CFI 1cb84 .cfa: sp 80 +
STACK CFI 1cb98 .cfa: x29 80 + x19: .cfa -8 + ^ x20: .cfa -16 + ^ x21: .cfa -24 + ^ x22: .cfa -32 + ^ x23: .cfa -40 + ^ x24: .cfa -48 + ^ x25: .cfa -64 + ^ .ra: .cfa -72 + ^ x29: .cfa -80 + ^
STACK CFI 1cbec .cfa: sp 80 +
STACK CFI 1cc00 .cfa: sp 0 +
STACK CFI 1cc04 .cfa: x29 80 +
STACK CFI 1cdac .cfa: sp 80 +
STACK CFI 1cdc0 .cfa: sp 0 +
STACK CFI 1cdc4 .cfa: x29 80 +
STACK CFI 1cf80 .cfa: sp 80 +
STACK CFI 1cf94 .cfa: sp 0 +
STACK CFI 1cf98 .cfa: x29 80 +
STACK CFI INIT 1d4c4 80 .cfa: sp 0 +
STACK CFI 1d4c8 .cfa: sp 48 +
STACK CFI 1d4d4 .cfa: x29 48 + x19: .cfa -8 + ^ x20: .cfa -16 + ^ x21: .cfa -24 + ^ x22: .cfa -32 + ^ .ra: .cfa -40 + ^ x29: .cfa -48 + ^
STACK CFI 1d4ec .cfa: sp 48 +
STACK CFI 1d4f8 .cfa: sp 0 +
STACK CFI 1d4fc .cfa: x29 48 +
STACK CFI 1d52c .cfa: sp 48 +
STACK CFI 1d538 .cfa: sp 0 +
STACK CFI 1d53c .cfa: x29 48 +
STACK CFI INIT 1d544 68 .cfa: sp 0 +
STACK CFI 1d548 .cfa: sp 32 +
STACK CFI 1d550 .cfa: x29 32 + x19: .cfa -8 + ^ x20: .cfa -16 + ^ .ra: .cfa -24 + ^ x29: .cfa -32 + ^
STACK CFI 1d568 .cfa: sp 32 +
STACK CFI 1d570 .cfa: sp 0 +
STACK CFI 1d574 .cfa: x29 32 +
STACK CFI 1d5a0 .cfa: sp 32 +
STACK CFI 1d5a8 .cfa: sp 0 +
STACK CFI INIT 1d5ac 14 .cfa: sp 0 +
STACK CFI 1d5b0 .cfa: sp 16 +
STACK CFI 1d5b4 .cfa: x29 16 + .ra: .cfa -8 + ^ x29: .cfa -16 + ^
STACK CFI INIT 1d80c 1a8 .cfa: sp 0 +
STACK CFI 1d810 .cfa: sp 48 +
STACK CFI 1d81c .cfa: x29 48 + x19: .cfa -8 + ^ x20: .cfa -16 + ^ x21: .cfa -24 + ^ x22: .cfa -32 + ^ .ra: .cfa -40 + ^ x29: .cfa -48 + ^
STACK CFI 1d99c .cfa: sp 48 +
STACK CFI 1d9a8 .cfa: sp 0 +
STACK CFI 1d9ac .cfa: x29 48 +
STACK CFI INIT 1d9b4 14 .cfa: sp 0 +
STACK CFI 1d9b8 .cfa: sp 16 +
STACK CFI 1d9bc .cfa: x29 16 + .ra: .cfa -8 + ^ x29: .cfa -16 + ^
STACK CFI INIT 1d9c8 14 .cfa: sp 0 +
STACK CFI 1d9cc .cfa: sp 16 +
STACK CFI 1d9d0 .cfa: x29 16 + .ra: .cfa -8 + ^ x29: .cfa -16 + ^
STACK CFI INIT 1d9dc 48 .cfa: sp 0 +
STACK CFI 1d9f8 .cfa: sp 32 +
STACK CFI 1da00 .cfa: x29 32 + x19: .cfa -16 + ^ .ra: .cfa -24 + ^ x29: .cfa -32 + ^
STACK CFI 1da18 .cfa: sp 32 +
STACK CFI 1da20 .cfa: sp 0 +
STACK CFI INIT 1da24 30 .cfa: sp 0 +
STACK CFI INIT 1da54 48 .cfa: sp 0 +
STACK CFI 1da70 .cfa: sp 32 +
STACK CFI 1da78 .cfa: x29 32 + x19: .cfa -16 + ^ .ra: .cfa -24 + ^ x29: .cfa -32 + ^
STACK CFI 1da90 .cfa: sp 32 +
STACK CFI 1da98 .cfa: sp 0 +
STACK CFI INIT 1da9c 38 .cfa: sp 0 +
STACK CFI INIT 1dcac 68 .cfa: sp 0 +
STACK CFI 1dcb0 .cfa: sp 32 +
STACK CFI 1dcb8 .cfa: x29 32 + x19: .cfa -16 + ^ .ra: .cfa -24 + ^ x29: .cfa -32 + ^
STACK CFI 1dd08 .cfa: sp 32 +
STACK CFI 1dd10 .cfa: sp 0 +
STACK CFI INIT 1dd14 1c4 .cfa: sp 0 +
STACK CFI INIT 1ded8 c4 .cfa: sp 0 +
STACK CFI INIT 1df9c 68 .cfa: sp 0 +
STACK CFI 1dfa0 .cfa: sp 32 +
STACK CFI 1dfa8 .cfa: x29 32 + x19: .cfa -16 + ^ .ra: .cfa -24 + ^ x29: .cfa -32 + ^
STACK CFI 1dff8 .cfa: sp 32 +
STACK CFI 1e000 .cfa: sp 0 +
STACK CFI INIT 1e004 4 .cfa: sp 0 +
STACK CFI INIT 1e008 14 .cfa: sp 0 +
STACK CFI INIT 1e01c 6c .cfa: sp 0 +
STACK CFI 1e020 .cfa: sp 32 +
STACK CFI 1e028 .cfa: x29 32 + x19: .cfa -16 + ^ .ra: .cfa -24 + ^ x29: .cfa -32 + ^
STACK CFI 1e070 .cfa: sp 32 +
STACK CFI 1e078 .cfa: sp 0 +
STACK CFI 1e07c .cfa: sp 32 +
STACK CFI 1e084 .cfa: sp 0 +
STACK CFI INIT 1e088 68 .cfa: sp 0 +
STACK CFI 1e08c .cfa: sp 32 +
STACK CFI 1e094 .cfa: x29 32 + x19: .cfa -16 + ^ .ra: .cfa -24 + ^ x29: .cfa -32 + ^
STACK CFI 1e0e4 .cfa: sp 32 +
STACK CFI 1e0ec .cfa: sp 0 +
STACK CFI INIT 1e0f0 c .cfa: sp 0 +
STACK CFI INIT 1e0fc 24 .cfa: sp 0 +
STACK CFI INIT 1e120 4 .cfa: sp 0 +
STACK CFI INIT 1e124 4 .cfa: sp 0 +
STACK CFI INIT 1e128 14 .cfa: sp 0 +
STACK CFI INIT 1e188 2fc .cfa: sp 0 +
STACK CFI 1e18c .cfa: sp 64 +
STACK CFI 1e19c .cfa: x29 64 + x19: .cfa -8 + ^ x20: .cfa -16 + ^ x21: .cfa -24 + ^ x22: .cfa -32 + ^ x23: .cfa -40 + ^ x24: .cfa -48 + ^ .ra: .cfa -56 + ^ x29: .cfa -64 + ^
STACK CFI 1e318 .cfa: sp 64 +
STACK CFI 1e328 .cfa: sp 0 +
STACK CFI 1e32c .cfa: x29 64 +
STACK CFI 1e370 .cfa: sp 64 +
STACK CFI 1e380 .cfa: sp 0 +
STACK CFI 1e384 .cfa: x29 64 +
STACK CFI 1e454 .cfa: sp 64 +
STACK CFI 1e464 .cfa: sp 0 +
STACK CFI 1e468 .cfa: sp 64 +
STACK CFI 1e478 .cfa: sp 0 +
STACK CFI 1e47c .cfa: x29 64 +
STACK CFI INIT 1e484 270 .cfa: sp 0 +
STACK CFI 1e488 .cfa: sp 32 +
STACK CFI 1e490 .cfa: x29 32 + x19: .cfa -16 + ^ .ra: .cfa -24 + ^ x29: .cfa -32 + ^
STACK CFI 1e4c8 .cfa: sp 32 +
STACK CFI 1e4d0 .cfa: sp 0 +
STACK CFI 1e4d4 .cfa: x29 32 +
STACK CFI 1e61c .cfa: sp 32 +
STACK CFI 1e624 .cfa: sp 0 +
STACK CFI 1e628 .cfa: x29 32 +
STACK CFI 1e664 .cfa: sp 32 +
STACK CFI 1e66c .cfa: sp 0 +
STACK CFI 1e670 .cfa: x29 32 +
STACK CFI 1e6e4 .cfa: sp 32 +
STACK CFI 1e6ec .cfa: sp 0 +
STACK CFI 1e6f0 .cfa: x29 32 +
STACK CFI INIT 1e6f4 2c .cfa: sp 0 +
STACK CFI INIT 1e720 48 .cfa: sp 0 +
STACK CFI 1e73c .cfa: sp 32 +
STACK CFI 1e744 .cfa: x29 32 + x19: .cfa -16 + ^ .ra: .cfa -24 + ^ x29: .cfa -32 + ^
STACK CFI 1e75c .cfa: sp 32 +
STACK CFI 1e764 .cfa: sp 0 +
STACK CFI INIT 1e768 40 .cfa: sp 0 +
STACK CFI INIT 1e7a8 60 .cfa: sp 0 +
STACK CFI 1e7ac .cfa: sp 16 +
STACK CFI 1e7b0 .cfa: x29 16 + .ra: .cfa -8 + ^ x29: .cfa -16 + ^
STACK CFI 1e7f0 .cfa: sp 16 +
STACK CFI 1e7f4 .cfa: sp 0 +
STACK CFI 1e7f8 .cfa: x29 16 +
STACK CFI 1e7fc .cfa: sp 16 +
STACK CFI 1e800 .cfa: sp 0 +
STACK CFI 1e804 .cfa: x29 16 +
STACK CFI INIT 1e808 34c .cfa: sp 0 +
STACK CFI 1e80c .cfa: sp 80 +
STACK CFI 1e820 .cfa: x29 80 + x19: .cfa -8 + ^ x20: .cfa -16 + ^ x21: .cfa -24 + ^ x22: .cfa -32 + ^ x23: .cfa -40 + ^ x24: .cfa -48 + ^ x25: .cfa -64 + ^ .ra: .cfa -72 + ^ x29: .cfa -80 + ^
STACK CFI 1eb1c .cfa: sp 80 +
STACK CFI 1eb30 .cfa: sp 0 +
STACK CFI 1eb34 .cfa: x29 80 +
STACK CFI 1eb38 .cfa: sp 80 +
STACK CFI 1eb4c .cfa: sp 0 +
STACK CFI 1eb50 .cfa: x29 80 +
STACK CFI INIT 1f59c 50 .cfa: sp 0 +
STACK CFI 1f5a0 .cfa: sp 32 +
STACK CFI 1f5a8 .cfa: x29 32 + x19: .cfa -16 + ^ .ra: .cfa -24 + ^ x29: .cfa -32 + ^
STACK CFI 1f5c0 .cfa: sp 32 +
STACK CFI 1f5c8 .cfa: sp 0 +
STACK CFI 1f5cc .cfa: x29 32 +
STACK CFI 1f5e0 .cfa: sp 32 +
STACK CFI 1f5e8 .cfa: sp 0 +
STACK CFI INIT 1f660 4 .cfa: sp 0 +
STACK CFI INIT 1f7b8 34 .cfa: sp 0 +
STACK CFI 1f7bc .cfa: sp 16 +
STACK CFI 1f7c0 .cfa: x29 16 + .ra: .cfa -8 + ^ x29: .cfa -16 + ^
STACK CFI INIT 1f918 80 .cfa: sp 0 +
STACK CFI 1f91c .cfa: sp 48 +
STACK CFI 1f928 .cfa: x29 48 + x19: .cfa -8 + ^ x20: .cfa -16 + ^ x21: .cfa -32 + ^ .ra: .cfa -40 + ^ x29: .cfa -48 + ^
STACK CFI 1f988 .cfa: sp 48 +
STACK CFI 1f994 .cfa: sp 0 +
STACK CFI INIT 1f998 24 .cfa: sp 0 +
STACK CFI 1f99c .cfa: sp 32 +
STACK CFI 1f9a4 .cfa: x29 32 + x19: .cfa -16 + ^ .ra: .cfa -24 + ^ x29: .cfa -32 + ^
STACK CFI 1f9b0 .cfa: sp 32 +
STACK CFI 1f9b8 .cfa: sp 0 +
STACK CFI INIT 1feb4 148 .cfa: sp 0 +
STACK CFI 1feb8 .cfa: sp 48 +
STACK CFI 1fec4 .cfa: x29 48 + x19: .cfa -8 + ^ x20: .cfa -16 + ^ x21: .cfa -32 + ^ .ra: .cfa -40 + ^ x29: .cfa -48 + ^
STACK CFI 1ffec .cfa: sp 48 +
STACK CFI 1fff8 .cfa: sp 0 +
STACK CFI INIT 1fffc 4 .cfa: sp 0 +
STACK CFI INIT 20000 14 .cfa: sp 0 +
STACK CFI INIT 20014 120 .cfa: sp 0 +
STACK CFI 20018 .cfa: sp 64 +
STACK CFI 20028 .cfa: x29 64 + x19: .cfa -8 + ^ x20: .cfa -16 + ^ x21: .cfa -24 + ^ x22: .cfa -32 + ^ x23: .cfa -40 + ^ x24: .cfa -48 + ^ .ra: .cfa -56 + ^ x29: .cfa -64 + ^
STACK CFI 20120 .cfa: sp 64 +
STACK CFI 20130 .cfa: sp 0 +
STACK CFI INIT 20134 4a4 .cfa: sp 0 +
STACK CFI 20138 .cfa: sp 32 +
STACK CFI 20140 .cfa: x29 32 + x19: .cfa -8 + ^ x20: .cfa -16 + ^ .ra: .cfa -24 + ^ x29: .cfa -32 + ^
STACK CFI 20520 .cfa: sp 32 +
STACK CFI 20528 .cfa: sp 0 +
STACK CFI 2052c .cfa: x29 32 +
STACK CFI INIT 205d8 84 .cfa: sp 0 +
STACK CFI 205e0 .cfa: sp 32 +
STACK CFI 205e8 .cfa: x29 32 + x19: .cfa -8 + ^ x20: .cfa -16 + ^ .ra: .cfa -24 + ^ x29: .cfa -32 + ^
STACK CFI 20628 .cfa: sp 32 +
STACK CFI 20630 .cfa: sp 0 +
STACK CFI 20638 .cfa: x29 32 +
STACK CFI INIT 218d8 3c .cfa: sp 0 +
STACK CFI 218dc .cfa: sp 32 +
STACK CFI 218e4 .cfa: x29 32 + x19: .cfa -8 + ^ x20: .cfa -16 + ^ .ra: .cfa -24 + ^ x29: .cfa -32 + ^
STACK CFI 21908 .cfa: sp 32 +
STACK CFI 21910 .cfa: sp 0 +
STACK CFI INIT 21914 3c .cfa: sp 0 +
STACK CFI 21918 .cfa: sp 32 +
STACK CFI 21920 .cfa: x29 32 + x19: .cfa -8 + ^ x20: .cfa -16 + ^ .ra: .cfa -24 + ^ x29: .cfa -32 + ^
STACK CFI 21944 .cfa: sp 32 +
STACK CFI 2194c .cfa: sp 0 +
STACK CFI INIT 219f8 b4 .cfa: sp 0 +
STACK CFI 219fc .cfa: sp 32 +
STACK CFI 21a04 .cfa: x29 32 + x19: .cfa -16 + ^ .ra: .cfa -24 + ^ x29: .cfa -32 + ^
STACK CFI 21aa0 .cfa: sp 32 +
STACK CFI 21aa8 .cfa: sp 0 +
STACK CFI INIT 21aac 50 .cfa: sp 0 +
STACK CFI 21ab0 .cfa: sp 32 +
STACK CFI 21ab8 .cfa: x29 32 + x19: .cfa -16 + ^ .ra: .cfa -24 + ^ x29: .cfa -32 + ^
STACK CFI 21ad0 .cfa: sp 32 +
STACK CFI 21ad8 .cfa: sp 0 +
STACK CFI 21adc .cfa: x29 32 +
STACK CFI 21af0 .cfa: sp 32 +
STACK CFI 21af8 .cfa: sp 0 +
STACK CFI INIT 21afc 64 .cfa: sp 0 +
STACK CFI 21b00 .cfa: sp 32 +
STACK CFI 21b08 .cfa: x29 32 + x19: .cfa -16 + ^ .ra: .cfa -24 + ^ x29: .cfa -32 + ^
STACK CFI 21b34 .cfa: sp 32 +
STACK CFI 21b3c .cfa: sp 0 +
STACK CFI 21b40 .cfa: x29 32 +
STACK CFI 21b54 .cfa: sp 32 +
STACK CFI 21b5c .cfa: sp 0 +
STACK CFI INIT 21b60 14 .cfa: sp 0 +
STACK CFI 21b64 .cfa: sp 16 +
STACK CFI 21b68 .cfa: x29 16 + .ra: .cfa -8 + ^ x29: .cfa -16 + ^
STACK CFI INIT 22a88 18 .cfa: sp 0 +
STACK CFI INIT 22aa0 14 .cfa: sp 0 +
STACK CFI 22aa4 .cfa: sp 16 +
STACK CFI 22aa8 .cfa: x29 16 + .ra: .cfa -8 + ^ x29: .cfa -16 + ^
STACK CFI INIT 22ab4 14 .cfa: sp 0 +
STACK CFI 22ab8 .cfa: sp 16 +
STACK CFI 22abc .cfa: x29 16 + .ra: .cfa -8 + ^ x29: .cfa -16 + ^
STACK CFI INIT 22ac8 c .cfa: sp 0 +
STACK CFI 22acc .cfa: sp 16 +
STACK CFI 22ad0 .cfa: x29 16 + .ra: .cfa -8 + ^ x29: .cfa -16 + ^
STACK CFI INIT 22b24 30 .cfa: sp 0 +
STACK CFI 22b28 .cfa: sp 32 +
STACK CFI 22b30 .cfa: x29 32 + x19: .cfa -16 + ^ .ra: .cfa -24 + ^ x29: .cfa -32 + ^
STACK CFI 22b48 .cfa: sp 32 +
STACK CFI 22b50 .cfa: sp 0 +
STACK CFI INIT 22b54 c .cfa: sp 0 +
STACK CFI 22b58 .cfa: sp 16 +
STACK CFI 22b5c .cfa: x29 16 + .ra: .cfa -8 + ^ x29: .cfa -16 + ^
STACK CFI INIT 22b60 4 .cfa: sp 0 +
STACK CFI INIT 22b64 4 .cfa: sp 0 +
STACK CFI INIT 22b68 38 .cfa: sp 0 +
STACK CFI 22b6c .cfa: sp 32 +
STACK CFI 22b74 .cfa: x29 32 + x19: .cfa -16 + ^ .ra: .cfa -24 + ^ x29: .cfa -32 + ^
STACK CFI 22b94 .cfa: sp 32 +
STACK CFI 22b9c .cfa: sp 0 +
STACK CFI INIT 22ba0 18 .cfa: sp 0 +
STACK CFI INIT 22bb8 4 .cfa: sp 0 +
STACK CFI INIT 22bbc 4 .cfa: sp 0 +
STACK CFI INIT 22bc0 10 .cfa: sp 0 +
STACK CFI INIT 22bd0 1c .cfa: sp 0 +
STACK CFI INIT 22bec c .cfa: sp 0 +
STACK CFI INIT 22bf8 120 .cfa: sp 0 +
STACK CFI 22c00 .cfa: sp 48 +
STACK CFI 22c0c .cfa: x29 48 + x19: .cfa -8 + ^ x20: .cfa -16 + ^ x21: .cfa -32 + ^ .ra: .cfa -40 + ^ x29: .cfa -48 + ^
STACK CFI 22d08 .cfa: sp 48 +
STACK CFI 22d14 .cfa: sp 0 +
STACK CFI INIT 22d18 130 .cfa: sp 0 +
STACK CFI 22d1c .cfa: sp 80 +
STACK CFI 22d2c .cfa: x29 48 + x19: .cfa -8 + ^ x20: .cfa -16 + ^ x21: .cfa -24 + ^ x22: .cfa -32 + ^ .ra: .cfa -40 + ^ x29: .cfa -48 + ^
STACK CFI 22e30 .cfa: sp 80 +
STACK CFI 22e40 .cfa: sp 0 +
STACK CFI 22e44 .cfa: x29 48 +
STACK CFI INIT 22e48 114 .cfa: sp 0 +
STACK CFI 22e4c .cfa: sp 80 +
STACK CFI 22e5c .cfa: x29 48 + x19: .cfa -8 + ^ x20: .cfa -16 + ^ x21: .cfa -24 + ^ x22: .cfa -32 + ^ .ra: .cfa -40 + ^ x29: .cfa -48 + ^
STACK CFI 22f44 .cfa: sp 80 +
STACK CFI 22f54 .cfa: sp 0 +
STACK CFI 22f58 .cfa: x29 48 +
STACK CFI INIT 2338c f8 .cfa: sp 0 +
STACK CFI 23390 .cfa: sp 64 +
STACK CFI 233a0 .cfa: x29 64 + x19: .cfa -8 + ^ x20: .cfa -16 + ^ x21: .cfa -24 + ^ x22: .cfa -32 + ^ x23: .cfa -48 + ^ .ra: .cfa -56 + ^ x29: .cfa -64 + ^
STACK CFI 233fc .cfa: sp 64 +
STACK CFI 2340c .cfa: sp 0 +
STACK CFI 23410 .cfa: x29 64 +
STACK CFI 2342c .cfa: sp 64 +
STACK CFI 2343c .cfa: sp 0 +
STACK CFI 23440 .cfa: x29 64 +
STACK CFI 23470 .cfa: sp 64 +
STACK CFI 23480 .cfa: sp 0 +
STACK CFI INIT 23484 26c .cfa: sp 0 +
STACK CFI 23488 .cfa: sp 80 +
STACK CFI 2349c .cfa: x29 80 + x19: .cfa -8 + ^ x20: .cfa -16 + ^ x21: .cfa -24 + ^ x22: .cfa -32 + ^ x23: .cfa -40 + ^ x24: .cfa -48 + ^ x25: .cfa -64 + ^ .ra: .cfa -72 + ^ x29: .cfa -80 + ^
STACK CFI 235d0 .cfa: sp 80 +
STACK CFI 235e4 .cfa: sp 0 +
STACK CFI 235e8 .cfa: x29 80 +
STACK CFI 236d8 .cfa: sp 80 +
STACK CFI 236ec .cfa: sp 0 +
STACK CFI INIT 236f0 318 .cfa: sp 0 +
STACK CFI 236f4 .cfa: sp 128 +
STACK CFI 23710 .cfa: x29 96 + x19: .cfa -8 + ^ x20: .cfa -16 + ^ x21: .cfa -24 + ^ x22: .cfa -32 + ^ x23: .cfa -40 + ^ x24: .cfa -48 + ^ x25: .cfa -56 + ^ x26: .cfa -64 + ^ x27: .cfa -72 + ^ x28: .cfa -80 + ^ .ra: .cfa -88 + ^ x29: .cfa -96 + ^
STACK CFI 239e0 .cfa: sp 128 +
STACK CFI 239fc .cfa: sp 0 +
STACK CFI 23a00 .cfa: x29 96 +
STACK CFI INIT 252b0 1c8 .cfa: sp 0 +
STACK CFI 252b4 .cfa: sp 80 +
STACK CFI 252c8 .cfa: x29 80 + x19: .cfa -8 + ^ x20: .cfa -16 + ^ x21: .cfa -24 + ^ x22: .cfa -32 + ^ x23: .cfa -40 + ^ x24: .cfa -48 + ^ x25: .cfa -64 + ^ .ra: .cfa -72 + ^ x29: .cfa -80 + ^
STACK CFI 25448 .cfa: sp 80 +
STACK CFI 2545c .cfa: sp 0 +
STACK CFI 25460 .cfa: sp 80 +
STACK CFI 25474 .cfa: sp 0 +
STACK CFI INIT 25a68 188 .cfa: sp 0 +
STACK CFI 25a6c .cfa: sp 80 +
STACK CFI 25a80 .cfa: x29 80 + x19: .cfa -8 + ^ x20: .cfa -16 + ^ x21: .cfa -24 + ^ x22: .cfa -32 + ^ x23: .cfa -40 + ^ x24: .cfa -48 + ^ x25: .cfa -64 + ^ .ra: .cfa -72 + ^ x29: .cfa -80 + ^
STACK CFI 25bd4 .cfa: sp 80 +
STACK CFI 25be8 .cfa: sp 0 +
STACK CFI 25bec .cfa: x29 80 +
STACK CFI INIT 25bf0 18c .cfa: sp 0 +
STACK CFI 25bf4 .cfa: sp 64 +
STACK CFI 25c04 .cfa: x29 64 + x19: .cfa -8 + ^ x20: .cfa -16 + ^ x21: .cfa -24 + ^ x22: .cfa -32 + ^ x23: .cfa -40 + ^ x24: .cfa -48 + ^ .ra: .cfa -56 + ^ x29: .cfa -64 + ^
STACK CFI 25d64 .cfa: sp 64 +
STACK CFI 25d74 .cfa: sp 0 +
STACK CFI 25d78 .cfa: x29 64 +
STACK CFI INIT 25d7c 18c .cfa: sp 0 +
STACK CFI 25d80 .cfa: sp 64 +
STACK CFI 25d90 .cfa: x29 64 + x19: .cfa -8 + ^ x20: .cfa -16 + ^ x21: .cfa -24 + ^ x22: .cfa -32 + ^ x23: .cfa -40 + ^ x24: .cfa -48 + ^ .ra: .cfa -56 + ^ x29: .cfa -64 + ^
STACK CFI 25ef0 .cfa: sp 64 +
STACK CFI 25f00 .cfa: sp 0 +
STACK CFI 25f04 .cfa: x29 64 +
STACK CFI INIT 25f08 14 .cfa: sp 0 +
STACK CFI 25f0c .cfa: sp 16 +
STACK CFI 25f10 .cfa: x29 16 + .ra: .cfa -8 + ^ x29: .cfa -16 + ^
STACK CFI INIT 25f1c 168 .cfa: sp 0 +
STACK CFI 25f20 .cfa: sp 80 +
STACK CFI 25f34 .cfa: x29 80 + x19: .cfa -8 + ^ x20: .cfa -16 + ^ x21: .cfa -24 + ^ x22: .cfa -32 + ^ x23: .cfa -40 + ^ x24: .cfa -48 + ^ x25: .cfa -56 + ^ x26: .cfa -64 + ^ .ra: .cfa -72 + ^ x29: .cfa -80 + ^
STACK CFI 2606c .cfa: sp 80 +
STACK CFI 26080 .cfa: sp 0 +
STACK CFI INIT 26084 1b0 .cfa: sp 0 +
STACK CFI INIT 2633c 1d8 .cfa: sp 0 +
STACK CFI 26340 .cfa: sp 80 +
STACK CFI 26354 .cfa: x29 80 + x19: .cfa -8 + ^ x20: .cfa -16 + ^ x21: .cfa -24 + ^ x22: .cfa -32 + ^ x23: .cfa -40 + ^ x24: .cfa -48 + ^ x25: .cfa -56 + ^ x26: .cfa -64 + ^ .ra: .cfa -72 + ^ x29: .cfa -80 + ^
STACK CFI 263a4 .cfa: sp 80 +
STACK CFI 263b8 .cfa: sp 0 +
STACK CFI 263bc .cfa: x29 80 +
STACK CFI 264f4 .cfa: sp 80 +
STACK CFI 26508 .cfa: sp 0 +
STACK CFI 2650c .cfa: x29 80 +
STACK CFI INIT 26514 1ac .cfa: sp 0 +
STACK CFI 26518 .cfa: sp 80 +
STACK CFI 2652c .cfa: x29 80 + x19: .cfa -8 + ^ x20: .cfa -16 + ^ x21: .cfa -24 + ^ x22: .cfa -32 + ^ x23: .cfa -40 + ^ x24: .cfa -48 + ^ x25: .cfa -64 + ^ .ra: .cfa -72 + ^ x29: .cfa -80 + ^
STACK CFI 26558 .cfa: sp 80 +
STACK CFI 2656c .cfa: sp 0 +
STACK CFI 26570 .cfa: x29 80 +
STACK CFI 266a0 .cfa: sp 80 +
STACK CFI 266b4 .cfa: sp 0 +
STACK CFI 266b8 .cfa: x29 80 +
STACK CFI INIT 266c0 14 .cfa: sp 0 +
STACK CFI 266c4 .cfa: sp 16 +
STACK CFI 266c8 .cfa: x29 16 + .ra: .cfa -8 + ^ x29: .cfa -16 + ^
STACK CFI INIT 27378 4 .cfa: sp 0 +
STACK CFI INIT 274e4 4 .cfa: sp 0 +
STACK CFI INIT 274e8 14 .cfa: sp 0 +
STACK CFI INIT 27b98 108 .cfa: sp 0 +
STACK CFI 27b9c .cfa: sp 48 +
STACK CFI 27ba8 .cfa: x29 48 + x19: .cfa -8 + ^ x20: .cfa -16 + ^ x21: .cfa -32 + ^ .ra: .cfa -40 + ^ x29: .cfa -48 + ^
STACK CFI 27c90 .cfa: sp 48 +
STACK CFI 27c9c .cfa: sp 0 +
STACK CFI INIT 27ca0 3c .cfa: sp 0 +
STACK CFI 27ca4 .cfa: sp 32 +
STACK CFI 27cac .cfa: x29 32 + x19: .cfa -16 + ^ .ra: .cfa -24 + ^ x29: .cfa -32 + ^
STACK CFI 27cb8 .cfa: sp 32 +
STACK CFI 27cc0 .cfa: sp 0 +
STACK CFI 27cc4 .cfa: x29 32 +
STACK CFI 27cd0 .cfa: sp 32 +
STACK CFI 27cd8 .cfa: sp 0 +
STACK CFI INIT 27efc 64 .cfa: sp 0 +
STACK CFI 27f00 .cfa: sp 32 +
STACK CFI 27f08 .cfa: x29 32 + x19: .cfa -16 + ^ .ra: .cfa -24 + ^ x29: .cfa -32 + ^
STACK CFI 27f34 .cfa: sp 32 +
STACK CFI 27f3c .cfa: sp 0 +
STACK CFI 27f40 .cfa: x29 32 +
STACK CFI 27f54 .cfa: sp 32 +
STACK CFI 27f5c .cfa: sp 0 +
STACK CFI INIT 28e00 4 .cfa: sp 0 +
STACK CFI INIT 28e04 14 .cfa: sp 0 +
STACK CFI INIT 28e18 c .cfa: sp 0 +
STACK CFI INIT 28e24 24c .cfa: sp 0 +
STACK CFI INIT 29070 a0 .cfa: sp 0 +
STACK CFI 2907c .cfa: sp 32 +
STACK CFI 290d4 .cfa: sp 0 +
STACK CFI 290d8 .cfa: sp 32 +
STACK CFI 290e0 .cfa: sp 0 +
STACK CFI 290e4 .cfa: sp 32 +
STACK CFI 290f8 .cfa: sp 0 +
STACK CFI 290fc .cfa: sp 32 +
STACK CFI 2910c .cfa: sp 0 +
STACK CFI INIT 29110 38 .cfa: sp 0 +
STACK CFI 2911c .cfa: sp 32 +
STACK CFI 29144 .cfa: sp 0 +
STACK CFI INIT 293dc 7c .cfa: sp 0 +
STACK CFI 293e0 .cfa: sp 32 +
STACK CFI 293e8 .cfa: x29 32 + x19: .cfa -16 + ^ .ra: .cfa -24 + ^ x29: .cfa -32 + ^
STACK CFI 29414 .cfa: sp 32 +
STACK CFI 2941c .cfa: sp 0 +
STACK CFI 29420 .cfa: x29 32 +
STACK CFI 2944c .cfa: sp 32 +
STACK CFI 29454 .cfa: sp 0 +
STACK CFI INIT 294a8 2c .cfa: sp 0 +
STACK CFI 294ac .cfa: sp 32 +
STACK CFI 294b4 .cfa: x29 32 + x19: .cfa -16 + ^ .ra: .cfa -24 + ^ x29: .cfa -32 + ^
STACK CFI 294c8 .cfa: sp 32 +
STACK CFI 294d0 .cfa: sp 0 +
STACK CFI INIT 29c94 64 .cfa: sp 0 +
STACK CFI 29c98 .cfa: sp 32 +
STACK CFI 29ca0 .cfa: x29 32 + x19: .cfa -16 + ^ .ra: .cfa -24 + ^ x29: .cfa -32 + ^
STACK CFI 29cbc .cfa: sp 32 +
STACK CFI 29cc4 .cfa: sp 0 +
STACK CFI 29cc8 .cfa: x29 32 +
STACK CFI 29cec .cfa: sp 32 +
STACK CFI 29cf4 .cfa: sp 0 +
STACK CFI INIT 29cf8 570 .cfa: sp 0 +
STACK CFI 29cfc .cfa: sp 176 +
STACK CFI 29d10 .cfa: x29 64 + x19: .cfa -8 + ^ x20: .cfa -16 + ^ x21: .cfa -24 + ^ x22: .cfa -32 + ^ x23: .cfa -40 + ^ x24: .cfa -48 + ^ .ra: .cfa -56 + ^ x29: .cfa -64 + ^
STACK CFI 29f40 .cfa: sp 176 +
STACK CFI 29f54 .cfa: sp 0 +
STACK CFI 29f58 .cfa: x29 64 +
STACK CFI 29fa4 .cfa: sp 176 +
STACK CFI 29fb8 .cfa: sp 0 +
STACK CFI 29fbc .cfa: x29 64 +
STACK CFI 29ff4 .cfa: sp 176 +
STACK CFI 2a008 .cfa: sp 0 +
STACK CFI 2a00c .cfa: x29 64 +
STACK CFI 2a024 .cfa: sp 176 +
STACK CFI 2a038 .cfa: sp 0 +
STACK CFI 2a03c .cfa: x29 64 +
STACK CFI 2a05c .cfa: sp 176 +
STACK CFI 2a070 .cfa: sp 0 +
STACK CFI 2a074 .cfa: x29 64 +
STACK CFI 2a08c .cfa: sp 176 +
STACK CFI 2a0a0 .cfa: sp 0 +
STACK CFI 2a0a4 .cfa: x29 64 +
STACK CFI 2a0b8 .cfa: sp 176 +
STACK CFI 2a0cc .cfa: sp 0 +
STACK CFI 2a0d0 .cfa: x29 64 +
STACK CFI 2a0e4 .cfa: sp 176 +
STACK CFI 2a0f8 .cfa: sp 0 +
STACK CFI 2a0fc .cfa: x29 64 +
STACK CFI 2a10c .cfa: sp 176 +
STACK CFI 2a120 .cfa: sp 0 +
STACK CFI 2a124 .cfa: x29 64 +
STACK CFI 2a134 .cfa: sp 176 +
STACK CFI 2a148 .cfa: sp 0 +
STACK CFI 2a14c .cfa: x29 64 +
STACK CFI 2a164 .cfa: sp 176 +
STACK CFI 2a178 .cfa: sp 0 +
STACK CFI 2a17c .cfa: x29 64 +
STACK CFI 2a190 .cfa: sp 176 +
STACK CFI 2a1a4 .cfa: sp 0 +
STACK CFI 2a1a8 .cfa: x29 64 +
STACK CFI 2a1c0 .cfa: sp 176 +
STACK CFI 2a1d4 .cfa: sp 0 +
STACK CFI 2a1d8 .cfa: x29 64 +
STACK CFI 2a204 .cfa: sp 176 +
STACK CFI 2a218 .cfa: sp 0 +
STACK CFI 2a21c .cfa: x29 64 +
STACK CFI 2a230 .cfa: sp 176 +
STACK CFI 2a244 .cfa: sp 0 +
STACK CFI 2a248 .cfa: x29 64 +
STACK CFI INIT 2a268 228 .cfa: sp 0 +
STACK CFI INIT 2a490 2dc .cfa: sp 0 +
STACK CFI INIT 2a76c 53c .cfa: sp 0 +
STACK CFI INIT 2aca8 78 .cfa: sp 0 +
STACK CFI 2acac .cfa: sp 48 +
STACK CFI 2acb8 .cfa: x29 48 + x19: .cfa -8 + ^ x20: .cfa -16 + ^ x21: .cfa -24 + ^ x22: .cfa -32 + ^ .ra: .cfa -40 + ^ x29: .cfa -48 + ^
STACK CFI 2ad00 .cfa: sp 48 +
STACK CFI 2ad0c .cfa: sp 0 +
STACK CFI 2ad10 .cfa: sp 48 +
STACK CFI 2ad1c .cfa: sp 0 +
STACK CFI INIT 2ad20 8c .cfa: sp 0 +
STACK CFI 2ad24 .cfa: sp 32 +
STACK CFI 2ad2c .cfa: x29 32 + x19: .cfa -16 + ^ .ra: .cfa -24 + ^ x29: .cfa -32 + ^
STACK CFI 2ad60 .cfa: sp 32 +
STACK CFI 2ad68 .cfa: sp 0 +
STACK CFI 2ad6c .cfa: x29 32 +
STACK CFI 2ada0 .cfa: sp 32 +
STACK CFI 2ada8 .cfa: sp 0 +
STACK CFI INIT 2adac 24 .cfa: sp 0 +
STACK CFI 2adb0 .cfa: sp 32 +
STACK CFI 2adb8 .cfa: x29 32 + x19: .cfa -16 + ^ .ra: .cfa -24 + ^ x29: .cfa -32 + ^
STACK CFI 2adc4 .cfa: sp 32 +
STACK CFI 2adcc .cfa: sp 0 +
STACK CFI INIT 2add0 150 .cfa: sp 0 +
STACK CFI 2add4 .cfa: sp 48 +
STACK CFI 2ade0 .cfa: x29 48 + x19: .cfa -8 + ^ x20: .cfa -16 + ^ x21: .cfa -24 + ^ x22: .cfa -32 + ^ .ra: .cfa -40 + ^ x29: .cfa -48 + ^
STACK CFI 2af10 .cfa: sp 48 +
STACK CFI 2af1c .cfa: sp 0 +
STACK CFI INIT 2af20 68 .cfa: sp 0 +
STACK CFI 2af24 .cfa: sp 64 +
STACK CFI 2af30 .cfa: x29 32 + x19: .cfa -16 + ^ .ra: .cfa -24 + ^ x29: .cfa -32 + ^
STACK CFI 2af74 .cfa: sp 64 +
STACK CFI 2af80 .cfa: sp 0 +
STACK CFI 2af84 .cfa: x29 32 +
STACK CFI INIT 2af88 90 .cfa: sp 0 +
STACK CFI 2af8c .cfa: sp 32 +
STACK CFI 2af94 .cfa: x29 32 + x19: .cfa -8 + ^ x20: .cfa -16 + ^ .ra: .cfa -24 + ^ x29: .cfa -32 + ^
STACK CFI 2afc0 .cfa: sp 32 +
STACK CFI 2afc8 .cfa: sp 0 +
STACK CFI 2afcc .cfa: x29 32 +
STACK CFI 2b00c .cfa: sp 32 +
STACK CFI 2b014 .cfa: sp 0 +
STACK CFI INIT 2b018 ec .cfa: sp 0 +
STACK CFI 2b01c .cfa: sp 112 +
STACK CFI 2b02c .cfa: x29 48 + x19: .cfa -8 + ^ x20: .cfa -16 + ^ x21: .cfa -32 + ^ .ra: .cfa -40 + ^ x29: .cfa -48 + ^
STACK CFI 2b0ec .cfa: sp 112 +
STACK CFI 2b0fc .cfa: sp 0 +
STACK CFI 2b100 .cfa: x29 48 +
STACK CFI INIT 2b104 ec .cfa: sp 0 +
STACK CFI 2b108 .cfa: sp 112 +
STACK CFI 2b118 .cfa: x29 48 + x19: .cfa -8 + ^ x20: .cfa -16 + ^ x21: .cfa -32 + ^ .ra: .cfa -40 + ^ x29: .cfa -48 + ^
STACK CFI 2b1d8 .cfa: sp 112 +
STACK CFI 2b1e8 .cfa: sp 0 +
STACK CFI 2b1ec .cfa: x29 48 +
STACK CFI INIT 2b1f0 48 .cfa: sp 0 +
STACK CFI 2b1f4 .cfa: sp 32 +
STACK CFI 2b1fc .cfa: x29 32 + x19: .cfa -8 + ^ x20: .cfa -16 + ^ .ra: .cfa -24 + ^ x29: .cfa -32 + ^
STACK CFI 2b220 .cfa: sp 32 +
STACK CFI 2b228 .cfa: sp 0 +
STACK CFI 2b22c .cfa: x29 32 +
STACK CFI INIT 2b238 98 .cfa: sp 0 +
STACK CFI 2b23c .cfa: sp 80 +
STACK CFI 2b248 .cfa: x29 32 + x19: .cfa -16 + ^ .ra: .cfa -24 + ^ x29: .cfa -32 + ^
STACK CFI 2b2bc .cfa: sp 80 +
STACK CFI 2b2c8 .cfa: sp 0 +
STACK CFI 2b2cc .cfa: x29 32 +
STACK CFI INIT 2b2d0 260 .cfa: sp 0 +
STACK CFI 2b2d4 .cfa: sp 112 +
STACK CFI 2b2ec .cfa: x29 80 + x19: .cfa -8 + ^ x20: .cfa -16 + ^ x21: .cfa -24 + ^ x22: .cfa -32 + ^ x23: .cfa -40 + ^ x24: .cfa -48 + ^ x25: .cfa -64 + ^ .ra: .cfa -72 + ^ x29: .cfa -80 + ^
STACK CFI 2b4d0 .cfa: sp 112 +
STACK CFI 2b4e8 .cfa: sp 0 +
STACK CFI 2b4ec .cfa: x29 80 +
STACK CFI INIT 2b530 150 .cfa: sp 0 +
STACK CFI 2b534 .cfa: sp 48 +
STACK CFI 2b540 .cfa: x29 48 + x19: .cfa -8 + ^ x20: .cfa -16 + ^ x21: .cfa -24 + ^ x22: .cfa -32 + ^ .ra: .cfa -40 + ^ x29: .cfa -48 + ^
STACK CFI 2b670 .cfa: sp 48 +
STACK CFI 2b67c .cfa: sp 0 +
STACK CFI INIT 2b680 1e0 .cfa: sp 0 +
STACK CFI 2b684 .cfa: sp 96 +
STACK CFI 2b698 .cfa: x29 64 + x19: .cfa -8 + ^ x20: .cfa -16 + ^ x21: .cfa -24 + ^ x22: .cfa -32 + ^ x23: .cfa -40 + ^ x24: .cfa -48 + ^ .ra: .cfa -56 + ^ x29: .cfa -64 + ^
STACK CFI 2b818 .cfa: sp 96 +
STACK CFI 2b82c .cfa: sp 0 +
STACK CFI 2b830 .cfa: x29 64 +
STACK CFI INIT 2b860 284 .cfa: sp 0 +
STACK CFI 2b864 .cfa: sp 112 +
STACK CFI 2b87c .cfa: x29 80 + x19: .cfa -8 + ^ x20: .cfa -16 + ^ x21: .cfa -24 + ^ x22: .cfa -32 + ^ x23: .cfa -40 + ^ x24: .cfa -48 + ^ x25: .cfa -64 + ^ .ra: .cfa -72 + ^ x29: .cfa -80 + ^
STACK CFI 2ba84 .cfa: sp 112 +
STACK CFI 2ba9c .cfa: sp 0 +
STACK CFI 2baa0 .cfa: x29 80 +
STACK CFI INIT 2bae4 208 .cfa: sp 0 +
STACK CFI 2bae8 .cfa: sp 96 +
STACK CFI 2bafc .cfa: x29 64 + x19: .cfa -8 + ^ x20: .cfa -16 + ^ x21: .cfa -24 + ^ x22: .cfa -32 + ^ x23: .cfa -40 + ^ x24: .cfa -48 + ^ .ra: .cfa -56 + ^ x29: .cfa -64 + ^
STACK CFI 2bca4 .cfa: sp 96 +
STACK CFI 2bcb8 .cfa: sp 0 +
STACK CFI 2bcbc .cfa: x29 64 +
STACK CFI INIT 2bcec 360 .cfa: sp 0 +
STACK CFI 2bcf0 .cfa: sp 160 +
STACK CFI 2bd0c .cfa: x29 96 + x19: .cfa -8 + ^ x20: .cfa -16 + ^ x21: .cfa -24 + ^ x22: .cfa -32 + ^ x23: .cfa -40 + ^ x24: .cfa -48 + ^ x25: .cfa -56 + ^ x26: .cfa -64 + ^ x27: .cfa -72 + ^ x28: .cfa -80 + ^ .ra: .cfa -88 + ^ x29: .cfa -96 + ^
STACK CFI 2bfd8 .cfa: sp 160 +
STACK CFI 2bff4 .cfa: sp 0 +
STACK CFI 2bff8 .cfa: x29 96 +
STACK CFI INIT 2c04c 314 .cfa: sp 0 +
STACK CFI 2c050 .cfa: sp 144 +
STACK CFI 2c06c .cfa: x29 96 + x19: .cfa -8 + ^ x20: .cfa -16 + ^ x21: .cfa -24 + ^ x22: .cfa -32 + ^ x23: .cfa -40 + ^ x24: .cfa -48 + ^ x25: .cfa -56 + ^ x26: .cfa -64 + ^ x27: .cfa -72 + ^ x28: .cfa -80 + ^ .ra: .cfa -88 + ^ x29: .cfa -96 + ^
STACK CFI 2c2e8 .cfa: sp 144 +
STACK CFI 2c304 .cfa: sp 0 +
STACK CFI 2c308 .cfa: x29 96 +
STACK CFI INIT 2c360 290 .cfa: sp 0 +
STACK CFI 2c364 .cfa: sp 128 +
STACK CFI 2c37c .cfa: x29 80 + x19: .cfa -8 + ^ x20: .cfa -16 + ^ x21: .cfa -24 + ^ x22: .cfa -32 + ^ x23: .cfa -40 + ^ x24: .cfa -48 + ^ x25: .cfa -56 + ^ x26: .cfa -64 + ^ .ra: .cfa -72 + ^ x29: .cfa -80 + ^
STACK CFI 2c5d0 .cfa: sp 128 +
STACK CFI 2c5e8 .cfa: sp 0 +
STACK CFI 2c5ec .cfa: x29 80 +
STACK CFI INIT 2c5f0 ddc .cfa: sp 0 +
STACK CFI 2c5f4 .cfa: sp 144 +
STACK CFI 2c610 .cfa: x29 96 + x19: .cfa -8 + ^ x20: .cfa -16 + ^ x21: .cfa -24 + ^ x22: .cfa -32 + ^ x23: .cfa -40 + ^ x24: .cfa -48 + ^ x25: .cfa -56 + ^ x26: .cfa -64 + ^ x27: .cfa -72 + ^ x28: .cfa -80 + ^ .ra: .cfa -88 + ^ x29: .cfa -96 + ^
STACK CFI 2d2a4 .cfa: sp 144 +
STACK CFI 2d2c0 .cfa: sp 0 +
STACK CFI 2d2c4 .cfa: x29 96 +
STACK CFI INIT 2d3cc 1d0 .cfa: sp 0 +
STACK CFI 2d3d0 .cfa: sp 80 +
STACK CFI 2d3e4 .cfa: x29 80 + x19: .cfa -8 + ^ x20: .cfa -16 + ^ x21: .cfa -24 + ^ x22: .cfa -32 + ^ x23: .cfa -40 + ^ x24: .cfa -48 + ^ x25: .cfa -64 + ^ .ra: .cfa -72 + ^ x29: .cfa -80 + ^
STACK CFI 2d584 .cfa: sp 80 +
STACK CFI 2d598 .cfa: sp 0 +
STACK CFI INIT 2d59c 23c .cfa: sp 0 +
STACK CFI 2d5a0 .cfa: sp 112 +
STACK CFI 2d5b4 .cfa: x29 64 + x19: .cfa -8 + ^ x20: .cfa -16 + ^ x21: .cfa -24 + ^ x22: .cfa -32 + ^ x23: .cfa -40 + ^ x24: .cfa -48 + ^ .ra: .cfa -56 + ^ x29: .cfa -64 + ^
STACK CFI 2d790 .cfa: sp 112 +
STACK CFI 2d7a4 .cfa: sp 0 +
STACK CFI 2d7a8 .cfa: x29 64 +
STACK CFI INIT 2d7d8 30c .cfa: sp 0 +
STACK CFI 2d7dc .cfa: sp 80 +
STACK CFI 2d7f0 .cfa: x29 64 + x19: .cfa -8 + ^ x20: .cfa -16 + ^ x21: .cfa -24 + ^ x22: .cfa -32 + ^ x23: .cfa -40 + ^ x24: .cfa -48 + ^ .ra: .cfa -56 + ^ x29: .cfa -64 + ^
STACK CFI 2d96c .cfa: sp 80 +
STACK CFI 2d980 .cfa: sp 0 +
STACK CFI 2d984 .cfa: x29 64 +
STACK CFI INIT 2dae4 178 .cfa: sp 0 +
STACK CFI 2dae8 .cfa: sp 80 +
STACK CFI 2dafc .cfa: x29 64 + x19: .cfa -8 + ^ x20: .cfa -16 + ^ x21: .cfa -24 + ^ x22: .cfa -32 + ^ x23: .cfa -40 + ^ x24: .cfa -48 + ^ .ra: .cfa -56 + ^ x29: .cfa -64 + ^
STACK CFI 2dc40 .cfa: sp 80 +
STACK CFI 2dc54 .cfa: sp 0 +
STACK CFI 2dc58 .cfa: x29 64 +
STACK CFI INIT 2dc5c 178 .cfa: sp 0 +
STACK CFI 2dc60 .cfa: sp 80 +
STACK CFI 2dc74 .cfa: x29 64 + x19: .cfa -8 + ^ x20: .cfa -16 + ^ x21: .cfa -24 + ^ x22: .cfa -32 + ^ x23: .cfa -40 + ^ x24: .cfa -48 + ^ .ra: .cfa -56 + ^ x29: .cfa -64 + ^
STACK CFI 2ddb8 .cfa: sp 80 +
STACK CFI 2ddcc .cfa: sp 0 +
STACK CFI 2ddd0 .cfa: x29 64 +
STACK CFI INIT 2ddd4 240 .cfa: sp 0 +
STACK CFI 2ddd8 .cfa: sp 96 +
STACK CFI 2ddf0 .cfa: x29 96 + x19: .cfa -8 + ^ x20: .cfa -16 + ^ x21: .cfa -24 + ^ x22: .cfa -32 + ^ x23: .cfa -40 + ^ x24: .cfa -48 + ^ x25: .cfa -56 + ^ x26: .cfa -64 + ^ x27: .cfa -72 + ^ x28: .cfa -80 + ^ .ra: .cfa -88 + ^ x29: .cfa -96 + ^
STACK CFI 2dff8 .cfa: sp 96 +
STACK CFI 2e010 .cfa: sp 0 +
STACK CFI INIT 2ec88 154 .cfa: sp 0 +
STACK CFI 2ec8c .cfa: sp 96 +
STACK CFI 2eca0 .cfa: x29 64 + x19: .cfa -8 + ^ x20: .cfa -16 + ^ x21: .cfa -24 + ^ x22: .cfa -32 + ^ x23: .cfa -48 + ^ .ra: .cfa -56 + ^ x29: .cfa -64 + ^
STACK CFI 2ed80 .cfa: sp 96 +
STACK CFI 2ed94 .cfa: sp 0 +
STACK CFI 2ed98 .cfa: x29 64 +
STACK CFI INIT 2f048 44 .cfa: sp 0 +
STACK CFI 2f04c .cfa: sp 32 +
STACK CFI 2f054 .cfa: x29 32 + x19: .cfa -16 + ^ .ra: .cfa -24 + ^ x29: .cfa -32 + ^
STACK CFI 2f070 .cfa: sp 32 +
STACK CFI 2f078 .cfa: sp 0 +
STACK CFI 2f07c .cfa: x29 32 +
STACK CFI 2f080 .cfa: sp 32 +
STACK CFI 2f088 .cfa: sp 0 +
STACK CFI INIT 2f08c 1d0 .cfa: sp 0 +
STACK CFI 2f090 .cfa: sp 64 +
STACK CFI 2f0a0 .cfa: x29 64 + x19: .cfa -8 + ^ x20: .cfa -16 + ^ x21: .cfa -24 + ^ x22: .cfa -32 + ^ x23: .cfa -40 + ^ x24: .cfa -48 + ^ .ra: .cfa -56 + ^ x29: .cfa -64 + ^
STACK CFI 2f160 .cfa: sp 64 +
STACK CFI 2f170 .cfa: sp 0 +
STACK CFI 2f174 .cfa: x29 64 +
STACK CFI INIT 2f25c 17c .cfa: sp 0 +
STACK CFI INIT 2f790 a0 .cfa: sp 0 +
STACK CFI 2f794 .cfa: sp 48 +
STACK CFI 2f7a0 .cfa: x29 48 + x19: .cfa -8 + ^ x20: .cfa -16 + ^ x21: .cfa -24 + ^ x22: .cfa -32 + ^ .ra: .cfa -40 + ^ x29: .cfa -48 + ^
STACK CFI 2f80c .cfa: sp 48 +
STACK CFI 2f818 .cfa: sp 0 +
STACK CFI 2f81c .cfa: sp 48 +
STACK CFI 2f828 .cfa: sp 0 +
STACK CFI 2f82c .cfa: x29 48 +
STACK CFI INIT 304e4 158 .cfa: sp 0 +
STACK CFI 304e8 .cfa: sp 96 +
STACK CFI 304fc .cfa: x29 64 + x19: .cfa -8 + ^ x20: .cfa -16 + ^ x21: .cfa -24 + ^ x22: .cfa -32 + ^ x23: .cfa -48 + ^ .ra: .cfa -56 + ^ x29: .cfa -64 + ^
STACK CFI 305e0 .cfa: sp 96 +
STACK CFI 305f4 .cfa: sp 0 +
STACK CFI 305f8 .cfa: x29 64 +
STACK CFI INIT 3063c 190 .cfa: sp 0 +
STACK CFI INIT 312c8 1dc .cfa: sp 0 +
STACK CFI 312cc .cfa: sp 80 +
STACK CFI 312e0 .cfa: x29 80 + x19: .cfa -8 + ^ x20: .cfa -16 + ^ x21: .cfa -24 + ^ x22: .cfa -32 + ^ x23: .cfa -40 + ^ x24: .cfa -48 + ^ x25: .cfa -64 + ^ .ra: .cfa -72 + ^ x29: .cfa -80 + ^
STACK CFI 3148c .cfa: sp 80 +
STACK CFI 314a0 .cfa: sp 0 +
STACK CFI INIT 328d4 124 .cfa: sp 0 +
STACK CFI 32904 .cfa: sp 32 +
STACK CFI 3290c .cfa: x29 32 + x19: .cfa -8 + ^ x20: .cfa -16 + ^ .ra: .cfa -24 + ^ x29: .cfa -32 + ^
STACK CFI 329ec .cfa: sp 32 +
STACK CFI 329f4 .cfa: sp 0 +
STACK CFI INIT 33154 320 .cfa: sp 0 +
STACK CFI 33158 .cfa: sp 64 +
STACK CFI 33168 .cfa: x29 64 + x19: .cfa -8 + ^ x20: .cfa -16 + ^ x21: .cfa -24 + ^ x22: .cfa -32 + ^ x23: .cfa -40 + ^ x24: .cfa -48 + ^ .ra: .cfa -56 + ^ x29: .cfa -64 + ^
STACK CFI 331e4 .cfa: sp 64 +
STACK CFI 331f4 .cfa: sp 0 +
STACK CFI 331f8 .cfa: x29 64 +
STACK CFI 333cc .cfa: sp 64 +
STACK CFI 333dc .cfa: sp 0 +
STACK CFI 333e0 .cfa: x29 64 +
STACK CFI 333f0 .cfa: sp 64 +
STACK CFI 33400 .cfa: sp 0 +
STACK CFI 33404 .cfa: x29 64 +
STACK CFI INIT 33474 a0 .cfa: sp 0 +
STACK CFI 33478 .cfa: sp 48 +
STACK CFI 33484 .cfa: x29 48 + x19: .cfa -8 + ^ x20: .cfa -16 + ^ x21: .cfa -24 + ^ x22: .cfa -32 + ^ .ra: .cfa -40 + ^ x29: .cfa -48 + ^
STACK CFI 334f0 .cfa: sp 48 +
STACK CFI 334fc .cfa: sp 0 +
STACK CFI 33500 .cfa: sp 48 +
STACK CFI 3350c .cfa: sp 0 +
STACK CFI 33510 .cfa: x29 48 +
STACK CFI INIT 343c4 160 .cfa: sp 0 +
STACK CFI 343c8 .cfa: sp 64 +
STACK CFI 343d8 .cfa: x29 64 + x19: .cfa -8 + ^ x20: .cfa -16 + ^ x21: .cfa -24 + ^ x22: .cfa -32 + ^ x23: .cfa -48 + ^ .ra: .cfa -56 + ^ x29: .cfa -64 + ^
STACK CFI 344d0 .cfa: sp 64 +
STACK CFI 344e0 .cfa: sp 0 +
STACK CFI 344e4 .cfa: x29 64 +
STACK CFI INIT 34524 214 .cfa: sp 0 +
STACK CFI 34528 .cfa: sp 128 +
STACK CFI 34544 .cfa: x29 96 + x19: .cfa -8 + ^ x20: .cfa -16 + ^ x21: .cfa -24 + ^ x22: .cfa -32 + ^ x23: .cfa -40 + ^ x24: .cfa -48 + ^ x25: .cfa -56 + ^ x26: .cfa -64 + ^ x27: .cfa -80 + ^ .ra: .cfa -88 + ^ x29: .cfa -96 + ^
STACK CFI 346c0 .cfa: sp 128 +
STACK CFI 346dc .cfa: sp 0 +
STACK CFI 346e0 .cfa: x29 96 +
STACK CFI INIT 363d4 290 .cfa: sp 0 +
STACK CFI 363d8 .cfa: sp 16 +
STACK CFI 363dc .cfa: x29 16 + .ra: .cfa -8 + ^ x29: .cfa -16 + ^
STACK CFI 36468 .cfa: sp 16 +
STACK CFI 3646c .cfa: sp 0 +
STACK CFI 36470 .cfa: x29 16 +
STACK CFI 364c0 .cfa: sp 16 +
STACK CFI 364c4 .cfa: sp 0 +
STACK CFI 364c8 .cfa: x29 16 +
STACK CFI 3662c .cfa: sp 16 +
STACK CFI 36630 .cfa: sp 0 +
STACK CFI 36634 .cfa: x29 16 +
STACK CFI INIT 36664 158 .cfa: sp 0 +
STACK CFI 36668 .cfa: sp 112 +
STACK CFI 36684 .cfa: x29 96 + x19: .cfa -8 + ^ x20: .cfa -16 + ^ x21: .cfa -24 + ^ x22: .cfa -32 + ^ x23: .cfa -40 + ^ x24: .cfa -48 + ^ x25: .cfa -56 + ^ x26: .cfa -64 + ^ x27: .cfa -72 + ^ x28: .cfa -80 + ^ .ra: .cfa -88 + ^ x29: .cfa -96 + ^
STACK CFI 3676c .cfa: sp 112 +
STACK CFI 36770 .cfa: x29 96 +
STACK CFI 36778 .cfa: sp 112 +
STACK CFI 36794 .cfa: sp 0 +
STACK CFI 36798 .cfa: x29 96 +
STACK CFI 367b8 .cfa: sp 112 +
STACK CFI INIT 367bc e54 .cfa: sp 0 +
STACK CFI 367c0 .cfa: sp 192 +
STACK CFI 367dc .cfa: x29 96 + x19: .cfa -8 + ^ x20: .cfa -16 + ^ x21: .cfa -24 + ^ x22: .cfa -32 + ^ x23: .cfa -40 + ^ x24: .cfa -48 + ^ x25: .cfa -56 + ^ x26: .cfa -64 + ^ x27: .cfa -72 + ^ x28: .cfa -80 + ^ .ra: .cfa -88 + ^ x29: .cfa -96 + ^
STACK CFI 374f8 .cfa: sp 192 +
STACK CFI 37514 .cfa: sp 0 +
STACK CFI 37518 .cfa: x29 96 +
STACK CFI INIT 37610 1068 .cfa: sp 0 +
STACK CFI 37614 .cfa: sp 288 +
STACK CFI 37630 .cfa: x29 96 + x19: .cfa -8 + ^ x20: .cfa -16 + ^ x21: .cfa -24 + ^ x22: .cfa -32 + ^ x23: .cfa -40 + ^ x24: .cfa -48 + ^ x25: .cfa -56 + ^ x26: .cfa -64 + ^ x27: .cfa -72 + ^ x28: .cfa -80 + ^ .ra: .cfa -88 + ^ x29: .cfa -96 + ^
STACK CFI 383c0 .cfa: sp 288 +
STACK CFI 383dc .cfa: sp 0 +
STACK CFI 383e0 .cfa: x29 96 +
STACK CFI INIT 38678 520 .cfa: sp 0 +
STACK CFI 3867c .cfa: sp 144 +
STACK CFI 38698 .cfa: x29 96 + x19: .cfa -8 + ^ x20: .cfa -16 + ^ x21: .cfa -24 + ^ x22: .cfa -32 + ^ x23: .cfa -40 + ^ x24: .cfa -48 + ^ x25: .cfa -56 + ^ x26: .cfa -64 + ^ x27: .cfa -72 + ^ x28: .cfa -80 + ^ .ra: .cfa -88 + ^ x29: .cfa -96 + ^
STACK CFI 38b74 .cfa: sp 144 +
STACK CFI 38b90 .cfa: sp 0 +
STACK CFI 38b94 .cfa: x29 96 +
STACK CFI INIT 39538 136c .cfa: sp 0 +
STACK CFI 3953c .cfa: sp 224 +
STACK CFI 39558 .cfa: x29 96 + x19: .cfa -8 + ^ x20: .cfa -16 + ^ x21: .cfa -24 + ^ x22: .cfa -32 + ^ x23: .cfa -40 + ^ x24: .cfa -48 + ^ x25: .cfa -56 + ^ x26: .cfa -64 + ^ x27: .cfa -72 + ^ x28: .cfa -80 + ^ .ra: .cfa -88 + ^ x29: .cfa -96 + ^
STACK CFI 3a880 .cfa: sp 224 +
STACK CFI 3a89c .cfa: sp 0 +
STACK CFI 3a8a0 .cfa: x29 96 +
STACK CFI INIT 3a8a4 1b8 .cfa: sp 0 +
STACK CFI INIT 14840 c0 .cfa: sp 0 +
STACK CFI 14844 .cfa: sp 48 +
STACK CFI 14850 .cfa: x29 48 + x19: .cfa -8 + ^ x20: .cfa -16 + ^ x21: .cfa -32 + ^ .ra: .cfa -40 + ^ x29: .cfa -48 + ^
STACK CFI 148b8 .cfa: sp 48 +
STACK CFI 148c4 .cfa: sp 0 +
STACK CFI 148c8 .cfa: x29 48 +
STACK CFI INIT 14978 484 .cfa: sp 0 +
STACK CFI 1497c .cfa: sp 224 +
STACK CFI 14998 .cfa: x29 96 + x19: .cfa -8 + ^ x20: .cfa -16 + ^ x21: .cfa -24 + ^ x22: .cfa -32 + ^ x23: .cfa -40 + ^ x24: .cfa -48 + ^ x25: .cfa -56 + ^ x26: .cfa -64 + ^ x27: .cfa -72 + ^ x28: .cfa -80 + ^ .ra: .cfa -88 + ^ x29: .cfa -96 + ^
STACK CFI 14c08 .cfa: sp 224 +
STACK CFI 14c24 .cfa: sp 0 +
STACK CFI 14c28 .cfa: x29 96 +
STACK CFI 14cf4 .cfa: sp 224 +
STACK CFI 14d10 .cfa: sp 0 +
STACK CFI 14d14 .cfa: x29 96 +
STACK CFI INIT 14e14 710 .cfa: sp 0 +
STACK CFI 14e18 .cfa: sp 224 +
STACK CFI 14e34 .cfa: x29 96 + x19: .cfa -8 + ^ x20: .cfa -16 + ^ x21: .cfa -24 + ^ x22: .cfa -32 + ^ x23: .cfa -40 + ^ x24: .cfa -48 + ^ x25: .cfa -56 + ^ x26: .cfa -64 + ^ x27: .cfa -72 + ^ x28: .cfa -80 + ^ .ra: .cfa -88 + ^ x29: .cfa -96 + ^
STACK CFI 14f88 .cfa: sp 224 +
STACK CFI 14fa4 .cfa: sp 0 +
STACK CFI 14fa8 .cfa: x29 96 +
STACK CFI 153e0 .cfa: sp 224 +
STACK CFI 153fc .cfa: sp 0 +
STACK CFI 15400 .cfa: x29 96 +
STACK CFI INIT 1559c 50 .cfa: sp 0 +
STACK CFI 155a0 .cfa: sp 32 +
STACK CFI 155a8 .cfa: x29 32 + x19: .cfa -8 + ^ x20: .cfa -16 + ^ .ra: .cfa -24 + ^ x29: .cfa -32 + ^
STACK CFI INIT 15650 6c4 .cfa: sp 0 +
STACK CFI 15654 .cfa: sp 112 +
STACK CFI 15670 .cfa: x29 96 + x19: .cfa -8 + ^ x20: .cfa -16 + ^ x21: .cfa -24 + ^ x22: .cfa -32 + ^ x23: .cfa -40 + ^ x24: .cfa -48 + ^ x25: .cfa -56 + ^ x26: .cfa -64 + ^ x27: .cfa -72 + ^ x28: .cfa -80 + ^ .ra: .cfa -88 + ^ x29: .cfa -96 + ^
STACK CFI 157b4 .cfa: sp 112 +
STACK CFI 157d0 .cfa: sp 0 +
STACK CFI 157d4 .cfa: x29 96 +
STACK CFI 157e0 .cfa: sp 112 +
STACK CFI 157fc .cfa: sp 0 +
STACK CFI 15800 .cfa: x29 96 +
STACK CFI 15c9c .cfa: sp 112 +
STACK CFI 15cb8 .cfa: sp 0 +
STACK CFI 15cbc .cfa: x29 96 +
STACK CFI INIT 15d14 4c .cfa: sp 0 +
STACK CFI 15d18 .cfa: sp 32 +
STACK CFI 15d20 .cfa: x29 32 + x19: .cfa -8 + ^ x20: .cfa -16 + ^ .ra: .cfa -24 + ^ x29: .cfa -32 + ^
STACK CFI INIT 162e4 4c .cfa: sp 0 +
STACK CFI 162e8 .cfa: sp 32 +
STACK CFI 162f0 .cfa: x29 32 + x19: .cfa -8 + ^ x20: .cfa -16 + ^ .ra: .cfa -24 + ^ x29: .cfa -32 + ^
STACK CFI INIT 16448 364 .cfa: sp 0 +
STACK CFI 1644c .cfa: sp 144 +
STACK CFI 16460 .cfa: x29 64 + x19: .cfa -8 + ^ x20: .cfa -16 + ^ x21: .cfa -24 + ^ x22: .cfa -32 + ^ x23: .cfa -48 + ^ .ra: .cfa -56 + ^ x29: .cfa -64 + ^
STACK CFI 165f4 .cfa: sp 144 +
STACK CFI 16608 .cfa: sp 0 +
STACK CFI 1660c .cfa: x29 64 +
STACK CFI INIT 167ac 644 .cfa: sp 0 +
STACK CFI 167b0 .cfa: sp 64 +
STACK CFI 167c0 .cfa: x29 64 + x19: .cfa -8 + ^ x20: .cfa -16 + ^ x21: .cfa -24 + ^ x22: .cfa -32 + ^ x23: .cfa -48 + ^ .ra: .cfa -56 + ^ x29: .cfa -64 + ^
STACK CFI 1682c .cfa: sp 64 +
STACK CFI 1683c .cfa: sp 0 +
STACK CFI 16840 .cfa: x29 64 +
STACK CFI 16890 .cfa: sp 64 +
STACK CFI 168a0 .cfa: sp 0 +
STACK CFI 168a4 .cfa: x29 64 +
STACK CFI 16920 .cfa: sp 64 +
STACK CFI 16930 .cfa: sp 0 +
STACK CFI 16934 .cfa: x29 64 +
STACK CFI 16a24 .cfa: sp 64 +
STACK CFI 16a34 .cfa: sp 0 +
STACK CFI 16a38 .cfa: x29 64 +
STACK CFI 16ac8 .cfa: sp 64 +
STACK CFI 16ad8 .cfa: sp 0 +
STACK CFI 16adc .cfa: x29 64 +
STACK CFI 16af4 .cfa: sp 64 +
STACK CFI 16b04 .cfa: sp 0 +
STACK CFI 16b08 .cfa: x29 64 +
STACK CFI 16c90 .cfa: sp 64 +
STACK CFI 16ca0 .cfa: sp 0 +
STACK CFI 16ca4 .cfa: x29 64 +
STACK CFI 16cb8 .cfa: sp 64 +
STACK CFI 16cc8 .cfa: sp 0 +
STACK CFI 16ccc .cfa: x29 64 +
STACK CFI 16d54 .cfa: sp 64 +
STACK CFI 16d64 .cfa: sp 0 +
STACK CFI 16d68 .cfa: x29 64 +
STACK CFI INIT 171e4 6c .cfa: sp 0 +
STACK CFI 171e8 .cfa: sp 32 +
STACK CFI 171f0 .cfa: x29 32 + x19: .cfa -8 + ^ x20: .cfa -16 + ^ .ra: .cfa -24 + ^ x29: .cfa -32 + ^
STACK CFI 17230 .cfa: sp 32 +
STACK CFI 17238 .cfa: sp 0 +
STACK CFI 1723c .cfa: x29 32 +
STACK CFI INIT 17304 4c .cfa: sp 0 +
STACK CFI 17308 .cfa: sp 32 +
STACK CFI 17310 .cfa: x29 32 + x19: .cfa -8 + ^ x20: .cfa -16 + ^ .ra: .cfa -24 + ^ x29: .cfa -32 + ^
STACK CFI INIT 17778 1d4 .cfa: sp 0 +
STACK CFI 1777c .cfa: sp 176 +
STACK CFI 1778c .cfa: x29 48 + x19: .cfa -8 + ^ x20: .cfa -16 + ^ x21: .cfa -24 + ^ x22: .cfa -32 + ^ .ra: .cfa -40 + ^ x29: .cfa -48 + ^
STACK CFI 178e4 .cfa: sp 176 +
STACK CFI 178f4 .cfa: sp 0 +
STACK CFI 178f8 .cfa: x29 48 +
STACK CFI 17908 .cfa: sp 176 +
STACK CFI 17918 .cfa: sp 0 +
STACK CFI 1791c .cfa: x29 48 +
STACK CFI INIT 1794c 44c .cfa: sp 0 +
STACK CFI 17950 .cfa: sp 256 +
STACK CFI 1796c .cfa: x29 96 + x19: .cfa -8 + ^ x20: .cfa -16 + ^ x21: .cfa -24 + ^ x22: .cfa -32 + ^ x23: .cfa -40 + ^ x24: .cfa -48 + ^ x25: .cfa -56 + ^ x26: .cfa -64 + ^ x27: .cfa -72 + ^ x28: .cfa -80 + ^ .ra: .cfa -88 + ^ x29: .cfa -96 + ^
STACK CFI 17c9c .cfa: sp 256 +
STACK CFI 17cb8 .cfa: sp 0 +
STACK CFI 17cbc .cfa: x29 96 +
STACK CFI INIT 17fc0 4c .cfa: sp 0 +
STACK CFI 17fc4 .cfa: sp 32 +
STACK CFI 17fcc .cfa: x29 32 + x19: .cfa -8 + ^ x20: .cfa -16 + ^ .ra: .cfa -24 + ^ x29: .cfa -32 + ^
STACK CFI INIT 1800c 170 .cfa: sp 0 +
STACK CFI 18010 .cfa: sp 80 +
STACK CFI 18024 .cfa: x29 80 + x19: .cfa -8 + ^ x20: .cfa -16 + ^ x21: .cfa -24 + ^ x22: .cfa -32 + ^ x23: .cfa -40 + ^ x24: .cfa -48 + ^ x25: .cfa -64 + ^ .ra: .cfa -72 + ^ x29: .cfa -80 + ^
STACK CFI 18118 .cfa: sp 80 +
STACK CFI 1812c .cfa: sp 0 +
STACK CFI 18130 .cfa: x29 80 +
STACK CFI INIT 1817c 4c .cfa: sp 0 +
STACK CFI 18180 .cfa: sp 32 +
STACK CFI 18188 .cfa: x29 32 + x19: .cfa -8 + ^ x20: .cfa -16 + ^ .ra: .cfa -24 + ^ x29: .cfa -32 + ^
STACK CFI INIT 18738 10f4 .cfa: sp 0 +
STACK CFI 1873c .cfa: sp 432 +
STACK CFI 18758 .cfa: x29 96 + x19: .cfa -8 + ^ x20: .cfa -16 + ^ x21: .cfa -24 + ^ x22: .cfa -32 + ^ x23: .cfa -40 + ^ x24: .cfa -48 + ^ x25: .cfa -56 + ^ x26: .cfa -64 + ^ x27: .cfa -72 + ^ x28: .cfa -80 + ^ .ra: .cfa -88 + ^ x29: .cfa -96 + ^
STACK CFI 19540 .cfa: sp 432 +
STACK CFI 1955c .cfa: sp 0 +
STACK CFI 19560 .cfa: x29 96 +
STACK CFI INIT 1982c 4c .cfa: sp 0 +
STACK CFI 19830 .cfa: sp 32 +
STACK CFI 19838 .cfa: x29 32 + x19: .cfa -8 + ^ x20: .cfa -16 + ^ .ra: .cfa -24 + ^ x29: .cfa -32 + ^
STACK CFI INIT 198c0 4c .cfa: sp 0 +
STACK CFI 198c4 .cfa: sp 32 +
STACK CFI 198cc .cfa: x29 32 + x19: .cfa -8 + ^ x20: .cfa -16 + ^ .ra: .cfa -24 + ^ x29: .cfa -32 + ^
STACK CFI INIT 19e18 140 .cfa: sp 0 +
STACK CFI 19e1c .cfa: sp 48 +
STACK CFI 19e28 .cfa: x29 48 + x19: .cfa -8 + ^ x20: .cfa -16 + ^ x21: .cfa -32 + ^ .ra: .cfa -40 + ^ x29: .cfa -48 + ^
STACK CFI 19f08 .cfa: sp 48 +
STACK CFI 19f14 .cfa: sp 0 +
STACK CFI 19f18 .cfa: x29 48 +
STACK CFI INIT 19f58 4c .cfa: sp 0 +
STACK CFI 19f5c .cfa: sp 32 +
STACK CFI 19f64 .cfa: x29 32 + x19: .cfa -8 + ^ x20: .cfa -16 + ^ .ra: .cfa -24 + ^ x29: .cfa -32 + ^
STACK CFI INIT 1abe4 1dc .cfa: sp 0 +
STACK CFI 1abe8 .cfa: sp 128 +
STACK CFI 1ac00 .cfa: x29 80 + x19: .cfa -8 + ^ x20: .cfa -16 + ^ x21: .cfa -24 + ^ x22: .cfa -32 + ^ x23: .cfa -40 + ^ x24: .cfa -48 + ^ x25: .cfa -64 + ^ .ra: .cfa -72 + ^ x29: .cfa -80 + ^
STACK CFI 1acf4 .cfa: sp 128 +
STACK CFI 1ad0c .cfa: sp 0 +
STACK CFI 1ad10 .cfa: x29 80 +
STACK CFI INIT 1b050 c6c .cfa: sp 0 +
STACK CFI 1b054 .cfa: sp 256 +
STACK CFI 1b070 .cfa: x29 96 + x19: .cfa -8 + ^ x20: .cfa -16 + ^ x21: .cfa -24 + ^ x22: .cfa -32 + ^ x23: .cfa -40 + ^ x24: .cfa -48 + ^ x25: .cfa -56 + ^ x26: .cfa -64 + ^ x27: .cfa -72 + ^ x28: .cfa -80 + ^ .ra: .cfa -88 + ^ x29: .cfa -96 + ^
STACK CFI 1bbf8 .cfa: sp 256 +
STACK CFI 1bc14 .cfa: sp 0 +
STACK CFI 1bc18 .cfa: x29 96 +
STACK CFI INIT 1bed0 1c4 .cfa: sp 0 +
STACK CFI 1bed4 .cfa: sp 112 +
STACK CFI 1beec .cfa: x29 80 + x19: .cfa -8 + ^ x20: .cfa -16 + ^ x21: .cfa -24 + ^ x22: .cfa -32 + ^ x23: .cfa -40 + ^ x24: .cfa -48 + ^ x25: .cfa -56 + ^ x26: .cfa -64 + ^ .ra: .cfa -72 + ^ x29: .cfa -80 + ^
STACK CFI 1c018 .cfa: sp 112 +
STACK CFI 1c030 .cfa: sp 0 +
STACK CFI 1c034 .cfa: x29 80 +
STACK CFI INIT 1c0a8 4c .cfa: sp 0 +
STACK CFI 1c0ac .cfa: sp 32 +
STACK CFI 1c0b4 .cfa: x29 32 + x19: .cfa -8 + ^ x20: .cfa -16 + ^ .ra: .cfa -24 + ^ x29: .cfa -32 + ^
STACK CFI INIT 1cfa0 4c .cfa: sp 0 +
STACK CFI 1cfa4 .cfa: sp 32 +
STACK CFI 1cfac .cfa: x29 32 + x19: .cfa -8 + ^ x20: .cfa -16 + ^ .ra: .cfa -24 + ^ x29: .cfa -32 + ^
STACK CFI INIT 1cfec 2b4 .cfa: sp 0 +
STACK CFI 1cff0 .cfa: sp 144 +
STACK CFI 1d008 .cfa: x29 80 + x19: .cfa -8 + ^ x20: .cfa -16 + ^ x21: .cfa -24 + ^ x22: .cfa -32 + ^ x23: .cfa -40 + ^ x24: .cfa -48 + ^ x25: .cfa -56 + ^ x26: .cfa -64 + ^ .ra: .cfa -72 + ^ x29: .cfa -80 + ^
STACK CFI 1d20c .cfa: sp 144 +
STACK CFI 1d224 .cfa: sp 0 +
STACK CFI 1d228 .cfa: x29 80 +
STACK CFI INIT 1d2a0 224 .cfa: sp 0 +
STACK CFI 1d2a4 .cfa: sp 128 +
STACK CFI 1d2bc .cfa: x29 80 + x19: .cfa -8 + ^ x20: .cfa -16 + ^ x21: .cfa -24 + ^ x22: .cfa -32 + ^ x23: .cfa -40 + ^ x24: .cfa -48 + ^ x25: .cfa -64 + ^ .ra: .cfa -72 + ^ x29: .cfa -80 + ^
STACK CFI 1d458 .cfa: sp 128 +
STACK CFI 1d470 .cfa: sp 0 +
STACK CFI 1d474 .cfa: x29 80 +
STACK CFI INIT 1d5c0 4c .cfa: sp 0 +
STACK CFI 1d5c4 .cfa: sp 32 +
STACK CFI 1d5cc .cfa: x29 32 + x19: .cfa -8 + ^ x20: .cfa -16 + ^ .ra: .cfa -24 + ^ x29: .cfa -32 + ^
STACK CFI INIT 1d60c 1b4 .cfa: sp 0 +
STACK CFI 1d610 .cfa: sp 112 +
STACK CFI 1d628 .cfa: x29 80 + x19: .cfa -8 + ^ x20: .cfa -16 + ^ x21: .cfa -24 + ^ x22: .cfa -32 + ^ x23: .cfa -40 + ^ x24: .cfa -48 + ^ x25: .cfa -64 + ^ .ra: .cfa -72 + ^ x29: .cfa -80 + ^
STACK CFI 1d75c .cfa: sp 112 +
STACK CFI 1d774 .cfa: sp 0 +
STACK CFI 1d778 .cfa: x29 80 +
STACK CFI INIT 1d7c0 4c .cfa: sp 0 +
STACK CFI 1d7c4 .cfa: sp 32 +
STACK CFI 1d7cc .cfa: x29 32 + x19: .cfa -8 + ^ x20: .cfa -16 + ^ .ra: .cfa -24 + ^ x29: .cfa -32 + ^
STACK CFI INIT 1dad4 140 .cfa: sp 0 +
STACK CFI 1dad8 .cfa: sp 96 +
STACK CFI 1daf0 .cfa: x29 96 + x19: .cfa -8 + ^ x20: .cfa -16 + ^ x21: .cfa -24 + ^ x22: .cfa -32 + ^ x23: .cfa -40 + ^ x24: .cfa -48 + ^ x25: .cfa -56 + ^ x26: .cfa -64 + ^ x27: .cfa -72 + ^ x28: .cfa -80 + ^ .ra: .cfa -88 + ^ x29: .cfa -96 + ^
STACK CFI 1dbac .cfa: sp 96 +
STACK CFI 1dbc4 .cfa: sp 0 +
STACK CFI 1dbc8 .cfa: x29 96 +
STACK CFI INIT 1dc14 4c .cfa: sp 0 +
STACK CFI 1dc18 .cfa: sp 32 +
STACK CFI 1dc20 .cfa: x29 32 + x19: .cfa -8 + ^ x20: .cfa -16 + ^ .ra: .cfa -24 + ^ x29: .cfa -32 + ^
STACK CFI INIT 1dc60 4c .cfa: sp 0 +
STACK CFI 1dc64 .cfa: sp 32 +
STACK CFI 1dc6c .cfa: x29 32 + x19: .cfa -8 + ^ x20: .cfa -16 + ^ .ra: .cfa -24 + ^ x29: .cfa -32 + ^
STACK CFI INIT 1e13c 4c .cfa: sp 0 +
STACK CFI 1e140 .cfa: sp 32 +
STACK CFI 1e148 .cfa: x29 32 + x19: .cfa -8 + ^ x20: .cfa -16 + ^ .ra: .cfa -24 + ^ x29: .cfa -32 + ^
STACK CFI INIT 1eb54 a48 .cfa: sp 0 +
STACK CFI 1eb58 .cfa: sp 288 +
STACK CFI 1eb74 .cfa: x29 96 + x19: .cfa -8 + ^ x20: .cfa -16 + ^ x21: .cfa -24 + ^ x22: .cfa -32 + ^ x23: .cfa -40 + ^ x24: .cfa -48 + ^ x25: .cfa -56 + ^ x26: .cfa -64 + ^ x28: .cfa -80 + ^ .ra: .cfa -88 + ^ x29: .cfa -96 + ^
STACK CFI 1f29c .cfa: sp 288 +
STACK CFI 1f2b8 .cfa: sp 0 +
STACK CFI 1f2bc .cfa: x29 96 +
STACK CFI INIT 1f5ec 74 .cfa: sp 0 +
STACK CFI 1f5f0 .cfa: sp 48 +
STACK CFI 1f5fc .cfa: x29 32 + x19: .cfa -8 + ^ x20: .cfa -16 + ^ .ra: .cfa -24 + ^ x29: .cfa -32 + ^
STACK CFI 1f648 .cfa: sp 48 +
STACK CFI 1f654 .cfa: sp 0 +
STACK CFI 1f658 .cfa: x29 32 +
STACK CFI INIT 1f664 154 .cfa: sp 0 +
STACK CFI 1f668 .cfa: sp 384 +
STACK CFI 1f67c .cfa: x29 64 + x19: .cfa -8 + ^ x20: .cfa -16 + ^ x21: .cfa -24 + ^ x22: .cfa -32 + ^ x23: .cfa -40 + ^ x28: .cfa -48 + ^ .ra: .cfa -56 + ^ x29: .cfa -64 + ^
STACK CFI 1f760 .cfa: sp 384 +
STACK CFI 1f774 .cfa: sp 0 +
STACK CFI 1f778 .cfa: x29 64 +
STACK CFI INIT 1f7ec 12c .cfa: sp 0 +
STACK CFI 1f7f0 .cfa: sp 80 +
STACK CFI 1f804 .cfa: x29 80 + x19: .cfa -8 + ^ x20: .cfa -16 + ^ x21: .cfa -24 + ^ x22: .cfa -32 + ^ x23: .cfa -40 + ^ x24: .cfa -48 + ^ x25: .cfa -56 + ^ x26: .cfa -64 + ^ .ra: .cfa -72 + ^ x29: .cfa -80 + ^
STACK CFI 1f8cc .cfa: sp 80 +
STACK CFI 1f8e0 .cfa: sp 0 +
STACK CFI 1f8e4 .cfa: x29 80 +
STACK CFI INIT 1f9bc 1a4 .cfa: sp 0 +
STACK CFI 1f9c0 .cfa: sp 112 +
STACK CFI 1f9d8 .cfa: x29 80 + x19: .cfa -8 + ^ x20: .cfa -16 + ^ x21: .cfa -24 + ^ x22: .cfa -32 + ^ x23: .cfa -40 + ^ x24: .cfa -48 + ^ x25: .cfa -56 + ^ x26: .cfa -64 + ^ .ra: .cfa -72 + ^ x29: .cfa -80 + ^
STACK CFI 1fac8 .cfa: sp 112 +
STACK CFI 1fae0 .cfa: sp 0 +
STACK CFI 1fae4 .cfa: x29 80 +
STACK CFI INIT 1fb60 1dc .cfa: sp 0 +
STACK CFI 1fb64 .cfa: sp 128 +
STACK CFI 1fb80 .cfa: x29 96 + x19: .cfa -8 + ^ x20: .cfa -16 + ^ x21: .cfa -24 + ^ x22: .cfa -32 + ^ x23: .cfa -40 + ^ x24: .cfa -48 + ^ x25: .cfa -56 + ^ x26: .cfa -64 + ^ x27: .cfa -80 + ^ .ra: .cfa -88 + ^ x29: .cfa -96 + ^
STACK CFI 1fcec .cfa: sp 128 +
STACK CFI 1fd08 .cfa: sp 0 +
STACK CFI 1fd0c .cfa: x29 96 +
STACK CFI INIT 1fd3c 178 .cfa: sp 0 +
STACK CFI 1fd40 .cfa: sp 80 +
STACK CFI 1fd54 .cfa: x29 80 + x19: .cfa -8 + ^ x20: .cfa -16 + ^ x21: .cfa -24 + ^ x22: .cfa -32 + ^ x23: .cfa -40 + ^ x24: .cfa -48 + ^ x25: .cfa -64 + ^ .ra: .cfa -72 + ^ x29: .cfa -80 + ^
STACK CFI 1fe80 .cfa: sp 80 +
STACK CFI 1fe94 .cfa: sp 0 +
STACK CFI 1fe98 .cfa: x29 80 +
STACK CFI INIT 2065c 3e0 .cfa: sp 0 +
STACK CFI 20660 .cfa: sp 128 +
STACK CFI 20680 .cfa: x29 72 + x19: .cfa -8 + ^ x20: .cfa -16 + ^ x21: .cfa -24 + ^ x22: .cfa -32 + ^ x23: .cfa -40 + ^ x24: .cfa -48 + ^ x25: .cfa -56 + ^ .ra: .cfa -64 + ^ x29: .cfa -72 + ^ v8: .cfa -80 + ^ v9: .cfa -88 + ^ v10: .cfa -96 + ^
STACK CFI 209e4 .cfa: sp 128 +
STACK CFI 20a04 .cfa: sp 0 +
STACK CFI 20a08 .cfa: x29 72 +
STACK CFI INIT 20a3c d18 .cfa: sp 0 +
STACK CFI 20a40 .cfa: sp 192 +
STACK CFI 20a60 .cfa: x29 72 + x19: .cfa -8 + ^ x20: .cfa -16 + ^ x21: .cfa -24 + ^ x22: .cfa -32 + ^ x23: .cfa -40 + ^ x24: .cfa -48 + ^ x25: .cfa -56 + ^ .ra: .cfa -64 + ^ x29: .cfa -72 + ^ v8: .cfa -80 + ^ v9: .cfa -88 + ^ v10: .cfa -96 + ^
STACK CFI 21694 .cfa: sp 192 +
STACK CFI 216b4 .cfa: sp 0 +
STACK CFI 216b8 .cfa: x29 72 +
STACK CFI INIT 21754 184 .cfa: sp 0 +
STACK CFI 21758 .cfa: sp 160 +
STACK CFI 21770 .cfa: x29 80 + x19: .cfa -8 + ^ x20: .cfa -16 + ^ x21: .cfa -24 + ^ x22: .cfa -32 + ^ x23: .cfa -40 + ^ x24: .cfa -48 + ^ x25: .cfa -56 + ^ x26: .cfa -64 + ^ .ra: .cfa -72 + ^ x29: .cfa -80 + ^
STACK CFI 21870 .cfa: sp 160 +
STACK CFI 21888 .cfa: sp 0 +
STACK CFI 2188c .cfa: x29 80 +
STACK CFI INIT 21950 a8 .cfa: sp 0 +
STACK CFI 21954 .cfa: sp 32 +
STACK CFI 2195c .cfa: x29 32 + x19: .cfa -16 + ^ .ra: .cfa -24 + ^ x29: .cfa -32 + ^
STACK CFI 21990 .cfa: sp 32 +
STACK CFI 21998 .cfa: sp 0 +
STACK CFI 2199c .cfa: x29 32 +
STACK CFI 219a0 .cfa: sp 32 +
STACK CFI 219a8 .cfa: sp 0 +
STACK CFI 219ac .cfa: x29 32 +
STACK CFI INIT 21b74 8c0 .cfa: sp 0 +
STACK CFI 21b78 .cfa: sp 96 +
STACK CFI 21b90 .cfa: x29 96 + x19: .cfa -8 + ^ x20: .cfa -16 + ^ x21: .cfa -24 + ^ x22: .cfa -32 + ^ x23: .cfa -40 + ^ x24: .cfa -48 + ^ x25: .cfa -56 + ^ x26: .cfa -64 + ^ x27: .cfa -72 + ^ x28: .cfa -80 + ^ .ra: .cfa -88 + ^ x29: .cfa -96 + ^
STACK CFI 22364 .cfa: sp 96 +
STACK CFI 2237c .cfa: sp 0 +
STACK CFI 22380 .cfa: x29 96 +
STACK CFI INIT 22434 654 .cfa: sp 0 +
STACK CFI 22438 .cfa: sp 224 +
STACK CFI 22454 .cfa: x29 96 + x19: .cfa -8 + ^ x20: .cfa -16 + ^ x21: .cfa -24 + ^ x22: .cfa -32 + ^ x23: .cfa -40 + ^ x24: .cfa -48 + ^ x25: .cfa -56 + ^ x26: .cfa -64 + ^ x27: .cfa -72 + ^ x28: .cfa -80 + ^ .ra: .cfa -88 + ^ x29: .cfa -96 + ^
STACK CFI 22918 .cfa: sp 224 +
STACK CFI 22934 .cfa: sp 0 +
STACK CFI 22938 .cfa: x29 96 +
STACK CFI INIT 22ad4 50 .cfa: sp 0 +
STACK CFI 22ad8 .cfa: sp 32 +
STACK CFI 22ae0 .cfa: x29 32 + x19: .cfa -8 + ^ x20: .cfa -16 + ^ .ra: .cfa -24 + ^ x29: .cfa -32 + ^
STACK CFI INIT 22f5c 430 .cfa: sp 0 +
STACK CFI 22f60 .cfa: sp 96 +
STACK CFI 22f78 .cfa: x29 96 + x19: .cfa -8 + ^ x20: .cfa -16 + ^ x21: .cfa -24 + ^ x22: .cfa -32 + ^ x23: .cfa -40 + ^ x24: .cfa -48 + ^ x25: .cfa -56 + ^ x26: .cfa -64 + ^ x27: .cfa -72 + ^ x28: .cfa -80 + ^ .ra: .cfa -88 + ^ x29: .cfa -96 + ^
STACK CFI 232b8 .cfa: sp 96 +
STACK CFI 232d0 .cfa: sp 0 +
STACK CFI 232d4 .cfa: x29 96 +
STACK CFI INIT 23a08 ea8 .cfa: sp 0 +
STACK CFI 23a0c .cfa: sp 384 +
STACK CFI 23a28 .cfa: x29 96 + x19: .cfa -8 + ^ x20: .cfa -16 + ^ x21: .cfa -24 + ^ x22: .cfa -32 + ^ x23: .cfa -40 + ^ x24: .cfa -48 + ^ x25: .cfa -56 + ^ x26: .cfa -64 + ^ x27: .cfa -72 + ^ x28: .cfa -80 + ^ .ra: .cfa -88 + ^ x29: .cfa -96 + ^
STACK CFI 24788 .cfa: sp 384 +
STACK CFI 247a4 .cfa: sp 0 +
STACK CFI 247a8 .cfa: x29 96 +
STACK CFI INIT 248b0 a00 .cfa: sp 0 +
STACK CFI 248b4 .cfa: sp 416 +
STACK CFI 248d0 .cfa: x29 96 + x19: .cfa -8 + ^ x20: .cfa -16 + ^ x21: .cfa -24 + ^ x22: .cfa -32 + ^ x23: .cfa -40 + ^ x24: .cfa -48 + ^ x25: .cfa -56 + ^ x26: .cfa -64 + ^ x27: .cfa -72 + ^ x28: .cfa -80 + ^ .ra: .cfa -88 + ^ x29: .cfa -96 + ^
STACK CFI 249f8 .cfa: sp 416 +
STACK CFI 24a14 .cfa: sp 0 +
STACK CFI 24a18 .cfa: x29 96 +
STACK CFI INIT 25478 5f0 .cfa: sp 0 +
STACK CFI 2547c .cfa: sp 112 +
STACK CFI 25498 .cfa: x29 96 + x19: .cfa -8 + ^ x20: .cfa -16 + ^ x21: .cfa -24 + ^ x22: .cfa -32 + ^ x23: .cfa -40 + ^ x24: .cfa -48 + ^ x25: .cfa -56 + ^ x26: .cfa -64 + ^ x27: .cfa -80 + ^ .ra: .cfa -88 + ^ x29: .cfa -96 + ^
STACK CFI 2573c .cfa: sp 112 +
STACK CFI 25758 .cfa: sp 0 +
STACK CFI 2575c .cfa: x29 96 +
STACK CFI 25950 .cfa: sp 112 +
STACK CFI 2596c .cfa: sp 0 +
STACK CFI 25970 .cfa: x29 96 +
STACK CFI INIT 26234 108 .cfa: sp 0 +
STACK CFI 26238 .cfa: sp 96 +
STACK CFI 2624c .cfa: x29 64 + x19: .cfa -8 + ^ x20: .cfa -16 + ^ x21: .cfa -24 + ^ x22: .cfa -32 + ^ x23: .cfa -48 + ^ .ra: .cfa -56 + ^ x29: .cfa -64 + ^
STACK CFI 262f4 .cfa: sp 96 +
STACK CFI 26308 .cfa: sp 0 +
STACK CFI 2630c .cfa: x29 64 +
STACK CFI INIT 266d4 ca4 .cfa: sp 0 +
STACK CFI 266d8 .cfa: sp 256 +
STACK CFI 266f4 .cfa: x29 96 + x19: .cfa -8 + ^ x20: .cfa -16 + ^ x21: .cfa -24 + ^ x22: .cfa -32 + ^ x23: .cfa -40 + ^ x24: .cfa -48 + ^ x25: .cfa -56 + ^ x26: .cfa -64 + ^ x27: .cfa -80 + ^ .ra: .cfa -88 + ^ x29: .cfa -96 + ^
STACK CFI 270b4 .cfa: sp 256 +
STACK CFI 270d0 .cfa: sp 0 +
STACK CFI 270d4 .cfa: x29 96 +
STACK CFI INIT 2737c 168 .cfa: sp 0 +
STACK CFI 27380 .cfa: sp 384 +
STACK CFI 27394 .cfa: x29 64 + x19: .cfa -8 + ^ x20: .cfa -16 + ^ x21: .cfa -24 + ^ x22: .cfa -32 + ^ x23: .cfa -40 + ^ x28: .cfa -48 + ^ .ra: .cfa -56 + ^ x29: .cfa -64 + ^
STACK CFI 2748c .cfa: sp 384 +
STACK CFI 274a0 .cfa: sp 0 +
STACK CFI 274a4 .cfa: x29 64 +
STACK CFI INIT 274fc 69c .cfa: sp 0 +
STACK CFI 27500 .cfa: sp 400 +
STACK CFI 27524 .cfa: x29 96 + x19: .cfa -8 + ^ x20: .cfa -16 + ^ x21: .cfa -24 + ^ x22: .cfa -32 + ^ x23: .cfa -40 + ^ x24: .cfa -48 + ^ x25: .cfa -56 + ^ x26: .cfa -64 + ^ x27: .cfa -72 + ^ x28: .cfa -80 + ^ .ra: .cfa -88 + ^ x29: .cfa -96 + ^ v8: .cfa -104 + ^ v9: .cfa -112 + ^ v10: .cfa -128 + ^
STACK CFI 2796c .cfa: sp 400 +
STACK CFI 27990 .cfa: sp 0 +
STACK CFI 27994 .cfa: x29 96 +
STACK CFI INIT 27cdc 134 .cfa: sp 0 +
STACK CFI 27ce0 .cfa: sp 80 +
STACK CFI 27cec .cfa: x29 32 + x19: .cfa -8 + ^ x20: .cfa -16 + ^ .ra: .cfa -24 + ^ x29: .cfa -32 + ^
STACK CFI 27d1c .cfa: sp 80 +
STACK CFI 27d28 .cfa: sp 0 +
STACK CFI 27d2c .cfa: x29 32 +
STACK CFI INIT 27e10 78 .cfa: sp 0 +
STACK CFI 27e14 .cfa: sp 32 +
STACK CFI 27e1c .cfa: x29 32 + x19: .cfa -8 + ^ x20: .cfa -16 + ^ .ra: .cfa -24 + ^ x29: .cfa -32 + ^
STACK CFI 27e28 .cfa: sp 32 +
STACK CFI 27e30 .cfa: sp 0 +
STACK CFI 27e34 .cfa: x29 32 +
STACK CFI INIT 27e88 74 .cfa: sp 0 +
STACK CFI 27e8c .cfa: sp 48 +
STACK CFI 27e98 .cfa: x29 32 + x19: .cfa -8 + ^ x20: .cfa -16 + ^ .ra: .cfa -24 + ^ x29: .cfa -32 + ^
STACK CFI 27ee4 .cfa: sp 48 +
STACK CFI 27ef0 .cfa: sp 0 +
STACK CFI 27ef4 .cfa: x29 32 +
STACK CFI INIT 27f60 104 .cfa: sp 0 +
STACK CFI 27f64 .cfa: sp 48 +
STACK CFI 27f70 .cfa: x29 48 + x19: .cfa -8 + ^ x20: .cfa -16 + ^ x21: .cfa -24 + ^ x22: .cfa -32 + ^ .ra: .cfa -40 + ^ x29: .cfa -48 + ^
STACK CFI 28020 .cfa: sp 48 +
STACK CFI 2802c .cfa: sp 0 +
STACK CFI 28030 .cfa: x29 48 +
STACK CFI INIT 28064 168 .cfa: sp 0 +
STACK CFI 28068 .cfa: sp 144 +
STACK CFI 2807c .cfa: x29 64 + x19: .cfa -8 + ^ x20: .cfa -16 + ^ x21: .cfa -24 + ^ x22: .cfa -32 + ^ x23: .cfa -40 + ^ x24: .cfa -48 + ^ .ra: .cfa -56 + ^ x29: .cfa -64 + ^
STACK CFI 280d4 .cfa: sp 144 +
STACK CFI 280e8 .cfa: sp 0 +
STACK CFI 280ec .cfa: x29 64 +
STACK CFI INIT 281cc 1e8 .cfa: sp 0 +
STACK CFI 281d0 .cfa: sp 192 +
STACK CFI 281f4 .cfa: x29 88 + x19: .cfa -8 + ^ x20: .cfa -16 + ^ x21: .cfa -24 + ^ x22: .cfa -32 + ^ x23: .cfa -40 + ^ x24: .cfa -48 + ^ x25: .cfa -56 + ^ x26: .cfa -64 + ^ x27: .cfa -72 + ^ .ra: .cfa -80 + ^ x29: .cfa -88 + ^ v8: .cfa -96 + ^ v9: .cfa -104 + ^ v10: .cfa -112 + ^
STACK CFI 28298 .cfa: sp 192 +
STACK CFI 282bc .cfa: sp 0 +
STACK CFI 282c0 .cfa: x29 88 +
STACK CFI INIT 283b4 8f8 .cfa: sp 0 +
STACK CFI 283b8 .cfa: sp 112 +
STACK CFI 283d0 .cfa: x29 80 + x19: .cfa -8 + ^ x20: .cfa -16 + ^ x21: .cfa -24 + ^ x22: .cfa -32 + ^ x23: .cfa -40 + ^ x24: .cfa -48 + ^ x25: .cfa -64 + ^ .ra: .cfa -72 + ^ x29: .cfa -80 + ^
STACK CFI 28be8 .cfa: sp 112 +
STACK CFI 28c00 .cfa: sp 0 +
STACK CFI 28c04 .cfa: x29 80 +
STACK CFI INIT 28cac 154 .cfa: sp 0 +
STACK CFI 28cb0 .cfa: sp 384 +
STACK CFI 28cc4 .cfa: x29 64 + x19: .cfa -8 + ^ x20: .cfa -16 + ^ x21: .cfa -24 + ^ x22: .cfa -32 + ^ x23: .cfa -40 + ^ x28: .cfa -48 + ^ .ra: .cfa -56 + ^ x29: .cfa -64 + ^
STACK CFI 28da8 .cfa: sp 384 +
STACK CFI 28dbc .cfa: sp 0 +
STACK CFI 28dc0 .cfa: x29 64 +
STACK CFI INIT 29148 294 .cfa: sp 0 +
STACK CFI 2914c .cfa: sp 240 +
STACK CFI 29164 .cfa: x29 80 + x19: .cfa -8 + ^ x20: .cfa -16 + ^ x21: .cfa -24 + ^ x22: .cfa -32 + ^ x23: .cfa -40 + ^ x24: .cfa -48 + ^ x25: .cfa -64 + ^ .ra: .cfa -72 + ^ x29: .cfa -80 + ^
STACK CFI 29304 .cfa: sp 240 +
STACK CFI 2931c .cfa: sp 0 +
STACK CFI 29320 .cfa: x29 80 +
STACK CFI INIT 29458 50 .cfa: sp 0 +
STACK CFI 2945c .cfa: sp 32 +
STACK CFI 29464 .cfa: x29 32 + x19: .cfa -8 + ^ x20: .cfa -16 + ^ .ra: .cfa -24 + ^ x29: .cfa -32 + ^
STACK CFI INIT 294d4 7c0 .cfa: sp 0 +
STACK CFI 294d8 .cfa: sp 320 +
STACK CFI 294f4 .cfa: x29 96 + x19: .cfa -8 + ^ x20: .cfa -16 + ^ x21: .cfa -24 + ^ x22: .cfa -32 + ^ x23: .cfa -40 + ^ x24: .cfa -48 + ^ x25: .cfa -56 + ^ x26: .cfa -64 + ^ x27: .cfa -72 + ^ x28: .cfa -80 + ^ .ra: .cfa -88 + ^ x29: .cfa -96 + ^
STACK CFI 29b44 .cfa: sp 320 +
STACK CFI 29b60 .cfa: sp 0 +
STACK CFI 29b64 .cfa: x29 96 +
STACK CFI INIT 2e014 c74 .cfa: sp 0 +
STACK CFI 2e018 .cfa: sp 96 +
STACK CFI 2e030 .cfa: x29 96 + x19: .cfa -8 + ^ x20: .cfa -16 + ^ x21: .cfa -24 + ^ x22: .cfa -32 + ^ x23: .cfa -40 + ^ x24: .cfa -48 + ^ x25: .cfa -56 + ^ x26: .cfa -64 + ^ x27: .cfa -72 + ^ x28: .cfa -80 + ^ .ra: .cfa -88 + ^ x29: .cfa -96 + ^
STACK CFI 2eaa8 .cfa: sp 96 +
STACK CFI 2eac0 .cfa: sp 0 +
STACK CFI 2eac4 .cfa: x29 96 +
STACK CFI INIT 2eddc 26c .cfa: sp 0 +
STACK CFI 2ede0 .cfa: sp 128 +
STACK CFI 2edf0 .cfa: x29 48 + x19: .cfa -8 + ^ x20: .cfa -16 + ^ x21: .cfa -24 + ^ x22: .cfa -32 + ^ .ra: .cfa -40 + ^ x29: .cfa -48 + ^
STACK CFI 2ef94 .cfa: sp 128 +
STACK CFI 2efa4 .cfa: sp 0 +
STACK CFI 2efa8 .cfa: x29 48 +
STACK CFI INIT 2f3d8 3b8 .cfa: sp 0 +
STACK CFI 2f3dc .cfa: sp 96 +
STACK CFI 2f3f4 .cfa: x29 96 + x19: .cfa -8 + ^ x20: .cfa -16 + ^ x21: .cfa -24 + ^ x22: .cfa -32 + ^ x23: .cfa -40 + ^ x24: .cfa -48 + ^ x25: .cfa -56 + ^ x26: .cfa -64 + ^ x27: .cfa -72 + ^ x28: .cfa -80 + ^ .ra: .cfa -88 + ^ x29: .cfa -96 + ^
STACK CFI 2f730 .cfa: sp 96 +
STACK CFI 2f748 .cfa: sp 0 +
STACK CFI 2f74c .cfa: x29 96 +
STACK CFI INIT 2f830 cb4 .cfa: sp 0 +
STACK CFI 2f834 .cfa: sp 96 +
STACK CFI 2f84c .cfa: x29 96 + x19: .cfa -8 + ^ x20: .cfa -16 + ^ x21: .cfa -24 + ^ x22: .cfa -32 + ^ x23: .cfa -40 + ^ x24: .cfa -48 + ^ x25: .cfa -56 + ^ x26: .cfa -64 + ^ x27: .cfa -72 + ^ x28: .cfa -80 + ^ .ra: .cfa -88 + ^ x29: .cfa -96 + ^
STACK CFI 302f4 .cfa: sp 96 +
STACK CFI 3030c .cfa: sp 0 +
STACK CFI 30310 .cfa: x29 96 +
STACK CFI INIT 307cc afc .cfa: sp 0 +
STACK CFI 307d0 .cfa: sp 96 +
STACK CFI 307e8 .cfa: x29 96 + x19: .cfa -8 + ^ x20: .cfa -16 + ^ x21: .cfa -24 + ^ x22: .cfa -32 + ^ x23: .cfa -40 + ^ x24: .cfa -48 + ^ x25: .cfa -56 + ^ x26: .cfa -64 + ^ x27: .cfa -72 + ^ x28: .cfa -80 + ^ .ra: .cfa -88 + ^ x29: .cfa -96 + ^
STACK CFI 3123c .cfa: sp 96 +
STACK CFI 31254 .cfa: sp 0 +
STACK CFI 31258 .cfa: x29 96 +
STACK CFI INIT 314a4 1430 .cfa: sp 0 +
STACK CFI 314a8 .cfa: sp 96 +
STACK CFI 314c0 .cfa: x29 96 + x19: .cfa -8 + ^ x20: .cfa -16 + ^ x21: .cfa -24 + ^ x22: .cfa -32 + ^ x23: .cfa -40 + ^ x24: .cfa -48 + ^ x25: .cfa -56 + ^ x26: .cfa -64 + ^ x27: .cfa -72 + ^ x28: .cfa -80 + ^ .ra: .cfa -88 + ^ x29: .cfa -96 + ^
STACK CFI 3275c .cfa: sp 96 +
STACK CFI 32774 .cfa: sp 0 +
STACK CFI 32778 .cfa: x29 96 +
STACK CFI INIT 329f8 75c .cfa: sp 0 +
STACK CFI 329fc .cfa: sp 368 +
STACK CFI 32a18 .cfa: x29 96 + x19: .cfa -8 + ^ x20: .cfa -16 + ^ x21: .cfa -24 + ^ x22: .cfa -32 + ^ x23: .cfa -40 + ^ x24: .cfa -48 + ^ x25: .cfa -56 + ^ x26: .cfa -64 + ^ x27: .cfa -72 + ^ x28: .cfa -80 + ^ .ra: .cfa -88 + ^ x29: .cfa -96 + ^
STACK CFI 32acc .cfa: sp 368 +
STACK CFI 32ae8 .cfa: sp 0 +
STACK CFI 32aec .cfa: x29 96 +
STACK CFI 32b40 .cfa: sp 368 +
STACK CFI 32b5c .cfa: sp 0 +
STACK CFI 32b60 .cfa: x29 96 +
STACK CFI INIT 33514 eb0 .cfa: sp 0 +
STACK CFI 33518 .cfa: sp 96 +
STACK CFI 33530 .cfa: x29 96 + x19: .cfa -8 + ^ x20: .cfa -16 + ^ x21: .cfa -24 + ^ x22: .cfa -32 + ^ x23: .cfa -40 + ^ x24: .cfa -48 + ^ x25: .cfa -56 + ^ x26: .cfa -64 + ^ x27: .cfa -72 + ^ x28: .cfa -80 + ^ .ra: .cfa -88 + ^ x29: .cfa -96 + ^
STACK CFI 341d8 .cfa: sp 96 +
STACK CFI 341f0 .cfa: sp 0 +
STACK CFI 341f4 .cfa: x29 96 +
STACK CFI INIT 34738 1c9c .cfa: sp 0 +
STACK CFI 3473c .cfa: sp 112 +
STACK CFI 34758 .cfa: x29 96 + x19: .cfa -8 + ^ x20: .cfa -16 + ^ x21: .cfa -24 + ^ x22: .cfa -32 + ^ x23: .cfa -40 + ^ x24: .cfa -48 + ^ x25: .cfa -56 + ^ x26: .cfa -64 + ^ x27: .cfa -72 + ^ x28: .cfa -80 + ^ .ra: .cfa -88 + ^ x29: .cfa -96 + ^ v8: .cfa -112 + ^
STACK CFI 34b40 .cfa: sp 112 +
STACK CFI 34b5c .cfa: sp 0 +
STACK CFI 34b60 .cfa: x29 96 +
STACK CFI INIT 38b98 9a0 .cfa: sp 0 +
STACK CFI 38b9c .cfa: sp 144 +
STACK CFI 38bb4 .cfa: x29 80 + x19: .cfa -8 + ^ x20: .cfa -16 + ^ x21: .cfa -24 + ^ x22: .cfa -32 + ^ x23: .cfa -40 + ^ x24: .cfa -48 + ^ x25: .cfa -64 + ^ .ra: .cfa -72 + ^ x29: .cfa -80 + ^
STACK CFI 394b4 .cfa: sp 144 +
STACK CFI 394cc .cfa: sp 0 +
STACK CFI 394d0 .cfa: x29 80 +
STACK CFI INIT 3aa5c 57c .cfa: sp 0 +
STACK CFI 3aa60 .cfa: sp 96 +
STACK CFI 3aa78 .cfa: x29 96 + x19: .cfa -8 + ^ x20: .cfa -16 + ^ x21: .cfa -24 + ^ x22: .cfa -32 + ^ x23: .cfa -40 + ^ x24: .cfa -48 + ^ x25: .cfa -56 + ^ x26: .cfa -64 + ^ x27: .cfa -72 + ^ x28: .cfa -80 + ^ .ra: .cfa -88 + ^ x29: .cfa -96 + ^
STACK CFI 3af3c .cfa: sp 96 +
STACK CFI 3af54 .cfa: sp 0 +
STACK CFI 3af58 .cfa: x29 96 +
STACK CFI INIT 3afd8 67c .cfa: sp 0 +
STACK CFI 3afdc .cfa: sp 96 +
STACK CFI 3aff4 .cfa: x29 96 + x19: .cfa -8 + ^ x20: .cfa -16 + ^ x21: .cfa -24 + ^ x22: .cfa -32 + ^ x23: .cfa -40 + ^ x24: .cfa -48 + ^ x25: .cfa -56 + ^ x26: .cfa -64 + ^ x27: .cfa -72 + ^ x28: .cfa -80 + ^ .ra: .cfa -88 + ^ x29: .cfa -96 + ^
STACK CFI 3b5b8 .cfa: sp 96 +
STACK CFI 3b5d0 .cfa: sp 0 +
STACK CFI 3b5d4 .cfa: x29 96 +
