MODULE Linux arm64 EE4C33AFAD04D03A57CDC4BC3FAAD4F70 hiimjustin000.better_safe.android64.so
INFO CODE_ID AF334CEE04AD3AD057CDC4BC3FAAD4F7DD26E307
INFO GENERATOR mozilla/dump_syms 2.3.4
PUBLIC 24180 0 __on_dlclose
PUBLIC 24190 0 __emutls_unregister_key
PUBLIC 24198 0 __on_dlclose_late
PUBLIC 241a0 0 __atexit_handler_wrapper
PUBLIC 241b4 0 atexit
PUBLIC 241d0 0 pthread_atfork
PUBLIC 241e0 0 __aarch64_ldadd8_relax
PUBLIC 24210 0 init_have_lse_atomics
PUBLIC 242a8 0 __init_cpu_features_constructor
PUBLIC 24844 0 __init_cpu_features
PUBLIC 248d0 0 __aarch64_ldadd8_acq_rel
PUBLIC 24900 0 __cxx_global_var_init
PUBLIC 2495c 0 std::__ndk1::vector<SafeLevel, std::__ndk1::allocator<SafeLevel> >::~vector[abi:ne180000]()
PUBLIC 249e4 0 __cxx_global_var_init.1
PUBLIC 24a40 0 __cxx_global_var_init.2
PUBLIC 24a9c 0 __cxx_global_var_init.3
PUBLIC 24b54 0 std::__ndk1::vector<int, std::__ndk1::allocator<int> >::~vector[abi:ne180000]()
PUBLIC 24b6c 0 __cxx_global_var_init.4
PUBLIC 24fcc 0 std::__ndk1::vector<std::__ndk1::basic_string<char, std::__ndk1::char_traits<char>, std::__ndk1::allocator<char> >, std::__ndk1::allocator<std::__ndk1::basic_string<char, std::__ndk1::char_traits<char>, std::__ndk1::allocator<char> > > >::vector[abi:ne180000](std::initializer_list<std::__ndk1::basic_string<char, std::__ndk1::char_traits<char>, std::__ndk1::allocator<char> > >)
PUBLIC 25124 0 std::__ndk1::vector<std::__ndk1::basic_string<char, std::__ndk1::char_traits<char>, std::__ndk1::allocator<char> >, std::__ndk1::allocator<std::__ndk1::basic_string<char, std::__ndk1::char_traits<char>, std::__ndk1::allocator<char> > > >::~vector[abi:ne180000]()
PUBLIC 251a0 0 __cxx_global_var_init.16
PUBLIC 25270 0 BSCalendarPopup::BSCalendarPopup()
PUBLIC 253fc 0 BSCalendarPopup::setup(cocos2d::CCObject*, void (cocos2d::CCObject::*)(cocos2d::CCObject*), GJTimedLevelType)
PUBLIC 2624c 0 geode::Mod::getSettingValue<bool>(std::__ndk1::basic_string_view<char, std::__ndk1::char_traits<char> >) const
PUBLIC 26380 0 BSCalendarPopup::createWeekdayLabel(char const*, int)
PUBLIC 266a0 0 geode::cocos::CCMenuItemExt::createSpriteExtraWithFrameName(std::__ndk1::basic_string_view<char, std::__ndk1::char_traits<char> >, float, std::__ndk1::function<void (CCMenuItemSpriteExtra*)>)
PUBLIC 267ec 0 geode::cocos::CCMenuItemExt::createSpriteExtra(cocos2d::CCNode*, std::__ndk1::function<void (CCMenuItemSpriteExtra*)>)
PUBLIC 26928 0 BSCalendarPopup::loadMonth()
PUBLIC 27224 0 BSCalendarPopup::loadLevelsFinished(cocos2d::CCArray*, char const*)
PUBLIC 27264 0 BSCalendarPopup::setupMonth()
PUBLIC 28418 0 {virtual override thunk({offset(-672)}, BSCalendarPopup::loadLevelsFinished(cocos2d::CCArray*, char const*))}
PUBLIC 28458 0 BSCalendarPopup::loadLevelsFailed(char const*)
PUBLIC 28548 0 {virtual override thunk({offset(-672)}, BSCalendarPopup::loadLevelsFailed(char const*))}
PUBLIC 28638 0 geode::cocos::CCArrayExt<GJGameLevel*, GJGameLevel>::~CCArrayExt()
PUBLIC 28654 0 geode::Mod::getSavedValue<bool>(std::__ndk1::basic_string_view<char, std::__ndk1::char_traits<char> >, bool const&)
PUBLIC 28840 0 BSCalendarPopup::~BSCalendarPopup()
PUBLIC 289a8 0 __clang_call_terminate
PUBLIC 289b8 0 geode::EventListener<geode::Task<geode::utils::web::WebResponse, geode::utils::web::WebProgress> >::~EventListener()
PUBLIC 28a54 0 {virtual override thunk({offset(-320)}, BSCalendarPopup::~BSCalendarPopup())}
PUBLIC 28a5c 0 BSCalendarPopup::~BSCalendarPopup()
PUBLIC 28a80 0 {virtual override thunk({offset(-320)}, BSCalendarPopup::~BSCalendarPopup())}
PUBLIC 28aa8 0 cocos2d::CCCopying::copyWithZone(cocos2d::CCZone*)
PUBLIC 28ab0 0 geode::Popup<cocos2d::CCObject*, void (cocos2d::CCObject::*)(cocos2d::CCObject*), GJTimedLevelType>::registerWithTouchDispatcher()
PUBLIC 28adc 0 geode::Popup<cocos2d::CCObject*, void (cocos2d::CCObject::*)(cocos2d::CCObject*), GJTimedLevelType>::keyDown(cocos2d::enumKeyCodes)
PUBLIC 28b04 0 cocos2d::CCLayerRGBA::setOpacityModifyRGB(bool)
PUBLIC 28b08 0 cocos2d::CCLayerRGBA::isOpacityModifyRGB()
PUBLIC 28b10 0 geode::Popup<cocos2d::CCObject*, void (cocos2d::CCObject::*)(cocos2d::CCObject*), GJTimedLevelType>::onClose(cocos2d::CCObject*)
PUBLIC 28c58 0 BSCalendarPopup::loadLevelsFinished(cocos2d::CCArray*, char const*, int)
PUBLIC 28c64 0 BSCalendarPopup::loadLevelsFailed(char const*, int)
PUBLIC 28c70 0 BSCalendarPopup::setupPageInfo(gd::string, char const*)
PUBLIC 28c74 0 {virtual override thunk({offset(-344)}, geode::Popup<cocos2d::CCObject*, void (cocos2d::CCObject::*)(cocos2d::CCObject*), GJTimedLevelType>::keyDown(cocos2d::enumKeyCodes))}
PUBLIC 28ca0 0 cocos2d::CCKeyboardDelegate::keyUp(cocos2d::enumKeyCodes)
PUBLIC 28ca4 0 cocos2d::CCMouseDelegate::rightKeyDown()
PUBLIC 28ca8 0 cocos2d::CCMouseDelegate::rightKeyUp()
PUBLIC 28cac 0 cocos2d::CCMouseDelegate::scrollWheel(float, float)
PUBLIC 28cb0 0 {virtual override thunk({offset(-408)}, cocos2d::CCLayerRGBA::setOpacityModifyRGB(bool))}
PUBLIC 28cb4 0 {virtual override thunk({offset(-408)}, cocos2d::CCLayerRGBA::isOpacityModifyRGB())}
PUBLIC 28cbc 0 {virtual override thunk({offset(-672)}, BSCalendarPopup::loadLevelsFinished(cocos2d::CCArray*, char const*, int))}
PUBLIC 28ccc 0 {virtual override thunk({offset(-672)}, BSCalendarPopup::loadLevelsFailed(char const*, int))}
PUBLIC 28cdc 0 {virtual override thunk({offset(-672)}, BSCalendarPopup::setupPageInfo(gd::string, char const*))}
PUBLIC 28ce0 0 std::__ndk1::__throw_length_error[abi:ne180000](char const*)
PUBLIC 28d30 0 std::length_error::length_error[abi:ne180000](char const*)
PUBLIC 28d60 0 std::__throw_bad_array_new_length([abi:ne180000], void)
PUBLIC 28d94 0 std::__ndk1::basic_string<char, std::__ndk1::char_traits<char>, std::__ndk1::allocator<char> >::__throw_length_error[abi:ne180000]() const
PUBLIC 28da8 0 std::__ndk1::__exception_guard_exceptions<std::__ndk1::vector<std::__ndk1::basic_string<char, std::__ndk1::char_traits<char>, std::__ndk1::allocator<char> >, std::__ndk1::allocator<std::__ndk1::basic_string<char, std::__ndk1::char_traits<char>, std::__ndk1::allocator<char> > > >::__destroy_vector>::~__exception_guard_exceptions[abi:ne180000]()
PUBLIC 28e34 0 std::__ndk1::vector<std::__ndk1::basic_string<char, std::__ndk1::char_traits<char>, std::__ndk1::allocator<char> >, std::__ndk1::allocator<std::__ndk1::basic_string<char, std::__ndk1::char_traits<char>, std::__ndk1::allocator<char> > > >::__throw_length_error[abi:ne180000]() const
PUBLIC 28e48 0 std::__ndk1::__exception_guard_exceptions<std::__ndk1::_AllocatorDestroyRangeReverse<std::__ndk1::allocator<std::__ndk1::basic_string<char, std::__ndk1::char_traits<char>, std::__ndk1::allocator<char> > >, std::__ndk1::basic_string<char, std::__ndk1::char_traits<char>, std::__ndk1::allocator<char> >*> >::~__exception_guard_exceptions[abi:ne180000]()
PUBLIC 28ea8 0 std::__ndk1::basic_string<char, std::__ndk1::char_traits<char>, std::__ndk1::allocator<char> >::__init_copy_ctor_external(char const*, unsigned long)
PUBLIC 28f28 0 geode::Task<geode::utils::web::WebResponse, geode::utils::web::WebProgress>::~Task()
PUBLIC 28f78 0 geode::Popup<cocos2d::CCObject*, void (cocos2d::CCObject::*)(cocos2d::CCObject*), GJTimedLevelType>::~Popup()
PUBLIC 28fe4 0 geode::Popup<cocos2d::CCObject*, void (cocos2d::CCObject::*)(cocos2d::CCObject*), GJTimedLevelType>::~Popup()
PUBLIC 28fe8 0 {virtual override thunk({offset(-320)}, geode::Popup<cocos2d::CCObject*, void (cocos2d::CCObject::*)(cocos2d::CCObject*), GJTimedLevelType>::~Popup())}
PUBLIC 29054 0 {virtual override thunk({offset(-320)}, geode::Popup<cocos2d::CCObject*, void (cocos2d::CCObject::*)(cocos2d::CCObject*), GJTimedLevelType>::~Popup())}
PUBLIC 29058 0 geode::Task<geode::utils::web::WebResponse, geode::utils::web::WebProgress>::setListener(geode::EventListenerProtocol*)
PUBLIC 29274 0 geode::EventListener<geode::Task<geode::utils::web::WebResponse, geode::utils::web::WebProgress> >::getPool() const
PUBLIC 29278 0 geode::EventListener<geode::Task<geode::utils::web::WebResponse, geode::utils::web::WebProgress> >::handle(geode::Event*)
PUBLIC 29444 0 geode::EventListener<geode::Task<geode::utils::web::WebResponse, geode::utils::web::WebProgress> >::~EventListener()
PUBLIC 294e8 0 geode::Task<geode::utils::web::WebResponse, geode::utils::web::WebProgress>::setListener(geode::EventListenerProtocol*)::{lambda()#1}::~{lambda()#1}()
PUBLIC 29538 0 geode::Task<geode::utils::web::WebResponse, geode::utils::web::WebProgress>::setListener(geode::EventListenerProtocol*)::{lambda()#2}::~{lambda()#2}()
PUBLIC 29588 0 std::__ndk1::__function::__func<geode::Task<geode::utils::web::WebResponse, geode::utils::web::WebProgress>::setListener(geode::EventListenerProtocol*)::{lambda()#1}, std::__ndk1::allocator<geode::Task<geode::utils::web::WebResponse, geode::utils::web::WebProgress>::setListener(geode::EventListenerProtocol*)::{lambda()#1}>, void ()>::~__func()
PUBLIC 295e4 0 std::__ndk1::__function::__func<geode::Task<geode::utils::web::WebResponse, geode::utils::web::WebProgress>::setListener(geode::EventListenerProtocol*)::{lambda()#1}, std::__ndk1::allocator<geode::Task<geode::utils::web::WebResponse, geode::utils::web::WebProgress>::setListener(geode::EventListenerProtocol*)::{lambda()#1}>, void ()>::~__func()
PUBLIC 29650 0 std::__ndk1::__function::__func<geode::Task<geode::utils::web::WebResponse, geode::utils::web::WebProgress>::setListener(geode::EventListenerProtocol*)::{lambda()#1}, std::__ndk1::allocator<geode::Task<geode::utils::web::WebResponse, geode::utils::web::WebProgress>::setListener(geode::EventListenerProtocol*)::{lambda()#1}>, void ()>::__clone() const
PUBLIC 296a8 0 std::__ndk1::__function::__func<geode::Task<geode::utils::web::WebResponse, geode::utils::web::WebProgress>::setListener(geode::EventListenerProtocol*)::{lambda()#1}, std::__ndk1::allocator<geode::Task<geode::utils::web::WebResponse, geode::utils::web::WebProgress>::setListener(geode::EventListenerProtocol*)::{lambda()#1}>, void ()>::__clone(std::__ndk1::__function::__base<void ()>*) const
PUBLIC 296f4 0 std::__ndk1::__function::__func<geode::Task<geode::utils::web::WebResponse, geode::utils::web::WebProgress>::setListener(geode::EventListenerProtocol*)::{lambda()#1}, std::__ndk1::allocator<geode::Task<geode::utils::web::WebResponse, geode::utils::web::WebProgress>::setListener(geode::EventListenerProtocol*)::{lambda()#1}>, void ()>::destroy()
PUBLIC 29744 0 std::__ndk1::__function::__func<geode::Task<geode::utils::web::WebResponse, geode::utils::web::WebProgress>::setListener(geode::EventListenerProtocol*)::{lambda()#1}, std::__ndk1::allocator<geode::Task<geode::utils::web::WebResponse, geode::utils::web::WebProgress>::setListener(geode::EventListenerProtocol*)::{lambda()#1}>, void ()>::destroy_deallocate()
PUBLIC 297a4 0 std::__ndk1::__function::__func<geode::Task<geode::utils::web::WebResponse, geode::utils::web::WebProgress>::setListener(geode::EventListenerProtocol*)::{lambda()#1}, std::__ndk1::allocator<geode::Task<geode::utils::web::WebResponse, geode::utils::web::WebProgress>::setListener(geode::EventListenerProtocol*)::{lambda()#1}>, void ()>::operator()()
PUBLIC 297ac 0 std::__ndk1::__function::__func<geode::Task<geode::utils::web::WebResponse, geode::utils::web::WebProgress>::setListener(geode::EventListenerProtocol*)::{lambda()#1}, std::__ndk1::allocator<geode::Task<geode::utils::web::WebResponse, geode::utils::web::WebProgress>::setListener(geode::EventListenerProtocol*)::{lambda()#1}>, void ()>::target(std::type_info const&) const
PUBLIC 297c8 0 std::__ndk1::__function::__func<geode::Task<geode::utils::web::WebResponse, geode::utils::web::WebProgress>::setListener(geode::EventListenerProtocol*)::{lambda()#1}, std::__ndk1::allocator<geode::Task<geode::utils::web::WebResponse, geode::utils::web::WebProgress>::setListener(geode::EventListenerProtocol*)::{lambda()#1}>, void ()>::target_type() const
PUBLIC 297d4 0 geode::Task<geode::utils::web::WebResponse, geode::utils::web::WebProgress>::setListener(geode::EventListenerProtocol*)::{lambda()#1}::operator()() const
PUBLIC 299a4 0 geode::Task<geode::utils::web::WebResponse, geode::utils::web::WebProgress>::Event::~Event()
PUBLIC 29a04 0 geode::Task<geode::utils::web::WebResponse, geode::utils::web::WebProgress>::Event::~Event()
PUBLIC 29a74 0 std::__ndk1::__function::__func<geode::Task<geode::utils::web::WebResponse, geode::utils::web::WebProgress>::setListener(geode::EventListenerProtocol*)::{lambda()#2}, std::__ndk1::allocator<geode::Task<geode::utils::web::WebResponse, geode::utils::web::WebProgress>::setListener(geode::EventListenerProtocol*)::{lambda()#2}>, void ()>::~__func()
PUBLIC 29ad0 0 std::__ndk1::__function::__func<geode::Task<geode::utils::web::WebResponse, geode::utils::web::WebProgress>::setListener(geode::EventListenerProtocol*)::{lambda()#2}, std::__ndk1::allocator<geode::Task<geode::utils::web::WebResponse, geode::utils::web::WebProgress>::setListener(geode::EventListenerProtocol*)::{lambda()#2}>, void ()>::~__func()
PUBLIC 29b3c 0 std::__ndk1::__function::__func<geode::Task<geode::utils::web::WebResponse, geode::utils::web::WebProgress>::setListener(geode::EventListenerProtocol*)::{lambda()#2}, std::__ndk1::allocator<geode::Task<geode::utils::web::WebResponse, geode::utils::web::WebProgress>::setListener(geode::EventListenerProtocol*)::{lambda()#2}>, void ()>::__clone() const
PUBLIC 29b94 0 std::__ndk1::__function::__func<geode::Task<geode::utils::web::WebResponse, geode::utils::web::WebProgress>::setListener(geode::EventListenerProtocol*)::{lambda()#2}, std::__ndk1::allocator<geode::Task<geode::utils::web::WebResponse, geode::utils::web::WebProgress>::setListener(geode::EventListenerProtocol*)::{lambda()#2}>, void ()>::__clone(std::__ndk1::__function::__base<void ()>*) const
PUBLIC 29be0 0 std::__ndk1::__function::__func<geode::Task<geode::utils::web::WebResponse, geode::utils::web::WebProgress>::setListener(geode::EventListenerProtocol*)::{lambda()#2}, std::__ndk1::allocator<geode::Task<geode::utils::web::WebResponse, geode::utils::web::WebProgress>::setListener(geode::EventListenerProtocol*)::{lambda()#2}>, void ()>::destroy()
PUBLIC 29c30 0 std::__ndk1::__function::__func<geode::Task<geode::utils::web::WebResponse, geode::utils::web::WebProgress>::setListener(geode::EventListenerProtocol*)::{lambda()#2}, std::__ndk1::allocator<geode::Task<geode::utils::web::WebResponse, geode::utils::web::WebProgress>::setListener(geode::EventListenerProtocol*)::{lambda()#2}>, void ()>::destroy_deallocate()
PUBLIC 29c90 0 std::__ndk1::__function::__func<geode::Task<geode::utils::web::WebResponse, geode::utils::web::WebProgress>::setListener(geode::EventListenerProtocol*)::{lambda()#2}, std::__ndk1::allocator<geode::Task<geode::utils::web::WebResponse, geode::utils::web::WebProgress>::setListener(geode::EventListenerProtocol*)::{lambda()#2}>, void ()>::operator()()
PUBLIC 29c98 0 std::__ndk1::__function::__func<geode::Task<geode::utils::web::WebResponse, geode::utils::web::WebProgress>::setListener(geode::EventListenerProtocol*)::{lambda()#2}, std::__ndk1::allocator<geode::Task<geode::utils::web::WebResponse, geode::utils::web::WebProgress>::setListener(geode::EventListenerProtocol*)::{lambda()#2}>, void ()>::target(std::type_info const&) const
PUBLIC 29cb4 0 std::__ndk1::__function::__func<geode::Task<geode::utils::web::WebResponse, geode::utils::web::WebProgress>::setListener(geode::EventListenerProtocol*)::{lambda()#2}, std::__ndk1::allocator<geode::Task<geode::utils::web::WebResponse, geode::utils::web::WebProgress>::setListener(geode::EventListenerProtocol*)::{lambda()#2}>, void ()>::target_type() const
PUBLIC 29cc0 0 geode::Task<geode::utils::web::WebResponse, geode::utils::web::WebProgress>::setListener(geode::EventListenerProtocol*)::{lambda()#2}::operator()() const
PUBLIC 29e84 0 geode::cast::traverseTypeinfoFor(void*, geode::cast::ClassTypeinfoType const*, char const*)
PUBLIC 29f88 0 std::__ndk1::__throw_bad_function_call[abi:ne180000]()
PUBLIC 29fbc 0 std::__ndk1::bad_function_call::~bad_function_call()
PUBLIC 29fe0 0 geode::cocos::CCMenuItemExt::assignCallback<CCMenuItemSpriteExtra>(cocos2d::CCMenuItem*, std::__ndk1::function<void (CCMenuItemSpriteExtra*)>)
PUBLIC 2a174 0 geode::cocos::CCMenuItemExt::LambdaCallback<CCMenuItemSpriteExtra>::create(std::__ndk1::function<void (CCMenuItemSpriteExtra*)>)
PUBLIC 2a33c 0 geode::cocos::CCMenuItemExt::LambdaCallback<CCMenuItemSpriteExtra>::execute(cocos2d::CCNode*)
PUBLIC 2a3ac 0 geode::cocos::CCMenuItemExt::LambdaCallback<CCMenuItemSpriteExtra>::~LambdaCallback()
PUBLIC 2a408 0 geode::cocos::CCMenuItemExt::LambdaCallback<CCMenuItemSpriteExtra>::~LambdaCallback()
PUBLIC 2a46c 0 cocos2d::CCObject::update(float)
PUBLIC 2a470 0 std::__ndk1::basic_string<char, std::__ndk1::char_traits<char>, std::__ndk1::allocator<char> >::__throw_out_of_range[abi:ne180000]() const
PUBLIC 2a484 0 std::__ndk1::__throw_out_of_range[abi:ne180000](char const*)
PUBLIC 2a4d4 0 std::out_of_range::out_of_range[abi:ne180000](char const*)
PUBLIC 2a504 0 std::__ndk1::vector<SafeDate, std::__ndk1::allocator<SafeDate> >::__throw_length_error[abi:ne180000]() const
PUBLIC 2a518 0 std::__ndk1::basic_string<char, std::__ndk1::char_traits<char>, std::__ndk1::allocator<char> >::__assign_external(char const*, unsigned long)
PUBLIC 2a640 0 std::__ndk1::basic_string<char, std::__ndk1::char_traits<char>, std::__ndk1::allocator<char> >::__assign_external(char const*)
PUBLIC 2a674 0 geode::Popup<cocos2d::CCObject*, void (cocos2d::CCObject::*)(cocos2d::CCObject*), GJTimedLevelType>::initBase(float, float, cocos2d::CCObject*, void (cocos2d::CCObject::*)(cocos2d::CCObject*), GJTimedLevelType, char const*, cocos2d::CCRect, bool)
PUBLIC 2a990 0 std::__ndk1::__function::__func<BSCalendarPopup::setup(cocos2d::CCObject*, void (cocos2d::CCObject::*)(cocos2d::CCObject*), GJTimedLevelType)::$_0, std::__ndk1::allocator<BSCalendarPopup::setup(cocos2d::CCObject*, void (cocos2d::CCObject::*)(cocos2d::CCObject*), GJTimedLevelType)::$_0>, void (CCMenuItemSpriteExtra*)>::~__func()
PUBLIC 2a994 0 std::__ndk1::__function::__func<BSCalendarPopup::setup(cocos2d::CCObject*, void (cocos2d::CCObject::*)(cocos2d::CCObject*), GJTimedLevelType)::$_0, std::__ndk1::allocator<BSCalendarPopup::setup(cocos2d::CCObject*, void (cocos2d::CCObject::*)(cocos2d::CCObject*), GJTimedLevelType)::$_0>, void (CCMenuItemSpriteExtra*)>::__clone() const
PUBLIC 2a9c8 0 std::__ndk1::__function::__func<BSCalendarPopup::setup(cocos2d::CCObject*, void (cocos2d::CCObject::*)(cocos2d::CCObject*), GJTimedLevelType)::$_0, std::__ndk1::allocator<BSCalendarPopup::setup(cocos2d::CCObject*, void (cocos2d::CCObject::*)(cocos2d::CCObject*), GJTimedLevelType)::$_0>, void (CCMenuItemSpriteExtra*)>::__clone(std::__ndk1::__function::__base<void (CCMenuItemSpriteExtra*)>*) const
PUBLIC 2a9dc 0 std::__ndk1::__function::__func<BSCalendarPopup::setup(cocos2d::CCObject*, void (cocos2d::CCObject::*)(cocos2d::CCObject*), GJTimedLevelType)::$_0, std::__ndk1::allocator<BSCalendarPopup::setup(cocos2d::CCObject*, void (cocos2d::CCObject::*)(cocos2d::CCObject*), GJTimedLevelType)::$_0>, void (CCMenuItemSpriteExtra*)>::destroy()
PUBLIC 2a9e0 0 std::__ndk1::__function::__func<BSCalendarPopup::setup(cocos2d::CCObject*, void (cocos2d::CCObject::*)(cocos2d::CCObject*), GJTimedLevelType)::$_0, std::__ndk1::allocator<BSCalendarPopup::setup(cocos2d::CCObject*, void (cocos2d::CCObject::*)(cocos2d::CCObject*), GJTimedLevelType)::$_0>, void (CCMenuItemSpriteExtra*)>::destroy_deallocate()
PUBLIC 2a9e4 0 std::__ndk1::__function::__func<BSCalendarPopup::setup(cocos2d::CCObject*, void (cocos2d::CCObject::*)(cocos2d::CCObject*), GJTimedLevelType)::$_0, std::__ndk1::allocator<BSCalendarPopup::setup(cocos2d::CCObject*, void (cocos2d::CCObject::*)(cocos2d::CCObject*), GJTimedLevelType)::$_0>, void (CCMenuItemSpriteExtra*)>::operator()(CCMenuItemSpriteExtra*&&)
PUBLIC 2aa28 0 std::__ndk1::__function::__func<BSCalendarPopup::setup(cocos2d::CCObject*, void (cocos2d::CCObject::*)(cocos2d::CCObject*), GJTimedLevelType)::$_0, std::__ndk1::allocator<BSCalendarPopup::setup(cocos2d::CCObject*, void (cocos2d::CCObject::*)(cocos2d::CCObject*), GJTimedLevelType)::$_0>, void (CCMenuItemSpriteExtra*)>::target(std::type_info const&) const
PUBLIC 2aa44 0 std::__ndk1::__function::__func<BSCalendarPopup::setup(cocos2d::CCObject*, void (cocos2d::CCObject::*)(cocos2d::CCObject*), GJTimedLevelType)::$_0, std::__ndk1::allocator<BSCalendarPopup::setup(cocos2d::CCObject*, void (cocos2d::CCObject::*)(cocos2d::CCObject*), GJTimedLevelType)::$_0>, void (CCMenuItemSpriteExtra*)>::target_type() const
PUBLIC 2aa50 0 std::__ndk1::__function::__func<BSCalendarPopup::setup(cocos2d::CCObject*, void (cocos2d::CCObject::*)(cocos2d::CCObject*), GJTimedLevelType)::$_1, std::__ndk1::allocator<BSCalendarPopup::setup(cocos2d::CCObject*, void (cocos2d::CCObject::*)(cocos2d::CCObject*), GJTimedLevelType)::$_1>, void (CCMenuItemSpriteExtra*)>::~__func()
PUBLIC 2aa54 0 std::__ndk1::__function::__func<BSCalendarPopup::setup(cocos2d::CCObject*, void (cocos2d::CCObject::*)(cocos2d::CCObject*), GJTimedLevelType)::$_1, std::__ndk1::allocator<BSCalendarPopup::setup(cocos2d::CCObject*, void (cocos2d::CCObject::*)(cocos2d::CCObject*), GJTimedLevelType)::$_1>, void (CCMenuItemSpriteExtra*)>::__clone() const
PUBLIC 2aa88 0 std::__ndk1::__function::__func<BSCalendarPopup::setup(cocos2d::CCObject*, void (cocos2d::CCObject::*)(cocos2d::CCObject*), GJTimedLevelType)::$_1, std::__ndk1::allocator<BSCalendarPopup::setup(cocos2d::CCObject*, void (cocos2d::CCObject::*)(cocos2d::CCObject*), GJTimedLevelType)::$_1>, void (CCMenuItemSpriteExtra*)>::__clone(std::__ndk1::__function::__base<void (CCMenuItemSpriteExtra*)>*) const
PUBLIC 2aa9c 0 std::__ndk1::__function::__func<BSCalendarPopup::setup(cocos2d::CCObject*, void (cocos2d::CCObject::*)(cocos2d::CCObject*), GJTimedLevelType)::$_1, std::__ndk1::allocator<BSCalendarPopup::setup(cocos2d::CCObject*, void (cocos2d::CCObject::*)(cocos2d::CCObject*), GJTimedLevelType)::$_1>, void (CCMenuItemSpriteExtra*)>::destroy()
PUBLIC 2aaa0 0 std::__ndk1::__function::__func<BSCalendarPopup::setup(cocos2d::CCObject*, void (cocos2d::CCObject::*)(cocos2d::CCObject*), GJTimedLevelType)::$_1, std::__ndk1::allocator<BSCalendarPopup::setup(cocos2d::CCObject*, void (cocos2d::CCObject::*)(cocos2d::CCObject*), GJTimedLevelType)::$_1>, void (CCMenuItemSpriteExtra*)>::destroy_deallocate()
PUBLIC 2aaa4 0 std::__ndk1::__function::__func<BSCalendarPopup::setup(cocos2d::CCObject*, void (cocos2d::CCObject::*)(cocos2d::CCObject*), GJTimedLevelType)::$_1, std::__ndk1::allocator<BSCalendarPopup::setup(cocos2d::CCObject*, void (cocos2d::CCObject::*)(cocos2d::CCObject*), GJTimedLevelType)::$_1>, void (CCMenuItemSpriteExtra*)>::operator()(CCMenuItemSpriteExtra*&&)
PUBLIC 2aaf4 0 std::__ndk1::__function::__func<BSCalendarPopup::setup(cocos2d::CCObject*, void (cocos2d::CCObject::*)(cocos2d::CCObject*), GJTimedLevelType)::$_1, std::__ndk1::allocator<BSCalendarPopup::setup(cocos2d::CCObject*, void (cocos2d::CCObject::*)(cocos2d::CCObject*), GJTimedLevelType)::$_1>, void (CCMenuItemSpriteExtra*)>::target(std::type_info const&) const
PUBLIC 2ab10 0 std::__ndk1::__function::__func<BSCalendarPopup::setup(cocos2d::CCObject*, void (cocos2d::CCObject::*)(cocos2d::CCObject*), GJTimedLevelType)::$_1, std::__ndk1::allocator<BSCalendarPopup::setup(cocos2d::CCObject*, void (cocos2d::CCObject::*)(cocos2d::CCObject*), GJTimedLevelType)::$_1>, void (CCMenuItemSpriteExtra*)>::target_type() const
PUBLIC 2ab1c 0 std::__ndk1::__function::__func<BSCalendarPopup::setup(cocos2d::CCObject*, void (cocos2d::CCObject::*)(cocos2d::CCObject*), GJTimedLevelType)::$_2, std::__ndk1::allocator<BSCalendarPopup::setup(cocos2d::CCObject*, void (cocos2d::CCObject::*)(cocos2d::CCObject*), GJTimedLevelType)::$_2>, void (CCMenuItemSpriteExtra*)>::~__func()
PUBLIC 2ab20 0 std::__ndk1::__function::__func<BSCalendarPopup::setup(cocos2d::CCObject*, void (cocos2d::CCObject::*)(cocos2d::CCObject*), GJTimedLevelType)::$_2, std::__ndk1::allocator<BSCalendarPopup::setup(cocos2d::CCObject*, void (cocos2d::CCObject::*)(cocos2d::CCObject*), GJTimedLevelType)::$_2>, void (CCMenuItemSpriteExtra*)>::__clone() const
PUBLIC 2ab54 0 std::__ndk1::__function::__func<BSCalendarPopup::setup(cocos2d::CCObject*, void (cocos2d::CCObject::*)(cocos2d::CCObject*), GJTimedLevelType)::$_2, std::__ndk1::allocator<BSCalendarPopup::setup(cocos2d::CCObject*, void (cocos2d::CCObject::*)(cocos2d::CCObject*), GJTimedLevelType)::$_2>, void (CCMenuItemSpriteExtra*)>::__clone(std::__ndk1::__function::__base<void (CCMenuItemSpriteExtra*)>*) const
PUBLIC 2ab68 0 std::__ndk1::__function::__func<BSCalendarPopup::setup(cocos2d::CCObject*, void (cocos2d::CCObject::*)(cocos2d::CCObject*), GJTimedLevelType)::$_2, std::__ndk1::allocator<BSCalendarPopup::setup(cocos2d::CCObject*, void (cocos2d::CCObject::*)(cocos2d::CCObject*), GJTimedLevelType)::$_2>, void (CCMenuItemSpriteExtra*)>::destroy()
PUBLIC 2ab6c 0 std::__ndk1::__function::__func<BSCalendarPopup::setup(cocos2d::CCObject*, void (cocos2d::CCObject::*)(cocos2d::CCObject*), GJTimedLevelType)::$_2, std::__ndk1::allocator<BSCalendarPopup::setup(cocos2d::CCObject*, void (cocos2d::CCObject::*)(cocos2d::CCObject*), GJTimedLevelType)::$_2>, void (CCMenuItemSpriteExtra*)>::destroy_deallocate()
PUBLIC 2ab70 0 std::__ndk1::__function::__func<BSCalendarPopup::setup(cocos2d::CCObject*, void (cocos2d::CCObject::*)(cocos2d::CCObject*), GJTimedLevelType)::$_2, std::__ndk1::allocator<BSCalendarPopup::setup(cocos2d::CCObject*, void (cocos2d::CCObject::*)(cocos2d::CCObject*), GJTimedLevelType)::$_2>, void (CCMenuItemSpriteExtra*)>::operator()(CCMenuItemSpriteExtra*&&)
PUBLIC 2ab88 0 std::__ndk1::__function::__func<BSCalendarPopup::setup(cocos2d::CCObject*, void (cocos2d::CCObject::*)(cocos2d::CCObject*), GJTimedLevelType)::$_2, std::__ndk1::allocator<BSCalendarPopup::setup(cocos2d::CCObject*, void (cocos2d::CCObject::*)(cocos2d::CCObject*), GJTimedLevelType)::$_2>, void (CCMenuItemSpriteExtra*)>::target(std::type_info const&) const
PUBLIC 2aba4 0 std::__ndk1::__function::__func<BSCalendarPopup::setup(cocos2d::CCObject*, void (cocos2d::CCObject::*)(cocos2d::CCObject*), GJTimedLevelType)::$_2, std::__ndk1::allocator<BSCalendarPopup::setup(cocos2d::CCObject*, void (cocos2d::CCObject::*)(cocos2d::CCObject*), GJTimedLevelType)::$_2>, void (CCMenuItemSpriteExtra*)>::target_type() const
PUBLIC 2abb0 0 std::__ndk1::__function::__func<BSCalendarPopup::setup(cocos2d::CCObject*, void (cocos2d::CCObject::*)(cocos2d::CCObject*), GJTimedLevelType)::$_3, std::__ndk1::allocator<BSCalendarPopup::setup(cocos2d::CCObject*, void (cocos2d::CCObject::*)(cocos2d::CCObject*), GJTimedLevelType)::$_3>, void (CCMenuItemSpriteExtra*)>::~__func()
PUBLIC 2abb4 0 std::__ndk1::__function::__func<BSCalendarPopup::setup(cocos2d::CCObject*, void (cocos2d::CCObject::*)(cocos2d::CCObject*), GJTimedLevelType)::$_3, std::__ndk1::allocator<BSCalendarPopup::setup(cocos2d::CCObject*, void (cocos2d::CCObject::*)(cocos2d::CCObject*), GJTimedLevelType)::$_3>, void (CCMenuItemSpriteExtra*)>::__clone() const
PUBLIC 2abe8 0 std::__ndk1::__function::__func<BSCalendarPopup::setup(cocos2d::CCObject*, void (cocos2d::CCObject::*)(cocos2d::CCObject*), GJTimedLevelType)::$_3, std::__ndk1::allocator<BSCalendarPopup::setup(cocos2d::CCObject*, void (cocos2d::CCObject::*)(cocos2d::CCObject*), GJTimedLevelType)::$_3>, void (CCMenuItemSpriteExtra*)>::__clone(std::__ndk1::__function::__base<void (CCMenuItemSpriteExtra*)>*) const
PUBLIC 2abfc 0 std::__ndk1::__function::__func<BSCalendarPopup::setup(cocos2d::CCObject*, void (cocos2d::CCObject::*)(cocos2d::CCObject*), GJTimedLevelType)::$_3, std::__ndk1::allocator<BSCalendarPopup::setup(cocos2d::CCObject*, void (cocos2d::CCObject::*)(cocos2d::CCObject*), GJTimedLevelType)::$_3>, void (CCMenuItemSpriteExtra*)>::destroy()
PUBLIC 2ac00 0 std::__ndk1::__function::__func<BSCalendarPopup::setup(cocos2d::CCObject*, void (cocos2d::CCObject::*)(cocos2d::CCObject*), GJTimedLevelType)::$_3, std::__ndk1::allocator<BSCalendarPopup::setup(cocos2d::CCObject*, void (cocos2d::CCObject::*)(cocos2d::CCObject*), GJTimedLevelType)::$_3>, void (CCMenuItemSpriteExtra*)>::destroy_deallocate()
PUBLIC 2ac04 0 std::__ndk1::__function::__func<BSCalendarPopup::setup(cocos2d::CCObject*, void (cocos2d::CCObject::*)(cocos2d::CCObject*), GJTimedLevelType)::$_3, std::__ndk1::allocator<BSCalendarPopup::setup(cocos2d::CCObject*, void (cocos2d::CCObject::*)(cocos2d::CCObject*), GJTimedLevelType)::$_3>, void (CCMenuItemSpriteExtra*)>::operator()(CCMenuItemSpriteExtra*&&)
PUBLIC 2ac1c 0 std::__ndk1::__function::__func<BSCalendarPopup::setup(cocos2d::CCObject*, void (cocos2d::CCObject::*)(cocos2d::CCObject*), GJTimedLevelType)::$_3, std::__ndk1::allocator<BSCalendarPopup::setup(cocos2d::CCObject*, void (cocos2d::CCObject::*)(cocos2d::CCObject*), GJTimedLevelType)::$_3>, void (CCMenuItemSpriteExtra*)>::target(std::type_info const&) const
PUBLIC 2ac38 0 std::__ndk1::__function::__func<BSCalendarPopup::setup(cocos2d::CCObject*, void (cocos2d::CCObject::*)(cocos2d::CCObject*), GJTimedLevelType)::$_3, std::__ndk1::allocator<BSCalendarPopup::setup(cocos2d::CCObject*, void (cocos2d::CCObject::*)(cocos2d::CCObject*), GJTimedLevelType)::$_3>, void (CCMenuItemSpriteExtra*)>::target_type() const
PUBLIC 2ac44 0 std::__ndk1::__function::__func<BSCalendarPopup::setup(cocos2d::CCObject*, void (cocos2d::CCObject::*)(cocos2d::CCObject*), GJTimedLevelType)::$_4, std::__ndk1::allocator<BSCalendarPopup::setup(cocos2d::CCObject*, void (cocos2d::CCObject::*)(cocos2d::CCObject*), GJTimedLevelType)::$_4>, void (CCMenuItemSpriteExtra*)>::~__func()
PUBLIC 2ac48 0 std::__ndk1::__function::__func<BSCalendarPopup::setup(cocos2d::CCObject*, void (cocos2d::CCObject::*)(cocos2d::CCObject*), GJTimedLevelType)::$_4, std::__ndk1::allocator<BSCalendarPopup::setup(cocos2d::CCObject*, void (cocos2d::CCObject::*)(cocos2d::CCObject*), GJTimedLevelType)::$_4>, void (CCMenuItemSpriteExtra*)>::__clone() const
PUBLIC 2ac7c 0 std::__ndk1::__function::__func<BSCalendarPopup::setup(cocos2d::CCObject*, void (cocos2d::CCObject::*)(cocos2d::CCObject*), GJTimedLevelType)::$_4, std::__ndk1::allocator<BSCalendarPopup::setup(cocos2d::CCObject*, void (cocos2d::CCObject::*)(cocos2d::CCObject*), GJTimedLevelType)::$_4>, void (CCMenuItemSpriteExtra*)>::__clone(std::__ndk1::__function::__base<void (CCMenuItemSpriteExtra*)>*) const
PUBLIC 2ac90 0 std::__ndk1::__function::__func<BSCalendarPopup::setup(cocos2d::CCObject*, void (cocos2d::CCObject::*)(cocos2d::CCObject*), GJTimedLevelType)::$_4, std::__ndk1::allocator<BSCalendarPopup::setup(cocos2d::CCObject*, void (cocos2d::CCObject::*)(cocos2d::CCObject*), GJTimedLevelType)::$_4>, void (CCMenuItemSpriteExtra*)>::destroy()
PUBLIC 2ac94 0 std::__ndk1::__function::__func<BSCalendarPopup::setup(cocos2d::CCObject*, void (cocos2d::CCObject::*)(cocos2d::CCObject*), GJTimedLevelType)::$_4, std::__ndk1::allocator<BSCalendarPopup::setup(cocos2d::CCObject*, void (cocos2d::CCObject::*)(cocos2d::CCObject*), GJTimedLevelType)::$_4>, void (CCMenuItemSpriteExtra*)>::destroy_deallocate()
PUBLIC 2ac98 0 std::__ndk1::__function::__func<BSCalendarPopup::setup(cocos2d::CCObject*, void (cocos2d::CCObject::*)(cocos2d::CCObject*), GJTimedLevelType)::$_4, std::__ndk1::allocator<BSCalendarPopup::setup(cocos2d::CCObject*, void (cocos2d::CCObject::*)(cocos2d::CCObject*), GJTimedLevelType)::$_4>, void (CCMenuItemSpriteExtra*)>::operator()(CCMenuItemSpriteExtra*&&)
PUBLIC 2ad98 0 std::__ndk1::__function::__func<BSCalendarPopup::setup(cocos2d::CCObject*, void (cocos2d::CCObject::*)(cocos2d::CCObject*), GJTimedLevelType)::$_4, std::__ndk1::allocator<BSCalendarPopup::setup(cocos2d::CCObject*, void (cocos2d::CCObject::*)(cocos2d::CCObject*), GJTimedLevelType)::$_4>, void (CCMenuItemSpriteExtra*)>::target(std::type_info const&) const
PUBLIC 2adb4 0 std::__ndk1::__function::__func<BSCalendarPopup::setup(cocos2d::CCObject*, void (cocos2d::CCObject::*)(cocos2d::CCObject*), GJTimedLevelType)::$_4, std::__ndk1::allocator<BSCalendarPopup::setup(cocos2d::CCObject*, void (cocos2d::CCObject::*)(cocos2d::CCObject*), GJTimedLevelType)::$_4>, void (CCMenuItemSpriteExtra*)>::target_type() const
PUBLIC 2adc0 0 std::__ndk1::__function::__base<void (int, int)>::~__base()
PUBLIC 2adc4 0 std::__ndk1::__function::__func<BSCalendarPopup::setup(cocos2d::CCObject*, void (cocos2d::CCObject::*)(cocos2d::CCObject*), GJTimedLevelType)::$_4::operator()<CCMenuItemSpriteExtra*>(CCMenuItemSpriteExtra*) const::{lambda(int, int)#1}, std::__ndk1::allocator<BSCalendarPopup::setup(cocos2d::CCObject*, void (cocos2d::CCObject::*)(cocos2d::CCObject*), GJTimedLevelType)::$_4::operator()<CCMenuItemSpriteExtra*>(CCMenuItemSpriteExtra*) const::{lambda(int, int)#1}>, void (int, int)>::~__func()
PUBLIC 2adc8 0 std::__ndk1::__function::__func<BSCalendarPopup::setup(cocos2d::CCObject*, void (cocos2d::CCObject::*)(cocos2d::CCObject*), GJTimedLevelType)::$_4::operator()<CCMenuItemSpriteExtra*>(CCMenuItemSpriteExtra*) const::{lambda(int, int)#1}, std::__ndk1::allocator<BSCalendarPopup::setup(cocos2d::CCObject*, void (cocos2d::CCObject::*)(cocos2d::CCObject*), GJTimedLevelType)::$_4::operator()<CCMenuItemSpriteExtra*>(CCMenuItemSpriteExtra*) const::{lambda(int, int)#1}>, void (int, int)>::__clone() const
PUBLIC 2adfc 0 std::__ndk1::__function::__func<BSCalendarPopup::setup(cocos2d::CCObject*, void (cocos2d::CCObject::*)(cocos2d::CCObject*), GJTimedLevelType)::$_4::operator()<CCMenuItemSpriteExtra*>(CCMenuItemSpriteExtra*) const::{lambda(int, int)#1}, std::__ndk1::allocator<BSCalendarPopup::setup(cocos2d::CCObject*, void (cocos2d::CCObject::*)(cocos2d::CCObject*), GJTimedLevelType)::$_4::operator()<CCMenuItemSpriteExtra*>(CCMenuItemSpriteExtra*) const::{lambda(int, int)#1}>, void (int, int)>::__clone(std::__ndk1::__function::__base<void (int, int)>*) const
PUBLIC 2ae10 0 std::__ndk1::__function::__func<BSCalendarPopup::setup(cocos2d::CCObject*, void (cocos2d::CCObject::*)(cocos2d::CCObject*), GJTimedLevelType)::$_4::operator()<CCMenuItemSpriteExtra*>(CCMenuItemSpriteExtra*) const::{lambda(int, int)#1}, std::__ndk1::allocator<BSCalendarPopup::setup(cocos2d::CCObject*, void (cocos2d::CCObject::*)(cocos2d::CCObject*), GJTimedLevelType)::$_4::operator()<CCMenuItemSpriteExtra*>(CCMenuItemSpriteExtra*) const::{lambda(int, int)#1}>, void (int, int)>::destroy()
PUBLIC 2ae14 0 std::__ndk1::__function::__func<BSCalendarPopup::setup(cocos2d::CCObject*, void (cocos2d::CCObject::*)(cocos2d::CCObject*), GJTimedLevelType)::$_4::operator()<CCMenuItemSpriteExtra*>(CCMenuItemSpriteExtra*) const::{lambda(int, int)#1}, std::__ndk1::allocator<BSCalendarPopup::setup(cocos2d::CCObject*, void (cocos2d::CCObject::*)(cocos2d::CCObject*), GJTimedLevelType)::$_4::operator()<CCMenuItemSpriteExtra*>(CCMenuItemSpriteExtra*) const::{lambda(int, int)#1}>, void (int, int)>::destroy_deallocate()
PUBLIC 2ae18 0 std::__ndk1::__function::__func<BSCalendarPopup::setup(cocos2d::CCObject*, void (cocos2d::CCObject::*)(cocos2d::CCObject*), GJTimedLevelType)::$_4::operator()<CCMenuItemSpriteExtra*>(CCMenuItemSpriteExtra*) const::{lambda(int, int)#1}, std::__ndk1::allocator<BSCalendarPopup::setup(cocos2d::CCObject*, void (cocos2d::CCObject::*)(cocos2d::CCObject*), GJTimedLevelType)::$_4::operator()<CCMenuItemSpriteExtra*>(CCMenuItemSpriteExtra*) const::{lambda(int, int)#1}>, void (int, int)>::operator()(int&&, int&&)
PUBLIC 2ae30 0 std::__ndk1::__function::__func<BSCalendarPopup::setup(cocos2d::CCObject*, void (cocos2d::CCObject::*)(cocos2d::CCObject*), GJTimedLevelType)::$_4::operator()<CCMenuItemSpriteExtra*>(CCMenuItemSpriteExtra*) const::{lambda(int, int)#1}, std::__ndk1::allocator<BSCalendarPopup::setup(cocos2d::CCObject*, void (cocos2d::CCObject::*)(cocos2d::CCObject*), GJTimedLevelType)::$_4::operator()<CCMenuItemSpriteExtra*>(CCMenuItemSpriteExtra*) const::{lambda(int, int)#1}>, void (int, int)>::target(std::type_info const&) const
PUBLIC 2ae4c 0 std::__ndk1::__function::__func<BSCalendarPopup::setup(cocos2d::CCObject*, void (cocos2d::CCObject::*)(cocos2d::CCObject*), GJTimedLevelType)::$_4::operator()<CCMenuItemSpriteExtra*>(CCMenuItemSpriteExtra*) const::{lambda(int, int)#1}, std::__ndk1::allocator<BSCalendarPopup::setup(cocos2d::CCObject*, void (cocos2d::CCObject::*)(cocos2d::CCObject*), GJTimedLevelType)::$_4::operator()<CCMenuItemSpriteExtra*>(CCMenuItemSpriteExtra*) const::{lambda(int, int)#1}>, void (int, int)>::target_type() const
PUBLIC 2ae58 0 std::__ndk1::__function::__base<void (CCMenuItemSpriteExtra*)>::~__base()
PUBLIC 2ae5c 0 std::__ndk1::__function::__func<BSCalendarPopup::setup(cocos2d::CCObject*, void (cocos2d::CCObject::*)(cocos2d::CCObject*), GJTimedLevelType)::$_5, std::__ndk1::allocator<BSCalendarPopup::setup(cocos2d::CCObject*, void (cocos2d::CCObject::*)(cocos2d::CCObject*), GJTimedLevelType)::$_5>, void (CCMenuItemSpriteExtra*)>::~__func()
PUBLIC 2ae60 0 std::__ndk1::__function::__func<BSCalendarPopup::setup(cocos2d::CCObject*, void (cocos2d::CCObject::*)(cocos2d::CCObject*), GJTimedLevelType)::$_5, std::__ndk1::allocator<BSCalendarPopup::setup(cocos2d::CCObject*, void (cocos2d::CCObject::*)(cocos2d::CCObject*), GJTimedLevelType)::$_5>, void (CCMenuItemSpriteExtra*)>::__clone() const
PUBLIC 2ae98 0 std::__ndk1::__function::__func<BSCalendarPopup::setup(cocos2d::CCObject*, void (cocos2d::CCObject::*)(cocos2d::CCObject*), GJTimedLevelType)::$_5, std::__ndk1::allocator<BSCalendarPopup::setup(cocos2d::CCObject*, void (cocos2d::CCObject::*)(cocos2d::CCObject*), GJTimedLevelType)::$_5>, void (CCMenuItemSpriteExtra*)>::__clone(std::__ndk1::__function::__base<void (CCMenuItemSpriteExtra*)>*) const
PUBLIC 2aeb0 0 std::__ndk1::__function::__func<BSCalendarPopup::setup(cocos2d::CCObject*, void (cocos2d::CCObject::*)(cocos2d::CCObject*), GJTimedLevelType)::$_5, std::__ndk1::allocator<BSCalendarPopup::setup(cocos2d::CCObject*, void (cocos2d::CCObject::*)(cocos2d::CCObject*), GJTimedLevelType)::$_5>, void (CCMenuItemSpriteExtra*)>::destroy()
PUBLIC 2aeb4 0 std::__ndk1::__function::__func<BSCalendarPopup::setup(cocos2d::CCObject*, void (cocos2d::CCObject::*)(cocos2d::CCObject*), GJTimedLevelType)::$_5, std::__ndk1::allocator<BSCalendarPopup::setup(cocos2d::CCObject*, void (cocos2d::CCObject::*)(cocos2d::CCObject*), GJTimedLevelType)::$_5>, void (CCMenuItemSpriteExtra*)>::destroy_deallocate()
PUBLIC 2aeb8 0 std::__ndk1::__function::__func<BSCalendarPopup::setup(cocos2d::CCObject*, void (cocos2d::CCObject::*)(cocos2d::CCObject*), GJTimedLevelType)::$_5, std::__ndk1::allocator<BSCalendarPopup::setup(cocos2d::CCObject*, void (cocos2d::CCObject::*)(cocos2d::CCObject*), GJTimedLevelType)::$_5>, void (CCMenuItemSpriteExtra*)>::operator()(CCMenuItemSpriteExtra*&&)
PUBLIC 2b1b8 0 std::__ndk1::__function::__func<BSCalendarPopup::setup(cocos2d::CCObject*, void (cocos2d::CCObject::*)(cocos2d::CCObject*), GJTimedLevelType)::$_5, std::__ndk1::allocator<BSCalendarPopup::setup(cocos2d::CCObject*, void (cocos2d::CCObject::*)(cocos2d::CCObject*), GJTimedLevelType)::$_5>, void (CCMenuItemSpriteExtra*)>::target(std::type_info const&) const
PUBLIC 2b1d4 0 std::__ndk1::__function::__func<BSCalendarPopup::setup(cocos2d::CCObject*, void (cocos2d::CCObject::*)(cocos2d::CCObject*), GJTimedLevelType)::$_5, std::__ndk1::allocator<BSCalendarPopup::setup(cocos2d::CCObject*, void (cocos2d::CCObject::*)(cocos2d::CCObject*), GJTimedLevelType)::$_5>, void (CCMenuItemSpriteExtra*)>::target_type() const
PUBLIC 2b1e0 0 std::__ndk1::__function::__func<BSCalendarPopup::setup(cocos2d::CCObject*, void (cocos2d::CCObject::*)(cocos2d::CCObject*), GJTimedLevelType)::$_5::operator()<CCMenuItemSpriteExtra*>(CCMenuItemSpriteExtra*) const::{lambda()#1}, std::__ndk1::allocator<BSCalendarPopup::setup(cocos2d::CCObject*, void (cocos2d::CCObject::*)(cocos2d::CCObject*), GJTimedLevelType)::$_5::operator()<CCMenuItemSpriteExtra*>(CCMenuItemSpriteExtra*) const::{lambda()#1}>, void ()>::~__func()
PUBLIC 2b1e4 0 std::__ndk1::__function::__func<BSCalendarPopup::setup(cocos2d::CCObject*, void (cocos2d::CCObject::*)(cocos2d::CCObject*), GJTimedLevelType)::$_5::operator()<CCMenuItemSpriteExtra*>(CCMenuItemSpriteExtra*) const::{lambda()#1}, std::__ndk1::allocator<BSCalendarPopup::setup(cocos2d::CCObject*, void (cocos2d::CCObject::*)(cocos2d::CCObject*), GJTimedLevelType)::$_5::operator()<CCMenuItemSpriteExtra*>(CCMenuItemSpriteExtra*) const::{lambda()#1}>, void ()>::__clone() const
PUBLIC 2b21c 0 std::__ndk1::__function::__func<BSCalendarPopup::setup(cocos2d::CCObject*, void (cocos2d::CCObject::*)(cocos2d::CCObject*), GJTimedLevelType)::$_5::operator()<CCMenuItemSpriteExtra*>(CCMenuItemSpriteExtra*) const::{lambda()#1}, std::__ndk1::allocator<BSCalendarPopup::setup(cocos2d::CCObject*, void (cocos2d::CCObject::*)(cocos2d::CCObject*), GJTimedLevelType)::$_5::operator()<CCMenuItemSpriteExtra*>(CCMenuItemSpriteExtra*) const::{lambda()#1}>, void ()>::__clone(std::__ndk1::__function::__base<void ()>*) const
PUBLIC 2b234 0 std::__ndk1::__function::__func<BSCalendarPopup::setup(cocos2d::CCObject*, void (cocos2d::CCObject::*)(cocos2d::CCObject*), GJTimedLevelType)::$_5::operator()<CCMenuItemSpriteExtra*>(CCMenuItemSpriteExtra*) const::{lambda()#1}, std::__ndk1::allocator<BSCalendarPopup::setup(cocos2d::CCObject*, void (cocos2d::CCObject::*)(cocos2d::CCObject*), GJTimedLevelType)::$_5::operator()<CCMenuItemSpriteExtra*>(CCMenuItemSpriteExtra*) const::{lambda()#1}>, void ()>::destroy()
PUBLIC 2b238 0 std::__ndk1::__function::__func<BSCalendarPopup::setup(cocos2d::CCObject*, void (cocos2d::CCObject::*)(cocos2d::CCObject*), GJTimedLevelType)::$_5::operator()<CCMenuItemSpriteExtra*>(CCMenuItemSpriteExtra*) const::{lambda()#1}, std::__ndk1::allocator<BSCalendarPopup::setup(cocos2d::CCObject*, void (cocos2d::CCObject::*)(cocos2d::CCObject*), GJTimedLevelType)::$_5::operator()<CCMenuItemSpriteExtra*>(CCMenuItemSpriteExtra*) const::{lambda()#1}>, void ()>::destroy_deallocate()
PUBLIC 2b23c 0 std::__ndk1::__function::__func<BSCalendarPopup::setup(cocos2d::CCObject*, void (cocos2d::CCObject::*)(cocos2d::CCObject*), GJTimedLevelType)::$_5::operator()<CCMenuItemSpriteExtra*>(CCMenuItemSpriteExtra*) const::{lambda()#1}, std::__ndk1::allocator<BSCalendarPopup::setup(cocos2d::CCObject*, void (cocos2d::CCObject::*)(cocos2d::CCObject*), GJTimedLevelType)::$_5::operator()<CCMenuItemSpriteExtra*>(CCMenuItemSpriteExtra*) const::{lambda()#1}>, void ()>::operator()()
PUBLIC 2b2fc 0 std::__ndk1::__function::__func<BSCalendarPopup::setup(cocos2d::CCObject*, void (cocos2d::CCObject::*)(cocos2d::CCObject*), GJTimedLevelType)::$_5::operator()<CCMenuItemSpriteExtra*>(CCMenuItemSpriteExtra*) const::{lambda()#1}, std::__ndk1::allocator<BSCalendarPopup::setup(cocos2d::CCObject*, void (cocos2d::CCObject::*)(cocos2d::CCObject*), GJTimedLevelType)::$_5::operator()<CCMenuItemSpriteExtra*>(CCMenuItemSpriteExtra*) const::{lambda()#1}>, void ()>::target(std::type_info const&) const
PUBLIC 2b318 0 std::__ndk1::__function::__func<BSCalendarPopup::setup(cocos2d::CCObject*, void (cocos2d::CCObject::*)(cocos2d::CCObject*), GJTimedLevelType)::$_5::operator()<CCMenuItemSpriteExtra*>(CCMenuItemSpriteExtra*) const::{lambda()#1}, std::__ndk1::allocator<BSCalendarPopup::setup(cocos2d::CCObject*, void (cocos2d::CCObject::*)(cocos2d::CCObject*), GJTimedLevelType)::$_5::operator()<CCMenuItemSpriteExtra*>(CCMenuItemSpriteExtra*) const::{lambda()#1}>, void ()>::target_type() const
PUBLIC 2b324 0 std::__ndk1::__function::__func<BSCalendarPopup::setup(cocos2d::CCObject*, void (cocos2d::CCObject::*)(cocos2d::CCObject*), GJTimedLevelType)::$_5::operator()<CCMenuItemSpriteExtra*>(CCMenuItemSpriteExtra*) const::{lambda(int)#1}, std::__ndk1::allocator<BSCalendarPopup::setup(cocos2d::CCObject*, void (cocos2d::CCObject::*)(cocos2d::CCObject*), GJTimedLevelType)::$_5::operator()<CCMenuItemSpriteExtra*>(CCMenuItemSpriteExtra*) const::{lambda(int)#1}>, void (int)>::~__func()
PUBLIC 2b328 0 std::__ndk1::__function::__func<BSCalendarPopup::setup(cocos2d::CCObject*, void (cocos2d::CCObject::*)(cocos2d::CCObject*), GJTimedLevelType)::$_5::operator()<CCMenuItemSpriteExtra*>(CCMenuItemSpriteExtra*) const::{lambda(int)#1}, std::__ndk1::allocator<BSCalendarPopup::setup(cocos2d::CCObject*, void (cocos2d::CCObject::*)(cocos2d::CCObject*), GJTimedLevelType)::$_5::operator()<CCMenuItemSpriteExtra*>(CCMenuItemSpriteExtra*) const::{lambda(int)#1}>, void (int)>::__clone() const
PUBLIC 2b35c 0 std::__ndk1::__function::__func<BSCalendarPopup::setup(cocos2d::CCObject*, void (cocos2d::CCObject::*)(cocos2d::CCObject*), GJTimedLevelType)::$_5::operator()<CCMenuItemSpriteExtra*>(CCMenuItemSpriteExtra*) const::{lambda(int)#1}, std::__ndk1::allocator<BSCalendarPopup::setup(cocos2d::CCObject*, void (cocos2d::CCObject::*)(cocos2d::CCObject*), GJTimedLevelType)::$_5::operator()<CCMenuItemSpriteExtra*>(CCMenuItemSpriteExtra*) const::{lambda(int)#1}>, void (int)>::__clone(std::__ndk1::__function::__base<void (int)>*) const
PUBLIC 2b370 0 std::__ndk1::__function::__func<BSCalendarPopup::setup(cocos2d::CCObject*, void (cocos2d::CCObject::*)(cocos2d::CCObject*), GJTimedLevelType)::$_5::operator()<CCMenuItemSpriteExtra*>(CCMenuItemSpriteExtra*) const::{lambda(int)#1}, std::__ndk1::allocator<BSCalendarPopup::setup(cocos2d::CCObject*, void (cocos2d::CCObject::*)(cocos2d::CCObject*), GJTimedLevelType)::$_5::operator()<CCMenuItemSpriteExtra*>(CCMenuItemSpriteExtra*) const::{lambda(int)#1}>, void (int)>::destroy()
PUBLIC 2b374 0 std::__ndk1::__function::__func<BSCalendarPopup::setup(cocos2d::CCObject*, void (cocos2d::CCObject::*)(cocos2d::CCObject*), GJTimedLevelType)::$_5::operator()<CCMenuItemSpriteExtra*>(CCMenuItemSpriteExtra*) const::{lambda(int)#1}, std::__ndk1::allocator<BSCalendarPopup::setup(cocos2d::CCObject*, void (cocos2d::CCObject::*)(cocos2d::CCObject*), GJTimedLevelType)::$_5::operator()<CCMenuItemSpriteExtra*>(CCMenuItemSpriteExtra*) const::{lambda(int)#1}>, void (int)>::destroy_deallocate()
PUBLIC 2b378 0 std::__ndk1::__function::__func<BSCalendarPopup::setup(cocos2d::CCObject*, void (cocos2d::CCObject::*)(cocos2d::CCObject*), GJTimedLevelType)::$_5::operator()<CCMenuItemSpriteExtra*>(CCMenuItemSpriteExtra*) const::{lambda(int)#1}, std::__ndk1::allocator<BSCalendarPopup::setup(cocos2d::CCObject*, void (cocos2d::CCObject::*)(cocos2d::CCObject*), GJTimedLevelType)::$_5::operator()<CCMenuItemSpriteExtra*>(CCMenuItemSpriteExtra*) const::{lambda(int)#1}>, void (int)>::operator()(int&&)
PUBLIC 2b598 0 std::__ndk1::__function::__func<BSCalendarPopup::setup(cocos2d::CCObject*, void (cocos2d::CCObject::*)(cocos2d::CCObject*), GJTimedLevelType)::$_5::operator()<CCMenuItemSpriteExtra*>(CCMenuItemSpriteExtra*) const::{lambda(int)#1}, std::__ndk1::allocator<BSCalendarPopup::setup(cocos2d::CCObject*, void (cocos2d::CCObject::*)(cocos2d::CCObject*), GJTimedLevelType)::$_5::operator()<CCMenuItemSpriteExtra*>(CCMenuItemSpriteExtra*) const::{lambda(int)#1}>, void (int)>::target(std::type_info const&) const
PUBLIC 2b5b4 0 std::__ndk1::__function::__func<BSCalendarPopup::setup(cocos2d::CCObject*, void (cocos2d::CCObject::*)(cocos2d::CCObject*), GJTimedLevelType)::$_5::operator()<CCMenuItemSpriteExtra*>(CCMenuItemSpriteExtra*) const::{lambda(int)#1}, std::__ndk1::allocator<BSCalendarPopup::setup(cocos2d::CCObject*, void (cocos2d::CCObject::*)(cocos2d::CCObject*), GJTimedLevelType)::$_5::operator()<CCMenuItemSpriteExtra*>(CCMenuItemSpriteExtra*) const::{lambda(int)#1}>, void (int)>::target_type() const
PUBLIC 2b5c0 0 std::__ndk1::__function::__func<BSCalendarPopup::setup(cocos2d::CCObject*, void (cocos2d::CCObject::*)(cocos2d::CCObject*), GJTimedLevelType)::$_6, std::__ndk1::allocator<BSCalendarPopup::setup(cocos2d::CCObject*, void (cocos2d::CCObject::*)(cocos2d::CCObject*), GJTimedLevelType)::$_6>, void ()>::~__func()
PUBLIC 2b5c4 0 std::__ndk1::__function::__func<BSCalendarPopup::setup(cocos2d::CCObject*, void (cocos2d::CCObject::*)(cocos2d::CCObject*), GJTimedLevelType)::$_6, std::__ndk1::allocator<BSCalendarPopup::setup(cocos2d::CCObject*, void (cocos2d::CCObject::*)(cocos2d::CCObject*), GJTimedLevelType)::$_6>, void ()>::__clone() const
PUBLIC 2b5fc 0 std::__ndk1::__function::__func<BSCalendarPopup::setup(cocos2d::CCObject*, void (cocos2d::CCObject::*)(cocos2d::CCObject*), GJTimedLevelType)::$_6, std::__ndk1::allocator<BSCalendarPopup::setup(cocos2d::CCObject*, void (cocos2d::CCObject::*)(cocos2d::CCObject*), GJTimedLevelType)::$_6>, void ()>::__clone(std::__ndk1::__function::__base<void ()>*) const
PUBLIC 2b614 0 std::__ndk1::__function::__func<BSCalendarPopup::setup(cocos2d::CCObject*, void (cocos2d::CCObject::*)(cocos2d::CCObject*), GJTimedLevelType)::$_6, std::__ndk1::allocator<BSCalendarPopup::setup(cocos2d::CCObject*, void (cocos2d::CCObject::*)(cocos2d::CCObject*), GJTimedLevelType)::$_6>, void ()>::destroy()
PUBLIC 2b618 0 std::__ndk1::__function::__func<BSCalendarPopup::setup(cocos2d::CCObject*, void (cocos2d::CCObject::*)(cocos2d::CCObject*), GJTimedLevelType)::$_6, std::__ndk1::allocator<BSCalendarPopup::setup(cocos2d::CCObject*, void (cocos2d::CCObject::*)(cocos2d::CCObject*), GJTimedLevelType)::$_6>, void ()>::destroy_deallocate()
PUBLIC 2b61c 0 std::__ndk1::__function::__func<BSCalendarPopup::setup(cocos2d::CCObject*, void (cocos2d::CCObject::*)(cocos2d::CCObject*), GJTimedLevelType)::$_6, std::__ndk1::allocator<BSCalendarPopup::setup(cocos2d::CCObject*, void (cocos2d::CCObject::*)(cocos2d::CCObject*), GJTimedLevelType)::$_6>, void ()>::operator()()
PUBLIC 2b94c 0 std::__ndk1::__function::__func<BSCalendarPopup::setup(cocos2d::CCObject*, void (cocos2d::CCObject::*)(cocos2d::CCObject*), GJTimedLevelType)::$_6, std::__ndk1::allocator<BSCalendarPopup::setup(cocos2d::CCObject*, void (cocos2d::CCObject::*)(cocos2d::CCObject*), GJTimedLevelType)::$_6>, void ()>::target(std::type_info const&) const
PUBLIC 2b968 0 std::__ndk1::__function::__func<BSCalendarPopup::setup(cocos2d::CCObject*, void (cocos2d::CCObject::*)(cocos2d::CCObject*), GJTimedLevelType)::$_6, std::__ndk1::allocator<BSCalendarPopup::setup(cocos2d::CCObject*, void (cocos2d::CCObject::*)(cocos2d::CCObject*), GJTimedLevelType)::$_6>, void ()>::target_type() const
PUBLIC 2b974 0 std::__ndk1::__function::__base<void (int)>::~__base()
PUBLIC 2b978 0 std::__ndk1::__function::__func<BSCalendarPopup::setup(cocos2d::CCObject*, void (cocos2d::CCObject::*)(cocos2d::CCObject*), GJTimedLevelType)::$_7, std::__ndk1::allocator<BSCalendarPopup::setup(cocos2d::CCObject*, void (cocos2d::CCObject::*)(cocos2d::CCObject*), GJTimedLevelType)::$_7>, void (int)>::~__func()
PUBLIC 2b97c 0 std::__ndk1::__function::__func<BSCalendarPopup::setup(cocos2d::CCObject*, void (cocos2d::CCObject::*)(cocos2d::CCObject*), GJTimedLevelType)::$_7, std::__ndk1::allocator<BSCalendarPopup::setup(cocos2d::CCObject*, void (cocos2d::CCObject::*)(cocos2d::CCObject*), GJTimedLevelType)::$_7>, void (int)>::__clone() const
PUBLIC 2b9b0 0 std::__ndk1::__function::__func<BSCalendarPopup::setup(cocos2d::CCObject*, void (cocos2d::CCObject::*)(cocos2d::CCObject*), GJTimedLevelType)::$_7, std::__ndk1::allocator<BSCalendarPopup::setup(cocos2d::CCObject*, void (cocos2d::CCObject::*)(cocos2d::CCObject*), GJTimedLevelType)::$_7>, void (int)>::__clone(std::__ndk1::__function::__base<void (int)>*) const
PUBLIC 2b9c4 0 std::__ndk1::__function::__func<BSCalendarPopup::setup(cocos2d::CCObject*, void (cocos2d::CCObject::*)(cocos2d::CCObject*), GJTimedLevelType)::$_7, std::__ndk1::allocator<BSCalendarPopup::setup(cocos2d::CCObject*, void (cocos2d::CCObject::*)(cocos2d::CCObject*), GJTimedLevelType)::$_7>, void (int)>::destroy()
PUBLIC 2b9c8 0 std::__ndk1::__function::__func<BSCalendarPopup::setup(cocos2d::CCObject*, void (cocos2d::CCObject::*)(cocos2d::CCObject*), GJTimedLevelType)::$_7, std::__ndk1::allocator<BSCalendarPopup::setup(cocos2d::CCObject*, void (cocos2d::CCObject::*)(cocos2d::CCObject*), GJTimedLevelType)::$_7>, void (int)>::destroy_deallocate()
PUBLIC 2b9cc 0 std::__ndk1::__function::__func<BSCalendarPopup::setup(cocos2d::CCObject*, void (cocos2d::CCObject::*)(cocos2d::CCObject*), GJTimedLevelType)::$_7, std::__ndk1::allocator<BSCalendarPopup::setup(cocos2d::CCObject*, void (cocos2d::CCObject::*)(cocos2d::CCObject*), GJTimedLevelType)::$_7>, void (int)>::operator()(int&&)
PUBLIC 2bbec 0 std::__ndk1::__function::__func<BSCalendarPopup::setup(cocos2d::CCObject*, void (cocos2d::CCObject::*)(cocos2d::CCObject*), GJTimedLevelType)::$_7, std::__ndk1::allocator<BSCalendarPopup::setup(cocos2d::CCObject*, void (cocos2d::CCObject::*)(cocos2d::CCObject*), GJTimedLevelType)::$_7>, void (int)>::target(std::type_info const&) const
PUBLIC 2bc08 0 std::__ndk1::__function::__func<BSCalendarPopup::setup(cocos2d::CCObject*, void (cocos2d::CCObject::*)(cocos2d::CCObject*), GJTimedLevelType)::$_7, std::__ndk1::allocator<BSCalendarPopup::setup(cocos2d::CCObject*, void (cocos2d::CCObject::*)(cocos2d::CCObject*), GJTimedLevelType)::$_7>, void (int)>::target_type() const
PUBLIC 2bc14 0 geode::impl::ResultData<matjson::Value&, std::__ndk1::basic_string<char, std::__ndk1::char_traits<char>, std::__ndk1::allocator<char> > >::~ResultData()
PUBLIC 2bc88 0 std::__ndk1::__throw_bad_variant_access[abi:ne180000]()
PUBLIC 2bcbc 0 std::__ndk1::__variant_detail::__visitation::__base::__dispatcher<(unsigned long)0>::__dispatch[abi:ne180000]<std::__ndk1::__variant_detail::__dtor<std::__ndk1::__variant_detail::__traits<std::__ndk1::reference_wrapper<matjson::Value>, std::__ndk1::basic_string<char, std::__ndk1::char_traits<char>, std::__ndk1::allocator<char> > >, (std::__ndk1::__variant_detail::_Trait)1>::__destroy[abi:ne180000]()::{lambda(auto:1&)#1}, std::__ndk1::__variant_detail::__base<(std::__ndk1::__variant_detail::__traits<std::__ndk1::reference_wrapper<matjson::Value>, std::__ndk1::basic_string<char, std::__ndk1::char_traits<char>, std::__ndk1::allocator<char> > >)1, matjson::Value, std::__ndk1::allocator<char> >&>(std::__ndk1::__variant_detail::__dtor<std::__ndk1::__variant_detail::__traits<std::__ndk1::reference_wrapper<matjson::Value>, std::__ndk1::basic_string<char, std::__ndk1::char_traits<char>, std::__ndk1::allocator<char> > >, (std::__ndk1::__variant_detail::_Trait)1>, std::__ndk1::__variant_detail::__base<(std::__ndk1::__variant_detail::__traits<std::__ndk1::reference_wrapper<matjson::Value>, std::__ndk1::basic_string<char, std::__ndk1::char_traits<char>, std::__ndk1::allocator<char> > >)1, matjson::Value, std::__ndk1::allocator<char> >&)
PUBLIC 2bcc0 0 std::__ndk1::__variant_detail::__visitation::__base::__dispatcher<(unsigned long)1>::__dispatch[abi:ne180000]<std::__ndk1::__variant_detail::__dtor<std::__ndk1::__variant_detail::__traits<std::__ndk1::reference_wrapper<matjson::Value>, std::__ndk1::basic_string<char, std::__ndk1::char_traits<char>, std::__ndk1::allocator<char> > >, (std::__ndk1::__variant_detail::_Trait)1>::__destroy[abi:ne180000]()::{lambda(auto:1&)#1}, std::__ndk1::__variant_detail::__base<(std::__ndk1::__variant_detail::__traits<std::__ndk1::reference_wrapper<matjson::Value>, std::__ndk1::basic_string<char, std::__ndk1::char_traits<char>, std::__ndk1::allocator<char> > >)1, matjson::Value, std::__ndk1::allocator<char> >&>(std::__ndk1::__variant_detail::__dtor<std::__ndk1::__variant_detail::__traits<std::__ndk1::reference_wrapper<matjson::Value>, std::__ndk1::basic_string<char, std::__ndk1::char_traits<char>, std::__ndk1::allocator<char> > >, (std::__ndk1::__variant_detail::_Trait)1>, std::__ndk1::__variant_detail::__base<(std::__ndk1::__variant_detail::__traits<std::__ndk1::reference_wrapper<matjson::Value>, std::__ndk1::basic_string<char, std::__ndk1::char_traits<char>, std::__ndk1::allocator<char> > >)1, matjson::Value, std::__ndk1::allocator<char> >&)
PUBLIC 2bcd4 0 std::__ndk1::__variant_detail::__visitation::__base::__dispatcher<(unsigned long)0>::__dispatch[abi:ne180000]<std::__ndk1::__variant_detail::__dtor<std::__ndk1::__variant_detail::__traits<bool, std::__ndk1::basic_string<char, std::__ndk1::char_traits<char>, std::__ndk1::allocator<char> > >, (std::__ndk1::__variant_detail::_Trait)1>::__destroy[abi:ne180000]()::{lambda(auto:1&)#1}, std::__ndk1::__variant_detail::__base<(std::__ndk1::__variant_detail::__traits<bool, std::__ndk1::basic_string<char, std::__ndk1::char_traits<char>, std::__ndk1::allocator<char> > >)1, bool, std::__ndk1::allocator<char> >&>(std::__ndk1::__variant_detail::__dtor<std::__ndk1::__variant_detail::__traits<bool, std::__ndk1::basic_string<char, std::__ndk1::char_traits<char>, std::__ndk1::allocator<char> > >, (std::__ndk1::__variant_detail::_Trait)1>, std::__ndk1::__variant_detail::__base<(std::__ndk1::__variant_detail::__traits<bool, std::__ndk1::basic_string<char, std::__ndk1::char_traits<char>, std::__ndk1::allocator<char> > >)1, bool, std::__ndk1::allocator<char> >&)
PUBLIC 2bcd8 0 std::__ndk1::__variant_detail::__visitation::__base::__dispatcher<(unsigned long)1>::__dispatch[abi:ne180000]<std::__ndk1::__variant_detail::__dtor<std::__ndk1::__variant_detail::__traits<bool, std::__ndk1::basic_string<char, std::__ndk1::char_traits<char>, std::__ndk1::allocator<char> > >, (std::__ndk1::__variant_detail::_Trait)1>::__destroy[abi:ne180000]()::{lambda(auto:1&)#1}, std::__ndk1::__variant_detail::__base<(std::__ndk1::__variant_detail::__traits<bool, std::__ndk1::basic_string<char, std::__ndk1::char_traits<char>, std::__ndk1::allocator<char> > >)1, bool, std::__ndk1::allocator<char> >&>(std::__ndk1::__variant_detail::__dtor<std::__ndk1::__variant_detail::__traits<bool, std::__ndk1::basic_string<char, std::__ndk1::char_traits<char>, std::__ndk1::allocator<char> > >, (std::__ndk1::__variant_detail::_Trait)1>, std::__ndk1::__variant_detail::__base<(std::__ndk1::__variant_detail::__traits<bool, std::__ndk1::basic_string<char, std::__ndk1::char_traits<char>, std::__ndk1::allocator<char> > >)1, bool, std::__ndk1::allocator<char> >&)
PUBLIC 2bcec 0 std::__ndk1::__function::__func<BSCalendarPopup::setupMonth()::$_0, std::__ndk1::allocator<BSCalendarPopup::setupMonth()::$_0>, void (CCMenuItemSpriteExtra*)>::~__func()
PUBLIC 2bd10 0 std::__ndk1::__function::__func<BSCalendarPopup::setupMonth()::$_0, std::__ndk1::allocator<BSCalendarPopup::setupMonth()::$_0>, void (CCMenuItemSpriteExtra*)>::~__func()
PUBLIC 2bd50 0 std::__ndk1::__function::__func<BSCalendarPopup::setupMonth()::$_0, std::__ndk1::allocator<BSCalendarPopup::setupMonth()::$_0>, void (CCMenuItemSpriteExtra*)>::__clone() const
PUBLIC 2be40 0 std::__ndk1::__function::__func<BSCalendarPopup::setupMonth()::$_0, std::__ndk1::allocator<BSCalendarPopup::setupMonth()::$_0>, void (CCMenuItemSpriteExtra*)>::__clone(std::__ndk1::__function::__base<void (CCMenuItemSpriteExtra*)>*) const
PUBLIC 2bf1c 0 std::__ndk1::__function::__func<BSCalendarPopup::setupMonth()::$_0, std::__ndk1::allocator<BSCalendarPopup::setupMonth()::$_0>, void (CCMenuItemSpriteExtra*)>::destroy()
PUBLIC 2bf34 0 std::__ndk1::__function::__func<BSCalendarPopup::setupMonth()::$_0, std::__ndk1::allocator<BSCalendarPopup::setupMonth()::$_0>, void (CCMenuItemSpriteExtra*)>::destroy_deallocate()
PUBLIC 2bf68 0 std::__ndk1::__function::__func<BSCalendarPopup::setupMonth()::$_0, std::__ndk1::allocator<BSCalendarPopup::setupMonth()::$_0>, void (CCMenuItemSpriteExtra*)>::operator()(CCMenuItemSpriteExtra*&&)
PUBLIC 2c224 0 std::__ndk1::__function::__func<BSCalendarPopup::setupMonth()::$_0, std::__ndk1::allocator<BSCalendarPopup::setupMonth()::$_0>, void (CCMenuItemSpriteExtra*)>::target(std::type_info const&) const
PUBLIC 2c240 0 std::__ndk1::__function::__func<BSCalendarPopup::setupMonth()::$_0, std::__ndk1::allocator<BSCalendarPopup::setupMonth()::$_0>, void (CCMenuItemSpriteExtra*)>::target_type() const
PUBLIC 2c24c 0 std::__ndk1::__function::__base<void ()>::~__base()
PUBLIC 2c250 0 std::__ndk1::__function::__func<BSCalendarPopup::setupMonth()::$_0::operator()<CCMenuItemSpriteExtra*>(CCMenuItemSpriteExtra*) const::{lambda()#1}, std::__ndk1::allocator<BSCalendarPopup::setupMonth()::$_0::operator()<CCMenuItemSpriteExtra*>(CCMenuItemSpriteExtra*) const::{lambda()#1}>, void ()>::~__func()
PUBLIC 2c254 0 std::__ndk1::__function::__func<BSCalendarPopup::setupMonth()::$_0::operator()<CCMenuItemSpriteExtra*>(CCMenuItemSpriteExtra*) const::{lambda()#1}, std::__ndk1::allocator<BSCalendarPopup::setupMonth()::$_0::operator()<CCMenuItemSpriteExtra*>(CCMenuItemSpriteExtra*) const::{lambda()#1}>, void ()>::__clone() const
PUBLIC 2c288 0 std::__ndk1::__function::__func<BSCalendarPopup::setupMonth()::$_0::operator()<CCMenuItemSpriteExtra*>(CCMenuItemSpriteExtra*) const::{lambda()#1}, std::__ndk1::allocator<BSCalendarPopup::setupMonth()::$_0::operator()<CCMenuItemSpriteExtra*>(CCMenuItemSpriteExtra*) const::{lambda()#1}>, void ()>::__clone(std::__ndk1::__function::__base<void ()>*) const
PUBLIC 2c29c 0 std::__ndk1::__function::__func<BSCalendarPopup::setupMonth()::$_0::operator()<CCMenuItemSpriteExtra*>(CCMenuItemSpriteExtra*) const::{lambda()#1}, std::__ndk1::allocator<BSCalendarPopup::setupMonth()::$_0::operator()<CCMenuItemSpriteExtra*>(CCMenuItemSpriteExtra*) const::{lambda()#1}>, void ()>::destroy()
PUBLIC 2c2a0 0 std::__ndk1::__function::__func<BSCalendarPopup::setupMonth()::$_0::operator()<CCMenuItemSpriteExtra*>(CCMenuItemSpriteExtra*) const::{lambda()#1}, std::__ndk1::allocator<BSCalendarPopup::setupMonth()::$_0::operator()<CCMenuItemSpriteExtra*>(CCMenuItemSpriteExtra*) const::{lambda()#1}>, void ()>::destroy_deallocate()
PUBLIC 2c2a4 0 std::__ndk1::__function::__func<BSCalendarPopup::setupMonth()::$_0::operator()<CCMenuItemSpriteExtra*>(CCMenuItemSpriteExtra*) const::{lambda()#1}, std::__ndk1::allocator<BSCalendarPopup::setupMonth()::$_0::operator()<CCMenuItemSpriteExtra*>(CCMenuItemSpriteExtra*) const::{lambda()#1}>, void ()>::operator()()
PUBLIC 2c2b0 0 std::__ndk1::__function::__func<BSCalendarPopup::setupMonth()::$_0::operator()<CCMenuItemSpriteExtra*>(CCMenuItemSpriteExtra*) const::{lambda()#1}, std::__ndk1::allocator<BSCalendarPopup::setupMonth()::$_0::operator()<CCMenuItemSpriteExtra*>(CCMenuItemSpriteExtra*) const::{lambda()#1}>, void ()>::target(std::type_info const&) const
PUBLIC 2c2cc 0 std::__ndk1::__function::__func<BSCalendarPopup::setupMonth()::$_0::operator()<CCMenuItemSpriteExtra*>(CCMenuItemSpriteExtra*) const::{lambda()#1}, std::__ndk1::allocator<BSCalendarPopup::setupMonth()::$_0::operator()<CCMenuItemSpriteExtra*>(CCMenuItemSpriteExtra*) const::{lambda()#1}>, void ()>::target_type() const
PUBLIC 2c2d8 0 geode::Popup<cocos2d::CCObject*, void (cocos2d::CCObject::*)(cocos2d::CCObject*), GJTimedLevelType>::CloseEvent::~CloseEvent()
PUBLIC 2c338 0 geode::Popup<cocos2d::CCObject*, void (cocos2d::CCObject::*)(cocos2d::CCObject*), GJTimedLevelType>::CloseEvent::~CloseEvent()
PUBLIC 2c3a8 0 std::__ndk1::__shared_ptr_emplace<geode::Popup<cocos2d::CCObject*, void (cocos2d::CCObject::*)(cocos2d::CCObject*), GJTimedLevelType>::CloseEvent::Impl, std::__ndk1::allocator<geode::Popup<cocos2d::CCObject*, void (cocos2d::CCObject::*)(cocos2d::CCObject*), GJTimedLevelType>::CloseEvent::Impl> >::~__shared_ptr_emplace()
PUBLIC 2c3b8 0 std::__ndk1::__shared_ptr_emplace<geode::Popup<cocos2d::CCObject*, void (cocos2d::CCObject::*)(cocos2d::CCObject*), GJTimedLevelType>::CloseEvent::Impl, std::__ndk1::allocator<geode::Popup<cocos2d::CCObject*, void (cocos2d::CCObject::*)(cocos2d::CCObject*), GJTimedLevelType>::CloseEvent::Impl> >::~__shared_ptr_emplace()
PUBLIC 2c3e8 0 std::__ndk1::__shared_ptr_emplace<geode::Popup<cocos2d::CCObject*, void (cocos2d::CCObject::*)(cocos2d::CCObject*), GJTimedLevelType>::CloseEvent::Impl, std::__ndk1::allocator<geode::Popup<cocos2d::CCObject*, void (cocos2d::CCObject::*)(cocos2d::CCObject*), GJTimedLevelType>::CloseEvent::Impl> >::__on_zero_shared()
PUBLIC 2c3ec 0 std::__ndk1::__shared_ptr_emplace<geode::Popup<cocos2d::CCObject*, void (cocos2d::CCObject::*)(cocos2d::CCObject*), GJTimedLevelType>::CloseEvent::Impl, std::__ndk1::allocator<geode::Popup<cocos2d::CCObject*, void (cocos2d::CCObject::*)(cocos2d::CCObject*), GJTimedLevelType>::CloseEvent::Impl> >::__on_zero_shared_weak()
PUBLIC 2c3f0 0 BSHoverNode::init(SafeLevel const&, GJGameLevel*, std::__ndk1::function<void ()> const&)
PUBLIC 2d824 0 BSHoverNode::keyBackClicked()
PUBLIC 2d888 0 {virtual override thunk({offset(-336)}, BSHoverNode::keyBackClicked())}
PUBLIC 2d8f4 0 BSHoverNode::registerWithTouchDispatcher()
PUBLIC 2d920 0 BSHoverNode::ccTouchBegan(cocos2d::CCTouch*, cocos2d::CCEvent*)
PUBLIC 2da20 0 {virtual override thunk({offset(-320)}, BSHoverNode::ccTouchBegan(cocos2d::CCTouch*, cocos2d::CCEvent*))}
PUBLIC 2da28 0 BSHoverNode::~BSHoverNode()
PUBLIC 2dab4 0 {virtual override thunk({offset(-320)}, BSHoverNode::~BSHoverNode())}
PUBLIC 2db44 0 BSHoverNode::~BSHoverNode()
PUBLIC 2dbd8 0 {virtual override thunk({offset(-320)}, BSHoverNode::~BSHoverNode())}
PUBLIC 2dc70 0 std::__ndk1::__function::__func<BSHoverNode::init(SafeLevel const&, GJGameLevel*, std::__ndk1::function<void ()> const&)::$_0, std::__ndk1::allocator<BSHoverNode::init(SafeLevel const&, GJGameLevel*, std::__ndk1::function<void ()> const&)::$_0>, void (CCMenuItemSpriteExtra*)>::~__func()
PUBLIC 2dc74 0 std::__ndk1::__function::__func<BSHoverNode::init(SafeLevel const&, GJGameLevel*, std::__ndk1::function<void ()> const&)::$_0, std::__ndk1::allocator<BSHoverNode::init(SafeLevel const&, GJGameLevel*, std::__ndk1::function<void ()> const&)::$_0>, void (CCMenuItemSpriteExtra*)>::__clone() const
PUBLIC 2dcac 0 std::__ndk1::__function::__func<BSHoverNode::init(SafeLevel const&, GJGameLevel*, std::__ndk1::function<void ()> const&)::$_0, std::__ndk1::allocator<BSHoverNode::init(SafeLevel const&, GJGameLevel*, std::__ndk1::function<void ()> const&)::$_0>, void (CCMenuItemSpriteExtra*)>::__clone(std::__ndk1::__function::__base<void (CCMenuItemSpriteExtra*)>*) const
PUBLIC 2dcc4 0 std::__ndk1::__function::__func<BSHoverNode::init(SafeLevel const&, GJGameLevel*, std::__ndk1::function<void ()> const&)::$_0, std::__ndk1::allocator<BSHoverNode::init(SafeLevel const&, GJGameLevel*, std::__ndk1::function<void ()> const&)::$_0>, void (CCMenuItemSpriteExtra*)>::destroy()
PUBLIC 2dcc8 0 std::__ndk1::__function::__func<BSHoverNode::init(SafeLevel const&, GJGameLevel*, std::__ndk1::function<void ()> const&)::$_0, std::__ndk1::allocator<BSHoverNode::init(SafeLevel const&, GJGameLevel*, std::__ndk1::function<void ()> const&)::$_0>, void (CCMenuItemSpriteExtra*)>::destroy_deallocate()
PUBLIC 2dccc 0 std::__ndk1::__function::__func<BSHoverNode::init(SafeLevel const&, GJGameLevel*, std::__ndk1::function<void ()> const&)::$_0, std::__ndk1::allocator<BSHoverNode::init(SafeLevel const&, GJGameLevel*, std::__ndk1::function<void ()> const&)::$_0>, void (CCMenuItemSpriteExtra*)>::operator()(CCMenuItemSpriteExtra*&&)
PUBLIC 2dcf0 0 std::__ndk1::__function::__func<BSHoverNode::init(SafeLevel const&, GJGameLevel*, std::__ndk1::function<void ()> const&)::$_0, std::__ndk1::allocator<BSHoverNode::init(SafeLevel const&, GJGameLevel*, std::__ndk1::function<void ()> const&)::$_0>, void (CCMenuItemSpriteExtra*)>::target(std::type_info const&) const
PUBLIC 2dd0c 0 std::__ndk1::__function::__func<BSHoverNode::init(SafeLevel const&, GJGameLevel*, std::__ndk1::function<void ()> const&)::$_0, std::__ndk1::allocator<BSHoverNode::init(SafeLevel const&, GJGameLevel*, std::__ndk1::function<void ()> const&)::$_0>, void (CCMenuItemSpriteExtra*)>::target_type() const
PUBLIC 2dd18 0 std::__ndk1::__function::__func<BSHoverNode::init(SafeLevel const&, GJGameLevel*, std::__ndk1::function<void ()> const&)::$_1, std::__ndk1::allocator<BSHoverNode::init(SafeLevel const&, GJGameLevel*, std::__ndk1::function<void ()> const&)::$_1>, void (CCMenuItemSpriteExtra*)>::~__func()
PUBLIC 2dd1c 0 std::__ndk1::__function::__func<BSHoverNode::init(SafeLevel const&, GJGameLevel*, std::__ndk1::function<void ()> const&)::$_1, std::__ndk1::allocator<BSHoverNode::init(SafeLevel const&, GJGameLevel*, std::__ndk1::function<void ()> const&)::$_1>, void (CCMenuItemSpriteExtra*)>::__clone() const
PUBLIC 2dd50 0 std::__ndk1::__function::__func<BSHoverNode::init(SafeLevel const&, GJGameLevel*, std::__ndk1::function<void ()> const&)::$_1, std::__ndk1::allocator<BSHoverNode::init(SafeLevel const&, GJGameLevel*, std::__ndk1::function<void ()> const&)::$_1>, void (CCMenuItemSpriteExtra*)>::__clone(std::__ndk1::__function::__base<void (CCMenuItemSpriteExtra*)>*) const
PUBLIC 2dd64 0 std::__ndk1::__function::__func<BSHoverNode::init(SafeLevel const&, GJGameLevel*, std::__ndk1::function<void ()> const&)::$_1, std::__ndk1::allocator<BSHoverNode::init(SafeLevel const&, GJGameLevel*, std::__ndk1::function<void ()> const&)::$_1>, void (CCMenuItemSpriteExtra*)>::destroy()
PUBLIC 2dd68 0 std::__ndk1::__function::__func<BSHoverNode::init(SafeLevel const&, GJGameLevel*, std::__ndk1::function<void ()> const&)::$_1, std::__ndk1::allocator<BSHoverNode::init(SafeLevel const&, GJGameLevel*, std::__ndk1::function<void ()> const&)::$_1>, void (CCMenuItemSpriteExtra*)>::destroy_deallocate()
PUBLIC 2dd6c 0 std::__ndk1::__function::__func<BSHoverNode::init(SafeLevel const&, GJGameLevel*, std::__ndk1::function<void ()> const&)::$_1, std::__ndk1::allocator<BSHoverNode::init(SafeLevel const&, GJGameLevel*, std::__ndk1::function<void ()> const&)::$_1>, void (CCMenuItemSpriteExtra*)>::operator()(CCMenuItemSpriteExtra*&&)
PUBLIC 2ddd4 0 std::__ndk1::__function::__func<BSHoverNode::init(SafeLevel const&, GJGameLevel*, std::__ndk1::function<void ()> const&)::$_1, std::__ndk1::allocator<BSHoverNode::init(SafeLevel const&, GJGameLevel*, std::__ndk1::function<void ()> const&)::$_1>, void (CCMenuItemSpriteExtra*)>::target(std::type_info const&) const
PUBLIC 2ddf0 0 std::__ndk1::__function::__func<BSHoverNode::init(SafeLevel const&, GJGameLevel*, std::__ndk1::function<void ()> const&)::$_1, std::__ndk1::allocator<BSHoverNode::init(SafeLevel const&, GJGameLevel*, std::__ndk1::function<void ()> const&)::$_1>, void (CCMenuItemSpriteExtra*)>::target_type() const
PUBLIC 2ddfc 0 BSSelectPopup::create(int, int, int, int, int, int, std::__ndk1::function<void (int, int)> const&)
PUBLIC 2dfc0 0 BSSelectPopup::setup(int, int, int, int, int, int, std::__ndk1::function<void (int, int)> const&)
PUBLIC 2ebcc 0 geode::Popup<int, int, int, int, int, int, std::__ndk1::function<void (int, int)> const&>::~Popup()
PUBLIC 2ec38 0 BSSelectPopup::~BSSelectPopup()
PUBLIC 2ecac 0 geode::Popup<int, int, int, int, int, int, std::__ndk1::function<void (int, int)> const&>::registerWithTouchDispatcher()
PUBLIC 2ecd8 0 geode::Popup<int, int, int, int, int, int, std::__ndk1::function<void (int, int)> const&>::keyDown(cocos2d::enumKeyCodes)
PUBLIC 2ed00 0 geode::Popup<int, int, int, int, int, int, std::__ndk1::function<void (int, int)> const&>::onClose(cocos2d::CCObject*)
PUBLIC 2ee48 0 {virtual override thunk({offset(-320)}, BSSelectPopup::~BSSelectPopup())}
PUBLIC 2eeb4 0 {virtual override thunk({offset(-320)}, BSSelectPopup::~BSSelectPopup())}
PUBLIC 2ef28 0 {virtual override thunk({offset(-344)}, geode::Popup<int, int, int, int, int, int, std::__ndk1::function<void (int, int)> const&>::keyDown(cocos2d::enumKeyCodes))}
PUBLIC 2ef54 0 geode::Popup<int, int, int, int, int, int, std::__ndk1::function<void (int, int)> const&>::~Popup()
PUBLIC 2ef58 0 {virtual override thunk({offset(-320)}, geode::Popup<int, int, int, int, int, int, std::__ndk1::function<void (int, int)> const&>::~Popup())}
PUBLIC 2efc4 0 {virtual override thunk({offset(-320)}, geode::Popup<int, int, int, int, int, int, std::__ndk1::function<void (int, int)> const&>::~Popup())}
PUBLIC 2efc8 0 geode::Popup<int, int, int, int, int, int, std::__ndk1::function<void (int, int)> const&>::initBase(float, float, int, int, int, int, int, int, std::__ndk1::function<void (int, int)> const&, char const*, cocos2d::CCRect, bool)
PUBLIC 2f300 0 std::__ndk1::__function::__func<BSSelectPopup::setup(int, int, int, int, int, int, std::__ndk1::function<void (int, int)> const&)::$_0, std::__ndk1::allocator<BSSelectPopup::setup(int, int, int, int, int, int, std::__ndk1::function<void (int, int)> const&)::$_0>, void (CCMenuItemSpriteExtra*)>::~__func()
PUBLIC 2f304 0 std::__ndk1::__function::__func<BSSelectPopup::setup(int, int, int, int, int, int, std::__ndk1::function<void (int, int)> const&)::$_0, std::__ndk1::allocator<BSSelectPopup::setup(int, int, int, int, int, int, std::__ndk1::function<void (int, int)> const&)::$_0>, void (CCMenuItemSpriteExtra*)>::__clone() const
PUBLIC 2f344 0 std::__ndk1::__function::__func<BSSelectPopup::setup(int, int, int, int, int, int, std::__ndk1::function<void (int, int)> const&)::$_0, std::__ndk1::allocator<BSSelectPopup::setup(int, int, int, int, int, int, std::__ndk1::function<void (int, int)> const&)::$_0>, void (CCMenuItemSpriteExtra*)>::__clone(std::__ndk1::__function::__base<void (CCMenuItemSpriteExtra*)>*) const
PUBLIC 2f364 0 std::__ndk1::__function::__func<BSSelectPopup::setup(int, int, int, int, int, int, std::__ndk1::function<void (int, int)> const&)::$_0, std::__ndk1::allocator<BSSelectPopup::setup(int, int, int, int, int, int, std::__ndk1::function<void (int, int)> const&)::$_0>, void (CCMenuItemSpriteExtra*)>::destroy()
PUBLIC 2f368 0 std::__ndk1::__function::__func<BSSelectPopup::setup(int, int, int, int, int, int, std::__ndk1::function<void (int, int)> const&)::$_0, std::__ndk1::allocator<BSSelectPopup::setup(int, int, int, int, int, int, std::__ndk1::function<void (int, int)> const&)::$_0>, void (CCMenuItemSpriteExtra*)>::destroy_deallocate()
PUBLIC 2f36c 0 std::__ndk1::__function::__func<BSSelectPopup::setup(int, int, int, int, int, int, std::__ndk1::function<void (int, int)> const&)::$_0, std::__ndk1::allocator<BSSelectPopup::setup(int, int, int, int, int, int, std::__ndk1::function<void (int, int)> const&)::$_0>, void (CCMenuItemSpriteExtra*)>::operator()(CCMenuItemSpriteExtra*&&)
PUBLIC 2f49c 0 std::__ndk1::__function::__func<BSSelectPopup::setup(int, int, int, int, int, int, std::__ndk1::function<void (int, int)> const&)::$_0, std::__ndk1::allocator<BSSelectPopup::setup(int, int, int, int, int, int, std::__ndk1::function<void (int, int)> const&)::$_0>, void (CCMenuItemSpriteExtra*)>::target(std::type_info const&) const
PUBLIC 2f4b8 0 std::__ndk1::__function::__func<BSSelectPopup::setup(int, int, int, int, int, int, std::__ndk1::function<void (int, int)> const&)::$_0, std::__ndk1::allocator<BSSelectPopup::setup(int, int, int, int, int, int, std::__ndk1::function<void (int, int)> const&)::$_0>, void (CCMenuItemSpriteExtra*)>::target_type() const
PUBLIC 2f4c4 0 std::__ndk1::__function::__func<BSSelectPopup::setup(int, int, int, int, int, int, std::__ndk1::function<void (int, int)> const&)::$_1, std::__ndk1::allocator<BSSelectPopup::setup(int, int, int, int, int, int, std::__ndk1::function<void (int, int)> const&)::$_1>, void (CCMenuItemSpriteExtra*)>::~__func()
PUBLIC 2f4c8 0 std::__ndk1::__function::__func<BSSelectPopup::setup(int, int, int, int, int, int, std::__ndk1::function<void (int, int)> const&)::$_1, std::__ndk1::allocator<BSSelectPopup::setup(int, int, int, int, int, int, std::__ndk1::function<void (int, int)> const&)::$_1>, void (CCMenuItemSpriteExtra*)>::__clone() const
PUBLIC 2f508 0 std::__ndk1::__function::__func<BSSelectPopup::setup(int, int, int, int, int, int, std::__ndk1::function<void (int, int)> const&)::$_1, std::__ndk1::allocator<BSSelectPopup::setup(int, int, int, int, int, int, std::__ndk1::function<void (int, int)> const&)::$_1>, void (CCMenuItemSpriteExtra*)>::__clone(std::__ndk1::__function::__base<void (CCMenuItemSpriteExtra*)>*) const
PUBLIC 2f528 0 std::__ndk1::__function::__func<BSSelectPopup::setup(int, int, int, int, int, int, std::__ndk1::function<void (int, int)> const&)::$_1, std::__ndk1::allocator<BSSelectPopup::setup(int, int, int, int, int, int, std::__ndk1::function<void (int, int)> const&)::$_1>, void (CCMenuItemSpriteExtra*)>::destroy()
PUBLIC 2f52c 0 std::__ndk1::__function::__func<BSSelectPopup::setup(int, int, int, int, int, int, std::__ndk1::function<void (int, int)> const&)::$_1, std::__ndk1::allocator<BSSelectPopup::setup(int, int, int, int, int, int, std::__ndk1::function<void (int, int)> const&)::$_1>, void (CCMenuItemSpriteExtra*)>::destroy_deallocate()
PUBLIC 2f530 0 std::__ndk1::__function::__func<BSSelectPopup::setup(int, int, int, int, int, int, std::__ndk1::function<void (int, int)> const&)::$_1, std::__ndk1::allocator<BSSelectPopup::setup(int, int, int, int, int, int, std::__ndk1::function<void (int, int)> const&)::$_1>, void (CCMenuItemSpriteExtra*)>::operator()(CCMenuItemSpriteExtra*&&)
PUBLIC 2f668 0 std::__ndk1::__function::__func<BSSelectPopup::setup(int, int, int, int, int, int, std::__ndk1::function<void (int, int)> const&)::$_1, std::__ndk1::allocator<BSSelectPopup::setup(int, int, int, int, int, int, std::__ndk1::function<void (int, int)> const&)::$_1>, void (CCMenuItemSpriteExtra*)>::target(std::type_info const&) const
PUBLIC 2f684 0 std::__ndk1::__function::__func<BSSelectPopup::setup(int, int, int, int, int, int, std::__ndk1::function<void (int, int)> const&)::$_1, std::__ndk1::allocator<BSSelectPopup::setup(int, int, int, int, int, int, std::__ndk1::function<void (int, int)> const&)::$_1>, void (CCMenuItemSpriteExtra*)>::target_type() const
PUBLIC 2f690 0 std::__ndk1::__function::__func<BSSelectPopup::setup(int, int, int, int, int, int, std::__ndk1::function<void (int, int)> const&)::$_2, std::__ndk1::allocator<BSSelectPopup::setup(int, int, int, int, int, int, std::__ndk1::function<void (int, int)> const&)::$_2>, void (CCMenuItemSpriteExtra*)>::~__func()
PUBLIC 2f694 0 std::__ndk1::__function::__func<BSSelectPopup::setup(int, int, int, int, int, int, std::__ndk1::function<void (int, int)> const&)::$_2, std::__ndk1::allocator<BSSelectPopup::setup(int, int, int, int, int, int, std::__ndk1::function<void (int, int)> const&)::$_2>, void (CCMenuItemSpriteExtra*)>::__clone() const
PUBLIC 2f6d4 0 std::__ndk1::__function::__func<BSSelectPopup::setup(int, int, int, int, int, int, std::__ndk1::function<void (int, int)> const&)::$_2, std::__ndk1::allocator<BSSelectPopup::setup(int, int, int, int, int, int, std::__ndk1::function<void (int, int)> const&)::$_2>, void (CCMenuItemSpriteExtra*)>::__clone(std::__ndk1::__function::__base<void (CCMenuItemSpriteExtra*)>*) const
PUBLIC 2f6f4 0 std::__ndk1::__function::__func<BSSelectPopup::setup(int, int, int, int, int, int, std::__ndk1::function<void (int, int)> const&)::$_2, std::__ndk1::allocator<BSSelectPopup::setup(int, int, int, int, int, int, std::__ndk1::function<void (int, int)> const&)::$_2>, void (CCMenuItemSpriteExtra*)>::destroy()
PUBLIC 2f6f8 0 std::__ndk1::__function::__func<BSSelectPopup::setup(int, int, int, int, int, int, std::__ndk1::function<void (int, int)> const&)::$_2, std::__ndk1::allocator<BSSelectPopup::setup(int, int, int, int, int, int, std::__ndk1::function<void (int, int)> const&)::$_2>, void (CCMenuItemSpriteExtra*)>::destroy_deallocate()
PUBLIC 2f6fc 0 std::__ndk1::__function::__func<BSSelectPopup::setup(int, int, int, int, int, int, std::__ndk1::function<void (int, int)> const&)::$_2, std::__ndk1::allocator<BSSelectPopup::setup(int, int, int, int, int, int, std::__ndk1::function<void (int, int)> const&)::$_2>, void (CCMenuItemSpriteExtra*)>::operator()(CCMenuItemSpriteExtra*&&)
PUBLIC 2f834 0 std::__ndk1::__function::__func<BSSelectPopup::setup(int, int, int, int, int, int, std::__ndk1::function<void (int, int)> const&)::$_2, std::__ndk1::allocator<BSSelectPopup::setup(int, int, int, int, int, int, std::__ndk1::function<void (int, int)> const&)::$_2>, void (CCMenuItemSpriteExtra*)>::target(std::type_info const&) const
PUBLIC 2f850 0 std::__ndk1::__function::__func<BSSelectPopup::setup(int, int, int, int, int, int, std::__ndk1::function<void (int, int)> const&)::$_2, std::__ndk1::allocator<BSSelectPopup::setup(int, int, int, int, int, int, std::__ndk1::function<void (int, int)> const&)::$_2>, void (CCMenuItemSpriteExtra*)>::target_type() const
PUBLIC 2f85c 0 std::__ndk1::__function::__func<BSSelectPopup::setup(int, int, int, int, int, int, std::__ndk1::function<void (int, int)> const&)::$_3, std::__ndk1::allocator<BSSelectPopup::setup(int, int, int, int, int, int, std::__ndk1::function<void (int, int)> const&)::$_3>, void (CCMenuItemSpriteExtra*)>::~__func()
PUBLIC 2f860 0 std::__ndk1::__function::__func<BSSelectPopup::setup(int, int, int, int, int, int, std::__ndk1::function<void (int, int)> const&)::$_3, std::__ndk1::allocator<BSSelectPopup::setup(int, int, int, int, int, int, std::__ndk1::function<void (int, int)> const&)::$_3>, void (CCMenuItemSpriteExtra*)>::__clone() const
PUBLIC 2f8a0 0 std::__ndk1::__function::__func<BSSelectPopup::setup(int, int, int, int, int, int, std::__ndk1::function<void (int, int)> const&)::$_3, std::__ndk1::allocator<BSSelectPopup::setup(int, int, int, int, int, int, std::__ndk1::function<void (int, int)> const&)::$_3>, void (CCMenuItemSpriteExtra*)>::__clone(std::__ndk1::__function::__base<void (CCMenuItemSpriteExtra*)>*) const
PUBLIC 2f8c0 0 std::__ndk1::__function::__func<BSSelectPopup::setup(int, int, int, int, int, int, std::__ndk1::function<void (int, int)> const&)::$_3, std::__ndk1::allocator<BSSelectPopup::setup(int, int, int, int, int, int, std::__ndk1::function<void (int, int)> const&)::$_3>, void (CCMenuItemSpriteExtra*)>::destroy()
PUBLIC 2f8c4 0 std::__ndk1::__function::__func<BSSelectPopup::setup(int, int, int, int, int, int, std::__ndk1::function<void (int, int)> const&)::$_3, std::__ndk1::allocator<BSSelectPopup::setup(int, int, int, int, int, int, std::__ndk1::function<void (int, int)> const&)::$_3>, void (CCMenuItemSpriteExtra*)>::destroy_deallocate()
PUBLIC 2f8c8 0 std::__ndk1::__function::__func<BSSelectPopup::setup(int, int, int, int, int, int, std::__ndk1::function<void (int, int)> const&)::$_3, std::__ndk1::allocator<BSSelectPopup::setup(int, int, int, int, int, int, std::__ndk1::function<void (int, int)> const&)::$_3>, void (CCMenuItemSpriteExtra*)>::operator()(CCMenuItemSpriteExtra*&&)
PUBLIC 2fa00 0 std::__ndk1::__function::__func<BSSelectPopup::setup(int, int, int, int, int, int, std::__ndk1::function<void (int, int)> const&)::$_3, std::__ndk1::allocator<BSSelectPopup::setup(int, int, int, int, int, int, std::__ndk1::function<void (int, int)> const&)::$_3>, void (CCMenuItemSpriteExtra*)>::target(std::type_info const&) const
PUBLIC 2fa1c 0 std::__ndk1::__function::__func<BSSelectPopup::setup(int, int, int, int, int, int, std::__ndk1::function<void (int, int)> const&)::$_3, std::__ndk1::allocator<BSSelectPopup::setup(int, int, int, int, int, int, std::__ndk1::function<void (int, int)> const&)::$_3>, void (CCMenuItemSpriteExtra*)>::target_type() const
PUBLIC 2fa28 0 geode::Popup<int, int, int, int, int, int, std::__ndk1::function<void (int, int)> const&>::CloseEvent::~CloseEvent()
PUBLIC 2fa88 0 geode::Popup<int, int, int, int, int, int, std::__ndk1::function<void (int, int)> const&>::CloseEvent::~CloseEvent()
PUBLIC 2faf8 0 std::__ndk1::__shared_ptr_emplace<geode::Popup<int, int, int, int, int, int, std::__ndk1::function<void (int, int)> const&>::CloseEvent::Impl, std::__ndk1::allocator<geode::Popup<int, int, int, int, int, int, std::__ndk1::function<void (int, int)> const&>::CloseEvent::Impl> >::~__shared_ptr_emplace()
PUBLIC 2fb08 0 std::__ndk1::__shared_ptr_emplace<geode::Popup<int, int, int, int, int, int, std::__ndk1::function<void (int, int)> const&>::CloseEvent::Impl, std::__ndk1::allocator<geode::Popup<int, int, int, int, int, int, std::__ndk1::function<void (int, int)> const&>::CloseEvent::Impl> >::~__shared_ptr_emplace()
PUBLIC 2fb38 0 std::__ndk1::__shared_ptr_emplace<geode::Popup<int, int, int, int, int, int, std::__ndk1::function<void (int, int)> const&>::CloseEvent::Impl, std::__ndk1::allocator<geode::Popup<int, int, int, int, int, int, std::__ndk1::function<void (int, int)> const&>::CloseEvent::Impl> >::__on_zero_shared()
PUBLIC 2fb3c 0 std::__ndk1::__shared_ptr_emplace<geode::Popup<int, int, int, int, int, int, std::__ndk1::function<void (int, int)> const&>::CloseEvent::Impl, std::__ndk1::allocator<geode::Popup<int, int, int, int, int, int, std::__ndk1::function<void (int, int)> const&>::CloseEvent::Impl> >::__on_zero_shared_weak()
PUBLIC 2fb40 0 std::__ndk1::__function::__func<BSSelectPopup::setup(int, int, int, int, int, int, std::__ndk1::function<void (int, int)> const&)::$_4, std::__ndk1::allocator<BSSelectPopup::setup(int, int, int, int, int, int, std::__ndk1::function<void (int, int)> const&)::$_4>, void (CCMenuItemSpriteExtra*)>::~__func()
PUBLIC 2fb8c 0 std::__ndk1::__function::__func<BSSelectPopup::setup(int, int, int, int, int, int, std::__ndk1::function<void (int, int)> const&)::$_4, std::__ndk1::allocator<BSSelectPopup::setup(int, int, int, int, int, int, std::__ndk1::function<void (int, int)> const&)::$_4>, void (CCMenuItemSpriteExtra*)>::~__func()
PUBLIC 2fbe8 0 std::__ndk1::__function::__func<BSSelectPopup::setup(int, int, int, int, int, int, std::__ndk1::function<void (int, int)> const&)::$_4, std::__ndk1::allocator<BSSelectPopup::setup(int, int, int, int, int, int, std::__ndk1::function<void (int, int)> const&)::$_4>, void (CCMenuItemSpriteExtra*)>::__clone() const
PUBLIC 2fc84 0 std::__ndk1::__function::__func<BSSelectPopup::setup(int, int, int, int, int, int, std::__ndk1::function<void (int, int)> const&)::$_4, std::__ndk1::allocator<BSSelectPopup::setup(int, int, int, int, int, int, std::__ndk1::function<void (int, int)> const&)::$_4>, void (CCMenuItemSpriteExtra*)>::__clone(std::__ndk1::__function::__base<void (CCMenuItemSpriteExtra*)>*) const
PUBLIC 2fd0c 0 std::__ndk1::__function::__func<BSSelectPopup::setup(int, int, int, int, int, int, std::__ndk1::function<void (int, int)> const&)::$_4, std::__ndk1::allocator<BSSelectPopup::setup(int, int, int, int, int, int, std::__ndk1::function<void (int, int)> const&)::$_4>, void (CCMenuItemSpriteExtra*)>::destroy()
PUBLIC 2fd4c 0 std::__ndk1::__function::__func<BSSelectPopup::setup(int, int, int, int, int, int, std::__ndk1::function<void (int, int)> const&)::$_4, std::__ndk1::allocator<BSSelectPopup::setup(int, int, int, int, int, int, std::__ndk1::function<void (int, int)> const&)::$_4>, void (CCMenuItemSpriteExtra*)>::destroy_deallocate()
PUBLIC 2fd9c 0 std::__ndk1::__function::__func<BSSelectPopup::setup(int, int, int, int, int, int, std::__ndk1::function<void (int, int)> const&)::$_4, std::__ndk1::allocator<BSSelectPopup::setup(int, int, int, int, int, int, std::__ndk1::function<void (int, int)> const&)::$_4>, void (CCMenuItemSpriteExtra*)>::operator()(CCMenuItemSpriteExtra*&&)
PUBLIC 2fe30 0 std::__ndk1::__function::__func<BSSelectPopup::setup(int, int, int, int, int, int, std::__ndk1::function<void (int, int)> const&)::$_4, std::__ndk1::allocator<BSSelectPopup::setup(int, int, int, int, int, int, std::__ndk1::function<void (int, int)> const&)::$_4>, void (CCMenuItemSpriteExtra*)>::target(std::type_info const&) const
PUBLIC 2fe4c 0 std::__ndk1::__function::__func<BSSelectPopup::setup(int, int, int, int, int, int, std::__ndk1::function<void (int, int)> const&)::$_4, std::__ndk1::allocator<BSSelectPopup::setup(int, int, int, int, int, int, std::__ndk1::function<void (int, int)> const&)::$_4>, void (CCMenuItemSpriteExtra*)>::target_type() const
PUBLIC 2fe58 0 __cxx_global_var_init.18
PUBLIC 302d8 0 geode::modifier::ModifyBase<geode::modifier::ModifyDerive<BSDailyLevelPage, DailyLevelPage> >::~ModifyBase()
PUBLIC 302f4 0 geode::modifier::ModifyDerive<BSDailyLevelPage, DailyLevelPage>::apply()
PUBLIC 3067c 0 std::__ndk1::shared_ptr<geode::Hook>::~shared_ptr[abi:ne180000]()
PUBLIC 306cc 0 geode::impl::ResultData<geode::Hook*, std::__ndk1::basic_string<char, std::__ndk1::char_traits<char>, std::__ndk1::allocator<char> > >::~ResultData()
PUBLIC 30740 0 geode::modifier::ModifyBase<geode::modifier::ModifyDerive<BSDailyLevelPage, DailyLevelPage> >::apply()
PUBLIC 30744 0 _ZN5geode15UnwrapExceptionC2IRPNS_4HookEQsr4implE18IsStringStreamableIT_EEENS_4impl5OkTagEOS5_
PUBLIC 30898 0 std::__ndk1::basic_stringstream<char, std::__ndk1::char_traits<char>, std::__ndk1::allocator<char> >::basic_stringstream[abi:ne180000]()
PUBLIC m 309c4 0 std::__ndk1::basic_stringstream<char, std::__ndk1::char_traits<char>, std::__ndk1::allocator<char> >::~basic_stringstream()
PUBLIC 30a44 0 geode::UnwrapException::~UnwrapException()
PUBLIC 30a68 0 std::__ndk1::__put_character_sequence[abi:ne180000]<char, std::__ndk1::char_traits<char> >(std::__ndk1::basic_ostream<char, std::__ndk1::char_traits<char> >, std::__ndk1::basic_ostream const*, unsigned long)
PUBLIC 30c0c 0 std::__ndk1::__pad_and_output[abi:ne180000]<char, std::__ndk1::char_traits<char> >(std::__ndk1::char_traits<char>, std::__ndk1::ostreambuf_iterator const*, std::__ndk1::ostreambuf_iterator const, std::__ndk1::ostreambuf_iterator const, std::__ndk1::ios_base&, std::__ndk1::ostreambuf_iterator)
PUBLIC 30de8 0 std::__ndk1::basic_stringbuf<char, std::__ndk1::char_traits<char>, std::__ndk1::allocator<char> >::str[abi:ne180000]() &&
PUBLIC 30f60 0 std::__ndk1::basic_stringbuf<char, std::__ndk1::char_traits<char>, std::__ndk1::allocator<char> >::__init_buf_ptrs[abi:ne180000]()
PUBLIC 310a8 0 std::__ndk1::vector<std::__ndk1::basic_string<char, std::__ndk1::char_traits<char>, std::__ndk1::allocator<char> >, std::__ndk1::allocator<std::__ndk1::basic_string<char, std::__ndk1::char_traits<char>, std::__ndk1::allocator<char> > > >::__push_back_slow_path<std::__ndk1::basic_string<char, std::__ndk1::char_traits<char>, std::__ndk1::allocator<char> > const&>(std::__ndk1::basic_string<char, std::__ndk1::char_traits<char>, std::__ndk1::allocator<char> > const&)
PUBLIC 312d0 0 std::__ndk1::__split_buffer<std::__ndk1::basic_string<char, std::__ndk1::char_traits<char>, std::__ndk1::allocator<char> >, std::__ndk1::allocator<std::__ndk1::basic_string<char, std::__ndk1::char_traits<char>, std::__ndk1::allocator<char> > >&>::~__split_buffer()
PUBLIC 31338 0 std::__ndk1::__variant_detail::__visitation::__base::__dispatcher<(unsigned long)0>::__dispatch[abi:ne180000]<std::__ndk1::__variant_detail::__dtor<std::__ndk1::__variant_detail::__traits<geode::Hook*, std::__ndk1::basic_string<char, std::__ndk1::char_traits<char>, std::__ndk1::allocator<char> > >, (std::__ndk1::__variant_detail::_Trait)1>::__destroy[abi:ne180000]()::{lambda(auto:1&)#1}, std::__ndk1::__variant_detail::__base<(std::__ndk1::__variant_detail::__traits<geode::Hook*, std::__ndk1::basic_string<char, std::__ndk1::char_traits<char>, std::__ndk1::allocator<char> > >)1, geode::Hook, std::__ndk1::allocator<char> >&>(std::__ndk1::__variant_detail::__dtor<std::__ndk1::__variant_detail::__traits<geode::Hook*, std::__ndk1::basic_string<char, std::__ndk1::char_traits<char>, std::__ndk1::allocator<char> > >, (std::__ndk1::__variant_detail::_Trait)1>, std::__ndk1::__variant_detail::__base<(std::__ndk1::__variant_detail::__traits<geode::Hook*, std::__ndk1::basic_string<char, std::__ndk1::char_traits<char>, std::__ndk1::allocator<char> > >)1, geode::Hook, std::__ndk1::allocator<char> >&)
PUBLIC 3133c 0 std::__ndk1::__variant_detail::__visitation::__base::__dispatcher<(unsigned long)1>::__dispatch[abi:ne180000]<std::__ndk1::__variant_detail::__dtor<std::__ndk1::__variant_detail::__traits<geode::Hook*, std::__ndk1::basic_string<char, std::__ndk1::char_traits<char>, std::__ndk1::allocator<char> > >, (std::__ndk1::__variant_detail::_Trait)1>::__destroy[abi:ne180000]()::{lambda(auto:1&)#1}, std::__ndk1::__variant_detail::__base<(std::__ndk1::__variant_detail::__traits<geode::Hook*, std::__ndk1::basic_string<char, std::__ndk1::char_traits<char>, std::__ndk1::allocator<char> > >)1, geode::Hook, std::__ndk1::allocator<char> >&>(std::__ndk1::__variant_detail::__dtor<std::__ndk1::__variant_detail::__traits<geode::Hook*, std::__ndk1::basic_string<char, std::__ndk1::char_traits<char>, std::__ndk1::allocator<char> > >, (std::__ndk1::__variant_detail::_Trait)1>, std::__ndk1::__variant_detail::__base<(std::__ndk1::__variant_detail::__traits<geode::Hook*, std::__ndk1::basic_string<char, std::__ndk1::char_traits<char>, std::__ndk1::allocator<char> > >)1, geode::Hook, std::__ndk1::allocator<char> >&)
PUBLIC 31350 0 std::__ndk1::__tree<std::__ndk1::__value_type<std::__ndk1::basic_string<char, std::__ndk1::char_traits<char>, std::__ndk1::allocator<char> >, std::__ndk1::shared_ptr<geode::Hook> >, std::__ndk1::__map_value_compare<std::__ndk1::basic_string<char, std::__ndk1::char_traits<char>, std::__ndk1::allocator<char> >, std::__ndk1::__value_type<std::__ndk1::basic_string<char, std::__ndk1::char_traits<char>, std::__ndk1::allocator<char> >, std::__ndk1::shared_ptr<geode::Hook> >, std::__ndk1::less<std::__ndk1::basic_string<char, std::__ndk1::char_traits<char>, std::__ndk1::allocator<char> > >, true>, std::__ndk1::allocator<std::__ndk1::__value_type<std::__ndk1::basic_string<char, std::__ndk1::char_traits<char>, std::__ndk1::allocator<char> >, std::__ndk1::shared_ptr<geode::Hook> > > >::find<std::__ndk1::basic_string<char, std::__ndk1::char_traits<char>, std::__ndk1::allocator<char> > >(std::__ndk1::basic_string<char, std::__ndk1::char_traits<char>, std::__ndk1::allocator<char> > const&)
PUBLIC 31470 0 std::__ndk1::__tree<std::__ndk1::__value_type<std::__ndk1::basic_string<char, std::__ndk1::char_traits<char>, std::__ndk1::allocator<char> >, std::__ndk1::shared_ptr<geode::Hook> >, std::__ndk1::__map_value_compare<std::__ndk1::basic_string<char, std::__ndk1::char_traits<char>, std::__ndk1::allocator<char> >, std::__ndk1::__value_type<std::__ndk1::basic_string<char, std::__ndk1::char_traits<char>, std::__ndk1::allocator<char> >, std::__ndk1::shared_ptr<geode::Hook> >, std::__ndk1::less<std::__ndk1::basic_string<char, std::__ndk1::char_traits<char>, std::__ndk1::allocator<char> > >, true>, std::__ndk1::allocator<std::__ndk1::__value_type<std::__ndk1::basic_string<char, std::__ndk1::char_traits<char>, std::__ndk1::allocator<char> >, std::__ndk1::shared_ptr<geode::Hook> > > >::erase(std::__ndk1::__tree_const_iterator<std::__ndk1::__value_type<std::__ndk1::basic_string<char, std::__ndk1::char_traits<char>, std::__ndk1::allocator<char> >, std::__ndk1::shared_ptr<geode::Hook> >, std::__ndk1::__tree_node<std::__ndk1::__value_type<std::__ndk1::basic_string<char, std::__ndk1::char_traits<char>, std::__ndk1::allocator<char> >, std::__ndk1::shared_ptr<geode::Hook> >, void*>*, long>)
PUBLIC 31544 0 std::__ndk1::__tree_remove[abi:ne180000]<std::__ndk1::__tree_node_base<void*>*>(std::__ndk1::__tree_node_base<void*>*, std::__ndk1::__tree_node_base<void*>*)
PUBLIC 3190c 0 std::__ndk1::__tree<std::__ndk1::__value_type<std::__ndk1::basic_string<char, std::__ndk1::char_traits<char>, std::__ndk1::allocator<char> >, std::__ndk1::shared_ptr<geode::Hook> >, std::__ndk1::__map_value_compare<std::__ndk1::basic_string<char, std::__ndk1::char_traits<char>, std::__ndk1::allocator<char> >, std::__ndk1::__value_type<std::__ndk1::basic_string<char, std::__ndk1::char_traits<char>, std::__ndk1::allocator<char> >, std::__ndk1::shared_ptr<geode::Hook> >, std::__ndk1::less<std::__ndk1::basic_string<char, std::__ndk1::char_traits<char>, std::__ndk1::allocator<char> > >, true>, std::__ndk1::allocator<std::__ndk1::__value_type<std::__ndk1::basic_string<char, std::__ndk1::char_traits<char>, std::__ndk1::allocator<char> >, std::__ndk1::shared_ptr<geode::Hook> > > >::destroy(std::__ndk1::__tree_node<std::__ndk1::__value_type<std::__ndk1::basic_string<char, std::__ndk1::char_traits<char>, std::__ndk1::allocator<char> >, std::__ndk1::shared_ptr<geode::Hook> >, void*>*)
PUBLIC 31998 0 geode::modifier::AsStaticFunction_onTheSafe<BSDailyLevelPage, void (BSDailyLevelPage::*)(cocos2d::CCObject*)>::Impl<void (BSDailyLevelPage::*)(cocos2d::CCObject*)>::function(BSDailyLevelPage*, cocos2d::CCObject*)
PUBLIC 31af8 0 std::__ndk1::shared_ptr<tulip::hook::CallingConvention>::~shared_ptr[abi:ne180000]()
PUBLIC 31b48 0 tulip::hook::HandlerMetadata::~HandlerMetadata()
PUBLIC 31bac 0 std::__ndk1::__tree<std::__ndk1::__value_type<std::__ndk1::basic_string<char, std::__ndk1::char_traits<char>, std::__ndk1::allocator<char> >, std::__ndk1::shared_ptr<geode::Hook> >, std::__ndk1::__map_value_compare<std::__ndk1::basic_string<char, std::__ndk1::char_traits<char>, std::__ndk1::allocator<char> >, std::__ndk1::__value_type<std::__ndk1::basic_string<char, std::__ndk1::char_traits<char>, std::__ndk1::allocator<char> >, std::__ndk1::shared_ptr<geode::Hook> >, std::__ndk1::less<std::__ndk1::basic_string<char, std::__ndk1::char_traits<char>, std::__ndk1::allocator<char> > >, true>, std::__ndk1::allocator<std::__ndk1::__value_type<std::__ndk1::basic_string<char, std::__ndk1::char_traits<char>, std::__ndk1::allocator<char> >, std::__ndk1::shared_ptr<geode::Hook> > > >::__emplace_unique_key_args<std::__ndk1::basic_string<char, std::__ndk1::char_traits<char>, std::__ndk1::allocator<char> >, std::__ndk1::piecewise_construct_t const&, std::__ndk1::tuple<std::__ndk1::basic_string<char, std::__ndk1::char_traits<char>, std::__ndk1::allocator<char> >&&>, std::__ndk1::tuple<> >(std::__ndk1::basic_string<char, std::__ndk1::char_traits<char>, std::__ndk1::allocator<char> > const&, std::__ndk1::piecewise_construct_t const&, std::__ndk1::tuple<std::__ndk1::basic_string<char, std::__ndk1::char_traits<char>, std::__ndk1::allocator<char> >&&>, std::__ndk1::tuple<>)
PUBLIC 31d24 0 std::__ndk1::__tree_balance_after_insert[abi:ne180000]<std::__ndk1::__tree_node_base<void*>*>(std::__ndk1::__tree_node_base<void*>*, std::__ndk1::__tree_node_base<void*>*)
PUBLIC 31ed4 0 __cxx_global_var_init.18
PUBLIC 3276c 0 geode::modifier::ModifyBase<geode::modifier::ModifyDerive<BSMenuLayer, MenuLayer> >::~ModifyBase()
PUBLIC 32788 0 geode::modifier::ModifyDerive<BSMenuLayer, MenuLayer>::apply()
PUBLIC 32a90 0 geode::modifier::ModifyBase<geode::modifier::ModifyDerive<BSMenuLayer, MenuLayer> >::apply()
PUBLIC 32a94 0 geode::modifier::ModifyBase<geode::modifier::ModifyDerive<BSMenuLayer, MenuLayer> >::getHook(std::__ndk1::basic_string_view<char, std::__ndk1::char_traits<char> >)
PUBLIC 32d38 0 std::__ndk1::unique_ptr<std::__ndk1::__tree_node<std::__ndk1::__value_type<std::__ndk1::basic_string<char, std::__ndk1::char_traits<char>, std::__ndk1::allocator<char> >, std::__ndk1::shared_ptr<geode::Hook> >, void*>, std::__ndk1::__tree_node_destructor<std::__ndk1::allocator<std::__ndk1::__tree_node<std::__ndk1::__value_type<std::__ndk1::basic_string<char, std::__ndk1::char_traits<char>, std::__ndk1::allocator<char> >, std::__ndk1::shared_ptr<geode::Hook> >, void*> > > >::~unique_ptr[abi:ne180000]()
PUBLIC 32db4 0 geode::modifier::ModifyBase<geode::modifier::ModifyDerive<BSMenuLayer, MenuLayer> >::setHookPriorityBefore(std::__ndk1::basic_string_view<char, std::__ndk1::char_traits<char> >, geode::Mod*)::{lambda(geode::ModStateEvent*)#1}::operator()(geode::ModStateEvent*) const
PUBLIC 32ec4 0 _ZN5geode15UnwrapExceptionC2IRNSt6__ndk112basic_stringIcNS2_11char_traitsIcEENS2_9allocatorIcEEEEQsr4implE18IsStringStreamableIT_EEENS_4impl6ErrTagEOSA_
PUBLIC 3302c 0 std::__ndk1::__function::__base<void (geode::ModStateEvent*)>::~__base()
PUBLIC 33030 0 std::__ndk1::__function::__func<geode::modifier::ModifyBase<geode::modifier::ModifyDerive<BSMenuLayer, MenuLayer> >::setHookPriorityBefore(std::__ndk1::basic_string_view<char, std::__ndk1::char_traits<char> >, geode::Mod*)::{lambda(geode::ModStateEvent*)#1}, std::__ndk1::allocator<geode::modifier::ModifyBase<geode::modifier::ModifyDerive<BSMenuLayer, MenuLayer> >::setHookPriorityBefore(std::__ndk1::basic_string_view<char, std::__ndk1::char_traits<char> >, geode::Mod*)::{lambda(geode::ModStateEvent*)#1}>, void (geode::ModStateEvent*)>::~__func()
PUBLIC 33034 0 std::__ndk1::__function::__func<geode::modifier::ModifyBase<geode::modifier::ModifyDerive<BSMenuLayer, MenuLayer> >::setHookPriorityBefore(std::__ndk1::basic_string_view<char, std::__ndk1::char_traits<char> >, geode::Mod*)::{lambda(geode::ModStateEvent*)#1}, std::__ndk1::allocator<geode::modifier::ModifyBase<geode::modifier::ModifyDerive<BSMenuLayer, MenuLayer> >::setHookPriorityBefore(std::__ndk1::basic_string_view<char, std::__ndk1::char_traits<char> >, geode::Mod*)::{lambda(geode::ModStateEvent*)#1}>, void (geode::ModStateEvent*)>::__clone() const
PUBLIC 3306c 0 std::__ndk1::__function::__func<geode::modifier::ModifyBase<geode::modifier::ModifyDerive<BSMenuLayer, MenuLayer> >::setHookPriorityBefore(std::__ndk1::basic_string_view<char, std::__ndk1::char_traits<char> >, geode::Mod*)::{lambda(geode::ModStateEvent*)#1}, std::__ndk1::allocator<geode::modifier::ModifyBase<geode::modifier::ModifyDerive<BSMenuLayer, MenuLayer> >::setHookPriorityBefore(std::__ndk1::basic_string_view<char, std::__ndk1::char_traits<char> >, geode::Mod*)::{lambda(geode::ModStateEvent*)#1}>, void (geode::ModStateEvent*)>::__clone(std::__ndk1::__function::__base<void (geode::ModStateEvent*)>*) const
PUBLIC 33084 0 std::__ndk1::__function::__func<geode::modifier::ModifyBase<geode::modifier::ModifyDerive<BSMenuLayer, MenuLayer> >::setHookPriorityBefore(std::__ndk1::basic_string_view<char, std::__ndk1::char_traits<char> >, geode::Mod*)::{lambda(geode::ModStateEvent*)#1}, std::__ndk1::allocator<geode::modifier::ModifyBase<geode::modifier::ModifyDerive<BSMenuLayer, MenuLayer> >::setHookPriorityBefore(std::__ndk1::basic_string_view<char, std::__ndk1::char_traits<char> >, geode::Mod*)::{lambda(geode::ModStateEvent*)#1}>, void (geode::ModStateEvent*)>::destroy()
PUBLIC 33088 0 std::__ndk1::__function::__func<geode::modifier::ModifyBase<geode::modifier::ModifyDerive<BSMenuLayer, MenuLayer> >::setHookPriorityBefore(std::__ndk1::basic_string_view<char, std::__ndk1::char_traits<char> >, geode::Mod*)::{lambda(geode::ModStateEvent*)#1}, std::__ndk1::allocator<geode::modifier::ModifyBase<geode::modifier::ModifyDerive<BSMenuLayer, MenuLayer> >::setHookPriorityBefore(std::__ndk1::basic_string_view<char, std::__ndk1::char_traits<char> >, geode::Mod*)::{lambda(geode::ModStateEvent*)#1}>, void (geode::ModStateEvent*)>::destroy_deallocate()
PUBLIC 3308c 0 std::__ndk1::__function::__func<geode::modifier::ModifyBase<geode::modifier::ModifyDerive<BSMenuLayer, MenuLayer> >::setHookPriorityBefore(std::__ndk1::basic_string_view<char, std::__ndk1::char_traits<char> >, geode::Mod*)::{lambda(geode::ModStateEvent*)#1}, std::__ndk1::allocator<geode::modifier::ModifyBase<geode::modifier::ModifyDerive<BSMenuLayer, MenuLayer> >::setHookPriorityBefore(std::__ndk1::basic_string_view<char, std::__ndk1::char_traits<char> >, geode::Mod*)::{lambda(geode::ModStateEvent*)#1}>, void (geode::ModStateEvent*)>::operator()(geode::ModStateEvent*&&)
PUBLIC 33094 0 std::__ndk1::__function::__func<geode::modifier::ModifyBase<geode::modifier::ModifyDerive<BSMenuLayer, MenuLayer> >::setHookPriorityBefore(std::__ndk1::basic_string_view<char, std::__ndk1::char_traits<char> >, geode::Mod*)::{lambda(geode::ModStateEvent*)#1}, std::__ndk1::allocator<geode::modifier::ModifyBase<geode::modifier::ModifyDerive<BSMenuLayer, MenuLayer> >::setHookPriorityBefore(std::__ndk1::basic_string_view<char, std::__ndk1::char_traits<char> >, geode::Mod*)::{lambda(geode::ModStateEvent*)#1}>, void (geode::ModStateEvent*)>::target(std::type_info const&) const
PUBLIC 330b0 0 std::__ndk1::__function::__func<geode::modifier::ModifyBase<geode::modifier::ModifyDerive<BSMenuLayer, MenuLayer> >::setHookPriorityBefore(std::__ndk1::basic_string_view<char, std::__ndk1::char_traits<char> >, geode::Mod*)::{lambda(geode::ModStateEvent*)#1}, std::__ndk1::allocator<geode::modifier::ModifyBase<geode::modifier::ModifyDerive<BSMenuLayer, MenuLayer> >::setHookPriorityBefore(std::__ndk1::basic_string_view<char, std::__ndk1::char_traits<char> >, geode::Mod*)::{lambda(geode::ModStateEvent*)#1}>, void (geode::ModStateEvent*)>::target_type() const
PUBLIC 330bc 0 geode::EventListener<geode::ModStateFilter>::getPool() const
PUBLIC 330c0 0 geode::EventListener<geode::ModStateFilter>::handle(geode::Event*)
PUBLIC 33234 0 geode::EventListener<geode::ModStateFilter>::~EventListener()
PUBLIC 33290 0 geode::EventListener<geode::ModStateFilter>::~EventListener()
PUBLIC 332f4 0 std::__ndk1::__variant_detail::__visitation::__base::__dispatcher<(unsigned long)0>::__dispatch[abi:ne180000]<std::__ndk1::__variant_detail::__dtor<std::__ndk1::__variant_detail::__traits<std::__ndk1::monostate, std::__ndk1::basic_string<char, std::__ndk1::char_traits<char>, std::__ndk1::allocator<char> > >, (std::__ndk1::__variant_detail::_Trait)1>::__destroy[abi:ne180000]()::{lambda(auto:1&)#1}, std::__ndk1::__variant_detail::__base<(std::__ndk1::__variant_detail::__traits<std::__ndk1::monostate, std::__ndk1::basic_string<char, std::__ndk1::char_traits<char>, std::__ndk1::allocator<char> > >)1, std::__ndk1::__variant_detail::__traits, std::__ndk1::allocator<char> >&>(std::__ndk1::__variant_detail::__dtor<std::__ndk1::__variant_detail::__traits<std::__ndk1::monostate, std::__ndk1::basic_string<char, std::__ndk1::char_traits<char>, std::__ndk1::allocator<char> > >, (std::__ndk1::__variant_detail::_Trait)1>, std::__ndk1::__variant_detail::__base<(std::__ndk1::__variant_detail::__traits<std::__ndk1::monostate, std::__ndk1::basic_string<char, std::__ndk1::char_traits<char>, std::__ndk1::allocator<char> > >)1, std::__ndk1::__variant_detail::__traits, std::__ndk1::allocator<char> >&)
PUBLIC 332f8 0 std::__ndk1::__variant_detail::__visitation::__base::__dispatcher<(unsigned long)1>::__dispatch[abi:ne180000]<std::__ndk1::__variant_detail::__dtor<std::__ndk1::__variant_detail::__traits<std::__ndk1::monostate, std::__ndk1::basic_string<char, std::__ndk1::char_traits<char>, std::__ndk1::allocator<char> > >, (std::__ndk1::__variant_detail::_Trait)1>::__destroy[abi:ne180000]()::{lambda(auto:1&)#1}, std::__ndk1::__variant_detail::__base<(std::__ndk1::__variant_detail::__traits<std::__ndk1::monostate, std::__ndk1::basic_string<char, std::__ndk1::char_traits<char>, std::__ndk1::allocator<char> > >)1, std::__ndk1::__variant_detail::__traits, std::__ndk1::allocator<char> >&>(std::__ndk1::__variant_detail::__dtor<std::__ndk1::__variant_detail::__traits<std::__ndk1::monostate, std::__ndk1::basic_string<char, std::__ndk1::char_traits<char>, std::__ndk1::allocator<char> > >, (std::__ndk1::__variant_detail::_Trait)1>, std::__ndk1::__variant_detail::__base<(std::__ndk1::__variant_detail::__traits<std::__ndk1::monostate, std::__ndk1::basic_string<char, std::__ndk1::char_traits<char>, std::__ndk1::allocator<char> > >)1, std::__ndk1::__variant_detail::__traits, std::__ndk1::allocator<char> >&)
PUBLIC 3330c 0 geode::modifier::AsStaticFunction_init<BSMenuLayer, bool (BSMenuLayer::*)()>::Impl<bool (BSMenuLayer::*)()>::function(BSMenuLayer*)
PUBLIC 3346c 0 geode::addresser::Addresser::addressOfVirtual<bool, MenuLayer, >(bool (MenuLayer::*)())
PUBLIC 33514 0 MenuLayer::MenuLayer(geode::ZeroConstructorType)
PUBLIC 335b0 0 geode::modifier::FieldIntermediate<BSMenuLayer, MenuLayer>::self()
PUBLIC 33bfc 0 BSMenuLayer::onTheDailySafe(cocos2d::CCObject*)
PUBLIC 33d0c 0 BSMenuLayer::onTheWeeklySafe(cocos2d::CCObject*)
PUBLIC 33e1c 0 BSMenuLayer::onTheEventSafe(cocos2d::CCObject*)
PUBLIC 33f2c 0 geode::modifier::FieldIntermediate<BSMenuLayer, MenuLayer>::fieldDestructor(void*)
PUBLIC 33f30 0 std::__ndk1::vector<void*, std::__ndk1::allocator<void*> >::__throw_length_error[abi:ne180000]() const
PUBLIC 33f44 0 std::__ndk1::vector<std::__ndk1::function<void (void*)>, std::__ndk1::allocator<std::__ndk1::function<void (void*)> > >::__throw_length_error[abi:ne180000]() const
PUBLIC 33f58 0 std::__ndk1::vector<void*, std::__ndk1::allocator<void*> >::__throw_out_of_range[abi:ne180000]() const
PUBLIC 33f6c 0 std::__ndk1::vector<std::__ndk1::function<void (void*)>, std::__ndk1::allocator<std::__ndk1::function<void (void*)> > >::__throw_out_of_range[abi:ne180000]() const
PUBLIC 33f80 0 std::__ndk1::__function::__base<void (void*)>::~__base()
PUBLIC 33f84 0 std::__ndk1::__function::__func<void (*)(void*), std::__ndk1::allocator<void (*)(void*)>, void (void*)>::~__func()
PUBLIC 33f88 0 std::__ndk1::__function::__func<void (*)(void*), std::__ndk1::allocator<void (*)(void*)>, void (void*)>::__clone() const
PUBLIC 33fc0 0 std::__ndk1::__function::__func<void (*)(void*), std::__ndk1::allocator<void (*)(void*)>, void (void*)>::__clone(std::__ndk1::__function::__base<void (void*)>*) const
PUBLIC 33fd8 0 std::__ndk1::__function::__func<void (*)(void*), std::__ndk1::allocator<void (*)(void*)>, void (void*)>::destroy()
PUBLIC 33fdc 0 std::__ndk1::__function::__func<void (*)(void*), std::__ndk1::allocator<void (*)(void*)>, void (void*)>::destroy_deallocate()
PUBLIC 33fe0 0 std::__ndk1::__function::__func<void (*)(void*), std::__ndk1::allocator<void (*)(void*)>, void (void*)>::operator()(void*&&)
PUBLIC 33ff0 0 std::__ndk1::__function::__func<void (*)(void*), std::__ndk1::allocator<void (*)(void*)>, void (void*)>::target(std::type_info const&) const
PUBLIC 3400c 0 std::__ndk1::__function::__func<void (*)(void*), std::__ndk1::allocator<void (*)(void*)>, void (void*)>::target_type() const
PUBLIC 34018 0 geode::impl::ResultData<int, std::__ndk1::basic_string<char, std::__ndk1::char_traits<char>, std::__ndk1::allocator<char> > >::~ResultData()
PUBLIC 3408c 0 BetterSafe::loadSafe(GJTimedLevelType, geode::EventListener<geode::Task<geode::utils::web::WebResponse, geode::utils::web::WebProgress> >&&, std::__ndk1::function<void ()> const&, std::__ndk1::function<void (int)> const&)
PUBLIC 3483c 0 BetterSafe::loadSafe(GJTimedLevelType, geode::EventListener<geode::Task<geode::utils::web::WebResponse, geode::utils::web::WebProgress> >&&, std::__ndk1::function<void ()> const&, std::__ndk1::function<void (int)> const&)::$_0::~$_0()
PUBLIC 348d4 0 BetterSafe::getMonth(int, int, GJTimedLevelType)
PUBLIC 35798 0 std::__ndk1::__variant_detail::__visitation::__base::__dispatcher<(unsigned long)0>::__dispatch[abi:ne180000]<std::__ndk1::__variant_detail::__dtor<std::__ndk1::__variant_detail::__traits<int, std::__ndk1::basic_string<char, std::__ndk1::char_traits<char>, std::__ndk1::allocator<char> > >, (std::__ndk1::__variant_detail::_Trait)1>::__destroy[abi:ne180000]()::{lambda(auto:1&)#1}, std::__ndk1::__variant_detail::__base<(std::__ndk1::__variant_detail::__traits<int, std::__ndk1::basic_string<char, std::__ndk1::char_traits<char>, std::__ndk1::allocator<char> > >)1, int, std::__ndk1::allocator<char> >&>(std::__ndk1::__variant_detail::__dtor<std::__ndk1::__variant_detail::__traits<int, std::__ndk1::basic_string<char, std::__ndk1::char_traits<char>, std::__ndk1::allocator<char> > >, (std::__ndk1::__variant_detail::_Trait)1>, std::__ndk1::__variant_detail::__base<(std::__ndk1::__variant_detail::__traits<int, std::__ndk1::basic_string<char, std::__ndk1::char_traits<char>, std::__ndk1::allocator<char> > >)1, int, std::__ndk1::allocator<char> >&)
PUBLIC 3579c 0 std::__ndk1::__variant_detail::__visitation::__base::__dispatcher<(unsigned long)1>::__dispatch[abi:ne180000]<std::__ndk1::__variant_detail::__dtor<std::__ndk1::__variant_detail::__traits<int, std::__ndk1::basic_string<char, std::__ndk1::char_traits<char>, std::__ndk1::allocator<char> > >, (std::__ndk1::__variant_detail::_Trait)1>::__destroy[abi:ne180000]()::{lambda(auto:1&)#1}, std::__ndk1::__variant_detail::__base<(std::__ndk1::__variant_detail::__traits<int, std::__ndk1::basic_string<char, std::__ndk1::char_traits<char>, std::__ndk1::allocator<char> > >)1, int, std::__ndk1::allocator<char> >&>(std::__ndk1::__variant_detail::__dtor<std::__ndk1::__variant_detail::__traits<int, std::__ndk1::basic_string<char, std::__ndk1::char_traits<char>, std::__ndk1::allocator<char> > >, (std::__ndk1::__variant_detail::_Trait)1>, std::__ndk1::__variant_detail::__base<(std::__ndk1::__variant_detail::__traits<int, std::__ndk1::basic_string<char, std::__ndk1::char_traits<char>, std::__ndk1::allocator<char> > >)1, int, std::__ndk1::allocator<char> >&)
PUBLIC 357b0 0 std::__ndk1::__function::__func<BetterSafe::loadSafe(GJTimedLevelType, geode::EventListener<geode::Task<geode::utils::web::WebResponse, geode::utils::web::WebProgress> >&&, std::__ndk1::function<void ()> const&, std::__ndk1::function<void (int)> const&)::$_0, std::__ndk1::allocator<BetterSafe::loadSafe(GJTimedLevelType, geode::EventListener<geode::Task<geode::utils::web::WebResponse, geode::utils::web::WebProgress> >&&, std::__ndk1::function<void ()> const&, std::__ndk1::function<void (int)> const&)::$_0>, void (geode::Task<geode::utils::web::WebResponse, geode::utils::web::WebProgress>*::Event)>::~__func()
PUBLIC 35850 0 std::__ndk1::__function::__func<BetterSafe::loadSafe(GJTimedLevelType, geode::EventListener<geode::Task<geode::utils::web::WebResponse, geode::utils::web::WebProgress> >&&, std::__ndk1::function<void ()> const&, std::__ndk1::function<void (int)> const&)::$_0, std::__ndk1::allocator<BetterSafe::loadSafe(GJTimedLevelType, geode::EventListener<geode::Task<geode::utils::web::WebResponse, geode::utils::web::WebProgress> >&&, std::__ndk1::function<void ()> const&, std::__ndk1::function<void (int)> const&)::$_0>, void (geode::Task<geode::utils::web::WebResponse, geode::utils::web::WebProgress>*::Event)>::~__func()
PUBLIC 358dc 0 std::__ndk1::__function::__func<BetterSafe::loadSafe(GJTimedLevelType, geode::EventListener<geode::Task<geode::utils::web::WebResponse, geode::utils::web::WebProgress> >&&, std::__ndk1::function<void ()> const&, std::__ndk1::function<void (int)> const&)::$_0, std::__ndk1::allocator<BetterSafe::loadSafe(GJTimedLevelType, geode::EventListener<geode::Task<geode::utils::web::WebResponse, geode::utils::web::WebProgress> >&&, std::__ndk1::function<void ()> const&, std::__ndk1::function<void (int)> const&)::$_0>, void (geode::Task<geode::utils::web::WebResponse, geode::utils::web::WebProgress>*::Event)>::__clone() const
PUBLIC 359f8 0 std::__ndk1::__function::__func<BetterSafe::loadSafe(GJTimedLevelType, geode::EventListener<geode::Task<geode::utils::web::WebResponse, geode::utils::web::WebProgress> >&&, std::__ndk1::function<void ()> const&, std::__ndk1::function<void (int)> const&)::$_0, std::__ndk1::allocator<BetterSafe::loadSafe(GJTimedLevelType, geode::EventListener<geode::Task<geode::utils::web::WebResponse, geode::utils::web::WebProgress> >&&, std::__ndk1::function<void ()> const&, std::__ndk1::function<void (int)> const&)::$_0>, void (geode::Task<geode::utils::web::WebResponse, geode::utils::web::WebProgress>*::Event)>::__clone(std::__ndk1::__function::__base<void (geode::Task<geode::utils::web::WebResponse, geode::utils::web::WebProgress>*::Event)>*) const
PUBLIC 35b20 0 std::__ndk1::__function::__func<BetterSafe::loadSafe(GJTimedLevelType, geode::EventListener<geode::Task<geode::utils::web::WebResponse, geode::utils::web::WebProgress> >&&, std::__ndk1::function<void ()> const&, std::__ndk1::function<void (int)> const&)::$_0, std::__ndk1::allocator<BetterSafe::loadSafe(GJTimedLevelType, geode::EventListener<geode::Task<geode::utils::web::WebResponse, geode::utils::web::WebProgress> >&&, std::__ndk1::function<void ()> const&, std::__ndk1::function<void (int)> const&)::$_0>, void (geode::Task<geode::utils::web::WebResponse, geode::utils::web::WebProgress>*::Event)>::destroy()
PUBLIC 35bb4 0 std::__ndk1::__function::__func<BetterSafe::loadSafe(GJTimedLevelType, geode::EventListener<geode::Task<geode::utils::web::WebResponse, geode::utils::web::WebProgress> >&&, std::__ndk1::function<void ()> const&, std::__ndk1::function<void (int)> const&)::$_0, std::__ndk1::allocator<BetterSafe::loadSafe(GJTimedLevelType, geode::EventListener<geode::Task<geode::utils::web::WebResponse, geode::utils::web::WebProgress> >&&, std::__ndk1::function<void ()> const&, std::__ndk1::function<void (int)> const&)::$_0>, void (geode::Task<geode::utils::web::WebResponse, geode::utils::web::WebProgress>*::Event)>::destroy_deallocate()
PUBLIC 35c34 0 std::__ndk1::__function::__func<BetterSafe::loadSafe(GJTimedLevelType, geode::EventListener<geode::Task<geode::utils::web::WebResponse, geode::utils::web::WebProgress> >&&, std::__ndk1::function<void ()> const&, std::__ndk1::function<void (int)> const&)::$_0, std::__ndk1::allocator<BetterSafe::loadSafe(GJTimedLevelType, geode::EventListener<geode::Task<geode::utils::web::WebResponse, geode::utils::web::WebProgress> >&&, std::__ndk1::function<void ()> const&, std::__ndk1::function<void (int)> const&)::$_0>, void (geode::Task<geode::utils::web::WebResponse, geode::utils::web::WebProgress>*::Event)>::operator()(geode::Task<geode::utils::web::WebResponse, geode::utils::web::WebProgress>*::Event&&)
PUBLIC 375e4 0 std::__ndk1::__function::__func<BetterSafe::loadSafe(GJTimedLevelType, geode::EventListener<geode::Task<geode::utils::web::WebResponse, geode::utils::web::WebProgress> >&&, std::__ndk1::function<void ()> const&, std::__ndk1::function<void (int)> const&)::$_0, std::__ndk1::allocator<BetterSafe::loadSafe(GJTimedLevelType, geode::EventListener<geode::Task<geode::utils::web::WebResponse, geode::utils::web::WebProgress> >&&, std::__ndk1::function<void ()> const&, std::__ndk1::function<void (int)> const&)::$_0>, void (geode::Task<geode::utils::web::WebResponse, geode::utils::web::WebProgress>*::Event)>::target(std::type_info const&) const
PUBLIC 37600 0 std::__ndk1::__function::__func<BetterSafe::loadSafe(GJTimedLevelType, geode::EventListener<geode::Task<geode::utils::web::WebResponse, geode::utils::web::WebProgress> >&&, std::__ndk1::function<void ()> const&, std::__ndk1::function<void (int)> const&)::$_0, std::__ndk1::allocator<BetterSafe::loadSafe(GJTimedLevelType, geode::EventListener<geode::Task<geode::utils::web::WebResponse, geode::utils::web::WebProgress> >&&, std::__ndk1::function<void ()> const&, std::__ndk1::function<void (int)> const&)::$_0>, void (geode::Task<geode::utils::web::WebResponse, geode::utils::web::WebProgress>*::Event)>::target_type() const
PUBLIC 3760c 0 geode::impl::ResultData<std::__ndk1::vector<matjson::Value, std::__ndk1::allocator<matjson::Value> >&, std::__ndk1::basic_string<char, std::__ndk1::char_traits<char>, std::__ndk1::allocator<char> > >::~ResultData()
PUBLIC 37680 0 std::__ndk1::__variant_detail::__visitation::__base::__dispatcher<(unsigned long)0>::__dispatch[abi:ne180000]<std::__ndk1::__variant_detail::__dtor<std::__ndk1::__variant_detail::__traits<matjson::Value, std::__ndk1::basic_string<char, std::__ndk1::char_traits<char>, std::__ndk1::allocator<char> > >, (std::__ndk1::__variant_detail::_Trait)1>::__destroy[abi:ne180000]()::{lambda(auto:1&)#1}, std::__ndk1::__variant_detail::__base<(std::__ndk1::__variant_detail::__traits<matjson::Value, std::__ndk1::basic_string<char, std::__ndk1::char_traits<char>, std::__ndk1::allocator<char> > >)1, matjson, std::__ndk1::allocator<char> >&>(std::__ndk1::__variant_detail::__dtor<std::__ndk1::__variant_detail::__traits<matjson::Value, std::__ndk1::basic_string<char, std::__ndk1::char_traits<char>, std::__ndk1::allocator<char> > >, (std::__ndk1::__variant_detail::_Trait)1>, std::__ndk1::__variant_detail::__base<(std::__ndk1::__variant_detail::__traits<matjson::Value, std::__ndk1::basic_string<char, std::__ndk1::char_traits<char>, std::__ndk1::allocator<char> > >)1, matjson, std::__ndk1::allocator<char> >&)
PUBLIC 37688 0 std::__ndk1::__variant_detail::__visitation::__base::__dispatcher<(unsigned long)1>::__dispatch[abi:ne180000]<std::__ndk1::__variant_detail::__dtor<std::__ndk1::__variant_detail::__traits<matjson::Value, std::__ndk1::basic_string<char, std::__ndk1::char_traits<char>, std::__ndk1::allocator<char> > >, (std::__ndk1::__variant_detail::_Trait)1>::__destroy[abi:ne180000]()::{lambda(auto:1&)#1}, std::__ndk1::__variant_detail::__base<(std::__ndk1::__variant_detail::__traits<matjson::Value, std::__ndk1::basic_string<char, std::__ndk1::char_traits<char>, std::__ndk1::allocator<char> > >)1, matjson, std::__ndk1::allocator<char> >&>(std::__ndk1::__variant_detail::__dtor<std::__ndk1::__variant_detail::__traits<matjson::Value, std::__ndk1::basic_string<char, std::__ndk1::char_traits<char>, std::__ndk1::allocator<char> > >, (std::__ndk1::__variant_detail::_Trait)1>, std::__ndk1::__variant_detail::__base<(std::__ndk1::__variant_detail::__traits<matjson::Value, std::__ndk1::basic_string<char, std::__ndk1::char_traits<char>, std::__ndk1::allocator<char> > >)1, matjson, std::__ndk1::allocator<char> >&)
PUBLIC 3769c 0 geode::impl::ResultData<long, std::__ndk1::basic_string<char, std::__ndk1::char_traits<char>, std::__ndk1::allocator<char> > >::~ResultData()
PUBLIC 37710 0 geode::impl::ResultData<std::__ndk1::vector<matjson::Value, std::__ndk1::allocator<matjson::Value> > const&, std::__ndk1::basic_string<char, std::__ndk1::char_traits<char>, std::__ndk1::allocator<char> > >::~ResultData()
PUBLIC 37784 0 geode::impl::ResultData<std::__ndk1::basic_string<char, std::__ndk1::char_traits<char>, std::__ndk1::allocator<char> >, std::__ndk1::basic_string<char, std::__ndk1::char_traits<char>, std::__ndk1::allocator<char> > >::~ResultData()
PUBLIC 377f8 0 std::__ndk1::__variant_detail::__visitation::__base::__dispatcher<(unsigned long)0>::__dispatch[abi:ne180000]<std::__ndk1::__variant_detail::__dtor<std::__ndk1::__variant_detail::__traits<std::__ndk1::basic_string<char, std::__ndk1::char_traits<char>, std::__ndk1::allocator<char> >, std::__ndk1::allocator<char> >, (std::__ndk1::__variant_detail::_Trait)1>::__destroy[abi:ne180000]()::{lambda(auto:1&)#1}, std::__ndk1::__variant_detail::__base<(std::__ndk1::__variant_detail::__traits<std::__ndk1::basic_string<char, std::__ndk1::char_traits<char>, std::__ndk1::allocator<char> >, std::__ndk1::allocator<char> >)1, std::__ndk1::allocator<char>, std::__ndk1::allocator<char> >&>(std::__ndk1::__variant_detail::__dtor<std::__ndk1::__variant_detail::__traits<std::__ndk1::basic_string<char, std::__ndk1::char_traits<char>, std::__ndk1::allocator<char> >, std::__ndk1::allocator<char> >, (std::__ndk1::__variant_detail::_Trait)1>, std::__ndk1::__variant_detail::__base<(std::__ndk1::__variant_detail::__traits<std::__ndk1::basic_string<char, std::__ndk1::char_traits<char>, std::__ndk1::allocator<char> >, std::__ndk1::allocator<char> >)1, std::__ndk1::allocator<char>, std::__ndk1::allocator<char> >&)
PUBLIC 3780c 0 std::__ndk1::__variant_detail::__visitation::__base::__dispatcher<(unsigned long)1>::__dispatch[abi:ne180000]<std::__ndk1::__variant_detail::__dtor<std::__ndk1::__variant_detail::__traits<std::__ndk1::basic_string<char, std::__ndk1::char_traits<char>, std::__ndk1::allocator<char> >, std::__ndk1::allocator<char> >, (std::__ndk1::__variant_detail::_Trait)1>::__destroy[abi:ne180000]()::{lambda(auto:1&)#1}, std::__ndk1::__variant_detail::__base<(std::__ndk1::__variant_detail::__traits<std::__ndk1::basic_string<char, std::__ndk1::char_traits<char>, std::__ndk1::allocator<char> >, std::__ndk1::allocator<char> >)1, std::__ndk1::allocator<char>, std::__ndk1::allocator<char> >&>(std::__ndk1::__variant_detail::__dtor<std::__ndk1::__variant_detail::__traits<std::__ndk1::basic_string<char, std::__ndk1::char_traits<char>, std::__ndk1::allocator<char> >, std::__ndk1::allocator<char> >, (std::__ndk1::__variant_detail::_Trait)1>, std::__ndk1::__variant_detail::__base<(std::__ndk1::__variant_detail::__traits<std::__ndk1::basic_string<char, std::__ndk1::char_traits<char>, std::__ndk1::allocator<char> >, std::__ndk1::allocator<char> >)1, std::__ndk1::allocator<char>, std::__ndk1::allocator<char> >&)
PUBLIC 37820 0 std::__ndk1::__variant_detail::__visitation::__base::__dispatcher<(unsigned long)0>::__dispatch[abi:ne180000]<std::__ndk1::__variant_detail::__dtor<std::__ndk1::__variant_detail::__traits<long, std::__ndk1::basic_string<char, std::__ndk1::char_traits<char>, std::__ndk1::allocator<char> > >, (std::__ndk1::__variant_detail::_Trait)1>::__destroy[abi:ne180000]()::{lambda(auto:1&)#1}, std::__ndk1::__variant_detail::__base<(std::__ndk1::__variant_detail::__traits<long, std::__ndk1::basic_string<char, std::__ndk1::char_traits<char>, std::__ndk1::allocator<char> > >)1, long, std::__ndk1::allocator<char> >&>(std::__ndk1::__variant_detail::__dtor<std::__ndk1::__variant_detail::__traits<long, std::__ndk1::basic_string<char, std::__ndk1::char_traits<char>, std::__ndk1::allocator<char> > >, (std::__ndk1::__variant_detail::_Trait)1>, std::__ndk1::__variant_detail::__base<(std::__ndk1::__variant_detail::__traits<long, std::__ndk1::basic_string<char, std::__ndk1::char_traits<char>, std::__ndk1::allocator<char> > >)1, long, std::__ndk1::allocator<char> >&)
PUBLIC 37824 0 std::__ndk1::__variant_detail::__visitation::__base::__dispatcher<(unsigned long)1>::__dispatch[abi:ne180000]<std::__ndk1::__variant_detail::__dtor<std::__ndk1::__variant_detail::__traits<long, std::__ndk1::basic_string<char, std::__ndk1::char_traits<char>, std::__ndk1::allocator<char> > >, (std::__ndk1::__variant_detail::_Trait)1>::__destroy[abi:ne180000]()::{lambda(auto:1&)#1}, std::__ndk1::__variant_detail::__base<(std::__ndk1::__variant_detail::__traits<long, std::__ndk1::basic_string<char, std::__ndk1::char_traits<char>, std::__ndk1::allocator<char> > >)1, long, std::__ndk1::allocator<char> >&>(std::__ndk1::__variant_detail::__dtor<std::__ndk1::__variant_detail::__traits<long, std::__ndk1::basic_string<char, std::__ndk1::char_traits<char>, std::__ndk1::allocator<char> > >, (std::__ndk1::__variant_detail::_Trait)1>, std::__ndk1::__variant_detail::__base<(std::__ndk1::__variant_detail::__traits<long, std::__ndk1::basic_string<char, std::__ndk1::char_traits<char>, std::__ndk1::allocator<char> > >)1, long, std::__ndk1::allocator<char> >&)
PUBLIC 37838 0 std::__ndk1::__variant_detail::__visitation::__base::__dispatcher<(unsigned long)0>::__dispatch[abi:ne180000]<std::__ndk1::__variant_detail::__dtor<std::__ndk1::__variant_detail::__traits<std::__ndk1::reference_wrapper<std::__ndk1::vector<matjson::Value, std::__ndk1::allocator<matjson> > const>, std::__ndk1::basic_string<char, std::__ndk1::char_traits<char>, matjson::Value<char> > >, (std::__ndk1::__variant_detail::_Trait)1>::__destroy[abi:ne180000]()::{lambda(auto:1&)#1}, std::__ndk1::__variant_detail::__base<(std::__ndk1::__variant_detail::__traits<std::__ndk1::reference_wrapper<std::__ndk1::vector<matjson::Value, std::__ndk1::allocator<matjson> > const>, std::__ndk1::basic_string<char, std::__ndk1::char_traits<char>, matjson::Value<char> > >)1, std::__ndk1::vector<matjson::Value, std::__ndk1::allocator<matjson> > const, matjson::Value<char> >&>(std::__ndk1::__variant_detail::__dtor<std::__ndk1::__variant_detail::__traits<std::__ndk1::reference_wrapper<std::__ndk1::vector<matjson::Value, std::__ndk1::allocator<matjson> > const>, std::__ndk1::basic_string<char, std::__ndk1::char_traits<char>, matjson::Value<char> > >, (std::__ndk1::__variant_detail::_Trait)1>, std::__ndk1::__variant_detail::__base<(std::__ndk1::__variant_detail::__traits<std::__ndk1::reference_wrapper<std::__ndk1::vector<matjson::Value, std::__ndk1::allocator<matjson> > const>, std::__ndk1::basic_string<char, std::__ndk1::char_traits<char>, matjson::Value<char> > >)1, std::__ndk1::vector<matjson::Value, std::__ndk1::allocator<matjson> > const, matjson::Value<char> >&)
PUBLIC 3783c 0 std::__ndk1::__variant_detail::__visitation::__base::__dispatcher<(unsigned long)1>::__dispatch[abi:ne180000]<std::__ndk1::__variant_detail::__dtor<std::__ndk1::__variant_detail::__traits<std::__ndk1::reference_wrapper<std::__ndk1::vector<matjson::Value, std::__ndk1::allocator<matjson> > const>, std::__ndk1::basic_string<char, std::__ndk1::char_traits<char>, matjson::Value<char> > >, (std::__ndk1::__variant_detail::_Trait)1>::__destroy[abi:ne180000]()::{lambda(auto:1&)#1}, std::__ndk1::__variant_detail::__base<(std::__ndk1::__variant_detail::__traits<std::__ndk1::reference_wrapper<std::__ndk1::vector<matjson::Value, std::__ndk1::allocator<matjson> > const>, std::__ndk1::basic_string<char, std::__ndk1::char_traits<char>, matjson::Value<char> > >)1, std::__ndk1::vector<matjson::Value, std::__ndk1::allocator<matjson> > const, matjson::Value<char> >&>(std::__ndk1::__variant_detail::__dtor<std::__ndk1::__variant_detail::__traits<std::__ndk1::reference_wrapper<std::__ndk1::vector<matjson::Value, std::__ndk1::allocator<matjson> > const>, std::__ndk1::basic_string<char, std::__ndk1::char_traits<char>, matjson::Value<char> > >, (std::__ndk1::__variant_detail::_Trait)1>, std::__ndk1::__variant_detail::__base<(std::__ndk1::__variant_detail::__traits<std::__ndk1::reference_wrapper<std::__ndk1::vector<matjson::Value, std::__ndk1::allocator<matjson> > const>, std::__ndk1::basic_string<char, std::__ndk1::char_traits<char>, matjson::Value<char> > >)1, std::__ndk1::vector<matjson::Value, std::__ndk1::allocator<matjson> > const, matjson::Value<char> >&)
PUBLIC 37850 0 std::__ndk1::__split_buffer<SafeLevel, std::__ndk1::allocator<SafeLevel>&>::~__split_buffer()
PUBLIC 378c0 0 std::__ndk1::vector<SafeLevel, std::__ndk1::allocator<SafeLevel> >::__throw_length_error[abi:ne180000]() const
PUBLIC 378d4 0 std::__ndk1::__variant_detail::__visitation::__base::__dispatcher<(unsigned long)0>::__dispatch[abi:ne180000]<std::__ndk1::__variant_detail::__dtor<std::__ndk1::__variant_detail::__traits<std::__ndk1::reference_wrapper<std::__ndk1::vector<matjson::Value, std::__ndk1::allocator<matjson> > >, std::__ndk1::basic_string<char, std::__ndk1::char_traits<char>, matjson::Value<char> > >, (std::__ndk1::__variant_detail::_Trait)1>::__destroy[abi:ne180000]()::{lambda(auto:1&)#1}, std::__ndk1::__variant_detail::__base<(std::__ndk1::__variant_detail::__traits<std::__ndk1::reference_wrapper<std::__ndk1::vector<matjson::Value, std::__ndk1::allocator<matjson> > >, std::__ndk1::basic_string<char, std::__ndk1::char_traits<char>, matjson::Value<char> > >)1, std::__ndk1::vector<matjson::Value, std::__ndk1::allocator<matjson> >, matjson::Value<char> >&>(std::__ndk1::__variant_detail::__dtor<std::__ndk1::__variant_detail::__traits<std::__ndk1::reference_wrapper<std::__ndk1::vector<matjson::Value, std::__ndk1::allocator<matjson> > >, std::__ndk1::basic_string<char, std::__ndk1::char_traits<char>, matjson::Value<char> > >, (std::__ndk1::__variant_detail::_Trait)1>, std::__ndk1::__variant_detail::__base<(std::__ndk1::__variant_detail::__traits<std::__ndk1::reference_wrapper<std::__ndk1::vector<matjson::Value, std::__ndk1::allocator<matjson> > >, std::__ndk1::basic_string<char, std::__ndk1::char_traits<char>, matjson::Value<char> > >)1, std::__ndk1::vector<matjson::Value, std::__ndk1::allocator<matjson> >, matjson::Value<char> >&)
PUBLIC 378d8 0 std::__ndk1::__variant_detail::__visitation::__base::__dispatcher<(unsigned long)1>::__dispatch[abi:ne180000]<std::__ndk1::__variant_detail::__dtor<std::__ndk1::__variant_detail::__traits<std::__ndk1::reference_wrapper<std::__ndk1::vector<matjson::Value, std::__ndk1::allocator<matjson> > >, std::__ndk1::basic_string<char, std::__ndk1::char_traits<char>, matjson::Value<char> > >, (std::__ndk1::__variant_detail::_Trait)1>::__destroy[abi:ne180000]()::{lambda(auto:1&)#1}, std::__ndk1::__variant_detail::__base<(std::__ndk1::__variant_detail::__traits<std::__ndk1::reference_wrapper<std::__ndk1::vector<matjson::Value, std::__ndk1::allocator<matjson> > >, std::__ndk1::basic_string<char, std::__ndk1::char_traits<char>, matjson::Value<char> > >)1, std::__ndk1::vector<matjson::Value, std::__ndk1::allocator<matjson> >, matjson::Value<char> >&>(std::__ndk1::__variant_detail::__dtor<std::__ndk1::__variant_detail::__traits<std::__ndk1::reference_wrapper<std::__ndk1::vector<matjson::Value, std::__ndk1::allocator<matjson> > >, std::__ndk1::basic_string<char, std::__ndk1::char_traits<char>, matjson::Value<char> > >, (std::__ndk1::__variant_detail::_Trait)1>, std::__ndk1::__variant_detail::__base<(std::__ndk1::__variant_detail::__traits<std::__ndk1::reference_wrapper<std::__ndk1::vector<matjson::Value, std::__ndk1::allocator<matjson> > >, std::__ndk1::basic_string<char, std::__ndk1::char_traits<char>, matjson::Value<char> > >)1, std::__ndk1::vector<matjson::Value, std::__ndk1::allocator<matjson> >, matjson::Value<char> >&)
PUBLIC 378ec 0 std::__ndk1::__exception_guard_exceptions<std::__ndk1::_AllocatorDestroyRangeReverse<std::__ndk1::allocator<SafeLevel>, SafeLevel*> >::~__exception_guard_exceptions[abi:ne180000]()
PUBLIC m 37940 0 geodeImplicitEntry
PUBLIC 3797c 0 std::__ndk1::unordered_map<void*, bool, std::__ndk1::hash<void*>, std::__ndk1::equal_to<void*>, std::__ndk1::allocator<std::__ndk1::pair<void* const, bool> > >::~unordered_map[abi:ne180000]()
PUBLIC 379c8 0 wrapFunction(unsigned long, tulip::hook::WrapperMetadata const&)
PUBLIC 37afc 0 geode::impl::ResultData<void*, std::__ndk1::basic_string<char, std::__ndk1::char_traits<char>, std::__ndk1::allocator<char> > >::unwrapErr() &
PUBLIC 37b74 0 geode::impl::ResultData<void*, std::__ndk1::basic_string<char, std::__ndk1::char_traits<char>, std::__ndk1::allocator<char> > >::~ResultData()
PUBLIC 37be8 0 tulip::hook::WrapperMetadata::~WrapperMetadata()
PUBLIC 37c4c 0 cocos2d::CCObject::CCObject()
PUBLIC 37e70 0 cocos2d::CCObject::~CCObject()
PUBLIC 37e94 0 cocos2d::CCNode::~CCNode()
PUBLIC 37eb8 0 cocos2d::CCLayer::CCLayer()
PUBLIC 3813c 0 {virtual override thunk({offset(-320)}, cocos2d::CCLayer::~CCLayer())}
PUBLIC 38144 0 cocos2d::CCLayer::~CCLayer()
PUBLIC 38168 0 {virtual override thunk({offset(-320)}, cocos2d::CCLayer::~CCLayer())}
PUBLIC 38190 0 cocos2d::CCLayerRGBA::~CCLayerRGBA()
PUBLIC 38490 0 {virtual override thunk({offset(-320)}, cocos2d::CCLayerRGBA::~CCLayerRGBA())}
PUBLIC 38498 0 cocos2d::CCLayerRGBA::~CCLayerRGBA()
PUBLIC 384bc 0 {virtual override thunk({offset(-320)}, cocos2d::CCLayerRGBA::~CCLayerRGBA())}
PUBLIC 384e4 0 cocos2d::CCLayerColor::CCLayerColor()
PUBLIC 38748 0 {virtual override thunk({offset(-320)}, cocos2d::CCLayerColor::~CCLayerColor())}
PUBLIC 38750 0 cocos2d::CCLayerColor::~CCLayerColor()
PUBLIC 38774 0 {virtual override thunk({offset(-320)}, cocos2d::CCLayerColor::~CCLayerColor())}
PUBLIC 3879c 0 cocos2d::CCDictionary::objectForKey(gd::string const&)
PUBLIC 388ec 0 tulip::hook::AbstractFunction::from<cocos2d::CCObject*, cocos2d::CCDictionary*, gd::string const&>(cocos2d::CCObject* (*)(cocos2d::CCDictionary*, gd::string const&))
PUBLIC 38994 0 {virtual override thunk({offset(-320)}, FLAlertLayer::~FLAlertLayer())}
PUBLIC 3899c 0 FLAlertLayer::~FLAlertLayer()
PUBLIC 389c0 0 {virtual override thunk({offset(-320)}, FLAlertLayer::~FLAlertLayer())}
PUBLIC 389e8 0 FLAlertLayer::create(FLAlertLayerProtocol*, char const*, gd::string, char const*, char const*, float)
PUBLIC 38ba0 0 tulip::hook::AbstractFunction::from<FLAlertLayer*, FLAlertLayerProtocol*, char const*, gd::string, char const*, char const*, float>(FLAlertLayer* (*)(FLAlertLayerProtocol*, char const*, gd::string, char const*, char const*, float))
PUBLIC 38d0c 0 GJSearchObject::create(SearchType, gd::string)
PUBLIC 38e8c 0 tulip::hook::AbstractFunction::from<GJSearchObject*, SearchType, gd::string>(GJSearchObject* (*)(SearchType, gd::string))
PUBLIC 38f30 0 cocos2d::CCLayerColor::~CCLayerColor()
PUBLIC 39214 0 FLAlertLayer::~FLAlertLayer()
PUBLIC 394f8 0 cocos2d::CCNode::~CCNode()
PUBLIC 39798 0 cocos2d::CCLayer::~CCLayer()
PUBLIC 39a88 0 cocos2d::CCObject::~CCObject()
PUBLIC 39f7c 0 _ZN5geode15UnwrapExceptionC2IRPvQsr4implE18IsStringStreamableIT_EEENS_4impl5OkTagEOS4_
PUBLIC 3a0d0 0 std::__ndk1::__variant_detail::__visitation::__base::__dispatcher<(unsigned long)0>::__dispatch[abi:ne180000]<std::__ndk1::__variant_detail::__dtor<std::__ndk1::__variant_detail::__traits<void*, std::__ndk1::basic_string<char, std::__ndk1::char_traits<char>, std::__ndk1::allocator<char> > >, (std::__ndk1::__variant_detail::_Trait)1>::__destroy[abi:ne180000]()::{lambda(auto:1&)#1}, std::__ndk1::__variant_detail::__base<(std::__ndk1::__variant_detail::__traits<void*, std::__ndk1::basic_string<char, std::__ndk1::char_traits<char>, std::__ndk1::allocator<char> > >)1, std::__ndk1::__variant_detail::__traits, std::__ndk1::allocator<char> >&>(std::__ndk1::__variant_detail::__dtor<std::__ndk1::__variant_detail::__traits<void*, std::__ndk1::basic_string<char, std::__ndk1::char_traits<char>, std::__ndk1::allocator<char> > >, (std::__ndk1::__variant_detail::_Trait)1>, std::__ndk1::__variant_detail::__base<(std::__ndk1::__variant_detail::__traits<void*, std::__ndk1::basic_string<char, std::__ndk1::char_traits<char>, std::__ndk1::allocator<char> > >)1, std::__ndk1::__variant_detail::__traits, std::__ndk1::allocator<char> >&)
PUBLIC 3a0d4 0 std::__ndk1::__variant_detail::__visitation::__base::__dispatcher<(unsigned long)1>::__dispatch[abi:ne180000]<std::__ndk1::__variant_detail::__dtor<std::__ndk1::__variant_detail::__traits<void*, std::__ndk1::basic_string<char, std::__ndk1::char_traits<char>, std::__ndk1::allocator<char> > >, (std::__ndk1::__variant_detail::_Trait)1>::__destroy[abi:ne180000]()::{lambda(auto:1&)#1}, std::__ndk1::__variant_detail::__base<(std::__ndk1::__variant_detail::__traits<void*, std::__ndk1::basic_string<char, std::__ndk1::char_traits<char>, std::__ndk1::allocator<char> > >)1, std::__ndk1::__variant_detail::__traits, std::__ndk1::allocator<char> >&>(std::__ndk1::__variant_detail::__dtor<std::__ndk1::__variant_detail::__traits<void*, std::__ndk1::basic_string<char, std::__ndk1::char_traits<char>, std::__ndk1::allocator<char> > >, (std::__ndk1::__variant_detail::_Trait)1>, std::__ndk1::__variant_detail::__base<(std::__ndk1::__variant_detail::__traits<void*, std::__ndk1::basic_string<char, std::__ndk1::char_traits<char>, std::__ndk1::allocator<char> > >)1, std::__ndk1::__variant_detail::__traits, std::__ndk1::allocator<char> >&)
PUBLIC 3a0e8 0 std::__ndk1::__hash_table<std::__ndk1::__hash_value_type<void*, bool>, std::__ndk1::__unordered_map_hasher<void*, std::__ndk1::__hash_value_type<void*, bool>, std::__ndk1::hash<void*>, std::__ndk1::equal_to<void*>, true>, std::__ndk1::__unordered_map_equal<void*, std::__ndk1::__hash_value_type<void*, bool>, std::__ndk1::equal_to<void*>, std::__ndk1::hash<void*>, true>, std::__ndk1::allocator<std::__ndk1::__hash_value_type<void*, bool> > >::__emplace_unique_key_args<void*, std::__ndk1::piecewise_construct_t const&, std::__ndk1::tuple<void* const&>, std::__ndk1::tuple<> >(void* const&, std::__ndk1::piecewise_construct_t const&, std::__ndk1::tuple<void* const&>, std::__ndk1::tuple<>)
PUBLIC 3a5f4 0 __udivti3
PUBLIC 3a600 0 __udivmodti4
PUBLIC m 3a84c 0 __eqtf2
PUBLIC 3a8ec 0 __unordtf2
PUBLIC 3a924 0 fmt::v11::detail::write_loc(fmt::v11::basic_appender<char>, fmt::v11::loc_value, fmt::v11::format_specs const&, fmt::v11::detail::locale_ref)
PUBLIC 3abb8 0 fmt::v11::format_facet<std::__ndk1::locale>::~format_facet()
PUBLIC 3ac34 0 fmt::v11::report_error(char const*)
PUBLIC 3ac84 0 fmt::v11::format_error::runtime_error(char const*)
PUBLIC 3acb0 0 fmt::v11::format_facet<std::__ndk1::locale>::do_put(fmt::v11::basic_appender<char>, fmt::v11::loc_value, fmt::v11::format_specs const&) const
PUBLIC 3b470 0 fmt::v11::detail::loc_writer<char>::~loc_writer()
PUBLIC 3b4d4 0 fmt::v11::detail::vformat_to<char>(fmt::v11::detail::buffer<char>&, fmt::v11::basic_string_view<char>, fmt::v11::detail::vformat_args<char>::type, fmt::v11::detail::locale_ref)
PUBLIC 3ba44 0 fmt::v11::detail::is_printable(unsigned int)
PUBLIC 3bc6c 0 fmt::v11::detail::dragonbox::to_decimal<float>(float)
PUBLIC 3bf48 0 fmt::v11::detail::dragonbox::to_decimal<double>(double)
PUBLIC 3c484 0 fmt::v11::basic_memory_buffer<char, (unsigned long)500, std::__ndk1::allocator<char> >::grow(fmt::v11::detail::buffer<char>&, unsigned long)
PUBLIC 3c4fc 0 fmt::v11::format_facet<std::__ndk1::locale>::~format_facet()
PUBLIC 3c588 0 fmt::v11::format_error::~format_error()
PUBLIC 3c5ac 0 fmt::v11::detail::copy_noinline<char, char const*, fmt::v11::basic_appender<char> >(char const*, char const*, fmt::v11::basic_appender<char>)
PUBLIC 3c6fc 0 fmt::v11::detail::default_arg_formatter<char>::operator()<bool>(bool)
PUBLIC 3c764 0 fmt::v11::detail::default_arg_formatter<char>::operator()<char>(char)
PUBLIC 3c7f4 0 fmt::v11::detail::default_arg_formatter<char>::operator()<float>(float)
PUBLIC 3c8e0 0 fmt::v11::detail::default_arg_formatter<char>::operator()<double>(double)
PUBLIC 3c9cc 0 fmt::v11::detail::default_arg_formatter<char>::operator()<char const*>(char const*)
PUBLIC 3ca14 0 fmt::v11::detail::default_arg_formatter<char>::operator()<void const*>(void const*)
PUBLIC 3caac 0 _ZN3fmt3v116detail5writeIcNS0_14basic_appenderIcEEiTnNSt6__ndk19enable_ifIXaaaasr11is_integralIT1_EE5valuentsr3std7is_sameIS7_bEE5valuentsr3std7is_sameIS7_T_EE5valueEiE4typeELi0EEET0_SB_S7_
PUBLIC 3cd0c 0 fmt::v11::detail::copy_noinline<char, char*, fmt::v11::basic_appender<char> >(char*, char*, fmt::v11::basic_appender<char>)
PUBLIC 3ce5c 0 _ZN3fmt3v116detail5writeIcNS0_14basic_appenderIcEEjTnNSt6__ndk19enable_ifIXaaaasr11is_integralIT1_EE5valuentsr3std7is_sameIS7_bEE5valuentsr3std7is_sameIS7_T_EE5valueEiE4typeELi0EEET0_SB_S7_
PUBLIC 3d03c 0 _ZN3fmt3v116detail5writeIcNS0_14basic_appenderIcEExTnNSt6__ndk19enable_ifIXaaaasr11is_integralIT1_EE5valuentsr3std7is_sameIS7_bEE5valuentsr3std7is_sameIS7_T_EE5valueEiE4typeELi0EEET0_SB_S7_
PUBLIC 3d2c0 0 _ZN3fmt3v116detail5writeIcNS0_14basic_appenderIcEEyTnNSt6__ndk19enable_ifIXaaaasr11is_integralIT1_EE5valuentsr3std7is_sameIS7_bEE5valuentsr3std7is_sameIS7_T_EE5valueEiE4typeELi0EEET0_SB_S7_
PUBLIC 3d4c8 0 _ZN3fmt3v116detail5writeIcNS0_14basic_appenderIcEEnTnNSt6__ndk19enable_ifIXaaaasr11is_integralIT1_EE5valuentsr3std7is_sameIS7_bEE5valuentsr3std7is_sameIS7_T_EE5valueEiE4typeELi0EEET0_SB_S7_
PUBLIC 3d828 0 _ZN3fmt3v116detail5writeIcNS0_14basic_appenderIcEEoTnNSt6__ndk19enable_ifIXaaaasr11is_integralIT1_EE5valuentsr3std7is_sameIS7_bEE5valuentsr3std7is_sameIS7_T_EE5valueEiE4typeELi0EEET0_SB_S7_
PUBLIC 3db3c 0 _ZN3fmt3v116detail5writeIcNS0_14basic_appenderIcEEbTnNSt6__ndk19enable_ifIXsr3std7is_sameIT1_bEE5valueEiE4typeELi0EEET0_SA_S7_RKNS0_12format_specsENS1_10locale_refE
PUBLIC 3ddcc 0 fmt::v11::detail::write_int_noinline<char, fmt::v11::basic_appender<char>, unsigned int>(fmt::v11::basic_appender<char>, fmt::v11::detail::write_int_arg<unsigned int>, fmt::v11::format_specs const&, fmt::v11::detail::locale_ref)
PUBLIC 3eba8 0 fmt::v11::detail::fill<char, fmt::v11::basic_appender<char> >(fmt::v11::basic_appender<char>, unsigned long, fmt::v11::detail::fill_t const&)
PUBLIC 3ed78 0 fmt::v11::detail::write_padded<char, (fmt::v11::align::type)1, fmt::v11::basic_appender<char>, fmt::v11::detail::write_char<char, fmt::v11::basic_appender<char> >(fmt::v11::basic_appender<char>, char, fmt::v11::format_specs const&)::{lambda(fmt::v11::basic_appender<char>&)#1}>(fmt::v11::basic_appender<char>, fmt::v11::format_specs const&, unsigned long, unsigned long, fmt::v11::detail::write_char<char, fmt::v11::basic_appender<char> >(fmt::v11::basic_appender<char>, char, fmt::v11::format_specs const&)::{lambda(fmt::v11::basic_appender<char>&)#1})
PUBLIC 3efb4 0 fmt::v11::detail::write_escaped_cp<fmt::v11::basic_appender<char>, char>(fmt::v11::basic_appender<char>, fmt::v11::detail::find_escape_result<char> const&)
PUBLIC 3f2c0 0 fmt::v11::detail::write_codepoint<(unsigned long)2, char, fmt::v11::basic_appender<char> >(fmt::v11::basic_appender<char>, char, unsigned int)
PUBLIC 3f438 0 fmt::v11::detail::write_codepoint<(unsigned long)8, char, fmt::v11::basic_appender<char> >(fmt::v11::basic_appender<char>, char, unsigned int)
PUBLIC 3f5b0 0 fmt::v11::detail::write_padded<char, (fmt::v11::align::type)1, fmt::v11::basic_appender<char>, fmt::v11::detail::write_nonfinite<char, fmt::v11::basic_appender<char> >(fmt::v11::basic_appender<char>, bool, fmt::v11::format_specs, fmt::v11::sign::type)::{lambda(fmt::v11::basic_appender<char>&)#1}>(fmt::v11::basic_appender<char>, fmt::v11::format_specs const&, unsigned long, unsigned long, fmt::v11::detail::write_nonfinite<char, fmt::v11::basic_appender<char> >(fmt::v11::basic_appender<char>, bool, fmt::v11::format_specs, fmt::v11::sign::type)::{lambda(fmt::v11::basic_appender<char>&)#1})
PUBLIC 3f7f0 0 fmt::v11::detail::do_write_float<char, fmt::v11::basic_appender<char>, fmt::v11::detail::dragonbox::decimal_fp<float>, fmt::v11::detail::digit_grouping<char> >(fmt::v11::basic_appender<char>, fmt::v11::detail::dragonbox::decimal_fp<float> const&, fmt::v11::format_specs const&, fmt::v11::detail::float_specs, fmt::v11::detail::locale_ref)
PUBLIC 40464 0 fmt::v11::detail::do_write_float<char, fmt::v11::basic_appender<char>, fmt::v11::detail::dragonbox::decimal_fp<float>, fmt::v11::detail::digit_grouping<char> >(fmt::v11::basic_appender<char>, fmt::v11::detail::dragonbox::decimal_fp<float> const&, fmt::v11::format_specs const&, fmt::v11::detail::float_specs, fmt::v11::detail::locale_ref)::{lambda(fmt::v11::basic_appender<char>(fmt::v11::basic_appender<char>))#1}::operator() const
PUBLIC 405b8 0 fmt::v11::detail::digit_grouping<char>::digit_grouping(fmt::v11::detail::locale_ref, bool)
PUBLIC 40824 0 fmt::v11::detail::digit_grouping<char>::~digit_grouping()
PUBLIC 40868 0 fmt::v11::detail::write_exponent<char, fmt::v11::basic_appender<char> >(int, fmt::v11::basic_appender<char>)
PUBLIC 40a38 0 _ZN3fmt3v116detail17write_significandIcjTnNSt6__ndk19enable_ifIXsr3std11is_integralIT0_EE5valueEiE4typeELi0EEEPT_S9_S5_iiS8_
PUBLIC 40bb4 0 std::__ndk1::basic_string<char, std::__ndk1::char_traits<char>, std::__ndk1::allocator<char> >::__assign_no_alias<true>(char const*, unsigned long)
PUBLIC 40c60 0 std::__ndk1::basic_string<char, std::__ndk1::char_traits<char>, std::__ndk1::allocator<char> >::__assign_no_alias<false>(char const*, unsigned long)
PUBLIC 40d70 0 fmt::v11::detail::digit_grouping<char>::apply<fmt::v11::basic_appender<char>, char>(fmt::v11::basic_appender<char>, fmt::v11::basic_string_view<char>) const
PUBLIC 41128 0 fmt::v11::basic_memory_buffer<int, (unsigned long)500, std::__ndk1::allocator<int> >::grow(fmt::v11::detail::buffer<int>&, unsigned long)
PUBLIC 411c8 0 fmt::v11::detail::do_write_float<char, fmt::v11::basic_appender<char>, fmt::v11::detail::dragonbox::decimal_fp<double>, fmt::v11::detail::digit_grouping<char> >(fmt::v11::basic_appender<char>, fmt::v11::detail::dragonbox::decimal_fp<double> const&, fmt::v11::format_specs const&, fmt::v11::detail::float_specs, fmt::v11::detail::locale_ref)
PUBLIC 41e7c 0 fmt::v11::detail::do_write_float<char, fmt::v11::basic_appender<char>, fmt::v11::detail::dragonbox::decimal_fp<double>, fmt::v11::detail::digit_grouping<char> >(fmt::v11::basic_appender<char>, fmt::v11::detail::dragonbox::decimal_fp<double> const&, fmt::v11::format_specs const&, fmt::v11::detail::float_specs, fmt::v11::detail::locale_ref)::{lambda(fmt::v11::basic_appender<char>(fmt::v11::basic_appender<char>))#1}::operator() const
PUBLIC 41fd4 0 _ZN3fmt3v116detail17write_significandIcmTnNSt6__ndk19enable_ifIXsr3std11is_integralIT0_EE5valueEiE4typeELi0EEEPT_S9_S5_iiS8_
PUBLIC 42164 0 fmt::v11::detail::write_float<char, fmt::v11::basic_appender<char>, long double>(fmt::v11::basic_appender<char>, long double, fmt::v11::format_specs, fmt::v11::detail::locale_ref)
PUBLIC 42c60 0 fmt::v11::detail::write_padded<char, (fmt::v11::align::type)2, fmt::v11::basic_appender<char>, fmt::v11::detail::write_bytes<char, (fmt::v11::align::type)2, fmt::v11::basic_appender<char> >(fmt::v11::basic_appender<char>, fmt::v11::basic_string_view<char>, fmt::v11::format_specs const&)::{lambda(fmt::v11::basic_appender<char>&)#1}>(fmt::v11::basic_appender<char>, fmt::v11::format_specs const&, unsigned long, unsigned long, fmt::v11::detail::write_bytes<char, (fmt::v11::align::type)2, fmt::v11::basic_appender<char> >(fmt::v11::basic_appender<char>, fmt::v11::basic_string_view<char>, fmt::v11::format_specs const&)::{lambda(fmt::v11::basic_appender<char>&)#1})
PUBLIC 42e3c 0 fmt::v11::detail::format_dragon(fmt::v11::detail::basic_fp<unsigned __int128>, unsigned int, int, fmt::v11::detail::buffer<char>&, int&)
PUBLIC 4426c 0 fmt::v11::detail::bigint::operator<<=(int)
PUBLIC 44390 0 fmt::v11::detail::bigint::assign_pow10(int)
PUBLIC 44aec 0 fmt::v11::detail::bigint::divmod_assign(fmt::v11::detail::bigint const&)
PUBLIC 44e0c 0 fmt::v11::basic_memory_buffer<unsigned int, (unsigned long)32, std::__ndk1::allocator<unsigned int> >::grow(fmt::v11::detail::buffer<unsigned int>&, unsigned long)
PUBLIC 44eac 0 fmt::v11::detail::do_write_float<char, fmt::v11::basic_appender<char>, fmt::v11::detail::big_decimal_fp, fmt::v11::detail::digit_grouping<char> >(fmt::v11::basic_appender<char>, fmt::v11::detail::big_decimal_fp const&, fmt::v11::format_specs const&, fmt::v11::detail::float_specs, fmt::v11::detail::locale_ref)
PUBLIC 45d5c 0 fmt::v11::detail::do_write_float<char, fmt::v11::basic_appender<char>, fmt::v11::detail::big_decimal_fp, fmt::v11::detail::digit_grouping<char> >(fmt::v11::basic_appender<char>, fmt::v11::detail::big_decimal_fp const&, fmt::v11::format_specs const&, fmt::v11::detail::float_specs, fmt::v11::detail::locale_ref)::{lambda(fmt::v11::basic_appender<char>(fmt::v11::basic_appender<char>))#1}::operator() const
PUBLIC 45ebc 0 fmt::v11::detail::write_padded<char, (fmt::v11::align::type)2, fmt::v11::basic_appender<char>, fmt::v11::detail::write_ptr<char, fmt::v11::basic_appender<char>, unsigned long>(fmt::v11::basic_appender<char>, unsigned long, fmt::v11::format_specs const*)::{lambda(fmt::v11::basic_appender<char>&)#1}>(fmt::v11::basic_appender<char>, fmt::v11::format_specs const&, unsigned long, unsigned long, fmt::v11::detail::write_ptr<char, fmt::v11::basic_appender<char>, unsigned long>(fmt::v11::basic_appender<char>, unsigned long, fmt::v11::format_specs const*)::{lambda(fmt::v11::basic_appender<char>&)#1})
PUBLIC 460d0 0 fmt::v11::detail::parse_replacement_field<char, fmt::v11::detail::vformat_to<char>(fmt::v11::detail::buffer<char>&, fmt::v11::basic_string_view<char>, fmt::v11::detail::vformat_args<char>::type, fmt::v11::detail::locale_ref)::format_handler&>(char const*, char const*, fmt::v11::detail::vformat_to<char>(fmt::v11::detail::buffer<char>&, fmt::v11::basic_string_view<char>, fmt::v11::detail::vformat_args<char>::type, fmt::v11::detail::locale_ref)::format_handler&)
PUBLIC 47d6c 0 fmt::v11::detail::parse_dynamic_spec<char>(char const*, char const*, int&, fmt::v11::detail::arg_ref<char>&, fmt::v11::basic_format_parse_context<char>&)
PUBLIC 47ffc 0 fmt::v11::basic_format_args<fmt::v11::context>::get<char>(fmt::v11::basic_string_view<char>) const
PUBLIC 48154 0 fmt::v11::detail::write_int_noinline<char, fmt::v11::basic_appender<char>, unsigned long>(fmt::v11::basic_appender<char>, fmt::v11::detail::write_int_arg<unsigned long>, fmt::v11::format_specs const&, fmt::v11::detail::locale_ref)
PUBLIC 48fa8 0 fmt::v11::detail::write_int_noinline<char, fmt::v11::basic_appender<char>, unsigned __int128>(fmt::v11::basic_appender<char>, fmt::v11::detail::write_int_arg<unsigned __int128>, fmt::v11::format_specs const&, fmt::v11::detail::locale_ref)
PUBLIC 4a010 0 _ZN3fmt3v116detail15format_hexfloatIdTnNSt6__ndk19enable_ifIXntsr16is_double_doubleIT_EE5valueEiE4typeELi0EEEvS5_NS0_12format_specsERNS1_6bufferIcEE
PUBLIC 4a530 0 fmt::v11::detail::format_float<double>(double, int, fmt::v11::detail::float_specs, fmt::v11::detail::buffer<char>&)
PUBLIC 4aed0 0 fmt::v11::detail::write<char, fmt::v11::basic_appender<char> >(fmt::v11::basic_appender<char>, fmt::v11::basic_string_view<char>, fmt::v11::format_specs const&)
PUBLIC 4c23c 0 fmt::v11::detail::for_each_codepoint<fmt::v11::detail::compute_width(fmt::v11::basic_string_view<char>)::count_code_points>(fmt::v11::basic_string_view<char>, fmt::v11::detail::compute_width(fmt::v11::basic_string_view<char>)::count_code_points)::{lambda(char const*, char const*)#1}::operator()(char const*, char const*) const
PUBLIC 4c3f4 0 fmt::v11::detail::write_int<fmt::v11::basic_appender<char>, unsigned long, char>(fmt::v11::basic_appender<char>, unsigned long, unsigned int, fmt::v11::format_specs const&, fmt::v11::detail::digit_grouping<char> const&)
PUBLIC 4c970 0 fmt::v11::detail::write_int<fmt::v11::basic_appender<char>, unsigned __int128, char>(fmt::v11::basic_appender<char>, unsigned __int128, unsigned int, fmt::v11::format_specs const&, fmt::v11::detail::digit_grouping<char> const&)
PUBLIC 4cff0 0 <.plt ELF section in hiimjustin000.better_safe.android64.so>
STACK CFI INIT 24180 10 .cfa: sp 0 +
STACK CFI INIT 24190 8 .cfa: sp 0 +
STACK CFI INIT 24198 8 .cfa: sp 0 +
STACK CFI INIT 241a0 14 .cfa: sp 0 +
STACK CFI INIT 241b4 1c .cfa: sp 0 +
STACK CFI INIT 241d0 10 .cfa: sp 0 +
STACK CFI INIT 241e0 30 .cfa: sp 0 +
STACK CFI INIT 24210 98 .cfa: sp 0 +
STACK CFI INIT 242a8 59c .cfa: sp 0 +
STACK CFI INIT 24844 8c .cfa: sp 0 +
STACK CFI INIT 248d0 30 .cfa: sp 0 +
STACK CFI INIT 24900 5c .cfa: sp 0 +
STACK CFI 24904 .cfa: sp 16 +
STACK CFI 24908 .cfa: x29 16 + .ra: .cfa -8 + ^ x29: .cfa -16 + ^
STACK CFI 2494c .cfa: sp 16 +
STACK CFI 24950 .cfa: sp 0 +
STACK CFI 24954 .cfa: sp 16 +
STACK CFI 24958 .cfa: sp 0 +
STACK CFI INIT 2495c 88 .cfa: sp 0 +
STACK CFI 24960 .cfa: sp 48 +
STACK CFI 2496c .cfa: x29 48 + x19: .cfa -8 + ^ x20: .cfa -16 + ^ x21: .cfa -32 + ^ .ra: .cfa -40 + ^ x29: .cfa -48 + ^
STACK CFI 2498c .cfa: sp 48 +
STACK CFI 24998 .cfa: sp 0 +
STACK CFI 2499c .cfa: x29 48 +
STACK CFI 249c4 .cfa: sp 48 +
STACK CFI 249d0 .cfa: sp 0 +
STACK CFI 249d4 .cfa: sp 48 +
STACK CFI 249e0 .cfa: sp 0 +
STACK CFI INIT 249e4 5c .cfa: sp 0 +
STACK CFI 249e8 .cfa: sp 16 +
STACK CFI 249ec .cfa: x29 16 + .ra: .cfa -8 + ^ x29: .cfa -16 + ^
STACK CFI 24a30 .cfa: sp 16 +
STACK CFI 24a34 .cfa: sp 0 +
STACK CFI 24a38 .cfa: sp 16 +
STACK CFI 24a3c .cfa: sp 0 +
STACK CFI INIT 24a40 5c .cfa: sp 0 +
STACK CFI 24a44 .cfa: sp 16 +
STACK CFI 24a48 .cfa: x29 16 + .ra: .cfa -8 + ^ x29: .cfa -16 + ^
STACK CFI 24a8c .cfa: sp 16 +
STACK CFI 24a90 .cfa: sp 0 +
STACK CFI 24a94 .cfa: sp 16 +
STACK CFI 24a98 .cfa: sp 0 +
STACK CFI INIT 24b54 18 .cfa: sp 0 +
STACK CFI INIT 25124 7c .cfa: sp 0 +
STACK CFI 25128 .cfa: sp 48 +
STACK CFI 25134 .cfa: x29 48 + x19: .cfa -8 + ^ x20: .cfa -16 + ^ x21: .cfa -32 + ^ .ra: .cfa -40 + ^ x29: .cfa -48 + ^
STACK CFI 25180 .cfa: sp 48 +
STACK CFI 2518c .cfa: sp 0 +
STACK CFI 25190 .cfa: sp 48 +
STACK CFI 2519c .cfa: sp 0 +
STACK CFI INIT 27224 40 .cfa: sp 0 +
STACK CFI 27228 .cfa: sp 32 +
STACK CFI 27230 .cfa: x29 32 + x19: .cfa -8 + ^ x20: .cfa -16 + ^ .ra: .cfa -24 + ^ x29: .cfa -32 + ^
STACK CFI 27258 .cfa: sp 32 +
STACK CFI 27260 .cfa: sp 0 +
STACK CFI INIT 28418 40 .cfa: sp 0 +
STACK CFI 2841c .cfa: sp 32 +
STACK CFI 28424 .cfa: x29 32 + x19: .cfa -8 + ^ x20: .cfa -16 + ^ .ra: .cfa -24 + ^ x29: .cfa -32 + ^
STACK CFI 2844c .cfa: sp 32 +
STACK CFI 28454 .cfa: sp 0 +
STACK CFI INIT 289a8 10 .cfa: sp 0 +
STACK CFI 289ac .cfa: sp 16 +
STACK CFI 289b0 .cfa: x29 16 + .ra: .cfa -8 + ^ x29: .cfa -16 + ^
STACK CFI INIT 289b8 9c .cfa: sp 0 +
STACK CFI 289bc .cfa: sp 32 +
STACK CFI 289c4 .cfa: x29 32 + x19: .cfa -8 + ^ x20: .cfa -16 + ^ .ra: .cfa -24 + ^ x29: .cfa -32 + ^
STACK CFI 28a48 .cfa: sp 32 +
STACK CFI 28a50 .cfa: sp 0 +
STACK CFI INIT 28a54 8 .cfa: sp 0 +
STACK CFI INIT 28a5c 24 .cfa: sp 0 +
STACK CFI 28a60 .cfa: sp 32 +
STACK CFI 28a68 .cfa: x29 32 + x19: .cfa -16 + ^ .ra: .cfa -24 + ^ x29: .cfa -32 + ^
STACK CFI 28a74 .cfa: sp 32 +
STACK CFI 28a7c .cfa: sp 0 +
STACK CFI INIT 28a80 28 .cfa: sp 0 +
STACK CFI 28a84 .cfa: sp 32 +
STACK CFI 28a8c .cfa: x29 32 + x19: .cfa -16 + ^ .ra: .cfa -24 + ^ x29: .cfa -32 + ^
STACK CFI 28a9c .cfa: sp 32 +
STACK CFI 28aa4 .cfa: sp 0 +
STACK CFI INIT 28aa8 8 .cfa: sp 0 +
STACK CFI INIT 28ab0 2c .cfa: sp 0 +
STACK CFI 28ab4 .cfa: sp 32 +
STACK CFI 28abc .cfa: x29 32 + x19: .cfa -16 + ^ .ra: .cfa -24 + ^ x29: .cfa -32 + ^
STACK CFI 28ad0 .cfa: sp 32 +
STACK CFI 28ad8 .cfa: sp 0 +
STACK CFI INIT 28adc 28 .cfa: sp 0 +
STACK CFI INIT 28b04 4 .cfa: sp 0 +
STACK CFI INIT 28b08 8 .cfa: sp 0 +
STACK CFI INIT 28c58 c .cfa: sp 0 +
STACK CFI INIT 28c64 c .cfa: sp 0 +
STACK CFI INIT 28c70 4 .cfa: sp 0 +
STACK CFI INIT 28c74 2c .cfa: sp 0 +
STACK CFI INIT 28ca0 4 .cfa: sp 0 +
STACK CFI INIT 28ca4 4 .cfa: sp 0 +
STACK CFI INIT 28ca8 4 .cfa: sp 0 +
STACK CFI INIT 28cac 4 .cfa: sp 0 +
STACK CFI INIT 28cb0 4 .cfa: sp 0 +
STACK CFI INIT 28cb4 8 .cfa: sp 0 +
STACK CFI INIT 28cbc 10 .cfa: sp 0 +
STACK CFI INIT 28ccc 10 .cfa: sp 0 +
STACK CFI INIT 28cdc 4 .cfa: sp 0 +
STACK CFI INIT 28d30 30 .cfa: sp 0 +
STACK CFI 28d34 .cfa: sp 32 +
STACK CFI 28d3c .cfa: x29 32 + x19: .cfa -16 + ^ .ra: .cfa -24 + ^ x29: .cfa -32 + ^
STACK CFI 28d54 .cfa: sp 32 +
STACK CFI 28d5c .cfa: sp 0 +
STACK CFI INIT 28d60 34 .cfa: sp 0 +
STACK CFI 28d64 .cfa: sp 32 +
STACK CFI 28d6c .cfa: x29 32 + x19: .cfa -16 + ^ .ra: .cfa -24 + ^ x29: .cfa -32 + ^
STACK CFI INIT 28d94 14 .cfa: sp 0 +
STACK CFI 28d98 .cfa: sp 16 +
STACK CFI 28d9c .cfa: x29 16 + .ra: .cfa -8 + ^ x29: .cfa -16 + ^
STACK CFI INIT 28da8 8c .cfa: sp 0 +
STACK CFI 28dac .cfa: sp 48 +
STACK CFI 28db8 .cfa: x29 48 + x19: .cfa -8 + ^ x20: .cfa -16 + ^ x21: .cfa -24 + ^ x22: .cfa -32 + ^ .ra: .cfa -40 + ^ x29: .cfa -48 + ^
STACK CFI 28dc0 .cfa: sp 48 +
STACK CFI 28dcc .cfa: sp 0 +
STACK CFI 28dd0 .cfa: x29 48 +
STACK CFI 28e24 .cfa: sp 48 +
STACK CFI 28e30 .cfa: sp 0 +
STACK CFI INIT 28e34 14 .cfa: sp 0 +
STACK CFI 28e38 .cfa: sp 16 +
STACK CFI 28e3c .cfa: x29 16 + .ra: .cfa -8 + ^ x29: .cfa -16 + ^
STACK CFI INIT 28e48 60 .cfa: sp 0 +
STACK CFI 28e58 .cfa: sp 32 +
STACK CFI 28e60 .cfa: x29 32 + x19: .cfa -8 + ^ x20: .cfa -16 + ^ .ra: .cfa -24 + ^ x29: .cfa -32 + ^
STACK CFI 28e9c .cfa: sp 32 +
STACK CFI 28ea4 .cfa: sp 0 +
STACK CFI INIT 28ea8 80 .cfa: sp 0 +
STACK CFI 28eac .cfa: sp 48 +
STACK CFI 28eb8 .cfa: x29 48 + x19: .cfa -8 + ^ x20: .cfa -16 + ^ x21: .cfa -24 + ^ x22: .cfa -32 + ^ .ra: .cfa -40 + ^ x29: .cfa -48 + ^
STACK CFI 28ed0 .cfa: sp 48 +
STACK CFI 28edc .cfa: sp 0 +
STACK CFI 28ee0 .cfa: x29 48 +
STACK CFI 28f10 .cfa: sp 48 +
STACK CFI 28f1c .cfa: sp 0 +
STACK CFI 28f20 .cfa: x29 48 +
STACK CFI INIT 28f28 50 .cfa: sp 0 +
STACK CFI 28f2c .cfa: sp 32 +
STACK CFI 28f34 .cfa: x29 32 + x19: .cfa -16 + ^ .ra: .cfa -24 + ^ x29: .cfa -32 + ^
STACK CFI 28f4c .cfa: sp 32 +
STACK CFI 28f54 .cfa: sp 0 +
STACK CFI 28f58 .cfa: x29 32 +
STACK CFI 28f6c .cfa: sp 32 +
STACK CFI 28f74 .cfa: sp 0 +
STACK CFI INIT 28fe4 4 .cfa: sp 0 +
STACK CFI INIT 29054 4 .cfa: sp 0 +
STACK CFI INIT 29274 4 .cfa: sp 0 +
STACK CFI INIT 29444 a4 .cfa: sp 0 +
STACK CFI 29448 .cfa: sp 32 +
STACK CFI 29450 .cfa: x29 32 + x19: .cfa -8 + ^ x20: .cfa -16 + ^ .ra: .cfa -24 + ^ x29: .cfa -32 + ^
STACK CFI 294dc .cfa: sp 32 +
STACK CFI 294e4 .cfa: sp 0 +
STACK CFI INIT 294e8 50 .cfa: sp 0 +
STACK CFI 294ec .cfa: sp 32 +
STACK CFI 294f4 .cfa: x29 32 + x19: .cfa -16 + ^ .ra: .cfa -24 + ^ x29: .cfa -32 + ^
STACK CFI 2950c .cfa: sp 32 +
STACK CFI 29514 .cfa: sp 0 +
STACK CFI 29518 .cfa: x29 32 +
STACK CFI 2952c .cfa: sp 32 +
STACK CFI 29534 .cfa: sp 0 +
STACK CFI INIT 29538 50 .cfa: sp 0 +
STACK CFI 2953c .cfa: sp 32 +
STACK CFI 29544 .cfa: x29 32 + x19: .cfa -16 + ^ .ra: .cfa -24 + ^ x29: .cfa -32 + ^
STACK CFI 2955c .cfa: sp 32 +
STACK CFI 29564 .cfa: sp 0 +
STACK CFI 29568 .cfa: x29 32 +
STACK CFI 2957c .cfa: sp 32 +
STACK CFI 29584 .cfa: sp 0 +
STACK CFI INIT 29588 5c .cfa: sp 0 +
STACK CFI 2958c .cfa: sp 32 +
STACK CFI 29594 .cfa: x29 32 + x19: .cfa -16 + ^ .ra: .cfa -24 + ^ x29: .cfa -32 + ^
STACK CFI 295b8 .cfa: sp 32 +
STACK CFI 295c0 .cfa: sp 0 +
STACK CFI 295c4 .cfa: x29 32 +
STACK CFI 295d8 .cfa: sp 32 +
STACK CFI 295e0 .cfa: sp 0 +
STACK CFI INIT 295e4 6c .cfa: sp 0 +
STACK CFI 295e8 .cfa: sp 32 +
STACK CFI 295f0 .cfa: x29 32 + x19: .cfa -8 + ^ x20: .cfa -16 + ^ .ra: .cfa -24 + ^ x29: .cfa -32 + ^
STACK CFI 2961c .cfa: sp 32 +
STACK CFI 29624 .cfa: sp 0 +
STACK CFI 29628 .cfa: x29 32 +
STACK CFI 29644 .cfa: sp 32 +
STACK CFI 2964c .cfa: sp 0 +
STACK CFI INIT 29650 58 .cfa: sp 0 +
STACK CFI 29654 .cfa: sp 32 +
STACK CFI 2965c .cfa: x29 32 + x19: .cfa -8 + ^ x20: .cfa -16 + ^ .ra: .cfa -24 + ^ x29: .cfa -32 + ^
STACK CFI 2969c .cfa: sp 32 +
STACK CFI 296a4 .cfa: sp 0 +
STACK CFI INIT 296a8 4c .cfa: sp 0 +
STACK CFI 296ac .cfa: sp 32 +
STACK CFI 296b4 .cfa: x29 32 + x19: .cfa -8 + ^ x20: .cfa -16 + ^ .ra: .cfa -24 + ^ x29: .cfa -32 + ^
STACK CFI 296e8 .cfa: sp 32 +
STACK CFI 296f0 .cfa: sp 0 +
STACK CFI INIT 296f4 50 .cfa: sp 0 +
STACK CFI 296f8 .cfa: sp 32 +
STACK CFI 29700 .cfa: x29 32 + x19: .cfa -16 + ^ .ra: .cfa -24 + ^ x29: .cfa -32 + ^
STACK CFI 29718 .cfa: sp 32 +
STACK CFI 29720 .cfa: sp 0 +
STACK CFI 29724 .cfa: x29 32 +
STACK CFI 29738 .cfa: sp 32 +
STACK CFI 29740 .cfa: sp 0 +
STACK CFI INIT 29744 60 .cfa: sp 0 +
STACK CFI 29748 .cfa: sp 32 +
STACK CFI 29750 .cfa: x29 32 + x19: .cfa -8 + ^ x20: .cfa -16 + ^ .ra: .cfa -24 + ^ x29: .cfa -32 + ^
STACK CFI 29770 .cfa: sp 32 +
STACK CFI 29778 .cfa: sp 0 +
STACK CFI 2977c .cfa: x29 32 +
STACK CFI 29798 .cfa: sp 32 +
STACK CFI 297a0 .cfa: sp 0 +
STACK CFI INIT 297a4 8 .cfa: sp 0 +
STACK CFI INIT 297ac 1c .cfa: sp 0 +
STACK CFI INIT 297c8 c .cfa: sp 0 +
STACK CFI INIT 299a4 60 .cfa: sp 0 +
STACK CFI 299a8 .cfa: sp 32 +
STACK CFI 299b0 .cfa: x29 32 + x19: .cfa -8 + ^ x20: .cfa -16 + ^ .ra: .cfa -24 + ^ x29: .cfa -32 + ^
STACK CFI 299d0 .cfa: sp 32 +
STACK CFI 299d8 .cfa: sp 0 +
STACK CFI 299dc .cfa: x29 32 +
STACK CFI 299f8 .cfa: sp 32 +
STACK CFI 29a00 .cfa: sp 0 +
STACK CFI INIT 29a04 70 .cfa: sp 0 +
STACK CFI 29a08 .cfa: sp 32 +
STACK CFI 29a10 .cfa: x29 32 + x19: .cfa -8 + ^ x20: .cfa -16 + ^ .ra: .cfa -24 + ^ x29: .cfa -32 + ^
STACK CFI 29a38 .cfa: sp 32 +
STACK CFI 29a40 .cfa: sp 0 +
STACK CFI 29a44 .cfa: x29 32 +
STACK CFI 29a68 .cfa: sp 32 +
STACK CFI 29a70 .cfa: sp 0 +
STACK CFI INIT 29a74 5c .cfa: sp 0 +
STACK CFI 29a78 .cfa: sp 32 +
STACK CFI 29a80 .cfa: x29 32 + x19: .cfa -16 + ^ .ra: .cfa -24 + ^ x29: .cfa -32 + ^
STACK CFI 29aa4 .cfa: sp 32 +
STACK CFI 29aac .cfa: sp 0 +
STACK CFI 29ab0 .cfa: x29 32 +
STACK CFI 29ac4 .cfa: sp 32 +
STACK CFI 29acc .cfa: sp 0 +
STACK CFI INIT 29ad0 6c .cfa: sp 0 +
STACK CFI 29ad4 .cfa: sp 32 +
STACK CFI 29adc .cfa: x29 32 + x19: .cfa -8 + ^ x20: .cfa -16 + ^ .ra: .cfa -24 + ^ x29: .cfa -32 + ^
STACK CFI 29b08 .cfa: sp 32 +
STACK CFI 29b10 .cfa: sp 0 +
STACK CFI 29b14 .cfa: x29 32 +
STACK CFI 29b30 .cfa: sp 32 +
STACK CFI 29b38 .cfa: sp 0 +
STACK CFI INIT 29b3c 58 .cfa: sp 0 +
STACK CFI 29b40 .cfa: sp 32 +
STACK CFI 29b48 .cfa: x29 32 + x19: .cfa -8 + ^ x20: .cfa -16 + ^ .ra: .cfa -24 + ^ x29: .cfa -32 + ^
STACK CFI 29b88 .cfa: sp 32 +
STACK CFI 29b90 .cfa: sp 0 +
STACK CFI INIT 29b94 4c .cfa: sp 0 +
STACK CFI 29b98 .cfa: sp 32 +
STACK CFI 29ba0 .cfa: x29 32 + x19: .cfa -8 + ^ x20: .cfa -16 + ^ .ra: .cfa -24 + ^ x29: .cfa -32 + ^
STACK CFI 29bd4 .cfa: sp 32 +
STACK CFI 29bdc .cfa: sp 0 +
STACK CFI INIT 29be0 50 .cfa: sp 0 +
STACK CFI 29be4 .cfa: sp 32 +
STACK CFI 29bec .cfa: x29 32 + x19: .cfa -16 + ^ .ra: .cfa -24 + ^ x29: .cfa -32 + ^
STACK CFI 29c04 .cfa: sp 32 +
STACK CFI 29c0c .cfa: sp 0 +
STACK CFI 29c10 .cfa: x29 32 +
STACK CFI 29c24 .cfa: sp 32 +
STACK CFI 29c2c .cfa: sp 0 +
STACK CFI INIT 29c30 60 .cfa: sp 0 +
STACK CFI 29c34 .cfa: sp 32 +
STACK CFI 29c3c .cfa: x29 32 + x19: .cfa -8 + ^ x20: .cfa -16 + ^ .ra: .cfa -24 + ^ x29: .cfa -32 + ^
STACK CFI 29c5c .cfa: sp 32 +
STACK CFI 29c64 .cfa: sp 0 +
STACK CFI 29c68 .cfa: x29 32 +
STACK CFI 29c84 .cfa: sp 32 +
STACK CFI 29c8c .cfa: sp 0 +
STACK CFI INIT 29c90 8 .cfa: sp 0 +
STACK CFI INIT 29c98 1c .cfa: sp 0 +
STACK CFI INIT 29cb4 c .cfa: sp 0 +
STACK CFI INIT 29e84 104 .cfa: sp 0 +
STACK CFI 29e88 .cfa: sp 64 +
STACK CFI 29e98 .cfa: x29 64 + x19: .cfa -8 + ^ x20: .cfa -16 + ^ x21: .cfa -24 + ^ x22: .cfa -32 + ^ x23: .cfa -48 + ^ .ra: .cfa -56 + ^ x29: .cfa -64 + ^
STACK CFI 29ef4 .cfa: sp 64 +
STACK CFI 29f04 .cfa: sp 0 +
STACK CFI 29f08 .cfa: x29 64 +
STACK CFI 29f24 .cfa: sp 64 +
STACK CFI 29f34 .cfa: sp 0 +
STACK CFI 29f38 .cfa: x29 64 +
STACK CFI 29f74 .cfa: sp 64 +
STACK CFI 29f84 .cfa: sp 0 +
STACK CFI INIT 29f88 34 .cfa: sp 0 +
STACK CFI 29f8c .cfa: sp 16 +
STACK CFI 29f90 .cfa: x29 16 + .ra: .cfa -8 + ^ x29: .cfa -16 + ^
STACK CFI INIT 29fbc 24 .cfa: sp 0 +
STACK CFI 29fc0 .cfa: sp 32 +
STACK CFI 29fc8 .cfa: x29 32 + x19: .cfa -16 + ^ .ra: .cfa -24 + ^ x29: .cfa -32 + ^
STACK CFI 29fd4 .cfa: sp 32 +
STACK CFI 29fdc .cfa: sp 0 +
STACK CFI INIT 2a33c 70 .cfa: sp 0 +
STACK CFI 2a340 .cfa: sp 48 +
STACK CFI 2a34c .cfa: x29 32 + x19: .cfa -16 + ^ .ra: .cfa -24 + ^ x29: .cfa -32 + ^
STACK CFI 2a384 .cfa: sp 48 +
STACK CFI 2a390 .cfa: sp 0 +
STACK CFI 2a394 .cfa: x29 32 +
STACK CFI INIT 2a3ac 5c .cfa: sp 0 +
STACK CFI 2a3b0 .cfa: sp 32 +
STACK CFI 2a3b8 .cfa: x29 32 + x19: .cfa -16 + ^ .ra: .cfa -24 + ^ x29: .cfa -32 + ^
STACK CFI 2a3fc .cfa: sp 32 +
STACK CFI 2a404 .cfa: sp 0 +
STACK CFI INIT 2a408 64 .cfa: sp 0 +
STACK CFI 2a40c .cfa: sp 32 +
STACK CFI 2a414 .cfa: x29 32 + x19: .cfa -16 + ^ .ra: .cfa -24 + ^ x29: .cfa -32 + ^
STACK CFI 2a460 .cfa: sp 32 +
STACK CFI 2a468 .cfa: sp 0 +
STACK CFI INIT 2a46c 4 .cfa: sp 0 +
STACK CFI INIT 2a470 14 .cfa: sp 0 +
STACK CFI 2a474 .cfa: sp 16 +
STACK CFI 2a478 .cfa: x29 16 + .ra: .cfa -8 + ^ x29: .cfa -16 + ^
STACK CFI INIT 2a4d4 30 .cfa: sp 0 +
STACK CFI 2a4d8 .cfa: sp 32 +
STACK CFI 2a4e0 .cfa: x29 32 + x19: .cfa -16 + ^ .ra: .cfa -24 + ^ x29: .cfa -32 + ^
STACK CFI 2a4f8 .cfa: sp 32 +
STACK CFI 2a500 .cfa: sp 0 +
STACK CFI INIT 2a504 14 .cfa: sp 0 +
STACK CFI 2a508 .cfa: sp 16 +
STACK CFI 2a50c .cfa: x29 16 + .ra: .cfa -8 + ^ x29: .cfa -16 + ^
STACK CFI INIT 2a518 128 .cfa: sp 0 +
STACK CFI 2a51c .cfa: sp 80 +
STACK CFI 2a530 .cfa: x29 80 + x19: .cfa -8 + ^ x20: .cfa -16 + ^ x21: .cfa -24 + ^ x22: .cfa -32 + ^ x23: .cfa -40 + ^ x24: .cfa -48 + ^ x25: .cfa -64 + ^ .ra: .cfa -72 + ^ x29: .cfa -80 + ^
STACK CFI 2a620 .cfa: sp 80 +
STACK CFI 2a634 .cfa: sp 0 +
STACK CFI 2a638 .cfa: x29 80 +
STACK CFI INIT 2a640 34 .cfa: sp 0 +
STACK CFI 2a644 .cfa: sp 32 +
STACK CFI 2a64c .cfa: x29 32 + x19: .cfa -8 + ^ x20: .cfa -16 + ^ .ra: .cfa -24 + ^ x29: .cfa -32 + ^
STACK CFI 2a668 .cfa: sp 32 +
STACK CFI 2a670 .cfa: sp 0 +
STACK CFI INIT 2a674 31c .cfa: sp 0 +
STACK CFI 2a678 .cfa: sp 160 +
STACK CFI 2a698 .cfa: x29 96 + x19: .cfa -8 + ^ x20: .cfa -16 + ^ x21: .cfa -24 + ^ x22: .cfa -32 + ^ x23: .cfa -40 + ^ x24: .cfa -48 + ^ x25: .cfa -56 + ^ x26: .cfa -64 + ^ x27: .cfa -80 + ^ .ra: .cfa -88 + ^ x29: .cfa -96 + ^ v8: .cfa -104 + ^ v9: .cfa -112 + ^
STACK CFI 2a968 .cfa: sp 160 +
STACK CFI 2a988 .cfa: sp 0 +
STACK CFI 2a98c .cfa: x29 96 +
STACK CFI INIT 2a990 4 .cfa: sp 0 +
STACK CFI INIT 2a994 34 .cfa: sp 0 +
STACK CFI 2a998 .cfa: sp 32 +
STACK CFI 2a9a0 .cfa: x29 32 + x19: .cfa -16 + ^ .ra: .cfa -24 + ^ x29: .cfa -32 + ^
STACK CFI 2a9bc .cfa: sp 32 +
STACK CFI 2a9c4 .cfa: sp 0 +
STACK CFI INIT 2a9c8 14 .cfa: sp 0 +
STACK CFI INIT 2a9dc 4 .cfa: sp 0 +
STACK CFI INIT 2a9e0 4 .cfa: sp 0 +
STACK CFI INIT 2a9e4 44 .cfa: sp 0 +
STACK CFI INIT 2aa28 1c .cfa: sp 0 +
STACK CFI INIT 2aa44 c .cfa: sp 0 +
STACK CFI INIT 2aa50 4 .cfa: sp 0 +
STACK CFI INIT 2aa54 34 .cfa: sp 0 +
STACK CFI 2aa58 .cfa: sp 32 +
STACK CFI 2aa60 .cfa: x29 32 + x19: .cfa -16 + ^ .ra: .cfa -24 + ^ x29: .cfa -32 + ^
STACK CFI 2aa7c .cfa: sp 32 +
STACK CFI 2aa84 .cfa: sp 0 +
STACK CFI INIT 2aa88 14 .cfa: sp 0 +
STACK CFI INIT 2aa9c 4 .cfa: sp 0 +
STACK CFI INIT 2aaa0 4 .cfa: sp 0 +
STACK CFI INIT 2aaa4 50 .cfa: sp 0 +
STACK CFI INIT 2aaf4 1c .cfa: sp 0 +
STACK CFI INIT 2ab10 c .cfa: sp 0 +
STACK CFI INIT 2ab1c 4 .cfa: sp 0 +
STACK CFI INIT 2ab20 34 .cfa: sp 0 +
STACK CFI 2ab24 .cfa: sp 32 +
STACK CFI 2ab2c .cfa: x29 32 + x19: .cfa -16 + ^ .ra: .cfa -24 + ^ x29: .cfa -32 + ^
STACK CFI 2ab48 .cfa: sp 32 +
STACK CFI 2ab50 .cfa: sp 0 +
STACK CFI INIT 2ab54 14 .cfa: sp 0 +
STACK CFI INIT 2ab68 4 .cfa: sp 0 +
STACK CFI INIT 2ab6c 4 .cfa: sp 0 +
STACK CFI INIT 2ab70 18 .cfa: sp 0 +
STACK CFI INIT 2ab88 1c .cfa: sp 0 +
STACK CFI INIT 2aba4 c .cfa: sp 0 +
STACK CFI INIT 2abb0 4 .cfa: sp 0 +
STACK CFI INIT 2abb4 34 .cfa: sp 0 +
STACK CFI 2abb8 .cfa: sp 32 +
STACK CFI 2abc0 .cfa: x29 32 + x19: .cfa -16 + ^ .ra: .cfa -24 + ^ x29: .cfa -32 + ^
STACK CFI 2abdc .cfa: sp 32 +
STACK CFI 2abe4 .cfa: sp 0 +
STACK CFI INIT 2abe8 14 .cfa: sp 0 +
STACK CFI INIT 2abfc 4 .cfa: sp 0 +
STACK CFI INIT 2ac00 4 .cfa: sp 0 +
STACK CFI INIT 2ac04 18 .cfa: sp 0 +
STACK CFI INIT 2ac1c 1c .cfa: sp 0 +
STACK CFI INIT 2ac38 c .cfa: sp 0 +
STACK CFI INIT 2ac44 4 .cfa: sp 0 +
STACK CFI INIT 2ac48 34 .cfa: sp 0 +
STACK CFI 2ac4c .cfa: sp 32 +
STACK CFI 2ac54 .cfa: x29 32 + x19: .cfa -16 + ^ .ra: .cfa -24 + ^ x29: .cfa -32 + ^
STACK CFI 2ac70 .cfa: sp 32 +
STACK CFI 2ac78 .cfa: sp 0 +
STACK CFI INIT 2ac7c 14 .cfa: sp 0 +
STACK CFI INIT 2ac90 4 .cfa: sp 0 +
STACK CFI INIT 2ac94 4 .cfa: sp 0 +
STACK CFI INIT 2ad98 1c .cfa: sp 0 +
STACK CFI INIT 2adb4 c .cfa: sp 0 +
STACK CFI INIT 2adc0 4 .cfa: sp 0 +
STACK CFI INIT 2adc4 4 .cfa: sp 0 +
STACK CFI INIT 2adc8 34 .cfa: sp 0 +
STACK CFI 2adcc .cfa: sp 32 +
STACK CFI 2add4 .cfa: x29 32 + x19: .cfa -16 + ^ .ra: .cfa -24 + ^ x29: .cfa -32 + ^
STACK CFI 2adf0 .cfa: sp 32 +
STACK CFI 2adf8 .cfa: sp 0 +
STACK CFI INIT 2adfc 14 .cfa: sp 0 +
STACK CFI INIT 2ae10 4 .cfa: sp 0 +
STACK CFI INIT 2ae14 4 .cfa: sp 0 +
STACK CFI INIT 2ae18 18 .cfa: sp 0 +
STACK CFI INIT 2ae30 1c .cfa: sp 0 +
STACK CFI INIT 2ae4c c .cfa: sp 0 +
STACK CFI INIT 2ae58 4 .cfa: sp 0 +
STACK CFI INIT 2ae5c 4 .cfa: sp 0 +
STACK CFI INIT 2ae60 38 .cfa: sp 0 +
STACK CFI 2ae64 .cfa: sp 32 +
STACK CFI 2ae6c .cfa: x29 32 + x19: .cfa -16 + ^ .ra: .cfa -24 + ^ x29: .cfa -32 + ^
STACK CFI 2ae8c .cfa: sp 32 +
STACK CFI 2ae94 .cfa: sp 0 +
STACK CFI INIT 2ae98 18 .cfa: sp 0 +
STACK CFI INIT 2aeb0 4 .cfa: sp 0 +
STACK CFI INIT 2aeb4 4 .cfa: sp 0 +
STACK CFI INIT 2b1b8 1c .cfa: sp 0 +
STACK CFI INIT 2b1d4 c .cfa: sp 0 +
STACK CFI INIT 2b1e0 4 .cfa: sp 0 +
STACK CFI INIT 2b1e4 38 .cfa: sp 0 +
STACK CFI 2b1e8 .cfa: sp 32 +
STACK CFI 2b1f0 .cfa: x29 32 + x19: .cfa -16 + ^ .ra: .cfa -24 + ^ x29: .cfa -32 + ^
STACK CFI 2b210 .cfa: sp 32 +
STACK CFI 2b218 .cfa: sp 0 +
STACK CFI INIT 2b21c 18 .cfa: sp 0 +
STACK CFI INIT 2b234 4 .cfa: sp 0 +
STACK CFI INIT 2b238 4 .cfa: sp 0 +
STACK CFI INIT 2b23c c0 .cfa: sp 0 +
STACK CFI 2b240 .cfa: sp 32 +
STACK CFI 2b248 .cfa: x29 32 + x19: .cfa -8 + ^ x20: .cfa -16 + ^ .ra: .cfa -24 + ^ x29: .cfa -32 + ^
STACK CFI 2b28c .cfa: sp 32 +
STACK CFI 2b294 .cfa: sp 0 +
STACK CFI 2b298 .cfa: sp 32 +
STACK CFI 2b2a0 .cfa: sp 0 +
STACK CFI 2b2a4 .cfa: x29 32 +
STACK CFI INIT 2b2fc 1c .cfa: sp 0 +
STACK CFI INIT 2b318 c .cfa: sp 0 +
STACK CFI INIT 2b324 4 .cfa: sp 0 +
STACK CFI INIT 2b328 34 .cfa: sp 0 +
STACK CFI 2b32c .cfa: sp 32 +
STACK CFI 2b334 .cfa: x29 32 + x19: .cfa -16 + ^ .ra: .cfa -24 + ^ x29: .cfa -32 + ^
STACK CFI 2b350 .cfa: sp 32 +
STACK CFI 2b358 .cfa: sp 0 +
STACK CFI INIT 2b35c 14 .cfa: sp 0 +
STACK CFI INIT 2b370 4 .cfa: sp 0 +
STACK CFI INIT 2b374 4 .cfa: sp 0 +
STACK CFI INIT 2b598 1c .cfa: sp 0 +
STACK CFI INIT 2b5b4 c .cfa: sp 0 +
STACK CFI INIT 2b5c0 4 .cfa: sp 0 +
STACK CFI INIT 2b5c4 38 .cfa: sp 0 +
STACK CFI 2b5c8 .cfa: sp 32 +
STACK CFI 2b5d0 .cfa: x29 32 + x19: .cfa -16 + ^ .ra: .cfa -24 + ^ x29: .cfa -32 + ^
STACK CFI 2b5f0 .cfa: sp 32 +
STACK CFI 2b5f8 .cfa: sp 0 +
STACK CFI INIT 2b5fc 18 .cfa: sp 0 +
STACK CFI INIT 2b614 4 .cfa: sp 0 +
STACK CFI INIT 2b618 4 .cfa: sp 0 +
STACK CFI INIT 2b94c 1c .cfa: sp 0 +
STACK CFI INIT 2b968 c .cfa: sp 0 +
STACK CFI INIT 2b974 4 .cfa: sp 0 +
STACK CFI INIT 2b978 4 .cfa: sp 0 +
STACK CFI INIT 2b97c 34 .cfa: sp 0 +
STACK CFI 2b980 .cfa: sp 32 +
STACK CFI 2b988 .cfa: x29 32 + x19: .cfa -16 + ^ .ra: .cfa -24 + ^ x29: .cfa -32 + ^
STACK CFI 2b9a4 .cfa: sp 32 +
STACK CFI 2b9ac .cfa: sp 0 +
STACK CFI INIT 2b9b0 14 .cfa: sp 0 +
STACK CFI INIT 2b9c4 4 .cfa: sp 0 +
STACK CFI INIT 2b9c8 4 .cfa: sp 0 +
STACK CFI INIT 2bbec 1c .cfa: sp 0 +
STACK CFI INIT 2bc08 c .cfa: sp 0 +
STACK CFI INIT 2bc88 34 .cfa: sp 0 +
STACK CFI 2bc8c .cfa: sp 16 +
STACK CFI 2bc90 .cfa: x29 16 + .ra: .cfa -8 + ^ x29: .cfa -16 + ^
STACK CFI INIT 2bcbc 4 .cfa: sp 0 +
STACK CFI INIT 2bcc0 14 .cfa: sp 0 +
STACK CFI INIT 2bcd4 4 .cfa: sp 0 +
STACK CFI INIT 2bcd8 14 .cfa: sp 0 +
STACK CFI INIT 2bcec 24 .cfa: sp 0 +
STACK CFI INIT 2bd10 40 .cfa: sp 0 +
STACK CFI 2bd28 .cfa: sp 32 +
STACK CFI 2bd30 .cfa: x29 32 + x19: .cfa -16 + ^ .ra: .cfa -24 + ^ x29: .cfa -32 + ^
STACK CFI 2bd44 .cfa: sp 32 +
STACK CFI 2bd4c .cfa: sp 0 +
STACK CFI INIT 2bf1c 18 .cfa: sp 0 +
STACK CFI INIT 2bf34 34 .cfa: sp 0 +
STACK CFI 2bf40 .cfa: sp 32 +
STACK CFI 2bf48 .cfa: x29 32 + x19: .cfa -16 + ^ .ra: .cfa -24 + ^ x29: .cfa -32 + ^
STACK CFI 2bf5c .cfa: sp 32 +
STACK CFI 2bf64 .cfa: sp 0 +
STACK CFI INIT 2c224 1c .cfa: sp 0 +
STACK CFI INIT 2c240 c .cfa: sp 0 +
STACK CFI INIT 2c24c 4 .cfa: sp 0 +
STACK CFI INIT 2c250 4 .cfa: sp 0 +
STACK CFI INIT 2c254 34 .cfa: sp 0 +
STACK CFI 2c258 .cfa: sp 32 +
STACK CFI 2c260 .cfa: x29 32 + x19: .cfa -16 + ^ .ra: .cfa -24 + ^ x29: .cfa -32 + ^
STACK CFI 2c27c .cfa: sp 32 +
STACK CFI 2c284 .cfa: sp 0 +
STACK CFI INIT 2c288 14 .cfa: sp 0 +
STACK CFI INIT 2c29c 4 .cfa: sp 0 +
STACK CFI INIT 2c2a0 4 .cfa: sp 0 +
STACK CFI INIT 2c2a4 c .cfa: sp 0 +
STACK CFI INIT 2c2b0 1c .cfa: sp 0 +
STACK CFI INIT 2c2cc c .cfa: sp 0 +
STACK CFI INIT 2c2d8 60 .cfa: sp 0 +
STACK CFI 2c2dc .cfa: sp 32 +
STACK CFI 2c2e4 .cfa: x29 32 + x19: .cfa -8 + ^ x20: .cfa -16 + ^ .ra: .cfa -24 + ^ x29: .cfa -32 + ^
STACK CFI 2c304 .cfa: sp 32 +
STACK CFI 2c30c .cfa: sp 0 +
STACK CFI 2c310 .cfa: x29 32 +
STACK CFI 2c32c .cfa: sp 32 +
STACK CFI 2c334 .cfa: sp 0 +
STACK CFI INIT 2c338 70 .cfa: sp 0 +
STACK CFI 2c33c .cfa: sp 32 +
STACK CFI 2c344 .cfa: x29 32 + x19: .cfa -8 + ^ x20: .cfa -16 + ^ .ra: .cfa -24 + ^ x29: .cfa -32 + ^
STACK CFI 2c36c .cfa: sp 32 +
STACK CFI 2c374 .cfa: sp 0 +
STACK CFI 2c378 .cfa: x29 32 +
STACK CFI 2c39c .cfa: sp 32 +
STACK CFI 2c3a4 .cfa: sp 0 +
STACK CFI INIT 2c3a8 10 .cfa: sp 0 +
STACK CFI INIT 2c3b8 30 .cfa: sp 0 +
STACK CFI 2c3bc .cfa: sp 32 +
STACK CFI 2c3c4 .cfa: x29 32 + x19: .cfa -16 + ^ .ra: .cfa -24 + ^ x29: .cfa -32 + ^
STACK CFI 2c3dc .cfa: sp 32 +
STACK CFI 2c3e4 .cfa: sp 0 +
STACK CFI INIT 2c3e8 4 .cfa: sp 0 +
STACK CFI INIT 2c3ec 4 .cfa: sp 0 +
STACK CFI INIT 2d824 64 .cfa: sp 0 +
STACK CFI 2d828 .cfa: sp 32 +
STACK CFI 2d830 .cfa: x29 32 + x19: .cfa -16 + ^ .ra: .cfa -24 + ^ x29: .cfa -32 + ^
STACK CFI 2d878 .cfa: sp 32 +
STACK CFI 2d880 .cfa: sp 0 +
STACK CFI 2d884 .cfa: x29 32 +
STACK CFI INIT 2d888 6c .cfa: sp 0 +
STACK CFI 2d88c .cfa: sp 32 +
STACK CFI 2d894 .cfa: x29 32 + x19: .cfa -8 + ^ x20: .cfa -16 + ^ .ra: .cfa -24 + ^ x29: .cfa -32 + ^
STACK CFI 2d8e4 .cfa: sp 32 +
STACK CFI 2d8ec .cfa: sp 0 +
STACK CFI 2d8f0 .cfa: x29 32 +
STACK CFI INIT 2d8f4 2c .cfa: sp 0 +
STACK CFI 2d8f8 .cfa: sp 32 +
STACK CFI 2d900 .cfa: x29 32 + x19: .cfa -16 + ^ .ra: .cfa -24 + ^ x29: .cfa -32 + ^
STACK CFI 2d914 .cfa: sp 32 +
STACK CFI 2d91c .cfa: sp 0 +
STACK CFI INIT 2d920 100 .cfa: sp 0 +
STACK CFI 2d924 .cfa: sp 112 +
STACK CFI 2d938 .cfa: x29 64 + x19: .cfa -8 + ^ x20: .cfa -16 + ^ x21: .cfa -24 + ^ x22: .cfa -32 + ^ x23: .cfa -48 + ^ .ra: .cfa -56 + ^ x29: .cfa -64 + ^
STACK CFI 2da04 .cfa: sp 112 +
STACK CFI 2da18 .cfa: sp 0 +
STACK CFI 2da1c .cfa: x29 64 +
STACK CFI INIT 2da20 8 .cfa: sp 0 +
STACK CFI INIT 2dc70 4 .cfa: sp 0 +
STACK CFI INIT 2dc74 38 .cfa: sp 0 +
STACK CFI 2dc78 .cfa: sp 32 +
STACK CFI 2dc80 .cfa: x29 32 + x19: .cfa -16 + ^ .ra: .cfa -24 + ^ x29: .cfa -32 + ^
STACK CFI 2dca0 .cfa: sp 32 +
STACK CFI 2dca8 .cfa: sp 0 +
STACK CFI INIT 2dcac 18 .cfa: sp 0 +
STACK CFI INIT 2dcc4 4 .cfa: sp 0 +
STACK CFI INIT 2dcc8 4 .cfa: sp 0 +
STACK CFI INIT 2dccc 24 .cfa: sp 0 +
STACK CFI 2dcd0 .cfa: sp 32 +
STACK CFI 2dcd8 .cfa: x29 32 + x19: .cfa -16 + ^ .ra: .cfa -24 + ^ x29: .cfa -32 + ^
STACK CFI 2dce4 .cfa: sp 32 +
STACK CFI 2dcec .cfa: sp 0 +
STACK CFI INIT 2dcf0 1c .cfa: sp 0 +
STACK CFI INIT 2dd0c c .cfa: sp 0 +
STACK CFI INIT 2dd18 4 .cfa: sp 0 +
STACK CFI INIT 2dd1c 34 .cfa: sp 0 +
STACK CFI 2dd20 .cfa: sp 32 +
STACK CFI 2dd28 .cfa: x29 32 + x19: .cfa -16 + ^ .ra: .cfa -24 + ^ x29: .cfa -32 + ^
STACK CFI 2dd44 .cfa: sp 32 +
STACK CFI 2dd4c .cfa: sp 0 +
STACK CFI INIT 2dd50 14 .cfa: sp 0 +
STACK CFI INIT 2dd64 4 .cfa: sp 0 +
STACK CFI INIT 2dd68 4 .cfa: sp 0 +
STACK CFI INIT 2dd6c 68 .cfa: sp 0 +
STACK CFI 2dd70 .cfa: sp 32 +
STACK CFI 2dd78 .cfa: x29 32 + x19: .cfa -16 + ^ .ra: .cfa -24 + ^ x29: .cfa -32 + ^
STACK CFI 2ddc4 .cfa: sp 32 +
STACK CFI 2ddcc .cfa: sp 0 +
STACK CFI 2ddd0 .cfa: x29 32 +
STACK CFI INIT 2ddd4 1c .cfa: sp 0 +
STACK CFI INIT 2ddf0 c .cfa: sp 0 +
STACK CFI INIT 2ecac 2c .cfa: sp 0 +
STACK CFI 2ecb0 .cfa: sp 32 +
STACK CFI 2ecb8 .cfa: x29 32 + x19: .cfa -16 + ^ .ra: .cfa -24 + ^ x29: .cfa -32 + ^
STACK CFI 2eccc .cfa: sp 32 +
STACK CFI 2ecd4 .cfa: sp 0 +
STACK CFI INIT 2ecd8 28 .cfa: sp 0 +
STACK CFI INIT 2ef28 2c .cfa: sp 0 +
STACK CFI INIT 2ef54 4 .cfa: sp 0 +
STACK CFI INIT 2efc4 4 .cfa: sp 0 +
STACK CFI INIT 2efc8 338 .cfa: sp 0 +
STACK CFI 2efcc .cfa: sp 176 +
STACK CFI 2efec .cfa: x29 96 + x19: .cfa -8 + ^ x20: .cfa -16 + ^ x21: .cfa -24 + ^ x22: .cfa -32 + ^ x23: .cfa -40 + ^ x24: .cfa -48 + ^ x25: .cfa -56 + ^ x26: .cfa -64 + ^ x27: .cfa -72 + ^ x28: .cfa -80 + ^ .ra: .cfa -88 + ^ x29: .cfa -96 + ^ v8: .cfa -104 + ^ v9: .cfa -112 + ^
STACK CFI 2f2d8 .cfa: sp 176 +
STACK CFI 2f2f8 .cfa: sp 0 +
STACK CFI 2f2fc .cfa: x29 96 +
STACK CFI INIT 2f300 4 .cfa: sp 0 +
STACK CFI INIT 2f304 40 .cfa: sp 0 +
STACK CFI 2f308 .cfa: sp 32 +
STACK CFI 2f310 .cfa: x29 32 + x19: .cfa -16 + ^ .ra: .cfa -24 + ^ x29: .cfa -32 + ^
STACK CFI 2f338 .cfa: sp 32 +
STACK CFI 2f340 .cfa: sp 0 +
STACK CFI INIT 2f344 20 .cfa: sp 0 +
STACK CFI INIT 2f364 4 .cfa: sp 0 +
STACK CFI INIT 2f368 4 .cfa: sp 0 +
STACK CFI INIT 2f49c 1c .cfa: sp 0 +
STACK CFI INIT 2f4b8 c .cfa: sp 0 +
STACK CFI INIT 2f4c4 4 .cfa: sp 0 +
STACK CFI INIT 2f4c8 40 .cfa: sp 0 +
STACK CFI 2f4cc .cfa: sp 32 +
STACK CFI 2f4d4 .cfa: x29 32 + x19: .cfa -16 + ^ .ra: .cfa -24 + ^ x29: .cfa -32 + ^
STACK CFI 2f4fc .cfa: sp 32 +
STACK CFI 2f504 .cfa: sp 0 +
STACK CFI INIT 2f508 20 .cfa: sp 0 +
STACK CFI INIT 2f528 4 .cfa: sp 0 +
STACK CFI INIT 2f52c 4 .cfa: sp 0 +
STACK CFI INIT 2f668 1c .cfa: sp 0 +
STACK CFI INIT 2f684 c .cfa: sp 0 +
STACK CFI INIT 2f690 4 .cfa: sp 0 +
STACK CFI INIT 2f694 40 .cfa: sp 0 +
STACK CFI 2f698 .cfa: sp 32 +
STACK CFI 2f6a0 .cfa: x29 32 + x19: .cfa -16 + ^ .ra: .cfa -24 + ^ x29: .cfa -32 + ^
STACK CFI 2f6c8 .cfa: sp 32 +
STACK CFI 2f6d0 .cfa: sp 0 +
STACK CFI INIT 2f6d4 20 .cfa: sp 0 +
STACK CFI INIT 2f6f4 4 .cfa: sp 0 +
STACK CFI INIT 2f6f8 4 .cfa: sp 0 +
STACK CFI INIT 2f834 1c .cfa: sp 0 +
STACK CFI INIT 2f850 c .cfa: sp 0 +
STACK CFI INIT 2f85c 4 .cfa: sp 0 +
STACK CFI INIT 2f860 40 .cfa: sp 0 +
STACK CFI 2f864 .cfa: sp 32 +
STACK CFI 2f86c .cfa: x29 32 + x19: .cfa -16 + ^ .ra: .cfa -24 + ^ x29: .cfa -32 + ^
STACK CFI 2f894 .cfa: sp 32 +
STACK CFI 2f89c .cfa: sp 0 +
STACK CFI INIT 2f8a0 20 .cfa: sp 0 +
STACK CFI INIT 2f8c0 4 .cfa: sp 0 +
STACK CFI INIT 2f8c4 4 .cfa: sp 0 +
STACK CFI INIT 2fa00 1c .cfa: sp 0 +
STACK CFI INIT 2fa1c c .cfa: sp 0 +
STACK CFI INIT 2fa28 60 .cfa: sp 0 +
STACK CFI 2fa2c .cfa: sp 32 +
STACK CFI 2fa34 .cfa: x29 32 + x19: .cfa -8 + ^ x20: .cfa -16 + ^ .ra: .cfa -24 + ^ x29: .cfa -32 + ^
STACK CFI 2fa54 .cfa: sp 32 +
STACK CFI 2fa5c .cfa: sp 0 +
STACK CFI 2fa60 .cfa: x29 32 +
STACK CFI 2fa7c .cfa: sp 32 +
STACK CFI 2fa84 .cfa: sp 0 +
STACK CFI INIT 2fa88 70 .cfa: sp 0 +
STACK CFI 2fa8c .cfa: sp 32 +
STACK CFI 2fa94 .cfa: x29 32 + x19: .cfa -8 + ^ x20: .cfa -16 + ^ .ra: .cfa -24 + ^ x29: .cfa -32 + ^
STACK CFI 2fabc .cfa: sp 32 +
STACK CFI 2fac4 .cfa: sp 0 +
STACK CFI 2fac8 .cfa: x29 32 +
STACK CFI 2faec .cfa: sp 32 +
STACK CFI 2faf4 .cfa: sp 0 +
STACK CFI INIT 2faf8 10 .cfa: sp 0 +
STACK CFI INIT 2fb08 30 .cfa: sp 0 +
STACK CFI 2fb0c .cfa: sp 32 +
STACK CFI 2fb14 .cfa: x29 32 + x19: .cfa -16 + ^ .ra: .cfa -24 + ^ x29: .cfa -32 + ^
STACK CFI 2fb2c .cfa: sp 32 +
STACK CFI 2fb34 .cfa: sp 0 +
STACK CFI INIT 2fb38 4 .cfa: sp 0 +
STACK CFI INIT 2fb3c 4 .cfa: sp 0 +
STACK CFI INIT 2fb40 4c .cfa: sp 0 +
STACK CFI INIT 2fb8c 5c .cfa: sp 0 +
STACK CFI 2fb90 .cfa: sp 32 +
STACK CFI 2fb98 .cfa: x29 32 + x19: .cfa -16 + ^ .ra: .cfa -24 + ^ x29: .cfa -32 + ^
STACK CFI 2fbdc .cfa: sp 32 +
STACK CFI 2fbe4 .cfa: sp 0 +
STACK CFI INIT 2fc84 88 .cfa: sp 0 +
STACK CFI 2fc88 .cfa: sp 32 +
STACK CFI 2fc90 .cfa: x29 32 + x19: .cfa -16 + ^ .ra: .cfa -24 + ^ x29: .cfa -32 + ^
STACK CFI 2fcd0 .cfa: sp 32 +
STACK CFI 2fcd8 .cfa: sp 0 +
STACK CFI 2fcdc .cfa: x29 32 +
STACK CFI 2fce0 .cfa: sp 32 +
STACK CFI 2fce8 .cfa: sp 0 +
STACK CFI 2fcec .cfa: x29 32 +
STACK CFI 2fd00 .cfa: sp 32 +
STACK CFI 2fd08 .cfa: sp 0 +
STACK CFI INIT 2fd0c 40 .cfa: sp 0 +
STACK CFI INIT 2fd4c 50 .cfa: sp 0 +
STACK CFI 2fd50 .cfa: sp 32 +
STACK CFI 2fd58 .cfa: x29 32 + x19: .cfa -16 + ^ .ra: .cfa -24 + ^ x29: .cfa -32 + ^
STACK CFI 2fd90 .cfa: sp 32 +
STACK CFI 2fd98 .cfa: sp 0 +
STACK CFI INIT 2fd9c 94 .cfa: sp 0 +
STACK CFI 2fda0 .cfa: sp 48 +
STACK CFI 2fdac .cfa: x29 32 + x19: .cfa -8 + ^ x20: .cfa -16 + ^ .ra: .cfa -24 + ^ x29: .cfa -32 + ^
STACK CFI 2fe08 .cfa: sp 48 +
STACK CFI 2fe14 .cfa: sp 0 +
STACK CFI 2fe18 .cfa: x29 32 +
STACK CFI INIT 2fe30 1c .cfa: sp 0 +
STACK CFI INIT 2fe4c c .cfa: sp 0 +
STACK CFI INIT 302d8 1c .cfa: sp 0 +
STACK CFI INIT 3067c 50 .cfa: sp 0 +
STACK CFI 30680 .cfa: sp 32 +
STACK CFI 30688 .cfa: x29 32 + x19: .cfa -16 + ^ .ra: .cfa -24 + ^ x29: .cfa -32 + ^
STACK CFI 306a0 .cfa: sp 32 +
STACK CFI 306a8 .cfa: sp 0 +
STACK CFI 306ac .cfa: x29 32 +
STACK CFI 306c0 .cfa: sp 32 +
STACK CFI 306c8 .cfa: sp 0 +
STACK CFI INIT 30740 4 .cfa: sp 0 +
STACK CFI INIT 309c4 80 .cfa: sp 0 +
STACK CFI 309c8 .cfa: sp 48 +
STACK CFI 309d4 .cfa: x29 48 + x19: .cfa -8 + ^ x20: .cfa -16 + ^ x21: .cfa -32 + ^ .ra: .cfa -40 + ^ x29: .cfa -48 + ^
STACK CFI 30a34 .cfa: sp 48 +
STACK CFI 30a40 .cfa: sp 0 +
STACK CFI INIT 30a44 24 .cfa: sp 0 +
STACK CFI 30a48 .cfa: sp 32 +
STACK CFI 30a50 .cfa: x29 32 + x19: .cfa -16 + ^ .ra: .cfa -24 + ^ x29: .cfa -32 + ^
STACK CFI 30a5c .cfa: sp 32 +
STACK CFI 30a64 .cfa: sp 0 +
STACK CFI INIT 30f60 148 .cfa: sp 0 +
STACK CFI 30f64 .cfa: sp 48 +
STACK CFI 30f70 .cfa: x29 48 + x19: .cfa -8 + ^ x20: .cfa -16 + ^ x21: .cfa -32 + ^ .ra: .cfa -40 + ^ x29: .cfa -48 + ^
STACK CFI 31098 .cfa: sp 48 +
STACK CFI 310a4 .cfa: sp 0 +
STACK CFI INIT 312d0 68 .cfa: sp 0 +
STACK CFI 312d4 .cfa: sp 32 +
STACK CFI 312dc .cfa: x29 32 + x19: .cfa -8 + ^ x20: .cfa -16 + ^ .ra: .cfa -24 + ^ x29: .cfa -32 + ^
STACK CFI 312f4 .cfa: sp 32 +
STACK CFI 312fc .cfa: sp 0 +
STACK CFI 31300 .cfa: x29 32 +
STACK CFI 3132c .cfa: sp 32 +
STACK CFI 31334 .cfa: sp 0 +
STACK CFI INIT 31338 4 .cfa: sp 0 +
STACK CFI INIT 3133c 14 .cfa: sp 0 +
STACK CFI INIT 31350 120 .cfa: sp 0 +
STACK CFI 31354 .cfa: sp 64 +
STACK CFI 31364 .cfa: x29 64 + x19: .cfa -8 + ^ x20: .cfa -16 + ^ x21: .cfa -24 + ^ x22: .cfa -32 + ^ x23: .cfa -40 + ^ x24: .cfa -48 + ^ .ra: .cfa -56 + ^ x29: .cfa -64 + ^
STACK CFI 3145c .cfa: sp 64 +
STACK CFI 3146c .cfa: sp 0 +
STACK CFI INIT 31470 d4 .cfa: sp 0 +
STACK CFI 31474 .cfa: sp 48 +
STACK CFI 31480 .cfa: x29 48 + x19: .cfa -8 + ^ x20: .cfa -16 + ^ x21: .cfa -32 + ^ .ra: .cfa -40 + ^ x29: .cfa -48 + ^
STACK CFI 31510 .cfa: sp 48 +
STACK CFI 3151c .cfa: sp 0 +
STACK CFI 31520 .cfa: x29 48 +
STACK CFI INIT 31544 3c8 .cfa: sp 0 +
STACK CFI INIT 3190c 8c .cfa: sp 0 +
STACK CFI 31914 .cfa: sp 32 +
STACK CFI 3191c .cfa: x29 32 + x19: .cfa -8 + ^ x20: .cfa -16 + ^ .ra: .cfa -24 + ^ x29: .cfa -32 + ^
STACK CFI 31964 .cfa: sp 32 +
STACK CFI 3196c .cfa: sp 0 +
STACK CFI 31974 .cfa: x29 32 +
STACK CFI INIT 31af8 50 .cfa: sp 0 +
STACK CFI 31afc .cfa: sp 32 +
STACK CFI 31b04 .cfa: x29 32 + x19: .cfa -16 + ^ .ra: .cfa -24 + ^ x29: .cfa -32 + ^
STACK CFI 31b1c .cfa: sp 32 +
STACK CFI 31b24 .cfa: sp 0 +
STACK CFI 31b28 .cfa: x29 32 +
STACK CFI 31b3c .cfa: sp 32 +
STACK CFI 31b44 .cfa: sp 0 +
STACK CFI INIT 31b48 64 .cfa: sp 0 +
STACK CFI 31b4c .cfa: sp 32 +
STACK CFI 31b54 .cfa: x29 32 + x19: .cfa -16 + ^ .ra: .cfa -24 + ^ x29: .cfa -32 + ^
STACK CFI 31b80 .cfa: sp 32 +
STACK CFI 31b88 .cfa: sp 0 +
STACK CFI 31b8c .cfa: x29 32 +
STACK CFI 31ba0 .cfa: sp 32 +
STACK CFI 31ba8 .cfa: sp 0 +
STACK CFI INIT 31bac 178 .cfa: sp 0 +
STACK CFI 31bb0 .cfa: sp 80 +
STACK CFI 31bc4 .cfa: x29 80 + x19: .cfa -8 + ^ x20: .cfa -16 + ^ x21: .cfa -24 + ^ x22: .cfa -32 + ^ x23: .cfa -40 + ^ x24: .cfa -48 + ^ x25: .cfa -56 + ^ x26: .cfa -64 + ^ .ra: .cfa -72 + ^ x29: .cfa -80 + ^
STACK CFI 31d0c .cfa: sp 80 +
STACK CFI 31d20 .cfa: sp 0 +
STACK CFI INIT 31d24 1b0 .cfa: sp 0 +
STACK CFI INIT 3276c 1c .cfa: sp 0 +
STACK CFI INIT 32a90 4 .cfa: sp 0 +
STACK CFI INIT 32d38 7c .cfa: sp 0 +
STACK CFI 32d3c .cfa: sp 32 +
STACK CFI 32d44 .cfa: x29 32 + x19: .cfa -8 + ^ x20: .cfa -16 + ^ .ra: .cfa -24 + ^ x29: .cfa -32 + ^
STACK CFI 32d9c .cfa: sp 32 +
STACK CFI 32da4 .cfa: sp 0 +
STACK CFI 32da8 .cfa: sp 32 +
STACK CFI 32db0 .cfa: sp 0 +
STACK CFI INIT 3302c 4 .cfa: sp 0 +
STACK CFI INIT 33030 4 .cfa: sp 0 +
STACK CFI INIT 33034 38 .cfa: sp 0 +
STACK CFI 33038 .cfa: sp 32 +
STACK CFI 33040 .cfa: x29 32 + x19: .cfa -16 + ^ .ra: .cfa -24 + ^ x29: .cfa -32 + ^
STACK CFI 33060 .cfa: sp 32 +
STACK CFI 33068 .cfa: sp 0 +
STACK CFI INIT 3306c 18 .cfa: sp 0 +
STACK CFI INIT 33084 4 .cfa: sp 0 +
STACK CFI INIT 33088 4 .cfa: sp 0 +
STACK CFI INIT 3308c 8 .cfa: sp 0 +
STACK CFI INIT 33094 1c .cfa: sp 0 +
STACK CFI INIT 330b0 c .cfa: sp 0 +
STACK CFI INIT 330bc 4 .cfa: sp 0 +
STACK CFI INIT 33234 5c .cfa: sp 0 +
STACK CFI 33238 .cfa: sp 32 +
STACK CFI 33240 .cfa: x29 32 + x19: .cfa -16 + ^ .ra: .cfa -24 + ^ x29: .cfa -32 + ^
STACK CFI 33284 .cfa: sp 32 +
STACK CFI 3328c .cfa: sp 0 +
STACK CFI INIT 33290 64 .cfa: sp 0 +
STACK CFI 33294 .cfa: sp 32 +
STACK CFI 3329c .cfa: x29 32 + x19: .cfa -16 + ^ .ra: .cfa -24 + ^ x29: .cfa -32 + ^
STACK CFI 332e8 .cfa: sp 32 +
STACK CFI 332f0 .cfa: sp 0 +
STACK CFI INIT 332f4 4 .cfa: sp 0 +
STACK CFI INIT 332f8 14 .cfa: sp 0 +
STACK CFI INIT 3330c 160 .cfa: sp 0 +
STACK CFI 33310 .cfa: sp 48 +
STACK CFI 3331c .cfa: x29 48 + x19: .cfa -8 + ^ x20: .cfa -16 + ^ x21: .cfa -24 + ^ x22: .cfa -32 + ^ .ra: .cfa -40 + ^ x29: .cfa -48 + ^
STACK CFI 3345c .cfa: sp 48 +
STACK CFI 33468 .cfa: sp 0 +
STACK CFI INIT 33514 9c .cfa: sp 0 +
STACK CFI INIT 33f2c 4 .cfa: sp 0 +
STACK CFI INIT 33f30 14 .cfa: sp 0 +
STACK CFI 33f34 .cfa: sp 16 +
STACK CFI 33f38 .cfa: x29 16 + .ra: .cfa -8 + ^ x29: .cfa -16 + ^
STACK CFI INIT 33f44 14 .cfa: sp 0 +
STACK CFI 33f48 .cfa: sp 16 +
STACK CFI 33f4c .cfa: x29 16 + .ra: .cfa -8 + ^ x29: .cfa -16 + ^
STACK CFI INIT 33f58 14 .cfa: sp 0 +
STACK CFI 33f5c .cfa: sp 16 +
STACK CFI 33f60 .cfa: x29 16 + .ra: .cfa -8 + ^ x29: .cfa -16 + ^
STACK CFI INIT 33f6c 14 .cfa: sp 0 +
STACK CFI 33f70 .cfa: sp 16 +
STACK CFI 33f74 .cfa: x29 16 + .ra: .cfa -8 + ^ x29: .cfa -16 + ^
STACK CFI INIT 33f80 4 .cfa: sp 0 +
STACK CFI INIT 33f84 4 .cfa: sp 0 +
STACK CFI INIT 33f88 38 .cfa: sp 0 +
STACK CFI 33f8c .cfa: sp 32 +
STACK CFI 33f94 .cfa: x29 32 + x19: .cfa -16 + ^ .ra: .cfa -24 + ^ x29: .cfa -32 + ^
STACK CFI 33fb4 .cfa: sp 32 +
STACK CFI 33fbc .cfa: sp 0 +
STACK CFI INIT 33fc0 18 .cfa: sp 0 +
STACK CFI INIT 33fd8 4 .cfa: sp 0 +
STACK CFI INIT 33fdc 4 .cfa: sp 0 +
STACK CFI INIT 33fe0 10 .cfa: sp 0 +
STACK CFI INIT 33ff0 1c .cfa: sp 0 +
STACK CFI INIT 3400c c .cfa: sp 0 +
STACK CFI INIT 3483c 98 .cfa: sp 0 +
STACK CFI 34840 .cfa: sp 32 +
STACK CFI 34848 .cfa: x29 32 + x19: .cfa -16 + ^ .ra: .cfa -24 + ^ x29: .cfa -32 + ^
STACK CFI 348a0 .cfa: sp 32 +
STACK CFI 348a8 .cfa: sp 0 +
STACK CFI 348ac .cfa: x29 32 +
STACK CFI 348bc .cfa: sp 32 +
STACK CFI 348c4 .cfa: sp 0 +
STACK CFI 348c8 .cfa: sp 32 +
STACK CFI 348d0 .cfa: sp 0 +
STACK CFI INIT 35798 4 .cfa: sp 0 +
STACK CFI INIT 3579c 14 .cfa: sp 0 +
STACK CFI INIT 357b0 a0 .cfa: sp 0 +
STACK CFI 357b4 .cfa: sp 32 +
STACK CFI 357bc .cfa: x29 32 + x19: .cfa -8 + ^ x20: .cfa -16 + ^ .ra: .cfa -24 + ^ x29: .cfa -32 + ^
STACK CFI 3581c .cfa: sp 32 +
STACK CFI 35824 .cfa: sp 0 +
STACK CFI 35828 .cfa: x29 32 +
STACK CFI 35838 .cfa: sp 32 +
STACK CFI 35840 .cfa: sp 0 +
STACK CFI 35844 .cfa: sp 32 +
STACK CFI 3584c .cfa: sp 0 +
STACK CFI INIT 35850 8c .cfa: sp 0 +
STACK CFI 35854 .cfa: sp 32 +
STACK CFI 3585c .cfa: x29 32 + x19: .cfa -8 + ^ x20: .cfa -16 + ^ .ra: .cfa -24 + ^ x29: .cfa -32 + ^
STACK CFI 358d0 .cfa: sp 32 +
STACK CFI 358d8 .cfa: sp 0 +
STACK CFI INIT 35b20 94 .cfa: sp 0 +
STACK CFI 35b24 .cfa: sp 32 +
STACK CFI 35b2c .cfa: x29 32 + x19: .cfa -8 + ^ x20: .cfa -16 + ^ .ra: .cfa -24 + ^ x29: .cfa -32 + ^
STACK CFI 35b80 .cfa: sp 32 +
STACK CFI 35b88 .cfa: sp 0 +
STACK CFI 35b8c .cfa: x29 32 +
STACK CFI 35b9c .cfa: sp 32 +
STACK CFI 35ba4 .cfa: sp 0 +
STACK CFI 35ba8 .cfa: sp 32 +
STACK CFI 35bb0 .cfa: sp 0 +
STACK CFI INIT 35bb4 80 .cfa: sp 0 +
STACK CFI 35bb8 .cfa: sp 32 +
STACK CFI 35bc0 .cfa: x29 32 + x19: .cfa -8 + ^ x20: .cfa -16 + ^ .ra: .cfa -24 + ^ x29: .cfa -32 + ^
STACK CFI 35c28 .cfa: sp 32 +
STACK CFI 35c30 .cfa: sp 0 +
STACK CFI INIT 375e4 1c .cfa: sp 0 +
STACK CFI INIT 37600 c .cfa: sp 0 +
STACK CFI INIT 37680 8 .cfa: sp 0 +
STACK CFI INIT 37688 14 .cfa: sp 0 +
STACK CFI INIT 377f8 14 .cfa: sp 0 +
STACK CFI INIT 3780c 14 .cfa: sp 0 +
STACK CFI INIT 37820 4 .cfa: sp 0 +
STACK CFI INIT 37824 14 .cfa: sp 0 +
STACK CFI INIT 37838 4 .cfa: sp 0 +
STACK CFI INIT 3783c 14 .cfa: sp 0 +
STACK CFI INIT 37850 70 .cfa: sp 0 +
STACK CFI 37854 .cfa: sp 32 +
STACK CFI 3785c .cfa: x29 32 + x19: .cfa -8 + ^ x20: .cfa -16 + ^ .ra: .cfa -24 + ^ x29: .cfa -32 + ^
STACK CFI 378a8 .cfa: sp 32 +
STACK CFI 378b0 .cfa: sp 0 +
STACK CFI 378b4 .cfa: sp 32 +
STACK CFI 378bc .cfa: sp 0 +
STACK CFI INIT 378c0 14 .cfa: sp 0 +
STACK CFI 378c4 .cfa: sp 16 +
STACK CFI 378c8 .cfa: x29 16 + .ra: .cfa -8 + ^ x29: .cfa -16 + ^
STACK CFI INIT 378d4 4 .cfa: sp 0 +
STACK CFI INIT 378d8 14 .cfa: sp 0 +
STACK CFI INIT 378ec 54 .cfa: sp 0 +
STACK CFI 378fc .cfa: sp 32 +
STACK CFI 37904 .cfa: x29 32 + x19: .cfa -8 + ^ x20: .cfa -16 + ^ .ra: .cfa -24 + ^ x29: .cfa -32 + ^
STACK CFI 37934 .cfa: sp 32 +
STACK CFI 3793c .cfa: sp 0 +
STACK CFI INIT 37940 3c .cfa: sp 0 +
STACK CFI 37944 .cfa: sp 32 +
STACK CFI 3794c .cfa: x29 32 + x19: .cfa -16 + ^ .ra: .cfa -24 + ^ x29: .cfa -32 + ^
STACK CFI 37958 .cfa: sp 32 +
STACK CFI 37960 .cfa: sp 0 +
STACK CFI 37964 .cfa: x29 32 +
STACK CFI 37970 .cfa: sp 32 +
STACK CFI 37978 .cfa: sp 0 +
STACK CFI INIT 3797c 4c .cfa: sp 0 +
STACK CFI 37980 .cfa: sp 32 +
STACK CFI 37988 .cfa: x29 32 + x19: .cfa -8 + ^ x20: .cfa -16 + ^ .ra: .cfa -24 + ^ x29: .cfa -32 + ^
STACK CFI 379b0 .cfa: sp 32 +
STACK CFI 379b8 .cfa: sp 0 +
STACK CFI 379bc .cfa: sp 32 +
STACK CFI 379c4 .cfa: sp 0 +
STACK CFI INIT 37be8 64 .cfa: sp 0 +
STACK CFI 37bec .cfa: sp 32 +
STACK CFI 37bf4 .cfa: x29 32 + x19: .cfa -16 + ^ .ra: .cfa -24 + ^ x29: .cfa -32 + ^
STACK CFI 37c20 .cfa: sp 32 +
STACK CFI 37c28 .cfa: sp 0 +
STACK CFI 37c2c .cfa: x29 32 +
STACK CFI 37c40 .cfa: sp 32 +
STACK CFI 37c48 .cfa: sp 0 +
STACK CFI INIT 37e70 24 .cfa: sp 0 +
STACK CFI 37e74 .cfa: sp 32 +
STACK CFI 37e7c .cfa: x29 32 + x19: .cfa -16 + ^ .ra: .cfa -24 + ^ x29: .cfa -32 + ^
STACK CFI 37e88 .cfa: sp 32 +
STACK CFI 37e90 .cfa: sp 0 +
STACK CFI INIT 37e94 24 .cfa: sp 0 +
STACK CFI 37e98 .cfa: sp 32 +
STACK CFI 37ea0 .cfa: x29 32 + x19: .cfa -16 + ^ .ra: .cfa -24 + ^ x29: .cfa -32 + ^
STACK CFI 37eac .cfa: sp 32 +
STACK CFI 37eb4 .cfa: sp 0 +
STACK CFI INIT 3813c 8 .cfa: sp 0 +
STACK CFI INIT 38144 24 .cfa: sp 0 +
STACK CFI 38148 .cfa: sp 32 +
STACK CFI 38150 .cfa: x29 32 + x19: .cfa -16 + ^ .ra: .cfa -24 + ^ x29: .cfa -32 + ^
STACK CFI 3815c .cfa: sp 32 +
STACK CFI 38164 .cfa: sp 0 +
STACK CFI INIT 38168 28 .cfa: sp 0 +
STACK CFI 3816c .cfa: sp 32 +
STACK CFI 38174 .cfa: x29 32 + x19: .cfa -16 + ^ .ra: .cfa -24 + ^ x29: .cfa -32 + ^
STACK CFI 38184 .cfa: sp 32 +
STACK CFI 3818c .cfa: sp 0 +
STACK CFI INIT 38490 8 .cfa: sp 0 +
STACK CFI INIT 38498 24 .cfa: sp 0 +
STACK CFI 3849c .cfa: sp 32 +
STACK CFI 384a4 .cfa: x29 32 + x19: .cfa -16 + ^ .ra: .cfa -24 + ^ x29: .cfa -32 + ^
STACK CFI 384b0 .cfa: sp 32 +
STACK CFI 384b8 .cfa: sp 0 +
STACK CFI INIT 384bc 28 .cfa: sp 0 +
STACK CFI 384c0 .cfa: sp 32 +
STACK CFI 384c8 .cfa: x29 32 + x19: .cfa -16 + ^ .ra: .cfa -24 + ^ x29: .cfa -32 + ^
STACK CFI 384d8 .cfa: sp 32 +
STACK CFI 384e0 .cfa: sp 0 +
STACK CFI INIT 38748 8 .cfa: sp 0 +
STACK CFI INIT 38750 24 .cfa: sp 0 +
STACK CFI 38754 .cfa: sp 32 +
STACK CFI 3875c .cfa: x29 32 + x19: .cfa -16 + ^ .ra: .cfa -24 + ^ x29: .cfa -32 + ^
STACK CFI 38768 .cfa: sp 32 +
STACK CFI 38770 .cfa: sp 0 +
STACK CFI INIT 38774 28 .cfa: sp 0 +
STACK CFI 38778 .cfa: sp 32 +
STACK CFI 38780 .cfa: x29 32 + x19: .cfa -16 + ^ .ra: .cfa -24 + ^ x29: .cfa -32 + ^
STACK CFI 38790 .cfa: sp 32 +
STACK CFI 38798 .cfa: sp 0 +
STACK CFI INIT 38994 8 .cfa: sp 0 +
STACK CFI INIT 3899c 24 .cfa: sp 0 +
STACK CFI 389a0 .cfa: sp 32 +
STACK CFI 389a8 .cfa: x29 32 + x19: .cfa -16 + ^ .ra: .cfa -24 + ^ x29: .cfa -32 + ^
STACK CFI 389b4 .cfa: sp 32 +
STACK CFI 389bc .cfa: sp 0 +
STACK CFI INIT 389c0 28 .cfa: sp 0 +
STACK CFI 389c4 .cfa: sp 32 +
STACK CFI 389cc .cfa: x29 32 + x19: .cfa -16 + ^ .ra: .cfa -24 + ^ x29: .cfa -32 + ^
STACK CFI 389dc .cfa: sp 32 +
STACK CFI 389e4 .cfa: sp 0 +
STACK CFI INIT 3a0d0 4 .cfa: sp 0 +
STACK CFI INIT 3a0d4 14 .cfa: sp 0 +
STACK CFI INIT 3a5f4 c .cfa: sp 0 +
STACK CFI INIT 3a600 24c .cfa: sp 0 +
STACK CFI INIT 3a84c a0 .cfa: sp 0 +
STACK CFI 3a858 .cfa: sp 32 +
STACK CFI 3a8b0 .cfa: sp 0 +
STACK CFI 3a8b4 .cfa: sp 32 +
STACK CFI 3a8bc .cfa: sp 0 +
STACK CFI 3a8c0 .cfa: sp 32 +
STACK CFI 3a8d4 .cfa: sp 0 +
STACK CFI 3a8d8 .cfa: sp 32 +
STACK CFI 3a8e8 .cfa: sp 0 +
STACK CFI INIT 3a8ec 38 .cfa: sp 0 +
STACK CFI 3a8f8 .cfa: sp 32 +
STACK CFI 3a920 .cfa: sp 0 +
STACK CFI INIT 3abb8 7c .cfa: sp 0 +
STACK CFI 3abbc .cfa: sp 32 +
STACK CFI 3abc4 .cfa: x29 32 + x19: .cfa -16 + ^ .ra: .cfa -24 + ^ x29: .cfa -32 + ^
STACK CFI 3abf0 .cfa: sp 32 +
STACK CFI 3abf8 .cfa: sp 0 +
STACK CFI 3abfc .cfa: x29 32 +
STACK CFI 3ac28 .cfa: sp 32 +
STACK CFI 3ac30 .cfa: sp 0 +
STACK CFI INIT 3ac84 2c .cfa: sp 0 +
STACK CFI 3ac88 .cfa: sp 32 +
STACK CFI 3ac90 .cfa: x29 32 + x19: .cfa -16 + ^ .ra: .cfa -24 + ^ x29: .cfa -32 + ^
STACK CFI 3aca4 .cfa: sp 32 +
STACK CFI 3acac .cfa: sp 0 +
STACK CFI INIT 3b470 64 .cfa: sp 0 +
STACK CFI 3b474 .cfa: sp 32 +
STACK CFI 3b47c .cfa: x29 32 + x19: .cfa -16 + ^ .ra: .cfa -24 + ^ x29: .cfa -32 + ^
STACK CFI 3b498 .cfa: sp 32 +
STACK CFI 3b4a0 .cfa: sp 0 +
STACK CFI 3b4a4 .cfa: x29 32 +
STACK CFI 3b4c8 .cfa: sp 32 +
STACK CFI 3b4d0 .cfa: sp 0 +
STACK CFI INIT 3b4d4 570 .cfa: sp 0 +
STACK CFI 3b4d8 .cfa: sp 176 +
STACK CFI 3b4ec .cfa: x29 64 + x19: .cfa -8 + ^ x20: .cfa -16 + ^ x21: .cfa -24 + ^ x22: .cfa -32 + ^ x23: .cfa -40 + ^ x24: .cfa -48 + ^ .ra: .cfa -56 + ^ x29: .cfa -64 + ^
STACK CFI 3b71c .cfa: sp 176 +
STACK CFI 3b730 .cfa: sp 0 +
STACK CFI 3b734 .cfa: x29 64 +
STACK CFI 3b780 .cfa: sp 176 +
STACK CFI 3b794 .cfa: sp 0 +
STACK CFI 3b798 .cfa: x29 64 +
STACK CFI 3b7d0 .cfa: sp 176 +
STACK CFI 3b7e4 .cfa: sp 0 +
STACK CFI 3b7e8 .cfa: x29 64 +
STACK CFI 3b800 .cfa: sp 176 +
STACK CFI 3b814 .cfa: sp 0 +
STACK CFI 3b818 .cfa: x29 64 +
STACK CFI 3b838 .cfa: sp 176 +
STACK CFI 3b84c .cfa: sp 0 +
STACK CFI 3b850 .cfa: x29 64 +
STACK CFI 3b868 .cfa: sp 176 +
STACK CFI 3b87c .cfa: sp 0 +
STACK CFI 3b880 .cfa: x29 64 +
STACK CFI 3b894 .cfa: sp 176 +
STACK CFI 3b8a8 .cfa: sp 0 +
STACK CFI 3b8ac .cfa: x29 64 +
STACK CFI 3b8c0 .cfa: sp 176 +
STACK CFI 3b8d4 .cfa: sp 0 +
STACK CFI 3b8d8 .cfa: x29 64 +
STACK CFI 3b8e8 .cfa: sp 176 +
STACK CFI 3b8fc .cfa: sp 0 +
STACK CFI 3b900 .cfa: x29 64 +
STACK CFI 3b910 .cfa: sp 176 +
STACK CFI 3b924 .cfa: sp 0 +
STACK CFI 3b928 .cfa: x29 64 +
STACK CFI 3b940 .cfa: sp 176 +
STACK CFI 3b954 .cfa: sp 0 +
STACK CFI 3b958 .cfa: x29 64 +
STACK CFI 3b96c .cfa: sp 176 +
STACK CFI 3b980 .cfa: sp 0 +
STACK CFI 3b984 .cfa: x29 64 +
STACK CFI 3b99c .cfa: sp 176 +
STACK CFI 3b9b0 .cfa: sp 0 +
STACK CFI 3b9b4 .cfa: x29 64 +
STACK CFI 3b9e0 .cfa: sp 176 +
STACK CFI 3b9f4 .cfa: sp 0 +
STACK CFI 3b9f8 .cfa: x29 64 +
STACK CFI 3ba0c .cfa: sp 176 +
STACK CFI 3ba20 .cfa: sp 0 +
STACK CFI 3ba24 .cfa: x29 64 +
STACK CFI INIT 3ba44 228 .cfa: sp 0 +
STACK CFI INIT 3bc6c 2dc .cfa: sp 0 +
STACK CFI INIT 3bf48 53c .cfa: sp 0 +
STACK CFI INIT 3c484 78 .cfa: sp 0 +
STACK CFI 3c488 .cfa: sp 48 +
STACK CFI 3c494 .cfa: x29 48 + x19: .cfa -8 + ^ x20: .cfa -16 + ^ x21: .cfa -24 + ^ x22: .cfa -32 + ^ .ra: .cfa -40 + ^ x29: .cfa -48 + ^
STACK CFI 3c4dc .cfa: sp 48 +
STACK CFI 3c4e8 .cfa: sp 0 +
STACK CFI 3c4ec .cfa: sp 48 +
STACK CFI 3c4f8 .cfa: sp 0 +
STACK CFI INIT 3c4fc 8c .cfa: sp 0 +
STACK CFI 3c500 .cfa: sp 32 +
STACK CFI 3c508 .cfa: x29 32 + x19: .cfa -16 + ^ .ra: .cfa -24 + ^ x29: .cfa -32 + ^
STACK CFI 3c53c .cfa: sp 32 +
STACK CFI 3c544 .cfa: sp 0 +
STACK CFI 3c548 .cfa: x29 32 +
STACK CFI 3c57c .cfa: sp 32 +
STACK CFI 3c584 .cfa: sp 0 +
STACK CFI INIT 3c588 24 .cfa: sp 0 +
STACK CFI 3c58c .cfa: sp 32 +
STACK CFI 3c594 .cfa: x29 32 + x19: .cfa -16 + ^ .ra: .cfa -24 + ^ x29: .cfa -32 + ^
STACK CFI 3c5a0 .cfa: sp 32 +
STACK CFI 3c5a8 .cfa: sp 0 +
STACK CFI INIT 3c5ac 150 .cfa: sp 0 +
STACK CFI 3c5b0 .cfa: sp 48 +
STACK CFI 3c5bc .cfa: x29 48 + x19: .cfa -8 + ^ x20: .cfa -16 + ^ x21: .cfa -24 + ^ x22: .cfa -32 + ^ .ra: .cfa -40 + ^ x29: .cfa -48 + ^
STACK CFI 3c6ec .cfa: sp 48 +
STACK CFI 3c6f8 .cfa: sp 0 +
STACK CFI INIT 3c6fc 68 .cfa: sp 0 +
STACK CFI 3c700 .cfa: sp 64 +
STACK CFI 3c70c .cfa: x29 32 + x19: .cfa -16 + ^ .ra: .cfa -24 + ^ x29: .cfa -32 + ^
STACK CFI 3c750 .cfa: sp 64 +
STACK CFI 3c75c .cfa: sp 0 +
STACK CFI 3c760 .cfa: x29 32 +
STACK CFI INIT 3c764 90 .cfa: sp 0 +
STACK CFI 3c768 .cfa: sp 32 +
STACK CFI 3c770 .cfa: x29 32 + x19: .cfa -8 + ^ x20: .cfa -16 + ^ .ra: .cfa -24 + ^ x29: .cfa -32 + ^
STACK CFI 3c79c .cfa: sp 32 +
STACK CFI 3c7a4 .cfa: sp 0 +
STACK CFI 3c7a8 .cfa: x29 32 +
STACK CFI 3c7e8 .cfa: sp 32 +
STACK CFI 3c7f0 .cfa: sp 0 +
STACK CFI INIT 3c7f4 ec .cfa: sp 0 +
STACK CFI 3c7f8 .cfa: sp 112 +
STACK CFI 3c808 .cfa: x29 48 + x19: .cfa -8 + ^ x20: .cfa -16 + ^ x21: .cfa -32 + ^ .ra: .cfa -40 + ^ x29: .cfa -48 + ^
STACK CFI 3c8c8 .cfa: sp 112 +
STACK CFI 3c8d8 .cfa: sp 0 +
STACK CFI 3c8dc .cfa: x29 48 +
STACK CFI INIT 3c8e0 ec .cfa: sp 0 +
STACK CFI 3c8e4 .cfa: sp 112 +
STACK CFI 3c8f4 .cfa: x29 48 + x19: .cfa -8 + ^ x20: .cfa -16 + ^ x21: .cfa -32 + ^ .ra: .cfa -40 + ^ x29: .cfa -48 + ^
STACK CFI 3c9b4 .cfa: sp 112 +
STACK CFI 3c9c4 .cfa: sp 0 +
STACK CFI 3c9c8 .cfa: x29 48 +
STACK CFI INIT 3c9cc 48 .cfa: sp 0 +
STACK CFI 3c9d0 .cfa: sp 32 +
STACK CFI 3c9d8 .cfa: x29 32 + x19: .cfa -8 + ^ x20: .cfa -16 + ^ .ra: .cfa -24 + ^ x29: .cfa -32 + ^
STACK CFI 3c9fc .cfa: sp 32 +
STACK CFI 3ca04 .cfa: sp 0 +
STACK CFI 3ca08 .cfa: x29 32 +
STACK CFI INIT 3ca14 98 .cfa: sp 0 +
STACK CFI 3ca18 .cfa: sp 80 +
STACK CFI 3ca24 .cfa: x29 32 + x19: .cfa -16 + ^ .ra: .cfa -24 + ^ x29: .cfa -32 + ^
STACK CFI 3ca98 .cfa: sp 80 +
STACK CFI 3caa4 .cfa: sp 0 +
STACK CFI 3caa8 .cfa: x29 32 +
STACK CFI INIT 3caac 260 .cfa: sp 0 +
STACK CFI 3cab0 .cfa: sp 112 +
STACK CFI 3cac8 .cfa: x29 80 + x19: .cfa -8 + ^ x20: .cfa -16 + ^ x21: .cfa -24 + ^ x22: .cfa -32 + ^ x23: .cfa -40 + ^ x24: .cfa -48 + ^ x25: .cfa -64 + ^ .ra: .cfa -72 + ^ x29: .cfa -80 + ^
STACK CFI 3ccac .cfa: sp 112 +
STACK CFI 3ccc4 .cfa: sp 0 +
STACK CFI 3ccc8 .cfa: x29 80 +
STACK CFI INIT 3cd0c 150 .cfa: sp 0 +
STACK CFI 3cd10 .cfa: sp 48 +
STACK CFI 3cd1c .cfa: x29 48 + x19: .cfa -8 + ^ x20: .cfa -16 + ^ x21: .cfa -24 + ^ x22: .cfa -32 + ^ .ra: .cfa -40 + ^ x29: .cfa -48 + ^
STACK CFI 3ce4c .cfa: sp 48 +
STACK CFI 3ce58 .cfa: sp 0 +
STACK CFI INIT 3ce5c 1e0 .cfa: sp 0 +
STACK CFI 3ce60 .cfa: sp 96 +
STACK CFI 3ce74 .cfa: x29 64 + x19: .cfa -8 + ^ x20: .cfa -16 + ^ x21: .cfa -24 + ^ x22: .cfa -32 + ^ x23: .cfa -40 + ^ x24: .cfa -48 + ^ .ra: .cfa -56 + ^ x29: .cfa -64 + ^
STACK CFI 3cff4 .cfa: sp 96 +
STACK CFI 3d008 .cfa: sp 0 +
STACK CFI 3d00c .cfa: x29 64 +
STACK CFI INIT 3d03c 284 .cfa: sp 0 +
STACK CFI 3d040 .cfa: sp 112 +
STACK CFI 3d058 .cfa: x29 80 + x19: .cfa -8 + ^ x20: .cfa -16 + ^ x21: .cfa -24 + ^ x22: .cfa -32 + ^ x23: .cfa -40 + ^ x24: .cfa -48 + ^ x25: .cfa -64 + ^ .ra: .cfa -72 + ^ x29: .cfa -80 + ^
STACK CFI 3d260 .cfa: sp 112 +
STACK CFI 3d278 .cfa: sp 0 +
STACK CFI 3d27c .cfa: x29 80 +
STACK CFI INIT 3d2c0 208 .cfa: sp 0 +
STACK CFI 3d2c4 .cfa: sp 96 +
STACK CFI 3d2d8 .cfa: x29 64 + x19: .cfa -8 + ^ x20: .cfa -16 + ^ x21: .cfa -24 + ^ x22: .cfa -32 + ^ x23: .cfa -40 + ^ x24: .cfa -48 + ^ .ra: .cfa -56 + ^ x29: .cfa -64 + ^
STACK CFI 3d480 .cfa: sp 96 +
STACK CFI 3d494 .cfa: sp 0 +
STACK CFI 3d498 .cfa: x29 64 +
STACK CFI INIT 3d4c8 360 .cfa: sp 0 +
STACK CFI 3d4cc .cfa: sp 160 +
STACK CFI 3d4e8 .cfa: x29 96 + x19: .cfa -8 + ^ x20: .cfa -16 + ^ x21: .cfa -24 + ^ x22: .cfa -32 + ^ x23: .cfa -40 + ^ x24: .cfa -48 + ^ x25: .cfa -56 + ^ x26: .cfa -64 + ^ x27: .cfa -72 + ^ x28: .cfa -80 + ^ .ra: .cfa -88 + ^ x29: .cfa -96 + ^
STACK CFI 3d7b4 .cfa: sp 160 +
STACK CFI 3d7d0 .cfa: sp 0 +
STACK CFI 3d7d4 .cfa: x29 96 +
STACK CFI INIT 3d828 314 .cfa: sp 0 +
STACK CFI 3d82c .cfa: sp 144 +
STACK CFI 3d848 .cfa: x29 96 + x19: .cfa -8 + ^ x20: .cfa -16 + ^ x21: .cfa -24 + ^ x22: .cfa -32 + ^ x23: .cfa -40 + ^ x24: .cfa -48 + ^ x25: .cfa -56 + ^ x26: .cfa -64 + ^ x27: .cfa -72 + ^ x28: .cfa -80 + ^ .ra: .cfa -88 + ^ x29: .cfa -96 + ^
STACK CFI 3dac4 .cfa: sp 144 +
STACK CFI 3dae0 .cfa: sp 0 +
STACK CFI 3dae4 .cfa: x29 96 +
STACK CFI INIT 3db3c 290 .cfa: sp 0 +
STACK CFI 3db40 .cfa: sp 128 +
STACK CFI 3db58 .cfa: x29 80 + x19: .cfa -8 + ^ x20: .cfa -16 + ^ x21: .cfa -24 + ^ x22: .cfa -32 + ^ x23: .cfa -40 + ^ x24: .cfa -48 + ^ x25: .cfa -56 + ^ x26: .cfa -64 + ^ .ra: .cfa -72 + ^ x29: .cfa -80 + ^
STACK CFI 3ddac .cfa: sp 128 +
STACK CFI 3ddc4 .cfa: sp 0 +
STACK CFI 3ddc8 .cfa: x29 80 +
STACK CFI INIT 3ddcc ddc .cfa: sp 0 +
STACK CFI 3ddd0 .cfa: sp 144 +
STACK CFI 3ddec .cfa: x29 96 + x19: .cfa -8 + ^ x20: .cfa -16 + ^ x21: .cfa -24 + ^ x22: .cfa -32 + ^ x23: .cfa -40 + ^ x24: .cfa -48 + ^ x25: .cfa -56 + ^ x26: .cfa -64 + ^ x27: .cfa -72 + ^ x28: .cfa -80 + ^ .ra: .cfa -88 + ^ x29: .cfa -96 + ^
STACK CFI 3ea80 .cfa: sp 144 +
STACK CFI 3ea9c .cfa: sp 0 +
STACK CFI 3eaa0 .cfa: x29 96 +
STACK CFI INIT 3eba8 1d0 .cfa: sp 0 +
STACK CFI 3ebac .cfa: sp 80 +
STACK CFI 3ebc0 .cfa: x29 80 + x19: .cfa -8 + ^ x20: .cfa -16 + ^ x21: .cfa -24 + ^ x22: .cfa -32 + ^ x23: .cfa -40 + ^ x24: .cfa -48 + ^ x25: .cfa -64 + ^ .ra: .cfa -72 + ^ x29: .cfa -80 + ^
STACK CFI 3ed60 .cfa: sp 80 +
STACK CFI 3ed74 .cfa: sp 0 +
STACK CFI INIT 3ed78 23c .cfa: sp 0 +
STACK CFI 3ed7c .cfa: sp 112 +
STACK CFI 3ed90 .cfa: x29 64 + x19: .cfa -8 + ^ x20: .cfa -16 + ^ x21: .cfa -24 + ^ x22: .cfa -32 + ^ x23: .cfa -40 + ^ x24: .cfa -48 + ^ .ra: .cfa -56 + ^ x29: .cfa -64 + ^
STACK CFI 3ef6c .cfa: sp 112 +
STACK CFI 3ef80 .cfa: sp 0 +
STACK CFI 3ef84 .cfa: x29 64 +
STACK CFI INIT 3efb4 30c .cfa: sp 0 +
STACK CFI 3efb8 .cfa: sp 80 +
STACK CFI 3efcc .cfa: x29 64 + x19: .cfa -8 + ^ x20: .cfa -16 + ^ x21: .cfa -24 + ^ x22: .cfa -32 + ^ x23: .cfa -40 + ^ x24: .cfa -48 + ^ .ra: .cfa -56 + ^ x29: .cfa -64 + ^
STACK CFI 3f148 .cfa: sp 80 +
STACK CFI 3f15c .cfa: sp 0 +
STACK CFI 3f160 .cfa: x29 64 +
STACK CFI INIT 3f2c0 178 .cfa: sp 0 +
STACK CFI 3f2c4 .cfa: sp 80 +
STACK CFI 3f2d8 .cfa: x29 64 + x19: .cfa -8 + ^ x20: .cfa -16 + ^ x21: .cfa -24 + ^ x22: .cfa -32 + ^ x23: .cfa -40 + ^ x24: .cfa -48 + ^ .ra: .cfa -56 + ^ x29: .cfa -64 + ^
STACK CFI 3f41c .cfa: sp 80 +
STACK CFI 3f430 .cfa: sp 0 +
STACK CFI 3f434 .cfa: x29 64 +
STACK CFI INIT 3f438 178 .cfa: sp 0 +
STACK CFI 3f43c .cfa: sp 80 +
STACK CFI 3f450 .cfa: x29 64 + x19: .cfa -8 + ^ x20: .cfa -16 + ^ x21: .cfa -24 + ^ x22: .cfa -32 + ^ x23: .cfa -40 + ^ x24: .cfa -48 + ^ .ra: .cfa -56 + ^ x29: .cfa -64 + ^
STACK CFI 3f594 .cfa: sp 80 +
STACK CFI 3f5a8 .cfa: sp 0 +
STACK CFI 3f5ac .cfa: x29 64 +
STACK CFI INIT 3f5b0 240 .cfa: sp 0 +
STACK CFI 3f5b4 .cfa: sp 96 +
STACK CFI 3f5cc .cfa: x29 96 + x19: .cfa -8 + ^ x20: .cfa -16 + ^ x21: .cfa -24 + ^ x22: .cfa -32 + ^ x23: .cfa -40 + ^ x24: .cfa -48 + ^ x25: .cfa -56 + ^ x26: .cfa -64 + ^ x27: .cfa -72 + ^ x28: .cfa -80 + ^ .ra: .cfa -88 + ^ x29: .cfa -96 + ^
STACK CFI 3f7d4 .cfa: sp 96 +
STACK CFI 3f7ec .cfa: sp 0 +
STACK CFI INIT 40464 154 .cfa: sp 0 +
STACK CFI 40468 .cfa: sp 96 +
STACK CFI 4047c .cfa: x29 64 + x19: .cfa -8 + ^ x20: .cfa -16 + ^ x21: .cfa -24 + ^ x22: .cfa -32 + ^ x23: .cfa -48 + ^ .ra: .cfa -56 + ^ x29: .cfa -64 + ^
STACK CFI 4055c .cfa: sp 96 +
STACK CFI 40570 .cfa: sp 0 +
STACK CFI 40574 .cfa: x29 64 +
STACK CFI INIT 40824 44 .cfa: sp 0 +
STACK CFI 40828 .cfa: sp 32 +
STACK CFI 40830 .cfa: x29 32 + x19: .cfa -16 + ^ .ra: .cfa -24 + ^ x29: .cfa -32 + ^
STACK CFI 4084c .cfa: sp 32 +
STACK CFI 40854 .cfa: sp 0 +
STACK CFI 40858 .cfa: x29 32 +
STACK CFI 4085c .cfa: sp 32 +
STACK CFI 40864 .cfa: sp 0 +
STACK CFI INIT 40868 1d0 .cfa: sp 0 +
STACK CFI 4086c .cfa: sp 64 +
STACK CFI 4087c .cfa: x29 64 + x19: .cfa -8 + ^ x20: .cfa -16 + ^ x21: .cfa -24 + ^ x22: .cfa -32 + ^ x23: .cfa -40 + ^ x24: .cfa -48 + ^ .ra: .cfa -56 + ^ x29: .cfa -64 + ^
STACK CFI 4093c .cfa: sp 64 +
STACK CFI 4094c .cfa: sp 0 +
STACK CFI 40950 .cfa: x29 64 +
STACK CFI INIT 40a38 17c .cfa: sp 0 +
STACK CFI INIT 40bb4 ac .cfa: sp 0 +
STACK CFI 40bb8 .cfa: sp 64 +
STACK CFI 40bc8 .cfa: x29 64 + x19: .cfa -8 + ^ x20: .cfa -16 + ^ x21: .cfa -24 + ^ x22: .cfa -32 + ^ x23: .cfa -48 + ^ .ra: .cfa -56 + ^ x29: .cfa -64 + ^
STACK CFI 40c44 .cfa: sp 64 +
STACK CFI 40c54 .cfa: sp 0 +
STACK CFI 40c58 .cfa: x29 64 +
STACK CFI INIT 40c60 110 .cfa: sp 0 +
STACK CFI 40c64 .cfa: sp 64 +
STACK CFI 40c74 .cfa: x29 64 + x19: .cfa -8 + ^ x20: .cfa -16 + ^ x21: .cfa -24 + ^ x22: .cfa -32 + ^ x23: .cfa -40 + ^ x24: .cfa -48 + ^ .ra: .cfa -56 + ^ x29: .cfa -64 + ^
STACK CFI 40d54 .cfa: sp 64 +
STACK CFI 40d64 .cfa: sp 0 +
STACK CFI 40d68 .cfa: x29 64 +
STACK CFI INIT 41128 a0 .cfa: sp 0 +
STACK CFI 4112c .cfa: sp 48 +
STACK CFI 41138 .cfa: x29 48 + x19: .cfa -8 + ^ x20: .cfa -16 + ^ x21: .cfa -24 + ^ x22: .cfa -32 + ^ .ra: .cfa -40 + ^ x29: .cfa -48 + ^
STACK CFI 411a4 .cfa: sp 48 +
STACK CFI 411b0 .cfa: sp 0 +
STACK CFI 411b4 .cfa: sp 48 +
STACK CFI 411c0 .cfa: sp 0 +
STACK CFI 411c4 .cfa: x29 48 +
STACK CFI INIT 41e7c 158 .cfa: sp 0 +
STACK CFI 41e80 .cfa: sp 96 +
STACK CFI 41e94 .cfa: x29 64 + x19: .cfa -8 + ^ x20: .cfa -16 + ^ x21: .cfa -24 + ^ x22: .cfa -32 + ^ x23: .cfa -48 + ^ .ra: .cfa -56 + ^ x29: .cfa -64 + ^
STACK CFI 41f78 .cfa: sp 96 +
STACK CFI 41f8c .cfa: sp 0 +
STACK CFI 41f90 .cfa: x29 64 +
STACK CFI INIT 41fd4 190 .cfa: sp 0 +
STACK CFI INIT 42c60 1dc .cfa: sp 0 +
STACK CFI 42c64 .cfa: sp 80 +
STACK CFI 42c78 .cfa: x29 80 + x19: .cfa -8 + ^ x20: .cfa -16 + ^ x21: .cfa -24 + ^ x22: .cfa -32 + ^ x23: .cfa -40 + ^ x24: .cfa -48 + ^ x25: .cfa -64 + ^ .ra: .cfa -72 + ^ x29: .cfa -80 + ^
STACK CFI 42e24 .cfa: sp 80 +
STACK CFI 42e38 .cfa: sp 0 +
STACK CFI INIT 4426c 124 .cfa: sp 0 +
STACK CFI 4429c .cfa: sp 32 +
STACK CFI 442a4 .cfa: x29 32 + x19: .cfa -8 + ^ x20: .cfa -16 + ^ .ra: .cfa -24 + ^ x29: .cfa -32 + ^
STACK CFI 44384 .cfa: sp 32 +
STACK CFI 4438c .cfa: sp 0 +
STACK CFI INIT 44aec 320 .cfa: sp 0 +
STACK CFI 44af0 .cfa: sp 64 +
STACK CFI 44b00 .cfa: x29 64 + x19: .cfa -8 + ^ x20: .cfa -16 + ^ x21: .cfa -24 + ^ x22: .cfa -32 + ^ x23: .cfa -40 + ^ x24: .cfa -48 + ^ .ra: .cfa -56 + ^ x29: .cfa -64 + ^
STACK CFI 44b7c .cfa: sp 64 +
STACK CFI 44b8c .cfa: sp 0 +
STACK CFI 44b90 .cfa: x29 64 +
STACK CFI 44d64 .cfa: sp 64 +
STACK CFI 44d74 .cfa: sp 0 +
STACK CFI 44d78 .cfa: x29 64 +
STACK CFI 44d88 .cfa: sp 64 +
STACK CFI 44d98 .cfa: sp 0 +
STACK CFI 44d9c .cfa: x29 64 +
STACK CFI INIT 44e0c a0 .cfa: sp 0 +
STACK CFI 44e10 .cfa: sp 48 +
STACK CFI 44e1c .cfa: x29 48 + x19: .cfa -8 + ^ x20: .cfa -16 + ^ x21: .cfa -24 + ^ x22: .cfa -32 + ^ .ra: .cfa -40 + ^ x29: .cfa -48 + ^
STACK CFI 44e88 .cfa: sp 48 +
STACK CFI 44e94 .cfa: sp 0 +
STACK CFI 44e98 .cfa: sp 48 +
STACK CFI 44ea4 .cfa: sp 0 +
STACK CFI 44ea8 .cfa: x29 48 +
STACK CFI INIT 45d5c 160 .cfa: sp 0 +
STACK CFI 45d60 .cfa: sp 64 +
STACK CFI 45d70 .cfa: x29 64 + x19: .cfa -8 + ^ x20: .cfa -16 + ^ x21: .cfa -24 + ^ x22: .cfa -32 + ^ x23: .cfa -48 + ^ .ra: .cfa -56 + ^ x29: .cfa -64 + ^
STACK CFI 45e68 .cfa: sp 64 +
STACK CFI 45e78 .cfa: sp 0 +
STACK CFI 45e7c .cfa: x29 64 +
STACK CFI INIT 45ebc 214 .cfa: sp 0 +
STACK CFI 45ec0 .cfa: sp 128 +
STACK CFI 45edc .cfa: x29 96 + x19: .cfa -8 + ^ x20: .cfa -16 + ^ x21: .cfa -24 + ^ x22: .cfa -32 + ^ x23: .cfa -40 + ^ x24: .cfa -48 + ^ x25: .cfa -56 + ^ x26: .cfa -64 + ^ x27: .cfa -80 + ^ .ra: .cfa -88 + ^ x29: .cfa -96 + ^
STACK CFI 46058 .cfa: sp 128 +
STACK CFI 46074 .cfa: sp 0 +
STACK CFI 46078 .cfa: x29 96 +
STACK CFI INIT 47d6c 290 .cfa: sp 0 +
STACK CFI 47d70 .cfa: sp 16 +
STACK CFI 47d74 .cfa: x29 16 + .ra: .cfa -8 + ^ x29: .cfa -16 + ^
STACK CFI 47e00 .cfa: sp 16 +
STACK CFI 47e04 .cfa: sp 0 +
STACK CFI 47e08 .cfa: x29 16 +
STACK CFI 47e58 .cfa: sp 16 +
STACK CFI 47e5c .cfa: sp 0 +
STACK CFI 47e60 .cfa: x29 16 +
STACK CFI 47fc4 .cfa: sp 16 +
STACK CFI 47fc8 .cfa: sp 0 +
STACK CFI 47fcc .cfa: x29 16 +
STACK CFI INIT 47ffc 158 .cfa: sp 0 +
STACK CFI 48000 .cfa: sp 112 +
STACK CFI 4801c .cfa: x29 96 + x19: .cfa -8 + ^ x20: .cfa -16 + ^ x21: .cfa -24 + ^ x22: .cfa -32 + ^ x23: .cfa -40 + ^ x24: .cfa -48 + ^ x25: .cfa -56 + ^ x26: .cfa -64 + ^ x27: .cfa -72 + ^ x28: .cfa -80 + ^ .ra: .cfa -88 + ^ x29: .cfa -96 + ^
STACK CFI 48104 .cfa: sp 112 +
STACK CFI 48108 .cfa: x29 96 +
STACK CFI 48110 .cfa: sp 112 +
STACK CFI 4812c .cfa: sp 0 +
STACK CFI 48130 .cfa: x29 96 +
STACK CFI 48150 .cfa: sp 112 +
STACK CFI INIT 48154 e54 .cfa: sp 0 +
STACK CFI 48158 .cfa: sp 192 +
STACK CFI 48174 .cfa: x29 96 + x19: .cfa -8 + ^ x20: .cfa -16 + ^ x21: .cfa -24 + ^ x22: .cfa -32 + ^ x23: .cfa -40 + ^ x24: .cfa -48 + ^ x25: .cfa -56 + ^ x26: .cfa -64 + ^ x27: .cfa -72 + ^ x28: .cfa -80 + ^ .ra: .cfa -88 + ^ x29: .cfa -96 + ^
STACK CFI 48e90 .cfa: sp 192 +
STACK CFI 48eac .cfa: sp 0 +
STACK CFI 48eb0 .cfa: x29 96 +
STACK CFI INIT 48fa8 1068 .cfa: sp 0 +
STACK CFI 48fac .cfa: sp 288 +
STACK CFI 48fc8 .cfa: x29 96 + x19: .cfa -8 + ^ x20: .cfa -16 + ^ x21: .cfa -24 + ^ x22: .cfa -32 + ^ x23: .cfa -40 + ^ x24: .cfa -48 + ^ x25: .cfa -56 + ^ x26: .cfa -64 + ^ x27: .cfa -72 + ^ x28: .cfa -80 + ^ .ra: .cfa -88 + ^ x29: .cfa -96 + ^
STACK CFI 49d58 .cfa: sp 288 +
STACK CFI 49d74 .cfa: sp 0 +
STACK CFI 49d78 .cfa: x29 96 +
STACK CFI INIT 4a010 520 .cfa: sp 0 +
STACK CFI 4a014 .cfa: sp 144 +
STACK CFI 4a030 .cfa: x29 96 + x19: .cfa -8 + ^ x20: .cfa -16 + ^ x21: .cfa -24 + ^ x22: .cfa -32 + ^ x23: .cfa -40 + ^ x24: .cfa -48 + ^ x25: .cfa -56 + ^ x26: .cfa -64 + ^ x27: .cfa -72 + ^ x28: .cfa -80 + ^ .ra: .cfa -88 + ^ x29: .cfa -96 + ^
STACK CFI 4a50c .cfa: sp 144 +
STACK CFI 4a528 .cfa: sp 0 +
STACK CFI 4a52c .cfa: x29 96 +
STACK CFI INIT 4aed0 136c .cfa: sp 0 +
STACK CFI 4aed4 .cfa: sp 224 +
STACK CFI 4aef0 .cfa: x29 96 + x19: .cfa -8 + ^ x20: .cfa -16 + ^ x21: .cfa -24 + ^ x22: .cfa -32 + ^ x23: .cfa -40 + ^ x24: .cfa -48 + ^ x25: .cfa -56 + ^ x26: .cfa -64 + ^ x27: .cfa -72 + ^ x28: .cfa -80 + ^ .ra: .cfa -88 + ^ x29: .cfa -96 + ^
STACK CFI 4c218 .cfa: sp 224 +
STACK CFI 4c234 .cfa: sp 0 +
STACK CFI 4c238 .cfa: x29 96 +
STACK CFI INIT 4c23c 1b8 .cfa: sp 0 +
STACK CFI INIT 24a9c b8 .cfa: sp 0 +
STACK CFI 24aa0 .cfa: sp 32 +
STACK CFI 24aa8 .cfa: x29 32 + x19: .cfa -16 + ^ .ra: .cfa -24 + ^ x29: .cfa -32 + ^
STACK CFI 24b24 .cfa: sp 32 +
STACK CFI 24b2c .cfa: sp 0 +
STACK CFI 24b30 .cfa: sp 32 +
STACK CFI 24b38 .cfa: sp 0 +
STACK CFI 24b3c .cfa: x29 32 +
STACK CFI INIT 24b6c 460 .cfa: sp 0 +
STACK CFI 24b70 .cfa: sp 352 +
STACK CFI 24b80 .cfa: x29 48 + x19: .cfa -8 + ^ x20: .cfa -16 + ^ x28: .cfa -32 + ^ .ra: .cfa -40 + ^ x29: .cfa -48 + ^
STACK CFI 24dbc .cfa: sp 352 +
STACK CFI 24dcc .cfa: sp 0 +
STACK CFI 24dd0 .cfa: x29 48 +
STACK CFI INIT 24fcc 158 .cfa: sp 0 +
STACK CFI 24fd0 .cfa: sp 144 +
STACK CFI 24fe4 .cfa: x29 64 + x19: .cfa -8 + ^ x20: .cfa -16 + ^ x21: .cfa -24 + ^ x22: .cfa -32 + ^ x23: .cfa -40 + ^ x24: .cfa -48 + ^ .ra: .cfa -56 + ^ x29: .cfa -64 + ^
STACK CFI 250b8 .cfa: sp 144 +
STACK CFI 250cc .cfa: sp 0 +
STACK CFI 250d0 .cfa: x29 64 +
STACK CFI INIT 251a0 d0 .cfa: sp 0 +
STACK CFI 251a4 .cfa: sp 32 +
STACK CFI 251ac .cfa: x29 32 + x19: .cfa -16 + ^ .ra: .cfa -24 + ^ x29: .cfa -32 + ^
STACK CFI 25240 .cfa: sp 32 +
STACK CFI 25248 .cfa: sp 0 +
STACK CFI 2524c .cfa: sp 32 +
STACK CFI 25254 .cfa: sp 0 +
STACK CFI 25258 .cfa: x29 32 +
STACK CFI INIT 25270 18c .cfa: sp 0 +
STACK CFI 25274 .cfa: sp 80 +
STACK CFI 25284 .cfa: x29 48 + x19: .cfa -8 + ^ x20: .cfa -16 + ^ x21: .cfa -24 + ^ x22: .cfa -32 + ^ .ra: .cfa -40 + ^ x29: .cfa -48 + ^
STACK CFI 25374 .cfa: sp 80 +
STACK CFI 25384 .cfa: sp 0 +
STACK CFI 25388 .cfa: x29 48 +
STACK CFI INIT 253fc e50 .cfa: sp 0 +
STACK CFI 25400 .cfa: sp 112 +
STACK CFI 2541c .cfa: x29 96 + x19: .cfa -8 + ^ x20: .cfa -16 + ^ x21: .cfa -24 + ^ x22: .cfa -32 + ^ x23: .cfa -40 + ^ x24: .cfa -48 + ^ x25: .cfa -56 + ^ x26: .cfa -64 + ^ x27: .cfa -72 + ^ x28: .cfa -80 + ^ .ra: .cfa -88 + ^ x29: .cfa -96 + ^ v8: .cfa -104 + ^ v9: .cfa -112 + ^
STACK CFI 26098 .cfa: sp 112 +
STACK CFI 260b4 .cfa: sp 0 +
STACK CFI 260b8 .cfa: x29 96 +
STACK CFI INIT 2624c 134 .cfa: sp 0 +
STACK CFI 26250 .cfa: sp 80 +
STACK CFI 26260 .cfa: x29 48 + x19: .cfa -8 + ^ x20: .cfa -16 + ^ x21: .cfa -24 + ^ x22: .cfa -32 + ^ .ra: .cfa -40 + ^ x29: .cfa -48 + ^
STACK CFI 26364 .cfa: sp 80 +
STACK CFI 26374 .cfa: sp 0 +
STACK CFI 26378 .cfa: x29 48 +
STACK CFI INIT 26380 320 .cfa: sp 0 +
STACK CFI 26384 .cfa: sp 96 +
STACK CFI 2639c .cfa: x29 96 + x19: .cfa -8 + ^ x20: .cfa -16 + ^ x21: .cfa -24 + ^ x22: .cfa -32 + ^ x23: .cfa -40 + ^ x24: .cfa -48 + ^ x25: .cfa -56 + ^ x26: .cfa -64 + ^ x28: .cfa -80 + ^ .ra: .cfa -88 + ^ x29: .cfa -96 + ^
STACK CFI 26574 .cfa: sp 96 +
STACK CFI 2658c .cfa: sp 0 +
STACK CFI 26590 .cfa: x29 96 +
STACK CFI INIT 266a0 14c .cfa: sp 0 +
STACK CFI 266a4 .cfa: sp 112 +
STACK CFI 266b8 .cfa: x29 40 + x19: .cfa -8 + ^ x20: .cfa -16 + ^ x21: .cfa -24 + ^ .ra: .cfa -32 + ^ x29: .cfa -40 + ^ v8: .cfa -48 + ^
STACK CFI 26780 .cfa: sp 112 +
STACK CFI 26794 .cfa: sp 0 +
STACK CFI 26798 .cfa: x29 40 +
STACK CFI INIT 267ec 13c .cfa: sp 0 +
STACK CFI 267f0 .cfa: sp 112 +
STACK CFI 26800 .cfa: x29 48 + x19: .cfa -8 + ^ x20: .cfa -16 + ^ x21: .cfa -32 + ^ .ra: .cfa -40 + ^ x29: .cfa -48 + ^
STACK CFI 268c0 .cfa: sp 112 +
STACK CFI 268d0 .cfa: sp 0 +
STACK CFI 268d4 .cfa: x29 48 +
STACK CFI INIT 26928 8fc .cfa: sp 0 +
STACK CFI 2692c .cfa: sp 112 +
STACK CFI 26948 .cfa: x29 96 + x19: .cfa -8 + ^ x20: .cfa -16 + ^ x21: .cfa -24 + ^ x22: .cfa -32 + ^ x23: .cfa -40 + ^ x24: .cfa -48 + ^ x25: .cfa -56 + ^ x26: .cfa -64 + ^ x27: .cfa -72 + ^ x28: .cfa -80 + ^ .ra: .cfa -88 + ^ x29: .cfa -96 + ^ v8: .cfa -112 + ^
STACK CFI 2706c .cfa: sp 112 +
STACK CFI 27088 .cfa: sp 0 +
STACK CFI 2708c .cfa: x29 96 +
STACK CFI INIT 27264 11b4 .cfa: sp 0 +
STACK CFI 27268 .cfa: sp 128 +
STACK CFI 27288 .cfa: x29 96 + x19: .cfa -8 + ^ x20: .cfa -16 + ^ x21: .cfa -24 + ^ x22: .cfa -32 + ^ x23: .cfa -40 + ^ x24: .cfa -48 + ^ x25: .cfa -56 + ^ x26: .cfa -64 + ^ x27: .cfa -72 + ^ x28: .cfa -80 + ^ .ra: .cfa -88 + ^ x29: .cfa -96 + ^ v8: .cfa -104 + ^ v9: .cfa -112 + ^ v10: .cfa -120 + ^ v11: .cfa -128 + ^
STACK CFI 2811c .cfa: sp 128 +
STACK CFI 2813c .cfa: sp 0 +
STACK CFI 28140 .cfa: x29 96 +
STACK CFI INIT 28458 f0 .cfa: sp 0 +
STACK CFI 2845c .cfa: sp 64 +
STACK CFI 28468 .cfa: x29 32 + x19: .cfa -8 + ^ x20: .cfa -16 + ^ .ra: .cfa -24 + ^ x29: .cfa -32 + ^
STACK CFI 28500 .cfa: sp 64 +
STACK CFI 2850c .cfa: sp 0 +
STACK CFI 28510 .cfa: x29 32 +
STACK CFI INIT 28548 f0 .cfa: sp 0 +
STACK CFI 2854c .cfa: sp 64 +
STACK CFI 28558 .cfa: x29 32 + x19: .cfa -8 + ^ x20: .cfa -16 + ^ .ra: .cfa -24 + ^ x29: .cfa -32 + ^
STACK CFI 285f0 .cfa: sp 64 +
STACK CFI 285fc .cfa: sp 0 +
STACK CFI 28600 .cfa: x29 32 +
STACK CFI INIT 28638 1c .cfa: sp 0 +
STACK CFI 2863c .cfa: sp 16 +
STACK CFI 28640 .cfa: x29 16 + .ra: .cfa -8 + ^ x29: .cfa -16 + ^
STACK CFI 28648 .cfa: sp 16 +
STACK CFI 2864c .cfa: sp 0 +
STACK CFI 28650 .cfa: x29 16 +
STACK CFI INIT 28654 1ec .cfa: sp 0 +
STACK CFI 28658 .cfa: sp 208 +
STACK CFI 28670 .cfa: x29 80 + x19: .cfa -8 + ^ x20: .cfa -16 + ^ x21: .cfa -24 + ^ x22: .cfa -32 + ^ x23: .cfa -40 + ^ x24: .cfa -48 + ^ x25: .cfa -64 + ^ .ra: .cfa -72 + ^ x29: .cfa -80 + ^
STACK CFI 287cc .cfa: sp 208 +
STACK CFI 287e4 .cfa: sp 0 +
STACK CFI 287e8 .cfa: x29 80 +
STACK CFI INIT 28840 168 .cfa: sp 0 +
STACK CFI 28844 .cfa: sp 32 +
STACK CFI 2884c .cfa: x29 32 + x19: .cfa -8 + ^ x20: .cfa -16 + ^ .ra: .cfa -24 + ^ x29: .cfa -32 + ^
STACK CFI 28994 .cfa: sp 32 +
STACK CFI 2899c .cfa: sp 0 +
STACK CFI 289a0 .cfa: x29 32 +
STACK CFI INIT 28b10 148 .cfa: sp 0 +
STACK CFI 28b14 .cfa: sp 96 +
STACK CFI 28b24 .cfa: x29 48 + x19: .cfa -8 + ^ x20: .cfa -16 + ^ x21: .cfa -32 + ^ .ra: .cfa -40 + ^ x29: .cfa -48 + ^
STACK CFI 28c0c .cfa: sp 96 +
STACK CFI 28c1c .cfa: sp 0 +
STACK CFI 28c20 .cfa: x29 48 +
STACK CFI INIT 28ce0 50 .cfa: sp 0 +
STACK CFI 28ce4 .cfa: sp 32 +
STACK CFI 28cec .cfa: x29 32 + x19: .cfa -8 + ^ x20: .cfa -16 + ^ .ra: .cfa -24 + ^ x29: .cfa -32 + ^
STACK CFI INIT 28f78 6c .cfa: sp 0 +
STACK CFI 28f7c .cfa: sp 32 +
STACK CFI 28f84 .cfa: x29 32 + x19: .cfa -16 + ^ .ra: .cfa -24 + ^ x29: .cfa -32 + ^
STACK CFI 28fd4 .cfa: sp 32 +
STACK CFI 28fdc .cfa: sp 0 +
STACK CFI 28fe0 .cfa: x29 32 +
STACK CFI INIT 28fe8 6c .cfa: sp 0 +
STACK CFI 28fec .cfa: sp 32 +
STACK CFI 28ff4 .cfa: x29 32 + x19: .cfa -16 + ^ .ra: .cfa -24 + ^ x29: .cfa -32 + ^
STACK CFI 29044 .cfa: sp 32 +
STACK CFI 2904c .cfa: sp 0 +
STACK CFI 29050 .cfa: x29 32 +
STACK CFI INIT 29058 21c .cfa: sp 0 +
STACK CFI 2905c .cfa: sp 192 +
STACK CFI 29070 .cfa: x29 64 + x19: .cfa -8 + ^ x20: .cfa -16 + ^ x21: .cfa -24 + ^ x22: .cfa -32 + ^ x23: .cfa -48 + ^ .ra: .cfa -56 + ^ x29: .cfa -64 + ^
STACK CFI 291b0 .cfa: sp 192 +
STACK CFI 291c4 .cfa: sp 0 +
STACK CFI 291c8 .cfa: x29 64 +
STACK CFI INIT 29278 1cc .cfa: sp 0 +
STACK CFI 2927c .cfa: sp 128 +
STACK CFI 2928c .cfa: x29 48 + x19: .cfa -8 + ^ x20: .cfa -16 + ^ x21: .cfa -32 + ^ .ra: .cfa -40 + ^ x29: .cfa -48 + ^
STACK CFI 293c8 .cfa: sp 128 +
STACK CFI 293d8 .cfa: sp 0 +
STACK CFI 293dc .cfa: x29 48 +
STACK CFI INIT 297d4 1d0 .cfa: sp 0 +
STACK CFI 297d8 .cfa: sp 128 +
STACK CFI 297ec .cfa: x29 64 + x19: .cfa -8 + ^ x20: .cfa -16 + ^ x21: .cfa -24 + ^ x22: .cfa -32 + ^ x23: .cfa -48 + ^ .ra: .cfa -56 + ^ x29: .cfa -64 + ^
STACK CFI 29964 .cfa: sp 128 +
STACK CFI 29978 .cfa: sp 0 +
STACK CFI 2997c .cfa: x29 64 +
STACK CFI INIT 29cc0 1c4 .cfa: sp 0 +
STACK CFI 29cc4 .cfa: sp 112 +
STACK CFI 29cd4 .cfa: x29 48 + x19: .cfa -8 + ^ x20: .cfa -16 + ^ x21: .cfa -24 + ^ x22: .cfa -32 + ^ .ra: .cfa -40 + ^ x29: .cfa -48 + ^
STACK CFI 29e48 .cfa: sp 112 +
STACK CFI 29e58 .cfa: sp 0 +
STACK CFI 29e5c .cfa: x29 48 +
STACK CFI INIT 29fe0 194 .cfa: sp 0 +
STACK CFI 29fe4 .cfa: sp 144 +
STACK CFI 29ff4 .cfa: x29 48 + x19: .cfa -8 + ^ x20: .cfa -16 + ^ x21: .cfa -24 + ^ x22: .cfa -32 + ^ .ra: .cfa -40 + ^ x29: .cfa -48 + ^
STACK CFI 2a0f4 .cfa: sp 144 +
STACK CFI 2a104 .cfa: sp 0 +
STACK CFI 2a108 .cfa: x29 48 +
STACK CFI INIT 2a174 1c8 .cfa: sp 0 +
STACK CFI 2a178 .cfa: sp 112 +
STACK CFI 2a188 .cfa: x29 48 + x19: .cfa -8 + ^ x20: .cfa -16 + ^ x21: .cfa -24 + ^ x22: .cfa -32 + ^ .ra: .cfa -40 + ^ x29: .cfa -48 + ^
STACK CFI 2a2dc .cfa: sp 112 +
STACK CFI 2a2ec .cfa: sp 0 +
STACK CFI 2a2f0 .cfa: x29 48 +
STACK CFI INIT 2a484 50 .cfa: sp 0 +
STACK CFI 2a488 .cfa: sp 32 +
STACK CFI 2a490 .cfa: x29 32 + x19: .cfa -8 + ^ x20: .cfa -16 + ^ .ra: .cfa -24 + ^ x29: .cfa -32 + ^
STACK CFI INIT 2ac98 100 .cfa: sp 0 +
STACK CFI 2ac9c .cfa: sp 96 +
STACK CFI 2aca8 .cfa: x29 32 + x19: .cfa -8 + ^ x20: .cfa -16 + ^ .ra: .cfa -24 + ^ x29: .cfa -32 + ^
STACK CFI 2ad38 .cfa: sp 96 +
STACK CFI 2ad44 .cfa: sp 0 +
STACK CFI 2ad48 .cfa: x29 32 +
STACK CFI INIT 2aeb8 300 .cfa: sp 0 +
STACK CFI 2aebc .cfa: sp 176 +
STACK CFI 2aed0 .cfa: x29 64 + x19: .cfa -8 + ^ x20: .cfa -16 + ^ x21: .cfa -24 + ^ x22: .cfa -32 + ^ x23: .cfa -40 + ^ x24: .cfa -48 + ^ .ra: .cfa -56 + ^ x29: .cfa -64 + ^
STACK CFI 2b0cc .cfa: sp 176 +
STACK CFI 2b0e0 .cfa: sp 0 +
STACK CFI 2b0e4 .cfa: x29 64 +
STACK CFI INIT 2b378 220 .cfa: sp 0 +
STACK CFI 2b37c .cfa: sp 80 +
STACK CFI 2b390 .cfa: x29 80 + x19: .cfa -8 + ^ x20: .cfa -16 + ^ x21: .cfa -24 + ^ x22: .cfa -32 + ^ x23: .cfa -40 + ^ x24: .cfa -48 + ^ x25: .cfa -56 + ^ x28: .cfa -64 + ^ .ra: .cfa -72 + ^ x29: .cfa -80 + ^
STACK CFI 2b4d4 .cfa: sp 80 +
STACK CFI 2b4e8 .cfa: sp 0 +
STACK CFI 2b4ec .cfa: x29 80 +
STACK CFI INIT 2b61c 330 .cfa: sp 0 +
STACK CFI 2b620 .cfa: sp 176 +
STACK CFI 2b638 .cfa: x29 80 + x19: .cfa -8 + ^ x20: .cfa -16 + ^ x21: .cfa -24 + ^ x22: .cfa -32 + ^ x23: .cfa -40 + ^ x24: .cfa -48 + ^ x25: .cfa -56 + ^ x26: .cfa -64 + ^ .ra: .cfa -72 + ^ x29: .cfa -80 + ^
STACK CFI 2b844 .cfa: sp 176 +
STACK CFI 2b85c .cfa: sp 0 +
STACK CFI 2b860 .cfa: x29 80 +
STACK CFI INIT 2b9cc 220 .cfa: sp 0 +
STACK CFI 2b9d0 .cfa: sp 80 +
STACK CFI 2b9e4 .cfa: x29 80 + x19: .cfa -8 + ^ x20: .cfa -16 + ^ x21: .cfa -24 + ^ x22: .cfa -32 + ^ x23: .cfa -40 + ^ x24: .cfa -48 + ^ x25: .cfa -56 + ^ x28: .cfa -64 + ^ .ra: .cfa -72 + ^ x29: .cfa -80 + ^
STACK CFI 2bb28 .cfa: sp 80 +
STACK CFI 2bb3c .cfa: sp 0 +
STACK CFI 2bb40 .cfa: x29 80 +
STACK CFI INIT 2bc14 74 .cfa: sp 0 +
STACK CFI 2bc18 .cfa: sp 48 +
STACK CFI 2bc24 .cfa: x29 32 + x19: .cfa -8 + ^ x20: .cfa -16 + ^ .ra: .cfa -24 + ^ x29: .cfa -32 + ^
STACK CFI 2bc70 .cfa: sp 48 +
STACK CFI 2bc7c .cfa: sp 0 +
STACK CFI 2bc80 .cfa: x29 32 +
STACK CFI INIT 2bd50 f0 .cfa: sp 0 +
STACK CFI 2bd54 .cfa: sp 64 +
STACK CFI 2bd64 .cfa: x29 64 + x19: .cfa -8 + ^ x20: .cfa -16 + ^ x21: .cfa -24 + ^ x22: .cfa -32 + ^ x23: .cfa -48 + ^ .ra: .cfa -56 + ^ x29: .cfa -64 + ^
STACK CFI 2bdfc .cfa: sp 64 +
STACK CFI 2be0c .cfa: sp 0 +
STACK CFI 2be10 .cfa: x29 64 +
STACK CFI INIT 2be40 dc .cfa: sp 0 +
STACK CFI 2be44 .cfa: sp 64 +
STACK CFI 2be54 .cfa: x29 64 + x19: .cfa -8 + ^ x20: .cfa -16 + ^ x21: .cfa -24 + ^ x22: .cfa -32 + ^ x23: .cfa -48 + ^ .ra: .cfa -56 + ^ x29: .cfa -64 + ^
STACK CFI 2bee0 .cfa: sp 64 +
STACK CFI 2bef0 .cfa: sp 0 +
STACK CFI 2bef4 .cfa: x29 64 +
STACK CFI INIT 2bf68 2bc .cfa: sp 0 +
STACK CFI 2bf6c .cfa: sp 144 +
STACK CFI 2bf84 .cfa: x29 64 + x19: .cfa -8 + ^ x20: .cfa -16 + ^ x21: .cfa -24 + ^ x22: .cfa -32 + ^ x23: .cfa -40 + ^ x24: .cfa -48 + ^ .ra: .cfa -56 + ^ x29: .cfa -64 + ^ v8: .cfa -72 + ^ v9: .cfa -80 + ^
STACK CFI 2c194 .cfa: sp 144 +
STACK CFI 2c1ac .cfa: sp 0 +
STACK CFI 2c1b0 .cfa: x29 64 +
STACK CFI INIT 2c3f0 1434 .cfa: sp 0 +
STACK CFI 2c3f4 .cfa: sp 112 +
STACK CFI 2c410 .cfa: x29 96 + x19: .cfa -8 + ^ x20: .cfa -16 + ^ x21: .cfa -24 + ^ x22: .cfa -32 + ^ x23: .cfa -40 + ^ x24: .cfa -48 + ^ x25: .cfa -56 + ^ x26: .cfa -64 + ^ x27: .cfa -72 + ^ x28: .cfa -80 + ^ .ra: .cfa -88 + ^ x29: .cfa -96 + ^ v8: .cfa -104 + ^ v9: .cfa -112 + ^
STACK CFI 2d624 .cfa: sp 112 +
STACK CFI 2d640 .cfa: sp 0 +
STACK CFI 2d644 .cfa: x29 96 +
STACK CFI INIT 2da28 8c .cfa: sp 0 +
STACK CFI 2da2c .cfa: sp 32 +
STACK CFI 2da34 .cfa: x29 32 + x19: .cfa -16 + ^ .ra: .cfa -24 + ^ x29: .cfa -32 + ^
STACK CFI 2daa4 .cfa: sp 32 +
STACK CFI 2daac .cfa: sp 0 +
STACK CFI 2dab0 .cfa: x29 32 +
STACK CFI INIT 2dab4 90 .cfa: sp 0 +
STACK CFI 2dab8 .cfa: sp 32 +
STACK CFI 2dac0 .cfa: x29 32 + x19: .cfa -8 + ^ x20: .cfa -16 + ^ .ra: .cfa -24 + ^ x29: .cfa -32 + ^
STACK CFI 2db34 .cfa: sp 32 +
STACK CFI 2db3c .cfa: sp 0 +
STACK CFI 2db40 .cfa: x29 32 +
STACK CFI INIT 2db44 94 .cfa: sp 0 +
STACK CFI 2db48 .cfa: sp 32 +
STACK CFI 2db50 .cfa: x29 32 + x19: .cfa -16 + ^ .ra: .cfa -24 + ^ x29: .cfa -32 + ^
STACK CFI 2dbc8 .cfa: sp 32 +
STACK CFI 2dbd0 .cfa: sp 0 +
STACK CFI 2dbd4 .cfa: x29 32 +
STACK CFI INIT 2dbd8 98 .cfa: sp 0 +
STACK CFI 2dbdc .cfa: sp 32 +
STACK CFI 2dbe4 .cfa: x29 32 + x19: .cfa -8 + ^ x20: .cfa -16 + ^ .ra: .cfa -24 + ^ x29: .cfa -32 + ^
STACK CFI 2dc60 .cfa: sp 32 +
STACK CFI 2dc68 .cfa: sp 0 +
STACK CFI 2dc6c .cfa: x29 32 +
STACK CFI INIT 2ddfc 1c4 .cfa: sp 0 +
STACK CFI 2de00 .cfa: sp 160 +
STACK CFI 2de1c .cfa: x29 96 + x19: .cfa -8 + ^ x20: .cfa -16 + ^ x21: .cfa -24 + ^ x22: .cfa -32 + ^ x23: .cfa -40 + ^ x24: .cfa -48 + ^ x25: .cfa -56 + ^ x26: .cfa -64 + ^ x27: .cfa -80 + ^ .ra: .cfa -88 + ^ x29: .cfa -96 + ^
STACK CFI 2df78 .cfa: sp 160 +
STACK CFI 2df94 .cfa: sp 0 +
STACK CFI 2df98 .cfa: x29 96 +
STACK CFI INIT 2dfc0 c0c .cfa: sp 0 +
STACK CFI 2dfc4 .cfa: sp 464 +
STACK CFI 2dfe0 .cfa: x29 96 + x19: .cfa -8 + ^ x20: .cfa -16 + ^ x21: .cfa -24 + ^ x22: .cfa -32 + ^ x23: .cfa -40 + ^ x24: .cfa -48 + ^ x25: .cfa -56 + ^ x26: .cfa -64 + ^ x27: .cfa -72 + ^ x28: .cfa -80 + ^ .ra: .cfa -88 + ^ x29: .cfa -96 + ^
STACK CFI 2ea34 .cfa: sp 464 +
STACK CFI 2ea50 .cfa: sp 0 +
STACK CFI 2ea54 .cfa: x29 96 +
STACK CFI INIT 2ebcc 6c .cfa: sp 0 +
STACK CFI 2ebd0 .cfa: sp 32 +
STACK CFI 2ebd8 .cfa: x29 32 + x19: .cfa -16 + ^ .ra: .cfa -24 + ^ x29: .cfa -32 + ^
STACK CFI 2ec28 .cfa: sp 32 +
STACK CFI 2ec30 .cfa: sp 0 +
STACK CFI 2ec34 .cfa: x29 32 +
STACK CFI INIT 2ec38 74 .cfa: sp 0 +
STACK CFI 2ec3c .cfa: sp 32 +
STACK CFI 2ec44 .cfa: x29 32 + x19: .cfa -16 + ^ .ra: .cfa -24 + ^ x29: .cfa -32 + ^
STACK CFI 2ec9c .cfa: sp 32 +
STACK CFI 2eca4 .cfa: sp 0 +
STACK CFI 2eca8 .cfa: x29 32 +
STACK CFI INIT 2ed00 148 .cfa: sp 0 +
STACK CFI 2ed04 .cfa: sp 96 +
STACK CFI 2ed14 .cfa: x29 48 + x19: .cfa -8 + ^ x20: .cfa -16 + ^ x21: .cfa -32 + ^ .ra: .cfa -40 + ^ x29: .cfa -48 + ^
STACK CFI 2edfc .cfa: sp 96 +
STACK CFI 2ee0c .cfa: sp 0 +
STACK CFI 2ee10 .cfa: x29 48 +
STACK CFI INIT 2ee48 6c .cfa: sp 0 +
STACK CFI 2ee4c .cfa: sp 32 +
STACK CFI 2ee54 .cfa: x29 32 + x19: .cfa -16 + ^ .ra: .cfa -24 + ^ x29: .cfa -32 + ^
STACK CFI 2eea4 .cfa: sp 32 +
STACK CFI 2eeac .cfa: sp 0 +
STACK CFI 2eeb0 .cfa: x29 32 +
STACK CFI INIT 2eeb4 74 .cfa: sp 0 +
STACK CFI 2eeb8 .cfa: sp 32 +
STACK CFI 2eec0 .cfa: x29 32 + x19: .cfa -16 + ^ .ra: .cfa -24 + ^ x29: .cfa -32 + ^
STACK CFI 2ef18 .cfa: sp 32 +
STACK CFI 2ef20 .cfa: sp 0 +
STACK CFI 2ef24 .cfa: x29 32 +
STACK CFI INIT 2ef58 6c .cfa: sp 0 +
STACK CFI 2ef5c .cfa: sp 32 +
STACK CFI 2ef64 .cfa: x29 32 + x19: .cfa -16 + ^ .ra: .cfa -24 + ^ x29: .cfa -32 + ^
STACK CFI 2efb4 .cfa: sp 32 +
STACK CFI 2efbc .cfa: sp 0 +
STACK CFI 2efc0 .cfa: x29 32 +
STACK CFI INIT 2f36c 130 .cfa: sp 0 +
STACK CFI 2f370 .cfa: sp 80 +
STACK CFI 2f380 .cfa: x29 48 + x19: .cfa -8 + ^ x20: .cfa -16 + ^ x21: .cfa -32 + ^ .ra: .cfa -40 + ^ x29: .cfa -48 + ^
STACK CFI 2f458 .cfa: sp 80 +
STACK CFI 2f468 .cfa: sp 0 +
STACK CFI 2f46c .cfa: x29 48 +
STACK CFI INIT 2f530 138 .cfa: sp 0 +
STACK CFI 2f534 .cfa: sp 80 +
STACK CFI 2f544 .cfa: x29 48 + x19: .cfa -8 + ^ x20: .cfa -16 + ^ x21: .cfa -32 + ^ .ra: .cfa -40 + ^ x29: .cfa -48 + ^
STACK CFI 2f624 .cfa: sp 80 +
STACK CFI 2f634 .cfa: sp 0 +
STACK CFI 2f638 .cfa: x29 48 +
STACK CFI INIT 2f6fc 138 .cfa: sp 0 +
STACK CFI 2f700 .cfa: sp 80 +
STACK CFI 2f710 .cfa: x29 48 + x19: .cfa -8 + ^ x20: .cfa -16 + ^ x21: .cfa -32 + ^ .ra: .cfa -40 + ^ x29: .cfa -48 + ^
STACK CFI 2f7f0 .cfa: sp 80 +
STACK CFI 2f800 .cfa: sp 0 +
STACK CFI 2f804 .cfa: x29 48 +
STACK CFI INIT 2f8c8 138 .cfa: sp 0 +
STACK CFI 2f8cc .cfa: sp 80 +
STACK CFI 2f8dc .cfa: x29 48 + x19: .cfa -8 + ^ x20: .cfa -16 + ^ x21: .cfa -32 + ^ .ra: .cfa -40 + ^ x29: .cfa -48 + ^
STACK CFI 2f9bc .cfa: sp 80 +
STACK CFI 2f9cc .cfa: sp 0 +
STACK CFI 2f9d0 .cfa: x29 48 +
STACK CFI INIT 2fbe8 9c .cfa: sp 0 +
STACK CFI 2fbec .cfa: sp 32 +
STACK CFI 2fbf4 .cfa: x29 32 + x19: .cfa -8 + ^ x20: .cfa -16 + ^ .ra: .cfa -24 + ^ x29: .cfa -32 + ^
STACK CFI 2fc40 .cfa: sp 32 +
STACK CFI 2fc48 .cfa: sp 0 +
STACK CFI 2fc4c .cfa: x29 32 +
STACK CFI 2fc64 .cfa: sp 32 +
STACK CFI 2fc6c .cfa: sp 0 +
STACK CFI 2fc70 .cfa: x29 32 +
STACK CFI INIT 2fe58 480 .cfa: sp 0 +
STACK CFI 2fe5c .cfa: sp 224 +
STACK CFI 2fe78 .cfa: x29 96 + x19: .cfa -8 + ^ x20: .cfa -16 + ^ x21: .cfa -24 + ^ x22: .cfa -32 + ^ x23: .cfa -40 + ^ x24: .cfa -48 + ^ x25: .cfa -56 + ^ x26: .cfa -64 + ^ x27: .cfa -80 + ^ .ra: .cfa -88 + ^ x29: .cfa -96 + ^
STACK CFI 300e4 .cfa: sp 224 +
STACK CFI 30100 .cfa: sp 0 +
STACK CFI 30104 .cfa: x29 96 +
STACK CFI 301d0 .cfa: sp 224 +
STACK CFI 301ec .cfa: sp 0 +
STACK CFI 301f0 .cfa: x29 96 +
STACK CFI INIT 302f4 388 .cfa: sp 0 +
STACK CFI 302f8 .cfa: sp 256 +
STACK CFI 3030c .cfa: x29 64 + x19: .cfa -8 + ^ x20: .cfa -16 + ^ x21: .cfa -24 + ^ x22: .cfa -32 + ^ x23: .cfa -48 + ^ .ra: .cfa -56 + ^ x29: .cfa -64 + ^
STACK CFI 30550 .cfa: sp 256 +
STACK CFI 30564 .cfa: sp 0 +
STACK CFI 30568 .cfa: x29 64 +
STACK CFI INIT 306cc 74 .cfa: sp 0 +
STACK CFI 306d0 .cfa: sp 48 +
STACK CFI 306dc .cfa: x29 32 + x19: .cfa -8 + ^ x20: .cfa -16 + ^ .ra: .cfa -24 + ^ x29: .cfa -32 + ^
STACK CFI 30728 .cfa: sp 48 +
STACK CFI 30734 .cfa: sp 0 +
STACK CFI 30738 .cfa: x29 32 +
STACK CFI INIT 30744 154 .cfa: sp 0 +
STACK CFI 30748 .cfa: sp 384 +
STACK CFI 3075c .cfa: x29 64 + x19: .cfa -8 + ^ x20: .cfa -16 + ^ x21: .cfa -24 + ^ x22: .cfa -32 + ^ x23: .cfa -40 + ^ x28: .cfa -48 + ^ .ra: .cfa -56 + ^ x29: .cfa -64 + ^
STACK CFI 30840 .cfa: sp 384 +
STACK CFI 30854 .cfa: sp 0 +
STACK CFI 30858 .cfa: x29 64 +
STACK CFI INIT 30898 12c .cfa: sp 0 +
STACK CFI 3089c .cfa: sp 80 +
STACK CFI 308b0 .cfa: x29 80 + x19: .cfa -8 + ^ x20: .cfa -16 + ^ x21: .cfa -24 + ^ x22: .cfa -32 + ^ x23: .cfa -40 + ^ x24: .cfa -48 + ^ x25: .cfa -56 + ^ x26: .cfa -64 + ^ .ra: .cfa -72 + ^ x29: .cfa -80 + ^
STACK CFI 30978 .cfa: sp 80 +
STACK CFI 3098c .cfa: sp 0 +
STACK CFI 30990 .cfa: x29 80 +
STACK CFI INIT 30a68 1a4 .cfa: sp 0 +
STACK CFI 30a6c .cfa: sp 112 +
STACK CFI 30a84 .cfa: x29 80 + x19: .cfa -8 + ^ x20: .cfa -16 + ^ x21: .cfa -24 + ^ x22: .cfa -32 + ^ x23: .cfa -40 + ^ x24: .cfa -48 + ^ x25: .cfa -56 + ^ x26: .cfa -64 + ^ .ra: .cfa -72 + ^ x29: .cfa -80 + ^
STACK CFI 30b74 .cfa: sp 112 +
STACK CFI 30b8c .cfa: sp 0 +
STACK CFI 30b90 .cfa: x29 80 +
STACK CFI INIT 30c0c 1dc .cfa: sp 0 +
STACK CFI 30c10 .cfa: sp 128 +
STACK CFI 30c2c .cfa: x29 96 + x19: .cfa -8 + ^ x20: .cfa -16 + ^ x21: .cfa -24 + ^ x22: .cfa -32 + ^ x23: .cfa -40 + ^ x24: .cfa -48 + ^ x25: .cfa -56 + ^ x26: .cfa -64 + ^ x27: .cfa -80 + ^ .ra: .cfa -88 + ^ x29: .cfa -96 + ^
STACK CFI 30d98 .cfa: sp 128 +
STACK CFI 30db4 .cfa: sp 0 +
STACK CFI 30db8 .cfa: x29 96 +
STACK CFI INIT 30de8 178 .cfa: sp 0 +
STACK CFI 30dec .cfa: sp 80 +
STACK CFI 30e00 .cfa: x29 80 + x19: .cfa -8 + ^ x20: .cfa -16 + ^ x21: .cfa -24 + ^ x22: .cfa -32 + ^ x23: .cfa -40 + ^ x24: .cfa -48 + ^ x25: .cfa -64 + ^ .ra: .cfa -72 + ^ x29: .cfa -80 + ^
STACK CFI 30f2c .cfa: sp 80 +
STACK CFI 30f40 .cfa: sp 0 +
STACK CFI 30f44 .cfa: x29 80 +
STACK CFI INIT 310a8 228 .cfa: sp 0 +
STACK CFI 310ac .cfa: sp 128 +
STACK CFI 310c4 .cfa: x29 80 + x19: .cfa -8 + ^ x20: .cfa -16 + ^ x21: .cfa -24 + ^ x22: .cfa -32 + ^ x23: .cfa -40 + ^ x24: .cfa -48 + ^ x25: .cfa -64 + ^ .ra: .cfa -72 + ^ x29: .cfa -80 + ^
STACK CFI 31260 .cfa: sp 128 +
STACK CFI 31278 .cfa: sp 0 +
STACK CFI 3127c .cfa: x29 80 +
STACK CFI INIT 31998 160 .cfa: sp 0 +
STACK CFI 3199c .cfa: sp 80 +
STACK CFI 319ac .cfa: x29 48 + x19: .cfa -8 + ^ x20: .cfa -16 + ^ x21: .cfa -24 + ^ x22: .cfa -32 + ^ .ra: .cfa -40 + ^ x29: .cfa -48 + ^
STACK CFI 319f4 .cfa: sp 80 +
STACK CFI 31a04 .cfa: sp 0 +
STACK CFI 31a08 .cfa: x29 48 +
STACK CFI 31aac .cfa: sp 80 +
STACK CFI 31abc .cfa: sp 0 +
STACK CFI 31ac0 .cfa: x29 48 +
STACK CFI INIT 31ed4 898 .cfa: sp 0 +
STACK CFI 31ed8 .cfa: sp 304 +
STACK CFI 31ef4 .cfa: x29 96 + x19: .cfa -8 + ^ x20: .cfa -16 + ^ x21: .cfa -24 + ^ x22: .cfa -32 + ^ x23: .cfa -40 + ^ x24: .cfa -48 + ^ x25: .cfa -56 + ^ x26: .cfa -64 + ^ x27: .cfa -72 + ^ x28: .cfa -80 + ^ .ra: .cfa -88 + ^ x29: .cfa -96 + ^
STACK CFI 31fbc .cfa: sp 304 +
STACK CFI 31fd8 .cfa: sp 0 +
STACK CFI 31fdc .cfa: x29 96 +
STACK CFI 323a0 .cfa: sp 304 +
STACK CFI 323bc .cfa: sp 0 +
STACK CFI 323c0 .cfa: x29 96 +
STACK CFI INIT 32788 308 .cfa: sp 0 +
STACK CFI 3278c .cfa: sp 176 +
STACK CFI 327a0 .cfa: x29 64 + x19: .cfa -8 + ^ x20: .cfa -16 + ^ x21: .cfa -24 + ^ x22: .cfa -32 + ^ x23: .cfa -48 + ^ .ra: .cfa -56 + ^ x29: .cfa -64 + ^
STACK CFI 32988 .cfa: sp 176 +
STACK CFI 3299c .cfa: sp 0 +
STACK CFI 329a0 .cfa: x29 64 +
STACK CFI INIT 32a94 2a4 .cfa: sp 0 +
STACK CFI 32a98 .cfa: sp 160 +
STACK CFI 32ab4 .cfa: x29 96 + x19: .cfa -8 + ^ x20: .cfa -16 + ^ x21: .cfa -24 + ^ x22: .cfa -32 + ^ x23: .cfa -40 + ^ x24: .cfa -48 + ^ x25: .cfa -56 + ^ x26: .cfa -64 + ^ x27: .cfa -80 + ^ .ra: .cfa -88 + ^ x29: .cfa -96 + ^
STACK CFI 32cd0 .cfa: sp 160 +
STACK CFI 32cec .cfa: sp 0 +
STACK CFI 32cf0 .cfa: x29 96 +
STACK CFI INIT 32db4 110 .cfa: sp 0 +
STACK CFI 32db8 .cfa: sp 96 +
STACK CFI 32dcc .cfa: x29 64 + x19: .cfa -8 + ^ x20: .cfa -16 + ^ x21: .cfa -24 + ^ x22: .cfa -32 + ^ x23: .cfa -40 + ^ x24: .cfa -48 + ^ .ra: .cfa -56 + ^ x29: .cfa -64 + ^
STACK CFI 32e14 .cfa: sp 96 +
STACK CFI 32e28 .cfa: sp 0 +
STACK CFI 32e2c .cfa: x29 64 +
STACK CFI INIT 32ec4 168 .cfa: sp 0 +
STACK CFI 32ec8 .cfa: sp 384 +
STACK CFI 32edc .cfa: x29 64 + x19: .cfa -8 + ^ x20: .cfa -16 + ^ x21: .cfa -24 + ^ x22: .cfa -32 + ^ x23: .cfa -40 + ^ x28: .cfa -48 + ^ .ra: .cfa -56 + ^ x29: .cfa -64 + ^
STACK CFI 32fd4 .cfa: sp 384 +
STACK CFI 32fe8 .cfa: sp 0 +
STACK CFI 32fec .cfa: x29 64 +
STACK CFI INIT 330c0 174 .cfa: sp 0 +
STACK CFI 330c4 .cfa: sp 112 +
STACK CFI 330d4 .cfa: x29 48 + x19: .cfa -8 + ^ x20: .cfa -16 + ^ x21: .cfa -32 + ^ .ra: .cfa -40 + ^ x29: .cfa -48 + ^
STACK CFI 331d0 .cfa: sp 112 +
STACK CFI 331e0 .cfa: sp 0 +
STACK CFI 331e4 .cfa: x29 48 +
STACK CFI INIT 3346c a8 .cfa: sp 0 +
STACK CFI 33470 .cfa: sp 32 +
STACK CFI 33478 .cfa: x29 32 + x19: .cfa -16 + ^ .ra: .cfa -24 + ^ x29: .cfa -32 + ^
STACK CFI 334ac .cfa: sp 32 +
STACK CFI 334b4 .cfa: sp 0 +
STACK CFI 334b8 .cfa: x29 32 +
STACK CFI 334bc .cfa: sp 32 +
STACK CFI 334c4 .cfa: sp 0 +
STACK CFI 334c8 .cfa: x29 32 +
STACK CFI INIT 335b0 64c .cfa: sp 0 +
STACK CFI 335b4 .cfa: sp 224 +
STACK CFI 335d0 .cfa: x29 96 + x19: .cfa -8 + ^ x20: .cfa -16 + ^ x21: .cfa -24 + ^ x22: .cfa -32 + ^ x23: .cfa -40 + ^ x24: .cfa -48 + ^ x25: .cfa -56 + ^ x26: .cfa -64 + ^ x27: .cfa -72 + ^ x28: .cfa -80 + ^ .ra: .cfa -88 + ^ x29: .cfa -96 + ^
STACK CFI 33a8c .cfa: sp 224 +
STACK CFI 33aa8 .cfa: sp 0 +
STACK CFI 33aac .cfa: x29 96 +
STACK CFI INIT 33bfc 110 .cfa: sp 0 +
STACK CFI 33c00 .cfa: sp 96 +
STACK CFI 33c14 .cfa: x29 64 + x19: .cfa -8 + ^ x20: .cfa -16 + ^ x21: .cfa -24 + ^ x22: .cfa -32 + ^ x23: .cfa -48 + ^ .ra: .cfa -56 + ^ x29: .cfa -64 + ^
STACK CFI 33cbc .cfa: sp 96 +
STACK CFI 33cd0 .cfa: sp 0 +
STACK CFI 33cd4 .cfa: x29 64 +
STACK CFI INIT 33d0c 110 .cfa: sp 0 +
STACK CFI 33d10 .cfa: sp 96 +
STACK CFI 33d24 .cfa: x29 64 + x19: .cfa -8 + ^ x20: .cfa -16 + ^ x21: .cfa -24 + ^ x22: .cfa -32 + ^ x23: .cfa -48 + ^ .ra: .cfa -56 + ^ x29: .cfa -64 + ^
STACK CFI 33dcc .cfa: sp 96 +
STACK CFI 33de0 .cfa: sp 0 +
STACK CFI 33de4 .cfa: x29 64 +
STACK CFI INIT 33e1c 110 .cfa: sp 0 +
STACK CFI 33e20 .cfa: sp 96 +
STACK CFI 33e34 .cfa: x29 64 + x19: .cfa -8 + ^ x20: .cfa -16 + ^ x21: .cfa -24 + ^ x22: .cfa -32 + ^ x23: .cfa -48 + ^ .ra: .cfa -56 + ^ x29: .cfa -64 + ^
STACK CFI 33edc .cfa: sp 96 +
STACK CFI 33ef0 .cfa: sp 0 +
STACK CFI 33ef4 .cfa: x29 64 +
STACK CFI INIT 34018 74 .cfa: sp 0 +
STACK CFI 3401c .cfa: sp 48 +
STACK CFI 34028 .cfa: x29 32 + x19: .cfa -8 + ^ x20: .cfa -16 + ^ .ra: .cfa -24 + ^ x29: .cfa -32 + ^
STACK CFI 34074 .cfa: sp 48 +
STACK CFI 34080 .cfa: sp 0 +
STACK CFI 34084 .cfa: x29 32 +
STACK CFI INIT 3408c 7b0 .cfa: sp 0 +
STACK CFI 34090 .cfa: sp 416 +
STACK CFI 340a8 .cfa: x29 80 + x19: .cfa -8 + ^ x20: .cfa -16 + ^ x21: .cfa -24 + ^ x22: .cfa -32 + ^ x23: .cfa -40 + ^ x24: .cfa -48 + ^ x25: .cfa -56 + ^ x28: .cfa -64 + ^ .ra: .cfa -72 + ^ x29: .cfa -80 + ^
STACK CFI 340fc .cfa: sp 416 +
STACK CFI 34114 .cfa: sp 0 +
STACK CFI 34118 .cfa: x29 80 +
STACK CFI 345e8 .cfa: sp 416 +
STACK CFI 34600 .cfa: sp 0 +
STACK CFI 34604 .cfa: x29 80 +
STACK CFI INIT 348d4 ec4 .cfa: sp 0 +
STACK CFI 348d8 .cfa: sp 304 +
STACK CFI 348f4 .cfa: x29 96 + x19: .cfa -8 + ^ x20: .cfa -16 + ^ x21: .cfa -24 + ^ x22: .cfa -32 + ^ x23: .cfa -40 + ^ x24: .cfa -48 + ^ x25: .cfa -56 + ^ x26: .cfa -64 + ^ x27: .cfa -72 + ^ x28: .cfa -80 + ^ .ra: .cfa -88 + ^ x29: .cfa -96 + ^
STACK CFI 3565c .cfa: sp 304 +
STACK CFI 35678 .cfa: sp 0 +
STACK CFI 3567c .cfa: x29 96 +
STACK CFI INIT 358dc 11c .cfa: sp 0 +
STACK CFI 358e0 .cfa: sp 48 +
STACK CFI 358ec .cfa: x29 48 + x19: .cfa -8 + ^ x20: .cfa -16 + ^ x21: .cfa -32 + ^ .ra: .cfa -40 + ^ x29: .cfa -48 + ^
STACK CFI 35990 .cfa: sp 48 +
STACK CFI 3599c .cfa: sp 0 +
STACK CFI 359a0 .cfa: x29 48 +
STACK CFI INIT 359f8 128 .cfa: sp 0 +
STACK CFI 359fc .cfa: sp 48 +
STACK CFI 35a08 .cfa: x29 48 + x19: .cfa -8 + ^ x20: .cfa -16 + ^ x21: .cfa -32 + ^ .ra: .cfa -40 + ^ x29: .cfa -48 + ^
STACK CFI 35aa4 .cfa: sp 48 +
STACK CFI 35ab0 .cfa: sp 0 +
STACK CFI 35ab4 .cfa: x29 48 +
STACK CFI 35ad4 .cfa: sp 48 +
STACK CFI 35ae0 .cfa: sp 0 +
STACK CFI 35ae4 .cfa: x29 48 +
STACK CFI INIT 35c34 19b0 .cfa: sp 0 +
STACK CFI 35c38 .cfa: sp 96 +
STACK CFI 35c50 .cfa: x29 96 + x19: .cfa -8 + ^ x20: .cfa -16 + ^ x21: .cfa -24 + ^ x22: .cfa -32 + ^ x23: .cfa -40 + ^ x24: .cfa -48 + ^ x25: .cfa -56 + ^ x26: .cfa -64 + ^ x27: .cfa -72 + ^ x28: .cfa -80 + ^ .ra: .cfa -88 + ^ x29: .cfa -96 + ^
STACK CFI 37050 .cfa: sp 96 +
STACK CFI 37068 .cfa: sp 0 +
STACK CFI 3706c .cfa: x29 96 +
STACK CFI INIT 3760c 74 .cfa: sp 0 +
STACK CFI 37610 .cfa: sp 48 +
STACK CFI 3761c .cfa: x29 32 + x19: .cfa -8 + ^ x20: .cfa -16 + ^ .ra: .cfa -24 + ^ x29: .cfa -32 + ^
STACK CFI 37668 .cfa: sp 48 +
STACK CFI 37674 .cfa: sp 0 +
STACK CFI 37678 .cfa: x29 32 +
STACK CFI INIT 3769c 74 .cfa: sp 0 +
STACK CFI 376a0 .cfa: sp 48 +
STACK CFI 376ac .cfa: x29 32 + x19: .cfa -8 + ^ x20: .cfa -16 + ^ .ra: .cfa -24 + ^ x29: .cfa -32 + ^
STACK CFI 376f8 .cfa: sp 48 +
STACK CFI 37704 .cfa: sp 0 +
STACK CFI 37708 .cfa: x29 32 +
STACK CFI INIT 37710 74 .cfa: sp 0 +
STACK CFI 37714 .cfa: sp 48 +
STACK CFI 37720 .cfa: x29 32 + x19: .cfa -8 + ^ x20: .cfa -16 + ^ .ra: .cfa -24 + ^ x29: .cfa -32 + ^
STACK CFI 3776c .cfa: sp 48 +
STACK CFI 37778 .cfa: sp 0 +
STACK CFI 3777c .cfa: x29 32 +
STACK CFI INIT 37784 74 .cfa: sp 0 +
STACK CFI 37788 .cfa: sp 48 +
STACK CFI 37794 .cfa: x29 32 + x19: .cfa -8 + ^ x20: .cfa -16 + ^ .ra: .cfa -24 + ^ x29: .cfa -32 + ^
STACK CFI 377e0 .cfa: sp 48 +
STACK CFI 377ec .cfa: sp 0 +
STACK CFI 377f0 .cfa: x29 32 +
STACK CFI INIT 379c8 134 .cfa: sp 0 +
STACK CFI 379cc .cfa: sp 80 +
STACK CFI 379d8 .cfa: x29 32 + x19: .cfa -8 + ^ x20: .cfa -16 + ^ .ra: .cfa -24 + ^ x29: .cfa -32 + ^
STACK CFI 37a08 .cfa: sp 80 +
STACK CFI 37a14 .cfa: sp 0 +
STACK CFI 37a18 .cfa: x29 32 +
STACK CFI INIT 37afc 78 .cfa: sp 0 +
STACK CFI 37b00 .cfa: sp 32 +
STACK CFI 37b08 .cfa: x29 32 + x19: .cfa -8 + ^ x20: .cfa -16 + ^ .ra: .cfa -24 + ^ x29: .cfa -32 + ^
STACK CFI 37b14 .cfa: sp 32 +
STACK CFI 37b1c .cfa: sp 0 +
STACK CFI 37b20 .cfa: x29 32 +
STACK CFI INIT 37b74 74 .cfa: sp 0 +
STACK CFI 37b78 .cfa: sp 48 +
STACK CFI 37b84 .cfa: x29 32 + x19: .cfa -8 + ^ x20: .cfa -16 + ^ .ra: .cfa -24 + ^ x29: .cfa -32 + ^
STACK CFI 37bd0 .cfa: sp 48 +
STACK CFI 37bdc .cfa: sp 0 +
STACK CFI 37be0 .cfa: x29 32 +
STACK CFI INIT 37c4c 224 .cfa: sp 0 +
STACK CFI 37c50 .cfa: sp 128 +
STACK CFI 37c60 .cfa: x29 48 + x19: .cfa -8 + ^ x20: .cfa -16 + ^ x21: .cfa -32 + ^ .ra: .cfa -40 + ^ x29: .cfa -48 + ^
STACK CFI 37d10 .cfa: sp 128 +
STACK CFI 37d20 .cfa: sp 0 +
STACK CFI 37d24 .cfa: x29 48 +
STACK CFI INIT 37eb8 284 .cfa: sp 0 +
STACK CFI 37ebc .cfa: sp 128 +
STACK CFI 37ecc .cfa: x29 48 + x19: .cfa -8 + ^ x20: .cfa -16 + ^ x21: .cfa -32 + ^ .ra: .cfa -40 + ^ x29: .cfa -48 + ^
STACK CFI 37fe4 .cfa: sp 128 +
STACK CFI 37ff4 .cfa: sp 0 +
STACK CFI 37ff8 .cfa: x29 48 +
STACK CFI INIT 38190 300 .cfa: sp 0 +
STACK CFI 38194 .cfa: sp 144 +
STACK CFI 381a8 .cfa: x29 64 + x19: .cfa -8 + ^ x20: .cfa -16 + ^ x21: .cfa -24 + ^ x22: .cfa -32 + ^ x23: .cfa -48 + ^ .ra: .cfa -56 + ^ x29: .cfa -64 + ^
STACK CFI 3833c .cfa: sp 144 +
STACK CFI 38350 .cfa: sp 0 +
STACK CFI 38354 .cfa: x29 64 +
STACK CFI INIT 384e4 264 .cfa: sp 0 +
STACK CFI 384e8 .cfa: sp 128 +
STACK CFI 384f8 .cfa: x29 48 + x19: .cfa -8 + ^ x20: .cfa -16 + ^ x21: .cfa -32 + ^ .ra: .cfa -40 + ^ x29: .cfa -48 + ^
STACK CFI 385f0 .cfa: sp 128 +
STACK CFI 38600 .cfa: sp 0 +
STACK CFI 38604 .cfa: x29 48 +
STACK CFI INIT 3879c 150 .cfa: sp 0 +
STACK CFI 387a0 .cfa: sp 128 +
STACK CFI 387b0 .cfa: x29 48 + x19: .cfa -8 + ^ x20: .cfa -16 + ^ x21: .cfa -24 + ^ x22: .cfa -32 + ^ .ra: .cfa -40 + ^ x29: .cfa -48 + ^
STACK CFI 387f8 .cfa: sp 128 +
STACK CFI 38808 .cfa: sp 0 +
STACK CFI 3880c .cfa: x29 48 +
STACK CFI INIT 388ec a8 .cfa: sp 0 +
STACK CFI 388f0 .cfa: sp 64 +
STACK CFI 38900 .cfa: x29 48 + x19: .cfa -8 + ^ x20: .cfa -16 + ^ x21: .cfa -32 + ^ .ra: .cfa -40 + ^ x29: .cfa -48 + ^
STACK CFI 38968 .cfa: sp 64 +
STACK CFI 38978 .cfa: sp 0 +
STACK CFI 3897c .cfa: x29 48 +
STACK CFI INIT 389e8 1b8 .cfa: sp 0 +
STACK CFI 389ec .cfa: sp 160 +
STACK CFI 38a08 .cfa: x29 72 + x19: .cfa -8 + ^ x20: .cfa -16 + ^ x21: .cfa -24 + ^ x22: .cfa -32 + ^ x23: .cfa -40 + ^ x24: .cfa -48 + ^ x25: .cfa -56 + ^ .ra: .cfa -64 + ^ x29: .cfa -72 + ^ v8: .cfa -80 + ^
STACK CFI 38a8c .cfa: sp 160 +
STACK CFI 38aa8 .cfa: sp 0 +
STACK CFI 38aac .cfa: x29 72 +
STACK CFI INIT 38ba0 16c .cfa: sp 0 +
STACK CFI 38ba4 .cfa: sp 64 +
STACK CFI 38bb4 .cfa: x29 48 + x19: .cfa -8 + ^ x20: .cfa -16 + ^ x21: .cfa -24 + ^ x22: .cfa -32 + ^ .ra: .cfa -40 + ^ x29: .cfa -48 + ^
STACK CFI 38cac .cfa: sp 64 +
STACK CFI 38cbc .cfa: sp 0 +
STACK CFI 38cc0 .cfa: x29 48 +
STACK CFI INIT 38d0c 180 .cfa: sp 0 +
STACK CFI 38d10 .cfa: sp 128 +
STACK CFI 38d20 .cfa: x29 48 + x19: .cfa -8 + ^ x20: .cfa -16 + ^ x21: .cfa -24 + ^ x22: .cfa -32 + ^ .ra: .cfa -40 + ^ x29: .cfa -48 + ^
STACK CFI 38d84 .cfa: sp 128 +
STACK CFI 38d94 .cfa: sp 0 +
STACK CFI 38d98 .cfa: x29 48 +
STACK CFI INIT 38e8c a4 .cfa: sp 0 +
STACK CFI 38e90 .cfa: sp 48 +
STACK CFI 38e9c .cfa: x29 48 + x19: .cfa -8 + ^ x20: .cfa -16 + ^ x21: .cfa -32 + ^ .ra: .cfa -40 + ^ x29: .cfa -48 + ^
STACK CFI 38f08 .cfa: sp 48 +
STACK CFI 38f14 .cfa: sp 0 +
STACK CFI 38f18 .cfa: x29 48 +
STACK CFI INIT 38f30 2e4 .cfa: sp 0 +
STACK CFI 38f34 .cfa: sp 144 +
STACK CFI 38f48 .cfa: x29 64 + x19: .cfa -8 + ^ x20: .cfa -16 + ^ x21: .cfa -24 + ^ x22: .cfa -32 + ^ x23: .cfa -48 + ^ .ra: .cfa -56 + ^ x29: .cfa -64 + ^
STACK CFI 390c0 .cfa: sp 144 +
STACK CFI 390d4 .cfa: sp 0 +
STACK CFI 390d8 .cfa: x29 64 +
STACK CFI INIT 39214 2e4 .cfa: sp 0 +
STACK CFI 39218 .cfa: sp 144 +
STACK CFI 3922c .cfa: x29 64 + x19: .cfa -8 + ^ x20: .cfa -16 + ^ x21: .cfa -24 + ^ x22: .cfa -32 + ^ x23: .cfa -48 + ^ .ra: .cfa -56 + ^ x29: .cfa -64 + ^
STACK CFI 393a4 .cfa: sp 144 +
STACK CFI 393b8 .cfa: sp 0 +
STACK CFI 393bc .cfa: x29 64 +
STACK CFI INIT 394f8 2a0 .cfa: sp 0 +
STACK CFI 394fc .cfa: sp 144 +
STACK CFI 39510 .cfa: x29 64 + x19: .cfa -8 + ^ x20: .cfa -16 + ^ x21: .cfa -24 + ^ x22: .cfa -32 + ^ x23: .cfa -48 + ^ .ra: .cfa -56 + ^ x29: .cfa -64 + ^
STACK CFI 39644 .cfa: sp 144 +
STACK CFI 39658 .cfa: sp 0 +
STACK CFI 3965c .cfa: x29 64 +
STACK CFI INIT 39798 2f0 .cfa: sp 0 +
STACK CFI 3979c .cfa: sp 144 +
STACK CFI 397b0 .cfa: x29 64 + x19: .cfa -8 + ^ x20: .cfa -16 + ^ x21: .cfa -24 + ^ x22: .cfa -32 + ^ x23: .cfa -48 + ^ .ra: .cfa -56 + ^ x29: .cfa -64 + ^
STACK CFI 39934 .cfa: sp 144 +
STACK CFI 39948 .cfa: sp 0 +
STACK CFI 3994c .cfa: x29 64 +
STACK CFI INIT 39a88 4f4 .cfa: sp 0 +
STACK CFI 39a8c .cfa: sp 144 +
STACK CFI 39aa0 .cfa: x29 64 + x19: .cfa -8 + ^ x20: .cfa -16 + ^ x21: .cfa -24 + ^ x22: .cfa -32 + ^ x23: .cfa -48 + ^ .ra: .cfa -56 + ^ x29: .cfa -64 + ^
STACK CFI 39dd4 .cfa: sp 144 +
STACK CFI 39de8 .cfa: sp 0 +
STACK CFI 39dec .cfa: x29 64 +
STACK CFI INIT 39f7c 154 .cfa: sp 0 +
STACK CFI 39f80 .cfa: sp 384 +
STACK CFI 39f94 .cfa: x29 64 + x19: .cfa -8 + ^ x20: .cfa -16 + ^ x21: .cfa -24 + ^ x22: .cfa -32 + ^ x23: .cfa -40 + ^ x28: .cfa -48 + ^ .ra: .cfa -56 + ^ x29: .cfa -64 + ^
STACK CFI 3a078 .cfa: sp 384 +
STACK CFI 3a08c .cfa: sp 0 +
STACK CFI 3a090 .cfa: x29 64 +
STACK CFI INIT 3a0e8 50c .cfa: sp 0 +
STACK CFI 3a0ec .cfa: sp 64 +
STACK CFI 3a0fc .cfa: x29 64 + x19: .cfa -8 + ^ x20: .cfa -16 + ^ x21: .cfa -24 + ^ x22: .cfa -32 + ^ x23: .cfa -40 + ^ x24: .cfa -48 + ^ .ra: .cfa -56 + ^ x29: .cfa -64 + ^
STACK CFI 3a21c .cfa: sp 64 +
STACK CFI 3a22c .cfa: sp 0 +
STACK CFI 3a230 .cfa: x29 64 +
STACK CFI 3a5c8 .cfa: sp 64 +
STACK CFI 3a5d8 .cfa: sp 0 +
STACK CFI 3a5dc .cfa: x29 64 +
STACK CFI INIT 3a924 294 .cfa: sp 0 +
STACK CFI 3a928 .cfa: sp 240 +
STACK CFI 3a940 .cfa: x29 80 + x19: .cfa -8 + ^ x20: .cfa -16 + ^ x21: .cfa -24 + ^ x22: .cfa -32 + ^ x23: .cfa -40 + ^ x24: .cfa -48 + ^ x25: .cfa -64 + ^ .ra: .cfa -72 + ^ x29: .cfa -80 + ^
STACK CFI 3aae0 .cfa: sp 240 +
STACK CFI 3aaf8 .cfa: sp 0 +
STACK CFI 3aafc .cfa: x29 80 +
STACK CFI INIT 3ac34 50 .cfa: sp 0 +
STACK CFI 3ac38 .cfa: sp 32 +
STACK CFI 3ac40 .cfa: x29 32 + x19: .cfa -8 + ^ x20: .cfa -16 + ^ .ra: .cfa -24 + ^ x29: .cfa -32 + ^
STACK CFI INIT 3acb0 7c0 .cfa: sp 0 +
STACK CFI 3acb4 .cfa: sp 320 +
STACK CFI 3acd0 .cfa: x29 96 + x19: .cfa -8 + ^ x20: .cfa -16 + ^ x21: .cfa -24 + ^ x22: .cfa -32 + ^ x23: .cfa -40 + ^ x24: .cfa -48 + ^ x25: .cfa -56 + ^ x26: .cfa -64 + ^ x27: .cfa -72 + ^ x28: .cfa -80 + ^ .ra: .cfa -88 + ^ x29: .cfa -96 + ^
STACK CFI 3b320 .cfa: sp 320 +
STACK CFI 3b33c .cfa: sp 0 +
STACK CFI 3b340 .cfa: x29 96 +
STACK CFI INIT 3f7f0 c74 .cfa: sp 0 +
STACK CFI 3f7f4 .cfa: sp 96 +
STACK CFI 3f80c .cfa: x29 96 + x19: .cfa -8 + ^ x20: .cfa -16 + ^ x21: .cfa -24 + ^ x22: .cfa -32 + ^ x23: .cfa -40 + ^ x24: .cfa -48 + ^ x25: .cfa -56 + ^ x26: .cfa -64 + ^ x27: .cfa -72 + ^ x28: .cfa -80 + ^ .ra: .cfa -88 + ^ x29: .cfa -96 + ^
STACK CFI 40284 .cfa: sp 96 +
STACK CFI 4029c .cfa: sp 0 +
STACK CFI 402a0 .cfa: x29 96 +
STACK CFI INIT 405b8 26c .cfa: sp 0 +
STACK CFI 405bc .cfa: sp 128 +
STACK CFI 405cc .cfa: x29 48 + x19: .cfa -8 + ^ x20: .cfa -16 + ^ x21: .cfa -24 + ^ x22: .cfa -32 + ^ .ra: .cfa -40 + ^ x29: .cfa -48 + ^
STACK CFI 40770 .cfa: sp 128 +
STACK CFI 40780 .cfa: sp 0 +
STACK CFI 40784 .cfa: x29 48 +
STACK CFI INIT 40d70 3b8 .cfa: sp 0 +
STACK CFI 40d74 .cfa: sp 96 +
STACK CFI 40d8c .cfa: x29 96 + x19: .cfa -8 + ^ x20: .cfa -16 + ^ x21: .cfa -24 + ^ x22: .cfa -32 + ^ x23: .cfa -40 + ^ x24: .cfa -48 + ^ x25: .cfa -56 + ^ x26: .cfa -64 + ^ x27: .cfa -72 + ^ x28: .cfa -80 + ^ .ra: .cfa -88 + ^ x29: .cfa -96 + ^
STACK CFI 410c8 .cfa: sp 96 +
STACK CFI 410e0 .cfa: sp 0 +
STACK CFI 410e4 .cfa: x29 96 +
STACK CFI INIT 411c8 cb4 .cfa: sp 0 +
STACK CFI 411cc .cfa: sp 96 +
STACK CFI 411e4 .cfa: x29 96 + x19: .cfa -8 + ^ x20: .cfa -16 + ^ x21: .cfa -24 + ^ x22: .cfa -32 + ^ x23: .cfa -40 + ^ x24: .cfa -48 + ^ x25: .cfa -56 + ^ x26: .cfa -64 + ^ x27: .cfa -72 + ^ x28: .cfa -80 + ^ .ra: .cfa -88 + ^ x29: .cfa -96 + ^
STACK CFI 41c8c .cfa: sp 96 +
STACK CFI 41ca4 .cfa: sp 0 +
STACK CFI 41ca8 .cfa: x29 96 +
STACK CFI INIT 42164 afc .cfa: sp 0 +
STACK CFI 42168 .cfa: sp 96 +
STACK CFI 42180 .cfa: x29 96 + x19: .cfa -8 + ^ x20: .cfa -16 + ^ x21: .cfa -24 + ^ x22: .cfa -32 + ^ x23: .cfa -40 + ^ x24: .cfa -48 + ^ x25: .cfa -56 + ^ x26: .cfa -64 + ^ x27: .cfa -72 + ^ x28: .cfa -80 + ^ .ra: .cfa -88 + ^ x29: .cfa -96 + ^
STACK CFI 42bd4 .cfa: sp 96 +
STACK CFI 42bec .cfa: sp 0 +
STACK CFI 42bf0 .cfa: x29 96 +
STACK CFI INIT 42e3c 1430 .cfa: sp 0 +
STACK CFI 42e40 .cfa: sp 96 +
STACK CFI 42e58 .cfa: x29 96 + x19: .cfa -8 + ^ x20: .cfa -16 + ^ x21: .cfa -24 + ^ x22: .cfa -32 + ^ x23: .cfa -40 + ^ x24: .cfa -48 + ^ x25: .cfa -56 + ^ x26: .cfa -64 + ^ x27: .cfa -72 + ^ x28: .cfa -80 + ^ .ra: .cfa -88 + ^ x29: .cfa -96 + ^
STACK CFI 440f4 .cfa: sp 96 +
STACK CFI 4410c .cfa: sp 0 +
STACK CFI 44110 .cfa: x29 96 +
STACK CFI INIT 44390 75c .cfa: sp 0 +
STACK CFI 44394 .cfa: sp 368 +
STACK CFI 443b0 .cfa: x29 96 + x19: .cfa -8 + ^ x20: .cfa -16 + ^ x21: .cfa -24 + ^ x22: .cfa -32 + ^ x23: .cfa -40 + ^ x24: .cfa -48 + ^ x25: .cfa -56 + ^ x26: .cfa -64 + ^ x27: .cfa -72 + ^ x28: .cfa -80 + ^ .ra: .cfa -88 + ^ x29: .cfa -96 + ^
STACK CFI 44464 .cfa: sp 368 +
STACK CFI 44480 .cfa: sp 0 +
STACK CFI 44484 .cfa: x29 96 +
STACK CFI 444d8 .cfa: sp 368 +
STACK CFI 444f4 .cfa: sp 0 +
STACK CFI 444f8 .cfa: x29 96 +
STACK CFI INIT 44eac eb0 .cfa: sp 0 +
STACK CFI 44eb0 .cfa: sp 96 +
STACK CFI 44ec8 .cfa: x29 96 + x19: .cfa -8 + ^ x20: .cfa -16 + ^ x21: .cfa -24 + ^ x22: .cfa -32 + ^ x23: .cfa -40 + ^ x24: .cfa -48 + ^ x25: .cfa -56 + ^ x26: .cfa -64 + ^ x27: .cfa -72 + ^ x28: .cfa -80 + ^ .ra: .cfa -88 + ^ x29: .cfa -96 + ^
STACK CFI 45b70 .cfa: sp 96 +
STACK CFI 45b88 .cfa: sp 0 +
STACK CFI 45b8c .cfa: x29 96 +
STACK CFI INIT 460d0 1c9c .cfa: sp 0 +
STACK CFI 460d4 .cfa: sp 112 +
STACK CFI 460f0 .cfa: x29 96 + x19: .cfa -8 + ^ x20: .cfa -16 + ^ x21: .cfa -24 + ^ x22: .cfa -32 + ^ x23: .cfa -40 + ^ x24: .cfa -48 + ^ x25: .cfa -56 + ^ x26: .cfa -64 + ^ x27: .cfa -72 + ^ x28: .cfa -80 + ^ .ra: .cfa -88 + ^ x29: .cfa -96 + ^ v8: .cfa -112 + ^
STACK CFI 464d8 .cfa: sp 112 +
STACK CFI 464f4 .cfa: sp 0 +
STACK CFI 464f8 .cfa: x29 96 +
STACK CFI INIT 4a530 9a0 .cfa: sp 0 +
STACK CFI 4a534 .cfa: sp 144 +
STACK CFI 4a54c .cfa: x29 80 + x19: .cfa -8 + ^ x20: .cfa -16 + ^ x21: .cfa -24 + ^ x22: .cfa -32 + ^ x23: .cfa -40 + ^ x24: .cfa -48 + ^ x25: .cfa -64 + ^ .ra: .cfa -72 + ^ x29: .cfa -80 + ^
STACK CFI 4ae4c .cfa: sp 144 +
STACK CFI 4ae64 .cfa: sp 0 +
STACK CFI 4ae68 .cfa: x29 80 +
STACK CFI INIT 4c3f4 57c .cfa: sp 0 +
STACK CFI 4c3f8 .cfa: sp 96 +
STACK CFI 4c410 .cfa: x29 96 + x19: .cfa -8 + ^ x20: .cfa -16 + ^ x21: .cfa -24 + ^ x22: .cfa -32 + ^ x23: .cfa -40 + ^ x24: .cfa -48 + ^ x25: .cfa -56 + ^ x26: .cfa -64 + ^ x27: .cfa -72 + ^ x28: .cfa -80 + ^ .ra: .cfa -88 + ^ x29: .cfa -96 + ^
STACK CFI 4c8d4 .cfa: sp 96 +
STACK CFI 4c8ec .cfa: sp 0 +
STACK CFI 4c8f0 .cfa: x29 96 +
STACK CFI INIT 4c970 67c .cfa: sp 0 +
STACK CFI 4c974 .cfa: sp 96 +
STACK CFI 4c98c .cfa: x29 96 + x19: .cfa -8 + ^ x20: .cfa -16 + ^ x21: .cfa -24 + ^ x22: .cfa -32 + ^ x23: .cfa -40 + ^ x24: .cfa -48 + ^ x25: .cfa -56 + ^ x26: .cfa -64 + ^ x27: .cfa -72 + ^ x28: .cfa -80 + ^ .ra: .cfa -88 + ^ x29: .cfa -96 + ^
STACK CFI 4cf50 .cfa: sp 96 +
STACK CFI 4cf68 .cfa: sp 0 +
STACK CFI 4cf6c .cfa: x29 96 +
