MODULE Linux arm64 A1C6444A85C202634CDB683A46EB85B10 ninsam.to-do_list.android64.so
INFO CODE_ID 4A44C6A1C28563024CDB683A46EB85B1AE8BED71
INFO GENERATOR mozilla/dump_syms 2.3.4
PUBLIC 328c0 0 __on_dlclose
PUBLIC 328d0 0 __emutls_unregister_key
PUBLIC 328d8 0 __on_dlclose_late
PUBLIC 328e0 0 __atexit_handler_wrapper
PUBLIC 328f4 0 atexit
PUBLIC 32910 0 pthread_atfork
PUBLIC 32920 0 unwind_phase2
PUBLIC 32a54 0 _Unwind_Resume
PUBLIC 32ad8 0 unwind_phase2_forced
PUBLIC m 32bcc 0 __unw_init_local
PUBLIC m 32c74 0 __unw_get_reg
PUBLIC 32cf0 0 __unw_step_stage2
PUBLIC m 32d04 0 __unw_get_proc_info
PUBLIC m 32d44 0 __unw_resume
PUBLIC 32d6c 0 libunwind::CFI_Parser<libunwind::LocalAddressSpace>::decodeFDE(libunwind::LocalAddressSpace&, unsigned long, libunwind::CFI_Parser<libunwind::LocalAddressSpace>::FDE_Info*, libunwind::CFI_Parser<libunwind::LocalAddressSpace>::CIE_Info*, bool)
PUBLIC 32efc 0 libunwind::CFI_Parser<libunwind::LocalAddressSpace>::parseCIE(libunwind::LocalAddressSpace&, unsigned long, libunwind::CFI_Parser<libunwind::LocalAddressSpace>::CIE_Info*)
PUBLIC 331c4 0 libunwind::AbstractUnwindCursor::~AbstractUnwindCursor()
PUBLIC 331cc 0 libunwind::UnwindCursor<libunwind::LocalAddressSpace, libunwind::Registers_arm64>::~UnwindCursor()
PUBLIC 331d4 0 libunwind::UnwindCursor<libunwind::LocalAddressSpace, libunwind::Registers_arm64>::validReg(int)
PUBLIC 33218 0 libunwind::UnwindCursor<libunwind::LocalAddressSpace, libunwind::Registers_arm64>::getReg(int)
PUBLIC 33300 0 libunwind::UnwindCursor<libunwind::LocalAddressSpace, libunwind::Registers_arm64>::setReg(int, unsigned long)
PUBLIC 333e8 0 libunwind::UnwindCursor<libunwind::LocalAddressSpace, libunwind::Registers_arm64>::validFloatReg(int)
PUBLIC 333fc 0 libunwind::UnwindCursor<libunwind::LocalAddressSpace, libunwind::Registers_arm64>::getFloatReg(int)
PUBLIC 3340c 0 libunwind::UnwindCursor<libunwind::LocalAddressSpace, libunwind::Registers_arm64>::setFloatReg(int, double)
PUBLIC 3341c 0 libunwind::UnwindCursor<libunwind::LocalAddressSpace, libunwind::Registers_arm64>::step(bool)
PUBLIC 3350c 0 libunwind::UnwindCursor<libunwind::LocalAddressSpace, libunwind::Registers_arm64>::getInfo(unw_proc_info_t*)
PUBLIC 33550 0 libunwind::UnwindCursor<libunwind::LocalAddressSpace, libunwind::Registers_arm64>::jumpto()
PUBLIC 3355c 0 libunwind::UnwindCursor<libunwind::LocalAddressSpace, libunwind::Registers_arm64>::isSignalFrame()
PUBLIC 33568 0 libunwind::UnwindCursor<libunwind::LocalAddressSpace, libunwind::Registers_arm64>::getFunctionName(char*, unsigned long, unsigned long*)
PUBLIC 33594 0 libunwind::UnwindCursor<libunwind::LocalAddressSpace, libunwind::Registers_arm64>::setInfoBasedOnIPRegister(bool)
PUBLIC 33814 0 libunwind::UnwindCursor<libunwind::LocalAddressSpace, libunwind::Registers_arm64>::getRegisterName(int)
PUBLIC 33820 0 libunwind::UnwindCursor<libunwind::LocalAddressSpace, libunwind::Registers_arm64>::stepThroughSigReturn(libunwind::Registers_arm64&)
PUBLIC 33940 0 libunwind::DwarfInstructions<libunwind::LocalAddressSpace, libunwind::Registers_arm64>::stepWithDwarf(libunwind::LocalAddressSpace&, unsigned long, unsigned long, libunwind::Registers_arm64&, bool&, bool)
PUBLIC 33dc8 0 libunwind::CFI_Parser<libunwind::LocalAddressSpace>::parseFDEInstructions(libunwind::LocalAddressSpace&, libunwind::CFI_Parser<libunwind::LocalAddressSpace>::FDE_Info const&, libunwind::CFI_Parser<libunwind::LocalAddressSpace>::CIE_Info const&, unsigned long, int, libunwind::CFI_Parser<libunwind::LocalAddressSpace>::PrologInfo*)
PUBLIC 34a10 0 libunwind::DwarfInstructions<libunwind::LocalAddressSpace, libunwind::Registers_arm64>::getCFA(libunwind::LocalAddressSpace&, libunwind::CFI_Parser<libunwind::LocalAddressSpace>::PrologInfo const&, libunwind::Registers_arm64 const&)
PUBLIC 34b44 0 libunwind::DwarfInstructions<libunwind::LocalAddressSpace, libunwind::Registers_arm64>::getSavedRegister(libunwind::LocalAddressSpace&, libunwind::Registers_arm64 const&, unsigned long, libunwind::CFI_Parser<libunwind::LocalAddressSpace>::RegisterLocation const&)
PUBLIC 34d54 0 libunwind::LocalAddressSpace::getEncodedP(unsigned long&, unsigned long, unsigned char, unsigned long)
PUBLIC 350e0 0 libunwind::LocalAddressSpace::getULEB128(unsigned long&, unsigned long)
PUBLIC 352a8 0 libunwind::DwarfInstructions<libunwind::LocalAddressSpace, libunwind::Registers_arm64>::evaluateExpression(unsigned long, libunwind::LocalAddressSpace&, libunwind::Registers_arm64 const&, unsigned long)
PUBLIC 35c64 0 libunwind::UnwindCursor<libunwind::LocalAddressSpace, libunwind::Registers_arm64>::getInfoFromDwarfSection(unsigned long, libunwind::UnwindInfoSections const&, unsigned int)
PUBLIC 35f38 0 libunwind::findUnwindSectionsByPhdr(dl_phdr_info*, unsigned long, void*)
PUBLIC 3606c 0 libunwind::EHHeaderParser<libunwind::LocalAddressSpace>::decodeEHHdr(libunwind::LocalAddressSpace&, unsigned long, unsigned long, libunwind::EHHeaderParser<libunwind::LocalAddressSpace>::EHHeaderInfo&)
PUBLIC 3618c 0 libunwind::CFI_Parser<libunwind::LocalAddressSpace>::findFDE(libunwind::LocalAddressSpace&, unsigned long, unsigned long, unsigned long, unsigned long, libunwind::CFI_Parser<libunwind::LocalAddressSpace>::FDE_Info*, libunwind::CFI_Parser<libunwind::LocalAddressSpace>::CIE_Info*)
PUBLIC 36354 0 libunwind::EHHeaderParser<libunwind::LocalAddressSpace>::findFDE(libunwind::LocalAddressSpace&, unsigned long, unsigned long, unsigned int, libunwind::CFI_Parser<libunwind::LocalAddressSpace>::FDE_Info*, libunwind::CFI_Parser<libunwind::LocalAddressSpace>::CIE_Info*)
PUBLIC 364bc 0 libunwind::EHHeaderParser<libunwind::LocalAddressSpace>::getTableEntrySize(unsigned char)
PUBLIC 365b8 0 libunwind::Registers_arm64::getRegisterName(int)
PUBLIC 365e8 0 __libunwind_Registers_arm64_jumpto
PUBLIC m 36678 0 __unw_getcontext
PUBLIC 36720 0 __aarch64_ldadd8_relax
PUBLIC 36750 0 init_have_lse_atomics
PUBLIC 367e8 0 __init_cpu_features_constructor
PUBLIC 36d84 0 __init_cpu_features
PUBLIC 36e10 0 __aarch64_ldadd8_acq_rel
FUNC 36e40 b30 0 __cxx_global_var_init
FUNC 37970 18 0 geode::modifier::ModifyBase<geode::modifier::ModifyDerive<MyNotepadLayer, EditorUI> >::~ModifyBase()
FUNC 37988 690 0 geode::modifier::ModifyDerive<MyNotepadLayer, EditorUI>::apply()
FUNC 38018 50 0 std::__ndk1::shared_ptr<geode::Hook>::~shared_ptr[abi:ne180000]()
FUNC 38068 74 0 geode::impl::ResultData<geode::Hook*, std::__ndk1::basic_string<char, std::__ndk1::char_traits<char>, std::__ndk1::allocator<char> > >::~ResultData()
FUNC 380dc 7c 0 std::__ndk1::vector<std::__ndk1::basic_string<char, std::__ndk1::char_traits<char>, std::__ndk1::allocator<char> >, std::__ndk1::allocator<std::__ndk1::basic_string<char, std::__ndk1::char_traits<char>, std::__ndk1::allocator<char> > > >::~vector[abi:ne180000]()
FUNC 38158 4 0 geode::modifier::ModifyBase<geode::modifier::ModifyDerive<MyNotepadLayer, EditorUI> >::apply()
PUBLIC 3815c 0 __clang_call_terminate
FUNC 3816c 154 0 _ZN5geode15UnwrapExceptionC2IRPNS_4HookEQsr4implE18IsStringStreamableIT_EEENS_4impl5OkTagEOS5_
FUNC 382c0 34 0 std::__ndk1::__throw_bad_variant_access[abi:ne180000]()
FUNC 382f4 124 0 std::__ndk1::basic_stringstream<char, std::__ndk1::char_traits<char>, std::__ndk1::allocator<char> >::basic_stringstream[abi:ne180000]()
FUNC 38418 80 0 std::__ndk1::basic_stringstream<char, std::__ndk1::char_traits<char>, std::__ndk1::allocator<char> >::~basic_stringstream()
FUNC 38498 24 0 geode::UnwrapException::~UnwrapException()
FUNC 384bc 198 0 std::__ndk1::__put_character_sequence[abi:ne180000]<char, std::__ndk1::char_traits<char> >(std::__ndk1::basic_ostream<char, std::__ndk1::char_traits<char> >, std::__ndk1::basic_ostream const*, unsigned long)
FUNC 38654 1b4 0 std::__ndk1::__pad_and_output[abi:ne180000]<char, std::__ndk1::char_traits<char> >(std::__ndk1::char_traits<char>, std::__ndk1::ostreambuf_iterator const*, std::__ndk1::ostreambuf_iterator const, std::__ndk1::ostreambuf_iterator const, std::__ndk1::ios_base&, std::__ndk1::ostreambuf_iterator)
FUNC 38808 14 0 std::__ndk1::basic_string<char, std::__ndk1::char_traits<char>, std::__ndk1::allocator<char> >::__throw_length_error[abi:ne180000]() const
FUNC 3881c 50 0 std::__ndk1::__throw_length_error[abi:ne180000](char const*)
FUNC 3886c 30 0 std::length_error::length_error[abi:ne180000](char const*)
FUNC 3889c 34 0 std::__throw_bad_array_new_length([abi:ne180000], void)
FUNC 388d0 15c 0 std::__ndk1::basic_stringbuf<char, std::__ndk1::char_traits<char>, std::__ndk1::allocator<char> >::str[abi:ne180000]() &&
FUNC 38a2c 148 0 std::__ndk1::basic_stringbuf<char, std::__ndk1::char_traits<char>, std::__ndk1::allocator<char> >::__init_buf_ptrs[abi:ne180000]()
FUNC 38b74 70 0 std::__ndk1::basic_string<char, std::__ndk1::char_traits<char>, std::__ndk1::allocator<char> >::__init_copy_ctor_external(char const*, unsigned long)
FUNC 38be4 68 0 std::__ndk1::__split_buffer<std::__ndk1::basic_string<char, std::__ndk1::char_traits<char>, std::__ndk1::allocator<char> >, std::__ndk1::allocator<std::__ndk1::basic_string<char, std::__ndk1::char_traits<char>, std::__ndk1::allocator<char> > >&>::~__split_buffer()
FUNC 38c4c 14 0 std::__ndk1::vector<std::__ndk1::basic_string<char, std::__ndk1::char_traits<char>, std::__ndk1::allocator<char> >, std::__ndk1::allocator<std::__ndk1::basic_string<char, std::__ndk1::char_traits<char>, std::__ndk1::allocator<char> > > >::__throw_length_error[abi:ne180000]() const
FUNC 38c60 4 0 std::__ndk1::__variant_detail::__visitation::__base::__dispatcher<(unsigned long)0>::__dispatch[abi:ne180000]<std::__ndk1::__variant_detail::__dtor<std::__ndk1::__variant_detail::__traits<geode::Hook*, std::__ndk1::basic_string<char, std::__ndk1::char_traits<char>, std::__ndk1::allocator<char> > >, (std::__ndk1::__variant_detail::_Trait)1>::__destroy[abi:ne180000]()::{lambda(auto:1&)#1}, std::__ndk1::__variant_detail::__base<(std::__ndk1::__variant_detail::__traits<geode::Hook*, std::__ndk1::basic_string<char, std::__ndk1::char_traits<char>, std::__ndk1::allocator<char> > >)1, geode::Hook, std::__ndk1::allocator<char> >&>(std::__ndk1::__variant_detail::__dtor<std::__ndk1::__variant_detail::__traits<geode::Hook*, std::__ndk1::basic_string<char, std::__ndk1::char_traits<char>, std::__ndk1::allocator<char> > >, (std::__ndk1::__variant_detail::_Trait)1>, std::__ndk1::__variant_detail::__base<(std::__ndk1::__variant_detail::__traits<geode::Hook*, std::__ndk1::basic_string<char, std::__ndk1::char_traits<char>, std::__ndk1::allocator<char> > >)1, geode::Hook, std::__ndk1::allocator<char> >&)
FUNC 38c64 14 0 std::__ndk1::__variant_detail::__visitation::__base::__dispatcher<(unsigned long)1>::__dispatch[abi:ne180000]<std::__ndk1::__variant_detail::__dtor<std::__ndk1::__variant_detail::__traits<geode::Hook*, std::__ndk1::basic_string<char, std::__ndk1::char_traits<char>, std::__ndk1::allocator<char> > >, (std::__ndk1::__variant_detail::_Trait)1>::__destroy[abi:ne180000]()::{lambda(auto:1&)#1}, std::__ndk1::__variant_detail::__base<(std::__ndk1::__variant_detail::__traits<geode::Hook*, std::__ndk1::basic_string<char, std::__ndk1::char_traits<char>, std::__ndk1::allocator<char> > >)1, geode::Hook, std::__ndk1::allocator<char> >&>(std::__ndk1::__variant_detail::__dtor<std::__ndk1::__variant_detail::__traits<geode::Hook*, std::__ndk1::basic_string<char, std::__ndk1::char_traits<char>, std::__ndk1::allocator<char> > >, (std::__ndk1::__variant_detail::_Trait)1>, std::__ndk1::__variant_detail::__base<(std::__ndk1::__variant_detail::__traits<geode::Hook*, std::__ndk1::basic_string<char, std::__ndk1::char_traits<char>, std::__ndk1::allocator<char> > >)1, geode::Hook, std::__ndk1::allocator<char> >&)
FUNC 38c78 84 0 std::__ndk1::__tree<std::__ndk1::__value_type<std::__ndk1::basic_string<char, std::__ndk1::char_traits<char>, std::__ndk1::allocator<char> >, std::__ndk1::shared_ptr<geode::Hook> >, std::__ndk1::__map_value_compare<std::__ndk1::basic_string<char, std::__ndk1::char_traits<char>, std::__ndk1::allocator<char> >, std::__ndk1::__value_type<std::__ndk1::basic_string<char, std::__ndk1::char_traits<char>, std::__ndk1::allocator<char> >, std::__ndk1::shared_ptr<geode::Hook> >, std::__ndk1::less<std::__ndk1::basic_string<char, std::__ndk1::char_traits<char>, std::__ndk1::allocator<char> > >, true>, std::__ndk1::allocator<std::__ndk1::__value_type<std::__ndk1::basic_string<char, std::__ndk1::char_traits<char>, std::__ndk1::allocator<char> >, std::__ndk1::shared_ptr<geode::Hook> > > >::destroy(std::__ndk1::__tree_node<std::__ndk1::__value_type<std::__ndk1::basic_string<char, std::__ndk1::char_traits<char>, std::__ndk1::allocator<char> >, std::__ndk1::shared_ptr<geode::Hook> >, void*>*)
FUNC 38cfc 5f8 0 geode::modifier::AsStaticFunction_init<MyNotepadLayer, bool (MyNotepadLayer::*)(LevelEditorLayer*)>::Impl<bool (MyNotepadLayer::*)(LevelEditorLayer*)>::function(MyNotepadLayer*, LevelEditorLayer*)
FUNC 392f4 3c 0 geode::modifier::AsStaticFunction_showUI<MyNotepadLayer, void (MyNotepadLayer::*)(bool)>::Impl<void (MyNotepadLayer::*)(bool)>::function(MyNotepadLayer*, bool)
FUNC 39330 50 0 std::__ndk1::shared_ptr<tulip::hook::CallingConvention>::~shared_ptr[abi:ne180000]()
FUNC 39380 64 0 tulip::hook::HandlerMetadata::~HandlerMetadata()
FUNC 393e4 1c 0 MyNotepadLayer::Onnotepadbutton(cocos2d::CCObject*)
FUNC 39400 50 0 std::__ndk1::shared_ptr<geode::StringSettingV3>::~shared_ptr[abi:ne180000]()
FUNC 39450 d8 0 geode::cast::traverseTypeinfoFor(void*, geode::cast::ClassTypeinfoType const*, char const*)
FUNC 39528 628 0 geode::modifier::FieldIntermediate<MyNotepadLayer, EditorUI>::self()
FUNC 39b50 4 0 geode::modifier::FieldIntermediate<MyNotepadLayer, EditorUI>::fieldDestructor(void*)
FUNC 39b54 14 0 std::__ndk1::vector<void*, std::__ndk1::allocator<void*> >::__throw_length_error[abi:ne180000]() const
FUNC 39b68 14 0 std::__ndk1::vector<std::__ndk1::function<void (void*)>, std::__ndk1::allocator<std::__ndk1::function<void (void*)> > >::__throw_length_error[abi:ne180000]() const
FUNC 39b7c c 0 std::__ndk1::vector<void*, std::__ndk1::allocator<void*> >::__throw_out_of_range[abi:ne180000]() const
FUNC 39b88 50 0 std::__ndk1::__throw_out_of_range[abi:ne180000](char const*)
FUNC 39bd8 30 0 std::out_of_range::out_of_range[abi:ne180000](char const*)
FUNC 39c08 c 0 std::__ndk1::vector<std::__ndk1::function<void (void*)>, std::__ndk1::allocator<std::__ndk1::function<void (void*)> > >::__throw_out_of_range[abi:ne180000]() const
FUNC 39c14 4 0 std::__ndk1::__function::__base<void (void*)>::~__base()
FUNC 39c18 4 0 std::__ndk1::__function::__func<void (*)(void*), std::__ndk1::allocator<void (*)(void*)>, void (void*)>::~__func()
FUNC 39c1c 38 0 std::__ndk1::__function::__func<void (*)(void*), std::__ndk1::allocator<void (*)(void*)>, void (void*)>::__clone() const
FUNC 39c54 18 0 std::__ndk1::__function::__func<void (*)(void*), std::__ndk1::allocator<void (*)(void*)>, void (void*)>::__clone(std::__ndk1::__function::__base<void (void*)>*) const
FUNC 39c6c 4 0 std::__ndk1::__function::__func<void (*)(void*), std::__ndk1::allocator<void (*)(void*)>, void (void*)>::destroy()
FUNC 39c70 4 0 std::__ndk1::__function::__func<void (*)(void*), std::__ndk1::allocator<void (*)(void*)>, void (void*)>::destroy_deallocate()
FUNC 39c74 10 0 std::__ndk1::__function::__func<void (*)(void*), std::__ndk1::allocator<void (*)(void*)>, void (void*)>::operator()(void*&&)
FUNC 39c84 1c 0 std::__ndk1::__function::__func<void (*)(void*), std::__ndk1::allocator<void (*)(void*)>, void (void*)>::target(std::type_info const&) const
FUNC 39ca0 c 0 std::__ndk1::__function::__func<void (*)(void*), std::__ndk1::allocator<void (*)(void*)>, void (void*)>::target_type() const
FUNC 39cac 104 0 std::__ndk1::__tree<std::__ndk1::__value_type<std::__ndk1::basic_string<char, std::__ndk1::char_traits<char>, std::__ndk1::allocator<char> >, std::__ndk1::shared_ptr<geode::Hook> >, std::__ndk1::__map_value_compare<std::__ndk1::basic_string<char, std::__ndk1::char_traits<char>, std::__ndk1::allocator<char> >, std::__ndk1::__value_type<std::__ndk1::basic_string<char, std::__ndk1::char_traits<char>, std::__ndk1::allocator<char> >, std::__ndk1::shared_ptr<geode::Hook> >, std::__ndk1::less<std::__ndk1::basic_string<char, std::__ndk1::char_traits<char>, std::__ndk1::allocator<char> > >, true>, std::__ndk1::allocator<std::__ndk1::__value_type<std::__ndk1::basic_string<char, std::__ndk1::char_traits<char>, std::__ndk1::allocator<char> >, std::__ndk1::shared_ptr<geode::Hook> > > >::__find_equal<std::__ndk1::basic_string<char, std::__ndk1::char_traits<char>, std::__ndk1::allocator<char> > >(std::__ndk1::__tree_end_node<std::__ndk1::__tree_node_base<void*>*>*&, std::__ndk1::basic_string<char, std::__ndk1::char_traits<char>, std::__ndk1::allocator<char> > const&)
FUNC 39db0 19c 0 std::__ndk1::__tree_balance_after_insert[abi:ne180000]<std::__ndk1::__tree_node_base<void*>*>(std::__ndk1::__tree_node_base<void*>*, std::__ndk1::__tree_node_base<void*>*)
FUNC 39f4c 1bcc 0 NotepadLayer::setup()
FUNC 3bb18 4 0 NotepadLayer::onTouchFix(cocos2d::CCObject*)
FUNC 3bb1c 298 0 geode::Mod::getSavedValue<std::__ndk1::basic_string<char, std::__ndk1::char_traits<char>, std::__ndk1::allocator<char> > >(std::__ndk1::basic_string_view<char, std::__ndk1::char_traits<char> >, std::__ndk1::basic_string<char, std::__ndk1::char_traits<char>, std::__ndk1::allocator<char> > const&)
FUNC 3bdb4 c 0 NotepadLayer::Close(cocos2d::CCObject*)
FUNC 3bdc0 3c 0 NotepadLayer::OpenSettings(cocos2d::CCObject*)
FUNC 3bdfc 5c8 0 NotepadLayer::onPage(cocos2d::CCObject*)
FUNC 3c3c4 e8 0 NotepadLayer::create()
FUNC 3c4ac 8 0 cocos2d::CCCopying::copyWithZone(cocos2d::CCZone*)
FUNC 3c4b4 24 0 NotepadLayer::~NotepadLayer()
FUNC 3c4d8 4 0 cocos2d::CCLayerRGBA::setOpacityModifyRGB(bool)
FUNC 3c4dc 8 0 cocos2d::CCLayerRGBA::isOpacityModifyRGB()
FUNC 3c4e4 8 0 {virtual override thunk({offset(-320)}, NotepadLayer::~NotepadLayer())}
FUNC 3c4ec 28 0 {virtual override thunk({offset(-320)}, NotepadLayer::~NotepadLayer())}
FUNC 3c514 4 0 cocos2d::CCKeyboardDelegate::keyUp(cocos2d::enumKeyCodes)
FUNC 3c518 4 0 cocos2d::CCMouseDelegate::rightKeyDown()
FUNC 3c51c 4 0 cocos2d::CCMouseDelegate::rightKeyUp()
FUNC 3c520 4 0 cocos2d::CCMouseDelegate::scrollWheel(float, float)
FUNC 3c524 4 0 {virtual override thunk({offset(-408)}, cocos2d::CCLayerRGBA::setOpacityModifyRGB(bool))}
FUNC 3c528 8 0 {virtual override thunk({offset(-408)}, cocos2d::CCLayerRGBA::isOpacityModifyRGB())}
FUNC 3c530 74 0 geode::impl::ResultData<matjson::Value&, std::__ndk1::basic_string<char, std::__ndk1::char_traits<char>, std::__ndk1::allocator<char> > >::~ResultData()
FUNC 3c5a4 74 0 geode::impl::ResultData<std::__ndk1::basic_string<char, std::__ndk1::char_traits<char>, std::__ndk1::allocator<char> >, std::__ndk1::basic_string<char, std::__ndk1::char_traits<char>, std::__ndk1::allocator<char> > >::~ResultData()
FUNC 3c618 4 0 std::__ndk1::__variant_detail::__visitation::__base::__dispatcher<(unsigned long)0>::__dispatch[abi:ne180000]<std::__ndk1::__variant_detail::__dtor<std::__ndk1::__variant_detail::__traits<std::__ndk1::reference_wrapper<matjson::Value>, std::__ndk1::basic_string<char, std::__ndk1::char_traits<char>, std::__ndk1::allocator<char> > >, (std::__ndk1::__variant_detail::_Trait)1>::__destroy[abi:ne180000]()::{lambda(auto:1&)#1}, std::__ndk1::__variant_detail::__base<(std::__ndk1::__variant_detail::__traits<std::__ndk1::reference_wrapper<matjson::Value>, std::__ndk1::basic_string<char, std::__ndk1::char_traits<char>, std::__ndk1::allocator<char> > >)1, matjson::Value, std::__ndk1::allocator<char> >&>(std::__ndk1::__variant_detail::__dtor<std::__ndk1::__variant_detail::__traits<std::__ndk1::reference_wrapper<matjson::Value>, std::__ndk1::basic_string<char, std::__ndk1::char_traits<char>, std::__ndk1::allocator<char> > >, (std::__ndk1::__variant_detail::_Trait)1>, std::__ndk1::__variant_detail::__base<(std::__ndk1::__variant_detail::__traits<std::__ndk1::reference_wrapper<matjson::Value>, std::__ndk1::basic_string<char, std::__ndk1::char_traits<char>, std::__ndk1::allocator<char> > >)1, matjson::Value, std::__ndk1::allocator<char> >&)
FUNC 3c61c 14 0 std::__ndk1::__variant_detail::__visitation::__base::__dispatcher<(unsigned long)1>::__dispatch[abi:ne180000]<std::__ndk1::__variant_detail::__dtor<std::__ndk1::__variant_detail::__traits<std::__ndk1::reference_wrapper<matjson::Value>, std::__ndk1::basic_string<char, std::__ndk1::char_traits<char>, std::__ndk1::allocator<char> > >, (std::__ndk1::__variant_detail::_Trait)1>::__destroy[abi:ne180000]()::{lambda(auto:1&)#1}, std::__ndk1::__variant_detail::__base<(std::__ndk1::__variant_detail::__traits<std::__ndk1::reference_wrapper<matjson::Value>, std::__ndk1::basic_string<char, std::__ndk1::char_traits<char>, std::__ndk1::allocator<char> > >)1, matjson::Value, std::__ndk1::allocator<char> >&>(std::__ndk1::__variant_detail::__dtor<std::__ndk1::__variant_detail::__traits<std::__ndk1::reference_wrapper<matjson::Value>, std::__ndk1::basic_string<char, std::__ndk1::char_traits<char>, std::__ndk1::allocator<char> > >, (std::__ndk1::__variant_detail::_Trait)1>, std::__ndk1::__variant_detail::__base<(std::__ndk1::__variant_detail::__traits<std::__ndk1::reference_wrapper<matjson::Value>, std::__ndk1::basic_string<char, std::__ndk1::char_traits<char>, std::__ndk1::allocator<char> > >)1, matjson::Value, std::__ndk1::allocator<char> >&)
FUNC 3c630 14 0 std::__ndk1::__variant_detail::__visitation::__base::__dispatcher<(unsigned long)0>::__dispatch[abi:ne180000]<std::__ndk1::__variant_detail::__dtor<std::__ndk1::__variant_detail::__traits<std::__ndk1::basic_string<char, std::__ndk1::char_traits<char>, std::__ndk1::allocator<char> >, std::__ndk1::allocator<char> >, (std::__ndk1::__variant_detail::_Trait)1>::__destroy[abi:ne180000]()::{lambda(auto:1&)#1}, std::__ndk1::__variant_detail::__base<(std::__ndk1::__variant_detail::__traits<std::__ndk1::basic_string<char, std::__ndk1::char_traits<char>, std::__ndk1::allocator<char> >, std::__ndk1::allocator<char> >)1, std::__ndk1::allocator<char>, std::__ndk1::allocator<char> >&>(std::__ndk1::__variant_detail::__dtor<std::__ndk1::__variant_detail::__traits<std::__ndk1::basic_string<char, std::__ndk1::char_traits<char>, std::__ndk1::allocator<char> >, std::__ndk1::allocator<char> >, (std::__ndk1::__variant_detail::_Trait)1>, std::__ndk1::__variant_detail::__base<(std::__ndk1::__variant_detail::__traits<std::__ndk1::basic_string<char, std::__ndk1::char_traits<char>, std::__ndk1::allocator<char> >, std::__ndk1::allocator<char> >)1, std::__ndk1::allocator<char>, std::__ndk1::allocator<char> >&)
FUNC 3c644 14 0 std::__ndk1::__variant_detail::__visitation::__base::__dispatcher<(unsigned long)1>::__dispatch[abi:ne180000]<std::__ndk1::__variant_detail::__dtor<std::__ndk1::__variant_detail::__traits<std::__ndk1::basic_string<char, std::__ndk1::char_traits<char>, std::__ndk1::allocator<char> >, std::__ndk1::allocator<char> >, (std::__ndk1::__variant_detail::_Trait)1>::__destroy[abi:ne180000]()::{lambda(auto:1&)#1}, std::__ndk1::__variant_detail::__base<(std::__ndk1::__variant_detail::__traits<std::__ndk1::basic_string<char, std::__ndk1::char_traits<char>, std::__ndk1::allocator<char> >, std::__ndk1::allocator<char> >)1, std::__ndk1::allocator<char>, std::__ndk1::allocator<char> >&>(std::__ndk1::__variant_detail::__dtor<std::__ndk1::__variant_detail::__traits<std::__ndk1::basic_string<char, std::__ndk1::char_traits<char>, std::__ndk1::allocator<char> >, std::__ndk1::allocator<char> >, (std::__ndk1::__variant_detail::_Trait)1>, std::__ndk1::__variant_detail::__base<(std::__ndk1::__variant_detail::__traits<std::__ndk1::basic_string<char, std::__ndk1::char_traits<char>, std::__ndk1::allocator<char> >, std::__ndk1::allocator<char> >)1, std::__ndk1::allocator<char>, std::__ndk1::allocator<char> >&)
FUNC 3c658 4 0 std::__ndk1::__function::__func<NotepadLayer::setup()::$_0, std::__ndk1::allocator<NotepadLayer::setup()::$_0>, void (std::__ndk1::basic_string<char, std::__ndk1::char_traits<char>, std::__ndk1::allocator<char> > const&)>::~__func()
FUNC 3c65c 34 0 std::__ndk1::__function::__func<NotepadLayer::setup()::$_0, std::__ndk1::allocator<NotepadLayer::setup()::$_0>, void (std::__ndk1::basic_string<char, std::__ndk1::char_traits<char>, std::__ndk1::allocator<char> > const&)>::__clone() const
FUNC 3c690 14 0 std::__ndk1::__function::__func<NotepadLayer::setup()::$_0, std::__ndk1::allocator<NotepadLayer::setup()::$_0>, void (std::__ndk1::basic_string<char, std::__ndk1::char_traits<char>, std::__ndk1::allocator<char> > const&)>::__clone(std::__ndk1::__function::__base<void (std::__ndk1::basic_string<char, std::__ndk1::char_traits<char>, std::__ndk1::allocator<char> > const&)>*) const
FUNC 3c6a4 4 0 std::__ndk1::__function::__func<NotepadLayer::setup()::$_0, std::__ndk1::allocator<NotepadLayer::setup()::$_0>, void (std::__ndk1::basic_string<char, std::__ndk1::char_traits<char>, std::__ndk1::allocator<char> > const&)>::destroy()
FUNC 3c6a8 4 0 std::__ndk1::__function::__func<NotepadLayer::setup()::$_0, std::__ndk1::allocator<NotepadLayer::setup()::$_0>, void (std::__ndk1::basic_string<char, std::__ndk1::char_traits<char>, std::__ndk1::allocator<char> > const&)>::destroy_deallocate()
FUNC 3c6ac 8c 0 std::__ndk1::__function::__func<NotepadLayer::setup()::$_0, std::__ndk1::allocator<NotepadLayer::setup()::$_0>, void (std::__ndk1::basic_string<char, std::__ndk1::char_traits<char>, std::__ndk1::allocator<char> > const&)>::operator()(std::__ndk1::basic_string<char, std::__ndk1::char_traits<char>, std::__ndk1::allocator<char> > const&)
FUNC 3c738 1c 0 std::__ndk1::__function::__func<NotepadLayer::setup()::$_0, std::__ndk1::allocator<NotepadLayer::setup()::$_0>, void (std::__ndk1::basic_string<char, std::__ndk1::char_traits<char>, std::__ndk1::allocator<char> > const&)>::target(std::type_info const&) const
FUNC 3c754 c 0 std::__ndk1::__function::__func<NotepadLayer::setup()::$_0, std::__ndk1::allocator<NotepadLayer::setup()::$_0>, void (std::__ndk1::basic_string<char, std::__ndk1::char_traits<char>, std::__ndk1::allocator<char> > const&)>::target_type() const
FUNC 3c760 140 0 geode::Mod::setSavedValue<std::__ndk1::basic_string<char, std::__ndk1::char_traits<char>, std::__ndk1::allocator<char> > >(std::__ndk1::basic_string_view<char, std::__ndk1::char_traits<char> >, std::__ndk1::basic_string<char, std::__ndk1::char_traits<char>, std::__ndk1::allocator<char> > const&)
FUNC 3c8a0 1dc 0 geode::Mod::getSavedValue<std::__ndk1::basic_string<char, std::__ndk1::char_traits<char>, std::__ndk1::allocator<char> > >(std::__ndk1::basic_string_view<char, std::__ndk1::char_traits<char> >)
FUNC 3ca7c 4 0 std::__ndk1::__function::__func<NotepadLayer::setup()::$_1, std::__ndk1::allocator<NotepadLayer::setup()::$_1>, void (std::__ndk1::basic_string<char, std::__ndk1::char_traits<char>, std::__ndk1::allocator<char> > const&)>::~__func()
FUNC 3ca80 34 0 std::__ndk1::__function::__func<NotepadLayer::setup()::$_1, std::__ndk1::allocator<NotepadLayer::setup()::$_1>, void (std::__ndk1::basic_string<char, std::__ndk1::char_traits<char>, std::__ndk1::allocator<char> > const&)>::__clone() const
FUNC 3cab4 14 0 std::__ndk1::__function::__func<NotepadLayer::setup()::$_1, std::__ndk1::allocator<NotepadLayer::setup()::$_1>, void (std::__ndk1::basic_string<char, std::__ndk1::char_traits<char>, std::__ndk1::allocator<char> > const&)>::__clone(std::__ndk1::__function::__base<void (std::__ndk1::basic_string<char, std::__ndk1::char_traits<char>, std::__ndk1::allocator<char> > const&)>*) const
FUNC 3cac8 4 0 std::__ndk1::__function::__func<NotepadLayer::setup()::$_1, std::__ndk1::allocator<NotepadLayer::setup()::$_1>, void (std::__ndk1::basic_string<char, std::__ndk1::char_traits<char>, std::__ndk1::allocator<char> > const&)>::destroy()
FUNC 3cacc 4 0 std::__ndk1::__function::__func<NotepadLayer::setup()::$_1, std::__ndk1::allocator<NotepadLayer::setup()::$_1>, void (std::__ndk1::basic_string<char, std::__ndk1::char_traits<char>, std::__ndk1::allocator<char> > const&)>::destroy_deallocate()
FUNC 3cad0 8c 0 std::__ndk1::__function::__func<NotepadLayer::setup()::$_1, std::__ndk1::allocator<NotepadLayer::setup()::$_1>, void (std::__ndk1::basic_string<char, std::__ndk1::char_traits<char>, std::__ndk1::allocator<char> > const&)>::operator()(std::__ndk1::basic_string<char, std::__ndk1::char_traits<char>, std::__ndk1::allocator<char> > const&)
FUNC 3cb5c 1c 0 std::__ndk1::__function::__func<NotepadLayer::setup()::$_1, std::__ndk1::allocator<NotepadLayer::setup()::$_1>, void (std::__ndk1::basic_string<char, std::__ndk1::char_traits<char>, std::__ndk1::allocator<char> > const&)>::target(std::type_info const&) const
FUNC 3cb78 c 0 std::__ndk1::__function::__func<NotepadLayer::setup()::$_1, std::__ndk1::allocator<NotepadLayer::setup()::$_1>, void (std::__ndk1::basic_string<char, std::__ndk1::char_traits<char>, std::__ndk1::allocator<char> > const&)>::target_type() const
FUNC 3cb84 4 0 std::__ndk1::__function::__func<NotepadLayer::setup()::$_2, std::__ndk1::allocator<NotepadLayer::setup()::$_2>, void (std::__ndk1::basic_string<char, std::__ndk1::char_traits<char>, std::__ndk1::allocator<char> > const&)>::~__func()
FUNC 3cb88 34 0 std::__ndk1::__function::__func<NotepadLayer::setup()::$_2, std::__ndk1::allocator<NotepadLayer::setup()::$_2>, void (std::__ndk1::basic_string<char, std::__ndk1::char_traits<char>, std::__ndk1::allocator<char> > const&)>::__clone() const
FUNC 3cbbc 14 0 std::__ndk1::__function::__func<NotepadLayer::setup()::$_2, std::__ndk1::allocator<NotepadLayer::setup()::$_2>, void (std::__ndk1::basic_string<char, std::__ndk1::char_traits<char>, std::__ndk1::allocator<char> > const&)>::__clone(std::__ndk1::__function::__base<void (std::__ndk1::basic_string<char, std::__ndk1::char_traits<char>, std::__ndk1::allocator<char> > const&)>*) const
FUNC 3cbd0 4 0 std::__ndk1::__function::__func<NotepadLayer::setup()::$_2, std::__ndk1::allocator<NotepadLayer::setup()::$_2>, void (std::__ndk1::basic_string<char, std::__ndk1::char_traits<char>, std::__ndk1::allocator<char> > const&)>::destroy()
FUNC 3cbd4 4 0 std::__ndk1::__function::__func<NotepadLayer::setup()::$_2, std::__ndk1::allocator<NotepadLayer::setup()::$_2>, void (std::__ndk1::basic_string<char, std::__ndk1::char_traits<char>, std::__ndk1::allocator<char> > const&)>::destroy_deallocate()
FUNC 3cbd8 8c 0 std::__ndk1::__function::__func<NotepadLayer::setup()::$_2, std::__ndk1::allocator<NotepadLayer::setup()::$_2>, void (std::__ndk1::basic_string<char, std::__ndk1::char_traits<char>, std::__ndk1::allocator<char> > const&)>::operator()(std::__ndk1::basic_string<char, std::__ndk1::char_traits<char>, std::__ndk1::allocator<char> > const&)
FUNC 3cc64 1c 0 std::__ndk1::__function::__func<NotepadLayer::setup()::$_2, std::__ndk1::allocator<NotepadLayer::setup()::$_2>, void (std::__ndk1::basic_string<char, std::__ndk1::char_traits<char>, std::__ndk1::allocator<char> > const&)>::target(std::type_info const&) const
FUNC 3cc80 c 0 std::__ndk1::__function::__func<NotepadLayer::setup()::$_2, std::__ndk1::allocator<NotepadLayer::setup()::$_2>, void (std::__ndk1::basic_string<char, std::__ndk1::char_traits<char>, std::__ndk1::allocator<char> > const&)>::target_type() const
FUNC 3cc8c 4 0 std::__ndk1::__function::__func<NotepadLayer::setup()::$_3, std::__ndk1::allocator<NotepadLayer::setup()::$_3>, void (std::__ndk1::basic_string<char, std::__ndk1::char_traits<char>, std::__ndk1::allocator<char> > const&)>::~__func()
FUNC 3cc90 34 0 std::__ndk1::__function::__func<NotepadLayer::setup()::$_3, std::__ndk1::allocator<NotepadLayer::setup()::$_3>, void (std::__ndk1::basic_string<char, std::__ndk1::char_traits<char>, std::__ndk1::allocator<char> > const&)>::__clone() const
FUNC 3ccc4 14 0 std::__ndk1::__function::__func<NotepadLayer::setup()::$_3, std::__ndk1::allocator<NotepadLayer::setup()::$_3>, void (std::__ndk1::basic_string<char, std::__ndk1::char_traits<char>, std::__ndk1::allocator<char> > const&)>::__clone(std::__ndk1::__function::__base<void (std::__ndk1::basic_string<char, std::__ndk1::char_traits<char>, std::__ndk1::allocator<char> > const&)>*) const
FUNC 3ccd8 4 0 std::__ndk1::__function::__func<NotepadLayer::setup()::$_3, std::__ndk1::allocator<NotepadLayer::setup()::$_3>, void (std::__ndk1::basic_string<char, std::__ndk1::char_traits<char>, std::__ndk1::allocator<char> > const&)>::destroy()
FUNC 3ccdc 4 0 std::__ndk1::__function::__func<NotepadLayer::setup()::$_3, std::__ndk1::allocator<NotepadLayer::setup()::$_3>, void (std::__ndk1::basic_string<char, std::__ndk1::char_traits<char>, std::__ndk1::allocator<char> > const&)>::destroy_deallocate()
FUNC 3cce0 8c 0 std::__ndk1::__function::__func<NotepadLayer::setup()::$_3, std::__ndk1::allocator<NotepadLayer::setup()::$_3>, void (std::__ndk1::basic_string<char, std::__ndk1::char_traits<char>, std::__ndk1::allocator<char> > const&)>::operator()(std::__ndk1::basic_string<char, std::__ndk1::char_traits<char>, std::__ndk1::allocator<char> > const&)
FUNC 3cd6c 1c 0 std::__ndk1::__function::__func<NotepadLayer::setup()::$_3, std::__ndk1::allocator<NotepadLayer::setup()::$_3>, void (std::__ndk1::basic_string<char, std::__ndk1::char_traits<char>, std::__ndk1::allocator<char> > const&)>::target(std::type_info const&) const
FUNC 3cd88 c 0 std::__ndk1::__function::__func<NotepadLayer::setup()::$_3, std::__ndk1::allocator<NotepadLayer::setup()::$_3>, void (std::__ndk1::basic_string<char, std::__ndk1::char_traits<char>, std::__ndk1::allocator<char> > const&)>::target_type() const
FUNC 3cd94 4 0 std::__ndk1::__function::__base<void (std::__ndk1::basic_string<char, std::__ndk1::char_traits<char>, std::__ndk1::allocator<char> > const&)>::~__base()
FUNC 3cd98 4 0 std::__ndk1::__function::__func<NotepadLayer::setup()::$_4, std::__ndk1::allocator<NotepadLayer::setup()::$_4>, void (std::__ndk1::basic_string<char, std::__ndk1::char_traits<char>, std::__ndk1::allocator<char> > const&)>::~__func()
FUNC 3cd9c 34 0 std::__ndk1::__function::__func<NotepadLayer::setup()::$_4, std::__ndk1::allocator<NotepadLayer::setup()::$_4>, void (std::__ndk1::basic_string<char, std::__ndk1::char_traits<char>, std::__ndk1::allocator<char> > const&)>::__clone() const
FUNC 3cdd0 14 0 std::__ndk1::__function::__func<NotepadLayer::setup()::$_4, std::__ndk1::allocator<NotepadLayer::setup()::$_4>, void (std::__ndk1::basic_string<char, std::__ndk1::char_traits<char>, std::__ndk1::allocator<char> > const&)>::__clone(std::__ndk1::__function::__base<void (std::__ndk1::basic_string<char, std::__ndk1::char_traits<char>, std::__ndk1::allocator<char> > const&)>*) const
FUNC 3cde4 4 0 std::__ndk1::__function::__func<NotepadLayer::setup()::$_4, std::__ndk1::allocator<NotepadLayer::setup()::$_4>, void (std::__ndk1::basic_string<char, std::__ndk1::char_traits<char>, std::__ndk1::allocator<char> > const&)>::destroy()
FUNC 3cde8 4 0 std::__ndk1::__function::__func<NotepadLayer::setup()::$_4, std::__ndk1::allocator<NotepadLayer::setup()::$_4>, void (std::__ndk1::basic_string<char, std::__ndk1::char_traits<char>, std::__ndk1::allocator<char> > const&)>::destroy_deallocate()
FUNC 3cdec 8c 0 std::__ndk1::__function::__func<NotepadLayer::setup()::$_4, std::__ndk1::allocator<NotepadLayer::setup()::$_4>, void (std::__ndk1::basic_string<char, std::__ndk1::char_traits<char>, std::__ndk1::allocator<char> > const&)>::operator()(std::__ndk1::basic_string<char, std::__ndk1::char_traits<char>, std::__ndk1::allocator<char> > const&)
FUNC 3ce78 1c 0 std::__ndk1::__function::__func<NotepadLayer::setup()::$_4, std::__ndk1::allocator<NotepadLayer::setup()::$_4>, void (std::__ndk1::basic_string<char, std::__ndk1::char_traits<char>, std::__ndk1::allocator<char> > const&)>::target(std::type_info const&) const
FUNC 3ce94 c 0 std::__ndk1::__function::__func<NotepadLayer::setup()::$_4, std::__ndk1::allocator<NotepadLayer::setup()::$_4>, void (std::__ndk1::basic_string<char, std::__ndk1::char_traits<char>, std::__ndk1::allocator<char> > const&)>::target_type() const
FUNC 3cea0 2e80 0 Tab1::init()
FUNC 3fd20 d0 0 geode::Mod::setSavedValue<bool>(std::__ndk1::basic_string_view<char, std::__ndk1::char_traits<char> >, bool const&)
FUNC 3fdf0 b8 0 Tab1::SaveCheckbox(cocos2d::CCObject*)
FUNC 3fea8 1e0 0 geode::Mod::getSavedValue<bool>(std::__ndk1::basic_string_view<char, std::__ndk1::char_traits<char> >, bool const&)
FUNC 40088 b8 0 Tab1::SaveCheckbox2(cocos2d::CCObject*)
FUNC 40140 b8 0 Tab1::SaveCheckbox3(cocos2d::CCObject*)
FUNC 401f8 b8 0 Tab1::SaveCheckbox4(cocos2d::CCObject*)
FUNC 402b0 b8 0 Tab1::SaveCheckbox5(cocos2d::CCObject*)
FUNC 40368 b8 0 Tab1::SaveCheckbox6(cocos2d::CCObject*)
FUNC 40420 b8 0 Tab1::SaveCheckbox7(cocos2d::CCObject*)
FUNC 404d8 b8 0 Tab1::SaveCheckbox8(cocos2d::CCObject*)
FUNC 40590 b8 0 Tab1::SaveCheckbox9(cocos2d::CCObject*)
FUNC 40648 b8 0 Tab1::SaveCheckbox10(cocos2d::CCObject*)
FUNC 40700 24 0 Tab1::~Tab1()
FUNC 40724 4 0 cocos2d::CCMenu::setOpacityModifyRGB(bool)
FUNC 40728 8 0 cocos2d::CCMenu::isOpacityModifyRGB()
FUNC 40730 8 0 cocos2d::CCMenu::isEnabled()
FUNC 40738 8 0 cocos2d::CCMenu::setEnabled(bool)
FUNC 40740 8 0 {virtual override thunk({offset(-320)}, Tab1::~Tab1())}
FUNC 40748 28 0 {virtual override thunk({offset(-320)}, Tab1::~Tab1())}
FUNC 40770 4 0 {virtual override thunk({offset(-408)}, cocos2d::CCMenu::setOpacityModifyRGB(bool))}
FUNC 40774 8 0 {virtual override thunk({offset(-408)}, cocos2d::CCMenu::isOpacityModifyRGB())}
FUNC 4077c 184 0 geode::Mod::getSavedValue<bool>(std::__ndk1::basic_string_view<char, std::__ndk1::char_traits<char> >)
FUNC 40900 4 0 std::__ndk1::__variant_detail::__visitation::__base::__dispatcher<(unsigned long)0>::__dispatch[abi:ne180000]<std::__ndk1::__variant_detail::__dtor<std::__ndk1::__variant_detail::__traits<bool, std::__ndk1::basic_string<char, std::__ndk1::char_traits<char>, std::__ndk1::allocator<char> > >, (std::__ndk1::__variant_detail::_Trait)1>::__destroy[abi:ne180000]()::{lambda(auto:1&)#1}, std::__ndk1::__variant_detail::__base<(std::__ndk1::__variant_detail::__traits<bool, std::__ndk1::basic_string<char, std::__ndk1::char_traits<char>, std::__ndk1::allocator<char> > >)1, bool, std::__ndk1::allocator<char> >&>(std::__ndk1::__variant_detail::__dtor<std::__ndk1::__variant_detail::__traits<bool, std::__ndk1::basic_string<char, std::__ndk1::char_traits<char>, std::__ndk1::allocator<char> > >, (std::__ndk1::__variant_detail::_Trait)1>, std::__ndk1::__variant_detail::__base<(std::__ndk1::__variant_detail::__traits<bool, std::__ndk1::basic_string<char, std::__ndk1::char_traits<char>, std::__ndk1::allocator<char> > >)1, bool, std::__ndk1::allocator<char> >&)
FUNC 40904 14 0 std::__ndk1::__variant_detail::__visitation::__base::__dispatcher<(unsigned long)1>::__dispatch[abi:ne180000]<std::__ndk1::__variant_detail::__dtor<std::__ndk1::__variant_detail::__traits<bool, std::__ndk1::basic_string<char, std::__ndk1::char_traits<char>, std::__ndk1::allocator<char> > >, (std::__ndk1::__variant_detail::_Trait)1>::__destroy[abi:ne180000]()::{lambda(auto:1&)#1}, std::__ndk1::__variant_detail::__base<(std::__ndk1::__variant_detail::__traits<bool, std::__ndk1::basic_string<char, std::__ndk1::char_traits<char>, std::__ndk1::allocator<char> > >)1, bool, std::__ndk1::allocator<char> >&>(std::__ndk1::__variant_detail::__dtor<std::__ndk1::__variant_detail::__traits<bool, std::__ndk1::basic_string<char, std::__ndk1::char_traits<char>, std::__ndk1::allocator<char> > >, (std::__ndk1::__variant_detail::_Trait)1>, std::__ndk1::__variant_detail::__base<(std::__ndk1::__variant_detail::__traits<bool, std::__ndk1::basic_string<char, std::__ndk1::char_traits<char>, std::__ndk1::allocator<char> > >)1, bool, std::__ndk1::allocator<char> >&)
FUNC 40918 4 0 std::__ndk1::__function::__func<Tab1::init()::$_0, std::__ndk1::allocator<Tab1::init()::$_0>, void (std::__ndk1::basic_string<char, std::__ndk1::char_traits<char>, std::__ndk1::allocator<char> > const&)>::~__func()
FUNC 4091c 34 0 std::__ndk1::__function::__func<Tab1::init()::$_0, std::__ndk1::allocator<Tab1::init()::$_0>, void (std::__ndk1::basic_string<char, std::__ndk1::char_traits<char>, std::__ndk1::allocator<char> > const&)>::__clone() const
FUNC 40950 14 0 std::__ndk1::__function::__func<Tab1::init()::$_0, std::__ndk1::allocator<Tab1::init()::$_0>, void (std::__ndk1::basic_string<char, std::__ndk1::char_traits<char>, std::__ndk1::allocator<char> > const&)>::__clone(std::__ndk1::__function::__base<void (std::__ndk1::basic_string<char, std::__ndk1::char_traits<char>, std::__ndk1::allocator<char> > const&)>*) const
FUNC 40964 4 0 std::__ndk1::__function::__func<Tab1::init()::$_0, std::__ndk1::allocator<Tab1::init()::$_0>, void (std::__ndk1::basic_string<char, std::__ndk1::char_traits<char>, std::__ndk1::allocator<char> > const&)>::destroy()
FUNC 40968 4 0 std::__ndk1::__function::__func<Tab1::init()::$_0, std::__ndk1::allocator<Tab1::init()::$_0>, void (std::__ndk1::basic_string<char, std::__ndk1::char_traits<char>, std::__ndk1::allocator<char> > const&)>::destroy_deallocate()
FUNC 4096c 8c 0 std::__ndk1::__function::__func<Tab1::init()::$_0, std::__ndk1::allocator<Tab1::init()::$_0>, void (std::__ndk1::basic_string<char, std::__ndk1::char_traits<char>, std::__ndk1::allocator<char> > const&)>::operator()(std::__ndk1::basic_string<char, std::__ndk1::char_traits<char>, std::__ndk1::allocator<char> > const&)
FUNC 409f8 1c 0 std::__ndk1::__function::__func<Tab1::init()::$_0, std::__ndk1::allocator<Tab1::init()::$_0>, void (std::__ndk1::basic_string<char, std::__ndk1::char_traits<char>, std::__ndk1::allocator<char> > const&)>::target(std::type_info const&) const
FUNC 40a14 c 0 std::__ndk1::__function::__func<Tab1::init()::$_0, std::__ndk1::allocator<Tab1::init()::$_0>, void (std::__ndk1::basic_string<char, std::__ndk1::char_traits<char>, std::__ndk1::allocator<char> > const&)>::target_type() const
FUNC 40a20 4 0 std::__ndk1::__function::__func<Tab1::init()::$_1, std::__ndk1::allocator<Tab1::init()::$_1>, void (std::__ndk1::basic_string<char, std::__ndk1::char_traits<char>, std::__ndk1::allocator<char> > const&)>::~__func()
FUNC 40a24 34 0 std::__ndk1::__function::__func<Tab1::init()::$_1, std::__ndk1::allocator<Tab1::init()::$_1>, void (std::__ndk1::basic_string<char, std::__ndk1::char_traits<char>, std::__ndk1::allocator<char> > const&)>::__clone() const
FUNC 40a58 14 0 std::__ndk1::__function::__func<Tab1::init()::$_1, std::__ndk1::allocator<Tab1::init()::$_1>, void (std::__ndk1::basic_string<char, std::__ndk1::char_traits<char>, std::__ndk1::allocator<char> > const&)>::__clone(std::__ndk1::__function::__base<void (std::__ndk1::basic_string<char, std::__ndk1::char_traits<char>, std::__ndk1::allocator<char> > const&)>*) const
FUNC 40a6c 4 0 std::__ndk1::__function::__func<Tab1::init()::$_1, std::__ndk1::allocator<Tab1::init()::$_1>, void (std::__ndk1::basic_string<char, std::__ndk1::char_traits<char>, std::__ndk1::allocator<char> > const&)>::destroy()
FUNC 40a70 4 0 std::__ndk1::__function::__func<Tab1::init()::$_1, std::__ndk1::allocator<Tab1::init()::$_1>, void (std::__ndk1::basic_string<char, std::__ndk1::char_traits<char>, std::__ndk1::allocator<char> > const&)>::destroy_deallocate()
FUNC 40a74 8c 0 std::__ndk1::__function::__func<Tab1::init()::$_1, std::__ndk1::allocator<Tab1::init()::$_1>, void (std::__ndk1::basic_string<char, std::__ndk1::char_traits<char>, std::__ndk1::allocator<char> > const&)>::operator()(std::__ndk1::basic_string<char, std::__ndk1::char_traits<char>, std::__ndk1::allocator<char> > const&)
FUNC 40b00 1c 0 std::__ndk1::__function::__func<Tab1::init()::$_1, std::__ndk1::allocator<Tab1::init()::$_1>, void (std::__ndk1::basic_string<char, std::__ndk1::char_traits<char>, std::__ndk1::allocator<char> > const&)>::target(std::type_info const&) const
FUNC 40b1c c 0 std::__ndk1::__function::__func<Tab1::init()::$_1, std::__ndk1::allocator<Tab1::init()::$_1>, void (std::__ndk1::basic_string<char, std::__ndk1::char_traits<char>, std::__ndk1::allocator<char> > const&)>::target_type() const
FUNC 40b28 4 0 std::__ndk1::__function::__func<Tab1::init()::$_2, std::__ndk1::allocator<Tab1::init()::$_2>, void (std::__ndk1::basic_string<char, std::__ndk1::char_traits<char>, std::__ndk1::allocator<char> > const&)>::~__func()
FUNC 40b2c 34 0 std::__ndk1::__function::__func<Tab1::init()::$_2, std::__ndk1::allocator<Tab1::init()::$_2>, void (std::__ndk1::basic_string<char, std::__ndk1::char_traits<char>, std::__ndk1::allocator<char> > const&)>::__clone() const
FUNC 40b60 14 0 std::__ndk1::__function::__func<Tab1::init()::$_2, std::__ndk1::allocator<Tab1::init()::$_2>, void (std::__ndk1::basic_string<char, std::__ndk1::char_traits<char>, std::__ndk1::allocator<char> > const&)>::__clone(std::__ndk1::__function::__base<void (std::__ndk1::basic_string<char, std::__ndk1::char_traits<char>, std::__ndk1::allocator<char> > const&)>*) const
FUNC 40b74 4 0 std::__ndk1::__function::__func<Tab1::init()::$_2, std::__ndk1::allocator<Tab1::init()::$_2>, void (std::__ndk1::basic_string<char, std::__ndk1::char_traits<char>, std::__ndk1::allocator<char> > const&)>::destroy()
FUNC 40b78 4 0 std::__ndk1::__function::__func<Tab1::init()::$_2, std::__ndk1::allocator<Tab1::init()::$_2>, void (std::__ndk1::basic_string<char, std::__ndk1::char_traits<char>, std::__ndk1::allocator<char> > const&)>::destroy_deallocate()
FUNC 40b7c 8c 0 std::__ndk1::__function::__func<Tab1::init()::$_2, std::__ndk1::allocator<Tab1::init()::$_2>, void (std::__ndk1::basic_string<char, std::__ndk1::char_traits<char>, std::__ndk1::allocator<char> > const&)>::operator()(std::__ndk1::basic_string<char, std::__ndk1::char_traits<char>, std::__ndk1::allocator<char> > const&)
FUNC 40c08 1c 0 std::__ndk1::__function::__func<Tab1::init()::$_2, std::__ndk1::allocator<Tab1::init()::$_2>, void (std::__ndk1::basic_string<char, std::__ndk1::char_traits<char>, std::__ndk1::allocator<char> > const&)>::target(std::type_info const&) const
FUNC 40c24 c 0 std::__ndk1::__function::__func<Tab1::init()::$_2, std::__ndk1::allocator<Tab1::init()::$_2>, void (std::__ndk1::basic_string<char, std::__ndk1::char_traits<char>, std::__ndk1::allocator<char> > const&)>::target_type() const
FUNC 40c30 4 0 std::__ndk1::__function::__func<Tab1::init()::$_3, std::__ndk1::allocator<Tab1::init()::$_3>, void (std::__ndk1::basic_string<char, std::__ndk1::char_traits<char>, std::__ndk1::allocator<char> > const&)>::~__func()
FUNC 40c34 34 0 std::__ndk1::__function::__func<Tab1::init()::$_3, std::__ndk1::allocator<Tab1::init()::$_3>, void (std::__ndk1::basic_string<char, std::__ndk1::char_traits<char>, std::__ndk1::allocator<char> > const&)>::__clone() const
FUNC 40c68 14 0 std::__ndk1::__function::__func<Tab1::init()::$_3, std::__ndk1::allocator<Tab1::init()::$_3>, void (std::__ndk1::basic_string<char, std::__ndk1::char_traits<char>, std::__ndk1::allocator<char> > const&)>::__clone(std::__ndk1::__function::__base<void (std::__ndk1::basic_string<char, std::__ndk1::char_traits<char>, std::__ndk1::allocator<char> > const&)>*) const
FUNC 40c7c 4 0 std::__ndk1::__function::__func<Tab1::init()::$_3, std::__ndk1::allocator<Tab1::init()::$_3>, void (std::__ndk1::basic_string<char, std::__ndk1::char_traits<char>, std::__ndk1::allocator<char> > const&)>::destroy()
FUNC 40c80 4 0 std::__ndk1::__function::__func<Tab1::init()::$_3, std::__ndk1::allocator<Tab1::init()::$_3>, void (std::__ndk1::basic_string<char, std::__ndk1::char_traits<char>, std::__ndk1::allocator<char> > const&)>::destroy_deallocate()
FUNC 40c84 8c 0 std::__ndk1::__function::__func<Tab1::init()::$_3, std::__ndk1::allocator<Tab1::init()::$_3>, void (std::__ndk1::basic_string<char, std::__ndk1::char_traits<char>, std::__ndk1::allocator<char> > const&)>::operator()(std::__ndk1::basic_string<char, std::__ndk1::char_traits<char>, std::__ndk1::allocator<char> > const&)
FUNC 40d10 1c 0 std::__ndk1::__function::__func<Tab1::init()::$_3, std::__ndk1::allocator<Tab1::init()::$_3>, void (std::__ndk1::basic_string<char, std::__ndk1::char_traits<char>, std::__ndk1::allocator<char> > const&)>::target(std::type_info const&) const
FUNC 40d2c c 0 std::__ndk1::__function::__func<Tab1::init()::$_3, std::__ndk1::allocator<Tab1::init()::$_3>, void (std::__ndk1::basic_string<char, std::__ndk1::char_traits<char>, std::__ndk1::allocator<char> > const&)>::target_type() const
FUNC 40d38 4 0 std::__ndk1::__function::__func<Tab1::init()::$_4, std::__ndk1::allocator<Tab1::init()::$_4>, void (std::__ndk1::basic_string<char, std::__ndk1::char_traits<char>, std::__ndk1::allocator<char> > const&)>::~__func()
FUNC 40d3c 34 0 std::__ndk1::__function::__func<Tab1::init()::$_4, std::__ndk1::allocator<Tab1::init()::$_4>, void (std::__ndk1::basic_string<char, std::__ndk1::char_traits<char>, std::__ndk1::allocator<char> > const&)>::__clone() const
FUNC 40d70 14 0 std::__ndk1::__function::__func<Tab1::init()::$_4, std::__ndk1::allocator<Tab1::init()::$_4>, void (std::__ndk1::basic_string<char, std::__ndk1::char_traits<char>, std::__ndk1::allocator<char> > const&)>::__clone(std::__ndk1::__function::__base<void (std::__ndk1::basic_string<char, std::__ndk1::char_traits<char>, std::__ndk1::allocator<char> > const&)>*) const
FUNC 40d84 4 0 std::__ndk1::__function::__func<Tab1::init()::$_4, std::__ndk1::allocator<Tab1::init()::$_4>, void (std::__ndk1::basic_string<char, std::__ndk1::char_traits<char>, std::__ndk1::allocator<char> > const&)>::destroy()
FUNC 40d88 4 0 std::__ndk1::__function::__func<Tab1::init()::$_4, std::__ndk1::allocator<Tab1::init()::$_4>, void (std::__ndk1::basic_string<char, std::__ndk1::char_traits<char>, std::__ndk1::allocator<char> > const&)>::destroy_deallocate()
FUNC 40d8c 8c 0 std::__ndk1::__function::__func<Tab1::init()::$_4, std::__ndk1::allocator<Tab1::init()::$_4>, void (std::__ndk1::basic_string<char, std::__ndk1::char_traits<char>, std::__ndk1::allocator<char> > const&)>::operator()(std::__ndk1::basic_string<char, std::__ndk1::char_traits<char>, std::__ndk1::allocator<char> > const&)
FUNC 40e18 1c 0 std::__ndk1::__function::__func<Tab1::init()::$_4, std::__ndk1::allocator<Tab1::init()::$_4>, void (std::__ndk1::basic_string<char, std::__ndk1::char_traits<char>, std::__ndk1::allocator<char> > const&)>::target(std::type_info const&) const
FUNC 40e34 c 0 std::__ndk1::__function::__func<Tab1::init()::$_4, std::__ndk1::allocator<Tab1::init()::$_4>, void (std::__ndk1::basic_string<char, std::__ndk1::char_traits<char>, std::__ndk1::allocator<char> > const&)>::target_type() const
FUNC 40e40 4 0 std::__ndk1::__function::__func<Tab1::init()::$_5, std::__ndk1::allocator<Tab1::init()::$_5>, void (std::__ndk1::basic_string<char, std::__ndk1::char_traits<char>, std::__ndk1::allocator<char> > const&)>::~__func()
FUNC 40e44 34 0 std::__ndk1::__function::__func<Tab1::init()::$_5, std::__ndk1::allocator<Tab1::init()::$_5>, void (std::__ndk1::basic_string<char, std::__ndk1::char_traits<char>, std::__ndk1::allocator<char> > const&)>::__clone() const
FUNC 40e78 14 0 std::__ndk1::__function::__func<Tab1::init()::$_5, std::__ndk1::allocator<Tab1::init()::$_5>, void (std::__ndk1::basic_string<char, std::__ndk1::char_traits<char>, std::__ndk1::allocator<char> > const&)>::__clone(std::__ndk1::__function::__base<void (std::__ndk1::basic_string<char, std::__ndk1::char_traits<char>, std::__ndk1::allocator<char> > const&)>*) const
FUNC 40e8c 4 0 std::__ndk1::__function::__func<Tab1::init()::$_5, std::__ndk1::allocator<Tab1::init()::$_5>, void (std::__ndk1::basic_string<char, std::__ndk1::char_traits<char>, std::__ndk1::allocator<char> > const&)>::destroy()
FUNC 40e90 4 0 std::__ndk1::__function::__func<Tab1::init()::$_5, std::__ndk1::allocator<Tab1::init()::$_5>, void (std::__ndk1::basic_string<char, std::__ndk1::char_traits<char>, std::__ndk1::allocator<char> > const&)>::destroy_deallocate()
FUNC 40e94 8c 0 std::__ndk1::__function::__func<Tab1::init()::$_5, std::__ndk1::allocator<Tab1::init()::$_5>, void (std::__ndk1::basic_string<char, std::__ndk1::char_traits<char>, std::__ndk1::allocator<char> > const&)>::operator()(std::__ndk1::basic_string<char, std::__ndk1::char_traits<char>, std::__ndk1::allocator<char> > const&)
FUNC 40f20 1c 0 std::__ndk1::__function::__func<Tab1::init()::$_5, std::__ndk1::allocator<Tab1::init()::$_5>, void (std::__ndk1::basic_string<char, std::__ndk1::char_traits<char>, std::__ndk1::allocator<char> > const&)>::target(std::type_info const&) const
FUNC 40f3c c 0 std::__ndk1::__function::__func<Tab1::init()::$_5, std::__ndk1::allocator<Tab1::init()::$_5>, void (std::__ndk1::basic_string<char, std::__ndk1::char_traits<char>, std::__ndk1::allocator<char> > const&)>::target_type() const
FUNC 40f48 4 0 std::__ndk1::__function::__func<Tab1::init()::$_6, std::__ndk1::allocator<Tab1::init()::$_6>, void (std::__ndk1::basic_string<char, std::__ndk1::char_traits<char>, std::__ndk1::allocator<char> > const&)>::~__func()
FUNC 40f4c 34 0 std::__ndk1::__function::__func<Tab1::init()::$_6, std::__ndk1::allocator<Tab1::init()::$_6>, void (std::__ndk1::basic_string<char, std::__ndk1::char_traits<char>, std::__ndk1::allocator<char> > const&)>::__clone() const
FUNC 40f80 14 0 std::__ndk1::__function::__func<Tab1::init()::$_6, std::__ndk1::allocator<Tab1::init()::$_6>, void (std::__ndk1::basic_string<char, std::__ndk1::char_traits<char>, std::__ndk1::allocator<char> > const&)>::__clone(std::__ndk1::__function::__base<void (std::__ndk1::basic_string<char, std::__ndk1::char_traits<char>, std::__ndk1::allocator<char> > const&)>*) const
FUNC 40f94 4 0 std::__ndk1::__function::__func<Tab1::init()::$_6, std::__ndk1::allocator<Tab1::init()::$_6>, void (std::__ndk1::basic_string<char, std::__ndk1::char_traits<char>, std::__ndk1::allocator<char> > const&)>::destroy()
FUNC 40f98 4 0 std::__ndk1::__function::__func<Tab1::init()::$_6, std::__ndk1::allocator<Tab1::init()::$_6>, void (std::__ndk1::basic_string<char, std::__ndk1::char_traits<char>, std::__ndk1::allocator<char> > const&)>::destroy_deallocate()
FUNC 40f9c 8c 0 std::__ndk1::__function::__func<Tab1::init()::$_6, std::__ndk1::allocator<Tab1::init()::$_6>, void (std::__ndk1::basic_string<char, std::__ndk1::char_traits<char>, std::__ndk1::allocator<char> > const&)>::operator()(std::__ndk1::basic_string<char, std::__ndk1::char_traits<char>, std::__ndk1::allocator<char> > const&)
FUNC 41028 1c 0 std::__ndk1::__function::__func<Tab1::init()::$_6, std::__ndk1::allocator<Tab1::init()::$_6>, void (std::__ndk1::basic_string<char, std::__ndk1::char_traits<char>, std::__ndk1::allocator<char> > const&)>::target(std::type_info const&) const
FUNC 41044 c 0 std::__ndk1::__function::__func<Tab1::init()::$_6, std::__ndk1::allocator<Tab1::init()::$_6>, void (std::__ndk1::basic_string<char, std::__ndk1::char_traits<char>, std::__ndk1::allocator<char> > const&)>::target_type() const
FUNC 41050 4 0 std::__ndk1::__function::__func<Tab1::init()::$_7, std::__ndk1::allocator<Tab1::init()::$_7>, void (std::__ndk1::basic_string<char, std::__ndk1::char_traits<char>, std::__ndk1::allocator<char> > const&)>::~__func()
FUNC 41054 34 0 std::__ndk1::__function::__func<Tab1::init()::$_7, std::__ndk1::allocator<Tab1::init()::$_7>, void (std::__ndk1::basic_string<char, std::__ndk1::char_traits<char>, std::__ndk1::allocator<char> > const&)>::__clone() const
FUNC 41088 14 0 std::__ndk1::__function::__func<Tab1::init()::$_7, std::__ndk1::allocator<Tab1::init()::$_7>, void (std::__ndk1::basic_string<char, std::__ndk1::char_traits<char>, std::__ndk1::allocator<char> > const&)>::__clone(std::__ndk1::__function::__base<void (std::__ndk1::basic_string<char, std::__ndk1::char_traits<char>, std::__ndk1::allocator<char> > const&)>*) const
FUNC 4109c 4 0 std::__ndk1::__function::__func<Tab1::init()::$_7, std::__ndk1::allocator<Tab1::init()::$_7>, void (std::__ndk1::basic_string<char, std::__ndk1::char_traits<char>, std::__ndk1::allocator<char> > const&)>::destroy()
FUNC 410a0 4 0 std::__ndk1::__function::__func<Tab1::init()::$_7, std::__ndk1::allocator<Tab1::init()::$_7>, void (std::__ndk1::basic_string<char, std::__ndk1::char_traits<char>, std::__ndk1::allocator<char> > const&)>::destroy_deallocate()
FUNC 410a4 8c 0 std::__ndk1::__function::__func<Tab1::init()::$_7, std::__ndk1::allocator<Tab1::init()::$_7>, void (std::__ndk1::basic_string<char, std::__ndk1::char_traits<char>, std::__ndk1::allocator<char> > const&)>::operator()(std::__ndk1::basic_string<char, std::__ndk1::char_traits<char>, std::__ndk1::allocator<char> > const&)
FUNC 41130 1c 0 std::__ndk1::__function::__func<Tab1::init()::$_7, std::__ndk1::allocator<Tab1::init()::$_7>, void (std::__ndk1::basic_string<char, std::__ndk1::char_traits<char>, std::__ndk1::allocator<char> > const&)>::target(std::type_info const&) const
FUNC 4114c c 0 std::__ndk1::__function::__func<Tab1::init()::$_7, std::__ndk1::allocator<Tab1::init()::$_7>, void (std::__ndk1::basic_string<char, std::__ndk1::char_traits<char>, std::__ndk1::allocator<char> > const&)>::target_type() const
FUNC 41158 4 0 std::__ndk1::__function::__func<Tab1::init()::$_8, std::__ndk1::allocator<Tab1::init()::$_8>, void (std::__ndk1::basic_string<char, std::__ndk1::char_traits<char>, std::__ndk1::allocator<char> > const&)>::~__func()
FUNC 4115c 34 0 std::__ndk1::__function::__func<Tab1::init()::$_8, std::__ndk1::allocator<Tab1::init()::$_8>, void (std::__ndk1::basic_string<char, std::__ndk1::char_traits<char>, std::__ndk1::allocator<char> > const&)>::__clone() const
FUNC 41190 14 0 std::__ndk1::__function::__func<Tab1::init()::$_8, std::__ndk1::allocator<Tab1::init()::$_8>, void (std::__ndk1::basic_string<char, std::__ndk1::char_traits<char>, std::__ndk1::allocator<char> > const&)>::__clone(std::__ndk1::__function::__base<void (std::__ndk1::basic_string<char, std::__ndk1::char_traits<char>, std::__ndk1::allocator<char> > const&)>*) const
FUNC 411a4 4 0 std::__ndk1::__function::__func<Tab1::init()::$_8, std::__ndk1::allocator<Tab1::init()::$_8>, void (std::__ndk1::basic_string<char, std::__ndk1::char_traits<char>, std::__ndk1::allocator<char> > const&)>::destroy()
FUNC 411a8 4 0 std::__ndk1::__function::__func<Tab1::init()::$_8, std::__ndk1::allocator<Tab1::init()::$_8>, void (std::__ndk1::basic_string<char, std::__ndk1::char_traits<char>, std::__ndk1::allocator<char> > const&)>::destroy_deallocate()
FUNC 411ac 8c 0 std::__ndk1::__function::__func<Tab1::init()::$_8, std::__ndk1::allocator<Tab1::init()::$_8>, void (std::__ndk1::basic_string<char, std::__ndk1::char_traits<char>, std::__ndk1::allocator<char> > const&)>::operator()(std::__ndk1::basic_string<char, std::__ndk1::char_traits<char>, std::__ndk1::allocator<char> > const&)
FUNC 41238 1c 0 std::__ndk1::__function::__func<Tab1::init()::$_8, std::__ndk1::allocator<Tab1::init()::$_8>, void (std::__ndk1::basic_string<char, std::__ndk1::char_traits<char>, std::__ndk1::allocator<char> > const&)>::target(std::type_info const&) const
FUNC 41254 c 0 std::__ndk1::__function::__func<Tab1::init()::$_8, std::__ndk1::allocator<Tab1::init()::$_8>, void (std::__ndk1::basic_string<char, std::__ndk1::char_traits<char>, std::__ndk1::allocator<char> > const&)>::target_type() const
FUNC 41260 4 0 std::__ndk1::__function::__func<Tab1::init()::$_9, std::__ndk1::allocator<Tab1::init()::$_9>, void (std::__ndk1::basic_string<char, std::__ndk1::char_traits<char>, std::__ndk1::allocator<char> > const&)>::~__func()
FUNC 41264 34 0 std::__ndk1::__function::__func<Tab1::init()::$_9, std::__ndk1::allocator<Tab1::init()::$_9>, void (std::__ndk1::basic_string<char, std::__ndk1::char_traits<char>, std::__ndk1::allocator<char> > const&)>::__clone() const
FUNC 41298 14 0 std::__ndk1::__function::__func<Tab1::init()::$_9, std::__ndk1::allocator<Tab1::init()::$_9>, void (std::__ndk1::basic_string<char, std::__ndk1::char_traits<char>, std::__ndk1::allocator<char> > const&)>::__clone(std::__ndk1::__function::__base<void (std::__ndk1::basic_string<char, std::__ndk1::char_traits<char>, std::__ndk1::allocator<char> > const&)>*) const
FUNC 412ac 4 0 std::__ndk1::__function::__func<Tab1::init()::$_9, std::__ndk1::allocator<Tab1::init()::$_9>, void (std::__ndk1::basic_string<char, std::__ndk1::char_traits<char>, std::__ndk1::allocator<char> > const&)>::destroy()
FUNC 412b0 4 0 std::__ndk1::__function::__func<Tab1::init()::$_9, std::__ndk1::allocator<Tab1::init()::$_9>, void (std::__ndk1::basic_string<char, std::__ndk1::char_traits<char>, std::__ndk1::allocator<char> > const&)>::destroy_deallocate()
FUNC 412b4 8c 0 std::__ndk1::__function::__func<Tab1::init()::$_9, std::__ndk1::allocator<Tab1::init()::$_9>, void (std::__ndk1::basic_string<char, std::__ndk1::char_traits<char>, std::__ndk1::allocator<char> > const&)>::operator()(std::__ndk1::basic_string<char, std::__ndk1::char_traits<char>, std::__ndk1::allocator<char> > const&)
FUNC 41340 1c 0 std::__ndk1::__function::__func<Tab1::init()::$_9, std::__ndk1::allocator<Tab1::init()::$_9>, void (std::__ndk1::basic_string<char, std::__ndk1::char_traits<char>, std::__ndk1::allocator<char> > const&)>::target(std::type_info const&) const
FUNC 4135c c 0 std::__ndk1::__function::__func<Tab1::init()::$_9, std::__ndk1::allocator<Tab1::init()::$_9>, void (std::__ndk1::basic_string<char, std::__ndk1::char_traits<char>, std::__ndk1::allocator<char> > const&)>::target_type() const
FUNC 41368 4 0 std::__ndk1::__function::__func<Tab1::init()::$_10, std::__ndk1::allocator<Tab1::init()::$_10>, void (std::__ndk1::basic_string<char, std::__ndk1::char_traits<char>, std::__ndk1::allocator<char> > const&)>::~__func()
FUNC 4136c 34 0 std::__ndk1::__function::__func<Tab1::init()::$_10, std::__ndk1::allocator<Tab1::init()::$_10>, void (std::__ndk1::basic_string<char, std::__ndk1::char_traits<char>, std::__ndk1::allocator<char> > const&)>::__clone() const
FUNC 413a0 14 0 std::__ndk1::__function::__func<Tab1::init()::$_10, std::__ndk1::allocator<Tab1::init()::$_10>, void (std::__ndk1::basic_string<char, std::__ndk1::char_traits<char>, std::__ndk1::allocator<char> > const&)>::__clone(std::__ndk1::__function::__base<void (std::__ndk1::basic_string<char, std::__ndk1::char_traits<char>, std::__ndk1::allocator<char> > const&)>*) const
FUNC 413b4 4 0 std::__ndk1::__function::__func<Tab1::init()::$_10, std::__ndk1::allocator<Tab1::init()::$_10>, void (std::__ndk1::basic_string<char, std::__ndk1::char_traits<char>, std::__ndk1::allocator<char> > const&)>::destroy()
FUNC 413b8 4 0 std::__ndk1::__function::__func<Tab1::init()::$_10, std::__ndk1::allocator<Tab1::init()::$_10>, void (std::__ndk1::basic_string<char, std::__ndk1::char_traits<char>, std::__ndk1::allocator<char> > const&)>::destroy_deallocate()
FUNC 413bc 8c 0 std::__ndk1::__function::__func<Tab1::init()::$_10, std::__ndk1::allocator<Tab1::init()::$_10>, void (std::__ndk1::basic_string<char, std::__ndk1::char_traits<char>, std::__ndk1::allocator<char> > const&)>::operator()(std::__ndk1::basic_string<char, std::__ndk1::char_traits<char>, std::__ndk1::allocator<char> > const&)
FUNC 41448 1c 0 std::__ndk1::__function::__func<Tab1::init()::$_10, std::__ndk1::allocator<Tab1::init()::$_10>, void (std::__ndk1::basic_string<char, std::__ndk1::char_traits<char>, std::__ndk1::allocator<char> > const&)>::target(std::type_info const&) const
FUNC 41464 c 0 std::__ndk1::__function::__func<Tab1::init()::$_10, std::__ndk1::allocator<Tab1::init()::$_10>, void (std::__ndk1::basic_string<char, std::__ndk1::char_traits<char>, std::__ndk1::allocator<char> > const&)>::target_type() const
FUNC 41470 4 0 std::__ndk1::__function::__func<Tab1::init()::$_11, std::__ndk1::allocator<Tab1::init()::$_11>, void (std::__ndk1::basic_string<char, std::__ndk1::char_traits<char>, std::__ndk1::allocator<char> > const&)>::~__func()
FUNC 41474 34 0 std::__ndk1::__function::__func<Tab1::init()::$_11, std::__ndk1::allocator<Tab1::init()::$_11>, void (std::__ndk1::basic_string<char, std::__ndk1::char_traits<char>, std::__ndk1::allocator<char> > const&)>::__clone() const
FUNC 414a8 14 0 std::__ndk1::__function::__func<Tab1::init()::$_11, std::__ndk1::allocator<Tab1::init()::$_11>, void (std::__ndk1::basic_string<char, std::__ndk1::char_traits<char>, std::__ndk1::allocator<char> > const&)>::__clone(std::__ndk1::__function::__base<void (std::__ndk1::basic_string<char, std::__ndk1::char_traits<char>, std::__ndk1::allocator<char> > const&)>*) const
FUNC 414bc 4 0 std::__ndk1::__function::__func<Tab1::init()::$_11, std::__ndk1::allocator<Tab1::init()::$_11>, void (std::__ndk1::basic_string<char, std::__ndk1::char_traits<char>, std::__ndk1::allocator<char> > const&)>::destroy()
FUNC 414c0 4 0 std::__ndk1::__function::__func<Tab1::init()::$_11, std::__ndk1::allocator<Tab1::init()::$_11>, void (std::__ndk1::basic_string<char, std::__ndk1::char_traits<char>, std::__ndk1::allocator<char> > const&)>::destroy_deallocate()
FUNC 414c4 8c 0 std::__ndk1::__function::__func<Tab1::init()::$_11, std::__ndk1::allocator<Tab1::init()::$_11>, void (std::__ndk1::basic_string<char, std::__ndk1::char_traits<char>, std::__ndk1::allocator<char> > const&)>::operator()(std::__ndk1::basic_string<char, std::__ndk1::char_traits<char>, std::__ndk1::allocator<char> > const&)
FUNC 41550 1c 0 std::__ndk1::__function::__func<Tab1::init()::$_11, std::__ndk1::allocator<Tab1::init()::$_11>, void (std::__ndk1::basic_string<char, std::__ndk1::char_traits<char>, std::__ndk1::allocator<char> > const&)>::target(std::type_info const&) const
FUNC 4156c c 0 std::__ndk1::__function::__func<Tab1::init()::$_11, std::__ndk1::allocator<Tab1::init()::$_11>, void (std::__ndk1::basic_string<char, std::__ndk1::char_traits<char>, std::__ndk1::allocator<char> > const&)>::target_type() const
FUNC 41578 4 0 std::__ndk1::__function::__func<Tab1::init()::$_12, std::__ndk1::allocator<Tab1::init()::$_12>, void (std::__ndk1::basic_string<char, std::__ndk1::char_traits<char>, std::__ndk1::allocator<char> > const&)>::~__func()
FUNC 4157c 34 0 std::__ndk1::__function::__func<Tab1::init()::$_12, std::__ndk1::allocator<Tab1::init()::$_12>, void (std::__ndk1::basic_string<char, std::__ndk1::char_traits<char>, std::__ndk1::allocator<char> > const&)>::__clone() const
FUNC 415b0 14 0 std::__ndk1::__function::__func<Tab1::init()::$_12, std::__ndk1::allocator<Tab1::init()::$_12>, void (std::__ndk1::basic_string<char, std::__ndk1::char_traits<char>, std::__ndk1::allocator<char> > const&)>::__clone(std::__ndk1::__function::__base<void (std::__ndk1::basic_string<char, std::__ndk1::char_traits<char>, std::__ndk1::allocator<char> > const&)>*) const
FUNC 415c4 4 0 std::__ndk1::__function::__func<Tab1::init()::$_12, std::__ndk1::allocator<Tab1::init()::$_12>, void (std::__ndk1::basic_string<char, std::__ndk1::char_traits<char>, std::__ndk1::allocator<char> > const&)>::destroy()
FUNC 415c8 4 0 std::__ndk1::__function::__func<Tab1::init()::$_12, std::__ndk1::allocator<Tab1::init()::$_12>, void (std::__ndk1::basic_string<char, std::__ndk1::char_traits<char>, std::__ndk1::allocator<char> > const&)>::destroy_deallocate()
FUNC 415cc 8c 0 std::__ndk1::__function::__func<Tab1::init()::$_12, std::__ndk1::allocator<Tab1::init()::$_12>, void (std::__ndk1::basic_string<char, std::__ndk1::char_traits<char>, std::__ndk1::allocator<char> > const&)>::operator()(std::__ndk1::basic_string<char, std::__ndk1::char_traits<char>, std::__ndk1::allocator<char> > const&)
FUNC 41658 1c 0 std::__ndk1::__function::__func<Tab1::init()::$_12, std::__ndk1::allocator<Tab1::init()::$_12>, void (std::__ndk1::basic_string<char, std::__ndk1::char_traits<char>, std::__ndk1::allocator<char> > const&)>::target(std::type_info const&) const
FUNC 41674 c 0 std::__ndk1::__function::__func<Tab1::init()::$_12, std::__ndk1::allocator<Tab1::init()::$_12>, void (std::__ndk1::basic_string<char, std::__ndk1::char_traits<char>, std::__ndk1::allocator<char> > const&)>::target_type() const
FUNC 41680 4 0 std::__ndk1::__function::__func<Tab1::init()::$_13, std::__ndk1::allocator<Tab1::init()::$_13>, void (std::__ndk1::basic_string<char, std::__ndk1::char_traits<char>, std::__ndk1::allocator<char> > const&)>::~__func()
FUNC 41684 34 0 std::__ndk1::__function::__func<Tab1::init()::$_13, std::__ndk1::allocator<Tab1::init()::$_13>, void (std::__ndk1::basic_string<char, std::__ndk1::char_traits<char>, std::__ndk1::allocator<char> > const&)>::__clone() const
FUNC 416b8 14 0 std::__ndk1::__function::__func<Tab1::init()::$_13, std::__ndk1::allocator<Tab1::init()::$_13>, void (std::__ndk1::basic_string<char, std::__ndk1::char_traits<char>, std::__ndk1::allocator<char> > const&)>::__clone(std::__ndk1::__function::__base<void (std::__ndk1::basic_string<char, std::__ndk1::char_traits<char>, std::__ndk1::allocator<char> > const&)>*) const
FUNC 416cc 4 0 std::__ndk1::__function::__func<Tab1::init()::$_13, std::__ndk1::allocator<Tab1::init()::$_13>, void (std::__ndk1::basic_string<char, std::__ndk1::char_traits<char>, std::__ndk1::allocator<char> > const&)>::destroy()
FUNC 416d0 4 0 std::__ndk1::__function::__func<Tab1::init()::$_13, std::__ndk1::allocator<Tab1::init()::$_13>, void (std::__ndk1::basic_string<char, std::__ndk1::char_traits<char>, std::__ndk1::allocator<char> > const&)>::destroy_deallocate()
FUNC 416d4 8c 0 std::__ndk1::__function::__func<Tab1::init()::$_13, std::__ndk1::allocator<Tab1::init()::$_13>, void (std::__ndk1::basic_string<char, std::__ndk1::char_traits<char>, std::__ndk1::allocator<char> > const&)>::operator()(std::__ndk1::basic_string<char, std::__ndk1::char_traits<char>, std::__ndk1::allocator<char> > const&)
FUNC 41760 1c 0 std::__ndk1::__function::__func<Tab1::init()::$_13, std::__ndk1::allocator<Tab1::init()::$_13>, void (std::__ndk1::basic_string<char, std::__ndk1::char_traits<char>, std::__ndk1::allocator<char> > const&)>::target(std::type_info const&) const
FUNC 4177c c 0 std::__ndk1::__function::__func<Tab1::init()::$_13, std::__ndk1::allocator<Tab1::init()::$_13>, void (std::__ndk1::basic_string<char, std::__ndk1::char_traits<char>, std::__ndk1::allocator<char> > const&)>::target_type() const
FUNC 41788 4 0 std::__ndk1::__function::__func<Tab1::init()::$_14, std::__ndk1::allocator<Tab1::init()::$_14>, void (std::__ndk1::basic_string<char, std::__ndk1::char_traits<char>, std::__ndk1::allocator<char> > const&)>::~__func()
FUNC 4178c 34 0 std::__ndk1::__function::__func<Tab1::init()::$_14, std::__ndk1::allocator<Tab1::init()::$_14>, void (std::__ndk1::basic_string<char, std::__ndk1::char_traits<char>, std::__ndk1::allocator<char> > const&)>::__clone() const
FUNC 417c0 14 0 std::__ndk1::__function::__func<Tab1::init()::$_14, std::__ndk1::allocator<Tab1::init()::$_14>, void (std::__ndk1::basic_string<char, std::__ndk1::char_traits<char>, std::__ndk1::allocator<char> > const&)>::__clone(std::__ndk1::__function::__base<void (std::__ndk1::basic_string<char, std::__ndk1::char_traits<char>, std::__ndk1::allocator<char> > const&)>*) const
FUNC 417d4 4 0 std::__ndk1::__function::__func<Tab1::init()::$_14, std::__ndk1::allocator<Tab1::init()::$_14>, void (std::__ndk1::basic_string<char, std::__ndk1::char_traits<char>, std::__ndk1::allocator<char> > const&)>::destroy()
FUNC 417d8 4 0 std::__ndk1::__function::__func<Tab1::init()::$_14, std::__ndk1::allocator<Tab1::init()::$_14>, void (std::__ndk1::basic_string<char, std::__ndk1::char_traits<char>, std::__ndk1::allocator<char> > const&)>::destroy_deallocate()
FUNC 417dc 8c 0 std::__ndk1::__function::__func<Tab1::init()::$_14, std::__ndk1::allocator<Tab1::init()::$_14>, void (std::__ndk1::basic_string<char, std::__ndk1::char_traits<char>, std::__ndk1::allocator<char> > const&)>::operator()(std::__ndk1::basic_string<char, std::__ndk1::char_traits<char>, std::__ndk1::allocator<char> > const&)
FUNC 41868 1c 0 std::__ndk1::__function::__func<Tab1::init()::$_14, std::__ndk1::allocator<Tab1::init()::$_14>, void (std::__ndk1::basic_string<char, std::__ndk1::char_traits<char>, std::__ndk1::allocator<char> > const&)>::target(std::type_info const&) const
FUNC 41884 c 0 std::__ndk1::__function::__func<Tab1::init()::$_14, std::__ndk1::allocator<Tab1::init()::$_14>, void (std::__ndk1::basic_string<char, std::__ndk1::char_traits<char>, std::__ndk1::allocator<char> > const&)>::target_type() const
FUNC 41890 4 0 std::__ndk1::__function::__func<Tab1::init()::$_15, std::__ndk1::allocator<Tab1::init()::$_15>, void (std::__ndk1::basic_string<char, std::__ndk1::char_traits<char>, std::__ndk1::allocator<char> > const&)>::~__func()
FUNC 41894 34 0 std::__ndk1::__function::__func<Tab1::init()::$_15, std::__ndk1::allocator<Tab1::init()::$_15>, void (std::__ndk1::basic_string<char, std::__ndk1::char_traits<char>, std::__ndk1::allocator<char> > const&)>::__clone() const
FUNC 418c8 14 0 std::__ndk1::__function::__func<Tab1::init()::$_15, std::__ndk1::allocator<Tab1::init()::$_15>, void (std::__ndk1::basic_string<char, std::__ndk1::char_traits<char>, std::__ndk1::allocator<char> > const&)>::__clone(std::__ndk1::__function::__base<void (std::__ndk1::basic_string<char, std::__ndk1::char_traits<char>, std::__ndk1::allocator<char> > const&)>*) const
FUNC 418dc 4 0 std::__ndk1::__function::__func<Tab1::init()::$_15, std::__ndk1::allocator<Tab1::init()::$_15>, void (std::__ndk1::basic_string<char, std::__ndk1::char_traits<char>, std::__ndk1::allocator<char> > const&)>::destroy()
FUNC 418e0 4 0 std::__ndk1::__function::__func<Tab1::init()::$_15, std::__ndk1::allocator<Tab1::init()::$_15>, void (std::__ndk1::basic_string<char, std::__ndk1::char_traits<char>, std::__ndk1::allocator<char> > const&)>::destroy_deallocate()
FUNC 418e4 8c 0 std::__ndk1::__function::__func<Tab1::init()::$_15, std::__ndk1::allocator<Tab1::init()::$_15>, void (std::__ndk1::basic_string<char, std::__ndk1::char_traits<char>, std::__ndk1::allocator<char> > const&)>::operator()(std::__ndk1::basic_string<char, std::__ndk1::char_traits<char>, std::__ndk1::allocator<char> > const&)
FUNC 41970 1c 0 std::__ndk1::__function::__func<Tab1::init()::$_15, std::__ndk1::allocator<Tab1::init()::$_15>, void (std::__ndk1::basic_string<char, std::__ndk1::char_traits<char>, std::__ndk1::allocator<char> > const&)>::target(std::type_info const&) const
FUNC 4198c c 0 std::__ndk1::__function::__func<Tab1::init()::$_15, std::__ndk1::allocator<Tab1::init()::$_15>, void (std::__ndk1::basic_string<char, std::__ndk1::char_traits<char>, std::__ndk1::allocator<char> > const&)>::target_type() const
FUNC 41998 4 0 std::__ndk1::__function::__func<Tab1::init()::$_16, std::__ndk1::allocator<Tab1::init()::$_16>, void (std::__ndk1::basic_string<char, std::__ndk1::char_traits<char>, std::__ndk1::allocator<char> > const&)>::~__func()
FUNC 4199c 34 0 std::__ndk1::__function::__func<Tab1::init()::$_16, std::__ndk1::allocator<Tab1::init()::$_16>, void (std::__ndk1::basic_string<char, std::__ndk1::char_traits<char>, std::__ndk1::allocator<char> > const&)>::__clone() const
FUNC 419d0 14 0 std::__ndk1::__function::__func<Tab1::init()::$_16, std::__ndk1::allocator<Tab1::init()::$_16>, void (std::__ndk1::basic_string<char, std::__ndk1::char_traits<char>, std::__ndk1::allocator<char> > const&)>::__clone(std::__ndk1::__function::__base<void (std::__ndk1::basic_string<char, std::__ndk1::char_traits<char>, std::__ndk1::allocator<char> > const&)>*) const
FUNC 419e4 4 0 std::__ndk1::__function::__func<Tab1::init()::$_16, std::__ndk1::allocator<Tab1::init()::$_16>, void (std::__ndk1::basic_string<char, std::__ndk1::char_traits<char>, std::__ndk1::allocator<char> > const&)>::destroy()
FUNC 419e8 4 0 std::__ndk1::__function::__func<Tab1::init()::$_16, std::__ndk1::allocator<Tab1::init()::$_16>, void (std::__ndk1::basic_string<char, std::__ndk1::char_traits<char>, std::__ndk1::allocator<char> > const&)>::destroy_deallocate()
FUNC 419ec 8c 0 std::__ndk1::__function::__func<Tab1::init()::$_16, std::__ndk1::allocator<Tab1::init()::$_16>, void (std::__ndk1::basic_string<char, std::__ndk1::char_traits<char>, std::__ndk1::allocator<char> > const&)>::operator()(std::__ndk1::basic_string<char, std::__ndk1::char_traits<char>, std::__ndk1::allocator<char> > const&)
FUNC 41a78 1c 0 std::__ndk1::__function::__func<Tab1::init()::$_16, std::__ndk1::allocator<Tab1::init()::$_16>, void (std::__ndk1::basic_string<char, std::__ndk1::char_traits<char>, std::__ndk1::allocator<char> > const&)>::target(std::type_info const&) const
FUNC 41a94 c 0 std::__ndk1::__function::__func<Tab1::init()::$_16, std::__ndk1::allocator<Tab1::init()::$_16>, void (std::__ndk1::basic_string<char, std::__ndk1::char_traits<char>, std::__ndk1::allocator<char> > const&)>::target_type() const
FUNC 41aa0 4 0 std::__ndk1::__function::__func<Tab1::init()::$_17, std::__ndk1::allocator<Tab1::init()::$_17>, void (std::__ndk1::basic_string<char, std::__ndk1::char_traits<char>, std::__ndk1::allocator<char> > const&)>::~__func()
FUNC 41aa4 34 0 std::__ndk1::__function::__func<Tab1::init()::$_17, std::__ndk1::allocator<Tab1::init()::$_17>, void (std::__ndk1::basic_string<char, std::__ndk1::char_traits<char>, std::__ndk1::allocator<char> > const&)>::__clone() const
FUNC 41ad8 14 0 std::__ndk1::__function::__func<Tab1::init()::$_17, std::__ndk1::allocator<Tab1::init()::$_17>, void (std::__ndk1::basic_string<char, std::__ndk1::char_traits<char>, std::__ndk1::allocator<char> > const&)>::__clone(std::__ndk1::__function::__base<void (std::__ndk1::basic_string<char, std::__ndk1::char_traits<char>, std::__ndk1::allocator<char> > const&)>*) const
FUNC 41aec 4 0 std::__ndk1::__function::__func<Tab1::init()::$_17, std::__ndk1::allocator<Tab1::init()::$_17>, void (std::__ndk1::basic_string<char, std::__ndk1::char_traits<char>, std::__ndk1::allocator<char> > const&)>::destroy()
FUNC 41af0 4 0 std::__ndk1::__function::__func<Tab1::init()::$_17, std::__ndk1::allocator<Tab1::init()::$_17>, void (std::__ndk1::basic_string<char, std::__ndk1::char_traits<char>, std::__ndk1::allocator<char> > const&)>::destroy_deallocate()
FUNC 41af4 8c 0 std::__ndk1::__function::__func<Tab1::init()::$_17, std::__ndk1::allocator<Tab1::init()::$_17>, void (std::__ndk1::basic_string<char, std::__ndk1::char_traits<char>, std::__ndk1::allocator<char> > const&)>::operator()(std::__ndk1::basic_string<char, std::__ndk1::char_traits<char>, std::__ndk1::allocator<char> > const&)
FUNC 41b80 1c 0 std::__ndk1::__function::__func<Tab1::init()::$_17, std::__ndk1::allocator<Tab1::init()::$_17>, void (std::__ndk1::basic_string<char, std::__ndk1::char_traits<char>, std::__ndk1::allocator<char> > const&)>::target(std::type_info const&) const
FUNC 41b9c c 0 std::__ndk1::__function::__func<Tab1::init()::$_17, std::__ndk1::allocator<Tab1::init()::$_17>, void (std::__ndk1::basic_string<char, std::__ndk1::char_traits<char>, std::__ndk1::allocator<char> > const&)>::target_type() const
FUNC 41ba8 4 0 std::__ndk1::__function::__func<Tab1::init()::$_18, std::__ndk1::allocator<Tab1::init()::$_18>, void (std::__ndk1::basic_string<char, std::__ndk1::char_traits<char>, std::__ndk1::allocator<char> > const&)>::~__func()
FUNC 41bac 34 0 std::__ndk1::__function::__func<Tab1::init()::$_18, std::__ndk1::allocator<Tab1::init()::$_18>, void (std::__ndk1::basic_string<char, std::__ndk1::char_traits<char>, std::__ndk1::allocator<char> > const&)>::__clone() const
FUNC 41be0 14 0 std::__ndk1::__function::__func<Tab1::init()::$_18, std::__ndk1::allocator<Tab1::init()::$_18>, void (std::__ndk1::basic_string<char, std::__ndk1::char_traits<char>, std::__ndk1::allocator<char> > const&)>::__clone(std::__ndk1::__function::__base<void (std::__ndk1::basic_string<char, std::__ndk1::char_traits<char>, std::__ndk1::allocator<char> > const&)>*) const
FUNC 41bf4 4 0 std::__ndk1::__function::__func<Tab1::init()::$_18, std::__ndk1::allocator<Tab1::init()::$_18>, void (std::__ndk1::basic_string<char, std::__ndk1::char_traits<char>, std::__ndk1::allocator<char> > const&)>::destroy()
FUNC 41bf8 4 0 std::__ndk1::__function::__func<Tab1::init()::$_18, std::__ndk1::allocator<Tab1::init()::$_18>, void (std::__ndk1::basic_string<char, std::__ndk1::char_traits<char>, std::__ndk1::allocator<char> > const&)>::destroy_deallocate()
FUNC 41bfc 8c 0 std::__ndk1::__function::__func<Tab1::init()::$_18, std::__ndk1::allocator<Tab1::init()::$_18>, void (std::__ndk1::basic_string<char, std::__ndk1::char_traits<char>, std::__ndk1::allocator<char> > const&)>::operator()(std::__ndk1::basic_string<char, std::__ndk1::char_traits<char>, std::__ndk1::allocator<char> > const&)
FUNC 41c88 1c 0 std::__ndk1::__function::__func<Tab1::init()::$_18, std::__ndk1::allocator<Tab1::init()::$_18>, void (std::__ndk1::basic_string<char, std::__ndk1::char_traits<char>, std::__ndk1::allocator<char> > const&)>::target(std::type_info const&) const
FUNC 41ca4 c 0 std::__ndk1::__function::__func<Tab1::init()::$_18, std::__ndk1::allocator<Tab1::init()::$_18>, void (std::__ndk1::basic_string<char, std::__ndk1::char_traits<char>, std::__ndk1::allocator<char> > const&)>::target_type() const
FUNC 41cb0 4 0 std::__ndk1::__function::__func<Tab1::init()::$_19, std::__ndk1::allocator<Tab1::init()::$_19>, void (std::__ndk1::basic_string<char, std::__ndk1::char_traits<char>, std::__ndk1::allocator<char> > const&)>::~__func()
FUNC 41cb4 34 0 std::__ndk1::__function::__func<Tab1::init()::$_19, std::__ndk1::allocator<Tab1::init()::$_19>, void (std::__ndk1::basic_string<char, std::__ndk1::char_traits<char>, std::__ndk1::allocator<char> > const&)>::__clone() const
FUNC 41ce8 14 0 std::__ndk1::__function::__func<Tab1::init()::$_19, std::__ndk1::allocator<Tab1::init()::$_19>, void (std::__ndk1::basic_string<char, std::__ndk1::char_traits<char>, std::__ndk1::allocator<char> > const&)>::__clone(std::__ndk1::__function::__base<void (std::__ndk1::basic_string<char, std::__ndk1::char_traits<char>, std::__ndk1::allocator<char> > const&)>*) const
FUNC 41cfc 4 0 std::__ndk1::__function::__func<Tab1::init()::$_19, std::__ndk1::allocator<Tab1::init()::$_19>, void (std::__ndk1::basic_string<char, std::__ndk1::char_traits<char>, std::__ndk1::allocator<char> > const&)>::destroy()
FUNC 41d00 4 0 std::__ndk1::__function::__func<Tab1::init()::$_19, std::__ndk1::allocator<Tab1::init()::$_19>, void (std::__ndk1::basic_string<char, std::__ndk1::char_traits<char>, std::__ndk1::allocator<char> > const&)>::destroy_deallocate()
FUNC 41d04 8c 0 std::__ndk1::__function::__func<Tab1::init()::$_19, std::__ndk1::allocator<Tab1::init()::$_19>, void (std::__ndk1::basic_string<char, std::__ndk1::char_traits<char>, std::__ndk1::allocator<char> > const&)>::operator()(std::__ndk1::basic_string<char, std::__ndk1::char_traits<char>, std::__ndk1::allocator<char> > const&)
FUNC 41d90 1c 0 std::__ndk1::__function::__func<Tab1::init()::$_19, std::__ndk1::allocator<Tab1::init()::$_19>, void (std::__ndk1::basic_string<char, std::__ndk1::char_traits<char>, std::__ndk1::allocator<char> > const&)>::target(std::type_info const&) const
FUNC 41dac c 0 std::__ndk1::__function::__func<Tab1::init()::$_19, std::__ndk1::allocator<Tab1::init()::$_19>, void (std::__ndk1::basic_string<char, std::__ndk1::char_traits<char>, std::__ndk1::allocator<char> > const&)>::target_type() const
FUNC 41db8 2af4 0 Tab2::init()
FUNC 448ac b8 0 Tab2::SaveCheckbox(cocos2d::CCObject*)
FUNC 44964 b8 0 Tab2::SaveCheckbox2(cocos2d::CCObject*)
FUNC 44a1c b8 0 Tab2::SaveCheckbox3(cocos2d::CCObject*)
FUNC 44ad4 b8 0 Tab2::SaveCheckbox4(cocos2d::CCObject*)
FUNC 44b8c b8 0 Tab2::SaveCheckbox5(cocos2d::CCObject*)
FUNC 44c44 b8 0 Tab2::SaveCheckbox6(cocos2d::CCObject*)
FUNC 44cfc b8 0 Tab2::SaveCheckbox7(cocos2d::CCObject*)
FUNC 44db4 b8 0 Tab2::SaveCheckbox8(cocos2d::CCObject*)
FUNC 44e6c b8 0 Tab2::SaveCheckbox9(cocos2d::CCObject*)
FUNC 44f24 b8 0 Tab2::SaveCheckbox10(cocos2d::CCObject*)
FUNC 44fdc 24 0 Tab2::~Tab2()
FUNC 45000 8 0 {virtual override thunk({offset(-320)}, Tab2::~Tab2())}
FUNC 45008 28 0 {virtual override thunk({offset(-320)}, Tab2::~Tab2())}
FUNC 45030 4 0 std::__ndk1::__function::__func<Tab2::init()::$_0, std::__ndk1::allocator<Tab2::init()::$_0>, void (std::__ndk1::basic_string<char, std::__ndk1::char_traits<char>, std::__ndk1::allocator<char> > const&)>::~__func()
FUNC 45034 34 0 std::__ndk1::__function::__func<Tab2::init()::$_0, std::__ndk1::allocator<Tab2::init()::$_0>, void (std::__ndk1::basic_string<char, std::__ndk1::char_traits<char>, std::__ndk1::allocator<char> > const&)>::__clone() const
FUNC 45068 14 0 std::__ndk1::__function::__func<Tab2::init()::$_0, std::__ndk1::allocator<Tab2::init()::$_0>, void (std::__ndk1::basic_string<char, std::__ndk1::char_traits<char>, std::__ndk1::allocator<char> > const&)>::__clone(std::__ndk1::__function::__base<void (std::__ndk1::basic_string<char, std::__ndk1::char_traits<char>, std::__ndk1::allocator<char> > const&)>*) const
FUNC 4507c 4 0 std::__ndk1::__function::__func<Tab2::init()::$_0, std::__ndk1::allocator<Tab2::init()::$_0>, void (std::__ndk1::basic_string<char, std::__ndk1::char_traits<char>, std::__ndk1::allocator<char> > const&)>::destroy()
FUNC 45080 4 0 std::__ndk1::__function::__func<Tab2::init()::$_0, std::__ndk1::allocator<Tab2::init()::$_0>, void (std::__ndk1::basic_string<char, std::__ndk1::char_traits<char>, std::__ndk1::allocator<char> > const&)>::destroy_deallocate()
FUNC 45084 8c 0 std::__ndk1::__function::__func<Tab2::init()::$_0, std::__ndk1::allocator<Tab2::init()::$_0>, void (std::__ndk1::basic_string<char, std::__ndk1::char_traits<char>, std::__ndk1::allocator<char> > const&)>::operator()(std::__ndk1::basic_string<char, std::__ndk1::char_traits<char>, std::__ndk1::allocator<char> > const&)
FUNC 45110 1c 0 std::__ndk1::__function::__func<Tab2::init()::$_0, std::__ndk1::allocator<Tab2::init()::$_0>, void (std::__ndk1::basic_string<char, std::__ndk1::char_traits<char>, std::__ndk1::allocator<char> > const&)>::target(std::type_info const&) const
FUNC 4512c c 0 std::__ndk1::__function::__func<Tab2::init()::$_0, std::__ndk1::allocator<Tab2::init()::$_0>, void (std::__ndk1::basic_string<char, std::__ndk1::char_traits<char>, std::__ndk1::allocator<char> > const&)>::target_type() const
FUNC 45138 4 0 std::__ndk1::__function::__func<Tab2::init()::$_1, std::__ndk1::allocator<Tab2::init()::$_1>, void (std::__ndk1::basic_string<char, std::__ndk1::char_traits<char>, std::__ndk1::allocator<char> > const&)>::~__func()
FUNC 4513c 34 0 std::__ndk1::__function::__func<Tab2::init()::$_1, std::__ndk1::allocator<Tab2::init()::$_1>, void (std::__ndk1::basic_string<char, std::__ndk1::char_traits<char>, std::__ndk1::allocator<char> > const&)>::__clone() const
FUNC 45170 14 0 std::__ndk1::__function::__func<Tab2::init()::$_1, std::__ndk1::allocator<Tab2::init()::$_1>, void (std::__ndk1::basic_string<char, std::__ndk1::char_traits<char>, std::__ndk1::allocator<char> > const&)>::__clone(std::__ndk1::__function::__base<void (std::__ndk1::basic_string<char, std::__ndk1::char_traits<char>, std::__ndk1::allocator<char> > const&)>*) const
FUNC 45184 4 0 std::__ndk1::__function::__func<Tab2::init()::$_1, std::__ndk1::allocator<Tab2::init()::$_1>, void (std::__ndk1::basic_string<char, std::__ndk1::char_traits<char>, std::__ndk1::allocator<char> > const&)>::destroy()
FUNC 45188 4 0 std::__ndk1::__function::__func<Tab2::init()::$_1, std::__ndk1::allocator<Tab2::init()::$_1>, void (std::__ndk1::basic_string<char, std::__ndk1::char_traits<char>, std::__ndk1::allocator<char> > const&)>::destroy_deallocate()
FUNC 4518c 8c 0 std::__ndk1::__function::__func<Tab2::init()::$_1, std::__ndk1::allocator<Tab2::init()::$_1>, void (std::__ndk1::basic_string<char, std::__ndk1::char_traits<char>, std::__ndk1::allocator<char> > const&)>::operator()(std::__ndk1::basic_string<char, std::__ndk1::char_traits<char>, std::__ndk1::allocator<char> > const&)
FUNC 45218 1c 0 std::__ndk1::__function::__func<Tab2::init()::$_1, std::__ndk1::allocator<Tab2::init()::$_1>, void (std::__ndk1::basic_string<char, std::__ndk1::char_traits<char>, std::__ndk1::allocator<char> > const&)>::target(std::type_info const&) const
FUNC 45234 c 0 std::__ndk1::__function::__func<Tab2::init()::$_1, std::__ndk1::allocator<Tab2::init()::$_1>, void (std::__ndk1::basic_string<char, std::__ndk1::char_traits<char>, std::__ndk1::allocator<char> > const&)>::target_type() const
FUNC 45240 4 0 std::__ndk1::__function::__func<Tab2::init()::$_2, std::__ndk1::allocator<Tab2::init()::$_2>, void (std::__ndk1::basic_string<char, std::__ndk1::char_traits<char>, std::__ndk1::allocator<char> > const&)>::~__func()
FUNC 45244 34 0 std::__ndk1::__function::__func<Tab2::init()::$_2, std::__ndk1::allocator<Tab2::init()::$_2>, void (std::__ndk1::basic_string<char, std::__ndk1::char_traits<char>, std::__ndk1::allocator<char> > const&)>::__clone() const
FUNC 45278 14 0 std::__ndk1::__function::__func<Tab2::init()::$_2, std::__ndk1::allocator<Tab2::init()::$_2>, void (std::__ndk1::basic_string<char, std::__ndk1::char_traits<char>, std::__ndk1::allocator<char> > const&)>::__clone(std::__ndk1::__function::__base<void (std::__ndk1::basic_string<char, std::__ndk1::char_traits<char>, std::__ndk1::allocator<char> > const&)>*) const
FUNC 4528c 4 0 std::__ndk1::__function::__func<Tab2::init()::$_2, std::__ndk1::allocator<Tab2::init()::$_2>, void (std::__ndk1::basic_string<char, std::__ndk1::char_traits<char>, std::__ndk1::allocator<char> > const&)>::destroy()
FUNC 45290 4 0 std::__ndk1::__function::__func<Tab2::init()::$_2, std::__ndk1::allocator<Tab2::init()::$_2>, void (std::__ndk1::basic_string<char, std::__ndk1::char_traits<char>, std::__ndk1::allocator<char> > const&)>::destroy_deallocate()
FUNC 45294 8c 0 std::__ndk1::__function::__func<Tab2::init()::$_2, std::__ndk1::allocator<Tab2::init()::$_2>, void (std::__ndk1::basic_string<char, std::__ndk1::char_traits<char>, std::__ndk1::allocator<char> > const&)>::operator()(std::__ndk1::basic_string<char, std::__ndk1::char_traits<char>, std::__ndk1::allocator<char> > const&)
FUNC 45320 1c 0 std::__ndk1::__function::__func<Tab2::init()::$_2, std::__ndk1::allocator<Tab2::init()::$_2>, void (std::__ndk1::basic_string<char, std::__ndk1::char_traits<char>, std::__ndk1::allocator<char> > const&)>::target(std::type_info const&) const
FUNC 4533c c 0 std::__ndk1::__function::__func<Tab2::init()::$_2, std::__ndk1::allocator<Tab2::init()::$_2>, void (std::__ndk1::basic_string<char, std::__ndk1::char_traits<char>, std::__ndk1::allocator<char> > const&)>::target_type() const
FUNC 45348 4 0 std::__ndk1::__function::__func<Tab2::init()::$_3, std::__ndk1::allocator<Tab2::init()::$_3>, void (std::__ndk1::basic_string<char, std::__ndk1::char_traits<char>, std::__ndk1::allocator<char> > const&)>::~__func()
FUNC 4534c 34 0 std::__ndk1::__function::__func<Tab2::init()::$_3, std::__ndk1::allocator<Tab2::init()::$_3>, void (std::__ndk1::basic_string<char, std::__ndk1::char_traits<char>, std::__ndk1::allocator<char> > const&)>::__clone() const
FUNC 45380 14 0 std::__ndk1::__function::__func<Tab2::init()::$_3, std::__ndk1::allocator<Tab2::init()::$_3>, void (std::__ndk1::basic_string<char, std::__ndk1::char_traits<char>, std::__ndk1::allocator<char> > const&)>::__clone(std::__ndk1::__function::__base<void (std::__ndk1::basic_string<char, std::__ndk1::char_traits<char>, std::__ndk1::allocator<char> > const&)>*) const
FUNC 45394 4 0 std::__ndk1::__function::__func<Tab2::init()::$_3, std::__ndk1::allocator<Tab2::init()::$_3>, void (std::__ndk1::basic_string<char, std::__ndk1::char_traits<char>, std::__ndk1::allocator<char> > const&)>::destroy()
FUNC 45398 4 0 std::__ndk1::__function::__func<Tab2::init()::$_3, std::__ndk1::allocator<Tab2::init()::$_3>, void (std::__ndk1::basic_string<char, std::__ndk1::char_traits<char>, std::__ndk1::allocator<char> > const&)>::destroy_deallocate()
FUNC 4539c 8c 0 std::__ndk1::__function::__func<Tab2::init()::$_3, std::__ndk1::allocator<Tab2::init()::$_3>, void (std::__ndk1::basic_string<char, std::__ndk1::char_traits<char>, std::__ndk1::allocator<char> > const&)>::operator()(std::__ndk1::basic_string<char, std::__ndk1::char_traits<char>, std::__ndk1::allocator<char> > const&)
FUNC 45428 1c 0 std::__ndk1::__function::__func<Tab2::init()::$_3, std::__ndk1::allocator<Tab2::init()::$_3>, void (std::__ndk1::basic_string<char, std::__ndk1::char_traits<char>, std::__ndk1::allocator<char> > const&)>::target(std::type_info const&) const
FUNC 45444 c 0 std::__ndk1::__function::__func<Tab2::init()::$_3, std::__ndk1::allocator<Tab2::init()::$_3>, void (std::__ndk1::basic_string<char, std::__ndk1::char_traits<char>, std::__ndk1::allocator<char> > const&)>::target_type() const
FUNC 45450 4 0 std::__ndk1::__function::__func<Tab2::init()::$_4, std::__ndk1::allocator<Tab2::init()::$_4>, void (std::__ndk1::basic_string<char, std::__ndk1::char_traits<char>, std::__ndk1::allocator<char> > const&)>::~__func()
FUNC 45454 34 0 std::__ndk1::__function::__func<Tab2::init()::$_4, std::__ndk1::allocator<Tab2::init()::$_4>, void (std::__ndk1::basic_string<char, std::__ndk1::char_traits<char>, std::__ndk1::allocator<char> > const&)>::__clone() const
FUNC 45488 14 0 std::__ndk1::__function::__func<Tab2::init()::$_4, std::__ndk1::allocator<Tab2::init()::$_4>, void (std::__ndk1::basic_string<char, std::__ndk1::char_traits<char>, std::__ndk1::allocator<char> > const&)>::__clone(std::__ndk1::__function::__base<void (std::__ndk1::basic_string<char, std::__ndk1::char_traits<char>, std::__ndk1::allocator<char> > const&)>*) const
FUNC 4549c 4 0 std::__ndk1::__function::__func<Tab2::init()::$_4, std::__ndk1::allocator<Tab2::init()::$_4>, void (std::__ndk1::basic_string<char, std::__ndk1::char_traits<char>, std::__ndk1::allocator<char> > const&)>::destroy()
FUNC 454a0 4 0 std::__ndk1::__function::__func<Tab2::init()::$_4, std::__ndk1::allocator<Tab2::init()::$_4>, void (std::__ndk1::basic_string<char, std::__ndk1::char_traits<char>, std::__ndk1::allocator<char> > const&)>::destroy_deallocate()
FUNC 454a4 8c 0 std::__ndk1::__function::__func<Tab2::init()::$_4, std::__ndk1::allocator<Tab2::init()::$_4>, void (std::__ndk1::basic_string<char, std::__ndk1::char_traits<char>, std::__ndk1::allocator<char> > const&)>::operator()(std::__ndk1::basic_string<char, std::__ndk1::char_traits<char>, std::__ndk1::allocator<char> > const&)
FUNC 45530 1c 0 std::__ndk1::__function::__func<Tab2::init()::$_4, std::__ndk1::allocator<Tab2::init()::$_4>, void (std::__ndk1::basic_string<char, std::__ndk1::char_traits<char>, std::__ndk1::allocator<char> > const&)>::target(std::type_info const&) const
FUNC 4554c c 0 std::__ndk1::__function::__func<Tab2::init()::$_4, std::__ndk1::allocator<Tab2::init()::$_4>, void (std::__ndk1::basic_string<char, std::__ndk1::char_traits<char>, std::__ndk1::allocator<char> > const&)>::target_type() const
FUNC 45558 4 0 std::__ndk1::__function::__func<Tab2::init()::$_5, std::__ndk1::allocator<Tab2::init()::$_5>, void (std::__ndk1::basic_string<char, std::__ndk1::char_traits<char>, std::__ndk1::allocator<char> > const&)>::~__func()
FUNC 4555c 34 0 std::__ndk1::__function::__func<Tab2::init()::$_5, std::__ndk1::allocator<Tab2::init()::$_5>, void (std::__ndk1::basic_string<char, std::__ndk1::char_traits<char>, std::__ndk1::allocator<char> > const&)>::__clone() const
FUNC 45590 14 0 std::__ndk1::__function::__func<Tab2::init()::$_5, std::__ndk1::allocator<Tab2::init()::$_5>, void (std::__ndk1::basic_string<char, std::__ndk1::char_traits<char>, std::__ndk1::allocator<char> > const&)>::__clone(std::__ndk1::__function::__base<void (std::__ndk1::basic_string<char, std::__ndk1::char_traits<char>, std::__ndk1::allocator<char> > const&)>*) const
FUNC 455a4 4 0 std::__ndk1::__function::__func<Tab2::init()::$_5, std::__ndk1::allocator<Tab2::init()::$_5>, void (std::__ndk1::basic_string<char, std::__ndk1::char_traits<char>, std::__ndk1::allocator<char> > const&)>::destroy()
FUNC 455a8 4 0 std::__ndk1::__function::__func<Tab2::init()::$_5, std::__ndk1::allocator<Tab2::init()::$_5>, void (std::__ndk1::basic_string<char, std::__ndk1::char_traits<char>, std::__ndk1::allocator<char> > const&)>::destroy_deallocate()
FUNC 455ac 8c 0 std::__ndk1::__function::__func<Tab2::init()::$_5, std::__ndk1::allocator<Tab2::init()::$_5>, void (std::__ndk1::basic_string<char, std::__ndk1::char_traits<char>, std::__ndk1::allocator<char> > const&)>::operator()(std::__ndk1::basic_string<char, std::__ndk1::char_traits<char>, std::__ndk1::allocator<char> > const&)
FUNC 45638 1c 0 std::__ndk1::__function::__func<Tab2::init()::$_5, std::__ndk1::allocator<Tab2::init()::$_5>, void (std::__ndk1::basic_string<char, std::__ndk1::char_traits<char>, std::__ndk1::allocator<char> > const&)>::target(std::type_info const&) const
FUNC 45654 c 0 std::__ndk1::__function::__func<Tab2::init()::$_5, std::__ndk1::allocator<Tab2::init()::$_5>, void (std::__ndk1::basic_string<char, std::__ndk1::char_traits<char>, std::__ndk1::allocator<char> > const&)>::target_type() const
FUNC 45660 4 0 std::__ndk1::__function::__func<Tab2::init()::$_6, std::__ndk1::allocator<Tab2::init()::$_6>, void (std::__ndk1::basic_string<char, std::__ndk1::char_traits<char>, std::__ndk1::allocator<char> > const&)>::~__func()
FUNC 45664 34 0 std::__ndk1::__function::__func<Tab2::init()::$_6, std::__ndk1::allocator<Tab2::init()::$_6>, void (std::__ndk1::basic_string<char, std::__ndk1::char_traits<char>, std::__ndk1::allocator<char> > const&)>::__clone() const
FUNC 45698 14 0 std::__ndk1::__function::__func<Tab2::init()::$_6, std::__ndk1::allocator<Tab2::init()::$_6>, void (std::__ndk1::basic_string<char, std::__ndk1::char_traits<char>, std::__ndk1::allocator<char> > const&)>::__clone(std::__ndk1::__function::__base<void (std::__ndk1::basic_string<char, std::__ndk1::char_traits<char>, std::__ndk1::allocator<char> > const&)>*) const
FUNC 456ac 4 0 std::__ndk1::__function::__func<Tab2::init()::$_6, std::__ndk1::allocator<Tab2::init()::$_6>, void (std::__ndk1::basic_string<char, std::__ndk1::char_traits<char>, std::__ndk1::allocator<char> > const&)>::destroy()
FUNC 456b0 4 0 std::__ndk1::__function::__func<Tab2::init()::$_6, std::__ndk1::allocator<Tab2::init()::$_6>, void (std::__ndk1::basic_string<char, std::__ndk1::char_traits<char>, std::__ndk1::allocator<char> > const&)>::destroy_deallocate()
FUNC 456b4 8c 0 std::__ndk1::__function::__func<Tab2::init()::$_6, std::__ndk1::allocator<Tab2::init()::$_6>, void (std::__ndk1::basic_string<char, std::__ndk1::char_traits<char>, std::__ndk1::allocator<char> > const&)>::operator()(std::__ndk1::basic_string<char, std::__ndk1::char_traits<char>, std::__ndk1::allocator<char> > const&)
FUNC 45740 1c 0 std::__ndk1::__function::__func<Tab2::init()::$_6, std::__ndk1::allocator<Tab2::init()::$_6>, void (std::__ndk1::basic_string<char, std::__ndk1::char_traits<char>, std::__ndk1::allocator<char> > const&)>::target(std::type_info const&) const
FUNC 4575c c 0 std::__ndk1::__function::__func<Tab2::init()::$_6, std::__ndk1::allocator<Tab2::init()::$_6>, void (std::__ndk1::basic_string<char, std::__ndk1::char_traits<char>, std::__ndk1::allocator<char> > const&)>::target_type() const
FUNC 45768 4 0 std::__ndk1::__function::__func<Tab2::init()::$_7, std::__ndk1::allocator<Tab2::init()::$_7>, void (std::__ndk1::basic_string<char, std::__ndk1::char_traits<char>, std::__ndk1::allocator<char> > const&)>::~__func()
FUNC 4576c 34 0 std::__ndk1::__function::__func<Tab2::init()::$_7, std::__ndk1::allocator<Tab2::init()::$_7>, void (std::__ndk1::basic_string<char, std::__ndk1::char_traits<char>, std::__ndk1::allocator<char> > const&)>::__clone() const
FUNC 457a0 14 0 std::__ndk1::__function::__func<Tab2::init()::$_7, std::__ndk1::allocator<Tab2::init()::$_7>, void (std::__ndk1::basic_string<char, std::__ndk1::char_traits<char>, std::__ndk1::allocator<char> > const&)>::__clone(std::__ndk1::__function::__base<void (std::__ndk1::basic_string<char, std::__ndk1::char_traits<char>, std::__ndk1::allocator<char> > const&)>*) const
FUNC 457b4 4 0 std::__ndk1::__function::__func<Tab2::init()::$_7, std::__ndk1::allocator<Tab2::init()::$_7>, void (std::__ndk1::basic_string<char, std::__ndk1::char_traits<char>, std::__ndk1::allocator<char> > const&)>::destroy()
FUNC 457b8 4 0 std::__ndk1::__function::__func<Tab2::init()::$_7, std::__ndk1::allocator<Tab2::init()::$_7>, void (std::__ndk1::basic_string<char, std::__ndk1::char_traits<char>, std::__ndk1::allocator<char> > const&)>::destroy_deallocate()
FUNC 457bc 8c 0 std::__ndk1::__function::__func<Tab2::init()::$_7, std::__ndk1::allocator<Tab2::init()::$_7>, void (std::__ndk1::basic_string<char, std::__ndk1::char_traits<char>, std::__ndk1::allocator<char> > const&)>::operator()(std::__ndk1::basic_string<char, std::__ndk1::char_traits<char>, std::__ndk1::allocator<char> > const&)
FUNC 45848 1c 0 std::__ndk1::__function::__func<Tab2::init()::$_7, std::__ndk1::allocator<Tab2::init()::$_7>, void (std::__ndk1::basic_string<char, std::__ndk1::char_traits<char>, std::__ndk1::allocator<char> > const&)>::target(std::type_info const&) const
FUNC 45864 c 0 std::__ndk1::__function::__func<Tab2::init()::$_7, std::__ndk1::allocator<Tab2::init()::$_7>, void (std::__ndk1::basic_string<char, std::__ndk1::char_traits<char>, std::__ndk1::allocator<char> > const&)>::target_type() const
FUNC 45870 4 0 std::__ndk1::__function::__func<Tab2::init()::$_8, std::__ndk1::allocator<Tab2::init()::$_8>, void (std::__ndk1::basic_string<char, std::__ndk1::char_traits<char>, std::__ndk1::allocator<char> > const&)>::~__func()
FUNC 45874 34 0 std::__ndk1::__function::__func<Tab2::init()::$_8, std::__ndk1::allocator<Tab2::init()::$_8>, void (std::__ndk1::basic_string<char, std::__ndk1::char_traits<char>, std::__ndk1::allocator<char> > const&)>::__clone() const
FUNC 458a8 14 0 std::__ndk1::__function::__func<Tab2::init()::$_8, std::__ndk1::allocator<Tab2::init()::$_8>, void (std::__ndk1::basic_string<char, std::__ndk1::char_traits<char>, std::__ndk1::allocator<char> > const&)>::__clone(std::__ndk1::__function::__base<void (std::__ndk1::basic_string<char, std::__ndk1::char_traits<char>, std::__ndk1::allocator<char> > const&)>*) const
FUNC 458bc 4 0 std::__ndk1::__function::__func<Tab2::init()::$_8, std::__ndk1::allocator<Tab2::init()::$_8>, void (std::__ndk1::basic_string<char, std::__ndk1::char_traits<char>, std::__ndk1::allocator<char> > const&)>::destroy()
FUNC 458c0 4 0 std::__ndk1::__function::__func<Tab2::init()::$_8, std::__ndk1::allocator<Tab2::init()::$_8>, void (std::__ndk1::basic_string<char, std::__ndk1::char_traits<char>, std::__ndk1::allocator<char> > const&)>::destroy_deallocate()
FUNC 458c4 8c 0 std::__ndk1::__function::__func<Tab2::init()::$_8, std::__ndk1::allocator<Tab2::init()::$_8>, void (std::__ndk1::basic_string<char, std::__ndk1::char_traits<char>, std::__ndk1::allocator<char> > const&)>::operator()(std::__ndk1::basic_string<char, std::__ndk1::char_traits<char>, std::__ndk1::allocator<char> > const&)
FUNC 45950 1c 0 std::__ndk1::__function::__func<Tab2::init()::$_8, std::__ndk1::allocator<Tab2::init()::$_8>, void (std::__ndk1::basic_string<char, std::__ndk1::char_traits<char>, std::__ndk1::allocator<char> > const&)>::target(std::type_info const&) const
FUNC 4596c c 0 std::__ndk1::__function::__func<Tab2::init()::$_8, std::__ndk1::allocator<Tab2::init()::$_8>, void (std::__ndk1::basic_string<char, std::__ndk1::char_traits<char>, std::__ndk1::allocator<char> > const&)>::target_type() const
FUNC 45978 4 0 std::__ndk1::__function::__func<Tab2::init()::$_9, std::__ndk1::allocator<Tab2::init()::$_9>, void (std::__ndk1::basic_string<char, std::__ndk1::char_traits<char>, std::__ndk1::allocator<char> > const&)>::~__func()
FUNC 4597c 34 0 std::__ndk1::__function::__func<Tab2::init()::$_9, std::__ndk1::allocator<Tab2::init()::$_9>, void (std::__ndk1::basic_string<char, std::__ndk1::char_traits<char>, std::__ndk1::allocator<char> > const&)>::__clone() const
FUNC 459b0 14 0 std::__ndk1::__function::__func<Tab2::init()::$_9, std::__ndk1::allocator<Tab2::init()::$_9>, void (std::__ndk1::basic_string<char, std::__ndk1::char_traits<char>, std::__ndk1::allocator<char> > const&)>::__clone(std::__ndk1::__function::__base<void (std::__ndk1::basic_string<char, std::__ndk1::char_traits<char>, std::__ndk1::allocator<char> > const&)>*) const
FUNC 459c4 4 0 std::__ndk1::__function::__func<Tab2::init()::$_9, std::__ndk1::allocator<Tab2::init()::$_9>, void (std::__ndk1::basic_string<char, std::__ndk1::char_traits<char>, std::__ndk1::allocator<char> > const&)>::destroy()
FUNC 459c8 4 0 std::__ndk1::__function::__func<Tab2::init()::$_9, std::__ndk1::allocator<Tab2::init()::$_9>, void (std::__ndk1::basic_string<char, std::__ndk1::char_traits<char>, std::__ndk1::allocator<char> > const&)>::destroy_deallocate()
FUNC 459cc 8c 0 std::__ndk1::__function::__func<Tab2::init()::$_9, std::__ndk1::allocator<Tab2::init()::$_9>, void (std::__ndk1::basic_string<char, std::__ndk1::char_traits<char>, std::__ndk1::allocator<char> > const&)>::operator()(std::__ndk1::basic_string<char, std::__ndk1::char_traits<char>, std::__ndk1::allocator<char> > const&)
FUNC 45a58 1c 0 std::__ndk1::__function::__func<Tab2::init()::$_9, std::__ndk1::allocator<Tab2::init()::$_9>, void (std::__ndk1::basic_string<char, std::__ndk1::char_traits<char>, std::__ndk1::allocator<char> > const&)>::target(std::type_info const&) const
FUNC 45a74 c 0 std::__ndk1::__function::__func<Tab2::init()::$_9, std::__ndk1::allocator<Tab2::init()::$_9>, void (std::__ndk1::basic_string<char, std::__ndk1::char_traits<char>, std::__ndk1::allocator<char> > const&)>::target_type() const
FUNC 45a80 4 0 std::__ndk1::__function::__func<Tab2::init()::$_10, std::__ndk1::allocator<Tab2::init()::$_10>, void (std::__ndk1::basic_string<char, std::__ndk1::char_traits<char>, std::__ndk1::allocator<char> > const&)>::~__func()
FUNC 45a84 34 0 std::__ndk1::__function::__func<Tab2::init()::$_10, std::__ndk1::allocator<Tab2::init()::$_10>, void (std::__ndk1::basic_string<char, std::__ndk1::char_traits<char>, std::__ndk1::allocator<char> > const&)>::__clone() const
FUNC 45ab8 14 0 std::__ndk1::__function::__func<Tab2::init()::$_10, std::__ndk1::allocator<Tab2::init()::$_10>, void (std::__ndk1::basic_string<char, std::__ndk1::char_traits<char>, std::__ndk1::allocator<char> > const&)>::__clone(std::__ndk1::__function::__base<void (std::__ndk1::basic_string<char, std::__ndk1::char_traits<char>, std::__ndk1::allocator<char> > const&)>*) const
FUNC 45acc 4 0 std::__ndk1::__function::__func<Tab2::init()::$_10, std::__ndk1::allocator<Tab2::init()::$_10>, void (std::__ndk1::basic_string<char, std::__ndk1::char_traits<char>, std::__ndk1::allocator<char> > const&)>::destroy()
FUNC 45ad0 4 0 std::__ndk1::__function::__func<Tab2::init()::$_10, std::__ndk1::allocator<Tab2::init()::$_10>, void (std::__ndk1::basic_string<char, std::__ndk1::char_traits<char>, std::__ndk1::allocator<char> > const&)>::destroy_deallocate()
FUNC 45ad4 8c 0 std::__ndk1::__function::__func<Tab2::init()::$_10, std::__ndk1::allocator<Tab2::init()::$_10>, void (std::__ndk1::basic_string<char, std::__ndk1::char_traits<char>, std::__ndk1::allocator<char> > const&)>::operator()(std::__ndk1::basic_string<char, std::__ndk1::char_traits<char>, std::__ndk1::allocator<char> > const&)
FUNC 45b60 1c 0 std::__ndk1::__function::__func<Tab2::init()::$_10, std::__ndk1::allocator<Tab2::init()::$_10>, void (std::__ndk1::basic_string<char, std::__ndk1::char_traits<char>, std::__ndk1::allocator<char> > const&)>::target(std::type_info const&) const
FUNC 45b7c c 0 std::__ndk1::__function::__func<Tab2::init()::$_10, std::__ndk1::allocator<Tab2::init()::$_10>, void (std::__ndk1::basic_string<char, std::__ndk1::char_traits<char>, std::__ndk1::allocator<char> > const&)>::target_type() const
FUNC 45b88 4 0 std::__ndk1::__function::__func<Tab2::init()::$_11, std::__ndk1::allocator<Tab2::init()::$_11>, void (std::__ndk1::basic_string<char, std::__ndk1::char_traits<char>, std::__ndk1::allocator<char> > const&)>::~__func()
FUNC 45b8c 34 0 std::__ndk1::__function::__func<Tab2::init()::$_11, std::__ndk1::allocator<Tab2::init()::$_11>, void (std::__ndk1::basic_string<char, std::__ndk1::char_traits<char>, std::__ndk1::allocator<char> > const&)>::__clone() const
FUNC 45bc0 14 0 std::__ndk1::__function::__func<Tab2::init()::$_11, std::__ndk1::allocator<Tab2::init()::$_11>, void (std::__ndk1::basic_string<char, std::__ndk1::char_traits<char>, std::__ndk1::allocator<char> > const&)>::__clone(std::__ndk1::__function::__base<void (std::__ndk1::basic_string<char, std::__ndk1::char_traits<char>, std::__ndk1::allocator<char> > const&)>*) const
FUNC 45bd4 4 0 std::__ndk1::__function::__func<Tab2::init()::$_11, std::__ndk1::allocator<Tab2::init()::$_11>, void (std::__ndk1::basic_string<char, std::__ndk1::char_traits<char>, std::__ndk1::allocator<char> > const&)>::destroy()
FUNC 45bd8 4 0 std::__ndk1::__function::__func<Tab2::init()::$_11, std::__ndk1::allocator<Tab2::init()::$_11>, void (std::__ndk1::basic_string<char, std::__ndk1::char_traits<char>, std::__ndk1::allocator<char> > const&)>::destroy_deallocate()
FUNC 45bdc 8c 0 std::__ndk1::__function::__func<Tab2::init()::$_11, std::__ndk1::allocator<Tab2::init()::$_11>, void (std::__ndk1::basic_string<char, std::__ndk1::char_traits<char>, std::__ndk1::allocator<char> > const&)>::operator()(std::__ndk1::basic_string<char, std::__ndk1::char_traits<char>, std::__ndk1::allocator<char> > const&)
FUNC 45c68 1c 0 std::__ndk1::__function::__func<Tab2::init()::$_11, std::__ndk1::allocator<Tab2::init()::$_11>, void (std::__ndk1::basic_string<char, std::__ndk1::char_traits<char>, std::__ndk1::allocator<char> > const&)>::target(std::type_info const&) const
FUNC 45c84 c 0 std::__ndk1::__function::__func<Tab2::init()::$_11, std::__ndk1::allocator<Tab2::init()::$_11>, void (std::__ndk1::basic_string<char, std::__ndk1::char_traits<char>, std::__ndk1::allocator<char> > const&)>::target_type() const
FUNC 45c90 4 0 std::__ndk1::__function::__func<Tab2::init()::$_12, std::__ndk1::allocator<Tab2::init()::$_12>, void (std::__ndk1::basic_string<char, std::__ndk1::char_traits<char>, std::__ndk1::allocator<char> > const&)>::~__func()
FUNC 45c94 34 0 std::__ndk1::__function::__func<Tab2::init()::$_12, std::__ndk1::allocator<Tab2::init()::$_12>, void (std::__ndk1::basic_string<char, std::__ndk1::char_traits<char>, std::__ndk1::allocator<char> > const&)>::__clone() const
FUNC 45cc8 14 0 std::__ndk1::__function::__func<Tab2::init()::$_12, std::__ndk1::allocator<Tab2::init()::$_12>, void (std::__ndk1::basic_string<char, std::__ndk1::char_traits<char>, std::__ndk1::allocator<char> > const&)>::__clone(std::__ndk1::__function::__base<void (std::__ndk1::basic_string<char, std::__ndk1::char_traits<char>, std::__ndk1::allocator<char> > const&)>*) const
FUNC 45cdc 4 0 std::__ndk1::__function::__func<Tab2::init()::$_12, std::__ndk1::allocator<Tab2::init()::$_12>, void (std::__ndk1::basic_string<char, std::__ndk1::char_traits<char>, std::__ndk1::allocator<char> > const&)>::destroy()
FUNC 45ce0 4 0 std::__ndk1::__function::__func<Tab2::init()::$_12, std::__ndk1::allocator<Tab2::init()::$_12>, void (std::__ndk1::basic_string<char, std::__ndk1::char_traits<char>, std::__ndk1::allocator<char> > const&)>::destroy_deallocate()
FUNC 45ce4 8c 0 std::__ndk1::__function::__func<Tab2::init()::$_12, std::__ndk1::allocator<Tab2::init()::$_12>, void (std::__ndk1::basic_string<char, std::__ndk1::char_traits<char>, std::__ndk1::allocator<char> > const&)>::operator()(std::__ndk1::basic_string<char, std::__ndk1::char_traits<char>, std::__ndk1::allocator<char> > const&)
FUNC 45d70 1c 0 std::__ndk1::__function::__func<Tab2::init()::$_12, std::__ndk1::allocator<Tab2::init()::$_12>, void (std::__ndk1::basic_string<char, std::__ndk1::char_traits<char>, std::__ndk1::allocator<char> > const&)>::target(std::type_info const&) const
FUNC 45d8c c 0 std::__ndk1::__function::__func<Tab2::init()::$_12, std::__ndk1::allocator<Tab2::init()::$_12>, void (std::__ndk1::basic_string<char, std::__ndk1::char_traits<char>, std::__ndk1::allocator<char> > const&)>::target_type() const
FUNC 45d98 4 0 std::__ndk1::__function::__func<Tab2::init()::$_13, std::__ndk1::allocator<Tab2::init()::$_13>, void (std::__ndk1::basic_string<char, std::__ndk1::char_traits<char>, std::__ndk1::allocator<char> > const&)>::~__func()
FUNC 45d9c 34 0 std::__ndk1::__function::__func<Tab2::init()::$_13, std::__ndk1::allocator<Tab2::init()::$_13>, void (std::__ndk1::basic_string<char, std::__ndk1::char_traits<char>, std::__ndk1::allocator<char> > const&)>::__clone() const
FUNC 45dd0 14 0 std::__ndk1::__function::__func<Tab2::init()::$_13, std::__ndk1::allocator<Tab2::init()::$_13>, void (std::__ndk1::basic_string<char, std::__ndk1::char_traits<char>, std::__ndk1::allocator<char> > const&)>::__clone(std::__ndk1::__function::__base<void (std::__ndk1::basic_string<char, std::__ndk1::char_traits<char>, std::__ndk1::allocator<char> > const&)>*) const
FUNC 45de4 4 0 std::__ndk1::__function::__func<Tab2::init()::$_13, std::__ndk1::allocator<Tab2::init()::$_13>, void (std::__ndk1::basic_string<char, std::__ndk1::char_traits<char>, std::__ndk1::allocator<char> > const&)>::destroy()
FUNC 45de8 4 0 std::__ndk1::__function::__func<Tab2::init()::$_13, std::__ndk1::allocator<Tab2::init()::$_13>, void (std::__ndk1::basic_string<char, std::__ndk1::char_traits<char>, std::__ndk1::allocator<char> > const&)>::destroy_deallocate()
FUNC 45dec 8c 0 std::__ndk1::__function::__func<Tab2::init()::$_13, std::__ndk1::allocator<Tab2::init()::$_13>, void (std::__ndk1::basic_string<char, std::__ndk1::char_traits<char>, std::__ndk1::allocator<char> > const&)>::operator()(std::__ndk1::basic_string<char, std::__ndk1::char_traits<char>, std::__ndk1::allocator<char> > const&)
FUNC 45e78 1c 0 std::__ndk1::__function::__func<Tab2::init()::$_13, std::__ndk1::allocator<Tab2::init()::$_13>, void (std::__ndk1::basic_string<char, std::__ndk1::char_traits<char>, std::__ndk1::allocator<char> > const&)>::target(std::type_info const&) const
FUNC 45e94 c 0 std::__ndk1::__function::__func<Tab2::init()::$_13, std::__ndk1::allocator<Tab2::init()::$_13>, void (std::__ndk1::basic_string<char, std::__ndk1::char_traits<char>, std::__ndk1::allocator<char> > const&)>::target_type() const
FUNC 45ea0 4 0 std::__ndk1::__function::__func<Tab2::init()::$_14, std::__ndk1::allocator<Tab2::init()::$_14>, void (std::__ndk1::basic_string<char, std::__ndk1::char_traits<char>, std::__ndk1::allocator<char> > const&)>::~__func()
FUNC 45ea4 34 0 std::__ndk1::__function::__func<Tab2::init()::$_14, std::__ndk1::allocator<Tab2::init()::$_14>, void (std::__ndk1::basic_string<char, std::__ndk1::char_traits<char>, std::__ndk1::allocator<char> > const&)>::__clone() const
FUNC 45ed8 14 0 std::__ndk1::__function::__func<Tab2::init()::$_14, std::__ndk1::allocator<Tab2::init()::$_14>, void (std::__ndk1::basic_string<char, std::__ndk1::char_traits<char>, std::__ndk1::allocator<char> > const&)>::__clone(std::__ndk1::__function::__base<void (std::__ndk1::basic_string<char, std::__ndk1::char_traits<char>, std::__ndk1::allocator<char> > const&)>*) const
FUNC 45eec 4 0 std::__ndk1::__function::__func<Tab2::init()::$_14, std::__ndk1::allocator<Tab2::init()::$_14>, void (std::__ndk1::basic_string<char, std::__ndk1::char_traits<char>, std::__ndk1::allocator<char> > const&)>::destroy()
FUNC 45ef0 4 0 std::__ndk1::__function::__func<Tab2::init()::$_14, std::__ndk1::allocator<Tab2::init()::$_14>, void (std::__ndk1::basic_string<char, std::__ndk1::char_traits<char>, std::__ndk1::allocator<char> > const&)>::destroy_deallocate()
FUNC 45ef4 8c 0 std::__ndk1::__function::__func<Tab2::init()::$_14, std::__ndk1::allocator<Tab2::init()::$_14>, void (std::__ndk1::basic_string<char, std::__ndk1::char_traits<char>, std::__ndk1::allocator<char> > const&)>::operator()(std::__ndk1::basic_string<char, std::__ndk1::char_traits<char>, std::__ndk1::allocator<char> > const&)
FUNC 45f80 1c 0 std::__ndk1::__function::__func<Tab2::init()::$_14, std::__ndk1::allocator<Tab2::init()::$_14>, void (std::__ndk1::basic_string<char, std::__ndk1::char_traits<char>, std::__ndk1::allocator<char> > const&)>::target(std::type_info const&) const
FUNC 45f9c c 0 std::__ndk1::__function::__func<Tab2::init()::$_14, std::__ndk1::allocator<Tab2::init()::$_14>, void (std::__ndk1::basic_string<char, std::__ndk1::char_traits<char>, std::__ndk1::allocator<char> > const&)>::target_type() const
FUNC 45fa8 4 0 std::__ndk1::__function::__func<Tab2::init()::$_15, std::__ndk1::allocator<Tab2::init()::$_15>, void (std::__ndk1::basic_string<char, std::__ndk1::char_traits<char>, std::__ndk1::allocator<char> > const&)>::~__func()
FUNC 45fac 34 0 std::__ndk1::__function::__func<Tab2::init()::$_15, std::__ndk1::allocator<Tab2::init()::$_15>, void (std::__ndk1::basic_string<char, std::__ndk1::char_traits<char>, std::__ndk1::allocator<char> > const&)>::__clone() const
FUNC 45fe0 14 0 std::__ndk1::__function::__func<Tab2::init()::$_15, std::__ndk1::allocator<Tab2::init()::$_15>, void (std::__ndk1::basic_string<char, std::__ndk1::char_traits<char>, std::__ndk1::allocator<char> > const&)>::__clone(std::__ndk1::__function::__base<void (std::__ndk1::basic_string<char, std::__ndk1::char_traits<char>, std::__ndk1::allocator<char> > const&)>*) const
FUNC 45ff4 4 0 std::__ndk1::__function::__func<Tab2::init()::$_15, std::__ndk1::allocator<Tab2::init()::$_15>, void (std::__ndk1::basic_string<char, std::__ndk1::char_traits<char>, std::__ndk1::allocator<char> > const&)>::destroy()
FUNC 45ff8 4 0 std::__ndk1::__function::__func<Tab2::init()::$_15, std::__ndk1::allocator<Tab2::init()::$_15>, void (std::__ndk1::basic_string<char, std::__ndk1::char_traits<char>, std::__ndk1::allocator<char> > const&)>::destroy_deallocate()
FUNC 45ffc 8c 0 std::__ndk1::__function::__func<Tab2::init()::$_15, std::__ndk1::allocator<Tab2::init()::$_15>, void (std::__ndk1::basic_string<char, std::__ndk1::char_traits<char>, std::__ndk1::allocator<char> > const&)>::operator()(std::__ndk1::basic_string<char, std::__ndk1::char_traits<char>, std::__ndk1::allocator<char> > const&)
FUNC 46088 1c 0 std::__ndk1::__function::__func<Tab2::init()::$_15, std::__ndk1::allocator<Tab2::init()::$_15>, void (std::__ndk1::basic_string<char, std::__ndk1::char_traits<char>, std::__ndk1::allocator<char> > const&)>::target(std::type_info const&) const
FUNC 460a4 c 0 std::__ndk1::__function::__func<Tab2::init()::$_15, std::__ndk1::allocator<Tab2::init()::$_15>, void (std::__ndk1::basic_string<char, std::__ndk1::char_traits<char>, std::__ndk1::allocator<char> > const&)>::target_type() const
FUNC 460b0 4 0 std::__ndk1::__function::__func<Tab2::init()::$_16, std::__ndk1::allocator<Tab2::init()::$_16>, void (std::__ndk1::basic_string<char, std::__ndk1::char_traits<char>, std::__ndk1::allocator<char> > const&)>::~__func()
FUNC 460b4 34 0 std::__ndk1::__function::__func<Tab2::init()::$_16, std::__ndk1::allocator<Tab2::init()::$_16>, void (std::__ndk1::basic_string<char, std::__ndk1::char_traits<char>, std::__ndk1::allocator<char> > const&)>::__clone() const
FUNC 460e8 14 0 std::__ndk1::__function::__func<Tab2::init()::$_16, std::__ndk1::allocator<Tab2::init()::$_16>, void (std::__ndk1::basic_string<char, std::__ndk1::char_traits<char>, std::__ndk1::allocator<char> > const&)>::__clone(std::__ndk1::__function::__base<void (std::__ndk1::basic_string<char, std::__ndk1::char_traits<char>, std::__ndk1::allocator<char> > const&)>*) const
FUNC 460fc 4 0 std::__ndk1::__function::__func<Tab2::init()::$_16, std::__ndk1::allocator<Tab2::init()::$_16>, void (std::__ndk1::basic_string<char, std::__ndk1::char_traits<char>, std::__ndk1::allocator<char> > const&)>::destroy()
FUNC 46100 4 0 std::__ndk1::__function::__func<Tab2::init()::$_16, std::__ndk1::allocator<Tab2::init()::$_16>, void (std::__ndk1::basic_string<char, std::__ndk1::char_traits<char>, std::__ndk1::allocator<char> > const&)>::destroy_deallocate()
FUNC 46104 8c 0 std::__ndk1::__function::__func<Tab2::init()::$_16, std::__ndk1::allocator<Tab2::init()::$_16>, void (std::__ndk1::basic_string<char, std::__ndk1::char_traits<char>, std::__ndk1::allocator<char> > const&)>::operator()(std::__ndk1::basic_string<char, std::__ndk1::char_traits<char>, std::__ndk1::allocator<char> > const&)
FUNC 46190 1c 0 std::__ndk1::__function::__func<Tab2::init()::$_16, std::__ndk1::allocator<Tab2::init()::$_16>, void (std::__ndk1::basic_string<char, std::__ndk1::char_traits<char>, std::__ndk1::allocator<char> > const&)>::target(std::type_info const&) const
FUNC 461ac c 0 std::__ndk1::__function::__func<Tab2::init()::$_16, std::__ndk1::allocator<Tab2::init()::$_16>, void (std::__ndk1::basic_string<char, std::__ndk1::char_traits<char>, std::__ndk1::allocator<char> > const&)>::target_type() const
FUNC 461b8 4 0 std::__ndk1::__function::__func<Tab2::init()::$_17, std::__ndk1::allocator<Tab2::init()::$_17>, void (std::__ndk1::basic_string<char, std::__ndk1::char_traits<char>, std::__ndk1::allocator<char> > const&)>::~__func()
FUNC 461bc 34 0 std::__ndk1::__function::__func<Tab2::init()::$_17, std::__ndk1::allocator<Tab2::init()::$_17>, void (std::__ndk1::basic_string<char, std::__ndk1::char_traits<char>, std::__ndk1::allocator<char> > const&)>::__clone() const
FUNC 461f0 14 0 std::__ndk1::__function::__func<Tab2::init()::$_17, std::__ndk1::allocator<Tab2::init()::$_17>, void (std::__ndk1::basic_string<char, std::__ndk1::char_traits<char>, std::__ndk1::allocator<char> > const&)>::__clone(std::__ndk1::__function::__base<void (std::__ndk1::basic_string<char, std::__ndk1::char_traits<char>, std::__ndk1::allocator<char> > const&)>*) const
FUNC 46204 4 0 std::__ndk1::__function::__func<Tab2::init()::$_17, std::__ndk1::allocator<Tab2::init()::$_17>, void (std::__ndk1::basic_string<char, std::__ndk1::char_traits<char>, std::__ndk1::allocator<char> > const&)>::destroy()
FUNC 46208 4 0 std::__ndk1::__function::__func<Tab2::init()::$_17, std::__ndk1::allocator<Tab2::init()::$_17>, void (std::__ndk1::basic_string<char, std::__ndk1::char_traits<char>, std::__ndk1::allocator<char> > const&)>::destroy_deallocate()
FUNC 4620c 8c 0 std::__ndk1::__function::__func<Tab2::init()::$_17, std::__ndk1::allocator<Tab2::init()::$_17>, void (std::__ndk1::basic_string<char, std::__ndk1::char_traits<char>, std::__ndk1::allocator<char> > const&)>::operator()(std::__ndk1::basic_string<char, std::__ndk1::char_traits<char>, std::__ndk1::allocator<char> > const&)
FUNC 46298 1c 0 std::__ndk1::__function::__func<Tab2::init()::$_17, std::__ndk1::allocator<Tab2::init()::$_17>, void (std::__ndk1::basic_string<char, std::__ndk1::char_traits<char>, std::__ndk1::allocator<char> > const&)>::target(std::type_info const&) const
FUNC 462b4 c 0 std::__ndk1::__function::__func<Tab2::init()::$_17, std::__ndk1::allocator<Tab2::init()::$_17>, void (std::__ndk1::basic_string<char, std::__ndk1::char_traits<char>, std::__ndk1::allocator<char> > const&)>::target_type() const
FUNC 462c0 4 0 std::__ndk1::__function::__func<Tab2::init()::$_18, std::__ndk1::allocator<Tab2::init()::$_18>, void (std::__ndk1::basic_string<char, std::__ndk1::char_traits<char>, std::__ndk1::allocator<char> > const&)>::~__func()
FUNC 462c4 34 0 std::__ndk1::__function::__func<Tab2::init()::$_18, std::__ndk1::allocator<Tab2::init()::$_18>, void (std::__ndk1::basic_string<char, std::__ndk1::char_traits<char>, std::__ndk1::allocator<char> > const&)>::__clone() const
FUNC 462f8 14 0 std::__ndk1::__function::__func<Tab2::init()::$_18, std::__ndk1::allocator<Tab2::init()::$_18>, void (std::__ndk1::basic_string<char, std::__ndk1::char_traits<char>, std::__ndk1::allocator<char> > const&)>::__clone(std::__ndk1::__function::__base<void (std::__ndk1::basic_string<char, std::__ndk1::char_traits<char>, std::__ndk1::allocator<char> > const&)>*) const
FUNC 4630c 4 0 std::__ndk1::__function::__func<Tab2::init()::$_18, std::__ndk1::allocator<Tab2::init()::$_18>, void (std::__ndk1::basic_string<char, std::__ndk1::char_traits<char>, std::__ndk1::allocator<char> > const&)>::destroy()
FUNC 46310 4 0 std::__ndk1::__function::__func<Tab2::init()::$_18, std::__ndk1::allocator<Tab2::init()::$_18>, void (std::__ndk1::basic_string<char, std::__ndk1::char_traits<char>, std::__ndk1::allocator<char> > const&)>::destroy_deallocate()
FUNC 46314 8c 0 std::__ndk1::__function::__func<Tab2::init()::$_18, std::__ndk1::allocator<Tab2::init()::$_18>, void (std::__ndk1::basic_string<char, std::__ndk1::char_traits<char>, std::__ndk1::allocator<char> > const&)>::operator()(std::__ndk1::basic_string<char, std::__ndk1::char_traits<char>, std::__ndk1::allocator<char> > const&)
FUNC 463a0 1c 0 std::__ndk1::__function::__func<Tab2::init()::$_18, std::__ndk1::allocator<Tab2::init()::$_18>, void (std::__ndk1::basic_string<char, std::__ndk1::char_traits<char>, std::__ndk1::allocator<char> > const&)>::target(std::type_info const&) const
FUNC 463bc c 0 std::__ndk1::__function::__func<Tab2::init()::$_18, std::__ndk1::allocator<Tab2::init()::$_18>, void (std::__ndk1::basic_string<char, std::__ndk1::char_traits<char>, std::__ndk1::allocator<char> > const&)>::target_type() const
FUNC 463c8 4 0 std::__ndk1::__function::__func<Tab2::init()::$_19, std::__ndk1::allocator<Tab2::init()::$_19>, void (std::__ndk1::basic_string<char, std::__ndk1::char_traits<char>, std::__ndk1::allocator<char> > const&)>::~__func()
FUNC 463cc 34 0 std::__ndk1::__function::__func<Tab2::init()::$_19, std::__ndk1::allocator<Tab2::init()::$_19>, void (std::__ndk1::basic_string<char, std::__ndk1::char_traits<char>, std::__ndk1::allocator<char> > const&)>::__clone() const
FUNC 46400 14 0 std::__ndk1::__function::__func<Tab2::init()::$_19, std::__ndk1::allocator<Tab2::init()::$_19>, void (std::__ndk1::basic_string<char, std::__ndk1::char_traits<char>, std::__ndk1::allocator<char> > const&)>::__clone(std::__ndk1::__function::__base<void (std::__ndk1::basic_string<char, std::__ndk1::char_traits<char>, std::__ndk1::allocator<char> > const&)>*) const
FUNC 46414 4 0 std::__ndk1::__function::__func<Tab2::init()::$_19, std::__ndk1::allocator<Tab2::init()::$_19>, void (std::__ndk1::basic_string<char, std::__ndk1::char_traits<char>, std::__ndk1::allocator<char> > const&)>::destroy()
FUNC 46418 4 0 std::__ndk1::__function::__func<Tab2::init()::$_19, std::__ndk1::allocator<Tab2::init()::$_19>, void (std::__ndk1::basic_string<char, std::__ndk1::char_traits<char>, std::__ndk1::allocator<char> > const&)>::destroy_deallocate()
FUNC 4641c 8c 0 std::__ndk1::__function::__func<Tab2::init()::$_19, std::__ndk1::allocator<Tab2::init()::$_19>, void (std::__ndk1::basic_string<char, std::__ndk1::char_traits<char>, std::__ndk1::allocator<char> > const&)>::operator()(std::__ndk1::basic_string<char, std::__ndk1::char_traits<char>, std::__ndk1::allocator<char> > const&)
FUNC 464a8 1c 0 std::__ndk1::__function::__func<Tab2::init()::$_19, std::__ndk1::allocator<Tab2::init()::$_19>, void (std::__ndk1::basic_string<char, std::__ndk1::char_traits<char>, std::__ndk1::allocator<char> > const&)>::target(std::type_info const&) const
FUNC 464c4 c 0 std::__ndk1::__function::__func<Tab2::init()::$_19, std::__ndk1::allocator<Tab2::init()::$_19>, void (std::__ndk1::basic_string<char, std::__ndk1::char_traits<char>, std::__ndk1::allocator<char> > const&)>::target_type() const
FUNC 464d0 2af4 0 Tab3::init()
FUNC 48fc4 b8 0 Tab3::SaveCheckbox(cocos2d::CCObject*)
FUNC 4907c b8 0 Tab3::SaveCheckbox2(cocos2d::CCObject*)
FUNC 49134 b8 0 Tab3::SaveCheckbox3(cocos2d::CCObject*)
FUNC 491ec b8 0 Tab3::SaveCheckbox4(cocos2d::CCObject*)
FUNC 492a4 b8 0 Tab3::SaveCheckbox5(cocos2d::CCObject*)
FUNC 4935c b8 0 Tab3::SaveCheckbox6(cocos2d::CCObject*)
FUNC 49414 b8 0 Tab3::SaveCheckbox7(cocos2d::CCObject*)
FUNC 494cc b8 0 Tab3::SaveCheckbox8(cocos2d::CCObject*)
FUNC 49584 b8 0 Tab3::SaveCheckbox9(cocos2d::CCObject*)
FUNC 4963c b8 0 Tab3::SaveCheckbox10(cocos2d::CCObject*)
FUNC 496f4 24 0 Tab3::~Tab3()
FUNC 49718 8 0 {virtual override thunk({offset(-320)}, Tab3::~Tab3())}
FUNC 49720 28 0 {virtual override thunk({offset(-320)}, Tab3::~Tab3())}
FUNC 49748 4 0 std::__ndk1::__function::__func<Tab3::init()::$_0, std::__ndk1::allocator<Tab3::init()::$_0>, void (std::__ndk1::basic_string<char, std::__ndk1::char_traits<char>, std::__ndk1::allocator<char> > const&)>::~__func()
FUNC 4974c 34 0 std::__ndk1::__function::__func<Tab3::init()::$_0, std::__ndk1::allocator<Tab3::init()::$_0>, void (std::__ndk1::basic_string<char, std::__ndk1::char_traits<char>, std::__ndk1::allocator<char> > const&)>::__clone() const
FUNC 49780 14 0 std::__ndk1::__function::__func<Tab3::init()::$_0, std::__ndk1::allocator<Tab3::init()::$_0>, void (std::__ndk1::basic_string<char, std::__ndk1::char_traits<char>, std::__ndk1::allocator<char> > const&)>::__clone(std::__ndk1::__function::__base<void (std::__ndk1::basic_string<char, std::__ndk1::char_traits<char>, std::__ndk1::allocator<char> > const&)>*) const
FUNC 49794 4 0 std::__ndk1::__function::__func<Tab3::init()::$_0, std::__ndk1::allocator<Tab3::init()::$_0>, void (std::__ndk1::basic_string<char, std::__ndk1::char_traits<char>, std::__ndk1::allocator<char> > const&)>::destroy()
FUNC 49798 4 0 std::__ndk1::__function::__func<Tab3::init()::$_0, std::__ndk1::allocator<Tab3::init()::$_0>, void (std::__ndk1::basic_string<char, std::__ndk1::char_traits<char>, std::__ndk1::allocator<char> > const&)>::destroy_deallocate()
FUNC 4979c 8c 0 std::__ndk1::__function::__func<Tab3::init()::$_0, std::__ndk1::allocator<Tab3::init()::$_0>, void (std::__ndk1::basic_string<char, std::__ndk1::char_traits<char>, std::__ndk1::allocator<char> > const&)>::operator()(std::__ndk1::basic_string<char, std::__ndk1::char_traits<char>, std::__ndk1::allocator<char> > const&)
FUNC 49828 1c 0 std::__ndk1::__function::__func<Tab3::init()::$_0, std::__ndk1::allocator<Tab3::init()::$_0>, void (std::__ndk1::basic_string<char, std::__ndk1::char_traits<char>, std::__ndk1::allocator<char> > const&)>::target(std::type_info const&) const
FUNC 49844 c 0 std::__ndk1::__function::__func<Tab3::init()::$_0, std::__ndk1::allocator<Tab3::init()::$_0>, void (std::__ndk1::basic_string<char, std::__ndk1::char_traits<char>, std::__ndk1::allocator<char> > const&)>::target_type() const
FUNC 49850 4 0 std::__ndk1::__function::__func<Tab3::init()::$_1, std::__ndk1::allocator<Tab3::init()::$_1>, void (std::__ndk1::basic_string<char, std::__ndk1::char_traits<char>, std::__ndk1::allocator<char> > const&)>::~__func()
FUNC 49854 34 0 std::__ndk1::__function::__func<Tab3::init()::$_1, std::__ndk1::allocator<Tab3::init()::$_1>, void (std::__ndk1::basic_string<char, std::__ndk1::char_traits<char>, std::__ndk1::allocator<char> > const&)>::__clone() const
FUNC 49888 14 0 std::__ndk1::__function::__func<Tab3::init()::$_1, std::__ndk1::allocator<Tab3::init()::$_1>, void (std::__ndk1::basic_string<char, std::__ndk1::char_traits<char>, std::__ndk1::allocator<char> > const&)>::__clone(std::__ndk1::__function::__base<void (std::__ndk1::basic_string<char, std::__ndk1::char_traits<char>, std::__ndk1::allocator<char> > const&)>*) const
FUNC 4989c 4 0 std::__ndk1::__function::__func<Tab3::init()::$_1, std::__ndk1::allocator<Tab3::init()::$_1>, void (std::__ndk1::basic_string<char, std::__ndk1::char_traits<char>, std::__ndk1::allocator<char> > const&)>::destroy()
FUNC 498a0 4 0 std::__ndk1::__function::__func<Tab3::init()::$_1, std::__ndk1::allocator<Tab3::init()::$_1>, void (std::__ndk1::basic_string<char, std::__ndk1::char_traits<char>, std::__ndk1::allocator<char> > const&)>::destroy_deallocate()
FUNC 498a4 8c 0 std::__ndk1::__function::__func<Tab3::init()::$_1, std::__ndk1::allocator<Tab3::init()::$_1>, void (std::__ndk1::basic_string<char, std::__ndk1::char_traits<char>, std::__ndk1::allocator<char> > const&)>::operator()(std::__ndk1::basic_string<char, std::__ndk1::char_traits<char>, std::__ndk1::allocator<char> > const&)
FUNC 49930 1c 0 std::__ndk1::__function::__func<Tab3::init()::$_1, std::__ndk1::allocator<Tab3::init()::$_1>, void (std::__ndk1::basic_string<char, std::__ndk1::char_traits<char>, std::__ndk1::allocator<char> > const&)>::target(std::type_info const&) const
FUNC 4994c c 0 std::__ndk1::__function::__func<Tab3::init()::$_1, std::__ndk1::allocator<Tab3::init()::$_1>, void (std::__ndk1::basic_string<char, std::__ndk1::char_traits<char>, std::__ndk1::allocator<char> > const&)>::target_type() const
FUNC 49958 4 0 std::__ndk1::__function::__func<Tab3::init()::$_2, std::__ndk1::allocator<Tab3::init()::$_2>, void (std::__ndk1::basic_string<char, std::__ndk1::char_traits<char>, std::__ndk1::allocator<char> > const&)>::~__func()
FUNC 4995c 34 0 std::__ndk1::__function::__func<Tab3::init()::$_2, std::__ndk1::allocator<Tab3::init()::$_2>, void (std::__ndk1::basic_string<char, std::__ndk1::char_traits<char>, std::__ndk1::allocator<char> > const&)>::__clone() const
FUNC 49990 14 0 std::__ndk1::__function::__func<Tab3::init()::$_2, std::__ndk1::allocator<Tab3::init()::$_2>, void (std::__ndk1::basic_string<char, std::__ndk1::char_traits<char>, std::__ndk1::allocator<char> > const&)>::__clone(std::__ndk1::__function::__base<void (std::__ndk1::basic_string<char, std::__ndk1::char_traits<char>, std::__ndk1::allocator<char> > const&)>*) const
FUNC 499a4 4 0 std::__ndk1::__function::__func<Tab3::init()::$_2, std::__ndk1::allocator<Tab3::init()::$_2>, void (std::__ndk1::basic_string<char, std::__ndk1::char_traits<char>, std::__ndk1::allocator<char> > const&)>::destroy()
FUNC 499a8 4 0 std::__ndk1::__function::__func<Tab3::init()::$_2, std::__ndk1::allocator<Tab3::init()::$_2>, void (std::__ndk1::basic_string<char, std::__ndk1::char_traits<char>, std::__ndk1::allocator<char> > const&)>::destroy_deallocate()
FUNC 499ac 8c 0 std::__ndk1::__function::__func<Tab3::init()::$_2, std::__ndk1::allocator<Tab3::init()::$_2>, void (std::__ndk1::basic_string<char, std::__ndk1::char_traits<char>, std::__ndk1::allocator<char> > const&)>::operator()(std::__ndk1::basic_string<char, std::__ndk1::char_traits<char>, std::__ndk1::allocator<char> > const&)
FUNC 49a38 1c 0 std::__ndk1::__function::__func<Tab3::init()::$_2, std::__ndk1::allocator<Tab3::init()::$_2>, void (std::__ndk1::basic_string<char, std::__ndk1::char_traits<char>, std::__ndk1::allocator<char> > const&)>::target(std::type_info const&) const
FUNC 49a54 c 0 std::__ndk1::__function::__func<Tab3::init()::$_2, std::__ndk1::allocator<Tab3::init()::$_2>, void (std::__ndk1::basic_string<char, std::__ndk1::char_traits<char>, std::__ndk1::allocator<char> > const&)>::target_type() const
FUNC 49a60 4 0 std::__ndk1::__function::__func<Tab3::init()::$_3, std::__ndk1::allocator<Tab3::init()::$_3>, void (std::__ndk1::basic_string<char, std::__ndk1::char_traits<char>, std::__ndk1::allocator<char> > const&)>::~__func()
FUNC 49a64 34 0 std::__ndk1::__function::__func<Tab3::init()::$_3, std::__ndk1::allocator<Tab3::init()::$_3>, void (std::__ndk1::basic_string<char, std::__ndk1::char_traits<char>, std::__ndk1::allocator<char> > const&)>::__clone() const
FUNC 49a98 14 0 std::__ndk1::__function::__func<Tab3::init()::$_3, std::__ndk1::allocator<Tab3::init()::$_3>, void (std::__ndk1::basic_string<char, std::__ndk1::char_traits<char>, std::__ndk1::allocator<char> > const&)>::__clone(std::__ndk1::__function::__base<void (std::__ndk1::basic_string<char, std::__ndk1::char_traits<char>, std::__ndk1::allocator<char> > const&)>*) const
FUNC 49aac 4 0 std::__ndk1::__function::__func<Tab3::init()::$_3, std::__ndk1::allocator<Tab3::init()::$_3>, void (std::__ndk1::basic_string<char, std::__ndk1::char_traits<char>, std::__ndk1::allocator<char> > const&)>::destroy()
FUNC 49ab0 4 0 std::__ndk1::__function::__func<Tab3::init()::$_3, std::__ndk1::allocator<Tab3::init()::$_3>, void (std::__ndk1::basic_string<char, std::__ndk1::char_traits<char>, std::__ndk1::allocator<char> > const&)>::destroy_deallocate()
FUNC 49ab4 8c 0 std::__ndk1::__function::__func<Tab3::init()::$_3, std::__ndk1::allocator<Tab3::init()::$_3>, void (std::__ndk1::basic_string<char, std::__ndk1::char_traits<char>, std::__ndk1::allocator<char> > const&)>::operator()(std::__ndk1::basic_string<char, std::__ndk1::char_traits<char>, std::__ndk1::allocator<char> > const&)
FUNC 49b40 1c 0 std::__ndk1::__function::__func<Tab3::init()::$_3, std::__ndk1::allocator<Tab3::init()::$_3>, void (std::__ndk1::basic_string<char, std::__ndk1::char_traits<char>, std::__ndk1::allocator<char> > const&)>::target(std::type_info const&) const
FUNC 49b5c c 0 std::__ndk1::__function::__func<Tab3::init()::$_3, std::__ndk1::allocator<Tab3::init()::$_3>, void (std::__ndk1::basic_string<char, std::__ndk1::char_traits<char>, std::__ndk1::allocator<char> > const&)>::target_type() const
FUNC 49b68 4 0 std::__ndk1::__function::__func<Tab3::init()::$_4, std::__ndk1::allocator<Tab3::init()::$_4>, void (std::__ndk1::basic_string<char, std::__ndk1::char_traits<char>, std::__ndk1::allocator<char> > const&)>::~__func()
FUNC 49b6c 34 0 std::__ndk1::__function::__func<Tab3::init()::$_4, std::__ndk1::allocator<Tab3::init()::$_4>, void (std::__ndk1::basic_string<char, std::__ndk1::char_traits<char>, std::__ndk1::allocator<char> > const&)>::__clone() const
FUNC 49ba0 14 0 std::__ndk1::__function::__func<Tab3::init()::$_4, std::__ndk1::allocator<Tab3::init()::$_4>, void (std::__ndk1::basic_string<char, std::__ndk1::char_traits<char>, std::__ndk1::allocator<char> > const&)>::__clone(std::__ndk1::__function::__base<void (std::__ndk1::basic_string<char, std::__ndk1::char_traits<char>, std::__ndk1::allocator<char> > const&)>*) const
FUNC 49bb4 4 0 std::__ndk1::__function::__func<Tab3::init()::$_4, std::__ndk1::allocator<Tab3::init()::$_4>, void (std::__ndk1::basic_string<char, std::__ndk1::char_traits<char>, std::__ndk1::allocator<char> > const&)>::destroy()
FUNC 49bb8 4 0 std::__ndk1::__function::__func<Tab3::init()::$_4, std::__ndk1::allocator<Tab3::init()::$_4>, void (std::__ndk1::basic_string<char, std::__ndk1::char_traits<char>, std::__ndk1::allocator<char> > const&)>::destroy_deallocate()
FUNC 49bbc 8c 0 std::__ndk1::__function::__func<Tab3::init()::$_4, std::__ndk1::allocator<Tab3::init()::$_4>, void (std::__ndk1::basic_string<char, std::__ndk1::char_traits<char>, std::__ndk1::allocator<char> > const&)>::operator()(std::__ndk1::basic_string<char, std::__ndk1::char_traits<char>, std::__ndk1::allocator<char> > const&)
FUNC 49c48 1c 0 std::__ndk1::__function::__func<Tab3::init()::$_4, std::__ndk1::allocator<Tab3::init()::$_4>, void (std::__ndk1::basic_string<char, std::__ndk1::char_traits<char>, std::__ndk1::allocator<char> > const&)>::target(std::type_info const&) const
FUNC 49c64 c 0 std::__ndk1::__function::__func<Tab3::init()::$_4, std::__ndk1::allocator<Tab3::init()::$_4>, void (std::__ndk1::basic_string<char, std::__ndk1::char_traits<char>, std::__ndk1::allocator<char> > const&)>::target_type() const
FUNC 49c70 4 0 std::__ndk1::__function::__func<Tab3::init()::$_5, std::__ndk1::allocator<Tab3::init()::$_5>, void (std::__ndk1::basic_string<char, std::__ndk1::char_traits<char>, std::__ndk1::allocator<char> > const&)>::~__func()
FUNC 49c74 34 0 std::__ndk1::__function::__func<Tab3::init()::$_5, std::__ndk1::allocator<Tab3::init()::$_5>, void (std::__ndk1::basic_string<char, std::__ndk1::char_traits<char>, std::__ndk1::allocator<char> > const&)>::__clone() const
FUNC 49ca8 14 0 std::__ndk1::__function::__func<Tab3::init()::$_5, std::__ndk1::allocator<Tab3::init()::$_5>, void (std::__ndk1::basic_string<char, std::__ndk1::char_traits<char>, std::__ndk1::allocator<char> > const&)>::__clone(std::__ndk1::__function::__base<void (std::__ndk1::basic_string<char, std::__ndk1::char_traits<char>, std::__ndk1::allocator<char> > const&)>*) const
FUNC 49cbc 4 0 std::__ndk1::__function::__func<Tab3::init()::$_5, std::__ndk1::allocator<Tab3::init()::$_5>, void (std::__ndk1::basic_string<char, std::__ndk1::char_traits<char>, std::__ndk1::allocator<char> > const&)>::destroy()
FUNC 49cc0 4 0 std::__ndk1::__function::__func<Tab3::init()::$_5, std::__ndk1::allocator<Tab3::init()::$_5>, void (std::__ndk1::basic_string<char, std::__ndk1::char_traits<char>, std::__ndk1::allocator<char> > const&)>::destroy_deallocate()
FUNC 49cc4 8c 0 std::__ndk1::__function::__func<Tab3::init()::$_5, std::__ndk1::allocator<Tab3::init()::$_5>, void (std::__ndk1::basic_string<char, std::__ndk1::char_traits<char>, std::__ndk1::allocator<char> > const&)>::operator()(std::__ndk1::basic_string<char, std::__ndk1::char_traits<char>, std::__ndk1::allocator<char> > const&)
FUNC 49d50 1c 0 std::__ndk1::__function::__func<Tab3::init()::$_5, std::__ndk1::allocator<Tab3::init()::$_5>, void (std::__ndk1::basic_string<char, std::__ndk1::char_traits<char>, std::__ndk1::allocator<char> > const&)>::target(std::type_info const&) const
FUNC 49d6c c 0 std::__ndk1::__function::__func<Tab3::init()::$_5, std::__ndk1::allocator<Tab3::init()::$_5>, void (std::__ndk1::basic_string<char, std::__ndk1::char_traits<char>, std::__ndk1::allocator<char> > const&)>::target_type() const
FUNC 49d78 4 0 std::__ndk1::__function::__func<Tab3::init()::$_6, std::__ndk1::allocator<Tab3::init()::$_6>, void (std::__ndk1::basic_string<char, std::__ndk1::char_traits<char>, std::__ndk1::allocator<char> > const&)>::~__func()
FUNC 49d7c 34 0 std::__ndk1::__function::__func<Tab3::init()::$_6, std::__ndk1::allocator<Tab3::init()::$_6>, void (std::__ndk1::basic_string<char, std::__ndk1::char_traits<char>, std::__ndk1::allocator<char> > const&)>::__clone() const
FUNC 49db0 14 0 std::__ndk1::__function::__func<Tab3::init()::$_6, std::__ndk1::allocator<Tab3::init()::$_6>, void (std::__ndk1::basic_string<char, std::__ndk1::char_traits<char>, std::__ndk1::allocator<char> > const&)>::__clone(std::__ndk1::__function::__base<void (std::__ndk1::basic_string<char, std::__ndk1::char_traits<char>, std::__ndk1::allocator<char> > const&)>*) const
FUNC 49dc4 4 0 std::__ndk1::__function::__func<Tab3::init()::$_6, std::__ndk1::allocator<Tab3::init()::$_6>, void (std::__ndk1::basic_string<char, std::__ndk1::char_traits<char>, std::__ndk1::allocator<char> > const&)>::destroy()
FUNC 49dc8 4 0 std::__ndk1::__function::__func<Tab3::init()::$_6, std::__ndk1::allocator<Tab3::init()::$_6>, void (std::__ndk1::basic_string<char, std::__ndk1::char_traits<char>, std::__ndk1::allocator<char> > const&)>::destroy_deallocate()
FUNC 49dcc 8c 0 std::__ndk1::__function::__func<Tab3::init()::$_6, std::__ndk1::allocator<Tab3::init()::$_6>, void (std::__ndk1::basic_string<char, std::__ndk1::char_traits<char>, std::__ndk1::allocator<char> > const&)>::operator()(std::__ndk1::basic_string<char, std::__ndk1::char_traits<char>, std::__ndk1::allocator<char> > const&)
FUNC 49e58 1c 0 std::__ndk1::__function::__func<Tab3::init()::$_6, std::__ndk1::allocator<Tab3::init()::$_6>, void (std::__ndk1::basic_string<char, std::__ndk1::char_traits<char>, std::__ndk1::allocator<char> > const&)>::target(std::type_info const&) const
FUNC 49e74 c 0 std::__ndk1::__function::__func<Tab3::init()::$_6, std::__ndk1::allocator<Tab3::init()::$_6>, void (std::__ndk1::basic_string<char, std::__ndk1::char_traits<char>, std::__ndk1::allocator<char> > const&)>::target_type() const
FUNC 49e80 4 0 std::__ndk1::__function::__func<Tab3::init()::$_7, std::__ndk1::allocator<Tab3::init()::$_7>, void (std::__ndk1::basic_string<char, std::__ndk1::char_traits<char>, std::__ndk1::allocator<char> > const&)>::~__func()
FUNC 49e84 34 0 std::__ndk1::__function::__func<Tab3::init()::$_7, std::__ndk1::allocator<Tab3::init()::$_7>, void (std::__ndk1::basic_string<char, std::__ndk1::char_traits<char>, std::__ndk1::allocator<char> > const&)>::__clone() const
FUNC 49eb8 14 0 std::__ndk1::__function::__func<Tab3::init()::$_7, std::__ndk1::allocator<Tab3::init()::$_7>, void (std::__ndk1::basic_string<char, std::__ndk1::char_traits<char>, std::__ndk1::allocator<char> > const&)>::__clone(std::__ndk1::__function::__base<void (std::__ndk1::basic_string<char, std::__ndk1::char_traits<char>, std::__ndk1::allocator<char> > const&)>*) const
FUNC 49ecc 4 0 std::__ndk1::__function::__func<Tab3::init()::$_7, std::__ndk1::allocator<Tab3::init()::$_7>, void (std::__ndk1::basic_string<char, std::__ndk1::char_traits<char>, std::__ndk1::allocator<char> > const&)>::destroy()
FUNC 49ed0 4 0 std::__ndk1::__function::__func<Tab3::init()::$_7, std::__ndk1::allocator<Tab3::init()::$_7>, void (std::__ndk1::basic_string<char, std::__ndk1::char_traits<char>, std::__ndk1::allocator<char> > const&)>::destroy_deallocate()
FUNC 49ed4 8c 0 std::__ndk1::__function::__func<Tab3::init()::$_7, std::__ndk1::allocator<Tab3::init()::$_7>, void (std::__ndk1::basic_string<char, std::__ndk1::char_traits<char>, std::__ndk1::allocator<char> > const&)>::operator()(std::__ndk1::basic_string<char, std::__ndk1::char_traits<char>, std::__ndk1::allocator<char> > const&)
FUNC 49f60 1c 0 std::__ndk1::__function::__func<Tab3::init()::$_7, std::__ndk1::allocator<Tab3::init()::$_7>, void (std::__ndk1::basic_string<char, std::__ndk1::char_traits<char>, std::__ndk1::allocator<char> > const&)>::target(std::type_info const&) const
FUNC 49f7c c 0 std::__ndk1::__function::__func<Tab3::init()::$_7, std::__ndk1::allocator<Tab3::init()::$_7>, void (std::__ndk1::basic_string<char, std::__ndk1::char_traits<char>, std::__ndk1::allocator<char> > const&)>::target_type() const
FUNC 49f88 4 0 std::__ndk1::__function::__func<Tab3::init()::$_8, std::__ndk1::allocator<Tab3::init()::$_8>, void (std::__ndk1::basic_string<char, std::__ndk1::char_traits<char>, std::__ndk1::allocator<char> > const&)>::~__func()
FUNC 49f8c 34 0 std::__ndk1::__function::__func<Tab3::init()::$_8, std::__ndk1::allocator<Tab3::init()::$_8>, void (std::__ndk1::basic_string<char, std::__ndk1::char_traits<char>, std::__ndk1::allocator<char> > const&)>::__clone() const
FUNC 49fc0 14 0 std::__ndk1::__function::__func<Tab3::init()::$_8, std::__ndk1::allocator<Tab3::init()::$_8>, void (std::__ndk1::basic_string<char, std::__ndk1::char_traits<char>, std::__ndk1::allocator<char> > const&)>::__clone(std::__ndk1::__function::__base<void (std::__ndk1::basic_string<char, std::__ndk1::char_traits<char>, std::__ndk1::allocator<char> > const&)>*) const
FUNC 49fd4 4 0 std::__ndk1::__function::__func<Tab3::init()::$_8, std::__ndk1::allocator<Tab3::init()::$_8>, void (std::__ndk1::basic_string<char, std::__ndk1::char_traits<char>, std::__ndk1::allocator<char> > const&)>::destroy()
FUNC 49fd8 4 0 std::__ndk1::__function::__func<Tab3::init()::$_8, std::__ndk1::allocator<Tab3::init()::$_8>, void (std::__ndk1::basic_string<char, std::__ndk1::char_traits<char>, std::__ndk1::allocator<char> > const&)>::destroy_deallocate()
FUNC 49fdc 8c 0 std::__ndk1::__function::__func<Tab3::init()::$_8, std::__ndk1::allocator<Tab3::init()::$_8>, void (std::__ndk1::basic_string<char, std::__ndk1::char_traits<char>, std::__ndk1::allocator<char> > const&)>::operator()(std::__ndk1::basic_string<char, std::__ndk1::char_traits<char>, std::__ndk1::allocator<char> > const&)
FUNC 4a068 1c 0 std::__ndk1::__function::__func<Tab3::init()::$_8, std::__ndk1::allocator<Tab3::init()::$_8>, void (std::__ndk1::basic_string<char, std::__ndk1::char_traits<char>, std::__ndk1::allocator<char> > const&)>::target(std::type_info const&) const
FUNC 4a084 c 0 std::__ndk1::__function::__func<Tab3::init()::$_8, std::__ndk1::allocator<Tab3::init()::$_8>, void (std::__ndk1::basic_string<char, std::__ndk1::char_traits<char>, std::__ndk1::allocator<char> > const&)>::target_type() const
FUNC 4a090 4 0 std::__ndk1::__function::__func<Tab3::init()::$_9, std::__ndk1::allocator<Tab3::init()::$_9>, void (std::__ndk1::basic_string<char, std::__ndk1::char_traits<char>, std::__ndk1::allocator<char> > const&)>::~__func()
FUNC 4a094 34 0 std::__ndk1::__function::__func<Tab3::init()::$_9, std::__ndk1::allocator<Tab3::init()::$_9>, void (std::__ndk1::basic_string<char, std::__ndk1::char_traits<char>, std::__ndk1::allocator<char> > const&)>::__clone() const
FUNC 4a0c8 14 0 std::__ndk1::__function::__func<Tab3::init()::$_9, std::__ndk1::allocator<Tab3::init()::$_9>, void (std::__ndk1::basic_string<char, std::__ndk1::char_traits<char>, std::__ndk1::allocator<char> > const&)>::__clone(std::__ndk1::__function::__base<void (std::__ndk1::basic_string<char, std::__ndk1::char_traits<char>, std::__ndk1::allocator<char> > const&)>*) const
FUNC 4a0dc 4 0 std::__ndk1::__function::__func<Tab3::init()::$_9, std::__ndk1::allocator<Tab3::init()::$_9>, void (std::__ndk1::basic_string<char, std::__ndk1::char_traits<char>, std::__ndk1::allocator<char> > const&)>::destroy()
FUNC 4a0e0 4 0 std::__ndk1::__function::__func<Tab3::init()::$_9, std::__ndk1::allocator<Tab3::init()::$_9>, void (std::__ndk1::basic_string<char, std::__ndk1::char_traits<char>, std::__ndk1::allocator<char> > const&)>::destroy_deallocate()
FUNC 4a0e4 8c 0 std::__ndk1::__function::__func<Tab3::init()::$_9, std::__ndk1::allocator<Tab3::init()::$_9>, void (std::__ndk1::basic_string<char, std::__ndk1::char_traits<char>, std::__ndk1::allocator<char> > const&)>::operator()(std::__ndk1::basic_string<char, std::__ndk1::char_traits<char>, std::__ndk1::allocator<char> > const&)
FUNC 4a170 1c 0 std::__ndk1::__function::__func<Tab3::init()::$_9, std::__ndk1::allocator<Tab3::init()::$_9>, void (std::__ndk1::basic_string<char, std::__ndk1::char_traits<char>, std::__ndk1::allocator<char> > const&)>::target(std::type_info const&) const
FUNC 4a18c c 0 std::__ndk1::__function::__func<Tab3::init()::$_9, std::__ndk1::allocator<Tab3::init()::$_9>, void (std::__ndk1::basic_string<char, std::__ndk1::char_traits<char>, std::__ndk1::allocator<char> > const&)>::target_type() const
FUNC 4a198 4 0 std::__ndk1::__function::__func<Tab3::init()::$_10, std::__ndk1::allocator<Tab3::init()::$_10>, void (std::__ndk1::basic_string<char, std::__ndk1::char_traits<char>, std::__ndk1::allocator<char> > const&)>::~__func()
FUNC 4a19c 34 0 std::__ndk1::__function::__func<Tab3::init()::$_10, std::__ndk1::allocator<Tab3::init()::$_10>, void (std::__ndk1::basic_string<char, std::__ndk1::char_traits<char>, std::__ndk1::allocator<char> > const&)>::__clone() const
FUNC 4a1d0 14 0 std::__ndk1::__function::__func<Tab3::init()::$_10, std::__ndk1::allocator<Tab3::init()::$_10>, void (std::__ndk1::basic_string<char, std::__ndk1::char_traits<char>, std::__ndk1::allocator<char> > const&)>::__clone(std::__ndk1::__function::__base<void (std::__ndk1::basic_string<char, std::__ndk1::char_traits<char>, std::__ndk1::allocator<char> > const&)>*) const
FUNC 4a1e4 4 0 std::__ndk1::__function::__func<Tab3::init()::$_10, std::__ndk1::allocator<Tab3::init()::$_10>, void (std::__ndk1::basic_string<char, std::__ndk1::char_traits<char>, std::__ndk1::allocator<char> > const&)>::destroy()
FUNC 4a1e8 4 0 std::__ndk1::__function::__func<Tab3::init()::$_10, std::__ndk1::allocator<Tab3::init()::$_10>, void (std::__ndk1::basic_string<char, std::__ndk1::char_traits<char>, std::__ndk1::allocator<char> > const&)>::destroy_deallocate()
FUNC 4a1ec 8c 0 std::__ndk1::__function::__func<Tab3::init()::$_10, std::__ndk1::allocator<Tab3::init()::$_10>, void (std::__ndk1::basic_string<char, std::__ndk1::char_traits<char>, std::__ndk1::allocator<char> > const&)>::operator()(std::__ndk1::basic_string<char, std::__ndk1::char_traits<char>, std::__ndk1::allocator<char> > const&)
FUNC 4a278 1c 0 std::__ndk1::__function::__func<Tab3::init()::$_10, std::__ndk1::allocator<Tab3::init()::$_10>, void (std::__ndk1::basic_string<char, std::__ndk1::char_traits<char>, std::__ndk1::allocator<char> > const&)>::target(std::type_info const&) const
FUNC 4a294 c 0 std::__ndk1::__function::__func<Tab3::init()::$_10, std::__ndk1::allocator<Tab3::init()::$_10>, void (std::__ndk1::basic_string<char, std::__ndk1::char_traits<char>, std::__ndk1::allocator<char> > const&)>::target_type() const
FUNC 4a2a0 4 0 std::__ndk1::__function::__func<Tab3::init()::$_11, std::__ndk1::allocator<Tab3::init()::$_11>, void (std::__ndk1::basic_string<char, std::__ndk1::char_traits<char>, std::__ndk1::allocator<char> > const&)>::~__func()
FUNC 4a2a4 34 0 std::__ndk1::__function::__func<Tab3::init()::$_11, std::__ndk1::allocator<Tab3::init()::$_11>, void (std::__ndk1::basic_string<char, std::__ndk1::char_traits<char>, std::__ndk1::allocator<char> > const&)>::__clone() const
FUNC 4a2d8 14 0 std::__ndk1::__function::__func<Tab3::init()::$_11, std::__ndk1::allocator<Tab3::init()::$_11>, void (std::__ndk1::basic_string<char, std::__ndk1::char_traits<char>, std::__ndk1::allocator<char> > const&)>::__clone(std::__ndk1::__function::__base<void (std::__ndk1::basic_string<char, std::__ndk1::char_traits<char>, std::__ndk1::allocator<char> > const&)>*) const
FUNC 4a2ec 4 0 std::__ndk1::__function::__func<Tab3::init()::$_11, std::__ndk1::allocator<Tab3::init()::$_11>, void (std::__ndk1::basic_string<char, std::__ndk1::char_traits<char>, std::__ndk1::allocator<char> > const&)>::destroy()
FUNC 4a2f0 4 0 std::__ndk1::__function::__func<Tab3::init()::$_11, std::__ndk1::allocator<Tab3::init()::$_11>, void (std::__ndk1::basic_string<char, std::__ndk1::char_traits<char>, std::__ndk1::allocator<char> > const&)>::destroy_deallocate()
FUNC 4a2f4 8c 0 std::__ndk1::__function::__func<Tab3::init()::$_11, std::__ndk1::allocator<Tab3::init()::$_11>, void (std::__ndk1::basic_string<char, std::__ndk1::char_traits<char>, std::__ndk1::allocator<char> > const&)>::operator()(std::__ndk1::basic_string<char, std::__ndk1::char_traits<char>, std::__ndk1::allocator<char> > const&)
FUNC 4a380 1c 0 std::__ndk1::__function::__func<Tab3::init()::$_11, std::__ndk1::allocator<Tab3::init()::$_11>, void (std::__ndk1::basic_string<char, std::__ndk1::char_traits<char>, std::__ndk1::allocator<char> > const&)>::target(std::type_info const&) const
FUNC 4a39c c 0 std::__ndk1::__function::__func<Tab3::init()::$_11, std::__ndk1::allocator<Tab3::init()::$_11>, void (std::__ndk1::basic_string<char, std::__ndk1::char_traits<char>, std::__ndk1::allocator<char> > const&)>::target_type() const
FUNC 4a3a8 4 0 std::__ndk1::__function::__func<Tab3::init()::$_12, std::__ndk1::allocator<Tab3::init()::$_12>, void (std::__ndk1::basic_string<char, std::__ndk1::char_traits<char>, std::__ndk1::allocator<char> > const&)>::~__func()
FUNC 4a3ac 34 0 std::__ndk1::__function::__func<Tab3::init()::$_12, std::__ndk1::allocator<Tab3::init()::$_12>, void (std::__ndk1::basic_string<char, std::__ndk1::char_traits<char>, std::__ndk1::allocator<char> > const&)>::__clone() const
FUNC 4a3e0 14 0 std::__ndk1::__function::__func<Tab3::init()::$_12, std::__ndk1::allocator<Tab3::init()::$_12>, void (std::__ndk1::basic_string<char, std::__ndk1::char_traits<char>, std::__ndk1::allocator<char> > const&)>::__clone(std::__ndk1::__function::__base<void (std::__ndk1::basic_string<char, std::__ndk1::char_traits<char>, std::__ndk1::allocator<char> > const&)>*) const
FUNC 4a3f4 4 0 std::__ndk1::__function::__func<Tab3::init()::$_12, std::__ndk1::allocator<Tab3::init()::$_12>, void (std::__ndk1::basic_string<char, std::__ndk1::char_traits<char>, std::__ndk1::allocator<char> > const&)>::destroy()
FUNC 4a3f8 4 0 std::__ndk1::__function::__func<Tab3::init()::$_12, std::__ndk1::allocator<Tab3::init()::$_12>, void (std::__ndk1::basic_string<char, std::__ndk1::char_traits<char>, std::__ndk1::allocator<char> > const&)>::destroy_deallocate()
FUNC 4a3fc 8c 0 std::__ndk1::__function::__func<Tab3::init()::$_12, std::__ndk1::allocator<Tab3::init()::$_12>, void (std::__ndk1::basic_string<char, std::__ndk1::char_traits<char>, std::__ndk1::allocator<char> > const&)>::operator()(std::__ndk1::basic_string<char, std::__ndk1::char_traits<char>, std::__ndk1::allocator<char> > const&)
FUNC 4a488 1c 0 std::__ndk1::__function::__func<Tab3::init()::$_12, std::__ndk1::allocator<Tab3::init()::$_12>, void (std::__ndk1::basic_string<char, std::__ndk1::char_traits<char>, std::__ndk1::allocator<char> > const&)>::target(std::type_info const&) const
FUNC 4a4a4 c 0 std::__ndk1::__function::__func<Tab3::init()::$_12, std::__ndk1::allocator<Tab3::init()::$_12>, void (std::__ndk1::basic_string<char, std::__ndk1::char_traits<char>, std::__ndk1::allocator<char> > const&)>::target_type() const
FUNC 4a4b0 4 0 std::__ndk1::__function::__func<Tab3::init()::$_13, std::__ndk1::allocator<Tab3::init()::$_13>, void (std::__ndk1::basic_string<char, std::__ndk1::char_traits<char>, std::__ndk1::allocator<char> > const&)>::~__func()
FUNC 4a4b4 34 0 std::__ndk1::__function::__func<Tab3::init()::$_13, std::__ndk1::allocator<Tab3::init()::$_13>, void (std::__ndk1::basic_string<char, std::__ndk1::char_traits<char>, std::__ndk1::allocator<char> > const&)>::__clone() const
FUNC 4a4e8 14 0 std::__ndk1::__function::__func<Tab3::init()::$_13, std::__ndk1::allocator<Tab3::init()::$_13>, void (std::__ndk1::basic_string<char, std::__ndk1::char_traits<char>, std::__ndk1::allocator<char> > const&)>::__clone(std::__ndk1::__function::__base<void (std::__ndk1::basic_string<char, std::__ndk1::char_traits<char>, std::__ndk1::allocator<char> > const&)>*) const
FUNC 4a4fc 4 0 std::__ndk1::__function::__func<Tab3::init()::$_13, std::__ndk1::allocator<Tab3::init()::$_13>, void (std::__ndk1::basic_string<char, std::__ndk1::char_traits<char>, std::__ndk1::allocator<char> > const&)>::destroy()
FUNC 4a500 4 0 std::__ndk1::__function::__func<Tab3::init()::$_13, std::__ndk1::allocator<Tab3::init()::$_13>, void (std::__ndk1::basic_string<char, std::__ndk1::char_traits<char>, std::__ndk1::allocator<char> > const&)>::destroy_deallocate()
FUNC 4a504 8c 0 std::__ndk1::__function::__func<Tab3::init()::$_13, std::__ndk1::allocator<Tab3::init()::$_13>, void (std::__ndk1::basic_string<char, std::__ndk1::char_traits<char>, std::__ndk1::allocator<char> > const&)>::operator()(std::__ndk1::basic_string<char, std::__ndk1::char_traits<char>, std::__ndk1::allocator<char> > const&)
FUNC 4a590 1c 0 std::__ndk1::__function::__func<Tab3::init()::$_13, std::__ndk1::allocator<Tab3::init()::$_13>, void (std::__ndk1::basic_string<char, std::__ndk1::char_traits<char>, std::__ndk1::allocator<char> > const&)>::target(std::type_info const&) const
FUNC 4a5ac c 0 std::__ndk1::__function::__func<Tab3::init()::$_13, std::__ndk1::allocator<Tab3::init()::$_13>, void (std::__ndk1::basic_string<char, std::__ndk1::char_traits<char>, std::__ndk1::allocator<char> > const&)>::target_type() const
FUNC 4a5b8 4 0 std::__ndk1::__function::__func<Tab3::init()::$_14, std::__ndk1::allocator<Tab3::init()::$_14>, void (std::__ndk1::basic_string<char, std::__ndk1::char_traits<char>, std::__ndk1::allocator<char> > const&)>::~__func()
FUNC 4a5bc 34 0 std::__ndk1::__function::__func<Tab3::init()::$_14, std::__ndk1::allocator<Tab3::init()::$_14>, void (std::__ndk1::basic_string<char, std::__ndk1::char_traits<char>, std::__ndk1::allocator<char> > const&)>::__clone() const
FUNC 4a5f0 14 0 std::__ndk1::__function::__func<Tab3::init()::$_14, std::__ndk1::allocator<Tab3::init()::$_14>, void (std::__ndk1::basic_string<char, std::__ndk1::char_traits<char>, std::__ndk1::allocator<char> > const&)>::__clone(std::__ndk1::__function::__base<void (std::__ndk1::basic_string<char, std::__ndk1::char_traits<char>, std::__ndk1::allocator<char> > const&)>*) const
FUNC 4a604 4 0 std::__ndk1::__function::__func<Tab3::init()::$_14, std::__ndk1::allocator<Tab3::init()::$_14>, void (std::__ndk1::basic_string<char, std::__ndk1::char_traits<char>, std::__ndk1::allocator<char> > const&)>::destroy()
FUNC 4a608 4 0 std::__ndk1::__function::__func<Tab3::init()::$_14, std::__ndk1::allocator<Tab3::init()::$_14>, void (std::__ndk1::basic_string<char, std::__ndk1::char_traits<char>, std::__ndk1::allocator<char> > const&)>::destroy_deallocate()
FUNC 4a60c 8c 0 std::__ndk1::__function::__func<Tab3::init()::$_14, std::__ndk1::allocator<Tab3::init()::$_14>, void (std::__ndk1::basic_string<char, std::__ndk1::char_traits<char>, std::__ndk1::allocator<char> > const&)>::operator()(std::__ndk1::basic_string<char, std::__ndk1::char_traits<char>, std::__ndk1::allocator<char> > const&)
FUNC 4a698 1c 0 std::__ndk1::__function::__func<Tab3::init()::$_14, std::__ndk1::allocator<Tab3::init()::$_14>, void (std::__ndk1::basic_string<char, std::__ndk1::char_traits<char>, std::__ndk1::allocator<char> > const&)>::target(std::type_info const&) const
FUNC 4a6b4 c 0 std::__ndk1::__function::__func<Tab3::init()::$_14, std::__ndk1::allocator<Tab3::init()::$_14>, void (std::__ndk1::basic_string<char, std::__ndk1::char_traits<char>, std::__ndk1::allocator<char> > const&)>::target_type() const
FUNC 4a6c0 4 0 std::__ndk1::__function::__func<Tab3::init()::$_15, std::__ndk1::allocator<Tab3::init()::$_15>, void (std::__ndk1::basic_string<char, std::__ndk1::char_traits<char>, std::__ndk1::allocator<char> > const&)>::~__func()
FUNC 4a6c4 34 0 std::__ndk1::__function::__func<Tab3::init()::$_15, std::__ndk1::allocator<Tab3::init()::$_15>, void (std::__ndk1::basic_string<char, std::__ndk1::char_traits<char>, std::__ndk1::allocator<char> > const&)>::__clone() const
FUNC 4a6f8 14 0 std::__ndk1::__function::__func<Tab3::init()::$_15, std::__ndk1::allocator<Tab3::init()::$_15>, void (std::__ndk1::basic_string<char, std::__ndk1::char_traits<char>, std::__ndk1::allocator<char> > const&)>::__clone(std::__ndk1::__function::__base<void (std::__ndk1::basic_string<char, std::__ndk1::char_traits<char>, std::__ndk1::allocator<char> > const&)>*) const
FUNC 4a70c 4 0 std::__ndk1::__function::__func<Tab3::init()::$_15, std::__ndk1::allocator<Tab3::init()::$_15>, void (std::__ndk1::basic_string<char, std::__ndk1::char_traits<char>, std::__ndk1::allocator<char> > const&)>::destroy()
FUNC 4a710 4 0 std::__ndk1::__function::__func<Tab3::init()::$_15, std::__ndk1::allocator<Tab3::init()::$_15>, void (std::__ndk1::basic_string<char, std::__ndk1::char_traits<char>, std::__ndk1::allocator<char> > const&)>::destroy_deallocate()
FUNC 4a714 8c 0 std::__ndk1::__function::__func<Tab3::init()::$_15, std::__ndk1::allocator<Tab3::init()::$_15>, void (std::__ndk1::basic_string<char, std::__ndk1::char_traits<char>, std::__ndk1::allocator<char> > const&)>::operator()(std::__ndk1::basic_string<char, std::__ndk1::char_traits<char>, std::__ndk1::allocator<char> > const&)
FUNC 4a7a0 1c 0 std::__ndk1::__function::__func<Tab3::init()::$_15, std::__ndk1::allocator<Tab3::init()::$_15>, void (std::__ndk1::basic_string<char, std::__ndk1::char_traits<char>, std::__ndk1::allocator<char> > const&)>::target(std::type_info const&) const
FUNC 4a7bc c 0 std::__ndk1::__function::__func<Tab3::init()::$_15, std::__ndk1::allocator<Tab3::init()::$_15>, void (std::__ndk1::basic_string<char, std::__ndk1::char_traits<char>, std::__ndk1::allocator<char> > const&)>::target_type() const
FUNC 4a7c8 4 0 std::__ndk1::__function::__func<Tab3::init()::$_16, std::__ndk1::allocator<Tab3::init()::$_16>, void (std::__ndk1::basic_string<char, std::__ndk1::char_traits<char>, std::__ndk1::allocator<char> > const&)>::~__func()
FUNC 4a7cc 34 0 std::__ndk1::__function::__func<Tab3::init()::$_16, std::__ndk1::allocator<Tab3::init()::$_16>, void (std::__ndk1::basic_string<char, std::__ndk1::char_traits<char>, std::__ndk1::allocator<char> > const&)>::__clone() const
FUNC 4a800 14 0 std::__ndk1::__function::__func<Tab3::init()::$_16, std::__ndk1::allocator<Tab3::init()::$_16>, void (std::__ndk1::basic_string<char, std::__ndk1::char_traits<char>, std::__ndk1::allocator<char> > const&)>::__clone(std::__ndk1::__function::__base<void (std::__ndk1::basic_string<char, std::__ndk1::char_traits<char>, std::__ndk1::allocator<char> > const&)>*) const
FUNC 4a814 4 0 std::__ndk1::__function::__func<Tab3::init()::$_16, std::__ndk1::allocator<Tab3::init()::$_16>, void (std::__ndk1::basic_string<char, std::__ndk1::char_traits<char>, std::__ndk1::allocator<char> > const&)>::destroy()
FUNC 4a818 4 0 std::__ndk1::__function::__func<Tab3::init()::$_16, std::__ndk1::allocator<Tab3::init()::$_16>, void (std::__ndk1::basic_string<char, std::__ndk1::char_traits<char>, std::__ndk1::allocator<char> > const&)>::destroy_deallocate()
FUNC 4a81c 8c 0 std::__ndk1::__function::__func<Tab3::init()::$_16, std::__ndk1::allocator<Tab3::init()::$_16>, void (std::__ndk1::basic_string<char, std::__ndk1::char_traits<char>, std::__ndk1::allocator<char> > const&)>::operator()(std::__ndk1::basic_string<char, std::__ndk1::char_traits<char>, std::__ndk1::allocator<char> > const&)
FUNC 4a8a8 1c 0 std::__ndk1::__function::__func<Tab3::init()::$_16, std::__ndk1::allocator<Tab3::init()::$_16>, void (std::__ndk1::basic_string<char, std::__ndk1::char_traits<char>, std::__ndk1::allocator<char> > const&)>::target(std::type_info const&) const
FUNC 4a8c4 c 0 std::__ndk1::__function::__func<Tab3::init()::$_16, std::__ndk1::allocator<Tab3::init()::$_16>, void (std::__ndk1::basic_string<char, std::__ndk1::char_traits<char>, std::__ndk1::allocator<char> > const&)>::target_type() const
FUNC 4a8d0 4 0 std::__ndk1::__function::__func<Tab3::init()::$_17, std::__ndk1::allocator<Tab3::init()::$_17>, void (std::__ndk1::basic_string<char, std::__ndk1::char_traits<char>, std::__ndk1::allocator<char> > const&)>::~__func()
FUNC 4a8d4 34 0 std::__ndk1::__function::__func<Tab3::init()::$_17, std::__ndk1::allocator<Tab3::init()::$_17>, void (std::__ndk1::basic_string<char, std::__ndk1::char_traits<char>, std::__ndk1::allocator<char> > const&)>::__clone() const
FUNC 4a908 14 0 std::__ndk1::__function::__func<Tab3::init()::$_17, std::__ndk1::allocator<Tab3::init()::$_17>, void (std::__ndk1::basic_string<char, std::__ndk1::char_traits<char>, std::__ndk1::allocator<char> > const&)>::__clone(std::__ndk1::__function::__base<void (std::__ndk1::basic_string<char, std::__ndk1::char_traits<char>, std::__ndk1::allocator<char> > const&)>*) const
FUNC 4a91c 4 0 std::__ndk1::__function::__func<Tab3::init()::$_17, std::__ndk1::allocator<Tab3::init()::$_17>, void (std::__ndk1::basic_string<char, std::__ndk1::char_traits<char>, std::__ndk1::allocator<char> > const&)>::destroy()
FUNC 4a920 4 0 std::__ndk1::__function::__func<Tab3::init()::$_17, std::__ndk1::allocator<Tab3::init()::$_17>, void (std::__ndk1::basic_string<char, std::__ndk1::char_traits<char>, std::__ndk1::allocator<char> > const&)>::destroy_deallocate()
FUNC 4a924 8c 0 std::__ndk1::__function::__func<Tab3::init()::$_17, std::__ndk1::allocator<Tab3::init()::$_17>, void (std::__ndk1::basic_string<char, std::__ndk1::char_traits<char>, std::__ndk1::allocator<char> > const&)>::operator()(std::__ndk1::basic_string<char, std::__ndk1::char_traits<char>, std::__ndk1::allocator<char> > const&)
FUNC 4a9b0 1c 0 std::__ndk1::__function::__func<Tab3::init()::$_17, std::__ndk1::allocator<Tab3::init()::$_17>, void (std::__ndk1::basic_string<char, std::__ndk1::char_traits<char>, std::__ndk1::allocator<char> > const&)>::target(std::type_info const&) const
FUNC 4a9cc c 0 std::__ndk1::__function::__func<Tab3::init()::$_17, std::__ndk1::allocator<Tab3::init()::$_17>, void (std::__ndk1::basic_string<char, std::__ndk1::char_traits<char>, std::__ndk1::allocator<char> > const&)>::target_type() const
FUNC 4a9d8 4 0 std::__ndk1::__function::__func<Tab3::init()::$_18, std::__ndk1::allocator<Tab3::init()::$_18>, void (std::__ndk1::basic_string<char, std::__ndk1::char_traits<char>, std::__ndk1::allocator<char> > const&)>::~__func()
FUNC 4a9dc 34 0 std::__ndk1::__function::__func<Tab3::init()::$_18, std::__ndk1::allocator<Tab3::init()::$_18>, void (std::__ndk1::basic_string<char, std::__ndk1::char_traits<char>, std::__ndk1::allocator<char> > const&)>::__clone() const
FUNC 4aa10 14 0 std::__ndk1::__function::__func<Tab3::init()::$_18, std::__ndk1::allocator<Tab3::init()::$_18>, void (std::__ndk1::basic_string<char, std::__ndk1::char_traits<char>, std::__ndk1::allocator<char> > const&)>::__clone(std::__ndk1::__function::__base<void (std::__ndk1::basic_string<char, std::__ndk1::char_traits<char>, std::__ndk1::allocator<char> > const&)>*) const
FUNC 4aa24 4 0 std::__ndk1::__function::__func<Tab3::init()::$_18, std::__ndk1::allocator<Tab3::init()::$_18>, void (std::__ndk1::basic_string<char, std::__ndk1::char_traits<char>, std::__ndk1::allocator<char> > const&)>::destroy()
FUNC 4aa28 4 0 std::__ndk1::__function::__func<Tab3::init()::$_18, std::__ndk1::allocator<Tab3::init()::$_18>, void (std::__ndk1::basic_string<char, std::__ndk1::char_traits<char>, std::__ndk1::allocator<char> > const&)>::destroy_deallocate()
FUNC 4aa2c 8c 0 std::__ndk1::__function::__func<Tab3::init()::$_18, std::__ndk1::allocator<Tab3::init()::$_18>, void (std::__ndk1::basic_string<char, std::__ndk1::char_traits<char>, std::__ndk1::allocator<char> > const&)>::operator()(std::__ndk1::basic_string<char, std::__ndk1::char_traits<char>, std::__ndk1::allocator<char> > const&)
FUNC 4aab8 1c 0 std::__ndk1::__function::__func<Tab3::init()::$_18, std::__ndk1::allocator<Tab3::init()::$_18>, void (std::__ndk1::basic_string<char, std::__ndk1::char_traits<char>, std::__ndk1::allocator<char> > const&)>::target(std::type_info const&) const
FUNC 4aad4 c 0 std::__ndk1::__function::__func<Tab3::init()::$_18, std::__ndk1::allocator<Tab3::init()::$_18>, void (std::__ndk1::basic_string<char, std::__ndk1::char_traits<char>, std::__ndk1::allocator<char> > const&)>::target_type() const
FUNC 4aae0 4 0 std::__ndk1::__function::__func<Tab3::init()::$_19, std::__ndk1::allocator<Tab3::init()::$_19>, void (std::__ndk1::basic_string<char, std::__ndk1::char_traits<char>, std::__ndk1::allocator<char> > const&)>::~__func()
FUNC 4aae4 34 0 std::__ndk1::__function::__func<Tab3::init()::$_19, std::__ndk1::allocator<Tab3::init()::$_19>, void (std::__ndk1::basic_string<char, std::__ndk1::char_traits<char>, std::__ndk1::allocator<char> > const&)>::__clone() const
FUNC 4ab18 14 0 std::__ndk1::__function::__func<Tab3::init()::$_19, std::__ndk1::allocator<Tab3::init()::$_19>, void (std::__ndk1::basic_string<char, std::__ndk1::char_traits<char>, std::__ndk1::allocator<char> > const&)>::__clone(std::__ndk1::__function::__base<void (std::__ndk1::basic_string<char, std::__ndk1::char_traits<char>, std::__ndk1::allocator<char> > const&)>*) const
FUNC 4ab2c 4 0 std::__ndk1::__function::__func<Tab3::init()::$_19, std::__ndk1::allocator<Tab3::init()::$_19>, void (std::__ndk1::basic_string<char, std::__ndk1::char_traits<char>, std::__ndk1::allocator<char> > const&)>::destroy()
FUNC 4ab30 4 0 std::__ndk1::__function::__func<Tab3::init()::$_19, std::__ndk1::allocator<Tab3::init()::$_19>, void (std::__ndk1::basic_string<char, std::__ndk1::char_traits<char>, std::__ndk1::allocator<char> > const&)>::destroy_deallocate()
FUNC 4ab34 8c 0 std::__ndk1::__function::__func<Tab3::init()::$_19, std::__ndk1::allocator<Tab3::init()::$_19>, void (std::__ndk1::basic_string<char, std::__ndk1::char_traits<char>, std::__ndk1::allocator<char> > const&)>::operator()(std::__ndk1::basic_string<char, std::__ndk1::char_traits<char>, std::__ndk1::allocator<char> > const&)
FUNC 4abc0 1c 0 std::__ndk1::__function::__func<Tab3::init()::$_19, std::__ndk1::allocator<Tab3::init()::$_19>, void (std::__ndk1::basic_string<char, std::__ndk1::char_traits<char>, std::__ndk1::allocator<char> > const&)>::target(std::type_info const&) const
FUNC 4abdc c 0 std::__ndk1::__function::__func<Tab3::init()::$_19, std::__ndk1::allocator<Tab3::init()::$_19>, void (std::__ndk1::basic_string<char, std::__ndk1::char_traits<char>, std::__ndk1::allocator<char> > const&)>::target_type() const
FUNC 4abe8 2af4 0 Tab4::init()
FUNC 4d6dc b8 0 Tab4::SaveCheckbox(cocos2d::CCObject*)
FUNC 4d794 b8 0 Tab4::SaveCheckbox2(cocos2d::CCObject*)
FUNC 4d84c b8 0 Tab4::SaveCheckbox3(cocos2d::CCObject*)
FUNC 4d904 b8 0 Tab4::SaveCheckbox4(cocos2d::CCObject*)
FUNC 4d9bc b8 0 Tab4::SaveCheckbox5(cocos2d::CCObject*)
FUNC 4da74 b8 0 Tab4::SaveCheckbox6(cocos2d::CCObject*)
FUNC 4db2c b8 0 Tab4::SaveCheckbox7(cocos2d::CCObject*)
FUNC 4dbe4 b8 0 Tab4::SaveCheckbox8(cocos2d::CCObject*)
FUNC 4dc9c b8 0 Tab4::SaveCheckbox9(cocos2d::CCObject*)
FUNC 4dd54 b8 0 Tab4::SaveCheckbox10(cocos2d::CCObject*)
FUNC 4de0c 24 0 Tab4::~Tab4()
FUNC 4de30 8 0 {virtual override thunk({offset(-320)}, Tab4::~Tab4())}
FUNC 4de38 28 0 {virtual override thunk({offset(-320)}, Tab4::~Tab4())}
FUNC 4de60 4 0 std::__ndk1::__function::__func<Tab4::init()::$_0, std::__ndk1::allocator<Tab4::init()::$_0>, void (std::__ndk1::basic_string<char, std::__ndk1::char_traits<char>, std::__ndk1::allocator<char> > const&)>::~__func()
FUNC 4de64 34 0 std::__ndk1::__function::__func<Tab4::init()::$_0, std::__ndk1::allocator<Tab4::init()::$_0>, void (std::__ndk1::basic_string<char, std::__ndk1::char_traits<char>, std::__ndk1::allocator<char> > const&)>::__clone() const
FUNC 4de98 14 0 std::__ndk1::__function::__func<Tab4::init()::$_0, std::__ndk1::allocator<Tab4::init()::$_0>, void (std::__ndk1::basic_string<char, std::__ndk1::char_traits<char>, std::__ndk1::allocator<char> > const&)>::__clone(std::__ndk1::__function::__base<void (std::__ndk1::basic_string<char, std::__ndk1::char_traits<char>, std::__ndk1::allocator<char> > const&)>*) const
FUNC 4deac 4 0 std::__ndk1::__function::__func<Tab4::init()::$_0, std::__ndk1::allocator<Tab4::init()::$_0>, void (std::__ndk1::basic_string<char, std::__ndk1::char_traits<char>, std::__ndk1::allocator<char> > const&)>::destroy()
FUNC 4deb0 4 0 std::__ndk1::__function::__func<Tab4::init()::$_0, std::__ndk1::allocator<Tab4::init()::$_0>, void (std::__ndk1::basic_string<char, std::__ndk1::char_traits<char>, std::__ndk1::allocator<char> > const&)>::destroy_deallocate()
FUNC 4deb4 8c 0 std::__ndk1::__function::__func<Tab4::init()::$_0, std::__ndk1::allocator<Tab4::init()::$_0>, void (std::__ndk1::basic_string<char, std::__ndk1::char_traits<char>, std::__ndk1::allocator<char> > const&)>::operator()(std::__ndk1::basic_string<char, std::__ndk1::char_traits<char>, std::__ndk1::allocator<char> > const&)
FUNC 4df40 1c 0 std::__ndk1::__function::__func<Tab4::init()::$_0, std::__ndk1::allocator<Tab4::init()::$_0>, void (std::__ndk1::basic_string<char, std::__ndk1::char_traits<char>, std::__ndk1::allocator<char> > const&)>::target(std::type_info const&) const
FUNC 4df5c c 0 std::__ndk1::__function::__func<Tab4::init()::$_0, std::__ndk1::allocator<Tab4::init()::$_0>, void (std::__ndk1::basic_string<char, std::__ndk1::char_traits<char>, std::__ndk1::allocator<char> > const&)>::target_type() const
FUNC 4df68 4 0 std::__ndk1::__function::__func<Tab4::init()::$_1, std::__ndk1::allocator<Tab4::init()::$_1>, void (std::__ndk1::basic_string<char, std::__ndk1::char_traits<char>, std::__ndk1::allocator<char> > const&)>::~__func()
FUNC 4df6c 34 0 std::__ndk1::__function::__func<Tab4::init()::$_1, std::__ndk1::allocator<Tab4::init()::$_1>, void (std::__ndk1::basic_string<char, std::__ndk1::char_traits<char>, std::__ndk1::allocator<char> > const&)>::__clone() const
FUNC 4dfa0 14 0 std::__ndk1::__function::__func<Tab4::init()::$_1, std::__ndk1::allocator<Tab4::init()::$_1>, void (std::__ndk1::basic_string<char, std::__ndk1::char_traits<char>, std::__ndk1::allocator<char> > const&)>::__clone(std::__ndk1::__function::__base<void (std::__ndk1::basic_string<char, std::__ndk1::char_traits<char>, std::__ndk1::allocator<char> > const&)>*) const
FUNC 4dfb4 4 0 std::__ndk1::__function::__func<Tab4::init()::$_1, std::__ndk1::allocator<Tab4::init()::$_1>, void (std::__ndk1::basic_string<char, std::__ndk1::char_traits<char>, std::__ndk1::allocator<char> > const&)>::destroy()
FUNC 4dfb8 4 0 std::__ndk1::__function::__func<Tab4::init()::$_1, std::__ndk1::allocator<Tab4::init()::$_1>, void (std::__ndk1::basic_string<char, std::__ndk1::char_traits<char>, std::__ndk1::allocator<char> > const&)>::destroy_deallocate()
FUNC 4dfbc 8c 0 std::__ndk1::__function::__func<Tab4::init()::$_1, std::__ndk1::allocator<Tab4::init()::$_1>, void (std::__ndk1::basic_string<char, std::__ndk1::char_traits<char>, std::__ndk1::allocator<char> > const&)>::operator()(std::__ndk1::basic_string<char, std::__ndk1::char_traits<char>, std::__ndk1::allocator<char> > const&)
FUNC 4e048 1c 0 std::__ndk1::__function::__func<Tab4::init()::$_1, std::__ndk1::allocator<Tab4::init()::$_1>, void (std::__ndk1::basic_string<char, std::__ndk1::char_traits<char>, std::__ndk1::allocator<char> > const&)>::target(std::type_info const&) const
FUNC 4e064 c 0 std::__ndk1::__function::__func<Tab4::init()::$_1, std::__ndk1::allocator<Tab4::init()::$_1>, void (std::__ndk1::basic_string<char, std::__ndk1::char_traits<char>, std::__ndk1::allocator<char> > const&)>::target_type() const
FUNC 4e070 4 0 std::__ndk1::__function::__func<Tab4::init()::$_2, std::__ndk1::allocator<Tab4::init()::$_2>, void (std::__ndk1::basic_string<char, std::__ndk1::char_traits<char>, std::__ndk1::allocator<char> > const&)>::~__func()
FUNC 4e074 34 0 std::__ndk1::__function::__func<Tab4::init()::$_2, std::__ndk1::allocator<Tab4::init()::$_2>, void (std::__ndk1::basic_string<char, std::__ndk1::char_traits<char>, std::__ndk1::allocator<char> > const&)>::__clone() const
FUNC 4e0a8 14 0 std::__ndk1::__function::__func<Tab4::init()::$_2, std::__ndk1::allocator<Tab4::init()::$_2>, void (std::__ndk1::basic_string<char, std::__ndk1::char_traits<char>, std::__ndk1::allocator<char> > const&)>::__clone(std::__ndk1::__function::__base<void (std::__ndk1::basic_string<char, std::__ndk1::char_traits<char>, std::__ndk1::allocator<char> > const&)>*) const
FUNC 4e0bc 4 0 std::__ndk1::__function::__func<Tab4::init()::$_2, std::__ndk1::allocator<Tab4::init()::$_2>, void (std::__ndk1::basic_string<char, std::__ndk1::char_traits<char>, std::__ndk1::allocator<char> > const&)>::destroy()
FUNC 4e0c0 4 0 std::__ndk1::__function::__func<Tab4::init()::$_2, std::__ndk1::allocator<Tab4::init()::$_2>, void (std::__ndk1::basic_string<char, std::__ndk1::char_traits<char>, std::__ndk1::allocator<char> > const&)>::destroy_deallocate()
FUNC 4e0c4 8c 0 std::__ndk1::__function::__func<Tab4::init()::$_2, std::__ndk1::allocator<Tab4::init()::$_2>, void (std::__ndk1::basic_string<char, std::__ndk1::char_traits<char>, std::__ndk1::allocator<char> > const&)>::operator()(std::__ndk1::basic_string<char, std::__ndk1::char_traits<char>, std::__ndk1::allocator<char> > const&)
FUNC 4e150 1c 0 std::__ndk1::__function::__func<Tab4::init()::$_2, std::__ndk1::allocator<Tab4::init()::$_2>, void (std::__ndk1::basic_string<char, std::__ndk1::char_traits<char>, std::__ndk1::allocator<char> > const&)>::target(std::type_info const&) const
FUNC 4e16c c 0 std::__ndk1::__function::__func<Tab4::init()::$_2, std::__ndk1::allocator<Tab4::init()::$_2>, void (std::__ndk1::basic_string<char, std::__ndk1::char_traits<char>, std::__ndk1::allocator<char> > const&)>::target_type() const
FUNC 4e178 4 0 std::__ndk1::__function::__func<Tab4::init()::$_3, std::__ndk1::allocator<Tab4::init()::$_3>, void (std::__ndk1::basic_string<char, std::__ndk1::char_traits<char>, std::__ndk1::allocator<char> > const&)>::~__func()
FUNC 4e17c 34 0 std::__ndk1::__function::__func<Tab4::init()::$_3, std::__ndk1::allocator<Tab4::init()::$_3>, void (std::__ndk1::basic_string<char, std::__ndk1::char_traits<char>, std::__ndk1::allocator<char> > const&)>::__clone() const
FUNC 4e1b0 14 0 std::__ndk1::__function::__func<Tab4::init()::$_3, std::__ndk1::allocator<Tab4::init()::$_3>, void (std::__ndk1::basic_string<char, std::__ndk1::char_traits<char>, std::__ndk1::allocator<char> > const&)>::__clone(std::__ndk1::__function::__base<void (std::__ndk1::basic_string<char, std::__ndk1::char_traits<char>, std::__ndk1::allocator<char> > const&)>*) const
FUNC 4e1c4 4 0 std::__ndk1::__function::__func<Tab4::init()::$_3, std::__ndk1::allocator<Tab4::init()::$_3>, void (std::__ndk1::basic_string<char, std::__ndk1::char_traits<char>, std::__ndk1::allocator<char> > const&)>::destroy()
FUNC 4e1c8 4 0 std::__ndk1::__function::__func<Tab4::init()::$_3, std::__ndk1::allocator<Tab4::init()::$_3>, void (std::__ndk1::basic_string<char, std::__ndk1::char_traits<char>, std::__ndk1::allocator<char> > const&)>::destroy_deallocate()
FUNC 4e1cc 8c 0 std::__ndk1::__function::__func<Tab4::init()::$_3, std::__ndk1::allocator<Tab4::init()::$_3>, void (std::__ndk1::basic_string<char, std::__ndk1::char_traits<char>, std::__ndk1::allocator<char> > const&)>::operator()(std::__ndk1::basic_string<char, std::__ndk1::char_traits<char>, std::__ndk1::allocator<char> > const&)
FUNC 4e258 1c 0 std::__ndk1::__function::__func<Tab4::init()::$_3, std::__ndk1::allocator<Tab4::init()::$_3>, void (std::__ndk1::basic_string<char, std::__ndk1::char_traits<char>, std::__ndk1::allocator<char> > const&)>::target(std::type_info const&) const
FUNC 4e274 c 0 std::__ndk1::__function::__func<Tab4::init()::$_3, std::__ndk1::allocator<Tab4::init()::$_3>, void (std::__ndk1::basic_string<char, std::__ndk1::char_traits<char>, std::__ndk1::allocator<char> > const&)>::target_type() const
FUNC 4e280 4 0 std::__ndk1::__function::__func<Tab4::init()::$_4, std::__ndk1::allocator<Tab4::init()::$_4>, void (std::__ndk1::basic_string<char, std::__ndk1::char_traits<char>, std::__ndk1::allocator<char> > const&)>::~__func()
FUNC 4e284 34 0 std::__ndk1::__function::__func<Tab4::init()::$_4, std::__ndk1::allocator<Tab4::init()::$_4>, void (std::__ndk1::basic_string<char, std::__ndk1::char_traits<char>, std::__ndk1::allocator<char> > const&)>::__clone() const
FUNC 4e2b8 14 0 std::__ndk1::__function::__func<Tab4::init()::$_4, std::__ndk1::allocator<Tab4::init()::$_4>, void (std::__ndk1::basic_string<char, std::__ndk1::char_traits<char>, std::__ndk1::allocator<char> > const&)>::__clone(std::__ndk1::__function::__base<void (std::__ndk1::basic_string<char, std::__ndk1::char_traits<char>, std::__ndk1::allocator<char> > const&)>*) const
FUNC 4e2cc 4 0 std::__ndk1::__function::__func<Tab4::init()::$_4, std::__ndk1::allocator<Tab4::init()::$_4>, void (std::__ndk1::basic_string<char, std::__ndk1::char_traits<char>, std::__ndk1::allocator<char> > const&)>::destroy()
FUNC 4e2d0 4 0 std::__ndk1::__function::__func<Tab4::init()::$_4, std::__ndk1::allocator<Tab4::init()::$_4>, void (std::__ndk1::basic_string<char, std::__ndk1::char_traits<char>, std::__ndk1::allocator<char> > const&)>::destroy_deallocate()
FUNC 4e2d4 8c 0 std::__ndk1::__function::__func<Tab4::init()::$_4, std::__ndk1::allocator<Tab4::init()::$_4>, void (std::__ndk1::basic_string<char, std::__ndk1::char_traits<char>, std::__ndk1::allocator<char> > const&)>::operator()(std::__ndk1::basic_string<char, std::__ndk1::char_traits<char>, std::__ndk1::allocator<char> > const&)
FUNC 4e360 1c 0 std::__ndk1::__function::__func<Tab4::init()::$_4, std::__ndk1::allocator<Tab4::init()::$_4>, void (std::__ndk1::basic_string<char, std::__ndk1::char_traits<char>, std::__ndk1::allocator<char> > const&)>::target(std::type_info const&) const
FUNC 4e37c c 0 std::__ndk1::__function::__func<Tab4::init()::$_4, std::__ndk1::allocator<Tab4::init()::$_4>, void (std::__ndk1::basic_string<char, std::__ndk1::char_traits<char>, std::__ndk1::allocator<char> > const&)>::target_type() const
FUNC 4e388 4 0 std::__ndk1::__function::__func<Tab4::init()::$_5, std::__ndk1::allocator<Tab4::init()::$_5>, void (std::__ndk1::basic_string<char, std::__ndk1::char_traits<char>, std::__ndk1::allocator<char> > const&)>::~__func()
FUNC 4e38c 34 0 std::__ndk1::__function::__func<Tab4::init()::$_5, std::__ndk1::allocator<Tab4::init()::$_5>, void (std::__ndk1::basic_string<char, std::__ndk1::char_traits<char>, std::__ndk1::allocator<char> > const&)>::__clone() const
FUNC 4e3c0 14 0 std::__ndk1::__function::__func<Tab4::init()::$_5, std::__ndk1::allocator<Tab4::init()::$_5>, void (std::__ndk1::basic_string<char, std::__ndk1::char_traits<char>, std::__ndk1::allocator<char> > const&)>::__clone(std::__ndk1::__function::__base<void (std::__ndk1::basic_string<char, std::__ndk1::char_traits<char>, std::__ndk1::allocator<char> > const&)>*) const
FUNC 4e3d4 4 0 std::__ndk1::__function::__func<Tab4::init()::$_5, std::__ndk1::allocator<Tab4::init()::$_5>, void (std::__ndk1::basic_string<char, std::__ndk1::char_traits<char>, std::__ndk1::allocator<char> > const&)>::destroy()
FUNC 4e3d8 4 0 std::__ndk1::__function::__func<Tab4::init()::$_5, std::__ndk1::allocator<Tab4::init()::$_5>, void (std::__ndk1::basic_string<char, std::__ndk1::char_traits<char>, std::__ndk1::allocator<char> > const&)>::destroy_deallocate()
FUNC 4e3dc 8c 0 std::__ndk1::__function::__func<Tab4::init()::$_5, std::__ndk1::allocator<Tab4::init()::$_5>, void (std::__ndk1::basic_string<char, std::__ndk1::char_traits<char>, std::__ndk1::allocator<char> > const&)>::operator()(std::__ndk1::basic_string<char, std::__ndk1::char_traits<char>, std::__ndk1::allocator<char> > const&)
FUNC 4e468 1c 0 std::__ndk1::__function::__func<Tab4::init()::$_5, std::__ndk1::allocator<Tab4::init()::$_5>, void (std::__ndk1::basic_string<char, std::__ndk1::char_traits<char>, std::__ndk1::allocator<char> > const&)>::target(std::type_info const&) const
FUNC 4e484 c 0 std::__ndk1::__function::__func<Tab4::init()::$_5, std::__ndk1::allocator<Tab4::init()::$_5>, void (std::__ndk1::basic_string<char, std::__ndk1::char_traits<char>, std::__ndk1::allocator<char> > const&)>::target_type() const
FUNC 4e490 4 0 std::__ndk1::__function::__func<Tab4::init()::$_6, std::__ndk1::allocator<Tab4::init()::$_6>, void (std::__ndk1::basic_string<char, std::__ndk1::char_traits<char>, std::__ndk1::allocator<char> > const&)>::~__func()
FUNC 4e494 34 0 std::__ndk1::__function::__func<Tab4::init()::$_6, std::__ndk1::allocator<Tab4::init()::$_6>, void (std::__ndk1::basic_string<char, std::__ndk1::char_traits<char>, std::__ndk1::allocator<char> > const&)>::__clone() const
FUNC 4e4c8 14 0 std::__ndk1::__function::__func<Tab4::init()::$_6, std::__ndk1::allocator<Tab4::init()::$_6>, void (std::__ndk1::basic_string<char, std::__ndk1::char_traits<char>, std::__ndk1::allocator<char> > const&)>::__clone(std::__ndk1::__function::__base<void (std::__ndk1::basic_string<char, std::__ndk1::char_traits<char>, std::__ndk1::allocator<char> > const&)>*) const
FUNC 4e4dc 4 0 std::__ndk1::__function::__func<Tab4::init()::$_6, std::__ndk1::allocator<Tab4::init()::$_6>, void (std::__ndk1::basic_string<char, std::__ndk1::char_traits<char>, std::__ndk1::allocator<char> > const&)>::destroy()
FUNC 4e4e0 4 0 std::__ndk1::__function::__func<Tab4::init()::$_6, std::__ndk1::allocator<Tab4::init()::$_6>, void (std::__ndk1::basic_string<char, std::__ndk1::char_traits<char>, std::__ndk1::allocator<char> > const&)>::destroy_deallocate()
FUNC 4e4e4 8c 0 std::__ndk1::__function::__func<Tab4::init()::$_6, std::__ndk1::allocator<Tab4::init()::$_6>, void (std::__ndk1::basic_string<char, std::__ndk1::char_traits<char>, std::__ndk1::allocator<char> > const&)>::operator()(std::__ndk1::basic_string<char, std::__ndk1::char_traits<char>, std::__ndk1::allocator<char> > const&)
FUNC 4e570 1c 0 std::__ndk1::__function::__func<Tab4::init()::$_6, std::__ndk1::allocator<Tab4::init()::$_6>, void (std::__ndk1::basic_string<char, std::__ndk1::char_traits<char>, std::__ndk1::allocator<char> > const&)>::target(std::type_info const&) const
FUNC 4e58c c 0 std::__ndk1::__function::__func<Tab4::init()::$_6, std::__ndk1::allocator<Tab4::init()::$_6>, void (std::__ndk1::basic_string<char, std::__ndk1::char_traits<char>, std::__ndk1::allocator<char> > const&)>::target_type() const
FUNC 4e598 4 0 std::__ndk1::__function::__func<Tab4::init()::$_7, std::__ndk1::allocator<Tab4::init()::$_7>, void (std::__ndk1::basic_string<char, std::__ndk1::char_traits<char>, std::__ndk1::allocator<char> > const&)>::~__func()
FUNC 4e59c 34 0 std::__ndk1::__function::__func<Tab4::init()::$_7, std::__ndk1::allocator<Tab4::init()::$_7>, void (std::__ndk1::basic_string<char, std::__ndk1::char_traits<char>, std::__ndk1::allocator<char> > const&)>::__clone() const
FUNC 4e5d0 14 0 std::__ndk1::__function::__func<Tab4::init()::$_7, std::__ndk1::allocator<Tab4::init()::$_7>, void (std::__ndk1::basic_string<char, std::__ndk1::char_traits<char>, std::__ndk1::allocator<char> > const&)>::__clone(std::__ndk1::__function::__base<void (std::__ndk1::basic_string<char, std::__ndk1::char_traits<char>, std::__ndk1::allocator<char> > const&)>*) const
FUNC 4e5e4 4 0 std::__ndk1::__function::__func<Tab4::init()::$_7, std::__ndk1::allocator<Tab4::init()::$_7>, void (std::__ndk1::basic_string<char, std::__ndk1::char_traits<char>, std::__ndk1::allocator<char> > const&)>::destroy()
FUNC 4e5e8 4 0 std::__ndk1::__function::__func<Tab4::init()::$_7, std::__ndk1::allocator<Tab4::init()::$_7>, void (std::__ndk1::basic_string<char, std::__ndk1::char_traits<char>, std::__ndk1::allocator<char> > const&)>::destroy_deallocate()
FUNC 4e5ec 8c 0 std::__ndk1::__function::__func<Tab4::init()::$_7, std::__ndk1::allocator<Tab4::init()::$_7>, void (std::__ndk1::basic_string<char, std::__ndk1::char_traits<char>, std::__ndk1::allocator<char> > const&)>::operator()(std::__ndk1::basic_string<char, std::__ndk1::char_traits<char>, std::__ndk1::allocator<char> > const&)
FUNC 4e678 1c 0 std::__ndk1::__function::__func<Tab4::init()::$_7, std::__ndk1::allocator<Tab4::init()::$_7>, void (std::__ndk1::basic_string<char, std::__ndk1::char_traits<char>, std::__ndk1::allocator<char> > const&)>::target(std::type_info const&) const
FUNC 4e694 c 0 std::__ndk1::__function::__func<Tab4::init()::$_7, std::__ndk1::allocator<Tab4::init()::$_7>, void (std::__ndk1::basic_string<char, std::__ndk1::char_traits<char>, std::__ndk1::allocator<char> > const&)>::target_type() const
FUNC 4e6a0 4 0 std::__ndk1::__function::__func<Tab4::init()::$_8, std::__ndk1::allocator<Tab4::init()::$_8>, void (std::__ndk1::basic_string<char, std::__ndk1::char_traits<char>, std::__ndk1::allocator<char> > const&)>::~__func()
FUNC 4e6a4 34 0 std::__ndk1::__function::__func<Tab4::init()::$_8, std::__ndk1::allocator<Tab4::init()::$_8>, void (std::__ndk1::basic_string<char, std::__ndk1::char_traits<char>, std::__ndk1::allocator<char> > const&)>::__clone() const
FUNC 4e6d8 14 0 std::__ndk1::__function::__func<Tab4::init()::$_8, std::__ndk1::allocator<Tab4::init()::$_8>, void (std::__ndk1::basic_string<char, std::__ndk1::char_traits<char>, std::__ndk1::allocator<char> > const&)>::__clone(std::__ndk1::__function::__base<void (std::__ndk1::basic_string<char, std::__ndk1::char_traits<char>, std::__ndk1::allocator<char> > const&)>*) const
FUNC 4e6ec 4 0 std::__ndk1::__function::__func<Tab4::init()::$_8, std::__ndk1::allocator<Tab4::init()::$_8>, void (std::__ndk1::basic_string<char, std::__ndk1::char_traits<char>, std::__ndk1::allocator<char> > const&)>::destroy()
FUNC 4e6f0 4 0 std::__ndk1::__function::__func<Tab4::init()::$_8, std::__ndk1::allocator<Tab4::init()::$_8>, void (std::__ndk1::basic_string<char, std::__ndk1::char_traits<char>, std::__ndk1::allocator<char> > const&)>::destroy_deallocate()
FUNC 4e6f4 8c 0 std::__ndk1::__function::__func<Tab4::init()::$_8, std::__ndk1::allocator<Tab4::init()::$_8>, void (std::__ndk1::basic_string<char, std::__ndk1::char_traits<char>, std::__ndk1::allocator<char> > const&)>::operator()(std::__ndk1::basic_string<char, std::__ndk1::char_traits<char>, std::__ndk1::allocator<char> > const&)
FUNC 4e780 1c 0 std::__ndk1::__function::__func<Tab4::init()::$_8, std::__ndk1::allocator<Tab4::init()::$_8>, void (std::__ndk1::basic_string<char, std::__ndk1::char_traits<char>, std::__ndk1::allocator<char> > const&)>::target(std::type_info const&) const
FUNC 4e79c c 0 std::__ndk1::__function::__func<Tab4::init()::$_8, std::__ndk1::allocator<Tab4::init()::$_8>, void (std::__ndk1::basic_string<char, std::__ndk1::char_traits<char>, std::__ndk1::allocator<char> > const&)>::target_type() const
FUNC 4e7a8 4 0 std::__ndk1::__function::__func<Tab4::init()::$_9, std::__ndk1::allocator<Tab4::init()::$_9>, void (std::__ndk1::basic_string<char, std::__ndk1::char_traits<char>, std::__ndk1::allocator<char> > const&)>::~__func()
FUNC 4e7ac 34 0 std::__ndk1::__function::__func<Tab4::init()::$_9, std::__ndk1::allocator<Tab4::init()::$_9>, void (std::__ndk1::basic_string<char, std::__ndk1::char_traits<char>, std::__ndk1::allocator<char> > const&)>::__clone() const
FUNC 4e7e0 14 0 std::__ndk1::__function::__func<Tab4::init()::$_9, std::__ndk1::allocator<Tab4::init()::$_9>, void (std::__ndk1::basic_string<char, std::__ndk1::char_traits<char>, std::__ndk1::allocator<char> > const&)>::__clone(std::__ndk1::__function::__base<void (std::__ndk1::basic_string<char, std::__ndk1::char_traits<char>, std::__ndk1::allocator<char> > const&)>*) const
FUNC 4e7f4 4 0 std::__ndk1::__function::__func<Tab4::init()::$_9, std::__ndk1::allocator<Tab4::init()::$_9>, void (std::__ndk1::basic_string<char, std::__ndk1::char_traits<char>, std::__ndk1::allocator<char> > const&)>::destroy()
FUNC 4e7f8 4 0 std::__ndk1::__function::__func<Tab4::init()::$_9, std::__ndk1::allocator<Tab4::init()::$_9>, void (std::__ndk1::basic_string<char, std::__ndk1::char_traits<char>, std::__ndk1::allocator<char> > const&)>::destroy_deallocate()
FUNC 4e7fc 8c 0 std::__ndk1::__function::__func<Tab4::init()::$_9, std::__ndk1::allocator<Tab4::init()::$_9>, void (std::__ndk1::basic_string<char, std::__ndk1::char_traits<char>, std::__ndk1::allocator<char> > const&)>::operator()(std::__ndk1::basic_string<char, std::__ndk1::char_traits<char>, std::__ndk1::allocator<char> > const&)
FUNC 4e888 1c 0 std::__ndk1::__function::__func<Tab4::init()::$_9, std::__ndk1::allocator<Tab4::init()::$_9>, void (std::__ndk1::basic_string<char, std::__ndk1::char_traits<char>, std::__ndk1::allocator<char> > const&)>::target(std::type_info const&) const
FUNC 4e8a4 c 0 std::__ndk1::__function::__func<Tab4::init()::$_9, std::__ndk1::allocator<Tab4::init()::$_9>, void (std::__ndk1::basic_string<char, std::__ndk1::char_traits<char>, std::__ndk1::allocator<char> > const&)>::target_type() const
FUNC 4e8b0 4 0 std::__ndk1::__function::__func<Tab4::init()::$_10, std::__ndk1::allocator<Tab4::init()::$_10>, void (std::__ndk1::basic_string<char, std::__ndk1::char_traits<char>, std::__ndk1::allocator<char> > const&)>::~__func()
FUNC 4e8b4 34 0 std::__ndk1::__function::__func<Tab4::init()::$_10, std::__ndk1::allocator<Tab4::init()::$_10>, void (std::__ndk1::basic_string<char, std::__ndk1::char_traits<char>, std::__ndk1::allocator<char> > const&)>::__clone() const
FUNC 4e8e8 14 0 std::__ndk1::__function::__func<Tab4::init()::$_10, std::__ndk1::allocator<Tab4::init()::$_10>, void (std::__ndk1::basic_string<char, std::__ndk1::char_traits<char>, std::__ndk1::allocator<char> > const&)>::__clone(std::__ndk1::__function::__base<void (std::__ndk1::basic_string<char, std::__ndk1::char_traits<char>, std::__ndk1::allocator<char> > const&)>*) const
FUNC 4e8fc 4 0 std::__ndk1::__function::__func<Tab4::init()::$_10, std::__ndk1::allocator<Tab4::init()::$_10>, void (std::__ndk1::basic_string<char, std::__ndk1::char_traits<char>, std::__ndk1::allocator<char> > const&)>::destroy()
FUNC 4e900 4 0 std::__ndk1::__function::__func<Tab4::init()::$_10, std::__ndk1::allocator<Tab4::init()::$_10>, void (std::__ndk1::basic_string<char, std::__ndk1::char_traits<char>, std::__ndk1::allocator<char> > const&)>::destroy_deallocate()
FUNC 4e904 8c 0 std::__ndk1::__function::__func<Tab4::init()::$_10, std::__ndk1::allocator<Tab4::init()::$_10>, void (std::__ndk1::basic_string<char, std::__ndk1::char_traits<char>, std::__ndk1::allocator<char> > const&)>::operator()(std::__ndk1::basic_string<char, std::__ndk1::char_traits<char>, std::__ndk1::allocator<char> > const&)
FUNC 4e990 1c 0 std::__ndk1::__function::__func<Tab4::init()::$_10, std::__ndk1::allocator<Tab4::init()::$_10>, void (std::__ndk1::basic_string<char, std::__ndk1::char_traits<char>, std::__ndk1::allocator<char> > const&)>::target(std::type_info const&) const
FUNC 4e9ac c 0 std::__ndk1::__function::__func<Tab4::init()::$_10, std::__ndk1::allocator<Tab4::init()::$_10>, void (std::__ndk1::basic_string<char, std::__ndk1::char_traits<char>, std::__ndk1::allocator<char> > const&)>::target_type() const
FUNC 4e9b8 4 0 std::__ndk1::__function::__func<Tab4::init()::$_11, std::__ndk1::allocator<Tab4::init()::$_11>, void (std::__ndk1::basic_string<char, std::__ndk1::char_traits<char>, std::__ndk1::allocator<char> > const&)>::~__func()
FUNC 4e9bc 34 0 std::__ndk1::__function::__func<Tab4::init()::$_11, std::__ndk1::allocator<Tab4::init()::$_11>, void (std::__ndk1::basic_string<char, std::__ndk1::char_traits<char>, std::__ndk1::allocator<char> > const&)>::__clone() const
FUNC 4e9f0 14 0 std::__ndk1::__function::__func<Tab4::init()::$_11, std::__ndk1::allocator<Tab4::init()::$_11>, void (std::__ndk1::basic_string<char, std::__ndk1::char_traits<char>, std::__ndk1::allocator<char> > const&)>::__clone(std::__ndk1::__function::__base<void (std::__ndk1::basic_string<char, std::__ndk1::char_traits<char>, std::__ndk1::allocator<char> > const&)>*) const
FUNC 4ea04 4 0 std::__ndk1::__function::__func<Tab4::init()::$_11, std::__ndk1::allocator<Tab4::init()::$_11>, void (std::__ndk1::basic_string<char, std::__ndk1::char_traits<char>, std::__ndk1::allocator<char> > const&)>::destroy()
FUNC 4ea08 4 0 std::__ndk1::__function::__func<Tab4::init()::$_11, std::__ndk1::allocator<Tab4::init()::$_11>, void (std::__ndk1::basic_string<char, std::__ndk1::char_traits<char>, std::__ndk1::allocator<char> > const&)>::destroy_deallocate()
FUNC 4ea0c 8c 0 std::__ndk1::__function::__func<Tab4::init()::$_11, std::__ndk1::allocator<Tab4::init()::$_11>, void (std::__ndk1::basic_string<char, std::__ndk1::char_traits<char>, std::__ndk1::allocator<char> > const&)>::operator()(std::__ndk1::basic_string<char, std::__ndk1::char_traits<char>, std::__ndk1::allocator<char> > const&)
FUNC 4ea98 1c 0 std::__ndk1::__function::__func<Tab4::init()::$_11, std::__ndk1::allocator<Tab4::init()::$_11>, void (std::__ndk1::basic_string<char, std::__ndk1::char_traits<char>, std::__ndk1::allocator<char> > const&)>::target(std::type_info const&) const
FUNC 4eab4 c 0 std::__ndk1::__function::__func<Tab4::init()::$_11, std::__ndk1::allocator<Tab4::init()::$_11>, void (std::__ndk1::basic_string<char, std::__ndk1::char_traits<char>, std::__ndk1::allocator<char> > const&)>::target_type() const
FUNC 4eac0 4 0 std::__ndk1::__function::__func<Tab4::init()::$_12, std::__ndk1::allocator<Tab4::init()::$_12>, void (std::__ndk1::basic_string<char, std::__ndk1::char_traits<char>, std::__ndk1::allocator<char> > const&)>::~__func()
FUNC 4eac4 34 0 std::__ndk1::__function::__func<Tab4::init()::$_12, std::__ndk1::allocator<Tab4::init()::$_12>, void (std::__ndk1::basic_string<char, std::__ndk1::char_traits<char>, std::__ndk1::allocator<char> > const&)>::__clone() const
FUNC 4eaf8 14 0 std::__ndk1::__function::__func<Tab4::init()::$_12, std::__ndk1::allocator<Tab4::init()::$_12>, void (std::__ndk1::basic_string<char, std::__ndk1::char_traits<char>, std::__ndk1::allocator<char> > const&)>::__clone(std::__ndk1::__function::__base<void (std::__ndk1::basic_string<char, std::__ndk1::char_traits<char>, std::__ndk1::allocator<char> > const&)>*) const
FUNC 4eb0c 4 0 std::__ndk1::__function::__func<Tab4::init()::$_12, std::__ndk1::allocator<Tab4::init()::$_12>, void (std::__ndk1::basic_string<char, std::__ndk1::char_traits<char>, std::__ndk1::allocator<char> > const&)>::destroy()
FUNC 4eb10 4 0 std::__ndk1::__function::__func<Tab4::init()::$_12, std::__ndk1::allocator<Tab4::init()::$_12>, void (std::__ndk1::basic_string<char, std::__ndk1::char_traits<char>, std::__ndk1::allocator<char> > const&)>::destroy_deallocate()
FUNC 4eb14 8c 0 std::__ndk1::__function::__func<Tab4::init()::$_12, std::__ndk1::allocator<Tab4::init()::$_12>, void (std::__ndk1::basic_string<char, std::__ndk1::char_traits<char>, std::__ndk1::allocator<char> > const&)>::operator()(std::__ndk1::basic_string<char, std::__ndk1::char_traits<char>, std::__ndk1::allocator<char> > const&)
FUNC 4eba0 1c 0 std::__ndk1::__function::__func<Tab4::init()::$_12, std::__ndk1::allocator<Tab4::init()::$_12>, void (std::__ndk1::basic_string<char, std::__ndk1::char_traits<char>, std::__ndk1::allocator<char> > const&)>::target(std::type_info const&) const
FUNC 4ebbc c 0 std::__ndk1::__function::__func<Tab4::init()::$_12, std::__ndk1::allocator<Tab4::init()::$_12>, void (std::__ndk1::basic_string<char, std::__ndk1::char_traits<char>, std::__ndk1::allocator<char> > const&)>::target_type() const
FUNC 4ebc8 4 0 std::__ndk1::__function::__func<Tab4::init()::$_13, std::__ndk1::allocator<Tab4::init()::$_13>, void (std::__ndk1::basic_string<char, std::__ndk1::char_traits<char>, std::__ndk1::allocator<char> > const&)>::~__func()
FUNC 4ebcc 34 0 std::__ndk1::__function::__func<Tab4::init()::$_13, std::__ndk1::allocator<Tab4::init()::$_13>, void (std::__ndk1::basic_string<char, std::__ndk1::char_traits<char>, std::__ndk1::allocator<char> > const&)>::__clone() const
FUNC 4ec00 14 0 std::__ndk1::__function::__func<Tab4::init()::$_13, std::__ndk1::allocator<Tab4::init()::$_13>, void (std::__ndk1::basic_string<char, std::__ndk1::char_traits<char>, std::__ndk1::allocator<char> > const&)>::__clone(std::__ndk1::__function::__base<void (std::__ndk1::basic_string<char, std::__ndk1::char_traits<char>, std::__ndk1::allocator<char> > const&)>*) const
FUNC 4ec14 4 0 std::__ndk1::__function::__func<Tab4::init()::$_13, std::__ndk1::allocator<Tab4::init()::$_13>, void (std::__ndk1::basic_string<char, std::__ndk1::char_traits<char>, std::__ndk1::allocator<char> > const&)>::destroy()
FUNC 4ec18 4 0 std::__ndk1::__function::__func<Tab4::init()::$_13, std::__ndk1::allocator<Tab4::init()::$_13>, void (std::__ndk1::basic_string<char, std::__ndk1::char_traits<char>, std::__ndk1::allocator<char> > const&)>::destroy_deallocate()
FUNC 4ec1c 8c 0 std::__ndk1::__function::__func<Tab4::init()::$_13, std::__ndk1::allocator<Tab4::init()::$_13>, void (std::__ndk1::basic_string<char, std::__ndk1::char_traits<char>, std::__ndk1::allocator<char> > const&)>::operator()(std::__ndk1::basic_string<char, std::__ndk1::char_traits<char>, std::__ndk1::allocator<char> > const&)
FUNC 4eca8 1c 0 std::__ndk1::__function::__func<Tab4::init()::$_13, std::__ndk1::allocator<Tab4::init()::$_13>, void (std::__ndk1::basic_string<char, std::__ndk1::char_traits<char>, std::__ndk1::allocator<char> > const&)>::target(std::type_info const&) const
FUNC 4ecc4 c 0 std::__ndk1::__function::__func<Tab4::init()::$_13, std::__ndk1::allocator<Tab4::init()::$_13>, void (std::__ndk1::basic_string<char, std::__ndk1::char_traits<char>, std::__ndk1::allocator<char> > const&)>::target_type() const
FUNC 4ecd0 4 0 std::__ndk1::__function::__func<Tab4::init()::$_14, std::__ndk1::allocator<Tab4::init()::$_14>, void (std::__ndk1::basic_string<char, std::__ndk1::char_traits<char>, std::__ndk1::allocator<char> > const&)>::~__func()
FUNC 4ecd4 34 0 std::__ndk1::__function::__func<Tab4::init()::$_14, std::__ndk1::allocator<Tab4::init()::$_14>, void (std::__ndk1::basic_string<char, std::__ndk1::char_traits<char>, std::__ndk1::allocator<char> > const&)>::__clone() const
FUNC 4ed08 14 0 std::__ndk1::__function::__func<Tab4::init()::$_14, std::__ndk1::allocator<Tab4::init()::$_14>, void (std::__ndk1::basic_string<char, std::__ndk1::char_traits<char>, std::__ndk1::allocator<char> > const&)>::__clone(std::__ndk1::__function::__base<void (std::__ndk1::basic_string<char, std::__ndk1::char_traits<char>, std::__ndk1::allocator<char> > const&)>*) const
FUNC 4ed1c 4 0 std::__ndk1::__function::__func<Tab4::init()::$_14, std::__ndk1::allocator<Tab4::init()::$_14>, void (std::__ndk1::basic_string<char, std::__ndk1::char_traits<char>, std::__ndk1::allocator<char> > const&)>::destroy()
FUNC 4ed20 4 0 std::__ndk1::__function::__func<Tab4::init()::$_14, std::__ndk1::allocator<Tab4::init()::$_14>, void (std::__ndk1::basic_string<char, std::__ndk1::char_traits<char>, std::__ndk1::allocator<char> > const&)>::destroy_deallocate()
FUNC 4ed24 8c 0 std::__ndk1::__function::__func<Tab4::init()::$_14, std::__ndk1::allocator<Tab4::init()::$_14>, void (std::__ndk1::basic_string<char, std::__ndk1::char_traits<char>, std::__ndk1::allocator<char> > const&)>::operator()(std::__ndk1::basic_string<char, std::__ndk1::char_traits<char>, std::__ndk1::allocator<char> > const&)
FUNC 4edb0 1c 0 std::__ndk1::__function::__func<Tab4::init()::$_14, std::__ndk1::allocator<Tab4::init()::$_14>, void (std::__ndk1::basic_string<char, std::__ndk1::char_traits<char>, std::__ndk1::allocator<char> > const&)>::target(std::type_info const&) const
FUNC 4edcc c 0 std::__ndk1::__function::__func<Tab4::init()::$_14, std::__ndk1::allocator<Tab4::init()::$_14>, void (std::__ndk1::basic_string<char, std::__ndk1::char_traits<char>, std::__ndk1::allocator<char> > const&)>::target_type() const
FUNC 4edd8 4 0 std::__ndk1::__function::__func<Tab4::init()::$_15, std::__ndk1::allocator<Tab4::init()::$_15>, void (std::__ndk1::basic_string<char, std::__ndk1::char_traits<char>, std::__ndk1::allocator<char> > const&)>::~__func()
FUNC 4eddc 34 0 std::__ndk1::__function::__func<Tab4::init()::$_15, std::__ndk1::allocator<Tab4::init()::$_15>, void (std::__ndk1::basic_string<char, std::__ndk1::char_traits<char>, std::__ndk1::allocator<char> > const&)>::__clone() const
FUNC 4ee10 14 0 std::__ndk1::__function::__func<Tab4::init()::$_15, std::__ndk1::allocator<Tab4::init()::$_15>, void (std::__ndk1::basic_string<char, std::__ndk1::char_traits<char>, std::__ndk1::allocator<char> > const&)>::__clone(std::__ndk1::__function::__base<void (std::__ndk1::basic_string<char, std::__ndk1::char_traits<char>, std::__ndk1::allocator<char> > const&)>*) const
FUNC 4ee24 4 0 std::__ndk1::__function::__func<Tab4::init()::$_15, std::__ndk1::allocator<Tab4::init()::$_15>, void (std::__ndk1::basic_string<char, std::__ndk1::char_traits<char>, std::__ndk1::allocator<char> > const&)>::destroy()
FUNC 4ee28 4 0 std::__ndk1::__function::__func<Tab4::init()::$_15, std::__ndk1::allocator<Tab4::init()::$_15>, void (std::__ndk1::basic_string<char, std::__ndk1::char_traits<char>, std::__ndk1::allocator<char> > const&)>::destroy_deallocate()
FUNC 4ee2c 8c 0 std::__ndk1::__function::__func<Tab4::init()::$_15, std::__ndk1::allocator<Tab4::init()::$_15>, void (std::__ndk1::basic_string<char, std::__ndk1::char_traits<char>, std::__ndk1::allocator<char> > const&)>::operator()(std::__ndk1::basic_string<char, std::__ndk1::char_traits<char>, std::__ndk1::allocator<char> > const&)
FUNC 4eeb8 1c 0 std::__ndk1::__function::__func<Tab4::init()::$_15, std::__ndk1::allocator<Tab4::init()::$_15>, void (std::__ndk1::basic_string<char, std::__ndk1::char_traits<char>, std::__ndk1::allocator<char> > const&)>::target(std::type_info const&) const
FUNC 4eed4 c 0 std::__ndk1::__function::__func<Tab4::init()::$_15, std::__ndk1::allocator<Tab4::init()::$_15>, void (std::__ndk1::basic_string<char, std::__ndk1::char_traits<char>, std::__ndk1::allocator<char> > const&)>::target_type() const
FUNC 4eee0 4 0 std::__ndk1::__function::__func<Tab4::init()::$_16, std::__ndk1::allocator<Tab4::init()::$_16>, void (std::__ndk1::basic_string<char, std::__ndk1::char_traits<char>, std::__ndk1::allocator<char> > const&)>::~__func()
FUNC 4eee4 34 0 std::__ndk1::__function::__func<Tab4::init()::$_16, std::__ndk1::allocator<Tab4::init()::$_16>, void (std::__ndk1::basic_string<char, std::__ndk1::char_traits<char>, std::__ndk1::allocator<char> > const&)>::__clone() const
FUNC 4ef18 14 0 std::__ndk1::__function::__func<Tab4::init()::$_16, std::__ndk1::allocator<Tab4::init()::$_16>, void (std::__ndk1::basic_string<char, std::__ndk1::char_traits<char>, std::__ndk1::allocator<char> > const&)>::__clone(std::__ndk1::__function::__base<void (std::__ndk1::basic_string<char, std::__ndk1::char_traits<char>, std::__ndk1::allocator<char> > const&)>*) const
FUNC 4ef2c 4 0 std::__ndk1::__function::__func<Tab4::init()::$_16, std::__ndk1::allocator<Tab4::init()::$_16>, void (std::__ndk1::basic_string<char, std::__ndk1::char_traits<char>, std::__ndk1::allocator<char> > const&)>::destroy()
FUNC 4ef30 4 0 std::__ndk1::__function::__func<Tab4::init()::$_16, std::__ndk1::allocator<Tab4::init()::$_16>, void (std::__ndk1::basic_string<char, std::__ndk1::char_traits<char>, std::__ndk1::allocator<char> > const&)>::destroy_deallocate()
FUNC 4ef34 8c 0 std::__ndk1::__function::__func<Tab4::init()::$_16, std::__ndk1::allocator<Tab4::init()::$_16>, void (std::__ndk1::basic_string<char, std::__ndk1::char_traits<char>, std::__ndk1::allocator<char> > const&)>::operator()(std::__ndk1::basic_string<char, std::__ndk1::char_traits<char>, std::__ndk1::allocator<char> > const&)
FUNC 4efc0 1c 0 std::__ndk1::__function::__func<Tab4::init()::$_16, std::__ndk1::allocator<Tab4::init()::$_16>, void (std::__ndk1::basic_string<char, std::__ndk1::char_traits<char>, std::__ndk1::allocator<char> > const&)>::target(std::type_info const&) const
FUNC 4efdc c 0 std::__ndk1::__function::__func<Tab4::init()::$_16, std::__ndk1::allocator<Tab4::init()::$_16>, void (std::__ndk1::basic_string<char, std::__ndk1::char_traits<char>, std::__ndk1::allocator<char> > const&)>::target_type() const
FUNC 4efe8 4 0 std::__ndk1::__function::__func<Tab4::init()::$_17, std::__ndk1::allocator<Tab4::init()::$_17>, void (std::__ndk1::basic_string<char, std::__ndk1::char_traits<char>, std::__ndk1::allocator<char> > const&)>::~__func()
FUNC 4efec 34 0 std::__ndk1::__function::__func<Tab4::init()::$_17, std::__ndk1::allocator<Tab4::init()::$_17>, void (std::__ndk1::basic_string<char, std::__ndk1::char_traits<char>, std::__ndk1::allocator<char> > const&)>::__clone() const
FUNC 4f020 14 0 std::__ndk1::__function::__func<Tab4::init()::$_17, std::__ndk1::allocator<Tab4::init()::$_17>, void (std::__ndk1::basic_string<char, std::__ndk1::char_traits<char>, std::__ndk1::allocator<char> > const&)>::__clone(std::__ndk1::__function::__base<void (std::__ndk1::basic_string<char, std::__ndk1::char_traits<char>, std::__ndk1::allocator<char> > const&)>*) const
FUNC 4f034 4 0 std::__ndk1::__function::__func<Tab4::init()::$_17, std::__ndk1::allocator<Tab4::init()::$_17>, void (std::__ndk1::basic_string<char, std::__ndk1::char_traits<char>, std::__ndk1::allocator<char> > const&)>::destroy()
FUNC 4f038 4 0 std::__ndk1::__function::__func<Tab4::init()::$_17, std::__ndk1::allocator<Tab4::init()::$_17>, void (std::__ndk1::basic_string<char, std::__ndk1::char_traits<char>, std::__ndk1::allocator<char> > const&)>::destroy_deallocate()
FUNC 4f03c 8c 0 std::__ndk1::__function::__func<Tab4::init()::$_17, std::__ndk1::allocator<Tab4::init()::$_17>, void (std::__ndk1::basic_string<char, std::__ndk1::char_traits<char>, std::__ndk1::allocator<char> > const&)>::operator()(std::__ndk1::basic_string<char, std::__ndk1::char_traits<char>, std::__ndk1::allocator<char> > const&)
FUNC 4f0c8 1c 0 std::__ndk1::__function::__func<Tab4::init()::$_17, std::__ndk1::allocator<Tab4::init()::$_17>, void (std::__ndk1::basic_string<char, std::__ndk1::char_traits<char>, std::__ndk1::allocator<char> > const&)>::target(std::type_info const&) const
FUNC 4f0e4 c 0 std::__ndk1::__function::__func<Tab4::init()::$_17, std::__ndk1::allocator<Tab4::init()::$_17>, void (std::__ndk1::basic_string<char, std::__ndk1::char_traits<char>, std::__ndk1::allocator<char> > const&)>::target_type() const
FUNC 4f0f0 4 0 std::__ndk1::__function::__func<Tab4::init()::$_18, std::__ndk1::allocator<Tab4::init()::$_18>, void (std::__ndk1::basic_string<char, std::__ndk1::char_traits<char>, std::__ndk1::allocator<char> > const&)>::~__func()
FUNC 4f0f4 34 0 std::__ndk1::__function::__func<Tab4::init()::$_18, std::__ndk1::allocator<Tab4::init()::$_18>, void (std::__ndk1::basic_string<char, std::__ndk1::char_traits<char>, std::__ndk1::allocator<char> > const&)>::__clone() const
FUNC 4f128 14 0 std::__ndk1::__function::__func<Tab4::init()::$_18, std::__ndk1::allocator<Tab4::init()::$_18>, void (std::__ndk1::basic_string<char, std::__ndk1::char_traits<char>, std::__ndk1::allocator<char> > const&)>::__clone(std::__ndk1::__function::__base<void (std::__ndk1::basic_string<char, std::__ndk1::char_traits<char>, std::__ndk1::allocator<char> > const&)>*) const
FUNC 4f13c 4 0 std::__ndk1::__function::__func<Tab4::init()::$_18, std::__ndk1::allocator<Tab4::init()::$_18>, void (std::__ndk1::basic_string<char, std::__ndk1::char_traits<char>, std::__ndk1::allocator<char> > const&)>::destroy()
FUNC 4f140 4 0 std::__ndk1::__function::__func<Tab4::init()::$_18, std::__ndk1::allocator<Tab4::init()::$_18>, void (std::__ndk1::basic_string<char, std::__ndk1::char_traits<char>, std::__ndk1::allocator<char> > const&)>::destroy_deallocate()
FUNC 4f144 8c 0 std::__ndk1::__function::__func<Tab4::init()::$_18, std::__ndk1::allocator<Tab4::init()::$_18>, void (std::__ndk1::basic_string<char, std::__ndk1::char_traits<char>, std::__ndk1::allocator<char> > const&)>::operator()(std::__ndk1::basic_string<char, std::__ndk1::char_traits<char>, std::__ndk1::allocator<char> > const&)
FUNC 4f1d0 1c 0 std::__ndk1::__function::__func<Tab4::init()::$_18, std::__ndk1::allocator<Tab4::init()::$_18>, void (std::__ndk1::basic_string<char, std::__ndk1::char_traits<char>, std::__ndk1::allocator<char> > const&)>::target(std::type_info const&) const
FUNC 4f1ec c 0 std::__ndk1::__function::__func<Tab4::init()::$_18, std::__ndk1::allocator<Tab4::init()::$_18>, void (std::__ndk1::basic_string<char, std::__ndk1::char_traits<char>, std::__ndk1::allocator<char> > const&)>::target_type() const
FUNC 4f1f8 4 0 std::__ndk1::__function::__func<Tab4::init()::$_19, std::__ndk1::allocator<Tab4::init()::$_19>, void (std::__ndk1::basic_string<char, std::__ndk1::char_traits<char>, std::__ndk1::allocator<char> > const&)>::~__func()
FUNC 4f1fc 34 0 std::__ndk1::__function::__func<Tab4::init()::$_19, std::__ndk1::allocator<Tab4::init()::$_19>, void (std::__ndk1::basic_string<char, std::__ndk1::char_traits<char>, std::__ndk1::allocator<char> > const&)>::__clone() const
FUNC 4f230 14 0 std::__ndk1::__function::__func<Tab4::init()::$_19, std::__ndk1::allocator<Tab4::init()::$_19>, void (std::__ndk1::basic_string<char, std::__ndk1::char_traits<char>, std::__ndk1::allocator<char> > const&)>::__clone(std::__ndk1::__function::__base<void (std::__ndk1::basic_string<char, std::__ndk1::char_traits<char>, std::__ndk1::allocator<char> > const&)>*) const
FUNC 4f244 4 0 std::__ndk1::__function::__func<Tab4::init()::$_19, std::__ndk1::allocator<Tab4::init()::$_19>, void (std::__ndk1::basic_string<char, std::__ndk1::char_traits<char>, std::__ndk1::allocator<char> > const&)>::destroy()
FUNC 4f248 4 0 std::__ndk1::__function::__func<Tab4::init()::$_19, std::__ndk1::allocator<Tab4::init()::$_19>, void (std::__ndk1::basic_string<char, std::__ndk1::char_traits<char>, std::__ndk1::allocator<char> > const&)>::destroy_deallocate()
FUNC 4f24c 8c 0 std::__ndk1::__function::__func<Tab4::init()::$_19, std::__ndk1::allocator<Tab4::init()::$_19>, void (std::__ndk1::basic_string<char, std::__ndk1::char_traits<char>, std::__ndk1::allocator<char> > const&)>::operator()(std::__ndk1::basic_string<char, std::__ndk1::char_traits<char>, std::__ndk1::allocator<char> > const&)
FUNC 4f2d8 1c 0 std::__ndk1::__function::__func<Tab4::init()::$_19, std::__ndk1::allocator<Tab4::init()::$_19>, void (std::__ndk1::basic_string<char, std::__ndk1::char_traits<char>, std::__ndk1::allocator<char> > const&)>::target(std::type_info const&) const
FUNC 4f2f4 c 0 std::__ndk1::__function::__func<Tab4::init()::$_19, std::__ndk1::allocator<Tab4::init()::$_19>, void (std::__ndk1::basic_string<char, std::__ndk1::char_traits<char>, std::__ndk1::allocator<char> > const&)>::target_type() const
FUNC 4f300 2af4 0 Tab5::init()
FUNC 51df4 b8 0 Tab5::SaveCheckbox(cocos2d::CCObject*)
FUNC 51eac b8 0 Tab5::SaveCheckbox2(cocos2d::CCObject*)
FUNC 51f64 b8 0 Tab5::SaveCheckbox3(cocos2d::CCObject*)
FUNC 5201c b8 0 Tab5::SaveCheckbox4(cocos2d::CCObject*)
FUNC 520d4 b8 0 Tab5::SaveCheckbox5(cocos2d::CCObject*)
FUNC 5218c b8 0 Tab5::SaveCheckbox6(cocos2d::CCObject*)
FUNC 52244 b8 0 Tab5::SaveCheckbox7(cocos2d::CCObject*)
FUNC 522fc b8 0 Tab5::SaveCheckbox8(cocos2d::CCObject*)
FUNC 523b4 b8 0 Tab5::SaveCheckbox9(cocos2d::CCObject*)
FUNC 5246c b8 0 Tab5::SaveCheckbox10(cocos2d::CCObject*)
FUNC 52524 24 0 Tab5::~Tab5()
FUNC 52548 8 0 {virtual override thunk({offset(-320)}, Tab5::~Tab5())}
FUNC 52550 28 0 {virtual override thunk({offset(-320)}, Tab5::~Tab5())}
FUNC 52578 4 0 std::__ndk1::__function::__func<Tab5::init()::$_0, std::__ndk1::allocator<Tab5::init()::$_0>, void (std::__ndk1::basic_string<char, std::__ndk1::char_traits<char>, std::__ndk1::allocator<char> > const&)>::~__func()
FUNC 5257c 34 0 std::__ndk1::__function::__func<Tab5::init()::$_0, std::__ndk1::allocator<Tab5::init()::$_0>, void (std::__ndk1::basic_string<char, std::__ndk1::char_traits<char>, std::__ndk1::allocator<char> > const&)>::__clone() const
FUNC 525b0 14 0 std::__ndk1::__function::__func<Tab5::init()::$_0, std::__ndk1::allocator<Tab5::init()::$_0>, void (std::__ndk1::basic_string<char, std::__ndk1::char_traits<char>, std::__ndk1::allocator<char> > const&)>::__clone(std::__ndk1::__function::__base<void (std::__ndk1::basic_string<char, std::__ndk1::char_traits<char>, std::__ndk1::allocator<char> > const&)>*) const
FUNC 525c4 4 0 std::__ndk1::__function::__func<Tab5::init()::$_0, std::__ndk1::allocator<Tab5::init()::$_0>, void (std::__ndk1::basic_string<char, std::__ndk1::char_traits<char>, std::__ndk1::allocator<char> > const&)>::destroy()
FUNC 525c8 4 0 std::__ndk1::__function::__func<Tab5::init()::$_0, std::__ndk1::allocator<Tab5::init()::$_0>, void (std::__ndk1::basic_string<char, std::__ndk1::char_traits<char>, std::__ndk1::allocator<char> > const&)>::destroy_deallocate()
FUNC 525cc 8c 0 std::__ndk1::__function::__func<Tab5::init()::$_0, std::__ndk1::allocator<Tab5::init()::$_0>, void (std::__ndk1::basic_string<char, std::__ndk1::char_traits<char>, std::__ndk1::allocator<char> > const&)>::operator()(std::__ndk1::basic_string<char, std::__ndk1::char_traits<char>, std::__ndk1::allocator<char> > const&)
FUNC 52658 1c 0 std::__ndk1::__function::__func<Tab5::init()::$_0, std::__ndk1::allocator<Tab5::init()::$_0>, void (std::__ndk1::basic_string<char, std::__ndk1::char_traits<char>, std::__ndk1::allocator<char> > const&)>::target(std::type_info const&) const
FUNC 52674 c 0 std::__ndk1::__function::__func<Tab5::init()::$_0, std::__ndk1::allocator<Tab5::init()::$_0>, void (std::__ndk1::basic_string<char, std::__ndk1::char_traits<char>, std::__ndk1::allocator<char> > const&)>::target_type() const
FUNC 52680 4 0 std::__ndk1::__function::__func<Tab5::init()::$_1, std::__ndk1::allocator<Tab5::init()::$_1>, void (std::__ndk1::basic_string<char, std::__ndk1::char_traits<char>, std::__ndk1::allocator<char> > const&)>::~__func()
FUNC 52684 34 0 std::__ndk1::__function::__func<Tab5::init()::$_1, std::__ndk1::allocator<Tab5::init()::$_1>, void (std::__ndk1::basic_string<char, std::__ndk1::char_traits<char>, std::__ndk1::allocator<char> > const&)>::__clone() const
FUNC 526b8 14 0 std::__ndk1::__function::__func<Tab5::init()::$_1, std::__ndk1::allocator<Tab5::init()::$_1>, void (std::__ndk1::basic_string<char, std::__ndk1::char_traits<char>, std::__ndk1::allocator<char> > const&)>::__clone(std::__ndk1::__function::__base<void (std::__ndk1::basic_string<char, std::__ndk1::char_traits<char>, std::__ndk1::allocator<char> > const&)>*) const
FUNC 526cc 4 0 std::__ndk1::__function::__func<Tab5::init()::$_1, std::__ndk1::allocator<Tab5::init()::$_1>, void (std::__ndk1::basic_string<char, std::__ndk1::char_traits<char>, std::__ndk1::allocator<char> > const&)>::destroy()
FUNC 526d0 4 0 std::__ndk1::__function::__func<Tab5::init()::$_1, std::__ndk1::allocator<Tab5::init()::$_1>, void (std::__ndk1::basic_string<char, std::__ndk1::char_traits<char>, std::__ndk1::allocator<char> > const&)>::destroy_deallocate()
FUNC 526d4 8c 0 std::__ndk1::__function::__func<Tab5::init()::$_1, std::__ndk1::allocator<Tab5::init()::$_1>, void (std::__ndk1::basic_string<char, std::__ndk1::char_traits<char>, std::__ndk1::allocator<char> > const&)>::operator()(std::__ndk1::basic_string<char, std::__ndk1::char_traits<char>, std::__ndk1::allocator<char> > const&)
FUNC 52760 1c 0 std::__ndk1::__function::__func<Tab5::init()::$_1, std::__ndk1::allocator<Tab5::init()::$_1>, void (std::__ndk1::basic_string<char, std::__ndk1::char_traits<char>, std::__ndk1::allocator<char> > const&)>::target(std::type_info const&) const
FUNC 5277c c 0 std::__ndk1::__function::__func<Tab5::init()::$_1, std::__ndk1::allocator<Tab5::init()::$_1>, void (std::__ndk1::basic_string<char, std::__ndk1::char_traits<char>, std::__ndk1::allocator<char> > const&)>::target_type() const
FUNC 52788 4 0 std::__ndk1::__function::__func<Tab5::init()::$_2, std::__ndk1::allocator<Tab5::init()::$_2>, void (std::__ndk1::basic_string<char, std::__ndk1::char_traits<char>, std::__ndk1::allocator<char> > const&)>::~__func()
FUNC 5278c 34 0 std::__ndk1::__function::__func<Tab5::init()::$_2, std::__ndk1::allocator<Tab5::init()::$_2>, void (std::__ndk1::basic_string<char, std::__ndk1::char_traits<char>, std::__ndk1::allocator<char> > const&)>::__clone() const
FUNC 527c0 14 0 std::__ndk1::__function::__func<Tab5::init()::$_2, std::__ndk1::allocator<Tab5::init()::$_2>, void (std::__ndk1::basic_string<char, std::__ndk1::char_traits<char>, std::__ndk1::allocator<char> > const&)>::__clone(std::__ndk1::__function::__base<void (std::__ndk1::basic_string<char, std::__ndk1::char_traits<char>, std::__ndk1::allocator<char> > const&)>*) const
FUNC 527d4 4 0 std::__ndk1::__function::__func<Tab5::init()::$_2, std::__ndk1::allocator<Tab5::init()::$_2>, void (std::__ndk1::basic_string<char, std::__ndk1::char_traits<char>, std::__ndk1::allocator<char> > const&)>::destroy()
FUNC 527d8 4 0 std::__ndk1::__function::__func<Tab5::init()::$_2, std::__ndk1::allocator<Tab5::init()::$_2>, void (std::__ndk1::basic_string<char, std::__ndk1::char_traits<char>, std::__ndk1::allocator<char> > const&)>::destroy_deallocate()
FUNC 527dc 8c 0 std::__ndk1::__function::__func<Tab5::init()::$_2, std::__ndk1::allocator<Tab5::init()::$_2>, void (std::__ndk1::basic_string<char, std::__ndk1::char_traits<char>, std::__ndk1::allocator<char> > const&)>::operator()(std::__ndk1::basic_string<char, std::__ndk1::char_traits<char>, std::__ndk1::allocator<char> > const&)
FUNC 52868 1c 0 std::__ndk1::__function::__func<Tab5::init()::$_2, std::__ndk1::allocator<Tab5::init()::$_2>, void (std::__ndk1::basic_string<char, std::__ndk1::char_traits<char>, std::__ndk1::allocator<char> > const&)>::target(std::type_info const&) const
FUNC 52884 c 0 std::__ndk1::__function::__func<Tab5::init()::$_2, std::__ndk1::allocator<Tab5::init()::$_2>, void (std::__ndk1::basic_string<char, std::__ndk1::char_traits<char>, std::__ndk1::allocator<char> > const&)>::target_type() const
FUNC 52890 4 0 std::__ndk1::__function::__func<Tab5::init()::$_3, std::__ndk1::allocator<Tab5::init()::$_3>, void (std::__ndk1::basic_string<char, std::__ndk1::char_traits<char>, std::__ndk1::allocator<char> > const&)>::~__func()
FUNC 52894 34 0 std::__ndk1::__function::__func<Tab5::init()::$_3, std::__ndk1::allocator<Tab5::init()::$_3>, void (std::__ndk1::basic_string<char, std::__ndk1::char_traits<char>, std::__ndk1::allocator<char> > const&)>::__clone() const
FUNC 528c8 14 0 std::__ndk1::__function::__func<Tab5::init()::$_3, std::__ndk1::allocator<Tab5::init()::$_3>, void (std::__ndk1::basic_string<char, std::__ndk1::char_traits<char>, std::__ndk1::allocator<char> > const&)>::__clone(std::__ndk1::__function::__base<void (std::__ndk1::basic_string<char, std::__ndk1::char_traits<char>, std::__ndk1::allocator<char> > const&)>*) const
FUNC 528dc 4 0 std::__ndk1::__function::__func<Tab5::init()::$_3, std::__ndk1::allocator<Tab5::init()::$_3>, void (std::__ndk1::basic_string<char, std::__ndk1::char_traits<char>, std::__ndk1::allocator<char> > const&)>::destroy()
FUNC 528e0 4 0 std::__ndk1::__function::__func<Tab5::init()::$_3, std::__ndk1::allocator<Tab5::init()::$_3>, void (std::__ndk1::basic_string<char, std::__ndk1::char_traits<char>, std::__ndk1::allocator<char> > const&)>::destroy_deallocate()
FUNC 528e4 8c 0 std::__ndk1::__function::__func<Tab5::init()::$_3, std::__ndk1::allocator<Tab5::init()::$_3>, void (std::__ndk1::basic_string<char, std::__ndk1::char_traits<char>, std::__ndk1::allocator<char> > const&)>::operator()(std::__ndk1::basic_string<char, std::__ndk1::char_traits<char>, std::__ndk1::allocator<char> > const&)
FUNC 52970 1c 0 std::__ndk1::__function::__func<Tab5::init()::$_3, std::__ndk1::allocator<Tab5::init()::$_3>, void (std::__ndk1::basic_string<char, std::__ndk1::char_traits<char>, std::__ndk1::allocator<char> > const&)>::target(std::type_info const&) const
FUNC 5298c c 0 std::__ndk1::__function::__func<Tab5::init()::$_3, std::__ndk1::allocator<Tab5::init()::$_3>, void (std::__ndk1::basic_string<char, std::__ndk1::char_traits<char>, std::__ndk1::allocator<char> > const&)>::target_type() const
FUNC 52998 4 0 std::__ndk1::__function::__func<Tab5::init()::$_4, std::__ndk1::allocator<Tab5::init()::$_4>, void (std::__ndk1::basic_string<char, std::__ndk1::char_traits<char>, std::__ndk1::allocator<char> > const&)>::~__func()
FUNC 5299c 34 0 std::__ndk1::__function::__func<Tab5::init()::$_4, std::__ndk1::allocator<Tab5::init()::$_4>, void (std::__ndk1::basic_string<char, std::__ndk1::char_traits<char>, std::__ndk1::allocator<char> > const&)>::__clone() const
FUNC 529d0 14 0 std::__ndk1::__function::__func<Tab5::init()::$_4, std::__ndk1::allocator<Tab5::init()::$_4>, void (std::__ndk1::basic_string<char, std::__ndk1::char_traits<char>, std::__ndk1::allocator<char> > const&)>::__clone(std::__ndk1::__function::__base<void (std::__ndk1::basic_string<char, std::__ndk1::char_traits<char>, std::__ndk1::allocator<char> > const&)>*) const
FUNC 529e4 4 0 std::__ndk1::__function::__func<Tab5::init()::$_4, std::__ndk1::allocator<Tab5::init()::$_4>, void (std::__ndk1::basic_string<char, std::__ndk1::char_traits<char>, std::__ndk1::allocator<char> > const&)>::destroy()
FUNC 529e8 4 0 std::__ndk1::__function::__func<Tab5::init()::$_4, std::__ndk1::allocator<Tab5::init()::$_4>, void (std::__ndk1::basic_string<char, std::__ndk1::char_traits<char>, std::__ndk1::allocator<char> > const&)>::destroy_deallocate()
FUNC 529ec 8c 0 std::__ndk1::__function::__func<Tab5::init()::$_4, std::__ndk1::allocator<Tab5::init()::$_4>, void (std::__ndk1::basic_string<char, std::__ndk1::char_traits<char>, std::__ndk1::allocator<char> > const&)>::operator()(std::__ndk1::basic_string<char, std::__ndk1::char_traits<char>, std::__ndk1::allocator<char> > const&)
FUNC 52a78 1c 0 std::__ndk1::__function::__func<Tab5::init()::$_4, std::__ndk1::allocator<Tab5::init()::$_4>, void (std::__ndk1::basic_string<char, std::__ndk1::char_traits<char>, std::__ndk1::allocator<char> > const&)>::target(std::type_info const&) const
FUNC 52a94 c 0 std::__ndk1::__function::__func<Tab5::init()::$_4, std::__ndk1::allocator<Tab5::init()::$_4>, void (std::__ndk1::basic_string<char, std::__ndk1::char_traits<char>, std::__ndk1::allocator<char> > const&)>::target_type() const
FUNC 52aa0 4 0 std::__ndk1::__function::__func<Tab5::init()::$_5, std::__ndk1::allocator<Tab5::init()::$_5>, void (std::__ndk1::basic_string<char, std::__ndk1::char_traits<char>, std::__ndk1::allocator<char> > const&)>::~__func()
FUNC 52aa4 34 0 std::__ndk1::__function::__func<Tab5::init()::$_5, std::__ndk1::allocator<Tab5::init()::$_5>, void (std::__ndk1::basic_string<char, std::__ndk1::char_traits<char>, std::__ndk1::allocator<char> > const&)>::__clone() const
FUNC 52ad8 14 0 std::__ndk1::__function::__func<Tab5::init()::$_5, std::__ndk1::allocator<Tab5::init()::$_5>, void (std::__ndk1::basic_string<char, std::__ndk1::char_traits<char>, std::__ndk1::allocator<char> > const&)>::__clone(std::__ndk1::__function::__base<void (std::__ndk1::basic_string<char, std::__ndk1::char_traits<char>, std::__ndk1::allocator<char> > const&)>*) const
FUNC 52aec 4 0 std::__ndk1::__function::__func<Tab5::init()::$_5, std::__ndk1::allocator<Tab5::init()::$_5>, void (std::__ndk1::basic_string<char, std::__ndk1::char_traits<char>, std::__ndk1::allocator<char> > const&)>::destroy()
FUNC 52af0 4 0 std::__ndk1::__function::__func<Tab5::init()::$_5, std::__ndk1::allocator<Tab5::init()::$_5>, void (std::__ndk1::basic_string<char, std::__ndk1::char_traits<char>, std::__ndk1::allocator<char> > const&)>::destroy_deallocate()
FUNC 52af4 8c 0 std::__ndk1::__function::__func<Tab5::init()::$_5, std::__ndk1::allocator<Tab5::init()::$_5>, void (std::__ndk1::basic_string<char, std::__ndk1::char_traits<char>, std::__ndk1::allocator<char> > const&)>::operator()(std::__ndk1::basic_string<char, std::__ndk1::char_traits<char>, std::__ndk1::allocator<char> > const&)
FUNC 52b80 1c 0 std::__ndk1::__function::__func<Tab5::init()::$_5, std::__ndk1::allocator<Tab5::init()::$_5>, void (std::__ndk1::basic_string<char, std::__ndk1::char_traits<char>, std::__ndk1::allocator<char> > const&)>::target(std::type_info const&) const
FUNC 52b9c c 0 std::__ndk1::__function::__func<Tab5::init()::$_5, std::__ndk1::allocator<Tab5::init()::$_5>, void (std::__ndk1::basic_string<char, std::__ndk1::char_traits<char>, std::__ndk1::allocator<char> > const&)>::target_type() const
FUNC 52ba8 4 0 std::__ndk1::__function::__func<Tab5::init()::$_6, std::__ndk1::allocator<Tab5::init()::$_6>, void (std::__ndk1::basic_string<char, std::__ndk1::char_traits<char>, std::__ndk1::allocator<char> > const&)>::~__func()
FUNC 52bac 34 0 std::__ndk1::__function::__func<Tab5::init()::$_6, std::__ndk1::allocator<Tab5::init()::$_6>, void (std::__ndk1::basic_string<char, std::__ndk1::char_traits<char>, std::__ndk1::allocator<char> > const&)>::__clone() const
FUNC 52be0 14 0 std::__ndk1::__function::__func<Tab5::init()::$_6, std::__ndk1::allocator<Tab5::init()::$_6>, void (std::__ndk1::basic_string<char, std::__ndk1::char_traits<char>, std::__ndk1::allocator<char> > const&)>::__clone(std::__ndk1::__function::__base<void (std::__ndk1::basic_string<char, std::__ndk1::char_traits<char>, std::__ndk1::allocator<char> > const&)>*) const
FUNC 52bf4 4 0 std::__ndk1::__function::__func<Tab5::init()::$_6, std::__ndk1::allocator<Tab5::init()::$_6>, void (std::__ndk1::basic_string<char, std::__ndk1::char_traits<char>, std::__ndk1::allocator<char> > const&)>::destroy()
FUNC 52bf8 4 0 std::__ndk1::__function::__func<Tab5::init()::$_6, std::__ndk1::allocator<Tab5::init()::$_6>, void (std::__ndk1::basic_string<char, std::__ndk1::char_traits<char>, std::__ndk1::allocator<char> > const&)>::destroy_deallocate()
FUNC 52bfc 8c 0 std::__ndk1::__function::__func<Tab5::init()::$_6, std::__ndk1::allocator<Tab5::init()::$_6>, void (std::__ndk1::basic_string<char, std::__ndk1::char_traits<char>, std::__ndk1::allocator<char> > const&)>::operator()(std::__ndk1::basic_string<char, std::__ndk1::char_traits<char>, std::__ndk1::allocator<char> > const&)
FUNC 52c88 1c 0 std::__ndk1::__function::__func<Tab5::init()::$_6, std::__ndk1::allocator<Tab5::init()::$_6>, void (std::__ndk1::basic_string<char, std::__ndk1::char_traits<char>, std::__ndk1::allocator<char> > const&)>::target(std::type_info const&) const
FUNC 52ca4 c 0 std::__ndk1::__function::__func<Tab5::init()::$_6, std::__ndk1::allocator<Tab5::init()::$_6>, void (std::__ndk1::basic_string<char, std::__ndk1::char_traits<char>, std::__ndk1::allocator<char> > const&)>::target_type() const
FUNC 52cb0 4 0 std::__ndk1::__function::__func<Tab5::init()::$_7, std::__ndk1::allocator<Tab5::init()::$_7>, void (std::__ndk1::basic_string<char, std::__ndk1::char_traits<char>, std::__ndk1::allocator<char> > const&)>::~__func()
FUNC 52cb4 34 0 std::__ndk1::__function::__func<Tab5::init()::$_7, std::__ndk1::allocator<Tab5::init()::$_7>, void (std::__ndk1::basic_string<char, std::__ndk1::char_traits<char>, std::__ndk1::allocator<char> > const&)>::__clone() const
FUNC 52ce8 14 0 std::__ndk1::__function::__func<Tab5::init()::$_7, std::__ndk1::allocator<Tab5::init()::$_7>, void (std::__ndk1::basic_string<char, std::__ndk1::char_traits<char>, std::__ndk1::allocator<char> > const&)>::__clone(std::__ndk1::__function::__base<void (std::__ndk1::basic_string<char, std::__ndk1::char_traits<char>, std::__ndk1::allocator<char> > const&)>*) const
FUNC 52cfc 4 0 std::__ndk1::__function::__func<Tab5::init()::$_7, std::__ndk1::allocator<Tab5::init()::$_7>, void (std::__ndk1::basic_string<char, std::__ndk1::char_traits<char>, std::__ndk1::allocator<char> > const&)>::destroy()
FUNC 52d00 4 0 std::__ndk1::__function::__func<Tab5::init()::$_7, std::__ndk1::allocator<Tab5::init()::$_7>, void (std::__ndk1::basic_string<char, std::__ndk1::char_traits<char>, std::__ndk1::allocator<char> > const&)>::destroy_deallocate()
FUNC 52d04 8c 0 std::__ndk1::__function::__func<Tab5::init()::$_7, std::__ndk1::allocator<Tab5::init()::$_7>, void (std::__ndk1::basic_string<char, std::__ndk1::char_traits<char>, std::__ndk1::allocator<char> > const&)>::operator()(std::__ndk1::basic_string<char, std::__ndk1::char_traits<char>, std::__ndk1::allocator<char> > const&)
FUNC 52d90 1c 0 std::__ndk1::__function::__func<Tab5::init()::$_7, std::__ndk1::allocator<Tab5::init()::$_7>, void (std::__ndk1::basic_string<char, std::__ndk1::char_traits<char>, std::__ndk1::allocator<char> > const&)>::target(std::type_info const&) const
FUNC 52dac c 0 std::__ndk1::__function::__func<Tab5::init()::$_7, std::__ndk1::allocator<Tab5::init()::$_7>, void (std::__ndk1::basic_string<char, std::__ndk1::char_traits<char>, std::__ndk1::allocator<char> > const&)>::target_type() const
FUNC 52db8 4 0 std::__ndk1::__function::__func<Tab5::init()::$_8, std::__ndk1::allocator<Tab5::init()::$_8>, void (std::__ndk1::basic_string<char, std::__ndk1::char_traits<char>, std::__ndk1::allocator<char> > const&)>::~__func()
FUNC 52dbc 34 0 std::__ndk1::__function::__func<Tab5::init()::$_8, std::__ndk1::allocator<Tab5::init()::$_8>, void (std::__ndk1::basic_string<char, std::__ndk1::char_traits<char>, std::__ndk1::allocator<char> > const&)>::__clone() const
FUNC 52df0 14 0 std::__ndk1::__function::__func<Tab5::init()::$_8, std::__ndk1::allocator<Tab5::init()::$_8>, void (std::__ndk1::basic_string<char, std::__ndk1::char_traits<char>, std::__ndk1::allocator<char> > const&)>::__clone(std::__ndk1::__function::__base<void (std::__ndk1::basic_string<char, std::__ndk1::char_traits<char>, std::__ndk1::allocator<char> > const&)>*) const
FUNC 52e04 4 0 std::__ndk1::__function::__func<Tab5::init()::$_8, std::__ndk1::allocator<Tab5::init()::$_8>, void (std::__ndk1::basic_string<char, std::__ndk1::char_traits<char>, std::__ndk1::allocator<char> > const&)>::destroy()
FUNC 52e08 4 0 std::__ndk1::__function::__func<Tab5::init()::$_8, std::__ndk1::allocator<Tab5::init()::$_8>, void (std::__ndk1::basic_string<char, std::__ndk1::char_traits<char>, std::__ndk1::allocator<char> > const&)>::destroy_deallocate()
FUNC 52e0c 8c 0 std::__ndk1::__function::__func<Tab5::init()::$_8, std::__ndk1::allocator<Tab5::init()::$_8>, void (std::__ndk1::basic_string<char, std::__ndk1::char_traits<char>, std::__ndk1::allocator<char> > const&)>::operator()(std::__ndk1::basic_string<char, std::__ndk1::char_traits<char>, std::__ndk1::allocator<char> > const&)
FUNC 52e98 1c 0 std::__ndk1::__function::__func<Tab5::init()::$_8, std::__ndk1::allocator<Tab5::init()::$_8>, void (std::__ndk1::basic_string<char, std::__ndk1::char_traits<char>, std::__ndk1::allocator<char> > const&)>::target(std::type_info const&) const
FUNC 52eb4 c 0 std::__ndk1::__function::__func<Tab5::init()::$_8, std::__ndk1::allocator<Tab5::init()::$_8>, void (std::__ndk1::basic_string<char, std::__ndk1::char_traits<char>, std::__ndk1::allocator<char> > const&)>::target_type() const
FUNC 52ec0 4 0 std::__ndk1::__function::__func<Tab5::init()::$_9, std::__ndk1::allocator<Tab5::init()::$_9>, void (std::__ndk1::basic_string<char, std::__ndk1::char_traits<char>, std::__ndk1::allocator<char> > const&)>::~__func()
FUNC 52ec4 34 0 std::__ndk1::__function::__func<Tab5::init()::$_9, std::__ndk1::allocator<Tab5::init()::$_9>, void (std::__ndk1::basic_string<char, std::__ndk1::char_traits<char>, std::__ndk1::allocator<char> > const&)>::__clone() const
FUNC 52ef8 14 0 std::__ndk1::__function::__func<Tab5::init()::$_9, std::__ndk1::allocator<Tab5::init()::$_9>, void (std::__ndk1::basic_string<char, std::__ndk1::char_traits<char>, std::__ndk1::allocator<char> > const&)>::__clone(std::__ndk1::__function::__base<void (std::__ndk1::basic_string<char, std::__ndk1::char_traits<char>, std::__ndk1::allocator<char> > const&)>*) const
FUNC 52f0c 4 0 std::__ndk1::__function::__func<Tab5::init()::$_9, std::__ndk1::allocator<Tab5::init()::$_9>, void (std::__ndk1::basic_string<char, std::__ndk1::char_traits<char>, std::__ndk1::allocator<char> > const&)>::destroy()
FUNC 52f10 4 0 std::__ndk1::__function::__func<Tab5::init()::$_9, std::__ndk1::allocator<Tab5::init()::$_9>, void (std::__ndk1::basic_string<char, std::__ndk1::char_traits<char>, std::__ndk1::allocator<char> > const&)>::destroy_deallocate()
FUNC 52f14 8c 0 std::__ndk1::__function::__func<Tab5::init()::$_9, std::__ndk1::allocator<Tab5::init()::$_9>, void (std::__ndk1::basic_string<char, std::__ndk1::char_traits<char>, std::__ndk1::allocator<char> > const&)>::operator()(std::__ndk1::basic_string<char, std::__ndk1::char_traits<char>, std::__ndk1::allocator<char> > const&)
FUNC 52fa0 1c 0 std::__ndk1::__function::__func<Tab5::init()::$_9, std::__ndk1::allocator<Tab5::init()::$_9>, void (std::__ndk1::basic_string<char, std::__ndk1::char_traits<char>, std::__ndk1::allocator<char> > const&)>::target(std::type_info const&) const
FUNC 52fbc c 0 std::__ndk1::__function::__func<Tab5::init()::$_9, std::__ndk1::allocator<Tab5::init()::$_9>, void (std::__ndk1::basic_string<char, std::__ndk1::char_traits<char>, std::__ndk1::allocator<char> > const&)>::target_type() const
FUNC 52fc8 4 0 std::__ndk1::__function::__func<Tab5::init()::$_10, std::__ndk1::allocator<Tab5::init()::$_10>, void (std::__ndk1::basic_string<char, std::__ndk1::char_traits<char>, std::__ndk1::allocator<char> > const&)>::~__func()
FUNC 52fcc 34 0 std::__ndk1::__function::__func<Tab5::init()::$_10, std::__ndk1::allocator<Tab5::init()::$_10>, void (std::__ndk1::basic_string<char, std::__ndk1::char_traits<char>, std::__ndk1::allocator<char> > const&)>::__clone() const
FUNC 53000 14 0 std::__ndk1::__function::__func<Tab5::init()::$_10, std::__ndk1::allocator<Tab5::init()::$_10>, void (std::__ndk1::basic_string<char, std::__ndk1::char_traits<char>, std::__ndk1::allocator<char> > const&)>::__clone(std::__ndk1::__function::__base<void (std::__ndk1::basic_string<char, std::__ndk1::char_traits<char>, std::__ndk1::allocator<char> > const&)>*) const
FUNC 53014 4 0 std::__ndk1::__function::__func<Tab5::init()::$_10, std::__ndk1::allocator<Tab5::init()::$_10>, void (std::__ndk1::basic_string<char, std::__ndk1::char_traits<char>, std::__ndk1::allocator<char> > const&)>::destroy()
FUNC 53018 4 0 std::__ndk1::__function::__func<Tab5::init()::$_10, std::__ndk1::allocator<Tab5::init()::$_10>, void (std::__ndk1::basic_string<char, std::__ndk1::char_traits<char>, std::__ndk1::allocator<char> > const&)>::destroy_deallocate()
FUNC 5301c 8c 0 std::__ndk1::__function::__func<Tab5::init()::$_10, std::__ndk1::allocator<Tab5::init()::$_10>, void (std::__ndk1::basic_string<char, std::__ndk1::char_traits<char>, std::__ndk1::allocator<char> > const&)>::operator()(std::__ndk1::basic_string<char, std::__ndk1::char_traits<char>, std::__ndk1::allocator<char> > const&)
FUNC 530a8 1c 0 std::__ndk1::__function::__func<Tab5::init()::$_10, std::__ndk1::allocator<Tab5::init()::$_10>, void (std::__ndk1::basic_string<char, std::__ndk1::char_traits<char>, std::__ndk1::allocator<char> > const&)>::target(std::type_info const&) const
FUNC 530c4 c 0 std::__ndk1::__function::__func<Tab5::init()::$_10, std::__ndk1::allocator<Tab5::init()::$_10>, void (std::__ndk1::basic_string<char, std::__ndk1::char_traits<char>, std::__ndk1::allocator<char> > const&)>::target_type() const
FUNC 530d0 4 0 std::__ndk1::__function::__func<Tab5::init()::$_11, std::__ndk1::allocator<Tab5::init()::$_11>, void (std::__ndk1::basic_string<char, std::__ndk1::char_traits<char>, std::__ndk1::allocator<char> > const&)>::~__func()
FUNC 530d4 34 0 std::__ndk1::__function::__func<Tab5::init()::$_11, std::__ndk1::allocator<Tab5::init()::$_11>, void (std::__ndk1::basic_string<char, std::__ndk1::char_traits<char>, std::__ndk1::allocator<char> > const&)>::__clone() const
FUNC 53108 14 0 std::__ndk1::__function::__func<Tab5::init()::$_11, std::__ndk1::allocator<Tab5::init()::$_11>, void (std::__ndk1::basic_string<char, std::__ndk1::char_traits<char>, std::__ndk1::allocator<char> > const&)>::__clone(std::__ndk1::__function::__base<void (std::__ndk1::basic_string<char, std::__ndk1::char_traits<char>, std::__ndk1::allocator<char> > const&)>*) const
FUNC 5311c 4 0 std::__ndk1::__function::__func<Tab5::init()::$_11, std::__ndk1::allocator<Tab5::init()::$_11>, void (std::__ndk1::basic_string<char, std::__ndk1::char_traits<char>, std::__ndk1::allocator<char> > const&)>::destroy()
FUNC 53120 4 0 std::__ndk1::__function::__func<Tab5::init()::$_11, std::__ndk1::allocator<Tab5::init()::$_11>, void (std::__ndk1::basic_string<char, std::__ndk1::char_traits<char>, std::__ndk1::allocator<char> > const&)>::destroy_deallocate()
FUNC 53124 8c 0 std::__ndk1::__function::__func<Tab5::init()::$_11, std::__ndk1::allocator<Tab5::init()::$_11>, void (std::__ndk1::basic_string<char, std::__ndk1::char_traits<char>, std::__ndk1::allocator<char> > const&)>::operator()(std::__ndk1::basic_string<char, std::__ndk1::char_traits<char>, std::__ndk1::allocator<char> > const&)
FUNC 531b0 1c 0 std::__ndk1::__function::__func<Tab5::init()::$_11, std::__ndk1::allocator<Tab5::init()::$_11>, void (std::__ndk1::basic_string<char, std::__ndk1::char_traits<char>, std::__ndk1::allocator<char> > const&)>::target(std::type_info const&) const
FUNC 531cc c 0 std::__ndk1::__function::__func<Tab5::init()::$_11, std::__ndk1::allocator<Tab5::init()::$_11>, void (std::__ndk1::basic_string<char, std::__ndk1::char_traits<char>, std::__ndk1::allocator<char> > const&)>::target_type() const
FUNC 531d8 4 0 std::__ndk1::__function::__func<Tab5::init()::$_12, std::__ndk1::allocator<Tab5::init()::$_12>, void (std::__ndk1::basic_string<char, std::__ndk1::char_traits<char>, std::__ndk1::allocator<char> > const&)>::~__func()
FUNC 531dc 34 0 std::__ndk1::__function::__func<Tab5::init()::$_12, std::__ndk1::allocator<Tab5::init()::$_12>, void (std::__ndk1::basic_string<char, std::__ndk1::char_traits<char>, std::__ndk1::allocator<char> > const&)>::__clone() const
FUNC 53210 14 0 std::__ndk1::__function::__func<Tab5::init()::$_12, std::__ndk1::allocator<Tab5::init()::$_12>, void (std::__ndk1::basic_string<char, std::__ndk1::char_traits<char>, std::__ndk1::allocator<char> > const&)>::__clone(std::__ndk1::__function::__base<void (std::__ndk1::basic_string<char, std::__ndk1::char_traits<char>, std::__ndk1::allocator<char> > const&)>*) const
FUNC 53224 4 0 std::__ndk1::__function::__func<Tab5::init()::$_12, std::__ndk1::allocator<Tab5::init()::$_12>, void (std::__ndk1::basic_string<char, std::__ndk1::char_traits<char>, std::__ndk1::allocator<char> > const&)>::destroy()
FUNC 53228 4 0 std::__ndk1::__function::__func<Tab5::init()::$_12, std::__ndk1::allocator<Tab5::init()::$_12>, void (std::__ndk1::basic_string<char, std::__ndk1::char_traits<char>, std::__ndk1::allocator<char> > const&)>::destroy_deallocate()
FUNC 5322c 8c 0 std::__ndk1::__function::__func<Tab5::init()::$_12, std::__ndk1::allocator<Tab5::init()::$_12>, void (std::__ndk1::basic_string<char, std::__ndk1::char_traits<char>, std::__ndk1::allocator<char> > const&)>::operator()(std::__ndk1::basic_string<char, std::__ndk1::char_traits<char>, std::__ndk1::allocator<char> > const&)
FUNC 532b8 1c 0 std::__ndk1::__function::__func<Tab5::init()::$_12, std::__ndk1::allocator<Tab5::init()::$_12>, void (std::__ndk1::basic_string<char, std::__ndk1::char_traits<char>, std::__ndk1::allocator<char> > const&)>::target(std::type_info const&) const
FUNC 532d4 c 0 std::__ndk1::__function::__func<Tab5::init()::$_12, std::__ndk1::allocator<Tab5::init()::$_12>, void (std::__ndk1::basic_string<char, std::__ndk1::char_traits<char>, std::__ndk1::allocator<char> > const&)>::target_type() const
FUNC 532e0 4 0 std::__ndk1::__function::__func<Tab5::init()::$_13, std::__ndk1::allocator<Tab5::init()::$_13>, void (std::__ndk1::basic_string<char, std::__ndk1::char_traits<char>, std::__ndk1::allocator<char> > const&)>::~__func()
FUNC 532e4 34 0 std::__ndk1::__function::__func<Tab5::init()::$_13, std::__ndk1::allocator<Tab5::init()::$_13>, void (std::__ndk1::basic_string<char, std::__ndk1::char_traits<char>, std::__ndk1::allocator<char> > const&)>::__clone() const
FUNC 53318 14 0 std::__ndk1::__function::__func<Tab5::init()::$_13, std::__ndk1::allocator<Tab5::init()::$_13>, void (std::__ndk1::basic_string<char, std::__ndk1::char_traits<char>, std::__ndk1::allocator<char> > const&)>::__clone(std::__ndk1::__function::__base<void (std::__ndk1::basic_string<char, std::__ndk1::char_traits<char>, std::__ndk1::allocator<char> > const&)>*) const
FUNC 5332c 4 0 std::__ndk1::__function::__func<Tab5::init()::$_13, std::__ndk1::allocator<Tab5::init()::$_13>, void (std::__ndk1::basic_string<char, std::__ndk1::char_traits<char>, std::__ndk1::allocator<char> > const&)>::destroy()
FUNC 53330 4 0 std::__ndk1::__function::__func<Tab5::init()::$_13, std::__ndk1::allocator<Tab5::init()::$_13>, void (std::__ndk1::basic_string<char, std::__ndk1::char_traits<char>, std::__ndk1::allocator<char> > const&)>::destroy_deallocate()
FUNC 53334 8c 0 std::__ndk1::__function::__func<Tab5::init()::$_13, std::__ndk1::allocator<Tab5::init()::$_13>, void (std::__ndk1::basic_string<char, std::__ndk1::char_traits<char>, std::__ndk1::allocator<char> > const&)>::operator()(std::__ndk1::basic_string<char, std::__ndk1::char_traits<char>, std::__ndk1::allocator<char> > const&)
FUNC 533c0 1c 0 std::__ndk1::__function::__func<Tab5::init()::$_13, std::__ndk1::allocator<Tab5::init()::$_13>, void (std::__ndk1::basic_string<char, std::__ndk1::char_traits<char>, std::__ndk1::allocator<char> > const&)>::target(std::type_info const&) const
FUNC 533dc c 0 std::__ndk1::__function::__func<Tab5::init()::$_13, std::__ndk1::allocator<Tab5::init()::$_13>, void (std::__ndk1::basic_string<char, std::__ndk1::char_traits<char>, std::__ndk1::allocator<char> > const&)>::target_type() const
FUNC 533e8 4 0 std::__ndk1::__function::__func<Tab5::init()::$_14, std::__ndk1::allocator<Tab5::init()::$_14>, void (std::__ndk1::basic_string<char, std::__ndk1::char_traits<char>, std::__ndk1::allocator<char> > const&)>::~__func()
FUNC 533ec 34 0 std::__ndk1::__function::__func<Tab5::init()::$_14, std::__ndk1::allocator<Tab5::init()::$_14>, void (std::__ndk1::basic_string<char, std::__ndk1::char_traits<char>, std::__ndk1::allocator<char> > const&)>::__clone() const
FUNC 53420 14 0 std::__ndk1::__function::__func<Tab5::init()::$_14, std::__ndk1::allocator<Tab5::init()::$_14>, void (std::__ndk1::basic_string<char, std::__ndk1::char_traits<char>, std::__ndk1::allocator<char> > const&)>::__clone(std::__ndk1::__function::__base<void (std::__ndk1::basic_string<char, std::__ndk1::char_traits<char>, std::__ndk1::allocator<char> > const&)>*) const
FUNC 53434 4 0 std::__ndk1::__function::__func<Tab5::init()::$_14, std::__ndk1::allocator<Tab5::init()::$_14>, void (std::__ndk1::basic_string<char, std::__ndk1::char_traits<char>, std::__ndk1::allocator<char> > const&)>::destroy()
FUNC 53438 4 0 std::__ndk1::__function::__func<Tab5::init()::$_14, std::__ndk1::allocator<Tab5::init()::$_14>, void (std::__ndk1::basic_string<char, std::__ndk1::char_traits<char>, std::__ndk1::allocator<char> > const&)>::destroy_deallocate()
FUNC 5343c 8c 0 std::__ndk1::__function::__func<Tab5::init()::$_14, std::__ndk1::allocator<Tab5::init()::$_14>, void (std::__ndk1::basic_string<char, std::__ndk1::char_traits<char>, std::__ndk1::allocator<char> > const&)>::operator()(std::__ndk1::basic_string<char, std::__ndk1::char_traits<char>, std::__ndk1::allocator<char> > const&)
FUNC 534c8 1c 0 std::__ndk1::__function::__func<Tab5::init()::$_14, std::__ndk1::allocator<Tab5::init()::$_14>, void (std::__ndk1::basic_string<char, std::__ndk1::char_traits<char>, std::__ndk1::allocator<char> > const&)>::target(std::type_info const&) const
FUNC 534e4 c 0 std::__ndk1::__function::__func<Tab5::init()::$_14, std::__ndk1::allocator<Tab5::init()::$_14>, void (std::__ndk1::basic_string<char, std::__ndk1::char_traits<char>, std::__ndk1::allocator<char> > const&)>::target_type() const
FUNC 534f0 4 0 std::__ndk1::__function::__func<Tab5::init()::$_15, std::__ndk1::allocator<Tab5::init()::$_15>, void (std::__ndk1::basic_string<char, std::__ndk1::char_traits<char>, std::__ndk1::allocator<char> > const&)>::~__func()
FUNC 534f4 34 0 std::__ndk1::__function::__func<Tab5::init()::$_15, std::__ndk1::allocator<Tab5::init()::$_15>, void (std::__ndk1::basic_string<char, std::__ndk1::char_traits<char>, std::__ndk1::allocator<char> > const&)>::__clone() const
FUNC 53528 14 0 std::__ndk1::__function::__func<Tab5::init()::$_15, std::__ndk1::allocator<Tab5::init()::$_15>, void (std::__ndk1::basic_string<char, std::__ndk1::char_traits<char>, std::__ndk1::allocator<char> > const&)>::__clone(std::__ndk1::__function::__base<void (std::__ndk1::basic_string<char, std::__ndk1::char_traits<char>, std::__ndk1::allocator<char> > const&)>*) const
FUNC 5353c 4 0 std::__ndk1::__function::__func<Tab5::init()::$_15, std::__ndk1::allocator<Tab5::init()::$_15>, void (std::__ndk1::basic_string<char, std::__ndk1::char_traits<char>, std::__ndk1::allocator<char> > const&)>::destroy()
FUNC 53540 4 0 std::__ndk1::__function::__func<Tab5::init()::$_15, std::__ndk1::allocator<Tab5::init()::$_15>, void (std::__ndk1::basic_string<char, std::__ndk1::char_traits<char>, std::__ndk1::allocator<char> > const&)>::destroy_deallocate()
FUNC 53544 8c 0 std::__ndk1::__function::__func<Tab5::init()::$_15, std::__ndk1::allocator<Tab5::init()::$_15>, void (std::__ndk1::basic_string<char, std::__ndk1::char_traits<char>, std::__ndk1::allocator<char> > const&)>::operator()(std::__ndk1::basic_string<char, std::__ndk1::char_traits<char>, std::__ndk1::allocator<char> > const&)
FUNC 535d0 1c 0 std::__ndk1::__function::__func<Tab5::init()::$_15, std::__ndk1::allocator<Tab5::init()::$_15>, void (std::__ndk1::basic_string<char, std::__ndk1::char_traits<char>, std::__ndk1::allocator<char> > const&)>::target(std::type_info const&) const
FUNC 535ec c 0 std::__ndk1::__function::__func<Tab5::init()::$_15, std::__ndk1::allocator<Tab5::init()::$_15>, void (std::__ndk1::basic_string<char, std::__ndk1::char_traits<char>, std::__ndk1::allocator<char> > const&)>::target_type() const
FUNC 535f8 4 0 std::__ndk1::__function::__func<Tab5::init()::$_16, std::__ndk1::allocator<Tab5::init()::$_16>, void (std::__ndk1::basic_string<char, std::__ndk1::char_traits<char>, std::__ndk1::allocator<char> > const&)>::~__func()
FUNC 535fc 34 0 std::__ndk1::__function::__func<Tab5::init()::$_16, std::__ndk1::allocator<Tab5::init()::$_16>, void (std::__ndk1::basic_string<char, std::__ndk1::char_traits<char>, std::__ndk1::allocator<char> > const&)>::__clone() const
FUNC 53630 14 0 std::__ndk1::__function::__func<Tab5::init()::$_16, std::__ndk1::allocator<Tab5::init()::$_16>, void (std::__ndk1::basic_string<char, std::__ndk1::char_traits<char>, std::__ndk1::allocator<char> > const&)>::__clone(std::__ndk1::__function::__base<void (std::__ndk1::basic_string<char, std::__ndk1::char_traits<char>, std::__ndk1::allocator<char> > const&)>*) const
FUNC 53644 4 0 std::__ndk1::__function::__func<Tab5::init()::$_16, std::__ndk1::allocator<Tab5::init()::$_16>, void (std::__ndk1::basic_string<char, std::__ndk1::char_traits<char>, std::__ndk1::allocator<char> > const&)>::destroy()
FUNC 53648 4 0 std::__ndk1::__function::__func<Tab5::init()::$_16, std::__ndk1::allocator<Tab5::init()::$_16>, void (std::__ndk1::basic_string<char, std::__ndk1::char_traits<char>, std::__ndk1::allocator<char> > const&)>::destroy_deallocate()
FUNC 5364c 8c 0 std::__ndk1::__function::__func<Tab5::init()::$_16, std::__ndk1::allocator<Tab5::init()::$_16>, void (std::__ndk1::basic_string<char, std::__ndk1::char_traits<char>, std::__ndk1::allocator<char> > const&)>::operator()(std::__ndk1::basic_string<char, std::__ndk1::char_traits<char>, std::__ndk1::allocator<char> > const&)
FUNC 536d8 1c 0 std::__ndk1::__function::__func<Tab5::init()::$_16, std::__ndk1::allocator<Tab5::init()::$_16>, void (std::__ndk1::basic_string<char, std::__ndk1::char_traits<char>, std::__ndk1::allocator<char> > const&)>::target(std::type_info const&) const
FUNC 536f4 c 0 std::__ndk1::__function::__func<Tab5::init()::$_16, std::__ndk1::allocator<Tab5::init()::$_16>, void (std::__ndk1::basic_string<char, std::__ndk1::char_traits<char>, std::__ndk1::allocator<char> > const&)>::target_type() const
FUNC 53700 4 0 std::__ndk1::__function::__func<Tab5::init()::$_17, std::__ndk1::allocator<Tab5::init()::$_17>, void (std::__ndk1::basic_string<char, std::__ndk1::char_traits<char>, std::__ndk1::allocator<char> > const&)>::~__func()
FUNC 53704 34 0 std::__ndk1::__function::__func<Tab5::init()::$_17, std::__ndk1::allocator<Tab5::init()::$_17>, void (std::__ndk1::basic_string<char, std::__ndk1::char_traits<char>, std::__ndk1::allocator<char> > const&)>::__clone() const
FUNC 53738 14 0 std::__ndk1::__function::__func<Tab5::init()::$_17, std::__ndk1::allocator<Tab5::init()::$_17>, void (std::__ndk1::basic_string<char, std::__ndk1::char_traits<char>, std::__ndk1::allocator<char> > const&)>::__clone(std::__ndk1::__function::__base<void (std::__ndk1::basic_string<char, std::__ndk1::char_traits<char>, std::__ndk1::allocator<char> > const&)>*) const
FUNC 5374c 4 0 std::__ndk1::__function::__func<Tab5::init()::$_17, std::__ndk1::allocator<Tab5::init()::$_17>, void (std::__ndk1::basic_string<char, std::__ndk1::char_traits<char>, std::__ndk1::allocator<char> > const&)>::destroy()
FUNC 53750 4 0 std::__ndk1::__function::__func<Tab5::init()::$_17, std::__ndk1::allocator<Tab5::init()::$_17>, void (std::__ndk1::basic_string<char, std::__ndk1::char_traits<char>, std::__ndk1::allocator<char> > const&)>::destroy_deallocate()
FUNC 53754 8c 0 std::__ndk1::__function::__func<Tab5::init()::$_17, std::__ndk1::allocator<Tab5::init()::$_17>, void (std::__ndk1::basic_string<char, std::__ndk1::char_traits<char>, std::__ndk1::allocator<char> > const&)>::operator()(std::__ndk1::basic_string<char, std::__ndk1::char_traits<char>, std::__ndk1::allocator<char> > const&)
FUNC 537e0 1c 0 std::__ndk1::__function::__func<Tab5::init()::$_17, std::__ndk1::allocator<Tab5::init()::$_17>, void (std::__ndk1::basic_string<char, std::__ndk1::char_traits<char>, std::__ndk1::allocator<char> > const&)>::target(std::type_info const&) const
FUNC 537fc c 0 std::__ndk1::__function::__func<Tab5::init()::$_17, std::__ndk1::allocator<Tab5::init()::$_17>, void (std::__ndk1::basic_string<char, std::__ndk1::char_traits<char>, std::__ndk1::allocator<char> > const&)>::target_type() const
FUNC 53808 4 0 std::__ndk1::__function::__func<Tab5::init()::$_18, std::__ndk1::allocator<Tab5::init()::$_18>, void (std::__ndk1::basic_string<char, std::__ndk1::char_traits<char>, std::__ndk1::allocator<char> > const&)>::~__func()
FUNC 5380c 34 0 std::__ndk1::__function::__func<Tab5::init()::$_18, std::__ndk1::allocator<Tab5::init()::$_18>, void (std::__ndk1::basic_string<char, std::__ndk1::char_traits<char>, std::__ndk1::allocator<char> > const&)>::__clone() const
FUNC 53840 14 0 std::__ndk1::__function::__func<Tab5::init()::$_18, std::__ndk1::allocator<Tab5::init()::$_18>, void (std::__ndk1::basic_string<char, std::__ndk1::char_traits<char>, std::__ndk1::allocator<char> > const&)>::__clone(std::__ndk1::__function::__base<void (std::__ndk1::basic_string<char, std::__ndk1::char_traits<char>, std::__ndk1::allocator<char> > const&)>*) const
FUNC 53854 4 0 std::__ndk1::__function::__func<Tab5::init()::$_18, std::__ndk1::allocator<Tab5::init()::$_18>, void (std::__ndk1::basic_string<char, std::__ndk1::char_traits<char>, std::__ndk1::allocator<char> > const&)>::destroy()
FUNC 53858 4 0 std::__ndk1::__function::__func<Tab5::init()::$_18, std::__ndk1::allocator<Tab5::init()::$_18>, void (std::__ndk1::basic_string<char, std::__ndk1::char_traits<char>, std::__ndk1::allocator<char> > const&)>::destroy_deallocate()
FUNC 5385c 8c 0 std::__ndk1::__function::__func<Tab5::init()::$_18, std::__ndk1::allocator<Tab5::init()::$_18>, void (std::__ndk1::basic_string<char, std::__ndk1::char_traits<char>, std::__ndk1::allocator<char> > const&)>::operator()(std::__ndk1::basic_string<char, std::__ndk1::char_traits<char>, std::__ndk1::allocator<char> > const&)
FUNC 538e8 1c 0 std::__ndk1::__function::__func<Tab5::init()::$_18, std::__ndk1::allocator<Tab5::init()::$_18>, void (std::__ndk1::basic_string<char, std::__ndk1::char_traits<char>, std::__ndk1::allocator<char> > const&)>::target(std::type_info const&) const
FUNC 53904 c 0 std::__ndk1::__function::__func<Tab5::init()::$_18, std::__ndk1::allocator<Tab5::init()::$_18>, void (std::__ndk1::basic_string<char, std::__ndk1::char_traits<char>, std::__ndk1::allocator<char> > const&)>::target_type() const
FUNC 53910 4 0 std::__ndk1::__function::__func<Tab5::init()::$_19, std::__ndk1::allocator<Tab5::init()::$_19>, void (std::__ndk1::basic_string<char, std::__ndk1::char_traits<char>, std::__ndk1::allocator<char> > const&)>::~__func()
FUNC 53914 34 0 std::__ndk1::__function::__func<Tab5::init()::$_19, std::__ndk1::allocator<Tab5::init()::$_19>, void (std::__ndk1::basic_string<char, std::__ndk1::char_traits<char>, std::__ndk1::allocator<char> > const&)>::__clone() const
FUNC 53948 14 0 std::__ndk1::__function::__func<Tab5::init()::$_19, std::__ndk1::allocator<Tab5::init()::$_19>, void (std::__ndk1::basic_string<char, std::__ndk1::char_traits<char>, std::__ndk1::allocator<char> > const&)>::__clone(std::__ndk1::__function::__base<void (std::__ndk1::basic_string<char, std::__ndk1::char_traits<char>, std::__ndk1::allocator<char> > const&)>*) const
FUNC 5395c 4 0 std::__ndk1::__function::__func<Tab5::init()::$_19, std::__ndk1::allocator<Tab5::init()::$_19>, void (std::__ndk1::basic_string<char, std::__ndk1::char_traits<char>, std::__ndk1::allocator<char> > const&)>::destroy()
FUNC 53960 4 0 std::__ndk1::__function::__func<Tab5::init()::$_19, std::__ndk1::allocator<Tab5::init()::$_19>, void (std::__ndk1::basic_string<char, std::__ndk1::char_traits<char>, std::__ndk1::allocator<char> > const&)>::destroy_deallocate()
FUNC 53964 8c 0 std::__ndk1::__function::__func<Tab5::init()::$_19, std::__ndk1::allocator<Tab5::init()::$_19>, void (std::__ndk1::basic_string<char, std::__ndk1::char_traits<char>, std::__ndk1::allocator<char> > const&)>::operator()(std::__ndk1::basic_string<char, std::__ndk1::char_traits<char>, std::__ndk1::allocator<char> > const&)
FUNC 539f0 1c 0 std::__ndk1::__function::__func<Tab5::init()::$_19, std::__ndk1::allocator<Tab5::init()::$_19>, void (std::__ndk1::basic_string<char, std::__ndk1::char_traits<char>, std::__ndk1::allocator<char> > const&)>::target(std::type_info const&) const
FUNC 53a0c c 0 std::__ndk1::__function::__func<Tab5::init()::$_19, std::__ndk1::allocator<Tab5::init()::$_19>, void (std::__ndk1::basic_string<char, std::__ndk1::char_traits<char>, std::__ndk1::allocator<char> > const&)>::target_type() const
FUNC 53a18 30 0 geodeImplicitEntry
FUNC 53a48 4c 0 std::__ndk1::unordered_map<void*, bool, std::__ndk1::hash<void*>, std::__ndk1::equal_to<void*>, std::__ndk1::allocator<std::__ndk1::pair<void* const, bool> > >::~unordered_map[abi:ne180000]()
FUNC 53a94 134 0 wrapFunction(unsigned long, tulip::hook::WrapperMetadata const&)
FUNC 53bc8 78 0 geode::impl::ResultData<void*, std::__ndk1::basic_string<char, std::__ndk1::char_traits<char>, std::__ndk1::allocator<char> > >::unwrapErr() &
FUNC 53c40 74 0 geode::impl::ResultData<void*, std::__ndk1::basic_string<char, std::__ndk1::char_traits<char>, std::__ndk1::allocator<char> > >::~ResultData()
FUNC 53cb4 64 0 tulip::hook::WrapperMetadata::~WrapperMetadata()
FUNC 53d18 24 0 cocos2d::CCObject::~CCObject()
FUNC 53d3c 24 0 cocos2d::CCNode::~CCNode()
FUNC 53d60 8 0 {virtual override thunk({offset(-320)}, cocos2d::CCLayer::~CCLayer())}
FUNC 53d68 24 0 cocos2d::CCLayer::~CCLayer()
FUNC 53d8c 28 0 {virtual override thunk({offset(-320)}, cocos2d::CCLayer::~CCLayer())}
FUNC 53db4 288 0 cocos2d::CCLayerRGBA::CCLayerRGBA()
FUNC 5403c 2f0 0 cocos2d::CCLayerRGBA::~CCLayerRGBA()
FUNC 5432c 8 0 {virtual override thunk({offset(-320)}, cocos2d::CCLayerRGBA::~CCLayerRGBA())}
FUNC 54334 24 0 cocos2d::CCLayerRGBA::~CCLayerRGBA()
FUNC 54358 28 0 {virtual override thunk({offset(-320)}, cocos2d::CCLayerRGBA::~CCLayerRGBA())}
FUNC 54380 260 0 cocos2d::CCLayerColor::CCLayerColor()
FUNC 545e0 8 0 {virtual override thunk({offset(-320)}, cocos2d::CCLayerColor::~CCLayerColor())}
FUNC 545e8 24 0 cocos2d::CCLayerColor::~CCLayerColor()
FUNC 5460c 28 0 {virtual override thunk({offset(-320)}, cocos2d::CCLayerColor::~CCLayerColor())}
FUNC 54634 8 0 {virtual override thunk({offset(-320)}, FLAlertLayer::~FLAlertLayer())}
FUNC 5463c 24 0 FLAlertLayer::~FLAlertLayer()
FUNC 54660 28 0 {virtual override thunk({offset(-320)}, FLAlertLayer::~FLAlertLayer())}
FUNC 54688 1f8 0 CCMenuItemToggler::createWithStandardSprites(cocos2d::CCObject*, void (cocos2d::CCObject::*)(cocos2d::CCObject*), float)
FUNC 54880 4 0 cocos2d::CCObject::update(float)
FUNC 54884 2d4 0 cocos2d::CCLayerColor::~CCLayerColor()
FUNC 54b58 2d4 0 FLAlertLayer::~FLAlertLayer()
FUNC 54e2c 290 0 cocos2d::CCNode::~CCNode()
FUNC 550bc 2e0 0 cocos2d::CCLayer::~CCLayer()
FUNC 5539c 4ac 0 cocos2d::CCObject::~CCObject()
FUNC 55848 154 0 _ZN5geode15UnwrapExceptionC2IRPvQsr4implE18IsStringStreamableIT_EEENS_4impl5OkTagEOS4_
FUNC 5599c 168 0 _ZN5geode15UnwrapExceptionC2IRNSt6__ndk112basic_stringIcNS2_11char_traitsIcEENS2_9allocatorIcEEEEQsr4implE18IsStringStreamableIT_EEENS_4impl6ErrTagEOSA_
FUNC 55b04 4 0 std::__ndk1::__variant_detail::__visitation::__base::__dispatcher<(unsigned long)0>::__dispatch[abi:ne180000]<std::__ndk1::__variant_detail::__dtor<std::__ndk1::__variant_detail::__traits<void*, std::__ndk1::basic_string<char, std::__ndk1::char_traits<char>, std::__ndk1::allocator<char> > >, (std::__ndk1::__variant_detail::_Trait)1>::__destroy[abi:ne180000]()::{lambda(auto:1&)#1}, std::__ndk1::__variant_detail::__base<(std::__ndk1::__variant_detail::__traits<void*, std::__ndk1::basic_string<char, std::__ndk1::char_traits<char>, std::__ndk1::allocator<char> > >)1, std::__ndk1::__variant_detail::__traits, std::__ndk1::allocator<char> >&>(std::__ndk1::__variant_detail::__dtor<std::__ndk1::__variant_detail::__traits<void*, std::__ndk1::basic_string<char, std::__ndk1::char_traits<char>, std::__ndk1::allocator<char> > >, (std::__ndk1::__variant_detail::_Trait)1>, std::__ndk1::__variant_detail::__base<(std::__ndk1::__variant_detail::__traits<void*, std::__ndk1::basic_string<char, std::__ndk1::char_traits<char>, std::__ndk1::allocator<char> > >)1, std::__ndk1::__variant_detail::__traits, std::__ndk1::allocator<char> >&)
FUNC 55b08 14 0 std::__ndk1::__variant_detail::__visitation::__base::__dispatcher<(unsigned long)1>::__dispatch[abi:ne180000]<std::__ndk1::__variant_detail::__dtor<std::__ndk1::__variant_detail::__traits<void*, std::__ndk1::basic_string<char, std::__ndk1::char_traits<char>, std::__ndk1::allocator<char> > >, (std::__ndk1::__variant_detail::_Trait)1>::__destroy[abi:ne180000]()::{lambda(auto:1&)#1}, std::__ndk1::__variant_detail::__base<(std::__ndk1::__variant_detail::__traits<void*, std::__ndk1::basic_string<char, std::__ndk1::char_traits<char>, std::__ndk1::allocator<char> > >)1, std::__ndk1::__variant_detail::__traits, std::__ndk1::allocator<char> >&>(std::__ndk1::__variant_detail::__dtor<std::__ndk1::__variant_detail::__traits<void*, std::__ndk1::basic_string<char, std::__ndk1::char_traits<char>, std::__ndk1::allocator<char> > >, (std::__ndk1::__variant_detail::_Trait)1>, std::__ndk1::__variant_detail::__base<(std::__ndk1::__variant_detail::__traits<void*, std::__ndk1::basic_string<char, std::__ndk1::char_traits<char>, std::__ndk1::allocator<char> > >)1, std::__ndk1::__variant_detail::__traits, std::__ndk1::allocator<char> >&)
FUNC 55b1c 430 0 std::__ndk1::__hash_table<std::__ndk1::__hash_value_type<void*, bool>, std::__ndk1::__unordered_map_hasher<void*, std::__ndk1::__hash_value_type<void*, bool>, std::__ndk1::hash<void*>, std::__ndk1::equal_to<void*>, true>, std::__ndk1::__unordered_map_equal<void*, std::__ndk1::__hash_value_type<void*, bool>, std::__ndk1::equal_to<void*>, std::__ndk1::hash<void*>, true>, std::__ndk1::allocator<std::__ndk1::__hash_value_type<void*, bool> > >::__emplace_unique_key_args<void*, std::__ndk1::piecewise_construct_t const&, std::__ndk1::tuple<void* const&>, std::__ndk1::tuple<> >(void* const&, std::__ndk1::piecewise_construct_t const&, std::__ndk1::tuple<void* const&>, std::__ndk1::tuple<>)
PUBLIC 55f4c 0 __udivti3
PUBLIC 55f58 0 __udivmodti4
PUBLIC m 561a4 0 __eqtf2
PUBLIC 56244 0 __unordtf2
FUNC 5627c 294 0 fmt::v11::detail::write_loc(fmt::v11::basic_appender<char>, fmt::v11::loc_value, fmt::v11::format_specs const&, fmt::v11::detail::locale_ref)
FUNC 56510 70 0 fmt::v11::format_facet<std::__ndk1::locale>::~format_facet()
FUNC 56580 50 0 fmt::v11::report_error(char const*)
FUNC 565d0 2c 0 fmt::v11::format_error::runtime_error(char const*)
FUNC 565fc 750 0 fmt::v11::format_facet<std::__ndk1::locale>::do_put(fmt::v11::basic_appender<char>, fmt::v11::loc_value, fmt::v11::format_specs const&) const
FUNC 56d4c 64 0 fmt::v11::detail::loc_writer<char>::~loc_writer()
FUNC 56db0 12c 0 fmt::v11::vformat(fmt::v11::basic_string_view<char>, fmt::v11::basic_format_args<fmt::v11::context>)
FUNC 56edc 3c8 0 fmt::v11::detail::vformat_to<char>(fmt::v11::detail::buffer<char>&, fmt::v11::basic_string_view<char>, fmt::v11::detail::vformat_args<char>::type, fmt::v11::detail::locale_ref)
FUNC 572a4 228 0 fmt::v11::detail::is_printable(unsigned int)
FUNC 574cc 2b4 0 fmt::v11::detail::dragonbox::to_decimal<float>(float)
FUNC 57780 530 0 fmt::v11::detail::dragonbox::to_decimal<double>(double)
FUNC 57cb0 78 0 fmt::v11::basic_memory_buffer<char, (unsigned long)500, std::__ndk1::allocator<char> >::grow(fmt::v11::detail::buffer<char>&, unsigned long)
FUNC 57d28 78 0 fmt::v11::format_facet<std::__ndk1::locale>::~format_facet()
FUNC 57da0 24 0 fmt::v11::format_error::~format_error()
FUNC 57dc4 150 0 fmt::v11::detail::copy_noinline<char, char const*, fmt::v11::basic_appender<char> >(char const*, char const*, fmt::v11::basic_appender<char>)
FUNC 57f14 6c 0 fmt::v11::detail::default_arg_formatter<char>::operator()<bool>(bool)
FUNC 57f80 74 0 fmt::v11::detail::default_arg_formatter<char>::operator()<char>(char)
FUNC 57ff4 f0 0 fmt::v11::detail::default_arg_formatter<char>::operator()<float>(float)
FUNC 580e4 f0 0 fmt::v11::detail::default_arg_formatter<char>::operator()<double>(double)
FUNC 581d4 48 0 fmt::v11::detail::default_arg_formatter<char>::operator()<char const*>(char const*)
FUNC 5821c 9c 0 fmt::v11::detail::default_arg_formatter<char>::operator()<void const*>(void const*)
FUNC 582b8 220 0 _ZN3fmt3v116detail5writeIcNS0_14basic_appenderIcEEiTnNSt6__ndk19enable_ifIXaaaasr11is_integralIT1_EE5valuentsr3std7is_sameIS7_bEE5valuentsr3std7is_sameIS7_T_EE5valueEiE4typeELi0EEET0_SB_S7_
FUNC 584d8 150 0 fmt::v11::detail::copy_noinline<char, char*, fmt::v11::basic_appender<char> >(char*, char*, fmt::v11::basic_appender<char>)
FUNC 58628 1c4 0 _ZN3fmt3v116detail5writeIcNS0_14basic_appenderIcEEjTnNSt6__ndk19enable_ifIXaaaasr11is_integralIT1_EE5valuentsr3std7is_sameIS7_bEE5valuentsr3std7is_sameIS7_T_EE5valueEiE4typeELi0EEET0_SB_S7_
FUNC 587ec 244 0 _ZN3fmt3v116detail5writeIcNS0_14basic_appenderIcEExTnNSt6__ndk19enable_ifIXaaaasr11is_integralIT1_EE5valuentsr3std7is_sameIS7_bEE5valuentsr3std7is_sameIS7_T_EE5valueEiE4typeELi0EEET0_SB_S7_
FUNC 58a30 1ec 0 _ZN3fmt3v116detail5writeIcNS0_14basic_appenderIcEEyTnNSt6__ndk19enable_ifIXaaaasr11is_integralIT1_EE5valuentsr3std7is_sameIS7_bEE5valuentsr3std7is_sameIS7_T_EE5valueEiE4typeELi0EEET0_SB_S7_
FUNC 58c1c 304 0 _ZN3fmt3v116detail5writeIcNS0_14basic_appenderIcEEnTnNSt6__ndk19enable_ifIXaaaasr11is_integralIT1_EE5valuentsr3std7is_sameIS7_bEE5valuentsr3std7is_sameIS7_T_EE5valueEiE4typeELi0EEET0_SB_S7_
FUNC 58f20 2a4 0 _ZN3fmt3v116detail5writeIcNS0_14basic_appenderIcEEoTnNSt6__ndk19enable_ifIXaaaasr11is_integralIT1_EE5valuentsr3std7is_sameIS7_bEE5valuentsr3std7is_sameIS7_T_EE5valueEiE4typeELi0EEET0_SB_S7_
FUNC 591c4 290 0 _ZN3fmt3v116detail5writeIcNS0_14basic_appenderIcEEbTnNSt6__ndk19enable_ifIXsr3std7is_sameIT1_bEE5valueEiE4typeELi0EEET0_SA_S7_RKNS0_12format_specsENS1_10locale_refE
FUNC 59454 dc0 0 fmt::v11::detail::write_int_noinline<char, fmt::v11::basic_appender<char>, unsigned int>(fmt::v11::basic_appender<char>, fmt::v11::detail::write_int_arg<unsigned int>, fmt::v11::format_specs const&, fmt::v11::detail::locale_ref)
FUNC 5a214 1d0 0 fmt::v11::detail::fill<char, fmt::v11::basic_appender<char> >(fmt::v11::basic_appender<char>, unsigned long, fmt::v11::detail::fill_t const&)
FUNC 5a3e4 22c 0 fmt::v11::detail::write_padded<char, (fmt::v11::align::type)1, fmt::v11::basic_appender<char>, fmt::v11::detail::write_char<char, fmt::v11::basic_appender<char> >(fmt::v11::basic_appender<char>, char, fmt::v11::format_specs const&)::{lambda(fmt::v11::basic_appender<char>&)#1}>(fmt::v11::basic_appender<char>, fmt::v11::format_specs const&, unsigned long, unsigned long, fmt::v11::detail::write_char<char, fmt::v11::basic_appender<char> >(fmt::v11::basic_appender<char>, char, fmt::v11::format_specs const&)::{lambda(fmt::v11::basic_appender<char>&)#1})
FUNC 5a610 30c 0 fmt::v11::detail::write_escaped_cp<fmt::v11::basic_appender<char>, char>(fmt::v11::basic_appender<char>, fmt::v11::detail::find_escape_result<char> const&)
FUNC 5a91c 178 0 fmt::v11::detail::write_codepoint<(unsigned long)2, char, fmt::v11::basic_appender<char> >(fmt::v11::basic_appender<char>, char, unsigned int)
FUNC 5aa94 178 0 fmt::v11::detail::write_codepoint<(unsigned long)8, char, fmt::v11::basic_appender<char> >(fmt::v11::basic_appender<char>, char, unsigned int)
FUNC 5ac0c 240 0 fmt::v11::detail::write_padded<char, (fmt::v11::align::type)1, fmt::v11::basic_appender<char>, fmt::v11::detail::write_nonfinite<char, fmt::v11::basic_appender<char> >(fmt::v11::basic_appender<char>, bool, fmt::v11::format_specs, fmt::v11::sign::type)::{lambda(fmt::v11::basic_appender<char>&)#1}>(fmt::v11::basic_appender<char>, fmt::v11::format_specs const&, unsigned long, unsigned long, fmt::v11::detail::write_nonfinite<char, fmt::v11::basic_appender<char> >(fmt::v11::basic_appender<char>, bool, fmt::v11::format_specs, fmt::v11::sign::type)::{lambda(fmt::v11::basic_appender<char>&)#1})
FUNC 5ae4c c2c 0 fmt::v11::detail::do_write_float<char, fmt::v11::basic_appender<char>, fmt::v11::detail::dragonbox::decimal_fp<float>, fmt::v11::detail::digit_grouping<char> >(fmt::v11::basic_appender<char>, fmt::v11::detail::dragonbox::decimal_fp<float> const&, fmt::v11::format_specs const&, fmt::v11::detail::float_specs, fmt::v11::detail::locale_ref)
FUNC 5ba78 154 0 fmt::v11::detail::do_write_float<char, fmt::v11::basic_appender<char>, fmt::v11::detail::dragonbox::decimal_fp<float>, fmt::v11::detail::digit_grouping<char> >(fmt::v11::basic_appender<char>, fmt::v11::detail::dragonbox::decimal_fp<float> const&, fmt::v11::format_specs const&, fmt::v11::detail::float_specs, fmt::v11::detail::locale_ref)::{lambda(fmt::v11::basic_appender<char>(fmt::v11::basic_appender<char>))#1}::operator() const
FUNC 5bbcc 238 0 fmt::v11::detail::digit_grouping<char>::digit_grouping(fmt::v11::detail::locale_ref, bool)
FUNC 5be04 44 0 fmt::v11::detail::digit_grouping<char>::~digit_grouping()
FUNC 5be48 1a4 0 fmt::v11::detail::write_exponent<char, fmt::v11::basic_appender<char> >(int, fmt::v11::basic_appender<char>)
FUNC 5bfec 17c 0 _ZN3fmt3v116detail17write_significandIcjTnNSt6__ndk19enable_ifIXsr3std11is_integralIT0_EE5valueEiE4typeELi0EEEPT_S9_S5_iiS8_
FUNC 5c168 ac 0 std::__ndk1::basic_string<char, std::__ndk1::char_traits<char>, std::__ndk1::allocator<char> >::__assign_no_alias<true>(char const*, unsigned long)
FUNC 5c214 100 0 std::__ndk1::basic_string<char, std::__ndk1::char_traits<char>, std::__ndk1::allocator<char> >::__assign_no_alias<false>(char const*, unsigned long)
FUNC 5c314 3a4 0 fmt::v11::detail::digit_grouping<char>::apply<fmt::v11::basic_appender<char>, char>(fmt::v11::basic_appender<char>, fmt::v11::basic_string_view<char>) const
FUNC 5c6b8 a0 0 fmt::v11::basic_memory_buffer<int, (unsigned long)500, std::__ndk1::allocator<int> >::grow(fmt::v11::detail::buffer<int>&, unsigned long)
FUNC 5c758 c6c 0 fmt::v11::detail::do_write_float<char, fmt::v11::basic_appender<char>, fmt::v11::detail::dragonbox::decimal_fp<double>, fmt::v11::detail::digit_grouping<char> >(fmt::v11::basic_appender<char>, fmt::v11::detail::dragonbox::decimal_fp<double> const&, fmt::v11::format_specs const&, fmt::v11::detail::float_specs, fmt::v11::detail::locale_ref)
FUNC 5d3c4 158 0 fmt::v11::detail::do_write_float<char, fmt::v11::basic_appender<char>, fmt::v11::detail::dragonbox::decimal_fp<double>, fmt::v11::detail::digit_grouping<char> >(fmt::v11::basic_appender<char>, fmt::v11::detail::dragonbox::decimal_fp<double> const&, fmt::v11::format_specs const&, fmt::v11::detail::float_specs, fmt::v11::detail::locale_ref)::{lambda(fmt::v11::basic_appender<char>(fmt::v11::basic_appender<char>))#1}::operator() const
FUNC 5d51c 190 0 _ZN3fmt3v116detail17write_significandIcmTnNSt6__ndk19enable_ifIXsr3std11is_integralIT0_EE5valueEiE4typeELi0EEEPT_S9_S5_iiS8_
FUNC 5d6ac ad4 0 fmt::v11::detail::write_float<char, fmt::v11::basic_appender<char>, long double>(fmt::v11::basic_appender<char>, long double, fmt::v11::format_specs, fmt::v11::detail::locale_ref)
FUNC 5e180 1dc 0 fmt::v11::detail::write_padded<char, (fmt::v11::align::type)2, fmt::v11::basic_appender<char>, fmt::v11::detail::write_bytes<char, (fmt::v11::align::type)2, fmt::v11::basic_appender<char> >(fmt::v11::basic_appender<char>, fmt::v11::basic_string_view<char>, fmt::v11::format_specs const&)::{lambda(fmt::v11::basic_appender<char>&)#1}>(fmt::v11::basic_appender<char>, fmt::v11::format_specs const&, unsigned long, unsigned long, fmt::v11::detail::write_bytes<char, (fmt::v11::align::type)2, fmt::v11::basic_appender<char> >(fmt::v11::basic_appender<char>, fmt::v11::basic_string_view<char>, fmt::v11::format_specs const&)::{lambda(fmt::v11::basic_appender<char>&)#1})
FUNC 5e35c 1350 0 fmt::v11::detail::format_dragon(fmt::v11::detail::basic_fp<unsigned __int128>, unsigned int, int, fmt::v11::detail::buffer<char>&, int&)
FUNC 5f6ac 124 0 fmt::v11::detail::bigint::operator<<=(int)
FUNC 5f7d0 744 0 fmt::v11::detail::bigint::assign_pow10(int)
FUNC 5ff14 2f4 0 fmt::v11::detail::bigint::divmod_assign(fmt::v11::detail::bigint const&)
FUNC 60208 a0 0 fmt::v11::basic_memory_buffer<unsigned int, (unsigned long)32, std::__ndk1::allocator<unsigned int> >::grow(fmt::v11::detail::buffer<unsigned int>&, unsigned long)
FUNC 602a8 e84 0 fmt::v11::detail::do_write_float<char, fmt::v11::basic_appender<char>, fmt::v11::detail::big_decimal_fp, fmt::v11::detail::digit_grouping<char> >(fmt::v11::basic_appender<char>, fmt::v11::detail::big_decimal_fp const&, fmt::v11::format_specs const&, fmt::v11::detail::float_specs, fmt::v11::detail::locale_ref)
FUNC 6112c 160 0 fmt::v11::detail::do_write_float<char, fmt::v11::basic_appender<char>, fmt::v11::detail::big_decimal_fp, fmt::v11::detail::digit_grouping<char> >(fmt::v11::basic_appender<char>, fmt::v11::detail::big_decimal_fp const&, fmt::v11::format_specs const&, fmt::v11::detail::float_specs, fmt::v11::detail::locale_ref)::{lambda(fmt::v11::basic_appender<char>(fmt::v11::basic_appender<char>))#1}::operator() const
FUNC 6128c 214 0 fmt::v11::detail::write_padded<char, (fmt::v11::align::type)2, fmt::v11::basic_appender<char>, fmt::v11::detail::write_ptr<char, fmt::v11::basic_appender<char>, unsigned long>(fmt::v11::basic_appender<char>, unsigned long, fmt::v11::format_specs const*)::{lambda(fmt::v11::basic_appender<char>&)#1}>(fmt::v11::basic_appender<char>, fmt::v11::format_specs const&, unsigned long, unsigned long, fmt::v11::detail::write_ptr<char, fmt::v11::basic_appender<char>, unsigned long>(fmt::v11::basic_appender<char>, unsigned long, fmt::v11::format_specs const*)::{lambda(fmt::v11::basic_appender<char>&)#1})
FUNC 614a0 1c3c 0 fmt::v11::detail::parse_replacement_field<char, fmt::v11::detail::vformat_to<char>(fmt::v11::detail::buffer<char>&, fmt::v11::basic_string_view<char>, fmt::v11::detail::vformat_args<char>::type, fmt::v11::detail::locale_ref)::format_handler&>(char const*, char const*, fmt::v11::detail::vformat_to<char>(fmt::v11::detail::buffer<char>&, fmt::v11::basic_string_view<char>, fmt::v11::detail::vformat_args<char>::type, fmt::v11::detail::locale_ref)::format_handler&)
FUNC 630dc 288 0 fmt::v11::detail::parse_dynamic_spec<char>(char const*, char const*, int&, fmt::v11::detail::arg_ref<char>&, fmt::v11::basic_format_parse_context<char>&)
FUNC 63364 158 0 fmt::v11::basic_format_args<fmt::v11::context>::get<char>(fmt::v11::basic_string_view<char>) const
FUNC 634bc e24 0 fmt::v11::detail::write_int_noinline<char, fmt::v11::basic_appender<char>, unsigned long>(fmt::v11::basic_appender<char>, fmt::v11::detail::write_int_arg<unsigned long>, fmt::v11::format_specs const&, fmt::v11::detail::locale_ref)
FUNC 642e0 fc8 0 fmt::v11::detail::write_int_noinline<char, fmt::v11::basic_appender<char>, unsigned __int128>(fmt::v11::basic_appender<char>, fmt::v11::detail::write_int_arg<unsigned __int128>, fmt::v11::format_specs const&, fmt::v11::detail::locale_ref)
FUNC 652a8 510 0 _ZN3fmt3v116detail15format_hexfloatIdTnNSt6__ndk19enable_ifIXntsr16is_double_doubleIT_EE5valueEiE4typeELi0EEEvS5_NS0_12format_specsERNS1_6bufferIcEE
FUNC 657b8 98c 0 fmt::v11::detail::format_float<double>(double, int, fmt::v11::detail::float_specs, fmt::v11::detail::buffer<char>&)
FUNC 66144 cb8 0 fmt::v11::detail::write<char, fmt::v11::basic_appender<char> >(fmt::v11::basic_appender<char>, fmt::v11::basic_string_view<char>, fmt::v11::format_specs const&)
FUNC 66dfc 17c 0 fmt::v11::detail::for_each_codepoint<fmt::v11::detail::find_escape(char const*, char const*)::{lambda(unsigned int, fmt::v11::basic_string_view<char>)#1}>(fmt::v11::basic_string_view<char>, fmt::v11::detail::find_escape(char const*, char const*)::{lambda(unsigned int, fmt::v11::basic_string_view<char>)#1})::{lambda(char const*, char const*)#1}::operator()(char const*, char const*) const
FUNC 66f78 1b8 0 fmt::v11::detail::for_each_codepoint<fmt::v11::detail::compute_width(fmt::v11::basic_string_view<char>)::count_code_points>(fmt::v11::basic_string_view<char>, fmt::v11::detail::compute_width(fmt::v11::basic_string_view<char>)::count_code_points)::{lambda(char const*, char const*)#1}::operator()(char const*, char const*) const
FUNC 67130 570 0 fmt::v11::detail::write_int<fmt::v11::basic_appender<char>, unsigned long, char>(fmt::v11::basic_appender<char>, unsigned long, unsigned int, fmt::v11::format_specs const&, fmt::v11::detail::digit_grouping<char> const&)
FUNC 676a0 664 0 fmt::v11::detail::write_int<fmt::v11::basic_appender<char>, unsigned __int128, char>(fmt::v11::basic_appender<char>, unsigned __int128, unsigned int, fmt::v11::format_specs const&, fmt::v11::detail::digit_grouping<char> const&)
PUBLIC 67d10 0 <.plt ELF section in ninsam.to-do_list.android64.so>
STACK CFI INIT 328c0 10 .cfa: sp 0 +
STACK CFI INIT 328d0 8 .cfa: sp 0 +
STACK CFI INIT 328d8 8 .cfa: sp 0 +
STACK CFI INIT 328e0 14 .cfa: sp 0 +
STACK CFI INIT 328f4 1c .cfa: sp 0 +
STACK CFI INIT 32910 10 .cfa: sp 0 +
STACK CFI INIT 32920 134 .cfa: sp 0 +
STACK CFI INIT 32a54 84 .cfa: sp 0 +
STACK CFI INIT 32ad8 f4 .cfa: sp 0 +
STACK CFI INIT 32bcc a8 .cfa: sp 0 +
STACK CFI INIT 32c74 7c .cfa: sp 0 +
STACK CFI INIT 32cf0 14 .cfa: sp 0 +
STACK CFI INIT 32d04 40 .cfa: sp 0 +
STACK CFI INIT 32d44 28 .cfa: sp 0 +
STACK CFI INIT 32d6c 190 .cfa: sp 0 +
STACK CFI INIT 32efc 2c8 .cfa: sp 0 +
STACK CFI INIT 331c4 8 .cfa: sp 0 +
STACK CFI INIT 331cc 8 .cfa: sp 0 +
STACK CFI INIT 331d4 44 .cfa: sp 0 +
STACK CFI INIT 33218 e8 .cfa: sp 0 +
STACK CFI INIT 33300 e8 .cfa: sp 0 +
STACK CFI INIT 333e8 14 .cfa: sp 0 +
STACK CFI INIT 333fc 10 .cfa: sp 0 +
STACK CFI INIT 3340c 10 .cfa: sp 0 +
STACK CFI INIT 3341c f0 .cfa: sp 0 +
STACK CFI INIT 3350c 44 .cfa: sp 0 +
STACK CFI INIT 33550 c .cfa: sp 0 +
STACK CFI INIT 3355c c .cfa: sp 0 +
STACK CFI INIT 33568 2c .cfa: sp 0 +
STACK CFI INIT 33594 280 .cfa: sp 0 +
STACK CFI INIT 33814 c .cfa: sp 0 +
STACK CFI INIT 33820 120 .cfa: sp 0 +
STACK CFI INIT 33940 488 .cfa: sp 0 +
STACK CFI INIT 33dc8 c48 .cfa: sp 0 +
STACK CFI INIT 34a10 134 .cfa: sp 0 +
STACK CFI INIT 34b44 210 .cfa: sp 0 +
STACK CFI INIT 34d54 38c .cfa: sp 0 +
STACK CFI INIT 350e0 1c8 .cfa: sp 0 +
STACK CFI INIT 352a8 9bc .cfa: sp 0 +
STACK CFI INIT 35c64 2d4 .cfa: sp 0 +
STACK CFI INIT 35f38 134 .cfa: sp 0 +
STACK CFI INIT 3606c 120 .cfa: sp 0 +
STACK CFI INIT 3618c 1c8 .cfa: sp 0 +
STACK CFI INIT 36354 168 .cfa: sp 0 +
STACK CFI INIT 364bc fc .cfa: sp 0 +
STACK CFI INIT 365b8 30 .cfa: sp 0 +
STACK CFI INIT 36720 30 .cfa: sp 0 +
STACK CFI INIT 36750 98 .cfa: sp 0 +
STACK CFI INIT 367e8 59c .cfa: sp 0 +
STACK CFI INIT 36d84 8c .cfa: sp 0 +
STACK CFI INIT 36e10 30 .cfa: sp 0 +
STACK CFI INIT 37970 18 .cfa: sp 0 +
STACK CFI INIT 38018 50 .cfa: sp 0 +
STACK CFI 3801c .cfa: sp 32 +
STACK CFI 38024 .cfa: x29 32 + x19: .cfa -16 + ^ .ra: .cfa -24 + ^ x29: .cfa -32 + ^
STACK CFI 3803c .cfa: sp 32 +
STACK CFI 38044 .cfa: sp 0 +
STACK CFI 38048 .cfa: x29 32 +
STACK CFI 3805c .cfa: sp 32 +
STACK CFI 38064 .cfa: sp 0 +
STACK CFI INIT 380dc 7c .cfa: sp 0 +
STACK CFI 380e0 .cfa: sp 48 +
STACK CFI 380ec .cfa: x29 48 + x19: .cfa -8 + ^ x20: .cfa -16 + ^ x21: .cfa -32 + ^ .ra: .cfa -40 + ^ x29: .cfa -48 + ^
STACK CFI 38138 .cfa: sp 48 +
STACK CFI 38144 .cfa: sp 0 +
STACK CFI 38148 .cfa: sp 48 +
STACK CFI 38154 .cfa: sp 0 +
STACK CFI INIT 38158 4 .cfa: sp 0 +
STACK CFI INIT 3815c 10 .cfa: sp 0 +
STACK CFI 38160 .cfa: sp 16 +
STACK CFI 38164 .cfa: x29 16 + .ra: .cfa -8 + ^ x29: .cfa -16 + ^
STACK CFI INIT 382c0 34 .cfa: sp 0 +
STACK CFI 382c4 .cfa: sp 16 +
STACK CFI 382c8 .cfa: x29 16 + .ra: .cfa -8 + ^ x29: .cfa -16 + ^
STACK CFI INIT 38418 80 .cfa: sp 0 +
STACK CFI 3841c .cfa: sp 48 +
STACK CFI 38428 .cfa: x29 48 + x19: .cfa -8 + ^ x20: .cfa -16 + ^ x21: .cfa -32 + ^ .ra: .cfa -40 + ^ x29: .cfa -48 + ^
STACK CFI 38488 .cfa: sp 48 +
STACK CFI 38494 .cfa: sp 0 +
STACK CFI INIT 38498 24 .cfa: sp 0 +
STACK CFI 3849c .cfa: sp 32 +
STACK CFI 384a4 .cfa: x29 32 + x19: .cfa -16 + ^ .ra: .cfa -24 + ^ x29: .cfa -32 + ^
STACK CFI 384b0 .cfa: sp 32 +
STACK CFI 384b8 .cfa: sp 0 +
STACK CFI INIT 38808 14 .cfa: sp 0 +
STACK CFI 3880c .cfa: sp 16 +
STACK CFI 38810 .cfa: x29 16 + .ra: .cfa -8 + ^ x29: .cfa -16 + ^
STACK CFI INIT 3886c 30 .cfa: sp 0 +
STACK CFI 38870 .cfa: sp 32 +
STACK CFI 38878 .cfa: x29 32 + x19: .cfa -16 + ^ .ra: .cfa -24 + ^ x29: .cfa -32 + ^
STACK CFI 38890 .cfa: sp 32 +
STACK CFI 38898 .cfa: sp 0 +
STACK CFI INIT 3889c 34 .cfa: sp 0 +
STACK CFI 388a0 .cfa: sp 32 +
STACK CFI 388a8 .cfa: x29 32 + x19: .cfa -16 + ^ .ra: .cfa -24 + ^ x29: .cfa -32 + ^
STACK CFI INIT 38a2c 148 .cfa: sp 0 +
STACK CFI 38a30 .cfa: sp 48 +
STACK CFI 38a3c .cfa: x29 48 + x19: .cfa -8 + ^ x20: .cfa -16 + ^ x21: .cfa -32 + ^ .ra: .cfa -40 + ^ x29: .cfa -48 + ^
STACK CFI 38b64 .cfa: sp 48 +
STACK CFI 38b70 .cfa: sp 0 +
STACK CFI INIT 38b74 70 .cfa: sp 0 +
STACK CFI 38b78 .cfa: sp 48 +
STACK CFI 38b84 .cfa: x29 48 + x19: .cfa -8 + ^ x20: .cfa -16 + ^ x21: .cfa -24 + ^ x22: .cfa -32 + ^ .ra: .cfa -40 + ^ x29: .cfa -48 + ^
STACK CFI 38bcc .cfa: sp 48 +
STACK CFI 38bd8 .cfa: sp 0 +
STACK CFI 38bdc .cfa: x29 48 +
STACK CFI INIT 38be4 68 .cfa: sp 0 +
STACK CFI 38be8 .cfa: sp 32 +
STACK CFI 38bf0 .cfa: x29 32 + x19: .cfa -8 + ^ x20: .cfa -16 + ^ .ra: .cfa -24 + ^ x29: .cfa -32 + ^
STACK CFI 38c08 .cfa: sp 32 +
STACK CFI 38c10 .cfa: sp 0 +
STACK CFI 38c14 .cfa: x29 32 +
STACK CFI 38c40 .cfa: sp 32 +
STACK CFI 38c48 .cfa: sp 0 +
STACK CFI INIT 38c4c 14 .cfa: sp 0 +
STACK CFI 38c50 .cfa: sp 16 +
STACK CFI 38c54 .cfa: x29 16 + .ra: .cfa -8 + ^ x29: .cfa -16 + ^
STACK CFI INIT 38c60 4 .cfa: sp 0 +
STACK CFI INIT 38c64 14 .cfa: sp 0 +
STACK CFI INIT 38c78 84 .cfa: sp 0 +
STACK CFI 38c80 .cfa: sp 32 +
STACK CFI 38c88 .cfa: x29 32 + x19: .cfa -8 + ^ x20: .cfa -16 + ^ .ra: .cfa -24 + ^ x29: .cfa -32 + ^
STACK CFI 38cc8 .cfa: sp 32 +
STACK CFI 38cd0 .cfa: sp 0 +
STACK CFI 38cd8 .cfa: x29 32 +
STACK CFI INIT 392f4 3c .cfa: sp 0 +
STACK CFI 392f8 .cfa: sp 32 +
STACK CFI 39300 .cfa: x29 32 + x19: .cfa -8 + ^ x20: .cfa -16 + ^ .ra: .cfa -24 + ^ x29: .cfa -32 + ^
STACK CFI 39324 .cfa: sp 32 +
STACK CFI 3932c .cfa: sp 0 +
STACK CFI INIT 39330 50 .cfa: sp 0 +
STACK CFI 39334 .cfa: sp 32 +
STACK CFI 3933c .cfa: x29 32 + x19: .cfa -16 + ^ .ra: .cfa -24 + ^ x29: .cfa -32 + ^
STACK CFI 39354 .cfa: sp 32 +
STACK CFI 3935c .cfa: sp 0 +
STACK CFI 39360 .cfa: x29 32 +
STACK CFI 39374 .cfa: sp 32 +
STACK CFI 3937c .cfa: sp 0 +
STACK CFI INIT 39380 64 .cfa: sp 0 +
STACK CFI 39384 .cfa: sp 32 +
STACK CFI 3938c .cfa: x29 32 + x19: .cfa -16 + ^ .ra: .cfa -24 + ^ x29: .cfa -32 + ^
STACK CFI 393b8 .cfa: sp 32 +
STACK CFI 393c0 .cfa: sp 0 +
STACK CFI 393c4 .cfa: x29 32 +
STACK CFI 393d8 .cfa: sp 32 +
STACK CFI 393e0 .cfa: sp 0 +
STACK CFI INIT 393e4 1c .cfa: sp 0 +
STACK CFI 393e8 .cfa: sp 16 +
STACK CFI 393ec .cfa: x29 16 + .ra: .cfa -8 + ^ x29: .cfa -16 + ^
STACK CFI 393f8 .cfa: sp 16 +
STACK CFI 393fc .cfa: sp 0 +
STACK CFI INIT 39400 50 .cfa: sp 0 +
STACK CFI 39404 .cfa: sp 32 +
STACK CFI 3940c .cfa: x29 32 + x19: .cfa -16 + ^ .ra: .cfa -24 + ^ x29: .cfa -32 + ^
STACK CFI 39424 .cfa: sp 32 +
STACK CFI 3942c .cfa: sp 0 +
STACK CFI 39430 .cfa: x29 32 +
STACK CFI 39444 .cfa: sp 32 +
STACK CFI 3944c .cfa: sp 0 +
STACK CFI INIT 39450 d8 .cfa: sp 0 +
STACK CFI 39454 .cfa: sp 64 +
STACK CFI 39464 .cfa: x29 64 + x19: .cfa -8 + ^ x20: .cfa -16 + ^ x21: .cfa -24 + ^ x22: .cfa -32 + ^ x23: .cfa -48 + ^ .ra: .cfa -56 + ^ x29: .cfa -64 + ^
STACK CFI 394dc .cfa: sp 64 +
STACK CFI 394ec .cfa: sp 0 +
STACK CFI 394f0 .cfa: x29 64 +
STACK CFI INIT 39b50 4 .cfa: sp 0 +
STACK CFI INIT 39b54 14 .cfa: sp 0 +
STACK CFI 39b58 .cfa: sp 16 +
STACK CFI 39b5c .cfa: x29 16 + .ra: .cfa -8 + ^ x29: .cfa -16 + ^
STACK CFI INIT 39b68 14 .cfa: sp 0 +
STACK CFI 39b6c .cfa: sp 16 +
STACK CFI 39b70 .cfa: x29 16 + .ra: .cfa -8 + ^ x29: .cfa -16 + ^
STACK CFI INIT 39b7c c .cfa: sp 0 +
STACK CFI 39b80 .cfa: sp 16 +
STACK CFI 39b84 .cfa: x29 16 + .ra: .cfa -8 + ^ x29: .cfa -16 + ^
STACK CFI INIT 39bd8 30 .cfa: sp 0 +
STACK CFI 39bdc .cfa: sp 32 +
STACK CFI 39be4 .cfa: x29 32 + x19: .cfa -16 + ^ .ra: .cfa -24 + ^ x29: .cfa -32 + ^
STACK CFI 39bfc .cfa: sp 32 +
STACK CFI 39c04 .cfa: sp 0 +
STACK CFI INIT 39c08 c .cfa: sp 0 +
STACK CFI 39c0c .cfa: sp 16 +
STACK CFI 39c10 .cfa: x29 16 + .ra: .cfa -8 + ^ x29: .cfa -16 + ^
STACK CFI INIT 39c14 4 .cfa: sp 0 +
STACK CFI INIT 39c18 4 .cfa: sp 0 +
STACK CFI INIT 39c1c 38 .cfa: sp 0 +
STACK CFI 39c20 .cfa: sp 32 +
STACK CFI 39c28 .cfa: x29 32 + x19: .cfa -16 + ^ .ra: .cfa -24 + ^ x29: .cfa -32 + ^
STACK CFI 39c48 .cfa: sp 32 +
STACK CFI 39c50 .cfa: sp 0 +
STACK CFI INIT 39c54 18 .cfa: sp 0 +
STACK CFI INIT 39c6c 4 .cfa: sp 0 +
STACK CFI INIT 39c70 4 .cfa: sp 0 +
STACK CFI INIT 39c74 10 .cfa: sp 0 +
STACK CFI INIT 39c84 1c .cfa: sp 0 +
STACK CFI INIT 39ca0 c .cfa: sp 0 +
STACK CFI INIT 39cac 104 .cfa: sp 0 +
STACK CFI 39cb0 .cfa: sp 80 +
STACK CFI 39cc4 .cfa: x29 80 + x19: .cfa -8 + ^ x20: .cfa -16 + ^ x21: .cfa -24 + ^ x22: .cfa -32 + ^ x23: .cfa -40 + ^ x24: .cfa -48 + ^ x25: .cfa -56 + ^ x26: .cfa -64 + ^ .ra: .cfa -72 + ^ x29: .cfa -80 + ^
STACK CFI 39d98 .cfa: sp 80 +
STACK CFI 39dac .cfa: sp 0 +
STACK CFI INIT 39db0 19c .cfa: sp 0 +
STACK CFI INIT 3bb18 4 .cfa: sp 0 +
STACK CFI INIT 3bdb4 c .cfa: sp 0 +
STACK CFI INIT 3bdc0 3c .cfa: sp 0 +
STACK CFI 3bdc4 .cfa: sp 32 +
STACK CFI 3bdcc .cfa: x29 32 + x19: .cfa -16 + ^ .ra: .cfa -24 + ^ x29: .cfa -32 + ^
STACK CFI 3bdf0 .cfa: sp 32 +
STACK CFI 3bdf8 .cfa: sp 0 +
STACK CFI INIT 3bdfc 5c8 .cfa: sp 0 +
STACK CFI 3be00 .cfa: sp 96 +
STACK CFI 3be14 .cfa: x29 32 + x19: .cfa -8 + ^ x20: .cfa -16 + ^ .ra: .cfa -24 + ^ x29: .cfa -32 + ^ v8: .cfa -40 + ^ v9: .cfa -48 + ^ v10: .cfa -64 + ^
STACK CFI 3c3a8 .cfa: sp 96 +
STACK CFI 3c3bc .cfa: sp 0 +
STACK CFI 3c3c0 .cfa: x29 32 +
STACK CFI INIT 3c4ac 8 .cfa: sp 0 +
STACK CFI INIT 3c4b4 24 .cfa: sp 0 +
STACK CFI 3c4b8 .cfa: sp 32 +
STACK CFI 3c4c0 .cfa: x29 32 + x19: .cfa -16 + ^ .ra: .cfa -24 + ^ x29: .cfa -32 + ^
STACK CFI 3c4cc .cfa: sp 32 +
STACK CFI 3c4d4 .cfa: sp 0 +
STACK CFI INIT 3c4d8 4 .cfa: sp 0 +
STACK CFI INIT 3c4dc 8 .cfa: sp 0 +
STACK CFI INIT 3c4e4 8 .cfa: sp 0 +
STACK CFI INIT 3c4ec 28 .cfa: sp 0 +
STACK CFI 3c4f0 .cfa: sp 32 +
STACK CFI 3c4f8 .cfa: x29 32 + x19: .cfa -16 + ^ .ra: .cfa -24 + ^ x29: .cfa -32 + ^
STACK CFI 3c508 .cfa: sp 32 +
STACK CFI 3c510 .cfa: sp 0 +
STACK CFI INIT 3c514 4 .cfa: sp 0 +
STACK CFI INIT 3c518 4 .cfa: sp 0 +
STACK CFI INIT 3c51c 4 .cfa: sp 0 +
STACK CFI INIT 3c520 4 .cfa: sp 0 +
STACK CFI INIT 3c524 4 .cfa: sp 0 +
STACK CFI INIT 3c528 8 .cfa: sp 0 +
STACK CFI INIT 3c618 4 .cfa: sp 0 +
STACK CFI INIT 3c61c 14 .cfa: sp 0 +
STACK CFI INIT 3c630 14 .cfa: sp 0 +
STACK CFI INIT 3c644 14 .cfa: sp 0 +
STACK CFI INIT 3c658 4 .cfa: sp 0 +
STACK CFI INIT 3c65c 34 .cfa: sp 0 +
STACK CFI 3c660 .cfa: sp 32 +
STACK CFI 3c668 .cfa: x29 32 + x19: .cfa -16 + ^ .ra: .cfa -24 + ^ x29: .cfa -32 + ^
STACK CFI 3c684 .cfa: sp 32 +
STACK CFI 3c68c .cfa: sp 0 +
STACK CFI INIT 3c690 14 .cfa: sp 0 +
STACK CFI INIT 3c6a4 4 .cfa: sp 0 +
STACK CFI INIT 3c6a8 4 .cfa: sp 0 +
STACK CFI INIT 3c6ac 8c .cfa: sp 0 +
STACK CFI 3c6b0 .cfa: sp 80 +
STACK CFI 3c6c0 .cfa: x29 48 + x19: .cfa -8 + ^ x20: .cfa -16 + ^ x21: .cfa -32 + ^ .ra: .cfa -40 + ^ x29: .cfa -48 + ^
STACK CFI 3c720 .cfa: sp 80 +
STACK CFI 3c730 .cfa: sp 0 +
STACK CFI 3c734 .cfa: x29 48 +
STACK CFI INIT 3c738 1c .cfa: sp 0 +
STACK CFI INIT 3c754 c .cfa: sp 0 +
STACK CFI INIT 3ca7c 4 .cfa: sp 0 +
STACK CFI INIT 3ca80 34 .cfa: sp 0 +
STACK CFI 3ca84 .cfa: sp 32 +
STACK CFI 3ca8c .cfa: x29 32 + x19: .cfa -16 + ^ .ra: .cfa -24 + ^ x29: .cfa -32 + ^
STACK CFI 3caa8 .cfa: sp 32 +
STACK CFI 3cab0 .cfa: sp 0 +
STACK CFI INIT 3cab4 14 .cfa: sp 0 +
STACK CFI INIT 3cac8 4 .cfa: sp 0 +
STACK CFI INIT 3cacc 4 .cfa: sp 0 +
STACK CFI INIT 3cad0 8c .cfa: sp 0 +
STACK CFI 3cad4 .cfa: sp 80 +
STACK CFI 3cae4 .cfa: x29 48 + x19: .cfa -8 + ^ x20: .cfa -16 + ^ x21: .cfa -32 + ^ .ra: .cfa -40 + ^ x29: .cfa -48 + ^
STACK CFI 3cb44 .cfa: sp 80 +
STACK CFI 3cb54 .cfa: sp 0 +
STACK CFI 3cb58 .cfa: x29 48 +
STACK CFI INIT 3cb5c 1c .cfa: sp 0 +
STACK CFI INIT 3cb78 c .cfa: sp 0 +
STACK CFI INIT 3cb84 4 .cfa: sp 0 +
STACK CFI INIT 3cb88 34 .cfa: sp 0 +
STACK CFI 3cb8c .cfa: sp 32 +
STACK CFI 3cb94 .cfa: x29 32 + x19: .cfa -16 + ^ .ra: .cfa -24 + ^ x29: .cfa -32 + ^
STACK CFI 3cbb0 .cfa: sp 32 +
STACK CFI 3cbb8 .cfa: sp 0 +
STACK CFI INIT 3cbbc 14 .cfa: sp 0 +
STACK CFI INIT 3cbd0 4 .cfa: sp 0 +
STACK CFI INIT 3cbd4 4 .cfa: sp 0 +
STACK CFI INIT 3cbd8 8c .cfa: sp 0 +
STACK CFI 3cbdc .cfa: sp 80 +
STACK CFI 3cbec .cfa: x29 48 + x19: .cfa -8 + ^ x20: .cfa -16 + ^ x21: .cfa -32 + ^ .ra: .cfa -40 + ^ x29: .cfa -48 + ^
STACK CFI 3cc4c .cfa: sp 80 +
STACK CFI 3cc5c .cfa: sp 0 +
STACK CFI 3cc60 .cfa: x29 48 +
STACK CFI INIT 3cc64 1c .cfa: sp 0 +
STACK CFI INIT 3cc80 c .cfa: sp 0 +
STACK CFI INIT 3cc8c 4 .cfa: sp 0 +
STACK CFI INIT 3cc90 34 .cfa: sp 0 +
STACK CFI 3cc94 .cfa: sp 32 +
STACK CFI 3cc9c .cfa: x29 32 + x19: .cfa -16 + ^ .ra: .cfa -24 + ^ x29: .cfa -32 + ^
STACK CFI 3ccb8 .cfa: sp 32 +
STACK CFI 3ccc0 .cfa: sp 0 +
STACK CFI INIT 3ccc4 14 .cfa: sp 0 +
STACK CFI INIT 3ccd8 4 .cfa: sp 0 +
STACK CFI INIT 3ccdc 4 .cfa: sp 0 +
STACK CFI INIT 3cce0 8c .cfa: sp 0 +
STACK CFI 3cce4 .cfa: sp 80 +
STACK CFI 3ccf4 .cfa: x29 48 + x19: .cfa -8 + ^ x20: .cfa -16 + ^ x21: .cfa -32 + ^ .ra: .cfa -40 + ^ x29: .cfa -48 + ^
STACK CFI 3cd54 .cfa: sp 80 +
STACK CFI 3cd64 .cfa: sp 0 +
STACK CFI 3cd68 .cfa: x29 48 +
STACK CFI INIT 3cd6c 1c .cfa: sp 0 +
STACK CFI INIT 3cd88 c .cfa: sp 0 +
STACK CFI INIT 3cd94 4 .cfa: sp 0 +
STACK CFI INIT 3cd98 4 .cfa: sp 0 +
STACK CFI INIT 3cd9c 34 .cfa: sp 0 +
STACK CFI 3cda0 .cfa: sp 32 +
STACK CFI 3cda8 .cfa: x29 32 + x19: .cfa -16 + ^ .ra: .cfa -24 + ^ x29: .cfa -32 + ^
STACK CFI 3cdc4 .cfa: sp 32 +
STACK CFI 3cdcc .cfa: sp 0 +
STACK CFI INIT 3cdd0 14 .cfa: sp 0 +
STACK CFI INIT 3cde4 4 .cfa: sp 0 +
STACK CFI INIT 3cde8 4 .cfa: sp 0 +
STACK CFI INIT 3cdec 8c .cfa: sp 0 +
STACK CFI 3cdf0 .cfa: sp 80 +
STACK CFI 3ce00 .cfa: x29 48 + x19: .cfa -8 + ^ x20: .cfa -16 + ^ x21: .cfa -32 + ^ .ra: .cfa -40 + ^ x29: .cfa -48 + ^
STACK CFI 3ce60 .cfa: sp 80 +
STACK CFI 3ce70 .cfa: sp 0 +
STACK CFI 3ce74 .cfa: x29 48 +
STACK CFI INIT 3ce78 1c .cfa: sp 0 +
STACK CFI INIT 3ce94 c .cfa: sp 0 +
STACK CFI INIT 3fdf0 b8 .cfa: sp 0 +
STACK CFI 3fdf4 .cfa: sp 64 +
STACK CFI 3fe04 .cfa: x29 48 + x19: .cfa -8 + ^ x20: .cfa -16 + ^ x21: .cfa -32 + ^ .ra: .cfa -40 + ^ x29: .cfa -48 + ^
STACK CFI 3fe90 .cfa: sp 64 +
STACK CFI 3fea0 .cfa: sp 0 +
STACK CFI 3fea4 .cfa: x29 48 +
STACK CFI INIT 40088 b8 .cfa: sp 0 +
STACK CFI 4008c .cfa: sp 64 +
STACK CFI 4009c .cfa: x29 48 + x19: .cfa -8 + ^ x20: .cfa -16 + ^ x21: .cfa -32 + ^ .ra: .cfa -40 + ^ x29: .cfa -48 + ^
STACK CFI 40128 .cfa: sp 64 +
STACK CFI 40138 .cfa: sp 0 +
STACK CFI 4013c .cfa: x29 48 +
STACK CFI INIT 40140 b8 .cfa: sp 0 +
STACK CFI 40144 .cfa: sp 64 +
STACK CFI 40154 .cfa: x29 48 + x19: .cfa -8 + ^ x20: .cfa -16 + ^ x21: .cfa -32 + ^ .ra: .cfa -40 + ^ x29: .cfa -48 + ^
STACK CFI 401e0 .cfa: sp 64 +
STACK CFI 401f0 .cfa: sp 0 +
STACK CFI 401f4 .cfa: x29 48 +
STACK CFI INIT 401f8 b8 .cfa: sp 0 +
STACK CFI 401fc .cfa: sp 64 +
STACK CFI 4020c .cfa: x29 48 + x19: .cfa -8 + ^ x20: .cfa -16 + ^ x21: .cfa -32 + ^ .ra: .cfa -40 + ^ x29: .cfa -48 + ^
STACK CFI 40298 .cfa: sp 64 +
STACK CFI 402a8 .cfa: sp 0 +
STACK CFI 402ac .cfa: x29 48 +
STACK CFI INIT 402b0 b8 .cfa: sp 0 +
STACK CFI 402b4 .cfa: sp 64 +
STACK CFI 402c4 .cfa: x29 48 + x19: .cfa -8 + ^ x20: .cfa -16 + ^ x21: .cfa -32 + ^ .ra: .cfa -40 + ^ x29: .cfa -48 + ^
STACK CFI 40350 .cfa: sp 64 +
STACK CFI 40360 .cfa: sp 0 +
STACK CFI 40364 .cfa: x29 48 +
STACK CFI INIT 40368 b8 .cfa: sp 0 +
STACK CFI 4036c .cfa: sp 64 +
STACK CFI 4037c .cfa: x29 48 + x19: .cfa -8 + ^ x20: .cfa -16 + ^ x21: .cfa -32 + ^ .ra: .cfa -40 + ^ x29: .cfa -48 + ^
STACK CFI 40408 .cfa: sp 64 +
STACK CFI 40418 .cfa: sp 0 +
STACK CFI 4041c .cfa: x29 48 +
STACK CFI INIT 40420 b8 .cfa: sp 0 +
STACK CFI 40424 .cfa: sp 64 +
STACK CFI 40434 .cfa: x29 48 + x19: .cfa -8 + ^ x20: .cfa -16 + ^ x21: .cfa -32 + ^ .ra: .cfa -40 + ^ x29: .cfa -48 + ^
STACK CFI 404c0 .cfa: sp 64 +
STACK CFI 404d0 .cfa: sp 0 +
STACK CFI 404d4 .cfa: x29 48 +
STACK CFI INIT 404d8 b8 .cfa: sp 0 +
STACK CFI 404dc .cfa: sp 64 +
STACK CFI 404ec .cfa: x29 48 + x19: .cfa -8 + ^ x20: .cfa -16 + ^ x21: .cfa -32 + ^ .ra: .cfa -40 + ^ x29: .cfa -48 + ^
STACK CFI 40578 .cfa: sp 64 +
STACK CFI 40588 .cfa: sp 0 +
STACK CFI 4058c .cfa: x29 48 +
STACK CFI INIT 40590 b8 .cfa: sp 0 +
STACK CFI 40594 .cfa: sp 64 +
STACK CFI 405a4 .cfa: x29 48 + x19: .cfa -8 + ^ x20: .cfa -16 + ^ x21: .cfa -32 + ^ .ra: .cfa -40 + ^ x29: .cfa -48 + ^
STACK CFI 40630 .cfa: sp 64 +
STACK CFI 40640 .cfa: sp 0 +
STACK CFI 40644 .cfa: x29 48 +
STACK CFI INIT 40648 b8 .cfa: sp 0 +
STACK CFI 4064c .cfa: sp 64 +
STACK CFI 4065c .cfa: x29 48 + x19: .cfa -8 + ^ x20: .cfa -16 + ^ x21: .cfa -32 + ^ .ra: .cfa -40 + ^ x29: .cfa -48 + ^
STACK CFI 406e8 .cfa: sp 64 +
STACK CFI 406f8 .cfa: sp 0 +
STACK CFI 406fc .cfa: x29 48 +
STACK CFI INIT 40700 24 .cfa: sp 0 +
STACK CFI 40704 .cfa: sp 32 +
STACK CFI 4070c .cfa: x29 32 + x19: .cfa -16 + ^ .ra: .cfa -24 + ^ x29: .cfa -32 + ^
STACK CFI 40718 .cfa: sp 32 +
STACK CFI 40720 .cfa: sp 0 +
STACK CFI INIT 40724 4 .cfa: sp 0 +
STACK CFI INIT 40728 8 .cfa: sp 0 +
STACK CFI INIT 40730 8 .cfa: sp 0 +
STACK CFI INIT 40738 8 .cfa: sp 0 +
STACK CFI INIT 40740 8 .cfa: sp 0 +
STACK CFI INIT 40748 28 .cfa: sp 0 +
STACK CFI 4074c .cfa: sp 32 +
STACK CFI 40754 .cfa: x29 32 + x19: .cfa -16 + ^ .ra: .cfa -24 + ^ x29: .cfa -32 + ^
STACK CFI 40764 .cfa: sp 32 +
STACK CFI 4076c .cfa: sp 0 +
STACK CFI INIT 40770 4 .cfa: sp 0 +
STACK CFI INIT 40774 8 .cfa: sp 0 +
STACK CFI INIT 40900 4 .cfa: sp 0 +
STACK CFI INIT 40904 14 .cfa: sp 0 +
STACK CFI INIT 40918 4 .cfa: sp 0 +
STACK CFI INIT 4091c 34 .cfa: sp 0 +
STACK CFI 40920 .cfa: sp 32 +
STACK CFI 40928 .cfa: x29 32 + x19: .cfa -16 + ^ .ra: .cfa -24 + ^ x29: .cfa -32 + ^
STACK CFI 40944 .cfa: sp 32 +
STACK CFI 4094c .cfa: sp 0 +
STACK CFI INIT 40950 14 .cfa: sp 0 +
STACK CFI INIT 40964 4 .cfa: sp 0 +
STACK CFI INIT 40968 4 .cfa: sp 0 +
STACK CFI INIT 4096c 8c .cfa: sp 0 +
STACK CFI 40970 .cfa: sp 80 +
STACK CFI 40980 .cfa: x29 48 + x19: .cfa -8 + ^ x20: .cfa -16 + ^ x21: .cfa -32 + ^ .ra: .cfa -40 + ^ x29: .cfa -48 + ^
STACK CFI 409e0 .cfa: sp 80 +
STACK CFI 409f0 .cfa: sp 0 +
STACK CFI 409f4 .cfa: x29 48 +
STACK CFI INIT 409f8 1c .cfa: sp 0 +
STACK CFI INIT 40a14 c .cfa: sp 0 +
STACK CFI INIT 40a20 4 .cfa: sp 0 +
STACK CFI INIT 40a24 34 .cfa: sp 0 +
STACK CFI 40a28 .cfa: sp 32 +
STACK CFI 40a30 .cfa: x29 32 + x19: .cfa -16 + ^ .ra: .cfa -24 + ^ x29: .cfa -32 + ^
STACK CFI 40a4c .cfa: sp 32 +
STACK CFI 40a54 .cfa: sp 0 +
STACK CFI INIT 40a58 14 .cfa: sp 0 +
STACK CFI INIT 40a6c 4 .cfa: sp 0 +
STACK CFI INIT 40a70 4 .cfa: sp 0 +
STACK CFI INIT 40a74 8c .cfa: sp 0 +
STACK CFI 40a78 .cfa: sp 80 +
STACK CFI 40a88 .cfa: x29 48 + x19: .cfa -8 + ^ x20: .cfa -16 + ^ x21: .cfa -32 + ^ .ra: .cfa -40 + ^ x29: .cfa -48 + ^
STACK CFI 40ae8 .cfa: sp 80 +
STACK CFI 40af8 .cfa: sp 0 +
STACK CFI 40afc .cfa: x29 48 +
STACK CFI INIT 40b00 1c .cfa: sp 0 +
STACK CFI INIT 40b1c c .cfa: sp 0 +
STACK CFI INIT 40b28 4 .cfa: sp 0 +
STACK CFI INIT 40b2c 34 .cfa: sp 0 +
STACK CFI 40b30 .cfa: sp 32 +
STACK CFI 40b38 .cfa: x29 32 + x19: .cfa -16 + ^ .ra: .cfa -24 + ^ x29: .cfa -32 + ^
STACK CFI 40b54 .cfa: sp 32 +
STACK CFI 40b5c .cfa: sp 0 +
STACK CFI INIT 40b60 14 .cfa: sp 0 +
STACK CFI INIT 40b74 4 .cfa: sp 0 +
STACK CFI INIT 40b78 4 .cfa: sp 0 +
STACK CFI INIT 40b7c 8c .cfa: sp 0 +
STACK CFI 40b80 .cfa: sp 80 +
STACK CFI 40b90 .cfa: x29 48 + x19: .cfa -8 + ^ x20: .cfa -16 + ^ x21: .cfa -32 + ^ .ra: .cfa -40 + ^ x29: .cfa -48 + ^
STACK CFI 40bf0 .cfa: sp 80 +
STACK CFI 40c00 .cfa: sp 0 +
STACK CFI 40c04 .cfa: x29 48 +
STACK CFI INIT 40c08 1c .cfa: sp 0 +
STACK CFI INIT 40c24 c .cfa: sp 0 +
STACK CFI INIT 40c30 4 .cfa: sp 0 +
STACK CFI INIT 40c34 34 .cfa: sp 0 +
STACK CFI 40c38 .cfa: sp 32 +
STACK CFI 40c40 .cfa: x29 32 + x19: .cfa -16 + ^ .ra: .cfa -24 + ^ x29: .cfa -32 + ^
STACK CFI 40c5c .cfa: sp 32 +
STACK CFI 40c64 .cfa: sp 0 +
STACK CFI INIT 40c68 14 .cfa: sp 0 +
STACK CFI INIT 40c7c 4 .cfa: sp 0 +
STACK CFI INIT 40c80 4 .cfa: sp 0 +
STACK CFI INIT 40c84 8c .cfa: sp 0 +
STACK CFI 40c88 .cfa: sp 80 +
STACK CFI 40c98 .cfa: x29 48 + x19: .cfa -8 + ^ x20: .cfa -16 + ^ x21: .cfa -32 + ^ .ra: .cfa -40 + ^ x29: .cfa -48 + ^
STACK CFI 40cf8 .cfa: sp 80 +
STACK CFI 40d08 .cfa: sp 0 +
STACK CFI 40d0c .cfa: x29 48 +
STACK CFI INIT 40d10 1c .cfa: sp 0 +
STACK CFI INIT 40d2c c .cfa: sp 0 +
STACK CFI INIT 40d38 4 .cfa: sp 0 +
STACK CFI INIT 40d3c 34 .cfa: sp 0 +
STACK CFI 40d40 .cfa: sp 32 +
STACK CFI 40d48 .cfa: x29 32 + x19: .cfa -16 + ^ .ra: .cfa -24 + ^ x29: .cfa -32 + ^
STACK CFI 40d64 .cfa: sp 32 +
STACK CFI 40d6c .cfa: sp 0 +
STACK CFI INIT 40d70 14 .cfa: sp 0 +
STACK CFI INIT 40d84 4 .cfa: sp 0 +
STACK CFI INIT 40d88 4 .cfa: sp 0 +
STACK CFI INIT 40d8c 8c .cfa: sp 0 +
STACK CFI 40d90 .cfa: sp 80 +
STACK CFI 40da0 .cfa: x29 48 + x19: .cfa -8 + ^ x20: .cfa -16 + ^ x21: .cfa -32 + ^ .ra: .cfa -40 + ^ x29: .cfa -48 + ^
STACK CFI 40e00 .cfa: sp 80 +
STACK CFI 40e10 .cfa: sp 0 +
STACK CFI 40e14 .cfa: x29 48 +
STACK CFI INIT 40e18 1c .cfa: sp 0 +
STACK CFI INIT 40e34 c .cfa: sp 0 +
STACK CFI INIT 40e40 4 .cfa: sp 0 +
STACK CFI INIT 40e44 34 .cfa: sp 0 +
STACK CFI 40e48 .cfa: sp 32 +
STACK CFI 40e50 .cfa: x29 32 + x19: .cfa -16 + ^ .ra: .cfa -24 + ^ x29: .cfa -32 + ^
STACK CFI 40e6c .cfa: sp 32 +
STACK CFI 40e74 .cfa: sp 0 +
STACK CFI INIT 40e78 14 .cfa: sp 0 +
STACK CFI INIT 40e8c 4 .cfa: sp 0 +
STACK CFI INIT 40e90 4 .cfa: sp 0 +
STACK CFI INIT 40e94 8c .cfa: sp 0 +
STACK CFI 40e98 .cfa: sp 80 +
STACK CFI 40ea8 .cfa: x29 48 + x19: .cfa -8 + ^ x20: .cfa -16 + ^ x21: .cfa -32 + ^ .ra: .cfa -40 + ^ x29: .cfa -48 + ^
STACK CFI 40f08 .cfa: sp 80 +
STACK CFI 40f18 .cfa: sp 0 +
STACK CFI 40f1c .cfa: x29 48 +
STACK CFI INIT 40f20 1c .cfa: sp 0 +
STACK CFI INIT 40f3c c .cfa: sp 0 +
STACK CFI INIT 40f48 4 .cfa: sp 0 +
STACK CFI INIT 40f4c 34 .cfa: sp 0 +
STACK CFI 40f50 .cfa: sp 32 +
STACK CFI 40f58 .cfa: x29 32 + x19: .cfa -16 + ^ .ra: .cfa -24 + ^ x29: .cfa -32 + ^
STACK CFI 40f74 .cfa: sp 32 +
STACK CFI 40f7c .cfa: sp 0 +
STACK CFI INIT 40f80 14 .cfa: sp 0 +
STACK CFI INIT 40f94 4 .cfa: sp 0 +
STACK CFI INIT 40f98 4 .cfa: sp 0 +
STACK CFI INIT 40f9c 8c .cfa: sp 0 +
STACK CFI 40fa0 .cfa: sp 80 +
STACK CFI 40fb0 .cfa: x29 48 + x19: .cfa -8 + ^ x20: .cfa -16 + ^ x21: .cfa -32 + ^ .ra: .cfa -40 + ^ x29: .cfa -48 + ^
STACK CFI 41010 .cfa: sp 80 +
STACK CFI 41020 .cfa: sp 0 +
STACK CFI 41024 .cfa: x29 48 +
STACK CFI INIT 41028 1c .cfa: sp 0 +
STACK CFI INIT 41044 c .cfa: sp 0 +
STACK CFI INIT 41050 4 .cfa: sp 0 +
STACK CFI INIT 41054 34 .cfa: sp 0 +
STACK CFI 41058 .cfa: sp 32 +
STACK CFI 41060 .cfa: x29 32 + x19: .cfa -16 + ^ .ra: .cfa -24 + ^ x29: .cfa -32 + ^
STACK CFI 4107c .cfa: sp 32 +
STACK CFI 41084 .cfa: sp 0 +
STACK CFI INIT 41088 14 .cfa: sp 0 +
STACK CFI INIT 4109c 4 .cfa: sp 0 +
STACK CFI INIT 410a0 4 .cfa: sp 0 +
STACK CFI INIT 410a4 8c .cfa: sp 0 +
STACK CFI 410a8 .cfa: sp 80 +
STACK CFI 410b8 .cfa: x29 48 + x19: .cfa -8 + ^ x20: .cfa -16 + ^ x21: .cfa -32 + ^ .ra: .cfa -40 + ^ x29: .cfa -48 + ^
STACK CFI 41118 .cfa: sp 80 +
STACK CFI 41128 .cfa: sp 0 +
STACK CFI 4112c .cfa: x29 48 +
STACK CFI INIT 41130 1c .cfa: sp 0 +
STACK CFI INIT 4114c c .cfa: sp 0 +
STACK CFI INIT 41158 4 .cfa: sp 0 +
STACK CFI INIT 4115c 34 .cfa: sp 0 +
STACK CFI 41160 .cfa: sp 32 +
STACK CFI 41168 .cfa: x29 32 + x19: .cfa -16 + ^ .ra: .cfa -24 + ^ x29: .cfa -32 + ^
STACK CFI 41184 .cfa: sp 32 +
STACK CFI 4118c .cfa: sp 0 +
STACK CFI INIT 41190 14 .cfa: sp 0 +
STACK CFI INIT 411a4 4 .cfa: sp 0 +
STACK CFI INIT 411a8 4 .cfa: sp 0 +
STACK CFI INIT 411ac 8c .cfa: sp 0 +
STACK CFI 411b0 .cfa: sp 80 +
STACK CFI 411c0 .cfa: x29 48 + x19: .cfa -8 + ^ x20: .cfa -16 + ^ x21: .cfa -32 + ^ .ra: .cfa -40 + ^ x29: .cfa -48 + ^
STACK CFI 41220 .cfa: sp 80 +
STACK CFI 41230 .cfa: sp 0 +
STACK CFI 41234 .cfa: x29 48 +
STACK CFI INIT 41238 1c .cfa: sp 0 +
STACK CFI INIT 41254 c .cfa: sp 0 +
STACK CFI INIT 41260 4 .cfa: sp 0 +
STACK CFI INIT 41264 34 .cfa: sp 0 +
STACK CFI 41268 .cfa: sp 32 +
STACK CFI 41270 .cfa: x29 32 + x19: .cfa -16 + ^ .ra: .cfa -24 + ^ x29: .cfa -32 + ^
STACK CFI 4128c .cfa: sp 32 +
STACK CFI 41294 .cfa: sp 0 +
STACK CFI INIT 41298 14 .cfa: sp 0 +
STACK CFI INIT 412ac 4 .cfa: sp 0 +
STACK CFI INIT 412b0 4 .cfa: sp 0 +
STACK CFI INIT 412b4 8c .cfa: sp 0 +
STACK CFI 412b8 .cfa: sp 80 +
STACK CFI 412c8 .cfa: x29 48 + x19: .cfa -8 + ^ x20: .cfa -16 + ^ x21: .cfa -32 + ^ .ra: .cfa -40 + ^ x29: .cfa -48 + ^
STACK CFI 41328 .cfa: sp 80 +
STACK CFI 41338 .cfa: sp 0 +
STACK CFI 4133c .cfa: x29 48 +
STACK CFI INIT 41340 1c .cfa: sp 0 +
STACK CFI INIT 4135c c .cfa: sp 0 +
STACK CFI INIT 41368 4 .cfa: sp 0 +
STACK CFI INIT 4136c 34 .cfa: sp 0 +
STACK CFI 41370 .cfa: sp 32 +
STACK CFI 41378 .cfa: x29 32 + x19: .cfa -16 + ^ .ra: .cfa -24 + ^ x29: .cfa -32 + ^
STACK CFI 41394 .cfa: sp 32 +
STACK CFI 4139c .cfa: sp 0 +
STACK CFI INIT 413a0 14 .cfa: sp 0 +
STACK CFI INIT 413b4 4 .cfa: sp 0 +
STACK CFI INIT 413b8 4 .cfa: sp 0 +
STACK CFI INIT 413bc 8c .cfa: sp 0 +
STACK CFI 413c0 .cfa: sp 80 +
STACK CFI 413d0 .cfa: x29 48 + x19: .cfa -8 + ^ x20: .cfa -16 + ^ x21: .cfa -32 + ^ .ra: .cfa -40 + ^ x29: .cfa -48 + ^
STACK CFI 41430 .cfa: sp 80 +
STACK CFI 41440 .cfa: sp 0 +
STACK CFI 41444 .cfa: x29 48 +
STACK CFI INIT 41448 1c .cfa: sp 0 +
STACK CFI INIT 41464 c .cfa: sp 0 +
STACK CFI INIT 41470 4 .cfa: sp 0 +
STACK CFI INIT 41474 34 .cfa: sp 0 +
STACK CFI 41478 .cfa: sp 32 +
STACK CFI 41480 .cfa: x29 32 + x19: .cfa -16 + ^ .ra: .cfa -24 + ^ x29: .cfa -32 + ^
STACK CFI 4149c .cfa: sp 32 +
STACK CFI 414a4 .cfa: sp 0 +
STACK CFI INIT 414a8 14 .cfa: sp 0 +
STACK CFI INIT 414bc 4 .cfa: sp 0 +
STACK CFI INIT 414c0 4 .cfa: sp 0 +
STACK CFI INIT 414c4 8c .cfa: sp 0 +
STACK CFI 414c8 .cfa: sp 80 +
STACK CFI 414d8 .cfa: x29 48 + x19: .cfa -8 + ^ x20: .cfa -16 + ^ x21: .cfa -32 + ^ .ra: .cfa -40 + ^ x29: .cfa -48 + ^
STACK CFI 41538 .cfa: sp 80 +
STACK CFI 41548 .cfa: sp 0 +
STACK CFI 4154c .cfa: x29 48 +
STACK CFI INIT 41550 1c .cfa: sp 0 +
STACK CFI INIT 4156c c .cfa: sp 0 +
STACK CFI INIT 41578 4 .cfa: sp 0 +
STACK CFI INIT 4157c 34 .cfa: sp 0 +
STACK CFI 41580 .cfa: sp 32 +
STACK CFI 41588 .cfa: x29 32 + x19: .cfa -16 + ^ .ra: .cfa -24 + ^ x29: .cfa -32 + ^
STACK CFI 415a4 .cfa: sp 32 +
STACK CFI 415ac .cfa: sp 0 +
STACK CFI INIT 415b0 14 .cfa: sp 0 +
STACK CFI INIT 415c4 4 .cfa: sp 0 +
STACK CFI INIT 415c8 4 .cfa: sp 0 +
STACK CFI INIT 415cc 8c .cfa: sp 0 +
STACK CFI 415d0 .cfa: sp 80 +
STACK CFI 415e0 .cfa: x29 48 + x19: .cfa -8 + ^ x20: .cfa -16 + ^ x21: .cfa -32 + ^ .ra: .cfa -40 + ^ x29: .cfa -48 + ^
STACK CFI 41640 .cfa: sp 80 +
STACK CFI 41650 .cfa: sp 0 +
STACK CFI 41654 .cfa: x29 48 +
STACK CFI INIT 41658 1c .cfa: sp 0 +
STACK CFI INIT 41674 c .cfa: sp 0 +
STACK CFI INIT 41680 4 .cfa: sp 0 +
STACK CFI INIT 41684 34 .cfa: sp 0 +
STACK CFI 41688 .cfa: sp 32 +
STACK CFI 41690 .cfa: x29 32 + x19: .cfa -16 + ^ .ra: .cfa -24 + ^ x29: .cfa -32 + ^
STACK CFI 416ac .cfa: sp 32 +
STACK CFI 416b4 .cfa: sp 0 +
STACK CFI INIT 416b8 14 .cfa: sp 0 +
STACK CFI INIT 416cc 4 .cfa: sp 0 +
STACK CFI INIT 416d0 4 .cfa: sp 0 +
STACK CFI INIT 416d4 8c .cfa: sp 0 +
STACK CFI 416d8 .cfa: sp 80 +
STACK CFI 416e8 .cfa: x29 48 + x19: .cfa -8 + ^ x20: .cfa -16 + ^ x21: .cfa -32 + ^ .ra: .cfa -40 + ^ x29: .cfa -48 + ^
STACK CFI 41748 .cfa: sp 80 +
STACK CFI 41758 .cfa: sp 0 +
STACK CFI 4175c .cfa: x29 48 +
STACK CFI INIT 41760 1c .cfa: sp 0 +
STACK CFI INIT 4177c c .cfa: sp 0 +
STACK CFI INIT 41788 4 .cfa: sp 0 +
STACK CFI INIT 4178c 34 .cfa: sp 0 +
STACK CFI 41790 .cfa: sp 32 +
STACK CFI 41798 .cfa: x29 32 + x19: .cfa -16 + ^ .ra: .cfa -24 + ^ x29: .cfa -32 + ^
STACK CFI 417b4 .cfa: sp 32 +
STACK CFI 417bc .cfa: sp 0 +
STACK CFI INIT 417c0 14 .cfa: sp 0 +
STACK CFI INIT 417d4 4 .cfa: sp 0 +
STACK CFI INIT 417d8 4 .cfa: sp 0 +
STACK CFI INIT 417dc 8c .cfa: sp 0 +
STACK CFI 417e0 .cfa: sp 80 +
STACK CFI 417f0 .cfa: x29 48 + x19: .cfa -8 + ^ x20: .cfa -16 + ^ x21: .cfa -32 + ^ .ra: .cfa -40 + ^ x29: .cfa -48 + ^
STACK CFI 41850 .cfa: sp 80 +
STACK CFI 41860 .cfa: sp 0 +
STACK CFI 41864 .cfa: x29 48 +
STACK CFI INIT 41868 1c .cfa: sp 0 +
STACK CFI INIT 41884 c .cfa: sp 0 +
STACK CFI INIT 41890 4 .cfa: sp 0 +
STACK CFI INIT 41894 34 .cfa: sp 0 +
STACK CFI 41898 .cfa: sp 32 +
STACK CFI 418a0 .cfa: x29 32 + x19: .cfa -16 + ^ .ra: .cfa -24 + ^ x29: .cfa -32 + ^
STACK CFI 418bc .cfa: sp 32 +
STACK CFI 418c4 .cfa: sp 0 +
STACK CFI INIT 418c8 14 .cfa: sp 0 +
STACK CFI INIT 418dc 4 .cfa: sp 0 +
STACK CFI INIT 418e0 4 .cfa: sp 0 +
STACK CFI INIT 418e4 8c .cfa: sp 0 +
STACK CFI 418e8 .cfa: sp 80 +
STACK CFI 418f8 .cfa: x29 48 + x19: .cfa -8 + ^ x20: .cfa -16 + ^ x21: .cfa -32 + ^ .ra: .cfa -40 + ^ x29: .cfa -48 + ^
STACK CFI 41958 .cfa: sp 80 +
STACK CFI 41968 .cfa: sp 0 +
STACK CFI 4196c .cfa: x29 48 +
STACK CFI INIT 41970 1c .cfa: sp 0 +
STACK CFI INIT 4198c c .cfa: sp 0 +
STACK CFI INIT 41998 4 .cfa: sp 0 +
STACK CFI INIT 4199c 34 .cfa: sp 0 +
STACK CFI 419a0 .cfa: sp 32 +
STACK CFI 419a8 .cfa: x29 32 + x19: .cfa -16 + ^ .ra: .cfa -24 + ^ x29: .cfa -32 + ^
STACK CFI 419c4 .cfa: sp 32 +
STACK CFI 419cc .cfa: sp 0 +
STACK CFI INIT 419d0 14 .cfa: sp 0 +
STACK CFI INIT 419e4 4 .cfa: sp 0 +
STACK CFI INIT 419e8 4 .cfa: sp 0 +
STACK CFI INIT 419ec 8c .cfa: sp 0 +
STACK CFI 419f0 .cfa: sp 80 +
STACK CFI 41a00 .cfa: x29 48 + x19: .cfa -8 + ^ x20: .cfa -16 + ^ x21: .cfa -32 + ^ .ra: .cfa -40 + ^ x29: .cfa -48 + ^
STACK CFI 41a60 .cfa: sp 80 +
STACK CFI 41a70 .cfa: sp 0 +
STACK CFI 41a74 .cfa: x29 48 +
STACK CFI INIT 41a78 1c .cfa: sp 0 +
STACK CFI INIT 41a94 c .cfa: sp 0 +
STACK CFI INIT 41aa0 4 .cfa: sp 0 +
STACK CFI INIT 41aa4 34 .cfa: sp 0 +
STACK CFI 41aa8 .cfa: sp 32 +
STACK CFI 41ab0 .cfa: x29 32 + x19: .cfa -16 + ^ .ra: .cfa -24 + ^ x29: .cfa -32 + ^
STACK CFI 41acc .cfa: sp 32 +
STACK CFI 41ad4 .cfa: sp 0 +
STACK CFI INIT 41ad8 14 .cfa: sp 0 +
STACK CFI INIT 41aec 4 .cfa: sp 0 +
STACK CFI INIT 41af0 4 .cfa: sp 0 +
STACK CFI INIT 41af4 8c .cfa: sp 0 +
STACK CFI 41af8 .cfa: sp 80 +
STACK CFI 41b08 .cfa: x29 48 + x19: .cfa -8 + ^ x20: .cfa -16 + ^ x21: .cfa -32 + ^ .ra: .cfa -40 + ^ x29: .cfa -48 + ^
STACK CFI 41b68 .cfa: sp 80 +
STACK CFI 41b78 .cfa: sp 0 +
STACK CFI 41b7c .cfa: x29 48 +
STACK CFI INIT 41b80 1c .cfa: sp 0 +
STACK CFI INIT 41b9c c .cfa: sp 0 +
STACK CFI INIT 41ba8 4 .cfa: sp 0 +
STACK CFI INIT 41bac 34 .cfa: sp 0 +
STACK CFI 41bb0 .cfa: sp 32 +
STACK CFI 41bb8 .cfa: x29 32 + x19: .cfa -16 + ^ .ra: .cfa -24 + ^ x29: .cfa -32 + ^
STACK CFI 41bd4 .cfa: sp 32 +
STACK CFI 41bdc .cfa: sp 0 +
STACK CFI INIT 41be0 14 .cfa: sp 0 +
STACK CFI INIT 41bf4 4 .cfa: sp 0 +
STACK CFI INIT 41bf8 4 .cfa: sp 0 +
STACK CFI INIT 41bfc 8c .cfa: sp 0 +
STACK CFI 41c00 .cfa: sp 80 +
STACK CFI 41c10 .cfa: x29 48 + x19: .cfa -8 + ^ x20: .cfa -16 + ^ x21: .cfa -32 + ^ .ra: .cfa -40 + ^ x29: .cfa -48 + ^
STACK CFI 41c70 .cfa: sp 80 +
STACK CFI 41c80 .cfa: sp 0 +
STACK CFI 41c84 .cfa: x29 48 +
STACK CFI INIT 41c88 1c .cfa: sp 0 +
STACK CFI INIT 41ca4 c .cfa: sp 0 +
STACK CFI INIT 41cb0 4 .cfa: sp 0 +
STACK CFI INIT 41cb4 34 .cfa: sp 0 +
STACK CFI 41cb8 .cfa: sp 32 +
STACK CFI 41cc0 .cfa: x29 32 + x19: .cfa -16 + ^ .ra: .cfa -24 + ^ x29: .cfa -32 + ^
STACK CFI 41cdc .cfa: sp 32 +
STACK CFI 41ce4 .cfa: sp 0 +
STACK CFI INIT 41ce8 14 .cfa: sp 0 +
STACK CFI INIT 41cfc 4 .cfa: sp 0 +
STACK CFI INIT 41d00 4 .cfa: sp 0 +
STACK CFI INIT 41d04 8c .cfa: sp 0 +
STACK CFI 41d08 .cfa: sp 80 +
STACK CFI 41d18 .cfa: x29 48 + x19: .cfa -8 + ^ x20: .cfa -16 + ^ x21: .cfa -32 + ^ .ra: .cfa -40 + ^ x29: .cfa -48 + ^
STACK CFI 41d78 .cfa: sp 80 +
STACK CFI 41d88 .cfa: sp 0 +
STACK CFI 41d8c .cfa: x29 48 +
STACK CFI INIT 41d90 1c .cfa: sp 0 +
STACK CFI INIT 41dac c .cfa: sp 0 +
STACK CFI INIT 448ac b8 .cfa: sp 0 +
STACK CFI 448b0 .cfa: sp 64 +
STACK CFI 448c0 .cfa: x29 48 + x19: .cfa -8 + ^ x20: .cfa -16 + ^ x21: .cfa -32 + ^ .ra: .cfa -40 + ^ x29: .cfa -48 + ^
STACK CFI 4494c .cfa: sp 64 +
STACK CFI 4495c .cfa: sp 0 +
STACK CFI 44960 .cfa: x29 48 +
STACK CFI INIT 44964 b8 .cfa: sp 0 +
STACK CFI 44968 .cfa: sp 64 +
STACK CFI 44978 .cfa: x29 48 + x19: .cfa -8 + ^ x20: .cfa -16 + ^ x21: .cfa -32 + ^ .ra: .cfa -40 + ^ x29: .cfa -48 + ^
STACK CFI 44a04 .cfa: sp 64 +
STACK CFI 44a14 .cfa: sp 0 +
STACK CFI 44a18 .cfa: x29 48 +
STACK CFI INIT 44a1c b8 .cfa: sp 0 +
STACK CFI 44a20 .cfa: sp 64 +
STACK CFI 44a30 .cfa: x29 48 + x19: .cfa -8 + ^ x20: .cfa -16 + ^ x21: .cfa -32 + ^ .ra: .cfa -40 + ^ x29: .cfa -48 + ^
STACK CFI 44abc .cfa: sp 64 +
STACK CFI 44acc .cfa: sp 0 +
STACK CFI 44ad0 .cfa: x29 48 +
STACK CFI INIT 44ad4 b8 .cfa: sp 0 +
STACK CFI 44ad8 .cfa: sp 64 +
STACK CFI 44ae8 .cfa: x29 48 + x19: .cfa -8 + ^ x20: .cfa -16 + ^ x21: .cfa -32 + ^ .ra: .cfa -40 + ^ x29: .cfa -48 + ^
STACK CFI 44b74 .cfa: sp 64 +
STACK CFI 44b84 .cfa: sp 0 +
STACK CFI 44b88 .cfa: x29 48 +
STACK CFI INIT 44b8c b8 .cfa: sp 0 +
STACK CFI 44b90 .cfa: sp 64 +
STACK CFI 44ba0 .cfa: x29 48 + x19: .cfa -8 + ^ x20: .cfa -16 + ^ x21: .cfa -32 + ^ .ra: .cfa -40 + ^ x29: .cfa -48 + ^
STACK CFI 44c2c .cfa: sp 64 +
STACK CFI 44c3c .cfa: sp 0 +
STACK CFI 44c40 .cfa: x29 48 +
STACK CFI INIT 44c44 b8 .cfa: sp 0 +
STACK CFI 44c48 .cfa: sp 64 +
STACK CFI 44c58 .cfa: x29 48 + x19: .cfa -8 + ^ x20: .cfa -16 + ^ x21: .cfa -32 + ^ .ra: .cfa -40 + ^ x29: .cfa -48 + ^
STACK CFI 44ce4 .cfa: sp 64 +
STACK CFI 44cf4 .cfa: sp 0 +
STACK CFI 44cf8 .cfa: x29 48 +
STACK CFI INIT 44cfc b8 .cfa: sp 0 +
STACK CFI 44d00 .cfa: sp 64 +
STACK CFI 44d10 .cfa: x29 48 + x19: .cfa -8 + ^ x20: .cfa -16 + ^ x21: .cfa -32 + ^ .ra: .cfa -40 + ^ x29: .cfa -48 + ^
STACK CFI 44d9c .cfa: sp 64 +
STACK CFI 44dac .cfa: sp 0 +
STACK CFI 44db0 .cfa: x29 48 +
STACK CFI INIT 44db4 b8 .cfa: sp 0 +
STACK CFI 44db8 .cfa: sp 64 +
STACK CFI 44dc8 .cfa: x29 48 + x19: .cfa -8 + ^ x20: .cfa -16 + ^ x21: .cfa -32 + ^ .ra: .cfa -40 + ^ x29: .cfa -48 + ^
STACK CFI 44e54 .cfa: sp 64 +
STACK CFI 44e64 .cfa: sp 0 +
STACK CFI 44e68 .cfa: x29 48 +
STACK CFI INIT 44e6c b8 .cfa: sp 0 +
STACK CFI 44e70 .cfa: sp 64 +
STACK CFI 44e80 .cfa: x29 48 + x19: .cfa -8 + ^ x20: .cfa -16 + ^ x21: .cfa -32 + ^ .ra: .cfa -40 + ^ x29: .cfa -48 + ^
STACK CFI 44f0c .cfa: sp 64 +
STACK CFI 44f1c .cfa: sp 0 +
STACK CFI 44f20 .cfa: x29 48 +
STACK CFI INIT 44f24 b8 .cfa: sp 0 +
STACK CFI 44f28 .cfa: sp 64 +
STACK CFI 44f38 .cfa: x29 48 + x19: .cfa -8 + ^ x20: .cfa -16 + ^ x21: .cfa -32 + ^ .ra: .cfa -40 + ^ x29: .cfa -48 + ^
STACK CFI 44fc4 .cfa: sp 64 +
STACK CFI 44fd4 .cfa: sp 0 +
STACK CFI 44fd8 .cfa: x29 48 +
STACK CFI INIT 44fdc 24 .cfa: sp 0 +
STACK CFI 44fe0 .cfa: sp 32 +
STACK CFI 44fe8 .cfa: x29 32 + x19: .cfa -16 + ^ .ra: .cfa -24 + ^ x29: .cfa -32 + ^
STACK CFI 44ff4 .cfa: sp 32 +
STACK CFI 44ffc .cfa: sp 0 +
STACK CFI INIT 45000 8 .cfa: sp 0 +
STACK CFI INIT 45008 28 .cfa: sp 0 +
STACK CFI 4500c .cfa: sp 32 +
STACK CFI 45014 .cfa: x29 32 + x19: .cfa -16 + ^ .ra: .cfa -24 + ^ x29: .cfa -32 + ^
STACK CFI 45024 .cfa: sp 32 +
STACK CFI 4502c .cfa: sp 0 +
STACK CFI INIT 45030 4 .cfa: sp 0 +
STACK CFI INIT 45034 34 .cfa: sp 0 +
STACK CFI 45038 .cfa: sp 32 +
STACK CFI 45040 .cfa: x29 32 + x19: .cfa -16 + ^ .ra: .cfa -24 + ^ x29: .cfa -32 + ^
STACK CFI 4505c .cfa: sp 32 +
STACK CFI 45064 .cfa: sp 0 +
STACK CFI INIT 45068 14 .cfa: sp 0 +
STACK CFI INIT 4507c 4 .cfa: sp 0 +
STACK CFI INIT 45080 4 .cfa: sp 0 +
STACK CFI INIT 45084 8c .cfa: sp 0 +
STACK CFI 45088 .cfa: sp 80 +
STACK CFI 45098 .cfa: x29 48 + x19: .cfa -8 + ^ x20: .cfa -16 + ^ x21: .cfa -32 + ^ .ra: .cfa -40 + ^ x29: .cfa -48 + ^
STACK CFI 450f8 .cfa: sp 80 +
STACK CFI 45108 .cfa: sp 0 +
STACK CFI 4510c .cfa: x29 48 +
STACK CFI INIT 45110 1c .cfa: sp 0 +
STACK CFI INIT 4512c c .cfa: sp 0 +
STACK CFI INIT 45138 4 .cfa: sp 0 +
STACK CFI INIT 4513c 34 .cfa: sp 0 +
STACK CFI 45140 .cfa: sp 32 +
STACK CFI 45148 .cfa: x29 32 + x19: .cfa -16 + ^ .ra: .cfa -24 + ^ x29: .cfa -32 + ^
STACK CFI 45164 .cfa: sp 32 +
STACK CFI 4516c .cfa: sp 0 +
STACK CFI INIT 45170 14 .cfa: sp 0 +
STACK CFI INIT 45184 4 .cfa: sp 0 +
STACK CFI INIT 45188 4 .cfa: sp 0 +
STACK CFI INIT 4518c 8c .cfa: sp 0 +
STACK CFI 45190 .cfa: sp 80 +
STACK CFI 451a0 .cfa: x29 48 + x19: .cfa -8 + ^ x20: .cfa -16 + ^ x21: .cfa -32 + ^ .ra: .cfa -40 + ^ x29: .cfa -48 + ^
STACK CFI 45200 .cfa: sp 80 +
STACK CFI 45210 .cfa: sp 0 +
STACK CFI 45214 .cfa: x29 48 +
STACK CFI INIT 45218 1c .cfa: sp 0 +
STACK CFI INIT 45234 c .cfa: sp 0 +
STACK CFI INIT 45240 4 .cfa: sp 0 +
STACK CFI INIT 45244 34 .cfa: sp 0 +
STACK CFI 45248 .cfa: sp 32 +
STACK CFI 45250 .cfa: x29 32 + x19: .cfa -16 + ^ .ra: .cfa -24 + ^ x29: .cfa -32 + ^
STACK CFI 4526c .cfa: sp 32 +
STACK CFI 45274 .cfa: sp 0 +
STACK CFI INIT 45278 14 .cfa: sp 0 +
STACK CFI INIT 4528c 4 .cfa: sp 0 +
STACK CFI INIT 45290 4 .cfa: sp 0 +
STACK CFI INIT 45294 8c .cfa: sp 0 +
STACK CFI 45298 .cfa: sp 80 +
STACK CFI 452a8 .cfa: x29 48 + x19: .cfa -8 + ^ x20: .cfa -16 + ^ x21: .cfa -32 + ^ .ra: .cfa -40 + ^ x29: .cfa -48 + ^
STACK CFI 45308 .cfa: sp 80 +
STACK CFI 45318 .cfa: sp 0 +
STACK CFI 4531c .cfa: x29 48 +
STACK CFI INIT 45320 1c .cfa: sp 0 +
STACK CFI INIT 4533c c .cfa: sp 0 +
STACK CFI INIT 45348 4 .cfa: sp 0 +
STACK CFI INIT 4534c 34 .cfa: sp 0 +
STACK CFI 45350 .cfa: sp 32 +
STACK CFI 45358 .cfa: x29 32 + x19: .cfa -16 + ^ .ra: .cfa -24 + ^ x29: .cfa -32 + ^
STACK CFI 45374 .cfa: sp 32 +
STACK CFI 4537c .cfa: sp 0 +
STACK CFI INIT 45380 14 .cfa: sp 0 +
STACK CFI INIT 45394 4 .cfa: sp 0 +
STACK CFI INIT 45398 4 .cfa: sp 0 +
STACK CFI INIT 4539c 8c .cfa: sp 0 +
STACK CFI 453a0 .cfa: sp 80 +
STACK CFI 453b0 .cfa: x29 48 + x19: .cfa -8 + ^ x20: .cfa -16 + ^ x21: .cfa -32 + ^ .ra: .cfa -40 + ^ x29: .cfa -48 + ^
STACK CFI 45410 .cfa: sp 80 +
STACK CFI 45420 .cfa: sp 0 +
STACK CFI 45424 .cfa: x29 48 +
STACK CFI INIT 45428 1c .cfa: sp 0 +
STACK CFI INIT 45444 c .cfa: sp 0 +
STACK CFI INIT 45450 4 .cfa: sp 0 +
STACK CFI INIT 45454 34 .cfa: sp 0 +
STACK CFI 45458 .cfa: sp 32 +
STACK CFI 45460 .cfa: x29 32 + x19: .cfa -16 + ^ .ra: .cfa -24 + ^ x29: .cfa -32 + ^
STACK CFI 4547c .cfa: sp 32 +
STACK CFI 45484 .cfa: sp 0 +
STACK CFI INIT 45488 14 .cfa: sp 0 +
STACK CFI INIT 4549c 4 .cfa: sp 0 +
STACK CFI INIT 454a0 4 .cfa: sp 0 +
STACK CFI INIT 454a4 8c .cfa: sp 0 +
STACK CFI 454a8 .cfa: sp 80 +
STACK CFI 454b8 .cfa: x29 48 + x19: .cfa -8 + ^ x20: .cfa -16 + ^ x21: .cfa -32 + ^ .ra: .cfa -40 + ^ x29: .cfa -48 + ^
STACK CFI 45518 .cfa: sp 80 +
STACK CFI 45528 .cfa: sp 0 +
STACK CFI 4552c .cfa: x29 48 +
STACK CFI INIT 45530 1c .cfa: sp 0 +
STACK CFI INIT 4554c c .cfa: sp 0 +
STACK CFI INIT 45558 4 .cfa: sp 0 +
STACK CFI INIT 4555c 34 .cfa: sp 0 +
STACK CFI 45560 .cfa: sp 32 +
STACK CFI 45568 .cfa: x29 32 + x19: .cfa -16 + ^ .ra: .cfa -24 + ^ x29: .cfa -32 + ^
STACK CFI 45584 .cfa: sp 32 +
STACK CFI 4558c .cfa: sp 0 +
STACK CFI INIT 45590 14 .cfa: sp 0 +
STACK CFI INIT 455a4 4 .cfa: sp 0 +
STACK CFI INIT 455a8 4 .cfa: sp 0 +
STACK CFI INIT 455ac 8c .cfa: sp 0 +
STACK CFI 455b0 .cfa: sp 80 +
STACK CFI 455c0 .cfa: x29 48 + x19: .cfa -8 + ^ x20: .cfa -16 + ^ x21: .cfa -32 + ^ .ra: .cfa -40 + ^ x29: .cfa -48 + ^
STACK CFI 45620 .cfa: sp 80 +
STACK CFI 45630 .cfa: sp 0 +
STACK CFI 45634 .cfa: x29 48 +
STACK CFI INIT 45638 1c .cfa: sp 0 +
STACK CFI INIT 45654 c .cfa: sp 0 +
STACK CFI INIT 45660 4 .cfa: sp 0 +
STACK CFI INIT 45664 34 .cfa: sp 0 +
STACK CFI 45668 .cfa: sp 32 +
STACK CFI 45670 .cfa: x29 32 + x19: .cfa -16 + ^ .ra: .cfa -24 + ^ x29: .cfa -32 + ^
STACK CFI 4568c .cfa: sp 32 +
STACK CFI 45694 .cfa: sp 0 +
STACK CFI INIT 45698 14 .cfa: sp 0 +
STACK CFI INIT 456ac 4 .cfa: sp 0 +
STACK CFI INIT 456b0 4 .cfa: sp 0 +
STACK CFI INIT 456b4 8c .cfa: sp 0 +
STACK CFI 456b8 .cfa: sp 80 +
STACK CFI 456c8 .cfa: x29 48 + x19: .cfa -8 + ^ x20: .cfa -16 + ^ x21: .cfa -32 + ^ .ra: .cfa -40 + ^ x29: .cfa -48 + ^
STACK CFI 45728 .cfa: sp 80 +
STACK CFI 45738 .cfa: sp 0 +
STACK CFI 4573c .cfa: x29 48 +
STACK CFI INIT 45740 1c .cfa: sp 0 +
STACK CFI INIT 4575c c .cfa: sp 0 +
STACK CFI INIT 45768 4 .cfa: sp 0 +
STACK CFI INIT 4576c 34 .cfa: sp 0 +
STACK CFI 45770 .cfa: sp 32 +
STACK CFI 45778 .cfa: x29 32 + x19: .cfa -16 + ^ .ra: .cfa -24 + ^ x29: .cfa -32 + ^
STACK CFI 45794 .cfa: sp 32 +
STACK CFI 4579c .cfa: sp 0 +
STACK CFI INIT 457a0 14 .cfa: sp 0 +
STACK CFI INIT 457b4 4 .cfa: sp 0 +
STACK CFI INIT 457b8 4 .cfa: sp 0 +
STACK CFI INIT 457bc 8c .cfa: sp 0 +
STACK CFI 457c0 .cfa: sp 80 +
STACK CFI 457d0 .cfa: x29 48 + x19: .cfa -8 + ^ x20: .cfa -16 + ^ x21: .cfa -32 + ^ .ra: .cfa -40 + ^ x29: .cfa -48 + ^
STACK CFI 45830 .cfa: sp 80 +
STACK CFI 45840 .cfa: sp 0 +
STACK CFI 45844 .cfa: x29 48 +
STACK CFI INIT 45848 1c .cfa: sp 0 +
STACK CFI INIT 45864 c .cfa: sp 0 +
STACK CFI INIT 45870 4 .cfa: sp 0 +
STACK CFI INIT 45874 34 .cfa: sp 0 +
STACK CFI 45878 .cfa: sp 32 +
STACK CFI 45880 .cfa: x29 32 + x19: .cfa -16 + ^ .ra: .cfa -24 + ^ x29: .cfa -32 + ^
STACK CFI 4589c .cfa: sp 32 +
STACK CFI 458a4 .cfa: sp 0 +
STACK CFI INIT 458a8 14 .cfa: sp 0 +
STACK CFI INIT 458bc 4 .cfa: sp 0 +
STACK CFI INIT 458c0 4 .cfa: sp 0 +
STACK CFI INIT 458c4 8c .cfa: sp 0 +
STACK CFI 458c8 .cfa: sp 80 +
STACK CFI 458d8 .cfa: x29 48 + x19: .cfa -8 + ^ x20: .cfa -16 + ^ x21: .cfa -32 + ^ .ra: .cfa -40 + ^ x29: .cfa -48 + ^
STACK CFI 45938 .cfa: sp 80 +
STACK CFI 45948 .cfa: sp 0 +
STACK CFI 4594c .cfa: x29 48 +
STACK CFI INIT 45950 1c .cfa: sp 0 +
STACK CFI INIT 4596c c .cfa: sp 0 +
STACK CFI INIT 45978 4 .cfa: sp 0 +
STACK CFI INIT 4597c 34 .cfa: sp 0 +
STACK CFI 45980 .cfa: sp 32 +
STACK CFI 45988 .cfa: x29 32 + x19: .cfa -16 + ^ .ra: .cfa -24 + ^ x29: .cfa -32 + ^
STACK CFI 459a4 .cfa: sp 32 +
STACK CFI 459ac .cfa: sp 0 +
STACK CFI INIT 459b0 14 .cfa: sp 0 +
STACK CFI INIT 459c4 4 .cfa: sp 0 +
STACK CFI INIT 459c8 4 .cfa: sp 0 +
STACK CFI INIT 459cc 8c .cfa: sp 0 +
STACK CFI 459d0 .cfa: sp 80 +
STACK CFI 459e0 .cfa: x29 48 + x19: .cfa -8 + ^ x20: .cfa -16 + ^ x21: .cfa -32 + ^ .ra: .cfa -40 + ^ x29: .cfa -48 + ^
STACK CFI 45a40 .cfa: sp 80 +
STACK CFI 45a50 .cfa: sp 0 +
STACK CFI 45a54 .cfa: x29 48 +
STACK CFI INIT 45a58 1c .cfa: sp 0 +
STACK CFI INIT 45a74 c .cfa: sp 0 +
STACK CFI INIT 45a80 4 .cfa: sp 0 +
STACK CFI INIT 45a84 34 .cfa: sp 0 +
STACK CFI 45a88 .cfa: sp 32 +
STACK CFI 45a90 .cfa: x29 32 + x19: .cfa -16 + ^ .ra: .cfa -24 + ^ x29: .cfa -32 + ^
STACK CFI 45aac .cfa: sp 32 +
STACK CFI 45ab4 .cfa: sp 0 +
STACK CFI INIT 45ab8 14 .cfa: sp 0 +
STACK CFI INIT 45acc 4 .cfa: sp 0 +
STACK CFI INIT 45ad0 4 .cfa: sp 0 +
STACK CFI INIT 45ad4 8c .cfa: sp 0 +
STACK CFI 45ad8 .cfa: sp 80 +
STACK CFI 45ae8 .cfa: x29 48 + x19: .cfa -8 + ^ x20: .cfa -16 + ^ x21: .cfa -32 + ^ .ra: .cfa -40 + ^ x29: .cfa -48 + ^
STACK CFI 45b48 .cfa: sp 80 +
STACK CFI 45b58 .cfa: sp 0 +
STACK CFI 45b5c .cfa: x29 48 +
STACK CFI INIT 45b60 1c .cfa: sp 0 +
STACK CFI INIT 45b7c c .cfa: sp 0 +
STACK CFI INIT 45b88 4 .cfa: sp 0 +
STACK CFI INIT 45b8c 34 .cfa: sp 0 +
STACK CFI 45b90 .cfa: sp 32 +
STACK CFI 45b98 .cfa: x29 32 + x19: .cfa -16 + ^ .ra: .cfa -24 + ^ x29: .cfa -32 + ^
STACK CFI 45bb4 .cfa: sp 32 +
STACK CFI 45bbc .cfa: sp 0 +
STACK CFI INIT 45bc0 14 .cfa: sp 0 +
STACK CFI INIT 45bd4 4 .cfa: sp 0 +
STACK CFI INIT 45bd8 4 .cfa: sp 0 +
STACK CFI INIT 45bdc 8c .cfa: sp 0 +
STACK CFI 45be0 .cfa: sp 80 +
STACK CFI 45bf0 .cfa: x29 48 + x19: .cfa -8 + ^ x20: .cfa -16 + ^ x21: .cfa -32 + ^ .ra: .cfa -40 + ^ x29: .cfa -48 + ^
STACK CFI 45c50 .cfa: sp 80 +
STACK CFI 45c60 .cfa: sp 0 +
STACK CFI 45c64 .cfa: x29 48 +
STACK CFI INIT 45c68 1c .cfa: sp 0 +
STACK CFI INIT 45c84 c .cfa: sp 0 +
STACK CFI INIT 45c90 4 .cfa: sp 0 +
STACK CFI INIT 45c94 34 .cfa: sp 0 +
STACK CFI 45c98 .cfa: sp 32 +
STACK CFI 45ca0 .cfa: x29 32 + x19: .cfa -16 + ^ .ra: .cfa -24 + ^ x29: .cfa -32 + ^
STACK CFI 45cbc .cfa: sp 32 +
STACK CFI 45cc4 .cfa: sp 0 +
STACK CFI INIT 45cc8 14 .cfa: sp 0 +
STACK CFI INIT 45cdc 4 .cfa: sp 0 +
STACK CFI INIT 45ce0 4 .cfa: sp 0 +
STACK CFI INIT 45ce4 8c .cfa: sp 0 +
STACK CFI 45ce8 .cfa: sp 80 +
STACK CFI 45cf8 .cfa: x29 48 + x19: .cfa -8 + ^ x20: .cfa -16 + ^ x21: .cfa -32 + ^ .ra: .cfa -40 + ^ x29: .cfa -48 + ^
STACK CFI 45d58 .cfa: sp 80 +
STACK CFI 45d68 .cfa: sp 0 +
STACK CFI 45d6c .cfa: x29 48 +
STACK CFI INIT 45d70 1c .cfa: sp 0 +
STACK CFI INIT 45d8c c .cfa: sp 0 +
STACK CFI INIT 45d98 4 .cfa: sp 0 +
STACK CFI INIT 45d9c 34 .cfa: sp 0 +
STACK CFI 45da0 .cfa: sp 32 +
STACK CFI 45da8 .cfa: x29 32 + x19: .cfa -16 + ^ .ra: .cfa -24 + ^ x29: .cfa -32 + ^
STACK CFI 45dc4 .cfa: sp 32 +
STACK CFI 45dcc .cfa: sp 0 +
STACK CFI INIT 45dd0 14 .cfa: sp 0 +
STACK CFI INIT 45de4 4 .cfa: sp 0 +
STACK CFI INIT 45de8 4 .cfa: sp 0 +
STACK CFI INIT 45dec 8c .cfa: sp 0 +
STACK CFI 45df0 .cfa: sp 80 +
STACK CFI 45e00 .cfa: x29 48 + x19: .cfa -8 + ^ x20: .cfa -16 + ^ x21: .cfa -32 + ^ .ra: .cfa -40 + ^ x29: .cfa -48 + ^
STACK CFI 45e60 .cfa: sp 80 +
STACK CFI 45e70 .cfa: sp 0 +
STACK CFI 45e74 .cfa: x29 48 +
STACK CFI INIT 45e78 1c .cfa: sp 0 +
STACK CFI INIT 45e94 c .cfa: sp 0 +
STACK CFI INIT 45ea0 4 .cfa: sp 0 +
STACK CFI INIT 45ea4 34 .cfa: sp 0 +
STACK CFI 45ea8 .cfa: sp 32 +
STACK CFI 45eb0 .cfa: x29 32 + x19: .cfa -16 + ^ .ra: .cfa -24 + ^ x29: .cfa -32 + ^
STACK CFI 45ecc .cfa: sp 32 +
STACK CFI 45ed4 .cfa: sp 0 +
STACK CFI INIT 45ed8 14 .cfa: sp 0 +
STACK CFI INIT 45eec 4 .cfa: sp 0 +
STACK CFI INIT 45ef0 4 .cfa: sp 0 +
STACK CFI INIT 45ef4 8c .cfa: sp 0 +
STACK CFI 45ef8 .cfa: sp 80 +
STACK CFI 45f08 .cfa: x29 48 + x19: .cfa -8 + ^ x20: .cfa -16 + ^ x21: .cfa -32 + ^ .ra: .cfa -40 + ^ x29: .cfa -48 + ^
STACK CFI 45f68 .cfa: sp 80 +
STACK CFI 45f78 .cfa: sp 0 +
STACK CFI 45f7c .cfa: x29 48 +
STACK CFI INIT 45f80 1c .cfa: sp 0 +
STACK CFI INIT 45f9c c .cfa: sp 0 +
STACK CFI INIT 45fa8 4 .cfa: sp 0 +
STACK CFI INIT 45fac 34 .cfa: sp 0 +
STACK CFI 45fb0 .cfa: sp 32 +
STACK CFI 45fb8 .cfa: x29 32 + x19: .cfa -16 + ^ .ra: .cfa -24 + ^ x29: .cfa -32 + ^
STACK CFI 45fd4 .cfa: sp 32 +
STACK CFI 45fdc .cfa: sp 0 +
STACK CFI INIT 45fe0 14 .cfa: sp 0 +
STACK CFI INIT 45ff4 4 .cfa: sp 0 +
STACK CFI INIT 45ff8 4 .cfa: sp 0 +
STACK CFI INIT 45ffc 8c .cfa: sp 0 +
STACK CFI 46000 .cfa: sp 80 +
STACK CFI 46010 .cfa: x29 48 + x19: .cfa -8 + ^ x20: .cfa -16 + ^ x21: .cfa -32 + ^ .ra: .cfa -40 + ^ x29: .cfa -48 + ^
STACK CFI 46070 .cfa: sp 80 +
STACK CFI 46080 .cfa: sp 0 +
STACK CFI 46084 .cfa: x29 48 +
STACK CFI INIT 46088 1c .cfa: sp 0 +
STACK CFI INIT 460a4 c .cfa: sp 0 +
STACK CFI INIT 460b0 4 .cfa: sp 0 +
STACK CFI INIT 460b4 34 .cfa: sp 0 +
STACK CFI 460b8 .cfa: sp 32 +
STACK CFI 460c0 .cfa: x29 32 + x19: .cfa -16 + ^ .ra: .cfa -24 + ^ x29: .cfa -32 + ^
STACK CFI 460dc .cfa: sp 32 +
STACK CFI 460e4 .cfa: sp 0 +
STACK CFI INIT 460e8 14 .cfa: sp 0 +
STACK CFI INIT 460fc 4 .cfa: sp 0 +
STACK CFI INIT 46100 4 .cfa: sp 0 +
STACK CFI INIT 46104 8c .cfa: sp 0 +
STACK CFI 46108 .cfa: sp 80 +
STACK CFI 46118 .cfa: x29 48 + x19: .cfa -8 + ^ x20: .cfa -16 + ^ x21: .cfa -32 + ^ .ra: .cfa -40 + ^ x29: .cfa -48 + ^
STACK CFI 46178 .cfa: sp 80 +
STACK CFI 46188 .cfa: sp 0 +
STACK CFI 4618c .cfa: x29 48 +
STACK CFI INIT 46190 1c .cfa: sp 0 +
STACK CFI INIT 461ac c .cfa: sp 0 +
STACK CFI INIT 461b8 4 .cfa: sp 0 +
STACK CFI INIT 461bc 34 .cfa: sp 0 +
STACK CFI 461c0 .cfa: sp 32 +
STACK CFI 461c8 .cfa: x29 32 + x19: .cfa -16 + ^ .ra: .cfa -24 + ^ x29: .cfa -32 + ^
STACK CFI 461e4 .cfa: sp 32 +
STACK CFI 461ec .cfa: sp 0 +
STACK CFI INIT 461f0 14 .cfa: sp 0 +
STACK CFI INIT 46204 4 .cfa: sp 0 +
STACK CFI INIT 46208 4 .cfa: sp 0 +
STACK CFI INIT 4620c 8c .cfa: sp 0 +
STACK CFI 46210 .cfa: sp 80 +
STACK CFI 46220 .cfa: x29 48 + x19: .cfa -8 + ^ x20: .cfa -16 + ^ x21: .cfa -32 + ^ .ra: .cfa -40 + ^ x29: .cfa -48 + ^
STACK CFI 46280 .cfa: sp 80 +
STACK CFI 46290 .cfa: sp 0 +
STACK CFI 46294 .cfa: x29 48 +
STACK CFI INIT 46298 1c .cfa: sp 0 +
STACK CFI INIT 462b4 c .cfa: sp 0 +
STACK CFI INIT 462c0 4 .cfa: sp 0 +
STACK CFI INIT 462c4 34 .cfa: sp 0 +
STACK CFI 462c8 .cfa: sp 32 +
STACK CFI 462d0 .cfa: x29 32 + x19: .cfa -16 + ^ .ra: .cfa -24 + ^ x29: .cfa -32 + ^
STACK CFI 462ec .cfa: sp 32 +
STACK CFI 462f4 .cfa: sp 0 +
STACK CFI INIT 462f8 14 .cfa: sp 0 +
STACK CFI INIT 4630c 4 .cfa: sp 0 +
STACK CFI INIT 46310 4 .cfa: sp 0 +
STACK CFI INIT 46314 8c .cfa: sp 0 +
STACK CFI 46318 .cfa: sp 80 +
STACK CFI 46328 .cfa: x29 48 + x19: .cfa -8 + ^ x20: .cfa -16 + ^ x21: .cfa -32 + ^ .ra: .cfa -40 + ^ x29: .cfa -48 + ^
STACK CFI 46388 .cfa: sp 80 +
STACK CFI 46398 .cfa: sp 0 +
STACK CFI 4639c .cfa: x29 48 +
STACK CFI INIT 463a0 1c .cfa: sp 0 +
STACK CFI INIT 463bc c .cfa: sp 0 +
STACK CFI INIT 463c8 4 .cfa: sp 0 +
STACK CFI INIT 463cc 34 .cfa: sp 0 +
STACK CFI 463d0 .cfa: sp 32 +
STACK CFI 463d8 .cfa: x29 32 + x19: .cfa -16 + ^ .ra: .cfa -24 + ^ x29: .cfa -32 + ^
STACK CFI 463f4 .cfa: sp 32 +
STACK CFI 463fc .cfa: sp 0 +
STACK CFI INIT 46400 14 .cfa: sp 0 +
STACK CFI INIT 46414 4 .cfa: sp 0 +
STACK CFI INIT 46418 4 .cfa: sp 0 +
STACK CFI INIT 4641c 8c .cfa: sp 0 +
STACK CFI 46420 .cfa: sp 80 +
STACK CFI 46430 .cfa: x29 48 + x19: .cfa -8 + ^ x20: .cfa -16 + ^ x21: .cfa -32 + ^ .ra: .cfa -40 + ^ x29: .cfa -48 + ^
STACK CFI 46490 .cfa: sp 80 +
STACK CFI 464a0 .cfa: sp 0 +
STACK CFI 464a4 .cfa: x29 48 +
STACK CFI INIT 464a8 1c .cfa: sp 0 +
STACK CFI INIT 464c4 c .cfa: sp 0 +
STACK CFI INIT 48fc4 b8 .cfa: sp 0 +
STACK CFI 48fc8 .cfa: sp 64 +
STACK CFI 48fd8 .cfa: x29 48 + x19: .cfa -8 + ^ x20: .cfa -16 + ^ x21: .cfa -32 + ^ .ra: .cfa -40 + ^ x29: .cfa -48 + ^
STACK CFI 49064 .cfa: sp 64 +
STACK CFI 49074 .cfa: sp 0 +
STACK CFI 49078 .cfa: x29 48 +
STACK CFI INIT 4907c b8 .cfa: sp 0 +
STACK CFI 49080 .cfa: sp 64 +
STACK CFI 49090 .cfa: x29 48 + x19: .cfa -8 + ^ x20: .cfa -16 + ^ x21: .cfa -32 + ^ .ra: .cfa -40 + ^ x29: .cfa -48 + ^
STACK CFI 4911c .cfa: sp 64 +
STACK CFI 4912c .cfa: sp 0 +
STACK CFI 49130 .cfa: x29 48 +
STACK CFI INIT 49134 b8 .cfa: sp 0 +
STACK CFI 49138 .cfa: sp 64 +
STACK CFI 49148 .cfa: x29 48 + x19: .cfa -8 + ^ x20: .cfa -16 + ^ x21: .cfa -32 + ^ .ra: .cfa -40 + ^ x29: .cfa -48 + ^
STACK CFI 491d4 .cfa: sp 64 +
STACK CFI 491e4 .cfa: sp 0 +
STACK CFI 491e8 .cfa: x29 48 +
STACK CFI INIT 491ec b8 .cfa: sp 0 +
STACK CFI 491f0 .cfa: sp 64 +
STACK CFI 49200 .cfa: x29 48 + x19: .cfa -8 + ^ x20: .cfa -16 + ^ x21: .cfa -32 + ^ .ra: .cfa -40 + ^ x29: .cfa -48 + ^
STACK CFI 4928c .cfa: sp 64 +
STACK CFI 4929c .cfa: sp 0 +
STACK CFI 492a0 .cfa: x29 48 +
STACK CFI INIT 492a4 b8 .cfa: sp 0 +
STACK CFI 492a8 .cfa: sp 64 +
STACK CFI 492b8 .cfa: x29 48 + x19: .cfa -8 + ^ x20: .cfa -16 + ^ x21: .cfa -32 + ^ .ra: .cfa -40 + ^ x29: .cfa -48 + ^
STACK CFI 49344 .cfa: sp 64 +
STACK CFI 49354 .cfa: sp 0 +
STACK CFI 49358 .cfa: x29 48 +
STACK CFI INIT 4935c b8 .cfa: sp 0 +
STACK CFI 49360 .cfa: sp 64 +
STACK CFI 49370 .cfa: x29 48 + x19: .cfa -8 + ^ x20: .cfa -16 + ^ x21: .cfa -32 + ^ .ra: .cfa -40 + ^ x29: .cfa -48 + ^
STACK CFI 493fc .cfa: sp 64 +
STACK CFI 4940c .cfa: sp 0 +
STACK CFI 49410 .cfa: x29 48 +
STACK CFI INIT 49414 b8 .cfa: sp 0 +
STACK CFI 49418 .cfa: sp 64 +
STACK CFI 49428 .cfa: x29 48 + x19: .cfa -8 + ^ x20: .cfa -16 + ^ x21: .cfa -32 + ^ .ra: .cfa -40 + ^ x29: .cfa -48 + ^
STACK CFI 494b4 .cfa: sp 64 +
STACK CFI 494c4 .cfa: sp 0 +
STACK CFI 494c8 .cfa: x29 48 +
STACK CFI INIT 494cc b8 .cfa: sp 0 +
STACK CFI 494d0 .cfa: sp 64 +
STACK CFI 494e0 .cfa: x29 48 + x19: .cfa -8 + ^ x20: .cfa -16 + ^ x21: .cfa -32 + ^ .ra: .cfa -40 + ^ x29: .cfa -48 + ^
STACK CFI 4956c .cfa: sp 64 +
STACK CFI 4957c .cfa: sp 0 +
STACK CFI 49580 .cfa: x29 48 +
STACK CFI INIT 49584 b8 .cfa: sp 0 +
STACK CFI 49588 .cfa: sp 64 +
STACK CFI 49598 .cfa: x29 48 + x19: .cfa -8 + ^ x20: .cfa -16 + ^ x21: .cfa -32 + ^ .ra: .cfa -40 + ^ x29: .cfa -48 + ^
STACK CFI 49624 .cfa: sp 64 +
STACK CFI 49634 .cfa: sp 0 +
STACK CFI 49638 .cfa: x29 48 +
STACK CFI INIT 4963c b8 .cfa: sp 0 +
STACK CFI 49640 .cfa: sp 64 +
STACK CFI 49650 .cfa: x29 48 + x19: .cfa -8 + ^ x20: .cfa -16 + ^ x21: .cfa -32 + ^ .ra: .cfa -40 + ^ x29: .cfa -48 + ^
STACK CFI 496dc .cfa: sp 64 +
STACK CFI 496ec .cfa: sp 0 +
STACK CFI 496f0 .cfa: x29 48 +
STACK CFI INIT 496f4 24 .cfa: sp 0 +
STACK CFI 496f8 .cfa: sp 32 +
STACK CFI 49700 .cfa: x29 32 + x19: .cfa -16 + ^ .ra: .cfa -24 + ^ x29: .cfa -32 + ^
STACK CFI 4970c .cfa: sp 32 +
STACK CFI 49714 .cfa: sp 0 +
STACK CFI INIT 49718 8 .cfa: sp 0 +
STACK CFI INIT 49720 28 .cfa: sp 0 +
STACK CFI 49724 .cfa: sp 32 +
STACK CFI 4972c .cfa: x29 32 + x19: .cfa -16 + ^ .ra: .cfa -24 + ^ x29: .cfa -32 + ^
STACK CFI 4973c .cfa: sp 32 +
STACK CFI 49744 .cfa: sp 0 +
STACK CFI INIT 49748 4 .cfa: sp 0 +
STACK CFI INIT 4974c 34 .cfa: sp 0 +
STACK CFI 49750 .cfa: sp 32 +
STACK CFI 49758 .cfa: x29 32 + x19: .cfa -16 + ^ .ra: .cfa -24 + ^ x29: .cfa -32 + ^
STACK CFI 49774 .cfa: sp 32 +
STACK CFI 4977c .cfa: sp 0 +
STACK CFI INIT 49780 14 .cfa: sp 0 +
STACK CFI INIT 49794 4 .cfa: sp 0 +
STACK CFI INIT 49798 4 .cfa: sp 0 +
STACK CFI INIT 4979c 8c .cfa: sp 0 +
STACK CFI 497a0 .cfa: sp 80 +
STACK CFI 497b0 .cfa: x29 48 + x19: .cfa -8 + ^ x20: .cfa -16 + ^ x21: .cfa -32 + ^ .ra: .cfa -40 + ^ x29: .cfa -48 + ^
STACK CFI 49810 .cfa: sp 80 +
STACK CFI 49820 .cfa: sp 0 +
STACK CFI 49824 .cfa: x29 48 +
STACK CFI INIT 49828 1c .cfa: sp 0 +
STACK CFI INIT 49844 c .cfa: sp 0 +
STACK CFI INIT 49850 4 .cfa: sp 0 +
STACK CFI INIT 49854 34 .cfa: sp 0 +
STACK CFI 49858 .cfa: sp 32 +
STACK CFI 49860 .cfa: x29 32 + x19: .cfa -16 + ^ .ra: .cfa -24 + ^ x29: .cfa -32 + ^
STACK CFI 4987c .cfa: sp 32 +
STACK CFI 49884 .cfa: sp 0 +
STACK CFI INIT 49888 14 .cfa: sp 0 +
STACK CFI INIT 4989c 4 .cfa: sp 0 +
STACK CFI INIT 498a0 4 .cfa: sp 0 +
STACK CFI INIT 498a4 8c .cfa: sp 0 +
STACK CFI 498a8 .cfa: sp 80 +
STACK CFI 498b8 .cfa: x29 48 + x19: .cfa -8 + ^ x20: .cfa -16 + ^ x21: .cfa -32 + ^ .ra: .cfa -40 + ^ x29: .cfa -48 + ^
STACK CFI 49918 .cfa: sp 80 +
STACK CFI 49928 .cfa: sp 0 +
STACK CFI 4992c .cfa: x29 48 +
STACK CFI INIT 49930 1c .cfa: sp 0 +
STACK CFI INIT 4994c c .cfa: sp 0 +
STACK CFI INIT 49958 4 .cfa: sp 0 +
STACK CFI INIT 4995c 34 .cfa: sp 0 +
STACK CFI 49960 .cfa: sp 32 +
STACK CFI 49968 .cfa: x29 32 + x19: .cfa -16 + ^ .ra: .cfa -24 + ^ x29: .cfa -32 + ^
STACK CFI 49984 .cfa: sp 32 +
STACK CFI 4998c .cfa: sp 0 +
STACK CFI INIT 49990 14 .cfa: sp 0 +
STACK CFI INIT 499a4 4 .cfa: sp 0 +
STACK CFI INIT 499a8 4 .cfa: sp 0 +
STACK CFI INIT 499ac 8c .cfa: sp 0 +
STACK CFI 499b0 .cfa: sp 80 +
STACK CFI 499c0 .cfa: x29 48 + x19: .cfa -8 + ^ x20: .cfa -16 + ^ x21: .cfa -32 + ^ .ra: .cfa -40 + ^ x29: .cfa -48 + ^
STACK CFI 49a20 .cfa: sp 80 +
STACK CFI 49a30 .cfa: sp 0 +
STACK CFI 49a34 .cfa: x29 48 +
STACK CFI INIT 49a38 1c .cfa: sp 0 +
STACK CFI INIT 49a54 c .cfa: sp 0 +
STACK CFI INIT 49a60 4 .cfa: sp 0 +
STACK CFI INIT 49a64 34 .cfa: sp 0 +
STACK CFI 49a68 .cfa: sp 32 +
STACK CFI 49a70 .cfa: x29 32 + x19: .cfa -16 + ^ .ra: .cfa -24 + ^ x29: .cfa -32 + ^
STACK CFI 49a8c .cfa: sp 32 +
STACK CFI 49a94 .cfa: sp 0 +
STACK CFI INIT 49a98 14 .cfa: sp 0 +
STACK CFI INIT 49aac 4 .cfa: sp 0 +
STACK CFI INIT 49ab0 4 .cfa: sp 0 +
STACK CFI INIT 49ab4 8c .cfa: sp 0 +
STACK CFI 49ab8 .cfa: sp 80 +
STACK CFI 49ac8 .cfa: x29 48 + x19: .cfa -8 + ^ x20: .cfa -16 + ^ x21: .cfa -32 + ^ .ra: .cfa -40 + ^ x29: .cfa -48 + ^
STACK CFI 49b28 .cfa: sp 80 +
STACK CFI 49b38 .cfa: sp 0 +
STACK CFI 49b3c .cfa: x29 48 +
STACK CFI INIT 49b40 1c .cfa: sp 0 +
STACK CFI INIT 49b5c c .cfa: sp 0 +
STACK CFI INIT 49b68 4 .cfa: sp 0 +
STACK CFI INIT 49b6c 34 .cfa: sp 0 +
STACK CFI 49b70 .cfa: sp 32 +
STACK CFI 49b78 .cfa: x29 32 + x19: .cfa -16 + ^ .ra: .cfa -24 + ^ x29: .cfa -32 + ^
STACK CFI 49b94 .cfa: sp 32 +
STACK CFI 49b9c .cfa: sp 0 +
STACK CFI INIT 49ba0 14 .cfa: sp 0 +
STACK CFI INIT 49bb4 4 .cfa: sp 0 +
STACK CFI INIT 49bb8 4 .cfa: sp 0 +
STACK CFI INIT 49bbc 8c .cfa: sp 0 +
STACK CFI 49bc0 .cfa: sp 80 +
STACK CFI 49bd0 .cfa: x29 48 + x19: .cfa -8 + ^ x20: .cfa -16 + ^ x21: .cfa -32 + ^ .ra: .cfa -40 + ^ x29: .cfa -48 + ^
STACK CFI 49c30 .cfa: sp 80 +
STACK CFI 49c40 .cfa: sp 0 +
STACK CFI 49c44 .cfa: x29 48 +
STACK CFI INIT 49c48 1c .cfa: sp 0 +
STACK CFI INIT 49c64 c .cfa: sp 0 +
STACK CFI INIT 49c70 4 .cfa: sp 0 +
STACK CFI INIT 49c74 34 .cfa: sp 0 +
STACK CFI 49c78 .cfa: sp 32 +
STACK CFI 49c80 .cfa: x29 32 + x19: .cfa -16 + ^ .ra: .cfa -24 + ^ x29: .cfa -32 + ^
STACK CFI 49c9c .cfa: sp 32 +
STACK CFI 49ca4 .cfa: sp 0 +
STACK CFI INIT 49ca8 14 .cfa: sp 0 +
STACK CFI INIT 49cbc 4 .cfa: sp 0 +
STACK CFI INIT 49cc0 4 .cfa: sp 0 +
STACK CFI INIT 49cc4 8c .cfa: sp 0 +
STACK CFI 49cc8 .cfa: sp 80 +
STACK CFI 49cd8 .cfa: x29 48 + x19: .cfa -8 + ^ x20: .cfa -16 + ^ x21: .cfa -32 + ^ .ra: .cfa -40 + ^ x29: .cfa -48 + ^
STACK CFI 49d38 .cfa: sp 80 +
STACK CFI 49d48 .cfa: sp 0 +
STACK CFI 49d4c .cfa: x29 48 +
STACK CFI INIT 49d50 1c .cfa: sp 0 +
STACK CFI INIT 49d6c c .cfa: sp 0 +
STACK CFI INIT 49d78 4 .cfa: sp 0 +
STACK CFI INIT 49d7c 34 .cfa: sp 0 +
STACK CFI 49d80 .cfa: sp 32 +
STACK CFI 49d88 .cfa: x29 32 + x19: .cfa -16 + ^ .ra: .cfa -24 + ^ x29: .cfa -32 + ^
STACK CFI 49da4 .cfa: sp 32 +
STACK CFI 49dac .cfa: sp 0 +
STACK CFI INIT 49db0 14 .cfa: sp 0 +
STACK CFI INIT 49dc4 4 .cfa: sp 0 +
STACK CFI INIT 49dc8 4 .cfa: sp 0 +
STACK CFI INIT 49dcc 8c .cfa: sp 0 +
STACK CFI 49dd0 .cfa: sp 80 +
STACK CFI 49de0 .cfa: x29 48 + x19: .cfa -8 + ^ x20: .cfa -16 + ^ x21: .cfa -32 + ^ .ra: .cfa -40 + ^ x29: .cfa -48 + ^
STACK CFI 49e40 .cfa: sp 80 +
STACK CFI 49e50 .cfa: sp 0 +
STACK CFI 49e54 .cfa: x29 48 +
STACK CFI INIT 49e58 1c .cfa: sp 0 +
STACK CFI INIT 49e74 c .cfa: sp 0 +
STACK CFI INIT 49e80 4 .cfa: sp 0 +
STACK CFI INIT 49e84 34 .cfa: sp 0 +
STACK CFI 49e88 .cfa: sp 32 +
STACK CFI 49e90 .cfa: x29 32 + x19: .cfa -16 + ^ .ra: .cfa -24 + ^ x29: .cfa -32 + ^
STACK CFI 49eac .cfa: sp 32 +
STACK CFI 49eb4 .cfa: sp 0 +
STACK CFI INIT 49eb8 14 .cfa: sp 0 +
STACK CFI INIT 49ecc 4 .cfa: sp 0 +
STACK CFI INIT 49ed0 4 .cfa: sp 0 +
STACK CFI INIT 49ed4 8c .cfa: sp 0 +
STACK CFI 49ed8 .cfa: sp 80 +
STACK CFI 49ee8 .cfa: x29 48 + x19: .cfa -8 + ^ x20: .cfa -16 + ^ x21: .cfa -32 + ^ .ra: .cfa -40 + ^ x29: .cfa -48 + ^
STACK CFI 49f48 .cfa: sp 80 +
STACK CFI 49f58 .cfa: sp 0 +
STACK CFI 49f5c .cfa: x29 48 +
STACK CFI INIT 49f60 1c .cfa: sp 0 +
STACK CFI INIT 49f7c c .cfa: sp 0 +
STACK CFI INIT 49f88 4 .cfa: sp 0 +
STACK CFI INIT 49f8c 34 .cfa: sp 0 +
STACK CFI 49f90 .cfa: sp 32 +
STACK CFI 49f98 .cfa: x29 32 + x19: .cfa -16 + ^ .ra: .cfa -24 + ^ x29: .cfa -32 + ^
STACK CFI 49fb4 .cfa: sp 32 +
STACK CFI 49fbc .cfa: sp 0 +
STACK CFI INIT 49fc0 14 .cfa: sp 0 +
STACK CFI INIT 49fd4 4 .cfa: sp 0 +
STACK CFI INIT 49fd8 4 .cfa: sp 0 +
STACK CFI INIT 49fdc 8c .cfa: sp 0 +
STACK CFI 49fe0 .cfa: sp 80 +
STACK CFI 49ff0 .cfa: x29 48 + x19: .cfa -8 + ^ x20: .cfa -16 + ^ x21: .cfa -32 + ^ .ra: .cfa -40 + ^ x29: .cfa -48 + ^
STACK CFI 4a050 .cfa: sp 80 +
STACK CFI 4a060 .cfa: sp 0 +
STACK CFI 4a064 .cfa: x29 48 +
STACK CFI INIT 4a068 1c .cfa: sp 0 +
STACK CFI INIT 4a084 c .cfa: sp 0 +
STACK CFI INIT 4a090 4 .cfa: sp 0 +
STACK CFI INIT 4a094 34 .cfa: sp 0 +
STACK CFI 4a098 .cfa: sp 32 +
STACK CFI 4a0a0 .cfa: x29 32 + x19: .cfa -16 + ^ .ra: .cfa -24 + ^ x29: .cfa -32 + ^
STACK CFI 4a0bc .cfa: sp 32 +
STACK CFI 4a0c4 .cfa: sp 0 +
STACK CFI INIT 4a0c8 14 .cfa: sp 0 +
STACK CFI INIT 4a0dc 4 .cfa: sp 0 +
STACK CFI INIT 4a0e0 4 .cfa: sp 0 +
STACK CFI INIT 4a0e4 8c .cfa: sp 0 +
STACK CFI 4a0e8 .cfa: sp 80 +
STACK CFI 4a0f8 .cfa: x29 48 + x19: .cfa -8 + ^ x20: .cfa -16 + ^ x21: .cfa -32 + ^ .ra: .cfa -40 + ^ x29: .cfa -48 + ^
STACK CFI 4a158 .cfa: sp 80 +
STACK CFI 4a168 .cfa: sp 0 +
STACK CFI 4a16c .cfa: x29 48 +
STACK CFI INIT 4a170 1c .cfa: sp 0 +
STACK CFI INIT 4a18c c .cfa: sp 0 +
STACK CFI INIT 4a198 4 .cfa: sp 0 +
STACK CFI INIT 4a19c 34 .cfa: sp 0 +
STACK CFI 4a1a0 .cfa: sp 32 +
STACK CFI 4a1a8 .cfa: x29 32 + x19: .cfa -16 + ^ .ra: .cfa -24 + ^ x29: .cfa -32 + ^
STACK CFI 4a1c4 .cfa: sp 32 +
STACK CFI 4a1cc .cfa: sp 0 +
STACK CFI INIT 4a1d0 14 .cfa: sp 0 +
STACK CFI INIT 4a1e4 4 .cfa: sp 0 +
STACK CFI INIT 4a1e8 4 .cfa: sp 0 +
STACK CFI INIT 4a1ec 8c .cfa: sp 0 +
STACK CFI 4a1f0 .cfa: sp 80 +
STACK CFI 4a200 .cfa: x29 48 + x19: .cfa -8 + ^ x20: .cfa -16 + ^ x21: .cfa -32 + ^ .ra: .cfa -40 + ^ x29: .cfa -48 + ^
STACK CFI 4a260 .cfa: sp 80 +
STACK CFI 4a270 .cfa: sp 0 +
STACK CFI 4a274 .cfa: x29 48 +
STACK CFI INIT 4a278 1c .cfa: sp 0 +
STACK CFI INIT 4a294 c .cfa: sp 0 +
STACK CFI INIT 4a2a0 4 .cfa: sp 0 +
STACK CFI INIT 4a2a4 34 .cfa: sp 0 +
STACK CFI 4a2a8 .cfa: sp 32 +
STACK CFI 4a2b0 .cfa: x29 32 + x19: .cfa -16 + ^ .ra: .cfa -24 + ^ x29: .cfa -32 + ^
STACK CFI 4a2cc .cfa: sp 32 +
STACK CFI 4a2d4 .cfa: sp 0 +
STACK CFI INIT 4a2d8 14 .cfa: sp 0 +
STACK CFI INIT 4a2ec 4 .cfa: sp 0 +
STACK CFI INIT 4a2f0 4 .cfa: sp 0 +
STACK CFI INIT 4a2f4 8c .cfa: sp 0 +
STACK CFI 4a2f8 .cfa: sp 80 +
STACK CFI 4a308 .cfa: x29 48 + x19: .cfa -8 + ^ x20: .cfa -16 + ^ x21: .cfa -32 + ^ .ra: .cfa -40 + ^ x29: .cfa -48 + ^
STACK CFI 4a368 .cfa: sp 80 +
STACK CFI 4a378 .cfa: sp 0 +
STACK CFI 4a37c .cfa: x29 48 +
STACK CFI INIT 4a380 1c .cfa: sp 0 +
STACK CFI INIT 4a39c c .cfa: sp 0 +
STACK CFI INIT 4a3a8 4 .cfa: sp 0 +
STACK CFI INIT 4a3ac 34 .cfa: sp 0 +
STACK CFI 4a3b0 .cfa: sp 32 +
STACK CFI 4a3b8 .cfa: x29 32 + x19: .cfa -16 + ^ .ra: .cfa -24 + ^ x29: .cfa -32 + ^
STACK CFI 4a3d4 .cfa: sp 32 +
STACK CFI 4a3dc .cfa: sp 0 +
STACK CFI INIT 4a3e0 14 .cfa: sp 0 +
STACK CFI INIT 4a3f4 4 .cfa: sp 0 +
STACK CFI INIT 4a3f8 4 .cfa: sp 0 +
STACK CFI INIT 4a3fc 8c .cfa: sp 0 +
STACK CFI 4a400 .cfa: sp 80 +
STACK CFI 4a410 .cfa: x29 48 + x19: .cfa -8 + ^ x20: .cfa -16 + ^ x21: .cfa -32 + ^ .ra: .cfa -40 + ^ x29: .cfa -48 + ^
STACK CFI 4a470 .cfa: sp 80 +
STACK CFI 4a480 .cfa: sp 0 +
STACK CFI 4a484 .cfa: x29 48 +
STACK CFI INIT 4a488 1c .cfa: sp 0 +
STACK CFI INIT 4a4a4 c .cfa: sp 0 +
STACK CFI INIT 4a4b0 4 .cfa: sp 0 +
STACK CFI INIT 4a4b4 34 .cfa: sp 0 +
STACK CFI 4a4b8 .cfa: sp 32 +
STACK CFI 4a4c0 .cfa: x29 32 + x19: .cfa -16 + ^ .ra: .cfa -24 + ^ x29: .cfa -32 + ^
STACK CFI 4a4dc .cfa: sp 32 +
STACK CFI 4a4e4 .cfa: sp 0 +
STACK CFI INIT 4a4e8 14 .cfa: sp 0 +
STACK CFI INIT 4a4fc 4 .cfa: sp 0 +
STACK CFI INIT 4a500 4 .cfa: sp 0 +
STACK CFI INIT 4a504 8c .cfa: sp 0 +
STACK CFI 4a508 .cfa: sp 80 +
STACK CFI 4a518 .cfa: x29 48 + x19: .cfa -8 + ^ x20: .cfa -16 + ^ x21: .cfa -32 + ^ .ra: .cfa -40 + ^ x29: .cfa -48 + ^
STACK CFI 4a578 .cfa: sp 80 +
STACK CFI 4a588 .cfa: sp 0 +
STACK CFI 4a58c .cfa: x29 48 +
STACK CFI INIT 4a590 1c .cfa: sp 0 +
STACK CFI INIT 4a5ac c .cfa: sp 0 +
STACK CFI INIT 4a5b8 4 .cfa: sp 0 +
STACK CFI INIT 4a5bc 34 .cfa: sp 0 +
STACK CFI 4a5c0 .cfa: sp 32 +
STACK CFI 4a5c8 .cfa: x29 32 + x19: .cfa -16 + ^ .ra: .cfa -24 + ^ x29: .cfa -32 + ^
STACK CFI 4a5e4 .cfa: sp 32 +
STACK CFI 4a5ec .cfa: sp 0 +
STACK CFI INIT 4a5f0 14 .cfa: sp 0 +
STACK CFI INIT 4a604 4 .cfa: sp 0 +
STACK CFI INIT 4a608 4 .cfa: sp 0 +
STACK CFI INIT 4a60c 8c .cfa: sp 0 +
STACK CFI 4a610 .cfa: sp 80 +
STACK CFI 4a620 .cfa: x29 48 + x19: .cfa -8 + ^ x20: .cfa -16 + ^ x21: .cfa -32 + ^ .ra: .cfa -40 + ^ x29: .cfa -48 + ^
STACK CFI 4a680 .cfa: sp 80 +
STACK CFI 4a690 .cfa: sp 0 +
STACK CFI 4a694 .cfa: x29 48 +
STACK CFI INIT 4a698 1c .cfa: sp 0 +
STACK CFI INIT 4a6b4 c .cfa: sp 0 +
STACK CFI INIT 4a6c0 4 .cfa: sp 0 +
STACK CFI INIT 4a6c4 34 .cfa: sp 0 +
STACK CFI 4a6c8 .cfa: sp 32 +
STACK CFI 4a6d0 .cfa: x29 32 + x19: .cfa -16 + ^ .ra: .cfa -24 + ^ x29: .cfa -32 + ^
STACK CFI 4a6ec .cfa: sp 32 +
STACK CFI 4a6f4 .cfa: sp 0 +
STACK CFI INIT 4a6f8 14 .cfa: sp 0 +
STACK CFI INIT 4a70c 4 .cfa: sp 0 +
STACK CFI INIT 4a710 4 .cfa: sp 0 +
STACK CFI INIT 4a714 8c .cfa: sp 0 +
STACK CFI 4a718 .cfa: sp 80 +
STACK CFI 4a728 .cfa: x29 48 + x19: .cfa -8 + ^ x20: .cfa -16 + ^ x21: .cfa -32 + ^ .ra: .cfa -40 + ^ x29: .cfa -48 + ^
STACK CFI 4a788 .cfa: sp 80 +
STACK CFI 4a798 .cfa: sp 0 +
STACK CFI 4a79c .cfa: x29 48 +
STACK CFI INIT 4a7a0 1c .cfa: sp 0 +
STACK CFI INIT 4a7bc c .cfa: sp 0 +
STACK CFI INIT 4a7c8 4 .cfa: sp 0 +
STACK CFI INIT 4a7cc 34 .cfa: sp 0 +
STACK CFI 4a7d0 .cfa: sp 32 +
STACK CFI 4a7d8 .cfa: x29 32 + x19: .cfa -16 + ^ .ra: .cfa -24 + ^ x29: .cfa -32 + ^
STACK CFI 4a7f4 .cfa: sp 32 +
STACK CFI 4a7fc .cfa: sp 0 +
STACK CFI INIT 4a800 14 .cfa: sp 0 +
STACK CFI INIT 4a814 4 .cfa: sp 0 +
STACK CFI INIT 4a818 4 .cfa: sp 0 +
STACK CFI INIT 4a81c 8c .cfa: sp 0 +
STACK CFI 4a820 .cfa: sp 80 +
STACK CFI 4a830 .cfa: x29 48 + x19: .cfa -8 + ^ x20: .cfa -16 + ^ x21: .cfa -32 + ^ .ra: .cfa -40 + ^ x29: .cfa -48 + ^
STACK CFI 4a890 .cfa: sp 80 +
STACK CFI 4a8a0 .cfa: sp 0 +
STACK CFI 4a8a4 .cfa: x29 48 +
STACK CFI INIT 4a8a8 1c .cfa: sp 0 +
STACK CFI INIT 4a8c4 c .cfa: sp 0 +
STACK CFI INIT 4a8d0 4 .cfa: sp 0 +
STACK CFI INIT 4a8d4 34 .cfa: sp 0 +
STACK CFI 4a8d8 .cfa: sp 32 +
STACK CFI 4a8e0 .cfa: x29 32 + x19: .cfa -16 + ^ .ra: .cfa -24 + ^ x29: .cfa -32 + ^
STACK CFI 4a8fc .cfa: sp 32 +
STACK CFI 4a904 .cfa: sp 0 +
STACK CFI INIT 4a908 14 .cfa: sp 0 +
STACK CFI INIT 4a91c 4 .cfa: sp 0 +
STACK CFI INIT 4a920 4 .cfa: sp 0 +
STACK CFI INIT 4a924 8c .cfa: sp 0 +
STACK CFI 4a928 .cfa: sp 80 +
STACK CFI 4a938 .cfa: x29 48 + x19: .cfa -8 + ^ x20: .cfa -16 + ^ x21: .cfa -32 + ^ .ra: .cfa -40 + ^ x29: .cfa -48 + ^
STACK CFI 4a998 .cfa: sp 80 +
STACK CFI 4a9a8 .cfa: sp 0 +
STACK CFI 4a9ac .cfa: x29 48 +
STACK CFI INIT 4a9b0 1c .cfa: sp 0 +
STACK CFI INIT 4a9cc c .cfa: sp 0 +
STACK CFI INIT 4a9d8 4 .cfa: sp 0 +
STACK CFI INIT 4a9dc 34 .cfa: sp 0 +
STACK CFI 4a9e0 .cfa: sp 32 +
STACK CFI 4a9e8 .cfa: x29 32 + x19: .cfa -16 + ^ .ra: .cfa -24 + ^ x29: .cfa -32 + ^
STACK CFI 4aa04 .cfa: sp 32 +
STACK CFI 4aa0c .cfa: sp 0 +
STACK CFI INIT 4aa10 14 .cfa: sp 0 +
STACK CFI INIT 4aa24 4 .cfa: sp 0 +
STACK CFI INIT 4aa28 4 .cfa: sp 0 +
STACK CFI INIT 4aa2c 8c .cfa: sp 0 +
STACK CFI 4aa30 .cfa: sp 80 +
STACK CFI 4aa40 .cfa: x29 48 + x19: .cfa -8 + ^ x20: .cfa -16 + ^ x21: .cfa -32 + ^ .ra: .cfa -40 + ^ x29: .cfa -48 + ^
STACK CFI 4aaa0 .cfa: sp 80 +
STACK CFI 4aab0 .cfa: sp 0 +
STACK CFI 4aab4 .cfa: x29 48 +
STACK CFI INIT 4aab8 1c .cfa: sp 0 +
STACK CFI INIT 4aad4 c .cfa: sp 0 +
STACK CFI INIT 4aae0 4 .cfa: sp 0 +
STACK CFI INIT 4aae4 34 .cfa: sp 0 +
STACK CFI 4aae8 .cfa: sp 32 +
STACK CFI 4aaf0 .cfa: x29 32 + x19: .cfa -16 + ^ .ra: .cfa -24 + ^ x29: .cfa -32 + ^
STACK CFI 4ab0c .cfa: sp 32 +
STACK CFI 4ab14 .cfa: sp 0 +
STACK CFI INIT 4ab18 14 .cfa: sp 0 +
STACK CFI INIT 4ab2c 4 .cfa: sp 0 +
STACK CFI INIT 4ab30 4 .cfa: sp 0 +
STACK CFI INIT 4ab34 8c .cfa: sp 0 +
STACK CFI 4ab38 .cfa: sp 80 +
STACK CFI 4ab48 .cfa: x29 48 + x19: .cfa -8 + ^ x20: .cfa -16 + ^ x21: .cfa -32 + ^ .ra: .cfa -40 + ^ x29: .cfa -48 + ^
STACK CFI 4aba8 .cfa: sp 80 +
STACK CFI 4abb8 .cfa: sp 0 +
STACK CFI 4abbc .cfa: x29 48 +
STACK CFI INIT 4abc0 1c .cfa: sp 0 +
STACK CFI INIT 4abdc c .cfa: sp 0 +
STACK CFI INIT 4d6dc b8 .cfa: sp 0 +
STACK CFI 4d6e0 .cfa: sp 64 +
STACK CFI 4d6f0 .cfa: x29 48 + x19: .cfa -8 + ^ x20: .cfa -16 + ^ x21: .cfa -32 + ^ .ra: .cfa -40 + ^ x29: .cfa -48 + ^
STACK CFI 4d77c .cfa: sp 64 +
STACK CFI 4d78c .cfa: sp 0 +
STACK CFI 4d790 .cfa: x29 48 +
STACK CFI INIT 4d794 b8 .cfa: sp 0 +
STACK CFI 4d798 .cfa: sp 64 +
STACK CFI 4d7a8 .cfa: x29 48 + x19: .cfa -8 + ^ x20: .cfa -16 + ^ x21: .cfa -32 + ^ .ra: .cfa -40 + ^ x29: .cfa -48 + ^
STACK CFI 4d834 .cfa: sp 64 +
STACK CFI 4d844 .cfa: sp 0 +
STACK CFI 4d848 .cfa: x29 48 +
STACK CFI INIT 4d84c b8 .cfa: sp 0 +
STACK CFI 4d850 .cfa: sp 64 +
STACK CFI 4d860 .cfa: x29 48 + x19: .cfa -8 + ^ x20: .cfa -16 + ^ x21: .cfa -32 + ^ .ra: .cfa -40 + ^ x29: .cfa -48 + ^
STACK CFI 4d8ec .cfa: sp 64 +
STACK CFI 4d8fc .cfa: sp 0 +
STACK CFI 4d900 .cfa: x29 48 +
STACK CFI INIT 4d904 b8 .cfa: sp 0 +
STACK CFI 4d908 .cfa: sp 64 +
STACK CFI 4d918 .cfa: x29 48 + x19: .cfa -8 + ^ x20: .cfa -16 + ^ x21: .cfa -32 + ^ .ra: .cfa -40 + ^ x29: .cfa -48 + ^
STACK CFI 4d9a4 .cfa: sp 64 +
STACK CFI 4d9b4 .cfa: sp 0 +
STACK CFI 4d9b8 .cfa: x29 48 +
STACK CFI INIT 4d9bc b8 .cfa: sp 0 +
STACK CFI 4d9c0 .cfa: sp 64 +
STACK CFI 4d9d0 .cfa: x29 48 + x19: .cfa -8 + ^ x20: .cfa -16 + ^ x21: .cfa -32 + ^ .ra: .cfa -40 + ^ x29: .cfa -48 + ^
STACK CFI 4da5c .cfa: sp 64 +
STACK CFI 4da6c .cfa: sp 0 +
STACK CFI 4da70 .cfa: x29 48 +
STACK CFI INIT 4da74 b8 .cfa: sp 0 +
STACK CFI 4da78 .cfa: sp 64 +
STACK CFI 4da88 .cfa: x29 48 + x19: .cfa -8 + ^ x20: .cfa -16 + ^ x21: .cfa -32 + ^ .ra: .cfa -40 + ^ x29: .cfa -48 + ^
STACK CFI 4db14 .cfa: sp 64 +
STACK CFI 4db24 .cfa: sp 0 +
STACK CFI 4db28 .cfa: x29 48 +
STACK CFI INIT 4db2c b8 .cfa: sp 0 +
STACK CFI 4db30 .cfa: sp 64 +
STACK CFI 4db40 .cfa: x29 48 + x19: .cfa -8 + ^ x20: .cfa -16 + ^ x21: .cfa -32 + ^ .ra: .cfa -40 + ^ x29: .cfa -48 + ^
STACK CFI 4dbcc .cfa: sp 64 +
STACK CFI 4dbdc .cfa: sp 0 +
STACK CFI 4dbe0 .cfa: x29 48 +
STACK CFI INIT 4dbe4 b8 .cfa: sp 0 +
STACK CFI 4dbe8 .cfa: sp 64 +
STACK CFI 4dbf8 .cfa: x29 48 + x19: .cfa -8 + ^ x20: .cfa -16 + ^ x21: .cfa -32 + ^ .ra: .cfa -40 + ^ x29: .cfa -48 + ^
STACK CFI 4dc84 .cfa: sp 64 +
STACK CFI 4dc94 .cfa: sp 0 +
STACK CFI 4dc98 .cfa: x29 48 +
STACK CFI INIT 4dc9c b8 .cfa: sp 0 +
STACK CFI 4dca0 .cfa: sp 64 +
STACK CFI 4dcb0 .cfa: x29 48 + x19: .cfa -8 + ^ x20: .cfa -16 + ^ x21: .cfa -32 + ^ .ra: .cfa -40 + ^ x29: .cfa -48 + ^
STACK CFI 4dd3c .cfa: sp 64 +
STACK CFI 4dd4c .cfa: sp 0 +
STACK CFI 4dd50 .cfa: x29 48 +
STACK CFI INIT 4dd54 b8 .cfa: sp 0 +
STACK CFI 4dd58 .cfa: sp 64 +
STACK CFI 4dd68 .cfa: x29 48 + x19: .cfa -8 + ^ x20: .cfa -16 + ^ x21: .cfa -32 + ^ .ra: .cfa -40 + ^ x29: .cfa -48 + ^
STACK CFI 4ddf4 .cfa: sp 64 +
STACK CFI 4de04 .cfa: sp 0 +
STACK CFI 4de08 .cfa: x29 48 +
STACK CFI INIT 4de0c 24 .cfa: sp 0 +
STACK CFI 4de10 .cfa: sp 32 +
STACK CFI 4de18 .cfa: x29 32 + x19: .cfa -16 + ^ .ra: .cfa -24 + ^ x29: .cfa -32 + ^
STACK CFI 4de24 .cfa: sp 32 +
STACK CFI 4de2c .cfa: sp 0 +
STACK CFI INIT 4de30 8 .cfa: sp 0 +
STACK CFI INIT 4de38 28 .cfa: sp 0 +
STACK CFI 4de3c .cfa: sp 32 +
STACK CFI 4de44 .cfa: x29 32 + x19: .cfa -16 + ^ .ra: .cfa -24 + ^ x29: .cfa -32 + ^
STACK CFI 4de54 .cfa: sp 32 +
STACK CFI 4de5c .cfa: sp 0 +
STACK CFI INIT 4de60 4 .cfa: sp 0 +
STACK CFI INIT 4de64 34 .cfa: sp 0 +
STACK CFI 4de68 .cfa: sp 32 +
STACK CFI 4de70 .cfa: x29 32 + x19: .cfa -16 + ^ .ra: .cfa -24 + ^ x29: .cfa -32 + ^
STACK CFI 4de8c .cfa: sp 32 +
STACK CFI 4de94 .cfa: sp 0 +
STACK CFI INIT 4de98 14 .cfa: sp 0 +
STACK CFI INIT 4deac 4 .cfa: sp 0 +
STACK CFI INIT 4deb0 4 .cfa: sp 0 +
STACK CFI INIT 4deb4 8c .cfa: sp 0 +
STACK CFI 4deb8 .cfa: sp 80 +
STACK CFI 4dec8 .cfa: x29 48 + x19: .cfa -8 + ^ x20: .cfa -16 + ^ x21: .cfa -32 + ^ .ra: .cfa -40 + ^ x29: .cfa -48 + ^
STACK CFI 4df28 .cfa: sp 80 +
STACK CFI 4df38 .cfa: sp 0 +
STACK CFI 4df3c .cfa: x29 48 +
STACK CFI INIT 4df40 1c .cfa: sp 0 +
STACK CFI INIT 4df5c c .cfa: sp 0 +
STACK CFI INIT 4df68 4 .cfa: sp 0 +
STACK CFI INIT 4df6c 34 .cfa: sp 0 +
STACK CFI 4df70 .cfa: sp 32 +
STACK CFI 4df78 .cfa: x29 32 + x19: .cfa -16 + ^ .ra: .cfa -24 + ^ x29: .cfa -32 + ^
STACK CFI 4df94 .cfa: sp 32 +
STACK CFI 4df9c .cfa: sp 0 +
STACK CFI INIT 4dfa0 14 .cfa: sp 0 +
STACK CFI INIT 4dfb4 4 .cfa: sp 0 +
STACK CFI INIT 4dfb8 4 .cfa: sp 0 +
STACK CFI INIT 4dfbc 8c .cfa: sp 0 +
STACK CFI 4dfc0 .cfa: sp 80 +
STACK CFI 4dfd0 .cfa: x29 48 + x19: .cfa -8 + ^ x20: .cfa -16 + ^ x21: .cfa -32 + ^ .ra: .cfa -40 + ^ x29: .cfa -48 + ^
STACK CFI 4e030 .cfa: sp 80 +
STACK CFI 4e040 .cfa: sp 0 +
STACK CFI 4e044 .cfa: x29 48 +
STACK CFI INIT 4e048 1c .cfa: sp 0 +
STACK CFI INIT 4e064 c .cfa: sp 0 +
STACK CFI INIT 4e070 4 .cfa: sp 0 +
STACK CFI INIT 4e074 34 .cfa: sp 0 +
STACK CFI 4e078 .cfa: sp 32 +
STACK CFI 4e080 .cfa: x29 32 + x19: .cfa -16 + ^ .ra: .cfa -24 + ^ x29: .cfa -32 + ^
STACK CFI 4e09c .cfa: sp 32 +
STACK CFI 4e0a4 .cfa: sp 0 +
STACK CFI INIT 4e0a8 14 .cfa: sp 0 +
STACK CFI INIT 4e0bc 4 .cfa: sp 0 +
STACK CFI INIT 4e0c0 4 .cfa: sp 0 +
STACK CFI INIT 4e0c4 8c .cfa: sp 0 +
STACK CFI 4e0c8 .cfa: sp 80 +
STACK CFI 4e0d8 .cfa: x29 48 + x19: .cfa -8 + ^ x20: .cfa -16 + ^ x21: .cfa -32 + ^ .ra: .cfa -40 + ^ x29: .cfa -48 + ^
STACK CFI 4e138 .cfa: sp 80 +
STACK CFI 4e148 .cfa: sp 0 +
STACK CFI 4e14c .cfa: x29 48 +
STACK CFI INIT 4e150 1c .cfa: sp 0 +
STACK CFI INIT 4e16c c .cfa: sp 0 +
STACK CFI INIT 4e178 4 .cfa: sp 0 +
STACK CFI INIT 4e17c 34 .cfa: sp 0 +
STACK CFI 4e180 .cfa: sp 32 +
STACK CFI 4e188 .cfa: x29 32 + x19: .cfa -16 + ^ .ra: .cfa -24 + ^ x29: .cfa -32 + ^
STACK CFI 4e1a4 .cfa: sp 32 +
STACK CFI 4e1ac .cfa: sp 0 +
STACK CFI INIT 4e1b0 14 .cfa: sp 0 +
STACK CFI INIT 4e1c4 4 .cfa: sp 0 +
STACK CFI INIT 4e1c8 4 .cfa: sp 0 +
STACK CFI INIT 4e1cc 8c .cfa: sp 0 +
STACK CFI 4e1d0 .cfa: sp 80 +
STACK CFI 4e1e0 .cfa: x29 48 + x19: .cfa -8 + ^ x20: .cfa -16 + ^ x21: .cfa -32 + ^ .ra: .cfa -40 + ^ x29: .cfa -48 + ^
STACK CFI 4e240 .cfa: sp 80 +
STACK CFI 4e250 .cfa: sp 0 +
STACK CFI 4e254 .cfa: x29 48 +
STACK CFI INIT 4e258 1c .cfa: sp 0 +
STACK CFI INIT 4e274 c .cfa: sp 0 +
STACK CFI INIT 4e280 4 .cfa: sp 0 +
STACK CFI INIT 4e284 34 .cfa: sp 0 +
STACK CFI 4e288 .cfa: sp 32 +
STACK CFI 4e290 .cfa: x29 32 + x19: .cfa -16 + ^ .ra: .cfa -24 + ^ x29: .cfa -32 + ^
STACK CFI 4e2ac .cfa: sp 32 +
STACK CFI 4e2b4 .cfa: sp 0 +
STACK CFI INIT 4e2b8 14 .cfa: sp 0 +
STACK CFI INIT 4e2cc 4 .cfa: sp 0 +
STACK CFI INIT 4e2d0 4 .cfa: sp 0 +
STACK CFI INIT 4e2d4 8c .cfa: sp 0 +
STACK CFI 4e2d8 .cfa: sp 80 +
STACK CFI 4e2e8 .cfa: x29 48 + x19: .cfa -8 + ^ x20: .cfa -16 + ^ x21: .cfa -32 + ^ .ra: .cfa -40 + ^ x29: .cfa -48 + ^
STACK CFI 4e348 .cfa: sp 80 +
STACK CFI 4e358 .cfa: sp 0 +
STACK CFI 4e35c .cfa: x29 48 +
STACK CFI INIT 4e360 1c .cfa: sp 0 +
STACK CFI INIT 4e37c c .cfa: sp 0 +
STACK CFI INIT 4e388 4 .cfa: sp 0 +
STACK CFI INIT 4e38c 34 .cfa: sp 0 +
STACK CFI 4e390 .cfa: sp 32 +
STACK CFI 4e398 .cfa: x29 32 + x19: .cfa -16 + ^ .ra: .cfa -24 + ^ x29: .cfa -32 + ^
STACK CFI 4e3b4 .cfa: sp 32 +
STACK CFI 4e3bc .cfa: sp 0 +
STACK CFI INIT 4e3c0 14 .cfa: sp 0 +
STACK CFI INIT 4e3d4 4 .cfa: sp 0 +
STACK CFI INIT 4e3d8 4 .cfa: sp 0 +
STACK CFI INIT 4e3dc 8c .cfa: sp 0 +
STACK CFI 4e3e0 .cfa: sp 80 +
STACK CFI 4e3f0 .cfa: x29 48 + x19: .cfa -8 + ^ x20: .cfa -16 + ^ x21: .cfa -32 + ^ .ra: .cfa -40 + ^ x29: .cfa -48 + ^
STACK CFI 4e450 .cfa: sp 80 +
STACK CFI 4e460 .cfa: sp 0 +
STACK CFI 4e464 .cfa: x29 48 +
STACK CFI INIT 4e468 1c .cfa: sp 0 +
STACK CFI INIT 4e484 c .cfa: sp 0 +
STACK CFI INIT 4e490 4 .cfa: sp 0 +
STACK CFI INIT 4e494 34 .cfa: sp 0 +
STACK CFI 4e498 .cfa: sp 32 +
STACK CFI 4e4a0 .cfa: x29 32 + x19: .cfa -16 + ^ .ra: .cfa -24 + ^ x29: .cfa -32 + ^
STACK CFI 4e4bc .cfa: sp 32 +
STACK CFI 4e4c4 .cfa: sp 0 +
STACK CFI INIT 4e4c8 14 .cfa: sp 0 +
STACK CFI INIT 4e4dc 4 .cfa: sp 0 +
STACK CFI INIT 4e4e0 4 .cfa: sp 0 +
STACK CFI INIT 4e4e4 8c .cfa: sp 0 +
STACK CFI 4e4e8 .cfa: sp 80 +
STACK CFI 4e4f8 .cfa: x29 48 + x19: .cfa -8 + ^ x20: .cfa -16 + ^ x21: .cfa -32 + ^ .ra: .cfa -40 + ^ x29: .cfa -48 + ^
STACK CFI 4e558 .cfa: sp 80 +
STACK CFI 4e568 .cfa: sp 0 +
STACK CFI 4e56c .cfa: x29 48 +
STACK CFI INIT 4e570 1c .cfa: sp 0 +
STACK CFI INIT 4e58c c .cfa: sp 0 +
STACK CFI INIT 4e598 4 .cfa: sp 0 +
STACK CFI INIT 4e59c 34 .cfa: sp 0 +
STACK CFI 4e5a0 .cfa: sp 32 +
STACK CFI 4e5a8 .cfa: x29 32 + x19: .cfa -16 + ^ .ra: .cfa -24 + ^ x29: .cfa -32 + ^
STACK CFI 4e5c4 .cfa: sp 32 +
STACK CFI 4e5cc .cfa: sp 0 +
STACK CFI INIT 4e5d0 14 .cfa: sp 0 +
STACK CFI INIT 4e5e4 4 .cfa: sp 0 +
STACK CFI INIT 4e5e8 4 .cfa: sp 0 +
STACK CFI INIT 4e5ec 8c .cfa: sp 0 +
STACK CFI 4e5f0 .cfa: sp 80 +
STACK CFI 4e600 .cfa: x29 48 + x19: .cfa -8 + ^ x20: .cfa -16 + ^ x21: .cfa -32 + ^ .ra: .cfa -40 + ^ x29: .cfa -48 + ^
STACK CFI 4e660 .cfa: sp 80 +
STACK CFI 4e670 .cfa: sp 0 +
STACK CFI 4e674 .cfa: x29 48 +
STACK CFI INIT 4e678 1c .cfa: sp 0 +
STACK CFI INIT 4e694 c .cfa: sp 0 +
STACK CFI INIT 4e6a0 4 .cfa: sp 0 +
STACK CFI INIT 4e6a4 34 .cfa: sp 0 +
STACK CFI 4e6a8 .cfa: sp 32 +
STACK CFI 4e6b0 .cfa: x29 32 + x19: .cfa -16 + ^ .ra: .cfa -24 + ^ x29: .cfa -32 + ^
STACK CFI 4e6cc .cfa: sp 32 +
STACK CFI 4e6d4 .cfa: sp 0 +
STACK CFI INIT 4e6d8 14 .cfa: sp 0 +
STACK CFI INIT 4e6ec 4 .cfa: sp 0 +
STACK CFI INIT 4e6f0 4 .cfa: sp 0 +
STACK CFI INIT 4e6f4 8c .cfa: sp 0 +
STACK CFI 4e6f8 .cfa: sp 80 +
STACK CFI 4e708 .cfa: x29 48 + x19: .cfa -8 + ^ x20: .cfa -16 + ^ x21: .cfa -32 + ^ .ra: .cfa -40 + ^ x29: .cfa -48 + ^
STACK CFI 4e768 .cfa: sp 80 +
STACK CFI 4e778 .cfa: sp 0 +
STACK CFI 4e77c .cfa: x29 48 +
STACK CFI INIT 4e780 1c .cfa: sp 0 +
STACK CFI INIT 4e79c c .cfa: sp 0 +
STACK CFI INIT 4e7a8 4 .cfa: sp 0 +
STACK CFI INIT 4e7ac 34 .cfa: sp 0 +
STACK CFI 4e7b0 .cfa: sp 32 +
STACK CFI 4e7b8 .cfa: x29 32 + x19: .cfa -16 + ^ .ra: .cfa -24 + ^ x29: .cfa -32 + ^
STACK CFI 4e7d4 .cfa: sp 32 +
STACK CFI 4e7dc .cfa: sp 0 +
STACK CFI INIT 4e7e0 14 .cfa: sp 0 +
STACK CFI INIT 4e7f4 4 .cfa: sp 0 +
STACK CFI INIT 4e7f8 4 .cfa: sp 0 +
STACK CFI INIT 4e7fc 8c .cfa: sp 0 +
STACK CFI 4e800 .cfa: sp 80 +
STACK CFI 4e810 .cfa: x29 48 + x19: .cfa -8 + ^ x20: .cfa -16 + ^ x21: .cfa -32 + ^ .ra: .cfa -40 + ^ x29: .cfa -48 + ^
STACK CFI 4e870 .cfa: sp 80 +
STACK CFI 4e880 .cfa: sp 0 +
STACK CFI 4e884 .cfa: x29 48 +
STACK CFI INIT 4e888 1c .cfa: sp 0 +
STACK CFI INIT 4e8a4 c .cfa: sp 0 +
STACK CFI INIT 4e8b0 4 .cfa: sp 0 +
STACK CFI INIT 4e8b4 34 .cfa: sp 0 +
STACK CFI 4e8b8 .cfa: sp 32 +
STACK CFI 4e8c0 .cfa: x29 32 + x19: .cfa -16 + ^ .ra: .cfa -24 + ^ x29: .cfa -32 + ^
STACK CFI 4e8dc .cfa: sp 32 +
STACK CFI 4e8e4 .cfa: sp 0 +
STACK CFI INIT 4e8e8 14 .cfa: sp 0 +
STACK CFI INIT 4e8fc 4 .cfa: sp 0 +
STACK CFI INIT 4e900 4 .cfa: sp 0 +
STACK CFI INIT 4e904 8c .cfa: sp 0 +
STACK CFI 4e908 .cfa: sp 80 +
STACK CFI 4e918 .cfa: x29 48 + x19: .cfa -8 + ^ x20: .cfa -16 + ^ x21: .cfa -32 + ^ .ra: .cfa -40 + ^ x29: .cfa -48 + ^
STACK CFI 4e978 .cfa: sp 80 +
STACK CFI 4e988 .cfa: sp 0 +
STACK CFI 4e98c .cfa: x29 48 +
STACK CFI INIT 4e990 1c .cfa: sp 0 +
STACK CFI INIT 4e9ac c .cfa: sp 0 +
STACK CFI INIT 4e9b8 4 .cfa: sp 0 +
STACK CFI INIT 4e9bc 34 .cfa: sp 0 +
STACK CFI 4e9c0 .cfa: sp 32 +
STACK CFI 4e9c8 .cfa: x29 32 + x19: .cfa -16 + ^ .ra: .cfa -24 + ^ x29: .cfa -32 + ^
STACK CFI 4e9e4 .cfa: sp 32 +
STACK CFI 4e9ec .cfa: sp 0 +
STACK CFI INIT 4e9f0 14 .cfa: sp 0 +
STACK CFI INIT 4ea04 4 .cfa: sp 0 +
STACK CFI INIT 4ea08 4 .cfa: sp 0 +
STACK CFI INIT 4ea0c 8c .cfa: sp 0 +
STACK CFI 4ea10 .cfa: sp 80 +
STACK CFI 4ea20 .cfa: x29 48 + x19: .cfa -8 + ^ x20: .cfa -16 + ^ x21: .cfa -32 + ^ .ra: .cfa -40 + ^ x29: .cfa -48 + ^
STACK CFI 4ea80 .cfa: sp 80 +
STACK CFI 4ea90 .cfa: sp 0 +
STACK CFI 4ea94 .cfa: x29 48 +
STACK CFI INIT 4ea98 1c .cfa: sp 0 +
STACK CFI INIT 4eab4 c .cfa: sp 0 +
STACK CFI INIT 4eac0 4 .cfa: sp 0 +
STACK CFI INIT 4eac4 34 .cfa: sp 0 +
STACK CFI 4eac8 .cfa: sp 32 +
STACK CFI 4ead0 .cfa: x29 32 + x19: .cfa -16 + ^ .ra: .cfa -24 + ^ x29: .cfa -32 + ^
STACK CFI 4eaec .cfa: sp 32 +
STACK CFI 4eaf4 .cfa: sp 0 +
STACK CFI INIT 4eaf8 14 .cfa: sp 0 +
STACK CFI INIT 4eb0c 4 .cfa: sp 0 +
STACK CFI INIT 4eb10 4 .cfa: sp 0 +
STACK CFI INIT 4eb14 8c .cfa: sp 0 +
STACK CFI 4eb18 .cfa: sp 80 +
STACK CFI 4eb28 .cfa: x29 48 + x19: .cfa -8 + ^ x20: .cfa -16 + ^ x21: .cfa -32 + ^ .ra: .cfa -40 + ^ x29: .cfa -48 + ^
STACK CFI 4eb88 .cfa: sp 80 +
STACK CFI 4eb98 .cfa: sp 0 +
STACK CFI 4eb9c .cfa: x29 48 +
STACK CFI INIT 4eba0 1c .cfa: sp 0 +
STACK CFI INIT 4ebbc c .cfa: sp 0 +
STACK CFI INIT 4ebc8 4 .cfa: sp 0 +
STACK CFI INIT 4ebcc 34 .cfa: sp 0 +
STACK CFI 4ebd0 .cfa: sp 32 +
STACK CFI 4ebd8 .cfa: x29 32 + x19: .cfa -16 + ^ .ra: .cfa -24 + ^ x29: .cfa -32 + ^
STACK CFI 4ebf4 .cfa: sp 32 +
STACK CFI 4ebfc .cfa: sp 0 +
STACK CFI INIT 4ec00 14 .cfa: sp 0 +
STACK CFI INIT 4ec14 4 .cfa: sp 0 +
STACK CFI INIT 4ec18 4 .cfa: sp 0 +
STACK CFI INIT 4ec1c 8c .cfa: sp 0 +
STACK CFI 4ec20 .cfa: sp 80 +
STACK CFI 4ec30 .cfa: x29 48 + x19: .cfa -8 + ^ x20: .cfa -16 + ^ x21: .cfa -32 + ^ .ra: .cfa -40 + ^ x29: .cfa -48 + ^
STACK CFI 4ec90 .cfa: sp 80 +
STACK CFI 4eca0 .cfa: sp 0 +
STACK CFI 4eca4 .cfa: x29 48 +
STACK CFI INIT 4eca8 1c .cfa: sp 0 +
STACK CFI INIT 4ecc4 c .cfa: sp 0 +
STACK CFI INIT 4ecd0 4 .cfa: sp 0 +
STACK CFI INIT 4ecd4 34 .cfa: sp 0 +
STACK CFI 4ecd8 .cfa: sp 32 +
STACK CFI 4ece0 .cfa: x29 32 + x19: .cfa -16 + ^ .ra: .cfa -24 + ^ x29: .cfa -32 + ^
STACK CFI 4ecfc .cfa: sp 32 +
STACK CFI 4ed04 .cfa: sp 0 +
STACK CFI INIT 4ed08 14 .cfa: sp 0 +
STACK CFI INIT 4ed1c 4 .cfa: sp 0 +
STACK CFI INIT 4ed20 4 .cfa: sp 0 +
STACK CFI INIT 4ed24 8c .cfa: sp 0 +
STACK CFI 4ed28 .cfa: sp 80 +
STACK CFI 4ed38 .cfa: x29 48 + x19: .cfa -8 + ^ x20: .cfa -16 + ^ x21: .cfa -32 + ^ .ra: .cfa -40 + ^ x29: .cfa -48 + ^
STACK CFI 4ed98 .cfa: sp 80 +
STACK CFI 4eda8 .cfa: sp 0 +
STACK CFI 4edac .cfa: x29 48 +
STACK CFI INIT 4edb0 1c .cfa: sp 0 +
STACK CFI INIT 4edcc c .cfa: sp 0 +
STACK CFI INIT 4edd8 4 .cfa: sp 0 +
STACK CFI INIT 4eddc 34 .cfa: sp 0 +
STACK CFI 4ede0 .cfa: sp 32 +
STACK CFI 4ede8 .cfa: x29 32 + x19: .cfa -16 + ^ .ra: .cfa -24 + ^ x29: .cfa -32 + ^
STACK CFI 4ee04 .cfa: sp 32 +
STACK CFI 4ee0c .cfa: sp 0 +
STACK CFI INIT 4ee10 14 .cfa: sp 0 +
STACK CFI INIT 4ee24 4 .cfa: sp 0 +
STACK CFI INIT 4ee28 4 .cfa: sp 0 +
STACK CFI INIT 4ee2c 8c .cfa: sp 0 +
STACK CFI 4ee30 .cfa: sp 80 +
STACK CFI 4ee40 .cfa: x29 48 + x19: .cfa -8 + ^ x20: .cfa -16 + ^ x21: .cfa -32 + ^ .ra: .cfa -40 + ^ x29: .cfa -48 + ^
STACK CFI 4eea0 .cfa: sp 80 +
STACK CFI 4eeb0 .cfa: sp 0 +
STACK CFI 4eeb4 .cfa: x29 48 +
STACK CFI INIT 4eeb8 1c .cfa: sp 0 +
STACK CFI INIT 4eed4 c .cfa: sp 0 +
STACK CFI INIT 4eee0 4 .cfa: sp 0 +
STACK CFI INIT 4eee4 34 .cfa: sp 0 +
STACK CFI 4eee8 .cfa: sp 32 +
STACK CFI 4eef0 .cfa: x29 32 + x19: .cfa -16 + ^ .ra: .cfa -24 + ^ x29: .cfa -32 + ^
STACK CFI 4ef0c .cfa: sp 32 +
STACK CFI 4ef14 .cfa: sp 0 +
STACK CFI INIT 4ef18 14 .cfa: sp 0 +
STACK CFI INIT 4ef2c 4 .cfa: sp 0 +
STACK CFI INIT 4ef30 4 .cfa: sp 0 +
STACK CFI INIT 4ef34 8c .cfa: sp 0 +
STACK CFI 4ef38 .cfa: sp 80 +
STACK CFI 4ef48 .cfa: x29 48 + x19: .cfa -8 + ^ x20: .cfa -16 + ^ x21: .cfa -32 + ^ .ra: .cfa -40 + ^ x29: .cfa -48 + ^
STACK CFI 4efa8 .cfa: sp 80 +
STACK CFI 4efb8 .cfa: sp 0 +
STACK CFI 4efbc .cfa: x29 48 +
STACK CFI INIT 4efc0 1c .cfa: sp 0 +
STACK CFI INIT 4efdc c .cfa: sp 0 +
STACK CFI INIT 4efe8 4 .cfa: sp 0 +
STACK CFI INIT 4efec 34 .cfa: sp 0 +
STACK CFI 4eff0 .cfa: sp 32 +
STACK CFI 4eff8 .cfa: x29 32 + x19: .cfa -16 + ^ .ra: .cfa -24 + ^ x29: .cfa -32 + ^
STACK CFI 4f014 .cfa: sp 32 +
STACK CFI 4f01c .cfa: sp 0 +
STACK CFI INIT 4f020 14 .cfa: sp 0 +
STACK CFI INIT 4f034 4 .cfa: sp 0 +
STACK CFI INIT 4f038 4 .cfa: sp 0 +
STACK CFI INIT 4f03c 8c .cfa: sp 0 +
STACK CFI 4f040 .cfa: sp 80 +
STACK CFI 4f050 .cfa: x29 48 + x19: .cfa -8 + ^ x20: .cfa -16 + ^ x21: .cfa -32 + ^ .ra: .cfa -40 + ^ x29: .cfa -48 + ^
STACK CFI 4f0b0 .cfa: sp 80 +
STACK CFI 4f0c0 .cfa: sp 0 +
STACK CFI 4f0c4 .cfa: x29 48 +
STACK CFI INIT 4f0c8 1c .cfa: sp 0 +
STACK CFI INIT 4f0e4 c .cfa: sp 0 +
STACK CFI INIT 4f0f0 4 .cfa: sp 0 +
STACK CFI INIT 4f0f4 34 .cfa: sp 0 +
STACK CFI 4f0f8 .cfa: sp 32 +
STACK CFI 4f100 .cfa: x29 32 + x19: .cfa -16 + ^ .ra: .cfa -24 + ^ x29: .cfa -32 + ^
STACK CFI 4f11c .cfa: sp 32 +
STACK CFI 4f124 .cfa: sp 0 +
STACK CFI INIT 4f128 14 .cfa: sp 0 +
STACK CFI INIT 4f13c 4 .cfa: sp 0 +
STACK CFI INIT 4f140 4 .cfa: sp 0 +
STACK CFI INIT 4f144 8c .cfa: sp 0 +
STACK CFI 4f148 .cfa: sp 80 +
STACK CFI 4f158 .cfa: x29 48 + x19: .cfa -8 + ^ x20: .cfa -16 + ^ x21: .cfa -32 + ^ .ra: .cfa -40 + ^ x29: .cfa -48 + ^
STACK CFI 4f1b8 .cfa: sp 80 +
STACK CFI 4f1c8 .cfa: sp 0 +
STACK CFI 4f1cc .cfa: x29 48 +
STACK CFI INIT 4f1d0 1c .cfa: sp 0 +
STACK CFI INIT 4f1ec c .cfa: sp 0 +
STACK CFI INIT 4f1f8 4 .cfa: sp 0 +
STACK CFI INIT 4f1fc 34 .cfa: sp 0 +
STACK CFI 4f200 .cfa: sp 32 +
STACK CFI 4f208 .cfa: x29 32 + x19: .cfa -16 + ^ .ra: .cfa -24 + ^ x29: .cfa -32 + ^
STACK CFI 4f224 .cfa: sp 32 +
STACK CFI 4f22c .cfa: sp 0 +
STACK CFI INIT 4f230 14 .cfa: sp 0 +
STACK CFI INIT 4f244 4 .cfa: sp 0 +
STACK CFI INIT 4f248 4 .cfa: sp 0 +
STACK CFI INIT 4f24c 8c .cfa: sp 0 +
STACK CFI 4f250 .cfa: sp 80 +
STACK CFI 4f260 .cfa: x29 48 + x19: .cfa -8 + ^ x20: .cfa -16 + ^ x21: .cfa -32 + ^ .ra: .cfa -40 + ^ x29: .cfa -48 + ^
STACK CFI 4f2c0 .cfa: sp 80 +
STACK CFI 4f2d0 .cfa: sp 0 +
STACK CFI 4f2d4 .cfa: x29 48 +
STACK CFI INIT 4f2d8 1c .cfa: sp 0 +
STACK CFI INIT 4f2f4 c .cfa: sp 0 +
STACK CFI INIT 51df4 b8 .cfa: sp 0 +
STACK CFI 51df8 .cfa: sp 64 +
STACK CFI 51e08 .cfa: x29 48 + x19: .cfa -8 + ^ x20: .cfa -16 + ^ x21: .cfa -32 + ^ .ra: .cfa -40 + ^ x29: .cfa -48 + ^
STACK CFI 51e94 .cfa: sp 64 +
STACK CFI 51ea4 .cfa: sp 0 +
STACK CFI 51ea8 .cfa: x29 48 +
STACK CFI INIT 51eac b8 .cfa: sp 0 +
STACK CFI 51eb0 .cfa: sp 64 +
STACK CFI 51ec0 .cfa: x29 48 + x19: .cfa -8 + ^ x20: .cfa -16 + ^ x21: .cfa -32 + ^ .ra: .cfa -40 + ^ x29: .cfa -48 + ^
STACK CFI 51f4c .cfa: sp 64 +
STACK CFI 51f5c .cfa: sp 0 +
STACK CFI 51f60 .cfa: x29 48 +
STACK CFI INIT 51f64 b8 .cfa: sp 0 +
STACK CFI 51f68 .cfa: sp 64 +
STACK CFI 51f78 .cfa: x29 48 + x19: .cfa -8 + ^ x20: .cfa -16 + ^ x21: .cfa -32 + ^ .ra: .cfa -40 + ^ x29: .cfa -48 + ^
STACK CFI 52004 .cfa: sp 64 +
STACK CFI 52014 .cfa: sp 0 +
STACK CFI 52018 .cfa: x29 48 +
STACK CFI INIT 5201c b8 .cfa: sp 0 +
STACK CFI 52020 .cfa: sp 64 +
STACK CFI 52030 .cfa: x29 48 + x19: .cfa -8 + ^ x20: .cfa -16 + ^ x21: .cfa -32 + ^ .ra: .cfa -40 + ^ x29: .cfa -48 + ^
STACK CFI 520bc .cfa: sp 64 +
STACK CFI 520cc .cfa: sp 0 +
STACK CFI 520d0 .cfa: x29 48 +
STACK CFI INIT 520d4 b8 .cfa: sp 0 +
STACK CFI 520d8 .cfa: sp 64 +
STACK CFI 520e8 .cfa: x29 48 + x19: .cfa -8 + ^ x20: .cfa -16 + ^ x21: .cfa -32 + ^ .ra: .cfa -40 + ^ x29: .cfa -48 + ^
STACK CFI 52174 .cfa: sp 64 +
STACK CFI 52184 .cfa: sp 0 +
STACK CFI 52188 .cfa: x29 48 +
STACK CFI INIT 5218c b8 .cfa: sp 0 +
STACK CFI 52190 .cfa: sp 64 +
STACK CFI 521a0 .cfa: x29 48 + x19: .cfa -8 + ^ x20: .cfa -16 + ^ x21: .cfa -32 + ^ .ra: .cfa -40 + ^ x29: .cfa -48 + ^
STACK CFI 5222c .cfa: sp 64 +
STACK CFI 5223c .cfa: sp 0 +
STACK CFI 52240 .cfa: x29 48 +
STACK CFI INIT 52244 b8 .cfa: sp 0 +
STACK CFI 52248 .cfa: sp 64 +
STACK CFI 52258 .cfa: x29 48 + x19: .cfa -8 + ^ x20: .cfa -16 + ^ x21: .cfa -32 + ^ .ra: .cfa -40 + ^ x29: .cfa -48 + ^
STACK CFI 522e4 .cfa: sp 64 +
STACK CFI 522f4 .cfa: sp 0 +
STACK CFI 522f8 .cfa: x29 48 +
STACK CFI INIT 522fc b8 .cfa: sp 0 +
STACK CFI 52300 .cfa: sp 64 +
STACK CFI 52310 .cfa: x29 48 + x19: .cfa -8 + ^ x20: .cfa -16 + ^ x21: .cfa -32 + ^ .ra: .cfa -40 + ^ x29: .cfa -48 + ^
STACK CFI 5239c .cfa: sp 64 +
STACK CFI 523ac .cfa: sp 0 +
STACK CFI 523b0 .cfa: x29 48 +
STACK CFI INIT 523b4 b8 .cfa: sp 0 +
STACK CFI 523b8 .cfa: sp 64 +
STACK CFI 523c8 .cfa: x29 48 + x19: .cfa -8 + ^ x20: .cfa -16 + ^ x21: .cfa -32 + ^ .ra: .cfa -40 + ^ x29: .cfa -48 + ^
STACK CFI 52454 .cfa: sp 64 +
STACK CFI 52464 .cfa: sp 0 +
STACK CFI 52468 .cfa: x29 48 +
STACK CFI INIT 5246c b8 .cfa: sp 0 +
STACK CFI 52470 .cfa: sp 64 +
STACK CFI 52480 .cfa: x29 48 + x19: .cfa -8 + ^ x20: .cfa -16 + ^ x21: .cfa -32 + ^ .ra: .cfa -40 + ^ x29: .cfa -48 + ^
STACK CFI 5250c .cfa: sp 64 +
STACK CFI 5251c .cfa: sp 0 +
STACK CFI 52520 .cfa: x29 48 +
STACK CFI INIT 52524 24 .cfa: sp 0 +
STACK CFI 52528 .cfa: sp 32 +
STACK CFI 52530 .cfa: x29 32 + x19: .cfa -16 + ^ .ra: .cfa -24 + ^ x29: .cfa -32 + ^
STACK CFI 5253c .cfa: sp 32 +
STACK CFI 52544 .cfa: sp 0 +
STACK CFI INIT 52548 8 .cfa: sp 0 +
STACK CFI INIT 52550 28 .cfa: sp 0 +
STACK CFI 52554 .cfa: sp 32 +
STACK CFI 5255c .cfa: x29 32 + x19: .cfa -16 + ^ .ra: .cfa -24 + ^ x29: .cfa -32 + ^
STACK CFI 5256c .cfa: sp 32 +
STACK CFI 52574 .cfa: sp 0 +
STACK CFI INIT 52578 4 .cfa: sp 0 +
STACK CFI INIT 5257c 34 .cfa: sp 0 +
STACK CFI 52580 .cfa: sp 32 +
STACK CFI 52588 .cfa: x29 32 + x19: .cfa -16 + ^ .ra: .cfa -24 + ^ x29: .cfa -32 + ^
STACK CFI 525a4 .cfa: sp 32 +
STACK CFI 525ac .cfa: sp 0 +
STACK CFI INIT 525b0 14 .cfa: sp 0 +
STACK CFI INIT 525c4 4 .cfa: sp 0 +
STACK CFI INIT 525c8 4 .cfa: sp 0 +
STACK CFI INIT 525cc 8c .cfa: sp 0 +
STACK CFI 525d0 .cfa: sp 80 +
STACK CFI 525e0 .cfa: x29 48 + x19: .cfa -8 + ^ x20: .cfa -16 + ^ x21: .cfa -32 + ^ .ra: .cfa -40 + ^ x29: .cfa -48 + ^
STACK CFI 52640 .cfa: sp 80 +
STACK CFI 52650 .cfa: sp 0 +
STACK CFI 52654 .cfa: x29 48 +
STACK CFI INIT 52658 1c .cfa: sp 0 +
STACK CFI INIT 52674 c .cfa: sp 0 +
STACK CFI INIT 52680 4 .cfa: sp 0 +
STACK CFI INIT 52684 34 .cfa: sp 0 +
STACK CFI 52688 .cfa: sp 32 +
STACK CFI 52690 .cfa: x29 32 + x19: .cfa -16 + ^ .ra: .cfa -24 + ^ x29: .cfa -32 + ^
STACK CFI 526ac .cfa: sp 32 +
STACK CFI 526b4 .cfa: sp 0 +
STACK CFI INIT 526b8 14 .cfa: sp 0 +
STACK CFI INIT 526cc 4 .cfa: sp 0 +
STACK CFI INIT 526d0 4 .cfa: sp 0 +
STACK CFI INIT 526d4 8c .cfa: sp 0 +
STACK CFI 526d8 .cfa: sp 80 +
STACK CFI 526e8 .cfa: x29 48 + x19: .cfa -8 + ^ x20: .cfa -16 + ^ x21: .cfa -32 + ^ .ra: .cfa -40 + ^ x29: .cfa -48 + ^
STACK CFI 52748 .cfa: sp 80 +
STACK CFI 52758 .cfa: sp 0 +
STACK CFI 5275c .cfa: x29 48 +
STACK CFI INIT 52760 1c .cfa: sp 0 +
STACK CFI INIT 5277c c .cfa: sp 0 +
STACK CFI INIT 52788 4 .cfa: sp 0 +
STACK CFI INIT 5278c 34 .cfa: sp 0 +
STACK CFI 52790 .cfa: sp 32 +
STACK CFI 52798 .cfa: x29 32 + x19: .cfa -16 + ^ .ra: .cfa -24 + ^ x29: .cfa -32 + ^
STACK CFI 527b4 .cfa: sp 32 +
STACK CFI 527bc .cfa: sp 0 +
STACK CFI INIT 527c0 14 .cfa: sp 0 +
STACK CFI INIT 527d4 4 .cfa: sp 0 +
STACK CFI INIT 527d8 4 .cfa: sp 0 +
STACK CFI INIT 527dc 8c .cfa: sp 0 +
STACK CFI 527e0 .cfa: sp 80 +
STACK CFI 527f0 .cfa: x29 48 + x19: .cfa -8 + ^ x20: .cfa -16 + ^ x21: .cfa -32 + ^ .ra: .cfa -40 + ^ x29: .cfa -48 + ^
STACK CFI 52850 .cfa: sp 80 +
STACK CFI 52860 .cfa: sp 0 +
STACK CFI 52864 .cfa: x29 48 +
STACK CFI INIT 52868 1c .cfa: sp 0 +
STACK CFI INIT 52884 c .cfa: sp 0 +
STACK CFI INIT 52890 4 .cfa: sp 0 +
STACK CFI INIT 52894 34 .cfa: sp 0 +
STACK CFI 52898 .cfa: sp 32 +
STACK CFI 528a0 .cfa: x29 32 + x19: .cfa -16 + ^ .ra: .cfa -24 + ^ x29: .cfa -32 + ^
STACK CFI 528bc .cfa: sp 32 +
STACK CFI 528c4 .cfa: sp 0 +
STACK CFI INIT 528c8 14 .cfa: sp 0 +
STACK CFI INIT 528dc 4 .cfa: sp 0 +
STACK CFI INIT 528e0 4 .cfa: sp 0 +
STACK CFI INIT 528e4 8c .cfa: sp 0 +
STACK CFI 528e8 .cfa: sp 80 +
STACK CFI 528f8 .cfa: x29 48 + x19: .cfa -8 + ^ x20: .cfa -16 + ^ x21: .cfa -32 + ^ .ra: .cfa -40 + ^ x29: .cfa -48 + ^
STACK CFI 52958 .cfa: sp 80 +
STACK CFI 52968 .cfa: sp 0 +
STACK CFI 5296c .cfa: x29 48 +
STACK CFI INIT 52970 1c .cfa: sp 0 +
STACK CFI INIT 5298c c .cfa: sp 0 +
STACK CFI INIT 52998 4 .cfa: sp 0 +
STACK CFI INIT 5299c 34 .cfa: sp 0 +
STACK CFI 529a0 .cfa: sp 32 +
STACK CFI 529a8 .cfa: x29 32 + x19: .cfa -16 + ^ .ra: .cfa -24 + ^ x29: .cfa -32 + ^
STACK CFI 529c4 .cfa: sp 32 +
STACK CFI 529cc .cfa: sp 0 +
STACK CFI INIT 529d0 14 .cfa: sp 0 +
STACK CFI INIT 529e4 4 .cfa: sp 0 +
STACK CFI INIT 529e8 4 .cfa: sp 0 +
STACK CFI INIT 529ec 8c .cfa: sp 0 +
STACK CFI 529f0 .cfa: sp 80 +
STACK CFI 52a00 .cfa: x29 48 + x19: .cfa -8 + ^ x20: .cfa -16 + ^ x21: .cfa -32 + ^ .ra: .cfa -40 + ^ x29: .cfa -48 + ^
STACK CFI 52a60 .cfa: sp 80 +
STACK CFI 52a70 .cfa: sp 0 +
STACK CFI 52a74 .cfa: x29 48 +
STACK CFI INIT 52a78 1c .cfa: sp 0 +
STACK CFI INIT 52a94 c .cfa: sp 0 +
STACK CFI INIT 52aa0 4 .cfa: sp 0 +
STACK CFI INIT 52aa4 34 .cfa: sp 0 +
STACK CFI 52aa8 .cfa: sp 32 +
STACK CFI 52ab0 .cfa: x29 32 + x19: .cfa -16 + ^ .ra: .cfa -24 + ^ x29: .cfa -32 + ^
STACK CFI 52acc .cfa: sp 32 +
STACK CFI 52ad4 .cfa: sp 0 +
STACK CFI INIT 52ad8 14 .cfa: sp 0 +
STACK CFI INIT 52aec 4 .cfa: sp 0 +
STACK CFI INIT 52af0 4 .cfa: sp 0 +
STACK CFI INIT 52af4 8c .cfa: sp 0 +
STACK CFI 52af8 .cfa: sp 80 +
STACK CFI 52b08 .cfa: x29 48 + x19: .cfa -8 + ^ x20: .cfa -16 + ^ x21: .cfa -32 + ^ .ra: .cfa -40 + ^ x29: .cfa -48 + ^
STACK CFI 52b68 .cfa: sp 80 +
STACK CFI 52b78 .cfa: sp 0 +
STACK CFI 52b7c .cfa: x29 48 +
STACK CFI INIT 52b80 1c .cfa: sp 0 +
STACK CFI INIT 52b9c c .cfa: sp 0 +
STACK CFI INIT 52ba8 4 .cfa: sp 0 +
STACK CFI INIT 52bac 34 .cfa: sp 0 +
STACK CFI 52bb0 .cfa: sp 32 +
STACK CFI 52bb8 .cfa: x29 32 + x19: .cfa -16 + ^ .ra: .cfa -24 + ^ x29: .cfa -32 + ^
STACK CFI 52bd4 .cfa: sp 32 +
STACK CFI 52bdc .cfa: sp 0 +
STACK CFI INIT 52be0 14 .cfa: sp 0 +
STACK CFI INIT 52bf4 4 .cfa: sp 0 +
STACK CFI INIT 52bf8 4 .cfa: sp 0 +
STACK CFI INIT 52bfc 8c .cfa: sp 0 +
STACK CFI 52c00 .cfa: sp 80 +
STACK CFI 52c10 .cfa: x29 48 + x19: .cfa -8 + ^ x20: .cfa -16 + ^ x21: .cfa -32 + ^ .ra: .cfa -40 + ^ x29: .cfa -48 + ^
STACK CFI 52c70 .cfa: sp 80 +
STACK CFI 52c80 .cfa: sp 0 +
STACK CFI 52c84 .cfa: x29 48 +
STACK CFI INIT 52c88 1c .cfa: sp 0 +
STACK CFI INIT 52ca4 c .cfa: sp 0 +
STACK CFI INIT 52cb0 4 .cfa: sp 0 +
STACK CFI INIT 52cb4 34 .cfa: sp 0 +
STACK CFI 52cb8 .cfa: sp 32 +
STACK CFI 52cc0 .cfa: x29 32 + x19: .cfa -16 + ^ .ra: .cfa -24 + ^ x29: .cfa -32 + ^
STACK CFI 52cdc .cfa: sp 32 +
STACK CFI 52ce4 .cfa: sp 0 +
STACK CFI INIT 52ce8 14 .cfa: sp 0 +
STACK CFI INIT 52cfc 4 .cfa: sp 0 +
STACK CFI INIT 52d00 4 .cfa: sp 0 +
STACK CFI INIT 52d04 8c .cfa: sp 0 +
STACK CFI 52d08 .cfa: sp 80 +
STACK CFI 52d18 .cfa: x29 48 + x19: .cfa -8 + ^ x20: .cfa -16 + ^ x21: .cfa -32 + ^ .ra: .cfa -40 + ^ x29: .cfa -48 + ^
STACK CFI 52d78 .cfa: sp 80 +
STACK CFI 52d88 .cfa: sp 0 +
STACK CFI 52d8c .cfa: x29 48 +
STACK CFI INIT 52d90 1c .cfa: sp 0 +
STACK CFI INIT 52dac c .cfa: sp 0 +
STACK CFI INIT 52db8 4 .cfa: sp 0 +
STACK CFI INIT 52dbc 34 .cfa: sp 0 +
STACK CFI 52dc0 .cfa: sp 32 +
STACK CFI 52dc8 .cfa: x29 32 + x19: .cfa -16 + ^ .ra: .cfa -24 + ^ x29: .cfa -32 + ^
STACK CFI 52de4 .cfa: sp 32 +
STACK CFI 52dec .cfa: sp 0 +
STACK CFI INIT 52df0 14 .cfa: sp 0 +
STACK CFI INIT 52e04 4 .cfa: sp 0 +
STACK CFI INIT 52e08 4 .cfa: sp 0 +
STACK CFI INIT 52e0c 8c .cfa: sp 0 +
STACK CFI 52e10 .cfa: sp 80 +
STACK CFI 52e20 .cfa: x29 48 + x19: .cfa -8 + ^ x20: .cfa -16 + ^ x21: .cfa -32 + ^ .ra: .cfa -40 + ^ x29: .cfa -48 + ^
STACK CFI 52e80 .cfa: sp 80 +
STACK CFI 52e90 .cfa: sp 0 +
STACK CFI 52e94 .cfa: x29 48 +
STACK CFI INIT 52e98 1c .cfa: sp 0 +
STACK CFI INIT 52eb4 c .cfa: sp 0 +
STACK CFI INIT 52ec0 4 .cfa: sp 0 +
STACK CFI INIT 52ec4 34 .cfa: sp 0 +
STACK CFI 52ec8 .cfa: sp 32 +
STACK CFI 52ed0 .cfa: x29 32 + x19: .cfa -16 + ^ .ra: .cfa -24 + ^ x29: .cfa -32 + ^
STACK CFI 52eec .cfa: sp 32 +
STACK CFI 52ef4 .cfa: sp 0 +
STACK CFI INIT 52ef8 14 .cfa: sp 0 +
STACK CFI INIT 52f0c 4 .cfa: sp 0 +
STACK CFI INIT 52f10 4 .cfa: sp 0 +
STACK CFI INIT 52f14 8c .cfa: sp 0 +
STACK CFI 52f18 .cfa: sp 80 +
STACK CFI 52f28 .cfa: x29 48 + x19: .cfa -8 + ^ x20: .cfa -16 + ^ x21: .cfa -32 + ^ .ra: .cfa -40 + ^ x29: .cfa -48 + ^
STACK CFI 52f88 .cfa: sp 80 +
STACK CFI 52f98 .cfa: sp 0 +
STACK CFI 52f9c .cfa: x29 48 +
STACK CFI INIT 52fa0 1c .cfa: sp 0 +
STACK CFI INIT 52fbc c .cfa: sp 0 +
STACK CFI INIT 52fc8 4 .cfa: sp 0 +
STACK CFI INIT 52fcc 34 .cfa: sp 0 +
STACK CFI 52fd0 .cfa: sp 32 +
STACK CFI 52fd8 .cfa: x29 32 + x19: .cfa -16 + ^ .ra: .cfa -24 + ^ x29: .cfa -32 + ^
STACK CFI 52ff4 .cfa: sp 32 +
STACK CFI 52ffc .cfa: sp 0 +
STACK CFI INIT 53000 14 .cfa: sp 0 +
STACK CFI INIT 53014 4 .cfa: sp 0 +
STACK CFI INIT 53018 4 .cfa: sp 0 +
STACK CFI INIT 5301c 8c .cfa: sp 0 +
STACK CFI 53020 .cfa: sp 80 +
STACK CFI 53030 .cfa: x29 48 + x19: .cfa -8 + ^ x20: .cfa -16 + ^ x21: .cfa -32 + ^ .ra: .cfa -40 + ^ x29: .cfa -48 + ^
STACK CFI 53090 .cfa: sp 80 +
STACK CFI 530a0 .cfa: sp 0 +
STACK CFI 530a4 .cfa: x29 48 +
STACK CFI INIT 530a8 1c .cfa: sp 0 +
STACK CFI INIT 530c4 c .cfa: sp 0 +
STACK CFI INIT 530d0 4 .cfa: sp 0 +
STACK CFI INIT 530d4 34 .cfa: sp 0 +
STACK CFI 530d8 .cfa: sp 32 +
STACK CFI 530e0 .cfa: x29 32 + x19: .cfa -16 + ^ .ra: .cfa -24 + ^ x29: .cfa -32 + ^
STACK CFI 530fc .cfa: sp 32 +
STACK CFI 53104 .cfa: sp 0 +
STACK CFI INIT 53108 14 .cfa: sp 0 +
STACK CFI INIT 5311c 4 .cfa: sp 0 +
STACK CFI INIT 53120 4 .cfa: sp 0 +
STACK CFI INIT 53124 8c .cfa: sp 0 +
STACK CFI 53128 .cfa: sp 80 +
STACK CFI 53138 .cfa: x29 48 + x19: .cfa -8 + ^ x20: .cfa -16 + ^ x21: .cfa -32 + ^ .ra: .cfa -40 + ^ x29: .cfa -48 + ^
STACK CFI 53198 .cfa: sp 80 +
STACK CFI 531a8 .cfa: sp 0 +
STACK CFI 531ac .cfa: x29 48 +
STACK CFI INIT 531b0 1c .cfa: sp 0 +
STACK CFI INIT 531cc c .cfa: sp 0 +
STACK CFI INIT 531d8 4 .cfa: sp 0 +
STACK CFI INIT 531dc 34 .cfa: sp 0 +
STACK CFI 531e0 .cfa: sp 32 +
STACK CFI 531e8 .cfa: x29 32 + x19: .cfa -16 + ^ .ra: .cfa -24 + ^ x29: .cfa -32 + ^
STACK CFI 53204 .cfa: sp 32 +
STACK CFI 5320c .cfa: sp 0 +
STACK CFI INIT 53210 14 .cfa: sp 0 +
STACK CFI INIT 53224 4 .cfa: sp 0 +
STACK CFI INIT 53228 4 .cfa: sp 0 +
STACK CFI INIT 5322c 8c .cfa: sp 0 +
STACK CFI 53230 .cfa: sp 80 +
STACK CFI 53240 .cfa: x29 48 + x19: .cfa -8 + ^ x20: .cfa -16 + ^ x21: .cfa -32 + ^ .ra: .cfa -40 + ^ x29: .cfa -48 + ^
STACK CFI 532a0 .cfa: sp 80 +
STACK CFI 532b0 .cfa: sp 0 +
STACK CFI 532b4 .cfa: x29 48 +
STACK CFI INIT 532b8 1c .cfa: sp 0 +
STACK CFI INIT 532d4 c .cfa: sp 0 +
STACK CFI INIT 532e0 4 .cfa: sp 0 +
STACK CFI INIT 532e4 34 .cfa: sp 0 +
STACK CFI 532e8 .cfa: sp 32 +
STACK CFI 532f0 .cfa: x29 32 + x19: .cfa -16 + ^ .ra: .cfa -24 + ^ x29: .cfa -32 + ^
STACK CFI 5330c .cfa: sp 32 +
STACK CFI 53314 .cfa: sp 0 +
STACK CFI INIT 53318 14 .cfa: sp 0 +
STACK CFI INIT 5332c 4 .cfa: sp 0 +
STACK CFI INIT 53330 4 .cfa: sp 0 +
STACK CFI INIT 53334 8c .cfa: sp 0 +
STACK CFI 53338 .cfa: sp 80 +
STACK CFI 53348 .cfa: x29 48 + x19: .cfa -8 + ^ x20: .cfa -16 + ^ x21: .cfa -32 + ^ .ra: .cfa -40 + ^ x29: .cfa -48 + ^
STACK CFI 533a8 .cfa: sp 80 +
STACK CFI 533b8 .cfa: sp 0 +
STACK CFI 533bc .cfa: x29 48 +
STACK CFI INIT 533c0 1c .cfa: sp 0 +
STACK CFI INIT 533dc c .cfa: sp 0 +
STACK CFI INIT 533e8 4 .cfa: sp 0 +
STACK CFI INIT 533ec 34 .cfa: sp 0 +
STACK CFI 533f0 .cfa: sp 32 +
STACK CFI 533f8 .cfa: x29 32 + x19: .cfa -16 + ^ .ra: .cfa -24 + ^ x29: .cfa -32 + ^
STACK CFI 53414 .cfa: sp 32 +
STACK CFI 5341c .cfa: sp 0 +
STACK CFI INIT 53420 14 .cfa: sp 0 +
STACK CFI INIT 53434 4 .cfa: sp 0 +
STACK CFI INIT 53438 4 .cfa: sp 0 +
STACK CFI INIT 5343c 8c .cfa: sp 0 +
STACK CFI 53440 .cfa: sp 80 +
STACK CFI 53450 .cfa: x29 48 + x19: .cfa -8 + ^ x20: .cfa -16 + ^ x21: .cfa -32 + ^ .ra: .cfa -40 + ^ x29: .cfa -48 + ^
STACK CFI 534b0 .cfa: sp 80 +
STACK CFI 534c0 .cfa: sp 0 +
STACK CFI 534c4 .cfa: x29 48 +
STACK CFI INIT 534c8 1c .cfa: sp 0 +
STACK CFI INIT 534e4 c .cfa: sp 0 +
STACK CFI INIT 534f0 4 .cfa: sp 0 +
STACK CFI INIT 534f4 34 .cfa: sp 0 +
STACK CFI 534f8 .cfa: sp 32 +
STACK CFI 53500 .cfa: x29 32 + x19: .cfa -16 + ^ .ra: .cfa -24 + ^ x29: .cfa -32 + ^
STACK CFI 5351c .cfa: sp 32 +
STACK CFI 53524 .cfa: sp 0 +
STACK CFI INIT 53528 14 .cfa: sp 0 +
STACK CFI INIT 5353c 4 .cfa: sp 0 +
STACK CFI INIT 53540 4 .cfa: sp 0 +
STACK CFI INIT 53544 8c .cfa: sp 0 +
STACK CFI 53548 .cfa: sp 80 +
STACK CFI 53558 .cfa: x29 48 + x19: .cfa -8 + ^ x20: .cfa -16 + ^ x21: .cfa -32 + ^ .ra: .cfa -40 + ^ x29: .cfa -48 + ^
STACK CFI 535b8 .cfa: sp 80 +
STACK CFI 535c8 .cfa: sp 0 +
STACK CFI 535cc .cfa: x29 48 +
STACK CFI INIT 535d0 1c .cfa: sp 0 +
STACK CFI INIT 535ec c .cfa: sp 0 +
STACK CFI INIT 535f8 4 .cfa: sp 0 +
STACK CFI INIT 535fc 34 .cfa: sp 0 +
STACK CFI 53600 .cfa: sp 32 +
STACK CFI 53608 .cfa: x29 32 + x19: .cfa -16 + ^ .ra: .cfa -24 + ^ x29: .cfa -32 + ^
STACK CFI 53624 .cfa: sp 32 +
STACK CFI 5362c .cfa: sp 0 +
STACK CFI INIT 53630 14 .cfa: sp 0 +
STACK CFI INIT 53644 4 .cfa: sp 0 +
STACK CFI INIT 53648 4 .cfa: sp 0 +
STACK CFI INIT 5364c 8c .cfa: sp 0 +
STACK CFI 53650 .cfa: sp 80 +
STACK CFI 53660 .cfa: x29 48 + x19: .cfa -8 + ^ x20: .cfa -16 + ^ x21: .cfa -32 + ^ .ra: .cfa -40 + ^ x29: .cfa -48 + ^
STACK CFI 536c0 .cfa: sp 80 +
STACK CFI 536d0 .cfa: sp 0 +
STACK CFI 536d4 .cfa: x29 48 +
STACK CFI INIT 536d8 1c .cfa: sp 0 +
STACK CFI INIT 536f4 c .cfa: sp 0 +
STACK CFI INIT 53700 4 .cfa: sp 0 +
STACK CFI INIT 53704 34 .cfa: sp 0 +
STACK CFI 53708 .cfa: sp 32 +
STACK CFI 53710 .cfa: x29 32 + x19: .cfa -16 + ^ .ra: .cfa -24 + ^ x29: .cfa -32 + ^
STACK CFI 5372c .cfa: sp 32 +
STACK CFI 53734 .cfa: sp 0 +
STACK CFI INIT 53738 14 .cfa: sp 0 +
STACK CFI INIT 5374c 4 .cfa: sp 0 +
STACK CFI INIT 53750 4 .cfa: sp 0 +
STACK CFI INIT 53754 8c .cfa: sp 0 +
STACK CFI 53758 .cfa: sp 80 +
STACK CFI 53768 .cfa: x29 48 + x19: .cfa -8 + ^ x20: .cfa -16 + ^ x21: .cfa -32 + ^ .ra: .cfa -40 + ^ x29: .cfa -48 + ^
STACK CFI 537c8 .cfa: sp 80 +
STACK CFI 537d8 .cfa: sp 0 +
STACK CFI 537dc .cfa: x29 48 +
STACK CFI INIT 537e0 1c .cfa: sp 0 +
STACK CFI INIT 537fc c .cfa: sp 0 +
STACK CFI INIT 53808 4 .cfa: sp 0 +
STACK CFI INIT 5380c 34 .cfa: sp 0 +
STACK CFI 53810 .cfa: sp 32 +
STACK CFI 53818 .cfa: x29 32 + x19: .cfa -16 + ^ .ra: .cfa -24 + ^ x29: .cfa -32 + ^
STACK CFI 53834 .cfa: sp 32 +
STACK CFI 5383c .cfa: sp 0 +
STACK CFI INIT 53840 14 .cfa: sp 0 +
STACK CFI INIT 53854 4 .cfa: sp 0 +
STACK CFI INIT 53858 4 .cfa: sp 0 +
STACK CFI INIT 5385c 8c .cfa: sp 0 +
STACK CFI 53860 .cfa: sp 80 +
STACK CFI 53870 .cfa: x29 48 + x19: .cfa -8 + ^ x20: .cfa -16 + ^ x21: .cfa -32 + ^ .ra: .cfa -40 + ^ x29: .cfa -48 + ^
STACK CFI 538d0 .cfa: sp 80 +
STACK CFI 538e0 .cfa: sp 0 +
STACK CFI 538e4 .cfa: x29 48 +
STACK CFI INIT 538e8 1c .cfa: sp 0 +
STACK CFI INIT 53904 c .cfa: sp 0 +
STACK CFI INIT 53910 4 .cfa: sp 0 +
STACK CFI INIT 53914 34 .cfa: sp 0 +
STACK CFI 53918 .cfa: sp 32 +
STACK CFI 53920 .cfa: x29 32 + x19: .cfa -16 + ^ .ra: .cfa -24 + ^ x29: .cfa -32 + ^
STACK CFI 5393c .cfa: sp 32 +
STACK CFI 53944 .cfa: sp 0 +
STACK CFI INIT 53948 14 .cfa: sp 0 +
STACK CFI INIT 5395c 4 .cfa: sp 0 +
STACK CFI INIT 53960 4 .cfa: sp 0 +
STACK CFI INIT 53964 8c .cfa: sp 0 +
STACK CFI 53968 .cfa: sp 80 +
STACK CFI 53978 .cfa: x29 48 + x19: .cfa -8 + ^ x20: .cfa -16 + ^ x21: .cfa -32 + ^ .ra: .cfa -40 + ^ x29: .cfa -48 + ^
STACK CFI 539d8 .cfa: sp 80 +
STACK CFI 539e8 .cfa: sp 0 +
STACK CFI 539ec .cfa: x29 48 +
STACK CFI INIT 539f0 1c .cfa: sp 0 +
STACK CFI INIT 53a0c c .cfa: sp 0 +
STACK CFI INIT 53a18 30 .cfa: sp 0 +
STACK CFI 53a1c .cfa: sp 32 +
STACK CFI 53a24 .cfa: x29 32 + x19: .cfa -16 + ^ .ra: .cfa -24 + ^ x29: .cfa -32 + ^
STACK CFI 53a3c .cfa: sp 32 +
STACK CFI 53a44 .cfa: sp 0 +
STACK CFI INIT 53a48 4c .cfa: sp 0 +
STACK CFI 53a4c .cfa: sp 32 +
STACK CFI 53a54 .cfa: x29 32 + x19: .cfa -8 + ^ x20: .cfa -16 + ^ .ra: .cfa -24 + ^ x29: .cfa -32 + ^
STACK CFI 53a7c .cfa: sp 32 +
STACK CFI 53a84 .cfa: sp 0 +
STACK CFI 53a88 .cfa: sp 32 +
STACK CFI 53a90 .cfa: sp 0 +
STACK CFI INIT 53cb4 64 .cfa: sp 0 +
STACK CFI 53cb8 .cfa: sp 32 +
STACK CFI 53cc0 .cfa: x29 32 + x19: .cfa -16 + ^ .ra: .cfa -24 + ^ x29: .cfa -32 + ^
STACK CFI 53cec .cfa: sp 32 +
STACK CFI 53cf4 .cfa: sp 0 +
STACK CFI 53cf8 .cfa: x29 32 +
STACK CFI 53d0c .cfa: sp 32 +
STACK CFI 53d14 .cfa: sp 0 +
STACK CFI INIT 53d18 24 .cfa: sp 0 +
STACK CFI 53d1c .cfa: sp 32 +
STACK CFI 53d24 .cfa: x29 32 + x19: .cfa -16 + ^ .ra: .cfa -24 + ^ x29: .cfa -32 + ^
STACK CFI 53d30 .cfa: sp 32 +
STACK CFI 53d38 .cfa: sp 0 +
STACK CFI INIT 53d3c 24 .cfa: sp 0 +
STACK CFI 53d40 .cfa: sp 32 +
STACK CFI 53d48 .cfa: x29 32 + x19: .cfa -16 + ^ .ra: .cfa -24 + ^ x29: .cfa -32 + ^
STACK CFI 53d54 .cfa: sp 32 +
STACK CFI 53d5c .cfa: sp 0 +
STACK CFI INIT 53d60 8 .cfa: sp 0 +
STACK CFI INIT 53d68 24 .cfa: sp 0 +
STACK CFI 53d6c .cfa: sp 32 +
STACK CFI 53d74 .cfa: x29 32 + x19: .cfa -16 + ^ .ra: .cfa -24 + ^ x29: .cfa -32 + ^
STACK CFI 53d80 .cfa: sp 32 +
STACK CFI 53d88 .cfa: sp 0 +
STACK CFI INIT 53d8c 28 .cfa: sp 0 +
STACK CFI 53d90 .cfa: sp 32 +
STACK CFI 53d98 .cfa: x29 32 + x19: .cfa -16 + ^ .ra: .cfa -24 + ^ x29: .cfa -32 + ^
STACK CFI 53da8 .cfa: sp 32 +
STACK CFI 53db0 .cfa: sp 0 +
STACK CFI INIT 5432c 8 .cfa: sp 0 +
STACK CFI INIT 54334 24 .cfa: sp 0 +
STACK CFI 54338 .cfa: sp 32 +
STACK CFI 54340 .cfa: x29 32 + x19: .cfa -16 + ^ .ra: .cfa -24 + ^ x29: .cfa -32 + ^
STACK CFI 5434c .cfa: sp 32 +
STACK CFI 54354 .cfa: sp 0 +
STACK CFI INIT 54358 28 .cfa: sp 0 +
STACK CFI 5435c .cfa: sp 32 +
STACK CFI 54364 .cfa: x29 32 + x19: .cfa -16 + ^ .ra: .cfa -24 + ^ x29: .cfa -32 + ^
STACK CFI 54374 .cfa: sp 32 +
STACK CFI 5437c .cfa: sp 0 +
STACK CFI INIT 545e0 8 .cfa: sp 0 +
STACK CFI INIT 545e8 24 .cfa: sp 0 +
STACK CFI 545ec .cfa: sp 32 +
STACK CFI 545f4 .cfa: x29 32 + x19: .cfa -16 + ^ .ra: .cfa -24 + ^ x29: .cfa -32 + ^
STACK CFI 54600 .cfa: sp 32 +
STACK CFI 54608 .cfa: sp 0 +
STACK CFI INIT 5460c 28 .cfa: sp 0 +
STACK CFI 54610 .cfa: sp 32 +
STACK CFI 54618 .cfa: x29 32 + x19: .cfa -16 + ^ .ra: .cfa -24 + ^ x29: .cfa -32 + ^
STACK CFI 54628 .cfa: sp 32 +
STACK CFI 54630 .cfa: sp 0 +
STACK CFI INIT 54634 8 .cfa: sp 0 +
STACK CFI INIT 5463c 24 .cfa: sp 0 +
STACK CFI 54640 .cfa: sp 32 +
STACK CFI 54648 .cfa: x29 32 + x19: .cfa -16 + ^ .ra: .cfa -24 + ^ x29: .cfa -32 + ^
STACK CFI 54654 .cfa: sp 32 +
STACK CFI 5465c .cfa: sp 0 +
STACK CFI INIT 54660 28 .cfa: sp 0 +
STACK CFI 54664 .cfa: sp 32 +
STACK CFI 5466c .cfa: x29 32 + x19: .cfa -16 + ^ .ra: .cfa -24 + ^ x29: .cfa -32 + ^
STACK CFI 5467c .cfa: sp 32 +
STACK CFI 54684 .cfa: sp 0 +
STACK CFI INIT 54688 1f8 .cfa: sp 0 +
STACK CFI 5468c .cfa: sp 112 +
STACK CFI 546ac .cfa: x29 72 + x19: .cfa -8 + ^ x20: .cfa -16 + ^ x21: .cfa -24 + ^ x22: .cfa -32 + ^ x23: .cfa -40 + ^ x24: .cfa -48 + ^ x25: .cfa -56 + ^ .ra: .cfa -64 + ^ x29: .cfa -72 + ^ v8: .cfa -80 + ^ v9: .cfa -88 + ^ v10: .cfa -96 + ^
STACK CFI 54858 .cfa: sp 112 +
STACK CFI 54878 .cfa: sp 0 +
STACK CFI 5487c .cfa: x29 72 +
STACK CFI INIT 54880 4 .cfa: sp 0 +
STACK CFI INIT 55b04 4 .cfa: sp 0 +
STACK CFI INIT 55b08 14 .cfa: sp 0 +
STACK CFI INIT 55f4c c .cfa: sp 0 +
STACK CFI INIT 55f58 24c .cfa: sp 0 +
STACK CFI INIT 561a4 a0 .cfa: sp 0 +
STACK CFI 561b0 .cfa: sp 32 +
STACK CFI 56208 .cfa: sp 0 +
STACK CFI 5620c .cfa: sp 32 +
STACK CFI 56214 .cfa: sp 0 +
STACK CFI 56218 .cfa: sp 32 +
STACK CFI 5622c .cfa: sp 0 +
STACK CFI 56230 .cfa: sp 32 +
STACK CFI 56240 .cfa: sp 0 +
STACK CFI INIT 56244 38 .cfa: sp 0 +
STACK CFI 56250 .cfa: sp 32 +
STACK CFI 56278 .cfa: sp 0 +
STACK CFI INIT 56510 70 .cfa: sp 0 +
STACK CFI 56514 .cfa: sp 32 +
STACK CFI 5651c .cfa: x29 32 + x19: .cfa -16 + ^ .ra: .cfa -24 + ^ x29: .cfa -32 + ^
STACK CFI 56550 .cfa: sp 32 +
STACK CFI 56558 .cfa: sp 0 +
STACK CFI 5655c .cfa: x29 32 +
STACK CFI INIT 565d0 2c .cfa: sp 0 +
STACK CFI 565d4 .cfa: sp 32 +
STACK CFI 565dc .cfa: x29 32 + x19: .cfa -16 + ^ .ra: .cfa -24 + ^ x29: .cfa -32 + ^
STACK CFI 565f0 .cfa: sp 32 +
STACK CFI 565f8 .cfa: sp 0 +
STACK CFI INIT 56d4c 64 .cfa: sp 0 +
STACK CFI 56d50 .cfa: sp 32 +
STACK CFI 56d58 .cfa: x29 32 + x19: .cfa -16 + ^ .ra: .cfa -24 + ^ x29: .cfa -32 + ^
STACK CFI 56d74 .cfa: sp 32 +
STACK CFI 56d7c .cfa: sp 0 +
STACK CFI 56d80 .cfa: x29 32 +
STACK CFI 56da4 .cfa: sp 32 +
STACK CFI 56dac .cfa: sp 0 +
STACK CFI INIT 56edc 3c8 .cfa: sp 0 +
STACK CFI 56ee0 .cfa: sp 208 +
STACK CFI 56ef4 .cfa: x29 64 + x19: .cfa -8 + ^ x20: .cfa -16 + ^ x21: .cfa -24 + ^ x22: .cfa -32 + ^ x23: .cfa -40 + ^ x24: .cfa -48 + ^ .ra: .cfa -56 + ^ x29: .cfa -64 + ^
STACK CFI 5710c .cfa: sp 208 +
STACK CFI 57120 .cfa: sp 0 +
STACK CFI 57124 .cfa: x29 64 +
STACK CFI INIT 572a4 228 .cfa: sp 0 +
STACK CFI INIT 574cc 2b4 .cfa: sp 0 +
STACK CFI INIT 57780 530 .cfa: sp 0 +
STACK CFI INIT 57cb0 78 .cfa: sp 0 +
STACK CFI 57cb4 .cfa: sp 48 +
STACK CFI 57cc0 .cfa: x29 48 + x19: .cfa -8 + ^ x20: .cfa -16 + ^ x21: .cfa -24 + ^ x22: .cfa -32 + ^ .ra: .cfa -40 + ^ x29: .cfa -48 + ^
STACK CFI 57d08 .cfa: sp 48 +
STACK CFI 57d14 .cfa: sp 0 +
STACK CFI 57d18 .cfa: sp 48 +
STACK CFI 57d24 .cfa: sp 0 +
STACK CFI INIT 57d28 78 .cfa: sp 0 +
STACK CFI 57d2c .cfa: sp 32 +
STACK CFI 57d34 .cfa: x29 32 + x19: .cfa -16 + ^ .ra: .cfa -24 + ^ x29: .cfa -32 + ^
STACK CFI 57d70 .cfa: sp 32 +
STACK CFI 57d78 .cfa: sp 0 +
STACK CFI 57d7c .cfa: x29 32 +
STACK CFI INIT 57da0 24 .cfa: sp 0 +
STACK CFI 57da4 .cfa: sp 32 +
STACK CFI 57dac .cfa: x29 32 + x19: .cfa -16 + ^ .ra: .cfa -24 + ^ x29: .cfa -32 + ^
STACK CFI 57db8 .cfa: sp 32 +
STACK CFI 57dc0 .cfa: sp 0 +
STACK CFI INIT 57dc4 150 .cfa: sp 0 +
STACK CFI 57dc8 .cfa: sp 48 +
STACK CFI 57dd4 .cfa: x29 48 + x19: .cfa -8 + ^ x20: .cfa -16 + ^ x21: .cfa -24 + ^ x22: .cfa -32 + ^ .ra: .cfa -40 + ^ x29: .cfa -48 + ^
STACK CFI 57f04 .cfa: sp 48 +
STACK CFI 57f10 .cfa: sp 0 +
STACK CFI INIT 57f14 6c .cfa: sp 0 +
STACK CFI 57f18 .cfa: sp 64 +
STACK CFI 57f24 .cfa: x29 32 + x19: .cfa -16 + ^ .ra: .cfa -24 + ^ x29: .cfa -32 + ^
STACK CFI 57f6c .cfa: sp 64 +
STACK CFI 57f78 .cfa: sp 0 +
STACK CFI 57f7c .cfa: x29 32 +
STACK CFI INIT 57f80 74 .cfa: sp 0 +
STACK CFI 57f84 .cfa: sp 32 +
STACK CFI 57f8c .cfa: x29 32 + x19: .cfa -8 + ^ x20: .cfa -16 + ^ .ra: .cfa -24 + ^ x29: .cfa -32 + ^
STACK CFI 57fe8 .cfa: sp 32 +
STACK CFI 57ff0 .cfa: sp 0 +
STACK CFI INIT 57ff4 f0 .cfa: sp 0 +
STACK CFI 57ff8 .cfa: sp 112 +
STACK CFI 58008 .cfa: x29 48 + x19: .cfa -8 + ^ x20: .cfa -16 + ^ x21: .cfa -32 + ^ .ra: .cfa -40 + ^ x29: .cfa -48 + ^
STACK CFI 580cc .cfa: sp 112 +
STACK CFI 580dc .cfa: sp 0 +
STACK CFI 580e0 .cfa: x29 48 +
STACK CFI INIT 580e4 f0 .cfa: sp 0 +
STACK CFI 580e8 .cfa: sp 112 +
STACK CFI 580f8 .cfa: x29 48 + x19: .cfa -8 + ^ x20: .cfa -16 + ^ x21: .cfa -32 + ^ .ra: .cfa -40 + ^ x29: .cfa -48 + ^
STACK CFI 581bc .cfa: sp 112 +
STACK CFI 581cc .cfa: sp 0 +
STACK CFI 581d0 .cfa: x29 48 +
STACK CFI INIT 581d4 48 .cfa: sp 0 +
STACK CFI 581d8 .cfa: sp 32 +
STACK CFI 581e0 .cfa: x29 32 + x19: .cfa -8 + ^ x20: .cfa -16 + ^ .ra: .cfa -24 + ^ x29: .cfa -32 + ^
STACK CFI 58204 .cfa: sp 32 +
STACK CFI 5820c .cfa: sp 0 +
STACK CFI 58210 .cfa: x29 32 +
STACK CFI INIT 5821c 9c .cfa: sp 0 +
STACK CFI 58220 .cfa: sp 80 +
STACK CFI 5822c .cfa: x29 32 + x19: .cfa -16 + ^ .ra: .cfa -24 + ^ x29: .cfa -32 + ^
STACK CFI 582a4 .cfa: sp 80 +
STACK CFI 582b0 .cfa: sp 0 +
STACK CFI 582b4 .cfa: x29 32 +
STACK CFI INIT 582b8 220 .cfa: sp 0 +
STACK CFI 582bc .cfa: sp 112 +
STACK CFI 582d4 .cfa: x29 80 + x19: .cfa -8 + ^ x20: .cfa -16 + ^ x21: .cfa -24 + ^ x22: .cfa -32 + ^ x23: .cfa -40 + ^ x24: .cfa -48 + ^ x25: .cfa -64 + ^ .ra: .cfa -72 + ^ x29: .cfa -80 + ^
STACK CFI 58498 .cfa: sp 112 +
STACK CFI 584b0 .cfa: sp 0 +
STACK CFI 584b4 .cfa: x29 80 +
STACK CFI INIT 584d8 150 .cfa: sp 0 +
STACK CFI 584dc .cfa: sp 48 +
STACK CFI 584e8 .cfa: x29 48 + x19: .cfa -8 + ^ x20: .cfa -16 + ^ x21: .cfa -24 + ^ x22: .cfa -32 + ^ .ra: .cfa -40 + ^ x29: .cfa -48 + ^
STACK CFI 58618 .cfa: sp 48 +
STACK CFI 58624 .cfa: sp 0 +
STACK CFI INIT 58628 1c4 .cfa: sp 0 +
STACK CFI 5862c .cfa: sp 96 +
STACK CFI 58640 .cfa: x29 64 + x19: .cfa -8 + ^ x20: .cfa -16 + ^ x21: .cfa -24 + ^ x22: .cfa -32 + ^ x23: .cfa -40 + ^ x24: .cfa -48 + ^ .ra: .cfa -56 + ^ x29: .cfa -64 + ^
STACK CFI 587b0 .cfa: sp 96 +
STACK CFI 587c4 .cfa: sp 0 +
STACK CFI 587c8 .cfa: x29 64 +
STACK CFI INIT 587ec 244 .cfa: sp 0 +
STACK CFI 587f0 .cfa: sp 112 +
STACK CFI 58808 .cfa: x29 80 + x19: .cfa -8 + ^ x20: .cfa -16 + ^ x21: .cfa -24 + ^ x22: .cfa -32 + ^ x23: .cfa -40 + ^ x24: .cfa -48 + ^ x25: .cfa -64 + ^ .ra: .cfa -72 + ^ x29: .cfa -80 + ^
STACK CFI 589f0 .cfa: sp 112 +
STACK CFI 58a08 .cfa: sp 0 +
STACK CFI 58a0c .cfa: x29 80 +
STACK CFI INIT 58a30 1ec .cfa: sp 0 +
STACK CFI 58a34 .cfa: sp 96 +
STACK CFI 58a48 .cfa: x29 64 + x19: .cfa -8 + ^ x20: .cfa -16 + ^ x21: .cfa -24 + ^ x22: .cfa -32 + ^ x23: .cfa -40 + ^ x24: .cfa -48 + ^ .ra: .cfa -56 + ^ x29: .cfa -64 + ^
STACK CFI 58be0 .cfa: sp 96 +
STACK CFI 58bf4 .cfa: sp 0 +
STACK CFI 58bf8 .cfa: x29 64 +
STACK CFI INIT 58c1c 304 .cfa: sp 0 +
STACK CFI 58c20 .cfa: sp 160 +
STACK CFI 58c3c .cfa: x29 96 + x19: .cfa -8 + ^ x20: .cfa -16 + ^ x21: .cfa -24 + ^ x22: .cfa -32 + ^ x23: .cfa -40 + ^ x24: .cfa -48 + ^ x25: .cfa -56 + ^ x26: .cfa -64 + ^ x27: .cfa -72 + ^ x28: .cfa -80 + ^ .ra: .cfa -88 + ^ x29: .cfa -96 + ^
STACK CFI 58ec4 .cfa: sp 160 +
STACK CFI 58ee0 .cfa: sp 0 +
STACK CFI 58ee4 .cfa: x29 96 +
STACK CFI INIT 58f20 2a4 .cfa: sp 0 +
STACK CFI 58f24 .cfa: sp 144 +
STACK CFI 58f40 .cfa: x29 96 + x19: .cfa -8 + ^ x20: .cfa -16 + ^ x21: .cfa -24 + ^ x22: .cfa -32 + ^ x23: .cfa -40 + ^ x24: .cfa -48 + ^ x25: .cfa -56 + ^ x26: .cfa -64 + ^ x27: .cfa -72 + ^ x28: .cfa -80 + ^ .ra: .cfa -88 + ^ x29: .cfa -96 + ^
STACK CFI 59168 .cfa: sp 144 +
STACK CFI 59184 .cfa: sp 0 +
STACK CFI 59188 .cfa: x29 96 +
STACK CFI INIT 591c4 290 .cfa: sp 0 +
STACK CFI 591c8 .cfa: sp 128 +
STACK CFI 591e0 .cfa: x29 80 + x19: .cfa -8 + ^ x20: .cfa -16 + ^ x21: .cfa -24 + ^ x22: .cfa -32 + ^ x23: .cfa -40 + ^ x24: .cfa -48 + ^ x25: .cfa -56 + ^ x26: .cfa -64 + ^ .ra: .cfa -72 + ^ x29: .cfa -80 + ^
STACK CFI 59434 .cfa: sp 128 +
STACK CFI 5944c .cfa: sp 0 +
STACK CFI 59450 .cfa: x29 80 +
STACK CFI INIT 59454 dc0 .cfa: sp 0 +
STACK CFI 59458 .cfa: sp 144 +
STACK CFI 59474 .cfa: x29 96 + x19: .cfa -8 + ^ x20: .cfa -16 + ^ x21: .cfa -24 + ^ x22: .cfa -32 + ^ x23: .cfa -40 + ^ x24: .cfa -48 + ^ x25: .cfa -56 + ^ x26: .cfa -64 + ^ x27: .cfa -72 + ^ x28: .cfa -80 + ^ .ra: .cfa -88 + ^ x29: .cfa -96 + ^
STACK CFI 5a1f0 .cfa: sp 144 +
STACK CFI 5a20c .cfa: sp 0 +
STACK CFI 5a210 .cfa: x29 96 +
STACK CFI INIT 5a214 1d0 .cfa: sp 0 +
STACK CFI 5a218 .cfa: sp 80 +
STACK CFI 5a22c .cfa: x29 80 + x19: .cfa -8 + ^ x20: .cfa -16 + ^ x21: .cfa -24 + ^ x22: .cfa -32 + ^ x23: .cfa -40 + ^ x24: .cfa -48 + ^ x25: .cfa -56 + ^ x26: .cfa -64 + ^ .ra: .cfa -72 + ^ x29: .cfa -80 + ^
STACK CFI 5a3cc .cfa: sp 80 +
STACK CFI 5a3e0 .cfa: sp 0 +
STACK CFI INIT 5a3e4 22c .cfa: sp 0 +
STACK CFI 5a3e8 .cfa: sp 112 +
STACK CFI 5a3fc .cfa: x29 64 + x19: .cfa -8 + ^ x20: .cfa -16 + ^ x21: .cfa -24 + ^ x22: .cfa -32 + ^ x23: .cfa -40 + ^ x24: .cfa -48 + ^ .ra: .cfa -56 + ^ x29: .cfa -64 + ^
STACK CFI 5a5c8 .cfa: sp 112 +
STACK CFI 5a5dc .cfa: sp 0 +
STACK CFI 5a5e0 .cfa: x29 64 +
STACK CFI INIT 5a610 30c .cfa: sp 0 +
STACK CFI 5a614 .cfa: sp 80 +
STACK CFI 5a628 .cfa: x29 64 + x19: .cfa -8 + ^ x20: .cfa -16 + ^ x21: .cfa -24 + ^ x22: .cfa -32 + ^ x23: .cfa -40 + ^ x24: .cfa -48 + ^ .ra: .cfa -56 + ^ x29: .cfa -64 + ^
STACK CFI 5a7a4 .cfa: sp 80 +
STACK CFI 5a7b8 .cfa: sp 0 +
STACK CFI 5a7bc .cfa: x29 64 +
STACK CFI INIT 5a91c 178 .cfa: sp 0 +
STACK CFI 5a920 .cfa: sp 80 +
STACK CFI 5a934 .cfa: x29 64 + x19: .cfa -8 + ^ x20: .cfa -16 + ^ x21: .cfa -24 + ^ x22: .cfa -32 + ^ x23: .cfa -40 + ^ x24: .cfa -48 + ^ .ra: .cfa -56 + ^ x29: .cfa -64 + ^
STACK CFI 5aa78 .cfa: sp 80 +
STACK CFI 5aa8c .cfa: sp 0 +
STACK CFI 5aa90 .cfa: x29 64 +
STACK CFI INIT 5aa94 178 .cfa: sp 0 +
STACK CFI 5aa98 .cfa: sp 80 +
STACK CFI 5aaac .cfa: x29 64 + x19: .cfa -8 + ^ x20: .cfa -16 + ^ x21: .cfa -24 + ^ x22: .cfa -32 + ^ x23: .cfa -40 + ^ x24: .cfa -48 + ^ .ra: .cfa -56 + ^ x29: .cfa -64 + ^
STACK CFI 5abf0 .cfa: sp 80 +
STACK CFI 5ac04 .cfa: sp 0 +
STACK CFI 5ac08 .cfa: x29 64 +
STACK CFI INIT 5ac0c 240 .cfa: sp 0 +
STACK CFI 5ac10 .cfa: sp 96 +
STACK CFI 5ac28 .cfa: x29 96 + x19: .cfa -8 + ^ x20: .cfa -16 + ^ x21: .cfa -24 + ^ x22: .cfa -32 + ^ x23: .cfa -40 + ^ x24: .cfa -48 + ^ x25: .cfa -56 + ^ x26: .cfa -64 + ^ x27: .cfa -72 + ^ x28: .cfa -80 + ^ .ra: .cfa -88 + ^ x29: .cfa -96 + ^
STACK CFI 5ae30 .cfa: sp 96 +
STACK CFI 5ae48 .cfa: sp 0 +
STACK CFI INIT 5ba78 154 .cfa: sp 0 +
STACK CFI 5ba7c .cfa: sp 96 +
STACK CFI 5ba90 .cfa: x29 64 + x19: .cfa -8 + ^ x20: .cfa -16 + ^ x21: .cfa -24 + ^ x22: .cfa -32 + ^ x23: .cfa -48 + ^ .ra: .cfa -56 + ^ x29: .cfa -64 + ^
STACK CFI 5bb70 .cfa: sp 96 +
STACK CFI 5bb84 .cfa: sp 0 +
STACK CFI 5bb88 .cfa: x29 64 +
STACK CFI INIT 5be04 44 .cfa: sp 0 +
STACK CFI 5be08 .cfa: sp 32 +
STACK CFI 5be10 .cfa: x29 32 + x19: .cfa -16 + ^ .ra: .cfa -24 + ^ x29: .cfa -32 + ^
STACK CFI 5be2c .cfa: sp 32 +
STACK CFI 5be34 .cfa: sp 0 +
STACK CFI 5be38 .cfa: x29 32 +
STACK CFI 5be3c .cfa: sp 32 +
STACK CFI 5be44 .cfa: sp 0 +
STACK CFI INIT 5be48 1a4 .cfa: sp 0 +
STACK CFI 5be4c .cfa: sp 64 +
STACK CFI 5be5c .cfa: x29 64 + x19: .cfa -8 + ^ x20: .cfa -16 + ^ x21: .cfa -24 + ^ x22: .cfa -32 + ^ x23: .cfa -40 + ^ x24: .cfa -48 + ^ .ra: .cfa -56 + ^ x29: .cfa -64 + ^
STACK CFI 5bfd8 .cfa: sp 64 +
STACK CFI 5bfe8 .cfa: sp 0 +
STACK CFI INIT 5bfec 17c .cfa: sp 0 +
STACK CFI INIT 5c168 ac .cfa: sp 0 +
STACK CFI 5c16c .cfa: sp 64 +
STACK CFI 5c17c .cfa: x29 64 + x19: .cfa -8 + ^ x20: .cfa -16 + ^ x21: .cfa -24 + ^ x22: .cfa -32 + ^ x23: .cfa -48 + ^ .ra: .cfa -56 + ^ x29: .cfa -64 + ^
STACK CFI 5c1f8 .cfa: sp 64 +
STACK CFI 5c208 .cfa: sp 0 +
STACK CFI 5c20c .cfa: x29 64 +
STACK CFI INIT 5c214 100 .cfa: sp 0 +
STACK CFI 5c218 .cfa: sp 64 +
STACK CFI 5c228 .cfa: x29 64 + x19: .cfa -8 + ^ x20: .cfa -16 + ^ x21: .cfa -24 + ^ x22: .cfa -32 + ^ x23: .cfa -40 + ^ x24: .cfa -48 + ^ .ra: .cfa -56 + ^ x29: .cfa -64 + ^
STACK CFI 5c2f8 .cfa: sp 64 +
STACK CFI 5c308 .cfa: sp 0 +
STACK CFI 5c30c .cfa: x29 64 +
STACK CFI INIT 5c6b8 a0 .cfa: sp 0 +
STACK CFI 5c6bc .cfa: sp 48 +
STACK CFI 5c6c8 .cfa: x29 48 + x19: .cfa -8 + ^ x20: .cfa -16 + ^ x21: .cfa -24 + ^ x22: .cfa -32 + ^ .ra: .cfa -40 + ^ x29: .cfa -48 + ^
STACK CFI 5c734 .cfa: sp 48 +
STACK CFI 5c740 .cfa: sp 0 +
STACK CFI 5c744 .cfa: sp 48 +
STACK CFI 5c750 .cfa: sp 0 +
STACK CFI 5c754 .cfa: x29 48 +
STACK CFI INIT 5d3c4 158 .cfa: sp 0 +
STACK CFI 5d3c8 .cfa: sp 96 +
STACK CFI 5d3dc .cfa: x29 64 + x19: .cfa -8 + ^ x20: .cfa -16 + ^ x21: .cfa -24 + ^ x22: .cfa -32 + ^ x23: .cfa -48 + ^ .ra: .cfa -56 + ^ x29: .cfa -64 + ^
STACK CFI 5d4c0 .cfa: sp 96 +
STACK CFI 5d4d4 .cfa: sp 0 +
STACK CFI 5d4d8 .cfa: x29 64 +
STACK CFI INIT 5d51c 190 .cfa: sp 0 +
STACK CFI INIT 5e180 1dc .cfa: sp 0 +
STACK CFI 5e184 .cfa: sp 80 +
STACK CFI 5e198 .cfa: x29 80 + x19: .cfa -8 + ^ x20: .cfa -16 + ^ x21: .cfa -24 + ^ x22: .cfa -32 + ^ x23: .cfa -40 + ^ x24: .cfa -48 + ^ x25: .cfa -64 + ^ .ra: .cfa -72 + ^ x29: .cfa -80 + ^
STACK CFI 5e344 .cfa: sp 80 +
STACK CFI 5e358 .cfa: sp 0 +
STACK CFI INIT 5f6ac 124 .cfa: sp 0 +
STACK CFI 5f6dc .cfa: sp 32 +
STACK CFI 5f6e4 .cfa: x29 32 + x19: .cfa -8 + ^ x20: .cfa -16 + ^ .ra: .cfa -24 + ^ x29: .cfa -32 + ^
STACK CFI 5f7c4 .cfa: sp 32 +
STACK CFI 5f7cc .cfa: sp 0 +
STACK CFI INIT 5ff14 2f4 .cfa: sp 0 +
STACK CFI 5ff18 .cfa: sp 64 +
STACK CFI 5ff28 .cfa: x29 64 + x19: .cfa -8 + ^ x20: .cfa -16 + ^ x21: .cfa -24 + ^ x22: .cfa -32 + ^ x23: .cfa -40 + ^ x24: .cfa -48 + ^ .ra: .cfa -56 + ^ x29: .cfa -64 + ^
STACK CFI 60184 .cfa: sp 64 +
STACK CFI 60194 .cfa: sp 0 +
STACK CFI 60198 .cfa: x29 64 +
STACK CFI INIT 60208 a0 .cfa: sp 0 +
STACK CFI 6020c .cfa: sp 48 +
STACK CFI 60218 .cfa: x29 48 + x19: .cfa -8 + ^ x20: .cfa -16 + ^ x21: .cfa -24 + ^ x22: .cfa -32 + ^ .ra: .cfa -40 + ^ x29: .cfa -48 + ^
STACK CFI 60284 .cfa: sp 48 +
STACK CFI 60290 .cfa: sp 0 +
STACK CFI 60294 .cfa: sp 48 +
STACK CFI 602a0 .cfa: sp 0 +
STACK CFI 602a4 .cfa: x29 48 +
STACK CFI INIT 6112c 160 .cfa: sp 0 +
STACK CFI 61130 .cfa: sp 64 +
STACK CFI 61140 .cfa: x29 64 + x19: .cfa -8 + ^ x20: .cfa -16 + ^ x21: .cfa -24 + ^ x22: .cfa -32 + ^ x23: .cfa -48 + ^ .ra: .cfa -56 + ^ x29: .cfa -64 + ^
STACK CFI 61238 .cfa: sp 64 +
STACK CFI 61248 .cfa: sp 0 +
STACK CFI 6124c .cfa: x29 64 +
STACK CFI INIT 6128c 214 .cfa: sp 0 +
STACK CFI 61290 .cfa: sp 128 +
STACK CFI 612ac .cfa: x29 96 + x19: .cfa -8 + ^ x20: .cfa -16 + ^ x21: .cfa -24 + ^ x22: .cfa -32 + ^ x23: .cfa -40 + ^ x24: .cfa -48 + ^ x25: .cfa -56 + ^ x26: .cfa -64 + ^ x27: .cfa -80 + ^ .ra: .cfa -88 + ^ x29: .cfa -96 + ^
STACK CFI 61428 .cfa: sp 128 +
STACK CFI 61444 .cfa: sp 0 +
STACK CFI 61448 .cfa: x29 96 +
STACK CFI INIT 630dc 288 .cfa: sp 0 +
STACK CFI 630e0 .cfa: sp 16 +
STACK CFI 630e4 .cfa: x29 16 + .ra: .cfa -8 + ^ x29: .cfa -16 + ^
STACK CFI 6332c .cfa: sp 16 +
STACK CFI 63330 .cfa: sp 0 +
STACK CFI 63334 .cfa: x29 16 +
STACK CFI INIT 63364 158 .cfa: sp 0 +
STACK CFI 63368 .cfa: sp 112 +
STACK CFI 63384 .cfa: x29 96 + x19: .cfa -8 + ^ x20: .cfa -16 + ^ x21: .cfa -24 + ^ x22: .cfa -32 + ^ x23: .cfa -40 + ^ x24: .cfa -48 + ^ x25: .cfa -56 + ^ x26: .cfa -64 + ^ x27: .cfa -72 + ^ x28: .cfa -80 + ^ .ra: .cfa -88 + ^ x29: .cfa -96 + ^
STACK CFI 6346c .cfa: sp 112 +
STACK CFI 63470 .cfa: x29 96 +
STACK CFI 63478 .cfa: sp 112 +
STACK CFI 63494 .cfa: sp 0 +
STACK CFI 63498 .cfa: x29 96 +
STACK CFI 634b8 .cfa: sp 112 +
STACK CFI INIT 634bc e24 .cfa: sp 0 +
STACK CFI 634c0 .cfa: sp 192 +
STACK CFI 634dc .cfa: x29 96 + x19: .cfa -8 + ^ x20: .cfa -16 + ^ x21: .cfa -24 + ^ x22: .cfa -32 + ^ x23: .cfa -40 + ^ x24: .cfa -48 + ^ x25: .cfa -56 + ^ x26: .cfa -64 + ^ x27: .cfa -72 + ^ x28: .cfa -80 + ^ .ra: .cfa -88 + ^ x29: .cfa -96 + ^
STACK CFI 642bc .cfa: sp 192 +
STACK CFI 642d8 .cfa: sp 0 +
STACK CFI 642dc .cfa: x29 96 +
STACK CFI INIT 642e0 fc8 .cfa: sp 0 +
STACK CFI 642e4 .cfa: sp 288 +
STACK CFI 64300 .cfa: x29 96 + x19: .cfa -8 + ^ x20: .cfa -16 + ^ x21: .cfa -24 + ^ x22: .cfa -32 + ^ x23: .cfa -40 + ^ x24: .cfa -48 + ^ x25: .cfa -56 + ^ x26: .cfa -64 + ^ x27: .cfa -72 + ^ x28: .cfa -80 + ^ .ra: .cfa -88 + ^ x29: .cfa -96 + ^
STACK CFI 65284 .cfa: sp 288 +
STACK CFI 652a0 .cfa: sp 0 +
STACK CFI 652a4 .cfa: x29 96 +
STACK CFI INIT 652a8 510 .cfa: sp 0 +
STACK CFI 652ac .cfa: sp 144 +
STACK CFI 652c8 .cfa: x29 96 + x19: .cfa -8 + ^ x20: .cfa -16 + ^ x21: .cfa -24 + ^ x22: .cfa -32 + ^ x23: .cfa -40 + ^ x24: .cfa -48 + ^ x25: .cfa -56 + ^ x26: .cfa -64 + ^ x27: .cfa -72 + ^ x28: .cfa -80 + ^ .ra: .cfa -88 + ^ x29: .cfa -96 + ^
STACK CFI 65794 .cfa: sp 144 +
STACK CFI 657b0 .cfa: sp 0 +
STACK CFI 657b4 .cfa: x29 96 +
STACK CFI INIT 66144 cb8 .cfa: sp 0 +
STACK CFI 66148 .cfa: sp 192 +
STACK CFI 66164 .cfa: x29 96 + x19: .cfa -8 + ^ x20: .cfa -16 + ^ x21: .cfa -24 + ^ x22: .cfa -32 + ^ x23: .cfa -40 + ^ x24: .cfa -48 + ^ x25: .cfa -56 + ^ x26: .cfa -64 + ^ x27: .cfa -72 + ^ x28: .cfa -80 + ^ .ra: .cfa -88 + ^ x29: .cfa -96 + ^
STACK CFI 66dd8 .cfa: sp 192 +
STACK CFI 66df4 .cfa: sp 0 +
STACK CFI 66df8 .cfa: x29 96 +
STACK CFI INIT 66dfc 17c .cfa: sp 0 +
STACK CFI 66e00 .cfa: sp 80 +
STACK CFI 66e14 .cfa: x29 80 + x19: .cfa -8 + ^ x20: .cfa -16 + ^ x21: .cfa -24 + ^ x22: .cfa -32 + ^ x23: .cfa -40 + ^ x24: .cfa -48 + ^ x25: .cfa -64 + ^ .ra: .cfa -72 + ^ x29: .cfa -80 + ^
STACK CFI 66f1c .cfa: sp 80 +
STACK CFI 66f30 .cfa: sp 0 +
STACK CFI 66f34 .cfa: x29 80 +
STACK CFI INIT 66f78 1b8 .cfa: sp 0 +
STACK CFI INIT 36e40 b30 .cfa: sp 0 +
STACK CFI 36e44 .cfa: sp 240 +
STACK CFI 36e60 .cfa: x29 96 + x19: .cfa -8 + ^ x20: .cfa -16 + ^ x21: .cfa -24 + ^ x22: .cfa -32 + ^ x23: .cfa -40 + ^ x24: .cfa -48 + ^ x25: .cfa -56 + ^ x26: .cfa -64 + ^ x27: .cfa -72 + ^ x28: .cfa -80 + ^ .ra: .cfa -88 + ^ x29: .cfa -96 + ^
STACK CFI 3721c .cfa: sp 240 +
STACK CFI 37238 .cfa: sp 0 +
STACK CFI 3723c .cfa: x29 96 +
STACK CFI 3781c .cfa: sp 240 +
STACK CFI 37838 .cfa: sp 0 +
STACK CFI 3783c .cfa: x29 96 +
STACK CFI INIT 37988 690 .cfa: sp 0 +
STACK CFI 3798c .cfa: sp 240 +
STACK CFI 379a8 .cfa: x29 96 + x19: .cfa -8 + ^ x20: .cfa -16 + ^ x21: .cfa -24 + ^ x22: .cfa -32 + ^ x23: .cfa -40 + ^ x24: .cfa -48 + ^ x25: .cfa -56 + ^ x26: .cfa -64 + ^ x27: .cfa -80 + ^ .ra: .cfa -88 + ^ x29: .cfa -96 + ^
STACK CFI 37e64 .cfa: sp 240 +
STACK CFI 37e80 .cfa: sp 0 +
STACK CFI 37e84 .cfa: x29 96 +
STACK CFI INIT 38068 74 .cfa: sp 0 +
STACK CFI 3806c .cfa: sp 48 +
STACK CFI 38078 .cfa: x29 32 + x19: .cfa -8 + ^ x20: .cfa -16 + ^ .ra: .cfa -24 + ^ x29: .cfa -32 + ^
STACK CFI 380c4 .cfa: sp 48 +
STACK CFI 380d0 .cfa: sp 0 +
STACK CFI 380d4 .cfa: x29 32 +
STACK CFI INIT 3816c 154 .cfa: sp 0 +
STACK CFI 38170 .cfa: sp 384 +
STACK CFI 38184 .cfa: x29 64 + x19: .cfa -8 + ^ x20: .cfa -16 + ^ x21: .cfa -24 + ^ x22: .cfa -32 + ^ x23: .cfa -40 + ^ x28: .cfa -48 + ^ .ra: .cfa -56 + ^ x29: .cfa -64 + ^
STACK CFI 38268 .cfa: sp 384 +
STACK CFI 3827c .cfa: sp 0 +
STACK CFI 38280 .cfa: x29 64 +
STACK CFI INIT 382f4 124 .cfa: sp 0 +
STACK CFI 382f8 .cfa: sp 80 +
STACK CFI 3830c .cfa: x29 80 + x19: .cfa -8 + ^ x20: .cfa -16 + ^ x21: .cfa -24 + ^ x22: .cfa -32 + ^ x23: .cfa -40 + ^ x24: .cfa -48 + ^ x25: .cfa -56 + ^ x26: .cfa -64 + ^ .ra: .cfa -72 + ^ x29: .cfa -80 + ^
STACK CFI 383d8 .cfa: sp 80 +
STACK CFI 383ec .cfa: sp 0 +
STACK CFI 383f0 .cfa: x29 80 +
STACK CFI INIT 384bc 198 .cfa: sp 0 +
STACK CFI 384c0 .cfa: sp 112 +
STACK CFI 384d8 .cfa: x29 80 + x19: .cfa -8 + ^ x20: .cfa -16 + ^ x21: .cfa -24 + ^ x22: .cfa -32 + ^ x23: .cfa -40 + ^ x24: .cfa -48 + ^ x25: .cfa -56 + ^ x26: .cfa -64 + ^ .ra: .cfa -72 + ^ x29: .cfa -80 + ^
STACK CFI 385c8 .cfa: sp 112 +
STACK CFI 385e0 .cfa: sp 0 +
STACK CFI 385e4 .cfa: x29 80 +
STACK CFI INIT 38654 1b4 .cfa: sp 0 +
STACK CFI 38658 .cfa: sp 128 +
STACK CFI 38674 .cfa: x29 96 + x19: .cfa -8 + ^ x20: .cfa -16 + ^ x21: .cfa -24 + ^ x22: .cfa -32 + ^ x23: .cfa -40 + ^ x24: .cfa -48 + ^ x25: .cfa -56 + ^ x26: .cfa -64 + ^ x27: .cfa -80 + ^ .ra: .cfa -88 + ^ x29: .cfa -96 + ^
STACK CFI 387b8 .cfa: sp 128 +
STACK CFI 387d4 .cfa: sp 0 +
STACK CFI 387d8 .cfa: x29 96 +
STACK CFI INIT 3881c 50 .cfa: sp 0 +
STACK CFI 38820 .cfa: sp 32 +
STACK CFI 38828 .cfa: x29 32 + x19: .cfa -8 + ^ x20: .cfa -16 + ^ .ra: .cfa -24 + ^ x29: .cfa -32 + ^
STACK CFI INIT 388d0 15c .cfa: sp 0 +
STACK CFI 388d4 .cfa: sp 80 +
STACK CFI 388e8 .cfa: x29 80 + x19: .cfa -8 + ^ x20: .cfa -16 + ^ x21: .cfa -24 + ^ x22: .cfa -32 + ^ x23: .cfa -40 + ^ x24: .cfa -48 + ^ x25: .cfa -64 + ^ .ra: .cfa -72 + ^ x29: .cfa -80 + ^
STACK CFI 389f8 .cfa: sp 80 +
STACK CFI 38a0c .cfa: sp 0 +
STACK CFI 38a10 .cfa: x29 80 +
STACK CFI INIT 38cfc 5f8 .cfa: sp 0 +
STACK CFI 38d00 .cfa: sp 144 +
STACK CFI 38d14 .cfa: x29 64 + x19: .cfa -8 + ^ x20: .cfa -16 + ^ x21: .cfa -24 + ^ x22: .cfa -32 + ^ x23: .cfa -48 + ^ .ra: .cfa -56 + ^ x29: .cfa -64 + ^
STACK CFI 3925c .cfa: sp 144 +
STACK CFI 39270 .cfa: sp 0 +
STACK CFI 39274 .cfa: x29 64 +
STACK CFI INIT 39528 628 .cfa: sp 0 +
STACK CFI 3952c .cfa: sp 224 +
STACK CFI 39548 .cfa: x29 96 + x19: .cfa -8 + ^ x20: .cfa -16 + ^ x21: .cfa -24 + ^ x22: .cfa -32 + ^ x23: .cfa -40 + ^ x24: .cfa -48 + ^ x25: .cfa -56 + ^ x26: .cfa -64 + ^ x27: .cfa -72 + ^ x28: .cfa -80 + ^ .ra: .cfa -88 + ^ x29: .cfa -96 + ^
STACK CFI 399e4 .cfa: sp 224 +
STACK CFI 39a00 .cfa: sp 0 +
STACK CFI 39a04 .cfa: x29 96 +
STACK CFI INIT 39b88 50 .cfa: sp 0 +
STACK CFI 39b8c .cfa: sp 32 +
STACK CFI 39b94 .cfa: x29 32 + x19: .cfa -8 + ^ x20: .cfa -16 + ^ .ra: .cfa -24 + ^ x29: .cfa -32 + ^
STACK CFI INIT 39f4c 1bcc .cfa: sp 0 +
STACK CFI 39f50 .cfa: sp 128 +
STACK CFI 39f70 .cfa: x29 96 + x19: .cfa -8 + ^ x20: .cfa -16 + ^ x21: .cfa -24 + ^ x22: .cfa -32 + ^ x23: .cfa -40 + ^ x24: .cfa -48 + ^ x25: .cfa -56 + ^ x26: .cfa -64 + ^ x27: .cfa -72 + ^ x28: .cfa -80 + ^ .ra: .cfa -88 + ^ x29: .cfa -96 + ^ v8: .cfa -104 + ^ v9: .cfa -112 + ^ v10: .cfa -128 + ^
STACK CFI 3b8fc .cfa: sp 128 +
STACK CFI 3b91c .cfa: sp 0 +
STACK CFI 3b920 .cfa: x29 96 +
STACK CFI INIT 3bb1c 298 .cfa: sp 0 +
STACK CFI 3bb20 .cfa: sp 208 +
STACK CFI 3bb34 .cfa: x29 64 + x19: .cfa -8 + ^ x20: .cfa -16 + ^ x21: .cfa -24 + ^ x22: .cfa -32 + ^ x23: .cfa -40 + ^ x24: .cfa -48 + ^ .ra: .cfa -56 + ^ x29: .cfa -64 + ^
STACK CFI 3bd18 .cfa: sp 208 +
STACK CFI 3bd2c .cfa: sp 0 +
STACK CFI 3bd30 .cfa: x29 64 +
STACK CFI INIT 3c3c4 e8 .cfa: sp 0 +
STACK CFI 3c3c8 .cfa: sp 32 +
STACK CFI 3c3d0 .cfa: x29 32 + x19: .cfa -8 + ^ x20: .cfa -16 + ^ .ra: .cfa -24 + ^ x29: .cfa -32 + ^
STACK CFI 3c48c .cfa: sp 32 +
STACK CFI 3c494 .cfa: sp 0 +
STACK CFI 3c498 .cfa: x29 32 +
STACK CFI INIT 3c530 74 .cfa: sp 0 +
STACK CFI 3c534 .cfa: sp 48 +
STACK CFI 3c540 .cfa: x29 32 + x19: .cfa -8 + ^ x20: .cfa -16 + ^ .ra: .cfa -24 + ^ x29: .cfa -32 + ^
STACK CFI 3c58c .cfa: sp 48 +
STACK CFI 3c598 .cfa: sp 0 +
STACK CFI 3c59c .cfa: x29 32 +
STACK CFI INIT 3c5a4 74 .cfa: sp 0 +
STACK CFI 3c5a8 .cfa: sp 48 +
STACK CFI 3c5b4 .cfa: x29 32 + x19: .cfa -8 + ^ x20: .cfa -16 + ^ .ra: .cfa -24 + ^ x29: .cfa -32 + ^
STACK CFI 3c600 .cfa: sp 48 +
STACK CFI 3c60c .cfa: sp 0 +
STACK CFI 3c610 .cfa: x29 32 +
STACK CFI INIT 3c760 140 .cfa: sp 0 +
STACK CFI 3c764 .cfa: sp 128 +
STACK CFI 3c77c .cfa: x29 80 + x19: .cfa -8 + ^ x20: .cfa -16 + ^ x21: .cfa -24 + ^ x22: .cfa -32 + ^ x23: .cfa -40 + ^ x24: .cfa -48 + ^ x25: .cfa -64 + ^ .ra: .cfa -72 + ^ x29: .cfa -80 + ^
STACK CFI 3c82c .cfa: sp 128 +
STACK CFI 3c844 .cfa: sp 0 +
STACK CFI 3c848 .cfa: x29 80 +
STACK CFI INIT 3c8a0 1dc .cfa: sp 0 +
STACK CFI 3c8a4 .cfa: sp 160 +
STACK CFI 3c8b4 .cfa: x29 48 + x19: .cfa -8 + ^ x20: .cfa -16 + ^ x21: .cfa -24 + ^ x22: .cfa -32 + ^ .ra: .cfa -40 + ^ x29: .cfa -48 + ^
STACK CFI 3ca0c .cfa: sp 160 +
STACK CFI 3ca1c .cfa: sp 0 +
STACK CFI 3ca20 .cfa: x29 48 +
STACK CFI INIT 3cea0 2e80 .cfa: sp 0 +
STACK CFI 3cea4 .cfa: sp 96 +
STACK CFI 3cebc .cfa: x29 96 + x19: .cfa -8 + ^ x20: .cfa -16 + ^ x21: .cfa -24 + ^ x22: .cfa -32 + ^ x23: .cfa -40 + ^ x24: .cfa -48 + ^ x25: .cfa -56 + ^ x26: .cfa -64 + ^ x28: .cfa -80 + ^ .ra: .cfa -88 + ^ x29: .cfa -96 + ^
STACK CFI 3f6f4 .cfa: sp 96 +
STACK CFI 3f70c .cfa: sp 0 +
STACK CFI 3f710 .cfa: x29 96 +
STACK CFI INIT 3fd20 d0 .cfa: sp 0 +
STACK CFI 3fd24 .cfa: sp 80 +
STACK CFI 3fd38 .cfa: x29 64 + x19: .cfa -8 + ^ x20: .cfa -16 + ^ x21: .cfa -24 + ^ x22: .cfa -32 + ^ x23: .cfa -40 + ^ x24: .cfa -48 + ^ .ra: .cfa -56 + ^ x29: .cfa -64 + ^
STACK CFI 3fdb0 .cfa: sp 80 +
STACK CFI 3fdc4 .cfa: sp 0 +
STACK CFI 3fdc8 .cfa: x29 64 +
STACK CFI INIT 3fea8 1e0 .cfa: sp 0 +
STACK CFI 3feac .cfa: sp 208 +
STACK CFI 3fec4 .cfa: x29 80 + x19: .cfa -8 + ^ x20: .cfa -16 + ^ x21: .cfa -24 + ^ x22: .cfa -32 + ^ x23: .cfa -40 + ^ x24: .cfa -48 + ^ x25: .cfa -64 + ^ .ra: .cfa -72 + ^ x29: .cfa -80 + ^
STACK CFI 40014 .cfa: sp 208 +
STACK CFI 4002c .cfa: sp 0 +
STACK CFI 40030 .cfa: x29 80 +
STACK CFI INIT 4077c 184 .cfa: sp 0 +
STACK CFI 40780 .cfa: sp 160 +
STACK CFI 40790 .cfa: x29 48 + x19: .cfa -8 + ^ x20: .cfa -16 + ^ x21: .cfa -32 + ^ .ra: .cfa -40 + ^ x29: .cfa -48 + ^
STACK CFI 408a4 .cfa: sp 160 +
STACK CFI 408b4 .cfa: sp 0 +
STACK CFI 408b8 .cfa: x29 48 +
STACK CFI INIT 41db8 2af4 .cfa: sp 0 +
STACK CFI 41dbc .cfa: sp 96 +
STACK CFI 41dd4 .cfa: x29 96 + x19: .cfa -8 + ^ x20: .cfa -16 + ^ x21: .cfa -24 + ^ x22: .cfa -32 + ^ x23: .cfa -40 + ^ x24: .cfa -48 + ^ x25: .cfa -56 + ^ x26: .cfa -64 + ^ x28: .cfa -80 + ^ .ra: .cfa -88 + ^ x29: .cfa -96 + ^
STACK CFI 4446c .cfa: sp 96 +
STACK CFI 44484 .cfa: sp 0 +
STACK CFI 44488 .cfa: x29 96 +
STACK CFI INIT 464d0 2af4 .cfa: sp 0 +
STACK CFI 464d4 .cfa: sp 96 +
STACK CFI 464ec .cfa: x29 96 + x19: .cfa -8 + ^ x20: .cfa -16 + ^ x21: .cfa -24 + ^ x22: .cfa -32 + ^ x23: .cfa -40 + ^ x24: .cfa -48 + ^ x25: .cfa -56 + ^ x26: .cfa -64 + ^ x28: .cfa -80 + ^ .ra: .cfa -88 + ^ x29: .cfa -96 + ^
STACK CFI 48b84 .cfa: sp 96 +
STACK CFI 48b9c .cfa: sp 0 +
STACK CFI 48ba0 .cfa: x29 96 +
STACK CFI INIT 4abe8 2af4 .cfa: sp 0 +
STACK CFI 4abec .cfa: sp 96 +
STACK CFI 4ac04 .cfa: x29 96 + x19: .cfa -8 + ^ x20: .cfa -16 + ^ x21: .cfa -24 + ^ x22: .cfa -32 + ^ x23: .cfa -40 + ^ x24: .cfa -48 + ^ x25: .cfa -56 + ^ x26: .cfa -64 + ^ x28: .cfa -80 + ^ .ra: .cfa -88 + ^ x29: .cfa -96 + ^
STACK CFI 4d29c .cfa: sp 96 +
STACK CFI 4d2b4 .cfa: sp 0 +
STACK CFI 4d2b8 .cfa: x29 96 +
STACK CFI INIT 4f300 2af4 .cfa: sp 0 +
STACK CFI 4f304 .cfa: sp 96 +
STACK CFI 4f31c .cfa: x29 96 + x19: .cfa -8 + ^ x20: .cfa -16 + ^ x21: .cfa -24 + ^ x22: .cfa -32 + ^ x23: .cfa -40 + ^ x24: .cfa -48 + ^ x25: .cfa -56 + ^ x26: .cfa -64 + ^ x28: .cfa -80 + ^ .ra: .cfa -88 + ^ x29: .cfa -96 + ^
STACK CFI 519b4 .cfa: sp 96 +
STACK CFI 519cc .cfa: sp 0 +
STACK CFI 519d0 .cfa: x29 96 +
STACK CFI INIT 53a94 134 .cfa: sp 0 +
STACK CFI 53a98 .cfa: sp 80 +
STACK CFI 53aa4 .cfa: x29 32 + x19: .cfa -8 + ^ x20: .cfa -16 + ^ .ra: .cfa -24 + ^ x29: .cfa -32 + ^
STACK CFI 53ad4 .cfa: sp 80 +
STACK CFI 53ae0 .cfa: sp 0 +
STACK CFI 53ae4 .cfa: x29 32 +
STACK CFI INIT 53bc8 78 .cfa: sp 0 +
STACK CFI 53bcc .cfa: sp 32 +
STACK CFI 53bd4 .cfa: x29 32 + x19: .cfa -8 + ^ x20: .cfa -16 + ^ .ra: .cfa -24 + ^ x29: .cfa -32 + ^
STACK CFI 53be0 .cfa: sp 32 +
STACK CFI 53be8 .cfa: sp 0 +
STACK CFI 53bec .cfa: x29 32 +
STACK CFI INIT 53c40 74 .cfa: sp 0 +
STACK CFI 53c44 .cfa: sp 48 +
STACK CFI 53c50 .cfa: x29 32 + x19: .cfa -8 + ^ x20: .cfa -16 + ^ .ra: .cfa -24 + ^ x29: .cfa -32 + ^
STACK CFI 53c9c .cfa: sp 48 +
STACK CFI 53ca8 .cfa: sp 0 +
STACK CFI 53cac .cfa: x29 32 +
STACK CFI INIT 53db4 288 .cfa: sp 0 +
STACK CFI 53db8 .cfa: sp 128 +
STACK CFI 53dc8 .cfa: x29 48 + x19: .cfa -8 + ^ x20: .cfa -16 + ^ x21: .cfa -32 + ^ .ra: .cfa -40 + ^ x29: .cfa -48 + ^
STACK CFI 53edc .cfa: sp 128 +
STACK CFI 53eec .cfa: sp 0 +
STACK CFI 53ef0 .cfa: x29 48 +
STACK CFI INIT 5403c 2f0 .cfa: sp 0 +
STACK CFI 54040 .cfa: sp 144 +
STACK CFI 54054 .cfa: x29 64 + x19: .cfa -8 + ^ x20: .cfa -16 + ^ x21: .cfa -24 + ^ x22: .cfa -32 + ^ x23: .cfa -48 + ^ .ra: .cfa -56 + ^ x29: .cfa -64 + ^
STACK CFI 541d0 .cfa: sp 144 +
STACK CFI 541e4 .cfa: sp 0 +
STACK CFI 541e8 .cfa: x29 64 +
STACK CFI INIT 54380 260 .cfa: sp 0 +
STACK CFI 54384 .cfa: sp 128 +
STACK CFI 54394 .cfa: x29 48 + x19: .cfa -8 + ^ x20: .cfa -16 + ^ x21: .cfa -32 + ^ .ra: .cfa -40 + ^ x29: .cfa -48 + ^
STACK CFI 54480 .cfa: sp 128 +
STACK CFI 54490 .cfa: sp 0 +
STACK CFI 54494 .cfa: x29 48 +
STACK CFI INIT 54884 2d4 .cfa: sp 0 +
STACK CFI 54888 .cfa: sp 144 +
STACK CFI 5489c .cfa: x29 64 + x19: .cfa -8 + ^ x20: .cfa -16 + ^ x21: .cfa -24 + ^ x22: .cfa -32 + ^ x23: .cfa -48 + ^ .ra: .cfa -56 + ^ x29: .cfa -64 + ^
STACK CFI 549fc .cfa: sp 144 +
STACK CFI 54a10 .cfa: sp 0 +
STACK CFI 54a14 .cfa: x29 64 +
STACK CFI INIT 54b58 2d4 .cfa: sp 0 +
STACK CFI 54b5c .cfa: sp 144 +
STACK CFI 54b70 .cfa: x29 64 + x19: .cfa -8 + ^ x20: .cfa -16 + ^ x21: .cfa -24 + ^ x22: .cfa -32 + ^ x23: .cfa -48 + ^ .ra: .cfa -56 + ^ x29: .cfa -64 + ^
STACK CFI 54cd0 .cfa: sp 144 +
STACK CFI 54ce4 .cfa: sp 0 +
STACK CFI 54ce8 .cfa: x29 64 +
STACK CFI INIT 54e2c 290 .cfa: sp 0 +
STACK CFI 54e30 .cfa: sp 144 +
STACK CFI 54e44 .cfa: x29 64 + x19: .cfa -8 + ^ x20: .cfa -16 + ^ x21: .cfa -24 + ^ x22: .cfa -32 + ^ x23: .cfa -48 + ^ .ra: .cfa -56 + ^ x29: .cfa -64 + ^
STACK CFI 54f60 .cfa: sp 144 +
STACK CFI 54f74 .cfa: sp 0 +
STACK CFI 54f78 .cfa: x29 64 +
STACK CFI INIT 550bc 2e0 .cfa: sp 0 +
STACK CFI 550c0 .cfa: sp 144 +
STACK CFI 550d4 .cfa: x29 64 + x19: .cfa -8 + ^ x20: .cfa -16 + ^ x21: .cfa -24 + ^ x22: .cfa -32 + ^ x23: .cfa -48 + ^ .ra: .cfa -56 + ^ x29: .cfa -64 + ^
STACK CFI 55240 .cfa: sp 144 +
STACK CFI 55254 .cfa: sp 0 +
STACK CFI 55258 .cfa: x29 64 +
STACK CFI INIT 5539c 4ac .cfa: sp 0 +
STACK CFI 553a0 .cfa: sp 144 +
STACK CFI 553b4 .cfa: x29 64 + x19: .cfa -8 + ^ x20: .cfa -16 + ^ x21: .cfa -24 + ^ x22: .cfa -32 + ^ x23: .cfa -48 + ^ .ra: .cfa -56 + ^ x29: .cfa -64 + ^
STACK CFI 55698 .cfa: sp 144 +
STACK CFI 556ac .cfa: sp 0 +
STACK CFI 556b0 .cfa: x29 64 +
STACK CFI INIT 55848 154 .cfa: sp 0 +
STACK CFI 5584c .cfa: sp 384 +
STACK CFI 55860 .cfa: x29 64 + x19: .cfa -8 + ^ x20: .cfa -16 + ^ x21: .cfa -24 + ^ x22: .cfa -32 + ^ x23: .cfa -40 + ^ x28: .cfa -48 + ^ .ra: .cfa -56 + ^ x29: .cfa -64 + ^
STACK CFI 55944 .cfa: sp 384 +
STACK CFI 55958 .cfa: sp 0 +
STACK CFI 5595c .cfa: x29 64 +
STACK CFI INIT 5599c 168 .cfa: sp 0 +
STACK CFI 559a0 .cfa: sp 384 +
STACK CFI 559b4 .cfa: x29 64 + x19: .cfa -8 + ^ x20: .cfa -16 + ^ x21: .cfa -24 + ^ x22: .cfa -32 + ^ x23: .cfa -40 + ^ x28: .cfa -48 + ^ .ra: .cfa -56 + ^ x29: .cfa -64 + ^
STACK CFI 55aac .cfa: sp 384 +
STACK CFI 55ac0 .cfa: sp 0 +
STACK CFI 55ac4 .cfa: x29 64 +
STACK CFI INIT 55b1c 430 .cfa: sp 0 +
STACK CFI 55b20 .cfa: sp 64 +
STACK CFI 55b30 .cfa: x29 64 + x19: .cfa -8 + ^ x20: .cfa -16 + ^ x21: .cfa -24 + ^ x22: .cfa -32 + ^ x23: .cfa -40 + ^ x24: .cfa -48 + ^ .ra: .cfa -56 + ^ x29: .cfa -64 + ^
STACK CFI 55ee4 .cfa: sp 64 +
STACK CFI 55ef4 .cfa: sp 0 +
STACK CFI 55ef8 .cfa: x29 64 +
STACK CFI INIT 5627c 294 .cfa: sp 0 +
STACK CFI 56280 .cfa: sp 240 +
STACK CFI 56298 .cfa: x29 80 + x19: .cfa -8 + ^ x20: .cfa -16 + ^ x21: .cfa -24 + ^ x22: .cfa -32 + ^ x23: .cfa -40 + ^ x24: .cfa -48 + ^ x25: .cfa -64 + ^ .ra: .cfa -72 + ^ x29: .cfa -80 + ^
STACK CFI 56438 .cfa: sp 240 +
STACK CFI 56450 .cfa: sp 0 +
STACK CFI 56454 .cfa: x29 80 +
STACK CFI INIT 56580 50 .cfa: sp 0 +
STACK CFI 56584 .cfa: sp 32 +
STACK CFI 5658c .cfa: x29 32 + x19: .cfa -8 + ^ x20: .cfa -16 + ^ .ra: .cfa -24 + ^ x29: .cfa -32 + ^
STACK CFI INIT 565fc 750 .cfa: sp 0 +
STACK CFI 56600 .cfa: sp 320 +
STACK CFI 5661c .cfa: x29 96 + x19: .cfa -8 + ^ x20: .cfa -16 + ^ x21: .cfa -24 + ^ x22: .cfa -32 + ^ x23: .cfa -40 + ^ x24: .cfa -48 + ^ x25: .cfa -56 + ^ x26: .cfa -64 + ^ x27: .cfa -72 + ^ x28: .cfa -80 + ^ .ra: .cfa -88 + ^ x29: .cfa -96 + ^
STACK CFI 56c08 .cfa: sp 320 +
STACK CFI 56c24 .cfa: sp 0 +
STACK CFI 56c28 .cfa: x29 96 +
STACK CFI INIT 56db0 12c .cfa: sp 0 +
STACK CFI 56db4 .cfa: sp 80 +
STACK CFI 56dc8 .cfa: x29 80 + x19: .cfa -8 + ^ x20: .cfa -16 + ^ x21: .cfa -24 + ^ x22: .cfa -32 + ^ x23: .cfa -40 + ^ x24: .cfa -48 + ^ x28: .cfa -64 + ^ .ra: .cfa -72 + ^ x29: .cfa -80 + ^
STACK CFI 56e90 .cfa: sp 80 +
STACK CFI 56ea4 .cfa: sp 0 +
STACK CFI 56ea8 .cfa: x29 80 +
STACK CFI INIT 5ae4c c2c .cfa: sp 0 +
STACK CFI 5ae50 .cfa: sp 96 +
STACK CFI 5ae68 .cfa: x29 96 + x19: .cfa -8 + ^ x20: .cfa -16 + ^ x21: .cfa -24 + ^ x22: .cfa -32 + ^ x23: .cfa -40 + ^ x24: .cfa -48 + ^ x25: .cfa -56 + ^ x26: .cfa -64 + ^ x27: .cfa -72 + ^ x28: .cfa -80 + ^ .ra: .cfa -88 + ^ x29: .cfa -96 + ^
STACK CFI 5b93c .cfa: sp 96 +
STACK CFI 5b954 .cfa: sp 0 +
STACK CFI 5b958 .cfa: x29 96 +
STACK CFI INIT 5bbcc 238 .cfa: sp 0 +
STACK CFI 5bbd0 .cfa: sp 128 +
STACK CFI 5bbe0 .cfa: x29 48 + x19: .cfa -8 + ^ x20: .cfa -16 + ^ x21: .cfa -24 + ^ x22: .cfa -32 + ^ .ra: .cfa -40 + ^ x29: .cfa -48 + ^
STACK CFI 5bd68 .cfa: sp 128 +
STACK CFI 5bd78 .cfa: sp 0 +
STACK CFI 5bd7c .cfa: x29 48 +
STACK CFI INIT 5c314 3a4 .cfa: sp 0 +
STACK CFI 5c318 .cfa: sp 96 +
STACK CFI 5c330 .cfa: x29 96 + x19: .cfa -8 + ^ x20: .cfa -16 + ^ x21: .cfa -24 + ^ x22: .cfa -32 + ^ x23: .cfa -40 + ^ x24: .cfa -48 + ^ x25: .cfa -56 + ^ x26: .cfa -64 + ^ x27: .cfa -72 + ^ x28: .cfa -80 + ^ .ra: .cfa -88 + ^ x29: .cfa -96 + ^
STACK CFI 5c658 .cfa: sp 96 +
STACK CFI 5c670 .cfa: sp 0 +
STACK CFI 5c674 .cfa: x29 96 +
STACK CFI INIT 5c758 c6c .cfa: sp 0 +
STACK CFI 5c75c .cfa: sp 96 +
STACK CFI 5c774 .cfa: x29 96 + x19: .cfa -8 + ^ x20: .cfa -16 + ^ x21: .cfa -24 + ^ x22: .cfa -32 + ^ x23: .cfa -40 + ^ x24: .cfa -48 + ^ x25: .cfa -56 + ^ x26: .cfa -64 + ^ x27: .cfa -72 + ^ x28: .cfa -80 + ^ .ra: .cfa -88 + ^ x29: .cfa -96 + ^
STACK CFI 5d278 .cfa: sp 96 +
STACK CFI 5d290 .cfa: sp 0 +
STACK CFI 5d294 .cfa: x29 96 +
STACK CFI INIT 5d6ac ad4 .cfa: sp 0 +
STACK CFI 5d6b0 .cfa: sp 96 +
STACK CFI 5d6c8 .cfa: x29 96 + x19: .cfa -8 + ^ x20: .cfa -16 + ^ x21: .cfa -24 + ^ x22: .cfa -32 + ^ x23: .cfa -40 + ^ x24: .cfa -48 + ^ x25: .cfa -56 + ^ x26: .cfa -64 + ^ x27: .cfa -72 + ^ x28: .cfa -80 + ^ .ra: .cfa -88 + ^ x29: .cfa -96 + ^
STACK CFI 5e0f4 .cfa: sp 96 +
STACK CFI 5e10c .cfa: sp 0 +
STACK CFI 5e110 .cfa: x29 96 +
STACK CFI INIT 5e35c 1350 .cfa: sp 0 +
STACK CFI 5e360 .cfa: sp 96 +
STACK CFI 5e378 .cfa: x29 96 + x19: .cfa -8 + ^ x20: .cfa -16 + ^ x21: .cfa -24 + ^ x22: .cfa -32 + ^ x23: .cfa -40 + ^ x24: .cfa -48 + ^ x25: .cfa -56 + ^ x26: .cfa -64 + ^ x27: .cfa -72 + ^ x28: .cfa -80 + ^ .ra: .cfa -88 + ^ x29: .cfa -96 + ^
STACK CFI 5f578 .cfa: sp 96 +
STACK CFI 5f590 .cfa: sp 0 +
STACK CFI 5f594 .cfa: x29 96 +
STACK CFI INIT 5f7d0 744 .cfa: sp 0 +
STACK CFI 5f7d4 .cfa: sp 368 +
STACK CFI 5f7f0 .cfa: x29 96 + x19: .cfa -8 + ^ x20: .cfa -16 + ^ x21: .cfa -24 + ^ x22: .cfa -32 + ^ x23: .cfa -40 + ^ x24: .cfa -48 + ^ x25: .cfa -56 + ^ x26: .cfa -64 + ^ x27: .cfa -72 + ^ x28: .cfa -80 + ^ .ra: .cfa -88 + ^ x29: .cfa -96 + ^
STACK CFI 5f88c .cfa: sp 368 +
STACK CFI 5f8a8 .cfa: sp 0 +
STACK CFI 5f8ac .cfa: x29 96 +
STACK CFI 5f900 .cfa: sp 368 +
STACK CFI 5f91c .cfa: sp 0 +
STACK CFI 5f920 .cfa: x29 96 +
STACK CFI INIT 602a8 e84 .cfa: sp 0 +
STACK CFI 602ac .cfa: sp 96 +
STACK CFI 602c4 .cfa: x29 96 + x19: .cfa -8 + ^ x20: .cfa -16 + ^ x21: .cfa -24 + ^ x22: .cfa -32 + ^ x23: .cfa -40 + ^ x24: .cfa -48 + ^ x25: .cfa -56 + ^ x26: .cfa -64 + ^ x27: .cfa -72 + ^ x28: .cfa -80 + ^ .ra: .cfa -88 + ^ x29: .cfa -96 + ^
STACK CFI 60f40 .cfa: sp 96 +
STACK CFI 60f58 .cfa: sp 0 +
STACK CFI 60f5c .cfa: x29 96 +
STACK CFI INIT 614a0 1c3c .cfa: sp 0 +
STACK CFI 614a4 .cfa: sp 112 +
STACK CFI 614c0 .cfa: x29 96 + x19: .cfa -8 + ^ x20: .cfa -16 + ^ x21: .cfa -24 + ^ x22: .cfa -32 + ^ x23: .cfa -40 + ^ x24: .cfa -48 + ^ x25: .cfa -56 + ^ x26: .cfa -64 + ^ x27: .cfa -72 + ^ x28: .cfa -80 + ^ .ra: .cfa -88 + ^ x29: .cfa -96 + ^ v8: .cfa -112 + ^
STACK CFI 62dfc .cfa: sp 112 +
STACK CFI 62e18 .cfa: sp 0 +
STACK CFI 62e1c .cfa: x29 96 +
STACK CFI INIT 657b8 98c .cfa: sp 0 +
STACK CFI 657bc .cfa: sp 144 +
STACK CFI 657d4 .cfa: x29 80 + x19: .cfa -8 + ^ x20: .cfa -16 + ^ x21: .cfa -24 + ^ x22: .cfa -32 + ^ x23: .cfa -40 + ^ x24: .cfa -48 + ^ x25: .cfa -64 + ^ .ra: .cfa -72 + ^ x29: .cfa -80 + ^
STACK CFI 660c0 .cfa: sp 144 +
STACK CFI 660d8 .cfa: sp 0 +
STACK CFI 660dc .cfa: x29 80 +
STACK CFI INIT 67130 570 .cfa: sp 0 +
STACK CFI 67134 .cfa: sp 96 +
STACK CFI 6714c .cfa: x29 96 + x19: .cfa -8 + ^ x20: .cfa -16 + ^ x21: .cfa -24 + ^ x22: .cfa -32 + ^ x23: .cfa -40 + ^ x24: .cfa -48 + ^ x25: .cfa -56 + ^ x26: .cfa -64 + ^ x27: .cfa -72 + ^ x28: .cfa -80 + ^ .ra: .cfa -88 + ^ x29: .cfa -96 + ^
STACK CFI 67604 .cfa: sp 96 +
STACK CFI 6761c .cfa: sp 0 +
STACK CFI 67620 .cfa: x29 96 +
STACK CFI INIT 676a0 664 .cfa: sp 0 +
STACK CFI 676a4 .cfa: sp 96 +
STACK CFI 676bc .cfa: x29 96 + x19: .cfa -8 + ^ x20: .cfa -16 + ^ x21: .cfa -24 + ^ x22: .cfa -32 + ^ x23: .cfa -40 + ^ x24: .cfa -48 + ^ x25: .cfa -56 + ^ x26: .cfa -64 + ^ x27: .cfa -72 + ^ x28: .cfa -80 + ^ .ra: .cfa -88 + ^ x29: .cfa -96 + ^
STACK CFI 67c68 .cfa: sp 96 +
STACK CFI 67c80 .cfa: sp 0 +
STACK CFI 67c84 .cfa: x29 96 +
