MODULE Linux arm64 AAA7DBE24C558A45D834008C73002E850 uproxide.more_difficulties.android64.so
INFO CODE_ID E2DBA7AA554C458AD834008C73002E852D466FEB
INFO GENERATOR mozilla/dump_syms 2.3.4
PUBLIC 1f710 0 __on_dlclose
PUBLIC 1f720 0 __emutls_unregister_key
PUBLIC 1f728 0 __on_dlclose_late
PUBLIC 1f730 0 __atexit_handler_wrapper
PUBLIC 1f744 0 atexit
PUBLIC 1f760 0 pthread_atfork
PUBLIC 1f770 0 unwind_phase2
PUBLIC 1f8a4 0 _Unwind_Resume
PUBLIC 1f928 0 unwind_phase2_forced
PUBLIC m 1fa1c 0 __unw_init_local
PUBLIC m 1fac4 0 __unw_get_reg
PUBLIC 1fb40 0 __unw_step_stage2
PUBLIC m 1fb54 0 __unw_get_proc_info
PUBLIC m 1fb94 0 __unw_resume
PUBLIC 1fbbc 0 libunwind::CFI_Parser<libunwind::LocalAddressSpace>::decodeFDE(libunwind::LocalAddressSpace&, unsigned long, libunwind::CFI_Parser<libunwind::LocalAddressSpace>::FDE_Info*, libunwind::CFI_Parser<libunwind::LocalAddressSpace>::CIE_Info*, bool)
PUBLIC 1fd4c 0 libunwind::CFI_Parser<libunwind::LocalAddressSpace>::parseCIE(libunwind::LocalAddressSpace&, unsigned long, libunwind::CFI_Parser<libunwind::LocalAddressSpace>::CIE_Info*)
PUBLIC 20014 0 libunwind::AbstractUnwindCursor::~AbstractUnwindCursor()
PUBLIC 2001c 0 libunwind::UnwindCursor<libunwind::LocalAddressSpace, libunwind::Registers_arm64>::~UnwindCursor()
PUBLIC 20024 0 libunwind::UnwindCursor<libunwind::LocalAddressSpace, libunwind::Registers_arm64>::validReg(int)
PUBLIC 20068 0 libunwind::UnwindCursor<libunwind::LocalAddressSpace, libunwind::Registers_arm64>::getReg(int)
PUBLIC 20150 0 libunwind::UnwindCursor<libunwind::LocalAddressSpace, libunwind::Registers_arm64>::setReg(int, unsigned long)
PUBLIC 20238 0 libunwind::UnwindCursor<libunwind::LocalAddressSpace, libunwind::Registers_arm64>::validFloatReg(int)
PUBLIC 2024c 0 libunwind::UnwindCursor<libunwind::LocalAddressSpace, libunwind::Registers_arm64>::getFloatReg(int)
PUBLIC 2025c 0 libunwind::UnwindCursor<libunwind::LocalAddressSpace, libunwind::Registers_arm64>::setFloatReg(int, double)
PUBLIC 2026c 0 libunwind::UnwindCursor<libunwind::LocalAddressSpace, libunwind::Registers_arm64>::step(bool)
PUBLIC 2035c 0 libunwind::UnwindCursor<libunwind::LocalAddressSpace, libunwind::Registers_arm64>::getInfo(unw_proc_info_t*)
PUBLIC 203a0 0 libunwind::UnwindCursor<libunwind::LocalAddressSpace, libunwind::Registers_arm64>::jumpto()
PUBLIC 203ac 0 libunwind::UnwindCursor<libunwind::LocalAddressSpace, libunwind::Registers_arm64>::isSignalFrame()
PUBLIC 203b8 0 libunwind::UnwindCursor<libunwind::LocalAddressSpace, libunwind::Registers_arm64>::getFunctionName(char*, unsigned long, unsigned long*)
PUBLIC 203e4 0 libunwind::UnwindCursor<libunwind::LocalAddressSpace, libunwind::Registers_arm64>::setInfoBasedOnIPRegister(bool)
PUBLIC 20664 0 libunwind::UnwindCursor<libunwind::LocalAddressSpace, libunwind::Registers_arm64>::getRegisterName(int)
PUBLIC 20670 0 libunwind::UnwindCursor<libunwind::LocalAddressSpace, libunwind::Registers_arm64>::stepThroughSigReturn(libunwind::Registers_arm64&)
PUBLIC 20790 0 libunwind::DwarfInstructions<libunwind::LocalAddressSpace, libunwind::Registers_arm64>::stepWithDwarf(libunwind::LocalAddressSpace&, unsigned long, unsigned long, libunwind::Registers_arm64&, bool&, bool)
PUBLIC 20c18 0 libunwind::CFI_Parser<libunwind::LocalAddressSpace>::parseFDEInstructions(libunwind::LocalAddressSpace&, libunwind::CFI_Parser<libunwind::LocalAddressSpace>::FDE_Info const&, libunwind::CFI_Parser<libunwind::LocalAddressSpace>::CIE_Info const&, unsigned long, int, libunwind::CFI_Parser<libunwind::LocalAddressSpace>::PrologInfo*)
PUBLIC 21860 0 libunwind::DwarfInstructions<libunwind::LocalAddressSpace, libunwind::Registers_arm64>::getCFA(libunwind::LocalAddressSpace&, libunwind::CFI_Parser<libunwind::LocalAddressSpace>::PrologInfo const&, libunwind::Registers_arm64 const&)
PUBLIC 21994 0 libunwind::DwarfInstructions<libunwind::LocalAddressSpace, libunwind::Registers_arm64>::getSavedRegister(libunwind::LocalAddressSpace&, libunwind::Registers_arm64 const&, unsigned long, libunwind::CFI_Parser<libunwind::LocalAddressSpace>::RegisterLocation const&)
PUBLIC 21ba4 0 libunwind::LocalAddressSpace::getEncodedP(unsigned long&, unsigned long, unsigned char, unsigned long)
PUBLIC 21f30 0 libunwind::LocalAddressSpace::getULEB128(unsigned long&, unsigned long)
PUBLIC 220f8 0 libunwind::DwarfInstructions<libunwind::LocalAddressSpace, libunwind::Registers_arm64>::evaluateExpression(unsigned long, libunwind::LocalAddressSpace&, libunwind::Registers_arm64 const&, unsigned long)
PUBLIC 22ab4 0 libunwind::UnwindCursor<libunwind::LocalAddressSpace, libunwind::Registers_arm64>::getInfoFromDwarfSection(unsigned long, libunwind::UnwindInfoSections const&, unsigned int)
PUBLIC 22d88 0 libunwind::findUnwindSectionsByPhdr(dl_phdr_info*, unsigned long, void*)
PUBLIC 22ebc 0 libunwind::EHHeaderParser<libunwind::LocalAddressSpace>::decodeEHHdr(libunwind::LocalAddressSpace&, unsigned long, unsigned long, libunwind::EHHeaderParser<libunwind::LocalAddressSpace>::EHHeaderInfo&)
PUBLIC 22fdc 0 libunwind::CFI_Parser<libunwind::LocalAddressSpace>::findFDE(libunwind::LocalAddressSpace&, unsigned long, unsigned long, unsigned long, unsigned long, libunwind::CFI_Parser<libunwind::LocalAddressSpace>::FDE_Info*, libunwind::CFI_Parser<libunwind::LocalAddressSpace>::CIE_Info*)
PUBLIC 231a4 0 libunwind::EHHeaderParser<libunwind::LocalAddressSpace>::findFDE(libunwind::LocalAddressSpace&, unsigned long, unsigned long, unsigned int, libunwind::CFI_Parser<libunwind::LocalAddressSpace>::FDE_Info*, libunwind::CFI_Parser<libunwind::LocalAddressSpace>::CIE_Info*)
PUBLIC 2330c 0 libunwind::EHHeaderParser<libunwind::LocalAddressSpace>::getTableEntrySize(unsigned char)
PUBLIC 23408 0 libunwind::Registers_arm64::getRegisterName(int)
PUBLIC 23438 0 __libunwind_Registers_arm64_jumpto
PUBLIC m 234c8 0 __unw_getcontext
PUBLIC 23570 0 __aarch64_ldadd8_relax
PUBLIC 235a0 0 init_have_lse_atomics
PUBLIC 23638 0 __init_cpu_features_constructor
PUBLIC 23bd4 0 __init_cpu_features
PUBLIC 23c60 0 __aarch64_ldadd8_acq_rel
PUBLIC 23c90 0 ToggleDifficultiesNode::createNode(float)
PUBLIC 23fa4 0 std::__ndk1::shared_ptr<ToggleDifficultiesNode>::~shared_ptr[abi:ne180000]()
PUBLIC 23ff4 0 std::__ndk1::shared_ptr<geode::SettingV3>::~shared_ptr[abi:ne180000]()
PUBLIC 24044 0 geodeExecFunction19<(anonymous namespace)::ExecFuncUnique19>(geode::ModStateEvent*)
PUBLIC 24148 0 ToggleDifficultiesNode::~ToggleDifficultiesNode()
PUBLIC 2416c 0 ToggleDifficultiesNode::load(matjson::Value const&)
PUBLIC 24174 0 ToggleDifficultiesNode::save(matjson::Value&) const
PUBLIC 2417c 0 ToggleDifficultiesNode::isDefaultValue() const
PUBLIC 24184 0 ToggleDifficultiesNode::reset()
PUBLIC 24188 0 cocos2d::CCCopying::copyWithZone(cocos2d::CCZone*)
PUBLIC 24190 0 geode::SettingNodeV3::~SettingNodeV3()
PUBLIC 24200 0 ToggleDFButtonNode::~ToggleDFButtonNode()
PUBLIC 24280 0 ToggleDFButtonNode::updateState(cocos2d::CCNode*)
PUBLIC 243b8 0 ToggleDFButtonNode::onCommit()
PUBLIC 243bc 0 ToggleDFButtonNode::onResetToDefault()
PUBLIC 243c0 0 ToggleDFButtonNode::hasUncommittedChanges() const
PUBLIC 243c8 0 ToggleDFButtonNode::hasNonDefaultValue() const
PUBLIC 243d0 0 ToggleDFButtonNode::onButton(cocos2d::CCObject*)
PUBLIC 24730 0 geode::Popup<>::~Popup()
PUBLIC 2479c 0 ToggleDifficultiesPopup::~ToggleDifficultiesPopup()
PUBLIC 24810 0 geode::Popup<>::registerWithTouchDispatcher()
PUBLIC 2483c 0 geode::Popup<>::keyDown(cocos2d::enumKeyCodes)
PUBLIC 24864 0 cocos2d::CCLayerRGBA::setOpacityModifyRGB(bool)
PUBLIC 24868 0 cocos2d::CCLayerRGBA::isOpacityModifyRGB()
PUBLIC 24870 0 ToggleDifficultiesPopup::setup()
PUBLIC 24bcc 0 geode::Popup<>::onClose(cocos2d::CCObject*)
PUBLIC 24d14 0 {virtual override thunk({offset(-320)}, ToggleDifficultiesPopup::~ToggleDifficultiesPopup())}
PUBLIC 24d80 0 {virtual override thunk({offset(-320)}, ToggleDifficultiesPopup::~ToggleDifficultiesPopup())}
PUBLIC 24df4 0 {virtual override thunk({offset(-344)}, geode::Popup<>::keyDown(cocos2d::enumKeyCodes))}
PUBLIC 24e20 0 cocos2d::CCKeyboardDelegate::keyUp(cocos2d::enumKeyCodes)
PUBLIC 24e24 0 cocos2d::CCMouseDelegate::rightKeyDown()
PUBLIC 24e28 0 cocos2d::CCMouseDelegate::rightKeyUp()
PUBLIC 24e2c 0 cocos2d::CCMouseDelegate::scrollWheel(float, float)
PUBLIC 24e30 0 {virtual override thunk({offset(-408)}, cocos2d::CCLayerRGBA::setOpacityModifyRGB(bool))}
PUBLIC 24e34 0 {virtual override thunk({offset(-408)}, cocos2d::CCLayerRGBA::isOpacityModifyRGB())}
PUBLIC 24e3c 0 geode::Popup<>::~Popup()
PUBLIC 24e40 0 {virtual override thunk({offset(-320)}, geode::Popup<>::~Popup())}
PUBLIC 24eac 0 {virtual override thunk({offset(-320)}, geode::Popup<>::~Popup())}
PUBLIC 24eb0 0 __clang_call_terminate
PUBLIC 24ec0 0 ToggleDifficultiesPopup::toggleDifficulty(cocos2d::CCObject*)
PUBLIC 25184 0 geode::Mod::getSavedValue<bool>(std::__ndk1::basic_string_view<char, std::__ndk1::char_traits<char> >)
PUBLIC 252f4 0 geode::impl::ResultData<matjson::Value&, std::__ndk1::basic_string<char, std::__ndk1::char_traits<char>, std::__ndk1::allocator<char> > >::~ResultData()
PUBLIC 25368 0 _ZN5geode15UnwrapExceptionC2IRNSt6__ndk112basic_stringIcNS2_11char_traitsIcEENS2_9allocatorIcEEEEQsr4implE18IsStringStreamableIT_EEENS_4impl6ErrTagEOSA_
PUBLIC 254d0 0 std::__ndk1::__throw_bad_variant_access[abi:ne180000]()
PUBLIC 25504 0 std::__ndk1::basic_stringstream<char, std::__ndk1::char_traits<char>, std::__ndk1::allocator<char> >::basic_stringstream[abi:ne180000]()
PUBLIC m 25630 0 std::__ndk1::basic_stringstream<char, std::__ndk1::char_traits<char>, std::__ndk1::allocator<char> >::~basic_stringstream()
PUBLIC 256b0 0 geode::UnwrapException::~UnwrapException()
PUBLIC 256d4 0 std::__ndk1::__put_character_sequence[abi:ne180000]<char, std::__ndk1::char_traits<char> >(std::__ndk1::basic_ostream<char, std::__ndk1::char_traits<char> >, std::__ndk1::basic_ostream const*, unsigned long)
PUBLIC 25878 0 std::__ndk1::__pad_and_output[abi:ne180000]<char, std::__ndk1::char_traits<char> >(std::__ndk1::char_traits<char>, std::__ndk1::ostreambuf_iterator const*, std::__ndk1::ostreambuf_iterator const, std::__ndk1::ostreambuf_iterator const, std::__ndk1::ios_base&, std::__ndk1::ostreambuf_iterator)
PUBLIC 25a54 0 std::__ndk1::basic_string<char, std::__ndk1::char_traits<char>, std::__ndk1::allocator<char> >::__throw_length_error[abi:ne180000]() const
PUBLIC 25a68 0 std::__ndk1::__throw_length_error[abi:ne180000](char const*)
PUBLIC 25ab8 0 std::length_error::length_error[abi:ne180000](char const*)
PUBLIC 25ae8 0 std::__ndk1::basic_stringbuf<char, std::__ndk1::char_traits<char>, std::__ndk1::allocator<char> >::str[abi:ne180000]() &&
PUBLIC 25c60 0 std::__ndk1::basic_stringbuf<char, std::__ndk1::char_traits<char>, std::__ndk1::allocator<char> >::__init_buf_ptrs[abi:ne180000]()
PUBLIC 25da8 0 std::__ndk1::basic_string<char, std::__ndk1::char_traits<char>, std::__ndk1::allocator<char> >::__init_copy_ctor_external(char const*, unsigned long)
PUBLIC 25e28 0 std::__ndk1::__variant_detail::__visitation::__base::__dispatcher<(unsigned long)0>::__dispatch[abi:ne180000]<std::__ndk1::__variant_detail::__dtor<std::__ndk1::__variant_detail::__traits<std::__ndk1::reference_wrapper<matjson::Value>, std::__ndk1::basic_string<char, std::__ndk1::char_traits<char>, std::__ndk1::allocator<char> > >, (std::__ndk1::__variant_detail::_Trait)1>::__destroy[abi:ne180000]()::{lambda(auto:1&)#1}, std::__ndk1::__variant_detail::__base<(std::__ndk1::__variant_detail::__traits<std::__ndk1::reference_wrapper<matjson::Value>, std::__ndk1::basic_string<char, std::__ndk1::char_traits<char>, std::__ndk1::allocator<char> > >)1, matjson::Value, std::__ndk1::allocator<char> >&>(std::__ndk1::__variant_detail::__dtor<std::__ndk1::__variant_detail::__traits<std::__ndk1::reference_wrapper<matjson::Value>, std::__ndk1::basic_string<char, std::__ndk1::char_traits<char>, std::__ndk1::allocator<char> > >, (std::__ndk1::__variant_detail::_Trait)1>, std::__ndk1::__variant_detail::__base<(std::__ndk1::__variant_detail::__traits<std::__ndk1::reference_wrapper<matjson::Value>, std::__ndk1::basic_string<char, std::__ndk1::char_traits<char>, std::__ndk1::allocator<char> > >)1, matjson::Value, std::__ndk1::allocator<char> >&)
PUBLIC 25e2c 0 std::__ndk1::__variant_detail::__visitation::__base::__dispatcher<(unsigned long)1>::__dispatch[abi:ne180000]<std::__ndk1::__variant_detail::__dtor<std::__ndk1::__variant_detail::__traits<std::__ndk1::reference_wrapper<matjson::Value>, std::__ndk1::basic_string<char, std::__ndk1::char_traits<char>, std::__ndk1::allocator<char> > >, (std::__ndk1::__variant_detail::_Trait)1>::__destroy[abi:ne180000]()::{lambda(auto:1&)#1}, std::__ndk1::__variant_detail::__base<(std::__ndk1::__variant_detail::__traits<std::__ndk1::reference_wrapper<matjson::Value>, std::__ndk1::basic_string<char, std::__ndk1::char_traits<char>, std::__ndk1::allocator<char> > >)1, matjson::Value, std::__ndk1::allocator<char> >&>(std::__ndk1::__variant_detail::__dtor<std::__ndk1::__variant_detail::__traits<std::__ndk1::reference_wrapper<matjson::Value>, std::__ndk1::basic_string<char, std::__ndk1::char_traits<char>, std::__ndk1::allocator<char> > >, (std::__ndk1::__variant_detail::_Trait)1>, std::__ndk1::__variant_detail::__base<(std::__ndk1::__variant_detail::__traits<std::__ndk1::reference_wrapper<matjson::Value>, std::__ndk1::basic_string<char, std::__ndk1::char_traits<char>, std::__ndk1::allocator<char> > >)1, matjson::Value, std::__ndk1::allocator<char> >&)
PUBLIC 25e40 0 std::__ndk1::__variant_detail::__visitation::__base::__dispatcher<(unsigned long)0>::__dispatch[abi:ne180000]<std::__ndk1::__variant_detail::__dtor<std::__ndk1::__variant_detail::__traits<bool, std::__ndk1::basic_string<char, std::__ndk1::char_traits<char>, std::__ndk1::allocator<char> > >, (std::__ndk1::__variant_detail::_Trait)1>::__destroy[abi:ne180000]()::{lambda(auto:1&)#1}, std::__ndk1::__variant_detail::__base<(std::__ndk1::__variant_detail::__traits<bool, std::__ndk1::basic_string<char, std::__ndk1::char_traits<char>, std::__ndk1::allocator<char> > >)1, bool, std::__ndk1::allocator<char> >&>(std::__ndk1::__variant_detail::__dtor<std::__ndk1::__variant_detail::__traits<bool, std::__ndk1::basic_string<char, std::__ndk1::char_traits<char>, std::__ndk1::allocator<char> > >, (std::__ndk1::__variant_detail::_Trait)1>, std::__ndk1::__variant_detail::__base<(std::__ndk1::__variant_detail::__traits<bool, std::__ndk1::basic_string<char, std::__ndk1::char_traits<char>, std::__ndk1::allocator<char> > >)1, bool, std::__ndk1::allocator<char> >&)
PUBLIC 25e44 0 std::__ndk1::__variant_detail::__visitation::__base::__dispatcher<(unsigned long)1>::__dispatch[abi:ne180000]<std::__ndk1::__variant_detail::__dtor<std::__ndk1::__variant_detail::__traits<bool, std::__ndk1::basic_string<char, std::__ndk1::char_traits<char>, std::__ndk1::allocator<char> > >, (std::__ndk1::__variant_detail::_Trait)1>::__destroy[abi:ne180000]()::{lambda(auto:1&)#1}, std::__ndk1::__variant_detail::__base<(std::__ndk1::__variant_detail::__traits<bool, std::__ndk1::basic_string<char, std::__ndk1::char_traits<char>, std::__ndk1::allocator<char> > >)1, bool, std::__ndk1::allocator<char> >&>(std::__ndk1::__variant_detail::__dtor<std::__ndk1::__variant_detail::__traits<bool, std::__ndk1::basic_string<char, std::__ndk1::char_traits<char>, std::__ndk1::allocator<char> > >, (std::__ndk1::__variant_detail::_Trait)1>, std::__ndk1::__variant_detail::__base<(std::__ndk1::__variant_detail::__traits<bool, std::__ndk1::basic_string<char, std::__ndk1::char_traits<char>, std::__ndk1::allocator<char> > >)1, bool, std::__ndk1::allocator<char> >&)
PUBLIC 25e58 0 geode::Popup<>::CloseEvent::~CloseEvent()
PUBLIC 25eb8 0 geode::Popup<>::CloseEvent::~CloseEvent()
PUBLIC 25f28 0 std::__ndk1::__shared_ptr_emplace<geode::Popup<>::CloseEvent::Impl, std::__ndk1::allocator<geode::Popup<>::CloseEvent::Impl> >::~__shared_ptr_emplace()
PUBLIC 25f38 0 std::__ndk1::__shared_ptr_emplace<geode::Popup<>::CloseEvent::Impl, std::__ndk1::allocator<geode::Popup<>::CloseEvent::Impl> >::~__shared_ptr_emplace()
PUBLIC 25f68 0 std::__ndk1::__shared_ptr_emplace<geode::Popup<>::CloseEvent::Impl, std::__ndk1::allocator<geode::Popup<>::CloseEvent::Impl> >::__on_zero_shared()
PUBLIC 25f6c 0 std::__ndk1::__shared_ptr_emplace<geode::Popup<>::CloseEvent::Impl, std::__ndk1::allocator<geode::Popup<>::CloseEvent::Impl> >::__on_zero_shared_weak()
PUBLIC 25f70 0 std::__ndk1::__throw_bad_weak_ptr[abi:ne180000]()
PUBLIC 25fa4 0 geode::impl::ResultData<void, std::__ndk1::basic_string<char, std::__ndk1::char_traits<char>, std::__ndk1::allocator<char> > >::~ResultData()
PUBLIC 26018 0 std::__ndk1::__function::__base<geode::Result<std::__ndk1::shared_ptr<geode::SettingV3>, std::__ndk1::basic_string<char, std::__ndk1::char_traits<char>, std::__ndk1::allocator<char> > >(std::__ndk1::basic_string<char, std::__ndk1::char_traits<char>, std::__ndk1::allocator<char> > const&, std::__ndk1::basic_string<char, std::__ndk1::char_traits<char>, std::__ndk1::allocator<char> > const&, matjson::Value const&)>::~__base()
PUBLIC 2601c 0 std::__ndk1::__function::__func<geodeExecFunction106<(anonymous namespace)::ExecFuncUnique106>()::{lambda(std::__ndk1::basic_string<char, std::__ndk1::char_traits<char>, std::__ndk1::allocator<char> > const&, std::__ndk1::basic_string<char, std::__ndk1::char_traits<char>, std::__ndk1::allocator<char> > const&, matjson::Value const&)#1}, std::__ndk1::allocator<geodeExecFunction106<(anonymous namespace)::ExecFuncUnique106>()::{lambda(std::__ndk1::basic_string<char, std::__ndk1::char_traits<char>, std::__ndk1::allocator<char> > const&, std::__ndk1::basic_string<char, std::__ndk1::char_traits<char>, std::__ndk1::allocator<char> > const&, matjson::Value const&)#1}>, geode::Result<std::__ndk1::shared_ptr<geode::SettingV3>, std::__ndk1::basic_string<char, std::__ndk1::char_traits<char>, std::__ndk1::allocator<char> > >(std::__ndk1::basic_string<char, std::__ndk1::char_traits<char>, std::__ndk1::allocator<char> > const&, std::__ndk1::basic_string<char, std::__ndk1::char_traits<char>, std::__ndk1::allocator<char> > const&, matjson::Value const&)>::~__func()
PUBLIC 26020 0 std::__ndk1::__function::__func<geodeExecFunction106<(anonymous namespace)::ExecFuncUnique106>()::{lambda(std::__ndk1::basic_string<char, std::__ndk1::char_traits<char>, std::__ndk1::allocator<char> > const&, std::__ndk1::basic_string<char, std::__ndk1::char_traits<char>, std::__ndk1::allocator<char> > const&, matjson::Value const&)#1}, std::__ndk1::allocator<geodeExecFunction106<(anonymous namespace)::ExecFuncUnique106>()::{lambda(std::__ndk1::basic_string<char, std::__ndk1::char_traits<char>, std::__ndk1::allocator<char> > const&, std::__ndk1::basic_string<char, std::__ndk1::char_traits<char>, std::__ndk1::allocator<char> > const&, matjson::Value const&)#1}>, geode::Result<std::__ndk1::shared_ptr<geode::SettingV3>, std::__ndk1::basic_string<char, std::__ndk1::char_traits<char>, std::__ndk1::allocator<char> > >(std::__ndk1::basic_string<char, std::__ndk1::char_traits<char>, std::__ndk1::allocator<char> > const&, std::__ndk1::basic_string<char, std::__ndk1::char_traits<char>, std::__ndk1::allocator<char> > const&, matjson::Value const&)>::__clone() const
PUBLIC 26044 0 std::__ndk1::__function::__func<geodeExecFunction106<(anonymous namespace)::ExecFuncUnique106>()::{lambda(std::__ndk1::basic_string<char, std::__ndk1::char_traits<char>, std::__ndk1::allocator<char> > const&, std::__ndk1::basic_string<char, std::__ndk1::char_traits<char>, std::__ndk1::allocator<char> > const&, matjson::Value const&)#1}, std::__ndk1::allocator<geodeExecFunction106<(anonymous namespace)::ExecFuncUnique106>()::{lambda(std::__ndk1::basic_string<char, std::__ndk1::char_traits<char>, std::__ndk1::allocator<char> > const&, std::__ndk1::basic_string<char, std::__ndk1::char_traits<char>, std::__ndk1::allocator<char> > const&, matjson::Value const&)#1}>, geode::Result<std::__ndk1::shared_ptr<geode::SettingV3>, std::__ndk1::basic_string<char, std::__ndk1::char_traits<char>, std::__ndk1::allocator<char> > >(std::__ndk1::basic_string<char, std::__ndk1::char_traits<char>, std::__ndk1::allocator<char> > const&, std::__ndk1::basic_string<char, std::__ndk1::char_traits<char>, std::__ndk1::allocator<char> > const&, matjson::Value const&)>::__clone(std::__ndk1::__function::__base<geode::Result<std::__ndk1::shared_ptr<geode::SettingV3>, std::__ndk1::basic_string<char, std::__ndk1::char_traits<char>, std::__ndk1::allocator<char> > >(std::__ndk1::basic_string<char, std::__ndk1::char_traits<char>, std::__ndk1::allocator<char> > const&, std::__ndk1::basic_string<char, std::__ndk1::char_traits<char>, std::__ndk1::allocator<char> > const&, matjson::Value const&)>*) const
PUBLIC 26054 0 std::__ndk1::__function::__func<geodeExecFunction106<(anonymous namespace)::ExecFuncUnique106>()::{lambda(std::__ndk1::basic_string<char, std::__ndk1::char_traits<char>, std::__ndk1::allocator<char> > const&, std::__ndk1::basic_string<char, std::__ndk1::char_traits<char>, std::__ndk1::allocator<char> > const&, matjson::Value const&)#1}, std::__ndk1::allocator<geodeExecFunction106<(anonymous namespace)::ExecFuncUnique106>()::{lambda(std::__ndk1::basic_string<char, std::__ndk1::char_traits<char>, std::__ndk1::allocator<char> > const&, std::__ndk1::basic_string<char, std::__ndk1::char_traits<char>, std::__ndk1::allocator<char> > const&, matjson::Value const&)#1}>, geode::Result<std::__ndk1::shared_ptr<geode::SettingV3>, std::__ndk1::basic_string<char, std::__ndk1::char_traits<char>, std::__ndk1::allocator<char> > >(std::__ndk1::basic_string<char, std::__ndk1::char_traits<char>, std::__ndk1::allocator<char> > const&, std::__ndk1::basic_string<char, std::__ndk1::char_traits<char>, std::__ndk1::allocator<char> > const&, matjson::Value const&)>::destroy()
PUBLIC 26058 0 std::__ndk1::__function::__func<geodeExecFunction106<(anonymous namespace)::ExecFuncUnique106>()::{lambda(std::__ndk1::basic_string<char, std::__ndk1::char_traits<char>, std::__ndk1::allocator<char> > const&, std::__ndk1::basic_string<char, std::__ndk1::char_traits<char>, std::__ndk1::allocator<char> > const&, matjson::Value const&)#1}, std::__ndk1::allocator<geodeExecFunction106<(anonymous namespace)::ExecFuncUnique106>()::{lambda(std::__ndk1::basic_string<char, std::__ndk1::char_traits<char>, std::__ndk1::allocator<char> > const&, std::__ndk1::basic_string<char, std::__ndk1::char_traits<char>, std::__ndk1::allocator<char> > const&, matjson::Value const&)#1}>, geode::Result<std::__ndk1::shared_ptr<geode::SettingV3>, std::__ndk1::basic_string<char, std::__ndk1::char_traits<char>, std::__ndk1::allocator<char> > >(std::__ndk1::basic_string<char, std::__ndk1::char_traits<char>, std::__ndk1::allocator<char> > const&, std::__ndk1::basic_string<char, std::__ndk1::char_traits<char>, std::__ndk1::allocator<char> > const&, matjson::Value const&)>::destroy_deallocate()
PUBLIC 2605c 0 std::__ndk1::__function::__func<geodeExecFunction106<(anonymous namespace)::ExecFuncUnique106>()::{lambda(std::__ndk1::basic_string<char, std::__ndk1::char_traits<char>, std::__ndk1::allocator<char> > const&, std::__ndk1::basic_string<char, std::__ndk1::char_traits<char>, std::__ndk1::allocator<char> > const&, matjson::Value const&)#1}, std::__ndk1::allocator<geodeExecFunction106<(anonymous namespace)::ExecFuncUnique106>()::{lambda(std::__ndk1::basic_string<char, std::__ndk1::char_traits<char>, std::__ndk1::allocator<char> > const&, std::__ndk1::basic_string<char, std::__ndk1::char_traits<char>, std::__ndk1::allocator<char> > const&, matjson::Value const&)#1}>, geode::Result<std::__ndk1::shared_ptr<geode::SettingV3>, std::__ndk1::basic_string<char, std::__ndk1::char_traits<char>, std::__ndk1::allocator<char> > >(std::__ndk1::basic_string<char, std::__ndk1::char_traits<char>, std::__ndk1::allocator<char> > const&, std::__ndk1::basic_string<char, std::__ndk1::char_traits<char>, std::__ndk1::allocator<char> > const&, matjson::Value const&)>::operator()(std::__ndk1::basic_string<char, std::__ndk1::char_traits<char>, std::__ndk1::allocator<char> > const&, std::__ndk1::basic_string<char, std::__ndk1::char_traits<char>, std::__ndk1::allocator<char> > const&, matjson::Value const&)
PUBLIC 26518 0 std::__ndk1::__function::__func<geodeExecFunction106<(anonymous namespace)::ExecFuncUnique106>()::{lambda(std::__ndk1::basic_string<char, std::__ndk1::char_traits<char>, std::__ndk1::allocator<char> > const&, std::__ndk1::basic_string<char, std::__ndk1::char_traits<char>, std::__ndk1::allocator<char> > const&, matjson::Value const&)#1}, std::__ndk1::allocator<geodeExecFunction106<(anonymous namespace)::ExecFuncUnique106>()::{lambda(std::__ndk1::basic_string<char, std::__ndk1::char_traits<char>, std::__ndk1::allocator<char> > const&, std::__ndk1::basic_string<char, std::__ndk1::char_traits<char>, std::__ndk1::allocator<char> > const&, matjson::Value const&)#1}>, geode::Result<std::__ndk1::shared_ptr<geode::SettingV3>, std::__ndk1::basic_string<char, std::__ndk1::char_traits<char>, std::__ndk1::allocator<char> > >(std::__ndk1::basic_string<char, std::__ndk1::char_traits<char>, std::__ndk1::allocator<char> > const&, std::__ndk1::basic_string<char, std::__ndk1::char_traits<char>, std::__ndk1::allocator<char> > const&, matjson::Value const&)>::target(std::type_info const&) const
PUBLIC 26534 0 std::__ndk1::__function::__func<geodeExecFunction106<(anonymous namespace)::ExecFuncUnique106>()::{lambda(std::__ndk1::basic_string<char, std::__ndk1::char_traits<char>, std::__ndk1::allocator<char> > const&, std::__ndk1::basic_string<char, std::__ndk1::char_traits<char>, std::__ndk1::allocator<char> > const&, matjson::Value const&)#1}, std::__ndk1::allocator<geodeExecFunction106<(anonymous namespace)::ExecFuncUnique106>()::{lambda(std::__ndk1::basic_string<char, std::__ndk1::char_traits<char>, std::__ndk1::allocator<char> > const&, std::__ndk1::basic_string<char, std::__ndk1::char_traits<char>, std::__ndk1::allocator<char> > const&, matjson::Value const&)#1}>, geode::Result<std::__ndk1::shared_ptr<geode::SettingV3>, std::__ndk1::basic_string<char, std::__ndk1::char_traits<char>, std::__ndk1::allocator<char> > >(std::__ndk1::basic_string<char, std::__ndk1::char_traits<char>, std::__ndk1::allocator<char> > const&, std::__ndk1::basic_string<char, std::__ndk1::char_traits<char>, std::__ndk1::allocator<char> > const&, matjson::Value const&)>::target_type() const
PUBLIC 26540 0 geode::impl::ResultData<std::__ndk1::shared_ptr<ToggleDifficultiesNode>, std::__ndk1::basic_string<char, std::__ndk1::char_traits<char>, std::__ndk1::allocator<char> > >::~ResultData()
PUBLIC 265b4 0 std::__ndk1::__shared_ptr_emplace<ToggleDifficultiesNode, std::__ndk1::allocator<ToggleDifficultiesNode> >::~__shared_ptr_emplace()
PUBLIC 265c4 0 std::__ndk1::__shared_ptr_emplace<ToggleDifficultiesNode, std::__ndk1::allocator<ToggleDifficultiesNode> >::~__shared_ptr_emplace()
PUBLIC 265f4 0 std::__ndk1::__shared_ptr_emplace<ToggleDifficultiesNode, std::__ndk1::allocator<ToggleDifficultiesNode> >::__on_zero_shared()
PUBLIC 26600 0 std::__ndk1::__shared_ptr_emplace<ToggleDifficultiesNode, std::__ndk1::allocator<ToggleDifficultiesNode> >::__on_zero_shared_weak()
PUBLIC 26604 0 std::__ndk1::__variant_detail::__visitation::__base::__dispatcher<(unsigned long)0>::__dispatch[abi:ne180000]<std::__ndk1::__variant_detail::__dtor<std::__ndk1::__variant_detail::__traits<std::__ndk1::shared_ptr<ToggleDifficultiesNode>, std::__ndk1::basic_string<char, std::__ndk1::char_traits<char>, std::__ndk1::allocator<char> > >, (std::__ndk1::__variant_detail::_Trait)1>::__destroy[abi:ne180000]()::{lambda(auto:1&)#1}, std::__ndk1::__variant_detail::__base<(std::__ndk1::__variant_detail::__traits<std::__ndk1::shared_ptr<ToggleDifficultiesNode>, std::__ndk1::basic_string<char, std::__ndk1::char_traits<char>, std::__ndk1::allocator<char> > >)1, ToggleDifficultiesNode, std::__ndk1::allocator<char> >&>(std::__ndk1::__variant_detail::__dtor<std::__ndk1::__variant_detail::__traits<std::__ndk1::shared_ptr<ToggleDifficultiesNode>, std::__ndk1::basic_string<char, std::__ndk1::char_traits<char>, std::__ndk1::allocator<char> > >, (std::__ndk1::__variant_detail::_Trait)1>, std::__ndk1::__variant_detail::__base<(std::__ndk1::__variant_detail::__traits<std::__ndk1::shared_ptr<ToggleDifficultiesNode>, std::__ndk1::basic_string<char, std::__ndk1::char_traits<char>, std::__ndk1::allocator<char> > >)1, ToggleDifficultiesNode, std::__ndk1::allocator<char> >&)
PUBLIC 26654 0 std::__ndk1::__variant_detail::__visitation::__base::__dispatcher<(unsigned long)1>::__dispatch[abi:ne180000]<std::__ndk1::__variant_detail::__dtor<std::__ndk1::__variant_detail::__traits<std::__ndk1::shared_ptr<ToggleDifficultiesNode>, std::__ndk1::basic_string<char, std::__ndk1::char_traits<char>, std::__ndk1::allocator<char> > >, (std::__ndk1::__variant_detail::_Trait)1>::__destroy[abi:ne180000]()::{lambda(auto:1&)#1}, std::__ndk1::__variant_detail::__base<(std::__ndk1::__variant_detail::__traits<std::__ndk1::shared_ptr<ToggleDifficultiesNode>, std::__ndk1::basic_string<char, std::__ndk1::char_traits<char>, std::__ndk1::allocator<char> > >)1, ToggleDifficultiesNode, std::__ndk1::allocator<char> >&>(std::__ndk1::__variant_detail::__dtor<std::__ndk1::__variant_detail::__traits<std::__ndk1::shared_ptr<ToggleDifficultiesNode>, std::__ndk1::basic_string<char, std::__ndk1::char_traits<char>, std::__ndk1::allocator<char> > >, (std::__ndk1::__variant_detail::_Trait)1>, std::__ndk1::__variant_detail::__base<(std::__ndk1::__variant_detail::__traits<std::__ndk1::shared_ptr<ToggleDifficultiesNode>, std::__ndk1::basic_string<char, std::__ndk1::char_traits<char>, std::__ndk1::allocator<char> > >)1, ToggleDifficultiesNode, std::__ndk1::allocator<char> >&)
PUBLIC 26668 0 std::__ndk1::__variant_detail::__visitation::__base::__dispatcher<(unsigned long)0>::__dispatch[abi:ne180000]<std::__ndk1::__variant_detail::__dtor<std::__ndk1::__variant_detail::__traits<std::__ndk1::monostate, std::__ndk1::basic_string<char, std::__ndk1::char_traits<char>, std::__ndk1::allocator<char> > >, (std::__ndk1::__variant_detail::_Trait)1>::__destroy[abi:ne180000]()::{lambda(auto:1&)#1}, std::__ndk1::__variant_detail::__base<(std::__ndk1::__variant_detail::__traits<std::__ndk1::monostate, std::__ndk1::basic_string<char, std::__ndk1::char_traits<char>, std::__ndk1::allocator<char> > >)1, std::__ndk1::__variant_detail::__traits, std::__ndk1::allocator<char> >&>(std::__ndk1::__variant_detail::__dtor<std::__ndk1::__variant_detail::__traits<std::__ndk1::monostate, std::__ndk1::basic_string<char, std::__ndk1::char_traits<char>, std::__ndk1::allocator<char> > >, (std::__ndk1::__variant_detail::_Trait)1>, std::__ndk1::__variant_detail::__base<(std::__ndk1::__variant_detail::__traits<std::__ndk1::monostate, std::__ndk1::basic_string<char, std::__ndk1::char_traits<char>, std::__ndk1::allocator<char> > >)1, std::__ndk1::__variant_detail::__traits, std::__ndk1::allocator<char> >&)
PUBLIC 2666c 0 std::__ndk1::__variant_detail::__visitation::__base::__dispatcher<(unsigned long)1>::__dispatch[abi:ne180000]<std::__ndk1::__variant_detail::__dtor<std::__ndk1::__variant_detail::__traits<std::__ndk1::monostate, std::__ndk1::basic_string<char, std::__ndk1::char_traits<char>, std::__ndk1::allocator<char> > >, (std::__ndk1::__variant_detail::_Trait)1>::__destroy[abi:ne180000]()::{lambda(auto:1&)#1}, std::__ndk1::__variant_detail::__base<(std::__ndk1::__variant_detail::__traits<std::__ndk1::monostate, std::__ndk1::basic_string<char, std::__ndk1::char_traits<char>, std::__ndk1::allocator<char> > >)1, std::__ndk1::__variant_detail::__traits, std::__ndk1::allocator<char> >&>(std::__ndk1::__variant_detail::__dtor<std::__ndk1::__variant_detail::__traits<std::__ndk1::monostate, std::__ndk1::basic_string<char, std::__ndk1::char_traits<char>, std::__ndk1::allocator<char> > >, (std::__ndk1::__variant_detail::_Trait)1>, std::__ndk1::__variant_detail::__base<(std::__ndk1::__variant_detail::__traits<std::__ndk1::monostate, std::__ndk1::basic_string<char, std::__ndk1::char_traits<char>, std::__ndk1::allocator<char> > >)1, std::__ndk1::__variant_detail::__traits, std::__ndk1::allocator<char> >&)
PUBLIC 26680 0 geode::Mod::getSavedValue<bool>(std::__ndk1::basic_string_view<char, std::__ndk1::char_traits<char> >, bool const&)
PUBLIC 2686c 0 geode::EventListener<geode::ModStateFilter>::getPool() const
PUBLIC 26870 0 geode::EventListener<geode::ModStateFilter>::handle(geode::Event*)
PUBLIC 269e4 0 geode::EventListener<geode::ModStateFilter>::~EventListener()
PUBLIC 26a40 0 geode::EventListener<geode::ModStateFilter>::~EventListener()
PUBLIC 26aa4 0 std::__ndk1::__function::__base<void (geode::ModStateEvent*)>::~__base()
PUBLIC 26aa8 0 std::__ndk1::__function::__func<void (*)(geode::ModStateEvent*), std::__ndk1::allocator<void (*)(geode::ModStateEvent*)>, void (geode::ModStateEvent*)>::~__func()
PUBLIC 26aac 0 std::__ndk1::__function::__func<void (*)(geode::ModStateEvent*), std::__ndk1::allocator<void (*)(geode::ModStateEvent*)>, void (geode::ModStateEvent*)>::__clone() const
PUBLIC 26ae0 0 std::__ndk1::__function::__func<void (*)(geode::ModStateEvent*), std::__ndk1::allocator<void (*)(geode::ModStateEvent*)>, void (geode::ModStateEvent*)>::__clone(std::__ndk1::__function::__base<void (geode::ModStateEvent*)>*) const
PUBLIC 26af4 0 std::__ndk1::__function::__func<void (*)(geode::ModStateEvent*), std::__ndk1::allocator<void (*)(geode::ModStateEvent*)>, void (geode::ModStateEvent*)>::destroy()
PUBLIC 26af8 0 std::__ndk1::__function::__func<void (*)(geode::ModStateEvent*), std::__ndk1::allocator<void (*)(geode::ModStateEvent*)>, void (geode::ModStateEvent*)>::destroy_deallocate()
PUBLIC 26afc 0 std::__ndk1::__function::__func<void (*)(geode::ModStateEvent*), std::__ndk1::allocator<void (*)(geode::ModStateEvent*)>, void (geode::ModStateEvent*)>::operator()(geode::ModStateEvent*&&)
PUBLIC 26b0c 0 std::__ndk1::__function::__func<void (*)(geode::ModStateEvent*), std::__ndk1::allocator<void (*)(geode::ModStateEvent*)>, void (geode::ModStateEvent*)>::target(std::type_info const&) const
PUBLIC 26b28 0 std::__ndk1::__function::__func<void (*)(geode::ModStateEvent*), std::__ndk1::allocator<void (*)(geode::ModStateEvent*)>, void (geode::ModStateEvent*)>::target_type() const
PUBLIC 26b34 0 geode::cast::traverseTypeinfoFor(void*, geode::cast::ClassTypeinfoType const*, char const*)
PUBLIC 26c38 0 _GLOBAL__sub_I_main.cpp
PUBLIC 26e3c 0 __cxx_global_var_init
PUBLIC 275e4 0 geode::modifier::ModifyBase<geode::modifier::ModifyDerive<hook8<(anonymous namespace)::hook8Parent>, LevelPage> >::~ModifyBase()
PUBLIC 27600 0 geode::modifier::ModifyDerive<hook8<(anonymous namespace)::hook8Parent>, LevelPage>::apply()
PUBLIC 27988 0 std::__ndk1::shared_ptr<geode::Hook>::~shared_ptr[abi:ne180000]()
PUBLIC 279d8 0 geode::impl::ResultData<geode::Hook*, std::__ndk1::basic_string<char, std::__ndk1::char_traits<char>, std::__ndk1::allocator<char> > >::~ResultData()
PUBLIC 27a4c 0 std::__ndk1::vector<std::__ndk1::basic_string<char, std::__ndk1::char_traits<char>, std::__ndk1::allocator<char> >, std::__ndk1::allocator<std::__ndk1::basic_string<char, std::__ndk1::char_traits<char>, std::__ndk1::allocator<char> > > >::~vector[abi:ne180000]()
PUBLIC 27ac8 0 geode::modifier::ModifyBase<geode::modifier::ModifyDerive<hook8<(anonymous namespace)::hook8Parent>, LevelPage> >::apply()
PUBLIC 27acc 0 std::__throw_bad_array_new_length([abi:ne180000], void)
PUBLIC 27b00 0 std::__ndk1::__tree<std::__ndk1::__value_type<std::__ndk1::basic_string<char, std::__ndk1::char_traits<char>, std::__ndk1::allocator<char> >, std::__ndk1::shared_ptr<geode::Hook> >, std::__ndk1::__map_value_compare<std::__ndk1::basic_string<char, std::__ndk1::char_traits<char>, std::__ndk1::allocator<char> >, std::__ndk1::__value_type<std::__ndk1::basic_string<char, std::__ndk1::char_traits<char>, std::__ndk1::allocator<char> >, std::__ndk1::shared_ptr<geode::Hook> >, std::__ndk1::less<std::__ndk1::basic_string<char, std::__ndk1::char_traits<char>, std::__ndk1::allocator<char> > >, true>, std::__ndk1::allocator<std::__ndk1::__value_type<std::__ndk1::basic_string<char, std::__ndk1::char_traits<char>, std::__ndk1::allocator<char> >, std::__ndk1::shared_ptr<geode::Hook> > > >::find<std::__ndk1::basic_string<char, std::__ndk1::char_traits<char>, std::__ndk1::allocator<char> > >(std::__ndk1::basic_string<char, std::__ndk1::char_traits<char>, std::__ndk1::allocator<char> > const&)
PUBLIC 27c20 0 std::__ndk1::unique_ptr<std::__ndk1::__tree_node<std::__ndk1::__value_type<std::__ndk1::basic_string<char, std::__ndk1::char_traits<char>, std::__ndk1::allocator<char> >, std::__ndk1::shared_ptr<geode::Hook> >, void*>, std::__ndk1::__tree_node_destructor<std::__ndk1::allocator<std::__ndk1::__tree_node<std::__ndk1::__value_type<std::__ndk1::basic_string<char, std::__ndk1::char_traits<char>, std::__ndk1::allocator<char> >, std::__ndk1::shared_ptr<geode::Hook> >, void*> > > >::~unique_ptr[abi:ne180000]()
PUBLIC 27c9c 0 std::__ndk1::__tree_balance_after_insert[abi:ne180000]<std::__ndk1::__tree_node_base<void*>*>(std::__ndk1::__tree_node_base<void*>*, std::__ndk1::__tree_node_base<void*>*)
PUBLIC 27e4c 0 _ZN5geode15UnwrapExceptionC2IRPNS_4HookEQsr4implE18IsStringStreamableIT_EEENS_4impl5OkTagEOS5_
PUBLIC 27fa0 0 std::__ndk1::vector<std::__ndk1::basic_string<char, std::__ndk1::char_traits<char>, std::__ndk1::allocator<char> >, std::__ndk1::allocator<std::__ndk1::basic_string<char, std::__ndk1::char_traits<char>, std::__ndk1::allocator<char> > > >::__push_back_slow_path<std::__ndk1::basic_string<char, std::__ndk1::char_traits<char>, std::__ndk1::allocator<char> > const&>(std::__ndk1::basic_string<char, std::__ndk1::char_traits<char>, std::__ndk1::allocator<char> > const&)
PUBLIC 281c8 0 std::__ndk1::__split_buffer<std::__ndk1::basic_string<char, std::__ndk1::char_traits<char>, std::__ndk1::allocator<char> >, std::__ndk1::allocator<std::__ndk1::basic_string<char, std::__ndk1::char_traits<char>, std::__ndk1::allocator<char> > >&>::~__split_buffer()
PUBLIC 28230 0 std::__ndk1::vector<std::__ndk1::basic_string<char, std::__ndk1::char_traits<char>, std::__ndk1::allocator<char> >, std::__ndk1::allocator<std::__ndk1::basic_string<char, std::__ndk1::char_traits<char>, std::__ndk1::allocator<char> > > >::__throw_length_error[abi:ne180000]() const
PUBLIC 28244 0 std::__ndk1::__variant_detail::__visitation::__base::__dispatcher<(unsigned long)0>::__dispatch[abi:ne180000]<std::__ndk1::__variant_detail::__dtor<std::__ndk1::__variant_detail::__traits<geode::Hook*, std::__ndk1::basic_string<char, std::__ndk1::char_traits<char>, std::__ndk1::allocator<char> > >, (std::__ndk1::__variant_detail::_Trait)1>::__destroy[abi:ne180000]()::{lambda(auto:1&)#1}, std::__ndk1::__variant_detail::__base<(std::__ndk1::__variant_detail::__traits<geode::Hook*, std::__ndk1::basic_string<char, std::__ndk1::char_traits<char>, std::__ndk1::allocator<char> > >)1, geode::Hook, std::__ndk1::allocator<char> >&>(std::__ndk1::__variant_detail::__dtor<std::__ndk1::__variant_detail::__traits<geode::Hook*, std::__ndk1::basic_string<char, std::__ndk1::char_traits<char>, std::__ndk1::allocator<char> > >, (std::__ndk1::__variant_detail::_Trait)1>, std::__ndk1::__variant_detail::__base<(std::__ndk1::__variant_detail::__traits<geode::Hook*, std::__ndk1::basic_string<char, std::__ndk1::char_traits<char>, std::__ndk1::allocator<char> > >)1, geode::Hook, std::__ndk1::allocator<char> >&)
PUBLIC 28248 0 std::__ndk1::__variant_detail::__visitation::__base::__dispatcher<(unsigned long)1>::__dispatch[abi:ne180000]<std::__ndk1::__variant_detail::__dtor<std::__ndk1::__variant_detail::__traits<geode::Hook*, std::__ndk1::basic_string<char, std::__ndk1::char_traits<char>, std::__ndk1::allocator<char> > >, (std::__ndk1::__variant_detail::_Trait)1>::__destroy[abi:ne180000]()::{lambda(auto:1&)#1}, std::__ndk1::__variant_detail::__base<(std::__ndk1::__variant_detail::__traits<geode::Hook*, std::__ndk1::basic_string<char, std::__ndk1::char_traits<char>, std::__ndk1::allocator<char> > >)1, geode::Hook, std::__ndk1::allocator<char> >&>(std::__ndk1::__variant_detail::__dtor<std::__ndk1::__variant_detail::__traits<geode::Hook*, std::__ndk1::basic_string<char, std::__ndk1::char_traits<char>, std::__ndk1::allocator<char> > >, (std::__ndk1::__variant_detail::_Trait)1>, std::__ndk1::__variant_detail::__base<(std::__ndk1::__variant_detail::__traits<geode::Hook*, std::__ndk1::basic_string<char, std::__ndk1::char_traits<char>, std::__ndk1::allocator<char> > >)1, geode::Hook, std::__ndk1::allocator<char> >&)
PUBLIC 2825c 0 std::__ndk1::__tree<std::__ndk1::__value_type<std::__ndk1::basic_string<char, std::__ndk1::char_traits<char>, std::__ndk1::allocator<char> >, std::__ndk1::shared_ptr<geode::Hook> >, std::__ndk1::__map_value_compare<std::__ndk1::basic_string<char, std::__ndk1::char_traits<char>, std::__ndk1::allocator<char> >, std::__ndk1::__value_type<std::__ndk1::basic_string<char, std::__ndk1::char_traits<char>, std::__ndk1::allocator<char> >, std::__ndk1::shared_ptr<geode::Hook> >, std::__ndk1::less<std::__ndk1::basic_string<char, std::__ndk1::char_traits<char>, std::__ndk1::allocator<char> > >, true>, std::__ndk1::allocator<std::__ndk1::__value_type<std::__ndk1::basic_string<char, std::__ndk1::char_traits<char>, std::__ndk1::allocator<char> >, std::__ndk1::shared_ptr<geode::Hook> > > >::erase(std::__ndk1::__tree_const_iterator<std::__ndk1::__value_type<std::__ndk1::basic_string<char, std::__ndk1::char_traits<char>, std::__ndk1::allocator<char> >, std::__ndk1::shared_ptr<geode::Hook> >, std::__ndk1::__tree_node<std::__ndk1::__value_type<std::__ndk1::basic_string<char, std::__ndk1::char_traits<char>, std::__ndk1::allocator<char> >, std::__ndk1::shared_ptr<geode::Hook> >, void*>*, long>)
PUBLIC 28330 0 std::__ndk1::__tree_remove[abi:ne180000]<std::__ndk1::__tree_node_base<void*>*>(std::__ndk1::__tree_node_base<void*>*, std::__ndk1::__tree_node_base<void*>*)
PUBLIC 286f8 0 std::__ndk1::__tree<std::__ndk1::__value_type<std::__ndk1::basic_string<char, std::__ndk1::char_traits<char>, std::__ndk1::allocator<char> >, std::__ndk1::shared_ptr<geode::Hook> >, std::__ndk1::__map_value_compare<std::__ndk1::basic_string<char, std::__ndk1::char_traits<char>, std::__ndk1::allocator<char> >, std::__ndk1::__value_type<std::__ndk1::basic_string<char, std::__ndk1::char_traits<char>, std::__ndk1::allocator<char> >, std::__ndk1::shared_ptr<geode::Hook> >, std::__ndk1::less<std::__ndk1::basic_string<char, std::__ndk1::char_traits<char>, std::__ndk1::allocator<char> > >, true>, std::__ndk1::allocator<std::__ndk1::__value_type<std::__ndk1::basic_string<char, std::__ndk1::char_traits<char>, std::__ndk1::allocator<char> >, std::__ndk1::shared_ptr<geode::Hook> > > >::destroy(std::__ndk1::__tree_node<std::__ndk1::__value_type<std::__ndk1::basic_string<char, std::__ndk1::char_traits<char>, std::__ndk1::allocator<char> >, std::__ndk1::shared_ptr<geode::Hook> >, void*>*)
PUBLIC 28784 0 geode::modifier::AsStaticFunction_updateDynamicPage<hook8<(anonymous namespace)::hook8Parent>, void (hook8<(anonymous namespace)::hook8Parent>::*)(GJGameLevel*)>::Impl<void (hook8<(anonymous namespace)::hook8Parent>::*)(GJGameLevel*)>::function(hook8<(anonymous namespace)::hook8Parent>*, GJGameLevel*)
PUBLIC 28a9c 0 std::__ndk1::shared_ptr<tulip::hook::CallingConvention>::~shared_ptr[abi:ne180000]()
PUBLIC 28aec 0 tulip::hook::HandlerMetadata::~HandlerMetadata()
PUBLIC 28b50 0 geode::Mod::getSettingValue<bool>(std::__ndk1::basic_string_view<char, std::__ndk1::char_traits<char> >) const
PUBLIC 28c84 0 std::__ndk1::__tree<std::__ndk1::__value_type<std::__ndk1::basic_string<char, std::__ndk1::char_traits<char>, std::__ndk1::allocator<char> >, std::__ndk1::shared_ptr<geode::Hook> >, std::__ndk1::__map_value_compare<std::__ndk1::basic_string<char, std::__ndk1::char_traits<char>, std::__ndk1::allocator<char> >, std::__ndk1::__value_type<std::__ndk1::basic_string<char, std::__ndk1::char_traits<char>, std::__ndk1::allocator<char> >, std::__ndk1::shared_ptr<geode::Hook> >, std::__ndk1::less<std::__ndk1::basic_string<char, std::__ndk1::char_traits<char>, std::__ndk1::allocator<char> > >, true>, std::__ndk1::allocator<std::__ndk1::__value_type<std::__ndk1::basic_string<char, std::__ndk1::char_traits<char>, std::__ndk1::allocator<char> >, std::__ndk1::shared_ptr<geode::Hook> > > >::__emplace_unique_key_args<std::__ndk1::basic_string<char, std::__ndk1::char_traits<char>, std::__ndk1::allocator<char> >, std::__ndk1::piecewise_construct_t const&, std::__ndk1::tuple<std::__ndk1::basic_string<char, std::__ndk1::char_traits<char>, std::__ndk1::allocator<char> >&&>, std::__ndk1::tuple<> >(std::__ndk1::basic_string<char, std::__ndk1::char_traits<char>, std::__ndk1::allocator<char> > const&, std::__ndk1::piecewise_construct_t const&, std::__ndk1::tuple<std::__ndk1::basic_string<char, std::__ndk1::char_traits<char>, std::__ndk1::allocator<char> >&&>, std::__ndk1::tuple<>)
PUBLIC 28dfc 0 __cxx_global_var_init
PUBLIC 29238 0 geode::modifier::ModifyBase<geode::modifier::ModifyDerive<hook9<(anonymous namespace)::hook9Parent>, LevelCell> >::~ModifyBase()
PUBLIC 29254 0 geode::modifier::ModifyDerive<hook9<(anonymous namespace)::hook9Parent>, LevelCell>::apply()
PUBLIC 295d4 0 geode::modifier::ModifyBase<geode::modifier::ModifyDerive<hook9<(anonymous namespace)::hook9Parent>, LevelCell> >::apply()
PUBLIC 295d8 0 geode::modifier::AsStaticFunction_loadFromLevel<hook9<(anonymous namespace)::hook9Parent>, void (hook9<(anonymous namespace)::hook9Parent>::*)(GJGameLevel*)>::Impl<void (hook9<(anonymous namespace)::hook9Parent>::*)(GJGameLevel*)>::function(hook9<(anonymous namespace)::hook9Parent>*, GJGameLevel*)
PUBLIC 2995c 0 __cxx_global_var_init
PUBLIC 29d98 0 geode::modifier::ModifyBase<geode::modifier::ModifyDerive<hook9<(anonymous namespace)::hook9Parent>, LevelInfoLayer> >::~ModifyBase()
PUBLIC 29db4 0 geode::modifier::ModifyDerive<hook9<(anonymous namespace)::hook9Parent>, LevelInfoLayer>::apply()
PUBLIC 2a164 0 geode::modifier::ModifyBase<geode::modifier::ModifyDerive<hook9<(anonymous namespace)::hook9Parent>, LevelInfoLayer> >::apply()
PUBLIC 2a168 0 geode::modifier::AsStaticFunction_init<hook9<(anonymous namespace)::hook9Parent>, bool (hook9<(anonymous namespace)::hook9Parent>::*)(GJGameLevel*, bool)>::Impl<bool (hook9<(anonymous namespace)::hook9Parent>::*)(GJGameLevel*, bool)>::function(hook9<(anonymous namespace)::hook9Parent>*, GJGameLevel*, bool)
PUBLIC 2a4c8 0 __cxx_global_var_init
PUBLIC 2a904 0 geode::modifier::ModifyBase<geode::modifier::ModifyDerive<hook8<(anonymous namespace)::hook8Parent>, RateStarsLayer> >::~ModifyBase()
PUBLIC 2a920 0 geode::modifier::ModifyDerive<hook8<(anonymous namespace)::hook8Parent>, RateStarsLayer>::apply()
PUBLIC 2aca8 0 geode::modifier::ModifyBase<geode::modifier::ModifyDerive<hook8<(anonymous namespace)::hook8Parent>, RateStarsLayer> >::apply()
PUBLIC 2acac 0 geode::modifier::AsStaticFunction_selectRating<hook8<(anonymous namespace)::hook8Parent>, void (hook8<(anonymous namespace)::hook8Parent>::*)(cocos2d::CCObject*)>::Impl<void (hook8<(anonymous namespace)::hook8Parent>::*)(cocos2d::CCObject*)>::function(hook8<(anonymous namespace)::hook8Parent>*, cocos2d::CCObject*)
PUBLIC 2b458 0 __cxx_global_var_init
PUBLIC 2b894 0 geode::modifier::ModifyBase<geode::modifier::ModifyDerive<hook11<(anonymous namespace)::hook11Parent>, InfoLayer> >::~ModifyBase()
PUBLIC 2b8b0 0 __cxx_global_var_init.1
PUBLIC 2bd30 0 geode::modifier::ModifyBase<geode::modifier::ModifyDerive<ExtendedLevelInfoExt, FLAlertLayer> >::~ModifyBase()
PUBLIC 2bd4c 0 geode::modifier::ModifyDerive<hook11<(anonymous namespace)::hook11Parent>, InfoLayer>::apply()
PUBLIC 2c0f4 0 geode::modifier::ModifyBase<geode::modifier::ModifyDerive<hook11<(anonymous namespace)::hook11Parent>, InfoLayer> >::apply()
PUBLIC 2c0f8 0 geode::modifier::AsStaticFunction_init<hook11<(anonymous namespace)::hook11Parent>, bool (hook11<(anonymous namespace)::hook11Parent>::*)(GJGameLevel*, GJUserScore*, GJLevelList*)>::Impl<bool (hook11<(anonymous namespace)::hook11Parent>::*)(GJGameLevel*, GJUserScore*, GJLevelList*)>::function(hook11<(anonymous namespace)::hook11Parent>*, GJGameLevel*, GJUserScore*, GJLevelList*)
PUBLIC 2c12c 0 geode::modifier::ModifyDerive<ExtendedLevelInfoExt, FLAlertLayer>::apply()
PUBLIC 2c440 0 geode::modifier::ModifyBase<geode::modifier::ModifyDerive<ExtendedLevelInfoExt, FLAlertLayer> >::apply()
PUBLIC 2c444 0 geode::modifier::AsStaticFunction_show<ExtendedLevelInfoExt, void (ExtendedLevelInfoExt::*)()>::Impl<void (ExtendedLevelInfoExt::*)()>::function(ExtendedLevelInfoExt*)
PUBLIC 2c614 0 geode::addresser::Addresser::addressOfVirtual<void, FLAlertLayer, >(void (FLAlertLayer::*)())
PUBLIC 2c6bc 0 FLAlertLayer::FLAlertLayer(geode::ZeroConstructorType)
PUBLIC 2c73c 0 __cxx_global_var_init
PUBLIC 2cb78 0 geode::modifier::ModifyBase<geode::modifier::ModifyDerive<hook8<(anonymous namespace)::hook8Parent>, ShareLevelLayer> >::~ModifyBase()
PUBLIC 2cb94 0 geode::modifier::ModifyDerive<hook8<(anonymous namespace)::hook8Parent>, ShareLevelLayer>::apply()
PUBLIC 2d1c8 0 geode::modifier::ModifyBase<geode::modifier::ModifyDerive<hook8<(anonymous namespace)::hook8Parent>, ShareLevelLayer> >::apply()
PUBLIC 2d1cc 0 geode::modifier::AsStaticFunction_init<hook8<(anonymous namespace)::hook8Parent>, bool (hook8<(anonymous namespace)::hook8Parent>::*)(GJGameLevel*)>::Impl<bool (hook8<(anonymous namespace)::hook8Parent>::*)(GJGameLevel*)>::function(hook8<(anonymous namespace)::hook8Parent>*, GJGameLevel*)
PUBLIC 2d4fc 0 geode::modifier::AsStaticFunction_selectRating<hook8<(anonymous namespace)::hook8Parent>, void (hook8<(anonymous namespace)::hook8Parent>::*)(cocos2d::CCObject*)>::Impl<void (hook8<(anonymous namespace)::hook8Parent>::*)(cocos2d::CCObject*)>::function(hook8<(anonymous namespace)::hook8Parent>*, cocos2d::CCObject*)
PUBLIC 2d890 0 MoreDFSprite::init()
PUBLIC 2d898 0 MoreDFSprite::createWithStarCount(int, bool)
PUBLIC 2dd04 0 MoreDFSprite::~MoreDFSprite()
PUBLIC 2dd28 0 cocos2d::CCSprite::setBlendFunc(cocos2d::_ccBlendFunc)
PUBLIC 2dd34 0 cocos2d::CCSprite::getBlendFunc()
PUBLIC 2dd40 0 cocos2d::CCSprite::isDirty()
PUBLIC 2dd48 0 cocos2d::CCSprite::setDirty(bool)
PUBLIC 2dd50 0 {virtual override thunk({offset(-344)}, cocos2d::CCSprite::setBlendFunc(cocos2d::_ccBlendFunc))}
PUBLIC 2dd58 0 {virtual override thunk({offset(-344)}, cocos2d::CCSprite::getBlendFunc())}
PUBLIC m 2dd60 0 geodeImplicitEntry
PUBLIC 2dd9c 0 std::__ndk1::unordered_map<void*, bool, std::__ndk1::hash<void*>, std::__ndk1::equal_to<void*>, std::__ndk1::allocator<std::__ndk1::pair<void* const, bool> > >::~unordered_map[abi:ne180000]()
PUBLIC 2dde8 0 wrapFunction(unsigned long, tulip::hook::WrapperMetadata const&)
PUBLIC 2df1c 0 geode::impl::ResultData<void*, std::__ndk1::basic_string<char, std::__ndk1::char_traits<char>, std::__ndk1::allocator<char> > >::unwrapErr() &
PUBLIC 2df94 0 geode::impl::ResultData<void*, std::__ndk1::basic_string<char, std::__ndk1::char_traits<char>, std::__ndk1::allocator<char> > >::~ResultData()
PUBLIC 2e008 0 tulip::hook::WrapperMetadata::~WrapperMetadata()
PUBLIC 2e06c 0 cocos2d::CCObject::~CCObject()
PUBLIC 2e090 0 cocos2d::CCNode::CCNode()
PUBLIC 2e2ec 0 cocos2d::CCNode::~CCNode()
PUBLIC 2e310 0 cocos2d::CCNodeRGBA::~CCNodeRGBA()
PUBLIC 2e334 0 {virtual override thunk({offset(-320)}, cocos2d::CCLayer::~CCLayer())}
PUBLIC 2e33c 0 cocos2d::CCLayer::~CCLayer()
PUBLIC 2e360 0 {virtual override thunk({offset(-320)}, cocos2d::CCLayer::~CCLayer())}
PUBLIC 2e388 0 cocos2d::CCLayerRGBA::~CCLayerRGBA()
PUBLIC 2e688 0 {virtual override thunk({offset(-320)}, cocos2d::CCLayerRGBA::~CCLayerRGBA())}
PUBLIC 2e690 0 cocos2d::CCLayerRGBA::~CCLayerRGBA()
PUBLIC 2e6b4 0 {virtual override thunk({offset(-320)}, cocos2d::CCLayerRGBA::~CCLayerRGBA())}
PUBLIC 2e6dc 0 cocos2d::CCLayerColor::CCLayerColor()
PUBLIC 2e940 0 {virtual override thunk({offset(-320)}, cocos2d::CCLayerColor::~CCLayerColor())}
PUBLIC 2e948 0 cocos2d::CCLayerColor::~CCLayerColor()
PUBLIC 2e96c 0 {virtual override thunk({offset(-320)}, cocos2d::CCLayerColor::~CCLayerColor())}
PUBLIC 2e994 0 cocos2d::CCSprite::CCSprite()
PUBLIC 2ebf4 0 cocos2d::CCSprite::~CCSprite()
PUBLIC 2ec18 0 {virtual override thunk({offset(-320)}, FLAlertLayer::~FLAlertLayer())}
PUBLIC 2ec20 0 FLAlertLayer::~FLAlertLayer()
PUBLIC 2ec44 0 {virtual override thunk({offset(-320)}, FLAlertLayer::~FLAlertLayer())}
PUBLIC 2ec6c 0 cocos2d::CCNodeRGBA::~CCNodeRGBA()
PUBLIC 2ef24 0 cocos2d::CCSprite::~CCSprite()
PUBLIC 2f1e4 0 cocos2d::CCObject::update(float)
PUBLIC 2f1e8 0 cocos2d::CCNodeRGBA::setOpacityModifyRGB(bool)
PUBLIC 2f1ec 0 cocos2d::CCNodeRGBA::isOpacityModifyRGB()
PUBLIC 2f1f4 0 {virtual override thunk({offset(-320)}, cocos2d::CCNodeRGBA::setOpacityModifyRGB(bool))}
PUBLIC 2f1f8 0 {virtual override thunk({offset(-320)}, cocos2d::CCNodeRGBA::isOpacityModifyRGB())}
PUBLIC 2f200 0 cocos2d::CCLayerColor::~CCLayerColor()
PUBLIC 2f4e4 0 FLAlertLayer::~FLAlertLayer()
PUBLIC 2f7c8 0 cocos2d::CCNode::~CCNode()
PUBLIC 2fa68 0 cocos2d::CCLayer::~CCLayer()
PUBLIC 2fd58 0 cocos2d::CCObject::~CCObject()
PUBLIC 3024c 0 _ZN5geode15UnwrapExceptionC2IRPvQsr4implE18IsStringStreamableIT_EEENS_4impl5OkTagEOS4_
PUBLIC 303a0 0 std::__ndk1::__variant_detail::__visitation::__base::__dispatcher<(unsigned long)0>::__dispatch[abi:ne180000]<std::__ndk1::__variant_detail::__dtor<std::__ndk1::__variant_detail::__traits<void*, std::__ndk1::basic_string<char, std::__ndk1::char_traits<char>, std::__ndk1::allocator<char> > >, (std::__ndk1::__variant_detail::_Trait)1>::__destroy[abi:ne180000]()::{lambda(auto:1&)#1}, std::__ndk1::__variant_detail::__base<(std::__ndk1::__variant_detail::__traits<void*, std::__ndk1::basic_string<char, std::__ndk1::char_traits<char>, std::__ndk1::allocator<char> > >)1, std::__ndk1::__variant_detail::__traits, std::__ndk1::allocator<char> >&>(std::__ndk1::__variant_detail::__dtor<std::__ndk1::__variant_detail::__traits<void*, std::__ndk1::basic_string<char, std::__ndk1::char_traits<char>, std::__ndk1::allocator<char> > >, (std::__ndk1::__variant_detail::_Trait)1>, std::__ndk1::__variant_detail::__base<(std::__ndk1::__variant_detail::__traits<void*, std::__ndk1::basic_string<char, std::__ndk1::char_traits<char>, std::__ndk1::allocator<char> > >)1, std::__ndk1::__variant_detail::__traits, std::__ndk1::allocator<char> >&)
PUBLIC 303a4 0 std::__ndk1::__variant_detail::__visitation::__base::__dispatcher<(unsigned long)1>::__dispatch[abi:ne180000]<std::__ndk1::__variant_detail::__dtor<std::__ndk1::__variant_detail::__traits<void*, std::__ndk1::basic_string<char, std::__ndk1::char_traits<char>, std::__ndk1::allocator<char> > >, (std::__ndk1::__variant_detail::_Trait)1>::__destroy[abi:ne180000]()::{lambda(auto:1&)#1}, std::__ndk1::__variant_detail::__base<(std::__ndk1::__variant_detail::__traits<void*, std::__ndk1::basic_string<char, std::__ndk1::char_traits<char>, std::__ndk1::allocator<char> > >)1, std::__ndk1::__variant_detail::__traits, std::__ndk1::allocator<char> >&>(std::__ndk1::__variant_detail::__dtor<std::__ndk1::__variant_detail::__traits<void*, std::__ndk1::basic_string<char, std::__ndk1::char_traits<char>, std::__ndk1::allocator<char> > >, (std::__ndk1::__variant_detail::_Trait)1>, std::__ndk1::__variant_detail::__base<(std::__ndk1::__variant_detail::__traits<void*, std::__ndk1::basic_string<char, std::__ndk1::char_traits<char>, std::__ndk1::allocator<char> > >)1, std::__ndk1::__variant_detail::__traits, std::__ndk1::allocator<char> >&)
PUBLIC 303b8 0 std::__ndk1::__hash_table<std::__ndk1::__hash_value_type<void*, bool>, std::__ndk1::__unordered_map_hasher<void*, std::__ndk1::__hash_value_type<void*, bool>, std::__ndk1::hash<void*>, std::__ndk1::equal_to<void*>, true>, std::__ndk1::__unordered_map_equal<void*, std::__ndk1::__hash_value_type<void*, bool>, std::__ndk1::equal_to<void*>, std::__ndk1::hash<void*>, true>, std::__ndk1::allocator<std::__ndk1::__hash_value_type<void*, bool> > >::__emplace_unique_key_args<void*, std::__ndk1::piecewise_construct_t const&, std::__ndk1::tuple<void* const&>, std::__ndk1::tuple<> >(void* const&, std::__ndk1::piecewise_construct_t const&, std::__ndk1::tuple<void* const&>, std::__ndk1::tuple<>)
PUBLIC 308c4 0 __udivti3
PUBLIC 308d0 0 __udivmodti4
PUBLIC m 30b1c 0 __eqtf2
PUBLIC 30bbc 0 __unordtf2
PUBLIC 30bf4 0 fmt::v11::detail::write_loc(fmt::v11::basic_appender<char>, fmt::v11::loc_value, fmt::v11::format_specs const&, fmt::v11::detail::locale_ref)
PUBLIC 30e88 0 fmt::v11::format_facet<std::__ndk1::locale>::~format_facet()
PUBLIC 30f04 0 fmt::v11::report_error(char const*)
PUBLIC 30f54 0 fmt::v11::format_error::runtime_error(char const*)
PUBLIC 30f80 0 fmt::v11::format_facet<std::__ndk1::locale>::do_put(fmt::v11::basic_appender<char>, fmt::v11::loc_value, fmt::v11::format_specs const&) const
PUBLIC 31740 0 fmt::v11::detail::loc_writer<char>::~loc_writer()
PUBLIC 317a4 0 fmt::v11::detail::vformat_to<char>(fmt::v11::detail::buffer<char>&, fmt::v11::basic_string_view<char>, fmt::v11::detail::vformat_args<char>::type, fmt::v11::detail::locale_ref)
PUBLIC 31d14 0 fmt::v11::detail::is_printable(unsigned int)
PUBLIC 31f3c 0 fmt::v11::detail::dragonbox::to_decimal<float>(float)
PUBLIC 32218 0 fmt::v11::detail::dragonbox::to_decimal<double>(double)
PUBLIC 32754 0 fmt::v11::basic_memory_buffer<char, (unsigned long)500, std::__ndk1::allocator<char> >::grow(fmt::v11::detail::buffer<char>&, unsigned long)
PUBLIC 327cc 0 fmt::v11::format_facet<std::__ndk1::locale>::~format_facet()
PUBLIC 32858 0 fmt::v11::format_error::~format_error()
PUBLIC 3287c 0 fmt::v11::detail::copy_noinline<char, char const*, fmt::v11::basic_appender<char> >(char const*, char const*, fmt::v11::basic_appender<char>)
PUBLIC 329cc 0 fmt::v11::detail::default_arg_formatter<char>::operator()<bool>(bool)
PUBLIC 32a34 0 fmt::v11::detail::default_arg_formatter<char>::operator()<char>(char)
PUBLIC 32ac4 0 fmt::v11::detail::default_arg_formatter<char>::operator()<float>(float)
PUBLIC 32bb0 0 fmt::v11::detail::default_arg_formatter<char>::operator()<double>(double)
PUBLIC 32c9c 0 fmt::v11::detail::default_arg_formatter<char>::operator()<char const*>(char const*)
PUBLIC 32ce4 0 fmt::v11::detail::default_arg_formatter<char>::operator()<void const*>(void const*)
PUBLIC 32d7c 0 _ZN3fmt3v116detail5writeIcNS0_14basic_appenderIcEEiTnNSt6__ndk19enable_ifIXaaaasr11is_integralIT1_EE5valuentsr3std7is_sameIS7_bEE5valuentsr3std7is_sameIS7_T_EE5valueEiE4typeELi0EEET0_SB_S7_
PUBLIC 32fdc 0 fmt::v11::detail::copy_noinline<char, char*, fmt::v11::basic_appender<char> >(char*, char*, fmt::v11::basic_appender<char>)
PUBLIC 3312c 0 _ZN3fmt3v116detail5writeIcNS0_14basic_appenderIcEEjTnNSt6__ndk19enable_ifIXaaaasr11is_integralIT1_EE5valuentsr3std7is_sameIS7_bEE5valuentsr3std7is_sameIS7_T_EE5valueEiE4typeELi0EEET0_SB_S7_
PUBLIC 3330c 0 _ZN3fmt3v116detail5writeIcNS0_14basic_appenderIcEExTnNSt6__ndk19enable_ifIXaaaasr11is_integralIT1_EE5valuentsr3std7is_sameIS7_bEE5valuentsr3std7is_sameIS7_T_EE5valueEiE4typeELi0EEET0_SB_S7_
PUBLIC 33590 0 _ZN3fmt3v116detail5writeIcNS0_14basic_appenderIcEEyTnNSt6__ndk19enable_ifIXaaaasr11is_integralIT1_EE5valuentsr3std7is_sameIS7_bEE5valuentsr3std7is_sameIS7_T_EE5valueEiE4typeELi0EEET0_SB_S7_
PUBLIC 33798 0 _ZN3fmt3v116detail5writeIcNS0_14basic_appenderIcEEnTnNSt6__ndk19enable_ifIXaaaasr11is_integralIT1_EE5valuentsr3std7is_sameIS7_bEE5valuentsr3std7is_sameIS7_T_EE5valueEiE4typeELi0EEET0_SB_S7_
PUBLIC 33af8 0 _ZN3fmt3v116detail5writeIcNS0_14basic_appenderIcEEoTnNSt6__ndk19enable_ifIXaaaasr11is_integralIT1_EE5valuentsr3std7is_sameIS7_bEE5valuentsr3std7is_sameIS7_T_EE5valueEiE4typeELi0EEET0_SB_S7_
PUBLIC 33e0c 0 _ZN3fmt3v116detail5writeIcNS0_14basic_appenderIcEEbTnNSt6__ndk19enable_ifIXsr3std7is_sameIT1_bEE5valueEiE4typeELi0EEET0_SA_S7_RKNS0_12format_specsENS1_10locale_refE
PUBLIC 3409c 0 fmt::v11::detail::write_int_noinline<char, fmt::v11::basic_appender<char>, unsigned int>(fmt::v11::basic_appender<char>, fmt::v11::detail::write_int_arg<unsigned int>, fmt::v11::format_specs const&, fmt::v11::detail::locale_ref)
PUBLIC 34e78 0 fmt::v11::detail::fill<char, fmt::v11::basic_appender<char> >(fmt::v11::basic_appender<char>, unsigned long, fmt::v11::detail::fill_t const&)
PUBLIC 35048 0 fmt::v11::detail::write_padded<char, (fmt::v11::align::type)1, fmt::v11::basic_appender<char>, fmt::v11::detail::write_char<char, fmt::v11::basic_appender<char> >(fmt::v11::basic_appender<char>, char, fmt::v11::format_specs const&)::{lambda(fmt::v11::basic_appender<char>&)#1}>(fmt::v11::basic_appender<char>, fmt::v11::format_specs const&, unsigned long, unsigned long, fmt::v11::detail::write_char<char, fmt::v11::basic_appender<char> >(fmt::v11::basic_appender<char>, char, fmt::v11::format_specs const&)::{lambda(fmt::v11::basic_appender<char>&)#1})
PUBLIC 35284 0 fmt::v11::detail::write_escaped_cp<fmt::v11::basic_appender<char>, char>(fmt::v11::basic_appender<char>, fmt::v11::detail::find_escape_result<char> const&)
PUBLIC 35590 0 fmt::v11::detail::write_codepoint<(unsigned long)2, char, fmt::v11::basic_appender<char> >(fmt::v11::basic_appender<char>, char, unsigned int)
PUBLIC 35708 0 fmt::v11::detail::write_codepoint<(unsigned long)8, char, fmt::v11::basic_appender<char> >(fmt::v11::basic_appender<char>, char, unsigned int)
PUBLIC 35880 0 fmt::v11::detail::write_padded<char, (fmt::v11::align::type)1, fmt::v11::basic_appender<char>, fmt::v11::detail::write_nonfinite<char, fmt::v11::basic_appender<char> >(fmt::v11::basic_appender<char>, bool, fmt::v11::format_specs, fmt::v11::sign::type)::{lambda(fmt::v11::basic_appender<char>&)#1}>(fmt::v11::basic_appender<char>, fmt::v11::format_specs const&, unsigned long, unsigned long, fmt::v11::detail::write_nonfinite<char, fmt::v11::basic_appender<char> >(fmt::v11::basic_appender<char>, bool, fmt::v11::format_specs, fmt::v11::sign::type)::{lambda(fmt::v11::basic_appender<char>&)#1})
PUBLIC 35ac0 0 fmt::v11::detail::do_write_float<char, fmt::v11::basic_appender<char>, fmt::v11::detail::dragonbox::decimal_fp<float>, fmt::v11::detail::digit_grouping<char> >(fmt::v11::basic_appender<char>, fmt::v11::detail::dragonbox::decimal_fp<float> const&, fmt::v11::format_specs const&, fmt::v11::detail::float_specs, fmt::v11::detail::locale_ref)
PUBLIC 36734 0 fmt::v11::detail::do_write_float<char, fmt::v11::basic_appender<char>, fmt::v11::detail::dragonbox::decimal_fp<float>, fmt::v11::detail::digit_grouping<char> >(fmt::v11::basic_appender<char>, fmt::v11::detail::dragonbox::decimal_fp<float> const&, fmt::v11::format_specs const&, fmt::v11::detail::float_specs, fmt::v11::detail::locale_ref)::{lambda(fmt::v11::basic_appender<char>(fmt::v11::basic_appender<char>))#1}::operator() const
PUBLIC 36888 0 fmt::v11::detail::digit_grouping<char>::digit_grouping(fmt::v11::detail::locale_ref, bool)
PUBLIC 36af4 0 fmt::v11::detail::digit_grouping<char>::~digit_grouping()
PUBLIC 36b38 0 fmt::v11::detail::write_exponent<char, fmt::v11::basic_appender<char> >(int, fmt::v11::basic_appender<char>)
PUBLIC 36d08 0 _ZN3fmt3v116detail17write_significandIcjTnNSt6__ndk19enable_ifIXsr3std11is_integralIT0_EE5valueEiE4typeELi0EEEPT_S9_S5_iiS8_
PUBLIC 36e84 0 std::__ndk1::basic_string<char, std::__ndk1::char_traits<char>, std::__ndk1::allocator<char> >::__assign_no_alias<true>(char const*, unsigned long)
PUBLIC 36f30 0 std::__ndk1::basic_string<char, std::__ndk1::char_traits<char>, std::__ndk1::allocator<char> >::__assign_no_alias<false>(char const*, unsigned long)
PUBLIC 37040 0 fmt::v11::detail::digit_grouping<char>::apply<fmt::v11::basic_appender<char>, char>(fmt::v11::basic_appender<char>, fmt::v11::basic_string_view<char>) const
PUBLIC 373f8 0 fmt::v11::basic_memory_buffer<int, (unsigned long)500, std::__ndk1::allocator<int> >::grow(fmt::v11::detail::buffer<int>&, unsigned long)
PUBLIC 37498 0 fmt::v11::detail::do_write_float<char, fmt::v11::basic_appender<char>, fmt::v11::detail::dragonbox::decimal_fp<double>, fmt::v11::detail::digit_grouping<char> >(fmt::v11::basic_appender<char>, fmt::v11::detail::dragonbox::decimal_fp<double> const&, fmt::v11::format_specs const&, fmt::v11::detail::float_specs, fmt::v11::detail::locale_ref)
PUBLIC 3814c 0 fmt::v11::detail::do_write_float<char, fmt::v11::basic_appender<char>, fmt::v11::detail::dragonbox::decimal_fp<double>, fmt::v11::detail::digit_grouping<char> >(fmt::v11::basic_appender<char>, fmt::v11::detail::dragonbox::decimal_fp<double> const&, fmt::v11::format_specs const&, fmt::v11::detail::float_specs, fmt::v11::detail::locale_ref)::{lambda(fmt::v11::basic_appender<char>(fmt::v11::basic_appender<char>))#1}::operator() const
PUBLIC 382a4 0 _ZN3fmt3v116detail17write_significandIcmTnNSt6__ndk19enable_ifIXsr3std11is_integralIT0_EE5valueEiE4typeELi0EEEPT_S9_S5_iiS8_
PUBLIC 38434 0 fmt::v11::detail::write_float<char, fmt::v11::basic_appender<char>, long double>(fmt::v11::basic_appender<char>, long double, fmt::v11::format_specs, fmt::v11::detail::locale_ref)
PUBLIC 38f30 0 fmt::v11::detail::write_padded<char, (fmt::v11::align::type)2, fmt::v11::basic_appender<char>, fmt::v11::detail::write_bytes<char, (fmt::v11::align::type)2, fmt::v11::basic_appender<char> >(fmt::v11::basic_appender<char>, fmt::v11::basic_string_view<char>, fmt::v11::format_specs const&)::{lambda(fmt::v11::basic_appender<char>&)#1}>(fmt::v11::basic_appender<char>, fmt::v11::format_specs const&, unsigned long, unsigned long, fmt::v11::detail::write_bytes<char, (fmt::v11::align::type)2, fmt::v11::basic_appender<char> >(fmt::v11::basic_appender<char>, fmt::v11::basic_string_view<char>, fmt::v11::format_specs const&)::{lambda(fmt::v11::basic_appender<char>&)#1})
PUBLIC 3910c 0 fmt::v11::detail::format_dragon(fmt::v11::detail::basic_fp<unsigned __int128>, unsigned int, int, fmt::v11::detail::buffer<char>&, int&)
PUBLIC 3a53c 0 fmt::v11::detail::bigint::operator<<=(int)
PUBLIC 3a660 0 fmt::v11::detail::bigint::assign_pow10(int)
PUBLIC 3adbc 0 fmt::v11::detail::bigint::divmod_assign(fmt::v11::detail::bigint const&)
PUBLIC 3b0dc 0 fmt::v11::basic_memory_buffer<unsigned int, (unsigned long)32, std::__ndk1::allocator<unsigned int> >::grow(fmt::v11::detail::buffer<unsigned int>&, unsigned long)
PUBLIC 3b17c 0 fmt::v11::detail::do_write_float<char, fmt::v11::basic_appender<char>, fmt::v11::detail::big_decimal_fp, fmt::v11::detail::digit_grouping<char> >(fmt::v11::basic_appender<char>, fmt::v11::detail::big_decimal_fp const&, fmt::v11::format_specs const&, fmt::v11::detail::float_specs, fmt::v11::detail::locale_ref)
PUBLIC 3c02c 0 fmt::v11::detail::do_write_float<char, fmt::v11::basic_appender<char>, fmt::v11::detail::big_decimal_fp, fmt::v11::detail::digit_grouping<char> >(fmt::v11::basic_appender<char>, fmt::v11::detail::big_decimal_fp const&, fmt::v11::format_specs const&, fmt::v11::detail::float_specs, fmt::v11::detail::locale_ref)::{lambda(fmt::v11::basic_appender<char>(fmt::v11::basic_appender<char>))#1}::operator() const
PUBLIC 3c18c 0 fmt::v11::detail::write_padded<char, (fmt::v11::align::type)2, fmt::v11::basic_appender<char>, fmt::v11::detail::write_ptr<char, fmt::v11::basic_appender<char>, unsigned long>(fmt::v11::basic_appender<char>, unsigned long, fmt::v11::format_specs const*)::{lambda(fmt::v11::basic_appender<char>&)#1}>(fmt::v11::basic_appender<char>, fmt::v11::format_specs const&, unsigned long, unsigned long, fmt::v11::detail::write_ptr<char, fmt::v11::basic_appender<char>, unsigned long>(fmt::v11::basic_appender<char>, unsigned long, fmt::v11::format_specs const*)::{lambda(fmt::v11::basic_appender<char>&)#1})
PUBLIC 3c3a0 0 fmt::v11::detail::parse_replacement_field<char, fmt::v11::detail::vformat_to<char>(fmt::v11::detail::buffer<char>&, fmt::v11::basic_string_view<char>, fmt::v11::detail::vformat_args<char>::type, fmt::v11::detail::locale_ref)::format_handler&>(char const*, char const*, fmt::v11::detail::vformat_to<char>(fmt::v11::detail::buffer<char>&, fmt::v11::basic_string_view<char>, fmt::v11::detail::vformat_args<char>::type, fmt::v11::detail::locale_ref)::format_handler&)
PUBLIC 3e03c 0 fmt::v11::detail::parse_dynamic_spec<char>(char const*, char const*, int&, fmt::v11::detail::arg_ref<char>&, fmt::v11::basic_format_parse_context<char>&)
PUBLIC 3e2cc 0 fmt::v11::basic_format_args<fmt::v11::context>::get<char>(fmt::v11::basic_string_view<char>) const
PUBLIC 3e424 0 fmt::v11::detail::write_int_noinline<char, fmt::v11::basic_appender<char>, unsigned long>(fmt::v11::basic_appender<char>, fmt::v11::detail::write_int_arg<unsigned long>, fmt::v11::format_specs const&, fmt::v11::detail::locale_ref)
PUBLIC 3f278 0 fmt::v11::detail::write_int_noinline<char, fmt::v11::basic_appender<char>, unsigned __int128>(fmt::v11::basic_appender<char>, fmt::v11::detail::write_int_arg<unsigned __int128>, fmt::v11::format_specs const&, fmt::v11::detail::locale_ref)
PUBLIC 402e0 0 _ZN3fmt3v116detail15format_hexfloatIdTnNSt6__ndk19enable_ifIXntsr16is_double_doubleIT_EE5valueEiE4typeELi0EEEvS5_NS0_12format_specsERNS1_6bufferIcEE
PUBLIC 40800 0 fmt::v11::detail::format_float<double>(double, int, fmt::v11::detail::float_specs, fmt::v11::detail::buffer<char>&)
PUBLIC 411a0 0 fmt::v11::detail::write<char, fmt::v11::basic_appender<char> >(fmt::v11::basic_appender<char>, fmt::v11::basic_string_view<char>, fmt::v11::format_specs const&)
PUBLIC 4250c 0 fmt::v11::detail::for_each_codepoint<fmt::v11::detail::compute_width(fmt::v11::basic_string_view<char>)::count_code_points>(fmt::v11::basic_string_view<char>, fmt::v11::detail::compute_width(fmt::v11::basic_string_view<char>)::count_code_points)::{lambda(char const*, char const*)#1}::operator()(char const*, char const*) const
PUBLIC 426c4 0 fmt::v11::detail::write_int<fmt::v11::basic_appender<char>, unsigned long, char>(fmt::v11::basic_appender<char>, unsigned long, unsigned int, fmt::v11::format_specs const&, fmt::v11::detail::digit_grouping<char> const&)
PUBLIC 42c40 0 fmt::v11::detail::write_int<fmt::v11::basic_appender<char>, unsigned __int128, char>(fmt::v11::basic_appender<char>, unsigned __int128, unsigned int, fmt::v11::format_specs const&, fmt::v11::detail::digit_grouping<char> const&)
PUBLIC 432c0 0 <.plt ELF section in uproxide.more_difficulties.android64.so>
STACK CFI INIT 1f710 10 .cfa: sp 0 +
STACK CFI INIT 1f720 8 .cfa: sp 0 +
STACK CFI INIT 1f728 8 .cfa: sp 0 +
STACK CFI INIT 1f730 14 .cfa: sp 0 +
STACK CFI INIT 1f744 1c .cfa: sp 0 +
STACK CFI INIT 1f760 10 .cfa: sp 0 +
STACK CFI INIT 1f770 134 .cfa: sp 0 +
STACK CFI INIT 1f8a4 84 .cfa: sp 0 +
STACK CFI INIT 1f928 f4 .cfa: sp 0 +
STACK CFI INIT 1fa1c a8 .cfa: sp 0 +
STACK CFI INIT 1fac4 7c .cfa: sp 0 +
STACK CFI INIT 1fb40 14 .cfa: sp 0 +
STACK CFI INIT 1fb54 40 .cfa: sp 0 +
STACK CFI INIT 1fb94 28 .cfa: sp 0 +
STACK CFI INIT 1fbbc 190 .cfa: sp 0 +
STACK CFI INIT 1fd4c 2c8 .cfa: sp 0 +
STACK CFI INIT 20014 8 .cfa: sp 0 +
STACK CFI INIT 2001c 8 .cfa: sp 0 +
STACK CFI INIT 20024 44 .cfa: sp 0 +
STACK CFI INIT 20068 e8 .cfa: sp 0 +
STACK CFI INIT 20150 e8 .cfa: sp 0 +
STACK CFI INIT 20238 14 .cfa: sp 0 +
STACK CFI INIT 2024c 10 .cfa: sp 0 +
STACK CFI INIT 2025c 10 .cfa: sp 0 +
STACK CFI INIT 2026c f0 .cfa: sp 0 +
STACK CFI INIT 2035c 44 .cfa: sp 0 +
STACK CFI INIT 203a0 c .cfa: sp 0 +
STACK CFI INIT 203ac c .cfa: sp 0 +
STACK CFI INIT 203b8 2c .cfa: sp 0 +
STACK CFI INIT 203e4 280 .cfa: sp 0 +
STACK CFI INIT 20664 c .cfa: sp 0 +
STACK CFI INIT 20670 120 .cfa: sp 0 +
STACK CFI INIT 20790 488 .cfa: sp 0 +
STACK CFI INIT 20c18 c48 .cfa: sp 0 +
STACK CFI INIT 21860 134 .cfa: sp 0 +
STACK CFI INIT 21994 210 .cfa: sp 0 +
STACK CFI INIT 21ba4 38c .cfa: sp 0 +
STACK CFI INIT 21f30 1c8 .cfa: sp 0 +
STACK CFI INIT 220f8 9bc .cfa: sp 0 +
STACK CFI INIT 22ab4 2d4 .cfa: sp 0 +
STACK CFI INIT 22d88 134 .cfa: sp 0 +
STACK CFI INIT 22ebc 120 .cfa: sp 0 +
STACK CFI INIT 22fdc 1c8 .cfa: sp 0 +
STACK CFI INIT 231a4 168 .cfa: sp 0 +
STACK CFI INIT 2330c fc .cfa: sp 0 +
STACK CFI INIT 23408 30 .cfa: sp 0 +
STACK CFI INIT 23570 30 .cfa: sp 0 +
STACK CFI INIT 235a0 98 .cfa: sp 0 +
STACK CFI INIT 23638 59c .cfa: sp 0 +
STACK CFI INIT 23bd4 8c .cfa: sp 0 +
STACK CFI INIT 23c60 30 .cfa: sp 0 +
STACK CFI INIT 23fa4 50 .cfa: sp 0 +
STACK CFI 23fa8 .cfa: sp 32 +
STACK CFI 23fb0 .cfa: x29 32 + x19: .cfa -16 + ^ .ra: .cfa -24 + ^ x29: .cfa -32 + ^
STACK CFI 23fc8 .cfa: sp 32 +
STACK CFI 23fd0 .cfa: sp 0 +
STACK CFI 23fd4 .cfa: x29 32 +
STACK CFI 23fe8 .cfa: sp 32 +
STACK CFI 23ff0 .cfa: sp 0 +
STACK CFI INIT 23ff4 50 .cfa: sp 0 +
STACK CFI 23ff8 .cfa: sp 32 +
STACK CFI 24000 .cfa: x29 32 + x19: .cfa -16 + ^ .ra: .cfa -24 + ^ x29: .cfa -32 + ^
STACK CFI 24018 .cfa: sp 32 +
STACK CFI 24020 .cfa: sp 0 +
STACK CFI 24024 .cfa: x29 32 +
STACK CFI 24038 .cfa: sp 32 +
STACK CFI 24040 .cfa: sp 0 +
STACK CFI INIT 24044 104 .cfa: sp 0 +
STACK CFI 24048 .cfa: sp 80 +
STACK CFI 24058 .cfa: x29 48 + x19: .cfa -8 + ^ x20: .cfa -16 + ^ x21: .cfa -32 + ^ .ra: .cfa -40 + ^ x29: .cfa -48 + ^
STACK CFI 24130 .cfa: sp 80 +
STACK CFI 24140 .cfa: sp 0 +
STACK CFI 24144 .cfa: x29 48 +
STACK CFI INIT 24148 24 .cfa: sp 0 +
STACK CFI 2414c .cfa: sp 32 +
STACK CFI 24154 .cfa: x29 32 + x19: .cfa -16 + ^ .ra: .cfa -24 + ^ x29: .cfa -32 + ^
STACK CFI 24160 .cfa: sp 32 +
STACK CFI 24168 .cfa: sp 0 +
STACK CFI INIT 2416c 8 .cfa: sp 0 +
STACK CFI INIT 24174 8 .cfa: sp 0 +
STACK CFI INIT 2417c 8 .cfa: sp 0 +
STACK CFI INIT 24184 4 .cfa: sp 0 +
STACK CFI INIT 24188 8 .cfa: sp 0 +
STACK CFI INIT 24190 70 .cfa: sp 0 +
STACK CFI 24194 .cfa: sp 32 +
STACK CFI 2419c .cfa: x29 32 + x19: .cfa -8 + ^ x20: .cfa -16 + ^ .ra: .cfa -24 + ^ x29: .cfa -32 + ^
STACK CFI 241cc .cfa: sp 32 +
STACK CFI 241d4 .cfa: sp 0 +
STACK CFI 241d8 .cfa: x29 32 +
STACK CFI 241f4 .cfa: sp 32 +
STACK CFI 241fc .cfa: sp 0 +
STACK CFI INIT 24200 80 .cfa: sp 0 +
STACK CFI 24204 .cfa: sp 32 +
STACK CFI 2420c .cfa: x29 32 + x19: .cfa -8 + ^ x20: .cfa -16 + ^ .ra: .cfa -24 + ^ x29: .cfa -32 + ^
STACK CFI 24244 .cfa: sp 32 +
STACK CFI 2424c .cfa: sp 0 +
STACK CFI 24250 .cfa: x29 32 +
STACK CFI 24274 .cfa: sp 32 +
STACK CFI 2427c .cfa: sp 0 +
STACK CFI INIT 243b8 4 .cfa: sp 0 +
STACK CFI INIT 243bc 4 .cfa: sp 0 +
STACK CFI INIT 243c0 8 .cfa: sp 0 +
STACK CFI INIT 243c8 8 .cfa: sp 0 +
STACK CFI INIT 24810 2c .cfa: sp 0 +
STACK CFI 24814 .cfa: sp 32 +
STACK CFI 2481c .cfa: x29 32 + x19: .cfa -16 + ^ .ra: .cfa -24 + ^ x29: .cfa -32 + ^
STACK CFI 24830 .cfa: sp 32 +
STACK CFI 24838 .cfa: sp 0 +
STACK CFI INIT 2483c 28 .cfa: sp 0 +
STACK CFI INIT 24864 4 .cfa: sp 0 +
STACK CFI INIT 24868 8 .cfa: sp 0 +
STACK CFI INIT 24870 35c .cfa: sp 0 +
STACK CFI 24874 .cfa: sp 128 +
STACK CFI 24890 .cfa: x29 80 + x19: .cfa -8 + ^ x20: .cfa -16 + ^ x21: .cfa -24 + ^ x22: .cfa -32 + ^ x23: .cfa -40 + ^ x24: .cfa -48 + ^ x25: .cfa -56 + ^ x26: .cfa -64 + ^ .ra: .cfa -72 + ^ x29: .cfa -80 + ^ v8: .cfa -96 + ^
STACK CFI 24ba8 .cfa: sp 128 +
STACK CFI 24bc4 .cfa: sp 0 +
STACK CFI 24bc8 .cfa: x29 80 +
STACK CFI INIT 24df4 2c .cfa: sp 0 +
STACK CFI INIT 24e20 4 .cfa: sp 0 +
STACK CFI INIT 24e24 4 .cfa: sp 0 +
STACK CFI INIT 24e28 4 .cfa: sp 0 +
STACK CFI INIT 24e2c 4 .cfa: sp 0 +
STACK CFI INIT 24e30 4 .cfa: sp 0 +
STACK CFI INIT 24e34 8 .cfa: sp 0 +
STACK CFI INIT 24e3c 4 .cfa: sp 0 +
STACK CFI INIT 24eac 4 .cfa: sp 0 +
STACK CFI INIT 24eb0 10 .cfa: sp 0 +
STACK CFI 24eb4 .cfa: sp 16 +
STACK CFI 24eb8 .cfa: x29 16 + .ra: .cfa -8 + ^ x29: .cfa -16 + ^
STACK CFI INIT 254d0 34 .cfa: sp 0 +
STACK CFI 254d4 .cfa: sp 16 +
STACK CFI 254d8 .cfa: x29 16 + .ra: .cfa -8 + ^ x29: .cfa -16 + ^
STACK CFI INIT 25630 80 .cfa: sp 0 +
STACK CFI 25634 .cfa: sp 48 +
STACK CFI 25640 .cfa: x29 48 + x19: .cfa -8 + ^ x20: .cfa -16 + ^ x21: .cfa -32 + ^ .ra: .cfa -40 + ^ x29: .cfa -48 + ^
STACK CFI 256a0 .cfa: sp 48 +
STACK CFI 256ac .cfa: sp 0 +
STACK CFI INIT 256b0 24 .cfa: sp 0 +
STACK CFI 256b4 .cfa: sp 32 +
STACK CFI 256bc .cfa: x29 32 + x19: .cfa -16 + ^ .ra: .cfa -24 + ^ x29: .cfa -32 + ^
STACK CFI 256c8 .cfa: sp 32 +
STACK CFI 256d0 .cfa: sp 0 +
STACK CFI INIT 25a54 14 .cfa: sp 0 +
STACK CFI 25a58 .cfa: sp 16 +
STACK CFI 25a5c .cfa: x29 16 + .ra: .cfa -8 + ^ x29: .cfa -16 + ^
STACK CFI INIT 25ab8 30 .cfa: sp 0 +
STACK CFI 25abc .cfa: sp 32 +
STACK CFI 25ac4 .cfa: x29 32 + x19: .cfa -16 + ^ .ra: .cfa -24 + ^ x29: .cfa -32 + ^
STACK CFI 25adc .cfa: sp 32 +
STACK CFI 25ae4 .cfa: sp 0 +
STACK CFI INIT 25c60 148 .cfa: sp 0 +
STACK CFI 25c64 .cfa: sp 48 +
STACK CFI 25c70 .cfa: x29 48 + x19: .cfa -8 + ^ x20: .cfa -16 + ^ x21: .cfa -32 + ^ .ra: .cfa -40 + ^ x29: .cfa -48 + ^
STACK CFI 25d98 .cfa: sp 48 +
STACK CFI 25da4 .cfa: sp 0 +
STACK CFI INIT 25da8 80 .cfa: sp 0 +
STACK CFI 25dac .cfa: sp 48 +
STACK CFI 25db8 .cfa: x29 48 + x19: .cfa -8 + ^ x20: .cfa -16 + ^ x21: .cfa -24 + ^ x22: .cfa -32 + ^ .ra: .cfa -40 + ^ x29: .cfa -48 + ^
STACK CFI 25dd0 .cfa: sp 48 +
STACK CFI 25ddc .cfa: sp 0 +
STACK CFI 25de0 .cfa: x29 48 +
STACK CFI 25e10 .cfa: sp 48 +
STACK CFI 25e1c .cfa: sp 0 +
STACK CFI 25e20 .cfa: x29 48 +
STACK CFI INIT 25e28 4 .cfa: sp 0 +
STACK CFI INIT 25e2c 14 .cfa: sp 0 +
STACK CFI INIT 25e40 4 .cfa: sp 0 +
STACK CFI INIT 25e44 14 .cfa: sp 0 +
STACK CFI INIT 25e58 60 .cfa: sp 0 +
STACK CFI 25e5c .cfa: sp 32 +
STACK CFI 25e64 .cfa: x29 32 + x19: .cfa -8 + ^ x20: .cfa -16 + ^ .ra: .cfa -24 + ^ x29: .cfa -32 + ^
STACK CFI 25e84 .cfa: sp 32 +
STACK CFI 25e8c .cfa: sp 0 +
STACK CFI 25e90 .cfa: x29 32 +
STACK CFI 25eac .cfa: sp 32 +
STACK CFI 25eb4 .cfa: sp 0 +
STACK CFI INIT 25eb8 70 .cfa: sp 0 +
STACK CFI 25ebc .cfa: sp 32 +
STACK CFI 25ec4 .cfa: x29 32 + x19: .cfa -8 + ^ x20: .cfa -16 + ^ .ra: .cfa -24 + ^ x29: .cfa -32 + ^
STACK CFI 25eec .cfa: sp 32 +
STACK CFI 25ef4 .cfa: sp 0 +
STACK CFI 25ef8 .cfa: x29 32 +
STACK CFI 25f1c .cfa: sp 32 +
STACK CFI 25f24 .cfa: sp 0 +
STACK CFI INIT 25f28 10 .cfa: sp 0 +
STACK CFI INIT 25f38 30 .cfa: sp 0 +
STACK CFI 25f3c .cfa: sp 32 +
STACK CFI 25f44 .cfa: x29 32 + x19: .cfa -16 + ^ .ra: .cfa -24 + ^ x29: .cfa -32 + ^
STACK CFI 25f5c .cfa: sp 32 +
STACK CFI 25f64 .cfa: sp 0 +
STACK CFI INIT 25f68 4 .cfa: sp 0 +
STACK CFI INIT 25f6c 4 .cfa: sp 0 +
STACK CFI INIT 25f70 34 .cfa: sp 0 +
STACK CFI 25f74 .cfa: sp 16 +
STACK CFI 25f78 .cfa: x29 16 + .ra: .cfa -8 + ^ x29: .cfa -16 + ^
STACK CFI INIT 26018 4 .cfa: sp 0 +
STACK CFI INIT 2601c 4 .cfa: sp 0 +
STACK CFI INIT 26020 24 .cfa: sp 0 +
STACK CFI 26024 .cfa: sp 16 +
STACK CFI 26028 .cfa: x29 16 + .ra: .cfa -8 + ^ x29: .cfa -16 + ^
STACK CFI 2603c .cfa: sp 16 +
STACK CFI 26040 .cfa: sp 0 +
STACK CFI INIT 26044 10 .cfa: sp 0 +
STACK CFI INIT 26054 4 .cfa: sp 0 +
STACK CFI INIT 26058 4 .cfa: sp 0 +
STACK CFI INIT 26518 1c .cfa: sp 0 +
STACK CFI INIT 26534 c .cfa: sp 0 +
STACK CFI INIT 265b4 10 .cfa: sp 0 +
STACK CFI INIT 265c4 30 .cfa: sp 0 +
STACK CFI 265c8 .cfa: sp 32 +
STACK CFI 265d0 .cfa: x29 32 + x19: .cfa -16 + ^ .ra: .cfa -24 + ^ x29: .cfa -32 + ^
STACK CFI 265e8 .cfa: sp 32 +
STACK CFI 265f0 .cfa: sp 0 +
STACK CFI INIT 265f4 c .cfa: sp 0 +
STACK CFI INIT 26600 4 .cfa: sp 0 +
STACK CFI INIT 26604 50 .cfa: sp 0 +
STACK CFI 26608 .cfa: sp 32 +
STACK CFI 26610 .cfa: x29 32 + x19: .cfa -16 + ^ .ra: .cfa -24 + ^ x29: .cfa -32 + ^
STACK CFI 26628 .cfa: sp 32 +
STACK CFI 26630 .cfa: sp 0 +
STACK CFI 26634 .cfa: x29 32 +
STACK CFI 26648 .cfa: sp 32 +
STACK CFI 26650 .cfa: sp 0 +
STACK CFI INIT 26654 14 .cfa: sp 0 +
STACK CFI INIT 26668 4 .cfa: sp 0 +
STACK CFI INIT 2666c 14 .cfa: sp 0 +
STACK CFI INIT 2686c 4 .cfa: sp 0 +
STACK CFI INIT 269e4 5c .cfa: sp 0 +
STACK CFI 269e8 .cfa: sp 32 +
STACK CFI 269f0 .cfa: x29 32 + x19: .cfa -16 + ^ .ra: .cfa -24 + ^ x29: .cfa -32 + ^
STACK CFI 26a34 .cfa: sp 32 +
STACK CFI 26a3c .cfa: sp 0 +
STACK CFI INIT 26a40 64 .cfa: sp 0 +
STACK CFI 26a44 .cfa: sp 32 +
STACK CFI 26a4c .cfa: x29 32 + x19: .cfa -16 + ^ .ra: .cfa -24 + ^ x29: .cfa -32 + ^
STACK CFI 26a98 .cfa: sp 32 +
STACK CFI 26aa0 .cfa: sp 0 +
STACK CFI INIT 26aa4 4 .cfa: sp 0 +
STACK CFI INIT 26aa8 4 .cfa: sp 0 +
STACK CFI INIT 26aac 34 .cfa: sp 0 +
STACK CFI 26ab0 .cfa: sp 32 +
STACK CFI 26ab8 .cfa: x29 32 + x19: .cfa -16 + ^ .ra: .cfa -24 + ^ x29: .cfa -32 + ^
STACK CFI 26ad4 .cfa: sp 32 +
STACK CFI 26adc .cfa: sp 0 +
STACK CFI INIT 26ae0 14 .cfa: sp 0 +
STACK CFI INIT 26af4 4 .cfa: sp 0 +
STACK CFI INIT 26af8 4 .cfa: sp 0 +
STACK CFI INIT 26afc 10 .cfa: sp 0 +
STACK CFI INIT 26b0c 1c .cfa: sp 0 +
STACK CFI INIT 26b28 c .cfa: sp 0 +
STACK CFI INIT 26b34 104 .cfa: sp 0 +
STACK CFI 26b38 .cfa: sp 64 +
STACK CFI 26b48 .cfa: x29 64 + x19: .cfa -8 + ^ x20: .cfa -16 + ^ x21: .cfa -24 + ^ x22: .cfa -32 + ^ x23: .cfa -48 + ^ .ra: .cfa -56 + ^ x29: .cfa -64 + ^
STACK CFI 26ba4 .cfa: sp 64 +
STACK CFI 26bb4 .cfa: sp 0 +
STACK CFI 26bb8 .cfa: x29 64 +
STACK CFI 26bd4 .cfa: sp 64 +
STACK CFI 26be4 .cfa: sp 0 +
STACK CFI 26be8 .cfa: x29 64 +
STACK CFI 26c24 .cfa: sp 64 +
STACK CFI 26c34 .cfa: sp 0 +
STACK CFI INIT 275e4 1c .cfa: sp 0 +
STACK CFI INIT 27988 50 .cfa: sp 0 +
STACK CFI 2798c .cfa: sp 32 +
STACK CFI 27994 .cfa: x29 32 + x19: .cfa -16 + ^ .ra: .cfa -24 + ^ x29: .cfa -32 + ^
STACK CFI 279ac .cfa: sp 32 +
STACK CFI 279b4 .cfa: sp 0 +
STACK CFI 279b8 .cfa: x29 32 +
STACK CFI 279cc .cfa: sp 32 +
STACK CFI 279d4 .cfa: sp 0 +
STACK CFI INIT 27a4c 7c .cfa: sp 0 +
STACK CFI 27a50 .cfa: sp 48 +
STACK CFI 27a5c .cfa: x29 48 + x19: .cfa -8 + ^ x20: .cfa -16 + ^ x21: .cfa -32 + ^ .ra: .cfa -40 + ^ x29: .cfa -48 + ^
STACK CFI 27aa8 .cfa: sp 48 +
STACK CFI 27ab4 .cfa: sp 0 +
STACK CFI 27ab8 .cfa: sp 48 +
STACK CFI 27ac4 .cfa: sp 0 +
STACK CFI INIT 27ac8 4 .cfa: sp 0 +
STACK CFI INIT 27acc 34 .cfa: sp 0 +
STACK CFI 27ad0 .cfa: sp 32 +
STACK CFI 27ad8 .cfa: x29 32 + x19: .cfa -16 + ^ .ra: .cfa -24 + ^ x29: .cfa -32 + ^
STACK CFI INIT 27b00 120 .cfa: sp 0 +
STACK CFI 27b04 .cfa: sp 64 +
STACK CFI 27b14 .cfa: x29 64 + x19: .cfa -8 + ^ x20: .cfa -16 + ^ x21: .cfa -24 + ^ x22: .cfa -32 + ^ x23: .cfa -40 + ^ x24: .cfa -48 + ^ .ra: .cfa -56 + ^ x29: .cfa -64 + ^
STACK CFI 27c0c .cfa: sp 64 +
STACK CFI 27c1c .cfa: sp 0 +
STACK CFI INIT 27c20 7c .cfa: sp 0 +
STACK CFI 27c24 .cfa: sp 32 +
STACK CFI 27c2c .cfa: x29 32 + x19: .cfa -8 + ^ x20: .cfa -16 + ^ .ra: .cfa -24 + ^ x29: .cfa -32 + ^
STACK CFI 27c84 .cfa: sp 32 +
STACK CFI 27c8c .cfa: sp 0 +
STACK CFI 27c90 .cfa: sp 32 +
STACK CFI 27c98 .cfa: sp 0 +
STACK CFI INIT 27c9c 1b0 .cfa: sp 0 +
STACK CFI INIT 281c8 68 .cfa: sp 0 +
STACK CFI 281cc .cfa: sp 32 +
STACK CFI 281d4 .cfa: x29 32 + x19: .cfa -8 + ^ x20: .cfa -16 + ^ .ra: .cfa -24 + ^ x29: .cfa -32 + ^
STACK CFI 281ec .cfa: sp 32 +
STACK CFI 281f4 .cfa: sp 0 +
STACK CFI 281f8 .cfa: x29 32 +
STACK CFI 28224 .cfa: sp 32 +
STACK CFI 2822c .cfa: sp 0 +
STACK CFI INIT 28230 14 .cfa: sp 0 +
STACK CFI 28234 .cfa: sp 16 +
STACK CFI 28238 .cfa: x29 16 + .ra: .cfa -8 + ^ x29: .cfa -16 + ^
STACK CFI INIT 28244 4 .cfa: sp 0 +
STACK CFI INIT 28248 14 .cfa: sp 0 +
STACK CFI INIT 2825c d4 .cfa: sp 0 +
STACK CFI 28260 .cfa: sp 48 +
STACK CFI 2826c .cfa: x29 48 + x19: .cfa -8 + ^ x20: .cfa -16 + ^ x21: .cfa -32 + ^ .ra: .cfa -40 + ^ x29: .cfa -48 + ^
STACK CFI 282fc .cfa: sp 48 +
STACK CFI 28308 .cfa: sp 0 +
STACK CFI 2830c .cfa: x29 48 +
STACK CFI INIT 28330 3c8 .cfa: sp 0 +
STACK CFI INIT 286f8 8c .cfa: sp 0 +
STACK CFI 28700 .cfa: sp 32 +
STACK CFI 28708 .cfa: x29 32 + x19: .cfa -8 + ^ x20: .cfa -16 + ^ .ra: .cfa -24 + ^ x29: .cfa -32 + ^
STACK CFI 28750 .cfa: sp 32 +
STACK CFI 28758 .cfa: sp 0 +
STACK CFI 28760 .cfa: x29 32 +
STACK CFI INIT 28a9c 50 .cfa: sp 0 +
STACK CFI 28aa0 .cfa: sp 32 +
STACK CFI 28aa8 .cfa: x29 32 + x19: .cfa -16 + ^ .ra: .cfa -24 + ^ x29: .cfa -32 + ^
STACK CFI 28ac0 .cfa: sp 32 +
STACK CFI 28ac8 .cfa: sp 0 +
STACK CFI 28acc .cfa: x29 32 +
STACK CFI 28ae0 .cfa: sp 32 +
STACK CFI 28ae8 .cfa: sp 0 +
STACK CFI INIT 28aec 64 .cfa: sp 0 +
STACK CFI 28af0 .cfa: sp 32 +
STACK CFI 28af8 .cfa: x29 32 + x19: .cfa -16 + ^ .ra: .cfa -24 + ^ x29: .cfa -32 + ^
STACK CFI 28b24 .cfa: sp 32 +
STACK CFI 28b2c .cfa: sp 0 +
STACK CFI 28b30 .cfa: x29 32 +
STACK CFI 28b44 .cfa: sp 32 +
STACK CFI 28b4c .cfa: sp 0 +
STACK CFI INIT 28c84 178 .cfa: sp 0 +
STACK CFI 28c88 .cfa: sp 80 +
STACK CFI 28c9c .cfa: x29 80 + x19: .cfa -8 + ^ x20: .cfa -16 + ^ x21: .cfa -24 + ^ x22: .cfa -32 + ^ x23: .cfa -40 + ^ x24: .cfa -48 + ^ x25: .cfa -56 + ^ x26: .cfa -64 + ^ .ra: .cfa -72 + ^ x29: .cfa -80 + ^
STACK CFI 28de4 .cfa: sp 80 +
STACK CFI 28df8 .cfa: sp 0 +
STACK CFI INIT 29238 1c .cfa: sp 0 +
STACK CFI INIT 295d4 4 .cfa: sp 0 +
STACK CFI INIT 29d98 1c .cfa: sp 0 +
STACK CFI INIT 2a164 4 .cfa: sp 0 +
STACK CFI INIT 2a904 1c .cfa: sp 0 +
STACK CFI INIT 2aca8 4 .cfa: sp 0 +
STACK CFI INIT 2b894 1c .cfa: sp 0 +
STACK CFI INIT 2bd30 1c .cfa: sp 0 +
STACK CFI INIT 2c0f4 4 .cfa: sp 0 +
STACK CFI INIT 2c0f8 34 .cfa: sp 0 +
STACK CFI 2c0fc .cfa: sp 32 +
STACK CFI 2c104 .cfa: x29 32 + x19: .cfa -16 + ^ .ra: .cfa -24 + ^ x29: .cfa -32 + ^
STACK CFI 2c120 .cfa: sp 32 +
STACK CFI 2c128 .cfa: sp 0 +
STACK CFI INIT 2c440 4 .cfa: sp 0 +
STACK CFI INIT 2c444 1d0 .cfa: sp 0 +
STACK CFI 2c448 .cfa: sp 32 +
STACK CFI 2c450 .cfa: x29 32 + x19: .cfa -8 + ^ x20: .cfa -16 + ^ .ra: .cfa -24 + ^ x29: .cfa -32 + ^
STACK CFI 2c540 .cfa: sp 32 +
STACK CFI 2c548 .cfa: sp 0 +
STACK CFI 2c54c .cfa: x29 32 +
STACK CFI 2c5dc .cfa: sp 32 +
STACK CFI 2c5e4 .cfa: sp 0 +
STACK CFI 2c5e8 .cfa: x29 32 +
STACK CFI 2c608 .cfa: sp 32 +
STACK CFI 2c610 .cfa: sp 0 +
STACK CFI INIT 2c6bc 80 .cfa: sp 0 +
STACK CFI 2c6c0 .cfa: sp 32 +
STACK CFI 2c6c8 .cfa: x29 32 + x19: .cfa -16 + ^ .ra: .cfa -24 + ^ x29: .cfa -32 + ^
STACK CFI 2c730 .cfa: sp 32 +
STACK CFI 2c738 .cfa: sp 0 +
STACK CFI INIT 2cb78 1c .cfa: sp 0 +
STACK CFI INIT 2d1c8 4 .cfa: sp 0 +
STACK CFI INIT 2d890 8 .cfa: sp 0 +
STACK CFI INIT 2dd04 24 .cfa: sp 0 +
STACK CFI 2dd08 .cfa: sp 32 +
STACK CFI 2dd10 .cfa: x29 32 + x19: .cfa -16 + ^ .ra: .cfa -24 + ^ x29: .cfa -32 + ^
STACK CFI 2dd1c .cfa: sp 32 +
STACK CFI 2dd24 .cfa: sp 0 +
STACK CFI INIT 2dd28 c .cfa: sp 0 +
STACK CFI INIT 2dd34 c .cfa: sp 0 +
STACK CFI INIT 2dd40 8 .cfa: sp 0 +
STACK CFI INIT 2dd48 8 .cfa: sp 0 +
STACK CFI INIT 2dd50 8 .cfa: sp 0 +
STACK CFI INIT 2dd58 8 .cfa: sp 0 +
STACK CFI INIT 2dd60 3c .cfa: sp 0 +
STACK CFI 2dd64 .cfa: sp 32 +
STACK CFI 2dd6c .cfa: x29 32 + x19: .cfa -16 + ^ .ra: .cfa -24 + ^ x29: .cfa -32 + ^
STACK CFI 2dd78 .cfa: sp 32 +
STACK CFI 2dd80 .cfa: sp 0 +
STACK CFI 2dd84 .cfa: x29 32 +
STACK CFI 2dd90 .cfa: sp 32 +
STACK CFI 2dd98 .cfa: sp 0 +
STACK CFI INIT 2dd9c 4c .cfa: sp 0 +
STACK CFI 2dda0 .cfa: sp 32 +
STACK CFI 2dda8 .cfa: x29 32 + x19: .cfa -8 + ^ x20: .cfa -16 + ^ .ra: .cfa -24 + ^ x29: .cfa -32 + ^
STACK CFI 2ddd0 .cfa: sp 32 +
STACK CFI 2ddd8 .cfa: sp 0 +
STACK CFI 2dddc .cfa: sp 32 +
STACK CFI 2dde4 .cfa: sp 0 +
STACK CFI INIT 2e008 64 .cfa: sp 0 +
STACK CFI 2e00c .cfa: sp 32 +
STACK CFI 2e014 .cfa: x29 32 + x19: .cfa -16 + ^ .ra: .cfa -24 + ^ x29: .cfa -32 + ^
STACK CFI 2e040 .cfa: sp 32 +
STACK CFI 2e048 .cfa: sp 0 +
STACK CFI 2e04c .cfa: x29 32 +
STACK CFI 2e060 .cfa: sp 32 +
STACK CFI 2e068 .cfa: sp 0 +
STACK CFI INIT 2e06c 24 .cfa: sp 0 +
STACK CFI 2e070 .cfa: sp 32 +
STACK CFI 2e078 .cfa: x29 32 + x19: .cfa -16 + ^ .ra: .cfa -24 + ^ x29: .cfa -32 + ^
STACK CFI 2e084 .cfa: sp 32 +
STACK CFI 2e08c .cfa: sp 0 +
STACK CFI INIT 2e2ec 24 .cfa: sp 0 +
STACK CFI 2e2f0 .cfa: sp 32 +
STACK CFI 2e2f8 .cfa: x29 32 + x19: .cfa -16 + ^ .ra: .cfa -24 + ^ x29: .cfa -32 + ^
STACK CFI 2e304 .cfa: sp 32 +
STACK CFI 2e30c .cfa: sp 0 +
STACK CFI INIT 2e310 24 .cfa: sp 0 +
STACK CFI 2e314 .cfa: sp 32 +
STACK CFI 2e31c .cfa: x29 32 + x19: .cfa -16 + ^ .ra: .cfa -24 + ^ x29: .cfa -32 + ^
STACK CFI 2e328 .cfa: sp 32 +
STACK CFI 2e330 .cfa: sp 0 +
STACK CFI INIT 2e334 8 .cfa: sp 0 +
STACK CFI INIT 2e33c 24 .cfa: sp 0 +
STACK CFI 2e340 .cfa: sp 32 +
STACK CFI 2e348 .cfa: x29 32 + x19: .cfa -16 + ^ .ra: .cfa -24 + ^ x29: .cfa -32 + ^
STACK CFI 2e354 .cfa: sp 32 +
STACK CFI 2e35c .cfa: sp 0 +
STACK CFI INIT 2e360 28 .cfa: sp 0 +
STACK CFI 2e364 .cfa: sp 32 +
STACK CFI 2e36c .cfa: x29 32 + x19: .cfa -16 + ^ .ra: .cfa -24 + ^ x29: .cfa -32 + ^
STACK CFI 2e37c .cfa: sp 32 +
STACK CFI 2e384 .cfa: sp 0 +
STACK CFI INIT 2e688 8 .cfa: sp 0 +
STACK CFI INIT 2e690 24 .cfa: sp 0 +
STACK CFI 2e694 .cfa: sp 32 +
STACK CFI 2e69c .cfa: x29 32 + x19: .cfa -16 + ^ .ra: .cfa -24 + ^ x29: .cfa -32 + ^
STACK CFI 2e6a8 .cfa: sp 32 +
STACK CFI 2e6b0 .cfa: sp 0 +
STACK CFI INIT 2e6b4 28 .cfa: sp 0 +
STACK CFI 2e6b8 .cfa: sp 32 +
STACK CFI 2e6c0 .cfa: x29 32 + x19: .cfa -16 + ^ .ra: .cfa -24 + ^ x29: .cfa -32 + ^
STACK CFI 2e6d0 .cfa: sp 32 +
STACK CFI 2e6d8 .cfa: sp 0 +
STACK CFI INIT 2e940 8 .cfa: sp 0 +
STACK CFI INIT 2e948 24 .cfa: sp 0 +
STACK CFI 2e94c .cfa: sp 32 +
STACK CFI 2e954 .cfa: x29 32 + x19: .cfa -16 + ^ .ra: .cfa -24 + ^ x29: .cfa -32 + ^
STACK CFI 2e960 .cfa: sp 32 +
STACK CFI 2e968 .cfa: sp 0 +
STACK CFI INIT 2e96c 28 .cfa: sp 0 +
STACK CFI 2e970 .cfa: sp 32 +
STACK CFI 2e978 .cfa: x29 32 + x19: .cfa -16 + ^ .ra: .cfa -24 + ^ x29: .cfa -32 + ^
STACK CFI 2e988 .cfa: sp 32 +
STACK CFI 2e990 .cfa: sp 0 +
STACK CFI INIT 2ebf4 24 .cfa: sp 0 +
STACK CFI 2ebf8 .cfa: sp 32 +
STACK CFI 2ec00 .cfa: x29 32 + x19: .cfa -16 + ^ .ra: .cfa -24 + ^ x29: .cfa -32 + ^
STACK CFI 2ec0c .cfa: sp 32 +
STACK CFI 2ec14 .cfa: sp 0 +
STACK CFI INIT 2ec18 8 .cfa: sp 0 +
STACK CFI INIT 2ec20 24 .cfa: sp 0 +
STACK CFI 2ec24 .cfa: sp 32 +
STACK CFI 2ec2c .cfa: x29 32 + x19: .cfa -16 + ^ .ra: .cfa -24 + ^ x29: .cfa -32 + ^
STACK CFI 2ec38 .cfa: sp 32 +
STACK CFI 2ec40 .cfa: sp 0 +
STACK CFI INIT 2ec44 28 .cfa: sp 0 +
STACK CFI 2ec48 .cfa: sp 32 +
STACK CFI 2ec50 .cfa: x29 32 + x19: .cfa -16 + ^ .ra: .cfa -24 + ^ x29: .cfa -32 + ^
STACK CFI 2ec60 .cfa: sp 32 +
STACK CFI 2ec68 .cfa: sp 0 +
STACK CFI INIT 2f1e4 4 .cfa: sp 0 +
STACK CFI INIT 2f1e8 4 .cfa: sp 0 +
STACK CFI INIT 2f1ec 8 .cfa: sp 0 +
STACK CFI INIT 2f1f4 4 .cfa: sp 0 +
STACK CFI INIT 2f1f8 8 .cfa: sp 0 +
STACK CFI INIT 303a0 4 .cfa: sp 0 +
STACK CFI INIT 303a4 14 .cfa: sp 0 +
STACK CFI INIT 308c4 c .cfa: sp 0 +
STACK CFI INIT 308d0 24c .cfa: sp 0 +
STACK CFI INIT 30b1c a0 .cfa: sp 0 +
STACK CFI 30b28 .cfa: sp 32 +
STACK CFI 30b80 .cfa: sp 0 +
STACK CFI 30b84 .cfa: sp 32 +
STACK CFI 30b8c .cfa: sp 0 +
STACK CFI 30b90 .cfa: sp 32 +
STACK CFI 30ba4 .cfa: sp 0 +
STACK CFI 30ba8 .cfa: sp 32 +
STACK CFI 30bb8 .cfa: sp 0 +
STACK CFI INIT 30bbc 38 .cfa: sp 0 +
STACK CFI 30bc8 .cfa: sp 32 +
STACK CFI 30bf0 .cfa: sp 0 +
STACK CFI INIT 30e88 7c .cfa: sp 0 +
STACK CFI 30e8c .cfa: sp 32 +
STACK CFI 30e94 .cfa: x29 32 + x19: .cfa -16 + ^ .ra: .cfa -24 + ^ x29: .cfa -32 + ^
STACK CFI 30ec0 .cfa: sp 32 +
STACK CFI 30ec8 .cfa: sp 0 +
STACK CFI 30ecc .cfa: x29 32 +
STACK CFI 30ef8 .cfa: sp 32 +
STACK CFI 30f00 .cfa: sp 0 +
STACK CFI INIT 30f54 2c .cfa: sp 0 +
STACK CFI 30f58 .cfa: sp 32 +
STACK CFI 30f60 .cfa: x29 32 + x19: .cfa -16 + ^ .ra: .cfa -24 + ^ x29: .cfa -32 + ^
STACK CFI 30f74 .cfa: sp 32 +
STACK CFI 30f7c .cfa: sp 0 +
STACK CFI INIT 31740 64 .cfa: sp 0 +
STACK CFI 31744 .cfa: sp 32 +
STACK CFI 3174c .cfa: x29 32 + x19: .cfa -16 + ^ .ra: .cfa -24 + ^ x29: .cfa -32 + ^
STACK CFI 31768 .cfa: sp 32 +
STACK CFI 31770 .cfa: sp 0 +
STACK CFI 31774 .cfa: x29 32 +
STACK CFI 31798 .cfa: sp 32 +
STACK CFI 317a0 .cfa: sp 0 +
STACK CFI INIT 317a4 570 .cfa: sp 0 +
STACK CFI 317a8 .cfa: sp 176 +
STACK CFI 317bc .cfa: x29 64 + x19: .cfa -8 + ^ x20: .cfa -16 + ^ x21: .cfa -24 + ^ x22: .cfa -32 + ^ x23: .cfa -40 + ^ x24: .cfa -48 + ^ .ra: .cfa -56 + ^ x29: .cfa -64 + ^
STACK CFI 319ec .cfa: sp 176 +
STACK CFI 31a00 .cfa: sp 0 +
STACK CFI 31a04 .cfa: x29 64 +
STACK CFI 31a50 .cfa: sp 176 +
STACK CFI 31a64 .cfa: sp 0 +
STACK CFI 31a68 .cfa: x29 64 +
STACK CFI 31aa0 .cfa: sp 176 +
STACK CFI 31ab4 .cfa: sp 0 +
STACK CFI 31ab8 .cfa: x29 64 +
STACK CFI 31ad0 .cfa: sp 176 +
STACK CFI 31ae4 .cfa: sp 0 +
STACK CFI 31ae8 .cfa: x29 64 +
STACK CFI 31b08 .cfa: sp 176 +
STACK CFI 31b1c .cfa: sp 0 +
STACK CFI 31b20 .cfa: x29 64 +
STACK CFI 31b38 .cfa: sp 176 +
STACK CFI 31b4c .cfa: sp 0 +
STACK CFI 31b50 .cfa: x29 64 +
STACK CFI 31b64 .cfa: sp 176 +
STACK CFI 31b78 .cfa: sp 0 +
STACK CFI 31b7c .cfa: x29 64 +
STACK CFI 31b90 .cfa: sp 176 +
STACK CFI 31ba4 .cfa: sp 0 +
STACK CFI 31ba8 .cfa: x29 64 +
STACK CFI 31bb8 .cfa: sp 176 +
STACK CFI 31bcc .cfa: sp 0 +
STACK CFI 31bd0 .cfa: x29 64 +
STACK CFI 31be0 .cfa: sp 176 +
STACK CFI 31bf4 .cfa: sp 0 +
STACK CFI 31bf8 .cfa: x29 64 +
STACK CFI 31c10 .cfa: sp 176 +
STACK CFI 31c24 .cfa: sp 0 +
STACK CFI 31c28 .cfa: x29 64 +
STACK CFI 31c3c .cfa: sp 176 +
STACK CFI 31c50 .cfa: sp 0 +
STACK CFI 31c54 .cfa: x29 64 +
STACK CFI 31c6c .cfa: sp 176 +
STACK CFI 31c80 .cfa: sp 0 +
STACK CFI 31c84 .cfa: x29 64 +
STACK CFI 31cb0 .cfa: sp 176 +
STACK CFI 31cc4 .cfa: sp 0 +
STACK CFI 31cc8 .cfa: x29 64 +
STACK CFI 31cdc .cfa: sp 176 +
STACK CFI 31cf0 .cfa: sp 0 +
STACK CFI 31cf4 .cfa: x29 64 +
STACK CFI INIT 31d14 228 .cfa: sp 0 +
STACK CFI INIT 31f3c 2dc .cfa: sp 0 +
STACK CFI INIT 32218 53c .cfa: sp 0 +
STACK CFI INIT 32754 78 .cfa: sp 0 +
STACK CFI 32758 .cfa: sp 48 +
STACK CFI 32764 .cfa: x29 48 + x19: .cfa -8 + ^ x20: .cfa -16 + ^ x21: .cfa -24 + ^ x22: .cfa -32 + ^ .ra: .cfa -40 + ^ x29: .cfa -48 + ^
STACK CFI 327ac .cfa: sp 48 +
STACK CFI 327b8 .cfa: sp 0 +
STACK CFI 327bc .cfa: sp 48 +
STACK CFI 327c8 .cfa: sp 0 +
STACK CFI INIT 327cc 8c .cfa: sp 0 +
STACK CFI 327d0 .cfa: sp 32 +
STACK CFI 327d8 .cfa: x29 32 + x19: .cfa -16 + ^ .ra: .cfa -24 + ^ x29: .cfa -32 + ^
STACK CFI 3280c .cfa: sp 32 +
STACK CFI 32814 .cfa: sp 0 +
STACK CFI 32818 .cfa: x29 32 +
STACK CFI 3284c .cfa: sp 32 +
STACK CFI 32854 .cfa: sp 0 +
STACK CFI INIT 32858 24 .cfa: sp 0 +
STACK CFI 3285c .cfa: sp 32 +
STACK CFI 32864 .cfa: x29 32 + x19: .cfa -16 + ^ .ra: .cfa -24 + ^ x29: .cfa -32 + ^
STACK CFI 32870 .cfa: sp 32 +
STACK CFI 32878 .cfa: sp 0 +
STACK CFI INIT 3287c 150 .cfa: sp 0 +
STACK CFI 32880 .cfa: sp 48 +
STACK CFI 3288c .cfa: x29 48 + x19: .cfa -8 + ^ x20: .cfa -16 + ^ x21: .cfa -24 + ^ x22: .cfa -32 + ^ .ra: .cfa -40 + ^ x29: .cfa -48 + ^
STACK CFI 329bc .cfa: sp 48 +
STACK CFI 329c8 .cfa: sp 0 +
STACK CFI INIT 329cc 68 .cfa: sp 0 +
STACK CFI 329d0 .cfa: sp 64 +
STACK CFI 329dc .cfa: x29 32 + x19: .cfa -16 + ^ .ra: .cfa -24 + ^ x29: .cfa -32 + ^
STACK CFI 32a20 .cfa: sp 64 +
STACK CFI 32a2c .cfa: sp 0 +
STACK CFI 32a30 .cfa: x29 32 +
STACK CFI INIT 32a34 90 .cfa: sp 0 +
STACK CFI 32a38 .cfa: sp 32 +
STACK CFI 32a40 .cfa: x29 32 + x19: .cfa -8 + ^ x20: .cfa -16 + ^ .ra: .cfa -24 + ^ x29: .cfa -32 + ^
STACK CFI 32a6c .cfa: sp 32 +
STACK CFI 32a74 .cfa: sp 0 +
STACK CFI 32a78 .cfa: x29 32 +
STACK CFI 32ab8 .cfa: sp 32 +
STACK CFI 32ac0 .cfa: sp 0 +
STACK CFI INIT 32ac4 ec .cfa: sp 0 +
STACK CFI 32ac8 .cfa: sp 112 +
STACK CFI 32ad8 .cfa: x29 48 + x19: .cfa -8 + ^ x20: .cfa -16 + ^ x21: .cfa -32 + ^ .ra: .cfa -40 + ^ x29: .cfa -48 + ^
STACK CFI 32b98 .cfa: sp 112 +
STACK CFI 32ba8 .cfa: sp 0 +
STACK CFI 32bac .cfa: x29 48 +
STACK CFI INIT 32bb0 ec .cfa: sp 0 +
STACK CFI 32bb4 .cfa: sp 112 +
STACK CFI 32bc4 .cfa: x29 48 + x19: .cfa -8 + ^ x20: .cfa -16 + ^ x21: .cfa -32 + ^ .ra: .cfa -40 + ^ x29: .cfa -48 + ^
STACK CFI 32c84 .cfa: sp 112 +
STACK CFI 32c94 .cfa: sp 0 +
STACK CFI 32c98 .cfa: x29 48 +
STACK CFI INIT 32c9c 48 .cfa: sp 0 +
STACK CFI 32ca0 .cfa: sp 32 +
STACK CFI 32ca8 .cfa: x29 32 + x19: .cfa -8 + ^ x20: .cfa -16 + ^ .ra: .cfa -24 + ^ x29: .cfa -32 + ^
STACK CFI 32ccc .cfa: sp 32 +
STACK CFI 32cd4 .cfa: sp 0 +
STACK CFI 32cd8 .cfa: x29 32 +
STACK CFI INIT 32ce4 98 .cfa: sp 0 +
STACK CFI 32ce8 .cfa: sp 80 +
STACK CFI 32cf4 .cfa: x29 32 + x19: .cfa -16 + ^ .ra: .cfa -24 + ^ x29: .cfa -32 + ^
STACK CFI 32d68 .cfa: sp 80 +
STACK CFI 32d74 .cfa: sp 0 +
STACK CFI 32d78 .cfa: x29 32 +
STACK CFI INIT 32d7c 260 .cfa: sp 0 +
STACK CFI 32d80 .cfa: sp 112 +
STACK CFI 32d98 .cfa: x29 80 + x19: .cfa -8 + ^ x20: .cfa -16 + ^ x21: .cfa -24 + ^ x22: .cfa -32 + ^ x23: .cfa -40 + ^ x24: .cfa -48 + ^ x25: .cfa -64 + ^ .ra: .cfa -72 + ^ x29: .cfa -80 + ^
STACK CFI 32f7c .cfa: sp 112 +
STACK CFI 32f94 .cfa: sp 0 +
STACK CFI 32f98 .cfa: x29 80 +
STACK CFI INIT 32fdc 150 .cfa: sp 0 +
STACK CFI 32fe0 .cfa: sp 48 +
STACK CFI 32fec .cfa: x29 48 + x19: .cfa -8 + ^ x20: .cfa -16 + ^ x21: .cfa -24 + ^ x22: .cfa -32 + ^ .ra: .cfa -40 + ^ x29: .cfa -48 + ^
STACK CFI 3311c .cfa: sp 48 +
STACK CFI 33128 .cfa: sp 0 +
STACK CFI INIT 3312c 1e0 .cfa: sp 0 +
STACK CFI 33130 .cfa: sp 96 +
STACK CFI 33144 .cfa: x29 64 + x19: .cfa -8 + ^ x20: .cfa -16 + ^ x21: .cfa -24 + ^ x22: .cfa -32 + ^ x23: .cfa -40 + ^ x24: .cfa -48 + ^ .ra: .cfa -56 + ^ x29: .cfa -64 + ^
STACK CFI 332c4 .cfa: sp 96 +
STACK CFI 332d8 .cfa: sp 0 +
STACK CFI 332dc .cfa: x29 64 +
STACK CFI INIT 3330c 284 .cfa: sp 0 +
STACK CFI 33310 .cfa: sp 112 +
STACK CFI 33328 .cfa: x29 80 + x19: .cfa -8 + ^ x20: .cfa -16 + ^ x21: .cfa -24 + ^ x22: .cfa -32 + ^ x23: .cfa -40 + ^ x24: .cfa -48 + ^ x25: .cfa -64 + ^ .ra: .cfa -72 + ^ x29: .cfa -80 + ^
STACK CFI 33530 .cfa: sp 112 +
STACK CFI 33548 .cfa: sp 0 +
STACK CFI 3354c .cfa: x29 80 +
STACK CFI INIT 33590 208 .cfa: sp 0 +
STACK CFI 33594 .cfa: sp 96 +
STACK CFI 335a8 .cfa: x29 64 + x19: .cfa -8 + ^ x20: .cfa -16 + ^ x21: .cfa -24 + ^ x22: .cfa -32 + ^ x23: .cfa -40 + ^ x24: .cfa -48 + ^ .ra: .cfa -56 + ^ x29: .cfa -64 + ^
STACK CFI 33750 .cfa: sp 96 +
STACK CFI 33764 .cfa: sp 0 +
STACK CFI 33768 .cfa: x29 64 +
STACK CFI INIT 33798 360 .cfa: sp 0 +
STACK CFI 3379c .cfa: sp 160 +
STACK CFI 337b8 .cfa: x29 96 + x19: .cfa -8 + ^ x20: .cfa -16 + ^ x21: .cfa -24 + ^ x22: .cfa -32 + ^ x23: .cfa -40 + ^ x24: .cfa -48 + ^ x25: .cfa -56 + ^ x26: .cfa -64 + ^ x27: .cfa -72 + ^ x28: .cfa -80 + ^ .ra: .cfa -88 + ^ x29: .cfa -96 + ^
STACK CFI 33a84 .cfa: sp 160 +
STACK CFI 33aa0 .cfa: sp 0 +
STACK CFI 33aa4 .cfa: x29 96 +
STACK CFI INIT 33af8 314 .cfa: sp 0 +
STACK CFI 33afc .cfa: sp 144 +
STACK CFI 33b18 .cfa: x29 96 + x19: .cfa -8 + ^ x20: .cfa -16 + ^ x21: .cfa -24 + ^ x22: .cfa -32 + ^ x23: .cfa -40 + ^ x24: .cfa -48 + ^ x25: .cfa -56 + ^ x26: .cfa -64 + ^ x27: .cfa -72 + ^ x28: .cfa -80 + ^ .ra: .cfa -88 + ^ x29: .cfa -96 + ^
STACK CFI 33d94 .cfa: sp 144 +
STACK CFI 33db0 .cfa: sp 0 +
STACK CFI 33db4 .cfa: x29 96 +
STACK CFI INIT 33e0c 290 .cfa: sp 0 +
STACK CFI 33e10 .cfa: sp 128 +
STACK CFI 33e28 .cfa: x29 80 + x19: .cfa -8 + ^ x20: .cfa -16 + ^ x21: .cfa -24 + ^ x22: .cfa -32 + ^ x23: .cfa -40 + ^ x24: .cfa -48 + ^ x25: .cfa -56 + ^ x26: .cfa -64 + ^ .ra: .cfa -72 + ^ x29: .cfa -80 + ^
STACK CFI 3407c .cfa: sp 128 +
STACK CFI 34094 .cfa: sp 0 +
STACK CFI 34098 .cfa: x29 80 +
STACK CFI INIT 3409c ddc .cfa: sp 0 +
STACK CFI 340a0 .cfa: sp 144 +
STACK CFI 340bc .cfa: x29 96 + x19: .cfa -8 + ^ x20: .cfa -16 + ^ x21: .cfa -24 + ^ x22: .cfa -32 + ^ x23: .cfa -40 + ^ x24: .cfa -48 + ^ x25: .cfa -56 + ^ x26: .cfa -64 + ^ x27: .cfa -72 + ^ x28: .cfa -80 + ^ .ra: .cfa -88 + ^ x29: .cfa -96 + ^
STACK CFI 34d50 .cfa: sp 144 +
STACK CFI 34d6c .cfa: sp 0 +
STACK CFI 34d70 .cfa: x29 96 +
STACK CFI INIT 34e78 1d0 .cfa: sp 0 +
STACK CFI 34e7c .cfa: sp 80 +
STACK CFI 34e90 .cfa: x29 80 + x19: .cfa -8 + ^ x20: .cfa -16 + ^ x21: .cfa -24 + ^ x22: .cfa -32 + ^ x23: .cfa -40 + ^ x24: .cfa -48 + ^ x25: .cfa -64 + ^ .ra: .cfa -72 + ^ x29: .cfa -80 + ^
STACK CFI 35030 .cfa: sp 80 +
STACK CFI 35044 .cfa: sp 0 +
STACK CFI INIT 35048 23c .cfa: sp 0 +
STACK CFI 3504c .cfa: sp 112 +
STACK CFI 35060 .cfa: x29 64 + x19: .cfa -8 + ^ x20: .cfa -16 + ^ x21: .cfa -24 + ^ x22: .cfa -32 + ^ x23: .cfa -40 + ^ x24: .cfa -48 + ^ .ra: .cfa -56 + ^ x29: .cfa -64 + ^
STACK CFI 3523c .cfa: sp 112 +
STACK CFI 35250 .cfa: sp 0 +
STACK CFI 35254 .cfa: x29 64 +
STACK CFI INIT 35284 30c .cfa: sp 0 +
STACK CFI 35288 .cfa: sp 80 +
STACK CFI 3529c .cfa: x29 64 + x19: .cfa -8 + ^ x20: .cfa -16 + ^ x21: .cfa -24 + ^ x22: .cfa -32 + ^ x23: .cfa -40 + ^ x24: .cfa -48 + ^ .ra: .cfa -56 + ^ x29: .cfa -64 + ^
STACK CFI 35418 .cfa: sp 80 +
STACK CFI 3542c .cfa: sp 0 +
STACK CFI 35430 .cfa: x29 64 +
STACK CFI INIT 35590 178 .cfa: sp 0 +
STACK CFI 35594 .cfa: sp 80 +
STACK CFI 355a8 .cfa: x29 64 + x19: .cfa -8 + ^ x20: .cfa -16 + ^ x21: .cfa -24 + ^ x22: .cfa -32 + ^ x23: .cfa -40 + ^ x24: .cfa -48 + ^ .ra: .cfa -56 + ^ x29: .cfa -64 + ^
STACK CFI 356ec .cfa: sp 80 +
STACK CFI 35700 .cfa: sp 0 +
STACK CFI 35704 .cfa: x29 64 +
STACK CFI INIT 35708 178 .cfa: sp 0 +
STACK CFI 3570c .cfa: sp 80 +
STACK CFI 35720 .cfa: x29 64 + x19: .cfa -8 + ^ x20: .cfa -16 + ^ x21: .cfa -24 + ^ x22: .cfa -32 + ^ x23: .cfa -40 + ^ x24: .cfa -48 + ^ .ra: .cfa -56 + ^ x29: .cfa -64 + ^
STACK CFI 35864 .cfa: sp 80 +
STACK CFI 35878 .cfa: sp 0 +
STACK CFI 3587c .cfa: x29 64 +
STACK CFI INIT 35880 240 .cfa: sp 0 +
STACK CFI 35884 .cfa: sp 96 +
STACK CFI 3589c .cfa: x29 96 + x19: .cfa -8 + ^ x20: .cfa -16 + ^ x21: .cfa -24 + ^ x22: .cfa -32 + ^ x23: .cfa -40 + ^ x24: .cfa -48 + ^ x25: .cfa -56 + ^ x26: .cfa -64 + ^ x27: .cfa -72 + ^ x28: .cfa -80 + ^ .ra: .cfa -88 + ^ x29: .cfa -96 + ^
STACK CFI 35aa4 .cfa: sp 96 +
STACK CFI 35abc .cfa: sp 0 +
STACK CFI INIT 36734 154 .cfa: sp 0 +
STACK CFI 36738 .cfa: sp 96 +
STACK CFI 3674c .cfa: x29 64 + x19: .cfa -8 + ^ x20: .cfa -16 + ^ x21: .cfa -24 + ^ x22: .cfa -32 + ^ x23: .cfa -48 + ^ .ra: .cfa -56 + ^ x29: .cfa -64 + ^
STACK CFI 3682c .cfa: sp 96 +
STACK CFI 36840 .cfa: sp 0 +
STACK CFI 36844 .cfa: x29 64 +
STACK CFI INIT 36af4 44 .cfa: sp 0 +
STACK CFI 36af8 .cfa: sp 32 +
STACK CFI 36b00 .cfa: x29 32 + x19: .cfa -16 + ^ .ra: .cfa -24 + ^ x29: .cfa -32 + ^
STACK CFI 36b1c .cfa: sp 32 +
STACK CFI 36b24 .cfa: sp 0 +
STACK CFI 36b28 .cfa: x29 32 +
STACK CFI 36b2c .cfa: sp 32 +
STACK CFI 36b34 .cfa: sp 0 +
STACK CFI INIT 36b38 1d0 .cfa: sp 0 +
STACK CFI 36b3c .cfa: sp 64 +
STACK CFI 36b4c .cfa: x29 64 + x19: .cfa -8 + ^ x20: .cfa -16 + ^ x21: .cfa -24 + ^ x22: .cfa -32 + ^ x23: .cfa -40 + ^ x24: .cfa -48 + ^ .ra: .cfa -56 + ^ x29: .cfa -64 + ^
STACK CFI 36c0c .cfa: sp 64 +
STACK CFI 36c1c .cfa: sp 0 +
STACK CFI 36c20 .cfa: x29 64 +
STACK CFI INIT 36d08 17c .cfa: sp 0 +
STACK CFI INIT 36e84 ac .cfa: sp 0 +
STACK CFI 36e88 .cfa: sp 64 +
STACK CFI 36e98 .cfa: x29 64 + x19: .cfa -8 + ^ x20: .cfa -16 + ^ x21: .cfa -24 + ^ x22: .cfa -32 + ^ x23: .cfa -48 + ^ .ra: .cfa -56 + ^ x29: .cfa -64 + ^
STACK CFI 36f14 .cfa: sp 64 +
STACK CFI 36f24 .cfa: sp 0 +
STACK CFI 36f28 .cfa: x29 64 +
STACK CFI INIT 36f30 110 .cfa: sp 0 +
STACK CFI 36f34 .cfa: sp 64 +
STACK CFI 36f44 .cfa: x29 64 + x19: .cfa -8 + ^ x20: .cfa -16 + ^ x21: .cfa -24 + ^ x22: .cfa -32 + ^ x23: .cfa -40 + ^ x24: .cfa -48 + ^ .ra: .cfa -56 + ^ x29: .cfa -64 + ^
STACK CFI 37024 .cfa: sp 64 +
STACK CFI 37034 .cfa: sp 0 +
STACK CFI 37038 .cfa: x29 64 +
STACK CFI INIT 373f8 a0 .cfa: sp 0 +
STACK CFI 373fc .cfa: sp 48 +
STACK CFI 37408 .cfa: x29 48 + x19: .cfa -8 + ^ x20: .cfa -16 + ^ x21: .cfa -24 + ^ x22: .cfa -32 + ^ .ra: .cfa -40 + ^ x29: .cfa -48 + ^
STACK CFI 37474 .cfa: sp 48 +
STACK CFI 37480 .cfa: sp 0 +
STACK CFI 37484 .cfa: sp 48 +
STACK CFI 37490 .cfa: sp 0 +
STACK CFI 37494 .cfa: x29 48 +
STACK CFI INIT 3814c 158 .cfa: sp 0 +
STACK CFI 38150 .cfa: sp 96 +
STACK CFI 38164 .cfa: x29 64 + x19: .cfa -8 + ^ x20: .cfa -16 + ^ x21: .cfa -24 + ^ x22: .cfa -32 + ^ x23: .cfa -48 + ^ .ra: .cfa -56 + ^ x29: .cfa -64 + ^
STACK CFI 38248 .cfa: sp 96 +
STACK CFI 3825c .cfa: sp 0 +
STACK CFI 38260 .cfa: x29 64 +
STACK CFI INIT 382a4 190 .cfa: sp 0 +
STACK CFI INIT 38f30 1dc .cfa: sp 0 +
STACK CFI 38f34 .cfa: sp 80 +
STACK CFI 38f48 .cfa: x29 80 + x19: .cfa -8 + ^ x20: .cfa -16 + ^ x21: .cfa -24 + ^ x22: .cfa -32 + ^ x23: .cfa -40 + ^ x24: .cfa -48 + ^ x25: .cfa -64 + ^ .ra: .cfa -72 + ^ x29: .cfa -80 + ^
STACK CFI 390f4 .cfa: sp 80 +
STACK CFI 39108 .cfa: sp 0 +
STACK CFI INIT 3a53c 124 .cfa: sp 0 +
STACK CFI 3a56c .cfa: sp 32 +
STACK CFI 3a574 .cfa: x29 32 + x19: .cfa -8 + ^ x20: .cfa -16 + ^ .ra: .cfa -24 + ^ x29: .cfa -32 + ^
STACK CFI 3a654 .cfa: sp 32 +
STACK CFI 3a65c .cfa: sp 0 +
STACK CFI INIT 3adbc 320 .cfa: sp 0 +
STACK CFI 3adc0 .cfa: sp 64 +
STACK CFI 3add0 .cfa: x29 64 + x19: .cfa -8 + ^ x20: .cfa -16 + ^ x21: .cfa -24 + ^ x22: .cfa -32 + ^ x23: .cfa -40 + ^ x24: .cfa -48 + ^ .ra: .cfa -56 + ^ x29: .cfa -64 + ^
STACK CFI 3ae4c .cfa: sp 64 +
STACK CFI 3ae5c .cfa: sp 0 +
STACK CFI 3ae60 .cfa: x29 64 +
STACK CFI 3b034 .cfa: sp 64 +
STACK CFI 3b044 .cfa: sp 0 +
STACK CFI 3b048 .cfa: x29 64 +
STACK CFI 3b058 .cfa: sp 64 +
STACK CFI 3b068 .cfa: sp 0 +
STACK CFI 3b06c .cfa: x29 64 +
STACK CFI INIT 3b0dc a0 .cfa: sp 0 +
STACK CFI 3b0e0 .cfa: sp 48 +
STACK CFI 3b0ec .cfa: x29 48 + x19: .cfa -8 + ^ x20: .cfa -16 + ^ x21: .cfa -24 + ^ x22: .cfa -32 + ^ .ra: .cfa -40 + ^ x29: .cfa -48 + ^
STACK CFI 3b158 .cfa: sp 48 +
STACK CFI 3b164 .cfa: sp 0 +
STACK CFI 3b168 .cfa: sp 48 +
STACK CFI 3b174 .cfa: sp 0 +
STACK CFI 3b178 .cfa: x29 48 +
STACK CFI INIT 3c02c 160 .cfa: sp 0 +
STACK CFI 3c030 .cfa: sp 64 +
STACK CFI 3c040 .cfa: x29 64 + x19: .cfa -8 + ^ x20: .cfa -16 + ^ x21: .cfa -24 + ^ x22: .cfa -32 + ^ x23: .cfa -48 + ^ .ra: .cfa -56 + ^ x29: .cfa -64 + ^
STACK CFI 3c138 .cfa: sp 64 +
STACK CFI 3c148 .cfa: sp 0 +
STACK CFI 3c14c .cfa: x29 64 +
STACK CFI INIT 3c18c 214 .cfa: sp 0 +
STACK CFI 3c190 .cfa: sp 128 +
STACK CFI 3c1ac .cfa: x29 96 + x19: .cfa -8 + ^ x20: .cfa -16 + ^ x21: .cfa -24 + ^ x22: .cfa -32 + ^ x23: .cfa -40 + ^ x24: .cfa -48 + ^ x25: .cfa -56 + ^ x26: .cfa -64 + ^ x27: .cfa -80 + ^ .ra: .cfa -88 + ^ x29: .cfa -96 + ^
STACK CFI 3c328 .cfa: sp 128 +
STACK CFI 3c344 .cfa: sp 0 +
STACK CFI 3c348 .cfa: x29 96 +
STACK CFI INIT 3e03c 290 .cfa: sp 0 +
STACK CFI 3e040 .cfa: sp 16 +
STACK CFI 3e044 .cfa: x29 16 + .ra: .cfa -8 + ^ x29: .cfa -16 + ^
STACK CFI 3e0d0 .cfa: sp 16 +
STACK CFI 3e0d4 .cfa: sp 0 +
STACK CFI 3e0d8 .cfa: x29 16 +
STACK CFI 3e128 .cfa: sp 16 +
STACK CFI 3e12c .cfa: sp 0 +
STACK CFI 3e130 .cfa: x29 16 +
STACK CFI 3e294 .cfa: sp 16 +
STACK CFI 3e298 .cfa: sp 0 +
STACK CFI 3e29c .cfa: x29 16 +
STACK CFI INIT 3e2cc 158 .cfa: sp 0 +
STACK CFI 3e2d0 .cfa: sp 112 +
STACK CFI 3e2ec .cfa: x29 96 + x19: .cfa -8 + ^ x20: .cfa -16 + ^ x21: .cfa -24 + ^ x22: .cfa -32 + ^ x23: .cfa -40 + ^ x24: .cfa -48 + ^ x25: .cfa -56 + ^ x26: .cfa -64 + ^ x27: .cfa -72 + ^ x28: .cfa -80 + ^ .ra: .cfa -88 + ^ x29: .cfa -96 + ^
STACK CFI 3e3d4 .cfa: sp 112 +
STACK CFI 3e3d8 .cfa: x29 96 +
STACK CFI 3e3e0 .cfa: sp 112 +
STACK CFI 3e3fc .cfa: sp 0 +
STACK CFI 3e400 .cfa: x29 96 +
STACK CFI 3e420 .cfa: sp 112 +
STACK CFI INIT 3e424 e54 .cfa: sp 0 +
STACK CFI 3e428 .cfa: sp 192 +
STACK CFI 3e444 .cfa: x29 96 + x19: .cfa -8 + ^ x20: .cfa -16 + ^ x21: .cfa -24 + ^ x22: .cfa -32 + ^ x23: .cfa -40 + ^ x24: .cfa -48 + ^ x25: .cfa -56 + ^ x26: .cfa -64 + ^ x27: .cfa -72 + ^ x28: .cfa -80 + ^ .ra: .cfa -88 + ^ x29: .cfa -96 + ^
STACK CFI 3f160 .cfa: sp 192 +
STACK CFI 3f17c .cfa: sp 0 +
STACK CFI 3f180 .cfa: x29 96 +
STACK CFI INIT 3f278 1068 .cfa: sp 0 +
STACK CFI 3f27c .cfa: sp 288 +
STACK CFI 3f298 .cfa: x29 96 + x19: .cfa -8 + ^ x20: .cfa -16 + ^ x21: .cfa -24 + ^ x22: .cfa -32 + ^ x23: .cfa -40 + ^ x24: .cfa -48 + ^ x25: .cfa -56 + ^ x26: .cfa -64 + ^ x27: .cfa -72 + ^ x28: .cfa -80 + ^ .ra: .cfa -88 + ^ x29: .cfa -96 + ^
STACK CFI 40028 .cfa: sp 288 +
STACK CFI 40044 .cfa: sp 0 +
STACK CFI 40048 .cfa: x29 96 +
STACK CFI INIT 402e0 520 .cfa: sp 0 +
STACK CFI 402e4 .cfa: sp 144 +
STACK CFI 40300 .cfa: x29 96 + x19: .cfa -8 + ^ x20: .cfa -16 + ^ x21: .cfa -24 + ^ x22: .cfa -32 + ^ x23: .cfa -40 + ^ x24: .cfa -48 + ^ x25: .cfa -56 + ^ x26: .cfa -64 + ^ x27: .cfa -72 + ^ x28: .cfa -80 + ^ .ra: .cfa -88 + ^ x29: .cfa -96 + ^
STACK CFI 407dc .cfa: sp 144 +
STACK CFI 407f8 .cfa: sp 0 +
STACK CFI 407fc .cfa: x29 96 +
STACK CFI INIT 411a0 136c .cfa: sp 0 +
STACK CFI 411a4 .cfa: sp 224 +
STACK CFI 411c0 .cfa: x29 96 + x19: .cfa -8 + ^ x20: .cfa -16 + ^ x21: .cfa -24 + ^ x22: .cfa -32 + ^ x23: .cfa -40 + ^ x24: .cfa -48 + ^ x25: .cfa -56 + ^ x26: .cfa -64 + ^ x27: .cfa -72 + ^ x28: .cfa -80 + ^ .ra: .cfa -88 + ^ x29: .cfa -96 + ^
STACK CFI 424e8 .cfa: sp 224 +
STACK CFI 42504 .cfa: sp 0 +
STACK CFI 42508 .cfa: x29 96 +
STACK CFI INIT 4250c 1b8 .cfa: sp 0 +
STACK CFI INIT 23c90 314 .cfa: sp 0 +
STACK CFI 23c94 .cfa: sp 96 +
STACK CFI 23cac .cfa: x29 56 + x19: .cfa -8 + ^ x20: .cfa -16 + ^ x21: .cfa -24 + ^ x22: .cfa -32 + ^ x23: .cfa -40 + ^ .ra: .cfa -48 + ^ x29: .cfa -56 + ^ v8: .cfa -64 + ^
STACK CFI 23ef0 .cfa: sp 96 +
STACK CFI 23f08 .cfa: sp 0 +
STACK CFI 23f0c .cfa: x29 56 +
STACK CFI INIT 24280 138 .cfa: sp 0 +
STACK CFI 24284 .cfa: sp 80 +
STACK CFI 24294 .cfa: x29 48 + x19: .cfa -8 + ^ x20: .cfa -16 + ^ x21: .cfa -24 + ^ x22: .cfa -32 + ^ .ra: .cfa -40 + ^ x29: .cfa -48 + ^
STACK CFI 2437c .cfa: sp 80 +
STACK CFI 2438c .cfa: sp 0 +
STACK CFI 24390 .cfa: x29 48 +
STACK CFI INIT 243d0 360 .cfa: sp 0 +
STACK CFI 243d4 .cfa: sp 96 +
STACK CFI 243e4 .cfa: x29 48 + x19: .cfa -8 + ^ x20: .cfa -16 + ^ x21: .cfa -32 + ^ .ra: .cfa -40 + ^ x29: .cfa -48 + ^
STACK CFI 246e4 .cfa: sp 96 +
STACK CFI 246f4 .cfa: sp 0 +
STACK CFI 246f8 .cfa: x29 48 +
STACK CFI INIT 24730 6c .cfa: sp 0 +
STACK CFI 24734 .cfa: sp 32 +
STACK CFI 2473c .cfa: x29 32 + x19: .cfa -16 + ^ .ra: .cfa -24 + ^ x29: .cfa -32 + ^
STACK CFI 2478c .cfa: sp 32 +
STACK CFI 24794 .cfa: sp 0 +
STACK CFI 24798 .cfa: x29 32 +
STACK CFI INIT 2479c 74 .cfa: sp 0 +
STACK CFI 247a0 .cfa: sp 32 +
STACK CFI 247a8 .cfa: x29 32 + x19: .cfa -16 + ^ .ra: .cfa -24 + ^ x29: .cfa -32 + ^
STACK CFI 24800 .cfa: sp 32 +
STACK CFI 24808 .cfa: sp 0 +
STACK CFI 2480c .cfa: x29 32 +
STACK CFI INIT 24bcc 148 .cfa: sp 0 +
STACK CFI 24bd0 .cfa: sp 96 +
STACK CFI 24be0 .cfa: x29 48 + x19: .cfa -8 + ^ x20: .cfa -16 + ^ x21: .cfa -32 + ^ .ra: .cfa -40 + ^ x29: .cfa -48 + ^
STACK CFI 24cc8 .cfa: sp 96 +
STACK CFI 24cd8 .cfa: sp 0 +
STACK CFI 24cdc .cfa: x29 48 +
STACK CFI INIT 24d14 6c .cfa: sp 0 +
STACK CFI 24d18 .cfa: sp 32 +
STACK CFI 24d20 .cfa: x29 32 + x19: .cfa -16 + ^ .ra: .cfa -24 + ^ x29: .cfa -32 + ^
STACK CFI 24d70 .cfa: sp 32 +
STACK CFI 24d78 .cfa: sp 0 +
STACK CFI 24d7c .cfa: x29 32 +
STACK CFI INIT 24d80 74 .cfa: sp 0 +
STACK CFI 24d84 .cfa: sp 32 +
STACK CFI 24d8c .cfa: x29 32 + x19: .cfa -16 + ^ .ra: .cfa -24 + ^ x29: .cfa -32 + ^
STACK CFI 24de4 .cfa: sp 32 +
STACK CFI 24dec .cfa: sp 0 +
STACK CFI 24df0 .cfa: x29 32 +
STACK CFI INIT 24e40 6c .cfa: sp 0 +
STACK CFI 24e44 .cfa: sp 32 +
STACK CFI 24e4c .cfa: x29 32 + x19: .cfa -16 + ^ .ra: .cfa -24 + ^ x29: .cfa -32 + ^
STACK CFI 24e9c .cfa: sp 32 +
STACK CFI 24ea4 .cfa: sp 0 +
STACK CFI 24ea8 .cfa: x29 32 +
STACK CFI INIT 24ec0 2c4 .cfa: sp 0 +
STACK CFI 24ec4 .cfa: sp 112 +
STACK CFI 24edc .cfa: x29 80 + x19: .cfa -8 + ^ x20: .cfa -16 + ^ x21: .cfa -24 + ^ x22: .cfa -32 + ^ x23: .cfa -40 + ^ x24: .cfa -48 + ^ x25: .cfa -56 + ^ x26: .cfa -64 + ^ .ra: .cfa -72 + ^ x29: .cfa -80 + ^
STACK CFI 25138 .cfa: sp 112 +
STACK CFI 25150 .cfa: sp 0 +
STACK CFI 25154 .cfa: x29 80 +
STACK CFI INIT 25184 170 .cfa: sp 0 +
STACK CFI 25188 .cfa: sp 160 +
STACK CFI 25198 .cfa: x29 48 + x19: .cfa -8 + ^ x20: .cfa -16 + ^ x21: .cfa -32 + ^ .ra: .cfa -40 + ^ x29: .cfa -48 + ^
STACK CFI 25298 .cfa: sp 160 +
STACK CFI 252a8 .cfa: sp 0 +
STACK CFI 252ac .cfa: x29 48 +
STACK CFI INIT 252f4 74 .cfa: sp 0 +
STACK CFI 252f8 .cfa: sp 48 +
STACK CFI 25304 .cfa: x29 32 + x19: .cfa -8 + ^ x20: .cfa -16 + ^ .ra: .cfa -24 + ^ x29: .cfa -32 + ^
STACK CFI 25350 .cfa: sp 48 +
STACK CFI 2535c .cfa: sp 0 +
STACK CFI 25360 .cfa: x29 32 +
STACK CFI INIT 25368 168 .cfa: sp 0 +
STACK CFI 2536c .cfa: sp 384 +
STACK CFI 25380 .cfa: x29 64 + x19: .cfa -8 + ^ x20: .cfa -16 + ^ x21: .cfa -24 + ^ x22: .cfa -32 + ^ x23: .cfa -40 + ^ x28: .cfa -48 + ^ .ra: .cfa -56 + ^ x29: .cfa -64 + ^
STACK CFI 25478 .cfa: sp 384 +
STACK CFI 2548c .cfa: sp 0 +
STACK CFI 25490 .cfa: x29 64 +
STACK CFI INIT 25504 12c .cfa: sp 0 +
STACK CFI 25508 .cfa: sp 80 +
STACK CFI 2551c .cfa: x29 80 + x19: .cfa -8 + ^ x20: .cfa -16 + ^ x21: .cfa -24 + ^ x22: .cfa -32 + ^ x23: .cfa -40 + ^ x24: .cfa -48 + ^ x25: .cfa -56 + ^ x26: .cfa -64 + ^ .ra: .cfa -72 + ^ x29: .cfa -80 + ^
STACK CFI 255e4 .cfa: sp 80 +
STACK CFI 255f8 .cfa: sp 0 +
STACK CFI 255fc .cfa: x29 80 +
STACK CFI INIT 256d4 1a4 .cfa: sp 0 +
STACK CFI 256d8 .cfa: sp 112 +
STACK CFI 256f0 .cfa: x29 80 + x19: .cfa -8 + ^ x20: .cfa -16 + ^ x21: .cfa -24 + ^ x22: .cfa -32 + ^ x23: .cfa -40 + ^ x24: .cfa -48 + ^ x25: .cfa -56 + ^ x26: .cfa -64 + ^ .ra: .cfa -72 + ^ x29: .cfa -80 + ^
STACK CFI 257e0 .cfa: sp 112 +
STACK CFI 257f8 .cfa: sp 0 +
STACK CFI 257fc .cfa: x29 80 +
STACK CFI INIT 25878 1dc .cfa: sp 0 +
STACK CFI 2587c .cfa: sp 128 +
STACK CFI 25898 .cfa: x29 96 + x19: .cfa -8 + ^ x20: .cfa -16 + ^ x21: .cfa -24 + ^ x22: .cfa -32 + ^ x23: .cfa -40 + ^ x24: .cfa -48 + ^ x25: .cfa -56 + ^ x26: .cfa -64 + ^ x27: .cfa -80 + ^ .ra: .cfa -88 + ^ x29: .cfa -96 + ^
STACK CFI 25a04 .cfa: sp 128 +
STACK CFI 25a20 .cfa: sp 0 +
STACK CFI 25a24 .cfa: x29 96 +
STACK CFI INIT 25a68 50 .cfa: sp 0 +
STACK CFI 25a6c .cfa: sp 32 +
STACK CFI 25a74 .cfa: x29 32 + x19: .cfa -8 + ^ x20: .cfa -16 + ^ .ra: .cfa -24 + ^ x29: .cfa -32 + ^
STACK CFI INIT 25ae8 178 .cfa: sp 0 +
STACK CFI 25aec .cfa: sp 80 +
STACK CFI 25b00 .cfa: x29 80 + x19: .cfa -8 + ^ x20: .cfa -16 + ^ x21: .cfa -24 + ^ x22: .cfa -32 + ^ x23: .cfa -40 + ^ x24: .cfa -48 + ^ x25: .cfa -64 + ^ .ra: .cfa -72 + ^ x29: .cfa -80 + ^
STACK CFI 25c2c .cfa: sp 80 +
STACK CFI 25c40 .cfa: sp 0 +
STACK CFI 25c44 .cfa: x29 80 +
STACK CFI INIT 25fa4 74 .cfa: sp 0 +
STACK CFI 25fa8 .cfa: sp 48 +
STACK CFI 25fb4 .cfa: x29 32 + x19: .cfa -8 + ^ x20: .cfa -16 + ^ .ra: .cfa -24 + ^ x29: .cfa -32 + ^
STACK CFI 26000 .cfa: sp 48 +
STACK CFI 2600c .cfa: sp 0 +
STACK CFI 26010 .cfa: x29 32 +
STACK CFI INIT 2605c 4bc .cfa: sp 0 +
STACK CFI 26060 .cfa: sp 192 +
STACK CFI 2607c .cfa: x29 96 + x19: .cfa -8 + ^ x20: .cfa -16 + ^ x21: .cfa -24 + ^ x22: .cfa -32 + ^ x23: .cfa -40 + ^ x24: .cfa -48 + ^ x25: .cfa -56 + ^ x26: .cfa -64 + ^ x27: .cfa -80 + ^ .ra: .cfa -88 + ^ x29: .cfa -96 + ^
STACK CFI 262d8 .cfa: sp 192 +
STACK CFI 262f4 .cfa: sp 0 +
STACK CFI 262f8 .cfa: x29 96 +
STACK CFI INIT 26540 74 .cfa: sp 0 +
STACK CFI 26544 .cfa: sp 48 +
STACK CFI 26550 .cfa: x29 32 + x19: .cfa -8 + ^ x20: .cfa -16 + ^ .ra: .cfa -24 + ^ x29: .cfa -32 + ^
STACK CFI 2659c .cfa: sp 48 +
STACK CFI 265a8 .cfa: sp 0 +
STACK CFI 265ac .cfa: x29 32 +
STACK CFI INIT 26680 1ec .cfa: sp 0 +
STACK CFI 26684 .cfa: sp 208 +
STACK CFI 2669c .cfa: x29 80 + x19: .cfa -8 + ^ x20: .cfa -16 + ^ x21: .cfa -24 + ^ x22: .cfa -32 + ^ x23: .cfa -40 + ^ x24: .cfa -48 + ^ x25: .cfa -64 + ^ .ra: .cfa -72 + ^ x29: .cfa -80 + ^
STACK CFI 267f8 .cfa: sp 208 +
STACK CFI 26810 .cfa: sp 0 +
STACK CFI 26814 .cfa: x29 80 +
STACK CFI INIT 26870 174 .cfa: sp 0 +
STACK CFI 26874 .cfa: sp 112 +
STACK CFI 26884 .cfa: x29 48 + x19: .cfa -8 + ^ x20: .cfa -16 + ^ x21: .cfa -32 + ^ .ra: .cfa -40 + ^ x29: .cfa -48 + ^
STACK CFI 26980 .cfa: sp 112 +
STACK CFI 26990 .cfa: sp 0 +
STACK CFI 26994 .cfa: x29 48 +
STACK CFI INIT 26c38 204 .cfa: sp 0 +
STACK CFI 26c3c .cfa: sp 160 +
STACK CFI 26c4c .cfa: x29 48 + x19: .cfa -8 + ^ x20: .cfa -16 + ^ x21: .cfa -32 + ^ .ra: .cfa -40 + ^ x29: .cfa -48 + ^
STACK CFI 26d80 .cfa: sp 160 +
STACK CFI 26d90 .cfa: sp 0 +
STACK CFI 26d94 .cfa: x29 48 +
STACK CFI INIT 26e3c 7a8 .cfa: sp 0 +
STACK CFI 26e40 .cfa: sp 240 +
STACK CFI 26e5c .cfa: x29 96 + x19: .cfa -8 + ^ x20: .cfa -16 + ^ x21: .cfa -24 + ^ x22: .cfa -32 + ^ x23: .cfa -40 + ^ x24: .cfa -48 + ^ x25: .cfa -56 + ^ x26: .cfa -64 + ^ x27: .cfa -72 + ^ x28: .cfa -80 + ^ .ra: .cfa -88 + ^ x29: .cfa -96 + ^
STACK CFI 27448 .cfa: sp 240 +
STACK CFI 27464 .cfa: sp 0 +
STACK CFI 27468 .cfa: x29 96 +
STACK CFI INIT 27600 388 .cfa: sp 0 +
STACK CFI 27604 .cfa: sp 256 +
STACK CFI 27618 .cfa: x29 64 + x19: .cfa -8 + ^ x20: .cfa -16 + ^ x21: .cfa -24 + ^ x22: .cfa -32 + ^ x23: .cfa -48 + ^ .ra: .cfa -56 + ^ x29: .cfa -64 + ^
STACK CFI 2785c .cfa: sp 256 +
STACK CFI 27870 .cfa: sp 0 +
STACK CFI 27874 .cfa: x29 64 +
STACK CFI INIT 279d8 74 .cfa: sp 0 +
STACK CFI 279dc .cfa: sp 48 +
STACK CFI 279e8 .cfa: x29 32 + x19: .cfa -8 + ^ x20: .cfa -16 + ^ .ra: .cfa -24 + ^ x29: .cfa -32 + ^
STACK CFI 27a34 .cfa: sp 48 +
STACK CFI 27a40 .cfa: sp 0 +
STACK CFI 27a44 .cfa: x29 32 +
STACK CFI INIT 27e4c 154 .cfa: sp 0 +
STACK CFI 27e50 .cfa: sp 384 +
STACK CFI 27e64 .cfa: x29 64 + x19: .cfa -8 + ^ x20: .cfa -16 + ^ x21: .cfa -24 + ^ x22: .cfa -32 + ^ x23: .cfa -40 + ^ x28: .cfa -48 + ^ .ra: .cfa -56 + ^ x29: .cfa -64 + ^
STACK CFI 27f48 .cfa: sp 384 +
STACK CFI 27f5c .cfa: sp 0 +
STACK CFI 27f60 .cfa: x29 64 +
STACK CFI INIT 27fa0 228 .cfa: sp 0 +
STACK CFI 27fa4 .cfa: sp 128 +
STACK CFI 27fbc .cfa: x29 80 + x19: .cfa -8 + ^ x20: .cfa -16 + ^ x21: .cfa -24 + ^ x22: .cfa -32 + ^ x23: .cfa -40 + ^ x24: .cfa -48 + ^ x25: .cfa -64 + ^ .ra: .cfa -72 + ^ x29: .cfa -80 + ^
STACK CFI 28158 .cfa: sp 128 +
STACK CFI 28170 .cfa: sp 0 +
STACK CFI 28174 .cfa: x29 80 +
STACK CFI INIT 28784 318 .cfa: sp 0 +
STACK CFI 28788 .cfa: sp 128 +
STACK CFI 287a4 .cfa: x29 72 + x19: .cfa -8 + ^ x20: .cfa -16 + ^ x21: .cfa -24 + ^ x22: .cfa -32 + ^ x23: .cfa -40 + ^ x24: .cfa -48 + ^ x25: .cfa -56 + ^ .ra: .cfa -64 + ^ x29: .cfa -72 + ^ v8: .cfa -80 + ^
STACK CFI 28a4c .cfa: sp 128 +
STACK CFI 28a68 .cfa: sp 0 +
STACK CFI 28a6c .cfa: x29 72 +
STACK CFI INIT 28b50 134 .cfa: sp 0 +
STACK CFI 28b54 .cfa: sp 80 +
STACK CFI 28b64 .cfa: x29 48 + x19: .cfa -8 + ^ x20: .cfa -16 + ^ x21: .cfa -24 + ^ x22: .cfa -32 + ^ .ra: .cfa -40 + ^ x29: .cfa -48 + ^
STACK CFI 28c68 .cfa: sp 80 +
STACK CFI 28c78 .cfa: sp 0 +
STACK CFI 28c7c .cfa: x29 48 +
STACK CFI INIT 28dfc 43c .cfa: sp 0 +
STACK CFI 28e00 .cfa: sp 224 +
STACK CFI 28e1c .cfa: x29 96 + x19: .cfa -8 + ^ x20: .cfa -16 + ^ x21: .cfa -24 + ^ x22: .cfa -32 + ^ x23: .cfa -40 + ^ x24: .cfa -48 + ^ x25: .cfa -56 + ^ x26: .cfa -64 + ^ x27: .cfa -72 + ^ x28: .cfa -80 + ^ .ra: .cfa -88 + ^ x29: .cfa -96 + ^
STACK CFI 29130 .cfa: sp 224 +
STACK CFI 2914c .cfa: sp 0 +
STACK CFI 29150 .cfa: x29 96 +
STACK CFI INIT 29254 380 .cfa: sp 0 +
STACK CFI 29258 .cfa: sp 240 +
STACK CFI 2926c .cfa: x29 64 + x19: .cfa -8 + ^ x20: .cfa -16 + ^ x21: .cfa -24 + ^ x22: .cfa -32 + ^ x23: .cfa -40 + ^ x24: .cfa -48 + ^ .ra: .cfa -56 + ^ x29: .cfa -64 + ^
STACK CFI 294a8 .cfa: sp 240 +
STACK CFI 294bc .cfa: sp 0 +
STACK CFI 294c0 .cfa: x29 64 +
STACK CFI INIT 295d8 384 .cfa: sp 0 +
STACK CFI 295dc .cfa: sp 144 +
STACK CFI 295f8 .cfa: x29 96 + x19: .cfa -8 + ^ x20: .cfa -16 + ^ x21: .cfa -24 + ^ x22: .cfa -32 + ^ x23: .cfa -40 + ^ x24: .cfa -48 + ^ x25: .cfa -56 + ^ x26: .cfa -64 + ^ x27: .cfa -72 + ^ x28: .cfa -80 + ^ .ra: .cfa -88 + ^ x29: .cfa -96 + ^
STACK CFI 29900 .cfa: sp 144 +
STACK CFI 2991c .cfa: sp 0 +
STACK CFI 29920 .cfa: x29 96 +
STACK CFI INIT 2995c 43c .cfa: sp 0 +
STACK CFI 29960 .cfa: sp 224 +
STACK CFI 2997c .cfa: x29 96 + x19: .cfa -8 + ^ x20: .cfa -16 + ^ x21: .cfa -24 + ^ x22: .cfa -32 + ^ x23: .cfa -40 + ^ x24: .cfa -48 + ^ x25: .cfa -56 + ^ x26: .cfa -64 + ^ x27: .cfa -72 + ^ x28: .cfa -80 + ^ .ra: .cfa -88 + ^ x29: .cfa -96 + ^
STACK CFI 29c90 .cfa: sp 224 +
STACK CFI 29cac .cfa: sp 0 +
STACK CFI 29cb0 .cfa: x29 96 +
STACK CFI INIT 29db4 3b0 .cfa: sp 0 +
STACK CFI 29db8 .cfa: sp 224 +
STACK CFI 29dcc .cfa: x29 64 + x19: .cfa -8 + ^ x20: .cfa -16 + ^ x21: .cfa -24 + ^ x22: .cfa -32 + ^ x23: .cfa -48 + ^ .ra: .cfa -56 + ^ x29: .cfa -64 + ^
STACK CFI 2a034 .cfa: sp 224 +
STACK CFI 2a048 .cfa: sp 0 +
STACK CFI 2a04c .cfa: x29 64 +
STACK CFI INIT 2a168 360 .cfa: sp 0 +
STACK CFI 2a16c .cfa: sp 144 +
STACK CFI 2a188 .cfa: x29 96 + x19: .cfa -8 + ^ x20: .cfa -16 + ^ x21: .cfa -24 + ^ x22: .cfa -32 + ^ x23: .cfa -40 + ^ x24: .cfa -48 + ^ x25: .cfa -56 + ^ x26: .cfa -64 + ^ x27: .cfa -72 + ^ x28: .cfa -80 + ^ .ra: .cfa -88 + ^ x29: .cfa -96 + ^
STACK CFI 2a46c .cfa: sp 144 +
STACK CFI 2a488 .cfa: sp 0 +
STACK CFI 2a48c .cfa: x29 96 +
STACK CFI INIT 2a4c8 43c .cfa: sp 0 +
STACK CFI 2a4cc .cfa: sp 224 +
STACK CFI 2a4e8 .cfa: x29 96 + x19: .cfa -8 + ^ x20: .cfa -16 + ^ x21: .cfa -24 + ^ x22: .cfa -32 + ^ x23: .cfa -40 + ^ x24: .cfa -48 + ^ x25: .cfa -56 + ^ x26: .cfa -64 + ^ x27: .cfa -72 + ^ x28: .cfa -80 + ^ .ra: .cfa -88 + ^ x29: .cfa -96 + ^
STACK CFI 2a7fc .cfa: sp 224 +
STACK CFI 2a818 .cfa: sp 0 +
STACK CFI 2a81c .cfa: x29 96 +
STACK CFI INIT 2a920 388 .cfa: sp 0 +
STACK CFI 2a924 .cfa: sp 256 +
STACK CFI 2a938 .cfa: x29 64 + x19: .cfa -8 + ^ x20: .cfa -16 + ^ x21: .cfa -24 + ^ x22: .cfa -32 + ^ x23: .cfa -48 + ^ .ra: .cfa -56 + ^ x29: .cfa -64 + ^
STACK CFI 2ab7c .cfa: sp 256 +
STACK CFI 2ab90 .cfa: sp 0 +
STACK CFI 2ab94 .cfa: x29 64 +
STACK CFI INIT 2acac 7ac .cfa: sp 0 +
STACK CFI 2acb0 .cfa: sp 128 +
STACK CFI 2accc .cfa: x29 72 + x19: .cfa -8 + ^ x20: .cfa -16 + ^ x21: .cfa -24 + ^ x22: .cfa -32 + ^ x23: .cfa -40 + ^ x24: .cfa -48 + ^ x25: .cfa -56 + ^ .ra: .cfa -64 + ^ x29: .cfa -72 + ^ v8: .cfa -80 + ^
STACK CFI 2b39c .cfa: sp 128 +
STACK CFI 2b3b8 .cfa: sp 0 +
STACK CFI 2b3bc .cfa: x29 72 +
STACK CFI INIT 2b458 43c .cfa: sp 0 +
STACK CFI 2b45c .cfa: sp 224 +
STACK CFI 2b478 .cfa: x29 96 + x19: .cfa -8 + ^ x20: .cfa -16 + ^ x21: .cfa -24 + ^ x22: .cfa -32 + ^ x23: .cfa -40 + ^ x24: .cfa -48 + ^ x25: .cfa -56 + ^ x26: .cfa -64 + ^ x27: .cfa -72 + ^ x28: .cfa -80 + ^ .ra: .cfa -88 + ^ x29: .cfa -96 + ^
STACK CFI 2b78c .cfa: sp 224 +
STACK CFI 2b7a8 .cfa: sp 0 +
STACK CFI 2b7ac .cfa: x29 96 +
STACK CFI INIT 2b8b0 480 .cfa: sp 0 +
STACK CFI 2b8b4 .cfa: sp 224 +
STACK CFI 2b8d0 .cfa: x29 96 + x19: .cfa -8 + ^ x20: .cfa -16 + ^ x21: .cfa -24 + ^ x22: .cfa -32 + ^ x23: .cfa -40 + ^ x24: .cfa -48 + ^ x25: .cfa -56 + ^ x26: .cfa -64 + ^ x27: .cfa -80 + ^ .ra: .cfa -88 + ^ x29: .cfa -96 + ^
STACK CFI 2bb3c .cfa: sp 224 +
STACK CFI 2bb58 .cfa: sp 0 +
STACK CFI 2bb5c .cfa: x29 96 +
STACK CFI 2bc28 .cfa: sp 224 +
STACK CFI 2bc44 .cfa: sp 0 +
STACK CFI 2bc48 .cfa: x29 96 +
STACK CFI INIT 2bd4c 3a8 .cfa: sp 0 +
STACK CFI 2bd50 .cfa: sp 208 +
STACK CFI 2bd68 .cfa: x29 80 + x19: .cfa -8 + ^ x20: .cfa -16 + ^ x21: .cfa -24 + ^ x22: .cfa -32 + ^ x23: .cfa -40 + ^ x24: .cfa -48 + ^ x25: .cfa -56 + ^ x26: .cfa -64 + ^ .ra: .cfa -72 + ^ x29: .cfa -80 + ^
STACK CFI 2bfc0 .cfa: sp 208 +
STACK CFI 2bfd8 .cfa: sp 0 +
STACK CFI 2bfdc .cfa: x29 80 +
STACK CFI INIT 2c12c 314 .cfa: sp 0 +
STACK CFI 2c130 .cfa: sp 192 +
STACK CFI 2c144 .cfa: x29 64 + x19: .cfa -8 + ^ x20: .cfa -16 + ^ x21: .cfa -24 + ^ x22: .cfa -32 + ^ x23: .cfa -48 + ^ .ra: .cfa -56 + ^ x29: .cfa -64 + ^
STACK CFI 2c338 .cfa: sp 192 +
STACK CFI 2c34c .cfa: sp 0 +
STACK CFI 2c350 .cfa: x29 64 +
STACK CFI INIT 2c614 a8 .cfa: sp 0 +
STACK CFI 2c618 .cfa: sp 32 +
STACK CFI 2c620 .cfa: x29 32 + x19: .cfa -16 + ^ .ra: .cfa -24 + ^ x29: .cfa -32 + ^
STACK CFI 2c654 .cfa: sp 32 +
STACK CFI 2c65c .cfa: sp 0 +
STACK CFI 2c660 .cfa: x29 32 +
STACK CFI 2c664 .cfa: sp 32 +
STACK CFI 2c66c .cfa: sp 0 +
STACK CFI 2c670 .cfa: x29 32 +
STACK CFI INIT 2c73c 43c .cfa: sp 0 +
STACK CFI 2c740 .cfa: sp 224 +
STACK CFI 2c75c .cfa: x29 96 + x19: .cfa -8 + ^ x20: .cfa -16 + ^ x21: .cfa -24 + ^ x22: .cfa -32 + ^ x23: .cfa -40 + ^ x24: .cfa -48 + ^ x25: .cfa -56 + ^ x26: .cfa -64 + ^ x27: .cfa -72 + ^ x28: .cfa -80 + ^ .ra: .cfa -88 + ^ x29: .cfa -96 + ^
STACK CFI 2ca70 .cfa: sp 224 +
STACK CFI 2ca8c .cfa: sp 0 +
STACK CFI 2ca90 .cfa: x29 96 +
STACK CFI INIT 2cb94 634 .cfa: sp 0 +
STACK CFI 2cb98 .cfa: sp 288 +
STACK CFI 2cbb4 .cfa: x29 96 + x19: .cfa -8 + ^ x20: .cfa -16 + ^ x21: .cfa -24 + ^ x22: .cfa -32 + ^ x23: .cfa -40 + ^ x24: .cfa -48 + ^ x25: .cfa -56 + ^ x26: .cfa -64 + ^ x28: .cfa -80 + ^ .ra: .cfa -88 + ^ x29: .cfa -96 + ^
STACK CFI 2cff4 .cfa: sp 288 +
STACK CFI 2d010 .cfa: sp 0 +
STACK CFI 2d014 .cfa: x29 96 +
STACK CFI INIT 2d1cc 330 .cfa: sp 0 +
STACK CFI 2d1d0 .cfa: sp 144 +
STACK CFI 2d1ec .cfa: x29 80 + x19: .cfa -8 + ^ x20: .cfa -16 + ^ x21: .cfa -24 + ^ x22: .cfa -32 + ^ x23: .cfa -40 + ^ x24: .cfa -48 + ^ x25: .cfa -56 + ^ x26: .cfa -64 + ^ .ra: .cfa -72 + ^ x29: .cfa -80 + ^ v8: .cfa -96 + ^
STACK CFI 2d4ac .cfa: sp 144 +
STACK CFI 2d4c8 .cfa: sp 0 +
STACK CFI 2d4cc .cfa: x29 80 +
STACK CFI INIT 2d4fc 394 .cfa: sp 0 +
STACK CFI 2d500 .cfa: sp 128 +
STACK CFI 2d51c .cfa: x29 72 + x19: .cfa -8 + ^ x20: .cfa -16 + ^ x21: .cfa -24 + ^ x22: .cfa -32 + ^ x23: .cfa -40 + ^ x24: .cfa -48 + ^ x25: .cfa -56 + ^ .ra: .cfa -64 + ^ x29: .cfa -72 + ^ v8: .cfa -80 + ^
STACK CFI 2d650 .cfa: sp 128 +
STACK CFI 2d66c .cfa: sp 0 +
STACK CFI 2d670 .cfa: x29 72 +
STACK CFI INIT 2d898 46c .cfa: sp 0 +
STACK CFI 2d89c .cfa: sp 96 +
STACK CFI 2d8b4 .cfa: x29 96 + x19: .cfa -8 + ^ x20: .cfa -16 + ^ x21: .cfa -24 + ^ x22: .cfa -32 + ^ x23: .cfa -40 + ^ x24: .cfa -48 + ^ x25: .cfa -56 + ^ x26: .cfa -64 + ^ x27: .cfa -72 + ^ x28: .cfa -80 + ^ .ra: .cfa -88 + ^ x29: .cfa -96 + ^
STACK CFI 2dc50 .cfa: sp 96 +
STACK CFI 2dc68 .cfa: sp 0 +
STACK CFI 2dc6c .cfa: x29 96 +
STACK CFI INIT 2dde8 134 .cfa: sp 0 +
STACK CFI 2ddec .cfa: sp 80 +
STACK CFI 2ddf8 .cfa: x29 32 + x19: .cfa -8 + ^ x20: .cfa -16 + ^ .ra: .cfa -24 + ^ x29: .cfa -32 + ^
STACK CFI 2de28 .cfa: sp 80 +
STACK CFI 2de34 .cfa: sp 0 +
STACK CFI 2de38 .cfa: x29 32 +
STACK CFI INIT 2df1c 78 .cfa: sp 0 +
STACK CFI 2df20 .cfa: sp 32 +
STACK CFI 2df28 .cfa: x29 32 + x19: .cfa -8 + ^ x20: .cfa -16 + ^ .ra: .cfa -24 + ^ x29: .cfa -32 + ^
STACK CFI 2df34 .cfa: sp 32 +
STACK CFI 2df3c .cfa: sp 0 +
STACK CFI 2df40 .cfa: x29 32 +
STACK CFI INIT 2df94 74 .cfa: sp 0 +
STACK CFI 2df98 .cfa: sp 48 +
STACK CFI 2dfa4 .cfa: x29 32 + x19: .cfa -8 + ^ x20: .cfa -16 + ^ .ra: .cfa -24 + ^ x29: .cfa -32 + ^
STACK CFI 2dff0 .cfa: sp 48 +
STACK CFI 2dffc .cfa: sp 0 +
STACK CFI 2e000 .cfa: x29 32 +
STACK CFI INIT 2e090 25c .cfa: sp 0 +
STACK CFI 2e094 .cfa: sp 128 +
STACK CFI 2e0a4 .cfa: x29 48 + x19: .cfa -8 + ^ x20: .cfa -16 + ^ x21: .cfa -32 + ^ .ra: .cfa -40 + ^ x29: .cfa -48 + ^
STACK CFI 2e18c .cfa: sp 128 +
STACK CFI 2e19c .cfa: sp 0 +
STACK CFI 2e1a0 .cfa: x29 48 +
STACK CFI INIT 2e388 300 .cfa: sp 0 +
STACK CFI 2e38c .cfa: sp 144 +
STACK CFI 2e3a0 .cfa: x29 64 + x19: .cfa -8 + ^ x20: .cfa -16 + ^ x21: .cfa -24 + ^ x22: .cfa -32 + ^ x23: .cfa -48 + ^ .ra: .cfa -56 + ^ x29: .cfa -64 + ^
STACK CFI 2e534 .cfa: sp 144 +
STACK CFI 2e548 .cfa: sp 0 +
STACK CFI 2e54c .cfa: x29 64 +
STACK CFI INIT 2e6dc 264 .cfa: sp 0 +
STACK CFI 2e6e0 .cfa: sp 128 +
STACK CFI 2e6f0 .cfa: x29 48 + x19: .cfa -8 + ^ x20: .cfa -16 + ^ x21: .cfa -32 + ^ .ra: .cfa -40 + ^ x29: .cfa -48 + ^
STACK CFI 2e7e8 .cfa: sp 128 +
STACK CFI 2e7f8 .cfa: sp 0 +
STACK CFI 2e7fc .cfa: x29 48 +
STACK CFI INIT 2e994 260 .cfa: sp 0 +
STACK CFI 2e998 .cfa: sp 128 +
STACK CFI 2e9a8 .cfa: x29 48 + x19: .cfa -8 + ^ x20: .cfa -16 + ^ x21: .cfa -32 + ^ .ra: .cfa -40 + ^ x29: .cfa -48 + ^
STACK CFI 2ea9c .cfa: sp 128 +
STACK CFI 2eaac .cfa: sp 0 +
STACK CFI 2eab0 .cfa: x29 48 +
STACK CFI INIT 2ec6c 2b8 .cfa: sp 0 +
STACK CFI 2ec70 .cfa: sp 144 +
STACK CFI 2ec84 .cfa: x29 64 + x19: .cfa -8 + ^ x20: .cfa -16 + ^ x21: .cfa -24 + ^ x22: .cfa -32 + ^ x23: .cfa -48 + ^ .ra: .cfa -56 + ^ x29: .cfa -64 + ^
STACK CFI 2edd0 .cfa: sp 144 +
STACK CFI 2ede4 .cfa: sp 0 +
STACK CFI 2ede8 .cfa: x29 64 +
STACK CFI INIT 2ef24 2c0 .cfa: sp 0 +
STACK CFI 2ef28 .cfa: sp 144 +
STACK CFI 2ef3c .cfa: x29 64 + x19: .cfa -8 + ^ x20: .cfa -16 + ^ x21: .cfa -24 + ^ x22: .cfa -32 + ^ x23: .cfa -48 + ^ .ra: .cfa -56 + ^ x29: .cfa -64 + ^
STACK CFI 2f090 .cfa: sp 144 +
STACK CFI 2f0a4 .cfa: sp 0 +
STACK CFI 2f0a8 .cfa: x29 64 +
STACK CFI INIT 2f200 2e4 .cfa: sp 0 +
STACK CFI 2f204 .cfa: sp 144 +
STACK CFI 2f218 .cfa: x29 64 + x19: .cfa -8 + ^ x20: .cfa -16 + ^ x21: .cfa -24 + ^ x22: .cfa -32 + ^ x23: .cfa -48 + ^ .ra: .cfa -56 + ^ x29: .cfa -64 + ^
STACK CFI 2f390 .cfa: sp 144 +
STACK CFI 2f3a4 .cfa: sp 0 +
STACK CFI 2f3a8 .cfa: x29 64 +
STACK CFI INIT 2f4e4 2e4 .cfa: sp 0 +
STACK CFI 2f4e8 .cfa: sp 144 +
STACK CFI 2f4fc .cfa: x29 64 + x19: .cfa -8 + ^ x20: .cfa -16 + ^ x21: .cfa -24 + ^ x22: .cfa -32 + ^ x23: .cfa -48 + ^ .ra: .cfa -56 + ^ x29: .cfa -64 + ^
STACK CFI 2f674 .cfa: sp 144 +
STACK CFI 2f688 .cfa: sp 0 +
STACK CFI 2f68c .cfa: x29 64 +
STACK CFI INIT 2f7c8 2a0 .cfa: sp 0 +
STACK CFI 2f7cc .cfa: sp 144 +
STACK CFI 2f7e0 .cfa: x29 64 + x19: .cfa -8 + ^ x20: .cfa -16 + ^ x21: .cfa -24 + ^ x22: .cfa -32 + ^ x23: .cfa -48 + ^ .ra: .cfa -56 + ^ x29: .cfa -64 + ^
STACK CFI 2f914 .cfa: sp 144 +
STACK CFI 2f928 .cfa: sp 0 +
STACK CFI 2f92c .cfa: x29 64 +
STACK CFI INIT 2fa68 2f0 .cfa: sp 0 +
STACK CFI 2fa6c .cfa: sp 144 +
STACK CFI 2fa80 .cfa: x29 64 + x19: .cfa -8 + ^ x20: .cfa -16 + ^ x21: .cfa -24 + ^ x22: .cfa -32 + ^ x23: .cfa -48 + ^ .ra: .cfa -56 + ^ x29: .cfa -64 + ^
STACK CFI 2fc04 .cfa: sp 144 +
STACK CFI 2fc18 .cfa: sp 0 +
STACK CFI 2fc1c .cfa: x29 64 +
STACK CFI INIT 2fd58 4f4 .cfa: sp 0 +
STACK CFI 2fd5c .cfa: sp 144 +
STACK CFI 2fd70 .cfa: x29 64 + x19: .cfa -8 + ^ x20: .cfa -16 + ^ x21: .cfa -24 + ^ x22: .cfa -32 + ^ x23: .cfa -48 + ^ .ra: .cfa -56 + ^ x29: .cfa -64 + ^
STACK CFI 300a4 .cfa: sp 144 +
STACK CFI 300b8 .cfa: sp 0 +
STACK CFI 300bc .cfa: x29 64 +
STACK CFI INIT 3024c 154 .cfa: sp 0 +
STACK CFI 30250 .cfa: sp 384 +
STACK CFI 30264 .cfa: x29 64 + x19: .cfa -8 + ^ x20: .cfa -16 + ^ x21: .cfa -24 + ^ x22: .cfa -32 + ^ x23: .cfa -40 + ^ x28: .cfa -48 + ^ .ra: .cfa -56 + ^ x29: .cfa -64 + ^
STACK CFI 30348 .cfa: sp 384 +
STACK CFI 3035c .cfa: sp 0 +
STACK CFI 30360 .cfa: x29 64 +
STACK CFI INIT 303b8 50c .cfa: sp 0 +
STACK CFI 303bc .cfa: sp 64 +
STACK CFI 303cc .cfa: x29 64 + x19: .cfa -8 + ^ x20: .cfa -16 + ^ x21: .cfa -24 + ^ x22: .cfa -32 + ^ x23: .cfa -40 + ^ x24: .cfa -48 + ^ .ra: .cfa -56 + ^ x29: .cfa -64 + ^
STACK CFI 304ec .cfa: sp 64 +
STACK CFI 304fc .cfa: sp 0 +
STACK CFI 30500 .cfa: x29 64 +
STACK CFI 30898 .cfa: sp 64 +
STACK CFI 308a8 .cfa: sp 0 +
STACK CFI 308ac .cfa: x29 64 +
STACK CFI INIT 30bf4 294 .cfa: sp 0 +
STACK CFI 30bf8 .cfa: sp 240 +
STACK CFI 30c10 .cfa: x29 80 + x19: .cfa -8 + ^ x20: .cfa -16 + ^ x21: .cfa -24 + ^ x22: .cfa -32 + ^ x23: .cfa -40 + ^ x24: .cfa -48 + ^ x25: .cfa -64 + ^ .ra: .cfa -72 + ^ x29: .cfa -80 + ^
STACK CFI 30db0 .cfa: sp 240 +
STACK CFI 30dc8 .cfa: sp 0 +
STACK CFI 30dcc .cfa: x29 80 +
STACK CFI INIT 30f04 50 .cfa: sp 0 +
STACK CFI 30f08 .cfa: sp 32 +
STACK CFI 30f10 .cfa: x29 32 + x19: .cfa -8 + ^ x20: .cfa -16 + ^ .ra: .cfa -24 + ^ x29: .cfa -32 + ^
STACK CFI INIT 30f80 7c0 .cfa: sp 0 +
STACK CFI 30f84 .cfa: sp 320 +
STACK CFI 30fa0 .cfa: x29 96 + x19: .cfa -8 + ^ x20: .cfa -16 + ^ x21: .cfa -24 + ^ x22: .cfa -32 + ^ x23: .cfa -40 + ^ x24: .cfa -48 + ^ x25: .cfa -56 + ^ x26: .cfa -64 + ^ x27: .cfa -72 + ^ x28: .cfa -80 + ^ .ra: .cfa -88 + ^ x29: .cfa -96 + ^
STACK CFI 315f0 .cfa: sp 320 +
STACK CFI 3160c .cfa: sp 0 +
STACK CFI 31610 .cfa: x29 96 +
STACK CFI INIT 35ac0 c74 .cfa: sp 0 +
STACK CFI 35ac4 .cfa: sp 96 +
STACK CFI 35adc .cfa: x29 96 + x19: .cfa -8 + ^ x20: .cfa -16 + ^ x21: .cfa -24 + ^ x22: .cfa -32 + ^ x23: .cfa -40 + ^ x24: .cfa -48 + ^ x25: .cfa -56 + ^ x26: .cfa -64 + ^ x27: .cfa -72 + ^ x28: .cfa -80 + ^ .ra: .cfa -88 + ^ x29: .cfa -96 + ^
STACK CFI 36554 .cfa: sp 96 +
STACK CFI 3656c .cfa: sp 0 +
STACK CFI 36570 .cfa: x29 96 +
STACK CFI INIT 36888 26c .cfa: sp 0 +
STACK CFI 3688c .cfa: sp 128 +
STACK CFI 3689c .cfa: x29 48 + x19: .cfa -8 + ^ x20: .cfa -16 + ^ x21: .cfa -24 + ^ x22: .cfa -32 + ^ .ra: .cfa -40 + ^ x29: .cfa -48 + ^
STACK CFI 36a40 .cfa: sp 128 +
STACK CFI 36a50 .cfa: sp 0 +
STACK CFI 36a54 .cfa: x29 48 +
STACK CFI INIT 37040 3b8 .cfa: sp 0 +
STACK CFI 37044 .cfa: sp 96 +
STACK CFI 3705c .cfa: x29 96 + x19: .cfa -8 + ^ x20: .cfa -16 + ^ x21: .cfa -24 + ^ x22: .cfa -32 + ^ x23: .cfa -40 + ^ x24: .cfa -48 + ^ x25: .cfa -56 + ^ x26: .cfa -64 + ^ x27: .cfa -72 + ^ x28: .cfa -80 + ^ .ra: .cfa -88 + ^ x29: .cfa -96 + ^
STACK CFI 37398 .cfa: sp 96 +
STACK CFI 373b0 .cfa: sp 0 +
STACK CFI 373b4 .cfa: x29 96 +
STACK CFI INIT 37498 cb4 .cfa: sp 0 +
STACK CFI 3749c .cfa: sp 96 +
STACK CFI 374b4 .cfa: x29 96 + x19: .cfa -8 + ^ x20: .cfa -16 + ^ x21: .cfa -24 + ^ x22: .cfa -32 + ^ x23: .cfa -40 + ^ x24: .cfa -48 + ^ x25: .cfa -56 + ^ x26: .cfa -64 + ^ x27: .cfa -72 + ^ x28: .cfa -80 + ^ .ra: .cfa -88 + ^ x29: .cfa -96 + ^
STACK CFI 37f5c .cfa: sp 96 +
STACK CFI 37f74 .cfa: sp 0 +
STACK CFI 37f78 .cfa: x29 96 +
STACK CFI INIT 38434 afc .cfa: sp 0 +
STACK CFI 38438 .cfa: sp 96 +
STACK CFI 38450 .cfa: x29 96 + x19: .cfa -8 + ^ x20: .cfa -16 + ^ x21: .cfa -24 + ^ x22: .cfa -32 + ^ x23: .cfa -40 + ^ x24: .cfa -48 + ^ x25: .cfa -56 + ^ x26: .cfa -64 + ^ x27: .cfa -72 + ^ x28: .cfa -80 + ^ .ra: .cfa -88 + ^ x29: .cfa -96 + ^
STACK CFI 38ea4 .cfa: sp 96 +
STACK CFI 38ebc .cfa: sp 0 +
STACK CFI 38ec0 .cfa: x29 96 +
STACK CFI INIT 3910c 1430 .cfa: sp 0 +
STACK CFI 39110 .cfa: sp 96 +
STACK CFI 39128 .cfa: x29 96 + x19: .cfa -8 + ^ x20: .cfa -16 + ^ x21: .cfa -24 + ^ x22: .cfa -32 + ^ x23: .cfa -40 + ^ x24: .cfa -48 + ^ x25: .cfa -56 + ^ x26: .cfa -64 + ^ x27: .cfa -72 + ^ x28: .cfa -80 + ^ .ra: .cfa -88 + ^ x29: .cfa -96 + ^
STACK CFI 3a3c4 .cfa: sp 96 +
STACK CFI 3a3dc .cfa: sp 0 +
STACK CFI 3a3e0 .cfa: x29 96 +
STACK CFI INIT 3a660 75c .cfa: sp 0 +
STACK CFI 3a664 .cfa: sp 368 +
STACK CFI 3a680 .cfa: x29 96 + x19: .cfa -8 + ^ x20: .cfa -16 + ^ x21: .cfa -24 + ^ x22: .cfa -32 + ^ x23: .cfa -40 + ^ x24: .cfa -48 + ^ x25: .cfa -56 + ^ x26: .cfa -64 + ^ x27: .cfa -72 + ^ x28: .cfa -80 + ^ .ra: .cfa -88 + ^ x29: .cfa -96 + ^
STACK CFI 3a734 .cfa: sp 368 +
STACK CFI 3a750 .cfa: sp 0 +
STACK CFI 3a754 .cfa: x29 96 +
STACK CFI 3a7a8 .cfa: sp 368 +
STACK CFI 3a7c4 .cfa: sp 0 +
STACK CFI 3a7c8 .cfa: x29 96 +
STACK CFI INIT 3b17c eb0 .cfa: sp 0 +
STACK CFI 3b180 .cfa: sp 96 +
STACK CFI 3b198 .cfa: x29 96 + x19: .cfa -8 + ^ x20: .cfa -16 + ^ x21: .cfa -24 + ^ x22: .cfa -32 + ^ x23: .cfa -40 + ^ x24: .cfa -48 + ^ x25: .cfa -56 + ^ x26: .cfa -64 + ^ x27: .cfa -72 + ^ x28: .cfa -80 + ^ .ra: .cfa -88 + ^ x29: .cfa -96 + ^
STACK CFI 3be40 .cfa: sp 96 +
STACK CFI 3be58 .cfa: sp 0 +
STACK CFI 3be5c .cfa: x29 96 +
STACK CFI INIT 3c3a0 1c9c .cfa: sp 0 +
STACK CFI 3c3a4 .cfa: sp 112 +
STACK CFI 3c3c0 .cfa: x29 96 + x19: .cfa -8 + ^ x20: .cfa -16 + ^ x21: .cfa -24 + ^ x22: .cfa -32 + ^ x23: .cfa -40 + ^ x24: .cfa -48 + ^ x25: .cfa -56 + ^ x26: .cfa -64 + ^ x27: .cfa -72 + ^ x28: .cfa -80 + ^ .ra: .cfa -88 + ^ x29: .cfa -96 + ^ v8: .cfa -112 + ^
STACK CFI 3c7a8 .cfa: sp 112 +
STACK CFI 3c7c4 .cfa: sp 0 +
STACK CFI 3c7c8 .cfa: x29 96 +
STACK CFI INIT 40800 9a0 .cfa: sp 0 +
STACK CFI 40804 .cfa: sp 144 +
STACK CFI 4081c .cfa: x29 80 + x19: .cfa -8 + ^ x20: .cfa -16 + ^ x21: .cfa -24 + ^ x22: .cfa -32 + ^ x23: .cfa -40 + ^ x24: .cfa -48 + ^ x25: .cfa -64 + ^ .ra: .cfa -72 + ^ x29: .cfa -80 + ^
STACK CFI 4111c .cfa: sp 144 +
STACK CFI 41134 .cfa: sp 0 +
STACK CFI 41138 .cfa: x29 80 +
STACK CFI INIT 426c4 57c .cfa: sp 0 +
STACK CFI 426c8 .cfa: sp 96 +
STACK CFI 426e0 .cfa: x29 96 + x19: .cfa -8 + ^ x20: .cfa -16 + ^ x21: .cfa -24 + ^ x22: .cfa -32 + ^ x23: .cfa -40 + ^ x24: .cfa -48 + ^ x25: .cfa -56 + ^ x26: .cfa -64 + ^ x27: .cfa -72 + ^ x28: .cfa -80 + ^ .ra: .cfa -88 + ^ x29: .cfa -96 + ^
STACK CFI 42ba4 .cfa: sp 96 +
STACK CFI 42bbc .cfa: sp 0 +
STACK CFI 42bc0 .cfa: x29 96 +
STACK CFI INIT 42c40 67c .cfa: sp 0 +
STACK CFI 42c44 .cfa: sp 96 +
STACK CFI 42c5c .cfa: x29 96 + x19: .cfa -8 + ^ x20: .cfa -16 + ^ x21: .cfa -24 + ^ x22: .cfa -32 + ^ x23: .cfa -40 + ^ x24: .cfa -48 + ^ x25: .cfa -56 + ^ x26: .cfa -64 + ^ x27: .cfa -72 + ^ x28: .cfa -80 + ^ .ra: .cfa -88 + ^ x29: .cfa -96 + ^
STACK CFI 43220 .cfa: sp 96 +
STACK CFI 43238 .cfa: sp 0 +
STACK CFI 4323c .cfa: x29 96 +
