MODULE Linux arm64 A0E5B2AA533A0A98E9B1C28A6B3FDC990 bitz.moregames.android64.so
INFO CODE_ID AAB2E5A03A53980AE9B1C28A6B3FDC99D661353F
INFO GENERATOR mozilla/dump_syms 2.3.4
PUBLIC 234d0 0 __on_dlclose
PUBLIC 234e0 0 __emutls_unregister_key
PUBLIC 234e8 0 __on_dlclose_late
PUBLIC 234f0 0 __atexit_handler_wrapper
PUBLIC 23504 0 atexit
PUBLIC 23520 0 pthread_atfork
PUBLIC 23530 0 __aarch64_ldadd8_relax
PUBLIC 23560 0 init_have_lse_atomics
PUBLIC 235f8 0 __init_cpu_features_constructor
PUBLIC 23b94 0 __init_cpu_features
PUBLIC 23c20 0 __aarch64_ldadd8_acq_rel
PUBLIC 23c50 0 more::MoreGamesCell::init(more::MoreGamesCell::CreateArg const&)
PUBLIC 23ed0 0 MeltdownSelectLayer::init(int)
PUBLIC 241ec 0 geode::cocos::CCArrayExt<cocos2d::CCSprite*, cocos2d::CCSprite>::~CCArrayExt()
PUBLIC 2420c 0 std::__ndk1::unordered_map<float, float, std::__ndk1::hash<float>, std::__ndk1::equal_to<float>, std::__ndk1::allocator<std::__ndk1::pair<float const, float> > >::~unordered_map[abi:ne180000]()
PUBLIC 24258 0 std::__ndk1::unordered_map<float, std::__ndk1::vector<cocos2d::CCNode*, std::__ndk1::allocator<cocos2d::CCNode*> >, std::__ndk1::hash<float>, std::__ndk1::equal_to<float>, std::__ndk1::allocator<std::__ndk1::pair<float const, std::__ndk1::vector<cocos2d::CCNode*, std::__ndk1::allocator<cocos2d::CCNode*> > > > >::~unordered_map[abi:ne180000]()
PUBLIC 242c8 0 more::MoreGamesLayer::customSetup()
PUBLIC 24ca8 0 geode::Mod::getSavedValue<int>(std::__ndk1::basic_string_view<char, std::__ndk1::char_traits<char> >)
PUBLIC 24e2c 0 more::MoreGamesLayer::onMeltdown(cocos2d::CCObject*)
PUBLIC 24f18 0 more::MoreGamesLayer::onCallback(cocos2d::CCObject*)
PUBLIC 24f4c 0 more::MoreGamesLayer::onSubzero(cocos2d::CCObject*)
PUBLIC 24f80 0 cocos2d::CCCopying::copyWithZone(cocos2d::CCZone*)
PUBLIC 24f88 0 more::MoreGamesLayer::~MoreGamesLayer()
PUBLIC 24fac 0 cocos2d::CCLayerRGBA::setOpacityModifyRGB(bool)
PUBLIC 24fb0 0 cocos2d::CCLayerRGBA::isOpacityModifyRGB()
PUBLIC 24fb8 0 {virtual override thunk({offset(-320)}, more::MoreGamesLayer::~MoreGamesLayer())}
PUBLIC 24fc0 0 {virtual override thunk({offset(-320)}, more::MoreGamesLayer::~MoreGamesLayer())}
PUBLIC 24fe8 0 cocos2d::CCKeyboardDelegate::keyUp(cocos2d::enumKeyCodes)
PUBLIC 24fec 0 cocos2d::CCMouseDelegate::rightKeyDown()
PUBLIC 24ff0 0 cocos2d::CCMouseDelegate::rightKeyUp()
PUBLIC 24ff4 0 cocos2d::CCMouseDelegate::scrollWheel(float, float)
PUBLIC 24ff8 0 {virtual override thunk({offset(-408)}, cocos2d::CCLayerRGBA::setOpacityModifyRGB(bool))}
PUBLIC 24ffc 0 {virtual override thunk({offset(-408)}, cocos2d::CCLayerRGBA::isOpacityModifyRGB())}
PUBLIC 25004 0 __cxx_global_var_init
PUBLIC 25460 0 __cxx_global_var_init.15
PUBLIC 258bc 0 __cxx_global_var_init.16
PUBLIC 25d18 0 __cxx_global_var_init.17
PUBLIC 26174 0 __cxx_global_var_init.18
PUBLIC 265d0 0 __cxx_global_var_init.19
PUBLIC 26a2c 0 __cxx_global_var_init.20
PUBLIC 26e88 0 geode::modifier::ModifyBase<geode::modifier::ModifyDerive<hook41<(anonymous namespace)::hook41Parent>, LoadingLayer> >::~ModifyBase()
PUBLIC 26ea0 0 geode::modifier::ModifyBase<geode::modifier::ModifyDerive<hook89<(anonymous namespace)::hook89Parent>, LevelTools> >::~ModifyBase()
PUBLIC 26eb8 0 geode::modifier::ModifyBase<geode::modifier::ModifyDerive<hook233<(anonymous namespace)::hook233Parent>, MenuLayer> >::~ModifyBase()
PUBLIC 26ed0 0 geode::modifier::ModifyBase<geode::modifier::ModifyDerive<hook253<(anonymous namespace)::hook253Parent>, GJGarageLayer> >::~ModifyBase()
PUBLIC 26ee8 0 geode::modifier::ModifyBase<geode::modifier::ModifyDerive<hook315<(anonymous namespace)::hook315Parent>, PauseLayer> >::~ModifyBase()
PUBLIC 26f00 0 geode::modifier::ModifyBase<geode::modifier::ModifyDerive<hook450<(anonymous namespace)::hook450Parent>, EndLevelLayer> >::~ModifyBase()
PUBLIC 26f18 0 geode::modifier::ModifyBase<geode::modifier::ModifyDerive<hook577<(anonymous namespace)::hook577Parent>, PlayLayer> >::~ModifyBase()
PUBLIC 26f30 0 more::MoreGamesCell::~MoreGamesCell()
PUBLIC 26f54 0 {virtual override thunk({offset(-320)}, more::MoreGamesCell::~MoreGamesCell())}
PUBLIC 26f5c 0 {virtual override thunk({offset(-320)}, more::MoreGamesCell::~MoreGamesCell())}
PUBLIC 26f84 0 MeltdownSelectLayer::~MeltdownSelectLayer()
PUBLIC 26fa8 0 {virtual override thunk({offset(-320)}, MeltdownSelectLayer::~MeltdownSelectLayer())}
PUBLIC 26fb0 0 {virtual override thunk({offset(-320)}, MeltdownSelectLayer::~MeltdownSelectLayer())}
PUBLIC 26fd8 0 __clang_call_terminate
PUBLIC 26fe8 0 std::__ndk1::__throw_length_error[abi:ne180000](char const*)
PUBLIC 27038 0 std::length_error::length_error[abi:ne180000](char const*)
PUBLIC 27068 0 std::__throw_bad_array_new_length([abi:ne180000], void)
PUBLIC 2709c 0 std::__ndk1::basic_string<char, std::__ndk1::char_traits<char>, std::__ndk1::allocator<char> >::__throw_length_error[abi:ne180000]() const
PUBLIC 270b0 0 BetterMDPopup::~BetterMDPopup()
PUBLIC 270d4 0 {virtual override thunk({offset(-320)}, BetterMDPopup::~BetterMDPopup())}
PUBLIC 270dc 0 {virtual override thunk({offset(-320)}, BetterMDPopup::~BetterMDPopup())}
PUBLIC 27104 0 geode::impl::ResultData<matjson::Value&, std::__ndk1::basic_string<char, std::__ndk1::char_traits<char>, std::__ndk1::allocator<char> > >::~ResultData()
PUBLIC 27178 0 matjson::Value::as<int>() const
PUBLIC 2727c 0 std::__ndk1::__throw_bad_variant_access[abi:ne180000]()
PUBLIC 272b0 0 std::__ndk1::basic_stringstream<char, std::__ndk1::char_traits<char>, std::__ndk1::allocator<char> >::basic_stringstream[abi:ne180000]()
PUBLIC m 273dc 0 std::__ndk1::basic_stringstream<char, std::__ndk1::char_traits<char>, std::__ndk1::allocator<char> >::~basic_stringstream()
PUBLIC 2745c 0 geode::UnwrapException::~UnwrapException()
PUBLIC 27480 0 std::__ndk1::__put_character_sequence[abi:ne180000]<char, std::__ndk1::char_traits<char> >(std::__ndk1::basic_ostream<char, std::__ndk1::char_traits<char> >, std::__ndk1::basic_ostream const*, unsigned long)
PUBLIC 27624 0 std::__ndk1::__pad_and_output[abi:ne180000]<char, std::__ndk1::char_traits<char> >(std::__ndk1::char_traits<char>, std::__ndk1::ostreambuf_iterator const*, std::__ndk1::ostreambuf_iterator const, std::__ndk1::ostreambuf_iterator const, std::__ndk1::ios_base&, std::__ndk1::ostreambuf_iterator)
PUBLIC 27800 0 std::__ndk1::basic_stringbuf<char, std::__ndk1::char_traits<char>, std::__ndk1::allocator<char> >::str[abi:ne180000]() &&
PUBLIC 27978 0 std::__ndk1::basic_stringbuf<char, std::__ndk1::char_traits<char>, std::__ndk1::allocator<char> >::__init_buf_ptrs[abi:ne180000]()
PUBLIC 27ac0 0 std::__ndk1::basic_string<char, std::__ndk1::char_traits<char>, std::__ndk1::allocator<char> >::__init_copy_ctor_external(char const*, unsigned long)
PUBLIC 27b40 0 std::__ndk1::__variant_detail::__visitation::__base::__dispatcher<(unsigned long)0>::__dispatch[abi:ne180000]<std::__ndk1::__variant_detail::__dtor<std::__ndk1::__variant_detail::__traits<long, std::__ndk1::basic_string<char, std::__ndk1::char_traits<char>, std::__ndk1::allocator<char> > >, (std::__ndk1::__variant_detail::_Trait)1>::__destroy[abi:ne180000]()::{lambda(auto:1&)#1}, std::__ndk1::__variant_detail::__base<(std::__ndk1::__variant_detail::__traits<long, std::__ndk1::basic_string<char, std::__ndk1::char_traits<char>, std::__ndk1::allocator<char> > >)1, long, std::__ndk1::allocator<char> >&>(std::__ndk1::__variant_detail::__dtor<std::__ndk1::__variant_detail::__traits<long, std::__ndk1::basic_string<char, std::__ndk1::char_traits<char>, std::__ndk1::allocator<char> > >, (std::__ndk1::__variant_detail::_Trait)1>, std::__ndk1::__variant_detail::__base<(std::__ndk1::__variant_detail::__traits<long, std::__ndk1::basic_string<char, std::__ndk1::char_traits<char>, std::__ndk1::allocator<char> > >)1, long, std::__ndk1::allocator<char> >&)
PUBLIC 27b44 0 std::__ndk1::__variant_detail::__visitation::__base::__dispatcher<(unsigned long)1>::__dispatch[abi:ne180000]<std::__ndk1::__variant_detail::__dtor<std::__ndk1::__variant_detail::__traits<long, std::__ndk1::basic_string<char, std::__ndk1::char_traits<char>, std::__ndk1::allocator<char> > >, (std::__ndk1::__variant_detail::_Trait)1>::__destroy[abi:ne180000]()::{lambda(auto:1&)#1}, std::__ndk1::__variant_detail::__base<(std::__ndk1::__variant_detail::__traits<long, std::__ndk1::basic_string<char, std::__ndk1::char_traits<char>, std::__ndk1::allocator<char> > >)1, long, std::__ndk1::allocator<char> >&>(std::__ndk1::__variant_detail::__dtor<std::__ndk1::__variant_detail::__traits<long, std::__ndk1::basic_string<char, std::__ndk1::char_traits<char>, std::__ndk1::allocator<char> > >, (std::__ndk1::__variant_detail::_Trait)1>, std::__ndk1::__variant_detail::__base<(std::__ndk1::__variant_detail::__traits<long, std::__ndk1::basic_string<char, std::__ndk1::char_traits<char>, std::__ndk1::allocator<char> > >)1, long, std::__ndk1::allocator<char> >&)
PUBLIC 27b58 0 std::__ndk1::__variant_detail::__visitation::__base::__dispatcher<(unsigned long)0>::__dispatch[abi:ne180000]<std::__ndk1::__variant_detail::__dtor<std::__ndk1::__variant_detail::__traits<std::__ndk1::reference_wrapper<matjson::Value>, std::__ndk1::basic_string<char, std::__ndk1::char_traits<char>, std::__ndk1::allocator<char> > >, (std::__ndk1::__variant_detail::_Trait)1>::__destroy[abi:ne180000]()::{lambda(auto:1&)#1}, std::__ndk1::__variant_detail::__base<(std::__ndk1::__variant_detail::__traits<std::__ndk1::reference_wrapper<matjson::Value>, std::__ndk1::basic_string<char, std::__ndk1::char_traits<char>, std::__ndk1::allocator<char> > >)1, matjson::Value, std::__ndk1::allocator<char> >&>(std::__ndk1::__variant_detail::__dtor<std::__ndk1::__variant_detail::__traits<std::__ndk1::reference_wrapper<matjson::Value>, std::__ndk1::basic_string<char, std::__ndk1::char_traits<char>, std::__ndk1::allocator<char> > >, (std::__ndk1::__variant_detail::_Trait)1>, std::__ndk1::__variant_detail::__base<(std::__ndk1::__variant_detail::__traits<std::__ndk1::reference_wrapper<matjson::Value>, std::__ndk1::basic_string<char, std::__ndk1::char_traits<char>, std::__ndk1::allocator<char> > >)1, matjson::Value, std::__ndk1::allocator<char> >&)
PUBLIC 27b5c 0 std::__ndk1::__variant_detail::__visitation::__base::__dispatcher<(unsigned long)1>::__dispatch[abi:ne180000]<std::__ndk1::__variant_detail::__dtor<std::__ndk1::__variant_detail::__traits<std::__ndk1::reference_wrapper<matjson::Value>, std::__ndk1::basic_string<char, std::__ndk1::char_traits<char>, std::__ndk1::allocator<char> > >, (std::__ndk1::__variant_detail::_Trait)1>::__destroy[abi:ne180000]()::{lambda(auto:1&)#1}, std::__ndk1::__variant_detail::__base<(std::__ndk1::__variant_detail::__traits<std::__ndk1::reference_wrapper<matjson::Value>, std::__ndk1::basic_string<char, std::__ndk1::char_traits<char>, std::__ndk1::allocator<char> > >)1, matjson::Value, std::__ndk1::allocator<char> >&>(std::__ndk1::__variant_detail::__dtor<std::__ndk1::__variant_detail::__traits<std::__ndk1::reference_wrapper<matjson::Value>, std::__ndk1::basic_string<char, std::__ndk1::char_traits<char>, std::__ndk1::allocator<char> > >, (std::__ndk1::__variant_detail::_Trait)1>, std::__ndk1::__variant_detail::__base<(std::__ndk1::__variant_detail::__traits<std::__ndk1::reference_wrapper<matjson::Value>, std::__ndk1::basic_string<char, std::__ndk1::char_traits<char>, std::__ndk1::allocator<char> > >)1, matjson::Value, std::__ndk1::allocator<char> >&)
PUBLIC 27b70 0 std::__ndk1::__variant_detail::__visitation::__base::__dispatcher<(unsigned long)0>::__dispatch[abi:ne180000]<std::__ndk1::__variant_detail::__dtor<std::__ndk1::__variant_detail::__traits<int, std::__ndk1::basic_string<char, std::__ndk1::char_traits<char>, std::__ndk1::allocator<char> > >, (std::__ndk1::__variant_detail::_Trait)1>::__destroy[abi:ne180000]()::{lambda(auto:1&)#1}, std::__ndk1::__variant_detail::__base<(std::__ndk1::__variant_detail::__traits<int, std::__ndk1::basic_string<char, std::__ndk1::char_traits<char>, std::__ndk1::allocator<char> > >)1, int, std::__ndk1::allocator<char> >&>(std::__ndk1::__variant_detail::__dtor<std::__ndk1::__variant_detail::__traits<int, std::__ndk1::basic_string<char, std::__ndk1::char_traits<char>, std::__ndk1::allocator<char> > >, (std::__ndk1::__variant_detail::_Trait)1>, std::__ndk1::__variant_detail::__base<(std::__ndk1::__variant_detail::__traits<int, std::__ndk1::basic_string<char, std::__ndk1::char_traits<char>, std::__ndk1::allocator<char> > >)1, int, std::__ndk1::allocator<char> >&)
PUBLIC 27b74 0 std::__ndk1::__variant_detail::__visitation::__base::__dispatcher<(unsigned long)1>::__dispatch[abi:ne180000]<std::__ndk1::__variant_detail::__dtor<std::__ndk1::__variant_detail::__traits<int, std::__ndk1::basic_string<char, std::__ndk1::char_traits<char>, std::__ndk1::allocator<char> > >, (std::__ndk1::__variant_detail::_Trait)1>::__destroy[abi:ne180000]()::{lambda(auto:1&)#1}, std::__ndk1::__variant_detail::__base<(std::__ndk1::__variant_detail::__traits<int, std::__ndk1::basic_string<char, std::__ndk1::char_traits<char>, std::__ndk1::allocator<char> > >)1, int, std::__ndk1::allocator<char> >&>(std::__ndk1::__variant_detail::__dtor<std::__ndk1::__variant_detail::__traits<int, std::__ndk1::basic_string<char, std::__ndk1::char_traits<char>, std::__ndk1::allocator<char> > >, (std::__ndk1::__variant_detail::_Trait)1>, std::__ndk1::__variant_detail::__base<(std::__ndk1::__variant_detail::__traits<int, std::__ndk1::basic_string<char, std::__ndk1::char_traits<char>, std::__ndk1::allocator<char> > >)1, int, std::__ndk1::allocator<char> >&)
PUBLIC 27b88 0 geode::modifier::ModifyDerive<hook41<(anonymous namespace)::hook41Parent>, LoadingLayer>::apply()
PUBLIC 27eac 0 std::__ndk1::shared_ptr<geode::Hook>::~shared_ptr[abi:ne180000]()
PUBLIC 27efc 0 geode::impl::ResultData<geode::Hook*, std::__ndk1::basic_string<char, std::__ndk1::char_traits<char>, std::__ndk1::allocator<char> > >::~ResultData()
PUBLIC 27f70 0 std::__ndk1::vector<std::__ndk1::basic_string<char, std::__ndk1::char_traits<char>, std::__ndk1::allocator<char> >, std::__ndk1::allocator<std::__ndk1::basic_string<char, std::__ndk1::char_traits<char>, std::__ndk1::allocator<char> > > >::~vector[abi:ne180000]()
PUBLIC 27fec 0 geode::modifier::ModifyBase<geode::modifier::ModifyDerive<hook41<(anonymous namespace)::hook41Parent>, LoadingLayer> >::apply()
PUBLIC 27ff0 0 _ZN5geode15UnwrapExceptionC2IRPNS_4HookEQsr4implE18IsStringStreamableIT_EEENS_4impl5OkTagEOS5_
PUBLIC 28144 0 std::__ndk1::vector<std::__ndk1::basic_string<char, std::__ndk1::char_traits<char>, std::__ndk1::allocator<char> >, std::__ndk1::allocator<std::__ndk1::basic_string<char, std::__ndk1::char_traits<char>, std::__ndk1::allocator<char> > > >::__push_back_slow_path<std::__ndk1::basic_string<char, std::__ndk1::char_traits<char>, std::__ndk1::allocator<char> > const&>(std::__ndk1::basic_string<char, std::__ndk1::char_traits<char>, std::__ndk1::allocator<char> > const&)
PUBLIC 28368 0 std::__ndk1::__split_buffer<std::__ndk1::basic_string<char, std::__ndk1::char_traits<char>, std::__ndk1::allocator<char> >, std::__ndk1::allocator<std::__ndk1::basic_string<char, std::__ndk1::char_traits<char>, std::__ndk1::allocator<char> > >&>::~__split_buffer()
PUBLIC 283d0 0 std::__ndk1::vector<std::__ndk1::basic_string<char, std::__ndk1::char_traits<char>, std::__ndk1::allocator<char> >, std::__ndk1::allocator<std::__ndk1::basic_string<char, std::__ndk1::char_traits<char>, std::__ndk1::allocator<char> > > >::__throw_length_error[abi:ne180000]() const
PUBLIC 283e4 0 std::__ndk1::__variant_detail::__visitation::__base::__dispatcher<(unsigned long)0>::__dispatch[abi:ne180000]<std::__ndk1::__variant_detail::__dtor<std::__ndk1::__variant_detail::__traits<geode::Hook*, std::__ndk1::basic_string<char, std::__ndk1::char_traits<char>, std::__ndk1::allocator<char> > >, (std::__ndk1::__variant_detail::_Trait)1>::__destroy[abi:ne180000]()::{lambda(auto:1&)#1}, std::__ndk1::__variant_detail::__base<(std::__ndk1::__variant_detail::__traits<geode::Hook*, std::__ndk1::basic_string<char, std::__ndk1::char_traits<char>, std::__ndk1::allocator<char> > >)1, geode::Hook, std::__ndk1::allocator<char> >&>(std::__ndk1::__variant_detail::__dtor<std::__ndk1::__variant_detail::__traits<geode::Hook*, std::__ndk1::basic_string<char, std::__ndk1::char_traits<char>, std::__ndk1::allocator<char> > >, (std::__ndk1::__variant_detail::_Trait)1>, std::__ndk1::__variant_detail::__base<(std::__ndk1::__variant_detail::__traits<geode::Hook*, std::__ndk1::basic_string<char, std::__ndk1::char_traits<char>, std::__ndk1::allocator<char> > >)1, geode::Hook, std::__ndk1::allocator<char> >&)
PUBLIC 283e8 0 std::__ndk1::__variant_detail::__visitation::__base::__dispatcher<(unsigned long)1>::__dispatch[abi:ne180000]<std::__ndk1::__variant_detail::__dtor<std::__ndk1::__variant_detail::__traits<geode::Hook*, std::__ndk1::basic_string<char, std::__ndk1::char_traits<char>, std::__ndk1::allocator<char> > >, (std::__ndk1::__variant_detail::_Trait)1>::__destroy[abi:ne180000]()::{lambda(auto:1&)#1}, std::__ndk1::__variant_detail::__base<(std::__ndk1::__variant_detail::__traits<geode::Hook*, std::__ndk1::basic_string<char, std::__ndk1::char_traits<char>, std::__ndk1::allocator<char> > >)1, geode::Hook, std::__ndk1::allocator<char> >&>(std::__ndk1::__variant_detail::__dtor<std::__ndk1::__variant_detail::__traits<geode::Hook*, std::__ndk1::basic_string<char, std::__ndk1::char_traits<char>, std::__ndk1::allocator<char> > >, (std::__ndk1::__variant_detail::_Trait)1>, std::__ndk1::__variant_detail::__base<(std::__ndk1::__variant_detail::__traits<geode::Hook*, std::__ndk1::basic_string<char, std::__ndk1::char_traits<char>, std::__ndk1::allocator<char> > >)1, geode::Hook, std::__ndk1::allocator<char> >&)
PUBLIC 283fc 0 std::__ndk1::__tree<std::__ndk1::__value_type<std::__ndk1::basic_string<char, std::__ndk1::char_traits<char>, std::__ndk1::allocator<char> >, std::__ndk1::shared_ptr<geode::Hook> >, std::__ndk1::__map_value_compare<std::__ndk1::basic_string<char, std::__ndk1::char_traits<char>, std::__ndk1::allocator<char> >, std::__ndk1::__value_type<std::__ndk1::basic_string<char, std::__ndk1::char_traits<char>, std::__ndk1::allocator<char> >, std::__ndk1::shared_ptr<geode::Hook> >, std::__ndk1::less<std::__ndk1::basic_string<char, std::__ndk1::char_traits<char>, std::__ndk1::allocator<char> > >, true>, std::__ndk1::allocator<std::__ndk1::__value_type<std::__ndk1::basic_string<char, std::__ndk1::char_traits<char>, std::__ndk1::allocator<char> >, std::__ndk1::shared_ptr<geode::Hook> > > >::find<std::__ndk1::basic_string<char, std::__ndk1::char_traits<char>, std::__ndk1::allocator<char> > >(std::__ndk1::basic_string<char, std::__ndk1::char_traits<char>, std::__ndk1::allocator<char> > const&)
PUBLIC 2851c 0 std::__ndk1::__tree<std::__ndk1::__value_type<std::__ndk1::basic_string<char, std::__ndk1::char_traits<char>, std::__ndk1::allocator<char> >, std::__ndk1::shared_ptr<geode::Hook> >, std::__ndk1::__map_value_compare<std::__ndk1::basic_string<char, std::__ndk1::char_traits<char>, std::__ndk1::allocator<char> >, std::__ndk1::__value_type<std::__ndk1::basic_string<char, std::__ndk1::char_traits<char>, std::__ndk1::allocator<char> >, std::__ndk1::shared_ptr<geode::Hook> >, std::__ndk1::less<std::__ndk1::basic_string<char, std::__ndk1::char_traits<char>, std::__ndk1::allocator<char> > >, true>, std::__ndk1::allocator<std::__ndk1::__value_type<std::__ndk1::basic_string<char, std::__ndk1::char_traits<char>, std::__ndk1::allocator<char> >, std::__ndk1::shared_ptr<geode::Hook> > > >::erase(std::__ndk1::__tree_const_iterator<std::__ndk1::__value_type<std::__ndk1::basic_string<char, std::__ndk1::char_traits<char>, std::__ndk1::allocator<char> >, std::__ndk1::shared_ptr<geode::Hook> >, std::__ndk1::__tree_node<std::__ndk1::__value_type<std::__ndk1::basic_string<char, std::__ndk1::char_traits<char>, std::__ndk1::allocator<char> >, std::__ndk1::shared_ptr<geode::Hook> >, void*>*, long>)
PUBLIC 289c0 0 std::__ndk1::__tree<std::__ndk1::__value_type<std::__ndk1::basic_string<char, std::__ndk1::char_traits<char>, std::__ndk1::allocator<char> >, std::__ndk1::shared_ptr<geode::Hook> >, std::__ndk1::__map_value_compare<std::__ndk1::basic_string<char, std::__ndk1::char_traits<char>, std::__ndk1::allocator<char> >, std::__ndk1::__value_type<std::__ndk1::basic_string<char, std::__ndk1::char_traits<char>, std::__ndk1::allocator<char> >, std::__ndk1::shared_ptr<geode::Hook> >, std::__ndk1::less<std::__ndk1::basic_string<char, std::__ndk1::char_traits<char>, std::__ndk1::allocator<char> > >, true>, std::__ndk1::allocator<std::__ndk1::__value_type<std::__ndk1::basic_string<char, std::__ndk1::char_traits<char>, std::__ndk1::allocator<char> >, std::__ndk1::shared_ptr<geode::Hook> > > >::destroy(std::__ndk1::__tree_node<std::__ndk1::__value_type<std::__ndk1::basic_string<char, std::__ndk1::char_traits<char>, std::__ndk1::allocator<char> >, std::__ndk1::shared_ptr<geode::Hook> >, void*>*)
PUBLIC 28a44 0 geode::modifier::AsStaticFunction_loadAssets<hook41<(anonymous namespace)::hook41Parent>, void (hook41<(anonymous namespace)::hook41Parent>::*)()>::Impl<void (hook41<(anonymous namespace)::hook41Parent>::*)()>::function(hook41<(anonymous namespace)::hook41Parent>*)
PUBLIC 29120 0 std::__ndk1::shared_ptr<tulip::hook::CallingConvention>::~shared_ptr[abi:ne180000]()
PUBLIC 29170 0 tulip::hook::HandlerMetadata::~HandlerMetadata()
PUBLIC 291d4 0 cocos2d::CCTexturePack::~CCTexturePack()
PUBLIC 29260 0 geode::impl::ResultData<void, std::__ndk1::basic_string<char, std::__ndk1::char_traits<char>, std::__ndk1::allocator<char> > >::~ResultData()
PUBLIC 292d4 0 _ZNSt6__ndk112basic_stringIcNS_11char_traitsIcEENS_9allocatorIcEEE6appendB8ne180000IPKcTnNS_9enable_ifIXsr31__has_forward_iterator_categoryIT_EE5valueEiE4typeELi0EEERS5_SA_SA_
PUBLIC 295d8 0 std::__ndk1::__exception_guard_exceptions<std::__ndk1::vector<std::__ndk1::basic_string<char, std::__ndk1::char_traits<char>, std::__ndk1::allocator<char> >, std::__ndk1::allocator<std::__ndk1::basic_string<char, std::__ndk1::char_traits<char>, std::__ndk1::allocator<char> > > >::__destroy_vector>::~__exception_guard_exceptions[abi:ne180000]()
PUBLIC 29664 0 std::__ndk1::__exception_guard_exceptions<std::__ndk1::_AllocatorDestroyRangeReverse<std::__ndk1::allocator<std::__ndk1::basic_string<char, std::__ndk1::char_traits<char>, std::__ndk1::allocator<char> > >, std::__ndk1::basic_string<char, std::__ndk1::char_traits<char>, std::__ndk1::allocator<char> >*> >::~__exception_guard_exceptions[abi:ne180000]()
PUBLIC 296c4 0 std::__ndk1::__variant_detail::__visitation::__base::__dispatcher<(unsigned long)0>::__dispatch[abi:ne180000]<std::__ndk1::__variant_detail::__dtor<std::__ndk1::__variant_detail::__traits<std::__ndk1::monostate, std::__ndk1::basic_string<char, std::__ndk1::char_traits<char>, std::__ndk1::allocator<char> > >, (std::__ndk1::__variant_detail::_Trait)1>::__destroy[abi:ne180000]()::{lambda(auto:1&)#1}, std::__ndk1::__variant_detail::__base<(std::__ndk1::__variant_detail::__traits<std::__ndk1::monostate, std::__ndk1::basic_string<char, std::__ndk1::char_traits<char>, std::__ndk1::allocator<char> > >)1, std::__ndk1::__variant_detail::__traits, std::__ndk1::allocator<char> >&>(std::__ndk1::__variant_detail::__dtor<std::__ndk1::__variant_detail::__traits<std::__ndk1::monostate, std::__ndk1::basic_string<char, std::__ndk1::char_traits<char>, std::__ndk1::allocator<char> > >, (std::__ndk1::__variant_detail::_Trait)1>, std::__ndk1::__variant_detail::__base<(std::__ndk1::__variant_detail::__traits<std::__ndk1::monostate, std::__ndk1::basic_string<char, std::__ndk1::char_traits<char>, std::__ndk1::allocator<char> > >)1, std::__ndk1::__variant_detail::__traits, std::__ndk1::allocator<char> >&)
PUBLIC 296c8 0 std::__ndk1::__variant_detail::__visitation::__base::__dispatcher<(unsigned long)1>::__dispatch[abi:ne180000]<std::__ndk1::__variant_detail::__dtor<std::__ndk1::__variant_detail::__traits<std::__ndk1::monostate, std::__ndk1::basic_string<char, std::__ndk1::char_traits<char>, std::__ndk1::allocator<char> > >, (std::__ndk1::__variant_detail::_Trait)1>::__destroy[abi:ne180000]()::{lambda(auto:1&)#1}, std::__ndk1::__variant_detail::__base<(std::__ndk1::__variant_detail::__traits<std::__ndk1::monostate, std::__ndk1::basic_string<char, std::__ndk1::char_traits<char>, std::__ndk1::allocator<char> > >)1, std::__ndk1::__variant_detail::__traits, std::__ndk1::allocator<char> >&>(std::__ndk1::__variant_detail::__dtor<std::__ndk1::__variant_detail::__traits<std::__ndk1::monostate, std::__ndk1::basic_string<char, std::__ndk1::char_traits<char>, std::__ndk1::allocator<char> > >, (std::__ndk1::__variant_detail::_Trait)1>, std::__ndk1::__variant_detail::__base<(std::__ndk1::__variant_detail::__traits<std::__ndk1::monostate, std::__ndk1::basic_string<char, std::__ndk1::char_traits<char>, std::__ndk1::allocator<char> > >)1, std::__ndk1::__variant_detail::__traits, std::__ndk1::allocator<char> >&)
PUBLIC 296dc 0 std::__ndk1::__tree<std::__ndk1::__value_type<std::__ndk1::basic_string<char, std::__ndk1::char_traits<char>, std::__ndk1::allocator<char> >, std::__ndk1::shared_ptr<geode::Hook> >, std::__ndk1::__map_value_compare<std::__ndk1::basic_string<char, std::__ndk1::char_traits<char>, std::__ndk1::allocator<char> >, std::__ndk1::__value_type<std::__ndk1::basic_string<char, std::__ndk1::char_traits<char>, std::__ndk1::allocator<char> >, std::__ndk1::shared_ptr<geode::Hook> >, std::__ndk1::less<std::__ndk1::basic_string<char, std::__ndk1::char_traits<char>, std::__ndk1::allocator<char> > >, true>, std::__ndk1::allocator<std::__ndk1::__value_type<std::__ndk1::basic_string<char, std::__ndk1::char_traits<char>, std::__ndk1::allocator<char> >, std::__ndk1::shared_ptr<geode::Hook> > > >::__emplace_unique_key_args<std::__ndk1::basic_string<char, std::__ndk1::char_traits<char>, std::__ndk1::allocator<char> >, std::__ndk1::piecewise_construct_t const&, std::__ndk1::tuple<std::__ndk1::basic_string<char, std::__ndk1::char_traits<char>, std::__ndk1::allocator<char> >&&>, std::__ndk1::tuple<> >(std::__ndk1::basic_string<char, std::__ndk1::char_traits<char>, std::__ndk1::allocator<char> > const&, std::__ndk1::piecewise_construct_t const&, std::__ndk1::tuple<std::__ndk1::basic_string<char, std::__ndk1::char_traits<char>, std::__ndk1::allocator<char> >&&>, std::__ndk1::tuple<>)
PUBLIC 29844 0 std::__ndk1::__tree_balance_after_insert[abi:ne180000]<std::__ndk1::__tree_node_base<void*>*>(std::__ndk1::__tree_node_base<void*>*, std::__ndk1::__tree_node_base<void*>*)
PUBLIC 299f4 0 geode::modifier::ModifyDerive<hook89<(anonymous namespace)::hook89Parent>, LevelTools>::apply()
PUBLIC 29d4c 0 geode::modifier::ModifyBase<geode::modifier::ModifyDerive<hook89<(anonymous namespace)::hook89Parent>, LevelTools> >::apply()
PUBLIC 29d50 0 geode::modifier::AsStaticFunction_getLevel<hook89<(anonymous namespace)::hook89Parent>, GJGameLevel* (*)(int, bool)>::Impl<GJGameLevel* (*)(int, bool)>::function(int, bool)
PUBLIC 2a1f8 0 geode::modifier::ModifyDerive<hook233<(anonymous namespace)::hook233Parent>, MenuLayer>::apply()
PUBLIC 2a614 0 geode::modifier::ModifyBase<geode::modifier::ModifyDerive<hook233<(anonymous namespace)::hook233Parent>, MenuLayer> >::apply()
PUBLIC 2a618 0 geode::Hook::create<void (*)(hook233<(anonymous namespace)::hook233Parent>*, cocos2d::CCObject*)>(void*, void (*)(hook233<(anonymous namespace)::hook233Parent>*, cocos2d::CCObject*), std::__ndk1::basic_string<char, std::__ndk1::char_traits<char>, std::__ndk1::allocator<char> > const&, tulip::hook::TulipConvention, tulip::hook::HookMetadata const&)
PUBLIC 2a79c 0 geode::modifier::AsStaticFunction_onMoreGames<hook233<(anonymous namespace)::hook233Parent>, void (hook233<(anonymous namespace)::hook233Parent>::*)(cocos2d::CCObject*)>::Impl<void (hook233<(anonymous namespace)::hook233Parent>::*)(cocos2d::CCObject*)>::function(hook233<(anonymous namespace)::hook233Parent>*, cocos2d::CCObject*)
PUBLIC 2a89c 0 geode::modifier::AsStaticFunction_onPlay<hook233<(anonymous namespace)::hook233Parent>, void (hook233<(anonymous namespace)::hook233Parent>::*)(cocos2d::CCObject*)>::Impl<void (hook233<(anonymous namespace)::hook233Parent>::*)(cocos2d::CCObject*)>::function(hook233<(anonymous namespace)::hook233Parent>*, cocos2d::CCObject*)
PUBLIC 2a9d0 0 geode::modifier::ModifyDerive<hook253<(anonymous namespace)::hook253Parent>, GJGarageLayer>::apply()
PUBLIC 2af84 0 geode::modifier::ModifyBase<geode::modifier::ModifyDerive<hook253<(anonymous namespace)::hook253Parent>, GJGarageLayer> >::apply()
PUBLIC 2af88 0 geode::modifier::AsStaticFunction_init<hook253<(anonymous namespace)::hook253Parent>, bool (hook253<(anonymous namespace)::hook253Parent>::*)()>::Impl<bool (hook253<(anonymous namespace)::hook253Parent>::*)()>::function(hook253<(anonymous namespace)::hook253Parent>*)
PUBLIC 2b0b8 0 geode::modifier::AsStaticFunction_onBack<hook253<(anonymous namespace)::hook253Parent>, void (hook253<(anonymous namespace)::hook253Parent>::*)(cocos2d::CCObject*)>::Impl<void (hook253<(anonymous namespace)::hook253Parent>::*)(cocos2d::CCObject*)>::function(hook253<(anonymous namespace)::hook253Parent>*, cocos2d::CCObject*)
PUBLIC 2b3c4 0 geode::addresser::Addresser::addressOfVirtual<bool, GJGarageLayer, >(bool (GJGarageLayer::*)())
PUBLIC 2b46c 0 GJGarageLayer::GJGarageLayer(geode::ZeroConstructorType)
PUBLIC 2b520 0 geode::modifier::ModifyDerive<hook315<(anonymous namespace)::hook315Parent>, PauseLayer>::apply()
PUBLIC 2b870 0 geode::modifier::ModifyBase<geode::modifier::ModifyDerive<hook315<(anonymous namespace)::hook315Parent>, PauseLayer> >::apply()
PUBLIC 2b874 0 geode::modifier::AsStaticFunction_onQuit<hook315<(anonymous namespace)::hook315Parent>, void (hook315<(anonymous namespace)::hook315Parent>::*)(cocos2d::CCObject*)>::Impl<void (hook315<(anonymous namespace)::hook315Parent>::*)(cocos2d::CCObject*)>::function(hook315<(anonymous namespace)::hook315Parent>*, cocos2d::CCObject*)
PUBLIC 2be48 0 geode::modifier::ModifyDerive<hook450<(anonymous namespace)::hook450Parent>, EndLevelLayer>::apply()
PUBLIC 2c194 0 geode::modifier::ModifyBase<geode::modifier::ModifyDerive<hook450<(anonymous namespace)::hook450Parent>, EndLevelLayer> >::apply()
PUBLIC 2c198 0 geode::modifier::AsStaticFunction_onMenu<hook450<(anonymous namespace)::hook450Parent>, void (hook450<(anonymous namespace)::hook450Parent>::*)(cocos2d::CCObject*)>::Impl<void (hook450<(anonymous namespace)::hook450Parent>::*)(cocos2d::CCObject*)>::function(hook450<(anonymous namespace)::hook450Parent>*, cocos2d::CCObject*)
PUBLIC 2c76c 0 geode::modifier::ModifyDerive<hook577<(anonymous namespace)::hook577Parent>, PlayLayer>::apply()
PUBLIC 2ca90 0 geode::modifier::ModifyBase<geode::modifier::ModifyDerive<hook577<(anonymous namespace)::hook577Parent>, PlayLayer> >::apply()
PUBLIC 2ca94 0 geode::modifier::AsStaticFunction_levelComplete<hook577<(anonymous namespace)::hook577Parent>, void (hook577<(anonymous namespace)::hook577Parent>::*)()>::Impl<void (hook577<(anonymous namespace)::hook577Parent>::*)()>::function(hook577<(anonymous namespace)::hook577Parent>*)
PUBLIC 2cf78 0 cocos2d::CCString::createWithFormat(char const*, ...)
PUBLIC 2d0b8 0 ownWorldSelectLayer::init(int)
PUBLIC 34368 0 ownWorldSelectLayer::onClose(cocos2d::CCObject*)
PUBLIC 34374 0 ownWorldSelectLayer::onWorldLevel(cocos2d::CCObject*)
PUBLIC 36208 0 cocos2d::CCSequence::create(cocos2d::CCFiniteTimeAction*, ...)
PUBLIC 362a0 0 ownWorldSelectLayer::runParticle()
PUBLIC 36628 0 ownWorldSelectLayer::onGarage(cocos2d::CCObject*)
PUBLIC 367a0 0 ownWorldSelectLayer::runScroll()
PUBLIC 36898 0 ownWorldSelectLayer::keyBackClicked()
PUBLIC 36a48 0 {virtual override thunk({offset(-336)}, ownWorldSelectLayer::keyBackClicked())}
PUBLIC 36a4c 0 ownWorldSelectLayer::onInfo(cocos2d::CCObject*)
PUBLIC 3738c 0 ownWorldSelectLayer::onPlay(cocos2d::CCObject*)
PUBLIC 3747c 0 ownWorldSelectLayer::scrollLayerMoved(cocos2d::CCPoint)
PUBLIC 375ac 0 {virtual override thunk({offset(-408)}, ownWorldSelectLayer::scrollLayerMoved(cocos2d::CCPoint))}
PUBLIC 375b4 0 ownWorldSelectLayer::updatePageWithObject(cocos2d::CCObject*, cocos2d::CCObject*)
PUBLIC 3760c 0 {virtual override thunk({offset(-416)}, ownWorldSelectLayer::updatePageWithObject(cocos2d::CCObject*, cocos2d::CCObject*))}
PUBLIC 37664 0 ownWorldSelectLayer::~ownWorldSelectLayer()
PUBLIC 37688 0 {virtual override thunk({offset(-320)}, ownWorldSelectLayer::~ownWorldSelectLayer())}
PUBLIC 37690 0 {virtual override thunk({offset(-320)}, ownWorldSelectLayer::~ownWorldSelectLayer())}
PUBLIC 376b8 0 more::GJWorldNodeDecomp::~GJWorldNodeDecomp()
PUBLIC 376dc 0 geode::Popup<std::__ndk1::basic_string<char, std::__ndk1::char_traits<char>, std::__ndk1::allocator<char> > const&>::~Popup()
PUBLIC 37748 0 WorldLevelPopup::~WorldLevelPopup()
PUBLIC 377bc 0 geode::Popup<std::__ndk1::basic_string<char, std::__ndk1::char_traits<char>, std::__ndk1::allocator<char> > const&>::registerWithTouchDispatcher()
PUBLIC 377e8 0 geode::Popup<std::__ndk1::basic_string<char, std::__ndk1::char_traits<char>, std::__ndk1::allocator<char> > const&>::keyDown(cocos2d::enumKeyCodes)
PUBLIC 37810 0 WorldLevelPopup::setup(std::__ndk1::basic_string<char, std::__ndk1::char_traits<char>, std::__ndk1::allocator<char> > const&)
PUBLIC 37a5c 0 geode::Popup<std::__ndk1::basic_string<char, std::__ndk1::char_traits<char>, std::__ndk1::allocator<char> > const&>::onClose(cocos2d::CCObject*)
PUBLIC 37ba4 0 {virtual override thunk({offset(-320)}, WorldLevelPopup::~WorldLevelPopup())}
PUBLIC 37c10 0 {virtual override thunk({offset(-320)}, WorldLevelPopup::~WorldLevelPopup())}
PUBLIC 37c84 0 {virtual override thunk({offset(-344)}, geode::Popup<std::__ndk1::basic_string<char, std::__ndk1::char_traits<char>, std::__ndk1::allocator<char> > const&>::keyDown(cocos2d::enumKeyCodes))}
PUBLIC 37cb0 0 geode::Popup<std::__ndk1::basic_string<char, std::__ndk1::char_traits<char>, std::__ndk1::allocator<char> > const&>::~Popup()
PUBLIC 37cb4 0 {virtual override thunk({offset(-320)}, geode::Popup<std::__ndk1::basic_string<char, std::__ndk1::char_traits<char>, std::__ndk1::allocator<char> > const&>::~Popup())}
PUBLIC 37d20 0 {virtual override thunk({offset(-320)}, geode::Popup<std::__ndk1::basic_string<char, std::__ndk1::char_traits<char>, std::__ndk1::allocator<char> > const&>::~Popup())}
PUBLIC 37d24 0 geode::Popup<std::__ndk1::basic_string<char, std::__ndk1::char_traits<char>, std::__ndk1::allocator<char> > const&>::CloseEvent::~CloseEvent()
PUBLIC 37d84 0 geode::Popup<std::__ndk1::basic_string<char, std::__ndk1::char_traits<char>, std::__ndk1::allocator<char> > const&>::CloseEvent::~CloseEvent()
PUBLIC 37df4 0 std::__ndk1::__shared_ptr_emplace<geode::Popup<std::__ndk1::basic_string<char, std::__ndk1::char_traits<char>, std::__ndk1::allocator<char> > const&>::CloseEvent::Impl, std::__ndk1::allocator<geode::Popup<std::__ndk1::basic_string<char, std::__ndk1::char_traits<char>, std::__ndk1::allocator<char> > const&>::CloseEvent::Impl> >::~__shared_ptr_emplace()
PUBLIC 37e04 0 std::__ndk1::__shared_ptr_emplace<geode::Popup<std::__ndk1::basic_string<char, std::__ndk1::char_traits<char>, std::__ndk1::allocator<char> > const&>::CloseEvent::Impl, std::__ndk1::allocator<geode::Popup<std::__ndk1::basic_string<char, std::__ndk1::char_traits<char>, std::__ndk1::allocator<char> > const&>::CloseEvent::Impl> >::~__shared_ptr_emplace()
PUBLIC 37e34 0 std::__ndk1::__shared_ptr_emplace<geode::Popup<std::__ndk1::basic_string<char, std::__ndk1::char_traits<char>, std::__ndk1::allocator<char> > const&>::CloseEvent::Impl, std::__ndk1::allocator<geode::Popup<std::__ndk1::basic_string<char, std::__ndk1::char_traits<char>, std::__ndk1::allocator<char> > const&>::CloseEvent::Impl> >::__on_zero_shared()
PUBLIC 37e38 0 std::__ndk1::__shared_ptr_emplace<geode::Popup<std::__ndk1::basic_string<char, std::__ndk1::char_traits<char>, std::__ndk1::allocator<char> > const&>::CloseEvent::Impl, std::__ndk1::allocator<geode::Popup<std::__ndk1::basic_string<char, std::__ndk1::char_traits<char>, std::__ndk1::allocator<char> > const&>::CloseEvent::Impl> >::__on_zero_shared_weak()
PUBLIC 37e3c 0 std::__ndk1::vector<int, std::__ndk1::allocator<int> >::__throw_length_error[abi:ne180000]() const
PUBLIC 37e50 0 std::__ndk1::basic_string<char, std::__ndk1::char_traits<char>, std::__ndk1::allocator<char> >::__assign_external(char const*, unsigned long)
PUBLIC 37f50 0 SubZeroSelectLayer::init(int)
PUBLIC 38274 0 SubZeroSelectLayer::scene(int)
PUBLIC 38350 0 SubZeroSelectLayer::~SubZeroSelectLayer()
PUBLIC 38374 0 {virtual override thunk({offset(-320)}, SubZeroSelectLayer::~SubZeroSelectLayer())}
PUBLIC 3837c 0 {virtual override thunk({offset(-320)}, SubZeroSelectLayer::~SubZeroSelectLayer())}
PUBLIC m 383a4 0 geodeImplicitEntry
PUBLIC 383e0 0 std::__ndk1::unordered_map<void*, bool, std::__ndk1::hash<void*>, std::__ndk1::equal_to<void*>, std::__ndk1::allocator<std::__ndk1::pair<void* const, bool> > >::~unordered_map[abi:ne180000]()
PUBLIC 3842c 0 wrapFunction(unsigned long, tulip::hook::WrapperMetadata const&)
PUBLIC 38560 0 geode::impl::ResultData<void*, std::__ndk1::basic_string<char, std::__ndk1::char_traits<char>, std::__ndk1::allocator<char> > >::unwrapErr() &
PUBLIC 385d8 0 geode::impl::ResultData<void*, std::__ndk1::basic_string<char, std::__ndk1::char_traits<char>, std::__ndk1::allocator<char> > >::~ResultData()
PUBLIC 3864c 0 tulip::hook::WrapperMetadata::~WrapperMetadata()
PUBLIC 386b0 0 cocos2d::CCObject::~CCObject()
PUBLIC 386d4 0 cocos2d::CCNode::CCNode()
PUBLIC 38930 0 cocos2d::CCNode::~CCNode()
PUBLIC 38954 0 cocos2d::CCLayer::CCLayer()
PUBLIC 38bd8 0 {virtual override thunk({offset(-320)}, cocos2d::CCLayer::~CCLayer())}
PUBLIC 38be0 0 cocos2d::CCLayer::~CCLayer()
PUBLIC 38c04 0 {virtual override thunk({offset(-320)}, cocos2d::CCLayer::~CCLayer())}
PUBLIC 38c2c 0 cocos2d::CCLayerRGBA::~CCLayerRGBA()
PUBLIC 38f2c 0 {virtual override thunk({offset(-320)}, cocos2d::CCLayerRGBA::~CCLayerRGBA())}
PUBLIC 38f34 0 cocos2d::CCLayerRGBA::~CCLayerRGBA()
PUBLIC 38f58 0 {virtual override thunk({offset(-320)}, cocos2d::CCLayerRGBA::~CCLayerRGBA())}
PUBLIC 38f80 0 cocos2d::CCLayerColor::CCLayerColor()
PUBLIC 391e4 0 {virtual override thunk({offset(-320)}, cocos2d::CCLayerColor::~CCLayerColor())}
PUBLIC 391ec 0 cocos2d::CCLayerColor::~CCLayerColor()
PUBLIC 39210 0 {virtual override thunk({offset(-320)}, cocos2d::CCLayerColor::~CCLayerColor())}
PUBLIC 39238 0 cocos2d::CCDictionary::objectForKey(gd::string const&)
PUBLIC 39388 0 tulip::hook::AbstractFunction::from<cocos2d::CCObject*, cocos2d::CCDictionary*, gd::string const&>(cocos2d::CCObject* (*)(cocos2d::CCDictionary*, gd::string const&))
PUBLIC 39430 0 GJDropDownLayer::ccTouchBegan(cocos2d::CCTouch*, cocos2d::CCEvent*)
PUBLIC 39438 0 {virtual override thunk({offset(-320)}, GJDropDownLayer::ccTouchBegan(cocos2d::CCTouch*, cocos2d::CCEvent*))}
PUBLIC 39440 0 GJDropDownLayer::ccTouchMoved(cocos2d::CCTouch*, cocos2d::CCEvent*)
PUBLIC 39444 0 {virtual override thunk({offset(-320)}, GJDropDownLayer::ccTouchMoved(cocos2d::CCTouch*, cocos2d::CCEvent*))}
PUBLIC 39448 0 GJDropDownLayer::ccTouchEnded(cocos2d::CCTouch*, cocos2d::CCEvent*)
PUBLIC 3944c 0 {virtual override thunk({offset(-320)}, GJDropDownLayer::ccTouchEnded(cocos2d::CCTouch*, cocos2d::CCEvent*))}
PUBLIC 39450 0 GJDropDownLayer::ccTouchCancelled(cocos2d::CCTouch*, cocos2d::CCEvent*)
PUBLIC 39454 0 {virtual override thunk({offset(-320)}, GJDropDownLayer::ccTouchCancelled(cocos2d::CCTouch*, cocos2d::CCEvent*))}
PUBLIC 39458 0 GJDropDownLayer::enterAnimFinished()
PUBLIC 3945c 0 {virtual override thunk({offset(-320)}, FLAlertLayer::~FLAlertLayer())}
PUBLIC 39464 0 FLAlertLayer::~FLAlertLayer()
PUBLIC 39488 0 {virtual override thunk({offset(-320)}, FLAlertLayer::~FLAlertLayer())}
PUBLIC 394b0 0 FLAlertLayer::create(FLAlertLayerProtocol*, char const*, gd::string, char const*, char const*, float)
PUBLIC 39668 0 tulip::hook::AbstractFunction::from<FLAlertLayer*, FLAlertLayerProtocol*, char const*, gd::string, char const*, char const*, float>(FLAlertLayer* (*)(FLAlertLayerProtocol*, char const*, gd::string, char const*, char const*, float))
PUBLIC 397d4 0 FLAlertLayer::init(FLAlertLayerProtocol*, char const*, gd::string, char const*, char const*, float, bool, float, float)
PUBLIC 399bc 0 tulip::hook::AbstractFunction::from<bool, FLAlertLayer*, FLAlertLayerProtocol*, char const*, gd::string, char const*, char const*, float, bool, float, float>(bool (*)(FLAlertLayer*, FLAlertLayerProtocol*, char const*, gd::string, char const*, char const*, float, bool, float, float))
PUBLIC 39dec 0 DialogObject::create(gd::string, gd::string, int, float, bool, cocos2d::_ccColor3B)
PUBLIC 39fc0 0 tulip::hook::AbstractFunction::from<DialogObject*, gd::string, gd::string, int, float, bool, cocos2d::_ccColor3B>(DialogObject* (*)(gd::string, gd::string, int, float, bool, cocos2d::_ccColor3B))
PUBLIC 3a138 0 FMODAudioEngine::playEffect(gd::string)
PUBLIC 3a2b0 0 tulip::hook::AbstractFunction::from<void, FMODAudioEngine*, gd::string>(void (*)(FMODAudioEngine*, gd::string))
PUBLIC 3a354 0 LevelSelectLayer::~LevelSelectLayer()
PUBLIC 3a664 0 {virtual override thunk({offset(-320)}, LevelSelectLayer::~LevelSelectLayer())}
PUBLIC 3a66c 0 LevelSelectLayer::~LevelSelectLayer()
PUBLIC 3a690 0 {virtual override thunk({offset(-320)}, LevelSelectLayer::~LevelSelectLayer())}
PUBLIC 3a6b8 0 cocos2d::CCObject::update(float)
PUBLIC 3a6bc 0 cocos2d::CCLayerColor::~CCLayerColor()
PUBLIC 3a9a0 0 FLAlertLayer::~FLAlertLayer()
PUBLIC 3ac84 0 cocos2d::CCNode::~CCNode()
PUBLIC 3af24 0 cocos2d::CCLayer::~CCLayer()
PUBLIC 3b214 0 cocos2d::CCObject::~CCObject()
PUBLIC 3b708 0 _ZN5geode15UnwrapExceptionC2IRPvQsr4implE18IsStringStreamableIT_EEENS_4impl5OkTagEOS4_
PUBLIC 3b85c 0 _ZN5geode15UnwrapExceptionC2IRNSt6__ndk112basic_stringIcNS2_11char_traitsIcEENS2_9allocatorIcEEEEQsr4implE18IsStringStreamableIT_EEENS_4impl6ErrTagEOSA_
PUBLIC 3b9c4 0 std::__ndk1::__variant_detail::__visitation::__base::__dispatcher<(unsigned long)0>::__dispatch[abi:ne180000]<std::__ndk1::__variant_detail::__dtor<std::__ndk1::__variant_detail::__traits<void*, std::__ndk1::basic_string<char, std::__ndk1::char_traits<char>, std::__ndk1::allocator<char> > >, (std::__ndk1::__variant_detail::_Trait)1>::__destroy[abi:ne180000]()::{lambda(auto:1&)#1}, std::__ndk1::__variant_detail::__base<(std::__ndk1::__variant_detail::__traits<void*, std::__ndk1::basic_string<char, std::__ndk1::char_traits<char>, std::__ndk1::allocator<char> > >)1, std::__ndk1::__variant_detail::__traits, std::__ndk1::allocator<char> >&>(std::__ndk1::__variant_detail::__dtor<std::__ndk1::__variant_detail::__traits<void*, std::__ndk1::basic_string<char, std::__ndk1::char_traits<char>, std::__ndk1::allocator<char> > >, (std::__ndk1::__variant_detail::_Trait)1>, std::__ndk1::__variant_detail::__base<(std::__ndk1::__variant_detail::__traits<void*, std::__ndk1::basic_string<char, std::__ndk1::char_traits<char>, std::__ndk1::allocator<char> > >)1, std::__ndk1::__variant_detail::__traits, std::__ndk1::allocator<char> >&)
PUBLIC 3b9c8 0 std::__ndk1::__variant_detail::__visitation::__base::__dispatcher<(unsigned long)1>::__dispatch[abi:ne180000]<std::__ndk1::__variant_detail::__dtor<std::__ndk1::__variant_detail::__traits<void*, std::__ndk1::basic_string<char, std::__ndk1::char_traits<char>, std::__ndk1::allocator<char> > >, (std::__ndk1::__variant_detail::_Trait)1>::__destroy[abi:ne180000]()::{lambda(auto:1&)#1}, std::__ndk1::__variant_detail::__base<(std::__ndk1::__variant_detail::__traits<void*, std::__ndk1::basic_string<char, std::__ndk1::char_traits<char>, std::__ndk1::allocator<char> > >)1, std::__ndk1::__variant_detail::__traits, std::__ndk1::allocator<char> >&>(std::__ndk1::__variant_detail::__dtor<std::__ndk1::__variant_detail::__traits<void*, std::__ndk1::basic_string<char, std::__ndk1::char_traits<char>, std::__ndk1::allocator<char> > >, (std::__ndk1::__variant_detail::_Trait)1>, std::__ndk1::__variant_detail::__base<(std::__ndk1::__variant_detail::__traits<void*, std::__ndk1::basic_string<char, std::__ndk1::char_traits<char>, std::__ndk1::allocator<char> > >)1, std::__ndk1::__variant_detail::__traits, std::__ndk1::allocator<char> >&)
PUBLIC 3b9dc 0 std::__ndk1::__hash_table<std::__ndk1::__hash_value_type<void*, bool>, std::__ndk1::__unordered_map_hasher<void*, std::__ndk1::__hash_value_type<void*, bool>, std::__ndk1::hash<void*>, std::__ndk1::equal_to<void*>, true>, std::__ndk1::__unordered_map_equal<void*, std::__ndk1::__hash_value_type<void*, bool>, std::__ndk1::equal_to<void*>, std::__ndk1::hash<void*>, true>, std::__ndk1::allocator<std::__ndk1::__hash_value_type<void*, bool> > >::__emplace_unique_key_args<void*, std::__ndk1::piecewise_construct_t const&, std::__ndk1::tuple<void* const&>, std::__ndk1::tuple<> >(void* const&, std::__ndk1::piecewise_construct_t const&, std::__ndk1::tuple<void* const&>, std::__ndk1::tuple<>)
PUBLIC 3bee8 0 std::__ndk1::vector<tulip::hook::AbstractType, std::__ndk1::allocator<tulip::hook::AbstractType> >::__throw_length_error[abi:ne180000]() const
PUBLIC 3befc 0 __udivti3
PUBLIC 3bf08 0 __udivmodti4
PUBLIC m 3c154 0 __eqtf2
PUBLIC 3c1f4 0 __unordtf2
PUBLIC 3c22c 0 fmt::v11::detail::write_loc(fmt::v11::basic_appender<char>, fmt::v11::loc_value, fmt::v11::format_specs const&, fmt::v11::detail::locale_ref)
PUBLIC 3c4c0 0 fmt::v11::format_facet<std::__ndk1::locale>::~format_facet()
PUBLIC 3c53c 0 fmt::v11::report_error(char const*)
PUBLIC 3c58c 0 fmt::v11::format_error::runtime_error(char const*)
PUBLIC 3c5b8 0 fmt::v11::format_facet<std::__ndk1::locale>::do_put(fmt::v11::basic_appender<char>, fmt::v11::loc_value, fmt::v11::format_specs const&) const
PUBLIC 3cd78 0 fmt::v11::detail::loc_writer<char>::~loc_writer()
PUBLIC 3cddc 0 fmt::v11::detail::vformat_to<char>(fmt::v11::detail::buffer<char>&, fmt::v11::basic_string_view<char>, fmt::v11::detail::vformat_args<char>::type, fmt::v11::detail::locale_ref)
PUBLIC 3d34c 0 fmt::v11::detail::is_printable(unsigned int)
PUBLIC 3d574 0 fmt::v11::detail::dragonbox::to_decimal<float>(float)
PUBLIC 3d850 0 fmt::v11::detail::dragonbox::to_decimal<double>(double)
PUBLIC 3dd8c 0 fmt::v11::basic_memory_buffer<char, (unsigned long)500, std::__ndk1::allocator<char> >::grow(fmt::v11::detail::buffer<char>&, unsigned long)
PUBLIC 3de04 0 fmt::v11::format_facet<std::__ndk1::locale>::~format_facet()
PUBLIC 3de90 0 fmt::v11::format_error::~format_error()
PUBLIC 3deb4 0 fmt::v11::detail::copy_noinline<char, char const*, fmt::v11::basic_appender<char> >(char const*, char const*, fmt::v11::basic_appender<char>)
PUBLIC 3e004 0 fmt::v11::detail::default_arg_formatter<char>::operator()<bool>(bool)
PUBLIC 3e06c 0 fmt::v11::detail::default_arg_formatter<char>::operator()<char>(char)
PUBLIC 3e0fc 0 fmt::v11::detail::default_arg_formatter<char>::operator()<float>(float)
PUBLIC 3e1e8 0 fmt::v11::detail::default_arg_formatter<char>::operator()<double>(double)
PUBLIC 3e2d4 0 fmt::v11::detail::default_arg_formatter<char>::operator()<char const*>(char const*)
PUBLIC 3e31c 0 fmt::v11::detail::default_arg_formatter<char>::operator()<void const*>(void const*)
PUBLIC 3e3b4 0 _ZN3fmt3v116detail5writeIcNS0_14basic_appenderIcEEiTnNSt6__ndk19enable_ifIXaaaasr11is_integralIT1_EE5valuentsr3std7is_sameIS7_bEE5valuentsr3std7is_sameIS7_T_EE5valueEiE4typeELi0EEET0_SB_S7_
PUBLIC 3e614 0 fmt::v11::detail::copy_noinline<char, char*, fmt::v11::basic_appender<char> >(char*, char*, fmt::v11::basic_appender<char>)
PUBLIC 3e764 0 _ZN3fmt3v116detail5writeIcNS0_14basic_appenderIcEEjTnNSt6__ndk19enable_ifIXaaaasr11is_integralIT1_EE5valuentsr3std7is_sameIS7_bEE5valuentsr3std7is_sameIS7_T_EE5valueEiE4typeELi0EEET0_SB_S7_
PUBLIC 3e944 0 _ZN3fmt3v116detail5writeIcNS0_14basic_appenderIcEExTnNSt6__ndk19enable_ifIXaaaasr11is_integralIT1_EE5valuentsr3std7is_sameIS7_bEE5valuentsr3std7is_sameIS7_T_EE5valueEiE4typeELi0EEET0_SB_S7_
PUBLIC 3ebc8 0 _ZN3fmt3v116detail5writeIcNS0_14basic_appenderIcEEyTnNSt6__ndk19enable_ifIXaaaasr11is_integralIT1_EE5valuentsr3std7is_sameIS7_bEE5valuentsr3std7is_sameIS7_T_EE5valueEiE4typeELi0EEET0_SB_S7_
PUBLIC 3edd0 0 _ZN3fmt3v116detail5writeIcNS0_14basic_appenderIcEEnTnNSt6__ndk19enable_ifIXaaaasr11is_integralIT1_EE5valuentsr3std7is_sameIS7_bEE5valuentsr3std7is_sameIS7_T_EE5valueEiE4typeELi0EEET0_SB_S7_
PUBLIC 3f130 0 _ZN3fmt3v116detail5writeIcNS0_14basic_appenderIcEEoTnNSt6__ndk19enable_ifIXaaaasr11is_integralIT1_EE5valuentsr3std7is_sameIS7_bEE5valuentsr3std7is_sameIS7_T_EE5valueEiE4typeELi0EEET0_SB_S7_
PUBLIC 3f444 0 _ZN3fmt3v116detail5writeIcNS0_14basic_appenderIcEEbTnNSt6__ndk19enable_ifIXsr3std7is_sameIT1_bEE5valueEiE4typeELi0EEET0_SA_S7_RKNS0_12format_specsENS1_10locale_refE
PUBLIC 3f6d4 0 fmt::v11::detail::write_int_noinline<char, fmt::v11::basic_appender<char>, unsigned int>(fmt::v11::basic_appender<char>, fmt::v11::detail::write_int_arg<unsigned int>, fmt::v11::format_specs const&, fmt::v11::detail::locale_ref)
PUBLIC 404b0 0 fmt::v11::detail::fill<char, fmt::v11::basic_appender<char> >(fmt::v11::basic_appender<char>, unsigned long, fmt::v11::detail::fill_t const&)
PUBLIC 40680 0 fmt::v11::detail::write_padded<char, (fmt::v11::align::type)1, fmt::v11::basic_appender<char>, fmt::v11::detail::write_char<char, fmt::v11::basic_appender<char> >(fmt::v11::basic_appender<char>, char, fmt::v11::format_specs const&)::{lambda(fmt::v11::basic_appender<char>&)#1}>(fmt::v11::basic_appender<char>, fmt::v11::format_specs const&, unsigned long, unsigned long, fmt::v11::detail::write_char<char, fmt::v11::basic_appender<char> >(fmt::v11::basic_appender<char>, char, fmt::v11::format_specs const&)::{lambda(fmt::v11::basic_appender<char>&)#1})
PUBLIC 408bc 0 fmt::v11::detail::write_escaped_cp<fmt::v11::basic_appender<char>, char>(fmt::v11::basic_appender<char>, fmt::v11::detail::find_escape_result<char> const&)
PUBLIC 40bc8 0 fmt::v11::detail::write_codepoint<(unsigned long)2, char, fmt::v11::basic_appender<char> >(fmt::v11::basic_appender<char>, char, unsigned int)
PUBLIC 40d40 0 fmt::v11::detail::write_codepoint<(unsigned long)8, char, fmt::v11::basic_appender<char> >(fmt::v11::basic_appender<char>, char, unsigned int)
PUBLIC 40eb8 0 fmt::v11::detail::write_padded<char, (fmt::v11::align::type)1, fmt::v11::basic_appender<char>, fmt::v11::detail::write_nonfinite<char, fmt::v11::basic_appender<char> >(fmt::v11::basic_appender<char>, bool, fmt::v11::format_specs, fmt::v11::sign::type)::{lambda(fmt::v11::basic_appender<char>&)#1}>(fmt::v11::basic_appender<char>, fmt::v11::format_specs const&, unsigned long, unsigned long, fmt::v11::detail::write_nonfinite<char, fmt::v11::basic_appender<char> >(fmt::v11::basic_appender<char>, bool, fmt::v11::format_specs, fmt::v11::sign::type)::{lambda(fmt::v11::basic_appender<char>&)#1})
PUBLIC 410f8 0 fmt::v11::detail::do_write_float<char, fmt::v11::basic_appender<char>, fmt::v11::detail::dragonbox::decimal_fp<float>, fmt::v11::detail::digit_grouping<char> >(fmt::v11::basic_appender<char>, fmt::v11::detail::dragonbox::decimal_fp<float> const&, fmt::v11::format_specs const&, fmt::v11::detail::float_specs, fmt::v11::detail::locale_ref)
PUBLIC 41d6c 0 fmt::v11::detail::do_write_float<char, fmt::v11::basic_appender<char>, fmt::v11::detail::dragonbox::decimal_fp<float>, fmt::v11::detail::digit_grouping<char> >(fmt::v11::basic_appender<char>, fmt::v11::detail::dragonbox::decimal_fp<float> const&, fmt::v11::format_specs const&, fmt::v11::detail::float_specs, fmt::v11::detail::locale_ref)::{lambda(fmt::v11::basic_appender<char>(fmt::v11::basic_appender<char>))#1}::operator() const
PUBLIC 41ec0 0 fmt::v11::detail::digit_grouping<char>::digit_grouping(fmt::v11::detail::locale_ref, bool)
PUBLIC 4212c 0 fmt::v11::detail::digit_grouping<char>::~digit_grouping()
PUBLIC 42170 0 fmt::v11::detail::write_exponent<char, fmt::v11::basic_appender<char> >(int, fmt::v11::basic_appender<char>)
PUBLIC 42340 0 _ZN3fmt3v116detail17write_significandIcjTnNSt6__ndk19enable_ifIXsr3std11is_integralIT0_EE5valueEiE4typeELi0EEEPT_S9_S5_iiS8_
PUBLIC 424bc 0 std::__ndk1::basic_string<char, std::__ndk1::char_traits<char>, std::__ndk1::allocator<char> >::__assign_no_alias<true>(char const*, unsigned long)
PUBLIC 42568 0 std::__ndk1::basic_string<char, std::__ndk1::char_traits<char>, std::__ndk1::allocator<char> >::__assign_no_alias<false>(char const*, unsigned long)
PUBLIC 42678 0 fmt::v11::detail::digit_grouping<char>::apply<fmt::v11::basic_appender<char>, char>(fmt::v11::basic_appender<char>, fmt::v11::basic_string_view<char>) const
PUBLIC 42a30 0 fmt::v11::basic_memory_buffer<int, (unsigned long)500, std::__ndk1::allocator<int> >::grow(fmt::v11::detail::buffer<int>&, unsigned long)
PUBLIC 42ad0 0 fmt::v11::detail::do_write_float<char, fmt::v11::basic_appender<char>, fmt::v11::detail::dragonbox::decimal_fp<double>, fmt::v11::detail::digit_grouping<char> >(fmt::v11::basic_appender<char>, fmt::v11::detail::dragonbox::decimal_fp<double> const&, fmt::v11::format_specs const&, fmt::v11::detail::float_specs, fmt::v11::detail::locale_ref)
PUBLIC 43784 0 fmt::v11::detail::do_write_float<char, fmt::v11::basic_appender<char>, fmt::v11::detail::dragonbox::decimal_fp<double>, fmt::v11::detail::digit_grouping<char> >(fmt::v11::basic_appender<char>, fmt::v11::detail::dragonbox::decimal_fp<double> const&, fmt::v11::format_specs const&, fmt::v11::detail::float_specs, fmt::v11::detail::locale_ref)::{lambda(fmt::v11::basic_appender<char>(fmt::v11::basic_appender<char>))#1}::operator() const
PUBLIC 438dc 0 _ZN3fmt3v116detail17write_significandIcmTnNSt6__ndk19enable_ifIXsr3std11is_integralIT0_EE5valueEiE4typeELi0EEEPT_S9_S5_iiS8_
PUBLIC 43a6c 0 fmt::v11::detail::write_float<char, fmt::v11::basic_appender<char>, long double>(fmt::v11::basic_appender<char>, long double, fmt::v11::format_specs, fmt::v11::detail::locale_ref)
PUBLIC 44568 0 fmt::v11::detail::write_padded<char, (fmt::v11::align::type)2, fmt::v11::basic_appender<char>, fmt::v11::detail::write_bytes<char, (fmt::v11::align::type)2, fmt::v11::basic_appender<char> >(fmt::v11::basic_appender<char>, fmt::v11::basic_string_view<char>, fmt::v11::format_specs const&)::{lambda(fmt::v11::basic_appender<char>&)#1}>(fmt::v11::basic_appender<char>, fmt::v11::format_specs const&, unsigned long, unsigned long, fmt::v11::detail::write_bytes<char, (fmt::v11::align::type)2, fmt::v11::basic_appender<char> >(fmt::v11::basic_appender<char>, fmt::v11::basic_string_view<char>, fmt::v11::format_specs const&)::{lambda(fmt::v11::basic_appender<char>&)#1})
PUBLIC 44744 0 fmt::v11::detail::format_dragon(fmt::v11::detail::basic_fp<unsigned __int128>, unsigned int, int, fmt::v11::detail::buffer<char>&, int&)
PUBLIC 45b74 0 fmt::v11::detail::bigint::operator<<=(int)
PUBLIC 45c98 0 fmt::v11::detail::bigint::assign_pow10(int)
PUBLIC 463f4 0 fmt::v11::detail::bigint::divmod_assign(fmt::v11::detail::bigint const&)
PUBLIC 46714 0 fmt::v11::basic_memory_buffer<unsigned int, (unsigned long)32, std::__ndk1::allocator<unsigned int> >::grow(fmt::v11::detail::buffer<unsigned int>&, unsigned long)
PUBLIC 467b4 0 fmt::v11::detail::do_write_float<char, fmt::v11::basic_appender<char>, fmt::v11::detail::big_decimal_fp, fmt::v11::detail::digit_grouping<char> >(fmt::v11::basic_appender<char>, fmt::v11::detail::big_decimal_fp const&, fmt::v11::format_specs const&, fmt::v11::detail::float_specs, fmt::v11::detail::locale_ref)
PUBLIC 47664 0 fmt::v11::detail::do_write_float<char, fmt::v11::basic_appender<char>, fmt::v11::detail::big_decimal_fp, fmt::v11::detail::digit_grouping<char> >(fmt::v11::basic_appender<char>, fmt::v11::detail::big_decimal_fp const&, fmt::v11::format_specs const&, fmt::v11::detail::float_specs, fmt::v11::detail::locale_ref)::{lambda(fmt::v11::basic_appender<char>(fmt::v11::basic_appender<char>))#1}::operator() const
PUBLIC 477c4 0 fmt::v11::detail::write_padded<char, (fmt::v11::align::type)2, fmt::v11::basic_appender<char>, fmt::v11::detail::write_ptr<char, fmt::v11::basic_appender<char>, unsigned long>(fmt::v11::basic_appender<char>, unsigned long, fmt::v11::format_specs const*)::{lambda(fmt::v11::basic_appender<char>&)#1}>(fmt::v11::basic_appender<char>, fmt::v11::format_specs const&, unsigned long, unsigned long, fmt::v11::detail::write_ptr<char, fmt::v11::basic_appender<char>, unsigned long>(fmt::v11::basic_appender<char>, unsigned long, fmt::v11::format_specs const*)::{lambda(fmt::v11::basic_appender<char>&)#1})
PUBLIC 479d8 0 fmt::v11::detail::parse_replacement_field<char, fmt::v11::detail::vformat_to<char>(fmt::v11::detail::buffer<char>&, fmt::v11::basic_string_view<char>, fmt::v11::detail::vformat_args<char>::type, fmt::v11::detail::locale_ref)::format_handler&>(char const*, char const*, fmt::v11::detail::vformat_to<char>(fmt::v11::detail::buffer<char>&, fmt::v11::basic_string_view<char>, fmt::v11::detail::vformat_args<char>::type, fmt::v11::detail::locale_ref)::format_handler&)
PUBLIC 49674 0 fmt::v11::detail::parse_dynamic_spec<char>(char const*, char const*, int&, fmt::v11::detail::arg_ref<char>&, fmt::v11::basic_format_parse_context<char>&)
PUBLIC 49904 0 fmt::v11::basic_format_args<fmt::v11::context>::get<char>(fmt::v11::basic_string_view<char>) const
PUBLIC 49a5c 0 fmt::v11::detail::write_int_noinline<char, fmt::v11::basic_appender<char>, unsigned long>(fmt::v11::basic_appender<char>, fmt::v11::detail::write_int_arg<unsigned long>, fmt::v11::format_specs const&, fmt::v11::detail::locale_ref)
PUBLIC 4a8b0 0 fmt::v11::detail::write_int_noinline<char, fmt::v11::basic_appender<char>, unsigned __int128>(fmt::v11::basic_appender<char>, fmt::v11::detail::write_int_arg<unsigned __int128>, fmt::v11::format_specs const&, fmt::v11::detail::locale_ref)
PUBLIC 4b918 0 _ZN3fmt3v116detail15format_hexfloatIdTnNSt6__ndk19enable_ifIXntsr16is_double_doubleIT_EE5valueEiE4typeELi0EEEvS5_NS0_12format_specsERNS1_6bufferIcEE
PUBLIC 4be38 0 fmt::v11::detail::format_float<double>(double, int, fmt::v11::detail::float_specs, fmt::v11::detail::buffer<char>&)
PUBLIC 4c7d8 0 fmt::v11::detail::write<char, fmt::v11::basic_appender<char> >(fmt::v11::basic_appender<char>, fmt::v11::basic_string_view<char>, fmt::v11::format_specs const&)
PUBLIC 4db44 0 fmt::v11::detail::for_each_codepoint<fmt::v11::detail::compute_width(fmt::v11::basic_string_view<char>)::count_code_points>(fmt::v11::basic_string_view<char>, fmt::v11::detail::compute_width(fmt::v11::basic_string_view<char>)::count_code_points)::{lambda(char const*, char const*)#1}::operator()(char const*, char const*) const
PUBLIC 4dcfc 0 fmt::v11::detail::write_int<fmt::v11::basic_appender<char>, unsigned long, char>(fmt::v11::basic_appender<char>, unsigned long, unsigned int, fmt::v11::format_specs const&, fmt::v11::detail::digit_grouping<char> const&)
PUBLIC 4e278 0 fmt::v11::detail::write_int<fmt::v11::basic_appender<char>, unsigned __int128, char>(fmt::v11::basic_appender<char>, unsigned __int128, unsigned int, fmt::v11::format_specs const&, fmt::v11::detail::digit_grouping<char> const&)
PUBLIC 4e900 0 <.plt ELF section in bitz.moregames.android64.so>
STACK CFI INIT 234d0 10 .cfa: sp 0 +
STACK CFI INIT 234e0 8 .cfa: sp 0 +
STACK CFI INIT 234e8 8 .cfa: sp 0 +
STACK CFI INIT 234f0 14 .cfa: sp 0 +
STACK CFI INIT 23504 1c .cfa: sp 0 +
STACK CFI INIT 23520 10 .cfa: sp 0 +
STACK CFI INIT 23530 30 .cfa: sp 0 +
STACK CFI INIT 23560 98 .cfa: sp 0 +
STACK CFI INIT 235f8 59c .cfa: sp 0 +
STACK CFI INIT 23b94 8c .cfa: sp 0 +
STACK CFI INIT 23c20 30 .cfa: sp 0 +
STACK CFI INIT 23c50 280 .cfa: sp 0 +
STACK CFI 23c54 .cfa: sp 144 +
STACK CFI 23c78 .cfa: x29 96 + x19: .cfa -8 + ^ x20: .cfa -16 + ^ x21: .cfa -24 + ^ x22: .cfa -32 + ^ x23: .cfa -40 + ^ x24: .cfa -48 + ^ x25: .cfa -56 + ^ x26: .cfa -64 + ^ x27: .cfa -80 + ^ .ra: .cfa -88 + ^ x29: .cfa -96 + ^ v8: .cfa -104 + ^ v9: .cfa -112 + ^ v10: .cfa -120 + ^ v11: .cfa -128 + ^
STACK CFI 23ea4 .cfa: sp 144 +
STACK CFI 23ec8 .cfa: sp 0 +
STACK CFI 23ecc .cfa: x29 96 +
STACK CFI INIT 2420c 4c .cfa: sp 0 +
STACK CFI 24210 .cfa: sp 32 +
STACK CFI 24218 .cfa: x29 32 + x19: .cfa -8 + ^ x20: .cfa -16 + ^ .ra: .cfa -24 + ^ x29: .cfa -32 + ^
STACK CFI 24240 .cfa: sp 32 +
STACK CFI 24248 .cfa: sp 0 +
STACK CFI 2424c .cfa: sp 32 +
STACK CFI 24254 .cfa: sp 0 +
STACK CFI INIT 24258 70 .cfa: sp 0 +
STACK CFI 2425c .cfa: sp 48 +
STACK CFI 24268 .cfa: x29 48 + x19: .cfa -8 + ^ x20: .cfa -16 + ^ x21: .cfa -32 + ^ .ra: .cfa -40 + ^ x29: .cfa -48 + ^
STACK CFI 24280 .cfa: sp 48 +
STACK CFI 2428c .cfa: sp 0 +
STACK CFI 24290 .cfa: x29 48 +
STACK CFI 242b8 .cfa: sp 48 +
STACK CFI 242c4 .cfa: sp 0 +
STACK CFI INIT 24f18 34 .cfa: sp 0 +
STACK CFI 24f1c .cfa: sp 32 +
STACK CFI 24f24 .cfa: x29 32 + x19: .cfa -16 + ^ .ra: .cfa -24 + ^ x29: .cfa -32 + ^
STACK CFI 24f40 .cfa: sp 32 +
STACK CFI 24f48 .cfa: sp 0 +
STACK CFI INIT 24f4c 34 .cfa: sp 0 +
STACK CFI 24f50 .cfa: sp 32 +
STACK CFI 24f58 .cfa: x29 32 + x19: .cfa -16 + ^ .ra: .cfa -24 + ^ x29: .cfa -32 + ^
STACK CFI 24f74 .cfa: sp 32 +
STACK CFI 24f7c .cfa: sp 0 +
STACK CFI INIT 24f80 8 .cfa: sp 0 +
STACK CFI INIT 24f88 24 .cfa: sp 0 +
STACK CFI 24f8c .cfa: sp 32 +
STACK CFI 24f94 .cfa: x29 32 + x19: .cfa -16 + ^ .ra: .cfa -24 + ^ x29: .cfa -32 + ^
STACK CFI 24fa0 .cfa: sp 32 +
STACK CFI 24fa8 .cfa: sp 0 +
STACK CFI INIT 24fac 4 .cfa: sp 0 +
STACK CFI INIT 24fb0 8 .cfa: sp 0 +
STACK CFI INIT 24fb8 8 .cfa: sp 0 +
STACK CFI INIT 24fc0 28 .cfa: sp 0 +
STACK CFI 24fc4 .cfa: sp 32 +
STACK CFI 24fcc .cfa: x29 32 + x19: .cfa -16 + ^ .ra: .cfa -24 + ^ x29: .cfa -32 + ^
STACK CFI 24fdc .cfa: sp 32 +
STACK CFI 24fe4 .cfa: sp 0 +
STACK CFI INIT 24fe8 4 .cfa: sp 0 +
STACK CFI INIT 24fec 4 .cfa: sp 0 +
STACK CFI INIT 24ff0 4 .cfa: sp 0 +
STACK CFI INIT 24ff4 4 .cfa: sp 0 +
STACK CFI INIT 24ff8 4 .cfa: sp 0 +
STACK CFI INIT 24ffc 8 .cfa: sp 0 +
STACK CFI INIT 26e88 18 .cfa: sp 0 +
STACK CFI INIT 26ea0 18 .cfa: sp 0 +
STACK CFI INIT 26eb8 18 .cfa: sp 0 +
STACK CFI INIT 26ed0 18 .cfa: sp 0 +
STACK CFI INIT 26ee8 18 .cfa: sp 0 +
STACK CFI INIT 26f00 18 .cfa: sp 0 +
STACK CFI INIT 26f18 18 .cfa: sp 0 +
STACK CFI INIT 26f30 24 .cfa: sp 0 +
STACK CFI 26f34 .cfa: sp 32 +
STACK CFI 26f3c .cfa: x29 32 + x19: .cfa -16 + ^ .ra: .cfa -24 + ^ x29: .cfa -32 + ^
STACK CFI 26f48 .cfa: sp 32 +
STACK CFI 26f50 .cfa: sp 0 +
STACK CFI INIT 26f54 8 .cfa: sp 0 +
STACK CFI INIT 26f5c 28 .cfa: sp 0 +
STACK CFI 26f60 .cfa: sp 32 +
STACK CFI 26f68 .cfa: x29 32 + x19: .cfa -16 + ^ .ra: .cfa -24 + ^ x29: .cfa -32 + ^
STACK CFI 26f78 .cfa: sp 32 +
STACK CFI 26f80 .cfa: sp 0 +
STACK CFI INIT 26f84 24 .cfa: sp 0 +
STACK CFI 26f88 .cfa: sp 32 +
STACK CFI 26f90 .cfa: x29 32 + x19: .cfa -16 + ^ .ra: .cfa -24 + ^ x29: .cfa -32 + ^
STACK CFI 26f9c .cfa: sp 32 +
STACK CFI 26fa4 .cfa: sp 0 +
STACK CFI INIT 26fa8 8 .cfa: sp 0 +
STACK CFI INIT 26fb0 28 .cfa: sp 0 +
STACK CFI 26fb4 .cfa: sp 32 +
STACK CFI 26fbc .cfa: x29 32 + x19: .cfa -16 + ^ .ra: .cfa -24 + ^ x29: .cfa -32 + ^
STACK CFI 26fcc .cfa: sp 32 +
STACK CFI 26fd4 .cfa: sp 0 +
STACK CFI INIT 26fd8 10 .cfa: sp 0 +
STACK CFI 26fdc .cfa: sp 16 +
STACK CFI 26fe0 .cfa: x29 16 + .ra: .cfa -8 + ^ x29: .cfa -16 + ^
STACK CFI INIT 27038 30 .cfa: sp 0 +
STACK CFI 2703c .cfa: sp 32 +
STACK CFI 27044 .cfa: x29 32 + x19: .cfa -16 + ^ .ra: .cfa -24 + ^ x29: .cfa -32 + ^
STACK CFI 2705c .cfa: sp 32 +
STACK CFI 27064 .cfa: sp 0 +
STACK CFI INIT 27068 34 .cfa: sp 0 +
STACK CFI 2706c .cfa: sp 32 +
STACK CFI 27074 .cfa: x29 32 + x19: .cfa -16 + ^ .ra: .cfa -24 + ^ x29: .cfa -32 + ^
STACK CFI INIT 2709c 14 .cfa: sp 0 +
STACK CFI 270a0 .cfa: sp 16 +
STACK CFI 270a4 .cfa: x29 16 + .ra: .cfa -8 + ^ x29: .cfa -16 + ^
STACK CFI INIT 270b0 24 .cfa: sp 0 +
STACK CFI 270b4 .cfa: sp 32 +
STACK CFI 270bc .cfa: x29 32 + x19: .cfa -16 + ^ .ra: .cfa -24 + ^ x29: .cfa -32 + ^
STACK CFI 270c8 .cfa: sp 32 +
STACK CFI 270d0 .cfa: sp 0 +
STACK CFI INIT 270d4 8 .cfa: sp 0 +
STACK CFI INIT 270dc 28 .cfa: sp 0 +
STACK CFI 270e0 .cfa: sp 32 +
STACK CFI 270e8 .cfa: x29 32 + x19: .cfa -16 + ^ .ra: .cfa -24 + ^ x29: .cfa -32 + ^
STACK CFI 270f8 .cfa: sp 32 +
STACK CFI 27100 .cfa: sp 0 +
STACK CFI INIT 2727c 34 .cfa: sp 0 +
STACK CFI 27280 .cfa: sp 16 +
STACK CFI 27284 .cfa: x29 16 + .ra: .cfa -8 + ^ x29: .cfa -16 + ^
STACK CFI INIT 273dc 80 .cfa: sp 0 +
STACK CFI 273e0 .cfa: sp 48 +
STACK CFI 273ec .cfa: x29 48 + x19: .cfa -8 + ^ x20: .cfa -16 + ^ x21: .cfa -32 + ^ .ra: .cfa -40 + ^ x29: .cfa -48 + ^
STACK CFI 2744c .cfa: sp 48 +
STACK CFI 27458 .cfa: sp 0 +
STACK CFI INIT 2745c 24 .cfa: sp 0 +
STACK CFI 27460 .cfa: sp 32 +
STACK CFI 27468 .cfa: x29 32 + x19: .cfa -16 + ^ .ra: .cfa -24 + ^ x29: .cfa -32 + ^
STACK CFI 27474 .cfa: sp 32 +
STACK CFI 2747c .cfa: sp 0 +
STACK CFI INIT 27978 148 .cfa: sp 0 +
STACK CFI 2797c .cfa: sp 48 +
STACK CFI 27988 .cfa: x29 48 + x19: .cfa -8 + ^ x20: .cfa -16 + ^ x21: .cfa -32 + ^ .ra: .cfa -40 + ^ x29: .cfa -48 + ^
STACK CFI 27ab0 .cfa: sp 48 +
STACK CFI 27abc .cfa: sp 0 +
STACK CFI INIT 27ac0 80 .cfa: sp 0 +
STACK CFI 27ac4 .cfa: sp 48 +
STACK CFI 27ad0 .cfa: x29 48 + x19: .cfa -8 + ^ x20: .cfa -16 + ^ x21: .cfa -24 + ^ x22: .cfa -32 + ^ .ra: .cfa -40 + ^ x29: .cfa -48 + ^
STACK CFI 27ae8 .cfa: sp 48 +
STACK CFI 27af4 .cfa: sp 0 +
STACK CFI 27af8 .cfa: x29 48 +
STACK CFI 27b28 .cfa: sp 48 +
STACK CFI 27b34 .cfa: sp 0 +
STACK CFI 27b38 .cfa: x29 48 +
STACK CFI INIT 27b40 4 .cfa: sp 0 +
STACK CFI INIT 27b44 14 .cfa: sp 0 +
STACK CFI INIT 27b58 4 .cfa: sp 0 +
STACK CFI INIT 27b5c 14 .cfa: sp 0 +
STACK CFI INIT 27b70 4 .cfa: sp 0 +
STACK CFI INIT 27b74 14 .cfa: sp 0 +
STACK CFI INIT 27eac 50 .cfa: sp 0 +
STACK CFI 27eb0 .cfa: sp 32 +
STACK CFI 27eb8 .cfa: x29 32 + x19: .cfa -16 + ^ .ra: .cfa -24 + ^ x29: .cfa -32 + ^
STACK CFI 27ed0 .cfa: sp 32 +
STACK CFI 27ed8 .cfa: sp 0 +
STACK CFI 27edc .cfa: x29 32 +
STACK CFI 27ef0 .cfa: sp 32 +
STACK CFI 27ef8 .cfa: sp 0 +
STACK CFI INIT 27f70 7c .cfa: sp 0 +
STACK CFI 27f74 .cfa: sp 48 +
STACK CFI 27f80 .cfa: x29 48 + x19: .cfa -8 + ^ x20: .cfa -16 + ^ x21: .cfa -32 + ^ .ra: .cfa -40 + ^ x29: .cfa -48 + ^
STACK CFI 27fcc .cfa: sp 48 +
STACK CFI 27fd8 .cfa: sp 0 +
STACK CFI 27fdc .cfa: sp 48 +
STACK CFI 27fe8 .cfa: sp 0 +
STACK CFI INIT 27fec 4 .cfa: sp 0 +
STACK CFI INIT 28368 68 .cfa: sp 0 +
STACK CFI 2836c .cfa: sp 32 +
STACK CFI 28374 .cfa: x29 32 + x19: .cfa -8 + ^ x20: .cfa -16 + ^ .ra: .cfa -24 + ^ x29: .cfa -32 + ^
STACK CFI 2838c .cfa: sp 32 +
STACK CFI 28394 .cfa: sp 0 +
STACK CFI 28398 .cfa: x29 32 +
STACK CFI 283c4 .cfa: sp 32 +
STACK CFI 283cc .cfa: sp 0 +
STACK CFI INIT 283d0 14 .cfa: sp 0 +
STACK CFI 283d4 .cfa: sp 16 +
STACK CFI 283d8 .cfa: x29 16 + .ra: .cfa -8 + ^ x29: .cfa -16 + ^
STACK CFI INIT 283e4 4 .cfa: sp 0 +
STACK CFI INIT 283e8 14 .cfa: sp 0 +
STACK CFI INIT 283fc 120 .cfa: sp 0 +
STACK CFI 28400 .cfa: sp 64 +
STACK CFI 28410 .cfa: x29 64 + x19: .cfa -8 + ^ x20: .cfa -16 + ^ x21: .cfa -24 + ^ x22: .cfa -32 + ^ x23: .cfa -40 + ^ x24: .cfa -48 + ^ .ra: .cfa -56 + ^ x29: .cfa -64 + ^
STACK CFI 28508 .cfa: sp 64 +
STACK CFI 28518 .cfa: sp 0 +
STACK CFI INIT 2851c 4a4 .cfa: sp 0 +
STACK CFI 28520 .cfa: sp 32 +
STACK CFI 28528 .cfa: x29 32 + x19: .cfa -8 + ^ x20: .cfa -16 + ^ .ra: .cfa -24 + ^ x29: .cfa -32 + ^
STACK CFI 28908 .cfa: sp 32 +
STACK CFI 28910 .cfa: sp 0 +
STACK CFI 28914 .cfa: x29 32 +
STACK CFI INIT 289c0 84 .cfa: sp 0 +
STACK CFI 289c8 .cfa: sp 32 +
STACK CFI 289d0 .cfa: x29 32 + x19: .cfa -8 + ^ x20: .cfa -16 + ^ .ra: .cfa -24 + ^ x29: .cfa -32 + ^
STACK CFI 28a10 .cfa: sp 32 +
STACK CFI 28a18 .cfa: sp 0 +
STACK CFI 28a20 .cfa: x29 32 +
STACK CFI INIT 29120 50 .cfa: sp 0 +
STACK CFI 29124 .cfa: sp 32 +
STACK CFI 2912c .cfa: x29 32 + x19: .cfa -16 + ^ .ra: .cfa -24 + ^ x29: .cfa -32 + ^
STACK CFI 29144 .cfa: sp 32 +
STACK CFI 2914c .cfa: sp 0 +
STACK CFI 29150 .cfa: x29 32 +
STACK CFI 29164 .cfa: sp 32 +
STACK CFI 2916c .cfa: sp 0 +
STACK CFI INIT 29170 64 .cfa: sp 0 +
STACK CFI 29174 .cfa: sp 32 +
STACK CFI 2917c .cfa: x29 32 + x19: .cfa -16 + ^ .ra: .cfa -24 + ^ x29: .cfa -32 + ^
STACK CFI 291a8 .cfa: sp 32 +
STACK CFI 291b0 .cfa: sp 0 +
STACK CFI 291b4 .cfa: x29 32 +
STACK CFI 291c8 .cfa: sp 32 +
STACK CFI 291d0 .cfa: sp 0 +
STACK CFI INIT 291d4 8c .cfa: sp 0 +
STACK CFI 291d8 .cfa: sp 48 +
STACK CFI 291e4 .cfa: x29 48 + x19: .cfa -8 + ^ x20: .cfa -16 + ^ x21: .cfa -32 + ^ .ra: .cfa -40 + ^ x29: .cfa -48 + ^
STACK CFI 2923c .cfa: sp 48 +
STACK CFI 29248 .cfa: sp 0 +
STACK CFI 2924c .cfa: x29 48 +
STACK CFI 29250 .cfa: sp 48 +
STACK CFI 2925c .cfa: sp 0 +
STACK CFI INIT 295d8 8c .cfa: sp 0 +
STACK CFI 295dc .cfa: sp 48 +
STACK CFI 295e8 .cfa: x29 48 + x19: .cfa -8 + ^ x20: .cfa -16 + ^ x21: .cfa -24 + ^ x22: .cfa -32 + ^ .ra: .cfa -40 + ^ x29: .cfa -48 + ^
STACK CFI 295f0 .cfa: sp 48 +
STACK CFI 295fc .cfa: sp 0 +
STACK CFI 29600 .cfa: x29 48 +
STACK CFI 29654 .cfa: sp 48 +
STACK CFI 29660 .cfa: sp 0 +
STACK CFI INIT 29664 60 .cfa: sp 0 +
STACK CFI 29674 .cfa: sp 32 +
STACK CFI 2967c .cfa: x29 32 + x19: .cfa -8 + ^ x20: .cfa -16 + ^ .ra: .cfa -24 + ^ x29: .cfa -32 + ^
STACK CFI 296b8 .cfa: sp 32 +
STACK CFI 296c0 .cfa: sp 0 +
STACK CFI INIT 296c4 4 .cfa: sp 0 +
STACK CFI INIT 296c8 14 .cfa: sp 0 +
STACK CFI INIT 296dc 168 .cfa: sp 0 +
STACK CFI 296e0 .cfa: sp 80 +
STACK CFI 296f4 .cfa: x29 80 + x19: .cfa -8 + ^ x20: .cfa -16 + ^ x21: .cfa -24 + ^ x22: .cfa -32 + ^ x23: .cfa -40 + ^ x24: .cfa -48 + ^ x25: .cfa -56 + ^ x26: .cfa -64 + ^ .ra: .cfa -72 + ^ x29: .cfa -80 + ^
STACK CFI 2982c .cfa: sp 80 +
STACK CFI 29840 .cfa: sp 0 +
STACK CFI INIT 29844 1b0 .cfa: sp 0 +
STACK CFI INIT 29d4c 4 .cfa: sp 0 +
STACK CFI INIT 2a614 4 .cfa: sp 0 +
STACK CFI INIT 2af84 4 .cfa: sp 0 +
STACK CFI INIT 2b46c b4 .cfa: sp 0 +
STACK CFI 2b470 .cfa: sp 32 +
STACK CFI 2b478 .cfa: x29 32 + x19: .cfa -16 + ^ .ra: .cfa -24 + ^ x29: .cfa -32 + ^
STACK CFI 2b514 .cfa: sp 32 +
STACK CFI 2b51c .cfa: sp 0 +
STACK CFI INIT 2b870 4 .cfa: sp 0 +
STACK CFI INIT 2c194 4 .cfa: sp 0 +
STACK CFI INIT 2ca90 4 .cfa: sp 0 +
STACK CFI INIT 34368 c .cfa: sp 0 +
STACK CFI INIT 36208 98 .cfa: sp 0 +
STACK CFI 3620c .cfa: sp 304 +
STACK CFI 36218 .cfa: x29 32 + x19: .cfa -8 + ^ x28: .cfa -16 + ^ .ra: .cfa -24 + ^ x29: .cfa -32 + ^
STACK CFI 3628c .cfa: sp 304 +
STACK CFI 36298 .cfa: sp 0 +
STACK CFI 3629c .cfa: x29 32 +
STACK CFI INIT 362a0 388 .cfa: sp 0 +
STACK CFI 362a4 .cfa: sp 128 +
STACK CFI 362c0 .cfa: x29 80 + x19: .cfa -8 + ^ x20: .cfa -16 + ^ x21: .cfa -24 + ^ x22: .cfa -32 + ^ x23: .cfa -40 + ^ x24: .cfa -48 + ^ x25: .cfa -64 + ^ .ra: .cfa -72 + ^ x29: .cfa -80 + ^ v8: .cfa -88 + ^ v9: .cfa -96 + ^
STACK CFI 36604 .cfa: sp 128 +
STACK CFI 36620 .cfa: sp 0 +
STACK CFI 36624 .cfa: x29 80 +
STACK CFI INIT 36a48 4 .cfa: sp 0 +
STACK CFI INIT 3747c 130 .cfa: sp 0 +
STACK CFI 37480 .cfa: sp 80 +
STACK CFI 37494 .cfa: x29 64 + x19: .cfa -8 + ^ x20: .cfa -16 + ^ x21: .cfa -24 + ^ x22: .cfa -32 + ^ x23: .cfa -48 + ^ .ra: .cfa -56 + ^ x29: .cfa -64 + ^
STACK CFI 37590 .cfa: sp 80 +
STACK CFI 375a4 .cfa: sp 0 +
STACK CFI 375a8 .cfa: x29 64 +
STACK CFI INIT 375ac 8 .cfa: sp 0 +
STACK CFI INIT 375b4 58 .cfa: sp 0 +
STACK CFI 375b8 .cfa: sp 32 +
STACK CFI 375c0 .cfa: x29 32 + x19: .cfa -16 + ^ .ra: .cfa -24 + ^ x29: .cfa -32 + ^
STACK CFI 375f4 .cfa: sp 32 +
STACK CFI 375fc .cfa: sp 0 +
STACK CFI 37600 .cfa: sp 32 +
STACK CFI 37608 .cfa: sp 0 +
STACK CFI INIT 3760c 58 .cfa: sp 0 +
STACK CFI 37610 .cfa: sp 32 +
STACK CFI 37618 .cfa: x29 32 + x19: .cfa -16 + ^ .ra: .cfa -24 + ^ x29: .cfa -32 + ^
STACK CFI 3764c .cfa: sp 32 +
STACK CFI 37654 .cfa: sp 0 +
STACK CFI 37658 .cfa: sp 32 +
STACK CFI 37660 .cfa: sp 0 +
STACK CFI INIT 37664 24 .cfa: sp 0 +
STACK CFI 37668 .cfa: sp 32 +
STACK CFI 37670 .cfa: x29 32 + x19: .cfa -16 + ^ .ra: .cfa -24 + ^ x29: .cfa -32 + ^
STACK CFI 3767c .cfa: sp 32 +
STACK CFI 37684 .cfa: sp 0 +
STACK CFI INIT 37688 8 .cfa: sp 0 +
STACK CFI INIT 37690 28 .cfa: sp 0 +
STACK CFI 37694 .cfa: sp 32 +
STACK CFI 3769c .cfa: x29 32 + x19: .cfa -16 + ^ .ra: .cfa -24 + ^ x29: .cfa -32 + ^
STACK CFI 376ac .cfa: sp 32 +
STACK CFI 376b4 .cfa: sp 0 +
STACK CFI INIT 376b8 24 .cfa: sp 0 +
STACK CFI 376bc .cfa: sp 32 +
STACK CFI 376c4 .cfa: x29 32 + x19: .cfa -16 + ^ .ra: .cfa -24 + ^ x29: .cfa -32 + ^
STACK CFI 376d0 .cfa: sp 32 +
STACK CFI 376d8 .cfa: sp 0 +
STACK CFI INIT 377bc 2c .cfa: sp 0 +
STACK CFI 377c0 .cfa: sp 32 +
STACK CFI 377c8 .cfa: x29 32 + x19: .cfa -16 + ^ .ra: .cfa -24 + ^ x29: .cfa -32 + ^
STACK CFI 377dc .cfa: sp 32 +
STACK CFI 377e4 .cfa: sp 0 +
STACK CFI INIT 377e8 28 .cfa: sp 0 +
STACK CFI INIT 37c84 2c .cfa: sp 0 +
STACK CFI INIT 37cb0 4 .cfa: sp 0 +
STACK CFI INIT 37d20 4 .cfa: sp 0 +
STACK CFI INIT 37d24 60 .cfa: sp 0 +
STACK CFI 37d28 .cfa: sp 32 +
STACK CFI 37d30 .cfa: x29 32 + x19: .cfa -8 + ^ x20: .cfa -16 + ^ .ra: .cfa -24 + ^ x29: .cfa -32 + ^
STACK CFI 37d50 .cfa: sp 32 +
STACK CFI 37d58 .cfa: sp 0 +
STACK CFI 37d5c .cfa: x29 32 +
STACK CFI 37d78 .cfa: sp 32 +
STACK CFI 37d80 .cfa: sp 0 +
STACK CFI INIT 37d84 70 .cfa: sp 0 +
STACK CFI 37d88 .cfa: sp 32 +
STACK CFI 37d90 .cfa: x29 32 + x19: .cfa -8 + ^ x20: .cfa -16 + ^ .ra: .cfa -24 + ^ x29: .cfa -32 + ^
STACK CFI 37db8 .cfa: sp 32 +
STACK CFI 37dc0 .cfa: sp 0 +
STACK CFI 37dc4 .cfa: x29 32 +
STACK CFI 37de8 .cfa: sp 32 +
STACK CFI 37df0 .cfa: sp 0 +
STACK CFI INIT 37df4 10 .cfa: sp 0 +
STACK CFI INIT 37e04 30 .cfa: sp 0 +
STACK CFI 37e08 .cfa: sp 32 +
STACK CFI 37e10 .cfa: x29 32 + x19: .cfa -16 + ^ .ra: .cfa -24 + ^ x29: .cfa -32 + ^
STACK CFI 37e28 .cfa: sp 32 +
STACK CFI 37e30 .cfa: sp 0 +
STACK CFI INIT 37e34 4 .cfa: sp 0 +
STACK CFI INIT 37e38 4 .cfa: sp 0 +
STACK CFI INIT 37e3c 14 .cfa: sp 0 +
STACK CFI 37e40 .cfa: sp 16 +
STACK CFI 37e44 .cfa: x29 16 + .ra: .cfa -8 + ^ x29: .cfa -16 + ^
STACK CFI INIT 37e50 100 .cfa: sp 0 +
STACK CFI 37e54 .cfa: sp 64 +
STACK CFI 37e64 .cfa: x29 64 + x19: .cfa -8 + ^ x20: .cfa -16 + ^ x21: .cfa -24 + ^ x22: .cfa -32 + ^ x23: .cfa -40 + ^ x24: .cfa -48 + ^ .ra: .cfa -56 + ^ x29: .cfa -64 + ^
STACK CFI 37f3c .cfa: sp 64 +
STACK CFI 37f4c .cfa: sp 0 +
STACK CFI INIT 38350 24 .cfa: sp 0 +
STACK CFI 38354 .cfa: sp 32 +
STACK CFI 3835c .cfa: x29 32 + x19: .cfa -16 + ^ .ra: .cfa -24 + ^ x29: .cfa -32 + ^
STACK CFI 38368 .cfa: sp 32 +
STACK CFI 38370 .cfa: sp 0 +
STACK CFI INIT 38374 8 .cfa: sp 0 +
STACK CFI INIT 3837c 28 .cfa: sp 0 +
STACK CFI 38380 .cfa: sp 32 +
STACK CFI 38388 .cfa: x29 32 + x19: .cfa -16 + ^ .ra: .cfa -24 + ^ x29: .cfa -32 + ^
STACK CFI 38398 .cfa: sp 32 +
STACK CFI 383a0 .cfa: sp 0 +
STACK CFI INIT 383a4 3c .cfa: sp 0 +
STACK CFI 383a8 .cfa: sp 32 +
STACK CFI 383b0 .cfa: x29 32 + x19: .cfa -16 + ^ .ra: .cfa -24 + ^ x29: .cfa -32 + ^
STACK CFI 383bc .cfa: sp 32 +
STACK CFI 383c4 .cfa: sp 0 +
STACK CFI 383c8 .cfa: x29 32 +
STACK CFI 383d4 .cfa: sp 32 +
STACK CFI 383dc .cfa: sp 0 +
STACK CFI INIT 383e0 4c .cfa: sp 0 +
STACK CFI 383e4 .cfa: sp 32 +
STACK CFI 383ec .cfa: x29 32 + x19: .cfa -8 + ^ x20: .cfa -16 + ^ .ra: .cfa -24 + ^ x29: .cfa -32 + ^
STACK CFI 38414 .cfa: sp 32 +
STACK CFI 3841c .cfa: sp 0 +
STACK CFI 38420 .cfa: sp 32 +
STACK CFI 38428 .cfa: sp 0 +
STACK CFI INIT 3864c 64 .cfa: sp 0 +
STACK CFI 38650 .cfa: sp 32 +
STACK CFI 38658 .cfa: x29 32 + x19: .cfa -16 + ^ .ra: .cfa -24 + ^ x29: .cfa -32 + ^
STACK CFI 38684 .cfa: sp 32 +
STACK CFI 3868c .cfa: sp 0 +
STACK CFI 38690 .cfa: x29 32 +
STACK CFI 386a4 .cfa: sp 32 +
STACK CFI 386ac .cfa: sp 0 +
STACK CFI INIT 386b0 24 .cfa: sp 0 +
STACK CFI 386b4 .cfa: sp 32 +
STACK CFI 386bc .cfa: x29 32 + x19: .cfa -16 + ^ .ra: .cfa -24 + ^ x29: .cfa -32 + ^
STACK CFI 386c8 .cfa: sp 32 +
STACK CFI 386d0 .cfa: sp 0 +
STACK CFI INIT 38930 24 .cfa: sp 0 +
STACK CFI 38934 .cfa: sp 32 +
STACK CFI 3893c .cfa: x29 32 + x19: .cfa -16 + ^ .ra: .cfa -24 + ^ x29: .cfa -32 + ^
STACK CFI 38948 .cfa: sp 32 +
STACK CFI 38950 .cfa: sp 0 +
STACK CFI INIT 38bd8 8 .cfa: sp 0 +
STACK CFI INIT 38be0 24 .cfa: sp 0 +
STACK CFI 38be4 .cfa: sp 32 +
STACK CFI 38bec .cfa: x29 32 + x19: .cfa -16 + ^ .ra: .cfa -24 + ^ x29: .cfa -32 + ^
STACK CFI 38bf8 .cfa: sp 32 +
STACK CFI 38c00 .cfa: sp 0 +
STACK CFI INIT 38c04 28 .cfa: sp 0 +
STACK CFI 38c08 .cfa: sp 32 +
STACK CFI 38c10 .cfa: x29 32 + x19: .cfa -16 + ^ .ra: .cfa -24 + ^ x29: .cfa -32 + ^
STACK CFI 38c20 .cfa: sp 32 +
STACK CFI 38c28 .cfa: sp 0 +
STACK CFI INIT 38f2c 8 .cfa: sp 0 +
STACK CFI INIT 38f34 24 .cfa: sp 0 +
STACK CFI 38f38 .cfa: sp 32 +
STACK CFI 38f40 .cfa: x29 32 + x19: .cfa -16 + ^ .ra: .cfa -24 + ^ x29: .cfa -32 + ^
STACK CFI 38f4c .cfa: sp 32 +
STACK CFI 38f54 .cfa: sp 0 +
STACK CFI INIT 38f58 28 .cfa: sp 0 +
STACK CFI 38f5c .cfa: sp 32 +
STACK CFI 38f64 .cfa: x29 32 + x19: .cfa -16 + ^ .ra: .cfa -24 + ^ x29: .cfa -32 + ^
STACK CFI 38f74 .cfa: sp 32 +
STACK CFI 38f7c .cfa: sp 0 +
STACK CFI INIT 391e4 8 .cfa: sp 0 +
STACK CFI INIT 391ec 24 .cfa: sp 0 +
STACK CFI 391f0 .cfa: sp 32 +
STACK CFI 391f8 .cfa: x29 32 + x19: .cfa -16 + ^ .ra: .cfa -24 + ^ x29: .cfa -32 + ^
STACK CFI 39204 .cfa: sp 32 +
STACK CFI 3920c .cfa: sp 0 +
STACK CFI INIT 39210 28 .cfa: sp 0 +
STACK CFI 39214 .cfa: sp 32 +
STACK CFI 3921c .cfa: x29 32 + x19: .cfa -16 + ^ .ra: .cfa -24 + ^ x29: .cfa -32 + ^
STACK CFI 3922c .cfa: sp 32 +
STACK CFI 39234 .cfa: sp 0 +
STACK CFI INIT 39430 8 .cfa: sp 0 +
STACK CFI INIT 39438 8 .cfa: sp 0 +
STACK CFI INIT 39440 4 .cfa: sp 0 +
STACK CFI INIT 39444 4 .cfa: sp 0 +
STACK CFI INIT 39448 4 .cfa: sp 0 +
STACK CFI INIT 3944c 4 .cfa: sp 0 +
STACK CFI INIT 39450 4 .cfa: sp 0 +
STACK CFI INIT 39454 4 .cfa: sp 0 +
STACK CFI INIT 39458 4 .cfa: sp 0 +
STACK CFI INIT 3945c 8 .cfa: sp 0 +
STACK CFI INIT 39464 24 .cfa: sp 0 +
STACK CFI 39468 .cfa: sp 32 +
STACK CFI 39470 .cfa: x29 32 + x19: .cfa -16 + ^ .ra: .cfa -24 + ^ x29: .cfa -32 + ^
STACK CFI 3947c .cfa: sp 32 +
STACK CFI 39484 .cfa: sp 0 +
STACK CFI INIT 39488 28 .cfa: sp 0 +
STACK CFI 3948c .cfa: sp 32 +
STACK CFI 39494 .cfa: x29 32 + x19: .cfa -16 + ^ .ra: .cfa -24 + ^ x29: .cfa -32 + ^
STACK CFI 394a4 .cfa: sp 32 +
STACK CFI 394ac .cfa: sp 0 +
STACK CFI INIT 3a664 8 .cfa: sp 0 +
STACK CFI INIT 3a66c 24 .cfa: sp 0 +
STACK CFI 3a670 .cfa: sp 32 +
STACK CFI 3a678 .cfa: x29 32 + x19: .cfa -16 + ^ .ra: .cfa -24 + ^ x29: .cfa -32 + ^
STACK CFI 3a684 .cfa: sp 32 +
STACK CFI 3a68c .cfa: sp 0 +
STACK CFI INIT 3a690 28 .cfa: sp 0 +
STACK CFI 3a694 .cfa: sp 32 +
STACK CFI 3a69c .cfa: x29 32 + x19: .cfa -16 + ^ .ra: .cfa -24 + ^ x29: .cfa -32 + ^
STACK CFI 3a6ac .cfa: sp 32 +
STACK CFI 3a6b4 .cfa: sp 0 +
STACK CFI INIT 3a6b8 4 .cfa: sp 0 +
STACK CFI INIT 3b9c4 4 .cfa: sp 0 +
STACK CFI INIT 3b9c8 14 .cfa: sp 0 +
STACK CFI INIT 3bee8 14 .cfa: sp 0 +
STACK CFI 3beec .cfa: sp 16 +
STACK CFI 3bef0 .cfa: x29 16 + .ra: .cfa -8 + ^ x29: .cfa -16 + ^
STACK CFI INIT 3befc c .cfa: sp 0 +
STACK CFI INIT 3bf08 24c .cfa: sp 0 +
STACK CFI INIT 3c154 a0 .cfa: sp 0 +
STACK CFI 3c160 .cfa: sp 32 +
STACK CFI 3c1b8 .cfa: sp 0 +
STACK CFI 3c1bc .cfa: sp 32 +
STACK CFI 3c1c4 .cfa: sp 0 +
STACK CFI 3c1c8 .cfa: sp 32 +
STACK CFI 3c1dc .cfa: sp 0 +
STACK CFI 3c1e0 .cfa: sp 32 +
STACK CFI 3c1f0 .cfa: sp 0 +
STACK CFI INIT 3c1f4 38 .cfa: sp 0 +
STACK CFI 3c200 .cfa: sp 32 +
STACK CFI 3c228 .cfa: sp 0 +
STACK CFI INIT 3c4c0 7c .cfa: sp 0 +
STACK CFI 3c4c4 .cfa: sp 32 +
STACK CFI 3c4cc .cfa: x29 32 + x19: .cfa -16 + ^ .ra: .cfa -24 + ^ x29: .cfa -32 + ^
STACK CFI 3c4f8 .cfa: sp 32 +
STACK CFI 3c500 .cfa: sp 0 +
STACK CFI 3c504 .cfa: x29 32 +
STACK CFI 3c530 .cfa: sp 32 +
STACK CFI 3c538 .cfa: sp 0 +
STACK CFI INIT 3c58c 2c .cfa: sp 0 +
STACK CFI 3c590 .cfa: sp 32 +
STACK CFI 3c598 .cfa: x29 32 + x19: .cfa -16 + ^ .ra: .cfa -24 + ^ x29: .cfa -32 + ^
STACK CFI 3c5ac .cfa: sp 32 +
STACK CFI 3c5b4 .cfa: sp 0 +
STACK CFI INIT 3cd78 64 .cfa: sp 0 +
STACK CFI 3cd7c .cfa: sp 32 +
STACK CFI 3cd84 .cfa: x29 32 + x19: .cfa -16 + ^ .ra: .cfa -24 + ^ x29: .cfa -32 + ^
STACK CFI 3cda0 .cfa: sp 32 +
STACK CFI 3cda8 .cfa: sp 0 +
STACK CFI 3cdac .cfa: x29 32 +
STACK CFI 3cdd0 .cfa: sp 32 +
STACK CFI 3cdd8 .cfa: sp 0 +
STACK CFI INIT 3cddc 570 .cfa: sp 0 +
STACK CFI 3cde0 .cfa: sp 176 +
STACK CFI 3cdf4 .cfa: x29 64 + x19: .cfa -8 + ^ x20: .cfa -16 + ^ x21: .cfa -24 + ^ x22: .cfa -32 + ^ x23: .cfa -40 + ^ x24: .cfa -48 + ^ .ra: .cfa -56 + ^ x29: .cfa -64 + ^
STACK CFI 3d024 .cfa: sp 176 +
STACK CFI 3d038 .cfa: sp 0 +
STACK CFI 3d03c .cfa: x29 64 +
STACK CFI 3d088 .cfa: sp 176 +
STACK CFI 3d09c .cfa: sp 0 +
STACK CFI 3d0a0 .cfa: x29 64 +
STACK CFI 3d0d8 .cfa: sp 176 +
STACK CFI 3d0ec .cfa: sp 0 +
STACK CFI 3d0f0 .cfa: x29 64 +
STACK CFI 3d108 .cfa: sp 176 +
STACK CFI 3d11c .cfa: sp 0 +
STACK CFI 3d120 .cfa: x29 64 +
STACK CFI 3d140 .cfa: sp 176 +
STACK CFI 3d154 .cfa: sp 0 +
STACK CFI 3d158 .cfa: x29 64 +
STACK CFI 3d170 .cfa: sp 176 +
STACK CFI 3d184 .cfa: sp 0 +
STACK CFI 3d188 .cfa: x29 64 +
STACK CFI 3d19c .cfa: sp 176 +
STACK CFI 3d1b0 .cfa: sp 0 +
STACK CFI 3d1b4 .cfa: x29 64 +
STACK CFI 3d1c8 .cfa: sp 176 +
STACK CFI 3d1dc .cfa: sp 0 +
STACK CFI 3d1e0 .cfa: x29 64 +
STACK CFI 3d1f0 .cfa: sp 176 +
STACK CFI 3d204 .cfa: sp 0 +
STACK CFI 3d208 .cfa: x29 64 +
STACK CFI 3d218 .cfa: sp 176 +
STACK CFI 3d22c .cfa: sp 0 +
STACK CFI 3d230 .cfa: x29 64 +
STACK CFI 3d248 .cfa: sp 176 +
STACK CFI 3d25c .cfa: sp 0 +
STACK CFI 3d260 .cfa: x29 64 +
STACK CFI 3d274 .cfa: sp 176 +
STACK CFI 3d288 .cfa: sp 0 +
STACK CFI 3d28c .cfa: x29 64 +
STACK CFI 3d2a4 .cfa: sp 176 +
STACK CFI 3d2b8 .cfa: sp 0 +
STACK CFI 3d2bc .cfa: x29 64 +
STACK CFI 3d2e8 .cfa: sp 176 +
STACK CFI 3d2fc .cfa: sp 0 +
STACK CFI 3d300 .cfa: x29 64 +
STACK CFI 3d314 .cfa: sp 176 +
STACK CFI 3d328 .cfa: sp 0 +
STACK CFI 3d32c .cfa: x29 64 +
STACK CFI INIT 3d34c 228 .cfa: sp 0 +
STACK CFI INIT 3d574 2dc .cfa: sp 0 +
STACK CFI INIT 3d850 53c .cfa: sp 0 +
STACK CFI INIT 3dd8c 78 .cfa: sp 0 +
STACK CFI 3dd90 .cfa: sp 48 +
STACK CFI 3dd9c .cfa: x29 48 + x19: .cfa -8 + ^ x20: .cfa -16 + ^ x21: .cfa -24 + ^ x22: .cfa -32 + ^ .ra: .cfa -40 + ^ x29: .cfa -48 + ^
STACK CFI 3dde4 .cfa: sp 48 +
STACK CFI 3ddf0 .cfa: sp 0 +
STACK CFI 3ddf4 .cfa: sp 48 +
STACK CFI 3de00 .cfa: sp 0 +
STACK CFI INIT 3de04 8c .cfa: sp 0 +
STACK CFI 3de08 .cfa: sp 32 +
STACK CFI 3de10 .cfa: x29 32 + x19: .cfa -16 + ^ .ra: .cfa -24 + ^ x29: .cfa -32 + ^
STACK CFI 3de44 .cfa: sp 32 +
STACK CFI 3de4c .cfa: sp 0 +
STACK CFI 3de50 .cfa: x29 32 +
STACK CFI 3de84 .cfa: sp 32 +
STACK CFI 3de8c .cfa: sp 0 +
STACK CFI INIT 3de90 24 .cfa: sp 0 +
STACK CFI 3de94 .cfa: sp 32 +
STACK CFI 3de9c .cfa: x29 32 + x19: .cfa -16 + ^ .ra: .cfa -24 + ^ x29: .cfa -32 + ^
STACK CFI 3dea8 .cfa: sp 32 +
STACK CFI 3deb0 .cfa: sp 0 +
STACK CFI INIT 3deb4 150 .cfa: sp 0 +
STACK CFI 3deb8 .cfa: sp 48 +
STACK CFI 3dec4 .cfa: x29 48 + x19: .cfa -8 + ^ x20: .cfa -16 + ^ x21: .cfa -24 + ^ x22: .cfa -32 + ^ .ra: .cfa -40 + ^ x29: .cfa -48 + ^
STACK CFI 3dff4 .cfa: sp 48 +
STACK CFI 3e000 .cfa: sp 0 +
STACK CFI INIT 3e004 68 .cfa: sp 0 +
STACK CFI 3e008 .cfa: sp 64 +
STACK CFI 3e014 .cfa: x29 32 + x19: .cfa -16 + ^ .ra: .cfa -24 + ^ x29: .cfa -32 + ^
STACK CFI 3e058 .cfa: sp 64 +
STACK CFI 3e064 .cfa: sp 0 +
STACK CFI 3e068 .cfa: x29 32 +
STACK CFI INIT 3e06c 90 .cfa: sp 0 +
STACK CFI 3e070 .cfa: sp 32 +
STACK CFI 3e078 .cfa: x29 32 + x19: .cfa -8 + ^ x20: .cfa -16 + ^ .ra: .cfa -24 + ^ x29: .cfa -32 + ^
STACK CFI 3e0a4 .cfa: sp 32 +
STACK CFI 3e0ac .cfa: sp 0 +
STACK CFI 3e0b0 .cfa: x29 32 +
STACK CFI 3e0f0 .cfa: sp 32 +
STACK CFI 3e0f8 .cfa: sp 0 +
STACK CFI INIT 3e0fc ec .cfa: sp 0 +
STACK CFI 3e100 .cfa: sp 112 +
STACK CFI 3e110 .cfa: x29 48 + x19: .cfa -8 + ^ x20: .cfa -16 + ^ x21: .cfa -32 + ^ .ra: .cfa -40 + ^ x29: .cfa -48 + ^
STACK CFI 3e1d0 .cfa: sp 112 +
STACK CFI 3e1e0 .cfa: sp 0 +
STACK CFI 3e1e4 .cfa: x29 48 +
STACK CFI INIT 3e1e8 ec .cfa: sp 0 +
STACK CFI 3e1ec .cfa: sp 112 +
STACK CFI 3e1fc .cfa: x29 48 + x19: .cfa -8 + ^ x20: .cfa -16 + ^ x21: .cfa -32 + ^ .ra: .cfa -40 + ^ x29: .cfa -48 + ^
STACK CFI 3e2bc .cfa: sp 112 +
STACK CFI 3e2cc .cfa: sp 0 +
STACK CFI 3e2d0 .cfa: x29 48 +
STACK CFI INIT 3e2d4 48 .cfa: sp 0 +
STACK CFI 3e2d8 .cfa: sp 32 +
STACK CFI 3e2e0 .cfa: x29 32 + x19: .cfa -8 + ^ x20: .cfa -16 + ^ .ra: .cfa -24 + ^ x29: .cfa -32 + ^
STACK CFI 3e304 .cfa: sp 32 +
STACK CFI 3e30c .cfa: sp 0 +
STACK CFI 3e310 .cfa: x29 32 +
STACK CFI INIT 3e31c 98 .cfa: sp 0 +
STACK CFI 3e320 .cfa: sp 80 +
STACK CFI 3e32c .cfa: x29 32 + x19: .cfa -16 + ^ .ra: .cfa -24 + ^ x29: .cfa -32 + ^
STACK CFI 3e3a0 .cfa: sp 80 +
STACK CFI 3e3ac .cfa: sp 0 +
STACK CFI 3e3b0 .cfa: x29 32 +
STACK CFI INIT 3e3b4 260 .cfa: sp 0 +
STACK CFI 3e3b8 .cfa: sp 112 +
STACK CFI 3e3d0 .cfa: x29 80 + x19: .cfa -8 + ^ x20: .cfa -16 + ^ x21: .cfa -24 + ^ x22: .cfa -32 + ^ x23: .cfa -40 + ^ x24: .cfa -48 + ^ x25: .cfa -64 + ^ .ra: .cfa -72 + ^ x29: .cfa -80 + ^
STACK CFI 3e5b4 .cfa: sp 112 +
STACK CFI 3e5cc .cfa: sp 0 +
STACK CFI 3e5d0 .cfa: x29 80 +
STACK CFI INIT 3e614 150 .cfa: sp 0 +
STACK CFI 3e618 .cfa: sp 48 +
STACK CFI 3e624 .cfa: x29 48 + x19: .cfa -8 + ^ x20: .cfa -16 + ^ x21: .cfa -24 + ^ x22: .cfa -32 + ^ .ra: .cfa -40 + ^ x29: .cfa -48 + ^
STACK CFI 3e754 .cfa: sp 48 +
STACK CFI 3e760 .cfa: sp 0 +
STACK CFI INIT 3e764 1e0 .cfa: sp 0 +
STACK CFI 3e768 .cfa: sp 96 +
STACK CFI 3e77c .cfa: x29 64 + x19: .cfa -8 + ^ x20: .cfa -16 + ^ x21: .cfa -24 + ^ x22: .cfa -32 + ^ x23: .cfa -40 + ^ x24: .cfa -48 + ^ .ra: .cfa -56 + ^ x29: .cfa -64 + ^
STACK CFI 3e8fc .cfa: sp 96 +
STACK CFI 3e910 .cfa: sp 0 +
STACK CFI 3e914 .cfa: x29 64 +
STACK CFI INIT 3e944 284 .cfa: sp 0 +
STACK CFI 3e948 .cfa: sp 112 +
STACK CFI 3e960 .cfa: x29 80 + x19: .cfa -8 + ^ x20: .cfa -16 + ^ x21: .cfa -24 + ^ x22: .cfa -32 + ^ x23: .cfa -40 + ^ x24: .cfa -48 + ^ x25: .cfa -64 + ^ .ra: .cfa -72 + ^ x29: .cfa -80 + ^
STACK CFI 3eb68 .cfa: sp 112 +
STACK CFI 3eb80 .cfa: sp 0 +
STACK CFI 3eb84 .cfa: x29 80 +
STACK CFI INIT 3ebc8 208 .cfa: sp 0 +
STACK CFI 3ebcc .cfa: sp 96 +
STACK CFI 3ebe0 .cfa: x29 64 + x19: .cfa -8 + ^ x20: .cfa -16 + ^ x21: .cfa -24 + ^ x22: .cfa -32 + ^ x23: .cfa -40 + ^ x24: .cfa -48 + ^ .ra: .cfa -56 + ^ x29: .cfa -64 + ^
STACK CFI 3ed88 .cfa: sp 96 +
STACK CFI 3ed9c .cfa: sp 0 +
STACK CFI 3eda0 .cfa: x29 64 +
STACK CFI INIT 3edd0 360 .cfa: sp 0 +
STACK CFI 3edd4 .cfa: sp 160 +
STACK CFI 3edf0 .cfa: x29 96 + x19: .cfa -8 + ^ x20: .cfa -16 + ^ x21: .cfa -24 + ^ x22: .cfa -32 + ^ x23: .cfa -40 + ^ x24: .cfa -48 + ^ x25: .cfa -56 + ^ x26: .cfa -64 + ^ x27: .cfa -72 + ^ x28: .cfa -80 + ^ .ra: .cfa -88 + ^ x29: .cfa -96 + ^
STACK CFI 3f0bc .cfa: sp 160 +
STACK CFI 3f0d8 .cfa: sp 0 +
STACK CFI 3f0dc .cfa: x29 96 +
STACK CFI INIT 3f130 314 .cfa: sp 0 +
STACK CFI 3f134 .cfa: sp 144 +
STACK CFI 3f150 .cfa: x29 96 + x19: .cfa -8 + ^ x20: .cfa -16 + ^ x21: .cfa -24 + ^ x22: .cfa -32 + ^ x23: .cfa -40 + ^ x24: .cfa -48 + ^ x25: .cfa -56 + ^ x26: .cfa -64 + ^ x27: .cfa -72 + ^ x28: .cfa -80 + ^ .ra: .cfa -88 + ^ x29: .cfa -96 + ^
STACK CFI 3f3cc .cfa: sp 144 +
STACK CFI 3f3e8 .cfa: sp 0 +
STACK CFI 3f3ec .cfa: x29 96 +
STACK CFI INIT 3f444 290 .cfa: sp 0 +
STACK CFI 3f448 .cfa: sp 128 +
STACK CFI 3f460 .cfa: x29 80 + x19: .cfa -8 + ^ x20: .cfa -16 + ^ x21: .cfa -24 + ^ x22: .cfa -32 + ^ x23: .cfa -40 + ^ x24: .cfa -48 + ^ x25: .cfa -56 + ^ x26: .cfa -64 + ^ .ra: .cfa -72 + ^ x29: .cfa -80 + ^
STACK CFI 3f6b4 .cfa: sp 128 +
STACK CFI 3f6cc .cfa: sp 0 +
STACK CFI 3f6d0 .cfa: x29 80 +
STACK CFI INIT 3f6d4 ddc .cfa: sp 0 +
STACK CFI 3f6d8 .cfa: sp 144 +
STACK CFI 3f6f4 .cfa: x29 96 + x19: .cfa -8 + ^ x20: .cfa -16 + ^ x21: .cfa -24 + ^ x22: .cfa -32 + ^ x23: .cfa -40 + ^ x24: .cfa -48 + ^ x25: .cfa -56 + ^ x26: .cfa -64 + ^ x27: .cfa -72 + ^ x28: .cfa -80 + ^ .ra: .cfa -88 + ^ x29: .cfa -96 + ^
STACK CFI 40388 .cfa: sp 144 +
STACK CFI 403a4 .cfa: sp 0 +
STACK CFI 403a8 .cfa: x29 96 +
STACK CFI INIT 404b0 1d0 .cfa: sp 0 +
STACK CFI 404b4 .cfa: sp 80 +
STACK CFI 404c8 .cfa: x29 80 + x19: .cfa -8 + ^ x20: .cfa -16 + ^ x21: .cfa -24 + ^ x22: .cfa -32 + ^ x23: .cfa -40 + ^ x24: .cfa -48 + ^ x25: .cfa -64 + ^ .ra: .cfa -72 + ^ x29: .cfa -80 + ^
STACK CFI 40668 .cfa: sp 80 +
STACK CFI 4067c .cfa: sp 0 +
STACK CFI INIT 40680 23c .cfa: sp 0 +
STACK CFI 40684 .cfa: sp 112 +
STACK CFI 40698 .cfa: x29 64 + x19: .cfa -8 + ^ x20: .cfa -16 + ^ x21: .cfa -24 + ^ x22: .cfa -32 + ^ x23: .cfa -40 + ^ x24: .cfa -48 + ^ .ra: .cfa -56 + ^ x29: .cfa -64 + ^
STACK CFI 40874 .cfa: sp 112 +
STACK CFI 40888 .cfa: sp 0 +
STACK CFI 4088c .cfa: x29 64 +
STACK CFI INIT 408bc 30c .cfa: sp 0 +
STACK CFI 408c0 .cfa: sp 80 +
STACK CFI 408d4 .cfa: x29 64 + x19: .cfa -8 + ^ x20: .cfa -16 + ^ x21: .cfa -24 + ^ x22: .cfa -32 + ^ x23: .cfa -40 + ^ x24: .cfa -48 + ^ .ra: .cfa -56 + ^ x29: .cfa -64 + ^
STACK CFI 40a50 .cfa: sp 80 +
STACK CFI 40a64 .cfa: sp 0 +
STACK CFI 40a68 .cfa: x29 64 +
STACK CFI INIT 40bc8 178 .cfa: sp 0 +
STACK CFI 40bcc .cfa: sp 80 +
STACK CFI 40be0 .cfa: x29 64 + x19: .cfa -8 + ^ x20: .cfa -16 + ^ x21: .cfa -24 + ^ x22: .cfa -32 + ^ x23: .cfa -40 + ^ x24: .cfa -48 + ^ .ra: .cfa -56 + ^ x29: .cfa -64 + ^
STACK CFI 40d24 .cfa: sp 80 +
STACK CFI 40d38 .cfa: sp 0 +
STACK CFI 40d3c .cfa: x29 64 +
STACK CFI INIT 40d40 178 .cfa: sp 0 +
STACK CFI 40d44 .cfa: sp 80 +
STACK CFI 40d58 .cfa: x29 64 + x19: .cfa -8 + ^ x20: .cfa -16 + ^ x21: .cfa -24 + ^ x22: .cfa -32 + ^ x23: .cfa -40 + ^ x24: .cfa -48 + ^ .ra: .cfa -56 + ^ x29: .cfa -64 + ^
STACK CFI 40e9c .cfa: sp 80 +
STACK CFI 40eb0 .cfa: sp 0 +
STACK CFI 40eb4 .cfa: x29 64 +
STACK CFI INIT 40eb8 240 .cfa: sp 0 +
STACK CFI 40ebc .cfa: sp 96 +
STACK CFI 40ed4 .cfa: x29 96 + x19: .cfa -8 + ^ x20: .cfa -16 + ^ x21: .cfa -24 + ^ x22: .cfa -32 + ^ x23: .cfa -40 + ^ x24: .cfa -48 + ^ x25: .cfa -56 + ^ x26: .cfa -64 + ^ x27: .cfa -72 + ^ x28: .cfa -80 + ^ .ra: .cfa -88 + ^ x29: .cfa -96 + ^
STACK CFI 410dc .cfa: sp 96 +
STACK CFI 410f4 .cfa: sp 0 +
STACK CFI INIT 41d6c 154 .cfa: sp 0 +
STACK CFI 41d70 .cfa: sp 96 +
STACK CFI 41d84 .cfa: x29 64 + x19: .cfa -8 + ^ x20: .cfa -16 + ^ x21: .cfa -24 + ^ x22: .cfa -32 + ^ x23: .cfa -48 + ^ .ra: .cfa -56 + ^ x29: .cfa -64 + ^
STACK CFI 41e64 .cfa: sp 96 +
STACK CFI 41e78 .cfa: sp 0 +
STACK CFI 41e7c .cfa: x29 64 +
STACK CFI INIT 4212c 44 .cfa: sp 0 +
STACK CFI 42130 .cfa: sp 32 +
STACK CFI 42138 .cfa: x29 32 + x19: .cfa -16 + ^ .ra: .cfa -24 + ^ x29: .cfa -32 + ^
STACK CFI 42154 .cfa: sp 32 +
STACK CFI 4215c .cfa: sp 0 +
STACK CFI 42160 .cfa: x29 32 +
STACK CFI 42164 .cfa: sp 32 +
STACK CFI 4216c .cfa: sp 0 +
STACK CFI INIT 42170 1d0 .cfa: sp 0 +
STACK CFI 42174 .cfa: sp 64 +
STACK CFI 42184 .cfa: x29 64 + x19: .cfa -8 + ^ x20: .cfa -16 + ^ x21: .cfa -24 + ^ x22: .cfa -32 + ^ x23: .cfa -40 + ^ x24: .cfa -48 + ^ .ra: .cfa -56 + ^ x29: .cfa -64 + ^
STACK CFI 42244 .cfa: sp 64 +
STACK CFI 42254 .cfa: sp 0 +
STACK CFI 42258 .cfa: x29 64 +
STACK CFI INIT 42340 17c .cfa: sp 0 +
STACK CFI INIT 424bc ac .cfa: sp 0 +
STACK CFI 424c0 .cfa: sp 64 +
STACK CFI 424d0 .cfa: x29 64 + x19: .cfa -8 + ^ x20: .cfa -16 + ^ x21: .cfa -24 + ^ x22: .cfa -32 + ^ x23: .cfa -48 + ^ .ra: .cfa -56 + ^ x29: .cfa -64 + ^
STACK CFI 4254c .cfa: sp 64 +
STACK CFI 4255c .cfa: sp 0 +
STACK CFI 42560 .cfa: x29 64 +
STACK CFI INIT 42568 110 .cfa: sp 0 +
STACK CFI 4256c .cfa: sp 64 +
STACK CFI 4257c .cfa: x29 64 + x19: .cfa -8 + ^ x20: .cfa -16 + ^ x21: .cfa -24 + ^ x22: .cfa -32 + ^ x23: .cfa -40 + ^ x24: .cfa -48 + ^ .ra: .cfa -56 + ^ x29: .cfa -64 + ^
STACK CFI 4265c .cfa: sp 64 +
STACK CFI 4266c .cfa: sp 0 +
STACK CFI 42670 .cfa: x29 64 +
STACK CFI INIT 42a30 a0 .cfa: sp 0 +
STACK CFI 42a34 .cfa: sp 48 +
STACK CFI 42a40 .cfa: x29 48 + x19: .cfa -8 + ^ x20: .cfa -16 + ^ x21: .cfa -24 + ^ x22: .cfa -32 + ^ .ra: .cfa -40 + ^ x29: .cfa -48 + ^
STACK CFI 42aac .cfa: sp 48 +
STACK CFI 42ab8 .cfa: sp 0 +
STACK CFI 42abc .cfa: sp 48 +
STACK CFI 42ac8 .cfa: sp 0 +
STACK CFI 42acc .cfa: x29 48 +
STACK CFI INIT 43784 158 .cfa: sp 0 +
STACK CFI 43788 .cfa: sp 96 +
STACK CFI 4379c .cfa: x29 64 + x19: .cfa -8 + ^ x20: .cfa -16 + ^ x21: .cfa -24 + ^ x22: .cfa -32 + ^ x23: .cfa -48 + ^ .ra: .cfa -56 + ^ x29: .cfa -64 + ^
STACK CFI 43880 .cfa: sp 96 +
STACK CFI 43894 .cfa: sp 0 +
STACK CFI 43898 .cfa: x29 64 +
STACK CFI INIT 438dc 190 .cfa: sp 0 +
STACK CFI INIT 44568 1dc .cfa: sp 0 +
STACK CFI 4456c .cfa: sp 80 +
STACK CFI 44580 .cfa: x29 80 + x19: .cfa -8 + ^ x20: .cfa -16 + ^ x21: .cfa -24 + ^ x22: .cfa -32 + ^ x23: .cfa -40 + ^ x24: .cfa -48 + ^ x25: .cfa -64 + ^ .ra: .cfa -72 + ^ x29: .cfa -80 + ^
STACK CFI 4472c .cfa: sp 80 +
STACK CFI 44740 .cfa: sp 0 +
STACK CFI INIT 45b74 124 .cfa: sp 0 +
STACK CFI 45ba4 .cfa: sp 32 +
STACK CFI 45bac .cfa: x29 32 + x19: .cfa -8 + ^ x20: .cfa -16 + ^ .ra: .cfa -24 + ^ x29: .cfa -32 + ^
STACK CFI 45c8c .cfa: sp 32 +
STACK CFI 45c94 .cfa: sp 0 +
STACK CFI INIT 463f4 320 .cfa: sp 0 +
STACK CFI 463f8 .cfa: sp 64 +
STACK CFI 46408 .cfa: x29 64 + x19: .cfa -8 + ^ x20: .cfa -16 + ^ x21: .cfa -24 + ^ x22: .cfa -32 + ^ x23: .cfa -40 + ^ x24: .cfa -48 + ^ .ra: .cfa -56 + ^ x29: .cfa -64 + ^
STACK CFI 46484 .cfa: sp 64 +
STACK CFI 46494 .cfa: sp 0 +
STACK CFI 46498 .cfa: x29 64 +
STACK CFI 4666c .cfa: sp 64 +
STACK CFI 4667c .cfa: sp 0 +
STACK CFI 46680 .cfa: x29 64 +
STACK CFI 46690 .cfa: sp 64 +
STACK CFI 466a0 .cfa: sp 0 +
STACK CFI 466a4 .cfa: x29 64 +
STACK CFI INIT 46714 a0 .cfa: sp 0 +
STACK CFI 46718 .cfa: sp 48 +
STACK CFI 46724 .cfa: x29 48 + x19: .cfa -8 + ^ x20: .cfa -16 + ^ x21: .cfa -24 + ^ x22: .cfa -32 + ^ .ra: .cfa -40 + ^ x29: .cfa -48 + ^
STACK CFI 46790 .cfa: sp 48 +
STACK CFI 4679c .cfa: sp 0 +
STACK CFI 467a0 .cfa: sp 48 +
STACK CFI 467ac .cfa: sp 0 +
STACK CFI 467b0 .cfa: x29 48 +
STACK CFI INIT 47664 160 .cfa: sp 0 +
STACK CFI 47668 .cfa: sp 64 +
STACK CFI 47678 .cfa: x29 64 + x19: .cfa -8 + ^ x20: .cfa -16 + ^ x21: .cfa -24 + ^ x22: .cfa -32 + ^ x23: .cfa -48 + ^ .ra: .cfa -56 + ^ x29: .cfa -64 + ^
STACK CFI 47770 .cfa: sp 64 +
STACK CFI 47780 .cfa: sp 0 +
STACK CFI 47784 .cfa: x29 64 +
STACK CFI INIT 477c4 214 .cfa: sp 0 +
STACK CFI 477c8 .cfa: sp 128 +
STACK CFI 477e4 .cfa: x29 96 + x19: .cfa -8 + ^ x20: .cfa -16 + ^ x21: .cfa -24 + ^ x22: .cfa -32 + ^ x23: .cfa -40 + ^ x24: .cfa -48 + ^ x25: .cfa -56 + ^ x26: .cfa -64 + ^ x27: .cfa -80 + ^ .ra: .cfa -88 + ^ x29: .cfa -96 + ^
STACK CFI 47960 .cfa: sp 128 +
STACK CFI 4797c .cfa: sp 0 +
STACK CFI 47980 .cfa: x29 96 +
STACK CFI INIT 49674 290 .cfa: sp 0 +
STACK CFI 49678 .cfa: sp 16 +
STACK CFI 4967c .cfa: x29 16 + .ra: .cfa -8 + ^ x29: .cfa -16 + ^
STACK CFI 49708 .cfa: sp 16 +
STACK CFI 4970c .cfa: sp 0 +
STACK CFI 49710 .cfa: x29 16 +
STACK CFI 49760 .cfa: sp 16 +
STACK CFI 49764 .cfa: sp 0 +
STACK CFI 49768 .cfa: x29 16 +
STACK CFI 498cc .cfa: sp 16 +
STACK CFI 498d0 .cfa: sp 0 +
STACK CFI 498d4 .cfa: x29 16 +
STACK CFI INIT 49904 158 .cfa: sp 0 +
STACK CFI 49908 .cfa: sp 112 +
STACK CFI 49924 .cfa: x29 96 + x19: .cfa -8 + ^ x20: .cfa -16 + ^ x21: .cfa -24 + ^ x22: .cfa -32 + ^ x23: .cfa -40 + ^ x24: .cfa -48 + ^ x25: .cfa -56 + ^ x26: .cfa -64 + ^ x27: .cfa -72 + ^ x28: .cfa -80 + ^ .ra: .cfa -88 + ^ x29: .cfa -96 + ^
STACK CFI 49a0c .cfa: sp 112 +
STACK CFI 49a10 .cfa: x29 96 +
STACK CFI 49a18 .cfa: sp 112 +
STACK CFI 49a34 .cfa: sp 0 +
STACK CFI 49a38 .cfa: x29 96 +
STACK CFI 49a58 .cfa: sp 112 +
STACK CFI INIT 49a5c e54 .cfa: sp 0 +
STACK CFI 49a60 .cfa: sp 192 +
STACK CFI 49a7c .cfa: x29 96 + x19: .cfa -8 + ^ x20: .cfa -16 + ^ x21: .cfa -24 + ^ x22: .cfa -32 + ^ x23: .cfa -40 + ^ x24: .cfa -48 + ^ x25: .cfa -56 + ^ x26: .cfa -64 + ^ x27: .cfa -72 + ^ x28: .cfa -80 + ^ .ra: .cfa -88 + ^ x29: .cfa -96 + ^
STACK CFI 4a798 .cfa: sp 192 +
STACK CFI 4a7b4 .cfa: sp 0 +
STACK CFI 4a7b8 .cfa: x29 96 +
STACK CFI INIT 4a8b0 1068 .cfa: sp 0 +
STACK CFI 4a8b4 .cfa: sp 288 +
STACK CFI 4a8d0 .cfa: x29 96 + x19: .cfa -8 + ^ x20: .cfa -16 + ^ x21: .cfa -24 + ^ x22: .cfa -32 + ^ x23: .cfa -40 + ^ x24: .cfa -48 + ^ x25: .cfa -56 + ^ x26: .cfa -64 + ^ x27: .cfa -72 + ^ x28: .cfa -80 + ^ .ra: .cfa -88 + ^ x29: .cfa -96 + ^
STACK CFI 4b660 .cfa: sp 288 +
STACK CFI 4b67c .cfa: sp 0 +
STACK CFI 4b680 .cfa: x29 96 +
STACK CFI INIT 4b918 520 .cfa: sp 0 +
STACK CFI 4b91c .cfa: sp 144 +
STACK CFI 4b938 .cfa: x29 96 + x19: .cfa -8 + ^ x20: .cfa -16 + ^ x21: .cfa -24 + ^ x22: .cfa -32 + ^ x23: .cfa -40 + ^ x24: .cfa -48 + ^ x25: .cfa -56 + ^ x26: .cfa -64 + ^ x27: .cfa -72 + ^ x28: .cfa -80 + ^ .ra: .cfa -88 + ^ x29: .cfa -96 + ^
STACK CFI 4be14 .cfa: sp 144 +
STACK CFI 4be30 .cfa: sp 0 +
STACK CFI 4be34 .cfa: x29 96 +
STACK CFI INIT 4c7d8 136c .cfa: sp 0 +
STACK CFI 4c7dc .cfa: sp 224 +
STACK CFI 4c7f8 .cfa: x29 96 + x19: .cfa -8 + ^ x20: .cfa -16 + ^ x21: .cfa -24 + ^ x22: .cfa -32 + ^ x23: .cfa -40 + ^ x24: .cfa -48 + ^ x25: .cfa -56 + ^ x26: .cfa -64 + ^ x27: .cfa -72 + ^ x28: .cfa -80 + ^ .ra: .cfa -88 + ^ x29: .cfa -96 + ^
STACK CFI 4db20 .cfa: sp 224 +
STACK CFI 4db3c .cfa: sp 0 +
STACK CFI 4db40 .cfa: x29 96 +
STACK CFI INIT 4db44 1b8 .cfa: sp 0 +
STACK CFI INIT 23ed0 31c .cfa: sp 0 +
STACK CFI 23ed4 .cfa: sp 112 +
STACK CFI 23ef0 .cfa: x29 96 + x19: .cfa -8 + ^ x20: .cfa -16 + ^ x21: .cfa -24 + ^ x22: .cfa -32 + ^ x23: .cfa -40 + ^ x24: .cfa -48 + ^ x25: .cfa -56 + ^ x26: .cfa -64 + ^ x27: .cfa -72 + ^ x28: .cfa -80 + ^ .ra: .cfa -88 + ^ x29: .cfa -96 + ^
STACK CFI 24164 .cfa: sp 112 +
STACK CFI 24180 .cfa: sp 0 +
STACK CFI 24184 .cfa: x29 96 +
STACK CFI INIT 241ec 20 .cfa: sp 0 +
STACK CFI 241f0 .cfa: sp 16 +
STACK CFI 241f4 .cfa: x29 16 + .ra: .cfa -8 + ^ x29: .cfa -16 + ^
STACK CFI 24200 .cfa: sp 16 +
STACK CFI 24204 .cfa: sp 0 +
STACK CFI 24208 .cfa: x29 16 +
STACK CFI INIT 242c8 9e0 .cfa: sp 0 +
STACK CFI 242cc .cfa: sp 272 +
STACK CFI 242e8 .cfa: x29 80 + x19: .cfa -8 + ^ x20: .cfa -16 + ^ x21: .cfa -24 + ^ x22: .cfa -32 + ^ x23: .cfa -40 + ^ x24: .cfa -48 + ^ x25: .cfa -56 + ^ x28: .cfa -64 + ^ .ra: .cfa -72 + ^ x29: .cfa -80 + ^ v8: .cfa -88 + ^ v9: .cfa -96 + ^
STACK CFI 24b10 .cfa: sp 272 +
STACK CFI 24b2c .cfa: sp 0 +
STACK CFI 24b30 .cfa: x29 80 +
STACK CFI INIT 24ca8 184 .cfa: sp 0 +
STACK CFI 24cac .cfa: sp 160 +
STACK CFI 24cbc .cfa: x29 48 + x19: .cfa -8 + ^ x20: .cfa -16 + ^ x21: .cfa -32 + ^ .ra: .cfa -40 + ^ x29: .cfa -48 + ^
STACK CFI 24dd0 .cfa: sp 160 +
STACK CFI 24de0 .cfa: sp 0 +
STACK CFI 24de4 .cfa: x29 48 +
STACK CFI INIT 24e2c ec .cfa: sp 0 +
STACK CFI 24e30 .cfa: sp 32 +
STACK CFI 24e38 .cfa: x29 32 + x19: .cfa -8 + ^ x20: .cfa -16 + ^ .ra: .cfa -24 + ^ x29: .cfa -32 + ^
STACK CFI 24ef8 .cfa: sp 32 +
STACK CFI 24f00 .cfa: sp 0 +
STACK CFI 24f04 .cfa: x29 32 +
STACK CFI INIT 25004 45c .cfa: sp 0 +
STACK CFI 25008 .cfa: sp 224 +
STACK CFI 25024 .cfa: x29 96 + x19: .cfa -8 + ^ x20: .cfa -16 + ^ x21: .cfa -24 + ^ x22: .cfa -32 + ^ x23: .cfa -40 + ^ x24: .cfa -48 + ^ x25: .cfa -56 + ^ x26: .cfa -64 + ^ x27: .cfa -72 + ^ x28: .cfa -80 + ^ .ra: .cfa -88 + ^ x29: .cfa -96 + ^
STACK CFI 25348 .cfa: sp 224 +
STACK CFI 25364 .cfa: sp 0 +
STACK CFI 25368 .cfa: x29 96 +
STACK CFI INIT 25460 45c .cfa: sp 0 +
STACK CFI 25464 .cfa: sp 224 +
STACK CFI 25480 .cfa: x29 96 + x19: .cfa -8 + ^ x20: .cfa -16 + ^ x21: .cfa -24 + ^ x22: .cfa -32 + ^ x23: .cfa -40 + ^ x24: .cfa -48 + ^ x25: .cfa -56 + ^ x26: .cfa -64 + ^ x27: .cfa -72 + ^ x28: .cfa -80 + ^ .ra: .cfa -88 + ^ x29: .cfa -96 + ^
STACK CFI 257a4 .cfa: sp 224 +
STACK CFI 257c0 .cfa: sp 0 +
STACK CFI 257c4 .cfa: x29 96 +
STACK CFI INIT 258bc 45c .cfa: sp 0 +
STACK CFI 258c0 .cfa: sp 224 +
STACK CFI 258dc .cfa: x29 96 + x19: .cfa -8 + ^ x20: .cfa -16 + ^ x21: .cfa -24 + ^ x22: .cfa -32 + ^ x23: .cfa -40 + ^ x24: .cfa -48 + ^ x25: .cfa -56 + ^ x26: .cfa -64 + ^ x27: .cfa -72 + ^ x28: .cfa -80 + ^ .ra: .cfa -88 + ^ x29: .cfa -96 + ^
STACK CFI 25c00 .cfa: sp 224 +
STACK CFI 25c1c .cfa: sp 0 +
STACK CFI 25c20 .cfa: x29 96 +
STACK CFI INIT 25d18 45c .cfa: sp 0 +
STACK CFI 25d1c .cfa: sp 224 +
STACK CFI 25d38 .cfa: x29 96 + x19: .cfa -8 + ^ x20: .cfa -16 + ^ x21: .cfa -24 + ^ x22: .cfa -32 + ^ x23: .cfa -40 + ^ x24: .cfa -48 + ^ x25: .cfa -56 + ^ x26: .cfa -64 + ^ x27: .cfa -72 + ^ x28: .cfa -80 + ^ .ra: .cfa -88 + ^ x29: .cfa -96 + ^
STACK CFI 2605c .cfa: sp 224 +
STACK CFI 26078 .cfa: sp 0 +
STACK CFI 2607c .cfa: x29 96 +
STACK CFI INIT 26174 45c .cfa: sp 0 +
STACK CFI 26178 .cfa: sp 224 +
STACK CFI 26194 .cfa: x29 96 + x19: .cfa -8 + ^ x20: .cfa -16 + ^ x21: .cfa -24 + ^ x22: .cfa -32 + ^ x23: .cfa -40 + ^ x24: .cfa -48 + ^ x25: .cfa -56 + ^ x26: .cfa -64 + ^ x27: .cfa -72 + ^ x28: .cfa -80 + ^ .ra: .cfa -88 + ^ x29: .cfa -96 + ^
STACK CFI 264b8 .cfa: sp 224 +
STACK CFI 264d4 .cfa: sp 0 +
STACK CFI 264d8 .cfa: x29 96 +
STACK CFI INIT 265d0 45c .cfa: sp 0 +
STACK CFI 265d4 .cfa: sp 224 +
STACK CFI 265f0 .cfa: x29 96 + x19: .cfa -8 + ^ x20: .cfa -16 + ^ x21: .cfa -24 + ^ x22: .cfa -32 + ^ x23: .cfa -40 + ^ x24: .cfa -48 + ^ x25: .cfa -56 + ^ x26: .cfa -64 + ^ x27: .cfa -72 + ^ x28: .cfa -80 + ^ .ra: .cfa -88 + ^ x29: .cfa -96 + ^
STACK CFI 26914 .cfa: sp 224 +
STACK CFI 26930 .cfa: sp 0 +
STACK CFI 26934 .cfa: x29 96 +
STACK CFI INIT 26a2c 45c .cfa: sp 0 +
STACK CFI 26a30 .cfa: sp 224 +
STACK CFI 26a4c .cfa: x29 96 + x19: .cfa -8 + ^ x20: .cfa -16 + ^ x21: .cfa -24 + ^ x22: .cfa -32 + ^ x23: .cfa -40 + ^ x24: .cfa -48 + ^ x25: .cfa -56 + ^ x26: .cfa -64 + ^ x27: .cfa -72 + ^ x28: .cfa -80 + ^ .ra: .cfa -88 + ^ x29: .cfa -96 + ^
STACK CFI 26d70 .cfa: sp 224 +
STACK CFI 26d8c .cfa: sp 0 +
STACK CFI 26d90 .cfa: x29 96 +
STACK CFI INIT 26fe8 50 .cfa: sp 0 +
STACK CFI 26fec .cfa: sp 32 +
STACK CFI 26ff4 .cfa: x29 32 + x19: .cfa -8 + ^ x20: .cfa -16 + ^ .ra: .cfa -24 + ^ x29: .cfa -32 + ^
STACK CFI INIT 27104 74 .cfa: sp 0 +
STACK CFI 27108 .cfa: sp 48 +
STACK CFI 27114 .cfa: x29 32 + x19: .cfa -8 + ^ x20: .cfa -16 + ^ .ra: .cfa -24 + ^ x29: .cfa -32 + ^
STACK CFI 27160 .cfa: sp 48 +
STACK CFI 2716c .cfa: sp 0 +
STACK CFI 27170 .cfa: x29 32 +
STACK CFI INIT 27178 104 .cfa: sp 0 +
STACK CFI 2717c .cfa: sp 112 +
STACK CFI 27188 .cfa: x29 32 + x19: .cfa -8 + ^ x20: .cfa -16 + ^ .ra: .cfa -24 + ^ x29: .cfa -32 + ^
STACK CFI 2724c .cfa: sp 112 +
STACK CFI 27258 .cfa: sp 0 +
STACK CFI 2725c .cfa: x29 32 +
STACK CFI INIT 272b0 12c .cfa: sp 0 +
STACK CFI 272b4 .cfa: sp 80 +
STACK CFI 272c8 .cfa: x29 80 + x19: .cfa -8 + ^ x20: .cfa -16 + ^ x21: .cfa -24 + ^ x22: .cfa -32 + ^ x23: .cfa -40 + ^ x24: .cfa -48 + ^ x25: .cfa -56 + ^ x26: .cfa -64 + ^ .ra: .cfa -72 + ^ x29: .cfa -80 + ^
STACK CFI 27390 .cfa: sp 80 +
STACK CFI 273a4 .cfa: sp 0 +
STACK CFI 273a8 .cfa: x29 80 +
STACK CFI INIT 27480 1a4 .cfa: sp 0 +
STACK CFI 27484 .cfa: sp 112 +
STACK CFI 2749c .cfa: x29 80 + x19: .cfa -8 + ^ x20: .cfa -16 + ^ x21: .cfa -24 + ^ x22: .cfa -32 + ^ x23: .cfa -40 + ^ x24: .cfa -48 + ^ x25: .cfa -56 + ^ x26: .cfa -64 + ^ .ra: .cfa -72 + ^ x29: .cfa -80 + ^
STACK CFI 2758c .cfa: sp 112 +
STACK CFI 275a4 .cfa: sp 0 +
STACK CFI 275a8 .cfa: x29 80 +
STACK CFI INIT 27624 1dc .cfa: sp 0 +
STACK CFI 27628 .cfa: sp 128 +
STACK CFI 27644 .cfa: x29 96 + x19: .cfa -8 + ^ x20: .cfa -16 + ^ x21: .cfa -24 + ^ x22: .cfa -32 + ^ x23: .cfa -40 + ^ x24: .cfa -48 + ^ x25: .cfa -56 + ^ x26: .cfa -64 + ^ x27: .cfa -80 + ^ .ra: .cfa -88 + ^ x29: .cfa -96 + ^
STACK CFI 277b0 .cfa: sp 128 +
STACK CFI 277cc .cfa: sp 0 +
STACK CFI 277d0 .cfa: x29 96 +
STACK CFI INIT 27800 178 .cfa: sp 0 +
STACK CFI 27804 .cfa: sp 80 +
STACK CFI 27818 .cfa: x29 80 + x19: .cfa -8 + ^ x20: .cfa -16 + ^ x21: .cfa -24 + ^ x22: .cfa -32 + ^ x23: .cfa -40 + ^ x24: .cfa -48 + ^ x25: .cfa -64 + ^ .ra: .cfa -72 + ^ x29: .cfa -80 + ^
STACK CFI 27944 .cfa: sp 80 +
STACK CFI 27958 .cfa: sp 0 +
STACK CFI 2795c .cfa: x29 80 +
STACK CFI INIT 27b88 324 .cfa: sp 0 +
STACK CFI 27b8c .cfa: sp 224 +
STACK CFI 27ba0 .cfa: x29 64 + x19: .cfa -8 + ^ x20: .cfa -16 + ^ x21: .cfa -24 + ^ x22: .cfa -32 + ^ x23: .cfa -48 + ^ .ra: .cfa -56 + ^ x29: .cfa -64 + ^
STACK CFI 27d94 .cfa: sp 224 +
STACK CFI 27da8 .cfa: sp 0 +
STACK CFI 27dac .cfa: x29 64 +
STACK CFI INIT 27efc 74 .cfa: sp 0 +
STACK CFI 27f00 .cfa: sp 48 +
STACK CFI 27f0c .cfa: x29 32 + x19: .cfa -8 + ^ x20: .cfa -16 + ^ .ra: .cfa -24 + ^ x29: .cfa -32 + ^
STACK CFI 27f58 .cfa: sp 48 +
STACK CFI 27f64 .cfa: sp 0 +
STACK CFI 27f68 .cfa: x29 32 +
STACK CFI INIT 27ff0 154 .cfa: sp 0 +
STACK CFI 27ff4 .cfa: sp 384 +
STACK CFI 28008 .cfa: x29 64 + x19: .cfa -8 + ^ x20: .cfa -16 + ^ x21: .cfa -24 + ^ x22: .cfa -32 + ^ x23: .cfa -40 + ^ x28: .cfa -48 + ^ .ra: .cfa -56 + ^ x29: .cfa -64 + ^
STACK CFI 280ec .cfa: sp 384 +
STACK CFI 28100 .cfa: sp 0 +
STACK CFI 28104 .cfa: x29 64 +
STACK CFI INIT 28144 224 .cfa: sp 0 +
STACK CFI 28148 .cfa: sp 128 +
STACK CFI 28160 .cfa: x29 80 + x19: .cfa -8 + ^ x20: .cfa -16 + ^ x21: .cfa -24 + ^ x22: .cfa -32 + ^ x23: .cfa -40 + ^ x24: .cfa -48 + ^ x25: .cfa -64 + ^ .ra: .cfa -72 + ^ x29: .cfa -80 + ^
STACK CFI 282fc .cfa: sp 128 +
STACK CFI 28314 .cfa: sp 0 +
STACK CFI 28318 .cfa: x29 80 +
STACK CFI INIT 28a44 6dc .cfa: sp 0 +
STACK CFI 28a48 .cfa: sp 304 +
STACK CFI 28a60 .cfa: x29 80 + x19: .cfa -8 + ^ x20: .cfa -16 + ^ x21: .cfa -24 + ^ x22: .cfa -32 + ^ x23: .cfa -40 + ^ x24: .cfa -48 + ^ x25: .cfa -56 + ^ x28: .cfa -64 + ^ .ra: .cfa -72 + ^ x29: .cfa -80 + ^
STACK CFI 28f50 .cfa: sp 304 +
STACK CFI 28f68 .cfa: sp 0 +
STACK CFI 28f6c .cfa: x29 80 +
STACK CFI INIT 29260 74 .cfa: sp 0 +
STACK CFI 29264 .cfa: sp 48 +
STACK CFI 29270 .cfa: x29 32 + x19: .cfa -8 + ^ x20: .cfa -16 + ^ .ra: .cfa -24 + ^ x29: .cfa -32 + ^
STACK CFI 292bc .cfa: sp 48 +
STACK CFI 292c8 .cfa: sp 0 +
STACK CFI 292cc .cfa: x29 32 +
STACK CFI INIT 292d4 304 .cfa: sp 0 +
STACK CFI 292d8 .cfa: sp 128 +
STACK CFI 292f4 .cfa: x29 96 + x19: .cfa -8 + ^ x20: .cfa -16 + ^ x21: .cfa -24 + ^ x22: .cfa -32 + ^ x23: .cfa -40 + ^ x24: .cfa -48 + ^ x25: .cfa -56 + ^ x26: .cfa -64 + ^ x27: .cfa -72 + ^ x28: .cfa -80 + ^ .ra: .cfa -88 + ^ x29: .cfa -96 + ^
STACK CFI 29558 .cfa: sp 128 +
STACK CFI 29574 .cfa: sp 0 +
STACK CFI 29578 .cfa: x29 96 +
STACK CFI INIT 299f4 358 .cfa: sp 0 +
STACK CFI 299f8 .cfa: sp 192 +
STACK CFI 29a0c .cfa: x29 64 + x19: .cfa -8 + ^ x20: .cfa -16 + ^ x21: .cfa -24 + ^ x22: .cfa -32 + ^ x23: .cfa -48 + ^ .ra: .cfa -56 + ^ x29: .cfa -64 + ^
STACK CFI 29c28 .cfa: sp 192 +
STACK CFI 29c3c .cfa: sp 0 +
STACK CFI 29c40 .cfa: x29 64 +
STACK CFI INIT 29d50 4a8 .cfa: sp 0 +
STACK CFI 29d54 .cfa: sp 64 +
STACK CFI 29d64 .cfa: x29 48 + x19: .cfa -8 + ^ x20: .cfa -16 + ^ x21: .cfa -24 + ^ x22: .cfa -32 + ^ .ra: .cfa -40 + ^ x29: .cfa -48 + ^
STACK CFI 2a118 .cfa: sp 64 +
STACK CFI 2a128 .cfa: sp 0 +
STACK CFI 2a12c .cfa: x29 48 +
STACK CFI 2a17c .cfa: sp 64 +
STACK CFI 2a18c .cfa: sp 0 +
STACK CFI 2a190 .cfa: x29 48 +
STACK CFI INIT 2a1f8 41c .cfa: sp 0 +
STACK CFI 2a1fc .cfa: sp 144 +
STACK CFI 2a210 .cfa: x29 64 + x19: .cfa -8 + ^ x20: .cfa -16 + ^ x21: .cfa -24 + ^ x22: .cfa -32 + ^ x23: .cfa -40 + ^ x24: .cfa -48 + ^ .ra: .cfa -56 + ^ x29: .cfa -64 + ^
STACK CFI 2a4cc .cfa: sp 144 +
STACK CFI 2a4e0 .cfa: sp 0 +
STACK CFI 2a4e4 .cfa: x29 64 +
STACK CFI INIT 2a618 184 .cfa: sp 0 +
STACK CFI 2a61c .cfa: sp 160 +
STACK CFI 2a634 .cfa: x29 80 + x19: .cfa -8 + ^ x20: .cfa -16 + ^ x21: .cfa -24 + ^ x22: .cfa -32 + ^ x23: .cfa -40 + ^ x24: .cfa -48 + ^ x25: .cfa -56 + ^ x26: .cfa -64 + ^ .ra: .cfa -72 + ^ x29: .cfa -80 + ^
STACK CFI 2a734 .cfa: sp 160 +
STACK CFI 2a74c .cfa: sp 0 +
STACK CFI 2a750 .cfa: x29 80 +
STACK CFI INIT 2a79c 100 .cfa: sp 0 +
STACK CFI 2a7a0 .cfa: sp 32 +
STACK CFI 2a7a8 .cfa: x29 32 + x19: .cfa -8 + ^ x20: .cfa -16 + ^ .ra: .cfa -24 + ^ x29: .cfa -32 + ^
STACK CFI 2a87c .cfa: sp 32 +
STACK CFI 2a884 .cfa: sp 0 +
STACK CFI 2a888 .cfa: x29 32 +
STACK CFI INIT 2a89c 134 .cfa: sp 0 +
STACK CFI 2a8a0 .cfa: sp 80 +
STACK CFI 2a8b4 .cfa: x29 64 + x19: .cfa -8 + ^ x20: .cfa -16 + ^ x21: .cfa -24 + ^ x22: .cfa -32 + ^ x23: .cfa -40 + ^ x24: .cfa -48 + ^ .ra: .cfa -56 + ^ x29: .cfa -64 + ^
STACK CFI 2a95c .cfa: sp 80 +
STACK CFI 2a970 .cfa: sp 0 +
STACK CFI 2a974 .cfa: x29 64 +
STACK CFI INIT 2a9d0 5b4 .cfa: sp 0 +
STACK CFI 2a9d4 .cfa: sp 224 +
STACK CFI 2a9ec .cfa: x29 80 + x19: .cfa -8 + ^ x20: .cfa -16 + ^ x21: .cfa -24 + ^ x22: .cfa -32 + ^ x23: .cfa -40 + ^ x24: .cfa -48 + ^ x25: .cfa -56 + ^ x26: .cfa -64 + ^ .ra: .cfa -72 + ^ x29: .cfa -80 + ^
STACK CFI 2adbc .cfa: sp 224 +
STACK CFI 2add4 .cfa: sp 0 +
STACK CFI 2add8 .cfa: x29 80 +
STACK CFI INIT 2af88 130 .cfa: sp 0 +
STACK CFI 2af8c .cfa: sp 80 +
STACK CFI 2afa0 .cfa: x29 64 + x19: .cfa -8 + ^ x20: .cfa -16 + ^ x21: .cfa -24 + ^ x22: .cfa -32 + ^ x23: .cfa -48 + ^ .ra: .cfa -56 + ^ x29: .cfa -64 + ^
STACK CFI 2b044 .cfa: sp 80 +
STACK CFI 2b058 .cfa: sp 0 +
STACK CFI 2b05c .cfa: x29 64 +
STACK CFI INIT 2b0b8 30c .cfa: sp 0 +
STACK CFI 2b0bc .cfa: sp 96 +
STACK CFI 2b0d0 .cfa: x29 64 + x19: .cfa -8 + ^ x20: .cfa -16 + ^ x21: .cfa -24 + ^ x22: .cfa -32 + ^ x23: .cfa -40 + ^ x24: .cfa -48 + ^ .ra: .cfa -56 + ^ x29: .cfa -64 + ^
STACK CFI 2b20c .cfa: sp 96 +
STACK CFI 2b220 .cfa: sp 0 +
STACK CFI 2b224 .cfa: x29 64 +
STACK CFI 2b384 .cfa: sp 96 +
STACK CFI 2b398 .cfa: sp 0 +
STACK CFI 2b39c .cfa: x29 64 +
STACK CFI INIT 2b3c4 a8 .cfa: sp 0 +
STACK CFI 2b3c8 .cfa: sp 32 +
STACK CFI 2b3d0 .cfa: x29 32 + x19: .cfa -16 + ^ .ra: .cfa -24 + ^ x29: .cfa -32 + ^
STACK CFI 2b404 .cfa: sp 32 +
STACK CFI 2b40c .cfa: sp 0 +
STACK CFI 2b410 .cfa: x29 32 +
STACK CFI 2b414 .cfa: sp 32 +
STACK CFI 2b41c .cfa: sp 0 +
STACK CFI 2b420 .cfa: x29 32 +
STACK CFI INIT 2b520 350 .cfa: sp 0 +
STACK CFI 2b524 .cfa: sp 208 +
STACK CFI 2b538 .cfa: x29 64 + x19: .cfa -8 + ^ x20: .cfa -16 + ^ x21: .cfa -24 + ^ x22: .cfa -32 + ^ x23: .cfa -48 + ^ .ra: .cfa -56 + ^ x29: .cfa -64 + ^
STACK CFI 2b74c .cfa: sp 208 +
STACK CFI 2b760 .cfa: sp 0 +
STACK CFI 2b764 .cfa: x29 64 +
STACK CFI INIT 2b874 5d4 .cfa: sp 0 +
STACK CFI 2b878 .cfa: sp 80 +
STACK CFI 2b88c .cfa: x29 80 + x19: .cfa -8 + ^ x20: .cfa -16 + ^ x21: .cfa -24 + ^ x22: .cfa -32 + ^ x23: .cfa -40 + ^ x24: .cfa -48 + ^ x25: .cfa -64 + ^ .ra: .cfa -72 + ^ x29: .cfa -80 + ^
STACK CFI 2bda4 .cfa: sp 80 +
STACK CFI 2bdb8 .cfa: sp 0 +
STACK CFI 2bdbc .cfa: x29 80 +
STACK CFI INIT 2be48 34c .cfa: sp 0 +
STACK CFI 2be4c .cfa: sp 208 +
STACK CFI 2be60 .cfa: x29 64 + x19: .cfa -8 + ^ x20: .cfa -16 + ^ x21: .cfa -24 + ^ x22: .cfa -32 + ^ x23: .cfa -40 + ^ x24: .cfa -48 + ^ .ra: .cfa -56 + ^ x29: .cfa -64 + ^
STACK CFI 2c070 .cfa: sp 208 +
STACK CFI 2c084 .cfa: sp 0 +
STACK CFI 2c088 .cfa: x29 64 +
STACK CFI INIT 2c198 5d4 .cfa: sp 0 +
STACK CFI 2c19c .cfa: sp 80 +
STACK CFI 2c1b0 .cfa: x29 80 + x19: .cfa -8 + ^ x20: .cfa -16 + ^ x21: .cfa -24 + ^ x22: .cfa -32 + ^ x23: .cfa -40 + ^ x24: .cfa -48 + ^ x25: .cfa -64 + ^ .ra: .cfa -72 + ^ x29: .cfa -80 + ^
STACK CFI 2c6c8 .cfa: sp 80 +
STACK CFI 2c6dc .cfa: sp 0 +
STACK CFI 2c6e0 .cfa: x29 80 +
STACK CFI INIT 2c76c 324 .cfa: sp 0 +
STACK CFI 2c770 .cfa: sp 224 +
STACK CFI 2c784 .cfa: x29 64 + x19: .cfa -8 + ^ x20: .cfa -16 + ^ x21: .cfa -24 + ^ x22: .cfa -32 + ^ x23: .cfa -48 + ^ .ra: .cfa -56 + ^ x29: .cfa -64 + ^
STACK CFI 2c978 .cfa: sp 224 +
STACK CFI 2c98c .cfa: sp 0 +
STACK CFI 2c990 .cfa: x29 64 +
STACK CFI INIT 2ca94 4e4 .cfa: sp 0 +
STACK CFI 2ca98 .cfa: sp 64 +
STACK CFI 2caa8 .cfa: x29 48 + x19: .cfa -8 + ^ x20: .cfa -16 + ^ x21: .cfa -24 + ^ x22: .cfa -32 + ^ .ra: .cfa -40 + ^ x29: .cfa -48 + ^
STACK CFI 2cef8 .cfa: sp 64 +
STACK CFI 2cf08 .cfa: sp 0 +
STACK CFI 2cf0c .cfa: x29 48 +
STACK CFI INIT 2cf78 140 .cfa: sp 0 +
STACK CFI 2cf7c .cfa: sp 336 +
STACK CFI 2cf90 .cfa: x29 64 + x19: .cfa -8 + ^ x20: .cfa -16 + ^ x21: .cfa -24 + ^ x22: .cfa -32 + ^ x28: .cfa -48 + ^ .ra: .cfa -56 + ^ x29: .cfa -64 + ^
STACK CFI 2d078 .cfa: sp 336 +
STACK CFI 2d08c .cfa: sp 0 +
STACK CFI 2d090 .cfa: x29 64 +
STACK CFI INIT 2d0b8 72b0 .cfa: sp 0 +
STACK CFI 2d0bc .cfa: sp 144 +
STACK CFI 2d0e0 .cfa: x29 96 + x19: .cfa -8 + ^ x20: .cfa -16 + ^ x21: .cfa -24 + ^ x22: .cfa -32 + ^ x23: .cfa -40 + ^ x24: .cfa -48 + ^ x25: .cfa -56 + ^ x26: .cfa -64 + ^ x27: .cfa -72 + ^ x28: .cfa -80 + ^ .ra: .cfa -88 + ^ x29: .cfa -96 + ^ v8: .cfa -104 + ^ v9: .cfa -112 + ^ v10: .cfa -120 + ^ v11: .cfa -128 + ^ v12: .cfa -144 + ^
STACK CFI 31cc8 .cfa: sp 144 +
STACK CFI 31cec .cfa: sp 0 +
STACK CFI 31cf0 .cfa: x29 96 +
STACK CFI INIT 34374 1e94 .cfa: sp 0 +
STACK CFI 34378 .cfa: sp 128 +
STACK CFI 34398 .cfa: x29 96 + x19: .cfa -8 + ^ x20: .cfa -16 + ^ x21: .cfa -24 + ^ x22: .cfa -32 + ^ x23: .cfa -40 + ^ x24: .cfa -48 + ^ x25: .cfa -56 + ^ x26: .cfa -64 + ^ x27: .cfa -72 + ^ x28: .cfa -80 + ^ .ra: .cfa -88 + ^ x29: .cfa -96 + ^ v8: .cfa -104 + ^ v9: .cfa -112 + ^ v10: .cfa -128 + ^
STACK CFI 35f48 .cfa: sp 128 +
STACK CFI 35f68 .cfa: sp 0 +
STACK CFI 35f6c .cfa: x29 96 +
STACK CFI INIT 36628 178 .cfa: sp 0 +
STACK CFI 3662c .cfa: sp 96 +
STACK CFI 36644 .cfa: x29 80 + x19: .cfa -8 + ^ x20: .cfa -16 + ^ x21: .cfa -24 + ^ x22: .cfa -32 + ^ x23: .cfa -40 + ^ x24: .cfa -48 + ^ x25: .cfa -64 + ^ .ra: .cfa -72 + ^ x29: .cfa -80 + ^
STACK CFI 36758 .cfa: sp 96 +
STACK CFI 36770 .cfa: sp 0 +
STACK CFI 36774 .cfa: x29 80 +
STACK CFI INIT 367a0 f8 .cfa: sp 0 +
STACK CFI 367a4 .cfa: sp 80 +
STACK CFI 367b8 .cfa: x29 64 + x19: .cfa -8 + ^ x20: .cfa -16 + ^ x21: .cfa -24 + ^ x22: .cfa -32 + ^ x23: .cfa -48 + ^ .ra: .cfa -56 + ^ x29: .cfa -64 + ^
STACK CFI 36858 .cfa: sp 80 +
STACK CFI 3686c .cfa: sp 0 +
STACK CFI 36870 .cfa: x29 64 +
STACK CFI INIT 36898 1b0 .cfa: sp 0 +
STACK CFI 3689c .cfa: sp 80 +
STACK CFI 368b0 .cfa: x29 64 + x19: .cfa -8 + ^ x20: .cfa -16 + ^ x21: .cfa -24 + ^ x22: .cfa -32 + ^ x23: .cfa -48 + ^ .ra: .cfa -56 + ^ x29: .cfa -64 + ^
STACK CFI 369cc .cfa: sp 80 +
STACK CFI 369e0 .cfa: sp 0 +
STACK CFI 369e4 .cfa: x29 64 +
STACK CFI INIT 36a4c 940 .cfa: sp 0 +
STACK CFI 36a50 .cfa: sp 80 +
STACK CFI 36a64 .cfa: x29 80 + x19: .cfa -8 + ^ x20: .cfa -16 + ^ x21: .cfa -24 + ^ x22: .cfa -32 + ^ x23: .cfa -40 + ^ x24: .cfa -48 + ^ x25: .cfa -56 + ^ x28: .cfa -64 + ^ .ra: .cfa -72 + ^ x29: .cfa -80 + ^
STACK CFI 36b98 .cfa: sp 80 +
STACK CFI 36bac .cfa: sp 0 +
STACK CFI 36bb0 .cfa: x29 80 +
STACK CFI INIT 3738c f0 .cfa: sp 0 +
STACK CFI 37390 .cfa: sp 64 +
STACK CFI 373a0 .cfa: x29 48 + x19: .cfa -8 + ^ x20: .cfa -16 + ^ x21: .cfa -32 + ^ .ra: .cfa -40 + ^ x29: .cfa -48 + ^
STACK CFI 37440 .cfa: sp 64 +
STACK CFI 37450 .cfa: sp 0 +
STACK CFI 37454 .cfa: x29 48 +
STACK CFI INIT 376dc 6c .cfa: sp 0 +
STACK CFI 376e0 .cfa: sp 32 +
STACK CFI 376e8 .cfa: x29 32 + x19: .cfa -16 + ^ .ra: .cfa -24 + ^ x29: .cfa -32 + ^
STACK CFI 37738 .cfa: sp 32 +
STACK CFI 37740 .cfa: sp 0 +
STACK CFI 37744 .cfa: x29 32 +
STACK CFI INIT 37748 74 .cfa: sp 0 +
STACK CFI 3774c .cfa: sp 32 +
STACK CFI 37754 .cfa: x29 32 + x19: .cfa -16 + ^ .ra: .cfa -24 + ^ x29: .cfa -32 + ^
STACK CFI 377ac .cfa: sp 32 +
STACK CFI 377b4 .cfa: sp 0 +
STACK CFI 377b8 .cfa: x29 32 +
STACK CFI INIT 37810 24c .cfa: sp 0 +
STACK CFI 37814 .cfa: sp 112 +
STACK CFI 37824 .cfa: x29 48 + x19: .cfa -8 + ^ x20: .cfa -16 + ^ x21: .cfa -32 + ^ .ra: .cfa -40 + ^ x29: .cfa -48 + ^
STACK CFI 37a14 .cfa: sp 112 +
STACK CFI 37a24 .cfa: sp 0 +
STACK CFI 37a28 .cfa: x29 48 +
STACK CFI INIT 37a5c 148 .cfa: sp 0 +
STACK CFI 37a60 .cfa: sp 96 +
STACK CFI 37a70 .cfa: x29 48 + x19: .cfa -8 + ^ x20: .cfa -16 + ^ x21: .cfa -32 + ^ .ra: .cfa -40 + ^ x29: .cfa -48 + ^
STACK CFI 37b58 .cfa: sp 96 +
STACK CFI 37b68 .cfa: sp 0 +
STACK CFI 37b6c .cfa: x29 48 +
STACK CFI INIT 37ba4 6c .cfa: sp 0 +
STACK CFI 37ba8 .cfa: sp 32 +
STACK CFI 37bb0 .cfa: x29 32 + x19: .cfa -16 + ^ .ra: .cfa -24 + ^ x29: .cfa -32 + ^
STACK CFI 37c00 .cfa: sp 32 +
STACK CFI 37c08 .cfa: sp 0 +
STACK CFI 37c0c .cfa: x29 32 +
STACK CFI INIT 37c10 74 .cfa: sp 0 +
STACK CFI 37c14 .cfa: sp 32 +
STACK CFI 37c1c .cfa: x29 32 + x19: .cfa -16 + ^ .ra: .cfa -24 + ^ x29: .cfa -32 + ^
STACK CFI 37c74 .cfa: sp 32 +
STACK CFI 37c7c .cfa: sp 0 +
STACK CFI 37c80 .cfa: x29 32 +
STACK CFI INIT 37cb4 6c .cfa: sp 0 +
STACK CFI 37cb8 .cfa: sp 32 +
STACK CFI 37cc0 .cfa: x29 32 + x19: .cfa -16 + ^ .ra: .cfa -24 + ^ x29: .cfa -32 + ^
STACK CFI 37d10 .cfa: sp 32 +
STACK CFI 37d18 .cfa: sp 0 +
STACK CFI 37d1c .cfa: x29 32 +
STACK CFI INIT 37f50 324 .cfa: sp 0 +
STACK CFI 37f54 .cfa: sp 112 +
STACK CFI 37f70 .cfa: x29 96 + x19: .cfa -8 + ^ x20: .cfa -16 + ^ x21: .cfa -24 + ^ x22: .cfa -32 + ^ x23: .cfa -40 + ^ x24: .cfa -48 + ^ x25: .cfa -56 + ^ x26: .cfa -64 + ^ x27: .cfa -72 + ^ x28: .cfa -80 + ^ .ra: .cfa -88 + ^ x29: .cfa -96 + ^
STACK CFI 381ec .cfa: sp 112 +
STACK CFI 38208 .cfa: sp 0 +
STACK CFI 3820c .cfa: x29 96 +
STACK CFI INIT 38274 dc .cfa: sp 0 +
STACK CFI 38278 .cfa: sp 32 +
STACK CFI 38280 .cfa: x29 32 + x19: .cfa -8 + ^ x20: .cfa -16 + ^ .ra: .cfa -24 + ^ x29: .cfa -32 + ^
STACK CFI 38330 .cfa: sp 32 +
STACK CFI 38338 .cfa: sp 0 +
STACK CFI 3833c .cfa: x29 32 +
STACK CFI INIT 3842c 134 .cfa: sp 0 +
STACK CFI 38430 .cfa: sp 80 +
STACK CFI 3843c .cfa: x29 32 + x19: .cfa -8 + ^ x20: .cfa -16 + ^ .ra: .cfa -24 + ^ x29: .cfa -32 + ^
STACK CFI 3846c .cfa: sp 80 +
STACK CFI 38478 .cfa: sp 0 +
STACK CFI 3847c .cfa: x29 32 +
STACK CFI INIT 38560 78 .cfa: sp 0 +
STACK CFI 38564 .cfa: sp 32 +
STACK CFI 3856c .cfa: x29 32 + x19: .cfa -8 + ^ x20: .cfa -16 + ^ .ra: .cfa -24 + ^ x29: .cfa -32 + ^
STACK CFI 38578 .cfa: sp 32 +
STACK CFI 38580 .cfa: sp 0 +
STACK CFI 38584 .cfa: x29 32 +
STACK CFI INIT 385d8 74 .cfa: sp 0 +
STACK CFI 385dc .cfa: sp 48 +
STACK CFI 385e8 .cfa: x29 32 + x19: .cfa -8 + ^ x20: .cfa -16 + ^ .ra: .cfa -24 + ^ x29: .cfa -32 + ^
STACK CFI 38634 .cfa: sp 48 +
STACK CFI 38640 .cfa: sp 0 +
STACK CFI 38644 .cfa: x29 32 +
STACK CFI INIT 386d4 25c .cfa: sp 0 +
STACK CFI 386d8 .cfa: sp 128 +
STACK CFI 386e8 .cfa: x29 48 + x19: .cfa -8 + ^ x20: .cfa -16 + ^ x21: .cfa -32 + ^ .ra: .cfa -40 + ^ x29: .cfa -48 + ^
STACK CFI 387d0 .cfa: sp 128 +
STACK CFI 387e0 .cfa: sp 0 +
STACK CFI 387e4 .cfa: x29 48 +
STACK CFI INIT 38954 284 .cfa: sp 0 +
STACK CFI 38958 .cfa: sp 128 +
STACK CFI 38968 .cfa: x29 48 + x19: .cfa -8 + ^ x20: .cfa -16 + ^ x21: .cfa -32 + ^ .ra: .cfa -40 + ^ x29: .cfa -48 + ^
STACK CFI 38a80 .cfa: sp 128 +
STACK CFI 38a90 .cfa: sp 0 +
STACK CFI 38a94 .cfa: x29 48 +
STACK CFI INIT 38c2c 300 .cfa: sp 0 +
STACK CFI 38c30 .cfa: sp 144 +
STACK CFI 38c44 .cfa: x29 64 + x19: .cfa -8 + ^ x20: .cfa -16 + ^ x21: .cfa -24 + ^ x22: .cfa -32 + ^ x23: .cfa -48 + ^ .ra: .cfa -56 + ^ x29: .cfa -64 + ^
STACK CFI 38dd8 .cfa: sp 144 +
STACK CFI 38dec .cfa: sp 0 +
STACK CFI 38df0 .cfa: x29 64 +
STACK CFI INIT 38f80 264 .cfa: sp 0 +
STACK CFI 38f84 .cfa: sp 128 +
STACK CFI 38f94 .cfa: x29 48 + x19: .cfa -8 + ^ x20: .cfa -16 + ^ x21: .cfa -32 + ^ .ra: .cfa -40 + ^ x29: .cfa -48 + ^
STACK CFI 3908c .cfa: sp 128 +
STACK CFI 3909c .cfa: sp 0 +
STACK CFI 390a0 .cfa: x29 48 +
STACK CFI INIT 39238 150 .cfa: sp 0 +
STACK CFI 3923c .cfa: sp 128 +
STACK CFI 3924c .cfa: x29 48 + x19: .cfa -8 + ^ x20: .cfa -16 + ^ x21: .cfa -24 + ^ x22: .cfa -32 + ^ .ra: .cfa -40 + ^ x29: .cfa -48 + ^
STACK CFI 39294 .cfa: sp 128 +
STACK CFI 392a4 .cfa: sp 0 +
STACK CFI 392a8 .cfa: x29 48 +
STACK CFI INIT 39388 a8 .cfa: sp 0 +
STACK CFI 3938c .cfa: sp 64 +
STACK CFI 3939c .cfa: x29 48 + x19: .cfa -8 + ^ x20: .cfa -16 + ^ x21: .cfa -32 + ^ .ra: .cfa -40 + ^ x29: .cfa -48 + ^
STACK CFI 39404 .cfa: sp 64 +
STACK CFI 39414 .cfa: sp 0 +
STACK CFI 39418 .cfa: x29 48 +
STACK CFI INIT 394b0 1b8 .cfa: sp 0 +
STACK CFI 394b4 .cfa: sp 160 +
STACK CFI 394d0 .cfa: x29 72 + x19: .cfa -8 + ^ x20: .cfa -16 + ^ x21: .cfa -24 + ^ x22: .cfa -32 + ^ x23: .cfa -40 + ^ x24: .cfa -48 + ^ x25: .cfa -56 + ^ .ra: .cfa -64 + ^ x29: .cfa -72 + ^ v8: .cfa -80 + ^
STACK CFI 39554 .cfa: sp 160 +
STACK CFI 39570 .cfa: sp 0 +
STACK CFI 39574 .cfa: x29 72 +
STACK CFI INIT 39668 16c .cfa: sp 0 +
STACK CFI 3966c .cfa: sp 64 +
STACK CFI 3967c .cfa: x29 48 + x19: .cfa -8 + ^ x20: .cfa -16 + ^ x21: .cfa -24 + ^ x22: .cfa -32 + ^ .ra: .cfa -40 + ^ x29: .cfa -48 + ^
STACK CFI 39774 .cfa: sp 64 +
STACK CFI 39784 .cfa: sp 0 +
STACK CFI 39788 .cfa: x29 48 +
STACK CFI INIT 397d4 1e8 .cfa: sp 0 +
STACK CFI 397d8 .cfa: sp 192 +
STACK CFI 397fc .cfa: x29 88 + x19: .cfa -8 + ^ x20: .cfa -16 + ^ x21: .cfa -24 + ^ x22: .cfa -32 + ^ x23: .cfa -40 + ^ x24: .cfa -48 + ^ x25: .cfa -56 + ^ x26: .cfa -64 + ^ x27: .cfa -72 + ^ .ra: .cfa -80 + ^ x29: .cfa -88 + ^ v8: .cfa -96 + ^ v9: .cfa -104 + ^ v10: .cfa -112 + ^
STACK CFI 398a0 .cfa: sp 192 +
STACK CFI 398c4 .cfa: sp 0 +
STACK CFI 398c8 .cfa: x29 88 +
STACK CFI INIT 399bc 430 .cfa: sp 0 +
STACK CFI 399c0 .cfa: sp 96 +
STACK CFI 399d4 .cfa: x29 64 + x19: .cfa -8 + ^ x20: .cfa -16 + ^ x21: .cfa -24 + ^ x22: .cfa -32 + ^ x23: .cfa -40 + ^ x24: .cfa -48 + ^ .ra: .cfa -56 + ^ x29: .cfa -64 + ^
STACK CFI 39d7c .cfa: sp 96 +
STACK CFI 39d90 .cfa: sp 0 +
STACK CFI 39d94 .cfa: x29 64 +
STACK CFI INIT 39dec 1d4 .cfa: sp 0 +
STACK CFI 39df0 .cfa: sp 176 +
STACK CFI 39e0c .cfa: x29 72 + x19: .cfa -8 + ^ x20: .cfa -16 + ^ x21: .cfa -24 + ^ x22: .cfa -32 + ^ x23: .cfa -40 + ^ x24: .cfa -48 + ^ x25: .cfa -56 + ^ .ra: .cfa -64 + ^ x29: .cfa -72 + ^ v8: .cfa -80 + ^
STACK CFI 39ea4 .cfa: sp 176 +
STACK CFI 39ec0 .cfa: sp 0 +
STACK CFI 39ec4 .cfa: x29 72 +
STACK CFI INIT 39fc0 178 .cfa: sp 0 +
STACK CFI 39fc4 .cfa: sp 64 +
STACK CFI 39fd4 .cfa: x29 48 + x19: .cfa -8 + ^ x20: .cfa -16 + ^ x21: .cfa -24 + ^ x22: .cfa -32 + ^ .ra: .cfa -40 + ^ x29: .cfa -48 + ^
STACK CFI 3a0d8 .cfa: sp 64 +
STACK CFI 3a0e8 .cfa: sp 0 +
STACK CFI 3a0ec .cfa: x29 48 +
STACK CFI INIT 3a138 178 .cfa: sp 0 +
STACK CFI 3a13c .cfa: sp 128 +
STACK CFI 3a14c .cfa: x29 48 + x19: .cfa -8 + ^ x20: .cfa -16 + ^ x21: .cfa -24 + ^ x22: .cfa -32 + ^ .ra: .cfa -40 + ^ x29: .cfa -48 + ^
STACK CFI 3a1a8 .cfa: sp 128 +
STACK CFI 3a1b8 .cfa: sp 0 +
STACK CFI 3a1bc .cfa: x29 48 +
STACK CFI INIT 3a2b0 a4 .cfa: sp 0 +
STACK CFI 3a2b4 .cfa: sp 48 +
STACK CFI 3a2c0 .cfa: x29 48 + x19: .cfa -8 + ^ x20: .cfa -16 + ^ x21: .cfa -32 + ^ .ra: .cfa -40 + ^ x29: .cfa -48 + ^
STACK CFI 3a32c .cfa: sp 48 +
STACK CFI 3a338 .cfa: sp 0 +
STACK CFI 3a33c .cfa: x29 48 +
STACK CFI INIT 3a354 310 .cfa: sp 0 +
STACK CFI 3a358 .cfa: sp 144 +
STACK CFI 3a36c .cfa: x29 64 + x19: .cfa -8 + ^ x20: .cfa -16 + ^ x21: .cfa -24 + ^ x22: .cfa -32 + ^ x23: .cfa -48 + ^ .ra: .cfa -56 + ^ x29: .cfa -64 + ^
STACK CFI 3a510 .cfa: sp 144 +
STACK CFI 3a524 .cfa: sp 0 +
STACK CFI 3a528 .cfa: x29 64 +
STACK CFI INIT 3a6bc 2e4 .cfa: sp 0 +
STACK CFI 3a6c0 .cfa: sp 144 +
STACK CFI 3a6d4 .cfa: x29 64 + x19: .cfa -8 + ^ x20: .cfa -16 + ^ x21: .cfa -24 + ^ x22: .cfa -32 + ^ x23: .cfa -48 + ^ .ra: .cfa -56 + ^ x29: .cfa -64 + ^
STACK CFI 3a84c .cfa: sp 144 +
STACK CFI 3a860 .cfa: sp 0 +
STACK CFI 3a864 .cfa: x29 64 +
STACK CFI INIT 3a9a0 2e4 .cfa: sp 0 +
STACK CFI 3a9a4 .cfa: sp 144 +
STACK CFI 3a9b8 .cfa: x29 64 + x19: .cfa -8 + ^ x20: .cfa -16 + ^ x21: .cfa -24 + ^ x22: .cfa -32 + ^ x23: .cfa -48 + ^ .ra: .cfa -56 + ^ x29: .cfa -64 + ^
STACK CFI 3ab30 .cfa: sp 144 +
STACK CFI 3ab44 .cfa: sp 0 +
STACK CFI 3ab48 .cfa: x29 64 +
STACK CFI INIT 3ac84 2a0 .cfa: sp 0 +
STACK CFI 3ac88 .cfa: sp 144 +
STACK CFI 3ac9c .cfa: x29 64 + x19: .cfa -8 + ^ x20: .cfa -16 + ^ x21: .cfa -24 + ^ x22: .cfa -32 + ^ x23: .cfa -48 + ^ .ra: .cfa -56 + ^ x29: .cfa -64 + ^
STACK CFI 3add0 .cfa: sp 144 +
STACK CFI 3ade4 .cfa: sp 0 +
STACK CFI 3ade8 .cfa: x29 64 +
STACK CFI INIT 3af24 2f0 .cfa: sp 0 +
STACK CFI 3af28 .cfa: sp 144 +
STACK CFI 3af3c .cfa: x29 64 + x19: .cfa -8 + ^ x20: .cfa -16 + ^ x21: .cfa -24 + ^ x22: .cfa -32 + ^ x23: .cfa -48 + ^ .ra: .cfa -56 + ^ x29: .cfa -64 + ^
STACK CFI 3b0c0 .cfa: sp 144 +
STACK CFI 3b0d4 .cfa: sp 0 +
STACK CFI 3b0d8 .cfa: x29 64 +
STACK CFI INIT 3b214 4f4 .cfa: sp 0 +
STACK CFI 3b218 .cfa: sp 144 +
STACK CFI 3b22c .cfa: x29 64 + x19: .cfa -8 + ^ x20: .cfa -16 + ^ x21: .cfa -24 + ^ x22: .cfa -32 + ^ x23: .cfa -48 + ^ .ra: .cfa -56 + ^ x29: .cfa -64 + ^
STACK CFI 3b560 .cfa: sp 144 +
STACK CFI 3b574 .cfa: sp 0 +
STACK CFI 3b578 .cfa: x29 64 +
STACK CFI INIT 3b708 154 .cfa: sp 0 +
STACK CFI 3b70c .cfa: sp 384 +
STACK CFI 3b720 .cfa: x29 64 + x19: .cfa -8 + ^ x20: .cfa -16 + ^ x21: .cfa -24 + ^ x22: .cfa -32 + ^ x23: .cfa -40 + ^ x28: .cfa -48 + ^ .ra: .cfa -56 + ^ x29: .cfa -64 + ^
STACK CFI 3b804 .cfa: sp 384 +
STACK CFI 3b818 .cfa: sp 0 +
STACK CFI 3b81c .cfa: x29 64 +
STACK CFI INIT 3b85c 168 .cfa: sp 0 +
STACK CFI 3b860 .cfa: sp 384 +
STACK CFI 3b874 .cfa: x29 64 + x19: .cfa -8 + ^ x20: .cfa -16 + ^ x21: .cfa -24 + ^ x22: .cfa -32 + ^ x23: .cfa -40 + ^ x28: .cfa -48 + ^ .ra: .cfa -56 + ^ x29: .cfa -64 + ^
STACK CFI 3b96c .cfa: sp 384 +
STACK CFI 3b980 .cfa: sp 0 +
STACK CFI 3b984 .cfa: x29 64 +
STACK CFI INIT 3b9dc 50c .cfa: sp 0 +
STACK CFI 3b9e0 .cfa: sp 64 +
STACK CFI 3b9f0 .cfa: x29 64 + x19: .cfa -8 + ^ x20: .cfa -16 + ^ x21: .cfa -24 + ^ x22: .cfa -32 + ^ x23: .cfa -40 + ^ x24: .cfa -48 + ^ .ra: .cfa -56 + ^ x29: .cfa -64 + ^
STACK CFI 3bb10 .cfa: sp 64 +
STACK CFI 3bb20 .cfa: sp 0 +
STACK CFI 3bb24 .cfa: x29 64 +
STACK CFI 3bebc .cfa: sp 64 +
STACK CFI 3becc .cfa: sp 0 +
STACK CFI 3bed0 .cfa: x29 64 +
STACK CFI INIT 3c22c 294 .cfa: sp 0 +
STACK CFI 3c230 .cfa: sp 240 +
STACK CFI 3c248 .cfa: x29 80 + x19: .cfa -8 + ^ x20: .cfa -16 + ^ x21: .cfa -24 + ^ x22: .cfa -32 + ^ x23: .cfa -40 + ^ x24: .cfa -48 + ^ x25: .cfa -64 + ^ .ra: .cfa -72 + ^ x29: .cfa -80 + ^
STACK CFI 3c3e8 .cfa: sp 240 +
STACK CFI 3c400 .cfa: sp 0 +
STACK CFI 3c404 .cfa: x29 80 +
STACK CFI INIT 3c53c 50 .cfa: sp 0 +
STACK CFI 3c540 .cfa: sp 32 +
STACK CFI 3c548 .cfa: x29 32 + x19: .cfa -8 + ^ x20: .cfa -16 + ^ .ra: .cfa -24 + ^ x29: .cfa -32 + ^
STACK CFI INIT 3c5b8 7c0 .cfa: sp 0 +
STACK CFI 3c5bc .cfa: sp 320 +
STACK CFI 3c5d8 .cfa: x29 96 + x19: .cfa -8 + ^ x20: .cfa -16 + ^ x21: .cfa -24 + ^ x22: .cfa -32 + ^ x23: .cfa -40 + ^ x24: .cfa -48 + ^ x25: .cfa -56 + ^ x26: .cfa -64 + ^ x27: .cfa -72 + ^ x28: .cfa -80 + ^ .ra: .cfa -88 + ^ x29: .cfa -96 + ^
STACK CFI 3cc28 .cfa: sp 320 +
STACK CFI 3cc44 .cfa: sp 0 +
STACK CFI 3cc48 .cfa: x29 96 +
STACK CFI INIT 410f8 c74 .cfa: sp 0 +
STACK CFI 410fc .cfa: sp 96 +
STACK CFI 41114 .cfa: x29 96 + x19: .cfa -8 + ^ x20: .cfa -16 + ^ x21: .cfa -24 + ^ x22: .cfa -32 + ^ x23: .cfa -40 + ^ x24: .cfa -48 + ^ x25: .cfa -56 + ^ x26: .cfa -64 + ^ x27: .cfa -72 + ^ x28: .cfa -80 + ^ .ra: .cfa -88 + ^ x29: .cfa -96 + ^
STACK CFI 41b8c .cfa: sp 96 +
STACK CFI 41ba4 .cfa: sp 0 +
STACK CFI 41ba8 .cfa: x29 96 +
STACK CFI INIT 41ec0 26c .cfa: sp 0 +
STACK CFI 41ec4 .cfa: sp 128 +
STACK CFI 41ed4 .cfa: x29 48 + x19: .cfa -8 + ^ x20: .cfa -16 + ^ x21: .cfa -24 + ^ x22: .cfa -32 + ^ .ra: .cfa -40 + ^ x29: .cfa -48 + ^
STACK CFI 42078 .cfa: sp 128 +
STACK CFI 42088 .cfa: sp 0 +
STACK CFI 4208c .cfa: x29 48 +
STACK CFI INIT 42678 3b8 .cfa: sp 0 +
STACK CFI 4267c .cfa: sp 96 +
STACK CFI 42694 .cfa: x29 96 + x19: .cfa -8 + ^ x20: .cfa -16 + ^ x21: .cfa -24 + ^ x22: .cfa -32 + ^ x23: .cfa -40 + ^ x24: .cfa -48 + ^ x25: .cfa -56 + ^ x26: .cfa -64 + ^ x27: .cfa -72 + ^ x28: .cfa -80 + ^ .ra: .cfa -88 + ^ x29: .cfa -96 + ^
STACK CFI 429d0 .cfa: sp 96 +
STACK CFI 429e8 .cfa: sp 0 +
STACK CFI 429ec .cfa: x29 96 +
STACK CFI INIT 42ad0 cb4 .cfa: sp 0 +
STACK CFI 42ad4 .cfa: sp 96 +
STACK CFI 42aec .cfa: x29 96 + x19: .cfa -8 + ^ x20: .cfa -16 + ^ x21: .cfa -24 + ^ x22: .cfa -32 + ^ x23: .cfa -40 + ^ x24: .cfa -48 + ^ x25: .cfa -56 + ^ x26: .cfa -64 + ^ x27: .cfa -72 + ^ x28: .cfa -80 + ^ .ra: .cfa -88 + ^ x29: .cfa -96 + ^
STACK CFI 43594 .cfa: sp 96 +
STACK CFI 435ac .cfa: sp 0 +
STACK CFI 435b0 .cfa: x29 96 +
STACK CFI INIT 43a6c afc .cfa: sp 0 +
STACK CFI 43a70 .cfa: sp 96 +
STACK CFI 43a88 .cfa: x29 96 + x19: .cfa -8 + ^ x20: .cfa -16 + ^ x21: .cfa -24 + ^ x22: .cfa -32 + ^ x23: .cfa -40 + ^ x24: .cfa -48 + ^ x25: .cfa -56 + ^ x26: .cfa -64 + ^ x27: .cfa -72 + ^ x28: .cfa -80 + ^ .ra: .cfa -88 + ^ x29: .cfa -96 + ^
STACK CFI 444dc .cfa: sp 96 +
STACK CFI 444f4 .cfa: sp 0 +
STACK CFI 444f8 .cfa: x29 96 +
STACK CFI INIT 44744 1430 .cfa: sp 0 +
STACK CFI 44748 .cfa: sp 96 +
STACK CFI 44760 .cfa: x29 96 + x19: .cfa -8 + ^ x20: .cfa -16 + ^ x21: .cfa -24 + ^ x22: .cfa -32 + ^ x23: .cfa -40 + ^ x24: .cfa -48 + ^ x25: .cfa -56 + ^ x26: .cfa -64 + ^ x27: .cfa -72 + ^ x28: .cfa -80 + ^ .ra: .cfa -88 + ^ x29: .cfa -96 + ^
STACK CFI 459fc .cfa: sp 96 +
STACK CFI 45a14 .cfa: sp 0 +
STACK CFI 45a18 .cfa: x29 96 +
STACK CFI INIT 45c98 75c .cfa: sp 0 +
STACK CFI 45c9c .cfa: sp 368 +
STACK CFI 45cb8 .cfa: x29 96 + x19: .cfa -8 + ^ x20: .cfa -16 + ^ x21: .cfa -24 + ^ x22: .cfa -32 + ^ x23: .cfa -40 + ^ x24: .cfa -48 + ^ x25: .cfa -56 + ^ x26: .cfa -64 + ^ x27: .cfa -72 + ^ x28: .cfa -80 + ^ .ra: .cfa -88 + ^ x29: .cfa -96 + ^
STACK CFI 45d6c .cfa: sp 368 +
STACK CFI 45d88 .cfa: sp 0 +
STACK CFI 45d8c .cfa: x29 96 +
STACK CFI 45de0 .cfa: sp 368 +
STACK CFI 45dfc .cfa: sp 0 +
STACK CFI 45e00 .cfa: x29 96 +
STACK CFI INIT 467b4 eb0 .cfa: sp 0 +
STACK CFI 467b8 .cfa: sp 96 +
STACK CFI 467d0 .cfa: x29 96 + x19: .cfa -8 + ^ x20: .cfa -16 + ^ x21: .cfa -24 + ^ x22: .cfa -32 + ^ x23: .cfa -40 + ^ x24: .cfa -48 + ^ x25: .cfa -56 + ^ x26: .cfa -64 + ^ x27: .cfa -72 + ^ x28: .cfa -80 + ^ .ra: .cfa -88 + ^ x29: .cfa -96 + ^
STACK CFI 47478 .cfa: sp 96 +
STACK CFI 47490 .cfa: sp 0 +
STACK CFI 47494 .cfa: x29 96 +
STACK CFI INIT 479d8 1c9c .cfa: sp 0 +
STACK CFI 479dc .cfa: sp 112 +
STACK CFI 479f8 .cfa: x29 96 + x19: .cfa -8 + ^ x20: .cfa -16 + ^ x21: .cfa -24 + ^ x22: .cfa -32 + ^ x23: .cfa -40 + ^ x24: .cfa -48 + ^ x25: .cfa -56 + ^ x26: .cfa -64 + ^ x27: .cfa -72 + ^ x28: .cfa -80 + ^ .ra: .cfa -88 + ^ x29: .cfa -96 + ^ v8: .cfa -112 + ^
STACK CFI 47de0 .cfa: sp 112 +
STACK CFI 47dfc .cfa: sp 0 +
STACK CFI 47e00 .cfa: x29 96 +
STACK CFI INIT 4be38 9a0 .cfa: sp 0 +
STACK CFI 4be3c .cfa: sp 144 +
STACK CFI 4be54 .cfa: x29 80 + x19: .cfa -8 + ^ x20: .cfa -16 + ^ x21: .cfa -24 + ^ x22: .cfa -32 + ^ x23: .cfa -40 + ^ x24: .cfa -48 + ^ x25: .cfa -64 + ^ .ra: .cfa -72 + ^ x29: .cfa -80 + ^
STACK CFI 4c754 .cfa: sp 144 +
STACK CFI 4c76c .cfa: sp 0 +
STACK CFI 4c770 .cfa: x29 80 +
STACK CFI INIT 4dcfc 57c .cfa: sp 0 +
STACK CFI 4dd00 .cfa: sp 96 +
STACK CFI 4dd18 .cfa: x29 96 + x19: .cfa -8 + ^ x20: .cfa -16 + ^ x21: .cfa -24 + ^ x22: .cfa -32 + ^ x23: .cfa -40 + ^ x24: .cfa -48 + ^ x25: .cfa -56 + ^ x26: .cfa -64 + ^ x27: .cfa -72 + ^ x28: .cfa -80 + ^ .ra: .cfa -88 + ^ x29: .cfa -96 + ^
STACK CFI 4e1dc .cfa: sp 96 +
STACK CFI 4e1f4 .cfa: sp 0 +
STACK CFI 4e1f8 .cfa: x29 96 +
STACK CFI INIT 4e278 67c .cfa: sp 0 +
STACK CFI 4e27c .cfa: sp 96 +
STACK CFI 4e294 .cfa: x29 96 + x19: .cfa -8 + ^ x20: .cfa -16 + ^ x21: .cfa -24 + ^ x22: .cfa -32 + ^ x23: .cfa -40 + ^ x24: .cfa -48 + ^ x25: .cfa -56 + ^ x26: .cfa -64 + ^ x27: .cfa -72 + ^ x28: .cfa -80 + ^ .ra: .cfa -88 + ^ x29: .cfa -96 + ^
STACK CFI 4e858 .cfa: sp 96 +
STACK CFI 4e870 .cfa: sp 0 +
STACK CFI 4e874 .cfa: x29 96 +
