MODULE Linux arm 507F195D5C86072A020FE4DA5815A8CC0 techstudent10.hide_locks.android32.so
INFO CODE_ID 5D197F50865C2A07020FE4DA5815A8CC6335739C
INFO GENERATOR mozilla/dump_syms 2.3.4
FILE 0 /usr/local/lib/android/sdk/ndk/27.2.12479018/toolchains/llvm/prebuilt/linux-x86_64/sysroot/usr/include/c++/v1/variant
FILE 1 /usr/local/lib/android/sdk/ndk/27.2.12479018/toolchains/llvm/prebuilt/linux-x86_64/sysroot/usr/include/c++/v1/stdexcept
FILE 2 /usr/local/lib/android/sdk/ndk/27.2.12479018/toolchains/llvm/prebuilt/linux-x86_64/sysroot/usr/include/c++/v1/new
FILE 3 /home/runner/work/HideLocks/HideLocks/build/bindings/bindings/Geode/modify/GJItemIcon.hpp
FILE 4 /home/runner/work/HideLocks/HideLocks/geode-sdk-clone/loader/include/Geode/modify/Modify.hpp
FILE 5 /usr/local/lib/android/sdk/ndk/27.2.12479018/toolchains/llvm/prebuilt/linux-x86_64/sysroot/usr/include/c++/v1/__memory/shared_ptr.h
FILE 6 /home/runner/work/HideLocks/HideLocks/cpm-cache/result/28b1b03e0682509636d5e5825265ce2421aac4dc/include/Geode/Result.hpp
FILE 7 /usr/local/lib/android/sdk/ndk/27.2.12479018/toolchains/llvm/prebuilt/linux-x86_64/sysroot/usr/include/c++/v1/vector
FILE 8 /usr/local/lib/android/sdk/ndk/27.2.12479018/toolchains/llvm/prebuilt/linux-x86_64/sysroot/usr/include/c++/v1/sstream
FILE 9 /usr/local/lib/android/sdk/ndk/27.2.12479018/toolchains/llvm/prebuilt/linux-x86_64/sysroot/usr/include/c++/v1/string
FILE 10 /usr/local/lib/android/sdk/ndk/27.2.12479018/toolchains/llvm/prebuilt/linux-x86_64/sysroot/usr/include/c++/v1/__split_buffer
FILE 11 /usr/local/lib/android/sdk/ndk/27.2.12479018/toolchains/llvm/prebuilt/linux-x86_64/sysroot/usr/include/c++/v1/__tree
FILE 12 /home/runner/work/HideLocks/HideLocks/cpm-cache/tuliphook/727bc6fdab39f84eb52f1519195d5488a312e77e/include/tulip/HandlerData.hpp
FILE 13 /home/runner/work/HideLocks/HideLocks/geode-sdk-clone/entry.cpp
PUBLIC 1900 0 __on_dlclose
PUBLIC 1910 0 __emutls_unregister_key
PUBLIC 1914 0 __on_dlclose_late
PUBLIC 1918 0 __atexit_handler_wrapper
PUBLIC 1924 0 atexit
PUBLIC 1944 0 pthread_atfork
FUNC 1954 798 0 __cxx_global_var_init
195e 78e 346 4
FUNC 20ec 1c 0 geode::modifier::ModifyBase<geode::modifier::ModifyDerive<hook6<(anonymous namespace)::hook6Parent>, GJItemIcon> >::~ModifyBase()
20ec 1c 141 4
FUNC 2110 490 0 geode::modifier::ModifyDerive<hook6<(anonymous namespace)::hook6Parent>, GJItemIcon>::apply()
2110 c 116 3
211c 3d2 123 3
24ee e 129 3
24fc a4 123 3
FUNC 25a0 3a 0 std::__ndk1::shared_ptr<geode::Hook>::~shared_ptr[abi:ne180000]()
25a0 4 643 5
25a4 4 644 5
25a8 1a 645 5
25c2 4 646 5
25c6 12 645 5
25d8 2 646 5
FUNC 25dc 60 0 geode::impl::ResultData<geode::Hook*, std::__ndk1::basic_string<char, std::__ndk1::char_traits<char>, std::__ndk1::allocator<char> > >::~ResultData()
25dc 60 334 6
FUNC 263c 3e 0 std::__ndk1::vector<std::__ndk1::basic_string<char, std::__ndk1::char_traits<char>, std::__ndk1::allocator<char> >, std::__ndk1::allocator<std::__ndk1::basic_string<char, std::__ndk1::char_traits<char>, std::__ndk1::allocator<char> > > >::~vector[abi:ne180000]()
263c 3e 501 7
FUNC 267a 2 0 geode::modifier::ModifyBase<geode::modifier::ModifyDerive<hook6<(anonymous namespace)::hook6Parent>, GJItemIcon> >::apply()
267a 2 316 4
PUBLIC 267d 0 __clang_call_terminate
FUNC 2688 4cc 0 _ZN5geode15UnwrapExceptionC2IRPNS_4HookEQsr4implE18IsStringStreamableIT_EEENS_4impl5OkTagEOS5_
2688 12 316 6
269a 39c 315 6
2a36 4c 314 6
2a82 26 316 6
2aa8 8a 315 6
2b32 22 314 6
FUNC 2b54 34 0 std::__ndk1::__throw_bad_variant_access[abi:ne180000]()
2b54 4 285 0
2b58 30 287 0
FUNC 2b88 68 0 std::__ndk1::basic_stringstream<char, std::__ndk1::char_traits<char>, std::__ndk1::allocator<char> >::~basic_stringstream()
2b88 68 1102 8
FUNC 2bf0 10 0 geode::UnwrapException::~UnwrapException()
2bf0 10 325 6
FUNC 2c00 10 0 std::__ndk1::basic_string<char, std::__ndk1::char_traits<char>, std::__ndk1::allocator<char> >::__throw_length_error[abi:ne180000]() const
2c00 4 2118 9
2c04 c 2119 9
FUNC 2c10 38 0 std::__ndk1::__throw_length_error[abi:ne180000](char const*)
2c10 6 239 1
2c16 32 241 1
FUNC 2c48 18 0 std::length_error::length_error[abi:ne180000](char const*)
2c48 18 152 1
FUNC 2c60 28 0 std::__throw_bad_array_new_length([abi:ne180000], void)
2c60 4 172 2
2c64 24 174 2
FUNC 2c88 44 0 std::__ndk1::basic_string<char, std::__ndk1::char_traits<char>, std::__ndk1::allocator<char> >::__init_copy_ctor_external(char const*, unsigned int)
2c88 a 2232 9
2c92 4 2237 9
2c96 8 2239 9
2c9e 6 2241 9
2ca4 e 2243 9
2cb2 8 2247 9
2cba 2 2246 9
2cbc 6 2250 9
2cc2 6 2252 9
2cc8 4 2242 9
FUNC 2ccc 3c 0 std::__ndk1::__split_buffer<std::__ndk1::basic_string<char, std::__ndk1::char_traits<char>, std::__ndk1::allocator<char> >, std::__ndk1::allocator<std::__ndk1::basic_string<char, std::__ndk1::char_traits<char>, std::__ndk1::allocator<char> > >&>::~__split_buffer()
2ccc 6 352 10
2cd2 8 353 10
2cda 4 354 10
2cde 6 355 10
2ce4 4 356 10
2ce8 20 353 10
FUNC 2d08 10 0 std::__ndk1::vector<std::__ndk1::basic_string<char, std::__ndk1::char_traits<char>, std::__ndk1::allocator<char> >, std::__ndk1::allocator<std::__ndk1::basic_string<char, std::__ndk1::char_traits<char>, std::__ndk1::allocator<char> > > >::__throw_length_error[abi:ne180000]() const
2d08 10 940 7
FUNC 2d18 2 0 std::__ndk1::__variant_detail::__visitation::__base::__dispatcher<(unsigned int)0>::__dispatch[abi:ne180000]<std::__ndk1::__variant_detail::__dtor<std::__ndk1::__variant_detail::__traits<geode::Hook*, std::__ndk1::basic_string<char, std::__ndk1::char_traits<char>, std::__ndk1::allocator<char> > >, (std::__ndk1::__variant_detail::_Trait)1>::__destroy[abi:ne180000]()::{lambda(auto:1&)#1}, std::__ndk1::__variant_detail::__base<(std::__ndk1::__variant_detail::__traits<geode::Hook*, std::__ndk1::basic_string<char, std::__ndk1::char_traits<char>, std::__ndk1::allocator<char> > >)1, geode::Hook, std::__ndk1::allocator<char> >&>(std::__ndk1::__variant_detail::__dtor<std::__ndk1::__variant_detail::__traits<geode::Hook*, std::__ndk1::basic_string<char, std::__ndk1::char_traits<char>, std::__ndk1::allocator<char> > >, (std::__ndk1::__variant_detail::_Trait)1>, std::__ndk1::__variant_detail::__base<(std::__ndk1::__variant_detail::__traits<geode::Hook*, std::__ndk1::basic_string<char, std::__ndk1::char_traits<char>, std::__ndk1::allocator<char> > >)1, geode::Hook, std::__ndk1::allocator<char> >&)
2d18 2 526 0
FUNC 2d1a e 0 std::__ndk1::__variant_detail::__visitation::__base::__dispatcher<(unsigned int)1>::__dispatch[abi:ne180000]<std::__ndk1::__variant_detail::__dtor<std::__ndk1::__variant_detail::__traits<geode::Hook*, std::__ndk1::basic_string<char, std::__ndk1::char_traits<char>, std::__ndk1::allocator<char> > >, (std::__ndk1::__variant_detail::_Trait)1>::__destroy[abi:ne180000]()::{lambda(auto:1&)#1}, std::__ndk1::__variant_detail::__base<(std::__ndk1::__variant_detail::__traits<geode::Hook*, std::__ndk1::basic_string<char, std::__ndk1::char_traits<char>, std::__ndk1::allocator<char> > >)1, geode::Hook, std::__ndk1::allocator<char> >&>(std::__ndk1::__variant_detail::__dtor<std::__ndk1::__variant_detail::__traits<geode::Hook*, std::__ndk1::basic_string<char, std::__ndk1::char_traits<char>, std::__ndk1::allocator<char> > >, (std::__ndk1::__variant_detail::_Trait)1>, std::__ndk1::__variant_detail::__base<(std::__ndk1::__variant_detail::__traits<geode::Hook*, std::__ndk1::basic_string<char, std::__ndk1::char_traits<char>, std::__ndk1::allocator<char> > >)1, geode::Hook, std::__ndk1::allocator<char> >&)
2d1a e 526 0
FUNC 2d28 5a 0 std::__ndk1::__tree<std::__ndk1::__value_type<std::__ndk1::basic_string<char, std::__ndk1::char_traits<char>, std::__ndk1::allocator<char> >, std::__ndk1::shared_ptr<geode::Hook> >, std::__ndk1::__map_value_compare<std::__ndk1::basic_string<char, std::__ndk1::char_traits<char>, std::__ndk1::allocator<char> >, std::__ndk1::__value_type<std::__ndk1::basic_string<char, std::__ndk1::char_traits<char>, std::__ndk1::allocator<char> >, std::__ndk1::shared_ptr<geode::Hook> >, std::__ndk1::less<std::__ndk1::basic_string<char, std::__ndk1::char_traits<char>, std::__ndk1::allocator<char> > >, true>, std::__ndk1::allocator<std::__ndk1::__value_type<std::__ndk1::basic_string<char, std::__ndk1::char_traits<char>, std::__ndk1::allocator<char> >, std::__ndk1::shared_ptr<geode::Hook> > > >::destroy(std::__ndk1::__tree_node<std::__ndk1::__value_type<std::__ndk1::basic_string<char, std::__ndk1::char_traits<char>, std::__ndk1::allocator<char> >, std::__ndk1::shared_ptr<geode::Hook> >, void*>*)
2d28 2 1544 11
2d2a a 1551 11
2d34 6 1545 11
2d3a 6 1546 11
2d40 38 1548 11
2d78 a 1549 11
FUNC 2d82 86 0 geode::modifier::AsStaticFunction_changeToLockedState<hook6<(anonymous namespace)::hook6Parent>, void (hook6<(anonymous namespace)::hook6Parent>::*)(float)>::Impl<void (hook6<(anonymous namespace)::hook6Parent>::*)(float)>::function(hook6<(anonymous namespace)::hook6Parent>*, float)
2d82 86 35 3
FUNC 2e08 3a 0 std::__ndk1::shared_ptr<tulip::hook::CallingConvention>::~shared_ptr[abi:ne180000]()
2e08 4 643 5
2e0c 4 644 5
2e10 1a 645 5
2e2a 4 646 5
2e2e 12 645 5
2e40 2 646 5
FUNC 2e42 46 0 tulip::hook::HandlerMetadata::~HandlerMetadata()
2e42 46 12 12
FUNC 2e88 20 0 geodeImplicitEntry
2e88 4 16 13
2e8c 8 18 13
2e94 4 19 13
2e98 a 18 13
2ea2 6 19 13
PUBLIC 2ea9 0 __ThumbV7PILongThunk__ZdlPv
PUBLIC 2ec0 0 <.plt ELF section in techstudent10.hide_locks.android32.so>
STACK CFI INIT 1954 798 .cfa: sp 0 +
STACK CFI 1956 .cfa: sp 20 + .ra: .cfa -4 + ^ r7: .cfa -8 + ^ r6: .cfa -12 + ^ r5: .cfa -16 + ^ r4: .cfa -20 + ^
STACK CFI 1958 .cfa: r7 8 +
STACK CFI 195c r11: .cfa -24 + ^ r10: .cfa -28 + ^ r9: .cfa -32 + ^ r8: .cfa -36 + ^
STACK CFI INIT 20ec 1c .cfa: sp 0 +
STACK CFI 20ee .cfa: sp 16 + .ra: .cfa -4 + ^ r7: .cfa -8 + ^ r6: .cfa -12 + ^ r4: .cfa -16 + ^
STACK CFI 20f0 .cfa: r7 8 +
STACK CFI INIT 2110 490 .cfa: sp 0 +
STACK CFI 2112 .cfa: sp 20 + .ra: .cfa -4 + ^ r7: .cfa -8 + ^ r6: .cfa -12 + ^ r5: .cfa -16 + ^ r4: .cfa -20 + ^
STACK CFI 2114 .cfa: r7 8 +
STACK CFI 2118 r11: .cfa -24 + ^ r10: .cfa -28 + ^ r9: .cfa -32 + ^ r8: .cfa -36 + ^
STACK CFI INIT 25a0 3a .cfa: sp 0 +
STACK CFI 25a2 .cfa: sp 16 + .ra: .cfa -4 + ^ r7: .cfa -8 + ^ r5: .cfa -12 + ^ r4: .cfa -16 + ^
STACK CFI 25a4 .cfa: r7 8 +
STACK CFI INIT 25dc 60 .cfa: sp 0 +
STACK CFI 25de .cfa: sp 16 + .ra: .cfa -4 + ^ r7: .cfa -8 + ^ r6: .cfa -12 + ^ r4: .cfa -16 + ^
STACK CFI 25e0 .cfa: r7 8 +
STACK CFI INIT 263c 3e .cfa: sp 0 +
STACK CFI 263e .cfa: sp 20 + .ra: .cfa -4 + ^ r7: .cfa -8 + ^ r6: .cfa -12 + ^ r5: .cfa -16 + ^ r4: .cfa -20 + ^
STACK CFI 2640 .cfa: r7 8 +
STACK CFI 2644 r11: .cfa -24 + ^
STACK CFI INIT 267a 2 .cfa: sp 0 +
STACK CFI INIT 267c c .cfa: sp 0 +
STACK CFI 267e .cfa: sp 8 + .ra: .cfa -4 + ^ r7: .cfa -8 + ^
STACK CFI 2680 .cfa: r7 8 +
STACK CFI INIT 2688 4cc .cfa: sp 0 +
STACK CFI 268a .cfa: sp 20 + .ra: .cfa -4 + ^ r7: .cfa -8 + ^ r6: .cfa -12 + ^ r5: .cfa -16 + ^ r4: .cfa -20 + ^
STACK CFI 268c .cfa: r7 8 +
STACK CFI 2690 r11: .cfa -24 + ^ r10: .cfa -28 + ^ r9: .cfa -32 + ^ r8: .cfa -36 + ^
STACK CFI INIT 2b54 34 .cfa: sp 0 +
STACK CFI 2b56 .cfa: sp 8 + .ra: .cfa -4 + ^ r7: .cfa -8 + ^
STACK CFI 2b58 .cfa: r7 8 +
STACK CFI INIT 2b88 68 .cfa: sp 0 +
STACK CFI 2b8a .cfa: sp 20 + .ra: .cfa -4 + ^ r7: .cfa -8 + ^ r6: .cfa -12 + ^ r5: .cfa -16 + ^ r4: .cfa -20 + ^
STACK CFI 2b8c .cfa: r7 8 +
STACK CFI 2b90 r11: .cfa -24 + ^
STACK CFI INIT 2bf0 10 .cfa: sp 0 +
STACK CFI 2bf2 .cfa: sp 8 + .ra: .cfa -4 + ^ r7: .cfa -8 + ^
STACK CFI 2bf4 .cfa: r7 8 +
STACK CFI INIT 2c00 10 .cfa: sp 0 +
STACK CFI 2c02 .cfa: sp 8 + .ra: .cfa -4 + ^ r7: .cfa -8 + ^
STACK CFI 2c04 .cfa: r7 8 +
STACK CFI INIT 2c10 38 .cfa: sp 0 +
STACK CFI 2c12 .cfa: sp 16 + .ra: .cfa -4 + ^ r7: .cfa -8 + ^ r5: .cfa -12 + ^ r4: .cfa -16 + ^
STACK CFI 2c14 .cfa: r7 8 +
STACK CFI INIT 2c48 18 .cfa: sp 0 +
STACK CFI 2c4a .cfa: sp 8 + .ra: .cfa -4 + ^ r7: .cfa -8 + ^
STACK CFI 2c4c .cfa: r7 8 +
STACK CFI INIT 2c60 28 .cfa: sp 0 +
STACK CFI 2c62 .cfa: sp 8 + .ra: .cfa -4 + ^ r7: .cfa -8 + ^
STACK CFI 2c64 .cfa: r7 8 +
STACK CFI INIT 2c88 44 .cfa: sp 0 +
STACK CFI 2c8a .cfa: sp 20 + .ra: .cfa -4 + ^ r7: .cfa -8 + ^ r6: .cfa -12 + ^ r5: .cfa -16 + ^ r4: .cfa -20 + ^
STACK CFI 2c8c .cfa: r7 8 +
STACK CFI 2c90 r8: .cfa -24 + ^
STACK CFI INIT 2ccc 3c .cfa: sp 0 +
STACK CFI 2cce .cfa: sp 16 + .ra: .cfa -4 + ^ r7: .cfa -8 + ^ r5: .cfa -12 + ^ r4: .cfa -16 + ^
STACK CFI 2cd0 .cfa: r7 8 +
STACK CFI INIT 2d08 10 .cfa: sp 0 +
STACK CFI 2d0a .cfa: sp 8 + .ra: .cfa -4 + ^ r7: .cfa -8 + ^
STACK CFI 2d0c .cfa: r7 8 +
STACK CFI INIT 2d18 2 .cfa: sp 0 +
STACK CFI INIT 2d1a e .cfa: sp 0 +
STACK CFI INIT 2d28 5a .cfa: sp 0 +
STACK CFI 2d30 .cfa: sp 16 + .ra: .cfa -4 + ^ r7: .cfa -8 + ^ r5: .cfa -12 + ^ r4: .cfa -16 + ^
STACK CFI 2d32 .cfa: r7 8 +
STACK CFI INIT 2d82 86 .cfa: sp 0 +
STACK CFI 2d84 .cfa: sp 20 + .ra: .cfa -4 + ^ r7: .cfa -8 + ^ r6: .cfa -12 + ^ r5: .cfa -16 + ^ r4: .cfa -20 + ^
STACK CFI 2d86 .cfa: r7 8 +
STACK CFI 2d8a r11: .cfa -24 + ^
STACK CFI INIT 2e08 3a .cfa: sp 0 +
STACK CFI 2e0a .cfa: sp 16 + .ra: .cfa -4 + ^ r7: .cfa -8 + ^ r5: .cfa -12 + ^ r4: .cfa -16 + ^
STACK CFI 2e0c .cfa: r7 8 +
STACK CFI INIT 2e42 46 .cfa: sp 0 +
STACK CFI 2e44 .cfa: sp 16 + .ra: .cfa -4 + ^ r7: .cfa -8 + ^ r5: .cfa -12 + ^ r4: .cfa -16 + ^
STACK CFI 2e46 .cfa: r7 8 +
STACK CFI INIT 0 20 .cfa: sp 0 +
STACK CFI 2 .cfa: sp 16 + .ra: .cfa -4 + ^ r7: .cfa -8 + ^ r6: .cfa -12 + ^ r4: .cfa -16 + ^
STACK CFI 4 .cfa: r7 8 +
STACK CFI INIT 2e88 20 .cfa: sp 0 +
STACK CFI 2e8a .cfa: sp 16 + .ra: .cfa -4 + ^ r7: .cfa -8 + ^ r6: .cfa -12 + ^ r4: .cfa -16 + ^
STACK CFI 2e8c .cfa: r7 8 +
