MODULE Linux arm64 7DF28858764931B2A7FF7F5A37DD52060 jumbonova.better_comment_section.android64.so
INFO CODE_ID 5888F27D4976B231A7FF7F5A37DD5206A2D171FA
INFO GENERATOR mozilla/dump_syms 2.3.4
FILE 0 /home/runner/work/Better-Comment-Section-GEODE-MOD-/Better-Comment-Section-GEODE-MOD-/geode-sdk-clone/loader/include/Geode/platform/ItaniumCast.hpp
FILE 1 /usr/local/lib/android/sdk/ndk/28.0.13004108/toolchains/llvm/prebuilt/linux-x86_64/sysroot/usr/include/c++/v1/variant
FILE 2 /usr/local/lib/android/sdk/ndk/28.0.13004108/toolchains/llvm/prebuilt/linux-x86_64/sysroot/usr/include/c++/v1/stdexcept
FILE 3 /usr/local/lib/android/sdk/ndk/28.0.13004108/toolchains/llvm/prebuilt/linux-x86_64/sysroot/usr/include/c++/v1/regex
FILE 4 /usr/local/lib/android/sdk/ndk/28.0.13004108/toolchains/llvm/prebuilt/linux-x86_64/sysroot/usr/include/c++/v1/new
FILE 5 /home/runner/work/Better-Comment-Section-GEODE-MOD-/Better-Comment-Section-GEODE-MOD-/build/bindings/bindings/Geode/modify/CommentCell.hpp
FILE 6 /home/runner/work/Better-Comment-Section-GEODE-MOD-/Better-Comment-Section-GEODE-MOD-/geode-sdk-clone/loader/include/Geode/modify/Modify.hpp
FILE 7 /usr/local/lib/android/sdk/ndk/28.0.13004108/toolchains/llvm/prebuilt/linux-x86_64/sysroot/usr/include/c++/v1/vector
FILE 8 /usr/local/lib/android/sdk/ndk/28.0.13004108/toolchains/llvm/prebuilt/linux-x86_64/sysroot/usr/include/c++/v1/string
FILE 9 /home/runner/work/Better-Comment-Section-GEODE-MOD-/Better-Comment-Section-GEODE-MOD-/cpm-cache/result/28b1b03e0682509636d5e5825265ce2421aac4dc/include/Geode/Result.hpp
FILE 10 /usr/local/lib/android/sdk/ndk/28.0.13004108/toolchains/llvm/prebuilt/linux-x86_64/sysroot/usr/include/c++/v1/__memory/shared_ptr.h
FILE 11 /usr/local/lib/android/sdk/ndk/28.0.13004108/toolchains/llvm/prebuilt/linux-x86_64/sysroot/usr/include/c++/v1/__tree
FILE 12 /home/runner/work/Better-Comment-Section-GEODE-MOD-/Better-Comment-Section-GEODE-MOD-/cpm-cache/tuliphook/727bc6fdab39f84eb52f1519195d5488a312e77e/include/tulip/HandlerData.hpp
FILE 13 /usr/local/lib/android/sdk/ndk/28.0.13004108/toolchains/llvm/prebuilt/linux-x86_64/sysroot/usr/include/c++/v1/sstream
FILE 14 /usr/local/lib/android/sdk/ndk/28.0.13004108/toolchains/llvm/prebuilt/linux-x86_64/sysroot/usr/include/c++/v1/__split_buffer
FILE 15 /home/runner/work/Better-Comment-Section-GEODE-MOD-/Better-Comment-Section-GEODE-MOD-/geode-sdk-clone/loader/include/Geode/modify/Field.hpp
FILE 16 /home/runner/work/Better-Comment-Section-GEODE-MOD-/Better-Comment-Section-GEODE-MOD-/geode-sdk-clone/loader/include/Geode/loader/Mod.hpp
FILE 17 /home/runner/work/Better-Comment-Section-GEODE-MOD-/Better-Comment-Section-GEODE-MOD-/src/main.cpp
FILE 18 /usr/local/lib/android/sdk/ndk/28.0.13004108/toolchains/llvm/prebuilt/linux-x86_64/sysroot/usr/include/c++/v1/__functional/function.h
FILE 19 /usr/local/lib/android/sdk/ndk/28.0.13004108/toolchains/llvm/prebuilt/linux-x86_64/sysroot/usr/include/c++/v1/deque
FILE 20 /usr/local/lib/android/sdk/ndk/28.0.13004108/toolchains/llvm/prebuilt/linux-x86_64/sysroot/usr/include/c++/v1/__utility/pair.h
FILE 21 /home/runner/work/Better-Comment-Section-GEODE-MOD-/Better-Comment-Section-GEODE-MOD-/geode-sdk-clone/entry.cpp
PUBLIC 93c0 0 __on_dlclose
PUBLIC 93d0 0 __emutls_unregister_key
PUBLIC 93d8 0 __on_dlclose_late
PUBLIC 93e0 0 __atexit_handler_wrapper
PUBLIC 93f4 0 atexit
PUBLIC 9410 0 pthread_atfork
PUBLIC 9420 0 __aarch64_ldadd8_relax
PUBLIC 9450 0 init_have_lse_atomics
PUBLIC 94e8 0 __init_cpu_features_constructor
PUBLIC 9794 0 __init_cpu_features
PUBLIC 9820 0 __aarch64_ldadd8_acq_rel
FUNC 9850 920 0 __cxx_global_var_init
9874 8fc 387 6
FUNC a170 18 0 geode::modifier::ModifyBase<geode::modifier::ModifyDerive<hook6<(anonymous namespace)::hook6Parent>, CommentCell> >::~ModifyBase()
a170 18 141 6
FUNC a188 5e8 0 geode::modifier::ModifyDerive<hook6<(anonymous namespace)::hook6Parent>, CommentCell>::apply()
a188 34 176 5
a1bc 4c4 185 5
a680 30 195 5
a6b0 c0 185 5
FUNC a770 50 0 std::__ndk1::shared_ptr<geode::Hook>::~shared_ptr[abi:ne190000]()
a770 c 649 10
a77c 8 650 10
a784 10 651 10
a794 c 652 10
a7a0 20 651 10
FUNC a7c0 74 0 geode::impl::ResultData<geode::Hook*, std::__ndk1::basic_string<char, std::__ndk1::char_traits<char>, std::__ndk1::allocator<char> > >::~ResultData()
a7c0 74 334 9
FUNC a834 7c 0 std::__ndk1::vector<std::__ndk1::basic_string<char, std::__ndk1::char_traits<char>, std::__ndk1::allocator<char> >, std::__ndk1::allocator<std::__ndk1::basic_string<char, std::__ndk1::char_traits<char>, std::__ndk1::allocator<char> > > >::~vector[abi:ne190000]()
a834 7c 502 7
FUNC a8b0 4 0 geode::modifier::ModifyBase<geode::modifier::ModifyDerive<hook6<(anonymous namespace)::hook6Parent>, CommentCell> >::apply()
a8b0 4 357 6
PUBLIC a8b4 0 __clang_call_terminate
FUNC a8c4 708 0 _ZN5geode15UnwrapExceptionC2IRPNS_4HookEQsr4implE18IsStringStreamableIT_EEENS_4impl5OkTagEOS5_
a8c4 24 316 9
a8e8 530 315 9
ae18 4c 314 9
ae64 4 315 9
ae68 10 314 9
ae78 4 315 9
ae7c 4 314 9
ae80 3c 316 9
aebc e8 315 9
afa4 28 314 9
FUNC afcc 34 0 std::__ndk1::__throw_bad_variant_access[abi:ne190000]()
afcc 8 296 1
afd4 2c 298 1
FUNC b000 80 0 std::__ndk1::basic_stringstream<char, std::__ndk1::char_traits<char>, std::__ndk1::allocator<char> >::~basic_stringstream()
b000 80 1271 13
FUNC b080 24 0 geode::UnwrapException::~UnwrapException()
b080 24 325 9
FUNC b0a4 14 0 std::__ndk1::basic_string<char, std::__ndk1::char_traits<char>, std::__ndk1::allocator<char> >::__throw_length_error[abi:ne190000]() const
b0a4 8 2130 8
b0ac c 2131 8
FUNC b0b8 50 0 std::__ndk1::__throw_length_error[abi:ne190000](char const*)
b0b8 10 238 2
b0c8 40 240 2
FUNC b108 30 0 std::length_error::length_error[abi:ne190000](char const*)
b108 30 151 2
FUNC b138 34 0 std::__throw_bad_array_new_length([abi:ne190000], void)
b138 c 172 4
b144 28 174 4
FUNC b16c 84 0 std::__ndk1::basic_string<char, std::__ndk1::char_traits<char>, std::__ndk1::allocator<char> >::__erase_external_with_move(unsigned long, unsigned long)
b16c 14 3132 8
b180 10 3133 8
b190 4 3134 8
b194 4 3133 8
b198 10 3135 8
b1a8 4 3137 8
b1ac 14 3138 8
b1c0 2c 3139 8
b1ec 4 3141 8
FUNC b1f0 48 0 std::__ndk1::__throw_out_of_range[abi:ne190000](char const*)
b1f0 c 246 2
b1fc 3c 248 2
FUNC b238 38 0 std::out_of_range::out_of_range[abi:ne190000](char const*)
b238 38 162 2
FUNC b270 1ac 0 std::__ndk1::vector<std::__ndk1::basic_string<char, std::__ndk1::char_traits<char>, std::__ndk1::allocator<char> >, std::__ndk1::allocator<std::__ndk1::basic_string<char, std::__ndk1::char_traits<char>, std::__ndk1::allocator<char> > > >::__push_back_slow_path<std::__ndk1::basic_string<char, std::__ndk1::char_traits<char>, std::__ndk1::allocator<char> > const&>(std::__ndk1::basic_string<char, std::__ndk1::char_traits<char>, std::__ndk1::allocator<char> > const&)
b270 30 1467 7
b2a0 94 1469 7
b334 4 1471 7
b338 4 1469 7
b33c 24 1471 7
b360 8 1473 7
b368 4 1472 7
b36c 14 1473 7
b380 4 1472 7
b384 10 1473 7
b394 38 1475 7
b3cc 2c 1469 7
b3f8 24 1475 7
FUNC b41c 80 0 std::__ndk1::basic_string<char, std::__ndk1::char_traits<char>, std::__ndk1::allocator<char> >::__init_copy_ctor_external(char const*, unsigned long)
b41c 14 2244 8
b430 8 2249 8
b438 c 2251 8
b444 8 2253 8
b44c 28 2255 8
b474 8 2259 8
b47c 4 2258 8
b480 4 2259 8
b484 14 2262 8
b498 4 2254 8
FUNC b49c 68 0 std::__ndk1::__split_buffer<std::__ndk1::basic_string<char, std::__ndk1::char_traits<char>, std::__ndk1::allocator<char> >, std::__ndk1::allocator<std::__ndk1::basic_string<char, std::__ndk1::char_traits<char>, std::__ndk1::allocator<char> > >&>::~__split_buffer()
b49c c 352 14
b4a8 10 353 14
b4b8 8 354 14
b4c0 c 355 14
b4cc 2c 353 14
b4f8 c 356 14
FUNC b504 14 0 std::__ndk1::vector<std::__ndk1::basic_string<char, std::__ndk1::char_traits<char>, std::__ndk1::allocator<char> >, std::__ndk1::allocator<std::__ndk1::basic_string<char, std::__ndk1::char_traits<char>, std::__ndk1::allocator<char> > > >::__throw_length_error[abi:ne190000]() const
b504 14 941 7
FUNC b518 4 0 std::__ndk1::__variant_detail::__visitation::__base::__dispatcher<(unsigned long)0>::__dispatch[abi:ne190000]<std::__ndk1::__variant_detail::__dtor<std::__ndk1::__variant_detail::__traits<geode::Hook*, std::__ndk1::basic_string<char, std::__ndk1::char_traits<char>, std::__ndk1::allocator<char> > >, (std::__ndk1::__variant_detail::_Trait)1>::__destroy[abi:ne190000]()::{lambda(auto:1&)#1}, std::__ndk1::__variant_detail::__base<(std::__ndk1::__variant_detail::__traits<geode::Hook*, std::__ndk1::basic_string<char, std::__ndk1::char_traits<char>, std::__ndk1::allocator<char> > >)1, geode::Hook, std::__ndk1::allocator<char> >&>(std::__ndk1::__variant_detail::__dtor<std::__ndk1::__variant_detail::__traits<geode::Hook*, std::__ndk1::basic_string<char, std::__ndk1::char_traits<char>, std::__ndk1::allocator<char> > >, (std::__ndk1::__variant_detail::_Trait)1>, std::__ndk1::__variant_detail::__base<(std::__ndk1::__variant_detail::__traits<geode::Hook*, std::__ndk1::basic_string<char, std::__ndk1::char_traits<char>, std::__ndk1::allocator<char> > >)1, geode::Hook, std::__ndk1::allocator<char> >&)
b518 4 536 1
FUNC b51c 14 0 std::__ndk1::__variant_detail::__visitation::__base::__dispatcher<(unsigned long)1>::__dispatch[abi:ne190000]<std::__ndk1::__variant_detail::__dtor<std::__ndk1::__variant_detail::__traits<geode::Hook*, std::__ndk1::basic_string<char, std::__ndk1::char_traits<char>, std::__ndk1::allocator<char> > >, (std::__ndk1::__variant_detail::_Trait)1>::__destroy[abi:ne190000]()::{lambda(auto:1&)#1}, std::__ndk1::__variant_detail::__base<(std::__ndk1::__variant_detail::__traits<geode::Hook*, std::__ndk1::basic_string<char, std::__ndk1::char_traits<char>, std::__ndk1::allocator<char> > >)1, geode::Hook, std::__ndk1::allocator<char> >&>(std::__ndk1::__variant_detail::__dtor<std::__ndk1::__variant_detail::__traits<geode::Hook*, std::__ndk1::basic_string<char, std::__ndk1::char_traits<char>, std::__ndk1::allocator<char> > >, (std::__ndk1::__variant_detail::_Trait)1>, std::__ndk1::__variant_detail::__base<(std::__ndk1::__variant_detail::__traits<geode::Hook*, std::__ndk1::basic_string<char, std::__ndk1::char_traits<char>, std::__ndk1::allocator<char> > >)1, geode::Hook, std::__ndk1::allocator<char> >&)
b51c 14 536 1
FUNC b530 84 0 std::__ndk1::__tree<std::__ndk1::__value_type<std::__ndk1::basic_string<char, std::__ndk1::char_traits<char>, std::__ndk1::allocator<char> >, std::__ndk1::shared_ptr<geode::Hook> >, std::__ndk1::__map_value_compare<std::__ndk1::basic_string<char, std::__ndk1::char_traits<char>, std::__ndk1::allocator<char> >, std::__ndk1::__value_type<std::__ndk1::basic_string<char, std::__ndk1::char_traits<char>, std::__ndk1::allocator<char> >, std::__ndk1::shared_ptr<geode::Hook> >, std::__ndk1::less<std::__ndk1::basic_string<char, std::__ndk1::char_traits<char>, std::__ndk1::allocator<char> > >, true>, std::__ndk1::allocator<std::__ndk1::__value_type<std::__ndk1::basic_string<char, std::__ndk1::char_traits<char>, std::__ndk1::allocator<char> >, std::__ndk1::shared_ptr<geode::Hook> > > >::destroy(std::__ndk1::__tree_node<std::__ndk1::__value_type<std::__ndk1::basic_string<char, std::__ndk1::char_traits<char>, std::__ndk1::allocator<char> >, std::__ndk1::shared_ptr<geode::Hook> >, void*>*)
b530 14 1542 11
b544 8 1543 11
b54c 8 1544 11
b554 28 1546 11
b57c 10 1547 11
b58c 4 1549 11
b590 24 1546 11
FUNC b5b4 6a0 0 geode::modifier::AsStaticFunction_loadFromComment<hook6<(anonymous namespace)::hook6Parent>, void (hook6<(anonymous namespace)::hook6Parent>::*)(GJComment*)>::Impl<void (hook6<(anonymous namespace)::hook6Parent>::*)(GJComment*)>::function(hook6<(anonymous namespace)::hook6Parent>*, GJComment*)
b5b4 6a0 40 5
FUNC bc54 50 0 std::__ndk1::shared_ptr<tulip::hook::CallingConvention>::~shared_ptr[abi:ne190000]()
bc54 c 649 10
bc60 8 650 10
bc68 10 651 10
bc78 c 652 10
bc84 20 651 10
FUNC bca4 64 0 tulip::hook::HandlerMetadata::~HandlerMetadata()
bca4 64 12 12
FUNC bd08 59c 0 geode::modifier::FieldIntermediate<hook6<(anonymous namespace)::hook6Parent>, CommentCell>::operator->()
bd08 24 101 15
bd2c 578 102 15
FUNC c2a4 128 0 geode::Mod::getSettingValue<bool>(std::__ndk1::basic_string_view<char, std::__ndk1::char_traits<char> >) const
c2a4 20 228 16
c2c4 7c 230 16
c340 8 231 16
c348 50 230 16
c398 8 234 16
c3a0 8 230 16
c3a8 24 234 16
FUNC c3cc 738 0 hook6<(anonymous namespace)::hook6Parent>::hideCommentFromText(std::__ndk1::basic_string_view<char, std::__ndk1::char_traits<char> >, std::__ndk1::basic_regex<char, std::__ndk1::regex_traits<char> > const&)
c3cc 24 47 17
c3f0 48 48 17
c438 c 50 17
c444 454 51 17
c898 2c 52 17
c8c4 4 51 17
c8c8 4 53 17
c8cc 120 55 17
c9ec 68 52 17
ca54 4 51 17
ca58 c 57 17
ca64 44 61 17
caa8 14 51 17
cabc 20 55 17
cadc c 48 17
cae8 8 51 17
caf0 8 48 17
caf8 4 51 17
cafc 8 48 17
FUNC cb04 b4 0 std::__ndk1::basic_regex<char, std::__ndk1::regex_traits<char> >::basic_regex[abi:ne190000](char const*, std::__ndk1::regex_constants::syntax_option_type)
cb04 18 2316 3
cb1c 28 2315 3
cb44 4 2316 3
cb48 4 2315 3
cb4c 4 2316 3
cb50 4 2317 3
cb54 c 2316 3
cb60 20 2317 3
cb80 10 2318 3
cb90 8 2317 3
cb98 20 2318 3
FUNC cbb8 50 0 std::__ndk1::basic_regex<char, std::__ndk1::regex_traits<char> >::~basic_regex()
cbb8 50 2264 3
FUNC cc08 14 0 geode::modifier::FieldIntermediate<hook6<(anonymous namespace)::hook6Parent>, CommentCell>::fieldDestructor(void*)
cc08 8 70 15
cc10 4 71 15
cc14 8 70 15
FUNC cc1c 14 0 std::__ndk1::vector<void*, std::__ndk1::allocator<void*> >::__throw_length_error[abi:ne190000]() const
cc1c 14 941 7
FUNC cc30 14 0 std::__ndk1::vector<std::__ndk1::function<void (void*)>, std::__ndk1::allocator<std::__ndk1::function<void (void*)> > >::__throw_length_error[abi:ne190000]() const
cc30 14 941 7
FUNC cc44 c 0 std::__ndk1::vector<void*, std::__ndk1::allocator<void*> >::__throw_out_of_range[abi:ne190000]() const
cc44 c 943 7
FUNC cc50 c 0 std::__ndk1::vector<std::__ndk1::function<void (void*)>, std::__ndk1::allocator<std::__ndk1::function<void (void*)> > >::__throw_out_of_range[abi:ne190000]() const
cc50 c 943 7
FUNC cc5c 4 0 std::__ndk1::__function::__base<void (void*)>::~__base()
cc5c 4 238 18
FUNC cc60 4 0 std::__ndk1::__function::__func<void (*)(void*), std::__ndk1::allocator<void (*)(void*)>, void (void*)>::~__func()
cc60 4 253 18
FUNC cc64 38 0 std::__ndk1::__function::__func<void (*)(void*), std::__ndk1::allocator<void (*)(void*)>, void (void*)>::__clone() const
cc64 10 280 18
cc74 8 285 18
cc7c 14 286 18
cc90 c 288 18
FUNC cc9c 18 0 std::__ndk1::__function::__func<void (*)(void*), std::__ndk1::allocator<void (*)(void*)>, void (void*)>::__clone(std::__ndk1::__function::__base<void (void*)>*) const
cc9c 14 292 18
ccb0 4 293 18
FUNC ccb4 4 0 std::__ndk1::__function::__func<void (*)(void*), std::__ndk1::allocator<void (*)(void*)>, void (void*)>::destroy()
ccb4 4 298 18
FUNC ccb8 4 0 std::__ndk1::__function::__func<void (*)(void*), std::__ndk1::allocator<void (*)(void*)>, void (void*)>::destroy_deallocate()
ccb8 4 306 18
FUNC ccbc 10 0 std::__ndk1::__function::__func<void (*)(void*), std::__ndk1::allocator<void (*)(void*)>, void (void*)>::operator()(void*&&)
ccbc 10 311 18
FUNC cccc 1c 0 std::__ndk1::__function::__func<void (*)(void*), std::__ndk1::allocator<void (*)(void*)>, void (void*)>::target(std::type_info const&) const
cccc 18 318 18
cce4 4 321 18
FUNC cce8 c 0 std::__ndk1::__function::__func<void (*)(void*), std::__ndk1::allocator<void (*)(void*)>, void (void*)>::target_type() const
cce8 c 325 18
FUNC ccf4 140 0 std::__ndk1::basic_string<char, std::__ndk1::char_traits<char>, std::__ndk1::allocator<char> >::__assign_external(char const*, unsigned long)
ccf4 18 2483 8
cd0c 1c 2484 8
cd28 4 2485 8
cd2c 8 2484 8
cd34 c 2485 8
cd40 48 2494 8
cd88 c 2489 8
cd94 10 2490 8
cda4 20 2491 8
cdc4 4c 2494 8
ce10 20 2497 8
ce30 4 2494 8
FUNC ce34 d8 0 geode::cast::traverseTypeinfoFor(void*, geode::cast::ClassTypeinfoType const*, char const*)
ce34 14 57 0
ce48 c 59 0
ce54 1c 60 0
ce70 4 64 0
ce74 4 65 0
ce78 8 64 0
ce80 c 65 0
ce8c 4 67 0
ce90 4 60 0
ce94 4 59 0
ce98 c 60 0
cea4 18 69 0
cebc 18 80 0
ced4 c 71 0
cee0 4 73 0
cee4 4 74 0
cee8 4 73 0
ceec 8 74 0
cef4 18 71 0
FUNC cf0c 1c4 0 std::__ndk1::vector<std::__ndk1::sub_match<char const*>, std::__ndk1::allocator<std::__ndk1::sub_match<char const*> > >::assign(unsigned long, std::__ndk1::sub_match<char const*> const&)
cf0c 10 1369 7
cf1c 34 1370 7
cf50 20 1378 7
cf70 4c 1379 7
cfbc 4 1380 7
cfc0 c 1379 7
cfcc 28 1380 7
cff4 10 1371 7
d004 70 1372 7
d074 c 1373 7
d080 34 1374 7
d0b4 8 1376 7
d0bc 10 1382 7
d0cc 4 1379 7
FUNC d0d0 440 0 std::__ndk1::basic_regex<char, std::__ndk1::regex_traits<char> >::__match_at_start_ecma<std::__ndk1::allocator<std::__ndk1::sub_match<char const*> > >(char const*, char const*, std::__ndk1::match_results<char const*, std::__ndk1::allocator<std::__ndk1::sub_match<char const*> > >&, std::__ndk1::regex_constants::match_flag_type, bool) const
d0d0 2c 4846 3
d0fc 4 4848 3
d100 8 4847 3
d108 4 4849 3
d10c 1c 4855 3
d128 4 4851 3
d12c 4 4853 3
d130 48 4855 3
d178 10 4860 3
d188 4 4856 3
d18c 4 4857 3
d190 4 4860 3
d194 4 4859 3
d198 38 4860 3
d1d0 30 4861 3
d200 8 4862 3
d208 c 4866 3
d214 4 4863 3
d218 8 4864 3
d220 c 4874 3
d22c 10 4907 3
d23c 14 4869 3
d250 4 4872 3
d254 4 4871 3
d258 4 4872 3
d25c 10 4873 3
d26c 34 4874 3
d2a0 3c 4876 3
d2dc c 4895 3
d2e8 18 4896 3
d300 18 4897 3
d318 78 4898 3
d390 4 4899 3
d394 4 4898 3
d398 28 4899 3
d3c0 74 4910 3
d434 c 4884 3
d440 c 4886 3
d44c 20 4887 3
d46c 8 4888 3
d474 8 4887 3
d47c c 4888 3
d488 4 4887 3
d48c 10 4910 3
d49c 14 4870 3
d4b0 3c 4904 3
d4ec 24 4910 3
FUNC d510 ce0 0 std::__ndk1::basic_regex<char, std::__ndk1::regex_traits<char> >::__match_at_start_posix_nosubs<std::__ndk1::allocator<std::__ndk1::sub_match<char const*> > >(char const*, char const*, std::__ndk1::match_results<char const*, std::__ndk1::allocator<std::__ndk1::sub_match<char const*> > >&, std::__ndk1::regex_constants::match_flag_type, bool) const
d510 28 4919 3
d538 c 4920 3
d544 4 4923 3
d548 8 4920 3
d550 1c 4924 3
d56c 9c 4925 3
d608 8 4926 3
d610 4 4925 3
d614 4 4926 3
d618 4 4925 3
d61c 1c 4926 3
d638 4 4930 3
d63c 8 4926 3
d644 4 4927 3
d648 c 4928 3
d654 c 4929 3
d660 20 4930 3
d680 c 4931 3
d68c c 4930 3
d698 48 4931 3
d6e0 28 4932 3
d708 8 4933 3
d710 14 4944 3
d724 14 4984 3
d738 4 4938 3
d73c 18 4939 3
d754 2c 4941 3
d780 c 4942 3
d78c 10 4943 3
d79c 40 4944 3
d7dc 1c 4965 3
d7f8 c4 4946 3
d8bc c 4972 3
d8c8 30 4973 3
d8f8 18 4974 3
d910 c4 4975 3
d9d4 4 4976 3
d9d8 8 4975 3
d9e0 4c 4976 3
da2c 14 4954 3
da40 8 4957 3
da48 a0 4958 3
dae8 50 4965 3
db38 ac 4960 3
dbe4 38 4965 3
dc1c 64 4958 3
dc80 48 4965 3
dcc8 18 4958 3
dce0 180 4965 3
de60 4 4966 3
de64 4 4965 3
de68 8 4966 3
de70 4 4965 3
de74 38 4966 3
deac 158 4965 3
e004 8 4985 3
e00c 8 4986 3
e014 4 4987 3
e018 4 4988 3
e01c c 4986 3
e028 d8 4993 3
e100 18 4940 3
e118 18 4981 3
e130 98 4965 3
e1c8 28 4993 3
FUNC e1f0 9c8 0 std::__ndk1::basic_regex<char, std::__ndk1::regex_traits<char> >::__match_at_start_posix_subs<std::__ndk1::allocator<std::__ndk1::sub_match<char const*> > >(char const*, char const*, std::__ndk1::match_results<char const*, std::__ndk1::allocator<std::__ndk1::sub_match<char const*> > >&, std::__ndk1::regex_constants::match_flag_type, bool) const
e1f0 24 5002 3
e214 18 5004 3
e22c 4 5007 3
e230 8 5003 3
e238 1c 5004 3
e254 14 5008 3
e268 4 5010 3
e26c 4 5012 3
e270 44 5014 3
e2b4 10 5019 3
e2c4 4 5015 3
e2c8 4 5018 3
e2cc 10 5019 3
e2dc 4 5016 3
e2e0 1c 5019 3
e2fc c 5082 3
e308 10 5019 3
e318 34 5020 3
e34c 20 5021 3
e36c 4 5023 3
e370 8 5022 3
e378 c 5034 3
e384 c 5071 3
e390 4 5028 3
e394 14 5029 3
e3a8 8 5032 3
e3b0 4 5031 3
e3b4 4 5032 3
e3b8 10 5033 3
e3c8 38 5034 3
e400 40 5036 3
e440 c 5059 3
e44c 18 5060 3
e464 18 5061 3
e47c 80 5062 3
e4fc 8 5044 3
e504 f4 5046 3
e5f8 10 5062 3
e608 4 5063 3
e60c 4 5062 3
e610 20 5063 3
e630 234 5046 3
e864 8 5049 3
e86c 38 5050 3
e8a4 30 5052 3
e8d4 10 5050 3
e8e4 140 5046 3
ea24 10 5072 3
ea34 4 5074 3
ea38 10 5073 3
ea48 4 5075 3
ea4c 20 5076 3
ea6c 8 5077 3
ea74 8 5076 3
ea7c c 5077 3
ea88 8 5076 3
ea90 70 5082 3
eb00 18 5030 3
eb18 18 5068 3
eb30 58 5046 3
eb88 30 5082 3
FUNC ebb8 44 0 std::__ndk1::__state<char>::~__state()
ebb8 44 1311 3
FUNC ebfc 4c 0 std::__ndk1::__throw_regex_error[abi:ne190000]<(std::__ndk1::regex_constants::error_type)12>()
ebfc c 987 3
ec08 40 989 3
FUNC ec48 170 0 std::__ndk1::__state<char>::__state(std::__ndk1::__state<char> const&)
ec48 170 1311 3
FUNC edb8 4c 0 std::__ndk1::__throw_regex_error[abi:ne190000]<(std::__ndk1::regex_constants::error_type)16>()
edb8 c 987 3
edc4 40 989 3
FUNC ee04 88 0 std::__ndk1::vector<std::__ndk1::__state<char>, std::__ndk1::allocator<std::__ndk1::__state<char> > >::~vector[abi:ne190000]()
ee04 88 502 7
FUNC ee8c 1cc 0 std::__ndk1::vector<std::__ndk1::__state<char>, std::__ndk1::allocator<std::__ndk1::__state<char> > >::__push_back_slow_path<std::__ndk1::__state<char> >(std::__ndk1::__state<char>&&)
ee8c 14 1467 7
eea0 84 1469 7
ef24 4 1471 7
ef28 8 1469 7
ef30 8 1471 7
ef38 8 1469 7
ef40 24 1471 7
ef64 4 1472 7
ef68 4 1473 7
ef6c c 1471 7
ef78 b4 1473 7
f02c 24 1475 7
f050 8 1469 7
FUNC f058 14 0 std::__ndk1::vector<std::__ndk1::__state<char>, std::__ndk1::allocator<std::__ndk1::__state<char> > >::__throw_length_error[abi:ne190000]() const
f058 14 941 7
FUNC f06c 188 0 std::__ndk1::vector<std::__ndk1::sub_match<char const*>, std::__ndk1::allocator<std::__ndk1::sub_match<char const*> > >::__append(unsigned long, std::__ndk1::sub_match<char const*> const&)
f06c 14 1124 7
f080 24 1125 7
f0a4 80 1129 7
f124 40 1126 7
f164 4 1130 7
f168 4 1129 7
f16c 28 1130 7
f194 4 1129 7
f198 10 1131 7
f1a8 4 1129 7
f1ac 10 1131 7
f1bc 1c 1132 7
f1d8 14 1133 7
f1ec 8 1129 7
FUNC f1f4 14 0 std::__ndk1::vector<std::__ndk1::sub_match<char const*>, std::__ndk1::allocator<std::__ndk1::sub_match<char const*> > >::__throw_length_error[abi:ne190000]() const
f1f4 14 941 7
FUNC f208 128 0 std::__ndk1::vector<std::__ndk1::pair<unsigned long, char const*>, std::__ndk1::allocator<std::__ndk1::pair<unsigned long, char const*> > >::__append(unsigned long)
f208 18 1108 7
f220 14 1109 7
f234 5c 1113 7
f290 28 1110 7
f2b8 8 1113 7
f2c0 14 1114 7
f2d4 c 1115 7
f2e0 4 1114 7
f2e4 c 1115 7
f2f0 20 1116 7
f310 18 1117 7
f328 8 1113 7
FUNC f330 14 0 std::__ndk1::vector<std::__ndk1::pair<unsigned long, char const*>, std::__ndk1::allocator<std::__ndk1::pair<unsigned long, char const*> > >::__throw_length_error[abi:ne190000]() const
f330 14 941 7
FUNC f344 1b4 0 std::__ndk1::deque<std::__ndk1::__state<char>, std::__ndk1::allocator<std::__ndk1::__state<char> > >::~deque[abi:ne190000]()
f344 18 564 19
f35c 12c 565 19
f488 8 569 19
f490 8 570 19
f498 8 569 19
f4a0 58 571 19
FUNC f4f8 5b4 0 std::__ndk1::deque<std::__ndk1::__state<char>, std::__ndk1::allocator<std::__ndk1::__state<char> > >::__add_back_capacity()
f4f8 30 2140 19
f528 c 2142 19
f534 4 2144 19
f538 4 2146 19
f53c 4 2143 19
f540 4 2144 19
f544 4 2146 19
f548 4 2144 19
f54c 4 2145 19
f550 58 2146 19
f5a8 18 2149 19
f5c0 4 2155 19
f5c4 8 2152 19
f5cc 18 2153 19
f5e4 c 2166 19
f5f0 18 2165 19
f608 8 2169 19
f610 2c 2170 19
f63c 54 2146 19
f690 14 2155 19
f6a4 4 2157 19
f6a8 4 2159 19
f6ac 4 2157 19
f6b0 4 2159 19
f6b4 4 2157 19
f6b8 4 2158 19
f6bc 64 2159 19
f720 30 2170 19
f750 c 2173 19
f75c 4 2170 19
f760 4 2173 19
f764 4 2170 19
f768 4 2173 19
f76c 8 2175 19
f774 4 2177 19
f778 34 2180 19
f7ac 18 2174 19
f7c4 c 2173 19
f7d0 120 2174 19
f8f0 94 2146 19
f984 30 2181 19
f9b4 74 2159 19
fa28 28 2174 19
fa50 18 2170 19
fa68 44 2180 19
FUNC faac 188 0 std::__ndk1::__split_buffer<std::__ndk1::__state<char>*, std::__ndk1::allocator<std::__ndk1::__state<char>*> >::push_back(std::__ndk1::__state<char>*&&)
faac 18 521 14
fac4 14 522 14
fad8 c 523 14
fae4 4 524 14
fae8 c 525 14
faf4 4 526 14
faf8 4 525 14
fafc 4 526 14
fb00 4 525 14
fb04 14 526 14
fb18 8 527 14
fb20 c 526 14
fb2c c 529 14
fb38 1c 530 14
fb54 4 531 14
fb58 8 530 14
fb60 8c 531 14
fbec 4 532 14
fbf0 4 534 14
fbf4 c 536 14
fc00 c 538 14
fc0c c 539 14
fc18 18 540 14
fc30 4 530 14
FUNC fc34 18c 0 std::__ndk1::__split_buffer<std::__ndk1::__state<char>*, std::__ndk1::allocator<std::__ndk1::__state<char>*> >::push_front(std::__ndk1::__state<char>*&&)
fc34 14 476 14
fc48 1c 477 14
fc64 c 478 14
fc70 8 479 14
fc78 c 480 14
fc84 4 481 14
fc88 4 480 14
fc8c 1c 481 14
fca8 8 482 14
fcb0 8 481 14
fcb8 c 484 14
fcc4 1c 485 14
fce0 4 486 14
fce4 c 485 14
fcf0 8c 486 14
fd7c 4 487 14
fd80 4 489 14
fd84 c 491 14
fd90 c 493 14
fd9c c 494 14
fda8 14 495 14
fdbc 4 485 14
FUNC fdc0 18c 0 std::__ndk1::__split_buffer<std::__ndk1::__state<char>*, std::__ndk1::allocator<std::__ndk1::__state<char>*> >::push_front(std::__ndk1::__state<char>* const&)
fdc0 14 454 14
fdd4 1c 455 14
fdf0 c 456 14
fdfc 8 457 14
fe04 c 458 14
fe10 4 459 14
fe14 4 458 14
fe18 1c 459 14
fe34 8 460 14
fe3c 8 459 14
fe44 c 462 14
fe50 1c 463 14
fe6c 4 464 14
fe70 c 463 14
fe7c 8c 464 14
ff08 4 465 14
ff0c 4 467 14
ff10 c 469 14
ff1c c 471 14
ff28 c 472 14
ff34 14 473 14
ff48 4 463 14
FUNC ff4c 14 0 std::__ndk1::vector<std::__ndk1::sub_match<std::__ndk1::__wrap_iter<char const*> >, std::__ndk1::allocator<std::__ndk1::sub_match<std::__ndk1::__wrap_iter<char const*> > > >::__throw_length_error[abi:ne190000]() const
ff4c 14 941 7
FUNC ff60 50 0 std::__ndk1::shared_ptr<std::__ndk1::__empty_state<char> >::~shared_ptr[abi:ne190000]()
ff60 c 649 10
ff6c 8 650 10
ff74 10 651 10
ff84 c 652 10
ff90 20 651 10
FUNC ffb0 690 0 std::__ndk1::basic_regex<char, std::__ndk1::regex_traits<char> >::__parse<char const*>(char const*, char const*)
ffb0 24 2750 3
ffd4 24 2752 3
fff8 6c 2753 3
10064 4 2757 3
10068 4 2755 3
1006c 4 2757 3
10070 4 2755 3
10074 38 2757 3
100ac 34 2772 3
100e0 2c 2766 3
1010c 2c 2762 3
10138 48 2769 3
10180 1f8 2759 3
10378 12c 2769 3
104a4 130 2772 3
105d4 24 2777 3
105f8 4 2775 3
105fc 24 2753 3
10620 20 2756 3
FUNC 10640 4c 0 std::__ndk1::__throw_regex_error[abi:ne190000]<(std::__ndk1::regex_constants::error_type)17>()
10640 c 987 3
1064c 40 989 3
FUNC 1068c 270 0 std::__ndk1::basic_regex<char, std::__ndk1::regex_traits<char> >::__parse_ecma_exp<char const*>(char const*, char const*)
1068c 20 3604 3
106ac 24 3605 3
106d0 5c 3606 3
1072c 8 3607 3
10734 34 3608 3
10768 34 3610 3
1079c 8 3613 3
107a4 60 3615 3
10804 4 3610 3
10808 14 3615 3
1081c 10 3610 3
1082c 4 3611 3
10830 74 3612 3
108a4 34 3614 3
108d8 24 3618 3
FUNC 108fc 180 0 std::__ndk1::basic_regex<char, std::__ndk1::regex_traits<char> >::__parse_basic_reg_exp<char const*>(char const*, char const*)
108fc 18 2783 3
10914 8 2784 3
1091c 14 2785 3
10930 24 2786 3
10954 4 2787 3
10958 30 2786 3
10988 20 2789 3
109a8 54 2790 3
109fc 4 2792 3
10a00 14 2793 3
10a14 4c 2794 3
10a60 18 2802 3
10a78 4 2800 3
FUNC 10a7c 174 0 std::__ndk1::basic_regex<char, std::__ndk1::regex_traits<char> >::__parse_extended_reg_exp<char const*>(char const*, char const*)
10a7c 1c 2808 3
10a98 10 2809 3
10aa8 28 2810 3
10ad0 8 2811 3
10ad8 38 2814 3
10b10 4 2816 3
10b14 4 2815 3
10b18 34 2816 3
10b4c 8 2817 3
10b54 54 2819 3
10ba8 4 2814 3
10bac 14 2819 3
10bc0 c 2814 3
10bcc 24 2822 3
FUNC 10bf0 4c 0 std::__ndk1::__throw_regex_error[abi:ne190000]<(std::__ndk1::regex_constants::error_type)14>()
10bf0 c 987 3
10bfc 40 989 3
FUNC 10c3c 4 0 std::__ndk1::__end_state<char>::~__end_state()
10c3c 4 1368 3
FUNC 10c40 c 0 std::__ndk1::__end_state<char>::__exec(std::__ndk1::__state<char>&) const
10c40 4 1378 3
10c44 4 1379 3
10c48 4 1380 3
FUNC 10c4c 4 0 std::__ndk1::__node<char>::__exec_split(bool, std::__ndk1::__state<char>&) const
10c4c 4 1362 3
FUNC 10c50 4 0 std::__ndk1::__node<char>::__exec(std::__ndk1::__state<char>&) const
10c50 4 1360 3
FUNC 10c54 24 0 std::__ndk1::__shared_ptr_pointer<std::__ndk1::__empty_state<char>*, std::__ndk1::shared_ptr<std::__ndk1::__empty_state<char> >::__shared_ptr_default_delete<std::__ndk1::__empty_state<char>, std::__ndk1::__empty_state<char> >, std::__ndk1::allocator<std::__ndk1::__empty_state<char> > >::~__shared_ptr_pointer()
10c54 24 201 10
FUNC 10c78 18 0 std::__ndk1::__shared_ptr_pointer<std::__ndk1::__empty_state<char>*, std::__ndk1::shared_ptr<std::__ndk1::__empty_state<char> >::__shared_ptr_default_delete<std::__ndk1::__empty_state<char>, std::__ndk1::__empty_state<char> >, std::__ndk1::allocator<std::__ndk1::__empty_state<char> > >::__on_zero_shared()
10c78 14 228 10
10c8c 4 230 10
FUNC 10c90 1c 0 std::__ndk1::__shared_ptr_pointer<std::__ndk1::__empty_state<char>*, std::__ndk1::shared_ptr<std::__ndk1::__empty_state<char> >::__shared_ptr_default_delete<std::__ndk1::__empty_state<char>, std::__ndk1::__empty_state<char> >, std::__ndk1::allocator<std::__ndk1::__empty_state<char> > >::__get_deleter(std::type_info const&) const
10c90 1c 221 10
FUNC 10cac 4 0 std::__ndk1::__shared_ptr_pointer<std::__ndk1::__empty_state<char>*, std::__ndk1::shared_ptr<std::__ndk1::__empty_state<char> >::__shared_ptr_default_delete<std::__ndk1::__empty_state<char>, std::__ndk1::__empty_state<char> >, std::__ndk1::allocator<std::__ndk1::__empty_state<char> > >::__on_zero_shared_weak()
10cac 4 240 10
FUNC 10cb0 48 0 std::__ndk1::__empty_state<char>::~__empty_state()
10cb0 48 1415 3
FUNC 10cf8 14 0 std::__ndk1::__empty_state<char>::__exec(std::__ndk1::__state<char>&) const
10cf8 8 1429 3
10d00 4 1428 3
10d04 4 1429 3
10d08 4 1430 3
FUNC 10d0c 48 0 std::__ndk1::__owns_one_state<char>::~__owns_one_state()
10d0c 48 1408 3
FUNC 10d54 364 0 std::__ndk1::basic_regex<char, std::__ndk1::regex_traits<char> >::__parse_assertion<char const*>(char const*, char const*)
10d54 20 3650 3
10d74 c 3651 3
10d80 1c 3652 3
10d9c 4 3674 3
10da0 14 3675 3
10db4 c 3676 3
10dc0 18 3677 3
10dd8 10 3679 3
10de8 c 3680 3
10df4 14 3681 3
10e08 c 3682 3
10e14 10 3683 3
10e24 4 3684 3
10e28 4 3685 3
10e2c 8 3684 3
10e34 10 3685 3
10e44 14 3686 3
10e58 14 3652 3
10e6c 2c 3654 3
10e98 54 3658 3
10eec 2c 3706 3
10f18 4 3662 3
10f1c 8 3663 3
10f24 18 3664 3
10f3c 50 3665 3
10f8c 64 3668 3
10ff0 10 3690 3
11000 c 3691 3
1100c 14 3692 3
11020 c 3693 3
1102c 10 3694 3
1103c 4 3695 3
11040 4 3696 3
11044 8 3695 3
1104c 24 3696 3
11070 48 3697 3
FUNC 110b8 580 0 std::__ndk1::basic_regex<char, std::__ndk1::regex_traits<char> >::__parse_atom<char const*>(char const*, char const*)
110b8 14 3711 3
110cc 8 3712 3
110d4 28 3713 3
110fc 30 3715 3
1112c 4 3716 3
11130 34 3715 3
11164 2c 3719 3
11190 10 3713 3
111a0 4 3725 3
111a4 8 3726 3
111ac 4 3728 3
111b0 20 3729 3
111d0 4 3730 3
111d4 8 3731 3
111dc c 3730 3
111e8 4 3731 3
111ec 20 3732 3
1120c 14 3759 3
11220 64 3737 3
11284 4 3738 3
11288 4 3739 3
1128c 8 3740 3
11294 10 3739 3
112a4 4 3740 3
112a8 18 3741 3
112c0 50 3743 3
11310 70 3719 3
11380 20 3713 3
113a0 14 3722 3
113b4 c 3713 3
113c0 18 3755 3
113d8 228 3719 3
11600 8 3752 3
11608 30 3719 3
FUNC 11638 360 0 std::__ndk1::basic_regex<char, std::__ndk1::regex_traits<char> >::__parse_ERE_dupl_symbol<char const*>(char const*, char const*, std::__ndk1::__owns_one_state<char>*, unsigned int, unsigned int)
11638 c 3195 3
11644 8 3196 3
1164c 4 3198 3
11650 4 3197 3
11654 4 3198 3
11658 4 3197 3
1165c 14 3198 3
11670 4 3208 3
11674 18 3209 3
1168c 4 3210 3
11690 10 3211 3
116a0 10 3198 3
116b0 80 3225 3
11730 8 3226 3
11738 8 3229 3
11740 14 3231 3
11754 4 3233 3
11758 18 3234 3
11770 4 3236 3
11774 4 3235 3
11778 18 3236 3
11790 4 3200 3
11794 18 3201 3
117ac 4 3202 3
117b0 14 3203 3
117c4 4 3216 3
117c8 18 3217 3
117e0 4 3218 3
117e4 18 3219 3
117fc 10 3213 3
1180c 14 3205 3
11820 14 3221 3
11834 4 3241 3
11838 8 3242 3
11840 c 3244 3
1184c 4 3245 3
11850 18 3246 3
11868 4 3248 3
1186c 4 3247 3
11870 c 3248 3
1187c 14 3238 3
11890 70 3253 3
11900 8 3254 3
11908 14 3257 3
1191c c 3260 3
11928 18 3262 3
11940 8 3264 3
11948 4 3263 3
1194c c 3264 3
11958 10 3250 3
11968 18 3266 3
11980 18 3275 3
FUNC 11998 6c 0 std::__ndk1::basic_regex<char, std::__ndk1::regex_traits<char> >::basic_regex[abi:ne190000]()
11998 10 2314 3
119a8 28 2309 3
119d0 4 2311 3
119d4 4 2309 3
119d8 c 2311 3
119e4 10 2314 3
119f4 10 2309 3
FUNC 11a04 b4 0 std::__ndk1::basic_regex<char, std::__ndk1::regex_traits<char> >::__push_lookahead(std::__ndk1::basic_regex<char, std::__ndk1::regex_traits<char> > const&, bool, unsigned int)
11a04 18 4177 3
11a1c 78 4178 3
11a94 4 4179 3
11a98 4 4178 3
11a9c 8 4179 3
11aa4 14 4180 3
FUNC 11ab8 4c 0 std::__ndk1::__throw_regex_error[abi:ne190000]<(std::__ndk1::regex_constants::error_type)6>()
11ab8 c 987 3
11ac4 40 989 3
FUNC 11b04 48 0 std::__ndk1::__l_anchor_multiline<char>::~__l_anchor_multiline()
11b04 48 1842 3
FUNC 11b4c 60 0 std::__ndk1::__l_anchor_multiline<char>::__exec(std::__ndk1::__state<char>&) const
11b4c 20 1858 3
11b6c 3c 1861 3
11ba8 4 1868 3
FUNC 11bac 48 0 std::__ndk1::__r_anchor_multiline<char>::~__r_anchor_multiline()
11bac 48 1873 3
FUNC 11bf4 50 0 std::__ndk1::__r_anchor_multiline<char>::__exec(std::__ndk1::__state<char>&) const
11bf4 14 1889 3
11c08 38 1892 3
11c40 4 1899 3
FUNC 11c44 5c 0 std::__ndk1::__word_boundary<char, std::__ndk1::regex_traits<char> >::~__word_boundary()
11c44 5c 1788 3
FUNC 11ca0 58 0 std::__ndk1::__word_boundary<char, std::__ndk1::regex_traits<char> >::~__word_boundary()
11ca0 58 1788 3
FUNC 11cf8 110 0 std::__ndk1::__word_boundary<char, std::__ndk1::regex_traits<char> >::__exec(std::__ndk1::__state<char>&) const
11cf8 10 1806 3
11d08 c 1807 3
11d14 10 1812 3
11d24 4 1813 3
11d28 4 1814 3
11d2c c 1815 3
11d38 4 1818 3
11d3c 4 1819 3
11d40 24 1820 3
11d64 c 1821 3
11d70 8 1808 3
11d78 4 1809 3
11d7c 34 1810 3
11db0 2c 1821 3
11ddc 8 1822 3
11de4 20 1825 3
11e04 4 1832 3
FUNC 11e08 90 0 std::__ndk1::__lookahead<char, std::__ndk1::regex_traits<char> >::~__lookahead()
11e08 90 2696 3
FUNC 11e98 8c 0 std::__ndk1::__lookahead<char, std::__ndk1::regex_traits<char> >::~__lookahead()
11e98 8c 2696 3
FUNC 11f24 1d0 0 std::__ndk1::__lookahead<char, std::__ndk1::regex_traits<char> >::__exec(std::__ndk1::__state<char>&) const
11f24 28 2717 3
11f4c 8 2719 3
11f54 4 2718 3
11f58 4 2719 3
11f5c 1c 2718 3
11f78 18 2719 3
11f90 8 2721 3
11f98 8 2719 3
11fa0 4 2722 3
11fa4 4 2719 3
11fa8 4 2725 3
11fac 4 2719 3
11fb0 4 2724 3
11fb4 4 2725 3
11fb8 8 2719 3
11fc0 4 2724 3
11fc4 4 2719 3
11fc8 4 2725 3
11fcc 8 2719 3
11fd4 4 2720 3
11fd8 4 2724 3
11fdc 4 2720 3
11fe0 10 2726 3
11ff0 8 2736 3
11ff8 4 2734 3
11ffc 14 2733 3
12010 18 2728 3
12028 4 2727 3
1202c 1c 2729 3
12048 c 2730 3
12054 c 2729 3
12060 10 2730 3
12070 8 2729 3
12078 7c 2736 3
FUNC 120f4 f2c 0 std::__ndk1::basic_regex<char, std::__ndk1::regex_traits<char> >::__parse_bracket_expression<char const*>(char const*, char const*)
120f4 28 3281 3
1211c 18 3282 3
12134 8 3283 3
1213c 8 3284 3
12144 8 3287 3
1214c 4 3291 3
12150 10 3287 3
12160 30 3291 3
12190 4 3293 3
12194 8 3291 3
1219c 4 3293 3
121a0 18 3295 3
121b8 c 3296 3
121c4 4 3297 3
121c8 b8c 3299 3
12d54 c 3302 3
12d60 c 3303 3
12d6c 4 3304 3
12d70 18 3306 3
12d88 4 3308 3
12d8c 38 3310 3
12dc4 174 3299 3
12f38 10 3291 3
12f48 d8 3299 3
FUNC 13020 4c 0 std::__ndk1::__throw_regex_error[abi:ne190000]<(std::__ndk1::regex_constants::error_type)11>()
13020 c 987 3
1302c 40 989 3
FUNC 1306c 48 0 std::__ndk1::__match_any_but_newline<char>::~__match_any_but_newline()
1306c 48 1930 3
FUNC 130b4 4c 0 std::__ndk1::__throw_regex_error[abi:ne190000]<(std::__ndk1::regex_constants::error_type)3>()
130b4 c 987 3
130c0 40 989 3
FUNC 13100 468 0 std::__ndk1::basic_regex<char, std::__ndk1::regex_traits<char> >::__parse_character_escape<char const*>(char const*, char const*, std::__ndk1::basic_string<char, std::__ndk1::char_traits<char>, std::__ndk1::allocator<char> >*)
13100 c 3857 3
1310c 8 3858 3
13114 4c 3862 3
13160 c 3899 3
1316c 1c 3900 3
13188 4 3901 3
1318c 18 3902 3
131a4 10 3862 3
131b4 4 3885 3
131b8 18 3886 3
131d0 10 3862 3
131e0 4 3871 3
131e4 18 3872 3
131fc 4 3878 3
13200 18 3879 3
13218 4 3892 3
1321c 18 3893 3
13234 4 3949 3
13238 1c 3950 3
13254 4 3912 3
13258 8 3913 3
13260 34 3915 3
13294 4 3919 3
13298 8 3920 3
132a0 3c 3922 3
132dc 8 3934 3
132e4 4 3928 3
132e8 8 3929 3
132f0 34 3931 3
13324 4 3935 3
13328 8 3936 3
13330 40 3938 3
13370 4 3941 3
13374 4 3942 3
13378 18 3943 3
13390 4 3864 3
13394 1c 3865 3
133b0 c 3945 3
133bc 8 3946 3
133c4 10 3943 3
133d4 4 3946 3
133d8 c 3943 3
133e4 c 3881 3
133f0 c 3895 3
133fc c 3888 3
13408 c 3952 3
13414 c 3867 3
13420 c 3874 3
1342c c 3904 3
13438 8 3905 3
13440 18 3879 3
13458 18 3893 3
13470 18 3886 3
13488 14 3950 3
1349c 18 3865 3
134b4 18 3872 3
134cc 10 3902 3
134dc 4 3905 3
134e0 8 3902 3
134e8 c 3862 3
134f4 18 3956 3
1350c 4 3957 3
13510 1c 3958 3
1352c 10 3960 3
1353c 10 3967 3
1354c 1c 3958 3
FUNC 13568 140 0 std::__ndk1::basic_regex<char, std::__ndk1::regex_traits<char> >::__push_char(char)
13568 10 4083 3
13578 10 4084 3
13588 4 4086 3
1358c 2c 4089 3
135b8 54 4085 3
1360c 40 4087 3
1364c c 4090 3
13658 14 4091 3
1366c 3c 4085 3
FUNC 136a8 4c 0 std::__ndk1::__throw_regex_error[abi:ne190000]<(std::__ndk1::regex_constants::error_type)4>()
136a8 c 987 3
136b4 40 989 3
FUNC 136f4 c8 0 std::__ndk1::basic_regex<char, std::__ndk1::regex_traits<char> >::__push_back_ref(int)
136f4 10 4146 3
13704 10 4147 3
13714 4 4149 3
13718 2c 4152 3
13744 1c 4148 3
13760 40 4150 3
137a0 c 4153 3
137ac 10 4154 3
FUNC 137bc 5c 0 std::__ndk1::__match_char_icase<char, std::__ndk1::regex_traits<char> >::~__match_char_icase()
137bc 5c 1982 3
FUNC 13818 58 0 std::__ndk1::__match_char_icase<char, std::__ndk1::regex_traits<char> >::~__match_char_icase()
13818 58 1982 3
FUNC 13870 78 0 std::__ndk1::__match_char_icase<char, std::__ndk1::regex_traits<char> >::__exec(std::__ndk1::__state<char>&) const
13870 c 2001 3
1387c 34 2002 3
138b0 8 2004 3
138b8 4 2003 3
138bc 4 2004 3
138c0 4 2005 3
138c4 10 2004 3
138d4 8 2007 3
138dc c 2010 3
FUNC 138e8 5c 0 std::__ndk1::__match_char_collate<char, std::__ndk1::regex_traits<char> >::~__match_char_collate()
138e8 5c 2015 3
FUNC 13944 58 0 std::__ndk1::__match_char_collate<char, std::__ndk1::regex_traits<char> >::~__match_char_collate()
13944 58 2015 3
FUNC 1399c 48 0 std::__ndk1::__match_char_collate<char, std::__ndk1::regex_traits<char> >::__exec(std::__ndk1::__state<char>&) const
1399c 1c 2035 3
139b8 4 2037 3
139bc 8 2038 3
139c4 4 2036 3
139c8 8 2037 3
139d0 c 2043 3
139dc 4 2040 3
139e0 4 2043 3
FUNC 139e4 48 0 std::__ndk1::__match_char<char>::~__match_char()
139e4 48 1951 3
FUNC 13a2c 48 0 std::__ndk1::__match_char<char>::__exec(std::__ndk1::__state<char>&) const
13a2c 1c 1969 3
13a48 4 1971 3
13a4c 8 1972 3
13a54 4 1970 3
13a58 8 1971 3
13a60 c 1977 3
13a6c 4 1974 3
13a70 4 1977 3
FUNC 13a74 5c 0 std::__ndk1::__back_ref_icase<char, std::__ndk1::regex_traits<char> >::~__back_ref_icase()
13a74 5c 1704 3
FUNC 13ad0 58 0 std::__ndk1::__back_ref_icase<char, std::__ndk1::regex_traits<char> >::~__back_ref_icase()
13ad0 58 1704 3
FUNC 13b28 e8 0 std::__ndk1::__back_ref_icase<char, std::__ndk1::regex_traits<char> >::__exec(std::__ndk1::__state<char>&) const
13b28 14 1720 3
13b3c 18 1721 3
13b54 8 1722 3
13b5c 4 1723 3
13b60 4 1724 3
13b64 4 1723 3
13b68 20 1724 3
13b88 c 1725 3
13b94 40 1726 3
13bd4 c 1725 3
13be0 8 1730 3
13be8 8 1731 3
13bf0 4 1729 3
13bf4 8 1730 3
13bfc 14 1741 3
FUNC 13c10 5c 0 std::__ndk1::__back_ref_collate<char, std::__ndk1::regex_traits<char> >::~__back_ref_collate()
13c10 5c 1746 3
FUNC 13c6c 58 0 std::__ndk1::__back_ref_collate<char, std::__ndk1::regex_traits<char> >::~__back_ref_collate()
13c6c 58 1746 3
FUNC 13cc4 88 0 std::__ndk1::__back_ref_collate<char, std::__ndk1::regex_traits<char> >::__exec(std::__ndk1::__state<char>&) const
13cc4 14 1763 3
13cd8 8 1764 3
13ce0 4 1765 3
13ce4 4 1766 3
13ce8 4 1765 3
13cec 18 1766 3
13d04 4 1783 3
13d08 10 1767 3
13d18 10 1768 3
13d28 8 1767 3
13d30 4 1772 3
13d34 8 1773 3
13d3c 4 1771 3
13d40 8 1772 3
13d48 4 1783 3
FUNC 13d4c 48 0 std::__ndk1::__back_ref<char>::~__back_ref()
13d4c 48 1667 3
FUNC 13d94 c0 0 std::__ndk1::__back_ref<char>::__exec(std::__ndk1::__state<char>&) const
13d94 10 1681 3
13da4 24 1682 3
13dc8 c 1684 3
13dd4 8 1685 3
13ddc 4 1686 3
13de0 4 1687 3
13de4 4 1686 3
13de8 3c 1687 3
13e24 18 1699 3
13e3c 4 1689 3
13e40 4 1690 3
13e44 4 1688 3
13e48 8 1689 3
13e50 4 1683 3
FUNC 13e54 158 0 std::__ndk1::__bracket_expression<char, std::__ndk1::regex_traits<char> >::__add_char[abi:ne190000](char)
13e54 14 2086 3
13e68 c 2087 3
13e74 28 2088 3
13e9c 4 2089 3
13ea0 10 2092 3
13eb0 e4 2088 3
13f94 18 2093 3
FUNC 13fac 1bc 0 std::__ndk1::__bracket_expression<char, std::__ndk1::regex_traits<char> >::__bracket_expression[abi:ne190000](std::__ndk1::regex_traits<char> const&, std::__ndk1::__node<char>*, bool, bool, bool)
13fac 48 2080 3
13ff4 4 2073 3
13ff8 4 2074 3
13ffc 4 2072 3
14000 4 2074 3
14004 4 2072 3
14008 4 2080 3
1400c 4 2074 3
14010 8 2072 3
14018 4 2074 3
1401c 14 2072 3
14030 4 2077 3
14034 4 2078 3
14038 4 2079 3
1403c a4 2080 3
140e0 4 2072 3
140e4 3c 2080 3
14120 4 2074 3
14124 44 2080 3
FUNC 14168 8c 0 std::__ndk1::vector<std::__ndk1::pair<std::__ndk1::basic_string<char, std::__ndk1::char_traits<char>, std::__ndk1::allocator<char> >, std::__ndk1::basic_string<char, std::__ndk1::char_traits<char>, std::__ndk1::allocator<char> > >, std::__ndk1::allocator<std::__ndk1::pair<std::__ndk1::basic_string<char, std::__ndk1::char_traits<char>, std::__ndk1::allocator<char> >, std::__ndk1::basic_string<char, std::__ndk1::char_traits<char>, std::__ndk1::allocator<char> > > > >::~vector[abi:ne190000]()
14168 8c 502 7
FUNC 141f4 144 0 std::__ndk1::__bracket_expression<char, std::__ndk1::regex_traits<char> >::~__bracket_expression()
141f4 144 2048 3
FUNC 14338 24 0 std::__ndk1::__bracket_expression<char, std::__ndk1::regex_traits<char> >::~__bracket_expression()
14338 24 2048 3
FUNC 1435c b68 0 std::__ndk1::__bracket_expression<char, std::__ndk1::regex_traits<char> >::__exec(std::__ndk1::__state<char>&) const
1435c 34 2143 3
14390 c 2146 3
1439c 8 2148 3
143a4 4 2149 3
143a8 8 2150 3
143b0 8 2151 3
143b8 4 2152 3
143bc 8 2151 3
143c4 4 2152 3
143c8 10 2153 3
143d8 4 2154 3
143dc 4 2153 3
143e0 1c 2154 3
143fc f4 2159 3
144f0 c 2248 3
144fc 80 2159 3
1457c 30 2162 3
145ac 24 2163 3
145d0 8 2199 3
145d8 4 2200 3
145dc 8 2199 3
145e4 20 2201 3
14604 10 2204 3
14614 c 2205 3
14620 8 2204 3
14628 14 2217 3
1463c 38 2218 3
14674 24 2219 3
14698 c 2225 3
146a4 4c 2226 3
146f0 8 2233 3
146f8 54 2227 3
1474c 8 2228 3
14754 18 2227 3
1476c 80 2228 3
147ec 14 2168 3
14800 48 2169 3
14848 8 2176 3
14850 4c 2170 3
1489c 8 2171 3
148a4 18 2170 3
148bc 8c 2171 3
14948 10 2233 3
14958 10 2234 3
14968 20 2235 3
14988 8 2242 3
14990 68 2236 3
149f8 6c 2237 3
14a64 18 2236 3
14a7c c 2242 3
14a88 10 2226 3
14a98 8 2227 3
14aa0 20 2233 3
14ac0 c 2242 3
14acc 60 2243 3
14b2c 24 2176 3
14b50 10 2177 3
14b60 4 2178 3
14b64 4 2159 3
14b68 4 2178 3
14b6c c 2159 3
14b78 8 2178 3
14b80 8 2185 3
14b88 60 2179 3
14be8 6c 2180 3
14c54 18 2179 3
14c6c 48 2185 3
14cb4 58 2186 3
14d0c 64 2190 3
14d70 18 2250 3
14d88 10 2252 3
14d98 c 2253 3
14da4 30 2258 3
14dd4 1c 2242 3
14df0 38 2185 3
14e28 24 2242 3
14e4c 18 2185 3
14e64 60 2159 3
FUNC 14ec4 44 0 std::__ndk1::pair<std::__ndk1::basic_string<char, std::__ndk1::char_traits<char>, std::__ndk1::allocator<char> >, std::__ndk1::basic_string<char, std::__ndk1::char_traits<char>, std::__ndk1::allocator<char> > >::~pair()
14ec4 44 79 20
FUNC 14f08 a8 0 std::__ndk1::basic_string<char, std::__ndk1::char_traits<char>, std::__ndk1::allocator<char> >::__assign_no_alias<true>(char const*, unsigned long)
14f08 18 2462 8
14f20 c 2464 8
14f2c c 2469 8
14f38 14 2470 8
14f4c 44 2476 8
14f90 1c 2478 8
14fac 4 2476 8
FUNC 14fb0 118 0 std::__ndk1::basic_string<char, std::__ndk1::char_traits<char>, std::__ndk1::allocator<char> >::__assign_no_alias<false>(char const*, unsigned long)
14fb0 14 2462 8
14fc4 10 2463 8
14fd4 8 2464 8
14fdc 4 2468 8
14fe0 4 2469 8
14fe4 14 2470 8
14ff8 b0 2476 8
150a8 1c 2478 8
150c4 4 2476 8
FUNC 150c8 1d0 0 std::__ndk1::regex_traits<char>::__transform_primary<char*>(char*, char*, char) const
150c8 24 1124 3
150ec 94 1125 3
15180 34 1126 3
151b4 24 1127 3
151d8 14 1131 3
151ec c 1138 3
151f8 8 1134 3
15200 3c 1138 3
1523c c 1134 3
15248 c 1138 3
15254 14 1125 3
15268 30 1138 3
FUNC 15298 14 0 std::__ndk1::vector<char, std::__ndk1::allocator<char> >::__throw_length_error[abi:ne190000]() const
15298 14 941 7
FUNC 152ac 4c 0 std::__ndk1::__throw_regex_error[abi:ne190000]<(std::__ndk1::regex_constants::error_type)5>()
152ac c 987 3
152b8 40 989 3
FUNC 152f8 118 0 std::__ndk1::basic_regex<char, std::__ndk1::regex_traits<char> >::__parse_collating_symbol<char const*>(char const*, char const*, std::__ndk1::basic_string<char, std::__ndk1::char_traits<char>, std::__ndk1::allocator<char> >&)
152f8 18 3563 3
15310 4c 3567 3
1535c c 3568 3
15368 28 3571 3
15390 14 3572 3
153a4 4 3571 3
153a8 8 3572 3
153b0 4 3571 3
153b4 4 3572 3
153b8 2c 3580 3
153e4 14 3569 3
153f8 18 3577 3
FUNC 15410 2fc 0 std::__ndk1::basic_regex<char, std::__ndk1::regex_traits<char> >::__parse_class_escape<char const*>(char const*, char const*, std::__ndk1::basic_string<char, std::__ndk1::char_traits<char>, std::__ndk1::allocator<char> >&, std::__ndk1::__bracket_expression<char, std::__ndk1::regex_traits<char> >*)
15410 18 3398 3
15428 8 3399 3
15430 20 3401 3
15450 10 3412 3
15460 18 3401 3
15478 10 3409 3
15488 10 3401 3
15498 4 3425 3
1549c 4 3426 3
154a0 8 3425 3
154a8 38 3426 3
154e0 10 3401 3
154f0 4 3421 3
154f4 c 3422 3
15500 8 3421 3
15508 4 3422 3
1550c 8 3423 3
15514 1c 3403 3
15530 18 3406 3
15548 10 3418 3
15558 10 3415 3
15568 18 3429 3
15580 14 3403 3
15594 18 3406 3
155ac 140 3426 3
156ec 18 3431 3
15704 4 3400 3
15708 4 3426 3
FUNC 1570c 348 0 std::__ndk1::basic_regex<char, std::__ndk1::regex_traits<char> >::__parse_awk_escape<char const*>(char const*, char const*, std::__ndk1::basic_string<char, std::__ndk1::char_traits<char>, std::__ndk1::allocator<char> >*)
1570c c 3436 3
15718 8 3437 3
15720 2c 3439 3
1574c 4 3455 3
15750 18 3456 3
15768 20 3439 3
15788 4 3485 3
1578c 18 3486 3
157a4 10 3439 3
157b4 4 3443 3
157b8 18 3444 3
157d0 10 3439 3
157e0 4 3467 3
157e4 1c 3468 3
15800 8 3446 3
15808 4 3461 3
1580c 18 3462 3
15824 4 3473 3
15828 18 3474 3
15840 4 3449 3
15844 18 3450 3
1585c 4 3479 3
15860 18 3480 3
15878 c 3491 3
15884 4 3493 3
15888 4 3492 3
1588c 1c 3493 3
158a8 4 3494 3
158ac 8 3495 3
158b4 4 3494 3
158b8 18 3495 3
158d0 c 3496 3
158dc 8 3498 3
158e4 10 3444 3
158f4 4 3447 3
158f8 c 3444 3
15904 c 3470 3
15910 c 3464 3
1591c c 3476 3
15928 c 3458 3
15934 c 3488 3
15940 c 3452 3
1594c 18 3482 3
15964 4 3498 3
15968 18 3499 3
15980 14 3468 3
15994 14 3462 3
159a8 14 3474 3
159bc 14 3456 3
159d0 14 3486 3
159e4 14 3450 3
159f8 18 3480 3
15a10 c 3505 3
15a1c 20 3499 3
15a3c 4 3498 3
15a40 14 3501 3
FUNC 15a54 208 0 std::__ndk1::__bracket_expression<char, std::__ndk1::regex_traits<char> >::__add_digraph[abi:ne190000](char, char)
15a54 18 2127 3
15a6c 10 2128 3
15a7c 50 2129 3
15acc 4 2130 3
15ad0 4 2133 3
15ad4 4 2130 3
15ad8 44 2131 3
15b1c 4c 2129 3
15b68 10 2133 3
15b78 38 2129 3
15bb0 8c 2133 3
15c3c 20 2134 3
FUNC 15c5c 4c 0 std::__ndk1::__throw_regex_error[abi:ne190000]<(std::__ndk1::regex_constants::error_type)1>()
15c5c c 987 3
15c68 40 989 3
FUNC 15ca8 2ac 0 std::__ndk1::regex_traits<char>::__lookup_collatename<char const*>(char const*, char const*, char) const
15ca8 24 1168 3
15ccc 94 1169 3
15d60 8 1171 3
15d68 8 1170 3
15d70 10 1171 3
15d80 24 1172 3
15da4 8 1173 3
15dac 4 1172 3
15db0 2c 1173 3
15ddc 44 1174 3
15e20 8 1175 3
15e28 4 1174 3
15e2c 20 1175 3
15e4c 28 1176 3
15e74 c 1178 3
15e80 20 1176 3
15ea0 10 1178 3
15eb0 c 1176 3
15ebc 3c 1182 3
15ef8 1c 1169 3
15f14 40 1182 3
FUNC 15f54 4c 0 std::__ndk1::__throw_regex_error[abi:ne190000]<(std::__ndk1::regex_constants::error_type)2>()
15f54 c 987 3
15f60 40 989 3
FUNC 15fa0 1c0 0 std::__ndk1::regex_traits<char>::transform<std::__ndk1::__wrap_iter<char*> >(std::__ndk1::__wrap_iter<char*>, std::__ndk1::__wrap_iter<char*>) const
15fa0 20 1100 3
15fc0 f0 1101 3
160b0 30 1102 3
160e0 3c 1103 3
1611c 14 1101 3
16130 30 1103 3
FUNC 16160 4c 0 std::__ndk1::__throw_regex_error[abi:ne190000]<(std::__ndk1::regex_constants::error_type)9>()
16160 c 987 3
1616c 40 989 3
FUNC 161ac 19c 0 std::__ndk1::vector<std::__ndk1::pair<std::__ndk1::basic_string<char, std::__ndk1::char_traits<char>, std::__ndk1::allocator<char> >, std::__ndk1::basic_string<char, std::__ndk1::char_traits<char>, std::__ndk1::allocator<char> > >, std::__ndk1::allocator<std::__ndk1::pair<std::__ndk1::basic_string<char, std::__ndk1::char_traits<char>, std::__ndk1::allocator<char> >, std::__ndk1::basic_string<char, std::__ndk1::char_traits<char>, std::__ndk1::allocator<char> > > > >::__push_back_slow_path<std::__ndk1::pair<std::__ndk1::basic_string<char, std::__ndk1::char_traits<char>, std::__ndk1::allocator<char> >, std::__ndk1::basic_string<char, std::__ndk1::char_traits<char>, std::__ndk1::allocator<char> > > >(std::__ndk1::pair<std::__ndk1::basic_string<char, std::__ndk1::char_traits<char>, std::__ndk1::allocator<char> >, std::__ndk1::basic_string<char, std::__ndk1::char_traits<char>, std::__ndk1::allocator<char> > >&&)
161ac 14 1467 7
161c0 84 1469 7
16244 c 1471 7
16250 8 1469 7
16258 10 1471 7
16268 8 1469 7
16270 4 1473 7
16274 4 1472 7
16278 4 1471 7
1627c 4 1473 7
16280 4 1471 7
16284 4 1473 7
16288 8 1471 7
16290 8c 1473 7
1631c 24 1475 7
16340 8 1469 7
FUNC 16348 14 0 std::__ndk1::vector<std::__ndk1::pair<std::__ndk1::basic_string<char, std::__ndk1::char_traits<char>, std::__ndk1::allocator<char> >, std::__ndk1::basic_string<char, std::__ndk1::char_traits<char>, std::__ndk1::allocator<char> > >, std::__ndk1::allocator<std::__ndk1::pair<std::__ndk1::basic_string<char, std::__ndk1::char_traits<char>, std::__ndk1::allocator<char> >, std::__ndk1::basic_string<char, std::__ndk1::char_traits<char>, std::__ndk1::allocator<char> > > > >::__throw_length_error[abi:ne190000]() const
16348 14 941 7
FUNC 1635c 14 0 std::__ndk1::vector<std::__ndk1::pair<char, char>, std::__ndk1::allocator<std::__ndk1::pair<char, char> > >::__throw_length_error[abi:ne190000]() const
1635c 14 941 7
FUNC 16370 48 0 std::__ndk1::__begin_marked_subexpression<char>::~__begin_marked_subexpression()
16370 48 1618 3
FUNC 163b8 30 0 std::__ndk1::__begin_marked_subexpression<char>::__exec(std::__ndk1::__state<char>&) const
163b8 c 1635 3
163c4 4 1636 3
163c8 c 1635 3
163d4 4 1636 3
163d8 4 1634 3
163dc 8 1635 3
163e4 4 1637 3
FUNC 163e8 48 0 std::__ndk1::__end_marked_subexpression<char>::~__end_marked_subexpression()
163e8 48 1642 3
FUNC 16430 38 0 std::__ndk1::__end_marked_subexpression<char>::__exec(std::__ndk1::__state<char>&) const
16430 c 1659 3
1643c 4 1661 3
16440 10 1659 3
16450 8 1658 3
16458 4 1661 3
1645c 4 1659 3
16460 4 1660 3
16464 4 1662 3
FUNC 16468 140 0 std::__ndk1::basic_regex<char, std::__ndk1::regex_traits<char> >::__push_loop(unsigned long, unsigned long, std::__ndk1::__owns_one_state<char>*, unsigned long, unsigned long, bool)
16468 20 4069 3
16488 3c 4070 3
164c4 4 4071 3
164c8 3c 4073 3
16504 4 4074 3
16508 20 4076 3
16528 4 4077 3
1652c 4 4076 3
16530 8 4079 3
16538 4 4077 3
1653c 4 4078 3
16540 68 4080 3
FUNC 165a8 4c 0 std::__ndk1::__throw_regex_error[abi:ne190000]<(std::__ndk1::regex_constants::error_type)8>()
165a8 c 987 3
165b4 40 989 3
FUNC 165f4 4c 0 std::__ndk1::__throw_regex_error[abi:ne190000]<(std::__ndk1::regex_constants::error_type)7>()
165f4 c 987 3
16600 40 989 3
FUNC 16640 68 0 std::__ndk1::__loop<char>::~__loop()
16640 68 1497 3
FUNC 166a8 1c4 0 std::__ndk1::__loop<char>::__exec(std::__ndk1::__state<char>&) const
166b0 10 1543 3
166c0 18 1544 3
166d8 10 1546 3
166e8 4 1544 3
166ec 8 1546 3
166f4 14 1548 3
16708 4 1550 3
1670c 4 1553 3
16710 4 1552 3
16714 8 1553 3
1671c 4 1552 3
16720 7c 1553 3
1679c 4 1573 3
167a0 4 1560 3
167a4 4 1559 3
167a8 14 1562 3
167bc c 1573 3
167c8 4 1564 3
167cc 4 1567 3
167d0 4 1566 3
167d4 8 1567 3
167dc 4 1566 3
167e0 88 1567 3
16868 4 1573 3
FUNC 1686c c4 0 std::__ndk1::__loop<char>::__exec_split(bool, std::__ndk1::__state<char>&) const
1686c c 1578 3
16878 4 1577 3
1687c 8 1578 3
16884 8 1582 3
1688c 4 1583 3
16890 c 1580 3
1689c 4 1579 3
168a0 c 1580 3
168ac 4 1579 3
168b0 7c 1580 3
1692c 4 1583 3
FUNC 16930 68 0 std::__ndk1::__owns_two_states<char>::~__owns_two_states()
16930 68 1490 3
FUNC 16998 4 0 std::__ndk1::__repeat_one_loop<char>::~__repeat_one_loop()
16998 4 1455 3
FUNC 1699c 14 0 std::__ndk1::__repeat_one_loop<char>::__exec(std::__ndk1::__state<char>&) const
1699c 8 1469 3
169a4 4 1468 3
169a8 4 1469 3
169ac 4 1470 3
FUNC 169b0 6c 0 std::__ndk1::__owns_two_states<char>::~__owns_two_states()
169b0 18 1490 3
169c8 4 1491 3
169cc 8 1490 3
169d4 10 1491 3
169e4 38 1492 3
FUNC 16a1c 68 0 std::__ndk1::__alternate<char>::~__alternate()
16a1c 68 1588 3
FUNC 16a84 c 0 std::__ndk1::__alternate<char>::__exec(std::__ndk1::__state<char>&) const
16a84 4 1602 3
16a88 4 1603 3
16a8c 4 1604 3
FUNC 16a90 24 0 std::__ndk1::__alternate<char>::__exec_split(bool, std::__ndk1::__state<char>&) const
16a90 18 1607 3
16aa8 8 1608 3
16ab0 4 1613 3
FUNC 16ab4 4 0 std::__ndk1::__node<char>::~__node()
16ab4 4 1357 3
FUNC 16ab8 4 0 std::__ndk1::__empty_non_own_state<char>::~__empty_non_own_state()
16ab8 4 1435 3
FUNC 16abc 14 0 std::__ndk1::__empty_non_own_state<char>::__exec(std::__ndk1::__state<char>&) const
16abc 8 1449 3
16ac4 4 1448 3
16ac8 4 1449 3
16acc 4 1450 3
FUNC 16ad0 4c 0 std::__ndk1::__throw_regex_error[abi:ne190000]<(std::__ndk1::regex_constants::error_type)15>()
16ad0 c 987 3
16adc 40 989 3
FUNC 16b1c 2c8 0 std::__ndk1::basic_regex<char, std::__ndk1::regex_traits<char> >::__parse_nondupl_RE<char const*>(char const*, char const*)
16b1c 1c 2902 3
16b38 34 2904 3
16b6c 10 2905 3
16b7c 24 2906 3
16ba0 4 2907 3
16ba4 60 2908 3
16c04 ac 2904 3
16cb0 48 2917 3
16cf8 4 2909 3
16cfc 54 2910 3
16d50 24 2911 3
16d74 4 2912 3
16d78 50 2914 3
16dc8 14 2919 3
16ddc 4 2913 3
16de0 4 2917 3
FUNC 16de4 23c 0 std::__ndk1::basic_regex<char, std::__ndk1::regex_traits<char> >::__parse_RE_dupl_symbol<char const*>(char const*, char const*, std::__ndk1::__owns_one_state<char>*, unsigned int, unsigned int)
16de4 10 3144 3
16df4 8 3145 3
16dfc c 3146 3
16e08 18 3147 3
16e20 4 3148 3
16e24 10 3185 3
16e34 20 3150 3
16e54 8 3151 3
16e5c 7c 3154 3
16ed8 8 3155 3
16ee0 8 3158 3
16ee8 10 3160 3
16ef8 28 3169 3
16f20 30 3170 3
16f50 8 3173 3
16f58 8 3176 3
16f60 14 3178 3
16f74 14 3161 3
16f88 8 3162 3
16f90 4 3164 3
16f94 4 3161 3
16f98 10 3164 3
16fa8 58 3169 3
17000 20 3174 3
FUNC 17020 2c 0 std::__ndk1::__owns_one_state<char>::~__owns_one_state()
17020 c 1408 3
1702c 4 1409 3
17030 8 1408 3
17038 10 1409 3
17048 4 1410 3
FUNC 1704c 48 0 std::__ndk1::__match_any<char>::~__match_any()
1704c 48 1904 3
FUNC 17094 40 0 std::__ndk1::__match_any<char>::__exec(std::__ndk1::__state<char>&) const
17094 14 1917 3
170a8 4 1919 3
170ac 8 1920 3
170b4 4 1918 3
170b8 8 1919 3
170c0 c 1925 3
170cc 4 1922 3
170d0 4 1925 3
FUNC 170d4 60 0 std::__ndk1::basic_regex<char, std::__ndk1::regex_traits<char> >::__test_back_ref(char)
170d4 8 4055 3
170dc 1c 4056 3
170f8 c 4057 3
17104 10 4058 3
17114 8 4060 3
1711c 14 4065 3
17130 4 4059 3
FUNC 17134 34c 0 std::__ndk1::basic_regex<char, std::__ndk1::regex_traits<char> >::__parse_ERE_expression<char const*>(char const*, char const*)
17134 18 2841 3
1714c 4 2842 3
17150 10 2843 3
17160 158 2844 3
172b8 10 2845 3
172c8 1c 2846 3
172e4 1c 2848 3
17300 50 2856 3
17350 50 2852 3
173a0 4 2857 3
173a4 4 2858 3
173a8 c 2859 3
173b4 8 2858 3
173bc 4 2859 3
173c0 18 2860 3
173d8 40 2862 3
17418 4 2863 3
1741c 4 2864 3
17420 8 2863 3
17428 8 2868 3
17430 30 2869 3
17460 1c 2871 3
1747c 4 2861 3
FUNC 17480 30 0 geode::getMod()
17480 c 11 21
1748c 24 12 21
FUNC 174b0 30 0 geodeImplicitEntry
174b0 c 16 21
174bc 18 18 21
174d4 c 19 21
PUBLIC 174e0 0 <.plt ELF section in jumbonova.better_comment_section.android64.so>
STACK CFI INIT 93c0 10 .cfa: sp 0 +
STACK CFI INIT 93d0 8 .cfa: sp 0 +
STACK CFI INIT 93d8 8 .cfa: sp 0 +
STACK CFI INIT 93e0 14 .cfa: sp 0 +
STACK CFI INIT 93f4 1c .cfa: sp 0 +
STACK CFI INIT 9410 10 .cfa: sp 0 +
STACK CFI INIT 9420 30 .cfa: sp 0 +
STACK CFI INIT 9450 98 .cfa: sp 0 +
STACK CFI INIT 94e8 2ac .cfa: sp 0 +
STACK CFI INIT 9794 8c .cfa: sp 0 +
STACK CFI INIT 9820 30 .cfa: sp 0 +
STACK CFI INIT a170 18 .cfa: sp 0 +
STACK CFI INIT a770 50 .cfa: sp 0 +
STACK CFI a774 .cfa: sp 32 +
STACK CFI a77c .cfa: x29 32 + x19: .cfa -16 + ^ .ra: .cfa -24 + ^ x29: .cfa -32 + ^
STACK CFI a794 .cfa: sp 32 +
STACK CFI a79c .cfa: sp 0 +
STACK CFI a7a0 .cfa: x29 32 +
STACK CFI a7b4 .cfa: sp 32 +
STACK CFI a7bc .cfa: sp 0 +
STACK CFI INIT a834 7c .cfa: sp 0 +
STACK CFI a838 .cfa: sp 48 +
STACK CFI a844 .cfa: x29 48 + x19: .cfa -8 + ^ x20: .cfa -16 + ^ x21: .cfa -32 + ^ .ra: .cfa -40 + ^ x29: .cfa -48 + ^
STACK CFI a890 .cfa: sp 48 +
STACK CFI a89c .cfa: sp 0 +
STACK CFI a8a0 .cfa: sp 48 +
STACK CFI a8ac .cfa: sp 0 +
STACK CFI INIT a8b0 4 .cfa: sp 0 +
STACK CFI INIT a8b4 10 .cfa: sp 0 +
STACK CFI a8b8 .cfa: sp 16 +
STACK CFI a8bc .cfa: x29 16 + .ra: .cfa -8 + ^ x29: .cfa -16 + ^
STACK CFI INIT afcc 34 .cfa: sp 0 +
STACK CFI afd0 .cfa: sp 16 +
STACK CFI afd4 .cfa: x29 16 + .ra: .cfa -8 + ^ x29: .cfa -16 + ^
STACK CFI INIT b000 80 .cfa: sp 0 +
STACK CFI b004 .cfa: sp 48 +
STACK CFI b010 .cfa: x29 48 + x19: .cfa -8 + ^ x20: .cfa -16 + ^ x21: .cfa -32 + ^ .ra: .cfa -40 + ^ x29: .cfa -48 + ^
STACK CFI b070 .cfa: sp 48 +
STACK CFI b07c .cfa: sp 0 +
STACK CFI INIT b080 24 .cfa: sp 0 +
STACK CFI b084 .cfa: sp 32 +
STACK CFI b08c .cfa: x29 32 + x19: .cfa -16 + ^ .ra: .cfa -24 + ^ x29: .cfa -32 + ^
STACK CFI b098 .cfa: sp 32 +
STACK CFI b0a0 .cfa: sp 0 +
STACK CFI INIT b0a4 14 .cfa: sp 0 +
STACK CFI b0a8 .cfa: sp 16 +
STACK CFI b0ac .cfa: x29 16 + .ra: .cfa -8 + ^ x29: .cfa -16 + ^
STACK CFI INIT b108 30 .cfa: sp 0 +
STACK CFI b10c .cfa: sp 32 +
STACK CFI b114 .cfa: x29 32 + x19: .cfa -16 + ^ .ra: .cfa -24 + ^ x29: .cfa -32 + ^
STACK CFI b12c .cfa: sp 32 +
STACK CFI b134 .cfa: sp 0 +
STACK CFI INIT b138 34 .cfa: sp 0 +
STACK CFI b13c .cfa: sp 32 +
STACK CFI b144 .cfa: x29 32 + x19: .cfa -16 + ^ .ra: .cfa -24 + ^ x29: .cfa -32 + ^
STACK CFI INIT b16c 84 .cfa: sp 0 +
STACK CFI b174 .cfa: sp 48 +
STACK CFI b180 .cfa: x29 48 + x19: .cfa -8 + ^ x20: .cfa -16 + ^ x21: .cfa -32 + ^ .ra: .cfa -40 + ^ x29: .cfa -48 + ^
STACK CFI b1e0 .cfa: sp 48 +
STACK CFI b1ec .cfa: sp 0 +
STACK CFI INIT b238 38 .cfa: sp 0 +
STACK CFI b23c .cfa: sp 32 +
STACK CFI b244 .cfa: x29 32 + x19: .cfa -16 + ^ .ra: .cfa -24 + ^ x29: .cfa -32 + ^
STACK CFI b264 .cfa: sp 32 +
STACK CFI b26c .cfa: sp 0 +
STACK CFI INIT b41c 80 .cfa: sp 0 +
STACK CFI b420 .cfa: sp 48 +
STACK CFI b42c .cfa: x29 48 + x19: .cfa -8 + ^ x20: .cfa -16 + ^ x21: .cfa -24 + ^ x22: .cfa -32 + ^ .ra: .cfa -40 + ^ x29: .cfa -48 + ^
STACK CFI b488 .cfa: sp 48 +
STACK CFI b494 .cfa: sp 0 +
STACK CFI b498 .cfa: x29 48 +
STACK CFI INIT b49c 68 .cfa: sp 0 +
STACK CFI b4a0 .cfa: sp 32 +
STACK CFI b4a8 .cfa: x29 32 + x19: .cfa -8 + ^ x20: .cfa -16 + ^ .ra: .cfa -24 + ^ x29: .cfa -32 + ^
STACK CFI b4c0 .cfa: sp 32 +
STACK CFI b4c8 .cfa: sp 0 +
STACK CFI b4cc .cfa: x29 32 +
STACK CFI b4f8 .cfa: sp 32 +
STACK CFI b500 .cfa: sp 0 +
STACK CFI INIT b504 14 .cfa: sp 0 +
STACK CFI b508 .cfa: sp 16 +
STACK CFI b50c .cfa: x29 16 + .ra: .cfa -8 + ^ x29: .cfa -16 + ^
STACK CFI INIT b518 4 .cfa: sp 0 +
STACK CFI INIT b51c 14 .cfa: sp 0 +
STACK CFI INIT b530 84 .cfa: sp 0 +
STACK CFI b538 .cfa: sp 32 +
STACK CFI b540 .cfa: x29 32 + x19: .cfa -8 + ^ x20: .cfa -16 + ^ .ra: .cfa -24 + ^ x29: .cfa -32 + ^
STACK CFI b580 .cfa: sp 32 +
STACK CFI b588 .cfa: sp 0 +
STACK CFI b590 .cfa: x29 32 +
STACK CFI INIT bc54 50 .cfa: sp 0 +
STACK CFI bc58 .cfa: sp 32 +
STACK CFI bc60 .cfa: x29 32 + x19: .cfa -16 + ^ .ra: .cfa -24 + ^ x29: .cfa -32 + ^
STACK CFI bc78 .cfa: sp 32 +
STACK CFI bc80 .cfa: sp 0 +
STACK CFI bc84 .cfa: x29 32 +
STACK CFI bc98 .cfa: sp 32 +
STACK CFI bca0 .cfa: sp 0 +
STACK CFI INIT bca4 64 .cfa: sp 0 +
STACK CFI bca8 .cfa: sp 32 +
STACK CFI bcb0 .cfa: x29 32 + x19: .cfa -16 + ^ .ra: .cfa -24 + ^ x29: .cfa -32 + ^
STACK CFI bcdc .cfa: sp 32 +
STACK CFI bce4 .cfa: sp 0 +
STACK CFI bce8 .cfa: x29 32 +
STACK CFI bcfc .cfa: sp 32 +
STACK CFI bd04 .cfa: sp 0 +
STACK CFI INIT c2a4 128 .cfa: sp 0 +
STACK CFI c2a8 .cfa: sp 80 +
STACK CFI c2b8 .cfa: x29 48 + x19: .cfa -8 + ^ x20: .cfa -16 + ^ x21: .cfa -24 + ^ x22: .cfa -32 + ^ .ra: .cfa -40 + ^ x29: .cfa -48 + ^
STACK CFI c3b4 .cfa: sp 80 +
STACK CFI c3c4 .cfa: sp 0 +
STACK CFI c3c8 .cfa: x29 48 +
STACK CFI INIT cbb8 50 .cfa: sp 0 +
STACK CFI cbbc .cfa: sp 32 +
STACK CFI cbc4 .cfa: x29 32 + x19: .cfa -8 + ^ x20: .cfa -16 + ^ .ra: .cfa -24 + ^ x29: .cfa -32 + ^
STACK CFI cbfc .cfa: sp 32 +
STACK CFI cc04 .cfa: sp 0 +
STACK CFI INIT cc08 14 .cfa: sp 0 +
STACK CFI INIT cc1c 14 .cfa: sp 0 +
STACK CFI cc20 .cfa: sp 16 +
STACK CFI cc24 .cfa: x29 16 + .ra: .cfa -8 + ^ x29: .cfa -16 + ^
STACK CFI INIT cc30 14 .cfa: sp 0 +
STACK CFI cc34 .cfa: sp 16 +
STACK CFI cc38 .cfa: x29 16 + .ra: .cfa -8 + ^ x29: .cfa -16 + ^
STACK CFI INIT cc44 c .cfa: sp 0 +
STACK CFI cc48 .cfa: sp 16 +
STACK CFI cc4c .cfa: x29 16 + .ra: .cfa -8 + ^ x29: .cfa -16 + ^
STACK CFI INIT cc50 c .cfa: sp 0 +
STACK CFI cc54 .cfa: sp 16 +
STACK CFI cc58 .cfa: x29 16 + .ra: .cfa -8 + ^ x29: .cfa -16 + ^
STACK CFI INIT cc5c 4 .cfa: sp 0 +
STACK CFI INIT cc60 4 .cfa: sp 0 +
STACK CFI INIT cc64 38 .cfa: sp 0 +
STACK CFI cc68 .cfa: sp 32 +
STACK CFI cc70 .cfa: x29 32 + x19: .cfa -16 + ^ .ra: .cfa -24 + ^ x29: .cfa -32 + ^
STACK CFI cc90 .cfa: sp 32 +
STACK CFI cc98 .cfa: sp 0 +
STACK CFI INIT cc9c 18 .cfa: sp 0 +
STACK CFI INIT ccb4 4 .cfa: sp 0 +
STACK CFI INIT ccb8 4 .cfa: sp 0 +
STACK CFI INIT ccbc 10 .cfa: sp 0 +
STACK CFI INIT cccc 1c .cfa: sp 0 +
STACK CFI INIT cce8 c .cfa: sp 0 +
STACK CFI INIT ccf4 140 .cfa: sp 0 +
STACK CFI ccf8 .cfa: sp 80 +
STACK CFI cd0c .cfa: x29 80 + x19: .cfa -8 + ^ x20: .cfa -16 + ^ x21: .cfa -24 + ^ x22: .cfa -32 + ^ x23: .cfa -40 + ^ x24: .cfa -48 + ^ x25: .cfa -64 + ^ .ra: .cfa -72 + ^ x29: .cfa -80 + ^
STACK CFI ce18 .cfa: sp 80 +
STACK CFI ce2c .cfa: sp 0 +
STACK CFI ce30 .cfa: x29 80 +
STACK CFI INIT ce34 d8 .cfa: sp 0 +
STACK CFI ce38 .cfa: sp 64 +
STACK CFI ce48 .cfa: x29 64 + x19: .cfa -8 + ^ x20: .cfa -16 + ^ x21: .cfa -24 + ^ x22: .cfa -32 + ^ x23: .cfa -48 + ^ .ra: .cfa -56 + ^ x29: .cfa -64 + ^
STACK CFI cec0 .cfa: sp 64 +
STACK CFI ced0 .cfa: sp 0 +
STACK CFI ced4 .cfa: x29 64 +
STACK CFI INIT cf0c 1c4 .cfa: sp 0 +
STACK CFI cf10 .cfa: sp 48 +
STACK CFI cf1c .cfa: x29 48 + x19: .cfa -8 + ^ x20: .cfa -16 + ^ x21: .cfa -24 + ^ x22: .cfa -32 + ^ .ra: .cfa -40 + ^ x29: .cfa -48 + ^
STACK CFI d0bc .cfa: sp 48 +
STACK CFI d0c8 .cfa: sp 0 +
STACK CFI d0cc .cfa: x29 48 +
STACK CFI INIT ebb8 44 .cfa: sp 0 +
STACK CFI ebbc .cfa: sp 32 +
STACK CFI ebc4 .cfa: x29 32 + x19: .cfa -16 + ^ .ra: .cfa -24 + ^ x29: .cfa -32 + ^
STACK CFI ebe4 .cfa: sp 32 +
STACK CFI ebec .cfa: sp 0 +
STACK CFI ebf0 .cfa: sp 32 +
STACK CFI ebf8 .cfa: sp 0 +
STACK CFI INIT ee04 88 .cfa: sp 0 +
STACK CFI ee08 .cfa: sp 48 +
STACK CFI ee14 .cfa: x29 48 + x19: .cfa -8 + ^ x20: .cfa -16 + ^ x21: .cfa -32 + ^ .ra: .cfa -40 + ^ x29: .cfa -48 + ^
STACK CFI ee6c .cfa: sp 48 +
STACK CFI ee78 .cfa: sp 0 +
STACK CFI ee7c .cfa: sp 48 +
STACK CFI ee88 .cfa: sp 0 +
STACK CFI INIT ee8c 1cc .cfa: sp 0 +
STACK CFI ee90 .cfa: sp 64 +
STACK CFI eea0 .cfa: x29 64 + x19: .cfa -8 + ^ x20: .cfa -16 + ^ x21: .cfa -24 + ^ x22: .cfa -32 + ^ x23: .cfa -40 + ^ x24: .cfa -48 + ^ .ra: .cfa -56 + ^ x29: .cfa -64 + ^
STACK CFI f03c .cfa: sp 64 +
STACK CFI f04c .cfa: sp 0 +
STACK CFI f050 .cfa: x29 64 +
STACK CFI INIT f058 14 .cfa: sp 0 +
STACK CFI f05c .cfa: sp 16 +
STACK CFI f060 .cfa: x29 16 + .ra: .cfa -8 + ^ x29: .cfa -16 + ^
STACK CFI INIT f06c 188 .cfa: sp 0 +
STACK CFI f070 .cfa: sp 64 +
STACK CFI f080 .cfa: x29 64 + x19: .cfa -8 + ^ x20: .cfa -16 + ^ x21: .cfa -24 + ^ x22: .cfa -32 + ^ x23: .cfa -40 + ^ x24: .cfa -48 + ^ .ra: .cfa -56 + ^ x29: .cfa -64 + ^
STACK CFI f1c4 .cfa: sp 64 +
STACK CFI f1d4 .cfa: sp 0 +
STACK CFI f1d8 .cfa: sp 64 +
STACK CFI f1e8 .cfa: sp 0 +
STACK CFI f1ec .cfa: x29 64 +
STACK CFI INIT f1f4 14 .cfa: sp 0 +
STACK CFI f1f8 .cfa: sp 16 +
STACK CFI f1fc .cfa: x29 16 + .ra: .cfa -8 + ^ x29: .cfa -16 + ^
STACK CFI INIT f208 128 .cfa: sp 0 +
STACK CFI f20c .cfa: sp 80 +
STACK CFI f220 .cfa: x29 80 + x19: .cfa -8 + ^ x20: .cfa -16 + ^ x21: .cfa -24 + ^ x22: .cfa -32 + ^ x23: .cfa -40 + ^ x24: .cfa -48 + ^ x25: .cfa -64 + ^ .ra: .cfa -72 + ^ x29: .cfa -80 + ^
STACK CFI f2f8 .cfa: sp 80 +
STACK CFI f30c .cfa: sp 0 +
STACK CFI f310 .cfa: sp 80 +
STACK CFI f324 .cfa: sp 0 +
STACK CFI f328 .cfa: x29 80 +
STACK CFI INIT f330 14 .cfa: sp 0 +
STACK CFI f334 .cfa: sp 16 +
STACK CFI f338 .cfa: x29 16 + .ra: .cfa -8 + ^ x29: .cfa -16 + ^
STACK CFI INIT f344 1b4 .cfa: sp 0 +
STACK CFI f348 .cfa: sp 80 +
STACK CFI f35c .cfa: x29 80 + x19: .cfa -8 + ^ x20: .cfa -16 + ^ x21: .cfa -24 + ^ x22: .cfa -32 + ^ x23: .cfa -40 + ^ x24: .cfa -48 + ^ x25: .cfa -64 + ^ .ra: .cfa -72 + ^ x29: .cfa -80 + ^
STACK CFI f4c8 .cfa: sp 80 +
STACK CFI f4dc .cfa: sp 0 +
STACK CFI f4e0 .cfa: sp 80 +
STACK CFI f4f4 .cfa: sp 0 +
STACK CFI INIT faac 188 .cfa: sp 0 +
STACK CFI fab0 .cfa: sp 80 +
STACK CFI fac4 .cfa: x29 80 + x19: .cfa -8 + ^ x20: .cfa -16 + ^ x21: .cfa -24 + ^ x22: .cfa -32 + ^ x23: .cfa -40 + ^ x24: .cfa -48 + ^ x25: .cfa -64 + ^ .ra: .cfa -72 + ^ x29: .cfa -80 + ^
STACK CFI fc18 .cfa: sp 80 +
STACK CFI fc2c .cfa: sp 0 +
STACK CFI fc30 .cfa: x29 80 +
STACK CFI INIT fc34 18c .cfa: sp 0 +
STACK CFI fc38 .cfa: sp 64 +
STACK CFI fc48 .cfa: x29 64 + x19: .cfa -8 + ^ x20: .cfa -16 + ^ x21: .cfa -24 + ^ x22: .cfa -32 + ^ x23: .cfa -40 + ^ x24: .cfa -48 + ^ .ra: .cfa -56 + ^ x29: .cfa -64 + ^
STACK CFI fda8 .cfa: sp 64 +
STACK CFI fdb8 .cfa: sp 0 +
STACK CFI fdbc .cfa: x29 64 +
STACK CFI INIT fdc0 18c .cfa: sp 0 +
STACK CFI fdc4 .cfa: sp 64 +
STACK CFI fdd4 .cfa: x29 64 + x19: .cfa -8 + ^ x20: .cfa -16 + ^ x21: .cfa -24 + ^ x22: .cfa -32 + ^ x23: .cfa -40 + ^ x24: .cfa -48 + ^ .ra: .cfa -56 + ^ x29: .cfa -64 + ^
STACK CFI ff34 .cfa: sp 64 +
STACK CFI ff44 .cfa: sp 0 +
STACK CFI ff48 .cfa: x29 64 +
STACK CFI INIT ff4c 14 .cfa: sp 0 +
STACK CFI ff50 .cfa: sp 16 +
STACK CFI ff54 .cfa: x29 16 + .ra: .cfa -8 + ^ x29: .cfa -16 + ^
STACK CFI INIT ff60 50 .cfa: sp 0 +
STACK CFI ff64 .cfa: sp 32 +
STACK CFI ff6c .cfa: x29 32 + x19: .cfa -16 + ^ .ra: .cfa -24 + ^ x29: .cfa -32 + ^
STACK CFI ff84 .cfa: sp 32 +
STACK CFI ff8c .cfa: sp 0 +
STACK CFI ff90 .cfa: x29 32 +
STACK CFI ffa4 .cfa: sp 32 +
STACK CFI ffac .cfa: sp 0 +
STACK CFI INIT 1068c 270 .cfa: sp 0 +
STACK CFI 10690 .cfa: sp 112 +
STACK CFI 106ac .cfa: x29 96 + x19: .cfa -8 + ^ x20: .cfa -16 + ^ x21: .cfa -24 + ^ x22: .cfa -32 + ^ x23: .cfa -40 + ^ x24: .cfa -48 + ^ x25: .cfa -56 + ^ x26: .cfa -64 + ^ x27: .cfa -72 + ^ x28: .cfa -80 + ^ .ra: .cfa -88 + ^ x29: .cfa -96 + ^
STACK CFI 108dc .cfa: sp 112 +
STACK CFI 108f8 .cfa: sp 0 +
STACK CFI INIT 108fc 180 .cfa: sp 0 +
STACK CFI 10900 .cfa: sp 64 +
STACK CFI 10910 .cfa: x29 64 + x19: .cfa -8 + ^ x20: .cfa -16 + ^ x21: .cfa -24 + ^ x22: .cfa -32 + ^ x23: .cfa -48 + ^ .ra: .cfa -56 + ^ x29: .cfa -64 + ^
STACK CFI 10a64 .cfa: sp 64 +
STACK CFI 10a74 .cfa: sp 0 +
STACK CFI 10a78 .cfa: x29 64 +
STACK CFI INIT 10a7c 174 .cfa: sp 0 +
STACK CFI 10a80 .cfa: sp 96 +
STACK CFI 10a98 .cfa: x29 96 + x19: .cfa -8 + ^ x20: .cfa -16 + ^ x21: .cfa -24 + ^ x22: .cfa -32 + ^ x23: .cfa -40 + ^ x24: .cfa -48 + ^ x25: .cfa -56 + ^ x26: .cfa -64 + ^ x27: .cfa -80 + ^ .ra: .cfa -88 + ^ x29: .cfa -96 + ^
STACK CFI 10bd0 .cfa: sp 96 +
STACK CFI 10be8 .cfa: sp 0 +
STACK CFI 10bec .cfa: x29 96 +
STACK CFI INIT 10c3c 4 .cfa: sp 0 +
STACK CFI INIT 10c40 c .cfa: sp 0 +
STACK CFI INIT 10c4c 4 .cfa: sp 0 +
STACK CFI INIT 10c50 4 .cfa: sp 0 +
STACK CFI INIT 10c54 24 .cfa: sp 0 +
STACK CFI 10c58 .cfa: sp 32 +
STACK CFI 10c60 .cfa: x29 32 + x19: .cfa -16 + ^ .ra: .cfa -24 + ^ x29: .cfa -32 + ^
STACK CFI 10c6c .cfa: sp 32 +
STACK CFI 10c74 .cfa: sp 0 +
STACK CFI INIT 10c78 18 .cfa: sp 0 +
STACK CFI INIT 10c90 1c .cfa: sp 0 +
STACK CFI INIT 10cac 4 .cfa: sp 0 +
STACK CFI INIT 10cb0 48 .cfa: sp 0 +
STACK CFI 10ccc .cfa: sp 32 +
STACK CFI 10cd4 .cfa: x29 32 + x19: .cfa -16 + ^ .ra: .cfa -24 + ^ x29: .cfa -32 + ^
STACK CFI 10cec .cfa: sp 32 +
STACK CFI 10cf4 .cfa: sp 0 +
STACK CFI INIT 10cf8 14 .cfa: sp 0 +
STACK CFI INIT 10d0c 48 .cfa: sp 0 +
STACK CFI 10d28 .cfa: sp 32 +
STACK CFI 10d30 .cfa: x29 32 + x19: .cfa -16 + ^ .ra: .cfa -24 + ^ x29: .cfa -32 + ^
STACK CFI 10d48 .cfa: sp 32 +
STACK CFI 10d50 .cfa: sp 0 +
STACK CFI INIT 11638 360 .cfa: sp 0 +
STACK CFI 1163c .cfa: sp 32 +
STACK CFI 11644 .cfa: x29 32 + x19: .cfa -16 + ^ .ra: .cfa -24 + ^ x29: .cfa -32 + ^
STACK CFI 11984 .cfa: sp 32 +
STACK CFI 1198c .cfa: sp 0 +
STACK CFI 11990 .cfa: x29 32 +
STACK CFI INIT 11a04 b4 .cfa: sp 0 +
STACK CFI 11a08 .cfa: sp 64 +
STACK CFI 11a18 .cfa: x29 64 + x19: .cfa -8 + ^ x20: .cfa -16 + ^ x21: .cfa -24 + ^ x22: .cfa -32 + ^ x23: .cfa -48 + ^ .ra: .cfa -56 + ^ x29: .cfa -64 + ^
STACK CFI 11aa4 .cfa: sp 64 +
STACK CFI 11ab4 .cfa: sp 0 +
STACK CFI INIT 11b04 48 .cfa: sp 0 +
STACK CFI 11b20 .cfa: sp 32 +
STACK CFI 11b28 .cfa: x29 32 + x19: .cfa -16 + ^ .ra: .cfa -24 + ^ x29: .cfa -32 + ^
STACK CFI 11b40 .cfa: sp 32 +
STACK CFI 11b48 .cfa: sp 0 +
STACK CFI INIT 11b4c 60 .cfa: sp 0 +
STACK CFI INIT 11bac 48 .cfa: sp 0 +
STACK CFI 11bc8 .cfa: sp 32 +
STACK CFI 11bd0 .cfa: x29 32 + x19: .cfa -16 + ^ .ra: .cfa -24 + ^ x29: .cfa -32 + ^
STACK CFI 11be8 .cfa: sp 32 +
STACK CFI 11bf0 .cfa: sp 0 +
STACK CFI INIT 11bf4 50 .cfa: sp 0 +
STACK CFI INIT 11c44 5c .cfa: sp 0 +
STACK CFI 11c48 .cfa: sp 32 +
STACK CFI 11c50 .cfa: x29 32 + x19: .cfa -16 + ^ .ra: .cfa -24 + ^ x29: .cfa -32 + ^
STACK CFI 11c88 .cfa: sp 32 +
STACK CFI 11c90 .cfa: sp 0 +
STACK CFI 11c94 .cfa: sp 32 +
STACK CFI 11c9c .cfa: sp 0 +
STACK CFI INIT 11ca0 58 .cfa: sp 0 +
STACK CFI 11ca4 .cfa: sp 32 +
STACK CFI 11cac .cfa: x29 32 + x19: .cfa -16 + ^ .ra: .cfa -24 + ^ x29: .cfa -32 + ^
STACK CFI 11cec .cfa: sp 32 +
STACK CFI 11cf4 .cfa: sp 0 +
STACK CFI INIT 11cf8 110 .cfa: sp 0 +
STACK CFI INIT 11e08 90 .cfa: sp 0 +
STACK CFI 11e0c .cfa: sp 32 +
STACK CFI 11e14 .cfa: x29 32 + x19: .cfa -8 + ^ x20: .cfa -16 + ^ .ra: .cfa -24 + ^ x29: .cfa -32 + ^
STACK CFI 11e80 .cfa: sp 32 +
STACK CFI 11e88 .cfa: sp 0 +
STACK CFI 11e8c .cfa: sp 32 +
STACK CFI 11e94 .cfa: sp 0 +
STACK CFI INIT 11e98 8c .cfa: sp 0 +
STACK CFI 11e9c .cfa: sp 32 +
STACK CFI 11ea4 .cfa: x29 32 + x19: .cfa -8 + ^ x20: .cfa -16 + ^ .ra: .cfa -24 + ^ x29: .cfa -32 + ^
STACK CFI 11f18 .cfa: sp 32 +
STACK CFI 11f20 .cfa: sp 0 +
STACK CFI INIT 1306c 48 .cfa: sp 0 +
STACK CFI 13088 .cfa: sp 32 +
STACK CFI 13090 .cfa: x29 32 + x19: .cfa -16 + ^ .ra: .cfa -24 + ^ x29: .cfa -32 + ^
STACK CFI 130a8 .cfa: sp 32 +
STACK CFI 130b0 .cfa: sp 0 +
STACK CFI INIT 13100 468 .cfa: sp 0 +
STACK CFI 13104 .cfa: sp 32 +
STACK CFI 1310c .cfa: x29 32 + x19: .cfa -16 + ^ .ra: .cfa -24 + ^ x29: .cfa -32 + ^
STACK CFI 13540 .cfa: sp 32 +
STACK CFI 13548 .cfa: sp 0 +
STACK CFI 1354c .cfa: x29 32 +
STACK CFI INIT 136f4 c8 .cfa: sp 0 +
STACK CFI 136f8 .cfa: sp 48 +
STACK CFI 13704 .cfa: x29 48 + x19: .cfa -8 + ^ x20: .cfa -16 + ^ x21: .cfa -32 + ^ .ra: .cfa -40 + ^ x29: .cfa -48 + ^
STACK CFI 137ac .cfa: sp 48 +
STACK CFI 137b8 .cfa: sp 0 +
STACK CFI INIT 137bc 5c .cfa: sp 0 +
STACK CFI 137c0 .cfa: sp 32 +
STACK CFI 137c8 .cfa: x29 32 + x19: .cfa -16 + ^ .ra: .cfa -24 + ^ x29: .cfa -32 + ^
STACK CFI 13800 .cfa: sp 32 +
STACK CFI 13808 .cfa: sp 0 +
STACK CFI 1380c .cfa: sp 32 +
STACK CFI 13814 .cfa: sp 0 +
STACK CFI INIT 13818 58 .cfa: sp 0 +
STACK CFI 1381c .cfa: sp 32 +
STACK CFI 13824 .cfa: x29 32 + x19: .cfa -16 + ^ .ra: .cfa -24 + ^ x29: .cfa -32 + ^
STACK CFI 13864 .cfa: sp 32 +
STACK CFI 1386c .cfa: sp 0 +
STACK CFI INIT 13870 78 .cfa: sp 0 +
STACK CFI 13874 .cfa: sp 32 +
STACK CFI 1387c .cfa: x29 32 + x19: .cfa -8 + ^ x20: .cfa -16 + ^ .ra: .cfa -24 + ^ x29: .cfa -32 + ^
STACK CFI 138dc .cfa: sp 32 +
STACK CFI 138e4 .cfa: sp 0 +
STACK CFI INIT 138e8 5c .cfa: sp 0 +
STACK CFI 138ec .cfa: sp 32 +
STACK CFI 138f4 .cfa: x29 32 + x19: .cfa -16 + ^ .ra: .cfa -24 + ^ x29: .cfa -32 + ^
STACK CFI 1392c .cfa: sp 32 +
STACK CFI 13934 .cfa: sp 0 +
STACK CFI 13938 .cfa: sp 32 +
STACK CFI 13940 .cfa: sp 0 +
STACK CFI INIT 13944 58 .cfa: sp 0 +
STACK CFI 13948 .cfa: sp 32 +
STACK CFI 13950 .cfa: x29 32 + x19: .cfa -16 + ^ .ra: .cfa -24 + ^ x29: .cfa -32 + ^
STACK CFI 13990 .cfa: sp 32 +
STACK CFI 13998 .cfa: sp 0 +
STACK CFI INIT 1399c 48 .cfa: sp 0 +
STACK CFI INIT 139e4 48 .cfa: sp 0 +
STACK CFI 13a00 .cfa: sp 32 +
STACK CFI 13a08 .cfa: x29 32 + x19: .cfa -16 + ^ .ra: .cfa -24 + ^ x29: .cfa -32 + ^
STACK CFI 13a20 .cfa: sp 32 +
STACK CFI 13a28 .cfa: sp 0 +
STACK CFI INIT 13a2c 48 .cfa: sp 0 +
STACK CFI INIT 13a74 5c .cfa: sp 0 +
STACK CFI 13a78 .cfa: sp 32 +
STACK CFI 13a80 .cfa: x29 32 + x19: .cfa -16 + ^ .ra: .cfa -24 + ^ x29: .cfa -32 + ^
STACK CFI 13ab8 .cfa: sp 32 +
STACK CFI 13ac0 .cfa: sp 0 +
STACK CFI 13ac4 .cfa: sp 32 +
STACK CFI 13acc .cfa: sp 0 +
STACK CFI INIT 13ad0 58 .cfa: sp 0 +
STACK CFI 13ad4 .cfa: sp 32 +
STACK CFI 13adc .cfa: x29 32 + x19: .cfa -16 + ^ .ra: .cfa -24 + ^ x29: .cfa -32 + ^
STACK CFI 13b1c .cfa: sp 32 +
STACK CFI 13b24 .cfa: sp 0 +
STACK CFI INIT 13b28 e8 .cfa: sp 0 +
STACK CFI 13b2c .cfa: sp 64 +
STACK CFI 13b3c .cfa: x29 64 + x19: .cfa -8 + ^ x20: .cfa -16 + ^ x21: .cfa -24 + ^ x22: .cfa -32 + ^ x23: .cfa -40 + ^ x24: .cfa -48 + ^ .ra: .cfa -56 + ^ x29: .cfa -64 + ^
STACK CFI 13bfc .cfa: sp 64 +
STACK CFI 13c0c .cfa: sp 0 +
STACK CFI INIT 13c10 5c .cfa: sp 0 +
STACK CFI 13c14 .cfa: sp 32 +
STACK CFI 13c1c .cfa: x29 32 + x19: .cfa -16 + ^ .ra: .cfa -24 + ^ x29: .cfa -32 + ^
STACK CFI 13c54 .cfa: sp 32 +
STACK CFI 13c5c .cfa: sp 0 +
STACK CFI 13c60 .cfa: sp 32 +
STACK CFI 13c68 .cfa: sp 0 +
STACK CFI INIT 13c6c 58 .cfa: sp 0 +
STACK CFI 13c70 .cfa: sp 32 +
STACK CFI 13c78 .cfa: x29 32 + x19: .cfa -16 + ^ .ra: .cfa -24 + ^ x29: .cfa -32 + ^
STACK CFI 13cb8 .cfa: sp 32 +
STACK CFI 13cc0 .cfa: sp 0 +
STACK CFI INIT 13cc4 88 .cfa: sp 0 +
STACK CFI INIT 13d4c 48 .cfa: sp 0 +
STACK CFI 13d68 .cfa: sp 32 +
STACK CFI 13d70 .cfa: x29 32 + x19: .cfa -16 + ^ .ra: .cfa -24 + ^ x29: .cfa -32 + ^
STACK CFI 13d88 .cfa: sp 32 +
STACK CFI 13d90 .cfa: sp 0 +
STACK CFI INIT 13d94 c0 .cfa: sp 0 +
STACK CFI 13d98 .cfa: sp 48 +
STACK CFI 13da4 .cfa: x29 48 + x19: .cfa -8 + ^ x20: .cfa -16 + ^ x21: .cfa -24 + ^ x22: .cfa -32 + ^ .ra: .cfa -40 + ^ x29: .cfa -48 + ^
STACK CFI 13e24 .cfa: sp 48 +
STACK CFI 13e30 .cfa: sp 0 +
STACK CFI 13e34 .cfa: x29 48 +
STACK CFI INIT 13e54 158 .cfa: sp 0 +
STACK CFI 13e58 .cfa: sp 64 +
STACK CFI 13e68 .cfa: x29 64 + x19: .cfa -8 + ^ x20: .cfa -16 + ^ x21: .cfa -24 + ^ x22: .cfa -32 + ^ x23: .cfa -40 + ^ x24: .cfa -48 + ^ .ra: .cfa -56 + ^ x29: .cfa -64 + ^
STACK CFI 13f94 .cfa: sp 64 +
STACK CFI 13fa4 .cfa: sp 0 +
STACK CFI 13fa8 .cfa: x29 64 +
STACK CFI INIT 14168 8c .cfa: sp 0 +
STACK CFI 1416c .cfa: sp 48 +
STACK CFI 14178 .cfa: x29 48 + x19: .cfa -8 + ^ x20: .cfa -16 + ^ x21: .cfa -24 + ^ x22: .cfa -32 + ^ .ra: .cfa -40 + ^ x29: .cfa -48 + ^
STACK CFI 141d4 .cfa: sp 48 +
STACK CFI 141e0 .cfa: sp 0 +
STACK CFI 141e4 .cfa: sp 48 +
STACK CFI 141f0 .cfa: sp 0 +
STACK CFI INIT 141f4 144 .cfa: sp 0 +
STACK CFI 141f8 .cfa: sp 48 +
STACK CFI 14204 .cfa: x29 48 + x19: .cfa -8 + ^ x20: .cfa -16 + ^ x21: .cfa -24 + ^ x22: .cfa -32 + ^ .ra: .cfa -40 + ^ x29: .cfa -48 + ^
STACK CFI 14318 .cfa: sp 48 +
STACK CFI 14324 .cfa: sp 0 +
STACK CFI 14328 .cfa: sp 48 +
STACK CFI 14334 .cfa: sp 0 +
STACK CFI INIT 14338 24 .cfa: sp 0 +
STACK CFI 1433c .cfa: sp 32 +
STACK CFI 14344 .cfa: x29 32 + x19: .cfa -16 + ^ .ra: .cfa -24 + ^ x29: .cfa -32 + ^
STACK CFI 14350 .cfa: sp 32 +
STACK CFI 14358 .cfa: sp 0 +
STACK CFI INIT 14ec4 44 .cfa: sp 0 +
STACK CFI 14ec8 .cfa: sp 32 +
STACK CFI 14ed0 .cfa: x29 32 + x19: .cfa -16 + ^ .ra: .cfa -24 + ^ x29: .cfa -32 + ^
STACK CFI 14eec .cfa: sp 32 +
STACK CFI 14ef4 .cfa: sp 0 +
STACK CFI 14ef8 .cfa: x29 32 +
STACK CFI 14efc .cfa: sp 32 +
STACK CFI 14f04 .cfa: sp 0 +
STACK CFI INIT 14f08 a8 .cfa: sp 0 +
STACK CFI 14f0c .cfa: sp 64 +
STACK CFI 14f1c .cfa: x29 64 + x19: .cfa -8 + ^ x20: .cfa -16 + ^ x21: .cfa -24 + ^ x22: .cfa -32 + ^ x23: .cfa -48 + ^ .ra: .cfa -56 + ^ x29: .cfa -64 + ^
STACK CFI 14f98 .cfa: sp 64 +
STACK CFI 14fa8 .cfa: sp 0 +
STACK CFI 14fac .cfa: x29 64 +
STACK CFI INIT 14fb0 118 .cfa: sp 0 +
STACK CFI 14fb4 .cfa: sp 64 +
STACK CFI 14fc4 .cfa: x29 64 + x19: .cfa -8 + ^ x20: .cfa -16 + ^ x21: .cfa -24 + ^ x22: .cfa -32 + ^ x23: .cfa -40 + ^ x24: .cfa -48 + ^ .ra: .cfa -56 + ^ x29: .cfa -64 + ^
STACK CFI 150b0 .cfa: sp 64 +
STACK CFI 150c0 .cfa: sp 0 +
STACK CFI 150c4 .cfa: x29 64 +
STACK CFI INIT 15298 14 .cfa: sp 0 +
STACK CFI 1529c .cfa: sp 16 +
STACK CFI 152a0 .cfa: x29 16 + .ra: .cfa -8 + ^ x29: .cfa -16 + ^
STACK CFI INIT 152f8 118 .cfa: sp 0 +
STACK CFI 152fc .cfa: sp 80 +
STACK CFI 1530c .cfa: x29 48 + x19: .cfa -8 + ^ x20: .cfa -16 + ^ x21: .cfa -24 + ^ x22: .cfa -32 + ^ .ra: .cfa -40 + ^ x29: .cfa -48 + ^
STACK CFI 153d0 .cfa: sp 80 +
STACK CFI 153e0 .cfa: sp 0 +
STACK CFI 153e4 .cfa: x29 48 +
STACK CFI INIT 15410 2fc .cfa: sp 0 +
STACK CFI 15414 .cfa: sp 80 +
STACK CFI 15428 .cfa: x29 80 + x19: .cfa -8 + ^ x20: .cfa -16 + ^ x21: .cfa -24 + ^ x22: .cfa -32 + ^ x23: .cfa -40 + ^ x24: .cfa -48 + ^ x25: .cfa -64 + ^ .ra: .cfa -72 + ^ x29: .cfa -80 + ^
STACK CFI 15568 .cfa: sp 80 +
STACK CFI 1557c .cfa: sp 0 +
STACK CFI 15580 .cfa: x29 80 +
STACK CFI 156ec .cfa: sp 80 +
STACK CFI 15700 .cfa: sp 0 +
STACK CFI 15704 .cfa: x29 80 +
STACK CFI INIT 1570c 348 .cfa: sp 0 +
STACK CFI 15710 .cfa: sp 32 +
STACK CFI 15718 .cfa: x29 32 + x19: .cfa -16 + ^ .ra: .cfa -24 + ^ x29: .cfa -32 + ^
STACK CFI 15a10 .cfa: sp 32 +
STACK CFI 15a18 .cfa: sp 0 +
STACK CFI 15a1c .cfa: x29 32 +
STACK CFI INIT 15a54 208 .cfa: sp 0 +
STACK CFI 15a58 .cfa: sp 80 +
STACK CFI 15a6c .cfa: x29 80 + x19: .cfa -8 + ^ x20: .cfa -16 + ^ x21: .cfa -24 + ^ x22: .cfa -32 + ^ x23: .cfa -40 + ^ x24: .cfa -48 + ^ x25: .cfa -64 + ^ .ra: .cfa -72 + ^ x29: .cfa -80 + ^
STACK CFI 15c3c .cfa: sp 80 +
STACK CFI 15c50 .cfa: sp 0 +
STACK CFI 15c54 .cfa: x29 80 +
STACK CFI INIT 161ac 19c .cfa: sp 0 +
STACK CFI 161b0 .cfa: sp 64 +
STACK CFI 161c0 .cfa: x29 64 + x19: .cfa -8 + ^ x20: .cfa -16 + ^ x21: .cfa -24 + ^ x22: .cfa -32 + ^ x23: .cfa -40 + ^ x24: .cfa -48 + ^ .ra: .cfa -56 + ^ x29: .cfa -64 + ^
STACK CFI 1632c .cfa: sp 64 +
STACK CFI 1633c .cfa: sp 0 +
STACK CFI 16340 .cfa: x29 64 +
STACK CFI INIT 16348 14 .cfa: sp 0 +
STACK CFI 1634c .cfa: sp 16 +
STACK CFI 16350 .cfa: x29 16 + .ra: .cfa -8 + ^ x29: .cfa -16 + ^
STACK CFI INIT 1635c 14 .cfa: sp 0 +
STACK CFI 16360 .cfa: sp 16 +
STACK CFI 16364 .cfa: x29 16 + .ra: .cfa -8 + ^ x29: .cfa -16 + ^
STACK CFI INIT 16370 48 .cfa: sp 0 +
STACK CFI 1638c .cfa: sp 32 +
STACK CFI 16394 .cfa: x29 32 + x19: .cfa -16 + ^ .ra: .cfa -24 + ^ x29: .cfa -32 + ^
STACK CFI 163ac .cfa: sp 32 +
STACK CFI 163b4 .cfa: sp 0 +
STACK CFI INIT 163b8 30 .cfa: sp 0 +
STACK CFI INIT 163e8 48 .cfa: sp 0 +
STACK CFI 16404 .cfa: sp 32 +
STACK CFI 1640c .cfa: x29 32 + x19: .cfa -16 + ^ .ra: .cfa -24 + ^ x29: .cfa -32 + ^
STACK CFI 16424 .cfa: sp 32 +
STACK CFI 1642c .cfa: sp 0 +
STACK CFI INIT 16430 38 .cfa: sp 0 +
STACK CFI INIT 16640 68 .cfa: sp 0 +
STACK CFI 16644 .cfa: sp 32 +
STACK CFI 1664c .cfa: x29 32 + x19: .cfa -16 + ^ .ra: .cfa -24 + ^ x29: .cfa -32 + ^
STACK CFI 1669c .cfa: sp 32 +
STACK CFI 166a4 .cfa: sp 0 +
STACK CFI INIT 166a8 1c4 .cfa: sp 0 +
STACK CFI INIT 1686c c4 .cfa: sp 0 +
STACK CFI INIT 16930 68 .cfa: sp 0 +
STACK CFI 16934 .cfa: sp 32 +
STACK CFI 1693c .cfa: x29 32 + x19: .cfa -16 + ^ .ra: .cfa -24 + ^ x29: .cfa -32 + ^
STACK CFI 1698c .cfa: sp 32 +
STACK CFI 16994 .cfa: sp 0 +
STACK CFI INIT 16998 4 .cfa: sp 0 +
STACK CFI INIT 1699c 14 .cfa: sp 0 +
STACK CFI INIT 169b0 6c .cfa: sp 0 +
STACK CFI 169b4 .cfa: sp 32 +
STACK CFI 169bc .cfa: x29 32 + x19: .cfa -16 + ^ .ra: .cfa -24 + ^ x29: .cfa -32 + ^
STACK CFI 16a04 .cfa: sp 32 +
STACK CFI 16a0c .cfa: sp 0 +
STACK CFI 16a10 .cfa: sp 32 +
STACK CFI 16a18 .cfa: sp 0 +
STACK CFI INIT 16a1c 68 .cfa: sp 0 +
STACK CFI 16a20 .cfa: sp 32 +
STACK CFI 16a28 .cfa: x29 32 + x19: .cfa -16 + ^ .ra: .cfa -24 + ^ x29: .cfa -32 + ^
STACK CFI 16a78 .cfa: sp 32 +
STACK CFI 16a80 .cfa: sp 0 +
STACK CFI INIT 16a84 c .cfa: sp 0 +
STACK CFI INIT 16a90 24 .cfa: sp 0 +
STACK CFI INIT 16ab4 4 .cfa: sp 0 +
STACK CFI INIT 16ab8 4 .cfa: sp 0 +
STACK CFI INIT 16abc 14 .cfa: sp 0 +
STACK CFI INIT 16b1c 2c8 .cfa: sp 0 +
STACK CFI 16b20 .cfa: sp 64 +
STACK CFI 16b30 .cfa: x29 64 + x19: .cfa -8 + ^ x20: .cfa -16 + ^ x21: .cfa -24 + ^ x22: .cfa -32 + ^ x23: .cfa -40 + ^ x24: .cfa -48 + ^ .ra: .cfa -56 + ^ x29: .cfa -64 + ^
STACK CFI 16dc8 .cfa: sp 64 +
STACK CFI 16dd8 .cfa: sp 0 +
STACK CFI 16ddc .cfa: x29 64 +
STACK CFI INIT 16de4 23c .cfa: sp 0 +
STACK CFI 16de8 .cfa: sp 32 +
STACK CFI 16df0 .cfa: x29 32 + x19: .cfa -16 + ^ .ra: .cfa -24 + ^ x29: .cfa -32 + ^
STACK CFI 16e28 .cfa: sp 32 +
STACK CFI 16e30 .cfa: sp 0 +
STACK CFI 16e34 .cfa: x29 32 +
STACK CFI INIT 17020 2c .cfa: sp 0 +
STACK CFI INIT 1704c 48 .cfa: sp 0 +
STACK CFI 17068 .cfa: sp 32 +
STACK CFI 17070 .cfa: x29 32 + x19: .cfa -16 + ^ .ra: .cfa -24 + ^ x29: .cfa -32 + ^
STACK CFI 17088 .cfa: sp 32 +
STACK CFI 17090 .cfa: sp 0 +
STACK CFI INIT 17094 40 .cfa: sp 0 +
STACK CFI INIT 170d4 60 .cfa: sp 0 +
STACK CFI 170d8 .cfa: sp 16 +
STACK CFI 170dc .cfa: x29 16 + .ra: .cfa -8 + ^ x29: .cfa -16 + ^
STACK CFI 1711c .cfa: sp 16 +
STACK CFI 17120 .cfa: sp 0 +
STACK CFI 17124 .cfa: x29 16 +
STACK CFI 17128 .cfa: sp 16 +
STACK CFI 1712c .cfa: sp 0 +
STACK CFI 17130 .cfa: x29 16 +
STACK CFI INIT 17134 34c .cfa: sp 0 +
STACK CFI 17138 .cfa: sp 80 +
STACK CFI 1714c .cfa: x29 80 + x19: .cfa -8 + ^ x20: .cfa -16 + ^ x21: .cfa -24 + ^ x22: .cfa -32 + ^ x23: .cfa -40 + ^ x24: .cfa -48 + ^ x25: .cfa -64 + ^ .ra: .cfa -72 + ^ x29: .cfa -80 + ^
STACK CFI 17448 .cfa: sp 80 +
STACK CFI 1745c .cfa: sp 0 +
STACK CFI 17460 .cfa: x29 80 +
STACK CFI 17464 .cfa: sp 80 +
STACK CFI 17478 .cfa: sp 0 +
STACK CFI 1747c .cfa: x29 80 +
STACK CFI INIT 17480 30 .cfa: sp 0 +
STACK CFI 17484 .cfa: sp 32 +
STACK CFI 1748c .cfa: x29 32 + x19: .cfa -16 + ^ .ra: .cfa -24 + ^ x29: .cfa -32 + ^
STACK CFI 174a4 .cfa: sp 32 +
STACK CFI 174ac .cfa: sp 0 +
STACK CFI INIT 174b0 30 .cfa: sp 0 +
STACK CFI 174b4 .cfa: sp 32 +
STACK CFI 174bc .cfa: x29 32 + x19: .cfa -16 + ^ .ra: .cfa -24 + ^ x29: .cfa -32 + ^
STACK CFI 174d4 .cfa: sp 32 +
STACK CFI 174dc .cfa: sp 0 +
STACK CFI INIT 9850 920 .cfa: sp 0 +
STACK CFI 9854 .cfa: sp 240 +
STACK CFI 9870 .cfa: x29 96 + x19: .cfa -8 + ^ x20: .cfa -16 + ^ x21: .cfa -24 + ^ x22: .cfa -32 + ^ x23: .cfa -40 + ^ x24: .cfa -48 + ^ x25: .cfa -56 + ^ x26: .cfa -64 + ^ x27: .cfa -72 + ^ x28: .cfa -80 + ^ .ra: .cfa -88 + ^ x29: .cfa -96 + ^
STACK CFI a060 .cfa: sp 240 +
STACK CFI a07c .cfa: sp 0 +
STACK CFI a080 .cfa: x29 96 +
STACK CFI INIT a188 5e8 .cfa: sp 0 +
STACK CFI a18c .cfa: sp 304 +
STACK CFI a1a8 .cfa: x29 96 + x19: .cfa -8 + ^ x20: .cfa -16 + ^ x21: .cfa -24 + ^ x22: .cfa -32 + ^ x23: .cfa -40 + ^ x24: .cfa -48 + ^ x25: .cfa -56 + ^ x26: .cfa -64 + ^ x27: .cfa -72 + ^ x28: .cfa -80 + ^ .ra: .cfa -88 + ^ x29: .cfa -96 + ^
STACK CFI a690 .cfa: sp 304 +
STACK CFI a6ac .cfa: sp 0 +
STACK CFI a6b0 .cfa: x29 96 +
STACK CFI INIT a7c0 74 .cfa: sp 0 +
STACK CFI a7c4 .cfa: sp 48 +
STACK CFI a7d0 .cfa: x29 32 + x19: .cfa -8 + ^ x20: .cfa -16 + ^ .ra: .cfa -24 + ^ x29: .cfa -32 + ^
STACK CFI a81c .cfa: sp 48 +
STACK CFI a828 .cfa: sp 0 +
STACK CFI a82c .cfa: x29 32 +
STACK CFI INIT a8c4 708 .cfa: sp 0 +
STACK CFI a8c8 .cfa: sp 496 +
STACK CFI a8e4 .cfa: x29 96 + x19: .cfa -8 + ^ x20: .cfa -16 + ^ x21: .cfa -24 + ^ x22: .cfa -32 + ^ x23: .cfa -40 + ^ x24: .cfa -48 + ^ x25: .cfa -56 + ^ x26: .cfa -64 + ^ x27: .cfa -72 + ^ x28: .cfa -80 + ^ .ra: .cfa -88 + ^ x29: .cfa -96 + ^
STACK CFI ae9c .cfa: sp 496 +
STACK CFI aeb8 .cfa: sp 0 +
STACK CFI aebc .cfa: x29 96 +
STACK CFI INIT b0b8 50 .cfa: sp 0 +
STACK CFI b0bc .cfa: sp 32 +
STACK CFI b0c4 .cfa: x29 32 + x19: .cfa -8 + ^ x20: .cfa -16 + ^ .ra: .cfa -24 + ^ x29: .cfa -32 + ^
STACK CFI INIT b1f0 48 .cfa: sp 0 +
STACK CFI b1f4 .cfa: sp 32 +
STACK CFI b1fc .cfa: x29 32 + x19: .cfa -8 + ^ x20: .cfa -16 + ^ .ra: .cfa -24 + ^ x29: .cfa -32 + ^
STACK CFI INIT b270 1ac .cfa: sp 0 +
STACK CFI b274 .cfa: sp 128 +
STACK CFI b28c .cfa: x29 80 + x19: .cfa -8 + ^ x20: .cfa -16 + ^ x21: .cfa -24 + ^ x22: .cfa -32 + ^ x23: .cfa -40 + ^ x24: .cfa -48 + ^ x25: .cfa -64 + ^ .ra: .cfa -72 + ^ x29: .cfa -80 + ^
STACK CFI b3b0 .cfa: sp 128 +
STACK CFI b3c8 .cfa: sp 0 +
STACK CFI b3cc .cfa: x29 80 +
STACK CFI INIT b5b4 6a0 .cfa: sp 0 +
STACK CFI b5b8 .cfa: sp 368 +
STACK CFI b5d4 .cfa: x29 96 + x19: .cfa -8 + ^ x20: .cfa -16 + ^ x21: .cfa -24 + ^ x22: .cfa -32 + ^ x23: .cfa -40 + ^ x24: .cfa -48 + ^ x25: .cfa -56 + ^ x26: .cfa -64 + ^ x28: .cfa -80 + ^ .ra: .cfa -88 + ^ x29: .cfa -96 + ^
STACK CFI b62c .cfa: sp 368 +
STACK CFI b648 .cfa: sp 0 +
STACK CFI b64c .cfa: x29 96 +
STACK CFI bbd8 .cfa: sp 368 +
STACK CFI bbf4 .cfa: sp 0 +
STACK CFI bbf8 .cfa: x29 96 +
STACK CFI INIT bd08 59c .cfa: sp 0 +
STACK CFI bd0c .cfa: sp 176 +
STACK CFI bd28 .cfa: x29 96 + x19: .cfa -8 + ^ x20: .cfa -16 + ^ x21: .cfa -24 + ^ x22: .cfa -32 + ^ x23: .cfa -40 + ^ x24: .cfa -48 + ^ x25: .cfa -56 + ^ x26: .cfa -64 + ^ x27: .cfa -72 + ^ x28: .cfa -80 + ^ .ra: .cfa -88 + ^ x29: .cfa -96 + ^
STACK CFI c144 .cfa: sp 176 +
STACK CFI c160 .cfa: sp 0 +
STACK CFI c164 .cfa: x29 96 +
STACK CFI INIT c3cc 738 .cfa: sp 0 +
STACK CFI c3d0 .cfa: sp 320 +
STACK CFI c3ec .cfa: x29 96 + x19: .cfa -8 + ^ x20: .cfa -16 + ^ x21: .cfa -24 + ^ x22: .cfa -32 + ^ x23: .cfa -40 + ^ x24: .cfa -48 + ^ x25: .cfa -56 + ^ x26: .cfa -64 + ^ x27: .cfa -72 + ^ x28: .cfa -80 + ^ .ra: .cfa -88 + ^ x29: .cfa -96 + ^
STACK CFI ca84 .cfa: sp 320 +
STACK CFI caa0 .cfa: sp 0 +
STACK CFI caa4 .cfa: x29 96 +
STACK CFI INIT cb04 b4 .cfa: sp 0 +
STACK CFI cb08 .cfa: sp 48 +
STACK CFI cb14 .cfa: x29 48 + x19: .cfa -8 + ^ x20: .cfa -16 + ^ x21: .cfa -24 + ^ x22: .cfa -32 + ^ .ra: .cfa -40 + ^ x29: .cfa -48 + ^
STACK CFI cb80 .cfa: sp 48 +
STACK CFI cb8c .cfa: sp 0 +
STACK CFI cb90 .cfa: x29 48 +
STACK CFI INIT d0d0 440 .cfa: sp 0 +
STACK CFI d0d4 .cfa: sp 256 +
STACK CFI d0f0 .cfa: x29 96 + x19: .cfa -8 + ^ x20: .cfa -16 + ^ x21: .cfa -24 + ^ x22: .cfa -32 + ^ x23: .cfa -40 + ^ x24: .cfa -48 + ^ x25: .cfa -56 + ^ x26: .cfa -64 + ^ x27: .cfa -80 + ^ .ra: .cfa -88 + ^ x29: .cfa -96 + ^
STACK CFI d414 .cfa: sp 256 +
STACK CFI d430 .cfa: sp 0 +
STACK CFI d434 .cfa: x29 96 +
STACK CFI INIT d510 ce0 .cfa: sp 0 +
STACK CFI d514 .cfa: sp 352 +
STACK CFI d530 .cfa: x29 96 + x19: .cfa -8 + ^ x20: .cfa -16 + ^ x21: .cfa -24 + ^ x22: .cfa -32 + ^ x23: .cfa -40 + ^ x24: .cfa -48 + ^ x25: .cfa -56 + ^ x26: .cfa -64 + ^ x27: .cfa -72 + ^ x28: .cfa -80 + ^ .ra: .cfa -88 + ^ x29: .cfa -96 + ^
STACK CFI e0dc .cfa: sp 352 +
STACK CFI e0f8 .cfa: sp 0 +
STACK CFI e0fc .cfa: x29 96 +
STACK CFI INIT e1f0 9c8 .cfa: sp 0 +
STACK CFI e1f4 .cfa: sp 400 +
STACK CFI e210 .cfa: x29 96 + x19: .cfa -8 + ^ x20: .cfa -16 + ^ x21: .cfa -24 + ^ x22: .cfa -32 + ^ x23: .cfa -40 + ^ x24: .cfa -48 + ^ x25: .cfa -56 + ^ x26: .cfa -64 + ^ x27: .cfa -72 + ^ x28: .cfa -80 + ^ .ra: .cfa -88 + ^ x29: .cfa -96 + ^
STACK CFI eadc .cfa: sp 400 +
STACK CFI eaf8 .cfa: sp 0 +
STACK CFI eafc .cfa: x29 96 +
STACK CFI INIT ebfc 4c .cfa: sp 0 +
STACK CFI ec00 .cfa: sp 32 +
STACK CFI ec08 .cfa: x29 32 + x19: .cfa -8 + ^ x20: .cfa -16 + ^ .ra: .cfa -24 + ^ x29: .cfa -32 + ^
STACK CFI INIT ec48 170 .cfa: sp 0 +
STACK CFI ec4c .cfa: sp 80 +
STACK CFI ec60 .cfa: x29 80 + x19: .cfa -8 + ^ x20: .cfa -16 + ^ x21: .cfa -24 + ^ x22: .cfa -32 + ^ x23: .cfa -40 + ^ x24: .cfa -48 + ^ x25: .cfa -64 + ^ .ra: .cfa -72 + ^ x29: .cfa -80 + ^
STACK CFI ed54 .cfa: sp 80 +
STACK CFI ed68 .cfa: sp 0 +
STACK CFI ed6c .cfa: x29 80 +
STACK CFI INIT edb8 4c .cfa: sp 0 +
STACK CFI edbc .cfa: sp 32 +
STACK CFI edc4 .cfa: x29 32 + x19: .cfa -8 + ^ x20: .cfa -16 + ^ .ra: .cfa -24 + ^ x29: .cfa -32 + ^
STACK CFI INIT f4f8 5b4 .cfa: sp 0 +
STACK CFI f4fc .cfa: sp 112 +
STACK CFI f518 .cfa: x29 96 + x19: .cfa -8 + ^ x20: .cfa -16 + ^ x21: .cfa -24 + ^ x22: .cfa -32 + ^ x23: .cfa -40 + ^ x24: .cfa -48 + ^ x25: .cfa -56 + ^ x26: .cfa -64 + ^ x27: .cfa -80 + ^ .ra: .cfa -88 + ^ x29: .cfa -96 + ^
STACK CFI f78c .cfa: sp 112 +
STACK CFI f7a8 .cfa: sp 0 +
STACK CFI f7ac .cfa: x29 96 +
STACK CFI f994 .cfa: sp 112 +
STACK CFI f9b0 .cfa: sp 0 +
STACK CFI f9b4 .cfa: x29 96 +
STACK CFI INIT ffb0 690 .cfa: sp 0 +
STACK CFI ffb4 .cfa: sp 112 +
STACK CFI ffd0 .cfa: x29 96 + x19: .cfa -8 + ^ x20: .cfa -16 + ^ x21: .cfa -24 + ^ x22: .cfa -32 + ^ x23: .cfa -40 + ^ x24: .cfa -48 + ^ x25: .cfa -56 + ^ x26: .cfa -64 + ^ x27: .cfa -72 + ^ x28: .cfa -80 + ^ .ra: .cfa -88 + ^ x29: .cfa -96 + ^
STACK CFI 100ec .cfa: sp 112 +
STACK CFI 10108 .cfa: sp 0 +
STACK CFI 1010c .cfa: x29 96 +
STACK CFI 10118 .cfa: sp 112 +
STACK CFI 10134 .cfa: sp 0 +
STACK CFI 10138 .cfa: x29 96 +
STACK CFI 105d8 .cfa: sp 112 +
STACK CFI 105f4 .cfa: sp 0 +
STACK CFI 105f8 .cfa: x29 96 +
STACK CFI INIT 10640 4c .cfa: sp 0 +
STACK CFI 10644 .cfa: sp 32 +
STACK CFI 1064c .cfa: x29 32 + x19: .cfa -8 + ^ x20: .cfa -16 + ^ .ra: .cfa -24 + ^ x29: .cfa -32 + ^
STACK CFI INIT 10bf0 4c .cfa: sp 0 +
STACK CFI 10bf4 .cfa: sp 32 +
STACK CFI 10bfc .cfa: x29 32 + x19: .cfa -8 + ^ x20: .cfa -16 + ^ .ra: .cfa -24 + ^ x29: .cfa -32 + ^
STACK CFI INIT 10d54 364 .cfa: sp 0 +
STACK CFI 10d58 .cfa: sp 144 +
STACK CFI 10d6c .cfa: x29 64 + x19: .cfa -8 + ^ x20: .cfa -16 + ^ x21: .cfa -24 + ^ x22: .cfa -32 + ^ x23: .cfa -48 + ^ .ra: .cfa -56 + ^ x29: .cfa -64 + ^
STACK CFI 10f00 .cfa: sp 144 +
STACK CFI 10f14 .cfa: sp 0 +
STACK CFI 10f18 .cfa: x29 64 +
STACK CFI INIT 110b8 580 .cfa: sp 0 +
STACK CFI 110bc .cfa: sp 64 +
STACK CFI 110cc .cfa: x29 64 + x19: .cfa -8 + ^ x20: .cfa -16 + ^ x21: .cfa -24 + ^ x22: .cfa -32 + ^ x23: .cfa -48 + ^ .ra: .cfa -56 + ^ x29: .cfa -64 + ^
STACK CFI 1120c .cfa: sp 64 +
STACK CFI 1121c .cfa: sp 0 +
STACK CFI 11220 .cfa: x29 64 +
STACK CFI 113a0 .cfa: sp 64 +
STACK CFI 113b0 .cfa: sp 0 +
STACK CFI 113b4 .cfa: x29 64 +
STACK CFI INIT 11998 6c .cfa: sp 0 +
STACK CFI 1199c .cfa: sp 32 +
STACK CFI 119a4 .cfa: x29 32 + x19: .cfa -8 + ^ x20: .cfa -16 + ^ .ra: .cfa -24 + ^ x29: .cfa -32 + ^
STACK CFI 119e4 .cfa: sp 32 +
STACK CFI 119ec .cfa: sp 0 +
STACK CFI 119f0 .cfa: x29 32 +
STACK CFI INIT 11ab8 4c .cfa: sp 0 +
STACK CFI 11abc .cfa: sp 32 +
STACK CFI 11ac4 .cfa: x29 32 + x19: .cfa -8 + ^ x20: .cfa -16 + ^ .ra: .cfa -24 + ^ x29: .cfa -32 + ^
STACK CFI INIT 11f24 1d0 .cfa: sp 0 +
STACK CFI 11f28 .cfa: sp 176 +
STACK CFI 11f38 .cfa: x29 48 + x19: .cfa -8 + ^ x20: .cfa -16 + ^ x21: .cfa -24 + ^ x22: .cfa -32 + ^ .ra: .cfa -40 + ^ x29: .cfa -48 + ^
STACK CFI 1208c .cfa: sp 176 +
STACK CFI 1209c .cfa: sp 0 +
STACK CFI 120a0 .cfa: x29 48 +
STACK CFI 120b0 .cfa: sp 176 +
STACK CFI 120c0 .cfa: sp 0 +
STACK CFI 120c4 .cfa: x29 48 +
STACK CFI INIT 120f4 f2c .cfa: sp 0 +
STACK CFI 120f8 .cfa: sp 400 +
STACK CFI 12114 .cfa: x29 96 + x19: .cfa -8 + ^ x20: .cfa -16 + ^ x21: .cfa -24 + ^ x22: .cfa -32 + ^ x23: .cfa -40 + ^ x24: .cfa -48 + ^ x25: .cfa -56 + ^ x26: .cfa -64 + ^ x27: .cfa -72 + ^ x28: .cfa -80 + ^ .ra: .cfa -88 + ^ x29: .cfa -96 + ^
STACK CFI 12da0 .cfa: sp 400 +
STACK CFI 12dbc .cfa: sp 0 +
STACK CFI 12dc0 .cfa: x29 96 +
STACK CFI INIT 13020 4c .cfa: sp 0 +
STACK CFI 13024 .cfa: sp 32 +
STACK CFI 1302c .cfa: x29 32 + x19: .cfa -8 + ^ x20: .cfa -16 + ^ .ra: .cfa -24 + ^ x29: .cfa -32 + ^
STACK CFI INIT 130b4 4c .cfa: sp 0 +
STACK CFI 130b8 .cfa: sp 32 +
STACK CFI 130c0 .cfa: x29 32 + x19: .cfa -8 + ^ x20: .cfa -16 + ^ .ra: .cfa -24 + ^ x29: .cfa -32 + ^
STACK CFI INIT 13568 140 .cfa: sp 0 +
STACK CFI 1356c .cfa: sp 48 +
STACK CFI 13578 .cfa: x29 48 + x19: .cfa -8 + ^ x20: .cfa -16 + ^ x21: .cfa -32 + ^ .ra: .cfa -40 + ^ x29: .cfa -48 + ^
STACK CFI 13658 .cfa: sp 48 +
STACK CFI 13664 .cfa: sp 0 +
STACK CFI 13668 .cfa: x29 48 +
STACK CFI INIT 136a8 4c .cfa: sp 0 +
STACK CFI 136ac .cfa: sp 32 +
STACK CFI 136b4 .cfa: x29 32 + x19: .cfa -8 + ^ x20: .cfa -16 + ^ .ra: .cfa -24 + ^ x29: .cfa -32 + ^
STACK CFI INIT 13fac 1bc .cfa: sp 0 +
STACK CFI 13fb0 .cfa: sp 128 +
STACK CFI 13fc8 .cfa: x29 80 + x19: .cfa -8 + ^ x20: .cfa -16 + ^ x21: .cfa -24 + ^ x22: .cfa -32 + ^ x23: .cfa -40 + ^ x24: .cfa -48 + ^ x25: .cfa -64 + ^ .ra: .cfa -72 + ^ x29: .cfa -80 + ^
STACK CFI 140b8 .cfa: sp 128 +
STACK CFI 140d0 .cfa: sp 0 +
STACK CFI 140d4 .cfa: x29 80 +
STACK CFI INIT 1435c b68 .cfa: sp 0 +
STACK CFI 14360 .cfa: sp 256 +
STACK CFI 1437c .cfa: x29 96 + x19: .cfa -8 + ^ x20: .cfa -16 + ^ x21: .cfa -24 + ^ x22: .cfa -32 + ^ x23: .cfa -40 + ^ x24: .cfa -48 + ^ x25: .cfa -56 + ^ x26: .cfa -64 + ^ x27: .cfa -72 + ^ x28: .cfa -80 + ^ .ra: .cfa -88 + ^ x29: .cfa -96 + ^
STACK CFI 14db4 .cfa: sp 256 +
STACK CFI 14dd0 .cfa: sp 0 +
STACK CFI 14dd4 .cfa: x29 96 +
STACK CFI INIT 150c8 1d0 .cfa: sp 0 +
STACK CFI 150cc .cfa: sp 112 +
STACK CFI 150e4 .cfa: x29 80 + x19: .cfa -8 + ^ x20: .cfa -16 + ^ x21: .cfa -24 + ^ x22: .cfa -32 + ^ x23: .cfa -40 + ^ x24: .cfa -48 + ^ x25: .cfa -64 + ^ .ra: .cfa -72 + ^ x29: .cfa -80 + ^
STACK CFI 15220 .cfa: sp 112 +
STACK CFI 15238 .cfa: sp 0 +
STACK CFI 1523c .cfa: x29 80 +
STACK CFI INIT 152ac 4c .cfa: sp 0 +
STACK CFI 152b0 .cfa: sp 32 +
STACK CFI 152b8 .cfa: x29 32 + x19: .cfa -8 + ^ x20: .cfa -16 + ^ .ra: .cfa -24 + ^ x29: .cfa -32 + ^
STACK CFI INIT 15c5c 4c .cfa: sp 0 +
STACK CFI 15c60 .cfa: sp 32 +
STACK CFI 15c68 .cfa: x29 32 + x19: .cfa -8 + ^ x20: .cfa -16 + ^ .ra: .cfa -24 + ^ x29: .cfa -32 + ^
STACK CFI INIT 15ca8 2ac .cfa: sp 0 +
STACK CFI 15cac .cfa: sp 144 +
STACK CFI 15cc4 .cfa: x29 80 + x19: .cfa -8 + ^ x20: .cfa -16 + ^ x21: .cfa -24 + ^ x22: .cfa -32 + ^ x23: .cfa -40 + ^ x24: .cfa -48 + ^ x25: .cfa -64 + ^ .ra: .cfa -72 + ^ x29: .cfa -80 + ^
STACK CFI 15edc .cfa: sp 144 +
STACK CFI 15ef4 .cfa: sp 0 +
STACK CFI 15ef8 .cfa: x29 80 +
STACK CFI INIT 15f54 4c .cfa: sp 0 +
STACK CFI 15f58 .cfa: sp 32 +
STACK CFI 15f60 .cfa: x29 32 + x19: .cfa -8 + ^ x20: .cfa -16 + ^ .ra: .cfa -24 + ^ x29: .cfa -32 + ^
STACK CFI INIT 15fa0 1c0 .cfa: sp 0 +
STACK CFI 15fa4 .cfa: sp 112 +
STACK CFI 15fbc .cfa: x29 80 + x19: .cfa -8 + ^ x20: .cfa -16 + ^ x21: .cfa -24 + ^ x22: .cfa -32 + ^ x23: .cfa -40 + ^ x24: .cfa -48 + ^ x25: .cfa -64 + ^ .ra: .cfa -72 + ^ x29: .cfa -80 + ^
STACK CFI 16100 .cfa: sp 112 +
STACK CFI 16118 .cfa: sp 0 +
STACK CFI 1611c .cfa: x29 80 +
STACK CFI INIT 16160 4c .cfa: sp 0 +
STACK CFI 16164 .cfa: sp 32 +
STACK CFI 1616c .cfa: x29 32 + x19: .cfa -8 + ^ x20: .cfa -16 + ^ .ra: .cfa -24 + ^ x29: .cfa -32 + ^
STACK CFI INIT 16468 140 .cfa: sp 0 +
STACK CFI 1646c .cfa: sp 96 +
STACK CFI 16484 .cfa: x29 96 + x19: .cfa -8 + ^ x20: .cfa -16 + ^ x21: .cfa -24 + ^ x22: .cfa -32 + ^ x23: .cfa -40 + ^ x24: .cfa -48 + ^ x25: .cfa -56 + ^ x26: .cfa -64 + ^ x27: .cfa -72 + ^ x28: .cfa -80 + ^ .ra: .cfa -88 + ^ x29: .cfa -96 + ^
STACK CFI 16540 .cfa: sp 96 +
STACK CFI 16558 .cfa: sp 0 +
STACK CFI 1655c .cfa: x29 96 +
STACK CFI INIT 165a8 4c .cfa: sp 0 +
STACK CFI 165ac .cfa: sp 32 +
STACK CFI 165b4 .cfa: x29 32 + x19: .cfa -8 + ^ x20: .cfa -16 + ^ .ra: .cfa -24 + ^ x29: .cfa -32 + ^
STACK CFI INIT 165f4 4c .cfa: sp 0 +
STACK CFI 165f8 .cfa: sp 32 +
STACK CFI 16600 .cfa: x29 32 + x19: .cfa -8 + ^ x20: .cfa -16 + ^ .ra: .cfa -24 + ^ x29: .cfa -32 + ^
STACK CFI INIT 16ad0 4c .cfa: sp 0 +
STACK CFI 16ad4 .cfa: sp 32 +
STACK CFI 16adc .cfa: x29 32 + x19: .cfa -8 + ^ x20: .cfa -16 + ^ .ra: .cfa -24 + ^ x29: .cfa -32 + ^
