MODULE Linux arm64 BB9C299177068C29FD12EEF2C1B04C0C0 undefined0.editormusic.android64.so
INFO CODE_ID 91299CBB0677298CFD12EEF2C1B04C0C5300858E
INFO GENERATOR mozilla/dump_syms 2.3.4
PUBLIC 3a5e0 0 __on_dlclose
PUBLIC 3a5f0 0 __emutls_unregister_key
PUBLIC 3a5f8 0 __on_dlclose_late
PUBLIC 3a600 0 __atexit_handler_wrapper
PUBLIC 3a614 0 atexit
PUBLIC 3a630 0 pthread_atfork
PUBLIC 3a640 0 unwind_phase2
PUBLIC 3a774 0 _Unwind_Resume
PUBLIC 3a7f8 0 unwind_phase2_forced
PUBLIC m 3a8ec 0 __unw_init_local
PUBLIC m 3a994 0 __unw_get_reg
PUBLIC 3aa10 0 __unw_step_stage2
PUBLIC m 3aa24 0 __unw_get_proc_info
PUBLIC m 3aa64 0 __unw_resume
PUBLIC 3aa8c 0 libunwind::CFI_Parser<libunwind::LocalAddressSpace>::decodeFDE(libunwind::LocalAddressSpace&, unsigned long, libunwind::CFI_Parser<libunwind::LocalAddressSpace>::FDE_Info*, libunwind::CFI_Parser<libunwind::LocalAddressSpace>::CIE_Info*, bool)
PUBLIC 3ac1c 0 libunwind::CFI_Parser<libunwind::LocalAddressSpace>::parseCIE(libunwind::LocalAddressSpace&, unsigned long, libunwind::CFI_Parser<libunwind::LocalAddressSpace>::CIE_Info*)
PUBLIC 3aee4 0 libunwind::AbstractUnwindCursor::~AbstractUnwindCursor()
PUBLIC 3aeec 0 libunwind::UnwindCursor<libunwind::LocalAddressSpace, libunwind::Registers_arm64>::~UnwindCursor()
PUBLIC 3aef4 0 libunwind::UnwindCursor<libunwind::LocalAddressSpace, libunwind::Registers_arm64>::validReg(int)
PUBLIC 3af38 0 libunwind::UnwindCursor<libunwind::LocalAddressSpace, libunwind::Registers_arm64>::getReg(int)
PUBLIC 3b020 0 libunwind::UnwindCursor<libunwind::LocalAddressSpace, libunwind::Registers_arm64>::setReg(int, unsigned long)
PUBLIC 3b108 0 libunwind::UnwindCursor<libunwind::LocalAddressSpace, libunwind::Registers_arm64>::validFloatReg(int)
PUBLIC 3b11c 0 libunwind::UnwindCursor<libunwind::LocalAddressSpace, libunwind::Registers_arm64>::getFloatReg(int)
PUBLIC 3b12c 0 libunwind::UnwindCursor<libunwind::LocalAddressSpace, libunwind::Registers_arm64>::setFloatReg(int, double)
PUBLIC 3b13c 0 libunwind::UnwindCursor<libunwind::LocalAddressSpace, libunwind::Registers_arm64>::step(bool)
PUBLIC 3b22c 0 libunwind::UnwindCursor<libunwind::LocalAddressSpace, libunwind::Registers_arm64>::getInfo(unw_proc_info_t*)
PUBLIC 3b270 0 libunwind::UnwindCursor<libunwind::LocalAddressSpace, libunwind::Registers_arm64>::jumpto()
PUBLIC 3b27c 0 libunwind::UnwindCursor<libunwind::LocalAddressSpace, libunwind::Registers_arm64>::isSignalFrame()
PUBLIC 3b288 0 libunwind::UnwindCursor<libunwind::LocalAddressSpace, libunwind::Registers_arm64>::getFunctionName(char*, unsigned long, unsigned long*)
PUBLIC 3b2b4 0 libunwind::UnwindCursor<libunwind::LocalAddressSpace, libunwind::Registers_arm64>::setInfoBasedOnIPRegister(bool)
PUBLIC 3b534 0 libunwind::UnwindCursor<libunwind::LocalAddressSpace, libunwind::Registers_arm64>::getRegisterName(int)
PUBLIC 3b540 0 libunwind::UnwindCursor<libunwind::LocalAddressSpace, libunwind::Registers_arm64>::stepThroughSigReturn(libunwind::Registers_arm64&)
PUBLIC 3b660 0 libunwind::DwarfInstructions<libunwind::LocalAddressSpace, libunwind::Registers_arm64>::stepWithDwarf(libunwind::LocalAddressSpace&, unsigned long, unsigned long, libunwind::Registers_arm64&, bool&, bool)
PUBLIC 3bae8 0 libunwind::CFI_Parser<libunwind::LocalAddressSpace>::parseFDEInstructions(libunwind::LocalAddressSpace&, libunwind::CFI_Parser<libunwind::LocalAddressSpace>::FDE_Info const&, libunwind::CFI_Parser<libunwind::LocalAddressSpace>::CIE_Info const&, unsigned long, int, libunwind::CFI_Parser<libunwind::LocalAddressSpace>::PrologInfo*)
PUBLIC 3c730 0 libunwind::DwarfInstructions<libunwind::LocalAddressSpace, libunwind::Registers_arm64>::getCFA(libunwind::LocalAddressSpace&, libunwind::CFI_Parser<libunwind::LocalAddressSpace>::PrologInfo const&, libunwind::Registers_arm64 const&)
PUBLIC 3c864 0 libunwind::DwarfInstructions<libunwind::LocalAddressSpace, libunwind::Registers_arm64>::getSavedRegister(libunwind::LocalAddressSpace&, libunwind::Registers_arm64 const&, unsigned long, libunwind::CFI_Parser<libunwind::LocalAddressSpace>::RegisterLocation const&)
PUBLIC 3ca74 0 libunwind::LocalAddressSpace::getEncodedP(unsigned long&, unsigned long, unsigned char, unsigned long)
PUBLIC 3ce00 0 libunwind::LocalAddressSpace::getULEB128(unsigned long&, unsigned long)
PUBLIC 3cfc8 0 libunwind::DwarfInstructions<libunwind::LocalAddressSpace, libunwind::Registers_arm64>::evaluateExpression(unsigned long, libunwind::LocalAddressSpace&, libunwind::Registers_arm64 const&, unsigned long)
PUBLIC 3d984 0 libunwind::UnwindCursor<libunwind::LocalAddressSpace, libunwind::Registers_arm64>::getInfoFromDwarfSection(unsigned long, libunwind::UnwindInfoSections const&, unsigned int)
PUBLIC 3dc58 0 libunwind::findUnwindSectionsByPhdr(dl_phdr_info*, unsigned long, void*)
PUBLIC 3dd8c 0 libunwind::EHHeaderParser<libunwind::LocalAddressSpace>::decodeEHHdr(libunwind::LocalAddressSpace&, unsigned long, unsigned long, libunwind::EHHeaderParser<libunwind::LocalAddressSpace>::EHHeaderInfo&)
PUBLIC 3deac 0 libunwind::CFI_Parser<libunwind::LocalAddressSpace>::findFDE(libunwind::LocalAddressSpace&, unsigned long, unsigned long, unsigned long, unsigned long, libunwind::CFI_Parser<libunwind::LocalAddressSpace>::FDE_Info*, libunwind::CFI_Parser<libunwind::LocalAddressSpace>::CIE_Info*)
PUBLIC 3e074 0 libunwind::EHHeaderParser<libunwind::LocalAddressSpace>::findFDE(libunwind::LocalAddressSpace&, unsigned long, unsigned long, unsigned int, libunwind::CFI_Parser<libunwind::LocalAddressSpace>::FDE_Info*, libunwind::CFI_Parser<libunwind::LocalAddressSpace>::CIE_Info*)
PUBLIC 3e1dc 0 libunwind::EHHeaderParser<libunwind::LocalAddressSpace>::getTableEntrySize(unsigned char)
PUBLIC 3e2d8 0 libunwind::Registers_arm64::getRegisterName(int)
PUBLIC 3e308 0 __libunwind_Registers_arm64_jumpto
PUBLIC m 3e398 0 __unw_getcontext
PUBLIC 3e440 0 __aarch64_ldadd8_acq_rel
PUBLIC 3e470 0 init_have_lse_atomics
PUBLIC 3e508 0 __init_cpu_features_constructor
PUBLIC 3eaa4 0 __init_cpu_features
PUBLIC 3eb30 0 __aarch64_ldadd8_relax
PUBLIC 3eb60 0 __cxx_global_var_init
PUBLIC 3ec14 0 AudioManager::~AudioManager()
PUBLIC 3ecbc 0 AudioManager::AudioManager()
PUBLIC 3ee60 0 std::__ndk1::vector<std::__ndk1::shared_ptr<AudioSource>, std::__ndk1::allocator<std::__ndk1::shared_ptr<AudioSource> > >::~vector[abi:ne180000]()
PUBLIC 3ef08 0 std::__ndk1::deque<std::__ndk1::shared_ptr<AudioSource>, std::__ndk1::allocator<std::__ndk1::shared_ptr<AudioSource> > >::~deque[abi:ne180000]()
PUBLIC 3f0c4 0 AudioManager::init()
PUBLIC 3f1b4 0 AudioManager::populateSongs()
PUBLIC 3f710 0 AudioManager::populateSongsThread()
PUBLIC 3fbc4 0 AudioManager::setupPreloadUIFromPath(std::__ndk1::__fs::filesystem::path)
PUBLIC 3ffa8 0 geode::Mod::getSettingValue<std::__ndk1::__fs::filesystem::path>(std::__ndk1::basic_string_view<char, std::__ndk1::char_traits<char> >) const
PUBLIC 4014c 0 AudioManager::populateSongsFromPath(std::__ndk1::__fs::filesystem::path)
PUBLIC 408f8 0 AudioManager::checkQueueLength()
PUBLIC 40fb0 0 AudioManager::checkSongPreload()
PUBLIC 4129c 0 std::__ndk1::__fs::filesystem::directory_iterator::~directory_iterator[abi:ne180000]()
PUBLIC 412ec 0 AudioManager::isValidAudioFile(std::__ndk1::__fs::filesystem::path)
PUBLIC 416e4 0 AudioManager::populateAudioSourceInfo(std::__ndk1::shared_ptr<AudioSource>)
PUBLIC 42ed0 0 std::__ndk1::shared_ptr<AudioSource>::~shared_ptr[abi:ne180000]()
PUBLIC 42f20 0 _ZNSt6__ndk14pairIKNS_12basic_stringIcNS_11char_traitsIcEENS_9allocatorIcEEEES6_EC2B8ne180000IRA5_KcSC_TnNS_9enable_ifIXclsr10_CheckArgsE17__enable_implicitIT_T0_EEEiE4typeELi0EEEOSE_OSF_
PUBLIC 43058 0 std::__ndk1::pair<std::__ndk1::basic_string<char, std::__ndk1::char_traits<char>, std::__ndk1::allocator<char> > const, std::__ndk1::basic_string<char, std::__ndk1::char_traits<char>, std::__ndk1::allocator<char> > >::~pair()
PUBLIC 4309c 0 std::__ndk1::map<std::__ndk1::basic_string<char, std::__ndk1::char_traits<char>, std::__ndk1::allocator<char> >, std::__ndk1::basic_string<char, std::__ndk1::char_traits<char>, std::__ndk1::allocator<char> >, std::__ndk1::less<std::__ndk1::basic_string<char, std::__ndk1::char_traits<char>, std::__ndk1::allocator<char> > >, std::__ndk1::allocator<std::__ndk1::pair<std::__ndk1::basic_string<char, std::__ndk1::char_traits<char>, std::__ndk1::allocator<char> > const, std::__ndk1::basic_string<char, std::__ndk1::char_traits<char>, std::__ndk1::allocator<char> > > > >::map[abi:ne180000](std::initializer_list<std::__ndk1::pair<std::__ndk1::basic_string<char, std::__ndk1::char_traits<char>, std::__ndk1::allocator<char> > const, std::__ndk1::basic_string<char, std::__ndk1::char_traits<char>, std::__ndk1::allocator<char> > > >, std::__ndk1::less<std::__ndk1::basic_string<char, std::__ndk1::char_traits<char>, std::__ndk1::allocator<char> > > const&)
PUBLIC 4339c 0 AudioManager::figureOutFallbackName(std::__ndk1::__fs::filesystem::path)
PUBLIC 43548 0 AudioManager::populateStringTag(FMOD_TAG, bool, std::__ndk1::shared_ptr<AudioSource>)
PUBLIC 43df4 0 AudioManager::filterNameThruRegex(std::__ndk1::basic_string<char, std::__ndk1::char_traits<char>, std::__ndk1::allocator<char> >)
PUBLIC 44560 0 geode::log::NestScope::~NestScope()
PUBLIC 445a0 0 std::__ndk1::basic_regex<char, std::__ndk1::regex_traits<char> >::~basic_regex()
PUBLIC 44600 0 AudioManager::nextSong()
PUBLIC 44900 0 AudioManager::startPlayingCurrentSong()
PUBLIC 4519c 0 AudioManager::prevSong()
PUBLIC 45864 0 AudioManager::fastForward()
PUBLIC 459a8 0 AudioManager::setPaused(bool)
PUBLIC 45ab8 0 AudioManager::update(float)
PUBLIC 46984 0 AudioManager::exitEditor()
PUBLIC 46c2c 0 geode::Mod::getSettingValue<bool>(std::__ndk1::basic_string_view<char, std::__ndk1::char_traits<char> >) const
PUBLIC 46d60 0 AudioManager::updateLowPassFilter()
PUBLIC 470c4 0 geode::Mod::getSavedValue<bool>(std::__ndk1::basic_string_view<char, std::__ndk1::char_traits<char> >, bool const&)
PUBLIC 472b0 0 std::__ndk1::basic_string<char, std::__ndk1::char_traits<char>, std::__ndk1::allocator<char> >::__throw_length_error[abi:ne180000]() const
PUBLIC 472c4 0 std::__ndk1::__throw_length_error[abi:ne180000](char const*)
PUBLIC 47314 0 std::length_error::length_error[abi:ne180000](char const*)
PUBLIC 47344 0 std::__throw_bad_array_new_length([abi:ne180000], void)
PUBLIC 47378 0 __clang_call_terminate
PUBLIC 47388 0 std::__ndk1::vector<std::__ndk1::shared_ptr<AudioSource>, std::__ndk1::allocator<std::__ndk1::shared_ptr<AudioSource> > >::__throw_length_error[abi:ne180000]() const
PUBLIC 4739c 0 std::__ndk1::vector<Easer, std::__ndk1::allocator<Easer> >::__throw_length_error[abi:ne180000]() const
PUBLIC 473b0 0 std::__ndk1::basic_string<char, std::__ndk1::char_traits<char>, std::__ndk1::allocator<char> >::__init_copy_ctor_external(char const*, unsigned long)
PUBLIC 47430 0 std::__ndk1::basic_string<char, std::__ndk1::char_traits<char>, std::__ndk1::allocator<char> >::__throw_out_of_range[abi:ne180000]() const
PUBLIC 47444 0 std::__ndk1::__throw_out_of_range[abi:ne180000](char const*)
PUBLIC 47494 0 std::out_of_range::out_of_range[abi:ne180000](char const*)
PUBLIC 474c4 0 std::__ndk1::shared_ptr<std::__ndk1::__empty_state<char> >::~shared_ptr[abi:ne180000]()
PUBLIC 47514 0 std::__ndk1::vector<Easer*, std::__ndk1::allocator<Easer*> >::__throw_length_error[abi:ne180000]() const
PUBLIC 47528 0 std::__ndk1::__split_buffer<std::__ndk1::shared_ptr<AudioSource>*, std::__ndk1::allocator<std::__ndk1::shared_ptr<AudioSource>*> >::~__split_buffer()
PUBLIC 47558 0 std::__ndk1::deque<std::__ndk1::shared_ptr<AudioSource>, std::__ndk1::allocator<std::__ndk1::shared_ptr<AudioSource> > >::__add_back_capacity(unsigned long)
PUBLIC 47f24 0 std::__ndk1::__split_buffer<std::__ndk1::shared_ptr<AudioSource>*, std::__ndk1::allocator<std::__ndk1::shared_ptr<AudioSource>*> >::push_back(std::__ndk1::shared_ptr<AudioSource>*&&)
PUBLIC 480ac 0 std::__ndk1::__split_buffer<std::__ndk1::shared_ptr<AudioSource>*, std::__ndk1::allocator<std::__ndk1::shared_ptr<AudioSource>*> >::push_front(std::__ndk1::shared_ptr<AudioSource>*&&)
PUBLIC 48238 0 std::__ndk1::__thread_proxy[abi:ne180000]<std::__ndk1::tuple<std::__ndk1::unique_ptr<std::__ndk1::__thread_struct, std::__ndk1::default_delete<std::__ndk1::unique_ptr> >, void (AudioManager::*)(), std::__ndk1::unique_ptr<std::__ndk1::__thread_struct, std::__ndk1::default_delete<std::__ndk1::unique_ptr> >*> >(std::__ndk1::tuple<std::__ndk1::unique_ptr<std::__ndk1::__thread_struct, std::__ndk1::default_delete<std::__ndk1::unique_ptr> >, void (AudioManager::*)(), std::__ndk1::unique_ptr<std::__ndk1::__thread_struct, std::__ndk1::default_delete<std::__ndk1::unique_ptr> >*>)
PUBLIC 48304 0 std::__ndk1::unique_ptr<std::__ndk1::tuple<std::__ndk1::unique_ptr<std::__ndk1::__thread_struct, std::__ndk1::default_delete<std::__ndk1::__thread_struct> >, void (AudioManager::*)(), AudioManager*>, std::__ndk1::default_delete<std::__ndk1::tuple<std::__ndk1::unique_ptr<std::__ndk1::__thread_struct, std::__ndk1::default_delete<std::__ndk1::__thread_struct> >, void (AudioManager::*)(), AudioManager*> > >::~unique_ptr[abi:ne180000]()
PUBLIC 48354 0 std::__ndk1::unique_ptr<std::__ndk1::__thread_struct, std::__ndk1::default_delete<std::__ndk1::__thread_struct> >::~unique_ptr[abi:ne180000]()
PUBLIC 48390 0 std::__ndk1::shared_ptr<geode::FileSettingV3>::~shared_ptr[abi:ne180000]()
PUBLIC 483e0 0 geode::cast::traverseTypeinfoFor(void*, geode::cast::ClassTypeinfoType const*, char const*)
PUBLIC 484e4 0 std::__ndk1::__function::__base<void ()>::~__base()
PUBLIC 484e8 0 std::__ndk1::__function::__func<AudioManager::populateSongsThread()::$_0, std::__ndk1::allocator<AudioManager::populateSongsThread()::$_0>, void ()>::~__func()
PUBLIC 484ec 0 std::__ndk1::__function::__func<AudioManager::populateSongsThread()::$_0, std::__ndk1::allocator<AudioManager::populateSongsThread()::$_0>, void ()>::__clone() const
PUBLIC 48520 0 std::__ndk1::__function::__func<AudioManager::populateSongsThread()::$_0, std::__ndk1::allocator<AudioManager::populateSongsThread()::$_0>, void ()>::__clone(std::__ndk1::__function::__base<void ()>*) const
PUBLIC 48534 0 std::__ndk1::__function::__func<AudioManager::populateSongsThread()::$_0, std::__ndk1::allocator<AudioManager::populateSongsThread()::$_0>, void ()>::destroy()
PUBLIC 48538 0 std::__ndk1::__function::__func<AudioManager::populateSongsThread()::$_0, std::__ndk1::allocator<AudioManager::populateSongsThread()::$_0>, void ()>::destroy_deallocate()
PUBLIC 4853c 0 std::__ndk1::__function::__func<AudioManager::populateSongsThread()::$_0, std::__ndk1::allocator<AudioManager::populateSongsThread()::$_0>, void ()>::operator()()
PUBLIC 48564 0 std::__ndk1::__function::__func<AudioManager::populateSongsThread()::$_0, std::__ndk1::allocator<AudioManager::populateSongsThread()::$_0>, void ()>::target(std::type_info const&) const
PUBLIC 48580 0 std::__ndk1::__function::__func<AudioManager::populateSongsThread()::$_0, std::__ndk1::allocator<AudioManager::populateSongsThread()::$_0>, void ()>::target_type() const
PUBLIC 4858c 0 eclipse::events::SetRiftVariableEvent<long>::~SetRiftVariableEvent()
PUBLIC 485b0 0 std::__ndk1::__shared_ptr_emplace<AudioSource, std::__ndk1::allocator<AudioSource> >::~__shared_ptr_emplace()
PUBLIC 485c0 0 std::__ndk1::__shared_ptr_emplace<AudioSource, std::__ndk1::allocator<AudioSource> >::~__shared_ptr_emplace()
PUBLIC 485f0 0 std::__ndk1::__shared_ptr_emplace<AudioSource, std::__ndk1::allocator<AudioSource> >::__on_zero_shared()
PUBLIC 48664 0 std::__ndk1::__shared_ptr_emplace<AudioSource, std::__ndk1::allocator<AudioSource> >::__on_zero_shared_weak()
PUBLIC 48668 0 std::__ndk1::__function::__func<AudioManager::populateSongsFromPath(std::__ndk1::__fs::filesystem::path)::$_0, std::__ndk1::allocator<AudioManager::populateSongsFromPath(std::__ndk1::__fs::filesystem::path)::$_0>, void ()>::~__func()
PUBLIC 486c4 0 std::__ndk1::__function::__func<AudioManager::populateSongsFromPath(std::__ndk1::__fs::filesystem::path)::$_0, std::__ndk1::allocator<AudioManager::populateSongsFromPath(std::__ndk1::__fs::filesystem::path)::$_0>, void ()>::~__func()
PUBLIC 48730 0 std::__ndk1::__function::__func<AudioManager::populateSongsFromPath(std::__ndk1::__fs::filesystem::path)::$_0, std::__ndk1::allocator<AudioManager::populateSongsFromPath(std::__ndk1::__fs::filesystem::path)::$_0>, void ()>::__clone() const
PUBLIC 48788 0 std::__ndk1::__function::__func<AudioManager::populateSongsFromPath(std::__ndk1::__fs::filesystem::path)::$_0, std::__ndk1::allocator<AudioManager::populateSongsFromPath(std::__ndk1::__fs::filesystem::path)::$_0>, void ()>::__clone(std::__ndk1::__function::__base<void ()>*) const
PUBLIC 487c4 0 std::__ndk1::__function::__func<AudioManager::populateSongsFromPath(std::__ndk1::__fs::filesystem::path)::$_0, std::__ndk1::allocator<AudioManager::populateSongsFromPath(std::__ndk1::__fs::filesystem::path)::$_0>, void ()>::destroy()
PUBLIC 48814 0 std::__ndk1::__function::__func<AudioManager::populateSongsFromPath(std::__ndk1::__fs::filesystem::path)::$_0, std::__ndk1::allocator<AudioManager::populateSongsFromPath(std::__ndk1::__fs::filesystem::path)::$_0>, void ()>::destroy_deallocate()
PUBLIC 48874 0 std::__ndk1::__function::__func<AudioManager::populateSongsFromPath(std::__ndk1::__fs::filesystem::path)::$_0, std::__ndk1::allocator<AudioManager::populateSongsFromPath(std::__ndk1::__fs::filesystem::path)::$_0>, void ()>::operator()()
PUBLIC 48930 0 std::__ndk1::__function::__func<AudioManager::populateSongsFromPath(std::__ndk1::__fs::filesystem::path)::$_0, std::__ndk1::allocator<AudioManager::populateSongsFromPath(std::__ndk1::__fs::filesystem::path)::$_0>, void ()>::target(std::type_info const&) const
PUBLIC 4894c 0 std::__ndk1::__function::__func<AudioManager::populateSongsFromPath(std::__ndk1::__fs::filesystem::path)::$_0, std::__ndk1::allocator<AudioManager::populateSongsFromPath(std::__ndk1::__fs::filesystem::path)::$_0>, void ()>::target_type() const
PUBLIC 48958 0 std::__ndk1::unique_ptr<std::__ndk1::__tree_node<std::__ndk1::__value_type<std::__ndk1::basic_string<char, std::__ndk1::char_traits<char>, std::__ndk1::allocator<char> >, std::__ndk1::basic_string<char, std::__ndk1::char_traits<char>, std::__ndk1::allocator<char> > >, void*>, std::__ndk1::__tree_node_destructor<std::__ndk1::allocator<std::__ndk1::__tree_node<std::__ndk1::__value_type<std::__ndk1::basic_string<char, std::__ndk1::char_traits<char>, std::__ndk1::allocator<char> >, std::__ndk1::basic_string<char, std::__ndk1::char_traits<char>, std::__ndk1::allocator<char> > >, void*> > > >::~unique_ptr[abi:ne180000]()
PUBLIC 489b4 0 std::__ndk1::__tree_balance_after_insert[abi:ne180000]<std::__ndk1::__tree_node_base<void*>*>(std::__ndk1::__tree_node_base<void*>*, std::__ndk1::__tree_node_base<void*>*)
PUBLIC 48b64 0 std::__ndk1::__tree<std::__ndk1::__value_type<std::__ndk1::basic_string<char, std::__ndk1::char_traits<char>, std::__ndk1::allocator<char> >, std::__ndk1::basic_string<char, std::__ndk1::char_traits<char>, std::__ndk1::allocator<char> > >, std::__ndk1::__map_value_compare<std::__ndk1::basic_string<char, std::__ndk1::char_traits<char>, std::__ndk1::allocator<char> >, std::__ndk1::__value_type<std::__ndk1::basic_string<char, std::__ndk1::char_traits<char>, std::__ndk1::allocator<char> >, std::__ndk1::basic_string<char, std::__ndk1::char_traits<char>, std::__ndk1::allocator<char> > >, std::__ndk1::less<std::__ndk1::basic_string<char, std::__ndk1::char_traits<char>, std::__ndk1::allocator<char> > >, true>, std::__ndk1::allocator<std::__ndk1::__value_type<std::__ndk1::basic_string<char, std::__ndk1::char_traits<char>, std::__ndk1::allocator<char> >, std::__ndk1::basic_string<char, std::__ndk1::char_traits<char>, std::__ndk1::allocator<char> > > > >::destroy(std::__ndk1::__tree_node<std::__ndk1::__value_type<std::__ndk1::basic_string<char, std::__ndk1::char_traits<char>, std::__ndk1::allocator<char> >, std::__ndk1::basic_string<char, std::__ndk1::char_traits<char>, std::__ndk1::allocator<char> > >, void*>*)
PUBLIC 48bd4 0 std::__ndk1::__tree<std::__ndk1::__value_type<std::__ndk1::basic_string<char, std::__ndk1::char_traits<char>, std::__ndk1::allocator<char> >, std::__ndk1::basic_string<char, std::__ndk1::char_traits<char>, std::__ndk1::allocator<char> > >, std::__ndk1::__map_value_compare<std::__ndk1::basic_string<char, std::__ndk1::char_traits<char>, std::__ndk1::allocator<char> >, std::__ndk1::__value_type<std::__ndk1::basic_string<char, std::__ndk1::char_traits<char>, std::__ndk1::allocator<char> >, std::__ndk1::basic_string<char, std::__ndk1::char_traits<char>, std::__ndk1::allocator<char> > >, std::__ndk1::less<std::__ndk1::basic_string<char, std::__ndk1::char_traits<char>, std::__ndk1::allocator<char> > >, true>, std::__ndk1::allocator<std::__ndk1::__value_type<std::__ndk1::basic_string<char, std::__ndk1::char_traits<char>, std::__ndk1::allocator<char> >, std::__ndk1::basic_string<char, std::__ndk1::char_traits<char>, std::__ndk1::allocator<char> > > > >::__emplace_unique_key_args<std::__ndk1::basic_string<char, std::__ndk1::char_traits<char>, std::__ndk1::allocator<char> >, std::__ndk1::piecewise_construct_t const&, std::__ndk1::tuple<std::__ndk1::basic_string<char, std::__ndk1::char_traits<char>, std::__ndk1::allocator<char> >&&>, std::__ndk1::tuple<> >(std::__ndk1::basic_string<char, std::__ndk1::char_traits<char>, std::__ndk1::allocator<char> > const&, std::__ndk1::piecewise_construct_t const&, std::__ndk1::tuple<std::__ndk1::basic_string<char, std::__ndk1::char_traits<char>, std::__ndk1::allocator<char> >&&>, std::__ndk1::tuple<>)
PUBLIC 48d3c 0 std::__ndk1::__function::__func<AudioManager::populateAlbumCover(std::__ndk1::shared_ptr<AudioSource>, FMOD_TAG)::$_0, std::__ndk1::allocator<AudioManager::populateAlbumCover(std::__ndk1::shared_ptr<AudioSource>, FMOD_TAG)::$_0>, void ()>::~__func()
PUBLIC 48d98 0 std::__ndk1::__function::__func<AudioManager::populateAlbumCover(std::__ndk1::shared_ptr<AudioSource>, FMOD_TAG)::$_0, std::__ndk1::allocator<AudioManager::populateAlbumCover(std::__ndk1::shared_ptr<AudioSource>, FMOD_TAG)::$_0>, void ()>::~__func()
PUBLIC 48e04 0 std::__ndk1::__function::__func<AudioManager::populateAlbumCover(std::__ndk1::shared_ptr<AudioSource>, FMOD_TAG)::$_0, std::__ndk1::allocator<AudioManager::populateAlbumCover(std::__ndk1::shared_ptr<AudioSource>, FMOD_TAG)::$_0>, void ()>::__clone() const
PUBLIC 48e5c 0 std::__ndk1::__function::__func<AudioManager::populateAlbumCover(std::__ndk1::shared_ptr<AudioSource>, FMOD_TAG)::$_0, std::__ndk1::allocator<AudioManager::populateAlbumCover(std::__ndk1::shared_ptr<AudioSource>, FMOD_TAG)::$_0>, void ()>::__clone(std::__ndk1::__function::__base<void ()>*) const
PUBLIC 48ea8 0 std::__ndk1::__function::__func<AudioManager::populateAlbumCover(std::__ndk1::shared_ptr<AudioSource>, FMOD_TAG)::$_0, std::__ndk1::allocator<AudioManager::populateAlbumCover(std::__ndk1::shared_ptr<AudioSource>, FMOD_TAG)::$_0>, void ()>::destroy()
PUBLIC 48ef8 0 std::__ndk1::__function::__func<AudioManager::populateAlbumCover(std::__ndk1::shared_ptr<AudioSource>, FMOD_TAG)::$_0, std::__ndk1::allocator<AudioManager::populateAlbumCover(std::__ndk1::shared_ptr<AudioSource>, FMOD_TAG)::$_0>, void ()>::destroy_deallocate()
PUBLIC 48f58 0 std::__ndk1::__function::__func<AudioManager::populateAlbumCover(std::__ndk1::shared_ptr<AudioSource>, FMOD_TAG)::$_0, std::__ndk1::allocator<AudioManager::populateAlbumCover(std::__ndk1::shared_ptr<AudioSource>, FMOD_TAG)::$_0>, void ()>::operator()()
PUBLIC 49154 0 std::__ndk1::__function::__func<AudioManager::populateAlbumCover(std::__ndk1::shared_ptr<AudioSource>, FMOD_TAG)::$_0, std::__ndk1::allocator<AudioManager::populateAlbumCover(std::__ndk1::shared_ptr<AudioSource>, FMOD_TAG)::$_0>, void ()>::target(std::type_info const&) const
PUBLIC 49170 0 std::__ndk1::__function::__func<AudioManager::populateAlbumCover(std::__ndk1::shared_ptr<AudioSource>, FMOD_TAG)::$_0, std::__ndk1::allocator<AudioManager::populateAlbumCover(std::__ndk1::shared_ptr<AudioSource>, FMOD_TAG)::$_0>, void ()>::target_type() const
PUBLIC 4917c 0 std::__ndk1::basic_regex<char, std::__ndk1::regex_traits<char> >::__parse<char const*>(char const*, char const*)
PUBLIC 49840 0 std::__ndk1::__throw_regex_error[abi:ne180000]<(std::__ndk1::regex_constants::error_type)17>()
PUBLIC 4988c 0 std::__ndk1::basic_regex<char, std::__ndk1::regex_traits<char> >::__parse_ecma_exp<char const*>(char const*, char const*)
PUBLIC 49af8 0 std::__ndk1::basic_regex<char, std::__ndk1::regex_traits<char> >::__parse_basic_reg_exp<char const*>(char const*, char const*)
PUBLIC 49ca0 0 std::__ndk1::basic_regex<char, std::__ndk1::regex_traits<char> >::__parse_extended_reg_exp<char const*>(char const*, char const*)
PUBLIC 49e10 0 std::__ndk1::__throw_regex_error[abi:ne180000]<(std::__ndk1::regex_constants::error_type)14>()
PUBLIC 49e5c 0 std::__ndk1::__end_state<char>::~__end_state()
PUBLIC 49e60 0 std::__ndk1::__end_state<char>::__exec(std::__ndk1::__state<char>&) const
PUBLIC 49e6c 0 std::__ndk1::__node<char>::__exec_split(bool, std::__ndk1::__state<char>&) const
PUBLIC 49e70 0 std::__ndk1::__node<char>::__exec(std::__ndk1::__state<char>&) const
PUBLIC 49e74 0 std::__ndk1::__shared_ptr_pointer<std::__ndk1::__empty_state<char>*, std::__ndk1::shared_ptr<std::__ndk1::__empty_state<char> >::__shared_ptr_default_delete<std::__ndk1::__empty_state<char>, std::__ndk1::__empty_state<char> >, std::__ndk1::allocator<std::__ndk1::__empty_state<char> > >::~__shared_ptr_pointer()
PUBLIC 49e98 0 std::__ndk1::__shared_ptr_pointer<std::__ndk1::__empty_state<char>*, std::__ndk1::shared_ptr<std::__ndk1::__empty_state<char> >::__shared_ptr_default_delete<std::__ndk1::__empty_state<char>, std::__ndk1::__empty_state<char> >, std::__ndk1::allocator<std::__ndk1::__empty_state<char> > >::__on_zero_shared()
PUBLIC 49eb0 0 std::__ndk1::__shared_ptr_pointer<std::__ndk1::__empty_state<char>*, std::__ndk1::shared_ptr<std::__ndk1::__empty_state<char> >::__shared_ptr_default_delete<std::__ndk1::__empty_state<char>, std::__ndk1::__empty_state<char> >, std::__ndk1::allocator<std::__ndk1::__empty_state<char> > >::__get_deleter(std::type_info const&) const
PUBLIC 49ecc 0 std::__ndk1::__shared_ptr_pointer<std::__ndk1::__empty_state<char>*, std::__ndk1::shared_ptr<std::__ndk1::__empty_state<char> >::__shared_ptr_default_delete<std::__ndk1::__empty_state<char>, std::__ndk1::__empty_state<char> >, std::__ndk1::allocator<std::__ndk1::__empty_state<char> > >::__on_zero_shared_weak()
PUBLIC 49ed0 0 std::__ndk1::__empty_state<char>::~__empty_state()
PUBLIC 49f18 0 std::__ndk1::__empty_state<char>::__exec(std::__ndk1::__state<char>&) const
PUBLIC 49f2c 0 std::__ndk1::__owns_one_state<char>::~__owns_one_state()
PUBLIC 49f74 0 std::__ndk1::basic_regex<char, std::__ndk1::regex_traits<char> >::__parse_assertion<char const*>(char const*, char const*)
PUBLIC 4a2d8 0 std::__ndk1::basic_regex<char, std::__ndk1::regex_traits<char> >::__parse_atom<char const*>(char const*, char const*)
PUBLIC 4a91c 0 std::__ndk1::basic_regex<char, std::__ndk1::regex_traits<char> >::__parse_ERE_dupl_symbol<char const*>(char const*, char const*, std::__ndk1::__owns_one_state<char>*, unsigned int, unsigned int)
PUBLIC 4ad10 0 std::__ndk1::basic_regex<char, std::__ndk1::regex_traits<char> >::basic_regex[abi:ne180000]()
PUBLIC 4ad7c 0 std::__ndk1::basic_regex<char, std::__ndk1::regex_traits<char> >::__push_lookahead(std::__ndk1::basic_regex<char, std::__ndk1::regex_traits<char> > const&, bool, unsigned int)
PUBLIC 4ae30 0 std::__ndk1::__throw_regex_error[abi:ne180000]<(std::__ndk1::regex_constants::error_type)6>()
PUBLIC 4ae7c 0 std::__ndk1::__l_anchor_multiline<char>::~__l_anchor_multiline()
PUBLIC 4aec4 0 std::__ndk1::__l_anchor_multiline<char>::__exec(std::__ndk1::__state<char>&) const
PUBLIC 4af28 0 std::__ndk1::__r_anchor_multiline<char>::~__r_anchor_multiline()
PUBLIC 4af70 0 std::__ndk1::__r_anchor_multiline<char>::__exec(std::__ndk1::__state<char>&) const
PUBLIC 4afc4 0 std::__ndk1::__word_boundary<char, std::__ndk1::regex_traits<char> >::~__word_boundary()
PUBLIC 4b020 0 std::__ndk1::__word_boundary<char, std::__ndk1::regex_traits<char> >::~__word_boundary()
PUBLIC 4b078 0 std::__ndk1::__word_boundary<char, std::__ndk1::regex_traits<char> >::__exec(std::__ndk1::__state<char>&) const
PUBLIC 4b188 0 std::__ndk1::__lookahead<char, std::__ndk1::regex_traits<char> >::~__lookahead()
PUBLIC 4b218 0 std::__ndk1::__lookahead<char, std::__ndk1::regex_traits<char> >::~__lookahead()
PUBLIC 4b2a4 0 std::__ndk1::__lookahead<char, std::__ndk1::regex_traits<char> >::__exec(std::__ndk1::__state<char>&) const
PUBLIC 4b478 0 std::__ndk1::basic_regex<char, std::__ndk1::regex_traits<char> >::__match_at_start_ecma<std::__ndk1::allocator<std::__ndk1::sub_match<char const*> > >(char const*, char const*, std::__ndk1::match_results<char const*, std::__ndk1::allocator<std::__ndk1::sub_match<char const*> > >&, std::__ndk1::regex_constants::match_flag_type, bool) const
PUBLIC 4b8c4 0 std::__ndk1::vector<std::__ndk1::sub_match<char const*>, std::__ndk1::allocator<std::__ndk1::sub_match<char const*> > >::assign(unsigned long, std::__ndk1::sub_match<char const*> const&)
PUBLIC 4ba94 0 std::__ndk1::vector<std::__ndk1::sub_match<char const*>, std::__ndk1::allocator<std::__ndk1::sub_match<char const*> > >::__throw_length_error[abi:ne180000]() const
PUBLIC 4baa8 0 std::__ndk1::__state<char>::~__state()
PUBLIC 4baec 0 std::__ndk1::__throw_regex_error[abi:ne180000]<(std::__ndk1::regex_constants::error_type)12>()
PUBLIC 4bb38 0 std::__ndk1::__state<char>::__state(std::__ndk1::__state<char> const&)
PUBLIC 4bca8 0 std::__ndk1::__throw_regex_error[abi:ne180000]<(std::__ndk1::regex_constants::error_type)16>()
PUBLIC 4bcf4 0 std::__ndk1::vector<std::__ndk1::__state<char>, std::__ndk1::allocator<std::__ndk1::__state<char> > >::~vector[abi:ne180000]()
PUBLIC 4bd8c 0 std::__ndk1::vector<std::__ndk1::__state<char>, std::__ndk1::allocator<std::__ndk1::__state<char> > >::__push_back_slow_path<std::__ndk1::__state<char> >(std::__ndk1::__state<char>&&)
PUBLIC 4bf68 0 std::__ndk1::vector<std::__ndk1::__state<char>, std::__ndk1::allocator<std::__ndk1::__state<char> > >::__throw_length_error[abi:ne180000]() const
PUBLIC 4bf7c 0 std::__ndk1::vector<std::__ndk1::sub_match<char const*>, std::__ndk1::allocator<std::__ndk1::sub_match<char const*> > >::__append(unsigned long, std::__ndk1::sub_match<char const*> const&)
PUBLIC 4c124 0 std::__ndk1::vector<std::__ndk1::pair<unsigned long, char const*>, std::__ndk1::allocator<std::__ndk1::pair<unsigned long, char const*> > >::__append(unsigned long)
PUBLIC 4c250 0 std::__ndk1::vector<std::__ndk1::pair<unsigned long, char const*>, std::__ndk1::allocator<std::__ndk1::pair<unsigned long, char const*> > >::__throw_length_error[abi:ne180000]() const
PUBLIC 4c264 0 std::__ndk1::basic_regex<char, std::__ndk1::regex_traits<char> >::__parse_bracket_expression<char const*>(char const*, char const*)
PUBLIC 4d358 0 std::__ndk1::__throw_regex_error[abi:ne180000]<(std::__ndk1::regex_constants::error_type)11>()
PUBLIC 4d3a4 0 std::__ndk1::__match_any_but_newline<char>::~__match_any_but_newline()
PUBLIC 4d3ec 0 std::__ndk1::__throw_regex_error[abi:ne180000]<(std::__ndk1::regex_constants::error_type)3>()
PUBLIC 4d438 0 std::__ndk1::basic_regex<char, std::__ndk1::regex_traits<char> >::__parse_character_escape<char const*>(char const*, char const*, std::__ndk1::basic_string<char, std::__ndk1::char_traits<char>, std::__ndk1::allocator<char> >*)
PUBLIC 4d944 0 std::__ndk1::basic_regex<char, std::__ndk1::regex_traits<char> >::__push_char(char)
PUBLIC 4da84 0 std::__ndk1::__throw_regex_error[abi:ne180000]<(std::__ndk1::regex_constants::error_type)4>()
PUBLIC 4dad0 0 std::__ndk1::basic_regex<char, std::__ndk1::regex_traits<char> >::__push_back_ref(int)
PUBLIC 4db98 0 std::__ndk1::__match_char_icase<char, std::__ndk1::regex_traits<char> >::~__match_char_icase()
PUBLIC 4dbf4 0 std::__ndk1::__match_char_icase<char, std::__ndk1::regex_traits<char> >::~__match_char_icase()
PUBLIC 4dc4c 0 std::__ndk1::__match_char_icase<char, std::__ndk1::regex_traits<char> >::__exec(std::__ndk1::__state<char>&) const
PUBLIC 4dccc 0 std::__ndk1::__match_char_collate<char, std::__ndk1::regex_traits<char> >::~__match_char_collate()
PUBLIC 4dd28 0 std::__ndk1::__match_char_collate<char, std::__ndk1::regex_traits<char> >::~__match_char_collate()
PUBLIC 4dd80 0 std::__ndk1::__match_char_collate<char, std::__ndk1::regex_traits<char> >::__exec(std::__ndk1::__state<char>&) const
PUBLIC 4ddc8 0 std::__ndk1::__match_char<char>::~__match_char()
PUBLIC 4de10 0 std::__ndk1::__match_char<char>::__exec(std::__ndk1::__state<char>&) const
PUBLIC 4de58 0 std::__ndk1::__back_ref_icase<char, std::__ndk1::regex_traits<char> >::~__back_ref_icase()
PUBLIC 4deb4 0 std::__ndk1::__back_ref_icase<char, std::__ndk1::regex_traits<char> >::~__back_ref_icase()
PUBLIC 4df0c 0 std::__ndk1::__back_ref_icase<char, std::__ndk1::regex_traits<char> >::__exec(std::__ndk1::__state<char>&) const
PUBLIC 4e004 0 std::__ndk1::__back_ref_collate<char, std::__ndk1::regex_traits<char> >::~__back_ref_collate()
PUBLIC 4e060 0 std::__ndk1::__back_ref_collate<char, std::__ndk1::regex_traits<char> >::~__back_ref_collate()
PUBLIC 4e0b8 0 std::__ndk1::__back_ref_collate<char, std::__ndk1::regex_traits<char> >::__exec(std::__ndk1::__state<char>&) const
PUBLIC 4e148 0 std::__ndk1::__back_ref<char>::~__back_ref()
PUBLIC 4e190 0 std::__ndk1::__back_ref<char>::__exec(std::__ndk1::__state<char>&) const
PUBLIC 4e260 0 std::__ndk1::__bracket_expression<char, std::__ndk1::regex_traits<char> >::__add_char[abi:ne180000](char)
PUBLIC 4e710 0 std::__ndk1::__bracket_expression<char, std::__ndk1::regex_traits<char> >::__bracket_expression[abi:ne180000](std::__ndk1::regex_traits<char> const&, std::__ndk1::__node<char>*, bool, bool, bool)
PUBLIC 4e8ec 0 std::__ndk1::vector<std::__ndk1::basic_string<char, std::__ndk1::char_traits<char>, std::__ndk1::allocator<char> >, std::__ndk1::allocator<std::__ndk1::basic_string<char, std::__ndk1::char_traits<char>, std::__ndk1::allocator<char> > > >::~vector[abi:ne180000]()
PUBLIC 4e968 0 std::__ndk1::vector<std::__ndk1::pair<std::__ndk1::basic_string<char, std::__ndk1::char_traits<char>, std::__ndk1::allocator<char> >, std::__ndk1::basic_string<char, std::__ndk1::char_traits<char>, std::__ndk1::allocator<char> > >, std::__ndk1::allocator<std::__ndk1::pair<std::__ndk1::basic_string<char, std::__ndk1::char_traits<char>, std::__ndk1::allocator<char> >, std::__ndk1::basic_string<char, std::__ndk1::char_traits<char>, std::__ndk1::allocator<char> > > > >::~vector[abi:ne180000]()
PUBLIC 4ea0c 0 std::__ndk1::__bracket_expression<char, std::__ndk1::regex_traits<char> >::~__bracket_expression()
PUBLIC 4eb58 0 std::__ndk1::__bracket_expression<char, std::__ndk1::regex_traits<char> >::~__bracket_expression()
PUBLIC 4eb7c 0 std::__ndk1::__bracket_expression<char, std::__ndk1::regex_traits<char> >::__exec(std::__ndk1::__state<char>&) const
PUBLIC 4f7e8 0 std::__ndk1::pair<std::__ndk1::basic_string<char, std::__ndk1::char_traits<char>, std::__ndk1::allocator<char> >, std::__ndk1::basic_string<char, std::__ndk1::char_traits<char>, std::__ndk1::allocator<char> > >::~pair()
PUBLIC 4f82c 0 std::__ndk1::basic_string<char, std::__ndk1::char_traits<char>, std::__ndk1::allocator<char> >::__assign_no_alias<true>(char const*, unsigned long)
PUBLIC 4f8d8 0 std::__ndk1::basic_string<char, std::__ndk1::char_traits<char>, std::__ndk1::allocator<char> >::__assign_no_alias<false>(char const*, unsigned long)
PUBLIC 4f9e8 0 std::__ndk1::regex_traits<char>::__transform_primary<char*>(char*, char*, char) const
PUBLIC 4fbac 0 std::__ndk1::vector<char, std::__ndk1::allocator<char> >::__throw_length_error[abi:ne180000]() const
PUBLIC 4fbc0 0 std::__ndk1::__throw_regex_error[abi:ne180000]<(std::__ndk1::regex_constants::error_type)5>()
PUBLIC 4fc0c 0 std::__ndk1::basic_regex<char, std::__ndk1::regex_traits<char> >::__parse_class_escape<char const*>(char const*, char const*, std::__ndk1::basic_string<char, std::__ndk1::char_traits<char>, std::__ndk1::allocator<char> >&, std::__ndk1::__bracket_expression<char, std::__ndk1::regex_traits<char> >*)
PUBLIC 501d4 0 std::__ndk1::basic_regex<char, std::__ndk1::regex_traits<char> >::__parse_awk_escape<char const*>(char const*, char const*, std::__ndk1::basic_string<char, std::__ndk1::char_traits<char>, std::__ndk1::allocator<char> >*)
PUBLIC 50698 0 std::__ndk1::__bracket_expression<char, std::__ndk1::regex_traits<char> >::__add_digraph[abi:ne180000](char, char)
PUBLIC 50ab8 0 std::__ndk1::__throw_regex_error[abi:ne180000]<(std::__ndk1::regex_constants::error_type)1>()
PUBLIC 50b04 0 std::__ndk1::regex_traits<char>::__lookup_collatename<char const*>(char const*, char const*, char) const
PUBLIC 50db8 0 std::__ndk1::vector<std::__ndk1::basic_string<char, std::__ndk1::char_traits<char>, std::__ndk1::allocator<char> >, std::__ndk1::allocator<std::__ndk1::basic_string<char, std::__ndk1::char_traits<char>, std::__ndk1::allocator<char> > > >::__push_back_slow_path<std::__ndk1::basic_string<char, std::__ndk1::char_traits<char>, std::__ndk1::allocator<char> > const&>(std::__ndk1::basic_string<char, std::__ndk1::char_traits<char>, std::__ndk1::allocator<char> > const&)
PUBLIC 50fe0 0 std::__ndk1::__split_buffer<std::__ndk1::basic_string<char, std::__ndk1::char_traits<char>, std::__ndk1::allocator<char> >, std::__ndk1::allocator<std::__ndk1::basic_string<char, std::__ndk1::char_traits<char>, std::__ndk1::allocator<char> > >&>::~__split_buffer()
PUBLIC 51048 0 std::__ndk1::vector<std::__ndk1::basic_string<char, std::__ndk1::char_traits<char>, std::__ndk1::allocator<char> >, std::__ndk1::allocator<std::__ndk1::basic_string<char, std::__ndk1::char_traits<char>, std::__ndk1::allocator<char> > > >::__throw_length_error[abi:ne180000]() const
PUBLIC 5105c 0 std::__ndk1::__throw_regex_error[abi:ne180000]<(std::__ndk1::regex_constants::error_type)2>()
PUBLIC 510a8 0 std::__ndk1::regex_traits<char>::transform<std::__ndk1::__wrap_iter<char*> >(std::__ndk1::__wrap_iter<char*>, std::__ndk1::__wrap_iter<char*>) const
PUBLIC 5125c 0 std::__ndk1::__throw_regex_error[abi:ne180000]<(std::__ndk1::regex_constants::error_type)9>()
PUBLIC 512a8 0 std::__ndk1::vector<std::__ndk1::pair<std::__ndk1::basic_string<char, std::__ndk1::char_traits<char>, std::__ndk1::allocator<char> >, std::__ndk1::basic_string<char, std::__ndk1::char_traits<char>, std::__ndk1::allocator<char> > >, std::__ndk1::allocator<std::__ndk1::pair<std::__ndk1::basic_string<char, std::__ndk1::char_traits<char>, std::__ndk1::allocator<char> >, std::__ndk1::basic_string<char, std::__ndk1::char_traits<char>, std::__ndk1::allocator<char> > > > >::__push_back_slow_path<std::__ndk1::pair<std::__ndk1::basic_string<char, std::__ndk1::char_traits<char>, std::__ndk1::allocator<char> >, std::__ndk1::basic_string<char, std::__ndk1::char_traits<char>, std::__ndk1::allocator<char> > > >(std::__ndk1::pair<std::__ndk1::basic_string<char, std::__ndk1::char_traits<char>, std::__ndk1::allocator<char> >, std::__ndk1::basic_string<char, std::__ndk1::char_traits<char>, std::__ndk1::allocator<char> > >&&)
PUBLIC 51450 0 std::__ndk1::vector<std::__ndk1::pair<std::__ndk1::basic_string<char, std::__ndk1::char_traits<char>, std::__ndk1::allocator<char> >, std::__ndk1::basic_string<char, std::__ndk1::char_traits<char>, std::__ndk1::allocator<char> > >, std::__ndk1::allocator<std::__ndk1::pair<std::__ndk1::basic_string<char, std::__ndk1::char_traits<char>, std::__ndk1::allocator<char> >, std::__ndk1::basic_string<char, std::__ndk1::char_traits<char>, std::__ndk1::allocator<char> > > > >::__throw_length_error[abi:ne180000]() const
PUBLIC 51464 0 std::__ndk1::vector<std::__ndk1::pair<char, char>, std::__ndk1::allocator<std::__ndk1::pair<char, char> > >::__throw_length_error[abi:ne180000]() const
PUBLIC 51478 0 std::__ndk1::__begin_marked_subexpression<char>::~__begin_marked_subexpression()
PUBLIC 514c0 0 std::__ndk1::__begin_marked_subexpression<char>::__exec(std::__ndk1::__state<char>&) const
PUBLIC 514f0 0 std::__ndk1::__end_marked_subexpression<char>::~__end_marked_subexpression()
PUBLIC 51538 0 std::__ndk1::__end_marked_subexpression<char>::__exec(std::__ndk1::__state<char>&) const
PUBLIC 51570 0 std::__ndk1::basic_regex<char, std::__ndk1::regex_traits<char> >::__push_loop(unsigned long, unsigned long, std::__ndk1::__owns_one_state<char>*, unsigned long, unsigned long, bool)
PUBLIC 516b0 0 std::__ndk1::__throw_regex_error[abi:ne180000]<(std::__ndk1::regex_constants::error_type)8>()
PUBLIC 516fc 0 std::__ndk1::__throw_regex_error[abi:ne180000]<(std::__ndk1::regex_constants::error_type)7>()
PUBLIC 51748 0 std::__ndk1::__loop<char>::~__loop()
PUBLIC 517b0 0 std::__ndk1::__loop<char>::__exec(std::__ndk1::__state<char>&) const
PUBLIC 51974 0 std::__ndk1::__loop<char>::__exec_split(bool, std::__ndk1::__state<char>&) const
PUBLIC 51a38 0 std::__ndk1::__owns_two_states<char>::~__owns_two_states()
PUBLIC 51aa0 0 std::__ndk1::__repeat_one_loop<char>::~__repeat_one_loop()
PUBLIC 51aa4 0 std::__ndk1::__repeat_one_loop<char>::__exec(std::__ndk1::__state<char>&) const
PUBLIC 51ab8 0 std::__ndk1::__owns_two_states<char>::~__owns_two_states()
PUBLIC 51b24 0 std::__ndk1::__alternate<char>::~__alternate()
PUBLIC 51b8c 0 std::__ndk1::__alternate<char>::__exec(std::__ndk1::__state<char>&) const
PUBLIC 51b98 0 std::__ndk1::__alternate<char>::__exec_split(bool, std::__ndk1::__state<char>&) const
PUBLIC 51bbc 0 std::__ndk1::__node<char>::~__node()
PUBLIC 51bc0 0 std::__ndk1::__empty_non_own_state<char>::~__empty_non_own_state()
PUBLIC 51bc4 0 std::__ndk1::__empty_non_own_state<char>::__exec(std::__ndk1::__state<char>&) const
PUBLIC 51bd8 0 std::__ndk1::__throw_regex_error[abi:ne180000]<(std::__ndk1::regex_constants::error_type)15>()
PUBLIC 51c24 0 std::__ndk1::basic_regex<char, std::__ndk1::regex_traits<char> >::__parse_nondupl_RE<char const*>(char const*, char const*)
PUBLIC 51f20 0 std::__ndk1::basic_regex<char, std::__ndk1::regex_traits<char> >::__parse_RE_dupl_symbol<char const*>(char const*, char const*, std::__ndk1::__owns_one_state<char>*, unsigned int, unsigned int)
PUBLIC 52190 0 std::__ndk1::__owns_one_state<char>::~__owns_one_state()
PUBLIC 521bc 0 std::__ndk1::__match_any<char>::~__match_any()
PUBLIC 52204 0 std::__ndk1::__match_any<char>::__exec(std::__ndk1::__state<char>&) const
PUBLIC 52244 0 std::__ndk1::basic_regex<char, std::__ndk1::regex_traits<char> >::__test_back_ref(char)
PUBLIC 522a4 0 std::__ndk1::basic_regex<char, std::__ndk1::regex_traits<char> >::__parse_ERE_expression<char const*>(char const*, char const*)
PUBLIC 525f0 0 std::__ndk1::basic_regex<char, std::__ndk1::regex_traits<char> >::__search<std::__ndk1::allocator<std::__ndk1::sub_match<char const*> > >(char const*, char const*, std::__ndk1::match_results<char const*, std::__ndk1::allocator<std::__ndk1::sub_match<char const*> > >&, std::__ndk1::regex_constants::match_flag_type) const
PUBLIC 5285c 0 std::__ndk1::match_results<std::__ndk1::__wrap_iter<char const*>, std::__ndk1::allocator<std::__ndk1::sub_match<std::__ndk1::__wrap_iter<char const*> > > >::__assign[abi:ne180000]<char const*, std::__ndk1::allocator<std::__ndk1::sub_match<char const*> > >(std::__ndk1::__wrap_iter<char const*>, std::__ndk1::__wrap_iter<char const*>, std::__ndk1::match_results<char const*, std::__ndk1::allocator<std::__ndk1::sub_match<char const*> > > const&, bool)
PUBLIC 52b74 0 std::__ndk1::basic_regex<char, std::__ndk1::regex_traits<char> >::__match_at_start_posix_nosubs<std::__ndk1::allocator<std::__ndk1::sub_match<char const*> > >(char const*, char const*, std::__ndk1::match_results<char const*, std::__ndk1::allocator<std::__ndk1::sub_match<char const*> > >&, std::__ndk1::regex_constants::match_flag_type, bool) const
PUBLIC 53a1c 0 std::__ndk1::basic_regex<char, std::__ndk1::regex_traits<char> >::__match_at_start_posix_subs<std::__ndk1::allocator<std::__ndk1::sub_match<char const*> > >(char const*, char const*, std::__ndk1::match_results<char const*, std::__ndk1::allocator<std::__ndk1::sub_match<char const*> > >&, std::__ndk1::regex_constants::match_flag_type, bool) const
PUBLIC 5441c 0 std::__ndk1::deque<std::__ndk1::__state<char>, std::__ndk1::allocator<std::__ndk1::__state<char> > >::~deque[abi:ne180000]()
PUBLIC 545e4 0 std::__ndk1::deque<std::__ndk1::__state<char>, std::__ndk1::allocator<std::__ndk1::__state<char> > >::__add_back_capacity()
PUBLIC 54bd4 0 std::__ndk1::__split_buffer<std::__ndk1::__state<char>*, std::__ndk1::allocator<std::__ndk1::__state<char>*> >::push_back(std::__ndk1::__state<char>*&&)
PUBLIC 54d5c 0 std::__ndk1::__split_buffer<std::__ndk1::__state<char>*, std::__ndk1::allocator<std::__ndk1::__state<char>*> >::push_front(std::__ndk1::__state<char>*&&)
PUBLIC 54ee8 0 std::__ndk1::__split_buffer<std::__ndk1::__state<char>*, std::__ndk1::allocator<std::__ndk1::__state<char>*> >::push_front(std::__ndk1::__state<char>* const&)
PUBLIC 55074 0 std::__ndk1::vector<std::__ndk1::sub_match<std::__ndk1::__wrap_iter<char const*> >, std::__ndk1::allocator<std::__ndk1::sub_match<std::__ndk1::__wrap_iter<char const*> > > >::__throw_length_error[abi:ne180000]() const
PUBLIC 55088 0 std::__ndk1::deque<std::__ndk1::shared_ptr<AudioSource>, std::__ndk1::allocator<std::__ndk1::shared_ptr<AudioSource> > >::__add_back_capacity()
PUBLIC 55678 0 std::__ndk1::__split_buffer<std::__ndk1::shared_ptr<AudioSource>*, std::__ndk1::allocator<std::__ndk1::shared_ptr<AudioSource>*> >::push_front(std::__ndk1::shared_ptr<AudioSource>* const&)
PUBLIC 55804 0 geode::Mod::getSavedValue<bool>(std::__ndk1::basic_string_view<char, std::__ndk1::char_traits<char> >)
PUBLIC 55994 0 geode::impl::ResultData<matjson::Value&, std::__ndk1::basic_string<char, std::__ndk1::char_traits<char>, std::__ndk1::allocator<char> > >::~ResultData()
PUBLIC 55a08 0 std::__ndk1::__throw_bad_variant_access[abi:ne180000]()
PUBLIC 55a3c 0 std::__ndk1::__variant_detail::__visitation::__base::__dispatcher<(unsigned long)0>::__dispatch[abi:ne180000]<std::__ndk1::__variant_detail::__dtor<std::__ndk1::__variant_detail::__traits<std::__ndk1::reference_wrapper<matjson::Value>, std::__ndk1::basic_string<char, std::__ndk1::char_traits<char>, std::__ndk1::allocator<char> > >, (std::__ndk1::__variant_detail::_Trait)1>::__destroy[abi:ne180000]()::{lambda(auto:1&)#1}, std::__ndk1::__variant_detail::__base<(std::__ndk1::__variant_detail::__traits<std::__ndk1::reference_wrapper<matjson::Value>, std::__ndk1::basic_string<char, std::__ndk1::char_traits<char>, std::__ndk1::allocator<char> > >)1, matjson::Value, std::__ndk1::allocator<char> >&>(std::__ndk1::__variant_detail::__dtor<std::__ndk1::__variant_detail::__traits<std::__ndk1::reference_wrapper<matjson::Value>, std::__ndk1::basic_string<char, std::__ndk1::char_traits<char>, std::__ndk1::allocator<char> > >, (std::__ndk1::__variant_detail::_Trait)1>, std::__ndk1::__variant_detail::__base<(std::__ndk1::__variant_detail::__traits<std::__ndk1::reference_wrapper<matjson::Value>, std::__ndk1::basic_string<char, std::__ndk1::char_traits<char>, std::__ndk1::allocator<char> > >)1, matjson::Value, std::__ndk1::allocator<char> >&)
PUBLIC 55a40 0 std::__ndk1::__variant_detail::__visitation::__base::__dispatcher<(unsigned long)1>::__dispatch[abi:ne180000]<std::__ndk1::__variant_detail::__dtor<std::__ndk1::__variant_detail::__traits<std::__ndk1::reference_wrapper<matjson::Value>, std::__ndk1::basic_string<char, std::__ndk1::char_traits<char>, std::__ndk1::allocator<char> > >, (std::__ndk1::__variant_detail::_Trait)1>::__destroy[abi:ne180000]()::{lambda(auto:1&)#1}, std::__ndk1::__variant_detail::__base<(std::__ndk1::__variant_detail::__traits<std::__ndk1::reference_wrapper<matjson::Value>, std::__ndk1::basic_string<char, std::__ndk1::char_traits<char>, std::__ndk1::allocator<char> > >)1, matjson::Value, std::__ndk1::allocator<char> >&>(std::__ndk1::__variant_detail::__dtor<std::__ndk1::__variant_detail::__traits<std::__ndk1::reference_wrapper<matjson::Value>, std::__ndk1::basic_string<char, std::__ndk1::char_traits<char>, std::__ndk1::allocator<char> > >, (std::__ndk1::__variant_detail::_Trait)1>, std::__ndk1::__variant_detail::__base<(std::__ndk1::__variant_detail::__traits<std::__ndk1::reference_wrapper<matjson::Value>, std::__ndk1::basic_string<char, std::__ndk1::char_traits<char>, std::__ndk1::allocator<char> > >)1, matjson::Value, std::__ndk1::allocator<char> >&)
PUBLIC 55a54 0 std::__ndk1::__variant_detail::__visitation::__base::__dispatcher<(unsigned long)0>::__dispatch[abi:ne180000]<std::__ndk1::__variant_detail::__dtor<std::__ndk1::__variant_detail::__traits<bool, std::__ndk1::basic_string<char, std::__ndk1::char_traits<char>, std::__ndk1::allocator<char> > >, (std::__ndk1::__variant_detail::_Trait)1>::__destroy[abi:ne180000]()::{lambda(auto:1&)#1}, std::__ndk1::__variant_detail::__base<(std::__ndk1::__variant_detail::__traits<bool, std::__ndk1::basic_string<char, std::__ndk1::char_traits<char>, std::__ndk1::allocator<char> > >)1, bool, std::__ndk1::allocator<char> >&>(std::__ndk1::__variant_detail::__dtor<std::__ndk1::__variant_detail::__traits<bool, std::__ndk1::basic_string<char, std::__ndk1::char_traits<char>, std::__ndk1::allocator<char> > >, (std::__ndk1::__variant_detail::_Trait)1>, std::__ndk1::__variant_detail::__base<(std::__ndk1::__variant_detail::__traits<bool, std::__ndk1::basic_string<char, std::__ndk1::char_traits<char>, std::__ndk1::allocator<char> > >)1, bool, std::__ndk1::allocator<char> >&)
PUBLIC 55a58 0 std::__ndk1::__variant_detail::__visitation::__base::__dispatcher<(unsigned long)1>::__dispatch[abi:ne180000]<std::__ndk1::__variant_detail::__dtor<std::__ndk1::__variant_detail::__traits<bool, std::__ndk1::basic_string<char, std::__ndk1::char_traits<char>, std::__ndk1::allocator<char> > >, (std::__ndk1::__variant_detail::_Trait)1>::__destroy[abi:ne180000]()::{lambda(auto:1&)#1}, std::__ndk1::__variant_detail::__base<(std::__ndk1::__variant_detail::__traits<bool, std::__ndk1::basic_string<char, std::__ndk1::char_traits<char>, std::__ndk1::allocator<char> > >)1, bool, std::__ndk1::allocator<char> >&>(std::__ndk1::__variant_detail::__dtor<std::__ndk1::__variant_detail::__traits<bool, std::__ndk1::basic_string<char, std::__ndk1::char_traits<char>, std::__ndk1::allocator<char> > >, (std::__ndk1::__variant_detail::_Trait)1>, std::__ndk1::__variant_detail::__base<(std::__ndk1::__variant_detail::__traits<bool, std::__ndk1::basic_string<char, std::__ndk1::char_traits<char>, std::__ndk1::allocator<char> > >)1, bool, std::__ndk1::allocator<char> >&)
PUBLIC 55a6c 0 _ZN7eclipse5label11setVariableITkNS0_13SupportedTypeENSt6__ndk112basic_stringIcNS2_11char_traitsIcEENS2_9allocatorIcEEEEEEvNS2_17basic_string_viewIcS5_EET_
PUBLIC 55bd4 0 eclipse::events::SetRiftVariableEvent<std::__ndk1::basic_string<char, std::__ndk1::char_traits<char>, std::__ndk1::allocator<char> > >::~SetRiftVariableEvent()
PUBLIC 55c08 0 eclipse::events::SetRiftVariableEvent<std::__ndk1::basic_string<char, std::__ndk1::char_traits<char>, std::__ndk1::allocator<char> > >::~SetRiftVariableEvent()
PUBLIC 55c40 0 AudioSource::loadAudio()
PUBLIC 55e70 0 std::__ndk1::thread::thread<void (AudioSource::*)(), AudioSource*, void>(AudioSource*&&)
PUBLIC 55f7c 0 AudioSource::getCombinedSongName()
PUBLIC 560bc 0 std::__ndk1::__thread_proxy[abi:ne180000]<std::__ndk1::tuple<std::__ndk1::unique_ptr<std::__ndk1::__thread_struct, std::__ndk1::default_delete<std::__ndk1::unique_ptr> >, void (AudioSource::*)(), std::__ndk1::unique_ptr<std::__ndk1::__thread_struct, std::__ndk1::default_delete<std::__ndk1::unique_ptr> >*> >(std::__ndk1::tuple<std::__ndk1::unique_ptr<std::__ndk1::__thread_struct, std::__ndk1::default_delete<std::__ndk1::unique_ptr> >, void (AudioSource::*)(), std::__ndk1::unique_ptr<std::__ndk1::__thread_struct, std::__ndk1::default_delete<std::__ndk1::unique_ptr> >*>)
PUBLIC 56188 0 std::__ndk1::unique_ptr<std::__ndk1::tuple<std::__ndk1::unique_ptr<std::__ndk1::__thread_struct, std::__ndk1::default_delete<std::__ndk1::__thread_struct> >, void (AudioSource::*)(), AudioSource*>, std::__ndk1::default_delete<std::__ndk1::tuple<std::__ndk1::unique_ptr<std::__ndk1::__thread_struct, std::__ndk1::default_delete<std::__ndk1::__thread_struct> >, void (AudioSource::*)(), AudioSource*> > >::~unique_ptr[abi:ne180000]()
PUBLIC 561d8 0 cocos2d::CCCopying::copyWithZone(cocos2d::CCZone*)
PUBLIC 561e0 0 __cxx_global_var_init
PUBLIC 56660 0 geode::modifier::ModifyBase<geode::modifier::ModifyDerive<HookedCCScheduler, cocos2d::CCScheduler> >::~ModifyBase()
PUBLIC 5667c 0 geode::modifier::ModifyDerive<HookedCCScheduler, cocos2d::CCScheduler>::apply()
PUBLIC 569fc 0 std::__ndk1::shared_ptr<geode::Hook>::~shared_ptr[abi:ne180000]()
PUBLIC 56a4c 0 geode::impl::ResultData<geode::Hook*, std::__ndk1::basic_string<char, std::__ndk1::char_traits<char>, std::__ndk1::allocator<char> > >::~ResultData()
PUBLIC 56ac0 0 geode::modifier::ModifyBase<geode::modifier::ModifyDerive<HookedCCScheduler, cocos2d::CCScheduler> >::apply()
PUBLIC 56ac4 0 _ZN5geode15UnwrapExceptionC2IRPNS_4HookEQsr4implE18IsStringStreamableIT_EEENS_4impl5OkTagEOS5_
PUBLIC 56c18 0 std::__ndk1::basic_stringstream<char, std::__ndk1::char_traits<char>, std::__ndk1::allocator<char> >::basic_stringstream[abi:ne180000]()
PUBLIC m 56d44 0 std::__ndk1::basic_stringstream<char, std::__ndk1::char_traits<char>, std::__ndk1::allocator<char> >::~basic_stringstream()
PUBLIC 56dc4 0 geode::UnwrapException::~UnwrapException()
PUBLIC 56de8 0 std::__ndk1::__put_character_sequence[abi:ne180000]<char, std::__ndk1::char_traits<char> >(std::__ndk1::basic_ostream<char, std::__ndk1::char_traits<char> >, std::__ndk1::basic_ostream const*, unsigned long)
PUBLIC 56f8c 0 std::__ndk1::__pad_and_output[abi:ne180000]<char, std::__ndk1::char_traits<char> >(std::__ndk1::char_traits<char>, std::__ndk1::ostreambuf_iterator const*, std::__ndk1::ostreambuf_iterator const, std::__ndk1::ostreambuf_iterator const, std::__ndk1::ios_base&, std::__ndk1::ostreambuf_iterator)
PUBLIC 57168 0 std::__ndk1::basic_stringbuf<char, std::__ndk1::char_traits<char>, std::__ndk1::allocator<char> >::str[abi:ne180000]() &&
PUBLIC 572e0 0 std::__ndk1::basic_stringbuf<char, std::__ndk1::char_traits<char>, std::__ndk1::allocator<char> >::__init_buf_ptrs[abi:ne180000]()
PUBLIC 57428 0 std::__ndk1::__variant_detail::__visitation::__base::__dispatcher<(unsigned long)0>::__dispatch[abi:ne180000]<std::__ndk1::__variant_detail::__dtor<std::__ndk1::__variant_detail::__traits<geode::Hook*, std::__ndk1::basic_string<char, std::__ndk1::char_traits<char>, std::__ndk1::allocator<char> > >, (std::__ndk1::__variant_detail::_Trait)1>::__destroy[abi:ne180000]()::{lambda(auto:1&)#1}, std::__ndk1::__variant_detail::__base<(std::__ndk1::__variant_detail::__traits<geode::Hook*, std::__ndk1::basic_string<char, std::__ndk1::char_traits<char>, std::__ndk1::allocator<char> > >)1, geode::Hook, std::__ndk1::allocator<char> >&>(std::__ndk1::__variant_detail::__dtor<std::__ndk1::__variant_detail::__traits<geode::Hook*, std::__ndk1::basic_string<char, std::__ndk1::char_traits<char>, std::__ndk1::allocator<char> > >, (std::__ndk1::__variant_detail::_Trait)1>, std::__ndk1::__variant_detail::__base<(std::__ndk1::__variant_detail::__traits<geode::Hook*, std::__ndk1::basic_string<char, std::__ndk1::char_traits<char>, std::__ndk1::allocator<char> > >)1, geode::Hook, std::__ndk1::allocator<char> >&)
PUBLIC 5742c 0 std::__ndk1::__variant_detail::__visitation::__base::__dispatcher<(unsigned long)1>::__dispatch[abi:ne180000]<std::__ndk1::__variant_detail::__dtor<std::__ndk1::__variant_detail::__traits<geode::Hook*, std::__ndk1::basic_string<char, std::__ndk1::char_traits<char>, std::__ndk1::allocator<char> > >, (std::__ndk1::__variant_detail::_Trait)1>::__destroy[abi:ne180000]()::{lambda(auto:1&)#1}, std::__ndk1::__variant_detail::__base<(std::__ndk1::__variant_detail::__traits<geode::Hook*, std::__ndk1::basic_string<char, std::__ndk1::char_traits<char>, std::__ndk1::allocator<char> > >)1, geode::Hook, std::__ndk1::allocator<char> >&>(std::__ndk1::__variant_detail::__dtor<std::__ndk1::__variant_detail::__traits<geode::Hook*, std::__ndk1::basic_string<char, std::__ndk1::char_traits<char>, std::__ndk1::allocator<char> > >, (std::__ndk1::__variant_detail::_Trait)1>, std::__ndk1::__variant_detail::__base<(std::__ndk1::__variant_detail::__traits<geode::Hook*, std::__ndk1::basic_string<char, std::__ndk1::char_traits<char>, std::__ndk1::allocator<char> > >)1, geode::Hook, std::__ndk1::allocator<char> >&)
PUBLIC 57440 0 std::__ndk1::__tree<std::__ndk1::__value_type<std::__ndk1::basic_string<char, std::__ndk1::char_traits<char>, std::__ndk1::allocator<char> >, std::__ndk1::shared_ptr<geode::Hook> >, std::__ndk1::__map_value_compare<std::__ndk1::basic_string<char, std::__ndk1::char_traits<char>, std::__ndk1::allocator<char> >, std::__ndk1::__value_type<std::__ndk1::basic_string<char, std::__ndk1::char_traits<char>, std::__ndk1::allocator<char> >, std::__ndk1::shared_ptr<geode::Hook> >, std::__ndk1::less<std::__ndk1::basic_string<char, std::__ndk1::char_traits<char>, std::__ndk1::allocator<char> > >, true>, std::__ndk1::allocator<std::__ndk1::__value_type<std::__ndk1::basic_string<char, std::__ndk1::char_traits<char>, std::__ndk1::allocator<char> >, std::__ndk1::shared_ptr<geode::Hook> > > >::find<std::__ndk1::basic_string<char, std::__ndk1::char_traits<char>, std::__ndk1::allocator<char> > >(std::__ndk1::basic_string<char, std::__ndk1::char_traits<char>, std::__ndk1::allocator<char> > const&)
PUBLIC 57560 0 std::__ndk1::__tree<std::__ndk1::__value_type<std::__ndk1::basic_string<char, std::__ndk1::char_traits<char>, std::__ndk1::allocator<char> >, std::__ndk1::shared_ptr<geode::Hook> >, std::__ndk1::__map_value_compare<std::__ndk1::basic_string<char, std::__ndk1::char_traits<char>, std::__ndk1::allocator<char> >, std::__ndk1::__value_type<std::__ndk1::basic_string<char, std::__ndk1::char_traits<char>, std::__ndk1::allocator<char> >, std::__ndk1::shared_ptr<geode::Hook> >, std::__ndk1::less<std::__ndk1::basic_string<char, std::__ndk1::char_traits<char>, std::__ndk1::allocator<char> > >, true>, std::__ndk1::allocator<std::__ndk1::__value_type<std::__ndk1::basic_string<char, std::__ndk1::char_traits<char>, std::__ndk1::allocator<char> >, std::__ndk1::shared_ptr<geode::Hook> > > >::erase(std::__ndk1::__tree_const_iterator<std::__ndk1::__value_type<std::__ndk1::basic_string<char, std::__ndk1::char_traits<char>, std::__ndk1::allocator<char> >, std::__ndk1::shared_ptr<geode::Hook> >, std::__ndk1::__tree_node<std::__ndk1::__value_type<std::__ndk1::basic_string<char, std::__ndk1::char_traits<char>, std::__ndk1::allocator<char> >, std::__ndk1::shared_ptr<geode::Hook> >, void*>*, long>)
PUBLIC 57634 0 std::__ndk1::__tree_remove[abi:ne180000]<std::__ndk1::__tree_node_base<void*>*>(std::__ndk1::__tree_node_base<void*>*, std::__ndk1::__tree_node_base<void*>*)
PUBLIC 579fc 0 std::__ndk1::__tree<std::__ndk1::__value_type<std::__ndk1::basic_string<char, std::__ndk1::char_traits<char>, std::__ndk1::allocator<char> >, std::__ndk1::shared_ptr<geode::Hook> >, std::__ndk1::__map_value_compare<std::__ndk1::basic_string<char, std::__ndk1::char_traits<char>, std::__ndk1::allocator<char> >, std::__ndk1::__value_type<std::__ndk1::basic_string<char, std::__ndk1::char_traits<char>, std::__ndk1::allocator<char> >, std::__ndk1::shared_ptr<geode::Hook> >, std::__ndk1::less<std::__ndk1::basic_string<char, std::__ndk1::char_traits<char>, std::__ndk1::allocator<char> > >, true>, std::__ndk1::allocator<std::__ndk1::__value_type<std::__ndk1::basic_string<char, std::__ndk1::char_traits<char>, std::__ndk1::allocator<char> >, std::__ndk1::shared_ptr<geode::Hook> > > >::destroy(std::__ndk1::__tree_node<std::__ndk1::__value_type<std::__ndk1::basic_string<char, std::__ndk1::char_traits<char>, std::__ndk1::allocator<char> >, std::__ndk1::shared_ptr<geode::Hook> >, void*>*)
PUBLIC 57a88 0 geode::modifier::AsStaticFunction_update<HookedCCScheduler, void (HookedCCScheduler::*)(float)>::Impl<void (HookedCCScheduler::*)(float)>::function(HookedCCScheduler*, float)
PUBLIC 57b2c 0 geode::addresser::Addresser::addressOfVirtual<void, cocos2d::CCScheduler, float>(void (cocos2d::CCScheduler::*)(float))
PUBLIC 57c04 0 std::__ndk1::shared_ptr<tulip::hook::CallingConvention>::~shared_ptr[abi:ne180000]()
PUBLIC 57c54 0 tulip::hook::HandlerMetadata::~HandlerMetadata()
PUBLIC 57cb8 0 std::__ndk1::__tree<std::__ndk1::__value_type<std::__ndk1::basic_string<char, std::__ndk1::char_traits<char>, std::__ndk1::allocator<char> >, std::__ndk1::shared_ptr<geode::Hook> >, std::__ndk1::__map_value_compare<std::__ndk1::basic_string<char, std::__ndk1::char_traits<char>, std::__ndk1::allocator<char> >, std::__ndk1::__value_type<std::__ndk1::basic_string<char, std::__ndk1::char_traits<char>, std::__ndk1::allocator<char> >, std::__ndk1::shared_ptr<geode::Hook> >, std::__ndk1::less<std::__ndk1::basic_string<char, std::__ndk1::char_traits<char>, std::__ndk1::allocator<char> > >, true>, std::__ndk1::allocator<std::__ndk1::__value_type<std::__ndk1::basic_string<char, std::__ndk1::char_traits<char>, std::__ndk1::allocator<char> >, std::__ndk1::shared_ptr<geode::Hook> > > >::__emplace_unique_key_args<std::__ndk1::basic_string<char, std::__ndk1::char_traits<char>, std::__ndk1::allocator<char> >, std::__ndk1::piecewise_construct_t const&, std::__ndk1::tuple<std::__ndk1::basic_string<char, std::__ndk1::char_traits<char>, std::__ndk1::allocator<char> >&&>, std::__ndk1::tuple<> >(std::__ndk1::basic_string<char, std::__ndk1::char_traits<char>, std::__ndk1::allocator<char> > const&, std::__ndk1::piecewise_construct_t const&, std::__ndk1::tuple<std::__ndk1::basic_string<char, std::__ndk1::char_traits<char>, std::__ndk1::allocator<char> >&&>, std::__ndk1::tuple<>)
PUBLIC 57e30 0 __cxx_global_var_init
PUBLIC 58848 0 geode::modifier::ModifyBase<geode::modifier::ModifyDerive<HookedEditorPauseLayer, EditorPauseLayer> >::~ModifyBase()
PUBLIC 58864 0 geode::modifier::ModifyDerive<HookedEditorPauseLayer, EditorPauseLayer>::apply()
PUBLIC 591fc 0 geode::modifier::ModifyBase<geode::modifier::ModifyDerive<HookedEditorPauseLayer, EditorPauseLayer> >::apply()
PUBLIC 59200 0 geode::modifier::ModifyBase<geode::modifier::ModifyDerive<HookedEditorPauseLayer, EditorPauseLayer> >::setHookPriorityBefore(std::__ndk1::basic_string_view<char, std::__ndk1::char_traits<char> >, geode::Mod*)::{lambda(geode::ModStateEvent*)#1}::operator()(geode::ModStateEvent*) const
PUBLIC 59310 0 std::__ndk1::unique_ptr<std::__ndk1::__tree_node<std::__ndk1::__value_type<std::__ndk1::basic_string<char, std::__ndk1::char_traits<char>, std::__ndk1::allocator<char> >, std::__ndk1::shared_ptr<geode::Hook> >, void*>, std::__ndk1::__tree_node_destructor<std::__ndk1::allocator<std::__ndk1::__tree_node<std::__ndk1::__value_type<std::__ndk1::basic_string<char, std::__ndk1::char_traits<char>, std::__ndk1::allocator<char> >, std::__ndk1::shared_ptr<geode::Hook> >, void*> > > >::~unique_ptr[abi:ne180000]()
PUBLIC 5938c 0 _ZN5geode15UnwrapExceptionC2IRNSt6__ndk112basic_stringIcNS2_11char_traitsIcEENS2_9allocatorIcEEEEQsr4implE18IsStringStreamableIT_EEENS_4impl6ErrTagEOSA_
PUBLIC 594f4 0 std::__ndk1::__function::__base<void (geode::ModStateEvent*)>::~__base()
PUBLIC 594f8 0 std::__ndk1::__function::__func<geode::modifier::ModifyBase<geode::modifier::ModifyDerive<HookedEditorPauseLayer, EditorPauseLayer> >::setHookPriorityBefore(std::__ndk1::basic_string_view<char, std::__ndk1::char_traits<char> >, geode::Mod*)::{lambda(geode::ModStateEvent*)#1}, std::__ndk1::allocator<geode::modifier::ModifyBase<geode::modifier::ModifyDerive<HookedEditorPauseLayer, EditorPauseLayer> >::setHookPriorityBefore(std::__ndk1::basic_string_view<char, std::__ndk1::char_traits<char> >, geode::Mod*)::{lambda(geode::ModStateEvent*)#1}>, void (geode::ModStateEvent*)>::~__func()
PUBLIC 594fc 0 std::__ndk1::__function::__func<geode::modifier::ModifyBase<geode::modifier::ModifyDerive<HookedEditorPauseLayer, EditorPauseLayer> >::setHookPriorityBefore(std::__ndk1::basic_string_view<char, std::__ndk1::char_traits<char> >, geode::Mod*)::{lambda(geode::ModStateEvent*)#1}, std::__ndk1::allocator<geode::modifier::ModifyBase<geode::modifier::ModifyDerive<HookedEditorPauseLayer, EditorPauseLayer> >::setHookPriorityBefore(std::__ndk1::basic_string_view<char, std::__ndk1::char_traits<char> >, geode::Mod*)::{lambda(geode::ModStateEvent*)#1}>, void (geode::ModStateEvent*)>::__clone() const
PUBLIC 59534 0 std::__ndk1::__function::__func<geode::modifier::ModifyBase<geode::modifier::ModifyDerive<HookedEditorPauseLayer, EditorPauseLayer> >::setHookPriorityBefore(std::__ndk1::basic_string_view<char, std::__ndk1::char_traits<char> >, geode::Mod*)::{lambda(geode::ModStateEvent*)#1}, std::__ndk1::allocator<geode::modifier::ModifyBase<geode::modifier::ModifyDerive<HookedEditorPauseLayer, EditorPauseLayer> >::setHookPriorityBefore(std::__ndk1::basic_string_view<char, std::__ndk1::char_traits<char> >, geode::Mod*)::{lambda(geode::ModStateEvent*)#1}>, void (geode::ModStateEvent*)>::__clone(std::__ndk1::__function::__base<void (geode::ModStateEvent*)>*) const
PUBLIC 5954c 0 std::__ndk1::__function::__func<geode::modifier::ModifyBase<geode::modifier::ModifyDerive<HookedEditorPauseLayer, EditorPauseLayer> >::setHookPriorityBefore(std::__ndk1::basic_string_view<char, std::__ndk1::char_traits<char> >, geode::Mod*)::{lambda(geode::ModStateEvent*)#1}, std::__ndk1::allocator<geode::modifier::ModifyBase<geode::modifier::ModifyDerive<HookedEditorPauseLayer, EditorPauseLayer> >::setHookPriorityBefore(std::__ndk1::basic_string_view<char, std::__ndk1::char_traits<char> >, geode::Mod*)::{lambda(geode::ModStateEvent*)#1}>, void (geode::ModStateEvent*)>::destroy()
PUBLIC 59550 0 std::__ndk1::__function::__func<geode::modifier::ModifyBase<geode::modifier::ModifyDerive<HookedEditorPauseLayer, EditorPauseLayer> >::setHookPriorityBefore(std::__ndk1::basic_string_view<char, std::__ndk1::char_traits<char> >, geode::Mod*)::{lambda(geode::ModStateEvent*)#1}, std::__ndk1::allocator<geode::modifier::ModifyBase<geode::modifier::ModifyDerive<HookedEditorPauseLayer, EditorPauseLayer> >::setHookPriorityBefore(std::__ndk1::basic_string_view<char, std::__ndk1::char_traits<char> >, geode::Mod*)::{lambda(geode::ModStateEvent*)#1}>, void (geode::ModStateEvent*)>::destroy_deallocate()
PUBLIC 59554 0 std::__ndk1::__function::__func<geode::modifier::ModifyBase<geode::modifier::ModifyDerive<HookedEditorPauseLayer, EditorPauseLayer> >::setHookPriorityBefore(std::__ndk1::basic_string_view<char, std::__ndk1::char_traits<char> >, geode::Mod*)::{lambda(geode::ModStateEvent*)#1}, std::__ndk1::allocator<geode::modifier::ModifyBase<geode::modifier::ModifyDerive<HookedEditorPauseLayer, EditorPauseLayer> >::setHookPriorityBefore(std::__ndk1::basic_string_view<char, std::__ndk1::char_traits<char> >, geode::Mod*)::{lambda(geode::ModStateEvent*)#1}>, void (geode::ModStateEvent*)>::operator()(geode::ModStateEvent*&&)
PUBLIC 5955c 0 std::__ndk1::__function::__func<geode::modifier::ModifyBase<geode::modifier::ModifyDerive<HookedEditorPauseLayer, EditorPauseLayer> >::setHookPriorityBefore(std::__ndk1::basic_string_view<char, std::__ndk1::char_traits<char> >, geode::Mod*)::{lambda(geode::ModStateEvent*)#1}, std::__ndk1::allocator<geode::modifier::ModifyBase<geode::modifier::ModifyDerive<HookedEditorPauseLayer, EditorPauseLayer> >::setHookPriorityBefore(std::__ndk1::basic_string_view<char, std::__ndk1::char_traits<char> >, geode::Mod*)::{lambda(geode::ModStateEvent*)#1}>, void (geode::ModStateEvent*)>::target(std::type_info const&) const
PUBLIC 59578 0 std::__ndk1::__function::__func<geode::modifier::ModifyBase<geode::modifier::ModifyDerive<HookedEditorPauseLayer, EditorPauseLayer> >::setHookPriorityBefore(std::__ndk1::basic_string_view<char, std::__ndk1::char_traits<char> >, geode::Mod*)::{lambda(geode::ModStateEvent*)#1}, std::__ndk1::allocator<geode::modifier::ModifyBase<geode::modifier::ModifyDerive<HookedEditorPauseLayer, EditorPauseLayer> >::setHookPriorityBefore(std::__ndk1::basic_string_view<char, std::__ndk1::char_traits<char> >, geode::Mod*)::{lambda(geode::ModStateEvent*)#1}>, void (geode::ModStateEvent*)>::target_type() const
PUBLIC 59584 0 geode::EventListener<geode::ModStateFilter>::getPool() const
PUBLIC 59588 0 geode::EventListener<geode::ModStateFilter>::handle(geode::Event*)
PUBLIC 596fc 0 geode::EventListener<geode::ModStateFilter>::~EventListener()
PUBLIC 59758 0 geode::EventListener<geode::ModStateFilter>::~EventListener()
PUBLIC 597bc 0 std::__ndk1::__variant_detail::__visitation::__base::__dispatcher<(unsigned long)0>::__dispatch[abi:ne180000]<std::__ndk1::__variant_detail::__dtor<std::__ndk1::__variant_detail::__traits<std::__ndk1::monostate, std::__ndk1::basic_string<char, std::__ndk1::char_traits<char>, std::__ndk1::allocator<char> > >, (std::__ndk1::__variant_detail::_Trait)1>::__destroy[abi:ne180000]()::{lambda(auto:1&)#1}, std::__ndk1::__variant_detail::__base<(std::__ndk1::__variant_detail::__traits<std::__ndk1::monostate, std::__ndk1::basic_string<char, std::__ndk1::char_traits<char>, std::__ndk1::allocator<char> > >)1, std::__ndk1::__variant_detail::__traits, std::__ndk1::allocator<char> >&>(std::__ndk1::__variant_detail::__dtor<std::__ndk1::__variant_detail::__traits<std::__ndk1::monostate, std::__ndk1::basic_string<char, std::__ndk1::char_traits<char>, std::__ndk1::allocator<char> > >, (std::__ndk1::__variant_detail::_Trait)1>, std::__ndk1::__variant_detail::__base<(std::__ndk1::__variant_detail::__traits<std::__ndk1::monostate, std::__ndk1::basic_string<char, std::__ndk1::char_traits<char>, std::__ndk1::allocator<char> > >)1, std::__ndk1::__variant_detail::__traits, std::__ndk1::allocator<char> >&)
PUBLIC 597c0 0 std::__ndk1::__variant_detail::__visitation::__base::__dispatcher<(unsigned long)1>::__dispatch[abi:ne180000]<std::__ndk1::__variant_detail::__dtor<std::__ndk1::__variant_detail::__traits<std::__ndk1::monostate, std::__ndk1::basic_string<char, std::__ndk1::char_traits<char>, std::__ndk1::allocator<char> > >, (std::__ndk1::__variant_detail::_Trait)1>::__destroy[abi:ne180000]()::{lambda(auto:1&)#1}, std::__ndk1::__variant_detail::__base<(std::__ndk1::__variant_detail::__traits<std::__ndk1::monostate, std::__ndk1::basic_string<char, std::__ndk1::char_traits<char>, std::__ndk1::allocator<char> > >)1, std::__ndk1::__variant_detail::__traits, std::__ndk1::allocator<char> >&>(std::__ndk1::__variant_detail::__dtor<std::__ndk1::__variant_detail::__traits<std::__ndk1::monostate, std::__ndk1::basic_string<char, std::__ndk1::char_traits<char>, std::__ndk1::allocator<char> > >, (std::__ndk1::__variant_detail::_Trait)1>, std::__ndk1::__variant_detail::__base<(std::__ndk1::__variant_detail::__traits<std::__ndk1::monostate, std::__ndk1::basic_string<char, std::__ndk1::char_traits<char>, std::__ndk1::allocator<char> > >)1, std::__ndk1::__variant_detail::__traits, std::__ndk1::allocator<char> >&)
PUBLIC 597d4 0 geode::modifier::AsStaticFunction_init<HookedEditorPauseLayer, bool (HookedEditorPauseLayer::*)(LevelEditorLayer*)>::Impl<bool (HookedEditorPauseLayer::*)(LevelEditorLayer*)>::function(HookedEditorPauseLayer*, LevelEditorLayer*)
PUBLIC 59a08 0 geode::Hook::create<void (*)(HookedEditorPauseLayer*, cocos2d::CCObject*)>(void*, void (*)(HookedEditorPauseLayer*, cocos2d::CCObject*), std::__ndk1::basic_string<char, std::__ndk1::char_traits<char>, std::__ndk1::allocator<char> > const&, tulip::hook::TulipConvention, tulip::hook::HookMetadata const&)
PUBLIC 59b8c 0 geode::modifier::AsStaticFunction_onExitEditor<HookedEditorPauseLayer, void (HookedEditorPauseLayer::*)(cocos2d::CCObject*)>::Impl<void (HookedEditorPauseLayer::*)(cocos2d::CCObject*)>::function(HookedEditorPauseLayer*, cocos2d::CCObject*)
PUBLIC 59d00 0 geode::modifier::AsStaticFunction_onSaveAndExit<HookedEditorPauseLayer, void (HookedEditorPauseLayer::*)(cocos2d::CCObject*)>::Impl<void (HookedEditorPauseLayer::*)(cocos2d::CCObject*)>::function(HookedEditorPauseLayer*, cocos2d::CCObject*)
PUBLIC 59e74 0 geode::modifier::AsStaticFunction_onSaveAndPlay<HookedEditorPauseLayer, void (HookedEditorPauseLayer::*)(cocos2d::CCObject*)>::Impl<void (HookedEditorPauseLayer::*)(cocos2d::CCObject*)>::function(HookedEditorPauseLayer*, cocos2d::CCObject*)
PUBLIC 59fe8 0 geode::modifier::FieldIntermediate<HookedLevelEditorLayer, LevelEditorLayer>::self()
PUBLIC 5a630 0 cocos2d::CCNode::addEventListener<keybinds::InvokeBindFilter, char const*>(std::__ndk1::function<keybinds::InvokeBindFilter::Callback>, char const*&&)
PUBLIC 5aaa4 0 cocos2d::CCSequence::create(cocos2d::CCFiniteTimeAction*, ...)
PUBLIC 5ab3c 0 __cxx_global_var_init
PUBLIC 5afbc 0 geode::modifier::ModifyBase<geode::modifier::ModifyDerive<HookedLevelEditorLayer, LevelEditorLayer> >::~ModifyBase()
PUBLIC 5afd8 0 geode::modifier::FieldIntermediate<HookedLevelEditorLayer, LevelEditorLayer>::fieldDestructor(void*)
PUBLIC 5b028 0 std::__ndk1::vector<void*, std::__ndk1::allocator<void*> >::__throw_length_error[abi:ne180000]() const
PUBLIC 5b03c 0 std::__ndk1::vector<std::__ndk1::function<void (void*)>, std::__ndk1::allocator<std::__ndk1::function<void (void*)> > >::__throw_length_error[abi:ne180000]() const
PUBLIC 5b050 0 std::__ndk1::vector<void*, std::__ndk1::allocator<void*> >::__throw_out_of_range[abi:ne180000]() const
PUBLIC 5b064 0 std::__ndk1::vector<std::__ndk1::function<void (void*)>, std::__ndk1::allocator<std::__ndk1::function<void (void*)> > >::__throw_out_of_range[abi:ne180000]() const
PUBLIC 5b078 0 std::__ndk1::__function::__base<void (void*)>::~__base()
PUBLIC 5b07c 0 std::__ndk1::__function::__func<void (*)(void*), std::__ndk1::allocator<void (*)(void*)>, void (void*)>::~__func()
PUBLIC 5b080 0 std::__ndk1::__function::__func<void (*)(void*), std::__ndk1::allocator<void (*)(void*)>, void (void*)>::__clone() const
PUBLIC 5b0b8 0 std::__ndk1::__function::__func<void (*)(void*), std::__ndk1::allocator<void (*)(void*)>, void (void*)>::__clone(std::__ndk1::__function::__base<void (void*)>*) const
PUBLIC 5b0d0 0 std::__ndk1::__function::__func<void (*)(void*), std::__ndk1::allocator<void (*)(void*)>, void (void*)>::destroy()
PUBLIC 5b0d4 0 std::__ndk1::__function::__func<void (*)(void*), std::__ndk1::allocator<void (*)(void*)>, void (void*)>::destroy_deallocate()
PUBLIC 5b0d8 0 std::__ndk1::__function::__func<void (*)(void*), std::__ndk1::allocator<void (*)(void*)>, void (void*)>::operator()(void*&&)
PUBLIC 5b0e8 0 std::__ndk1::__function::__func<void (*)(void*), std::__ndk1::allocator<void (*)(void*)>, void (void*)>::target(std::type_info const&) const
PUBLIC 5b104 0 std::__ndk1::__function::__func<void (*)(void*), std::__ndk1::allocator<void (*)(void*)>, void (void*)>::target_type() const
PUBLIC 5b110 0 geode::modifier::ModifyDerive<HookedLevelEditorLayer, LevelEditorLayer>::apply()
PUBLIC 5b798 0 geode::modifier::ModifyBase<geode::modifier::ModifyDerive<HookedLevelEditorLayer, LevelEditorLayer> >::apply()
PUBLIC 5b79c 0 geode::modifier::AsStaticFunction_init<HookedLevelEditorLayer, bool (HookedLevelEditorLayer::*)(GJGameLevel*, bool)>::Impl<bool (HookedLevelEditorLayer::*)(GJGameLevel*, bool)>::function(HookedLevelEditorLayer*, GJGameLevel*, bool)
PUBLIC 5bd34 0 geode::modifier::AsStaticFunction_updateEditor<HookedLevelEditorLayer, void (HookedLevelEditorLayer::*)(float)>::Impl<void (HookedLevelEditorLayer::*)(float)>::function(HookedLevelEditorLayer*, float)
PUBLIC 5c290 0 geode::EventListener<keybinds::InvokeBindFilter>::getPool() const
PUBLIC 5c294 0 geode::EventListener<keybinds::InvokeBindFilter>::handle(geode::Event*)
PUBLIC 5c408 0 geode::EventListener<keybinds::InvokeBindFilter>::~EventListener()
PUBLIC 5c474 0 geode::EventListener<keybinds::InvokeBindFilter>::~EventListener()
PUBLIC 5c4e8 0 std::__ndk1::__function::__func<HookedLevelEditorLayer::init(GJGameLevel*, bool)::$_0, std::__ndk1::allocator<HookedLevelEditorLayer::init(GJGameLevel*, bool)::$_0>, geode::ListenerResult(keybinds::InvokeBindEvent*)>::~__func()
PUBLIC 5c4ec 0 std::__ndk1::__function::__func<HookedLevelEditorLayer::init(GJGameLevel*, bool)::$_0, std::__ndk1::allocator<HookedLevelEditorLayer::init(GJGameLevel*, bool)::$_0>, geode::ListenerResult(keybinds::InvokeBindEvent*)>::__clone() const
PUBLIC 5c510 0 std::__ndk1::__function::__func<HookedLevelEditorLayer::init(GJGameLevel*, bool)::$_0, std::__ndk1::allocator<HookedLevelEditorLayer::init(GJGameLevel*, bool)::$_0>, geode::ListenerResult(keybinds::InvokeBindEvent*)>::__clone(std::__ndk1::__function::__base<geode::ListenerResult(keybinds::InvokeBindEvent*)>*) const
PUBLIC 5c520 0 std::__ndk1::__function::__func<HookedLevelEditorLayer::init(GJGameLevel*, bool)::$_0, std::__ndk1::allocator<HookedLevelEditorLayer::init(GJGameLevel*, bool)::$_0>, geode::ListenerResult(keybinds::InvokeBindEvent*)>::destroy()
PUBLIC 5c524 0 std::__ndk1::__function::__func<HookedLevelEditorLayer::init(GJGameLevel*, bool)::$_0, std::__ndk1::allocator<HookedLevelEditorLayer::init(GJGameLevel*, bool)::$_0>, geode::ListenerResult(keybinds::InvokeBindEvent*)>::destroy_deallocate()
PUBLIC 5c528 0 std::__ndk1::__function::__func<HookedLevelEditorLayer::init(GJGameLevel*, bool)::$_0, std::__ndk1::allocator<HookedLevelEditorLayer::init(GJGameLevel*, bool)::$_0>, geode::ListenerResult(keybinds::InvokeBindEvent*)>::operator()(keybinds::InvokeBindEvent*&&)
PUBLIC 5c6a0 0 std::__ndk1::__function::__func<HookedLevelEditorLayer::init(GJGameLevel*, bool)::$_0, std::__ndk1::allocator<HookedLevelEditorLayer::init(GJGameLevel*, bool)::$_0>, geode::ListenerResult(keybinds::InvokeBindEvent*)>::target(std::type_info const&) const
PUBLIC 5c6bc 0 std::__ndk1::__function::__func<HookedLevelEditorLayer::init(GJGameLevel*, bool)::$_0, std::__ndk1::allocator<HookedLevelEditorLayer::init(GJGameLevel*, bool)::$_0>, geode::ListenerResult(keybinds::InvokeBindEvent*)>::target_type() const
PUBLIC 5c6c8 0 std::__ndk1::__function::__func<HookedLevelEditorLayer::init(GJGameLevel*, bool)::$_1, std::__ndk1::allocator<HookedLevelEditorLayer::init(GJGameLevel*, bool)::$_1>, geode::ListenerResult(keybinds::InvokeBindEvent*)>::~__func()
PUBLIC 5c6cc 0 std::__ndk1::__function::__func<HookedLevelEditorLayer::init(GJGameLevel*, bool)::$_1, std::__ndk1::allocator<HookedLevelEditorLayer::init(GJGameLevel*, bool)::$_1>, geode::ListenerResult(keybinds::InvokeBindEvent*)>::__clone() const
PUBLIC 5c6f0 0 std::__ndk1::__function::__func<HookedLevelEditorLayer::init(GJGameLevel*, bool)::$_1, std::__ndk1::allocator<HookedLevelEditorLayer::init(GJGameLevel*, bool)::$_1>, geode::ListenerResult(keybinds::InvokeBindEvent*)>::__clone(std::__ndk1::__function::__base<geode::ListenerResult(keybinds::InvokeBindEvent*)>*) const
PUBLIC 5c700 0 std::__ndk1::__function::__func<HookedLevelEditorLayer::init(GJGameLevel*, bool)::$_1, std::__ndk1::allocator<HookedLevelEditorLayer::init(GJGameLevel*, bool)::$_1>, geode::ListenerResult(keybinds::InvokeBindEvent*)>::destroy()
PUBLIC 5c704 0 std::__ndk1::__function::__func<HookedLevelEditorLayer::init(GJGameLevel*, bool)::$_1, std::__ndk1::allocator<HookedLevelEditorLayer::init(GJGameLevel*, bool)::$_1>, geode::ListenerResult(keybinds::InvokeBindEvent*)>::destroy_deallocate()
PUBLIC 5c708 0 std::__ndk1::__function::__func<HookedLevelEditorLayer::init(GJGameLevel*, bool)::$_1, std::__ndk1::allocator<HookedLevelEditorLayer::init(GJGameLevel*, bool)::$_1>, geode::ListenerResult(keybinds::InvokeBindEvent*)>::operator()(keybinds::InvokeBindEvent*&&)
PUBLIC 5c874 0 std::__ndk1::__function::__func<HookedLevelEditorLayer::init(GJGameLevel*, bool)::$_1, std::__ndk1::allocator<HookedLevelEditorLayer::init(GJGameLevel*, bool)::$_1>, geode::ListenerResult(keybinds::InvokeBindEvent*)>::target(std::type_info const&) const
PUBLIC 5c890 0 std::__ndk1::__function::__func<HookedLevelEditorLayer::init(GJGameLevel*, bool)::$_1, std::__ndk1::allocator<HookedLevelEditorLayer::init(GJGameLevel*, bool)::$_1>, geode::ListenerResult(keybinds::InvokeBindEvent*)>::target_type() const
PUBLIC 5c89c 0 std::__ndk1::__function::__base<geode::ListenerResult(keybinds::InvokeBindEvent*)>::~__base()
PUBLIC 5c8a0 0 std::__ndk1::__function::__func<HookedLevelEditorLayer::init(GJGameLevel*, bool)::$_2, std::__ndk1::allocator<HookedLevelEditorLayer::init(GJGameLevel*, bool)::$_2>, geode::ListenerResult(keybinds::InvokeBindEvent*)>::~__func()
PUBLIC 5c8a4 0 std::__ndk1::__function::__func<HookedLevelEditorLayer::init(GJGameLevel*, bool)::$_2, std::__ndk1::allocator<HookedLevelEditorLayer::init(GJGameLevel*, bool)::$_2>, geode::ListenerResult(keybinds::InvokeBindEvent*)>::__clone() const
PUBLIC 5c8c8 0 std::__ndk1::__function::__func<HookedLevelEditorLayer::init(GJGameLevel*, bool)::$_2, std::__ndk1::allocator<HookedLevelEditorLayer::init(GJGameLevel*, bool)::$_2>, geode::ListenerResult(keybinds::InvokeBindEvent*)>::__clone(std::__ndk1::__function::__base<geode::ListenerResult(keybinds::InvokeBindEvent*)>*) const
PUBLIC 5c8d8 0 std::__ndk1::__function::__func<HookedLevelEditorLayer::init(GJGameLevel*, bool)::$_2, std::__ndk1::allocator<HookedLevelEditorLayer::init(GJGameLevel*, bool)::$_2>, geode::ListenerResult(keybinds::InvokeBindEvent*)>::destroy()
PUBLIC 5c8dc 0 std::__ndk1::__function::__func<HookedLevelEditorLayer::init(GJGameLevel*, bool)::$_2, std::__ndk1::allocator<HookedLevelEditorLayer::init(GJGameLevel*, bool)::$_2>, geode::ListenerResult(keybinds::InvokeBindEvent*)>::destroy_deallocate()
PUBLIC 5c8e0 0 std::__ndk1::__function::__func<HookedLevelEditorLayer::init(GJGameLevel*, bool)::$_2, std::__ndk1::allocator<HookedLevelEditorLayer::init(GJGameLevel*, bool)::$_2>, geode::ListenerResult(keybinds::InvokeBindEvent*)>::operator()(keybinds::InvokeBindEvent*&&)
PUBLIC 5ca4c 0 std::__ndk1::__function::__func<HookedLevelEditorLayer::init(GJGameLevel*, bool)::$_2, std::__ndk1::allocator<HookedLevelEditorLayer::init(GJGameLevel*, bool)::$_2>, geode::ListenerResult(keybinds::InvokeBindEvent*)>::target(std::type_info const&) const
PUBLIC 5ca68 0 std::__ndk1::__function::__func<HookedLevelEditorLayer::init(GJGameLevel*, bool)::$_2, std::__ndk1::allocator<HookedLevelEditorLayer::init(GJGameLevel*, bool)::$_2>, geode::ListenerResult(keybinds::InvokeBindEvent*)>::target_type() const
PUBLIC 5ca74 0 cocos2d::CCKeyboardDelegate::keyUp(cocos2d::enumKeyCodes)
PUBLIC 5ca78 0 cocos2d::CCMouseDelegate::rightKeyDown()
PUBLIC 5ca7c 0 cocos2d::CCMouseDelegate::rightKeyUp()
PUBLIC 5ca80 0 cocos2d::CCMouseDelegate::scrollWheel(float, float)
PUBLIC 5ca84 0 __cxx_global_var_init
PUBLIC 5cf04 0 geode::modifier::ModifyBase<geode::modifier::ModifyDerive<HookedMenuLayer, MenuLayer> >::~ModifyBase()
PUBLIC 5cf20 0 geode::modifier::ModifyDerive<HookedMenuLayer, MenuLayer>::apply()
PUBLIC 5d228 0 geode::modifier::ModifyBase<geode::modifier::ModifyDerive<HookedMenuLayer, MenuLayer> >::apply()
PUBLIC 5d22c 0 geode::modifier::AsStaticFunction_init<HookedMenuLayer, bool (HookedMenuLayer::*)()>::Impl<bool (HookedMenuLayer::*)()>::function(HookedMenuLayer*)
PUBLIC 5d324 0 geode::addresser::Addresser::addressOfVirtual<bool, MenuLayer, >(bool (MenuLayer::*)())
PUBLIC 5d3cc 0 MenuLayer::MenuLayer(geode::ZeroConstructorType)
PUBLIC 5d468 0 geodeExecFunction3<(anonymous namespace)::ExecFuncUnique3>(geode::ModStateEvent*)
PUBLIC 5de68 0 geode::Ref<keybinds::Bind>::~Ref()
PUBLIC 5de84 0 keybinds::BindableAction::~BindableAction()
PUBLIC 5df48 0 std::__ndk1::vector<geode::Ref<keybinds::Bind>, std::__ndk1::allocator<geode::Ref<keybinds::Bind> > >::~vector[abi:ne180000]()
PUBLIC 5dfcc 0 std::__ndk1::__exception_guard_exceptions<std::__ndk1::vector<geode::Ref<keybinds::Bind>, std::__ndk1::allocator<geode::Ref<keybinds::Bind> > >::__destroy_vector>::~__exception_guard_exceptions[abi:ne180000]()
PUBLIC 5e060 0 std::__ndk1::__exception_guard_exceptions<std::__ndk1::_AllocatorDestroyRangeReverse<std::__ndk1::allocator<geode::Ref<keybinds::Bind> >, geode::Ref<keybinds::Bind>*> >::~__exception_guard_exceptions[abi:ne180000]()
PUBLIC 5e0a8 0 std::__ndk1::__function::__func<void (*)(geode::ModStateEvent*), std::__ndk1::allocator<void (*)(geode::ModStateEvent*)>, void (geode::ModStateEvent*)>::~__func()
PUBLIC 5e0ac 0 std::__ndk1::__function::__func<void (*)(geode::ModStateEvent*), std::__ndk1::allocator<void (*)(geode::ModStateEvent*)>, void (geode::ModStateEvent*)>::__clone() const
PUBLIC 5e0e0 0 std::__ndk1::__function::__func<void (*)(geode::ModStateEvent*), std::__ndk1::allocator<void (*)(geode::ModStateEvent*)>, void (geode::ModStateEvent*)>::__clone(std::__ndk1::__function::__base<void (geode::ModStateEvent*)>*) const
PUBLIC 5e0f4 0 std::__ndk1::__function::__func<void (*)(geode::ModStateEvent*), std::__ndk1::allocator<void (*)(geode::ModStateEvent*)>, void (geode::ModStateEvent*)>::destroy()
PUBLIC 5e0f8 0 std::__ndk1::__function::__func<void (*)(geode::ModStateEvent*), std::__ndk1::allocator<void (*)(geode::ModStateEvent*)>, void (geode::ModStateEvent*)>::destroy_deallocate()
PUBLIC 5e0fc 0 std::__ndk1::__function::__func<void (*)(geode::ModStateEvent*), std::__ndk1::allocator<void (*)(geode::ModStateEvent*)>, void (geode::ModStateEvent*)>::operator()(geode::ModStateEvent*&&)
PUBLIC 5e10c 0 std::__ndk1::__function::__func<void (*)(geode::ModStateEvent*), std::__ndk1::allocator<void (*)(geode::ModStateEvent*)>, void (geode::ModStateEvent*)>::target(std::type_info const&) const
PUBLIC 5e128 0 std::__ndk1::__function::__func<void (*)(geode::ModStateEvent*), std::__ndk1::allocator<void (*)(geode::ModStateEvent*)>, void (geode::ModStateEvent*)>::target_type() const
PUBLIC 5e134 0 _GLOBAL__sub_I_keybinds.cpp
PUBLIC 5e260 0 geodeExecFunction7<(anonymous namespace)::ExecFuncUnique7>(geode::ModStateEvent*)
PUBLIC 5ea00 0 std::__ndk1::shared_ptr<geode::SettingV3>::~shared_ptr[abi:ne180000]()
PUBLIC 5ea50 0 std::__ndk1::shared_ptr<geode::BoolSettingV3>::~shared_ptr[abi:ne180000]()
PUBLIC 5eaa0 0 geode::EventListener<geode::SettingChangedFilterV3>::EventListener(std::__ndk1::function<void (std::__ndk1::shared_ptr<geode::SettingV3>)>, geode::SettingChangedFilterV3)
PUBLIC 5eb98 0 geode::SettingChangedFilterV3::~SettingChangedFilterV3()
PUBLIC 5ebe8 0 std::__ndk1::__function::__func<geode::listenForSettingChangesV3<bool, geodeExecFunction7<(anonymous namespace)::ExecFuncUnique7>(geode::ModStateEvent*)::{lambda(bool)#1}>(std::__ndk1::basic_string_view<char, std::__ndk1::char_traits<char> >, geodeExecFunction7<(anonymous namespace)::ExecFuncUnique7>(geode::ModStateEvent*)::{lambda(bool)#1}&&, geode::Mod*)::{lambda(std::__ndk1::shared_ptr<geode::SettingV3>)#1}, std::__ndk1::allocator<geode::listenForSettingChangesV3<bool, geodeExecFunction7<(anonymous namespace)::ExecFuncUnique7>(geode::ModStateEvent*)::{lambda(bool)#1}>(std::__ndk1::basic_string_view<char, std::__ndk1::char_traits<char> >, geodeExecFunction7<(anonymous namespace)::ExecFuncUnique7>(geode::ModStateEvent*)::{lambda(bool)#1}&&, geode::Mod*)::{lambda(std::__ndk1::shared_ptr<geode::SettingV3>)#1}>, void (std::__ndk1::shared_ptr<geode::SettingV3>)>::~__func()
PUBLIC 5ebec 0 std::__ndk1::__function::__func<geode::listenForSettingChangesV3<bool, geodeExecFunction7<(anonymous namespace)::ExecFuncUnique7>(geode::ModStateEvent*)::{lambda(bool)#1}>(std::__ndk1::basic_string_view<char, std::__ndk1::char_traits<char> >, geodeExecFunction7<(anonymous namespace)::ExecFuncUnique7>(geode::ModStateEvent*)::{lambda(bool)#1}&&, geode::Mod*)::{lambda(std::__ndk1::shared_ptr<geode::SettingV3>)#1}, std::__ndk1::allocator<geode::listenForSettingChangesV3<bool, geodeExecFunction7<(anonymous namespace)::ExecFuncUnique7>(geode::ModStateEvent*)::{lambda(bool)#1}>(std::__ndk1::basic_string_view<char, std::__ndk1::char_traits<char> >, geodeExecFunction7<(anonymous namespace)::ExecFuncUnique7>(geode::ModStateEvent*)::{lambda(bool)#1}&&, geode::Mod*)::{lambda(std::__ndk1::shared_ptr<geode::SettingV3>)#1}>, void (std::__ndk1::shared_ptr<geode::SettingV3>)>::__clone() const
PUBLIC 5ec24 0 std::__ndk1::__function::__func<geode::listenForSettingChangesV3<bool, geodeExecFunction7<(anonymous namespace)::ExecFuncUnique7>(geode::ModStateEvent*)::{lambda(bool)#1}>(std::__ndk1::basic_string_view<char, std::__ndk1::char_traits<char> >, geodeExecFunction7<(anonymous namespace)::ExecFuncUnique7>(geode::ModStateEvent*)::{lambda(bool)#1}&&, geode::Mod*)::{lambda(std::__ndk1::shared_ptr<geode::SettingV3>)#1}, std::__ndk1::allocator<geode::listenForSettingChangesV3<bool, geodeExecFunction7<(anonymous namespace)::ExecFuncUnique7>(geode::ModStateEvent*)::{lambda(bool)#1}>(std::__ndk1::basic_string_view<char, std::__ndk1::char_traits<char> >, geodeExecFunction7<(anonymous namespace)::ExecFuncUnique7>(geode::ModStateEvent*)::{lambda(bool)#1}&&, geode::Mod*)::{lambda(std::__ndk1::shared_ptr<geode::SettingV3>)#1}>, void (std::__ndk1::shared_ptr<geode::SettingV3>)>::__clone(std::__ndk1::__function::__base<void (std::__ndk1::shared_ptr<geode::SettingV3>)>*) const
PUBLIC 5ec3c 0 std::__ndk1::__function::__func<geode::listenForSettingChangesV3<bool, geodeExecFunction7<(anonymous namespace)::ExecFuncUnique7>(geode::ModStateEvent*)::{lambda(bool)#1}>(std::__ndk1::basic_string_view<char, std::__ndk1::char_traits<char> >, geodeExecFunction7<(anonymous namespace)::ExecFuncUnique7>(geode::ModStateEvent*)::{lambda(bool)#1}&&, geode::Mod*)::{lambda(std::__ndk1::shared_ptr<geode::SettingV3>)#1}, std::__ndk1::allocator<geode::listenForSettingChangesV3<bool, geodeExecFunction7<(anonymous namespace)::ExecFuncUnique7>(geode::ModStateEvent*)::{lambda(bool)#1}>(std::__ndk1::basic_string_view<char, std::__ndk1::char_traits<char> >, geodeExecFunction7<(anonymous namespace)::ExecFuncUnique7>(geode::ModStateEvent*)::{lambda(bool)#1}&&, geode::Mod*)::{lambda(std::__ndk1::shared_ptr<geode::SettingV3>)#1}>, void (std::__ndk1::shared_ptr<geode::SettingV3>)>::destroy()
PUBLIC 5ec40 0 std::__ndk1::__function::__func<geode::listenForSettingChangesV3<bool, geodeExecFunction7<(anonymous namespace)::ExecFuncUnique7>(geode::ModStateEvent*)::{lambda(bool)#1}>(std::__ndk1::basic_string_view<char, std::__ndk1::char_traits<char> >, geodeExecFunction7<(anonymous namespace)::ExecFuncUnique7>(geode::ModStateEvent*)::{lambda(bool)#1}&&, geode::Mod*)::{lambda(std::__ndk1::shared_ptr<geode::SettingV3>)#1}, std::__ndk1::allocator<geode::listenForSettingChangesV3<bool, geodeExecFunction7<(anonymous namespace)::ExecFuncUnique7>(geode::ModStateEvent*)::{lambda(bool)#1}>(std::__ndk1::basic_string_view<char, std::__ndk1::char_traits<char> >, geodeExecFunction7<(anonymous namespace)::ExecFuncUnique7>(geode::ModStateEvent*)::{lambda(bool)#1}&&, geode::Mod*)::{lambda(std::__ndk1::shared_ptr<geode::SettingV3>)#1}>, void (std::__ndk1::shared_ptr<geode::SettingV3>)>::destroy_deallocate()
PUBLIC 5ec44 0 std::__ndk1::__function::__func<geode::listenForSettingChangesV3<bool, geodeExecFunction7<(anonymous namespace)::ExecFuncUnique7>(geode::ModStateEvent*)::{lambda(bool)#1}>(std::__ndk1::basic_string_view<char, std::__ndk1::char_traits<char> >, geodeExecFunction7<(anonymous namespace)::ExecFuncUnique7>(geode::ModStateEvent*)::{lambda(bool)#1}&&, geode::Mod*)::{lambda(std::__ndk1::shared_ptr<geode::SettingV3>)#1}, std::__ndk1::allocator<geode::listenForSettingChangesV3<bool, geodeExecFunction7<(anonymous namespace)::ExecFuncUnique7>(geode::ModStateEvent*)::{lambda(bool)#1}>(std::__ndk1::basic_string_view<char, std::__ndk1::char_traits<char> >, geodeExecFunction7<(anonymous namespace)::ExecFuncUnique7>(geode::ModStateEvent*)::{lambda(bool)#1}&&, geode::Mod*)::{lambda(std::__ndk1::shared_ptr<geode::SettingV3>)#1}>, void (std::__ndk1::shared_ptr<geode::SettingV3>)>::operator()(std::__ndk1::shared_ptr<geode::SettingV3>&&)
PUBLIC 5eec0 0 std::__ndk1::__function::__func<geode::listenForSettingChangesV3<bool, geodeExecFunction7<(anonymous namespace)::ExecFuncUnique7>(geode::ModStateEvent*)::{lambda(bool)#1}>(std::__ndk1::basic_string_view<char, std::__ndk1::char_traits<char> >, geodeExecFunction7<(anonymous namespace)::ExecFuncUnique7>(geode::ModStateEvent*)::{lambda(bool)#1}&&, geode::Mod*)::{lambda(std::__ndk1::shared_ptr<geode::SettingV3>)#1}, std::__ndk1::allocator<geode::listenForSettingChangesV3<bool, geodeExecFunction7<(anonymous namespace)::ExecFuncUnique7>(geode::ModStateEvent*)::{lambda(bool)#1}>(std::__ndk1::basic_string_view<char, std::__ndk1::char_traits<char> >, geodeExecFunction7<(anonymous namespace)::ExecFuncUnique7>(geode::ModStateEvent*)::{lambda(bool)#1}&&, geode::Mod*)::{lambda(std::__ndk1::shared_ptr<geode::SettingV3>)#1}>, void (std::__ndk1::shared_ptr<geode::SettingV3>)>::target(std::type_info const&) const
PUBLIC 5eedc 0 std::__ndk1::__function::__func<geode::listenForSettingChangesV3<bool, geodeExecFunction7<(anonymous namespace)::ExecFuncUnique7>(geode::ModStateEvent*)::{lambda(bool)#1}>(std::__ndk1::basic_string_view<char, std::__ndk1::char_traits<char> >, geodeExecFunction7<(anonymous namespace)::ExecFuncUnique7>(geode::ModStateEvent*)::{lambda(bool)#1}&&, geode::Mod*)::{lambda(std::__ndk1::shared_ptr<geode::SettingV3>)#1}, std::__ndk1::allocator<geode::listenForSettingChangesV3<bool, geodeExecFunction7<(anonymous namespace)::ExecFuncUnique7>(geode::ModStateEvent*)::{lambda(bool)#1}>(std::__ndk1::basic_string_view<char, std::__ndk1::char_traits<char> >, geodeExecFunction7<(anonymous namespace)::ExecFuncUnique7>(geode::ModStateEvent*)::{lambda(bool)#1}&&, geode::Mod*)::{lambda(std::__ndk1::shared_ptr<geode::SettingV3>)#1}>, void (std::__ndk1::shared_ptr<geode::SettingV3>)>::target_type() const
PUBLIC 5eee8 0 AudioManager::AudioManager(AudioManager const&)
PUBLIC 5f208 0 std::__ndk1::deque<std::__ndk1::shared_ptr<AudioSource>, std::__ndk1::allocator<std::__ndk1::shared_ptr<AudioSource> > >::__append_with_size[abi:ne180000]<std::__ndk1::__deque_iterator<std::__ndk1::shared_ptr<AudioSource>, std::__ndk1::shared_ptr<AudioSource> const*, std::__ndk1::__deque_iterator&, std::__ndk1::shared_ptr<AudioSource> const const*, long, (long)256> >(std::__ndk1::__deque_iterator<std::__ndk1::shared_ptr<AudioSource>, std::__ndk1::shared_ptr<AudioSource> const*, std::__ndk1::__deque_iterator&, std::__ndk1::shared_ptr<AudioSource> const const*, long, (long)256>, unsigned long)
PUBLIC 5f3a4 0 std::__ndk1::__exception_guard_exceptions<std::__ndk1::vector<std::__ndk1::shared_ptr<AudioSource>, std::__ndk1::allocator<std::__ndk1::shared_ptr<AudioSource> > >::__destroy_vector>::~__exception_guard_exceptions[abi:ne180000]()
PUBLIC 5f46c 0 geode::EventListener<geode::SettingChangedFilterV3>::getPool() const
PUBLIC 5f470 0 geode::EventListener<geode::SettingChangedFilterV3>::handle(geode::Event*)
PUBLIC 5f5e4 0 geode::EventListener<geode::SettingChangedFilterV3>::~EventListener()
PUBLIC 5f680 0 geode::EventListener<geode::SettingChangedFilterV3>::~EventListener()
PUBLIC 5f724 0 std::__ndk1::__function::__func<geode::listenForSettingChangesV3<std::__ndk1::basic_string<char, std::__ndk1::char_traits<char>, std::__ndk1::allocator<char> >, geodeExecFunction7<(anonymous namespace)::ExecFuncUnique7>(geode::ModStateEvent*)::{lambda(std::__ndk1::basic_string<char, std::__ndk1::char_traits<char>, std::__ndk1::allocator<char> >)#1}>(std::__ndk1::basic_string_view<char, std::__ndk1::char_traits<char> >, geodeExecFunction7<(anonymous namespace)::ExecFuncUnique7>(geode::ModStateEvent*)::{lambda(std::__ndk1::basic_string<char, std::__ndk1::char_traits<char>, std::__ndk1::allocator<char> >&&)#1}, geode::Mod*)::{lambda(std::__ndk1::shared_ptr<geode::SettingV3>)#1}, std::__ndk1::allocator<geode::listenForSettingChangesV3<std::__ndk1::basic_string<char, std::__ndk1::char_traits<char>, std::__ndk1::allocator<char> >, geodeExecFunction7<(anonymous namespace)::ExecFuncUnique7>(geode::ModStateEvent*)::{lambda(std::__ndk1::basic_string<char, std::__ndk1::char_traits<char>, std::__ndk1::allocator<char> >)#1}>(std::__ndk1::basic_string_view<char, std::__ndk1::char_traits<char> >, geodeExecFunction7<(anonymous namespace)::ExecFuncUnique7>(geode::ModStateEvent*)::{lambda(std::__ndk1::basic_string<char, std::__ndk1::char_traits<char>, std::__ndk1::allocator<char> >&&)#1}, geode::Mod*)::{lambda(std::__ndk1::shared_ptr<geode::SettingV3>)#1}>, void (std::__ndk1::shared_ptr<geode::SettingV3>)>::~__func()
PUBLIC 5f728 0 std::__ndk1::__function::__func<geode::listenForSettingChangesV3<std::__ndk1::basic_string<char, std::__ndk1::char_traits<char>, std::__ndk1::allocator<char> >, geodeExecFunction7<(anonymous namespace)::ExecFuncUnique7>(geode::ModStateEvent*)::{lambda(std::__ndk1::basic_string<char, std::__ndk1::char_traits<char>, std::__ndk1::allocator<char> >)#1}>(std::__ndk1::basic_string_view<char, std::__ndk1::char_traits<char> >, geodeExecFunction7<(anonymous namespace)::ExecFuncUnique7>(geode::ModStateEvent*)::{lambda(std::__ndk1::basic_string<char, std::__ndk1::char_traits<char>, std::__ndk1::allocator<char> >&&)#1}, geode::Mod*)::{lambda(std::__ndk1::shared_ptr<geode::SettingV3>)#1}, std::__ndk1::allocator<geode::listenForSettingChangesV3<std::__ndk1::basic_string<char, std::__ndk1::char_traits<char>, std::__ndk1::allocator<char> >, geodeExecFunction7<(anonymous namespace)::ExecFuncUnique7>(geode::ModStateEvent*)::{lambda(std::__ndk1::basic_string<char, std::__ndk1::char_traits<char>, std::__ndk1::allocator<char> >)#1}>(std::__ndk1::basic_string_view<char, std::__ndk1::char_traits<char> >, geodeExecFunction7<(anonymous namespace)::ExecFuncUnique7>(geode::ModStateEvent*)::{lambda(std::__ndk1::basic_string<char, std::__ndk1::char_traits<char>, std::__ndk1::allocator<char> >&&)#1}, geode::Mod*)::{lambda(std::__ndk1::shared_ptr<geode::SettingV3>)#1}>, void (std::__ndk1::shared_ptr<geode::SettingV3>)>::__clone() const
PUBLIC 5f760 0 std::__ndk1::__function::__func<geode::listenForSettingChangesV3<std::__ndk1::basic_string<char, std::__ndk1::char_traits<char>, std::__ndk1::allocator<char> >, geodeExecFunction7<(anonymous namespace)::ExecFuncUnique7>(geode::ModStateEvent*)::{lambda(std::__ndk1::basic_string<char, std::__ndk1::char_traits<char>, std::__ndk1::allocator<char> >)#1}>(std::__ndk1::basic_string_view<char, std::__ndk1::char_traits<char> >, geodeExecFunction7<(anonymous namespace)::ExecFuncUnique7>(geode::ModStateEvent*)::{lambda(std::__ndk1::basic_string<char, std::__ndk1::char_traits<char>, std::__ndk1::allocator<char> >&&)#1}, geode::Mod*)::{lambda(std::__ndk1::shared_ptr<geode::SettingV3>)#1}, std::__ndk1::allocator<geode::listenForSettingChangesV3<std::__ndk1::basic_string<char, std::__ndk1::char_traits<char>, std::__ndk1::allocator<char> >, geodeExecFunction7<(anonymous namespace)::ExecFuncUnique7>(geode::ModStateEvent*)::{lambda(std::__ndk1::basic_string<char, std::__ndk1::char_traits<char>, std::__ndk1::allocator<char> >)#1}>(std::__ndk1::basic_string_view<char, std::__ndk1::char_traits<char> >, geodeExecFunction7<(anonymous namespace)::ExecFuncUnique7>(geode::ModStateEvent*)::{lambda(std::__ndk1::basic_string<char, std::__ndk1::char_traits<char>, std::__ndk1::allocator<char> >&&)#1}, geode::Mod*)::{lambda(std::__ndk1::shared_ptr<geode::SettingV3>)#1}>, void (std::__ndk1::shared_ptr<geode::SettingV3>)>::__clone(std::__ndk1::__function::__base<void (std::__ndk1::shared_ptr<geode::SettingV3>)>*) const
PUBLIC 5f778 0 std::__ndk1::__function::__func<geode::listenForSettingChangesV3<std::__ndk1::basic_string<char, std::__ndk1::char_traits<char>, std::__ndk1::allocator<char> >, geodeExecFunction7<(anonymous namespace)::ExecFuncUnique7>(geode::ModStateEvent*)::{lambda(std::__ndk1::basic_string<char, std::__ndk1::char_traits<char>, std::__ndk1::allocator<char> >)#1}>(std::__ndk1::basic_string_view<char, std::__ndk1::char_traits<char> >, geodeExecFunction7<(anonymous namespace)::ExecFuncUnique7>(geode::ModStateEvent*)::{lambda(std::__ndk1::basic_string<char, std::__ndk1::char_traits<char>, std::__ndk1::allocator<char> >&&)#1}, geode::Mod*)::{lambda(std::__ndk1::shared_ptr<geode::SettingV3>)#1}, std::__ndk1::allocator<geode::listenForSettingChangesV3<std::__ndk1::basic_string<char, std::__ndk1::char_traits<char>, std::__ndk1::allocator<char> >, geodeExecFunction7<(anonymous namespace)::ExecFuncUnique7>(geode::ModStateEvent*)::{lambda(std::__ndk1::basic_string<char, std::__ndk1::char_traits<char>, std::__ndk1::allocator<char> >)#1}>(std::__ndk1::basic_string_view<char, std::__ndk1::char_traits<char> >, geodeExecFunction7<(anonymous namespace)::ExecFuncUnique7>(geode::ModStateEvent*)::{lambda(std::__ndk1::basic_string<char, std::__ndk1::char_traits<char>, std::__ndk1::allocator<char> >&&)#1}, geode::Mod*)::{lambda(std::__ndk1::shared_ptr<geode::SettingV3>)#1}>, void (std::__ndk1::shared_ptr<geode::SettingV3>)>::destroy()
PUBLIC 5f77c 0 std::__ndk1::__function::__func<geode::listenForSettingChangesV3<std::__ndk1::basic_string<char, std::__ndk1::char_traits<char>, std::__ndk1::allocator<char> >, geodeExecFunction7<(anonymous namespace)::ExecFuncUnique7>(geode::ModStateEvent*)::{lambda(std::__ndk1::basic_string<char, std::__ndk1::char_traits<char>, std::__ndk1::allocator<char> >)#1}>(std::__ndk1::basic_string_view<char, std::__ndk1::char_traits<char> >, geodeExecFunction7<(anonymous namespace)::ExecFuncUnique7>(geode::ModStateEvent*)::{lambda(std::__ndk1::basic_string<char, std::__ndk1::char_traits<char>, std::__ndk1::allocator<char> >&&)#1}, geode::Mod*)::{lambda(std::__ndk1::shared_ptr<geode::SettingV3>)#1}, std::__ndk1::allocator<geode::listenForSettingChangesV3<std::__ndk1::basic_string<char, std::__ndk1::char_traits<char>, std::__ndk1::allocator<char> >, geodeExecFunction7<(anonymous namespace)::ExecFuncUnique7>(geode::ModStateEvent*)::{lambda(std::__ndk1::basic_string<char, std::__ndk1::char_traits<char>, std::__ndk1::allocator<char> >)#1}>(std::__ndk1::basic_string_view<char, std::__ndk1::char_traits<char> >, geodeExecFunction7<(anonymous namespace)::ExecFuncUnique7>(geode::ModStateEvent*)::{lambda(std::__ndk1::basic_string<char, std::__ndk1::char_traits<char>, std::__ndk1::allocator<char> >&&)#1}, geode::Mod*)::{lambda(std::__ndk1::shared_ptr<geode::SettingV3>)#1}>, void (std::__ndk1::shared_ptr<geode::SettingV3>)>::destroy_deallocate()
PUBLIC 5f780 0 std::__ndk1::__function::__func<geode::listenForSettingChangesV3<std::__ndk1::basic_string<char, std::__ndk1::char_traits<char>, std::__ndk1::allocator<char> >, geodeExecFunction7<(anonymous namespace)::ExecFuncUnique7>(geode::ModStateEvent*)::{lambda(std::__ndk1::basic_string<char, std::__ndk1::char_traits<char>, std::__ndk1::allocator<char> >)#1}>(std::__ndk1::basic_string_view<char, std::__ndk1::char_traits<char> >, geodeExecFunction7<(anonymous namespace)::ExecFuncUnique7>(geode::ModStateEvent*)::{lambda(std::__ndk1::basic_string<char, std::__ndk1::char_traits<char>, std::__ndk1::allocator<char> >&&)#1}, geode::Mod*)::{lambda(std::__ndk1::shared_ptr<geode::SettingV3>)#1}, std::__ndk1::allocator<geode::listenForSettingChangesV3<std::__ndk1::basic_string<char, std::__ndk1::char_traits<char>, std::__ndk1::allocator<char> >, geodeExecFunction7<(anonymous namespace)::ExecFuncUnique7>(geode::ModStateEvent*)::{lambda(std::__ndk1::basic_string<char, std::__ndk1::char_traits<char>, std::__ndk1::allocator<char> >)#1}>(std::__ndk1::basic_string_view<char, std::__ndk1::char_traits<char> >, geodeExecFunction7<(anonymous namespace)::ExecFuncUnique7>(geode::ModStateEvent*)::{lambda(std::__ndk1::basic_string<char, std::__ndk1::char_traits<char>, std::__ndk1::allocator<char> >&&)#1}, geode::Mod*)::{lambda(std::__ndk1::shared_ptr<geode::SettingV3>)#1}>, void (std::__ndk1::shared_ptr<geode::SettingV3>)>::operator()(std::__ndk1::shared_ptr<geode::SettingV3>&&)
PUBLIC 5f9b8 0 std::__ndk1::__function::__func<geode::listenForSettingChangesV3<std::__ndk1::basic_string<char, std::__ndk1::char_traits<char>, std::__ndk1::allocator<char> >, geodeExecFunction7<(anonymous namespace)::ExecFuncUnique7>(geode::ModStateEvent*)::{lambda(std::__ndk1::basic_string<char, std::__ndk1::char_traits<char>, std::__ndk1::allocator<char> >)#1}>(std::__ndk1::basic_string_view<char, std::__ndk1::char_traits<char> >, geodeExecFunction7<(anonymous namespace)::ExecFuncUnique7>(geode::ModStateEvent*)::{lambda(std::__ndk1::basic_string<char, std::__ndk1::char_traits<char>, std::__ndk1::allocator<char> >&&)#1}, geode::Mod*)::{lambda(std::__ndk1::shared_ptr<geode::SettingV3>)#1}, std::__ndk1::allocator<geode::listenForSettingChangesV3<std::__ndk1::basic_string<char, std::__ndk1::char_traits<char>, std::__ndk1::allocator<char> >, geodeExecFunction7<(anonymous namespace)::ExecFuncUnique7>(geode::ModStateEvent*)::{lambda(std::__ndk1::basic_string<char, std::__ndk1::char_traits<char>, std::__ndk1::allocator<char> >)#1}>(std::__ndk1::basic_string_view<char, std::__ndk1::char_traits<char> >, geodeExecFunction7<(anonymous namespace)::ExecFuncUnique7>(geode::ModStateEvent*)::{lambda(std::__ndk1::basic_string<char, std::__ndk1::char_traits<char>, std::__ndk1::allocator<char> >&&)#1}, geode::Mod*)::{lambda(std::__ndk1::shared_ptr<geode::SettingV3>)#1}>, void (std::__ndk1::shared_ptr<geode::SettingV3>)>::target(std::type_info const&) const
PUBLIC 5f9d4 0 std::__ndk1::__function::__func<geode::listenForSettingChangesV3<std::__ndk1::basic_string<char, std::__ndk1::char_traits<char>, std::__ndk1::allocator<char> >, geodeExecFunction7<(anonymous namespace)::ExecFuncUnique7>(geode::ModStateEvent*)::{lambda(std::__ndk1::basic_string<char, std::__ndk1::char_traits<char>, std::__ndk1::allocator<char> >)#1}>(std::__ndk1::basic_string_view<char, std::__ndk1::char_traits<char> >, geodeExecFunction7<(anonymous namespace)::ExecFuncUnique7>(geode::ModStateEvent*)::{lambda(std::__ndk1::basic_string<char, std::__ndk1::char_traits<char>, std::__ndk1::allocator<char> >&&)#1}, geode::Mod*)::{lambda(std::__ndk1::shared_ptr<geode::SettingV3>)#1}, std::__ndk1::allocator<geode::listenForSettingChangesV3<std::__ndk1::basic_string<char, std::__ndk1::char_traits<char>, std::__ndk1::allocator<char> >, geodeExecFunction7<(anonymous namespace)::ExecFuncUnique7>(geode::ModStateEvent*)::{lambda(std::__ndk1::basic_string<char, std::__ndk1::char_traits<char>, std::__ndk1::allocator<char> >)#1}>(std::__ndk1::basic_string_view<char, std::__ndk1::char_traits<char> >, geodeExecFunction7<(anonymous namespace)::ExecFuncUnique7>(geode::ModStateEvent*)::{lambda(std::__ndk1::basic_string<char, std::__ndk1::char_traits<char>, std::__ndk1::allocator<char> >&&)#1}, geode::Mod*)::{lambda(std::__ndk1::shared_ptr<geode::SettingV3>)#1}>, void (std::__ndk1::shared_ptr<geode::SettingV3>)>::target_type() const
PUBLIC 5f9e0 0 std::__ndk1::shared_ptr<geode::StringSettingV3>::~shared_ptr[abi:ne180000]()
PUBLIC 5fa30 0 std::__ndk1::__function::__func<geode::listenForSettingChangesV3<std::__ndk1::basic_string<char, std::__ndk1::char_traits<char>, std::__ndk1::allocator<char> >, geodeExecFunction7<(anonymous namespace)::ExecFuncUnique7>(geode::ModStateEvent*)::{lambda(std::__ndk1::basic_string<char, std::__ndk1::char_traits<char>, std::__ndk1::allocator<char> >)#2}>(std::__ndk1::basic_string_view<char, std::__ndk1::char_traits<char> >, geodeExecFunction7<(anonymous namespace)::ExecFuncUnique7>(geode::ModStateEvent*)::{lambda(std::__ndk1::basic_string<char, std::__ndk1::char_traits<char>, std::__ndk1::allocator<char> >&&)#2}, geode::Mod*)::{lambda(std::__ndk1::shared_ptr<geode::SettingV3>)#1}, std::__ndk1::allocator<geode::listenForSettingChangesV3<std::__ndk1::basic_string<char, std::__ndk1::char_traits<char>, std::__ndk1::allocator<char> >, geodeExecFunction7<(anonymous namespace)::ExecFuncUnique7>(geode::ModStateEvent*)::{lambda(std::__ndk1::basic_string<char, std::__ndk1::char_traits<char>, std::__ndk1::allocator<char> >)#2}>(std::__ndk1::basic_string_view<char, std::__ndk1::char_traits<char> >, geodeExecFunction7<(anonymous namespace)::ExecFuncUnique7>(geode::ModStateEvent*)::{lambda(std::__ndk1::basic_string<char, std::__ndk1::char_traits<char>, std::__ndk1::allocator<char> >&&)#2}, geode::Mod*)::{lambda(std::__ndk1::shared_ptr<geode::SettingV3>)#1}>, void (std::__ndk1::shared_ptr<geode::SettingV3>)>::~__func()
PUBLIC 5fa34 0 std::__ndk1::__function::__func<geode::listenForSettingChangesV3<std::__ndk1::basic_string<char, std::__ndk1::char_traits<char>, std::__ndk1::allocator<char> >, geodeExecFunction7<(anonymous namespace)::ExecFuncUnique7>(geode::ModStateEvent*)::{lambda(std::__ndk1::basic_string<char, std::__ndk1::char_traits<char>, std::__ndk1::allocator<char> >)#2}>(std::__ndk1::basic_string_view<char, std::__ndk1::char_traits<char> >, geodeExecFunction7<(anonymous namespace)::ExecFuncUnique7>(geode::ModStateEvent*)::{lambda(std::__ndk1::basic_string<char, std::__ndk1::char_traits<char>, std::__ndk1::allocator<char> >&&)#2}, geode::Mod*)::{lambda(std::__ndk1::shared_ptr<geode::SettingV3>)#1}, std::__ndk1::allocator<geode::listenForSettingChangesV3<std::__ndk1::basic_string<char, std::__ndk1::char_traits<char>, std::__ndk1::allocator<char> >, geodeExecFunction7<(anonymous namespace)::ExecFuncUnique7>(geode::ModStateEvent*)::{lambda(std::__ndk1::basic_string<char, std::__ndk1::char_traits<char>, std::__ndk1::allocator<char> >)#2}>(std::__ndk1::basic_string_view<char, std::__ndk1::char_traits<char> >, geodeExecFunction7<(anonymous namespace)::ExecFuncUnique7>(geode::ModStateEvent*)::{lambda(std::__ndk1::basic_string<char, std::__ndk1::char_traits<char>, std::__ndk1::allocator<char> >&&)#2}, geode::Mod*)::{lambda(std::__ndk1::shared_ptr<geode::SettingV3>)#1}>, void (std::__ndk1::shared_ptr<geode::SettingV3>)>::__clone() const
PUBLIC 5fa6c 0 std::__ndk1::__function::__func<geode::listenForSettingChangesV3<std::__ndk1::basic_string<char, std::__ndk1::char_traits<char>, std::__ndk1::allocator<char> >, geodeExecFunction7<(anonymous namespace)::ExecFuncUnique7>(geode::ModStateEvent*)::{lambda(std::__ndk1::basic_string<char, std::__ndk1::char_traits<char>, std::__ndk1::allocator<char> >)#2}>(std::__ndk1::basic_string_view<char, std::__ndk1::char_traits<char> >, geodeExecFunction7<(anonymous namespace)::ExecFuncUnique7>(geode::ModStateEvent*)::{lambda(std::__ndk1::basic_string<char, std::__ndk1::char_traits<char>, std::__ndk1::allocator<char> >&&)#2}, geode::Mod*)::{lambda(std::__ndk1::shared_ptr<geode::SettingV3>)#1}, std::__ndk1::allocator<geode::listenForSettingChangesV3<std::__ndk1::basic_string<char, std::__ndk1::char_traits<char>, std::__ndk1::allocator<char> >, geodeExecFunction7<(anonymous namespace)::ExecFuncUnique7>(geode::ModStateEvent*)::{lambda(std::__ndk1::basic_string<char, std::__ndk1::char_traits<char>, std::__ndk1::allocator<char> >)#2}>(std::__ndk1::basic_string_view<char, std::__ndk1::char_traits<char> >, geodeExecFunction7<(anonymous namespace)::ExecFuncUnique7>(geode::ModStateEvent*)::{lambda(std::__ndk1::basic_string<char, std::__ndk1::char_traits<char>, std::__ndk1::allocator<char> >&&)#2}, geode::Mod*)::{lambda(std::__ndk1::shared_ptr<geode::SettingV3>)#1}>, void (std::__ndk1::shared_ptr<geode::SettingV3>)>::__clone(std::__ndk1::__function::__base<void (std::__ndk1::shared_ptr<geode::SettingV3>)>*) const
PUBLIC 5fa84 0 std::__ndk1::__function::__func<geode::listenForSettingChangesV3<std::__ndk1::basic_string<char, std::__ndk1::char_traits<char>, std::__ndk1::allocator<char> >, geodeExecFunction7<(anonymous namespace)::ExecFuncUnique7>(geode::ModStateEvent*)::{lambda(std::__ndk1::basic_string<char, std::__ndk1::char_traits<char>, std::__ndk1::allocator<char> >)#2}>(std::__ndk1::basic_string_view<char, std::__ndk1::char_traits<char> >, geodeExecFunction7<(anonymous namespace)::ExecFuncUnique7>(geode::ModStateEvent*)::{lambda(std::__ndk1::basic_string<char, std::__ndk1::char_traits<char>, std::__ndk1::allocator<char> >&&)#2}, geode::Mod*)::{lambda(std::__ndk1::shared_ptr<geode::SettingV3>)#1}, std::__ndk1::allocator<geode::listenForSettingChangesV3<std::__ndk1::basic_string<char, std::__ndk1::char_traits<char>, std::__ndk1::allocator<char> >, geodeExecFunction7<(anonymous namespace)::ExecFuncUnique7>(geode::ModStateEvent*)::{lambda(std::__ndk1::basic_string<char, std::__ndk1::char_traits<char>, std::__ndk1::allocator<char> >)#2}>(std::__ndk1::basic_string_view<char, std::__ndk1::char_traits<char> >, geodeExecFunction7<(anonymous namespace)::ExecFuncUnique7>(geode::ModStateEvent*)::{lambda(std::__ndk1::basic_string<char, std::__ndk1::char_traits<char>, std::__ndk1::allocator<char> >&&)#2}, geode::Mod*)::{lambda(std::__ndk1::shared_ptr<geode::SettingV3>)#1}>, void (std::__ndk1::shared_ptr<geode::SettingV3>)>::destroy()
PUBLIC 5fa88 0 std::__ndk1::__function::__func<geode::listenForSettingChangesV3<std::__ndk1::basic_string<char, std::__ndk1::char_traits<char>, std::__ndk1::allocator<char> >, geodeExecFunction7<(anonymous namespace)::ExecFuncUnique7>(geode::ModStateEvent*)::{lambda(std::__ndk1::basic_string<char, std::__ndk1::char_traits<char>, std::__ndk1::allocator<char> >)#2}>(std::__ndk1::basic_string_view<char, std::__ndk1::char_traits<char> >, geodeExecFunction7<(anonymous namespace)::ExecFuncUnique7>(geode::ModStateEvent*)::{lambda(std::__ndk1::basic_string<char, std::__ndk1::char_traits<char>, std::__ndk1::allocator<char> >&&)#2}, geode::Mod*)::{lambda(std::__ndk1::shared_ptr<geode::SettingV3>)#1}, std::__ndk1::allocator<geode::listenForSettingChangesV3<std::__ndk1::basic_string<char, std::__ndk1::char_traits<char>, std::__ndk1::allocator<char> >, geodeExecFunction7<(anonymous namespace)::ExecFuncUnique7>(geode::ModStateEvent*)::{lambda(std::__ndk1::basic_string<char, std::__ndk1::char_traits<char>, std::__ndk1::allocator<char> >)#2}>(std::__ndk1::basic_string_view<char, std::__ndk1::char_traits<char> >, geodeExecFunction7<(anonymous namespace)::ExecFuncUnique7>(geode::ModStateEvent*)::{lambda(std::__ndk1::basic_string<char, std::__ndk1::char_traits<char>, std::__ndk1::allocator<char> >&&)#2}, geode::Mod*)::{lambda(std::__ndk1::shared_ptr<geode::SettingV3>)#1}>, void (std::__ndk1::shared_ptr<geode::SettingV3>)>::destroy_deallocate()
PUBLIC 5fa8c 0 std::__ndk1::__function::__func<geode::listenForSettingChangesV3<std::__ndk1::basic_string<char, std::__ndk1::char_traits<char>, std::__ndk1::allocator<char> >, geodeExecFunction7<(anonymous namespace)::ExecFuncUnique7>(geode::ModStateEvent*)::{lambda(std::__ndk1::basic_string<char, std::__ndk1::char_traits<char>, std::__ndk1::allocator<char> >)#2}>(std::__ndk1::basic_string_view<char, std::__ndk1::char_traits<char> >, geodeExecFunction7<(anonymous namespace)::ExecFuncUnique7>(geode::ModStateEvent*)::{lambda(std::__ndk1::basic_string<char, std::__ndk1::char_traits<char>, std::__ndk1::allocator<char> >&&)#2}, geode::Mod*)::{lambda(std::__ndk1::shared_ptr<geode::SettingV3>)#1}, std::__ndk1::allocator<geode::listenForSettingChangesV3<std::__ndk1::basic_string<char, std::__ndk1::char_traits<char>, std::__ndk1::allocator<char> >, geodeExecFunction7<(anonymous namespace)::ExecFuncUnique7>(geode::ModStateEvent*)::{lambda(std::__ndk1::basic_string<char, std::__ndk1::char_traits<char>, std::__ndk1::allocator<char> >)#2}>(std::__ndk1::basic_string_view<char, std::__ndk1::char_traits<char> >, geodeExecFunction7<(anonymous namespace)::ExecFuncUnique7>(geode::ModStateEvent*)::{lambda(std::__ndk1::basic_string<char, std::__ndk1::char_traits<char>, std::__ndk1::allocator<char> >&&)#2}, geode::Mod*)::{lambda(std::__ndk1::shared_ptr<geode::SettingV3>)#1}>, void (std::__ndk1::shared_ptr<geode::SettingV3>)>::operator()(std::__ndk1::shared_ptr<geode::SettingV3>&&)
PUBLIC 5fcc4 0 std::__ndk1::__function::__func<geode::listenForSettingChangesV3<std::__ndk1::basic_string<char, std::__ndk1::char_traits<char>, std::__ndk1::allocator<char> >, geodeExecFunction7<(anonymous namespace)::ExecFuncUnique7>(geode::ModStateEvent*)::{lambda(std::__ndk1::basic_string<char, std::__ndk1::char_traits<char>, std::__ndk1::allocator<char> >)#2}>(std::__ndk1::basic_string_view<char, std::__ndk1::char_traits<char> >, geodeExecFunction7<(anonymous namespace)::ExecFuncUnique7>(geode::ModStateEvent*)::{lambda(std::__ndk1::basic_string<char, std::__ndk1::char_traits<char>, std::__ndk1::allocator<char> >&&)#2}, geode::Mod*)::{lambda(std::__ndk1::shared_ptr<geode::SettingV3>)#1}, std::__ndk1::allocator<geode::listenForSettingChangesV3<std::__ndk1::basic_string<char, std::__ndk1::char_traits<char>, std::__ndk1::allocator<char> >, geodeExecFunction7<(anonymous namespace)::ExecFuncUnique7>(geode::ModStateEvent*)::{lambda(std::__ndk1::basic_string<char, std::__ndk1::char_traits<char>, std::__ndk1::allocator<char> >)#2}>(std::__ndk1::basic_string_view<char, std::__ndk1::char_traits<char> >, geodeExecFunction7<(anonymous namespace)::ExecFuncUnique7>(geode::ModStateEvent*)::{lambda(std::__ndk1::basic_string<char, std::__ndk1::char_traits<char>, std::__ndk1::allocator<char> >&&)#2}, geode::Mod*)::{lambda(std::__ndk1::shared_ptr<geode::SettingV3>)#1}>, void (std::__ndk1::shared_ptr<geode::SettingV3>)>::target(std::type_info const&) const
PUBLIC 5fce0 0 std::__ndk1::__function::__func<geode::listenForSettingChangesV3<std::__ndk1::basic_string<char, std::__ndk1::char_traits<char>, std::__ndk1::allocator<char> >, geodeExecFunction7<(anonymous namespace)::ExecFuncUnique7>(geode::ModStateEvent*)::{lambda(std::__ndk1::basic_string<char, std::__ndk1::char_traits<char>, std::__ndk1::allocator<char> >)#2}>(std::__ndk1::basic_string_view<char, std::__ndk1::char_traits<char> >, geodeExecFunction7<(anonymous namespace)::ExecFuncUnique7>(geode::ModStateEvent*)::{lambda(std::__ndk1::basic_string<char, std::__ndk1::char_traits<char>, std::__ndk1::allocator<char> >&&)#2}, geode::Mod*)::{lambda(std::__ndk1::shared_ptr<geode::SettingV3>)#1}, std::__ndk1::allocator<geode::listenForSettingChangesV3<std::__ndk1::basic_string<char, std::__ndk1::char_traits<char>, std::__ndk1::allocator<char> >, geodeExecFunction7<(anonymous namespace)::ExecFuncUnique7>(geode::ModStateEvent*)::{lambda(std::__ndk1::basic_string<char, std::__ndk1::char_traits<char>, std::__ndk1::allocator<char> >)#2}>(std::__ndk1::basic_string_view<char, std::__ndk1::char_traits<char> >, geodeExecFunction7<(anonymous namespace)::ExecFuncUnique7>(geode::ModStateEvent*)::{lambda(std::__ndk1::basic_string<char, std::__ndk1::char_traits<char>, std::__ndk1::allocator<char> >&&)#2}, geode::Mod*)::{lambda(std::__ndk1::shared_ptr<geode::SettingV3>)#1}>, void (std::__ndk1::shared_ptr<geode::SettingV3>)>::target_type() const
PUBLIC 5fcec 0 std::__ndk1::__function::__base<void (std::__ndk1::shared_ptr<geode::SettingV3>)>::~__base()
PUBLIC 5fcf0 0 std::__ndk1::__function::__func<geode::listenForSettingChangesV3<std::__ndk1::__fs::filesystem::path, geodeExecFunction7<(anonymous namespace)::ExecFuncUnique7>(geode::ModStateEvent*)::{lambda(std::__ndk1::__fs::filesystem::path)#1}>(std::__ndk1::basic_string_view<char, std::__ndk1::char_traits<char> >, geodeExecFunction7<(anonymous namespace)::ExecFuncUnique7>(geode::ModStateEvent*)::{lambda(std::__ndk1::__fs::filesystem::path&&)#1}, geode::Mod*)::{lambda(std::__ndk1::shared_ptr<geode::SettingV3>)#1}, std::__ndk1::allocator<geode::listenForSettingChangesV3<std::__ndk1::__fs::filesystem::path, geodeExecFunction7<(anonymous namespace)::ExecFuncUnique7>(geode::ModStateEvent*)::{lambda(std::__ndk1::__fs::filesystem::path)#1}>(std::__ndk1::basic_string_view<char, std::__ndk1::char_traits<char> >, geodeExecFunction7<(anonymous namespace)::ExecFuncUnique7>(geode::ModStateEvent*)::{lambda(std::__ndk1::__fs::filesystem::path&&)#1}, geode::Mod*)::{lambda(std::__ndk1::shared_ptr<geode::SettingV3>)#1}>, void (std::__ndk1::shared_ptr<geode::SettingV3>)>::~__func()
PUBLIC 5fcf4 0 std::__ndk1::__function::__func<geode::listenForSettingChangesV3<std::__ndk1::__fs::filesystem::path, geodeExecFunction7<(anonymous namespace)::ExecFuncUnique7>(geode::ModStateEvent*)::{lambda(std::__ndk1::__fs::filesystem::path)#1}>(std::__ndk1::basic_string_view<char, std::__ndk1::char_traits<char> >, geodeExecFunction7<(anonymous namespace)::ExecFuncUnique7>(geode::ModStateEvent*)::{lambda(std::__ndk1::__fs::filesystem::path&&)#1}, geode::Mod*)::{lambda(std::__ndk1::shared_ptr<geode::SettingV3>)#1}, std::__ndk1::allocator<geode::listenForSettingChangesV3<std::__ndk1::__fs::filesystem::path, geodeExecFunction7<(anonymous namespace)::ExecFuncUnique7>(geode::ModStateEvent*)::{lambda(std::__ndk1::__fs::filesystem::path)#1}>(std::__ndk1::basic_string_view<char, std::__ndk1::char_traits<char> >, geodeExecFunction7<(anonymous namespace)::ExecFuncUnique7>(geode::ModStateEvent*)::{lambda(std::__ndk1::__fs::filesystem::path&&)#1}, geode::Mod*)::{lambda(std::__ndk1::shared_ptr<geode::SettingV3>)#1}>, void (std::__ndk1::shared_ptr<geode::SettingV3>)>::__clone() const
PUBLIC 5fd2c 0 std::__ndk1::__function::__func<geode::listenForSettingChangesV3<std::__ndk1::__fs::filesystem::path, geodeExecFunction7<(anonymous namespace)::ExecFuncUnique7>(geode::ModStateEvent*)::{lambda(std::__ndk1::__fs::filesystem::path)#1}>(std::__ndk1::basic_string_view<char, std::__ndk1::char_traits<char> >, geodeExecFunction7<(anonymous namespace)::ExecFuncUnique7>(geode::ModStateEvent*)::{lambda(std::__ndk1::__fs::filesystem::path&&)#1}, geode::Mod*)::{lambda(std::__ndk1::shared_ptr<geode::SettingV3>)#1}, std::__ndk1::allocator<geode::listenForSettingChangesV3<std::__ndk1::__fs::filesystem::path, geodeExecFunction7<(anonymous namespace)::ExecFuncUnique7>(geode::ModStateEvent*)::{lambda(std::__ndk1::__fs::filesystem::path)#1}>(std::__ndk1::basic_string_view<char, std::__ndk1::char_traits<char> >, geodeExecFunction7<(anonymous namespace)::ExecFuncUnique7>(geode::ModStateEvent*)::{lambda(std::__ndk1::__fs::filesystem::path&&)#1}, geode::Mod*)::{lambda(std::__ndk1::shared_ptr<geode::SettingV3>)#1}>, void (std::__ndk1::shared_ptr<geode::SettingV3>)>::__clone(std::__ndk1::__function::__base<void (std::__ndk1::shared_ptr<geode::SettingV3>)>*) const
PUBLIC 5fd44 0 std::__ndk1::__function::__func<geode::listenForSettingChangesV3<std::__ndk1::__fs::filesystem::path, geodeExecFunction7<(anonymous namespace)::ExecFuncUnique7>(geode::ModStateEvent*)::{lambda(std::__ndk1::__fs::filesystem::path)#1}>(std::__ndk1::basic_string_view<char, std::__ndk1::char_traits<char> >, geodeExecFunction7<(anonymous namespace)::ExecFuncUnique7>(geode::ModStateEvent*)::{lambda(std::__ndk1::__fs::filesystem::path&&)#1}, geode::Mod*)::{lambda(std::__ndk1::shared_ptr<geode::SettingV3>)#1}, std::__ndk1::allocator<geode::listenForSettingChangesV3<std::__ndk1::__fs::filesystem::path, geodeExecFunction7<(anonymous namespace)::ExecFuncUnique7>(geode::ModStateEvent*)::{lambda(std::__ndk1::__fs::filesystem::path)#1}>(std::__ndk1::basic_string_view<char, std::__ndk1::char_traits<char> >, geodeExecFunction7<(anonymous namespace)::ExecFuncUnique7>(geode::ModStateEvent*)::{lambda(std::__ndk1::__fs::filesystem::path&&)#1}, geode::Mod*)::{lambda(std::__ndk1::shared_ptr<geode::SettingV3>)#1}>, void (std::__ndk1::shared_ptr<geode::SettingV3>)>::destroy()
PUBLIC 5fd48 0 std::__ndk1::__function::__func<geode::listenForSettingChangesV3<std::__ndk1::__fs::filesystem::path, geodeExecFunction7<(anonymous namespace)::ExecFuncUnique7>(geode::ModStateEvent*)::{lambda(std::__ndk1::__fs::filesystem::path)#1}>(std::__ndk1::basic_string_view<char, std::__ndk1::char_traits<char> >, geodeExecFunction7<(anonymous namespace)::ExecFuncUnique7>(geode::ModStateEvent*)::{lambda(std::__ndk1::__fs::filesystem::path&&)#1}, geode::Mod*)::{lambda(std::__ndk1::shared_ptr<geode::SettingV3>)#1}, std::__ndk1::allocator<geode::listenForSettingChangesV3<std::__ndk1::__fs::filesystem::path, geodeExecFunction7<(anonymous namespace)::ExecFuncUnique7>(geode::ModStateEvent*)::{lambda(std::__ndk1::__fs::filesystem::path)#1}>(std::__ndk1::basic_string_view<char, std::__ndk1::char_traits<char> >, geodeExecFunction7<(anonymous namespace)::ExecFuncUnique7>(geode::ModStateEvent*)::{lambda(std::__ndk1::__fs::filesystem::path&&)#1}, geode::Mod*)::{lambda(std::__ndk1::shared_ptr<geode::SettingV3>)#1}>, void (std::__ndk1::shared_ptr<geode::SettingV3>)>::destroy_deallocate()
PUBLIC 5fd4c 0 std::__ndk1::__function::__func<geode::listenForSettingChangesV3<std::__ndk1::__fs::filesystem::path, geodeExecFunction7<(anonymous namespace)::ExecFuncUnique7>(geode::ModStateEvent*)::{lambda(std::__ndk1::__fs::filesystem::path)#1}>(std::__ndk1::basic_string_view<char, std::__ndk1::char_traits<char> >, geodeExecFunction7<(anonymous namespace)::ExecFuncUnique7>(geode::ModStateEvent*)::{lambda(std::__ndk1::__fs::filesystem::path&&)#1}, geode::Mod*)::{lambda(std::__ndk1::shared_ptr<geode::SettingV3>)#1}, std::__ndk1::allocator<geode::listenForSettingChangesV3<std::__ndk1::__fs::filesystem::path, geodeExecFunction7<(anonymous namespace)::ExecFuncUnique7>(geode::ModStateEvent*)::{lambda(std::__ndk1::__fs::filesystem::path)#1}>(std::__ndk1::basic_string_view<char, std::__ndk1::char_traits<char> >, geodeExecFunction7<(anonymous namespace)::ExecFuncUnique7>(geode::ModStateEvent*)::{lambda(std::__ndk1::__fs::filesystem::path&&)#1}, geode::Mod*)::{lambda(std::__ndk1::shared_ptr<geode::SettingV3>)#1}>, void (std::__ndk1::shared_ptr<geode::SettingV3>)>::operator()(std::__ndk1::shared_ptr<geode::SettingV3>&&)
PUBLIC 5ff54 0 std::__ndk1::__function::__func<geode::listenForSettingChangesV3<std::__ndk1::__fs::filesystem::path, geodeExecFunction7<(anonymous namespace)::ExecFuncUnique7>(geode::ModStateEvent*)::{lambda(std::__ndk1::__fs::filesystem::path)#1}>(std::__ndk1::basic_string_view<char, std::__ndk1::char_traits<char> >, geodeExecFunction7<(anonymous namespace)::ExecFuncUnique7>(geode::ModStateEvent*)::{lambda(std::__ndk1::__fs::filesystem::path&&)#1}, geode::Mod*)::{lambda(std::__ndk1::shared_ptr<geode::SettingV3>)#1}, std::__ndk1::allocator<geode::listenForSettingChangesV3<std::__ndk1::__fs::filesystem::path, geodeExecFunction7<(anonymous namespace)::ExecFuncUnique7>(geode::ModStateEvent*)::{lambda(std::__ndk1::__fs::filesystem::path)#1}>(std::__ndk1::basic_string_view<char, std::__ndk1::char_traits<char> >, geodeExecFunction7<(anonymous namespace)::ExecFuncUnique7>(geode::ModStateEvent*)::{lambda(std::__ndk1::__fs::filesystem::path&&)#1}, geode::Mod*)::{lambda(std::__ndk1::shared_ptr<geode::SettingV3>)#1}>, void (std::__ndk1::shared_ptr<geode::SettingV3>)>::target(std::type_info const&) const
PUBLIC 5ff70 0 std::__ndk1::__function::__func<geode::listenForSettingChangesV3<std::__ndk1::__fs::filesystem::path, geodeExecFunction7<(anonymous namespace)::ExecFuncUnique7>(geode::ModStateEvent*)::{lambda(std::__ndk1::__fs::filesystem::path)#1}>(std::__ndk1::basic_string_view<char, std::__ndk1::char_traits<char> >, geodeExecFunction7<(anonymous namespace)::ExecFuncUnique7>(geode::ModStateEvent*)::{lambda(std::__ndk1::__fs::filesystem::path&&)#1}, geode::Mod*)::{lambda(std::__ndk1::shared_ptr<geode::SettingV3>)#1}, std::__ndk1::allocator<geode::listenForSettingChangesV3<std::__ndk1::__fs::filesystem::path, geodeExecFunction7<(anonymous namespace)::ExecFuncUnique7>(geode::ModStateEvent*)::{lambda(std::__ndk1::__fs::filesystem::path)#1}>(std::__ndk1::basic_string_view<char, std::__ndk1::char_traits<char> >, geodeExecFunction7<(anonymous namespace)::ExecFuncUnique7>(geode::ModStateEvent*)::{lambda(std::__ndk1::__fs::filesystem::path&&)#1}, geode::Mod*)::{lambda(std::__ndk1::shared_ptr<geode::SettingV3>)#1}>, void (std::__ndk1::shared_ptr<geode::SettingV3>)>::target_type() const
PUBLIC 5ff7c 0 std::__ndk1::__function::__base<geode::Result<std::__ndk1::shared_ptr<geode::SettingV3>, std::__ndk1::basic_string<char, std::__ndk1::char_traits<char>, std::__ndk1::allocator<char> > >(std::__ndk1::basic_string<char, std::__ndk1::char_traits<char>, std::__ndk1::allocator<char> > const&, std::__ndk1::basic_string<char, std::__ndk1::char_traits<char>, std::__ndk1::allocator<char> > const&, matjson::Value const&)>::~__base()
PUBLIC 5ff80 0 std::__ndk1::__function::__func<geode::Result<std::__ndk1::shared_ptr<geode::SettingV3>, std::__ndk1::basic_string<char, std::__ndk1::char_traits<char>, std::__ndk1::allocator<char> > > (*)(std::__ndk1::basic_string<char, std::__ndk1::char_traits<char>, std::__ndk1::allocator<char> > const&, std::__ndk1::basic_string<char, std::__ndk1::char_traits<char>, std::__ndk1::allocator<char> > const&, matjson::Value const&), std::__ndk1::allocator<geode::Result<std::__ndk1::shared_ptr<geode::SettingV3>, std::__ndk1::basic_string<char, std::__ndk1::char_traits<char>, std::__ndk1::allocator<char> > > (*)(std::__ndk1::basic_string<char, std::__ndk1::char_traits<char>, std::__ndk1::allocator<char> > const&, std::__ndk1::basic_string<char, std::__ndk1::char_traits<char>, std::__ndk1::allocator<char> > const&, matjson::Value const&)>, geode::Result<std::__ndk1::shared_ptr<geode::SettingV3>, std::__ndk1::basic_string<char, std::__ndk1::char_traits<char>, std::__ndk1::allocator<char> > >(std::__ndk1::basic_string<char, std::__ndk1::char_traits<char>, std::__ndk1::allocator<char> > const&, std::__ndk1::basic_string<char, std::__ndk1::char_traits<char>, std::__ndk1::allocator<char> > const&, matjson::Value const&)>::~__func()
PUBLIC 5ff84 0 std::__ndk1::__function::__func<geode::Result<std::__ndk1::shared_ptr<geode::SettingV3>, std::__ndk1::basic_string<char, std::__ndk1::char_traits<char>, std::__ndk1::allocator<char> > > (*)(std::__ndk1::basic_string<char, std::__ndk1::char_traits<char>, std::__ndk1::allocator<char> > const&, std::__ndk1::basic_string<char, std::__ndk1::char_traits<char>, std::__ndk1::allocator<char> > const&, matjson::Value const&), std::__ndk1::allocator<geode::Result<std::__ndk1::shared_ptr<geode::SettingV3>, std::__ndk1::basic_string<char, std::__ndk1::char_traits<char>, std::__ndk1::allocator<char> > > (*)(std::__ndk1::basic_string<char, std::__ndk1::char_traits<char>, std::__ndk1::allocator<char> > const&, std::__ndk1::basic_string<char, std::__ndk1::char_traits<char>, std::__ndk1::allocator<char> > const&, matjson::Value const&)>, geode::Result<std::__ndk1::shared_ptr<geode::SettingV3>, std::__ndk1::basic_string<char, std::__ndk1::char_traits<char>, std::__ndk1::allocator<char> > >(std::__ndk1::basic_string<char, std::__ndk1::char_traits<char>, std::__ndk1::allocator<char> > const&, std::__ndk1::basic_string<char, std::__ndk1::char_traits<char>, std::__ndk1::allocator<char> > const&, matjson::Value const&)>::__clone() const
PUBLIC 5ffb8 0 std::__ndk1::__function::__func<geode::Result<std::__ndk1::shared_ptr<geode::SettingV3>, std::__ndk1::basic_string<char, std::__ndk1::char_traits<char>, std::__ndk1::allocator<char> > > (*)(std::__ndk1::basic_string<char, std::__ndk1::char_traits<char>, std::__ndk1::allocator<char> > const&, std::__ndk1::basic_string<char, std::__ndk1::char_traits<char>, std::__ndk1::allocator<char> > const&, matjson::Value const&), std::__ndk1::allocator<geode::Result<std::__ndk1::shared_ptr<geode::SettingV3>, std::__ndk1::basic_string<char, std::__ndk1::char_traits<char>, std::__ndk1::allocator<char> > > (*)(std::__ndk1::basic_string<char, std::__ndk1::char_traits<char>, std::__ndk1::allocator<char> > const&, std::__ndk1::basic_string<char, std::__ndk1::char_traits<char>, std::__ndk1::allocator<char> > const&, matjson::Value const&)>, geode::Result<std::__ndk1::shared_ptr<geode::SettingV3>, std::__ndk1::basic_string<char, std::__ndk1::char_traits<char>, std::__ndk1::allocator<char> > >(std::__ndk1::basic_string<char, std::__ndk1::char_traits<char>, std::__ndk1::allocator<char> > const&, std::__ndk1::basic_string<char, std::__ndk1::char_traits<char>, std::__ndk1::allocator<char> > const&, matjson::Value const&)>::__clone(std::__ndk1::__function::__base<geode::Result<std::__ndk1::shared_ptr<geode::SettingV3>, std::__ndk1::basic_string<char, std::__ndk1::char_traits<char>, std::__ndk1::allocator<char> > >(std::__ndk1::basic_string<char, std::__ndk1::char_traits<char>, std::__ndk1::allocator<char> > const&, std::__ndk1::basic_string<char, std::__ndk1::char_traits<char>, std::__ndk1::allocator<char> > const&, matjson::Value const&)>*) const
PUBLIC 5ffcc 0 std::__ndk1::__function::__func<geode::Result<std::__ndk1::shared_ptr<geode::SettingV3>, std::__ndk1::basic_string<char, std::__ndk1::char_traits<char>, std::__ndk1::allocator<char> > > (*)(std::__ndk1::basic_string<char, std::__ndk1::char_traits<char>, std::__ndk1::allocator<char> > const&, std::__ndk1::basic_string<char, std::__ndk1::char_traits<char>, std::__ndk1::allocator<char> > const&, matjson::Value const&), std::__ndk1::allocator<geode::Result<std::__ndk1::shared_ptr<geode::SettingV3>, std::__ndk1::basic_string<char, std::__ndk1::char_traits<char>, std::__ndk1::allocator<char> > > (*)(std::__ndk1::basic_string<char, std::__ndk1::char_traits<char>, std::__ndk1::allocator<char> > const&, std::__ndk1::basic_string<char, std::__ndk1::char_traits<char>, std::__ndk1::allocator<char> > const&, matjson::Value const&)>, geode::Result<std::__ndk1::shared_ptr<geode::SettingV3>, std::__ndk1::basic_string<char, std::__ndk1::char_traits<char>, std::__ndk1::allocator<char> > >(std::__ndk1::basic_string<char, std::__ndk1::char_traits<char>, std::__ndk1::allocator<char> > const&, std::__ndk1::basic_string<char, std::__ndk1::char_traits<char>, std::__ndk1::allocator<char> > const&, matjson::Value const&)>::destroy()
PUBLIC 5ffd0 0 std::__ndk1::__function::__func<geode::Result<std::__ndk1::shared_ptr<geode::SettingV3>, std::__ndk1::basic_string<char, std::__ndk1::char_traits<char>, std::__ndk1::allocator<char> > > (*)(std::__ndk1::basic_string<char, std::__ndk1::char_traits<char>, std::__ndk1::allocator<char> > const&, std::__ndk1::basic_string<char, std::__ndk1::char_traits<char>, std::__ndk1::allocator<char> > const&, matjson::Value const&), std::__ndk1::allocator<geode::Result<std::__ndk1::shared_ptr<geode::SettingV3>, std::__ndk1::basic_string<char, std::__ndk1::char_traits<char>, std::__ndk1::allocator<char> > > (*)(std::__ndk1::basic_string<char, std::__ndk1::char_traits<char>, std::__ndk1::allocator<char> > const&, std::__ndk1::basic_string<char, std::__ndk1::char_traits<char>, std::__ndk1::allocator<char> > const&, matjson::Value const&)>, geode::Result<std::__ndk1::shared_ptr<geode::SettingV3>, std::__ndk1::basic_string<char, std::__ndk1::char_traits<char>, std::__ndk1::allocator<char> > >(std::__ndk1::basic_string<char, std::__ndk1::char_traits<char>, std::__ndk1::allocator<char> > const&, std::__ndk1::basic_string<char, std::__ndk1::char_traits<char>, std::__ndk1::allocator<char> > const&, matjson::Value const&)>::destroy_deallocate()
PUBLIC 5ffd4 0 std::__ndk1::__function::__func<geode::Result<std::__ndk1::shared_ptr<geode::SettingV3>, std::__ndk1::basic_string<char, std::__ndk1::char_traits<char>, std::__ndk1::allocator<char> > > (*)(std::__ndk1::basic_string<char, std::__ndk1::char_traits<char>, std::__ndk1::allocator<char> > const&, std::__ndk1::basic_string<char, std::__ndk1::char_traits<char>, std::__ndk1::allocator<char> > const&, matjson::Value const&), std::__ndk1::allocator<geode::Result<std::__ndk1::shared_ptr<geode::SettingV3>, std::__ndk1::basic_string<char, std::__ndk1::char_traits<char>, std::__ndk1::allocator<char> > > (*)(std::__ndk1::basic_string<char, std::__ndk1::char_traits<char>, std::__ndk1::allocator<char> > const&, std::__ndk1::basic_string<char, std::__ndk1::char_traits<char>, std::__ndk1::allocator<char> > const&, matjson::Value const&)>, geode::Result<std::__ndk1::shared_ptr<geode::SettingV3>, std::__ndk1::basic_string<char, std::__ndk1::char_traits<char>, std::__ndk1::allocator<char> > >(std::__ndk1::basic_string<char, std::__ndk1::char_traits<char>, std::__ndk1::allocator<char> > const&, std::__ndk1::basic_string<char, std::__ndk1::char_traits<char>, std::__ndk1::allocator<char> > const&, matjson::Value const&)>::operator()(std::__ndk1::basic_string<char, std::__ndk1::char_traits<char>, std::__ndk1::allocator<char> > const&, std::__ndk1::basic_string<char, std::__ndk1::char_traits<char>, std::__ndk1::allocator<char> > const&, matjson::Value const&)
PUBLIC 5ffe8 0 std::__ndk1::__function::__func<geode::Result<std::__ndk1::shared_ptr<geode::SettingV3>, std::__ndk1::basic_string<char, std::__ndk1::char_traits<char>, std::__ndk1::allocator<char> > > (*)(std::__ndk1::basic_string<char, std::__ndk1::char_traits<char>, std::__ndk1::allocator<char> > const&, std::__ndk1::basic_string<char, std::__ndk1::char_traits<char>, std::__ndk1::allocator<char> > const&, matjson::Value const&), std::__ndk1::allocator<geode::Result<std::__ndk1::shared_ptr<geode::SettingV3>, std::__ndk1::basic_string<char, std::__ndk1::char_traits<char>, std::__ndk1::allocator<char> > > (*)(std::__ndk1::basic_string<char, std::__ndk1::char_traits<char>, std::__ndk1::allocator<char> > const&, std::__ndk1::basic_string<char, std::__ndk1::char_traits<char>, std::__ndk1::allocator<char> > const&, matjson::Value const&)>, geode::Result<std::__ndk1::shared_ptr<geode::SettingV3>, std::__ndk1::basic_string<char, std::__ndk1::char_traits<char>, std::__ndk1::allocator<char> > >(std::__ndk1::basic_string<char, std::__ndk1::char_traits<char>, std::__ndk1::allocator<char> > const&, std::__ndk1::basic_string<char, std::__ndk1::char_traits<char>, std::__ndk1::allocator<char> > const&, matjson::Value const&)>::target(std::type_info const&) const
PUBLIC 60004 0 std::__ndk1::__function::__func<geode::Result<std::__ndk1::shared_ptr<geode::SettingV3>, std::__ndk1::basic_string<char, std::__ndk1::char_traits<char>, std::__ndk1::allocator<char> > > (*)(std::__ndk1::basic_string<char, std::__ndk1::char_traits<char>, std::__ndk1::allocator<char> > const&, std::__ndk1::basic_string<char, std::__ndk1::char_traits<char>, std::__ndk1::allocator<char> > const&, matjson::Value const&), std::__ndk1::allocator<geode::Result<std::__ndk1::shared_ptr<geode::SettingV3>, std::__ndk1::basic_string<char, std::__ndk1::char_traits<char>, std::__ndk1::allocator<char> > > (*)(std::__ndk1::basic_string<char, std::__ndk1::char_traits<char>, std::__ndk1::allocator<char> > const&, std::__ndk1::basic_string<char, std::__ndk1::char_traits<char>, std::__ndk1::allocator<char> > const&, matjson::Value const&)>, geode::Result<std::__ndk1::shared_ptr<geode::SettingV3>, std::__ndk1::basic_string<char, std::__ndk1::char_traits<char>, std::__ndk1::allocator<char> > >(std::__ndk1::basic_string<char, std::__ndk1::char_traits<char>, std::__ndk1::allocator<char> > const&, std::__ndk1::basic_string<char, std::__ndk1::char_traits<char>, std::__ndk1::allocator<char> > const&, matjson::Value const&)>::target_type() const
PUBLIC 60010 0 _GLOBAL__sub_I_main.cpp
PUBLIC 6013c 0 ReloadSongNode::create(std::__ndk1::shared_ptr<ReloadSongSetting>, float)
PUBLIC 6026c 0 ReloadSongNode::init(std::__ndk1::shared_ptr<ReloadSongSetting>, float)
PUBLIC 603c8 0 std::__ndk1::shared_ptr<ReloadSongSetting>::~shared_ptr[abi:ne180000]()
PUBLIC 60418 0 ReloadSongNode::onButton(cocos2d::CCObject*)
PUBLIC 604b8 0 ReloadSongNode::onCommit()
PUBLIC 604bc 0 ReloadSongNode::onResetToDefault()
PUBLIC 604c0 0 ReloadSongNode::hasUncommittedChanges() const
PUBLIC 604c8 0 ReloadSongNode::hasNonDefaultValue() const
PUBLIC 604d0 0 geode::SettingNodeV3::~SettingNodeV3()
PUBLIC 60540 0 ReloadSongNode::~ReloadSongNode()
PUBLIC 605c0 0 ReloadSongSetting::parse(std::__ndk1::basic_string<char, std::__ndk1::char_traits<char>, std::__ndk1::allocator<char> > const&, std::__ndk1::basic_string<char, std::__ndk1::char_traits<char>, std::__ndk1::allocator<char> > const&, matjson::Value const&)
PUBLIC 6094c 0 ReloadSongSetting::load(matjson::Value const&)
PUBLIC 60954 0 ReloadSongSetting::save(matjson::Value&) const
PUBLIC 6095c 0 ReloadSongSetting::isDefaultValue() const
PUBLIC 60964 0 ReloadSongSetting::reset()
PUBLIC 60968 0 ReloadSongSetting::createNode(float)
PUBLIC 60a8c 0 ReloadSongSetting::~ReloadSongSetting()
PUBLIC 60ab0 0 std::__ndk1::__shared_ptr_emplace<ReloadSongSetting, std::__ndk1::allocator<ReloadSongSetting> >::~__shared_ptr_emplace()
PUBLIC 60ac0 0 std::__ndk1::__shared_ptr_emplace<ReloadSongSetting, std::__ndk1::allocator<ReloadSongSetting> >::~__shared_ptr_emplace()
PUBLIC 60af0 0 std::__ndk1::__shared_ptr_emplace<ReloadSongSetting, std::__ndk1::allocator<ReloadSongSetting> >::__on_zero_shared()
PUBLIC 60afc 0 std::__ndk1::__shared_ptr_emplace<ReloadSongSetting, std::__ndk1::allocator<ReloadSongSetting> >::__on_zero_shared_weak()
PUBLIC 60b00 0 geode::impl::ResultData<void, std::__ndk1::basic_string<char, std::__ndk1::char_traits<char>, std::__ndk1::allocator<char> > >::~ResultData()
PUBLIC 60b74 0 std::__ndk1::__throw_bad_weak_ptr[abi:ne180000]()
PUBLIC 60ba8 0 CurrentSongNode::init()
PUBLIC 611a8 0 CurrentSongNode::onButton(cocos2d::CCObject*)
PUBLIC 612b0 0 CurrentSongNode::update(float)
PUBLIC 6174c 0 CurrentSongNode::~CurrentSongNode()
PUBLIC 617b8 0 CurrentSongNode::~CurrentSongNode()
PUBLIC 61834 0 PreloadUI::init()
PUBLIC 61cf0 0 PreloadUI::increment(std::__ndk1::basic_string<char, std::__ndk1::char_traits<char>, std::__ndk1::allocator<char> >)
PUBLIC 61f88 0 PreloadUI::runCompleteAnimationAndRemove()
PUBLIC 6228c 0 PreloadUI::~PreloadUI()
PUBLIC 622b0 0 cocos2d::CCNodeRGBA::setOpacityModifyRGB(bool)
PUBLIC 622b4 0 cocos2d::CCNodeRGBA::isOpacityModifyRGB()
PUBLIC 622bc 0 {virtual override thunk({offset(-320)}, cocos2d::CCNodeRGBA::setOpacityModifyRGB(bool))}
PUBLIC 622c0 0 {virtual override thunk({offset(-320)}, cocos2d::CCNodeRGBA::isOpacityModifyRGB())}
PUBLIC 622c8 0 ProgressBar::init(float)
PUBLIC 626ac 0 ProgressBar::~ProgressBar()
PUBLIC 626d0 0 SongInfoPopup::create()
PUBLIC 62828 0 SongInfoPopup::setup()
PUBLIC 63bd8 0 geode::Popup<>::setTitle(std::__ndk1::basic_string<char, std::__ndk1::char_traits<char>, std::__ndk1::allocator<char> > const&, char const*, float, float)
PUBLIC 63d28 0 SongInfoPopup::onNoSongsRefresh(cocos2d::CCObject*)
PUBLIC 63dd4 0 SongInfoPopup::onSettings(cocos2d::CCObject*)
PUBLIC 63e18 0 SongInfoPopup::onPlayPause(cocos2d::CCObject*)
PUBLIC 63eb4 0 SongInfoPopup::onPrev(cocos2d::CCObject*)
PUBLIC 63f54 0 SongInfoPopup::onNext(cocos2d::CCObject*)
PUBLIC 63ff4 0 SongInfoPopup::onRewind(cocos2d::CCObject*)
PUBLIC 64130 0 SongInfoPopup::onFastForward(cocos2d::CCObject*)
PUBLIC 641d0 0 SongInfoPopup::updateCustomizableUI()
PUBLIC 64458 0 SongInfoPopup::update(float)
PUBLIC 65460 0 geode::Mod::getSettingValue<std::__ndk1::basic_string<char, std::__ndk1::char_traits<char>, std::__ndk1::allocator<char> > >(std::__ndk1::basic_string_view<char, std::__ndk1::char_traits<char> >) const
PUBLIC 655f0 0 std::__ndk1::array<std::__ndk1::basic_string<char, std::__ndk1::char_traits<char>, std::__ndk1::allocator<char> >, (unsigned long)7>::~array()
PUBLIC 656b4 0 SongInfoPopup::~SongInfoPopup()
PUBLIC 6578c 0 SongInfoPopup::~SongInfoPopup()
PUBLIC 6586c 0 geode::Popup<>::registerWithTouchDispatcher()
PUBLIC 65898 0 geode::Popup<>::keyDown(cocos2d::enumKeyCodes)
PUBLIC 658c0 0 cocos2d::CCLayerRGBA::setOpacityModifyRGB(bool)
PUBLIC 658c4 0 cocos2d::CCLayerRGBA::isOpacityModifyRGB()
PUBLIC 658cc 0 geode::Popup<>::onClose(cocos2d::CCObject*)
PUBLIC 65a14 0 {virtual override thunk({offset(-320)}, SongInfoPopup::~SongInfoPopup())}
PUBLIC 65af8 0 {virtual override thunk({offset(-320)}, SongInfoPopup::~SongInfoPopup())}
PUBLIC 65be4 0 {virtual override thunk({offset(-344)}, geode::Popup<>::keyDown(cocos2d::enumKeyCodes))}
PUBLIC 65c10 0 {virtual override thunk({offset(-408)}, cocos2d::CCLayerRGBA::setOpacityModifyRGB(bool))}
PUBLIC 65c14 0 {virtual override thunk({offset(-408)}, cocos2d::CCLayerRGBA::isOpacityModifyRGB())}
PUBLIC 65c1c 0 geode::Popup<>::~Popup()
PUBLIC 65c88 0 geode::Popup<>::~Popup()
PUBLIC 65c8c 0 {virtual override thunk({offset(-320)}, geode::Popup<>::~Popup())}
PUBLIC 65cf8 0 {virtual override thunk({offset(-320)}, geode::Popup<>::~Popup())}
PUBLIC 65cfc 0 geode::Popup<>::initBase(float, float, char const*, cocos2d::CCRect, bool)
PUBLIC 66004 0 geode::Popup<>::CloseEvent::~CloseEvent()
PUBLIC 66064 0 geode::Popup<>::CloseEvent::~CloseEvent()
PUBLIC 660d4 0 std::__ndk1::__shared_ptr_emplace<geode::Popup<>::CloseEvent::Impl, std::__ndk1::allocator<geode::Popup<>::CloseEvent::Impl> >::~__shared_ptr_emplace()
PUBLIC 660e4 0 std::__ndk1::__shared_ptr_emplace<geode::Popup<>::CloseEvent::Impl, std::__ndk1::allocator<geode::Popup<>::CloseEvent::Impl> >::~__shared_ptr_emplace()
PUBLIC 66114 0 std::__ndk1::__shared_ptr_emplace<geode::Popup<>::CloseEvent::Impl, std::__ndk1::allocator<geode::Popup<>::CloseEvent::Impl> >::__on_zero_shared()
PUBLIC 66118 0 std::__ndk1::__shared_ptr_emplace<geode::Popup<>::CloseEvent::Impl, std::__ndk1::allocator<geode::Popup<>::CloseEvent::Impl> >::__on_zero_shared_weak()
PUBLIC 6611c 0 em::utils::mimeTypeToFormat(std::__ndk1::basic_string<char, std::__ndk1::char_traits<char>, std::__ndk1::allocator<char> >)
PUBLIC 664dc 0 em::utils::isMusicPlayerCentered()
PUBLIC 6663c 0 em::utils::showMusicPlayerAlbumCover()
PUBLIC 66784 0 std::__ndk1::__hash_table<std::__ndk1::__hash_value_type<std::__ndk1::basic_string<char, std::__ndk1::char_traits<char>, std::__ndk1::allocator<char> >, cocos2d::CCImage::EImageFormat>, std::__ndk1::__unordered_map_hasher<std::__ndk1::basic_string<char, std::__ndk1::char_traits<char>, std::__ndk1::allocator<char> >, std::__ndk1::__hash_value_type<std::__ndk1::basic_string<char, std::__ndk1::char_traits<char>, std::__ndk1::allocator<char> >, cocos2d::CCImage::EImageFormat>, std::__ndk1::hash<std::__ndk1::basic_string<char, std::__ndk1::char_traits<char>, std::__ndk1::allocator<char> > >, std::__ndk1::equal_to<std::__ndk1::basic_string<char, std::__ndk1::char_traits<char>, std::__ndk1::allocator<char> > >, true>, std::__ndk1::__unordered_map_equal<std::__ndk1::basic_string<char, std::__ndk1::char_traits<char>, std::__ndk1::allocator<char> >, std::__ndk1::__hash_value_type<std::__ndk1::basic_string<char, std::__ndk1::char_traits<char>, std::__ndk1::allocator<char> >, cocos2d::CCImage::EImageFormat>, std::__ndk1::equal_to<std::__ndk1::basic_string<char, std::__ndk1::char_traits<char>, std::__ndk1::allocator<char> > >, std::__ndk1::hash<std::__ndk1::basic_string<char, std::__ndk1::char_traits<char>, std::__ndk1::allocator<char> > >, true>, std::__ndk1::allocator<std::__ndk1::__hash_value_type<std::__ndk1::basic_string<char, std::__ndk1::char_traits<char>, std::__ndk1::allocator<char> >, cocos2d::CCImage::EImageFormat> > >::~__hash_table()
PUBLIC 667f4 0 std::__ndk1::__hash_table<std::__ndk1::__hash_value_type<std::__ndk1::basic_string<char, std::__ndk1::char_traits<char>, std::__ndk1::allocator<char> >, cocos2d::CCImage::EImageFormat>, std::__ndk1::__unordered_map_hasher<std::__ndk1::basic_string<char, std::__ndk1::char_traits<char>, std::__ndk1::allocator<char> >, std::__ndk1::__hash_value_type<std::__ndk1::basic_string<char, std::__ndk1::char_traits<char>, std::__ndk1::allocator<char> >, cocos2d::CCImage::EImageFormat>, std::__ndk1::hash<std::__ndk1::basic_string<char, std::__ndk1::char_traits<char>, std::__ndk1::allocator<char> > >, std::__ndk1::equal_to<std::__ndk1::basic_string<char, std::__ndk1::char_traits<char>, std::__ndk1::allocator<char> > >, true>, std::__ndk1::__unordered_map_equal<std::__ndk1::basic_string<char, std::__ndk1::char_traits<char>, std::__ndk1::allocator<char> >, std::__ndk1::__hash_value_type<std::__ndk1::basic_string<char, std::__ndk1::char_traits<char>, std::__ndk1::allocator<char> >, cocos2d::CCImage::EImageFormat>, std::__ndk1::equal_to<std::__ndk1::basic_string<char, std::__ndk1::char_traits<char>, std::__ndk1::allocator<char> > >, std::__ndk1::hash<std::__ndk1::basic_string<char, std::__ndk1::char_traits<char>, std::__ndk1::allocator<char> > >, true>, std::__ndk1::allocator<std::__ndk1::__hash_value_type<std::__ndk1::basic_string<char, std::__ndk1::char_traits<char>, std::__ndk1::allocator<char> >, cocos2d::CCImage::EImageFormat> > >::__emplace_unique_key_args<std::__ndk1::basic_string<char, std::__ndk1::char_traits<char>, std::__ndk1::allocator<char> >, std::__ndk1::pair<std::__ndk1::basic_string<char, std::__ndk1::char_traits<char>, std::__ndk1::allocator<char> > const, cocos2d::CCImage::EImageFormat> const&>(std::__ndk1::basic_string<char, std::__ndk1::char_traits<char>, std::__ndk1::allocator<char> > const&, std::__ndk1::pair<std::__ndk1::basic_string<char, std::__ndk1::char_traits<char>, std::__ndk1::allocator<char> > const, cocos2d::CCImage::EImageFormat> const&)
PUBLIC 66e14 0 std::__ndk1::unique_ptr<std::__ndk1::__hash_node<std::__ndk1::__hash_value_type<std::__ndk1::basic_string<char, std::__ndk1::char_traits<char>, std::__ndk1::allocator<char> >, cocos2d::CCImage::EImageFormat>, void*>, std::__ndk1::__hash_node_destructor<std::__ndk1::allocator<std::__ndk1::__hash_node<std::__ndk1::__hash_value_type<std::__ndk1::basic_string<char, std::__ndk1::char_traits<char>, std::__ndk1::allocator<char> >, cocos2d::CCImage::EImageFormat>, void*> > > >::~unique_ptr[abi:ne180000]()
PUBLIC 66e64 0 std::__ndk1::__murmur2_or_cityhash<unsigned long, (unsigned long)64>::operator()[abi:ne180000](void const*, unsigned long) const
PUBLIC m 672bc 0 geodeImplicitEntry
PUBLIC 672f8 0 simdutf::implementation::autodetect_encoding(char const*, unsigned long) const
PUBLIC 67488 0 simdutf::arm64::implementation::detect_encodings(char const*, unsigned long) const
PUBLIC 677fc 0 simdutf::arm64::implementation::validate_utf8(char const*, unsigned long) const
PUBLIC 67be4 0 simdutf::arm64::implementation::validate_utf16le(char16_t const*, unsigned long) const
PUBLIC 67d20 0 simdutf::arm64::implementation::validate_utf32(char32_t const*, unsigned long) const
PUBLIC 67e24 0 simdutf::arm64::implementation::validate_utf8_with_errors(char const*, unsigned long) const
PUBLIC 68294 0 simdutf::arm64::implementation::validate_ascii(char const*, unsigned long) const
PUBLIC 6839c 0 simdutf::arm64::implementation::validate_ascii_with_errors(char const*, unsigned long) const
PUBLIC 68618 0 simdutf::arm64::implementation::validate_utf16be(char16_t const*, unsigned long) const
PUBLIC 68764 0 simdutf::arm64::implementation::validate_utf16le_with_errors(char16_t const*, unsigned long) const
PUBLIC 688d0 0 simdutf::arm64::implementation::validate_utf16be_with_errors(char16_t const*, unsigned long) const
PUBLIC 68a4c 0 simdutf::arm64::implementation::validate_utf32_with_errors(char32_t const*, unsigned long) const
PUBLIC 68bb0 0 simdutf::arm64::implementation::convert_latin1_to_utf8(char const*, unsigned long, char*) const
PUBLIC 68e78 0 simdutf::arm64::implementation::convert_latin1_to_utf16le(char const*, unsigned long, char16_t*) const
PUBLIC 68f7c 0 simdutf::arm64::implementation::convert_latin1_to_utf16be(char const*, unsigned long, char16_t*) const
PUBLIC 6908c 0 simdutf::arm64::implementation::convert_latin1_to_utf32(char const*, unsigned long, char32_t*) const
PUBLIC 691e0 0 simdutf::arm64::implementation::convert_utf8_to_latin1(char const*, unsigned long, char*) const
PUBLIC 69624 0 simdutf::arm64::implementation::convert_utf8_to_latin1_with_errors(char const*, unsigned long, char*) const
PUBLIC 69964 0 simdutf::arm64::implementation::convert_valid_utf8_to_latin1(char const*, unsigned long, char*) const
PUBLIC 69c74 0 simdutf::arm64::implementation::convert_utf8_to_utf16le(char const*, unsigned long, char16_t*) const
PUBLIC 6a4d4 0 simdutf::arm64::implementation::convert_utf8_to_utf16be(char const*, unsigned long, char16_t*) const
PUBLIC 6ad9c 0 simdutf::arm64::implementation::convert_utf8_to_utf16le_with_errors(char const*, unsigned long, char16_t*) const
PUBLIC 6b3e0 0 simdutf::arm64::implementation::convert_utf8_to_utf16be_with_errors(char const*, unsigned long, char16_t*) const
PUBLIC 6ba3c 0 simdutf::arm64::implementation::convert_valid_utf8_to_utf16le(char const*, unsigned long, char16_t*) const
PUBLIC 6bfe0 0 simdutf::arm64::implementation::convert_valid_utf8_to_utf16be(char const*, unsigned long, char16_t*) const
PUBLIC 6c5d0 0 simdutf::arm64::implementation::convert_utf8_to_utf32(char const*, unsigned long, char32_t*) const
PUBLIC 6cd60 0 simdutf::arm64::implementation::convert_utf8_to_utf32_with_errors(char const*, unsigned long, char32_t*) const
PUBLIC 6d304 0 simdutf::arm64::implementation::convert_valid_utf8_to_utf32(char const*, unsigned long, char32_t*) const
PUBLIC 6d7c4 0 simdutf::arm64::implementation::convert_utf16le_to_latin1(char16_t const*, unsigned long, char*) const
PUBLIC 6d928 0 simdutf::arm64::implementation::convert_utf16be_to_latin1(char16_t const*, unsigned long, char*) const
PUBLIC 6daa8 0 simdutf::arm64::implementation::convert_utf16le_to_latin1_with_errors(char16_t const*, unsigned long, char*) const
PUBLIC 6dd6c 0 simdutf::arm64::implementation::convert_utf16be_to_latin1_with_errors(char16_t const*, unsigned long, char*) const
PUBLIC 6e0b8 0 simdutf::arm64::implementation::convert_valid_utf16be_to_latin1(char16_t const*, unsigned long, char*) const
PUBLIC 6e238 0 simdutf::arm64::implementation::convert_valid_utf16le_to_latin1(char16_t const*, unsigned long, char*) const
PUBLIC 6e39c 0 simdutf::arm64::implementation::convert_utf16le_to_utf8(char16_t const*, unsigned long, char*) const
PUBLIC 6e84c 0 simdutf::arm64::implementation::convert_utf16be_to_utf8(char16_t const*, unsigned long, char*) const
PUBLIC 6ed38 0 simdutf::arm64::implementation::convert_utf16le_to_utf8_with_errors(char16_t const*, unsigned long, char*) const
PUBLIC 6f210 0 simdutf::arm64::implementation::convert_utf16be_to_utf8_with_errors(char16_t const*, unsigned long, char*) const
PUBLIC 6f724 0 simdutf::arm64::implementation::convert_valid_utf16le_to_utf8(char16_t const*, unsigned long, char*) const
PUBLIC 6f728 0 simdutf::arm64::implementation::convert_valid_utf16be_to_utf8(char16_t const*, unsigned long, char*) const
PUBLIC 6f72c 0 simdutf::arm64::implementation::convert_utf32_to_utf8(char32_t const*, unsigned long, char*) const
PUBLIC 6fbb4 0 simdutf::arm64::implementation::convert_utf32_to_utf8_with_errors(char32_t const*, unsigned long, char*) const
PUBLIC 70074 0 simdutf::arm64::implementation::convert_utf16le_to_utf32(char16_t const*, unsigned long, char32_t*) const
PUBLIC 7021c 0 simdutf::arm64::implementation::convert_utf16be_to_utf32(char16_t const*, unsigned long, char32_t*) const
PUBLIC 703e0 0 simdutf::arm64::implementation::convert_utf16le_to_utf32_with_errors(char16_t const*, unsigned long, char32_t*) const
PUBLIC 70594 0 simdutf::arm64::implementation::convert_utf16be_to_utf32_with_errors(char16_t const*, unsigned long, char32_t*) const
PUBLIC 70760 0 simdutf::arm64::implementation::convert_utf32_to_latin1(char32_t const*, unsigned long, char*) const
PUBLIC 7090c 0 simdutf::arm64::implementation::convert_utf32_to_latin1_with_errors(char32_t const*, unsigned long, char*) const
PUBLIC 70b10 0 simdutf::arm64::implementation::convert_valid_utf32_to_latin1(char32_t const*, unsigned long, char*) const
PUBLIC 70c0c 0 simdutf::arm64::implementation::convert_valid_utf32_to_utf8(char32_t const*, unsigned long, char*) const
PUBLIC 70c10 0 simdutf::arm64::implementation::convert_utf32_to_utf16le(char32_t const*, unsigned long, char16_t*) const
PUBLIC 70dc8 0 simdutf::arm64::implementation::convert_utf32_to_utf16be(char32_t const*, unsigned long, char16_t*) const
PUBLIC 70fc0 0 simdutf::arm64::implementation::convert_utf32_to_utf16le_with_errors(char32_t const*, unsigned long, char16_t*) const
PUBLIC 71224 0 simdutf::arm64::implementation::convert_utf32_to_utf16be_with_errors(char32_t const*, unsigned long, char16_t*) const
PUBLIC 714f4 0 simdutf::arm64::implementation::convert_valid_utf32_to_utf16le(char32_t const*, unsigned long, char16_t*) const
PUBLIC 714f8 0 simdutf::arm64::implementation::convert_valid_utf32_to_utf16be(char32_t const*, unsigned long, char16_t*) const
PUBLIC 714fc 0 simdutf::arm64::implementation::convert_valid_utf16le_to_utf32(char16_t const*, unsigned long, char32_t*) const
PUBLIC 71500 0 simdutf::arm64::implementation::convert_valid_utf16be_to_utf32(char16_t const*, unsigned long, char32_t*) const
PUBLIC 71504 0 simdutf::arm64::implementation::change_endianness_utf16(char16_t const*, unsigned long, char16_t*) const
PUBLIC 715e4 0 simdutf::arm64::implementation::count_utf16le(char16_t const*, unsigned long) const
PUBLIC 717e4 0 simdutf::arm64::implementation::count_utf16be(char16_t const*, unsigned long) const
PUBLIC 719f0 0 simdutf::arm64::implementation::count_utf8(char const*, unsigned long) const
PUBLIC 71d4c 0 simdutf::arm64::implementation::latin1_length_from_utf8(char const*, unsigned long) const
PUBLIC 720b4 0 simdutf::arm64::implementation::latin1_length_from_utf16(unsigned long) const
PUBLIC 720bc 0 simdutf::arm64::implementation::latin1_length_from_utf32(unsigned long) const
PUBLIC 720c4 0 simdutf::arm64::implementation::utf8_length_from_latin1(char const*, unsigned long) const
PUBLIC 7211c 0 simdutf::arm64::implementation::utf8_length_from_utf16le(char16_t const*, unsigned long) const
PUBLIC 72524 0 simdutf::arm64::implementation::utf8_length_from_utf16be(char16_t const*, unsigned long) const
PUBLIC 72950 0 simdutf::arm64::implementation::utf16_length_from_latin1(unsigned long) const
PUBLIC 72958 0 simdutf::arm64::implementation::utf32_length_from_latin1(unsigned long) const
PUBLIC 72960 0 simdutf::arm64::implementation::utf32_length_from_utf16le(char16_t const*, unsigned long) const
PUBLIC 72b60 0 simdutf::arm64::implementation::utf32_length_from_utf16be(char16_t const*, unsigned long) const
PUBLIC 72d6c 0 simdutf::arm64::implementation::utf16_length_from_utf8(char const*, unsigned long) const
PUBLIC 73108 0 simdutf::arm64::implementation::utf8_length_from_utf32(char32_t const*, unsigned long) const
PUBLIC 73334 0 simdutf::arm64::implementation::utf16_length_from_utf32(char32_t const*, unsigned long) const
PUBLIC 73484 0 simdutf::arm64::implementation::utf32_length_from_utf8(char const*, unsigned long) const
PUBLIC 737e0 0 simdutf::arm64::implementation::maximal_binary_length_from_base64(char const*, unsigned long) const
PUBLIC 73840 0 simdutf::arm64::implementation::base64_to_binary(char const*, unsigned long, char*, simdutf::base64_options, simdutf::last_chunk_handling_options) const
PUBLIC 7393c 0 simdutf::arm64::(anonymous namespace)::compress_decode_base64<true, true, char>(char*, char const*, unsigned long, simdutf::base64_options, simdutf::last_chunk_handling_options)
PUBLIC 74130 0 simdutf::arm64::(anonymous namespace)::compress_decode_base64<true, false, char>(char*, char const*, unsigned long, simdutf::base64_options, simdutf::last_chunk_handling_options)
PUBLIC 74a98 0 simdutf::arm64::(anonymous namespace)::compress_decode_base64<false, true, char>(char*, char const*, unsigned long, simdutf::base64_options, simdutf::last_chunk_handling_options)
PUBLIC 7524c 0 simdutf::arm64::(anonymous namespace)::compress_decode_base64<false, false, char>(char*, char const*, unsigned long, simdutf::base64_options, simdutf::last_chunk_handling_options)
PUBLIC 75b68 0 simdutf::arm64::implementation::base64_to_binary_details(char const*, unsigned long, char*, simdutf::base64_options, simdutf::last_chunk_handling_options) const
PUBLIC 75ba8 0 simdutf::arm64::implementation::maximal_binary_length_from_base64(char16_t const*, unsigned long) const
PUBLIC 75c08 0 simdutf::arm64::implementation::base64_to_binary(char16_t const*, unsigned long, char*, simdutf::base64_options, simdutf::last_chunk_handling_options) const
PUBLIC 75d04 0 simdutf::arm64::(anonymous namespace)::compress_decode_base64<true, true, char16_t>(char*, char16_t const*, unsigned long, simdutf::base64_options, simdutf::last_chunk_handling_options)
PUBLIC 7653c 0 simdutf::arm64::(anonymous namespace)::compress_decode_base64<true, false, char16_t>(char*, char16_t const*, unsigned long, simdutf::base64_options, simdutf::last_chunk_handling_options)
PUBLIC 76f48 0 simdutf::arm64::(anonymous namespace)::compress_decode_base64<false, true, char16_t>(char*, char16_t const*, unsigned long, simdutf::base64_options, simdutf::last_chunk_handling_options)
PUBLIC 77734 0 simdutf::arm64::(anonymous namespace)::compress_decode_base64<false, false, char16_t>(char*, char16_t const*, unsigned long, simdutf::base64_options, simdutf::last_chunk_handling_options)
PUBLIC 780ec 0 simdutf::arm64::implementation::base64_to_binary_details(char16_t const*, unsigned long, char*, simdutf::base64_options, simdutf::last_chunk_handling_options) const
PUBLIC 7812c 0 simdutf::arm64::implementation::base64_length_from_binary(unsigned long, simdutf::base64_options) const
PUBLIC 7816c 0 simdutf::arm64::implementation::binary_to_base64(char const*, unsigned long, char*, simdutf::base64_options) const
PUBLIC 7833c 0 simdutf::implementation::name() const
PUBLIC 783d8 0 simdutf::implementation::description() const
PUBLIC 78474 0 simdutf::implementation::required_instruction_sets() const
PUBLIC 7847c 0 simdutf::scalar::(anonymous namespace)::utf8::rewind_and_validate_with_errors(char const*, char const*, unsigned long)
PUBLIC 786f4 0 simdutf::scalar::(anonymous namespace)::utf8_to_latin1::rewind_and_convert_with_errors(unsigned long, char const*, unsigned long, char*)
PUBLIC 788f0 0 simdutf::scalar::(anonymous namespace)::utf8_to_utf32::rewind_and_convert_with_errors(unsigned long, char const*, unsigned long, char32_t*)
PUBLIC 78c7c 0 simdutf::scalar::(anonymous namespace)::utf8_to_utf16::rewind_and_convert_with_errors<(simdutf::endianness)0>(unsigned long, char const*, unsigned long, char16_t*)
PUBLIC 78f88 0 simdutf::scalar::(anonymous namespace)::utf8_to_utf16::rewind_and_convert_with_errors<(simdutf::endianness)1>(unsigned long, char const*, unsigned long, char16_t*)
PUBLIC 792e0 0 simdutf::scalar::(anonymous namespace)::base64::base64_tail_decode<char>(char*, char const*, unsigned long, unsigned long, simdutf::base64_options, simdutf::last_chunk_handling_options)
PUBLIC 79690 0 simdutf::scalar::(anonymous namespace)::base64::base64_tail_decode<char16_t>(char*, char16_t const*, unsigned long, unsigned long, simdutf::base64_options, simdutf::last_chunk_handling_options)
PUBLIC 79a9c 0 std::__ndk1::unordered_map<void*, bool, std::__ndk1::hash<void*>, std::__ndk1::equal_to<void*>, std::__ndk1::allocator<std::__ndk1::pair<void* const, bool> > >::~unordered_map[abi:ne180000]()
PUBLIC 79ae8 0 wrapFunction(unsigned long, tulip::hook::WrapperMetadata const&)
PUBLIC 79c1c 0 geode::impl::ResultData<void*, std::__ndk1::basic_string<char, std::__ndk1::char_traits<char>, std::__ndk1::allocator<char> > >::unwrapErr() &
PUBLIC 79c94 0 geode::impl::ResultData<void*, std::__ndk1::basic_string<char, std::__ndk1::char_traits<char>, std::__ndk1::allocator<char> > >::~ResultData()
PUBLIC 79d08 0 tulip::hook::WrapperMetadata::~WrapperMetadata()
PUBLIC 79d6c 0 cocos2d::CCObject::~CCObject()
PUBLIC 79d90 0 cocos2d::CCNode::CCNode()
PUBLIC 79fec 0 cocos2d::CCNode::~CCNode()
PUBLIC 7a010 0 cocos2d::CCNodeRGBA::CCNodeRGBA()
PUBLIC 7a27c 0 cocos2d::CCNodeRGBA::~CCNodeRGBA()
PUBLIC 7a2a0 0 {virtual override thunk({offset(-320)}, cocos2d::CCLayer::~CCLayer())}
PUBLIC 7a2a8 0 cocos2d::CCLayer::~CCLayer()
PUBLIC 7a2cc 0 {virtual override thunk({offset(-320)}, cocos2d::CCLayer::~CCLayer())}
PUBLIC 7a2f4 0 cocos2d::CCLayerRGBA::~CCLayerRGBA()
PUBLIC 7a5f4 0 {virtual override thunk({offset(-320)}, cocos2d::CCLayerRGBA::~CCLayerRGBA())}
PUBLIC 7a5fc 0 cocos2d::CCLayerRGBA::~CCLayerRGBA()
PUBLIC 7a620 0 {virtual override thunk({offset(-320)}, cocos2d::CCLayerRGBA::~CCLayerRGBA())}
PUBLIC 7a648 0 cocos2d::CCLayerColor::CCLayerColor()
PUBLIC 7a8ac 0 {virtual override thunk({offset(-320)}, cocos2d::CCLayerColor::~CCLayerColor())}
PUBLIC 7a8b4 0 cocos2d::CCLayerColor::~CCLayerColor()
PUBLIC 7a8d8 0 {virtual override thunk({offset(-320)}, cocos2d::CCLayerColor::~CCLayerColor())}
PUBLIC 7a900 0 cocos2d::CCTexture2D::~CCTexture2D()
PUBLIC 7ab70 0 cocos2d::CCTexture2D::~CCTexture2D()
PUBLIC 7ab94 0 cocos2d::CCTexture2D::CCTexture2D()
PUBLIC 7adc0 0 cocos2d::CCImage::CCImage()
PUBLIC 7afe4 0 cocos2d::CCImage::~CCImage()
PUBLIC 7b24c 0 cocos2d::CCImage::~CCImage()
PUBLIC 7b270 0 {virtual override thunk({offset(-320)}, FLAlertLayer::~FLAlertLayer())}
PUBLIC 7b278 0 FLAlertLayer::~FLAlertLayer()
PUBLIC 7b29c 0 {virtual override thunk({offset(-320)}, FLAlertLayer::~FLAlertLayer())}
PUBLIC 7b2c4 0 cocos2d::CCNodeRGBA::~CCNodeRGBA()
PUBLIC 7b57c 0 cocos2d::CCObject::update(float)
PUBLIC 7b580 0 cocos2d::CCLayerColor::~CCLayerColor()
PUBLIC 7b864 0 FLAlertLayer::~FLAlertLayer()
PUBLIC 7bb48 0 cocos2d::CCNode::~CCNode()
PUBLIC 7bde8 0 cocos2d::CCLayer::~CCLayer()
PUBLIC 7c0d8 0 cocos2d::CCObject::~CCObject()
PUBLIC 7c5cc 0 _ZN5geode15UnwrapExceptionC2IRPvQsr4implE18IsStringStreamableIT_EEENS_4impl5OkTagEOS4_
PUBLIC 7c720 0 std::__ndk1::__variant_detail::__visitation::__base::__dispatcher<(unsigned long)0>::__dispatch[abi:ne180000]<std::__ndk1::__variant_detail::__dtor<std::__ndk1::__variant_detail::__traits<void*, std::__ndk1::basic_string<char, std::__ndk1::char_traits<char>, std::__ndk1::allocator<char> > >, (std::__ndk1::__variant_detail::_Trait)1>::__destroy[abi:ne180000]()::{lambda(auto:1&)#1}, std::__ndk1::__variant_detail::__base<(std::__ndk1::__variant_detail::__traits<void*, std::__ndk1::basic_string<char, std::__ndk1::char_traits<char>, std::__ndk1::allocator<char> > >)1, std::__ndk1::__variant_detail::__traits, std::__ndk1::allocator<char> >&>(std::__ndk1::__variant_detail::__dtor<std::__ndk1::__variant_detail::__traits<void*, std::__ndk1::basic_string<char, std::__ndk1::char_traits<char>, std::__ndk1::allocator<char> > >, (std::__ndk1::__variant_detail::_Trait)1>, std::__ndk1::__variant_detail::__base<(std::__ndk1::__variant_detail::__traits<void*, std::__ndk1::basic_string<char, std::__ndk1::char_traits<char>, std::__ndk1::allocator<char> > >)1, std::__ndk1::__variant_detail::__traits, std::__ndk1::allocator<char> >&)
PUBLIC 7c724 0 std::__ndk1::__variant_detail::__visitation::__base::__dispatcher<(unsigned long)1>::__dispatch[abi:ne180000]<std::__ndk1::__variant_detail::__dtor<std::__ndk1::__variant_detail::__traits<void*, std::__ndk1::basic_string<char, std::__ndk1::char_traits<char>, std::__ndk1::allocator<char> > >, (std::__ndk1::__variant_detail::_Trait)1>::__destroy[abi:ne180000]()::{lambda(auto:1&)#1}, std::__ndk1::__variant_detail::__base<(std::__ndk1::__variant_detail::__traits<void*, std::__ndk1::basic_string<char, std::__ndk1::char_traits<char>, std::__ndk1::allocator<char> > >)1, std::__ndk1::__variant_detail::__traits, std::__ndk1::allocator<char> >&>(std::__ndk1::__variant_detail::__dtor<std::__ndk1::__variant_detail::__traits<void*, std::__ndk1::basic_string<char, std::__ndk1::char_traits<char>, std::__ndk1::allocator<char> > >, (std::__ndk1::__variant_detail::_Trait)1>, std::__ndk1::__variant_detail::__base<(std::__ndk1::__variant_detail::__traits<void*, std::__ndk1::basic_string<char, std::__ndk1::char_traits<char>, std::__ndk1::allocator<char> > >)1, std::__ndk1::__variant_detail::__traits, std::__ndk1::allocator<char> >&)
PUBLIC 7c738 0 std::__ndk1::__hash_table<std::__ndk1::__hash_value_type<void*, bool>, std::__ndk1::__unordered_map_hasher<void*, std::__ndk1::__hash_value_type<void*, bool>, std::__ndk1::hash<void*>, std::__ndk1::equal_to<void*>, true>, std::__ndk1::__unordered_map_equal<void*, std::__ndk1::__hash_value_type<void*, bool>, std::__ndk1::equal_to<void*>, std::__ndk1::hash<void*>, true>, std::__ndk1::allocator<std::__ndk1::__hash_value_type<void*, bool> > >::__emplace_unique_key_args<void*, std::__ndk1::piecewise_construct_t const&, std::__ndk1::tuple<void* const&>, std::__ndk1::tuple<> >(void* const&, std::__ndk1::piecewise_construct_t const&, std::__ndk1::tuple<void* const&>, std::__ndk1::tuple<>)
PUBLIC 7cc44 0 __udivti3
PUBLIC 7cc50 0 __udivmodti4
PUBLIC m 7ce9c 0 __eqtf2
PUBLIC 7cf3c 0 __unordtf2
PUBLIC 7cf74 0 fmt::v11::detail::write_loc(fmt::v11::basic_appender<char>, fmt::v11::loc_value, fmt::v11::format_specs const&, fmt::v11::detail::locale_ref)
PUBLIC 7d208 0 fmt::v11::format_facet<std::__ndk1::locale>::~format_facet()
PUBLIC 7d284 0 fmt::v11::report_error(char const*)
PUBLIC 7d2d4 0 fmt::v11::format_error::runtime_error(char const*)
PUBLIC 7d300 0 fmt::v11::format_facet<std::__ndk1::locale>::do_put(fmt::v11::basic_appender<char>, fmt::v11::loc_value, fmt::v11::format_specs const&) const
PUBLIC 7dac0 0 fmt::v11::detail::loc_writer<char>::~loc_writer()
PUBLIC 7db24 0 fmt::v11::vformat(fmt::v11::basic_string_view<char>, fmt::v11::basic_format_args<fmt::v11::context>)
PUBLIC 7dc60 0 fmt::v11::detail::vformat_to<char>(fmt::v11::detail::buffer<char>&, fmt::v11::basic_string_view<char>, fmt::v11::detail::vformat_args<char>::type, fmt::v11::detail::locale_ref)
PUBLIC 7e1d0 0 fmt::v11::detail::is_printable(unsigned int)
PUBLIC 7e3f8 0 fmt::v11::detail::dragonbox::to_decimal<float>(float)
PUBLIC 7e6d4 0 fmt::v11::detail::dragonbox::to_decimal<double>(double)
PUBLIC 7ec10 0 fmt::v11::basic_memory_buffer<char, (unsigned long)500, std::__ndk1::allocator<char> >::grow(fmt::v11::detail::buffer<char>&, unsigned long)
PUBLIC 7ec88 0 fmt::v11::format_facet<std::__ndk1::locale>::~format_facet()
PUBLIC 7ed14 0 fmt::v11::format_error::~format_error()
PUBLIC 7ed38 0 fmt::v11::detail::copy_noinline<char, char const*, fmt::v11::basic_appender<char> >(char const*, char const*, fmt::v11::basic_appender<char>)
PUBLIC 7ee88 0 fmt::v11::detail::default_arg_formatter<char>::operator()<bool>(bool)
PUBLIC 7eef0 0 fmt::v11::detail::default_arg_formatter<char>::operator()<char>(char)
PUBLIC 7ef80 0 fmt::v11::detail::default_arg_formatter<char>::operator()<float>(float)
PUBLIC 7f06c 0 fmt::v11::detail::default_arg_formatter<char>::operator()<double>(double)
PUBLIC 7f158 0 fmt::v11::detail::default_arg_formatter<char>::operator()<char const*>(char const*)
PUBLIC 7f1a0 0 fmt::v11::detail::default_arg_formatter<char>::operator()<void const*>(void const*)
PUBLIC 7f238 0 _ZN3fmt3v116detail5writeIcNS0_14basic_appenderIcEEiTnNSt6__ndk19enable_ifIXaaaasr11is_integralIT1_EE5valuentsr3std7is_sameIS7_bEE5valuentsr3std7is_sameIS7_T_EE5valueEiE4typeELi0EEET0_SB_S7_
PUBLIC 7f498 0 fmt::v11::detail::copy_noinline<char, char*, fmt::v11::basic_appender<char> >(char*, char*, fmt::v11::basic_appender<char>)
PUBLIC 7f5e8 0 _ZN3fmt3v116detail5writeIcNS0_14basic_appenderIcEEjTnNSt6__ndk19enable_ifIXaaaasr11is_integralIT1_EE5valuentsr3std7is_sameIS7_bEE5valuentsr3std7is_sameIS7_T_EE5valueEiE4typeELi0EEET0_SB_S7_
PUBLIC 7f7c8 0 _ZN3fmt3v116detail5writeIcNS0_14basic_appenderIcEExTnNSt6__ndk19enable_ifIXaaaasr11is_integralIT1_EE5valuentsr3std7is_sameIS7_bEE5valuentsr3std7is_sameIS7_T_EE5valueEiE4typeELi0EEET0_SB_S7_
PUBLIC 7fa4c 0 _ZN3fmt3v116detail5writeIcNS0_14basic_appenderIcEEyTnNSt6__ndk19enable_ifIXaaaasr11is_integralIT1_EE5valuentsr3std7is_sameIS7_bEE5valuentsr3std7is_sameIS7_T_EE5valueEiE4typeELi0EEET0_SB_S7_
PUBLIC 7fc54 0 _ZN3fmt3v116detail5writeIcNS0_14basic_appenderIcEEnTnNSt6__ndk19enable_ifIXaaaasr11is_integralIT1_EE5valuentsr3std7is_sameIS7_bEE5valuentsr3std7is_sameIS7_T_EE5valueEiE4typeELi0EEET0_SB_S7_
PUBLIC 7ffb4 0 _ZN3fmt3v116detail5writeIcNS0_14basic_appenderIcEEoTnNSt6__ndk19enable_ifIXaaaasr11is_integralIT1_EE5valuentsr3std7is_sameIS7_bEE5valuentsr3std7is_sameIS7_T_EE5valueEiE4typeELi0EEET0_SB_S7_
PUBLIC 802c8 0 _ZN3fmt3v116detail5writeIcNS0_14basic_appenderIcEEbTnNSt6__ndk19enable_ifIXsr3std7is_sameIT1_bEE5valueEiE4typeELi0EEET0_SA_S7_RKNS0_12format_specsENS1_10locale_refE
PUBLIC 80558 0 fmt::v11::detail::write_int_noinline<char, fmt::v11::basic_appender<char>, unsigned int>(fmt::v11::basic_appender<char>, fmt::v11::detail::write_int_arg<unsigned int>, fmt::v11::format_specs const&, fmt::v11::detail::locale_ref)
PUBLIC 81334 0 fmt::v11::detail::fill<char, fmt::v11::basic_appender<char> >(fmt::v11::basic_appender<char>, unsigned long, fmt::v11::detail::fill_t const&)
PUBLIC 81504 0 fmt::v11::detail::write_padded<char, (fmt::v11::align::type)1, fmt::v11::basic_appender<char>, fmt::v11::detail::write_char<char, fmt::v11::basic_appender<char> >(fmt::v11::basic_appender<char>, char, fmt::v11::format_specs const&)::{lambda(fmt::v11::basic_appender<char>&)#1}>(fmt::v11::basic_appender<char>, fmt::v11::format_specs const&, unsigned long, unsigned long, fmt::v11::detail::write_char<char, fmt::v11::basic_appender<char> >(fmt::v11::basic_appender<char>, char, fmt::v11::format_specs const&)::{lambda(fmt::v11::basic_appender<char>&)#1})
PUBLIC 81740 0 fmt::v11::detail::write_escaped_cp<fmt::v11::basic_appender<char>, char>(fmt::v11::basic_appender<char>, fmt::v11::detail::find_escape_result<char> const&)
PUBLIC 81a4c 0 fmt::v11::detail::write_codepoint<(unsigned long)2, char, fmt::v11::basic_appender<char> >(fmt::v11::basic_appender<char>, char, unsigned int)
PUBLIC 81bc4 0 fmt::v11::detail::write_codepoint<(unsigned long)8, char, fmt::v11::basic_appender<char> >(fmt::v11::basic_appender<char>, char, unsigned int)
PUBLIC 81d3c 0 fmt::v11::detail::write_padded<char, (fmt::v11::align::type)1, fmt::v11::basic_appender<char>, fmt::v11::detail::write_nonfinite<char, fmt::v11::basic_appender<char> >(fmt::v11::basic_appender<char>, bool, fmt::v11::format_specs, fmt::v11::sign::type)::{lambda(fmt::v11::basic_appender<char>&)#1}>(fmt::v11::basic_appender<char>, fmt::v11::format_specs const&, unsigned long, unsigned long, fmt::v11::detail::write_nonfinite<char, fmt::v11::basic_appender<char> >(fmt::v11::basic_appender<char>, bool, fmt::v11::format_specs, fmt::v11::sign::type)::{lambda(fmt::v11::basic_appender<char>&)#1})
PUBLIC 81f7c 0 fmt::v11::detail::do_write_float<char, fmt::v11::basic_appender<char>, fmt::v11::detail::dragonbox::decimal_fp<float>, fmt::v11::detail::digit_grouping<char> >(fmt::v11::basic_appender<char>, fmt::v11::detail::dragonbox::decimal_fp<float> const&, fmt::v11::format_specs const&, fmt::v11::detail::float_specs, fmt::v11::detail::locale_ref)
PUBLIC 82bf0 0 fmt::v11::detail::do_write_float<char, fmt::v11::basic_appender<char>, fmt::v11::detail::dragonbox::decimal_fp<float>, fmt::v11::detail::digit_grouping<char> >(fmt::v11::basic_appender<char>, fmt::v11::detail::dragonbox::decimal_fp<float> const&, fmt::v11::format_specs const&, fmt::v11::detail::float_specs, fmt::v11::detail::locale_ref)::{lambda(fmt::v11::basic_appender<char>(fmt::v11::basic_appender<char>))#1}::operator() const
PUBLIC 82d44 0 fmt::v11::detail::digit_grouping<char>::digit_grouping(fmt::v11::detail::locale_ref, bool)
PUBLIC 82fb0 0 fmt::v11::detail::digit_grouping<char>::~digit_grouping()
PUBLIC 82ff4 0 fmt::v11::detail::write_exponent<char, fmt::v11::basic_appender<char> >(int, fmt::v11::basic_appender<char>)
PUBLIC 831c4 0 _ZN3fmt3v116detail17write_significandIcjTnNSt6__ndk19enable_ifIXsr3std11is_integralIT0_EE5valueEiE4typeELi0EEEPT_S9_S5_iiS8_
PUBLIC 83340 0 fmt::v11::detail::digit_grouping<char>::apply<fmt::v11::basic_appender<char>, char>(fmt::v11::basic_appender<char>, fmt::v11::basic_string_view<char>) const
PUBLIC 836f8 0 fmt::v11::basic_memory_buffer<int, (unsigned long)500, std::__ndk1::allocator<int> >::grow(fmt::v11::detail::buffer<int>&, unsigned long)
PUBLIC 83798 0 fmt::v11::detail::do_write_float<char, fmt::v11::basic_appender<char>, fmt::v11::detail::dragonbox::decimal_fp<double>, fmt::v11::detail::digit_grouping<char> >(fmt::v11::basic_appender<char>, fmt::v11::detail::dragonbox::decimal_fp<double> const&, fmt::v11::format_specs const&, fmt::v11::detail::float_specs, fmt::v11::detail::locale_ref)
PUBLIC 8444c 0 fmt::v11::detail::do_write_float<char, fmt::v11::basic_appender<char>, fmt::v11::detail::dragonbox::decimal_fp<double>, fmt::v11::detail::digit_grouping<char> >(fmt::v11::basic_appender<char>, fmt::v11::detail::dragonbox::decimal_fp<double> const&, fmt::v11::format_specs const&, fmt::v11::detail::float_specs, fmt::v11::detail::locale_ref)::{lambda(fmt::v11::basic_appender<char>(fmt::v11::basic_appender<char>))#1}::operator() const
PUBLIC 845a4 0 _ZN3fmt3v116detail17write_significandIcmTnNSt6__ndk19enable_ifIXsr3std11is_integralIT0_EE5valueEiE4typeELi0EEEPT_S9_S5_iiS8_
PUBLIC 84734 0 fmt::v11::detail::write_float<char, fmt::v11::basic_appender<char>, long double>(fmt::v11::basic_appender<char>, long double, fmt::v11::format_specs, fmt::v11::detail::locale_ref)
PUBLIC 85230 0 fmt::v11::detail::write_padded<char, (fmt::v11::align::type)2, fmt::v11::basic_appender<char>, fmt::v11::detail::write_bytes<char, (fmt::v11::align::type)2, fmt::v11::basic_appender<char> >(fmt::v11::basic_appender<char>, fmt::v11::basic_string_view<char>, fmt::v11::format_specs const&)::{lambda(fmt::v11::basic_appender<char>&)#1}>(fmt::v11::basic_appender<char>, fmt::v11::format_specs const&, unsigned long, unsigned long, fmt::v11::detail::write_bytes<char, (fmt::v11::align::type)2, fmt::v11::basic_appender<char> >(fmt::v11::basic_appender<char>, fmt::v11::basic_string_view<char>, fmt::v11::format_specs const&)::{lambda(fmt::v11::basic_appender<char>&)#1})
PUBLIC 8540c 0 fmt::v11::detail::format_dragon(fmt::v11::detail::basic_fp<unsigned __int128>, unsigned int, int, fmt::v11::detail::buffer<char>&, int&)
PUBLIC 8683c 0 fmt::v11::detail::bigint::operator<<=(int)
PUBLIC 86960 0 fmt::v11::detail::bigint::assign_pow10(int)
PUBLIC 870bc 0 fmt::v11::detail::bigint::divmod_assign(fmt::v11::detail::bigint const&)
PUBLIC 873dc 0 fmt::v11::basic_memory_buffer<unsigned int, (unsigned long)32, std::__ndk1::allocator<unsigned int> >::grow(fmt::v11::detail::buffer<unsigned int>&, unsigned long)
PUBLIC 8747c 0 fmt::v11::detail::do_write_float<char, fmt::v11::basic_appender<char>, fmt::v11::detail::big_decimal_fp, fmt::v11::detail::digit_grouping<char> >(fmt::v11::basic_appender<char>, fmt::v11::detail::big_decimal_fp const&, fmt::v11::format_specs const&, fmt::v11::detail::float_specs, fmt::v11::detail::locale_ref)
PUBLIC 8832c 0 fmt::v11::detail::do_write_float<char, fmt::v11::basic_appender<char>, fmt::v11::detail::big_decimal_fp, fmt::v11::detail::digit_grouping<char> >(fmt::v11::basic_appender<char>, fmt::v11::detail::big_decimal_fp const&, fmt::v11::format_specs const&, fmt::v11::detail::float_specs, fmt::v11::detail::locale_ref)::{lambda(fmt::v11::basic_appender<char>(fmt::v11::basic_appender<char>))#1}::operator() const
PUBLIC 8848c 0 fmt::v11::detail::write_padded<char, (fmt::v11::align::type)2, fmt::v11::basic_appender<char>, fmt::v11::detail::write_ptr<char, fmt::v11::basic_appender<char>, unsigned long>(fmt::v11::basic_appender<char>, unsigned long, fmt::v11::format_specs const*)::{lambda(fmt::v11::basic_appender<char>&)#1}>(fmt::v11::basic_appender<char>, fmt::v11::format_specs const&, unsigned long, unsigned long, fmt::v11::detail::write_ptr<char, fmt::v11::basic_appender<char>, unsigned long>(fmt::v11::basic_appender<char>, unsigned long, fmt::v11::format_specs const*)::{lambda(fmt::v11::basic_appender<char>&)#1})
PUBLIC 886a0 0 fmt::v11::detail::parse_replacement_field<char, fmt::v11::detail::vformat_to<char>(fmt::v11::detail::buffer<char>&, fmt::v11::basic_string_view<char>, fmt::v11::detail::vformat_args<char>::type, fmt::v11::detail::locale_ref)::format_handler&>(char const*, char const*, fmt::v11::detail::vformat_to<char>(fmt::v11::detail::buffer<char>&, fmt::v11::basic_string_view<char>, fmt::v11::detail::vformat_args<char>::type, fmt::v11::detail::locale_ref)::format_handler&)
PUBLIC 8a33c 0 fmt::v11::detail::parse_dynamic_spec<char>(char const*, char const*, int&, fmt::v11::detail::arg_ref<char>&, fmt::v11::basic_format_parse_context<char>&)
PUBLIC 8a5cc 0 fmt::v11::basic_format_args<fmt::v11::context>::get<char>(fmt::v11::basic_string_view<char>) const
PUBLIC 8a724 0 fmt::v11::detail::write_int_noinline<char, fmt::v11::basic_appender<char>, unsigned long>(fmt::v11::basic_appender<char>, fmt::v11::detail::write_int_arg<unsigned long>, fmt::v11::format_specs const&, fmt::v11::detail::locale_ref)
PUBLIC 8b578 0 fmt::v11::detail::write_int_noinline<char, fmt::v11::basic_appender<char>, unsigned __int128>(fmt::v11::basic_appender<char>, fmt::v11::detail::write_int_arg<unsigned __int128>, fmt::v11::format_specs const&, fmt::v11::detail::locale_ref)
PUBLIC 8c5e0 0 _ZN3fmt3v116detail15format_hexfloatIdTnNSt6__ndk19enable_ifIXntsr16is_double_doubleIT_EE5valueEiE4typeELi0EEEvS5_NS0_12format_specsERNS1_6bufferIcEE
PUBLIC 8cb00 0 fmt::v11::detail::format_float<double>(double, int, fmt::v11::detail::float_specs, fmt::v11::detail::buffer<char>&)
PUBLIC 8d4a0 0 fmt::v11::detail::write<char, fmt::v11::basic_appender<char> >(fmt::v11::basic_appender<char>, fmt::v11::basic_string_view<char>, fmt::v11::format_specs const&)
PUBLIC 8e80c 0 fmt::v11::detail::for_each_codepoint<fmt::v11::detail::compute_width(fmt::v11::basic_string_view<char>)::count_code_points>(fmt::v11::basic_string_view<char>, fmt::v11::detail::compute_width(fmt::v11::basic_string_view<char>)::count_code_points)::{lambda(char const*, char const*)#1}::operator()(char const*, char const*) const
PUBLIC 8e9c4 0 fmt::v11::detail::write_int<fmt::v11::basic_appender<char>, unsigned long, char>(fmt::v11::basic_appender<char>, unsigned long, unsigned int, fmt::v11::format_specs const&, fmt::v11::detail::digit_grouping<char> const&)
PUBLIC 8ef40 0 fmt::v11::detail::write_int<fmt::v11::basic_appender<char>, unsigned __int128, char>(fmt::v11::basic_appender<char>, unsigned __int128, unsigned int, fmt::v11::format_specs const&, fmt::v11::detail::digit_grouping<char> const&)
PUBLIC 8f5c0 0 <.plt ELF section in undefined0.editormusic.android64.so>
STACK CFI INIT 3a5e0 10 .cfa: sp 0 +
STACK CFI INIT 3a5f0 8 .cfa: sp 0 +
STACK CFI INIT 3a5f8 8 .cfa: sp 0 +
STACK CFI INIT 3a600 14 .cfa: sp 0 +
STACK CFI INIT 3a614 1c .cfa: sp 0 +
STACK CFI INIT 3a630 10 .cfa: sp 0 +
STACK CFI INIT 3a640 134 .cfa: sp 0 +
STACK CFI INIT 3a774 84 .cfa: sp 0 +
STACK CFI INIT 3a7f8 f4 .cfa: sp 0 +
STACK CFI INIT 3a8ec a8 .cfa: sp 0 +
STACK CFI INIT 3a994 7c .cfa: sp 0 +
STACK CFI INIT 3aa10 14 .cfa: sp 0 +
STACK CFI INIT 3aa24 40 .cfa: sp 0 +
STACK CFI INIT 3aa64 28 .cfa: sp 0 +
STACK CFI INIT 3aa8c 190 .cfa: sp 0 +
STACK CFI INIT 3ac1c 2c8 .cfa: sp 0 +
STACK CFI INIT 3aee4 8 .cfa: sp 0 +
STACK CFI INIT 3aeec 8 .cfa: sp 0 +
STACK CFI INIT 3aef4 44 .cfa: sp 0 +
STACK CFI INIT 3af38 e8 .cfa: sp 0 +
STACK CFI INIT 3b020 e8 .cfa: sp 0 +
STACK CFI INIT 3b108 14 .cfa: sp 0 +
STACK CFI INIT 3b11c 10 .cfa: sp 0 +
STACK CFI INIT 3b12c 10 .cfa: sp 0 +
STACK CFI INIT 3b13c f0 .cfa: sp 0 +
STACK CFI INIT 3b22c 44 .cfa: sp 0 +
STACK CFI INIT 3b270 c .cfa: sp 0 +
STACK CFI INIT 3b27c c .cfa: sp 0 +
STACK CFI INIT 3b288 2c .cfa: sp 0 +
STACK CFI INIT 3b2b4 280 .cfa: sp 0 +
STACK CFI INIT 3b534 c .cfa: sp 0 +
STACK CFI INIT 3b540 120 .cfa: sp 0 +
STACK CFI INIT 3b660 488 .cfa: sp 0 +
STACK CFI INIT 3bae8 c48 .cfa: sp 0 +
STACK CFI INIT 3c730 134 .cfa: sp 0 +
STACK CFI INIT 3c864 210 .cfa: sp 0 +
STACK CFI INIT 3ca74 38c .cfa: sp 0 +
STACK CFI INIT 3ce00 1c8 .cfa: sp 0 +
STACK CFI INIT 3cfc8 9bc .cfa: sp 0 +
STACK CFI INIT 3d984 2d4 .cfa: sp 0 +
STACK CFI INIT 3dc58 134 .cfa: sp 0 +
STACK CFI INIT 3dd8c 120 .cfa: sp 0 +
STACK CFI INIT 3deac 1c8 .cfa: sp 0 +
STACK CFI INIT 3e074 168 .cfa: sp 0 +
STACK CFI INIT 3e1dc fc .cfa: sp 0 +
STACK CFI INIT 3e2d8 30 .cfa: sp 0 +
STACK CFI INIT 3e440 30 .cfa: sp 0 +
STACK CFI INIT 3e470 98 .cfa: sp 0 +
STACK CFI INIT 3e508 59c .cfa: sp 0 +
STACK CFI INIT 3eaa4 8c .cfa: sp 0 +
STACK CFI INIT 3eb30 30 .cfa: sp 0 +
STACK CFI INIT 3ec14 a8 .cfa: sp 0 +
STACK CFI 3ec18 .cfa: sp 48 +
STACK CFI 3ec24 .cfa: x29 48 + x19: .cfa -8 + ^ x20: .cfa -16 + ^ x21: .cfa -24 + ^ x22: .cfa -32 + ^ .ra: .cfa -40 + ^ x29: .cfa -48 + ^
STACK CFI 3ecac .cfa: sp 48 +
STACK CFI 3ecb8 .cfa: sp 0 +
STACK CFI INIT 3ee60 a8 .cfa: sp 0 +
STACK CFI 3ee64 .cfa: sp 48 +
STACK CFI 3ee70 .cfa: x29 48 + x19: .cfa -8 + ^ x20: .cfa -16 + ^ x21: .cfa -24 + ^ x22: .cfa -32 + ^ .ra: .cfa -40 + ^ x29: .cfa -48 + ^
STACK CFI 3ee90 .cfa: sp 48 +
STACK CFI 3ee9c .cfa: sp 0 +
STACK CFI 3eea0 .cfa: x29 48 +
STACK CFI 3eee8 .cfa: sp 48 +
STACK CFI 3eef4 .cfa: sp 0 +
STACK CFI 3eef8 .cfa: sp 48 +
STACK CFI 3ef04 .cfa: sp 0 +
STACK CFI INIT 3ef08 1bc .cfa: sp 0 +
STACK CFI 3ef0c .cfa: sp 80 +
STACK CFI 3ef20 .cfa: x29 80 + x19: .cfa -8 + ^ x20: .cfa -16 + ^ x21: .cfa -24 + ^ x22: .cfa -32 + ^ x23: .cfa -40 + ^ x24: .cfa -48 + ^ x25: .cfa -64 + ^ .ra: .cfa -72 + ^ x29: .cfa -80 + ^
STACK CFI 3f094 .cfa: sp 80 +
STACK CFI 3f0a8 .cfa: sp 0 +
STACK CFI 3f0ac .cfa: sp 80 +
STACK CFI 3f0c0 .cfa: sp 0 +
STACK CFI INIT 3f0c4 f0 .cfa: sp 0 +
STACK CFI 3f0c8 .cfa: sp 80 +
STACK CFI 3f0d8 .cfa: x29 48 + x19: .cfa -8 + ^ x20: .cfa -16 + ^ x21: .cfa -32 + ^ .ra: .cfa -40 + ^ x29: .cfa -48 + ^
STACK CFI 3f19c .cfa: sp 80 +
STACK CFI 3f1ac .cfa: sp 0 +
STACK CFI 3f1b0 .cfa: x29 48 +
STACK CFI INIT 4129c 50 .cfa: sp 0 +
STACK CFI 412a0 .cfa: sp 32 +
STACK CFI 412a8 .cfa: x29 32 + x19: .cfa -16 + ^ .ra: .cfa -24 + ^ x29: .cfa -32 + ^
STACK CFI 412c0 .cfa: sp 32 +
STACK CFI 412c8 .cfa: sp 0 +
STACK CFI 412cc .cfa: x29 32 +
STACK CFI 412e0 .cfa: sp 32 +
STACK CFI 412e8 .cfa: sp 0 +
STACK CFI INIT 42ed0 50 .cfa: sp 0 +
STACK CFI 42ed4 .cfa: sp 32 +
STACK CFI 42edc .cfa: x29 32 + x19: .cfa -16 + ^ .ra: .cfa -24 + ^ x29: .cfa -32 + ^
STACK CFI 42ef4 .cfa: sp 32 +
STACK CFI 42efc .cfa: sp 0 +
STACK CFI 42f00 .cfa: x29 32 +
STACK CFI 42f14 .cfa: sp 32 +
STACK CFI 42f1c .cfa: sp 0 +
STACK CFI INIT 43058 44 .cfa: sp 0 +
STACK CFI 4305c .cfa: sp 32 +
STACK CFI 43064 .cfa: x29 32 + x19: .cfa -16 + ^ .ra: .cfa -24 + ^ x29: .cfa -32 + ^
STACK CFI 43080 .cfa: sp 32 +
STACK CFI 43088 .cfa: sp 0 +
STACK CFI 4308c .cfa: x29 32 +
STACK CFI 43090 .cfa: sp 32 +
STACK CFI 43098 .cfa: sp 0 +
STACK CFI INIT 445a0 60 .cfa: sp 0 +
STACK CFI 445a4 .cfa: sp 32 +
STACK CFI 445ac .cfa: x29 32 + x19: .cfa -8 + ^ x20: .cfa -16 + ^ .ra: .cfa -24 + ^ x29: .cfa -32 + ^
STACK CFI 445cc .cfa: sp 32 +
STACK CFI 445d4 .cfa: sp 0 +
STACK CFI 445d8 .cfa: x29 32 +
STACK CFI 445f4 .cfa: sp 32 +
STACK CFI 445fc .cfa: sp 0 +
STACK CFI INIT 45864 144 .cfa: sp 0 +
STACK CFI 45868 .cfa: sp 80 +
STACK CFI 4587c .cfa: x29 64 + x19: .cfa -8 + ^ x20: .cfa -16 + ^ x21: .cfa -24 + ^ x22: .cfa -32 + ^ x23: .cfa -48 + ^ .ra: .cfa -56 + ^ x29: .cfa -64 + ^
STACK CFI 4598c .cfa: sp 80 +
STACK CFI 459a0 .cfa: sp 0 +
STACK CFI 459a4 .cfa: x29 64 +
STACK CFI INIT 46984 2a8 .cfa: sp 0 +
STACK CFI 46998 .cfa: sp 64 +
STACK CFI 469a8 .cfa: x29 64 + x19: .cfa -8 + ^ x20: .cfa -16 + ^ x21: .cfa -24 + ^ x22: .cfa -32 + ^ x23: .cfa -40 + ^ x24: .cfa -48 + ^ .ra: .cfa -56 + ^ x29: .cfa -64 + ^
STACK CFI 46c18 .cfa: sp 64 +
STACK CFI 46c28 .cfa: sp 0 +
STACK CFI INIT 46d60 364 .cfa: sp 0 +
STACK CFI 46d64 .cfa: sp 144 +
STACK CFI 46d80 .cfa: x29 80 + x19: .cfa -8 + ^ x20: .cfa -16 + ^ x21: .cfa -24 + ^ x22: .cfa -32 + ^ x23: .cfa -40 + ^ x24: .cfa -48 + ^ x25: .cfa -64 + ^ .ra: .cfa -72 + ^ x29: .cfa -80 + ^ v8: .cfa -88 + ^ v9: .cfa -96 + ^
STACK CFI 47074 .cfa: sp 144 +
STACK CFI 47090 .cfa: sp 0 +
STACK CFI 47094 .cfa: x29 80 +
STACK CFI INIT 472b0 14 .cfa: sp 0 +
STACK CFI 472b4 .cfa: sp 16 +
STACK CFI 472b8 .cfa: x29 16 + .ra: .cfa -8 + ^ x29: .cfa -16 + ^
STACK CFI INIT 47314 30 .cfa: sp 0 +
STACK CFI 47318 .cfa: sp 32 +
STACK CFI 47320 .cfa: x29 32 + x19: .cfa -16 + ^ .ra: .cfa -24 + ^ x29: .cfa -32 + ^
STACK CFI 47338 .cfa: sp 32 +
STACK CFI 47340 .cfa: sp 0 +
STACK CFI INIT 47344 34 .cfa: sp 0 +
STACK CFI 47348 .cfa: sp 32 +
STACK CFI 47350 .cfa: x29 32 + x19: .cfa -16 + ^ .ra: .cfa -24 + ^ x29: .cfa -32 + ^
STACK CFI INIT 47378 10 .cfa: sp 0 +
STACK CFI 4737c .cfa: sp 16 +
STACK CFI 47380 .cfa: x29 16 + .ra: .cfa -8 + ^ x29: .cfa -16 + ^
STACK CFI INIT 47388 14 .cfa: sp 0 +
STACK CFI 4738c .cfa: sp 16 +
STACK CFI 47390 .cfa: x29 16 + .ra: .cfa -8 + ^ x29: .cfa -16 + ^
STACK CFI INIT 4739c 14 .cfa: sp 0 +
STACK CFI 473a0 .cfa: sp 16 +
STACK CFI 473a4 .cfa: x29 16 + .ra: .cfa -8 + ^ x29: .cfa -16 + ^
STACK CFI INIT 473b0 80 .cfa: sp 0 +
STACK CFI 473b4 .cfa: sp 48 +
STACK CFI 473c0 .cfa: x29 48 + x19: .cfa -8 + ^ x20: .cfa -16 + ^ x21: .cfa -24 + ^ x22: .cfa -32 + ^ .ra: .cfa -40 + ^ x29: .cfa -48 + ^
STACK CFI 473d8 .cfa: sp 48 +
STACK CFI 473e4 .cfa: sp 0 +
STACK CFI 473e8 .cfa: x29 48 +
STACK CFI 47418 .cfa: sp 48 +
STACK CFI 47424 .cfa: sp 0 +
STACK CFI 47428 .cfa: x29 48 +
STACK CFI INIT 47430 14 .cfa: sp 0 +
STACK CFI 47434 .cfa: sp 16 +
STACK CFI 47438 .cfa: x29 16 + .ra: .cfa -8 + ^ x29: .cfa -16 + ^
STACK CFI INIT 47494 30 .cfa: sp 0 +
STACK CFI 47498 .cfa: sp 32 +
STACK CFI 474a0 .cfa: x29 32 + x19: .cfa -16 + ^ .ra: .cfa -24 + ^ x29: .cfa -32 + ^
STACK CFI 474b8 .cfa: sp 32 +
STACK CFI 474c0 .cfa: sp 0 +
STACK CFI INIT 474c4 50 .cfa: sp 0 +
STACK CFI 474c8 .cfa: sp 32 +
STACK CFI 474d0 .cfa: x29 32 + x19: .cfa -16 + ^ .ra: .cfa -24 + ^ x29: .cfa -32 + ^
STACK CFI 474e8 .cfa: sp 32 +
STACK CFI 474f0 .cfa: sp 0 +
STACK CFI 474f4 .cfa: x29 32 +
STACK CFI 47508 .cfa: sp 32 +
STACK CFI 47510 .cfa: sp 0 +
STACK CFI INIT 47514 14 .cfa: sp 0 +
STACK CFI 47518 .cfa: sp 16 +
STACK CFI 4751c .cfa: x29 16 + .ra: .cfa -8 + ^ x29: .cfa -16 + ^
STACK CFI INIT 47528 30 .cfa: sp 0 +
STACK CFI INIT 47f24 188 .cfa: sp 0 +
STACK CFI 47f28 .cfa: sp 80 +
STACK CFI 47f3c .cfa: x29 80 + x19: .cfa -8 + ^ x20: .cfa -16 + ^ x21: .cfa -24 + ^ x22: .cfa -32 + ^ x23: .cfa -40 + ^ x24: .cfa -48 + ^ x25: .cfa -64 + ^ .ra: .cfa -72 + ^ x29: .cfa -80 + ^
STACK CFI 48090 .cfa: sp 80 +
STACK CFI 480a4 .cfa: sp 0 +
STACK CFI 480a8 .cfa: x29 80 +
STACK CFI INIT 480ac 18c .cfa: sp 0 +
STACK CFI 480b0 .cfa: sp 64 +
STACK CFI 480c0 .cfa: x29 64 + x19: .cfa -8 + ^ x20: .cfa -16 + ^ x21: .cfa -24 + ^ x22: .cfa -32 + ^ x23: .cfa -40 + ^ x24: .cfa -48 + ^ .ra: .cfa -56 + ^ x29: .cfa -64 + ^
STACK CFI 48220 .cfa: sp 64 +
STACK CFI 48230 .cfa: sp 0 +
STACK CFI 48234 .cfa: x29 64 +
STACK CFI INIT 48304 50 .cfa: sp 0 +
STACK CFI 48308 .cfa: sp 32 +
STACK CFI 48310 .cfa: x29 32 + x19: .cfa -8 + ^ x20: .cfa -16 + ^ .ra: .cfa -24 + ^ x29: .cfa -32 + ^
STACK CFI 4833c .cfa: sp 32 +
STACK CFI 48344 .cfa: sp 0 +
STACK CFI 48348 .cfa: sp 32 +
STACK CFI 48350 .cfa: sp 0 +
STACK CFI INIT 48354 3c .cfa: sp 0 +
STACK CFI 48358 .cfa: sp 32 +
STACK CFI 48360 .cfa: x29 32 + x19: .cfa -16 + ^ .ra: .cfa -24 + ^ x29: .cfa -32 + ^
STACK CFI 48378 .cfa: sp 32 +
STACK CFI 48380 .cfa: sp 0 +
STACK CFI 48384 .cfa: sp 32 +
STACK CFI 4838c .cfa: sp 0 +
STACK CFI INIT 48390 50 .cfa: sp 0 +
STACK CFI 48394 .cfa: sp 32 +
STACK CFI 4839c .cfa: x29 32 + x19: .cfa -16 + ^ .ra: .cfa -24 + ^ x29: .cfa -32 + ^
STACK CFI 483b4 .cfa: sp 32 +
STACK CFI 483bc .cfa: sp 0 +
STACK CFI 483c0 .cfa: x29 32 +
STACK CFI 483d4 .cfa: sp 32 +
STACK CFI 483dc .cfa: sp 0 +
STACK CFI INIT 483e0 104 .cfa: sp 0 +
STACK CFI 483e4 .cfa: sp 64 +
STACK CFI 483f4 .cfa: x29 64 + x19: .cfa -8 + ^ x20: .cfa -16 + ^ x21: .cfa -24 + ^ x22: .cfa -32 + ^ x23: .cfa -48 + ^ .ra: .cfa -56 + ^ x29: .cfa -64 + ^
STACK CFI 48450 .cfa: sp 64 +
STACK CFI 48460 .cfa: sp 0 +
STACK CFI 48464 .cfa: x29 64 +
STACK CFI 48480 .cfa: sp 64 +
STACK CFI 48490 .cfa: sp 0 +
STACK CFI 48494 .cfa: x29 64 +
STACK CFI 484d0 .cfa: sp 64 +
STACK CFI 484e0 .cfa: sp 0 +
STACK CFI INIT 484e4 4 .cfa: sp 0 +
STACK CFI INIT 484e8 4 .cfa: sp 0 +
STACK CFI INIT 484ec 34 .cfa: sp 0 +
STACK CFI 484f0 .cfa: sp 32 +
STACK CFI 484f8 .cfa: x29 32 + x19: .cfa -16 + ^ .ra: .cfa -24 + ^ x29: .cfa -32 + ^
STACK CFI 48514 .cfa: sp 32 +
STACK CFI 4851c .cfa: sp 0 +
STACK CFI INIT 48520 14 .cfa: sp 0 +
STACK CFI INIT 48534 4 .cfa: sp 0 +
STACK CFI INIT 48538 4 .cfa: sp 0 +
STACK CFI INIT 4853c 28 .cfa: sp 0 +
STACK CFI 48540 .cfa: sp 32 +
STACK CFI 48548 .cfa: x29 32 + x19: .cfa -16 + ^ .ra: .cfa -24 + ^ x29: .cfa -32 + ^
STACK CFI 48558 .cfa: sp 32 +
STACK CFI 48560 .cfa: sp 0 +
STACK CFI INIT 48564 1c .cfa: sp 0 +
STACK CFI INIT 48580 c .cfa: sp 0 +
STACK CFI INIT 4858c 24 .cfa: sp 0 +
STACK CFI 48590 .cfa: sp 32 +
STACK CFI 48598 .cfa: x29 32 + x19: .cfa -16 + ^ .ra: .cfa -24 + ^ x29: .cfa -32 + ^
STACK CFI 485a4 .cfa: sp 32 +
STACK CFI 485ac .cfa: sp 0 +
STACK CFI INIT 485b0 10 .cfa: sp 0 +
STACK CFI INIT 485c0 30 .cfa: sp 0 +
STACK CFI 485c4 .cfa: sp 32 +
STACK CFI 485cc .cfa: x29 32 + x19: .cfa -16 + ^ .ra: .cfa -24 + ^ x29: .cfa -32 + ^
STACK CFI 485e4 .cfa: sp 32 +
STACK CFI 485ec .cfa: sp 0 +
STACK CFI INIT 48664 4 .cfa: sp 0 +
STACK CFI INIT 48668 5c .cfa: sp 0 +
STACK CFI 4866c .cfa: sp 32 +
STACK CFI 48674 .cfa: x29 32 + x19: .cfa -16 + ^ .ra: .cfa -24 + ^ x29: .cfa -32 + ^
STACK CFI 48698 .cfa: sp 32 +
STACK CFI 486a0 .cfa: sp 0 +
STACK CFI 486a4 .cfa: x29 32 +
STACK CFI 486b8 .cfa: sp 32 +
STACK CFI 486c0 .cfa: sp 0 +
STACK CFI INIT 486c4 6c .cfa: sp 0 +
STACK CFI 486c8 .cfa: sp 32 +
STACK CFI 486d0 .cfa: x29 32 + x19: .cfa -8 + ^ x20: .cfa -16 + ^ .ra: .cfa -24 + ^ x29: .cfa -32 + ^
STACK CFI 486fc .cfa: sp 32 +
STACK CFI 48704 .cfa: sp 0 +
STACK CFI 48708 .cfa: x29 32 +
STACK CFI 48724 .cfa: sp 32 +
STACK CFI 4872c .cfa: sp 0 +
STACK CFI INIT 48730 58 .cfa: sp 0 +
STACK CFI 48734 .cfa: sp 32 +
STACK CFI 4873c .cfa: x29 32 + x19: .cfa -16 + ^ .ra: .cfa -24 + ^ x29: .cfa -32 + ^
STACK CFI 4877c .cfa: sp 32 +
STACK CFI 48784 .cfa: sp 0 +
STACK CFI INIT 48788 3c .cfa: sp 0 +
STACK CFI 487ac .cfa: sp 16 +
STACK CFI 487b0 .cfa: x29 16 + .ra: .cfa -8 + ^ x29: .cfa -16 + ^
STACK CFI 487bc .cfa: sp 16 +
STACK CFI 487c0 .cfa: sp 0 +
STACK CFI INIT 487c4 50 .cfa: sp 0 +
STACK CFI 487c8 .cfa: sp 32 +
STACK CFI 487d0 .cfa: x29 32 + x19: .cfa -16 + ^ .ra: .cfa -24 + ^ x29: .cfa -32 + ^
STACK CFI 487e8 .cfa: sp 32 +
STACK CFI 487f0 .cfa: sp 0 +
STACK CFI 487f4 .cfa: x29 32 +
STACK CFI 48808 .cfa: sp 32 +
STACK CFI 48810 .cfa: sp 0 +
STACK CFI INIT 48814 60 .cfa: sp 0 +
STACK CFI 48818 .cfa: sp 32 +
STACK CFI 48820 .cfa: x29 32 + x19: .cfa -8 + ^ x20: .cfa -16 + ^ .ra: .cfa -24 + ^ x29: .cfa -32 + ^
STACK CFI 48840 .cfa: sp 32 +
STACK CFI 48848 .cfa: sp 0 +
STACK CFI 4884c .cfa: x29 32 +
STACK CFI 48868 .cfa: sp 32 +
STACK CFI 48870 .cfa: sp 0 +
STACK CFI INIT 48930 1c .cfa: sp 0 +
STACK CFI INIT 4894c c .cfa: sp 0 +
STACK CFI INIT 48958 5c .cfa: sp 0 +
STACK CFI 4895c .cfa: sp 32 +
STACK CFI 48964 .cfa: x29 32 + x19: .cfa -16 + ^ .ra: .cfa -24 + ^ x29: .cfa -32 + ^
STACK CFI 4899c .cfa: sp 32 +
STACK CFI 489a4 .cfa: sp 0 +
STACK CFI 489a8 .cfa: sp 32 +
STACK CFI 489b0 .cfa: sp 0 +
STACK CFI INIT 489b4 1b0 .cfa: sp 0 +
STACK CFI INIT 48b64 70 .cfa: sp 0 +
STACK CFI 48b6c .cfa: sp 32 +
STACK CFI 48b74 .cfa: x29 32 + x19: .cfa -16 + ^ .ra: .cfa -24 + ^ x29: .cfa -32 + ^
STACK CFI 48b9c .cfa: sp 32 +
STACK CFI 48ba4 .cfa: sp 0 +
STACK CFI 48bac .cfa: x29 32 +
STACK CFI 48bc8 .cfa: sp 32 +
STACK CFI 48bd0 .cfa: sp 0 +
STACK CFI INIT 48bd4 168 .cfa: sp 0 +
STACK CFI 48bd8 .cfa: sp 80 +
STACK CFI 48bec .cfa: x29 80 + x19: .cfa -8 + ^ x20: .cfa -16 + ^ x21: .cfa -24 + ^ x22: .cfa -32 + ^ x23: .cfa -40 + ^ x24: .cfa -48 + ^ x25: .cfa -56 + ^ x26: .cfa -64 + ^ .ra: .cfa -72 + ^ x29: .cfa -80 + ^
STACK CFI 48d24 .cfa: sp 80 +
STACK CFI 48d38 .cfa: sp 0 +
STACK CFI INIT 48d3c 5c .cfa: sp 0 +
STACK CFI 48d40 .cfa: sp 32 +
STACK CFI 48d48 .cfa: x29 32 + x19: .cfa -16 + ^ .ra: .cfa -24 + ^ x29: .cfa -32 + ^
STACK CFI 48d6c .cfa: sp 32 +
STACK CFI 48d74 .cfa: sp 0 +
STACK CFI 48d78 .cfa: x29 32 +
STACK CFI 48d8c .cfa: sp 32 +
STACK CFI 48d94 .cfa: sp 0 +
STACK CFI INIT 48d98 6c .cfa: sp 0 +
STACK CFI 48d9c .cfa: sp 32 +
STACK CFI 48da4 .cfa: x29 32 + x19: .cfa -8 + ^ x20: .cfa -16 + ^ .ra: .cfa -24 + ^ x29: .cfa -32 + ^
STACK CFI 48dd0 .cfa: sp 32 +
STACK CFI 48dd8 .cfa: sp 0 +
STACK CFI 48ddc .cfa: x29 32 +
STACK CFI 48df8 .cfa: sp 32 +
STACK CFI 48e00 .cfa: sp 0 +
STACK CFI INIT 48e04 58 .cfa: sp 0 +
STACK CFI 48e08 .cfa: sp 32 +
STACK CFI 48e10 .cfa: x29 32 + x19: .cfa -8 + ^ x20: .cfa -16 + ^ .ra: .cfa -24 + ^ x29: .cfa -32 + ^
STACK CFI 48e50 .cfa: sp 32 +
STACK CFI 48e58 .cfa: sp 0 +
STACK CFI INIT 48e5c 4c .cfa: sp 0 +
STACK CFI 48e60 .cfa: sp 32 +
STACK CFI 48e68 .cfa: x29 32 + x19: .cfa -8 + ^ x20: .cfa -16 + ^ .ra: .cfa -24 + ^ x29: .cfa -32 + ^
STACK CFI 48e9c .cfa: sp 32 +
STACK CFI 48ea4 .cfa: sp 0 +
STACK CFI INIT 48ea8 50 .cfa: sp 0 +
STACK CFI 48eac .cfa: sp 32 +
STACK CFI 48eb4 .cfa: x29 32 + x19: .cfa -16 + ^ .ra: .cfa -24 + ^ x29: .cfa -32 + ^
STACK CFI 48ecc .cfa: sp 32 +
STACK CFI 48ed4 .cfa: sp 0 +
STACK CFI 48ed8 .cfa: x29 32 +
STACK CFI 48eec .cfa: sp 32 +
STACK CFI 48ef4 .cfa: sp 0 +
STACK CFI INIT 48ef8 60 .cfa: sp 0 +
STACK CFI 48efc .cfa: sp 32 +
STACK CFI 48f04 .cfa: x29 32 + x19: .cfa -8 + ^ x20: .cfa -16 + ^ .ra: .cfa -24 + ^ x29: .cfa -32 + ^
STACK CFI 48f24 .cfa: sp 32 +
STACK CFI 48f2c .cfa: sp 0 +
STACK CFI 48f30 .cfa: x29 32 +
STACK CFI 48f4c .cfa: sp 32 +
STACK CFI 48f54 .cfa: sp 0 +
STACK CFI INIT 49154 1c .cfa: sp 0 +
STACK CFI INIT 49170 c .cfa: sp 0 +
STACK CFI INIT 4988c 26c .cfa: sp 0 +
STACK CFI 49890 .cfa: sp 112 +
STACK CFI 498ac .cfa: x29 96 + x19: .cfa -8 + ^ x20: .cfa -16 + ^ x21: .cfa -24 + ^ x22: .cfa -32 + ^ x23: .cfa -40 + ^ x24: .cfa -48 + ^ x25: .cfa -56 + ^ x26: .cfa -64 + ^ x27: .cfa -72 + ^ x28: .cfa -80 + ^ .ra: .cfa -88 + ^ x29: .cfa -96 + ^
STACK CFI 49ad8 .cfa: sp 112 +
STACK CFI 49af4 .cfa: sp 0 +
STACK CFI INIT 49af8 1a8 .cfa: sp 0 +
STACK CFI 49afc .cfa: sp 64 +
STACK CFI 49b0c .cfa: x29 64 + x19: .cfa -8 + ^ x20: .cfa -16 + ^ x21: .cfa -24 + ^ x22: .cfa -32 + ^ x23: .cfa -48 + ^ .ra: .cfa -56 + ^ x29: .cfa -64 + ^
STACK CFI 49b90 .cfa: sp 64 +
STACK CFI 49ba0 .cfa: sp 0 +
STACK CFI 49ba4 .cfa: x29 64 +
STACK CFI 49bac .cfa: sp 64 +
STACK CFI 49bbc .cfa: sp 0 +
STACK CFI 49bc0 .cfa: x29 64 +
STACK CFI 49c88 .cfa: sp 64 +
STACK CFI 49c98 .cfa: sp 0 +
STACK CFI 49c9c .cfa: x29 64 +
STACK CFI INIT 49ca0 170 .cfa: sp 0 +
STACK CFI 49ca4 .cfa: sp 96 +
STACK CFI 49cbc .cfa: x29 96 + x19: .cfa -8 + ^ x20: .cfa -16 + ^ x21: .cfa -24 + ^ x22: .cfa -32 + ^ x23: .cfa -40 + ^ x24: .cfa -48 + ^ x25: .cfa -56 + ^ x26: .cfa -64 + ^ x27: .cfa -80 + ^ .ra: .cfa -88 + ^ x29: .cfa -96 + ^
STACK CFI 49df0 .cfa: sp 96 +
STACK CFI 49e08 .cfa: sp 0 +
STACK CFI 49e0c .cfa: x29 96 +
STACK CFI INIT 49e5c 4 .cfa: sp 0 +
STACK CFI INIT 49e60 c .cfa: sp 0 +
STACK CFI INIT 49e6c 4 .cfa: sp 0 +
STACK CFI INIT 49e70 4 .cfa: sp 0 +
STACK CFI INIT 49e74 24 .cfa: sp 0 +
STACK CFI 49e78 .cfa: sp 32 +
STACK CFI 49e80 .cfa: x29 32 + x19: .cfa -16 + ^ .ra: .cfa -24 + ^ x29: .cfa -32 + ^
STACK CFI 49e8c .cfa: sp 32 +
STACK CFI 49e94 .cfa: sp 0 +
STACK CFI INIT 49e98 18 .cfa: sp 0 +
STACK CFI INIT 49eb0 1c .cfa: sp 0 +
STACK CFI INIT 49ecc 4 .cfa: sp 0 +
STACK CFI INIT 49ed0 48 .cfa: sp 0 +
STACK CFI 49eec .cfa: sp 32 +
STACK CFI 49ef4 .cfa: x29 32 + x19: .cfa -16 + ^ .ra: .cfa -24 + ^ x29: .cfa -32 + ^
STACK CFI 49f0c .cfa: sp 32 +
STACK CFI 49f14 .cfa: sp 0 +
STACK CFI INIT 49f18 14 .cfa: sp 0 +
STACK CFI INIT 49f2c 48 .cfa: sp 0 +
STACK CFI 49f48 .cfa: sp 32 +
STACK CFI 49f50 .cfa: x29 32 + x19: .cfa -16 + ^ .ra: .cfa -24 + ^ x29: .cfa -32 + ^
STACK CFI 49f68 .cfa: sp 32 +
STACK CFI 49f70 .cfa: sp 0 +
STACK CFI INIT 4a91c 3f4 .cfa: sp 0 +
STACK CFI 4a920 .cfa: sp 32 +
STACK CFI 4a928 .cfa: x29 32 + x19: .cfa -16 + ^ .ra: .cfa -24 + ^ x29: .cfa -32 + ^
STACK CFI 4aa74 .cfa: sp 32 +
STACK CFI 4aa7c .cfa: sp 0 +
STACK CFI 4aa80 .cfa: x29 32 +
STACK CFI 4aa88 .cfa: sp 32 +
STACK CFI 4aa90 .cfa: sp 0 +
STACK CFI 4aa94 .cfa: x29 32 +
STACK CFI 4aad0 .cfa: sp 32 +
STACK CFI 4aad8 .cfa: sp 0 +
STACK CFI 4aadc .cfa: x29 32 +
STACK CFI 4ab18 .cfa: sp 32 +
STACK CFI 4ab20 .cfa: sp 0 +
STACK CFI 4ab24 .cfa: x29 32 +
STACK CFI 4ab50 .cfa: sp 32 +
STACK CFI 4ab58 .cfa: sp 0 +
STACK CFI 4ab5c .cfa: x29 32 +
STACK CFI 4ab78 .cfa: sp 32 +
STACK CFI 4ab80 .cfa: sp 0 +
STACK CFI 4ab84 .cfa: x29 32 +
STACK CFI 4abe8 .cfa: sp 32 +
STACK CFI 4abf0 .cfa: sp 0 +
STACK CFI 4abf4 .cfa: x29 32 +
STACK CFI 4acc4 .cfa: sp 32 +
STACK CFI 4accc .cfa: sp 0 +
STACK CFI 4acd0 .cfa: x29 32 +
STACK CFI 4acfc .cfa: sp 32 +
STACK CFI 4ad04 .cfa: sp 0 +
STACK CFI 4ad08 .cfa: x29 32 +
STACK CFI INIT 4ad7c b4 .cfa: sp 0 +
STACK CFI 4ad80 .cfa: sp 64 +
STACK CFI 4ad90 .cfa: x29 64 + x19: .cfa -8 + ^ x20: .cfa -16 + ^ x21: .cfa -24 + ^ x22: .cfa -32 + ^ x23: .cfa -48 + ^ .ra: .cfa -56 + ^ x29: .cfa -64 + ^
STACK CFI 4ae1c .cfa: sp 64 +
STACK CFI 4ae2c .cfa: sp 0 +
STACK CFI INIT 4ae7c 48 .cfa: sp 0 +
STACK CFI 4ae98 .cfa: sp 32 +
STACK CFI 4aea0 .cfa: x29 32 + x19: .cfa -16 + ^ .ra: .cfa -24 + ^ x29: .cfa -32 + ^
STACK CFI 4aeb8 .cfa: sp 32 +
STACK CFI 4aec0 .cfa: sp 0 +
STACK CFI INIT 4aec4 64 .cfa: sp 0 +
STACK CFI INIT 4af28 48 .cfa: sp 0 +
STACK CFI 4af44 .cfa: sp 32 +
STACK CFI 4af4c .cfa: x29 32 + x19: .cfa -16 + ^ .ra: .cfa -24 + ^ x29: .cfa -32 + ^
STACK CFI 4af64 .cfa: sp 32 +
STACK CFI 4af6c .cfa: sp 0 +
STACK CFI INIT 4af70 54 .cfa: sp 0 +
STACK CFI INIT 4afc4 5c .cfa: sp 0 +
STACK CFI 4afc8 .cfa: sp 32 +
STACK CFI 4afd0 .cfa: x29 32 + x19: .cfa -16 + ^ .ra: .cfa -24 + ^ x29: .cfa -32 + ^
STACK CFI 4b008 .cfa: sp 32 +
STACK CFI 4b010 .cfa: sp 0 +
STACK CFI 4b014 .cfa: sp 32 +
STACK CFI 4b01c .cfa: sp 0 +
STACK CFI INIT 4b020 58 .cfa: sp 0 +
STACK CFI 4b024 .cfa: sp 32 +
STACK CFI 4b02c .cfa: x29 32 + x19: .cfa -16 + ^ .ra: .cfa -24 + ^ x29: .cfa -32 + ^
STACK CFI 4b06c .cfa: sp 32 +
STACK CFI 4b074 .cfa: sp 0 +
STACK CFI INIT 4b078 110 .cfa: sp 0 +
STACK CFI INIT 4b188 90 .cfa: sp 0 +
STACK CFI 4b18c .cfa: sp 32 +
STACK CFI 4b194 .cfa: x29 32 + x19: .cfa -8 + ^ x20: .cfa -16 + ^ .ra: .cfa -24 + ^ x29: .cfa -32 + ^
STACK CFI 4b200 .cfa: sp 32 +
STACK CFI 4b208 .cfa: sp 0 +
STACK CFI 4b20c .cfa: sp 32 +
STACK CFI 4b214 .cfa: sp 0 +
STACK CFI INIT 4b218 8c .cfa: sp 0 +
STACK CFI 4b21c .cfa: sp 32 +
STACK CFI 4b224 .cfa: x29 32 + x19: .cfa -8 + ^ x20: .cfa -16 + ^ .ra: .cfa -24 + ^ x29: .cfa -32 + ^
STACK CFI 4b298 .cfa: sp 32 +
STACK CFI 4b2a0 .cfa: sp 0 +
STACK CFI INIT 4b8c4 1d0 .cfa: sp 0 +
STACK CFI 4b8c8 .cfa: sp 48 +
STACK CFI 4b8d4 .cfa: x29 48 + x19: .cfa -8 + ^ x20: .cfa -16 + ^ x21: .cfa -24 + ^ x22: .cfa -32 + ^ .ra: .cfa -40 + ^ x29: .cfa -48 + ^
STACK CFI 4ba64 .cfa: sp 48 +
STACK CFI 4ba70 .cfa: sp 0 +
STACK CFI 4ba74 .cfa: x29 48 +
STACK CFI 4ba80 .cfa: sp 48 +
STACK CFI 4ba8c .cfa: sp 0 +
STACK CFI 4ba90 .cfa: x29 48 +
STACK CFI INIT 4ba94 14 .cfa: sp 0 +
STACK CFI 4ba98 .cfa: sp 16 +
STACK CFI 4ba9c .cfa: x29 16 + .ra: .cfa -8 + ^ x29: .cfa -16 + ^
STACK CFI INIT 4baa8 44 .cfa: sp 0 +
STACK CFI 4baac .cfa: sp 32 +
STACK CFI 4bab4 .cfa: x29 32 + x19: .cfa -16 + ^ .ra: .cfa -24 + ^ x29: .cfa -32 + ^
STACK CFI 4bad4 .cfa: sp 32 +
STACK CFI 4badc .cfa: sp 0 +
STACK CFI 4bae0 .cfa: sp 32 +
STACK CFI 4bae8 .cfa: sp 0 +
STACK CFI INIT 4bcf4 98 .cfa: sp 0 +
STACK CFI 4bcf8 .cfa: sp 48 +
STACK CFI 4bd04 .cfa: x29 48 + x19: .cfa -8 + ^ x20: .cfa -16 + ^ x21: .cfa -32 + ^ .ra: .cfa -40 + ^ x29: .cfa -48 + ^
STACK CFI 4bd24 .cfa: sp 48 +
STACK CFI 4bd30 .cfa: sp 0 +
STACK CFI 4bd34 .cfa: x29 48 +
STACK CFI 4bd6c .cfa: sp 48 +
STACK CFI 4bd78 .cfa: sp 0 +
STACK CFI 4bd7c .cfa: sp 48 +
STACK CFI 4bd88 .cfa: sp 0 +
STACK CFI INIT 4bd8c 1dc .cfa: sp 0 +
STACK CFI 4bd90 .cfa: sp 48 +
STACK CFI 4bd9c .cfa: x29 48 + x19: .cfa -8 + ^ x20: .cfa -16 + ^ x21: .cfa -24 + ^ x22: .cfa -32 + ^ .ra: .cfa -40 + ^ x29: .cfa -48 + ^
STACK CFI 4bf50 .cfa: sp 48 +
STACK CFI 4bf5c .cfa: sp 0 +
STACK CFI 4bf60 .cfa: x29 48 +
STACK CFI INIT 4bf68 14 .cfa: sp 0 +
STACK CFI 4bf6c .cfa: sp 16 +
STACK CFI 4bf70 .cfa: x29 16 + .ra: .cfa -8 + ^ x29: .cfa -16 + ^
STACK CFI INIT 4bf7c 1a8 .cfa: sp 0 +
STACK CFI 4bf80 .cfa: sp 64 +
STACK CFI 4bf90 .cfa: x29 64 + x19: .cfa -8 + ^ x20: .cfa -16 + ^ x21: .cfa -24 + ^ x22: .cfa -32 + ^ x23: .cfa -40 + ^ x24: .cfa -48 + ^ .ra: .cfa -56 + ^ x29: .cfa -64 + ^
STACK CFI 4c0f4 .cfa: sp 64 +
STACK CFI 4c104 .cfa: sp 0 +
STACK CFI 4c108 .cfa: sp 64 +
STACK CFI 4c118 .cfa: sp 0 +
STACK CFI 4c11c .cfa: x29 64 +
STACK CFI INIT 4c124 12c .cfa: sp 0 +
STACK CFI 4c128 .cfa: sp 64 +
STACK CFI 4c138 .cfa: x29 64 + x19: .cfa -8 + ^ x20: .cfa -16 + ^ x21: .cfa -24 + ^ x22: .cfa -32 + ^ x23: .cfa -40 + ^ x24: .cfa -48 + ^ .ra: .cfa -56 + ^ x29: .cfa -64 + ^
STACK CFI 4c220 .cfa: sp 64 +
STACK CFI 4c230 .cfa: sp 0 +
STACK CFI 4c234 .cfa: sp 64 +
STACK CFI 4c244 .cfa: sp 0 +
STACK CFI 4c248 .cfa: x29 64 +
STACK CFI INIT 4c250 14 .cfa: sp 0 +
STACK CFI 4c254 .cfa: sp 16 +
STACK CFI 4c258 .cfa: x29 16 + .ra: .cfa -8 + ^ x29: .cfa -16 + ^
STACK CFI INIT 4d3a4 48 .cfa: sp 0 +
STACK CFI 4d3c0 .cfa: sp 32 +
STACK CFI 4d3c8 .cfa: x29 32 + x19: .cfa -16 + ^ .ra: .cfa -24 + ^ x29: .cfa -32 + ^
STACK CFI 4d3e0 .cfa: sp 32 +
STACK CFI 4d3e8 .cfa: sp 0 +
STACK CFI INIT 4d438 50c .cfa: sp 0 +
STACK CFI 4d43c .cfa: sp 32 +
STACK CFI 4d444 .cfa: x29 32 + x19: .cfa -16 + ^ .ra: .cfa -24 + ^ x29: .cfa -32 + ^
STACK CFI 4d58c .cfa: sp 32 +
STACK CFI 4d594 .cfa: sp 0 +
STACK CFI 4d598 .cfa: x29 32 +
STACK CFI 4d708 .cfa: sp 32 +
STACK CFI 4d710 .cfa: sp 0 +
STACK CFI 4d714 .cfa: x29 32 +
STACK CFI 4d730 .cfa: sp 32 +
STACK CFI 4d738 .cfa: sp 0 +
STACK CFI 4d73c .cfa: x29 32 +
STACK CFI 4d798 .cfa: sp 32 +
STACK CFI 4d7a0 .cfa: sp 0 +
STACK CFI 4d7a4 .cfa: x29 32 +
STACK CFI 4d7c0 .cfa: sp 32 +
STACK CFI 4d7c8 .cfa: sp 0 +
STACK CFI 4d7cc .cfa: x29 32 +
STACK CFI 4d7e8 .cfa: sp 32 +
STACK CFI 4d7f0 .cfa: sp 0 +
STACK CFI 4d7f4 .cfa: x29 32 +
STACK CFI 4d810 .cfa: sp 32 +
STACK CFI 4d818 .cfa: sp 0 +
STACK CFI 4d81c .cfa: x29 32 +
STACK CFI 4d834 .cfa: sp 32 +
STACK CFI 4d83c .cfa: sp 0 +
STACK CFI 4d840 .cfa: x29 32 +
STACK CFI 4d85c .cfa: sp 32 +
STACK CFI 4d864 .cfa: sp 0 +
STACK CFI 4d868 .cfa: x29 32 +
STACK CFI 4d884 .cfa: sp 32 +
STACK CFI 4d88c .cfa: sp 0 +
STACK CFI 4d890 .cfa: x29 32 +
STACK CFI 4d8ac .cfa: sp 32 +
STACK CFI 4d8b4 .cfa: sp 0 +
STACK CFI 4d8b8 .cfa: x29 32 +
STACK CFI 4d90c .cfa: sp 32 +
STACK CFI 4d914 .cfa: sp 0 +
STACK CFI 4d918 .cfa: x29 32 +
STACK CFI 4d934 .cfa: sp 32 +
STACK CFI 4d93c .cfa: sp 0 +
STACK CFI 4d940 .cfa: x29 32 +
STACK CFI INIT 4dad0 c8 .cfa: sp 0 +
STACK CFI 4dad4 .cfa: sp 48 +
STACK CFI 4dae0 .cfa: x29 48 + x19: .cfa -8 + ^ x20: .cfa -16 + ^ x21: .cfa -32 + ^ .ra: .cfa -40 + ^ x29: .cfa -48 + ^
STACK CFI 4db88 .cfa: sp 48 +
STACK CFI 4db94 .cfa: sp 0 +
STACK CFI INIT 4db98 5c .cfa: sp 0 +
STACK CFI 4db9c .cfa: sp 32 +
STACK CFI 4dba4 .cfa: x29 32 + x19: .cfa -16 + ^ .ra: .cfa -24 + ^ x29: .cfa -32 + ^
STACK CFI 4dbdc .cfa: sp 32 +
STACK CFI 4dbe4 .cfa: sp 0 +
STACK CFI 4dbe8 .cfa: sp 32 +
STACK CFI 4dbf0 .cfa: sp 0 +
STACK CFI INIT 4dbf4 58 .cfa: sp 0 +
STACK CFI 4dbf8 .cfa: sp 32 +
STACK CFI 4dc00 .cfa: x29 32 + x19: .cfa -16 + ^ .ra: .cfa -24 + ^ x29: .cfa -32 + ^
STACK CFI 4dc40 .cfa: sp 32 +
STACK CFI 4dc48 .cfa: sp 0 +
STACK CFI INIT 4dc4c 80 .cfa: sp 0 +
STACK CFI 4dc50 .cfa: sp 32 +
STACK CFI 4dc58 .cfa: x29 32 + x19: .cfa -8 + ^ x20: .cfa -16 + ^ .ra: .cfa -24 + ^ x29: .cfa -32 + ^
STACK CFI 4dca8 .cfa: sp 32 +
STACK CFI 4dcb0 .cfa: sp 0 +
STACK CFI 4dcb4 .cfa: x29 32 +
STACK CFI 4dcc0 .cfa: sp 32 +
STACK CFI 4dcc8 .cfa: sp 0 +
STACK CFI INIT 4dccc 5c .cfa: sp 0 +
STACK CFI 4dcd0 .cfa: sp 32 +
STACK CFI 4dcd8 .cfa: x29 32 + x19: .cfa -16 + ^ .ra: .cfa -24 + ^ x29: .cfa -32 + ^
STACK CFI 4dd10 .cfa: sp 32 +
STACK CFI 4dd18 .cfa: sp 0 +
STACK CFI 4dd1c .cfa: sp 32 +
STACK CFI 4dd24 .cfa: sp 0 +
STACK CFI INIT 4dd28 58 .cfa: sp 0 +
STACK CFI 4dd2c .cfa: sp 32 +
STACK CFI 4dd34 .cfa: x29 32 + x19: .cfa -16 + ^ .ra: .cfa -24 + ^ x29: .cfa -32 + ^
STACK CFI 4dd74 .cfa: sp 32 +
STACK CFI 4dd7c .cfa: sp 0 +
STACK CFI INIT 4dd80 48 .cfa: sp 0 +
STACK CFI INIT 4ddc8 48 .cfa: sp 0 +
STACK CFI 4dde4 .cfa: sp 32 +
STACK CFI 4ddec .cfa: x29 32 + x19: .cfa -16 + ^ .ra: .cfa -24 + ^ x29: .cfa -32 + ^
STACK CFI 4de04 .cfa: sp 32 +
STACK CFI 4de0c .cfa: sp 0 +
STACK CFI INIT 4de10 48 .cfa: sp 0 +
STACK CFI INIT 4de58 5c .cfa: sp 0 +
STACK CFI 4de5c .cfa: sp 32 +
STACK CFI 4de64 .cfa: x29 32 + x19: .cfa -16 + ^ .ra: .cfa -24 + ^ x29: .cfa -32 + ^
STACK CFI 4de9c .cfa: sp 32 +
STACK CFI 4dea4 .cfa: sp 0 +
STACK CFI 4dea8 .cfa: sp 32 +
STACK CFI 4deb0 .cfa: sp 0 +
STACK CFI INIT 4deb4 58 .cfa: sp 0 +
STACK CFI 4deb8 .cfa: sp 32 +
STACK CFI 4dec0 .cfa: x29 32 + x19: .cfa -16 + ^ .ra: .cfa -24 + ^ x29: .cfa -32 + ^
STACK CFI 4df00 .cfa: sp 32 +
STACK CFI 4df08 .cfa: sp 0 +
STACK CFI INIT 4df0c f8 .cfa: sp 0 +
STACK CFI 4df10 .cfa: sp 64 +
STACK CFI 4df20 .cfa: x29 64 + x19: .cfa -8 + ^ x20: .cfa -16 + ^ x21: .cfa -24 + ^ x22: .cfa -32 + ^ x23: .cfa -40 + ^ x24: .cfa -48 + ^ .ra: .cfa -56 + ^ x29: .cfa -64 + ^
STACK CFI 4df64 .cfa: sp 64 +
STACK CFI 4df74 .cfa: sp 0 +
STACK CFI 4df78 .cfa: x29 64 +
STACK CFI 4dff0 .cfa: sp 64 +
STACK CFI 4e000 .cfa: sp 0 +
STACK CFI INIT 4e004 5c .cfa: sp 0 +
STACK CFI 4e008 .cfa: sp 32 +
STACK CFI 4e010 .cfa: x29 32 + x19: .cfa -16 + ^ .ra: .cfa -24 + ^ x29: .cfa -32 + ^
STACK CFI 4e048 .cfa: sp 32 +
STACK CFI 4e050 .cfa: sp 0 +
STACK CFI 4e054 .cfa: sp 32 +
STACK CFI 4e05c .cfa: sp 0 +
STACK CFI INIT 4e060 58 .cfa: sp 0 +
STACK CFI 4e064 .cfa: sp 32 +
STACK CFI 4e06c .cfa: x29 32 + x19: .cfa -16 + ^ .ra: .cfa -24 + ^ x29: .cfa -32 + ^
STACK CFI 4e0ac .cfa: sp 32 +
STACK CFI 4e0b4 .cfa: sp 0 +
STACK CFI INIT 4e0b8 90 .cfa: sp 0 +
STACK CFI INIT 4e148 48 .cfa: sp 0 +
STACK CFI 4e164 .cfa: sp 32 +
STACK CFI 4e16c .cfa: x29 32 + x19: .cfa -16 + ^ .ra: .cfa -24 + ^ x29: .cfa -32 + ^
STACK CFI 4e184 .cfa: sp 32 +
STACK CFI 4e18c .cfa: sp 0 +
STACK CFI INIT 4e190 d0 .cfa: sp 0 +
STACK CFI 4e194 .cfa: sp 48 +
STACK CFI 4e1a0 .cfa: x29 48 + x19: .cfa -8 + ^ x20: .cfa -16 + ^ x21: .cfa -24 + ^ x22: .cfa -32 + ^ .ra: .cfa -40 + ^ x29: .cfa -48 + ^
STACK CFI 4e224 .cfa: sp 48 +
STACK CFI 4e230 .cfa: sp 0 +
STACK CFI 4e234 .cfa: x29 48 +
STACK CFI 4e24c .cfa: sp 48 +
STACK CFI 4e258 .cfa: sp 0 +
STACK CFI 4e25c .cfa: x29 48 +
STACK CFI INIT 4e260 4b0 .cfa: sp 0 +
STACK CFI 4e264 .cfa: sp 80 +
STACK CFI 4e278 .cfa: x29 80 + x19: .cfa -8 + ^ x20: .cfa -16 + ^ x21: .cfa -24 + ^ x22: .cfa -32 + ^ x23: .cfa -40 + ^ x24: .cfa -48 + ^ x25: .cfa -64 + ^ .ra: .cfa -72 + ^ x29: .cfa -80 + ^
STACK CFI 4e2ac .cfa: sp 80 +
STACK CFI 4e2c0 .cfa: sp 0 +
STACK CFI 4e2c4 .cfa: x29 80 +
STACK CFI 4e684 .cfa: sp 80 +
STACK CFI 4e698 .cfa: sp 0 +
STACK CFI 4e69c .cfa: x29 80 +
STACK CFI 4e6f4 .cfa: sp 80 +
STACK CFI 4e708 .cfa: sp 0 +
STACK CFI 4e70c .cfa: x29 80 +
STACK CFI INIT 4e8ec 7c .cfa: sp 0 +
STACK CFI 4e8f0 .cfa: sp 48 +
STACK CFI 4e8fc .cfa: x29 48 + x19: .cfa -8 + ^ x20: .cfa -16 + ^ x21: .cfa -32 + ^ .ra: .cfa -40 + ^ x29: .cfa -48 + ^
STACK CFI 4e948 .cfa: sp 48 +
STACK CFI 4e954 .cfa: sp 0 +
STACK CFI 4e958 .cfa: sp 48 +
STACK CFI 4e964 .cfa: sp 0 +
STACK CFI INIT 4e968 a4 .cfa: sp 0 +
STACK CFI 4e96c .cfa: sp 48 +
STACK CFI 4e978 .cfa: x29 48 + x19: .cfa -8 + ^ x20: .cfa -16 + ^ x21: .cfa -32 + ^ .ra: .cfa -40 + ^ x29: .cfa -48 + ^
STACK CFI 4e998 .cfa: sp 48 +
STACK CFI 4e9a4 .cfa: sp 0 +
STACK CFI 4e9a8 .cfa: x29 48 +
STACK CFI 4e9ec .cfa: sp 48 +
STACK CFI 4e9f8 .cfa: sp 0 +
STACK CFI 4e9fc .cfa: sp 48 +
STACK CFI 4ea08 .cfa: sp 0 +
STACK CFI INIT 4ea0c 14c .cfa: sp 0 +
STACK CFI 4ea10 .cfa: sp 48 +
STACK CFI 4ea1c .cfa: x29 48 + x19: .cfa -8 + ^ x20: .cfa -16 + ^ x21: .cfa -32 + ^ .ra: .cfa -40 + ^ x29: .cfa -48 + ^
STACK CFI 4eb38 .cfa: sp 48 +
STACK CFI 4eb44 .cfa: sp 0 +
STACK CFI 4eb48 .cfa: sp 48 +
STACK CFI 4eb54 .cfa: sp 0 +
STACK CFI INIT 4eb58 24 .cfa: sp 0 +
STACK CFI 4eb5c .cfa: sp 32 +
STACK CFI 4eb64 .cfa: x29 32 + x19: .cfa -16 + ^ .ra: .cfa -24 + ^ x29: .cfa -32 + ^
STACK CFI 4eb70 .cfa: sp 32 +
STACK CFI 4eb78 .cfa: sp 0 +
STACK CFI INIT 4f7e8 44 .cfa: sp 0 +
STACK CFI 4f7ec .cfa: sp 32 +
STACK CFI 4f7f4 .cfa: x29 32 + x19: .cfa -16 + ^ .ra: .cfa -24 + ^ x29: .cfa -32 + ^
STACK CFI 4f810 .cfa: sp 32 +
STACK CFI 4f818 .cfa: sp 0 +
STACK CFI 4f81c .cfa: x29 32 +
STACK CFI 4f820 .cfa: sp 32 +
STACK CFI 4f828 .cfa: sp 0 +
STACK CFI INIT 4f82c ac .cfa: sp 0 +
STACK CFI 4f830 .cfa: sp 64 +
STACK CFI 4f840 .cfa: x29 64 + x19: .cfa -8 + ^ x20: .cfa -16 + ^ x21: .cfa -24 + ^ x22: .cfa -32 + ^ x23: .cfa -48 + ^ .ra: .cfa -56 + ^ x29: .cfa -64 + ^
STACK CFI 4f8bc .cfa: sp 64 +
STACK CFI 4f8cc .cfa: sp 0 +
STACK CFI 4f8d0 .cfa: x29 64 +
STACK CFI INIT 4f8d8 110 .cfa: sp 0 +
STACK CFI 4f8dc .cfa: sp 64 +
STACK CFI 4f8ec .cfa: x29 64 + x19: .cfa -8 + ^ x20: .cfa -16 + ^ x21: .cfa -24 + ^ x22: .cfa -32 + ^ x23: .cfa -40 + ^ x24: .cfa -48 + ^ .ra: .cfa -56 + ^ x29: .cfa -64 + ^
STACK CFI 4f9cc .cfa: sp 64 +
STACK CFI 4f9dc .cfa: sp 0 +
STACK CFI 4f9e0 .cfa: x29 64 +
STACK CFI INIT 4fbac 14 .cfa: sp 0 +
STACK CFI 4fbb0 .cfa: sp 16 +
STACK CFI 4fbb4 .cfa: x29 16 + .ra: .cfa -8 + ^ x29: .cfa -16 + ^
STACK CFI INIT 4fc0c 5c8 .cfa: sp 0 +
STACK CFI 4fc10 .cfa: sp 80 +
STACK CFI 4fc24 .cfa: x29 80 + x19: .cfa -8 + ^ x20: .cfa -16 + ^ x21: .cfa -24 + ^ x22: .cfa -32 + ^ x23: .cfa -40 + ^ x24: .cfa -48 + ^ x25: .cfa -56 + ^ x26: .cfa -64 + ^ .ra: .cfa -72 + ^ x29: .cfa -80 + ^
STACK CFI 4fd14 .cfa: sp 80 +
STACK CFI 4fd28 .cfa: sp 0 +
STACK CFI 4fd2c .cfa: x29 80 +
STACK CFI 4fd80 .cfa: sp 80 +
STACK CFI 4fd94 .cfa: sp 0 +
STACK CFI 4fd98 .cfa: x29 80 +
STACK CFI 501b4 .cfa: sp 80 +
STACK CFI 501c8 .cfa: sp 0 +
STACK CFI 501cc .cfa: x29 80 +
STACK CFI INIT 501d4 4c4 .cfa: sp 0 +
STACK CFI 501d8 .cfa: sp 32 +
STACK CFI 501e0 .cfa: x29 32 + x19: .cfa -16 + ^ .ra: .cfa -24 + ^ x29: .cfa -32 + ^
STACK CFI 50234 .cfa: sp 32 +
STACK CFI 5023c .cfa: sp 0 +
STACK CFI 50240 .cfa: x29 32 +
STACK CFI 50280 .cfa: sp 32 +
STACK CFI 50288 .cfa: sp 0 +
STACK CFI 5028c .cfa: x29 32 +
STACK CFI 502bc .cfa: sp 32 +
STACK CFI 502c4 .cfa: sp 0 +
STACK CFI 502c8 .cfa: x29 32 +
STACK CFI 502f8 .cfa: sp 32 +
STACK CFI 50300 .cfa: sp 0 +
STACK CFI 50304 .cfa: x29 32 +
STACK CFI 50314 .cfa: sp 32 +
STACK CFI 5031c .cfa: sp 0 +
STACK CFI 50320 .cfa: x29 32 +
STACK CFI 50340 .cfa: sp 32 +
STACK CFI 50348 .cfa: sp 0 +
STACK CFI 5034c .cfa: x29 32 +
STACK CFI 5036c .cfa: sp 32 +
STACK CFI 50374 .cfa: sp 0 +
STACK CFI 50378 .cfa: x29 32 +
STACK CFI 50398 .cfa: sp 32 +
STACK CFI 503a0 .cfa: sp 0 +
STACK CFI 503a4 .cfa: x29 32 +
STACK CFI 503c4 .cfa: sp 32 +
STACK CFI 503cc .cfa: sp 0 +
STACK CFI 503d0 .cfa: x29 32 +
STACK CFI 50454 .cfa: sp 32 +
STACK CFI 5045c .cfa: sp 0 +
STACK CFI 50460 .cfa: x29 32 +
STACK CFI 50470 .cfa: sp 32 +
STACK CFI 50478 .cfa: sp 0 +
STACK CFI 5047c .cfa: x29 32 +
STACK CFI 5048c .cfa: sp 32 +
STACK CFI 50494 .cfa: sp 0 +
STACK CFI 50498 .cfa: x29 32 +
STACK CFI 504a8 .cfa: sp 32 +
STACK CFI 504b0 .cfa: sp 0 +
STACK CFI 504b4 .cfa: x29 32 +
STACK CFI 504c4 .cfa: sp 32 +
STACK CFI 504cc .cfa: sp 0 +
STACK CFI 504d0 .cfa: x29 32 +
STACK CFI 504e0 .cfa: sp 32 +
STACK CFI 504e8 .cfa: sp 0 +
STACK CFI 504ec .cfa: x29 32 +
STACK CFI 504fc .cfa: sp 32 +
STACK CFI 50504 .cfa: sp 0 +
STACK CFI 50508 .cfa: x29 32 +
STACK CFI 50518 .cfa: sp 32 +
STACK CFI 50520 .cfa: sp 0 +
STACK CFI 50524 .cfa: x29 32 +
STACK CFI 50548 .cfa: sp 32 +
STACK CFI 50550 .cfa: sp 0 +
STACK CFI 50554 .cfa: x29 32 +
STACK CFI 5056c .cfa: sp 32 +
STACK CFI 50574 .cfa: sp 0 +
STACK CFI 50578 .cfa: x29 32 +
STACK CFI 50590 .cfa: sp 32 +
STACK CFI 50598 .cfa: sp 0 +
STACK CFI 5059c .cfa: x29 32 +
STACK CFI 505b4 .cfa: sp 32 +
STACK CFI 505bc .cfa: sp 0 +
STACK CFI 505c0 .cfa: x29 32 +
STACK CFI 505d8 .cfa: sp 32 +
STACK CFI 505e0 .cfa: sp 0 +
STACK CFI 505e4 .cfa: x29 32 +
STACK CFI 505fc .cfa: sp 32 +
STACK CFI 50604 .cfa: sp 0 +
STACK CFI 50608 .cfa: x29 32 +
STACK CFI 50620 .cfa: sp 32 +
STACK CFI 50628 .cfa: sp 0 +
STACK CFI 5062c .cfa: x29 32 +
STACK CFI 50644 .cfa: sp 32 +
STACK CFI 5064c .cfa: sp 0 +
STACK CFI 50650 .cfa: x29 32 +
STACK CFI 50668 .cfa: sp 32 +
STACK CFI 50670 .cfa: sp 0 +
STACK CFI 50674 .cfa: x29 32 +
STACK CFI 50688 .cfa: sp 32 +
STACK CFI 50690 .cfa: sp 0 +
STACK CFI 50694 .cfa: x29 32 +
STACK CFI INIT 50698 420 .cfa: sp 0 +
STACK CFI 5069c .cfa: sp 80 +
STACK CFI 506b0 .cfa: x29 80 + x19: .cfa -8 + ^ x20: .cfa -16 + ^ x21: .cfa -24 + ^ x22: .cfa -32 + ^ x23: .cfa -40 + ^ x24: .cfa -48 + ^ x25: .cfa -64 + ^ .ra: .cfa -72 + ^ x29: .cfa -80 + ^
STACK CFI 50704 .cfa: sp 80 +
STACK CFI 50718 .cfa: sp 0 +
STACK CFI 5071c .cfa: x29 80 +
STACK CFI 508c4 .cfa: sp 80 +
STACK CFI 508d8 .cfa: sp 0 +
STACK CFI 508dc .cfa: x29 80 +
STACK CFI 50a98 .cfa: sp 80 +
STACK CFI 50aac .cfa: sp 0 +
STACK CFI 50ab0 .cfa: x29 80 +
STACK CFI INIT 50fe0 68 .cfa: sp 0 +
STACK CFI 50fe4 .cfa: sp 32 +
STACK CFI 50fec .cfa: x29 32 + x19: .cfa -8 + ^ x20: .cfa -16 + ^ .ra: .cfa -24 + ^ x29: .cfa -32 + ^
STACK CFI 51004 .cfa: sp 32 +
STACK CFI 5100c .cfa: sp 0 +
STACK CFI 51010 .cfa: x29 32 +
STACK CFI 5103c .cfa: sp 32 +
STACK CFI 51044 .cfa: sp 0 +
STACK CFI INIT 51048 14 .cfa: sp 0 +
STACK CFI 5104c .cfa: sp 16 +
STACK CFI 51050 .cfa: x29 16 + .ra: .cfa -8 + ^ x29: .cfa -16 + ^
STACK CFI INIT 512a8 1a8 .cfa: sp 0 +
STACK CFI 512ac .cfa: sp 48 +
STACK CFI 512b8 .cfa: x29 48 + x19: .cfa -8 + ^ x20: .cfa -16 + ^ x21: .cfa -24 + ^ x22: .cfa -32 + ^ .ra: .cfa -40 + ^ x29: .cfa -48 + ^
STACK CFI 51438 .cfa: sp 48 +
STACK CFI 51444 .cfa: sp 0 +
STACK CFI 51448 .cfa: x29 48 +
STACK CFI INIT 51450 14 .cfa: sp 0 +
STACK CFI 51454 .cfa: sp 16 +
STACK CFI 51458 .cfa: x29 16 + .ra: .cfa -8 + ^ x29: .cfa -16 + ^
STACK CFI INIT 51464 14 .cfa: sp 0 +
STACK CFI 51468 .cfa: sp 16 +
STACK CFI 5146c .cfa: x29 16 + .ra: .cfa -8 + ^ x29: .cfa -16 + ^
STACK CFI INIT 51478 48 .cfa: sp 0 +
STACK CFI 51494 .cfa: sp 32 +
STACK CFI 5149c .cfa: x29 32 + x19: .cfa -16 + ^ .ra: .cfa -24 + ^ x29: .cfa -32 + ^
STACK CFI 514b4 .cfa: sp 32 +
STACK CFI 514bc .cfa: sp 0 +
STACK CFI INIT 514c0 30 .cfa: sp 0 +
STACK CFI INIT 514f0 48 .cfa: sp 0 +
STACK CFI 5150c .cfa: sp 32 +
STACK CFI 51514 .cfa: x29 32 + x19: .cfa -16 + ^ .ra: .cfa -24 + ^ x29: .cfa -32 + ^
STACK CFI 5152c .cfa: sp 32 +
STACK CFI 51534 .cfa: sp 0 +
STACK CFI INIT 51538 38 .cfa: sp 0 +
STACK CFI INIT 51748 68 .cfa: sp 0 +
STACK CFI 5174c .cfa: sp 32 +
STACK CFI 51754 .cfa: x29 32 + x19: .cfa -16 + ^ .ra: .cfa -24 + ^ x29: .cfa -32 + ^
STACK CFI 517a4 .cfa: sp 32 +
STACK CFI 517ac .cfa: sp 0 +
STACK CFI INIT 517b0 1c4 .cfa: sp 0 +
STACK CFI INIT 51974 c4 .cfa: sp 0 +
STACK CFI INIT 51a38 68 .cfa: sp 0 +
STACK CFI 51a3c .cfa: sp 32 +
STACK CFI 51a44 .cfa: x29 32 + x19: .cfa -16 + ^ .ra: .cfa -24 + ^ x29: .cfa -32 + ^
STACK CFI 51a94 .cfa: sp 32 +
STACK CFI 51a9c .cfa: sp 0 +
STACK CFI INIT 51aa0 4 .cfa: sp 0 +
STACK CFI INIT 51aa4 14 .cfa: sp 0 +
STACK CFI INIT 51ab8 6c .cfa: sp 0 +
STACK CFI 51abc .cfa: sp 32 +
STACK CFI 51ac4 .cfa: x29 32 + x19: .cfa -16 + ^ .ra: .cfa -24 + ^ x29: .cfa -32 + ^
STACK CFI 51b0c .cfa: sp 32 +
STACK CFI 51b14 .cfa: sp 0 +
STACK CFI 51b18 .cfa: sp 32 +
STACK CFI 51b20 .cfa: sp 0 +
STACK CFI INIT 51b24 68 .cfa: sp 0 +
STACK CFI 51b28 .cfa: sp 32 +
STACK CFI 51b30 .cfa: x29 32 + x19: .cfa -16 + ^ .ra: .cfa -24 + ^ x29: .cfa -32 + ^
STACK CFI 51b80 .cfa: sp 32 +
STACK CFI 51b88 .cfa: sp 0 +
STACK CFI INIT 51b8c c .cfa: sp 0 +
STACK CFI INIT 51b98 24 .cfa: sp 0 +
STACK CFI INIT 51bbc 4 .cfa: sp 0 +
STACK CFI INIT 51bc0 4 .cfa: sp 0 +
STACK CFI INIT 51bc4 14 .cfa: sp 0 +
STACK CFI INIT 51c24 2fc .cfa: sp 0 +
STACK CFI 51c28 .cfa: sp 64 +
STACK CFI 51c38 .cfa: x29 64 + x19: .cfa -8 + ^ x20: .cfa -16 + ^ x21: .cfa -24 + ^ x22: .cfa -32 + ^ x23: .cfa -40 + ^ x24: .cfa -48 + ^ .ra: .cfa -56 + ^ x29: .cfa -64 + ^
STACK CFI 51db4 .cfa: sp 64 +
STACK CFI 51dc4 .cfa: sp 0 +
STACK CFI 51dc8 .cfa: x29 64 +
STACK CFI 51e0c .cfa: sp 64 +
STACK CFI 51e1c .cfa: sp 0 +
STACK CFI 51e20 .cfa: x29 64 +
STACK CFI 51ef0 .cfa: sp 64 +
STACK CFI 51f00 .cfa: sp 0 +
STACK CFI 51f04 .cfa: sp 64 +
STACK CFI 51f14 .cfa: sp 0 +
STACK CFI 51f18 .cfa: x29 64 +
STACK CFI INIT 51f20 270 .cfa: sp 0 +
STACK CFI 51f24 .cfa: sp 32 +
STACK CFI 51f2c .cfa: x29 32 + x19: .cfa -16 + ^ .ra: .cfa -24 + ^ x29: .cfa -32 + ^
STACK CFI 51f64 .cfa: sp 32 +
STACK CFI 51f6c .cfa: sp 0 +
STACK CFI 51f70 .cfa: x29 32 +
STACK CFI 520b8 .cfa: sp 32 +
STACK CFI 520c0 .cfa: sp 0 +
STACK CFI 520c4 .cfa: x29 32 +
STACK CFI 52100 .cfa: sp 32 +
STACK CFI 52108 .cfa: sp 0 +
STACK CFI 5210c .cfa: x29 32 +
STACK CFI 52180 .cfa: sp 32 +
STACK CFI 52188 .cfa: sp 0 +
STACK CFI 5218c .cfa: x29 32 +
STACK CFI INIT 52190 2c .cfa: sp 0 +
STACK CFI INIT 521bc 48 .cfa: sp 0 +
STACK CFI 521d8 .cfa: sp 32 +
STACK CFI 521e0 .cfa: x29 32 + x19: .cfa -16 + ^ .ra: .cfa -24 + ^ x29: .cfa -32 + ^
STACK CFI 521f8 .cfa: sp 32 +
STACK CFI 52200 .cfa: sp 0 +
STACK CFI INIT 52204 40 .cfa: sp 0 +
STACK CFI INIT 52244 60 .cfa: sp 0 +
STACK CFI 52248 .cfa: sp 16 +
STACK CFI 5224c .cfa: x29 16 + .ra: .cfa -8 + ^ x29: .cfa -16 + ^
STACK CFI 5228c .cfa: sp 16 +
STACK CFI 52290 .cfa: sp 0 +
STACK CFI 52294 .cfa: x29 16 +
STACK CFI 52298 .cfa: sp 16 +
STACK CFI 5229c .cfa: sp 0 +
STACK CFI 522a0 .cfa: x29 16 +
STACK CFI INIT 522a4 34c .cfa: sp 0 +
STACK CFI 522a8 .cfa: sp 80 +
STACK CFI 522bc .cfa: x29 80 + x19: .cfa -8 + ^ x20: .cfa -16 + ^ x21: .cfa -24 + ^ x22: .cfa -32 + ^ x23: .cfa -40 + ^ x24: .cfa -48 + ^ x25: .cfa -64 + ^ .ra: .cfa -72 + ^ x29: .cfa -80 + ^
STACK CFI 525b8 .cfa: sp 80 +
STACK CFI 525cc .cfa: sp 0 +
STACK CFI 525d0 .cfa: x29 80 +
STACK CFI 525d4 .cfa: sp 80 +
STACK CFI 525e8 .cfa: sp 0 +
STACK CFI 525ec .cfa: x29 80 +
STACK CFI INIT 525f0 26c .cfa: sp 0 +
STACK CFI 525f4 .cfa: sp 80 +
STACK CFI 52608 .cfa: x29 80 + x19: .cfa -8 + ^ x20: .cfa -16 + ^ x21: .cfa -24 + ^ x22: .cfa -32 + ^ x23: .cfa -40 + ^ x24: .cfa -48 + ^ x25: .cfa -64 + ^ .ra: .cfa -72 + ^ x29: .cfa -80 + ^
STACK CFI 5273c .cfa: sp 80 +
STACK CFI 52750 .cfa: sp 0 +
STACK CFI 52754 .cfa: x29 80 +
STACK CFI 52844 .cfa: sp 80 +
STACK CFI 52858 .cfa: sp 0 +
STACK CFI INIT 5285c 318 .cfa: sp 0 +
STACK CFI 52860 .cfa: sp 128 +
STACK CFI 5287c .cfa: x29 96 + x19: .cfa -8 + ^ x20: .cfa -16 + ^ x21: .cfa -24 + ^ x22: .cfa -32 + ^ x23: .cfa -40 + ^ x24: .cfa -48 + ^ x25: .cfa -56 + ^ x26: .cfa -64 + ^ x27: .cfa -72 + ^ x28: .cfa -80 + ^ .ra: .cfa -88 + ^ x29: .cfa -96 + ^
STACK CFI 52b4c .cfa: sp 128 +
STACK CFI 52b68 .cfa: sp 0 +
STACK CFI 52b6c .cfa: x29 96 +
STACK CFI INIT 5441c 1c8 .cfa: sp 0 +
STACK CFI 54420 .cfa: sp 80 +
STACK CFI 54434 .cfa: x29 80 + x19: .cfa -8 + ^ x20: .cfa -16 + ^ x21: .cfa -24 + ^ x22: .cfa -32 + ^ x23: .cfa -40 + ^ x24: .cfa -48 + ^ x25: .cfa -64 + ^ .ra: .cfa -72 + ^ x29: .cfa -80 + ^
STACK CFI 545b4 .cfa: sp 80 +
STACK CFI 545c8 .cfa: sp 0 +
STACK CFI 545cc .cfa: sp 80 +
STACK CFI 545e0 .cfa: sp 0 +
STACK CFI INIT 54bd4 188 .cfa: sp 0 +
STACK CFI 54bd8 .cfa: sp 80 +
STACK CFI 54bec .cfa: x29 80 + x19: .cfa -8 + ^ x20: .cfa -16 + ^ x21: .cfa -24 + ^ x22: .cfa -32 + ^ x23: .cfa -40 + ^ x24: .cfa -48 + ^ x25: .cfa -64 + ^ .ra: .cfa -72 + ^ x29: .cfa -80 + ^
STACK CFI 54d40 .cfa: sp 80 +
STACK CFI 54d54 .cfa: sp 0 +
STACK CFI 54d58 .cfa: x29 80 +
STACK CFI INIT 54d5c 18c .cfa: sp 0 +
STACK CFI 54d60 .cfa: sp 64 +
STACK CFI 54d70 .cfa: x29 64 + x19: .cfa -8 + ^ x20: .cfa -16 + ^ x21: .cfa -24 + ^ x22: .cfa -32 + ^ x23: .cfa -40 + ^ x24: .cfa -48 + ^ .ra: .cfa -56 + ^ x29: .cfa -64 + ^
STACK CFI 54ed0 .cfa: sp 64 +
STACK CFI 54ee0 .cfa: sp 0 +
STACK CFI 54ee4 .cfa: x29 64 +
STACK CFI INIT 54ee8 18c .cfa: sp 0 +
STACK CFI 54eec .cfa: sp 64 +
STACK CFI 54efc .cfa: x29 64 + x19: .cfa -8 + ^ x20: .cfa -16 + ^ x21: .cfa -24 + ^ x22: .cfa -32 + ^ x23: .cfa -40 + ^ x24: .cfa -48 + ^ .ra: .cfa -56 + ^ x29: .cfa -64 + ^
STACK CFI 5505c .cfa: sp 64 +
STACK CFI 5506c .cfa: sp 0 +
STACK CFI 55070 .cfa: x29 64 +
STACK CFI INIT 55074 14 .cfa: sp 0 +
STACK CFI 55078 .cfa: sp 16 +
STACK CFI 5507c .cfa: x29 16 + .ra: .cfa -8 + ^ x29: .cfa -16 + ^
STACK CFI INIT 55678 18c .cfa: sp 0 +
STACK CFI 5567c .cfa: sp 64 +
STACK CFI 5568c .cfa: x29 64 + x19: .cfa -8 + ^ x20: .cfa -16 + ^ x21: .cfa -24 + ^ x22: .cfa -32 + ^ x23: .cfa -40 + ^ x24: .cfa -48 + ^ .ra: .cfa -56 + ^ x29: .cfa -64 + ^
STACK CFI 557ec .cfa: sp 64 +
STACK CFI 557fc .cfa: sp 0 +
STACK CFI 55800 .cfa: x29 64 +
STACK CFI INIT 55a08 34 .cfa: sp 0 +
STACK CFI 55a0c .cfa: sp 16 +
STACK CFI 55a10 .cfa: x29 16 + .ra: .cfa -8 + ^ x29: .cfa -16 + ^
STACK CFI INIT 55a3c 4 .cfa: sp 0 +
STACK CFI INIT 55a40 14 .cfa: sp 0 +
STACK CFI INIT 55a54 4 .cfa: sp 0 +
STACK CFI INIT 55a58 14 .cfa: sp 0 +
STACK CFI INIT 55bd4 34 .cfa: sp 0 +
STACK CFI 55be0 .cfa: sp 32 +
STACK CFI 55be8 .cfa: x29 32 + x19: .cfa -16 + ^ .ra: .cfa -24 + ^ x29: .cfa -32 + ^
STACK CFI 55bfc .cfa: sp 32 +
STACK CFI 55c04 .cfa: sp 0 +
STACK CFI INIT 55c08 38 .cfa: sp 0 +
STACK CFI 55c0c .cfa: sp 32 +
STACK CFI 55c14 .cfa: x29 32 + x19: .cfa -16 + ^ .ra: .cfa -24 + ^ x29: .cfa -32 + ^
STACK CFI 55c34 .cfa: sp 32 +
STACK CFI 55c3c .cfa: sp 0 +
STACK CFI INIT 55f7c 140 .cfa: sp 0 +
STACK CFI 55f80 .cfa: sp 80 +
STACK CFI 55f8c .cfa: x29 32 + x19: .cfa -16 + ^ .ra: .cfa -24 + ^ x29: .cfa -32 + ^
STACK CFI 56014 .cfa: sp 80 +
STACK CFI 56020 .cfa: sp 0 +
STACK CFI 56024 .cfa: x29 32 +
STACK CFI 56080 .cfa: sp 80 +
STACK CFI 5608c .cfa: sp 0 +
STACK CFI 56090 .cfa: x29 32 +
STACK CFI 560a8 .cfa: sp 80 +
STACK CFI 560b4 .cfa: sp 0 +
STACK CFI 560b8 .cfa: x29 32 +
STACK CFI INIT 56188 50 .cfa: sp 0 +
STACK CFI 5618c .cfa: sp 32 +
STACK CFI 56194 .cfa: x29 32 + x19: .cfa -8 + ^ x20: .cfa -16 + ^ .ra: .cfa -24 + ^ x29: .cfa -32 + ^
STACK CFI 561c0 .cfa: sp 32 +
STACK CFI 561c8 .cfa: sp 0 +
STACK CFI 561cc .cfa: sp 32 +
STACK CFI 561d4 .cfa: sp 0 +
STACK CFI INIT 561d8 8 .cfa: sp 0 +
STACK CFI INIT 56660 1c .cfa: sp 0 +
STACK CFI INIT 569fc 50 .cfa: sp 0 +
STACK CFI 56a00 .cfa: sp 32 +
STACK CFI 56a08 .cfa: x29 32 + x19: .cfa -16 + ^ .ra: .cfa -24 + ^ x29: .cfa -32 + ^
STACK CFI 56a20 .cfa: sp 32 +
STACK CFI 56a28 .cfa: sp 0 +
STACK CFI 56a2c .cfa: x29 32 +
STACK CFI 56a40 .cfa: sp 32 +
STACK CFI 56a48 .cfa: sp 0 +
STACK CFI INIT 56ac0 4 .cfa: sp 0 +
STACK CFI INIT 56d44 80 .cfa: sp 0 +
STACK CFI 56d48 .cfa: sp 48 +
STACK CFI 56d54 .cfa: x29 48 + x19: .cfa -8 + ^ x20: .cfa -16 + ^ x21: .cfa -32 + ^ .ra: .cfa -40 + ^ x29: .cfa -48 + ^
STACK CFI 56db4 .cfa: sp 48 +
STACK CFI 56dc0 .cfa: sp 0 +
STACK CFI INIT 56dc4 24 .cfa: sp 0 +
STACK CFI 56dc8 .cfa: sp 32 +
STACK CFI 56dd0 .cfa: x29 32 + x19: .cfa -16 + ^ .ra: .cfa -24 + ^ x29: .cfa -32 + ^
STACK CFI 56ddc .cfa: sp 32 +
STACK CFI 56de4 .cfa: sp 0 +
STACK CFI INIT 572e0 148 .cfa: sp 0 +
STACK CFI 572e4 .cfa: sp 48 +
STACK CFI 572f0 .cfa: x29 48 + x19: .cfa -8 + ^ x20: .cfa -16 + ^ x21: .cfa -32 + ^ .ra: .cfa -40 + ^ x29: .cfa -48 + ^
STACK CFI 57418 .cfa: sp 48 +
STACK CFI 57424 .cfa: sp 0 +
STACK CFI INIT 57428 4 .cfa: sp 0 +
STACK CFI INIT 5742c 14 .cfa: sp 0 +
STACK CFI INIT 57440 120 .cfa: sp 0 +
STACK CFI 57444 .cfa: sp 64 +
STACK CFI 57454 .cfa: x29 64 + x19: .cfa -8 + ^ x20: .cfa -16 + ^ x21: .cfa -24 + ^ x22: .cfa -32 + ^ x23: .cfa -40 + ^ x24: .cfa -48 + ^ .ra: .cfa -56 + ^ x29: .cfa -64 + ^
STACK CFI 5754c .cfa: sp 64 +
STACK CFI 5755c .cfa: sp 0 +
STACK CFI INIT 57560 d4 .cfa: sp 0 +
STACK CFI 57564 .cfa: sp 48 +
STACK CFI 57570 .cfa: x29 48 + x19: .cfa -8 + ^ x20: .cfa -16 + ^ x21: .cfa -32 + ^ .ra: .cfa -40 + ^ x29: .cfa -48 + ^
STACK CFI 57600 .cfa: sp 48 +
STACK CFI 5760c .cfa: sp 0 +
STACK CFI 57610 .cfa: x29 48 +
STACK CFI INIT 57634 3c8 .cfa: sp 0 +
STACK CFI INIT 579fc 8c .cfa: sp 0 +
STACK CFI 57a04 .cfa: sp 32 +
STACK CFI 57a0c .cfa: x29 32 + x19: .cfa -8 + ^ x20: .cfa -16 + ^ .ra: .cfa -24 + ^ x29: .cfa -32 + ^
STACK CFI 57a54 .cfa: sp 32 +
STACK CFI 57a5c .cfa: sp 0 +
STACK CFI 57a64 .cfa: x29 32 +
STACK CFI INIT 57c04 50 .cfa: sp 0 +
STACK CFI 57c08 .cfa: sp 32 +
STACK CFI 57c10 .cfa: x29 32 + x19: .cfa -16 + ^ .ra: .cfa -24 + ^ x29: .cfa -32 + ^
STACK CFI 57c28 .cfa: sp 32 +
STACK CFI 57c30 .cfa: sp 0 +
STACK CFI 57c34 .cfa: x29 32 +
STACK CFI 57c48 .cfa: sp 32 +
STACK CFI 57c50 .cfa: sp 0 +
STACK CFI INIT 57c54 64 .cfa: sp 0 +
STACK CFI 57c58 .cfa: sp 32 +
STACK CFI 57c60 .cfa: x29 32 + x19: .cfa -16 + ^ .ra: .cfa -24 + ^ x29: .cfa -32 + ^
STACK CFI 57c8c .cfa: sp 32 +
STACK CFI 57c94 .cfa: sp 0 +
STACK CFI 57c98 .cfa: x29 32 +
STACK CFI 57cac .cfa: sp 32 +
STACK CFI 57cb4 .cfa: sp 0 +
STACK CFI INIT 57cb8 178 .cfa: sp 0 +
STACK CFI 57cbc .cfa: sp 80 +
STACK CFI 57cd0 .cfa: x29 80 + x19: .cfa -8 + ^ x20: .cfa -16 + ^ x21: .cfa -24 + ^ x22: .cfa -32 + ^ x23: .cfa -40 + ^ x24: .cfa -48 + ^ x25: .cfa -56 + ^ x26: .cfa -64 + ^ .ra: .cfa -72 + ^ x29: .cfa -80 + ^
STACK CFI 57e18 .cfa: sp 80 +
STACK CFI 57e2c .cfa: sp 0 +
STACK CFI INIT 58848 1c .cfa: sp 0 +
STACK CFI INIT 591fc 4 .cfa: sp 0 +
STACK CFI INIT 59310 7c .cfa: sp 0 +
STACK CFI 59314 .cfa: sp 32 +
STACK CFI 5931c .cfa: x29 32 + x19: .cfa -8 + ^ x20: .cfa -16 + ^ .ra: .cfa -24 + ^ x29: .cfa -32 + ^
STACK CFI 59374 .cfa: sp 32 +
STACK CFI 5937c .cfa: sp 0 +
STACK CFI 59380 .cfa: sp 32 +
STACK CFI 59388 .cfa: sp 0 +
STACK CFI INIT 594f4 4 .cfa: sp 0 +
STACK CFI INIT 594f8 4 .cfa: sp 0 +
STACK CFI INIT 594fc 38 .cfa: sp 0 +
STACK CFI 59500 .cfa: sp 32 +
STACK CFI 59508 .cfa: x29 32 + x19: .cfa -16 + ^ .ra: .cfa -24 + ^ x29: .cfa -32 + ^
STACK CFI 59528 .cfa: sp 32 +
STACK CFI 59530 .cfa: sp 0 +
STACK CFI INIT 59534 18 .cfa: sp 0 +
STACK CFI INIT 5954c 4 .cfa: sp 0 +
STACK CFI INIT 59550 4 .cfa: sp 0 +
STACK CFI INIT 59554 8 .cfa: sp 0 +
STACK CFI INIT 5955c 1c .cfa: sp 0 +
STACK CFI INIT 59578 c .cfa: sp 0 +
STACK CFI INIT 59584 4 .cfa: sp 0 +
STACK CFI INIT 596fc 5c .cfa: sp 0 +
STACK CFI 59700 .cfa: sp 32 +
STACK CFI 59708 .cfa: x29 32 + x19: .cfa -16 + ^ .ra: .cfa -24 + ^ x29: .cfa -32 + ^
STACK CFI 5974c .cfa: sp 32 +
STACK CFI 59754 .cfa: sp 0 +
STACK CFI INIT 59758 64 .cfa: sp 0 +
STACK CFI 5975c .cfa: sp 32 +
STACK CFI 59764 .cfa: x29 32 + x19: .cfa -16 + ^ .ra: .cfa -24 + ^ x29: .cfa -32 + ^
STACK CFI 597b0 .cfa: sp 32 +
STACK CFI 597b8 .cfa: sp 0 +
STACK CFI INIT 597bc 4 .cfa: sp 0 +
STACK CFI INIT 597c0 14 .cfa: sp 0 +
STACK CFI INIT 5aaa4 98 .cfa: sp 0 +
STACK CFI 5aaa8 .cfa: sp 304 +
STACK CFI 5aab4 .cfa: x29 32 + x19: .cfa -8 + ^ x28: .cfa -16 + ^ .ra: .cfa -24 + ^ x29: .cfa -32 + ^
STACK CFI 5ab28 .cfa: sp 304 +
STACK CFI 5ab34 .cfa: sp 0 +
STACK CFI 5ab38 .cfa: x29 32 +
STACK CFI INIT 5afbc 1c .cfa: sp 0 +
STACK CFI INIT 5afd8 50 .cfa: sp 0 +
STACK CFI 5afdc .cfa: sp 32 +
STACK CFI 5afe4 .cfa: x29 32 + x19: .cfa -16 + ^ .ra: .cfa -24 + ^ x29: .cfa -32 + ^
STACK CFI 5affc .cfa: sp 32 +
STACK CFI 5b004 .cfa: sp 0 +
STACK CFI 5b008 .cfa: x29 32 +
STACK CFI 5b01c .cfa: sp 32 +
STACK CFI 5b024 .cfa: sp 0 +
STACK CFI INIT 5b028 14 .cfa: sp 0 +
STACK CFI 5b02c .cfa: sp 16 +
STACK CFI 5b030 .cfa: x29 16 + .ra: .cfa -8 + ^ x29: .cfa -16 + ^
STACK CFI INIT 5b03c 14 .cfa: sp 0 +
STACK CFI 5b040 .cfa: sp 16 +
STACK CFI 5b044 .cfa: x29 16 + .ra: .cfa -8 + ^ x29: .cfa -16 + ^
STACK CFI INIT 5b050 14 .cfa: sp 0 +
STACK CFI 5b054 .cfa: sp 16 +
STACK CFI 5b058 .cfa: x29 16 + .ra: .cfa -8 + ^ x29: .cfa -16 + ^
STACK CFI INIT 5b064 14 .cfa: sp 0 +
STACK CFI 5b068 .cfa: sp 16 +
STACK CFI 5b06c .cfa: x29 16 + .ra: .cfa -8 + ^ x29: .cfa -16 + ^
STACK CFI INIT 5b078 4 .cfa: sp 0 +
STACK CFI INIT 5b07c 4 .cfa: sp 0 +
STACK CFI INIT 5b080 38 .cfa: sp 0 +
STACK CFI 5b084 .cfa: sp 32 +
STACK CFI 5b08c .cfa: x29 32 + x19: .cfa -16 + ^ .ra: .cfa -24 + ^ x29: .cfa -32 + ^
STACK CFI 5b0ac .cfa: sp 32 +
STACK CFI 5b0b4 .cfa: sp 0 +
STACK CFI INIT 5b0b8 18 .cfa: sp 0 +
STACK CFI INIT 5b0d0 4 .cfa: sp 0 +
STACK CFI INIT 5b0d4 4 .cfa: sp 0 +
STACK CFI INIT 5b0d8 10 .cfa: sp 0 +
STACK CFI INIT 5b0e8 1c .cfa: sp 0 +
STACK CFI INIT 5b104 c .cfa: sp 0 +
STACK CFI INIT 5b798 4 .cfa: sp 0 +
STACK CFI INIT 5c290 4 .cfa: sp 0 +
STACK CFI INIT 5c408 6c .cfa: sp 0 +
STACK CFI 5c40c .cfa: sp 32 +
STACK CFI 5c414 .cfa: x29 32 + x19: .cfa -16 + ^ .ra: .cfa -24 + ^ x29: .cfa -32 + ^
STACK CFI 5c468 .cfa: sp 32 +
STACK CFI 5c470 .cfa: sp 0 +
STACK CFI INIT 5c474 74 .cfa: sp 0 +
STACK CFI 5c478 .cfa: sp 32 +
STACK CFI 5c480 .cfa: x29 32 + x19: .cfa -16 + ^ .ra: .cfa -24 + ^ x29: .cfa -32 + ^
STACK CFI 5c4dc .cfa: sp 32 +
STACK CFI 5c4e4 .cfa: sp 0 +
STACK CFI INIT 5c4e8 4 .cfa: sp 0 +
STACK CFI INIT 5c4ec 24 .cfa: sp 0 +
STACK CFI 5c4f0 .cfa: sp 16 +
STACK CFI 5c4f4 .cfa: x29 16 + .ra: .cfa -8 + ^ x29: .cfa -16 + ^
STACK CFI 5c508 .cfa: sp 16 +
STACK CFI 5c50c .cfa: sp 0 +
STACK CFI INIT 5c510 10 .cfa: sp 0 +
STACK CFI INIT 5c520 4 .cfa: sp 0 +
STACK CFI INIT 5c524 4 .cfa: sp 0 +
STACK CFI INIT 5c6a0 1c .cfa: sp 0 +
STACK CFI INIT 5c6bc c .cfa: sp 0 +
STACK CFI INIT 5c6c8 4 .cfa: sp 0 +
STACK CFI INIT 5c6cc 24 .cfa: sp 0 +
STACK CFI 5c6d0 .cfa: sp 16 +
STACK CFI 5c6d4 .cfa: x29 16 + .ra: .cfa -8 + ^ x29: .cfa -16 + ^
STACK CFI 5c6e8 .cfa: sp 16 +
STACK CFI 5c6ec .cfa: sp 0 +
STACK CFI INIT 5c6f0 10 .cfa: sp 0 +
STACK CFI INIT 5c700 4 .cfa: sp 0 +
STACK CFI INIT 5c704 4 .cfa: sp 0 +
STACK CFI INIT 5c874 1c .cfa: sp 0 +
STACK CFI INIT 5c890 c .cfa: sp 0 +
STACK CFI INIT 5c89c 4 .cfa: sp 0 +
STACK CFI INIT 5c8a0 4 .cfa: sp 0 +
STACK CFI INIT 5c8a4 24 .cfa: sp 0 +
STACK CFI 5c8a8 .cfa: sp 16 +
STACK CFI 5c8ac .cfa: x29 16 + .ra: .cfa -8 + ^ x29: .cfa -16 + ^
STACK CFI 5c8c0 .cfa: sp 16 +
STACK CFI 5c8c4 .cfa: sp 0 +
STACK CFI INIT 5c8c8 10 .cfa: sp 0 +
STACK CFI INIT 5c8d8 4 .cfa: sp 0 +
STACK CFI INIT 5c8dc 4 .cfa: sp 0 +
STACK CFI INIT 5ca4c 1c .cfa: sp 0 +
STACK CFI INIT 5ca68 c .cfa: sp 0 +
STACK CFI INIT 5ca74 4 .cfa: sp 0 +
STACK CFI INIT 5ca78 4 .cfa: sp 0 +
STACK CFI INIT 5ca7c 4 .cfa: sp 0 +
STACK CFI INIT 5ca80 4 .cfa: sp 0 +
STACK CFI INIT 5cf04 1c .cfa: sp 0 +
STACK CFI INIT 5d228 4 .cfa: sp 0 +
STACK CFI INIT 5d3cc 9c .cfa: sp 0 +
STACK CFI INIT 5e0a8 4 .cfa: sp 0 +
STACK CFI INIT 5e0ac 34 .cfa: sp 0 +
STACK CFI 5e0b0 .cfa: sp 32 +
STACK CFI 5e0b8 .cfa: x29 32 + x19: .cfa -16 + ^ .ra: .cfa -24 + ^ x29: .cfa -32 + ^
STACK CFI 5e0d4 .cfa: sp 32 +
STACK CFI 5e0dc .cfa: sp 0 +
STACK CFI INIT 5e0e0 14 .cfa: sp 0 +
STACK CFI INIT 5e0f4 4 .cfa: sp 0 +
STACK CFI INIT 5e0f8 4 .cfa: sp 0 +
STACK CFI INIT 5e0fc 10 .cfa: sp 0 +
STACK CFI INIT 5e10c 1c .cfa: sp 0 +
STACK CFI INIT 5e128 c .cfa: sp 0 +
STACK CFI INIT 5ea00 50 .cfa: sp 0 +
STACK CFI 5ea04 .cfa: sp 32 +
STACK CFI 5ea0c .cfa: x29 32 + x19: .cfa -16 + ^ .ra: .cfa -24 + ^ x29: .cfa -32 + ^
STACK CFI 5ea24 .cfa: sp 32 +
STACK CFI 5ea2c .cfa: sp 0 +
STACK CFI 5ea30 .cfa: x29 32 +
STACK CFI 5ea44 .cfa: sp 32 +
STACK CFI 5ea4c .cfa: sp 0 +
STACK CFI INIT 5ea50 50 .cfa: sp 0 +
STACK CFI 5ea54 .cfa: sp 32 +
STACK CFI 5ea5c .cfa: x29 32 + x19: .cfa -16 + ^ .ra: .cfa -24 + ^ x29: .cfa -32 + ^
STACK CFI 5ea74 .cfa: sp 32 +
STACK CFI 5ea7c .cfa: sp 0 +
STACK CFI 5ea80 .cfa: x29 32 +
STACK CFI 5ea94 .cfa: sp 32 +
STACK CFI 5ea9c .cfa: sp 0 +
STACK CFI INIT 5eb98 50 .cfa: sp 0 +
STACK CFI 5eb9c .cfa: sp 32 +
STACK CFI 5eba4 .cfa: x29 32 + x19: .cfa -16 + ^ .ra: .cfa -24 + ^ x29: .cfa -32 + ^
STACK CFI 5ebbc .cfa: sp 32 +
STACK CFI 5ebc4 .cfa: sp 0 +
STACK CFI 5ebc8 .cfa: x29 32 +
STACK CFI 5ebdc .cfa: sp 32 +
STACK CFI 5ebe4 .cfa: sp 0 +
STACK CFI INIT 5ebe8 4 .cfa: sp 0 +
STACK CFI INIT 5ebec 38 .cfa: sp 0 +
STACK CFI 5ebf0 .cfa: sp 32 +
STACK CFI 5ebf8 .cfa: x29 32 + x19: .cfa -16 + ^ .ra: .cfa -24 + ^ x29: .cfa -32 + ^
STACK CFI 5ec18 .cfa: sp 32 +
STACK CFI 5ec20 .cfa: sp 0 +
STACK CFI INIT 5ec24 18 .cfa: sp 0 +
STACK CFI INIT 5ec3c 4 .cfa: sp 0 +
STACK CFI INIT 5ec40 4 .cfa: sp 0 +
STACK CFI INIT 5eec0 1c .cfa: sp 0 +
STACK CFI INIT 5eedc c .cfa: sp 0 +
STACK CFI INIT 5f208 19c .cfa: sp 0 +
STACK CFI 5f20c .cfa: sp 96 +
STACK CFI 5f224 .cfa: x29 96 + x19: .cfa -8 + ^ x20: .cfa -16 + ^ x21: .cfa -24 + ^ x22: .cfa -32 + ^ x23: .cfa -40 + ^ x24: .cfa -48 + ^ x25: .cfa -56 + ^ x26: .cfa -64 + ^ x27: .cfa -80 + ^ .ra: .cfa -88 + ^ x29: .cfa -96 + ^
STACK CFI 5f388 .cfa: sp 96 +
STACK CFI 5f3a0 .cfa: sp 0 +
STACK CFI INIT 5f3a4 c8 .cfa: sp 0 +
STACK CFI 5f3a8 .cfa: sp 64 +
STACK CFI 5f3b8 .cfa: x29 64 + x19: .cfa -8 + ^ x20: .cfa -16 + ^ x21: .cfa -24 + ^ x22: .cfa -32 + ^ x23: .cfa -48 + ^ .ra: .cfa -56 + ^ x29: .cfa -64 + ^
STACK CFI 5f3c0 .cfa: sp 64 +
STACK CFI 5f3d0 .cfa: sp 0 +
STACK CFI 5f3d4 .cfa: x29 64 +
STACK CFI 5f3f8 .cfa: sp 64 +
STACK CFI 5f408 .cfa: sp 0 +
STACK CFI 5f40c .cfa: x29 64 +
STACK CFI 5f458 .cfa: sp 64 +
STACK CFI 5f468 .cfa: sp 0 +
STACK CFI INIT 5f46c 4 .cfa: sp 0 +
STACK CFI INIT 5f5e4 9c .cfa: sp 0 +
STACK CFI 5f5e8 .cfa: sp 32 +
STACK CFI 5f5f0 .cfa: x29 32 + x19: .cfa -8 + ^ x20: .cfa -16 + ^ .ra: .cfa -24 + ^ x29: .cfa -32 + ^
STACK CFI 5f674 .cfa: sp 32 +
STACK CFI 5f67c .cfa: sp 0 +
STACK CFI INIT 5f680 a4 .cfa: sp 0 +
STACK CFI 5f684 .cfa: sp 32 +
STACK CFI 5f68c .cfa: x29 32 + x19: .cfa -8 + ^ x20: .cfa -16 + ^ .ra: .cfa -24 + ^ x29: .cfa -32 + ^
STACK CFI 5f718 .cfa: sp 32 +
STACK CFI 5f720 .cfa: sp 0 +
STACK CFI INIT 5f724 4 .cfa: sp 0 +
STACK CFI INIT 5f728 38 .cfa: sp 0 +
STACK CFI 5f72c .cfa: sp 32 +
STACK CFI 5f734 .cfa: x29 32 + x19: .cfa -16 + ^ .ra: .cfa -24 + ^ x29: .cfa -32 + ^
STACK CFI 5f754 .cfa: sp 32 +
STACK CFI 5f75c .cfa: sp 0 +
STACK CFI INIT 5f760 18 .cfa: sp 0 +
STACK CFI INIT 5f778 4 .cfa: sp 0 +
STACK CFI INIT 5f77c 4 .cfa: sp 0 +
STACK CFI INIT 5f9b8 1c .cfa: sp 0 +
STACK CFI INIT 5f9d4 c .cfa: sp 0 +
STACK CFI INIT 5f9e0 50 .cfa: sp 0 +
STACK CFI 5f9e4 .cfa: sp 32 +
STACK CFI 5f9ec .cfa: x29 32 + x19: .cfa -16 + ^ .ra: .cfa -24 + ^ x29: .cfa -32 + ^
STACK CFI 5fa04 .cfa: sp 32 +
STACK CFI 5fa0c .cfa: sp 0 +
STACK CFI 5fa10 .cfa: x29 32 +
STACK CFI 5fa24 .cfa: sp 32 +
STACK CFI 5fa2c .cfa: sp 0 +
STACK CFI INIT 5fa30 4 .cfa: sp 0 +
STACK CFI INIT 5fa34 38 .cfa: sp 0 +
STACK CFI 5fa38 .cfa: sp 32 +
STACK CFI 5fa40 .cfa: x29 32 + x19: .cfa -16 + ^ .ra: .cfa -24 + ^ x29: .cfa -32 + ^
STACK CFI 5fa60 .cfa: sp 32 +
STACK CFI 5fa68 .cfa: sp 0 +
STACK CFI INIT 5fa6c 18 .cfa: sp 0 +
STACK CFI INIT 5fa84 4 .cfa: sp 0 +
STACK CFI INIT 5fa88 4 .cfa: sp 0 +
STACK CFI INIT 5fcc4 1c .cfa: sp 0 +
STACK CFI INIT 5fce0 c .cfa: sp 0 +
STACK CFI INIT 5fcec 4 .cfa: sp 0 +
STACK CFI INIT 5fcf0 4 .cfa: sp 0 +
STACK CFI INIT 5fcf4 38 .cfa: sp 0 +
STACK CFI 5fcf8 .cfa: sp 32 +
STACK CFI 5fd00 .cfa: x29 32 + x19: .cfa -16 + ^ .ra: .cfa -24 + ^ x29: .cfa -32 + ^
STACK CFI 5fd20 .cfa: sp 32 +
STACK CFI 5fd28 .cfa: sp 0 +
STACK CFI INIT 5fd2c 18 .cfa: sp 0 +
STACK CFI INIT 5fd44 4 .cfa: sp 0 +
STACK CFI INIT 5fd48 4 .cfa: sp 0 +
STACK CFI INIT 5ff54 1c .cfa: sp 0 +
STACK CFI INIT 5ff70 c .cfa: sp 0 +
STACK CFI INIT 5ff7c 4 .cfa: sp 0 +
STACK CFI INIT 5ff80 4 .cfa: sp 0 +
STACK CFI INIT 5ff84 34 .cfa: sp 0 +
STACK CFI 5ff88 .cfa: sp 32 +
STACK CFI 5ff90 .cfa: x29 32 + x19: .cfa -16 + ^ .ra: .cfa -24 + ^ x29: .cfa -32 + ^
STACK CFI 5ffac .cfa: sp 32 +
STACK CFI 5ffb4 .cfa: sp 0 +
STACK CFI INIT 5ffb8 14 .cfa: sp 0 +
STACK CFI INIT 5ffcc 4 .cfa: sp 0 +
STACK CFI INIT 5ffd0 4 .cfa: sp 0 +
STACK CFI INIT 5ffd4 14 .cfa: sp 0 +
STACK CFI INIT 5ffe8 1c .cfa: sp 0 +
STACK CFI INIT 60004 c .cfa: sp 0 +
STACK CFI INIT 603c8 50 .cfa: sp 0 +
STACK CFI 603cc .cfa: sp 32 +
STACK CFI 603d4 .cfa: x29 32 + x19: .cfa -16 + ^ .ra: .cfa -24 + ^ x29: .cfa -32 + ^
STACK CFI 603ec .cfa: sp 32 +
STACK CFI 603f4 .cfa: sp 0 +
STACK CFI 603f8 .cfa: x29 32 +
STACK CFI 6040c .cfa: sp 32 +
STACK CFI 60414 .cfa: sp 0 +
STACK CFI INIT 604b8 4 .cfa: sp 0 +
STACK CFI INIT 604bc 4 .cfa: sp 0 +
STACK CFI INIT 604c0 8 .cfa: sp 0 +
STACK CFI INIT 604c8 8 .cfa: sp 0 +
STACK CFI INIT 604d0 70 .cfa: sp 0 +
STACK CFI 604d4 .cfa: sp 32 +
STACK CFI 604dc .cfa: x29 32 + x19: .cfa -8 + ^ x20: .cfa -16 + ^ .ra: .cfa -24 + ^ x29: .cfa -32 + ^
STACK CFI 6050c .cfa: sp 32 +
STACK CFI 60514 .cfa: sp 0 +
STACK CFI 60518 .cfa: x29 32 +
STACK CFI 60534 .cfa: sp 32 +
STACK CFI 6053c .cfa: sp 0 +
STACK CFI INIT 60540 80 .cfa: sp 0 +
STACK CFI 60544 .cfa: sp 32 +
STACK CFI 6054c .cfa: x29 32 + x19: .cfa -8 + ^ x20: .cfa -16 + ^ .ra: .cfa -24 + ^ x29: .cfa -32 + ^
STACK CFI 60584 .cfa: sp 32 +
STACK CFI 6058c .cfa: sp 0 +
STACK CFI 60590 .cfa: x29 32 +
STACK CFI 605b4 .cfa: sp 32 +
STACK CFI 605bc .cfa: sp 0 +
STACK CFI INIT 6094c 8 .cfa: sp 0 +
STACK CFI INIT 60954 8 .cfa: sp 0 +
STACK CFI INIT 6095c 8 .cfa: sp 0 +
STACK CFI INIT 60964 4 .cfa: sp 0 +
STACK CFI INIT 60a8c 24 .cfa: sp 0 +
STACK CFI 60a90 .cfa: sp 32 +
STACK CFI 60a98 .cfa: x29 32 + x19: .cfa -16 + ^ .ra: .cfa -24 + ^ x29: .cfa -32 + ^
STACK CFI 60aa4 .cfa: sp 32 +
STACK CFI 60aac .cfa: sp 0 +
STACK CFI INIT 60ab0 10 .cfa: sp 0 +
STACK CFI INIT 60ac0 30 .cfa: sp 0 +
STACK CFI 60ac4 .cfa: sp 32 +
STACK CFI 60acc .cfa: x29 32 + x19: .cfa -16 + ^ .ra: .cfa -24 + ^ x29: .cfa -32 + ^
STACK CFI 60ae4 .cfa: sp 32 +
STACK CFI 60aec .cfa: sp 0 +
STACK CFI INIT 60af0 c .cfa: sp 0 +
STACK CFI INIT 60afc 4 .cfa: sp 0 +
STACK CFI INIT 60b74 34 .cfa: sp 0 +
STACK CFI 60b78 .cfa: sp 16 +
STACK CFI 60b7c .cfa: x29 16 + .ra: .cfa -8 + ^ x29: .cfa -16 + ^
STACK CFI INIT 6174c 6c .cfa: sp 0 +
STACK CFI 61750 .cfa: sp 32 +
STACK CFI 61758 .cfa: x29 32 + x19: .cfa -8 + ^ x20: .cfa -16 + ^ .ra: .cfa -24 + ^ x29: .cfa -32 + ^
STACK CFI 61784 .cfa: sp 32 +
STACK CFI 6178c .cfa: sp 0 +
STACK CFI 61790 .cfa: x29 32 +
STACK CFI 617ac .cfa: sp 32 +
STACK CFI 617b4 .cfa: sp 0 +
STACK CFI INIT 617b8 7c .cfa: sp 0 +
STACK CFI 617bc .cfa: sp 32 +
STACK CFI 617c4 .cfa: x29 32 + x19: .cfa -8 + ^ x20: .cfa -16 + ^ .ra: .cfa -24 + ^ x29: .cfa -32 + ^
STACK CFI 617f8 .cfa: sp 32 +
STACK CFI 61800 .cfa: sp 0 +
STACK CFI 61804 .cfa: x29 32 +
STACK CFI 61828 .cfa: sp 32 +
STACK CFI 61830 .cfa: sp 0 +
STACK CFI INIT 6228c 24 .cfa: sp 0 +
STACK CFI 62290 .cfa: sp 32 +
STACK CFI 62298 .cfa: x29 32 + x19: .cfa -16 + ^ .ra: .cfa -24 + ^ x29: .cfa -32 + ^
STACK CFI 622a4 .cfa: sp 32 +
STACK CFI 622ac .cfa: sp 0 +
STACK CFI INIT 622b0 4 .cfa: sp 0 +
STACK CFI INIT 622b4 8 .cfa: sp 0 +
STACK CFI INIT 622bc 4 .cfa: sp 0 +
STACK CFI INIT 622c0 8 .cfa: sp 0 +
STACK CFI INIT 626ac 24 .cfa: sp 0 +
STACK CFI 626b0 .cfa: sp 32 +
STACK CFI 626b8 .cfa: x29 32 + x19: .cfa -16 + ^ .ra: .cfa -24 + ^ x29: .cfa -32 + ^
STACK CFI 626c4 .cfa: sp 32 +
STACK CFI 626cc .cfa: sp 0 +
STACK CFI INIT 63bd8 150 .cfa: sp 0 +
STACK CFI 63bdc .cfa: sp 64 +
STACK CFI 63be8 .cfa: x29 32 + x19: .cfa -8 + ^ x20: .cfa -16 + ^ .ra: .cfa -24 + ^ x29: .cfa -32 + ^
STACK CFI 63cb0 .cfa: sp 64 +
STACK CFI 63cbc .cfa: sp 0 +
STACK CFI 63cc0 .cfa: x29 32 +
STACK CFI INIT 63dd4 44 .cfa: sp 0 +
STACK CFI 63dd8 .cfa: sp 32 +
STACK CFI 63de0 .cfa: x29 32 + x19: .cfa -16 + ^ .ra: .cfa -24 + ^ x29: .cfa -32 + ^
STACK CFI 63df0 .cfa: sp 32 +
STACK CFI 63df8 .cfa: sp 0 +
STACK CFI 63dfc .cfa: x29 32 +
STACK CFI 63e0c .cfa: sp 32 +
STACK CFI 63e14 .cfa: sp 0 +
STACK CFI INIT 655f0 c4 .cfa: sp 0 +
STACK CFI 655f4 .cfa: sp 32 +
STACK CFI 655fc .cfa: x29 32 + x19: .cfa -16 + ^ .ra: .cfa -24 + ^ x29: .cfa -32 + ^
STACK CFI 65638 .cfa: sp 32 +
STACK CFI 65640 .cfa: sp 0 +
STACK CFI 65644 .cfa: x29 32 +
STACK CFI 656a8 .cfa: sp 32 +
STACK CFI 656b0 .cfa: sp 0 +
STACK CFI INIT 6586c 2c .cfa: sp 0 +
STACK CFI 65870 .cfa: sp 32 +
STACK CFI 65878 .cfa: x29 32 + x19: .cfa -16 + ^ .ra: .cfa -24 + ^ x29: .cfa -32 + ^
STACK CFI 6588c .cfa: sp 32 +
STACK CFI 65894 .cfa: sp 0 +
STACK CFI INIT 65898 28 .cfa: sp 0 +
STACK CFI INIT 658c0 4 .cfa: sp 0 +
STACK CFI INIT 658c4 8 .cfa: sp 0 +
STACK CFI INIT 65be4 2c .cfa: sp 0 +
STACK CFI INIT 65c10 4 .cfa: sp 0 +
STACK CFI INIT 65c14 8 .cfa: sp 0 +
STACK CFI INIT 65c88 4 .cfa: sp 0 +
STACK CFI INIT 65cf8 4 .cfa: sp 0 +
STACK CFI INIT 65cfc 308 .cfa: sp 0 +
STACK CFI 65d00 .cfa: sp 128 +
STACK CFI 65d18 .cfa: x29 64 + x19: .cfa -8 + ^ x20: .cfa -16 + ^ x21: .cfa -24 + ^ x22: .cfa -32 + ^ x23: .cfa -48 + ^ .ra: .cfa -56 + ^ x29: .cfa -64 + ^ v8: .cfa -72 + ^ v9: .cfa -80 + ^
STACK CFI 65f4c .cfa: sp 128 +
STACK CFI 65f64 .cfa: sp 0 +
STACK CFI 65f68 .cfa: x29 64 +
STACK CFI INIT 66004 60 .cfa: sp 0 +
STACK CFI 66008 .cfa: sp 32 +
STACK CFI 66010 .cfa: x29 32 + x19: .cfa -8 + ^ x20: .cfa -16 + ^ .ra: .cfa -24 + ^ x29: .cfa -32 + ^
STACK CFI 66030 .cfa: sp 32 +
STACK CFI 66038 .cfa: sp 0 +
STACK CFI 6603c .cfa: x29 32 +
STACK CFI 66058 .cfa: sp 32 +
STACK CFI 66060 .cfa: sp 0 +
STACK CFI INIT 66064 70 .cfa: sp 0 +
STACK CFI 66068 .cfa: sp 32 +
STACK CFI 66070 .cfa: x29 32 + x19: .cfa -8 + ^ x20: .cfa -16 + ^ .ra: .cfa -24 + ^ x29: .cfa -32 + ^
STACK CFI 66098 .cfa: sp 32 +
STACK CFI 660a0 .cfa: sp 0 +
STACK CFI 660a4 .cfa: x29 32 +
STACK CFI 660c8 .cfa: sp 32 +
STACK CFI 660d0 .cfa: sp 0 +
STACK CFI INIT 660d4 10 .cfa: sp 0 +
STACK CFI INIT 660e4 30 .cfa: sp 0 +
STACK CFI 660e8 .cfa: sp 32 +
STACK CFI 660f0 .cfa: x29 32 + x19: .cfa -16 + ^ .ra: .cfa -24 + ^ x29: .cfa -32 + ^
STACK CFI 66108 .cfa: sp 32 +
STACK CFI 66110 .cfa: sp 0 +
STACK CFI INIT 66114 4 .cfa: sp 0 +
STACK CFI INIT 66118 4 .cfa: sp 0 +
STACK CFI INIT 664dc 160 .cfa: sp 0 +
STACK CFI 664e0 .cfa: sp 64 +
STACK CFI 664ec .cfa: x29 32 + x19: .cfa -8 + ^ x20: .cfa -16 + ^ .ra: .cfa -24 + ^ x29: .cfa -32 + ^
STACK CFI 6661c .cfa: sp 64 +
STACK CFI 66628 .cfa: sp 0 +
STACK CFI 6662c .cfa: x29 32 +
STACK CFI INIT 6663c 148 .cfa: sp 0 +
STACK CFI 66640 .cfa: sp 64 +
STACK CFI 6664c .cfa: x29 32 + x19: .cfa -8 + ^ x20: .cfa -16 + ^ .ra: .cfa -24 + ^ x29: .cfa -32 + ^
STACK CFI 66764 .cfa: sp 64 +
STACK CFI 66770 .cfa: sp 0 +
STACK CFI 66774 .cfa: x29 32 +
STACK CFI INIT 66784 70 .cfa: sp 0 +
STACK CFI 66788 .cfa: sp 48 +
STACK CFI 66794 .cfa: x29 48 + x19: .cfa -8 + ^ x20: .cfa -16 + ^ x21: .cfa -32 + ^ .ra: .cfa -40 + ^ x29: .cfa -48 + ^
STACK CFI 667ac .cfa: sp 48 +
STACK CFI 667b8 .cfa: sp 0 +
STACK CFI 667bc .cfa: x29 48 +
STACK CFI 667e4 .cfa: sp 48 +
STACK CFI 667f0 .cfa: sp 0 +
STACK CFI INIT 66e14 50 .cfa: sp 0 +
STACK CFI 66e38 .cfa: sp 32 +
STACK CFI 66e40 .cfa: x29 32 + x19: .cfa -16 + ^ .ra: .cfa -24 + ^ x29: .cfa -32 + ^
STACK CFI 66e54 .cfa: sp 32 +
STACK CFI 66e5c .cfa: sp 0 +
STACK CFI INIT 66e64 458 .cfa: sp 0 +
STACK CFI INIT 672bc 3c .cfa: sp 0 +
STACK CFI 672c0 .cfa: sp 32 +
STACK CFI 672c8 .cfa: x29 32 + x19: .cfa -16 + ^ .ra: .cfa -24 + ^ x29: .cfa -32 + ^
STACK CFI 672d4 .cfa: sp 32 +
STACK CFI 672dc .cfa: sp 0 +
STACK CFI 672e0 .cfa: x29 32 +
STACK CFI 672ec .cfa: sp 32 +
STACK CFI 672f4 .cfa: sp 0 +
STACK CFI INIT 672f8 190 .cfa: sp 0 +
STACK CFI 672fc .cfa: sp 48 +
STACK CFI 67308 .cfa: x29 48 + x19: .cfa -8 + ^ x20: .cfa -16 + ^ x21: .cfa -32 + ^ .ra: .cfa -40 + ^ x29: .cfa -48 + ^
STACK CFI 6739c .cfa: sp 48 +
STACK CFI 673a8 .cfa: sp 0 +
STACK CFI 673ac .cfa: x29 48 +
STACK CFI 673b0 .cfa: sp 48 +
STACK CFI 673bc .cfa: sp 0 +
STACK CFI 673c0 .cfa: x29 48 +
STACK CFI 673f8 .cfa: sp 48 +
STACK CFI 67404 .cfa: sp 0 +
STACK CFI 67408 .cfa: x29 48 +
STACK CFI 6742c .cfa: sp 48 +
STACK CFI 67438 .cfa: sp 0 +
STACK CFI 6743c .cfa: x29 48 +
STACK CFI 67464 .cfa: sp 48 +
STACK CFI 67470 .cfa: sp 0 +
STACK CFI 67474 .cfa: x29 48 +
STACK CFI 67478 .cfa: sp 48 +
STACK CFI 67484 .cfa: sp 0 +
STACK CFI INIT 67488 374 .cfa: sp 0 +
STACK CFI 6748c .cfa: sp 32 +
STACK CFI 67494 .cfa: x29 32 + x19: .cfa -8 + ^ x20: .cfa -16 + ^ .ra: .cfa -24 + ^ x29: .cfa -32 + ^
STACK CFI 674e0 .cfa: sp 32 +
STACK CFI 674e8 .cfa: sp 0 +
STACK CFI 674ec .cfa: x29 32 +
STACK CFI 67530 .cfa: sp 32 +
STACK CFI 67538 .cfa: sp 0 +
STACK CFI 6753c .cfa: x29 32 +
STACK CFI 67540 .cfa: sp 32 +
STACK CFI 67548 .cfa: sp 0 +
STACK CFI 6754c .cfa: x29 32 +
STACK CFI 67568 .cfa: sp 32 +
STACK CFI 67570 .cfa: sp 0 +
STACK CFI 67574 .cfa: x29 32 +
STACK CFI 67668 .cfa: sp 32 +
STACK CFI 67670 .cfa: sp 0 +
STACK CFI 67674 .cfa: x29 32 +
STACK CFI 67704 .cfa: sp 32 +
STACK CFI 6770c .cfa: sp 0 +
STACK CFI 67710 .cfa: x29 32 +
STACK CFI 677e0 .cfa: sp 32 +
STACK CFI 677e8 .cfa: sp 0 +
STACK CFI 677ec .cfa: x29 32 +
STACK CFI 677f0 .cfa: sp 32 +
STACK CFI 677f8 .cfa: sp 0 +
STACK CFI INIT 677fc 3e8 .cfa: sp 0 +
STACK CFI 67800 .cfa: sp 208 +
STACK CFI 67818 .cfa: x29 32 + x19: .cfa -16 + ^ .ra: .cfa -24 + ^ x29: .cfa -32 + ^ v8: .cfa -40 + ^ v9: .cfa -48 + ^ v10: .cfa -56 + ^ v11: .cfa -64 + ^ v12: .cfa -72 + ^ v13: .cfa -80 + ^
STACK CFI 678d4 .cfa: sp 208 +
STACK CFI 678ec .cfa: sp 0 +
STACK CFI 678f0 .cfa: x29 32 +
STACK CFI INIT 67be4 13c .cfa: sp 0 +
STACK CFI INIT 67d20 104 .cfa: sp 0 +
STACK CFI INIT 67e24 470 .cfa: sp 0 +
STACK CFI 67e28 .cfa: sp 224 +
STACK CFI 67e44 .cfa: x29 48 + x19: .cfa -8 + ^ x20: .cfa -16 + ^ x21: .cfa -24 + ^ x22: .cfa -32 + ^ .ra: .cfa -40 + ^ x29: .cfa -48 + ^ v8: .cfa -56 + ^ v9: .cfa -64 + ^ v10: .cfa -72 + ^ v11: .cfa -80 + ^ v12: .cfa -88 + ^ v13: .cfa -96 + ^
STACK CFI 68104 .cfa: sp 224 +
STACK CFI 68120 .cfa: sp 0 +
STACK CFI 68124 .cfa: x29 48 +
STACK CFI INIT 68294 108 .cfa: sp 0 +
STACK CFI 68298 .cfa: sp 176 +
STACK CFI 682a4 .cfa: x29 32 + x19: .cfa -16 + ^ .ra: .cfa -24 + ^ x29: .cfa -32 + ^
STACK CFI 68388 .cfa: sp 176 +
STACK CFI 68394 .cfa: sp 0 +
STACK CFI 68398 .cfa: x29 32 +
STACK CFI INIT 6839c 27c .cfa: sp 0 +
STACK CFI 683a0 .cfa: sp 128 +
STACK CFI 683b0 .cfa: x29 48 + x19: .cfa -8 + ^ x20: .cfa -16 + ^ x21: .cfa -24 + ^ x22: .cfa -32 + ^ .ra: .cfa -40 + ^ x29: .cfa -48 + ^
STACK CFI 68600 .cfa: sp 128 +
STACK CFI 68610 .cfa: sp 0 +
STACK CFI 68614 .cfa: x29 48 +
STACK CFI INIT 68618 14c .cfa: sp 0 +
STACK CFI INIT 68764 16c .cfa: sp 0 +
STACK CFI INIT 688d0 17c .cfa: sp 0 +
STACK CFI INIT 68a4c 164 .cfa: sp 0 +
STACK CFI INIT 68bb0 2c8 .cfa: sp 0 +
STACK CFI 68bb4 .cfa: sp 176 +
STACK CFI 68bcc x19: .cfa -8 + ^ x20: .cfa -16 + ^ x21: .cfa -24 + ^ x22: .cfa -32 + ^ x23: .cfa -40 + ^ x24: .cfa -48 + ^ x25: .cfa -56 + ^ x26: .cfa -64 + ^ x27: .cfa -72 + ^ x28: .cfa -80 + ^ .ra: .cfa -88 + ^ x29: .cfa -96 + ^
STACK CFI 68e74 .cfa: sp 0 +
STACK CFI INIT 68e78 104 .cfa: sp 0 +
STACK CFI INIT 68f7c 110 .cfa: sp 0 +
STACK CFI INIT 6908c 154 .cfa: sp 0 +
STACK CFI INIT 691e0 444 .cfa: sp 0 +
STACK CFI 69218 .cfa: sp 64 +
STACK CFI 69224 x19: .cfa -8 + ^ x20: .cfa -16 + ^ x21: .cfa -24 + ^ x22: .cfa -32 + ^ x23: .cfa -40 + ^ x24: .cfa -48 + ^ x25: .cfa -64 + ^
STACK CFI 69470 .cfa: sp 0 +
STACK CFI 69474 .cfa: sp 64 +
STACK CFI 69608 .cfa: sp 0 +
STACK CFI 6960c .cfa: sp 64 +
STACK CFI 69620 .cfa: sp 0 +
STACK CFI INIT 69624 340 .cfa: sp 0 +
STACK CFI 69628 .cfa: sp 64 +
STACK CFI 69638 .cfa: x29 48 + x19: .cfa -8 + ^ x20: .cfa -16 + ^ x21: .cfa -32 + ^ .ra: .cfa -40 + ^ x29: .cfa -48 + ^ v8: .cfa -56 + ^ v9: .cfa -64 + ^
STACK CFI 698d0 .cfa: sp 64 +
STACK CFI 698e0 .cfa: sp 0 +
STACK CFI 698e4 .cfa: x29 48 +
STACK CFI 69908 .cfa: sp 64 +
STACK CFI 69918 .cfa: sp 0 +
STACK CFI 6991c .cfa: x29 48 +
STACK CFI 69924 .cfa: sp 64 +
STACK CFI 69934 .cfa: sp 0 +
STACK CFI 69938 .cfa: x29 48 +
STACK CFI 69940 .cfa: sp 64 +
STACK CFI 69950 .cfa: sp 0 +
STACK CFI 69954 .cfa: x29 48 +
STACK CFI INIT 69964 310 .cfa: sp 0 +
STACK CFI 6999c .cfa: sp 48 +
STACK CFI 699a4 x19: .cfa -8 + ^ x20: .cfa -16 + ^ x21: .cfa -24 + ^ x22: .cfa -32 + ^ x23: .cfa -40 + ^ x24: .cfa -48 + ^
STACK CFI 69c70 .cfa: sp 0 +
STACK CFI INIT 69c74 860 .cfa: sp 0 +
STACK CFI 69c78 .cfa: sp 160 +
STACK CFI 69c9c x19: .cfa -8 + ^ x20: .cfa -16 + ^ x21: .cfa -24 + ^ x22: .cfa -32 + ^ x23: .cfa -40 + ^ x24: .cfa -48 + ^ x25: .cfa -56 + ^ x26: .cfa -64 + ^ x27: .cfa -72 + ^ x28: .cfa -80 + ^ .ra: .cfa -88 + ^ x29: .cfa -96 + ^ v8: .cfa -104 + ^ v9: .cfa -112 + ^ v10: .cfa -120 + ^ v11: .cfa -128 + ^ v12: .cfa -136 + ^ v13: .cfa -144 + ^ v14: .cfa -152 + ^ v15: .cfa -160 + ^
STACK CFI 6a4d0 .cfa: sp 0 +
STACK CFI INIT 6a4d4 8c8 .cfa: sp 0 +
STACK CFI 6a4d8 .cfa: sp 160 +
STACK CFI 6a4fc x19: .cfa -8 + ^ x20: .cfa -16 + ^ x21: .cfa -24 + ^ x22: .cfa -32 + ^ x23: .cfa -40 + ^ x24: .cfa -48 + ^ x25: .cfa -56 + ^ x26: .cfa -64 + ^ x27: .cfa -72 + ^ x28: .cfa -80 + ^ .ra: .cfa -88 + ^ x29: .cfa -96 + ^ v8: .cfa -104 + ^ v9: .cfa -112 + ^ v10: .cfa -120 + ^ v11: .cfa -128 + ^ v12: .cfa -136 + ^ v13: .cfa -144 + ^ v14: .cfa -152 + ^ v15: .cfa -160 + ^
STACK CFI 6ad98 .cfa: sp 0 +
STACK CFI INIT 6ad9c 644 .cfa: sp 0 +
STACK CFI 6ada0 .cfa: sp 160 +
STACK CFI 6adc0 .cfa: x29 48 + x19: .cfa -8 + ^ x20: .cfa -16 + ^ x21: .cfa -32 + ^ .ra: .cfa -40 + ^ x29: .cfa -48 + ^ v8: .cfa -56 + ^ v9: .cfa -64 + ^ v10: .cfa -72 + ^ v11: .cfa -80 + ^ v12: .cfa -88 + ^ v13: .cfa -96 + ^ v14: .cfa -104 + ^ v15: .cfa -112 + ^
STACK CFI 6b3bc .cfa: sp 160 +
STACK CFI 6b3dc .cfa: sp 0 +
STACK CFI INIT 6b3e0 65c .cfa: sp 0 +
STACK CFI 6b3e4 .cfa: sp 160 +
STACK CFI 6b404 .cfa: x29 48 + x19: .cfa -8 + ^ x20: .cfa -16 + ^ x21: .cfa -32 + ^ .ra: .cfa -40 + ^ x29: .cfa -48 + ^ v8: .cfa -56 + ^ v9: .cfa -64 + ^ v10: .cfa -72 + ^ v11: .cfa -80 + ^ v12: .cfa -88 + ^ v13: .cfa -96 + ^ v14: .cfa -104 + ^ v15: .cfa -112 + ^
STACK CFI 6ba18 .cfa: sp 160 +
STACK CFI 6ba38 .cfa: sp 0 +
STACK CFI INIT 6ba3c 5a4 .cfa: sp 0 +
STACK CFI 6ba40 .cfa: sp 80 +
STACK CFI 6ba50 x19: .cfa -8 + ^ x20: .cfa -16 + ^ v8: .cfa -24 + ^ v9: .cfa -32 + ^ v10: .cfa -40 + ^ v11: .cfa -48 + ^ v12: .cfa -56 + ^ v13: .cfa -64 + ^ v14: .cfa -80 + ^
STACK CFI 6ba94 .cfa: sp 0 +
STACK CFI 6ba98 .cfa: sp 80 +
STACK CFI INIT 6bfe0 5f0 .cfa: sp 0 +
STACK CFI 6bfe4 .cfa: sp 80 +
STACK CFI 6bff4 x19: .cfa -8 + ^ x20: .cfa -16 + ^ v8: .cfa -24 + ^ v9: .cfa -32 + ^ v10: .cfa -40 + ^ v11: .cfa -48 + ^ v12: .cfa -56 + ^ v13: .cfa -64 + ^ v14: .cfa -80 + ^
STACK CFI 6c038 .cfa: sp 0 +
STACK CFI 6c03c .cfa: sp 80 +
STACK CFI INIT 6c5d0 790 .cfa: sp 0 +
STACK CFI 6c5d4 .cfa: sp 144 +
STACK CFI 6c5f4 x19: .cfa -8 + ^ x20: .cfa -16 + ^ x21: .cfa -24 + ^ x22: .cfa -32 + ^ x23: .cfa -40 + ^ x24: .cfa -48 + ^ x25: .cfa -56 + ^ x26: .cfa -64 + ^ x27: .cfa -80 + ^ v8: .cfa -88 + ^ v9: .cfa -96 + ^ v10: .cfa -104 + ^ v11: .cfa -112 + ^ v12: .cfa -120 + ^ v13: .cfa -128 + ^ v14: .cfa -136 + ^ v15: .cfa -144 + ^
STACK CFI 6cd5c .cfa: sp 0 +
STACK CFI INIT 6cd60 5a4 .cfa: sp 0 +
STACK CFI 6cd64 .cfa: sp 160 +
STACK CFI 6cd84 .cfa: x29 48 + x19: .cfa -8 + ^ x20: .cfa -16 + ^ x21: .cfa -32 + ^ .ra: .cfa -40 + ^ x29: .cfa -48 + ^ v8: .cfa -56 + ^ v9: .cfa -64 + ^ v10: .cfa -72 + ^ v11: .cfa -80 + ^ v12: .cfa -88 + ^ v13: .cfa -96 + ^ v14: .cfa -104 + ^ v15: .cfa -112 + ^
STACK CFI 6d2e0 .cfa: sp 160 +
STACK CFI 6d300 .cfa: sp 0 +
STACK CFI INIT 6d304 4c0 .cfa: sp 0 +
STACK CFI 6d308 .cfa: sp 32 +
STACK CFI 6d30c v8: .cfa -8 + ^ v9: .cfa -16 + ^ v10: .cfa -24 + ^ v11: .cfa -32 + ^
STACK CFI 6d344 .cfa: sp 0 +
STACK CFI 6d348 .cfa: sp 32 +
STACK CFI 6d7c0 .cfa: sp 0 +
STACK CFI INIT 6d7c4 164 .cfa: sp 0 +
STACK CFI INIT 6d928 180 .cfa: sp 0 +
STACK CFI INIT 6daa8 2c4 .cfa: sp 0 +
STACK CFI 6daac .cfa: sp 48 +
STACK CFI 6dab4 x19: .cfa -8 + ^ x20: .cfa -16 + ^ x21: .cfa -24 + ^ x22: .cfa -32 + ^ x23: .cfa -48 + ^
STACK CFI 6dbbc .cfa: sp 0 +
STACK CFI 6dbc0 .cfa: sp 48 +
STACK CFI 6dd18 .cfa: sp 0 +
STACK CFI 6dd1c .cfa: sp 48 +
STACK CFI 6dd68 .cfa: sp 0 +
STACK CFI INIT 6dd6c 34c .cfa: sp 0 +
STACK CFI 6dd70 .cfa: sp 64 +
STACK CFI 6dd7c x19: .cfa -8 + ^ x20: .cfa -16 + ^ x21: .cfa -24 + ^ x22: .cfa -32 + ^ x23: .cfa -40 + ^ x24: .cfa -48 + ^ x25: .cfa -56 + ^ x26: .cfa -64 + ^
STACK CFI 6dec8 .cfa: sp 0 +
STACK CFI 6decc .cfa: sp 64 +
STACK CFI 6e060 .cfa: sp 0 +
STACK CFI 6e064 .cfa: sp 64 +
STACK CFI 6e0b4 .cfa: sp 0 +
STACK CFI INIT 6e0b8 180 .cfa: sp 0 +
STACK CFI INIT 6e238 164 .cfa: sp 0 +
STACK CFI INIT 6e39c 4b0 .cfa: sp 0 +
STACK CFI 6e3a0 .cfa: sp 16 + x19: .cfa -8 + ^ x20: .cfa -16 + ^
STACK CFI 6e828 .cfa: sp 0 +
STACK CFI 6e82c .cfa: sp 16 +
STACK CFI 6e83c .cfa: sp 0 +
STACK CFI 6e840 .cfa: sp 16 +
STACK CFI 6e848 .cfa: sp 0 +
STACK CFI INIT 6e84c 4ec .cfa: sp 0 +
STACK CFI 6e850 .cfa: sp 16 + x19: .cfa -8 + ^ x20: .cfa -16 + ^
STACK CFI 6ed14 .cfa: sp 0 +
STACK CFI 6ed18 .cfa: sp 16 +
STACK CFI 6ed28 .cfa: sp 0 +
STACK CFI 6ed2c .cfa: sp 16 +
STACK CFI 6ed34 .cfa: sp 0 +
STACK CFI INIT 6ed38 4d8 .cfa: sp 0 +
STACK CFI 6ed3c .cfa: sp 16 + x19: .cfa -16 + ^
STACK CFI 6f07c .cfa: sp 0 +
STACK CFI 6f080 .cfa: sp 16 +
STACK CFI 6f1fc .cfa: sp 0 +
STACK CFI 6f200 .cfa: sp 16 +
STACK CFI 6f20c .cfa: sp 0 +
STACK CFI INIT 6f210 514 .cfa: sp 0 +
STACK CFI 6f214 .cfa: sp 16 + x19: .cfa -16 + ^
STACK CFI 6f56c .cfa: sp 0 +
STACK CFI 6f570 .cfa: sp 16 +
STACK CFI 6f710 .cfa: sp 0 +
STACK CFI 6f714 .cfa: sp 16 +
STACK CFI 6f720 .cfa: sp 0 +
STACK CFI INIT 6f724 4 .cfa: sp 0 +
STACK CFI INIT 6f728 4 .cfa: sp 0 +
STACK CFI INIT 6f72c 488 .cfa: sp 0 +
STACK CFI 6f734 .cfa: sp 16 + x19: .cfa -16 + ^
STACK CFI 6fb90 .cfa: sp 0 +
STACK CFI 6fb94 .cfa: sp 16 +
STACK CFI 6fb9c .cfa: sp 0 +
STACK CFI 6fba0 .cfa: sp 16 +
STACK CFI 6fba8 .cfa: sp 0 +
STACK CFI INIT 6fbb4 4c0 .cfa: sp 0 +
STACK CFI INIT 70074 1a8 .cfa: sp 0 +
STACK CFI INIT 7021c 1c4 .cfa: sp 0 +
STACK CFI INIT 703e0 1b4 .cfa: sp 0 +
STACK CFI INIT 70594 1cc .cfa: sp 0 +
STACK CFI INIT 70760 1ac .cfa: sp 0 +
STACK CFI INIT 7090c 204 .cfa: sp 0 +
STACK CFI INIT 70b10 fc .cfa: sp 0 +
STACK CFI INIT 70c0c 4 .cfa: sp 0 +
STACK CFI INIT 70c10 1b8 .cfa: sp 0 +
STACK CFI INIT 70dc8 1f8 .cfa: sp 0 +
STACK CFI 70dcc .cfa: sp 16 + x19: .cfa -16 + ^
STACK CFI 70f04 .cfa: sp 0 +
STACK CFI 70f08 .cfa: sp 16 +
STACK CFI 70fbc .cfa: sp 0 +
STACK CFI INIT 70fc0 264 .cfa: sp 0 +
STACK CFI INIT 71224 2d0 .cfa: sp 0 +
STACK CFI INIT 714f4 4 .cfa: sp 0 +
STACK CFI INIT 714f8 4 .cfa: sp 0 +
STACK CFI INIT 714fc 4 .cfa: sp 0 +
STACK CFI INIT 71500 4 .cfa: sp 0 +
STACK CFI INIT 71504 e0 .cfa: sp 0 +
STACK CFI INIT 715e4 200 .cfa: sp 0 +
STACK CFI INIT 717e4 20c .cfa: sp 0 +
STACK CFI INIT 719f0 35c .cfa: sp 0 +
STACK CFI 71a7c .cfa: sp 32 +
STACK CFI 71a80 v8: .cfa -8 + ^ v9: .cfa -16 + ^ v10: .cfa -32 + ^
STACK CFI 71a94 .cfa: sp 0 +
STACK CFI 71a98 .cfa: sp 32 +
STACK CFI 71d48 .cfa: sp 0 +
STACK CFI INIT 71d4c 368 .cfa: sp 0 +
STACK CFI 71d60 .cfa: sp 32 +
STACK CFI 71d64 v8: .cfa -8 + ^ v9: .cfa -16 + ^ v10: .cfa -32 + ^
STACK CFI 71e04 .cfa: sp 0 + v8: v8 v9: v9 v10: v10
STACK CFI INIT 720b4 8 .cfa: sp 0 +
STACK CFI INIT 720bc 8 .cfa: sp 0 +
STACK CFI INIT 720c4 58 .cfa: sp 0 +
STACK CFI INIT 7211c 408 .cfa: sp 0 +
STACK CFI 72120 .cfa: sp 16 + v8: .cfa -16 + ^
STACK CFI 72520 .cfa: sp 0 +
STACK CFI INIT 72524 42c .cfa: sp 0 +
STACK CFI 72528 .cfa: sp 16 + v8: .cfa -16 + ^
STACK CFI 7294c .cfa: sp 0 +
STACK CFI INIT 72950 8 .cfa: sp 0 +
STACK CFI INIT 72958 8 .cfa: sp 0 +
STACK CFI INIT 72960 200 .cfa: sp 0 +
STACK CFI INIT 72b60 20c .cfa: sp 0 +
STACK CFI INIT 72d6c 39c .cfa: sp 0 +
STACK CFI INIT 73108 22c .cfa: sp 0 +
STACK CFI INIT 73334 150 .cfa: sp 0 +
STACK CFI INIT 73484 35c .cfa: sp 0 +
STACK CFI 73510 .cfa: sp 32 +
STACK CFI 73514 v8: .cfa -8 + ^ v9: .cfa -16 + ^ v10: .cfa -32 + ^
STACK CFI 73528 .cfa: sp 0 +
STACK CFI 7352c .cfa: sp 32 +
STACK CFI 737dc .cfa: sp 0 +
STACK CFI INIT 737e0 60 .cfa: sp 0 +
STACK CFI INIT 73840 fc .cfa: sp 0 +
STACK CFI 73844 .cfa: sp 64 +
STACK CFI 73850 .cfa: x29 32 + x19: .cfa -8 + ^ x20: .cfa -16 + ^ .ra: .cfa -24 + ^ x29: .cfa -32 + ^
STACK CFI 738dc .cfa: sp 64 +
STACK CFI 738e8 .cfa: sp 0 +
STACK CFI 738ec .cfa: x29 32 +
STACK CFI INIT 7393c 7f4 .cfa: sp 0 +
STACK CFI 73940 .cfa: sp 112 +
STACK CFI 7395c .cfa: x29 96 + x19: .cfa -8 + ^ x20: .cfa -16 + ^ x21: .cfa -24 + ^ x22: .cfa -32 + ^ x23: .cfa -40 + ^ x24: .cfa -48 + ^ x25: .cfa -56 + ^ x26: .cfa -64 + ^ x27: .cfa -72 + ^ x28: .cfa -80 + ^ .ra: .cfa -88 + ^ x29: .cfa -96 + ^ v8: .cfa -104 + ^ v9: .cfa -112 + ^
STACK CFI 740b4 .cfa: sp 112 +
STACK CFI 740d0 .cfa: sp 0 +
STACK CFI 740d4 .cfa: x29 96 +
STACK CFI INIT 74130 968 .cfa: sp 0 +
STACK CFI 74134 .cfa: sp 112 +
STACK CFI 74150 .cfa: x29 96 + x19: .cfa -8 + ^ x20: .cfa -16 + ^ x21: .cfa -24 + ^ x22: .cfa -32 + ^ x23: .cfa -40 + ^ x24: .cfa -48 + ^ x25: .cfa -56 + ^ x26: .cfa -64 + ^ x27: .cfa -72 + ^ x28: .cfa -80 + ^ .ra: .cfa -88 + ^ x29: .cfa -96 + ^ v8: .cfa -104 + ^ v9: .cfa -112 + ^
STACK CFI 74988 .cfa: sp 112 +
STACK CFI 749a4 .cfa: sp 0 +
STACK CFI 749a8 .cfa: x29 96 +
STACK CFI INIT 74a98 7b4 .cfa: sp 0 +
STACK CFI 74a9c .cfa: sp 96 +
STACK CFI 74ab4 .cfa: x29 96 + x19: .cfa -8 + ^ x20: .cfa -16 + ^ x21: .cfa -24 + ^ x22: .cfa -32 + ^ x23: .cfa -40 + ^ x24: .cfa -48 + ^ x25: .cfa -56 + ^ x26: .cfa -64 + ^ x27: .cfa -72 + ^ x28: .cfa -80 + ^ .ra: .cfa -88 + ^ x29: .cfa -96 + ^
STACK CFI 751cc .cfa: sp 96 +
STACK CFI 751e4 .cfa: sp 0 +
STACK CFI 751e8 .cfa: x29 96 +
STACK CFI INIT 7524c 91c .cfa: sp 0 +
STACK CFI 75250 .cfa: sp 96 +
STACK CFI 75268 .cfa: x29 96 + x19: .cfa -8 + ^ x20: .cfa -16 + ^ x21: .cfa -24 + ^ x22: .cfa -32 + ^ x23: .cfa -40 + ^ x24: .cfa -48 + ^ x25: .cfa -56 + ^ x26: .cfa -64 + ^ x27: .cfa -72 + ^ x28: .cfa -80 + ^ .ra: .cfa -88 + ^ x29: .cfa -96 + ^
STACK CFI 75a5c .cfa: sp 96 +
STACK CFI 75a74 .cfa: sp 0 +
STACK CFI 75a78 .cfa: x29 96 +
STACK CFI INIT 75b68 40 .cfa: sp 0 +
STACK CFI INIT 75ba8 60 .cfa: sp 0 +
STACK CFI INIT 75c08 fc .cfa: sp 0 +
STACK CFI 75c0c .cfa: sp 64 +
STACK CFI 75c18 .cfa: x29 32 + x19: .cfa -8 + ^ x20: .cfa -16 + ^ .ra: .cfa -24 + ^ x29: .cfa -32 + ^
STACK CFI 75ca4 .cfa: sp 64 +
STACK CFI 75cb0 .cfa: sp 0 +
STACK CFI 75cb4 .cfa: x29 32 +
STACK CFI INIT 75d04 838 .cfa: sp 0 +
STACK CFI 75d08 .cfa: sp 112 +
STACK CFI 75d24 .cfa: x29 96 + x19: .cfa -8 + ^ x20: .cfa -16 + ^ x21: .cfa -24 + ^ x22: .cfa -32 + ^ x23: .cfa -40 + ^ x24: .cfa -48 + ^ x25: .cfa -56 + ^ x26: .cfa -64 + ^ x27: .cfa -72 + ^ x28: .cfa -80 + ^ .ra: .cfa -88 + ^ x29: .cfa -96 + ^ v8: .cfa -104 + ^ v9: .cfa -112 + ^
STACK CFI 764c0 .cfa: sp 112 +
STACK CFI 764dc .cfa: sp 0 +
STACK CFI 764e0 .cfa: x29 96 +
STACK CFI INIT 7653c a0c .cfa: sp 0 +
STACK CFI 76540 .cfa: sp 112 +
STACK CFI 7655c .cfa: x29 96 + x19: .cfa -8 + ^ x20: .cfa -16 + ^ x21: .cfa -24 + ^ x22: .cfa -32 + ^ x23: .cfa -40 + ^ x24: .cfa -48 + ^ x25: .cfa -56 + ^ x26: .cfa -64 + ^ x27: .cfa -72 + ^ x28: .cfa -80 + ^ .ra: .cfa -88 + ^ x29: .cfa -96 + ^ v8: .cfa -104 + ^ v9: .cfa -112 + ^
STACK CFI 76dd8 .cfa: sp 112 +
STACK CFI 76df4 .cfa: sp 0 +
STACK CFI 76df8 .cfa: x29 96 +
STACK CFI INIT 76f48 7ec .cfa: sp 0 +
STACK CFI 76f4c .cfa: sp 96 +
STACK CFI 76f64 .cfa: x29 96 + x19: .cfa -8 + ^ x20: .cfa -16 + ^ x21: .cfa -24 + ^ x22: .cfa -32 + ^ x23: .cfa -40 + ^ x24: .cfa -48 + ^ x25: .cfa -56 + ^ x26: .cfa -64 + ^ x27: .cfa -72 + ^ x28: .cfa -80 + ^ .ra: .cfa -88 + ^ x29: .cfa -96 + ^
STACK CFI 776bc .cfa: sp 96 +
STACK CFI 776d4 .cfa: sp 0 +
STACK CFI 776d8 .cfa: x29 96 +
STACK CFI INIT 77734 9b8 .cfa: sp 0 +
STACK CFI 77738 .cfa: sp 96 +
STACK CFI 77750 .cfa: x29 96 + x19: .cfa -8 + ^ x20: .cfa -16 + ^ x21: .cfa -24 + ^ x22: .cfa -32 + ^ x23: .cfa -40 + ^ x24: .cfa -48 + ^ x25: .cfa -56 + ^ x26: .cfa -64 + ^ x27: .cfa -72 + ^ x28: .cfa -80 + ^ .ra: .cfa -88 + ^ x29: .cfa -96 + ^
STACK CFI 77f84 .cfa: sp 96 +
STACK CFI 77f9c .cfa: sp 0 +
STACK CFI 77fa0 .cfa: x29 96 +
STACK CFI INIT 780ec 40 .cfa: sp 0 +
STACK CFI INIT 7812c 40 .cfa: sp 0 +
STACK CFI INIT 7816c 1d0 .cfa: sp 0 +
STACK CFI INIT 7833c 9c .cfa: sp 0 +
STACK CFI 78340 .cfa: sp 48 +
STACK CFI 7834c .cfa: x29 48 + x19: .cfa -8 + ^ x20: .cfa -16 + ^ x21: .cfa -24 + ^ x22: .cfa -32 + ^ .ra: .cfa -40 + ^ x29: .cfa -48 + ^
STACK CFI 78380 .cfa: sp 48 +
STACK CFI 7838c .cfa: sp 0 +
STACK CFI 78390 .cfa: x29 48 +
STACK CFI 783c0 .cfa: sp 48 +
STACK CFI 783cc .cfa: sp 0 +
STACK CFI 783d0 .cfa: x29 48 +
STACK CFI INIT 783d8 9c .cfa: sp 0 +
STACK CFI 783dc .cfa: sp 48 +
STACK CFI 783e8 .cfa: x29 48 + x19: .cfa -8 + ^ x20: .cfa -16 + ^ x21: .cfa -24 + ^ x22: .cfa -32 + ^ .ra: .cfa -40 + ^ x29: .cfa -48 + ^
STACK CFI 7841c .cfa: sp 48 +
STACK CFI 78428 .cfa: sp 0 +
STACK CFI 7842c .cfa: x29 48 +
STACK CFI 7845c .cfa: sp 48 +
STACK CFI 78468 .cfa: sp 0 +
STACK CFI 7846c .cfa: x29 48 +
STACK CFI INIT 78474 8 .cfa: sp 0 +
STACK CFI INIT 7847c 278 .cfa: sp 0 +
STACK CFI INIT 786f4 1fc .cfa: sp 0 +
STACK CFI INIT 788f0 38c .cfa: sp 0 +
STACK CFI 7896c .cfa: sp 80 +
STACK CFI 7897c x19: .cfa -8 + ^ x20: .cfa -16 + ^ x21: .cfa -24 + ^ x22: .cfa -32 + ^ x23: .cfa -40 + ^ x24: .cfa -48 + ^ x25: .cfa -56 + ^ x26: .cfa -64 + ^ x27: .cfa -72 + ^ x28: .cfa -80 + ^
STACK CFI 78bf4 .cfa: sp 0 +
STACK CFI 78c38 .cfa: sp 80 +
STACK CFI 78c78 .cfa: sp 0 +
STACK CFI INIT 78c7c 30c .cfa: sp 0 +
STACK CFI INIT 78f88 358 .cfa: sp 0 +
STACK CFI INIT 792e0 3b0 .cfa: sp 0 +
STACK CFI 792e4 .cfa: sp 80 +
STACK CFI 792f8 .cfa: x29 64 + x19: .cfa -8 + ^ x20: .cfa -16 + ^ x21: .cfa -24 + ^ x22: .cfa -32 + ^ x23: .cfa -48 + ^ .ra: .cfa -56 + ^ x29: .cfa -64 + ^
STACK CFI 7956c .cfa: sp 80 +
STACK CFI 79580 .cfa: sp 0 +
STACK CFI 79584 .cfa: x29 64 +
STACK CFI INIT 79690 40c .cfa: sp 0 +
STACK CFI 79694 .cfa: sp 96 +
STACK CFI 796ac .cfa: x29 80 + x19: .cfa -8 + ^ x20: .cfa -16 + ^ x21: .cfa -24 + ^ x22: .cfa -32 + ^ x23: .cfa -40 + ^ x24: .cfa -48 + ^ x25: .cfa -56 + ^ x26: .cfa -64 + ^ .ra: .cfa -72 + ^ x29: .cfa -80 + ^
STACK CFI 79a7c .cfa: sp 96 +
STACK CFI 79a94 .cfa: sp 0 +
STACK CFI 79a98 .cfa: x29 80 +
STACK CFI INIT 79a9c 4c .cfa: sp 0 +
STACK CFI 79aa0 .cfa: sp 32 +
STACK CFI 79aa8 .cfa: x29 32 + x19: .cfa -8 + ^ x20: .cfa -16 + ^ .ra: .cfa -24 + ^ x29: .cfa -32 + ^
STACK CFI 79ad0 .cfa: sp 32 +
STACK CFI 79ad8 .cfa: sp 0 +
STACK CFI 79adc .cfa: sp 32 +
STACK CFI 79ae4 .cfa: sp 0 +
STACK CFI INIT 79d08 64 .cfa: sp 0 +
STACK CFI 79d0c .cfa: sp 32 +
STACK CFI 79d14 .cfa: x29 32 + x19: .cfa -16 + ^ .ra: .cfa -24 + ^ x29: .cfa -32 + ^
STACK CFI 79d40 .cfa: sp 32 +
STACK CFI 79d48 .cfa: sp 0 +
STACK CFI 79d4c .cfa: x29 32 +
STACK CFI 79d60 .cfa: sp 32 +
STACK CFI 79d68 .cfa: sp 0 +
STACK CFI INIT 79d6c 24 .cfa: sp 0 +
STACK CFI 79d70 .cfa: sp 32 +
STACK CFI 79d78 .cfa: x29 32 + x19: .cfa -16 + ^ .ra: .cfa -24 + ^ x29: .cfa -32 + ^
STACK CFI 79d84 .cfa: sp 32 +
STACK CFI 79d8c .cfa: sp 0 +
STACK CFI INIT 79fec 24 .cfa: sp 0 +
STACK CFI 79ff0 .cfa: sp 32 +
STACK CFI 79ff8 .cfa: x29 32 + x19: .cfa -16 + ^ .ra: .cfa -24 + ^ x29: .cfa -32 + ^
STACK CFI 7a004 .cfa: sp 32 +
STACK CFI 7a00c .cfa: sp 0 +
STACK CFI INIT 7a27c 24 .cfa: sp 0 +
STACK CFI 7a280 .cfa: sp 32 +
STACK CFI 7a288 .cfa: x29 32 + x19: .cfa -16 + ^ .ra: .cfa -24 + ^ x29: .cfa -32 + ^
STACK CFI 7a294 .cfa: sp 32 +
STACK CFI 7a29c .cfa: sp 0 +
STACK CFI INIT 7a2a0 8 .cfa: sp 0 +
STACK CFI INIT 7a2a8 24 .cfa: sp 0 +
STACK CFI 7a2ac .cfa: sp 32 +
STACK CFI 7a2b4 .cfa: x29 32 + x19: .cfa -16 + ^ .ra: .cfa -24 + ^ x29: .cfa -32 + ^
STACK CFI 7a2c0 .cfa: sp 32 +
STACK CFI 7a2c8 .cfa: sp 0 +
STACK CFI INIT 7a2cc 28 .cfa: sp 0 +
STACK CFI 7a2d0 .cfa: sp 32 +
STACK CFI 7a2d8 .cfa: x29 32 + x19: .cfa -16 + ^ .ra: .cfa -24 + ^ x29: .cfa -32 + ^
STACK CFI 7a2e8 .cfa: sp 32 +
STACK CFI 7a2f0 .cfa: sp 0 +
STACK CFI INIT 7a5f4 8 .cfa: sp 0 +
STACK CFI INIT 7a5fc 24 .cfa: sp 0 +
STACK CFI 7a600 .cfa: sp 32 +
STACK CFI 7a608 .cfa: x29 32 + x19: .cfa -16 + ^ .ra: .cfa -24 + ^ x29: .cfa -32 + ^
STACK CFI 7a614 .cfa: sp 32 +
STACK CFI 7a61c .cfa: sp 0 +
STACK CFI INIT 7a620 28 .cfa: sp 0 +
STACK CFI 7a624 .cfa: sp 32 +
STACK CFI 7a62c .cfa: x29 32 + x19: .cfa -16 + ^ .ra: .cfa -24 + ^ x29: .cfa -32 + ^
STACK CFI 7a63c .cfa: sp 32 +
STACK CFI 7a644 .cfa: sp 0 +
STACK CFI INIT 7a8ac 8 .cfa: sp 0 +
STACK CFI INIT 7a8b4 24 .cfa: sp 0 +
STACK CFI 7a8b8 .cfa: sp 32 +
STACK CFI 7a8c0 .cfa: x29 32 + x19: .cfa -16 + ^ .ra: .cfa -24 + ^ x29: .cfa -32 + ^
STACK CFI 7a8cc .cfa: sp 32 +
STACK CFI 7a8d4 .cfa: sp 0 +
STACK CFI INIT 7a8d8 28 .cfa: sp 0 +
STACK CFI 7a8dc .cfa: sp 32 +
STACK CFI 7a8e4 .cfa: x29 32 + x19: .cfa -16 + ^ .ra: .cfa -24 + ^ x29: .cfa -32 + ^
STACK CFI 7a8f4 .cfa: sp 32 +
STACK CFI 7a8fc .cfa: sp 0 +
STACK CFI INIT 7ab70 24 .cfa: sp 0 +
STACK CFI 7ab74 .cfa: sp 32 +
STACK CFI 7ab7c .cfa: x29 32 + x19: .cfa -16 + ^ .ra: .cfa -24 + ^ x29: .cfa -32 + ^
STACK CFI 7ab88 .cfa: sp 32 +
STACK CFI 7ab90 .cfa: sp 0 +
STACK CFI INIT 7b24c 24 .cfa: sp 0 +
STACK CFI 7b250 .cfa: sp 32 +
STACK CFI 7b258 .cfa: x29 32 + x19: .cfa -16 + ^ .ra: .cfa -24 + ^ x29: .cfa -32 + ^
STACK CFI 7b264 .cfa: sp 32 +
STACK CFI 7b26c .cfa: sp 0 +
STACK CFI INIT 7b270 8 .cfa: sp 0 +
STACK CFI INIT 7b278 24 .cfa: sp 0 +
STACK CFI 7b27c .cfa: sp 32 +
STACK CFI 7b284 .cfa: x29 32 + x19: .cfa -16 + ^ .ra: .cfa -24 + ^ x29: .cfa -32 + ^
STACK CFI 7b290 .cfa: sp 32 +
STACK CFI 7b298 .cfa: sp 0 +
STACK CFI INIT 7b29c 28 .cfa: sp 0 +
STACK CFI 7b2a0 .cfa: sp 32 +
STACK CFI 7b2a8 .cfa: x29 32 + x19: .cfa -16 + ^ .ra: .cfa -24 + ^ x29: .cfa -32 + ^
STACK CFI 7b2b8 .cfa: sp 32 +
STACK CFI 7b2c0 .cfa: sp 0 +
STACK CFI INIT 7b57c 4 .cfa: sp 0 +
STACK CFI INIT 7c720 4 .cfa: sp 0 +
STACK CFI INIT 7c724 14 .cfa: sp 0 +
STACK CFI INIT 7cc44 c .cfa: sp 0 +
STACK CFI INIT 7cc50 24c .cfa: sp 0 +
STACK CFI INIT 7ce9c a0 .cfa: sp 0 +
STACK CFI 7cea8 .cfa: sp 32 +
STACK CFI 7cf00 .cfa: sp 0 +
STACK CFI 7cf04 .cfa: sp 32 +
STACK CFI 7cf0c .cfa: sp 0 +
STACK CFI 7cf10 .cfa: sp 32 +
STACK CFI 7cf24 .cfa: sp 0 +
STACK CFI 7cf28 .cfa: sp 32 +
STACK CFI 7cf38 .cfa: sp 0 +
STACK CFI INIT 7cf3c 38 .cfa: sp 0 +
STACK CFI 7cf48 .cfa: sp 32 +
STACK CFI 7cf70 .cfa: sp 0 +
STACK CFI INIT 7d208 7c .cfa: sp 0 +
STACK CFI 7d20c .cfa: sp 32 +
STACK CFI 7d214 .cfa: x29 32 + x19: .cfa -16 + ^ .ra: .cfa -24 + ^ x29: .cfa -32 + ^
STACK CFI 7d240 .cfa: sp 32 +
STACK CFI 7d248 .cfa: sp 0 +
STACK CFI 7d24c .cfa: x29 32 +
STACK CFI 7d278 .cfa: sp 32 +
STACK CFI 7d280 .cfa: sp 0 +
STACK CFI INIT 7d2d4 2c .cfa: sp 0 +
STACK CFI 7d2d8 .cfa: sp 32 +
STACK CFI 7d2e0 .cfa: x29 32 + x19: .cfa -16 + ^ .ra: .cfa -24 + ^ x29: .cfa -32 + ^
STACK CFI 7d2f4 .cfa: sp 32 +
STACK CFI 7d2fc .cfa: sp 0 +
STACK CFI INIT 7dac0 64 .cfa: sp 0 +
STACK CFI 7dac4 .cfa: sp 32 +
STACK CFI 7dacc .cfa: x29 32 + x19: .cfa -16 + ^ .ra: .cfa -24 + ^ x29: .cfa -32 + ^
STACK CFI 7dae8 .cfa: sp 32 +
STACK CFI 7daf0 .cfa: sp 0 +
STACK CFI 7daf4 .cfa: x29 32 +
STACK CFI 7db18 .cfa: sp 32 +
STACK CFI 7db20 .cfa: sp 0 +
STACK CFI INIT 7dc60 570 .cfa: sp 0 +
STACK CFI 7dc64 .cfa: sp 176 +
STACK CFI 7dc78 .cfa: x29 64 + x19: .cfa -8 + ^ x20: .cfa -16 + ^ x21: .cfa -24 + ^ x22: .cfa -32 + ^ x23: .cfa -40 + ^ x24: .cfa -48 + ^ .ra: .cfa -56 + ^ x29: .cfa -64 + ^
STACK CFI 7dea8 .cfa: sp 176 +
STACK CFI 7debc .cfa: sp 0 +
STACK CFI 7dec0 .cfa: x29 64 +
STACK CFI 7df0c .cfa: sp 176 +
STACK CFI 7df20 .cfa: sp 0 +
STACK CFI 7df24 .cfa: x29 64 +
STACK CFI 7df5c .cfa: sp 176 +
STACK CFI 7df70 .cfa: sp 0 +
STACK CFI 7df74 .cfa: x29 64 +
STACK CFI 7df8c .cfa: sp 176 +
STACK CFI 7dfa0 .cfa: sp 0 +
STACK CFI 7dfa4 .cfa: x29 64 +
STACK CFI 7dfc4 .cfa: sp 176 +
STACK CFI 7dfd8 .cfa: sp 0 +
STACK CFI 7dfdc .cfa: x29 64 +
STACK CFI 7dff4 .cfa: sp 176 +
STACK CFI 7e008 .cfa: sp 0 +
STACK CFI 7e00c .cfa: x29 64 +
STACK CFI 7e020 .cfa: sp 176 +
STACK CFI 7e034 .cfa: sp 0 +
STACK CFI 7e038 .cfa: x29 64 +
STACK CFI 7e04c .cfa: sp 176 +
STACK CFI 7e060 .cfa: sp 0 +
STACK CFI 7e064 .cfa: x29 64 +
STACK CFI 7e074 .cfa: sp 176 +
STACK CFI 7e088 .cfa: sp 0 +
STACK CFI 7e08c .cfa: x29 64 +
STACK CFI 7e09c .cfa: sp 176 +
STACK CFI 7e0b0 .cfa: sp 0 +
STACK CFI 7e0b4 .cfa: x29 64 +
STACK CFI 7e0cc .cfa: sp 176 +
STACK CFI 7e0e0 .cfa: sp 0 +
STACK CFI 7e0e4 .cfa: x29 64 +
STACK CFI 7e0f8 .cfa: sp 176 +
STACK CFI 7e10c .cfa: sp 0 +
STACK CFI 7e110 .cfa: x29 64 +
STACK CFI 7e128 .cfa: sp 176 +
STACK CFI 7e13c .cfa: sp 0 +
STACK CFI 7e140 .cfa: x29 64 +
STACK CFI 7e16c .cfa: sp 176 +
STACK CFI 7e180 .cfa: sp 0 +
STACK CFI 7e184 .cfa: x29 64 +
STACK CFI 7e198 .cfa: sp 176 +
STACK CFI 7e1ac .cfa: sp 0 +
STACK CFI 7e1b0 .cfa: x29 64 +
STACK CFI INIT 7e1d0 228 .cfa: sp 0 +
STACK CFI INIT 7e3f8 2dc .cfa: sp 0 +
STACK CFI INIT 7e6d4 53c .cfa: sp 0 +
STACK CFI INIT 7ec10 78 .cfa: sp 0 +
STACK CFI 7ec14 .cfa: sp 48 +
STACK CFI 7ec20 .cfa: x29 48 + x19: .cfa -8 + ^ x20: .cfa -16 + ^ x21: .cfa -24 + ^ x22: .cfa -32 + ^ .ra: .cfa -40 + ^ x29: .cfa -48 + ^
STACK CFI 7ec68 .cfa: sp 48 +
STACK CFI 7ec74 .cfa: sp 0 +
STACK CFI 7ec78 .cfa: sp 48 +
STACK CFI 7ec84 .cfa: sp 0 +
STACK CFI INIT 7ec88 8c .cfa: sp 0 +
STACK CFI 7ec8c .cfa: sp 32 +
STACK CFI 7ec94 .cfa: x29 32 + x19: .cfa -16 + ^ .ra: .cfa -24 + ^ x29: .cfa -32 + ^
STACK CFI 7ecc8 .cfa: sp 32 +
STACK CFI 7ecd0 .cfa: sp 0 +
STACK CFI 7ecd4 .cfa: x29 32 +
STACK CFI 7ed08 .cfa: sp 32 +
STACK CFI 7ed10 .cfa: sp 0 +
STACK CFI INIT 7ed14 24 .cfa: sp 0 +
STACK CFI 7ed18 .cfa: sp 32 +
STACK CFI 7ed20 .cfa: x29 32 + x19: .cfa -16 + ^ .ra: .cfa -24 + ^ x29: .cfa -32 + ^
STACK CFI 7ed2c .cfa: sp 32 +
STACK CFI 7ed34 .cfa: sp 0 +
STACK CFI INIT 7ed38 150 .cfa: sp 0 +
STACK CFI 7ed3c .cfa: sp 48 +
STACK CFI 7ed48 .cfa: x29 48 + x19: .cfa -8 + ^ x20: .cfa -16 + ^ x21: .cfa -24 + ^ x22: .cfa -32 + ^ .ra: .cfa -40 + ^ x29: .cfa -48 + ^
STACK CFI 7ee78 .cfa: sp 48 +
STACK CFI 7ee84 .cfa: sp 0 +
STACK CFI INIT 7ee88 68 .cfa: sp 0 +
STACK CFI 7ee8c .cfa: sp 64 +
STACK CFI 7ee98 .cfa: x29 32 + x19: .cfa -16 + ^ .ra: .cfa -24 + ^ x29: .cfa -32 + ^
STACK CFI 7eedc .cfa: sp 64 +
STACK CFI 7eee8 .cfa: sp 0 +
STACK CFI 7eeec .cfa: x29 32 +
STACK CFI INIT 7eef0 90 .cfa: sp 0 +
STACK CFI 7eef4 .cfa: sp 32 +
STACK CFI 7eefc .cfa: x29 32 + x19: .cfa -8 + ^ x20: .cfa -16 + ^ .ra: .cfa -24 + ^ x29: .cfa -32 + ^
STACK CFI 7ef28 .cfa: sp 32 +
STACK CFI 7ef30 .cfa: sp 0 +
STACK CFI 7ef34 .cfa: x29 32 +
STACK CFI 7ef74 .cfa: sp 32 +
STACK CFI 7ef7c .cfa: sp 0 +
STACK CFI INIT 7ef80 ec .cfa: sp 0 +
STACK CFI 7ef84 .cfa: sp 112 +
STACK CFI 7ef94 .cfa: x29 48 + x19: .cfa -8 + ^ x20: .cfa -16 + ^ x21: .cfa -32 + ^ .ra: .cfa -40 + ^ x29: .cfa -48 + ^
STACK CFI 7f054 .cfa: sp 112 +
STACK CFI 7f064 .cfa: sp 0 +
STACK CFI 7f068 .cfa: x29 48 +
STACK CFI INIT 7f06c ec .cfa: sp 0 +
STACK CFI 7f070 .cfa: sp 112 +
STACK CFI 7f080 .cfa: x29 48 + x19: .cfa -8 + ^ x20: .cfa -16 + ^ x21: .cfa -32 + ^ .ra: .cfa -40 + ^ x29: .cfa -48 + ^
STACK CFI 7f140 .cfa: sp 112 +
STACK CFI 7f150 .cfa: sp 0 +
STACK CFI 7f154 .cfa: x29 48 +
STACK CFI INIT 7f158 48 .cfa: sp 0 +
STACK CFI 7f15c .cfa: sp 32 +
STACK CFI 7f164 .cfa: x29 32 + x19: .cfa -8 + ^ x20: .cfa -16 + ^ .ra: .cfa -24 + ^ x29: .cfa -32 + ^
STACK CFI 7f188 .cfa: sp 32 +
STACK CFI 7f190 .cfa: sp 0 +
STACK CFI 7f194 .cfa: x29 32 +
STACK CFI INIT 7f1a0 98 .cfa: sp 0 +
STACK CFI 7f1a4 .cfa: sp 80 +
STACK CFI 7f1b0 .cfa: x29 32 + x19: .cfa -16 + ^ .ra: .cfa -24 + ^ x29: .cfa -32 + ^
STACK CFI 7f224 .cfa: sp 80 +
STACK CFI 7f230 .cfa: sp 0 +
STACK CFI 7f234 .cfa: x29 32 +
STACK CFI INIT 7f238 260 .cfa: sp 0 +
STACK CFI 7f23c .cfa: sp 112 +
STACK CFI 7f254 .cfa: x29 80 + x19: .cfa -8 + ^ x20: .cfa -16 + ^ x21: .cfa -24 + ^ x22: .cfa -32 + ^ x23: .cfa -40 + ^ x24: .cfa -48 + ^ x25: .cfa -64 + ^ .ra: .cfa -72 + ^ x29: .cfa -80 + ^
STACK CFI 7f438 .cfa: sp 112 +
STACK CFI 7f450 .cfa: sp 0 +
STACK CFI 7f454 .cfa: x29 80 +
STACK CFI INIT 7f498 150 .cfa: sp 0 +
STACK CFI 7f49c .cfa: sp 48 +
STACK CFI 7f4a8 .cfa: x29 48 + x19: .cfa -8 + ^ x20: .cfa -16 + ^ x21: .cfa -24 + ^ x22: .cfa -32 + ^ .ra: .cfa -40 + ^ x29: .cfa -48 + ^
STACK CFI 7f5d8 .cfa: sp 48 +
STACK CFI 7f5e4 .cfa: sp 0 +
STACK CFI INIT 7f5e8 1e0 .cfa: sp 0 +
STACK CFI 7f5ec .cfa: sp 96 +
STACK CFI 7f600 .cfa: x29 64 + x19: .cfa -8 + ^ x20: .cfa -16 + ^ x21: .cfa -24 + ^ x22: .cfa -32 + ^ x23: .cfa -40 + ^ x24: .cfa -48 + ^ .ra: .cfa -56 + ^ x29: .cfa -64 + ^
STACK CFI 7f780 .cfa: sp 96 +
STACK CFI 7f794 .cfa: sp 0 +
STACK CFI 7f798 .cfa: x29 64 +
STACK CFI INIT 7f7c8 284 .cfa: sp 0 +
STACK CFI 7f7cc .cfa: sp 112 +
STACK CFI 7f7e4 .cfa: x29 80 + x19: .cfa -8 + ^ x20: .cfa -16 + ^ x21: .cfa -24 + ^ x22: .cfa -32 + ^ x23: .cfa -40 + ^ x24: .cfa -48 + ^ x25: .cfa -64 + ^ .ra: .cfa -72 + ^ x29: .cfa -80 + ^
STACK CFI 7f9ec .cfa: sp 112 +
STACK CFI 7fa04 .cfa: sp 0 +
STACK CFI 7fa08 .cfa: x29 80 +
STACK CFI INIT 7fa4c 208 .cfa: sp 0 +
STACK CFI 7fa50 .cfa: sp 96 +
STACK CFI 7fa64 .cfa: x29 64 + x19: .cfa -8 + ^ x20: .cfa -16 + ^ x21: .cfa -24 + ^ x22: .cfa -32 + ^ x23: .cfa -40 + ^ x24: .cfa -48 + ^ .ra: .cfa -56 + ^ x29: .cfa -64 + ^
STACK CFI 7fc0c .cfa: sp 96 +
STACK CFI 7fc20 .cfa: sp 0 +
STACK CFI 7fc24 .cfa: x29 64 +
STACK CFI INIT 7fc54 360 .cfa: sp 0 +
STACK CFI 7fc58 .cfa: sp 160 +
STACK CFI 7fc74 .cfa: x29 96 + x19: .cfa -8 + ^ x20: .cfa -16 + ^ x21: .cfa -24 + ^ x22: .cfa -32 + ^ x23: .cfa -40 + ^ x24: .cfa -48 + ^ x25: .cfa -56 + ^ x26: .cfa -64 + ^ x27: .cfa -72 + ^ x28: .cfa -80 + ^ .ra: .cfa -88 + ^ x29: .cfa -96 + ^
STACK CFI 7ff40 .cfa: sp 160 +
STACK CFI 7ff5c .cfa: sp 0 +
STACK CFI 7ff60 .cfa: x29 96 +
STACK CFI INIT 7ffb4 314 .cfa: sp 0 +
STACK CFI 7ffb8 .cfa: sp 144 +
STACK CFI 7ffd4 .cfa: x29 96 + x19: .cfa -8 + ^ x20: .cfa -16 + ^ x21: .cfa -24 + ^ x22: .cfa -32 + ^ x23: .cfa -40 + ^ x24: .cfa -48 + ^ x25: .cfa -56 + ^ x26: .cfa -64 + ^ x27: .cfa -72 + ^ x28: .cfa -80 + ^ .ra: .cfa -88 + ^ x29: .cfa -96 + ^
STACK CFI 80250 .cfa: sp 144 +
STACK CFI 8026c .cfa: sp 0 +
STACK CFI 80270 .cfa: x29 96 +
STACK CFI INIT 802c8 290 .cfa: sp 0 +
STACK CFI 802cc .cfa: sp 128 +
STACK CFI 802e4 .cfa: x29 80 + x19: .cfa -8 + ^ x20: .cfa -16 + ^ x21: .cfa -24 + ^ x22: .cfa -32 + ^ x23: .cfa -40 + ^ x24: .cfa -48 + ^ x25: .cfa -56 + ^ x26: .cfa -64 + ^ .ra: .cfa -72 + ^ x29: .cfa -80 + ^
STACK CFI 80538 .cfa: sp 128 +
STACK CFI 80550 .cfa: sp 0 +
STACK CFI 80554 .cfa: x29 80 +
STACK CFI INIT 80558 ddc .cfa: sp 0 +
STACK CFI 8055c .cfa: sp 144 +
STACK CFI 80578 .cfa: x29 96 + x19: .cfa -8 + ^ x20: .cfa -16 + ^ x21: .cfa -24 + ^ x22: .cfa -32 + ^ x23: .cfa -40 + ^ x24: .cfa -48 + ^ x25: .cfa -56 + ^ x26: .cfa -64 + ^ x27: .cfa -72 + ^ x28: .cfa -80 + ^ .ra: .cfa -88 + ^ x29: .cfa -96 + ^
STACK CFI 8120c .cfa: sp 144 +
STACK CFI 81228 .cfa: sp 0 +
STACK CFI 8122c .cfa: x29 96 +
STACK CFI INIT 81334 1d0 .cfa: sp 0 +
STACK CFI 81338 .cfa: sp 80 +
STACK CFI 8134c .cfa: x29 80 + x19: .cfa -8 + ^ x20: .cfa -16 + ^ x21: .cfa -24 + ^ x22: .cfa -32 + ^ x23: .cfa -40 + ^ x24: .cfa -48 + ^ x25: .cfa -64 + ^ .ra: .cfa -72 + ^ x29: .cfa -80 + ^
STACK CFI 814ec .cfa: sp 80 +
STACK CFI 81500 .cfa: sp 0 +
STACK CFI INIT 81504 23c .cfa: sp 0 +
STACK CFI 81508 .cfa: sp 112 +
STACK CFI 8151c .cfa: x29 64 + x19: .cfa -8 + ^ x20: .cfa -16 + ^ x21: .cfa -24 + ^ x22: .cfa -32 + ^ x23: .cfa -40 + ^ x24: .cfa -48 + ^ .ra: .cfa -56 + ^ x29: .cfa -64 + ^
STACK CFI 816f8 .cfa: sp 112 +
STACK CFI 8170c .cfa: sp 0 +
STACK CFI 81710 .cfa: x29 64 +
STACK CFI INIT 81740 30c .cfa: sp 0 +
STACK CFI 81744 .cfa: sp 80 +
STACK CFI 81758 .cfa: x29 64 + x19: .cfa -8 + ^ x20: .cfa -16 + ^ x21: .cfa -24 + ^ x22: .cfa -32 + ^ x23: .cfa -40 + ^ x24: .cfa -48 + ^ .ra: .cfa -56 + ^ x29: .cfa -64 + ^
STACK CFI 818d4 .cfa: sp 80 +
STACK CFI 818e8 .cfa: sp 0 +
STACK CFI 818ec .cfa: x29 64 +
STACK CFI INIT 81a4c 178 .cfa: sp 0 +
STACK CFI 81a50 .cfa: sp 80 +
STACK CFI 81a64 .cfa: x29 64 + x19: .cfa -8 + ^ x20: .cfa -16 + ^ x21: .cfa -24 + ^ x22: .cfa -32 + ^ x23: .cfa -40 + ^ x24: .cfa -48 + ^ .ra: .cfa -56 + ^ x29: .cfa -64 + ^
STACK CFI 81ba8 .cfa: sp 80 +
STACK CFI 81bbc .cfa: sp 0 +
STACK CFI 81bc0 .cfa: x29 64 +
STACK CFI INIT 81bc4 178 .cfa: sp 0 +
STACK CFI 81bc8 .cfa: sp 80 +
STACK CFI 81bdc .cfa: x29 64 + x19: .cfa -8 + ^ x20: .cfa -16 + ^ x21: .cfa -24 + ^ x22: .cfa -32 + ^ x23: .cfa -40 + ^ x24: .cfa -48 + ^ .ra: .cfa -56 + ^ x29: .cfa -64 + ^
STACK CFI 81d20 .cfa: sp 80 +
STACK CFI 81d34 .cfa: sp 0 +
STACK CFI 81d38 .cfa: x29 64 +
STACK CFI INIT 81d3c 240 .cfa: sp 0 +
STACK CFI 81d40 .cfa: sp 96 +
STACK CFI 81d58 .cfa: x29 96 + x19: .cfa -8 + ^ x20: .cfa -16 + ^ x21: .cfa -24 + ^ x22: .cfa -32 + ^ x23: .cfa -40 + ^ x24: .cfa -48 + ^ x25: .cfa -56 + ^ x26: .cfa -64 + ^ x27: .cfa -72 + ^ x28: .cfa -80 + ^ .ra: .cfa -88 + ^ x29: .cfa -96 + ^
STACK CFI 81f60 .cfa: sp 96 +
STACK CFI 81f78 .cfa: sp 0 +
STACK CFI INIT 82bf0 154 .cfa: sp 0 +
STACK CFI 82bf4 .cfa: sp 96 +
STACK CFI 82c08 .cfa: x29 64 + x19: .cfa -8 + ^ x20: .cfa -16 + ^ x21: .cfa -24 + ^ x22: .cfa -32 + ^ x23: .cfa -48 + ^ .ra: .cfa -56 + ^ x29: .cfa -64 + ^
STACK CFI 82ce8 .cfa: sp 96 +
STACK CFI 82cfc .cfa: sp 0 +
STACK CFI 82d00 .cfa: x29 64 +
STACK CFI INIT 82fb0 44 .cfa: sp 0 +
STACK CFI 82fb4 .cfa: sp 32 +
STACK CFI 82fbc .cfa: x29 32 + x19: .cfa -16 + ^ .ra: .cfa -24 + ^ x29: .cfa -32 + ^
STACK CFI 82fd8 .cfa: sp 32 +
STACK CFI 82fe0 .cfa: sp 0 +
STACK CFI 82fe4 .cfa: x29 32 +
STACK CFI 82fe8 .cfa: sp 32 +
STACK CFI 82ff0 .cfa: sp 0 +
STACK CFI INIT 82ff4 1d0 .cfa: sp 0 +
STACK CFI 82ff8 .cfa: sp 64 +
STACK CFI 83008 .cfa: x29 64 + x19: .cfa -8 + ^ x20: .cfa -16 + ^ x21: .cfa -24 + ^ x22: .cfa -32 + ^ x23: .cfa -40 + ^ x24: .cfa -48 + ^ .ra: .cfa -56 + ^ x29: .cfa -64 + ^
STACK CFI 830c8 .cfa: sp 64 +
STACK CFI 830d8 .cfa: sp 0 +
STACK CFI 830dc .cfa: x29 64 +
STACK CFI INIT 831c4 17c .cfa: sp 0 +
STACK CFI INIT 836f8 a0 .cfa: sp 0 +
STACK CFI 836fc .cfa: sp 48 +
STACK CFI 83708 .cfa: x29 48 + x19: .cfa -8 + ^ x20: .cfa -16 + ^ x21: .cfa -24 + ^ x22: .cfa -32 + ^ .ra: .cfa -40 + ^ x29: .cfa -48 + ^
STACK CFI 83774 .cfa: sp 48 +
STACK CFI 83780 .cfa: sp 0 +
STACK CFI 83784 .cfa: sp 48 +
STACK CFI 83790 .cfa: sp 0 +
STACK CFI 83794 .cfa: x29 48 +
STACK CFI INIT 8444c 158 .cfa: sp 0 +
STACK CFI 84450 .cfa: sp 96 +
STACK CFI 84464 .cfa: x29 64 + x19: .cfa -8 + ^ x20: .cfa -16 + ^ x21: .cfa -24 + ^ x22: .cfa -32 + ^ x23: .cfa -48 + ^ .ra: .cfa -56 + ^ x29: .cfa -64 + ^
STACK CFI 84548 .cfa: sp 96 +
STACK CFI 8455c .cfa: sp 0 +
STACK CFI 84560 .cfa: x29 64 +
STACK CFI INIT 845a4 190 .cfa: sp 0 +
STACK CFI INIT 85230 1dc .cfa: sp 0 +
STACK CFI 85234 .cfa: sp 80 +
STACK CFI 85248 .cfa: x29 80 + x19: .cfa -8 + ^ x20: .cfa -16 + ^ x21: .cfa -24 + ^ x22: .cfa -32 + ^ x23: .cfa -40 + ^ x24: .cfa -48 + ^ x25: .cfa -64 + ^ .ra: .cfa -72 + ^ x29: .cfa -80 + ^
STACK CFI 853f4 .cfa: sp 80 +
STACK CFI 85408 .cfa: sp 0 +
STACK CFI INIT 8683c 124 .cfa: sp 0 +
STACK CFI 8686c .cfa: sp 32 +
STACK CFI 86874 .cfa: x29 32 + x19: .cfa -8 + ^ x20: .cfa -16 + ^ .ra: .cfa -24 + ^ x29: .cfa -32 + ^
STACK CFI 86954 .cfa: sp 32 +
STACK CFI 8695c .cfa: sp 0 +
STACK CFI INIT 870bc 320 .cfa: sp 0 +
STACK CFI 870c0 .cfa: sp 64 +
STACK CFI 870d0 .cfa: x29 64 + x19: .cfa -8 + ^ x20: .cfa -16 + ^ x21: .cfa -24 + ^ x22: .cfa -32 + ^ x23: .cfa -40 + ^ x24: .cfa -48 + ^ .ra: .cfa -56 + ^ x29: .cfa -64 + ^
STACK CFI 8714c .cfa: sp 64 +
STACK CFI 8715c .cfa: sp 0 +
STACK CFI 87160 .cfa: x29 64 +
STACK CFI 87334 .cfa: sp 64 +
STACK CFI 87344 .cfa: sp 0 +
STACK CFI 87348 .cfa: x29 64 +
STACK CFI 87358 .cfa: sp 64 +
STACK CFI 87368 .cfa: sp 0 +
STACK CFI 8736c .cfa: x29 64 +
STACK CFI INIT 873dc a0 .cfa: sp 0 +
STACK CFI 873e0 .cfa: sp 48 +
STACK CFI 873ec .cfa: x29 48 + x19: .cfa -8 + ^ x20: .cfa -16 + ^ x21: .cfa -24 + ^ x22: .cfa -32 + ^ .ra: .cfa -40 + ^ x29: .cfa -48 + ^
STACK CFI 87458 .cfa: sp 48 +
STACK CFI 87464 .cfa: sp 0 +
STACK CFI 87468 .cfa: sp 48 +
STACK CFI 87474 .cfa: sp 0 +
STACK CFI 87478 .cfa: x29 48 +
STACK CFI INIT 8832c 160 .cfa: sp 0 +
STACK CFI 88330 .cfa: sp 64 +
STACK CFI 88340 .cfa: x29 64 + x19: .cfa -8 + ^ x20: .cfa -16 + ^ x21: .cfa -24 + ^ x22: .cfa -32 + ^ x23: .cfa -48 + ^ .ra: .cfa -56 + ^ x29: .cfa -64 + ^
STACK CFI 88438 .cfa: sp 64 +
STACK CFI 88448 .cfa: sp 0 +
STACK CFI 8844c .cfa: x29 64 +
STACK CFI INIT 8848c 214 .cfa: sp 0 +
STACK CFI 88490 .cfa: sp 128 +
STACK CFI 884ac .cfa: x29 96 + x19: .cfa -8 + ^ x20: .cfa -16 + ^ x21: .cfa -24 + ^ x22: .cfa -32 + ^ x23: .cfa -40 + ^ x24: .cfa -48 + ^ x25: .cfa -56 + ^ x26: .cfa -64 + ^ x27: .cfa -80 + ^ .ra: .cfa -88 + ^ x29: .cfa -96 + ^
STACK CFI 88628 .cfa: sp 128 +
STACK CFI 88644 .cfa: sp 0 +
STACK CFI 88648 .cfa: x29 96 +
STACK CFI INIT 8a33c 290 .cfa: sp 0 +
STACK CFI 8a340 .cfa: sp 16 +
STACK CFI 8a344 .cfa: x29 16 + .ra: .cfa -8 + ^ x29: .cfa -16 + ^
STACK CFI 8a3d0 .cfa: sp 16 +
STACK CFI 8a3d4 .cfa: sp 0 +
STACK CFI 8a3d8 .cfa: x29 16 +
STACK CFI 8a428 .cfa: sp 16 +
STACK CFI 8a42c .cfa: sp 0 +
STACK CFI 8a430 .cfa: x29 16 +
STACK CFI 8a594 .cfa: sp 16 +
STACK CFI 8a598 .cfa: sp 0 +
STACK CFI 8a59c .cfa: x29 16 +
STACK CFI INIT 8a5cc 158 .cfa: sp 0 +
STACK CFI 8a5d0 .cfa: sp 112 +
STACK CFI 8a5ec .cfa: x29 96 + x19: .cfa -8 + ^ x20: .cfa -16 + ^ x21: .cfa -24 + ^ x22: .cfa -32 + ^ x23: .cfa -40 + ^ x24: .cfa -48 + ^ x25: .cfa -56 + ^ x26: .cfa -64 + ^ x27: .cfa -72 + ^ x28: .cfa -80 + ^ .ra: .cfa -88 + ^ x29: .cfa -96 + ^
STACK CFI 8a6d4 .cfa: sp 112 +
STACK CFI 8a6d8 .cfa: x29 96 +
STACK CFI 8a6e0 .cfa: sp 112 +
STACK CFI 8a6fc .cfa: sp 0 +
STACK CFI 8a700 .cfa: x29 96 +
STACK CFI 8a720 .cfa: sp 112 +
STACK CFI INIT 8a724 e54 .cfa: sp 0 +
STACK CFI 8a728 .cfa: sp 192 +
STACK CFI 8a744 .cfa: x29 96 + x19: .cfa -8 + ^ x20: .cfa -16 + ^ x21: .cfa -24 + ^ x22: .cfa -32 + ^ x23: .cfa -40 + ^ x24: .cfa -48 + ^ x25: .cfa -56 + ^ x26: .cfa -64 + ^ x27: .cfa -72 + ^ x28: .cfa -80 + ^ .ra: .cfa -88 + ^ x29: .cfa -96 + ^
STACK CFI 8b460 .cfa: sp 192 +
STACK CFI 8b47c .cfa: sp 0 +
STACK CFI 8b480 .cfa: x29 96 +
STACK CFI INIT 8b578 1068 .cfa: sp 0 +
STACK CFI 8b57c .cfa: sp 288 +
STACK CFI 8b598 .cfa: x29 96 + x19: .cfa -8 + ^ x20: .cfa -16 + ^ x21: .cfa -24 + ^ x22: .cfa -32 + ^ x23: .cfa -40 + ^ x24: .cfa -48 + ^ x25: .cfa -56 + ^ x26: .cfa -64 + ^ x27: .cfa -72 + ^ x28: .cfa -80 + ^ .ra: .cfa -88 + ^ x29: .cfa -96 + ^
STACK CFI 8c328 .cfa: sp 288 +
STACK CFI 8c344 .cfa: sp 0 +
STACK CFI 8c348 .cfa: x29 96 +
STACK CFI INIT 8c5e0 520 .cfa: sp 0 +
STACK CFI 8c5e4 .cfa: sp 144 +
STACK CFI 8c600 .cfa: x29 96 + x19: .cfa -8 + ^ x20: .cfa -16 + ^ x21: .cfa -24 + ^ x22: .cfa -32 + ^ x23: .cfa -40 + ^ x24: .cfa -48 + ^ x25: .cfa -56 + ^ x26: .cfa -64 + ^ x27: .cfa -72 + ^ x28: .cfa -80 + ^ .ra: .cfa -88 + ^ x29: .cfa -96 + ^
STACK CFI 8cadc .cfa: sp 144 +
STACK CFI 8caf8 .cfa: sp 0 +
STACK CFI 8cafc .cfa: x29 96 +
STACK CFI INIT 8d4a0 136c .cfa: sp 0 +
STACK CFI 8d4a4 .cfa: sp 224 +
STACK CFI 8d4c0 .cfa: x29 96 + x19: .cfa -8 + ^ x20: .cfa -16 + ^ x21: .cfa -24 + ^ x22: .cfa -32 + ^ x23: .cfa -40 + ^ x24: .cfa -48 + ^ x25: .cfa -56 + ^ x26: .cfa -64 + ^ x27: .cfa -72 + ^ x28: .cfa -80 + ^ .ra: .cfa -88 + ^ x29: .cfa -96 + ^
STACK CFI 8e7e8 .cfa: sp 224 +
STACK CFI 8e804 .cfa: sp 0 +
STACK CFI 8e808 .cfa: x29 96 +
STACK CFI INIT 8e80c 1b8 .cfa: sp 0 +
STACK CFI INIT 3eb60 b4 .cfa: sp 0 +
STACK CFI 3eb64 .cfa: sp 32 +
STACK CFI 3eb6c .cfa: x29 32 + x19: .cfa -16 + ^ .ra: .cfa -24 + ^ x29: .cfa -32 + ^
STACK CFI 3ebe4 .cfa: sp 32 +
STACK CFI 3ebec .cfa: sp 0 +
STACK CFI 3ebf0 .cfa: sp 32 +
STACK CFI 3ebf8 .cfa: sp 0 +
STACK CFI 3ebfc .cfa: x29 32 +
STACK CFI INIT 3ecbc 1a4 .cfa: sp 0 +
STACK CFI 3ecc0 .cfa: sp 112 +
STACK CFI 3ecd4 .cfa: x29 64 + x19: .cfa -8 + ^ x20: .cfa -16 + ^ x21: .cfa -24 + ^ x22: .cfa -32 + ^ x23: .cfa -48 + ^ .ra: .cfa -56 + ^ x29: .cfa -64 + ^
STACK CFI 3edd8 .cfa: sp 112 +
STACK CFI 3edec .cfa: sp 0 +
STACK CFI 3edf0 .cfa: x29 64 +
STACK CFI INIT 3f1b4 55c .cfa: sp 0 +
STACK CFI 3f1b8 .cfa: sp 112 +
STACK CFI 3f1d0 .cfa: x29 80 + x19: .cfa -8 + ^ x20: .cfa -16 + ^ x21: .cfa -24 + ^ x22: .cfa -32 + ^ x23: .cfa -40 + ^ x24: .cfa -48 + ^ x25: .cfa -64 + ^ .ra: .cfa -72 + ^ x29: .cfa -80 + ^
STACK CFI 3f67c .cfa: sp 112 +
STACK CFI 3f694 .cfa: sp 0 +
STACK CFI 3f698 .cfa: x29 80 +
STACK CFI INIT 3f710 4b4 .cfa: sp 0 +
STACK CFI 3f714 .cfa: sp 240 +
STACK CFI 3f724 .cfa: x29 48 + x19: .cfa -8 + ^ x20: .cfa -16 + ^ x21: .cfa -24 + ^ x22: .cfa -32 + ^ .ra: .cfa -40 + ^ x29: .cfa -48 + ^
STACK CFI 3fadc .cfa: sp 240 +
STACK CFI 3faec .cfa: sp 0 +
STACK CFI 3faf0 .cfa: x29 48 +
STACK CFI INIT 3fbc4 3e4 .cfa: sp 0 +
STACK CFI 3fbc8 .cfa: sp 208 +
STACK CFI 3fbdc .cfa: x29 64 + x19: .cfa -8 + ^ x20: .cfa -16 + ^ x21: .cfa -24 + ^ x22: .cfa -32 + ^ x23: .cfa -48 + ^ .ra: .cfa -56 + ^ x29: .cfa -64 + ^
STACK CFI 3fed4 .cfa: sp 208 +
STACK CFI 3fee8 .cfa: sp 0 +
STACK CFI 3feec .cfa: x29 64 +
STACK CFI INIT 3ffa8 1a4 .cfa: sp 0 +
STACK CFI 3ffac .cfa: sp 96 +
STACK CFI 3ffbc .cfa: x29 48 + x19: .cfa -8 + ^ x20: .cfa -16 + ^ x21: .cfa -24 + ^ x22: .cfa -32 + ^ .ra: .cfa -40 + ^ x29: .cfa -48 + ^
STACK CFI 400c8 .cfa: sp 96 +
STACK CFI 400d8 .cfa: sp 0 +
STACK CFI 400dc .cfa: x29 48 +
STACK CFI INIT 4014c 7ac .cfa: sp 0 +
STACK CFI 40150 .cfa: sp 320 +
STACK CFI 4016c .cfa: x29 96 + x19: .cfa -8 + ^ x20: .cfa -16 + ^ x21: .cfa -24 + ^ x22: .cfa -32 + ^ x23: .cfa -40 + ^ x24: .cfa -48 + ^ x25: .cfa -56 + ^ x26: .cfa -64 + ^ x27: .cfa -72 + ^ x28: .cfa -80 + ^ .ra: .cfa -88 + ^ x29: .cfa -96 + ^
STACK CFI 40748 .cfa: sp 320 +
STACK CFI 40764 .cfa: sp 0 +
STACK CFI 40768 .cfa: x29 96 +
STACK CFI INIT 408f8 6b8 .cfa: sp 0 +
STACK CFI 408fc .cfa: sp 160 +
STACK CFI 40918 .cfa: x29 96 + x19: .cfa -8 + ^ x20: .cfa -16 + ^ x21: .cfa -24 + ^ x22: .cfa -32 + ^ x23: .cfa -40 + ^ x24: .cfa -48 + ^ x25: .cfa -56 + ^ x26: .cfa -64 + ^ x27: .cfa -72 + ^ x28: .cfa -80 + ^ .ra: .cfa -88 + ^ x29: .cfa -96 + ^
STACK CFI 40f64 .cfa: sp 160 +
STACK CFI 40f80 .cfa: sp 0 +
STACK CFI 40f84 .cfa: x29 96 +
STACK CFI INIT 40fb0 2ec .cfa: sp 0 +
STACK CFI 40fb4 .cfa: sp 144 +
STACK CFI 40fcc .cfa: x29 80 + x19: .cfa -8 + ^ x20: .cfa -16 + ^ x21: .cfa -24 + ^ x22: .cfa -32 + ^ x23: .cfa -40 + ^ x24: .cfa -48 + ^ x25: .cfa -64 + ^ .ra: .cfa -72 + ^ x29: .cfa -80 + ^
STACK CFI 41248 .cfa: sp 144 +
STACK CFI 41260 .cfa: sp 0 +
STACK CFI 41264 .cfa: x29 80 +
STACK CFI INIT 412ec 3f8 .cfa: sp 0 +
STACK CFI 412f0 .cfa: sp 192 +
STACK CFI 4130c .cfa: x29 96 + x19: .cfa -8 + ^ x20: .cfa -16 + ^ x21: .cfa -24 + ^ x22: .cfa -32 + ^ x23: .cfa -40 + ^ x24: .cfa -48 + ^ x25: .cfa -56 + ^ x26: .cfa -64 + ^ x27: .cfa -72 + ^ x28: .cfa -80 + ^ .ra: .cfa -88 + ^ x29: .cfa -96 + ^
STACK CFI 415f8 .cfa: sp 192 +
STACK CFI 41614 .cfa: sp 0 +
STACK CFI 41618 .cfa: x29 96 +
STACK CFI INIT 416e4 17ec .cfa: sp 0 +
STACK CFI 416e8 .cfa: sp 96 +
STACK CFI 41700 .cfa: x29 96 + x19: .cfa -8 + ^ x20: .cfa -16 + ^ x21: .cfa -24 + ^ x22: .cfa -32 + ^ x23: .cfa -40 + ^ x24: .cfa -48 + ^ x25: .cfa -56 + ^ x26: .cfa -64 + ^ x27: .cfa -72 + ^ x28: .cfa -80 + ^ .ra: .cfa -88 + ^ x29: .cfa -96 + ^
STACK CFI 42bcc .cfa: sp 96 +
STACK CFI 42be4 .cfa: sp 0 +
STACK CFI 42be8 .cfa: x29 96 +
STACK CFI INIT 42f20 138 .cfa: sp 0 +
STACK CFI 42f24 .cfa: sp 64 +
STACK CFI 42f34 .cfa: x29 64 + x19: .cfa -8 + ^ x20: .cfa -16 + ^ x21: .cfa -24 + ^ x22: .cfa -32 + ^ x23: .cfa -40 + ^ x24: .cfa -48 + ^ .ra: .cfa -56 + ^ x29: .cfa -64 + ^
STACK CFI 42fd0 .cfa: sp 64 +
STACK CFI 42fe0 .cfa: sp 0 +
STACK CFI 42fe4 .cfa: x29 64 +
STACK CFI 43018 .cfa: sp 64 +
STACK CFI 43028 .cfa: sp 0 +
STACK CFI 4302c .cfa: x29 64 +
STACK CFI INIT 4309c 300 .cfa: sp 0 +
STACK CFI 430a0 .cfa: sp 144 +
STACK CFI 430bc .cfa: x29 96 + x19: .cfa -8 + ^ x20: .cfa -16 + ^ x21: .cfa -24 + ^ x22: .cfa -32 + ^ x23: .cfa -40 + ^ x24: .cfa -48 + ^ x25: .cfa -56 + ^ x26: .cfa -64 + ^ x27: .cfa -72 + ^ x28: .cfa -80 + ^ .ra: .cfa -88 + ^ x29: .cfa -96 + ^
STACK CFI 43324 .cfa: sp 144 +
STACK CFI 43340 .cfa: sp 0 +
STACK CFI 43344 .cfa: x29 96 +
STACK CFI INIT 4339c 1ac .cfa: sp 0 +
STACK CFI 433a0 .cfa: sp 128 +
STACK CFI 433b4 .cfa: x29 64 + x19: .cfa -8 + ^ x20: .cfa -16 + ^ x21: .cfa -24 + ^ x22: .cfa -32 + ^ x23: .cfa -40 + ^ x24: .cfa -48 + ^ .ra: .cfa -56 + ^ x29: .cfa -64 + ^
STACK CFI 434c0 .cfa: sp 128 +
STACK CFI 434d4 .cfa: sp 0 +
STACK CFI 434d8 .cfa: x29 64 +
STACK CFI INIT 43548 8ac .cfa: sp 0 +
STACK CFI 4354c .cfa: sp 336 +
STACK CFI 43564 .cfa: x29 80 + x19: .cfa -8 + ^ x20: .cfa -16 + ^ x21: .cfa -24 + ^ x22: .cfa -32 + ^ x23: .cfa -40 + ^ x24: .cfa -48 + ^ x25: .cfa -56 + ^ x28: .cfa -64 + ^ .ra: .cfa -72 + ^ x29: .cfa -80 + ^
STACK CFI 43c1c .cfa: sp 336 +
STACK CFI 43c34 .cfa: sp 0 +
STACK CFI 43c38 .cfa: x29 80 +
STACK CFI INIT 43df4 76c .cfa: sp 0 +
STACK CFI 43df8 .cfa: sp 480 +
STACK CFI 43e14 .cfa: x29 96 + x19: .cfa -8 + ^ x20: .cfa -16 + ^ x21: .cfa -24 + ^ x22: .cfa -32 + ^ x23: .cfa -40 + ^ x24: .cfa -48 + ^ x25: .cfa -56 + ^ x26: .cfa -64 + ^ x27: .cfa -72 + ^ x28: .cfa -80 + ^ .ra: .cfa -88 + ^ x29: .cfa -96 + ^
STACK CFI 4441c .cfa: sp 480 +
STACK CFI 44438 .cfa: sp 0 +
STACK CFI 4443c .cfa: x29 96 +
STACK CFI INIT 44560 40 .cfa: sp 0 +
STACK CFI 44564 .cfa: sp 32 +
STACK CFI 4456c .cfa: x29 32 + x19: .cfa -16 + ^ .ra: .cfa -24 + ^ x29: .cfa -32 + ^
STACK CFI 44590 .cfa: sp 32 +
STACK CFI 44598 .cfa: sp 0 +
STACK CFI 4459c .cfa: x29 32 +
STACK CFI INIT 44600 300 .cfa: sp 0 +
STACK CFI 44604 .cfa: sp 96 +
STACK CFI 44614 .cfa: x29 48 + x19: .cfa -8 + ^ x20: .cfa -16 + ^ x21: .cfa -24 + ^ x22: .cfa -32 + ^ .ra: .cfa -40 + ^ x29: .cfa -48 + ^
STACK CFI 448a0 .cfa: sp 96 +
STACK CFI 448b0 .cfa: sp 0 +
STACK CFI 448b4 .cfa: x29 48 +
STACK CFI INIT 44900 89c .cfa: sp 0 +
STACK CFI 44904 .cfa: sp 288 +
STACK CFI 4491c .cfa: x29 80 + x19: .cfa -8 + ^ x20: .cfa -16 + ^ x21: .cfa -24 + ^ x22: .cfa -32 + ^ x23: .cfa -40 + ^ x24: .cfa -48 + ^ x25: .cfa -56 + ^ x28: .cfa -64 + ^ .ra: .cfa -72 + ^ x29: .cfa -80 + ^
STACK CFI 45038 .cfa: sp 288 +
STACK CFI 45050 .cfa: sp 0 +
STACK CFI 45054 .cfa: x29 80 +
STACK CFI INIT 4519c 6c8 .cfa: sp 0 +
STACK CFI 451a0 .cfa: sp 176 +
STACK CFI 451bc .cfa: x29 96 + x19: .cfa -8 + ^ x20: .cfa -16 + ^ x21: .cfa -24 + ^ x22: .cfa -32 + ^ x23: .cfa -40 + ^ x24: .cfa -48 + ^ x25: .cfa -56 + ^ x26: .cfa -64 + ^ x27: .cfa -72 + ^ x28: .cfa -80 + ^ .ra: .cfa -88 + ^ x29: .cfa -96 + ^
STACK CFI 4563c .cfa: sp 176 +
STACK CFI 45658 .cfa: sp 0 +
STACK CFI 4565c .cfa: x29 96 +
STACK CFI INIT 459a8 110 .cfa: sp 0 +
STACK CFI 459ac .cfa: sp 80 +
STACK CFI 459c0 .cfa: x29 64 + x19: .cfa -8 + ^ x20: .cfa -16 + ^ x21: .cfa -24 + ^ x22: .cfa -32 + ^ x23: .cfa -48 + ^ .ra: .cfa -56 + ^ x29: .cfa -64 + ^
STACK CFI 45a78 .cfa: sp 80 +
STACK CFI 45a8c .cfa: sp 0 +
STACK CFI 45a90 .cfa: x29 64 +
STACK CFI INIT 45ab8 ecc .cfa: sp 0 +
STACK CFI 45abc .cfa: sp 112 +
STACK CFI 45ad8 .cfa: x29 96 + x19: .cfa -8 + ^ x20: .cfa -16 + ^ x21: .cfa -24 + ^ x22: .cfa -32 + ^ x23: .cfa -40 + ^ x24: .cfa -48 + ^ x25: .cfa -56 + ^ x26: .cfa -64 + ^ x27: .cfa -72 + ^ x28: .cfa -80 + ^ .ra: .cfa -88 + ^ x29: .cfa -96 + ^ v8: .cfa -104 + ^ v9: .cfa -112 + ^
STACK CFI 4682c .cfa: sp 112 +
STACK CFI 46848 .cfa: sp 0 +
STACK CFI 4684c .cfa: x29 96 +
STACK CFI INIT 46c2c 134 .cfa: sp 0 +
STACK CFI 46c30 .cfa: sp 80 +
STACK CFI 46c40 .cfa: x29 48 + x19: .cfa -8 + ^ x20: .cfa -16 + ^ x21: .cfa -24 + ^ x22: .cfa -32 + ^ .ra: .cfa -40 + ^ x29: .cfa -48 + ^
STACK CFI 46d44 .cfa: sp 80 +
STACK CFI 46d54 .cfa: sp 0 +
STACK CFI 46d58 .cfa: x29 48 +
STACK CFI INIT 470c4 1ec .cfa: sp 0 +
STACK CFI 470c8 .cfa: sp 208 +
STACK CFI 470e0 .cfa: x29 80 + x19: .cfa -8 + ^ x20: .cfa -16 + ^ x21: .cfa -24 + ^ x22: .cfa -32 + ^ x23: .cfa -40 + ^ x24: .cfa -48 + ^ x25: .cfa -64 + ^ .ra: .cfa -72 + ^ x29: .cfa -80 + ^
STACK CFI 4723c .cfa: sp 208 +
STACK CFI 47254 .cfa: sp 0 +
STACK CFI 47258 .cfa: x29 80 +
STACK CFI INIT 472c4 50 .cfa: sp 0 +
STACK CFI 472c8 .cfa: sp 32 +
STACK CFI 472d0 .cfa: x29 32 + x19: .cfa -8 + ^ x20: .cfa -16 + ^ .ra: .cfa -24 + ^ x29: .cfa -32 + ^
STACK CFI INIT 47444 50 .cfa: sp 0 +
STACK CFI 47448 .cfa: sp 32 +
STACK CFI 47450 .cfa: x29 32 + x19: .cfa -8 + ^ x20: .cfa -16 + ^ .ra: .cfa -24 + ^ x29: .cfa -32 + ^
STACK CFI INIT 47558 9cc .cfa: sp 0 +
STACK CFI 4755c .cfa: sp 144 +
STACK CFI 47578 .cfa: x29 96 + x19: .cfa -8 + ^ x20: .cfa -16 + ^ x21: .cfa -24 + ^ x22: .cfa -32 + ^ x23: .cfa -40 + ^ x24: .cfa -48 + ^ x25: .cfa -56 + ^ x26: .cfa -64 + ^ x27: .cfa -72 + ^ x28: .cfa -80 + ^ .ra: .cfa -88 + ^ x29: .cfa -96 + ^
STACK CFI 47988 .cfa: sp 144 +
STACK CFI 479a4 .cfa: sp 0 +
STACK CFI 479a8 .cfa: x29 96 +
STACK CFI 47e14 .cfa: sp 144 +
STACK CFI 47e30 .cfa: sp 0 +
STACK CFI 47e34 .cfa: x29 96 +
STACK CFI INIT 48238 cc .cfa: sp 0 +
STACK CFI 4823c .cfa: sp 64 +
STACK CFI 4824c .cfa: x29 48 + x19: .cfa -8 + ^ x20: .cfa -16 + ^ x21: .cfa -32 + ^ .ra: .cfa -40 + ^ x29: .cfa -48 + ^
STACK CFI 482c8 .cfa: sp 64 +
STACK CFI 482d8 .cfa: sp 0 +
STACK CFI 482dc .cfa: x29 48 +
STACK CFI INIT 485f0 74 .cfa: sp 0 +
STACK CFI 485f4 .cfa: sp 32 +
STACK CFI 485fc .cfa: x29 32 + x19: .cfa -16 + ^ .ra: .cfa -24 + ^ x29: .cfa -32 + ^
STACK CFI 48624 .cfa: sp 32 +
STACK CFI 4862c .cfa: sp 0 +
STACK CFI 48630 .cfa: x29 32 +
STACK CFI 48654 .cfa: sp 32 +
STACK CFI 4865c .cfa: sp 0 +
STACK CFI 48660 .cfa: x29 32 +
STACK CFI INIT 48874 bc .cfa: sp 0 +
STACK CFI 48878 .cfa: sp 64 +
STACK CFI 48884 .cfa: x29 32 + x19: .cfa -8 + ^ x20: .cfa -16 + ^ .ra: .cfa -24 + ^ x29: .cfa -32 + ^
STACK CFI 488f0 .cfa: sp 64 +
STACK CFI 488fc .cfa: sp 0 +
STACK CFI 48900 .cfa: x29 32 +
STACK CFI INIT 48f58 1fc .cfa: sp 0 +
STACK CFI 48f5c .cfa: sp 96 +
STACK CFI 48f70 .cfa: x29 64 + x19: .cfa -8 + ^ x20: .cfa -16 + ^ x21: .cfa -24 + ^ x22: .cfa -32 + ^ x23: .cfa -48 + ^ .ra: .cfa -56 + ^ x29: .cfa -64 + ^
STACK CFI 49114 .cfa: sp 96 +
STACK CFI 49128 .cfa: sp 0 +
STACK CFI 4912c .cfa: x29 64 +
STACK CFI INIT 4917c 6c4 .cfa: sp 0 +
STACK CFI 49180 .cfa: sp 112 +
STACK CFI 4919c .cfa: x29 96 + x19: .cfa -8 + ^ x20: .cfa -16 + ^ x21: .cfa -24 + ^ x22: .cfa -32 + ^ x23: .cfa -40 + ^ x24: .cfa -48 + ^ x25: .cfa -56 + ^ x26: .cfa -64 + ^ x27: .cfa -72 + ^ x28: .cfa -80 + ^ .ra: .cfa -88 + ^ x29: .cfa -96 + ^
STACK CFI 492e0 .cfa: sp 112 +
STACK CFI 492fc .cfa: sp 0 +
STACK CFI 49300 .cfa: x29 96 +
STACK CFI 4930c .cfa: sp 112 +
STACK CFI 49328 .cfa: sp 0 +
STACK CFI 4932c .cfa: x29 96 +
STACK CFI 497c8 .cfa: sp 112 +
STACK CFI 497e4 .cfa: sp 0 +
STACK CFI 497e8 .cfa: x29 96 +
STACK CFI INIT 49840 4c .cfa: sp 0 +
STACK CFI 49844 .cfa: sp 32 +
STACK CFI 4984c .cfa: x29 32 + x19: .cfa -8 + ^ x20: .cfa -16 + ^ .ra: .cfa -24 + ^ x29: .cfa -32 + ^
STACK CFI INIT 49e10 4c .cfa: sp 0 +
STACK CFI 49e14 .cfa: sp 32 +
STACK CFI 49e1c .cfa: x29 32 + x19: .cfa -8 + ^ x20: .cfa -16 + ^ .ra: .cfa -24 + ^ x29: .cfa -32 + ^
STACK CFI INIT 49f74 364 .cfa: sp 0 +
STACK CFI 49f78 .cfa: sp 144 +
STACK CFI 49f8c .cfa: x29 64 + x19: .cfa -8 + ^ x20: .cfa -16 + ^ x21: .cfa -24 + ^ x22: .cfa -32 + ^ x23: .cfa -48 + ^ .ra: .cfa -56 + ^ x29: .cfa -64 + ^
STACK CFI 4a120 .cfa: sp 144 +
STACK CFI 4a134 .cfa: sp 0 +
STACK CFI 4a138 .cfa: x29 64 +
STACK CFI INIT 4a2d8 644 .cfa: sp 0 +
STACK CFI 4a2dc .cfa: sp 64 +
STACK CFI 4a2ec .cfa: x29 64 + x19: .cfa -8 + ^ x20: .cfa -16 + ^ x21: .cfa -24 + ^ x22: .cfa -32 + ^ x23: .cfa -48 + ^ .ra: .cfa -56 + ^ x29: .cfa -64 + ^
STACK CFI 4a358 .cfa: sp 64 +
STACK CFI 4a368 .cfa: sp 0 +
STACK CFI 4a36c .cfa: x29 64 +
STACK CFI 4a3bc .cfa: sp 64 +
STACK CFI 4a3cc .cfa: sp 0 +
STACK CFI 4a3d0 .cfa: x29 64 +
STACK CFI 4a44c .cfa: sp 64 +
STACK CFI 4a45c .cfa: sp 0 +
STACK CFI 4a460 .cfa: x29 64 +
STACK CFI 4a550 .cfa: sp 64 +
STACK CFI 4a560 .cfa: sp 0 +
STACK CFI 4a564 .cfa: x29 64 +
STACK CFI 4a5f4 .cfa: sp 64 +
STACK CFI 4a604 .cfa: sp 0 +
STACK CFI 4a608 .cfa: x29 64 +
STACK CFI 4a620 .cfa: sp 64 +
STACK CFI 4a630 .cfa: sp 0 +
STACK CFI 4a634 .cfa: x29 64 +
STACK CFI 4a7bc .cfa: sp 64 +
STACK CFI 4a7cc .cfa: sp 0 +
STACK CFI 4a7d0 .cfa: x29 64 +
STACK CFI 4a7e4 .cfa: sp 64 +
STACK CFI 4a7f4 .cfa: sp 0 +
STACK CFI 4a7f8 .cfa: x29 64 +
STACK CFI 4a880 .cfa: sp 64 +
STACK CFI 4a890 .cfa: sp 0 +
STACK CFI 4a894 .cfa: x29 64 +
STACK CFI INIT 4ad10 6c .cfa: sp 0 +
STACK CFI 4ad14 .cfa: sp 32 +
STACK CFI 4ad1c .cfa: x29 32 + x19: .cfa -8 + ^ x20: .cfa -16 + ^ .ra: .cfa -24 + ^ x29: .cfa -32 + ^
STACK CFI 4ad5c .cfa: sp 32 +
STACK CFI 4ad64 .cfa: sp 0 +
STACK CFI 4ad68 .cfa: x29 32 +
STACK CFI INIT 4ae30 4c .cfa: sp 0 +
STACK CFI 4ae34 .cfa: sp 32 +
STACK CFI 4ae3c .cfa: x29 32 + x19: .cfa -8 + ^ x20: .cfa -16 + ^ .ra: .cfa -24 + ^ x29: .cfa -32 + ^
STACK CFI INIT 4b2a4 1d4 .cfa: sp 0 +
STACK CFI 4b2a8 .cfa: sp 176 +
STACK CFI 4b2b8 .cfa: x29 48 + x19: .cfa -8 + ^ x20: .cfa -16 + ^ x21: .cfa -24 + ^ x22: .cfa -32 + ^ .ra: .cfa -40 + ^ x29: .cfa -48 + ^
STACK CFI 4b410 .cfa: sp 176 +
STACK CFI 4b420 .cfa: sp 0 +
STACK CFI 4b424 .cfa: x29 48 +
STACK CFI 4b434 .cfa: sp 176 +
STACK CFI 4b444 .cfa: sp 0 +
STACK CFI 4b448 .cfa: x29 48 +
STACK CFI INIT 4b478 44c .cfa: sp 0 +
STACK CFI 4b47c .cfa: sp 256 +
STACK CFI 4b498 .cfa: x29 96 + x19: .cfa -8 + ^ x20: .cfa -16 + ^ x21: .cfa -24 + ^ x22: .cfa -32 + ^ x23: .cfa -40 + ^ x24: .cfa -48 + ^ x25: .cfa -56 + ^ x26: .cfa -64 + ^ x27: .cfa -72 + ^ x28: .cfa -80 + ^ .ra: .cfa -88 + ^ x29: .cfa -96 + ^
STACK CFI 4b7c8 .cfa: sp 256 +
STACK CFI 4b7e4 .cfa: sp 0 +
STACK CFI 4b7e8 .cfa: x29 96 +
STACK CFI INIT 4baec 4c .cfa: sp 0 +
STACK CFI 4baf0 .cfa: sp 32 +
STACK CFI 4baf8 .cfa: x29 32 + x19: .cfa -8 + ^ x20: .cfa -16 + ^ .ra: .cfa -24 + ^ x29: .cfa -32 + ^
STACK CFI INIT 4bb38 170 .cfa: sp 0 +
STACK CFI 4bb3c .cfa: sp 80 +
STACK CFI 4bb50 .cfa: x29 80 + x19: .cfa -8 + ^ x20: .cfa -16 + ^ x21: .cfa -24 + ^ x22: .cfa -32 + ^ x23: .cfa -40 + ^ x24: .cfa -48 + ^ x25: .cfa -64 + ^ .ra: .cfa -72 + ^ x29: .cfa -80 + ^
STACK CFI 4bc44 .cfa: sp 80 +
STACK CFI 4bc58 .cfa: sp 0 +
STACK CFI 4bc5c .cfa: x29 80 +
STACK CFI INIT 4bca8 4c .cfa: sp 0 +
STACK CFI 4bcac .cfa: sp 32 +
STACK CFI 4bcb4 .cfa: x29 32 + x19: .cfa -8 + ^ x20: .cfa -16 + ^ .ra: .cfa -24 + ^ x29: .cfa -32 + ^
STACK CFI INIT 4c264 10f4 .cfa: sp 0 +
STACK CFI 4c268 .cfa: sp 432 +
STACK CFI 4c284 .cfa: x29 96 + x19: .cfa -8 + ^ x20: .cfa -16 + ^ x21: .cfa -24 + ^ x22: .cfa -32 + ^ x23: .cfa -40 + ^ x24: .cfa -48 + ^ x25: .cfa -56 + ^ x26: .cfa -64 + ^ x27: .cfa -72 + ^ x28: .cfa -80 + ^ .ra: .cfa -88 + ^ x29: .cfa -96 + ^
STACK CFI 4d06c .cfa: sp 432 +
STACK CFI 4d088 .cfa: sp 0 +
STACK CFI 4d08c .cfa: x29 96 +
STACK CFI INIT 4d358 4c .cfa: sp 0 +
STACK CFI 4d35c .cfa: sp 32 +
STACK CFI 4d364 .cfa: x29 32 + x19: .cfa -8 + ^ x20: .cfa -16 + ^ .ra: .cfa -24 + ^ x29: .cfa -32 + ^
STACK CFI INIT 4d3ec 4c .cfa: sp 0 +
STACK CFI 4d3f0 .cfa: sp 32 +
STACK CFI 4d3f8 .cfa: x29 32 + x19: .cfa -8 + ^ x20: .cfa -16 + ^ .ra: .cfa -24 + ^ x29: .cfa -32 + ^
STACK CFI INIT 4d944 140 .cfa: sp 0 +
STACK CFI 4d948 .cfa: sp 48 +
STACK CFI 4d954 .cfa: x29 48 + x19: .cfa -8 + ^ x20: .cfa -16 + ^ x21: .cfa -32 + ^ .ra: .cfa -40 + ^ x29: .cfa -48 + ^
STACK CFI 4da34 .cfa: sp 48 +
STACK CFI 4da40 .cfa: sp 0 +
STACK CFI 4da44 .cfa: x29 48 +
STACK CFI INIT 4da84 4c .cfa: sp 0 +
STACK CFI 4da88 .cfa: sp 32 +
STACK CFI 4da90 .cfa: x29 32 + x19: .cfa -8 + ^ x20: .cfa -16 + ^ .ra: .cfa -24 + ^ x29: .cfa -32 + ^
STACK CFI INIT 4e710 1dc .cfa: sp 0 +
STACK CFI 4e714 .cfa: sp 128 +
STACK CFI 4e72c .cfa: x29 80 + x19: .cfa -8 + ^ x20: .cfa -16 + ^ x21: .cfa -24 + ^ x22: .cfa -32 + ^ x23: .cfa -40 + ^ x24: .cfa -48 + ^ x25: .cfa -64 + ^ .ra: .cfa -72 + ^ x29: .cfa -80 + ^
STACK CFI 4e820 .cfa: sp 128 +
STACK CFI 4e838 .cfa: sp 0 +
STACK CFI 4e83c .cfa: x29 80 +
STACK CFI INIT 4eb7c c6c .cfa: sp 0 +
STACK CFI 4eb80 .cfa: sp 256 +
STACK CFI 4eb9c .cfa: x29 96 + x19: .cfa -8 + ^ x20: .cfa -16 + ^ x21: .cfa -24 + ^ x22: .cfa -32 + ^ x23: .cfa -40 + ^ x24: .cfa -48 + ^ x25: .cfa -56 + ^ x26: .cfa -64 + ^ x27: .cfa -72 + ^ x28: .cfa -80 + ^ .ra: .cfa -88 + ^ x29: .cfa -96 + ^
STACK CFI 4f724 .cfa: sp 256 +
STACK CFI 4f740 .cfa: sp 0 +
STACK CFI 4f744 .cfa: x29 96 +
STACK CFI INIT 4f9e8 1c4 .cfa: sp 0 +
STACK CFI 4f9ec .cfa: sp 112 +
STACK CFI 4fa04 .cfa: x29 80 + x19: .cfa -8 + ^ x20: .cfa -16 + ^ x21: .cfa -24 + ^ x22: .cfa -32 + ^ x23: .cfa -40 + ^ x24: .cfa -48 + ^ x25: .cfa -56 + ^ x26: .cfa -64 + ^ .ra: .cfa -72 + ^ x29: .cfa -80 + ^
STACK CFI 4fb30 .cfa: sp 112 +
STACK CFI 4fb48 .cfa: sp 0 +
STACK CFI 4fb4c .cfa: x29 80 +
STACK CFI INIT 4fbc0 4c .cfa: sp 0 +
STACK CFI 4fbc4 .cfa: sp 32 +
STACK CFI 4fbcc .cfa: x29 32 + x19: .cfa -8 + ^ x20: .cfa -16 + ^ .ra: .cfa -24 + ^ x29: .cfa -32 + ^
STACK CFI INIT 50ab8 4c .cfa: sp 0 +
STACK CFI 50abc .cfa: sp 32 +
STACK CFI 50ac4 .cfa: x29 32 + x19: .cfa -8 + ^ x20: .cfa -16 + ^ .ra: .cfa -24 + ^ x29: .cfa -32 + ^
STACK CFI INIT 50b04 2b4 .cfa: sp 0 +
STACK CFI 50b08 .cfa: sp 144 +
STACK CFI 50b20 .cfa: x29 80 + x19: .cfa -8 + ^ x20: .cfa -16 + ^ x21: .cfa -24 + ^ x22: .cfa -32 + ^ x23: .cfa -40 + ^ x24: .cfa -48 + ^ x25: .cfa -56 + ^ x26: .cfa -64 + ^ .ra: .cfa -72 + ^ x29: .cfa -80 + ^
STACK CFI 50d24 .cfa: sp 144 +
STACK CFI 50d3c .cfa: sp 0 +
STACK CFI 50d40 .cfa: x29 80 +
STACK CFI INIT 50db8 228 .cfa: sp 0 +
STACK CFI 50dbc .cfa: sp 128 +
STACK CFI 50dd4 .cfa: x29 80 + x19: .cfa -8 + ^ x20: .cfa -16 + ^ x21: .cfa -24 + ^ x22: .cfa -32 + ^ x23: .cfa -40 + ^ x24: .cfa -48 + ^ x25: .cfa -64 + ^ .ra: .cfa -72 + ^ x29: .cfa -80 + ^
STACK CFI 50f70 .cfa: sp 128 +
STACK CFI 50f88 .cfa: sp 0 +
STACK CFI 50f8c .cfa: x29 80 +
STACK CFI INIT 5105c 4c .cfa: sp 0 +
STACK CFI 51060 .cfa: sp 32 +
STACK CFI 51068 .cfa: x29 32 + x19: .cfa -8 + ^ x20: .cfa -16 + ^ .ra: .cfa -24 + ^ x29: .cfa -32 + ^
STACK CFI INIT 510a8 1b4 .cfa: sp 0 +
STACK CFI 510ac .cfa: sp 112 +
STACK CFI 510c4 .cfa: x29 80 + x19: .cfa -8 + ^ x20: .cfa -16 + ^ x21: .cfa -24 + ^ x22: .cfa -32 + ^ x23: .cfa -40 + ^ x24: .cfa -48 + ^ x25: .cfa -64 + ^ .ra: .cfa -72 + ^ x29: .cfa -80 + ^
STACK CFI 511f8 .cfa: sp 112 +
STACK CFI 51210 .cfa: sp 0 +
STACK CFI 51214 .cfa: x29 80 +
STACK CFI INIT 5125c 4c .cfa: sp 0 +
STACK CFI 51260 .cfa: sp 32 +
STACK CFI 51268 .cfa: x29 32 + x19: .cfa -8 + ^ x20: .cfa -16 + ^ .ra: .cfa -24 + ^ x29: .cfa -32 + ^
STACK CFI INIT 51570 140 .cfa: sp 0 +
STACK CFI 51574 .cfa: sp 96 +
STACK CFI 5158c .cfa: x29 96 + x19: .cfa -8 + ^ x20: .cfa -16 + ^ x21: .cfa -24 + ^ x22: .cfa -32 + ^ x23: .cfa -40 + ^ x24: .cfa -48 + ^ x25: .cfa -56 + ^ x26: .cfa -64 + ^ x27: .cfa -72 + ^ x28: .cfa -80 + ^ .ra: .cfa -88 + ^ x29: .cfa -96 + ^
STACK CFI 51648 .cfa: sp 96 +
STACK CFI 51660 .cfa: sp 0 +
STACK CFI 51664 .cfa: x29 96 +
STACK CFI INIT 516b0 4c .cfa: sp 0 +
STACK CFI 516b4 .cfa: sp 32 +
STACK CFI 516bc .cfa: x29 32 + x19: .cfa -8 + ^ x20: .cfa -16 + ^ .ra: .cfa -24 + ^ x29: .cfa -32 + ^
STACK CFI INIT 516fc 4c .cfa: sp 0 +
STACK CFI 51700 .cfa: sp 32 +
STACK CFI 51708 .cfa: x29 32 + x19: .cfa -8 + ^ x20: .cfa -16 + ^ .ra: .cfa -24 + ^ x29: .cfa -32 + ^
STACK CFI INIT 51bd8 4c .cfa: sp 0 +
STACK CFI 51bdc .cfa: sp 32 +
STACK CFI 51be4 .cfa: x29 32 + x19: .cfa -8 + ^ x20: .cfa -16 + ^ .ra: .cfa -24 + ^ x29: .cfa -32 + ^
STACK CFI INIT 52b74 ea8 .cfa: sp 0 +
STACK CFI 52b78 .cfa: sp 384 +
STACK CFI 52b94 .cfa: x29 96 + x19: .cfa -8 + ^ x20: .cfa -16 + ^ x21: .cfa -24 + ^ x22: .cfa -32 + ^ x23: .cfa -40 + ^ x24: .cfa -48 + ^ x25: .cfa -56 + ^ x26: .cfa -64 + ^ x27: .cfa -72 + ^ x28: .cfa -80 + ^ .ra: .cfa -88 + ^ x29: .cfa -96 + ^
STACK CFI 538f4 .cfa: sp 384 +
STACK CFI 53910 .cfa: sp 0 +
STACK CFI 53914 .cfa: x29 96 +
STACK CFI INIT 53a1c a00 .cfa: sp 0 +
STACK CFI 53a20 .cfa: sp 416 +
STACK CFI 53a3c .cfa: x29 96 + x19: .cfa -8 + ^ x20: .cfa -16 + ^ x21: .cfa -24 + ^ x22: .cfa -32 + ^ x23: .cfa -40 + ^ x24: .cfa -48 + ^ x25: .cfa -56 + ^ x26: .cfa -64 + ^ x27: .cfa -72 + ^ x28: .cfa -80 + ^ .ra: .cfa -88 + ^ x29: .cfa -96 + ^
STACK CFI 53b64 .cfa: sp 416 +
STACK CFI 53b80 .cfa: sp 0 +
STACK CFI 53b84 .cfa: x29 96 +
STACK CFI INIT 545e4 5f0 .cfa: sp 0 +
STACK CFI 545e8 .cfa: sp 112 +
STACK CFI 54604 .cfa: x29 96 + x19: .cfa -8 + ^ x20: .cfa -16 + ^ x21: .cfa -24 + ^ x22: .cfa -32 + ^ x23: .cfa -40 + ^ x24: .cfa -48 + ^ x25: .cfa -56 + ^ x26: .cfa -64 + ^ x27: .cfa -80 + ^ .ra: .cfa -88 + ^ x29: .cfa -96 + ^
STACK CFI 548a8 .cfa: sp 112 +
STACK CFI 548c4 .cfa: sp 0 +
STACK CFI 548c8 .cfa: x29 96 +
STACK CFI 54abc .cfa: sp 112 +
STACK CFI 54ad8 .cfa: sp 0 +
STACK CFI 54adc .cfa: x29 96 +
STACK CFI INIT 55088 5f0 .cfa: sp 0 +
STACK CFI 5508c .cfa: sp 112 +
STACK CFI 550a8 .cfa: x29 96 + x19: .cfa -8 + ^ x20: .cfa -16 + ^ x21: .cfa -24 + ^ x22: .cfa -32 + ^ x23: .cfa -40 + ^ x24: .cfa -48 + ^ x25: .cfa -56 + ^ x26: .cfa -64 + ^ x27: .cfa -80 + ^ .ra: .cfa -88 + ^ x29: .cfa -96 + ^
STACK CFI 5534c .cfa: sp 112 +
STACK CFI 55368 .cfa: sp 0 +
STACK CFI 5536c .cfa: x29 96 +
STACK CFI 55560 .cfa: sp 112 +
STACK CFI 5557c .cfa: sp 0 +
STACK CFI 55580 .cfa: x29 96 +
STACK CFI INIT 55804 190 .cfa: sp 0 +
STACK CFI 55808 .cfa: sp 160 +
STACK CFI 55818 .cfa: x29 48 + x19: .cfa -8 + ^ x20: .cfa -16 + ^ x21: .cfa -32 + ^ .ra: .cfa -40 + ^ x29: .cfa -48 + ^
STACK CFI 55938 .cfa: sp 160 +
STACK CFI 55948 .cfa: sp 0 +
STACK CFI 5594c .cfa: x29 48 +
STACK CFI INIT 55994 74 .cfa: sp 0 +
STACK CFI 55998 .cfa: sp 48 +
STACK CFI 559a4 .cfa: x29 32 + x19: .cfa -8 + ^ x20: .cfa -16 + ^ .ra: .cfa -24 + ^ x29: .cfa -32 + ^
STACK CFI 559f0 .cfa: sp 48 +
STACK CFI 559fc .cfa: sp 0 +
STACK CFI 55a00 .cfa: x29 32 +
STACK CFI INIT 55a6c 168 .cfa: sp 0 +
STACK CFI 55a70 .cfa: sp 144 +
STACK CFI 55a80 .cfa: x29 48 + x19: .cfa -8 + ^ x20: .cfa -16 + ^ x21: .cfa -32 + ^ .ra: .cfa -40 + ^ x29: .cfa -48 + ^
STACK CFI 55b78 .cfa: sp 144 +
STACK CFI 55b88 .cfa: sp 0 +
STACK CFI 55b8c .cfa: x29 48 +
STACK CFI INIT 55c40 230 .cfa: sp 0 +
STACK CFI 55c44 .cfa: sp 80 +
STACK CFI 55c58 .cfa: x29 80 + x19: .cfa -8 + ^ x20: .cfa -16 + ^ x21: .cfa -24 + ^ x22: .cfa -32 + ^ x23: .cfa -40 + ^ x24: .cfa -48 + ^ x25: .cfa -56 + ^ x28: .cfa -64 + ^ .ra: .cfa -72 + ^ x29: .cfa -80 + ^
STACK CFI 55dfc .cfa: sp 80 +
STACK CFI 55e10 .cfa: sp 0 +
STACK CFI 55e14 .cfa: x29 80 +
STACK CFI INIT 55e70 10c .cfa: sp 0 +
STACK CFI 55e74 .cfa: sp 96 +
STACK CFI 55e88 .cfa: x29 64 + x19: .cfa -8 + ^ x20: .cfa -16 + ^ x21: .cfa -24 + ^ x22: .cfa -32 + ^ x23: .cfa -48 + ^ .ra: .cfa -56 + ^ x29: .cfa -64 + ^
STACK CFI 55f00 .cfa: sp 96 +
STACK CFI 55f14 .cfa: sp 0 +
STACK CFI 55f18 .cfa: x29 64 +
STACK CFI INIT 560bc cc .cfa: sp 0 +
STACK CFI 560c0 .cfa: sp 64 +
STACK CFI 560d0 .cfa: x29 48 + x19: .cfa -8 + ^ x20: .cfa -16 + ^ x21: .cfa -32 + ^ .ra: .cfa -40 + ^ x29: .cfa -48 + ^
STACK CFI 5614c .cfa: sp 64 +
STACK CFI 5615c .cfa: sp 0 +
STACK CFI 56160 .cfa: x29 48 +
STACK CFI INIT 561e0 480 .cfa: sp 0 +
STACK CFI 561e4 .cfa: sp 224 +
STACK CFI 56200 .cfa: x29 96 + x19: .cfa -8 + ^ x20: .cfa -16 + ^ x21: .cfa -24 + ^ x22: .cfa -32 + ^ x23: .cfa -40 + ^ x24: .cfa -48 + ^ x25: .cfa -56 + ^ x26: .cfa -64 + ^ x27: .cfa -80 + ^ .ra: .cfa -88 + ^ x29: .cfa -96 + ^
STACK CFI 5646c .cfa: sp 224 +
STACK CFI 56488 .cfa: sp 0 +
STACK CFI 5648c .cfa: x29 96 +
STACK CFI 56558 .cfa: sp 224 +
STACK CFI 56574 .cfa: sp 0 +
STACK CFI 56578 .cfa: x29 96 +
STACK CFI INIT 5667c 380 .cfa: sp 0 +
STACK CFI 56680 .cfa: sp 240 +
STACK CFI 56694 .cfa: x29 64 + x19: .cfa -8 + ^ x20: .cfa -16 + ^ x21: .cfa -24 + ^ x22: .cfa -32 + ^ x23: .cfa -48 + ^ .ra: .cfa -56 + ^ x29: .cfa -64 + ^
STACK CFI 568d8 .cfa: sp 240 +
STACK CFI 568ec .cfa: sp 0 +
STACK CFI 568f0 .cfa: x29 64 +
STACK CFI INIT 56a4c 74 .cfa: sp 0 +
STACK CFI 56a50 .cfa: sp 48 +
STACK CFI 56a5c .cfa: x29 32 + x19: .cfa -8 + ^ x20: .cfa -16 + ^ .ra: .cfa -24 + ^ x29: .cfa -32 + ^
STACK CFI 56aa8 .cfa: sp 48 +
STACK CFI 56ab4 .cfa: sp 0 +
STACK CFI 56ab8 .cfa: x29 32 +
STACK CFI INIT 56ac4 154 .cfa: sp 0 +
STACK CFI 56ac8 .cfa: sp 384 +
STACK CFI 56adc .cfa: x29 64 + x19: .cfa -8 + ^ x20: .cfa -16 + ^ x21: .cfa -24 + ^ x22: .cfa -32 + ^ x23: .cfa -40 + ^ x28: .cfa -48 + ^ .ra: .cfa -56 + ^ x29: .cfa -64 + ^
STACK CFI 56bc0 .cfa: sp 384 +
STACK CFI 56bd4 .cfa: sp 0 +
STACK CFI 56bd8 .cfa: x29 64 +
STACK CFI INIT 56c18 12c .cfa: sp 0 +
STACK CFI 56c1c .cfa: sp 80 +
STACK CFI 56c30 .cfa: x29 80 + x19: .cfa -8 + ^ x20: .cfa -16 + ^ x21: .cfa -24 + ^ x22: .cfa -32 + ^ x23: .cfa -40 + ^ x24: .cfa -48 + ^ x25: .cfa -56 + ^ x26: .cfa -64 + ^ .ra: .cfa -72 + ^ x29: .cfa -80 + ^
STACK CFI 56cf8 .cfa: sp 80 +
STACK CFI 56d0c .cfa: sp 0 +
STACK CFI 56d10 .cfa: x29 80 +
STACK CFI INIT 56de8 1a4 .cfa: sp 0 +
STACK CFI 56dec .cfa: sp 112 +
STACK CFI 56e04 .cfa: x29 80 + x19: .cfa -8 + ^ x20: .cfa -16 + ^ x21: .cfa -24 + ^ x22: .cfa -32 + ^ x23: .cfa -40 + ^ x24: .cfa -48 + ^ x25: .cfa -56 + ^ x26: .cfa -64 + ^ .ra: .cfa -72 + ^ x29: .cfa -80 + ^
STACK CFI 56ef4 .cfa: sp 112 +
STACK CFI 56f0c .cfa: sp 0 +
STACK CFI 56f10 .cfa: x29 80 +
STACK CFI INIT 56f8c 1dc .cfa: sp 0 +
STACK CFI 56f90 .cfa: sp 128 +
STACK CFI 56fac .cfa: x29 96 + x19: .cfa -8 + ^ x20: .cfa -16 + ^ x21: .cfa -24 + ^ x22: .cfa -32 + ^ x23: .cfa -40 + ^ x24: .cfa -48 + ^ x25: .cfa -56 + ^ x26: .cfa -64 + ^ x27: .cfa -80 + ^ .ra: .cfa -88 + ^ x29: .cfa -96 + ^
STACK CFI 57118 .cfa: sp 128 +
STACK CFI 57134 .cfa: sp 0 +
STACK CFI 57138 .cfa: x29 96 +
STACK CFI INIT 57168 178 .cfa: sp 0 +
STACK CFI 5716c .cfa: sp 80 +
STACK CFI 57180 .cfa: x29 80 + x19: .cfa -8 + ^ x20: .cfa -16 + ^ x21: .cfa -24 + ^ x22: .cfa -32 + ^ x23: .cfa -40 + ^ x24: .cfa -48 + ^ x25: .cfa -64 + ^ .ra: .cfa -72 + ^ x29: .cfa -80 + ^
STACK CFI 572ac .cfa: sp 80 +
STACK CFI 572c0 .cfa: sp 0 +
STACK CFI 572c4 .cfa: x29 80 +
STACK CFI INIT 57a88 a4 .cfa: sp 0 +
STACK CFI 57a8c .cfa: sp 32 +
STACK CFI 57a98 .cfa: x29 24 + x19: .cfa -8 + ^ .ra: .cfa -16 + ^ x29: .cfa -24 + ^ v8: .cfa -32 + ^
STACK CFI 57abc .cfa: sp 32 +
STACK CFI 57ac8 .cfa: sp 0 +
STACK CFI 57acc .cfa: x29 24 +
STACK CFI INIT 57b2c d8 .cfa: sp 0 +
STACK CFI 57b30 .cfa: sp 32 +
STACK CFI 57b38 .cfa: x29 32 + x19: .cfa -16 + ^ .ra: .cfa -24 + ^ x29: .cfa -32 + ^
STACK CFI 57b6c .cfa: sp 32 +
STACK CFI 57b74 .cfa: sp 0 +
STACK CFI 57b78 .cfa: x29 32 +
STACK CFI 57b7c .cfa: sp 32 +
STACK CFI 57b84 .cfa: sp 0 +
STACK CFI 57b88 .cfa: x29 32 +
STACK CFI INIT 57e30 a18 .cfa: sp 0 +
STACK CFI 57e34 .cfa: sp 272 +
STACK CFI 57e50 .cfa: x29 96 + x19: .cfa -8 + ^ x20: .cfa -16 + ^ x21: .cfa -24 + ^ x22: .cfa -32 + ^ x23: .cfa -40 + ^ x24: .cfa -48 + ^ x25: .cfa -56 + ^ x26: .cfa -64 + ^ x27: .cfa -72 + ^ x28: .cfa -80 + ^ .ra: .cfa -88 + ^ x29: .cfa -96 + ^
STACK CFI 57ff8 .cfa: sp 272 +
STACK CFI 58014 .cfa: sp 0 +
STACK CFI 58018 .cfa: x29 96 +
STACK CFI 585e0 .cfa: sp 272 +
STACK CFI 585fc .cfa: sp 0 +
STACK CFI 58600 .cfa: x29 96 +
STACK CFI INIT 58864 998 .cfa: sp 0 +
STACK CFI 58868 .cfa: sp 240 +
STACK CFI 58880 .cfa: x29 80 + x19: .cfa -8 + ^ x20: .cfa -16 + ^ x21: .cfa -24 + ^ x22: .cfa -32 + ^ x23: .cfa -40 + ^ x24: .cfa -48 + ^ x25: .cfa -64 + ^ .ra: .cfa -72 + ^ x29: .cfa -80 + ^
STACK CFI 58f3c .cfa: sp 240 +
STACK CFI 58f54 .cfa: sp 0 +
STACK CFI 58f58 .cfa: x29 80 +
STACK CFI INIT 59200 110 .cfa: sp 0 +
STACK CFI 59204 .cfa: sp 96 +
STACK CFI 59218 .cfa: x29 64 + x19: .cfa -8 + ^ x20: .cfa -16 + ^ x21: .cfa -24 + ^ x22: .cfa -32 + ^ x23: .cfa -40 + ^ x24: .cfa -48 + ^ .ra: .cfa -56 + ^ x29: .cfa -64 + ^
STACK CFI 59260 .cfa: sp 96 +
STACK CFI 59274 .cfa: sp 0 +
STACK CFI 59278 .cfa: x29 64 +
STACK CFI INIT 5938c 168 .cfa: sp 0 +
STACK CFI 59390 .cfa: sp 384 +
STACK CFI 593a4 .cfa: x29 64 + x19: .cfa -8 + ^ x20: .cfa -16 + ^ x21: .cfa -24 + ^ x22: .cfa -32 + ^ x23: .cfa -40 + ^ x28: .cfa -48 + ^ .ra: .cfa -56 + ^ x29: .cfa -64 + ^
STACK CFI 5949c .cfa: sp 384 +
STACK CFI 594b0 .cfa: sp 0 +
STACK CFI 594b4 .cfa: x29 64 +
STACK CFI INIT 59588 174 .cfa: sp 0 +
STACK CFI 5958c .cfa: sp 112 +
STACK CFI 5959c .cfa: x29 48 + x19: .cfa -8 + ^ x20: .cfa -16 + ^ x21: .cfa -32 + ^ .ra: .cfa -40 + ^ x29: .cfa -48 + ^
STACK CFI 59698 .cfa: sp 112 +
STACK CFI 596a8 .cfa: sp 0 +
STACK CFI 596ac .cfa: x29 48 +
STACK CFI INIT 597d4 234 .cfa: sp 0 +
STACK CFI 597d8 .cfa: sp 112 +
STACK CFI 597f0 .cfa: x29 64 + x19: .cfa -8 + ^ x20: .cfa -16 + ^ x21: .cfa -24 + ^ x22: .cfa -32 + ^ x23: .cfa -48 + ^ .ra: .cfa -56 + ^ x29: .cfa -64 + ^ v8: .cfa -72 + ^ v9: .cfa -80 + ^
STACK CFI 599b0 .cfa: sp 112 +
STACK CFI 599c8 .cfa: sp 0 +
STACK CFI 599cc .cfa: x29 64 +
STACK CFI INIT 59a08 184 .cfa: sp 0 +
STACK CFI 59a0c .cfa: sp 160 +
STACK CFI 59a24 .cfa: x29 80 + x19: .cfa -8 + ^ x20: .cfa -16 + ^ x21: .cfa -24 + ^ x22: .cfa -32 + ^ x23: .cfa -40 + ^ x24: .cfa -48 + ^ x25: .cfa -56 + ^ x26: .cfa -64 + ^ .ra: .cfa -72 + ^ x29: .cfa -80 + ^
STACK CFI 59b24 .cfa: sp 160 +
STACK CFI 59b3c .cfa: sp 0 +
STACK CFI 59b40 .cfa: x29 80 +
STACK CFI INIT 59b8c 174 .cfa: sp 0 +
STACK CFI 59b90 .cfa: sp 80 +
STACK CFI 59ba0 .cfa: x29 48 + x19: .cfa -8 + ^ x20: .cfa -16 + ^ x21: .cfa -24 + ^ x22: .cfa -32 + ^ .ra: .cfa -40 + ^ x29: .cfa -48 + ^
STACK CFI 59c78 .cfa: sp 80 +
STACK CFI 59c88 .cfa: sp 0 +
STACK CFI 59c8c .cfa: x29 48 +
STACK CFI INIT 59d00 174 .cfa: sp 0 +
STACK CFI 59d04 .cfa: sp 80 +
STACK CFI 59d14 .cfa: x29 48 + x19: .cfa -8 + ^ x20: .cfa -16 + ^ x21: .cfa -24 + ^ x22: .cfa -32 + ^ .ra: .cfa -40 + ^ x29: .cfa -48 + ^
STACK CFI 59dec .cfa: sp 80 +
STACK CFI 59dfc .cfa: sp 0 +
STACK CFI 59e00 .cfa: x29 48 +
STACK CFI INIT 59e74 174 .cfa: sp 0 +
STACK CFI 59e78 .cfa: sp 80 +
STACK CFI 59e88 .cfa: x29 48 + x19: .cfa -8 + ^ x20: .cfa -16 + ^ x21: .cfa -24 + ^ x22: .cfa -32 + ^ .ra: .cfa -40 + ^ x29: .cfa -48 + ^
STACK CFI 59f60 .cfa: sp 80 +
STACK CFI 59f70 .cfa: sp 0 +
STACK CFI 59f74 .cfa: x29 48 +
STACK CFI INIT 59fe8 648 .cfa: sp 0 +
STACK CFI 59fec .cfa: sp 224 +
STACK CFI 5a008 .cfa: x29 96 + x19: .cfa -8 + ^ x20: .cfa -16 + ^ x21: .cfa -24 + ^ x22: .cfa -32 + ^ x23: .cfa -40 + ^ x24: .cfa -48 + ^ x25: .cfa -56 + ^ x26: .cfa -64 + ^ x27: .cfa -72 + ^ x28: .cfa -80 + ^ .ra: .cfa -88 + ^ x29: .cfa -96 + ^
STACK CFI 5a4c0 .cfa: sp 224 +
STACK CFI 5a4dc .cfa: sp 0 +
STACK CFI 5a4e0 .cfa: x29 96 +
STACK CFI INIT 5a630 474 .cfa: sp 0 +
STACK CFI 5a634 .cfa: sp 288 +
STACK CFI 5a64c .cfa: x29 80 + x19: .cfa -8 + ^ x20: .cfa -16 + ^ x21: .cfa -24 + ^ x22: .cfa -32 + ^ x23: .cfa -40 + ^ x24: .cfa -48 + ^ x25: .cfa -56 + ^ x28: .cfa -64 + ^ .ra: .cfa -72 + ^ x29: .cfa -80 + ^
STACK CFI 5a8c8 .cfa: sp 288 +
STACK CFI 5a8e0 .cfa: sp 0 +
STACK CFI 5a8e4 .cfa: x29 80 +
STACK CFI INIT 5ab3c 480 .cfa: sp 0 +
STACK CFI 5ab40 .cfa: sp 224 +
STACK CFI 5ab5c .cfa: x29 96 + x19: .cfa -8 + ^ x20: .cfa -16 + ^ x21: .cfa -24 + ^ x22: .cfa -32 + ^ x23: .cfa -40 + ^ x24: .cfa -48 + ^ x25: .cfa -56 + ^ x26: .cfa -64 + ^ x27: .cfa -80 + ^ .ra: .cfa -88 + ^ x29: .cfa -96 + ^
STACK CFI 5adc8 .cfa: sp 224 +
STACK CFI 5ade4 .cfa: sp 0 +
STACK CFI 5ade8 .cfa: x29 96 +
STACK CFI 5aeb4 .cfa: sp 224 +
STACK CFI 5aed0 .cfa: sp 0 +
STACK CFI 5aed4 .cfa: x29 96 +
STACK CFI INIT 5b110 688 .cfa: sp 0 +
STACK CFI 5b114 .cfa: sp 256 +
STACK CFI 5b12c .cfa: x29 80 + x19: .cfa -8 + ^ x20: .cfa -16 + ^ x21: .cfa -24 + ^ x22: .cfa -32 + ^ x23: .cfa -40 + ^ x24: .cfa -48 + ^ x25: .cfa -56 + ^ x26: .cfa -64 + ^ .ra: .cfa -72 + ^ x29: .cfa -80 + ^
STACK CFI 5b5ac .cfa: sp 256 +
STACK CFI 5b5c4 .cfa: sp 0 +
STACK CFI 5b5c8 .cfa: x29 80 +
STACK CFI INIT 5b79c 598 .cfa: sp 0 +
STACK CFI 5b7a0 .cfa: sp 256 +
STACK CFI 5b7b8 .cfa: x29 64 + x19: .cfa -8 + ^ x20: .cfa -16 + ^ x21: .cfa -24 + ^ x22: .cfa -32 + ^ x23: .cfa -40 + ^ x24: .cfa -48 + ^ .ra: .cfa -56 + ^ x29: .cfa -64 + ^ v8: .cfa -80 + ^
STACK CFI 5bbf8 .cfa: sp 256 +
STACK CFI 5bc10 .cfa: sp 0 +
STACK CFI 5bc14 .cfa: x29 64 +
STACK CFI INIT 5bd34 55c .cfa: sp 0 +
STACK CFI 5bd38 .cfa: sp 96 +
STACK CFI 5bd50 .cfa: x29 96 + x19: .cfa -8 + ^ x20: .cfa -16 + ^ x21: .cfa -24 + ^ x22: .cfa -32 + ^ x23: .cfa -40 + ^ x24: .cfa -48 + ^ x25: .cfa -56 + ^ x26: .cfa -64 + ^ x28: .cfa -80 + ^ .ra: .cfa -88 + ^ x29: .cfa -96 + ^
STACK CFI 5c154 .cfa: sp 96 +
STACK CFI 5c16c .cfa: sp 0 +
STACK CFI 5c170 .cfa: x29 96 +
STACK CFI INIT 5c294 174 .cfa: sp 0 +
STACK CFI 5c298 .cfa: sp 112 +
STACK CFI 5c2a8 .cfa: x29 48 + x19: .cfa -8 + ^ x20: .cfa -16 + ^ x21: .cfa -32 + ^ .ra: .cfa -40 + ^ x29: .cfa -48 + ^
STACK CFI 5c3a4 .cfa: sp 112 +
STACK CFI 5c3b4 .cfa: sp 0 +
STACK CFI 5c3b8 .cfa: x29 48 +
STACK CFI INIT 5c528 178 .cfa: sp 0 +
STACK CFI 5c52c .cfa: sp 64 +
STACK CFI 5c538 .cfa: x29 32 + x19: .cfa -8 + ^ x20: .cfa -16 + ^ .ra: .cfa -24 + ^ x29: .cfa -32 + ^
STACK CFI 5c614 .cfa: sp 64 +
STACK CFI 5c620 .cfa: sp 0 +
STACK CFI 5c624 .cfa: x29 32 +
STACK CFI INIT 5c708 16c .cfa: sp 0 +
STACK CFI 5c70c .cfa: sp 64 +
STACK CFI 5c718 .cfa: x29 32 + x19: .cfa -8 + ^ x20: .cfa -16 + ^ .ra: .cfa -24 + ^ x29: .cfa -32 + ^
STACK CFI 5c7e8 .cfa: sp 64 +
STACK CFI 5c7f4 .cfa: sp 0 +
STACK CFI 5c7f8 .cfa: x29 32 +
STACK CFI INIT 5c8e0 16c .cfa: sp 0 +
STACK CFI 5c8e4 .cfa: sp 64 +
STACK CFI 5c8f0 .cfa: x29 32 + x19: .cfa -8 + ^ x20: .cfa -16 + ^ .ra: .cfa -24 + ^ x29: .cfa -32 + ^
STACK CFI 5c9c0 .cfa: sp 64 +
STACK CFI 5c9cc .cfa: sp 0 +
STACK CFI 5c9d0 .cfa: x29 32 +
STACK CFI INIT 5ca84 480 .cfa: sp 0 +
STACK CFI 5ca88 .cfa: sp 224 +
STACK CFI 5caa4 .cfa: x29 96 + x19: .cfa -8 + ^ x20: .cfa -16 + ^ x21: .cfa -24 + ^ x22: .cfa -32 + ^ x23: .cfa -40 + ^ x24: .cfa -48 + ^ x25: .cfa -56 + ^ x26: .cfa -64 + ^ x27: .cfa -80 + ^ .ra: .cfa -88 + ^ x29: .cfa -96 + ^
STACK CFI 5cd10 .cfa: sp 224 +
STACK CFI 5cd2c .cfa: sp 0 +
STACK CFI 5cd30 .cfa: x29 96 +
STACK CFI 5cdfc .cfa: sp 224 +
STACK CFI 5ce18 .cfa: sp 0 +
STACK CFI 5ce1c .cfa: x29 96 +
STACK CFI INIT 5cf20 308 .cfa: sp 0 +
STACK CFI 5cf24 .cfa: sp 176 +
STACK CFI 5cf38 .cfa: x29 64 + x19: .cfa -8 + ^ x20: .cfa -16 + ^ x21: .cfa -24 + ^ x22: .cfa -32 + ^ x23: .cfa -48 + ^ .ra: .cfa -56 + ^ x29: .cfa -64 + ^
STACK CFI 5d120 .cfa: sp 176 +
STACK CFI 5d134 .cfa: sp 0 +
STACK CFI 5d138 .cfa: x29 64 +
STACK CFI INIT 5d22c f8 .cfa: sp 0 +
STACK CFI 5d230 .cfa: sp 48 +
STACK CFI 5d23c .cfa: x29 48 + x19: .cfa -8 + ^ x20: .cfa -16 + ^ x21: .cfa -32 + ^ .ra: .cfa -40 + ^ x29: .cfa -48 + ^
STACK CFI 5d2b4 .cfa: sp 48 +
STACK CFI 5d2c0 .cfa: sp 0 +
STACK CFI 5d2c4 .cfa: x29 48 +
STACK CFI INIT 5d324 a8 .cfa: sp 0 +
STACK CFI 5d328 .cfa: sp 32 +
STACK CFI 5d330 .cfa: x29 32 + x19: .cfa -16 + ^ .ra: .cfa -24 + ^ x29: .cfa -32 + ^
STACK CFI 5d364 .cfa: sp 32 +
STACK CFI 5d36c .cfa: sp 0 +
STACK CFI 5d370 .cfa: x29 32 +
STACK CFI 5d374 .cfa: sp 32 +
STACK CFI 5d37c .cfa: sp 0 +
STACK CFI 5d380 .cfa: x29 32 +
STACK CFI INIT 5d468 a00 .cfa: sp 0 +
STACK CFI 5d46c .cfa: sp 416 +
STACK CFI 5d484 .cfa: x29 80 + x19: .cfa -8 + ^ x20: .cfa -16 + ^ x21: .cfa -24 + ^ x22: .cfa -32 + ^ x23: .cfa -40 + ^ x24: .cfa -48 + ^ x28: .cfa -64 + ^ .ra: .cfa -72 + ^ x29: .cfa -80 + ^
STACK CFI 5dd04 .cfa: sp 416 +
STACK CFI 5dd1c .cfa: sp 0 +
STACK CFI 5dd20 .cfa: x29 80 +
STACK CFI INIT 5de68 1c .cfa: sp 0 +
STACK CFI 5de6c .cfa: sp 16 +
STACK CFI 5de70 .cfa: x29 16 + .ra: .cfa -8 + ^ x29: .cfa -16 + ^
STACK CFI 5de78 .cfa: sp 16 +
STACK CFI 5de7c .cfa: sp 0 +
STACK CFI 5de80 .cfa: x29 16 +
STACK CFI INIT 5de84 c4 .cfa: sp 0 +
STACK CFI 5de88 .cfa: sp 48 +
STACK CFI 5de94 .cfa: x29 48 + x19: .cfa -8 + ^ x20: .cfa -16 + ^ x21: .cfa -32 + ^ .ra: .cfa -40 + ^ x29: .cfa -48 + ^
STACK CFI 5df00 .cfa: sp 48 +
STACK CFI 5df0c .cfa: sp 0 +
STACK CFI 5df10 .cfa: x29 48 +
STACK CFI 5df34 .cfa: sp 48 +
STACK CFI 5df40 .cfa: sp 0 +
STACK CFI 5df44 .cfa: x29 48 +
STACK CFI INIT 5df48 84 .cfa: sp 0 +
STACK CFI 5df4c .cfa: sp 48 +
STACK CFI 5df58 .cfa: x29 48 + x19: .cfa -8 + ^ x20: .cfa -16 + ^ x21: .cfa -32 + ^ .ra: .cfa -40 + ^ x29: .cfa -48 + ^
STACK CFI 5df78 .cfa: sp 48 +
STACK CFI 5df84 .cfa: sp 0 +
STACK CFI 5df88 .cfa: x29 48 +
STACK CFI 5dfa8 .cfa: sp 48 +
STACK CFI 5dfb4 .cfa: sp 0 +
STACK CFI 5dfb8 .cfa: sp 48 +
STACK CFI 5dfc4 .cfa: sp 0 +
STACK CFI 5dfc8 .cfa: x29 48 +
STACK CFI INIT 5dfcc 94 .cfa: sp 0 +
STACK CFI 5dfd0 .cfa: sp 48 +
STACK CFI 5dfdc .cfa: x29 48 + x19: .cfa -8 + ^ x20: .cfa -16 + ^ x21: .cfa -24 + ^ x22: .cfa -32 + ^ .ra: .cfa -40 + ^ x29: .cfa -48 + ^
STACK CFI 5dfe4 .cfa: sp 48 +
STACK CFI 5dff0 .cfa: sp 0 +
STACK CFI 5dff4 .cfa: x29 48 +
STACK CFI 5e018 .cfa: sp 48 +
STACK CFI 5e024 .cfa: sp 0 +
STACK CFI 5e028 .cfa: x29 48 +
STACK CFI 5e04c .cfa: sp 48 +
STACK CFI 5e058 .cfa: sp 0 +
STACK CFI 5e05c .cfa: x29 48 +
STACK CFI INIT 5e060 48 .cfa: sp 0 +
STACK CFI 5e064 .cfa: sp 32 +
STACK CFI 5e06c .cfa: x29 32 + x19: .cfa -8 + ^ x20: .cfa -16 + ^ .ra: .cfa -24 + ^ x29: .cfa -32 + ^
STACK CFI 5e074 .cfa: sp 32 +
STACK CFI 5e07c .cfa: sp 0 +
STACK CFI 5e080 .cfa: x29 32 +
STACK CFI INIT 5e134 12c .cfa: sp 0 +
STACK CFI 5e138 .cfa: sp 80 +
STACK CFI 5e148 .cfa: x29 48 + x19: .cfa -8 + ^ x20: .cfa -16 + ^ x21: .cfa -32 + ^ .ra: .cfa -40 + ^ x29: .cfa -48 + ^
STACK CFI 5e1e0 .cfa: sp 80 +
STACK CFI 5e1f0 .cfa: sp 0 +
STACK CFI 5e1f4 .cfa: x29 48 +
STACK CFI INIT 5e260 7a0 .cfa: sp 0 +
STACK CFI 5e264 .cfa: sp 256 +
STACK CFI 5e274 .cfa: x29 48 + x19: .cfa -8 + ^ x20: .cfa -16 + ^ x21: .cfa -24 + ^ x22: .cfa -32 + ^ .ra: .cfa -40 + ^ x29: .cfa -48 + ^
STACK CFI 5e874 .cfa: sp 256 +
STACK CFI 5e884 .cfa: sp 0 +
STACK CFI 5e888 .cfa: x29 48 +
STACK CFI INIT 5eaa0 f8 .cfa: sp 0 +
STACK CFI 5eaa4 .cfa: sp 48 +
STACK CFI 5eab0 .cfa: x29 48 + x19: .cfa -8 + ^ x20: .cfa -16 + ^ x21: .cfa -32 + ^ .ra: .cfa -40 + ^ x29: .cfa -48 + ^
STACK CFI 5eb1c .cfa: sp 48 +
STACK CFI 5eb28 .cfa: sp 0 +
STACK CFI 5eb2c .cfa: x29 48 +
STACK CFI INIT 5ec44 27c .cfa: sp 0 +
STACK CFI 5ec48 .cfa: sp 64 +
STACK CFI 5ec58 .cfa: x29 64 + x19: .cfa -8 + ^ x20: .cfa -16 + ^ x21: .cfa -24 + ^ x22: .cfa -32 + ^ x23: .cfa -40 + ^ x28: .cfa -48 + ^ .ra: .cfa -56 + ^ x29: .cfa -64 + ^
STACK CFI 5ee0c .cfa: sp 64 +
STACK CFI 5ee1c .cfa: sp 0 +
STACK CFI 5ee20 .cfa: x29 64 +
STACK CFI INIT 5eee8 320 .cfa: sp 0 +
STACK CFI 5eeec .cfa: sp 128 +
STACK CFI 5ef08 .cfa: x29 96 + x19: .cfa -8 + ^ x20: .cfa -16 + ^ x21: .cfa -24 + ^ x22: .cfa -32 + ^ x23: .cfa -40 + ^ x24: .cfa -48 + ^ x25: .cfa -56 + ^ x26: .cfa -64 + ^ x27: .cfa -80 + ^ .ra: .cfa -88 + ^ x29: .cfa -96 + ^
STACK CFI 5f13c .cfa: sp 128 +
STACK CFI 5f158 .cfa: sp 0 +
STACK CFI 5f15c .cfa: x29 96 +
STACK CFI INIT 5f470 174 .cfa: sp 0 +
STACK CFI 5f474 .cfa: sp 112 +
STACK CFI 5f484 .cfa: x29 48 + x19: .cfa -8 + ^ x20: .cfa -16 + ^ x21: .cfa -32 + ^ .ra: .cfa -40 + ^ x29: .cfa -48 + ^
STACK CFI 5f580 .cfa: sp 112 +
STACK CFI 5f590 .cfa: sp 0 +
STACK CFI 5f594 .cfa: x29 48 +
STACK CFI INIT 5f780 238 .cfa: sp 0 +
STACK CFI 5f784 .cfa: sp 128 +
STACK CFI 5f798 .cfa: x29 64 + x19: .cfa -8 + ^ x20: .cfa -16 + ^ x21: .cfa -24 + ^ x22: .cfa -32 + ^ x23: .cfa -48 + ^ .ra: .cfa -56 + ^ x29: .cfa -64 + ^
STACK CFI 5f950 .cfa: sp 128 +
STACK CFI 5f964 .cfa: sp 0 +
STACK CFI 5f968 .cfa: x29 64 +
STACK CFI INIT 5fa8c 238 .cfa: sp 0 +
STACK CFI 5fa90 .cfa: sp 128 +
STACK CFI 5faa4 .cfa: x29 64 + x19: .cfa -8 + ^ x20: .cfa -16 + ^ x21: .cfa -24 + ^ x22: .cfa -32 + ^ x23: .cfa -48 + ^ .ra: .cfa -56 + ^ x29: .cfa -64 + ^
STACK CFI 5fc5c .cfa: sp 128 +
STACK CFI 5fc70 .cfa: sp 0 +
STACK CFI 5fc74 .cfa: x29 64 +
STACK CFI INIT 5fd4c 208 .cfa: sp 0 +
STACK CFI 5fd50 .cfa: sp 112 +
STACK CFI 5fd60 .cfa: x29 48 + x19: .cfa -8 + ^ x20: .cfa -16 + ^ x21: .cfa -32 + ^ .ra: .cfa -40 + ^ x29: .cfa -48 + ^
STACK CFI 5fe98 .cfa: sp 112 +
STACK CFI 5fea8 .cfa: sp 0 +
STACK CFI 5feac .cfa: x29 48 +
STACK CFI INIT 60010 12c .cfa: sp 0 +
STACK CFI 60014 .cfa: sp 80 +
STACK CFI 60024 .cfa: x29 48 + x19: .cfa -8 + ^ x20: .cfa -16 + ^ x21: .cfa -32 + ^ .ra: .cfa -40 + ^ x29: .cfa -48 + ^
STACK CFI 600bc .cfa: sp 80 +
STACK CFI 600cc .cfa: sp 0 +
STACK CFI 600d0 .cfa: x29 48 +
STACK CFI INIT 6013c 130 .cfa: sp 0 +
STACK CFI 60140 .cfa: sp 96 +
STACK CFI 60154 .cfa: x29 48 + x19: .cfa -8 + ^ x20: .cfa -16 + ^ x21: .cfa -24 + ^ x22: .cfa -32 + ^ .ra: .cfa -40 + ^ x29: .cfa -48 + ^ v8: .cfa -64 + ^
STACK CFI 6021c .cfa: sp 96 +
STACK CFI 60230 .cfa: sp 0 +
STACK CFI 60234 .cfa: x29 48 +
STACK CFI INIT 6026c 15c .cfa: sp 0 +
STACK CFI 60270 .cfa: sp 96 +
STACK CFI 60284 .cfa: x29 48 + x19: .cfa -8 + ^ x20: .cfa -16 + ^ x21: .cfa -24 + ^ x22: .cfa -32 + ^ .ra: .cfa -40 + ^ x29: .cfa -48 + ^ v8: .cfa -64 + ^
STACK CFI 60368 .cfa: sp 96 +
STACK CFI 6037c .cfa: sp 0 +
STACK CFI 60380 .cfa: x29 48 +
STACK CFI INIT 60418 a0 .cfa: sp 0 +
STACK CFI 6041c .cfa: sp 32 +
STACK CFI 60424 .cfa: x29 32 + x19: .cfa -16 + ^ .ra: .cfa -24 + ^ x29: .cfa -32 + ^
STACK CFI 6043c .cfa: sp 32 +
STACK CFI 60444 .cfa: sp 0 +
STACK CFI 60448 .cfa: x29 32 +
STACK CFI 60494 .cfa: sp 32 +
STACK CFI 6049c .cfa: sp 0 +
STACK CFI 604a0 .cfa: x29 32 +
STACK CFI INIT 605c0 38c .cfa: sp 0 +
STACK CFI 605c4 .cfa: sp 192 +
STACK CFI 605e0 .cfa: x29 96 + x19: .cfa -8 + ^ x20: .cfa -16 + ^ x21: .cfa -24 + ^ x22: .cfa -32 + ^ x23: .cfa -40 + ^ x24: .cfa -48 + ^ x25: .cfa -56 + ^ x26: .cfa -64 + ^ x27: .cfa -80 + ^ .ra: .cfa -88 + ^ x29: .cfa -96 + ^
STACK CFI 60818 .cfa: sp 192 +
STACK CFI 60834 .cfa: sp 0 +
STACK CFI 60838 .cfa: x29 96 +
STACK CFI INIT 60968 124 .cfa: sp 0 +
STACK CFI 6096c .cfa: sp 96 +
STACK CFI 60980 .cfa: x29 40 + x19: .cfa -8 + ^ x20: .cfa -16 + ^ x21: .cfa -24 + ^ .ra: .cfa -32 + ^ x29: .cfa -40 + ^ v8: .cfa -48 + ^
STACK CFI 60a30 .cfa: sp 96 +
STACK CFI 60a44 .cfa: sp 0 +
STACK CFI 60a48 .cfa: x29 40 +
STACK CFI INIT 60b00 74 .cfa: sp 0 +
STACK CFI 60b04 .cfa: sp 48 +
STACK CFI 60b10 .cfa: x29 32 + x19: .cfa -8 + ^ x20: .cfa -16 + ^ .ra: .cfa -24 + ^ x29: .cfa -32 + ^
STACK CFI 60b5c .cfa: sp 48 +
STACK CFI 60b68 .cfa: sp 0 +
STACK CFI 60b6c .cfa: x29 32 +
STACK CFI INIT 60ba8 600 .cfa: sp 0 +
STACK CFI 60bac .cfa: sp 80 +
STACK CFI 60bc0 .cfa: x29 64 + x19: .cfa -8 + ^ x20: .cfa -16 + ^ x21: .cfa -24 + ^ x22: .cfa -32 + ^ x23: .cfa -40 + ^ x28: .cfa -48 + ^ .ra: .cfa -56 + ^ x29: .cfa -64 + ^ v8: .cfa -80 + ^
STACK CFI 610a4 .cfa: sp 80 +
STACK CFI 610b8 .cfa: sp 0 +
STACK CFI 610bc .cfa: x29 64 +
STACK CFI INIT 611a8 108 .cfa: sp 0 +
STACK CFI 611ac .cfa: sp 80 +
STACK CFI 611c0 .cfa: x29 64 + x19: .cfa -8 + ^ x20: .cfa -16 + ^ x21: .cfa -24 + ^ x22: .cfa -32 + ^ x23: .cfa -48 + ^ .ra: .cfa -56 + ^ x29: .cfa -64 + ^
STACK CFI 61270 .cfa: sp 80 +
STACK CFI 61284 .cfa: sp 0 +
STACK CFI 61288 .cfa: x29 64 +
STACK CFI INIT 612b0 49c .cfa: sp 0 +
STACK CFI 612b4 .cfa: sp 64 +
STACK CFI 612c4 .cfa: x29 64 + x19: .cfa -8 + ^ x20: .cfa -16 + ^ x21: .cfa -24 + ^ x22: .cfa -32 + ^ x23: .cfa -40 + ^ x28: .cfa -48 + ^ .ra: .cfa -56 + ^ x29: .cfa -64 + ^
STACK CFI 615d0 .cfa: sp 64 +
STACK CFI 615e0 .cfa: sp 0 +
STACK CFI 615e4 .cfa: x29 64 +
STACK CFI INIT 61834 4bc .cfa: sp 0 +
STACK CFI 61838 .cfa: sp 112 +
STACK CFI 61850 .cfa: x29 48 + x19: .cfa -8 + ^ x20: .cfa -16 + ^ x21: .cfa -24 + ^ x22: .cfa -32 + ^ .ra: .cfa -40 + ^ x29: .cfa -48 + ^ v8: .cfa -56 + ^ v9: .cfa -64 + ^ v10: .cfa -72 + ^ v11: .cfa -80 + ^
STACK CFI 61c84 .cfa: sp 112 +
STACK CFI 61c9c .cfa: sp 0 +
STACK CFI 61ca0 .cfa: x29 48 +
STACK CFI INIT 61cf0 298 .cfa: sp 0 +
STACK CFI 61cf4 .cfa: sp 112 +
STACK CFI 61d10 .cfa: x29 96 + x19: .cfa -8 + ^ x20: .cfa -16 + ^ x21: .cfa -24 + ^ x22: .cfa -32 + ^ x23: .cfa -40 + ^ x24: .cfa -48 + ^ x25: .cfa -56 + ^ x26: .cfa -64 + ^ x28: .cfa -80 + ^ .ra: .cfa -88 + ^ x29: .cfa -96 + ^ v8: .cfa -104 + ^ v9: .cfa -112 + ^
STACK CFI 61edc .cfa: sp 112 +
STACK CFI 61ef8 .cfa: sp 0 +
STACK CFI 61efc .cfa: x29 96 +
STACK CFI INIT 61f88 304 .cfa: sp 0 +
STACK CFI 61f8c .cfa: sp 96 +
STACK CFI 61fa4 .cfa: x29 96 + x19: .cfa -8 + ^ x20: .cfa -16 + ^ x21: .cfa -24 + ^ x22: .cfa -32 + ^ x23: .cfa -40 + ^ x24: .cfa -48 + ^ x25: .cfa -56 + ^ x26: .cfa -64 + ^ x28: .cfa -80 + ^ .ra: .cfa -88 + ^ x29: .cfa -96 + ^
STACK CFI 621e4 .cfa: sp 96 +
STACK CFI 621fc .cfa: sp 0 +
STACK CFI 62200 .cfa: x29 96 +
STACK CFI INIT 622c8 3e4 .cfa: sp 0 +
STACK CFI 622cc .cfa: sp 128 +
STACK CFI 622e4 .cfa: x29 48 + x19: .cfa -8 + ^ x20: .cfa -16 + ^ x21: .cfa -24 + ^ x22: .cfa -32 + ^ .ra: .cfa -40 + ^ x29: .cfa -48 + ^ v8: .cfa -56 + ^ v9: .cfa -64 + ^ v10: .cfa -80 + ^
STACK CFI 62654 .cfa: sp 128 +
STACK CFI 6266c .cfa: sp 0 +
STACK CFI 62670 .cfa: x29 48 +
STACK CFI INIT 626d0 158 .cfa: sp 0 +
STACK CFI 626d4 .cfa: sp 64 +
STACK CFI 626e0 .cfa: x29 32 + x19: .cfa -8 + ^ x20: .cfa -16 + ^ .ra: .cfa -24 + ^ x29: .cfa -32 + ^
STACK CFI 627f0 .cfa: sp 64 +
STACK CFI 627fc .cfa: sp 0 +
STACK CFI 62800 .cfa: x29 32 +
STACK CFI INIT 62828 13b0 .cfa: sp 0 +
STACK CFI 6282c .cfa: sp 80 +
STACK CFI 62840 .cfa: x29 64 + x19: .cfa -8 + ^ x20: .cfa -16 + ^ x21: .cfa -24 + ^ x22: .cfa -32 + ^ x23: .cfa -40 + ^ x28: .cfa -48 + ^ .ra: .cfa -56 + ^ x29: .cfa -64 + ^ v8: .cfa -80 + ^
STACK CFI 63970 .cfa: sp 80 +
STACK CFI 63984 .cfa: sp 0 +
STACK CFI 63988 .cfa: x29 64 +
STACK CFI INIT 63d28 ac .cfa: sp 0 +
STACK CFI 63d2c .cfa: sp 32 +
STACK CFI 63d34 .cfa: x29 32 + x19: .cfa -8 + ^ x20: .cfa -16 + ^ .ra: .cfa -24 + ^ x29: .cfa -32 + ^
STACK CFI 63d68 .cfa: sp 32 +
STACK CFI 63d70 .cfa: sp 0 +
STACK CFI 63d74 .cfa: x29 32 +
STACK CFI INIT 63e18 9c .cfa: sp 0 +
STACK CFI 63e1c .cfa: sp 32 +
STACK CFI 63e24 .cfa: x29 32 + x19: .cfa -16 + ^ .ra: .cfa -24 + ^ x29: .cfa -32 + ^
STACK CFI 63e48 .cfa: sp 32 +
STACK CFI 63e50 .cfa: sp 0 +
STACK CFI 63e54 .cfa: x29 32 +
STACK CFI INIT 63eb4 a0 .cfa: sp 0 +
STACK CFI 63eb8 .cfa: sp 32 +
STACK CFI 63ec0 .cfa: x29 32 + x19: .cfa -16 + ^ .ra: .cfa -24 + ^ x29: .cfa -32 + ^
STACK CFI 63ed8 .cfa: sp 32 +
STACK CFI 63ee0 .cfa: sp 0 +
STACK CFI 63ee4 .cfa: x29 32 +
STACK CFI 63f30 .cfa: sp 32 +
STACK CFI 63f38 .cfa: sp 0 +
STACK CFI 63f3c .cfa: x29 32 +
STACK CFI INIT 63f54 a0 .cfa: sp 0 +
STACK CFI 63f58 .cfa: sp 32 +
STACK CFI 63f60 .cfa: x29 32 + x19: .cfa -16 + ^ .ra: .cfa -24 + ^ x29: .cfa -32 + ^
STACK CFI 63f78 .cfa: sp 32 +
STACK CFI 63f80 .cfa: sp 0 +
STACK CFI 63f84 .cfa: x29 32 +
STACK CFI 63fd0 .cfa: sp 32 +
STACK CFI 63fd8 .cfa: sp 0 +
STACK CFI 63fdc .cfa: x29 32 +
STACK CFI INIT 63ff4 13c .cfa: sp 0 +
STACK CFI 63ff8 .cfa: sp 48 +
STACK CFI 64004 .cfa: x29 32 + x19: .cfa -8 + ^ x20: .cfa -16 + ^ .ra: .cfa -24 + ^ x29: .cfa -32 + ^
STACK CFI 640ac .cfa: sp 48 +
STACK CFI 640b8 .cfa: sp 0 +
STACK CFI 640bc .cfa: x29 32 +
STACK CFI INIT 64130 a0 .cfa: sp 0 +
STACK CFI 64134 .cfa: sp 32 +
STACK CFI 6413c .cfa: x29 32 + x19: .cfa -16 + ^ .ra: .cfa -24 + ^ x29: .cfa -32 + ^
STACK CFI 64154 .cfa: sp 32 +
STACK CFI 6415c .cfa: sp 0 +
STACK CFI 64160 .cfa: x29 32 +
STACK CFI 641ac .cfa: sp 32 +
STACK CFI 641b4 .cfa: sp 0 +
STACK CFI 641b8 .cfa: x29 32 +
STACK CFI INIT 641d0 288 .cfa: sp 0 +
STACK CFI 641d4 .cfa: sp 80 +
STACK CFI 641e8 .cfa: x29 40 + x19: .cfa -8 + ^ x20: .cfa -16 + ^ x21: .cfa -24 + ^ .ra: .cfa -32 + ^ x29: .cfa -40 + ^ v8: .cfa -48 + ^
STACK CFI 6440c .cfa: sp 80 +
STACK CFI 64420 .cfa: sp 0 +
STACK CFI 64424 .cfa: x29 40 +
STACK CFI INIT 64458 1008 .cfa: sp 0 +
STACK CFI 6445c .cfa: sp 112 +
STACK CFI 64478 .cfa: x29 96 + x19: .cfa -8 + ^ x20: .cfa -16 + ^ x21: .cfa -24 + ^ x22: .cfa -32 + ^ x23: .cfa -40 + ^ x24: .cfa -48 + ^ x25: .cfa -56 + ^ x26: .cfa -64 + ^ x27: .cfa -72 + ^ x28: .cfa -80 + ^ .ra: .cfa -88 + ^ x29: .cfa -96 + ^ v8: .cfa -104 + ^ v9: .cfa -112 + ^
STACK CFI 652e0 .cfa: sp 112 +
STACK CFI 652fc .cfa: sp 0 +
STACK CFI 65300 .cfa: x29 96 +
STACK CFI INIT 65460 190 .cfa: sp 0 +
STACK CFI 65464 .cfa: sp 96 +
STACK CFI 65474 .cfa: x29 48 + x19: .cfa -8 + ^ x20: .cfa -16 + ^ x21: .cfa -24 + ^ x22: .cfa -32 + ^ .ra: .cfa -40 + ^ x29: .cfa -48 + ^
STACK CFI 6556c .cfa: sp 96 +
STACK CFI 6557c .cfa: sp 0 +
STACK CFI 65580 .cfa: x29 48 +
STACK CFI INIT 656b4 d8 .cfa: sp 0 +
STACK CFI 656b8 .cfa: sp 32 +
STACK CFI 656c0 .cfa: x29 32 + x19: .cfa -8 + ^ x20: .cfa -16 + ^ .ra: .cfa -24 + ^ x29: .cfa -32 + ^
STACK CFI 6577c .cfa: sp 32 +
STACK CFI 65784 .cfa: sp 0 +
STACK CFI 65788 .cfa: x29 32 +
STACK CFI INIT 6578c e0 .cfa: sp 0 +
STACK CFI 65790 .cfa: sp 32 +
STACK CFI 65798 .cfa: x29 32 + x19: .cfa -8 + ^ x20: .cfa -16 + ^ .ra: .cfa -24 + ^ x29: .cfa -32 + ^
STACK CFI 6585c .cfa: sp 32 +
STACK CFI 65864 .cfa: sp 0 +
STACK CFI 65868 .cfa: x29 32 +
STACK CFI INIT 658cc 148 .cfa: sp 0 +
STACK CFI 658d0 .cfa: sp 96 +
STACK CFI 658e0 .cfa: x29 48 + x19: .cfa -8 + ^ x20: .cfa -16 + ^ x21: .cfa -32 + ^ .ra: .cfa -40 + ^ x29: .cfa -48 + ^
STACK CFI 659c8 .cfa: sp 96 +
STACK CFI 659d8 .cfa: sp 0 +
STACK CFI 659dc .cfa: x29 48 +
STACK CFI INIT 65a14 e4 .cfa: sp 0 +
STACK CFI 65a18 .cfa: sp 48 +
STACK CFI 65a24 .cfa: x29 48 + x19: .cfa -8 + ^ x20: .cfa -16 + ^ x21: .cfa -32 + ^ .ra: .cfa -40 + ^ x29: .cfa -48 + ^
STACK CFI 65ae4 .cfa: sp 48 +
STACK CFI 65af0 .cfa: sp 0 +
STACK CFI 65af4 .cfa: x29 48 +
STACK CFI INIT 65af8 ec .cfa: sp 0 +
STACK CFI 65afc .cfa: sp 48 +
STACK CFI 65b08 .cfa: x29 48 + x19: .cfa -8 + ^ x20: .cfa -16 + ^ x21: .cfa -32 + ^ .ra: .cfa -40 + ^ x29: .cfa -48 + ^
STACK CFI 65bd0 .cfa: sp 48 +
STACK CFI 65bdc .cfa: sp 0 +
STACK CFI 65be0 .cfa: x29 48 +
STACK CFI INIT 65c1c 6c .cfa: sp 0 +
STACK CFI 65c20 .cfa: sp 32 +
STACK CFI 65c28 .cfa: x29 32 + x19: .cfa -16 + ^ .ra: .cfa -24 + ^ x29: .cfa -32 + ^
STACK CFI 65c78 .cfa: sp 32 +
STACK CFI 65c80 .cfa: sp 0 +
STACK CFI 65c84 .cfa: x29 32 +
STACK CFI INIT 65c8c 6c .cfa: sp 0 +
STACK CFI 65c90 .cfa: sp 32 +
STACK CFI 65c98 .cfa: x29 32 + x19: .cfa -16 + ^ .ra: .cfa -24 + ^ x29: .cfa -32 + ^
STACK CFI 65ce8 .cfa: sp 32 +
STACK CFI 65cf0 .cfa: sp 0 +
STACK CFI 65cf4 .cfa: x29 32 +
STACK CFI INIT 6611c 3c0 .cfa: sp 0 +
STACK CFI 66120 .cfa: sp 304 +
STACK CFI 6613c .cfa: x29 96 + x19: .cfa -8 + ^ x20: .cfa -16 + ^ x21: .cfa -24 + ^ x22: .cfa -32 + ^ x23: .cfa -40 + ^ x24: .cfa -48 + ^ x25: .cfa -56 + ^ x26: .cfa -64 + ^ x28: .cfa -80 + ^ .ra: .cfa -88 + ^ x29: .cfa -96 + ^
STACK CFI 6645c .cfa: sp 304 +
STACK CFI 66478 .cfa: sp 0 +
STACK CFI 6647c .cfa: x29 96 +
STACK CFI INIT 667f4 620 .cfa: sp 0 +
STACK CFI 667f8 .cfa: sp 128 +
STACK CFI 66814 .cfa: x29 96 + x19: .cfa -8 + ^ x20: .cfa -16 + ^ x21: .cfa -24 + ^ x22: .cfa -32 + ^ x23: .cfa -40 + ^ x24: .cfa -48 + ^ x25: .cfa -56 + ^ x26: .cfa -64 + ^ x27: .cfa -72 + ^ x28: .cfa -80 + ^ .ra: .cfa -88 + ^ x29: .cfa -96 + ^
STACK CFI 66db4 .cfa: sp 128 +
STACK CFI 66dd0 .cfa: sp 0 +
STACK CFI 66dd4 .cfa: x29 96 +
STACK CFI INIT 79ae8 134 .cfa: sp 0 +
STACK CFI 79aec .cfa: sp 80 +
STACK CFI 79af8 .cfa: x29 32 + x19: .cfa -8 + ^ x20: .cfa -16 + ^ .ra: .cfa -24 + ^ x29: .cfa -32 + ^
STACK CFI 79b28 .cfa: sp 80 +
STACK CFI 79b34 .cfa: sp 0 +
STACK CFI 79b38 .cfa: x29 32 +
STACK CFI INIT 79c1c 78 .cfa: sp 0 +
STACK CFI 79c20 .cfa: sp 32 +
STACK CFI 79c28 .cfa: x29 32 + x19: .cfa -8 + ^ x20: .cfa -16 + ^ .ra: .cfa -24 + ^ x29: .cfa -32 + ^
STACK CFI 79c34 .cfa: sp 32 +
STACK CFI 79c3c .cfa: sp 0 +
STACK CFI 79c40 .cfa: x29 32 +
STACK CFI INIT 79c94 74 .cfa: sp 0 +
STACK CFI 79c98 .cfa: sp 48 +
STACK CFI 79ca4 .cfa: x29 32 + x19: .cfa -8 + ^ x20: .cfa -16 + ^ .ra: .cfa -24 + ^ x29: .cfa -32 + ^
STACK CFI 79cf0 .cfa: sp 48 +
STACK CFI 79cfc .cfa: sp 0 +
STACK CFI 79d00 .cfa: x29 32 +
STACK CFI INIT 79d90 25c .cfa: sp 0 +
STACK CFI 79d94 .cfa: sp 128 +
STACK CFI 79da4 .cfa: x29 48 + x19: .cfa -8 + ^ x20: .cfa -16 + ^ x21: .cfa -32 + ^ .ra: .cfa -40 + ^ x29: .cfa -48 + ^
STACK CFI 79e8c .cfa: sp 128 +
STACK CFI 79e9c .cfa: sp 0 +
STACK CFI 79ea0 .cfa: x29 48 +
STACK CFI INIT 7a010 26c .cfa: sp 0 +
STACK CFI 7a014 .cfa: sp 128 +
STACK CFI 7a024 .cfa: x29 48 + x19: .cfa -8 + ^ x20: .cfa -16 + ^ x21: .cfa -32 + ^ .ra: .cfa -40 + ^ x29: .cfa -48 + ^
STACK CFI 7a11c .cfa: sp 128 +
STACK CFI 7a12c .cfa: sp 0 +
STACK CFI 7a130 .cfa: x29 48 +
STACK CFI INIT 7a2f4 300 .cfa: sp 0 +
STACK CFI 7a2f8 .cfa: sp 144 +
STACK CFI 7a30c .cfa: x29 64 + x19: .cfa -8 + ^ x20: .cfa -16 + ^ x21: .cfa -24 + ^ x22: .cfa -32 + ^ x23: .cfa -48 + ^ .ra: .cfa -56 + ^ x29: .cfa -64 + ^
STACK CFI 7a4a0 .cfa: sp 144 +
STACK CFI 7a4b4 .cfa: sp 0 +
STACK CFI 7a4b8 .cfa: x29 64 +
STACK CFI INIT 7a648 264 .cfa: sp 0 +
STACK CFI 7a64c .cfa: sp 128 +
STACK CFI 7a65c .cfa: x29 48 + x19: .cfa -8 + ^ x20: .cfa -16 + ^ x21: .cfa -32 + ^ .ra: .cfa -40 + ^ x29: .cfa -48 + ^
STACK CFI 7a754 .cfa: sp 128 +
STACK CFI 7a764 .cfa: sp 0 +
STACK CFI 7a768 .cfa: x29 48 +
STACK CFI INIT 7a900 270 .cfa: sp 0 +
STACK CFI 7a904 .cfa: sp 144 +
STACK CFI 7a918 .cfa: x29 64 + x19: .cfa -8 + ^ x20: .cfa -16 + ^ x21: .cfa -24 + ^ x22: .cfa -32 + ^ x23: .cfa -48 + ^ .ra: .cfa -56 + ^ x29: .cfa -64 + ^
STACK CFI 7aa1c .cfa: sp 144 +
STACK CFI 7aa30 .cfa: sp 0 +
STACK CFI 7aa34 .cfa: x29 64 +
STACK CFI INIT 7ab94 22c .cfa: sp 0 +
STACK CFI 7ab98 .cfa: sp 128 +
STACK CFI 7aba8 .cfa: x29 48 + x19: .cfa -8 + ^ x20: .cfa -16 + ^ x21: .cfa -32 + ^ .ra: .cfa -40 + ^ x29: .cfa -48 + ^
STACK CFI 7ac60 .cfa: sp 128 +
STACK CFI 7ac70 .cfa: sp 0 +
STACK CFI 7ac74 .cfa: x29 48 +
STACK CFI INIT 7adc0 224 .cfa: sp 0 +
STACK CFI 7adc4 .cfa: sp 128 +
STACK CFI 7add4 .cfa: x29 48 + x19: .cfa -8 + ^ x20: .cfa -16 + ^ x21: .cfa -32 + ^ .ra: .cfa -40 + ^ x29: .cfa -48 + ^
STACK CFI 7ae84 .cfa: sp 128 +
STACK CFI 7ae94 .cfa: sp 0 +
STACK CFI 7ae98 .cfa: x29 48 +
STACK CFI INIT 7afe4 268 .cfa: sp 0 +
STACK CFI 7afe8 .cfa: sp 144 +
STACK CFI 7affc .cfa: x29 64 + x19: .cfa -8 + ^ x20: .cfa -16 + ^ x21: .cfa -24 + ^ x22: .cfa -32 + ^ x23: .cfa -48 + ^ .ra: .cfa -56 + ^ x29: .cfa -64 + ^
STACK CFI 7b0f8 .cfa: sp 144 +
STACK CFI 7b10c .cfa: sp 0 +
STACK CFI 7b110 .cfa: x29 64 +
STACK CFI INIT 7b2c4 2b8 .cfa: sp 0 +
STACK CFI 7b2c8 .cfa: sp 144 +
STACK CFI 7b2dc .cfa: x29 64 + x19: .cfa -8 + ^ x20: .cfa -16 + ^ x21: .cfa -24 + ^ x22: .cfa -32 + ^ x23: .cfa -48 + ^ .ra: .cfa -56 + ^ x29: .cfa -64 + ^
STACK CFI 7b428 .cfa: sp 144 +
STACK CFI 7b43c .cfa: sp 0 +
STACK CFI 7b440 .cfa: x29 64 +
STACK CFI INIT 7b580 2e4 .cfa: sp 0 +
STACK CFI 7b584 .cfa: sp 144 +
STACK CFI 7b598 .cfa: x29 64 + x19: .cfa -8 + ^ x20: .cfa -16 + ^ x21: .cfa -24 + ^ x22: .cfa -32 + ^ x23: .cfa -48 + ^ .ra: .cfa -56 + ^ x29: .cfa -64 + ^
STACK CFI 7b710 .cfa: sp 144 +
STACK CFI 7b724 .cfa: sp 0 +
STACK CFI 7b728 .cfa: x29 64 +
STACK CFI INIT 7b864 2e4 .cfa: sp 0 +
STACK CFI 7b868 .cfa: sp 144 +
STACK CFI 7b87c .cfa: x29 64 + x19: .cfa -8 + ^ x20: .cfa -16 + ^ x21: .cfa -24 + ^ x22: .cfa -32 + ^ x23: .cfa -48 + ^ .ra: .cfa -56 + ^ x29: .cfa -64 + ^
STACK CFI 7b9f4 .cfa: sp 144 +
STACK CFI 7ba08 .cfa: sp 0 +
STACK CFI 7ba0c .cfa: x29 64 +
STACK CFI INIT 7bb48 2a0 .cfa: sp 0 +
STACK CFI 7bb4c .cfa: sp 144 +
STACK CFI 7bb60 .cfa: x29 64 + x19: .cfa -8 + ^ x20: .cfa -16 + ^ x21: .cfa -24 + ^ x22: .cfa -32 + ^ x23: .cfa -48 + ^ .ra: .cfa -56 + ^ x29: .cfa -64 + ^
STACK CFI 7bc94 .cfa: sp 144 +
STACK CFI 7bca8 .cfa: sp 0 +
STACK CFI 7bcac .cfa: x29 64 +
STACK CFI INIT 7bde8 2f0 .cfa: sp 0 +
STACK CFI 7bdec .cfa: sp 144 +
STACK CFI 7be00 .cfa: x29 64 + x19: .cfa -8 + ^ x20: .cfa -16 + ^ x21: .cfa -24 + ^ x22: .cfa -32 + ^ x23: .cfa -48 + ^ .ra: .cfa -56 + ^ x29: .cfa -64 + ^
STACK CFI 7bf84 .cfa: sp 144 +
STACK CFI 7bf98 .cfa: sp 0 +
STACK CFI 7bf9c .cfa: x29 64 +
STACK CFI INIT 7c0d8 4f4 .cfa: sp 0 +
STACK CFI 7c0dc .cfa: sp 144 +
STACK CFI 7c0f0 .cfa: x29 64 + x19: .cfa -8 + ^ x20: .cfa -16 + ^ x21: .cfa -24 + ^ x22: .cfa -32 + ^ x23: .cfa -48 + ^ .ra: .cfa -56 + ^ x29: .cfa -64 + ^
STACK CFI 7c424 .cfa: sp 144 +
STACK CFI 7c438 .cfa: sp 0 +
STACK CFI 7c43c .cfa: x29 64 +
STACK CFI INIT 7c5cc 154 .cfa: sp 0 +
STACK CFI 7c5d0 .cfa: sp 384 +
STACK CFI 7c5e4 .cfa: x29 64 + x19: .cfa -8 + ^ x20: .cfa -16 + ^ x21: .cfa -24 + ^ x22: .cfa -32 + ^ x23: .cfa -40 + ^ x28: .cfa -48 + ^ .ra: .cfa -56 + ^ x29: .cfa -64 + ^
STACK CFI 7c6c8 .cfa: sp 384 +
STACK CFI 7c6dc .cfa: sp 0 +
STACK CFI 7c6e0 .cfa: x29 64 +
STACK CFI INIT 7c738 50c .cfa: sp 0 +
STACK CFI 7c73c .cfa: sp 64 +
STACK CFI 7c74c .cfa: x29 64 + x19: .cfa -8 + ^ x20: .cfa -16 + ^ x21: .cfa -24 + ^ x22: .cfa -32 + ^ x23: .cfa -40 + ^ x24: .cfa -48 + ^ .ra: .cfa -56 + ^ x29: .cfa -64 + ^
STACK CFI 7c86c .cfa: sp 64 +
STACK CFI 7c87c .cfa: sp 0 +
STACK CFI 7c880 .cfa: x29 64 +
STACK CFI 7cc18 .cfa: sp 64 +
STACK CFI 7cc28 .cfa: sp 0 +
STACK CFI 7cc2c .cfa: x29 64 +
STACK CFI INIT 7cf74 294 .cfa: sp 0 +
STACK CFI 7cf78 .cfa: sp 240 +
STACK CFI 7cf90 .cfa: x29 80 + x19: .cfa -8 + ^ x20: .cfa -16 + ^ x21: .cfa -24 + ^ x22: .cfa -32 + ^ x23: .cfa -40 + ^ x24: .cfa -48 + ^ x25: .cfa -64 + ^ .ra: .cfa -72 + ^ x29: .cfa -80 + ^
STACK CFI 7d130 .cfa: sp 240 +
STACK CFI 7d148 .cfa: sp 0 +
STACK CFI 7d14c .cfa: x29 80 +
STACK CFI INIT 7d284 50 .cfa: sp 0 +
STACK CFI 7d288 .cfa: sp 32 +
STACK CFI 7d290 .cfa: x29 32 + x19: .cfa -8 + ^ x20: .cfa -16 + ^ .ra: .cfa -24 + ^ x29: .cfa -32 + ^
STACK CFI INIT 7d300 7c0 .cfa: sp 0 +
STACK CFI 7d304 .cfa: sp 320 +
STACK CFI 7d320 .cfa: x29 96 + x19: .cfa -8 + ^ x20: .cfa -16 + ^ x21: .cfa -24 + ^ x22: .cfa -32 + ^ x23: .cfa -40 + ^ x24: .cfa -48 + ^ x25: .cfa -56 + ^ x26: .cfa -64 + ^ x27: .cfa -72 + ^ x28: .cfa -80 + ^ .ra: .cfa -88 + ^ x29: .cfa -96 + ^
STACK CFI 7d970 .cfa: sp 320 +
STACK CFI 7d98c .cfa: sp 0 +
STACK CFI 7d990 .cfa: x29 96 +
STACK CFI INIT 7db24 13c .cfa: sp 0 +
STACK CFI 7db28 .cfa: sp 80 +
STACK CFI 7db3c .cfa: x29 80 + x19: .cfa -8 + ^ x20: .cfa -16 + ^ x21: .cfa -24 + ^ x22: .cfa -32 + ^ x23: .cfa -40 + ^ x24: .cfa -48 + ^ x28: .cfa -64 + ^ .ra: .cfa -72 + ^ x29: .cfa -80 + ^
STACK CFI 7dbd0 .cfa: sp 80 +
STACK CFI 7dbe4 .cfa: sp 0 +
STACK CFI 7dbe8 .cfa: x29 80 +
STACK CFI INIT 81f7c c74 .cfa: sp 0 +
STACK CFI 81f80 .cfa: sp 96 +
STACK CFI 81f98 .cfa: x29 96 + x19: .cfa -8 + ^ x20: .cfa -16 + ^ x21: .cfa -24 + ^ x22: .cfa -32 + ^ x23: .cfa -40 + ^ x24: .cfa -48 + ^ x25: .cfa -56 + ^ x26: .cfa -64 + ^ x27: .cfa -72 + ^ x28: .cfa -80 + ^ .ra: .cfa -88 + ^ x29: .cfa -96 + ^
STACK CFI 82a10 .cfa: sp 96 +
STACK CFI 82a28 .cfa: sp 0 +
STACK CFI 82a2c .cfa: x29 96 +
STACK CFI INIT 82d44 26c .cfa: sp 0 +
STACK CFI 82d48 .cfa: sp 128 +
STACK CFI 82d58 .cfa: x29 48 + x19: .cfa -8 + ^ x20: .cfa -16 + ^ x21: .cfa -24 + ^ x22: .cfa -32 + ^ .ra: .cfa -40 + ^ x29: .cfa -48 + ^
STACK CFI 82efc .cfa: sp 128 +
STACK CFI 82f0c .cfa: sp 0 +
STACK CFI 82f10 .cfa: x29 48 +
STACK CFI INIT 83340 3b8 .cfa: sp 0 +
STACK CFI 83344 .cfa: sp 96 +
STACK CFI 8335c .cfa: x29 96 + x19: .cfa -8 + ^ x20: .cfa -16 + ^ x21: .cfa -24 + ^ x22: .cfa -32 + ^ x23: .cfa -40 + ^ x24: .cfa -48 + ^ x25: .cfa -56 + ^ x26: .cfa -64 + ^ x27: .cfa -72 + ^ x28: .cfa -80 + ^ .ra: .cfa -88 + ^ x29: .cfa -96 + ^
STACK CFI 83698 .cfa: sp 96 +
STACK CFI 836b0 .cfa: sp 0 +
STACK CFI 836b4 .cfa: x29 96 +
STACK CFI INIT 83798 cb4 .cfa: sp 0 +
STACK CFI 8379c .cfa: sp 96 +
STACK CFI 837b4 .cfa: x29 96 + x19: .cfa -8 + ^ x20: .cfa -16 + ^ x21: .cfa -24 + ^ x22: .cfa -32 + ^ x23: .cfa -40 + ^ x24: .cfa -48 + ^ x25: .cfa -56 + ^ x26: .cfa -64 + ^ x27: .cfa -72 + ^ x28: .cfa -80 + ^ .ra: .cfa -88 + ^ x29: .cfa -96 + ^
STACK CFI 8425c .cfa: sp 96 +
STACK CFI 84274 .cfa: sp 0 +
STACK CFI 84278 .cfa: x29 96 +
STACK CFI INIT 84734 afc .cfa: sp 0 +
STACK CFI 84738 .cfa: sp 96 +
STACK CFI 84750 .cfa: x29 96 + x19: .cfa -8 + ^ x20: .cfa -16 + ^ x21: .cfa -24 + ^ x22: .cfa -32 + ^ x23: .cfa -40 + ^ x24: .cfa -48 + ^ x25: .cfa -56 + ^ x26: .cfa -64 + ^ x27: .cfa -72 + ^ x28: .cfa -80 + ^ .ra: .cfa -88 + ^ x29: .cfa -96 + ^
STACK CFI 851a4 .cfa: sp 96 +
STACK CFI 851bc .cfa: sp 0 +
STACK CFI 851c0 .cfa: x29 96 +
STACK CFI INIT 8540c 1430 .cfa: sp 0 +
STACK CFI 85410 .cfa: sp 96 +
STACK CFI 85428 .cfa: x29 96 + x19: .cfa -8 + ^ x20: .cfa -16 + ^ x21: .cfa -24 + ^ x22: .cfa -32 + ^ x23: .cfa -40 + ^ x24: .cfa -48 + ^ x25: .cfa -56 + ^ x26: .cfa -64 + ^ x27: .cfa -72 + ^ x28: .cfa -80 + ^ .ra: .cfa -88 + ^ x29: .cfa -96 + ^
STACK CFI 866c4 .cfa: sp 96 +
STACK CFI 866dc .cfa: sp 0 +
STACK CFI 866e0 .cfa: x29 96 +
STACK CFI INIT 86960 75c .cfa: sp 0 +
STACK CFI 86964 .cfa: sp 368 +
STACK CFI 86980 .cfa: x29 96 + x19: .cfa -8 + ^ x20: .cfa -16 + ^ x21: .cfa -24 + ^ x22: .cfa -32 + ^ x23: .cfa -40 + ^ x24: .cfa -48 + ^ x25: .cfa -56 + ^ x26: .cfa -64 + ^ x27: .cfa -72 + ^ x28: .cfa -80 + ^ .ra: .cfa -88 + ^ x29: .cfa -96 + ^
STACK CFI 86a34 .cfa: sp 368 +
STACK CFI 86a50 .cfa: sp 0 +
STACK CFI 86a54 .cfa: x29 96 +
STACK CFI 86aa8 .cfa: sp 368 +
STACK CFI 86ac4 .cfa: sp 0 +
STACK CFI 86ac8 .cfa: x29 96 +
STACK CFI INIT 8747c eb0 .cfa: sp 0 +
STACK CFI 87480 .cfa: sp 96 +
STACK CFI 87498 .cfa: x29 96 + x19: .cfa -8 + ^ x20: .cfa -16 + ^ x21: .cfa -24 + ^ x22: .cfa -32 + ^ x23: .cfa -40 + ^ x24: .cfa -48 + ^ x25: .cfa -56 + ^ x26: .cfa -64 + ^ x27: .cfa -72 + ^ x28: .cfa -80 + ^ .ra: .cfa -88 + ^ x29: .cfa -96 + ^
STACK CFI 88140 .cfa: sp 96 +
STACK CFI 88158 .cfa: sp 0 +
STACK CFI 8815c .cfa: x29 96 +
STACK CFI INIT 886a0 1c9c .cfa: sp 0 +
STACK CFI 886a4 .cfa: sp 112 +
STACK CFI 886c0 .cfa: x29 96 + x19: .cfa -8 + ^ x20: .cfa -16 + ^ x21: .cfa -24 + ^ x22: .cfa -32 + ^ x23: .cfa -40 + ^ x24: .cfa -48 + ^ x25: .cfa -56 + ^ x26: .cfa -64 + ^ x27: .cfa -72 + ^ x28: .cfa -80 + ^ .ra: .cfa -88 + ^ x29: .cfa -96 + ^ v8: .cfa -112 + ^
STACK CFI 88aa8 .cfa: sp 112 +
STACK CFI 88ac4 .cfa: sp 0 +
STACK CFI 88ac8 .cfa: x29 96 +
STACK CFI INIT 8cb00 9a0 .cfa: sp 0 +
STACK CFI 8cb04 .cfa: sp 144 +
STACK CFI 8cb1c .cfa: x29 80 + x19: .cfa -8 + ^ x20: .cfa -16 + ^ x21: .cfa -24 + ^ x22: .cfa -32 + ^ x23: .cfa -40 + ^ x24: .cfa -48 + ^ x25: .cfa -64 + ^ .ra: .cfa -72 + ^ x29: .cfa -80 + ^
STACK CFI 8d41c .cfa: sp 144 +
STACK CFI 8d434 .cfa: sp 0 +
STACK CFI 8d438 .cfa: x29 80 +
STACK CFI INIT 8e9c4 57c .cfa: sp 0 +
STACK CFI 8e9c8 .cfa: sp 96 +
STACK CFI 8e9e0 .cfa: x29 96 + x19: .cfa -8 + ^ x20: .cfa -16 + ^ x21: .cfa -24 + ^ x22: .cfa -32 + ^ x23: .cfa -40 + ^ x24: .cfa -48 + ^ x25: .cfa -56 + ^ x26: .cfa -64 + ^ x27: .cfa -72 + ^ x28: .cfa -80 + ^ .ra: .cfa -88 + ^ x29: .cfa -96 + ^
STACK CFI 8eea4 .cfa: sp 96 +
STACK CFI 8eebc .cfa: sp 0 +
STACK CFI 8eec0 .cfa: x29 96 +
STACK CFI INIT 8ef40 67c .cfa: sp 0 +
STACK CFI 8ef44 .cfa: sp 96 +
STACK CFI 8ef5c .cfa: x29 96 + x19: .cfa -8 + ^ x20: .cfa -16 + ^ x21: .cfa -24 + ^ x22: .cfa -32 + ^ x23: .cfa -40 + ^ x24: .cfa -48 + ^ x25: .cfa -56 + ^ x26: .cfa -64 + ^ x27: .cfa -72 + ^ x28: .cfa -80 + ^ .ra: .cfa -88 + ^ x29: .cfa -96 + ^
STACK CFI 8f520 .cfa: sp 96 +
STACK CFI 8f538 .cfa: sp 0 +
STACK CFI 8f53c .cfa: x29 96 +
