MODULE Linux arm64 EFE2665285BB650615B93AE6A14B5DB30 skm150214.no_timer_with_events.android64.so
INFO CODE_ID 5266E2EFBB85066515B93AE6A14B5DB3D8F54F89
INFO GENERATOR mozilla/dump_syms 2.3.4
PUBLIC 4640 0 __on_dlclose
PUBLIC 4650 0 __emutls_unregister_key
PUBLIC 4658 0 __on_dlclose_late
PUBLIC 4660 0 __atexit_handler_wrapper
PUBLIC 4674 0 atexit
PUBLIC 4690 0 pthread_atfork
PUBLIC 46a0 0 unwind_phase2
PUBLIC 47d4 0 _Unwind_Resume
PUBLIC 4858 0 unwind_phase2_forced
PUBLIC m 494c 0 __unw_init_local
PUBLIC m 49f4 0 __unw_get_reg
PUBLIC 4a70 0 __unw_step_stage2
PUBLIC m 4a84 0 __unw_get_proc_info
PUBLIC m 4ac4 0 __unw_resume
PUBLIC 4aec 0 libunwind::CFI_Parser<libunwind::LocalAddressSpace>::decodeFDE(libunwind::LocalAddressSpace&, unsigned long, libunwind::CFI_Parser<libunwind::LocalAddressSpace>::FDE_Info*, libunwind::CFI_Parser<libunwind::LocalAddressSpace>::CIE_Info*, bool)
PUBLIC 4c7c 0 libunwind::CFI_Parser<libunwind::LocalAddressSpace>::parseCIE(libunwind::LocalAddressSpace&, unsigned long, libunwind::CFI_Parser<libunwind::LocalAddressSpace>::CIE_Info*)
PUBLIC 4f44 0 libunwind::AbstractUnwindCursor::~AbstractUnwindCursor()
PUBLIC 4f4c 0 libunwind::UnwindCursor<libunwind::LocalAddressSpace, libunwind::Registers_arm64>::~UnwindCursor()
PUBLIC 4f54 0 libunwind::UnwindCursor<libunwind::LocalAddressSpace, libunwind::Registers_arm64>::validReg(int)
PUBLIC 4f98 0 libunwind::UnwindCursor<libunwind::LocalAddressSpace, libunwind::Registers_arm64>::getReg(int)
PUBLIC 5080 0 libunwind::UnwindCursor<libunwind::LocalAddressSpace, libunwind::Registers_arm64>::setReg(int, unsigned long)
PUBLIC 5168 0 libunwind::UnwindCursor<libunwind::LocalAddressSpace, libunwind::Registers_arm64>::validFloatReg(int)
PUBLIC 517c 0 libunwind::UnwindCursor<libunwind::LocalAddressSpace, libunwind::Registers_arm64>::getFloatReg(int)
PUBLIC 518c 0 libunwind::UnwindCursor<libunwind::LocalAddressSpace, libunwind::Registers_arm64>::setFloatReg(int, double)
PUBLIC 519c 0 libunwind::UnwindCursor<libunwind::LocalAddressSpace, libunwind::Registers_arm64>::step(bool)
PUBLIC 528c 0 libunwind::UnwindCursor<libunwind::LocalAddressSpace, libunwind::Registers_arm64>::getInfo(unw_proc_info_t*)
PUBLIC 52d0 0 libunwind::UnwindCursor<libunwind::LocalAddressSpace, libunwind::Registers_arm64>::jumpto()
PUBLIC 52dc 0 libunwind::UnwindCursor<libunwind::LocalAddressSpace, libunwind::Registers_arm64>::isSignalFrame()
PUBLIC 52e8 0 libunwind::UnwindCursor<libunwind::LocalAddressSpace, libunwind::Registers_arm64>::getFunctionName(char*, unsigned long, unsigned long*)
PUBLIC 5314 0 libunwind::UnwindCursor<libunwind::LocalAddressSpace, libunwind::Registers_arm64>::setInfoBasedOnIPRegister(bool)
PUBLIC 5594 0 libunwind::UnwindCursor<libunwind::LocalAddressSpace, libunwind::Registers_arm64>::getRegisterName(int)
PUBLIC 55a0 0 libunwind::UnwindCursor<libunwind::LocalAddressSpace, libunwind::Registers_arm64>::stepThroughSigReturn(libunwind::Registers_arm64&)
PUBLIC 56c0 0 libunwind::DwarfInstructions<libunwind::LocalAddressSpace, libunwind::Registers_arm64>::stepWithDwarf(libunwind::LocalAddressSpace&, unsigned long, unsigned long, libunwind::Registers_arm64&, bool&, bool)
PUBLIC 5b48 0 libunwind::CFI_Parser<libunwind::LocalAddressSpace>::parseFDEInstructions(libunwind::LocalAddressSpace&, libunwind::CFI_Parser<libunwind::LocalAddressSpace>::FDE_Info const&, libunwind::CFI_Parser<libunwind::LocalAddressSpace>::CIE_Info const&, unsigned long, int, libunwind::CFI_Parser<libunwind::LocalAddressSpace>::PrologInfo*)
PUBLIC 6790 0 libunwind::DwarfInstructions<libunwind::LocalAddressSpace, libunwind::Registers_arm64>::getCFA(libunwind::LocalAddressSpace&, libunwind::CFI_Parser<libunwind::LocalAddressSpace>::PrologInfo const&, libunwind::Registers_arm64 const&)
PUBLIC 68c4 0 libunwind::DwarfInstructions<libunwind::LocalAddressSpace, libunwind::Registers_arm64>::getSavedRegister(libunwind::LocalAddressSpace&, libunwind::Registers_arm64 const&, unsigned long, libunwind::CFI_Parser<libunwind::LocalAddressSpace>::RegisterLocation const&)
PUBLIC 6ad4 0 libunwind::LocalAddressSpace::getEncodedP(unsigned long&, unsigned long, unsigned char, unsigned long)
PUBLIC 6e60 0 libunwind::LocalAddressSpace::getULEB128(unsigned long&, unsigned long)
PUBLIC 7028 0 libunwind::DwarfInstructions<libunwind::LocalAddressSpace, libunwind::Registers_arm64>::evaluateExpression(unsigned long, libunwind::LocalAddressSpace&, libunwind::Registers_arm64 const&, unsigned long)
PUBLIC 79e4 0 libunwind::UnwindCursor<libunwind::LocalAddressSpace, libunwind::Registers_arm64>::getInfoFromDwarfSection(unsigned long, libunwind::UnwindInfoSections const&, unsigned int)
PUBLIC 7cb8 0 libunwind::findUnwindSectionsByPhdr(dl_phdr_info*, unsigned long, void*)
PUBLIC 7dec 0 libunwind::EHHeaderParser<libunwind::LocalAddressSpace>::decodeEHHdr(libunwind::LocalAddressSpace&, unsigned long, unsigned long, libunwind::EHHeaderParser<libunwind::LocalAddressSpace>::EHHeaderInfo&)
PUBLIC 7f0c 0 libunwind::CFI_Parser<libunwind::LocalAddressSpace>::findFDE(libunwind::LocalAddressSpace&, unsigned long, unsigned long, unsigned long, unsigned long, libunwind::CFI_Parser<libunwind::LocalAddressSpace>::FDE_Info*, libunwind::CFI_Parser<libunwind::LocalAddressSpace>::CIE_Info*)
PUBLIC 80d4 0 libunwind::EHHeaderParser<libunwind::LocalAddressSpace>::findFDE(libunwind::LocalAddressSpace&, unsigned long, unsigned long, unsigned int, libunwind::CFI_Parser<libunwind::LocalAddressSpace>::FDE_Info*, libunwind::CFI_Parser<libunwind::LocalAddressSpace>::CIE_Info*)
PUBLIC 823c 0 libunwind::EHHeaderParser<libunwind::LocalAddressSpace>::getTableEntrySize(unsigned char)
PUBLIC 8338 0 libunwind::Registers_arm64::getRegisterName(int)
PUBLIC 8368 0 __libunwind_Registers_arm64_jumpto
PUBLIC m 83f8 0 __unw_getcontext
PUBLIC 84a0 0 __aarch64_ldadd8_relax
PUBLIC 84d0 0 init_have_lse_atomics
PUBLIC 8568 0 __init_cpu_features_constructor
PUBLIC 8b04 0 __init_cpu_features
PUBLIC 8b90 0 __aarch64_ldadd8_acq_rel
PUBLIC 8bc0 0 __cxx_global_var_init
PUBLIC 9760 0 geode::modifier::ModifyBase<geode::modifier::ModifyDerive<hook4<(anonymous namespace)::hook4Parent>, DailyLevelPage> >::~ModifyBase()
PUBLIC 9778 0 geode::modifier::ModifyDerive<hook4<(anonymous namespace)::hook4Parent>, DailyLevelPage>::apply()
PUBLIC 9d88 0 std::__ndk1::shared_ptr<geode::Hook>::~shared_ptr[abi:ne180000]()
PUBLIC 9dd8 0 geode::impl::ResultData<geode::Hook*, std::__ndk1::basic_string<char, std::__ndk1::char_traits<char>, std::__ndk1::allocator<char> > >::~ResultData()
PUBLIC 9e4c 0 std::__ndk1::vector<std::__ndk1::basic_string<char, std::__ndk1::char_traits<char>, std::__ndk1::allocator<char> >, std::__ndk1::allocator<std::__ndk1::basic_string<char, std::__ndk1::char_traits<char>, std::__ndk1::allocator<char> > > >::~vector[abi:ne180000]()
PUBLIC 9ec8 0 geode::modifier::ModifyBase<geode::modifier::ModifyDerive<hook4<(anonymous namespace)::hook4Parent>, DailyLevelPage> >::apply()
PUBLIC 9ecc 0 __clang_call_terminate
PUBLIC 9edc 0 _ZN5geode15UnwrapExceptionC2IRPNS_4HookEQsr4implE18IsStringStreamableIT_EEENS_4impl5OkTagEOS5_
PUBLIC a5d8 0 std::__ndk1::__throw_bad_variant_access[abi:ne180000]()
PUBLIC m a60c 0 std::__ndk1::basic_stringstream<char, std::__ndk1::char_traits<char>, std::__ndk1::allocator<char> >::~basic_stringstream()
PUBLIC a68c 0 geode::UnwrapException::~UnwrapException()
PUBLIC a6b0 0 std::__ndk1::basic_string<char, std::__ndk1::char_traits<char>, std::__ndk1::allocator<char> >::__throw_length_error[abi:ne180000]() const
PUBLIC a6c4 0 std::__ndk1::__throw_length_error[abi:ne180000](char const*)
PUBLIC a714 0 std::length_error::length_error[abi:ne180000](char const*)
PUBLIC a744 0 std::__throw_bad_array_new_length([abi:ne180000], void)
PUBLIC a778 0 std::__ndk1::basic_string<char, std::__ndk1::char_traits<char>, std::__ndk1::allocator<char> >::__init_copy_ctor_external(char const*, unsigned long)
PUBLIC a7f4 0 std::__ndk1::__split_buffer<std::__ndk1::basic_string<char, std::__ndk1::char_traits<char>, std::__ndk1::allocator<char> >, std::__ndk1::allocator<std::__ndk1::basic_string<char, std::__ndk1::char_traits<char>, std::__ndk1::allocator<char> > >&>::~__split_buffer()
PUBLIC a85c 0 std::__ndk1::vector<std::__ndk1::basic_string<char, std::__ndk1::char_traits<char>, std::__ndk1::allocator<char> >, std::__ndk1::allocator<std::__ndk1::basic_string<char, std::__ndk1::char_traits<char>, std::__ndk1::allocator<char> > > >::__throw_length_error[abi:ne180000]() const
PUBLIC a870 0 std::__ndk1::__variant_detail::__visitation::__base::__dispatcher<(unsigned long)0>::__dispatch[abi:ne180000]<std::__ndk1::__variant_detail::__dtor<std::__ndk1::__variant_detail::__traits<geode::Hook*, std::__ndk1::basic_string<char, std::__ndk1::char_traits<char>, std::__ndk1::allocator<char> > >, (std::__ndk1::__variant_detail::_Trait)1>::__destroy[abi:ne180000]()::{lambda(auto:1&)#1}, std::__ndk1::__variant_detail::__base<(std::__ndk1::__variant_detail::__traits<geode::Hook*, std::__ndk1::basic_string<char, std::__ndk1::char_traits<char>, std::__ndk1::allocator<char> > >)1, geode::Hook, std::__ndk1::allocator<char> >&>(std::__ndk1::__variant_detail::__dtor<std::__ndk1::__variant_detail::__traits<geode::Hook*, std::__ndk1::basic_string<char, std::__ndk1::char_traits<char>, std::__ndk1::allocator<char> > >, (std::__ndk1::__variant_detail::_Trait)1>, std::__ndk1::__variant_detail::__base<(std::__ndk1::__variant_detail::__traits<geode::Hook*, std::__ndk1::basic_string<char, std::__ndk1::char_traits<char>, std::__ndk1::allocator<char> > >)1, geode::Hook, std::__ndk1::allocator<char> >&)
PUBLIC a874 0 std::__ndk1::__variant_detail::__visitation::__base::__dispatcher<(unsigned long)1>::__dispatch[abi:ne180000]<std::__ndk1::__variant_detail::__dtor<std::__ndk1::__variant_detail::__traits<geode::Hook*, std::__ndk1::basic_string<char, std::__ndk1::char_traits<char>, std::__ndk1::allocator<char> > >, (std::__ndk1::__variant_detail::_Trait)1>::__destroy[abi:ne180000]()::{lambda(auto:1&)#1}, std::__ndk1::__variant_detail::__base<(std::__ndk1::__variant_detail::__traits<geode::Hook*, std::__ndk1::basic_string<char, std::__ndk1::char_traits<char>, std::__ndk1::allocator<char> > >)1, geode::Hook, std::__ndk1::allocator<char> >&>(std::__ndk1::__variant_detail::__dtor<std::__ndk1::__variant_detail::__traits<geode::Hook*, std::__ndk1::basic_string<char, std::__ndk1::char_traits<char>, std::__ndk1::allocator<char> > >, (std::__ndk1::__variant_detail::_Trait)1>, std::__ndk1::__variant_detail::__base<(std::__ndk1::__variant_detail::__traits<geode::Hook*, std::__ndk1::basic_string<char, std::__ndk1::char_traits<char>, std::__ndk1::allocator<char> > >)1, geode::Hook, std::__ndk1::allocator<char> >&)
PUBLIC a888 0 std::__ndk1::__tree<std::__ndk1::__value_type<std::__ndk1::basic_string<char, std::__ndk1::char_traits<char>, std::__ndk1::allocator<char> >, std::__ndk1::shared_ptr<geode::Hook> >, std::__ndk1::__map_value_compare<std::__ndk1::basic_string<char, std::__ndk1::char_traits<char>, std::__ndk1::allocator<char> >, std::__ndk1::__value_type<std::__ndk1::basic_string<char, std::__ndk1::char_traits<char>, std::__ndk1::allocator<char> >, std::__ndk1::shared_ptr<geode::Hook> >, std::__ndk1::less<std::__ndk1::basic_string<char, std::__ndk1::char_traits<char>, std::__ndk1::allocator<char> > >, true>, std::__ndk1::allocator<std::__ndk1::__value_type<std::__ndk1::basic_string<char, std::__ndk1::char_traits<char>, std::__ndk1::allocator<char> >, std::__ndk1::shared_ptr<geode::Hook> > > >::destroy(std::__ndk1::__tree_node<std::__ndk1::__value_type<std::__ndk1::basic_string<char, std::__ndk1::char_traits<char>, std::__ndk1::allocator<char> >, std::__ndk1::shared_ptr<geode::Hook> >, void*>*)
PUBLIC a90c 0 geode::modifier::AsStaticFunction_init<hook4<(anonymous namespace)::hook4Parent>, bool (hook4<(anonymous namespace)::hook4Parent>::*)(GJTimedLevelType)>::Impl<bool (hook4<(anonymous namespace)::hook4Parent>::*)(GJTimedLevelType)>::function(hook4<(anonymous namespace)::hook4Parent>*, GJTimedLevelType)
PUBLIC ab38 0 std::__ndk1::shared_ptr<tulip::hook::CallingConvention>::~shared_ptr[abi:ne180000]()
PUBLIC ab88 0 tulip::hook::HandlerMetadata::~HandlerMetadata()
PUBLIC abec 0 geode::cast::traverseTypeinfoFor(void*, geode::cast::ClassTypeinfoType const*, char const*)
PUBLIC m ace4 0 geodeImplicitEntry
PUBLIC ad20 0 <.plt ELF section in skm150214.no_timer_with_events.android64.so>
STACK CFI INIT 4640 10 .cfa: sp 0 +
STACK CFI INIT 4650 8 .cfa: sp 0 +
STACK CFI INIT 4658 8 .cfa: sp 0 +
STACK CFI INIT 4660 14 .cfa: sp 0 +
STACK CFI INIT 4674 1c .cfa: sp 0 +
STACK CFI INIT 4690 10 .cfa: sp 0 +
STACK CFI INIT 46a0 134 .cfa: sp 0 +
STACK CFI INIT 47d4 84 .cfa: sp 0 +
STACK CFI INIT 4858 f4 .cfa: sp 0 +
STACK CFI INIT 494c a8 .cfa: sp 0 +
STACK CFI INIT 49f4 7c .cfa: sp 0 +
STACK CFI INIT 4a70 14 .cfa: sp 0 +
STACK CFI INIT 4a84 40 .cfa: sp 0 +
STACK CFI INIT 4ac4 28 .cfa: sp 0 +
STACK CFI INIT 4aec 190 .cfa: sp 0 +
STACK CFI INIT 4c7c 2c8 .cfa: sp 0 +
STACK CFI INIT 4f44 8 .cfa: sp 0 +
STACK CFI INIT 4f4c 8 .cfa: sp 0 +
STACK CFI INIT 4f54 44 .cfa: sp 0 +
STACK CFI INIT 4f98 e8 .cfa: sp 0 +
STACK CFI INIT 5080 e8 .cfa: sp 0 +
STACK CFI INIT 5168 14 .cfa: sp 0 +
STACK CFI INIT 517c 10 .cfa: sp 0 +
STACK CFI INIT 518c 10 .cfa: sp 0 +
STACK CFI INIT 519c f0 .cfa: sp 0 +
STACK CFI INIT 528c 44 .cfa: sp 0 +
STACK CFI INIT 52d0 c .cfa: sp 0 +
STACK CFI INIT 52dc c .cfa: sp 0 +
STACK CFI INIT 52e8 2c .cfa: sp 0 +
STACK CFI INIT 5314 280 .cfa: sp 0 +
STACK CFI INIT 5594 c .cfa: sp 0 +
STACK CFI INIT 55a0 120 .cfa: sp 0 +
STACK CFI INIT 56c0 488 .cfa: sp 0 +
STACK CFI INIT 5b48 c48 .cfa: sp 0 +
STACK CFI INIT 6790 134 .cfa: sp 0 +
STACK CFI INIT 68c4 210 .cfa: sp 0 +
STACK CFI INIT 6ad4 38c .cfa: sp 0 +
STACK CFI INIT 6e60 1c8 .cfa: sp 0 +
STACK CFI INIT 7028 9bc .cfa: sp 0 +
STACK CFI INIT 79e4 2d4 .cfa: sp 0 +
STACK CFI INIT 7cb8 134 .cfa: sp 0 +
STACK CFI INIT 7dec 120 .cfa: sp 0 +
STACK CFI INIT 7f0c 1c8 .cfa: sp 0 +
STACK CFI INIT 80d4 168 .cfa: sp 0 +
STACK CFI INIT 823c fc .cfa: sp 0 +
STACK CFI INIT 8338 30 .cfa: sp 0 +
STACK CFI INIT 84a0 30 .cfa: sp 0 +
STACK CFI INIT 84d0 98 .cfa: sp 0 +
STACK CFI INIT 8568 59c .cfa: sp 0 +
STACK CFI INIT 8b04 8c .cfa: sp 0 +
STACK CFI INIT 8b90 30 .cfa: sp 0 +
STACK CFI INIT 9760 18 .cfa: sp 0 +
STACK CFI INIT 9d88 50 .cfa: sp 0 +
STACK CFI 9d8c .cfa: sp 32 +
STACK CFI 9d94 .cfa: x29 32 + x19: .cfa -16 + ^ .ra: .cfa -24 + ^ x29: .cfa -32 + ^
STACK CFI 9dac .cfa: sp 32 +
STACK CFI 9db4 .cfa: sp 0 +
STACK CFI 9db8 .cfa: x29 32 +
STACK CFI 9dcc .cfa: sp 32 +
STACK CFI 9dd4 .cfa: sp 0 +
STACK CFI INIT 9e4c 7c .cfa: sp 0 +
STACK CFI 9e50 .cfa: sp 48 +
STACK CFI 9e5c .cfa: x29 48 + x19: .cfa -8 + ^ x20: .cfa -16 + ^ x21: .cfa -32 + ^ .ra: .cfa -40 + ^ x29: .cfa -48 + ^
STACK CFI 9ea8 .cfa: sp 48 +
STACK CFI 9eb4 .cfa: sp 0 +
STACK CFI 9eb8 .cfa: sp 48 +
STACK CFI 9ec4 .cfa: sp 0 +
STACK CFI INIT 9ec8 4 .cfa: sp 0 +
STACK CFI INIT 9ecc 10 .cfa: sp 0 +
STACK CFI 9ed0 .cfa: sp 16 +
STACK CFI 9ed4 .cfa: x29 16 + .ra: .cfa -8 + ^ x29: .cfa -16 + ^
STACK CFI INIT a5d8 34 .cfa: sp 0 +
STACK CFI a5dc .cfa: sp 16 +
STACK CFI a5e0 .cfa: x29 16 + .ra: .cfa -8 + ^ x29: .cfa -16 + ^
STACK CFI INIT a60c 80 .cfa: sp 0 +
STACK CFI a610 .cfa: sp 48 +
STACK CFI a61c .cfa: x29 48 + x19: .cfa -8 + ^ x20: .cfa -16 + ^ x21: .cfa -32 + ^ .ra: .cfa -40 + ^ x29: .cfa -48 + ^
STACK CFI a67c .cfa: sp 48 +
STACK CFI a688 .cfa: sp 0 +
STACK CFI INIT a68c 24 .cfa: sp 0 +
STACK CFI a690 .cfa: sp 32 +
STACK CFI a698 .cfa: x29 32 + x19: .cfa -16 + ^ .ra: .cfa -24 + ^ x29: .cfa -32 + ^
STACK CFI a6a4 .cfa: sp 32 +
STACK CFI a6ac .cfa: sp 0 +
STACK CFI INIT a6b0 14 .cfa: sp 0 +
STACK CFI a6b4 .cfa: sp 16 +
STACK CFI a6b8 .cfa: x29 16 + .ra: .cfa -8 + ^ x29: .cfa -16 + ^
STACK CFI INIT a714 30 .cfa: sp 0 +
STACK CFI a718 .cfa: sp 32 +
STACK CFI a720 .cfa: x29 32 + x19: .cfa -16 + ^ .ra: .cfa -24 + ^ x29: .cfa -32 + ^
STACK CFI a738 .cfa: sp 32 +
STACK CFI a740 .cfa: sp 0 +
STACK CFI INIT a744 34 .cfa: sp 0 +
STACK CFI a748 .cfa: sp 32 +
STACK CFI a750 .cfa: x29 32 + x19: .cfa -16 + ^ .ra: .cfa -24 + ^ x29: .cfa -32 + ^
STACK CFI INIT a778 7c .cfa: sp 0 +
STACK CFI a77c .cfa: sp 48 +
STACK CFI a788 .cfa: x29 48 + x19: .cfa -8 + ^ x20: .cfa -16 + ^ x21: .cfa -24 + ^ x22: .cfa -32 + ^ .ra: .cfa -40 + ^ x29: .cfa -48 + ^
STACK CFI a7a0 .cfa: sp 48 +
STACK CFI a7ac .cfa: sp 0 +
STACK CFI a7b0 .cfa: x29 48 +
STACK CFI a7e0 .cfa: sp 48 +
STACK CFI a7ec .cfa: sp 0 +
STACK CFI a7f0 .cfa: x29 48 +
STACK CFI INIT a7f4 68 .cfa: sp 0 +
STACK CFI a7f8 .cfa: sp 32 +
STACK CFI a800 .cfa: x29 32 + x19: .cfa -8 + ^ x20: .cfa -16 + ^ .ra: .cfa -24 + ^ x29: .cfa -32 + ^
STACK CFI a818 .cfa: sp 32 +
STACK CFI a820 .cfa: sp 0 +
STACK CFI a824 .cfa: x29 32 +
STACK CFI a850 .cfa: sp 32 +
STACK CFI a858 .cfa: sp 0 +
STACK CFI INIT a85c 14 .cfa: sp 0 +
STACK CFI a860 .cfa: sp 16 +
STACK CFI a864 .cfa: x29 16 + .ra: .cfa -8 + ^ x29: .cfa -16 + ^
STACK CFI INIT a870 4 .cfa: sp 0 +
STACK CFI INIT a874 14 .cfa: sp 0 +
STACK CFI INIT a888 84 .cfa: sp 0 +
STACK CFI a890 .cfa: sp 32 +
STACK CFI a898 .cfa: x29 32 + x19: .cfa -8 + ^ x20: .cfa -16 + ^ .ra: .cfa -24 + ^ x29: .cfa -32 + ^
STACK CFI a8d8 .cfa: sp 32 +
STACK CFI a8e0 .cfa: sp 0 +
STACK CFI a8e8 .cfa: x29 32 +
STACK CFI INIT a90c 22c .cfa: sp 0 +
STACK CFI a910 .cfa: sp 128 +
STACK CFI a92c .cfa: x29 80 + x19: .cfa -8 + ^ x20: .cfa -16 + ^ x21: .cfa -24 + ^ x22: .cfa -32 + ^ x23: .cfa -40 + ^ x24: .cfa -48 + ^ x25: .cfa -56 + ^ x26: .cfa -64 + ^ .ra: .cfa -72 + ^ x29: .cfa -80 + ^ v8: .cfa -96 + ^
STACK CFI ab14 .cfa: sp 128 +
STACK CFI ab30 .cfa: sp 0 +
STACK CFI ab34 .cfa: x29 80 +
STACK CFI INIT ab38 50 .cfa: sp 0 +
STACK CFI ab3c .cfa: sp 32 +
STACK CFI ab44 .cfa: x29 32 + x19: .cfa -16 + ^ .ra: .cfa -24 + ^ x29: .cfa -32 + ^
STACK CFI ab5c .cfa: sp 32 +
STACK CFI ab64 .cfa: sp 0 +
STACK CFI ab68 .cfa: x29 32 +
STACK CFI ab7c .cfa: sp 32 +
STACK CFI ab84 .cfa: sp 0 +
STACK CFI INIT ab88 64 .cfa: sp 0 +
STACK CFI ab8c .cfa: sp 32 +
STACK CFI ab94 .cfa: x29 32 + x19: .cfa -16 + ^ .ra: .cfa -24 + ^ x29: .cfa -32 + ^
STACK CFI abc0 .cfa: sp 32 +
STACK CFI abc8 .cfa: sp 0 +
STACK CFI abcc .cfa: x29 32 +
STACK CFI abe0 .cfa: sp 32 +
STACK CFI abe8 .cfa: sp 0 +
STACK CFI INIT abec f8 .cfa: sp 0 +
STACK CFI abf0 .cfa: sp 64 +
STACK CFI ac00 .cfa: x29 64 + x19: .cfa -8 + ^ x20: .cfa -16 + ^ x21: .cfa -24 + ^ x22: .cfa -32 + ^ x23: .cfa -48 + ^ .ra: .cfa -56 + ^ x29: .cfa -64 + ^
STACK CFI ac5c .cfa: sp 64 +
STACK CFI ac6c .cfa: sp 0 +
STACK CFI ac70 .cfa: x29 64 +
STACK CFI ac8c .cfa: sp 64 +
STACK CFI ac9c .cfa: sp 0 +
STACK CFI aca0 .cfa: x29 64 +
STACK CFI acd0 .cfa: sp 64 +
STACK CFI ace0 .cfa: sp 0 +
STACK CFI INIT ace4 3c .cfa: sp 0 +
STACK CFI ace8 .cfa: sp 32 +
STACK CFI acf0 .cfa: x29 32 + x19: .cfa -16 + ^ .ra: .cfa -24 + ^ x29: .cfa -32 + ^
STACK CFI acfc .cfa: sp 32 +
STACK CFI ad04 .cfa: sp 0 +
STACK CFI ad08 .cfa: x29 32 +
STACK CFI ad14 .cfa: sp 32 +
STACK CFI ad1c .cfa: sp 0 +
STACK CFI INIT 8bc0 ba0 .cfa: sp 0 +
STACK CFI 8bc4 .cfa: sp 240 +
STACK CFI 8be0 .cfa: x29 96 + x19: .cfa -8 + ^ x20: .cfa -16 + ^ x21: .cfa -24 + ^ x22: .cfa -32 + ^ x23: .cfa -40 + ^ x24: .cfa -48 + ^ x25: .cfa -56 + ^ x26: .cfa -64 + ^ x27: .cfa -72 + ^ x28: .cfa -80 + ^ .ra: .cfa -88 + ^ x29: .cfa -96 + ^
STACK CFI 9608 .cfa: sp 240 +
STACK CFI 9624 .cfa: sp 0 +
STACK CFI 9628 .cfa: x29 96 +
STACK CFI INIT 9778 610 .cfa: sp 0 +
STACK CFI 977c .cfa: sp 224 +
STACK CFI 9798 .cfa: x29 96 + x19: .cfa -8 + ^ x20: .cfa -16 + ^ x21: .cfa -24 + ^ x22: .cfa -32 + ^ x23: .cfa -40 + ^ x24: .cfa -48 + ^ x25: .cfa -56 + ^ x26: .cfa -64 + ^ x27: .cfa -72 + ^ x28: .cfa -80 + ^ .ra: .cfa -88 + ^ x29: .cfa -96 + ^
STACK CFI 9c6c .cfa: sp 224 +
STACK CFI 9c88 .cfa: sp 0 +
STACK CFI 9c8c .cfa: x29 96 +
STACK CFI INIT 9dd8 74 .cfa: sp 0 +
STACK CFI 9ddc .cfa: sp 48 +
STACK CFI 9de8 .cfa: x29 32 + x19: .cfa -8 + ^ x20: .cfa -16 + ^ .ra: .cfa -24 + ^ x29: .cfa -32 + ^
STACK CFI 9e34 .cfa: sp 48 +
STACK CFI 9e40 .cfa: sp 0 +
STACK CFI 9e44 .cfa: x29 32 +
STACK CFI INIT 9edc 6fc .cfa: sp 0 +
STACK CFI 9ee0 .cfa: sp 496 +
STACK CFI 9efc .cfa: x29 96 + x19: .cfa -8 + ^ x20: .cfa -16 + ^ x21: .cfa -24 + ^ x22: .cfa -32 + ^ x23: .cfa -40 + ^ x24: .cfa -48 + ^ x25: .cfa -56 + ^ x26: .cfa -64 + ^ x27: .cfa -72 + ^ x28: .cfa -80 + ^ .ra: .cfa -88 + ^ x29: .cfa -96 + ^
STACK CFI a4ac .cfa: sp 496 +
STACK CFI a4c8 .cfa: sp 0 +
STACK CFI a4cc .cfa: x29 96 +
STACK CFI INIT a6c4 50 .cfa: sp 0 +
STACK CFI a6c8 .cfa: sp 32 +
STACK CFI a6d0 .cfa: x29 32 + x19: .cfa -8 + ^ x20: .cfa -16 + ^ .ra: .cfa -24 + ^ x29: .cfa -32 + ^
