MODULE Linux arm64 16667742C854FD96F420A83FD29963790 lilnibblit.chestalert.android64.so
INFO CODE_ID 4277661654C896FDF420A83FD2996379108EBC95
INFO GENERATOR mozilla/dump_syms 2.3.4
PUBLIC 3da0 0 __on_dlclose
PUBLIC 3db0 0 __emutls_unregister_key
PUBLIC 3db8 0 __on_dlclose_late
PUBLIC 3dc0 0 __atexit_handler_wrapper
PUBLIC 3dd4 0 atexit
PUBLIC 3df0 0 pthread_atfork
PUBLIC 3e00 0 __aarch64_ldadd8_relax
PUBLIC 3e30 0 init_have_lse_atomics
PUBLIC 3ec8 0 __init_cpu_features_constructor
PUBLIC 4464 0 __init_cpu_features
PUBLIC 44f0 0 __aarch64_ldadd8_acq_rel
PUBLIC 4520 0 geodeExecFunction4<(anonymous namespace)::ExecFuncUnique4>(geode::ModStateEvent*)
PUBLIC 4538 0 __cxx_global_var_init.1
PUBLIC 49bc 0 geode::modifier::ModifyBase<geode::modifier::ModifyDerive<MyMenuLayer, MenuLayer> >::~ModifyBase()
PUBLIC 49d4 0 __cxx_global_var_init.2
PUBLIC 4e58 0 geode::modifier::ModifyBase<geode::modifier::ModifyDerive<MyRewardsPage, RewardsPage> >::~ModifyBase()
PUBLIC 4e70 0 geode::EventListener<geode::ModStateFilter>::getPool() const
PUBLIC 4e74 0 geode::EventListener<geode::ModStateFilter>::handle(geode::Event*)
PUBLIC 4fd8 0 geode::EventListener<geode::ModStateFilter>::~EventListener()
PUBLIC 5034 0 geode::EventListener<geode::ModStateFilter>::~EventListener()
PUBLIC 5098 0 std::__ndk1::__function::__base<void (geode::ModStateEvent*)>::~__base()
PUBLIC 509c 0 std::__ndk1::__function::__func<void (*)(geode::ModStateEvent*), std::__ndk1::allocator<void (*)(geode::ModStateEvent*)>, void (geode::ModStateEvent*)>::~__func()
PUBLIC 50a0 0 std::__ndk1::__function::__func<void (*)(geode::ModStateEvent*), std::__ndk1::allocator<void (*)(geode::ModStateEvent*)>, void (geode::ModStateEvent*)>::__clone() const
PUBLIC 50d4 0 std::__ndk1::__function::__func<void (*)(geode::ModStateEvent*), std::__ndk1::allocator<void (*)(geode::ModStateEvent*)>, void (geode::ModStateEvent*)>::__clone(std::__ndk1::__function::__base<void (geode::ModStateEvent*)>*) const
PUBLIC 50e8 0 std::__ndk1::__function::__func<void (*)(geode::ModStateEvent*), std::__ndk1::allocator<void (*)(geode::ModStateEvent*)>, void (geode::ModStateEvent*)>::destroy()
PUBLIC 50ec 0 std::__ndk1::__function::__func<void (*)(geode::ModStateEvent*), std::__ndk1::allocator<void (*)(geode::ModStateEvent*)>, void (geode::ModStateEvent*)>::destroy_deallocate()
PUBLIC 50f0 0 std::__ndk1::__function::__func<void (*)(geode::ModStateEvent*), std::__ndk1::allocator<void (*)(geode::ModStateEvent*)>, void (geode::ModStateEvent*)>::operator()(geode::ModStateEvent*&&)
PUBLIC 5100 0 std::__ndk1::__function::__func<void (*)(geode::ModStateEvent*), std::__ndk1::allocator<void (*)(geode::ModStateEvent*)>, void (geode::ModStateEvent*)>::target(std::type_info const&) const
PUBLIC 511c 0 std::__ndk1::__function::__func<void (*)(geode::ModStateEvent*), std::__ndk1::allocator<void (*)(geode::ModStateEvent*)>, void (geode::ModStateEvent*)>::target_type() const
PUBLIC 5128 0 std::__throw_bad_array_new_length([abi:ne180000], void)
PUBLIC 515c 0 __clang_call_terminate
PUBLIC 516c 0 geode::cast::traverseTypeinfoFor(void*, geode::cast::ClassTypeinfoType const*, char const*)
PUBLIC 5264 0 geode::modifier::ModifyDerive<MyMenuLayer, MenuLayer>::apply()
PUBLIC 555c 0 std::__ndk1::shared_ptr<geode::Hook>::~shared_ptr[abi:ne180000]()
PUBLIC 55ac 0 geode::impl::ResultData<geode::Hook*, std::__ndk1::basic_string<char, std::__ndk1::char_traits<char>, std::__ndk1::allocator<char> > >::~ResultData()
PUBLIC 5620 0 std::__ndk1::vector<std::__ndk1::basic_string<char, std::__ndk1::char_traits<char>, std::__ndk1::allocator<char> >, std::__ndk1::allocator<std::__ndk1::basic_string<char, std::__ndk1::char_traits<char>, std::__ndk1::allocator<char> > > >::~vector[abi:ne180000]()
PUBLIC 569c 0 geode::modifier::ModifyBase<geode::modifier::ModifyDerive<MyMenuLayer, MenuLayer> >::apply()
PUBLIC 56a0 0 _ZN5geode15UnwrapExceptionC2IRPNS_4HookEQsr4implE18IsStringStreamableIT_EEENS_4impl5OkTagEOS5_
PUBLIC 5d9c 0 std::__ndk1::__throw_bad_variant_access[abi:ne180000]()
PUBLIC m 5dd0 0 std::__ndk1::basic_stringstream<char, std::__ndk1::char_traits<char>, std::__ndk1::allocator<char> >::~basic_stringstream()
PUBLIC 5e50 0 geode::UnwrapException::~UnwrapException()
PUBLIC 5e74 0 std::__ndk1::basic_string<char, std::__ndk1::char_traits<char>, std::__ndk1::allocator<char> >::__throw_length_error[abi:ne180000]() const
PUBLIC 5e88 0 std::__ndk1::__throw_length_error[abi:ne180000](char const*)
PUBLIC 5ed8 0 std::length_error::length_error[abi:ne180000](char const*)
PUBLIC 5f08 0 std::__ndk1::vector<std::__ndk1::basic_string<char, std::__ndk1::char_traits<char>, std::__ndk1::allocator<char> >, std::__ndk1::allocator<std::__ndk1::basic_string<char, std::__ndk1::char_traits<char>, std::__ndk1::allocator<char> > > >::__push_back_slow_path<std::__ndk1::basic_string<char, std::__ndk1::char_traits<char>, std::__ndk1::allocator<char> > const&>(std::__ndk1::basic_string<char, std::__ndk1::char_traits<char>, std::__ndk1::allocator<char> > const&)
PUBLIC 612c 0 std::__ndk1::basic_string<char, std::__ndk1::char_traits<char>, std::__ndk1::allocator<char> >::__init_copy_ctor_external(char const*, unsigned long)
PUBLIC 61a8 0 std::__ndk1::__split_buffer<std::__ndk1::basic_string<char, std::__ndk1::char_traits<char>, std::__ndk1::allocator<char> >, std::__ndk1::allocator<std::__ndk1::basic_string<char, std::__ndk1::char_traits<char>, std::__ndk1::allocator<char> > >&>::~__split_buffer()
PUBLIC 6210 0 std::__ndk1::vector<std::__ndk1::basic_string<char, std::__ndk1::char_traits<char>, std::__ndk1::allocator<char> >, std::__ndk1::allocator<std::__ndk1::basic_string<char, std::__ndk1::char_traits<char>, std::__ndk1::allocator<char> > > >::__throw_length_error[abi:ne180000]() const
PUBLIC 6224 0 std::__ndk1::__variant_detail::__visitation::__base::__dispatcher<(unsigned long)0>::__dispatch[abi:ne180000]<std::__ndk1::__variant_detail::__dtor<std::__ndk1::__variant_detail::__traits<geode::Hook*, std::__ndk1::basic_string<char, std::__ndk1::char_traits<char>, std::__ndk1::allocator<char> > >, (std::__ndk1::__variant_detail::_Trait)1>::__destroy[abi:ne180000]()::{lambda(auto:1&)#1}, std::__ndk1::__variant_detail::__base<(std::__ndk1::__variant_detail::__traits<geode::Hook*, std::__ndk1::basic_string<char, std::__ndk1::char_traits<char>, std::__ndk1::allocator<char> > >)1, geode::Hook, std::__ndk1::allocator<char> >&>(std::__ndk1::__variant_detail::__dtor<std::__ndk1::__variant_detail::__traits<geode::Hook*, std::__ndk1::basic_string<char, std::__ndk1::char_traits<char>, std::__ndk1::allocator<char> > >, (std::__ndk1::__variant_detail::_Trait)1>, std::__ndk1::__variant_detail::__base<(std::__ndk1::__variant_detail::__traits<geode::Hook*, std::__ndk1::basic_string<char, std::__ndk1::char_traits<char>, std::__ndk1::allocator<char> > >)1, geode::Hook, std::__ndk1::allocator<char> >&)
PUBLIC 6228 0 std::__ndk1::__variant_detail::__visitation::__base::__dispatcher<(unsigned long)1>::__dispatch[abi:ne180000]<std::__ndk1::__variant_detail::__dtor<std::__ndk1::__variant_detail::__traits<geode::Hook*, std::__ndk1::basic_string<char, std::__ndk1::char_traits<char>, std::__ndk1::allocator<char> > >, (std::__ndk1::__variant_detail::_Trait)1>::__destroy[abi:ne180000]()::{lambda(auto:1&)#1}, std::__ndk1::__variant_detail::__base<(std::__ndk1::__variant_detail::__traits<geode::Hook*, std::__ndk1::basic_string<char, std::__ndk1::char_traits<char>, std::__ndk1::allocator<char> > >)1, geode::Hook, std::__ndk1::allocator<char> >&>(std::__ndk1::__variant_detail::__dtor<std::__ndk1::__variant_detail::__traits<geode::Hook*, std::__ndk1::basic_string<char, std::__ndk1::char_traits<char>, std::__ndk1::allocator<char> > >, (std::__ndk1::__variant_detail::_Trait)1>, std::__ndk1::__variant_detail::__base<(std::__ndk1::__variant_detail::__traits<geode::Hook*, std::__ndk1::basic_string<char, std::__ndk1::char_traits<char>, std::__ndk1::allocator<char> > >)1, geode::Hook, std::__ndk1::allocator<char> >&)
PUBLIC 623c 0 std::__ndk1::__tree<std::__ndk1::__value_type<std::__ndk1::basic_string<char, std::__ndk1::char_traits<char>, std::__ndk1::allocator<char> >, std::__ndk1::shared_ptr<geode::Hook> >, std::__ndk1::__map_value_compare<std::__ndk1::basic_string<char, std::__ndk1::char_traits<char>, std::__ndk1::allocator<char> >, std::__ndk1::__value_type<std::__ndk1::basic_string<char, std::__ndk1::char_traits<char>, std::__ndk1::allocator<char> >, std::__ndk1::shared_ptr<geode::Hook> >, std::__ndk1::less<std::__ndk1::basic_string<char, std::__ndk1::char_traits<char>, std::__ndk1::allocator<char> > >, true>, std::__ndk1::allocator<std::__ndk1::__value_type<std::__ndk1::basic_string<char, std::__ndk1::char_traits<char>, std::__ndk1::allocator<char> >, std::__ndk1::shared_ptr<geode::Hook> > > >::find<std::__ndk1::basic_string<char, std::__ndk1::char_traits<char>, std::__ndk1::allocator<char> > >(std::__ndk1::basic_string<char, std::__ndk1::char_traits<char>, std::__ndk1::allocator<char> > const&)
PUBLIC 635c 0 std::__ndk1::__tree<std::__ndk1::__value_type<std::__ndk1::basic_string<char, std::__ndk1::char_traits<char>, std::__ndk1::allocator<char> >, std::__ndk1::shared_ptr<geode::Hook> >, std::__ndk1::__map_value_compare<std::__ndk1::basic_string<char, std::__ndk1::char_traits<char>, std::__ndk1::allocator<char> >, std::__ndk1::__value_type<std::__ndk1::basic_string<char, std::__ndk1::char_traits<char>, std::__ndk1::allocator<char> >, std::__ndk1::shared_ptr<geode::Hook> >, std::__ndk1::less<std::__ndk1::basic_string<char, std::__ndk1::char_traits<char>, std::__ndk1::allocator<char> > >, true>, std::__ndk1::allocator<std::__ndk1::__value_type<std::__ndk1::basic_string<char, std::__ndk1::char_traits<char>, std::__ndk1::allocator<char> >, std::__ndk1::shared_ptr<geode::Hook> > > >::erase(std::__ndk1::__tree_const_iterator<std::__ndk1::__value_type<std::__ndk1::basic_string<char, std::__ndk1::char_traits<char>, std::__ndk1::allocator<char> >, std::__ndk1::shared_ptr<geode::Hook> >, std::__ndk1::__tree_node<std::__ndk1::__value_type<std::__ndk1::basic_string<char, std::__ndk1::char_traits<char>, std::__ndk1::allocator<char> >, std::__ndk1::shared_ptr<geode::Hook> >, void*>*, long>)
PUBLIC 6800 0 std::__ndk1::__tree<std::__ndk1::__value_type<std::__ndk1::basic_string<char, std::__ndk1::char_traits<char>, std::__ndk1::allocator<char> >, std::__ndk1::shared_ptr<geode::Hook> >, std::__ndk1::__map_value_compare<std::__ndk1::basic_string<char, std::__ndk1::char_traits<char>, std::__ndk1::allocator<char> >, std::__ndk1::__value_type<std::__ndk1::basic_string<char, std::__ndk1::char_traits<char>, std::__ndk1::allocator<char> >, std::__ndk1::shared_ptr<geode::Hook> >, std::__ndk1::less<std::__ndk1::basic_string<char, std::__ndk1::char_traits<char>, std::__ndk1::allocator<char> > >, true>, std::__ndk1::allocator<std::__ndk1::__value_type<std::__ndk1::basic_string<char, std::__ndk1::char_traits<char>, std::__ndk1::allocator<char> >, std::__ndk1::shared_ptr<geode::Hook> > > >::destroy(std::__ndk1::__tree_node<std::__ndk1::__value_type<std::__ndk1::basic_string<char, std::__ndk1::char_traits<char>, std::__ndk1::allocator<char> >, std::__ndk1::shared_ptr<geode::Hook> >, void*>*)
PUBLIC 6884 0 geode::modifier::AsStaticFunction_init<MyMenuLayer, bool (MyMenuLayer::*)()>::Impl<bool (MyMenuLayer::*)()>::function(MyMenuLayer*)
PUBLIC 6ac0 0 geode::addresser::Addresser::addressOfVirtual<bool, MenuLayer, >(bool (MenuLayer::*)())
PUBLIC 6b68 0 MenuLayer::MenuLayer(geode::ZeroConstructorType)
PUBLIC 6c04 0 std::__ndk1::shared_ptr<tulip::hook::CallingConvention>::~shared_ptr[abi:ne180000]()
PUBLIC 6c54 0 tulip::hook::HandlerMetadata::~HandlerMetadata()
PUBLIC 6cb8 0 std::__ndk1::__tree<std::__ndk1::__value_type<std::__ndk1::basic_string<char, std::__ndk1::char_traits<char>, std::__ndk1::allocator<char> >, std::__ndk1::shared_ptr<geode::Hook> >, std::__ndk1::__map_value_compare<std::__ndk1::basic_string<char, std::__ndk1::char_traits<char>, std::__ndk1::allocator<char> >, std::__ndk1::__value_type<std::__ndk1::basic_string<char, std::__ndk1::char_traits<char>, std::__ndk1::allocator<char> >, std::__ndk1::shared_ptr<geode::Hook> >, std::__ndk1::less<std::__ndk1::basic_string<char, std::__ndk1::char_traits<char>, std::__ndk1::allocator<char> > >, true>, std::__ndk1::allocator<std::__ndk1::__value_type<std::__ndk1::basic_string<char, std::__ndk1::char_traits<char>, std::__ndk1::allocator<char> >, std::__ndk1::shared_ptr<geode::Hook> > > >::__emplace_unique_key_args<std::__ndk1::basic_string<char, std::__ndk1::char_traits<char>, std::__ndk1::allocator<char> >, std::__ndk1::piecewise_construct_t const&, std::__ndk1::tuple<std::__ndk1::basic_string<char, std::__ndk1::char_traits<char>, std::__ndk1::allocator<char> >&&>, std::__ndk1::tuple<> >(std::__ndk1::basic_string<char, std::__ndk1::char_traits<char>, std::__ndk1::allocator<char> > const&, std::__ndk1::piecewise_construct_t const&, std::__ndk1::tuple<std::__ndk1::basic_string<char, std::__ndk1::char_traits<char>, std::__ndk1::allocator<char> >&&>, std::__ndk1::tuple<>)
PUBLIC 6fcc 0 geode::modifier::ModifyDerive<MyRewardsPage, RewardsPage>::apply()
PUBLIC 733c 0 geode::modifier::ModifyBase<geode::modifier::ModifyDerive<MyRewardsPage, RewardsPage> >::apply()
PUBLIC 7340 0 geode::modifier::AsStaticFunction_rewardsStatusFinished<MyRewardsPage, void (MyRewardsPage::*)(int)>::Impl<void (MyRewardsPage::*)(int)>::function(MyRewardsPage*, int)
PUBLIC 73c8 0 geode::addresser::Addresser::addressOfVirtual<void, RewardsPage, int>(void (RewardsPage::*)(int))
PUBLIC 7470 0 RewardsPage::RewardsPage(geode::ZeroConstructorType)
PUBLIC 7504 0 _GLOBAL__sub_I_main.cpp
PUBLIC m 7630 0 geodeImplicitEntry
PUBLIC 7670 0 <.plt ELF section in lilnibblit.chestalert.android64.so>
STACK CFI INIT 3da0 10 .cfa: sp 0 +
STACK CFI INIT 3db0 8 .cfa: sp 0 +
STACK CFI INIT 3db8 8 .cfa: sp 0 +
STACK CFI INIT 3dc0 14 .cfa: sp 0 +
STACK CFI INIT 3dd4 1c .cfa: sp 0 +
STACK CFI INIT 3df0 10 .cfa: sp 0 +
STACK CFI INIT 3e00 30 .cfa: sp 0 +
STACK CFI INIT 3e30 98 .cfa: sp 0 +
STACK CFI INIT 3ec8 59c .cfa: sp 0 +
STACK CFI INIT 4464 8c .cfa: sp 0 +
STACK CFI INIT 44f0 30 .cfa: sp 0 +
STACK CFI INIT 4520 18 .cfa: sp 0 +
STACK CFI 4524 .cfa: sp 16 +
STACK CFI 4528 .cfa: x29 16 + .ra: .cfa -8 + ^ x29: .cfa -16 + ^
STACK CFI 4530 .cfa: sp 16 +
STACK CFI 4534 .cfa: sp 0 +
STACK CFI INIT 49bc 18 .cfa: sp 0 +
STACK CFI INIT 4e58 18 .cfa: sp 0 +
STACK CFI INIT 4e70 4 .cfa: sp 0 +
STACK CFI INIT 4fd8 5c .cfa: sp 0 +
STACK CFI 4fdc .cfa: sp 32 +
STACK CFI 4fe4 .cfa: x29 32 + x19: .cfa -16 + ^ .ra: .cfa -24 + ^ x29: .cfa -32 + ^
STACK CFI 5028 .cfa: sp 32 +
STACK CFI 5030 .cfa: sp 0 +
STACK CFI INIT 5034 64 .cfa: sp 0 +
STACK CFI 5038 .cfa: sp 32 +
STACK CFI 5040 .cfa: x29 32 + x19: .cfa -16 + ^ .ra: .cfa -24 + ^ x29: .cfa -32 + ^
STACK CFI 508c .cfa: sp 32 +
STACK CFI 5094 .cfa: sp 0 +
STACK CFI INIT 5098 4 .cfa: sp 0 +
STACK CFI INIT 509c 4 .cfa: sp 0 +
STACK CFI INIT 50a0 34 .cfa: sp 0 +
STACK CFI 50a4 .cfa: sp 32 +
STACK CFI 50ac .cfa: x29 32 + x19: .cfa -16 + ^ .ra: .cfa -24 + ^ x29: .cfa -32 + ^
STACK CFI 50c8 .cfa: sp 32 +
STACK CFI 50d0 .cfa: sp 0 +
STACK CFI INIT 50d4 14 .cfa: sp 0 +
STACK CFI INIT 50e8 4 .cfa: sp 0 +
STACK CFI INIT 50ec 4 .cfa: sp 0 +
STACK CFI INIT 50f0 10 .cfa: sp 0 +
STACK CFI INIT 5100 1c .cfa: sp 0 +
STACK CFI INIT 511c c .cfa: sp 0 +
STACK CFI INIT 5128 34 .cfa: sp 0 +
STACK CFI 512c .cfa: sp 32 +
STACK CFI 5134 .cfa: x29 32 + x19: .cfa -16 + ^ .ra: .cfa -24 + ^ x29: .cfa -32 + ^
STACK CFI INIT 515c 10 .cfa: sp 0 +
STACK CFI 5160 .cfa: sp 16 +
STACK CFI 5164 .cfa: x29 16 + .ra: .cfa -8 + ^ x29: .cfa -16 + ^
STACK CFI INIT 516c f8 .cfa: sp 0 +
STACK CFI 5170 .cfa: sp 64 +
STACK CFI 5180 .cfa: x29 64 + x19: .cfa -8 + ^ x20: .cfa -16 + ^ x21: .cfa -24 + ^ x22: .cfa -32 + ^ x23: .cfa -48 + ^ .ra: .cfa -56 + ^ x29: .cfa -64 + ^
STACK CFI 51dc .cfa: sp 64 +
STACK CFI 51ec .cfa: sp 0 +
STACK CFI 51f0 .cfa: x29 64 +
STACK CFI 520c .cfa: sp 64 +
STACK CFI 521c .cfa: sp 0 +
STACK CFI 5220 .cfa: x29 64 +
STACK CFI 5250 .cfa: sp 64 +
STACK CFI 5260 .cfa: sp 0 +
STACK CFI INIT 555c 50 .cfa: sp 0 +
STACK CFI 5560 .cfa: sp 32 +
STACK CFI 5568 .cfa: x29 32 + x19: .cfa -16 + ^ .ra: .cfa -24 + ^ x29: .cfa -32 + ^
STACK CFI 5580 .cfa: sp 32 +
STACK CFI 5588 .cfa: sp 0 +
STACK CFI 558c .cfa: x29 32 +
STACK CFI 55a0 .cfa: sp 32 +
STACK CFI 55a8 .cfa: sp 0 +
STACK CFI INIT 5620 7c .cfa: sp 0 +
STACK CFI 5624 .cfa: sp 48 +
STACK CFI 5630 .cfa: x29 48 + x19: .cfa -8 + ^ x20: .cfa -16 + ^ x21: .cfa -32 + ^ .ra: .cfa -40 + ^ x29: .cfa -48 + ^
STACK CFI 567c .cfa: sp 48 +
STACK CFI 5688 .cfa: sp 0 +
STACK CFI 568c .cfa: sp 48 +
STACK CFI 5698 .cfa: sp 0 +
STACK CFI INIT 569c 4 .cfa: sp 0 +
STACK CFI INIT 5d9c 34 .cfa: sp 0 +
STACK CFI 5da0 .cfa: sp 16 +
STACK CFI 5da4 .cfa: x29 16 + .ra: .cfa -8 + ^ x29: .cfa -16 + ^
STACK CFI INIT 5dd0 80 .cfa: sp 0 +
STACK CFI 5dd4 .cfa: sp 48 +
STACK CFI 5de0 .cfa: x29 48 + x19: .cfa -8 + ^ x20: .cfa -16 + ^ x21: .cfa -32 + ^ .ra: .cfa -40 + ^ x29: .cfa -48 + ^
STACK CFI 5e40 .cfa: sp 48 +
STACK CFI 5e4c .cfa: sp 0 +
STACK CFI INIT 5e50 24 .cfa: sp 0 +
STACK CFI 5e54 .cfa: sp 32 +
STACK CFI 5e5c .cfa: x29 32 + x19: .cfa -16 + ^ .ra: .cfa -24 + ^ x29: .cfa -32 + ^
STACK CFI 5e68 .cfa: sp 32 +
STACK CFI 5e70 .cfa: sp 0 +
STACK CFI INIT 5e74 14 .cfa: sp 0 +
STACK CFI 5e78 .cfa: sp 16 +
STACK CFI 5e7c .cfa: x29 16 + .ra: .cfa -8 + ^ x29: .cfa -16 + ^
STACK CFI INIT 5ed8 30 .cfa: sp 0 +
STACK CFI 5edc .cfa: sp 32 +
STACK CFI 5ee4 .cfa: x29 32 + x19: .cfa -16 + ^ .ra: .cfa -24 + ^ x29: .cfa -32 + ^
STACK CFI 5efc .cfa: sp 32 +
STACK CFI 5f04 .cfa: sp 0 +
STACK CFI INIT 612c 7c .cfa: sp 0 +
STACK CFI 6130 .cfa: sp 48 +
STACK CFI 613c .cfa: x29 48 + x19: .cfa -8 + ^ x20: .cfa -16 + ^ x21: .cfa -24 + ^ x22: .cfa -32 + ^ .ra: .cfa -40 + ^ x29: .cfa -48 + ^
STACK CFI 6154 .cfa: sp 48 +
STACK CFI 6160 .cfa: sp 0 +
STACK CFI 6164 .cfa: x29 48 +
STACK CFI 6194 .cfa: sp 48 +
STACK CFI 61a0 .cfa: sp 0 +
STACK CFI 61a4 .cfa: x29 48 +
STACK CFI INIT 61a8 68 .cfa: sp 0 +
STACK CFI 61ac .cfa: sp 32 +
STACK CFI 61b4 .cfa: x29 32 + x19: .cfa -8 + ^ x20: .cfa -16 + ^ .ra: .cfa -24 + ^ x29: .cfa -32 + ^
STACK CFI 61cc .cfa: sp 32 +
STACK CFI 61d4 .cfa: sp 0 +
STACK CFI 61d8 .cfa: x29 32 +
STACK CFI 6204 .cfa: sp 32 +
STACK CFI 620c .cfa: sp 0 +
STACK CFI INIT 6210 14 .cfa: sp 0 +
STACK CFI 6214 .cfa: sp 16 +
STACK CFI 6218 .cfa: x29 16 + .ra: .cfa -8 + ^ x29: .cfa -16 + ^
STACK CFI INIT 6224 4 .cfa: sp 0 +
STACK CFI INIT 6228 14 .cfa: sp 0 +
STACK CFI INIT 623c 120 .cfa: sp 0 +
STACK CFI 6240 .cfa: sp 64 +
STACK CFI 6250 .cfa: x29 64 + x19: .cfa -8 + ^ x20: .cfa -16 + ^ x21: .cfa -24 + ^ x22: .cfa -32 + ^ x23: .cfa -40 + ^ x24: .cfa -48 + ^ .ra: .cfa -56 + ^ x29: .cfa -64 + ^
STACK CFI 6348 .cfa: sp 64 +
STACK CFI 6358 .cfa: sp 0 +
STACK CFI INIT 635c 4a4 .cfa: sp 0 +
STACK CFI 6360 .cfa: sp 32 +
STACK CFI 6368 .cfa: x29 32 + x19: .cfa -8 + ^ x20: .cfa -16 + ^ .ra: .cfa -24 + ^ x29: .cfa -32 + ^
STACK CFI 6748 .cfa: sp 32 +
STACK CFI 6750 .cfa: sp 0 +
STACK CFI 6754 .cfa: x29 32 +
STACK CFI INIT 6800 84 .cfa: sp 0 +
STACK CFI 6808 .cfa: sp 32 +
STACK CFI 6810 .cfa: x29 32 + x19: .cfa -8 + ^ x20: .cfa -16 + ^ .ra: .cfa -24 + ^ x29: .cfa -32 + ^
STACK CFI 6850 .cfa: sp 32 +
STACK CFI 6858 .cfa: sp 0 +
STACK CFI 6860 .cfa: x29 32 +
STACK CFI INIT 6b68 9c .cfa: sp 0 +
STACK CFI INIT 6c04 50 .cfa: sp 0 +
STACK CFI 6c08 .cfa: sp 32 +
STACK CFI 6c10 .cfa: x29 32 + x19: .cfa -16 + ^ .ra: .cfa -24 + ^ x29: .cfa -32 + ^
STACK CFI 6c28 .cfa: sp 32 +
STACK CFI 6c30 .cfa: sp 0 +
STACK CFI 6c34 .cfa: x29 32 +
STACK CFI 6c48 .cfa: sp 32 +
STACK CFI 6c50 .cfa: sp 0 +
STACK CFI INIT 6c54 64 .cfa: sp 0 +
STACK CFI 6c58 .cfa: sp 32 +
STACK CFI 6c60 .cfa: x29 32 + x19: .cfa -16 + ^ .ra: .cfa -24 + ^ x29: .cfa -32 + ^
STACK CFI 6c8c .cfa: sp 32 +
STACK CFI 6c94 .cfa: sp 0 +
STACK CFI 6c98 .cfa: x29 32 +
STACK CFI 6cac .cfa: sp 32 +
STACK CFI 6cb4 .cfa: sp 0 +
STACK CFI INIT 6cb8 314 .cfa: sp 0 +
STACK CFI 6cbc .cfa: sp 96 +
STACK CFI 6cd4 .cfa: x29 96 + x19: .cfa -8 + ^ x20: .cfa -16 + ^ x21: .cfa -24 + ^ x22: .cfa -32 + ^ x23: .cfa -40 + ^ x24: .cfa -48 + ^ x25: .cfa -56 + ^ x26: .cfa -64 + ^ x27: .cfa -80 + ^ .ra: .cfa -88 + ^ x29: .cfa -96 + ^
STACK CFI 6f90 .cfa: sp 96 +
STACK CFI 6fa8 .cfa: sp 0 +
STACK CFI 6fac .cfa: x29 96 +
STACK CFI INIT 733c 4 .cfa: sp 0 +
STACK CFI INIT 7340 88 .cfa: sp 0 +
STACK CFI 7344 .cfa: sp 32 +
STACK CFI 734c .cfa: x29 32 + x19: .cfa -8 + ^ x20: .cfa -16 + ^ .ra: .cfa -24 + ^ x29: .cfa -32 + ^
STACK CFI 736c .cfa: sp 32 +
STACK CFI 7374 .cfa: sp 0 +
STACK CFI 7378 .cfa: x29 32 +
STACK CFI 73bc .cfa: sp 32 +
STACK CFI 73c4 .cfa: sp 0 +
STACK CFI INIT 7470 94 .cfa: sp 0 +
STACK CFI 7474 .cfa: sp 32 +
STACK CFI 747c .cfa: x29 32 + x19: .cfa -16 + ^ .ra: .cfa -24 + ^ x29: .cfa -32 + ^
STACK CFI 74f8 .cfa: sp 32 +
STACK CFI 7500 .cfa: sp 0 +
STACK CFI INIT 7630 3c .cfa: sp 0 +
STACK CFI 7634 .cfa: sp 32 +
STACK CFI 763c .cfa: x29 32 + x19: .cfa -16 + ^ .ra: .cfa -24 + ^ x29: .cfa -32 + ^
STACK CFI 7648 .cfa: sp 32 +
STACK CFI 7650 .cfa: sp 0 +
STACK CFI 7654 .cfa: x29 32 +
STACK CFI 7660 .cfa: sp 32 +
STACK CFI 7668 .cfa: sp 0 +
STACK CFI INIT 4538 484 .cfa: sp 0 +
STACK CFI 453c .cfa: sp 224 +
STACK CFI 4558 .cfa: x29 96 + x19: .cfa -8 + ^ x20: .cfa -16 + ^ x21: .cfa -24 + ^ x22: .cfa -32 + ^ x23: .cfa -40 + ^ x24: .cfa -48 + ^ x25: .cfa -56 + ^ x26: .cfa -64 + ^ x27: .cfa -72 + ^ x28: .cfa -80 + ^ .ra: .cfa -88 + ^ x29: .cfa -96 + ^
STACK CFI 47c8 .cfa: sp 224 +
STACK CFI 47e4 .cfa: sp 0 +
STACK CFI 47e8 .cfa: x29 96 +
STACK CFI 48b4 .cfa: sp 224 +
STACK CFI 48d0 .cfa: sp 0 +
STACK CFI 48d4 .cfa: x29 96 +
STACK CFI INIT 49d4 484 .cfa: sp 0 +
STACK CFI 49d8 .cfa: sp 224 +
STACK CFI 49f4 .cfa: x29 96 + x19: .cfa -8 + ^ x20: .cfa -16 + ^ x21: .cfa -24 + ^ x22: .cfa -32 + ^ x23: .cfa -40 + ^ x24: .cfa -48 + ^ x25: .cfa -56 + ^ x26: .cfa -64 + ^ x27: .cfa -72 + ^ x28: .cfa -80 + ^ .ra: .cfa -88 + ^ x29: .cfa -96 + ^
STACK CFI 4c64 .cfa: sp 224 +
STACK CFI 4c80 .cfa: sp 0 +
STACK CFI 4c84 .cfa: x29 96 +
STACK CFI 4d50 .cfa: sp 224 +
STACK CFI 4d6c .cfa: sp 0 +
STACK CFI 4d70 .cfa: x29 96 +
STACK CFI INIT 4e74 164 .cfa: sp 0 +
STACK CFI 4e78 .cfa: sp 112 +
STACK CFI 4e88 .cfa: x29 48 + x19: .cfa -8 + ^ x20: .cfa -16 + ^ x21: .cfa -24 + ^ x22: .cfa -32 + ^ .ra: .cfa -40 + ^ x29: .cfa -48 + ^
STACK CFI 4f74 .cfa: sp 112 +
STACK CFI 4f84 .cfa: sp 0 +
STACK CFI 4f88 .cfa: x29 48 +
STACK CFI INIT 5264 2f8 .cfa: sp 0 +
STACK CFI 5268 .cfa: sp 176 +
STACK CFI 527c .cfa: x29 64 + x19: .cfa -8 + ^ x20: .cfa -16 + ^ x21: .cfa -24 + ^ x22: .cfa -32 + ^ x23: .cfa -48 + ^ .ra: .cfa -56 + ^ x29: .cfa -64 + ^
STACK CFI 5450 .cfa: sp 176 +
STACK CFI 5464 .cfa: sp 0 +
STACK CFI 5468 .cfa: x29 64 +
STACK CFI INIT 55ac 74 .cfa: sp 0 +
STACK CFI 55b0 .cfa: sp 48 +
STACK CFI 55bc .cfa: x29 32 + x19: .cfa -8 + ^ x20: .cfa -16 + ^ .ra: .cfa -24 + ^ x29: .cfa -32 + ^
STACK CFI 5608 .cfa: sp 48 +
STACK CFI 5614 .cfa: sp 0 +
STACK CFI 5618 .cfa: x29 32 +
STACK CFI INIT 56a0 6fc .cfa: sp 0 +
STACK CFI 56a4 .cfa: sp 496 +
STACK CFI 56c0 .cfa: x29 96 + x19: .cfa -8 + ^ x20: .cfa -16 + ^ x21: .cfa -24 + ^ x22: .cfa -32 + ^ x23: .cfa -40 + ^ x24: .cfa -48 + ^ x25: .cfa -56 + ^ x26: .cfa -64 + ^ x27: .cfa -72 + ^ x28: .cfa -80 + ^ .ra: .cfa -88 + ^ x29: .cfa -96 + ^
STACK CFI 5c70 .cfa: sp 496 +
STACK CFI 5c8c .cfa: sp 0 +
STACK CFI 5c90 .cfa: x29 96 +
STACK CFI INIT 5e88 50 .cfa: sp 0 +
STACK CFI 5e8c .cfa: sp 32 +
STACK CFI 5e94 .cfa: x29 32 + x19: .cfa -8 + ^ x20: .cfa -16 + ^ .ra: .cfa -24 + ^ x29: .cfa -32 + ^
STACK CFI INIT 5f08 224 .cfa: sp 0 +
STACK CFI 5f0c .cfa: sp 128 +
STACK CFI 5f24 .cfa: x29 80 + x19: .cfa -8 + ^ x20: .cfa -16 + ^ x21: .cfa -24 + ^ x22: .cfa -32 + ^ x23: .cfa -40 + ^ x24: .cfa -48 + ^ x25: .cfa -64 + ^ .ra: .cfa -72 + ^ x29: .cfa -80 + ^
STACK CFI 60c0 .cfa: sp 128 +
STACK CFI 60d8 .cfa: sp 0 +
STACK CFI 60dc .cfa: x29 80 +
STACK CFI INIT 6884 23c .cfa: sp 0 +
STACK CFI 6888 .cfa: sp 112 +
STACK CFI 68a0 .cfa: x29 80 + x19: .cfa -8 + ^ x20: .cfa -16 + ^ x21: .cfa -24 + ^ x22: .cfa -32 + ^ x23: .cfa -40 + ^ x24: .cfa -48 + ^ x25: .cfa -64 + ^ .ra: .cfa -72 + ^ x29: .cfa -80 + ^
STACK CFI 6a5c .cfa: sp 112 +
STACK CFI 6a74 .cfa: sp 0 +
STACK CFI 6a78 .cfa: x29 80 +
STACK CFI INIT 6ac0 a8 .cfa: sp 0 +
STACK CFI 6ac4 .cfa: sp 32 +
STACK CFI 6acc .cfa: x29 32 + x19: .cfa -16 + ^ .ra: .cfa -24 + ^ x29: .cfa -32 + ^
STACK CFI 6b00 .cfa: sp 32 +
STACK CFI 6b08 .cfa: sp 0 +
STACK CFI 6b0c .cfa: x29 32 +
STACK CFI 6b10 .cfa: sp 32 +
STACK CFI 6b18 .cfa: sp 0 +
STACK CFI 6b1c .cfa: x29 32 +
STACK CFI INIT 6fcc 370 .cfa: sp 0 +
STACK CFI 6fd0 .cfa: sp 240 +
STACK CFI 6fe4 .cfa: x29 64 + x19: .cfa -8 + ^ x20: .cfa -16 + ^ x21: .cfa -24 + ^ x22: .cfa -32 + ^ x23: .cfa -48 + ^ .ra: .cfa -56 + ^ x29: .cfa -64 + ^
STACK CFI 7218 .cfa: sp 240 +
STACK CFI 722c .cfa: sp 0 +
STACK CFI 7230 .cfa: x29 64 +
STACK CFI INIT 73c8 a8 .cfa: sp 0 +
STACK CFI 73cc .cfa: sp 32 +
STACK CFI 73d4 .cfa: x29 32 + x19: .cfa -16 + ^ .ra: .cfa -24 + ^ x29: .cfa -32 + ^
STACK CFI 7408 .cfa: sp 32 +
STACK CFI 7410 .cfa: sp 0 +
STACK CFI 7414 .cfa: x29 32 +
STACK CFI 7418 .cfa: sp 32 +
STACK CFI 7420 .cfa: sp 0 +
STACK CFI 7424 .cfa: x29 32 +
STACK CFI INIT 7504 12c .cfa: sp 0 +
STACK CFI 7508 .cfa: sp 80 +
STACK CFI 7518 .cfa: x29 48 + x19: .cfa -8 + ^ x20: .cfa -16 + ^ x21: .cfa -32 + ^ .ra: .cfa -40 + ^ x29: .cfa -48 + ^
STACK CFI 75b0 .cfa: sp 80 +
STACK CFI 75c0 .cfa: sp 0 +
STACK CFI 75c4 .cfa: x29 48 +
