MODULE Linux arm64 6C1FA54330EDD52E1F382C0A4DF60CBB0 raydeeux.zealousdateandtime.android64.so
INFO CODE_ID 43A51F6CED302ED51F382C0A4DF60CBB3D155D28
INFO GENERATOR mozilla/dump_syms 2.3.4
PUBLIC 14330 0 __on_dlclose
PUBLIC 14340 0 __emutls_unregister_key
PUBLIC 14348 0 __on_dlclose_late
PUBLIC 14350 0 __atexit_handler_wrapper
PUBLIC 14364 0 atexit
PUBLIC 14380 0 pthread_atfork
PUBLIC 14390 0 __aarch64_ldadd8_relax
PUBLIC 143c0 0 init_have_lse_atomics
PUBLIC 14458 0 __init_cpu_features_constructor
PUBLIC 149f4 0 __init_cpu_features
PUBLIC 14a80 0 __aarch64_ldadd8_acq_rel
PUBLIC 14ab0 0 Utils::getBool(std::__ndk1::basic_string<char, std::__ndk1::char_traits<char>, std::__ndk1::allocator<char> >)
PUBLIC 14ba4 0 Utils::getInt(std::__ndk1::basic_string<char, std::__ndk1::char_traits<char>, std::__ndk1::allocator<char> >)
PUBLIC 14c9c 0 Utils::getDouble(std::__ndk1::basic_string<char, std::__ndk1::char_traits<char>, std::__ndk1::allocator<char> >)
PUBLIC 14e80 0 Utils::getString(std::__ndk1::basic_string<char, std::__ndk1::char_traits<char>, std::__ndk1::allocator<char> >)
PUBLIC 14f7c 0 Utils::getCurrentTime()
PUBLIC 16b84 0 Utils::handleZDATL()
PUBLIC 170b4 0 Utils::removeZDATL()
PUBLIC 1718c 0 Utils::addZDATL()
PUBLIC 17bb0 0 std::__ndk1::operator==[abi:ne180000]<char, std::__ndk1::char_traits<char>, std::__ndk1::allocator<char> >(std::__ndk1::basic_string<char, std::__ndk1::char_traits<char>, std::__ndk1::allocator<char> > const&, std::__ndk1::basic_string const*)
PUBLIC 17c30 0 std::__ndk1::basic_string<char, std::__ndk1::char_traits<char>, std::__ndk1::allocator<char> >::ends_with[abi:ne180000](char const*) const
PUBLIC 17c90 0 Utils::setupMonthsAndDay(Manager*, std::__ndk1::basic_string<char, std::__ndk1::char_traits<char>, std::__ndk1::allocator<char> >)
PUBLIC 17da8 0 Utils::addChroma(ZealousDateAndTimeLabel*)
PUBLIC 17ef4 0 std::__ndk1::array<std::__ndk1::basic_string<char, std::__ndk1::char_traits<char>, std::__ndk1::allocator<char> >, (unsigned long)7>::operator=(std::__ndk1::array<std::__ndk1::basic_string<char, std::__ndk1::char_traits<char>, std::__ndk1::allocator<char> >, (unsigned long)7> const&)
PUBLIC 18258 0 cocos2d::CCSequence::create(cocos2d::CCFiniteTimeAction*, ...)
PUBLIC 182f0 0 std::__ndk1::basic_string<char, std::__ndk1::char_traits<char>, std::__ndk1::allocator<char> >::__init_copy_ctor_external(char const*, unsigned long)
PUBLIC 18370 0 std::__ndk1::basic_string<char, std::__ndk1::char_traits<char>, std::__ndk1::allocator<char> >::__throw_length_error[abi:ne180000]() const
PUBLIC 18384 0 std::__ndk1::__throw_length_error[abi:ne180000](char const*)
PUBLIC 183d4 0 std::length_error::length_error[abi:ne180000](char const*)
PUBLIC 18404 0 std::__throw_bad_array_new_length([abi:ne180000], void)
PUBLIC 18438 0 __clang_call_terminate
PUBLIC 18448 0 Manager::Manager()
PUBLIC 1e184 0 std::__ndk1::pair<std::__ndk1::basic_string<char, std::__ndk1::char_traits<char>, std::__ndk1::allocator<char> > const, std::__ndk1::array<std::__ndk1::basic_string<char, std::__ndk1::char_traits<char>, std::__ndk1::allocator<char> >, (unsigned long)7> >::~pair()
PUBLIC 1e1c0 0 std::__ndk1::array<std::__ndk1::basic_string<char, std::__ndk1::char_traits<char>, std::__ndk1::allocator<char> >, (unsigned long)7>::~array()
PUBLIC 1e284 0 std::__ndk1::pair<std::__ndk1::basic_string<char, std::__ndk1::char_traits<char>, std::__ndk1::allocator<char> > const, std::__ndk1::array<std::__ndk1::basic_string<char, std::__ndk1::char_traits<char>, std::__ndk1::allocator<char> >, (unsigned long)13> >::~pair()
PUBLIC 1e2c0 0 std::__ndk1::array<std::__ndk1::basic_string<char, std::__ndk1::char_traits<char>, std::__ndk1::allocator<char> >, (unsigned long)13>::~array()
PUBLIC 1e414 0 std::__ndk1::unordered_map<std::__ndk1::basic_string<char, std::__ndk1::char_traits<char>, std::__ndk1::allocator<char> >, std::__ndk1::array<std::__ndk1::basic_string<char, std::__ndk1::char_traits<char>, std::__ndk1::allocator<char> >, (unsigned long)7>, std::__ndk1::hash<std::__ndk1::basic_string<char, std::__ndk1::char_traits<char>, std::__ndk1::allocator<char> > >, std::__ndk1::equal_to<std::__ndk1::basic_string<char, std::__ndk1::char_traits<char>, std::__ndk1::allocator<char> > >, std::__ndk1::allocator<std::__ndk1::pair<std::__ndk1::basic_string<char, std::__ndk1::char_traits<char>, std::__ndk1::allocator<char> > const, std::__ndk1::array<std::__ndk1::basic_string<char, std::__ndk1::char_traits<char>, std::__ndk1::allocator<char> >, (unsigned long)7> > > >::~unordered_map[abi:ne180000]()
PUBLIC 1e48c 0 std::__ndk1::array<std::__ndk1::basic_string<char, std::__ndk1::char_traits<char>, std::__ndk1::allocator<char> >, (unsigned long)7>::array(std::__ndk1::array<std::__ndk1::basic_string<char, std::__ndk1::char_traits<char>, std::__ndk1::allocator<char> >, (unsigned long)7> const&)
PUBLIC 1e654 0 std::__ndk1::__hash_table<std::__ndk1::__hash_value_type<std::__ndk1::basic_string<char, std::__ndk1::char_traits<char>, std::__ndk1::allocator<char> >, std::__ndk1::array<std::__ndk1::basic_string<char, std::__ndk1::char_traits<char>, std::__ndk1::allocator<char> >, (unsigned long)7> >, std::__ndk1::__unordered_map_hasher<std::__ndk1::basic_string<char, std::__ndk1::char_traits<char>, std::__ndk1::allocator<char> >, std::__ndk1::__hash_value_type<std::__ndk1::basic_string<char, std::__ndk1::char_traits<char>, std::__ndk1::allocator<char> >, std::__ndk1::array<std::__ndk1::basic_string<char, std::__ndk1::char_traits<char>, std::__ndk1::allocator<char> >, (unsigned long)7> >, std::__ndk1::hash<std::__ndk1::basic_string<char, std::__ndk1::char_traits<char>, std::__ndk1::allocator<char> > >, std::__ndk1::equal_to<std::__ndk1::basic_string<char, std::__ndk1::char_traits<char>, std::__ndk1::allocator<char> > >, true>, std::__ndk1::__unordered_map_equal<std::__ndk1::basic_string<char, std::__ndk1::char_traits<char>, std::__ndk1::allocator<char> >, std::__ndk1::__hash_value_type<std::__ndk1::basic_string<char, std::__ndk1::char_traits<char>, std::__ndk1::allocator<char> >, std::__ndk1::array<std::__ndk1::basic_string<char, std::__ndk1::char_traits<char>, std::__ndk1::allocator<char> >, (unsigned long)7> >, std::__ndk1::equal_to<std::__ndk1::basic_string<char, std::__ndk1::char_traits<char>, std::__ndk1::allocator<char> > >, std::__ndk1::hash<std::__ndk1::basic_string<char, std::__ndk1::char_traits<char>, std::__ndk1::allocator<char> > >, true>, std::__ndk1::allocator<std::__ndk1::__hash_value_type<std::__ndk1::basic_string<char, std::__ndk1::char_traits<char>, std::__ndk1::allocator<char> >, std::__ndk1::array<std::__ndk1::basic_string<char, std::__ndk1::char_traits<char>, std::__ndk1::allocator<char> >, (unsigned long)7> > > >::~__hash_table()
PUBLIC 1e6cc 0 std::__ndk1::__hash_table<std::__ndk1::__hash_value_type<std::__ndk1::basic_string<char, std::__ndk1::char_traits<char>, std::__ndk1::allocator<char> >, std::__ndk1::array<std::__ndk1::basic_string<char, std::__ndk1::char_traits<char>, std::__ndk1::allocator<char> >, (unsigned long)7> >, std::__ndk1::__unordered_map_hasher<std::__ndk1::basic_string<char, std::__ndk1::char_traits<char>, std::__ndk1::allocator<char> >, std::__ndk1::__hash_value_type<std::__ndk1::basic_string<char, std::__ndk1::char_traits<char>, std::__ndk1::allocator<char> >, std::__ndk1::array<std::__ndk1::basic_string<char, std::__ndk1::char_traits<char>, std::__ndk1::allocator<char> >, (unsigned long)7> >, std::__ndk1::hash<std::__ndk1::basic_string<char, std::__ndk1::char_traits<char>, std::__ndk1::allocator<char> > >, std::__ndk1::equal_to<std::__ndk1::basic_string<char, std::__ndk1::char_traits<char>, std::__ndk1::allocator<char> > >, true>, std::__ndk1::__unordered_map_equal<std::__ndk1::basic_string<char, std::__ndk1::char_traits<char>, std::__ndk1::allocator<char> >, std::__ndk1::__hash_value_type<std::__ndk1::basic_string<char, std::__ndk1::char_traits<char>, std::__ndk1::allocator<char> >, std::__ndk1::array<std::__ndk1::basic_string<char, std::__ndk1::char_traits<char>, std::__ndk1::allocator<char> >, (unsigned long)7> >, std::__ndk1::equal_to<std::__ndk1::basic_string<char, std::__ndk1::char_traits<char>, std::__ndk1::allocator<char> > >, std::__ndk1::hash<std::__ndk1::basic_string<char, std::__ndk1::char_traits<char>, std::__ndk1::allocator<char> > >, true>, std::__ndk1::allocator<std::__ndk1::__hash_value_type<std::__ndk1::basic_string<char, std::__ndk1::char_traits<char>, std::__ndk1::allocator<char> >, std::__ndk1::array<std::__ndk1::basic_string<char, std::__ndk1::char_traits<char>, std::__ndk1::allocator<char> >, (unsigned long)7> > > >::__emplace_unique_key_args<std::__ndk1::basic_string<char, std::__ndk1::char_traits<char>, std::__ndk1::allocator<char> >, std::__ndk1::pair<std::__ndk1::basic_string<char, std::__ndk1::char_traits<char>, std::__ndk1::allocator<char> > const, std::__ndk1::array<std::__ndk1::basic_string<char, std::__ndk1::char_traits<char>, std::__ndk1::allocator<char> >, (unsigned long)7> > const&>(std::__ndk1::basic_string<char, std::__ndk1::char_traits<char>, std::__ndk1::allocator<char> > const&, std::__ndk1::pair<std::__ndk1::basic_string<char, std::__ndk1::char_traits<char>, std::__ndk1::allocator<char> > const, std::__ndk1::array<std::__ndk1::basic_string<char, std::__ndk1::char_traits<char>, std::__ndk1::allocator<char> >, (unsigned long)7> > const&)
PUBLIC 1eba8 0 std::__ndk1::unique_ptr<std::__ndk1::__hash_node<std::__ndk1::__hash_value_type<std::__ndk1::basic_string<char, std::__ndk1::char_traits<char>, std::__ndk1::allocator<char> >, std::__ndk1::array<std::__ndk1::basic_string<char, std::__ndk1::char_traits<char>, std::__ndk1::allocator<char> >, (unsigned long)7> >, void*>, std::__ndk1::__hash_node_destructor<std::__ndk1::allocator<std::__ndk1::__hash_node<std::__ndk1::__hash_value_type<std::__ndk1::basic_string<char, std::__ndk1::char_traits<char>, std::__ndk1::allocator<char> >, std::__ndk1::array<std::__ndk1::basic_string<char, std::__ndk1::char_traits<char>, std::__ndk1::allocator<char> >, (unsigned long)7> >, void*> > > >::~unique_ptr[abi:ne180000]()
PUBLIC 1ebfc 0 std::__ndk1::__murmur2_or_cityhash<unsigned long, (unsigned long)64>::operator()[abi:ne180000](void const*, unsigned long) const
PUBLIC 1f048 0 std::__ndk1::__hash_table<std::__ndk1::__hash_value_type<std::__ndk1::basic_string<char, std::__ndk1::char_traits<char>, std::__ndk1::allocator<char> >, std::__ndk1::array<std::__ndk1::basic_string<char, std::__ndk1::char_traits<char>, std::__ndk1::allocator<char> >, (unsigned long)7> >, std::__ndk1::__unordered_map_hasher<std::__ndk1::basic_string<char, std::__ndk1::char_traits<char>, std::__ndk1::allocator<char> >, std::__ndk1::__hash_value_type<std::__ndk1::basic_string<char, std::__ndk1::char_traits<char>, std::__ndk1::allocator<char> >, std::__ndk1::array<std::__ndk1::basic_string<char, std::__ndk1::char_traits<char>, std::__ndk1::allocator<char> >, (unsigned long)7> >, std::__ndk1::hash<std::__ndk1::basic_string<char, std::__ndk1::char_traits<char>, std::__ndk1::allocator<char> > >, std::__ndk1::equal_to<std::__ndk1::basic_string<char, std::__ndk1::char_traits<char>, std::__ndk1::allocator<char> > >, true>, std::__ndk1::__unordered_map_equal<std::__ndk1::basic_string<char, std::__ndk1::char_traits<char>, std::__ndk1::allocator<char> >, std::__ndk1::__hash_value_type<std::__ndk1::basic_string<char, std::__ndk1::char_traits<char>, std::__ndk1::allocator<char> >, std::__ndk1::array<std::__ndk1::basic_string<char, std::__ndk1::char_traits<char>, std::__ndk1::allocator<char> >, (unsigned long)7> >, std::__ndk1::equal_to<std::__ndk1::basic_string<char, std::__ndk1::char_traits<char>, std::__ndk1::allocator<char> > >, std::__ndk1::hash<std::__ndk1::basic_string<char, std::__ndk1::char_traits<char>, std::__ndk1::allocator<char> > >, true>, std::__ndk1::allocator<std::__ndk1::__hash_value_type<std::__ndk1::basic_string<char, std::__ndk1::char_traits<char>, std::__ndk1::allocator<char> >, std::__ndk1::array<std::__ndk1::basic_string<char, std::__ndk1::char_traits<char>, std::__ndk1::allocator<char> >, (unsigned long)7> > > >::__do_rehash<true>(unsigned long)
PUBLIC 1f1f4 0 std::__ndk1::array<std::__ndk1::basic_string<char, std::__ndk1::char_traits<char>, std::__ndk1::allocator<char> >, (unsigned long)13>::array(std::__ndk1::array<std::__ndk1::basic_string<char, std::__ndk1::char_traits<char>, std::__ndk1::allocator<char> >, (unsigned long)13> const&)
PUBLIC 1f4d8 0 std::__ndk1::__hash_table<std::__ndk1::__hash_value_type<std::__ndk1::basic_string<char, std::__ndk1::char_traits<char>, std::__ndk1::allocator<char> >, std::__ndk1::array<std::__ndk1::basic_string<char, std::__ndk1::char_traits<char>, std::__ndk1::allocator<char> >, (unsigned long)13> >, std::__ndk1::__unordered_map_hasher<std::__ndk1::basic_string<char, std::__ndk1::char_traits<char>, std::__ndk1::allocator<char> >, std::__ndk1::__hash_value_type<std::__ndk1::basic_string<char, std::__ndk1::char_traits<char>, std::__ndk1::allocator<char> >, std::__ndk1::array<std::__ndk1::basic_string<char, std::__ndk1::char_traits<char>, std::__ndk1::allocator<char> >, (unsigned long)13> >, std::__ndk1::hash<std::__ndk1::basic_string<char, std::__ndk1::char_traits<char>, std::__ndk1::allocator<char> > >, std::__ndk1::equal_to<std::__ndk1::basic_string<char, std::__ndk1::char_traits<char>, std::__ndk1::allocator<char> > >, true>, std::__ndk1::__unordered_map_equal<std::__ndk1::basic_string<char, std::__ndk1::char_traits<char>, std::__ndk1::allocator<char> >, std::__ndk1::__hash_value_type<std::__ndk1::basic_string<char, std::__ndk1::char_traits<char>, std::__ndk1::allocator<char> >, std::__ndk1::array<std::__ndk1::basic_string<char, std::__ndk1::char_traits<char>, std::__ndk1::allocator<char> >, (unsigned long)13> >, std::__ndk1::equal_to<std::__ndk1::basic_string<char, std::__ndk1::char_traits<char>, std::__ndk1::allocator<char> > >, std::__ndk1::hash<std::__ndk1::basic_string<char, std::__ndk1::char_traits<char>, std::__ndk1::allocator<char> > >, true>, std::__ndk1::allocator<std::__ndk1::__hash_value_type<std::__ndk1::basic_string<char, std::__ndk1::char_traits<char>, std::__ndk1::allocator<char> >, std::__ndk1::array<std::__ndk1::basic_string<char, std::__ndk1::char_traits<char>, std::__ndk1::allocator<char> >, (unsigned long)13> > > >::~__hash_table()
PUBLIC 1f550 0 std::__ndk1::__hash_table<std::__ndk1::__hash_value_type<std::__ndk1::basic_string<char, std::__ndk1::char_traits<char>, std::__ndk1::allocator<char> >, std::__ndk1::array<std::__ndk1::basic_string<char, std::__ndk1::char_traits<char>, std::__ndk1::allocator<char> >, (unsigned long)13> >, std::__ndk1::__unordered_map_hasher<std::__ndk1::basic_string<char, std::__ndk1::char_traits<char>, std::__ndk1::allocator<char> >, std::__ndk1::__hash_value_type<std::__ndk1::basic_string<char, std::__ndk1::char_traits<char>, std::__ndk1::allocator<char> >, std::__ndk1::array<std::__ndk1::basic_string<char, std::__ndk1::char_traits<char>, std::__ndk1::allocator<char> >, (unsigned long)13> >, std::__ndk1::hash<std::__ndk1::basic_string<char, std::__ndk1::char_traits<char>, std::__ndk1::allocator<char> > >, std::__ndk1::equal_to<std::__ndk1::basic_string<char, std::__ndk1::char_traits<char>, std::__ndk1::allocator<char> > >, true>, std::__ndk1::__unordered_map_equal<std::__ndk1::basic_string<char, std::__ndk1::char_traits<char>, std::__ndk1::allocator<char> >, std::__ndk1::__hash_value_type<std::__ndk1::basic_string<char, std::__ndk1::char_traits<char>, std::__ndk1::allocator<char> >, std::__ndk1::array<std::__ndk1::basic_string<char, std::__ndk1::char_traits<char>, std::__ndk1::allocator<char> >, (unsigned long)13> >, std::__ndk1::equal_to<std::__ndk1::basic_string<char, std::__ndk1::char_traits<char>, std::__ndk1::allocator<char> > >, std::__ndk1::hash<std::__ndk1::basic_string<char, std::__ndk1::char_traits<char>, std::__ndk1::allocator<char> > >, true>, std::__ndk1::allocator<std::__ndk1::__hash_value_type<std::__ndk1::basic_string<char, std::__ndk1::char_traits<char>, std::__ndk1::allocator<char> >, std::__ndk1::array<std::__ndk1::basic_string<char, std::__ndk1::char_traits<char>, std::__ndk1::allocator<char> >, (unsigned long)13> > > >::__emplace_unique_key_args<std::__ndk1::basic_string<char, std::__ndk1::char_traits<char>, std::__ndk1::allocator<char> >, std::__ndk1::pair<std::__ndk1::basic_string<char, std::__ndk1::char_traits<char>, std::__ndk1::allocator<char> > const, std::__ndk1::array<std::__ndk1::basic_string<char, std::__ndk1::char_traits<char>, std::__ndk1::allocator<char> >, (unsigned long)13> > const&>(std::__ndk1::basic_string<char, std::__ndk1::char_traits<char>, std::__ndk1::allocator<char> > const&, std::__ndk1::pair<std::__ndk1::basic_string<char, std::__ndk1::char_traits<char>, std::__ndk1::allocator<char> > const, std::__ndk1::array<std::__ndk1::basic_string<char, std::__ndk1::char_traits<char>, std::__ndk1::allocator<char> >, (unsigned long)13> > const&)
PUBLIC 1fa2c 0 std::__ndk1::unique_ptr<std::__ndk1::__hash_node<std::__ndk1::__hash_value_type<std::__ndk1::basic_string<char, std::__ndk1::char_traits<char>, std::__ndk1::allocator<char> >, std::__ndk1::array<std::__ndk1::basic_string<char, std::__ndk1::char_traits<char>, std::__ndk1::allocator<char> >, (unsigned long)13> >, void*>, std::__ndk1::__hash_node_destructor<std::__ndk1::allocator<std::__ndk1::__hash_node<std::__ndk1::__hash_value_type<std::__ndk1::basic_string<char, std::__ndk1::char_traits<char>, std::__ndk1::allocator<char> >, std::__ndk1::array<std::__ndk1::basic_string<char, std::__ndk1::char_traits<char>, std::__ndk1::allocator<char> >, (unsigned long)13> >, void*> > > >::~unique_ptr[abi:ne180000]()
PUBLIC 1fa80 0 std::__ndk1::__hash_table<std::__ndk1::__hash_value_type<std::__ndk1::basic_string<char, std::__ndk1::char_traits<char>, std::__ndk1::allocator<char> >, std::__ndk1::array<std::__ndk1::basic_string<char, std::__ndk1::char_traits<char>, std::__ndk1::allocator<char> >, (unsigned long)13> >, std::__ndk1::__unordered_map_hasher<std::__ndk1::basic_string<char, std::__ndk1::char_traits<char>, std::__ndk1::allocator<char> >, std::__ndk1::__hash_value_type<std::__ndk1::basic_string<char, std::__ndk1::char_traits<char>, std::__ndk1::allocator<char> >, std::__ndk1::array<std::__ndk1::basic_string<char, std::__ndk1::char_traits<char>, std::__ndk1::allocator<char> >, (unsigned long)13> >, std::__ndk1::hash<std::__ndk1::basic_string<char, std::__ndk1::char_traits<char>, std::__ndk1::allocator<char> > >, std::__ndk1::equal_to<std::__ndk1::basic_string<char, std::__ndk1::char_traits<char>, std::__ndk1::allocator<char> > >, true>, std::__ndk1::__unordered_map_equal<std::__ndk1::basic_string<char, std::__ndk1::char_traits<char>, std::__ndk1::allocator<char> >, std::__ndk1::__hash_value_type<std::__ndk1::basic_string<char, std::__ndk1::char_traits<char>, std::__ndk1::allocator<char> >, std::__ndk1::array<std::__ndk1::basic_string<char, std::__ndk1::char_traits<char>, std::__ndk1::allocator<char> >, (unsigned long)13> >, std::__ndk1::equal_to<std::__ndk1::basic_string<char, std::__ndk1::char_traits<char>, std::__ndk1::allocator<char> > >, std::__ndk1::hash<std::__ndk1::basic_string<char, std::__ndk1::char_traits<char>, std::__ndk1::allocator<char> > >, true>, std::__ndk1::allocator<std::__ndk1::__hash_value_type<std::__ndk1::basic_string<char, std::__ndk1::char_traits<char>, std::__ndk1::allocator<char> >, std::__ndk1::array<std::__ndk1::basic_string<char, std::__ndk1::char_traits<char>, std::__ndk1::allocator<char> >, (unsigned long)13> > > >::__do_rehash<true>(unsigned long)
PUBLIC 1fc2c 0 std::__ndk1::__throw_out_of_range[abi:ne180000](char const*)
PUBLIC 1fc7c 0 std::out_of_range::out_of_range[abi:ne180000](char const*)
PUBLIC 1fcac 0 std::__ndk1::basic_string<char, std::__ndk1::char_traits<char>, std::__ndk1::allocator<char> >::__assign_no_alias<true>(char const*, unsigned long)
PUBLIC 1fd58 0 std::__ndk1::basic_string<char, std::__ndk1::char_traits<char>, std::__ndk1::allocator<char> >::__assign_no_alias<false>(char const*, unsigned long)
PUBLIC 1fe68 0 geode::Mod::getSettingValue<bool>(std::__ndk1::basic_string_view<char, std::__ndk1::char_traits<char> >) const
PUBLIC 1ff9c 0 geode::cast::traverseTypeinfoFor(void*, geode::cast::ClassTypeinfoType const*, char const*)
PUBLIC 200a0 0 geode::Mod::getSettingValue<long>(std::__ndk1::basic_string_view<char, std::__ndk1::char_traits<char> >) const
PUBLIC 201b8 0 geode::Mod::getSettingValue<std::__ndk1::basic_string<char, std::__ndk1::char_traits<char>, std::__ndk1::allocator<char> > >(std::__ndk1::basic_string_view<char, std::__ndk1::char_traits<char> >) const
PUBLIC 20348 0 std::__ndk1::shared_ptr<geode::StringSettingV3>::~shared_ptr[abi:ne180000]()
PUBLIC 20398 0 std::__ndk1::__hash_table<std::__ndk1::__hash_value_type<std::__ndk1::basic_string<char, std::__ndk1::char_traits<char>, std::__ndk1::allocator<char> >, std::__ndk1::array<std::__ndk1::basic_string<char, std::__ndk1::char_traits<char>, std::__ndk1::allocator<char> >, (unsigned long)7> >, std::__ndk1::__unordered_map_hasher<std::__ndk1::basic_string<char, std::__ndk1::char_traits<char>, std::__ndk1::allocator<char> >, std::__ndk1::__hash_value_type<std::__ndk1::basic_string<char, std::__ndk1::char_traits<char>, std::__ndk1::allocator<char> >, std::__ndk1::array<std::__ndk1::basic_string<char, std::__ndk1::char_traits<char>, std::__ndk1::allocator<char> >, (unsigned long)7> >, std::__ndk1::hash<std::__ndk1::basic_string<char, std::__ndk1::char_traits<char>, std::__ndk1::allocator<char> > >, std::__ndk1::equal_to<std::__ndk1::basic_string<char, std::__ndk1::char_traits<char>, std::__ndk1::allocator<char> > >, true>, std::__ndk1::__unordered_map_equal<std::__ndk1::basic_string<char, std::__ndk1::char_traits<char>, std::__ndk1::allocator<char> >, std::__ndk1::__hash_value_type<std::__ndk1::basic_string<char, std::__ndk1::char_traits<char>, std::__ndk1::allocator<char> >, std::__ndk1::array<std::__ndk1::basic_string<char, std::__ndk1::char_traits<char>, std::__ndk1::allocator<char> >, (unsigned long)7> >, std::__ndk1::equal_to<std::__ndk1::basic_string<char, std::__ndk1::char_traits<char>, std::__ndk1::allocator<char> > >, std::__ndk1::hash<std::__ndk1::basic_string<char, std::__ndk1::char_traits<char>, std::__ndk1::allocator<char> > >, true>, std::__ndk1::allocator<std::__ndk1::__hash_value_type<std::__ndk1::basic_string<char, std::__ndk1::char_traits<char>, std::__ndk1::allocator<char> >, std::__ndk1::array<std::__ndk1::basic_string<char, std::__ndk1::char_traits<char>, std::__ndk1::allocator<char> >, (unsigned long)7> > > >::find<std::__ndk1::basic_string<char, std::__ndk1::char_traits<char>, std::__ndk1::allocator<char> > >(std::__ndk1::basic_string<char, std::__ndk1::char_traits<char>, std::__ndk1::allocator<char> > const&) const
PUBLIC 205ec 0 std::__ndk1::__hash_table<std::__ndk1::__hash_value_type<std::__ndk1::basic_string<char, std::__ndk1::char_traits<char>, std::__ndk1::allocator<char> >, std::__ndk1::array<std::__ndk1::basic_string<char, std::__ndk1::char_traits<char>, std::__ndk1::allocator<char> >, (unsigned long)7> >, std::__ndk1::__unordered_map_hasher<std::__ndk1::basic_string<char, std::__ndk1::char_traits<char>, std::__ndk1::allocator<char> >, std::__ndk1::__hash_value_type<std::__ndk1::basic_string<char, std::__ndk1::char_traits<char>, std::__ndk1::allocator<char> >, std::__ndk1::array<std::__ndk1::basic_string<char, std::__ndk1::char_traits<char>, std::__ndk1::allocator<char> >, (unsigned long)7> >, std::__ndk1::hash<std::__ndk1::basic_string<char, std::__ndk1::char_traits<char>, std::__ndk1::allocator<char> > >, std::__ndk1::equal_to<std::__ndk1::basic_string<char, std::__ndk1::char_traits<char>, std::__ndk1::allocator<char> > >, true>, std::__ndk1::__unordered_map_equal<std::__ndk1::basic_string<char, std::__ndk1::char_traits<char>, std::__ndk1::allocator<char> >, std::__ndk1::__hash_value_type<std::__ndk1::basic_string<char, std::__ndk1::char_traits<char>, std::__ndk1::allocator<char> >, std::__ndk1::array<std::__ndk1::basic_string<char, std::__ndk1::char_traits<char>, std::__ndk1::allocator<char> >, (unsigned long)7> >, std::__ndk1::equal_to<std::__ndk1::basic_string<char, std::__ndk1::char_traits<char>, std::__ndk1::allocator<char> > >, std::__ndk1::hash<std::__ndk1::basic_string<char, std::__ndk1::char_traits<char>, std::__ndk1::allocator<char> > >, true>, std::__ndk1::allocator<std::__ndk1::__hash_value_type<std::__ndk1::basic_string<char, std::__ndk1::char_traits<char>, std::__ndk1::allocator<char> >, std::__ndk1::array<std::__ndk1::basic_string<char, std::__ndk1::char_traits<char>, std::__ndk1::allocator<char> >, (unsigned long)7> > > >::find<std::__ndk1::basic_string<char, std::__ndk1::char_traits<char>, std::__ndk1::allocator<char> > >(std::__ndk1::basic_string<char, std::__ndk1::char_traits<char>, std::__ndk1::allocator<char> > const&)
PUBLIC 20840 0 std::__ndk1::__hash_table<std::__ndk1::__hash_value_type<std::__ndk1::basic_string<char, std::__ndk1::char_traits<char>, std::__ndk1::allocator<char> >, std::__ndk1::array<std::__ndk1::basic_string<char, std::__ndk1::char_traits<char>, std::__ndk1::allocator<char> >, (unsigned long)13> >, std::__ndk1::__unordered_map_hasher<std::__ndk1::basic_string<char, std::__ndk1::char_traits<char>, std::__ndk1::allocator<char> >, std::__ndk1::__hash_value_type<std::__ndk1::basic_string<char, std::__ndk1::char_traits<char>, std::__ndk1::allocator<char> >, std::__ndk1::array<std::__ndk1::basic_string<char, std::__ndk1::char_traits<char>, std::__ndk1::allocator<char> >, (unsigned long)13> >, std::__ndk1::hash<std::__ndk1::basic_string<char, std::__ndk1::char_traits<char>, std::__ndk1::allocator<char> > >, std::__ndk1::equal_to<std::__ndk1::basic_string<char, std::__ndk1::char_traits<char>, std::__ndk1::allocator<char> > >, true>, std::__ndk1::__unordered_map_equal<std::__ndk1::basic_string<char, std::__ndk1::char_traits<char>, std::__ndk1::allocator<char> >, std::__ndk1::__hash_value_type<std::__ndk1::basic_string<char, std::__ndk1::char_traits<char>, std::__ndk1::allocator<char> >, std::__ndk1::array<std::__ndk1::basic_string<char, std::__ndk1::char_traits<char>, std::__ndk1::allocator<char> >, (unsigned long)13> >, std::__ndk1::equal_to<std::__ndk1::basic_string<char, std::__ndk1::char_traits<char>, std::__ndk1::allocator<char> > >, std::__ndk1::hash<std::__ndk1::basic_string<char, std::__ndk1::char_traits<char>, std::__ndk1::allocator<char> > >, true>, std::__ndk1::allocator<std::__ndk1::__hash_value_type<std::__ndk1::basic_string<char, std::__ndk1::char_traits<char>, std::__ndk1::allocator<char> >, std::__ndk1::array<std::__ndk1::basic_string<char, std::__ndk1::char_traits<char>, std::__ndk1::allocator<char> >, (unsigned long)13> > > >::find<std::__ndk1::basic_string<char, std::__ndk1::char_traits<char>, std::__ndk1::allocator<char> > >(std::__ndk1::basic_string<char, std::__ndk1::char_traits<char>, std::__ndk1::allocator<char> > const&) const
PUBLIC 20a94 0 std::__ndk1::__hash_table<std::__ndk1::__hash_value_type<std::__ndk1::basic_string<char, std::__ndk1::char_traits<char>, std::__ndk1::allocator<char> >, std::__ndk1::array<std::__ndk1::basic_string<char, std::__ndk1::char_traits<char>, std::__ndk1::allocator<char> >, (unsigned long)13> >, std::__ndk1::__unordered_map_hasher<std::__ndk1::basic_string<char, std::__ndk1::char_traits<char>, std::__ndk1::allocator<char> >, std::__ndk1::__hash_value_type<std::__ndk1::basic_string<char, std::__ndk1::char_traits<char>, std::__ndk1::allocator<char> >, std::__ndk1::array<std::__ndk1::basic_string<char, std::__ndk1::char_traits<char>, std::__ndk1::allocator<char> >, (unsigned long)13> >, std::__ndk1::hash<std::__ndk1::basic_string<char, std::__ndk1::char_traits<char>, std::__ndk1::allocator<char> > >, std::__ndk1::equal_to<std::__ndk1::basic_string<char, std::__ndk1::char_traits<char>, std::__ndk1::allocator<char> > >, true>, std::__ndk1::__unordered_map_equal<std::__ndk1::basic_string<char, std::__ndk1::char_traits<char>, std::__ndk1::allocator<char> >, std::__ndk1::__hash_value_type<std::__ndk1::basic_string<char, std::__ndk1::char_traits<char>, std::__ndk1::allocator<char> >, std::__ndk1::array<std::__ndk1::basic_string<char, std::__ndk1::char_traits<char>, std::__ndk1::allocator<char> >, (unsigned long)13> >, std::__ndk1::equal_to<std::__ndk1::basic_string<char, std::__ndk1::char_traits<char>, std::__ndk1::allocator<char> > >, std::__ndk1::hash<std::__ndk1::basic_string<char, std::__ndk1::char_traits<char>, std::__ndk1::allocator<char> > >, true>, std::__ndk1::allocator<std::__ndk1::__hash_value_type<std::__ndk1::basic_string<char, std::__ndk1::char_traits<char>, std::__ndk1::allocator<char> >, std::__ndk1::array<std::__ndk1::basic_string<char, std::__ndk1::char_traits<char>, std::__ndk1::allocator<char> >, (unsigned long)13> > > >::find<std::__ndk1::basic_string<char, std::__ndk1::char_traits<char>, std::__ndk1::allocator<char> > >(std::__ndk1::basic_string<char, std::__ndk1::char_traits<char>, std::__ndk1::allocator<char> > const&)
PUBLIC 20ce8 0 cocos2d::CCCopying::copyWithZone(cocos2d::CCZone*)
PUBLIC 20cf0 0 ZealousDateAndTimeLabel::~ZealousDateAndTimeLabel()
PUBLIC 20d14 0 __cxx_global_var_init
PUBLIC 21470 0 geode::modifier::ModifyBase<geode::modifier::ModifyDerive<MyCCScheduler, cocos2d::CCScheduler> >::~ModifyBase()
PUBLIC 2148c 0 geode::modifier::ModifyDerive<MyCCScheduler, cocos2d::CCScheduler>::apply()
PUBLIC 2180c 0 std::__ndk1::shared_ptr<geode::Hook>::~shared_ptr[abi:ne180000]()
PUBLIC 2185c 0 geode::impl::ResultData<geode::Hook*, std::__ndk1::basic_string<char, std::__ndk1::char_traits<char>, std::__ndk1::allocator<char> > >::~ResultData()
PUBLIC 218d0 0 std::__ndk1::vector<std::__ndk1::basic_string<char, std::__ndk1::char_traits<char>, std::__ndk1::allocator<char> >, std::__ndk1::allocator<std::__ndk1::basic_string<char, std::__ndk1::char_traits<char>, std::__ndk1::allocator<char> > > >::~vector[abi:ne180000]()
PUBLIC 2194c 0 geode::modifier::ModifyBase<geode::modifier::ModifyDerive<MyCCScheduler, cocos2d::CCScheduler> >::apply()
PUBLIC 21950 0 std::__ndk1::__tree<std::__ndk1::__value_type<std::__ndk1::basic_string<char, std::__ndk1::char_traits<char>, std::__ndk1::allocator<char> >, std::__ndk1::shared_ptr<geode::Hook> >, std::__ndk1::__map_value_compare<std::__ndk1::basic_string<char, std::__ndk1::char_traits<char>, std::__ndk1::allocator<char> >, std::__ndk1::__value_type<std::__ndk1::basic_string<char, std::__ndk1::char_traits<char>, std::__ndk1::allocator<char> >, std::__ndk1::shared_ptr<geode::Hook> >, std::__ndk1::less<std::__ndk1::basic_string<char, std::__ndk1::char_traits<char>, std::__ndk1::allocator<char> > >, true>, std::__ndk1::allocator<std::__ndk1::__value_type<std::__ndk1::basic_string<char, std::__ndk1::char_traits<char>, std::__ndk1::allocator<char> >, std::__ndk1::shared_ptr<geode::Hook> > > >::find<std::__ndk1::basic_string<char, std::__ndk1::char_traits<char>, std::__ndk1::allocator<char> > >(std::__ndk1::basic_string<char, std::__ndk1::char_traits<char>, std::__ndk1::allocator<char> > const&)
PUBLIC 21a70 0 std::__ndk1::unique_ptr<std::__ndk1::__tree_node<std::__ndk1::__value_type<std::__ndk1::basic_string<char, std::__ndk1::char_traits<char>, std::__ndk1::allocator<char> >, std::__ndk1::shared_ptr<geode::Hook> >, void*>, std::__ndk1::__tree_node_destructor<std::__ndk1::allocator<std::__ndk1::__tree_node<std::__ndk1::__value_type<std::__ndk1::basic_string<char, std::__ndk1::char_traits<char>, std::__ndk1::allocator<char> >, std::__ndk1::shared_ptr<geode::Hook> >, void*> > > >::~unique_ptr[abi:ne180000]()
PUBLIC 21aec 0 std::__ndk1::__tree_balance_after_insert[abi:ne180000]<std::__ndk1::__tree_node_base<void*>*>(std::__ndk1::__tree_node_base<void*>*, std::__ndk1::__tree_node_base<void*>*)
PUBLIC 21c9c 0 _ZN5geode15UnwrapExceptionC2IRPNS_4HookEQsr4implE18IsStringStreamableIT_EEENS_4impl5OkTagEOS5_
PUBLIC 21df0 0 std::__ndk1::__throw_bad_variant_access[abi:ne180000]()
PUBLIC 21e24 0 std::__ndk1::basic_stringstream<char, std::__ndk1::char_traits<char>, std::__ndk1::allocator<char> >::basic_stringstream[abi:ne180000]()
PUBLIC m 21f50 0 std::__ndk1::basic_stringstream<char, std::__ndk1::char_traits<char>, std::__ndk1::allocator<char> >::~basic_stringstream()
PUBLIC 21fd0 0 geode::UnwrapException::~UnwrapException()
PUBLIC 21ff4 0 std::__ndk1::__put_character_sequence[abi:ne180000]<char, std::__ndk1::char_traits<char> >(std::__ndk1::basic_ostream<char, std::__ndk1::char_traits<char> >, std::__ndk1::basic_ostream const*, unsigned long)
PUBLIC 22198 0 std::__ndk1::__pad_and_output[abi:ne180000]<char, std::__ndk1::char_traits<char> >(std::__ndk1::char_traits<char>, std::__ndk1::ostreambuf_iterator const*, std::__ndk1::ostreambuf_iterator const, std::__ndk1::ostreambuf_iterator const, std::__ndk1::ios_base&, std::__ndk1::ostreambuf_iterator)
PUBLIC 22374 0 std::__ndk1::basic_stringbuf<char, std::__ndk1::char_traits<char>, std::__ndk1::allocator<char> >::str[abi:ne180000]() &&
PUBLIC 224ec 0 std::__ndk1::basic_stringbuf<char, std::__ndk1::char_traits<char>, std::__ndk1::allocator<char> >::__init_buf_ptrs[abi:ne180000]()
PUBLIC 22634 0 _ZN5geode15UnwrapExceptionC2IRNSt6__ndk112basic_stringIcNS2_11char_traitsIcEENS2_9allocatorIcEEEEQsr4implE18IsStringStreamableIT_EEENS_4impl6ErrTagEOSA_
PUBLIC 2279c 0 std::__ndk1::__variant_detail::__visitation::__base::__dispatcher<(unsigned long)0>::__dispatch[abi:ne180000]<std::__ndk1::__variant_detail::__dtor<std::__ndk1::__variant_detail::__traits<std::__ndk1::monostate, std::__ndk1::basic_string<char, std::__ndk1::char_traits<char>, std::__ndk1::allocator<char> > >, (std::__ndk1::__variant_detail::_Trait)1>::__destroy[abi:ne180000]()::{lambda(auto:1&)#1}, std::__ndk1::__variant_detail::__base<(std::__ndk1::__variant_detail::__traits<std::__ndk1::monostate, std::__ndk1::basic_string<char, std::__ndk1::char_traits<char>, std::__ndk1::allocator<char> > >)1, std::__ndk1::__variant_detail::__traits, std::__ndk1::allocator<char> >&>(std::__ndk1::__variant_detail::__dtor<std::__ndk1::__variant_detail::__traits<std::__ndk1::monostate, std::__ndk1::basic_string<char, std::__ndk1::char_traits<char>, std::__ndk1::allocator<char> > >, (std::__ndk1::__variant_detail::_Trait)1>, std::__ndk1::__variant_detail::__base<(std::__ndk1::__variant_detail::__traits<std::__ndk1::monostate, std::__ndk1::basic_string<char, std::__ndk1::char_traits<char>, std::__ndk1::allocator<char> > >)1, std::__ndk1::__variant_detail::__traits, std::__ndk1::allocator<char> >&)
PUBLIC 227a0 0 std::__ndk1::__variant_detail::__visitation::__base::__dispatcher<(unsigned long)1>::__dispatch[abi:ne180000]<std::__ndk1::__variant_detail::__dtor<std::__ndk1::__variant_detail::__traits<std::__ndk1::monostate, std::__ndk1::basic_string<char, std::__ndk1::char_traits<char>, std::__ndk1::allocator<char> > >, (std::__ndk1::__variant_detail::_Trait)1>::__destroy[abi:ne180000]()::{lambda(auto:1&)#1}, std::__ndk1::__variant_detail::__base<(std::__ndk1::__variant_detail::__traits<std::__ndk1::monostate, std::__ndk1::basic_string<char, std::__ndk1::char_traits<char>, std::__ndk1::allocator<char> > >)1, std::__ndk1::__variant_detail::__traits, std::__ndk1::allocator<char> >&>(std::__ndk1::__variant_detail::__dtor<std::__ndk1::__variant_detail::__traits<std::__ndk1::monostate, std::__ndk1::basic_string<char, std::__ndk1::char_traits<char>, std::__ndk1::allocator<char> > >, (std::__ndk1::__variant_detail::_Trait)1>, std::__ndk1::__variant_detail::__base<(std::__ndk1::__variant_detail::__traits<std::__ndk1::monostate, std::__ndk1::basic_string<char, std::__ndk1::char_traits<char>, std::__ndk1::allocator<char> > >)1, std::__ndk1::__variant_detail::__traits, std::__ndk1::allocator<char> >&)
PUBLIC 227b4 0 std::__ndk1::vector<std::__ndk1::basic_string<char, std::__ndk1::char_traits<char>, std::__ndk1::allocator<char> >, std::__ndk1::allocator<std::__ndk1::basic_string<char, std::__ndk1::char_traits<char>, std::__ndk1::allocator<char> > > >::__push_back_slow_path<std::__ndk1::basic_string<char, std::__ndk1::char_traits<char>, std::__ndk1::allocator<char> > const&>(std::__ndk1::basic_string<char, std::__ndk1::char_traits<char>, std::__ndk1::allocator<char> > const&)
PUBLIC 229dc 0 std::__ndk1::__split_buffer<std::__ndk1::basic_string<char, std::__ndk1::char_traits<char>, std::__ndk1::allocator<char> >, std::__ndk1::allocator<std::__ndk1::basic_string<char, std::__ndk1::char_traits<char>, std::__ndk1::allocator<char> > >&>::~__split_buffer()
PUBLIC 22a44 0 std::__ndk1::vector<std::__ndk1::basic_string<char, std::__ndk1::char_traits<char>, std::__ndk1::allocator<char> >, std::__ndk1::allocator<std::__ndk1::basic_string<char, std::__ndk1::char_traits<char>, std::__ndk1::allocator<char> > > >::__throw_length_error[abi:ne180000]() const
PUBLIC 22a58 0 std::__ndk1::__variant_detail::__visitation::__base::__dispatcher<(unsigned long)0>::__dispatch[abi:ne180000]<std::__ndk1::__variant_detail::__dtor<std::__ndk1::__variant_detail::__traits<geode::Hook*, std::__ndk1::basic_string<char, std::__ndk1::char_traits<char>, std::__ndk1::allocator<char> > >, (std::__ndk1::__variant_detail::_Trait)1>::__destroy[abi:ne180000]()::{lambda(auto:1&)#1}, std::__ndk1::__variant_detail::__base<(std::__ndk1::__variant_detail::__traits<geode::Hook*, std::__ndk1::basic_string<char, std::__ndk1::char_traits<char>, std::__ndk1::allocator<char> > >)1, geode::Hook, std::__ndk1::allocator<char> >&>(std::__ndk1::__variant_detail::__dtor<std::__ndk1::__variant_detail::__traits<geode::Hook*, std::__ndk1::basic_string<char, std::__ndk1::char_traits<char>, std::__ndk1::allocator<char> > >, (std::__ndk1::__variant_detail::_Trait)1>, std::__ndk1::__variant_detail::__base<(std::__ndk1::__variant_detail::__traits<geode::Hook*, std::__ndk1::basic_string<char, std::__ndk1::char_traits<char>, std::__ndk1::allocator<char> > >)1, geode::Hook, std::__ndk1::allocator<char> >&)
PUBLIC 22a5c 0 std::__ndk1::__variant_detail::__visitation::__base::__dispatcher<(unsigned long)1>::__dispatch[abi:ne180000]<std::__ndk1::__variant_detail::__dtor<std::__ndk1::__variant_detail::__traits<geode::Hook*, std::__ndk1::basic_string<char, std::__ndk1::char_traits<char>, std::__ndk1::allocator<char> > >, (std::__ndk1::__variant_detail::_Trait)1>::__destroy[abi:ne180000]()::{lambda(auto:1&)#1}, std::__ndk1::__variant_detail::__base<(std::__ndk1::__variant_detail::__traits<geode::Hook*, std::__ndk1::basic_string<char, std::__ndk1::char_traits<char>, std::__ndk1::allocator<char> > >)1, geode::Hook, std::__ndk1::allocator<char> >&>(std::__ndk1::__variant_detail::__dtor<std::__ndk1::__variant_detail::__traits<geode::Hook*, std::__ndk1::basic_string<char, std::__ndk1::char_traits<char>, std::__ndk1::allocator<char> > >, (std::__ndk1::__variant_detail::_Trait)1>, std::__ndk1::__variant_detail::__base<(std::__ndk1::__variant_detail::__traits<geode::Hook*, std::__ndk1::basic_string<char, std::__ndk1::char_traits<char>, std::__ndk1::allocator<char> > >)1, geode::Hook, std::__ndk1::allocator<char> >&)
PUBLIC 22a70 0 std::__ndk1::__tree<std::__ndk1::__value_type<std::__ndk1::basic_string<char, std::__ndk1::char_traits<char>, std::__ndk1::allocator<char> >, std::__ndk1::shared_ptr<geode::Hook> >, std::__ndk1::__map_value_compare<std::__ndk1::basic_string<char, std::__ndk1::char_traits<char>, std::__ndk1::allocator<char> >, std::__ndk1::__value_type<std::__ndk1::basic_string<char, std::__ndk1::char_traits<char>, std::__ndk1::allocator<char> >, std::__ndk1::shared_ptr<geode::Hook> >, std::__ndk1::less<std::__ndk1::basic_string<char, std::__ndk1::char_traits<char>, std::__ndk1::allocator<char> > >, true>, std::__ndk1::allocator<std::__ndk1::__value_type<std::__ndk1::basic_string<char, std::__ndk1::char_traits<char>, std::__ndk1::allocator<char> >, std::__ndk1::shared_ptr<geode::Hook> > > >::erase(std::__ndk1::__tree_const_iterator<std::__ndk1::__value_type<std::__ndk1::basic_string<char, std::__ndk1::char_traits<char>, std::__ndk1::allocator<char> >, std::__ndk1::shared_ptr<geode::Hook> >, std::__ndk1::__tree_node<std::__ndk1::__value_type<std::__ndk1::basic_string<char, std::__ndk1::char_traits<char>, std::__ndk1::allocator<char> >, std::__ndk1::shared_ptr<geode::Hook> >, void*>*, long>)
PUBLIC 22b44 0 std::__ndk1::__tree_remove[abi:ne180000]<std::__ndk1::__tree_node_base<void*>*>(std::__ndk1::__tree_node_base<void*>*, std::__ndk1::__tree_node_base<void*>*)
PUBLIC 22f0c 0 std::__ndk1::__tree<std::__ndk1::__value_type<std::__ndk1::basic_string<char, std::__ndk1::char_traits<char>, std::__ndk1::allocator<char> >, std::__ndk1::shared_ptr<geode::Hook> >, std::__ndk1::__map_value_compare<std::__ndk1::basic_string<char, std::__ndk1::char_traits<char>, std::__ndk1::allocator<char> >, std::__ndk1::__value_type<std::__ndk1::basic_string<char, std::__ndk1::char_traits<char>, std::__ndk1::allocator<char> >, std::__ndk1::shared_ptr<geode::Hook> >, std::__ndk1::less<std::__ndk1::basic_string<char, std::__ndk1::char_traits<char>, std::__ndk1::allocator<char> > >, true>, std::__ndk1::allocator<std::__ndk1::__value_type<std::__ndk1::basic_string<char, std::__ndk1::char_traits<char>, std::__ndk1::allocator<char> >, std::__ndk1::shared_ptr<geode::Hook> > > >::destroy(std::__ndk1::__tree_node<std::__ndk1::__value_type<std::__ndk1::basic_string<char, std::__ndk1::char_traits<char>, std::__ndk1::allocator<char> >, std::__ndk1::shared_ptr<geode::Hook> >, void*>*)
PUBLIC 22f98 0 geode::modifier::AsStaticFunction_update<MyCCScheduler, void (MyCCScheduler::*)(float)>::Impl<void (MyCCScheduler::*)(float)>::function(MyCCScheduler*, float)
PUBLIC 2307c 0 geode::addresser::Addresser::addressOfVirtual<void, cocos2d::CCScheduler, float>(void (cocos2d::CCScheduler::*)(float))
PUBLIC 23154 0 std::__ndk1::shared_ptr<tulip::hook::CallingConvention>::~shared_ptr[abi:ne180000]()
PUBLIC 231a4 0 tulip::hook::HandlerMetadata::~HandlerMetadata()
PUBLIC 23208 0 std::__ndk1::__tree<std::__ndk1::__value_type<std::__ndk1::basic_string<char, std::__ndk1::char_traits<char>, std::__ndk1::allocator<char> >, std::__ndk1::shared_ptr<geode::Hook> >, std::__ndk1::__map_value_compare<std::__ndk1::basic_string<char, std::__ndk1::char_traits<char>, std::__ndk1::allocator<char> >, std::__ndk1::__value_type<std::__ndk1::basic_string<char, std::__ndk1::char_traits<char>, std::__ndk1::allocator<char> >, std::__ndk1::shared_ptr<geode::Hook> >, std::__ndk1::less<std::__ndk1::basic_string<char, std::__ndk1::char_traits<char>, std::__ndk1::allocator<char> > >, true>, std::__ndk1::allocator<std::__ndk1::__value_type<std::__ndk1::basic_string<char, std::__ndk1::char_traits<char>, std::__ndk1::allocator<char> >, std::__ndk1::shared_ptr<geode::Hook> > > >::__emplace_unique_key_args<std::__ndk1::basic_string<char, std::__ndk1::char_traits<char>, std::__ndk1::allocator<char> >, std::__ndk1::piecewise_construct_t const&, std::__ndk1::tuple<std::__ndk1::basic_string<char, std::__ndk1::char_traits<char>, std::__ndk1::allocator<char> >&&>, std::__ndk1::tuple<> >(std::__ndk1::basic_string<char, std::__ndk1::char_traits<char>, std::__ndk1::allocator<char> > const&, std::__ndk1::piecewise_construct_t const&, std::__ndk1::tuple<std::__ndk1::basic_string<char, std::__ndk1::char_traits<char>, std::__ndk1::allocator<char> >&&>, std::__ndk1::tuple<>)
PUBLIC 23380 0 __cxx_global_var_init
PUBLIC 23800 0 geode::modifier::ModifyBase<geode::modifier::ModifyDerive<MyMenuLayer, MenuLayer> >::~ModifyBase()
PUBLIC 2381c 0 geode::modifier::ModifyDerive<MyMenuLayer, MenuLayer>::apply()
PUBLIC 23b24 0 geode::modifier::ModifyBase<geode::modifier::ModifyDerive<MyMenuLayer, MenuLayer> >::apply()
PUBLIC 23b28 0 geode::modifier::AsStaticFunction_init<MyMenuLayer, bool (MyMenuLayer::*)()>::Impl<bool (MyMenuLayer::*)()>::function(MyMenuLayer*)
PUBLIC 23ce8 0 geode::addresser::Addresser::addressOfVirtual<bool, MenuLayer, >(bool (MenuLayer::*)())
PUBLIC 23d90 0 MenuLayer::MenuLayer(geode::ZeroConstructorType)
PUBLIC 23e2c 0 geodeExecFunction7<(anonymous namespace)::ExecFuncUnique7>(geode::ModStateEvent*)
PUBLIC 24adc 0 geode::EventListener<geode::SettingChangedFilterV3>::EventListener(std::__ndk1::function<void (std::__ndk1::shared_ptr<geode::SettingV3>)>, geode::SettingChangedFilterV3)
PUBLIC 24bd4 0 geode::SettingChangedFilterV3::~SettingChangedFilterV3()
PUBLIC 24c24 0 std::__ndk1::__function::__func<geode::listenForSettingChangesV3<bool, geodeExecFunction7<(anonymous namespace)::ExecFuncUnique7>(geode::ModStateEvent*)::{lambda(bool)#1}>(std::__ndk1::basic_string_view<char, std::__ndk1::char_traits<char> >, geodeExecFunction7<(anonymous namespace)::ExecFuncUnique7>(geode::ModStateEvent*)::{lambda(bool)#1}&&, geode::Mod*)::{lambda(std::__ndk1::shared_ptr<geode::SettingV3>)#1}, std::__ndk1::allocator<geode::listenForSettingChangesV3<bool, geodeExecFunction7<(anonymous namespace)::ExecFuncUnique7>(geode::ModStateEvent*)::{lambda(bool)#1}>(std::__ndk1::basic_string_view<char, std::__ndk1::char_traits<char> >, geodeExecFunction7<(anonymous namespace)::ExecFuncUnique7>(geode::ModStateEvent*)::{lambda(bool)#1}&&, geode::Mod*)::{lambda(std::__ndk1::shared_ptr<geode::SettingV3>)#1}>, void (std::__ndk1::shared_ptr<geode::SettingV3>)>::~__func()
PUBLIC 24c28 0 std::__ndk1::__function::__func<geode::listenForSettingChangesV3<bool, geodeExecFunction7<(anonymous namespace)::ExecFuncUnique7>(geode::ModStateEvent*)::{lambda(bool)#1}>(std::__ndk1::basic_string_view<char, std::__ndk1::char_traits<char> >, geodeExecFunction7<(anonymous namespace)::ExecFuncUnique7>(geode::ModStateEvent*)::{lambda(bool)#1}&&, geode::Mod*)::{lambda(std::__ndk1::shared_ptr<geode::SettingV3>)#1}, std::__ndk1::allocator<geode::listenForSettingChangesV3<bool, geodeExecFunction7<(anonymous namespace)::ExecFuncUnique7>(geode::ModStateEvent*)::{lambda(bool)#1}>(std::__ndk1::basic_string_view<char, std::__ndk1::char_traits<char> >, geodeExecFunction7<(anonymous namespace)::ExecFuncUnique7>(geode::ModStateEvent*)::{lambda(bool)#1}&&, geode::Mod*)::{lambda(std::__ndk1::shared_ptr<geode::SettingV3>)#1}>, void (std::__ndk1::shared_ptr<geode::SettingV3>)>::__clone() const
PUBLIC 24c60 0 std::__ndk1::__function::__func<geode::listenForSettingChangesV3<bool, geodeExecFunction7<(anonymous namespace)::ExecFuncUnique7>(geode::ModStateEvent*)::{lambda(bool)#1}>(std::__ndk1::basic_string_view<char, std::__ndk1::char_traits<char> >, geodeExecFunction7<(anonymous namespace)::ExecFuncUnique7>(geode::ModStateEvent*)::{lambda(bool)#1}&&, geode::Mod*)::{lambda(std::__ndk1::shared_ptr<geode::SettingV3>)#1}, std::__ndk1::allocator<geode::listenForSettingChangesV3<bool, geodeExecFunction7<(anonymous namespace)::ExecFuncUnique7>(geode::ModStateEvent*)::{lambda(bool)#1}>(std::__ndk1::basic_string_view<char, std::__ndk1::char_traits<char> >, geodeExecFunction7<(anonymous namespace)::ExecFuncUnique7>(geode::ModStateEvent*)::{lambda(bool)#1}&&, geode::Mod*)::{lambda(std::__ndk1::shared_ptr<geode::SettingV3>)#1}>, void (std::__ndk1::shared_ptr<geode::SettingV3>)>::__clone(std::__ndk1::__function::__base<void (std::__ndk1::shared_ptr<geode::SettingV3>)>*) const
PUBLIC 24c78 0 std::__ndk1::__function::__func<geode::listenForSettingChangesV3<bool, geodeExecFunction7<(anonymous namespace)::ExecFuncUnique7>(geode::ModStateEvent*)::{lambda(bool)#1}>(std::__ndk1::basic_string_view<char, std::__ndk1::char_traits<char> >, geodeExecFunction7<(anonymous namespace)::ExecFuncUnique7>(geode::ModStateEvent*)::{lambda(bool)#1}&&, geode::Mod*)::{lambda(std::__ndk1::shared_ptr<geode::SettingV3>)#1}, std::__ndk1::allocator<geode::listenForSettingChangesV3<bool, geodeExecFunction7<(anonymous namespace)::ExecFuncUnique7>(geode::ModStateEvent*)::{lambda(bool)#1}>(std::__ndk1::basic_string_view<char, std::__ndk1::char_traits<char> >, geodeExecFunction7<(anonymous namespace)::ExecFuncUnique7>(geode::ModStateEvent*)::{lambda(bool)#1}&&, geode::Mod*)::{lambda(std::__ndk1::shared_ptr<geode::SettingV3>)#1}>, void (std::__ndk1::shared_ptr<geode::SettingV3>)>::destroy()
PUBLIC 24c7c 0 std::__ndk1::__function::__func<geode::listenForSettingChangesV3<bool, geodeExecFunction7<(anonymous namespace)::ExecFuncUnique7>(geode::ModStateEvent*)::{lambda(bool)#1}>(std::__ndk1::basic_string_view<char, std::__ndk1::char_traits<char> >, geodeExecFunction7<(anonymous namespace)::ExecFuncUnique7>(geode::ModStateEvent*)::{lambda(bool)#1}&&, geode::Mod*)::{lambda(std::__ndk1::shared_ptr<geode::SettingV3>)#1}, std::__ndk1::allocator<geode::listenForSettingChangesV3<bool, geodeExecFunction7<(anonymous namespace)::ExecFuncUnique7>(geode::ModStateEvent*)::{lambda(bool)#1}>(std::__ndk1::basic_string_view<char, std::__ndk1::char_traits<char> >, geodeExecFunction7<(anonymous namespace)::ExecFuncUnique7>(geode::ModStateEvent*)::{lambda(bool)#1}&&, geode::Mod*)::{lambda(std::__ndk1::shared_ptr<geode::SettingV3>)#1}>, void (std::__ndk1::shared_ptr<geode::SettingV3>)>::destroy_deallocate()
PUBLIC 24c80 0 std::__ndk1::__function::__func<geode::listenForSettingChangesV3<bool, geodeExecFunction7<(anonymous namespace)::ExecFuncUnique7>(geode::ModStateEvent*)::{lambda(bool)#1}>(std::__ndk1::basic_string_view<char, std::__ndk1::char_traits<char> >, geodeExecFunction7<(anonymous namespace)::ExecFuncUnique7>(geode::ModStateEvent*)::{lambda(bool)#1}&&, geode::Mod*)::{lambda(std::__ndk1::shared_ptr<geode::SettingV3>)#1}, std::__ndk1::allocator<geode::listenForSettingChangesV3<bool, geodeExecFunction7<(anonymous namespace)::ExecFuncUnique7>(geode::ModStateEvent*)::{lambda(bool)#1}>(std::__ndk1::basic_string_view<char, std::__ndk1::char_traits<char> >, geodeExecFunction7<(anonymous namespace)::ExecFuncUnique7>(geode::ModStateEvent*)::{lambda(bool)#1}&&, geode::Mod*)::{lambda(std::__ndk1::shared_ptr<geode::SettingV3>)#1}>, void (std::__ndk1::shared_ptr<geode::SettingV3>)>::operator()(std::__ndk1::shared_ptr<geode::SettingV3>&&)
PUBLIC 24db8 0 std::__ndk1::__function::__func<geode::listenForSettingChangesV3<bool, geodeExecFunction7<(anonymous namespace)::ExecFuncUnique7>(geode::ModStateEvent*)::{lambda(bool)#1}>(std::__ndk1::basic_string_view<char, std::__ndk1::char_traits<char> >, geodeExecFunction7<(anonymous namespace)::ExecFuncUnique7>(geode::ModStateEvent*)::{lambda(bool)#1}&&, geode::Mod*)::{lambda(std::__ndk1::shared_ptr<geode::SettingV3>)#1}, std::__ndk1::allocator<geode::listenForSettingChangesV3<bool, geodeExecFunction7<(anonymous namespace)::ExecFuncUnique7>(geode::ModStateEvent*)::{lambda(bool)#1}>(std::__ndk1::basic_string_view<char, std::__ndk1::char_traits<char> >, geodeExecFunction7<(anonymous namespace)::ExecFuncUnique7>(geode::ModStateEvent*)::{lambda(bool)#1}&&, geode::Mod*)::{lambda(std::__ndk1::shared_ptr<geode::SettingV3>)#1}>, void (std::__ndk1::shared_ptr<geode::SettingV3>)>::target(std::type_info const&) const
PUBLIC 24dd4 0 std::__ndk1::__function::__func<geode::listenForSettingChangesV3<bool, geodeExecFunction7<(anonymous namespace)::ExecFuncUnique7>(geode::ModStateEvent*)::{lambda(bool)#1}>(std::__ndk1::basic_string_view<char, std::__ndk1::char_traits<char> >, geodeExecFunction7<(anonymous namespace)::ExecFuncUnique7>(geode::ModStateEvent*)::{lambda(bool)#1}&&, geode::Mod*)::{lambda(std::__ndk1::shared_ptr<geode::SettingV3>)#1}, std::__ndk1::allocator<geode::listenForSettingChangesV3<bool, geodeExecFunction7<(anonymous namespace)::ExecFuncUnique7>(geode::ModStateEvent*)::{lambda(bool)#1}>(std::__ndk1::basic_string_view<char, std::__ndk1::char_traits<char> >, geodeExecFunction7<(anonymous namespace)::ExecFuncUnique7>(geode::ModStateEvent*)::{lambda(bool)#1}&&, geode::Mod*)::{lambda(std::__ndk1::shared_ptr<geode::SettingV3>)#1}>, void (std::__ndk1::shared_ptr<geode::SettingV3>)>::target_type() const
PUBLIC 24de0 0 std::__ndk1::shared_ptr<geode::SettingV3>::~shared_ptr[abi:ne180000]()
PUBLIC 24e30 0 std::__ndk1::shared_ptr<geode::BoolSettingV3>::~shared_ptr[abi:ne180000]()
PUBLIC 24e80 0 geode::EventListener<geode::SettingChangedFilterV3>::getPool() const
PUBLIC 24e84 0 geode::EventListener<geode::SettingChangedFilterV3>::handle(geode::Event*)
PUBLIC 24ff8 0 geode::EventListener<geode::SettingChangedFilterV3>::~EventListener()
PUBLIC 25094 0 geode::EventListener<geode::SettingChangedFilterV3>::~EventListener()
PUBLIC 25138 0 std::__ndk1::__function::__func<geode::listenForSettingChangesV3<double, geodeExecFunction7<(anonymous namespace)::ExecFuncUnique7>(geode::ModStateEvent*)::{lambda(double)#1}>(std::__ndk1::basic_string_view<char, std::__ndk1::char_traits<char> >, geodeExecFunction7<(anonymous namespace)::ExecFuncUnique7>(geode::ModStateEvent*)::{lambda(double)#1}&&, geode::Mod*)::{lambda(std::__ndk1::shared_ptr<geode::SettingV3>)#1}, std::__ndk1::allocator<geode::listenForSettingChangesV3<double, geodeExecFunction7<(anonymous namespace)::ExecFuncUnique7>(geode::ModStateEvent*)::{lambda(double)#1}>(std::__ndk1::basic_string_view<char, std::__ndk1::char_traits<char> >, geodeExecFunction7<(anonymous namespace)::ExecFuncUnique7>(geode::ModStateEvent*)::{lambda(double)#1}&&, geode::Mod*)::{lambda(std::__ndk1::shared_ptr<geode::SettingV3>)#1}>, void (std::__ndk1::shared_ptr<geode::SettingV3>)>::~__func()
PUBLIC 2513c 0 std::__ndk1::__function::__func<geode::listenForSettingChangesV3<double, geodeExecFunction7<(anonymous namespace)::ExecFuncUnique7>(geode::ModStateEvent*)::{lambda(double)#1}>(std::__ndk1::basic_string_view<char, std::__ndk1::char_traits<char> >, geodeExecFunction7<(anonymous namespace)::ExecFuncUnique7>(geode::ModStateEvent*)::{lambda(double)#1}&&, geode::Mod*)::{lambda(std::__ndk1::shared_ptr<geode::SettingV3>)#1}, std::__ndk1::allocator<geode::listenForSettingChangesV3<double, geodeExecFunction7<(anonymous namespace)::ExecFuncUnique7>(geode::ModStateEvent*)::{lambda(double)#1}>(std::__ndk1::basic_string_view<char, std::__ndk1::char_traits<char> >, geodeExecFunction7<(anonymous namespace)::ExecFuncUnique7>(geode::ModStateEvent*)::{lambda(double)#1}&&, geode::Mod*)::{lambda(std::__ndk1::shared_ptr<geode::SettingV3>)#1}>, void (std::__ndk1::shared_ptr<geode::SettingV3>)>::__clone() const
PUBLIC 25174 0 std::__ndk1::__function::__func<geode::listenForSettingChangesV3<double, geodeExecFunction7<(anonymous namespace)::ExecFuncUnique7>(geode::ModStateEvent*)::{lambda(double)#1}>(std::__ndk1::basic_string_view<char, std::__ndk1::char_traits<char> >, geodeExecFunction7<(anonymous namespace)::ExecFuncUnique7>(geode::ModStateEvent*)::{lambda(double)#1}&&, geode::Mod*)::{lambda(std::__ndk1::shared_ptr<geode::SettingV3>)#1}, std::__ndk1::allocator<geode::listenForSettingChangesV3<double, geodeExecFunction7<(anonymous namespace)::ExecFuncUnique7>(geode::ModStateEvent*)::{lambda(double)#1}>(std::__ndk1::basic_string_view<char, std::__ndk1::char_traits<char> >, geodeExecFunction7<(anonymous namespace)::ExecFuncUnique7>(geode::ModStateEvent*)::{lambda(double)#1}&&, geode::Mod*)::{lambda(std::__ndk1::shared_ptr<geode::SettingV3>)#1}>, void (std::__ndk1::shared_ptr<geode::SettingV3>)>::__clone(std::__ndk1::__function::__base<void (std::__ndk1::shared_ptr<geode::SettingV3>)>*) const
PUBLIC 2518c 0 std::__ndk1::__function::__func<geode::listenForSettingChangesV3<double, geodeExecFunction7<(anonymous namespace)::ExecFuncUnique7>(geode::ModStateEvent*)::{lambda(double)#1}>(std::__ndk1::basic_string_view<char, std::__ndk1::char_traits<char> >, geodeExecFunction7<(anonymous namespace)::ExecFuncUnique7>(geode::ModStateEvent*)::{lambda(double)#1}&&, geode::Mod*)::{lambda(std::__ndk1::shared_ptr<geode::SettingV3>)#1}, std::__ndk1::allocator<geode::listenForSettingChangesV3<double, geodeExecFunction7<(anonymous namespace)::ExecFuncUnique7>(geode::ModStateEvent*)::{lambda(double)#1}>(std::__ndk1::basic_string_view<char, std::__ndk1::char_traits<char> >, geodeExecFunction7<(anonymous namespace)::ExecFuncUnique7>(geode::ModStateEvent*)::{lambda(double)#1}&&, geode::Mod*)::{lambda(std::__ndk1::shared_ptr<geode::SettingV3>)#1}>, void (std::__ndk1::shared_ptr<geode::SettingV3>)>::destroy()
PUBLIC 25190 0 std::__ndk1::__function::__func<geode::listenForSettingChangesV3<double, geodeExecFunction7<(anonymous namespace)::ExecFuncUnique7>(geode::ModStateEvent*)::{lambda(double)#1}>(std::__ndk1::basic_string_view<char, std::__ndk1::char_traits<char> >, geodeExecFunction7<(anonymous namespace)::ExecFuncUnique7>(geode::ModStateEvent*)::{lambda(double)#1}&&, geode::Mod*)::{lambda(std::__ndk1::shared_ptr<geode::SettingV3>)#1}, std::__ndk1::allocator<geode::listenForSettingChangesV3<double, geodeExecFunction7<(anonymous namespace)::ExecFuncUnique7>(geode::ModStateEvent*)::{lambda(double)#1}>(std::__ndk1::basic_string_view<char, std::__ndk1::char_traits<char> >, geodeExecFunction7<(anonymous namespace)::ExecFuncUnique7>(geode::ModStateEvent*)::{lambda(double)#1}&&, geode::Mod*)::{lambda(std::__ndk1::shared_ptr<geode::SettingV3>)#1}>, void (std::__ndk1::shared_ptr<geode::SettingV3>)>::destroy_deallocate()
PUBLIC 25194 0 std::__ndk1::__function::__func<geode::listenForSettingChangesV3<double, geodeExecFunction7<(anonymous namespace)::ExecFuncUnique7>(geode::ModStateEvent*)::{lambda(double)#1}>(std::__ndk1::basic_string_view<char, std::__ndk1::char_traits<char> >, geodeExecFunction7<(anonymous namespace)::ExecFuncUnique7>(geode::ModStateEvent*)::{lambda(double)#1}&&, geode::Mod*)::{lambda(std::__ndk1::shared_ptr<geode::SettingV3>)#1}, std::__ndk1::allocator<geode::listenForSettingChangesV3<double, geodeExecFunction7<(anonymous namespace)::ExecFuncUnique7>(geode::ModStateEvent*)::{lambda(double)#1}>(std::__ndk1::basic_string_view<char, std::__ndk1::char_traits<char> >, geodeExecFunction7<(anonymous namespace)::ExecFuncUnique7>(geode::ModStateEvent*)::{lambda(double)#1}&&, geode::Mod*)::{lambda(std::__ndk1::shared_ptr<geode::SettingV3>)#1}>, void (std::__ndk1::shared_ptr<geode::SettingV3>)>::operator()(std::__ndk1::shared_ptr<geode::SettingV3>&&)
PUBLIC 252d0 0 std::__ndk1::__function::__func<geode::listenForSettingChangesV3<double, geodeExecFunction7<(anonymous namespace)::ExecFuncUnique7>(geode::ModStateEvent*)::{lambda(double)#1}>(std::__ndk1::basic_string_view<char, std::__ndk1::char_traits<char> >, geodeExecFunction7<(anonymous namespace)::ExecFuncUnique7>(geode::ModStateEvent*)::{lambda(double)#1}&&, geode::Mod*)::{lambda(std::__ndk1::shared_ptr<geode::SettingV3>)#1}, std::__ndk1::allocator<geode::listenForSettingChangesV3<double, geodeExecFunction7<(anonymous namespace)::ExecFuncUnique7>(geode::ModStateEvent*)::{lambda(double)#1}>(std::__ndk1::basic_string_view<char, std::__ndk1::char_traits<char> >, geodeExecFunction7<(anonymous namespace)::ExecFuncUnique7>(geode::ModStateEvent*)::{lambda(double)#1}&&, geode::Mod*)::{lambda(std::__ndk1::shared_ptr<geode::SettingV3>)#1}>, void (std::__ndk1::shared_ptr<geode::SettingV3>)>::target(std::type_info const&) const
PUBLIC 252ec 0 std::__ndk1::__function::__func<geode::listenForSettingChangesV3<double, geodeExecFunction7<(anonymous namespace)::ExecFuncUnique7>(geode::ModStateEvent*)::{lambda(double)#1}>(std::__ndk1::basic_string_view<char, std::__ndk1::char_traits<char> >, geodeExecFunction7<(anonymous namespace)::ExecFuncUnique7>(geode::ModStateEvent*)::{lambda(double)#1}&&, geode::Mod*)::{lambda(std::__ndk1::shared_ptr<geode::SettingV3>)#1}, std::__ndk1::allocator<geode::listenForSettingChangesV3<double, geodeExecFunction7<(anonymous namespace)::ExecFuncUnique7>(geode::ModStateEvent*)::{lambda(double)#1}>(std::__ndk1::basic_string_view<char, std::__ndk1::char_traits<char> >, geodeExecFunction7<(anonymous namespace)::ExecFuncUnique7>(geode::ModStateEvent*)::{lambda(double)#1}&&, geode::Mod*)::{lambda(std::__ndk1::shared_ptr<geode::SettingV3>)#1}>, void (std::__ndk1::shared_ptr<geode::SettingV3>)>::target_type() const
PUBLIC 252f8 0 std::__ndk1::shared_ptr<geode::FloatSettingV3>::~shared_ptr[abi:ne180000]()
PUBLIC 25348 0 std::__ndk1::__function::__func<geode::listenForSettingChangesV3<double, geodeExecFunction7<(anonymous namespace)::ExecFuncUnique7>(geode::ModStateEvent*)::{lambda(double)#2}>(std::__ndk1::basic_string_view<char, std::__ndk1::char_traits<char> >, geodeExecFunction7<(anonymous namespace)::ExecFuncUnique7>(geode::ModStateEvent*)::{lambda(double)#2}&&, geode::Mod*)::{lambda(std::__ndk1::shared_ptr<geode::SettingV3>)#1}, std::__ndk1::allocator<geode::listenForSettingChangesV3<double, geodeExecFunction7<(anonymous namespace)::ExecFuncUnique7>(geode::ModStateEvent*)::{lambda(double)#2}>(std::__ndk1::basic_string_view<char, std::__ndk1::char_traits<char> >, geodeExecFunction7<(anonymous namespace)::ExecFuncUnique7>(geode::ModStateEvent*)::{lambda(double)#2}&&, geode::Mod*)::{lambda(std::__ndk1::shared_ptr<geode::SettingV3>)#1}>, void (std::__ndk1::shared_ptr<geode::SettingV3>)>::~__func()
PUBLIC 2534c 0 std::__ndk1::__function::__func<geode::listenForSettingChangesV3<double, geodeExecFunction7<(anonymous namespace)::ExecFuncUnique7>(geode::ModStateEvent*)::{lambda(double)#2}>(std::__ndk1::basic_string_view<char, std::__ndk1::char_traits<char> >, geodeExecFunction7<(anonymous namespace)::ExecFuncUnique7>(geode::ModStateEvent*)::{lambda(double)#2}&&, geode::Mod*)::{lambda(std::__ndk1::shared_ptr<geode::SettingV3>)#1}, std::__ndk1::allocator<geode::listenForSettingChangesV3<double, geodeExecFunction7<(anonymous namespace)::ExecFuncUnique7>(geode::ModStateEvent*)::{lambda(double)#2}>(std::__ndk1::basic_string_view<char, std::__ndk1::char_traits<char> >, geodeExecFunction7<(anonymous namespace)::ExecFuncUnique7>(geode::ModStateEvent*)::{lambda(double)#2}&&, geode::Mod*)::{lambda(std::__ndk1::shared_ptr<geode::SettingV3>)#1}>, void (std::__ndk1::shared_ptr<geode::SettingV3>)>::__clone() const
PUBLIC 25384 0 std::__ndk1::__function::__func<geode::listenForSettingChangesV3<double, geodeExecFunction7<(anonymous namespace)::ExecFuncUnique7>(geode::ModStateEvent*)::{lambda(double)#2}>(std::__ndk1::basic_string_view<char, std::__ndk1::char_traits<char> >, geodeExecFunction7<(anonymous namespace)::ExecFuncUnique7>(geode::ModStateEvent*)::{lambda(double)#2}&&, geode::Mod*)::{lambda(std::__ndk1::shared_ptr<geode::SettingV3>)#1}, std::__ndk1::allocator<geode::listenForSettingChangesV3<double, geodeExecFunction7<(anonymous namespace)::ExecFuncUnique7>(geode::ModStateEvent*)::{lambda(double)#2}>(std::__ndk1::basic_string_view<char, std::__ndk1::char_traits<char> >, geodeExecFunction7<(anonymous namespace)::ExecFuncUnique7>(geode::ModStateEvent*)::{lambda(double)#2}&&, geode::Mod*)::{lambda(std::__ndk1::shared_ptr<geode::SettingV3>)#1}>, void (std::__ndk1::shared_ptr<geode::SettingV3>)>::__clone(std::__ndk1::__function::__base<void (std::__ndk1::shared_ptr<geode::SettingV3>)>*) const
PUBLIC 2539c 0 std::__ndk1::__function::__func<geode::listenForSettingChangesV3<double, geodeExecFunction7<(anonymous namespace)::ExecFuncUnique7>(geode::ModStateEvent*)::{lambda(double)#2}>(std::__ndk1::basic_string_view<char, std::__ndk1::char_traits<char> >, geodeExecFunction7<(anonymous namespace)::ExecFuncUnique7>(geode::ModStateEvent*)::{lambda(double)#2}&&, geode::Mod*)::{lambda(std::__ndk1::shared_ptr<geode::SettingV3>)#1}, std::__ndk1::allocator<geode::listenForSettingChangesV3<double, geodeExecFunction7<(anonymous namespace)::ExecFuncUnique7>(geode::ModStateEvent*)::{lambda(double)#2}>(std::__ndk1::basic_string_view<char, std::__ndk1::char_traits<char> >, geodeExecFunction7<(anonymous namespace)::ExecFuncUnique7>(geode::ModStateEvent*)::{lambda(double)#2}&&, geode::Mod*)::{lambda(std::__ndk1::shared_ptr<geode::SettingV3>)#1}>, void (std::__ndk1::shared_ptr<geode::SettingV3>)>::destroy()
PUBLIC 253a0 0 std::__ndk1::__function::__func<geode::listenForSettingChangesV3<double, geodeExecFunction7<(anonymous namespace)::ExecFuncUnique7>(geode::ModStateEvent*)::{lambda(double)#2}>(std::__ndk1::basic_string_view<char, std::__ndk1::char_traits<char> >, geodeExecFunction7<(anonymous namespace)::ExecFuncUnique7>(geode::ModStateEvent*)::{lambda(double)#2}&&, geode::Mod*)::{lambda(std::__ndk1::shared_ptr<geode::SettingV3>)#1}, std::__ndk1::allocator<geode::listenForSettingChangesV3<double, geodeExecFunction7<(anonymous namespace)::ExecFuncUnique7>(geode::ModStateEvent*)::{lambda(double)#2}>(std::__ndk1::basic_string_view<char, std::__ndk1::char_traits<char> >, geodeExecFunction7<(anonymous namespace)::ExecFuncUnique7>(geode::ModStateEvent*)::{lambda(double)#2}&&, geode::Mod*)::{lambda(std::__ndk1::shared_ptr<geode::SettingV3>)#1}>, void (std::__ndk1::shared_ptr<geode::SettingV3>)>::destroy_deallocate()
PUBLIC 253a4 0 std::__ndk1::__function::__func<geode::listenForSettingChangesV3<double, geodeExecFunction7<(anonymous namespace)::ExecFuncUnique7>(geode::ModStateEvent*)::{lambda(double)#2}>(std::__ndk1::basic_string_view<char, std::__ndk1::char_traits<char> >, geodeExecFunction7<(anonymous namespace)::ExecFuncUnique7>(geode::ModStateEvent*)::{lambda(double)#2}&&, geode::Mod*)::{lambda(std::__ndk1::shared_ptr<geode::SettingV3>)#1}, std::__ndk1::allocator<geode::listenForSettingChangesV3<double, geodeExecFunction7<(anonymous namespace)::ExecFuncUnique7>(geode::ModStateEvent*)::{lambda(double)#2}>(std::__ndk1::basic_string_view<char, std::__ndk1::char_traits<char> >, geodeExecFunction7<(anonymous namespace)::ExecFuncUnique7>(geode::ModStateEvent*)::{lambda(double)#2}&&, geode::Mod*)::{lambda(std::__ndk1::shared_ptr<geode::SettingV3>)#1}>, void (std::__ndk1::shared_ptr<geode::SettingV3>)>::operator()(std::__ndk1::shared_ptr<geode::SettingV3>&&)
PUBLIC 254e0 0 std::__ndk1::__function::__func<geode::listenForSettingChangesV3<double, geodeExecFunction7<(anonymous namespace)::ExecFuncUnique7>(geode::ModStateEvent*)::{lambda(double)#2}>(std::__ndk1::basic_string_view<char, std::__ndk1::char_traits<char> >, geodeExecFunction7<(anonymous namespace)::ExecFuncUnique7>(geode::ModStateEvent*)::{lambda(double)#2}&&, geode::Mod*)::{lambda(std::__ndk1::shared_ptr<geode::SettingV3>)#1}, std::__ndk1::allocator<geode::listenForSettingChangesV3<double, geodeExecFunction7<(anonymous namespace)::ExecFuncUnique7>(geode::ModStateEvent*)::{lambda(double)#2}>(std::__ndk1::basic_string_view<char, std::__ndk1::char_traits<char> >, geodeExecFunction7<(anonymous namespace)::ExecFuncUnique7>(geode::ModStateEvent*)::{lambda(double)#2}&&, geode::Mod*)::{lambda(std::__ndk1::shared_ptr<geode::SettingV3>)#1}>, void (std::__ndk1::shared_ptr<geode::SettingV3>)>::target(std::type_info const&) const
PUBLIC 254fc 0 std::__ndk1::__function::__func<geode::listenForSettingChangesV3<double, geodeExecFunction7<(anonymous namespace)::ExecFuncUnique7>(geode::ModStateEvent*)::{lambda(double)#2}>(std::__ndk1::basic_string_view<char, std::__ndk1::char_traits<char> >, geodeExecFunction7<(anonymous namespace)::ExecFuncUnique7>(geode::ModStateEvent*)::{lambda(double)#2}&&, geode::Mod*)::{lambda(std::__ndk1::shared_ptr<geode::SettingV3>)#1}, std::__ndk1::allocator<geode::listenForSettingChangesV3<double, geodeExecFunction7<(anonymous namespace)::ExecFuncUnique7>(geode::ModStateEvent*)::{lambda(double)#2}>(std::__ndk1::basic_string_view<char, std::__ndk1::char_traits<char> >, geodeExecFunction7<(anonymous namespace)::ExecFuncUnique7>(geode::ModStateEvent*)::{lambda(double)#2}&&, geode::Mod*)::{lambda(std::__ndk1::shared_ptr<geode::SettingV3>)#1}>, void (std::__ndk1::shared_ptr<geode::SettingV3>)>::target_type() const
PUBLIC 25508 0 std::__ndk1::__function::__func<geode::listenForSettingChangesV3<long, geodeExecFunction7<(anonymous namespace)::ExecFuncUnique7>(geode::ModStateEvent*)::{lambda(long)#1}>(std::__ndk1::basic_string_view<char, std::__ndk1::char_traits<char> >, geodeExecFunction7<(anonymous namespace)::ExecFuncUnique7>(geode::ModStateEvent*)::{lambda(long)#1}&&, geode::Mod*)::{lambda(std::__ndk1::shared_ptr<geode::SettingV3>)#1}, std::__ndk1::allocator<geode::listenForSettingChangesV3<long, geodeExecFunction7<(anonymous namespace)::ExecFuncUnique7>(geode::ModStateEvent*)::{lambda(long)#1}>(std::__ndk1::basic_string_view<char, std::__ndk1::char_traits<char> >, geodeExecFunction7<(anonymous namespace)::ExecFuncUnique7>(geode::ModStateEvent*)::{lambda(long)#1}&&, geode::Mod*)::{lambda(std::__ndk1::shared_ptr<geode::SettingV3>)#1}>, void (std::__ndk1::shared_ptr<geode::SettingV3>)>::~__func()
PUBLIC 2550c 0 std::__ndk1::__function::__func<geode::listenForSettingChangesV3<long, geodeExecFunction7<(anonymous namespace)::ExecFuncUnique7>(geode::ModStateEvent*)::{lambda(long)#1}>(std::__ndk1::basic_string_view<char, std::__ndk1::char_traits<char> >, geodeExecFunction7<(anonymous namespace)::ExecFuncUnique7>(geode::ModStateEvent*)::{lambda(long)#1}&&, geode::Mod*)::{lambda(std::__ndk1::shared_ptr<geode::SettingV3>)#1}, std::__ndk1::allocator<geode::listenForSettingChangesV3<long, geodeExecFunction7<(anonymous namespace)::ExecFuncUnique7>(geode::ModStateEvent*)::{lambda(long)#1}>(std::__ndk1::basic_string_view<char, std::__ndk1::char_traits<char> >, geodeExecFunction7<(anonymous namespace)::ExecFuncUnique7>(geode::ModStateEvent*)::{lambda(long)#1}&&, geode::Mod*)::{lambda(std::__ndk1::shared_ptr<geode::SettingV3>)#1}>, void (std::__ndk1::shared_ptr<geode::SettingV3>)>::__clone() const
PUBLIC 25544 0 std::__ndk1::__function::__func<geode::listenForSettingChangesV3<long, geodeExecFunction7<(anonymous namespace)::ExecFuncUnique7>(geode::ModStateEvent*)::{lambda(long)#1}>(std::__ndk1::basic_string_view<char, std::__ndk1::char_traits<char> >, geodeExecFunction7<(anonymous namespace)::ExecFuncUnique7>(geode::ModStateEvent*)::{lambda(long)#1}&&, geode::Mod*)::{lambda(std::__ndk1::shared_ptr<geode::SettingV3>)#1}, std::__ndk1::allocator<geode::listenForSettingChangesV3<long, geodeExecFunction7<(anonymous namespace)::ExecFuncUnique7>(geode::ModStateEvent*)::{lambda(long)#1}>(std::__ndk1::basic_string_view<char, std::__ndk1::char_traits<char> >, geodeExecFunction7<(anonymous namespace)::ExecFuncUnique7>(geode::ModStateEvent*)::{lambda(long)#1}&&, geode::Mod*)::{lambda(std::__ndk1::shared_ptr<geode::SettingV3>)#1}>, void (std::__ndk1::shared_ptr<geode::SettingV3>)>::__clone(std::__ndk1::__function::__base<void (std::__ndk1::shared_ptr<geode::SettingV3>)>*) const
PUBLIC 2555c 0 std::__ndk1::__function::__func<geode::listenForSettingChangesV3<long, geodeExecFunction7<(anonymous namespace)::ExecFuncUnique7>(geode::ModStateEvent*)::{lambda(long)#1}>(std::__ndk1::basic_string_view<char, std::__ndk1::char_traits<char> >, geodeExecFunction7<(anonymous namespace)::ExecFuncUnique7>(geode::ModStateEvent*)::{lambda(long)#1}&&, geode::Mod*)::{lambda(std::__ndk1::shared_ptr<geode::SettingV3>)#1}, std::__ndk1::allocator<geode::listenForSettingChangesV3<long, geodeExecFunction7<(anonymous namespace)::ExecFuncUnique7>(geode::ModStateEvent*)::{lambda(long)#1}>(std::__ndk1::basic_string_view<char, std::__ndk1::char_traits<char> >, geodeExecFunction7<(anonymous namespace)::ExecFuncUnique7>(geode::ModStateEvent*)::{lambda(long)#1}&&, geode::Mod*)::{lambda(std::__ndk1::shared_ptr<geode::SettingV3>)#1}>, void (std::__ndk1::shared_ptr<geode::SettingV3>)>::destroy()
PUBLIC 25560 0 std::__ndk1::__function::__func<geode::listenForSettingChangesV3<long, geodeExecFunction7<(anonymous namespace)::ExecFuncUnique7>(geode::ModStateEvent*)::{lambda(long)#1}>(std::__ndk1::basic_string_view<char, std::__ndk1::char_traits<char> >, geodeExecFunction7<(anonymous namespace)::ExecFuncUnique7>(geode::ModStateEvent*)::{lambda(long)#1}&&, geode::Mod*)::{lambda(std::__ndk1::shared_ptr<geode::SettingV3>)#1}, std::__ndk1::allocator<geode::listenForSettingChangesV3<long, geodeExecFunction7<(anonymous namespace)::ExecFuncUnique7>(geode::ModStateEvent*)::{lambda(long)#1}>(std::__ndk1::basic_string_view<char, std::__ndk1::char_traits<char> >, geodeExecFunction7<(anonymous namespace)::ExecFuncUnique7>(geode::ModStateEvent*)::{lambda(long)#1}&&, geode::Mod*)::{lambda(std::__ndk1::shared_ptr<geode::SettingV3>)#1}>, void (std::__ndk1::shared_ptr<geode::SettingV3>)>::destroy_deallocate()
PUBLIC 25564 0 std::__ndk1::__function::__func<geode::listenForSettingChangesV3<long, geodeExecFunction7<(anonymous namespace)::ExecFuncUnique7>(geode::ModStateEvent*)::{lambda(long)#1}>(std::__ndk1::basic_string_view<char, std::__ndk1::char_traits<char> >, geodeExecFunction7<(anonymous namespace)::ExecFuncUnique7>(geode::ModStateEvent*)::{lambda(long)#1}&&, geode::Mod*)::{lambda(std::__ndk1::shared_ptr<geode::SettingV3>)#1}, std::__ndk1::allocator<geode::listenForSettingChangesV3<long, geodeExecFunction7<(anonymous namespace)::ExecFuncUnique7>(geode::ModStateEvent*)::{lambda(long)#1}>(std::__ndk1::basic_string_view<char, std::__ndk1::char_traits<char> >, geodeExecFunction7<(anonymous namespace)::ExecFuncUnique7>(geode::ModStateEvent*)::{lambda(long)#1}&&, geode::Mod*)::{lambda(std::__ndk1::shared_ptr<geode::SettingV3>)#1}>, void (std::__ndk1::shared_ptr<geode::SettingV3>)>::operator()(std::__ndk1::shared_ptr<geode::SettingV3>&&)
PUBLIC 25694 0 std::__ndk1::__function::__func<geode::listenForSettingChangesV3<long, geodeExecFunction7<(anonymous namespace)::ExecFuncUnique7>(geode::ModStateEvent*)::{lambda(long)#1}>(std::__ndk1::basic_string_view<char, std::__ndk1::char_traits<char> >, geodeExecFunction7<(anonymous namespace)::ExecFuncUnique7>(geode::ModStateEvent*)::{lambda(long)#1}&&, geode::Mod*)::{lambda(std::__ndk1::shared_ptr<geode::SettingV3>)#1}, std::__ndk1::allocator<geode::listenForSettingChangesV3<long, geodeExecFunction7<(anonymous namespace)::ExecFuncUnique7>(geode::ModStateEvent*)::{lambda(long)#1}>(std::__ndk1::basic_string_view<char, std::__ndk1::char_traits<char> >, geodeExecFunction7<(anonymous namespace)::ExecFuncUnique7>(geode::ModStateEvent*)::{lambda(long)#1}&&, geode::Mod*)::{lambda(std::__ndk1::shared_ptr<geode::SettingV3>)#1}>, void (std::__ndk1::shared_ptr<geode::SettingV3>)>::target(std::type_info const&) const
PUBLIC 256b0 0 std::__ndk1::__function::__func<geode::listenForSettingChangesV3<long, geodeExecFunction7<(anonymous namespace)::ExecFuncUnique7>(geode::ModStateEvent*)::{lambda(long)#1}>(std::__ndk1::basic_string_view<char, std::__ndk1::char_traits<char> >, geodeExecFunction7<(anonymous namespace)::ExecFuncUnique7>(geode::ModStateEvent*)::{lambda(long)#1}&&, geode::Mod*)::{lambda(std::__ndk1::shared_ptr<geode::SettingV3>)#1}, std::__ndk1::allocator<geode::listenForSettingChangesV3<long, geodeExecFunction7<(anonymous namespace)::ExecFuncUnique7>(geode::ModStateEvent*)::{lambda(long)#1}>(std::__ndk1::basic_string_view<char, std::__ndk1::char_traits<char> >, geodeExecFunction7<(anonymous namespace)::ExecFuncUnique7>(geode::ModStateEvent*)::{lambda(long)#1}&&, geode::Mod*)::{lambda(std::__ndk1::shared_ptr<geode::SettingV3>)#1}>, void (std::__ndk1::shared_ptr<geode::SettingV3>)>::target_type() const
PUBLIC 256bc 0 std::__ndk1::shared_ptr<geode::IntSettingV3>::~shared_ptr[abi:ne180000]()
PUBLIC 2570c 0 std::__ndk1::__function::__func<geode::listenForSettingChangesV3<long, geodeExecFunction7<(anonymous namespace)::ExecFuncUnique7>(geode::ModStateEvent*)::{lambda(long)#2}>(std::__ndk1::basic_string_view<char, std::__ndk1::char_traits<char> >, geodeExecFunction7<(anonymous namespace)::ExecFuncUnique7>(geode::ModStateEvent*)::{lambda(long)#2}&&, geode::Mod*)::{lambda(std::__ndk1::shared_ptr<geode::SettingV3>)#1}, std::__ndk1::allocator<geode::listenForSettingChangesV3<long, geodeExecFunction7<(anonymous namespace)::ExecFuncUnique7>(geode::ModStateEvent*)::{lambda(long)#2}>(std::__ndk1::basic_string_view<char, std::__ndk1::char_traits<char> >, geodeExecFunction7<(anonymous namespace)::ExecFuncUnique7>(geode::ModStateEvent*)::{lambda(long)#2}&&, geode::Mod*)::{lambda(std::__ndk1::shared_ptr<geode::SettingV3>)#1}>, void (std::__ndk1::shared_ptr<geode::SettingV3>)>::~__func()
PUBLIC 25710 0 std::__ndk1::__function::__func<geode::listenForSettingChangesV3<long, geodeExecFunction7<(anonymous namespace)::ExecFuncUnique7>(geode::ModStateEvent*)::{lambda(long)#2}>(std::__ndk1::basic_string_view<char, std::__ndk1::char_traits<char> >, geodeExecFunction7<(anonymous namespace)::ExecFuncUnique7>(geode::ModStateEvent*)::{lambda(long)#2}&&, geode::Mod*)::{lambda(std::__ndk1::shared_ptr<geode::SettingV3>)#1}, std::__ndk1::allocator<geode::listenForSettingChangesV3<long, geodeExecFunction7<(anonymous namespace)::ExecFuncUnique7>(geode::ModStateEvent*)::{lambda(long)#2}>(std::__ndk1::basic_string_view<char, std::__ndk1::char_traits<char> >, geodeExecFunction7<(anonymous namespace)::ExecFuncUnique7>(geode::ModStateEvent*)::{lambda(long)#2}&&, geode::Mod*)::{lambda(std::__ndk1::shared_ptr<geode::SettingV3>)#1}>, void (std::__ndk1::shared_ptr<geode::SettingV3>)>::__clone() const
PUBLIC 25748 0 std::__ndk1::__function::__func<geode::listenForSettingChangesV3<long, geodeExecFunction7<(anonymous namespace)::ExecFuncUnique7>(geode::ModStateEvent*)::{lambda(long)#2}>(std::__ndk1::basic_string_view<char, std::__ndk1::char_traits<char> >, geodeExecFunction7<(anonymous namespace)::ExecFuncUnique7>(geode::ModStateEvent*)::{lambda(long)#2}&&, geode::Mod*)::{lambda(std::__ndk1::shared_ptr<geode::SettingV3>)#1}, std::__ndk1::allocator<geode::listenForSettingChangesV3<long, geodeExecFunction7<(anonymous namespace)::ExecFuncUnique7>(geode::ModStateEvent*)::{lambda(long)#2}>(std::__ndk1::basic_string_view<char, std::__ndk1::char_traits<char> >, geodeExecFunction7<(anonymous namespace)::ExecFuncUnique7>(geode::ModStateEvent*)::{lambda(long)#2}&&, geode::Mod*)::{lambda(std::__ndk1::shared_ptr<geode::SettingV3>)#1}>, void (std::__ndk1::shared_ptr<geode::SettingV3>)>::__clone(std::__ndk1::__function::__base<void (std::__ndk1::shared_ptr<geode::SettingV3>)>*) const
PUBLIC 25760 0 std::__ndk1::__function::__func<geode::listenForSettingChangesV3<long, geodeExecFunction7<(anonymous namespace)::ExecFuncUnique7>(geode::ModStateEvent*)::{lambda(long)#2}>(std::__ndk1::basic_string_view<char, std::__ndk1::char_traits<char> >, geodeExecFunction7<(anonymous namespace)::ExecFuncUnique7>(geode::ModStateEvent*)::{lambda(long)#2}&&, geode::Mod*)::{lambda(std::__ndk1::shared_ptr<geode::SettingV3>)#1}, std::__ndk1::allocator<geode::listenForSettingChangesV3<long, geodeExecFunction7<(anonymous namespace)::ExecFuncUnique7>(geode::ModStateEvent*)::{lambda(long)#2}>(std::__ndk1::basic_string_view<char, std::__ndk1::char_traits<char> >, geodeExecFunction7<(anonymous namespace)::ExecFuncUnique7>(geode::ModStateEvent*)::{lambda(long)#2}&&, geode::Mod*)::{lambda(std::__ndk1::shared_ptr<geode::SettingV3>)#1}>, void (std::__ndk1::shared_ptr<geode::SettingV3>)>::destroy()
PUBLIC 25764 0 std::__ndk1::__function::__func<geode::listenForSettingChangesV3<long, geodeExecFunction7<(anonymous namespace)::ExecFuncUnique7>(geode::ModStateEvent*)::{lambda(long)#2}>(std::__ndk1::basic_string_view<char, std::__ndk1::char_traits<char> >, geodeExecFunction7<(anonymous namespace)::ExecFuncUnique7>(geode::ModStateEvent*)::{lambda(long)#2}&&, geode::Mod*)::{lambda(std::__ndk1::shared_ptr<geode::SettingV3>)#1}, std::__ndk1::allocator<geode::listenForSettingChangesV3<long, geodeExecFunction7<(anonymous namespace)::ExecFuncUnique7>(geode::ModStateEvent*)::{lambda(long)#2}>(std::__ndk1::basic_string_view<char, std::__ndk1::char_traits<char> >, geodeExecFunction7<(anonymous namespace)::ExecFuncUnique7>(geode::ModStateEvent*)::{lambda(long)#2}&&, geode::Mod*)::{lambda(std::__ndk1::shared_ptr<geode::SettingV3>)#1}>, void (std::__ndk1::shared_ptr<geode::SettingV3>)>::destroy_deallocate()
PUBLIC 25768 0 std::__ndk1::__function::__func<geode::listenForSettingChangesV3<long, geodeExecFunction7<(anonymous namespace)::ExecFuncUnique7>(geode::ModStateEvent*)::{lambda(long)#2}>(std::__ndk1::basic_string_view<char, std::__ndk1::char_traits<char> >, geodeExecFunction7<(anonymous namespace)::ExecFuncUnique7>(geode::ModStateEvent*)::{lambda(long)#2}&&, geode::Mod*)::{lambda(std::__ndk1::shared_ptr<geode::SettingV3>)#1}, std::__ndk1::allocator<geode::listenForSettingChangesV3<long, geodeExecFunction7<(anonymous namespace)::ExecFuncUnique7>(geode::ModStateEvent*)::{lambda(long)#2}>(std::__ndk1::basic_string_view<char, std::__ndk1::char_traits<char> >, geodeExecFunction7<(anonymous namespace)::ExecFuncUnique7>(geode::ModStateEvent*)::{lambda(long)#2}&&, geode::Mod*)::{lambda(std::__ndk1::shared_ptr<geode::SettingV3>)#1}>, void (std::__ndk1::shared_ptr<geode::SettingV3>)>::operator()(std::__ndk1::shared_ptr<geode::SettingV3>&&)
PUBLIC 25adc 0 std::__ndk1::__function::__func<geode::listenForSettingChangesV3<long, geodeExecFunction7<(anonymous namespace)::ExecFuncUnique7>(geode::ModStateEvent*)::{lambda(long)#2}>(std::__ndk1::basic_string_view<char, std::__ndk1::char_traits<char> >, geodeExecFunction7<(anonymous namespace)::ExecFuncUnique7>(geode::ModStateEvent*)::{lambda(long)#2}&&, geode::Mod*)::{lambda(std::__ndk1::shared_ptr<geode::SettingV3>)#1}, std::__ndk1::allocator<geode::listenForSettingChangesV3<long, geodeExecFunction7<(anonymous namespace)::ExecFuncUnique7>(geode::ModStateEvent*)::{lambda(long)#2}>(std::__ndk1::basic_string_view<char, std::__ndk1::char_traits<char> >, geodeExecFunction7<(anonymous namespace)::ExecFuncUnique7>(geode::ModStateEvent*)::{lambda(long)#2}&&, geode::Mod*)::{lambda(std::__ndk1::shared_ptr<geode::SettingV3>)#1}>, void (std::__ndk1::shared_ptr<geode::SettingV3>)>::target(std::type_info const&) const
PUBLIC 25af8 0 std::__ndk1::__function::__func<geode::listenForSettingChangesV3<long, geodeExecFunction7<(anonymous namespace)::ExecFuncUnique7>(geode::ModStateEvent*)::{lambda(long)#2}>(std::__ndk1::basic_string_view<char, std::__ndk1::char_traits<char> >, geodeExecFunction7<(anonymous namespace)::ExecFuncUnique7>(geode::ModStateEvent*)::{lambda(long)#2}&&, geode::Mod*)::{lambda(std::__ndk1::shared_ptr<geode::SettingV3>)#1}, std::__ndk1::allocator<geode::listenForSettingChangesV3<long, geodeExecFunction7<(anonymous namespace)::ExecFuncUnique7>(geode::ModStateEvent*)::{lambda(long)#2}>(std::__ndk1::basic_string_view<char, std::__ndk1::char_traits<char> >, geodeExecFunction7<(anonymous namespace)::ExecFuncUnique7>(geode::ModStateEvent*)::{lambda(long)#2}&&, geode::Mod*)::{lambda(std::__ndk1::shared_ptr<geode::SettingV3>)#1}>, void (std::__ndk1::shared_ptr<geode::SettingV3>)>::target_type() const
PUBLIC 25b04 0 std::__ndk1::__function::__func<geode::listenForSettingChangesV3<double, geodeExecFunction7<(anonymous namespace)::ExecFuncUnique7>(geode::ModStateEvent*)::{lambda(double)#3}>(std::__ndk1::basic_string_view<char, std::__ndk1::char_traits<char> >, geodeExecFunction7<(anonymous namespace)::ExecFuncUnique7>(geode::ModStateEvent*)::{lambda(double)#3}&&, geode::Mod*)::{lambda(std::__ndk1::shared_ptr<geode::SettingV3>)#1}, std::__ndk1::allocator<geode::listenForSettingChangesV3<double, geodeExecFunction7<(anonymous namespace)::ExecFuncUnique7>(geode::ModStateEvent*)::{lambda(double)#3}>(std::__ndk1::basic_string_view<char, std::__ndk1::char_traits<char> >, geodeExecFunction7<(anonymous namespace)::ExecFuncUnique7>(geode::ModStateEvent*)::{lambda(double)#3}&&, geode::Mod*)::{lambda(std::__ndk1::shared_ptr<geode::SettingV3>)#1}>, void (std::__ndk1::shared_ptr<geode::SettingV3>)>::~__func()
PUBLIC 25b08 0 std::__ndk1::__function::__func<geode::listenForSettingChangesV3<double, geodeExecFunction7<(anonymous namespace)::ExecFuncUnique7>(geode::ModStateEvent*)::{lambda(double)#3}>(std::__ndk1::basic_string_view<char, std::__ndk1::char_traits<char> >, geodeExecFunction7<(anonymous namespace)::ExecFuncUnique7>(geode::ModStateEvent*)::{lambda(double)#3}&&, geode::Mod*)::{lambda(std::__ndk1::shared_ptr<geode::SettingV3>)#1}, std::__ndk1::allocator<geode::listenForSettingChangesV3<double, geodeExecFunction7<(anonymous namespace)::ExecFuncUnique7>(geode::ModStateEvent*)::{lambda(double)#3}>(std::__ndk1::basic_string_view<char, std::__ndk1::char_traits<char> >, geodeExecFunction7<(anonymous namespace)::ExecFuncUnique7>(geode::ModStateEvent*)::{lambda(double)#3}&&, geode::Mod*)::{lambda(std::__ndk1::shared_ptr<geode::SettingV3>)#1}>, void (std::__ndk1::shared_ptr<geode::SettingV3>)>::__clone() const
PUBLIC 25b40 0 std::__ndk1::__function::__func<geode::listenForSettingChangesV3<double, geodeExecFunction7<(anonymous namespace)::ExecFuncUnique7>(geode::ModStateEvent*)::{lambda(double)#3}>(std::__ndk1::basic_string_view<char, std::__ndk1::char_traits<char> >, geodeExecFunction7<(anonymous namespace)::ExecFuncUnique7>(geode::ModStateEvent*)::{lambda(double)#3}&&, geode::Mod*)::{lambda(std::__ndk1::shared_ptr<geode::SettingV3>)#1}, std::__ndk1::allocator<geode::listenForSettingChangesV3<double, geodeExecFunction7<(anonymous namespace)::ExecFuncUnique7>(geode::ModStateEvent*)::{lambda(double)#3}>(std::__ndk1::basic_string_view<char, std::__ndk1::char_traits<char> >, geodeExecFunction7<(anonymous namespace)::ExecFuncUnique7>(geode::ModStateEvent*)::{lambda(double)#3}&&, geode::Mod*)::{lambda(std::__ndk1::shared_ptr<geode::SettingV3>)#1}>, void (std::__ndk1::shared_ptr<geode::SettingV3>)>::__clone(std::__ndk1::__function::__base<void (std::__ndk1::shared_ptr<geode::SettingV3>)>*) const
PUBLIC 25b58 0 std::__ndk1::__function::__func<geode::listenForSettingChangesV3<double, geodeExecFunction7<(anonymous namespace)::ExecFuncUnique7>(geode::ModStateEvent*)::{lambda(double)#3}>(std::__ndk1::basic_string_view<char, std::__ndk1::char_traits<char> >, geodeExecFunction7<(anonymous namespace)::ExecFuncUnique7>(geode::ModStateEvent*)::{lambda(double)#3}&&, geode::Mod*)::{lambda(std::__ndk1::shared_ptr<geode::SettingV3>)#1}, std::__ndk1::allocator<geode::listenForSettingChangesV3<double, geodeExecFunction7<(anonymous namespace)::ExecFuncUnique7>(geode::ModStateEvent*)::{lambda(double)#3}>(std::__ndk1::basic_string_view<char, std::__ndk1::char_traits<char> >, geodeExecFunction7<(anonymous namespace)::ExecFuncUnique7>(geode::ModStateEvent*)::{lambda(double)#3}&&, geode::Mod*)::{lambda(std::__ndk1::shared_ptr<geode::SettingV3>)#1}>, void (std::__ndk1::shared_ptr<geode::SettingV3>)>::destroy()
PUBLIC 25b5c 0 std::__ndk1::__function::__func<geode::listenForSettingChangesV3<double, geodeExecFunction7<(anonymous namespace)::ExecFuncUnique7>(geode::ModStateEvent*)::{lambda(double)#3}>(std::__ndk1::basic_string_view<char, std::__ndk1::char_traits<char> >, geodeExecFunction7<(anonymous namespace)::ExecFuncUnique7>(geode::ModStateEvent*)::{lambda(double)#3}&&, geode::Mod*)::{lambda(std::__ndk1::shared_ptr<geode::SettingV3>)#1}, std::__ndk1::allocator<geode::listenForSettingChangesV3<double, geodeExecFunction7<(anonymous namespace)::ExecFuncUnique7>(geode::ModStateEvent*)::{lambda(double)#3}>(std::__ndk1::basic_string_view<char, std::__ndk1::char_traits<char> >, geodeExecFunction7<(anonymous namespace)::ExecFuncUnique7>(geode::ModStateEvent*)::{lambda(double)#3}&&, geode::Mod*)::{lambda(std::__ndk1::shared_ptr<geode::SettingV3>)#1}>, void (std::__ndk1::shared_ptr<geode::SettingV3>)>::destroy_deallocate()
PUBLIC 25b60 0 std::__ndk1::__function::__func<geode::listenForSettingChangesV3<double, geodeExecFunction7<(anonymous namespace)::ExecFuncUnique7>(geode::ModStateEvent*)::{lambda(double)#3}>(std::__ndk1::basic_string_view<char, std::__ndk1::char_traits<char> >, geodeExecFunction7<(anonymous namespace)::ExecFuncUnique7>(geode::ModStateEvent*)::{lambda(double)#3}&&, geode::Mod*)::{lambda(std::__ndk1::shared_ptr<geode::SettingV3>)#1}, std::__ndk1::allocator<geode::listenForSettingChangesV3<double, geodeExecFunction7<(anonymous namespace)::ExecFuncUnique7>(geode::ModStateEvent*)::{lambda(double)#3}>(std::__ndk1::basic_string_view<char, std::__ndk1::char_traits<char> >, geodeExecFunction7<(anonymous namespace)::ExecFuncUnique7>(geode::ModStateEvent*)::{lambda(double)#3}&&, geode::Mod*)::{lambda(std::__ndk1::shared_ptr<geode::SettingV3>)#1}>, void (std::__ndk1::shared_ptr<geode::SettingV3>)>::operator()(std::__ndk1::shared_ptr<geode::SettingV3>&&)
PUBLIC 25d08 0 std::__ndk1::__function::__func<geode::listenForSettingChangesV3<double, geodeExecFunction7<(anonymous namespace)::ExecFuncUnique7>(geode::ModStateEvent*)::{lambda(double)#3}>(std::__ndk1::basic_string_view<char, std::__ndk1::char_traits<char> >, geodeExecFunction7<(anonymous namespace)::ExecFuncUnique7>(geode::ModStateEvent*)::{lambda(double)#3}&&, geode::Mod*)::{lambda(std::__ndk1::shared_ptr<geode::SettingV3>)#1}, std::__ndk1::allocator<geode::listenForSettingChangesV3<double, geodeExecFunction7<(anonymous namespace)::ExecFuncUnique7>(geode::ModStateEvent*)::{lambda(double)#3}>(std::__ndk1::basic_string_view<char, std::__ndk1::char_traits<char> >, geodeExecFunction7<(anonymous namespace)::ExecFuncUnique7>(geode::ModStateEvent*)::{lambda(double)#3}&&, geode::Mod*)::{lambda(std::__ndk1::shared_ptr<geode::SettingV3>)#1}>, void (std::__ndk1::shared_ptr<geode::SettingV3>)>::target(std::type_info const&) const
PUBLIC 25d24 0 std::__ndk1::__function::__func<geode::listenForSettingChangesV3<double, geodeExecFunction7<(anonymous namespace)::ExecFuncUnique7>(geode::ModStateEvent*)::{lambda(double)#3}>(std::__ndk1::basic_string_view<char, std::__ndk1::char_traits<char> >, geodeExecFunction7<(anonymous namespace)::ExecFuncUnique7>(geode::ModStateEvent*)::{lambda(double)#3}&&, geode::Mod*)::{lambda(std::__ndk1::shared_ptr<geode::SettingV3>)#1}, std::__ndk1::allocator<geode::listenForSettingChangesV3<double, geodeExecFunction7<(anonymous namespace)::ExecFuncUnique7>(geode::ModStateEvent*)::{lambda(double)#3}>(std::__ndk1::basic_string_view<char, std::__ndk1::char_traits<char> >, geodeExecFunction7<(anonymous namespace)::ExecFuncUnique7>(geode::ModStateEvent*)::{lambda(double)#3}&&, geode::Mod*)::{lambda(std::__ndk1::shared_ptr<geode::SettingV3>)#1}>, void (std::__ndk1::shared_ptr<geode::SettingV3>)>::target_type() const
PUBLIC 25d30 0 std::__ndk1::__function::__func<geode::listenForSettingChangesV3<double, geodeExecFunction7<(anonymous namespace)::ExecFuncUnique7>(geode::ModStateEvent*)::{lambda(double)#4}>(std::__ndk1::basic_string_view<char, std::__ndk1::char_traits<char> >, geodeExecFunction7<(anonymous namespace)::ExecFuncUnique7>(geode::ModStateEvent*)::{lambda(double)#4}&&, geode::Mod*)::{lambda(std::__ndk1::shared_ptr<geode::SettingV3>)#1}, std::__ndk1::allocator<geode::listenForSettingChangesV3<double, geodeExecFunction7<(anonymous namespace)::ExecFuncUnique7>(geode::ModStateEvent*)::{lambda(double)#4}>(std::__ndk1::basic_string_view<char, std::__ndk1::char_traits<char> >, geodeExecFunction7<(anonymous namespace)::ExecFuncUnique7>(geode::ModStateEvent*)::{lambda(double)#4}&&, geode::Mod*)::{lambda(std::__ndk1::shared_ptr<geode::SettingV3>)#1}>, void (std::__ndk1::shared_ptr<geode::SettingV3>)>::~__func()
PUBLIC 25d34 0 std::__ndk1::__function::__func<geode::listenForSettingChangesV3<double, geodeExecFunction7<(anonymous namespace)::ExecFuncUnique7>(geode::ModStateEvent*)::{lambda(double)#4}>(std::__ndk1::basic_string_view<char, std::__ndk1::char_traits<char> >, geodeExecFunction7<(anonymous namespace)::ExecFuncUnique7>(geode::ModStateEvent*)::{lambda(double)#4}&&, geode::Mod*)::{lambda(std::__ndk1::shared_ptr<geode::SettingV3>)#1}, std::__ndk1::allocator<geode::listenForSettingChangesV3<double, geodeExecFunction7<(anonymous namespace)::ExecFuncUnique7>(geode::ModStateEvent*)::{lambda(double)#4}>(std::__ndk1::basic_string_view<char, std::__ndk1::char_traits<char> >, geodeExecFunction7<(anonymous namespace)::ExecFuncUnique7>(geode::ModStateEvent*)::{lambda(double)#4}&&, geode::Mod*)::{lambda(std::__ndk1::shared_ptr<geode::SettingV3>)#1}>, void (std::__ndk1::shared_ptr<geode::SettingV3>)>::__clone() const
PUBLIC 25d6c 0 std::__ndk1::__function::__func<geode::listenForSettingChangesV3<double, geodeExecFunction7<(anonymous namespace)::ExecFuncUnique7>(geode::ModStateEvent*)::{lambda(double)#4}>(std::__ndk1::basic_string_view<char, std::__ndk1::char_traits<char> >, geodeExecFunction7<(anonymous namespace)::ExecFuncUnique7>(geode::ModStateEvent*)::{lambda(double)#4}&&, geode::Mod*)::{lambda(std::__ndk1::shared_ptr<geode::SettingV3>)#1}, std::__ndk1::allocator<geode::listenForSettingChangesV3<double, geodeExecFunction7<(anonymous namespace)::ExecFuncUnique7>(geode::ModStateEvent*)::{lambda(double)#4}>(std::__ndk1::basic_string_view<char, std::__ndk1::char_traits<char> >, geodeExecFunction7<(anonymous namespace)::ExecFuncUnique7>(geode::ModStateEvent*)::{lambda(double)#4}&&, geode::Mod*)::{lambda(std::__ndk1::shared_ptr<geode::SettingV3>)#1}>, void (std::__ndk1::shared_ptr<geode::SettingV3>)>::__clone(std::__ndk1::__function::__base<void (std::__ndk1::shared_ptr<geode::SettingV3>)>*) const
PUBLIC 25d84 0 std::__ndk1::__function::__func<geode::listenForSettingChangesV3<double, geodeExecFunction7<(anonymous namespace)::ExecFuncUnique7>(geode::ModStateEvent*)::{lambda(double)#4}>(std::__ndk1::basic_string_view<char, std::__ndk1::char_traits<char> >, geodeExecFunction7<(anonymous namespace)::ExecFuncUnique7>(geode::ModStateEvent*)::{lambda(double)#4}&&, geode::Mod*)::{lambda(std::__ndk1::shared_ptr<geode::SettingV3>)#1}, std::__ndk1::allocator<geode::listenForSettingChangesV3<double, geodeExecFunction7<(anonymous namespace)::ExecFuncUnique7>(geode::ModStateEvent*)::{lambda(double)#4}>(std::__ndk1::basic_string_view<char, std::__ndk1::char_traits<char> >, geodeExecFunction7<(anonymous namespace)::ExecFuncUnique7>(geode::ModStateEvent*)::{lambda(double)#4}&&, geode::Mod*)::{lambda(std::__ndk1::shared_ptr<geode::SettingV3>)#1}>, void (std::__ndk1::shared_ptr<geode::SettingV3>)>::destroy()
PUBLIC 25d88 0 std::__ndk1::__function::__func<geode::listenForSettingChangesV3<double, geodeExecFunction7<(anonymous namespace)::ExecFuncUnique7>(geode::ModStateEvent*)::{lambda(double)#4}>(std::__ndk1::basic_string_view<char, std::__ndk1::char_traits<char> >, geodeExecFunction7<(anonymous namespace)::ExecFuncUnique7>(geode::ModStateEvent*)::{lambda(double)#4}&&, geode::Mod*)::{lambda(std::__ndk1::shared_ptr<geode::SettingV3>)#1}, std::__ndk1::allocator<geode::listenForSettingChangesV3<double, geodeExecFunction7<(anonymous namespace)::ExecFuncUnique7>(geode::ModStateEvent*)::{lambda(double)#4}>(std::__ndk1::basic_string_view<char, std::__ndk1::char_traits<char> >, geodeExecFunction7<(anonymous namespace)::ExecFuncUnique7>(geode::ModStateEvent*)::{lambda(double)#4}&&, geode::Mod*)::{lambda(std::__ndk1::shared_ptr<geode::SettingV3>)#1}>, void (std::__ndk1::shared_ptr<geode::SettingV3>)>::destroy_deallocate()
PUBLIC 25d8c 0 std::__ndk1::__function::__func<geode::listenForSettingChangesV3<double, geodeExecFunction7<(anonymous namespace)::ExecFuncUnique7>(geode::ModStateEvent*)::{lambda(double)#4}>(std::__ndk1::basic_string_view<char, std::__ndk1::char_traits<char> >, geodeExecFunction7<(anonymous namespace)::ExecFuncUnique7>(geode::ModStateEvent*)::{lambda(double)#4}&&, geode::Mod*)::{lambda(std::__ndk1::shared_ptr<geode::SettingV3>)#1}, std::__ndk1::allocator<geode::listenForSettingChangesV3<double, geodeExecFunction7<(anonymous namespace)::ExecFuncUnique7>(geode::ModStateEvent*)::{lambda(double)#4}>(std::__ndk1::basic_string_view<char, std::__ndk1::char_traits<char> >, geodeExecFunction7<(anonymous namespace)::ExecFuncUnique7>(geode::ModStateEvent*)::{lambda(double)#4}&&, geode::Mod*)::{lambda(std::__ndk1::shared_ptr<geode::SettingV3>)#1}>, void (std::__ndk1::shared_ptr<geode::SettingV3>)>::operator()(std::__ndk1::shared_ptr<geode::SettingV3>&&)
PUBLIC 25f34 0 std::__ndk1::__function::__func<geode::listenForSettingChangesV3<double, geodeExecFunction7<(anonymous namespace)::ExecFuncUnique7>(geode::ModStateEvent*)::{lambda(double)#4}>(std::__ndk1::basic_string_view<char, std::__ndk1::char_traits<char> >, geodeExecFunction7<(anonymous namespace)::ExecFuncUnique7>(geode::ModStateEvent*)::{lambda(double)#4}&&, geode::Mod*)::{lambda(std::__ndk1::shared_ptr<geode::SettingV3>)#1}, std::__ndk1::allocator<geode::listenForSettingChangesV3<double, geodeExecFunction7<(anonymous namespace)::ExecFuncUnique7>(geode::ModStateEvent*)::{lambda(double)#4}>(std::__ndk1::basic_string_view<char, std::__ndk1::char_traits<char> >, geodeExecFunction7<(anonymous namespace)::ExecFuncUnique7>(geode::ModStateEvent*)::{lambda(double)#4}&&, geode::Mod*)::{lambda(std::__ndk1::shared_ptr<geode::SettingV3>)#1}>, void (std::__ndk1::shared_ptr<geode::SettingV3>)>::target(std::type_info const&) const
PUBLIC 25f50 0 std::__ndk1::__function::__func<geode::listenForSettingChangesV3<double, geodeExecFunction7<(anonymous namespace)::ExecFuncUnique7>(geode::ModStateEvent*)::{lambda(double)#4}>(std::__ndk1::basic_string_view<char, std::__ndk1::char_traits<char> >, geodeExecFunction7<(anonymous namespace)::ExecFuncUnique7>(geode::ModStateEvent*)::{lambda(double)#4}&&, geode::Mod*)::{lambda(std::__ndk1::shared_ptr<geode::SettingV3>)#1}, std::__ndk1::allocator<geode::listenForSettingChangesV3<double, geodeExecFunction7<(anonymous namespace)::ExecFuncUnique7>(geode::ModStateEvent*)::{lambda(double)#4}>(std::__ndk1::basic_string_view<char, std::__ndk1::char_traits<char> >, geodeExecFunction7<(anonymous namespace)::ExecFuncUnique7>(geode::ModStateEvent*)::{lambda(double)#4}&&, geode::Mod*)::{lambda(std::__ndk1::shared_ptr<geode::SettingV3>)#1}>, void (std::__ndk1::shared_ptr<geode::SettingV3>)>::target_type() const
PUBLIC 25f5c 0 std::__ndk1::__function::__func<geode::listenForSettingChangesV3<bool, geodeExecFunction7<(anonymous namespace)::ExecFuncUnique7>(geode::ModStateEvent*)::{lambda(bool)#2}>(std::__ndk1::basic_string_view<char, std::__ndk1::char_traits<char> >, geodeExecFunction7<(anonymous namespace)::ExecFuncUnique7>(geode::ModStateEvent*)::{lambda(bool)#2}&&, geode::Mod*)::{lambda(std::__ndk1::shared_ptr<geode::SettingV3>)#1}, std::__ndk1::allocator<geode::listenForSettingChangesV3<bool, geodeExecFunction7<(anonymous namespace)::ExecFuncUnique7>(geode::ModStateEvent*)::{lambda(bool)#2}>(std::__ndk1::basic_string_view<char, std::__ndk1::char_traits<char> >, geodeExecFunction7<(anonymous namespace)::ExecFuncUnique7>(geode::ModStateEvent*)::{lambda(bool)#2}&&, geode::Mod*)::{lambda(std::__ndk1::shared_ptr<geode::SettingV3>)#1}>, void (std::__ndk1::shared_ptr<geode::SettingV3>)>::~__func()
PUBLIC 25f60 0 std::__ndk1::__function::__func<geode::listenForSettingChangesV3<bool, geodeExecFunction7<(anonymous namespace)::ExecFuncUnique7>(geode::ModStateEvent*)::{lambda(bool)#2}>(std::__ndk1::basic_string_view<char, std::__ndk1::char_traits<char> >, geodeExecFunction7<(anonymous namespace)::ExecFuncUnique7>(geode::ModStateEvent*)::{lambda(bool)#2}&&, geode::Mod*)::{lambda(std::__ndk1::shared_ptr<geode::SettingV3>)#1}, std::__ndk1::allocator<geode::listenForSettingChangesV3<bool, geodeExecFunction7<(anonymous namespace)::ExecFuncUnique7>(geode::ModStateEvent*)::{lambda(bool)#2}>(std::__ndk1::basic_string_view<char, std::__ndk1::char_traits<char> >, geodeExecFunction7<(anonymous namespace)::ExecFuncUnique7>(geode::ModStateEvent*)::{lambda(bool)#2}&&, geode::Mod*)::{lambda(std::__ndk1::shared_ptr<geode::SettingV3>)#1}>, void (std::__ndk1::shared_ptr<geode::SettingV3>)>::__clone() const
PUBLIC 25f98 0 std::__ndk1::__function::__func<geode::listenForSettingChangesV3<bool, geodeExecFunction7<(anonymous namespace)::ExecFuncUnique7>(geode::ModStateEvent*)::{lambda(bool)#2}>(std::__ndk1::basic_string_view<char, std::__ndk1::char_traits<char> >, geodeExecFunction7<(anonymous namespace)::ExecFuncUnique7>(geode::ModStateEvent*)::{lambda(bool)#2}&&, geode::Mod*)::{lambda(std::__ndk1::shared_ptr<geode::SettingV3>)#1}, std::__ndk1::allocator<geode::listenForSettingChangesV3<bool, geodeExecFunction7<(anonymous namespace)::ExecFuncUnique7>(geode::ModStateEvent*)::{lambda(bool)#2}>(std::__ndk1::basic_string_view<char, std::__ndk1::char_traits<char> >, geodeExecFunction7<(anonymous namespace)::ExecFuncUnique7>(geode::ModStateEvent*)::{lambda(bool)#2}&&, geode::Mod*)::{lambda(std::__ndk1::shared_ptr<geode::SettingV3>)#1}>, void (std::__ndk1::shared_ptr<geode::SettingV3>)>::__clone(std::__ndk1::__function::__base<void (std::__ndk1::shared_ptr<geode::SettingV3>)>*) const
PUBLIC 25fb0 0 std::__ndk1::__function::__func<geode::listenForSettingChangesV3<bool, geodeExecFunction7<(anonymous namespace)::ExecFuncUnique7>(geode::ModStateEvent*)::{lambda(bool)#2}>(std::__ndk1::basic_string_view<char, std::__ndk1::char_traits<char> >, geodeExecFunction7<(anonymous namespace)::ExecFuncUnique7>(geode::ModStateEvent*)::{lambda(bool)#2}&&, geode::Mod*)::{lambda(std::__ndk1::shared_ptr<geode::SettingV3>)#1}, std::__ndk1::allocator<geode::listenForSettingChangesV3<bool, geodeExecFunction7<(anonymous namespace)::ExecFuncUnique7>(geode::ModStateEvent*)::{lambda(bool)#2}>(std::__ndk1::basic_string_view<char, std::__ndk1::char_traits<char> >, geodeExecFunction7<(anonymous namespace)::ExecFuncUnique7>(geode::ModStateEvent*)::{lambda(bool)#2}&&, geode::Mod*)::{lambda(std::__ndk1::shared_ptr<geode::SettingV3>)#1}>, void (std::__ndk1::shared_ptr<geode::SettingV3>)>::destroy()
PUBLIC 25fb4 0 std::__ndk1::__function::__func<geode::listenForSettingChangesV3<bool, geodeExecFunction7<(anonymous namespace)::ExecFuncUnique7>(geode::ModStateEvent*)::{lambda(bool)#2}>(std::__ndk1::basic_string_view<char, std::__ndk1::char_traits<char> >, geodeExecFunction7<(anonymous namespace)::ExecFuncUnique7>(geode::ModStateEvent*)::{lambda(bool)#2}&&, geode::Mod*)::{lambda(std::__ndk1::shared_ptr<geode::SettingV3>)#1}, std::__ndk1::allocator<geode::listenForSettingChangesV3<bool, geodeExecFunction7<(anonymous namespace)::ExecFuncUnique7>(geode::ModStateEvent*)::{lambda(bool)#2}>(std::__ndk1::basic_string_view<char, std::__ndk1::char_traits<char> >, geodeExecFunction7<(anonymous namespace)::ExecFuncUnique7>(geode::ModStateEvent*)::{lambda(bool)#2}&&, geode::Mod*)::{lambda(std::__ndk1::shared_ptr<geode::SettingV3>)#1}>, void (std::__ndk1::shared_ptr<geode::SettingV3>)>::destroy_deallocate()
PUBLIC 25fb8 0 std::__ndk1::__function::__func<geode::listenForSettingChangesV3<bool, geodeExecFunction7<(anonymous namespace)::ExecFuncUnique7>(geode::ModStateEvent*)::{lambda(bool)#2}>(std::__ndk1::basic_string_view<char, std::__ndk1::char_traits<char> >, geodeExecFunction7<(anonymous namespace)::ExecFuncUnique7>(geode::ModStateEvent*)::{lambda(bool)#2}&&, geode::Mod*)::{lambda(std::__ndk1::shared_ptr<geode::SettingV3>)#1}, std::__ndk1::allocator<geode::listenForSettingChangesV3<bool, geodeExecFunction7<(anonymous namespace)::ExecFuncUnique7>(geode::ModStateEvent*)::{lambda(bool)#2}>(std::__ndk1::basic_string_view<char, std::__ndk1::char_traits<char> >, geodeExecFunction7<(anonymous namespace)::ExecFuncUnique7>(geode::ModStateEvent*)::{lambda(bool)#2}&&, geode::Mod*)::{lambda(std::__ndk1::shared_ptr<geode::SettingV3>)#1}>, void (std::__ndk1::shared_ptr<geode::SettingV3>)>::operator()(std::__ndk1::shared_ptr<geode::SettingV3>&&)
PUBLIC 26184 0 std::__ndk1::__function::__func<geode::listenForSettingChangesV3<bool, geodeExecFunction7<(anonymous namespace)::ExecFuncUnique7>(geode::ModStateEvent*)::{lambda(bool)#2}>(std::__ndk1::basic_string_view<char, std::__ndk1::char_traits<char> >, geodeExecFunction7<(anonymous namespace)::ExecFuncUnique7>(geode::ModStateEvent*)::{lambda(bool)#2}&&, geode::Mod*)::{lambda(std::__ndk1::shared_ptr<geode::SettingV3>)#1}, std::__ndk1::allocator<geode::listenForSettingChangesV3<bool, geodeExecFunction7<(anonymous namespace)::ExecFuncUnique7>(geode::ModStateEvent*)::{lambda(bool)#2}>(std::__ndk1::basic_string_view<char, std::__ndk1::char_traits<char> >, geodeExecFunction7<(anonymous namespace)::ExecFuncUnique7>(geode::ModStateEvent*)::{lambda(bool)#2}&&, geode::Mod*)::{lambda(std::__ndk1::shared_ptr<geode::SettingV3>)#1}>, void (std::__ndk1::shared_ptr<geode::SettingV3>)>::target(std::type_info const&) const
PUBLIC 261a0 0 std::__ndk1::__function::__func<geode::listenForSettingChangesV3<bool, geodeExecFunction7<(anonymous namespace)::ExecFuncUnique7>(geode::ModStateEvent*)::{lambda(bool)#2}>(std::__ndk1::basic_string_view<char, std::__ndk1::char_traits<char> >, geodeExecFunction7<(anonymous namespace)::ExecFuncUnique7>(geode::ModStateEvent*)::{lambda(bool)#2}&&, geode::Mod*)::{lambda(std::__ndk1::shared_ptr<geode::SettingV3>)#1}, std::__ndk1::allocator<geode::listenForSettingChangesV3<bool, geodeExecFunction7<(anonymous namespace)::ExecFuncUnique7>(geode::ModStateEvent*)::{lambda(bool)#2}>(std::__ndk1::basic_string_view<char, std::__ndk1::char_traits<char> >, geodeExecFunction7<(anonymous namespace)::ExecFuncUnique7>(geode::ModStateEvent*)::{lambda(bool)#2}&&, geode::Mod*)::{lambda(std::__ndk1::shared_ptr<geode::SettingV3>)#1}>, void (std::__ndk1::shared_ptr<geode::SettingV3>)>::target_type() const
PUBLIC 261ac 0 std::__ndk1::__function::__func<geode::listenForSettingChangesV3<cocos2d::_ccColor4B, geodeExecFunction7<(anonymous namespace)::ExecFuncUnique7>(geode::ModStateEvent*)::{lambda(cocos2d::_ccColor4B)#1}>(std::__ndk1::basic_string_view<char, std::__ndk1::char_traits<char> >, geodeExecFunction7<(anonymous namespace)::ExecFuncUnique7>(geode::ModStateEvent*)::{lambda(cocos2d::_ccColor4B&&)#1}, geode::Mod*)::{lambda(std::__ndk1::shared_ptr<geode::SettingV3>)#1}, std::__ndk1::allocator<geode::listenForSettingChangesV3<cocos2d::_ccColor4B, geodeExecFunction7<(anonymous namespace)::ExecFuncUnique7>(geode::ModStateEvent*)::{lambda(cocos2d::_ccColor4B)#1}>(std::__ndk1::basic_string_view<char, std::__ndk1::char_traits<char> >, geodeExecFunction7<(anonymous namespace)::ExecFuncUnique7>(geode::ModStateEvent*)::{lambda(cocos2d::_ccColor4B&&)#1}, geode::Mod*)::{lambda(std::__ndk1::shared_ptr<geode::SettingV3>)#1}>, void (std::__ndk1::shared_ptr<geode::SettingV3>)>::~__func()
PUBLIC 261b0 0 std::__ndk1::__function::__func<geode::listenForSettingChangesV3<cocos2d::_ccColor4B, geodeExecFunction7<(anonymous namespace)::ExecFuncUnique7>(geode::ModStateEvent*)::{lambda(cocos2d::_ccColor4B)#1}>(std::__ndk1::basic_string_view<char, std::__ndk1::char_traits<char> >, geodeExecFunction7<(anonymous namespace)::ExecFuncUnique7>(geode::ModStateEvent*)::{lambda(cocos2d::_ccColor4B&&)#1}, geode::Mod*)::{lambda(std::__ndk1::shared_ptr<geode::SettingV3>)#1}, std::__ndk1::allocator<geode::listenForSettingChangesV3<cocos2d::_ccColor4B, geodeExecFunction7<(anonymous namespace)::ExecFuncUnique7>(geode::ModStateEvent*)::{lambda(cocos2d::_ccColor4B)#1}>(std::__ndk1::basic_string_view<char, std::__ndk1::char_traits<char> >, geodeExecFunction7<(anonymous namespace)::ExecFuncUnique7>(geode::ModStateEvent*)::{lambda(cocos2d::_ccColor4B&&)#1}, geode::Mod*)::{lambda(std::__ndk1::shared_ptr<geode::SettingV3>)#1}>, void (std::__ndk1::shared_ptr<geode::SettingV3>)>::__clone() const
PUBLIC 261e8 0 std::__ndk1::__function::__func<geode::listenForSettingChangesV3<cocos2d::_ccColor4B, geodeExecFunction7<(anonymous namespace)::ExecFuncUnique7>(geode::ModStateEvent*)::{lambda(cocos2d::_ccColor4B)#1}>(std::__ndk1::basic_string_view<char, std::__ndk1::char_traits<char> >, geodeExecFunction7<(anonymous namespace)::ExecFuncUnique7>(geode::ModStateEvent*)::{lambda(cocos2d::_ccColor4B&&)#1}, geode::Mod*)::{lambda(std::__ndk1::shared_ptr<geode::SettingV3>)#1}, std::__ndk1::allocator<geode::listenForSettingChangesV3<cocos2d::_ccColor4B, geodeExecFunction7<(anonymous namespace)::ExecFuncUnique7>(geode::ModStateEvent*)::{lambda(cocos2d::_ccColor4B)#1}>(std::__ndk1::basic_string_view<char, std::__ndk1::char_traits<char> >, geodeExecFunction7<(anonymous namespace)::ExecFuncUnique7>(geode::ModStateEvent*)::{lambda(cocos2d::_ccColor4B&&)#1}, geode::Mod*)::{lambda(std::__ndk1::shared_ptr<geode::SettingV3>)#1}>, void (std::__ndk1::shared_ptr<geode::SettingV3>)>::__clone(std::__ndk1::__function::__base<void (std::__ndk1::shared_ptr<geode::SettingV3>)>*) const
PUBLIC 26200 0 std::__ndk1::__function::__func<geode::listenForSettingChangesV3<cocos2d::_ccColor4B, geodeExecFunction7<(anonymous namespace)::ExecFuncUnique7>(geode::ModStateEvent*)::{lambda(cocos2d::_ccColor4B)#1}>(std::__ndk1::basic_string_view<char, std::__ndk1::char_traits<char> >, geodeExecFunction7<(anonymous namespace)::ExecFuncUnique7>(geode::ModStateEvent*)::{lambda(cocos2d::_ccColor4B&&)#1}, geode::Mod*)::{lambda(std::__ndk1::shared_ptr<geode::SettingV3>)#1}, std::__ndk1::allocator<geode::listenForSettingChangesV3<cocos2d::_ccColor4B, geodeExecFunction7<(anonymous namespace)::ExecFuncUnique7>(geode::ModStateEvent*)::{lambda(cocos2d::_ccColor4B)#1}>(std::__ndk1::basic_string_view<char, std::__ndk1::char_traits<char> >, geodeExecFunction7<(anonymous namespace)::ExecFuncUnique7>(geode::ModStateEvent*)::{lambda(cocos2d::_ccColor4B&&)#1}, geode::Mod*)::{lambda(std::__ndk1::shared_ptr<geode::SettingV3>)#1}>, void (std::__ndk1::shared_ptr<geode::SettingV3>)>::destroy()
PUBLIC 26204 0 std::__ndk1::__function::__func<geode::listenForSettingChangesV3<cocos2d::_ccColor4B, geodeExecFunction7<(anonymous namespace)::ExecFuncUnique7>(geode::ModStateEvent*)::{lambda(cocos2d::_ccColor4B)#1}>(std::__ndk1::basic_string_view<char, std::__ndk1::char_traits<char> >, geodeExecFunction7<(anonymous namespace)::ExecFuncUnique7>(geode::ModStateEvent*)::{lambda(cocos2d::_ccColor4B&&)#1}, geode::Mod*)::{lambda(std::__ndk1::shared_ptr<geode::SettingV3>)#1}, std::__ndk1::allocator<geode::listenForSettingChangesV3<cocos2d::_ccColor4B, geodeExecFunction7<(anonymous namespace)::ExecFuncUnique7>(geode::ModStateEvent*)::{lambda(cocos2d::_ccColor4B)#1}>(std::__ndk1::basic_string_view<char, std::__ndk1::char_traits<char> >, geodeExecFunction7<(anonymous namespace)::ExecFuncUnique7>(geode::ModStateEvent*)::{lambda(cocos2d::_ccColor4B&&)#1}, geode::Mod*)::{lambda(std::__ndk1::shared_ptr<geode::SettingV3>)#1}>, void (std::__ndk1::shared_ptr<geode::SettingV3>)>::destroy_deallocate()
PUBLIC 26208 0 std::__ndk1::__function::__func<geode::listenForSettingChangesV3<cocos2d::_ccColor4B, geodeExecFunction7<(anonymous namespace)::ExecFuncUnique7>(geode::ModStateEvent*)::{lambda(cocos2d::_ccColor4B)#1}>(std::__ndk1::basic_string_view<char, std::__ndk1::char_traits<char> >, geodeExecFunction7<(anonymous namespace)::ExecFuncUnique7>(geode::ModStateEvent*)::{lambda(cocos2d::_ccColor4B&&)#1}, geode::Mod*)::{lambda(std::__ndk1::shared_ptr<geode::SettingV3>)#1}, std::__ndk1::allocator<geode::listenForSettingChangesV3<cocos2d::_ccColor4B, geodeExecFunction7<(anonymous namespace)::ExecFuncUnique7>(geode::ModStateEvent*)::{lambda(cocos2d::_ccColor4B)#1}>(std::__ndk1::basic_string_view<char, std::__ndk1::char_traits<char> >, geodeExecFunction7<(anonymous namespace)::ExecFuncUnique7>(geode::ModStateEvent*)::{lambda(cocos2d::_ccColor4B&&)#1}, geode::Mod*)::{lambda(std::__ndk1::shared_ptr<geode::SettingV3>)#1}>, void (std::__ndk1::shared_ptr<geode::SettingV3>)>::operator()(std::__ndk1::shared_ptr<geode::SettingV3>&&)
PUBLIC 263f4 0 std::__ndk1::__function::__func<geode::listenForSettingChangesV3<cocos2d::_ccColor4B, geodeExecFunction7<(anonymous namespace)::ExecFuncUnique7>(geode::ModStateEvent*)::{lambda(cocos2d::_ccColor4B)#1}>(std::__ndk1::basic_string_view<char, std::__ndk1::char_traits<char> >, geodeExecFunction7<(anonymous namespace)::ExecFuncUnique7>(geode::ModStateEvent*)::{lambda(cocos2d::_ccColor4B&&)#1}, geode::Mod*)::{lambda(std::__ndk1::shared_ptr<geode::SettingV3>)#1}, std::__ndk1::allocator<geode::listenForSettingChangesV3<cocos2d::_ccColor4B, geodeExecFunction7<(anonymous namespace)::ExecFuncUnique7>(geode::ModStateEvent*)::{lambda(cocos2d::_ccColor4B)#1}>(std::__ndk1::basic_string_view<char, std::__ndk1::char_traits<char> >, geodeExecFunction7<(anonymous namespace)::ExecFuncUnique7>(geode::ModStateEvent*)::{lambda(cocos2d::_ccColor4B&&)#1}, geode::Mod*)::{lambda(std::__ndk1::shared_ptr<geode::SettingV3>)#1}>, void (std::__ndk1::shared_ptr<geode::SettingV3>)>::target(std::type_info const&) const
PUBLIC 26410 0 std::__ndk1::__function::__func<geode::listenForSettingChangesV3<cocos2d::_ccColor4B, geodeExecFunction7<(anonymous namespace)::ExecFuncUnique7>(geode::ModStateEvent*)::{lambda(cocos2d::_ccColor4B)#1}>(std::__ndk1::basic_string_view<char, std::__ndk1::char_traits<char> >, geodeExecFunction7<(anonymous namespace)::ExecFuncUnique7>(geode::ModStateEvent*)::{lambda(cocos2d::_ccColor4B&&)#1}, geode::Mod*)::{lambda(std::__ndk1::shared_ptr<geode::SettingV3>)#1}, std::__ndk1::allocator<geode::listenForSettingChangesV3<cocos2d::_ccColor4B, geodeExecFunction7<(anonymous namespace)::ExecFuncUnique7>(geode::ModStateEvent*)::{lambda(cocos2d::_ccColor4B)#1}>(std::__ndk1::basic_string_view<char, std::__ndk1::char_traits<char> >, geodeExecFunction7<(anonymous namespace)::ExecFuncUnique7>(geode::ModStateEvent*)::{lambda(cocos2d::_ccColor4B&&)#1}, geode::Mod*)::{lambda(std::__ndk1::shared_ptr<geode::SettingV3>)#1}>, void (std::__ndk1::shared_ptr<geode::SettingV3>)>::target_type() const
PUBLIC 2641c 0 std::__ndk1::shared_ptr<geode::Color4BSettingV3>::~shared_ptr[abi:ne180000]()
PUBLIC 2646c 0 std::__ndk1::__function::__func<geode::listenForSettingChangesV3<std::__ndk1::basic_string<char, std::__ndk1::char_traits<char>, std::__ndk1::allocator<char> >, geodeExecFunction7<(anonymous namespace)::ExecFuncUnique7>(geode::ModStateEvent*)::{lambda(std::__ndk1::basic_string<char, std::__ndk1::char_traits<char>, std::__ndk1::allocator<char> >)#1}>(std::__ndk1::basic_string_view<char, std::__ndk1::char_traits<char> >, geodeExecFunction7<(anonymous namespace)::ExecFuncUnique7>(geode::ModStateEvent*)::{lambda(std::__ndk1::basic_string<char, std::__ndk1::char_traits<char>, std::__ndk1::allocator<char> >&&)#1}, geode::Mod*)::{lambda(std::__ndk1::shared_ptr<geode::SettingV3>)#1}, std::__ndk1::allocator<geode::listenForSettingChangesV3<std::__ndk1::basic_string<char, std::__ndk1::char_traits<char>, std::__ndk1::allocator<char> >, geodeExecFunction7<(anonymous namespace)::ExecFuncUnique7>(geode::ModStateEvent*)::{lambda(std::__ndk1::basic_string<char, std::__ndk1::char_traits<char>, std::__ndk1::allocator<char> >)#1}>(std::__ndk1::basic_string_view<char, std::__ndk1::char_traits<char> >, geodeExecFunction7<(anonymous namespace)::ExecFuncUnique7>(geode::ModStateEvent*)::{lambda(std::__ndk1::basic_string<char, std::__ndk1::char_traits<char>, std::__ndk1::allocator<char> >&&)#1}, geode::Mod*)::{lambda(std::__ndk1::shared_ptr<geode::SettingV3>)#1}>, void (std::__ndk1::shared_ptr<geode::SettingV3>)>::~__func()
PUBLIC 26470 0 std::__ndk1::__function::__func<geode::listenForSettingChangesV3<std::__ndk1::basic_string<char, std::__ndk1::char_traits<char>, std::__ndk1::allocator<char> >, geodeExecFunction7<(anonymous namespace)::ExecFuncUnique7>(geode::ModStateEvent*)::{lambda(std::__ndk1::basic_string<char, std::__ndk1::char_traits<char>, std::__ndk1::allocator<char> >)#1}>(std::__ndk1::basic_string_view<char, std::__ndk1::char_traits<char> >, geodeExecFunction7<(anonymous namespace)::ExecFuncUnique7>(geode::ModStateEvent*)::{lambda(std::__ndk1::basic_string<char, std::__ndk1::char_traits<char>, std::__ndk1::allocator<char> >&&)#1}, geode::Mod*)::{lambda(std::__ndk1::shared_ptr<geode::SettingV3>)#1}, std::__ndk1::allocator<geode::listenForSettingChangesV3<std::__ndk1::basic_string<char, std::__ndk1::char_traits<char>, std::__ndk1::allocator<char> >, geodeExecFunction7<(anonymous namespace)::ExecFuncUnique7>(geode::ModStateEvent*)::{lambda(std::__ndk1::basic_string<char, std::__ndk1::char_traits<char>, std::__ndk1::allocator<char> >)#1}>(std::__ndk1::basic_string_view<char, std::__ndk1::char_traits<char> >, geodeExecFunction7<(anonymous namespace)::ExecFuncUnique7>(geode::ModStateEvent*)::{lambda(std::__ndk1::basic_string<char, std::__ndk1::char_traits<char>, std::__ndk1::allocator<char> >&&)#1}, geode::Mod*)::{lambda(std::__ndk1::shared_ptr<geode::SettingV3>)#1}>, void (std::__ndk1::shared_ptr<geode::SettingV3>)>::__clone() const
PUBLIC 264a8 0 std::__ndk1::__function::__func<geode::listenForSettingChangesV3<std::__ndk1::basic_string<char, std::__ndk1::char_traits<char>, std::__ndk1::allocator<char> >, geodeExecFunction7<(anonymous namespace)::ExecFuncUnique7>(geode::ModStateEvent*)::{lambda(std::__ndk1::basic_string<char, std::__ndk1::char_traits<char>, std::__ndk1::allocator<char> >)#1}>(std::__ndk1::basic_string_view<char, std::__ndk1::char_traits<char> >, geodeExecFunction7<(anonymous namespace)::ExecFuncUnique7>(geode::ModStateEvent*)::{lambda(std::__ndk1::basic_string<char, std::__ndk1::char_traits<char>, std::__ndk1::allocator<char> >&&)#1}, geode::Mod*)::{lambda(std::__ndk1::shared_ptr<geode::SettingV3>)#1}, std::__ndk1::allocator<geode::listenForSettingChangesV3<std::__ndk1::basic_string<char, std::__ndk1::char_traits<char>, std::__ndk1::allocator<char> >, geodeExecFunction7<(anonymous namespace)::ExecFuncUnique7>(geode::ModStateEvent*)::{lambda(std::__ndk1::basic_string<char, std::__ndk1::char_traits<char>, std::__ndk1::allocator<char> >)#1}>(std::__ndk1::basic_string_view<char, std::__ndk1::char_traits<char> >, geodeExecFunction7<(anonymous namespace)::ExecFuncUnique7>(geode::ModStateEvent*)::{lambda(std::__ndk1::basic_string<char, std::__ndk1::char_traits<char>, std::__ndk1::allocator<char> >&&)#1}, geode::Mod*)::{lambda(std::__ndk1::shared_ptr<geode::SettingV3>)#1}>, void (std::__ndk1::shared_ptr<geode::SettingV3>)>::__clone(std::__ndk1::__function::__base<void (std::__ndk1::shared_ptr<geode::SettingV3>)>*) const
PUBLIC 264c0 0 std::__ndk1::__function::__func<geode::listenForSettingChangesV3<std::__ndk1::basic_string<char, std::__ndk1::char_traits<char>, std::__ndk1::allocator<char> >, geodeExecFunction7<(anonymous namespace)::ExecFuncUnique7>(geode::ModStateEvent*)::{lambda(std::__ndk1::basic_string<char, std::__ndk1::char_traits<char>, std::__ndk1::allocator<char> >)#1}>(std::__ndk1::basic_string_view<char, std::__ndk1::char_traits<char> >, geodeExecFunction7<(anonymous namespace)::ExecFuncUnique7>(geode::ModStateEvent*)::{lambda(std::__ndk1::basic_string<char, std::__ndk1::char_traits<char>, std::__ndk1::allocator<char> >&&)#1}, geode::Mod*)::{lambda(std::__ndk1::shared_ptr<geode::SettingV3>)#1}, std::__ndk1::allocator<geode::listenForSettingChangesV3<std::__ndk1::basic_string<char, std::__ndk1::char_traits<char>, std::__ndk1::allocator<char> >, geodeExecFunction7<(anonymous namespace)::ExecFuncUnique7>(geode::ModStateEvent*)::{lambda(std::__ndk1::basic_string<char, std::__ndk1::char_traits<char>, std::__ndk1::allocator<char> >)#1}>(std::__ndk1::basic_string_view<char, std::__ndk1::char_traits<char> >, geodeExecFunction7<(anonymous namespace)::ExecFuncUnique7>(geode::ModStateEvent*)::{lambda(std::__ndk1::basic_string<char, std::__ndk1::char_traits<char>, std::__ndk1::allocator<char> >&&)#1}, geode::Mod*)::{lambda(std::__ndk1::shared_ptr<geode::SettingV3>)#1}>, void (std::__ndk1::shared_ptr<geode::SettingV3>)>::destroy()
PUBLIC 264c4 0 std::__ndk1::__function::__func<geode::listenForSettingChangesV3<std::__ndk1::basic_string<char, std::__ndk1::char_traits<char>, std::__ndk1::allocator<char> >, geodeExecFunction7<(anonymous namespace)::ExecFuncUnique7>(geode::ModStateEvent*)::{lambda(std::__ndk1::basic_string<char, std::__ndk1::char_traits<char>, std::__ndk1::allocator<char> >)#1}>(std::__ndk1::basic_string_view<char, std::__ndk1::char_traits<char> >, geodeExecFunction7<(anonymous namespace)::ExecFuncUnique7>(geode::ModStateEvent*)::{lambda(std::__ndk1::basic_string<char, std::__ndk1::char_traits<char>, std::__ndk1::allocator<char> >&&)#1}, geode::Mod*)::{lambda(std::__ndk1::shared_ptr<geode::SettingV3>)#1}, std::__ndk1::allocator<geode::listenForSettingChangesV3<std::__ndk1::basic_string<char, std::__ndk1::char_traits<char>, std::__ndk1::allocator<char> >, geodeExecFunction7<(anonymous namespace)::ExecFuncUnique7>(geode::ModStateEvent*)::{lambda(std::__ndk1::basic_string<char, std::__ndk1::char_traits<char>, std::__ndk1::allocator<char> >)#1}>(std::__ndk1::basic_string_view<char, std::__ndk1::char_traits<char> >, geodeExecFunction7<(anonymous namespace)::ExecFuncUnique7>(geode::ModStateEvent*)::{lambda(std::__ndk1::basic_string<char, std::__ndk1::char_traits<char>, std::__ndk1::allocator<char> >&&)#1}, geode::Mod*)::{lambda(std::__ndk1::shared_ptr<geode::SettingV3>)#1}>, void (std::__ndk1::shared_ptr<geode::SettingV3>)>::destroy_deallocate()
PUBLIC 264c8 0 std::__ndk1::__function::__func<geode::listenForSettingChangesV3<std::__ndk1::basic_string<char, std::__ndk1::char_traits<char>, std::__ndk1::allocator<char> >, geodeExecFunction7<(anonymous namespace)::ExecFuncUnique7>(geode::ModStateEvent*)::{lambda(std::__ndk1::basic_string<char, std::__ndk1::char_traits<char>, std::__ndk1::allocator<char> >)#1}>(std::__ndk1::basic_string_view<char, std::__ndk1::char_traits<char> >, geodeExecFunction7<(anonymous namespace)::ExecFuncUnique7>(geode::ModStateEvent*)::{lambda(std::__ndk1::basic_string<char, std::__ndk1::char_traits<char>, std::__ndk1::allocator<char> >&&)#1}, geode::Mod*)::{lambda(std::__ndk1::shared_ptr<geode::SettingV3>)#1}, std::__ndk1::allocator<geode::listenForSettingChangesV3<std::__ndk1::basic_string<char, std::__ndk1::char_traits<char>, std::__ndk1::allocator<char> >, geodeExecFunction7<(anonymous namespace)::ExecFuncUnique7>(geode::ModStateEvent*)::{lambda(std::__ndk1::basic_string<char, std::__ndk1::char_traits<char>, std::__ndk1::allocator<char> >)#1}>(std::__ndk1::basic_string_view<char, std::__ndk1::char_traits<char> >, geodeExecFunction7<(anonymous namespace)::ExecFuncUnique7>(geode::ModStateEvent*)::{lambda(std::__ndk1::basic_string<char, std::__ndk1::char_traits<char>, std::__ndk1::allocator<char> >&&)#1}, geode::Mod*)::{lambda(std::__ndk1::shared_ptr<geode::SettingV3>)#1}>, void (std::__ndk1::shared_ptr<geode::SettingV3>)>::operator()(std::__ndk1::shared_ptr<geode::SettingV3>&&)
PUBLIC 26860 0 std::__ndk1::__function::__func<geode::listenForSettingChangesV3<std::__ndk1::basic_string<char, std::__ndk1::char_traits<char>, std::__ndk1::allocator<char> >, geodeExecFunction7<(anonymous namespace)::ExecFuncUnique7>(geode::ModStateEvent*)::{lambda(std::__ndk1::basic_string<char, std::__ndk1::char_traits<char>, std::__ndk1::allocator<char> >)#1}>(std::__ndk1::basic_string_view<char, std::__ndk1::char_traits<char> >, geodeExecFunction7<(anonymous namespace)::ExecFuncUnique7>(geode::ModStateEvent*)::{lambda(std::__ndk1::basic_string<char, std::__ndk1::char_traits<char>, std::__ndk1::allocator<char> >&&)#1}, geode::Mod*)::{lambda(std::__ndk1::shared_ptr<geode::SettingV3>)#1}, std::__ndk1::allocator<geode::listenForSettingChangesV3<std::__ndk1::basic_string<char, std::__ndk1::char_traits<char>, std::__ndk1::allocator<char> >, geodeExecFunction7<(anonymous namespace)::ExecFuncUnique7>(geode::ModStateEvent*)::{lambda(std::__ndk1::basic_string<char, std::__ndk1::char_traits<char>, std::__ndk1::allocator<char> >)#1}>(std::__ndk1::basic_string_view<char, std::__ndk1::char_traits<char> >, geodeExecFunction7<(anonymous namespace)::ExecFuncUnique7>(geode::ModStateEvent*)::{lambda(std::__ndk1::basic_string<char, std::__ndk1::char_traits<char>, std::__ndk1::allocator<char> >&&)#1}, geode::Mod*)::{lambda(std::__ndk1::shared_ptr<geode::SettingV3>)#1}>, void (std::__ndk1::shared_ptr<geode::SettingV3>)>::target(std::type_info const&) const
PUBLIC 2687c 0 std::__ndk1::__function::__func<geode::listenForSettingChangesV3<std::__ndk1::basic_string<char, std::__ndk1::char_traits<char>, std::__ndk1::allocator<char> >, geodeExecFunction7<(anonymous namespace)::ExecFuncUnique7>(geode::ModStateEvent*)::{lambda(std::__ndk1::basic_string<char, std::__ndk1::char_traits<char>, std::__ndk1::allocator<char> >)#1}>(std::__ndk1::basic_string_view<char, std::__ndk1::char_traits<char> >, geodeExecFunction7<(anonymous namespace)::ExecFuncUnique7>(geode::ModStateEvent*)::{lambda(std::__ndk1::basic_string<char, std::__ndk1::char_traits<char>, std::__ndk1::allocator<char> >&&)#1}, geode::Mod*)::{lambda(std::__ndk1::shared_ptr<geode::SettingV3>)#1}, std::__ndk1::allocator<geode::listenForSettingChangesV3<std::__ndk1::basic_string<char, std::__ndk1::char_traits<char>, std::__ndk1::allocator<char> >, geodeExecFunction7<(anonymous namespace)::ExecFuncUnique7>(geode::ModStateEvent*)::{lambda(std::__ndk1::basic_string<char, std::__ndk1::char_traits<char>, std::__ndk1::allocator<char> >)#1}>(std::__ndk1::basic_string_view<char, std::__ndk1::char_traits<char> >, geodeExecFunction7<(anonymous namespace)::ExecFuncUnique7>(geode::ModStateEvent*)::{lambda(std::__ndk1::basic_string<char, std::__ndk1::char_traits<char>, std::__ndk1::allocator<char> >&&)#1}, geode::Mod*)::{lambda(std::__ndk1::shared_ptr<geode::SettingV3>)#1}>, void (std::__ndk1::shared_ptr<geode::SettingV3>)>::target_type() const
PUBLIC 26888 0 std::__ndk1::__function::__base<void (std::__ndk1::shared_ptr<geode::SettingV3>)>::~__base()
PUBLIC 2688c 0 std::__ndk1::__function::__func<geode::listenForSettingChangesV3<std::__ndk1::basic_string<char, std::__ndk1::char_traits<char>, std::__ndk1::allocator<char> >, geodeExecFunction7<(anonymous namespace)::ExecFuncUnique7>(geode::ModStateEvent*)::{lambda(std::__ndk1::basic_string<char, std::__ndk1::char_traits<char>, std::__ndk1::allocator<char> >)#2}>(std::__ndk1::basic_string_view<char, std::__ndk1::char_traits<char> >, geodeExecFunction7<(anonymous namespace)::ExecFuncUnique7>(geode::ModStateEvent*)::{lambda(std::__ndk1::basic_string<char, std::__ndk1::char_traits<char>, std::__ndk1::allocator<char> >&&)#2}, geode::Mod*)::{lambda(std::__ndk1::shared_ptr<geode::SettingV3>)#1}, std::__ndk1::allocator<geode::listenForSettingChangesV3<std::__ndk1::basic_string<char, std::__ndk1::char_traits<char>, std::__ndk1::allocator<char> >, geodeExecFunction7<(anonymous namespace)::ExecFuncUnique7>(geode::ModStateEvent*)::{lambda(std::__ndk1::basic_string<char, std::__ndk1::char_traits<char>, std::__ndk1::allocator<char> >)#2}>(std::__ndk1::basic_string_view<char, std::__ndk1::char_traits<char> >, geodeExecFunction7<(anonymous namespace)::ExecFuncUnique7>(geode::ModStateEvent*)::{lambda(std::__ndk1::basic_string<char, std::__ndk1::char_traits<char>, std::__ndk1::allocator<char> >&&)#2}, geode::Mod*)::{lambda(std::__ndk1::shared_ptr<geode::SettingV3>)#1}>, void (std::__ndk1::shared_ptr<geode::SettingV3>)>::~__func()
PUBLIC 26890 0 std::__ndk1::__function::__func<geode::listenForSettingChangesV3<std::__ndk1::basic_string<char, std::__ndk1::char_traits<char>, std::__ndk1::allocator<char> >, geodeExecFunction7<(anonymous namespace)::ExecFuncUnique7>(geode::ModStateEvent*)::{lambda(std::__ndk1::basic_string<char, std::__ndk1::char_traits<char>, std::__ndk1::allocator<char> >)#2}>(std::__ndk1::basic_string_view<char, std::__ndk1::char_traits<char> >, geodeExecFunction7<(anonymous namespace)::ExecFuncUnique7>(geode::ModStateEvent*)::{lambda(std::__ndk1::basic_string<char, std::__ndk1::char_traits<char>, std::__ndk1::allocator<char> >&&)#2}, geode::Mod*)::{lambda(std::__ndk1::shared_ptr<geode::SettingV3>)#1}, std::__ndk1::allocator<geode::listenForSettingChangesV3<std::__ndk1::basic_string<char, std::__ndk1::char_traits<char>, std::__ndk1::allocator<char> >, geodeExecFunction7<(anonymous namespace)::ExecFuncUnique7>(geode::ModStateEvent*)::{lambda(std::__ndk1::basic_string<char, std::__ndk1::char_traits<char>, std::__ndk1::allocator<char> >)#2}>(std::__ndk1::basic_string_view<char, std::__ndk1::char_traits<char> >, geodeExecFunction7<(anonymous namespace)::ExecFuncUnique7>(geode::ModStateEvent*)::{lambda(std::__ndk1::basic_string<char, std::__ndk1::char_traits<char>, std::__ndk1::allocator<char> >&&)#2}, geode::Mod*)::{lambda(std::__ndk1::shared_ptr<geode::SettingV3>)#1}>, void (std::__ndk1::shared_ptr<geode::SettingV3>)>::__clone() const
PUBLIC 268c8 0 std::__ndk1::__function::__func<geode::listenForSettingChangesV3<std::__ndk1::basic_string<char, std::__ndk1::char_traits<char>, std::__ndk1::allocator<char> >, geodeExecFunction7<(anonymous namespace)::ExecFuncUnique7>(geode::ModStateEvent*)::{lambda(std::__ndk1::basic_string<char, std::__ndk1::char_traits<char>, std::__ndk1::allocator<char> >)#2}>(std::__ndk1::basic_string_view<char, std::__ndk1::char_traits<char> >, geodeExecFunction7<(anonymous namespace)::ExecFuncUnique7>(geode::ModStateEvent*)::{lambda(std::__ndk1::basic_string<char, std::__ndk1::char_traits<char>, std::__ndk1::allocator<char> >&&)#2}, geode::Mod*)::{lambda(std::__ndk1::shared_ptr<geode::SettingV3>)#1}, std::__ndk1::allocator<geode::listenForSettingChangesV3<std::__ndk1::basic_string<char, std::__ndk1::char_traits<char>, std::__ndk1::allocator<char> >, geodeExecFunction7<(anonymous namespace)::ExecFuncUnique7>(geode::ModStateEvent*)::{lambda(std::__ndk1::basic_string<char, std::__ndk1::char_traits<char>, std::__ndk1::allocator<char> >)#2}>(std::__ndk1::basic_string_view<char, std::__ndk1::char_traits<char> >, geodeExecFunction7<(anonymous namespace)::ExecFuncUnique7>(geode::ModStateEvent*)::{lambda(std::__ndk1::basic_string<char, std::__ndk1::char_traits<char>, std::__ndk1::allocator<char> >&&)#2}, geode::Mod*)::{lambda(std::__ndk1::shared_ptr<geode::SettingV3>)#1}>, void (std::__ndk1::shared_ptr<geode::SettingV3>)>::__clone(std::__ndk1::__function::__base<void (std::__ndk1::shared_ptr<geode::SettingV3>)>*) const
PUBLIC 268e0 0 std::__ndk1::__function::__func<geode::listenForSettingChangesV3<std::__ndk1::basic_string<char, std::__ndk1::char_traits<char>, std::__ndk1::allocator<char> >, geodeExecFunction7<(anonymous namespace)::ExecFuncUnique7>(geode::ModStateEvent*)::{lambda(std::__ndk1::basic_string<char, std::__ndk1::char_traits<char>, std::__ndk1::allocator<char> >)#2}>(std::__ndk1::basic_string_view<char, std::__ndk1::char_traits<char> >, geodeExecFunction7<(anonymous namespace)::ExecFuncUnique7>(geode::ModStateEvent*)::{lambda(std::__ndk1::basic_string<char, std::__ndk1::char_traits<char>, std::__ndk1::allocator<char> >&&)#2}, geode::Mod*)::{lambda(std::__ndk1::shared_ptr<geode::SettingV3>)#1}, std::__ndk1::allocator<geode::listenForSettingChangesV3<std::__ndk1::basic_string<char, std::__ndk1::char_traits<char>, std::__ndk1::allocator<char> >, geodeExecFunction7<(anonymous namespace)::ExecFuncUnique7>(geode::ModStateEvent*)::{lambda(std::__ndk1::basic_string<char, std::__ndk1::char_traits<char>, std::__ndk1::allocator<char> >)#2}>(std::__ndk1::basic_string_view<char, std::__ndk1::char_traits<char> >, geodeExecFunction7<(anonymous namespace)::ExecFuncUnique7>(geode::ModStateEvent*)::{lambda(std::__ndk1::basic_string<char, std::__ndk1::char_traits<char>, std::__ndk1::allocator<char> >&&)#2}, geode::Mod*)::{lambda(std::__ndk1::shared_ptr<geode::SettingV3>)#1}>, void (std::__ndk1::shared_ptr<geode::SettingV3>)>::destroy()
PUBLIC 268e4 0 std::__ndk1::__function::__func<geode::listenForSettingChangesV3<std::__ndk1::basic_string<char, std::__ndk1::char_traits<char>, std::__ndk1::allocator<char> >, geodeExecFunction7<(anonymous namespace)::ExecFuncUnique7>(geode::ModStateEvent*)::{lambda(std::__ndk1::basic_string<char, std::__ndk1::char_traits<char>, std::__ndk1::allocator<char> >)#2}>(std::__ndk1::basic_string_view<char, std::__ndk1::char_traits<char> >, geodeExecFunction7<(anonymous namespace)::ExecFuncUnique7>(geode::ModStateEvent*)::{lambda(std::__ndk1::basic_string<char, std::__ndk1::char_traits<char>, std::__ndk1::allocator<char> >&&)#2}, geode::Mod*)::{lambda(std::__ndk1::shared_ptr<geode::SettingV3>)#1}, std::__ndk1::allocator<geode::listenForSettingChangesV3<std::__ndk1::basic_string<char, std::__ndk1::char_traits<char>, std::__ndk1::allocator<char> >, geodeExecFunction7<(anonymous namespace)::ExecFuncUnique7>(geode::ModStateEvent*)::{lambda(std::__ndk1::basic_string<char, std::__ndk1::char_traits<char>, std::__ndk1::allocator<char> >)#2}>(std::__ndk1::basic_string_view<char, std::__ndk1::char_traits<char> >, geodeExecFunction7<(anonymous namespace)::ExecFuncUnique7>(geode::ModStateEvent*)::{lambda(std::__ndk1::basic_string<char, std::__ndk1::char_traits<char>, std::__ndk1::allocator<char> >&&)#2}, geode::Mod*)::{lambda(std::__ndk1::shared_ptr<geode::SettingV3>)#1}>, void (std::__ndk1::shared_ptr<geode::SettingV3>)>::destroy_deallocate()
PUBLIC 268e8 0 std::__ndk1::__function::__func<geode::listenForSettingChangesV3<std::__ndk1::basic_string<char, std::__ndk1::char_traits<char>, std::__ndk1::allocator<char> >, geodeExecFunction7<(anonymous namespace)::ExecFuncUnique7>(geode::ModStateEvent*)::{lambda(std::__ndk1::basic_string<char, std::__ndk1::char_traits<char>, std::__ndk1::allocator<char> >)#2}>(std::__ndk1::basic_string_view<char, std::__ndk1::char_traits<char> >, geodeExecFunction7<(anonymous namespace)::ExecFuncUnique7>(geode::ModStateEvent*)::{lambda(std::__ndk1::basic_string<char, std::__ndk1::char_traits<char>, std::__ndk1::allocator<char> >&&)#2}, geode::Mod*)::{lambda(std::__ndk1::shared_ptr<geode::SettingV3>)#1}, std::__ndk1::allocator<geode::listenForSettingChangesV3<std::__ndk1::basic_string<char, std::__ndk1::char_traits<char>, std::__ndk1::allocator<char> >, geodeExecFunction7<(anonymous namespace)::ExecFuncUnique7>(geode::ModStateEvent*)::{lambda(std::__ndk1::basic_string<char, std::__ndk1::char_traits<char>, std::__ndk1::allocator<char> >)#2}>(std::__ndk1::basic_string_view<char, std::__ndk1::char_traits<char> >, geodeExecFunction7<(anonymous namespace)::ExecFuncUnique7>(geode::ModStateEvent*)::{lambda(std::__ndk1::basic_string<char, std::__ndk1::char_traits<char>, std::__ndk1::allocator<char> >&&)#2}, geode::Mod*)::{lambda(std::__ndk1::shared_ptr<geode::SettingV3>)#1}>, void (std::__ndk1::shared_ptr<geode::SettingV3>)>::operator()(std::__ndk1::shared_ptr<geode::SettingV3>&&)
PUBLIC 26bbc 0 std::__ndk1::__function::__func<geode::listenForSettingChangesV3<std::__ndk1::basic_string<char, std::__ndk1::char_traits<char>, std::__ndk1::allocator<char> >, geodeExecFunction7<(anonymous namespace)::ExecFuncUnique7>(geode::ModStateEvent*)::{lambda(std::__ndk1::basic_string<char, std::__ndk1::char_traits<char>, std::__ndk1::allocator<char> >)#2}>(std::__ndk1::basic_string_view<char, std::__ndk1::char_traits<char> >, geodeExecFunction7<(anonymous namespace)::ExecFuncUnique7>(geode::ModStateEvent*)::{lambda(std::__ndk1::basic_string<char, std::__ndk1::char_traits<char>, std::__ndk1::allocator<char> >&&)#2}, geode::Mod*)::{lambda(std::__ndk1::shared_ptr<geode::SettingV3>)#1}, std::__ndk1::allocator<geode::listenForSettingChangesV3<std::__ndk1::basic_string<char, std::__ndk1::char_traits<char>, std::__ndk1::allocator<char> >, geodeExecFunction7<(anonymous namespace)::ExecFuncUnique7>(geode::ModStateEvent*)::{lambda(std::__ndk1::basic_string<char, std::__ndk1::char_traits<char>, std::__ndk1::allocator<char> >)#2}>(std::__ndk1::basic_string_view<char, std::__ndk1::char_traits<char> >, geodeExecFunction7<(anonymous namespace)::ExecFuncUnique7>(geode::ModStateEvent*)::{lambda(std::__ndk1::basic_string<char, std::__ndk1::char_traits<char>, std::__ndk1::allocator<char> >&&)#2}, geode::Mod*)::{lambda(std::__ndk1::shared_ptr<geode::SettingV3>)#1}>, void (std::__ndk1::shared_ptr<geode::SettingV3>)>::target(std::type_info const&) const
PUBLIC 26bd8 0 std::__ndk1::__function::__func<geode::listenForSettingChangesV3<std::__ndk1::basic_string<char, std::__ndk1::char_traits<char>, std::__ndk1::allocator<char> >, geodeExecFunction7<(anonymous namespace)::ExecFuncUnique7>(geode::ModStateEvent*)::{lambda(std::__ndk1::basic_string<char, std::__ndk1::char_traits<char>, std::__ndk1::allocator<char> >)#2}>(std::__ndk1::basic_string_view<char, std::__ndk1::char_traits<char> >, geodeExecFunction7<(anonymous namespace)::ExecFuncUnique7>(geode::ModStateEvent*)::{lambda(std::__ndk1::basic_string<char, std::__ndk1::char_traits<char>, std::__ndk1::allocator<char> >&&)#2}, geode::Mod*)::{lambda(std::__ndk1::shared_ptr<geode::SettingV3>)#1}, std::__ndk1::allocator<geode::listenForSettingChangesV3<std::__ndk1::basic_string<char, std::__ndk1::char_traits<char>, std::__ndk1::allocator<char> >, geodeExecFunction7<(anonymous namespace)::ExecFuncUnique7>(geode::ModStateEvent*)::{lambda(std::__ndk1::basic_string<char, std::__ndk1::char_traits<char>, std::__ndk1::allocator<char> >)#2}>(std::__ndk1::basic_string_view<char, std::__ndk1::char_traits<char> >, geodeExecFunction7<(anonymous namespace)::ExecFuncUnique7>(geode::ModStateEvent*)::{lambda(std::__ndk1::basic_string<char, std::__ndk1::char_traits<char>, std::__ndk1::allocator<char> >&&)#2}, geode::Mod*)::{lambda(std::__ndk1::shared_ptr<geode::SettingV3>)#1}>, void (std::__ndk1::shared_ptr<geode::SettingV3>)>::target_type() const
PUBLIC 26be4 0 geode::EventListener<geode::ModStateFilter>::getPool() const
PUBLIC 26be8 0 geode::EventListener<geode::ModStateFilter>::handle(geode::Event*)
PUBLIC 26d5c 0 geode::EventListener<geode::ModStateFilter>::~EventListener()
PUBLIC 26db8 0 geode::EventListener<geode::ModStateFilter>::~EventListener()
PUBLIC 26e1c 0 std::__ndk1::__function::__base<void (geode::ModStateEvent*)>::~__base()
PUBLIC 26e20 0 std::__ndk1::__function::__func<void (*)(geode::ModStateEvent*), std::__ndk1::allocator<void (*)(geode::ModStateEvent*)>, void (geode::ModStateEvent*)>::~__func()
PUBLIC 26e24 0 std::__ndk1::__function::__func<void (*)(geode::ModStateEvent*), std::__ndk1::allocator<void (*)(geode::ModStateEvent*)>, void (geode::ModStateEvent*)>::__clone() const
PUBLIC 26e58 0 std::__ndk1::__function::__func<void (*)(geode::ModStateEvent*), std::__ndk1::allocator<void (*)(geode::ModStateEvent*)>, void (geode::ModStateEvent*)>::__clone(std::__ndk1::__function::__base<void (geode::ModStateEvent*)>*) const
PUBLIC 26e6c 0 std::__ndk1::__function::__func<void (*)(geode::ModStateEvent*), std::__ndk1::allocator<void (*)(geode::ModStateEvent*)>, void (geode::ModStateEvent*)>::destroy()
PUBLIC 26e70 0 std::__ndk1::__function::__func<void (*)(geode::ModStateEvent*), std::__ndk1::allocator<void (*)(geode::ModStateEvent*)>, void (geode::ModStateEvent*)>::destroy_deallocate()
PUBLIC 26e74 0 std::__ndk1::__function::__func<void (*)(geode::ModStateEvent*), std::__ndk1::allocator<void (*)(geode::ModStateEvent*)>, void (geode::ModStateEvent*)>::operator()(geode::ModStateEvent*&&)
PUBLIC 26e84 0 std::__ndk1::__function::__func<void (*)(geode::ModStateEvent*), std::__ndk1::allocator<void (*)(geode::ModStateEvent*)>, void (geode::ModStateEvent*)>::target(std::type_info const&) const
PUBLIC 26ea0 0 std::__ndk1::__function::__func<void (*)(geode::ModStateEvent*), std::__ndk1::allocator<void (*)(geode::ModStateEvent*)>, void (geode::ModStateEvent*)>::target_type() const
PUBLIC 26eac 0 _GLOBAL__sub_I_main.cpp
PUBLIC m 26fd8 0 geodeImplicitEntry
PUBLIC 27014 0 std::__ndk1::unordered_map<void*, bool, std::__ndk1::hash<void*>, std::__ndk1::equal_to<void*>, std::__ndk1::allocator<std::__ndk1::pair<void* const, bool> > >::~unordered_map[abi:ne180000]()
PUBLIC 27060 0 wrapFunction(unsigned long, tulip::hook::WrapperMetadata const&)
PUBLIC 27194 0 geode::impl::ResultData<void*, std::__ndk1::basic_string<char, std::__ndk1::char_traits<char>, std::__ndk1::allocator<char> > >::unwrapErr() &
PUBLIC 2720c 0 geode::impl::ResultData<void*, std::__ndk1::basic_string<char, std::__ndk1::char_traits<char>, std::__ndk1::allocator<char> > >::~ResultData()
PUBLIC 27280 0 tulip::hook::WrapperMetadata::~WrapperMetadata()
PUBLIC 272e4 0 cocos2d::CCObject::~CCObject()
PUBLIC 27308 0 cocos2d::CCNode::~CCNode()
PUBLIC 2732c 0 cocos2d::CCSpriteBatchNode::~CCSpriteBatchNode()
PUBLIC 275bc 0 cocos2d::CCSpriteBatchNode::~CCSpriteBatchNode()
PUBLIC 275e0 0 cocos2d::CCLabelBMFont::CCLabelBMFont()
PUBLIC 27884 0 cocos2d::CCLabelBMFont::~CCLabelBMFont()
PUBLIC 27b94 0 cocos2d::CCLabelBMFont::~CCLabelBMFont()
PUBLIC 27bb8 0 FLAlertLayer::create(FLAlertLayerProtocol*, char const*, gd::string, char const*, char const*, float)
PUBLIC 27d70 0 tulip::hook::AbstractFunction::from<FLAlertLayer*, FLAlertLayerProtocol*, char const*, gd::string, char const*, char const*, float>(FLAlertLayer* (*)(FLAlertLayerProtocol*, char const*, gd::string, char const*, char const*, float))
PUBLIC 27edc 0 cocos2d::CCObject::update(float)
PUBLIC 27ee0 0 cocos2d::CCNode::~CCNode()
PUBLIC 28158 0 cocos2d::CCObject::~CCObject()
PUBLIC 28614 0 _ZN5geode15UnwrapExceptionC2IRPvQsr4implE18IsStringStreamableIT_EEENS_4impl5OkTagEOS4_
PUBLIC 28768 0 std::__ndk1::__variant_detail::__visitation::__base::__dispatcher<(unsigned long)0>::__dispatch[abi:ne180000]<std::__ndk1::__variant_detail::__dtor<std::__ndk1::__variant_detail::__traits<void*, std::__ndk1::basic_string<char, std::__ndk1::char_traits<char>, std::__ndk1::allocator<char> > >, (std::__ndk1::__variant_detail::_Trait)1>::__destroy[abi:ne180000]()::{lambda(auto:1&)#1}, std::__ndk1::__variant_detail::__base<(std::__ndk1::__variant_detail::__traits<void*, std::__ndk1::basic_string<char, std::__ndk1::char_traits<char>, std::__ndk1::allocator<char> > >)1, std::__ndk1::__variant_detail::__traits, std::__ndk1::allocator<char> >&>(std::__ndk1::__variant_detail::__dtor<std::__ndk1::__variant_detail::__traits<void*, std::__ndk1::basic_string<char, std::__ndk1::char_traits<char>, std::__ndk1::allocator<char> > >, (std::__ndk1::__variant_detail::_Trait)1>, std::__ndk1::__variant_detail::__base<(std::__ndk1::__variant_detail::__traits<void*, std::__ndk1::basic_string<char, std::__ndk1::char_traits<char>, std::__ndk1::allocator<char> > >)1, std::__ndk1::__variant_detail::__traits, std::__ndk1::allocator<char> >&)
PUBLIC 2876c 0 std::__ndk1::__variant_detail::__visitation::__base::__dispatcher<(unsigned long)1>::__dispatch[abi:ne180000]<std::__ndk1::__variant_detail::__dtor<std::__ndk1::__variant_detail::__traits<void*, std::__ndk1::basic_string<char, std::__ndk1::char_traits<char>, std::__ndk1::allocator<char> > >, (std::__ndk1::__variant_detail::_Trait)1>::__destroy[abi:ne180000]()::{lambda(auto:1&)#1}, std::__ndk1::__variant_detail::__base<(std::__ndk1::__variant_detail::__traits<void*, std::__ndk1::basic_string<char, std::__ndk1::char_traits<char>, std::__ndk1::allocator<char> > >)1, std::__ndk1::__variant_detail::__traits, std::__ndk1::allocator<char> >&>(std::__ndk1::__variant_detail::__dtor<std::__ndk1::__variant_detail::__traits<void*, std::__ndk1::basic_string<char, std::__ndk1::char_traits<char>, std::__ndk1::allocator<char> > >, (std::__ndk1::__variant_detail::_Trait)1>, std::__ndk1::__variant_detail::__base<(std::__ndk1::__variant_detail::__traits<void*, std::__ndk1::basic_string<char, std::__ndk1::char_traits<char>, std::__ndk1::allocator<char> > >)1, std::__ndk1::__variant_detail::__traits, std::__ndk1::allocator<char> >&)
PUBLIC 28780 0 std::__ndk1::__hash_table<std::__ndk1::__hash_value_type<void*, bool>, std::__ndk1::__unordered_map_hasher<void*, std::__ndk1::__hash_value_type<void*, bool>, std::__ndk1::hash<void*>, std::__ndk1::equal_to<void*>, true>, std::__ndk1::__unordered_map_equal<void*, std::__ndk1::__hash_value_type<void*, bool>, std::__ndk1::equal_to<void*>, std::__ndk1::hash<void*>, true>, std::__ndk1::allocator<std::__ndk1::__hash_value_type<void*, bool> > >::__emplace_unique_key_args<void*, std::__ndk1::piecewise_construct_t const&, std::__ndk1::tuple<void* const&>, std::__ndk1::tuple<> >(void* const&, std::__ndk1::piecewise_construct_t const&, std::__ndk1::tuple<void* const&>, std::__ndk1::tuple<>)
PUBLIC 28c60 0 __udivti3
PUBLIC 28c6c 0 __udivmodti4
PUBLIC m 28eb8 0 __eqtf2
PUBLIC 28f58 0 __unordtf2
PUBLIC 28f90 0 fmt::v11::detail::write_loc(fmt::v11::basic_appender<char>, fmt::v11::loc_value, fmt::v11::format_specs const&, fmt::v11::detail::locale_ref)
PUBLIC 29224 0 fmt::v11::format_facet<std::__ndk1::locale>::~format_facet()
PUBLIC 292a0 0 fmt::v11::report_error(char const*)
PUBLIC 292f0 0 fmt::v11::format_error::runtime_error(char const*)
PUBLIC 2931c 0 fmt::v11::format_facet<std::__ndk1::locale>::do_put(fmt::v11::basic_appender<char>, fmt::v11::loc_value, fmt::v11::format_specs const&) const
PUBLIC 29adc 0 fmt::v11::detail::loc_writer<char>::~loc_writer()
PUBLIC 29b40 0 fmt::v11::vformat(fmt::v11::basic_string_view<char>, fmt::v11::basic_format_args<fmt::v11::context>)
PUBLIC 29c7c 0 fmt::v11::detail::vformat_to<char>(fmt::v11::detail::buffer<char>&, fmt::v11::basic_string_view<char>, fmt::v11::detail::vformat_args<char>::type, fmt::v11::detail::locale_ref)
PUBLIC 2a1ec 0 fmt::v11::detail::is_printable(unsigned int)
PUBLIC 2a414 0 fmt::v11::detail::dragonbox::to_decimal<float>(float)
PUBLIC 2a6f0 0 fmt::v11::detail::dragonbox::to_decimal<double>(double)
PUBLIC 2ac2c 0 fmt::v11::basic_memory_buffer<char, (unsigned long)500, std::__ndk1::allocator<char> >::grow(fmt::v11::detail::buffer<char>&, unsigned long)
PUBLIC 2aca4 0 fmt::v11::format_facet<std::__ndk1::locale>::~format_facet()
PUBLIC 2ad30 0 fmt::v11::format_error::~format_error()
PUBLIC 2ad54 0 fmt::v11::detail::copy_noinline<char, char const*, fmt::v11::basic_appender<char> >(char const*, char const*, fmt::v11::basic_appender<char>)
PUBLIC 2aea4 0 fmt::v11::detail::default_arg_formatter<char>::operator()<bool>(bool)
PUBLIC 2af0c 0 fmt::v11::detail::default_arg_formatter<char>::operator()<char>(char)
PUBLIC 2af9c 0 fmt::v11::detail::default_arg_formatter<char>::operator()<float>(float)
PUBLIC 2b088 0 fmt::v11::detail::default_arg_formatter<char>::operator()<double>(double)
PUBLIC 2b174 0 fmt::v11::detail::default_arg_formatter<char>::operator()<char const*>(char const*)
PUBLIC 2b1bc 0 fmt::v11::detail::default_arg_formatter<char>::operator()<void const*>(void const*)
PUBLIC 2b254 0 _ZN3fmt3v116detail5writeIcNS0_14basic_appenderIcEEiTnNSt6__ndk19enable_ifIXaaaasr11is_integralIT1_EE5valuentsr3std7is_sameIS7_bEE5valuentsr3std7is_sameIS7_T_EE5valueEiE4typeELi0EEET0_SB_S7_
PUBLIC 2b4b4 0 fmt::v11::detail::copy_noinline<char, char*, fmt::v11::basic_appender<char> >(char*, char*, fmt::v11::basic_appender<char>)
PUBLIC 2b604 0 _ZN3fmt3v116detail5writeIcNS0_14basic_appenderIcEEjTnNSt6__ndk19enable_ifIXaaaasr11is_integralIT1_EE5valuentsr3std7is_sameIS7_bEE5valuentsr3std7is_sameIS7_T_EE5valueEiE4typeELi0EEET0_SB_S7_
PUBLIC 2b7e4 0 _ZN3fmt3v116detail5writeIcNS0_14basic_appenderIcEExTnNSt6__ndk19enable_ifIXaaaasr11is_integralIT1_EE5valuentsr3std7is_sameIS7_bEE5valuentsr3std7is_sameIS7_T_EE5valueEiE4typeELi0EEET0_SB_S7_
PUBLIC 2ba68 0 _ZN3fmt3v116detail5writeIcNS0_14basic_appenderIcEEyTnNSt6__ndk19enable_ifIXaaaasr11is_integralIT1_EE5valuentsr3std7is_sameIS7_bEE5valuentsr3std7is_sameIS7_T_EE5valueEiE4typeELi0EEET0_SB_S7_
PUBLIC 2bc70 0 _ZN3fmt3v116detail5writeIcNS0_14basic_appenderIcEEnTnNSt6__ndk19enable_ifIXaaaasr11is_integralIT1_EE5valuentsr3std7is_sameIS7_bEE5valuentsr3std7is_sameIS7_T_EE5valueEiE4typeELi0EEET0_SB_S7_
PUBLIC 2bfd0 0 _ZN3fmt3v116detail5writeIcNS0_14basic_appenderIcEEoTnNSt6__ndk19enable_ifIXaaaasr11is_integralIT1_EE5valuentsr3std7is_sameIS7_bEE5valuentsr3std7is_sameIS7_T_EE5valueEiE4typeELi0EEET0_SB_S7_
PUBLIC 2c2e4 0 _ZN3fmt3v116detail5writeIcNS0_14basic_appenderIcEEbTnNSt6__ndk19enable_ifIXsr3std7is_sameIT1_bEE5valueEiE4typeELi0EEET0_SA_S7_RKNS0_12format_specsENS1_10locale_refE
PUBLIC 2c574 0 fmt::v11::detail::write_int_noinline<char, fmt::v11::basic_appender<char>, unsigned int>(fmt::v11::basic_appender<char>, fmt::v11::detail::write_int_arg<unsigned int>, fmt::v11::format_specs const&, fmt::v11::detail::locale_ref)
PUBLIC 2d350 0 fmt::v11::detail::fill<char, fmt::v11::basic_appender<char> >(fmt::v11::basic_appender<char>, unsigned long, fmt::v11::detail::fill_t const&)
PUBLIC 2d520 0 fmt::v11::detail::write_padded<char, (fmt::v11::align::type)1, fmt::v11::basic_appender<char>, fmt::v11::detail::write_char<char, fmt::v11::basic_appender<char> >(fmt::v11::basic_appender<char>, char, fmt::v11::format_specs const&)::{lambda(fmt::v11::basic_appender<char>&)#1}>(fmt::v11::basic_appender<char>, fmt::v11::format_specs const&, unsigned long, unsigned long, fmt::v11::detail::write_char<char, fmt::v11::basic_appender<char> >(fmt::v11::basic_appender<char>, char, fmt::v11::format_specs const&)::{lambda(fmt::v11::basic_appender<char>&)#1})
PUBLIC 2d75c 0 fmt::v11::detail::write_escaped_cp<fmt::v11::basic_appender<char>, char>(fmt::v11::basic_appender<char>, fmt::v11::detail::find_escape_result<char> const&)
PUBLIC 2da68 0 fmt::v11::detail::write_codepoint<(unsigned long)2, char, fmt::v11::basic_appender<char> >(fmt::v11::basic_appender<char>, char, unsigned int)
PUBLIC 2dbe0 0 fmt::v11::detail::write_codepoint<(unsigned long)8, char, fmt::v11::basic_appender<char> >(fmt::v11::basic_appender<char>, char, unsigned int)
PUBLIC 2dd58 0 fmt::v11::detail::write_padded<char, (fmt::v11::align::type)1, fmt::v11::basic_appender<char>, fmt::v11::detail::write_nonfinite<char, fmt::v11::basic_appender<char> >(fmt::v11::basic_appender<char>, bool, fmt::v11::format_specs, fmt::v11::sign::type)::{lambda(fmt::v11::basic_appender<char>&)#1}>(fmt::v11::basic_appender<char>, fmt::v11::format_specs const&, unsigned long, unsigned long, fmt::v11::detail::write_nonfinite<char, fmt::v11::basic_appender<char> >(fmt::v11::basic_appender<char>, bool, fmt::v11::format_specs, fmt::v11::sign::type)::{lambda(fmt::v11::basic_appender<char>&)#1})
PUBLIC 2df98 0 fmt::v11::detail::do_write_float<char, fmt::v11::basic_appender<char>, fmt::v11::detail::dragonbox::decimal_fp<float>, fmt::v11::detail::digit_grouping<char> >(fmt::v11::basic_appender<char>, fmt::v11::detail::dragonbox::decimal_fp<float> const&, fmt::v11::format_specs const&, fmt::v11::detail::float_specs, fmt::v11::detail::locale_ref)
PUBLIC 2ec0c 0 fmt::v11::detail::do_write_float<char, fmt::v11::basic_appender<char>, fmt::v11::detail::dragonbox::decimal_fp<float>, fmt::v11::detail::digit_grouping<char> >(fmt::v11::basic_appender<char>, fmt::v11::detail::dragonbox::decimal_fp<float> const&, fmt::v11::format_specs const&, fmt::v11::detail::float_specs, fmt::v11::detail::locale_ref)::{lambda(fmt::v11::basic_appender<char>(fmt::v11::basic_appender<char>))#1}::operator() const
PUBLIC 2ed60 0 fmt::v11::detail::digit_grouping<char>::digit_grouping(fmt::v11::detail::locale_ref, bool)
PUBLIC 2efcc 0 fmt::v11::detail::digit_grouping<char>::~digit_grouping()
PUBLIC 2f010 0 fmt::v11::detail::write_exponent<char, fmt::v11::basic_appender<char> >(int, fmt::v11::basic_appender<char>)
PUBLIC 2f1e0 0 _ZN3fmt3v116detail17write_significandIcjTnNSt6__ndk19enable_ifIXsr3std11is_integralIT0_EE5valueEiE4typeELi0EEEPT_S9_S5_iiS8_
PUBLIC 2f35c 0 fmt::v11::detail::digit_grouping<char>::apply<fmt::v11::basic_appender<char>, char>(fmt::v11::basic_appender<char>, fmt::v11::basic_string_view<char>) const
PUBLIC 2f714 0 fmt::v11::basic_memory_buffer<int, (unsigned long)500, std::__ndk1::allocator<int> >::grow(fmt::v11::detail::buffer<int>&, unsigned long)
PUBLIC 2f7b4 0 fmt::v11::detail::do_write_float<char, fmt::v11::basic_appender<char>, fmt::v11::detail::dragonbox::decimal_fp<double>, fmt::v11::detail::digit_grouping<char> >(fmt::v11::basic_appender<char>, fmt::v11::detail::dragonbox::decimal_fp<double> const&, fmt::v11::format_specs const&, fmt::v11::detail::float_specs, fmt::v11::detail::locale_ref)
PUBLIC 30468 0 fmt::v11::detail::do_write_float<char, fmt::v11::basic_appender<char>, fmt::v11::detail::dragonbox::decimal_fp<double>, fmt::v11::detail::digit_grouping<char> >(fmt::v11::basic_appender<char>, fmt::v11::detail::dragonbox::decimal_fp<double> const&, fmt::v11::format_specs const&, fmt::v11::detail::float_specs, fmt::v11::detail::locale_ref)::{lambda(fmt::v11::basic_appender<char>(fmt::v11::basic_appender<char>))#1}::operator() const
PUBLIC 305c0 0 _ZN3fmt3v116detail17write_significandIcmTnNSt6__ndk19enable_ifIXsr3std11is_integralIT0_EE5valueEiE4typeELi0EEEPT_S9_S5_iiS8_
PUBLIC 30750 0 fmt::v11::detail::write_float<char, fmt::v11::basic_appender<char>, long double>(fmt::v11::basic_appender<char>, long double, fmt::v11::format_specs, fmt::v11::detail::locale_ref)
PUBLIC 3124c 0 fmt::v11::detail::write_padded<char, (fmt::v11::align::type)2, fmt::v11::basic_appender<char>, fmt::v11::detail::write_bytes<char, (fmt::v11::align::type)2, fmt::v11::basic_appender<char> >(fmt::v11::basic_appender<char>, fmt::v11::basic_string_view<char>, fmt::v11::format_specs const&)::{lambda(fmt::v11::basic_appender<char>&)#1}>(fmt::v11::basic_appender<char>, fmt::v11::format_specs const&, unsigned long, unsigned long, fmt::v11::detail::write_bytes<char, (fmt::v11::align::type)2, fmt::v11::basic_appender<char> >(fmt::v11::basic_appender<char>, fmt::v11::basic_string_view<char>, fmt::v11::format_specs const&)::{lambda(fmt::v11::basic_appender<char>&)#1})
PUBLIC 31428 0 fmt::v11::detail::format_dragon(fmt::v11::detail::basic_fp<unsigned __int128>, unsigned int, int, fmt::v11::detail::buffer<char>&, int&)
PUBLIC 32858 0 fmt::v11::detail::bigint::operator<<=(int)
PUBLIC 3297c 0 fmt::v11::detail::bigint::assign_pow10(int)
PUBLIC 330d8 0 fmt::v11::detail::bigint::divmod_assign(fmt::v11::detail::bigint const&)
PUBLIC 333f8 0 fmt::v11::basic_memory_buffer<unsigned int, (unsigned long)32, std::__ndk1::allocator<unsigned int> >::grow(fmt::v11::detail::buffer<unsigned int>&, unsigned long)
PUBLIC 33498 0 fmt::v11::detail::do_write_float<char, fmt::v11::basic_appender<char>, fmt::v11::detail::big_decimal_fp, fmt::v11::detail::digit_grouping<char> >(fmt::v11::basic_appender<char>, fmt::v11::detail::big_decimal_fp const&, fmt::v11::format_specs const&, fmt::v11::detail::float_specs, fmt::v11::detail::locale_ref)
PUBLIC 34348 0 fmt::v11::detail::do_write_float<char, fmt::v11::basic_appender<char>, fmt::v11::detail::big_decimal_fp, fmt::v11::detail::digit_grouping<char> >(fmt::v11::basic_appender<char>, fmt::v11::detail::big_decimal_fp const&, fmt::v11::format_specs const&, fmt::v11::detail::float_specs, fmt::v11::detail::locale_ref)::{lambda(fmt::v11::basic_appender<char>(fmt::v11::basic_appender<char>))#1}::operator() const
PUBLIC 344a8 0 fmt::v11::detail::write_padded<char, (fmt::v11::align::type)2, fmt::v11::basic_appender<char>, fmt::v11::detail::write_ptr<char, fmt::v11::basic_appender<char>, unsigned long>(fmt::v11::basic_appender<char>, unsigned long, fmt::v11::format_specs const*)::{lambda(fmt::v11::basic_appender<char>&)#1}>(fmt::v11::basic_appender<char>, fmt::v11::format_specs const&, unsigned long, unsigned long, fmt::v11::detail::write_ptr<char, fmt::v11::basic_appender<char>, unsigned long>(fmt::v11::basic_appender<char>, unsigned long, fmt::v11::format_specs const*)::{lambda(fmt::v11::basic_appender<char>&)#1})
PUBLIC 346bc 0 fmt::v11::detail::parse_replacement_field<char, fmt::v11::detail::vformat_to<char>(fmt::v11::detail::buffer<char>&, fmt::v11::basic_string_view<char>, fmt::v11::detail::vformat_args<char>::type, fmt::v11::detail::locale_ref)::format_handler&>(char const*, char const*, fmt::v11::detail::vformat_to<char>(fmt::v11::detail::buffer<char>&, fmt::v11::basic_string_view<char>, fmt::v11::detail::vformat_args<char>::type, fmt::v11::detail::locale_ref)::format_handler&)
PUBLIC 36358 0 fmt::v11::detail::parse_dynamic_spec<char>(char const*, char const*, int&, fmt::v11::detail::arg_ref<char>&, fmt::v11::basic_format_parse_context<char>&)
PUBLIC 365e8 0 fmt::v11::basic_format_args<fmt::v11::context>::get<char>(fmt::v11::basic_string_view<char>) const
PUBLIC 36740 0 fmt::v11::detail::write_int_noinline<char, fmt::v11::basic_appender<char>, unsigned long>(fmt::v11::basic_appender<char>, fmt::v11::detail::write_int_arg<unsigned long>, fmt::v11::format_specs const&, fmt::v11::detail::locale_ref)
PUBLIC 37594 0 fmt::v11::detail::write_int_noinline<char, fmt::v11::basic_appender<char>, unsigned __int128>(fmt::v11::basic_appender<char>, fmt::v11::detail::write_int_arg<unsigned __int128>, fmt::v11::format_specs const&, fmt::v11::detail::locale_ref)
PUBLIC 385fc 0 _ZN3fmt3v116detail15format_hexfloatIdTnNSt6__ndk19enable_ifIXntsr16is_double_doubleIT_EE5valueEiE4typeELi0EEEvS5_NS0_12format_specsERNS1_6bufferIcEE
PUBLIC 38b1c 0 fmt::v11::detail::format_float<double>(double, int, fmt::v11::detail::float_specs, fmt::v11::detail::buffer<char>&)
PUBLIC 394bc 0 fmt::v11::detail::write<char, fmt::v11::basic_appender<char> >(fmt::v11::basic_appender<char>, fmt::v11::basic_string_view<char>, fmt::v11::format_specs const&)
PUBLIC 3a830 0 fmt::v11::detail::for_each_codepoint<fmt::v11::detail::compute_width(fmt::v11::basic_string_view<char>)::count_code_points>(fmt::v11::basic_string_view<char>, fmt::v11::detail::compute_width(fmt::v11::basic_string_view<char>)::count_code_points)::{lambda(char const*, char const*)#1}::operator()(char const*, char const*) const
PUBLIC 3a9e8 0 fmt::v11::detail::write_int<fmt::v11::basic_appender<char>, unsigned long, char>(fmt::v11::basic_appender<char>, unsigned long, unsigned int, fmt::v11::format_specs const&, fmt::v11::detail::digit_grouping<char> const&)
PUBLIC 3af64 0 fmt::v11::detail::write_int<fmt::v11::basic_appender<char>, unsigned __int128, char>(fmt::v11::basic_appender<char>, unsigned __int128, unsigned int, fmt::v11::format_specs const&, fmt::v11::detail::digit_grouping<char> const&)
PUBLIC 3b5e0 0 <.plt ELF section in raydeeux.zealousdateandtime.android64.so>
STACK CFI INIT 14330 10 .cfa: sp 0 +
STACK CFI INIT 14340 8 .cfa: sp 0 +
STACK CFI INIT 14348 8 .cfa: sp 0 +
STACK CFI INIT 14350 14 .cfa: sp 0 +
STACK CFI INIT 14364 1c .cfa: sp 0 +
STACK CFI INIT 14380 10 .cfa: sp 0 +
STACK CFI INIT 14390 30 .cfa: sp 0 +
STACK CFI INIT 143c0 98 .cfa: sp 0 +
STACK CFI INIT 14458 59c .cfa: sp 0 +
STACK CFI INIT 149f4 8c .cfa: sp 0 +
STACK CFI INIT 14a80 30 .cfa: sp 0 +
STACK CFI INIT 170b4 d8 .cfa: sp 0 +
STACK CFI 170b8 .cfa: sp 96 +
STACK CFI 170c4 .cfa: x29 32 + x19: .cfa -8 + ^ x20: .cfa -16 + ^ .ra: .cfa -24 + ^ x29: .cfa -32 + ^
STACK CFI 17178 .cfa: sp 96 +
STACK CFI 17184 .cfa: sp 0 +
STACK CFI 17188 .cfa: x29 32 +
STACK CFI INIT 17bb0 80 .cfa: sp 0 +
STACK CFI 17bb4 .cfa: sp 48 +
STACK CFI 17bc0 .cfa: x29 48 + x19: .cfa -8 + ^ x20: .cfa -16 + ^ x21: .cfa -24 + ^ x22: .cfa -32 + ^ .ra: .cfa -40 + ^ x29: .cfa -48 + ^
STACK CFI 17c0c .cfa: sp 48 +
STACK CFI 17c18 .cfa: sp 0 +
STACK CFI 17c1c .cfa: x29 48 +
STACK CFI 17c20 .cfa: sp 48 +
STACK CFI 17c2c .cfa: sp 0 +
STACK CFI INIT 17c30 60 .cfa: sp 0 +
STACK CFI INIT 17c90 118 .cfa: sp 0 +
STACK CFI 17c94 .cfa: sp 48 +
STACK CFI 17ca0 .cfa: x29 48 + x19: .cfa -8 + ^ x20: .cfa -16 + ^ x21: .cfa -32 + ^ .ra: .cfa -40 + ^ x29: .cfa -48 + ^
STACK CFI 17d00 .cfa: sp 48 +
STACK CFI 17d0c .cfa: sp 0 +
STACK CFI 17d10 .cfa: x29 48 +
STACK CFI INIT 17da8 14c .cfa: sp 0 +
STACK CFI 17dac .cfa: sp 96 +
STACK CFI 17dc4 .cfa: x29 80 + x19: .cfa -8 + ^ x20: .cfa -16 + ^ x21: .cfa -24 + ^ x22: .cfa -32 + ^ x23: .cfa -40 + ^ x24: .cfa -48 + ^ x25: .cfa -64 + ^ .ra: .cfa -72 + ^ x29: .cfa -80 + ^
STACK CFI 17ed4 .cfa: sp 96 +
STACK CFI 17eec .cfa: sp 0 +
STACK CFI 17ef0 .cfa: x29 80 +
STACK CFI INIT 17ef4 364 .cfa: sp 0 +
STACK CFI 17ef8 .cfa: sp 32 +
STACK CFI 17f00 .cfa: x29 32 + x19: .cfa -8 + ^ x20: .cfa -16 + ^ .ra: .cfa -24 + ^ x29: .cfa -32 + ^
STACK CFI 181ec .cfa: sp 32 +
STACK CFI 181f4 .cfa: sp 0 +
STACK CFI 181f8 .cfa: x29 32 +
STACK CFI 18234 .cfa: sp 32 +
STACK CFI 1823c .cfa: sp 0 +
STACK CFI 18240 .cfa: x29 32 +
STACK CFI 1824c .cfa: sp 32 +
STACK CFI 18254 .cfa: sp 0 +
STACK CFI INIT 18258 98 .cfa: sp 0 +
STACK CFI 1825c .cfa: sp 304 +
STACK CFI 18268 .cfa: x29 32 + x19: .cfa -8 + ^ x28: .cfa -16 + ^ .ra: .cfa -24 + ^ x29: .cfa -32 + ^
STACK CFI 182dc .cfa: sp 304 +
STACK CFI 182e8 .cfa: sp 0 +
STACK CFI 182ec .cfa: x29 32 +
STACK CFI INIT 182f0 80 .cfa: sp 0 +
STACK CFI 182f4 .cfa: sp 48 +
STACK CFI 18300 .cfa: x29 48 + x19: .cfa -8 + ^ x20: .cfa -16 + ^ x21: .cfa -24 + ^ x22: .cfa -32 + ^ .ra: .cfa -40 + ^ x29: .cfa -48 + ^
STACK CFI 18318 .cfa: sp 48 +
STACK CFI 18324 .cfa: sp 0 +
STACK CFI 18328 .cfa: x29 48 +
STACK CFI 18358 .cfa: sp 48 +
STACK CFI 18364 .cfa: sp 0 +
STACK CFI 18368 .cfa: x29 48 +
STACK CFI INIT 18370 14 .cfa: sp 0 +
STACK CFI 18374 .cfa: sp 16 +
STACK CFI 18378 .cfa: x29 16 + .ra: .cfa -8 + ^ x29: .cfa -16 + ^
STACK CFI INIT 183d4 30 .cfa: sp 0 +
STACK CFI 183d8 .cfa: sp 32 +
STACK CFI 183e0 .cfa: x29 32 + x19: .cfa -16 + ^ .ra: .cfa -24 + ^ x29: .cfa -32 + ^
STACK CFI 183f8 .cfa: sp 32 +
STACK CFI 18400 .cfa: sp 0 +
STACK CFI INIT 18404 34 .cfa: sp 0 +
STACK CFI 18408 .cfa: sp 32 +
STACK CFI 18410 .cfa: x29 32 + x19: .cfa -16 + ^ .ra: .cfa -24 + ^ x29: .cfa -32 + ^
STACK CFI INIT 18438 10 .cfa: sp 0 +
STACK CFI 1843c .cfa: sp 16 +
STACK CFI 18440 .cfa: x29 16 + .ra: .cfa -8 + ^ x29: .cfa -16 + ^
STACK CFI INIT 1e184 3c .cfa: sp 0 +
STACK CFI 1e188 .cfa: sp 32 +
STACK CFI 1e190 .cfa: x29 32 + x19: .cfa -16 + ^ .ra: .cfa -24 + ^ x29: .cfa -32 + ^
STACK CFI 1e1a4 .cfa: sp 32 +
STACK CFI 1e1ac .cfa: sp 0 +
STACK CFI 1e1b0 .cfa: x29 32 +
STACK CFI 1e1b4 .cfa: sp 32 +
STACK CFI 1e1bc .cfa: sp 0 +
STACK CFI INIT 1e1c0 c4 .cfa: sp 0 +
STACK CFI 1e1c4 .cfa: sp 32 +
STACK CFI 1e1cc .cfa: x29 32 + x19: .cfa -16 + ^ .ra: .cfa -24 + ^ x29: .cfa -32 + ^
STACK CFI 1e208 .cfa: sp 32 +
STACK CFI 1e210 .cfa: sp 0 +
STACK CFI 1e214 .cfa: x29 32 +
STACK CFI 1e278 .cfa: sp 32 +
STACK CFI 1e280 .cfa: sp 0 +
STACK CFI INIT 1e284 3c .cfa: sp 0 +
STACK CFI 1e288 .cfa: sp 32 +
STACK CFI 1e290 .cfa: x29 32 + x19: .cfa -16 + ^ .ra: .cfa -24 + ^ x29: .cfa -32 + ^
STACK CFI 1e2a4 .cfa: sp 32 +
STACK CFI 1e2ac .cfa: sp 0 +
STACK CFI 1e2b0 .cfa: x29 32 +
STACK CFI 1e2b4 .cfa: sp 32 +
STACK CFI 1e2bc .cfa: sp 0 +
STACK CFI INIT 1e2c0 154 .cfa: sp 0 +
STACK CFI 1e2c4 .cfa: sp 32 +
STACK CFI 1e2cc .cfa: x29 32 + x19: .cfa -16 + ^ .ra: .cfa -24 + ^ x29: .cfa -32 + ^
STACK CFI 1e338 .cfa: sp 32 +
STACK CFI 1e340 .cfa: sp 0 +
STACK CFI 1e344 .cfa: x29 32 +
STACK CFI 1e408 .cfa: sp 32 +
STACK CFI 1e410 .cfa: sp 0 +
STACK CFI INIT 1e414 78 .cfa: sp 0 +
STACK CFI 1e418 .cfa: sp 48 +
STACK CFI 1e424 .cfa: x29 48 + x19: .cfa -8 + ^ x20: .cfa -16 + ^ x21: .cfa -32 + ^ .ra: .cfa -40 + ^ x29: .cfa -48 + ^
STACK CFI 1e43c .cfa: sp 48 +
STACK CFI 1e448 .cfa: sp 0 +
STACK CFI 1e44c .cfa: x29 48 +
STACK CFI 1e47c .cfa: sp 48 +
STACK CFI 1e488 .cfa: sp 0 +
STACK CFI INIT 1e654 78 .cfa: sp 0 +
STACK CFI 1e658 .cfa: sp 48 +
STACK CFI 1e664 .cfa: x29 48 + x19: .cfa -8 + ^ x20: .cfa -16 + ^ x21: .cfa -32 + ^ .ra: .cfa -40 + ^ x29: .cfa -48 + ^
STACK CFI 1e67c .cfa: sp 48 +
STACK CFI 1e688 .cfa: sp 0 +
STACK CFI 1e68c .cfa: x29 48 +
STACK CFI 1e6bc .cfa: sp 48 +
STACK CFI 1e6c8 .cfa: sp 0 +
STACK CFI INIT 1eba8 54 .cfa: sp 0 +
STACK CFI 1ebac .cfa: sp 32 +
STACK CFI 1ebb4 .cfa: x29 32 + x19: .cfa -16 + ^ .ra: .cfa -24 + ^ x29: .cfa -32 + ^
STACK CFI 1ebe4 .cfa: sp 32 +
STACK CFI 1ebec .cfa: sp 0 +
STACK CFI 1ebf0 .cfa: sp 32 +
STACK CFI 1ebf8 .cfa: sp 0 +
STACK CFI INIT 1ebfc 44c .cfa: sp 0 +
STACK CFI INIT 1f048 1ac .cfa: sp 0 +
STACK CFI 1f04c .cfa: sp 32 +
STACK CFI 1f054 .cfa: x29 32 + x19: .cfa -8 + ^ x20: .cfa -16 + ^ .ra: .cfa -24 + ^ x29: .cfa -32 + ^
STACK CFI 1f144 .cfa: sp 32 +
STACK CFI 1f14c .cfa: sp 0 +
STACK CFI 1f150 .cfa: x29 32 +
STACK CFI INIT 1f4d8 78 .cfa: sp 0 +
STACK CFI 1f4dc .cfa: sp 48 +
STACK CFI 1f4e8 .cfa: x29 48 + x19: .cfa -8 + ^ x20: .cfa -16 + ^ x21: .cfa -32 + ^ .ra: .cfa -40 + ^ x29: .cfa -48 + ^
STACK CFI 1f500 .cfa: sp 48 +
STACK CFI 1f50c .cfa: sp 0 +
STACK CFI 1f510 .cfa: x29 48 +
STACK CFI 1f540 .cfa: sp 48 +
STACK CFI 1f54c .cfa: sp 0 +
STACK CFI INIT 1fa2c 54 .cfa: sp 0 +
STACK CFI 1fa30 .cfa: sp 32 +
STACK CFI 1fa38 .cfa: x29 32 + x19: .cfa -16 + ^ .ra: .cfa -24 + ^ x29: .cfa -32 + ^
STACK CFI 1fa68 .cfa: sp 32 +
STACK CFI 1fa70 .cfa: sp 0 +
STACK CFI 1fa74 .cfa: sp 32 +
STACK CFI 1fa7c .cfa: sp 0 +
STACK CFI INIT 1fa80 1ac .cfa: sp 0 +
STACK CFI 1fa84 .cfa: sp 32 +
STACK CFI 1fa8c .cfa: x29 32 + x19: .cfa -8 + ^ x20: .cfa -16 + ^ .ra: .cfa -24 + ^ x29: .cfa -32 + ^
STACK CFI 1fb7c .cfa: sp 32 +
STACK CFI 1fb84 .cfa: sp 0 +
STACK CFI 1fb88 .cfa: x29 32 +
STACK CFI INIT 1fc7c 30 .cfa: sp 0 +
STACK CFI 1fc80 .cfa: sp 32 +
STACK CFI 1fc88 .cfa: x29 32 + x19: .cfa -16 + ^ .ra: .cfa -24 + ^ x29: .cfa -32 + ^
STACK CFI 1fca0 .cfa: sp 32 +
STACK CFI 1fca8 .cfa: sp 0 +
STACK CFI INIT 1fcac ac .cfa: sp 0 +
STACK CFI 1fcb0 .cfa: sp 64 +
STACK CFI 1fcc0 .cfa: x29 64 + x19: .cfa -8 + ^ x20: .cfa -16 + ^ x21: .cfa -24 + ^ x22: .cfa -32 + ^ x23: .cfa -48 + ^ .ra: .cfa -56 + ^ x29: .cfa -64 + ^
STACK CFI 1fd3c .cfa: sp 64 +
STACK CFI 1fd4c .cfa: sp 0 +
STACK CFI 1fd50 .cfa: x29 64 +
STACK CFI INIT 1fd58 110 .cfa: sp 0 +
STACK CFI 1fd5c .cfa: sp 64 +
STACK CFI 1fd6c .cfa: x29 64 + x19: .cfa -8 + ^ x20: .cfa -16 + ^ x21: .cfa -24 + ^ x22: .cfa -32 + ^ x23: .cfa -40 + ^ x24: .cfa -48 + ^ .ra: .cfa -56 + ^ x29: .cfa -64 + ^
STACK CFI 1fe4c .cfa: sp 64 +
STACK CFI 1fe5c .cfa: sp 0 +
STACK CFI 1fe60 .cfa: x29 64 +
STACK CFI INIT 1ff9c 104 .cfa: sp 0 +
STACK CFI 1ffa0 .cfa: sp 64 +
STACK CFI 1ffb0 .cfa: x29 64 + x19: .cfa -8 + ^ x20: .cfa -16 + ^ x21: .cfa -24 + ^ x22: .cfa -32 + ^ x23: .cfa -48 + ^ .ra: .cfa -56 + ^ x29: .cfa -64 + ^
STACK CFI 2000c .cfa: sp 64 +
STACK CFI 2001c .cfa: sp 0 +
STACK CFI 20020 .cfa: x29 64 +
STACK CFI 2003c .cfa: sp 64 +
STACK CFI 2004c .cfa: sp 0 +
STACK CFI 20050 .cfa: x29 64 +
STACK CFI 2008c .cfa: sp 64 +
STACK CFI 2009c .cfa: sp 0 +
STACK CFI INIT 20348 50 .cfa: sp 0 +
STACK CFI 2034c .cfa: sp 32 +
STACK CFI 20354 .cfa: x29 32 + x19: .cfa -16 + ^ .ra: .cfa -24 + ^ x29: .cfa -32 + ^
STACK CFI 2036c .cfa: sp 32 +
STACK CFI 20374 .cfa: sp 0 +
STACK CFI 20378 .cfa: x29 32 +
STACK CFI 2038c .cfa: sp 32 +
STACK CFI 20394 .cfa: sp 0 +
STACK CFI INIT 20ce8 8 .cfa: sp 0 +
STACK CFI INIT 20cf0 24 .cfa: sp 0 +
STACK CFI 20cf4 .cfa: sp 32 +
STACK CFI 20cfc .cfa: x29 32 + x19: .cfa -16 + ^ .ra: .cfa -24 + ^ x29: .cfa -32 + ^
STACK CFI 20d08 .cfa: sp 32 +
STACK CFI 20d10 .cfa: sp 0 +
STACK CFI INIT 21470 1c .cfa: sp 0 +
STACK CFI INIT 2180c 50 .cfa: sp 0 +
STACK CFI 21810 .cfa: sp 32 +
STACK CFI 21818 .cfa: x29 32 + x19: .cfa -16 + ^ .ra: .cfa -24 + ^ x29: .cfa -32 + ^
STACK CFI 21830 .cfa: sp 32 +
STACK CFI 21838 .cfa: sp 0 +
STACK CFI 2183c .cfa: x29 32 +
STACK CFI 21850 .cfa: sp 32 +
STACK CFI 21858 .cfa: sp 0 +
STACK CFI INIT 218d0 7c .cfa: sp 0 +
STACK CFI 218d4 .cfa: sp 48 +
STACK CFI 218e0 .cfa: x29 48 + x19: .cfa -8 + ^ x20: .cfa -16 + ^ x21: .cfa -32 + ^ .ra: .cfa -40 + ^ x29: .cfa -48 + ^
STACK CFI 2192c .cfa: sp 48 +
STACK CFI 21938 .cfa: sp 0 +
STACK CFI 2193c .cfa: sp 48 +
STACK CFI 21948 .cfa: sp 0 +
STACK CFI INIT 2194c 4 .cfa: sp 0 +
STACK CFI INIT 21950 120 .cfa: sp 0 +
STACK CFI 21954 .cfa: sp 64 +
STACK CFI 21964 .cfa: x29 64 + x19: .cfa -8 + ^ x20: .cfa -16 + ^ x21: .cfa -24 + ^ x22: .cfa -32 + ^ x23: .cfa -40 + ^ x24: .cfa -48 + ^ .ra: .cfa -56 + ^ x29: .cfa -64 + ^
STACK CFI 21a5c .cfa: sp 64 +
STACK CFI 21a6c .cfa: sp 0 +
STACK CFI INIT 21a70 7c .cfa: sp 0 +
STACK CFI 21a74 .cfa: sp 32 +
STACK CFI 21a7c .cfa: x29 32 + x19: .cfa -8 + ^ x20: .cfa -16 + ^ .ra: .cfa -24 + ^ x29: .cfa -32 + ^
STACK CFI 21ad4 .cfa: sp 32 +
STACK CFI 21adc .cfa: sp 0 +
STACK CFI 21ae0 .cfa: sp 32 +
STACK CFI 21ae8 .cfa: sp 0 +
STACK CFI INIT 21aec 1b0 .cfa: sp 0 +
STACK CFI INIT 21df0 34 .cfa: sp 0 +
STACK CFI 21df4 .cfa: sp 16 +
STACK CFI 21df8 .cfa: x29 16 + .ra: .cfa -8 + ^ x29: .cfa -16 + ^
STACK CFI INIT 21f50 80 .cfa: sp 0 +
STACK CFI 21f54 .cfa: sp 48 +
STACK CFI 21f60 .cfa: x29 48 + x19: .cfa -8 + ^ x20: .cfa -16 + ^ x21: .cfa -32 + ^ .ra: .cfa -40 + ^ x29: .cfa -48 + ^
STACK CFI 21fc0 .cfa: sp 48 +
STACK CFI 21fcc .cfa: sp 0 +
STACK CFI INIT 21fd0 24 .cfa: sp 0 +
STACK CFI 21fd4 .cfa: sp 32 +
STACK CFI 21fdc .cfa: x29 32 + x19: .cfa -16 + ^ .ra: .cfa -24 + ^ x29: .cfa -32 + ^
STACK CFI 21fe8 .cfa: sp 32 +
STACK CFI 21ff0 .cfa: sp 0 +
STACK CFI INIT 224ec 148 .cfa: sp 0 +
STACK CFI 224f0 .cfa: sp 48 +
STACK CFI 224fc .cfa: x29 48 + x19: .cfa -8 + ^ x20: .cfa -16 + ^ x21: .cfa -32 + ^ .ra: .cfa -40 + ^ x29: .cfa -48 + ^
STACK CFI 22624 .cfa: sp 48 +
STACK CFI 22630 .cfa: sp 0 +
STACK CFI INIT 2279c 4 .cfa: sp 0 +
STACK CFI INIT 227a0 14 .cfa: sp 0 +
STACK CFI INIT 229dc 68 .cfa: sp 0 +
STACK CFI 229e0 .cfa: sp 32 +
STACK CFI 229e8 .cfa: x29 32 + x19: .cfa -8 + ^ x20: .cfa -16 + ^ .ra: .cfa -24 + ^ x29: .cfa -32 + ^
STACK CFI 22a00 .cfa: sp 32 +
STACK CFI 22a08 .cfa: sp 0 +
STACK CFI 22a0c .cfa: x29 32 +
STACK CFI 22a38 .cfa: sp 32 +
STACK CFI 22a40 .cfa: sp 0 +
STACK CFI INIT 22a44 14 .cfa: sp 0 +
STACK CFI 22a48 .cfa: sp 16 +
STACK CFI 22a4c .cfa: x29 16 + .ra: .cfa -8 + ^ x29: .cfa -16 + ^
STACK CFI INIT 22a58 4 .cfa: sp 0 +
STACK CFI INIT 22a5c 14 .cfa: sp 0 +
STACK CFI INIT 22a70 d4 .cfa: sp 0 +
STACK CFI 22a74 .cfa: sp 48 +
STACK CFI 22a80 .cfa: x29 48 + x19: .cfa -8 + ^ x20: .cfa -16 + ^ x21: .cfa -32 + ^ .ra: .cfa -40 + ^ x29: .cfa -48 + ^
STACK CFI 22b10 .cfa: sp 48 +
STACK CFI 22b1c .cfa: sp 0 +
STACK CFI 22b20 .cfa: x29 48 +
STACK CFI INIT 22b44 3c8 .cfa: sp 0 +
STACK CFI INIT 22f0c 8c .cfa: sp 0 +
STACK CFI 22f14 .cfa: sp 32 +
STACK CFI 22f1c .cfa: x29 32 + x19: .cfa -8 + ^ x20: .cfa -16 + ^ .ra: .cfa -24 + ^ x29: .cfa -32 + ^
STACK CFI 22f64 .cfa: sp 32 +
STACK CFI 22f6c .cfa: sp 0 +
STACK CFI 22f74 .cfa: x29 32 +
STACK CFI INIT 22f98 e4 .cfa: sp 0 +
STACK CFI 22f9c .cfa: sp 64 +
STACK CFI 22fa8 .cfa: x29 32 + x19: .cfa -8 + ^ x20: .cfa -16 + ^ .ra: .cfa -24 + ^ x29: .cfa -32 + ^
STACK CFI 23018 .cfa: sp 64 +
STACK CFI 23024 .cfa: sp 0 +
STACK CFI 23028 .cfa: x29 32 +
STACK CFI 23038 .cfa: sp 64 +
STACK CFI 23044 .cfa: sp 0 +
STACK CFI 23048 .cfa: x29 32 +
STACK CFI 23068 .cfa: sp 64 +
STACK CFI 23074 .cfa: sp 0 +
STACK CFI 23078 .cfa: x29 32 +
STACK CFI INIT 23154 50 .cfa: sp 0 +
STACK CFI 23158 .cfa: sp 32 +
STACK CFI 23160 .cfa: x29 32 + x19: .cfa -16 + ^ .ra: .cfa -24 + ^ x29: .cfa -32 + ^
STACK CFI 23178 .cfa: sp 32 +
STACK CFI 23180 .cfa: sp 0 +
STACK CFI 23184 .cfa: x29 32 +
STACK CFI 23198 .cfa: sp 32 +
STACK CFI 231a0 .cfa: sp 0 +
STACK CFI INIT 231a4 64 .cfa: sp 0 +
STACK CFI 231a8 .cfa: sp 32 +
STACK CFI 231b0 .cfa: x29 32 + x19: .cfa -16 + ^ .ra: .cfa -24 + ^ x29: .cfa -32 + ^
STACK CFI 231dc .cfa: sp 32 +
STACK CFI 231e4 .cfa: sp 0 +
STACK CFI 231e8 .cfa: x29 32 +
STACK CFI 231fc .cfa: sp 32 +
STACK CFI 23204 .cfa: sp 0 +
STACK CFI INIT 23208 178 .cfa: sp 0 +
STACK CFI 2320c .cfa: sp 80 +
STACK CFI 23220 .cfa: x29 80 + x19: .cfa -8 + ^ x20: .cfa -16 + ^ x21: .cfa -24 + ^ x22: .cfa -32 + ^ x23: .cfa -40 + ^ x24: .cfa -48 + ^ x25: .cfa -56 + ^ x26: .cfa -64 + ^ .ra: .cfa -72 + ^ x29: .cfa -80 + ^
STACK CFI 23368 .cfa: sp 80 +
STACK CFI 2337c .cfa: sp 0 +
STACK CFI INIT 23800 1c .cfa: sp 0 +
STACK CFI INIT 23b24 4 .cfa: sp 0 +
STACK CFI INIT 23d90 9c .cfa: sp 0 +
STACK CFI INIT 24bd4 50 .cfa: sp 0 +
STACK CFI 24bd8 .cfa: sp 32 +
STACK CFI 24be0 .cfa: x29 32 + x19: .cfa -16 + ^ .ra: .cfa -24 + ^ x29: .cfa -32 + ^
STACK CFI 24bf8 .cfa: sp 32 +
STACK CFI 24c00 .cfa: sp 0 +
STACK CFI 24c04 .cfa: x29 32 +
STACK CFI 24c18 .cfa: sp 32 +
STACK CFI 24c20 .cfa: sp 0 +
STACK CFI INIT 24c24 4 .cfa: sp 0 +
STACK CFI INIT 24c28 38 .cfa: sp 0 +
STACK CFI 24c2c .cfa: sp 32 +
STACK CFI 24c34 .cfa: x29 32 + x19: .cfa -16 + ^ .ra: .cfa -24 + ^ x29: .cfa -32 + ^
STACK CFI 24c54 .cfa: sp 32 +
STACK CFI 24c5c .cfa: sp 0 +
STACK CFI INIT 24c60 18 .cfa: sp 0 +
STACK CFI INIT 24c78 4 .cfa: sp 0 +
STACK CFI INIT 24c7c 4 .cfa: sp 0 +
STACK CFI INIT 24db8 1c .cfa: sp 0 +
STACK CFI INIT 24dd4 c .cfa: sp 0 +
STACK CFI INIT 24de0 50 .cfa: sp 0 +
STACK CFI 24de4 .cfa: sp 32 +
STACK CFI 24dec .cfa: x29 32 + x19: .cfa -16 + ^ .ra: .cfa -24 + ^ x29: .cfa -32 + ^
STACK CFI 24e04 .cfa: sp 32 +
STACK CFI 24e0c .cfa: sp 0 +
STACK CFI 24e10 .cfa: x29 32 +
STACK CFI 24e24 .cfa: sp 32 +
STACK CFI 24e2c .cfa: sp 0 +
STACK CFI INIT 24e30 50 .cfa: sp 0 +
STACK CFI 24e34 .cfa: sp 32 +
STACK CFI 24e3c .cfa: x29 32 + x19: .cfa -16 + ^ .ra: .cfa -24 + ^ x29: .cfa -32 + ^
STACK CFI 24e54 .cfa: sp 32 +
STACK CFI 24e5c .cfa: sp 0 +
STACK CFI 24e60 .cfa: x29 32 +
STACK CFI 24e74 .cfa: sp 32 +
STACK CFI 24e7c .cfa: sp 0 +
STACK CFI INIT 24e80 4 .cfa: sp 0 +
STACK CFI INIT 24ff8 9c .cfa: sp 0 +
STACK CFI 24ffc .cfa: sp 32 +
STACK CFI 25004 .cfa: x29 32 + x19: .cfa -8 + ^ x20: .cfa -16 + ^ .ra: .cfa -24 + ^ x29: .cfa -32 + ^
STACK CFI 25088 .cfa: sp 32 +
STACK CFI 25090 .cfa: sp 0 +
STACK CFI INIT 25094 a4 .cfa: sp 0 +
STACK CFI 25098 .cfa: sp 32 +
STACK CFI 250a0 .cfa: x29 32 + x19: .cfa -8 + ^ x20: .cfa -16 + ^ .ra: .cfa -24 + ^ x29: .cfa -32 + ^
STACK CFI 2512c .cfa: sp 32 +
STACK CFI 25134 .cfa: sp 0 +
STACK CFI INIT 25138 4 .cfa: sp 0 +
STACK CFI INIT 2513c 38 .cfa: sp 0 +
STACK CFI 25140 .cfa: sp 32 +
STACK CFI 25148 .cfa: x29 32 + x19: .cfa -16 + ^ .ra: .cfa -24 + ^ x29: .cfa -32 + ^
STACK CFI 25168 .cfa: sp 32 +
STACK CFI 25170 .cfa: sp 0 +
STACK CFI INIT 25174 18 .cfa: sp 0 +
STACK CFI INIT 2518c 4 .cfa: sp 0 +
STACK CFI INIT 25190 4 .cfa: sp 0 +
STACK CFI INIT 252d0 1c .cfa: sp 0 +
STACK CFI INIT 252ec c .cfa: sp 0 +
STACK CFI INIT 252f8 50 .cfa: sp 0 +
STACK CFI 252fc .cfa: sp 32 +
STACK CFI 25304 .cfa: x29 32 + x19: .cfa -16 + ^ .ra: .cfa -24 + ^ x29: .cfa -32 + ^
STACK CFI 2531c .cfa: sp 32 +
STACK CFI 25324 .cfa: sp 0 +
STACK CFI 25328 .cfa: x29 32 +
STACK CFI 2533c .cfa: sp 32 +
STACK CFI 25344 .cfa: sp 0 +
STACK CFI INIT 25348 4 .cfa: sp 0 +
STACK CFI INIT 2534c 38 .cfa: sp 0 +
STACK CFI 25350 .cfa: sp 32 +
STACK CFI 25358 .cfa: x29 32 + x19: .cfa -16 + ^ .ra: .cfa -24 + ^ x29: .cfa -32 + ^
STACK CFI 25378 .cfa: sp 32 +
STACK CFI 25380 .cfa: sp 0 +
STACK CFI INIT 25384 18 .cfa: sp 0 +
STACK CFI INIT 2539c 4 .cfa: sp 0 +
STACK CFI INIT 253a0 4 .cfa: sp 0 +
STACK CFI INIT 254e0 1c .cfa: sp 0 +
STACK CFI INIT 254fc c .cfa: sp 0 +
STACK CFI INIT 25508 4 .cfa: sp 0 +
STACK CFI INIT 2550c 38 .cfa: sp 0 +
STACK CFI 25510 .cfa: sp 32 +
STACK CFI 25518 .cfa: x29 32 + x19: .cfa -16 + ^ .ra: .cfa -24 + ^ x29: .cfa -32 + ^
STACK CFI 25538 .cfa: sp 32 +
STACK CFI 25540 .cfa: sp 0 +
STACK CFI INIT 25544 18 .cfa: sp 0 +
STACK CFI INIT 2555c 4 .cfa: sp 0 +
STACK CFI INIT 25560 4 .cfa: sp 0 +
STACK CFI INIT 25694 1c .cfa: sp 0 +
STACK CFI INIT 256b0 c .cfa: sp 0 +
STACK CFI INIT 256bc 50 .cfa: sp 0 +
STACK CFI 256c0 .cfa: sp 32 +
STACK CFI 256c8 .cfa: x29 32 + x19: .cfa -16 + ^ .ra: .cfa -24 + ^ x29: .cfa -32 + ^
STACK CFI 256e0 .cfa: sp 32 +
STACK CFI 256e8 .cfa: sp 0 +
STACK CFI 256ec .cfa: x29 32 +
STACK CFI 25700 .cfa: sp 32 +
STACK CFI 25708 .cfa: sp 0 +
STACK CFI INIT 2570c 4 .cfa: sp 0 +
STACK CFI INIT 25710 38 .cfa: sp 0 +
STACK CFI 25714 .cfa: sp 32 +
STACK CFI 2571c .cfa: x29 32 + x19: .cfa -16 + ^ .ra: .cfa -24 + ^ x29: .cfa -32 + ^
STACK CFI 2573c .cfa: sp 32 +
STACK CFI 25744 .cfa: sp 0 +
STACK CFI INIT 25748 18 .cfa: sp 0 +
STACK CFI INIT 25760 4 .cfa: sp 0 +
STACK CFI INIT 25764 4 .cfa: sp 0 +
STACK CFI INIT 25adc 1c .cfa: sp 0 +
STACK CFI INIT 25af8 c .cfa: sp 0 +
STACK CFI INIT 25b04 4 .cfa: sp 0 +
STACK CFI INIT 25b08 38 .cfa: sp 0 +
STACK CFI 25b0c .cfa: sp 32 +
STACK CFI 25b14 .cfa: x29 32 + x19: .cfa -16 + ^ .ra: .cfa -24 + ^ x29: .cfa -32 + ^
STACK CFI 25b34 .cfa: sp 32 +
STACK CFI 25b3c .cfa: sp 0 +
STACK CFI INIT 25b40 18 .cfa: sp 0 +
STACK CFI INIT 25b58 4 .cfa: sp 0 +
STACK CFI INIT 25b5c 4 .cfa: sp 0 +
STACK CFI INIT 25d08 1c .cfa: sp 0 +
STACK CFI INIT 25d24 c .cfa: sp 0 +
STACK CFI INIT 25d30 4 .cfa: sp 0 +
STACK CFI INIT 25d34 38 .cfa: sp 0 +
STACK CFI 25d38 .cfa: sp 32 +
STACK CFI 25d40 .cfa: x29 32 + x19: .cfa -16 + ^ .ra: .cfa -24 + ^ x29: .cfa -32 + ^
STACK CFI 25d60 .cfa: sp 32 +
STACK CFI 25d68 .cfa: sp 0 +
STACK CFI INIT 25d6c 18 .cfa: sp 0 +
STACK CFI INIT 25d84 4 .cfa: sp 0 +
STACK CFI INIT 25d88 4 .cfa: sp 0 +
STACK CFI INIT 25f34 1c .cfa: sp 0 +
STACK CFI INIT 25f50 c .cfa: sp 0 +
STACK CFI INIT 25f5c 4 .cfa: sp 0 +
STACK CFI INIT 25f60 38 .cfa: sp 0 +
STACK CFI 25f64 .cfa: sp 32 +
STACK CFI 25f6c .cfa: x29 32 + x19: .cfa -16 + ^ .ra: .cfa -24 + ^ x29: .cfa -32 + ^
STACK CFI 25f8c .cfa: sp 32 +
STACK CFI 25f94 .cfa: sp 0 +
STACK CFI INIT 25f98 18 .cfa: sp 0 +
STACK CFI INIT 25fb0 4 .cfa: sp 0 +
STACK CFI INIT 25fb4 4 .cfa: sp 0 +
STACK CFI INIT 26184 1c .cfa: sp 0 +
STACK CFI INIT 261a0 c .cfa: sp 0 +
STACK CFI INIT 261ac 4 .cfa: sp 0 +
STACK CFI INIT 261b0 38 .cfa: sp 0 +
STACK CFI 261b4 .cfa: sp 32 +
STACK CFI 261bc .cfa: x29 32 + x19: .cfa -16 + ^ .ra: .cfa -24 + ^ x29: .cfa -32 + ^
STACK CFI 261dc .cfa: sp 32 +
STACK CFI 261e4 .cfa: sp 0 +
STACK CFI INIT 261e8 18 .cfa: sp 0 +
STACK CFI INIT 26200 4 .cfa: sp 0 +
STACK CFI INIT 26204 4 .cfa: sp 0 +
STACK CFI INIT 263f4 1c .cfa: sp 0 +
STACK CFI INIT 26410 c .cfa: sp 0 +
STACK CFI INIT 2641c 50 .cfa: sp 0 +
STACK CFI 26420 .cfa: sp 32 +
STACK CFI 26428 .cfa: x29 32 + x19: .cfa -16 + ^ .ra: .cfa -24 + ^ x29: .cfa -32 + ^
STACK CFI 26440 .cfa: sp 32 +
STACK CFI 26448 .cfa: sp 0 +
STACK CFI 2644c .cfa: x29 32 +
STACK CFI 26460 .cfa: sp 32 +
STACK CFI 26468 .cfa: sp 0 +
STACK CFI INIT 2646c 4 .cfa: sp 0 +
STACK CFI INIT 26470 38 .cfa: sp 0 +
STACK CFI 26474 .cfa: sp 32 +
STACK CFI 2647c .cfa: x29 32 + x19: .cfa -16 + ^ .ra: .cfa -24 + ^ x29: .cfa -32 + ^
STACK CFI 2649c .cfa: sp 32 +
STACK CFI 264a4 .cfa: sp 0 +
STACK CFI INIT 264a8 18 .cfa: sp 0 +
STACK CFI INIT 264c0 4 .cfa: sp 0 +
STACK CFI INIT 264c4 4 .cfa: sp 0 +
STACK CFI INIT 26860 1c .cfa: sp 0 +
STACK CFI INIT 2687c c .cfa: sp 0 +
STACK CFI INIT 26888 4 .cfa: sp 0 +
STACK CFI INIT 2688c 4 .cfa: sp 0 +
STACK CFI INIT 26890 38 .cfa: sp 0 +
STACK CFI 26894 .cfa: sp 32 +
STACK CFI 2689c .cfa: x29 32 + x19: .cfa -16 + ^ .ra: .cfa -24 + ^ x29: .cfa -32 + ^
STACK CFI 268bc .cfa: sp 32 +
STACK CFI 268c4 .cfa: sp 0 +
STACK CFI INIT 268c8 18 .cfa: sp 0 +
STACK CFI INIT 268e0 4 .cfa: sp 0 +
STACK CFI INIT 268e4 4 .cfa: sp 0 +
STACK CFI INIT 26bbc 1c .cfa: sp 0 +
STACK CFI INIT 26bd8 c .cfa: sp 0 +
STACK CFI INIT 26be4 4 .cfa: sp 0 +
STACK CFI INIT 26d5c 5c .cfa: sp 0 +
STACK CFI 26d60 .cfa: sp 32 +
STACK CFI 26d68 .cfa: x29 32 + x19: .cfa -16 + ^ .ra: .cfa -24 + ^ x29: .cfa -32 + ^
STACK CFI 26dac .cfa: sp 32 +
STACK CFI 26db4 .cfa: sp 0 +
STACK CFI INIT 26db8 64 .cfa: sp 0 +
STACK CFI 26dbc .cfa: sp 32 +
STACK CFI 26dc4 .cfa: x29 32 + x19: .cfa -16 + ^ .ra: .cfa -24 + ^ x29: .cfa -32 + ^
STACK CFI 26e10 .cfa: sp 32 +
STACK CFI 26e18 .cfa: sp 0 +
STACK CFI INIT 26e1c 4 .cfa: sp 0 +
STACK CFI INIT 26e20 4 .cfa: sp 0 +
STACK CFI INIT 26e24 34 .cfa: sp 0 +
STACK CFI 26e28 .cfa: sp 32 +
STACK CFI 26e30 .cfa: x29 32 + x19: .cfa -16 + ^ .ra: .cfa -24 + ^ x29: .cfa -32 + ^
STACK CFI 26e4c .cfa: sp 32 +
STACK CFI 26e54 .cfa: sp 0 +
STACK CFI INIT 26e58 14 .cfa: sp 0 +
STACK CFI INIT 26e6c 4 .cfa: sp 0 +
STACK CFI INIT 26e70 4 .cfa: sp 0 +
STACK CFI INIT 26e74 10 .cfa: sp 0 +
STACK CFI INIT 26e84 1c .cfa: sp 0 +
STACK CFI INIT 26ea0 c .cfa: sp 0 +
STACK CFI INIT 26fd8 3c .cfa: sp 0 +
STACK CFI 26fdc .cfa: sp 32 +
STACK CFI 26fe4 .cfa: x29 32 + x19: .cfa -16 + ^ .ra: .cfa -24 + ^ x29: .cfa -32 + ^
STACK CFI 26ff0 .cfa: sp 32 +
STACK CFI 26ff8 .cfa: sp 0 +
STACK CFI 26ffc .cfa: x29 32 +
STACK CFI 27008 .cfa: sp 32 +
STACK CFI 27010 .cfa: sp 0 +
STACK CFI INIT 27014 4c .cfa: sp 0 +
STACK CFI 27018 .cfa: sp 32 +
STACK CFI 27020 .cfa: x29 32 + x19: .cfa -8 + ^ x20: .cfa -16 + ^ .ra: .cfa -24 + ^ x29: .cfa -32 + ^
STACK CFI 27048 .cfa: sp 32 +
STACK CFI 27050 .cfa: sp 0 +
STACK CFI 27054 .cfa: sp 32 +
STACK CFI 2705c .cfa: sp 0 +
STACK CFI INIT 27280 64 .cfa: sp 0 +
STACK CFI 27284 .cfa: sp 32 +
STACK CFI 2728c .cfa: x29 32 + x19: .cfa -16 + ^ .ra: .cfa -24 + ^ x29: .cfa -32 + ^
STACK CFI 272b8 .cfa: sp 32 +
STACK CFI 272c0 .cfa: sp 0 +
STACK CFI 272c4 .cfa: x29 32 +
STACK CFI 272d8 .cfa: sp 32 +
STACK CFI 272e0 .cfa: sp 0 +
STACK CFI INIT 272e4 24 .cfa: sp 0 +
STACK CFI 272e8 .cfa: sp 32 +
STACK CFI 272f0 .cfa: x29 32 + x19: .cfa -16 + ^ .ra: .cfa -24 + ^ x29: .cfa -32 + ^
STACK CFI 272fc .cfa: sp 32 +
STACK CFI 27304 .cfa: sp 0 +
STACK CFI INIT 27308 24 .cfa: sp 0 +
STACK CFI 2730c .cfa: sp 32 +
STACK CFI 27314 .cfa: x29 32 + x19: .cfa -16 + ^ .ra: .cfa -24 + ^ x29: .cfa -32 + ^
STACK CFI 27320 .cfa: sp 32 +
STACK CFI 27328 .cfa: sp 0 +
STACK CFI INIT 275bc 24 .cfa: sp 0 +
STACK CFI 275c0 .cfa: sp 32 +
STACK CFI 275c8 .cfa: x29 32 + x19: .cfa -16 + ^ .ra: .cfa -24 + ^ x29: .cfa -32 + ^
STACK CFI 275d4 .cfa: sp 32 +
STACK CFI 275dc .cfa: sp 0 +
STACK CFI INIT 27b94 24 .cfa: sp 0 +
STACK CFI 27b98 .cfa: sp 32 +
STACK CFI 27ba0 .cfa: x29 32 + x19: .cfa -16 + ^ .ra: .cfa -24 + ^ x29: .cfa -32 + ^
STACK CFI 27bac .cfa: sp 32 +
STACK CFI 27bb4 .cfa: sp 0 +
STACK CFI INIT 27edc 4 .cfa: sp 0 +
STACK CFI INIT 28768 4 .cfa: sp 0 +
STACK CFI INIT 2876c 14 .cfa: sp 0 +
STACK CFI INIT 28c60 c .cfa: sp 0 +
STACK CFI INIT 28c6c 24c .cfa: sp 0 +
STACK CFI INIT 28eb8 a0 .cfa: sp 0 +
STACK CFI 28ec4 .cfa: sp 32 +
STACK CFI 28f1c .cfa: sp 0 +
STACK CFI 28f20 .cfa: sp 32 +
STACK CFI 28f28 .cfa: sp 0 +
STACK CFI 28f2c .cfa: sp 32 +
STACK CFI 28f40 .cfa: sp 0 +
STACK CFI 28f44 .cfa: sp 32 +
STACK CFI 28f54 .cfa: sp 0 +
STACK CFI INIT 28f58 38 .cfa: sp 0 +
STACK CFI 28f64 .cfa: sp 32 +
STACK CFI 28f8c .cfa: sp 0 +
STACK CFI INIT 29224 7c .cfa: sp 0 +
STACK CFI 29228 .cfa: sp 32 +
STACK CFI 29230 .cfa: x29 32 + x19: .cfa -16 + ^ .ra: .cfa -24 + ^ x29: .cfa -32 + ^
STACK CFI 2925c .cfa: sp 32 +
STACK CFI 29264 .cfa: sp 0 +
STACK CFI 29268 .cfa: x29 32 +
STACK CFI 29294 .cfa: sp 32 +
STACK CFI 2929c .cfa: sp 0 +
STACK CFI INIT 292f0 2c .cfa: sp 0 +
STACK CFI 292f4 .cfa: sp 32 +
STACK CFI 292fc .cfa: x29 32 + x19: .cfa -16 + ^ .ra: .cfa -24 + ^ x29: .cfa -32 + ^
STACK CFI 29310 .cfa: sp 32 +
STACK CFI 29318 .cfa: sp 0 +
STACK CFI INIT 29adc 64 .cfa: sp 0 +
STACK CFI 29ae0 .cfa: sp 32 +
STACK CFI 29ae8 .cfa: x29 32 + x19: .cfa -16 + ^ .ra: .cfa -24 + ^ x29: .cfa -32 + ^
STACK CFI 29b04 .cfa: sp 32 +
STACK CFI 29b0c .cfa: sp 0 +
STACK CFI 29b10 .cfa: x29 32 +
STACK CFI 29b34 .cfa: sp 32 +
STACK CFI 29b3c .cfa: sp 0 +
STACK CFI INIT 29c7c 570 .cfa: sp 0 +
STACK CFI 29c80 .cfa: sp 176 +
STACK CFI 29c94 .cfa: x29 64 + x19: .cfa -8 + ^ x20: .cfa -16 + ^ x21: .cfa -24 + ^ x22: .cfa -32 + ^ x23: .cfa -40 + ^ x24: .cfa -48 + ^ .ra: .cfa -56 + ^ x29: .cfa -64 + ^
STACK CFI 29ec4 .cfa: sp 176 +
STACK CFI 29ed8 .cfa: sp 0 +
STACK CFI 29edc .cfa: x29 64 +
STACK CFI 29f28 .cfa: sp 176 +
STACK CFI 29f3c .cfa: sp 0 +
STACK CFI 29f40 .cfa: x29 64 +
STACK CFI 29f78 .cfa: sp 176 +
STACK CFI 29f8c .cfa: sp 0 +
STACK CFI 29f90 .cfa: x29 64 +
STACK CFI 29fa8 .cfa: sp 176 +
STACK CFI 29fbc .cfa: sp 0 +
STACK CFI 29fc0 .cfa: x29 64 +
STACK CFI 29fe0 .cfa: sp 176 +
STACK CFI 29ff4 .cfa: sp 0 +
STACK CFI 29ff8 .cfa: x29 64 +
STACK CFI 2a010 .cfa: sp 176 +
STACK CFI 2a024 .cfa: sp 0 +
STACK CFI 2a028 .cfa: x29 64 +
STACK CFI 2a03c .cfa: sp 176 +
STACK CFI 2a050 .cfa: sp 0 +
STACK CFI 2a054 .cfa: x29 64 +
STACK CFI 2a068 .cfa: sp 176 +
STACK CFI 2a07c .cfa: sp 0 +
STACK CFI 2a080 .cfa: x29 64 +
STACK CFI 2a090 .cfa: sp 176 +
STACK CFI 2a0a4 .cfa: sp 0 +
STACK CFI 2a0a8 .cfa: x29 64 +
STACK CFI 2a0b8 .cfa: sp 176 +
STACK CFI 2a0cc .cfa: sp 0 +
STACK CFI 2a0d0 .cfa: x29 64 +
STACK CFI 2a0e8 .cfa: sp 176 +
STACK CFI 2a0fc .cfa: sp 0 +
STACK CFI 2a100 .cfa: x29 64 +
STACK CFI 2a114 .cfa: sp 176 +
STACK CFI 2a128 .cfa: sp 0 +
STACK CFI 2a12c .cfa: x29 64 +
STACK CFI 2a144 .cfa: sp 176 +
STACK CFI 2a158 .cfa: sp 0 +
STACK CFI 2a15c .cfa: x29 64 +
STACK CFI 2a188 .cfa: sp 176 +
STACK CFI 2a19c .cfa: sp 0 +
STACK CFI 2a1a0 .cfa: x29 64 +
STACK CFI 2a1b4 .cfa: sp 176 +
STACK CFI 2a1c8 .cfa: sp 0 +
STACK CFI 2a1cc .cfa: x29 64 +
STACK CFI INIT 2a1ec 228 .cfa: sp 0 +
STACK CFI INIT 2a414 2dc .cfa: sp 0 +
STACK CFI INIT 2a6f0 53c .cfa: sp 0 +
STACK CFI INIT 2ac2c 78 .cfa: sp 0 +
STACK CFI 2ac30 .cfa: sp 48 +
STACK CFI 2ac3c .cfa: x29 48 + x19: .cfa -8 + ^ x20: .cfa -16 + ^ x21: .cfa -24 + ^ x22: .cfa -32 + ^ .ra: .cfa -40 + ^ x29: .cfa -48 + ^
STACK CFI 2ac84 .cfa: sp 48 +
STACK CFI 2ac90 .cfa: sp 0 +
STACK CFI 2ac94 .cfa: sp 48 +
STACK CFI 2aca0 .cfa: sp 0 +
STACK CFI INIT 2aca4 8c .cfa: sp 0 +
STACK CFI 2aca8 .cfa: sp 32 +
STACK CFI 2acb0 .cfa: x29 32 + x19: .cfa -16 + ^ .ra: .cfa -24 + ^ x29: .cfa -32 + ^
STACK CFI 2ace4 .cfa: sp 32 +
STACK CFI 2acec .cfa: sp 0 +
STACK CFI 2acf0 .cfa: x29 32 +
STACK CFI 2ad24 .cfa: sp 32 +
STACK CFI 2ad2c .cfa: sp 0 +
STACK CFI INIT 2ad30 24 .cfa: sp 0 +
STACK CFI 2ad34 .cfa: sp 32 +
STACK CFI 2ad3c .cfa: x29 32 + x19: .cfa -16 + ^ .ra: .cfa -24 + ^ x29: .cfa -32 + ^
STACK CFI 2ad48 .cfa: sp 32 +
STACK CFI 2ad50 .cfa: sp 0 +
STACK CFI INIT 2ad54 150 .cfa: sp 0 +
STACK CFI 2ad58 .cfa: sp 48 +
STACK CFI 2ad64 .cfa: x29 48 + x19: .cfa -8 + ^ x20: .cfa -16 + ^ x21: .cfa -24 + ^ x22: .cfa -32 + ^ .ra: .cfa -40 + ^ x29: .cfa -48 + ^
STACK CFI 2ae94 .cfa: sp 48 +
STACK CFI 2aea0 .cfa: sp 0 +
STACK CFI INIT 2aea4 68 .cfa: sp 0 +
STACK CFI 2aea8 .cfa: sp 64 +
STACK CFI 2aeb4 .cfa: x29 32 + x19: .cfa -16 + ^ .ra: .cfa -24 + ^ x29: .cfa -32 + ^
STACK CFI 2aef8 .cfa: sp 64 +
STACK CFI 2af04 .cfa: sp 0 +
STACK CFI 2af08 .cfa: x29 32 +
STACK CFI INIT 2af0c 90 .cfa: sp 0 +
STACK CFI 2af10 .cfa: sp 32 +
STACK CFI 2af18 .cfa: x29 32 + x19: .cfa -8 + ^ x20: .cfa -16 + ^ .ra: .cfa -24 + ^ x29: .cfa -32 + ^
STACK CFI 2af44 .cfa: sp 32 +
STACK CFI 2af4c .cfa: sp 0 +
STACK CFI 2af50 .cfa: x29 32 +
STACK CFI 2af90 .cfa: sp 32 +
STACK CFI 2af98 .cfa: sp 0 +
STACK CFI INIT 2af9c ec .cfa: sp 0 +
STACK CFI 2afa0 .cfa: sp 112 +
STACK CFI 2afb0 .cfa: x29 48 + x19: .cfa -8 + ^ x20: .cfa -16 + ^ x21: .cfa -32 + ^ .ra: .cfa -40 + ^ x29: .cfa -48 + ^
STACK CFI 2b070 .cfa: sp 112 +
STACK CFI 2b080 .cfa: sp 0 +
STACK CFI 2b084 .cfa: x29 48 +
STACK CFI INIT 2b088 ec .cfa: sp 0 +
STACK CFI 2b08c .cfa: sp 112 +
STACK CFI 2b09c .cfa: x29 48 + x19: .cfa -8 + ^ x20: .cfa -16 + ^ x21: .cfa -32 + ^ .ra: .cfa -40 + ^ x29: .cfa -48 + ^
STACK CFI 2b15c .cfa: sp 112 +
STACK CFI 2b16c .cfa: sp 0 +
STACK CFI 2b170 .cfa: x29 48 +
STACK CFI INIT 2b174 48 .cfa: sp 0 +
STACK CFI 2b178 .cfa: sp 32 +
STACK CFI 2b180 .cfa: x29 32 + x19: .cfa -8 + ^ x20: .cfa -16 + ^ .ra: .cfa -24 + ^ x29: .cfa -32 + ^
STACK CFI 2b1a4 .cfa: sp 32 +
STACK CFI 2b1ac .cfa: sp 0 +
STACK CFI 2b1b0 .cfa: x29 32 +
STACK CFI INIT 2b1bc 98 .cfa: sp 0 +
STACK CFI 2b1c0 .cfa: sp 80 +
STACK CFI 2b1cc .cfa: x29 32 + x19: .cfa -16 + ^ .ra: .cfa -24 + ^ x29: .cfa -32 + ^
STACK CFI 2b240 .cfa: sp 80 +
STACK CFI 2b24c .cfa: sp 0 +
STACK CFI 2b250 .cfa: x29 32 +
STACK CFI INIT 2b254 260 .cfa: sp 0 +
STACK CFI 2b258 .cfa: sp 112 +
STACK CFI 2b270 .cfa: x29 80 + x19: .cfa -8 + ^ x20: .cfa -16 + ^ x21: .cfa -24 + ^ x22: .cfa -32 + ^ x23: .cfa -40 + ^ x24: .cfa -48 + ^ x25: .cfa -64 + ^ .ra: .cfa -72 + ^ x29: .cfa -80 + ^
STACK CFI 2b454 .cfa: sp 112 +
STACK CFI 2b46c .cfa: sp 0 +
STACK CFI 2b470 .cfa: x29 80 +
STACK CFI INIT 2b4b4 150 .cfa: sp 0 +
STACK CFI 2b4b8 .cfa: sp 48 +
STACK CFI 2b4c4 .cfa: x29 48 + x19: .cfa -8 + ^ x20: .cfa -16 + ^ x21: .cfa -24 + ^ x22: .cfa -32 + ^ .ra: .cfa -40 + ^ x29: .cfa -48 + ^
STACK CFI 2b5f4 .cfa: sp 48 +
STACK CFI 2b600 .cfa: sp 0 +
STACK CFI INIT 2b604 1e0 .cfa: sp 0 +
STACK CFI 2b608 .cfa: sp 96 +
STACK CFI 2b61c .cfa: x29 64 + x19: .cfa -8 + ^ x20: .cfa -16 + ^ x21: .cfa -24 + ^ x22: .cfa -32 + ^ x23: .cfa -40 + ^ x24: .cfa -48 + ^ .ra: .cfa -56 + ^ x29: .cfa -64 + ^
STACK CFI 2b79c .cfa: sp 96 +
STACK CFI 2b7b0 .cfa: sp 0 +
STACK CFI 2b7b4 .cfa: x29 64 +
STACK CFI INIT 2b7e4 284 .cfa: sp 0 +
STACK CFI 2b7e8 .cfa: sp 112 +
STACK CFI 2b800 .cfa: x29 80 + x19: .cfa -8 + ^ x20: .cfa -16 + ^ x21: .cfa -24 + ^ x22: .cfa -32 + ^ x23: .cfa -40 + ^ x24: .cfa -48 + ^ x25: .cfa -64 + ^ .ra: .cfa -72 + ^ x29: .cfa -80 + ^
STACK CFI 2ba08 .cfa: sp 112 +
STACK CFI 2ba20 .cfa: sp 0 +
STACK CFI 2ba24 .cfa: x29 80 +
STACK CFI INIT 2ba68 208 .cfa: sp 0 +
STACK CFI 2ba6c .cfa: sp 96 +
STACK CFI 2ba80 .cfa: x29 64 + x19: .cfa -8 + ^ x20: .cfa -16 + ^ x21: .cfa -24 + ^ x22: .cfa -32 + ^ x23: .cfa -40 + ^ x24: .cfa -48 + ^ .ra: .cfa -56 + ^ x29: .cfa -64 + ^
STACK CFI 2bc28 .cfa: sp 96 +
STACK CFI 2bc3c .cfa: sp 0 +
STACK CFI 2bc40 .cfa: x29 64 +
STACK CFI INIT 2bc70 360 .cfa: sp 0 +
STACK CFI 2bc74 .cfa: sp 160 +
STACK CFI 2bc90 .cfa: x29 96 + x19: .cfa -8 + ^ x20: .cfa -16 + ^ x21: .cfa -24 + ^ x22: .cfa -32 + ^ x23: .cfa -40 + ^ x24: .cfa -48 + ^ x25: .cfa -56 + ^ x26: .cfa -64 + ^ x27: .cfa -72 + ^ x28: .cfa -80 + ^ .ra: .cfa -88 + ^ x29: .cfa -96 + ^
STACK CFI 2bf5c .cfa: sp 160 +
STACK CFI 2bf78 .cfa: sp 0 +
STACK CFI 2bf7c .cfa: x29 96 +
STACK CFI INIT 2bfd0 314 .cfa: sp 0 +
STACK CFI 2bfd4 .cfa: sp 144 +
STACK CFI 2bff0 .cfa: x29 96 + x19: .cfa -8 + ^ x20: .cfa -16 + ^ x21: .cfa -24 + ^ x22: .cfa -32 + ^ x23: .cfa -40 + ^ x24: .cfa -48 + ^ x25: .cfa -56 + ^ x26: .cfa -64 + ^ x27: .cfa -72 + ^ x28: .cfa -80 + ^ .ra: .cfa -88 + ^ x29: .cfa -96 + ^
STACK CFI 2c26c .cfa: sp 144 +
STACK CFI 2c288 .cfa: sp 0 +
STACK CFI 2c28c .cfa: x29 96 +
STACK CFI INIT 2c2e4 290 .cfa: sp 0 +
STACK CFI 2c2e8 .cfa: sp 128 +
STACK CFI 2c300 .cfa: x29 80 + x19: .cfa -8 + ^ x20: .cfa -16 + ^ x21: .cfa -24 + ^ x22: .cfa -32 + ^ x23: .cfa -40 + ^ x24: .cfa -48 + ^ x25: .cfa -56 + ^ x26: .cfa -64 + ^ .ra: .cfa -72 + ^ x29: .cfa -80 + ^
STACK CFI 2c554 .cfa: sp 128 +
STACK CFI 2c56c .cfa: sp 0 +
STACK CFI 2c570 .cfa: x29 80 +
STACK CFI INIT 2c574 ddc .cfa: sp 0 +
STACK CFI 2c578 .cfa: sp 144 +
STACK CFI 2c594 .cfa: x29 96 + x19: .cfa -8 + ^ x20: .cfa -16 + ^ x21: .cfa -24 + ^ x22: .cfa -32 + ^ x23: .cfa -40 + ^ x24: .cfa -48 + ^ x25: .cfa -56 + ^ x26: .cfa -64 + ^ x27: .cfa -72 + ^ x28: .cfa -80 + ^ .ra: .cfa -88 + ^ x29: .cfa -96 + ^
STACK CFI 2d228 .cfa: sp 144 +
STACK CFI 2d244 .cfa: sp 0 +
STACK CFI 2d248 .cfa: x29 96 +
STACK CFI INIT 2d350 1d0 .cfa: sp 0 +
STACK CFI 2d354 .cfa: sp 80 +
STACK CFI 2d368 .cfa: x29 80 + x19: .cfa -8 + ^ x20: .cfa -16 + ^ x21: .cfa -24 + ^ x22: .cfa -32 + ^ x23: .cfa -40 + ^ x24: .cfa -48 + ^ x25: .cfa -64 + ^ .ra: .cfa -72 + ^ x29: .cfa -80 + ^
STACK CFI 2d508 .cfa: sp 80 +
STACK CFI 2d51c .cfa: sp 0 +
STACK CFI INIT 2d520 23c .cfa: sp 0 +
STACK CFI 2d524 .cfa: sp 112 +
STACK CFI 2d538 .cfa: x29 64 + x19: .cfa -8 + ^ x20: .cfa -16 + ^ x21: .cfa -24 + ^ x22: .cfa -32 + ^ x23: .cfa -40 + ^ x24: .cfa -48 + ^ .ra: .cfa -56 + ^ x29: .cfa -64 + ^
STACK CFI 2d714 .cfa: sp 112 +
STACK CFI 2d728 .cfa: sp 0 +
STACK CFI 2d72c .cfa: x29 64 +
STACK CFI INIT 2d75c 30c .cfa: sp 0 +
STACK CFI 2d760 .cfa: sp 80 +
STACK CFI 2d774 .cfa: x29 64 + x19: .cfa -8 + ^ x20: .cfa -16 + ^ x21: .cfa -24 + ^ x22: .cfa -32 + ^ x23: .cfa -40 + ^ x24: .cfa -48 + ^ .ra: .cfa -56 + ^ x29: .cfa -64 + ^
STACK CFI 2d8f0 .cfa: sp 80 +
STACK CFI 2d904 .cfa: sp 0 +
STACK CFI 2d908 .cfa: x29 64 +
STACK CFI INIT 2da68 178 .cfa: sp 0 +
STACK CFI 2da6c .cfa: sp 80 +
STACK CFI 2da80 .cfa: x29 64 + x19: .cfa -8 + ^ x20: .cfa -16 + ^ x21: .cfa -24 + ^ x22: .cfa -32 + ^ x23: .cfa -40 + ^ x24: .cfa -48 + ^ .ra: .cfa -56 + ^ x29: .cfa -64 + ^
STACK CFI 2dbc4 .cfa: sp 80 +
STACK CFI 2dbd8 .cfa: sp 0 +
STACK CFI 2dbdc .cfa: x29 64 +
STACK CFI INIT 2dbe0 178 .cfa: sp 0 +
STACK CFI 2dbe4 .cfa: sp 80 +
STACK CFI 2dbf8 .cfa: x29 64 + x19: .cfa -8 + ^ x20: .cfa -16 + ^ x21: .cfa -24 + ^ x22: .cfa -32 + ^ x23: .cfa -40 + ^ x24: .cfa -48 + ^ .ra: .cfa -56 + ^ x29: .cfa -64 + ^
STACK CFI 2dd3c .cfa: sp 80 +
STACK CFI 2dd50 .cfa: sp 0 +
STACK CFI 2dd54 .cfa: x29 64 +
STACK CFI INIT 2dd58 240 .cfa: sp 0 +
STACK CFI 2dd5c .cfa: sp 96 +
STACK CFI 2dd74 .cfa: x29 96 + x19: .cfa -8 + ^ x20: .cfa -16 + ^ x21: .cfa -24 + ^ x22: .cfa -32 + ^ x23: .cfa -40 + ^ x24: .cfa -48 + ^ x25: .cfa -56 + ^ x26: .cfa -64 + ^ x27: .cfa -72 + ^ x28: .cfa -80 + ^ .ra: .cfa -88 + ^ x29: .cfa -96 + ^
STACK CFI 2df7c .cfa: sp 96 +
STACK CFI 2df94 .cfa: sp 0 +
STACK CFI INIT 2ec0c 154 .cfa: sp 0 +
STACK CFI 2ec10 .cfa: sp 96 +
STACK CFI 2ec24 .cfa: x29 64 + x19: .cfa -8 + ^ x20: .cfa -16 + ^ x21: .cfa -24 + ^ x22: .cfa -32 + ^ x23: .cfa -48 + ^ .ra: .cfa -56 + ^ x29: .cfa -64 + ^
STACK CFI 2ed04 .cfa: sp 96 +
STACK CFI 2ed18 .cfa: sp 0 +
STACK CFI 2ed1c .cfa: x29 64 +
STACK CFI INIT 2efcc 44 .cfa: sp 0 +
STACK CFI 2efd0 .cfa: sp 32 +
STACK CFI 2efd8 .cfa: x29 32 + x19: .cfa -16 + ^ .ra: .cfa -24 + ^ x29: .cfa -32 + ^
STACK CFI 2eff4 .cfa: sp 32 +
STACK CFI 2effc .cfa: sp 0 +
STACK CFI 2f000 .cfa: x29 32 +
STACK CFI 2f004 .cfa: sp 32 +
STACK CFI 2f00c .cfa: sp 0 +
STACK CFI INIT 2f010 1d0 .cfa: sp 0 +
STACK CFI 2f014 .cfa: sp 64 +
STACK CFI 2f024 .cfa: x29 64 + x19: .cfa -8 + ^ x20: .cfa -16 + ^ x21: .cfa -24 + ^ x22: .cfa -32 + ^ x23: .cfa -40 + ^ x24: .cfa -48 + ^ .ra: .cfa -56 + ^ x29: .cfa -64 + ^
STACK CFI 2f0e4 .cfa: sp 64 +
STACK CFI 2f0f4 .cfa: sp 0 +
STACK CFI 2f0f8 .cfa: x29 64 +
STACK CFI INIT 2f1e0 17c .cfa: sp 0 +
STACK CFI INIT 2f714 a0 .cfa: sp 0 +
STACK CFI 2f718 .cfa: sp 48 +
STACK CFI 2f724 .cfa: x29 48 + x19: .cfa -8 + ^ x20: .cfa -16 + ^ x21: .cfa -24 + ^ x22: .cfa -32 + ^ .ra: .cfa -40 + ^ x29: .cfa -48 + ^
STACK CFI 2f790 .cfa: sp 48 +
STACK CFI 2f79c .cfa: sp 0 +
STACK CFI 2f7a0 .cfa: sp 48 +
STACK CFI 2f7ac .cfa: sp 0 +
STACK CFI 2f7b0 .cfa: x29 48 +
STACK CFI INIT 30468 158 .cfa: sp 0 +
STACK CFI 3046c .cfa: sp 96 +
STACK CFI 30480 .cfa: x29 64 + x19: .cfa -8 + ^ x20: .cfa -16 + ^ x21: .cfa -24 + ^ x22: .cfa -32 + ^ x23: .cfa -48 + ^ .ra: .cfa -56 + ^ x29: .cfa -64 + ^
STACK CFI 30564 .cfa: sp 96 +
STACK CFI 30578 .cfa: sp 0 +
STACK CFI 3057c .cfa: x29 64 +
STACK CFI INIT 305c0 190 .cfa: sp 0 +
STACK CFI INIT 3124c 1dc .cfa: sp 0 +
STACK CFI 31250 .cfa: sp 80 +
STACK CFI 31264 .cfa: x29 80 + x19: .cfa -8 + ^ x20: .cfa -16 + ^ x21: .cfa -24 + ^ x22: .cfa -32 + ^ x23: .cfa -40 + ^ x24: .cfa -48 + ^ x25: .cfa -64 + ^ .ra: .cfa -72 + ^ x29: .cfa -80 + ^
STACK CFI 31410 .cfa: sp 80 +
STACK CFI 31424 .cfa: sp 0 +
STACK CFI INIT 32858 124 .cfa: sp 0 +
STACK CFI 32888 .cfa: sp 32 +
STACK CFI 32890 .cfa: x29 32 + x19: .cfa -8 + ^ x20: .cfa -16 + ^ .ra: .cfa -24 + ^ x29: .cfa -32 + ^
STACK CFI 32970 .cfa: sp 32 +
STACK CFI 32978 .cfa: sp 0 +
STACK CFI INIT 330d8 320 .cfa: sp 0 +
STACK CFI 330dc .cfa: sp 64 +
STACK CFI 330ec .cfa: x29 64 + x19: .cfa -8 + ^ x20: .cfa -16 + ^ x21: .cfa -24 + ^ x22: .cfa -32 + ^ x23: .cfa -40 + ^ x24: .cfa -48 + ^ .ra: .cfa -56 + ^ x29: .cfa -64 + ^
STACK CFI 33168 .cfa: sp 64 +
STACK CFI 33178 .cfa: sp 0 +
STACK CFI 3317c .cfa: x29 64 +
STACK CFI 33350 .cfa: sp 64 +
STACK CFI 33360 .cfa: sp 0 +
STACK CFI 33364 .cfa: x29 64 +
STACK CFI 33374 .cfa: sp 64 +
STACK CFI 33384 .cfa: sp 0 +
STACK CFI 33388 .cfa: x29 64 +
STACK CFI INIT 333f8 a0 .cfa: sp 0 +
STACK CFI 333fc .cfa: sp 48 +
STACK CFI 33408 .cfa: x29 48 + x19: .cfa -8 + ^ x20: .cfa -16 + ^ x21: .cfa -24 + ^ x22: .cfa -32 + ^ .ra: .cfa -40 + ^ x29: .cfa -48 + ^
STACK CFI 33474 .cfa: sp 48 +
STACK CFI 33480 .cfa: sp 0 +
STACK CFI 33484 .cfa: sp 48 +
STACK CFI 33490 .cfa: sp 0 +
STACK CFI 33494 .cfa: x29 48 +
STACK CFI INIT 34348 160 .cfa: sp 0 +
STACK CFI 3434c .cfa: sp 64 +
STACK CFI 3435c .cfa: x29 64 + x19: .cfa -8 + ^ x20: .cfa -16 + ^ x21: .cfa -24 + ^ x22: .cfa -32 + ^ x23: .cfa -48 + ^ .ra: .cfa -56 + ^ x29: .cfa -64 + ^
STACK CFI 34454 .cfa: sp 64 +
STACK CFI 34464 .cfa: sp 0 +
STACK CFI 34468 .cfa: x29 64 +
STACK CFI INIT 344a8 214 .cfa: sp 0 +
STACK CFI 344ac .cfa: sp 128 +
STACK CFI 344c8 .cfa: x29 96 + x19: .cfa -8 + ^ x20: .cfa -16 + ^ x21: .cfa -24 + ^ x22: .cfa -32 + ^ x23: .cfa -40 + ^ x24: .cfa -48 + ^ x25: .cfa -56 + ^ x26: .cfa -64 + ^ x27: .cfa -80 + ^ .ra: .cfa -88 + ^ x29: .cfa -96 + ^
STACK CFI 34644 .cfa: sp 128 +
STACK CFI 34660 .cfa: sp 0 +
STACK CFI 34664 .cfa: x29 96 +
STACK CFI INIT 36358 290 .cfa: sp 0 +
STACK CFI 3635c .cfa: sp 16 +
STACK CFI 36360 .cfa: x29 16 + .ra: .cfa -8 + ^ x29: .cfa -16 + ^
STACK CFI 363ec .cfa: sp 16 +
STACK CFI 363f0 .cfa: sp 0 +
STACK CFI 363f4 .cfa: x29 16 +
STACK CFI 36444 .cfa: sp 16 +
STACK CFI 36448 .cfa: sp 0 +
STACK CFI 3644c .cfa: x29 16 +
STACK CFI 365b0 .cfa: sp 16 +
STACK CFI 365b4 .cfa: sp 0 +
STACK CFI 365b8 .cfa: x29 16 +
STACK CFI INIT 365e8 158 .cfa: sp 0 +
STACK CFI 365ec .cfa: sp 112 +
STACK CFI 36608 .cfa: x29 96 + x19: .cfa -8 + ^ x20: .cfa -16 + ^ x21: .cfa -24 + ^ x22: .cfa -32 + ^ x23: .cfa -40 + ^ x24: .cfa -48 + ^ x25: .cfa -56 + ^ x26: .cfa -64 + ^ x27: .cfa -72 + ^ x28: .cfa -80 + ^ .ra: .cfa -88 + ^ x29: .cfa -96 + ^
STACK CFI 366f0 .cfa: sp 112 +
STACK CFI 366f4 .cfa: x29 96 +
STACK CFI 366fc .cfa: sp 112 +
STACK CFI 36718 .cfa: sp 0 +
STACK CFI 3671c .cfa: x29 96 +
STACK CFI 3673c .cfa: sp 112 +
STACK CFI INIT 36740 e54 .cfa: sp 0 +
STACK CFI 36744 .cfa: sp 192 +
STACK CFI 36760 .cfa: x29 96 + x19: .cfa -8 + ^ x20: .cfa -16 + ^ x21: .cfa -24 + ^ x22: .cfa -32 + ^ x23: .cfa -40 + ^ x24: .cfa -48 + ^ x25: .cfa -56 + ^ x26: .cfa -64 + ^ x27: .cfa -72 + ^ x28: .cfa -80 + ^ .ra: .cfa -88 + ^ x29: .cfa -96 + ^
STACK CFI 3747c .cfa: sp 192 +
STACK CFI 37498 .cfa: sp 0 +
STACK CFI 3749c .cfa: x29 96 +
STACK CFI INIT 37594 1068 .cfa: sp 0 +
STACK CFI 37598 .cfa: sp 288 +
STACK CFI 375b4 .cfa: x29 96 + x19: .cfa -8 + ^ x20: .cfa -16 + ^ x21: .cfa -24 + ^ x22: .cfa -32 + ^ x23: .cfa -40 + ^ x24: .cfa -48 + ^ x25: .cfa -56 + ^ x26: .cfa -64 + ^ x27: .cfa -72 + ^ x28: .cfa -80 + ^ .ra: .cfa -88 + ^ x29: .cfa -96 + ^
STACK CFI 38344 .cfa: sp 288 +
STACK CFI 38360 .cfa: sp 0 +
STACK CFI 38364 .cfa: x29 96 +
STACK CFI INIT 385fc 520 .cfa: sp 0 +
STACK CFI 38600 .cfa: sp 144 +
STACK CFI 3861c .cfa: x29 96 + x19: .cfa -8 + ^ x20: .cfa -16 + ^ x21: .cfa -24 + ^ x22: .cfa -32 + ^ x23: .cfa -40 + ^ x24: .cfa -48 + ^ x25: .cfa -56 + ^ x26: .cfa -64 + ^ x27: .cfa -72 + ^ x28: .cfa -80 + ^ .ra: .cfa -88 + ^ x29: .cfa -96 + ^
STACK CFI 38af8 .cfa: sp 144 +
STACK CFI 38b14 .cfa: sp 0 +
STACK CFI 38b18 .cfa: x29 96 +
STACK CFI INIT 394bc 1374 .cfa: sp 0 +
STACK CFI 394c0 .cfa: sp 224 +
STACK CFI 394dc .cfa: x29 96 + x19: .cfa -8 + ^ x20: .cfa -16 + ^ x21: .cfa -24 + ^ x22: .cfa -32 + ^ x23: .cfa -40 + ^ x24: .cfa -48 + ^ x25: .cfa -56 + ^ x26: .cfa -64 + ^ x27: .cfa -72 + ^ x28: .cfa -80 + ^ .ra: .cfa -88 + ^ x29: .cfa -96 + ^
STACK CFI 3a80c .cfa: sp 224 +
STACK CFI 3a828 .cfa: sp 0 +
STACK CFI 3a82c .cfa: x29 96 +
STACK CFI INIT 3a830 1b8 .cfa: sp 0 +
STACK CFI INIT 14ab0 f4 .cfa: sp 0 +
STACK CFI 14ab4 .cfa: sp 64 +
STACK CFI 14ac0 .cfa: x29 32 + x19: .cfa -8 + ^ x20: .cfa -16 + ^ .ra: .cfa -24 + ^ x29: .cfa -32 + ^
STACK CFI 14b64 .cfa: sp 64 +
STACK CFI 14b70 .cfa: sp 0 +
STACK CFI 14b74 .cfa: x29 32 +
STACK CFI INIT 14ba4 f8 .cfa: sp 0 +
STACK CFI 14ba8 .cfa: sp 64 +
STACK CFI 14bb4 .cfa: x29 32 + x19: .cfa -8 + ^ x20: .cfa -16 + ^ .ra: .cfa -24 + ^ x29: .cfa -32 + ^
STACK CFI 14c5c .cfa: sp 64 +
STACK CFI 14c68 .cfa: sp 0 +
STACK CFI 14c6c .cfa: x29 32 +
STACK CFI INIT 14c9c 1e4 .cfa: sp 0 +
STACK CFI 14ca0 .cfa: sp 112 +
STACK CFI 14cb4 .cfa: x29 48 + x19: .cfa -8 + ^ x20: .cfa -16 + ^ x21: .cfa -24 + ^ x22: .cfa -32 + ^ .ra: .cfa -40 + ^ x29: .cfa -48 + ^ v8: .cfa -64 + ^
STACK CFI 14e10 .cfa: sp 112 +
STACK CFI 14e24 .cfa: sp 0 +
STACK CFI 14e28 .cfa: x29 48 +
STACK CFI INIT 14e80 fc .cfa: sp 0 +
STACK CFI 14e84 .cfa: sp 80 +
STACK CFI 14e94 .cfa: x29 48 + x19: .cfa -8 + ^ x20: .cfa -16 + ^ x21: .cfa -32 + ^ .ra: .cfa -40 + ^ x29: .cfa -48 + ^
STACK CFI 14f38 .cfa: sp 80 +
STACK CFI 14f48 .cfa: sp 0 +
STACK CFI 14f4c .cfa: x29 48 +
STACK CFI INIT 14f7c 1c08 .cfa: sp 0 +
STACK CFI 14f80 .cfa: sp 96 +
STACK CFI 14f98 .cfa: x29 96 + x19: .cfa -8 + ^ x20: .cfa -16 + ^ x21: .cfa -24 + ^ x22: .cfa -32 + ^ x23: .cfa -40 + ^ x24: .cfa -48 + ^ x25: .cfa -56 + ^ x26: .cfa -64 + ^ x27: .cfa -72 + ^ x28: .cfa -80 + ^ .ra: .cfa -88 + ^ x29: .cfa -96 + ^
STACK CFI 16568 .cfa: sp 96 +
STACK CFI 16580 .cfa: sp 0 +
STACK CFI 16584 .cfa: x29 96 +
STACK CFI INIT 16b84 530 .cfa: sp 0 +
STACK CFI 16b88 .cfa: sp 288 +
STACK CFI 16ba0 .cfa: x29 80 + x19: .cfa -8 + ^ x20: .cfa -16 + ^ x21: .cfa -24 + ^ x22: .cfa -32 + ^ x23: .cfa -40 + ^ x24: .cfa -48 + ^ x25: .cfa -56 + ^ x28: .cfa -64 + ^ .ra: .cfa -72 + ^ x29: .cfa -80 + ^
STACK CFI 16ca8 .cfa: sp 288 +
STACK CFI 16cac .cfa: x29 80 +
STACK CFI 16cbc .cfa: sp 288 +
STACK CFI 16cd4 .cfa: sp 0 +
STACK CFI 16cd8 .cfa: x29 80 +
STACK CFI 17040 .cfa: sp 288 +
STACK CFI 17058 .cfa: sp 0 +
STACK CFI 1705c .cfa: x29 80 +
STACK CFI INIT 1718c a24 .cfa: sp 0 +
STACK CFI 17190 .cfa: sp 96 +
STACK CFI 171a8 .cfa: x29 96 + x19: .cfa -8 + ^ x20: .cfa -16 + ^ x21: .cfa -24 + ^ x22: .cfa -32 + ^ x23: .cfa -40 + ^ x24: .cfa -48 + ^ x25: .cfa -56 + ^ x26: .cfa -64 + ^ x27: .cfa -72 + ^ x28: .cfa -80 + ^ .ra: .cfa -88 + ^ x29: .cfa -96 + ^
STACK CFI 171f8 .cfa: sp 96 +
STACK CFI 17210 .cfa: sp 0 +
STACK CFI 17214 .cfa: x29 96 +
STACK CFI 17aac .cfa: sp 96 +
STACK CFI 17ac4 .cfa: sp 0 +
STACK CFI 17ac8 .cfa: x29 96 +
STACK CFI INIT 18384 50 .cfa: sp 0 +
STACK CFI 18388 .cfa: sp 32 +
STACK CFI 18390 .cfa: x29 32 + x19: .cfa -8 + ^ x20: .cfa -16 + ^ .ra: .cfa -24 + ^ x29: .cfa -32 + ^
STACK CFI INIT 18448 5d3c .cfa: sp 0 +
STACK CFI 1844c .cfa: sp 96 +
STACK CFI 18464 .cfa: x29 96 + x19: .cfa -8 + ^ x20: .cfa -16 + ^ x21: .cfa -24 + ^ x22: .cfa -32 + ^ x23: .cfa -40 + ^ x24: .cfa -48 + ^ x25: .cfa -56 + ^ x26: .cfa -64 + ^ x27: .cfa -72 + ^ x28: .cfa -80 + ^ .ra: .cfa -88 + ^ x29: .cfa -96 + ^
STACK CFI 1c57c .cfa: sp 96 +
STACK CFI 1c594 .cfa: sp 0 +
STACK CFI 1c598 .cfa: x29 96 +
STACK CFI INIT 1e48c 1c8 .cfa: sp 0 +
STACK CFI 1e490 .cfa: sp 48 +
STACK CFI 1e49c .cfa: x29 48 + x19: .cfa -8 + ^ x20: .cfa -16 + ^ x21: .cfa -24 + ^ x22: .cfa -32 + ^ .ra: .cfa -40 + ^ x29: .cfa -48 + ^
STACK CFI 1e5f4 .cfa: sp 48 +
STACK CFI 1e600 .cfa: sp 0 +
STACK CFI 1e604 .cfa: x29 48 +
STACK CFI 1e610 .cfa: sp 48 +
STACK CFI 1e61c .cfa: sp 0 +
STACK CFI 1e620 .cfa: x29 48 +
STACK CFI INIT 1e6cc 4dc .cfa: sp 0 +
STACK CFI 1e6d0 .cfa: sp 128 +
STACK CFI 1e6ec .cfa: x29 96 + x19: .cfa -8 + ^ x20: .cfa -16 + ^ x21: .cfa -24 + ^ x22: .cfa -32 + ^ x23: .cfa -40 + ^ x24: .cfa -48 + ^ x25: .cfa -56 + ^ x26: .cfa -64 + ^ x27: .cfa -72 + ^ x28: .cfa -80 + ^ .ra: .cfa -88 + ^ x29: .cfa -96 + ^
STACK CFI 1eb40 .cfa: sp 128 +
STACK CFI 1eb5c .cfa: sp 0 +
STACK CFI 1eb60 .cfa: x29 96 +
STACK CFI INIT 1f1f4 2e4 .cfa: sp 0 +
STACK CFI 1f1f8 .cfa: sp 48 +
STACK CFI 1f204 .cfa: x29 48 + x19: .cfa -8 + ^ x20: .cfa -16 + ^ x21: .cfa -24 + ^ x22: .cfa -32 + ^ .ra: .cfa -40 + ^ x29: .cfa -48 + ^
STACK CFI 1f478 .cfa: sp 48 +
STACK CFI 1f484 .cfa: sp 0 +
STACK CFI 1f488 .cfa: x29 48 +
STACK CFI 1f494 .cfa: sp 48 +
STACK CFI 1f4a0 .cfa: sp 0 +
STACK CFI 1f4a4 .cfa: x29 48 +
STACK CFI INIT 1f550 4dc .cfa: sp 0 +
STACK CFI 1f554 .cfa: sp 128 +
STACK CFI 1f570 .cfa: x29 96 + x19: .cfa -8 + ^ x20: .cfa -16 + ^ x21: .cfa -24 + ^ x22: .cfa -32 + ^ x23: .cfa -40 + ^ x24: .cfa -48 + ^ x25: .cfa -56 + ^ x26: .cfa -64 + ^ x27: .cfa -72 + ^ x28: .cfa -80 + ^ .ra: .cfa -88 + ^ x29: .cfa -96 + ^
STACK CFI 1f9c4 .cfa: sp 128 +
STACK CFI 1f9e0 .cfa: sp 0 +
STACK CFI 1f9e4 .cfa: x29 96 +
STACK CFI INIT 1fc2c 50 .cfa: sp 0 +
STACK CFI 1fc30 .cfa: sp 32 +
STACK CFI 1fc38 .cfa: x29 32 + x19: .cfa -8 + ^ x20: .cfa -16 + ^ .ra: .cfa -24 + ^ x29: .cfa -32 + ^
STACK CFI INIT 1fe68 134 .cfa: sp 0 +
STACK CFI 1fe6c .cfa: sp 80 +
STACK CFI 1fe7c .cfa: x29 48 + x19: .cfa -8 + ^ x20: .cfa -16 + ^ x21: .cfa -24 + ^ x22: .cfa -32 + ^ .ra: .cfa -40 + ^ x29: .cfa -48 + ^
STACK CFI 1ff80 .cfa: sp 80 +
STACK CFI 1ff90 .cfa: sp 0 +
STACK CFI 1ff94 .cfa: x29 48 +
STACK CFI INIT 200a0 118 .cfa: sp 0 +
STACK CFI 200a4 .cfa: sp 80 +
STACK CFI 200b4 .cfa: x29 48 + x19: .cfa -8 + ^ x20: .cfa -16 + ^ x21: .cfa -24 + ^ x22: .cfa -32 + ^ .ra: .cfa -40 + ^ x29: .cfa -48 + ^
STACK CFI 2019c .cfa: sp 80 +
STACK CFI 201ac .cfa: sp 0 +
STACK CFI 201b0 .cfa: x29 48 +
STACK CFI INIT 201b8 190 .cfa: sp 0 +
STACK CFI 201bc .cfa: sp 96 +
STACK CFI 201cc .cfa: x29 48 + x19: .cfa -8 + ^ x20: .cfa -16 + ^ x21: .cfa -24 + ^ x22: .cfa -32 + ^ .ra: .cfa -40 + ^ x29: .cfa -48 + ^
STACK CFI 202c4 .cfa: sp 96 +
STACK CFI 202d4 .cfa: sp 0 +
STACK CFI 202d8 .cfa: x29 48 +
STACK CFI INIT 20398 254 .cfa: sp 0 +
STACK CFI 2039c .cfa: sp 96 +
STACK CFI 203b4 .cfa: x29 80 + x19: .cfa -8 + ^ x20: .cfa -16 + ^ x21: .cfa -24 + ^ x22: .cfa -32 + ^ x23: .cfa -40 + ^ x24: .cfa -48 + ^ x25: .cfa -64 + ^ .ra: .cfa -72 + ^ x29: .cfa -80 + ^
STACK CFI 205c8 .cfa: sp 96 +
STACK CFI 205e0 .cfa: sp 0 +
STACK CFI 205e4 .cfa: x29 80 +
STACK CFI INIT 205ec 254 .cfa: sp 0 +
STACK CFI 205f0 .cfa: sp 96 +
STACK CFI 20608 .cfa: x29 80 + x19: .cfa -8 + ^ x20: .cfa -16 + ^ x21: .cfa -24 + ^ x22: .cfa -32 + ^ x23: .cfa -40 + ^ x24: .cfa -48 + ^ x25: .cfa -64 + ^ .ra: .cfa -72 + ^ x29: .cfa -80 + ^
STACK CFI 2081c .cfa: sp 96 +
STACK CFI 20834 .cfa: sp 0 +
STACK CFI 20838 .cfa: x29 80 +
STACK CFI INIT 20840 254 .cfa: sp 0 +
STACK CFI 20844 .cfa: sp 96 +
STACK CFI 2085c .cfa: x29 80 + x19: .cfa -8 + ^ x20: .cfa -16 + ^ x21: .cfa -24 + ^ x22: .cfa -32 + ^ x23: .cfa -40 + ^ x24: .cfa -48 + ^ x25: .cfa -64 + ^ .ra: .cfa -72 + ^ x29: .cfa -80 + ^
STACK CFI 20a70 .cfa: sp 96 +
STACK CFI 20a88 .cfa: sp 0 +
STACK CFI 20a8c .cfa: x29 80 +
STACK CFI INIT 20a94 254 .cfa: sp 0 +
STACK CFI 20a98 .cfa: sp 96 +
STACK CFI 20ab0 .cfa: x29 80 + x19: .cfa -8 + ^ x20: .cfa -16 + ^ x21: .cfa -24 + ^ x22: .cfa -32 + ^ x23: .cfa -40 + ^ x24: .cfa -48 + ^ x25: .cfa -64 + ^ .ra: .cfa -72 + ^ x29: .cfa -80 + ^
STACK CFI 20cc4 .cfa: sp 96 +
STACK CFI 20cdc .cfa: sp 0 +
STACK CFI 20ce0 .cfa: x29 80 +
STACK CFI INIT 20d14 75c .cfa: sp 0 +
STACK CFI 20d18 .cfa: sp 208 +
STACK CFI 20d34 .cfa: x29 96 + x19: .cfa -8 + ^ x20: .cfa -16 + ^ x21: .cfa -24 + ^ x22: .cfa -32 + ^ x23: .cfa -40 + ^ x24: .cfa -48 + ^ x25: .cfa -56 + ^ x26: .cfa -64 + ^ x27: .cfa -72 + ^ x28: .cfa -80 + ^ .ra: .cfa -88 + ^ x29: .cfa -96 + ^
STACK CFI 20ea0 .cfa: sp 208 +
STACK CFI 20ebc .cfa: sp 0 +
STACK CFI 20ec0 .cfa: x29 96 +
STACK CFI 21320 .cfa: sp 208 +
STACK CFI 2133c .cfa: sp 0 +
STACK CFI 21340 .cfa: x29 96 +
STACK CFI INIT 2148c 380 .cfa: sp 0 +
STACK CFI 21490 .cfa: sp 240 +
STACK CFI 214a4 .cfa: x29 64 + x19: .cfa -8 + ^ x20: .cfa -16 + ^ x21: .cfa -24 + ^ x22: .cfa -32 + ^ x23: .cfa -48 + ^ .ra: .cfa -56 + ^ x29: .cfa -64 + ^
STACK CFI 216e8 .cfa: sp 240 +
STACK CFI 216fc .cfa: sp 0 +
STACK CFI 21700 .cfa: x29 64 +
STACK CFI INIT 2185c 74 .cfa: sp 0 +
STACK CFI 21860 .cfa: sp 48 +
STACK CFI 2186c .cfa: x29 32 + x19: .cfa -8 + ^ x20: .cfa -16 + ^ .ra: .cfa -24 + ^ x29: .cfa -32 + ^
STACK CFI 218b8 .cfa: sp 48 +
STACK CFI 218c4 .cfa: sp 0 +
STACK CFI 218c8 .cfa: x29 32 +
STACK CFI INIT 21c9c 154 .cfa: sp 0 +
STACK CFI 21ca0 .cfa: sp 384 +
STACK CFI 21cb4 .cfa: x29 64 + x19: .cfa -8 + ^ x20: .cfa -16 + ^ x21: .cfa -24 + ^ x22: .cfa -32 + ^ x23: .cfa -40 + ^ x28: .cfa -48 + ^ .ra: .cfa -56 + ^ x29: .cfa -64 + ^
STACK CFI 21d98 .cfa: sp 384 +
STACK CFI 21dac .cfa: sp 0 +
STACK CFI 21db0 .cfa: x29 64 +
STACK CFI INIT 21e24 12c .cfa: sp 0 +
STACK CFI 21e28 .cfa: sp 80 +
STACK CFI 21e3c .cfa: x29 80 + x19: .cfa -8 + ^ x20: .cfa -16 + ^ x21: .cfa -24 + ^ x22: .cfa -32 + ^ x23: .cfa -40 + ^ x24: .cfa -48 + ^ x25: .cfa -56 + ^ x26: .cfa -64 + ^ .ra: .cfa -72 + ^ x29: .cfa -80 + ^
STACK CFI 21f04 .cfa: sp 80 +
STACK CFI 21f18 .cfa: sp 0 +
STACK CFI 21f1c .cfa: x29 80 +
STACK CFI INIT 21ff4 1a4 .cfa: sp 0 +
STACK CFI 21ff8 .cfa: sp 112 +
STACK CFI 22010 .cfa: x29 80 + x19: .cfa -8 + ^ x20: .cfa -16 + ^ x21: .cfa -24 + ^ x22: .cfa -32 + ^ x23: .cfa -40 + ^ x24: .cfa -48 + ^ x25: .cfa -56 + ^ x26: .cfa -64 + ^ .ra: .cfa -72 + ^ x29: .cfa -80 + ^
STACK CFI 22100 .cfa: sp 112 +
STACK CFI 22118 .cfa: sp 0 +
STACK CFI 2211c .cfa: x29 80 +
STACK CFI INIT 22198 1dc .cfa: sp 0 +
STACK CFI 2219c .cfa: sp 128 +
STACK CFI 221b8 .cfa: x29 96 + x19: .cfa -8 + ^ x20: .cfa -16 + ^ x21: .cfa -24 + ^ x22: .cfa -32 + ^ x23: .cfa -40 + ^ x24: .cfa -48 + ^ x25: .cfa -56 + ^ x26: .cfa -64 + ^ x27: .cfa -80 + ^ .ra: .cfa -88 + ^ x29: .cfa -96 + ^
STACK CFI 22324 .cfa: sp 128 +
STACK CFI 22340 .cfa: sp 0 +
STACK CFI 22344 .cfa: x29 96 +
STACK CFI INIT 22374 178 .cfa: sp 0 +
STACK CFI 22378 .cfa: sp 80 +
STACK CFI 2238c .cfa: x29 80 + x19: .cfa -8 + ^ x20: .cfa -16 + ^ x21: .cfa -24 + ^ x22: .cfa -32 + ^ x23: .cfa -40 + ^ x24: .cfa -48 + ^ x25: .cfa -64 + ^ .ra: .cfa -72 + ^ x29: .cfa -80 + ^
STACK CFI 224b8 .cfa: sp 80 +
STACK CFI 224cc .cfa: sp 0 +
STACK CFI 224d0 .cfa: x29 80 +
STACK CFI INIT 22634 168 .cfa: sp 0 +
STACK CFI 22638 .cfa: sp 384 +
STACK CFI 2264c .cfa: x29 64 + x19: .cfa -8 + ^ x20: .cfa -16 + ^ x21: .cfa -24 + ^ x22: .cfa -32 + ^ x23: .cfa -40 + ^ x28: .cfa -48 + ^ .ra: .cfa -56 + ^ x29: .cfa -64 + ^
STACK CFI 22744 .cfa: sp 384 +
STACK CFI 22758 .cfa: sp 0 +
STACK CFI 2275c .cfa: x29 64 +
STACK CFI INIT 227b4 228 .cfa: sp 0 +
STACK CFI 227b8 .cfa: sp 128 +
STACK CFI 227d0 .cfa: x29 80 + x19: .cfa -8 + ^ x20: .cfa -16 + ^ x21: .cfa -24 + ^ x22: .cfa -32 + ^ x23: .cfa -40 + ^ x24: .cfa -48 + ^ x25: .cfa -64 + ^ .ra: .cfa -72 + ^ x29: .cfa -80 + ^
STACK CFI 2296c .cfa: sp 128 +
STACK CFI 22984 .cfa: sp 0 +
STACK CFI 22988 .cfa: x29 80 +
STACK CFI INIT 2307c d8 .cfa: sp 0 +
STACK CFI 23080 .cfa: sp 32 +
STACK CFI 23088 .cfa: x29 32 + x19: .cfa -16 + ^ .ra: .cfa -24 + ^ x29: .cfa -32 + ^
STACK CFI 230bc .cfa: sp 32 +
STACK CFI 230c4 .cfa: sp 0 +
STACK CFI 230c8 .cfa: x29 32 +
STACK CFI 230cc .cfa: sp 32 +
STACK CFI 230d4 .cfa: sp 0 +
STACK CFI 230d8 .cfa: x29 32 +
STACK CFI INIT 23380 480 .cfa: sp 0 +
STACK CFI 23384 .cfa: sp 224 +
STACK CFI 233a0 .cfa: x29 96 + x19: .cfa -8 + ^ x20: .cfa -16 + ^ x21: .cfa -24 + ^ x22: .cfa -32 + ^ x23: .cfa -40 + ^ x24: .cfa -48 + ^ x25: .cfa -56 + ^ x26: .cfa -64 + ^ x27: .cfa -80 + ^ .ra: .cfa -88 + ^ x29: .cfa -96 + ^
STACK CFI 2360c .cfa: sp 224 +
STACK CFI 23628 .cfa: sp 0 +
STACK CFI 2362c .cfa: x29 96 +
STACK CFI 236f8 .cfa: sp 224 +
STACK CFI 23714 .cfa: sp 0 +
STACK CFI 23718 .cfa: x29 96 +
STACK CFI INIT 2381c 308 .cfa: sp 0 +
STACK CFI 23820 .cfa: sp 176 +
STACK CFI 23834 .cfa: x29 64 + x19: .cfa -8 + ^ x20: .cfa -16 + ^ x21: .cfa -24 + ^ x22: .cfa -32 + ^ x23: .cfa -48 + ^ .ra: .cfa -56 + ^ x29: .cfa -64 + ^
STACK CFI 23a1c .cfa: sp 176 +
STACK CFI 23a30 .cfa: sp 0 +
STACK CFI 23a34 .cfa: x29 64 +
STACK CFI INIT 23b28 1c0 .cfa: sp 0 +
STACK CFI 23b2c .cfa: sp 144 +
STACK CFI 23b40 .cfa: x29 64 + x19: .cfa -8 + ^ x20: .cfa -16 + ^ x21: .cfa -24 + ^ x22: .cfa -32 + ^ x23: .cfa -48 + ^ .ra: .cfa -56 + ^ x29: .cfa -64 + ^
STACK CFI 23c88 .cfa: sp 144 +
STACK CFI 23c9c .cfa: sp 0 +
STACK CFI 23ca0 .cfa: x29 64 +
STACK CFI INIT 23ce8 a8 .cfa: sp 0 +
STACK CFI 23cec .cfa: sp 32 +
STACK CFI 23cf4 .cfa: x29 32 + x19: .cfa -16 + ^ .ra: .cfa -24 + ^ x29: .cfa -32 + ^
STACK CFI 23d28 .cfa: sp 32 +
STACK CFI 23d30 .cfa: sp 0 +
STACK CFI 23d34 .cfa: x29 32 +
STACK CFI 23d38 .cfa: sp 32 +
STACK CFI 23d40 .cfa: sp 0 +
STACK CFI 23d44 .cfa: x29 32 +
STACK CFI INIT 23e2c cb0 .cfa: sp 0 +
STACK CFI 23e30 .cfa: sp 176 +
STACK CFI 23e40 .cfa: x29 48 + x19: .cfa -8 + ^ x20: .cfa -16 + ^ x21: .cfa -24 + ^ x22: .cfa -32 + ^ .ra: .cfa -40 + ^ x29: .cfa -48 + ^
STACK CFI 24954 .cfa: sp 176 +
STACK CFI 24964 .cfa: sp 0 +
STACK CFI 24968 .cfa: x29 48 +
STACK CFI INIT 24adc f8 .cfa: sp 0 +
STACK CFI 24ae0 .cfa: sp 48 +
STACK CFI 24aec .cfa: x29 48 + x19: .cfa -8 + ^ x20: .cfa -16 + ^ x21: .cfa -32 + ^ .ra: .cfa -40 + ^ x29: .cfa -48 + ^
STACK CFI 24b58 .cfa: sp 48 +
STACK CFI 24b64 .cfa: sp 0 +
STACK CFI 24b68 .cfa: x29 48 +
STACK CFI INIT 24c80 138 .cfa: sp 0 +
STACK CFI 24c84 .cfa: sp 32 +
STACK CFI 24c8c .cfa: x29 32 + x19: .cfa -8 + ^ x20: .cfa -16 + ^ .ra: .cfa -24 + ^ x29: .cfa -32 + ^
STACK CFI 24d44 .cfa: sp 32 +
STACK CFI 24d4c .cfa: sp 0 +
STACK CFI 24d50 .cfa: x29 32 +
STACK CFI 24d8c .cfa: sp 32 +
STACK CFI 24d94 .cfa: sp 0 +
STACK CFI 24d98 .cfa: x29 32 +
STACK CFI INIT 24e84 174 .cfa: sp 0 +
STACK CFI 24e88 .cfa: sp 112 +
STACK CFI 24e98 .cfa: x29 48 + x19: .cfa -8 + ^ x20: .cfa -16 + ^ x21: .cfa -32 + ^ .ra: .cfa -40 + ^ x29: .cfa -48 + ^
STACK CFI 24f94 .cfa: sp 112 +
STACK CFI 24fa4 .cfa: sp 0 +
STACK CFI 24fa8 .cfa: x29 48 +
STACK CFI INIT 25194 13c .cfa: sp 0 +
STACK CFI 25198 .cfa: sp 48 +
STACK CFI 251a4 .cfa: x29 32 + x19: .cfa -8 + ^ x20: .cfa -16 + ^ .ra: .cfa -24 + ^ x29: .cfa -32 + ^ v8: .cfa -48 + ^
STACK CFI 25248 .cfa: sp 48 +
STACK CFI 25254 .cfa: sp 0 +
STACK CFI 25258 .cfa: x29 32 +
STACK CFI 252a0 .cfa: sp 48 +
STACK CFI 252ac .cfa: sp 0 +
STACK CFI 252b0 .cfa: x29 32 +
STACK CFI INIT 253a4 13c .cfa: sp 0 +
STACK CFI 253a8 .cfa: sp 48 +
STACK CFI 253b4 .cfa: x29 32 + x19: .cfa -8 + ^ x20: .cfa -16 + ^ .ra: .cfa -24 + ^ x29: .cfa -32 + ^ v8: .cfa -48 + ^
STACK CFI 25458 .cfa: sp 48 +
STACK CFI 25464 .cfa: sp 0 +
STACK CFI 25468 .cfa: x29 32 +
STACK CFI 254b0 .cfa: sp 48 +
STACK CFI 254bc .cfa: sp 0 +
STACK CFI 254c0 .cfa: x29 32 +
STACK CFI INIT 25564 130 .cfa: sp 0 +
STACK CFI 25568 .cfa: sp 32 +
STACK CFI 25570 .cfa: x29 32 + x19: .cfa -8 + ^ x20: .cfa -16 + ^ .ra: .cfa -24 + ^ x29: .cfa -32 + ^
STACK CFI 25614 .cfa: sp 32 +
STACK CFI 2561c .cfa: sp 0 +
STACK CFI 25620 .cfa: x29 32 +
STACK CFI 25668 .cfa: sp 32 +
STACK CFI 25670 .cfa: sp 0 +
STACK CFI 25674 .cfa: x29 32 +
STACK CFI INIT 25768 374 .cfa: sp 0 +
STACK CFI 2576c .cfa: sp 96 +
STACK CFI 25784 .cfa: x29 96 + x19: .cfa -8 + ^ x20: .cfa -16 + ^ x21: .cfa -24 + ^ x22: .cfa -32 + ^ x23: .cfa -40 + ^ x24: .cfa -48 + ^ x25: .cfa -56 + ^ x26: .cfa -64 + ^ x27: .cfa -72 + ^ x28: .cfa -80 + ^ .ra: .cfa -88 + ^ x29: .cfa -96 + ^
STACK CFI 25a04 .cfa: sp 96 +
STACK CFI 25a1c .cfa: sp 0 +
STACK CFI 25a20 .cfa: x29 96 +
STACK CFI INIT 25b60 1a8 .cfa: sp 0 +
STACK CFI 25b64 .cfa: sp 64 +
STACK CFI 25b78 .cfa: x29 40 + x19: .cfa -8 + ^ x20: .cfa -16 + ^ x21: .cfa -24 + ^ .ra: .cfa -32 + ^ x29: .cfa -40 + ^ v8: .cfa -48 + ^
STACK CFI 25c60 .cfa: sp 64 +
STACK CFI 25c74 .cfa: sp 0 +
STACK CFI 25c78 .cfa: x29 40 +
STACK CFI INIT 25d8c 1a8 .cfa: sp 0 +
STACK CFI 25d90 .cfa: sp 64 +
STACK CFI 25da4 .cfa: x29 40 + x19: .cfa -8 + ^ x20: .cfa -16 + ^ x21: .cfa -24 + ^ .ra: .cfa -32 + ^ x29: .cfa -40 + ^ v8: .cfa -48 + ^
STACK CFI 25e8c .cfa: sp 64 +
STACK CFI 25ea0 .cfa: sp 0 +
STACK CFI 25ea4 .cfa: x29 40 +
STACK CFI INIT 25fb8 1cc .cfa: sp 0 +
STACK CFI 25fbc .cfa: sp 80 +
STACK CFI 25fcc .cfa: x29 48 + x19: .cfa -8 + ^ x20: .cfa -16 + ^ x21: .cfa -32 + ^ .ra: .cfa -40 + ^ x29: .cfa -48 + ^
STACK CFI 260d8 .cfa: sp 80 +
STACK CFI 260e8 .cfa: sp 0 +
STACK CFI 260ec .cfa: x29 48 +
STACK CFI 26138 .cfa: sp 80 +
STACK CFI 26148 .cfa: sp 0 +
STACK CFI 2614c .cfa: x29 48 +
STACK CFI INIT 26208 1ec .cfa: sp 0 +
STACK CFI 2620c .cfa: sp 96 +
STACK CFI 26224 .cfa: x29 80 + x19: .cfa -8 + ^ x20: .cfa -16 + ^ x21: .cfa -24 + ^ x22: .cfa -32 + ^ x23: .cfa -40 + ^ x24: .cfa -48 + ^ x25: .cfa -64 + ^ .ra: .cfa -72 + ^ x29: .cfa -80 + ^
STACK CFI 26354 .cfa: sp 96 +
STACK CFI 2636c .cfa: sp 0 +
STACK CFI 26370 .cfa: x29 80 +
STACK CFI INIT 264c8 398 .cfa: sp 0 +
STACK CFI 264cc .cfa: sp 144 +
STACK CFI 264dc .cfa: x29 48 + x19: .cfa -8 + ^ x20: .cfa -16 + ^ x21: .cfa -32 + ^ .ra: .cfa -40 + ^ x29: .cfa -48 + ^
STACK CFI 26778 .cfa: sp 144 +
STACK CFI 26788 .cfa: sp 0 +
STACK CFI 2678c .cfa: x29 48 +
STACK CFI INIT 268e8 2d4 .cfa: sp 0 +
STACK CFI 268ec .cfa: sp 112 +
STACK CFI 26900 .cfa: x29 64 + x19: .cfa -8 + ^ x20: .cfa -16 + ^ x21: .cfa -24 + ^ x22: .cfa -32 + ^ x23: .cfa -48 + ^ .ra: .cfa -56 + ^ x29: .cfa -64 + ^
STACK CFI 26aac .cfa: sp 112 +
STACK CFI 26ac0 .cfa: sp 0 +
STACK CFI 26ac4 .cfa: x29 64 +
STACK CFI INIT 26be8 174 .cfa: sp 0 +
STACK CFI 26bec .cfa: sp 112 +
STACK CFI 26bfc .cfa: x29 48 + x19: .cfa -8 + ^ x20: .cfa -16 + ^ x21: .cfa -32 + ^ .ra: .cfa -40 + ^ x29: .cfa -48 + ^
STACK CFI 26cf8 .cfa: sp 112 +
STACK CFI 26d08 .cfa: sp 0 +
STACK CFI 26d0c .cfa: x29 48 +
STACK CFI INIT 26eac 12c .cfa: sp 0 +
STACK CFI 26eb0 .cfa: sp 80 +
STACK CFI 26ec0 .cfa: x29 48 + x19: .cfa -8 + ^ x20: .cfa -16 + ^ x21: .cfa -32 + ^ .ra: .cfa -40 + ^ x29: .cfa -48 + ^
STACK CFI 26f58 .cfa: sp 80 +
STACK CFI 26f68 .cfa: sp 0 +
STACK CFI 26f6c .cfa: x29 48 +
STACK CFI INIT 27060 134 .cfa: sp 0 +
STACK CFI 27064 .cfa: sp 80 +
STACK CFI 27070 .cfa: x29 32 + x19: .cfa -8 + ^ x20: .cfa -16 + ^ .ra: .cfa -24 + ^ x29: .cfa -32 + ^
STACK CFI 270a0 .cfa: sp 80 +
STACK CFI 270ac .cfa: sp 0 +
STACK CFI 270b0 .cfa: x29 32 +
STACK CFI INIT 27194 78 .cfa: sp 0 +
STACK CFI 27198 .cfa: sp 32 +
STACK CFI 271a0 .cfa: x29 32 + x19: .cfa -8 + ^ x20: .cfa -16 + ^ .ra: .cfa -24 + ^ x29: .cfa -32 + ^
STACK CFI 271ac .cfa: sp 32 +
STACK CFI 271b4 .cfa: sp 0 +
STACK CFI 271b8 .cfa: x29 32 +
STACK CFI INIT 2720c 74 .cfa: sp 0 +
STACK CFI 27210 .cfa: sp 48 +
STACK CFI 2721c .cfa: x29 32 + x19: .cfa -8 + ^ x20: .cfa -16 + ^ .ra: .cfa -24 + ^ x29: .cfa -32 + ^
STACK CFI 27268 .cfa: sp 48 +
STACK CFI 27274 .cfa: sp 0 +
STACK CFI 27278 .cfa: x29 32 +
STACK CFI INIT 2732c 290 .cfa: sp 0 +
STACK CFI 27330 .cfa: sp 128 +
STACK CFI 27344 .cfa: x29 64 + x19: .cfa -8 + ^ x20: .cfa -16 + ^ x21: .cfa -24 + ^ x22: .cfa -32 + ^ x23: .cfa -48 + ^ .ra: .cfa -56 + ^ x29: .cfa -64 + ^
STACK CFI 27468 .cfa: sp 128 +
STACK CFI 2747c .cfa: sp 0 +
STACK CFI 27480 .cfa: x29 64 +
STACK CFI INIT 275e0 2a4 .cfa: sp 0 +
STACK CFI 275e4 .cfa: sp 112 +
STACK CFI 275f4 .cfa: x29 48 + x19: .cfa -8 + ^ x20: .cfa -16 + ^ x21: .cfa -32 + ^ .ra: .cfa -40 + ^ x29: .cfa -48 + ^
STACK CFI 2770c .cfa: sp 112 +
STACK CFI 2771c .cfa: sp 0 +
STACK CFI 27720 .cfa: x29 48 +
STACK CFI INIT 27884 310 .cfa: sp 0 +
STACK CFI 27888 .cfa: sp 128 +
STACK CFI 2789c .cfa: x29 64 + x19: .cfa -8 + ^ x20: .cfa -16 + ^ x21: .cfa -24 + ^ x22: .cfa -32 + ^ x23: .cfa -48 + ^ .ra: .cfa -56 + ^ x29: .cfa -64 + ^
STACK CFI 27a10 .cfa: sp 128 +
STACK CFI 27a24 .cfa: sp 0 +
STACK CFI 27a28 .cfa: x29 64 +
STACK CFI INIT 27bb8 1b8 .cfa: sp 0 +
STACK CFI 27bbc .cfa: sp 160 +
STACK CFI 27bd8 .cfa: x29 72 + x19: .cfa -8 + ^ x20: .cfa -16 + ^ x21: .cfa -24 + ^ x22: .cfa -32 + ^ x23: .cfa -40 + ^ x24: .cfa -48 + ^ x25: .cfa -56 + ^ .ra: .cfa -64 + ^ x29: .cfa -72 + ^ v8: .cfa -80 + ^
STACK CFI 27c5c .cfa: sp 160 +
STACK CFI 27c78 .cfa: sp 0 +
STACK CFI 27c7c .cfa: x29 72 +
STACK CFI INIT 27d70 16c .cfa: sp 0 +
STACK CFI 27d74 .cfa: sp 64 +
STACK CFI 27d84 .cfa: x29 48 + x19: .cfa -8 + ^ x20: .cfa -16 + ^ x21: .cfa -24 + ^ x22: .cfa -32 + ^ .ra: .cfa -40 + ^ x29: .cfa -48 + ^
STACK CFI 27e7c .cfa: sp 64 +
STACK CFI 27e8c .cfa: sp 0 +
STACK CFI 27e90 .cfa: x29 48 +
STACK CFI INIT 27ee0 278 .cfa: sp 0 +
STACK CFI 27ee4 .cfa: sp 128 +
STACK CFI 27ef8 .cfa: x29 64 + x19: .cfa -8 + ^ x20: .cfa -16 + ^ x21: .cfa -24 + ^ x22: .cfa -32 + ^ x23: .cfa -48 + ^ .ra: .cfa -56 + ^ x29: .cfa -64 + ^
STACK CFI 28004 .cfa: sp 128 +
STACK CFI 28018 .cfa: sp 0 +
STACK CFI 2801c .cfa: x29 64 +
STACK CFI INIT 28158 4bc .cfa: sp 0 +
STACK CFI 2815c .cfa: sp 128 +
STACK CFI 28170 .cfa: x29 64 + x19: .cfa -8 + ^ x20: .cfa -16 + ^ x21: .cfa -24 + ^ x22: .cfa -32 + ^ x23: .cfa -48 + ^ .ra: .cfa -56 + ^ x29: .cfa -64 + ^
STACK CFI 2846c .cfa: sp 128 +
STACK CFI 28480 .cfa: sp 0 +
STACK CFI 28484 .cfa: x29 64 +
STACK CFI INIT 28614 154 .cfa: sp 0 +
STACK CFI 28618 .cfa: sp 384 +
STACK CFI 2862c .cfa: x29 64 + x19: .cfa -8 + ^ x20: .cfa -16 + ^ x21: .cfa -24 + ^ x22: .cfa -32 + ^ x23: .cfa -40 + ^ x28: .cfa -48 + ^ .ra: .cfa -56 + ^ x29: .cfa -64 + ^
STACK CFI 28710 .cfa: sp 384 +
STACK CFI 28724 .cfa: sp 0 +
STACK CFI 28728 .cfa: x29 64 +
STACK CFI INIT 28780 4e0 .cfa: sp 0 +
STACK CFI 28784 .cfa: sp 64 +
STACK CFI 28794 .cfa: x29 64 + x19: .cfa -8 + ^ x20: .cfa -16 + ^ x21: .cfa -24 + ^ x22: .cfa -32 + ^ x23: .cfa -40 + ^ x24: .cfa -48 + ^ .ra: .cfa -56 + ^ x29: .cfa -64 + ^
STACK CFI 28c34 .cfa: sp 64 +
STACK CFI 28c44 .cfa: sp 0 +
STACK CFI 28c48 .cfa: x29 64 +
STACK CFI INIT 28f90 294 .cfa: sp 0 +
STACK CFI 28f94 .cfa: sp 240 +
STACK CFI 28fac .cfa: x29 80 + x19: .cfa -8 + ^ x20: .cfa -16 + ^ x21: .cfa -24 + ^ x22: .cfa -32 + ^ x23: .cfa -40 + ^ x24: .cfa -48 + ^ x25: .cfa -64 + ^ .ra: .cfa -72 + ^ x29: .cfa -80 + ^
STACK CFI 2914c .cfa: sp 240 +
STACK CFI 29164 .cfa: sp 0 +
STACK CFI 29168 .cfa: x29 80 +
STACK CFI INIT 292a0 50 .cfa: sp 0 +
STACK CFI 292a4 .cfa: sp 32 +
STACK CFI 292ac .cfa: x29 32 + x19: .cfa -8 + ^ x20: .cfa -16 + ^ .ra: .cfa -24 + ^ x29: .cfa -32 + ^
STACK CFI INIT 2931c 7c0 .cfa: sp 0 +
STACK CFI 29320 .cfa: sp 320 +
STACK CFI 2933c .cfa: x29 96 + x19: .cfa -8 + ^ x20: .cfa -16 + ^ x21: .cfa -24 + ^ x22: .cfa -32 + ^ x23: .cfa -40 + ^ x24: .cfa -48 + ^ x25: .cfa -56 + ^ x26: .cfa -64 + ^ x27: .cfa -72 + ^ x28: .cfa -80 + ^ .ra: .cfa -88 + ^ x29: .cfa -96 + ^
STACK CFI 2998c .cfa: sp 320 +
STACK CFI 299a8 .cfa: sp 0 +
STACK CFI 299ac .cfa: x29 96 +
STACK CFI INIT 29b40 13c .cfa: sp 0 +
STACK CFI 29b44 .cfa: sp 80 +
STACK CFI 29b58 .cfa: x29 80 + x19: .cfa -8 + ^ x20: .cfa -16 + ^ x21: .cfa -24 + ^ x22: .cfa -32 + ^ x23: .cfa -40 + ^ x24: .cfa -48 + ^ x28: .cfa -64 + ^ .ra: .cfa -72 + ^ x29: .cfa -80 + ^
STACK CFI 29bec .cfa: sp 80 +
STACK CFI 29c00 .cfa: sp 0 +
STACK CFI 29c04 .cfa: x29 80 +
STACK CFI INIT 2df98 c74 .cfa: sp 0 +
STACK CFI 2df9c .cfa: sp 96 +
STACK CFI 2dfb4 .cfa: x29 96 + x19: .cfa -8 + ^ x20: .cfa -16 + ^ x21: .cfa -24 + ^ x22: .cfa -32 + ^ x23: .cfa -40 + ^ x24: .cfa -48 + ^ x25: .cfa -56 + ^ x26: .cfa -64 + ^ x27: .cfa -72 + ^ x28: .cfa -80 + ^ .ra: .cfa -88 + ^ x29: .cfa -96 + ^
STACK CFI 2ea2c .cfa: sp 96 +
STACK CFI 2ea44 .cfa: sp 0 +
STACK CFI 2ea48 .cfa: x29 96 +
STACK CFI INIT 2ed60 26c .cfa: sp 0 +
STACK CFI 2ed64 .cfa: sp 128 +
STACK CFI 2ed74 .cfa: x29 48 + x19: .cfa -8 + ^ x20: .cfa -16 + ^ x21: .cfa -24 + ^ x22: .cfa -32 + ^ .ra: .cfa -40 + ^ x29: .cfa -48 + ^
STACK CFI 2ef18 .cfa: sp 128 +
STACK CFI 2ef28 .cfa: sp 0 +
STACK CFI 2ef2c .cfa: x29 48 +
STACK CFI INIT 2f35c 3b8 .cfa: sp 0 +
STACK CFI 2f360 .cfa: sp 96 +
STACK CFI 2f378 .cfa: x29 96 + x19: .cfa -8 + ^ x20: .cfa -16 + ^ x21: .cfa -24 + ^ x22: .cfa -32 + ^ x23: .cfa -40 + ^ x24: .cfa -48 + ^ x25: .cfa -56 + ^ x26: .cfa -64 + ^ x27: .cfa -72 + ^ x28: .cfa -80 + ^ .ra: .cfa -88 + ^ x29: .cfa -96 + ^
STACK CFI 2f6b4 .cfa: sp 96 +
STACK CFI 2f6cc .cfa: sp 0 +
STACK CFI 2f6d0 .cfa: x29 96 +
STACK CFI INIT 2f7b4 cb4 .cfa: sp 0 +
STACK CFI 2f7b8 .cfa: sp 96 +
STACK CFI 2f7d0 .cfa: x29 96 + x19: .cfa -8 + ^ x20: .cfa -16 + ^ x21: .cfa -24 + ^ x22: .cfa -32 + ^ x23: .cfa -40 + ^ x24: .cfa -48 + ^ x25: .cfa -56 + ^ x26: .cfa -64 + ^ x27: .cfa -72 + ^ x28: .cfa -80 + ^ .ra: .cfa -88 + ^ x29: .cfa -96 + ^
STACK CFI 30278 .cfa: sp 96 +
STACK CFI 30290 .cfa: sp 0 +
STACK CFI 30294 .cfa: x29 96 +
STACK CFI INIT 30750 afc .cfa: sp 0 +
STACK CFI 30754 .cfa: sp 96 +
STACK CFI 3076c .cfa: x29 96 + x19: .cfa -8 + ^ x20: .cfa -16 + ^ x21: .cfa -24 + ^ x22: .cfa -32 + ^ x23: .cfa -40 + ^ x24: .cfa -48 + ^ x25: .cfa -56 + ^ x26: .cfa -64 + ^ x27: .cfa -72 + ^ x28: .cfa -80 + ^ .ra: .cfa -88 + ^ x29: .cfa -96 + ^
STACK CFI 311c0 .cfa: sp 96 +
STACK CFI 311d8 .cfa: sp 0 +
STACK CFI 311dc .cfa: x29 96 +
STACK CFI INIT 31428 1430 .cfa: sp 0 +
STACK CFI 3142c .cfa: sp 96 +
STACK CFI 31444 .cfa: x29 96 + x19: .cfa -8 + ^ x20: .cfa -16 + ^ x21: .cfa -24 + ^ x22: .cfa -32 + ^ x23: .cfa -40 + ^ x24: .cfa -48 + ^ x25: .cfa -56 + ^ x26: .cfa -64 + ^ x27: .cfa -72 + ^ x28: .cfa -80 + ^ .ra: .cfa -88 + ^ x29: .cfa -96 + ^
STACK CFI 326e0 .cfa: sp 96 +
STACK CFI 326f8 .cfa: sp 0 +
STACK CFI 326fc .cfa: x29 96 +
STACK CFI INIT 3297c 75c .cfa: sp 0 +
STACK CFI 32980 .cfa: sp 368 +
STACK CFI 3299c .cfa: x29 96 + x19: .cfa -8 + ^ x20: .cfa -16 + ^ x21: .cfa -24 + ^ x22: .cfa -32 + ^ x23: .cfa -40 + ^ x24: .cfa -48 + ^ x25: .cfa -56 + ^ x26: .cfa -64 + ^ x27: .cfa -72 + ^ x28: .cfa -80 + ^ .ra: .cfa -88 + ^ x29: .cfa -96 + ^
STACK CFI 32a50 .cfa: sp 368 +
STACK CFI 32a6c .cfa: sp 0 +
STACK CFI 32a70 .cfa: x29 96 +
STACK CFI 32ac4 .cfa: sp 368 +
STACK CFI 32ae0 .cfa: sp 0 +
STACK CFI 32ae4 .cfa: x29 96 +
STACK CFI INIT 33498 eb0 .cfa: sp 0 +
STACK CFI 3349c .cfa: sp 96 +
STACK CFI 334b4 .cfa: x29 96 + x19: .cfa -8 + ^ x20: .cfa -16 + ^ x21: .cfa -24 + ^ x22: .cfa -32 + ^ x23: .cfa -40 + ^ x24: .cfa -48 + ^ x25: .cfa -56 + ^ x26: .cfa -64 + ^ x27: .cfa -72 + ^ x28: .cfa -80 + ^ .ra: .cfa -88 + ^ x29: .cfa -96 + ^
STACK CFI 3415c .cfa: sp 96 +
STACK CFI 34174 .cfa: sp 0 +
STACK CFI 34178 .cfa: x29 96 +
STACK CFI INIT 346bc 1c9c .cfa: sp 0 +
STACK CFI 346c0 .cfa: sp 112 +
STACK CFI 346dc .cfa: x29 96 + x19: .cfa -8 + ^ x20: .cfa -16 + ^ x21: .cfa -24 + ^ x22: .cfa -32 + ^ x23: .cfa -40 + ^ x24: .cfa -48 + ^ x25: .cfa -56 + ^ x26: .cfa -64 + ^ x27: .cfa -72 + ^ x28: .cfa -80 + ^ .ra: .cfa -88 + ^ x29: .cfa -96 + ^ v8: .cfa -112 + ^
STACK CFI 34ac4 .cfa: sp 112 +
STACK CFI 34ae0 .cfa: sp 0 +
STACK CFI 34ae4 .cfa: x29 96 +
STACK CFI INIT 38b1c 9a0 .cfa: sp 0 +
STACK CFI 38b20 .cfa: sp 144 +
STACK CFI 38b38 .cfa: x29 80 + x19: .cfa -8 + ^ x20: .cfa -16 + ^ x21: .cfa -24 + ^ x22: .cfa -32 + ^ x23: .cfa -40 + ^ x24: .cfa -48 + ^ x25: .cfa -64 + ^ .ra: .cfa -72 + ^ x29: .cfa -80 + ^
STACK CFI 39438 .cfa: sp 144 +
STACK CFI 39450 .cfa: sp 0 +
STACK CFI 39454 .cfa: x29 80 +
STACK CFI INIT 3a9e8 57c .cfa: sp 0 +
STACK CFI 3a9ec .cfa: sp 96 +
STACK CFI 3aa04 .cfa: x29 96 + x19: .cfa -8 + ^ x20: .cfa -16 + ^ x21: .cfa -24 + ^ x22: .cfa -32 + ^ x23: .cfa -40 + ^ x24: .cfa -48 + ^ x25: .cfa -56 + ^ x26: .cfa -64 + ^ x27: .cfa -72 + ^ x28: .cfa -80 + ^ .ra: .cfa -88 + ^ x29: .cfa -96 + ^
STACK CFI 3aec8 .cfa: sp 96 +
STACK CFI 3aee0 .cfa: sp 0 +
STACK CFI 3aee4 .cfa: x29 96 +
STACK CFI INIT 3af64 67c .cfa: sp 0 +
STACK CFI 3af68 .cfa: sp 96 +
STACK CFI 3af80 .cfa: x29 96 + x19: .cfa -8 + ^ x20: .cfa -16 + ^ x21: .cfa -24 + ^ x22: .cfa -32 + ^ x23: .cfa -40 + ^ x24: .cfa -48 + ^ x25: .cfa -56 + ^ x26: .cfa -64 + ^ x27: .cfa -72 + ^ x28: .cfa -80 + ^ .ra: .cfa -88 + ^ x29: .cfa -96 + ^
STACK CFI 3b544 .cfa: sp 96 +
STACK CFI 3b55c .cfa: sp 0 +
STACK CFI 3b560 .cfa: x29 96 +
