MODULE Linux arm64 E61CCB1CADC51673A5E4D44200B4EE540 geode.custom-keybinds.android64.so
INFO CODE_ID 1CCB1CE6C5AD7316A5E4D44200B4EE542CA64877
INFO GENERATOR mozilla/dump_syms 2.3.4
PUBLIC 44110 0 __on_dlclose
PUBLIC 44120 0 __emutls_unregister_key
PUBLIC 44128 0 __on_dlclose_late
PUBLIC 44130 0 __atexit_handler_wrapper
PUBLIC 44144 0 atexit
PUBLIC 44160 0 pthread_atfork
PUBLIC m 44170 0 keybinds::ControllerBind::create(cocos2d::enumKeyCodes)
PUBLIC m 441fc 0 keybinds::ControllerBind::parse(matjson::Value const&)
PUBLIC 44320 0 geode::impl::ResultData<long, std::__ndk1::basic_string<char, std::__ndk1::char_traits<char>, std::__ndk1::allocator<char> > >::~ResultData()
PUBLIC m 44394 0 keybinds::ControllerBind::save() const
PUBLIC 4444c 0 matjson::makeObject(std::initializer_list<std::__ndk1::pair<std::__ndk1::basic_string<char, std::__ndk1::char_traits<char>, std::__ndk1::allocator<char> >, matjson::Value> >)
PUBLIC 44600 0 _ZNSt6__ndk14pairINS_12basic_stringIcNS_11char_traitsIcEENS_9allocatorIcEEEEN7matjson5ValueEEC2B8ne180000IRA7_KciTnNS_9enable_ifIXclsr10_CheckArgsE17__enable_implicitIT_T0_EEEiE4typeELi0EEEOSF_OSG_
PUBLIC 446c4 0 std::__ndk1::pair<std::__ndk1::basic_string<char, std::__ndk1::char_traits<char>, std::__ndk1::allocator<char> >, matjson::Value>::~pair()
PUBLIC m 44700 0 keybinds::ControllerBind::getButton() const
PUBLIC m 44708 0 keybinds::ControllerBind::getHash() const
PUBLIC m 44710 0 keybinds::ControllerBind::isEqual(keybinds::Bind*) const
PUBLIC m 44774 0 keybinds::ControllerBind::toString() const
PUBLIC m 4477c 0 keybinds::ControllerBind::createLabel() const
PUBLIC m 449f8 0 keybinds::ControllerBind::getDeviceID() const
PUBLIC 44a40 0 cocos2d::CCCopying::copyWithZone(cocos2d::CCZone*)
PUBLIC 44a48 0 keybinds::ControllerBind::~ControllerBind()
PUBLIC 44a6c 0 cocos2d::CCObject::update(float)
PUBLIC 44a70 0 __clang_call_terminate
PUBLIC 44a80 0 std::__ndk1::__variant_detail::__visitation::__base::__dispatcher<(unsigned long)0>::__dispatch[abi:ne180000]<std::__ndk1::__variant_detail::__dtor<std::__ndk1::__variant_detail::__traits<long, std::__ndk1::basic_string<char, std::__ndk1::char_traits<char>, std::__ndk1::allocator<char> > >, (std::__ndk1::__variant_detail::_Trait)1>::__destroy[abi:ne180000]()::{lambda(auto:1&)#1}, std::__ndk1::__variant_detail::__base<(std::__ndk1::__variant_detail::__traits<long, std::__ndk1::basic_string<char, std::__ndk1::char_traits<char>, std::__ndk1::allocator<char> > >)1, long, std::__ndk1::allocator<char> >&>(std::__ndk1::__variant_detail::__dtor<std::__ndk1::__variant_detail::__traits<long, std::__ndk1::basic_string<char, std::__ndk1::char_traits<char>, std::__ndk1::allocator<char> > >, (std::__ndk1::__variant_detail::_Trait)1>, std::__ndk1::__variant_detail::__base<(std::__ndk1::__variant_detail::__traits<long, std::__ndk1::basic_string<char, std::__ndk1::char_traits<char>, std::__ndk1::allocator<char> > >)1, long, std::__ndk1::allocator<char> >&)
PUBLIC 44a84 0 std::__ndk1::__variant_detail::__visitation::__base::__dispatcher<(unsigned long)1>::__dispatch[abi:ne180000]<std::__ndk1::__variant_detail::__dtor<std::__ndk1::__variant_detail::__traits<long, std::__ndk1::basic_string<char, std::__ndk1::char_traits<char>, std::__ndk1::allocator<char> > >, (std::__ndk1::__variant_detail::_Trait)1>::__destroy[abi:ne180000]()::{lambda(auto:1&)#1}, std::__ndk1::__variant_detail::__base<(std::__ndk1::__variant_detail::__traits<long, std::__ndk1::basic_string<char, std::__ndk1::char_traits<char>, std::__ndk1::allocator<char> > >)1, long, std::__ndk1::allocator<char> >&>(std::__ndk1::__variant_detail::__dtor<std::__ndk1::__variant_detail::__traits<long, std::__ndk1::basic_string<char, std::__ndk1::char_traits<char>, std::__ndk1::allocator<char> > >, (std::__ndk1::__variant_detail::_Trait)1>, std::__ndk1::__variant_detail::__base<(std::__ndk1::__variant_detail::__traits<long, std::__ndk1::basic_string<char, std::__ndk1::char_traits<char>, std::__ndk1::allocator<char> > >)1, long, std::__ndk1::allocator<char> >&)
PUBLIC 44a98 0 std::__ndk1::vector<matjson::Value, std::__ndk1::allocator<matjson::Value> >::~vector[abi:ne180000]()
PUBLIC 44b00 0 std::__ndk1::vector<matjson::Value, std::__ndk1::allocator<matjson::Value> >::__emplace_back_slow_path<matjson::Value const&>(matjson::Value const&)
PUBLIC 44ca4 0 std::__ndk1::__split_buffer<matjson::Value, std::__ndk1::allocator<matjson::Value>&>::~__split_buffer()
PUBLIC 44cf8 0 std::__ndk1::vector<matjson::Value, std::__ndk1::allocator<matjson::Value> >::__throw_length_error[abi:ne180000]() const
PUBLIC 44d0c 0 std::__ndk1::__throw_length_error[abi:ne180000](char const*)
PUBLIC 44d5c 0 std::length_error::length_error[abi:ne180000](char const*)
PUBLIC 44d8c 0 std::__throw_bad_array_new_length([abi:ne180000], void)
PUBLIC 44dc0 0 std::__ndk1::basic_string<char, std::__ndk1::char_traits<char>, std::__ndk1::allocator<char> >::__throw_length_error[abi:ne180000]() const
PUBLIC 44dd4 0 geode::cast::traverseTypeinfoFor(void*, geode::cast::ClassTypeinfoType const*, char const*)
PUBLIC 44ee0 0 __aarch64_ldadd8_relax
PUBLIC 44f10 0 init_have_lse_atomics
PUBLIC 44fa8 0 __init_cpu_features_constructor
PUBLIC 45544 0 __init_cpu_features
PUBLIC 455d0 0 __aarch64_ldadd8_acq_rel
PUBLIC 45600 0 geodeExecFunction317<(anonymous namespace)::ExecFuncUnique317>()
PUBLIC 50ff4 0 __cxx_global_var_init.1
PUBLIC 515dc 0 __cxx_global_var_init.2
PUBLIC 51a9c 0 _GLOBAL__sub_I_EditorUI.cpp
PUBLIC 51aa0 0 geode::modifier::ModifyBase<geode::modifier::ModifyDerive<hook12<(anonymous namespace)::hook12Parent>, EditorPauseLayer> >::~ModifyBase()
PUBLIC 51abc 0 geode::modifier::ModifyBase<geode::modifier::ModifyDerive<hook36<(anonymous namespace)::hook36Parent>, EditorUI> >::~ModifyBase()
PUBLIC 51ad8 0 geode::modifier::ModifyDerive<hook12<(anonymous namespace)::hook12Parent>, EditorPauseLayer>::apply()
PUBLIC 520e8 0 std::__ndk1::shared_ptr<geode::Hook>::~shared_ptr[abi:ne180000]()
PUBLIC 52138 0 geode::impl::ResultData<geode::Hook*, std::__ndk1::basic_string<char, std::__ndk1::char_traits<char>, std::__ndk1::allocator<char> > >::~ResultData()
PUBLIC 521ac 0 std::__ndk1::vector<std::__ndk1::basic_string<char, std::__ndk1::char_traits<char>, std::__ndk1::allocator<char> >, std::__ndk1::allocator<std::__ndk1::basic_string<char, std::__ndk1::char_traits<char>, std::__ndk1::allocator<char> > > >::~vector[abi:ne180000]()
PUBLIC 52228 0 geode::modifier::ModifyBase<geode::modifier::ModifyDerive<hook12<(anonymous namespace)::hook12Parent>, EditorPauseLayer> >::apply()
PUBLIC 5222c 0 std::__ndk1::__tree<std::__ndk1::__value_type<std::__ndk1::basic_string<char, std::__ndk1::char_traits<char>, std::__ndk1::allocator<char> >, std::__ndk1::shared_ptr<geode::Hook> >, std::__ndk1::__map_value_compare<std::__ndk1::basic_string<char, std::__ndk1::char_traits<char>, std::__ndk1::allocator<char> >, std::__ndk1::__value_type<std::__ndk1::basic_string<char, std::__ndk1::char_traits<char>, std::__ndk1::allocator<char> >, std::__ndk1::shared_ptr<geode::Hook> >, std::__ndk1::less<std::__ndk1::basic_string<char, std::__ndk1::char_traits<char>, std::__ndk1::allocator<char> > >, true>, std::__ndk1::allocator<std::__ndk1::__value_type<std::__ndk1::basic_string<char, std::__ndk1::char_traits<char>, std::__ndk1::allocator<char> >, std::__ndk1::shared_ptr<geode::Hook> > > >::find<std::__ndk1::basic_string<char, std::__ndk1::char_traits<char>, std::__ndk1::allocator<char> > >(std::__ndk1::basic_string<char, std::__ndk1::char_traits<char>, std::__ndk1::allocator<char> > const&)
PUBLIC 5234c 0 std::__ndk1::__tree<std::__ndk1::__value_type<std::__ndk1::basic_string<char, std::__ndk1::char_traits<char>, std::__ndk1::allocator<char> >, std::__ndk1::shared_ptr<geode::Hook> >, std::__ndk1::__map_value_compare<std::__ndk1::basic_string<char, std::__ndk1::char_traits<char>, std::__ndk1::allocator<char> >, std::__ndk1::__value_type<std::__ndk1::basic_string<char, std::__ndk1::char_traits<char>, std::__ndk1::allocator<char> >, std::__ndk1::shared_ptr<geode::Hook> >, std::__ndk1::less<std::__ndk1::basic_string<char, std::__ndk1::char_traits<char>, std::__ndk1::allocator<char> > >, true>, std::__ndk1::allocator<std::__ndk1::__value_type<std::__ndk1::basic_string<char, std::__ndk1::char_traits<char>, std::__ndk1::allocator<char> >, std::__ndk1::shared_ptr<geode::Hook> > > >::__emplace_unique_key_args<std::__ndk1::basic_string<char, std::__ndk1::char_traits<char>, std::__ndk1::allocator<char> >, std::__ndk1::piecewise_construct_t const&, std::__ndk1::tuple<std::__ndk1::basic_string<char, std::__ndk1::char_traits<char>, std::__ndk1::allocator<char> > const&>, std::__ndk1::tuple<> >(std::__ndk1::basic_string<char, std::__ndk1::char_traits<char>, std::__ndk1::allocator<char> > const&, std::__ndk1::piecewise_construct_t const&, std::__ndk1::tuple<std::__ndk1::basic_string<char, std::__ndk1::char_traits<char>, std::__ndk1::allocator<char> > const&>, std::__ndk1::tuple<>)
PUBLIC 52540 0 std::__ndk1::unique_ptr<std::__ndk1::__tree_node<std::__ndk1::__value_type<std::__ndk1::basic_string<char, std::__ndk1::char_traits<char>, std::__ndk1::allocator<char> >, std::__ndk1::shared_ptr<geode::Hook> >, void*>, std::__ndk1::__tree_node_destructor<std::__ndk1::allocator<std::__ndk1::__tree_node<std::__ndk1::__value_type<std::__ndk1::basic_string<char, std::__ndk1::char_traits<char>, std::__ndk1::allocator<char> >, std::__ndk1::shared_ptr<geode::Hook> >, void*> > > >::~unique_ptr[abi:ne180000]()
PUBLIC 525bc 0 std::__ndk1::basic_string<char, std::__ndk1::char_traits<char>, std::__ndk1::allocator<char> >::__init_copy_ctor_external(char const*, unsigned long)
PUBLIC 5263c 0 std::__ndk1::__tree_balance_after_insert[abi:ne180000]<std::__ndk1::__tree_node_base<void*>*>(std::__ndk1::__tree_node_base<void*>*, std::__ndk1::__tree_node_base<void*>*)
PUBLIC 527ec 0 _ZN5geode15UnwrapExceptionC2IRPNS_4HookEQsr4implE18IsStringStreamableIT_EEENS_4impl5OkTagEOS5_
PUBLIC 52940 0 std::__ndk1::__throw_bad_variant_access[abi:ne180000]()
PUBLIC 52974 0 std::__ndk1::basic_stringstream<char, std::__ndk1::char_traits<char>, std::__ndk1::allocator<char> >::basic_stringstream[abi:ne180000]()
PUBLIC m 52aa0 0 std::__ndk1::basic_stringstream<char, std::__ndk1::char_traits<char>, std::__ndk1::allocator<char> >::~basic_stringstream()
PUBLIC 52b20 0 geode::UnwrapException::~UnwrapException()
PUBLIC 52b44 0 std::__ndk1::__put_character_sequence[abi:ne180000]<char, std::__ndk1::char_traits<char> >(std::__ndk1::basic_ostream<char, std::__ndk1::char_traits<char> >, std::__ndk1::basic_ostream const*, unsigned long)
PUBLIC 52ce8 0 std::__ndk1::__pad_and_output[abi:ne180000]<char, std::__ndk1::char_traits<char> >(std::__ndk1::char_traits<char>, std::__ndk1::ostreambuf_iterator const*, std::__ndk1::ostreambuf_iterator const, std::__ndk1::ostreambuf_iterator const, std::__ndk1::ios_base&, std::__ndk1::ostreambuf_iterator)
PUBLIC 52ec4 0 std::__ndk1::basic_stringbuf<char, std::__ndk1::char_traits<char>, std::__ndk1::allocator<char> >::str[abi:ne180000]() &&
PUBLIC 5303c 0 std::__ndk1::basic_stringbuf<char, std::__ndk1::char_traits<char>, std::__ndk1::allocator<char> >::__init_buf_ptrs[abi:ne180000]()
PUBLIC 53184 0 std::__ndk1::__variant_detail::__visitation::__base::__dispatcher<(unsigned long)0>::__dispatch[abi:ne180000]<std::__ndk1::__variant_detail::__dtor<std::__ndk1::__variant_detail::__traits<std::__ndk1::monostate, std::__ndk1::basic_string<char, std::__ndk1::char_traits<char>, std::__ndk1::allocator<char> > >, (std::__ndk1::__variant_detail::_Trait)1>::__destroy[abi:ne180000]()::{lambda(auto:1&)#1}, std::__ndk1::__variant_detail::__base<(std::__ndk1::__variant_detail::__traits<std::__ndk1::monostate, std::__ndk1::basic_string<char, std::__ndk1::char_traits<char>, std::__ndk1::allocator<char> > >)1, std::__ndk1::__variant_detail::__traits, std::__ndk1::allocator<char> >&>(std::__ndk1::__variant_detail::__dtor<std::__ndk1::__variant_detail::__traits<std::__ndk1::monostate, std::__ndk1::basic_string<char, std::__ndk1::char_traits<char>, std::__ndk1::allocator<char> > >, (std::__ndk1::__variant_detail::_Trait)1>, std::__ndk1::__variant_detail::__base<(std::__ndk1::__variant_detail::__traits<std::__ndk1::monostate, std::__ndk1::basic_string<char, std::__ndk1::char_traits<char>, std::__ndk1::allocator<char> > >)1, std::__ndk1::__variant_detail::__traits, std::__ndk1::allocator<char> >&)
PUBLIC 53188 0 std::__ndk1::__variant_detail::__visitation::__base::__dispatcher<(unsigned long)1>::__dispatch[abi:ne180000]<std::__ndk1::__variant_detail::__dtor<std::__ndk1::__variant_detail::__traits<std::__ndk1::monostate, std::__ndk1::basic_string<char, std::__ndk1::char_traits<char>, std::__ndk1::allocator<char> > >, (std::__ndk1::__variant_detail::_Trait)1>::__destroy[abi:ne180000]()::{lambda(auto:1&)#1}, std::__ndk1::__variant_detail::__base<(std::__ndk1::__variant_detail::__traits<std::__ndk1::monostate, std::__ndk1::basic_string<char, std::__ndk1::char_traits<char>, std::__ndk1::allocator<char> > >)1, std::__ndk1::__variant_detail::__traits, std::__ndk1::allocator<char> >&>(std::__ndk1::__variant_detail::__dtor<std::__ndk1::__variant_detail::__traits<std::__ndk1::monostate, std::__ndk1::basic_string<char, std::__ndk1::char_traits<char>, std::__ndk1::allocator<char> > >, (std::__ndk1::__variant_detail::_Trait)1>, std::__ndk1::__variant_detail::__base<(std::__ndk1::__variant_detail::__traits<std::__ndk1::monostate, std::__ndk1::basic_string<char, std::__ndk1::char_traits<char>, std::__ndk1::allocator<char> > >)1, std::__ndk1::__variant_detail::__traits, std::__ndk1::allocator<char> >&)
PUBLIC 5319c 0 std::__ndk1::vector<std::__ndk1::basic_string<char, std::__ndk1::char_traits<char>, std::__ndk1::allocator<char> >, std::__ndk1::allocator<std::__ndk1::basic_string<char, std::__ndk1::char_traits<char>, std::__ndk1::allocator<char> > > >::__push_back_slow_path<std::__ndk1::basic_string<char, std::__ndk1::char_traits<char>, std::__ndk1::allocator<char> > const&>(std::__ndk1::basic_string<char, std::__ndk1::char_traits<char>, std::__ndk1::allocator<char> > const&)
PUBLIC 533c4 0 std::__ndk1::__split_buffer<std::__ndk1::basic_string<char, std::__ndk1::char_traits<char>, std::__ndk1::allocator<char> >, std::__ndk1::allocator<std::__ndk1::basic_string<char, std::__ndk1::char_traits<char>, std::__ndk1::allocator<char> > >&>::~__split_buffer()
PUBLIC 5342c 0 std::__ndk1::vector<std::__ndk1::basic_string<char, std::__ndk1::char_traits<char>, std::__ndk1::allocator<char> >, std::__ndk1::allocator<std::__ndk1::basic_string<char, std::__ndk1::char_traits<char>, std::__ndk1::allocator<char> > > >::__throw_length_error[abi:ne180000]() const
PUBLIC 53440 0 std::__ndk1::__variant_detail::__visitation::__base::__dispatcher<(unsigned long)0>::__dispatch[abi:ne180000]<std::__ndk1::__variant_detail::__dtor<std::__ndk1::__variant_detail::__traits<geode::Hook*, std::__ndk1::basic_string<char, std::__ndk1::char_traits<char>, std::__ndk1::allocator<char> > >, (std::__ndk1::__variant_detail::_Trait)1>::__destroy[abi:ne180000]()::{lambda(auto:1&)#1}, std::__ndk1::__variant_detail::__base<(std::__ndk1::__variant_detail::__traits<geode::Hook*, std::__ndk1::basic_string<char, std::__ndk1::char_traits<char>, std::__ndk1::allocator<char> > >)1, geode::Hook, std::__ndk1::allocator<char> >&>(std::__ndk1::__variant_detail::__dtor<std::__ndk1::__variant_detail::__traits<geode::Hook*, std::__ndk1::basic_string<char, std::__ndk1::char_traits<char>, std::__ndk1::allocator<char> > >, (std::__ndk1::__variant_detail::_Trait)1>, std::__ndk1::__variant_detail::__base<(std::__ndk1::__variant_detail::__traits<geode::Hook*, std::__ndk1::basic_string<char, std::__ndk1::char_traits<char>, std::__ndk1::allocator<char> > >)1, geode::Hook, std::__ndk1::allocator<char> >&)
PUBLIC 53444 0 std::__ndk1::__variant_detail::__visitation::__base::__dispatcher<(unsigned long)1>::__dispatch[abi:ne180000]<std::__ndk1::__variant_detail::__dtor<std::__ndk1::__variant_detail::__traits<geode::Hook*, std::__ndk1::basic_string<char, std::__ndk1::char_traits<char>, std::__ndk1::allocator<char> > >, (std::__ndk1::__variant_detail::_Trait)1>::__destroy[abi:ne180000]()::{lambda(auto:1&)#1}, std::__ndk1::__variant_detail::__base<(std::__ndk1::__variant_detail::__traits<geode::Hook*, std::__ndk1::basic_string<char, std::__ndk1::char_traits<char>, std::__ndk1::allocator<char> > >)1, geode::Hook, std::__ndk1::allocator<char> >&>(std::__ndk1::__variant_detail::__dtor<std::__ndk1::__variant_detail::__traits<geode::Hook*, std::__ndk1::basic_string<char, std::__ndk1::char_traits<char>, std::__ndk1::allocator<char> > >, (std::__ndk1::__variant_detail::_Trait)1>, std::__ndk1::__variant_detail::__base<(std::__ndk1::__variant_detail::__traits<geode::Hook*, std::__ndk1::basic_string<char, std::__ndk1::char_traits<char>, std::__ndk1::allocator<char> > >)1, geode::Hook, std::__ndk1::allocator<char> >&)
PUBLIC 53458 0 std::__ndk1::__tree<std::__ndk1::__value_type<std::__ndk1::basic_string<char, std::__ndk1::char_traits<char>, std::__ndk1::allocator<char> >, std::__ndk1::shared_ptr<geode::Hook> >, std::__ndk1::__map_value_compare<std::__ndk1::basic_string<char, std::__ndk1::char_traits<char>, std::__ndk1::allocator<char> >, std::__ndk1::__value_type<std::__ndk1::basic_string<char, std::__ndk1::char_traits<char>, std::__ndk1::allocator<char> >, std::__ndk1::shared_ptr<geode::Hook> >, std::__ndk1::less<std::__ndk1::basic_string<char, std::__ndk1::char_traits<char>, std::__ndk1::allocator<char> > >, true>, std::__ndk1::allocator<std::__ndk1::__value_type<std::__ndk1::basic_string<char, std::__ndk1::char_traits<char>, std::__ndk1::allocator<char> >, std::__ndk1::shared_ptr<geode::Hook> > > >::erase(std::__ndk1::__tree_const_iterator<std::__ndk1::__value_type<std::__ndk1::basic_string<char, std::__ndk1::char_traits<char>, std::__ndk1::allocator<char> >, std::__ndk1::shared_ptr<geode::Hook> >, std::__ndk1::__tree_node<std::__ndk1::__value_type<std::__ndk1::basic_string<char, std::__ndk1::char_traits<char>, std::__ndk1::allocator<char> >, std::__ndk1::shared_ptr<geode::Hook> >, void*>*, long>)
PUBLIC 5352c 0 std::__ndk1::__tree_remove[abi:ne180000]<std::__ndk1::__tree_node_base<void*>*>(std::__ndk1::__tree_node_base<void*>*, std::__ndk1::__tree_node_base<void*>*)
PUBLIC 538f4 0 std::__ndk1::__tree<std::__ndk1::__value_type<std::__ndk1::basic_string<char, std::__ndk1::char_traits<char>, std::__ndk1::allocator<char> >, std::__ndk1::shared_ptr<geode::Hook> >, std::__ndk1::__map_value_compare<std::__ndk1::basic_string<char, std::__ndk1::char_traits<char>, std::__ndk1::allocator<char> >, std::__ndk1::__value_type<std::__ndk1::basic_string<char, std::__ndk1::char_traits<char>, std::__ndk1::allocator<char> >, std::__ndk1::shared_ptr<geode::Hook> >, std::__ndk1::less<std::__ndk1::basic_string<char, std::__ndk1::char_traits<char>, std::__ndk1::allocator<char> > >, true>, std::__ndk1::allocator<std::__ndk1::__value_type<std::__ndk1::basic_string<char, std::__ndk1::char_traits<char>, std::__ndk1::allocator<char> >, std::__ndk1::shared_ptr<geode::Hook> > > >::destroy(std::__ndk1::__tree_node<std::__ndk1::__value_type<std::__ndk1::basic_string<char, std::__ndk1::char_traits<char>, std::__ndk1::allocator<char> >, std::__ndk1::shared_ptr<geode::Hook> >, void*>*)
PUBLIC 53980 0 geode::modifier::AsStaticFunction_keyDown<hook12<(anonymous namespace)::hook12Parent>, void (hook12<(anonymous namespace)::hook12Parent>::*)(cocos2d::enumKeyCodes)>::Impl<void (hook12<(anonymous namespace)::hook12Parent>::*)(cocos2d::enumKeyCodes)>::function(hook12<(anonymous namespace)::hook12Parent>*, cocos2d::enumKeyCodes)
PUBLIC 53990 0 geode::modifier::AsStaticFunction_customSetup<hook12<(anonymous namespace)::hook12Parent>, void (hook12<(anonymous namespace)::hook12Parent>::*)()>::Impl<void (hook12<(anonymous namespace)::hook12Parent>::*)()>::function(hook12<(anonymous namespace)::hook12Parent>*)
PUBLIC 53a80 0 geode::addresser::Addresser::addressOfVirtual<void, EditorPauseLayer, cocos2d::enumKeyCodes>(void (EditorPauseLayer::*)(cocos2d::enumKeyCodes))
PUBLIC 53b28 0 EditorPauseLayer::EditorPauseLayer(geode::ZeroConstructorType)
PUBLIC 53bb4 0 std::__ndk1::shared_ptr<tulip::hook::CallingConvention>::~shared_ptr[abi:ne180000]()
PUBLIC 53c04 0 tulip::hook::HandlerMetadata::~HandlerMetadata()
PUBLIC 53c68 0 std::__ndk1::__tree<std::__ndk1::__value_type<std::__ndk1::basic_string<char, std::__ndk1::char_traits<char>, std::__ndk1::allocator<char> >, std::__ndk1::shared_ptr<geode::Hook> >, std::__ndk1::__map_value_compare<std::__ndk1::basic_string<char, std::__ndk1::char_traits<char>, std::__ndk1::allocator<char> >, std::__ndk1::__value_type<std::__ndk1::basic_string<char, std::__ndk1::char_traits<char>, std::__ndk1::allocator<char> >, std::__ndk1::shared_ptr<geode::Hook> >, std::__ndk1::less<std::__ndk1::basic_string<char, std::__ndk1::char_traits<char>, std::__ndk1::allocator<char> > >, true>, std::__ndk1::allocator<std::__ndk1::__value_type<std::__ndk1::basic_string<char, std::__ndk1::char_traits<char>, std::__ndk1::allocator<char> >, std::__ndk1::shared_ptr<geode::Hook> > > >::__emplace_unique_key_args<std::__ndk1::basic_string<char, std::__ndk1::char_traits<char>, std::__ndk1::allocator<char> >, std::__ndk1::piecewise_construct_t const&, std::__ndk1::tuple<std::__ndk1::basic_string<char, std::__ndk1::char_traits<char>, std::__ndk1::allocator<char> >&&>, std::__ndk1::tuple<> >(std::__ndk1::basic_string<char, std::__ndk1::char_traits<char>, std::__ndk1::allocator<char> > const&, std::__ndk1::piecewise_construct_t const&, std::__ndk1::tuple<std::__ndk1::basic_string<char, std::__ndk1::char_traits<char>, std::__ndk1::allocator<char> >&&>, std::__ndk1::tuple<>)
PUBLIC 53de0 0 geode::addresser::Addresser::addressOfVirtual<void, EditorPauseLayer, >(void (EditorPauseLayer::*)())
PUBLIC 53e88 0 cocos2d::CCNode::addEventListener<keybinds::InvokeBindFilter, char const (&) [35]>(std::__ndk1::function<keybinds::InvokeBindFilter::Callback>, char const (&) [35])
PUBLIC 54008 0 cocos2d::CCNode::addEventListener<keybinds::InvokeBindFilter, char const (&) [35]>(std::__ndk1::basic_string<char, std::__ndk1::char_traits<char>, std::__ndk1::allocator<char> > const&, std::__ndk1::function<keybinds::InvokeBindFilter::Callback>, char const (&) [35])
PUBLIC 542a0 0 geode::EventListener<keybinds::InvokeBindFilter>::EventListener(std::__ndk1::function<geode::ListenerResult(keybinds::InvokeBindEvent*)>, keybinds::InvokeBindFilter)
PUBLIC 543cc 0 geode::EventListener<keybinds::InvokeBindFilter>::getPool() const
PUBLIC 543d0 0 geode::EventListener<keybinds::InvokeBindFilter>::handle(geode::Event*)
PUBLIC 54544 0 geode::EventListener<keybinds::InvokeBindFilter>::~EventListener()
PUBLIC 545b0 0 geode::EventListener<keybinds::InvokeBindFilter>::~EventListener()
PUBLIC 54624 0 std::__ndk1::__function::__base<geode::ListenerResult(keybinds::InvokeBindEvent*)>::~__base()
PUBLIC 54628 0 std::__ndk1::__function::__func<hook12<(anonymous namespace)::hook12Parent>::customSetup()::{lambda(keybinds::InvokeBindEvent*)#1}, std::__ndk1::allocator<hook12<(anonymous namespace)::hook12Parent>::customSetup()::{lambda(keybinds::InvokeBindEvent*)#1}>, geode::ListenerResult(keybinds::InvokeBindEvent*)>::~__func()
PUBLIC 5462c 0 std::__ndk1::__function::__func<hook12<(anonymous namespace)::hook12Parent>::customSetup()::{lambda(keybinds::InvokeBindEvent*)#1}, std::__ndk1::allocator<hook12<(anonymous namespace)::hook12Parent>::customSetup()::{lambda(keybinds::InvokeBindEvent*)#1}>, geode::ListenerResult(keybinds::InvokeBindEvent*)>::__clone() const
PUBLIC 54660 0 std::__ndk1::__function::__func<hook12<(anonymous namespace)::hook12Parent>::customSetup()::{lambda(keybinds::InvokeBindEvent*)#1}, std::__ndk1::allocator<hook12<(anonymous namespace)::hook12Parent>::customSetup()::{lambda(keybinds::InvokeBindEvent*)#1}>, geode::ListenerResult(keybinds::InvokeBindEvent*)>::__clone(std::__ndk1::__function::__base<geode::ListenerResult(keybinds::InvokeBindEvent*)>*) const
PUBLIC 54674 0 std::__ndk1::__function::__func<hook12<(anonymous namespace)::hook12Parent>::customSetup()::{lambda(keybinds::InvokeBindEvent*)#1}, std::__ndk1::allocator<hook12<(anonymous namespace)::hook12Parent>::customSetup()::{lambda(keybinds::InvokeBindEvent*)#1}>, geode::ListenerResult(keybinds::InvokeBindEvent*)>::destroy()
PUBLIC 54678 0 std::__ndk1::__function::__func<hook12<(anonymous namespace)::hook12Parent>::customSetup()::{lambda(keybinds::InvokeBindEvent*)#1}, std::__ndk1::allocator<hook12<(anonymous namespace)::hook12Parent>::customSetup()::{lambda(keybinds::InvokeBindEvent*)#1}>, geode::ListenerResult(keybinds::InvokeBindEvent*)>::destroy_deallocate()
PUBLIC 5467c 0 std::__ndk1::__function::__func<hook12<(anonymous namespace)::hook12Parent>::customSetup()::{lambda(keybinds::InvokeBindEvent*)#1}, std::__ndk1::allocator<hook12<(anonymous namespace)::hook12Parent>::customSetup()::{lambda(keybinds::InvokeBindEvent*)#1}>, geode::ListenerResult(keybinds::InvokeBindEvent*)>::operator()(keybinds::InvokeBindEvent*&&)
PUBLIC 546b0 0 std::__ndk1::__function::__func<hook12<(anonymous namespace)::hook12Parent>::customSetup()::{lambda(keybinds::InvokeBindEvent*)#1}, std::__ndk1::allocator<hook12<(anonymous namespace)::hook12Parent>::customSetup()::{lambda(keybinds::InvokeBindEvent*)#1}>, geode::ListenerResult(keybinds::InvokeBindEvent*)>::target(std::type_info const&) const
PUBLIC 546cc 0 std::__ndk1::__function::__func<hook12<(anonymous namespace)::hook12Parent>::customSetup()::{lambda(keybinds::InvokeBindEvent*)#1}, std::__ndk1::allocator<hook12<(anonymous namespace)::hook12Parent>::customSetup()::{lambda(keybinds::InvokeBindEvent*)#1}>, geode::ListenerResult(keybinds::InvokeBindEvent*)>::target_type() const
PUBLIC 546d8 0 geode::modifier::ModifyDerive<hook36<(anonymous namespace)::hook36Parent>, EditorUI>::apply()
PUBLIC 55204 0 geode::modifier::ModifyBase<geode::modifier::ModifyDerive<hook36<(anonymous namespace)::hook36Parent>, EditorUI> >::apply()
PUBLIC 55208 0 geode::modifier::ModifyBase<geode::modifier::ModifyDerive<hook36<(anonymous namespace)::hook36Parent>, EditorUI> >::setHookPriority(std::__ndk1::basic_string_view<char, std::__ndk1::char_traits<char> >, int)
PUBLIC 5545c 0 geode::Hook::create<void (*)(hook36<(anonymous namespace)::hook36Parent>*, cocos2d::enumKeyCodes)>(void*, void (*)(hook36<(anonymous namespace)::hook36Parent>*, cocos2d::enumKeyCodes), std::__ndk1::basic_string<char, std::__ndk1::char_traits<char>, std::__ndk1::allocator<char> > const&, tulip::hook::TulipConvention, tulip::hook::HookMetadata const&)
PUBLIC 555e0 0 geode::modifier::AsStaticFunction_keyDown<hook36<(anonymous namespace)::hook36Parent>, void (hook36<(anonymous namespace)::hook36Parent>::*)(cocos2d::enumKeyCodes)>::Impl<void (hook36<(anonymous namespace)::hook36Parent>::*)(cocos2d::enumKeyCodes)>::function(hook36<(anonymous namespace)::hook36Parent>*, cocos2d::enumKeyCodes)
PUBLIC 55604 0 geode::modifier::AsStaticFunction_keyUp<hook36<(anonymous namespace)::hook36Parent>, void (hook36<(anonymous namespace)::hook36Parent>::*)(cocos2d::enumKeyCodes)>::Impl<void (hook36<(anonymous namespace)::hook36Parent>::*)(cocos2d::enumKeyCodes)>::function(hook36<(anonymous namespace)::hook36Parent>*, cocos2d::enumKeyCodes)
PUBLIC 55620 0 geode::modifier::AsStaticFunction_init<hook36<(anonymous namespace)::hook36Parent>, bool (hook36<(anonymous namespace)::hook36Parent>::*)(LevelEditorLayer*)>::Impl<bool (hook36<(anonymous namespace)::hook36Parent>::*)(LevelEditorLayer*)>::function(hook36<(anonymous namespace)::hook36Parent>*, LevelEditorLayer*)
PUBLIC 5571c 0 geode::Hook::create<void (*)(hook36<(anonymous namespace)::hook36Parent>*, EditCommand)>(void*, void (*)(hook36<(anonymous namespace)::hook36Parent>*, EditCommand), std::__ndk1::basic_string<char, std::__ndk1::char_traits<char>, std::__ndk1::allocator<char> > const&, tulip::hook::TulipConvention, tulip::hook::HookMetadata const&)
PUBLIC 558a0 0 geode::modifier::AsStaticFunction_moveObjectCall<hook36<(anonymous namespace)::hook36Parent>, void (hook36<(anonymous namespace)::hook36Parent>::*)(EditCommand)>::Impl<void (hook36<(anonymous namespace)::hook36Parent>::*)(EditCommand)>::function(hook36<(anonymous namespace)::hook36Parent>*, EditCommand)
PUBLIC 558a4 0 geode::modifier::AsStaticFunction_transformObjectCall<hook36<(anonymous namespace)::hook36Parent>, void (hook36<(anonymous namespace)::hook36Parent>::*)(EditCommand)>::Impl<void (hook36<(anonymous namespace)::hook36Parent>::*)(EditCommand)>::function(hook36<(anonymous namespace)::hook36Parent>*, EditCommand)
PUBLIC 558a8 0 geode::addresser::Addresser::addressOfVirtual<void, EditorUI, cocos2d::enumKeyCodes>(void (EditorUI::*)(cocos2d::enumKeyCodes))
PUBLIC 55994 0 EditorUI::EditorUI(geode::ZeroConstructorType)
PUBLIC 55aa0 0 std::__ndk1::__function::__func<hook36<(anonymous namespace)::hook36Parent>::init(LevelEditorLayer*)::{lambda()#1}, std::__ndk1::allocator<hook36<(anonymous namespace)::hook36Parent>::init(LevelEditorLayer*)::{lambda()#1}>, void ()>::~__func()
PUBLIC 55aa4 0 std::__ndk1::__function::__func<hook36<(anonymous namespace)::hook36Parent>::init(LevelEditorLayer*)::{lambda()#1}, std::__ndk1::allocator<hook36<(anonymous namespace)::hook36Parent>::init(LevelEditorLayer*)::{lambda()#1}>, void ()>::__clone() const
PUBLIC 55adc 0 std::__ndk1::__function::__func<hook36<(anonymous namespace)::hook36Parent>::init(LevelEditorLayer*)::{lambda()#1}, std::__ndk1::allocator<hook36<(anonymous namespace)::hook36Parent>::init(LevelEditorLayer*)::{lambda()#1}>, void ()>::__clone(std::__ndk1::__function::__base<void ()>*) const
PUBLIC 55af4 0 std::__ndk1::__function::__func<hook36<(anonymous namespace)::hook36Parent>::init(LevelEditorLayer*)::{lambda()#1}, std::__ndk1::allocator<hook36<(anonymous namespace)::hook36Parent>::init(LevelEditorLayer*)::{lambda()#1}>, void ()>::destroy()
PUBLIC 55af8 0 std::__ndk1::__function::__func<hook36<(anonymous namespace)::hook36Parent>::init(LevelEditorLayer*)::{lambda()#1}, std::__ndk1::allocator<hook36<(anonymous namespace)::hook36Parent>::init(LevelEditorLayer*)::{lambda()#1}>, void ()>::destroy_deallocate()
PUBLIC 55afc 0 std::__ndk1::__function::__func<hook36<(anonymous namespace)::hook36Parent>::init(LevelEditorLayer*)::{lambda()#1}, std::__ndk1::allocator<hook36<(anonymous namespace)::hook36Parent>::init(LevelEditorLayer*)::{lambda()#1}>, void ()>::operator()()
PUBLIC 55b04 0 std::__ndk1::__function::__func<hook36<(anonymous namespace)::hook36Parent>::init(LevelEditorLayer*)::{lambda()#1}, std::__ndk1::allocator<hook36<(anonymous namespace)::hook36Parent>::init(LevelEditorLayer*)::{lambda()#1}>, void ()>::target(std::type_info const&) const
PUBLIC 55b20 0 std::__ndk1::__function::__func<hook36<(anonymous namespace)::hook36Parent>::init(LevelEditorLayer*)::{lambda()#1}, std::__ndk1::allocator<hook36<(anonymous namespace)::hook36Parent>::init(LevelEditorLayer*)::{lambda()#1}>, void ()>::target_type() const
PUBLIC 55b2c 0 hook36<(anonymous namespace)::hook36Parent>::init(LevelEditorLayer*)::{lambda()#1}::operator()() const
PUBLIC 58158 0 hook36<(anonymous namespace)::hook36Parent>::defineKeybind(std::__ndk1::basic_string<char, std::__ndk1::char_traits<char>, std::__ndk1::allocator<char> > const&, std::__ndk1::function<void (bool)>)
PUBLIC 58354 0 hook36<(anonymous namespace)::hook36Parent>::defineKeybind(std::__ndk1::basic_string<char, std::__ndk1::char_traits<char>, std::__ndk1::allocator<char> > const&, std::__ndk1::function<void ()>)
PUBLIC 58550 0 cocos2d::CCNode::addEventListener<keybinds::InvokeBindFilter, std::__ndk1::basic_string<char, std::__ndk1::char_traits<char>, std::__ndk1::allocator<char> > const&>(std::__ndk1::function<keybinds::InvokeBindFilter::Callback>, std::__ndk1::basic_string<char, std::__ndk1::char_traits<char>, std::__ndk1::allocator<char> > const&)
PUBLIC 587c8 0 std::__ndk1::__function::__func<hook36<(anonymous namespace)::hook36Parent>::defineKeybind(std::__ndk1::basic_string<char, std::__ndk1::char_traits<char>, std::__ndk1::allocator<char> > const&, std::__ndk1::function<void (bool)>)::{lambda(keybinds::InvokeBindEvent*)#1}, std::__ndk1::allocator<hook36<(anonymous namespace)::hook36Parent>::defineKeybind(std::__ndk1::basic_string<char, std::__ndk1::char_traits<char>, std::__ndk1::allocator<char> > const&, std::__ndk1::function<void (bool)>)::{lambda(keybinds::InvokeBindEvent*)#1}>, geode::ListenerResult(keybinds::InvokeBindEvent*)>::~__func()
PUBLIC 58814 0 std::__ndk1::__function::__func<hook36<(anonymous namespace)::hook36Parent>::defineKeybind(std::__ndk1::basic_string<char, std::__ndk1::char_traits<char>, std::__ndk1::allocator<char> > const&, std::__ndk1::function<void (bool)>)::{lambda(keybinds::InvokeBindEvent*)#1}, std::__ndk1::allocator<hook36<(anonymous namespace)::hook36Parent>::defineKeybind(std::__ndk1::basic_string<char, std::__ndk1::char_traits<char>, std::__ndk1::allocator<char> > const&, std::__ndk1::function<void (bool)>)::{lambda(keybinds::InvokeBindEvent*)#1}>, geode::ListenerResult(keybinds::InvokeBindEvent*)>::~__func()
PUBLIC 58870 0 std::__ndk1::__function::__func<hook36<(anonymous namespace)::hook36Parent>::defineKeybind(std::__ndk1::basic_string<char, std::__ndk1::char_traits<char>, std::__ndk1::allocator<char> > const&, std::__ndk1::function<void (bool)>)::{lambda(keybinds::InvokeBindEvent*)#1}, std::__ndk1::allocator<hook36<(anonymous namespace)::hook36Parent>::defineKeybind(std::__ndk1::basic_string<char, std::__ndk1::char_traits<char>, std::__ndk1::allocator<char> > const&, std::__ndk1::function<void (bool)>)::{lambda(keybinds::InvokeBindEvent*)#1}>, geode::ListenerResult(keybinds::InvokeBindEvent*)>::__clone() const
PUBLIC 58904 0 std::__ndk1::__function::__func<hook36<(anonymous namespace)::hook36Parent>::defineKeybind(std::__ndk1::basic_string<char, std::__ndk1::char_traits<char>, std::__ndk1::allocator<char> > const&, std::__ndk1::function<void (bool)>)::{lambda(keybinds::InvokeBindEvent*)#1}, std::__ndk1::allocator<hook36<(anonymous namespace)::hook36Parent>::defineKeybind(std::__ndk1::basic_string<char, std::__ndk1::char_traits<char>, std::__ndk1::allocator<char> > const&, std::__ndk1::function<void (bool)>)::{lambda(keybinds::InvokeBindEvent*)#1}>, geode::ListenerResult(keybinds::InvokeBindEvent*)>::__clone(std::__ndk1::__function::__base<geode::ListenerResult(keybinds::InvokeBindEvent*)>*) const
PUBLIC 58980 0 std::__ndk1::__function::__func<hook36<(anonymous namespace)::hook36Parent>::defineKeybind(std::__ndk1::basic_string<char, std::__ndk1::char_traits<char>, std::__ndk1::allocator<char> > const&, std::__ndk1::function<void (bool)>)::{lambda(keybinds::InvokeBindEvent*)#1}, std::__ndk1::allocator<hook36<(anonymous namespace)::hook36Parent>::defineKeybind(std::__ndk1::basic_string<char, std::__ndk1::char_traits<char>, std::__ndk1::allocator<char> > const&, std::__ndk1::function<void (bool)>)::{lambda(keybinds::InvokeBindEvent*)#1}>, geode::ListenerResult(keybinds::InvokeBindEvent*)>::destroy()
PUBLIC 589c0 0 std::__ndk1::__function::__func<hook36<(anonymous namespace)::hook36Parent>::defineKeybind(std::__ndk1::basic_string<char, std::__ndk1::char_traits<char>, std::__ndk1::allocator<char> > const&, std::__ndk1::function<void (bool)>)::{lambda(keybinds::InvokeBindEvent*)#1}, std::__ndk1::allocator<hook36<(anonymous namespace)::hook36Parent>::defineKeybind(std::__ndk1::basic_string<char, std::__ndk1::char_traits<char>, std::__ndk1::allocator<char> > const&, std::__ndk1::function<void (bool)>)::{lambda(keybinds::InvokeBindEvent*)#1}>, geode::ListenerResult(keybinds::InvokeBindEvent*)>::destroy_deallocate()
PUBLIC 58a10 0 std::__ndk1::__function::__func<hook36<(anonymous namespace)::hook36Parent>::defineKeybind(std::__ndk1::basic_string<char, std::__ndk1::char_traits<char>, std::__ndk1::allocator<char> > const&, std::__ndk1::function<void (bool)>)::{lambda(keybinds::InvokeBindEvent*)#1}, std::__ndk1::allocator<hook36<(anonymous namespace)::hook36Parent>::defineKeybind(std::__ndk1::basic_string<char, std::__ndk1::char_traits<char>, std::__ndk1::allocator<char> > const&, std::__ndk1::function<void (bool)>)::{lambda(keybinds::InvokeBindEvent*)#1}>, geode::ListenerResult(keybinds::InvokeBindEvent*)>::operator()(keybinds::InvokeBindEvent*&&)
PUBLIC 58a8c 0 std::__ndk1::__function::__func<hook36<(anonymous namespace)::hook36Parent>::defineKeybind(std::__ndk1::basic_string<char, std::__ndk1::char_traits<char>, std::__ndk1::allocator<char> > const&, std::__ndk1::function<void (bool)>)::{lambda(keybinds::InvokeBindEvent*)#1}, std::__ndk1::allocator<hook36<(anonymous namespace)::hook36Parent>::defineKeybind(std::__ndk1::basic_string<char, std::__ndk1::char_traits<char>, std::__ndk1::allocator<char> > const&, std::__ndk1::function<void (bool)>)::{lambda(keybinds::InvokeBindEvent*)#1}>, geode::ListenerResult(keybinds::InvokeBindEvent*)>::target(std::type_info const&) const
PUBLIC 58aa8 0 std::__ndk1::__function::__func<hook36<(anonymous namespace)::hook36Parent>::defineKeybind(std::__ndk1::basic_string<char, std::__ndk1::char_traits<char>, std::__ndk1::allocator<char> > const&, std::__ndk1::function<void (bool)>)::{lambda(keybinds::InvokeBindEvent*)#1}, std::__ndk1::allocator<hook36<(anonymous namespace)::hook36Parent>::defineKeybind(std::__ndk1::basic_string<char, std::__ndk1::char_traits<char>, std::__ndk1::allocator<char> > const&, std::__ndk1::function<void (bool)>)::{lambda(keybinds::InvokeBindEvent*)#1}>, geode::ListenerResult(keybinds::InvokeBindEvent*)>::target_type() const
PUBLIC 58ab4 0 std::__ndk1::__throw_bad_function_call[abi:ne180000]()
PUBLIC 58ae8 0 std::__ndk1::bad_function_call::~bad_function_call()
PUBLIC 58b0c 0 std::__ndk1::__function::__func<hook36<(anonymous namespace)::hook36Parent>::init(LevelEditorLayer*)::{lambda()#1}::operator()() const::{lambda(bool)#1}, std::__ndk1::allocator<hook36<(anonymous namespace)::hook36Parent>::init(LevelEditorLayer*)::{lambda()#1}::operator()() const::{lambda(bool)#1}>, void (bool)>::~__func()
PUBLIC 58b10 0 std::__ndk1::__function::__func<hook36<(anonymous namespace)::hook36Parent>::init(LevelEditorLayer*)::{lambda()#1}::operator()() const::{lambda(bool)#1}, std::__ndk1::allocator<hook36<(anonymous namespace)::hook36Parent>::init(LevelEditorLayer*)::{lambda()#1}::operator()() const::{lambda(bool)#1}>, void (bool)>::__clone() const
PUBLIC 58b44 0 std::__ndk1::__function::__func<hook36<(anonymous namespace)::hook36Parent>::init(LevelEditorLayer*)::{lambda()#1}::operator()() const::{lambda(bool)#1}, std::__ndk1::allocator<hook36<(anonymous namespace)::hook36Parent>::init(LevelEditorLayer*)::{lambda()#1}::operator()() const::{lambda(bool)#1}>, void (bool)>::__clone(std::__ndk1::__function::__base<void (bool)>*) const
PUBLIC 58b58 0 std::__ndk1::__function::__func<hook36<(anonymous namespace)::hook36Parent>::init(LevelEditorLayer*)::{lambda()#1}::operator()() const::{lambda(bool)#1}, std::__ndk1::allocator<hook36<(anonymous namespace)::hook36Parent>::init(LevelEditorLayer*)::{lambda()#1}::operator()() const::{lambda(bool)#1}>, void (bool)>::destroy()
PUBLIC 58b5c 0 std::__ndk1::__function::__func<hook36<(anonymous namespace)::hook36Parent>::init(LevelEditorLayer*)::{lambda()#1}::operator()() const::{lambda(bool)#1}, std::__ndk1::allocator<hook36<(anonymous namespace)::hook36Parent>::init(LevelEditorLayer*)::{lambda()#1}::operator()() const::{lambda(bool)#1}>, void (bool)>::destroy_deallocate()
PUBLIC 58b60 0 std::__ndk1::__function::__func<hook36<(anonymous namespace)::hook36Parent>::init(LevelEditorLayer*)::{lambda()#1}::operator()() const::{lambda(bool)#1}, std::__ndk1::allocator<hook36<(anonymous namespace)::hook36Parent>::init(LevelEditorLayer*)::{lambda()#1}::operator()() const::{lambda(bool)#1}>, void (bool)>::operator()(bool&&)
PUBLIC 58b84 0 std::__ndk1::__function::__func<hook36<(anonymous namespace)::hook36Parent>::init(LevelEditorLayer*)::{lambda()#1}::operator()() const::{lambda(bool)#1}, std::__ndk1::allocator<hook36<(anonymous namespace)::hook36Parent>::init(LevelEditorLayer*)::{lambda()#1}::operator()() const::{lambda(bool)#1}>, void (bool)>::target(std::type_info const&) const
PUBLIC 58ba0 0 std::__ndk1::__function::__func<hook36<(anonymous namespace)::hook36Parent>::init(LevelEditorLayer*)::{lambda()#1}::operator()() const::{lambda(bool)#1}, std::__ndk1::allocator<hook36<(anonymous namespace)::hook36Parent>::init(LevelEditorLayer*)::{lambda()#1}::operator()() const::{lambda(bool)#1}>, void (bool)>::target_type() const
PUBLIC 58bac 0 std::__ndk1::__function::__func<hook36<(anonymous namespace)::hook36Parent>::init(LevelEditorLayer*)::{lambda()#1}::operator()() const::{lambda(bool)#2}, std::__ndk1::allocator<hook36<(anonymous namespace)::hook36Parent>::init(LevelEditorLayer*)::{lambda()#1}::operator()() const::{lambda(bool)#2}>, void (bool)>::~__func()
PUBLIC 58bb0 0 std::__ndk1::__function::__func<hook36<(anonymous namespace)::hook36Parent>::init(LevelEditorLayer*)::{lambda()#1}::operator()() const::{lambda(bool)#2}, std::__ndk1::allocator<hook36<(anonymous namespace)::hook36Parent>::init(LevelEditorLayer*)::{lambda()#1}::operator()() const::{lambda(bool)#2}>, void (bool)>::__clone() const
PUBLIC 58be4 0 std::__ndk1::__function::__func<hook36<(anonymous namespace)::hook36Parent>::init(LevelEditorLayer*)::{lambda()#1}::operator()() const::{lambda(bool)#2}, std::__ndk1::allocator<hook36<(anonymous namespace)::hook36Parent>::init(LevelEditorLayer*)::{lambda()#1}::operator()() const::{lambda(bool)#2}>, void (bool)>::__clone(std::__ndk1::__function::__base<void (bool)>*) const
PUBLIC 58bf8 0 std::__ndk1::__function::__func<hook36<(anonymous namespace)::hook36Parent>::init(LevelEditorLayer*)::{lambda()#1}::operator()() const::{lambda(bool)#2}, std::__ndk1::allocator<hook36<(anonymous namespace)::hook36Parent>::init(LevelEditorLayer*)::{lambda()#1}::operator()() const::{lambda(bool)#2}>, void (bool)>::destroy()
PUBLIC 58bfc 0 std::__ndk1::__function::__func<hook36<(anonymous namespace)::hook36Parent>::init(LevelEditorLayer*)::{lambda()#1}::operator()() const::{lambda(bool)#2}, std::__ndk1::allocator<hook36<(anonymous namespace)::hook36Parent>::init(LevelEditorLayer*)::{lambda()#1}::operator()() const::{lambda(bool)#2}>, void (bool)>::destroy_deallocate()
PUBLIC 58c00 0 std::__ndk1::__function::__func<hook36<(anonymous namespace)::hook36Parent>::init(LevelEditorLayer*)::{lambda()#1}::operator()() const::{lambda(bool)#2}, std::__ndk1::allocator<hook36<(anonymous namespace)::hook36Parent>::init(LevelEditorLayer*)::{lambda()#1}::operator()() const::{lambda(bool)#2}>, void (bool)>::operator()(bool&&)
PUBLIC 58c24 0 std::__ndk1::__function::__func<hook36<(anonymous namespace)::hook36Parent>::init(LevelEditorLayer*)::{lambda()#1}::operator()() const::{lambda(bool)#2}, std::__ndk1::allocator<hook36<(anonymous namespace)::hook36Parent>::init(LevelEditorLayer*)::{lambda()#1}::operator()() const::{lambda(bool)#2}>, void (bool)>::target(std::type_info const&) const
PUBLIC 58c40 0 std::__ndk1::__function::__func<hook36<(anonymous namespace)::hook36Parent>::init(LevelEditorLayer*)::{lambda()#1}::operator()() const::{lambda(bool)#2}, std::__ndk1::allocator<hook36<(anonymous namespace)::hook36Parent>::init(LevelEditorLayer*)::{lambda()#1}::operator()() const::{lambda(bool)#2}>, void (bool)>::target_type() const
PUBLIC 58c4c 0 std::__ndk1::__function::__func<hook36<(anonymous namespace)::hook36Parent>::init(LevelEditorLayer*)::{lambda()#1}::operator()() const::{lambda(bool)#3}, std::__ndk1::allocator<hook36<(anonymous namespace)::hook36Parent>::init(LevelEditorLayer*)::{lambda()#1}::operator()() const::{lambda(bool)#3}>, void (bool)>::~__func()
PUBLIC 58c50 0 std::__ndk1::__function::__func<hook36<(anonymous namespace)::hook36Parent>::init(LevelEditorLayer*)::{lambda()#1}::operator()() const::{lambda(bool)#3}, std::__ndk1::allocator<hook36<(anonymous namespace)::hook36Parent>::init(LevelEditorLayer*)::{lambda()#1}::operator()() const::{lambda(bool)#3}>, void (bool)>::__clone() const
PUBLIC 58c84 0 std::__ndk1::__function::__func<hook36<(anonymous namespace)::hook36Parent>::init(LevelEditorLayer*)::{lambda()#1}::operator()() const::{lambda(bool)#3}, std::__ndk1::allocator<hook36<(anonymous namespace)::hook36Parent>::init(LevelEditorLayer*)::{lambda()#1}::operator()() const::{lambda(bool)#3}>, void (bool)>::__clone(std::__ndk1::__function::__base<void (bool)>*) const
PUBLIC 58c98 0 std::__ndk1::__function::__func<hook36<(anonymous namespace)::hook36Parent>::init(LevelEditorLayer*)::{lambda()#1}::operator()() const::{lambda(bool)#3}, std::__ndk1::allocator<hook36<(anonymous namespace)::hook36Parent>::init(LevelEditorLayer*)::{lambda()#1}::operator()() const::{lambda(bool)#3}>, void (bool)>::destroy()
PUBLIC 58c9c 0 std::__ndk1::__function::__func<hook36<(anonymous namespace)::hook36Parent>::init(LevelEditorLayer*)::{lambda()#1}::operator()() const::{lambda(bool)#3}, std::__ndk1::allocator<hook36<(anonymous namespace)::hook36Parent>::init(LevelEditorLayer*)::{lambda()#1}::operator()() const::{lambda(bool)#3}>, void (bool)>::destroy_deallocate()
PUBLIC 58ca0 0 std::__ndk1::__function::__func<hook36<(anonymous namespace)::hook36Parent>::init(LevelEditorLayer*)::{lambda()#1}::operator()() const::{lambda(bool)#3}, std::__ndk1::allocator<hook36<(anonymous namespace)::hook36Parent>::init(LevelEditorLayer*)::{lambda()#1}::operator()() const::{lambda(bool)#3}>, void (bool)>::operator()(bool&&)
PUBLIC 58cc4 0 std::__ndk1::__function::__func<hook36<(anonymous namespace)::hook36Parent>::init(LevelEditorLayer*)::{lambda()#1}::operator()() const::{lambda(bool)#3}, std::__ndk1::allocator<hook36<(anonymous namespace)::hook36Parent>::init(LevelEditorLayer*)::{lambda()#1}::operator()() const::{lambda(bool)#3}>, void (bool)>::target(std::type_info const&) const
PUBLIC 58ce0 0 std::__ndk1::__function::__func<hook36<(anonymous namespace)::hook36Parent>::init(LevelEditorLayer*)::{lambda()#1}::operator()() const::{lambda(bool)#3}, std::__ndk1::allocator<hook36<(anonymous namespace)::hook36Parent>::init(LevelEditorLayer*)::{lambda()#1}::operator()() const::{lambda(bool)#3}>, void (bool)>::target_type() const
PUBLIC 58cec 0 std::__ndk1::__function::__func<hook36<(anonymous namespace)::hook36Parent>::init(LevelEditorLayer*)::{lambda()#1}::operator()() const::{lambda(bool)#4}, std::__ndk1::allocator<hook36<(anonymous namespace)::hook36Parent>::init(LevelEditorLayer*)::{lambda()#1}::operator()() const::{lambda(bool)#4}>, void (bool)>::~__func()
PUBLIC 58cf0 0 std::__ndk1::__function::__func<hook36<(anonymous namespace)::hook36Parent>::init(LevelEditorLayer*)::{lambda()#1}::operator()() const::{lambda(bool)#4}, std::__ndk1::allocator<hook36<(anonymous namespace)::hook36Parent>::init(LevelEditorLayer*)::{lambda()#1}::operator()() const::{lambda(bool)#4}>, void (bool)>::__clone() const
PUBLIC 58d24 0 std::__ndk1::__function::__func<hook36<(anonymous namespace)::hook36Parent>::init(LevelEditorLayer*)::{lambda()#1}::operator()() const::{lambda(bool)#4}, std::__ndk1::allocator<hook36<(anonymous namespace)::hook36Parent>::init(LevelEditorLayer*)::{lambda()#1}::operator()() const::{lambda(bool)#4}>, void (bool)>::__clone(std::__ndk1::__function::__base<void (bool)>*) const
PUBLIC 58d38 0 std::__ndk1::__function::__func<hook36<(anonymous namespace)::hook36Parent>::init(LevelEditorLayer*)::{lambda()#1}::operator()() const::{lambda(bool)#4}, std::__ndk1::allocator<hook36<(anonymous namespace)::hook36Parent>::init(LevelEditorLayer*)::{lambda()#1}::operator()() const::{lambda(bool)#4}>, void (bool)>::destroy()
PUBLIC 58d3c 0 std::__ndk1::__function::__func<hook36<(anonymous namespace)::hook36Parent>::init(LevelEditorLayer*)::{lambda()#1}::operator()() const::{lambda(bool)#4}, std::__ndk1::allocator<hook36<(anonymous namespace)::hook36Parent>::init(LevelEditorLayer*)::{lambda()#1}::operator()() const::{lambda(bool)#4}>, void (bool)>::destroy_deallocate()
PUBLIC 58d40 0 std::__ndk1::__function::__func<hook36<(anonymous namespace)::hook36Parent>::init(LevelEditorLayer*)::{lambda()#1}::operator()() const::{lambda(bool)#4}, std::__ndk1::allocator<hook36<(anonymous namespace)::hook36Parent>::init(LevelEditorLayer*)::{lambda()#1}::operator()() const::{lambda(bool)#4}>, void (bool)>::operator()(bool&&)
PUBLIC 58d64 0 std::__ndk1::__function::__func<hook36<(anonymous namespace)::hook36Parent>::init(LevelEditorLayer*)::{lambda()#1}::operator()() const::{lambda(bool)#4}, std::__ndk1::allocator<hook36<(anonymous namespace)::hook36Parent>::init(LevelEditorLayer*)::{lambda()#1}::operator()() const::{lambda(bool)#4}>, void (bool)>::target(std::type_info const&) const
PUBLIC 58d80 0 std::__ndk1::__function::__func<hook36<(anonymous namespace)::hook36Parent>::init(LevelEditorLayer*)::{lambda()#1}::operator()() const::{lambda(bool)#4}, std::__ndk1::allocator<hook36<(anonymous namespace)::hook36Parent>::init(LevelEditorLayer*)::{lambda()#1}::operator()() const::{lambda(bool)#4}>, void (bool)>::target_type() const
PUBLIC 58d8c 0 std::__ndk1::__function::__func<hook36<(anonymous namespace)::hook36Parent>::init(LevelEditorLayer*)::{lambda()#1}::operator()() const::{lambda(bool)#5}, std::__ndk1::allocator<hook36<(anonymous namespace)::hook36Parent>::init(LevelEditorLayer*)::{lambda()#1}::operator()() const::{lambda(bool)#5}>, void (bool)>::~__func()
PUBLIC 58d90 0 std::__ndk1::__function::__func<hook36<(anonymous namespace)::hook36Parent>::init(LevelEditorLayer*)::{lambda()#1}::operator()() const::{lambda(bool)#5}, std::__ndk1::allocator<hook36<(anonymous namespace)::hook36Parent>::init(LevelEditorLayer*)::{lambda()#1}::operator()() const::{lambda(bool)#5}>, void (bool)>::__clone() const
PUBLIC 58dc4 0 std::__ndk1::__function::__func<hook36<(anonymous namespace)::hook36Parent>::init(LevelEditorLayer*)::{lambda()#1}::operator()() const::{lambda(bool)#5}, std::__ndk1::allocator<hook36<(anonymous namespace)::hook36Parent>::init(LevelEditorLayer*)::{lambda()#1}::operator()() const::{lambda(bool)#5}>, void (bool)>::__clone(std::__ndk1::__function::__base<void (bool)>*) const
PUBLIC 58dd8 0 std::__ndk1::__function::__func<hook36<(anonymous namespace)::hook36Parent>::init(LevelEditorLayer*)::{lambda()#1}::operator()() const::{lambda(bool)#5}, std::__ndk1::allocator<hook36<(anonymous namespace)::hook36Parent>::init(LevelEditorLayer*)::{lambda()#1}::operator()() const::{lambda(bool)#5}>, void (bool)>::destroy()
PUBLIC 58ddc 0 std::__ndk1::__function::__func<hook36<(anonymous namespace)::hook36Parent>::init(LevelEditorLayer*)::{lambda()#1}::operator()() const::{lambda(bool)#5}, std::__ndk1::allocator<hook36<(anonymous namespace)::hook36Parent>::init(LevelEditorLayer*)::{lambda()#1}::operator()() const::{lambda(bool)#5}>, void (bool)>::destroy_deallocate()
PUBLIC 58de0 0 std::__ndk1::__function::__func<hook36<(anonymous namespace)::hook36Parent>::init(LevelEditorLayer*)::{lambda()#1}::operator()() const::{lambda(bool)#5}, std::__ndk1::allocator<hook36<(anonymous namespace)::hook36Parent>::init(LevelEditorLayer*)::{lambda()#1}::operator()() const::{lambda(bool)#5}>, void (bool)>::operator()(bool&&)
PUBLIC 58e04 0 std::__ndk1::__function::__func<hook36<(anonymous namespace)::hook36Parent>::init(LevelEditorLayer*)::{lambda()#1}::operator()() const::{lambda(bool)#5}, std::__ndk1::allocator<hook36<(anonymous namespace)::hook36Parent>::init(LevelEditorLayer*)::{lambda()#1}::operator()() const::{lambda(bool)#5}>, void (bool)>::target(std::type_info const&) const
PUBLIC 58e20 0 std::__ndk1::__function::__func<hook36<(anonymous namespace)::hook36Parent>::init(LevelEditorLayer*)::{lambda()#1}::operator()() const::{lambda(bool)#5}, std::__ndk1::allocator<hook36<(anonymous namespace)::hook36Parent>::init(LevelEditorLayer*)::{lambda()#1}::operator()() const::{lambda(bool)#5}>, void (bool)>::target_type() const
PUBLIC 58e2c 0 std::__ndk1::__function::__func<hook36<(anonymous namespace)::hook36Parent>::init(LevelEditorLayer*)::{lambda()#1}::operator()() const::{lambda(bool)#6}, std::__ndk1::allocator<hook36<(anonymous namespace)::hook36Parent>::init(LevelEditorLayer*)::{lambda()#1}::operator()() const::{lambda(bool)#6}>, void (bool)>::~__func()
PUBLIC 58e30 0 std::__ndk1::__function::__func<hook36<(anonymous namespace)::hook36Parent>::init(LevelEditorLayer*)::{lambda()#1}::operator()() const::{lambda(bool)#6}, std::__ndk1::allocator<hook36<(anonymous namespace)::hook36Parent>::init(LevelEditorLayer*)::{lambda()#1}::operator()() const::{lambda(bool)#6}>, void (bool)>::__clone() const
PUBLIC 58e64 0 std::__ndk1::__function::__func<hook36<(anonymous namespace)::hook36Parent>::init(LevelEditorLayer*)::{lambda()#1}::operator()() const::{lambda(bool)#6}, std::__ndk1::allocator<hook36<(anonymous namespace)::hook36Parent>::init(LevelEditorLayer*)::{lambda()#1}::operator()() const::{lambda(bool)#6}>, void (bool)>::__clone(std::__ndk1::__function::__base<void (bool)>*) const
PUBLIC 58e78 0 std::__ndk1::__function::__func<hook36<(anonymous namespace)::hook36Parent>::init(LevelEditorLayer*)::{lambda()#1}::operator()() const::{lambda(bool)#6}, std::__ndk1::allocator<hook36<(anonymous namespace)::hook36Parent>::init(LevelEditorLayer*)::{lambda()#1}::operator()() const::{lambda(bool)#6}>, void (bool)>::destroy()
PUBLIC 58e7c 0 std::__ndk1::__function::__func<hook36<(anonymous namespace)::hook36Parent>::init(LevelEditorLayer*)::{lambda()#1}::operator()() const::{lambda(bool)#6}, std::__ndk1::allocator<hook36<(anonymous namespace)::hook36Parent>::init(LevelEditorLayer*)::{lambda()#1}::operator()() const::{lambda(bool)#6}>, void (bool)>::destroy_deallocate()
PUBLIC 58e80 0 std::__ndk1::__function::__func<hook36<(anonymous namespace)::hook36Parent>::init(LevelEditorLayer*)::{lambda()#1}::operator()() const::{lambda(bool)#6}, std::__ndk1::allocator<hook36<(anonymous namespace)::hook36Parent>::init(LevelEditorLayer*)::{lambda()#1}::operator()() const::{lambda(bool)#6}>, void (bool)>::operator()(bool&&)
PUBLIC 58ea4 0 std::__ndk1::__function::__func<hook36<(anonymous namespace)::hook36Parent>::init(LevelEditorLayer*)::{lambda()#1}::operator()() const::{lambda(bool)#6}, std::__ndk1::allocator<hook36<(anonymous namespace)::hook36Parent>::init(LevelEditorLayer*)::{lambda()#1}::operator()() const::{lambda(bool)#6}>, void (bool)>::target(std::type_info const&) const
PUBLIC 58ec0 0 std::__ndk1::__function::__func<hook36<(anonymous namespace)::hook36Parent>::init(LevelEditorLayer*)::{lambda()#1}::operator()() const::{lambda(bool)#6}, std::__ndk1::allocator<hook36<(anonymous namespace)::hook36Parent>::init(LevelEditorLayer*)::{lambda()#1}::operator()() const::{lambda(bool)#6}>, void (bool)>::target_type() const
PUBLIC 58ecc 0 std::__ndk1::__function::__func<hook36<(anonymous namespace)::hook36Parent>::defineKeybind(std::__ndk1::basic_string<char, std::__ndk1::char_traits<char>, std::__ndk1::allocator<char> > const&, std::__ndk1::function<void ()>)::{lambda(keybinds::InvokeBindEvent*)#1}, std::__ndk1::allocator<hook36<(anonymous namespace)::hook36Parent>::defineKeybind(std::__ndk1::basic_string<char, std::__ndk1::char_traits<char>, std::__ndk1::allocator<char> > const&, std::__ndk1::function<void ()>)::{lambda(keybinds::InvokeBindEvent*)#1}>, geode::ListenerResult(keybinds::InvokeBindEvent*)>::~__func()
PUBLIC 58f18 0 std::__ndk1::__function::__func<hook36<(anonymous namespace)::hook36Parent>::defineKeybind(std::__ndk1::basic_string<char, std::__ndk1::char_traits<char>, std::__ndk1::allocator<char> > const&, std::__ndk1::function<void ()>)::{lambda(keybinds::InvokeBindEvent*)#1}, std::__ndk1::allocator<hook36<(anonymous namespace)::hook36Parent>::defineKeybind(std::__ndk1::basic_string<char, std::__ndk1::char_traits<char>, std::__ndk1::allocator<char> > const&, std::__ndk1::function<void ()>)::{lambda(keybinds::InvokeBindEvent*)#1}>, geode::ListenerResult(keybinds::InvokeBindEvent*)>::~__func()
PUBLIC 58f74 0 std::__ndk1::__function::__func<hook36<(anonymous namespace)::hook36Parent>::defineKeybind(std::__ndk1::basic_string<char, std::__ndk1::char_traits<char>, std::__ndk1::allocator<char> > const&, std::__ndk1::function<void ()>)::{lambda(keybinds::InvokeBindEvent*)#1}, std::__ndk1::allocator<hook36<(anonymous namespace)::hook36Parent>::defineKeybind(std::__ndk1::basic_string<char, std::__ndk1::char_traits<char>, std::__ndk1::allocator<char> > const&, std::__ndk1::function<void ()>)::{lambda(keybinds::InvokeBindEvent*)#1}>, geode::ListenerResult(keybinds::InvokeBindEvent*)>::__clone() const
PUBLIC 59008 0 std::__ndk1::__function::__func<hook36<(anonymous namespace)::hook36Parent>::defineKeybind(std::__ndk1::basic_string<char, std::__ndk1::char_traits<char>, std::__ndk1::allocator<char> > const&, std::__ndk1::function<void ()>)::{lambda(keybinds::InvokeBindEvent*)#1}, std::__ndk1::allocator<hook36<(anonymous namespace)::hook36Parent>::defineKeybind(std::__ndk1::basic_string<char, std::__ndk1::char_traits<char>, std::__ndk1::allocator<char> > const&, std::__ndk1::function<void ()>)::{lambda(keybinds::InvokeBindEvent*)#1}>, geode::ListenerResult(keybinds::InvokeBindEvent*)>::__clone(std::__ndk1::__function::__base<geode::ListenerResult(keybinds::InvokeBindEvent*)>*) const
PUBLIC 59084 0 std::__ndk1::__function::__func<hook36<(anonymous namespace)::hook36Parent>::defineKeybind(std::__ndk1::basic_string<char, std::__ndk1::char_traits<char>, std::__ndk1::allocator<char> > const&, std::__ndk1::function<void ()>)::{lambda(keybinds::InvokeBindEvent*)#1}, std::__ndk1::allocator<hook36<(anonymous namespace)::hook36Parent>::defineKeybind(std::__ndk1::basic_string<char, std::__ndk1::char_traits<char>, std::__ndk1::allocator<char> > const&, std::__ndk1::function<void ()>)::{lambda(keybinds::InvokeBindEvent*)#1}>, geode::ListenerResult(keybinds::InvokeBindEvent*)>::destroy()
PUBLIC 590c4 0 std::__ndk1::__function::__func<hook36<(anonymous namespace)::hook36Parent>::defineKeybind(std::__ndk1::basic_string<char, std::__ndk1::char_traits<char>, std::__ndk1::allocator<char> > const&, std::__ndk1::function<void ()>)::{lambda(keybinds::InvokeBindEvent*)#1}, std::__ndk1::allocator<hook36<(anonymous namespace)::hook36Parent>::defineKeybind(std::__ndk1::basic_string<char, std::__ndk1::char_traits<char>, std::__ndk1::allocator<char> > const&, std::__ndk1::function<void ()>)::{lambda(keybinds::InvokeBindEvent*)#1}>, geode::ListenerResult(keybinds::InvokeBindEvent*)>::destroy_deallocate()
PUBLIC 59114 0 std::__ndk1::__function::__func<hook36<(anonymous namespace)::hook36Parent>::defineKeybind(std::__ndk1::basic_string<char, std::__ndk1::char_traits<char>, std::__ndk1::allocator<char> > const&, std::__ndk1::function<void ()>)::{lambda(keybinds::InvokeBindEvent*)#1}, std::__ndk1::allocator<hook36<(anonymous namespace)::hook36Parent>::defineKeybind(std::__ndk1::basic_string<char, std::__ndk1::char_traits<char>, std::__ndk1::allocator<char> > const&, std::__ndk1::function<void ()>)::{lambda(keybinds::InvokeBindEvent*)#1}>, geode::ListenerResult(keybinds::InvokeBindEvent*)>::operator()(keybinds::InvokeBindEvent*&&)
PUBLIC 5914c 0 std::__ndk1::__function::__func<hook36<(anonymous namespace)::hook36Parent>::defineKeybind(std::__ndk1::basic_string<char, std::__ndk1::char_traits<char>, std::__ndk1::allocator<char> > const&, std::__ndk1::function<void ()>)::{lambda(keybinds::InvokeBindEvent*)#1}, std::__ndk1::allocator<hook36<(anonymous namespace)::hook36Parent>::defineKeybind(std::__ndk1::basic_string<char, std::__ndk1::char_traits<char>, std::__ndk1::allocator<char> > const&, std::__ndk1::function<void ()>)::{lambda(keybinds::InvokeBindEvent*)#1}>, geode::ListenerResult(keybinds::InvokeBindEvent*)>::target(std::type_info const&) const
PUBLIC 59168 0 std::__ndk1::__function::__func<hook36<(anonymous namespace)::hook36Parent>::defineKeybind(std::__ndk1::basic_string<char, std::__ndk1::char_traits<char>, std::__ndk1::allocator<char> > const&, std::__ndk1::function<void ()>)::{lambda(keybinds::InvokeBindEvent*)#1}, std::__ndk1::allocator<hook36<(anonymous namespace)::hook36Parent>::defineKeybind(std::__ndk1::basic_string<char, std::__ndk1::char_traits<char>, std::__ndk1::allocator<char> > const&, std::__ndk1::function<void ()>)::{lambda(keybinds::InvokeBindEvent*)#1}>, geode::ListenerResult(keybinds::InvokeBindEvent*)>::target_type() const
PUBLIC 59174 0 std::__ndk1::__function::__func<hook36<(anonymous namespace)::hook36Parent>::init(LevelEditorLayer*)::{lambda()#1}::operator()() const::{lambda()#1}, std::__ndk1::allocator<hook36<(anonymous namespace)::hook36Parent>::init(LevelEditorLayer*)::{lambda()#1}::operator()() const::{lambda()#1}>, void ()>::~__func()
PUBLIC 59178 0 std::__ndk1::__function::__func<hook36<(anonymous namespace)::hook36Parent>::init(LevelEditorLayer*)::{lambda()#1}::operator()() const::{lambda()#1}, std::__ndk1::allocator<hook36<(anonymous namespace)::hook36Parent>::init(LevelEditorLayer*)::{lambda()#1}::operator()() const::{lambda()#1}>, void ()>::__clone() const
PUBLIC 591ac 0 std::__ndk1::__function::__func<hook36<(anonymous namespace)::hook36Parent>::init(LevelEditorLayer*)::{lambda()#1}::operator()() const::{lambda()#1}, std::__ndk1::allocator<hook36<(anonymous namespace)::hook36Parent>::init(LevelEditorLayer*)::{lambda()#1}::operator()() const::{lambda()#1}>, void ()>::__clone(std::__ndk1::__function::__base<void ()>*) const
PUBLIC 591c0 0 std::__ndk1::__function::__func<hook36<(anonymous namespace)::hook36Parent>::init(LevelEditorLayer*)::{lambda()#1}::operator()() const::{lambda()#1}, std::__ndk1::allocator<hook36<(anonymous namespace)::hook36Parent>::init(LevelEditorLayer*)::{lambda()#1}::operator()() const::{lambda()#1}>, void ()>::destroy()
PUBLIC 591c4 0 std::__ndk1::__function::__func<hook36<(anonymous namespace)::hook36Parent>::init(LevelEditorLayer*)::{lambda()#1}::operator()() const::{lambda()#1}, std::__ndk1::allocator<hook36<(anonymous namespace)::hook36Parent>::init(LevelEditorLayer*)::{lambda()#1}::operator()() const::{lambda()#1}>, void ()>::destroy_deallocate()
PUBLIC 591c8 0 std::__ndk1::__function::__func<hook36<(anonymous namespace)::hook36Parent>::init(LevelEditorLayer*)::{lambda()#1}::operator()() const::{lambda()#1}, std::__ndk1::allocator<hook36<(anonymous namespace)::hook36Parent>::init(LevelEditorLayer*)::{lambda()#1}::operator()() const::{lambda()#1}>, void ()>::operator()()
PUBLIC 59220 0 std::__ndk1::__function::__func<hook36<(anonymous namespace)::hook36Parent>::init(LevelEditorLayer*)::{lambda()#1}::operator()() const::{lambda()#1}, std::__ndk1::allocator<hook36<(anonymous namespace)::hook36Parent>::init(LevelEditorLayer*)::{lambda()#1}::operator()() const::{lambda()#1}>, void ()>::target(std::type_info const&) const
PUBLIC 5923c 0 std::__ndk1::__function::__func<hook36<(anonymous namespace)::hook36Parent>::init(LevelEditorLayer*)::{lambda()#1}::operator()() const::{lambda()#1}, std::__ndk1::allocator<hook36<(anonymous namespace)::hook36Parent>::init(LevelEditorLayer*)::{lambda()#1}::operator()() const::{lambda()#1}>, void ()>::target_type() const
PUBLIC 59248 0 std::__ndk1::__function::__func<hook36<(anonymous namespace)::hook36Parent>::init(LevelEditorLayer*)::{lambda()#1}::operator()() const::{lambda()#2}, std::__ndk1::allocator<hook36<(anonymous namespace)::hook36Parent>::init(LevelEditorLayer*)::{lambda()#1}::operator()() const::{lambda()#2}>, void ()>::~__func()
PUBLIC 5924c 0 std::__ndk1::__function::__func<hook36<(anonymous namespace)::hook36Parent>::init(LevelEditorLayer*)::{lambda()#1}::operator()() const::{lambda()#2}, std::__ndk1::allocator<hook36<(anonymous namespace)::hook36Parent>::init(LevelEditorLayer*)::{lambda()#1}::operator()() const::{lambda()#2}>, void ()>::__clone() const
PUBLIC 59280 0 std::__ndk1::__function::__func<hook36<(anonymous namespace)::hook36Parent>::init(LevelEditorLayer*)::{lambda()#1}::operator()() const::{lambda()#2}, std::__ndk1::allocator<hook36<(anonymous namespace)::hook36Parent>::init(LevelEditorLayer*)::{lambda()#1}::operator()() const::{lambda()#2}>, void ()>::__clone(std::__ndk1::__function::__base<void ()>*) const
PUBLIC 59294 0 std::__ndk1::__function::__func<hook36<(anonymous namespace)::hook36Parent>::init(LevelEditorLayer*)::{lambda()#1}::operator()() const::{lambda()#2}, std::__ndk1::allocator<hook36<(anonymous namespace)::hook36Parent>::init(LevelEditorLayer*)::{lambda()#1}::operator()() const::{lambda()#2}>, void ()>::destroy()
PUBLIC 59298 0 std::__ndk1::__function::__func<hook36<(anonymous namespace)::hook36Parent>::init(LevelEditorLayer*)::{lambda()#1}::operator()() const::{lambda()#2}, std::__ndk1::allocator<hook36<(anonymous namespace)::hook36Parent>::init(LevelEditorLayer*)::{lambda()#1}::operator()() const::{lambda()#2}>, void ()>::destroy_deallocate()
PUBLIC 5929c 0 std::__ndk1::__function::__func<hook36<(anonymous namespace)::hook36Parent>::init(LevelEditorLayer*)::{lambda()#1}::operator()() const::{lambda()#2}, std::__ndk1::allocator<hook36<(anonymous namespace)::hook36Parent>::init(LevelEditorLayer*)::{lambda()#1}::operator()() const::{lambda()#2}>, void ()>::operator()()
PUBLIC 592f4 0 std::__ndk1::__function::__func<hook36<(anonymous namespace)::hook36Parent>::init(LevelEditorLayer*)::{lambda()#1}::operator()() const::{lambda()#2}, std::__ndk1::allocator<hook36<(anonymous namespace)::hook36Parent>::init(LevelEditorLayer*)::{lambda()#1}::operator()() const::{lambda()#2}>, void ()>::target(std::type_info const&) const
PUBLIC 59310 0 std::__ndk1::__function::__func<hook36<(anonymous namespace)::hook36Parent>::init(LevelEditorLayer*)::{lambda()#1}::operator()() const::{lambda()#2}, std::__ndk1::allocator<hook36<(anonymous namespace)::hook36Parent>::init(LevelEditorLayer*)::{lambda()#1}::operator()() const::{lambda()#2}>, void ()>::target_type() const
PUBLIC 5931c 0 std::__ndk1::__function::__func<hook36<(anonymous namespace)::hook36Parent>::init(LevelEditorLayer*)::{lambda()#1}::operator()() const::{lambda()#3}, std::__ndk1::allocator<hook36<(anonymous namespace)::hook36Parent>::init(LevelEditorLayer*)::{lambda()#1}::operator()() const::{lambda()#3}>, void ()>::~__func()
PUBLIC 59320 0 std::__ndk1::__function::__func<hook36<(anonymous namespace)::hook36Parent>::init(LevelEditorLayer*)::{lambda()#1}::operator()() const::{lambda()#3}, std::__ndk1::allocator<hook36<(anonymous namespace)::hook36Parent>::init(LevelEditorLayer*)::{lambda()#1}::operator()() const::{lambda()#3}>, void ()>::__clone() const
PUBLIC 59354 0 std::__ndk1::__function::__func<hook36<(anonymous namespace)::hook36Parent>::init(LevelEditorLayer*)::{lambda()#1}::operator()() const::{lambda()#3}, std::__ndk1::allocator<hook36<(anonymous namespace)::hook36Parent>::init(LevelEditorLayer*)::{lambda()#1}::operator()() const::{lambda()#3}>, void ()>::__clone(std::__ndk1::__function::__base<void ()>*) const
PUBLIC 59368 0 std::__ndk1::__function::__func<hook36<(anonymous namespace)::hook36Parent>::init(LevelEditorLayer*)::{lambda()#1}::operator()() const::{lambda()#3}, std::__ndk1::allocator<hook36<(anonymous namespace)::hook36Parent>::init(LevelEditorLayer*)::{lambda()#1}::operator()() const::{lambda()#3}>, void ()>::destroy()
PUBLIC 5936c 0 std::__ndk1::__function::__func<hook36<(anonymous namespace)::hook36Parent>::init(LevelEditorLayer*)::{lambda()#1}::operator()() const::{lambda()#3}, std::__ndk1::allocator<hook36<(anonymous namespace)::hook36Parent>::init(LevelEditorLayer*)::{lambda()#1}::operator()() const::{lambda()#3}>, void ()>::destroy_deallocate()
PUBLIC 59370 0 std::__ndk1::__function::__func<hook36<(anonymous namespace)::hook36Parent>::init(LevelEditorLayer*)::{lambda()#1}::operator()() const::{lambda()#3}, std::__ndk1::allocator<hook36<(anonymous namespace)::hook36Parent>::init(LevelEditorLayer*)::{lambda()#1}::operator()() const::{lambda()#3}>, void ()>::operator()()
PUBLIC 593c8 0 std::__ndk1::__function::__func<hook36<(anonymous namespace)::hook36Parent>::init(LevelEditorLayer*)::{lambda()#1}::operator()() const::{lambda()#3}, std::__ndk1::allocator<hook36<(anonymous namespace)::hook36Parent>::init(LevelEditorLayer*)::{lambda()#1}::operator()() const::{lambda()#3}>, void ()>::target(std::type_info const&) const
PUBLIC 593e4 0 std::__ndk1::__function::__func<hook36<(anonymous namespace)::hook36Parent>::init(LevelEditorLayer*)::{lambda()#1}::operator()() const::{lambda()#3}, std::__ndk1::allocator<hook36<(anonymous namespace)::hook36Parent>::init(LevelEditorLayer*)::{lambda()#1}::operator()() const::{lambda()#3}>, void ()>::target_type() const
PUBLIC 593f0 0 std::__ndk1::__function::__func<hook36<(anonymous namespace)::hook36Parent>::init(LevelEditorLayer*)::{lambda()#1}::operator()() const::{lambda()#4}, std::__ndk1::allocator<hook36<(anonymous namespace)::hook36Parent>::init(LevelEditorLayer*)::{lambda()#1}::operator()() const::{lambda()#4}>, void ()>::~__func()
PUBLIC 593f4 0 std::__ndk1::__function::__func<hook36<(anonymous namespace)::hook36Parent>::init(LevelEditorLayer*)::{lambda()#1}::operator()() const::{lambda()#4}, std::__ndk1::allocator<hook36<(anonymous namespace)::hook36Parent>::init(LevelEditorLayer*)::{lambda()#1}::operator()() const::{lambda()#4}>, void ()>::__clone() const
PUBLIC 59428 0 std::__ndk1::__function::__func<hook36<(anonymous namespace)::hook36Parent>::init(LevelEditorLayer*)::{lambda()#1}::operator()() const::{lambda()#4}, std::__ndk1::allocator<hook36<(anonymous namespace)::hook36Parent>::init(LevelEditorLayer*)::{lambda()#1}::operator()() const::{lambda()#4}>, void ()>::__clone(std::__ndk1::__function::__base<void ()>*) const
PUBLIC 5943c 0 std::__ndk1::__function::__func<hook36<(anonymous namespace)::hook36Parent>::init(LevelEditorLayer*)::{lambda()#1}::operator()() const::{lambda()#4}, std::__ndk1::allocator<hook36<(anonymous namespace)::hook36Parent>::init(LevelEditorLayer*)::{lambda()#1}::operator()() const::{lambda()#4}>, void ()>::destroy()
PUBLIC 59440 0 std::__ndk1::__function::__func<hook36<(anonymous namespace)::hook36Parent>::init(LevelEditorLayer*)::{lambda()#1}::operator()() const::{lambda()#4}, std::__ndk1::allocator<hook36<(anonymous namespace)::hook36Parent>::init(LevelEditorLayer*)::{lambda()#1}::operator()() const::{lambda()#4}>, void ()>::destroy_deallocate()
PUBLIC 59444 0 std::__ndk1::__function::__func<hook36<(anonymous namespace)::hook36Parent>::init(LevelEditorLayer*)::{lambda()#1}::operator()() const::{lambda()#4}, std::__ndk1::allocator<hook36<(anonymous namespace)::hook36Parent>::init(LevelEditorLayer*)::{lambda()#1}::operator()() const::{lambda()#4}>, void ()>::operator()()
PUBLIC 5949c 0 std::__ndk1::__function::__func<hook36<(anonymous namespace)::hook36Parent>::init(LevelEditorLayer*)::{lambda()#1}::operator()() const::{lambda()#4}, std::__ndk1::allocator<hook36<(anonymous namespace)::hook36Parent>::init(LevelEditorLayer*)::{lambda()#1}::operator()() const::{lambda()#4}>, void ()>::target(std::type_info const&) const
PUBLIC 594b8 0 std::__ndk1::__function::__func<hook36<(anonymous namespace)::hook36Parent>::init(LevelEditorLayer*)::{lambda()#1}::operator()() const::{lambda()#4}, std::__ndk1::allocator<hook36<(anonymous namespace)::hook36Parent>::init(LevelEditorLayer*)::{lambda()#1}::operator()() const::{lambda()#4}>, void ()>::target_type() const
PUBLIC 594c4 0 std::__ndk1::__function::__func<hook36<(anonymous namespace)::hook36Parent>::init(LevelEditorLayer*)::{lambda()#1}::operator()() const::{lambda()#5}, std::__ndk1::allocator<hook36<(anonymous namespace)::hook36Parent>::init(LevelEditorLayer*)::{lambda()#1}::operator()() const::{lambda()#5}>, void ()>::~__func()
PUBLIC 594c8 0 std::__ndk1::__function::__func<hook36<(anonymous namespace)::hook36Parent>::init(LevelEditorLayer*)::{lambda()#1}::operator()() const::{lambda()#5}, std::__ndk1::allocator<hook36<(anonymous namespace)::hook36Parent>::init(LevelEditorLayer*)::{lambda()#1}::operator()() const::{lambda()#5}>, void ()>::__clone() const
PUBLIC 594fc 0 std::__ndk1::__function::__func<hook36<(anonymous namespace)::hook36Parent>::init(LevelEditorLayer*)::{lambda()#1}::operator()() const::{lambda()#5}, std::__ndk1::allocator<hook36<(anonymous namespace)::hook36Parent>::init(LevelEditorLayer*)::{lambda()#1}::operator()() const::{lambda()#5}>, void ()>::__clone(std::__ndk1::__function::__base<void ()>*) const
PUBLIC 59510 0 std::__ndk1::__function::__func<hook36<(anonymous namespace)::hook36Parent>::init(LevelEditorLayer*)::{lambda()#1}::operator()() const::{lambda()#5}, std::__ndk1::allocator<hook36<(anonymous namespace)::hook36Parent>::init(LevelEditorLayer*)::{lambda()#1}::operator()() const::{lambda()#5}>, void ()>::destroy()
PUBLIC 59514 0 std::__ndk1::__function::__func<hook36<(anonymous namespace)::hook36Parent>::init(LevelEditorLayer*)::{lambda()#1}::operator()() const::{lambda()#5}, std::__ndk1::allocator<hook36<(anonymous namespace)::hook36Parent>::init(LevelEditorLayer*)::{lambda()#1}::operator()() const::{lambda()#5}>, void ()>::destroy_deallocate()
PUBLIC 59518 0 std::__ndk1::__function::__func<hook36<(anonymous namespace)::hook36Parent>::init(LevelEditorLayer*)::{lambda()#1}::operator()() const::{lambda()#5}, std::__ndk1::allocator<hook36<(anonymous namespace)::hook36Parent>::init(LevelEditorLayer*)::{lambda()#1}::operator()() const::{lambda()#5}>, void ()>::operator()()
PUBLIC 59570 0 std::__ndk1::__function::__func<hook36<(anonymous namespace)::hook36Parent>::init(LevelEditorLayer*)::{lambda()#1}::operator()() const::{lambda()#5}, std::__ndk1::allocator<hook36<(anonymous namespace)::hook36Parent>::init(LevelEditorLayer*)::{lambda()#1}::operator()() const::{lambda()#5}>, void ()>::target(std::type_info const&) const
PUBLIC 5958c 0 std::__ndk1::__function::__func<hook36<(anonymous namespace)::hook36Parent>::init(LevelEditorLayer*)::{lambda()#1}::operator()() const::{lambda()#5}, std::__ndk1::allocator<hook36<(anonymous namespace)::hook36Parent>::init(LevelEditorLayer*)::{lambda()#1}::operator()() const::{lambda()#5}>, void ()>::target_type() const
PUBLIC 59598 0 std::__ndk1::__function::__func<hook36<(anonymous namespace)::hook36Parent>::init(LevelEditorLayer*)::{lambda()#1}::operator()() const::{lambda()#6}, std::__ndk1::allocator<hook36<(anonymous namespace)::hook36Parent>::init(LevelEditorLayer*)::{lambda()#1}::operator()() const::{lambda()#6}>, void ()>::~__func()
PUBLIC 5959c 0 std::__ndk1::__function::__func<hook36<(anonymous namespace)::hook36Parent>::init(LevelEditorLayer*)::{lambda()#1}::operator()() const::{lambda()#6}, std::__ndk1::allocator<hook36<(anonymous namespace)::hook36Parent>::init(LevelEditorLayer*)::{lambda()#1}::operator()() const::{lambda()#6}>, void ()>::__clone() const
PUBLIC 595d0 0 std::__ndk1::__function::__func<hook36<(anonymous namespace)::hook36Parent>::init(LevelEditorLayer*)::{lambda()#1}::operator()() const::{lambda()#6}, std::__ndk1::allocator<hook36<(anonymous namespace)::hook36Parent>::init(LevelEditorLayer*)::{lambda()#1}::operator()() const::{lambda()#6}>, void ()>::__clone(std::__ndk1::__function::__base<void ()>*) const
PUBLIC 595e4 0 std::__ndk1::__function::__func<hook36<(anonymous namespace)::hook36Parent>::init(LevelEditorLayer*)::{lambda()#1}::operator()() const::{lambda()#6}, std::__ndk1::allocator<hook36<(anonymous namespace)::hook36Parent>::init(LevelEditorLayer*)::{lambda()#1}::operator()() const::{lambda()#6}>, void ()>::destroy()
PUBLIC 595e8 0 std::__ndk1::__function::__func<hook36<(anonymous namespace)::hook36Parent>::init(LevelEditorLayer*)::{lambda()#1}::operator()() const::{lambda()#6}, std::__ndk1::allocator<hook36<(anonymous namespace)::hook36Parent>::init(LevelEditorLayer*)::{lambda()#1}::operator()() const::{lambda()#6}>, void ()>::destroy_deallocate()
PUBLIC 595ec 0 std::__ndk1::__function::__func<hook36<(anonymous namespace)::hook36Parent>::init(LevelEditorLayer*)::{lambda()#1}::operator()() const::{lambda()#6}, std::__ndk1::allocator<hook36<(anonymous namespace)::hook36Parent>::init(LevelEditorLayer*)::{lambda()#1}::operator()() const::{lambda()#6}>, void ()>::operator()()
PUBLIC 59648 0 std::__ndk1::__function::__func<hook36<(anonymous namespace)::hook36Parent>::init(LevelEditorLayer*)::{lambda()#1}::operator()() const::{lambda()#6}, std::__ndk1::allocator<hook36<(anonymous namespace)::hook36Parent>::init(LevelEditorLayer*)::{lambda()#1}::operator()() const::{lambda()#6}>, void ()>::target(std::type_info const&) const
PUBLIC 59664 0 std::__ndk1::__function::__func<hook36<(anonymous namespace)::hook36Parent>::init(LevelEditorLayer*)::{lambda()#1}::operator()() const::{lambda()#6}, std::__ndk1::allocator<hook36<(anonymous namespace)::hook36Parent>::init(LevelEditorLayer*)::{lambda()#1}::operator()() const::{lambda()#6}>, void ()>::target_type() const
PUBLIC 59670 0 std::__ndk1::__function::__func<hook36<(anonymous namespace)::hook36Parent>::init(LevelEditorLayer*)::{lambda()#1}::operator()() const::{lambda()#7}, std::__ndk1::allocator<hook36<(anonymous namespace)::hook36Parent>::init(LevelEditorLayer*)::{lambda()#1}::operator()() const::{lambda()#7}>, void ()>::~__func()
PUBLIC 59674 0 std::__ndk1::__function::__func<hook36<(anonymous namespace)::hook36Parent>::init(LevelEditorLayer*)::{lambda()#1}::operator()() const::{lambda()#7}, std::__ndk1::allocator<hook36<(anonymous namespace)::hook36Parent>::init(LevelEditorLayer*)::{lambda()#1}::operator()() const::{lambda()#7}>, void ()>::__clone() const
PUBLIC 596a8 0 std::__ndk1::__function::__func<hook36<(anonymous namespace)::hook36Parent>::init(LevelEditorLayer*)::{lambda()#1}::operator()() const::{lambda()#7}, std::__ndk1::allocator<hook36<(anonymous namespace)::hook36Parent>::init(LevelEditorLayer*)::{lambda()#1}::operator()() const::{lambda()#7}>, void ()>::__clone(std::__ndk1::__function::__base<void ()>*) const
PUBLIC 596bc 0 std::__ndk1::__function::__func<hook36<(anonymous namespace)::hook36Parent>::init(LevelEditorLayer*)::{lambda()#1}::operator()() const::{lambda()#7}, std::__ndk1::allocator<hook36<(anonymous namespace)::hook36Parent>::init(LevelEditorLayer*)::{lambda()#1}::operator()() const::{lambda()#7}>, void ()>::destroy()
PUBLIC 596c0 0 std::__ndk1::__function::__func<hook36<(anonymous namespace)::hook36Parent>::init(LevelEditorLayer*)::{lambda()#1}::operator()() const::{lambda()#7}, std::__ndk1::allocator<hook36<(anonymous namespace)::hook36Parent>::init(LevelEditorLayer*)::{lambda()#1}::operator()() const::{lambda()#7}>, void ()>::destroy_deallocate()
PUBLIC 596c4 0 std::__ndk1::__function::__func<hook36<(anonymous namespace)::hook36Parent>::init(LevelEditorLayer*)::{lambda()#1}::operator()() const::{lambda()#7}, std::__ndk1::allocator<hook36<(anonymous namespace)::hook36Parent>::init(LevelEditorLayer*)::{lambda()#1}::operator()() const::{lambda()#7}>, void ()>::operator()()
PUBLIC 59720 0 std::__ndk1::__function::__func<hook36<(anonymous namespace)::hook36Parent>::init(LevelEditorLayer*)::{lambda()#1}::operator()() const::{lambda()#7}, std::__ndk1::allocator<hook36<(anonymous namespace)::hook36Parent>::init(LevelEditorLayer*)::{lambda()#1}::operator()() const::{lambda()#7}>, void ()>::target(std::type_info const&) const
PUBLIC 5973c 0 std::__ndk1::__function::__func<hook36<(anonymous namespace)::hook36Parent>::init(LevelEditorLayer*)::{lambda()#1}::operator()() const::{lambda()#7}, std::__ndk1::allocator<hook36<(anonymous namespace)::hook36Parent>::init(LevelEditorLayer*)::{lambda()#1}::operator()() const::{lambda()#7}>, void ()>::target_type() const
PUBLIC 59748 0 std::__ndk1::__function::__func<hook36<(anonymous namespace)::hook36Parent>::init(LevelEditorLayer*)::{lambda()#1}::operator()() const::{lambda()#8}, std::__ndk1::allocator<hook36<(anonymous namespace)::hook36Parent>::init(LevelEditorLayer*)::{lambda()#1}::operator()() const::{lambda()#8}>, void ()>::~__func()
PUBLIC 5974c 0 std::__ndk1::__function::__func<hook36<(anonymous namespace)::hook36Parent>::init(LevelEditorLayer*)::{lambda()#1}::operator()() const::{lambda()#8}, std::__ndk1::allocator<hook36<(anonymous namespace)::hook36Parent>::init(LevelEditorLayer*)::{lambda()#1}::operator()() const::{lambda()#8}>, void ()>::__clone() const
PUBLIC 59780 0 std::__ndk1::__function::__func<hook36<(anonymous namespace)::hook36Parent>::init(LevelEditorLayer*)::{lambda()#1}::operator()() const::{lambda()#8}, std::__ndk1::allocator<hook36<(anonymous namespace)::hook36Parent>::init(LevelEditorLayer*)::{lambda()#1}::operator()() const::{lambda()#8}>, void ()>::__clone(std::__ndk1::__function::__base<void ()>*) const
PUBLIC 59794 0 std::__ndk1::__function::__func<hook36<(anonymous namespace)::hook36Parent>::init(LevelEditorLayer*)::{lambda()#1}::operator()() const::{lambda()#8}, std::__ndk1::allocator<hook36<(anonymous namespace)::hook36Parent>::init(LevelEditorLayer*)::{lambda()#1}::operator()() const::{lambda()#8}>, void ()>::destroy()
PUBLIC 59798 0 std::__ndk1::__function::__func<hook36<(anonymous namespace)::hook36Parent>::init(LevelEditorLayer*)::{lambda()#1}::operator()() const::{lambda()#8}, std::__ndk1::allocator<hook36<(anonymous namespace)::hook36Parent>::init(LevelEditorLayer*)::{lambda()#1}::operator()() const::{lambda()#8}>, void ()>::destroy_deallocate()
PUBLIC 5979c 0 std::__ndk1::__function::__func<hook36<(anonymous namespace)::hook36Parent>::init(LevelEditorLayer*)::{lambda()#1}::operator()() const::{lambda()#8}, std::__ndk1::allocator<hook36<(anonymous namespace)::hook36Parent>::init(LevelEditorLayer*)::{lambda()#1}::operator()() const::{lambda()#8}>, void ()>::operator()()
PUBLIC 597f4 0 std::__ndk1::__function::__func<hook36<(anonymous namespace)::hook36Parent>::init(LevelEditorLayer*)::{lambda()#1}::operator()() const::{lambda()#8}, std::__ndk1::allocator<hook36<(anonymous namespace)::hook36Parent>::init(LevelEditorLayer*)::{lambda()#1}::operator()() const::{lambda()#8}>, void ()>::target(std::type_info const&) const
PUBLIC 59810 0 std::__ndk1::__function::__func<hook36<(anonymous namespace)::hook36Parent>::init(LevelEditorLayer*)::{lambda()#1}::operator()() const::{lambda()#8}, std::__ndk1::allocator<hook36<(anonymous namespace)::hook36Parent>::init(LevelEditorLayer*)::{lambda()#1}::operator()() const::{lambda()#8}>, void ()>::target_type() const
PUBLIC 5981c 0 std::__ndk1::__function::__func<hook36<(anonymous namespace)::hook36Parent>::init(LevelEditorLayer*)::{lambda()#1}::operator()() const::{lambda()#9}, std::__ndk1::allocator<hook36<(anonymous namespace)::hook36Parent>::init(LevelEditorLayer*)::{lambda()#1}::operator()() const::{lambda()#9}>, void ()>::~__func()
PUBLIC 59820 0 std::__ndk1::__function::__func<hook36<(anonymous namespace)::hook36Parent>::init(LevelEditorLayer*)::{lambda()#1}::operator()() const::{lambda()#9}, std::__ndk1::allocator<hook36<(anonymous namespace)::hook36Parent>::init(LevelEditorLayer*)::{lambda()#1}::operator()() const::{lambda()#9}>, void ()>::__clone() const
PUBLIC 59854 0 std::__ndk1::__function::__func<hook36<(anonymous namespace)::hook36Parent>::init(LevelEditorLayer*)::{lambda()#1}::operator()() const::{lambda()#9}, std::__ndk1::allocator<hook36<(anonymous namespace)::hook36Parent>::init(LevelEditorLayer*)::{lambda()#1}::operator()() const::{lambda()#9}>, void ()>::__clone(std::__ndk1::__function::__base<void ()>*) const
PUBLIC 59868 0 std::__ndk1::__function::__func<hook36<(anonymous namespace)::hook36Parent>::init(LevelEditorLayer*)::{lambda()#1}::operator()() const::{lambda()#9}, std::__ndk1::allocator<hook36<(anonymous namespace)::hook36Parent>::init(LevelEditorLayer*)::{lambda()#1}::operator()() const::{lambda()#9}>, void ()>::destroy()
PUBLIC 5986c 0 std::__ndk1::__function::__func<hook36<(anonymous namespace)::hook36Parent>::init(LevelEditorLayer*)::{lambda()#1}::operator()() const::{lambda()#9}, std::__ndk1::allocator<hook36<(anonymous namespace)::hook36Parent>::init(LevelEditorLayer*)::{lambda()#1}::operator()() const::{lambda()#9}>, void ()>::destroy_deallocate()
PUBLIC 59870 0 std::__ndk1::__function::__func<hook36<(anonymous namespace)::hook36Parent>::init(LevelEditorLayer*)::{lambda()#1}::operator()() const::{lambda()#9}, std::__ndk1::allocator<hook36<(anonymous namespace)::hook36Parent>::init(LevelEditorLayer*)::{lambda()#1}::operator()() const::{lambda()#9}>, void ()>::operator()()
PUBLIC 598cc 0 std::__ndk1::__function::__func<hook36<(anonymous namespace)::hook36Parent>::init(LevelEditorLayer*)::{lambda()#1}::operator()() const::{lambda()#9}, std::__ndk1::allocator<hook36<(anonymous namespace)::hook36Parent>::init(LevelEditorLayer*)::{lambda()#1}::operator()() const::{lambda()#9}>, void ()>::target(std::type_info const&) const
PUBLIC 598e8 0 std::__ndk1::__function::__func<hook36<(anonymous namespace)::hook36Parent>::init(LevelEditorLayer*)::{lambda()#1}::operator()() const::{lambda()#9}, std::__ndk1::allocator<hook36<(anonymous namespace)::hook36Parent>::init(LevelEditorLayer*)::{lambda()#1}::operator()() const::{lambda()#9}>, void ()>::target_type() const
PUBLIC 598f4 0 std::__ndk1::__function::__func<hook36<(anonymous namespace)::hook36Parent>::init(LevelEditorLayer*)::{lambda()#1}::operator()() const::{lambda()#10}, std::__ndk1::allocator<hook36<(anonymous namespace)::hook36Parent>::init(LevelEditorLayer*)::{lambda()#1}::operator()() const::{lambda()#10}>, void ()>::~__func()
PUBLIC 598f8 0 std::__ndk1::__function::__func<hook36<(anonymous namespace)::hook36Parent>::init(LevelEditorLayer*)::{lambda()#1}::operator()() const::{lambda()#10}, std::__ndk1::allocator<hook36<(anonymous namespace)::hook36Parent>::init(LevelEditorLayer*)::{lambda()#1}::operator()() const::{lambda()#10}>, void ()>::__clone() const
PUBLIC 5992c 0 std::__ndk1::__function::__func<hook36<(anonymous namespace)::hook36Parent>::init(LevelEditorLayer*)::{lambda()#1}::operator()() const::{lambda()#10}, std::__ndk1::allocator<hook36<(anonymous namespace)::hook36Parent>::init(LevelEditorLayer*)::{lambda()#1}::operator()() const::{lambda()#10}>, void ()>::__clone(std::__ndk1::__function::__base<void ()>*) const
PUBLIC 59940 0 std::__ndk1::__function::__func<hook36<(anonymous namespace)::hook36Parent>::init(LevelEditorLayer*)::{lambda()#1}::operator()() const::{lambda()#10}, std::__ndk1::allocator<hook36<(anonymous namespace)::hook36Parent>::init(LevelEditorLayer*)::{lambda()#1}::operator()() const::{lambda()#10}>, void ()>::destroy()
PUBLIC 59944 0 std::__ndk1::__function::__func<hook36<(anonymous namespace)::hook36Parent>::init(LevelEditorLayer*)::{lambda()#1}::operator()() const::{lambda()#10}, std::__ndk1::allocator<hook36<(anonymous namespace)::hook36Parent>::init(LevelEditorLayer*)::{lambda()#1}::operator()() const::{lambda()#10}>, void ()>::destroy_deallocate()
PUBLIC 59948 0 std::__ndk1::__function::__func<hook36<(anonymous namespace)::hook36Parent>::init(LevelEditorLayer*)::{lambda()#1}::operator()() const::{lambda()#10}, std::__ndk1::allocator<hook36<(anonymous namespace)::hook36Parent>::init(LevelEditorLayer*)::{lambda()#1}::operator()() const::{lambda()#10}>, void ()>::operator()()
PUBLIC 599a8 0 std::__ndk1::__function::__func<hook36<(anonymous namespace)::hook36Parent>::init(LevelEditorLayer*)::{lambda()#1}::operator()() const::{lambda()#10}, std::__ndk1::allocator<hook36<(anonymous namespace)::hook36Parent>::init(LevelEditorLayer*)::{lambda()#1}::operator()() const::{lambda()#10}>, void ()>::target(std::type_info const&) const
PUBLIC 599c4 0 std::__ndk1::__function::__func<hook36<(anonymous namespace)::hook36Parent>::init(LevelEditorLayer*)::{lambda()#1}::operator()() const::{lambda()#10}, std::__ndk1::allocator<hook36<(anonymous namespace)::hook36Parent>::init(LevelEditorLayer*)::{lambda()#1}::operator()() const::{lambda()#10}>, void ()>::target_type() const
PUBLIC 599d0 0 std::__ndk1::__function::__func<hook36<(anonymous namespace)::hook36Parent>::init(LevelEditorLayer*)::{lambda()#1}::operator()() const::{lambda()#11}, std::__ndk1::allocator<hook36<(anonymous namespace)::hook36Parent>::init(LevelEditorLayer*)::{lambda()#1}::operator()() const::{lambda()#11}>, void ()>::~__func()
PUBLIC 599d4 0 std::__ndk1::__function::__func<hook36<(anonymous namespace)::hook36Parent>::init(LevelEditorLayer*)::{lambda()#1}::operator()() const::{lambda()#11}, std::__ndk1::allocator<hook36<(anonymous namespace)::hook36Parent>::init(LevelEditorLayer*)::{lambda()#1}::operator()() const::{lambda()#11}>, void ()>::__clone() const
PUBLIC 59a08 0 std::__ndk1::__function::__func<hook36<(anonymous namespace)::hook36Parent>::init(LevelEditorLayer*)::{lambda()#1}::operator()() const::{lambda()#11}, std::__ndk1::allocator<hook36<(anonymous namespace)::hook36Parent>::init(LevelEditorLayer*)::{lambda()#1}::operator()() const::{lambda()#11}>, void ()>::__clone(std::__ndk1::__function::__base<void ()>*) const
PUBLIC 59a1c 0 std::__ndk1::__function::__func<hook36<(anonymous namespace)::hook36Parent>::init(LevelEditorLayer*)::{lambda()#1}::operator()() const::{lambda()#11}, std::__ndk1::allocator<hook36<(anonymous namespace)::hook36Parent>::init(LevelEditorLayer*)::{lambda()#1}::operator()() const::{lambda()#11}>, void ()>::destroy()
PUBLIC 59a20 0 std::__ndk1::__function::__func<hook36<(anonymous namespace)::hook36Parent>::init(LevelEditorLayer*)::{lambda()#1}::operator()() const::{lambda()#11}, std::__ndk1::allocator<hook36<(anonymous namespace)::hook36Parent>::init(LevelEditorLayer*)::{lambda()#1}::operator()() const::{lambda()#11}>, void ()>::destroy_deallocate()
PUBLIC 59a24 0 std::__ndk1::__function::__func<hook36<(anonymous namespace)::hook36Parent>::init(LevelEditorLayer*)::{lambda()#1}::operator()() const::{lambda()#11}, std::__ndk1::allocator<hook36<(anonymous namespace)::hook36Parent>::init(LevelEditorLayer*)::{lambda()#1}::operator()() const::{lambda()#11}>, void ()>::operator()()
PUBLIC 59a80 0 std::__ndk1::__function::__func<hook36<(anonymous namespace)::hook36Parent>::init(LevelEditorLayer*)::{lambda()#1}::operator()() const::{lambda()#11}, std::__ndk1::allocator<hook36<(anonymous namespace)::hook36Parent>::init(LevelEditorLayer*)::{lambda()#1}::operator()() const::{lambda()#11}>, void ()>::target(std::type_info const&) const
PUBLIC 59a9c 0 std::__ndk1::__function::__func<hook36<(anonymous namespace)::hook36Parent>::init(LevelEditorLayer*)::{lambda()#1}::operator()() const::{lambda()#11}, std::__ndk1::allocator<hook36<(anonymous namespace)::hook36Parent>::init(LevelEditorLayer*)::{lambda()#1}::operator()() const::{lambda()#11}>, void ()>::target_type() const
PUBLIC 59aa8 0 std::__ndk1::__function::__func<hook36<(anonymous namespace)::hook36Parent>::init(LevelEditorLayer*)::{lambda()#1}::operator()() const::{lambda()#12}, std::__ndk1::allocator<hook36<(anonymous namespace)::hook36Parent>::init(LevelEditorLayer*)::{lambda()#1}::operator()() const::{lambda()#12}>, void ()>::~__func()
PUBLIC 59aac 0 std::__ndk1::__function::__func<hook36<(anonymous namespace)::hook36Parent>::init(LevelEditorLayer*)::{lambda()#1}::operator()() const::{lambda()#12}, std::__ndk1::allocator<hook36<(anonymous namespace)::hook36Parent>::init(LevelEditorLayer*)::{lambda()#1}::operator()() const::{lambda()#12}>, void ()>::__clone() const
PUBLIC 59ae0 0 std::__ndk1::__function::__func<hook36<(anonymous namespace)::hook36Parent>::init(LevelEditorLayer*)::{lambda()#1}::operator()() const::{lambda()#12}, std::__ndk1::allocator<hook36<(anonymous namespace)::hook36Parent>::init(LevelEditorLayer*)::{lambda()#1}::operator()() const::{lambda()#12}>, void ()>::__clone(std::__ndk1::__function::__base<void ()>*) const
PUBLIC 59af4 0 std::__ndk1::__function::__func<hook36<(anonymous namespace)::hook36Parent>::init(LevelEditorLayer*)::{lambda()#1}::operator()() const::{lambda()#12}, std::__ndk1::allocator<hook36<(anonymous namespace)::hook36Parent>::init(LevelEditorLayer*)::{lambda()#1}::operator()() const::{lambda()#12}>, void ()>::destroy()
PUBLIC 59af8 0 std::__ndk1::__function::__func<hook36<(anonymous namespace)::hook36Parent>::init(LevelEditorLayer*)::{lambda()#1}::operator()() const::{lambda()#12}, std::__ndk1::allocator<hook36<(anonymous namespace)::hook36Parent>::init(LevelEditorLayer*)::{lambda()#1}::operator()() const::{lambda()#12}>, void ()>::destroy_deallocate()
PUBLIC 59afc 0 std::__ndk1::__function::__func<hook36<(anonymous namespace)::hook36Parent>::init(LevelEditorLayer*)::{lambda()#1}::operator()() const::{lambda()#12}, std::__ndk1::allocator<hook36<(anonymous namespace)::hook36Parent>::init(LevelEditorLayer*)::{lambda()#1}::operator()() const::{lambda()#12}>, void ()>::operator()()
PUBLIC 59b58 0 std::__ndk1::__function::__func<hook36<(anonymous namespace)::hook36Parent>::init(LevelEditorLayer*)::{lambda()#1}::operator()() const::{lambda()#12}, std::__ndk1::allocator<hook36<(anonymous namespace)::hook36Parent>::init(LevelEditorLayer*)::{lambda()#1}::operator()() const::{lambda()#12}>, void ()>::target(std::type_info const&) const
PUBLIC 59b74 0 std::__ndk1::__function::__func<hook36<(anonymous namespace)::hook36Parent>::init(LevelEditorLayer*)::{lambda()#1}::operator()() const::{lambda()#12}, std::__ndk1::allocator<hook36<(anonymous namespace)::hook36Parent>::init(LevelEditorLayer*)::{lambda()#1}::operator()() const::{lambda()#12}>, void ()>::target_type() const
PUBLIC 59b80 0 std::__ndk1::__function::__func<hook36<(anonymous namespace)::hook36Parent>::init(LevelEditorLayer*)::{lambda()#1}::operator()() const::{lambda()#13}, std::__ndk1::allocator<hook36<(anonymous namespace)::hook36Parent>::init(LevelEditorLayer*)::{lambda()#1}::operator()() const::{lambda()#13}>, void ()>::~__func()
PUBLIC 59b84 0 std::__ndk1::__function::__func<hook36<(anonymous namespace)::hook36Parent>::init(LevelEditorLayer*)::{lambda()#1}::operator()() const::{lambda()#13}, std::__ndk1::allocator<hook36<(anonymous namespace)::hook36Parent>::init(LevelEditorLayer*)::{lambda()#1}::operator()() const::{lambda()#13}>, void ()>::__clone() const
PUBLIC 59bb8 0 std::__ndk1::__function::__func<hook36<(anonymous namespace)::hook36Parent>::init(LevelEditorLayer*)::{lambda()#1}::operator()() const::{lambda()#13}, std::__ndk1::allocator<hook36<(anonymous namespace)::hook36Parent>::init(LevelEditorLayer*)::{lambda()#1}::operator()() const::{lambda()#13}>, void ()>::__clone(std::__ndk1::__function::__base<void ()>*) const
PUBLIC 59bcc 0 std::__ndk1::__function::__func<hook36<(anonymous namespace)::hook36Parent>::init(LevelEditorLayer*)::{lambda()#1}::operator()() const::{lambda()#13}, std::__ndk1::allocator<hook36<(anonymous namespace)::hook36Parent>::init(LevelEditorLayer*)::{lambda()#1}::operator()() const::{lambda()#13}>, void ()>::destroy()
PUBLIC 59bd0 0 std::__ndk1::__function::__func<hook36<(anonymous namespace)::hook36Parent>::init(LevelEditorLayer*)::{lambda()#1}::operator()() const::{lambda()#13}, std::__ndk1::allocator<hook36<(anonymous namespace)::hook36Parent>::init(LevelEditorLayer*)::{lambda()#1}::operator()() const::{lambda()#13}>, void ()>::destroy_deallocate()
PUBLIC 59bd4 0 std::__ndk1::__function::__func<hook36<(anonymous namespace)::hook36Parent>::init(LevelEditorLayer*)::{lambda()#1}::operator()() const::{lambda()#13}, std::__ndk1::allocator<hook36<(anonymous namespace)::hook36Parent>::init(LevelEditorLayer*)::{lambda()#1}::operator()() const::{lambda()#13}>, void ()>::operator()()
PUBLIC 59c30 0 std::__ndk1::__function::__func<hook36<(anonymous namespace)::hook36Parent>::init(LevelEditorLayer*)::{lambda()#1}::operator()() const::{lambda()#13}, std::__ndk1::allocator<hook36<(anonymous namespace)::hook36Parent>::init(LevelEditorLayer*)::{lambda()#1}::operator()() const::{lambda()#13}>, void ()>::target(std::type_info const&) const
PUBLIC 59c4c 0 std::__ndk1::__function::__func<hook36<(anonymous namespace)::hook36Parent>::init(LevelEditorLayer*)::{lambda()#1}::operator()() const::{lambda()#13}, std::__ndk1::allocator<hook36<(anonymous namespace)::hook36Parent>::init(LevelEditorLayer*)::{lambda()#1}::operator()() const::{lambda()#13}>, void ()>::target_type() const
PUBLIC 59c58 0 std::__ndk1::__function::__func<hook36<(anonymous namespace)::hook36Parent>::init(LevelEditorLayer*)::{lambda()#1}::operator()() const::{lambda()#14}, std::__ndk1::allocator<hook36<(anonymous namespace)::hook36Parent>::init(LevelEditorLayer*)::{lambda()#1}::operator()() const::{lambda()#14}>, void ()>::~__func()
PUBLIC 59c5c 0 std::__ndk1::__function::__func<hook36<(anonymous namespace)::hook36Parent>::init(LevelEditorLayer*)::{lambda()#1}::operator()() const::{lambda()#14}, std::__ndk1::allocator<hook36<(anonymous namespace)::hook36Parent>::init(LevelEditorLayer*)::{lambda()#1}::operator()() const::{lambda()#14}>, void ()>::__clone() const
PUBLIC 59c90 0 std::__ndk1::__function::__func<hook36<(anonymous namespace)::hook36Parent>::init(LevelEditorLayer*)::{lambda()#1}::operator()() const::{lambda()#14}, std::__ndk1::allocator<hook36<(anonymous namespace)::hook36Parent>::init(LevelEditorLayer*)::{lambda()#1}::operator()() const::{lambda()#14}>, void ()>::__clone(std::__ndk1::__function::__base<void ()>*) const
PUBLIC 59ca4 0 std::__ndk1::__function::__func<hook36<(anonymous namespace)::hook36Parent>::init(LevelEditorLayer*)::{lambda()#1}::operator()() const::{lambda()#14}, std::__ndk1::allocator<hook36<(anonymous namespace)::hook36Parent>::init(LevelEditorLayer*)::{lambda()#1}::operator()() const::{lambda()#14}>, void ()>::destroy()
PUBLIC 59ca8 0 std::__ndk1::__function::__func<hook36<(anonymous namespace)::hook36Parent>::init(LevelEditorLayer*)::{lambda()#1}::operator()() const::{lambda()#14}, std::__ndk1::allocator<hook36<(anonymous namespace)::hook36Parent>::init(LevelEditorLayer*)::{lambda()#1}::operator()() const::{lambda()#14}>, void ()>::destroy_deallocate()
PUBLIC 59cac 0 std::__ndk1::__function::__func<hook36<(anonymous namespace)::hook36Parent>::init(LevelEditorLayer*)::{lambda()#1}::operator()() const::{lambda()#14}, std::__ndk1::allocator<hook36<(anonymous namespace)::hook36Parent>::init(LevelEditorLayer*)::{lambda()#1}::operator()() const::{lambda()#14}>, void ()>::operator()()
PUBLIC 59d08 0 std::__ndk1::__function::__func<hook36<(anonymous namespace)::hook36Parent>::init(LevelEditorLayer*)::{lambda()#1}::operator()() const::{lambda()#14}, std::__ndk1::allocator<hook36<(anonymous namespace)::hook36Parent>::init(LevelEditorLayer*)::{lambda()#1}::operator()() const::{lambda()#14}>, void ()>::target(std::type_info const&) const
PUBLIC 59d24 0 std::__ndk1::__function::__func<hook36<(anonymous namespace)::hook36Parent>::init(LevelEditorLayer*)::{lambda()#1}::operator()() const::{lambda()#14}, std::__ndk1::allocator<hook36<(anonymous namespace)::hook36Parent>::init(LevelEditorLayer*)::{lambda()#1}::operator()() const::{lambda()#14}>, void ()>::target_type() const
PUBLIC 59d30 0 std::__ndk1::__function::__func<hook36<(anonymous namespace)::hook36Parent>::init(LevelEditorLayer*)::{lambda()#1}::operator()() const::{lambda()#15}, std::__ndk1::allocator<hook36<(anonymous namespace)::hook36Parent>::init(LevelEditorLayer*)::{lambda()#1}::operator()() const::{lambda()#15}>, void ()>::~__func()
PUBLIC 59d34 0 std::__ndk1::__function::__func<hook36<(anonymous namespace)::hook36Parent>::init(LevelEditorLayer*)::{lambda()#1}::operator()() const::{lambda()#15}, std::__ndk1::allocator<hook36<(anonymous namespace)::hook36Parent>::init(LevelEditorLayer*)::{lambda()#1}::operator()() const::{lambda()#15}>, void ()>::__clone() const
PUBLIC 59d68 0 std::__ndk1::__function::__func<hook36<(anonymous namespace)::hook36Parent>::init(LevelEditorLayer*)::{lambda()#1}::operator()() const::{lambda()#15}, std::__ndk1::allocator<hook36<(anonymous namespace)::hook36Parent>::init(LevelEditorLayer*)::{lambda()#1}::operator()() const::{lambda()#15}>, void ()>::__clone(std::__ndk1::__function::__base<void ()>*) const
PUBLIC 59d7c 0 std::__ndk1::__function::__func<hook36<(anonymous namespace)::hook36Parent>::init(LevelEditorLayer*)::{lambda()#1}::operator()() const::{lambda()#15}, std::__ndk1::allocator<hook36<(anonymous namespace)::hook36Parent>::init(LevelEditorLayer*)::{lambda()#1}::operator()() const::{lambda()#15}>, void ()>::destroy()
PUBLIC 59d80 0 std::__ndk1::__function::__func<hook36<(anonymous namespace)::hook36Parent>::init(LevelEditorLayer*)::{lambda()#1}::operator()() const::{lambda()#15}, std::__ndk1::allocator<hook36<(anonymous namespace)::hook36Parent>::init(LevelEditorLayer*)::{lambda()#1}::operator()() const::{lambda()#15}>, void ()>::destroy_deallocate()
PUBLIC 59d84 0 std::__ndk1::__function::__func<hook36<(anonymous namespace)::hook36Parent>::init(LevelEditorLayer*)::{lambda()#1}::operator()() const::{lambda()#15}, std::__ndk1::allocator<hook36<(anonymous namespace)::hook36Parent>::init(LevelEditorLayer*)::{lambda()#1}::operator()() const::{lambda()#15}>, void ()>::operator()()
PUBLIC 59ddc 0 std::__ndk1::__function::__func<hook36<(anonymous namespace)::hook36Parent>::init(LevelEditorLayer*)::{lambda()#1}::operator()() const::{lambda()#15}, std::__ndk1::allocator<hook36<(anonymous namespace)::hook36Parent>::init(LevelEditorLayer*)::{lambda()#1}::operator()() const::{lambda()#15}>, void ()>::target(std::type_info const&) const
PUBLIC 59df8 0 std::__ndk1::__function::__func<hook36<(anonymous namespace)::hook36Parent>::init(LevelEditorLayer*)::{lambda()#1}::operator()() const::{lambda()#15}, std::__ndk1::allocator<hook36<(anonymous namespace)::hook36Parent>::init(LevelEditorLayer*)::{lambda()#1}::operator()() const::{lambda()#15}>, void ()>::target_type() const
PUBLIC 59e04 0 std::__ndk1::__function::__func<hook36<(anonymous namespace)::hook36Parent>::init(LevelEditorLayer*)::{lambda()#1}::operator()() const::{lambda()#16}, std::__ndk1::allocator<hook36<(anonymous namespace)::hook36Parent>::init(LevelEditorLayer*)::{lambda()#1}::operator()() const::{lambda()#16}>, void ()>::~__func()
PUBLIC 59e08 0 std::__ndk1::__function::__func<hook36<(anonymous namespace)::hook36Parent>::init(LevelEditorLayer*)::{lambda()#1}::operator()() const::{lambda()#16}, std::__ndk1::allocator<hook36<(anonymous namespace)::hook36Parent>::init(LevelEditorLayer*)::{lambda()#1}::operator()() const::{lambda()#16}>, void ()>::__clone() const
PUBLIC 59e3c 0 std::__ndk1::__function::__func<hook36<(anonymous namespace)::hook36Parent>::init(LevelEditorLayer*)::{lambda()#1}::operator()() const::{lambda()#16}, std::__ndk1::allocator<hook36<(anonymous namespace)::hook36Parent>::init(LevelEditorLayer*)::{lambda()#1}::operator()() const::{lambda()#16}>, void ()>::__clone(std::__ndk1::__function::__base<void ()>*) const
PUBLIC 59e50 0 std::__ndk1::__function::__func<hook36<(anonymous namespace)::hook36Parent>::init(LevelEditorLayer*)::{lambda()#1}::operator()() const::{lambda()#16}, std::__ndk1::allocator<hook36<(anonymous namespace)::hook36Parent>::init(LevelEditorLayer*)::{lambda()#1}::operator()() const::{lambda()#16}>, void ()>::destroy()
PUBLIC 59e54 0 std::__ndk1::__function::__func<hook36<(anonymous namespace)::hook36Parent>::init(LevelEditorLayer*)::{lambda()#1}::operator()() const::{lambda()#16}, std::__ndk1::allocator<hook36<(anonymous namespace)::hook36Parent>::init(LevelEditorLayer*)::{lambda()#1}::operator()() const::{lambda()#16}>, void ()>::destroy_deallocate()
PUBLIC 59e58 0 std::__ndk1::__function::__func<hook36<(anonymous namespace)::hook36Parent>::init(LevelEditorLayer*)::{lambda()#1}::operator()() const::{lambda()#16}, std::__ndk1::allocator<hook36<(anonymous namespace)::hook36Parent>::init(LevelEditorLayer*)::{lambda()#1}::operator()() const::{lambda()#16}>, void ()>::operator()()
PUBLIC 59eb4 0 std::__ndk1::__function::__func<hook36<(anonymous namespace)::hook36Parent>::init(LevelEditorLayer*)::{lambda()#1}::operator()() const::{lambda()#16}, std::__ndk1::allocator<hook36<(anonymous namespace)::hook36Parent>::init(LevelEditorLayer*)::{lambda()#1}::operator()() const::{lambda()#16}>, void ()>::target(std::type_info const&) const
PUBLIC 59ed0 0 std::__ndk1::__function::__func<hook36<(anonymous namespace)::hook36Parent>::init(LevelEditorLayer*)::{lambda()#1}::operator()() const::{lambda()#16}, std::__ndk1::allocator<hook36<(anonymous namespace)::hook36Parent>::init(LevelEditorLayer*)::{lambda()#1}::operator()() const::{lambda()#16}>, void ()>::target_type() const
PUBLIC 59edc 0 std::__ndk1::__function::__func<hook36<(anonymous namespace)::hook36Parent>::init(LevelEditorLayer*)::{lambda()#1}::operator()() const::{lambda()#17}, std::__ndk1::allocator<hook36<(anonymous namespace)::hook36Parent>::init(LevelEditorLayer*)::{lambda()#1}::operator()() const::{lambda()#17}>, void ()>::~__func()
PUBLIC 59ee0 0 std::__ndk1::__function::__func<hook36<(anonymous namespace)::hook36Parent>::init(LevelEditorLayer*)::{lambda()#1}::operator()() const::{lambda()#17}, std::__ndk1::allocator<hook36<(anonymous namespace)::hook36Parent>::init(LevelEditorLayer*)::{lambda()#1}::operator()() const::{lambda()#17}>, void ()>::__clone() const
PUBLIC 59f14 0 std::__ndk1::__function::__func<hook36<(anonymous namespace)::hook36Parent>::init(LevelEditorLayer*)::{lambda()#1}::operator()() const::{lambda()#17}, std::__ndk1::allocator<hook36<(anonymous namespace)::hook36Parent>::init(LevelEditorLayer*)::{lambda()#1}::operator()() const::{lambda()#17}>, void ()>::__clone(std::__ndk1::__function::__base<void ()>*) const
PUBLIC 59f28 0 std::__ndk1::__function::__func<hook36<(anonymous namespace)::hook36Parent>::init(LevelEditorLayer*)::{lambda()#1}::operator()() const::{lambda()#17}, std::__ndk1::allocator<hook36<(anonymous namespace)::hook36Parent>::init(LevelEditorLayer*)::{lambda()#1}::operator()() const::{lambda()#17}>, void ()>::destroy()
PUBLIC 59f2c 0 std::__ndk1::__function::__func<hook36<(anonymous namespace)::hook36Parent>::init(LevelEditorLayer*)::{lambda()#1}::operator()() const::{lambda()#17}, std::__ndk1::allocator<hook36<(anonymous namespace)::hook36Parent>::init(LevelEditorLayer*)::{lambda()#1}::operator()() const::{lambda()#17}>, void ()>::destroy_deallocate()
PUBLIC 59f30 0 std::__ndk1::__function::__func<hook36<(anonymous namespace)::hook36Parent>::init(LevelEditorLayer*)::{lambda()#1}::operator()() const::{lambda()#17}, std::__ndk1::allocator<hook36<(anonymous namespace)::hook36Parent>::init(LevelEditorLayer*)::{lambda()#1}::operator()() const::{lambda()#17}>, void ()>::operator()()
PUBLIC 59f88 0 std::__ndk1::__function::__func<hook36<(anonymous namespace)::hook36Parent>::init(LevelEditorLayer*)::{lambda()#1}::operator()() const::{lambda()#17}, std::__ndk1::allocator<hook36<(anonymous namespace)::hook36Parent>::init(LevelEditorLayer*)::{lambda()#1}::operator()() const::{lambda()#17}>, void ()>::target(std::type_info const&) const
PUBLIC 59fa4 0 std::__ndk1::__function::__func<hook36<(anonymous namespace)::hook36Parent>::init(LevelEditorLayer*)::{lambda()#1}::operator()() const::{lambda()#17}, std::__ndk1::allocator<hook36<(anonymous namespace)::hook36Parent>::init(LevelEditorLayer*)::{lambda()#1}::operator()() const::{lambda()#17}>, void ()>::target_type() const
PUBLIC 59fb0 0 std::__ndk1::__function::__func<hook36<(anonymous namespace)::hook36Parent>::init(LevelEditorLayer*)::{lambda()#1}::operator()() const::{lambda()#18}, std::__ndk1::allocator<hook36<(anonymous namespace)::hook36Parent>::init(LevelEditorLayer*)::{lambda()#1}::operator()() const::{lambda()#18}>, void ()>::~__func()
PUBLIC 59fb4 0 std::__ndk1::__function::__func<hook36<(anonymous namespace)::hook36Parent>::init(LevelEditorLayer*)::{lambda()#1}::operator()() const::{lambda()#18}, std::__ndk1::allocator<hook36<(anonymous namespace)::hook36Parent>::init(LevelEditorLayer*)::{lambda()#1}::operator()() const::{lambda()#18}>, void ()>::__clone() const
PUBLIC 59fe8 0 std::__ndk1::__function::__func<hook36<(anonymous namespace)::hook36Parent>::init(LevelEditorLayer*)::{lambda()#1}::operator()() const::{lambda()#18}, std::__ndk1::allocator<hook36<(anonymous namespace)::hook36Parent>::init(LevelEditorLayer*)::{lambda()#1}::operator()() const::{lambda()#18}>, void ()>::__clone(std::__ndk1::__function::__base<void ()>*) const
PUBLIC 59ffc 0 std::__ndk1::__function::__func<hook36<(anonymous namespace)::hook36Parent>::init(LevelEditorLayer*)::{lambda()#1}::operator()() const::{lambda()#18}, std::__ndk1::allocator<hook36<(anonymous namespace)::hook36Parent>::init(LevelEditorLayer*)::{lambda()#1}::operator()() const::{lambda()#18}>, void ()>::destroy()
PUBLIC 5a000 0 std::__ndk1::__function::__func<hook36<(anonymous namespace)::hook36Parent>::init(LevelEditorLayer*)::{lambda()#1}::operator()() const::{lambda()#18}, std::__ndk1::allocator<hook36<(anonymous namespace)::hook36Parent>::init(LevelEditorLayer*)::{lambda()#1}::operator()() const::{lambda()#18}>, void ()>::destroy_deallocate()
PUBLIC 5a004 0 std::__ndk1::__function::__func<hook36<(anonymous namespace)::hook36Parent>::init(LevelEditorLayer*)::{lambda()#1}::operator()() const::{lambda()#18}, std::__ndk1::allocator<hook36<(anonymous namespace)::hook36Parent>::init(LevelEditorLayer*)::{lambda()#1}::operator()() const::{lambda()#18}>, void ()>::operator()()
PUBLIC 5a05c 0 std::__ndk1::__function::__func<hook36<(anonymous namespace)::hook36Parent>::init(LevelEditorLayer*)::{lambda()#1}::operator()() const::{lambda()#18}, std::__ndk1::allocator<hook36<(anonymous namespace)::hook36Parent>::init(LevelEditorLayer*)::{lambda()#1}::operator()() const::{lambda()#18}>, void ()>::target(std::type_info const&) const
PUBLIC 5a078 0 std::__ndk1::__function::__func<hook36<(anonymous namespace)::hook36Parent>::init(LevelEditorLayer*)::{lambda()#1}::operator()() const::{lambda()#18}, std::__ndk1::allocator<hook36<(anonymous namespace)::hook36Parent>::init(LevelEditorLayer*)::{lambda()#1}::operator()() const::{lambda()#18}>, void ()>::target_type() const
PUBLIC 5a084 0 std::__ndk1::__function::__func<hook36<(anonymous namespace)::hook36Parent>::init(LevelEditorLayer*)::{lambda()#1}::operator()() const::{lambda()#19}, std::__ndk1::allocator<hook36<(anonymous namespace)::hook36Parent>::init(LevelEditorLayer*)::{lambda()#1}::operator()() const::{lambda()#19}>, void ()>::~__func()
PUBLIC 5a088 0 std::__ndk1::__function::__func<hook36<(anonymous namespace)::hook36Parent>::init(LevelEditorLayer*)::{lambda()#1}::operator()() const::{lambda()#19}, std::__ndk1::allocator<hook36<(anonymous namespace)::hook36Parent>::init(LevelEditorLayer*)::{lambda()#1}::operator()() const::{lambda()#19}>, void ()>::__clone() const
PUBLIC 5a0bc 0 std::__ndk1::__function::__func<hook36<(anonymous namespace)::hook36Parent>::init(LevelEditorLayer*)::{lambda()#1}::operator()() const::{lambda()#19}, std::__ndk1::allocator<hook36<(anonymous namespace)::hook36Parent>::init(LevelEditorLayer*)::{lambda()#1}::operator()() const::{lambda()#19}>, void ()>::__clone(std::__ndk1::__function::__base<void ()>*) const
PUBLIC 5a0d0 0 std::__ndk1::__function::__func<hook36<(anonymous namespace)::hook36Parent>::init(LevelEditorLayer*)::{lambda()#1}::operator()() const::{lambda()#19}, std::__ndk1::allocator<hook36<(anonymous namespace)::hook36Parent>::init(LevelEditorLayer*)::{lambda()#1}::operator()() const::{lambda()#19}>, void ()>::destroy()
PUBLIC 5a0d4 0 std::__ndk1::__function::__func<hook36<(anonymous namespace)::hook36Parent>::init(LevelEditorLayer*)::{lambda()#1}::operator()() const::{lambda()#19}, std::__ndk1::allocator<hook36<(anonymous namespace)::hook36Parent>::init(LevelEditorLayer*)::{lambda()#1}::operator()() const::{lambda()#19}>, void ()>::destroy_deallocate()
PUBLIC 5a0d8 0 std::__ndk1::__function::__func<hook36<(anonymous namespace)::hook36Parent>::init(LevelEditorLayer*)::{lambda()#1}::operator()() const::{lambda()#19}, std::__ndk1::allocator<hook36<(anonymous namespace)::hook36Parent>::init(LevelEditorLayer*)::{lambda()#1}::operator()() const::{lambda()#19}>, void ()>::operator()()
PUBLIC 5a130 0 std::__ndk1::__function::__func<hook36<(anonymous namespace)::hook36Parent>::init(LevelEditorLayer*)::{lambda()#1}::operator()() const::{lambda()#19}, std::__ndk1::allocator<hook36<(anonymous namespace)::hook36Parent>::init(LevelEditorLayer*)::{lambda()#1}::operator()() const::{lambda()#19}>, void ()>::target(std::type_info const&) const
PUBLIC 5a14c 0 std::__ndk1::__function::__func<hook36<(anonymous namespace)::hook36Parent>::init(LevelEditorLayer*)::{lambda()#1}::operator()() const::{lambda()#19}, std::__ndk1::allocator<hook36<(anonymous namespace)::hook36Parent>::init(LevelEditorLayer*)::{lambda()#1}::operator()() const::{lambda()#19}>, void ()>::target_type() const
PUBLIC 5a158 0 std::__ndk1::__function::__func<hook36<(anonymous namespace)::hook36Parent>::init(LevelEditorLayer*)::{lambda()#1}::operator()() const::{lambda()#20}, std::__ndk1::allocator<hook36<(anonymous namespace)::hook36Parent>::init(LevelEditorLayer*)::{lambda()#1}::operator()() const::{lambda()#20}>, void ()>::~__func()
PUBLIC 5a15c 0 std::__ndk1::__function::__func<hook36<(anonymous namespace)::hook36Parent>::init(LevelEditorLayer*)::{lambda()#1}::operator()() const::{lambda()#20}, std::__ndk1::allocator<hook36<(anonymous namespace)::hook36Parent>::init(LevelEditorLayer*)::{lambda()#1}::operator()() const::{lambda()#20}>, void ()>::__clone() const
PUBLIC 5a190 0 std::__ndk1::__function::__func<hook36<(anonymous namespace)::hook36Parent>::init(LevelEditorLayer*)::{lambda()#1}::operator()() const::{lambda()#20}, std::__ndk1::allocator<hook36<(anonymous namespace)::hook36Parent>::init(LevelEditorLayer*)::{lambda()#1}::operator()() const::{lambda()#20}>, void ()>::__clone(std::__ndk1::__function::__base<void ()>*) const
PUBLIC 5a1a4 0 std::__ndk1::__function::__func<hook36<(anonymous namespace)::hook36Parent>::init(LevelEditorLayer*)::{lambda()#1}::operator()() const::{lambda()#20}, std::__ndk1::allocator<hook36<(anonymous namespace)::hook36Parent>::init(LevelEditorLayer*)::{lambda()#1}::operator()() const::{lambda()#20}>, void ()>::destroy()
PUBLIC 5a1a8 0 std::__ndk1::__function::__func<hook36<(anonymous namespace)::hook36Parent>::init(LevelEditorLayer*)::{lambda()#1}::operator()() const::{lambda()#20}, std::__ndk1::allocator<hook36<(anonymous namespace)::hook36Parent>::init(LevelEditorLayer*)::{lambda()#1}::operator()() const::{lambda()#20}>, void ()>::destroy_deallocate()
PUBLIC 5a1ac 0 std::__ndk1::__function::__func<hook36<(anonymous namespace)::hook36Parent>::init(LevelEditorLayer*)::{lambda()#1}::operator()() const::{lambda()#20}, std::__ndk1::allocator<hook36<(anonymous namespace)::hook36Parent>::init(LevelEditorLayer*)::{lambda()#1}::operator()() const::{lambda()#20}>, void ()>::operator()()
PUBLIC 5a204 0 std::__ndk1::__function::__func<hook36<(anonymous namespace)::hook36Parent>::init(LevelEditorLayer*)::{lambda()#1}::operator()() const::{lambda()#20}, std::__ndk1::allocator<hook36<(anonymous namespace)::hook36Parent>::init(LevelEditorLayer*)::{lambda()#1}::operator()() const::{lambda()#20}>, void ()>::target(std::type_info const&) const
PUBLIC 5a220 0 std::__ndk1::__function::__func<hook36<(anonymous namespace)::hook36Parent>::init(LevelEditorLayer*)::{lambda()#1}::operator()() const::{lambda()#20}, std::__ndk1::allocator<hook36<(anonymous namespace)::hook36Parent>::init(LevelEditorLayer*)::{lambda()#1}::operator()() const::{lambda()#20}>, void ()>::target_type() const
PUBLIC 5a22c 0 std::__ndk1::__function::__func<hook36<(anonymous namespace)::hook36Parent>::init(LevelEditorLayer*)::{lambda()#1}::operator()() const::{lambda()#21}, std::__ndk1::allocator<hook36<(anonymous namespace)::hook36Parent>::init(LevelEditorLayer*)::{lambda()#1}::operator()() const::{lambda()#21}>, void ()>::~__func()
PUBLIC 5a230 0 std::__ndk1::__function::__func<hook36<(anonymous namespace)::hook36Parent>::init(LevelEditorLayer*)::{lambda()#1}::operator()() const::{lambda()#21}, std::__ndk1::allocator<hook36<(anonymous namespace)::hook36Parent>::init(LevelEditorLayer*)::{lambda()#1}::operator()() const::{lambda()#21}>, void ()>::__clone() const
PUBLIC 5a264 0 std::__ndk1::__function::__func<hook36<(anonymous namespace)::hook36Parent>::init(LevelEditorLayer*)::{lambda()#1}::operator()() const::{lambda()#21}, std::__ndk1::allocator<hook36<(anonymous namespace)::hook36Parent>::init(LevelEditorLayer*)::{lambda()#1}::operator()() const::{lambda()#21}>, void ()>::__clone(std::__ndk1::__function::__base<void ()>*) const
PUBLIC 5a278 0 std::__ndk1::__function::__func<hook36<(anonymous namespace)::hook36Parent>::init(LevelEditorLayer*)::{lambda()#1}::operator()() const::{lambda()#21}, std::__ndk1::allocator<hook36<(anonymous namespace)::hook36Parent>::init(LevelEditorLayer*)::{lambda()#1}::operator()() const::{lambda()#21}>, void ()>::destroy()
PUBLIC 5a27c 0 std::__ndk1::__function::__func<hook36<(anonymous namespace)::hook36Parent>::init(LevelEditorLayer*)::{lambda()#1}::operator()() const::{lambda()#21}, std::__ndk1::allocator<hook36<(anonymous namespace)::hook36Parent>::init(LevelEditorLayer*)::{lambda()#1}::operator()() const::{lambda()#21}>, void ()>::destroy_deallocate()
PUBLIC 5a280 0 std::__ndk1::__function::__func<hook36<(anonymous namespace)::hook36Parent>::init(LevelEditorLayer*)::{lambda()#1}::operator()() const::{lambda()#21}, std::__ndk1::allocator<hook36<(anonymous namespace)::hook36Parent>::init(LevelEditorLayer*)::{lambda()#1}::operator()() const::{lambda()#21}>, void ()>::operator()()
PUBLIC 5a28c 0 std::__ndk1::__function::__func<hook36<(anonymous namespace)::hook36Parent>::init(LevelEditorLayer*)::{lambda()#1}::operator()() const::{lambda()#21}, std::__ndk1::allocator<hook36<(anonymous namespace)::hook36Parent>::init(LevelEditorLayer*)::{lambda()#1}::operator()() const::{lambda()#21}>, void ()>::target(std::type_info const&) const
PUBLIC 5a2a8 0 std::__ndk1::__function::__func<hook36<(anonymous namespace)::hook36Parent>::init(LevelEditorLayer*)::{lambda()#1}::operator()() const::{lambda()#21}, std::__ndk1::allocator<hook36<(anonymous namespace)::hook36Parent>::init(LevelEditorLayer*)::{lambda()#1}::operator()() const::{lambda()#21}>, void ()>::target_type() const
PUBLIC 5a2b4 0 std::__ndk1::__function::__func<hook36<(anonymous namespace)::hook36Parent>::init(LevelEditorLayer*)::{lambda()#1}::operator()() const::{lambda()#22}, std::__ndk1::allocator<hook36<(anonymous namespace)::hook36Parent>::init(LevelEditorLayer*)::{lambda()#1}::operator()() const::{lambda()#22}>, void ()>::~__func()
PUBLIC 5a2b8 0 std::__ndk1::__function::__func<hook36<(anonymous namespace)::hook36Parent>::init(LevelEditorLayer*)::{lambda()#1}::operator()() const::{lambda()#22}, std::__ndk1::allocator<hook36<(anonymous namespace)::hook36Parent>::init(LevelEditorLayer*)::{lambda()#1}::operator()() const::{lambda()#22}>, void ()>::__clone() const
PUBLIC 5a2ec 0 std::__ndk1::__function::__func<hook36<(anonymous namespace)::hook36Parent>::init(LevelEditorLayer*)::{lambda()#1}::operator()() const::{lambda()#22}, std::__ndk1::allocator<hook36<(anonymous namespace)::hook36Parent>::init(LevelEditorLayer*)::{lambda()#1}::operator()() const::{lambda()#22}>, void ()>::__clone(std::__ndk1::__function::__base<void ()>*) const
PUBLIC 5a300 0 std::__ndk1::__function::__func<hook36<(anonymous namespace)::hook36Parent>::init(LevelEditorLayer*)::{lambda()#1}::operator()() const::{lambda()#22}, std::__ndk1::allocator<hook36<(anonymous namespace)::hook36Parent>::init(LevelEditorLayer*)::{lambda()#1}::operator()() const::{lambda()#22}>, void ()>::destroy()
PUBLIC 5a304 0 std::__ndk1::__function::__func<hook36<(anonymous namespace)::hook36Parent>::init(LevelEditorLayer*)::{lambda()#1}::operator()() const::{lambda()#22}, std::__ndk1::allocator<hook36<(anonymous namespace)::hook36Parent>::init(LevelEditorLayer*)::{lambda()#1}::operator()() const::{lambda()#22}>, void ()>::destroy_deallocate()
PUBLIC 5a308 0 std::__ndk1::__function::__func<hook36<(anonymous namespace)::hook36Parent>::init(LevelEditorLayer*)::{lambda()#1}::operator()() const::{lambda()#22}, std::__ndk1::allocator<hook36<(anonymous namespace)::hook36Parent>::init(LevelEditorLayer*)::{lambda()#1}::operator()() const::{lambda()#22}>, void ()>::operator()()
PUBLIC 5a354 0 std::__ndk1::__function::__func<hook36<(anonymous namespace)::hook36Parent>::init(LevelEditorLayer*)::{lambda()#1}::operator()() const::{lambda()#22}, std::__ndk1::allocator<hook36<(anonymous namespace)::hook36Parent>::init(LevelEditorLayer*)::{lambda()#1}::operator()() const::{lambda()#22}>, void ()>::target(std::type_info const&) const
PUBLIC 5a370 0 std::__ndk1::__function::__func<hook36<(anonymous namespace)::hook36Parent>::init(LevelEditorLayer*)::{lambda()#1}::operator()() const::{lambda()#22}, std::__ndk1::allocator<hook36<(anonymous namespace)::hook36Parent>::init(LevelEditorLayer*)::{lambda()#1}::operator()() const::{lambda()#22}>, void ()>::target_type() const
PUBLIC 5a37c 0 std::__ndk1::__function::__func<hook36<(anonymous namespace)::hook36Parent>::init(LevelEditorLayer*)::{lambda()#1}::operator()() const::{lambda()#23}, std::__ndk1::allocator<hook36<(anonymous namespace)::hook36Parent>::init(LevelEditorLayer*)::{lambda()#1}::operator()() const::{lambda()#23}>, void ()>::~__func()
PUBLIC 5a380 0 std::__ndk1::__function::__func<hook36<(anonymous namespace)::hook36Parent>::init(LevelEditorLayer*)::{lambda()#1}::operator()() const::{lambda()#23}, std::__ndk1::allocator<hook36<(anonymous namespace)::hook36Parent>::init(LevelEditorLayer*)::{lambda()#1}::operator()() const::{lambda()#23}>, void ()>::__clone() const
PUBLIC 5a3b4 0 std::__ndk1::__function::__func<hook36<(anonymous namespace)::hook36Parent>::init(LevelEditorLayer*)::{lambda()#1}::operator()() const::{lambda()#23}, std::__ndk1::allocator<hook36<(anonymous namespace)::hook36Parent>::init(LevelEditorLayer*)::{lambda()#1}::operator()() const::{lambda()#23}>, void ()>::__clone(std::__ndk1::__function::__base<void ()>*) const
PUBLIC 5a3c8 0 std::__ndk1::__function::__func<hook36<(anonymous namespace)::hook36Parent>::init(LevelEditorLayer*)::{lambda()#1}::operator()() const::{lambda()#23}, std::__ndk1::allocator<hook36<(anonymous namespace)::hook36Parent>::init(LevelEditorLayer*)::{lambda()#1}::operator()() const::{lambda()#23}>, void ()>::destroy()
PUBLIC 5a3cc 0 std::__ndk1::__function::__func<hook36<(anonymous namespace)::hook36Parent>::init(LevelEditorLayer*)::{lambda()#1}::operator()() const::{lambda()#23}, std::__ndk1::allocator<hook36<(anonymous namespace)::hook36Parent>::init(LevelEditorLayer*)::{lambda()#1}::operator()() const::{lambda()#23}>, void ()>::destroy_deallocate()
PUBLIC 5a3d0 0 std::__ndk1::__function::__func<hook36<(anonymous namespace)::hook36Parent>::init(LevelEditorLayer*)::{lambda()#1}::operator()() const::{lambda()#23}, std::__ndk1::allocator<hook36<(anonymous namespace)::hook36Parent>::init(LevelEditorLayer*)::{lambda()#1}::operator()() const::{lambda()#23}>, void ()>::operator()()
PUBLIC 5a40c 0 std::__ndk1::__function::__func<hook36<(anonymous namespace)::hook36Parent>::init(LevelEditorLayer*)::{lambda()#1}::operator()() const::{lambda()#23}, std::__ndk1::allocator<hook36<(anonymous namespace)::hook36Parent>::init(LevelEditorLayer*)::{lambda()#1}::operator()() const::{lambda()#23}>, void ()>::target(std::type_info const&) const
PUBLIC 5a428 0 std::__ndk1::__function::__func<hook36<(anonymous namespace)::hook36Parent>::init(LevelEditorLayer*)::{lambda()#1}::operator()() const::{lambda()#23}, std::__ndk1::allocator<hook36<(anonymous namespace)::hook36Parent>::init(LevelEditorLayer*)::{lambda()#1}::operator()() const::{lambda()#23}>, void ()>::target_type() const
PUBLIC 5a434 0 std::__ndk1::__function::__func<hook36<(anonymous namespace)::hook36Parent>::init(LevelEditorLayer*)::{lambda()#1}::operator()() const::{lambda()#24}, std::__ndk1::allocator<hook36<(anonymous namespace)::hook36Parent>::init(LevelEditorLayer*)::{lambda()#1}::operator()() const::{lambda()#24}>, void ()>::~__func()
PUBLIC 5a438 0 std::__ndk1::__function::__func<hook36<(anonymous namespace)::hook36Parent>::init(LevelEditorLayer*)::{lambda()#1}::operator()() const::{lambda()#24}, std::__ndk1::allocator<hook36<(anonymous namespace)::hook36Parent>::init(LevelEditorLayer*)::{lambda()#1}::operator()() const::{lambda()#24}>, void ()>::__clone() const
PUBLIC 5a46c 0 std::__ndk1::__function::__func<hook36<(anonymous namespace)::hook36Parent>::init(LevelEditorLayer*)::{lambda()#1}::operator()() const::{lambda()#24}, std::__ndk1::allocator<hook36<(anonymous namespace)::hook36Parent>::init(LevelEditorLayer*)::{lambda()#1}::operator()() const::{lambda()#24}>, void ()>::__clone(std::__ndk1::__function::__base<void ()>*) const
PUBLIC 5a480 0 std::__ndk1::__function::__func<hook36<(anonymous namespace)::hook36Parent>::init(LevelEditorLayer*)::{lambda()#1}::operator()() const::{lambda()#24}, std::__ndk1::allocator<hook36<(anonymous namespace)::hook36Parent>::init(LevelEditorLayer*)::{lambda()#1}::operator()() const::{lambda()#24}>, void ()>::destroy()
PUBLIC 5a484 0 std::__ndk1::__function::__func<hook36<(anonymous namespace)::hook36Parent>::init(LevelEditorLayer*)::{lambda()#1}::operator()() const::{lambda()#24}, std::__ndk1::allocator<hook36<(anonymous namespace)::hook36Parent>::init(LevelEditorLayer*)::{lambda()#1}::operator()() const::{lambda()#24}>, void ()>::destroy_deallocate()
PUBLIC 5a488 0 std::__ndk1::__function::__func<hook36<(anonymous namespace)::hook36Parent>::init(LevelEditorLayer*)::{lambda()#1}::operator()() const::{lambda()#24}, std::__ndk1::allocator<hook36<(anonymous namespace)::hook36Parent>::init(LevelEditorLayer*)::{lambda()#1}::operator()() const::{lambda()#24}>, void ()>::operator()()
PUBLIC 5a4e0 0 std::__ndk1::__function::__func<hook36<(anonymous namespace)::hook36Parent>::init(LevelEditorLayer*)::{lambda()#1}::operator()() const::{lambda()#24}, std::__ndk1::allocator<hook36<(anonymous namespace)::hook36Parent>::init(LevelEditorLayer*)::{lambda()#1}::operator()() const::{lambda()#24}>, void ()>::target(std::type_info const&) const
PUBLIC 5a4fc 0 std::__ndk1::__function::__func<hook36<(anonymous namespace)::hook36Parent>::init(LevelEditorLayer*)::{lambda()#1}::operator()() const::{lambda()#24}, std::__ndk1::allocator<hook36<(anonymous namespace)::hook36Parent>::init(LevelEditorLayer*)::{lambda()#1}::operator()() const::{lambda()#24}>, void ()>::target_type() const
PUBLIC 5a508 0 std::__ndk1::__function::__func<hook36<(anonymous namespace)::hook36Parent>::init(LevelEditorLayer*)::{lambda()#1}::operator()() const::{lambda()#25}, std::__ndk1::allocator<hook36<(anonymous namespace)::hook36Parent>::init(LevelEditorLayer*)::{lambda()#1}::operator()() const::{lambda()#25}>, void ()>::~__func()
PUBLIC 5a50c 0 std::__ndk1::__function::__func<hook36<(anonymous namespace)::hook36Parent>::init(LevelEditorLayer*)::{lambda()#1}::operator()() const::{lambda()#25}, std::__ndk1::allocator<hook36<(anonymous namespace)::hook36Parent>::init(LevelEditorLayer*)::{lambda()#1}::operator()() const::{lambda()#25}>, void ()>::__clone() const
PUBLIC 5a540 0 std::__ndk1::__function::__func<hook36<(anonymous namespace)::hook36Parent>::init(LevelEditorLayer*)::{lambda()#1}::operator()() const::{lambda()#25}, std::__ndk1::allocator<hook36<(anonymous namespace)::hook36Parent>::init(LevelEditorLayer*)::{lambda()#1}::operator()() const::{lambda()#25}>, void ()>::__clone(std::__ndk1::__function::__base<void ()>*) const
PUBLIC 5a554 0 std::__ndk1::__function::__func<hook36<(anonymous namespace)::hook36Parent>::init(LevelEditorLayer*)::{lambda()#1}::operator()() const::{lambda()#25}, std::__ndk1::allocator<hook36<(anonymous namespace)::hook36Parent>::init(LevelEditorLayer*)::{lambda()#1}::operator()() const::{lambda()#25}>, void ()>::destroy()
PUBLIC 5a558 0 std::__ndk1::__function::__func<hook36<(anonymous namespace)::hook36Parent>::init(LevelEditorLayer*)::{lambda()#1}::operator()() const::{lambda()#25}, std::__ndk1::allocator<hook36<(anonymous namespace)::hook36Parent>::init(LevelEditorLayer*)::{lambda()#1}::operator()() const::{lambda()#25}>, void ()>::destroy_deallocate()
PUBLIC 5a55c 0 std::__ndk1::__function::__func<hook36<(anonymous namespace)::hook36Parent>::init(LevelEditorLayer*)::{lambda()#1}::operator()() const::{lambda()#25}, std::__ndk1::allocator<hook36<(anonymous namespace)::hook36Parent>::init(LevelEditorLayer*)::{lambda()#1}::operator()() const::{lambda()#25}>, void ()>::operator()()
PUBLIC 5a5b4 0 std::__ndk1::__function::__func<hook36<(anonymous namespace)::hook36Parent>::init(LevelEditorLayer*)::{lambda()#1}::operator()() const::{lambda()#25}, std::__ndk1::allocator<hook36<(anonymous namespace)::hook36Parent>::init(LevelEditorLayer*)::{lambda()#1}::operator()() const::{lambda()#25}>, void ()>::target(std::type_info const&) const
PUBLIC 5a5d0 0 std::__ndk1::__function::__func<hook36<(anonymous namespace)::hook36Parent>::init(LevelEditorLayer*)::{lambda()#1}::operator()() const::{lambda()#25}, std::__ndk1::allocator<hook36<(anonymous namespace)::hook36Parent>::init(LevelEditorLayer*)::{lambda()#1}::operator()() const::{lambda()#25}>, void ()>::target_type() const
PUBLIC 5a5dc 0 std::__ndk1::__function::__func<hook36<(anonymous namespace)::hook36Parent>::init(LevelEditorLayer*)::{lambda()#1}::operator()() const::{lambda()#26}, std::__ndk1::allocator<hook36<(anonymous namespace)::hook36Parent>::init(LevelEditorLayer*)::{lambda()#1}::operator()() const::{lambda()#26}>, void ()>::~__func()
PUBLIC 5a5e0 0 std::__ndk1::__function::__func<hook36<(anonymous namespace)::hook36Parent>::init(LevelEditorLayer*)::{lambda()#1}::operator()() const::{lambda()#26}, std::__ndk1::allocator<hook36<(anonymous namespace)::hook36Parent>::init(LevelEditorLayer*)::{lambda()#1}::operator()() const::{lambda()#26}>, void ()>::__clone() const
PUBLIC 5a614 0 std::__ndk1::__function::__func<hook36<(anonymous namespace)::hook36Parent>::init(LevelEditorLayer*)::{lambda()#1}::operator()() const::{lambda()#26}, std::__ndk1::allocator<hook36<(anonymous namespace)::hook36Parent>::init(LevelEditorLayer*)::{lambda()#1}::operator()() const::{lambda()#26}>, void ()>::__clone(std::__ndk1::__function::__base<void ()>*) const
PUBLIC 5a628 0 std::__ndk1::__function::__func<hook36<(anonymous namespace)::hook36Parent>::init(LevelEditorLayer*)::{lambda()#1}::operator()() const::{lambda()#26}, std::__ndk1::allocator<hook36<(anonymous namespace)::hook36Parent>::init(LevelEditorLayer*)::{lambda()#1}::operator()() const::{lambda()#26}>, void ()>::destroy()
PUBLIC 5a62c 0 std::__ndk1::__function::__func<hook36<(anonymous namespace)::hook36Parent>::init(LevelEditorLayer*)::{lambda()#1}::operator()() const::{lambda()#26}, std::__ndk1::allocator<hook36<(anonymous namespace)::hook36Parent>::init(LevelEditorLayer*)::{lambda()#1}::operator()() const::{lambda()#26}>, void ()>::destroy_deallocate()
PUBLIC 5a630 0 std::__ndk1::__function::__func<hook36<(anonymous namespace)::hook36Parent>::init(LevelEditorLayer*)::{lambda()#1}::operator()() const::{lambda()#26}, std::__ndk1::allocator<hook36<(anonymous namespace)::hook36Parent>::init(LevelEditorLayer*)::{lambda()#1}::operator()() const::{lambda()#26}>, void ()>::operator()()
PUBLIC 5a688 0 std::__ndk1::__function::__func<hook36<(anonymous namespace)::hook36Parent>::init(LevelEditorLayer*)::{lambda()#1}::operator()() const::{lambda()#26}, std::__ndk1::allocator<hook36<(anonymous namespace)::hook36Parent>::init(LevelEditorLayer*)::{lambda()#1}::operator()() const::{lambda()#26}>, void ()>::target(std::type_info const&) const
PUBLIC 5a6a4 0 std::__ndk1::__function::__func<hook36<(anonymous namespace)::hook36Parent>::init(LevelEditorLayer*)::{lambda()#1}::operator()() const::{lambda()#26}, std::__ndk1::allocator<hook36<(anonymous namespace)::hook36Parent>::init(LevelEditorLayer*)::{lambda()#1}::operator()() const::{lambda()#26}>, void ()>::target_type() const
PUBLIC 5a6b0 0 std::__ndk1::__function::__func<hook36<(anonymous namespace)::hook36Parent>::init(LevelEditorLayer*)::{lambda()#1}::operator()() const::{lambda()#27}, std::__ndk1::allocator<hook36<(anonymous namespace)::hook36Parent>::init(LevelEditorLayer*)::{lambda()#1}::operator()() const::{lambda()#27}>, void ()>::~__func()
PUBLIC 5a6b4 0 std::__ndk1::__function::__func<hook36<(anonymous namespace)::hook36Parent>::init(LevelEditorLayer*)::{lambda()#1}::operator()() const::{lambda()#27}, std::__ndk1::allocator<hook36<(anonymous namespace)::hook36Parent>::init(LevelEditorLayer*)::{lambda()#1}::operator()() const::{lambda()#27}>, void ()>::__clone() const
PUBLIC 5a6e8 0 std::__ndk1::__function::__func<hook36<(anonymous namespace)::hook36Parent>::init(LevelEditorLayer*)::{lambda()#1}::operator()() const::{lambda()#27}, std::__ndk1::allocator<hook36<(anonymous namespace)::hook36Parent>::init(LevelEditorLayer*)::{lambda()#1}::operator()() const::{lambda()#27}>, void ()>::__clone(std::__ndk1::__function::__base<void ()>*) const
PUBLIC 5a6fc 0 std::__ndk1::__function::__func<hook36<(anonymous namespace)::hook36Parent>::init(LevelEditorLayer*)::{lambda()#1}::operator()() const::{lambda()#27}, std::__ndk1::allocator<hook36<(anonymous namespace)::hook36Parent>::init(LevelEditorLayer*)::{lambda()#1}::operator()() const::{lambda()#27}>, void ()>::destroy()
PUBLIC 5a700 0 std::__ndk1::__function::__func<hook36<(anonymous namespace)::hook36Parent>::init(LevelEditorLayer*)::{lambda()#1}::operator()() const::{lambda()#27}, std::__ndk1::allocator<hook36<(anonymous namespace)::hook36Parent>::init(LevelEditorLayer*)::{lambda()#1}::operator()() const::{lambda()#27}>, void ()>::destroy_deallocate()
PUBLIC 5a704 0 std::__ndk1::__function::__func<hook36<(anonymous namespace)::hook36Parent>::init(LevelEditorLayer*)::{lambda()#1}::operator()() const::{lambda()#27}, std::__ndk1::allocator<hook36<(anonymous namespace)::hook36Parent>::init(LevelEditorLayer*)::{lambda()#1}::operator()() const::{lambda()#27}>, void ()>::operator()()
PUBLIC 5a75c 0 std::__ndk1::__function::__func<hook36<(anonymous namespace)::hook36Parent>::init(LevelEditorLayer*)::{lambda()#1}::operator()() const::{lambda()#27}, std::__ndk1::allocator<hook36<(anonymous namespace)::hook36Parent>::init(LevelEditorLayer*)::{lambda()#1}::operator()() const::{lambda()#27}>, void ()>::target(std::type_info const&) const
PUBLIC 5a778 0 std::__ndk1::__function::__func<hook36<(anonymous namespace)::hook36Parent>::init(LevelEditorLayer*)::{lambda()#1}::operator()() const::{lambda()#27}, std::__ndk1::allocator<hook36<(anonymous namespace)::hook36Parent>::init(LevelEditorLayer*)::{lambda()#1}::operator()() const::{lambda()#27}>, void ()>::target_type() const
PUBLIC 5a784 0 std::__ndk1::__function::__func<hook36<(anonymous namespace)::hook36Parent>::init(LevelEditorLayer*)::{lambda()#1}::operator()() const::{lambda()#28}, std::__ndk1::allocator<hook36<(anonymous namespace)::hook36Parent>::init(LevelEditorLayer*)::{lambda()#1}::operator()() const::{lambda()#28}>, void ()>::~__func()
PUBLIC 5a788 0 std::__ndk1::__function::__func<hook36<(anonymous namespace)::hook36Parent>::init(LevelEditorLayer*)::{lambda()#1}::operator()() const::{lambda()#28}, std::__ndk1::allocator<hook36<(anonymous namespace)::hook36Parent>::init(LevelEditorLayer*)::{lambda()#1}::operator()() const::{lambda()#28}>, void ()>::__clone() const
PUBLIC 5a7bc 0 std::__ndk1::__function::__func<hook36<(anonymous namespace)::hook36Parent>::init(LevelEditorLayer*)::{lambda()#1}::operator()() const::{lambda()#28}, std::__ndk1::allocator<hook36<(anonymous namespace)::hook36Parent>::init(LevelEditorLayer*)::{lambda()#1}::operator()() const::{lambda()#28}>, void ()>::__clone(std::__ndk1::__function::__base<void ()>*) const
PUBLIC 5a7d0 0 std::__ndk1::__function::__func<hook36<(anonymous namespace)::hook36Parent>::init(LevelEditorLayer*)::{lambda()#1}::operator()() const::{lambda()#28}, std::__ndk1::allocator<hook36<(anonymous namespace)::hook36Parent>::init(LevelEditorLayer*)::{lambda()#1}::operator()() const::{lambda()#28}>, void ()>::destroy()
PUBLIC 5a7d4 0 std::__ndk1::__function::__func<hook36<(anonymous namespace)::hook36Parent>::init(LevelEditorLayer*)::{lambda()#1}::operator()() const::{lambda()#28}, std::__ndk1::allocator<hook36<(anonymous namespace)::hook36Parent>::init(LevelEditorLayer*)::{lambda()#1}::operator()() const::{lambda()#28}>, void ()>::destroy_deallocate()
PUBLIC 5a7d8 0 std::__ndk1::__function::__func<hook36<(anonymous namespace)::hook36Parent>::init(LevelEditorLayer*)::{lambda()#1}::operator()() const::{lambda()#28}, std::__ndk1::allocator<hook36<(anonymous namespace)::hook36Parent>::init(LevelEditorLayer*)::{lambda()#1}::operator()() const::{lambda()#28}>, void ()>::operator()()
PUBLIC 5a7e4 0 std::__ndk1::__function::__func<hook36<(anonymous namespace)::hook36Parent>::init(LevelEditorLayer*)::{lambda()#1}::operator()() const::{lambda()#28}, std::__ndk1::allocator<hook36<(anonymous namespace)::hook36Parent>::init(LevelEditorLayer*)::{lambda()#1}::operator()() const::{lambda()#28}>, void ()>::target(std::type_info const&) const
PUBLIC 5a800 0 std::__ndk1::__function::__func<hook36<(anonymous namespace)::hook36Parent>::init(LevelEditorLayer*)::{lambda()#1}::operator()() const::{lambda()#28}, std::__ndk1::allocator<hook36<(anonymous namespace)::hook36Parent>::init(LevelEditorLayer*)::{lambda()#1}::operator()() const::{lambda()#28}>, void ()>::target_type() const
PUBLIC 5a80c 0 std::__ndk1::__function::__func<hook36<(anonymous namespace)::hook36Parent>::init(LevelEditorLayer*)::{lambda()#1}::operator()() const::{lambda()#29}, std::__ndk1::allocator<hook36<(anonymous namespace)::hook36Parent>::init(LevelEditorLayer*)::{lambda()#1}::operator()() const::{lambda()#29}>, void ()>::~__func()
PUBLIC 5a810 0 std::__ndk1::__function::__func<hook36<(anonymous namespace)::hook36Parent>::init(LevelEditorLayer*)::{lambda()#1}::operator()() const::{lambda()#29}, std::__ndk1::allocator<hook36<(anonymous namespace)::hook36Parent>::init(LevelEditorLayer*)::{lambda()#1}::operator()() const::{lambda()#29}>, void ()>::__clone() const
PUBLIC 5a844 0 std::__ndk1::__function::__func<hook36<(anonymous namespace)::hook36Parent>::init(LevelEditorLayer*)::{lambda()#1}::operator()() const::{lambda()#29}, std::__ndk1::allocator<hook36<(anonymous namespace)::hook36Parent>::init(LevelEditorLayer*)::{lambda()#1}::operator()() const::{lambda()#29}>, void ()>::__clone(std::__ndk1::__function::__base<void ()>*) const
PUBLIC 5a858 0 std::__ndk1::__function::__func<hook36<(anonymous namespace)::hook36Parent>::init(LevelEditorLayer*)::{lambda()#1}::operator()() const::{lambda()#29}, std::__ndk1::allocator<hook36<(anonymous namespace)::hook36Parent>::init(LevelEditorLayer*)::{lambda()#1}::operator()() const::{lambda()#29}>, void ()>::destroy()
PUBLIC 5a85c 0 std::__ndk1::__function::__func<hook36<(anonymous namespace)::hook36Parent>::init(LevelEditorLayer*)::{lambda()#1}::operator()() const::{lambda()#29}, std::__ndk1::allocator<hook36<(anonymous namespace)::hook36Parent>::init(LevelEditorLayer*)::{lambda()#1}::operator()() const::{lambda()#29}>, void ()>::destroy_deallocate()
PUBLIC 5a860 0 std::__ndk1::__function::__func<hook36<(anonymous namespace)::hook36Parent>::init(LevelEditorLayer*)::{lambda()#1}::operator()() const::{lambda()#29}, std::__ndk1::allocator<hook36<(anonymous namespace)::hook36Parent>::init(LevelEditorLayer*)::{lambda()#1}::operator()() const::{lambda()#29}>, void ()>::operator()()
PUBLIC 5a86c 0 std::__ndk1::__function::__func<hook36<(anonymous namespace)::hook36Parent>::init(LevelEditorLayer*)::{lambda()#1}::operator()() const::{lambda()#29}, std::__ndk1::allocator<hook36<(anonymous namespace)::hook36Parent>::init(LevelEditorLayer*)::{lambda()#1}::operator()() const::{lambda()#29}>, void ()>::target(std::type_info const&) const
PUBLIC 5a888 0 std::__ndk1::__function::__func<hook36<(anonymous namespace)::hook36Parent>::init(LevelEditorLayer*)::{lambda()#1}::operator()() const::{lambda()#29}, std::__ndk1::allocator<hook36<(anonymous namespace)::hook36Parent>::init(LevelEditorLayer*)::{lambda()#1}::operator()() const::{lambda()#29}>, void ()>::target_type() const
PUBLIC 5a894 0 std::__ndk1::__function::__func<hook36<(anonymous namespace)::hook36Parent>::init(LevelEditorLayer*)::{lambda()#1}::operator()() const::{lambda()#30}, std::__ndk1::allocator<hook36<(anonymous namespace)::hook36Parent>::init(LevelEditorLayer*)::{lambda()#1}::operator()() const::{lambda()#30}>, void ()>::~__func()
PUBLIC 5a898 0 std::__ndk1::__function::__func<hook36<(anonymous namespace)::hook36Parent>::init(LevelEditorLayer*)::{lambda()#1}::operator()() const::{lambda()#30}, std::__ndk1::allocator<hook36<(anonymous namespace)::hook36Parent>::init(LevelEditorLayer*)::{lambda()#1}::operator()() const::{lambda()#30}>, void ()>::__clone() const
PUBLIC 5a8cc 0 std::__ndk1::__function::__func<hook36<(anonymous namespace)::hook36Parent>::init(LevelEditorLayer*)::{lambda()#1}::operator()() const::{lambda()#30}, std::__ndk1::allocator<hook36<(anonymous namespace)::hook36Parent>::init(LevelEditorLayer*)::{lambda()#1}::operator()() const::{lambda()#30}>, void ()>::__clone(std::__ndk1::__function::__base<void ()>*) const
PUBLIC 5a8e0 0 std::__ndk1::__function::__func<hook36<(anonymous namespace)::hook36Parent>::init(LevelEditorLayer*)::{lambda()#1}::operator()() const::{lambda()#30}, std::__ndk1::allocator<hook36<(anonymous namespace)::hook36Parent>::init(LevelEditorLayer*)::{lambda()#1}::operator()() const::{lambda()#30}>, void ()>::destroy()
PUBLIC 5a8e4 0 std::__ndk1::__function::__func<hook36<(anonymous namespace)::hook36Parent>::init(LevelEditorLayer*)::{lambda()#1}::operator()() const::{lambda()#30}, std::__ndk1::allocator<hook36<(anonymous namespace)::hook36Parent>::init(LevelEditorLayer*)::{lambda()#1}::operator()() const::{lambda()#30}>, void ()>::destroy_deallocate()
PUBLIC 5a8e8 0 std::__ndk1::__function::__func<hook36<(anonymous namespace)::hook36Parent>::init(LevelEditorLayer*)::{lambda()#1}::operator()() const::{lambda()#30}, std::__ndk1::allocator<hook36<(anonymous namespace)::hook36Parent>::init(LevelEditorLayer*)::{lambda()#1}::operator()() const::{lambda()#30}>, void ()>::operator()()
PUBLIC 5a940 0 std::__ndk1::__function::__func<hook36<(anonymous namespace)::hook36Parent>::init(LevelEditorLayer*)::{lambda()#1}::operator()() const::{lambda()#30}, std::__ndk1::allocator<hook36<(anonymous namespace)::hook36Parent>::init(LevelEditorLayer*)::{lambda()#1}::operator()() const::{lambda()#30}>, void ()>::target(std::type_info const&) const
PUBLIC 5a95c 0 std::__ndk1::__function::__func<hook36<(anonymous namespace)::hook36Parent>::init(LevelEditorLayer*)::{lambda()#1}::operator()() const::{lambda()#30}, std::__ndk1::allocator<hook36<(anonymous namespace)::hook36Parent>::init(LevelEditorLayer*)::{lambda()#1}::operator()() const::{lambda()#30}>, void ()>::target_type() const
PUBLIC 5a968 0 std::__ndk1::__function::__func<hook36<(anonymous namespace)::hook36Parent>::init(LevelEditorLayer*)::{lambda()#1}::operator()() const::{lambda()#31}, std::__ndk1::allocator<hook36<(anonymous namespace)::hook36Parent>::init(LevelEditorLayer*)::{lambda()#1}::operator()() const::{lambda()#31}>, void ()>::~__func()
PUBLIC 5a96c 0 std::__ndk1::__function::__func<hook36<(anonymous namespace)::hook36Parent>::init(LevelEditorLayer*)::{lambda()#1}::operator()() const::{lambda()#31}, std::__ndk1::allocator<hook36<(anonymous namespace)::hook36Parent>::init(LevelEditorLayer*)::{lambda()#1}::operator()() const::{lambda()#31}>, void ()>::__clone() const
PUBLIC 5a9a0 0 std::__ndk1::__function::__func<hook36<(anonymous namespace)::hook36Parent>::init(LevelEditorLayer*)::{lambda()#1}::operator()() const::{lambda()#31}, std::__ndk1::allocator<hook36<(anonymous namespace)::hook36Parent>::init(LevelEditorLayer*)::{lambda()#1}::operator()() const::{lambda()#31}>, void ()>::__clone(std::__ndk1::__function::__base<void ()>*) const
PUBLIC 5a9b4 0 std::__ndk1::__function::__func<hook36<(anonymous namespace)::hook36Parent>::init(LevelEditorLayer*)::{lambda()#1}::operator()() const::{lambda()#31}, std::__ndk1::allocator<hook36<(anonymous namespace)::hook36Parent>::init(LevelEditorLayer*)::{lambda()#1}::operator()() const::{lambda()#31}>, void ()>::destroy()
PUBLIC 5a9b8 0 std::__ndk1::__function::__func<hook36<(anonymous namespace)::hook36Parent>::init(LevelEditorLayer*)::{lambda()#1}::operator()() const::{lambda()#31}, std::__ndk1::allocator<hook36<(anonymous namespace)::hook36Parent>::init(LevelEditorLayer*)::{lambda()#1}::operator()() const::{lambda()#31}>, void ()>::destroy_deallocate()
PUBLIC 5a9bc 0 std::__ndk1::__function::__func<hook36<(anonymous namespace)::hook36Parent>::init(LevelEditorLayer*)::{lambda()#1}::operator()() const::{lambda()#31}, std::__ndk1::allocator<hook36<(anonymous namespace)::hook36Parent>::init(LevelEditorLayer*)::{lambda()#1}::operator()() const::{lambda()#31}>, void ()>::operator()()
PUBLIC 5aa14 0 std::__ndk1::__function::__func<hook36<(anonymous namespace)::hook36Parent>::init(LevelEditorLayer*)::{lambda()#1}::operator()() const::{lambda()#31}, std::__ndk1::allocator<hook36<(anonymous namespace)::hook36Parent>::init(LevelEditorLayer*)::{lambda()#1}::operator()() const::{lambda()#31}>, void ()>::target(std::type_info const&) const
PUBLIC 5aa30 0 std::__ndk1::__function::__func<hook36<(anonymous namespace)::hook36Parent>::init(LevelEditorLayer*)::{lambda()#1}::operator()() const::{lambda()#31}, std::__ndk1::allocator<hook36<(anonymous namespace)::hook36Parent>::init(LevelEditorLayer*)::{lambda()#1}::operator()() const::{lambda()#31}>, void ()>::target_type() const
PUBLIC 5aa3c 0 std::__ndk1::__function::__func<hook36<(anonymous namespace)::hook36Parent>::init(LevelEditorLayer*)::{lambda()#1}::operator()() const::{lambda()#32}, std::__ndk1::allocator<hook36<(anonymous namespace)::hook36Parent>::init(LevelEditorLayer*)::{lambda()#1}::operator()() const::{lambda()#32}>, void ()>::~__func()
PUBLIC 5aa40 0 std::__ndk1::__function::__func<hook36<(anonymous namespace)::hook36Parent>::init(LevelEditorLayer*)::{lambda()#1}::operator()() const::{lambda()#32}, std::__ndk1::allocator<hook36<(anonymous namespace)::hook36Parent>::init(LevelEditorLayer*)::{lambda()#1}::operator()() const::{lambda()#32}>, void ()>::__clone() const
PUBLIC 5aa74 0 std::__ndk1::__function::__func<hook36<(anonymous namespace)::hook36Parent>::init(LevelEditorLayer*)::{lambda()#1}::operator()() const::{lambda()#32}, std::__ndk1::allocator<hook36<(anonymous namespace)::hook36Parent>::init(LevelEditorLayer*)::{lambda()#1}::operator()() const::{lambda()#32}>, void ()>::__clone(std::__ndk1::__function::__base<void ()>*) const
PUBLIC 5aa88 0 std::__ndk1::__function::__func<hook36<(anonymous namespace)::hook36Parent>::init(LevelEditorLayer*)::{lambda()#1}::operator()() const::{lambda()#32}, std::__ndk1::allocator<hook36<(anonymous namespace)::hook36Parent>::init(LevelEditorLayer*)::{lambda()#1}::operator()() const::{lambda()#32}>, void ()>::destroy()
PUBLIC 5aa8c 0 std::__ndk1::__function::__func<hook36<(anonymous namespace)::hook36Parent>::init(LevelEditorLayer*)::{lambda()#1}::operator()() const::{lambda()#32}, std::__ndk1::allocator<hook36<(anonymous namespace)::hook36Parent>::init(LevelEditorLayer*)::{lambda()#1}::operator()() const::{lambda()#32}>, void ()>::destroy_deallocate()
PUBLIC 5aa90 0 std::__ndk1::__function::__func<hook36<(anonymous namespace)::hook36Parent>::init(LevelEditorLayer*)::{lambda()#1}::operator()() const::{lambda()#32}, std::__ndk1::allocator<hook36<(anonymous namespace)::hook36Parent>::init(LevelEditorLayer*)::{lambda()#1}::operator()() const::{lambda()#32}>, void ()>::operator()()
PUBLIC 5aae8 0 std::__ndk1::__function::__func<hook36<(anonymous namespace)::hook36Parent>::init(LevelEditorLayer*)::{lambda()#1}::operator()() const::{lambda()#32}, std::__ndk1::allocator<hook36<(anonymous namespace)::hook36Parent>::init(LevelEditorLayer*)::{lambda()#1}::operator()() const::{lambda()#32}>, void ()>::target(std::type_info const&) const
PUBLIC 5ab04 0 std::__ndk1::__function::__func<hook36<(anonymous namespace)::hook36Parent>::init(LevelEditorLayer*)::{lambda()#1}::operator()() const::{lambda()#32}, std::__ndk1::allocator<hook36<(anonymous namespace)::hook36Parent>::init(LevelEditorLayer*)::{lambda()#1}::operator()() const::{lambda()#32}>, void ()>::target_type() const
PUBLIC 5ab10 0 std::__ndk1::__function::__func<hook36<(anonymous namespace)::hook36Parent>::init(LevelEditorLayer*)::{lambda()#1}::operator()() const::{lambda()#33}, std::__ndk1::allocator<hook36<(anonymous namespace)::hook36Parent>::init(LevelEditorLayer*)::{lambda()#1}::operator()() const::{lambda()#33}>, void ()>::~__func()
PUBLIC 5ab14 0 std::__ndk1::__function::__func<hook36<(anonymous namespace)::hook36Parent>::init(LevelEditorLayer*)::{lambda()#1}::operator()() const::{lambda()#33}, std::__ndk1::allocator<hook36<(anonymous namespace)::hook36Parent>::init(LevelEditorLayer*)::{lambda()#1}::operator()() const::{lambda()#33}>, void ()>::__clone() const
PUBLIC 5ab48 0 std::__ndk1::__function::__func<hook36<(anonymous namespace)::hook36Parent>::init(LevelEditorLayer*)::{lambda()#1}::operator()() const::{lambda()#33}, std::__ndk1::allocator<hook36<(anonymous namespace)::hook36Parent>::init(LevelEditorLayer*)::{lambda()#1}::operator()() const::{lambda()#33}>, void ()>::__clone(std::__ndk1::__function::__base<void ()>*) const
PUBLIC 5ab5c 0 std::__ndk1::__function::__func<hook36<(anonymous namespace)::hook36Parent>::init(LevelEditorLayer*)::{lambda()#1}::operator()() const::{lambda()#33}, std::__ndk1::allocator<hook36<(anonymous namespace)::hook36Parent>::init(LevelEditorLayer*)::{lambda()#1}::operator()() const::{lambda()#33}>, void ()>::destroy()
PUBLIC 5ab60 0 std::__ndk1::__function::__func<hook36<(anonymous namespace)::hook36Parent>::init(LevelEditorLayer*)::{lambda()#1}::operator()() const::{lambda()#33}, std::__ndk1::allocator<hook36<(anonymous namespace)::hook36Parent>::init(LevelEditorLayer*)::{lambda()#1}::operator()() const::{lambda()#33}>, void ()>::destroy_deallocate()
PUBLIC 5ab64 0 std::__ndk1::__function::__func<hook36<(anonymous namespace)::hook36Parent>::init(LevelEditorLayer*)::{lambda()#1}::operator()() const::{lambda()#33}, std::__ndk1::allocator<hook36<(anonymous namespace)::hook36Parent>::init(LevelEditorLayer*)::{lambda()#1}::operator()() const::{lambda()#33}>, void ()>::operator()()
PUBLIC 5abbc 0 std::__ndk1::__function::__func<hook36<(anonymous namespace)::hook36Parent>::init(LevelEditorLayer*)::{lambda()#1}::operator()() const::{lambda()#33}, std::__ndk1::allocator<hook36<(anonymous namespace)::hook36Parent>::init(LevelEditorLayer*)::{lambda()#1}::operator()() const::{lambda()#33}>, void ()>::target(std::type_info const&) const
PUBLIC 5abd8 0 std::__ndk1::__function::__func<hook36<(anonymous namespace)::hook36Parent>::init(LevelEditorLayer*)::{lambda()#1}::operator()() const::{lambda()#33}, std::__ndk1::allocator<hook36<(anonymous namespace)::hook36Parent>::init(LevelEditorLayer*)::{lambda()#1}::operator()() const::{lambda()#33}>, void ()>::target_type() const
PUBLIC 5abe4 0 std::__ndk1::__function::__func<hook36<(anonymous namespace)::hook36Parent>::init(LevelEditorLayer*)::{lambda()#1}::operator()() const::{lambda()#34}, std::__ndk1::allocator<hook36<(anonymous namespace)::hook36Parent>::init(LevelEditorLayer*)::{lambda()#1}::operator()() const::{lambda()#34}>, void ()>::~__func()
PUBLIC 5abe8 0 std::__ndk1::__function::__func<hook36<(anonymous namespace)::hook36Parent>::init(LevelEditorLayer*)::{lambda()#1}::operator()() const::{lambda()#34}, std::__ndk1::allocator<hook36<(anonymous namespace)::hook36Parent>::init(LevelEditorLayer*)::{lambda()#1}::operator()() const::{lambda()#34}>, void ()>::__clone() const
PUBLIC 5ac1c 0 std::__ndk1::__function::__func<hook36<(anonymous namespace)::hook36Parent>::init(LevelEditorLayer*)::{lambda()#1}::operator()() const::{lambda()#34}, std::__ndk1::allocator<hook36<(anonymous namespace)::hook36Parent>::init(LevelEditorLayer*)::{lambda()#1}::operator()() const::{lambda()#34}>, void ()>::__clone(std::__ndk1::__function::__base<void ()>*) const
PUBLIC 5ac30 0 std::__ndk1::__function::__func<hook36<(anonymous namespace)::hook36Parent>::init(LevelEditorLayer*)::{lambda()#1}::operator()() const::{lambda()#34}, std::__ndk1::allocator<hook36<(anonymous namespace)::hook36Parent>::init(LevelEditorLayer*)::{lambda()#1}::operator()() const::{lambda()#34}>, void ()>::destroy()
PUBLIC 5ac34 0 std::__ndk1::__function::__func<hook36<(anonymous namespace)::hook36Parent>::init(LevelEditorLayer*)::{lambda()#1}::operator()() const::{lambda()#34}, std::__ndk1::allocator<hook36<(anonymous namespace)::hook36Parent>::init(LevelEditorLayer*)::{lambda()#1}::operator()() const::{lambda()#34}>, void ()>::destroy_deallocate()
PUBLIC 5ac38 0 std::__ndk1::__function::__func<hook36<(anonymous namespace)::hook36Parent>::init(LevelEditorLayer*)::{lambda()#1}::operator()() const::{lambda()#34}, std::__ndk1::allocator<hook36<(anonymous namespace)::hook36Parent>::init(LevelEditorLayer*)::{lambda()#1}::operator()() const::{lambda()#34}>, void ()>::operator()()
PUBLIC 5ac94 0 std::__ndk1::__function::__func<hook36<(anonymous namespace)::hook36Parent>::init(LevelEditorLayer*)::{lambda()#1}::operator()() const::{lambda()#34}, std::__ndk1::allocator<hook36<(anonymous namespace)::hook36Parent>::init(LevelEditorLayer*)::{lambda()#1}::operator()() const::{lambda()#34}>, void ()>::target(std::type_info const&) const
PUBLIC 5acb0 0 std::__ndk1::__function::__func<hook36<(anonymous namespace)::hook36Parent>::init(LevelEditorLayer*)::{lambda()#1}::operator()() const::{lambda()#34}, std::__ndk1::allocator<hook36<(anonymous namespace)::hook36Parent>::init(LevelEditorLayer*)::{lambda()#1}::operator()() const::{lambda()#34}>, void ()>::target_type() const
PUBLIC 5acbc 0 std::__ndk1::__function::__func<hook36<(anonymous namespace)::hook36Parent>::init(LevelEditorLayer*)::{lambda()#1}::operator()() const::{lambda()#35}, std::__ndk1::allocator<hook36<(anonymous namespace)::hook36Parent>::init(LevelEditorLayer*)::{lambda()#1}::operator()() const::{lambda()#35}>, void ()>::~__func()
PUBLIC 5acc0 0 std::__ndk1::__function::__func<hook36<(anonymous namespace)::hook36Parent>::init(LevelEditorLayer*)::{lambda()#1}::operator()() const::{lambda()#35}, std::__ndk1::allocator<hook36<(anonymous namespace)::hook36Parent>::init(LevelEditorLayer*)::{lambda()#1}::operator()() const::{lambda()#35}>, void ()>::__clone() const
PUBLIC 5acf4 0 std::__ndk1::__function::__func<hook36<(anonymous namespace)::hook36Parent>::init(LevelEditorLayer*)::{lambda()#1}::operator()() const::{lambda()#35}, std::__ndk1::allocator<hook36<(anonymous namespace)::hook36Parent>::init(LevelEditorLayer*)::{lambda()#1}::operator()() const::{lambda()#35}>, void ()>::__clone(std::__ndk1::__function::__base<void ()>*) const
PUBLIC 5ad08 0 std::__ndk1::__function::__func<hook36<(anonymous namespace)::hook36Parent>::init(LevelEditorLayer*)::{lambda()#1}::operator()() const::{lambda()#35}, std::__ndk1::allocator<hook36<(anonymous namespace)::hook36Parent>::init(LevelEditorLayer*)::{lambda()#1}::operator()() const::{lambda()#35}>, void ()>::destroy()
PUBLIC 5ad0c 0 std::__ndk1::__function::__func<hook36<(anonymous namespace)::hook36Parent>::init(LevelEditorLayer*)::{lambda()#1}::operator()() const::{lambda()#35}, std::__ndk1::allocator<hook36<(anonymous namespace)::hook36Parent>::init(LevelEditorLayer*)::{lambda()#1}::operator()() const::{lambda()#35}>, void ()>::destroy_deallocate()
PUBLIC 5ad10 0 std::__ndk1::__function::__func<hook36<(anonymous namespace)::hook36Parent>::init(LevelEditorLayer*)::{lambda()#1}::operator()() const::{lambda()#35}, std::__ndk1::allocator<hook36<(anonymous namespace)::hook36Parent>::init(LevelEditorLayer*)::{lambda()#1}::operator()() const::{lambda()#35}>, void ()>::operator()()
PUBLIC 5ad6c 0 std::__ndk1::__function::__func<hook36<(anonymous namespace)::hook36Parent>::init(LevelEditorLayer*)::{lambda()#1}::operator()() const::{lambda()#35}, std::__ndk1::allocator<hook36<(anonymous namespace)::hook36Parent>::init(LevelEditorLayer*)::{lambda()#1}::operator()() const::{lambda()#35}>, void ()>::target(std::type_info const&) const
PUBLIC 5ad88 0 std::__ndk1::__function::__func<hook36<(anonymous namespace)::hook36Parent>::init(LevelEditorLayer*)::{lambda()#1}::operator()() const::{lambda()#35}, std::__ndk1::allocator<hook36<(anonymous namespace)::hook36Parent>::init(LevelEditorLayer*)::{lambda()#1}::operator()() const::{lambda()#35}>, void ()>::target_type() const
PUBLIC 5ad94 0 std::__ndk1::__function::__func<hook36<(anonymous namespace)::hook36Parent>::init(LevelEditorLayer*)::{lambda()#1}::operator()() const::{lambda()#36}, std::__ndk1::allocator<hook36<(anonymous namespace)::hook36Parent>::init(LevelEditorLayer*)::{lambda()#1}::operator()() const::{lambda()#36}>, void ()>::~__func()
PUBLIC 5ad98 0 std::__ndk1::__function::__func<hook36<(anonymous namespace)::hook36Parent>::init(LevelEditorLayer*)::{lambda()#1}::operator()() const::{lambda()#36}, std::__ndk1::allocator<hook36<(anonymous namespace)::hook36Parent>::init(LevelEditorLayer*)::{lambda()#1}::operator()() const::{lambda()#36}>, void ()>::__clone() const
PUBLIC 5adcc 0 std::__ndk1::__function::__func<hook36<(anonymous namespace)::hook36Parent>::init(LevelEditorLayer*)::{lambda()#1}::operator()() const::{lambda()#36}, std::__ndk1::allocator<hook36<(anonymous namespace)::hook36Parent>::init(LevelEditorLayer*)::{lambda()#1}::operator()() const::{lambda()#36}>, void ()>::__clone(std::__ndk1::__function::__base<void ()>*) const
PUBLIC 5ade0 0 std::__ndk1::__function::__func<hook36<(anonymous namespace)::hook36Parent>::init(LevelEditorLayer*)::{lambda()#1}::operator()() const::{lambda()#36}, std::__ndk1::allocator<hook36<(anonymous namespace)::hook36Parent>::init(LevelEditorLayer*)::{lambda()#1}::operator()() const::{lambda()#36}>, void ()>::destroy()
PUBLIC 5ade4 0 std::__ndk1::__function::__func<hook36<(anonymous namespace)::hook36Parent>::init(LevelEditorLayer*)::{lambda()#1}::operator()() const::{lambda()#36}, std::__ndk1::allocator<hook36<(anonymous namespace)::hook36Parent>::init(LevelEditorLayer*)::{lambda()#1}::operator()() const::{lambda()#36}>, void ()>::destroy_deallocate()
PUBLIC 5ade8 0 std::__ndk1::__function::__func<hook36<(anonymous namespace)::hook36Parent>::init(LevelEditorLayer*)::{lambda()#1}::operator()() const::{lambda()#36}, std::__ndk1::allocator<hook36<(anonymous namespace)::hook36Parent>::init(LevelEditorLayer*)::{lambda()#1}::operator()() const::{lambda()#36}>, void ()>::operator()()
PUBLIC 5ae44 0 std::__ndk1::__function::__func<hook36<(anonymous namespace)::hook36Parent>::init(LevelEditorLayer*)::{lambda()#1}::operator()() const::{lambda()#36}, std::__ndk1::allocator<hook36<(anonymous namespace)::hook36Parent>::init(LevelEditorLayer*)::{lambda()#1}::operator()() const::{lambda()#36}>, void ()>::target(std::type_info const&) const
PUBLIC 5ae60 0 std::__ndk1::__function::__func<hook36<(anonymous namespace)::hook36Parent>::init(LevelEditorLayer*)::{lambda()#1}::operator()() const::{lambda()#36}, std::__ndk1::allocator<hook36<(anonymous namespace)::hook36Parent>::init(LevelEditorLayer*)::{lambda()#1}::operator()() const::{lambda()#36}>, void ()>::target_type() const
PUBLIC 5ae6c 0 std::__ndk1::__function::__func<hook36<(anonymous namespace)::hook36Parent>::init(LevelEditorLayer*)::{lambda()#1}::operator()() const::{lambda()#37}, std::__ndk1::allocator<hook36<(anonymous namespace)::hook36Parent>::init(LevelEditorLayer*)::{lambda()#1}::operator()() const::{lambda()#37}>, void ()>::~__func()
PUBLIC 5ae70 0 std::__ndk1::__function::__func<hook36<(anonymous namespace)::hook36Parent>::init(LevelEditorLayer*)::{lambda()#1}::operator()() const::{lambda()#37}, std::__ndk1::allocator<hook36<(anonymous namespace)::hook36Parent>::init(LevelEditorLayer*)::{lambda()#1}::operator()() const::{lambda()#37}>, void ()>::__clone() const
PUBLIC 5aea4 0 std::__ndk1::__function::__func<hook36<(anonymous namespace)::hook36Parent>::init(LevelEditorLayer*)::{lambda()#1}::operator()() const::{lambda()#37}, std::__ndk1::allocator<hook36<(anonymous namespace)::hook36Parent>::init(LevelEditorLayer*)::{lambda()#1}::operator()() const::{lambda()#37}>, void ()>::__clone(std::__ndk1::__function::__base<void ()>*) const
PUBLIC 5aeb8 0 std::__ndk1::__function::__func<hook36<(anonymous namespace)::hook36Parent>::init(LevelEditorLayer*)::{lambda()#1}::operator()() const::{lambda()#37}, std::__ndk1::allocator<hook36<(anonymous namespace)::hook36Parent>::init(LevelEditorLayer*)::{lambda()#1}::operator()() const::{lambda()#37}>, void ()>::destroy()
PUBLIC 5aebc 0 std::__ndk1::__function::__func<hook36<(anonymous namespace)::hook36Parent>::init(LevelEditorLayer*)::{lambda()#1}::operator()() const::{lambda()#37}, std::__ndk1::allocator<hook36<(anonymous namespace)::hook36Parent>::init(LevelEditorLayer*)::{lambda()#1}::operator()() const::{lambda()#37}>, void ()>::destroy_deallocate()
PUBLIC 5aec0 0 std::__ndk1::__function::__func<hook36<(anonymous namespace)::hook36Parent>::init(LevelEditorLayer*)::{lambda()#1}::operator()() const::{lambda()#37}, std::__ndk1::allocator<hook36<(anonymous namespace)::hook36Parent>::init(LevelEditorLayer*)::{lambda()#1}::operator()() const::{lambda()#37}>, void ()>::operator()()
PUBLIC 5af1c 0 std::__ndk1::__function::__func<hook36<(anonymous namespace)::hook36Parent>::init(LevelEditorLayer*)::{lambda()#1}::operator()() const::{lambda()#37}, std::__ndk1::allocator<hook36<(anonymous namespace)::hook36Parent>::init(LevelEditorLayer*)::{lambda()#1}::operator()() const::{lambda()#37}>, void ()>::target(std::type_info const&) const
PUBLIC 5af38 0 std::__ndk1::__function::__func<hook36<(anonymous namespace)::hook36Parent>::init(LevelEditorLayer*)::{lambda()#1}::operator()() const::{lambda()#37}, std::__ndk1::allocator<hook36<(anonymous namespace)::hook36Parent>::init(LevelEditorLayer*)::{lambda()#1}::operator()() const::{lambda()#37}>, void ()>::target_type() const
PUBLIC 5af44 0 std::__ndk1::__function::__func<hook36<(anonymous namespace)::hook36Parent>::init(LevelEditorLayer*)::{lambda()#1}::operator()() const::{lambda()#38}, std::__ndk1::allocator<hook36<(anonymous namespace)::hook36Parent>::init(LevelEditorLayer*)::{lambda()#1}::operator()() const::{lambda()#38}>, void ()>::~__func()
PUBLIC 5af48 0 std::__ndk1::__function::__func<hook36<(anonymous namespace)::hook36Parent>::init(LevelEditorLayer*)::{lambda()#1}::operator()() const::{lambda()#38}, std::__ndk1::allocator<hook36<(anonymous namespace)::hook36Parent>::init(LevelEditorLayer*)::{lambda()#1}::operator()() const::{lambda()#38}>, void ()>::__clone() const
PUBLIC 5af7c 0 std::__ndk1::__function::__func<hook36<(anonymous namespace)::hook36Parent>::init(LevelEditorLayer*)::{lambda()#1}::operator()() const::{lambda()#38}, std::__ndk1::allocator<hook36<(anonymous namespace)::hook36Parent>::init(LevelEditorLayer*)::{lambda()#1}::operator()() const::{lambda()#38}>, void ()>::__clone(std::__ndk1::__function::__base<void ()>*) const
PUBLIC 5af90 0 std::__ndk1::__function::__func<hook36<(anonymous namespace)::hook36Parent>::init(LevelEditorLayer*)::{lambda()#1}::operator()() const::{lambda()#38}, std::__ndk1::allocator<hook36<(anonymous namespace)::hook36Parent>::init(LevelEditorLayer*)::{lambda()#1}::operator()() const::{lambda()#38}>, void ()>::destroy()
PUBLIC 5af94 0 std::__ndk1::__function::__func<hook36<(anonymous namespace)::hook36Parent>::init(LevelEditorLayer*)::{lambda()#1}::operator()() const::{lambda()#38}, std::__ndk1::allocator<hook36<(anonymous namespace)::hook36Parent>::init(LevelEditorLayer*)::{lambda()#1}::operator()() const::{lambda()#38}>, void ()>::destroy_deallocate()
PUBLIC 5af98 0 std::__ndk1::__function::__func<hook36<(anonymous namespace)::hook36Parent>::init(LevelEditorLayer*)::{lambda()#1}::operator()() const::{lambda()#38}, std::__ndk1::allocator<hook36<(anonymous namespace)::hook36Parent>::init(LevelEditorLayer*)::{lambda()#1}::operator()() const::{lambda()#38}>, void ()>::operator()()
PUBLIC 5aff0 0 std::__ndk1::__function::__func<hook36<(anonymous namespace)::hook36Parent>::init(LevelEditorLayer*)::{lambda()#1}::operator()() const::{lambda()#38}, std::__ndk1::allocator<hook36<(anonymous namespace)::hook36Parent>::init(LevelEditorLayer*)::{lambda()#1}::operator()() const::{lambda()#38}>, void ()>::target(std::type_info const&) const
PUBLIC 5b00c 0 std::__ndk1::__function::__func<hook36<(anonymous namespace)::hook36Parent>::init(LevelEditorLayer*)::{lambda()#1}::operator()() const::{lambda()#38}, std::__ndk1::allocator<hook36<(anonymous namespace)::hook36Parent>::init(LevelEditorLayer*)::{lambda()#1}::operator()() const::{lambda()#38}>, void ()>::target_type() const
PUBLIC 5b018 0 std::__ndk1::__function::__func<hook36<(anonymous namespace)::hook36Parent>::init(LevelEditorLayer*)::{lambda()#1}::operator()() const::{lambda()#39}, std::__ndk1::allocator<hook36<(anonymous namespace)::hook36Parent>::init(LevelEditorLayer*)::{lambda()#1}::operator()() const::{lambda()#39}>, void ()>::~__func()
PUBLIC 5b01c 0 std::__ndk1::__function::__func<hook36<(anonymous namespace)::hook36Parent>::init(LevelEditorLayer*)::{lambda()#1}::operator()() const::{lambda()#39}, std::__ndk1::allocator<hook36<(anonymous namespace)::hook36Parent>::init(LevelEditorLayer*)::{lambda()#1}::operator()() const::{lambda()#39}>, void ()>::__clone() const
PUBLIC 5b050 0 std::__ndk1::__function::__func<hook36<(anonymous namespace)::hook36Parent>::init(LevelEditorLayer*)::{lambda()#1}::operator()() const::{lambda()#39}, std::__ndk1::allocator<hook36<(anonymous namespace)::hook36Parent>::init(LevelEditorLayer*)::{lambda()#1}::operator()() const::{lambda()#39}>, void ()>::__clone(std::__ndk1::__function::__base<void ()>*) const
PUBLIC 5b064 0 std::__ndk1::__function::__func<hook36<(anonymous namespace)::hook36Parent>::init(LevelEditorLayer*)::{lambda()#1}::operator()() const::{lambda()#39}, std::__ndk1::allocator<hook36<(anonymous namespace)::hook36Parent>::init(LevelEditorLayer*)::{lambda()#1}::operator()() const::{lambda()#39}>, void ()>::destroy()
PUBLIC 5b068 0 std::__ndk1::__function::__func<hook36<(anonymous namespace)::hook36Parent>::init(LevelEditorLayer*)::{lambda()#1}::operator()() const::{lambda()#39}, std::__ndk1::allocator<hook36<(anonymous namespace)::hook36Parent>::init(LevelEditorLayer*)::{lambda()#1}::operator()() const::{lambda()#39}>, void ()>::destroy_deallocate()
PUBLIC 5b06c 0 std::__ndk1::__function::__func<hook36<(anonymous namespace)::hook36Parent>::init(LevelEditorLayer*)::{lambda()#1}::operator()() const::{lambda()#39}, std::__ndk1::allocator<hook36<(anonymous namespace)::hook36Parent>::init(LevelEditorLayer*)::{lambda()#1}::operator()() const::{lambda()#39}>, void ()>::operator()()
PUBLIC 5b0c4 0 std::__ndk1::__function::__func<hook36<(anonymous namespace)::hook36Parent>::init(LevelEditorLayer*)::{lambda()#1}::operator()() const::{lambda()#39}, std::__ndk1::allocator<hook36<(anonymous namespace)::hook36Parent>::init(LevelEditorLayer*)::{lambda()#1}::operator()() const::{lambda()#39}>, void ()>::target(std::type_info const&) const
PUBLIC 5b0e0 0 std::__ndk1::__function::__func<hook36<(anonymous namespace)::hook36Parent>::init(LevelEditorLayer*)::{lambda()#1}::operator()() const::{lambda()#39}, std::__ndk1::allocator<hook36<(anonymous namespace)::hook36Parent>::init(LevelEditorLayer*)::{lambda()#1}::operator()() const::{lambda()#39}>, void ()>::target_type() const
PUBLIC 5b0ec 0 std::__ndk1::__function::__func<hook36<(anonymous namespace)::hook36Parent>::init(LevelEditorLayer*)::{lambda()#1}::operator()() const::{lambda()#40}, std::__ndk1::allocator<hook36<(anonymous namespace)::hook36Parent>::init(LevelEditorLayer*)::{lambda()#1}::operator()() const::{lambda()#40}>, void ()>::~__func()
PUBLIC 5b0f0 0 std::__ndk1::__function::__func<hook36<(anonymous namespace)::hook36Parent>::init(LevelEditorLayer*)::{lambda()#1}::operator()() const::{lambda()#40}, std::__ndk1::allocator<hook36<(anonymous namespace)::hook36Parent>::init(LevelEditorLayer*)::{lambda()#1}::operator()() const::{lambda()#40}>, void ()>::__clone() const
PUBLIC 5b124 0 std::__ndk1::__function::__func<hook36<(anonymous namespace)::hook36Parent>::init(LevelEditorLayer*)::{lambda()#1}::operator()() const::{lambda()#40}, std::__ndk1::allocator<hook36<(anonymous namespace)::hook36Parent>::init(LevelEditorLayer*)::{lambda()#1}::operator()() const::{lambda()#40}>, void ()>::__clone(std::__ndk1::__function::__base<void ()>*) const
PUBLIC 5b138 0 std::__ndk1::__function::__func<hook36<(anonymous namespace)::hook36Parent>::init(LevelEditorLayer*)::{lambda()#1}::operator()() const::{lambda()#40}, std::__ndk1::allocator<hook36<(anonymous namespace)::hook36Parent>::init(LevelEditorLayer*)::{lambda()#1}::operator()() const::{lambda()#40}>, void ()>::destroy()
PUBLIC 5b13c 0 std::__ndk1::__function::__func<hook36<(anonymous namespace)::hook36Parent>::init(LevelEditorLayer*)::{lambda()#1}::operator()() const::{lambda()#40}, std::__ndk1::allocator<hook36<(anonymous namespace)::hook36Parent>::init(LevelEditorLayer*)::{lambda()#1}::operator()() const::{lambda()#40}>, void ()>::destroy_deallocate()
PUBLIC 5b140 0 std::__ndk1::__function::__func<hook36<(anonymous namespace)::hook36Parent>::init(LevelEditorLayer*)::{lambda()#1}::operator()() const::{lambda()#40}, std::__ndk1::allocator<hook36<(anonymous namespace)::hook36Parent>::init(LevelEditorLayer*)::{lambda()#1}::operator()() const::{lambda()#40}>, void ()>::operator()()
PUBLIC 5b198 0 std::__ndk1::__function::__func<hook36<(anonymous namespace)::hook36Parent>::init(LevelEditorLayer*)::{lambda()#1}::operator()() const::{lambda()#40}, std::__ndk1::allocator<hook36<(anonymous namespace)::hook36Parent>::init(LevelEditorLayer*)::{lambda()#1}::operator()() const::{lambda()#40}>, void ()>::target(std::type_info const&) const
PUBLIC 5b1b4 0 std::__ndk1::__function::__func<hook36<(anonymous namespace)::hook36Parent>::init(LevelEditorLayer*)::{lambda()#1}::operator()() const::{lambda()#40}, std::__ndk1::allocator<hook36<(anonymous namespace)::hook36Parent>::init(LevelEditorLayer*)::{lambda()#1}::operator()() const::{lambda()#40}>, void ()>::target_type() const
PUBLIC 5b1c0 0 std::__ndk1::__function::__func<hook36<(anonymous namespace)::hook36Parent>::init(LevelEditorLayer*)::{lambda()#1}::operator()() const::{lambda()#41}, std::__ndk1::allocator<hook36<(anonymous namespace)::hook36Parent>::init(LevelEditorLayer*)::{lambda()#1}::operator()() const::{lambda()#41}>, void ()>::~__func()
PUBLIC 5b1c4 0 std::__ndk1::__function::__func<hook36<(anonymous namespace)::hook36Parent>::init(LevelEditorLayer*)::{lambda()#1}::operator()() const::{lambda()#41}, std::__ndk1::allocator<hook36<(anonymous namespace)::hook36Parent>::init(LevelEditorLayer*)::{lambda()#1}::operator()() const::{lambda()#41}>, void ()>::__clone() const
PUBLIC 5b1f8 0 std::__ndk1::__function::__func<hook36<(anonymous namespace)::hook36Parent>::init(LevelEditorLayer*)::{lambda()#1}::operator()() const::{lambda()#41}, std::__ndk1::allocator<hook36<(anonymous namespace)::hook36Parent>::init(LevelEditorLayer*)::{lambda()#1}::operator()() const::{lambda()#41}>, void ()>::__clone(std::__ndk1::__function::__base<void ()>*) const
PUBLIC 5b20c 0 std::__ndk1::__function::__func<hook36<(anonymous namespace)::hook36Parent>::init(LevelEditorLayer*)::{lambda()#1}::operator()() const::{lambda()#41}, std::__ndk1::allocator<hook36<(anonymous namespace)::hook36Parent>::init(LevelEditorLayer*)::{lambda()#1}::operator()() const::{lambda()#41}>, void ()>::destroy()
PUBLIC 5b210 0 std::__ndk1::__function::__func<hook36<(anonymous namespace)::hook36Parent>::init(LevelEditorLayer*)::{lambda()#1}::operator()() const::{lambda()#41}, std::__ndk1::allocator<hook36<(anonymous namespace)::hook36Parent>::init(LevelEditorLayer*)::{lambda()#1}::operator()() const::{lambda()#41}>, void ()>::destroy_deallocate()
PUBLIC 5b214 0 std::__ndk1::__function::__func<hook36<(anonymous namespace)::hook36Parent>::init(LevelEditorLayer*)::{lambda()#1}::operator()() const::{lambda()#41}, std::__ndk1::allocator<hook36<(anonymous namespace)::hook36Parent>::init(LevelEditorLayer*)::{lambda()#1}::operator()() const::{lambda()#41}>, void ()>::operator()()
PUBLIC 5b26c 0 std::__ndk1::__function::__func<hook36<(anonymous namespace)::hook36Parent>::init(LevelEditorLayer*)::{lambda()#1}::operator()() const::{lambda()#41}, std::__ndk1::allocator<hook36<(anonymous namespace)::hook36Parent>::init(LevelEditorLayer*)::{lambda()#1}::operator()() const::{lambda()#41}>, void ()>::target(std::type_info const&) const
PUBLIC 5b288 0 std::__ndk1::__function::__func<hook36<(anonymous namespace)::hook36Parent>::init(LevelEditorLayer*)::{lambda()#1}::operator()() const::{lambda()#41}, std::__ndk1::allocator<hook36<(anonymous namespace)::hook36Parent>::init(LevelEditorLayer*)::{lambda()#1}::operator()() const::{lambda()#41}>, void ()>::target_type() const
PUBLIC 5b294 0 std::__ndk1::__function::__func<hook36<(anonymous namespace)::hook36Parent>::init(LevelEditorLayer*)::{lambda()#1}::operator()() const::{lambda()#42}, std::__ndk1::allocator<hook36<(anonymous namespace)::hook36Parent>::init(LevelEditorLayer*)::{lambda()#1}::operator()() const::{lambda()#42}>, void ()>::~__func()
PUBLIC 5b298 0 std::__ndk1::__function::__func<hook36<(anonymous namespace)::hook36Parent>::init(LevelEditorLayer*)::{lambda()#1}::operator()() const::{lambda()#42}, std::__ndk1::allocator<hook36<(anonymous namespace)::hook36Parent>::init(LevelEditorLayer*)::{lambda()#1}::operator()() const::{lambda()#42}>, void ()>::__clone() const
PUBLIC 5b2cc 0 std::__ndk1::__function::__func<hook36<(anonymous namespace)::hook36Parent>::init(LevelEditorLayer*)::{lambda()#1}::operator()() const::{lambda()#42}, std::__ndk1::allocator<hook36<(anonymous namespace)::hook36Parent>::init(LevelEditorLayer*)::{lambda()#1}::operator()() const::{lambda()#42}>, void ()>::__clone(std::__ndk1::__function::__base<void ()>*) const
PUBLIC 5b2e0 0 std::__ndk1::__function::__func<hook36<(anonymous namespace)::hook36Parent>::init(LevelEditorLayer*)::{lambda()#1}::operator()() const::{lambda()#42}, std::__ndk1::allocator<hook36<(anonymous namespace)::hook36Parent>::init(LevelEditorLayer*)::{lambda()#1}::operator()() const::{lambda()#42}>, void ()>::destroy()
PUBLIC 5b2e4 0 std::__ndk1::__function::__func<hook36<(anonymous namespace)::hook36Parent>::init(LevelEditorLayer*)::{lambda()#1}::operator()() const::{lambda()#42}, std::__ndk1::allocator<hook36<(anonymous namespace)::hook36Parent>::init(LevelEditorLayer*)::{lambda()#1}::operator()() const::{lambda()#42}>, void ()>::destroy_deallocate()
PUBLIC 5b2e8 0 std::__ndk1::__function::__func<hook36<(anonymous namespace)::hook36Parent>::init(LevelEditorLayer*)::{lambda()#1}::operator()() const::{lambda()#42}, std::__ndk1::allocator<hook36<(anonymous namespace)::hook36Parent>::init(LevelEditorLayer*)::{lambda()#1}::operator()() const::{lambda()#42}>, void ()>::operator()()
PUBLIC 5b340 0 std::__ndk1::__function::__func<hook36<(anonymous namespace)::hook36Parent>::init(LevelEditorLayer*)::{lambda()#1}::operator()() const::{lambda()#42}, std::__ndk1::allocator<hook36<(anonymous namespace)::hook36Parent>::init(LevelEditorLayer*)::{lambda()#1}::operator()() const::{lambda()#42}>, void ()>::target(std::type_info const&) const
PUBLIC 5b35c 0 std::__ndk1::__function::__func<hook36<(anonymous namespace)::hook36Parent>::init(LevelEditorLayer*)::{lambda()#1}::operator()() const::{lambda()#42}, std::__ndk1::allocator<hook36<(anonymous namespace)::hook36Parent>::init(LevelEditorLayer*)::{lambda()#1}::operator()() const::{lambda()#42}>, void ()>::target_type() const
PUBLIC 5b368 0 std::__ndk1::__function::__func<hook36<(anonymous namespace)::hook36Parent>::init(LevelEditorLayer*)::{lambda()#1}::operator()() const::{lambda()#43}, std::__ndk1::allocator<hook36<(anonymous namespace)::hook36Parent>::init(LevelEditorLayer*)::{lambda()#1}::operator()() const::{lambda()#43}>, void ()>::~__func()
PUBLIC 5b36c 0 std::__ndk1::__function::__func<hook36<(anonymous namespace)::hook36Parent>::init(LevelEditorLayer*)::{lambda()#1}::operator()() const::{lambda()#43}, std::__ndk1::allocator<hook36<(anonymous namespace)::hook36Parent>::init(LevelEditorLayer*)::{lambda()#1}::operator()() const::{lambda()#43}>, void ()>::__clone() const
PUBLIC 5b3a0 0 std::__ndk1::__function::__func<hook36<(anonymous namespace)::hook36Parent>::init(LevelEditorLayer*)::{lambda()#1}::operator()() const::{lambda()#43}, std::__ndk1::allocator<hook36<(anonymous namespace)::hook36Parent>::init(LevelEditorLayer*)::{lambda()#1}::operator()() const::{lambda()#43}>, void ()>::__clone(std::__ndk1::__function::__base<void ()>*) const
PUBLIC 5b3b4 0 std::__ndk1::__function::__func<hook36<(anonymous namespace)::hook36Parent>::init(LevelEditorLayer*)::{lambda()#1}::operator()() const::{lambda()#43}, std::__ndk1::allocator<hook36<(anonymous namespace)::hook36Parent>::init(LevelEditorLayer*)::{lambda()#1}::operator()() const::{lambda()#43}>, void ()>::destroy()
PUBLIC 5b3b8 0 std::__ndk1::__function::__func<hook36<(anonymous namespace)::hook36Parent>::init(LevelEditorLayer*)::{lambda()#1}::operator()() const::{lambda()#43}, std::__ndk1::allocator<hook36<(anonymous namespace)::hook36Parent>::init(LevelEditorLayer*)::{lambda()#1}::operator()() const::{lambda()#43}>, void ()>::destroy_deallocate()
PUBLIC 5b3bc 0 std::__ndk1::__function::__func<hook36<(anonymous namespace)::hook36Parent>::init(LevelEditorLayer*)::{lambda()#1}::operator()() const::{lambda()#43}, std::__ndk1::allocator<hook36<(anonymous namespace)::hook36Parent>::init(LevelEditorLayer*)::{lambda()#1}::operator()() const::{lambda()#43}>, void ()>::operator()()
PUBLIC 5b414 0 std::__ndk1::__function::__func<hook36<(anonymous namespace)::hook36Parent>::init(LevelEditorLayer*)::{lambda()#1}::operator()() const::{lambda()#43}, std::__ndk1::allocator<hook36<(anonymous namespace)::hook36Parent>::init(LevelEditorLayer*)::{lambda()#1}::operator()() const::{lambda()#43}>, void ()>::target(std::type_info const&) const
PUBLIC 5b430 0 std::__ndk1::__function::__func<hook36<(anonymous namespace)::hook36Parent>::init(LevelEditorLayer*)::{lambda()#1}::operator()() const::{lambda()#43}, std::__ndk1::allocator<hook36<(anonymous namespace)::hook36Parent>::init(LevelEditorLayer*)::{lambda()#1}::operator()() const::{lambda()#43}>, void ()>::target_type() const
PUBLIC 5b43c 0 std::__ndk1::__function::__func<hook36<(anonymous namespace)::hook36Parent>::init(LevelEditorLayer*)::{lambda()#1}::operator()() const::{lambda()#44}, std::__ndk1::allocator<hook36<(anonymous namespace)::hook36Parent>::init(LevelEditorLayer*)::{lambda()#1}::operator()() const::{lambda()#44}>, void ()>::~__func()
PUBLIC 5b440 0 std::__ndk1::__function::__func<hook36<(anonymous namespace)::hook36Parent>::init(LevelEditorLayer*)::{lambda()#1}::operator()() const::{lambda()#44}, std::__ndk1::allocator<hook36<(anonymous namespace)::hook36Parent>::init(LevelEditorLayer*)::{lambda()#1}::operator()() const::{lambda()#44}>, void ()>::__clone() const
PUBLIC 5b478 0 std::__ndk1::__function::__func<hook36<(anonymous namespace)::hook36Parent>::init(LevelEditorLayer*)::{lambda()#1}::operator()() const::{lambda()#44}, std::__ndk1::allocator<hook36<(anonymous namespace)::hook36Parent>::init(LevelEditorLayer*)::{lambda()#1}::operator()() const::{lambda()#44}>, void ()>::__clone(std::__ndk1::__function::__base<void ()>*) const
PUBLIC 5b490 0 std::__ndk1::__function::__func<hook36<(anonymous namespace)::hook36Parent>::init(LevelEditorLayer*)::{lambda()#1}::operator()() const::{lambda()#44}, std::__ndk1::allocator<hook36<(anonymous namespace)::hook36Parent>::init(LevelEditorLayer*)::{lambda()#1}::operator()() const::{lambda()#44}>, void ()>::destroy()
PUBLIC 5b494 0 std::__ndk1::__function::__func<hook36<(anonymous namespace)::hook36Parent>::init(LevelEditorLayer*)::{lambda()#1}::operator()() const::{lambda()#44}, std::__ndk1::allocator<hook36<(anonymous namespace)::hook36Parent>::init(LevelEditorLayer*)::{lambda()#1}::operator()() const::{lambda()#44}>, void ()>::destroy_deallocate()
PUBLIC 5b498 0 std::__ndk1::__function::__func<hook36<(anonymous namespace)::hook36Parent>::init(LevelEditorLayer*)::{lambda()#1}::operator()() const::{lambda()#44}, std::__ndk1::allocator<hook36<(anonymous namespace)::hook36Parent>::init(LevelEditorLayer*)::{lambda()#1}::operator()() const::{lambda()#44}>, void ()>::operator()()
PUBLIC 5b4f8 0 std::__ndk1::__function::__func<hook36<(anonymous namespace)::hook36Parent>::init(LevelEditorLayer*)::{lambda()#1}::operator()() const::{lambda()#44}, std::__ndk1::allocator<hook36<(anonymous namespace)::hook36Parent>::init(LevelEditorLayer*)::{lambda()#1}::operator()() const::{lambda()#44}>, void ()>::target(std::type_info const&) const
PUBLIC 5b514 0 std::__ndk1::__function::__func<hook36<(anonymous namespace)::hook36Parent>::init(LevelEditorLayer*)::{lambda()#1}::operator()() const::{lambda()#44}, std::__ndk1::allocator<hook36<(anonymous namespace)::hook36Parent>::init(LevelEditorLayer*)::{lambda()#1}::operator()() const::{lambda()#44}>, void ()>::target_type() const
PUBLIC 5b520 0 std::__ndk1::__function::__base<void ()>::~__base()
PUBLIC 5b524 0 std::__ndk1::__function::__func<hook36<(anonymous namespace)::hook36Parent>::init(LevelEditorLayer*)::{lambda()#1}::operator()() const::{lambda()#45}, std::__ndk1::allocator<hook36<(anonymous namespace)::hook36Parent>::init(LevelEditorLayer*)::{lambda()#1}::operator()() const::{lambda()#45}>, void ()>::~__func()
PUBLIC 5b528 0 std::__ndk1::__function::__func<hook36<(anonymous namespace)::hook36Parent>::init(LevelEditorLayer*)::{lambda()#1}::operator()() const::{lambda()#45}, std::__ndk1::allocator<hook36<(anonymous namespace)::hook36Parent>::init(LevelEditorLayer*)::{lambda()#1}::operator()() const::{lambda()#45}>, void ()>::__clone() const
PUBLIC 5b560 0 std::__ndk1::__function::__func<hook36<(anonymous namespace)::hook36Parent>::init(LevelEditorLayer*)::{lambda()#1}::operator()() const::{lambda()#45}, std::__ndk1::allocator<hook36<(anonymous namespace)::hook36Parent>::init(LevelEditorLayer*)::{lambda()#1}::operator()() const::{lambda()#45}>, void ()>::__clone(std::__ndk1::__function::__base<void ()>*) const
PUBLIC 5b578 0 std::__ndk1::__function::__func<hook36<(anonymous namespace)::hook36Parent>::init(LevelEditorLayer*)::{lambda()#1}::operator()() const::{lambda()#45}, std::__ndk1::allocator<hook36<(anonymous namespace)::hook36Parent>::init(LevelEditorLayer*)::{lambda()#1}::operator()() const::{lambda()#45}>, void ()>::destroy()
PUBLIC 5b57c 0 std::__ndk1::__function::__func<hook36<(anonymous namespace)::hook36Parent>::init(LevelEditorLayer*)::{lambda()#1}::operator()() const::{lambda()#45}, std::__ndk1::allocator<hook36<(anonymous namespace)::hook36Parent>::init(LevelEditorLayer*)::{lambda()#1}::operator()() const::{lambda()#45}>, void ()>::destroy_deallocate()
PUBLIC 5b580 0 std::__ndk1::__function::__func<hook36<(anonymous namespace)::hook36Parent>::init(LevelEditorLayer*)::{lambda()#1}::operator()() const::{lambda()#45}, std::__ndk1::allocator<hook36<(anonymous namespace)::hook36Parent>::init(LevelEditorLayer*)::{lambda()#1}::operator()() const::{lambda()#45}>, void ()>::operator()()
PUBLIC 5b5e0 0 std::__ndk1::__function::__func<hook36<(anonymous namespace)::hook36Parent>::init(LevelEditorLayer*)::{lambda()#1}::operator()() const::{lambda()#45}, std::__ndk1::allocator<hook36<(anonymous namespace)::hook36Parent>::init(LevelEditorLayer*)::{lambda()#1}::operator()() const::{lambda()#45}>, void ()>::target(std::type_info const&) const
PUBLIC 5b5fc 0 std::__ndk1::__function::__func<hook36<(anonymous namespace)::hook36Parent>::init(LevelEditorLayer*)::{lambda()#1}::operator()() const::{lambda()#45}, std::__ndk1::allocator<hook36<(anonymous namespace)::hook36Parent>::init(LevelEditorLayer*)::{lambda()#1}::operator()() const::{lambda()#45}>, void ()>::target_type() const
PUBLIC 5b608 0 std::__ndk1::__function::__base<void (bool)>::~__base()
PUBLIC 5b60c 0 std::__ndk1::__function::__func<hook36<(anonymous namespace)::hook36Parent>::init(LevelEditorLayer*)::{lambda()#1}::operator()() const::{lambda(bool)#7}, std::__ndk1::allocator<hook36<(anonymous namespace)::hook36Parent>::init(LevelEditorLayer*)::{lambda()#1}::operator()() const::{lambda(bool)#7}>, void (bool)>::~__func()
PUBLIC 5b610 0 std::__ndk1::__function::__func<hook36<(anonymous namespace)::hook36Parent>::init(LevelEditorLayer*)::{lambda()#1}::operator()() const::{lambda(bool)#7}, std::__ndk1::allocator<hook36<(anonymous namespace)::hook36Parent>::init(LevelEditorLayer*)::{lambda()#1}::operator()() const::{lambda(bool)#7}>, void (bool)>::__clone() const
PUBLIC 5b648 0 std::__ndk1::__function::__func<hook36<(anonymous namespace)::hook36Parent>::init(LevelEditorLayer*)::{lambda()#1}::operator()() const::{lambda(bool)#7}, std::__ndk1::allocator<hook36<(anonymous namespace)::hook36Parent>::init(LevelEditorLayer*)::{lambda()#1}::operator()() const::{lambda(bool)#7}>, void (bool)>::__clone(std::__ndk1::__function::__base<void (bool)>*) const
PUBLIC 5b660 0 std::__ndk1::__function::__func<hook36<(anonymous namespace)::hook36Parent>::init(LevelEditorLayer*)::{lambda()#1}::operator()() const::{lambda(bool)#7}, std::__ndk1::allocator<hook36<(anonymous namespace)::hook36Parent>::init(LevelEditorLayer*)::{lambda()#1}::operator()() const::{lambda(bool)#7}>, void (bool)>::destroy()
PUBLIC 5b664 0 std::__ndk1::__function::__func<hook36<(anonymous namespace)::hook36Parent>::init(LevelEditorLayer*)::{lambda()#1}::operator()() const::{lambda(bool)#7}, std::__ndk1::allocator<hook36<(anonymous namespace)::hook36Parent>::init(LevelEditorLayer*)::{lambda()#1}::operator()() const::{lambda(bool)#7}>, void (bool)>::destroy_deallocate()
PUBLIC 5b668 0 std::__ndk1::__function::__func<hook36<(anonymous namespace)::hook36Parent>::init(LevelEditorLayer*)::{lambda()#1}::operator()() const::{lambda(bool)#7}, std::__ndk1::allocator<hook36<(anonymous namespace)::hook36Parent>::init(LevelEditorLayer*)::{lambda()#1}::operator()() const::{lambda(bool)#7}>, void (bool)>::operator()(bool&&)
PUBLIC 5b6b0 0 std::__ndk1::__function::__func<hook36<(anonymous namespace)::hook36Parent>::init(LevelEditorLayer*)::{lambda()#1}::operator()() const::{lambda(bool)#7}, std::__ndk1::allocator<hook36<(anonymous namespace)::hook36Parent>::init(LevelEditorLayer*)::{lambda()#1}::operator()() const::{lambda(bool)#7}>, void (bool)>::target(std::type_info const&) const
PUBLIC 5b6cc 0 std::__ndk1::__function::__func<hook36<(anonymous namespace)::hook36Parent>::init(LevelEditorLayer*)::{lambda()#1}::operator()() const::{lambda(bool)#7}, std::__ndk1::allocator<hook36<(anonymous namespace)::hook36Parent>::init(LevelEditorLayer*)::{lambda()#1}::operator()() const::{lambda(bool)#7}>, void (bool)>::target_type() const
PUBLIC 5b6d8 0 geode::Ref<keybinds::Bind>::~Ref()
PUBLIC 5b6f8 0 keybinds::BindableAction::~BindableAction()
PUBLIC 5b7bc 0 std::__ndk1::vector<geode::Ref<keybinds::Bind>, std::__ndk1::allocator<geode::Ref<keybinds::Bind> > >::~vector[abi:ne180000]()
PUBLIC 5b840 0 std::__ndk1::__exception_guard_exceptions<std::__ndk1::vector<geode::Ref<keybinds::Bind>, std::__ndk1::allocator<geode::Ref<keybinds::Bind> > >::__destroy_vector>::~__exception_guard_exceptions[abi:ne180000]()
PUBLIC 5b8d4 0 std::__ndk1::__exception_guard_exceptions<std::__ndk1::_AllocatorDestroyRangeReverse<std::__ndk1::allocator<geode::Ref<keybinds::Bind> >, geode::Ref<keybinds::Bind>*> >::~__exception_guard_exceptions[abi:ne180000]()
PUBLIC m 5b91c 0 keybinds::Keybind::create(cocos2d::enumKeyCodes, keybinds::Modifier)
PUBLIC m 5b9b0 0 keybinds::Keybind::parse(matjson::Value const&)
PUBLIC m 5bb34 0 keybinds::Keybind::save() const
PUBLIC 5bc78 0 _ZNSt6__ndk14pairINS_12basic_stringIcNS_11char_traitsIcEENS_9allocatorIcEEEEN7matjson5ValueEEC2B8ne180000IRA10_KciTnNS_9enable_ifIXclsr10_CheckArgsE17__enable_implicitIT_T0_EEEiE4typeELi0EEEOSF_OSG_
PUBLIC m 5bd3c 0 keybinds::Keybind::getKey() const
PUBLIC m 5bd44 0 keybinds::Keybind::getModifiers() const
PUBLIC m 5bd4c 0 keybinds::Keybind::getHash() const
PUBLIC m 5bd5c 0 keybinds::Keybind::isEqual(keybinds::Bind*) const
PUBLIC m 5bde0 0 keybinds::Keybind::toString() const
PUBLIC m 5bf5c 0 keybinds::Keybind::getDeviceID() const
PUBLIC 5bfac 0 keybinds::Keybind::~Keybind()
PUBLIC m 5bfd0 0 keybinds::operator|=(keybinds::Modifier&, keybinds::Modifier const&)
PUBLIC m 5bfe8 0 keybinds::operator|(keybinds::Modifier const&, keybinds::Modifier const&)
PUBLIC m 5bff8 0 keybinds::operator&(keybinds::Modifier const&, keybinds::Modifier const&)
PUBLIC m 5c00c 0 keybinds::keyToString(cocos2d::enumKeyCodes)
PUBLIC m 5c300 0 keybinds::keyIsModifier(cocos2d::enumKeyCodes)
PUBLIC m 5c338 0 keybinds::keyIsController(cocos2d::enumKeyCodes)
PUBLIC m 5c348 0 keybinds::mouseToString(keybinds::MouseButton)
PUBLIC m 5c3d8 0 keybinds::Bind::isEqual(keybinds::Bind*) const
PUBLIC m 5c41c 0 keybinds::Bind::createLabel() const
PUBLIC m 5c4d8 0 keybinds::Bind::createBindSprite() const
PUBLIC m 5c680 0 keybinds::BindHash::BindHash(keybinds::Bind*)
PUBLIC m 5c694 0 keybinds::BindHash::operator==(keybinds::BindHash const&) const
PUBLIC m 5c6a8 0 std::__ndk1::hash<keybinds::BindHash>::operator()(keybinds::BindHash const&) const
PUBLIC m 5c768 0 keybinds::Category::Category(char const*)
PUBLIC m 5c804 0 keybinds::Category::Category(std::__ndk1::basic_string<char, std::__ndk1::char_traits<char>, std::__ndk1::allocator<char> > const&)
PUBLIC m 5c82c 0 keybinds::Category::getPath() const
PUBLIC m 5c8bc 0 keybinds::Category::getParent() const
PUBLIC m 5ca60 0 keybinds::Category::hasParent(keybinds::Category const&) const
PUBLIC m 5cacc 0 keybinds::Category::toString() const
PUBLIC m 5caf4 0 keybinds::Category::operator==(keybinds::Category const&) const
PUBLIC m 5cba4 0 keybinds::BindableAction::getID() const
PUBLIC m 5cbcc 0 keybinds::BindableAction::getName() const
PUBLIC m 5cc1c 0 keybinds::BindableAction::getDescription() const
PUBLIC m 5cc48 0 keybinds::BindableAction::getMod() const
PUBLIC m 5cc50 0 keybinds::BindableAction::getDefaults() const
PUBLIC m 5cc6c 0 keybinds::BindableAction::getCategory() const
PUBLIC m 5cc98 0 keybinds::BindableAction::isRepeatable() const
PUBLIC m 5cca0 0 keybinds::BindableAction::BindableAction(std::__ndk1::basic_string<char, std::__ndk1::char_traits<char>, std::__ndk1::allocator<char> > const&, std::__ndk1::basic_string<char, std::__ndk1::char_traits<char>, std::__ndk1::allocator<char> > const&, std::__ndk1::basic_string<char, std::__ndk1::char_traits<char>, std::__ndk1::allocator<char> > const&, std::__ndk1::vector<geode::Ref<keybinds::Bind>, std::__ndk1::allocator<geode::Ref<keybinds::Bind> > > const&, keybinds::Category const&, bool, geode::Mod*)
PUBLIC m 5ce48 0 keybinds::InvokeBindEvent::InvokeBindEvent(std::__ndk1::basic_string<char, std::__ndk1::char_traits<char>, std::__ndk1::allocator<char> > const&, bool)
PUBLIC m 5cec8 0 keybinds::InvokeBindEvent::getID() const
PUBLIC m 5cef4 0 keybinds::InvokeBindEvent::isDown() const
PUBLIC m 5cefc 0 keybinds::InvokeBindFilter::handle(std::__ndk1::function<geode::ListenerResult(keybinds::InvokeBindEvent*)>, keybinds::InvokeBindEvent*)
PUBLIC m 5d08c 0 keybinds::InvokeBindFilter::InvokeBindFilter(cocos2d::CCNode*, std::__ndk1::basic_string<char, std::__ndk1::char_traits<char>, std::__ndk1::allocator<char> > const&)
PUBLIC m 5d1e0 0 keybinds::BindManager::get()
PUBLIC m 5d288 0 keybinds::BindManager::stopAllRepeats()
PUBLIC m 5d320 0 keybinds::PressBindEvent::PressBindEvent(keybinds::Bind*, bool)
PUBLIC m 5d338 0 keybinds::PressBindEvent::getBind() const
PUBLIC m 5d340 0 keybinds::PressBindEvent::isDown() const
PUBLIC m 5d348 0 keybinds::PressBindFilter::handle(std::__ndk1::function<geode::ListenerResult(keybinds::PressBindEvent*)>, keybinds::PressBindEvent*)
PUBLIC m 5d3b8 0 keybinds::PressBindFilter::PressBindFilter()
PUBLIC m 5d3c0 0 keybinds::DeviceEvent::DeviceEvent(std::__ndk1::basic_string<char, std::__ndk1::char_traits<char>, std::__ndk1::allocator<char> > const&, bool)
PUBLIC m 5d440 0 keybinds::DeviceEvent::getID() const
PUBLIC m 5d46c 0 keybinds::DeviceEvent::wasAttached() const
PUBLIC m 5d474 0 keybinds::DeviceEvent::wasDetached() const
PUBLIC m 5d484 0 keybinds::DeviceFilter::handle(std::__ndk1::function<void (keybinds::DeviceEvent*)>, keybinds::DeviceEvent*)
PUBLIC m 5d610 0 keybinds::DeviceFilter::DeviceFilter(std::__ndk1::optional<std::__ndk1::basic_string<char, std::__ndk1::char_traits<char>, std::__ndk1::allocator<char> > >)
PUBLIC m 5d6a4 0 keybinds::BindManager::BindManager()
PUBLIC m 5db44 0 keybinds::BindManager::onDispatch(keybinds::PressBindEvent*)
PUBLIC m 5de70 0 keybinds::BindManager::fixEmptyBindsBug()
PUBLIC m 5df34 0 keybinds::BindManager::addCategory(keybinds::Category const&)
PUBLIC m 5e5c8 0 keybinds::BindManager::attachDevice(std::__ndk1::basic_string<char, std::__ndk1::char_traits<char>, std::__ndk1::allocator<char> > const&, std::__ndk1::function<keybinds::Bind* (matjson::Value const&)>)
PUBLIC 5f170 0 std::__ndk1::unordered_map<std::__ndk1::basic_string<char, std::__ndk1::char_traits<char>, std::__ndk1::allocator<char> >, float, std::__ndk1::hash<std::__ndk1::basic_string<char, std::__ndk1::char_traits<char>, std::__ndk1::allocator<char> > >, std::__ndk1::equal_to<std::__ndk1::basic_string<char, std::__ndk1::char_traits<char>, std::__ndk1::allocator<char> > >, std::__ndk1::allocator<std::__ndk1::pair<std::__ndk1::basic_string<char, std::__ndk1::char_traits<char>, std::__ndk1::allocator<char> > const, float> > >::~unordered_map[abi:ne180000]()
PUBLIC 5f1e0 0 geode::EventListener<keybinds::PressBindFilter>::~EventListener()
PUBLIC 5f23c 0 std::__ndk1::vector<keybinds::Category, std::__ndk1::allocator<keybinds::Category> >::~vector[abi:ne180000]()
PUBLIC 5f2b8 0 std::__ndk1::vector<std::__ndk1::pair<std::__ndk1::basic_string<char, std::__ndk1::char_traits<char>, std::__ndk1::allocator<char> >, keybinds::BindManager::ActionData>, std::__ndk1::allocator<std::__ndk1::pair<std::__ndk1::basic_string<char, std::__ndk1::char_traits<char>, std::__ndk1::allocator<char> >, keybinds::BindManager::ActionData> > >::~vector[abi:ne180000]()
PUBLIC 5f33c 0 std::__ndk1::unordered_map<std::__ndk1::basic_string<char, std::__ndk1::char_traits<char>, std::__ndk1::allocator<char> >, std::__ndk1::function<keybinds::Bind* (matjson::Value const&)>, std::__ndk1::hash<std::__ndk1::basic_string<char, std::__ndk1::char_traits<char>, std::__ndk1::allocator<char> > >, std::__ndk1::equal_to<std::__ndk1::basic_string<char, std::__ndk1::char_traits<char>, std::__ndk1::allocator<char> > >, std::__ndk1::allocator<std::__ndk1::pair<std::__ndk1::basic_string<char, std::__ndk1::char_traits<char>, std::__ndk1::allocator<char> > const, std::__ndk1::function<keybinds::Bind* (matjson::Value const&)> > > >::~unordered_map[abi:ne180000]()
PUBLIC 5f3dc 0 std::__ndk1::unordered_map<std::__ndk1::basic_string<char, std::__ndk1::char_traits<char>, std::__ndk1::allocator<char> >, std::__ndk1::unordered_map<std::__ndk1::basic_string<char, std::__ndk1::char_traits<char>, std::__ndk1::allocator<char> >, std::__ndk1::set<matjson::Value, std::__ndk1::less<matjson::Value>, std::__ndk1::allocator<matjson::Value> >, std::__ndk1::hash<std::__ndk1::basic_string<char, std::__ndk1::char_traits<char>, std::__ndk1::allocator<char> > >, std::__ndk1::equal_to<std::__ndk1::basic_string<char, std::__ndk1::char_traits<char>, std::__ndk1::allocator<char> > >, std::__ndk1::allocator<std::__ndk1::pair<std::__ndk1::basic_string<char, std::__ndk1::char_traits<char>, std::__ndk1::allocator<char> > const, std::__ndk1::set<matjson::Value, std::__ndk1::less<matjson::Value>, std::__ndk1::allocator<matjson::Value> > > > >, std::__ndk1::hash<std::__ndk1::basic_string<char, std::__ndk1::char_traits<char>, std::__ndk1::allocator<char> > >, std::__ndk1::equal_to<std::__ndk1::basic_string<char, std::__ndk1::char_traits<char>, std::__ndk1::allocator<char> > >, std::__ndk1::allocator<std::__ndk1::pair<std::__ndk1::basic_string<char, std::__ndk1::char_traits<char>, std::__ndk1::allocator<char> > const, std::__ndk1::unordered_map<std::__ndk1::basic_string<char, std::__ndk1::char_traits<char>, std::__ndk1::allocator<char> >, std::__ndk1::set<matjson::Value, std::__ndk1::less<matjson::Value>, std::__ndk1::allocator<matjson::Value> >, std::__ndk1::hash<std::__ndk1::basic_string<char, std::__ndk1::char_traits<char>, std::__ndk1::allocator<char> > >, std::__ndk1::equal_to<std::__ndk1::basic_string<char, std::__ndk1::char_traits<char>, std::__ndk1::allocator<char> > >, std::__ndk1::allocator<std::__ndk1::pair<std::__ndk1::basic_string<char, std::__ndk1::char_traits<char>, std::__ndk1::allocator<char> > const, std::__ndk1::set<matjson::Value, std::__ndk1::less<matjson::Value>, std::__ndk1::allocator<matjson::Value> > > > > > > >::~unordered_map[abi:ne180000]()
PUBLIC 5f440 0 std::__ndk1::unordered_map<keybinds::BindHash, std::__ndk1::vector<std::__ndk1::basic_string<char, std::__ndk1::char_traits<char>, std::__ndk1::allocator<char> >, std::__ndk1::allocator<std::__ndk1::basic_string<char, std::__ndk1::char_traits<char>, std::__ndk1::allocator<char> > > >, std::__ndk1::hash<keybinds::BindHash>, std::__ndk1::equal_to<keybinds::BindHash>, std::__ndk1::allocator<std::__ndk1::pair<keybinds::BindHash const, std::__ndk1::vector<std::__ndk1::basic_string<char, std::__ndk1::char_traits<char>, std::__ndk1::allocator<char> >, std::__ndk1::allocator<std::__ndk1::basic_string<char, std::__ndk1::char_traits<char>, std::__ndk1::allocator<char> > > > > > >::~unordered_map[abi:ne180000]()
PUBLIC 5f47c 0 std::__ndk1::pair<std::__ndk1::basic_string<char, std::__ndk1::char_traits<char>, std::__ndk1::allocator<char> > const, std::__ndk1::function<keybinds::Bind* (matjson::Value const&)> >::~pair()
PUBLIC m 5f4e0 0 keybinds::BindManager::addBindTo(std::__ndk1::basic_string<char, std::__ndk1::char_traits<char>, std::__ndk1::allocator<char> > const&, keybinds::Bind*)
PUBLIC 5f7f4 0 keybinds::DeviceEvent::~DeviceEvent()
PUBLIC m 5f834 0 keybinds::BindManager::detachDevice(std::__ndk1::basic_string<char, std::__ndk1::char_traits<char>, std::__ndk1::allocator<char> > const&)
PUBLIC m 60028 0 keybinds::BindManager::saveBind(keybinds::Bind*) const
PUBLIC m 60160 0 keybinds::BindManager::removeBindFrom(std::__ndk1::basic_string<char, std::__ndk1::char_traits<char>, std::__ndk1::allocator<char> > const&, keybinds::Bind*)
PUBLIC m 60504 0 keybinds::BindManager::loadBind(matjson::Value const&) const
PUBLIC 60688 0 geode::impl::ResultData<std::__ndk1::basic_string<char, std::__ndk1::char_traits<char>, std::__ndk1::allocator<char> >, std::__ndk1::basic_string<char, std::__ndk1::char_traits<char>, std::__ndk1::allocator<char> > >::~ResultData()
PUBLIC m 606fc 0 keybinds::BindManager::loadActionBinds(std::__ndk1::basic_string<char, std::__ndk1::char_traits<char>, std::__ndk1::allocator<char> > const&)
PUBLIC m 60f14 0 keybinds::BindManager::saveActionBinds(std::__ndk1::basic_string<char, std::__ndk1::char_traits<char>, std::__ndk1::allocator<char> > const&)
PUBLIC m 61704 0 keybinds::BindManager::getBindsFor(std::__ndk1::basic_string<char, std::__ndk1::char_traits<char>, std::__ndk1::allocator<char> > const&) const
PUBLIC m 61b54 0 keybinds::BindManager::getRepeatOptionsFor(std::__ndk1::basic_string<char, std::__ndk1::char_traits<char>, std::__ndk1::allocator<char> > const&)
PUBLIC m 61c54 0 keybinds::BindManager::registerBindable(keybinds::BindableAction const&, std::__ndk1::basic_string<char, std::__ndk1::char_traits<char>, std::__ndk1::allocator<char> > const&)
PUBLIC 62ffc 0 keybinds::BindableAction::BindableAction(keybinds::BindableAction const&)
PUBLIC 631a8 0 std::__ndk1::pair<std::__ndk1::basic_string<char, std::__ndk1::char_traits<char>, std::__ndk1::allocator<char> >, keybinds::BindManager::ActionData>::~pair()
PUBLIC m 631e4 0 keybinds::BindManager::removeBindable(std::__ndk1::basic_string<char, std::__ndk1::char_traits<char>, std::__ndk1::allocator<char> > const&)
PUBLIC m 63580 0 keybinds::BindManager::removeAllBindsFrom(std::__ndk1::basic_string<char, std::__ndk1::char_traits<char>, std::__ndk1::allocator<char> > const&)
PUBLIC m 636d4 0 keybinds::BindManager::getBindable(std::__ndk1::basic_string<char, std::__ndk1::char_traits<char>, std::__ndk1::allocator<char> > const&) const
PUBLIC m 637c0 0 keybinds::BindManager::getAllBindables() const
PUBLIC 63874 0 std::__ndk1::vector<keybinds::BindableAction, std::__ndk1::allocator<keybinds::BindableAction> >::~vector[abi:ne180000]()
PUBLIC m 638dc 0 keybinds::BindManager::getBindablesIn(keybinds::Category const&, bool) const
PUBLIC m 63b94 0 keybinds::BindManager::getBindablesFor(keybinds::Bind*) const
PUBLIC 63edc 0 keybinds::BindHash::~BindHash()
PUBLIC m 63ef8 0 keybinds::BindManager::getAllCategories() const
PUBLIC m 63f20 0 keybinds::BindManager::removeCategory(keybinds::Category const&)
PUBLIC m 642d4 0 keybinds::BindManager::resetBindsToDefault(std::__ndk1::basic_string<char, std::__ndk1::char_traits<char>, std::__ndk1::allocator<char> > const&)
PUBLIC m 6468c 0 keybinds::BindManager::setRepeatOptionsFor(std::__ndk1::basic_string<char, std::__ndk1::char_traits<char>, std::__ndk1::allocator<char> > const&, keybinds::RepeatOptions const&)
PUBLIC m 647e8 0 keybinds::BindManager::hasDefaultBinds(std::__ndk1::basic_string<char, std::__ndk1::char_traits<char>, std::__ndk1::allocator<char> > const&) const
PUBLIC m 64c68 0 keybinds::BindManager::isActionBindHeld(std::__ndk1::basic_string<char, std::__ndk1::char_traits<char>, std::__ndk1::allocator<char> > const&, keybinds::Bind*)
PUBLIC m 64dc4 0 keybinds::BindManager::repeat(std::__ndk1::basic_string<char, std::__ndk1::char_traits<char>, std::__ndk1::allocator<char> > const&)
PUBLIC m 654f0 0 keybinds::BindManager::unrepeat(std::__ndk1::basic_string<char, std::__ndk1::char_traits<char>, std::__ndk1::allocator<char> > const&)
PUBLIC m 658b4 0 keybinds::BindManager::markActionBindHeld(std::__ndk1::basic_string<char, std::__ndk1::char_traits<char>, std::__ndk1::allocator<char> > const&, keybinds::Bind*)
PUBLIC m 66694 0 keybinds::BindManager::unmarkActionBindHeld(std::__ndk1::basic_string<char, std::__ndk1::char_traits<char>, std::__ndk1::allocator<char> > const&, keybinds::Bind*)
PUBLIC 66d60 0 keybinds::InvokeBindEvent::~InvokeBindEvent()
PUBLIC 66da0 0 std::__ndk1::pair<std::__ndk1::basic_string<char, std::__ndk1::char_traits<char>, std::__ndk1::allocator<char> >, std::__ndk1::unordered_set<unsigned long, std::__ndk1::hash<unsigned long>, std::__ndk1::equal_to<unsigned long>, std::__ndk1::allocator<unsigned long> > >::~pair()
PUBLIC 66dfc 0 std::__ndk1::unordered_set<unsigned long, std::__ndk1::hash<unsigned long>, std::__ndk1::equal_to<unsigned long>, std::__ndk1::allocator<unsigned long> >::~unordered_set[abi:ne180000]()
PUBLIC m 66e48 0 keybinds::BindManager::onRepeat(float)
PUBLIC m 67030 0 keybinds::BindManager::save()
PUBLIC 67298 0 geodeExecFunction751<(anonymous namespace)::ExecFuncUnique751>(geode::ModStateEvent*)
PUBLIC 67338 0 keybinds::Bind::~Bind()
PUBLIC 6733c 0 keybinds::InvokeBindEvent::~InvokeBindEvent()
PUBLIC 67380 0 keybinds::PressBindEvent::~PressBindEvent()
PUBLIC 673a4 0 keybinds::DeviceEvent::~DeviceEvent()
PUBLIC 673e8 0 keybinds::BindManager::~BindManager()
PUBLIC 67608 0 keybinds::BindManager::~BindManager()
PUBLIC 6762c 0 std::__ndk1::__throw_out_of_range[abi:ne180000](char const*)
PUBLIC 6767c 0 std::out_of_range::out_of_range[abi:ne180000](char const*)
PUBLIC 676ac 0 std::__ndk1::vector<geode::Ref<keybinds::Bind>, std::__ndk1::allocator<geode::Ref<keybinds::Bind> > >::__init_with_size[abi:ne180000]<geode::Ref<keybinds::Bind>*, std::__ndk1::vector<geode::Ref<keybinds::Bind>, std::__ndk1::allocator<geode::Ref<keybinds::Bind> > >::__init_with_size[abi:ne180000]>(geode::Ref<keybinds::Bind>*, std::__ndk1::vector<geode::Ref<keybinds::Bind>, std::__ndk1::allocator<geode::Ref<keybinds::Bind> > >::__init_with_size[abi:ne180000], unsigned long)
PUBLIC 677e8 0 std::__ndk1::vector<geode::Ref<keybinds::Bind>, std::__ndk1::allocator<geode::Ref<keybinds::Bind> > >::__throw_length_error[abi:ne180000]() const
PUBLIC 677fc 0 geode::EventListener<keybinds::PressBindFilter>::getPool() const
PUBLIC 67800 0 geode::EventListener<keybinds::PressBindFilter>::handle(geode::Event*)
PUBLIC 679a0 0 geode::EventListener<keybinds::PressBindFilter>::~EventListener()
PUBLIC 67a04 0 _ZN5geode15UnwrapExceptionC2IRNSt6__ndk112basic_stringIcNS2_11char_traitsIcEENS2_9allocatorIcEEEEQsr4implE18IsStringStreamableIT_EEENS_4impl6ErrTagEOSA_
PUBLIC 67b6c 0 std::__ndk1::__variant_detail::__visitation::__base::__dispatcher<(unsigned long)0>::__dispatch[abi:ne180000]<std::__ndk1::__variant_detail::__dtor<std::__ndk1::__variant_detail::__traits<std::__ndk1::basic_string<char, std::__ndk1::char_traits<char>, std::__ndk1::allocator<char> >, std::__ndk1::allocator<char> >, (std::__ndk1::__variant_detail::_Trait)1>::__destroy[abi:ne180000]()::{lambda(auto:1&)#1}, std::__ndk1::__variant_detail::__base<(std::__ndk1::__variant_detail::__traits<std::__ndk1::basic_string<char, std::__ndk1::char_traits<char>, std::__ndk1::allocator<char> >, std::__ndk1::allocator<char> >)1, std::__ndk1::allocator<char>, std::__ndk1::allocator<char> >&>(std::__ndk1::__variant_detail::__dtor<std::__ndk1::__variant_detail::__traits<std::__ndk1::basic_string<char, std::__ndk1::char_traits<char>, std::__ndk1::allocator<char> >, std::__ndk1::allocator<char> >, (std::__ndk1::__variant_detail::_Trait)1>, std::__ndk1::__variant_detail::__base<(std::__ndk1::__variant_detail::__traits<std::__ndk1::basic_string<char, std::__ndk1::char_traits<char>, std::__ndk1::allocator<char> >, std::__ndk1::allocator<char> >)1, std::__ndk1::allocator<char>, std::__ndk1::allocator<char> >&)
PUBLIC 67b80 0 std::__ndk1::__variant_detail::__visitation::__base::__dispatcher<(unsigned long)1>::__dispatch[abi:ne180000]<std::__ndk1::__variant_detail::__dtor<std::__ndk1::__variant_detail::__traits<std::__ndk1::basic_string<char, std::__ndk1::char_traits<char>, std::__ndk1::allocator<char> >, std::__ndk1::allocator<char> >, (std::__ndk1::__variant_detail::_Trait)1>::__destroy[abi:ne180000]()::{lambda(auto:1&)#1}, std::__ndk1::__variant_detail::__base<(std::__ndk1::__variant_detail::__traits<std::__ndk1::basic_string<char, std::__ndk1::char_traits<char>, std::__ndk1::allocator<char> >, std::__ndk1::allocator<char> >)1, std::__ndk1::allocator<char>, std::__ndk1::allocator<char> >&>(std::__ndk1::__variant_detail::__dtor<std::__ndk1::__variant_detail::__traits<std::__ndk1::basic_string<char, std::__ndk1::char_traits<char>, std::__ndk1::allocator<char> >, std::__ndk1::allocator<char> >, (std::__ndk1::__variant_detail::_Trait)1>, std::__ndk1::__variant_detail::__base<(std::__ndk1::__variant_detail::__traits<std::__ndk1::basic_string<char, std::__ndk1::char_traits<char>, std::__ndk1::allocator<char> >, std::__ndk1::allocator<char> >)1, std::__ndk1::allocator<char>, std::__ndk1::allocator<char> >&)
PUBLIC 67b94 0 geode::Mod::getSavedValue<matjson::Value>(std::__ndk1::basic_string_view<char, std::__ndk1::char_traits<char> >)
PUBLIC 67d68 0 geode::impl::ResultData<bool, std::__ndk1::basic_string<char, std::__ndk1::char_traits<char>, std::__ndk1::allocator<char> > >::~ResultData()
PUBLIC 67ddc 0 geode::impl::ResultData<matjson::Value&, std::__ndk1::basic_string<char, std::__ndk1::char_traits<char>, std::__ndk1::allocator<char> > >::~ResultData()
PUBLIC 67e50 0 geode::impl::ResultData<matjson::Value, std::__ndk1::basic_string<char, std::__ndk1::char_traits<char>, std::__ndk1::allocator<char> > >::~ResultData()
PUBLIC 67ec4 0 std::__ndk1::__variant_detail::__visitation::__base::__dispatcher<(unsigned long)0>::__dispatch[abi:ne180000]<std::__ndk1::__variant_detail::__dtor<std::__ndk1::__variant_detail::__traits<std::__ndk1::reference_wrapper<matjson::Value>, std::__ndk1::basic_string<char, std::__ndk1::char_traits<char>, std::__ndk1::allocator<char> > >, (std::__ndk1::__variant_detail::_Trait)1>::__destroy[abi:ne180000]()::{lambda(auto:1&)#1}, std::__ndk1::__variant_detail::__base<(std::__ndk1::__variant_detail::__traits<std::__ndk1::reference_wrapper<matjson::Value>, std::__ndk1::basic_string<char, std::__ndk1::char_traits<char>, std::__ndk1::allocator<char> > >)1, matjson::Value, std::__ndk1::allocator<char> >&>(std::__ndk1::__variant_detail::__dtor<std::__ndk1::__variant_detail::__traits<std::__ndk1::reference_wrapper<matjson::Value>, std::__ndk1::basic_string<char, std::__ndk1::char_traits<char>, std::__ndk1::allocator<char> > >, (std::__ndk1::__variant_detail::_Trait)1>, std::__ndk1::__variant_detail::__base<(std::__ndk1::__variant_detail::__traits<std::__ndk1::reference_wrapper<matjson::Value>, std::__ndk1::basic_string<char, std::__ndk1::char_traits<char>, std::__ndk1::allocator<char> > >)1, matjson::Value, std::__ndk1::allocator<char> >&)
PUBLIC 67ec8 0 std::__ndk1::__variant_detail::__visitation::__base::__dispatcher<(unsigned long)1>::__dispatch[abi:ne180000]<std::__ndk1::__variant_detail::__dtor<std::__ndk1::__variant_detail::__traits<std::__ndk1::reference_wrapper<matjson::Value>, std::__ndk1::basic_string<char, std::__ndk1::char_traits<char>, std::__ndk1::allocator<char> > >, (std::__ndk1::__variant_detail::_Trait)1>::__destroy[abi:ne180000]()::{lambda(auto:1&)#1}, std::__ndk1::__variant_detail::__base<(std::__ndk1::__variant_detail::__traits<std::__ndk1::reference_wrapper<matjson::Value>, std::__ndk1::basic_string<char, std::__ndk1::char_traits<char>, std::__ndk1::allocator<char> > >)1, matjson::Value, std::__ndk1::allocator<char> >&>(std::__ndk1::__variant_detail::__dtor<std::__ndk1::__variant_detail::__traits<std::__ndk1::reference_wrapper<matjson::Value>, std::__ndk1::basic_string<char, std::__ndk1::char_traits<char>, std::__ndk1::allocator<char> > >, (std::__ndk1::__variant_detail::_Trait)1>, std::__ndk1::__variant_detail::__base<(std::__ndk1::__variant_detail::__traits<std::__ndk1::reference_wrapper<matjson::Value>, std::__ndk1::basic_string<char, std::__ndk1::char_traits<char>, std::__ndk1::allocator<char> > >)1, matjson::Value, std::__ndk1::allocator<char> >&)
PUBLIC 67edc 0 std::__ndk1::__variant_detail::__visitation::__base::__dispatcher<(unsigned long)0>::__dispatch[abi:ne180000]<std::__ndk1::__variant_detail::__dtor<std::__ndk1::__variant_detail::__traits<matjson::Value, std::__ndk1::basic_string<char, std::__ndk1::char_traits<char>, std::__ndk1::allocator<char> > >, (std::__ndk1::__variant_detail::_Trait)1>::__destroy[abi:ne180000]()::{lambda(auto:1&)#1}, std::__ndk1::__variant_detail::__base<(std::__ndk1::__variant_detail::__traits<matjson::Value, std::__ndk1::basic_string<char, std::__ndk1::char_traits<char>, std::__ndk1::allocator<char> > >)1, matjson, std::__ndk1::allocator<char> >&>(std::__ndk1::__variant_detail::__dtor<std::__ndk1::__variant_detail::__traits<matjson::Value, std::__ndk1::basic_string<char, std::__ndk1::char_traits<char>, std::__ndk1::allocator<char> > >, (std::__ndk1::__variant_detail::_Trait)1>, std::__ndk1::__variant_detail::__base<(std::__ndk1::__variant_detail::__traits<matjson::Value, std::__ndk1::basic_string<char, std::__ndk1::char_traits<char>, std::__ndk1::allocator<char> > >)1, matjson, std::__ndk1::allocator<char> >&)
PUBLIC 67ee4 0 std::__ndk1::__variant_detail::__visitation::__base::__dispatcher<(unsigned long)1>::__dispatch[abi:ne180000]<std::__ndk1::__variant_detail::__dtor<std::__ndk1::__variant_detail::__traits<matjson::Value, std::__ndk1::basic_string<char, std::__ndk1::char_traits<char>, std::__ndk1::allocator<char> > >, (std::__ndk1::__variant_detail::_Trait)1>::__destroy[abi:ne180000]()::{lambda(auto:1&)#1}, std::__ndk1::__variant_detail::__base<(std::__ndk1::__variant_detail::__traits<matjson::Value, std::__ndk1::basic_string<char, std::__ndk1::char_traits<char>, std::__ndk1::allocator<char> > >)1, matjson, std::__ndk1::allocator<char> >&>(std::__ndk1::__variant_detail::__dtor<std::__ndk1::__variant_detail::__traits<matjson::Value, std::__ndk1::basic_string<char, std::__ndk1::char_traits<char>, std::__ndk1::allocator<char> > >, (std::__ndk1::__variant_detail::_Trait)1>, std::__ndk1::__variant_detail::__base<(std::__ndk1::__variant_detail::__traits<matjson::Value, std::__ndk1::basic_string<char, std::__ndk1::char_traits<char>, std::__ndk1::allocator<char> > >)1, matjson, std::__ndk1::allocator<char> >&)
PUBLIC 67ef8 0 std::__ndk1::unique_ptr<std::__ndk1::__tree_node<matjson::Value, void*>, std::__ndk1::__tree_node_destructor<std::__ndk1::allocator<std::__ndk1::__tree_node<matjson::Value, void*> > > >::~unique_ptr[abi:ne180000]()
PUBLIC 67f3c 0 std::__ndk1::__variant_detail::__visitation::__base::__dispatcher<(unsigned long)0>::__dispatch[abi:ne180000]<std::__ndk1::__variant_detail::__dtor<std::__ndk1::__variant_detail::__traits<bool, std::__ndk1::basic_string<char, std::__ndk1::char_traits<char>, std::__ndk1::allocator<char> > >, (std::__ndk1::__variant_detail::_Trait)1>::__destroy[abi:ne180000]()::{lambda(auto:1&)#1}, std::__ndk1::__variant_detail::__base<(std::__ndk1::__variant_detail::__traits<bool, std::__ndk1::basic_string<char, std::__ndk1::char_traits<char>, std::__ndk1::allocator<char> > >)1, bool, std::__ndk1::allocator<char> >&>(std::__ndk1::__variant_detail::__dtor<std::__ndk1::__variant_detail::__traits<bool, std::__ndk1::basic_string<char, std::__ndk1::char_traits<char>, std::__ndk1::allocator<char> > >, (std::__ndk1::__variant_detail::_Trait)1>, std::__ndk1::__variant_detail::__base<(std::__ndk1::__variant_detail::__traits<bool, std::__ndk1::basic_string<char, std::__ndk1::char_traits<char>, std::__ndk1::allocator<char> > >)1, bool, std::__ndk1::allocator<char> >&)
PUBLIC 67f40 0 std::__ndk1::__variant_detail::__visitation::__base::__dispatcher<(unsigned long)1>::__dispatch[abi:ne180000]<std::__ndk1::__variant_detail::__dtor<std::__ndk1::__variant_detail::__traits<bool, std::__ndk1::basic_string<char, std::__ndk1::char_traits<char>, std::__ndk1::allocator<char> > >, (std::__ndk1::__variant_detail::_Trait)1>::__destroy[abi:ne180000]()::{lambda(auto:1&)#1}, std::__ndk1::__variant_detail::__base<(std::__ndk1::__variant_detail::__traits<bool, std::__ndk1::basic_string<char, std::__ndk1::char_traits<char>, std::__ndk1::allocator<char> > >)1, bool, std::__ndk1::allocator<char> >&>(std::__ndk1::__variant_detail::__dtor<std::__ndk1::__variant_detail::__traits<bool, std::__ndk1::basic_string<char, std::__ndk1::char_traits<char>, std::__ndk1::allocator<char> > >, (std::__ndk1::__variant_detail::_Trait)1>, std::__ndk1::__variant_detail::__base<(std::__ndk1::__variant_detail::__traits<bool, std::__ndk1::basic_string<char, std::__ndk1::char_traits<char>, std::__ndk1::allocator<char> > >)1, bool, std::__ndk1::allocator<char> >&)
PUBLIC 67f54 0 std::__ndk1::__split_buffer<std::__ndk1::pair<std::__ndk1::basic_string<char, std::__ndk1::char_traits<char>, std::__ndk1::allocator<char> >, keybinds::BindManager::ActionData>, std::__ndk1::allocator<std::__ndk1::pair<std::__ndk1::basic_string<char, std::__ndk1::char_traits<char>, std::__ndk1::allocator<char> >, keybinds::BindManager::ActionData> >&>::~__split_buffer()
PUBLIC 67fc8 0 keybinds::BindableAction::operator=(keybinds::BindableAction&&)
PUBLIC 68110 0 std::__ndk1::vector<std::__ndk1::pair<std::__ndk1::basic_string<char, std::__ndk1::char_traits<char>, std::__ndk1::allocator<char> >, keybinds::BindManager::ActionData>, std::__ndk1::allocator<std::__ndk1::pair<std::__ndk1::basic_string<char, std::__ndk1::char_traits<char>, std::__ndk1::allocator<char> >, keybinds::BindManager::ActionData> > >::__throw_length_error[abi:ne180000]() const
PUBLIC 68124 0 std::__ndk1::vector<keybinds::BindableAction, std::__ndk1::allocator<keybinds::BindableAction> >::__push_back_slow_path<keybinds::BindableAction const&>(keybinds::BindableAction const&)
PUBLIC 68378 0 std::__ndk1::__split_buffer<keybinds::BindableAction, std::__ndk1::allocator<keybinds::BindableAction>&>::~__split_buffer()
PUBLIC 683cc 0 std::__ndk1::vector<keybinds::BindableAction, std::__ndk1::allocator<keybinds::BindableAction> >::__throw_length_error[abi:ne180000]() const
PUBLIC 683e0 0 std::__ndk1::vector<keybinds::Category, std::__ndk1::allocator<keybinds::Category> >::__init_with_size[abi:ne180000]<keybinds::Category*, std::__ndk1::vector<keybinds::Category, std::__ndk1::allocator<keybinds::Category> >::__init_with_size[abi:ne180000]>(keybinds::Category*, std::__ndk1::vector<keybinds::Category, std::__ndk1::allocator<keybinds::Category> >::__init_with_size[abi:ne180000], unsigned long)
PUBLIC 68548 0 std::__ndk1::__exception_guard_exceptions<std::__ndk1::vector<keybinds::Category, std::__ndk1::allocator<keybinds::Category> >::__destroy_vector>::~__exception_guard_exceptions[abi:ne180000]()
PUBLIC 685d4 0 std::__ndk1::vector<keybinds::Category, std::__ndk1::allocator<keybinds::Category> >::__throw_length_error[abi:ne180000]() const
PUBLIC 685e8 0 std::__ndk1::__exception_guard_exceptions<std::__ndk1::_AllocatorDestroyRangeReverse<std::__ndk1::allocator<keybinds::Category>, keybinds::Category*> >::~__exception_guard_exceptions[abi:ne180000]()
PUBLIC 68648 0 std::__ndk1::__split_buffer<keybinds::Category, std::__ndk1::allocator<keybinds::Category>&>::~__split_buffer()
PUBLIC 686b0 0 std::__ndk1::basic_string<char, std::__ndk1::char_traits<char>, std::__ndk1::allocator<char> >::__assign_no_alias<true>(char const*, unsigned long)
PUBLIC 6875c 0 std::__ndk1::basic_string<char, std::__ndk1::char_traits<char>, std::__ndk1::allocator<char> >::__assign_no_alias<false>(char const*, unsigned long)
PUBLIC 6886c 0 std::__ndk1::__split_buffer<geode::Ref<keybinds::Bind>, std::__ndk1::allocator<geode::Ref<keybinds::Bind> >&>::~__split_buffer()
PUBLIC 688c4 0 std::__ndk1::__introsort<std::__ndk1::_ClassicAlgPolicy, keybinds::BindManager::getBindsFor(std::__ndk1::basic_string<char, std::__ndk1::char_traits<char>, std::__ndk1::allocator<char> > const&) const::$_0&, geode::Ref<keybinds::Bind>*, false>(geode::Ref<keybinds::Bind>*, geode::Ref<keybinds::Bind>*, keybinds::BindManager::getBindsFor(std::__ndk1::basic_string<char, std::__ndk1::char_traits<char>, std::__ndk1::allocator<char> > const&) const::$_0&, std::__ndk1::iterator_traits<geode::Ref<keybinds::Bind>*>::difference_type, bool)
PUBLIC 693f4 0 _ZNSt6__ndk124__sort5_maybe_branchlessB8ne180000INS_17_ClassicAlgPolicyERZNK8keybinds11BindManager11getBindsForERKNS_12basic_stringIcNS_11char_traitsIcEENS_9allocatorIcEEEEE3$_0PN5geode3RefINS2_4BindEEETnNS_9enable_ifIXntsr21__use_branchless_sortIT0_T1_EE5valueEiE4typeELi0EEEvSL_SL_SL_SL_SL_SK_
PUBLIC 69544 0 std::__ndk1::__sort3[abi:ne180000]<std::__ndk1::_ClassicAlgPolicy, keybinds::BindManager::getBindsFor(std::__ndk1::basic_string<char, std::__ndk1::char_traits<char>, std::__ndk1::allocator<char> > const&) const::$_0&, geode::Ref<std::__ndk1::_ClassicAlgPolicy::Bind>*>(geode::Ref<std::__ndk1::_ClassicAlgPolicy::Bind>*, geode::Ref<std::__ndk1::_ClassicAlgPolicy::Bind>*, geode::Ref<std::__ndk1::_ClassicAlgPolicy::Bind>*, keybinds::BindManager::getBindsFor(std::__ndk1::basic_string<char, std::__ndk1::char_traits<char>, std::__ndk1::allocator<char> > const&) const::$_0&)
PUBLIC 696d0 0 std::__ndk1::__insertion_sort_incomplete[abi:ne180000]<std::__ndk1::_ClassicAlgPolicy, keybinds::BindManager::getBindsFor(std::__ndk1::basic_string<char, std::__ndk1::char_traits<char>, std::__ndk1::allocator<char> > const&) const::$_0&, geode::Ref<std::__ndk1::_ClassicAlgPolicy::Bind>*>(geode::Ref<std::__ndk1::_ClassicAlgPolicy::Bind>*, geode::Ref<std::__ndk1::_ClassicAlgPolicy::Bind>*, keybinds::BindManager::getBindsFor(std::__ndk1::basic_string<char, std::__ndk1::char_traits<char>, std::__ndk1::allocator<char> > const&) const::$_0&)
PUBLIC 69974 0 std::__ndk1::__sort4[abi:ne180000]<std::__ndk1::_ClassicAlgPolicy, keybinds::BindManager::getBindsFor(std::__ndk1::basic_string<char, std::__ndk1::char_traits<char>, std::__ndk1::allocator<char> > const&) const::$_0&, geode::Ref<std::__ndk1::_ClassicAlgPolicy::Bind>*>(geode::Ref<std::__ndk1::_ClassicAlgPolicy::Bind>*, geode::Ref<std::__ndk1::_ClassicAlgPolicy::Bind>*, geode::Ref<std::__ndk1::_ClassicAlgPolicy::Bind>*, geode::Ref<std::__ndk1::_ClassicAlgPolicy::Bind>*, keybinds::BindManager::getBindsFor(std::__ndk1::basic_string<char, std::__ndk1::char_traits<char>, std::__ndk1::allocator<char> > const&) const::$_0&)
PUBLIC 69a7c 0 std::__ndk1::vector<geode::Ref<keybinds::Bind>, std::__ndk1::allocator<geode::Ref<keybinds::Bind> > >::__throw_out_of_range[abi:ne180000]() const
PUBLIC 69a90 0 std::__ndk1::__hash_table<unsigned long, std::__ndk1::hash<unsigned long>, std::__ndk1::equal_to<unsigned long>, std::__ndk1::allocator<unsigned long> >::~__hash_table()
PUBLIC 69adc 0 std::__ndk1::__hash_table<unsigned long, std::__ndk1::hash<unsigned long>, std::__ndk1::equal_to<unsigned long>, std::__ndk1::allocator<unsigned long> >::__do_rehash<true>(unsigned long)
PUBLIC 69c88 0 std::__ndk1::__hash_table<unsigned long, std::__ndk1::hash<unsigned long>, std::__ndk1::equal_to<unsigned long>, std::__ndk1::allocator<unsigned long> >::__emplace_unique_key_args<unsigned long, unsigned long const&>(unsigned long const&, unsigned long const&)
PUBLIC 69f5c 0 std::__ndk1::__murmur2_or_cityhash<unsigned long, (unsigned long)64>::operator()[abi:ne180000](void const*, unsigned long) const
PUBLIC 6a3b4 0 std::__ndk1::__function::__base<geode::ListenerResult(keybinds::PressBindEvent*)>::~__base()
PUBLIC 6a3b8 0 std::__ndk1::__function::__func<std::__ndk1::__bind<geode::ListenerResult (keybinds::BindManager&::*)(keybinds::PressBindEvent*), keybinds::BindManager*&, std::__ndk1::placeholders::__ph<1> const&>, std::__ndk1::allocator<std::__ndk1::__bind<geode::ListenerResult (keybinds::BindManager&::*)(keybinds::PressBindEvent*), keybinds::BindManager*&, std::__ndk1::placeholders::__ph<1> const&> >, geode::ListenerResult(keybinds::PressBindEvent*)>::~__func()
PUBLIC 6a3bc 0 std::__ndk1::__function::__func<std::__ndk1::__bind<geode::ListenerResult (keybinds::BindManager&::*)(keybinds::PressBindEvent*), keybinds::BindManager*&, std::__ndk1::placeholders::__ph<1> const&>, std::__ndk1::allocator<std::__ndk1::__bind<geode::ListenerResult (keybinds::BindManager&::*)(keybinds::PressBindEvent*), keybinds::BindManager*&, std::__ndk1::placeholders::__ph<1> const&> >, geode::ListenerResult(keybinds::PressBindEvent*)>::__clone() const
PUBLIC 6a3fc 0 std::__ndk1::__function::__func<std::__ndk1::__bind<geode::ListenerResult (keybinds::BindManager&::*)(keybinds::PressBindEvent*), keybinds::BindManager*&, std::__ndk1::placeholders::__ph<1> const&>, std::__ndk1::allocator<std::__ndk1::__bind<geode::ListenerResult (keybinds::BindManager&::*)(keybinds::PressBindEvent*), keybinds::BindManager*&, std::__ndk1::placeholders::__ph<1> const&> >, geode::ListenerResult(keybinds::PressBindEvent*)>::__clone(std::__ndk1::__function::__base<geode::ListenerResult(keybinds::PressBindEvent*)>*) const
PUBLIC 6a41c 0 std::__ndk1::__function::__func<std::__ndk1::__bind<geode::ListenerResult (keybinds::BindManager&::*)(keybinds::PressBindEvent*), keybinds::BindManager*&, std::__ndk1::placeholders::__ph<1> const&>, std::__ndk1::allocator<std::__ndk1::__bind<geode::ListenerResult (keybinds::BindManager&::*)(keybinds::PressBindEvent*), keybinds::BindManager*&, std::__ndk1::placeholders::__ph<1> const&> >, geode::ListenerResult(keybinds::PressBindEvent*)>::destroy()
PUBLIC 6a420 0 std::__ndk1::__function::__func<std::__ndk1::__bind<geode::ListenerResult (keybinds::BindManager&::*)(keybinds::PressBindEvent*), keybinds::BindManager*&, std::__ndk1::placeholders::__ph<1> const&>, std::__ndk1::allocator<std::__ndk1::__bind<geode::ListenerResult (keybinds::BindManager&::*)(keybinds::PressBindEvent*), keybinds::BindManager*&, std::__ndk1::placeholders::__ph<1> const&> >, geode::ListenerResult(keybinds::PressBindEvent*)>::destroy_deallocate()
PUBLIC 6a424 0 std::__ndk1::__function::__func<std::__ndk1::__bind<geode::ListenerResult (keybinds::BindManager&::*)(keybinds::PressBindEvent*), keybinds::BindManager*&, std::__ndk1::placeholders::__ph<1> const&>, std::__ndk1::allocator<std::__ndk1::__bind<geode::ListenerResult (keybinds::BindManager&::*)(keybinds::PressBindEvent*), keybinds::BindManager*&, std::__ndk1::placeholders::__ph<1> const&> >, geode::ListenerResult(keybinds::PressBindEvent*)>::operator()(keybinds::PressBindEvent*&&)
PUBLIC 6a444 0 std::__ndk1::__function::__func<std::__ndk1::__bind<geode::ListenerResult (keybinds::BindManager&::*)(keybinds::PressBindEvent*), keybinds::BindManager*&, std::__ndk1::placeholders::__ph<1> const&>, std::__ndk1::allocator<std::__ndk1::__bind<geode::ListenerResult (keybinds::BindManager&::*)(keybinds::PressBindEvent*), keybinds::BindManager*&, std::__ndk1::placeholders::__ph<1> const&> >, geode::ListenerResult(keybinds::PressBindEvent*)>::target(std::type_info const&) const
PUBLIC 6a460 0 std::__ndk1::__function::__func<std::__ndk1::__bind<geode::ListenerResult (keybinds::BindManager&::*)(keybinds::PressBindEvent*), keybinds::BindManager*&, std::__ndk1::placeholders::__ph<1> const&>, std::__ndk1::allocator<std::__ndk1::__bind<geode::ListenerResult (keybinds::BindManager&::*)(keybinds::PressBindEvent*), keybinds::BindManager*&, std::__ndk1::placeholders::__ph<1> const&> >, geode::ListenerResult(keybinds::PressBindEvent*)>::target_type() const
PUBLIC 6a46c 0 std::__ndk1::__hash_table<std::__ndk1::__hash_value_type<keybinds::BindHash, std::__ndk1::vector<std::__ndk1::basic_string<char, std::__ndk1::char_traits<char>, std::__ndk1::allocator<char> >, std::__ndk1::allocator<std::__ndk1::basic_string<char, std::__ndk1::char_traits<char>, std::__ndk1::allocator<char> > > > >, std::__ndk1::__unordered_map_hasher<keybinds::BindHash, std::__ndk1::__hash_value_type<keybinds::BindHash, std::__ndk1::vector<std::__ndk1::basic_string<char, std::__ndk1::char_traits<char>, std::__ndk1::allocator<char> >, std::__ndk1::allocator<std::__ndk1::basic_string<char, std::__ndk1::char_traits<char>, std::__ndk1::allocator<char> > > > >, std::__ndk1::hash<keybinds::BindHash>, std::__ndk1::equal_to<keybinds::BindHash>, true>, std::__ndk1::__unordered_map_equal<keybinds::BindHash, std::__ndk1::__hash_value_type<keybinds::BindHash, std::__ndk1::vector<std::__ndk1::basic_string<char, std::__ndk1::char_traits<char>, std::__ndk1::allocator<char> >, std::__ndk1::allocator<std::__ndk1::basic_string<char, std::__ndk1::char_traits<char>, std::__ndk1::allocator<char> > > > >, std::__ndk1::equal_to<keybinds::BindHash>, std::__ndk1::hash<keybinds::BindHash>, true>, std::__ndk1::allocator<std::__ndk1::__hash_value_type<keybinds::BindHash, std::__ndk1::vector<std::__ndk1::basic_string<char, std::__ndk1::char_traits<char>, std::__ndk1::allocator<char> >, std::__ndk1::allocator<std::__ndk1::basic_string<char, std::__ndk1::char_traits<char>, std::__ndk1::allocator<char> > > > > > >::__deallocate_node(std::__ndk1::__hash_node_base<std::__ndk1::__hash_node<std::__ndk1::__hash_value_type<keybinds::BindHash, std::__ndk1::vector<std::__ndk1::basic_string<char, std::__ndk1::char_traits<char>, std::__ndk1::allocator<char> >, std::__ndk1::allocator<std::__ndk1::basic_string<char, std::__ndk1::char_traits<char>, std::__ndk1::allocator<char> > > > >, void*>*>*)
PUBLIC 6a50c 0 _ZNSt6__ndk112__destroy_atB8ne180000INS_4pairIKNS_12basic_stringIcNS_11char_traitsIcEENS_9allocatorIcEEEENS_13unordered_mapIS7_NS_3setIN7matjson5ValueENS_4lessISC_EENS5_ISC_EEEENS_4hashIS7_EENS_8equal_toIS7_EENS5_INS1_IS8_SG_EEEEEEEETnNS_9enable_ifIXntsr8is_arrayIT_EE5valueEiE4typeELi0EEEvPSQ_
PUBLIC 6a594 0 std::__ndk1::__tree<matjson::Value, std::__ndk1::less<matjson::Value>, std::__ndk1::allocator<matjson::Value> >::destroy(std::__ndk1::__tree_node<matjson::Value, void*>*)
PUBLIC 6a5d8 0 std::__ndk1::__hash_table<std::__ndk1::__hash_value_type<std::__ndk1::basic_string<char, std::__ndk1::char_traits<char>, std::__ndk1::allocator<char> >, std::__ndk1::unordered_set<unsigned long, std::__ndk1::hash<unsigned long>, std::__ndk1::equal_to<unsigned long>, std::__ndk1::allocator<unsigned long> > >, std::__ndk1::__unordered_map_hasher<std::__ndk1::basic_string<char, std::__ndk1::char_traits<char>, std::__ndk1::allocator<char> >, std::__ndk1::__hash_value_type<std::__ndk1::basic_string<char, std::__ndk1::char_traits<char>, std::__ndk1::allocator<char> >, std::__ndk1::unordered_set<unsigned long, std::__ndk1::hash<unsigned long>, std::__ndk1::equal_to<unsigned long>, std::__ndk1::allocator<unsigned long> > >, std::__ndk1::hash<std::__ndk1::basic_string<char, std::__ndk1::char_traits<char>, std::__ndk1::allocator<char> > >, std::__ndk1::equal_to<std::__ndk1::basic_string<char, std::__ndk1::char_traits<char>, std::__ndk1::allocator<char> > >, true>, std::__ndk1::__unordered_map_equal<std::__ndk1::basic_string<char, std::__ndk1::char_traits<char>, std::__ndk1::allocator<char> >, std::__ndk1::__hash_value_type<std::__ndk1::basic_string<char, std::__ndk1::char_traits<char>, std::__ndk1::allocator<char> >, std::__ndk1::unordered_set<unsigned long, std::__ndk1::hash<unsigned long>, std::__ndk1::equal_to<unsigned long>, std::__ndk1::allocator<unsigned long> > >, std::__ndk1::equal_to<std::__ndk1::basic_string<char, std::__ndk1::char_traits<char>, std::__ndk1::allocator<char> > >, std::__ndk1::hash<std::__ndk1::basic_string<char, std::__ndk1::char_traits<char>, std::__ndk1::allocator<char> > >, true>, std::__ndk1::allocator<std::__ndk1::__hash_value_type<std::__ndk1::basic_string<char, std::__ndk1::char_traits<char>, std::__ndk1::allocator<char> >, std::__ndk1::unordered_set<unsigned long, std::__ndk1::hash<unsigned long>, std::__ndk1::equal_to<unsigned long>, std::__ndk1::allocator<unsigned long> > > > >::~__hash_table()
PUBLIC 6a670 0 std::__ndk1::__function::__func<keybinds::Keybind* (*)(matjson::Value const&), std::__ndk1::allocator<keybinds::Keybind* (*)(matjson::Value const&)>, keybinds::Bind* (matjson::Value const&)>::~__func()
PUBLIC 6a674 0 std::__ndk1::__function::__func<keybinds::Keybind* (*)(matjson::Value const&), std::__ndk1::allocator<keybinds::Keybind* (*)(matjson::Value const&)>, keybinds::Bind* (matjson::Value const&)>::__clone() const
PUBLIC 6a6a8 0 std::__ndk1::__function::__func<keybinds::Keybind* (*)(matjson::Value const&), std::__ndk1::allocator<keybinds::Keybind* (*)(matjson::Value const&)>, keybinds::Bind* (matjson::Value const&)>::__clone(std::__ndk1::__function::__base<keybinds::Bind* (matjson::Value const&)>*) const
PUBLIC 6a6bc 0 std::__ndk1::__function::__func<keybinds::Keybind* (*)(matjson::Value const&), std::__ndk1::allocator<keybinds::Keybind* (*)(matjson::Value const&)>, keybinds::Bind* (matjson::Value const&)>::destroy()
PUBLIC 6a6c0 0 std::__ndk1::__function::__func<keybinds::Keybind* (*)(matjson::Value const&), std::__ndk1::allocator<keybinds::Keybind* (*)(matjson::Value const&)>, keybinds::Bind* (matjson::Value const&)>::destroy_deallocate()
PUBLIC 6a6c4 0 std::__ndk1::__function::__func<keybinds::Keybind* (*)(matjson::Value const&), std::__ndk1::allocator<keybinds::Keybind* (*)(matjson::Value const&)>, keybinds::Bind* (matjson::Value const&)>::operator()(matjson::Value const&)
PUBLIC 6a6d0 0 std::__ndk1::__function::__func<keybinds::Keybind* (*)(matjson::Value const&), std::__ndk1::allocator<keybinds::Keybind* (*)(matjson::Value const&)>, keybinds::Bind* (matjson::Value const&)>::target(std::type_info const&) const
PUBLIC 6a6ec 0 std::__ndk1::__function::__func<keybinds::Keybind* (*)(matjson::Value const&), std::__ndk1::allocator<keybinds::Keybind* (*)(matjson::Value const&)>, keybinds::Bind* (matjson::Value const&)>::target_type() const
PUBLIC 6a6f8 0 std::__ndk1::__function::__base<keybinds::Bind* (matjson::Value const&)>::~__base()
PUBLIC 6a6fc 0 std::__ndk1::__function::__func<keybinds::MouseBind* (*)(matjson::Value const&), std::__ndk1::allocator<keybinds::MouseBind* (*)(matjson::Value const&)>, keybinds::Bind* (matjson::Value const&)>::~__func()
PUBLIC 6a700 0 std::__ndk1::__function::__func<keybinds::MouseBind* (*)(matjson::Value const&), std::__ndk1::allocator<keybinds::MouseBind* (*)(matjson::Value const&)>, keybinds::Bind* (matjson::Value const&)>::__clone() const
PUBLIC 6a734 0 std::__ndk1::__function::__func<keybinds::MouseBind* (*)(matjson::Value const&), std::__ndk1::allocator<keybinds::MouseBind* (*)(matjson::Value const&)>, keybinds::Bind* (matjson::Value const&)>::__clone(std::__ndk1::__function::__base<keybinds::Bind* (matjson::Value const&)>*) const
PUBLIC 6a748 0 std::__ndk1::__function::__func<keybinds::MouseBind* (*)(matjson::Value const&), std::__ndk1::allocator<keybinds::MouseBind* (*)(matjson::Value const&)>, keybinds::Bind* (matjson::Value const&)>::destroy()
PUBLIC 6a74c 0 std::__ndk1::__function::__func<keybinds::MouseBind* (*)(matjson::Value const&), std::__ndk1::allocator<keybinds::MouseBind* (*)(matjson::Value const&)>, keybinds::Bind* (matjson::Value const&)>::destroy_deallocate()
PUBLIC 6a750 0 std::__ndk1::__function::__func<keybinds::MouseBind* (*)(matjson::Value const&), std::__ndk1::allocator<keybinds::MouseBind* (*)(matjson::Value const&)>, keybinds::Bind* (matjson::Value const&)>::operator()(matjson::Value const&)
PUBLIC 6a75c 0 std::__ndk1::__function::__func<keybinds::MouseBind* (*)(matjson::Value const&), std::__ndk1::allocator<keybinds::MouseBind* (*)(matjson::Value const&)>, keybinds::Bind* (matjson::Value const&)>::target(std::type_info const&) const
PUBLIC 6a778 0 std::__ndk1::__function::__func<keybinds::MouseBind* (*)(matjson::Value const&), std::__ndk1::allocator<keybinds::MouseBind* (*)(matjson::Value const&)>, keybinds::Bind* (matjson::Value const&)>::target_type() const
PUBLIC 6a784 0 std::__ndk1::__hash_table<std::__ndk1::__hash_value_type<std::__ndk1::basic_string<char, std::__ndk1::char_traits<char>, std::__ndk1::allocator<char> >, std::__ndk1::function<keybinds::Bind* (matjson::Value const&)> >, std::__ndk1::__unordered_map_hasher<std::__ndk1::basic_string<char, std::__ndk1::char_traits<char>, std::__ndk1::allocator<char> >, std::__ndk1::__hash_value_type<std::__ndk1::basic_string<char, std::__ndk1::char_traits<char>, std::__ndk1::allocator<char> >, std::__ndk1::function<keybinds::Bind* (matjson::Value const&)> >, std::__ndk1::hash<std::__ndk1::basic_string<char, std::__ndk1::char_traits<char>, std::__ndk1::allocator<char> > >, std::__ndk1::equal_to<std::__ndk1::basic_string<char, std::__ndk1::char_traits<char>, std::__ndk1::allocator<char> > >, true>, std::__ndk1::__unordered_map_equal<std::__ndk1::basic_string<char, std::__ndk1::char_traits<char>, std::__ndk1::allocator<char> >, std::__ndk1::__hash_value_type<std::__ndk1::basic_string<char, std::__ndk1::char_traits<char>, std::__ndk1::allocator<char> >, std::__ndk1::function<keybinds::Bind* (matjson::Value const&)> >, std::__ndk1::equal_to<std::__ndk1::basic_string<char, std::__ndk1::char_traits<char>, std::__ndk1::allocator<char> > >, std::__ndk1::hash<std::__ndk1::basic_string<char, std::__ndk1::char_traits<char>, std::__ndk1::allocator<char> > >, true>, std::__ndk1::allocator<std::__ndk1::__hash_value_type<std::__ndk1::basic_string<char, std::__ndk1::char_traits<char>, std::__ndk1::allocator<char> >, std::__ndk1::function<keybinds::Bind* (matjson::Value const&)> > > >::find<std::__ndk1::basic_string<char, std::__ndk1::char_traits<char>, std::__ndk1::allocator<char> > >(std::__ndk1::basic_string<char, std::__ndk1::char_traits<char>, std::__ndk1::allocator<char> > const&) const
PUBLIC 6a9b4 0 std::__ndk1::unique_ptr<std::__ndk1::__hash_node<std::__ndk1::__hash_value_type<std::__ndk1::basic_string<char, std::__ndk1::char_traits<char>, std::__ndk1::allocator<char> >, std::__ndk1::function<keybinds::Bind* (matjson::Value const&)> >, void*>, std::__ndk1::__hash_node_destructor<std::__ndk1::allocator<std::__ndk1::__hash_node<std::__ndk1::__hash_value_type<std::__ndk1::basic_string<char, std::__ndk1::char_traits<char>, std::__ndk1::allocator<char> >, std::__ndk1::function<keybinds::Bind* (matjson::Value const&)> >, void*> > > >::~unique_ptr[abi:ne180000]()
PUBLIC 6aa30 0 _ZNSt6__ndk112__hash_tableINS_17__hash_value_typeINS_12basic_stringIcNS_11char_traitsIcEENS_9allocatorIcEEEENS_13unordered_mapIS7_NS_3setIN7matjson5ValueENS_4lessISB_EENS5_ISB_EEEENS_4hashIS7_EENS_8equal_toIS7_EENS5_INS_4pairIKS7_SF_EEEEEEEENS_22__unordered_map_hasherIS7_SP_SH_SJ_Lb1EEENS_21__unordered_map_equalIS7_SP_SJ_SH_Lb1EEENS5_ISP_EEE25__emplace_unique_key_argsIS7_JRKNS_21piecewise_construct_tENS_5tupleIJRSL_EEENS10_IJEEEEEENSK_INS_15__hash_iteratorIPNS_11__hash_nodeISP_PvEEEEbEERKT_DpOT0_
PUBLIC 6ae84 0 std::__ndk1::unique_ptr<std::__ndk1::__hash_node<std::__ndk1::__hash_value_type<std::__ndk1::basic_string<char, std::__ndk1::char_traits<char>, std::__ndk1::allocator<char> >, std::__ndk1::unordered_map<std::__ndk1::basic_string<char, std::__ndk1::char_traits<char>, std::__ndk1::allocator<char> >, std::__ndk1::set<matjson::Value, std::__ndk1::less<matjson::Value>, std::__ndk1::allocator<matjson::Value> >, std::__ndk1::hash<std::__ndk1::basic_string<char, std::__ndk1::char_traits<char>, std::__ndk1::allocator<char> > >, std::__ndk1::equal_to<std::__ndk1::basic_string<char, std::__ndk1::char_traits<char>, std::__ndk1::allocator<char> > >, std::__ndk1::allocator<std::__ndk1::pair<std::__ndk1::basic_string<char, std::__ndk1::char_traits<char>, std::__ndk1::allocator<char> > const, std::__ndk1::set<matjson::Value, std::__ndk1::less<matjson::Value>, std::__ndk1::allocator<matjson::Value> > > > > >, void*>, std::__ndk1::__hash_node_destructor<std::__ndk1::allocator<std::__ndk1::__hash_node<std::__ndk1::__hash_value_type<std::__ndk1::basic_string<char, std::__ndk1::char_traits<char>, std::__ndk1::allocator<char> >, std::__ndk1::unordered_map<std::__ndk1::basic_string<char, std::__ndk1::char_traits<char>, std::__ndk1::allocator<char> >, std::__ndk1::set<matjson::Value, std::__ndk1::less<matjson::Value>, std::__ndk1::allocator<matjson::Value> >, std::__ndk1::hash<std::__ndk1::basic_string<char, std::__ndk1::char_traits<char>, std::__ndk1::allocator<char> > >, std::__ndk1::equal_to<std::__ndk1::basic_string<char, std::__ndk1::char_traits<char>, std::__ndk1::allocator<char> > >, std::__ndk1::allocator<std::__ndk1::pair<std::__ndk1::basic_string<char, std::__ndk1::char_traits<char>, std::__ndk1::allocator<char> > const, std::__ndk1::set<matjson::Value, std::__ndk1::less<matjson::Value>, std::__ndk1::allocator<matjson::Value> > > > > >, void*> > > >::~unique_ptr[abi:ne180000]()
PUBLIC 6aec8 0 _ZNSt6__ndk112__hash_tableINS_17__hash_value_typeINS_12basic_stringIcNS_11char_traitsIcEENS_9allocatorIcEEEENS_13unordered_mapIS7_NS_3setIN7matjson5ValueENS_4lessISB_EENS5_ISB_EEEENS_4hashIS7_EENS_8equal_toIS7_EENS5_INS_4pairIKS7_SF_EEEEEEEENS_22__unordered_map_hasherIS7_SP_SH_SJ_Lb1EEENS_21__unordered_map_equalIS7_SP_SJ_SH_Lb1EEENS5_ISP_EEE11__do_rehashILb1EEEvm
PUBLIC 6b074 0 std::__ndk1::__hash_table<std::__ndk1::__hash_value_type<std::__ndk1::basic_string<char, std::__ndk1::char_traits<char>, std::__ndk1::allocator<char> >, std::__ndk1::set<matjson::Value, std::__ndk1::less<matjson::Value>, std::__ndk1::allocator<matjson::Value> > >, std::__ndk1::__unordered_map_hasher<std::__ndk1::basic_string<char, std::__ndk1::char_traits<char>, std::__ndk1::allocator<char> >, std::__ndk1::__hash_value_type<std::__ndk1::basic_string<char, std::__ndk1::char_traits<char>, std::__ndk1::allocator<char> >, std::__ndk1::set<matjson::Value, std::__ndk1::less<matjson::Value>, std::__ndk1::allocator<matjson::Value> > >, std::__ndk1::hash<std::__ndk1::basic_string<char, std::__ndk1::char_traits<char>, std::__ndk1::allocator<char> > >, std::__ndk1::equal_to<std::__ndk1::basic_string<char, std::__ndk1::char_traits<char>, std::__ndk1::allocator<char> > >, true>, std::__ndk1::__unordered_map_equal<std::__ndk1::basic_string<char, std::__ndk1::char_traits<char>, std::__ndk1::allocator<char> >, std::__ndk1::__hash_value_type<std::__ndk1::basic_string<char, std::__ndk1::char_traits<char>, std::__ndk1::allocator<char> >, std::__ndk1::set<matjson::Value, std::__ndk1::less<matjson::Value>, std::__ndk1::allocator<matjson::Value> > >, std::__ndk1::equal_to<std::__ndk1::basic_string<char, std::__ndk1::char_traits<char>, std::__ndk1::allocator<char> > >, std::__ndk1::hash<std::__ndk1::basic_string<char, std::__ndk1::char_traits<char>, std::__ndk1::allocator<char> > >, true>, std::__ndk1::allocator<std::__ndk1::__hash_value_type<std::__ndk1::basic_string<char, std::__ndk1::char_traits<char>, std::__ndk1::allocator<char> >, std::__ndk1::set<matjson::Value, std::__ndk1::less<matjson::Value>, std::__ndk1::allocator<matjson::Value> > > > >::__emplace_unique_key_args<std::__ndk1::basic_string<char, std::__ndk1::char_traits<char>, std::__ndk1::allocator<char> >, std::__ndk1::piecewise_construct_t const&, std::__ndk1::tuple<std::__ndk1::basic_string<char, std::__ndk1::char_traits<char>, std::__ndk1::allocator<char> > const&>, std::__ndk1::tuple<> >(std::__ndk1::basic_string<char, std::__ndk1::char_traits<char>, std::__ndk1::allocator<char> > const&, std::__ndk1::piecewise_construct_t const&, std::__ndk1::tuple<std::__ndk1::basic_string<char, std::__ndk1::char_traits<char>, std::__ndk1::allocator<char> > const&>, std::__ndk1::tuple<>)
PUBLIC 6b6ac 0 std::__ndk1::unique_ptr<std::__ndk1::__hash_node<std::__ndk1::__hash_value_type<std::__ndk1::basic_string<char, std::__ndk1::char_traits<char>, std::__ndk1::allocator<char> >, std::__ndk1::set<matjson::Value, std::__ndk1::less<matjson::Value>, std::__ndk1::allocator<matjson::Value> > >, void*>, std::__ndk1::__hash_node_destructor<std::__ndk1::allocator<std::__ndk1::__hash_node<std::__ndk1::__hash_value_type<std::__ndk1::basic_string<char, std::__ndk1::char_traits<char>, std::__ndk1::allocator<char> >, std::__ndk1::set<matjson::Value, std::__ndk1::less<matjson::Value>, std::__ndk1::allocator<matjson::Value> > >, void*> > > >::~unique_ptr[abi:ne180000]()
PUBLIC 6b700 0 _ZNSt6__ndk112__hash_tableINS_17__hash_value_typeINS_12basic_stringIcNS_11char_traitsIcEENS_9allocatorIcEEEENS_13unordered_mapIS7_NS_3setIN7matjson5ValueENS_4lessISB_EENS5_ISB_EEEENS_4hashIS7_EENS_8equal_toIS7_EENS5_INS_4pairIKS7_SF_EEEEEEEENS_22__unordered_map_hasherIS7_SP_SH_SJ_Lb1EEENS_21__unordered_map_equalIS7_SP_SJ_SH_Lb1EEENS5_ISP_EEE25__emplace_unique_key_argsIS7_JRKNS_21piecewise_construct_tENS_5tupleIJOS7_EEENS10_IJEEEEEENSK_INS_15__hash_iteratorIPNS_11__hash_nodeISP_PvEEEEbEERKT_DpOT0_
PUBLIC 6bb3c 0 std::__ndk1::__hash_table<std::__ndk1::__hash_value_type<keybinds::BindHash, std::__ndk1::vector<std::__ndk1::basic_string<char, std::__ndk1::char_traits<char>, std::__ndk1::allocator<char> >, std::__ndk1::allocator<std::__ndk1::basic_string<char, std::__ndk1::char_traits<char>, std::__ndk1::allocator<char> > > > >, std::__ndk1::__unordered_map_hasher<keybinds::BindHash, std::__ndk1::__hash_value_type<keybinds::BindHash, std::__ndk1::vector<std::__ndk1::basic_string<char, std::__ndk1::char_traits<char>, std::__ndk1::allocator<char> >, std::__ndk1::allocator<std::__ndk1::basic_string<char, std::__ndk1::char_traits<char>, std::__ndk1::allocator<char> > > > >, std::__ndk1::hash<keybinds::BindHash>, std::__ndk1::equal_to<keybinds::BindHash>, true>, std::__ndk1::__unordered_map_equal<keybinds::BindHash, std::__ndk1::__hash_value_type<keybinds::BindHash, std::__ndk1::vector<std::__ndk1::basic_string<char, std::__ndk1::char_traits<char>, std::__ndk1::allocator<char> >, std::__ndk1::allocator<std::__ndk1::basic_string<char, std::__ndk1::char_traits<char>, std::__ndk1::allocator<char> > > > >, std::__ndk1::equal_to<keybinds::BindHash>, std::__ndk1::hash<keybinds::BindHash>, true>, std::__ndk1::allocator<std::__ndk1::__hash_value_type<keybinds::BindHash, std::__ndk1::vector<std::__ndk1::basic_string<char, std::__ndk1::char_traits<char>, std::__ndk1::allocator<char> >, std::__ndk1::allocator<std::__ndk1::basic_string<char, std::__ndk1::char_traits<char>, std::__ndk1::allocator<char> > > > > > >::find<keybinds::BindHash>(keybinds::BindHash const&) const
PUBLIC 6bd00 0 std::__ndk1::__hash_table<std::__ndk1::__hash_value_type<keybinds::BindHash, std::__ndk1::vector<std::__ndk1::basic_string<char, std::__ndk1::char_traits<char>, std::__ndk1::allocator<char> >, std::__ndk1::allocator<std::__ndk1::basic_string<char, std::__ndk1::char_traits<char>, std::__ndk1::allocator<char> > > > >, std::__ndk1::__unordered_map_hasher<keybinds::BindHash, std::__ndk1::__hash_value_type<keybinds::BindHash, std::__ndk1::vector<std::__ndk1::basic_string<char, std::__ndk1::char_traits<char>, std::__ndk1::allocator<char> >, std::__ndk1::allocator<std::__ndk1::basic_string<char, std::__ndk1::char_traits<char>, std::__ndk1::allocator<char> > > > >, std::__ndk1::hash<keybinds::BindHash>, std::__ndk1::equal_to<keybinds::BindHash>, true>, std::__ndk1::__unordered_map_equal<keybinds::BindHash, std::__ndk1::__hash_value_type<keybinds::BindHash, std::__ndk1::vector<std::__ndk1::basic_string<char, std::__ndk1::char_traits<char>, std::__ndk1::allocator<char> >, std::__ndk1::allocator<std::__ndk1::basic_string<char, std::__ndk1::char_traits<char>, std::__ndk1::allocator<char> > > > >, std::__ndk1::equal_to<keybinds::BindHash>, std::__ndk1::hash<keybinds::BindHash>, true>, std::__ndk1::allocator<std::__ndk1::__hash_value_type<keybinds::BindHash, std::__ndk1::vector<std::__ndk1::basic_string<char, std::__ndk1::char_traits<char>, std::__ndk1::allocator<char> >, std::__ndk1::allocator<std::__ndk1::basic_string<char, std::__ndk1::char_traits<char>, std::__ndk1::allocator<char> > > > > > >::__emplace_unique_key_args<keybinds::BindHash, std::__ndk1::piecewise_construct_t const&, std::__ndk1::tuple<keybinds::BindHash&&>, std::__ndk1::tuple<> >(keybinds::BindHash const&, std::__ndk1::piecewise_construct_t const&, std::__ndk1::tuple<keybinds::BindHash&&>, std::__ndk1::tuple<>)
PUBLIC 6c2bc 0 std::__ndk1::unique_ptr<std::__ndk1::__hash_node<std::__ndk1::__hash_value_type<keybinds::BindHash, std::__ndk1::vector<std::__ndk1::basic_string<char, std::__ndk1::char_traits<char>, std::__ndk1::allocator<char> >, std::__ndk1::allocator<std::__ndk1::basic_string<char, std::__ndk1::char_traits<char>, std::__ndk1::allocator<char> > > > >, void*>, std::__ndk1::__hash_node_destructor<std::__ndk1::allocator<std::__ndk1::__hash_node<std::__ndk1::__hash_value_type<keybinds::BindHash, std::__ndk1::vector<std::__ndk1::basic_string<char, std::__ndk1::char_traits<char>, std::__ndk1::allocator<char> >, std::__ndk1::allocator<std::__ndk1::basic_string<char, std::__ndk1::char_traits<char>, std::__ndk1::allocator<char> > > > >, void*> > > >::reset[abi:ne180000](std::__ndk1::__hash_node<std::__ndk1::__hash_value_type<keybinds::BindHash, std::__ndk1::vector<std::__ndk1::basic_string<char, std::__ndk1::char_traits<char>, std::__ndk1::allocator<char> >, std::__ndk1::allocator<std::__ndk1::basic_string<char, std::__ndk1::char_traits<char>, std::__ndk1::allocator<char> > > > >, void*>*)
PUBLIC 6c360 0 std::__ndk1::remove[abi:ne180000]<std::__ndk1::__wrap_iter<std::__ndk1::basic_string<char, std::__ndk1::char_traits<char>, std::__ndk1::allocator<char> >*>, std::__ndk1::allocator<char> >(std::__ndk1::__wrap_iter<std::__ndk1::basic_string<char, std::__ndk1::char_traits<char>, std::__ndk1::allocator<char> >*>, std::__ndk1::__wrap_iter<std::__ndk1::basic_string<char, std::__ndk1::char_traits<char>, std::__ndk1::allocator<char> >*>, std::__ndk1::allocator<char> const&)
PUBLIC 6c528 0 std::__ndk1::__hash_table<std::__ndk1::__hash_value_type<keybinds::BindHash, std::__ndk1::vector<std::__ndk1::basic_string<char, std::__ndk1::char_traits<char>, std::__ndk1::allocator<char> >, std::__ndk1::allocator<std::__ndk1::basic_string<char, std::__ndk1::char_traits<char>, std::__ndk1::allocator<char> > > > >, std::__ndk1::__unordered_map_hasher<keybinds::BindHash, std::__ndk1::__hash_value_type<keybinds::BindHash, std::__ndk1::vector<std::__ndk1::basic_string<char, std::__ndk1::char_traits<char>, std::__ndk1::allocator<char> >, std::__ndk1::allocator<std::__ndk1::basic_string<char, std::__ndk1::char_traits<char>, std::__ndk1::allocator<char> > > > >, std::__ndk1::hash<keybinds::BindHash>, std::__ndk1::equal_to<keybinds::BindHash>, true>, std::__ndk1::__unordered_map_equal<keybinds::BindHash, std::__ndk1::__hash_value_type<keybinds::BindHash, std::__ndk1::vector<std::__ndk1::basic_string<char, std::__ndk1::char_traits<char>, std::__ndk1::allocator<char> >, std::__ndk1::allocator<std::__ndk1::basic_string<char, std::__ndk1::char_traits<char>, std::__ndk1::allocator<char> > > > >, std::__ndk1::equal_to<keybinds::BindHash>, std::__ndk1::hash<keybinds::BindHash>, true>, std::__ndk1::allocator<std::__ndk1::__hash_value_type<keybinds::BindHash, std::__ndk1::vector<std::__ndk1::basic_string<char, std::__ndk1::char_traits<char>, std::__ndk1::allocator<char> >, std::__ndk1::allocator<std::__ndk1::basic_string<char, std::__ndk1::char_traits<char>, std::__ndk1::allocator<char> > > > > > >::find<keybinds::BindHash>(keybinds::BindHash const&)
PUBLIC 6c6ec 0 std::__ndk1::__hash_table<std::__ndk1::__hash_value_type<std::__ndk1::basic_string<char, std::__ndk1::char_traits<char>, std::__ndk1::allocator<char> >, float>, std::__ndk1::__unordered_map_hasher<std::__ndk1::basic_string<char, std::__ndk1::char_traits<char>, std::__ndk1::allocator<char> >, std::__ndk1::__hash_value_type<std::__ndk1::basic_string<char, std::__ndk1::char_traits<char>, std::__ndk1::allocator<char> >, float>, std::__ndk1::hash<std::__ndk1::basic_string<char, std::__ndk1::char_traits<char>, std::__ndk1::allocator<char> > >, std::__ndk1::equal_to<std::__ndk1::basic_string<char, std::__ndk1::char_traits<char>, std::__ndk1::allocator<char> > >, true>, std::__ndk1::__unordered_map_equal<std::__ndk1::basic_string<char, std::__ndk1::char_traits<char>, std::__ndk1::allocator<char> >, std::__ndk1::__hash_value_type<std::__ndk1::basic_string<char, std::__ndk1::char_traits<char>, std::__ndk1::allocator<char> >, float>, std::__ndk1::equal_to<std::__ndk1::basic_string<char, std::__ndk1::char_traits<char>, std::__ndk1::allocator<char> > >, std::__ndk1::hash<std::__ndk1::basic_string<char, std::__ndk1::char_traits<char>, std::__ndk1::allocator<char> > >, true>, std::__ndk1::allocator<std::__ndk1::__hash_value_type<std::__ndk1::basic_string<char, std::__ndk1::char_traits<char>, std::__ndk1::allocator<char> >, float> > >::find<std::__ndk1::basic_string<char, std::__ndk1::char_traits<char>, std::__ndk1::allocator<char> > >(std::__ndk1::basic_string<char, std::__ndk1::char_traits<char>, std::__ndk1::allocator<char> > const&) const
PUBLIC 6c91c 0 std::__ndk1::__hash_table<std::__ndk1::__hash_value_type<std::__ndk1::basic_string<char, std::__ndk1::char_traits<char>, std::__ndk1::allocator<char> >, std::__ndk1::unordered_set<unsigned long, std::__ndk1::hash<unsigned long>, std::__ndk1::equal_to<unsigned long>, std::__ndk1::allocator<unsigned long> > >, std::__ndk1::__unordered_map_hasher<std::__ndk1::basic_string<char, std::__ndk1::char_traits<char>, std::__ndk1::allocator<char> >, std::__ndk1::__hash_value_type<std::__ndk1::basic_string<char, std::__ndk1::char_traits<char>, std::__ndk1::allocator<char> >, std::__ndk1::unordered_set<unsigned long, std::__ndk1::hash<unsigned long>, std::__ndk1::equal_to<unsigned long>, std::__ndk1::allocator<unsigned long> > >, std::__ndk1::hash<std::__ndk1::basic_string<char, std::__ndk1::char_traits<char>, std::__ndk1::allocator<char> > >, std::__ndk1::equal_to<std::__ndk1::basic_string<char, std::__ndk1::char_traits<char>, std::__ndk1::allocator<char> > >, true>, std::__ndk1::__unordered_map_equal<std::__ndk1::basic_string<char, std::__ndk1::char_traits<char>, std::__ndk1::allocator<char> >, std::__ndk1::__hash_value_type<std::__ndk1::basic_string<char, std::__ndk1::char_traits<char>, std::__ndk1::allocator<char> >, std::__ndk1::unordered_set<unsigned long, std::__ndk1::hash<unsigned long>, std::__ndk1::equal_to<unsigned long>, std::__ndk1::allocator<unsigned long> > >, std::__ndk1::equal_to<std::__ndk1::basic_string<char, std::__ndk1::char_traits<char>, std::__ndk1::allocator<char> > >, std::__ndk1::hash<std::__ndk1::basic_string<char, std::__ndk1::char_traits<char>, std::__ndk1::allocator<char> > >, true>, std::__ndk1::allocator<std::__ndk1::__hash_value_type<std::__ndk1::basic_string<char, std::__ndk1::char_traits<char>, std::__ndk1::allocator<char> >, std::__ndk1::unordered_set<unsigned long, std::__ndk1::hash<unsigned long>, std::__ndk1::equal_to<unsigned long>, std::__ndk1::allocator<unsigned long> > > > >::find<std::__ndk1::basic_string<char, std::__ndk1::char_traits<char>, std::__ndk1::allocator<char> > >(std::__ndk1::basic_string<char, std::__ndk1::char_traits<char>, std::__ndk1::allocator<char> > const&) const
PUBLIC 6cb4c 0 std::__ndk1::__hash_table<std::__ndk1::__hash_value_type<std::__ndk1::basic_string<char, std::__ndk1::char_traits<char>, std::__ndk1::allocator<char> >, std::__ndk1::unordered_set<unsigned long, std::__ndk1::hash<unsigned long>, std::__ndk1::equal_to<unsigned long>, std::__ndk1::allocator<unsigned long> > >, std::__ndk1::__unordered_map_hasher<std::__ndk1::basic_string<char, std::__ndk1::char_traits<char>, std::__ndk1::allocator<char> >, std::__ndk1::__hash_value_type<std::__ndk1::basic_string<char, std::__ndk1::char_traits<char>, std::__ndk1::allocator<char> >, std::__ndk1::unordered_set<unsigned long, std::__ndk1::hash<unsigned long>, std::__ndk1::equal_to<unsigned long>, std::__ndk1::allocator<unsigned long> > >, std::__ndk1::hash<std::__ndk1::basic_string<char, std::__ndk1::char_traits<char>, std::__ndk1::allocator<char> > >, std::__ndk1::equal_to<std::__ndk1::basic_string<char, std::__ndk1::char_traits<char>, std::__ndk1::allocator<char> > >, true>, std::__ndk1::__unordered_map_equal<std::__ndk1::basic_string<char, std::__ndk1::char_traits<char>, std::__ndk1::allocator<char> >, std::__ndk1::__hash_value_type<std::__ndk1::basic_string<char, std::__ndk1::char_traits<char>, std::__ndk1::allocator<char> >, std::__ndk1::unordered_set<unsigned long, std::__ndk1::hash<unsigned long>, std::__ndk1::equal_to<unsigned long>, std::__ndk1::allocator<unsigned long> > >, std::__ndk1::equal_to<std::__ndk1::basic_string<char, std::__ndk1::char_traits<char>, std::__ndk1::allocator<char> > >, std::__ndk1::hash<std::__ndk1::basic_string<char, std::__ndk1::char_traits<char>, std::__ndk1::allocator<char> > >, true>, std::__ndk1::allocator<std::__ndk1::__hash_value_type<std::__ndk1::basic_string<char, std::__ndk1::char_traits<char>, std::__ndk1::allocator<char> >, std::__ndk1::unordered_set<unsigned long, std::__ndk1::hash<unsigned long>, std::__ndk1::equal_to<unsigned long>, std::__ndk1::allocator<unsigned long> > > > >::find<std::__ndk1::basic_string<char, std::__ndk1::char_traits<char>, std::__ndk1::allocator<char> > >(std::__ndk1::basic_string<char, std::__ndk1::char_traits<char>, std::__ndk1::allocator<char> > const&)
PUBLIC 6cd7c 0 std::__ndk1::unique_ptr<std::__ndk1::__hash_node<std::__ndk1::__hash_value_type<std::__ndk1::basic_string<char, std::__ndk1::char_traits<char>, std::__ndk1::allocator<char> >, std::__ndk1::unordered_set<unsigned long, std::__ndk1::hash<unsigned long>, std::__ndk1::equal_to<unsigned long>, std::__ndk1::allocator<unsigned long> > >, void*>, std::__ndk1::__hash_node_destructor<std::__ndk1::allocator<std::__ndk1::__hash_node<std::__ndk1::__hash_value_type<std::__ndk1::basic_string<char, std::__ndk1::char_traits<char>, std::__ndk1::allocator<char> >, std::__ndk1::unordered_set<unsigned long, std::__ndk1::hash<unsigned long>, std::__ndk1::equal_to<unsigned long>, std::__ndk1::allocator<unsigned long> > >, void*> > > >::~unique_ptr[abi:ne180000]()
PUBLIC 6cdf0 0 std::__ndk1::unique_ptr<std::__ndk1::__hash_node<std::__ndk1::__hash_value_type<std::__ndk1::basic_string<char, std::__ndk1::char_traits<char>, std::__ndk1::allocator<char> >, float>, void*>, std::__ndk1::__hash_node_destructor<std::__ndk1::allocator<std::__ndk1::__hash_node<std::__ndk1::__hash_value_type<std::__ndk1::basic_string<char, std::__ndk1::char_traits<char>, std::__ndk1::allocator<char> >, float>, void*> > > >::~unique_ptr[abi:ne180000]()
PUBLIC 6ce40 0 geode::EventListener<geode::ModStateFilter>::getPool() const
PUBLIC 6ce44 0 geode::EventListener<geode::ModStateFilter>::handle(geode::Event*)
PUBLIC 6cfb8 0 geode::EventListener<geode::ModStateFilter>::~EventListener()
PUBLIC 6d014 0 geode::EventListener<geode::ModStateFilter>::~EventListener()
PUBLIC 6d078 0 std::__ndk1::__function::__base<void (geode::ModStateEvent*)>::~__base()
PUBLIC 6d07c 0 std::__ndk1::__function::__func<void (*)(geode::ModStateEvent*), std::__ndk1::allocator<void (*)(geode::ModStateEvent*)>, void (geode::ModStateEvent*)>::~__func()
PUBLIC 6d080 0 std::__ndk1::__function::__func<void (*)(geode::ModStateEvent*), std::__ndk1::allocator<void (*)(geode::ModStateEvent*)>, void (geode::ModStateEvent*)>::__clone() const
PUBLIC 6d0b4 0 std::__ndk1::__function::__func<void (*)(geode::ModStateEvent*), std::__ndk1::allocator<void (*)(geode::ModStateEvent*)>, void (geode::ModStateEvent*)>::__clone(std::__ndk1::__function::__base<void (geode::ModStateEvent*)>*) const
PUBLIC 6d0c8 0 std::__ndk1::__function::__func<void (*)(geode::ModStateEvent*), std::__ndk1::allocator<void (*)(geode::ModStateEvent*)>, void (geode::ModStateEvent*)>::destroy()
PUBLIC 6d0cc 0 std::__ndk1::__function::__func<void (*)(geode::ModStateEvent*), std::__ndk1::allocator<void (*)(geode::ModStateEvent*)>, void (geode::ModStateEvent*)>::destroy_deallocate()
PUBLIC 6d0d0 0 std::__ndk1::__function::__func<void (*)(geode::ModStateEvent*), std::__ndk1::allocator<void (*)(geode::ModStateEvent*)>, void (geode::ModStateEvent*)>::operator()(geode::ModStateEvent*&&)
PUBLIC 6d0e0 0 std::__ndk1::__function::__func<void (*)(geode::ModStateEvent*), std::__ndk1::allocator<void (*)(geode::ModStateEvent*)>, void (geode::ModStateEvent*)>::target(std::type_info const&) const
PUBLIC 6d0fc 0 std::__ndk1::__function::__func<void (*)(geode::ModStateEvent*), std::__ndk1::allocator<void (*)(geode::ModStateEvent*)>, void (geode::ModStateEvent*)>::target_type() const
PUBLIC 6d108 0 _GLOBAL__sub_I_Keybinds.cpp
PUBLIC 6d234 0 EnterBindLayer::setup(BindableNode*, keybinds::Bind*)
PUBLIC 6d860 0 EnterBindLayer::updateUsedBy()
PUBLIC 6dc94 0 EnterBindLayer::onSet(cocos2d::CCObject*)
PUBLIC 6dea4 0 EnterBindLayer::onRemove(cocos2d::CCObject*)
PUBLIC 6e000 0 BindableNode::updateMenu(bool)
PUBLIC 6eae8 0 EnterBindLayer::onPressed(keybinds::PressBindEvent*)
PUBLIC 6ec14 0 EnterBindLayer::create(BindableNode*, keybinds::Bind*)
PUBLIC 6f0bc 0 EditRepeatPopup::setup(BindableNode*)
PUBLIC 6fa70 0 EditRepeatPopup::onEnabled(cocos2d::CCObject*)
PUBLIC 6fa80 0 EditRepeatPopup::onClose(cocos2d::CCObject*)
PUBLIC 6fbc8 0 geode::Popup<BindableNode*>::onClose(cocos2d::CCObject*)
PUBLIC 6fd10 0 BindableNode::onInfo(cocos2d::CCObject*)
PUBLIC 701d0 0 BindableNode::onEditBind(cocos2d::CCObject*)
PUBLIC 70230 0 BindableNode::onExpand(cocos2d::CCObject*)
PUBLIC 70240 0 BindableNode::onAddBind(cocos2d::CCObject*)
PUBLIC 70294 0 BindableNode::onEditRepeat(cocos2d::CCObject*)
PUBLIC 7061c 0 BindableNode::onResetToDefault(cocos2d::CCObject*)
PUBLIC 708f4 0 KeybindsLayer::updateVisibility()
PUBLIC 70dc8 0 KeybindsLayer::setup()
PUBLIC 729c8 0 KeybindsLayer::onResetAll(cocos2d::CCObject*)
PUBLIC 72b34 0 geode::cocos::CCArrayExt<cocos2d::CCNode*, cocos2d::CCNode>::~CCArrayExt()
PUBLIC 72b50 0 KeybindsLayer::textChanged(CCTextInputNode*)
PUBLIC 736e0 0 {virtual override thunk({offset(-672)}, KeybindsLayer::textChanged(CCTextInputNode*))}
PUBLIC 736e8 0 KeybindsLayer::onDevice(keybinds::DeviceEvent*)
PUBLIC 73724 0 KeybindsLayer::KeybindsLayer()
PUBLIC 739d4 0 EnterBindLayer::~EnterBindLayer()
PUBLIC 73af0 0 EnterBindLayer::~EnterBindLayer()
PUBLIC 73b14 0 geode::Popup<BindableNode*, keybinds::Bind*>::registerWithTouchDispatcher()
PUBLIC 73b40 0 geode::Popup<BindableNode*, keybinds::Bind*>::keyDown(cocos2d::enumKeyCodes)
PUBLIC 73b68 0 cocos2d::CCLayerRGBA::setOpacityModifyRGB(bool)
PUBLIC 73b6c 0 cocos2d::CCLayerRGBA::isOpacityModifyRGB()
PUBLIC 73b74 0 geode::Popup<BindableNode*, keybinds::Bind*>::onClose(cocos2d::CCObject*)
PUBLIC 73cbc 0 {virtual override thunk({offset(-320)}, EnterBindLayer::~EnterBindLayer())}
PUBLIC 73cc4 0 {virtual override thunk({offset(-320)}, EnterBindLayer::~EnterBindLayer())}
PUBLIC 73cec 0 {virtual override thunk({offset(-344)}, geode::Popup<BindableNode*, keybinds::Bind*>::keyDown(cocos2d::enumKeyCodes))}
PUBLIC 73d18 0 cocos2d::CCKeyboardDelegate::keyUp(cocos2d::enumKeyCodes)
PUBLIC 73d1c 0 cocos2d::CCMouseDelegate::rightKeyDown()
PUBLIC 73d20 0 cocos2d::CCMouseDelegate::rightKeyUp()
PUBLIC 73d24 0 cocos2d::CCMouseDelegate::scrollWheel(float, float)
PUBLIC 73d28 0 {virtual override thunk({offset(-408)}, cocos2d::CCLayerRGBA::setOpacityModifyRGB(bool))}
PUBLIC 73d2c 0 {virtual override thunk({offset(-408)}, cocos2d::CCLayerRGBA::isOpacityModifyRGB())}
PUBLIC 73d34 0 EditRepeatPopup::~EditRepeatPopup()
PUBLIC 73dec 0 EditRepeatPopup::~EditRepeatPopup()
PUBLIC 73eac 0 geode::Popup<BindableNode*>::registerWithTouchDispatcher()
PUBLIC 73ed8 0 geode::Popup<BindableNode*>::keyDown(cocos2d::enumKeyCodes)
PUBLIC 73f00 0 {virtual override thunk({offset(-320)}, EditRepeatPopup::~EditRepeatPopup())}
PUBLIC 73fbc 0 {virtual override thunk({offset(-320)}, EditRepeatPopup::~EditRepeatPopup())}
PUBLIC 74080 0 {virtual override thunk({offset(-344)}, geode::Popup<BindableNode*>::keyDown(cocos2d::enumKeyCodes))}
PUBLIC 740ac 0 KeybindsLayer::~KeybindsLayer()
PUBLIC 741e8 0 KeybindsLayer::~KeybindsLayer()
PUBLIC 7420c 0 geode::Popup<>::registerWithTouchDispatcher()
PUBLIC 74238 0 geode::Popup<>::keyDown(cocos2d::enumKeyCodes)
PUBLIC 74260 0 geode::Popup<>::onClose(cocos2d::CCObject*)
PUBLIC 743a8 0 {virtual override thunk({offset(-320)}, KeybindsLayer::~KeybindsLayer())}
PUBLIC 743b0 0 {virtual override thunk({offset(-320)}, KeybindsLayer::~KeybindsLayer())}
PUBLIC 743d8 0 {virtual override thunk({offset(-344)}, geode::Popup<>::keyDown(cocos2d::enumKeyCodes))}
PUBLIC 74404 0 geode::Ref<BindableNode>::~Ref()
PUBLIC 74420 0 geode::Popup<BindableNode*, keybinds::Bind*>::~Popup()
PUBLIC 7448c 0 geode::Popup<BindableNode*, keybinds::Bind*>::~Popup()
PUBLIC 74490 0 {virtual override thunk({offset(-320)}, geode::Popup<BindableNode*, keybinds::Bind*>::~Popup())}
PUBLIC 744fc 0 {virtual override thunk({offset(-320)}, geode::Popup<BindableNode*, keybinds::Bind*>::~Popup())}
PUBLIC 74500 0 std::__ndk1::__function::__func<std::__ndk1::__bind<geode::ListenerResult (EnterBindLayer::*&)(keybinds::PressBindEvent*), EnterBindLayer*&, std::__ndk1::placeholders::__ph<1> const&>, std::__ndk1::allocator<std::__ndk1::__bind<geode::ListenerResult (EnterBindLayer::*&)(keybinds::PressBindEvent*), EnterBindLayer*&, std::__ndk1::placeholders::__ph<1> const&> >, geode::ListenerResult(keybinds::PressBindEvent*)>::~__func()
PUBLIC 74504 0 std::__ndk1::__function::__func<std::__ndk1::__bind<geode::ListenerResult (EnterBindLayer::*&)(keybinds::PressBindEvent*), EnterBindLayer*&, std::__ndk1::placeholders::__ph<1> const&>, std::__ndk1::allocator<std::__ndk1::__bind<geode::ListenerResult (EnterBindLayer::*&)(keybinds::PressBindEvent*), EnterBindLayer*&, std::__ndk1::placeholders::__ph<1> const&> >, geode::ListenerResult(keybinds::PressBindEvent*)>::__clone() const
PUBLIC 74544 0 std::__ndk1::__function::__func<std::__ndk1::__bind<geode::ListenerResult (EnterBindLayer::*&)(keybinds::PressBindEvent*), EnterBindLayer*&, std::__ndk1::placeholders::__ph<1> const&>, std::__ndk1::allocator<std::__ndk1::__bind<geode::ListenerResult (EnterBindLayer::*&)(keybinds::PressBindEvent*), EnterBindLayer*&, std::__ndk1::placeholders::__ph<1> const&> >, geode::ListenerResult(keybinds::PressBindEvent*)>::__clone(std::__ndk1::__function::__base<geode::ListenerResult(keybinds::PressBindEvent*)>*) const
PUBLIC 74564 0 std::__ndk1::__function::__func<std::__ndk1::__bind<geode::ListenerResult (EnterBindLayer::*&)(keybinds::PressBindEvent*), EnterBindLayer*&, std::__ndk1::placeholders::__ph<1> const&>, std::__ndk1::allocator<std::__ndk1::__bind<geode::ListenerResult (EnterBindLayer::*&)(keybinds::PressBindEvent*), EnterBindLayer*&, std::__ndk1::placeholders::__ph<1> const&> >, geode::ListenerResult(keybinds::PressBindEvent*)>::destroy()
PUBLIC 74568 0 std::__ndk1::__function::__func<std::__ndk1::__bind<geode::ListenerResult (EnterBindLayer::*&)(keybinds::PressBindEvent*), EnterBindLayer*&, std::__ndk1::placeholders::__ph<1> const&>, std::__ndk1::allocator<std::__ndk1::__bind<geode::ListenerResult (EnterBindLayer::*&)(keybinds::PressBindEvent*), EnterBindLayer*&, std::__ndk1::placeholders::__ph<1> const&> >, geode::ListenerResult(keybinds::PressBindEvent*)>::destroy_deallocate()
PUBLIC 7456c 0 std::__ndk1::__function::__func<std::__ndk1::__bind<geode::ListenerResult (EnterBindLayer::*&)(keybinds::PressBindEvent*), EnterBindLayer*&, std::__ndk1::placeholders::__ph<1> const&>, std::__ndk1::allocator<std::__ndk1::__bind<geode::ListenerResult (EnterBindLayer::*&)(keybinds::PressBindEvent*), EnterBindLayer*&, std::__ndk1::placeholders::__ph<1> const&> >, geode::ListenerResult(keybinds::PressBindEvent*)>::operator()(keybinds::PressBindEvent*&&)
PUBLIC 7458c 0 std::__ndk1::__function::__func<std::__ndk1::__bind<geode::ListenerResult (EnterBindLayer::*&)(keybinds::PressBindEvent*), EnterBindLayer*&, std::__ndk1::placeholders::__ph<1> const&>, std::__ndk1::allocator<std::__ndk1::__bind<geode::ListenerResult (EnterBindLayer::*&)(keybinds::PressBindEvent*), EnterBindLayer*&, std::__ndk1::placeholders::__ph<1> const&> >, geode::ListenerResult(keybinds::PressBindEvent*)>::target(std::type_info const&) const
PUBLIC 745a8 0 std::__ndk1::__function::__func<std::__ndk1::__bind<geode::ListenerResult (EnterBindLayer::*&)(keybinds::PressBindEvent*), EnterBindLayer*&, std::__ndk1::placeholders::__ph<1> const&>, std::__ndk1::allocator<std::__ndk1::__bind<geode::ListenerResult (EnterBindLayer::*&)(keybinds::PressBindEvent*), EnterBindLayer*&, std::__ndk1::placeholders::__ph<1> const&> >, geode::ListenerResult(keybinds::PressBindEvent*)>::target_type() const
PUBLIC 745b4 0 geode::Popup<BindableNode*>::~Popup()
PUBLIC 74620 0 geode::Popup<BindableNode*>::~Popup()
PUBLIC 74624 0 {virtual override thunk({offset(-320)}, geode::Popup<BindableNode*>::~Popup())}
PUBLIC 74690 0 {virtual override thunk({offset(-320)}, geode::Popup<BindableNode*>::~Popup())}
PUBLIC 74694 0 BindableNode::~BindableNode()
PUBLIC 746c8 0 BindableNode::~BindableNode()
PUBLIC 74704 0 std::__ndk1::vector<cocos2d::CCNode*, std::__ndk1::allocator<cocos2d::CCNode*> >::__throw_length_error[abi:ne180000]() const
PUBLIC 74718 0 FoldableLayer::~FoldableLayer()
PUBLIC 7473c 0 FoldableLayer::onFold(cocos2d::CCObject*)
PUBLIC 74880 0 std::__ndk1::vector<BindableNode*, std::__ndk1::allocator<BindableNode*> >::__throw_length_error[abi:ne180000]() const
PUBLIC 74894 0 geode::Popup<>::~Popup()
PUBLIC 74900 0 geode::Popup<>::~Popup()
PUBLIC 74904 0 {virtual override thunk({offset(-320)}, geode::Popup<>::~Popup())}
PUBLIC 74970 0 {virtual override thunk({offset(-320)}, geode::Popup<>::~Popup())}
PUBLIC 74974 0 std::__ndk1::__function::__base<void (keybinds::DeviceEvent*)>::~__base()
PUBLIC 74978 0 std::__ndk1::__function::__func<std::__ndk1::__bind<void (KeybindsLayer::*&)(keybinds::DeviceEvent*), KeybindsLayer*&, std::__ndk1::placeholders::__ph<1> const&>, std::__ndk1::allocator<std::__ndk1::__bind<void (KeybindsLayer::*&)(keybinds::DeviceEvent*), KeybindsLayer*&, std::__ndk1::placeholders::__ph<1> const&> >, void (keybinds::DeviceEvent*)>::~__func()
PUBLIC 7497c 0 std::__ndk1::__function::__func<std::__ndk1::__bind<void (KeybindsLayer::*&)(keybinds::DeviceEvent*), KeybindsLayer*&, std::__ndk1::placeholders::__ph<1> const&>, std::__ndk1::allocator<std::__ndk1::__bind<void (KeybindsLayer::*&)(keybinds::DeviceEvent*), KeybindsLayer*&, std::__ndk1::placeholders::__ph<1> const&> >, void (keybinds::DeviceEvent*)>::__clone() const
PUBLIC 749bc 0 std::__ndk1::__function::__func<std::__ndk1::__bind<void (KeybindsLayer::*&)(keybinds::DeviceEvent*), KeybindsLayer*&, std::__ndk1::placeholders::__ph<1> const&>, std::__ndk1::allocator<std::__ndk1::__bind<void (KeybindsLayer::*&)(keybinds::DeviceEvent*), KeybindsLayer*&, std::__ndk1::placeholders::__ph<1> const&> >, void (keybinds::DeviceEvent*)>::__clone(std::__ndk1::__function::__base<void (keybinds::DeviceEvent*)>*) const
PUBLIC 749dc 0 std::__ndk1::__function::__func<std::__ndk1::__bind<void (KeybindsLayer::*&)(keybinds::DeviceEvent*), KeybindsLayer*&, std::__ndk1::placeholders::__ph<1> const&>, std::__ndk1::allocator<std::__ndk1::__bind<void (KeybindsLayer::*&)(keybinds::DeviceEvent*), KeybindsLayer*&, std::__ndk1::placeholders::__ph<1> const&> >, void (keybinds::DeviceEvent*)>::destroy()
PUBLIC 749e0 0 std::__ndk1::__function::__func<std::__ndk1::__bind<void (KeybindsLayer::*&)(keybinds::DeviceEvent*), KeybindsLayer*&, std::__ndk1::placeholders::__ph<1> const&>, std::__ndk1::allocator<std::__ndk1::__bind<void (KeybindsLayer::*&)(keybinds::DeviceEvent*), KeybindsLayer*&, std::__ndk1::placeholders::__ph<1> const&> >, void (keybinds::DeviceEvent*)>::destroy_deallocate()
PUBLIC 749e4 0 std::__ndk1::__function::__func<std::__ndk1::__bind<void (KeybindsLayer::*&)(keybinds::DeviceEvent*), KeybindsLayer*&, std::__ndk1::placeholders::__ph<1> const&>, std::__ndk1::allocator<std::__ndk1::__bind<void (KeybindsLayer::*&)(keybinds::DeviceEvent*), KeybindsLayer*&, std::__ndk1::placeholders::__ph<1> const&> >, void (keybinds::DeviceEvent*)>::operator()(keybinds::DeviceEvent*&&)
PUBLIC 74a04 0 std::__ndk1::__function::__func<std::__ndk1::__bind<void (KeybindsLayer::*&)(keybinds::DeviceEvent*), KeybindsLayer*&, std::__ndk1::placeholders::__ph<1> const&>, std::__ndk1::allocator<std::__ndk1::__bind<void (KeybindsLayer::*&)(keybinds::DeviceEvent*), KeybindsLayer*&, std::__ndk1::placeholders::__ph<1> const&> >, void (keybinds::DeviceEvent*)>::target(std::type_info const&) const
PUBLIC 74a20 0 std::__ndk1::__function::__func<std::__ndk1::__bind<void (KeybindsLayer::*&)(keybinds::DeviceEvent*), KeybindsLayer*&, std::__ndk1::placeholders::__ph<1> const&>, std::__ndk1::allocator<std::__ndk1::__bind<void (KeybindsLayer::*&)(keybinds::DeviceEvent*), KeybindsLayer*&, std::__ndk1::placeholders::__ph<1> const&> >, void (keybinds::DeviceEvent*)>::target_type() const
PUBLIC 74a2c 0 geode::EventListener<keybinds::DeviceFilter>::getPool() const
PUBLIC 74a30 0 geode::EventListener<keybinds::DeviceFilter>::handle(geode::Event*)
PUBLIC 74ba4 0 geode::EventListener<keybinds::DeviceFilter>::~EventListener()
PUBLIC 74c18 0 geode::EventListener<keybinds::DeviceFilter>::~EventListener()
PUBLIC 74c94 0 geode::Popup<BindableNode*, keybinds::Bind*>::CloseEvent::~CloseEvent()
PUBLIC 74cf4 0 geode::Popup<BindableNode*, keybinds::Bind*>::CloseEvent::~CloseEvent()
PUBLIC 74d64 0 std::__ndk1::__shared_ptr_emplace<geode::Popup<BindableNode*, keybinds::Bind*>::CloseEvent::Impl, std::__ndk1::allocator<geode::Popup<BindableNode*, keybinds::Bind*>::CloseEvent::Impl> >::~__shared_ptr_emplace()
PUBLIC 74d74 0 std::__ndk1::__shared_ptr_emplace<geode::Popup<BindableNode*, keybinds::Bind*>::CloseEvent::Impl, std::__ndk1::allocator<geode::Popup<BindableNode*, keybinds::Bind*>::CloseEvent::Impl> >::~__shared_ptr_emplace()
PUBLIC 74da4 0 std::__ndk1::__shared_ptr_emplace<geode::Popup<BindableNode*, keybinds::Bind*>::CloseEvent::Impl, std::__ndk1::allocator<geode::Popup<BindableNode*, keybinds::Bind*>::CloseEvent::Impl> >::__on_zero_shared()
PUBLIC 74da8 0 std::__ndk1::__shared_ptr_emplace<geode::Popup<BindableNode*, keybinds::Bind*>::CloseEvent::Impl, std::__ndk1::allocator<geode::Popup<BindableNode*, keybinds::Bind*>::CloseEvent::Impl> >::__on_zero_shared_weak()
PUBLIC 74dac 0 std::__ndk1::__function::__func<EditRepeatPopup::setup(BindableNode*)::$_0, std::__ndk1::allocator<EditRepeatPopup::setup(BindableNode*)::$_0>, void (std::__ndk1::basic_string<char, std::__ndk1::char_traits<char>, std::__ndk1::allocator<char> > const&)>::~__func()
PUBLIC 74db0 0 std::__ndk1::__function::__func<EditRepeatPopup::setup(BindableNode*)::$_0, std::__ndk1::allocator<EditRepeatPopup::setup(BindableNode*)::$_0>, void (std::__ndk1::basic_string<char, std::__ndk1::char_traits<char>, std::__ndk1::allocator<char> > const&)>::__clone() const
PUBLIC 74de4 0 std::__ndk1::__function::__func<EditRepeatPopup::setup(BindableNode*)::$_0, std::__ndk1::allocator<EditRepeatPopup::setup(BindableNode*)::$_0>, void (std::__ndk1::basic_string<char, std::__ndk1::char_traits<char>, std::__ndk1::allocator<char> > const&)>::__clone(std::__ndk1::__function::__base<void (std::__ndk1::basic_string<char, std::__ndk1::char_traits<char>, std::__ndk1::allocator<char> > const&)>*) const
PUBLIC 74df8 0 std::__ndk1::__function::__func<EditRepeatPopup::setup(BindableNode*)::$_0, std::__ndk1::allocator<EditRepeatPopup::setup(BindableNode*)::$_0>, void (std::__ndk1::basic_string<char, std::__ndk1::char_traits<char>, std::__ndk1::allocator<char> > const&)>::destroy()
PUBLIC 74dfc 0 std::__ndk1::__function::__func<EditRepeatPopup::setup(BindableNode*)::$_0, std::__ndk1::allocator<EditRepeatPopup::setup(BindableNode*)::$_0>, void (std::__ndk1::basic_string<char, std::__ndk1::char_traits<char>, std::__ndk1::allocator<char> > const&)>::destroy_deallocate()
PUBLIC 74e00 0 std::__ndk1::__function::__func<EditRepeatPopup::setup(BindableNode*)::$_0, std::__ndk1::allocator<EditRepeatPopup::setup(BindableNode*)::$_0>, void (std::__ndk1::basic_string<char, std::__ndk1::char_traits<char>, std::__ndk1::allocator<char> > const&)>::operator()(std::__ndk1::basic_string<char, std::__ndk1::char_traits<char>, std::__ndk1::allocator<char> > const&)
PUBLIC 751ec 0 std::__ndk1::__function::__func<EditRepeatPopup::setup(BindableNode*)::$_0, std::__ndk1::allocator<EditRepeatPopup::setup(BindableNode*)::$_0>, void (std::__ndk1::basic_string<char, std::__ndk1::char_traits<char>, std::__ndk1::allocator<char> > const&)>::target(std::type_info const&) const
PUBLIC 75208 0 std::__ndk1::__function::__func<EditRepeatPopup::setup(BindableNode*)::$_0, std::__ndk1::allocator<EditRepeatPopup::setup(BindableNode*)::$_0>, void (std::__ndk1::basic_string<char, std::__ndk1::char_traits<char>, std::__ndk1::allocator<char> > const&)>::target_type() const
PUBLIC 75214 0 std::__ndk1::__variant_detail::__visitation::__base::__dispatcher<(unsigned long)0>::__dispatch[abi:ne180000]<std::__ndk1::__variant_detail::__dtor<std::__ndk1::__variant_detail::__traits<int, std::__ndk1::basic_string<char, std::__ndk1::char_traits<char>, std::__ndk1::allocator<char> > >, (std::__ndk1::__variant_detail::_Trait)1>::__destroy[abi:ne180000]()::{lambda(auto:1&)#1}, std::__ndk1::__variant_detail::__base<(std::__ndk1::__variant_detail::__traits<int, std::__ndk1::basic_string<char, std::__ndk1::char_traits<char>, std::__ndk1::allocator<char> > >)1, int, std::__ndk1::allocator<char> >&>(std::__ndk1::__variant_detail::__dtor<std::__ndk1::__variant_detail::__traits<int, std::__ndk1::basic_string<char, std::__ndk1::char_traits<char>, std::__ndk1::allocator<char> > >, (std::__ndk1::__variant_detail::_Trait)1>, std::__ndk1::__variant_detail::__base<(std::__ndk1::__variant_detail::__traits<int, std::__ndk1::basic_string<char, std::__ndk1::char_traits<char>, std::__ndk1::allocator<char> > >)1, int, std::__ndk1::allocator<char> >&)
PUBLIC 75218 0 std::__ndk1::__variant_detail::__visitation::__base::__dispatcher<(unsigned long)1>::__dispatch[abi:ne180000]<std::__ndk1::__variant_detail::__dtor<std::__ndk1::__variant_detail::__traits<int, std::__ndk1::basic_string<char, std::__ndk1::char_traits<char>, std::__ndk1::allocator<char> > >, (std::__ndk1::__variant_detail::_Trait)1>::__destroy[abi:ne180000]()::{lambda(auto:1&)#1}, std::__ndk1::__variant_detail::__base<(std::__ndk1::__variant_detail::__traits<int, std::__ndk1::basic_string<char, std::__ndk1::char_traits<char>, std::__ndk1::allocator<char> > >)1, int, std::__ndk1::allocator<char> >&>(std::__ndk1::__variant_detail::__dtor<std::__ndk1::__variant_detail::__traits<int, std::__ndk1::basic_string<char, std::__ndk1::char_traits<char>, std::__ndk1::allocator<char> > >, (std::__ndk1::__variant_detail::_Trait)1>, std::__ndk1::__variant_detail::__base<(std::__ndk1::__variant_detail::__traits<int, std::__ndk1::basic_string<char, std::__ndk1::char_traits<char>, std::__ndk1::allocator<char> > >)1, int, std::__ndk1::allocator<char> >&)
PUBLIC 7522c 0 std::__ndk1::__function::__base<void (std::__ndk1::basic_string<char, std::__ndk1::char_traits<char>, std::__ndk1::allocator<char> > const&)>::~__base()
PUBLIC 75230 0 std::__ndk1::__function::__func<EditRepeatPopup::setup(BindableNode*)::$_1, std::__ndk1::allocator<EditRepeatPopup::setup(BindableNode*)::$_1>, void (std::__ndk1::basic_string<char, std::__ndk1::char_traits<char>, std::__ndk1::allocator<char> > const&)>::~__func()
PUBLIC 75234 0 std::__ndk1::__function::__func<EditRepeatPopup::setup(BindableNode*)::$_1, std::__ndk1::allocator<EditRepeatPopup::setup(BindableNode*)::$_1>, void (std::__ndk1::basic_string<char, std::__ndk1::char_traits<char>, std::__ndk1::allocator<char> > const&)>::__clone() const
PUBLIC 75268 0 std::__ndk1::__function::__func<EditRepeatPopup::setup(BindableNode*)::$_1, std::__ndk1::allocator<EditRepeatPopup::setup(BindableNode*)::$_1>, void (std::__ndk1::basic_string<char, std::__ndk1::char_traits<char>, std::__ndk1::allocator<char> > const&)>::__clone(std::__ndk1::__function::__base<void (std::__ndk1::basic_string<char, std::__ndk1::char_traits<char>, std::__ndk1::allocator<char> > const&)>*) const
PUBLIC 7527c 0 std::__ndk1::__function::__func<EditRepeatPopup::setup(BindableNode*)::$_1, std::__ndk1::allocator<EditRepeatPopup::setup(BindableNode*)::$_1>, void (std::__ndk1::basic_string<char, std::__ndk1::char_traits<char>, std::__ndk1::allocator<char> > const&)>::destroy()
PUBLIC 75280 0 std::__ndk1::__function::__func<EditRepeatPopup::setup(BindableNode*)::$_1, std::__ndk1::allocator<EditRepeatPopup::setup(BindableNode*)::$_1>, void (std::__ndk1::basic_string<char, std::__ndk1::char_traits<char>, std::__ndk1::allocator<char> > const&)>::destroy_deallocate()
PUBLIC 75284 0 std::__ndk1::__function::__func<EditRepeatPopup::setup(BindableNode*)::$_1, std::__ndk1::allocator<EditRepeatPopup::setup(BindableNode*)::$_1>, void (std::__ndk1::basic_string<char, std::__ndk1::char_traits<char>, std::__ndk1::allocator<char> > const&)>::operator()(std::__ndk1::basic_string<char, std::__ndk1::char_traits<char>, std::__ndk1::allocator<char> > const&)
PUBLIC 75670 0 std::__ndk1::__function::__func<EditRepeatPopup::setup(BindableNode*)::$_1, std::__ndk1::allocator<EditRepeatPopup::setup(BindableNode*)::$_1>, void (std::__ndk1::basic_string<char, std::__ndk1::char_traits<char>, std::__ndk1::allocator<char> > const&)>::target(std::type_info const&) const
PUBLIC 7568c 0 std::__ndk1::__function::__func<EditRepeatPopup::setup(BindableNode*)::$_1, std::__ndk1::allocator<EditRepeatPopup::setup(BindableNode*)::$_1>, void (std::__ndk1::basic_string<char, std::__ndk1::char_traits<char>, std::__ndk1::allocator<char> > const&)>::target_type() const
PUBLIC 75698 0 geode::Popup<BindableNode*>::CloseEvent::~CloseEvent()
PUBLIC 756f8 0 geode::Popup<BindableNode*>::CloseEvent::~CloseEvent()
PUBLIC 75768 0 std::__ndk1::__shared_ptr_emplace<geode::Popup<BindableNode*>::CloseEvent::Impl, std::__ndk1::allocator<geode::Popup<BindableNode*>::CloseEvent::Impl> >::~__shared_ptr_emplace()
PUBLIC 75778 0 std::__ndk1::__shared_ptr_emplace<geode::Popup<BindableNode*>::CloseEvent::Impl, std::__ndk1::allocator<geode::Popup<BindableNode*>::CloseEvent::Impl> >::~__shared_ptr_emplace()
PUBLIC 757a8 0 std::__ndk1::__shared_ptr_emplace<geode::Popup<BindableNode*>::CloseEvent::Impl, std::__ndk1::allocator<geode::Popup<BindableNode*>::CloseEvent::Impl> >::__on_zero_shared()
PUBLIC 757ac 0 std::__ndk1::__shared_ptr_emplace<geode::Popup<BindableNode*>::CloseEvent::Impl, std::__ndk1::allocator<geode::Popup<BindableNode*>::CloseEvent::Impl> >::__on_zero_shared_weak()
PUBLIC 757b0 0 std::__ndk1::__function::__func<BindableNode::onResetToDefault(cocos2d::CCObject*)::$_0, std::__ndk1::allocator<BindableNode::onResetToDefault(cocos2d::CCObject*)::$_0>, void (FLAlertLayer*, bool)>::~__func()
PUBLIC 757b4 0 std::__ndk1::__function::__func<BindableNode::onResetToDefault(cocos2d::CCObject*)::$_0, std::__ndk1::allocator<BindableNode::onResetToDefault(cocos2d::CCObject*)::$_0>, void (FLAlertLayer*, bool)>::__clone() const
PUBLIC 757e8 0 std::__ndk1::__function::__func<BindableNode::onResetToDefault(cocos2d::CCObject*)::$_0, std::__ndk1::allocator<BindableNode::onResetToDefault(cocos2d::CCObject*)::$_0>, void (FLAlertLayer*, bool)>::__clone(std::__ndk1::__function::__base<void (FLAlertLayer*, bool)>*) const
PUBLIC 757fc 0 std::__ndk1::__function::__func<BindableNode::onResetToDefault(cocos2d::CCObject*)::$_0, std::__ndk1::allocator<BindableNode::onResetToDefault(cocos2d::CCObject*)::$_0>, void (FLAlertLayer*, bool)>::destroy()
PUBLIC 75800 0 std::__ndk1::__function::__func<BindableNode::onResetToDefault(cocos2d::CCObject*)::$_0, std::__ndk1::allocator<BindableNode::onResetToDefault(cocos2d::CCObject*)::$_0>, void (FLAlertLayer*, bool)>::destroy_deallocate()
PUBLIC 75804 0 std::__ndk1::__function::__func<BindableNode::onResetToDefault(cocos2d::CCObject*)::$_0, std::__ndk1::allocator<BindableNode::onResetToDefault(cocos2d::CCObject*)::$_0>, void (FLAlertLayer*, bool)>::operator()(FLAlertLayer*&&, bool&&)
PUBLIC 75944 0 std::__ndk1::__function::__func<BindableNode::onResetToDefault(cocos2d::CCObject*)::$_0, std::__ndk1::allocator<BindableNode::onResetToDefault(cocos2d::CCObject*)::$_0>, void (FLAlertLayer*, bool)>::target(std::type_info const&) const
PUBLIC 75960 0 std::__ndk1::__function::__func<BindableNode::onResetToDefault(cocos2d::CCObject*)::$_0, std::__ndk1::allocator<BindableNode::onResetToDefault(cocos2d::CCObject*)::$_0>, void (FLAlertLayer*, bool)>::target_type() const
PUBLIC 7596c 0 std::__ndk1::__function::__base<void (FLAlertLayer*, bool)>::~__base()
PUBLIC 75970 0 std::__ndk1::__function::__func<KeybindsLayer::onResetAll(cocos2d::CCObject*)::$_0, std::__ndk1::allocator<KeybindsLayer::onResetAll(cocos2d::CCObject*)::$_0>, void (FLAlertLayer*, bool)>::~__func()
PUBLIC 75974 0 std::__ndk1::__function::__func<KeybindsLayer::onResetAll(cocos2d::CCObject*)::$_0, std::__ndk1::allocator<KeybindsLayer::onResetAll(cocos2d::CCObject*)::$_0>, void (FLAlertLayer*, bool)>::__clone() const
PUBLIC 759a8 0 std::__ndk1::__function::__func<KeybindsLayer::onResetAll(cocos2d::CCObject*)::$_0, std::__ndk1::allocator<KeybindsLayer::onResetAll(cocos2d::CCObject*)::$_0>, void (FLAlertLayer*, bool)>::__clone(std::__ndk1::__function::__base<void (FLAlertLayer*, bool)>*) const
PUBLIC 759bc 0 std::__ndk1::__function::__func<KeybindsLayer::onResetAll(cocos2d::CCObject*)::$_0, std::__ndk1::allocator<KeybindsLayer::onResetAll(cocos2d::CCObject*)::$_0>, void (FLAlertLayer*, bool)>::destroy()
PUBLIC 759c0 0 std::__ndk1::__function::__func<KeybindsLayer::onResetAll(cocos2d::CCObject*)::$_0, std::__ndk1::allocator<KeybindsLayer::onResetAll(cocos2d::CCObject*)::$_0>, void (FLAlertLayer*, bool)>::destroy_deallocate()
PUBLIC 759c4 0 std::__ndk1::__function::__func<KeybindsLayer::onResetAll(cocos2d::CCObject*)::$_0, std::__ndk1::allocator<KeybindsLayer::onResetAll(cocos2d::CCObject*)::$_0>, void (FLAlertLayer*, bool)>::operator()(FLAlertLayer*&&, bool&&)
PUBLIC 75c6c 0 std::__ndk1::__function::__func<KeybindsLayer::onResetAll(cocos2d::CCObject*)::$_0, std::__ndk1::allocator<KeybindsLayer::onResetAll(cocos2d::CCObject*)::$_0>, void (FLAlertLayer*, bool)>::target(std::type_info const&) const
PUBLIC 75c88 0 std::__ndk1::__function::__func<KeybindsLayer::onResetAll(cocos2d::CCObject*)::$_0, std::__ndk1::allocator<KeybindsLayer::onResetAll(cocos2d::CCObject*)::$_0>, void (FLAlertLayer*, bool)>::target_type() const
PUBLIC 75c94 0 geode::Popup<>::initBase(float, float, char const*, cocos2d::CCRect, bool)
PUBLIC 75f9c 0 geode::Popup<>::CloseEvent::~CloseEvent()
PUBLIC 75ffc 0 geode::Popup<>::CloseEvent::~CloseEvent()
PUBLIC 7606c 0 std::__ndk1::__shared_ptr_emplace<geode::Popup<>::CloseEvent::Impl, std::__ndk1::allocator<geode::Popup<>::CloseEvent::Impl> >::~__shared_ptr_emplace()
PUBLIC 7607c 0 std::__ndk1::__shared_ptr_emplace<geode::Popup<>::CloseEvent::Impl, std::__ndk1::allocator<geode::Popup<>::CloseEvent::Impl> >::~__shared_ptr_emplace()
PUBLIC 760ac 0 std::__ndk1::__shared_ptr_emplace<geode::Popup<>::CloseEvent::Impl, std::__ndk1::allocator<geode::Popup<>::CloseEvent::Impl> >::__on_zero_shared()
PUBLIC 760b0 0 std::__ndk1::__shared_ptr_emplace<geode::Popup<>::CloseEvent::Impl, std::__ndk1::allocator<geode::Popup<>::CloseEvent::Impl> >::__on_zero_shared_weak()
PUBLIC m 760b4 0 keybinds::MouseBind::create(keybinds::MouseButton, keybinds::Modifier)
PUBLIC m 7612c 0 keybinds::MouseBind::parse(matjson::Value const&)
PUBLIC m 76294 0 keybinds::MouseBind::getButton() const
PUBLIC m 7629c 0 keybinds::MouseBind::getModifiers() const
PUBLIC m 762a4 0 keybinds::MouseBind::getHash() const
PUBLIC m 762b4 0 keybinds::MouseBind::isEqual(keybinds::Bind*) const
PUBLIC m 76338 0 keybinds::MouseBind::toString() const
PUBLIC m 76514 0 keybinds::MouseBind::getDeviceID() const
PUBLIC m 76564 0 keybinds::MouseBind::save() const
PUBLIC 76694 0 keybinds::MouseBind::~MouseBind()
PUBLIC 766b8 0 geodeExecFunction293<(anonymous namespace)::ExecFuncUnique293>()
PUBLIC 7a8bc 0 __cxx_global_var_init.1
PUBLIC 7acf8 0 __cxx_global_var_init.2
PUBLIC 7b2e0 0 _GLOBAL__sub_I_UILayer.cpp
PUBLIC 7b2e4 0 geode::modifier::ModifyBase<geode::modifier::ModifyDerive<hook41<(anonymous namespace)::hook41Parent>, PauseLayer> >::~ModifyBase()
PUBLIC 7b300 0 geode::modifier::ModifyBase<geode::modifier::ModifyDerive<hook88<(anonymous namespace)::hook88Parent>, UILayer> >::~ModifyBase()
PUBLIC 7b31c 0 geode::modifier::ModifyDerive<hook41<(anonymous namespace)::hook41Parent>, PauseLayer>::apply()
PUBLIC 7b904 0 geode::modifier::ModifyBase<geode::modifier::ModifyDerive<hook41<(anonymous namespace)::hook41Parent>, PauseLayer> >::apply()
PUBLIC 7b908 0 geode::modifier::AsStaticFunction_keyDown<hook41<(anonymous namespace)::hook41Parent>, void (hook41<(anonymous namespace)::hook41Parent>::*)(cocos2d::enumKeyCodes)>::Impl<void (hook41<(anonymous namespace)::hook41Parent>::*)(cocos2d::enumKeyCodes)>::function(hook41<(anonymous namespace)::hook41Parent>*, cocos2d::enumKeyCodes)
PUBLIC 7b918 0 geode::modifier::AsStaticFunction_customSetup<hook41<(anonymous namespace)::hook41Parent>, void (hook41<(anonymous namespace)::hook41Parent>::*)()>::Impl<void (hook41<(anonymous namespace)::hook41Parent>::*)()>::function(hook41<(anonymous namespace)::hook41Parent>*)
PUBLIC 7bea0 0 geode::addresser::Addresser::addressOfVirtual<void, PauseLayer, cocos2d::enumKeyCodes>(void (PauseLayer::*)(cocos2d::enumKeyCodes))
PUBLIC 7bf48 0 PauseLayer::PauseLayer(geode::ZeroConstructorType)
PUBLIC 7bfd4 0 geode::addresser::Addresser::addressOfVirtual<void, PauseLayer, >(void (PauseLayer::*)())
PUBLIC 7c07c 0 std::__ndk1::__function::__func<hook41<(anonymous namespace)::hook41Parent>::customSetup()::{lambda(keybinds::InvokeBindEvent*)#1}, std::__ndk1::allocator<hook41<(anonymous namespace)::hook41Parent>::customSetup()::{lambda(keybinds::InvokeBindEvent*)#1}>, geode::ListenerResult(keybinds::InvokeBindEvent*)>::~__func()
PUBLIC 7c080 0 std::__ndk1::__function::__func<hook41<(anonymous namespace)::hook41Parent>::customSetup()::{lambda(keybinds::InvokeBindEvent*)#1}, std::__ndk1::allocator<hook41<(anonymous namespace)::hook41Parent>::customSetup()::{lambda(keybinds::InvokeBindEvent*)#1}>, geode::ListenerResult(keybinds::InvokeBindEvent*)>::__clone() const
PUBLIC 7c0b4 0 std::__ndk1::__function::__func<hook41<(anonymous namespace)::hook41Parent>::customSetup()::{lambda(keybinds::InvokeBindEvent*)#1}, std::__ndk1::allocator<hook41<(anonymous namespace)::hook41Parent>::customSetup()::{lambda(keybinds::InvokeBindEvent*)#1}>, geode::ListenerResult(keybinds::InvokeBindEvent*)>::__clone(std::__ndk1::__function::__base<geode::ListenerResult(keybinds::InvokeBindEvent*)>*) const
PUBLIC 7c0c8 0 std::__ndk1::__function::__func<hook41<(anonymous namespace)::hook41Parent>::customSetup()::{lambda(keybinds::InvokeBindEvent*)#1}, std::__ndk1::allocator<hook41<(anonymous namespace)::hook41Parent>::customSetup()::{lambda(keybinds::InvokeBindEvent*)#1}>, geode::ListenerResult(keybinds::InvokeBindEvent*)>::destroy()
PUBLIC 7c0cc 0 std::__ndk1::__function::__func<hook41<(anonymous namespace)::hook41Parent>::customSetup()::{lambda(keybinds::InvokeBindEvent*)#1}, std::__ndk1::allocator<hook41<(anonymous namespace)::hook41Parent>::customSetup()::{lambda(keybinds::InvokeBindEvent*)#1}>, geode::ListenerResult(keybinds::InvokeBindEvent*)>::destroy_deallocate()
PUBLIC 7c0d0 0 std::__ndk1::__function::__func<hook41<(anonymous namespace)::hook41Parent>::customSetup()::{lambda(keybinds::InvokeBindEvent*)#1}, std::__ndk1::allocator<hook41<(anonymous namespace)::hook41Parent>::customSetup()::{lambda(keybinds::InvokeBindEvent*)#1}>, geode::ListenerResult(keybinds::InvokeBindEvent*)>::operator()(keybinds::InvokeBindEvent*&&)
PUBLIC 7c1c0 0 std::__ndk1::__function::__func<hook41<(anonymous namespace)::hook41Parent>::customSetup()::{lambda(keybinds::InvokeBindEvent*)#1}, std::__ndk1::allocator<hook41<(anonymous namespace)::hook41Parent>::customSetup()::{lambda(keybinds::InvokeBindEvent*)#1}>, geode::ListenerResult(keybinds::InvokeBindEvent*)>::target(std::type_info const&) const
PUBLIC 7c1dc 0 std::__ndk1::__function::__func<hook41<(anonymous namespace)::hook41Parent>::customSetup()::{lambda(keybinds::InvokeBindEvent*)#1}, std::__ndk1::allocator<hook41<(anonymous namespace)::hook41Parent>::customSetup()::{lambda(keybinds::InvokeBindEvent*)#1}>, geode::ListenerResult(keybinds::InvokeBindEvent*)>::target_type() const
PUBLIC 7c1e8 0 std::__ndk1::__function::__func<hook41<(anonymous namespace)::hook41Parent>::customSetup()::{lambda(keybinds::InvokeBindEvent*)#2}, std::__ndk1::allocator<hook41<(anonymous namespace)::hook41Parent>::customSetup()::{lambda(keybinds::InvokeBindEvent*)#2}>, geode::ListenerResult(keybinds::InvokeBindEvent*)>::~__func()
PUBLIC 7c1ec 0 std::__ndk1::__function::__func<hook41<(anonymous namespace)::hook41Parent>::customSetup()::{lambda(keybinds::InvokeBindEvent*)#2}, std::__ndk1::allocator<hook41<(anonymous namespace)::hook41Parent>::customSetup()::{lambda(keybinds::InvokeBindEvent*)#2}>, geode::ListenerResult(keybinds::InvokeBindEvent*)>::__clone() const
PUBLIC 7c220 0 std::__ndk1::__function::__func<hook41<(anonymous namespace)::hook41Parent>::customSetup()::{lambda(keybinds::InvokeBindEvent*)#2}, std::__ndk1::allocator<hook41<(anonymous namespace)::hook41Parent>::customSetup()::{lambda(keybinds::InvokeBindEvent*)#2}>, geode::ListenerResult(keybinds::InvokeBindEvent*)>::__clone(std::__ndk1::__function::__base<geode::ListenerResult(keybinds::InvokeBindEvent*)>*) const
PUBLIC 7c234 0 std::__ndk1::__function::__func<hook41<(anonymous namespace)::hook41Parent>::customSetup()::{lambda(keybinds::InvokeBindEvent*)#2}, std::__ndk1::allocator<hook41<(anonymous namespace)::hook41Parent>::customSetup()::{lambda(keybinds::InvokeBindEvent*)#2}>, geode::ListenerResult(keybinds::InvokeBindEvent*)>::destroy()
PUBLIC 7c238 0 std::__ndk1::__function::__func<hook41<(anonymous namespace)::hook41Parent>::customSetup()::{lambda(keybinds::InvokeBindEvent*)#2}, std::__ndk1::allocator<hook41<(anonymous namespace)::hook41Parent>::customSetup()::{lambda(keybinds::InvokeBindEvent*)#2}>, geode::ListenerResult(keybinds::InvokeBindEvent*)>::destroy_deallocate()
PUBLIC 7c23c 0 std::__ndk1::__function::__func<hook41<(anonymous namespace)::hook41Parent>::customSetup()::{lambda(keybinds::InvokeBindEvent*)#2}, std::__ndk1::allocator<hook41<(anonymous namespace)::hook41Parent>::customSetup()::{lambda(keybinds::InvokeBindEvent*)#2}>, geode::ListenerResult(keybinds::InvokeBindEvent*)>::operator()(keybinds::InvokeBindEvent*&&)
PUBLIC 7c270 0 std::__ndk1::__function::__func<hook41<(anonymous namespace)::hook41Parent>::customSetup()::{lambda(keybinds::InvokeBindEvent*)#2}, std::__ndk1::allocator<hook41<(anonymous namespace)::hook41Parent>::customSetup()::{lambda(keybinds::InvokeBindEvent*)#2}>, geode::ListenerResult(keybinds::InvokeBindEvent*)>::target(std::type_info const&) const
PUBLIC 7c28c 0 std::__ndk1::__function::__func<hook41<(anonymous namespace)::hook41Parent>::customSetup()::{lambda(keybinds::InvokeBindEvent*)#2}, std::__ndk1::allocator<hook41<(anonymous namespace)::hook41Parent>::customSetup()::{lambda(keybinds::InvokeBindEvent*)#2}>, geode::ListenerResult(keybinds::InvokeBindEvent*)>::target_type() const
PUBLIC 7c298 0 std::__ndk1::__function::__func<hook41<(anonymous namespace)::hook41Parent>::customSetup()::{lambda(keybinds::InvokeBindEvent*)#3}, std::__ndk1::allocator<hook41<(anonymous namespace)::hook41Parent>::customSetup()::{lambda(keybinds::InvokeBindEvent*)#3}>, geode::ListenerResult(keybinds::InvokeBindEvent*)>::~__func()
PUBLIC 7c29c 0 std::__ndk1::__function::__func<hook41<(anonymous namespace)::hook41Parent>::customSetup()::{lambda(keybinds::InvokeBindEvent*)#3}, std::__ndk1::allocator<hook41<(anonymous namespace)::hook41Parent>::customSetup()::{lambda(keybinds::InvokeBindEvent*)#3}>, geode::ListenerResult(keybinds::InvokeBindEvent*)>::__clone() const
PUBLIC 7c2d0 0 std::__ndk1::__function::__func<hook41<(anonymous namespace)::hook41Parent>::customSetup()::{lambda(keybinds::InvokeBindEvent*)#3}, std::__ndk1::allocator<hook41<(anonymous namespace)::hook41Parent>::customSetup()::{lambda(keybinds::InvokeBindEvent*)#3}>, geode::ListenerResult(keybinds::InvokeBindEvent*)>::__clone(std::__ndk1::__function::__base<geode::ListenerResult(keybinds::InvokeBindEvent*)>*) const
PUBLIC 7c2e4 0 std::__ndk1::__function::__func<hook41<(anonymous namespace)::hook41Parent>::customSetup()::{lambda(keybinds::InvokeBindEvent*)#3}, std::__ndk1::allocator<hook41<(anonymous namespace)::hook41Parent>::customSetup()::{lambda(keybinds::InvokeBindEvent*)#3}>, geode::ListenerResult(keybinds::InvokeBindEvent*)>::destroy()
PUBLIC 7c2e8 0 std::__ndk1::__function::__func<hook41<(anonymous namespace)::hook41Parent>::customSetup()::{lambda(keybinds::InvokeBindEvent*)#3}, std::__ndk1::allocator<hook41<(anonymous namespace)::hook41Parent>::customSetup()::{lambda(keybinds::InvokeBindEvent*)#3}>, geode::ListenerResult(keybinds::InvokeBindEvent*)>::destroy_deallocate()
PUBLIC 7c2ec 0 std::__ndk1::__function::__func<hook41<(anonymous namespace)::hook41Parent>::customSetup()::{lambda(keybinds::InvokeBindEvent*)#3}, std::__ndk1::allocator<hook41<(anonymous namespace)::hook41Parent>::customSetup()::{lambda(keybinds::InvokeBindEvent*)#3}>, geode::ListenerResult(keybinds::InvokeBindEvent*)>::operator()(keybinds::InvokeBindEvent*&&)
PUBLIC 7c370 0 std::__ndk1::__function::__func<hook41<(anonymous namespace)::hook41Parent>::customSetup()::{lambda(keybinds::InvokeBindEvent*)#3}, std::__ndk1::allocator<hook41<(anonymous namespace)::hook41Parent>::customSetup()::{lambda(keybinds::InvokeBindEvent*)#3}>, geode::ListenerResult(keybinds::InvokeBindEvent*)>::target(std::type_info const&) const
PUBLIC 7c38c 0 std::__ndk1::__function::__func<hook41<(anonymous namespace)::hook41Parent>::customSetup()::{lambda(keybinds::InvokeBindEvent*)#3}, std::__ndk1::allocator<hook41<(anonymous namespace)::hook41Parent>::customSetup()::{lambda(keybinds::InvokeBindEvent*)#3}>, geode::ListenerResult(keybinds::InvokeBindEvent*)>::target_type() const
PUBLIC 7c398 0 geode::modifier::ModifyDerive<hook88<(anonymous namespace)::hook88Parent>, UILayer>::apply()
PUBLIC 7ca1c 0 geode::modifier::ModifyBase<geode::modifier::ModifyDerive<hook88<(anonymous namespace)::hook88Parent>, UILayer> >::apply()
PUBLIC 7ca20 0 geode::modifier::AsStaticFunction_handleKeypress<hook88<(anonymous namespace)::hook88Parent>, void (hook88<(anonymous namespace)::hook88Parent>::*)(cocos2d::enumKeyCodes, bool)>::Impl<void (hook88<(anonymous namespace)::hook88Parent>::*)(cocos2d::enumKeyCodes, bool)>::function(hook88<(anonymous namespace)::hook88Parent>*, cocos2d::enumKeyCodes, bool)
PUBLIC 7ca5c 0 geode::modifier::AsStaticFunction_init<hook88<(anonymous namespace)::hook88Parent>, bool (hook88<(anonymous namespace)::hook88Parent>::*)(GJBaseGameLayer*)>::Impl<bool (hook88<(anonymous namespace)::hook88Parent>::*)(GJBaseGameLayer*)>::function(hook88<(anonymous namespace)::hook88Parent>*, GJBaseGameLayer*)
PUBLIC 7cb50 0 std::__ndk1::__function::__func<hook88<(anonymous namespace)::hook88Parent>::init(GJBaseGameLayer*)::{lambda()#1}, std::__ndk1::allocator<hook88<(anonymous namespace)::hook88Parent>::init(GJBaseGameLayer*)::{lambda()#1}>, void ()>::~__func()
PUBLIC 7cb54 0 std::__ndk1::__function::__func<hook88<(anonymous namespace)::hook88Parent>::init(GJBaseGameLayer*)::{lambda()#1}, std::__ndk1::allocator<hook88<(anonymous namespace)::hook88Parent>::init(GJBaseGameLayer*)::{lambda()#1}>, void ()>::__clone() const
PUBLIC 7cb88 0 std::__ndk1::__function::__func<hook88<(anonymous namespace)::hook88Parent>::init(GJBaseGameLayer*)::{lambda()#1}, std::__ndk1::allocator<hook88<(anonymous namespace)::hook88Parent>::init(GJBaseGameLayer*)::{lambda()#1}>, void ()>::__clone(std::__ndk1::__function::__base<void ()>*) const
PUBLIC 7cb9c 0 std::__ndk1::__function::__func<hook88<(anonymous namespace)::hook88Parent>::init(GJBaseGameLayer*)::{lambda()#1}, std::__ndk1::allocator<hook88<(anonymous namespace)::hook88Parent>::init(GJBaseGameLayer*)::{lambda()#1}>, void ()>::destroy()
PUBLIC 7cba0 0 std::__ndk1::__function::__func<hook88<(anonymous namespace)::hook88Parent>::init(GJBaseGameLayer*)::{lambda()#1}, std::__ndk1::allocator<hook88<(anonymous namespace)::hook88Parent>::init(GJBaseGameLayer*)::{lambda()#1}>, void ()>::destroy_deallocate()
PUBLIC 7cba4 0 std::__ndk1::__function::__func<hook88<(anonymous namespace)::hook88Parent>::init(GJBaseGameLayer*)::{lambda()#1}, std::__ndk1::allocator<hook88<(anonymous namespace)::hook88Parent>::init(GJBaseGameLayer*)::{lambda()#1}>, void ()>::operator()()
PUBLIC 7d1e4 0 std::__ndk1::__function::__func<hook88<(anonymous namespace)::hook88Parent>::init(GJBaseGameLayer*)::{lambda()#1}, std::__ndk1::allocator<hook88<(anonymous namespace)::hook88Parent>::init(GJBaseGameLayer*)::{lambda()#1}>, void ()>::target(std::type_info const&) const
PUBLIC 7d200 0 std::__ndk1::__function::__func<hook88<(anonymous namespace)::hook88Parent>::init(GJBaseGameLayer*)::{lambda()#1}, std::__ndk1::allocator<hook88<(anonymous namespace)::hook88Parent>::init(GJBaseGameLayer*)::{lambda()#1}>, void ()>::target_type() const
PUBLIC 7d20c 0 hook88<(anonymous namespace)::hook88Parent>::defineKeybind(char const*, std::__ndk1::function<geode::ListenerResult(bool)>)
PUBLIC 7d70c 0 addBindSprites(cocos2d::CCNode*, char const*)
PUBLIC 7daf4 0 std::__ndk1::__function::__func<hook88<(anonymous namespace)::hook88Parent>::defineKeybind(char const*, std::__ndk1::function<geode::ListenerResult(bool)>)::{lambda(keybinds::InvokeBindEvent*)#1}, std::__ndk1::allocator<hook88<(anonymous namespace)::hook88Parent>::defineKeybind(char const*, std::__ndk1::function<geode::ListenerResult(bool)>)::{lambda(keybinds::InvokeBindEvent*)#1}>, geode::ListenerResult(keybinds::InvokeBindEvent*)>::~__func()
PUBLIC 7db40 0 std::__ndk1::__function::__func<hook88<(anonymous namespace)::hook88Parent>::defineKeybind(char const*, std::__ndk1::function<geode::ListenerResult(bool)>)::{lambda(keybinds::InvokeBindEvent*)#1}, std::__ndk1::allocator<hook88<(anonymous namespace)::hook88Parent>::defineKeybind(char const*, std::__ndk1::function<geode::ListenerResult(bool)>)::{lambda(keybinds::InvokeBindEvent*)#1}>, geode::ListenerResult(keybinds::InvokeBindEvent*)>::~__func()
PUBLIC 7db9c 0 std::__ndk1::__function::__func<hook88<(anonymous namespace)::hook88Parent>::defineKeybind(char const*, std::__ndk1::function<geode::ListenerResult(bool)>)::{lambda(keybinds::InvokeBindEvent*)#1}, std::__ndk1::allocator<hook88<(anonymous namespace)::hook88Parent>::defineKeybind(char const*, std::__ndk1::function<geode::ListenerResult(bool)>)::{lambda(keybinds::InvokeBindEvent*)#1}>, geode::ListenerResult(keybinds::InvokeBindEvent*)>::__clone() const
PUBLIC 7dc38 0 std::__ndk1::__function::__func<hook88<(anonymous namespace)::hook88Parent>::defineKeybind(char const*, std::__ndk1::function<geode::ListenerResult(bool)>)::{lambda(keybinds::InvokeBindEvent*)#1}, std::__ndk1::allocator<hook88<(anonymous namespace)::hook88Parent>::defineKeybind(char const*, std::__ndk1::function<geode::ListenerResult(bool)>)::{lambda(keybinds::InvokeBindEvent*)#1}>, geode::ListenerResult(keybinds::InvokeBindEvent*)>::__clone(std::__ndk1::__function::__base<geode::ListenerResult(keybinds::InvokeBindEvent*)>*) const
PUBLIC 7dcc0 0 std::__ndk1::__function::__func<hook88<(anonymous namespace)::hook88Parent>::defineKeybind(char const*, std::__ndk1::function<geode::ListenerResult(bool)>)::{lambda(keybinds::InvokeBindEvent*)#1}, std::__ndk1::allocator<hook88<(anonymous namespace)::hook88Parent>::defineKeybind(char const*, std::__ndk1::function<geode::ListenerResult(bool)>)::{lambda(keybinds::InvokeBindEvent*)#1}>, geode::ListenerResult(keybinds::InvokeBindEvent*)>::destroy()
PUBLIC 7dd00 0 std::__ndk1::__function::__func<hook88<(anonymous namespace)::hook88Parent>::defineKeybind(char const*, std::__ndk1::function<geode::ListenerResult(bool)>)::{lambda(keybinds::InvokeBindEvent*)#1}, std::__ndk1::allocator<hook88<(anonymous namespace)::hook88Parent>::defineKeybind(char const*, std::__ndk1::function<geode::ListenerResult(bool)>)::{lambda(keybinds::InvokeBindEvent*)#1}>, geode::ListenerResult(keybinds::InvokeBindEvent*)>::destroy_deallocate()
PUBLIC 7dd50 0 std::__ndk1::__function::__func<hook88<(anonymous namespace)::hook88Parent>::defineKeybind(char const*, std::__ndk1::function<geode::ListenerResult(bool)>)::{lambda(keybinds::InvokeBindEvent*)#1}, std::__ndk1::allocator<hook88<(anonymous namespace)::hook88Parent>::defineKeybind(char const*, std::__ndk1::function<geode::ListenerResult(bool)>)::{lambda(keybinds::InvokeBindEvent*)#1}>, geode::ListenerResult(keybinds::InvokeBindEvent*)>::operator()(keybinds::InvokeBindEvent*&&)
PUBLIC 7ddc8 0 std::__ndk1::__function::__func<hook88<(anonymous namespace)::hook88Parent>::defineKeybind(char const*, std::__ndk1::function<geode::ListenerResult(bool)>)::{lambda(keybinds::InvokeBindEvent*)#1}, std::__ndk1::allocator<hook88<(anonymous namespace)::hook88Parent>::defineKeybind(char const*, std::__ndk1::function<geode::ListenerResult(bool)>)::{lambda(keybinds::InvokeBindEvent*)#1}>, geode::ListenerResult(keybinds::InvokeBindEvent*)>::target(std::type_info const&) const
PUBLIC 7dde4 0 std::__ndk1::__function::__func<hook88<(anonymous namespace)::hook88Parent>::defineKeybind(char const*, std::__ndk1::function<geode::ListenerResult(bool)>)::{lambda(keybinds::InvokeBindEvent*)#1}, std::__ndk1::allocator<hook88<(anonymous namespace)::hook88Parent>::defineKeybind(char const*, std::__ndk1::function<geode::ListenerResult(bool)>)::{lambda(keybinds::InvokeBindEvent*)#1}>, geode::ListenerResult(keybinds::InvokeBindEvent*)>::target_type() const
PUBLIC 7ddf0 0 std::__ndk1::__function::__func<hook88<(anonymous namespace)::hook88Parent>::init(GJBaseGameLayer*)::{lambda()#1}::operator()() const::{lambda(bool)#1}, std::__ndk1::allocator<hook88<(anonymous namespace)::hook88Parent>::init(GJBaseGameLayer*)::{lambda()#1}::operator()() const::{lambda(bool)#1}>, geode::ListenerResult(bool)>::~__func()
PUBLIC 7ddf4 0 std::__ndk1::__function::__func<hook88<(anonymous namespace)::hook88Parent>::init(GJBaseGameLayer*)::{lambda()#1}::operator()() const::{lambda(bool)#1}, std::__ndk1::allocator<hook88<(anonymous namespace)::hook88Parent>::init(GJBaseGameLayer*)::{lambda()#1}::operator()() const::{lambda(bool)#1}>, geode::ListenerResult(bool)>::__clone() const
PUBLIC 7de28 0 std::__ndk1::__function::__func<hook88<(anonymous namespace)::hook88Parent>::init(GJBaseGameLayer*)::{lambda()#1}::operator()() const::{lambda(bool)#1}, std::__ndk1::allocator<hook88<(anonymous namespace)::hook88Parent>::init(GJBaseGameLayer*)::{lambda()#1}::operator()() const::{lambda(bool)#1}>, geode::ListenerResult(bool)>::__clone(std::__ndk1::__function::__base<geode::ListenerResult(bool)>*) const
PUBLIC 7de3c 0 std::__ndk1::__function::__func<hook88<(anonymous namespace)::hook88Parent>::init(GJBaseGameLayer*)::{lambda()#1}::operator()() const::{lambda(bool)#1}, std::__ndk1::allocator<hook88<(anonymous namespace)::hook88Parent>::init(GJBaseGameLayer*)::{lambda()#1}::operator()() const::{lambda(bool)#1}>, geode::ListenerResult(bool)>::destroy()
PUBLIC 7de40 0 std::__ndk1::__function::__func<hook88<(anonymous namespace)::hook88Parent>::init(GJBaseGameLayer*)::{lambda()#1}::operator()() const::{lambda(bool)#1}, std::__ndk1::allocator<hook88<(anonymous namespace)::hook88Parent>::init(GJBaseGameLayer*)::{lambda()#1}::operator()() const::{lambda(bool)#1}>, geode::ListenerResult(bool)>::destroy_deallocate()
PUBLIC 7de44 0 std::__ndk1::__function::__func<hook88<(anonymous namespace)::hook88Parent>::init(GJBaseGameLayer*)::{lambda()#1}::operator()() const::{lambda(bool)#1}, std::__ndk1::allocator<hook88<(anonymous namespace)::hook88Parent>::init(GJBaseGameLayer*)::{lambda()#1}::operator()() const::{lambda(bool)#1}>, geode::ListenerResult(bool)>::operator()(bool&&)
PUBLIC 7debc 0 std::__ndk1::__function::__func<hook88<(anonymous namespace)::hook88Parent>::init(GJBaseGameLayer*)::{lambda()#1}::operator()() const::{lambda(bool)#1}, std::__ndk1::allocator<hook88<(anonymous namespace)::hook88Parent>::init(GJBaseGameLayer*)::{lambda()#1}::operator()() const::{lambda(bool)#1}>, geode::ListenerResult(bool)>::target(std::type_info const&) const
PUBLIC 7ded8 0 std::__ndk1::__function::__func<hook88<(anonymous namespace)::hook88Parent>::init(GJBaseGameLayer*)::{lambda()#1}::operator()() const::{lambda(bool)#1}, std::__ndk1::allocator<hook88<(anonymous namespace)::hook88Parent>::init(GJBaseGameLayer*)::{lambda()#1}::operator()() const::{lambda(bool)#1}>, geode::ListenerResult(bool)>::target_type() const
PUBLIC 7dee4 0 hook88<(anonymous namespace)::hook88Parent>::isPaused()
PUBLIC 7e080 0 hook88<(anonymous namespace)::hook88Parent>::isCurrentPlayLayer()
PUBLIC 7e21c 0 std::__ndk1::__function::__func<hook88<(anonymous namespace)::hook88Parent>::init(GJBaseGameLayer*)::{lambda()#1}::operator()() const::{lambda(bool)#2}, std::__ndk1::allocator<hook88<(anonymous namespace)::hook88Parent>::init(GJBaseGameLayer*)::{lambda()#1}::operator()() const::{lambda(bool)#2}>, geode::ListenerResult(bool)>::~__func()
PUBLIC 7e220 0 std::__ndk1::__function::__func<hook88<(anonymous namespace)::hook88Parent>::init(GJBaseGameLayer*)::{lambda()#1}::operator()() const::{lambda(bool)#2}, std::__ndk1::allocator<hook88<(anonymous namespace)::hook88Parent>::init(GJBaseGameLayer*)::{lambda()#1}::operator()() const::{lambda(bool)#2}>, geode::ListenerResult(bool)>::__clone() const
PUBLIC 7e254 0 std::__ndk1::__function::__func<hook88<(anonymous namespace)::hook88Parent>::init(GJBaseGameLayer*)::{lambda()#1}::operator()() const::{lambda(bool)#2}, std::__ndk1::allocator<hook88<(anonymous namespace)::hook88Parent>::init(GJBaseGameLayer*)::{lambda()#1}::operator()() const::{lambda(bool)#2}>, geode::ListenerResult(bool)>::__clone(std::__ndk1::__function::__base<geode::ListenerResult(bool)>*) const
PUBLIC 7e268 0 std::__ndk1::__function::__func<hook88<(anonymous namespace)::hook88Parent>::init(GJBaseGameLayer*)::{lambda()#1}::operator()() const::{lambda(bool)#2}, std::__ndk1::allocator<hook88<(anonymous namespace)::hook88Parent>::init(GJBaseGameLayer*)::{lambda()#1}::operator()() const::{lambda(bool)#2}>, geode::ListenerResult(bool)>::destroy()
PUBLIC 7e26c 0 std::__ndk1::__function::__func<hook88<(anonymous namespace)::hook88Parent>::init(GJBaseGameLayer*)::{lambda()#1}::operator()() const::{lambda(bool)#2}, std::__ndk1::allocator<hook88<(anonymous namespace)::hook88Parent>::init(GJBaseGameLayer*)::{lambda()#1}::operator()() const::{lambda(bool)#2}>, geode::ListenerResult(bool)>::destroy_deallocate()
PUBLIC 7e270 0 std::__ndk1::__function::__func<hook88<(anonymous namespace)::hook88Parent>::init(GJBaseGameLayer*)::{lambda()#1}::operator()() const::{lambda(bool)#2}, std::__ndk1::allocator<hook88<(anonymous namespace)::hook88Parent>::init(GJBaseGameLayer*)::{lambda()#1}::operator()() const::{lambda(bool)#2}>, geode::ListenerResult(bool)>::operator()(bool&&)
PUBLIC 7e2e8 0 std::__ndk1::__function::__func<hook88<(anonymous namespace)::hook88Parent>::init(GJBaseGameLayer*)::{lambda()#1}::operator()() const::{lambda(bool)#2}, std::__ndk1::allocator<hook88<(anonymous namespace)::hook88Parent>::init(GJBaseGameLayer*)::{lambda()#1}::operator()() const::{lambda(bool)#2}>, geode::ListenerResult(bool)>::target(std::type_info const&) const
PUBLIC 7e304 0 std::__ndk1::__function::__func<hook88<(anonymous namespace)::hook88Parent>::init(GJBaseGameLayer*)::{lambda()#1}::operator()() const::{lambda(bool)#2}, std::__ndk1::allocator<hook88<(anonymous namespace)::hook88Parent>::init(GJBaseGameLayer*)::{lambda()#1}::operator()() const::{lambda(bool)#2}>, geode::ListenerResult(bool)>::target_type() const
PUBLIC 7e310 0 std::__ndk1::__function::__func<hook88<(anonymous namespace)::hook88Parent>::init(GJBaseGameLayer*)::{lambda()#1}::operator()() const::{lambda(bool)#3}, std::__ndk1::allocator<hook88<(anonymous namespace)::hook88Parent>::init(GJBaseGameLayer*)::{lambda()#1}::operator()() const::{lambda(bool)#3}>, geode::ListenerResult(bool)>::~__func()
PUBLIC 7e314 0 std::__ndk1::__function::__func<hook88<(anonymous namespace)::hook88Parent>::init(GJBaseGameLayer*)::{lambda()#1}::operator()() const::{lambda(bool)#3}, std::__ndk1::allocator<hook88<(anonymous namespace)::hook88Parent>::init(GJBaseGameLayer*)::{lambda()#1}::operator()() const::{lambda(bool)#3}>, geode::ListenerResult(bool)>::__clone() const
PUBLIC 7e348 0 std::__ndk1::__function::__func<hook88<(anonymous namespace)::hook88Parent>::init(GJBaseGameLayer*)::{lambda()#1}::operator()() const::{lambda(bool)#3}, std::__ndk1::allocator<hook88<(anonymous namespace)::hook88Parent>::init(GJBaseGameLayer*)::{lambda()#1}::operator()() const::{lambda(bool)#3}>, geode::ListenerResult(bool)>::__clone(std::__ndk1::__function::__base<geode::ListenerResult(bool)>*) const
PUBLIC 7e35c 0 std::__ndk1::__function::__func<hook88<(anonymous namespace)::hook88Parent>::init(GJBaseGameLayer*)::{lambda()#1}::operator()() const::{lambda(bool)#3}, std::__ndk1::allocator<hook88<(anonymous namespace)::hook88Parent>::init(GJBaseGameLayer*)::{lambda()#1}::operator()() const::{lambda(bool)#3}>, geode::ListenerResult(bool)>::destroy()
PUBLIC 7e360 0 std::__ndk1::__function::__func<hook88<(anonymous namespace)::hook88Parent>::init(GJBaseGameLayer*)::{lambda()#1}::operator()() const::{lambda(bool)#3}, std::__ndk1::allocator<hook88<(anonymous namespace)::hook88Parent>::init(GJBaseGameLayer*)::{lambda()#1}::operator()() const::{lambda(bool)#3}>, geode::ListenerResult(bool)>::destroy_deallocate()
PUBLIC 7e364 0 std::__ndk1::__function::__func<hook88<(anonymous namespace)::hook88Parent>::init(GJBaseGameLayer*)::{lambda()#1}::operator()() const::{lambda(bool)#3}, std::__ndk1::allocator<hook88<(anonymous namespace)::hook88Parent>::init(GJBaseGameLayer*)::{lambda()#1}::operator()() const::{lambda(bool)#3}>, geode::ListenerResult(bool)>::operator()(bool&&)
PUBLIC 7e3dc 0 std::__ndk1::__function::__func<hook88<(anonymous namespace)::hook88Parent>::init(GJBaseGameLayer*)::{lambda()#1}::operator()() const::{lambda(bool)#3}, std::__ndk1::allocator<hook88<(anonymous namespace)::hook88Parent>::init(GJBaseGameLayer*)::{lambda()#1}::operator()() const::{lambda(bool)#3}>, geode::ListenerResult(bool)>::target(std::type_info const&) const
PUBLIC 7e3f8 0 std::__ndk1::__function::__func<hook88<(anonymous namespace)::hook88Parent>::init(GJBaseGameLayer*)::{lambda()#1}::operator()() const::{lambda(bool)#3}, std::__ndk1::allocator<hook88<(anonymous namespace)::hook88Parent>::init(GJBaseGameLayer*)::{lambda()#1}::operator()() const::{lambda(bool)#3}>, geode::ListenerResult(bool)>::target_type() const
PUBLIC 7e404 0 hook88<(anonymous namespace)::hook88Parent>::pressKeyFallthrough(cocos2d::enumKeyCodes, bool, bool, bool, bool, bool)
PUBLIC 7e550 0 std::__ndk1::__function::__func<hook88<(anonymous namespace)::hook88Parent>::init(GJBaseGameLayer*)::{lambda()#1}::operator()() const::{lambda(bool)#4}, std::__ndk1::allocator<hook88<(anonymous namespace)::hook88Parent>::init(GJBaseGameLayer*)::{lambda()#1}::operator()() const::{lambda(bool)#4}>, geode::ListenerResult(bool)>::~__func()
PUBLIC 7e554 0 std::__ndk1::__function::__func<hook88<(anonymous namespace)::hook88Parent>::init(GJBaseGameLayer*)::{lambda()#1}::operator()() const::{lambda(bool)#4}, std::__ndk1::allocator<hook88<(anonymous namespace)::hook88Parent>::init(GJBaseGameLayer*)::{lambda()#1}::operator()() const::{lambda(bool)#4}>, geode::ListenerResult(bool)>::__clone() const
PUBLIC 7e588 0 std::__ndk1::__function::__func<hook88<(anonymous namespace)::hook88Parent>::init(GJBaseGameLayer*)::{lambda()#1}::operator()() const::{lambda(bool)#4}, std::__ndk1::allocator<hook88<(anonymous namespace)::hook88Parent>::init(GJBaseGameLayer*)::{lambda()#1}::operator()() const::{lambda(bool)#4}>, geode::ListenerResult(bool)>::__clone(std::__ndk1::__function::__base<geode::ListenerResult(bool)>*) const
PUBLIC 7e59c 0 std::__ndk1::__function::__func<hook88<(anonymous namespace)::hook88Parent>::init(GJBaseGameLayer*)::{lambda()#1}::operator()() const::{lambda(bool)#4}, std::__ndk1::allocator<hook88<(anonymous namespace)::hook88Parent>::init(GJBaseGameLayer*)::{lambda()#1}::operator()() const::{lambda(bool)#4}>, geode::ListenerResult(bool)>::destroy()
PUBLIC 7e5a0 0 std::__ndk1::__function::__func<hook88<(anonymous namespace)::hook88Parent>::init(GJBaseGameLayer*)::{lambda()#1}::operator()() const::{lambda(bool)#4}, std::__ndk1::allocator<hook88<(anonymous namespace)::hook88Parent>::init(GJBaseGameLayer*)::{lambda()#1}::operator()() const::{lambda(bool)#4}>, geode::ListenerResult(bool)>::destroy_deallocate()
PUBLIC 7e5a4 0 std::__ndk1::__function::__func<hook88<(anonymous namespace)::hook88Parent>::init(GJBaseGameLayer*)::{lambda()#1}::operator()() const::{lambda(bool)#4}, std::__ndk1::allocator<hook88<(anonymous namespace)::hook88Parent>::init(GJBaseGameLayer*)::{lambda()#1}::operator()() const::{lambda(bool)#4}>, geode::ListenerResult(bool)>::operator()(bool&&)
PUBLIC 7e61c 0 std::__ndk1::__function::__func<hook88<(anonymous namespace)::hook88Parent>::init(GJBaseGameLayer*)::{lambda()#1}::operator()() const::{lambda(bool)#4}, std::__ndk1::allocator<hook88<(anonymous namespace)::hook88Parent>::init(GJBaseGameLayer*)::{lambda()#1}::operator()() const::{lambda(bool)#4}>, geode::ListenerResult(bool)>::target(std::type_info const&) const
PUBLIC 7e638 0 std::__ndk1::__function::__func<hook88<(anonymous namespace)::hook88Parent>::init(GJBaseGameLayer*)::{lambda()#1}::operator()() const::{lambda(bool)#4}, std::__ndk1::allocator<hook88<(anonymous namespace)::hook88Parent>::init(GJBaseGameLayer*)::{lambda()#1}::operator()() const::{lambda(bool)#4}>, geode::ListenerResult(bool)>::target_type() const
PUBLIC 7e644 0 std::__ndk1::__function::__func<hook88<(anonymous namespace)::hook88Parent>::init(GJBaseGameLayer*)::{lambda()#1}::operator()() const::{lambda(bool)#5}, std::__ndk1::allocator<hook88<(anonymous namespace)::hook88Parent>::init(GJBaseGameLayer*)::{lambda()#1}::operator()() const::{lambda(bool)#5}>, geode::ListenerResult(bool)>::~__func()
PUBLIC 7e648 0 std::__ndk1::__function::__func<hook88<(anonymous namespace)::hook88Parent>::init(GJBaseGameLayer*)::{lambda()#1}::operator()() const::{lambda(bool)#5}, std::__ndk1::allocator<hook88<(anonymous namespace)::hook88Parent>::init(GJBaseGameLayer*)::{lambda()#1}::operator()() const::{lambda(bool)#5}>, geode::ListenerResult(bool)>::__clone() const
PUBLIC 7e67c 0 std::__ndk1::__function::__func<hook88<(anonymous namespace)::hook88Parent>::init(GJBaseGameLayer*)::{lambda()#1}::operator()() const::{lambda(bool)#5}, std::__ndk1::allocator<hook88<(anonymous namespace)::hook88Parent>::init(GJBaseGameLayer*)::{lambda()#1}::operator()() const::{lambda(bool)#5}>, geode::ListenerResult(bool)>::__clone(std::__ndk1::__function::__base<geode::ListenerResult(bool)>*) const
PUBLIC 7e690 0 std::__ndk1::__function::__func<hook88<(anonymous namespace)::hook88Parent>::init(GJBaseGameLayer*)::{lambda()#1}::operator()() const::{lambda(bool)#5}, std::__ndk1::allocator<hook88<(anonymous namespace)::hook88Parent>::init(GJBaseGameLayer*)::{lambda()#1}::operator()() const::{lambda(bool)#5}>, geode::ListenerResult(bool)>::destroy()
PUBLIC 7e694 0 std::__ndk1::__function::__func<hook88<(anonymous namespace)::hook88Parent>::init(GJBaseGameLayer*)::{lambda()#1}::operator()() const::{lambda(bool)#5}, std::__ndk1::allocator<hook88<(anonymous namespace)::hook88Parent>::init(GJBaseGameLayer*)::{lambda()#1}::operator()() const::{lambda(bool)#5}>, geode::ListenerResult(bool)>::destroy_deallocate()
PUBLIC 7e698 0 std::__ndk1::__function::__func<hook88<(anonymous namespace)::hook88Parent>::init(GJBaseGameLayer*)::{lambda()#1}::operator()() const::{lambda(bool)#5}, std::__ndk1::allocator<hook88<(anonymous namespace)::hook88Parent>::init(GJBaseGameLayer*)::{lambda()#1}::operator()() const::{lambda(bool)#5}>, geode::ListenerResult(bool)>::operator()(bool&&)
PUBLIC 7e6e8 0 std::__ndk1::__function::__func<hook88<(anonymous namespace)::hook88Parent>::init(GJBaseGameLayer*)::{lambda()#1}::operator()() const::{lambda(bool)#5}, std::__ndk1::allocator<hook88<(anonymous namespace)::hook88Parent>::init(GJBaseGameLayer*)::{lambda()#1}::operator()() const::{lambda(bool)#5}>, geode::ListenerResult(bool)>::target(std::type_info const&) const
PUBLIC 7e704 0 std::__ndk1::__function::__func<hook88<(anonymous namespace)::hook88Parent>::init(GJBaseGameLayer*)::{lambda()#1}::operator()() const::{lambda(bool)#5}, std::__ndk1::allocator<hook88<(anonymous namespace)::hook88Parent>::init(GJBaseGameLayer*)::{lambda()#1}::operator()() const::{lambda(bool)#5}>, geode::ListenerResult(bool)>::target_type() const
PUBLIC 7e710 0 std::__ndk1::__function::__func<hook88<(anonymous namespace)::hook88Parent>::init(GJBaseGameLayer*)::{lambda()#1}::operator()() const::{lambda(bool)#6}, std::__ndk1::allocator<hook88<(anonymous namespace)::hook88Parent>::init(GJBaseGameLayer*)::{lambda()#1}::operator()() const::{lambda(bool)#6}>, geode::ListenerResult(bool)>::~__func()
PUBLIC 7e714 0 std::__ndk1::__function::__func<hook88<(anonymous namespace)::hook88Parent>::init(GJBaseGameLayer*)::{lambda()#1}::operator()() const::{lambda(bool)#6}, std::__ndk1::allocator<hook88<(anonymous namespace)::hook88Parent>::init(GJBaseGameLayer*)::{lambda()#1}::operator()() const::{lambda(bool)#6}>, geode::ListenerResult(bool)>::__clone() const
PUBLIC 7e748 0 std::__ndk1::__function::__func<hook88<(anonymous namespace)::hook88Parent>::init(GJBaseGameLayer*)::{lambda()#1}::operator()() const::{lambda(bool)#6}, std::__ndk1::allocator<hook88<(anonymous namespace)::hook88Parent>::init(GJBaseGameLayer*)::{lambda()#1}::operator()() const::{lambda(bool)#6}>, geode::ListenerResult(bool)>::__clone(std::__ndk1::__function::__base<geode::ListenerResult(bool)>*) const
PUBLIC 7e75c 0 std::__ndk1::__function::__func<hook88<(anonymous namespace)::hook88Parent>::init(GJBaseGameLayer*)::{lambda()#1}::operator()() const::{lambda(bool)#6}, std::__ndk1::allocator<hook88<(anonymous namespace)::hook88Parent>::init(GJBaseGameLayer*)::{lambda()#1}::operator()() const::{lambda(bool)#6}>, geode::ListenerResult(bool)>::destroy()
PUBLIC 7e760 0 std::__ndk1::__function::__func<hook88<(anonymous namespace)::hook88Parent>::init(GJBaseGameLayer*)::{lambda()#1}::operator()() const::{lambda(bool)#6}, std::__ndk1::allocator<hook88<(anonymous namespace)::hook88Parent>::init(GJBaseGameLayer*)::{lambda()#1}::operator()() const::{lambda(bool)#6}>, geode::ListenerResult(bool)>::destroy_deallocate()
PUBLIC 7e764 0 std::__ndk1::__function::__func<hook88<(anonymous namespace)::hook88Parent>::init(GJBaseGameLayer*)::{lambda()#1}::operator()() const::{lambda(bool)#6}, std::__ndk1::allocator<hook88<(anonymous namespace)::hook88Parent>::init(GJBaseGameLayer*)::{lambda()#1}::operator()() const::{lambda(bool)#6}>, geode::ListenerResult(bool)>::operator()(bool&&)
PUBLIC 7e7c4 0 std::__ndk1::__function::__func<hook88<(anonymous namespace)::hook88Parent>::init(GJBaseGameLayer*)::{lambda()#1}::operator()() const::{lambda(bool)#6}, std::__ndk1::allocator<hook88<(anonymous namespace)::hook88Parent>::init(GJBaseGameLayer*)::{lambda()#1}::operator()() const::{lambda(bool)#6}>, geode::ListenerResult(bool)>::target(std::type_info const&) const
PUBLIC 7e7e0 0 std::__ndk1::__function::__func<hook88<(anonymous namespace)::hook88Parent>::init(GJBaseGameLayer*)::{lambda()#1}::operator()() const::{lambda(bool)#6}, std::__ndk1::allocator<hook88<(anonymous namespace)::hook88Parent>::init(GJBaseGameLayer*)::{lambda()#1}::operator()() const::{lambda(bool)#6}>, geode::ListenerResult(bool)>::target_type() const
PUBLIC 7e7ec 0 std::__ndk1::__function::__func<hook88<(anonymous namespace)::hook88Parent>::init(GJBaseGameLayer*)::{lambda()#1}::operator()() const::{lambda(bool)#7}, std::__ndk1::allocator<hook88<(anonymous namespace)::hook88Parent>::init(GJBaseGameLayer*)::{lambda()#1}::operator()() const::{lambda(bool)#7}>, geode::ListenerResult(bool)>::~__func()
PUBLIC 7e7f0 0 std::__ndk1::__function::__func<hook88<(anonymous namespace)::hook88Parent>::init(GJBaseGameLayer*)::{lambda()#1}::operator()() const::{lambda(bool)#7}, std::__ndk1::allocator<hook88<(anonymous namespace)::hook88Parent>::init(GJBaseGameLayer*)::{lambda()#1}::operator()() const::{lambda(bool)#7}>, geode::ListenerResult(bool)>::__clone() const
PUBLIC 7e824 0 std::__ndk1::__function::__func<hook88<(anonymous namespace)::hook88Parent>::init(GJBaseGameLayer*)::{lambda()#1}::operator()() const::{lambda(bool)#7}, std::__ndk1::allocator<hook88<(anonymous namespace)::hook88Parent>::init(GJBaseGameLayer*)::{lambda()#1}::operator()() const::{lambda(bool)#7}>, geode::ListenerResult(bool)>::__clone(std::__ndk1::__function::__base<geode::ListenerResult(bool)>*) const
PUBLIC 7e838 0 std::__ndk1::__function::__func<hook88<(anonymous namespace)::hook88Parent>::init(GJBaseGameLayer*)::{lambda()#1}::operator()() const::{lambda(bool)#7}, std::__ndk1::allocator<hook88<(anonymous namespace)::hook88Parent>::init(GJBaseGameLayer*)::{lambda()#1}::operator()() const::{lambda(bool)#7}>, geode::ListenerResult(bool)>::destroy()
PUBLIC 7e83c 0 std::__ndk1::__function::__func<hook88<(anonymous namespace)::hook88Parent>::init(GJBaseGameLayer*)::{lambda()#1}::operator()() const::{lambda(bool)#7}, std::__ndk1::allocator<hook88<(anonymous namespace)::hook88Parent>::init(GJBaseGameLayer*)::{lambda()#1}::operator()() const::{lambda(bool)#7}>, geode::ListenerResult(bool)>::destroy_deallocate()
PUBLIC 7e840 0 std::__ndk1::__function::__func<hook88<(anonymous namespace)::hook88Parent>::init(GJBaseGameLayer*)::{lambda()#1}::operator()() const::{lambda(bool)#7}, std::__ndk1::allocator<hook88<(anonymous namespace)::hook88Parent>::init(GJBaseGameLayer*)::{lambda()#1}::operator()() const::{lambda(bool)#7}>, geode::ListenerResult(bool)>::operator()(bool&&)
PUBLIC 7e8a0 0 std::__ndk1::__function::__func<hook88<(anonymous namespace)::hook88Parent>::init(GJBaseGameLayer*)::{lambda()#1}::operator()() const::{lambda(bool)#7}, std::__ndk1::allocator<hook88<(anonymous namespace)::hook88Parent>::init(GJBaseGameLayer*)::{lambda()#1}::operator()() const::{lambda(bool)#7}>, geode::ListenerResult(bool)>::target(std::type_info const&) const
PUBLIC 7e8bc 0 std::__ndk1::__function::__func<hook88<(anonymous namespace)::hook88Parent>::init(GJBaseGameLayer*)::{lambda()#1}::operator()() const::{lambda(bool)#7}, std::__ndk1::allocator<hook88<(anonymous namespace)::hook88Parent>::init(GJBaseGameLayer*)::{lambda()#1}::operator()() const::{lambda(bool)#7}>, geode::ListenerResult(bool)>::target_type() const
PUBLIC 7e8c8 0 std::__ndk1::__function::__func<hook88<(anonymous namespace)::hook88Parent>::init(GJBaseGameLayer*)::{lambda()#1}::operator()() const::{lambda(bool)#8}, std::__ndk1::allocator<hook88<(anonymous namespace)::hook88Parent>::init(GJBaseGameLayer*)::{lambda()#1}::operator()() const::{lambda(bool)#8}>, geode::ListenerResult(bool)>::~__func()
PUBLIC 7e8cc 0 std::__ndk1::__function::__func<hook88<(anonymous namespace)::hook88Parent>::init(GJBaseGameLayer*)::{lambda()#1}::operator()() const::{lambda(bool)#8}, std::__ndk1::allocator<hook88<(anonymous namespace)::hook88Parent>::init(GJBaseGameLayer*)::{lambda()#1}::operator()() const::{lambda(bool)#8}>, geode::ListenerResult(bool)>::__clone() const
PUBLIC 7e900 0 std::__ndk1::__function::__func<hook88<(anonymous namespace)::hook88Parent>::init(GJBaseGameLayer*)::{lambda()#1}::operator()() const::{lambda(bool)#8}, std::__ndk1::allocator<hook88<(anonymous namespace)::hook88Parent>::init(GJBaseGameLayer*)::{lambda()#1}::operator()() const::{lambda(bool)#8}>, geode::ListenerResult(bool)>::__clone(std::__ndk1::__function::__base<geode::ListenerResult(bool)>*) const
PUBLIC 7e914 0 std::__ndk1::__function::__func<hook88<(anonymous namespace)::hook88Parent>::init(GJBaseGameLayer*)::{lambda()#1}::operator()() const::{lambda(bool)#8}, std::__ndk1::allocator<hook88<(anonymous namespace)::hook88Parent>::init(GJBaseGameLayer*)::{lambda()#1}::operator()() const::{lambda(bool)#8}>, geode::ListenerResult(bool)>::destroy()
PUBLIC 7e918 0 std::__ndk1::__function::__func<hook88<(anonymous namespace)::hook88Parent>::init(GJBaseGameLayer*)::{lambda()#1}::operator()() const::{lambda(bool)#8}, std::__ndk1::allocator<hook88<(anonymous namespace)::hook88Parent>::init(GJBaseGameLayer*)::{lambda()#1}::operator()() const::{lambda(bool)#8}>, geode::ListenerResult(bool)>::destroy_deallocate()
PUBLIC 7e91c 0 std::__ndk1::__function::__func<hook88<(anonymous namespace)::hook88Parent>::init(GJBaseGameLayer*)::{lambda()#1}::operator()() const::{lambda(bool)#8}, std::__ndk1::allocator<hook88<(anonymous namespace)::hook88Parent>::init(GJBaseGameLayer*)::{lambda()#1}::operator()() const::{lambda(bool)#8}>, geode::ListenerResult(bool)>::operator()(bool&&)
PUBLIC 7e994 0 std::__ndk1::__function::__func<hook88<(anonymous namespace)::hook88Parent>::init(GJBaseGameLayer*)::{lambda()#1}::operator()() const::{lambda(bool)#8}, std::__ndk1::allocator<hook88<(anonymous namespace)::hook88Parent>::init(GJBaseGameLayer*)::{lambda()#1}::operator()() const::{lambda(bool)#8}>, geode::ListenerResult(bool)>::target(std::type_info const&) const
PUBLIC 7e9b0 0 std::__ndk1::__function::__func<hook88<(anonymous namespace)::hook88Parent>::init(GJBaseGameLayer*)::{lambda()#1}::operator()() const::{lambda(bool)#8}, std::__ndk1::allocator<hook88<(anonymous namespace)::hook88Parent>::init(GJBaseGameLayer*)::{lambda()#1}::operator()() const::{lambda(bool)#8}>, geode::ListenerResult(bool)>::target_type() const
PUBLIC 7e9bc 0 std::__ndk1::__function::__func<hook88<(anonymous namespace)::hook88Parent>::init(GJBaseGameLayer*)::{lambda()#1}::operator()() const::{lambda(bool)#9}, std::__ndk1::allocator<hook88<(anonymous namespace)::hook88Parent>::init(GJBaseGameLayer*)::{lambda()#1}::operator()() const::{lambda(bool)#9}>, geode::ListenerResult(bool)>::~__func()
PUBLIC 7e9c0 0 std::__ndk1::__function::__func<hook88<(anonymous namespace)::hook88Parent>::init(GJBaseGameLayer*)::{lambda()#1}::operator()() const::{lambda(bool)#9}, std::__ndk1::allocator<hook88<(anonymous namespace)::hook88Parent>::init(GJBaseGameLayer*)::{lambda()#1}::operator()() const::{lambda(bool)#9}>, geode::ListenerResult(bool)>::__clone() const
PUBLIC 7e9f4 0 std::__ndk1::__function::__func<hook88<(anonymous namespace)::hook88Parent>::init(GJBaseGameLayer*)::{lambda()#1}::operator()() const::{lambda(bool)#9}, std::__ndk1::allocator<hook88<(anonymous namespace)::hook88Parent>::init(GJBaseGameLayer*)::{lambda()#1}::operator()() const::{lambda(bool)#9}>, geode::ListenerResult(bool)>::__clone(std::__ndk1::__function::__base<geode::ListenerResult(bool)>*) const
PUBLIC 7ea08 0 std::__ndk1::__function::__func<hook88<(anonymous namespace)::hook88Parent>::init(GJBaseGameLayer*)::{lambda()#1}::operator()() const::{lambda(bool)#9}, std::__ndk1::allocator<hook88<(anonymous namespace)::hook88Parent>::init(GJBaseGameLayer*)::{lambda()#1}::operator()() const::{lambda(bool)#9}>, geode::ListenerResult(bool)>::destroy()
PUBLIC 7ea0c 0 std::__ndk1::__function::__func<hook88<(anonymous namespace)::hook88Parent>::init(GJBaseGameLayer*)::{lambda()#1}::operator()() const::{lambda(bool)#9}, std::__ndk1::allocator<hook88<(anonymous namespace)::hook88Parent>::init(GJBaseGameLayer*)::{lambda()#1}::operator()() const::{lambda(bool)#9}>, geode::ListenerResult(bool)>::destroy_deallocate()
PUBLIC 7ea10 0 std::__ndk1::__function::__func<hook88<(anonymous namespace)::hook88Parent>::init(GJBaseGameLayer*)::{lambda()#1}::operator()() const::{lambda(bool)#9}, std::__ndk1::allocator<hook88<(anonymous namespace)::hook88Parent>::init(GJBaseGameLayer*)::{lambda()#1}::operator()() const::{lambda(bool)#9}>, geode::ListenerResult(bool)>::operator()(bool&&)
PUBLIC 7ea88 0 std::__ndk1::__function::__func<hook88<(anonymous namespace)::hook88Parent>::init(GJBaseGameLayer*)::{lambda()#1}::operator()() const::{lambda(bool)#9}, std::__ndk1::allocator<hook88<(anonymous namespace)::hook88Parent>::init(GJBaseGameLayer*)::{lambda()#1}::operator()() const::{lambda(bool)#9}>, geode::ListenerResult(bool)>::target(std::type_info const&) const
PUBLIC 7eaa4 0 std::__ndk1::__function::__func<hook88<(anonymous namespace)::hook88Parent>::init(GJBaseGameLayer*)::{lambda()#1}::operator()() const::{lambda(bool)#9}, std::__ndk1::allocator<hook88<(anonymous namespace)::hook88Parent>::init(GJBaseGameLayer*)::{lambda()#1}::operator()() const::{lambda(bool)#9}>, geode::ListenerResult(bool)>::target_type() const
PUBLIC 7eab0 0 std::__ndk1::__function::__func<hook88<(anonymous namespace)::hook88Parent>::init(GJBaseGameLayer*)::{lambda()#1}::operator()() const::{lambda(bool)#10}, std::__ndk1::allocator<hook88<(anonymous namespace)::hook88Parent>::init(GJBaseGameLayer*)::{lambda()#1}::operator()() const::{lambda(bool)#10}>, geode::ListenerResult(bool)>::~__func()
PUBLIC 7eab4 0 std::__ndk1::__function::__func<hook88<(anonymous namespace)::hook88Parent>::init(GJBaseGameLayer*)::{lambda()#1}::operator()() const::{lambda(bool)#10}, std::__ndk1::allocator<hook88<(anonymous namespace)::hook88Parent>::init(GJBaseGameLayer*)::{lambda()#1}::operator()() const::{lambda(bool)#10}>, geode::ListenerResult(bool)>::__clone() const
PUBLIC 7eae8 0 std::__ndk1::__function::__func<hook88<(anonymous namespace)::hook88Parent>::init(GJBaseGameLayer*)::{lambda()#1}::operator()() const::{lambda(bool)#10}, std::__ndk1::allocator<hook88<(anonymous namespace)::hook88Parent>::init(GJBaseGameLayer*)::{lambda()#1}::operator()() const::{lambda(bool)#10}>, geode::ListenerResult(bool)>::__clone(std::__ndk1::__function::__base<geode::ListenerResult(bool)>*) const
PUBLIC 7eafc 0 std::__ndk1::__function::__func<hook88<(anonymous namespace)::hook88Parent>::init(GJBaseGameLayer*)::{lambda()#1}::operator()() const::{lambda(bool)#10}, std::__ndk1::allocator<hook88<(anonymous namespace)::hook88Parent>::init(GJBaseGameLayer*)::{lambda()#1}::operator()() const::{lambda(bool)#10}>, geode::ListenerResult(bool)>::destroy()
PUBLIC 7eb00 0 std::__ndk1::__function::__func<hook88<(anonymous namespace)::hook88Parent>::init(GJBaseGameLayer*)::{lambda()#1}::operator()() const::{lambda(bool)#10}, std::__ndk1::allocator<hook88<(anonymous namespace)::hook88Parent>::init(GJBaseGameLayer*)::{lambda()#1}::operator()() const::{lambda(bool)#10}>, geode::ListenerResult(bool)>::destroy_deallocate()
PUBLIC 7eb04 0 std::__ndk1::__function::__func<hook88<(anonymous namespace)::hook88Parent>::init(GJBaseGameLayer*)::{lambda()#1}::operator()() const::{lambda(bool)#10}, std::__ndk1::allocator<hook88<(anonymous namespace)::hook88Parent>::init(GJBaseGameLayer*)::{lambda()#1}::operator()() const::{lambda(bool)#10}>, geode::ListenerResult(bool)>::operator()(bool&&)
PUBLIC 7eb7c 0 std::__ndk1::__function::__func<hook88<(anonymous namespace)::hook88Parent>::init(GJBaseGameLayer*)::{lambda()#1}::operator()() const::{lambda(bool)#10}, std::__ndk1::allocator<hook88<(anonymous namespace)::hook88Parent>::init(GJBaseGameLayer*)::{lambda()#1}::operator()() const::{lambda(bool)#10}>, geode::ListenerResult(bool)>::target(std::type_info const&) const
PUBLIC 7eb98 0 std::__ndk1::__function::__func<hook88<(anonymous namespace)::hook88Parent>::init(GJBaseGameLayer*)::{lambda()#1}::operator()() const::{lambda(bool)#10}, std::__ndk1::allocator<hook88<(anonymous namespace)::hook88Parent>::init(GJBaseGameLayer*)::{lambda()#1}::operator()() const::{lambda(bool)#10}>, geode::ListenerResult(bool)>::target_type() const
PUBLIC 7eba4 0 std::__ndk1::__function::__func<hook88<(anonymous namespace)::hook88Parent>::init(GJBaseGameLayer*)::{lambda()#1}::operator()() const::{lambda(bool)#11}, std::__ndk1::allocator<hook88<(anonymous namespace)::hook88Parent>::init(GJBaseGameLayer*)::{lambda()#1}::operator()() const::{lambda(bool)#11}>, geode::ListenerResult(bool)>::~__func()
PUBLIC 7eba8 0 std::__ndk1::__function::__func<hook88<(anonymous namespace)::hook88Parent>::init(GJBaseGameLayer*)::{lambda()#1}::operator()() const::{lambda(bool)#11}, std::__ndk1::allocator<hook88<(anonymous namespace)::hook88Parent>::init(GJBaseGameLayer*)::{lambda()#1}::operator()() const::{lambda(bool)#11}>, geode::ListenerResult(bool)>::__clone() const
PUBLIC 7ebdc 0 std::__ndk1::__function::__func<hook88<(anonymous namespace)::hook88Parent>::init(GJBaseGameLayer*)::{lambda()#1}::operator()() const::{lambda(bool)#11}, std::__ndk1::allocator<hook88<(anonymous namespace)::hook88Parent>::init(GJBaseGameLayer*)::{lambda()#1}::operator()() const::{lambda(bool)#11}>, geode::ListenerResult(bool)>::__clone(std::__ndk1::__function::__base<geode::ListenerResult(bool)>*) const
PUBLIC 7ebf0 0 std::__ndk1::__function::__func<hook88<(anonymous namespace)::hook88Parent>::init(GJBaseGameLayer*)::{lambda()#1}::operator()() const::{lambda(bool)#11}, std::__ndk1::allocator<hook88<(anonymous namespace)::hook88Parent>::init(GJBaseGameLayer*)::{lambda()#1}::operator()() const::{lambda(bool)#11}>, geode::ListenerResult(bool)>::destroy()
PUBLIC 7ebf4 0 std::__ndk1::__function::__func<hook88<(anonymous namespace)::hook88Parent>::init(GJBaseGameLayer*)::{lambda()#1}::operator()() const::{lambda(bool)#11}, std::__ndk1::allocator<hook88<(anonymous namespace)::hook88Parent>::init(GJBaseGameLayer*)::{lambda()#1}::operator()() const::{lambda(bool)#11}>, geode::ListenerResult(bool)>::destroy_deallocate()
PUBLIC 7ebf8 0 std::__ndk1::__function::__func<hook88<(anonymous namespace)::hook88Parent>::init(GJBaseGameLayer*)::{lambda()#1}::operator()() const::{lambda(bool)#11}, std::__ndk1::allocator<hook88<(anonymous namespace)::hook88Parent>::init(GJBaseGameLayer*)::{lambda()#1}::operator()() const::{lambda(bool)#11}>, geode::ListenerResult(bool)>::operator()(bool&&)
PUBLIC 7ec70 0 std::__ndk1::__function::__func<hook88<(anonymous namespace)::hook88Parent>::init(GJBaseGameLayer*)::{lambda()#1}::operator()() const::{lambda(bool)#11}, std::__ndk1::allocator<hook88<(anonymous namespace)::hook88Parent>::init(GJBaseGameLayer*)::{lambda()#1}::operator()() const::{lambda(bool)#11}>, geode::ListenerResult(bool)>::target(std::type_info const&) const
PUBLIC 7ec8c 0 std::__ndk1::__function::__func<hook88<(anonymous namespace)::hook88Parent>::init(GJBaseGameLayer*)::{lambda()#1}::operator()() const::{lambda(bool)#11}, std::__ndk1::allocator<hook88<(anonymous namespace)::hook88Parent>::init(GJBaseGameLayer*)::{lambda()#1}::operator()() const::{lambda(bool)#11}>, geode::ListenerResult(bool)>::target_type() const
PUBLIC 7ec98 0 std::__ndk1::__function::__base<geode::ListenerResult(bool)>::~__base()
PUBLIC 7ec9c 0 std::__ndk1::__function::__func<hook88<(anonymous namespace)::hook88Parent>::init(GJBaseGameLayer*)::{lambda()#1}::operator()() const::{lambda(bool)#12}, std::__ndk1::allocator<hook88<(anonymous namespace)::hook88Parent>::init(GJBaseGameLayer*)::{lambda()#1}::operator()() const::{lambda(bool)#12}>, geode::ListenerResult(bool)>::~__func()
PUBLIC 7eca0 0 std::__ndk1::__function::__func<hook88<(anonymous namespace)::hook88Parent>::init(GJBaseGameLayer*)::{lambda()#1}::operator()() const::{lambda(bool)#12}, std::__ndk1::allocator<hook88<(anonymous namespace)::hook88Parent>::init(GJBaseGameLayer*)::{lambda()#1}::operator()() const::{lambda(bool)#12}>, geode::ListenerResult(bool)>::__clone() const
PUBLIC 7ecd4 0 std::__ndk1::__function::__func<hook88<(anonymous namespace)::hook88Parent>::init(GJBaseGameLayer*)::{lambda()#1}::operator()() const::{lambda(bool)#12}, std::__ndk1::allocator<hook88<(anonymous namespace)::hook88Parent>::init(GJBaseGameLayer*)::{lambda()#1}::operator()() const::{lambda(bool)#12}>, geode::ListenerResult(bool)>::__clone(std::__ndk1::__function::__base<geode::ListenerResult(bool)>*) const
PUBLIC 7ece8 0 std::__ndk1::__function::__func<hook88<(anonymous namespace)::hook88Parent>::init(GJBaseGameLayer*)::{lambda()#1}::operator()() const::{lambda(bool)#12}, std::__ndk1::allocator<hook88<(anonymous namespace)::hook88Parent>::init(GJBaseGameLayer*)::{lambda()#1}::operator()() const::{lambda(bool)#12}>, geode::ListenerResult(bool)>::destroy()
PUBLIC 7ecec 0 std::__ndk1::__function::__func<hook88<(anonymous namespace)::hook88Parent>::init(GJBaseGameLayer*)::{lambda()#1}::operator()() const::{lambda(bool)#12}, std::__ndk1::allocator<hook88<(anonymous namespace)::hook88Parent>::init(GJBaseGameLayer*)::{lambda()#1}::operator()() const::{lambda(bool)#12}>, geode::ListenerResult(bool)>::destroy_deallocate()
PUBLIC 7ecf0 0 std::__ndk1::__function::__func<hook88<(anonymous namespace)::hook88Parent>::init(GJBaseGameLayer*)::{lambda()#1}::operator()() const::{lambda(bool)#12}, std::__ndk1::allocator<hook88<(anonymous namespace)::hook88Parent>::init(GJBaseGameLayer*)::{lambda()#1}::operator()() const::{lambda(bool)#12}>, geode::ListenerResult(bool)>::operator()(bool&&)
PUBLIC 7ed60 0 std::__ndk1::__function::__func<hook88<(anonymous namespace)::hook88Parent>::init(GJBaseGameLayer*)::{lambda()#1}::operator()() const::{lambda(bool)#12}, std::__ndk1::allocator<hook88<(anonymous namespace)::hook88Parent>::init(GJBaseGameLayer*)::{lambda()#1}::operator()() const::{lambda(bool)#12}>, geode::ListenerResult(bool)>::target(std::type_info const&) const
PUBLIC 7ed7c 0 std::__ndk1::__function::__func<hook88<(anonymous namespace)::hook88Parent>::init(GJBaseGameLayer*)::{lambda()#1}::operator()() const::{lambda(bool)#12}, std::__ndk1::allocator<hook88<(anonymous namespace)::hook88Parent>::init(GJBaseGameLayer*)::{lambda()#1}::operator()() const::{lambda(bool)#12}>, geode::ListenerResult(bool)>::target_type() const
PUBLIC 7ed88 0 std::__ndk1::unordered_set<cocos2d::enumKeyCodes, std::__ndk1::hash<cocos2d::enumKeyCodes>, std::__ndk1::equal_to<cocos2d::enumKeyCodes>, std::__ndk1::allocator<cocos2d::enumKeyCodes> >::~unordered_set[abi:ne180000]()
PUBLIC 7edd4 0 DummySetting::createNode(float)
PUBLIC 7f14c 0 std::__ndk1::shared_ptr<DummySetting>::~shared_ptr[abi:ne180000]()
PUBLIC 7f19c 0 std::__ndk1::shared_ptr<geode::SettingV3>::~shared_ptr[abi:ne180000]()
PUBLIC 7f1ec 0 DummySetting::~DummySetting()
PUBLIC 7f268 0 geode::SettingBaseValueV3<int, int>::load(matjson::Value const&)
PUBLIC 7f3c0 0 geode::SettingBaseValueV3<int, int>::save(matjson::Value&) const
PUBLIC 7f454 0 geode::SettingBaseValueV3<int, int>::isDefaultValue() const
PUBLIC 7f468 0 geode::SettingBaseValueV3<int, int>::reset()
PUBLIC 7f518 0 geode::SettingBaseValueV3<int, int>::isValid(int) const
PUBLIC 7f520 0 __cxx_global_var_init.3
PUBLIC 7fb10 0 __cxx_global_var_init.4
PUBLIC 7ff4c 0 _GLOBAL__sub_I_main.cpp
PUBLIC 8010c 0 geode::modifier::ModifyBase<geode::modifier::ModifyDerive<hook77<(anonymous namespace)::hook77Parent>, cocos2d::CCKeyboardDispatcher> >::~ModifyBase()
PUBLIC 80128 0 geode::modifier::ModifyBase<geode::modifier::ModifyDerive<hook230<(anonymous namespace)::hook230Parent>, MoreOptionsLayer> >::~ModifyBase()
PUBLIC 80144 0 geode::SettingValueNodeV3<DummySetting>::~SettingValueNodeV3()
PUBLIC 801f0 0 ButtonSettingNode::~ButtonSettingNode()
PUBLIC 802ac 0 ButtonSettingNode::updateState(cocos2d::CCNode*)
PUBLIC 802b0 0 geode::SettingValueNodeV3<DummySetting>::onCommit()
PUBLIC 80424 0 geode::SettingValueNodeV3<DummySetting>::onResetToDefault()
PUBLIC 804e8 0 geode::SettingValueNodeV3<DummySetting>::hasUncommittedChanges() const
PUBLIC 80580 0 geode::SettingValueNodeV3<DummySetting>::hasNonDefaultValue() const
PUBLIC 80618 0 geode::SettingValueNodeV3<DummySetting>::~SettingValueNodeV3()
PUBLIC 806d4 0 geode::SettingValueNodeV3<DummySetting>::updateState(cocos2d::CCNode*)
PUBLIC 808e0 0 geode::impl::ResultData<void, std::__ndk1::basic_string<char, std::__ndk1::char_traits<char>, std::__ndk1::allocator<char> > >::~ResultData()
PUBLIC 80954 0 ButtonSettingNode::onOpen(cocos2d::CCObject*)
PUBLIC 80a24 0 std::__ndk1::__shared_ptr_emplace<geode::SettingValueNodeV3<DummySetting>::Impl, std::__ndk1::allocator<geode::SettingValueNodeV3<DummySetting>::Impl> >::~__shared_ptr_emplace()
PUBLIC 80a34 0 std::__ndk1::__shared_ptr_emplace<geode::SettingValueNodeV3<DummySetting>::Impl, std::__ndk1::allocator<geode::SettingValueNodeV3<DummySetting>::Impl> >::~__shared_ptr_emplace()
PUBLIC 80a64 0 std::__ndk1::__shared_ptr_emplace<geode::SettingValueNodeV3<DummySetting>::Impl, std::__ndk1::allocator<geode::SettingValueNodeV3<DummySetting>::Impl> >::__on_zero_shared()
PUBLIC 80a68 0 std::__ndk1::__shared_ptr_emplace<geode::SettingValueNodeV3<DummySetting>::Impl, std::__ndk1::allocator<geode::SettingValueNodeV3<DummySetting>::Impl> >::__on_zero_shared_weak()
PUBLIC 80a6c 0 geode::SettingBaseValueV3<int, int>::~SettingBaseValueV3()
PUBLIC 80ad8 0 geode::SettingBaseValueV3<int, int>::~SettingBaseValueV3()
PUBLIC 80adc 0 geode::modifier::ModifyDerive<hook77<(anonymous namespace)::hook77Parent>, cocos2d::CCKeyboardDispatcher>::apply()
PUBLIC 81234 0 geode::modifier::ModifyBase<geode::modifier::ModifyDerive<hook77<(anonymous namespace)::hook77Parent>, cocos2d::CCKeyboardDispatcher> >::apply()
PUBLIC 81238 0 geode::modifier::AsStaticFunction_dispatchKeyboardMSG<hook77<(anonymous namespace)::hook77Parent>, bool (hook77<(anonymous namespace)::hook77Parent>::*)(cocos2d::enumKeyCodes, bool, bool)>::Impl<bool (hook77<(anonymous namespace)::hook77Parent>::*)(cocos2d::enumKeyCodes, bool, bool)>::function(hook77<(anonymous namespace)::hook77Parent>*, cocos2d::enumKeyCodes, bool, bool)
PUBLIC 820f8 0 geode::modifier::AsStaticFunction_updateModifierKeys<hook77<(anonymous namespace)::hook77Parent>, void (hook77<(anonymous namespace)::hook77Parent>::*)(bool, bool, bool, bool)>::Impl<void (hook77<(anonymous namespace)::hook77Parent>::*)(bool, bool, bool, bool)>::function(hook77<(anonymous namespace)::hook77Parent>*, bool, bool, bool, bool)
PUBLIC 8210c 0 std::__ndk1::unordered_set<keybinds::Modifier, std::__ndk1::hash<keybinds::Modifier>, std::__ndk1::equal_to<keybinds::Modifier>, std::__ndk1::allocator<keybinds::Modifier> >::~unordered_set[abi:ne180000]()
PUBLIC 82158 0 std::__ndk1::__hash_table<keybinds::Modifier, std::__ndk1::hash<keybinds::Modifier>, std::__ndk1::equal_to<keybinds::Modifier>, std::__ndk1::allocator<keybinds::Modifier> >::__do_rehash<true>(unsigned long)
PUBLIC 82304 0 std::__ndk1::__hash_table<keybinds::Modifier, std::__ndk1::hash<keybinds::Modifier>, std::__ndk1::equal_to<keybinds::Modifier>, std::__ndk1::allocator<keybinds::Modifier> >::__emplace_unique_key_args<keybinds::Modifier, keybinds::Modifier>(keybinds::Modifier const&, keybinds::Modifier&&)
PUBLIC 825dc 0 geode::modifier::ModifyDerive<hook230<(anonymous namespace)::hook230Parent>, MoreOptionsLayer>::apply()
PUBLIC 82964 0 geode::modifier::ModifyBase<geode::modifier::ModifyDerive<hook230<(anonymous namespace)::hook230Parent>, MoreOptionsLayer> >::apply()
PUBLIC 82968 0 geode::modifier::AsStaticFunction_onKeybindings<hook230<(anonymous namespace)::hook230Parent>, void (hook230<(anonymous namespace)::hook230Parent>::*)(cocos2d::CCObject*)>::Impl<void (hook230<(anonymous namespace)::hook230Parent>::*)(cocos2d::CCObject*)>::function(hook230<(anonymous namespace)::hook230Parent>*, cocos2d::CCObject*)
PUBLIC 82a38 0 std::__ndk1::__function::__func<geodeExecFunction270<(anonymous namespace)::ExecFuncUnique270>()::{lambda()#1}, std::__ndk1::allocator<geodeExecFunction270<(anonymous namespace)::ExecFuncUnique270>()::{lambda()#1}>, void ()>::~__func()
PUBLIC 82a3c 0 std::__ndk1::__function::__func<geodeExecFunction270<(anonymous namespace)::ExecFuncUnique270>()::{lambda()#1}, std::__ndk1::allocator<geodeExecFunction270<(anonymous namespace)::ExecFuncUnique270>()::{lambda()#1}>, void ()>::__clone() const
PUBLIC 82a60 0 std::__ndk1::__function::__func<geodeExecFunction270<(anonymous namespace)::ExecFuncUnique270>()::{lambda()#1}, std::__ndk1::allocator<geodeExecFunction270<(anonymous namespace)::ExecFuncUnique270>()::{lambda()#1}>, void ()>::__clone(std::__ndk1::__function::__base<void ()>*) const
PUBLIC 82a70 0 std::__ndk1::__function::__func<geodeExecFunction270<(anonymous namespace)::ExecFuncUnique270>()::{lambda()#1}, std::__ndk1::allocator<geodeExecFunction270<(anonymous namespace)::ExecFuncUnique270>()::{lambda()#1}>, void ()>::destroy()
PUBLIC 82a74 0 std::__ndk1::__function::__func<geodeExecFunction270<(anonymous namespace)::ExecFuncUnique270>()::{lambda()#1}, std::__ndk1::allocator<geodeExecFunction270<(anonymous namespace)::ExecFuncUnique270>()::{lambda()#1}>, void ()>::destroy_deallocate()
PUBLIC 82a78 0 std::__ndk1::__function::__func<geodeExecFunction270<(anonymous namespace)::ExecFuncUnique270>()::{lambda()#1}, std::__ndk1::allocator<geodeExecFunction270<(anonymous namespace)::ExecFuncUnique270>()::{lambda()#1}>, void ()>::operator()()
PUBLIC 82b0c 0 std::__ndk1::__function::__func<geodeExecFunction270<(anonymous namespace)::ExecFuncUnique270>()::{lambda()#1}, std::__ndk1::allocator<geodeExecFunction270<(anonymous namespace)::ExecFuncUnique270>()::{lambda()#1}>, void ()>::target(std::type_info const&) const
PUBLIC 82b28 0 std::__ndk1::__function::__func<geodeExecFunction270<(anonymous namespace)::ExecFuncUnique270>()::{lambda()#1}, std::__ndk1::allocator<geodeExecFunction270<(anonymous namespace)::ExecFuncUnique270>()::{lambda()#1}>, void ()>::target_type() const
PUBLIC 82b34 0 ControllerChecker::checkController(float)
PUBLIC 82d14 0 std::__ndk1::__function::__func<keybinds::ControllerBind* (*)(matjson::Value const&), std::__ndk1::allocator<keybinds::ControllerBind* (*)(matjson::Value const&)>, keybinds::Bind* (matjson::Value const&)>::~__func()
PUBLIC 82d18 0 std::__ndk1::__function::__func<keybinds::ControllerBind* (*)(matjson::Value const&), std::__ndk1::allocator<keybinds::ControllerBind* (*)(matjson::Value const&)>, keybinds::Bind* (matjson::Value const&)>::__clone() const
PUBLIC 82d4c 0 std::__ndk1::__function::__func<keybinds::ControllerBind* (*)(matjson::Value const&), std::__ndk1::allocator<keybinds::ControllerBind* (*)(matjson::Value const&)>, keybinds::Bind* (matjson::Value const&)>::__clone(std::__ndk1::__function::__base<keybinds::Bind* (matjson::Value const&)>*) const
PUBLIC 82d60 0 std::__ndk1::__function::__func<keybinds::ControllerBind* (*)(matjson::Value const&), std::__ndk1::allocator<keybinds::ControllerBind* (*)(matjson::Value const&)>, keybinds::Bind* (matjson::Value const&)>::destroy()
PUBLIC 82d64 0 std::__ndk1::__function::__func<keybinds::ControllerBind* (*)(matjson::Value const&), std::__ndk1::allocator<keybinds::ControllerBind* (*)(matjson::Value const&)>, keybinds::Bind* (matjson::Value const&)>::destroy_deallocate()
PUBLIC 82d68 0 std::__ndk1::__function::__func<keybinds::ControllerBind* (*)(matjson::Value const&), std::__ndk1::allocator<keybinds::ControllerBind* (*)(matjson::Value const&)>, keybinds::Bind* (matjson::Value const&)>::operator()(matjson::Value const&)
PUBLIC 82d74 0 std::__ndk1::__function::__func<keybinds::ControllerBind* (*)(matjson::Value const&), std::__ndk1::allocator<keybinds::ControllerBind* (*)(matjson::Value const&)>, keybinds::Bind* (matjson::Value const&)>::target(std::type_info const&) const
PUBLIC 82d90 0 std::__ndk1::__function::__func<keybinds::ControllerBind* (*)(matjson::Value const&), std::__ndk1::allocator<keybinds::ControllerBind* (*)(matjson::Value const&)>, keybinds::Bind* (matjson::Value const&)>::target_type() const
PUBLIC 82d9c 0 ControllerChecker::~ControllerChecker()
PUBLIC 82dc0 0 std::__ndk1::__throw_bad_weak_ptr[abi:ne180000]()
PUBLIC 82df4 0 DummySetting::parse(std::__ndk1::basic_string<char, std::__ndk1::char_traits<char>, std::__ndk1::allocator<char> > const&, std::__ndk1::basic_string<char, std::__ndk1::char_traits<char>, std::__ndk1::allocator<char> > const&, matjson::Value const&)
PUBLIC 82f78 0 std::__ndk1::__shared_ptr_emplace<DummySetting, std::__ndk1::allocator<DummySetting> >::~__shared_ptr_emplace()
PUBLIC 82f88 0 std::__ndk1::__shared_ptr_emplace<DummySetting, std::__ndk1::allocator<DummySetting> >::~__shared_ptr_emplace()
PUBLIC 82fb8 0 std::__ndk1::__shared_ptr_emplace<DummySetting, std::__ndk1::allocator<DummySetting> >::__on_zero_shared()
PUBLIC 82fc4 0 std::__ndk1::__shared_ptr_emplace<DummySetting, std::__ndk1::allocator<DummySetting> >::__on_zero_shared_weak()
PUBLIC 82fc8 0 std::__ndk1::__shared_ptr_emplace<geode::SettingBaseValueV3<int, int>::Impl, std::__ndk1::allocator<geode::SettingBaseValueV3<int, int>::Impl> >::~__shared_ptr_emplace()
PUBLIC 82fd8 0 std::__ndk1::__shared_ptr_emplace<geode::SettingBaseValueV3<int, int>::Impl, std::__ndk1::allocator<geode::SettingBaseValueV3<int, int>::Impl> >::~__shared_ptr_emplace()
PUBLIC 83008 0 std::__ndk1::__shared_ptr_emplace<geode::SettingBaseValueV3<int, int>::Impl, std::__ndk1::allocator<geode::SettingBaseValueV3<int, int>::Impl> >::__on_zero_shared()
PUBLIC 8300c 0 std::__ndk1::__shared_ptr_emplace<geode::SettingBaseValueV3<int, int>::Impl, std::__ndk1::allocator<geode::SettingBaseValueV3<int, int>::Impl> >::__on_zero_shared_weak()
PUBLIC 83010 0 std::__ndk1::__function::__base<geode::Result<std::__ndk1::shared_ptr<geode::SettingV3>, std::__ndk1::basic_string<char, std::__ndk1::char_traits<char>, std::__ndk1::allocator<char> > >(std::__ndk1::basic_string<char, std::__ndk1::char_traits<char>, std::__ndk1::allocator<char> > const&, std::__ndk1::basic_string<char, std::__ndk1::char_traits<char>, std::__ndk1::allocator<char> > const&, matjson::Value const&)>::~__base()
PUBLIC 83014 0 std::__ndk1::__function::__func<geode::Result<std::__ndk1::shared_ptr<geode::SettingV3>, std::__ndk1::basic_string<char, std::__ndk1::char_traits<char>, std::__ndk1::allocator<char> > > (*)(std::__ndk1::basic_string<char, std::__ndk1::char_traits<char>, std::__ndk1::allocator<char> > const&, std::__ndk1::basic_string<char, std::__ndk1::char_traits<char>, std::__ndk1::allocator<char> > const&, matjson::Value const&), std::__ndk1::allocator<geode::Result<std::__ndk1::shared_ptr<geode::SettingV3>, std::__ndk1::basic_string<char, std::__ndk1::char_traits<char>, std::__ndk1::allocator<char> > > (*)(std::__ndk1::basic_string<char, std::__ndk1::char_traits<char>, std::__ndk1::allocator<char> > const&, std::__ndk1::basic_string<char, std::__ndk1::char_traits<char>, std::__ndk1::allocator<char> > const&, matjson::Value const&)>, geode::Result<std::__ndk1::shared_ptr<geode::SettingV3>, std::__ndk1::basic_string<char, std::__ndk1::char_traits<char>, std::__ndk1::allocator<char> > >(std::__ndk1::basic_string<char, std::__ndk1::char_traits<char>, std::__ndk1::allocator<char> > const&, std::__ndk1::basic_string<char, std::__ndk1::char_traits<char>, std::__ndk1::allocator<char> > const&, matjson::Value const&)>::~__func()
PUBLIC 83018 0 std::__ndk1::__function::__func<geode::Result<std::__ndk1::shared_ptr<geode::SettingV3>, std::__ndk1::basic_string<char, std::__ndk1::char_traits<char>, std::__ndk1::allocator<char> > > (*)(std::__ndk1::basic_string<char, std::__ndk1::char_traits<char>, std::__ndk1::allocator<char> > const&, std::__ndk1::basic_string<char, std::__ndk1::char_traits<char>, std::__ndk1::allocator<char> > const&, matjson::Value const&), std::__ndk1::allocator<geode::Result<std::__ndk1::shared_ptr<geode::SettingV3>, std::__ndk1::basic_string<char, std::__ndk1::char_traits<char>, std::__ndk1::allocator<char> > > (*)(std::__ndk1::basic_string<char, std::__ndk1::char_traits<char>, std::__ndk1::allocator<char> > const&, std::__ndk1::basic_string<char, std::__ndk1::char_traits<char>, std::__ndk1::allocator<char> > const&, matjson::Value const&)>, geode::Result<std::__ndk1::shared_ptr<geode::SettingV3>, std::__ndk1::basic_string<char, std::__ndk1::char_traits<char>, std::__ndk1::allocator<char> > >(std::__ndk1::basic_string<char, std::__ndk1::char_traits<char>, std::__ndk1::allocator<char> > const&, std::__ndk1::basic_string<char, std::__ndk1::char_traits<char>, std::__ndk1::allocator<char> > const&, matjson::Value const&)>::__clone() const
PUBLIC 8304c 0 std::__ndk1::__function::__func<geode::Result<std::__ndk1::shared_ptr<geode::SettingV3>, std::__ndk1::basic_string<char, std::__ndk1::char_traits<char>, std::__ndk1::allocator<char> > > (*)(std::__ndk1::basic_string<char, std::__ndk1::char_traits<char>, std::__ndk1::allocator<char> > const&, std::__ndk1::basic_string<char, std::__ndk1::char_traits<char>, std::__ndk1::allocator<char> > const&, matjson::Value const&), std::__ndk1::allocator<geode::Result<std::__ndk1::shared_ptr<geode::SettingV3>, std::__ndk1::basic_string<char, std::__ndk1::char_traits<char>, std::__ndk1::allocator<char> > > (*)(std::__ndk1::basic_string<char, std::__ndk1::char_traits<char>, std::__ndk1::allocator<char> > const&, std::__ndk1::basic_string<char, std::__ndk1::char_traits<char>, std::__ndk1::allocator<char> > const&, matjson::Value const&)>, geode::Result<std::__ndk1::shared_ptr<geode::SettingV3>, std::__ndk1::basic_string<char, std::__ndk1::char_traits<char>, std::__ndk1::allocator<char> > >(std::__ndk1::basic_string<char, std::__ndk1::char_traits<char>, std::__ndk1::allocator<char> > const&, std::__ndk1::basic_string<char, std::__ndk1::char_traits<char>, std::__ndk1::allocator<char> > const&, matjson::Value const&)>::__clone(std::__ndk1::__function::__base<geode::Result<std::__ndk1::shared_ptr<geode::SettingV3>, std::__ndk1::basic_string<char, std::__ndk1::char_traits<char>, std::__ndk1::allocator<char> > >(std::__ndk1::basic_string<char, std::__ndk1::char_traits<char>, std::__ndk1::allocator<char> > const&, std::__ndk1::basic_string<char, std::__ndk1::char_traits<char>, std::__ndk1::allocator<char> > const&, matjson::Value const&)>*) const
PUBLIC 83060 0 std::__ndk1::__function::__func<geode::Result<std::__ndk1::shared_ptr<geode::SettingV3>, std::__ndk1::basic_string<char, std::__ndk1::char_traits<char>, std::__ndk1::allocator<char> > > (*)(std::__ndk1::basic_string<char, std::__ndk1::char_traits<char>, std::__ndk1::allocator<char> > const&, std::__ndk1::basic_string<char, std::__ndk1::char_traits<char>, std::__ndk1::allocator<char> > const&, matjson::Value const&), std::__ndk1::allocator<geode::Result<std::__ndk1::shared_ptr<geode::SettingV3>, std::__ndk1::basic_string<char, std::__ndk1::char_traits<char>, std::__ndk1::allocator<char> > > (*)(std::__ndk1::basic_string<char, std::__ndk1::char_traits<char>, std::__ndk1::allocator<char> > const&, std::__ndk1::basic_string<char, std::__ndk1::char_traits<char>, std::__ndk1::allocator<char> > const&, matjson::Value const&)>, geode::Result<std::__ndk1::shared_ptr<geode::SettingV3>, std::__ndk1::basic_string<char, std::__ndk1::char_traits<char>, std::__ndk1::allocator<char> > >(std::__ndk1::basic_string<char, std::__ndk1::char_traits<char>, std::__ndk1::allocator<char> > const&, std::__ndk1::basic_string<char, std::__ndk1::char_traits<char>, std::__ndk1::allocator<char> > const&, matjson::Value const&)>::destroy()
PUBLIC 83064 0 std::__ndk1::__function::__func<geode::Result<std::__ndk1::shared_ptr<geode::SettingV3>, std::__ndk1::basic_string<char, std::__ndk1::char_traits<char>, std::__ndk1::allocator<char> > > (*)(std::__ndk1::basic_string<char, std::__ndk1::char_traits<char>, std::__ndk1::allocator<char> > const&, std::__ndk1::basic_string<char, std::__ndk1::char_traits<char>, std::__ndk1::allocator<char> > const&, matjson::Value const&), std::__ndk1::allocator<geode::Result<std::__ndk1::shared_ptr<geode::SettingV3>, std::__ndk1::basic_string<char, std::__ndk1::char_traits<char>, std::__ndk1::allocator<char> > > (*)(std::__ndk1::basic_string<char, std::__ndk1::char_traits<char>, std::__ndk1::allocator<char> > const&, std::__ndk1::basic_string<char, std::__ndk1::char_traits<char>, std::__ndk1::allocator<char> > const&, matjson::Value const&)>, geode::Result<std::__ndk1::shared_ptr<geode::SettingV3>, std::__ndk1::basic_string<char, std::__ndk1::char_traits<char>, std::__ndk1::allocator<char> > >(std::__ndk1::basic_string<char, std::__ndk1::char_traits<char>, std::__ndk1::allocator<char> > const&, std::__ndk1::basic_string<char, std::__ndk1::char_traits<char>, std::__ndk1::allocator<char> > const&, matjson::Value const&)>::destroy_deallocate()
PUBLIC 83068 0 std::__ndk1::__function::__func<geode::Result<std::__ndk1::shared_ptr<geode::SettingV3>, std::__ndk1::basic_string<char, std::__ndk1::char_traits<char>, std::__ndk1::allocator<char> > > (*)(std::__ndk1::basic_string<char, std::__ndk1::char_traits<char>, std::__ndk1::allocator<char> > const&, std::__ndk1::basic_string<char, std::__ndk1::char_traits<char>, std::__ndk1::allocator<char> > const&, matjson::Value const&), std::__ndk1::allocator<geode::Result<std::__ndk1::shared_ptr<geode::SettingV3>, std::__ndk1::basic_string<char, std::__ndk1::char_traits<char>, std::__ndk1::allocator<char> > > (*)(std::__ndk1::basic_string<char, std::__ndk1::char_traits<char>, std::__ndk1::allocator<char> > const&, std::__ndk1::basic_string<char, std::__ndk1::char_traits<char>, std::__ndk1::allocator<char> > const&, matjson::Value const&)>, geode::Result<std::__ndk1::shared_ptr<geode::SettingV3>, std::__ndk1::basic_string<char, std::__ndk1::char_traits<char>, std::__ndk1::allocator<char> > >(std::__ndk1::basic_string<char, std::__ndk1::char_traits<char>, std::__ndk1::allocator<char> > const&, std::__ndk1::basic_string<char, std::__ndk1::char_traits<char>, std::__ndk1::allocator<char> > const&, matjson::Value const&)>::operator()(std::__ndk1::basic_string<char, std::__ndk1::char_traits<char>, std::__ndk1::allocator<char> > const&, std::__ndk1::basic_string<char, std::__ndk1::char_traits<char>, std::__ndk1::allocator<char> > const&, matjson::Value const&)
PUBLIC 8307c 0 std::__ndk1::__function::__func<geode::Result<std::__ndk1::shared_ptr<geode::SettingV3>, std::__ndk1::basic_string<char, std::__ndk1::char_traits<char>, std::__ndk1::allocator<char> > > (*)(std::__ndk1::basic_string<char, std::__ndk1::char_traits<char>, std::__ndk1::allocator<char> > const&, std::__ndk1::basic_string<char, std::__ndk1::char_traits<char>, std::__ndk1::allocator<char> > const&, matjson::Value const&), std::__ndk1::allocator<geode::Result<std::__ndk1::shared_ptr<geode::SettingV3>, std::__ndk1::basic_string<char, std::__ndk1::char_traits<char>, std::__ndk1::allocator<char> > > (*)(std::__ndk1::basic_string<char, std::__ndk1::char_traits<char>, std::__ndk1::allocator<char> > const&, std::__ndk1::basic_string<char, std::__ndk1::char_traits<char>, std::__ndk1::allocator<char> > const&, matjson::Value const&)>, geode::Result<std::__ndk1::shared_ptr<geode::SettingV3>, std::__ndk1::basic_string<char, std::__ndk1::char_traits<char>, std::__ndk1::allocator<char> > >(std::__ndk1::basic_string<char, std::__ndk1::char_traits<char>, std::__ndk1::allocator<char> > const&, std::__ndk1::basic_string<char, std::__ndk1::char_traits<char>, std::__ndk1::allocator<char> > const&, matjson::Value const&)>::target(std::type_info const&) const
PUBLIC 83098 0 std::__ndk1::__function::__func<geode::Result<std::__ndk1::shared_ptr<geode::SettingV3>, std::__ndk1::basic_string<char, std::__ndk1::char_traits<char>, std::__ndk1::allocator<char> > > (*)(std::__ndk1::basic_string<char, std::__ndk1::char_traits<char>, std::__ndk1::allocator<char> > const&, std::__ndk1::basic_string<char, std::__ndk1::char_traits<char>, std::__ndk1::allocator<char> > const&, matjson::Value const&), std::__ndk1::allocator<geode::Result<std::__ndk1::shared_ptr<geode::SettingV3>, std::__ndk1::basic_string<char, std::__ndk1::char_traits<char>, std::__ndk1::allocator<char> > > (*)(std::__ndk1::basic_string<char, std::__ndk1::char_traits<char>, std::__ndk1::allocator<char> > const&, std::__ndk1::basic_string<char, std::__ndk1::char_traits<char>, std::__ndk1::allocator<char> > const&, matjson::Value const&)>, geode::Result<std::__ndk1::shared_ptr<geode::SettingV3>, std::__ndk1::basic_string<char, std::__ndk1::char_traits<char>, std::__ndk1::allocator<char> > >(std::__ndk1::basic_string<char, std::__ndk1::char_traits<char>, std::__ndk1::allocator<char> > const&, std::__ndk1::basic_string<char, std::__ndk1::char_traits<char>, std::__ndk1::allocator<char> > const&, matjson::Value const&)>::target_type() const
PUBLIC m 830a4 0 geodeImplicitEntry
PUBLIC 830e0 0 std::__ndk1::unordered_map<void*, bool, std::__ndk1::hash<void*>, std::__ndk1::equal_to<void*>, std::__ndk1::allocator<std::__ndk1::pair<void* const, bool> > >::~unordered_map[abi:ne180000]()
PUBLIC 8312c 0 wrapFunction(unsigned long, tulip::hook::WrapperMetadata const&)
PUBLIC 83260 0 geode::impl::ResultData<void*, std::__ndk1::basic_string<char, std::__ndk1::char_traits<char>, std::__ndk1::allocator<char> > >::unwrapErr() &
PUBLIC 832d8 0 geode::impl::ResultData<void*, std::__ndk1::basic_string<char, std::__ndk1::char_traits<char>, std::__ndk1::allocator<char> > >::~ResultData()
PUBLIC 8334c 0 tulip::hook::WrapperMetadata::~WrapperMetadata()
PUBLIC 833b0 0 cocos2d::CCObject::CCObject()
PUBLIC 835d4 0 cocos2d::CCObject::~CCObject()
PUBLIC 835f8 0 cocos2d::CCNode::CCNode()
PUBLIC 83854 0 cocos2d::CCNode::~CCNode()
PUBLIC 83878 0 {virtual override thunk({offset(-320)}, cocos2d::CCLayer::~CCLayer())}
PUBLIC 83880 0 cocos2d::CCLayer::~CCLayer()
PUBLIC 838a4 0 {virtual override thunk({offset(-320)}, cocos2d::CCLayer::~CCLayer())}
PUBLIC 838cc 0 cocos2d::CCLayerRGBA::~CCLayerRGBA()
PUBLIC 83bcc 0 {virtual override thunk({offset(-320)}, cocos2d::CCLayerRGBA::~CCLayerRGBA())}
PUBLIC 83bd4 0 cocos2d::CCLayerRGBA::~CCLayerRGBA()
PUBLIC 83bf8 0 {virtual override thunk({offset(-320)}, cocos2d::CCLayerRGBA::~CCLayerRGBA())}
PUBLIC 83c20 0 cocos2d::CCLayerColor::CCLayerColor()
PUBLIC 83e84 0 {virtual override thunk({offset(-320)}, cocos2d::CCLayerColor::~CCLayerColor())}
PUBLIC 83e8c 0 cocos2d::CCLayerColor::~CCLayerColor()
PUBLIC 83eb0 0 {virtual override thunk({offset(-320)}, cocos2d::CCLayerColor::~CCLayerColor())}
PUBLIC 83ed8 0 {virtual override thunk({offset(-320)}, FLAlertLayer::~FLAlertLayer())}
PUBLIC 83ee0 0 FLAlertLayer::~FLAlertLayer()
PUBLIC 83f04 0 {virtual override thunk({offset(-320)}, FLAlertLayer::~FLAlertLayer())}
PUBLIC 83f2c 0 FLAlertLayer::create(FLAlertLayerProtocol*, char const*, gd::string, char const*, char const*, float)
PUBLIC 840e4 0 tulip::hook::AbstractFunction::from<FLAlertLayer*, FLAlertLayerProtocol*, char const*, gd::string, char const*, char const*, float>(FLAlertLayer* (*)(FLAlertLayerProtocol*, char const*, gd::string, char const*, char const*, float))
PUBLIC 84250 0 TextInputDelegate::textInputOpened(CCTextInputNode*)
PUBLIC 84254 0 TextInputDelegate::textInputClosed(CCTextInputNode*)
PUBLIC 84258 0 TextInputDelegate::textInputShouldOffset(CCTextInputNode*, float)
PUBLIC 8425c 0 TextInputDelegate::textInputReturn(CCTextInputNode*)
PUBLIC 84260 0 TextInputDelegate::allowTextInput(CCTextInputNode*)
PUBLIC 84268 0 TextInputDelegate::enterPressed(CCTextInputNode*)
PUBLIC 8426c 0 CCMenuItemToggler::createWithStandardSprites(cocos2d::CCObject*, void (cocos2d::CCObject::*)(cocos2d::CCObject*), float)
PUBLIC 84464 0 tulip::hook::AbstractFunction::from<void, CCTextInputNode*, gd::string>(void (*)(CCTextInputNode*, gd::string))
PUBLIC 84508 0 CCTextInputNode::setString(gd::string)
PUBLIC 84680 0 CCTextInputNode::updateLabel(gd::string)
PUBLIC 847f8 0 cocos2d::CCLayerColor::~CCLayerColor()
PUBLIC 84adc 0 FLAlertLayer::~FLAlertLayer()
PUBLIC 84dc0 0 cocos2d::CCNode::~CCNode()
PUBLIC 85060 0 cocos2d::CCLayer::~CCLayer()
PUBLIC 85350 0 cocos2d::CCObject::~CCObject()
PUBLIC 85844 0 _ZN5geode15UnwrapExceptionC2IRPvQsr4implE18IsStringStreamableIT_EEENS_4impl5OkTagEOS4_
PUBLIC 85998 0 std::__ndk1::__variant_detail::__visitation::__base::__dispatcher<(unsigned long)0>::__dispatch[abi:ne180000]<std::__ndk1::__variant_detail::__dtor<std::__ndk1::__variant_detail::__traits<void*, std::__ndk1::basic_string<char, std::__ndk1::char_traits<char>, std::__ndk1::allocator<char> > >, (std::__ndk1::__variant_detail::_Trait)1>::__destroy[abi:ne180000]()::{lambda(auto:1&)#1}, std::__ndk1::__variant_detail::__base<(std::__ndk1::__variant_detail::__traits<void*, std::__ndk1::basic_string<char, std::__ndk1::char_traits<char>, std::__ndk1::allocator<char> > >)1, std::__ndk1::__variant_detail::__traits, std::__ndk1::allocator<char> >&>(std::__ndk1::__variant_detail::__dtor<std::__ndk1::__variant_detail::__traits<void*, std::__ndk1::basic_string<char, std::__ndk1::char_traits<char>, std::__ndk1::allocator<char> > >, (std::__ndk1::__variant_detail::_Trait)1>, std::__ndk1::__variant_detail::__base<(std::__ndk1::__variant_detail::__traits<void*, std::__ndk1::basic_string<char, std::__ndk1::char_traits<char>, std::__ndk1::allocator<char> > >)1, std::__ndk1::__variant_detail::__traits, std::__ndk1::allocator<char> >&)
PUBLIC 8599c 0 std::__ndk1::__variant_detail::__visitation::__base::__dispatcher<(unsigned long)1>::__dispatch[abi:ne180000]<std::__ndk1::__variant_detail::__dtor<std::__ndk1::__variant_detail::__traits<void*, std::__ndk1::basic_string<char, std::__ndk1::char_traits<char>, std::__ndk1::allocator<char> > >, (std::__ndk1::__variant_detail::_Trait)1>::__destroy[abi:ne180000]()::{lambda(auto:1&)#1}, std::__ndk1::__variant_detail::__base<(std::__ndk1::__variant_detail::__traits<void*, std::__ndk1::basic_string<char, std::__ndk1::char_traits<char>, std::__ndk1::allocator<char> > >)1, std::__ndk1::__variant_detail::__traits, std::__ndk1::allocator<char> >&>(std::__ndk1::__variant_detail::__dtor<std::__ndk1::__variant_detail::__traits<void*, std::__ndk1::basic_string<char, std::__ndk1::char_traits<char>, std::__ndk1::allocator<char> > >, (std::__ndk1::__variant_detail::_Trait)1>, std::__ndk1::__variant_detail::__base<(std::__ndk1::__variant_detail::__traits<void*, std::__ndk1::basic_string<char, std::__ndk1::char_traits<char>, std::__ndk1::allocator<char> > >)1, std::__ndk1::__variant_detail::__traits, std::__ndk1::allocator<char> >&)
PUBLIC 859b0 0 std::__ndk1::__hash_table<std::__ndk1::__hash_value_type<void*, bool>, std::__ndk1::__unordered_map_hasher<void*, std::__ndk1::__hash_value_type<void*, bool>, std::__ndk1::hash<void*>, std::__ndk1::equal_to<void*>, true>, std::__ndk1::__unordered_map_equal<void*, std::__ndk1::__hash_value_type<void*, bool>, std::__ndk1::equal_to<void*>, std::__ndk1::hash<void*>, true>, std::__ndk1::allocator<std::__ndk1::__hash_value_type<void*, bool> > >::__emplace_unique_key_args<void*, std::__ndk1::piecewise_construct_t const&, std::__ndk1::tuple<void* const&>, std::__ndk1::tuple<> >(void* const&, std::__ndk1::piecewise_construct_t const&, std::__ndk1::tuple<void* const&>, std::__ndk1::tuple<>)
PUBLIC 85ebc 0 __udivti3
PUBLIC 85ec8 0 __udivmodti4
PUBLIC m 86114 0 __eqtf2
PUBLIC 861b4 0 __unordtf2
PUBLIC 861ec 0 fmt::v11::detail::write_loc(fmt::v11::basic_appender<char>, fmt::v11::loc_value, fmt::v11::format_specs const&, fmt::v11::detail::locale_ref)
PUBLIC 86480 0 fmt::v11::format_facet<std::__ndk1::locale>::~format_facet()
PUBLIC 864fc 0 fmt::v11::report_error(char const*)
PUBLIC 8654c 0 fmt::v11::format_error::runtime_error(char const*)
PUBLIC 86578 0 fmt::v11::format_facet<std::__ndk1::locale>::do_put(fmt::v11::basic_appender<char>, fmt::v11::loc_value, fmt::v11::format_specs const&) const
PUBLIC 86d38 0 fmt::v11::detail::loc_writer<char>::~loc_writer()
PUBLIC 86d9c 0 fmt::v11::detail::vformat_to<char>(fmt::v11::detail::buffer<char>&, fmt::v11::basic_string_view<char>, fmt::v11::detail::vformat_args<char>::type, fmt::v11::detail::locale_ref)
PUBLIC 8730c 0 fmt::v11::detail::is_printable(unsigned int)
PUBLIC 87534 0 fmt::v11::detail::dragonbox::to_decimal<float>(float)
PUBLIC 87810 0 fmt::v11::detail::dragonbox::to_decimal<double>(double)
PUBLIC 87d4c 0 fmt::v11::basic_memory_buffer<char, (unsigned long)500, std::__ndk1::allocator<char> >::grow(fmt::v11::detail::buffer<char>&, unsigned long)
PUBLIC 87dc4 0 fmt::v11::format_facet<std::__ndk1::locale>::~format_facet()
PUBLIC 87e50 0 fmt::v11::format_error::~format_error()
PUBLIC 87e74 0 fmt::v11::detail::copy_noinline<char, char const*, fmt::v11::basic_appender<char> >(char const*, char const*, fmt::v11::basic_appender<char>)
PUBLIC 87fc4 0 fmt::v11::detail::default_arg_formatter<char>::operator()<bool>(bool)
PUBLIC 8802c 0 fmt::v11::detail::default_arg_formatter<char>::operator()<char>(char)
PUBLIC 880bc 0 fmt::v11::detail::default_arg_formatter<char>::operator()<float>(float)
PUBLIC 881a8 0 fmt::v11::detail::default_arg_formatter<char>::operator()<double>(double)
PUBLIC 88294 0 fmt::v11::detail::default_arg_formatter<char>::operator()<char const*>(char const*)
PUBLIC 882dc 0 fmt::v11::detail::default_arg_formatter<char>::operator()<void const*>(void const*)
PUBLIC 88374 0 _ZN3fmt3v116detail5writeIcNS0_14basic_appenderIcEEiTnNSt6__ndk19enable_ifIXaaaasr11is_integralIT1_EE5valuentsr3std7is_sameIS7_bEE5valuentsr3std7is_sameIS7_T_EE5valueEiE4typeELi0EEET0_SB_S7_
PUBLIC 885d4 0 fmt::v11::detail::copy_noinline<char, char*, fmt::v11::basic_appender<char> >(char*, char*, fmt::v11::basic_appender<char>)
PUBLIC 88724 0 _ZN3fmt3v116detail5writeIcNS0_14basic_appenderIcEEjTnNSt6__ndk19enable_ifIXaaaasr11is_integralIT1_EE5valuentsr3std7is_sameIS7_bEE5valuentsr3std7is_sameIS7_T_EE5valueEiE4typeELi0EEET0_SB_S7_
PUBLIC 88904 0 _ZN3fmt3v116detail5writeIcNS0_14basic_appenderIcEExTnNSt6__ndk19enable_ifIXaaaasr11is_integralIT1_EE5valuentsr3std7is_sameIS7_bEE5valuentsr3std7is_sameIS7_T_EE5valueEiE4typeELi0EEET0_SB_S7_
PUBLIC 88b88 0 _ZN3fmt3v116detail5writeIcNS0_14basic_appenderIcEEyTnNSt6__ndk19enable_ifIXaaaasr11is_integralIT1_EE5valuentsr3std7is_sameIS7_bEE5valuentsr3std7is_sameIS7_T_EE5valueEiE4typeELi0EEET0_SB_S7_
PUBLIC 88d90 0 _ZN3fmt3v116detail5writeIcNS0_14basic_appenderIcEEnTnNSt6__ndk19enable_ifIXaaaasr11is_integralIT1_EE5valuentsr3std7is_sameIS7_bEE5valuentsr3std7is_sameIS7_T_EE5valueEiE4typeELi0EEET0_SB_S7_
PUBLIC 890f0 0 _ZN3fmt3v116detail5writeIcNS0_14basic_appenderIcEEoTnNSt6__ndk19enable_ifIXaaaasr11is_integralIT1_EE5valuentsr3std7is_sameIS7_bEE5valuentsr3std7is_sameIS7_T_EE5valueEiE4typeELi0EEET0_SB_S7_
PUBLIC 89404 0 _ZN3fmt3v116detail5writeIcNS0_14basic_appenderIcEEbTnNSt6__ndk19enable_ifIXsr3std7is_sameIT1_bEE5valueEiE4typeELi0EEET0_SA_S7_RKNS0_12format_specsENS1_10locale_refE
PUBLIC 89694 0 fmt::v11::detail::write_int_noinline<char, fmt::v11::basic_appender<char>, unsigned int>(fmt::v11::basic_appender<char>, fmt::v11::detail::write_int_arg<unsigned int>, fmt::v11::format_specs const&, fmt::v11::detail::locale_ref)
PUBLIC 8a470 0 fmt::v11::detail::fill<char, fmt::v11::basic_appender<char> >(fmt::v11::basic_appender<char>, unsigned long, fmt::v11::detail::fill_t const&)
PUBLIC 8a640 0 fmt::v11::detail::write_padded<char, (fmt::v11::align::type)1, fmt::v11::basic_appender<char>, fmt::v11::detail::write_char<char, fmt::v11::basic_appender<char> >(fmt::v11::basic_appender<char>, char, fmt::v11::format_specs const&)::{lambda(fmt::v11::basic_appender<char>&)#1}>(fmt::v11::basic_appender<char>, fmt::v11::format_specs const&, unsigned long, unsigned long, fmt::v11::detail::write_char<char, fmt::v11::basic_appender<char> >(fmt::v11::basic_appender<char>, char, fmt::v11::format_specs const&)::{lambda(fmt::v11::basic_appender<char>&)#1})
PUBLIC 8a87c 0 fmt::v11::detail::write_escaped_cp<fmt::v11::basic_appender<char>, char>(fmt::v11::basic_appender<char>, fmt::v11::detail::find_escape_result<char> const&)
PUBLIC 8ab88 0 fmt::v11::detail::write_codepoint<(unsigned long)2, char, fmt::v11::basic_appender<char> >(fmt::v11::basic_appender<char>, char, unsigned int)
PUBLIC 8ad00 0 fmt::v11::detail::write_codepoint<(unsigned long)8, char, fmt::v11::basic_appender<char> >(fmt::v11::basic_appender<char>, char, unsigned int)
PUBLIC 8ae78 0 fmt::v11::detail::write_padded<char, (fmt::v11::align::type)1, fmt::v11::basic_appender<char>, fmt::v11::detail::write_nonfinite<char, fmt::v11::basic_appender<char> >(fmt::v11::basic_appender<char>, bool, fmt::v11::format_specs, fmt::v11::sign::type)::{lambda(fmt::v11::basic_appender<char>&)#1}>(fmt::v11::basic_appender<char>, fmt::v11::format_specs const&, unsigned long, unsigned long, fmt::v11::detail::write_nonfinite<char, fmt::v11::basic_appender<char> >(fmt::v11::basic_appender<char>, bool, fmt::v11::format_specs, fmt::v11::sign::type)::{lambda(fmt::v11::basic_appender<char>&)#1})
PUBLIC 8b0b8 0 fmt::v11::detail::do_write_float<char, fmt::v11::basic_appender<char>, fmt::v11::detail::dragonbox::decimal_fp<float>, fmt::v11::detail::digit_grouping<char> >(fmt::v11::basic_appender<char>, fmt::v11::detail::dragonbox::decimal_fp<float> const&, fmt::v11::format_specs const&, fmt::v11::detail::float_specs, fmt::v11::detail::locale_ref)
PUBLIC 8bd2c 0 fmt::v11::detail::do_write_float<char, fmt::v11::basic_appender<char>, fmt::v11::detail::dragonbox::decimal_fp<float>, fmt::v11::detail::digit_grouping<char> >(fmt::v11::basic_appender<char>, fmt::v11::detail::dragonbox::decimal_fp<float> const&, fmt::v11::format_specs const&, fmt::v11::detail::float_specs, fmt::v11::detail::locale_ref)::{lambda(fmt::v11::basic_appender<char>(fmt::v11::basic_appender<char>))#1}::operator() const
PUBLIC 8be80 0 fmt::v11::detail::digit_grouping<char>::digit_grouping(fmt::v11::detail::locale_ref, bool)
PUBLIC 8c0ec 0 fmt::v11::detail::digit_grouping<char>::~digit_grouping()
PUBLIC 8c130 0 fmt::v11::detail::write_exponent<char, fmt::v11::basic_appender<char> >(int, fmt::v11::basic_appender<char>)
PUBLIC 8c300 0 _ZN3fmt3v116detail17write_significandIcjTnNSt6__ndk19enable_ifIXsr3std11is_integralIT0_EE5valueEiE4typeELi0EEEPT_S9_S5_iiS8_
PUBLIC 8c47c 0 fmt::v11::detail::digit_grouping<char>::apply<fmt::v11::basic_appender<char>, char>(fmt::v11::basic_appender<char>, fmt::v11::basic_string_view<char>) const
PUBLIC 8c834 0 fmt::v11::basic_memory_buffer<int, (unsigned long)500, std::__ndk1::allocator<int> >::grow(fmt::v11::detail::buffer<int>&, unsigned long)
PUBLIC 8c8d4 0 fmt::v11::detail::do_write_float<char, fmt::v11::basic_appender<char>, fmt::v11::detail::dragonbox::decimal_fp<double>, fmt::v11::detail::digit_grouping<char> >(fmt::v11::basic_appender<char>, fmt::v11::detail::dragonbox::decimal_fp<double> const&, fmt::v11::format_specs const&, fmt::v11::detail::float_specs, fmt::v11::detail::locale_ref)
PUBLIC 8d588 0 fmt::v11::detail::do_write_float<char, fmt::v11::basic_appender<char>, fmt::v11::detail::dragonbox::decimal_fp<double>, fmt::v11::detail::digit_grouping<char> >(fmt::v11::basic_appender<char>, fmt::v11::detail::dragonbox::decimal_fp<double> const&, fmt::v11::format_specs const&, fmt::v11::detail::float_specs, fmt::v11::detail::locale_ref)::{lambda(fmt::v11::basic_appender<char>(fmt::v11::basic_appender<char>))#1}::operator() const
PUBLIC 8d6e0 0 _ZN3fmt3v116detail17write_significandIcmTnNSt6__ndk19enable_ifIXsr3std11is_integralIT0_EE5valueEiE4typeELi0EEEPT_S9_S5_iiS8_
PUBLIC 8d870 0 fmt::v11::detail::write_float<char, fmt::v11::basic_appender<char>, long double>(fmt::v11::basic_appender<char>, long double, fmt::v11::format_specs, fmt::v11::detail::locale_ref)
PUBLIC 8e36c 0 fmt::v11::detail::write_padded<char, (fmt::v11::align::type)2, fmt::v11::basic_appender<char>, fmt::v11::detail::write_bytes<char, (fmt::v11::align::type)2, fmt::v11::basic_appender<char> >(fmt::v11::basic_appender<char>, fmt::v11::basic_string_view<char>, fmt::v11::format_specs const&)::{lambda(fmt::v11::basic_appender<char>&)#1}>(fmt::v11::basic_appender<char>, fmt::v11::format_specs const&, unsigned long, unsigned long, fmt::v11::detail::write_bytes<char, (fmt::v11::align::type)2, fmt::v11::basic_appender<char> >(fmt::v11::basic_appender<char>, fmt::v11::basic_string_view<char>, fmt::v11::format_specs const&)::{lambda(fmt::v11::basic_appender<char>&)#1})
PUBLIC 8e548 0 fmt::v11::detail::format_dragon(fmt::v11::detail::basic_fp<unsigned __int128>, unsigned int, int, fmt::v11::detail::buffer<char>&, int&)
PUBLIC 8f978 0 fmt::v11::detail::bigint::operator<<=(int)
PUBLIC 8fa9c 0 fmt::v11::detail::bigint::assign_pow10(int)
PUBLIC 901f8 0 fmt::v11::detail::bigint::divmod_assign(fmt::v11::detail::bigint const&)
PUBLIC 90518 0 fmt::v11::basic_memory_buffer<unsigned int, (unsigned long)32, std::__ndk1::allocator<unsigned int> >::grow(fmt::v11::detail::buffer<unsigned int>&, unsigned long)
PUBLIC 905b8 0 fmt::v11::detail::do_write_float<char, fmt::v11::basic_appender<char>, fmt::v11::detail::big_decimal_fp, fmt::v11::detail::digit_grouping<char> >(fmt::v11::basic_appender<char>, fmt::v11::detail::big_decimal_fp const&, fmt::v11::format_specs const&, fmt::v11::detail::float_specs, fmt::v11::detail::locale_ref)
PUBLIC 91468 0 fmt::v11::detail::do_write_float<char, fmt::v11::basic_appender<char>, fmt::v11::detail::big_decimal_fp, fmt::v11::detail::digit_grouping<char> >(fmt::v11::basic_appender<char>, fmt::v11::detail::big_decimal_fp const&, fmt::v11::format_specs const&, fmt::v11::detail::float_specs, fmt::v11::detail::locale_ref)::{lambda(fmt::v11::basic_appender<char>(fmt::v11::basic_appender<char>))#1}::operator() const
PUBLIC 915c8 0 fmt::v11::detail::write_padded<char, (fmt::v11::align::type)2, fmt::v11::basic_appender<char>, fmt::v11::detail::write_ptr<char, fmt::v11::basic_appender<char>, unsigned long>(fmt::v11::basic_appender<char>, unsigned long, fmt::v11::format_specs const*)::{lambda(fmt::v11::basic_appender<char>&)#1}>(fmt::v11::basic_appender<char>, fmt::v11::format_specs const&, unsigned long, unsigned long, fmt::v11::detail::write_ptr<char, fmt::v11::basic_appender<char>, unsigned long>(fmt::v11::basic_appender<char>, unsigned long, fmt::v11::format_specs const*)::{lambda(fmt::v11::basic_appender<char>&)#1})
PUBLIC 917dc 0 fmt::v11::detail::parse_replacement_field<char, fmt::v11::detail::vformat_to<char>(fmt::v11::detail::buffer<char>&, fmt::v11::basic_string_view<char>, fmt::v11::detail::vformat_args<char>::type, fmt::v11::detail::locale_ref)::format_handler&>(char const*, char const*, fmt::v11::detail::vformat_to<char>(fmt::v11::detail::buffer<char>&, fmt::v11::basic_string_view<char>, fmt::v11::detail::vformat_args<char>::type, fmt::v11::detail::locale_ref)::format_handler&)
PUBLIC 93478 0 fmt::v11::detail::parse_dynamic_spec<char>(char const*, char const*, int&, fmt::v11::detail::arg_ref<char>&, fmt::v11::basic_format_parse_context<char>&)
PUBLIC 93708 0 fmt::v11::basic_format_args<fmt::v11::context>::get<char>(fmt::v11::basic_string_view<char>) const
PUBLIC 93860 0 fmt::v11::detail::write_int_noinline<char, fmt::v11::basic_appender<char>, unsigned long>(fmt::v11::basic_appender<char>, fmt::v11::detail::write_int_arg<unsigned long>, fmt::v11::format_specs const&, fmt::v11::detail::locale_ref)
PUBLIC 946b4 0 fmt::v11::detail::write_int_noinline<char, fmt::v11::basic_appender<char>, unsigned __int128>(fmt::v11::basic_appender<char>, fmt::v11::detail::write_int_arg<unsigned __int128>, fmt::v11::format_specs const&, fmt::v11::detail::locale_ref)
PUBLIC 9571c 0 _ZN3fmt3v116detail15format_hexfloatIdTnNSt6__ndk19enable_ifIXntsr16is_double_doubleIT_EE5valueEiE4typeELi0EEEvS5_NS0_12format_specsERNS1_6bufferIcEE
PUBLIC 95c3c 0 fmt::v11::detail::format_float<double>(double, int, fmt::v11::detail::float_specs, fmt::v11::detail::buffer<char>&)
PUBLIC 965dc 0 fmt::v11::detail::write<char, fmt::v11::basic_appender<char> >(fmt::v11::basic_appender<char>, fmt::v11::basic_string_view<char>, fmt::v11::format_specs const&)
PUBLIC 97948 0 fmt::v11::detail::for_each_codepoint<fmt::v11::detail::compute_width(fmt::v11::basic_string_view<char>)::count_code_points>(fmt::v11::basic_string_view<char>, fmt::v11::detail::compute_width(fmt::v11::basic_string_view<char>)::count_code_points)::{lambda(char const*, char const*)#1}::operator()(char const*, char const*) const
PUBLIC 97b00 0 fmt::v11::detail::write_int<fmt::v11::basic_appender<char>, unsigned long, char>(fmt::v11::basic_appender<char>, unsigned long, unsigned int, fmt::v11::format_specs const&, fmt::v11::detail::digit_grouping<char> const&)
PUBLIC 9807c 0 fmt::v11::detail::write_int<fmt::v11::basic_appender<char>, unsigned __int128, char>(fmt::v11::basic_appender<char>, unsigned __int128, unsigned int, fmt::v11::format_specs const&, fmt::v11::detail::digit_grouping<char> const&)
PUBLIC 986f8 0 __CortexA53843419_85004
PUBLIC 98700 0 <.plt ELF section in geode.custom-keybinds.android64.so>
STACK CFI INIT 44110 10 .cfa: sp 0 +
STACK CFI INIT 44120 8 .cfa: sp 0 +
STACK CFI INIT 44128 8 .cfa: sp 0 +
STACK CFI INIT 44130 14 .cfa: sp 0 +
STACK CFI INIT 44144 1c .cfa: sp 0 +
STACK CFI INIT 44160 10 .cfa: sp 0 +
STACK CFI INIT 446c4 3c .cfa: sp 0 +
STACK CFI 446c8 .cfa: sp 32 +
STACK CFI 446d0 .cfa: x29 32 + x19: .cfa -16 + ^ .ra: .cfa -24 + ^ x29: .cfa -32 + ^
STACK CFI 446e4 .cfa: sp 32 +
STACK CFI 446ec .cfa: sp 0 +
STACK CFI 446f0 .cfa: x29 32 +
STACK CFI 446f4 .cfa: sp 32 +
STACK CFI 446fc .cfa: sp 0 +
STACK CFI INIT 44700 8 .cfa: sp 0 +
STACK CFI INIT 44708 8 .cfa: sp 0 +
STACK CFI INIT 44710 64 .cfa: sp 0 +
STACK CFI 44718 .cfa: sp 32 +
STACK CFI 44720 .cfa: x29 32 + x19: .cfa -16 + ^ .ra: .cfa -24 + ^ x29: .cfa -32 + ^
STACK CFI 44760 .cfa: sp 32 +
STACK CFI 44768 .cfa: sp 0 +
STACK CFI INIT 44774 8 .cfa: sp 0 +
STACK CFI INIT 4477c 27c .cfa: sp 0 +
STACK CFI 44780 .cfa: sp 64 +
STACK CFI 44790 .cfa: x29 48 + x19: .cfa -8 + ^ x20: .cfa -16 + ^ x21: .cfa -32 + ^ .ra: .cfa -40 + ^ x29: .cfa -48 + ^
STACK CFI 447dc .cfa: sp 64 +
STACK CFI 447ec .cfa: sp 0 +
STACK CFI 447f0 .cfa: x29 48 +
STACK CFI 449e0 .cfa: sp 64 +
STACK CFI 449f0 .cfa: sp 0 +
STACK CFI 449f4 .cfa: x29 48 +
STACK CFI INIT 449f8 48 .cfa: sp 0 +
STACK CFI 449fc .cfa: sp 32 +
STACK CFI 44a04 .cfa: x29 32 + x19: .cfa -16 + ^ .ra: .cfa -24 + ^ x29: .cfa -32 + ^
STACK CFI 44a34 .cfa: sp 32 +
STACK CFI 44a3c .cfa: sp 0 +
STACK CFI INIT 44a40 8 .cfa: sp 0 +
STACK CFI INIT 44a48 24 .cfa: sp 0 +
STACK CFI 44a4c .cfa: sp 32 +
STACK CFI 44a54 .cfa: x29 32 + x19: .cfa -16 + ^ .ra: .cfa -24 + ^ x29: .cfa -32 + ^
STACK CFI 44a60 .cfa: sp 32 +
STACK CFI 44a68 .cfa: sp 0 +
STACK CFI INIT 44a6c 4 .cfa: sp 0 +
STACK CFI INIT 44a70 10 .cfa: sp 0 +
STACK CFI 44a74 .cfa: sp 16 +
STACK CFI 44a78 .cfa: x29 16 + .ra: .cfa -8 + ^ x29: .cfa -16 + ^
STACK CFI INIT 44a80 4 .cfa: sp 0 +
STACK CFI INIT 44a84 14 .cfa: sp 0 +
STACK CFI INIT 44a98 68 .cfa: sp 0 +
STACK CFI 44a9c .cfa: sp 48 +
STACK CFI 44aa8 .cfa: x29 48 + x19: .cfa -8 + ^ x20: .cfa -16 + ^ x21: .cfa -32 + ^ .ra: .cfa -40 + ^ x29: .cfa -48 + ^
STACK CFI 44ae0 .cfa: sp 48 +
STACK CFI 44aec .cfa: sp 0 +
STACK CFI 44af0 .cfa: sp 48 +
STACK CFI 44afc .cfa: sp 0 +
STACK CFI INIT 44ca4 54 .cfa: sp 0 +
STACK CFI 44ca8 .cfa: sp 32 +
STACK CFI 44cb0 .cfa: x29 32 + x19: .cfa -8 + ^ x20: .cfa -16 + ^ .ra: .cfa -24 + ^ x29: .cfa -32 + ^
STACK CFI 44ce0 .cfa: sp 32 +
STACK CFI 44ce8 .cfa: sp 0 +
STACK CFI 44cec .cfa: sp 32 +
STACK CFI 44cf4 .cfa: sp 0 +
STACK CFI INIT 44cf8 14 .cfa: sp 0 +
STACK CFI 44cfc .cfa: sp 16 +
STACK CFI 44d00 .cfa: x29 16 + .ra: .cfa -8 + ^ x29: .cfa -16 + ^
STACK CFI INIT 44d5c 30 .cfa: sp 0 +
STACK CFI 44d60 .cfa: sp 32 +
STACK CFI 44d68 .cfa: x29 32 + x19: .cfa -16 + ^ .ra: .cfa -24 + ^ x29: .cfa -32 + ^
STACK CFI 44d80 .cfa: sp 32 +
STACK CFI 44d88 .cfa: sp 0 +
STACK CFI INIT 44d8c 34 .cfa: sp 0 +
STACK CFI 44d90 .cfa: sp 32 +
STACK CFI 44d98 .cfa: x29 32 + x19: .cfa -16 + ^ .ra: .cfa -24 + ^ x29: .cfa -32 + ^
STACK CFI INIT 44dc0 14 .cfa: sp 0 +
STACK CFI 44dc4 .cfa: sp 16 +
STACK CFI 44dc8 .cfa: x29 16 + .ra: .cfa -8 + ^ x29: .cfa -16 + ^
STACK CFI INIT 44dd4 104 .cfa: sp 0 +
STACK CFI 44dd8 .cfa: sp 64 +
STACK CFI 44de8 .cfa: x29 64 + x19: .cfa -8 + ^ x20: .cfa -16 + ^ x21: .cfa -24 + ^ x22: .cfa -32 + ^ x23: .cfa -48 + ^ .ra: .cfa -56 + ^ x29: .cfa -64 + ^
STACK CFI 44e44 .cfa: sp 64 +
STACK CFI 44e54 .cfa: sp 0 +
STACK CFI 44e58 .cfa: x29 64 +
STACK CFI 44e74 .cfa: sp 64 +
STACK CFI 44e84 .cfa: sp 0 +
STACK CFI 44e88 .cfa: x29 64 +
STACK CFI 44ec4 .cfa: sp 64 +
STACK CFI 44ed4 .cfa: sp 0 +
STACK CFI INIT 44ee0 30 .cfa: sp 0 +
STACK CFI INIT 44f10 98 .cfa: sp 0 +
STACK CFI INIT 44fa8 59c .cfa: sp 0 +
STACK CFI INIT 45544 8c .cfa: sp 0 +
STACK CFI INIT 455d0 30 .cfa: sp 0 +
STACK CFI INIT 51aa0 1c .cfa: sp 0 +
STACK CFI INIT 51abc 1c .cfa: sp 0 +
STACK CFI INIT 520e8 50 .cfa: sp 0 +
STACK CFI 520ec .cfa: sp 32 +
STACK CFI 520f4 .cfa: x29 32 + x19: .cfa -16 + ^ .ra: .cfa -24 + ^ x29: .cfa -32 + ^
STACK CFI 5210c .cfa: sp 32 +
STACK CFI 52114 .cfa: sp 0 +
STACK CFI 52118 .cfa: x29 32 +
STACK CFI 5212c .cfa: sp 32 +
STACK CFI 52134 .cfa: sp 0 +
STACK CFI INIT 521ac 7c .cfa: sp 0 +
STACK CFI 521b0 .cfa: sp 48 +
STACK CFI 521bc .cfa: x29 48 + x19: .cfa -8 + ^ x20: .cfa -16 + ^ x21: .cfa -32 + ^ .ra: .cfa -40 + ^ x29: .cfa -48 + ^
STACK CFI 52208 .cfa: sp 48 +
STACK CFI 52214 .cfa: sp 0 +
STACK CFI 52218 .cfa: sp 48 +
STACK CFI 52224 .cfa: sp 0 +
STACK CFI INIT 52228 4 .cfa: sp 0 +
STACK CFI INIT 5222c 120 .cfa: sp 0 +
STACK CFI 52230 .cfa: sp 64 +
STACK CFI 52240 .cfa: x29 64 + x19: .cfa -8 + ^ x20: .cfa -16 + ^ x21: .cfa -24 + ^ x22: .cfa -32 + ^ x23: .cfa -40 + ^ x24: .cfa -48 + ^ .ra: .cfa -56 + ^ x29: .cfa -64 + ^
STACK CFI 52338 .cfa: sp 64 +
STACK CFI 52348 .cfa: sp 0 +
STACK CFI INIT 52540 7c .cfa: sp 0 +
STACK CFI 52544 .cfa: sp 32 +
STACK CFI 5254c .cfa: x29 32 + x19: .cfa -8 + ^ x20: .cfa -16 + ^ .ra: .cfa -24 + ^ x29: .cfa -32 + ^
STACK CFI 525a4 .cfa: sp 32 +
STACK CFI 525ac .cfa: sp 0 +
STACK CFI 525b0 .cfa: sp 32 +
STACK CFI 525b8 .cfa: sp 0 +
STACK CFI INIT 525bc 80 .cfa: sp 0 +
STACK CFI 525c0 .cfa: sp 48 +
STACK CFI 525cc .cfa: x29 48 + x19: .cfa -8 + ^ x20: .cfa -16 + ^ x21: .cfa -24 + ^ x22: .cfa -32 + ^ .ra: .cfa -40 + ^ x29: .cfa -48 + ^
STACK CFI 525e4 .cfa: sp 48 +
STACK CFI 525f0 .cfa: sp 0 +
STACK CFI 525f4 .cfa: x29 48 +
STACK CFI 52624 .cfa: sp 48 +
STACK CFI 52630 .cfa: sp 0 +
STACK CFI 52634 .cfa: x29 48 +
STACK CFI INIT 5263c 1b0 .cfa: sp 0 +
STACK CFI INIT 52940 34 .cfa: sp 0 +
STACK CFI 52944 .cfa: sp 16 +
STACK CFI 52948 .cfa: x29 16 + .ra: .cfa -8 + ^ x29: .cfa -16 + ^
STACK CFI INIT 52aa0 80 .cfa: sp 0 +
STACK CFI 52aa4 .cfa: sp 48 +
STACK CFI 52ab0 .cfa: x29 48 + x19: .cfa -8 + ^ x20: .cfa -16 + ^ x21: .cfa -32 + ^ .ra: .cfa -40 + ^ x29: .cfa -48 + ^
STACK CFI 52b10 .cfa: sp 48 +
STACK CFI 52b1c .cfa: sp 0 +
STACK CFI INIT 52b20 24 .cfa: sp 0 +
STACK CFI 52b24 .cfa: sp 32 +
STACK CFI 52b2c .cfa: x29 32 + x19: .cfa -16 + ^ .ra: .cfa -24 + ^ x29: .cfa -32 + ^
STACK CFI 52b38 .cfa: sp 32 +
STACK CFI 52b40 .cfa: sp 0 +
STACK CFI INIT 5303c 148 .cfa: sp 0 +
STACK CFI 53040 .cfa: sp 48 +
STACK CFI 5304c .cfa: x29 48 + x19: .cfa -8 + ^ x20: .cfa -16 + ^ x21: .cfa -32 + ^ .ra: .cfa -40 + ^ x29: .cfa -48 + ^
STACK CFI 53174 .cfa: sp 48 +
STACK CFI 53180 .cfa: sp 0 +
STACK CFI INIT 53184 4 .cfa: sp 0 +
STACK CFI INIT 53188 14 .cfa: sp 0 +
STACK CFI INIT 533c4 68 .cfa: sp 0 +
STACK CFI 533c8 .cfa: sp 32 +
STACK CFI 533d0 .cfa: x29 32 + x19: .cfa -8 + ^ x20: .cfa -16 + ^ .ra: .cfa -24 + ^ x29: .cfa -32 + ^
STACK CFI 533e8 .cfa: sp 32 +
STACK CFI 533f0 .cfa: sp 0 +
STACK CFI 533f4 .cfa: x29 32 +
STACK CFI 53420 .cfa: sp 32 +
STACK CFI 53428 .cfa: sp 0 +
STACK CFI INIT 5342c 14 .cfa: sp 0 +
STACK CFI 53430 .cfa: sp 16 +
STACK CFI 53434 .cfa: x29 16 + .ra: .cfa -8 + ^ x29: .cfa -16 + ^
STACK CFI INIT 53440 4 .cfa: sp 0 +
STACK CFI INIT 53444 14 .cfa: sp 0 +
STACK CFI INIT 53458 d4 .cfa: sp 0 +
STACK CFI 5345c .cfa: sp 48 +
STACK CFI 53468 .cfa: x29 48 + x19: .cfa -8 + ^ x20: .cfa -16 + ^ x21: .cfa -32 + ^ .ra: .cfa -40 + ^ x29: .cfa -48 + ^
STACK CFI 534f8 .cfa: sp 48 +
STACK CFI 53504 .cfa: sp 0 +
STACK CFI 53508 .cfa: x29 48 +
STACK CFI INIT 5352c 3c8 .cfa: sp 0 +
STACK CFI INIT 538f4 8c .cfa: sp 0 +
STACK CFI 538fc .cfa: sp 32 +
STACK CFI 53904 .cfa: x29 32 + x19: .cfa -8 + ^ x20: .cfa -16 + ^ .ra: .cfa -24 + ^ x29: .cfa -32 + ^
STACK CFI 5394c .cfa: sp 32 +
STACK CFI 53954 .cfa: sp 0 +
STACK CFI 5395c .cfa: x29 32 +
STACK CFI INIT 53980 10 .cfa: sp 0 +
STACK CFI INIT 53b28 8c .cfa: sp 0 +
STACK CFI 53b2c .cfa: sp 32 +
STACK CFI 53b34 .cfa: x29 32 + x19: .cfa -16 + ^ .ra: .cfa -24 + ^ x29: .cfa -32 + ^
STACK CFI 53ba8 .cfa: sp 32 +
STACK CFI 53bb0 .cfa: sp 0 +
STACK CFI INIT 53bb4 50 .cfa: sp 0 +
STACK CFI 53bb8 .cfa: sp 32 +
STACK CFI 53bc0 .cfa: x29 32 + x19: .cfa -16 + ^ .ra: .cfa -24 + ^ x29: .cfa -32 + ^
STACK CFI 53bd8 .cfa: sp 32 +
STACK CFI 53be0 .cfa: sp 0 +
STACK CFI 53be4 .cfa: x29 32 +
STACK CFI 53bf8 .cfa: sp 32 +
STACK CFI 53c00 .cfa: sp 0 +
STACK CFI INIT 53c04 64 .cfa: sp 0 +
STACK CFI 53c08 .cfa: sp 32 +
STACK CFI 53c10 .cfa: x29 32 + x19: .cfa -16 + ^ .ra: .cfa -24 + ^ x29: .cfa -32 + ^
STACK CFI 53c3c .cfa: sp 32 +
STACK CFI 53c44 .cfa: sp 0 +
STACK CFI 53c48 .cfa: x29 32 +
STACK CFI 53c5c .cfa: sp 32 +
STACK CFI 53c64 .cfa: sp 0 +
STACK CFI INIT 53c68 178 .cfa: sp 0 +
STACK CFI 53c6c .cfa: sp 80 +
STACK CFI 53c80 .cfa: x29 80 + x19: .cfa -8 + ^ x20: .cfa -16 + ^ x21: .cfa -24 + ^ x22: .cfa -32 + ^ x23: .cfa -40 + ^ x24: .cfa -48 + ^ x25: .cfa -56 + ^ x26: .cfa -64 + ^ .ra: .cfa -72 + ^ x29: .cfa -80 + ^
STACK CFI 53dc8 .cfa: sp 80 +
STACK CFI 53ddc .cfa: sp 0 +
STACK CFI INIT 543cc 4 .cfa: sp 0 +
STACK CFI INIT 54544 6c .cfa: sp 0 +
STACK CFI 54548 .cfa: sp 32 +
STACK CFI 54550 .cfa: x29 32 + x19: .cfa -16 + ^ .ra: .cfa -24 + ^ x29: .cfa -32 + ^
STACK CFI 545a4 .cfa: sp 32 +
STACK CFI 545ac .cfa: sp 0 +
STACK CFI INIT 545b0 74 .cfa: sp 0 +
STACK CFI 545b4 .cfa: sp 32 +
STACK CFI 545bc .cfa: x29 32 + x19: .cfa -16 + ^ .ra: .cfa -24 + ^ x29: .cfa -32 + ^
STACK CFI 54618 .cfa: sp 32 +
STACK CFI 54620 .cfa: sp 0 +
STACK CFI INIT 54624 4 .cfa: sp 0 +
STACK CFI INIT 54628 4 .cfa: sp 0 +
STACK CFI INIT 5462c 34 .cfa: sp 0 +
STACK CFI 54630 .cfa: sp 32 +
STACK CFI 54638 .cfa: x29 32 + x19: .cfa -16 + ^ .ra: .cfa -24 + ^ x29: .cfa -32 + ^
STACK CFI 54654 .cfa: sp 32 +
STACK CFI 5465c .cfa: sp 0 +
STACK CFI INIT 54660 14 .cfa: sp 0 +
STACK CFI INIT 54674 4 .cfa: sp 0 +
STACK CFI INIT 54678 4 .cfa: sp 0 +
STACK CFI INIT 5467c 34 .cfa: sp 0 +
STACK CFI 5468c .cfa: sp 16 +
STACK CFI 54690 .cfa: x29 16 + .ra: .cfa -8 + ^ x29: .cfa -16 + ^
STACK CFI 546a0 .cfa: sp 16 +
STACK CFI 546a4 .cfa: sp 0 +
STACK CFI INIT 546b0 1c .cfa: sp 0 +
STACK CFI INIT 546cc c .cfa: sp 0 +
STACK CFI INIT 55204 4 .cfa: sp 0 +
STACK CFI INIT 555e0 24 .cfa: sp 0 +
STACK CFI INIT 55604 1c .cfa: sp 0 +
STACK CFI INIT 558a0 4 .cfa: sp 0 +
STACK CFI INIT 558a4 4 .cfa: sp 0 +
STACK CFI INIT 55aa0 4 .cfa: sp 0 +
STACK CFI INIT 55aa4 38 .cfa: sp 0 +
STACK CFI 55aa8 .cfa: sp 32 +
STACK CFI 55ab0 .cfa: x29 32 + x19: .cfa -16 + ^ .ra: .cfa -24 + ^ x29: .cfa -32 + ^
STACK CFI 55ad0 .cfa: sp 32 +
STACK CFI 55ad8 .cfa: sp 0 +
STACK CFI INIT 55adc 18 .cfa: sp 0 +
STACK CFI INIT 55af4 4 .cfa: sp 0 +
STACK CFI INIT 55af8 4 .cfa: sp 0 +
STACK CFI INIT 55afc 8 .cfa: sp 0 +
STACK CFI INIT 55b04 1c .cfa: sp 0 +
STACK CFI INIT 55b20 c .cfa: sp 0 +
STACK CFI INIT 587c8 4c .cfa: sp 0 +
STACK CFI INIT 58814 5c .cfa: sp 0 +
STACK CFI 58818 .cfa: sp 32 +
STACK CFI 58820 .cfa: x29 32 + x19: .cfa -16 + ^ .ra: .cfa -24 + ^ x29: .cfa -32 + ^
STACK CFI 58864 .cfa: sp 32 +
STACK CFI 5886c .cfa: sp 0 +
STACK CFI INIT 58904 7c .cfa: sp 0 +
STACK CFI 58908 .cfa: sp 32 +
STACK CFI 58910 .cfa: x29 32 + x19: .cfa -16 + ^ .ra: .cfa -24 + ^ x29: .cfa -32 + ^
STACK CFI 58948 .cfa: sp 32 +
STACK CFI 58950 .cfa: sp 0 +
STACK CFI 58954 .cfa: x29 32 +
STACK CFI 58958 .cfa: sp 32 +
STACK CFI 58960 .cfa: sp 0 +
STACK CFI 58964 .cfa: x29 32 +
STACK CFI 58974 .cfa: sp 32 +
STACK CFI 5897c .cfa: sp 0 +
STACK CFI INIT 58980 40 .cfa: sp 0 +
STACK CFI INIT 589c0 50 .cfa: sp 0 +
STACK CFI 589c4 .cfa: sp 32 +
STACK CFI 589cc .cfa: x29 32 + x19: .cfa -16 + ^ .ra: .cfa -24 + ^ x29: .cfa -32 + ^
STACK CFI 58a04 .cfa: sp 32 +
STACK CFI 58a0c .cfa: sp 0 +
STACK CFI INIT 58a10 7c .cfa: sp 0 +
STACK CFI 58a14 .cfa: sp 48 +
STACK CFI 58a20 .cfa: x29 32 + x19: .cfa -16 + ^ .ra: .cfa -24 + ^ x29: .cfa -32 + ^
STACK CFI 58a64 .cfa: sp 48 +
STACK CFI 58a70 .cfa: sp 0 +
STACK CFI 58a74 .cfa: x29 32 +
STACK CFI INIT 58a8c 1c .cfa: sp 0 +
STACK CFI INIT 58aa8 c .cfa: sp 0 +
STACK CFI INIT 58ab4 34 .cfa: sp 0 +
STACK CFI 58ab8 .cfa: sp 16 +
STACK CFI 58abc .cfa: x29 16 + .ra: .cfa -8 + ^ x29: .cfa -16 + ^
STACK CFI INIT 58ae8 24 .cfa: sp 0 +
STACK CFI 58aec .cfa: sp 32 +
STACK CFI 58af4 .cfa: x29 32 + x19: .cfa -16 + ^ .ra: .cfa -24 + ^ x29: .cfa -32 + ^
STACK CFI 58b00 .cfa: sp 32 +
STACK CFI 58b08 .cfa: sp 0 +
STACK CFI INIT 58b0c 4 .cfa: sp 0 +
STACK CFI INIT 58b10 34 .cfa: sp 0 +
STACK CFI 58b14 .cfa: sp 32 +
STACK CFI 58b1c .cfa: x29 32 + x19: .cfa -16 + ^ .ra: .cfa -24 + ^ x29: .cfa -32 + ^
STACK CFI 58b38 .cfa: sp 32 +
STACK CFI 58b40 .cfa: sp 0 +
STACK CFI INIT 58b44 14 .cfa: sp 0 +
STACK CFI INIT 58b58 4 .cfa: sp 0 +
STACK CFI INIT 58b5c 4 .cfa: sp 0 +
STACK CFI INIT 58b60 24 .cfa: sp 0 +
STACK CFI INIT 58b84 1c .cfa: sp 0 +
STACK CFI INIT 58ba0 c .cfa: sp 0 +
STACK CFI INIT 58bac 4 .cfa: sp 0 +
STACK CFI INIT 58bb0 34 .cfa: sp 0 +
STACK CFI 58bb4 .cfa: sp 32 +
STACK CFI 58bbc .cfa: x29 32 + x19: .cfa -16 + ^ .ra: .cfa -24 + ^ x29: .cfa -32 + ^
STACK CFI 58bd8 .cfa: sp 32 +
STACK CFI 58be0 .cfa: sp 0 +
STACK CFI INIT 58be4 14 .cfa: sp 0 +
STACK CFI INIT 58bf8 4 .cfa: sp 0 +
STACK CFI INIT 58bfc 4 .cfa: sp 0 +
STACK CFI INIT 58c00 24 .cfa: sp 0 +
STACK CFI INIT 58c24 1c .cfa: sp 0 +
STACK CFI INIT 58c40 c .cfa: sp 0 +
STACK CFI INIT 58c4c 4 .cfa: sp 0 +
STACK CFI INIT 58c50 34 .cfa: sp 0 +
STACK CFI 58c54 .cfa: sp 32 +
STACK CFI 58c5c .cfa: x29 32 + x19: .cfa -16 + ^ .ra: .cfa -24 + ^ x29: .cfa -32 + ^
STACK CFI 58c78 .cfa: sp 32 +
STACK CFI 58c80 .cfa: sp 0 +
STACK CFI INIT 58c84 14 .cfa: sp 0 +
STACK CFI INIT 58c98 4 .cfa: sp 0 +
STACK CFI INIT 58c9c 4 .cfa: sp 0 +
STACK CFI INIT 58ca0 24 .cfa: sp 0 +
STACK CFI INIT 58cc4 1c .cfa: sp 0 +
STACK CFI INIT 58ce0 c .cfa: sp 0 +
STACK CFI INIT 58cec 4 .cfa: sp 0 +
STACK CFI INIT 58cf0 34 .cfa: sp 0 +
STACK CFI 58cf4 .cfa: sp 32 +
STACK CFI 58cfc .cfa: x29 32 + x19: .cfa -16 + ^ .ra: .cfa -24 + ^ x29: .cfa -32 + ^
STACK CFI 58d18 .cfa: sp 32 +
STACK CFI 58d20 .cfa: sp 0 +
STACK CFI INIT 58d24 14 .cfa: sp 0 +
STACK CFI INIT 58d38 4 .cfa: sp 0 +
STACK CFI INIT 58d3c 4 .cfa: sp 0 +
STACK CFI INIT 58d40 24 .cfa: sp 0 +
STACK CFI INIT 58d64 1c .cfa: sp 0 +
STACK CFI INIT 58d80 c .cfa: sp 0 +
STACK CFI INIT 58d8c 4 .cfa: sp 0 +
STACK CFI INIT 58d90 34 .cfa: sp 0 +
STACK CFI 58d94 .cfa: sp 32 +
STACK CFI 58d9c .cfa: x29 32 + x19: .cfa -16 + ^ .ra: .cfa -24 + ^ x29: .cfa -32 + ^
STACK CFI 58db8 .cfa: sp 32 +
STACK CFI 58dc0 .cfa: sp 0 +
STACK CFI INIT 58dc4 14 .cfa: sp 0 +
STACK CFI INIT 58dd8 4 .cfa: sp 0 +
STACK CFI INIT 58ddc 4 .cfa: sp 0 +
STACK CFI INIT 58de0 24 .cfa: sp 0 +
STACK CFI INIT 58e04 1c .cfa: sp 0 +
STACK CFI INIT 58e20 c .cfa: sp 0 +
STACK CFI INIT 58e2c 4 .cfa: sp 0 +
STACK CFI INIT 58e30 34 .cfa: sp 0 +
STACK CFI 58e34 .cfa: sp 32 +
STACK CFI 58e3c .cfa: x29 32 + x19: .cfa -16 + ^ .ra: .cfa -24 + ^ x29: .cfa -32 + ^
STACK CFI 58e58 .cfa: sp 32 +
STACK CFI 58e60 .cfa: sp 0 +
STACK CFI INIT 58e64 14 .cfa: sp 0 +
STACK CFI INIT 58e78 4 .cfa: sp 0 +
STACK CFI INIT 58e7c 4 .cfa: sp 0 +
STACK CFI INIT 58e80 24 .cfa: sp 0 +
STACK CFI INIT 58ea4 1c .cfa: sp 0 +
STACK CFI INIT 58ec0 c .cfa: sp 0 +
STACK CFI INIT 58ecc 4c .cfa: sp 0 +
STACK CFI INIT 58f18 5c .cfa: sp 0 +
STACK CFI 58f1c .cfa: sp 32 +
STACK CFI 58f24 .cfa: x29 32 + x19: .cfa -16 + ^ .ra: .cfa -24 + ^ x29: .cfa -32 + ^
STACK CFI 58f68 .cfa: sp 32 +
STACK CFI 58f70 .cfa: sp 0 +
STACK CFI INIT 59008 7c .cfa: sp 0 +
STACK CFI 5900c .cfa: sp 32 +
STACK CFI 59014 .cfa: x29 32 + x19: .cfa -16 + ^ .ra: .cfa -24 + ^ x29: .cfa -32 + ^
STACK CFI 5904c .cfa: sp 32 +
STACK CFI 59054 .cfa: sp 0 +
STACK CFI 59058 .cfa: x29 32 +
STACK CFI 5905c .cfa: sp 32 +
STACK CFI 59064 .cfa: sp 0 +
STACK CFI 59068 .cfa: x29 32 +
STACK CFI 59078 .cfa: sp 32 +
STACK CFI 59080 .cfa: sp 0 +
STACK CFI INIT 59084 40 .cfa: sp 0 +
STACK CFI INIT 590c4 50 .cfa: sp 0 +
STACK CFI 590c8 .cfa: sp 32 +
STACK CFI 590d0 .cfa: x29 32 + x19: .cfa -16 + ^ .ra: .cfa -24 + ^ x29: .cfa -32 + ^
STACK CFI 59108 .cfa: sp 32 +
STACK CFI 59110 .cfa: sp 0 +
STACK CFI INIT 59114 38 .cfa: sp 0 +
STACK CFI 59118 .cfa: sp 16 +
STACK CFI 5911c .cfa: x29 16 + .ra: .cfa -8 + ^ x29: .cfa -16 + ^
STACK CFI 59140 .cfa: sp 16 +
STACK CFI 59144 .cfa: sp 0 +
STACK CFI 59148 .cfa: x29 16 +
STACK CFI INIT 5914c 1c .cfa: sp 0 +
STACK CFI INIT 59168 c .cfa: sp 0 +
STACK CFI INIT 59174 4 .cfa: sp 0 +
STACK CFI INIT 59178 34 .cfa: sp 0 +
STACK CFI 5917c .cfa: sp 32 +
STACK CFI 59184 .cfa: x29 32 + x19: .cfa -16 + ^ .ra: .cfa -24 + ^ x29: .cfa -32 + ^
STACK CFI 591a0 .cfa: sp 32 +
STACK CFI 591a8 .cfa: sp 0 +
STACK CFI INIT 591ac 14 .cfa: sp 0 +
STACK CFI INIT 591c0 4 .cfa: sp 0 +
STACK CFI INIT 591c4 4 .cfa: sp 0 +
STACK CFI INIT 591c8 58 .cfa: sp 0 +
STACK CFI 591cc .cfa: sp 48 +
STACK CFI 591d8 .cfa: x29 48 + x19: .cfa -8 + ^ x20: .cfa -16 + ^ x21: .cfa -32 + ^ .ra: .cfa -40 + ^ x29: .cfa -48 + ^
STACK CFI 59210 .cfa: sp 48 +
STACK CFI 5921c .cfa: sp 0 +
STACK CFI INIT 59220 1c .cfa: sp 0 +
STACK CFI INIT 5923c c .cfa: sp 0 +
STACK CFI INIT 59248 4 .cfa: sp 0 +
STACK CFI INIT 5924c 34 .cfa: sp 0 +
STACK CFI 59250 .cfa: sp 32 +
STACK CFI 59258 .cfa: x29 32 + x19: .cfa -16 + ^ .ra: .cfa -24 + ^ x29: .cfa -32 + ^
STACK CFI 59274 .cfa: sp 32 +
STACK CFI 5927c .cfa: sp 0 +
STACK CFI INIT 59280 14 .cfa: sp 0 +
STACK CFI INIT 59294 4 .cfa: sp 0 +
STACK CFI INIT 59298 4 .cfa: sp 0 +
STACK CFI INIT 5929c 58 .cfa: sp 0 +
STACK CFI 592a0 .cfa: sp 48 +
STACK CFI 592ac .cfa: x29 48 + x19: .cfa -8 + ^ x20: .cfa -16 + ^ x21: .cfa -32 + ^ .ra: .cfa -40 + ^ x29: .cfa -48 + ^
STACK CFI 592e4 .cfa: sp 48 +
STACK CFI 592f0 .cfa: sp 0 +
STACK CFI INIT 592f4 1c .cfa: sp 0 +
STACK CFI INIT 59310 c .cfa: sp 0 +
STACK CFI INIT 5931c 4 .cfa: sp 0 +
STACK CFI INIT 59320 34 .cfa: sp 0 +
STACK CFI 59324 .cfa: sp 32 +
STACK CFI 5932c .cfa: x29 32 + x19: .cfa -16 + ^ .ra: .cfa -24 + ^ x29: .cfa -32 + ^
STACK CFI 59348 .cfa: sp 32 +
STACK CFI 59350 .cfa: sp 0 +
STACK CFI INIT 59354 14 .cfa: sp 0 +
STACK CFI INIT 59368 4 .cfa: sp 0 +
STACK CFI INIT 5936c 4 .cfa: sp 0 +
STACK CFI INIT 59370 58 .cfa: sp 0 +
STACK CFI 59374 .cfa: sp 48 +
STACK CFI 59380 .cfa: x29 48 + x19: .cfa -8 + ^ x20: .cfa -16 + ^ x21: .cfa -32 + ^ .ra: .cfa -40 + ^ x29: .cfa -48 + ^
STACK CFI 593b8 .cfa: sp 48 +
STACK CFI 593c4 .cfa: sp 0 +
STACK CFI INIT 593c8 1c .cfa: sp 0 +
STACK CFI INIT 593e4 c .cfa: sp 0 +
STACK CFI INIT 593f0 4 .cfa: sp 0 +
STACK CFI INIT 593f4 34 .cfa: sp 0 +
STACK CFI 593f8 .cfa: sp 32 +
STACK CFI 59400 .cfa: x29 32 + x19: .cfa -16 + ^ .ra: .cfa -24 + ^ x29: .cfa -32 + ^
STACK CFI 5941c .cfa: sp 32 +
STACK CFI 59424 .cfa: sp 0 +
STACK CFI INIT 59428 14 .cfa: sp 0 +
STACK CFI INIT 5943c 4 .cfa: sp 0 +
STACK CFI INIT 59440 4 .cfa: sp 0 +
STACK CFI INIT 59444 58 .cfa: sp 0 +
STACK CFI 59448 .cfa: sp 48 +
STACK CFI 59454 .cfa: x29 48 + x19: .cfa -8 + ^ x20: .cfa -16 + ^ x21: .cfa -32 + ^ .ra: .cfa -40 + ^ x29: .cfa -48 + ^
STACK CFI 5948c .cfa: sp 48 +
STACK CFI 59498 .cfa: sp 0 +
STACK CFI INIT 5949c 1c .cfa: sp 0 +
STACK CFI INIT 594b8 c .cfa: sp 0 +
STACK CFI INIT 594c4 4 .cfa: sp 0 +
STACK CFI INIT 594c8 34 .cfa: sp 0 +
STACK CFI 594cc .cfa: sp 32 +
STACK CFI 594d4 .cfa: x29 32 + x19: .cfa -16 + ^ .ra: .cfa -24 + ^ x29: .cfa -32 + ^
STACK CFI 594f0 .cfa: sp 32 +
STACK CFI 594f8 .cfa: sp 0 +
STACK CFI INIT 594fc 14 .cfa: sp 0 +
STACK CFI INIT 59510 4 .cfa: sp 0 +
STACK CFI INIT 59514 4 .cfa: sp 0 +
STACK CFI INIT 59518 58 .cfa: sp 0 +
STACK CFI 5951c .cfa: sp 48 +
STACK CFI 59528 .cfa: x29 48 + x19: .cfa -8 + ^ x20: .cfa -16 + ^ x21: .cfa -32 + ^ .ra: .cfa -40 + ^ x29: .cfa -48 + ^
STACK CFI 59560 .cfa: sp 48 +
STACK CFI 5956c .cfa: sp 0 +
STACK CFI INIT 59570 1c .cfa: sp 0 +
STACK CFI INIT 5958c c .cfa: sp 0 +
STACK CFI INIT 59598 4 .cfa: sp 0 +
STACK CFI INIT 5959c 34 .cfa: sp 0 +
STACK CFI 595a0 .cfa: sp 32 +
STACK CFI 595a8 .cfa: x29 32 + x19: .cfa -16 + ^ .ra: .cfa -24 + ^ x29: .cfa -32 + ^
STACK CFI 595c4 .cfa: sp 32 +
STACK CFI 595cc .cfa: sp 0 +
STACK CFI INIT 595d0 14 .cfa: sp 0 +
STACK CFI INIT 595e4 4 .cfa: sp 0 +
STACK CFI INIT 595e8 4 .cfa: sp 0 +
STACK CFI INIT 595ec 5c .cfa: sp 0 +
STACK CFI 595f0 .cfa: sp 48 +
STACK CFI 595fc .cfa: x29 48 + x19: .cfa -8 + ^ x20: .cfa -16 + ^ x21: .cfa -32 + ^ .ra: .cfa -40 + ^ x29: .cfa -48 + ^
STACK CFI 59638 .cfa: sp 48 +
STACK CFI 59644 .cfa: sp 0 +
STACK CFI INIT 59648 1c .cfa: sp 0 +
STACK CFI INIT 59664 c .cfa: sp 0 +
STACK CFI INIT 59670 4 .cfa: sp 0 +
STACK CFI INIT 59674 34 .cfa: sp 0 +
STACK CFI 59678 .cfa: sp 32 +
STACK CFI 59680 .cfa: x29 32 + x19: .cfa -16 + ^ .ra: .cfa -24 + ^ x29: .cfa -32 + ^
STACK CFI 5969c .cfa: sp 32 +
STACK CFI 596a4 .cfa: sp 0 +
STACK CFI INIT 596a8 14 .cfa: sp 0 +
STACK CFI INIT 596bc 4 .cfa: sp 0 +
STACK CFI INIT 596c0 4 .cfa: sp 0 +
STACK CFI INIT 596c4 5c .cfa: sp 0 +
STACK CFI 596c8 .cfa: sp 48 +
STACK CFI 596d4 .cfa: x29 48 + x19: .cfa -8 + ^ x20: .cfa -16 + ^ x21: .cfa -32 + ^ .ra: .cfa -40 + ^ x29: .cfa -48 + ^
STACK CFI 59710 .cfa: sp 48 +
STACK CFI 5971c .cfa: sp 0 +
STACK CFI INIT 59720 1c .cfa: sp 0 +
STACK CFI INIT 5973c c .cfa: sp 0 +
STACK CFI INIT 59748 4 .cfa: sp 0 +
STACK CFI INIT 5974c 34 .cfa: sp 0 +
STACK CFI 59750 .cfa: sp 32 +
STACK CFI 59758 .cfa: x29 32 + x19: .cfa -16 + ^ .ra: .cfa -24 + ^ x29: .cfa -32 + ^
STACK CFI 59774 .cfa: sp 32 +
STACK CFI 5977c .cfa: sp 0 +
STACK CFI INIT 59780 14 .cfa: sp 0 +
STACK CFI INIT 59794 4 .cfa: sp 0 +
STACK CFI INIT 59798 4 .cfa: sp 0 +
STACK CFI INIT 5979c 58 .cfa: sp 0 +
STACK CFI 597a0 .cfa: sp 48 +
STACK CFI 597ac .cfa: x29 48 + x19: .cfa -8 + ^ x20: .cfa -16 + ^ x21: .cfa -32 + ^ .ra: .cfa -40 + ^ x29: .cfa -48 + ^
STACK CFI 597e4 .cfa: sp 48 +
STACK CFI 597f0 .cfa: sp 0 +
STACK CFI INIT 597f4 1c .cfa: sp 0 +
STACK CFI INIT 59810 c .cfa: sp 0 +
STACK CFI INIT 5981c 4 .cfa: sp 0 +
STACK CFI INIT 59820 34 .cfa: sp 0 +
STACK CFI 59824 .cfa: sp 32 +
STACK CFI 5982c .cfa: x29 32 + x19: .cfa -16 + ^ .ra: .cfa -24 + ^ x29: .cfa -32 + ^
STACK CFI 59848 .cfa: sp 32 +
STACK CFI 59850 .cfa: sp 0 +
STACK CFI INIT 59854 14 .cfa: sp 0 +
STACK CFI INIT 59868 4 .cfa: sp 0 +
STACK CFI INIT 5986c 4 .cfa: sp 0 +
STACK CFI INIT 59870 5c .cfa: sp 0 +
STACK CFI 59874 .cfa: sp 48 +
STACK CFI 59880 .cfa: x29 48 + x19: .cfa -8 + ^ x20: .cfa -16 + ^ x21: .cfa -32 + ^ .ra: .cfa -40 + ^ x29: .cfa -48 + ^
STACK CFI 598bc .cfa: sp 48 +
STACK CFI 598c8 .cfa: sp 0 +
STACK CFI INIT 598cc 1c .cfa: sp 0 +
STACK CFI INIT 598e8 c .cfa: sp 0 +
STACK CFI INIT 598f4 4 .cfa: sp 0 +
STACK CFI INIT 598f8 34 .cfa: sp 0 +
STACK CFI 598fc .cfa: sp 32 +
STACK CFI 59904 .cfa: x29 32 + x19: .cfa -16 + ^ .ra: .cfa -24 + ^ x29: .cfa -32 + ^
STACK CFI 59920 .cfa: sp 32 +
STACK CFI 59928 .cfa: sp 0 +
STACK CFI INIT 5992c 14 .cfa: sp 0 +
STACK CFI INIT 59940 4 .cfa: sp 0 +
STACK CFI INIT 59944 4 .cfa: sp 0 +
STACK CFI INIT 59948 60 .cfa: sp 0 +
STACK CFI 5994c .cfa: sp 48 +
STACK CFI 59958 .cfa: x29 48 + x19: .cfa -8 + ^ x20: .cfa -16 + ^ x21: .cfa -32 + ^ .ra: .cfa -40 + ^ x29: .cfa -48 + ^
STACK CFI 59998 .cfa: sp 48 +
STACK CFI 599a4 .cfa: sp 0 +
STACK CFI INIT 599a8 1c .cfa: sp 0 +
STACK CFI INIT 599c4 c .cfa: sp 0 +
STACK CFI INIT 599d0 4 .cfa: sp 0 +
STACK CFI INIT 599d4 34 .cfa: sp 0 +
STACK CFI 599d8 .cfa: sp 32 +
STACK CFI 599e0 .cfa: x29 32 + x19: .cfa -16 + ^ .ra: .cfa -24 + ^ x29: .cfa -32 + ^
STACK CFI 599fc .cfa: sp 32 +
STACK CFI 59a04 .cfa: sp 0 +
STACK CFI INIT 59a08 14 .cfa: sp 0 +
STACK CFI INIT 59a1c 4 .cfa: sp 0 +
STACK CFI INIT 59a20 4 .cfa: sp 0 +
STACK CFI INIT 59a24 5c .cfa: sp 0 +
STACK CFI 59a28 .cfa: sp 48 +
STACK CFI 59a34 .cfa: x29 48 + x19: .cfa -8 + ^ x20: .cfa -16 + ^ x21: .cfa -32 + ^ .ra: .cfa -40 + ^ x29: .cfa -48 + ^
STACK CFI 59a70 .cfa: sp 48 +
STACK CFI 59a7c .cfa: sp 0 +
STACK CFI INIT 59a80 1c .cfa: sp 0 +
STACK CFI INIT 59a9c c .cfa: sp 0 +
STACK CFI INIT 59aa8 4 .cfa: sp 0 +
STACK CFI INIT 59aac 34 .cfa: sp 0 +
STACK CFI 59ab0 .cfa: sp 32 +
STACK CFI 59ab8 .cfa: x29 32 + x19: .cfa -16 + ^ .ra: .cfa -24 + ^ x29: .cfa -32 + ^
STACK CFI 59ad4 .cfa: sp 32 +
STACK CFI 59adc .cfa: sp 0 +
STACK CFI INIT 59ae0 14 .cfa: sp 0 +
STACK CFI INIT 59af4 4 .cfa: sp 0 +
STACK CFI INIT 59af8 4 .cfa: sp 0 +
STACK CFI INIT 59afc 5c .cfa: sp 0 +
STACK CFI 59b00 .cfa: sp 48 +
STACK CFI 59b0c .cfa: x29 48 + x19: .cfa -8 + ^ x20: .cfa -16 + ^ x21: .cfa -32 + ^ .ra: .cfa -40 + ^ x29: .cfa -48 + ^
STACK CFI 59b48 .cfa: sp 48 +
STACK CFI 59b54 .cfa: sp 0 +
STACK CFI INIT 59b58 1c .cfa: sp 0 +
STACK CFI INIT 59b74 c .cfa: sp 0 +
STACK CFI INIT 59b80 4 .cfa: sp 0 +
STACK CFI INIT 59b84 34 .cfa: sp 0 +
STACK CFI 59b88 .cfa: sp 32 +
STACK CFI 59b90 .cfa: x29 32 + x19: .cfa -16 + ^ .ra: .cfa -24 + ^ x29: .cfa -32 + ^
STACK CFI 59bac .cfa: sp 32 +
STACK CFI 59bb4 .cfa: sp 0 +
STACK CFI INIT 59bb8 14 .cfa: sp 0 +
STACK CFI INIT 59bcc 4 .cfa: sp 0 +
STACK CFI INIT 59bd0 4 .cfa: sp 0 +
STACK CFI INIT 59bd4 5c .cfa: sp 0 +
STACK CFI 59bd8 .cfa: sp 48 +
STACK CFI 59be4 .cfa: x29 48 + x19: .cfa -8 + ^ x20: .cfa -16 + ^ x21: .cfa -32 + ^ .ra: .cfa -40 + ^ x29: .cfa -48 + ^
STACK CFI 59c20 .cfa: sp 48 +
STACK CFI 59c2c .cfa: sp 0 +
STACK CFI INIT 59c30 1c .cfa: sp 0 +
STACK CFI INIT 59c4c c .cfa: sp 0 +
STACK CFI INIT 59c58 4 .cfa: sp 0 +
STACK CFI INIT 59c5c 34 .cfa: sp 0 +
STACK CFI 59c60 .cfa: sp 32 +
STACK CFI 59c68 .cfa: x29 32 + x19: .cfa -16 + ^ .ra: .cfa -24 + ^ x29: .cfa -32 + ^
STACK CFI 59c84 .cfa: sp 32 +
STACK CFI 59c8c .cfa: sp 0 +
STACK CFI INIT 59c90 14 .cfa: sp 0 +
STACK CFI INIT 59ca4 4 .cfa: sp 0 +
STACK CFI INIT 59ca8 4 .cfa: sp 0 +
STACK CFI INIT 59cac 5c .cfa: sp 0 +
STACK CFI 59cb0 .cfa: sp 48 +
STACK CFI 59cbc .cfa: x29 48 + x19: .cfa -8 + ^ x20: .cfa -16 + ^ x21: .cfa -32 + ^ .ra: .cfa -40 + ^ x29: .cfa -48 + ^
STACK CFI 59cf8 .cfa: sp 48 +
STACK CFI 59d04 .cfa: sp 0 +
STACK CFI INIT 59d08 1c .cfa: sp 0 +
STACK CFI INIT 59d24 c .cfa: sp 0 +
STACK CFI INIT 59d30 4 .cfa: sp 0 +
STACK CFI INIT 59d34 34 .cfa: sp 0 +
STACK CFI 59d38 .cfa: sp 32 +
STACK CFI 59d40 .cfa: x29 32 + x19: .cfa -16 + ^ .ra: .cfa -24 + ^ x29: .cfa -32 + ^
STACK CFI 59d5c .cfa: sp 32 +
STACK CFI 59d64 .cfa: sp 0 +
STACK CFI INIT 59d68 14 .cfa: sp 0 +
STACK CFI INIT 59d7c 4 .cfa: sp 0 +
STACK CFI INIT 59d80 4 .cfa: sp 0 +
STACK CFI INIT 59d84 58 .cfa: sp 0 +
STACK CFI 59d88 .cfa: sp 48 +
STACK CFI 59d94 .cfa: x29 48 + x19: .cfa -8 + ^ x20: .cfa -16 + ^ x21: .cfa -32 + ^ .ra: .cfa -40 + ^ x29: .cfa -48 + ^
STACK CFI 59dcc .cfa: sp 48 +
STACK CFI 59dd8 .cfa: sp 0 +
STACK CFI INIT 59ddc 1c .cfa: sp 0 +
STACK CFI INIT 59df8 c .cfa: sp 0 +
STACK CFI INIT 59e04 4 .cfa: sp 0 +
STACK CFI INIT 59e08 34 .cfa: sp 0 +
STACK CFI 59e0c .cfa: sp 32 +
STACK CFI 59e14 .cfa: x29 32 + x19: .cfa -16 + ^ .ra: .cfa -24 + ^ x29: .cfa -32 + ^
STACK CFI 59e30 .cfa: sp 32 +
STACK CFI 59e38 .cfa: sp 0 +
STACK CFI INIT 59e3c 14 .cfa: sp 0 +
STACK CFI INIT 59e50 4 .cfa: sp 0 +
STACK CFI INIT 59e54 4 .cfa: sp 0 +
STACK CFI INIT 59e58 5c .cfa: sp 0 +
STACK CFI 59e5c .cfa: sp 48 +
STACK CFI 59e68 .cfa: x29 48 + x19: .cfa -8 + ^ x20: .cfa -16 + ^ x21: .cfa -32 + ^ .ra: .cfa -40 + ^ x29: .cfa -48 + ^
STACK CFI 59ea4 .cfa: sp 48 +
STACK CFI 59eb0 .cfa: sp 0 +
STACK CFI INIT 59eb4 1c .cfa: sp 0 +
STACK CFI INIT 59ed0 c .cfa: sp 0 +
STACK CFI INIT 59edc 4 .cfa: sp 0 +
STACK CFI INIT 59ee0 34 .cfa: sp 0 +
STACK CFI 59ee4 .cfa: sp 32 +
STACK CFI 59eec .cfa: x29 32 + x19: .cfa -16 + ^ .ra: .cfa -24 + ^ x29: .cfa -32 + ^
STACK CFI 59f08 .cfa: sp 32 +
STACK CFI 59f10 .cfa: sp 0 +
STACK CFI INIT 59f14 14 .cfa: sp 0 +
STACK CFI INIT 59f28 4 .cfa: sp 0 +
STACK CFI INIT 59f2c 4 .cfa: sp 0 +
STACK CFI INIT 59f30 58 .cfa: sp 0 +
STACK CFI 59f34 .cfa: sp 48 +
STACK CFI 59f40 .cfa: x29 48 + x19: .cfa -8 + ^ x20: .cfa -16 + ^ x21: .cfa -32 + ^ .ra: .cfa -40 + ^ x29: .cfa -48 + ^
STACK CFI 59f78 .cfa: sp 48 +
STACK CFI 59f84 .cfa: sp 0 +
STACK CFI INIT 59f88 1c .cfa: sp 0 +
STACK CFI INIT 59fa4 c .cfa: sp 0 +
STACK CFI INIT 59fb0 4 .cfa: sp 0 +
STACK CFI INIT 59fb4 34 .cfa: sp 0 +
STACK CFI 59fb8 .cfa: sp 32 +
STACK CFI 59fc0 .cfa: x29 32 + x19: .cfa -16 + ^ .ra: .cfa -24 + ^ x29: .cfa -32 + ^
STACK CFI 59fdc .cfa: sp 32 +
STACK CFI 59fe4 .cfa: sp 0 +
STACK CFI INIT 59fe8 14 .cfa: sp 0 +
STACK CFI INIT 59ffc 4 .cfa: sp 0 +
STACK CFI INIT 5a000 4 .cfa: sp 0 +
STACK CFI INIT 5a004 58 .cfa: sp 0 +
STACK CFI 5a008 .cfa: sp 48 +
STACK CFI 5a014 .cfa: x29 48 + x19: .cfa -8 + ^ x20: .cfa -16 + ^ x21: .cfa -32 + ^ .ra: .cfa -40 + ^ x29: .cfa -48 + ^
STACK CFI 5a04c .cfa: sp 48 +
STACK CFI 5a058 .cfa: sp 0 +
STACK CFI INIT 5a05c 1c .cfa: sp 0 +
STACK CFI INIT 5a078 c .cfa: sp 0 +
STACK CFI INIT 5a084 4 .cfa: sp 0 +
STACK CFI INIT 5a088 34 .cfa: sp 0 +
STACK CFI 5a08c .cfa: sp 32 +
STACK CFI 5a094 .cfa: x29 32 + x19: .cfa -16 + ^ .ra: .cfa -24 + ^ x29: .cfa -32 + ^
STACK CFI 5a0b0 .cfa: sp 32 +
STACK CFI 5a0b8 .cfa: sp 0 +
STACK CFI INIT 5a0bc 14 .cfa: sp 0 +
STACK CFI INIT 5a0d0 4 .cfa: sp 0 +
STACK CFI INIT 5a0d4 4 .cfa: sp 0 +
STACK CFI INIT 5a0d8 58 .cfa: sp 0 +
STACK CFI 5a0dc .cfa: sp 48 +
STACK CFI 5a0e8 .cfa: x29 48 + x19: .cfa -8 + ^ x20: .cfa -16 + ^ x21: .cfa -32 + ^ .ra: .cfa -40 + ^ x29: .cfa -48 + ^
STACK CFI 5a120 .cfa: sp 48 +
STACK CFI 5a12c .cfa: sp 0 +
STACK CFI INIT 5a130 1c .cfa: sp 0 +
STACK CFI INIT 5a14c c .cfa: sp 0 +
STACK CFI INIT 5a158 4 .cfa: sp 0 +
STACK CFI INIT 5a15c 34 .cfa: sp 0 +
STACK CFI 5a160 .cfa: sp 32 +
STACK CFI 5a168 .cfa: x29 32 + x19: .cfa -16 + ^ .ra: .cfa -24 + ^ x29: .cfa -32 + ^
STACK CFI 5a184 .cfa: sp 32 +
STACK CFI 5a18c .cfa: sp 0 +
STACK CFI INIT 5a190 14 .cfa: sp 0 +
STACK CFI INIT 5a1a4 4 .cfa: sp 0 +
STACK CFI INIT 5a1a8 4 .cfa: sp 0 +
STACK CFI INIT 5a1ac 58 .cfa: sp 0 +
STACK CFI 5a1b0 .cfa: sp 48 +
STACK CFI 5a1bc .cfa: x29 48 + x19: .cfa -8 + ^ x20: .cfa -16 + ^ x21: .cfa -32 + ^ .ra: .cfa -40 + ^ x29: .cfa -48 + ^
STACK CFI 5a1f4 .cfa: sp 48 +
STACK CFI 5a200 .cfa: sp 0 +
STACK CFI INIT 5a204 1c .cfa: sp 0 +
STACK CFI INIT 5a220 c .cfa: sp 0 +
STACK CFI INIT 5a22c 4 .cfa: sp 0 +
STACK CFI INIT 5a230 34 .cfa: sp 0 +
STACK CFI 5a234 .cfa: sp 32 +
STACK CFI 5a23c .cfa: x29 32 + x19: .cfa -16 + ^ .ra: .cfa -24 + ^ x29: .cfa -32 + ^
STACK CFI 5a258 .cfa: sp 32 +
STACK CFI 5a260 .cfa: sp 0 +
STACK CFI INIT 5a264 14 .cfa: sp 0 +
STACK CFI INIT 5a278 4 .cfa: sp 0 +
STACK CFI INIT 5a27c 4 .cfa: sp 0 +
STACK CFI INIT 5a280 c .cfa: sp 0 +
STACK CFI INIT 5a28c 1c .cfa: sp 0 +
STACK CFI INIT 5a2a8 c .cfa: sp 0 +
STACK CFI INIT 5a2b4 4 .cfa: sp 0 +
STACK CFI INIT 5a2b8 34 .cfa: sp 0 +
STACK CFI 5a2bc .cfa: sp 32 +
STACK CFI 5a2c4 .cfa: x29 32 + x19: .cfa -16 + ^ .ra: .cfa -24 + ^ x29: .cfa -32 + ^
STACK CFI 5a2e0 .cfa: sp 32 +
STACK CFI 5a2e8 .cfa: sp 0 +
STACK CFI INIT 5a2ec 14 .cfa: sp 0 +
STACK CFI INIT 5a300 4 .cfa: sp 0 +
STACK CFI INIT 5a304 4 .cfa: sp 0 +
STACK CFI INIT 5a308 4c .cfa: sp 0 +
STACK CFI 5a30c .cfa: sp 32 +
STACK CFI 5a314 .cfa: x29 32 + x19: .cfa -16 + ^ .ra: .cfa -24 + ^ x29: .cfa -32 + ^
STACK CFI 5a32c .cfa: sp 32 +
STACK CFI 5a334 .cfa: sp 0 +
STACK CFI 5a338 .cfa: x29 32 +
STACK CFI 5a348 .cfa: sp 32 +
STACK CFI 5a350 .cfa: sp 0 +
STACK CFI INIT 5a354 1c .cfa: sp 0 +
STACK CFI INIT 5a370 c .cfa: sp 0 +
STACK CFI INIT 5a37c 4 .cfa: sp 0 +
STACK CFI INIT 5a380 34 .cfa: sp 0 +
STACK CFI 5a384 .cfa: sp 32 +
STACK CFI 5a38c .cfa: x29 32 + x19: .cfa -16 + ^ .ra: .cfa -24 + ^ x29: .cfa -32 + ^
STACK CFI 5a3a8 .cfa: sp 32 +
STACK CFI 5a3b0 .cfa: sp 0 +
STACK CFI INIT 5a3b4 14 .cfa: sp 0 +
STACK CFI INIT 5a3c8 4 .cfa: sp 0 +
STACK CFI INIT 5a3cc 4 .cfa: sp 0 +
STACK CFI INIT 5a3d0 3c .cfa: sp 0 +
STACK CFI 5a3d4 .cfa: sp 32 +
STACK CFI 5a3dc .cfa: x29 32 + x19: .cfa -8 + ^ x20: .cfa -16 + ^ .ra: .cfa -24 + ^ x29: .cfa -32 + ^
STACK CFI 5a400 .cfa: sp 32 +
STACK CFI 5a408 .cfa: sp 0 +
STACK CFI INIT 5a40c 1c .cfa: sp 0 +
STACK CFI INIT 5a428 c .cfa: sp 0 +
STACK CFI INIT 5a434 4 .cfa: sp 0 +
STACK CFI INIT 5a438 34 .cfa: sp 0 +
STACK CFI 5a43c .cfa: sp 32 +
STACK CFI 5a444 .cfa: x29 32 + x19: .cfa -16 + ^ .ra: .cfa -24 + ^ x29: .cfa -32 + ^
STACK CFI 5a460 .cfa: sp 32 +
STACK CFI 5a468 .cfa: sp 0 +
STACK CFI INIT 5a46c 14 .cfa: sp 0 +
STACK CFI INIT 5a480 4 .cfa: sp 0 +
STACK CFI INIT 5a484 4 .cfa: sp 0 +
STACK CFI INIT 5a488 58 .cfa: sp 0 +
STACK CFI 5a48c .cfa: sp 48 +
STACK CFI 5a498 .cfa: x29 48 + x19: .cfa -8 + ^ x20: .cfa -16 + ^ x21: .cfa -32 + ^ .ra: .cfa -40 + ^ x29: .cfa -48 + ^
STACK CFI 5a4d0 .cfa: sp 48 +
STACK CFI 5a4dc .cfa: sp 0 +
STACK CFI INIT 5a4e0 1c .cfa: sp 0 +
STACK CFI INIT 5a4fc c .cfa: sp 0 +
STACK CFI INIT 5a508 4 .cfa: sp 0 +
STACK CFI INIT 5a50c 34 .cfa: sp 0 +
STACK CFI 5a510 .cfa: sp 32 +
STACK CFI 5a518 .cfa: x29 32 + x19: .cfa -16 + ^ .ra: .cfa -24 + ^ x29: .cfa -32 + ^
STACK CFI 5a534 .cfa: sp 32 +
STACK CFI 5a53c .cfa: sp 0 +
STACK CFI INIT 5a540 14 .cfa: sp 0 +
STACK CFI INIT 5a554 4 .cfa: sp 0 +
STACK CFI INIT 5a558 4 .cfa: sp 0 +
STACK CFI INIT 5a55c 58 .cfa: sp 0 +
STACK CFI 5a560 .cfa: sp 48 +
STACK CFI 5a56c .cfa: x29 48 + x19: .cfa -8 + ^ x20: .cfa -16 + ^ x21: .cfa -32 + ^ .ra: .cfa -40 + ^ x29: .cfa -48 + ^
STACK CFI 5a5a4 .cfa: sp 48 +
STACK CFI 5a5b0 .cfa: sp 0 +
STACK CFI INIT 5a5b4 1c .cfa: sp 0 +
STACK CFI INIT 5a5d0 c .cfa: sp 0 +
STACK CFI INIT 5a5dc 4 .cfa: sp 0 +
STACK CFI INIT 5a5e0 34 .cfa: sp 0 +
STACK CFI 5a5e4 .cfa: sp 32 +
STACK CFI 5a5ec .cfa: x29 32 + x19: .cfa -16 + ^ .ra: .cfa -24 + ^ x29: .cfa -32 + ^
STACK CFI 5a608 .cfa: sp 32 +
STACK CFI 5a610 .cfa: sp 0 +
STACK CFI INIT 5a614 14 .cfa: sp 0 +
STACK CFI INIT 5a628 4 .cfa: sp 0 +
STACK CFI INIT 5a62c 4 .cfa: sp 0 +
STACK CFI INIT 5a630 58 .cfa: sp 0 +
STACK CFI 5a634 .cfa: sp 48 +
STACK CFI 5a640 .cfa: x29 32 + x19: .cfa -16 + ^ .ra: .cfa -24 + ^ x29: .cfa -32 + ^
STACK CFI 5a674 .cfa: sp 48 +
STACK CFI 5a680 .cfa: sp 0 +
STACK CFI 5a684 .cfa: x29 32 +
STACK CFI INIT 5a688 1c .cfa: sp 0 +
STACK CFI INIT 5a6a4 c .cfa: sp 0 +
STACK CFI INIT 5a6b0 4 .cfa: sp 0 +
STACK CFI INIT 5a6b4 34 .cfa: sp 0 +
STACK CFI 5a6b8 .cfa: sp 32 +
STACK CFI 5a6c0 .cfa: x29 32 + x19: .cfa -16 + ^ .ra: .cfa -24 + ^ x29: .cfa -32 + ^
STACK CFI 5a6dc .cfa: sp 32 +
STACK CFI 5a6e4 .cfa: sp 0 +
STACK CFI INIT 5a6e8 14 .cfa: sp 0 +
STACK CFI INIT 5a6fc 4 .cfa: sp 0 +
STACK CFI INIT 5a700 4 .cfa: sp 0 +
STACK CFI INIT 5a704 58 .cfa: sp 0 +
STACK CFI 5a708 .cfa: sp 48 +
STACK CFI 5a714 .cfa: x29 32 + x19: .cfa -16 + ^ .ra: .cfa -24 + ^ x29: .cfa -32 + ^
STACK CFI 5a748 .cfa: sp 48 +
STACK CFI 5a754 .cfa: sp 0 +
STACK CFI 5a758 .cfa: x29 32 +
STACK CFI INIT 5a75c 1c .cfa: sp 0 +
STACK CFI INIT 5a778 c .cfa: sp 0 +
STACK CFI INIT 5a784 4 .cfa: sp 0 +
STACK CFI INIT 5a788 34 .cfa: sp 0 +
STACK CFI 5a78c .cfa: sp 32 +
STACK CFI 5a794 .cfa: x29 32 + x19: .cfa -16 + ^ .ra: .cfa -24 + ^ x29: .cfa -32 + ^
STACK CFI 5a7b0 .cfa: sp 32 +
STACK CFI 5a7b8 .cfa: sp 0 +
STACK CFI INIT 5a7bc 14 .cfa: sp 0 +
STACK CFI INIT 5a7d0 4 .cfa: sp 0 +
STACK CFI INIT 5a7d4 4 .cfa: sp 0 +
STACK CFI INIT 5a7d8 c .cfa: sp 0 +
STACK CFI INIT 5a7e4 1c .cfa: sp 0 +
STACK CFI INIT 5a800 c .cfa: sp 0 +
STACK CFI INIT 5a80c 4 .cfa: sp 0 +
STACK CFI INIT 5a810 34 .cfa: sp 0 +
STACK CFI 5a814 .cfa: sp 32 +
STACK CFI 5a81c .cfa: x29 32 + x19: .cfa -16 + ^ .ra: .cfa -24 + ^ x29: .cfa -32 + ^
STACK CFI 5a838 .cfa: sp 32 +
STACK CFI 5a840 .cfa: sp 0 +
STACK CFI INIT 5a844 14 .cfa: sp 0 +
STACK CFI INIT 5a858 4 .cfa: sp 0 +
STACK CFI INIT 5a85c 4 .cfa: sp 0 +
STACK CFI INIT 5a860 c .cfa: sp 0 +
STACK CFI INIT 5a86c 1c .cfa: sp 0 +
STACK CFI INIT 5a888 c .cfa: sp 0 +
STACK CFI INIT 5a894 4 .cfa: sp 0 +
STACK CFI INIT 5a898 34 .cfa: sp 0 +
STACK CFI 5a89c .cfa: sp 32 +
STACK CFI 5a8a4 .cfa: x29 32 + x19: .cfa -16 + ^ .ra: .cfa -24 + ^ x29: .cfa -32 + ^
STACK CFI 5a8c0 .cfa: sp 32 +
STACK CFI 5a8c8 .cfa: sp 0 +
STACK CFI INIT 5a8cc 14 .cfa: sp 0 +
STACK CFI INIT 5a8e0 4 .cfa: sp 0 +
STACK CFI INIT 5a8e4 4 .cfa: sp 0 +
STACK CFI INIT 5a8e8 58 .cfa: sp 0 +
STACK CFI 5a8ec .cfa: sp 48 +
STACK CFI 5a8f8 .cfa: x29 48 + x19: .cfa -8 + ^ x20: .cfa -16 + ^ x21: .cfa -32 + ^ .ra: .cfa -40 + ^ x29: .cfa -48 + ^
STACK CFI 5a930 .cfa: sp 48 +
STACK CFI 5a93c .cfa: sp 0 +
STACK CFI INIT 5a940 1c .cfa: sp 0 +
STACK CFI INIT 5a95c c .cfa: sp 0 +
STACK CFI INIT 5a968 4 .cfa: sp 0 +
STACK CFI INIT 5a96c 34 .cfa: sp 0 +
STACK CFI 5a970 .cfa: sp 32 +
STACK CFI 5a978 .cfa: x29 32 + x19: .cfa -16 + ^ .ra: .cfa -24 + ^ x29: .cfa -32 + ^
STACK CFI 5a994 .cfa: sp 32 +
STACK CFI 5a99c .cfa: sp 0 +
STACK CFI INIT 5a9a0 14 .cfa: sp 0 +
STACK CFI INIT 5a9b4 4 .cfa: sp 0 +
STACK CFI INIT 5a9b8 4 .cfa: sp 0 +
STACK CFI INIT 5a9bc 58 .cfa: sp 0 +
STACK CFI 5a9c0 .cfa: sp 48 +
STACK CFI 5a9cc .cfa: x29 48 + x19: .cfa -8 + ^ x20: .cfa -16 + ^ x21: .cfa -32 + ^ .ra: .cfa -40 + ^ x29: .cfa -48 + ^
STACK CFI 5aa04 .cfa: sp 48 +
STACK CFI 5aa10 .cfa: sp 0 +
STACK CFI INIT 5aa14 1c .cfa: sp 0 +
STACK CFI INIT 5aa30 c .cfa: sp 0 +
STACK CFI INIT 5aa3c 4 .cfa: sp 0 +
STACK CFI INIT 5aa40 34 .cfa: sp 0 +
STACK CFI 5aa44 .cfa: sp 32 +
STACK CFI 5aa4c .cfa: x29 32 + x19: .cfa -16 + ^ .ra: .cfa -24 + ^ x29: .cfa -32 + ^
STACK CFI 5aa68 .cfa: sp 32 +
STACK CFI 5aa70 .cfa: sp 0 +
STACK CFI INIT 5aa74 14 .cfa: sp 0 +
STACK CFI INIT 5aa88 4 .cfa: sp 0 +
STACK CFI INIT 5aa8c 4 .cfa: sp 0 +
STACK CFI INIT 5aa90 58 .cfa: sp 0 +
STACK CFI 5aa94 .cfa: sp 48 +
STACK CFI 5aaa0 .cfa: x29 48 + x19: .cfa -8 + ^ x20: .cfa -16 + ^ x21: .cfa -32 + ^ .ra: .cfa -40 + ^ x29: .cfa -48 + ^
STACK CFI 5aad8 .cfa: sp 48 +
STACK CFI 5aae4 .cfa: sp 0 +
STACK CFI INIT 5aae8 1c .cfa: sp 0 +
STACK CFI INIT 5ab04 c .cfa: sp 0 +
STACK CFI INIT 5ab10 4 .cfa: sp 0 +
STACK CFI INIT 5ab14 34 .cfa: sp 0 +
STACK CFI 5ab18 .cfa: sp 32 +
STACK CFI 5ab20 .cfa: x29 32 + x19: .cfa -16 + ^ .ra: .cfa -24 + ^ x29: .cfa -32 + ^
STACK CFI 5ab3c .cfa: sp 32 +
STACK CFI 5ab44 .cfa: sp 0 +
STACK CFI INIT 5ab48 14 .cfa: sp 0 +
STACK CFI INIT 5ab5c 4 .cfa: sp 0 +
STACK CFI INIT 5ab60 4 .cfa: sp 0 +
STACK CFI INIT 5ab64 58 .cfa: sp 0 +
STACK CFI 5ab68 .cfa: sp 48 +
STACK CFI 5ab74 .cfa: x29 48 + x19: .cfa -8 + ^ x20: .cfa -16 + ^ x21: .cfa -32 + ^ .ra: .cfa -40 + ^ x29: .cfa -48 + ^
STACK CFI 5abac .cfa: sp 48 +
STACK CFI 5abb8 .cfa: sp 0 +
STACK CFI INIT 5abbc 1c .cfa: sp 0 +
STACK CFI INIT 5abd8 c .cfa: sp 0 +
STACK CFI INIT 5abe4 4 .cfa: sp 0 +
STACK CFI INIT 5abe8 34 .cfa: sp 0 +
STACK CFI 5abec .cfa: sp 32 +
STACK CFI 5abf4 .cfa: x29 32 + x19: .cfa -16 + ^ .ra: .cfa -24 + ^ x29: .cfa -32 + ^
STACK CFI 5ac10 .cfa: sp 32 +
STACK CFI 5ac18 .cfa: sp 0 +
STACK CFI INIT 5ac1c 14 .cfa: sp 0 +
STACK CFI INIT 5ac30 4 .cfa: sp 0 +
STACK CFI INIT 5ac34 4 .cfa: sp 0 +
STACK CFI INIT 5ac38 5c .cfa: sp 0 +
STACK CFI 5ac3c .cfa: sp 48 +
STACK CFI 5ac48 .cfa: x29 48 + x19: .cfa -8 + ^ x20: .cfa -16 + ^ x21: .cfa -32 + ^ .ra: .cfa -40 + ^ x29: .cfa -48 + ^
STACK CFI 5ac84 .cfa: sp 48 +
STACK CFI 5ac90 .cfa: sp 0 +
STACK CFI INIT 5ac94 1c .cfa: sp 0 +
STACK CFI INIT 5acb0 c .cfa: sp 0 +
STACK CFI INIT 5acbc 4 .cfa: sp 0 +
STACK CFI INIT 5acc0 34 .cfa: sp 0 +
STACK CFI 5acc4 .cfa: sp 32 +
STACK CFI 5accc .cfa: x29 32 + x19: .cfa -16 + ^ .ra: .cfa -24 + ^ x29: .cfa -32 + ^
STACK CFI 5ace8 .cfa: sp 32 +
STACK CFI 5acf0 .cfa: sp 0 +
STACK CFI INIT 5acf4 14 .cfa: sp 0 +
STACK CFI INIT 5ad08 4 .cfa: sp 0 +
STACK CFI INIT 5ad0c 4 .cfa: sp 0 +
STACK CFI INIT 5ad10 5c .cfa: sp 0 +
STACK CFI 5ad14 .cfa: sp 48 +
STACK CFI 5ad20 .cfa: x29 48 + x19: .cfa -8 + ^ x20: .cfa -16 + ^ x21: .cfa -32 + ^ .ra: .cfa -40 + ^ x29: .cfa -48 + ^
STACK CFI 5ad5c .cfa: sp 48 +
STACK CFI 5ad68 .cfa: sp 0 +
STACK CFI INIT 5ad6c 1c .cfa: sp 0 +
STACK CFI INIT 5ad88 c .cfa: sp 0 +
STACK CFI INIT 5ad94 4 .cfa: sp 0 +
STACK CFI INIT 5ad98 34 .cfa: sp 0 +
STACK CFI 5ad9c .cfa: sp 32 +
STACK CFI 5ada4 .cfa: x29 32 + x19: .cfa -16 + ^ .ra: .cfa -24 + ^ x29: .cfa -32 + ^
STACK CFI 5adc0 .cfa: sp 32 +
STACK CFI 5adc8 .cfa: sp 0 +
STACK CFI INIT 5adcc 14 .cfa: sp 0 +
STACK CFI INIT 5ade0 4 .cfa: sp 0 +
STACK CFI INIT 5ade4 4 .cfa: sp 0 +
STACK CFI INIT 5ade8 5c .cfa: sp 0 +
STACK CFI 5adec .cfa: sp 48 +
STACK CFI 5adf8 .cfa: x29 48 + x19: .cfa -8 + ^ x20: .cfa -16 + ^ x21: .cfa -32 + ^ .ra: .cfa -40 + ^ x29: .cfa -48 + ^
STACK CFI 5ae34 .cfa: sp 48 +
STACK CFI 5ae40 .cfa: sp 0 +
STACK CFI INIT 5ae44 1c .cfa: sp 0 +
STACK CFI INIT 5ae60 c .cfa: sp 0 +
STACK CFI INIT 5ae6c 4 .cfa: sp 0 +
STACK CFI INIT 5ae70 34 .cfa: sp 0 +
STACK CFI 5ae74 .cfa: sp 32 +
STACK CFI 5ae7c .cfa: x29 32 + x19: .cfa -16 + ^ .ra: .cfa -24 + ^ x29: .cfa -32 + ^
STACK CFI 5ae98 .cfa: sp 32 +
STACK CFI 5aea0 .cfa: sp 0 +
STACK CFI INIT 5aea4 14 .cfa: sp 0 +
STACK CFI INIT 5aeb8 4 .cfa: sp 0 +
STACK CFI INIT 5aebc 4 .cfa: sp 0 +
STACK CFI INIT 5aec0 5c .cfa: sp 0 +
STACK CFI 5aec4 .cfa: sp 48 +
STACK CFI 5aed0 .cfa: x29 48 + x19: .cfa -8 + ^ x20: .cfa -16 + ^ x21: .cfa -32 + ^ .ra: .cfa -40 + ^ x29: .cfa -48 + ^
STACK CFI 5af0c .cfa: sp 48 +
STACK CFI 5af18 .cfa: sp 0 +
STACK CFI INIT 5af1c 1c .cfa: sp 0 +
STACK CFI INIT 5af38 c .cfa: sp 0 +
STACK CFI INIT 5af44 4 .cfa: sp 0 +
STACK CFI INIT 5af48 34 .cfa: sp 0 +
STACK CFI 5af4c .cfa: sp 32 +
STACK CFI 5af54 .cfa: x29 32 + x19: .cfa -16 + ^ .ra: .cfa -24 + ^ x29: .cfa -32 + ^
STACK CFI 5af70 .cfa: sp 32 +
STACK CFI 5af78 .cfa: sp 0 +
STACK CFI INIT 5af7c 14 .cfa: sp 0 +
STACK CFI INIT 5af90 4 .cfa: sp 0 +
STACK CFI INIT 5af94 4 .cfa: sp 0 +
STACK CFI INIT 5af98 58 .cfa: sp 0 +
STACK CFI 5af9c .cfa: sp 48 +
STACK CFI 5afa8 .cfa: x29 48 + x19: .cfa -8 + ^ x20: .cfa -16 + ^ x21: .cfa -32 + ^ .ra: .cfa -40 + ^ x29: .cfa -48 + ^
STACK CFI 5afe0 .cfa: sp 48 +
STACK CFI 5afec .cfa: sp 0 +
STACK CFI INIT 5aff0 1c .cfa: sp 0 +
STACK CFI INIT 5b00c c .cfa: sp 0 +
STACK CFI INIT 5b018 4 .cfa: sp 0 +
STACK CFI INIT 5b01c 34 .cfa: sp 0 +
STACK CFI 5b020 .cfa: sp 32 +
STACK CFI 5b028 .cfa: x29 32 + x19: .cfa -16 + ^ .ra: .cfa -24 + ^ x29: .cfa -32 + ^
STACK CFI 5b044 .cfa: sp 32 +
STACK CFI 5b04c .cfa: sp 0 +
STACK CFI INIT 5b050 14 .cfa: sp 0 +
STACK CFI INIT 5b064 4 .cfa: sp 0 +
STACK CFI INIT 5b068 4 .cfa: sp 0 +
STACK CFI INIT 5b06c 58 .cfa: sp 0 +
STACK CFI 5b070 .cfa: sp 48 +
STACK CFI 5b07c .cfa: x29 48 + x19: .cfa -8 + ^ x20: .cfa -16 + ^ x21: .cfa -32 + ^ .ra: .cfa -40 + ^ x29: .cfa -48 + ^
STACK CFI 5b0b4 .cfa: sp 48 +
STACK CFI 5b0c0 .cfa: sp 0 +
STACK CFI INIT 5b0c4 1c .cfa: sp 0 +
STACK CFI INIT 5b0e0 c .cfa: sp 0 +
STACK CFI INIT 5b0ec 4 .cfa: sp 0 +
STACK CFI INIT 5b0f0 34 .cfa: sp 0 +
STACK CFI 5b0f4 .cfa: sp 32 +
STACK CFI 5b0fc .cfa: x29 32 + x19: .cfa -16 + ^ .ra: .cfa -24 + ^ x29: .cfa -32 + ^
STACK CFI 5b118 .cfa: sp 32 +
STACK CFI 5b120 .cfa: sp 0 +
STACK CFI INIT 5b124 14 .cfa: sp 0 +
STACK CFI INIT 5b138 4 .cfa: sp 0 +
STACK CFI INIT 5b13c 4 .cfa: sp 0 +
STACK CFI INIT 5b140 58 .cfa: sp 0 +
STACK CFI 5b144 .cfa: sp 48 +
STACK CFI 5b150 .cfa: x29 48 + x19: .cfa -8 + ^ x20: .cfa -16 + ^ x21: .cfa -32 + ^ .ra: .cfa -40 + ^ x29: .cfa -48 + ^
STACK CFI 5b188 .cfa: sp 48 +
STACK CFI 5b194 .cfa: sp 0 +
STACK CFI INIT 5b198 1c .cfa: sp 0 +
STACK CFI INIT 5b1b4 c .cfa: sp 0 +
STACK CFI INIT 5b1c0 4 .cfa: sp 0 +
STACK CFI INIT 5b1c4 34 .cfa: sp 0 +
STACK CFI 5b1c8 .cfa: sp 32 +
STACK CFI 5b1d0 .cfa: x29 32 + x19: .cfa -16 + ^ .ra: .cfa -24 + ^ x29: .cfa -32 + ^
STACK CFI 5b1ec .cfa: sp 32 +
STACK CFI 5b1f4 .cfa: sp 0 +
STACK CFI INIT 5b1f8 14 .cfa: sp 0 +
STACK CFI INIT 5b20c 4 .cfa: sp 0 +
STACK CFI INIT 5b210 4 .cfa: sp 0 +
STACK CFI INIT 5b214 58 .cfa: sp 0 +
STACK CFI 5b218 .cfa: sp 48 +
STACK CFI 5b224 .cfa: x29 48 + x19: .cfa -8 + ^ x20: .cfa -16 + ^ x21: .cfa -32 + ^ .ra: .cfa -40 + ^ x29: .cfa -48 + ^
STACK CFI 5b25c .cfa: sp 48 +
STACK CFI 5b268 .cfa: sp 0 +
STACK CFI INIT 5b26c 1c .cfa: sp 0 +
STACK CFI INIT 5b288 c .cfa: sp 0 +
STACK CFI INIT 5b294 4 .cfa: sp 0 +
STACK CFI INIT 5b298 34 .cfa: sp 0 +
STACK CFI 5b29c .cfa: sp 32 +
STACK CFI 5b2a4 .cfa: x29 32 + x19: .cfa -16 + ^ .ra: .cfa -24 + ^ x29: .cfa -32 + ^
STACK CFI 5b2c0 .cfa: sp 32 +
STACK CFI 5b2c8 .cfa: sp 0 +
STACK CFI INIT 5b2cc 14 .cfa: sp 0 +
STACK CFI INIT 5b2e0 4 .cfa: sp 0 +
STACK CFI INIT 5b2e4 4 .cfa: sp 0 +
STACK CFI INIT 5b2e8 58 .cfa: sp 0 +
STACK CFI 5b2ec .cfa: sp 48 +
STACK CFI 5b2f8 .cfa: x29 48 + x19: .cfa -8 + ^ x20: .cfa -16 + ^ x21: .cfa -32 + ^ .ra: .cfa -40 + ^ x29: .cfa -48 + ^
STACK CFI 5b330 .cfa: sp 48 +
STACK CFI 5b33c .cfa: sp 0 +
STACK CFI INIT 5b340 1c .cfa: sp 0 +
STACK CFI INIT 5b35c c .cfa: sp 0 +
STACK CFI INIT 5b368 4 .cfa: sp 0 +
STACK CFI INIT 5b36c 34 .cfa: sp 0 +
STACK CFI 5b370 .cfa: sp 32 +
STACK CFI 5b378 .cfa: x29 32 + x19: .cfa -16 + ^ .ra: .cfa -24 + ^ x29: .cfa -32 + ^
STACK CFI 5b394 .cfa: sp 32 +
STACK CFI 5b39c .cfa: sp 0 +
STACK CFI INIT 5b3a0 14 .cfa: sp 0 +
STACK CFI INIT 5b3b4 4 .cfa: sp 0 +
STACK CFI INIT 5b3b8 4 .cfa: sp 0 +
STACK CFI INIT 5b3bc 58 .cfa: sp 0 +
STACK CFI 5b3c0 .cfa: sp 48 +
STACK CFI 5b3cc .cfa: x29 48 + x19: .cfa -8 + ^ x20: .cfa -16 + ^ x21: .cfa -32 + ^ .ra: .cfa -40 + ^ x29: .cfa -48 + ^
STACK CFI 5b404 .cfa: sp 48 +
STACK CFI 5b410 .cfa: sp 0 +
STACK CFI INIT 5b414 1c .cfa: sp 0 +
STACK CFI INIT 5b430 c .cfa: sp 0 +
STACK CFI INIT 5b43c 4 .cfa: sp 0 +
STACK CFI INIT 5b440 38 .cfa: sp 0 +
STACK CFI 5b444 .cfa: sp 32 +
STACK CFI 5b44c .cfa: x29 32 + x19: .cfa -16 + ^ .ra: .cfa -24 + ^ x29: .cfa -32 + ^
STACK CFI 5b46c .cfa: sp 32 +
STACK CFI 5b474 .cfa: sp 0 +
STACK CFI INIT 5b478 18 .cfa: sp 0 +
STACK CFI INIT 5b490 4 .cfa: sp 0 +
STACK CFI INIT 5b494 4 .cfa: sp 0 +
STACK CFI INIT 5b498 60 .cfa: sp 0 +
STACK CFI 5b49c .cfa: sp 48 +
STACK CFI 5b4a8 .cfa: x29 48 + x19: .cfa -8 + ^ x20: .cfa -16 + ^ x21: .cfa -24 + ^ x22: .cfa -32 + ^ .ra: .cfa -40 + ^ x29: .cfa -48 + ^
STACK CFI 5b4e8 .cfa: sp 48 +
STACK CFI 5b4f4 .cfa: sp 0 +
STACK CFI INIT 5b4f8 1c .cfa: sp 0 +
STACK CFI INIT 5b514 c .cfa: sp 0 +
STACK CFI INIT 5b520 4 .cfa: sp 0 +
STACK CFI INIT 5b524 4 .cfa: sp 0 +
STACK CFI INIT 5b528 38 .cfa: sp 0 +
STACK CFI 5b52c .cfa: sp 32 +
STACK CFI 5b534 .cfa: x29 32 + x19: .cfa -16 + ^ .ra: .cfa -24 + ^ x29: .cfa -32 + ^
STACK CFI 5b554 .cfa: sp 32 +
STACK CFI 5b55c .cfa: sp 0 +
STACK CFI INIT 5b560 18 .cfa: sp 0 +
STACK CFI INIT 5b578 4 .cfa: sp 0 +
STACK CFI INIT 5b57c 4 .cfa: sp 0 +
STACK CFI INIT 5b580 60 .cfa: sp 0 +
STACK CFI 5b584 .cfa: sp 48 +
STACK CFI 5b590 .cfa: x29 48 + x19: .cfa -8 + ^ x20: .cfa -16 + ^ x21: .cfa -24 + ^ x22: .cfa -32 + ^ .ra: .cfa -40 + ^ x29: .cfa -48 + ^
STACK CFI 5b5d0 .cfa: sp 48 +
STACK CFI 5b5dc .cfa: sp 0 +
STACK CFI INIT 5b5e0 1c .cfa: sp 0 +
STACK CFI INIT 5b5fc c .cfa: sp 0 +
STACK CFI INIT 5b608 4 .cfa: sp 0 +
STACK CFI INIT 5b60c 4 .cfa: sp 0 +
STACK CFI INIT 5b610 38 .cfa: sp 0 +
STACK CFI 5b614 .cfa: sp 32 +
STACK CFI 5b61c .cfa: x29 32 + x19: .cfa -16 + ^ .ra: .cfa -24 + ^ x29: .cfa -32 + ^
STACK CFI 5b63c .cfa: sp 32 +
STACK CFI 5b644 .cfa: sp 0 +
STACK CFI INIT 5b648 18 .cfa: sp 0 +
STACK CFI INIT 5b660 4 .cfa: sp 0 +
STACK CFI INIT 5b664 4 .cfa: sp 0 +
STACK CFI INIT 5b668 48 .cfa: sp 0 +
STACK CFI INIT 5b6b0 1c .cfa: sp 0 +
STACK CFI INIT 5b6cc c .cfa: sp 0 +
STACK CFI INIT 51a9c 4 .cfa: sp 0 +
STACK CFI INIT 5bd3c 8 .cfa: sp 0 +
STACK CFI INIT 5bd44 8 .cfa: sp 0 +
STACK CFI INIT 5bd4c 10 .cfa: sp 0 +
STACK CFI INIT 5bd5c 84 .cfa: sp 0 +
STACK CFI 5bd64 .cfa: sp 32 +
STACK CFI 5bd6c .cfa: x29 32 + x19: .cfa -16 + ^ .ra: .cfa -24 + ^ x29: .cfa -32 + ^
STACK CFI 5bdbc .cfa: sp 32 +
STACK CFI 5bdc4 .cfa: sp 0 +
STACK CFI 5bdd0 .cfa: x29 32 +
STACK CFI 5bdd4 .cfa: sp 32 +
STACK CFI 5bddc .cfa: sp 0 +
STACK CFI INIT 5bf5c 50 .cfa: sp 0 +
STACK CFI 5bf60 .cfa: sp 32 +
STACK CFI 5bf68 .cfa: x29 32 + x19: .cfa -16 + ^ .ra: .cfa -24 + ^ x29: .cfa -32 + ^
STACK CFI 5bfa0 .cfa: sp 32 +
STACK CFI 5bfa8 .cfa: sp 0 +
STACK CFI INIT 5bfac 24 .cfa: sp 0 +
STACK CFI 5bfb0 .cfa: sp 32 +
STACK CFI 5bfb8 .cfa: x29 32 + x19: .cfa -16 + ^ .ra: .cfa -24 + ^ x29: .cfa -32 + ^
STACK CFI 5bfc4 .cfa: sp 32 +
STACK CFI 5bfcc .cfa: sp 0 +
STACK CFI INIT 5bfd0 18 .cfa: sp 0 +
STACK CFI INIT 5bfe8 10 .cfa: sp 0 +
STACK CFI INIT 5bff8 14 .cfa: sp 0 +
STACK CFI INIT 5c00c 2f4 .cfa: sp 0 +
STACK CFI 5c010 .cfa: sp 48 +
STACK CFI 5c01c .cfa: x29 48 + x19: .cfa -8 + ^ x20: .cfa -16 + ^ x21: .cfa -24 + ^ x22: .cfa -32 + ^ .ra: .cfa -40 + ^ x29: .cfa -48 + ^
STACK CFI 5c0c8 .cfa: sp 48 +
STACK CFI 5c0d4 .cfa: sp 0 +
STACK CFI 5c0d8 .cfa: x29 48 +
STACK CFI 5c108 .cfa: sp 48 +
STACK CFI 5c114 .cfa: sp 0 +
STACK CFI 5c118 .cfa: x29 48 +
STACK CFI 5c170 .cfa: sp 48 +
STACK CFI 5c17c .cfa: sp 0 +
STACK CFI 5c180 .cfa: x29 48 +
STACK CFI 5c1a4 .cfa: sp 48 +
STACK CFI 5c1b0 .cfa: sp 0 +
STACK CFI 5c1b4 .cfa: x29 48 +
STACK CFI 5c1e0 .cfa: sp 48 +
STACK CFI 5c1ec .cfa: sp 0 +
STACK CFI 5c1f0 .cfa: x29 48 +
STACK CFI 5c1f8 .cfa: sp 48 +
STACK CFI 5c204 .cfa: sp 0 +
STACK CFI 5c208 .cfa: x29 48 +
STACK CFI 5c22c .cfa: sp 48 +
STACK CFI 5c238 .cfa: sp 0 +
STACK CFI 5c23c .cfa: x29 48 +
STACK CFI 5c29c .cfa: sp 48 +
STACK CFI 5c2a8 .cfa: sp 0 +
STACK CFI 5c2ac .cfa: x29 48 +
STACK CFI 5c2e8 .cfa: sp 48 +
STACK CFI 5c2f4 .cfa: sp 0 +
STACK CFI 5c2f8 .cfa: x29 48 +
STACK CFI INIT 5c300 38 .cfa: sp 0 +
STACK CFI INIT 5c338 10 .cfa: sp 0 +
STACK CFI INIT 5c348 90 .cfa: sp 0 +
STACK CFI INIT 5c3d8 44 .cfa: sp 0 +
STACK CFI 5c3dc .cfa: sp 32 +
STACK CFI 5c3e4 .cfa: x29 32 + x19: .cfa -8 + ^ x20: .cfa -16 + ^ .ra: .cfa -24 + ^ x29: .cfa -32 + ^
STACK CFI 5c410 .cfa: sp 32 +
STACK CFI 5c418 .cfa: sp 0 +
STACK CFI INIT 5c4d8 1a8 .cfa: sp 0 +
STACK CFI 5c4dc .cfa: sp 96 +
STACK CFI 5c4f0 .cfa: x29 48 + x19: .cfa -8 + ^ x20: .cfa -16 + ^ x21: .cfa -32 + ^ .ra: .cfa -40 + ^ x29: .cfa -48 + ^ v8: .cfa -56 + ^ v9: .cfa -64 + ^
STACK CFI 5c664 .cfa: sp 96 +
STACK CFI 5c678 .cfa: sp 0 +
STACK CFI 5c67c .cfa: x29 48 +
STACK CFI INIT 5c680 14 .cfa: sp 0 +
STACK CFI INIT 5c694 14 .cfa: sp 0 +
STACK CFI INIT 5c6a8 c0 .cfa: sp 0 +
STACK CFI 5c6ac .cfa: sp 96 +
STACK CFI 5c6c0 .cfa: x29 64 + x19: .cfa -8 + ^ x20: .cfa -16 + ^ x21: .cfa -24 + ^ x22: .cfa -32 + ^ x23: .cfa -48 + ^ .ra: .cfa -56 + ^ x29: .cfa -64 + ^
STACK CFI 5c74c .cfa: sp 96 +
STACK CFI 5c760 .cfa: sp 0 +
STACK CFI 5c764 .cfa: x29 64 +
STACK CFI INIT 5c768 9c .cfa: sp 0 +
STACK CFI 5c76c .cfa: sp 48 +
STACK CFI 5c778 .cfa: x29 48 + x19: .cfa -8 + ^ x20: .cfa -16 + ^ x21: .cfa -24 + ^ x22: .cfa -32 + ^ .ra: .cfa -40 + ^ x29: .cfa -48 + ^
STACK CFI 5c7ac .cfa: sp 48 +
STACK CFI 5c7b8 .cfa: sp 0 +
STACK CFI 5c7bc .cfa: x29 48 +
STACK CFI 5c7ec .cfa: sp 48 +
STACK CFI 5c7f8 .cfa: sp 0 +
STACK CFI 5c7fc .cfa: x29 48 +
STACK CFI INIT 5c804 28 .cfa: sp 0 +
STACK CFI INIT 5ca60 6c .cfa: sp 0 +
STACK CFI 5ca9c .cfa: sp 16 +
STACK CFI 5caa0 .cfa: x29 16 + .ra: .cfa -8 + ^ x29: .cfa -16 + ^
STACK CFI 5cac4 .cfa: sp 16 +
STACK CFI 5cac8 .cfa: sp 0 +
STACK CFI INIT 5cacc 28 .cfa: sp 0 +
STACK CFI INIT 5caf4 b0 .cfa: sp 0 +
STACK CFI 5caf8 .cfa: sp 16 +
STACK CFI 5cafc .cfa: x29 16 + .ra: .cfa -8 + ^ x29: .cfa -16 + ^
STACK CFI 5cb48 .cfa: sp 16 +
STACK CFI 5cb4c .cfa: sp 0 +
STACK CFI 5cb50 .cfa: x29 16 +
STACK CFI 5cb54 .cfa: sp 16 +
STACK CFI 5cb58 .cfa: sp 0 +
STACK CFI 5cb5c .cfa: x29 16 +
STACK CFI 5cb6c .cfa: sp 16 +
STACK CFI 5cb70 .cfa: sp 0 +
STACK CFI 5cb74 .cfa: x29 16 +
STACK CFI 5cb9c .cfa: sp 16 +
STACK CFI 5cba0 .cfa: sp 0 +
STACK CFI INIT 5cba4 28 .cfa: sp 0 +
STACK CFI INIT 5cbcc 50 .cfa: sp 0 +
STACK CFI INIT 5cc1c 2c .cfa: sp 0 +
STACK CFI INIT 5cc48 8 .cfa: sp 0 +
STACK CFI INIT 5cc50 1c .cfa: sp 0 +
STACK CFI INIT 5cc6c 2c .cfa: sp 0 +
STACK CFI INIT 5cc98 8 .cfa: sp 0 +
STACK CFI INIT 5cec8 2c .cfa: sp 0 +
STACK CFI INIT 5cef4 8 .cfa: sp 0 +
STACK CFI INIT 5cefc 190 .cfa: sp 0 +
STACK CFI 5cf00 .cfa: sp 96 +
STACK CFI 5cf14 .cfa: x29 64 + x19: .cfa -8 + ^ x20: .cfa -16 + ^ x21: .cfa -24 + ^ x22: .cfa -32 + ^ x23: .cfa -48 + ^ .ra: .cfa -56 + ^ x29: .cfa -64 + ^
STACK CFI 5d05c .cfa: sp 96 +
STACK CFI 5d070 .cfa: sp 0 +
STACK CFI 5d074 .cfa: x29 64 +
STACK CFI INIT 5d288 98 .cfa: sp 0 +
STACK CFI 5d28c .cfa: sp 48 +
STACK CFI 5d298 .cfa: x29 48 + x19: .cfa -8 + ^ x20: .cfa -16 + ^ x21: .cfa -32 + ^ .ra: .cfa -40 + ^ x29: .cfa -48 + ^
STACK CFI 5d2e8 .cfa: sp 48 +
STACK CFI 5d2f4 .cfa: sp 0 +
STACK CFI 5d2f8 .cfa: x29 48 +
STACK CFI INIT 5d320 18 .cfa: sp 0 +
STACK CFI INIT 5d338 8 .cfa: sp 0 +
STACK CFI INIT 5d340 8 .cfa: sp 0 +
STACK CFI INIT 5d348 70 .cfa: sp 0 +
STACK CFI 5d34c .cfa: sp 48 +
STACK CFI 5d358 .cfa: x29 32 + x19: .cfa -16 + ^ .ra: .cfa -24 + ^ x29: .cfa -32 + ^
STACK CFI 5d390 .cfa: sp 48 +
STACK CFI 5d39c .cfa: sp 0 +
STACK CFI 5d3a0 .cfa: x29 32 +
STACK CFI INIT 5d3b8 8 .cfa: sp 0 +
STACK CFI INIT 5d440 2c .cfa: sp 0 +
STACK CFI INIT 5d46c 8 .cfa: sp 0 +
STACK CFI INIT 5d474 10 .cfa: sp 0 +
STACK CFI INIT 5d484 18c .cfa: sp 0 +
STACK CFI 5d488 .cfa: sp 96 +
STACK CFI 5d49c .cfa: x29 64 + x19: .cfa -8 + ^ x20: .cfa -16 + ^ x21: .cfa -24 + ^ x22: .cfa -32 + ^ x23: .cfa -48 + ^ .ra: .cfa -56 + ^ x29: .cfa -64 + ^
STACK CFI 5d5e0 .cfa: sp 96 +
STACK CFI 5d5f4 .cfa: sp 0 +
STACK CFI 5d5f8 .cfa: x29 64 +
STACK CFI INIT 5de70 c4 .cfa: sp 0 +
STACK CFI 5de74 .cfa: sp 48 +
STACK CFI 5de80 .cfa: x29 48 + x19: .cfa -8 + ^ x20: .cfa -16 + ^ x21: .cfa -24 + ^ x22: .cfa -32 + ^ .ra: .cfa -40 + ^ x29: .cfa -48 + ^
STACK CFI 5def4 .cfa: sp 48 +
STACK CFI 5df00 .cfa: sp 0 +
STACK CFI 5df04 .cfa: sp 48 +
STACK CFI 5df10 .cfa: sp 0 +
STACK CFI 5df14 .cfa: x29 48 +
STACK CFI 5df24 .cfa: sp 48 +
STACK CFI 5df30 .cfa: sp 0 +
STACK CFI INIT 5f170 70 .cfa: sp 0 +
STACK CFI 5f174 .cfa: sp 48 +
STACK CFI 5f180 .cfa: x29 48 + x19: .cfa -8 + ^ x20: .cfa -16 + ^ x21: .cfa -32 + ^ .ra: .cfa -40 + ^ x29: .cfa -48 + ^
STACK CFI 5f198 .cfa: sp 48 +
STACK CFI 5f1a4 .cfa: sp 0 +
STACK CFI 5f1a8 .cfa: x29 48 +
STACK CFI 5f1d0 .cfa: sp 48 +
STACK CFI 5f1dc .cfa: sp 0 +
STACK CFI INIT 5f1e0 5c .cfa: sp 0 +
STACK CFI 5f1e4 .cfa: sp 32 +
STACK CFI 5f1ec .cfa: x29 32 + x19: .cfa -16 + ^ .ra: .cfa -24 + ^ x29: .cfa -32 + ^
STACK CFI 5f230 .cfa: sp 32 +
STACK CFI 5f238 .cfa: sp 0 +
STACK CFI INIT 5f23c 7c .cfa: sp 0 +
STACK CFI 5f240 .cfa: sp 48 +
STACK CFI 5f24c .cfa: x29 48 + x19: .cfa -8 + ^ x20: .cfa -16 + ^ x21: .cfa -32 + ^ .ra: .cfa -40 + ^ x29: .cfa -48 + ^
STACK CFI 5f298 .cfa: sp 48 +
STACK CFI 5f2a4 .cfa: sp 0 +
STACK CFI 5f2a8 .cfa: sp 48 +
STACK CFI 5f2b4 .cfa: sp 0 +
STACK CFI INIT 5f2b8 84 .cfa: sp 0 +
STACK CFI 5f2bc .cfa: sp 48 +
STACK CFI 5f2c8 .cfa: x29 48 + x19: .cfa -8 + ^ x20: .cfa -16 + ^ x21: .cfa -24 + ^ x22: .cfa -32 + ^ .ra: .cfa -40 + ^ x29: .cfa -48 + ^
STACK CFI 5f31c .cfa: sp 48 +
STACK CFI 5f328 .cfa: sp 0 +
STACK CFI 5f32c .cfa: sp 48 +
STACK CFI 5f338 .cfa: sp 0 +
STACK CFI INIT 5f33c a0 .cfa: sp 0 +
STACK CFI 5f340 .cfa: sp 48 +
STACK CFI 5f34c .cfa: x29 48 + x19: .cfa -8 + ^ x20: .cfa -16 + ^ x21: .cfa -32 + ^ .ra: .cfa -40 + ^ x29: .cfa -48 + ^
STACK CFI 5f364 .cfa: sp 48 +
STACK CFI 5f370 .cfa: sp 0 +
STACK CFI 5f374 .cfa: x29 48 +
STACK CFI 5f3cc .cfa: sp 48 +
STACK CFI 5f3d8 .cfa: sp 0 +
STACK CFI INIT 5f3dc 64 .cfa: sp 0 +
STACK CFI 5f3e0 .cfa: sp 48 +
STACK CFI 5f3ec .cfa: x29 48 + x19: .cfa -8 + ^ x20: .cfa -16 + ^ x21: .cfa -32 + ^ .ra: .cfa -40 + ^ x29: .cfa -48 + ^
STACK CFI 5f420 .cfa: sp 48 +
STACK CFI 5f42c .cfa: sp 0 +
STACK CFI 5f430 .cfa: sp 48 +
STACK CFI 5f43c .cfa: sp 0 +
STACK CFI INIT 5f440 3c .cfa: sp 0 +
STACK CFI 5f444 .cfa: sp 32 +
STACK CFI 5f44c .cfa: x29 32 + x19: .cfa -16 + ^ .ra: .cfa -24 + ^ x29: .cfa -32 + ^
STACK CFI 5f464 .cfa: sp 32 +
STACK CFI 5f46c .cfa: sp 0 +
STACK CFI 5f470 .cfa: sp 32 +
STACK CFI 5f478 .cfa: sp 0 +
STACK CFI INIT 5f47c 64 .cfa: sp 0 +
STACK CFI 5f480 .cfa: sp 32 +
STACK CFI 5f488 .cfa: x29 32 + x19: .cfa -16 + ^ .ra: .cfa -24 + ^ x29: .cfa -32 + ^
STACK CFI 5f4c4 .cfa: sp 32 +
STACK CFI 5f4cc .cfa: sp 0 +
STACK CFI 5f4d0 .cfa: x29 32 +
STACK CFI 5f4d4 .cfa: sp 32 +
STACK CFI 5f4dc .cfa: sp 0 +
STACK CFI INIT 5f7f4 40 .cfa: sp 0 +
STACK CFI 5f80c .cfa: sp 32 +
STACK CFI 5f814 .cfa: x29 32 + x19: .cfa -16 + ^ .ra: .cfa -24 + ^ x29: .cfa -32 + ^
STACK CFI 5f828 .cfa: sp 32 +
STACK CFI 5f830 .cfa: sp 0 +
STACK CFI INIT 61b54 100 .cfa: sp 0 +
STACK CFI 61b58 .cfa: sp 64 +
STACK CFI 61b68 .cfa: x29 64 + x19: .cfa -8 + ^ x20: .cfa -16 + ^ x21: .cfa -24 + ^ x22: .cfa -32 + ^ x23: .cfa -48 + ^ .ra: .cfa -56 + ^ x29: .cfa -64 + ^
STACK CFI 61c14 .cfa: sp 64 +
STACK CFI 61c24 .cfa: sp 0 +
STACK CFI 61c28 .cfa: x29 64 +
STACK CFI 61c40 .cfa: sp 64 +
STACK CFI 61c50 .cfa: sp 0 +
STACK CFI INIT 631a8 3c .cfa: sp 0 +
STACK CFI 631ac .cfa: sp 32 +
STACK CFI 631b4 .cfa: x29 32 + x19: .cfa -16 + ^ .ra: .cfa -24 + ^ x29: .cfa -32 + ^
STACK CFI 631c8 .cfa: sp 32 +
STACK CFI 631d0 .cfa: sp 0 +
STACK CFI 631d4 .cfa: x29 32 +
STACK CFI 631d8 .cfa: sp 32 +
STACK CFI 631e0 .cfa: sp 0 +
STACK CFI INIT 631e4 39c .cfa: sp 0 +
STACK CFI 631e8 .cfa: sp 80 +
STACK CFI 631fc .cfa: x29 80 + x19: .cfa -8 + ^ x20: .cfa -16 + ^ x21: .cfa -24 + ^ x22: .cfa -32 + ^ x23: .cfa -40 + ^ x24: .cfa -48 + ^ x25: .cfa -56 + ^ x26: .cfa -64 + ^ .ra: .cfa -72 + ^ x29: .cfa -80 + ^
STACK CFI 63568 .cfa: sp 80 +
STACK CFI 6357c .cfa: sp 0 +
STACK CFI INIT 63580 154 .cfa: sp 0 +
STACK CFI 63584 .cfa: sp 64 +
STACK CFI 63594 .cfa: x29 64 + x19: .cfa -8 + ^ x20: .cfa -16 + ^ x21: .cfa -24 + ^ x22: .cfa -32 + ^ x23: .cfa -48 + ^ .ra: .cfa -56 + ^ x29: .cfa -64 + ^
STACK CFI 635f4 .cfa: sp 64 +
STACK CFI 63604 .cfa: sp 0 +
STACK CFI 63608 .cfa: x29 64 +
STACK CFI INIT 636d4 ec .cfa: sp 0 +
STACK CFI 636d8 .cfa: sp 64 +
STACK CFI 636e8 .cfa: x29 64 + x19: .cfa -8 + ^ x20: .cfa -16 + ^ x21: .cfa -24 + ^ x22: .cfa -32 + ^ x23: .cfa -48 + ^ .ra: .cfa -56 + ^ x29: .cfa -64 + ^
STACK CFI 63790 .cfa: sp 64 +
STACK CFI 637a0 .cfa: sp 0 +
STACK CFI 637a4 .cfa: x29 64 +
STACK CFI 637ac .cfa: sp 64 +
STACK CFI 637bc .cfa: sp 0 +
STACK CFI INIT 63874 68 .cfa: sp 0 +
STACK CFI 63878 .cfa: sp 48 +
STACK CFI 63884 .cfa: x29 48 + x19: .cfa -8 + ^ x20: .cfa -16 + ^ x21: .cfa -32 + ^ .ra: .cfa -40 + ^ x29: .cfa -48 + ^
STACK CFI 638bc .cfa: sp 48 +
STACK CFI 638c8 .cfa: sp 0 +
STACK CFI 638cc .cfa: sp 48 +
STACK CFI 638d8 .cfa: sp 0 +
STACK CFI INIT 63ef8 28 .cfa: sp 0 +
STACK CFI INIT 6468c 15c .cfa: sp 0 +
STACK CFI 64690 .cfa: sp 64 +
STACK CFI 646a0 .cfa: x29 64 + x19: .cfa -8 + ^ x20: .cfa -16 + ^ x21: .cfa -24 + ^ x22: .cfa -32 + ^ x23: .cfa -48 + ^ .ra: .cfa -56 + ^ x29: .cfa -64 + ^
STACK CFI 647d4 .cfa: sp 64 +
STACK CFI 647e4 .cfa: sp 0 +
STACK CFI INIT 64c68 15c .cfa: sp 0 +
STACK CFI 64c6c .cfa: sp 48 +
STACK CFI 64c78 .cfa: x29 48 + x19: .cfa -8 + ^ x20: .cfa -16 + ^ x21: .cfa -24 + ^ x22: .cfa -32 + ^ .ra: .cfa -40 + ^ x29: .cfa -48 + ^
STACK CFI 64d54 .cfa: sp 48 +
STACK CFI 64d60 .cfa: sp 0 +
STACK CFI 64d64 .cfa: x29 48 +
STACK CFI 64da8 .cfa: sp 48 +
STACK CFI 64db4 .cfa: sp 0 +
STACK CFI 64db8 .cfa: x29 48 +
STACK CFI INIT 654f0 3c4 .cfa: sp 0 +
STACK CFI 654f4 .cfa: sp 144 +
STACK CFI 65510 .cfa: x29 96 + x19: .cfa -8 + ^ x20: .cfa -16 + ^ x21: .cfa -24 + ^ x22: .cfa -32 + ^ x23: .cfa -40 + ^ x24: .cfa -48 + ^ x25: .cfa -56 + ^ x26: .cfa -64 + ^ x27: .cfa -72 + ^ x28: .cfa -80 + ^ .ra: .cfa -88 + ^ x29: .cfa -96 + ^
STACK CFI 65890 .cfa: sp 144 +
STACK CFI 658ac .cfa: sp 0 +
STACK CFI 658b0 .cfa: x29 96 +
STACK CFI INIT 66d60 40 .cfa: sp 0 +
STACK CFI 66d78 .cfa: sp 32 +
STACK CFI 66d80 .cfa: x29 32 + x19: .cfa -16 + ^ .ra: .cfa -24 + ^ x29: .cfa -32 + ^
STACK CFI 66d94 .cfa: sp 32 +
STACK CFI 66d9c .cfa: sp 0 +
STACK CFI INIT 66da0 5c .cfa: sp 0 +
STACK CFI 66da4 .cfa: sp 32 +
STACK CFI 66dac .cfa: x29 32 + x19: .cfa -8 + ^ x20: .cfa -16 + ^ .ra: .cfa -24 + ^ x29: .cfa -32 + ^
STACK CFI 66de0 .cfa: sp 32 +
STACK CFI 66de8 .cfa: sp 0 +
STACK CFI 66dec .cfa: x29 32 +
STACK CFI 66df0 .cfa: sp 32 +
STACK CFI 66df8 .cfa: sp 0 +
STACK CFI INIT 66dfc 4c .cfa: sp 0 +
STACK CFI 66e00 .cfa: sp 32 +
STACK CFI 66e08 .cfa: x29 32 + x19: .cfa -8 + ^ x20: .cfa -16 + ^ .ra: .cfa -24 + ^ x29: .cfa -32 + ^
STACK CFI 66e30 .cfa: sp 32 +
STACK CFI 66e38 .cfa: sp 0 +
STACK CFI 66e3c .cfa: sp 32 +
STACK CFI 66e44 .cfa: sp 0 +
STACK CFI INIT 67338 4 .cfa: sp 0 +
STACK CFI INIT 6733c 44 .cfa: sp 0 +
STACK CFI 67340 .cfa: sp 32 +
STACK CFI 67348 .cfa: x29 32 + x19: .cfa -16 + ^ .ra: .cfa -24 + ^ x29: .cfa -32 + ^
STACK CFI 67374 .cfa: sp 32 +
STACK CFI 6737c .cfa: sp 0 +
STACK CFI INIT 67380 24 .cfa: sp 0 +
STACK CFI 67384 .cfa: sp 32 +
STACK CFI 6738c .cfa: x29 32 + x19: .cfa -16 + ^ .ra: .cfa -24 + ^ x29: .cfa -32 + ^
STACK CFI 67398 .cfa: sp 32 +
STACK CFI 673a0 .cfa: sp 0 +
STACK CFI INIT 673a4 44 .cfa: sp 0 +
STACK CFI 673a8 .cfa: sp 32 +
STACK CFI 673b0 .cfa: x29 32 + x19: .cfa -16 + ^ .ra: .cfa -24 + ^ x29: .cfa -32 + ^
STACK CFI 673dc .cfa: sp 32 +
STACK CFI 673e4 .cfa: sp 0 +
STACK CFI INIT 673e8 220 .cfa: sp 0 +
STACK CFI 673ec .cfa: sp 48 +
STACK CFI 673f8 .cfa: x29 48 + x19: .cfa -8 + ^ x20: .cfa -16 + ^ x21: .cfa -24 + ^ x22: .cfa -32 + ^ .ra: .cfa -40 + ^ x29: .cfa -48 + ^
STACK CFI 675a0 .cfa: sp 48 +
STACK CFI 675ac .cfa: sp 0 +
STACK CFI 675b0 .cfa: x29 48 +
STACK CFI INIT 67608 24 .cfa: sp 0 +
STACK CFI 6760c .cfa: sp 32 +
STACK CFI 67614 .cfa: x29 32 + x19: .cfa -16 + ^ .ra: .cfa -24 + ^ x29: .cfa -32 + ^
STACK CFI 67620 .cfa: sp 32 +
STACK CFI 67628 .cfa: sp 0 +
STACK CFI INIT 6767c 30 .cfa: sp 0 +
STACK CFI 67680 .cfa: sp 32 +
STACK CFI 67688 .cfa: x29 32 + x19: .cfa -16 + ^ .ra: .cfa -24 + ^ x29: .cfa -32 + ^
STACK CFI 676a0 .cfa: sp 32 +
STACK CFI 676a8 .cfa: sp 0 +
STACK CFI INIT 677e8 14 .cfa: sp 0 +
STACK CFI 677ec .cfa: sp 16 +
STACK CFI 677f0 .cfa: x29 16 + .ra: .cfa -8 + ^ x29: .cfa -16 + ^
STACK CFI INIT 677fc 4 .cfa: sp 0 +
STACK CFI INIT 679a0 64 .cfa: sp 0 +
STACK CFI 679a4 .cfa: sp 32 +
STACK CFI 679ac .cfa: x29 32 + x19: .cfa -16 + ^ .ra: .cfa -24 + ^ x29: .cfa -32 + ^
STACK CFI 679f8 .cfa: sp 32 +
STACK CFI 67a00 .cfa: sp 0 +
STACK CFI INIT 67b6c 14 .cfa: sp 0 +
STACK CFI INIT 67b80 14 .cfa: sp 0 +
STACK CFI INIT 67ec4 4 .cfa: sp 0 +
STACK CFI INIT 67ec8 14 .cfa: sp 0 +
STACK CFI INIT 67edc 8 .cfa: sp 0 +
STACK CFI INIT 67ee4 14 .cfa: sp 0 +
STACK CFI INIT 67ef8 44 .cfa: sp 0 +
STACK CFI 67efc .cfa: sp 32 +
STACK CFI 67f04 .cfa: x29 32 + x19: .cfa -16 + ^ .ra: .cfa -24 + ^ x29: .cfa -32 + ^
STACK CFI 67f24 .cfa: sp 32 +
STACK CFI 67f2c .cfa: sp 0 +
STACK CFI 67f30 .cfa: sp 32 +
STACK CFI 67f38 .cfa: sp 0 +
STACK CFI INIT 67f3c 4 .cfa: sp 0 +
STACK CFI INIT 67f40 14 .cfa: sp 0 +
STACK CFI INIT 67f54 74 .cfa: sp 0 +
STACK CFI 67f58 .cfa: sp 48 +
STACK CFI 67f64 .cfa: x29 48 + x19: .cfa -8 + ^ x20: .cfa -16 + ^ x21: .cfa -32 + ^ .ra: .cfa -40 + ^ x29: .cfa -48 + ^
STACK CFI 67fa8 .cfa: sp 48 +
STACK CFI 67fb4 .cfa: sp 0 +
STACK CFI 67fb8 .cfa: sp 48 +
STACK CFI 67fc4 .cfa: sp 0 +
STACK CFI INIT 68110 14 .cfa: sp 0 +
STACK CFI 68114 .cfa: sp 16 +
STACK CFI 68118 .cfa: x29 16 + .ra: .cfa -8 + ^ x29: .cfa -16 + ^
STACK CFI INIT 68378 54 .cfa: sp 0 +
STACK CFI 6837c .cfa: sp 32 +
STACK CFI 68384 .cfa: x29 32 + x19: .cfa -8 + ^ x20: .cfa -16 + ^ .ra: .cfa -24 + ^ x29: .cfa -32 + ^
STACK CFI 683b4 .cfa: sp 32 +
STACK CFI 683bc .cfa: sp 0 +
STACK CFI 683c0 .cfa: sp 32 +
STACK CFI 683c8 .cfa: sp 0 +
STACK CFI INIT 683cc 14 .cfa: sp 0 +
STACK CFI 683d0 .cfa: sp 16 +
STACK CFI 683d4 .cfa: x29 16 + .ra: .cfa -8 + ^ x29: .cfa -16 + ^
STACK CFI INIT 68548 8c .cfa: sp 0 +
STACK CFI 6854c .cfa: sp 48 +
STACK CFI 68558 .cfa: x29 48 + x19: .cfa -8 + ^ x20: .cfa -16 + ^ x21: .cfa -24 + ^ x22: .cfa -32 + ^ .ra: .cfa -40 + ^ x29: .cfa -48 + ^
STACK CFI 68560 .cfa: sp 48 +
STACK CFI 6856c .cfa: sp 0 +
STACK CFI 68570 .cfa: x29 48 +
STACK CFI 685c4 .cfa: sp 48 +
STACK CFI 685d0 .cfa: sp 0 +
STACK CFI INIT 685d4 14 .cfa: sp 0 +
STACK CFI 685d8 .cfa: sp 16 +
STACK CFI 685dc .cfa: x29 16 + .ra: .cfa -8 + ^ x29: .cfa -16 + ^
STACK CFI INIT 685e8 60 .cfa: sp 0 +
STACK CFI 685f8 .cfa: sp 32 +
STACK CFI 68600 .cfa: x29 32 + x19: .cfa -8 + ^ x20: .cfa -16 + ^ .ra: .cfa -24 + ^ x29: .cfa -32 + ^
STACK CFI 6863c .cfa: sp 32 +
STACK CFI 68644 .cfa: sp 0 +
STACK CFI INIT 68648 68 .cfa: sp 0 +
STACK CFI 6864c .cfa: sp 32 +
STACK CFI 68654 .cfa: x29 32 + x19: .cfa -8 + ^ x20: .cfa -16 + ^ .ra: .cfa -24 + ^ x29: .cfa -32 + ^
STACK CFI 6866c .cfa: sp 32 +
STACK CFI 68674 .cfa: sp 0 +
STACK CFI 68678 .cfa: x29 32 +
STACK CFI 686a4 .cfa: sp 32 +
STACK CFI 686ac .cfa: sp 0 +
STACK CFI INIT 686b0 ac .cfa: sp 0 +
STACK CFI 686b4 .cfa: sp 64 +
STACK CFI 686c4 .cfa: x29 64 + x19: .cfa -8 + ^ x20: .cfa -16 + ^ x21: .cfa -24 + ^ x22: .cfa -32 + ^ x23: .cfa -48 + ^ .ra: .cfa -56 + ^ x29: .cfa -64 + ^
STACK CFI 68740 .cfa: sp 64 +
STACK CFI 68750 .cfa: sp 0 +
STACK CFI 68754 .cfa: x29 64 +
STACK CFI INIT 6875c 110 .cfa: sp 0 +
STACK CFI 68760 .cfa: sp 64 +
STACK CFI 68770 .cfa: x29 64 + x19: .cfa -8 + ^ x20: .cfa -16 + ^ x21: .cfa -24 + ^ x22: .cfa -32 + ^ x23: .cfa -40 + ^ x24: .cfa -48 + ^ .ra: .cfa -56 + ^ x29: .cfa -64 + ^
STACK CFI 68850 .cfa: sp 64 +
STACK CFI 68860 .cfa: sp 0 +
STACK CFI 68864 .cfa: x29 64 +
STACK CFI INIT 693f4 150 .cfa: sp 0 +
STACK CFI 693f8 .cfa: sp 64 +
STACK CFI 69408 .cfa: x29 64 + x19: .cfa -8 + ^ x20: .cfa -16 + ^ x21: .cfa -24 + ^ x22: .cfa -32 + ^ x23: .cfa -40 + ^ x24: .cfa -48 + ^ .ra: .cfa -56 + ^ x29: .cfa -64 + ^
STACK CFI 69530 .cfa: sp 64 +
STACK CFI 69540 .cfa: sp 0 +
STACK CFI INIT 69544 18c .cfa: sp 0 +
STACK CFI 69548 .cfa: sp 64 +
STACK CFI 69558 .cfa: x29 64 + x19: .cfa -8 + ^ x20: .cfa -16 + ^ x21: .cfa -24 + ^ x22: .cfa -32 + ^ x23: .cfa -40 + ^ x24: .cfa -48 + ^ .ra: .cfa -56 + ^ x29: .cfa -64 + ^
STACK CFI 695e4 .cfa: sp 64 +
STACK CFI 695f4 .cfa: sp 0 +
STACK CFI 695f8 .cfa: x29 64 +
STACK CFI 69658 .cfa: sp 64 +
STACK CFI 69668 .cfa: sp 0 +
STACK CFI 6966c .cfa: x29 64 +
STACK CFI 696bc .cfa: sp 64 +
STACK CFI 696cc .cfa: sp 0 +
STACK CFI INIT 69974 108 .cfa: sp 0 +
STACK CFI 69978 .cfa: sp 64 +
STACK CFI 69988 .cfa: x29 64 + x19: .cfa -8 + ^ x20: .cfa -16 + ^ x21: .cfa -24 + ^ x22: .cfa -32 + ^ x23: .cfa -48 + ^ .ra: .cfa -56 + ^ x29: .cfa -64 + ^
STACK CFI 69a68 .cfa: sp 64 +
STACK CFI 69a78 .cfa: sp 0 +
STACK CFI INIT 69a7c 14 .cfa: sp 0 +
STACK CFI 69a80 .cfa: sp 16 +
STACK CFI 69a84 .cfa: x29 16 + .ra: .cfa -8 + ^ x29: .cfa -16 + ^
STACK CFI INIT 69a90 4c .cfa: sp 0 +
STACK CFI 69a94 .cfa: sp 32 +
STACK CFI 69a9c .cfa: x29 32 + x19: .cfa -8 + ^ x20: .cfa -16 + ^ .ra: .cfa -24 + ^ x29: .cfa -32 + ^
STACK CFI 69ac4 .cfa: sp 32 +
STACK CFI 69acc .cfa: sp 0 +
STACK CFI 69ad0 .cfa: sp 32 +
STACK CFI 69ad8 .cfa: sp 0 +
STACK CFI INIT 69adc 1ac .cfa: sp 0 +
STACK CFI 69ae0 .cfa: sp 32 +
STACK CFI 69ae8 .cfa: x29 32 + x19: .cfa -8 + ^ x20: .cfa -16 + ^ .ra: .cfa -24 + ^ x29: .cfa -32 + ^
STACK CFI 69bd8 .cfa: sp 32 +
STACK CFI 69be0 .cfa: sp 0 +
STACK CFI 69be4 .cfa: x29 32 +
STACK CFI INIT 69f5c 458 .cfa: sp 0 +
STACK CFI INIT 6a3b4 4 .cfa: sp 0 +
STACK CFI INIT 6a3b8 4 .cfa: sp 0 +
STACK CFI INIT 6a3bc 40 .cfa: sp 0 +
STACK CFI 6a3c0 .cfa: sp 32 +
STACK CFI 6a3c8 .cfa: x29 32 + x19: .cfa -16 + ^ .ra: .cfa -24 + ^ x29: .cfa -32 + ^
STACK CFI 6a3f0 .cfa: sp 32 +
STACK CFI 6a3f8 .cfa: sp 0 +
STACK CFI INIT 6a3fc 20 .cfa: sp 0 +
STACK CFI INIT 6a41c 4 .cfa: sp 0 +
STACK CFI INIT 6a420 4 .cfa: sp 0 +
STACK CFI INIT 6a424 20 .cfa: sp 0 +
STACK CFI INIT 6a444 1c .cfa: sp 0 +
STACK CFI INIT 6a460 c .cfa: sp 0 +
STACK CFI INIT 6a50c 88 .cfa: sp 0 +
STACK CFI 6a510 .cfa: sp 48 +
STACK CFI 6a51c .cfa: x29 48 + x19: .cfa -8 + ^ x20: .cfa -16 + ^ x21: .cfa -32 + ^ .ra: .cfa -40 + ^ x29: .cfa -48 + ^
STACK CFI 6a540 .cfa: sp 48 +
STACK CFI 6a54c .cfa: sp 0 +
STACK CFI 6a550 .cfa: x29 48 +
STACK CFI 6a584 .cfa: sp 48 +
STACK CFI 6a590 .cfa: sp 0 +
STACK CFI INIT 6a594 44 .cfa: sp 0 +
STACK CFI 6a59c .cfa: sp 32 +
STACK CFI 6a5a4 .cfa: x29 32 + x19: .cfa -16 + ^ .ra: .cfa -24 + ^ x29: .cfa -32 + ^
STACK CFI 6a5c8 .cfa: sp 32 +
STACK CFI 6a5d0 .cfa: sp 0 +
STACK CFI INIT 6a5d8 98 .cfa: sp 0 +
STACK CFI 6a5dc .cfa: sp 48 +
STACK CFI 6a5e8 .cfa: x29 48 + x19: .cfa -8 + ^ x20: .cfa -16 + ^ x21: .cfa -24 + ^ x22: .cfa -32 + ^ .ra: .cfa -40 + ^ x29: .cfa -48 + ^
STACK CFI 6a600 .cfa: sp 48 +
STACK CFI 6a60c .cfa: sp 0 +
STACK CFI 6a610 .cfa: x29 48 +
STACK CFI 6a660 .cfa: sp 48 +
STACK CFI 6a66c .cfa: sp 0 +
STACK CFI INIT 6a670 4 .cfa: sp 0 +
STACK CFI INIT 6a674 34 .cfa: sp 0 +
STACK CFI 6a678 .cfa: sp 32 +
STACK CFI 6a680 .cfa: x29 32 + x19: .cfa -16 + ^ .ra: .cfa -24 + ^ x29: .cfa -32 + ^
STACK CFI 6a69c .cfa: sp 32 +
STACK CFI 6a6a4 .cfa: sp 0 +
STACK CFI INIT 6a6a8 14 .cfa: sp 0 +
STACK CFI INIT 6a6bc 4 .cfa: sp 0 +
STACK CFI INIT 6a6c0 4 .cfa: sp 0 +
STACK CFI INIT 6a6c4 c .cfa: sp 0 +
STACK CFI INIT 6a6d0 1c .cfa: sp 0 +
STACK CFI INIT 6a6ec c .cfa: sp 0 +
STACK CFI INIT 6a6f8 4 .cfa: sp 0 +
STACK CFI INIT 6a6fc 4 .cfa: sp 0 +
STACK CFI INIT 6a700 34 .cfa: sp 0 +
STACK CFI 6a704 .cfa: sp 32 +
STACK CFI 6a70c .cfa: x29 32 + x19: .cfa -16 + ^ .ra: .cfa -24 + ^ x29: .cfa -32 + ^
STACK CFI 6a728 .cfa: sp 32 +
STACK CFI 6a730 .cfa: sp 0 +
STACK CFI INIT 6a734 14 .cfa: sp 0 +
STACK CFI INIT 6a748 4 .cfa: sp 0 +
STACK CFI INIT 6a74c 4 .cfa: sp 0 +
STACK CFI INIT 6a750 c .cfa: sp 0 +
STACK CFI INIT 6a75c 1c .cfa: sp 0 +
STACK CFI INIT 6a778 c .cfa: sp 0 +
STACK CFI INIT 6a784 230 .cfa: sp 0 +
STACK CFI 6a788 .cfa: sp 64 +
STACK CFI 6a798 .cfa: x29 64 + x19: .cfa -8 + ^ x20: .cfa -16 + ^ x21: .cfa -24 + ^ x22: .cfa -32 + ^ x23: .cfa -40 + ^ x24: .cfa -48 + ^ .ra: .cfa -56 + ^ x29: .cfa -64 + ^
STACK CFI 6a7f4 .cfa: sp 64 +
STACK CFI 6a804 .cfa: sp 0 +
STACK CFI 6a808 .cfa: x29 64 +
STACK CFI 6a984 .cfa: sp 64 +
STACK CFI 6a994 .cfa: sp 0 +
STACK CFI 6a998 .cfa: x29 64 +
STACK CFI 6a9a0 .cfa: sp 64 +
STACK CFI 6a9b0 .cfa: sp 0 +
STACK CFI INIT 6a9b4 7c .cfa: sp 0 +
STACK CFI 6a9b8 .cfa: sp 32 +
STACK CFI 6a9c0 .cfa: x29 32 + x19: .cfa -16 + ^ .ra: .cfa -24 + ^ x29: .cfa -32 + ^
STACK CFI 6a9f0 .cfa: sp 32 +
STACK CFI 6a9f8 .cfa: sp 0 +
STACK CFI 6a9fc .cfa: x29 32 +
STACK CFI 6aa24 .cfa: sp 32 +
STACK CFI 6aa2c .cfa: sp 0 +
STACK CFI INIT 6ae84 44 .cfa: sp 0 +
STACK CFI 6ae88 .cfa: sp 32 +
STACK CFI 6ae90 .cfa: x29 32 + x19: .cfa -16 + ^ .ra: .cfa -24 + ^ x29: .cfa -32 + ^
STACK CFI 6aeb0 .cfa: sp 32 +
STACK CFI 6aeb8 .cfa: sp 0 +
STACK CFI 6aebc .cfa: sp 32 +
STACK CFI 6aec4 .cfa: sp 0 +
STACK CFI INIT 6aec8 1ac .cfa: sp 0 +
STACK CFI 6aecc .cfa: sp 32 +
STACK CFI 6aed4 .cfa: x29 32 + x19: .cfa -8 + ^ x20: .cfa -16 + ^ .ra: .cfa -24 + ^ x29: .cfa -32 + ^
STACK CFI 6afc4 .cfa: sp 32 +
STACK CFI 6afcc .cfa: sp 0 +
STACK CFI 6afd0 .cfa: x29 32 +
STACK CFI INIT 6b6ac 54 .cfa: sp 0 +
STACK CFI 6b6b0 .cfa: sp 32 +
STACK CFI 6b6b8 .cfa: x29 32 + x19: .cfa -16 + ^ .ra: .cfa -24 + ^ x29: .cfa -32 + ^
STACK CFI 6b6e8 .cfa: sp 32 +
STACK CFI 6b6f0 .cfa: sp 0 +
STACK CFI 6b6f4 .cfa: sp 32 +
STACK CFI 6b6fc .cfa: sp 0 +
STACK CFI INIT 6bb3c 1c4 .cfa: sp 0 +
STACK CFI 6bb40 .cfa: sp 112 +
STACK CFI 6bb58 .cfa: x29 80 + x19: .cfa -8 + ^ x20: .cfa -16 + ^ x21: .cfa -24 + ^ x22: .cfa -32 + ^ x23: .cfa -40 + ^ x24: .cfa -48 + ^ x25: .cfa -64 + ^ .ra: .cfa -72 + ^ x29: .cfa -80 + ^
STACK CFI 6bce0 .cfa: sp 112 +
STACK CFI 6bcf8 .cfa: sp 0 +
STACK CFI 6bcfc .cfa: x29 80 +
STACK CFI INIT 6c360 1c8 .cfa: sp 0 +
STACK CFI 6c364 .cfa: sp 64 +
STACK CFI 6c374 .cfa: x29 64 + x19: .cfa -8 + ^ x20: .cfa -16 + ^ x21: .cfa -24 + ^ x22: .cfa -32 + ^ x23: .cfa -40 + ^ x24: .cfa -48 + ^ .ra: .cfa -56 + ^ x29: .cfa -64 + ^
STACK CFI 6c4f8 .cfa: sp 64 +
STACK CFI 6c508 .cfa: sp 0 +
STACK CFI 6c50c .cfa: x29 64 +
STACK CFI 6c514 .cfa: sp 64 +
STACK CFI 6c524 .cfa: sp 0 +
STACK CFI INIT 6c528 1c4 .cfa: sp 0 +
STACK CFI 6c52c .cfa: sp 112 +
STACK CFI 6c544 .cfa: x29 80 + x19: .cfa -8 + ^ x20: .cfa -16 + ^ x21: .cfa -24 + ^ x22: .cfa -32 + ^ x23: .cfa -40 + ^ x24: .cfa -48 + ^ x25: .cfa -64 + ^ .ra: .cfa -72 + ^ x29: .cfa -80 + ^
STACK CFI 6c6cc .cfa: sp 112 +
STACK CFI 6c6e4 .cfa: sp 0 +
STACK CFI 6c6e8 .cfa: x29 80 +
STACK CFI INIT 6c6ec 230 .cfa: sp 0 +
STACK CFI 6c6f0 .cfa: sp 64 +
STACK CFI 6c700 .cfa: x29 64 + x19: .cfa -8 + ^ x20: .cfa -16 + ^ x21: .cfa -24 + ^ x22: .cfa -32 + ^ x23: .cfa -40 + ^ x24: .cfa -48 + ^ .ra: .cfa -56 + ^ x29: .cfa -64 + ^
STACK CFI 6c75c .cfa: sp 64 +
STACK CFI 6c76c .cfa: sp 0 +
STACK CFI 6c770 .cfa: x29 64 +
STACK CFI 6c8ec .cfa: sp 64 +
STACK CFI 6c8fc .cfa: sp 0 +
STACK CFI 6c900 .cfa: x29 64 +
STACK CFI 6c908 .cfa: sp 64 +
STACK CFI 6c918 .cfa: sp 0 +
STACK CFI INIT 6c91c 230 .cfa: sp 0 +
STACK CFI 6c920 .cfa: sp 64 +
STACK CFI 6c930 .cfa: x29 64 + x19: .cfa -8 + ^ x20: .cfa -16 + ^ x21: .cfa -24 + ^ x22: .cfa -32 + ^ x23: .cfa -40 + ^ x24: .cfa -48 + ^ .ra: .cfa -56 + ^ x29: .cfa -64 + ^
STACK CFI 6c98c .cfa: sp 64 +
STACK CFI 6c99c .cfa: sp 0 +
STACK CFI 6c9a0 .cfa: x29 64 +
STACK CFI 6cb1c .cfa: sp 64 +
STACK CFI 6cb2c .cfa: sp 0 +
STACK CFI 6cb30 .cfa: x29 64 +
STACK CFI 6cb38 .cfa: sp 64 +
STACK CFI 6cb48 .cfa: sp 0 +
STACK CFI INIT 6cb4c 230 .cfa: sp 0 +
STACK CFI 6cb50 .cfa: sp 64 +
STACK CFI 6cb60 .cfa: x29 64 + x19: .cfa -8 + ^ x20: .cfa -16 + ^ x21: .cfa -24 + ^ x22: .cfa -32 + ^ x23: .cfa -40 + ^ x24: .cfa -48 + ^ .ra: .cfa -56 + ^ x29: .cfa -64 + ^
STACK CFI 6cbbc .cfa: sp 64 +
STACK CFI 6cbcc .cfa: sp 0 +
STACK CFI 6cbd0 .cfa: x29 64 +
STACK CFI 6cd4c .cfa: sp 64 +
STACK CFI 6cd5c .cfa: sp 0 +
STACK CFI 6cd60 .cfa: x29 64 +
STACK CFI 6cd68 .cfa: sp 64 +
STACK CFI 6cd78 .cfa: sp 0 +
STACK CFI INIT 6cd7c 74 .cfa: sp 0 +
STACK CFI 6cd80 .cfa: sp 32 +
STACK CFI 6cd88 .cfa: x29 32 + x19: .cfa -8 + ^ x20: .cfa -16 + ^ .ra: .cfa -24 + ^ x29: .cfa -32 + ^
STACK CFI 6cdd8 .cfa: sp 32 +
STACK CFI 6cde0 .cfa: sp 0 +
STACK CFI 6cde4 .cfa: sp 32 +
STACK CFI 6cdec .cfa: sp 0 +
STACK CFI INIT 6cdf0 50 .cfa: sp 0 +
STACK CFI 6ce14 .cfa: sp 32 +
STACK CFI 6ce1c .cfa: x29 32 + x19: .cfa -16 + ^ .ra: .cfa -24 + ^ x29: .cfa -32 + ^
STACK CFI 6ce30 .cfa: sp 32 +
STACK CFI 6ce38 .cfa: sp 0 +
STACK CFI INIT 6ce40 4 .cfa: sp 0 +
STACK CFI INIT 6cfb8 5c .cfa: sp 0 +
STACK CFI 6cfbc .cfa: sp 32 +
STACK CFI 6cfc4 .cfa: x29 32 + x19: .cfa -16 + ^ .ra: .cfa -24 + ^ x29: .cfa -32 + ^
STACK CFI 6d008 .cfa: sp 32 +
STACK CFI 6d010 .cfa: sp 0 +
STACK CFI INIT 6d014 64 .cfa: sp 0 +
STACK CFI 6d018 .cfa: sp 32 +
STACK CFI 6d020 .cfa: x29 32 + x19: .cfa -16 + ^ .ra: .cfa -24 + ^ x29: .cfa -32 + ^
STACK CFI 6d06c .cfa: sp 32 +
STACK CFI 6d074 .cfa: sp 0 +
STACK CFI INIT 6d078 4 .cfa: sp 0 +
STACK CFI INIT 6d07c 4 .cfa: sp 0 +
STACK CFI INIT 6d080 34 .cfa: sp 0 +
STACK CFI 6d084 .cfa: sp 32 +
STACK CFI 6d08c .cfa: x29 32 + x19: .cfa -16 + ^ .ra: .cfa -24 + ^ x29: .cfa -32 + ^
STACK CFI 6d0a8 .cfa: sp 32 +
STACK CFI 6d0b0 .cfa: sp 0 +
STACK CFI INIT 6d0b4 14 .cfa: sp 0 +
STACK CFI INIT 6d0c8 4 .cfa: sp 0 +
STACK CFI INIT 6d0cc 4 .cfa: sp 0 +
STACK CFI INIT 6d0d0 10 .cfa: sp 0 +
STACK CFI INIT 6d0e0 1c .cfa: sp 0 +
STACK CFI INIT 6d0fc c .cfa: sp 0 +
STACK CFI INIT 6eae8 12c .cfa: sp 0 +
STACK CFI 6eaec .cfa: sp 80 +
STACK CFI 6eb00 .cfa: x29 64 + x19: .cfa -8 + ^ x20: .cfa -16 + ^ x21: .cfa -24 + ^ x22: .cfa -32 + ^ x23: .cfa -48 + ^ .ra: .cfa -56 + ^ x29: .cfa -64 + ^
STACK CFI 6ebf8 .cfa: sp 80 +
STACK CFI 6ec0c .cfa: sp 0 +
STACK CFI 6ec10 .cfa: x29 64 +
STACK CFI INIT 6fa70 10 .cfa: sp 0 +
STACK CFI INIT 701d0 60 .cfa: sp 0 +
STACK CFI 701d4 .cfa: sp 32 +
STACK CFI 701dc .cfa: x29 32 + x19: .cfa -8 + ^ x20: .cfa -16 + ^ .ra: .cfa -24 + ^ x29: .cfa -32 + ^
STACK CFI 70224 .cfa: sp 32 +
STACK CFI 7022c .cfa: sp 0 +
STACK CFI INIT 70230 10 .cfa: sp 0 +
STACK CFI INIT 70240 54 .cfa: sp 0 +
STACK CFI 70244 .cfa: sp 32 +
STACK CFI 7024c .cfa: x29 32 + x19: .cfa -16 + ^ .ra: .cfa -24 + ^ x29: .cfa -32 + ^
STACK CFI 70288 .cfa: sp 32 +
STACK CFI 70290 .cfa: sp 0 +
STACK CFI INIT 736e0 8 .cfa: sp 0 +
STACK CFI INIT 736e8 3c .cfa: sp 0 +
STACK CFI 736ec .cfa: sp 32 +
STACK CFI 736f4 .cfa: x29 32 + x19: .cfa -8 + ^ x20: .cfa -16 + ^ .ra: .cfa -24 + ^ x29: .cfa -32 + ^
STACK CFI 73718 .cfa: sp 32 +
STACK CFI 73720 .cfa: sp 0 +
STACK CFI INIT 73af0 24 .cfa: sp 0 +
STACK CFI 73af4 .cfa: sp 32 +
STACK CFI 73afc .cfa: x29 32 + x19: .cfa -16 + ^ .ra: .cfa -24 + ^ x29: .cfa -32 + ^
STACK CFI 73b08 .cfa: sp 32 +
STACK CFI 73b10 .cfa: sp 0 +
STACK CFI INIT 73b14 2c .cfa: sp 0 +
STACK CFI 73b18 .cfa: sp 32 +
STACK CFI 73b20 .cfa: x29 32 + x19: .cfa -16 + ^ .ra: .cfa -24 + ^ x29: .cfa -32 + ^
STACK CFI 73b34 .cfa: sp 32 +
STACK CFI 73b3c .cfa: sp 0 +
STACK CFI INIT 73b40 28 .cfa: sp 0 +
STACK CFI INIT 73b68 4 .cfa: sp 0 +
STACK CFI INIT 73b6c 8 .cfa: sp 0 +
STACK CFI INIT 73cbc 8 .cfa: sp 0 +
STACK CFI INIT 73cc4 28 .cfa: sp 0 +
STACK CFI 73cc8 .cfa: sp 32 +
STACK CFI 73cd0 .cfa: x29 32 + x19: .cfa -16 + ^ .ra: .cfa -24 + ^ x29: .cfa -32 + ^
STACK CFI 73ce0 .cfa: sp 32 +
STACK CFI 73ce8 .cfa: sp 0 +
STACK CFI INIT 73cec 2c .cfa: sp 0 +
STACK CFI INIT 73d18 4 .cfa: sp 0 +
STACK CFI INIT 73d1c 4 .cfa: sp 0 +
STACK CFI INIT 73d20 4 .cfa: sp 0 +
STACK CFI INIT 73d24 4 .cfa: sp 0 +
STACK CFI INIT 73d28 4 .cfa: sp 0 +
STACK CFI INIT 73d2c 8 .cfa: sp 0 +
STACK CFI INIT 73eac 2c .cfa: sp 0 +
STACK CFI 73eb0 .cfa: sp 32 +
STACK CFI 73eb8 .cfa: x29 32 + x19: .cfa -16 + ^ .ra: .cfa -24 + ^ x29: .cfa -32 + ^
STACK CFI 73ecc .cfa: sp 32 +
STACK CFI 73ed4 .cfa: sp 0 +
STACK CFI INIT 73ed8 28 .cfa: sp 0 +
STACK CFI INIT 74080 2c .cfa: sp 0 +
STACK CFI INIT 741e8 24 .cfa: sp 0 +
STACK CFI 741ec .cfa: sp 32 +
STACK CFI 741f4 .cfa: x29 32 + x19: .cfa -16 + ^ .ra: .cfa -24 + ^ x29: .cfa -32 + ^
STACK CFI 74200 .cfa: sp 32 +
STACK CFI 74208 .cfa: sp 0 +
STACK CFI INIT 7420c 2c .cfa: sp 0 +
STACK CFI 74210 .cfa: sp 32 +
STACK CFI 74218 .cfa: x29 32 + x19: .cfa -16 + ^ .ra: .cfa -24 + ^ x29: .cfa -32 + ^
STACK CFI 7422c .cfa: sp 32 +
STACK CFI 74234 .cfa: sp 0 +
STACK CFI INIT 74238 28 .cfa: sp 0 +
STACK CFI INIT 743a8 8 .cfa: sp 0 +
STACK CFI INIT 743b0 28 .cfa: sp 0 +
STACK CFI 743b4 .cfa: sp 32 +
STACK CFI 743bc .cfa: x29 32 + x19: .cfa -16 + ^ .ra: .cfa -24 + ^ x29: .cfa -32 + ^
STACK CFI 743cc .cfa: sp 32 +
STACK CFI 743d4 .cfa: sp 0 +
STACK CFI INIT 743d8 2c .cfa: sp 0 +
STACK CFI INIT 7448c 4 .cfa: sp 0 +
STACK CFI INIT 744fc 4 .cfa: sp 0 +
STACK CFI INIT 74500 4 .cfa: sp 0 +
STACK CFI INIT 74504 40 .cfa: sp 0 +
STACK CFI 74508 .cfa: sp 32 +
STACK CFI 74510 .cfa: x29 32 + x19: .cfa -16 + ^ .ra: .cfa -24 + ^ x29: .cfa -32 + ^
STACK CFI 74538 .cfa: sp 32 +
STACK CFI 74540 .cfa: sp 0 +
STACK CFI INIT 74544 20 .cfa: sp 0 +
STACK CFI INIT 74564 4 .cfa: sp 0 +
STACK CFI INIT 74568 4 .cfa: sp 0 +
STACK CFI INIT 7456c 20 .cfa: sp 0 +
STACK CFI INIT 7458c 1c .cfa: sp 0 +
STACK CFI INIT 745a8 c .cfa: sp 0 +
STACK CFI INIT 74620 4 .cfa: sp 0 +
STACK CFI INIT 74690 4 .cfa: sp 0 +
STACK CFI INIT 74694 34 .cfa: sp 0 +
STACK CFI 74698 .cfa: sp 32 +
STACK CFI 746a0 .cfa: x29 32 + x19: .cfa -16 + ^ .ra: .cfa -24 + ^ x29: .cfa -32 + ^
STACK CFI 746bc .cfa: sp 32 +
STACK CFI 746c4 .cfa: sp 0 +
STACK CFI INIT 746c8 3c .cfa: sp 0 +
STACK CFI 746cc .cfa: sp 32 +
STACK CFI 746d4 .cfa: x29 32 + x19: .cfa -16 + ^ .ra: .cfa -24 + ^ x29: .cfa -32 + ^
STACK CFI 746f8 .cfa: sp 32 +
STACK CFI 74700 .cfa: sp 0 +
STACK CFI INIT 74704 14 .cfa: sp 0 +
STACK CFI 74708 .cfa: sp 16 +
STACK CFI 7470c .cfa: x29 16 + .ra: .cfa -8 + ^ x29: .cfa -16 + ^
STACK CFI INIT 74718 24 .cfa: sp 0 +
STACK CFI 7471c .cfa: sp 32 +
STACK CFI 74724 .cfa: x29 32 + x19: .cfa -16 + ^ .ra: .cfa -24 + ^ x29: .cfa -32 + ^
STACK CFI 74730 .cfa: sp 32 +
STACK CFI 74738 .cfa: sp 0 +
STACK CFI INIT 74880 14 .cfa: sp 0 +
STACK CFI 74884 .cfa: sp 16 +
STACK CFI 74888 .cfa: x29 16 + .ra: .cfa -8 + ^ x29: .cfa -16 + ^
STACK CFI INIT 74900 4 .cfa: sp 0 +
STACK CFI INIT 74970 4 .cfa: sp 0 +
STACK CFI INIT 74974 4 .cfa: sp 0 +
STACK CFI INIT 74978 4 .cfa: sp 0 +
STACK CFI INIT 7497c 40 .cfa: sp 0 +
STACK CFI 74980 .cfa: sp 32 +
STACK CFI 74988 .cfa: x29 32 + x19: .cfa -16 + ^ .ra: .cfa -24 + ^ x29: .cfa -32 + ^
STACK CFI 749b0 .cfa: sp 32 +
STACK CFI 749b8 .cfa: sp 0 +
STACK CFI INIT 749bc 20 .cfa: sp 0 +
STACK CFI INIT 749dc 4 .cfa: sp 0 +
STACK CFI INIT 749e0 4 .cfa: sp 0 +
STACK CFI INIT 749e4 20 .cfa: sp 0 +
STACK CFI INIT 74a04 1c .cfa: sp 0 +
STACK CFI INIT 74a20 c .cfa: sp 0 +
STACK CFI INIT 74a2c 4 .cfa: sp 0 +
STACK CFI INIT 74ba4 74 .cfa: sp 0 +
STACK CFI 74ba8 .cfa: sp 32 +
STACK CFI 74bb0 .cfa: x29 32 + x19: .cfa -16 + ^ .ra: .cfa -24 + ^ x29: .cfa -32 + ^
STACK CFI 74c0c .cfa: sp 32 +
STACK CFI 74c14 .cfa: sp 0 +
STACK CFI INIT 74c18 7c .cfa: sp 0 +
STACK CFI 74c1c .cfa: sp 32 +
STACK CFI 74c24 .cfa: x29 32 + x19: .cfa -16 + ^ .ra: .cfa -24 + ^ x29: .cfa -32 + ^
STACK CFI 74c88 .cfa: sp 32 +
STACK CFI 74c90 .cfa: sp 0 +
STACK CFI INIT 74c94 60 .cfa: sp 0 +
STACK CFI 74c98 .cfa: sp 32 +
STACK CFI 74ca0 .cfa: x29 32 + x19: .cfa -8 + ^ x20: .cfa -16 + ^ .ra: .cfa -24 + ^ x29: .cfa -32 + ^
STACK CFI 74cc0 .cfa: sp 32 +
STACK CFI 74cc8 .cfa: sp 0 +
STACK CFI 74ccc .cfa: x29 32 +
STACK CFI 74ce8 .cfa: sp 32 +
STACK CFI 74cf0 .cfa: sp 0 +
STACK CFI INIT 74cf4 70 .cfa: sp 0 +
STACK CFI 74cf8 .cfa: sp 32 +
STACK CFI 74d00 .cfa: x29 32 + x19: .cfa -8 + ^ x20: .cfa -16 + ^ .ra: .cfa -24 + ^ x29: .cfa -32 + ^
STACK CFI 74d28 .cfa: sp 32 +
STACK CFI 74d30 .cfa: sp 0 +
STACK CFI 74d34 .cfa: x29 32 +
STACK CFI 74d58 .cfa: sp 32 +
STACK CFI 74d60 .cfa: sp 0 +
STACK CFI INIT 74d64 10 .cfa: sp 0 +
STACK CFI INIT 74d74 30 .cfa: sp 0 +
STACK CFI 74d78 .cfa: sp 32 +
STACK CFI 74d80 .cfa: x29 32 + x19: .cfa -16 + ^ .ra: .cfa -24 + ^ x29: .cfa -32 + ^
STACK CFI 74d98 .cfa: sp 32 +
STACK CFI 74da0 .cfa: sp 0 +
STACK CFI INIT 74da4 4 .cfa: sp 0 +
STACK CFI INIT 74da8 4 .cfa: sp 0 +
STACK CFI INIT 74dac 4 .cfa: sp 0 +
STACK CFI INIT 74db0 34 .cfa: sp 0 +
STACK CFI 74db4 .cfa: sp 32 +
STACK CFI 74dbc .cfa: x29 32 + x19: .cfa -16 + ^ .ra: .cfa -24 + ^ x29: .cfa -32 + ^
STACK CFI 74dd8 .cfa: sp 32 +
STACK CFI 74de0 .cfa: sp 0 +
STACK CFI INIT 74de4 14 .cfa: sp 0 +
STACK CFI INIT 74df8 4 .cfa: sp 0 +
STACK CFI INIT 74dfc 4 .cfa: sp 0 +
STACK CFI INIT 751ec 1c .cfa: sp 0 +
STACK CFI INIT 75208 c .cfa: sp 0 +
STACK CFI INIT 75214 4 .cfa: sp 0 +
STACK CFI INIT 75218 14 .cfa: sp 0 +
STACK CFI INIT 7522c 4 .cfa: sp 0 +
STACK CFI INIT 75230 4 .cfa: sp 0 +
STACK CFI INIT 75234 34 .cfa: sp 0 +
STACK CFI 75238 .cfa: sp 32 +
STACK CFI 75240 .cfa: x29 32 + x19: .cfa -16 + ^ .ra: .cfa -24 + ^ x29: .cfa -32 + ^
STACK CFI 7525c .cfa: sp 32 +
STACK CFI 75264 .cfa: sp 0 +
STACK CFI INIT 75268 14 .cfa: sp 0 +
STACK CFI INIT 7527c 4 .cfa: sp 0 +
STACK CFI INIT 75280 4 .cfa: sp 0 +
STACK CFI INIT 75670 1c .cfa: sp 0 +
STACK CFI INIT 7568c c .cfa: sp 0 +
STACK CFI INIT 75698 60 .cfa: sp 0 +
STACK CFI 7569c .cfa: sp 32 +
STACK CFI 756a4 .cfa: x29 32 + x19: .cfa -8 + ^ x20: .cfa -16 + ^ .ra: .cfa -24 + ^ x29: .cfa -32 + ^
STACK CFI 756c4 .cfa: sp 32 +
STACK CFI 756cc .cfa: sp 0 +
STACK CFI 756d0 .cfa: x29 32 +
STACK CFI 756ec .cfa: sp 32 +
STACK CFI 756f4 .cfa: sp 0 +
STACK CFI INIT 756f8 70 .cfa: sp 0 +
STACK CFI 756fc .cfa: sp 32 +
STACK CFI 75704 .cfa: x29 32 + x19: .cfa -8 + ^ x20: .cfa -16 + ^ .ra: .cfa -24 + ^ x29: .cfa -32 + ^
STACK CFI 7572c .cfa: sp 32 +
STACK CFI 75734 .cfa: sp 0 +
STACK CFI 75738 .cfa: x29 32 +
STACK CFI 7575c .cfa: sp 32 +
STACK CFI 75764 .cfa: sp 0 +
STACK CFI INIT 75768 10 .cfa: sp 0 +
STACK CFI INIT 75778 30 .cfa: sp 0 +
STACK CFI 7577c .cfa: sp 32 +
STACK CFI 75784 .cfa: x29 32 + x19: .cfa -16 + ^ .ra: .cfa -24 + ^ x29: .cfa -32 + ^
STACK CFI 7579c .cfa: sp 32 +
STACK CFI 757a4 .cfa: sp 0 +
STACK CFI INIT 757a8 4 .cfa: sp 0 +
STACK CFI INIT 757ac 4 .cfa: sp 0 +
STACK CFI INIT 757b0 4 .cfa: sp 0 +
STACK CFI INIT 757b4 34 .cfa: sp 0 +
STACK CFI 757b8 .cfa: sp 32 +
STACK CFI 757c0 .cfa: x29 32 + x19: .cfa -16 + ^ .ra: .cfa -24 + ^ x29: .cfa -32 + ^
STACK CFI 757dc .cfa: sp 32 +
STACK CFI 757e4 .cfa: sp 0 +
STACK CFI INIT 757e8 14 .cfa: sp 0 +
STACK CFI INIT 757fc 4 .cfa: sp 0 +
STACK CFI INIT 75800 4 .cfa: sp 0 +
STACK CFI INIT 75944 1c .cfa: sp 0 +
STACK CFI INIT 75960 c .cfa: sp 0 +
STACK CFI INIT 7596c 4 .cfa: sp 0 +
STACK CFI INIT 75970 4 .cfa: sp 0 +
STACK CFI INIT 75974 34 .cfa: sp 0 +
STACK CFI 75978 .cfa: sp 32 +
STACK CFI 75980 .cfa: x29 32 + x19: .cfa -16 + ^ .ra: .cfa -24 + ^ x29: .cfa -32 + ^
STACK CFI 7599c .cfa: sp 32 +
STACK CFI 759a4 .cfa: sp 0 +
STACK CFI INIT 759a8 14 .cfa: sp 0 +
STACK CFI INIT 759bc 4 .cfa: sp 0 +
STACK CFI INIT 759c0 4 .cfa: sp 0 +
STACK CFI INIT 75c6c 1c .cfa: sp 0 +
STACK CFI INIT 75c88 c .cfa: sp 0 +
STACK CFI INIT 75c94 308 .cfa: sp 0 +
STACK CFI 75c98 .cfa: sp 128 +
STACK CFI 75cb0 .cfa: x29 64 + x19: .cfa -8 + ^ x20: .cfa -16 + ^ x21: .cfa -24 + ^ x22: .cfa -32 + ^ x23: .cfa -48 + ^ .ra: .cfa -56 + ^ x29: .cfa -64 + ^ v8: .cfa -72 + ^ v9: .cfa -80 + ^
STACK CFI 75ee4 .cfa: sp 128 +
STACK CFI 75efc .cfa: sp 0 +
STACK CFI 75f00 .cfa: x29 64 +
STACK CFI INIT 75f9c 60 .cfa: sp 0 +
STACK CFI 75fa0 .cfa: sp 32 +
STACK CFI 75fa8 .cfa: x29 32 + x19: .cfa -8 + ^ x20: .cfa -16 + ^ .ra: .cfa -24 + ^ x29: .cfa -32 + ^
STACK CFI 75fc8 .cfa: sp 32 +
STACK CFI 75fd0 .cfa: sp 0 +
STACK CFI 75fd4 .cfa: x29 32 +
STACK CFI 75ff0 .cfa: sp 32 +
STACK CFI 75ff8 .cfa: sp 0 +
STACK CFI INIT 75ffc 70 .cfa: sp 0 +
STACK CFI 76000 .cfa: sp 32 +
STACK CFI 76008 .cfa: x29 32 + x19: .cfa -8 + ^ x20: .cfa -16 + ^ .ra: .cfa -24 + ^ x29: .cfa -32 + ^
STACK CFI 76030 .cfa: sp 32 +
STACK CFI 76038 .cfa: sp 0 +
STACK CFI 7603c .cfa: x29 32 +
STACK CFI 76060 .cfa: sp 32 +
STACK CFI 76068 .cfa: sp 0 +
STACK CFI INIT 7606c 10 .cfa: sp 0 +
STACK CFI INIT 7607c 30 .cfa: sp 0 +
STACK CFI 76080 .cfa: sp 32 +
STACK CFI 76088 .cfa: x29 32 + x19: .cfa -16 + ^ .ra: .cfa -24 + ^ x29: .cfa -32 + ^
STACK CFI 760a0 .cfa: sp 32 +
STACK CFI 760a8 .cfa: sp 0 +
STACK CFI INIT 760ac 4 .cfa: sp 0 +
STACK CFI INIT 760b0 4 .cfa: sp 0 +
STACK CFI INIT 76294 8 .cfa: sp 0 +
STACK CFI INIT 7629c 8 .cfa: sp 0 +
STACK CFI INIT 762a4 10 .cfa: sp 0 +
STACK CFI INIT 762b4 84 .cfa: sp 0 +
STACK CFI 762bc .cfa: sp 32 +
STACK CFI 762c4 .cfa: x29 32 + x19: .cfa -16 + ^ .ra: .cfa -24 + ^ x29: .cfa -32 + ^
STACK CFI 76314 .cfa: sp 32 +
STACK CFI 7631c .cfa: sp 0 +
STACK CFI 76328 .cfa: x29 32 +
STACK CFI 7632c .cfa: sp 32 +
STACK CFI 76334 .cfa: sp 0 +
STACK CFI INIT 76514 50 .cfa: sp 0 +
STACK CFI 76518 .cfa: sp 32 +
STACK CFI 76520 .cfa: x29 32 + x19: .cfa -16 + ^ .ra: .cfa -24 + ^ x29: .cfa -32 + ^
STACK CFI 76558 .cfa: sp 32 +
STACK CFI 76560 .cfa: sp 0 +
STACK CFI INIT 76694 24 .cfa: sp 0 +
STACK CFI 76698 .cfa: sp 32 +
STACK CFI 766a0 .cfa: x29 32 + x19: .cfa -16 + ^ .ra: .cfa -24 + ^ x29: .cfa -32 + ^
STACK CFI 766ac .cfa: sp 32 +
STACK CFI 766b4 .cfa: sp 0 +
STACK CFI INIT 7b2e4 1c .cfa: sp 0 +
STACK CFI INIT 7b300 1c .cfa: sp 0 +
STACK CFI INIT 7b904 4 .cfa: sp 0 +
STACK CFI INIT 7b908 10 .cfa: sp 0 +
STACK CFI INIT 7bf48 8c .cfa: sp 0 +
STACK CFI 7bf4c .cfa: sp 32 +
STACK CFI 7bf54 .cfa: x29 32 + x19: .cfa -16 + ^ .ra: .cfa -24 + ^ x29: .cfa -32 + ^
STACK CFI 7bfc8 .cfa: sp 32 +
STACK CFI 7bfd0 .cfa: sp 0 +
STACK CFI INIT 7c07c 4 .cfa: sp 0 +
STACK CFI INIT 7c080 34 .cfa: sp 0 +
STACK CFI 7c084 .cfa: sp 32 +
STACK CFI 7c08c .cfa: x29 32 + x19: .cfa -16 + ^ .ra: .cfa -24 + ^ x29: .cfa -32 + ^
STACK CFI 7c0a8 .cfa: sp 32 +
STACK CFI 7c0b0 .cfa: sp 0 +
STACK CFI INIT 7c0b4 14 .cfa: sp 0 +
STACK CFI INIT 7c0c8 4 .cfa: sp 0 +
STACK CFI INIT 7c0cc 4 .cfa: sp 0 +
STACK CFI INIT 7c0d0 f0 .cfa: sp 0 +
STACK CFI 7c0d4 .cfa: sp 48 +
STACK CFI 7c0e0 .cfa: x29 48 + x19: .cfa -8 + ^ x20: .cfa -16 + ^ x21: .cfa -24 + ^ x22: .cfa -32 + ^ .ra: .cfa -40 + ^ x29: .cfa -48 + ^
STACK CFI 7c190 .cfa: sp 48 +
STACK CFI 7c19c .cfa: sp 0 +
STACK CFI 7c1a0 .cfa: x29 48 +
STACK CFI 7c1b0 .cfa: sp 48 +
STACK CFI 7c1bc .cfa: sp 0 +
STACK CFI INIT 7c1c0 1c .cfa: sp 0 +
STACK CFI INIT 7c1dc c .cfa: sp 0 +
STACK CFI INIT 7c1e8 4 .cfa: sp 0 +
STACK CFI INIT 7c1ec 34 .cfa: sp 0 +
STACK CFI 7c1f0 .cfa: sp 32 +
STACK CFI 7c1f8 .cfa: x29 32 + x19: .cfa -16 + ^ .ra: .cfa -24 + ^ x29: .cfa -32 + ^
STACK CFI 7c214 .cfa: sp 32 +
STACK CFI 7c21c .cfa: sp 0 +
STACK CFI INIT 7c220 14 .cfa: sp 0 +
STACK CFI INIT 7c234 4 .cfa: sp 0 +
STACK CFI INIT 7c238 4 .cfa: sp 0 +
STACK CFI INIT 7c23c 34 .cfa: sp 0 +
STACK CFI 7c24c .cfa: sp 16 +
STACK CFI 7c250 .cfa: x29 16 + .ra: .cfa -8 + ^ x29: .cfa -16 + ^
STACK CFI 7c260 .cfa: sp 16 +
STACK CFI 7c264 .cfa: sp 0 +
STACK CFI INIT 7c270 1c .cfa: sp 0 +
STACK CFI INIT 7c28c c .cfa: sp 0 +
STACK CFI INIT 7c298 4 .cfa: sp 0 +
STACK CFI INIT 7c29c 34 .cfa: sp 0 +
STACK CFI 7c2a0 .cfa: sp 32 +
STACK CFI 7c2a8 .cfa: x29 32 + x19: .cfa -16 + ^ .ra: .cfa -24 + ^ x29: .cfa -32 + ^
STACK CFI 7c2c4 .cfa: sp 32 +
STACK CFI 7c2cc .cfa: sp 0 +
STACK CFI INIT 7c2d0 14 .cfa: sp 0 +
STACK CFI INIT 7c2e4 4 .cfa: sp 0 +
STACK CFI INIT 7c2e8 4 .cfa: sp 0 +
STACK CFI INIT 7c2ec 84 .cfa: sp 0 +
STACK CFI 7c2f0 .cfa: sp 32 +
STACK CFI 7c2f8 .cfa: x29 32 + x19: .cfa -16 + ^ .ra: .cfa -24 + ^ x29: .cfa -32 + ^
STACK CFI 7c338 .cfa: sp 32 +
STACK CFI 7c340 .cfa: sp 0 +
STACK CFI 7c344 .cfa: x29 32 +
STACK CFI 7c354 .cfa: sp 32 +
STACK CFI 7c35c .cfa: sp 0 +
STACK CFI 7c360 .cfa: x29 32 +
STACK CFI 7c364 .cfa: sp 32 +
STACK CFI 7c36c .cfa: sp 0 +
STACK CFI INIT 7c370 1c .cfa: sp 0 +
STACK CFI INIT 7c38c c .cfa: sp 0 +
STACK CFI INIT 7ca1c 4 .cfa: sp 0 +
STACK CFI INIT 7ca20 3c .cfa: sp 0 +
STACK CFI 7ca24 .cfa: sp 32 +
STACK CFI 7ca2c .cfa: x29 32 + x19: .cfa -16 + ^ .ra: .cfa -24 + ^ x29: .cfa -32 + ^
STACK CFI 7ca50 .cfa: sp 32 +
STACK CFI 7ca58 .cfa: sp 0 +
STACK CFI INIT 7cb50 4 .cfa: sp 0 +
STACK CFI INIT 7cb54 34 .cfa: sp 0 +
STACK CFI 7cb58 .cfa: sp 32 +
STACK CFI 7cb60 .cfa: x29 32 + x19: .cfa -16 + ^ .ra: .cfa -24 + ^ x29: .cfa -32 + ^
STACK CFI 7cb7c .cfa: sp 32 +
STACK CFI 7cb84 .cfa: sp 0 +
STACK CFI INIT 7cb88 14 .cfa: sp 0 +
STACK CFI INIT 7cb9c 4 .cfa: sp 0 +
STACK CFI INIT 7cba0 4 .cfa: sp 0 +
STACK CFI INIT 7d1e4 1c .cfa: sp 0 +
STACK CFI INIT 7d200 c .cfa: sp 0 +
STACK CFI INIT 7daf4 4c .cfa: sp 0 +
STACK CFI INIT 7db40 5c .cfa: sp 0 +
STACK CFI 7db44 .cfa: sp 32 +
STACK CFI 7db4c .cfa: x29 32 + x19: .cfa -16 + ^ .ra: .cfa -24 + ^ x29: .cfa -32 + ^
STACK CFI 7db90 .cfa: sp 32 +
STACK CFI 7db98 .cfa: sp 0 +
STACK CFI INIT 7dc38 88 .cfa: sp 0 +
STACK CFI 7dc3c .cfa: sp 32 +
STACK CFI 7dc44 .cfa: x29 32 + x19: .cfa -16 + ^ .ra: .cfa -24 + ^ x29: .cfa -32 + ^
STACK CFI 7dc84 .cfa: sp 32 +
STACK CFI 7dc8c .cfa: sp 0 +
STACK CFI 7dc90 .cfa: x29 32 +
STACK CFI 7dc94 .cfa: sp 32 +
STACK CFI 7dc9c .cfa: sp 0 +
STACK CFI 7dca0 .cfa: x29 32 +
STACK CFI 7dcb4 .cfa: sp 32 +
STACK CFI 7dcbc .cfa: sp 0 +
STACK CFI INIT 7dcc0 40 .cfa: sp 0 +
STACK CFI INIT 7dd00 50 .cfa: sp 0 +
STACK CFI 7dd04 .cfa: sp 32 +
STACK CFI 7dd0c .cfa: x29 32 + x19: .cfa -16 + ^ .ra: .cfa -24 + ^ x29: .cfa -32 + ^
STACK CFI 7dd44 .cfa: sp 32 +
STACK CFI 7dd4c .cfa: sp 0 +
STACK CFI INIT 7dd50 78 .cfa: sp 0 +
STACK CFI 7dd54 .cfa: sp 48 +
STACK CFI 7dd60 .cfa: x29 32 + x19: .cfa -16 + ^ .ra: .cfa -24 + ^ x29: .cfa -32 + ^
STACK CFI 7dda0 .cfa: sp 48 +
STACK CFI 7ddac .cfa: sp 0 +
STACK CFI 7ddb0 .cfa: x29 32 +
STACK CFI INIT 7ddc8 1c .cfa: sp 0 +
STACK CFI INIT 7dde4 c .cfa: sp 0 +
STACK CFI INIT 7ddf0 4 .cfa: sp 0 +
STACK CFI INIT 7ddf4 34 .cfa: sp 0 +
STACK CFI 7ddf8 .cfa: sp 32 +
STACK CFI 7de00 .cfa: x29 32 + x19: .cfa -16 + ^ .ra: .cfa -24 + ^ x29: .cfa -32 + ^
STACK CFI 7de1c .cfa: sp 32 +
STACK CFI 7de24 .cfa: sp 0 +
STACK CFI INIT 7de28 14 .cfa: sp 0 +
STACK CFI INIT 7de3c 4 .cfa: sp 0 +
STACK CFI INIT 7de40 4 .cfa: sp 0 +
STACK CFI INIT 7de44 78 .cfa: sp 0 +
STACK CFI 7de48 .cfa: sp 48 +
STACK CFI 7de54 .cfa: x29 48 + x19: .cfa -8 + ^ x20: .cfa -16 + ^ x21: .cfa -32 + ^ .ra: .cfa -40 + ^ x29: .cfa -48 + ^
STACK CFI 7de70 .cfa: sp 48 +
STACK CFI 7de7c .cfa: sp 0 +
STACK CFI 7de80 .cfa: x29 48 +
STACK CFI 7deac .cfa: sp 48 +
STACK CFI 7deb8 .cfa: sp 0 +
STACK CFI INIT 7debc 1c .cfa: sp 0 +
STACK CFI INIT 7ded8 c .cfa: sp 0 +
STACK CFI INIT 7dee4 19c .cfa: sp 0 +
STACK CFI 7dee8 .cfa: sp 48 +
STACK CFI 7def4 .cfa: x29 48 + x19: .cfa -8 + ^ x20: .cfa -16 + ^ x21: .cfa -32 + ^ .ra: .cfa -40 + ^ x29: .cfa -48 + ^
STACK CFI 7e04c .cfa: sp 48 +
STACK CFI 7e058 .cfa: sp 0 +
STACK CFI 7e05c .cfa: sp 48 +
STACK CFI 7e068 .cfa: sp 0 +
STACK CFI 7e06c .cfa: x29 48 +
STACK CFI 7e070 .cfa: sp 48 +
STACK CFI 7e07c .cfa: sp 0 +
STACK CFI INIT 7e080 19c .cfa: sp 0 +
STACK CFI 7e084 .cfa: sp 48 +
STACK CFI 7e090 .cfa: x29 48 + x19: .cfa -8 + ^ x20: .cfa -16 + ^ x21: .cfa -24 + ^ x22: .cfa -32 + ^ .ra: .cfa -40 + ^ x29: .cfa -48 + ^
STACK CFI 7e144 .cfa: sp 48 +
STACK CFI 7e150 .cfa: sp 0 +
STACK CFI 7e154 .cfa: x29 48 +
STACK CFI 7e158 .cfa: sp 48 +
STACK CFI 7e164 .cfa: sp 0 +
STACK CFI 7e168 .cfa: x29 48 +
STACK CFI 7e20c .cfa: sp 48 +
STACK CFI 7e218 .cfa: sp 0 +
STACK CFI INIT 7e21c 4 .cfa: sp 0 +
STACK CFI INIT 7e220 34 .cfa: sp 0 +
STACK CFI 7e224 .cfa: sp 32 +
STACK CFI 7e22c .cfa: x29 32 + x19: .cfa -16 + ^ .ra: .cfa -24 + ^ x29: .cfa -32 + ^
STACK CFI 7e248 .cfa: sp 32 +
STACK CFI 7e250 .cfa: sp 0 +
STACK CFI INIT 7e254 14 .cfa: sp 0 +
STACK CFI INIT 7e268 4 .cfa: sp 0 +
STACK CFI INIT 7e26c 4 .cfa: sp 0 +
STACK CFI INIT 7e270 78 .cfa: sp 0 +
STACK CFI 7e274 .cfa: sp 48 +
STACK CFI 7e280 .cfa: x29 48 + x19: .cfa -8 + ^ x20: .cfa -16 + ^ x21: .cfa -32 + ^ .ra: .cfa -40 + ^ x29: .cfa -48 + ^
STACK CFI 7e29c .cfa: sp 48 +
STACK CFI 7e2a8 .cfa: sp 0 +
STACK CFI 7e2ac .cfa: x29 48 +
STACK CFI 7e2d8 .cfa: sp 48 +
STACK CFI 7e2e4 .cfa: sp 0 +
STACK CFI INIT 7e2e8 1c .cfa: sp 0 +
STACK CFI INIT 7e304 c .cfa: sp 0 +
STACK CFI INIT 7e310 4 .cfa: sp 0 +
STACK CFI INIT 7e314 34 .cfa: sp 0 +
STACK CFI 7e318 .cfa: sp 32 +
STACK CFI 7e320 .cfa: x29 32 + x19: .cfa -16 + ^ .ra: .cfa -24 + ^ x29: .cfa -32 + ^
STACK CFI 7e33c .cfa: sp 32 +
STACK CFI 7e344 .cfa: sp 0 +
STACK CFI INIT 7e348 14 .cfa: sp 0 +
STACK CFI INIT 7e35c 4 .cfa: sp 0 +
STACK CFI INIT 7e360 4 .cfa: sp 0 +
STACK CFI INIT 7e364 78 .cfa: sp 0 +
STACK CFI 7e368 .cfa: sp 32 +
STACK CFI 7e370 .cfa: x29 32 + x19: .cfa -8 + ^ x20: .cfa -16 + ^ .ra: .cfa -24 + ^ x29: .cfa -32 + ^
STACK CFI 7e388 .cfa: sp 32 +
STACK CFI 7e390 .cfa: sp 0 +
STACK CFI 7e394 .cfa: x29 32 +
STACK CFI 7e3d0 .cfa: sp 32 +
STACK CFI 7e3d8 .cfa: sp 0 +
STACK CFI INIT 7e3dc 1c .cfa: sp 0 +
STACK CFI INIT 7e3f8 c .cfa: sp 0 +
STACK CFI INIT 7e404 14c .cfa: sp 0 +
STACK CFI 7e408 .cfa: sp 112 +
STACK CFI 7e424 .cfa: x29 96 + x19: .cfa -8 + ^ x20: .cfa -16 + ^ x21: .cfa -24 + ^ x22: .cfa -32 + ^ x23: .cfa -40 + ^ x24: .cfa -48 + ^ x25: .cfa -56 + ^ x26: .cfa -64 + ^ x27: .cfa -72 + ^ x28: .cfa -80 + ^ .ra: .cfa -88 + ^ x29: .cfa -96 + ^
STACK CFI 7e448 .cfa: sp 112 +
STACK CFI 7e464 .cfa: sp 0 +
STACK CFI 7e468 .cfa: x29 96 +
STACK CFI 7e530 .cfa: sp 112 +
STACK CFI 7e54c .cfa: sp 0 +
STACK CFI INIT 7e550 4 .cfa: sp 0 +
STACK CFI INIT 7e554 34 .cfa: sp 0 +
STACK CFI 7e558 .cfa: sp 32 +
STACK CFI 7e560 .cfa: x29 32 + x19: .cfa -16 + ^ .ra: .cfa -24 + ^ x29: .cfa -32 + ^
STACK CFI 7e57c .cfa: sp 32 +
STACK CFI 7e584 .cfa: sp 0 +
STACK CFI INIT 7e588 14 .cfa: sp 0 +
STACK CFI INIT 7e59c 4 .cfa: sp 0 +
STACK CFI INIT 7e5a0 4 .cfa: sp 0 +
STACK CFI INIT 7e5a4 78 .cfa: sp 0 +
STACK CFI 7e5a8 .cfa: sp 32 +
STACK CFI 7e5b0 .cfa: x29 32 + x19: .cfa -8 + ^ x20: .cfa -16 + ^ .ra: .cfa -24 + ^ x29: .cfa -32 + ^
STACK CFI 7e5c8 .cfa: sp 32 +
STACK CFI 7e5d0 .cfa: sp 0 +
STACK CFI 7e5d4 .cfa: x29 32 +
STACK CFI 7e610 .cfa: sp 32 +
STACK CFI 7e618 .cfa: sp 0 +
STACK CFI INIT 7e61c 1c .cfa: sp 0 +
STACK CFI INIT 7e638 c .cfa: sp 0 +
STACK CFI INIT 7e644 4 .cfa: sp 0 +
STACK CFI INIT 7e648 34 .cfa: sp 0 +
STACK CFI 7e64c .cfa: sp 32 +
STACK CFI 7e654 .cfa: x29 32 + x19: .cfa -16 + ^ .ra: .cfa -24 + ^ x29: .cfa -32 + ^
STACK CFI 7e670 .cfa: sp 32 +
STACK CFI 7e678 .cfa: sp 0 +
STACK CFI INIT 7e67c 14 .cfa: sp 0 +
STACK CFI INIT 7e690 4 .cfa: sp 0 +
STACK CFI INIT 7e694 4 .cfa: sp 0 +
STACK CFI INIT 7e698 50 .cfa: sp 0 +
STACK CFI 7e6a4 .cfa: sp 32 +
STACK CFI 7e6ac .cfa: x29 32 + x19: .cfa -16 + ^ .ra: .cfa -24 + ^ x29: .cfa -32 + ^
STACK CFI 7e6d8 .cfa: sp 32 +
STACK CFI 7e6e0 .cfa: sp 0 +
STACK CFI INIT 7e6e8 1c .cfa: sp 0 +
STACK CFI INIT 7e704 c .cfa: sp 0 +
STACK CFI INIT 7e710 4 .cfa: sp 0 +
STACK CFI INIT 7e714 34 .cfa: sp 0 +
STACK CFI 7e718 .cfa: sp 32 +
STACK CFI 7e720 .cfa: x29 32 + x19: .cfa -16 + ^ .ra: .cfa -24 + ^ x29: .cfa -32 + ^
STACK CFI 7e73c .cfa: sp 32 +
STACK CFI 7e744 .cfa: sp 0 +
STACK CFI INIT 7e748 14 .cfa: sp 0 +
STACK CFI INIT 7e75c 4 .cfa: sp 0 +
STACK CFI INIT 7e760 4 .cfa: sp 0 +
STACK CFI INIT 7e764 60 .cfa: sp 0 +
STACK CFI 7e768 .cfa: sp 32 +
STACK CFI 7e770 .cfa: x29 32 + x19: .cfa -8 + ^ x20: .cfa -16 + ^ .ra: .cfa -24 + ^ x29: .cfa -32 + ^
STACK CFI 7e7b8 .cfa: sp 32 +
STACK CFI 7e7c0 .cfa: sp 0 +
STACK CFI INIT 7e7c4 1c .cfa: sp 0 +
STACK CFI INIT 7e7e0 c .cfa: sp 0 +
STACK CFI INIT 7e7ec 4 .cfa: sp 0 +
STACK CFI INIT 7e7f0 34 .cfa: sp 0 +
STACK CFI 7e7f4 .cfa: sp 32 +
STACK CFI 7e7fc .cfa: x29 32 + x19: .cfa -16 + ^ .ra: .cfa -24 + ^ x29: .cfa -32 + ^
STACK CFI 7e818 .cfa: sp 32 +
STACK CFI 7e820 .cfa: sp 0 +
STACK CFI INIT 7e824 14 .cfa: sp 0 +
STACK CFI INIT 7e838 4 .cfa: sp 0 +
STACK CFI INIT 7e83c 4 .cfa: sp 0 +
STACK CFI INIT 7e840 60 .cfa: sp 0 +
STACK CFI 7e844 .cfa: sp 32 +
STACK CFI 7e84c .cfa: x29 32 + x19: .cfa -8 + ^ x20: .cfa -16 + ^ .ra: .cfa -24 + ^ x29: .cfa -32 + ^
STACK CFI 7e894 .cfa: sp 32 +
STACK CFI 7e89c .cfa: sp 0 +
STACK CFI INIT 7e8a0 1c .cfa: sp 0 +
STACK CFI INIT 7e8bc c .cfa: sp 0 +
STACK CFI INIT 7e8c8 4 .cfa: sp 0 +
STACK CFI INIT 7e8cc 34 .cfa: sp 0 +
STACK CFI 7e8d0 .cfa: sp 32 +
STACK CFI 7e8d8 .cfa: x29 32 + x19: .cfa -16 + ^ .ra: .cfa -24 + ^ x29: .cfa -32 + ^
STACK CFI 7e8f4 .cfa: sp 32 +
STACK CFI 7e8fc .cfa: sp 0 +
STACK CFI INIT 7e900 14 .cfa: sp 0 +
STACK CFI INIT 7e914 4 .cfa: sp 0 +
STACK CFI INIT 7e918 4 .cfa: sp 0 +
STACK CFI INIT 7e91c 78 .cfa: sp 0 +
STACK CFI 7e920 .cfa: sp 32 +
STACK CFI 7e928 .cfa: x29 32 + x19: .cfa -8 + ^ x20: .cfa -16 + ^ .ra: .cfa -24 + ^ x29: .cfa -32 + ^
STACK CFI 7e940 .cfa: sp 32 +
STACK CFI 7e948 .cfa: sp 0 +
STACK CFI 7e94c .cfa: x29 32 +
STACK CFI 7e988 .cfa: sp 32 +
STACK CFI 7e990 .cfa: sp 0 +
STACK CFI INIT 7e994 1c .cfa: sp 0 +
STACK CFI INIT 7e9b0 c .cfa: sp 0 +
STACK CFI INIT 7e9bc 4 .cfa: sp 0 +
STACK CFI INIT 7e9c0 34 .cfa: sp 0 +
STACK CFI 7e9c4 .cfa: sp 32 +
STACK CFI 7e9cc .cfa: x29 32 + x19: .cfa -16 + ^ .ra: .cfa -24 + ^ x29: .cfa -32 + ^
STACK CFI 7e9e8 .cfa: sp 32 +
STACK CFI 7e9f0 .cfa: sp 0 +
STACK CFI INIT 7e9f4 14 .cfa: sp 0 +
STACK CFI INIT 7ea08 4 .cfa: sp 0 +
STACK CFI INIT 7ea0c 4 .cfa: sp 0 +
STACK CFI INIT 7ea10 78 .cfa: sp 0 +
STACK CFI 7ea14 .cfa: sp 32 +
STACK CFI 7ea1c .cfa: x29 32 + x19: .cfa -8 + ^ x20: .cfa -16 + ^ .ra: .cfa -24 + ^ x29: .cfa -32 + ^
STACK CFI 7ea34 .cfa: sp 32 +
STACK CFI 7ea3c .cfa: sp 0 +
STACK CFI 7ea40 .cfa: x29 32 +
STACK CFI 7ea7c .cfa: sp 32 +
STACK CFI 7ea84 .cfa: sp 0 +
STACK CFI INIT 7ea88 1c .cfa: sp 0 +
STACK CFI INIT 7eaa4 c .cfa: sp 0 +
STACK CFI INIT 7eab0 4 .cfa: sp 0 +
STACK CFI INIT 7eab4 34 .cfa: sp 0 +
STACK CFI 7eab8 .cfa: sp 32 +
STACK CFI 7eac0 .cfa: x29 32 + x19: .cfa -16 + ^ .ra: .cfa -24 + ^ x29: .cfa -32 + ^
STACK CFI 7eadc .cfa: sp 32 +
STACK CFI 7eae4 .cfa: sp 0 +
STACK CFI INIT 7eae8 14 .cfa: sp 0 +
STACK CFI INIT 7eafc 4 .cfa: sp 0 +
STACK CFI INIT 7eb00 4 .cfa: sp 0 +
STACK CFI INIT 7eb04 78 .cfa: sp 0 +
STACK CFI 7eb08 .cfa: sp 32 +
STACK CFI 7eb10 .cfa: x29 32 + x19: .cfa -8 + ^ x20: .cfa -16 + ^ .ra: .cfa -24 + ^ x29: .cfa -32 + ^
STACK CFI 7eb28 .cfa: sp 32 +
STACK CFI 7eb30 .cfa: sp 0 +
STACK CFI 7eb34 .cfa: x29 32 +
STACK CFI 7eb70 .cfa: sp 32 +
STACK CFI 7eb78 .cfa: sp 0 +
STACK CFI INIT 7eb7c 1c .cfa: sp 0 +
STACK CFI INIT 7eb98 c .cfa: sp 0 +
STACK CFI INIT 7eba4 4 .cfa: sp 0 +
STACK CFI INIT 7eba8 34 .cfa: sp 0 +
STACK CFI 7ebac .cfa: sp 32 +
STACK CFI 7ebb4 .cfa: x29 32 + x19: .cfa -16 + ^ .ra: .cfa -24 + ^ x29: .cfa -32 + ^
STACK CFI 7ebd0 .cfa: sp 32 +
STACK CFI 7ebd8 .cfa: sp 0 +
STACK CFI INIT 7ebdc 14 .cfa: sp 0 +
STACK CFI INIT 7ebf0 4 .cfa: sp 0 +
STACK CFI INIT 7ebf4 4 .cfa: sp 0 +
STACK CFI INIT 7ebf8 78 .cfa: sp 0 +
STACK CFI 7ebfc .cfa: sp 32 +
STACK CFI 7ec04 .cfa: x29 32 + x19: .cfa -8 + ^ x20: .cfa -16 + ^ .ra: .cfa -24 + ^ x29: .cfa -32 + ^
STACK CFI 7ec1c .cfa: sp 32 +
STACK CFI 7ec24 .cfa: sp 0 +
STACK CFI 7ec28 .cfa: x29 32 +
STACK CFI 7ec64 .cfa: sp 32 +
STACK CFI 7ec6c .cfa: sp 0 +
STACK CFI INIT 7ec70 1c .cfa: sp 0 +
STACK CFI INIT 7ec8c c .cfa: sp 0 +
STACK CFI INIT 7ec98 4 .cfa: sp 0 +
STACK CFI INIT 7ec9c 4 .cfa: sp 0 +
STACK CFI INIT 7eca0 34 .cfa: sp 0 +
STACK CFI 7eca4 .cfa: sp 32 +
STACK CFI 7ecac .cfa: x29 32 + x19: .cfa -16 + ^ .ra: .cfa -24 + ^ x29: .cfa -32 + ^
STACK CFI 7ecc8 .cfa: sp 32 +
STACK CFI 7ecd0 .cfa: sp 0 +
STACK CFI INIT 7ecd4 14 .cfa: sp 0 +
STACK CFI INIT 7ece8 4 .cfa: sp 0 +
STACK CFI INIT 7ecec 4 .cfa: sp 0 +
STACK CFI INIT 7ecf0 70 .cfa: sp 0 +
STACK CFI 7ecfc .cfa: sp 32 +
STACK CFI 7ed04 .cfa: x29 32 + x19: .cfa -16 + ^ .ra: .cfa -24 + ^ x29: .cfa -32 + ^
STACK CFI 7ed50 .cfa: sp 32 +
STACK CFI 7ed58 .cfa: sp 0 +
STACK CFI INIT 7ed60 1c .cfa: sp 0 +
STACK CFI INIT 7ed7c c .cfa: sp 0 +
STACK CFI INIT 7b2e0 4 .cfa: sp 0 +
STACK CFI INIT 7ed88 4c .cfa: sp 0 +
STACK CFI 7ed8c .cfa: sp 32 +
STACK CFI 7ed94 .cfa: x29 32 + x19: .cfa -8 + ^ x20: .cfa -16 + ^ .ra: .cfa -24 + ^ x29: .cfa -32 + ^
STACK CFI 7edbc .cfa: sp 32 +
STACK CFI 7edc4 .cfa: sp 0 +
STACK CFI 7edc8 .cfa: sp 32 +
STACK CFI 7edd0 .cfa: sp 0 +
STACK CFI INIT 7f14c 50 .cfa: sp 0 +
STACK CFI 7f150 .cfa: sp 32 +
STACK CFI 7f158 .cfa: x29 32 + x19: .cfa -16 + ^ .ra: .cfa -24 + ^ x29: .cfa -32 + ^
STACK CFI 7f170 .cfa: sp 32 +
STACK CFI 7f178 .cfa: sp 0 +
STACK CFI 7f17c .cfa: x29 32 +
STACK CFI 7f190 .cfa: sp 32 +
STACK CFI 7f198 .cfa: sp 0 +
STACK CFI INIT 7f19c 50 .cfa: sp 0 +
STACK CFI 7f1a0 .cfa: sp 32 +
STACK CFI 7f1a8 .cfa: x29 32 + x19: .cfa -16 + ^ .ra: .cfa -24 + ^ x29: .cfa -32 + ^
STACK CFI 7f1c0 .cfa: sp 32 +
STACK CFI 7f1c8 .cfa: sp 0 +
STACK CFI 7f1cc .cfa: x29 32 +
STACK CFI 7f1e0 .cfa: sp 32 +
STACK CFI 7f1e8 .cfa: sp 0 +
STACK CFI INIT 7f1ec 7c .cfa: sp 0 +
STACK CFI 7f1f0 .cfa: sp 32 +
STACK CFI 7f1f8 .cfa: x29 32 + x19: .cfa -8 + ^ x20: .cfa -16 + ^ .ra: .cfa -24 + ^ x29: .cfa -32 + ^
STACK CFI 7f22c .cfa: sp 32 +
STACK CFI 7f234 .cfa: sp 0 +
STACK CFI 7f238 .cfa: x29 32 +
STACK CFI 7f25c .cfa: sp 32 +
STACK CFI 7f264 .cfa: sp 0 +
STACK CFI INIT 7f454 14 .cfa: sp 0 +
STACK CFI INIT 7f518 8 .cfa: sp 0 +
STACK CFI INIT 8010c 1c .cfa: sp 0 +
STACK CFI INIT 80128 1c .cfa: sp 0 +
STACK CFI INIT 80144 ac .cfa: sp 0 +
STACK CFI 80148 .cfa: sp 32 +
STACK CFI 80150 .cfa: x29 32 + x19: .cfa -8 + ^ x20: .cfa -16 + ^ .ra: .cfa -24 + ^ x29: .cfa -32 + ^
STACK CFI 801bc .cfa: sp 32 +
STACK CFI 801c4 .cfa: sp 0 +
STACK CFI 801c8 .cfa: x29 32 +
STACK CFI 801e4 .cfa: sp 32 +
STACK CFI 801ec .cfa: sp 0 +
STACK CFI INIT 801f0 bc .cfa: sp 0 +
STACK CFI 801f4 .cfa: sp 32 +
STACK CFI 801fc .cfa: x29 32 + x19: .cfa -8 + ^ x20: .cfa -16 + ^ .ra: .cfa -24 + ^ x29: .cfa -32 + ^
STACK CFI 80270 .cfa: sp 32 +
STACK CFI 80278 .cfa: sp 0 +
STACK CFI 8027c .cfa: x29 32 +
STACK CFI 802a0 .cfa: sp 32 +
STACK CFI 802a8 .cfa: sp 0 +
STACK CFI INIT 802ac 4 .cfa: sp 0 +
STACK CFI INIT 804e8 98 .cfa: sp 0 +
STACK CFI 804ec .cfa: sp 80 +
STACK CFI 804fc .cfa: x29 48 + x19: .cfa -8 + ^ x20: .cfa -16 + ^ x21: .cfa -24 + ^ x22: .cfa -32 + ^ .ra: .cfa -40 + ^ x29: .cfa -48 + ^
STACK CFI 80568 .cfa: sp 80 +
STACK CFI 80578 .cfa: sp 0 +
STACK CFI 8057c .cfa: x29 48 +
STACK CFI INIT 80580 98 .cfa: sp 0 +
STACK CFI 80584 .cfa: sp 80 +
STACK CFI 80594 .cfa: x29 48 + x19: .cfa -8 + ^ x20: .cfa -16 + ^ x21: .cfa -24 + ^ x22: .cfa -32 + ^ .ra: .cfa -40 + ^ x29: .cfa -48 + ^
STACK CFI 80600 .cfa: sp 80 +
STACK CFI 80610 .cfa: sp 0 +
STACK CFI 80614 .cfa: x29 48 +
STACK CFI INIT 80618 bc .cfa: sp 0 +
STACK CFI 8061c .cfa: sp 32 +
STACK CFI 80624 .cfa: x29 32 + x19: .cfa -8 + ^ x20: .cfa -16 + ^ .ra: .cfa -24 + ^ x29: .cfa -32 + ^
STACK CFI 80698 .cfa: sp 32 +
STACK CFI 806a0 .cfa: sp 0 +
STACK CFI 806a4 .cfa: x29 32 +
STACK CFI 806c8 .cfa: sp 32 +
STACK CFI 806d0 .cfa: sp 0 +
STACK CFI INIT 80a24 10 .cfa: sp 0 +
STACK CFI INIT 80a34 30 .cfa: sp 0 +
STACK CFI 80a38 .cfa: sp 32 +
STACK CFI 80a40 .cfa: x29 32 + x19: .cfa -16 + ^ .ra: .cfa -24 + ^ x29: .cfa -32 + ^
STACK CFI 80a58 .cfa: sp 32 +
STACK CFI 80a60 .cfa: sp 0 +
STACK CFI INIT 80a64 4 .cfa: sp 0 +
STACK CFI INIT 80a68 4 .cfa: sp 0 +
STACK CFI INIT 80a6c 6c .cfa: sp 0 +
STACK CFI 80a70 .cfa: sp 32 +
STACK CFI 80a78 .cfa: x29 32 + x19: .cfa -8 + ^ x20: .cfa -16 + ^ .ra: .cfa -24 + ^ x29: .cfa -32 + ^
STACK CFI 80aa4 .cfa: sp 32 +
STACK CFI 80aac .cfa: sp 0 +
STACK CFI 80ab0 .cfa: x29 32 +
STACK CFI 80acc .cfa: sp 32 +
STACK CFI 80ad4 .cfa: sp 0 +
STACK CFI INIT 80ad8 4 .cfa: sp 0 +
STACK CFI INIT 81234 4 .cfa: sp 0 +
STACK CFI INIT 820f8 14 .cfa: sp 0 +
STACK CFI INIT 8210c 4c .cfa: sp 0 +
STACK CFI 82110 .cfa: sp 32 +
STACK CFI 82118 .cfa: x29 32 + x19: .cfa -8 + ^ x20: .cfa -16 + ^ .ra: .cfa -24 + ^ x29: .cfa -32 + ^
STACK CFI 82140 .cfa: sp 32 +
STACK CFI 82148 .cfa: sp 0 +
STACK CFI 8214c .cfa: sp 32 +
STACK CFI 82154 .cfa: sp 0 +
STACK CFI INIT 82158 1ac .cfa: sp 0 +
STACK CFI 8215c .cfa: sp 32 +
STACK CFI 82164 .cfa: x29 32 + x19: .cfa -8 + ^ x20: .cfa -16 + ^ .ra: .cfa -24 + ^ x29: .cfa -32 + ^
STACK CFI 82254 .cfa: sp 32 +
STACK CFI 8225c .cfa: sp 0 +
STACK CFI 82260 .cfa: x29 32 +
STACK CFI INIT 82964 4 .cfa: sp 0 +
STACK CFI INIT 82a38 4 .cfa: sp 0 +
STACK CFI INIT 82a3c 24 .cfa: sp 0 +
STACK CFI 82a40 .cfa: sp 16 +
STACK CFI 82a44 .cfa: x29 16 + .ra: .cfa -8 + ^ x29: .cfa -16 + ^
STACK CFI 82a58 .cfa: sp 16 +
STACK CFI 82a5c .cfa: sp 0 +
STACK CFI INIT 82a60 10 .cfa: sp 0 +
STACK CFI INIT 82a70 4 .cfa: sp 0 +
STACK CFI INIT 82a74 4 .cfa: sp 0 +
STACK CFI INIT 82b0c 1c .cfa: sp 0 +
STACK CFI INIT 82b28 c .cfa: sp 0 +
STACK CFI INIT 82d14 4 .cfa: sp 0 +
STACK CFI INIT 82d18 34 .cfa: sp 0 +
STACK CFI 82d1c .cfa: sp 32 +
STACK CFI 82d24 .cfa: x29 32 + x19: .cfa -16 + ^ .ra: .cfa -24 + ^ x29: .cfa -32 + ^
STACK CFI 82d40 .cfa: sp 32 +
STACK CFI 82d48 .cfa: sp 0 +
STACK CFI INIT 82d4c 14 .cfa: sp 0 +
STACK CFI INIT 82d60 4 .cfa: sp 0 +
STACK CFI INIT 82d64 4 .cfa: sp 0 +
STACK CFI INIT 82d68 c .cfa: sp 0 +
STACK CFI INIT 82d74 1c .cfa: sp 0 +
STACK CFI INIT 82d90 c .cfa: sp 0 +
STACK CFI INIT 82d9c 24 .cfa: sp 0 +
STACK CFI 82da0 .cfa: sp 32 +
STACK CFI 82da8 .cfa: x29 32 + x19: .cfa -16 + ^ .ra: .cfa -24 + ^ x29: .cfa -32 + ^
STACK CFI 82db4 .cfa: sp 32 +
STACK CFI 82dbc .cfa: sp 0 +
STACK CFI INIT 82dc0 34 .cfa: sp 0 +
STACK CFI 82dc4 .cfa: sp 16 +
STACK CFI 82dc8 .cfa: x29 16 + .ra: .cfa -8 + ^ x29: .cfa -16 + ^
STACK CFI INIT 82f78 10 .cfa: sp 0 +
STACK CFI INIT 82f88 30 .cfa: sp 0 +
STACK CFI 82f8c .cfa: sp 32 +
STACK CFI 82f94 .cfa: x29 32 + x19: .cfa -16 + ^ .ra: .cfa -24 + ^ x29: .cfa -32 + ^
STACK CFI 82fac .cfa: sp 32 +
STACK CFI 82fb4 .cfa: sp 0 +
STACK CFI INIT 82fb8 c .cfa: sp 0 +
STACK CFI INIT 82fc4 4 .cfa: sp 0 +
STACK CFI INIT 82fc8 10 .cfa: sp 0 +
STACK CFI INIT 82fd8 30 .cfa: sp 0 +
STACK CFI 82fdc .cfa: sp 32 +
STACK CFI 82fe4 .cfa: x29 32 + x19: .cfa -16 + ^ .ra: .cfa -24 + ^ x29: .cfa -32 + ^
STACK CFI 82ffc .cfa: sp 32 +
STACK CFI 83004 .cfa: sp 0 +
STACK CFI INIT 83008 4 .cfa: sp 0 +
STACK CFI INIT 8300c 4 .cfa: sp 0 +
STACK CFI INIT 83010 4 .cfa: sp 0 +
STACK CFI INIT 83014 4 .cfa: sp 0 +
STACK CFI INIT 83018 34 .cfa: sp 0 +
STACK CFI 8301c .cfa: sp 32 +
STACK CFI 83024 .cfa: x29 32 + x19: .cfa -16 + ^ .ra: .cfa -24 + ^ x29: .cfa -32 + ^
STACK CFI 83040 .cfa: sp 32 +
STACK CFI 83048 .cfa: sp 0 +
STACK CFI INIT 8304c 14 .cfa: sp 0 +
STACK CFI INIT 83060 4 .cfa: sp 0 +
STACK CFI INIT 83064 4 .cfa: sp 0 +
STACK CFI INIT 83068 14 .cfa: sp 0 +
STACK CFI INIT 8307c 1c .cfa: sp 0 +
STACK CFI INIT 83098 c .cfa: sp 0 +
STACK CFI INIT 830a4 3c .cfa: sp 0 +
STACK CFI 830a8 .cfa: sp 32 +
STACK CFI 830b0 .cfa: x29 32 + x19: .cfa -16 + ^ .ra: .cfa -24 + ^ x29: .cfa -32 + ^
STACK CFI 830bc .cfa: sp 32 +
STACK CFI 830c4 .cfa: sp 0 +
STACK CFI 830c8 .cfa: x29 32 +
STACK CFI 830d4 .cfa: sp 32 +
STACK CFI 830dc .cfa: sp 0 +
STACK CFI INIT 830e0 4c .cfa: sp 0 +
STACK CFI 830e4 .cfa: sp 32 +
STACK CFI 830ec .cfa: x29 32 + x19: .cfa -8 + ^ x20: .cfa -16 + ^ .ra: .cfa -24 + ^ x29: .cfa -32 + ^
STACK CFI 83114 .cfa: sp 32 +
STACK CFI 8311c .cfa: sp 0 +
STACK CFI 83120 .cfa: sp 32 +
STACK CFI 83128 .cfa: sp 0 +
STACK CFI INIT 8334c 64 .cfa: sp 0 +
STACK CFI 83350 .cfa: sp 32 +
STACK CFI 83358 .cfa: x29 32 + x19: .cfa -16 + ^ .ra: .cfa -24 + ^ x29: .cfa -32 + ^
STACK CFI 83384 .cfa: sp 32 +
STACK CFI 8338c .cfa: sp 0 +
STACK CFI 83390 .cfa: x29 32 +
STACK CFI 833a4 .cfa: sp 32 +
STACK CFI 833ac .cfa: sp 0 +
STACK CFI INIT 835d4 24 .cfa: sp 0 +
STACK CFI 835d8 .cfa: sp 32 +
STACK CFI 835e0 .cfa: x29 32 + x19: .cfa -16 + ^ .ra: .cfa -24 + ^ x29: .cfa -32 + ^
STACK CFI 835ec .cfa: sp 32 +
STACK CFI 835f4 .cfa: sp 0 +
STACK CFI INIT 83854 24 .cfa: sp 0 +
STACK CFI 83858 .cfa: sp 32 +
STACK CFI 83860 .cfa: x29 32 + x19: .cfa -16 + ^ .ra: .cfa -24 + ^ x29: .cfa -32 + ^
STACK CFI 8386c .cfa: sp 32 +
STACK CFI 83874 .cfa: sp 0 +
STACK CFI INIT 83878 8 .cfa: sp 0 +
STACK CFI INIT 83880 24 .cfa: sp 0 +
STACK CFI 83884 .cfa: sp 32 +
STACK CFI 8388c .cfa: x29 32 + x19: .cfa -16 + ^ .ra: .cfa -24 + ^ x29: .cfa -32 + ^
STACK CFI 83898 .cfa: sp 32 +
STACK CFI 838a0 .cfa: sp 0 +
STACK CFI INIT 838a4 28 .cfa: sp 0 +
STACK CFI 838a8 .cfa: sp 32 +
STACK CFI 838b0 .cfa: x29 32 + x19: .cfa -16 + ^ .ra: .cfa -24 + ^ x29: .cfa -32 + ^
STACK CFI 838c0 .cfa: sp 32 +
STACK CFI 838c8 .cfa: sp 0 +
STACK CFI INIT 83bcc 8 .cfa: sp 0 +
STACK CFI INIT 83bd4 24 .cfa: sp 0 +
STACK CFI 83bd8 .cfa: sp 32 +
STACK CFI 83be0 .cfa: x29 32 + x19: .cfa -16 + ^ .ra: .cfa -24 + ^ x29: .cfa -32 + ^
STACK CFI 83bec .cfa: sp 32 +
STACK CFI 83bf4 .cfa: sp 0 +
STACK CFI INIT 83bf8 28 .cfa: sp 0 +
STACK CFI 83bfc .cfa: sp 32 +
STACK CFI 83c04 .cfa: x29 32 + x19: .cfa -16 + ^ .ra: .cfa -24 + ^ x29: .cfa -32 + ^
STACK CFI 83c14 .cfa: sp 32 +
STACK CFI 83c1c .cfa: sp 0 +
STACK CFI INIT 83e84 8 .cfa: sp 0 +
STACK CFI INIT 83e8c 24 .cfa: sp 0 +
STACK CFI 83e90 .cfa: sp 32 +
STACK CFI 83e98 .cfa: x29 32 + x19: .cfa -16 + ^ .ra: .cfa -24 + ^ x29: .cfa -32 + ^
STACK CFI 83ea4 .cfa: sp 32 +
STACK CFI 83eac .cfa: sp 0 +
STACK CFI INIT 83eb0 28 .cfa: sp 0 +
STACK CFI 83eb4 .cfa: sp 32 +
STACK CFI 83ebc .cfa: x29 32 + x19: .cfa -16 + ^ .ra: .cfa -24 + ^ x29: .cfa -32 + ^
STACK CFI 83ecc .cfa: sp 32 +
STACK CFI 83ed4 .cfa: sp 0 +
STACK CFI INIT 83ed8 8 .cfa: sp 0 +
STACK CFI INIT 83ee0 24 .cfa: sp 0 +
STACK CFI 83ee4 .cfa: sp 32 +
STACK CFI 83eec .cfa: x29 32 + x19: .cfa -16 + ^ .ra: .cfa -24 + ^ x29: .cfa -32 + ^
STACK CFI 83ef8 .cfa: sp 32 +
STACK CFI 83f00 .cfa: sp 0 +
STACK CFI INIT 83f04 28 .cfa: sp 0 +
STACK CFI 83f08 .cfa: sp 32 +
STACK CFI 83f10 .cfa: x29 32 + x19: .cfa -16 + ^ .ra: .cfa -24 + ^ x29: .cfa -32 + ^
STACK CFI 83f20 .cfa: sp 32 +
STACK CFI 83f28 .cfa: sp 0 +
STACK CFI INIT 84250 4 .cfa: sp 0 +
STACK CFI INIT 84254 4 .cfa: sp 0 +
STACK CFI INIT 84258 4 .cfa: sp 0 +
STACK CFI INIT 8425c 4 .cfa: sp 0 +
STACK CFI INIT 84260 8 .cfa: sp 0 +
STACK CFI INIT 84268 4 .cfa: sp 0 +
STACK CFI INIT 8426c 1f8 .cfa: sp 0 +
STACK CFI 84270 .cfa: sp 112 +
STACK CFI 84290 .cfa: x29 72 + x19: .cfa -8 + ^ x20: .cfa -16 + ^ x21: .cfa -24 + ^ x22: .cfa -32 + ^ x23: .cfa -40 + ^ x24: .cfa -48 + ^ x25: .cfa -56 + ^ .ra: .cfa -64 + ^ x29: .cfa -72 + ^ v8: .cfa -80 + ^ v9: .cfa -88 + ^ v10: .cfa -96 + ^
STACK CFI 8443c .cfa: sp 112 +
STACK CFI 8445c .cfa: sp 0 +
STACK CFI 84460 .cfa: x29 72 +
STACK CFI INIT 85998 4 .cfa: sp 0 +
STACK CFI INIT 8599c 14 .cfa: sp 0 +
STACK CFI INIT 85ebc c .cfa: sp 0 +
STACK CFI INIT 85ec8 24c .cfa: sp 0 +
STACK CFI INIT 86114 a0 .cfa: sp 0 +
STACK CFI 86120 .cfa: sp 32 +
STACK CFI 86178 .cfa: sp 0 +
STACK CFI 8617c .cfa: sp 32 +
STACK CFI 86184 .cfa: sp 0 +
STACK CFI 86188 .cfa: sp 32 +
STACK CFI 8619c .cfa: sp 0 +
STACK CFI 861a0 .cfa: sp 32 +
STACK CFI 861b0 .cfa: sp 0 +
STACK CFI INIT 861b4 38 .cfa: sp 0 +
STACK CFI 861c0 .cfa: sp 32 +
STACK CFI 861e8 .cfa: sp 0 +
STACK CFI INIT 86480 7c .cfa: sp 0 +
STACK CFI 86484 .cfa: sp 32 +
STACK CFI 8648c .cfa: x29 32 + x19: .cfa -16 + ^ .ra: .cfa -24 + ^ x29: .cfa -32 + ^
STACK CFI 864b8 .cfa: sp 32 +
STACK CFI 864c0 .cfa: sp 0 +
STACK CFI 864c4 .cfa: x29 32 +
STACK CFI 864f0 .cfa: sp 32 +
STACK CFI 864f8 .cfa: sp 0 +
STACK CFI INIT 8654c 2c .cfa: sp 0 +
STACK CFI 86550 .cfa: sp 32 +
STACK CFI 86558 .cfa: x29 32 + x19: .cfa -16 + ^ .ra: .cfa -24 + ^ x29: .cfa -32 + ^
STACK CFI 8656c .cfa: sp 32 +
STACK CFI 86574 .cfa: sp 0 +
STACK CFI INIT 86d38 64 .cfa: sp 0 +
STACK CFI 86d3c .cfa: sp 32 +
STACK CFI 86d44 .cfa: x29 32 + x19: .cfa -16 + ^ .ra: .cfa -24 + ^ x29: .cfa -32 + ^
STACK CFI 86d60 .cfa: sp 32 +
STACK CFI 86d68 .cfa: sp 0 +
STACK CFI 86d6c .cfa: x29 32 +
STACK CFI 86d90 .cfa: sp 32 +
STACK CFI 86d98 .cfa: sp 0 +
STACK CFI INIT 86d9c 570 .cfa: sp 0 +
STACK CFI 86da0 .cfa: sp 176 +
STACK CFI 86db4 .cfa: x29 64 + x19: .cfa -8 + ^ x20: .cfa -16 + ^ x21: .cfa -24 + ^ x22: .cfa -32 + ^ x23: .cfa -40 + ^ x24: .cfa -48 + ^ .ra: .cfa -56 + ^ x29: .cfa -64 + ^
STACK CFI 86fe4 .cfa: sp 176 +
STACK CFI 86ff8 .cfa: sp 0 +
STACK CFI 86ffc .cfa: x29 64 +
STACK CFI 87048 .cfa: sp 176 +
STACK CFI 8705c .cfa: sp 0 +
STACK CFI 87060 .cfa: x29 64 +
STACK CFI 87098 .cfa: sp 176 +
STACK CFI 870ac .cfa: sp 0 +
STACK CFI 870b0 .cfa: x29 64 +
STACK CFI 870c8 .cfa: sp 176 +
STACK CFI 870dc .cfa: sp 0 +
STACK CFI 870e0 .cfa: x29 64 +
STACK CFI 87100 .cfa: sp 176 +
STACK CFI 87114 .cfa: sp 0 +
STACK CFI 87118 .cfa: x29 64 +
STACK CFI 87130 .cfa: sp 176 +
STACK CFI 87144 .cfa: sp 0 +
STACK CFI 87148 .cfa: x29 64 +
STACK CFI 8715c .cfa: sp 176 +
STACK CFI 87170 .cfa: sp 0 +
STACK CFI 87174 .cfa: x29 64 +
STACK CFI 87188 .cfa: sp 176 +
STACK CFI 8719c .cfa: sp 0 +
STACK CFI 871a0 .cfa: x29 64 +
STACK CFI 871b0 .cfa: sp 176 +
STACK CFI 871c4 .cfa: sp 0 +
STACK CFI 871c8 .cfa: x29 64 +
STACK CFI 871d8 .cfa: sp 176 +
STACK CFI 871ec .cfa: sp 0 +
STACK CFI 871f0 .cfa: x29 64 +
STACK CFI 87208 .cfa: sp 176 +
STACK CFI 8721c .cfa: sp 0 +
STACK CFI 87220 .cfa: x29 64 +
STACK CFI 87234 .cfa: sp 176 +
STACK CFI 87248 .cfa: sp 0 +
STACK CFI 8724c .cfa: x29 64 +
STACK CFI 87264 .cfa: sp 176 +
STACK CFI 87278 .cfa: sp 0 +
STACK CFI 8727c .cfa: x29 64 +
STACK CFI 872a8 .cfa: sp 176 +
STACK CFI 872bc .cfa: sp 0 +
STACK CFI 872c0 .cfa: x29 64 +
STACK CFI 872d4 .cfa: sp 176 +
STACK CFI 872e8 .cfa: sp 0 +
STACK CFI 872ec .cfa: x29 64 +
STACK CFI INIT 8730c 228 .cfa: sp 0 +
STACK CFI INIT 87534 2dc .cfa: sp 0 +
STACK CFI INIT 87810 53c .cfa: sp 0 +
STACK CFI INIT 87d4c 78 .cfa: sp 0 +
STACK CFI 87d50 .cfa: sp 48 +
STACK CFI 87d5c .cfa: x29 48 + x19: .cfa -8 + ^ x20: .cfa -16 + ^ x21: .cfa -24 + ^ x22: .cfa -32 + ^ .ra: .cfa -40 + ^ x29: .cfa -48 + ^
STACK CFI 87da4 .cfa: sp 48 +
STACK CFI 87db0 .cfa: sp 0 +
STACK CFI 87db4 .cfa: sp 48 +
STACK CFI 87dc0 .cfa: sp 0 +
STACK CFI INIT 87dc4 8c .cfa: sp 0 +
STACK CFI 87dc8 .cfa: sp 32 +
STACK CFI 87dd0 .cfa: x29 32 + x19: .cfa -16 + ^ .ra: .cfa -24 + ^ x29: .cfa -32 + ^
STACK CFI 87e04 .cfa: sp 32 +
STACK CFI 87e0c .cfa: sp 0 +
STACK CFI 87e10 .cfa: x29 32 +
STACK CFI 87e44 .cfa: sp 32 +
STACK CFI 87e4c .cfa: sp 0 +
STACK CFI INIT 87e50 24 .cfa: sp 0 +
STACK CFI 87e54 .cfa: sp 32 +
STACK CFI 87e5c .cfa: x29 32 + x19: .cfa -16 + ^ .ra: .cfa -24 + ^ x29: .cfa -32 + ^
STACK CFI 87e68 .cfa: sp 32 +
STACK CFI 87e70 .cfa: sp 0 +
STACK CFI INIT 87e74 150 .cfa: sp 0 +
STACK CFI 87e78 .cfa: sp 48 +
STACK CFI 87e84 .cfa: x29 48 + x19: .cfa -8 + ^ x20: .cfa -16 + ^ x21: .cfa -24 + ^ x22: .cfa -32 + ^ .ra: .cfa -40 + ^ x29: .cfa -48 + ^
STACK CFI 87fb4 .cfa: sp 48 +
STACK CFI 87fc0 .cfa: sp 0 +
STACK CFI INIT 87fc4 68 .cfa: sp 0 +
STACK CFI 87fc8 .cfa: sp 64 +
STACK CFI 87fd4 .cfa: x29 32 + x19: .cfa -16 + ^ .ra: .cfa -24 + ^ x29: .cfa -32 + ^
STACK CFI 88018 .cfa: sp 64 +
STACK CFI 88024 .cfa: sp 0 +
STACK CFI 88028 .cfa: x29 32 +
STACK CFI INIT 8802c 90 .cfa: sp 0 +
STACK CFI 88030 .cfa: sp 32 +
STACK CFI 88038 .cfa: x29 32 + x19: .cfa -8 + ^ x20: .cfa -16 + ^ .ra: .cfa -24 + ^ x29: .cfa -32 + ^
STACK CFI 88064 .cfa: sp 32 +
STACK CFI 8806c .cfa: sp 0 +
STACK CFI 88070 .cfa: x29 32 +
STACK CFI 880b0 .cfa: sp 32 +
STACK CFI 880b8 .cfa: sp 0 +
STACK CFI INIT 880bc ec .cfa: sp 0 +
STACK CFI 880c0 .cfa: sp 112 +
STACK CFI 880d0 .cfa: x29 48 + x19: .cfa -8 + ^ x20: .cfa -16 + ^ x21: .cfa -32 + ^ .ra: .cfa -40 + ^ x29: .cfa -48 + ^
STACK CFI 88190 .cfa: sp 112 +
STACK CFI 881a0 .cfa: sp 0 +
STACK CFI 881a4 .cfa: x29 48 +
STACK CFI INIT 881a8 ec .cfa: sp 0 +
STACK CFI 881ac .cfa: sp 112 +
STACK CFI 881bc .cfa: x29 48 + x19: .cfa -8 + ^ x20: .cfa -16 + ^ x21: .cfa -32 + ^ .ra: .cfa -40 + ^ x29: .cfa -48 + ^
STACK CFI 8827c .cfa: sp 112 +
STACK CFI 8828c .cfa: sp 0 +
STACK CFI 88290 .cfa: x29 48 +
STACK CFI INIT 88294 48 .cfa: sp 0 +
STACK CFI 88298 .cfa: sp 32 +
STACK CFI 882a0 .cfa: x29 32 + x19: .cfa -8 + ^ x20: .cfa -16 + ^ .ra: .cfa -24 + ^ x29: .cfa -32 + ^
STACK CFI 882c4 .cfa: sp 32 +
STACK CFI 882cc .cfa: sp 0 +
STACK CFI 882d0 .cfa: x29 32 +
STACK CFI INIT 882dc 98 .cfa: sp 0 +
STACK CFI 882e0 .cfa: sp 80 +
STACK CFI 882ec .cfa: x29 32 + x19: .cfa -16 + ^ .ra: .cfa -24 + ^ x29: .cfa -32 + ^
STACK CFI 88360 .cfa: sp 80 +
STACK CFI 8836c .cfa: sp 0 +
STACK CFI 88370 .cfa: x29 32 +
STACK CFI INIT 88374 260 .cfa: sp 0 +
STACK CFI 88378 .cfa: sp 112 +
STACK CFI 88390 .cfa: x29 80 + x19: .cfa -8 + ^ x20: .cfa -16 + ^ x21: .cfa -24 + ^ x22: .cfa -32 + ^ x23: .cfa -40 + ^ x24: .cfa -48 + ^ x25: .cfa -64 + ^ .ra: .cfa -72 + ^ x29: .cfa -80 + ^
STACK CFI 88574 .cfa: sp 112 +
STACK CFI 8858c .cfa: sp 0 +
STACK CFI 88590 .cfa: x29 80 +
STACK CFI INIT 885d4 150 .cfa: sp 0 +
STACK CFI 885d8 .cfa: sp 48 +
STACK CFI 885e4 .cfa: x29 48 + x19: .cfa -8 + ^ x20: .cfa -16 + ^ x21: .cfa -24 + ^ x22: .cfa -32 + ^ .ra: .cfa -40 + ^ x29: .cfa -48 + ^
STACK CFI 88714 .cfa: sp 48 +
STACK CFI 88720 .cfa: sp 0 +
STACK CFI INIT 88724 1e0 .cfa: sp 0 +
STACK CFI 88728 .cfa: sp 96 +
STACK CFI 8873c .cfa: x29 64 + x19: .cfa -8 + ^ x20: .cfa -16 + ^ x21: .cfa -24 + ^ x22: .cfa -32 + ^ x23: .cfa -40 + ^ x24: .cfa -48 + ^ .ra: .cfa -56 + ^ x29: .cfa -64 + ^
STACK CFI 888bc .cfa: sp 96 +
STACK CFI 888d0 .cfa: sp 0 +
STACK CFI 888d4 .cfa: x29 64 +
STACK CFI INIT 88904 284 .cfa: sp 0 +
STACK CFI 88908 .cfa: sp 112 +
STACK CFI 88920 .cfa: x29 80 + x19: .cfa -8 + ^ x20: .cfa -16 + ^ x21: .cfa -24 + ^ x22: .cfa -32 + ^ x23: .cfa -40 + ^ x24: .cfa -48 + ^ x25: .cfa -64 + ^ .ra: .cfa -72 + ^ x29: .cfa -80 + ^
STACK CFI 88b28 .cfa: sp 112 +
STACK CFI 88b40 .cfa: sp 0 +
STACK CFI 88b44 .cfa: x29 80 +
STACK CFI INIT 88b88 208 .cfa: sp 0 +
STACK CFI 88b8c .cfa: sp 96 +
STACK CFI 88ba0 .cfa: x29 64 + x19: .cfa -8 + ^ x20: .cfa -16 + ^ x21: .cfa -24 + ^ x22: .cfa -32 + ^ x23: .cfa -40 + ^ x24: .cfa -48 + ^ .ra: .cfa -56 + ^ x29: .cfa -64 + ^
STACK CFI 88d48 .cfa: sp 96 +
STACK CFI 88d5c .cfa: sp 0 +
STACK CFI 88d60 .cfa: x29 64 +
STACK CFI INIT 88d90 360 .cfa: sp 0 +
STACK CFI 88d94 .cfa: sp 160 +
STACK CFI 88db0 .cfa: x29 96 + x19: .cfa -8 + ^ x20: .cfa -16 + ^ x21: .cfa -24 + ^ x22: .cfa -32 + ^ x23: .cfa -40 + ^ x24: .cfa -48 + ^ x25: .cfa -56 + ^ x26: .cfa -64 + ^ x27: .cfa -72 + ^ x28: .cfa -80 + ^ .ra: .cfa -88 + ^ x29: .cfa -96 + ^
STACK CFI 8907c .cfa: sp 160 +
STACK CFI 89098 .cfa: sp 0 +
STACK CFI 8909c .cfa: x29 96 +
STACK CFI INIT 890f0 314 .cfa: sp 0 +
STACK CFI 890f4 .cfa: sp 144 +
STACK CFI 89110 .cfa: x29 96 + x19: .cfa -8 + ^ x20: .cfa -16 + ^ x21: .cfa -24 + ^ x22: .cfa -32 + ^ x23: .cfa -40 + ^ x24: .cfa -48 + ^ x25: .cfa -56 + ^ x26: .cfa -64 + ^ x27: .cfa -72 + ^ x28: .cfa -80 + ^ .ra: .cfa -88 + ^ x29: .cfa -96 + ^
STACK CFI 8938c .cfa: sp 144 +
STACK CFI 893a8 .cfa: sp 0 +
STACK CFI 893ac .cfa: x29 96 +
STACK CFI INIT 89404 290 .cfa: sp 0 +
STACK CFI 89408 .cfa: sp 128 +
STACK CFI 89420 .cfa: x29 80 + x19: .cfa -8 + ^ x20: .cfa -16 + ^ x21: .cfa -24 + ^ x22: .cfa -32 + ^ x23: .cfa -40 + ^ x24: .cfa -48 + ^ x25: .cfa -56 + ^ x26: .cfa -64 + ^ .ra: .cfa -72 + ^ x29: .cfa -80 + ^
STACK CFI 89674 .cfa: sp 128 +
STACK CFI 8968c .cfa: sp 0 +
STACK CFI 89690 .cfa: x29 80 +
STACK CFI INIT 89694 ddc .cfa: sp 0 +
STACK CFI 89698 .cfa: sp 144 +
STACK CFI 896b4 .cfa: x29 96 + x19: .cfa -8 + ^ x20: .cfa -16 + ^ x21: .cfa -24 + ^ x22: .cfa -32 + ^ x23: .cfa -40 + ^ x24: .cfa -48 + ^ x25: .cfa -56 + ^ x26: .cfa -64 + ^ x27: .cfa -72 + ^ x28: .cfa -80 + ^ .ra: .cfa -88 + ^ x29: .cfa -96 + ^
STACK CFI 8a348 .cfa: sp 144 +
STACK CFI 8a364 .cfa: sp 0 +
STACK CFI 8a368 .cfa: x29 96 +
STACK CFI INIT 8a470 1d0 .cfa: sp 0 +
STACK CFI 8a474 .cfa: sp 80 +
