MODULE Linux arm 68720A62602069E885494B9A33421A9A0 ninsam.to-do_list.android32.so
INFO CODE_ID 620A72682060E86985494B9A33421A9AEE2AAE5D
INFO GENERATOR mozilla/dump_syms 2.3.4
PUBLIC 184c0 0 __on_dlclose
PUBLIC 184d0 0 __emutls_unregister_key
PUBLIC 184d4 0 __on_dlclose_late
PUBLIC 184d8 0 __atexit_handler_wrapper
PUBLIC 184e4 0 atexit
PUBLIC 18504 0 pthread_atfork
FUNC 18514 778 0 __cxx_global_var_init
FUNC 18c8c 1c 0 geode::modifier::ModifyBase<geode::modifier::ModifyDerive<MyNotepadLayer, EditorUI> >::~ModifyBase()
FUNC 18cb0 580 0 geode::modifier::ModifyDerive<MyNotepadLayer, EditorUI>::apply()
FUNC 19230 3a 0 std::__ndk1::shared_ptr<geode::Hook>::~shared_ptr[abi:ne190000]()
FUNC 1926c 60 0 geode::impl::ResultData<geode::Hook*, std::__ndk1::basic_string<char, std::__ndk1::char_traits<char>, std::__ndk1::allocator<char> > >::~ResultData()
FUNC 192cc 3e 0 std::__ndk1::vector<std::__ndk1::basic_string<char, std::__ndk1::char_traits<char>, std::__ndk1::allocator<char> >, std::__ndk1::allocator<std::__ndk1::basic_string<char, std::__ndk1::char_traits<char>, std::__ndk1::allocator<char> > > >::~vector[abi:ne190000]()
FUNC 1930a 2 0 geode::modifier::ModifyBase<geode::modifier::ModifyDerive<MyNotepadLayer, EditorUI> >::apply()
PUBLIC 1930d 0 __clang_call_terminate
FUNC 19318 f8 0 _ZN5geode15UnwrapExceptionC2IRPNS_4HookEQsr4implE18IsStringStreamableIT_EEENS_4impl5OkTagEOS5_
FUNC 19410 34 0 std::__ndk1::__throw_bad_variant_access[abi:ne190000]()
FUNC 19444 d8 0 std::__ndk1::basic_stringstream<char, std::__ndk1::char_traits<char>, std::__ndk1::allocator<char> >::basic_stringstream[abi:ne190000]()
FUNC 1951c 68 0 std::__ndk1::basic_stringstream<char, std::__ndk1::char_traits<char>, std::__ndk1::allocator<char> >::~basic_stringstream()
FUNC 19584 10 0 geode::UnwrapException::~UnwrapException()
FUNC 19594 108 0 std::__ndk1::__put_character_sequence[abi:ne190000]<char, std::__ndk1::char_traits<char> >(std::__ndk1::basic_ostream<char, std::__ndk1::char_traits<char> >, std::__ndk1::basic_ostream const*, unsigned int)
FUNC 1969c 110 0 std::__ndk1::__pad_and_output[abi:ne190000]<char, std::__ndk1::char_traits<char> >(std::__ndk1::char_traits<char>, std::__ndk1::ostreambuf_iterator const*, std::__ndk1::ostreambuf_iterator const, std::__ndk1::ostreambuf_iterator const, std::__ndk1::ios_base&, std::__ndk1::ostreambuf_iterator)
FUNC 197ac 10 0 std::__ndk1::basic_string<char, std::__ndk1::char_traits<char>, std::__ndk1::allocator<char> >::__throw_length_error[abi:ne190000]() const
FUNC 197bc 38 0 std::__ndk1::__throw_length_error[abi:ne190000](char const*)
FUNC 197f4 18 0 std::length_error::length_error[abi:ne190000](char const*)
FUNC 1980c 28 0 std::__throw_bad_array_new_length([abi:ne190000], void)
FUNC 19834 da 0 std::__ndk1::basic_stringbuf<char, std::__ndk1::char_traits<char>, std::__ndk1::allocator<char> >::str[abi:ne190000]() &&
FUNC 1990e e0 0 std::__ndk1::basic_stringbuf<char, std::__ndk1::char_traits<char>, std::__ndk1::allocator<char> >::__init_buf_ptrs[abi:ne190000]()
FUNC 199ee 5e 0 std::__ndk1::basic_string<char, std::__ndk1::char_traits<char>, std::__ndk1::allocator<char> >::__erase_external_with_move(unsigned int, unsigned int)
FUNC 19a4c 3c 0 std::__ndk1::__throw_out_of_range[abi:ne190000](char const*)
FUNC 19a88 18 0 std::out_of_range::out_of_range[abi:ne190000](char const*)
FUNC 19aa0 46 0 std::__ndk1::basic_string<char, std::__ndk1::char_traits<char>, std::__ndk1::allocator<char> >::__init_copy_ctor_external(char const*, unsigned int)
FUNC 19ae6 3c 0 std::__ndk1::__split_buffer<std::__ndk1::basic_string<char, std::__ndk1::char_traits<char>, std::__ndk1::allocator<char> >, std::__ndk1::allocator<std::__ndk1::basic_string<char, std::__ndk1::char_traits<char>, std::__ndk1::allocator<char> > >&>::~__split_buffer()
FUNC 19b24 10 0 std::__ndk1::vector<std::__ndk1::basic_string<char, std::__ndk1::char_traits<char>, std::__ndk1::allocator<char> >, std::__ndk1::allocator<std::__ndk1::basic_string<char, std::__ndk1::char_traits<char>, std::__ndk1::allocator<char> > > >::__throw_length_error[abi:ne190000]() const
FUNC 19b34 2 0 std::__ndk1::__variant_detail::__visitation::__base::__dispatcher<(unsigned int)0>::__dispatch[abi:ne190000]<std::__ndk1::__variant_detail::__dtor<std::__ndk1::__variant_detail::__traits<geode::Hook*, std::__ndk1::basic_string<char, std::__ndk1::char_traits<char>, std::__ndk1::allocator<char> > >, (std::__ndk1::__variant_detail::_Trait)1>::__destroy[abi:ne190000]()::{lambda(auto:1&)#1}, std::__ndk1::__variant_detail::__base<(std::__ndk1::__variant_detail::__traits<geode::Hook*, std::__ndk1::basic_string<char, std::__ndk1::char_traits<char>, std::__ndk1::allocator<char> > >)1, geode::Hook, std::__ndk1::allocator<char> >&>(std::__ndk1::__variant_detail::__dtor<std::__ndk1::__variant_detail::__traits<geode::Hook*, std::__ndk1::basic_string<char, std::__ndk1::char_traits<char>, std::__ndk1::allocator<char> > >, (std::__ndk1::__variant_detail::_Trait)1>, std::__ndk1::__variant_detail::__base<(std::__ndk1::__variant_detail::__traits<geode::Hook*, std::__ndk1::basic_string<char, std::__ndk1::char_traits<char>, std::__ndk1::allocator<char> > >)1, geode::Hook, std::__ndk1::allocator<char> >&)
FUNC 19b36 e 0 std::__ndk1::__variant_detail::__visitation::__base::__dispatcher<(unsigned int)1>::__dispatch[abi:ne190000]<std::__ndk1::__variant_detail::__dtor<std::__ndk1::__variant_detail::__traits<geode::Hook*, std::__ndk1::basic_string<char, std::__ndk1::char_traits<char>, std::__ndk1::allocator<char> > >, (std::__ndk1::__variant_detail::_Trait)1>::__destroy[abi:ne190000]()::{lambda(auto:1&)#1}, std::__ndk1::__variant_detail::__base<(std::__ndk1::__variant_detail::__traits<geode::Hook*, std::__ndk1::basic_string<char, std::__ndk1::char_traits<char>, std::__ndk1::allocator<char> > >)1, geode::Hook, std::__ndk1::allocator<char> >&>(std::__ndk1::__variant_detail::__dtor<std::__ndk1::__variant_detail::__traits<geode::Hook*, std::__ndk1::basic_string<char, std::__ndk1::char_traits<char>, std::__ndk1::allocator<char> > >, (std::__ndk1::__variant_detail::_Trait)1>, std::__ndk1::__variant_detail::__base<(std::__ndk1::__variant_detail::__traits<geode::Hook*, std::__ndk1::basic_string<char, std::__ndk1::char_traits<char>, std::__ndk1::allocator<char> > >)1, geode::Hook, std::__ndk1::allocator<char> >&)
FUNC 19b44 5a 0 std::__ndk1::__tree<std::__ndk1::__value_type<std::__ndk1::basic_string<char, std::__ndk1::char_traits<char>, std::__ndk1::allocator<char> >, std::__ndk1::shared_ptr<geode::Hook> >, std::__ndk1::__map_value_compare<std::__ndk1::basic_string<char, std::__ndk1::char_traits<char>, std::__ndk1::allocator<char> >, std::__ndk1::__value_type<std::__ndk1::basic_string<char, std::__ndk1::char_traits<char>, std::__ndk1::allocator<char> >, std::__ndk1::shared_ptr<geode::Hook> >, std::__ndk1::less<std::__ndk1::basic_string<char, std::__ndk1::char_traits<char>, std::__ndk1::allocator<char> > >, true>, std::__ndk1::allocator<std::__ndk1::__value_type<std::__ndk1::basic_string<char, std::__ndk1::char_traits<char>, std::__ndk1::allocator<char> >, std::__ndk1::shared_ptr<geode::Hook> > > >::destroy(std::__ndk1::__tree_node<std::__ndk1::__value_type<std::__ndk1::basic_string<char, std::__ndk1::char_traits<char>, std::__ndk1::allocator<char> >, std::__ndk1::shared_ptr<geode::Hook> >, void*>*)
FUNC 19ba0 260 0 geode::modifier::AsStaticFunction_init<MyNotepadLayer, bool (MyNotepadLayer::*)(LevelEditorLayer*)>::Impl<bool (MyNotepadLayer::*)(LevelEditorLayer*)>::function(MyNotepadLayer*, LevelEditorLayer*)
FUNC 19e00 24 0 geode::modifier::AsStaticFunction_showUI<MyNotepadLayer, void (MyNotepadLayer::*)(bool)>::Impl<void (MyNotepadLayer::*)(bool)>::function(MyNotepadLayer*, bool)
FUNC 19e24 3a 0 std::__ndk1::shared_ptr<tulip::hook::CallingConvention>::~shared_ptr[abi:ne190000]()
FUNC 19e5e 46 0 tulip::hook::HandlerMetadata::~HandlerMetadata()
FUNC 19ea4 118 0 geode::Mod::getSettingValue<std::__ndk1::basic_string<char, std::__ndk1::char_traits<char>, std::__ndk1::allocator<char> > >(std::__ndk1::basic_string_view<char, std::__ndk1::char_traits<char> >) const
FUNC 19fbc 14 0 MyNotepadLayer::Onnotepadbutton(cocos2d::CCObject*)
FUNC 19fd0 3a 0 std::__ndk1::shared_ptr<geode::StringSettingV3>::~shared_ptr[abi:ne190000]()
FUNC 1a00c 8c 0 geode::cast::traverseTypeinfoFor(void*, geode::cast::ClassTypeinfoType const*, char const*)
FUNC 1a098 3fc 0 geode::modifier::FieldIntermediate<MyNotepadLayer, EditorUI>::self()
FUNC 1a494 2 0 geode::modifier::FieldIntermediate<MyNotepadLayer, EditorUI>::fieldDestructor(void*)
FUNC 1a498 10 0 std::__ndk1::vector<void*, std::__ndk1::allocator<void*> >::__throw_length_error[abi:ne190000]() const
FUNC 1a4a8 10 0 std::__ndk1::vector<std::__ndk1::function<void (void*)>, std::__ndk1::allocator<std::__ndk1::function<void (void*)> > >::__throw_length_error[abi:ne190000]() const
FUNC 1a4b8 8 0 std::__ndk1::vector<void*, std::__ndk1::allocator<void*> >::__throw_out_of_range[abi:ne190000]() const
FUNC 1a4c0 8 0 std::__ndk1::vector<std::__ndk1::function<void (void*)>, std::__ndk1::allocator<std::__ndk1::function<void (void*)> > >::__throw_out_of_range[abi:ne190000]() const
FUNC 1a4c8 2 0 std::__ndk1::__function::__base<void (void*)>::~__base()
FUNC 1a4ca 4 0 std::__ndk1::__function::__func<void (*)(void*), std::__ndk1::allocator<void (*)(void*)>, void (void*)>::~__func()
FUNC 1a4d0 20 0 std::__ndk1::__function::__func<void (*)(void*), std::__ndk1::allocator<void (*)(void*)>, void (void*)>::__clone() const
FUNC 1a4f0 14 0 std::__ndk1::__function::__func<void (*)(void*), std::__ndk1::allocator<void (*)(void*)>, void (void*)>::__clone(std::__ndk1::__function::__base<void (void*)>*) const
FUNC 1a504 2 0 std::__ndk1::__function::__func<void (*)(void*), std::__ndk1::allocator<void (*)(void*)>, void (void*)>::destroy()
FUNC 1a506 4 0 std::__ndk1::__function::__func<void (*)(void*), std::__ndk1::allocator<void (*)(void*)>, void (void*)>::destroy_deallocate()
FUNC 1a50a 8 0 std::__ndk1::__function::__func<void (*)(void*), std::__ndk1::allocator<void (*)(void*)>, void (void*)>::operator()(void*&&)
FUNC 1a514 18 0 std::__ndk1::__function::__func<void (*)(void*), std::__ndk1::allocator<void (*)(void*)>, void (void*)>::target(std::type_info const&) const
FUNC 1a52c c 0 std::__ndk1::__function::__func<void (*)(void*), std::__ndk1::allocator<void (*)(void*)>, void (void*)>::target_type() const
FUNC 1a538 ba 0 std::__ndk1::__tree<std::__ndk1::__value_type<std::__ndk1::basic_string<char, std::__ndk1::char_traits<char>, std::__ndk1::allocator<char> >, std::__ndk1::shared_ptr<geode::Hook> >, std::__ndk1::__map_value_compare<std::__ndk1::basic_string<char, std::__ndk1::char_traits<char>, std::__ndk1::allocator<char> >, std::__ndk1::__value_type<std::__ndk1::basic_string<char, std::__ndk1::char_traits<char>, std::__ndk1::allocator<char> >, std::__ndk1::shared_ptr<geode::Hook> >, std::__ndk1::less<std::__ndk1::basic_string<char, std::__ndk1::char_traits<char>, std::__ndk1::allocator<char> > >, true>, std::__ndk1::allocator<std::__ndk1::__value_type<std::__ndk1::basic_string<char, std::__ndk1::char_traits<char>, std::__ndk1::allocator<char> >, std::__ndk1::shared_ptr<geode::Hook> > > >::__find_equal<std::__ndk1::basic_string<char, std::__ndk1::char_traits<char>, std::__ndk1::allocator<char> > >(std::__ndk1::__tree_end_node<std::__ndk1::__tree_node_base<void*>*>*&, std::__ndk1::basic_string<char, std::__ndk1::char_traits<char>, std::__ndk1::allocator<char> > const&)
FUNC 1a5f2 14a 0 std::__ndk1::__tree_balance_after_insert[abi:ne190000]<std::__ndk1::__tree_node_base<void*>*>(std::__ndk1::__tree_node_base<void*>*, std::__ndk1::__tree_node_base<void*>*)
FUNC 1a73c 17cc 0 NotepadLayer::setup()
FUNC 1bf08 2 0 NotepadLayer::onTouchFix(cocos2d::CCObject*)
FUNC 1bf0c 1e4 0 geode::Mod::getSavedValue<std::__ndk1::basic_string<char, std::__ndk1::char_traits<char>, std::__ndk1::allocator<char> > >(std::__ndk1::basic_string_view<char, std::__ndk1::char_traits<char> >, std::__ndk1::basic_string<char, std::__ndk1::char_traits<char>, std::__ndk1::allocator<char> > const&)
FUNC 1c0f0 8 0 NotepadLayer::Close(cocos2d::CCObject*)
FUNC 1c0f8 34 0 NotepadLayer::OpenSettings(cocos2d::CCObject*)
FUNC 1c12c 450 0 NotepadLayer::onPage(cocos2d::CCObject*)
FUNC 1c57c 7c 0 NotepadLayer::create()
FUNC 1c5f8 4 0 cocos2d::CCCopying::copyWithZone(cocos2d::CCZone*)
FUNC 1c5fc 10 0 NotepadLayer::~NotepadLayer()
FUNC 1c60c 2 0 cocos2d::CCLayerRGBA::setOpacityModifyRGB(bool)
FUNC 1c60e 4 0 cocos2d::CCLayerRGBA::isOpacityModifyRGB()
FUNC 1c612 8 0 {virtual override thunk({offset(-264)}, NotepadLayer::~NotepadLayer())}
FUNC 1c61a 14 0 {virtual override thunk({offset(-264)}, NotepadLayer::~NotepadLayer())}
FUNC 1c62e 2 0 cocos2d::CCKeyboardDelegate::keyUp(cocos2d::enumKeyCodes)
FUNC 1c630 2 0 cocos2d::CCMouseDelegate::rightKeyDown()
FUNC 1c632 2 0 cocos2d::CCMouseDelegate::rightKeyUp()
FUNC 1c634 2 0 cocos2d::CCMouseDelegate::scrollWheel(float, float)
FUNC 1c636 2 0 {virtual override thunk({offset(-316)}, cocos2d::CCLayerRGBA::setOpacityModifyRGB(bool))}
FUNC 1c638 4 0 {virtual override thunk({offset(-316)}, cocos2d::CCLayerRGBA::isOpacityModifyRGB())}
FUNC 1c63c 60 0 geode::impl::ResultData<matjson::Value&, std::__ndk1::basic_string<char, std::__ndk1::char_traits<char>, std::__ndk1::allocator<char> > >::~ResultData()
FUNC 1c69c 60 0 geode::impl::ResultData<std::__ndk1::basic_string<char, std::__ndk1::char_traits<char>, std::__ndk1::allocator<char> >, std::__ndk1::basic_string<char, std::__ndk1::char_traits<char>, std::__ndk1::allocator<char> > >::~ResultData()
FUNC 1c6fc 2 0 std::__ndk1::__variant_detail::__visitation::__base::__dispatcher<(unsigned int)0>::__dispatch[abi:ne190000]<std::__ndk1::__variant_detail::__dtor<std::__ndk1::__variant_detail::__traits<std::__ndk1::reference_wrapper<matjson::Value>, std::__ndk1::basic_string<char, std::__ndk1::char_traits<char>, std::__ndk1::allocator<char> > >, (std::__ndk1::__variant_detail::_Trait)1>::__destroy[abi:ne190000]()::{lambda(auto:1&)#1}, std::__ndk1::__variant_detail::__base<(std::__ndk1::__variant_detail::__traits<std::__ndk1::reference_wrapper<matjson::Value>, std::__ndk1::basic_string<char, std::__ndk1::char_traits<char>, std::__ndk1::allocator<char> > >)1, matjson::Value, std::__ndk1::allocator<char> >&>(std::__ndk1::__variant_detail::__dtor<std::__ndk1::__variant_detail::__traits<std::__ndk1::reference_wrapper<matjson::Value>, std::__ndk1::basic_string<char, std::__ndk1::char_traits<char>, std::__ndk1::allocator<char> > >, (std::__ndk1::__variant_detail::_Trait)1>, std::__ndk1::__variant_detail::__base<(std::__ndk1::__variant_detail::__traits<std::__ndk1::reference_wrapper<matjson::Value>, std::__ndk1::basic_string<char, std::__ndk1::char_traits<char>, std::__ndk1::allocator<char> > >)1, matjson::Value, std::__ndk1::allocator<char> >&)
FUNC 1c6fe e 0 std::__ndk1::__variant_detail::__visitation::__base::__dispatcher<(unsigned int)1>::__dispatch[abi:ne190000]<std::__ndk1::__variant_detail::__dtor<std::__ndk1::__variant_detail::__traits<std::__ndk1::reference_wrapper<matjson::Value>, std::__ndk1::basic_string<char, std::__ndk1::char_traits<char>, std::__ndk1::allocator<char> > >, (std::__ndk1::__variant_detail::_Trait)1>::__destroy[abi:ne190000]()::{lambda(auto:1&)#1}, std::__ndk1::__variant_detail::__base<(std::__ndk1::__variant_detail::__traits<std::__ndk1::reference_wrapper<matjson::Value>, std::__ndk1::basic_string<char, std::__ndk1::char_traits<char>, std::__ndk1::allocator<char> > >)1, matjson::Value, std::__ndk1::allocator<char> >&>(std::__ndk1::__variant_detail::__dtor<std::__ndk1::__variant_detail::__traits<std::__ndk1::reference_wrapper<matjson::Value>, std::__ndk1::basic_string<char, std::__ndk1::char_traits<char>, std::__ndk1::allocator<char> > >, (std::__ndk1::__variant_detail::_Trait)1>, std::__ndk1::__variant_detail::__base<(std::__ndk1::__variant_detail::__traits<std::__ndk1::reference_wrapper<matjson::Value>, std::__ndk1::basic_string<char, std::__ndk1::char_traits<char>, std::__ndk1::allocator<char> > >)1, matjson::Value, std::__ndk1::allocator<char> >&)
FUNC 1c70c e 0 std::__ndk1::__variant_detail::__visitation::__base::__dispatcher<(unsigned int)0>::__dispatch[abi:ne190000]<std::__ndk1::__variant_detail::__dtor<std::__ndk1::__variant_detail::__traits<std::__ndk1::basic_string<char, std::__ndk1::char_traits<char>, std::__ndk1::allocator<char> >, std::__ndk1::allocator<char> >, (std::__ndk1::__variant_detail::_Trait)1>::__destroy[abi:ne190000]()::{lambda(auto:1&)#1}, std::__ndk1::__variant_detail::__base<(std::__ndk1::__variant_detail::__traits<std::__ndk1::basic_string<char, std::__ndk1::char_traits<char>, std::__ndk1::allocator<char> >, std::__ndk1::allocator<char> >)1, std::__ndk1::allocator<char>, std::__ndk1::allocator<char> >&>(std::__ndk1::__variant_detail::__dtor<std::__ndk1::__variant_detail::__traits<std::__ndk1::basic_string<char, std::__ndk1::char_traits<char>, std::__ndk1::allocator<char> >, std::__ndk1::allocator<char> >, (std::__ndk1::__variant_detail::_Trait)1>, std::__ndk1::__variant_detail::__base<(std::__ndk1::__variant_detail::__traits<std::__ndk1::basic_string<char, std::__ndk1::char_traits<char>, std::__ndk1::allocator<char> >, std::__ndk1::allocator<char> >)1, std::__ndk1::allocator<char>, std::__ndk1::allocator<char> >&)
FUNC 1c71a e 0 std::__ndk1::__variant_detail::__visitation::__base::__dispatcher<(unsigned int)1>::__dispatch[abi:ne190000]<std::__ndk1::__variant_detail::__dtor<std::__ndk1::__variant_detail::__traits<std::__ndk1::basic_string<char, std::__ndk1::char_traits<char>, std::__ndk1::allocator<char> >, std::__ndk1::allocator<char> >, (std::__ndk1::__variant_detail::_Trait)1>::__destroy[abi:ne190000]()::{lambda(auto:1&)#1}, std::__ndk1::__variant_detail::__base<(std::__ndk1::__variant_detail::__traits<std::__ndk1::basic_string<char, std::__ndk1::char_traits<char>, std::__ndk1::allocator<char> >, std::__ndk1::allocator<char> >)1, std::__ndk1::allocator<char>, std::__ndk1::allocator<char> >&>(std::__ndk1::__variant_detail::__dtor<std::__ndk1::__variant_detail::__traits<std::__ndk1::basic_string<char, std::__ndk1::char_traits<char>, std::__ndk1::allocator<char> >, std::__ndk1::allocator<char> >, (std::__ndk1::__variant_detail::_Trait)1>, std::__ndk1::__variant_detail::__base<(std::__ndk1::__variant_detail::__traits<std::__ndk1::basic_string<char, std::__ndk1::char_traits<char>, std::__ndk1::allocator<char> >, std::__ndk1::allocator<char> >)1, std::__ndk1::allocator<char>, std::__ndk1::allocator<char> >&)
FUNC 1c728 4 0 std::__ndk1::__function::__func<NotepadLayer::setup()::$_0, std::__ndk1::allocator<NotepadLayer::setup()::$_0>, void (std::__ndk1::basic_string<char, std::__ndk1::char_traits<char>, std::__ndk1::allocator<char> > const&)>::~__func()
FUNC 1c72c 20 0 std::__ndk1::__function::__func<NotepadLayer::setup()::$_0, std::__ndk1::allocator<NotepadLayer::setup()::$_0>, void (std::__ndk1::basic_string<char, std::__ndk1::char_traits<char>, std::__ndk1::allocator<char> > const&)>::__clone() const
FUNC 1c74c 14 0 std::__ndk1::__function::__func<NotepadLayer::setup()::$_0, std::__ndk1::allocator<NotepadLayer::setup()::$_0>, void (std::__ndk1::basic_string<char, std::__ndk1::char_traits<char>, std::__ndk1::allocator<char> > const&)>::__clone(std::__ndk1::__function::__base<void (std::__ndk1::basic_string<char, std::__ndk1::char_traits<char>, std::__ndk1::allocator<char> > const&)>*) const
FUNC 1c760 2 0 std::__ndk1::__function::__func<NotepadLayer::setup()::$_0, std::__ndk1::allocator<NotepadLayer::setup()::$_0>, void (std::__ndk1::basic_string<char, std::__ndk1::char_traits<char>, std::__ndk1::allocator<char> > const&)>::destroy()
FUNC 1c762 4 0 std::__ndk1::__function::__func<NotepadLayer::setup()::$_0, std::__ndk1::allocator<NotepadLayer::setup()::$_0>, void (std::__ndk1::basic_string<char, std::__ndk1::char_traits<char>, std::__ndk1::allocator<char> > const&)>::destroy_deallocate()
FUNC 1c768 68 0 std::__ndk1::__function::__func<NotepadLayer::setup()::$_0, std::__ndk1::allocator<NotepadLayer::setup()::$_0>, void (std::__ndk1::basic_string<char, std::__ndk1::char_traits<char>, std::__ndk1::allocator<char> > const&)>::operator()(std::__ndk1::basic_string<char, std::__ndk1::char_traits<char>, std::__ndk1::allocator<char> > const&)
FUNC 1c7d0 18 0 std::__ndk1::__function::__func<NotepadLayer::setup()::$_0, std::__ndk1::allocator<NotepadLayer::setup()::$_0>, void (std::__ndk1::basic_string<char, std::__ndk1::char_traits<char>, std::__ndk1::allocator<char> > const&)>::target(std::type_info const&) const
FUNC 1c7e8 c 0 std::__ndk1::__function::__func<NotepadLayer::setup()::$_0, std::__ndk1::allocator<NotepadLayer::setup()::$_0>, void (std::__ndk1::basic_string<char, std::__ndk1::char_traits<char>, std::__ndk1::allocator<char> > const&)>::target_type() const
FUNC 1c7f4 cc 0 geode::Mod::setSavedValue<std::__ndk1::basic_string<char, std::__ndk1::char_traits<char>, std::__ndk1::allocator<char> > >(std::__ndk1::basic_string_view<char, std::__ndk1::char_traits<char> >, std::__ndk1::basic_string<char, std::__ndk1::char_traits<char>, std::__ndk1::allocator<char> > const&)
FUNC 1c8c0 15c 0 geode::Mod::getSavedValue<std::__ndk1::basic_string<char, std::__ndk1::char_traits<char>, std::__ndk1::allocator<char> > >(std::__ndk1::basic_string_view<char, std::__ndk1::char_traits<char> >)
FUNC 1ca1c 4 0 std::__ndk1::__function::__func<NotepadLayer::setup()::$_1, std::__ndk1::allocator<NotepadLayer::setup()::$_1>, void (std::__ndk1::basic_string<char, std::__ndk1::char_traits<char>, std::__ndk1::allocator<char> > const&)>::~__func()
FUNC 1ca20 20 0 std::__ndk1::__function::__func<NotepadLayer::setup()::$_1, std::__ndk1::allocator<NotepadLayer::setup()::$_1>, void (std::__ndk1::basic_string<char, std::__ndk1::char_traits<char>, std::__ndk1::allocator<char> > const&)>::__clone() const
FUNC 1ca40 14 0 std::__ndk1::__function::__func<NotepadLayer::setup()::$_1, std::__ndk1::allocator<NotepadLayer::setup()::$_1>, void (std::__ndk1::basic_string<char, std::__ndk1::char_traits<char>, std::__ndk1::allocator<char> > const&)>::__clone(std::__ndk1::__function::__base<void (std::__ndk1::basic_string<char, std::__ndk1::char_traits<char>, std::__ndk1::allocator<char> > const&)>*) const
FUNC 1ca54 2 0 std::__ndk1::__function::__func<NotepadLayer::setup()::$_1, std::__ndk1::allocator<NotepadLayer::setup()::$_1>, void (std::__ndk1::basic_string<char, std::__ndk1::char_traits<char>, std::__ndk1::allocator<char> > const&)>::destroy()
FUNC 1ca56 4 0 std::__ndk1::__function::__func<NotepadLayer::setup()::$_1, std::__ndk1::allocator<NotepadLayer::setup()::$_1>, void (std::__ndk1::basic_string<char, std::__ndk1::char_traits<char>, std::__ndk1::allocator<char> > const&)>::destroy_deallocate()
FUNC 1ca5c 68 0 std::__ndk1::__function::__func<NotepadLayer::setup()::$_1, std::__ndk1::allocator<NotepadLayer::setup()::$_1>, void (std::__ndk1::basic_string<char, std::__ndk1::char_traits<char>, std::__ndk1::allocator<char> > const&)>::operator()(std::__ndk1::basic_string<char, std::__ndk1::char_traits<char>, std::__ndk1::allocator<char> > const&)
FUNC 1cac4 18 0 std::__ndk1::__function::__func<NotepadLayer::setup()::$_1, std::__ndk1::allocator<NotepadLayer::setup()::$_1>, void (std::__ndk1::basic_string<char, std::__ndk1::char_traits<char>, std::__ndk1::allocator<char> > const&)>::target(std::type_info const&) const
FUNC 1cadc c 0 std::__ndk1::__function::__func<NotepadLayer::setup()::$_1, std::__ndk1::allocator<NotepadLayer::setup()::$_1>, void (std::__ndk1::basic_string<char, std::__ndk1::char_traits<char>, std::__ndk1::allocator<char> > const&)>::target_type() const
FUNC 1cae8 4 0 std::__ndk1::__function::__func<NotepadLayer::setup()::$_2, std::__ndk1::allocator<NotepadLayer::setup()::$_2>, void (std::__ndk1::basic_string<char, std::__ndk1::char_traits<char>, std::__ndk1::allocator<char> > const&)>::~__func()
FUNC 1caec 20 0 std::__ndk1::__function::__func<NotepadLayer::setup()::$_2, std::__ndk1::allocator<NotepadLayer::setup()::$_2>, void (std::__ndk1::basic_string<char, std::__ndk1::char_traits<char>, std::__ndk1::allocator<char> > const&)>::__clone() const
FUNC 1cb0c 14 0 std::__ndk1::__function::__func<NotepadLayer::setup()::$_2, std::__ndk1::allocator<NotepadLayer::setup()::$_2>, void (std::__ndk1::basic_string<char, std::__ndk1::char_traits<char>, std::__ndk1::allocator<char> > const&)>::__clone(std::__ndk1::__function::__base<void (std::__ndk1::basic_string<char, std::__ndk1::char_traits<char>, std::__ndk1::allocator<char> > const&)>*) const
FUNC 1cb20 2 0 std::__ndk1::__function::__func<NotepadLayer::setup()::$_2, std::__ndk1::allocator<NotepadLayer::setup()::$_2>, void (std::__ndk1::basic_string<char, std::__ndk1::char_traits<char>, std::__ndk1::allocator<char> > const&)>::destroy()
FUNC 1cb22 4 0 std::__ndk1::__function::__func<NotepadLayer::setup()::$_2, std::__ndk1::allocator<NotepadLayer::setup()::$_2>, void (std::__ndk1::basic_string<char, std::__ndk1::char_traits<char>, std::__ndk1::allocator<char> > const&)>::destroy_deallocate()
FUNC 1cb28 68 0 std::__ndk1::__function::__func<NotepadLayer::setup()::$_2, std::__ndk1::allocator<NotepadLayer::setup()::$_2>, void (std::__ndk1::basic_string<char, std::__ndk1::char_traits<char>, std::__ndk1::allocator<char> > const&)>::operator()(std::__ndk1::basic_string<char, std::__ndk1::char_traits<char>, std::__ndk1::allocator<char> > const&)
FUNC 1cb90 18 0 std::__ndk1::__function::__func<NotepadLayer::setup()::$_2, std::__ndk1::allocator<NotepadLayer::setup()::$_2>, void (std::__ndk1::basic_string<char, std::__ndk1::char_traits<char>, std::__ndk1::allocator<char> > const&)>::target(std::type_info const&) const
FUNC 1cba8 c 0 std::__ndk1::__function::__func<NotepadLayer::setup()::$_2, std::__ndk1::allocator<NotepadLayer::setup()::$_2>, void (std::__ndk1::basic_string<char, std::__ndk1::char_traits<char>, std::__ndk1::allocator<char> > const&)>::target_type() const
FUNC 1cbb4 4 0 std::__ndk1::__function::__func<NotepadLayer::setup()::$_3, std::__ndk1::allocator<NotepadLayer::setup()::$_3>, void (std::__ndk1::basic_string<char, std::__ndk1::char_traits<char>, std::__ndk1::allocator<char> > const&)>::~__func()
FUNC 1cbb8 20 0 std::__ndk1::__function::__func<NotepadLayer::setup()::$_3, std::__ndk1::allocator<NotepadLayer::setup()::$_3>, void (std::__ndk1::basic_string<char, std::__ndk1::char_traits<char>, std::__ndk1::allocator<char> > const&)>::__clone() const
FUNC 1cbd8 14 0 std::__ndk1::__function::__func<NotepadLayer::setup()::$_3, std::__ndk1::allocator<NotepadLayer::setup()::$_3>, void (std::__ndk1::basic_string<char, std::__ndk1::char_traits<char>, std::__ndk1::allocator<char> > const&)>::__clone(std::__ndk1::__function::__base<void (std::__ndk1::basic_string<char, std::__ndk1::char_traits<char>, std::__ndk1::allocator<char> > const&)>*) const
FUNC 1cbec 2 0 std::__ndk1::__function::__func<NotepadLayer::setup()::$_3, std::__ndk1::allocator<NotepadLayer::setup()::$_3>, void (std::__ndk1::basic_string<char, std::__ndk1::char_traits<char>, std::__ndk1::allocator<char> > const&)>::destroy()
FUNC 1cbee 4 0 std::__ndk1::__function::__func<NotepadLayer::setup()::$_3, std::__ndk1::allocator<NotepadLayer::setup()::$_3>, void (std::__ndk1::basic_string<char, std::__ndk1::char_traits<char>, std::__ndk1::allocator<char> > const&)>::destroy_deallocate()
FUNC 1cbf4 68 0 std::__ndk1::__function::__func<NotepadLayer::setup()::$_3, std::__ndk1::allocator<NotepadLayer::setup()::$_3>, void (std::__ndk1::basic_string<char, std::__ndk1::char_traits<char>, std::__ndk1::allocator<char> > const&)>::operator()(std::__ndk1::basic_string<char, std::__ndk1::char_traits<char>, std::__ndk1::allocator<char> > const&)
FUNC 1cc5c 18 0 std::__ndk1::__function::__func<NotepadLayer::setup()::$_3, std::__ndk1::allocator<NotepadLayer::setup()::$_3>, void (std::__ndk1::basic_string<char, std::__ndk1::char_traits<char>, std::__ndk1::allocator<char> > const&)>::target(std::type_info const&) const
FUNC 1cc74 c 0 std::__ndk1::__function::__func<NotepadLayer::setup()::$_3, std::__ndk1::allocator<NotepadLayer::setup()::$_3>, void (std::__ndk1::basic_string<char, std::__ndk1::char_traits<char>, std::__ndk1::allocator<char> > const&)>::target_type() const
FUNC 1cc80 2 0 std::__ndk1::__function::__base<void (std::__ndk1::basic_string<char, std::__ndk1::char_traits<char>, std::__ndk1::allocator<char> > const&)>::~__base()
FUNC 1cc82 4 0 std::__ndk1::__function::__func<NotepadLayer::setup()::$_4, std::__ndk1::allocator<NotepadLayer::setup()::$_4>, void (std::__ndk1::basic_string<char, std::__ndk1::char_traits<char>, std::__ndk1::allocator<char> > const&)>::~__func()
FUNC 1cc88 20 0 std::__ndk1::__function::__func<NotepadLayer::setup()::$_4, std::__ndk1::allocator<NotepadLayer::setup()::$_4>, void (std::__ndk1::basic_string<char, std::__ndk1::char_traits<char>, std::__ndk1::allocator<char> > const&)>::__clone() const
FUNC 1cca8 14 0 std::__ndk1::__function::__func<NotepadLayer::setup()::$_4, std::__ndk1::allocator<NotepadLayer::setup()::$_4>, void (std::__ndk1::basic_string<char, std::__ndk1::char_traits<char>, std::__ndk1::allocator<char> > const&)>::__clone(std::__ndk1::__function::__base<void (std::__ndk1::basic_string<char, std::__ndk1::char_traits<char>, std::__ndk1::allocator<char> > const&)>*) const
FUNC 1ccbc 2 0 std::__ndk1::__function::__func<NotepadLayer::setup()::$_4, std::__ndk1::allocator<NotepadLayer::setup()::$_4>, void (std::__ndk1::basic_string<char, std::__ndk1::char_traits<char>, std::__ndk1::allocator<char> > const&)>::destroy()
FUNC 1ccbe 4 0 std::__ndk1::__function::__func<NotepadLayer::setup()::$_4, std::__ndk1::allocator<NotepadLayer::setup()::$_4>, void (std::__ndk1::basic_string<char, std::__ndk1::char_traits<char>, std::__ndk1::allocator<char> > const&)>::destroy_deallocate()
FUNC 1ccc4 68 0 std::__ndk1::__function::__func<NotepadLayer::setup()::$_4, std::__ndk1::allocator<NotepadLayer::setup()::$_4>, void (std::__ndk1::basic_string<char, std::__ndk1::char_traits<char>, std::__ndk1::allocator<char> > const&)>::operator()(std::__ndk1::basic_string<char, std::__ndk1::char_traits<char>, std::__ndk1::allocator<char> > const&)
FUNC 1cd2c 18 0 std::__ndk1::__function::__func<NotepadLayer::setup()::$_4, std::__ndk1::allocator<NotepadLayer::setup()::$_4>, void (std::__ndk1::basic_string<char, std::__ndk1::char_traits<char>, std::__ndk1::allocator<char> > const&)>::target(std::type_info const&) const
FUNC 1cd44 c 0 std::__ndk1::__function::__func<NotepadLayer::setup()::$_4, std::__ndk1::allocator<NotepadLayer::setup()::$_4>, void (std::__ndk1::basic_string<char, std::__ndk1::char_traits<char>, std::__ndk1::allocator<char> > const&)>::target_type() const
FUNC 1cd50 2120 0 Tab1::init()
FUNC 1ee70 80 0 geode::Mod::setSavedValue<bool>(std::__ndk1::basic_string_view<char, std::__ndk1::char_traits<char> >, bool const&)
FUNC 1eef0 88 0 Tab1::SaveCheckbox(cocos2d::CCObject*)
FUNC 1ef78 13c 0 geode::Mod::getSavedValue<bool>(std::__ndk1::basic_string_view<char, std::__ndk1::char_traits<char> >, bool const&)
FUNC 1f0b4 88 0 Tab1::SaveCheckbox2(cocos2d::CCObject*)
FUNC 1f13c 88 0 Tab1::SaveCheckbox3(cocos2d::CCObject*)
FUNC 1f1c4 88 0 Tab1::SaveCheckbox4(cocos2d::CCObject*)
FUNC 1f24c 88 0 Tab1::SaveCheckbox5(cocos2d::CCObject*)
FUNC 1f2d4 88 0 Tab1::SaveCheckbox6(cocos2d::CCObject*)
FUNC 1f35c 88 0 Tab1::SaveCheckbox7(cocos2d::CCObject*)
FUNC 1f3e4 88 0 Tab1::SaveCheckbox8(cocos2d::CCObject*)
FUNC 1f46c 88 0 Tab1::SaveCheckbox9(cocos2d::CCObject*)
FUNC 1f4f4 88 0 Tab1::SaveCheckbox10(cocos2d::CCObject*)
FUNC 1f57c 74 0 Tab1::create()
FUNC 1f5f0 10 0 Tab1::~Tab1()
FUNC 1f600 2 0 cocos2d::CCMenu::setOpacityModifyRGB(bool)
FUNC 1f602 4 0 cocos2d::CCMenu::isOpacityModifyRGB()
FUNC 1f606 6 0 cocos2d::CCMenu::isEnabled()
FUNC 1f60c 6 0 cocos2d::CCMenu::setEnabled(bool)
FUNC 1f612 8 0 {virtual override thunk({offset(-264)}, Tab1::~Tab1())}
FUNC 1f61a 14 0 {virtual override thunk({offset(-264)}, Tab1::~Tab1())}
FUNC 1f62e 2 0 {virtual override thunk({offset(-316)}, cocos2d::CCMenu::setOpacityModifyRGB(bool))}
FUNC 1f630 4 0 {virtual override thunk({offset(-316)}, cocos2d::CCMenu::isOpacityModifyRGB())}
FUNC 1f634 b2 0 std::__ndk1::basic_string<char, std::__ndk1::char_traits<char>, std::__ndk1::allocator<char> >::__assign_external(char const*, unsigned int)
FUNC 1f6e8 10c 0 geode::Mod::getSavedValue<bool>(std::__ndk1::basic_string_view<char, std::__ndk1::char_traits<char> >)
FUNC 1f7f4 2 0 std::__ndk1::__variant_detail::__visitation::__base::__dispatcher<(unsigned int)0>::__dispatch[abi:ne190000]<std::__ndk1::__variant_detail::__dtor<std::__ndk1::__variant_detail::__traits<bool, std::__ndk1::basic_string<char, std::__ndk1::char_traits<char>, std::__ndk1::allocator<char> > >, (std::__ndk1::__variant_detail::_Trait)1>::__destroy[abi:ne190000]()::{lambda(auto:1&)#1}, std::__ndk1::__variant_detail::__base<(std::__ndk1::__variant_detail::__traits<bool, std::__ndk1::basic_string<char, std::__ndk1::char_traits<char>, std::__ndk1::allocator<char> > >)1, bool, std::__ndk1::allocator<char> >&>(std::__ndk1::__variant_detail::__dtor<std::__ndk1::__variant_detail::__traits<bool, std::__ndk1::basic_string<char, std::__ndk1::char_traits<char>, std::__ndk1::allocator<char> > >, (std::__ndk1::__variant_detail::_Trait)1>, std::__ndk1::__variant_detail::__base<(std::__ndk1::__variant_detail::__traits<bool, std::__ndk1::basic_string<char, std::__ndk1::char_traits<char>, std::__ndk1::allocator<char> > >)1, bool, std::__ndk1::allocator<char> >&)
FUNC 1f7f6 e 0 std::__ndk1::__variant_detail::__visitation::__base::__dispatcher<(unsigned int)1>::__dispatch[abi:ne190000]<std::__ndk1::__variant_detail::__dtor<std::__ndk1::__variant_detail::__traits<bool, std::__ndk1::basic_string<char, std::__ndk1::char_traits<char>, std::__ndk1::allocator<char> > >, (std::__ndk1::__variant_detail::_Trait)1>::__destroy[abi:ne190000]()::{lambda(auto:1&)#1}, std::__ndk1::__variant_detail::__base<(std::__ndk1::__variant_detail::__traits<bool, std::__ndk1::basic_string<char, std::__ndk1::char_traits<char>, std::__ndk1::allocator<char> > >)1, bool, std::__ndk1::allocator<char> >&>(std::__ndk1::__variant_detail::__dtor<std::__ndk1::__variant_detail::__traits<bool, std::__ndk1::basic_string<char, std::__ndk1::char_traits<char>, std::__ndk1::allocator<char> > >, (std::__ndk1::__variant_detail::_Trait)1>, std::__ndk1::__variant_detail::__base<(std::__ndk1::__variant_detail::__traits<bool, std::__ndk1::basic_string<char, std::__ndk1::char_traits<char>, std::__ndk1::allocator<char> > >)1, bool, std::__ndk1::allocator<char> >&)
FUNC 1f804 4 0 std::__ndk1::__function::__func<Tab1::init()::$_0, std::__ndk1::allocator<Tab1::init()::$_0>, void (std::__ndk1::basic_string<char, std::__ndk1::char_traits<char>, std::__ndk1::allocator<char> > const&)>::~__func()
FUNC 1f808 20 0 std::__ndk1::__function::__func<Tab1::init()::$_0, std::__ndk1::allocator<Tab1::init()::$_0>, void (std::__ndk1::basic_string<char, std::__ndk1::char_traits<char>, std::__ndk1::allocator<char> > const&)>::__clone() const
FUNC 1f828 14 0 std::__ndk1::__function::__func<Tab1::init()::$_0, std::__ndk1::allocator<Tab1::init()::$_0>, void (std::__ndk1::basic_string<char, std::__ndk1::char_traits<char>, std::__ndk1::allocator<char> > const&)>::__clone(std::__ndk1::__function::__base<void (std::__ndk1::basic_string<char, std::__ndk1::char_traits<char>, std::__ndk1::allocator<char> > const&)>*) const
FUNC 1f83c 2 0 std::__ndk1::__function::__func<Tab1::init()::$_0, std::__ndk1::allocator<Tab1::init()::$_0>, void (std::__ndk1::basic_string<char, std::__ndk1::char_traits<char>, std::__ndk1::allocator<char> > const&)>::destroy()
FUNC 1f83e 4 0 std::__ndk1::__function::__func<Tab1::init()::$_0, std::__ndk1::allocator<Tab1::init()::$_0>, void (std::__ndk1::basic_string<char, std::__ndk1::char_traits<char>, std::__ndk1::allocator<char> > const&)>::destroy_deallocate()
FUNC 1f844 68 0 std::__ndk1::__function::__func<Tab1::init()::$_0, std::__ndk1::allocator<Tab1::init()::$_0>, void (std::__ndk1::basic_string<char, std::__ndk1::char_traits<char>, std::__ndk1::allocator<char> > const&)>::operator()(std::__ndk1::basic_string<char, std::__ndk1::char_traits<char>, std::__ndk1::allocator<char> > const&)
FUNC 1f8ac 18 0 std::__ndk1::__function::__func<Tab1::init()::$_0, std::__ndk1::allocator<Tab1::init()::$_0>, void (std::__ndk1::basic_string<char, std::__ndk1::char_traits<char>, std::__ndk1::allocator<char> > const&)>::target(std::type_info const&) const
FUNC 1f8c4 c 0 std::__ndk1::__function::__func<Tab1::init()::$_0, std::__ndk1::allocator<Tab1::init()::$_0>, void (std::__ndk1::basic_string<char, std::__ndk1::char_traits<char>, std::__ndk1::allocator<char> > const&)>::target_type() const
FUNC 1f8d0 4 0 std::__ndk1::__function::__func<Tab1::init()::$_1, std::__ndk1::allocator<Tab1::init()::$_1>, void (std::__ndk1::basic_string<char, std::__ndk1::char_traits<char>, std::__ndk1::allocator<char> > const&)>::~__func()
FUNC 1f8d4 20 0 std::__ndk1::__function::__func<Tab1::init()::$_1, std::__ndk1::allocator<Tab1::init()::$_1>, void (std::__ndk1::basic_string<char, std::__ndk1::char_traits<char>, std::__ndk1::allocator<char> > const&)>::__clone() const
FUNC 1f8f4 14 0 std::__ndk1::__function::__func<Tab1::init()::$_1, std::__ndk1::allocator<Tab1::init()::$_1>, void (std::__ndk1::basic_string<char, std::__ndk1::char_traits<char>, std::__ndk1::allocator<char> > const&)>::__clone(std::__ndk1::__function::__base<void (std::__ndk1::basic_string<char, std::__ndk1::char_traits<char>, std::__ndk1::allocator<char> > const&)>*) const
FUNC 1f908 2 0 std::__ndk1::__function::__func<Tab1::init()::$_1, std::__ndk1::allocator<Tab1::init()::$_1>, void (std::__ndk1::basic_string<char, std::__ndk1::char_traits<char>, std::__ndk1::allocator<char> > const&)>::destroy()
FUNC 1f90a 4 0 std::__ndk1::__function::__func<Tab1::init()::$_1, std::__ndk1::allocator<Tab1::init()::$_1>, void (std::__ndk1::basic_string<char, std::__ndk1::char_traits<char>, std::__ndk1::allocator<char> > const&)>::destroy_deallocate()
FUNC 1f910 68 0 std::__ndk1::__function::__func<Tab1::init()::$_1, std::__ndk1::allocator<Tab1::init()::$_1>, void (std::__ndk1::basic_string<char, std::__ndk1::char_traits<char>, std::__ndk1::allocator<char> > const&)>::operator()(std::__ndk1::basic_string<char, std::__ndk1::char_traits<char>, std::__ndk1::allocator<char> > const&)
FUNC 1f978 18 0 std::__ndk1::__function::__func<Tab1::init()::$_1, std::__ndk1::allocator<Tab1::init()::$_1>, void (std::__ndk1::basic_string<char, std::__ndk1::char_traits<char>, std::__ndk1::allocator<char> > const&)>::target(std::type_info const&) const
FUNC 1f990 c 0 std::__ndk1::__function::__func<Tab1::init()::$_1, std::__ndk1::allocator<Tab1::init()::$_1>, void (std::__ndk1::basic_string<char, std::__ndk1::char_traits<char>, std::__ndk1::allocator<char> > const&)>::target_type() const
FUNC 1f99c 4 0 std::__ndk1::__function::__func<Tab1::init()::$_2, std::__ndk1::allocator<Tab1::init()::$_2>, void (std::__ndk1::basic_string<char, std::__ndk1::char_traits<char>, std::__ndk1::allocator<char> > const&)>::~__func()
FUNC 1f9a0 20 0 std::__ndk1::__function::__func<Tab1::init()::$_2, std::__ndk1::allocator<Tab1::init()::$_2>, void (std::__ndk1::basic_string<char, std::__ndk1::char_traits<char>, std::__ndk1::allocator<char> > const&)>::__clone() const
FUNC 1f9c0 14 0 std::__ndk1::__function::__func<Tab1::init()::$_2, std::__ndk1::allocator<Tab1::init()::$_2>, void (std::__ndk1::basic_string<char, std::__ndk1::char_traits<char>, std::__ndk1::allocator<char> > const&)>::__clone(std::__ndk1::__function::__base<void (std::__ndk1::basic_string<char, std::__ndk1::char_traits<char>, std::__ndk1::allocator<char> > const&)>*) const
FUNC 1f9d4 2 0 std::__ndk1::__function::__func<Tab1::init()::$_2, std::__ndk1::allocator<Tab1::init()::$_2>, void (std::__ndk1::basic_string<char, std::__ndk1::char_traits<char>, std::__ndk1::allocator<char> > const&)>::destroy()
FUNC 1f9d6 4 0 std::__ndk1::__function::__func<Tab1::init()::$_2, std::__ndk1::allocator<Tab1::init()::$_2>, void (std::__ndk1::basic_string<char, std::__ndk1::char_traits<char>, std::__ndk1::allocator<char> > const&)>::destroy_deallocate()
FUNC 1f9dc 68 0 std::__ndk1::__function::__func<Tab1::init()::$_2, std::__ndk1::allocator<Tab1::init()::$_2>, void (std::__ndk1::basic_string<char, std::__ndk1::char_traits<char>, std::__ndk1::allocator<char> > const&)>::operator()(std::__ndk1::basic_string<char, std::__ndk1::char_traits<char>, std::__ndk1::allocator<char> > const&)
FUNC 1fa44 18 0 std::__ndk1::__function::__func<Tab1::init()::$_2, std::__ndk1::allocator<Tab1::init()::$_2>, void (std::__ndk1::basic_string<char, std::__ndk1::char_traits<char>, std::__ndk1::allocator<char> > const&)>::target(std::type_info const&) const
FUNC 1fa5c c 0 std::__ndk1::__function::__func<Tab1::init()::$_2, std::__ndk1::allocator<Tab1::init()::$_2>, void (std::__ndk1::basic_string<char, std::__ndk1::char_traits<char>, std::__ndk1::allocator<char> > const&)>::target_type() const
FUNC 1fa68 4 0 std::__ndk1::__function::__func<Tab1::init()::$_3, std::__ndk1::allocator<Tab1::init()::$_3>, void (std::__ndk1::basic_string<char, std::__ndk1::char_traits<char>, std::__ndk1::allocator<char> > const&)>::~__func()
FUNC 1fa6c 20 0 std::__ndk1::__function::__func<Tab1::init()::$_3, std::__ndk1::allocator<Tab1::init()::$_3>, void (std::__ndk1::basic_string<char, std::__ndk1::char_traits<char>, std::__ndk1::allocator<char> > const&)>::__clone() const
FUNC 1fa8c 14 0 std::__ndk1::__function::__func<Tab1::init()::$_3, std::__ndk1::allocator<Tab1::init()::$_3>, void (std::__ndk1::basic_string<char, std::__ndk1::char_traits<char>, std::__ndk1::allocator<char> > const&)>::__clone(std::__ndk1::__function::__base<void (std::__ndk1::basic_string<char, std::__ndk1::char_traits<char>, std::__ndk1::allocator<char> > const&)>*) const
FUNC 1faa0 2 0 std::__ndk1::__function::__func<Tab1::init()::$_3, std::__ndk1::allocator<Tab1::init()::$_3>, void (std::__ndk1::basic_string<char, std::__ndk1::char_traits<char>, std::__ndk1::allocator<char> > const&)>::destroy()
FUNC 1faa2 4 0 std::__ndk1::__function::__func<Tab1::init()::$_3, std::__ndk1::allocator<Tab1::init()::$_3>, void (std::__ndk1::basic_string<char, std::__ndk1::char_traits<char>, std::__ndk1::allocator<char> > const&)>::destroy_deallocate()
FUNC 1faa8 68 0 std::__ndk1::__function::__func<Tab1::init()::$_3, std::__ndk1::allocator<Tab1::init()::$_3>, void (std::__ndk1::basic_string<char, std::__ndk1::char_traits<char>, std::__ndk1::allocator<char> > const&)>::operator()(std::__ndk1::basic_string<char, std::__ndk1::char_traits<char>, std::__ndk1::allocator<char> > const&)
FUNC 1fb10 18 0 std::__ndk1::__function::__func<Tab1::init()::$_3, std::__ndk1::allocator<Tab1::init()::$_3>, void (std::__ndk1::basic_string<char, std::__ndk1::char_traits<char>, std::__ndk1::allocator<char> > const&)>::target(std::type_info const&) const
FUNC 1fb28 c 0 std::__ndk1::__function::__func<Tab1::init()::$_3, std::__ndk1::allocator<Tab1::init()::$_3>, void (std::__ndk1::basic_string<char, std::__ndk1::char_traits<char>, std::__ndk1::allocator<char> > const&)>::target_type() const
FUNC 1fb34 4 0 std::__ndk1::__function::__func<Tab1::init()::$_4, std::__ndk1::allocator<Tab1::init()::$_4>, void (std::__ndk1::basic_string<char, std::__ndk1::char_traits<char>, std::__ndk1::allocator<char> > const&)>::~__func()
FUNC 1fb38 20 0 std::__ndk1::__function::__func<Tab1::init()::$_4, std::__ndk1::allocator<Tab1::init()::$_4>, void (std::__ndk1::basic_string<char, std::__ndk1::char_traits<char>, std::__ndk1::allocator<char> > const&)>::__clone() const
FUNC 1fb58 14 0 std::__ndk1::__function::__func<Tab1::init()::$_4, std::__ndk1::allocator<Tab1::init()::$_4>, void (std::__ndk1::basic_string<char, std::__ndk1::char_traits<char>, std::__ndk1::allocator<char> > const&)>::__clone(std::__ndk1::__function::__base<void (std::__ndk1::basic_string<char, std::__ndk1::char_traits<char>, std::__ndk1::allocator<char> > const&)>*) const
FUNC 1fb6c 2 0 std::__ndk1::__function::__func<Tab1::init()::$_4, std::__ndk1::allocator<Tab1::init()::$_4>, void (std::__ndk1::basic_string<char, std::__ndk1::char_traits<char>, std::__ndk1::allocator<char> > const&)>::destroy()
FUNC 1fb6e 4 0 std::__ndk1::__function::__func<Tab1::init()::$_4, std::__ndk1::allocator<Tab1::init()::$_4>, void (std::__ndk1::basic_string<char, std::__ndk1::char_traits<char>, std::__ndk1::allocator<char> > const&)>::destroy_deallocate()
FUNC 1fb74 68 0 std::__ndk1::__function::__func<Tab1::init()::$_4, std::__ndk1::allocator<Tab1::init()::$_4>, void (std::__ndk1::basic_string<char, std::__ndk1::char_traits<char>, std::__ndk1::allocator<char> > const&)>::operator()(std::__ndk1::basic_string<char, std::__ndk1::char_traits<char>, std::__ndk1::allocator<char> > const&)
FUNC 1fbdc 18 0 std::__ndk1::__function::__func<Tab1::init()::$_4, std::__ndk1::allocator<Tab1::init()::$_4>, void (std::__ndk1::basic_string<char, std::__ndk1::char_traits<char>, std::__ndk1::allocator<char> > const&)>::target(std::type_info const&) const
FUNC 1fbf4 c 0 std::__ndk1::__function::__func<Tab1::init()::$_4, std::__ndk1::allocator<Tab1::init()::$_4>, void (std::__ndk1::basic_string<char, std::__ndk1::char_traits<char>, std::__ndk1::allocator<char> > const&)>::target_type() const
FUNC 1fc00 4 0 std::__ndk1::__function::__func<Tab1::init()::$_5, std::__ndk1::allocator<Tab1::init()::$_5>, void (std::__ndk1::basic_string<char, std::__ndk1::char_traits<char>, std::__ndk1::allocator<char> > const&)>::~__func()
FUNC 1fc04 20 0 std::__ndk1::__function::__func<Tab1::init()::$_5, std::__ndk1::allocator<Tab1::init()::$_5>, void (std::__ndk1::basic_string<char, std::__ndk1::char_traits<char>, std::__ndk1::allocator<char> > const&)>::__clone() const
FUNC 1fc24 14 0 std::__ndk1::__function::__func<Tab1::init()::$_5, std::__ndk1::allocator<Tab1::init()::$_5>, void (std::__ndk1::basic_string<char, std::__ndk1::char_traits<char>, std::__ndk1::allocator<char> > const&)>::__clone(std::__ndk1::__function::__base<void (std::__ndk1::basic_string<char, std::__ndk1::char_traits<char>, std::__ndk1::allocator<char> > const&)>*) const
FUNC 1fc38 2 0 std::__ndk1::__function::__func<Tab1::init()::$_5, std::__ndk1::allocator<Tab1::init()::$_5>, void (std::__ndk1::basic_string<char, std::__ndk1::char_traits<char>, std::__ndk1::allocator<char> > const&)>::destroy()
FUNC 1fc3a 4 0 std::__ndk1::__function::__func<Tab1::init()::$_5, std::__ndk1::allocator<Tab1::init()::$_5>, void (std::__ndk1::basic_string<char, std::__ndk1::char_traits<char>, std::__ndk1::allocator<char> > const&)>::destroy_deallocate()
FUNC 1fc40 68 0 std::__ndk1::__function::__func<Tab1::init()::$_5, std::__ndk1::allocator<Tab1::init()::$_5>, void (std::__ndk1::basic_string<char, std::__ndk1::char_traits<char>, std::__ndk1::allocator<char> > const&)>::operator()(std::__ndk1::basic_string<char, std::__ndk1::char_traits<char>, std::__ndk1::allocator<char> > const&)
FUNC 1fca8 18 0 std::__ndk1::__function::__func<Tab1::init()::$_5, std::__ndk1::allocator<Tab1::init()::$_5>, void (std::__ndk1::basic_string<char, std::__ndk1::char_traits<char>, std::__ndk1::allocator<char> > const&)>::target(std::type_info const&) const
FUNC 1fcc0 c 0 std::__ndk1::__function::__func<Tab1::init()::$_5, std::__ndk1::allocator<Tab1::init()::$_5>, void (std::__ndk1::basic_string<char, std::__ndk1::char_traits<char>, std::__ndk1::allocator<char> > const&)>::target_type() const
FUNC 1fccc 4 0 std::__ndk1::__function::__func<Tab1::init()::$_6, std::__ndk1::allocator<Tab1::init()::$_6>, void (std::__ndk1::basic_string<char, std::__ndk1::char_traits<char>, std::__ndk1::allocator<char> > const&)>::~__func()
FUNC 1fcd0 20 0 std::__ndk1::__function::__func<Tab1::init()::$_6, std::__ndk1::allocator<Tab1::init()::$_6>, void (std::__ndk1::basic_string<char, std::__ndk1::char_traits<char>, std::__ndk1::allocator<char> > const&)>::__clone() const
FUNC 1fcf0 14 0 std::__ndk1::__function::__func<Tab1::init()::$_6, std::__ndk1::allocator<Tab1::init()::$_6>, void (std::__ndk1::basic_string<char, std::__ndk1::char_traits<char>, std::__ndk1::allocator<char> > const&)>::__clone(std::__ndk1::__function::__base<void (std::__ndk1::basic_string<char, std::__ndk1::char_traits<char>, std::__ndk1::allocator<char> > const&)>*) const
FUNC 1fd04 2 0 std::__ndk1::__function::__func<Tab1::init()::$_6, std::__ndk1::allocator<Tab1::init()::$_6>, void (std::__ndk1::basic_string<char, std::__ndk1::char_traits<char>, std::__ndk1::allocator<char> > const&)>::destroy()
FUNC 1fd06 4 0 std::__ndk1::__function::__func<Tab1::init()::$_6, std::__ndk1::allocator<Tab1::init()::$_6>, void (std::__ndk1::basic_string<char, std::__ndk1::char_traits<char>, std::__ndk1::allocator<char> > const&)>::destroy_deallocate()
FUNC 1fd0c 68 0 std::__ndk1::__function::__func<Tab1::init()::$_6, std::__ndk1::allocator<Tab1::init()::$_6>, void (std::__ndk1::basic_string<char, std::__ndk1::char_traits<char>, std::__ndk1::allocator<char> > const&)>::operator()(std::__ndk1::basic_string<char, std::__ndk1::char_traits<char>, std::__ndk1::allocator<char> > const&)
FUNC 1fd74 18 0 std::__ndk1::__function::__func<Tab1::init()::$_6, std::__ndk1::allocator<Tab1::init()::$_6>, void (std::__ndk1::basic_string<char, std::__ndk1::char_traits<char>, std::__ndk1::allocator<char> > const&)>::target(std::type_info const&) const
FUNC 1fd8c c 0 std::__ndk1::__function::__func<Tab1::init()::$_6, std::__ndk1::allocator<Tab1::init()::$_6>, void (std::__ndk1::basic_string<char, std::__ndk1::char_traits<char>, std::__ndk1::allocator<char> > const&)>::target_type() const
FUNC 1fd98 4 0 std::__ndk1::__function::__func<Tab1::init()::$_7, std::__ndk1::allocator<Tab1::init()::$_7>, void (std::__ndk1::basic_string<char, std::__ndk1::char_traits<char>, std::__ndk1::allocator<char> > const&)>::~__func()
FUNC 1fd9c 20 0 std::__ndk1::__function::__func<Tab1::init()::$_7, std::__ndk1::allocator<Tab1::init()::$_7>, void (std::__ndk1::basic_string<char, std::__ndk1::char_traits<char>, std::__ndk1::allocator<char> > const&)>::__clone() const
FUNC 1fdbc 14 0 std::__ndk1::__function::__func<Tab1::init()::$_7, std::__ndk1::allocator<Tab1::init()::$_7>, void (std::__ndk1::basic_string<char, std::__ndk1::char_traits<char>, std::__ndk1::allocator<char> > const&)>::__clone(std::__ndk1::__function::__base<void (std::__ndk1::basic_string<char, std::__ndk1::char_traits<char>, std::__ndk1::allocator<char> > const&)>*) const
FUNC 1fdd0 2 0 std::__ndk1::__function::__func<Tab1::init()::$_7, std::__ndk1::allocator<Tab1::init()::$_7>, void (std::__ndk1::basic_string<char, std::__ndk1::char_traits<char>, std::__ndk1::allocator<char> > const&)>::destroy()
FUNC 1fdd2 4 0 std::__ndk1::__function::__func<Tab1::init()::$_7, std::__ndk1::allocator<Tab1::init()::$_7>, void (std::__ndk1::basic_string<char, std::__ndk1::char_traits<char>, std::__ndk1::allocator<char> > const&)>::destroy_deallocate()
FUNC 1fdd8 68 0 std::__ndk1::__function::__func<Tab1::init()::$_7, std::__ndk1::allocator<Tab1::init()::$_7>, void (std::__ndk1::basic_string<char, std::__ndk1::char_traits<char>, std::__ndk1::allocator<char> > const&)>::operator()(std::__ndk1::basic_string<char, std::__ndk1::char_traits<char>, std::__ndk1::allocator<char> > const&)
FUNC 1fe40 18 0 std::__ndk1::__function::__func<Tab1::init()::$_7, std::__ndk1::allocator<Tab1::init()::$_7>, void (std::__ndk1::basic_string<char, std::__ndk1::char_traits<char>, std::__ndk1::allocator<char> > const&)>::target(std::type_info const&) const
FUNC 1fe58 c 0 std::__ndk1::__function::__func<Tab1::init()::$_7, std::__ndk1::allocator<Tab1::init()::$_7>, void (std::__ndk1::basic_string<char, std::__ndk1::char_traits<char>, std::__ndk1::allocator<char> > const&)>::target_type() const
FUNC 1fe64 4 0 std::__ndk1::__function::__func<Tab1::init()::$_8, std::__ndk1::allocator<Tab1::init()::$_8>, void (std::__ndk1::basic_string<char, std::__ndk1::char_traits<char>, std::__ndk1::allocator<char> > const&)>::~__func()
FUNC 1fe68 20 0 std::__ndk1::__function::__func<Tab1::init()::$_8, std::__ndk1::allocator<Tab1::init()::$_8>, void (std::__ndk1::basic_string<char, std::__ndk1::char_traits<char>, std::__ndk1::allocator<char> > const&)>::__clone() const
FUNC 1fe88 14 0 std::__ndk1::__function::__func<Tab1::init()::$_8, std::__ndk1::allocator<Tab1::init()::$_8>, void (std::__ndk1::basic_string<char, std::__ndk1::char_traits<char>, std::__ndk1::allocator<char> > const&)>::__clone(std::__ndk1::__function::__base<void (std::__ndk1::basic_string<char, std::__ndk1::char_traits<char>, std::__ndk1::allocator<char> > const&)>*) const
FUNC 1fe9c 2 0 std::__ndk1::__function::__func<Tab1::init()::$_8, std::__ndk1::allocator<Tab1::init()::$_8>, void (std::__ndk1::basic_string<char, std::__ndk1::char_traits<char>, std::__ndk1::allocator<char> > const&)>::destroy()
FUNC 1fe9e 4 0 std::__ndk1::__function::__func<Tab1::init()::$_8, std::__ndk1::allocator<Tab1::init()::$_8>, void (std::__ndk1::basic_string<char, std::__ndk1::char_traits<char>, std::__ndk1::allocator<char> > const&)>::destroy_deallocate()
FUNC 1fea4 68 0 std::__ndk1::__function::__func<Tab1::init()::$_8, std::__ndk1::allocator<Tab1::init()::$_8>, void (std::__ndk1::basic_string<char, std::__ndk1::char_traits<char>, std::__ndk1::allocator<char> > const&)>::operator()(std::__ndk1::basic_string<char, std::__ndk1::char_traits<char>, std::__ndk1::allocator<char> > const&)
FUNC 1ff0c 18 0 std::__ndk1::__function::__func<Tab1::init()::$_8, std::__ndk1::allocator<Tab1::init()::$_8>, void (std::__ndk1::basic_string<char, std::__ndk1::char_traits<char>, std::__ndk1::allocator<char> > const&)>::target(std::type_info const&) const
FUNC 1ff24 c 0 std::__ndk1::__function::__func<Tab1::init()::$_8, std::__ndk1::allocator<Tab1::init()::$_8>, void (std::__ndk1::basic_string<char, std::__ndk1::char_traits<char>, std::__ndk1::allocator<char> > const&)>::target_type() const
FUNC 1ff30 4 0 std::__ndk1::__function::__func<Tab1::init()::$_9, std::__ndk1::allocator<Tab1::init()::$_9>, void (std::__ndk1::basic_string<char, std::__ndk1::char_traits<char>, std::__ndk1::allocator<char> > const&)>::~__func()
FUNC 1ff34 20 0 std::__ndk1::__function::__func<Tab1::init()::$_9, std::__ndk1::allocator<Tab1::init()::$_9>, void (std::__ndk1::basic_string<char, std::__ndk1::char_traits<char>, std::__ndk1::allocator<char> > const&)>::__clone() const
FUNC 1ff54 14 0 std::__ndk1::__function::__func<Tab1::init()::$_9, std::__ndk1::allocator<Tab1::init()::$_9>, void (std::__ndk1::basic_string<char, std::__ndk1::char_traits<char>, std::__ndk1::allocator<char> > const&)>::__clone(std::__ndk1::__function::__base<void (std::__ndk1::basic_string<char, std::__ndk1::char_traits<char>, std::__ndk1::allocator<char> > const&)>*) const
FUNC 1ff68 2 0 std::__ndk1::__function::__func<Tab1::init()::$_9, std::__ndk1::allocator<Tab1::init()::$_9>, void (std::__ndk1::basic_string<char, std::__ndk1::char_traits<char>, std::__ndk1::allocator<char> > const&)>::destroy()
FUNC 1ff6a 4 0 std::__ndk1::__function::__func<Tab1::init()::$_9, std::__ndk1::allocator<Tab1::init()::$_9>, void (std::__ndk1::basic_string<char, std::__ndk1::char_traits<char>, std::__ndk1::allocator<char> > const&)>::destroy_deallocate()
FUNC 1ff70 68 0 std::__ndk1::__function::__func<Tab1::init()::$_9, std::__ndk1::allocator<Tab1::init()::$_9>, void (std::__ndk1::basic_string<char, std::__ndk1::char_traits<char>, std::__ndk1::allocator<char> > const&)>::operator()(std::__ndk1::basic_string<char, std::__ndk1::char_traits<char>, std::__ndk1::allocator<char> > const&)
FUNC 1ffd8 18 0 std::__ndk1::__function::__func<Tab1::init()::$_9, std::__ndk1::allocator<Tab1::init()::$_9>, void (std::__ndk1::basic_string<char, std::__ndk1::char_traits<char>, std::__ndk1::allocator<char> > const&)>::target(std::type_info const&) const
FUNC 1fff0 c 0 std::__ndk1::__function::__func<Tab1::init()::$_9, std::__ndk1::allocator<Tab1::init()::$_9>, void (std::__ndk1::basic_string<char, std::__ndk1::char_traits<char>, std::__ndk1::allocator<char> > const&)>::target_type() const
FUNC 1fffc 4 0 std::__ndk1::__function::__func<Tab1::init()::$_10, std::__ndk1::allocator<Tab1::init()::$_10>, void (std::__ndk1::basic_string<char, std::__ndk1::char_traits<char>, std::__ndk1::allocator<char> > const&)>::~__func()
FUNC 20000 20 0 std::__ndk1::__function::__func<Tab1::init()::$_10, std::__ndk1::allocator<Tab1::init()::$_10>, void (std::__ndk1::basic_string<char, std::__ndk1::char_traits<char>, std::__ndk1::allocator<char> > const&)>::__clone() const
FUNC 20020 14 0 std::__ndk1::__function::__func<Tab1::init()::$_10, std::__ndk1::allocator<Tab1::init()::$_10>, void (std::__ndk1::basic_string<char, std::__ndk1::char_traits<char>, std::__ndk1::allocator<char> > const&)>::__clone(std::__ndk1::__function::__base<void (std::__ndk1::basic_string<char, std::__ndk1::char_traits<char>, std::__ndk1::allocator<char> > const&)>*) const
FUNC 20034 2 0 std::__ndk1::__function::__func<Tab1::init()::$_10, std::__ndk1::allocator<Tab1::init()::$_10>, void (std::__ndk1::basic_string<char, std::__ndk1::char_traits<char>, std::__ndk1::allocator<char> > const&)>::destroy()
FUNC 20036 4 0 std::__ndk1::__function::__func<Tab1::init()::$_10, std::__ndk1::allocator<Tab1::init()::$_10>, void (std::__ndk1::basic_string<char, std::__ndk1::char_traits<char>, std::__ndk1::allocator<char> > const&)>::destroy_deallocate()
FUNC 2003c 68 0 std::__ndk1::__function::__func<Tab1::init()::$_10, std::__ndk1::allocator<Tab1::init()::$_10>, void (std::__ndk1::basic_string<char, std::__ndk1::char_traits<char>, std::__ndk1::allocator<char> > const&)>::operator()(std::__ndk1::basic_string<char, std::__ndk1::char_traits<char>, std::__ndk1::allocator<char> > const&)
FUNC 200a4 18 0 std::__ndk1::__function::__func<Tab1::init()::$_10, std::__ndk1::allocator<Tab1::init()::$_10>, void (std::__ndk1::basic_string<char, std::__ndk1::char_traits<char>, std::__ndk1::allocator<char> > const&)>::target(std::type_info const&) const
FUNC 200bc c 0 std::__ndk1::__function::__func<Tab1::init()::$_10, std::__ndk1::allocator<Tab1::init()::$_10>, void (std::__ndk1::basic_string<char, std::__ndk1::char_traits<char>, std::__ndk1::allocator<char> > const&)>::target_type() const
FUNC 200c8 4 0 std::__ndk1::__function::__func<Tab1::init()::$_11, std::__ndk1::allocator<Tab1::init()::$_11>, void (std::__ndk1::basic_string<char, std::__ndk1::char_traits<char>, std::__ndk1::allocator<char> > const&)>::~__func()
FUNC 200cc 20 0 std::__ndk1::__function::__func<Tab1::init()::$_11, std::__ndk1::allocator<Tab1::init()::$_11>, void (std::__ndk1::basic_string<char, std::__ndk1::char_traits<char>, std::__ndk1::allocator<char> > const&)>::__clone() const
FUNC 200ec 14 0 std::__ndk1::__function::__func<Tab1::init()::$_11, std::__ndk1::allocator<Tab1::init()::$_11>, void (std::__ndk1::basic_string<char, std::__ndk1::char_traits<char>, std::__ndk1::allocator<char> > const&)>::__clone(std::__ndk1::__function::__base<void (std::__ndk1::basic_string<char, std::__ndk1::char_traits<char>, std::__ndk1::allocator<char> > const&)>*) const
FUNC 20100 2 0 std::__ndk1::__function::__func<Tab1::init()::$_11, std::__ndk1::allocator<Tab1::init()::$_11>, void (std::__ndk1::basic_string<char, std::__ndk1::char_traits<char>, std::__ndk1::allocator<char> > const&)>::destroy()
FUNC 20102 4 0 std::__ndk1::__function::__func<Tab1::init()::$_11, std::__ndk1::allocator<Tab1::init()::$_11>, void (std::__ndk1::basic_string<char, std::__ndk1::char_traits<char>, std::__ndk1::allocator<char> > const&)>::destroy_deallocate()
FUNC 20108 68 0 std::__ndk1::__function::__func<Tab1::init()::$_11, std::__ndk1::allocator<Tab1::init()::$_11>, void (std::__ndk1::basic_string<char, std::__ndk1::char_traits<char>, std::__ndk1::allocator<char> > const&)>::operator()(std::__ndk1::basic_string<char, std::__ndk1::char_traits<char>, std::__ndk1::allocator<char> > const&)
FUNC 20170 18 0 std::__ndk1::__function::__func<Tab1::init()::$_11, std::__ndk1::allocator<Tab1::init()::$_11>, void (std::__ndk1::basic_string<char, std::__ndk1::char_traits<char>, std::__ndk1::allocator<char> > const&)>::target(std::type_info const&) const
FUNC 20188 c 0 std::__ndk1::__function::__func<Tab1::init()::$_11, std::__ndk1::allocator<Tab1::init()::$_11>, void (std::__ndk1::basic_string<char, std::__ndk1::char_traits<char>, std::__ndk1::allocator<char> > const&)>::target_type() const
FUNC 20194 4 0 std::__ndk1::__function::__func<Tab1::init()::$_12, std::__ndk1::allocator<Tab1::init()::$_12>, void (std::__ndk1::basic_string<char, std::__ndk1::char_traits<char>, std::__ndk1::allocator<char> > const&)>::~__func()
FUNC 20198 20 0 std::__ndk1::__function::__func<Tab1::init()::$_12, std::__ndk1::allocator<Tab1::init()::$_12>, void (std::__ndk1::basic_string<char, std::__ndk1::char_traits<char>, std::__ndk1::allocator<char> > const&)>::__clone() const
FUNC 201b8 14 0 std::__ndk1::__function::__func<Tab1::init()::$_12, std::__ndk1::allocator<Tab1::init()::$_12>, void (std::__ndk1::basic_string<char, std::__ndk1::char_traits<char>, std::__ndk1::allocator<char> > const&)>::__clone(std::__ndk1::__function::__base<void (std::__ndk1::basic_string<char, std::__ndk1::char_traits<char>, std::__ndk1::allocator<char> > const&)>*) const
FUNC 201cc 2 0 std::__ndk1::__function::__func<Tab1::init()::$_12, std::__ndk1::allocator<Tab1::init()::$_12>, void (std::__ndk1::basic_string<char, std::__ndk1::char_traits<char>, std::__ndk1::allocator<char> > const&)>::destroy()
FUNC 201ce 4 0 std::__ndk1::__function::__func<Tab1::init()::$_12, std::__ndk1::allocator<Tab1::init()::$_12>, void (std::__ndk1::basic_string<char, std::__ndk1::char_traits<char>, std::__ndk1::allocator<char> > const&)>::destroy_deallocate()
FUNC 201d4 68 0 std::__ndk1::__function::__func<Tab1::init()::$_12, std::__ndk1::allocator<Tab1::init()::$_12>, void (std::__ndk1::basic_string<char, std::__ndk1::char_traits<char>, std::__ndk1::allocator<char> > const&)>::operator()(std::__ndk1::basic_string<char, std::__ndk1::char_traits<char>, std::__ndk1::allocator<char> > const&)
FUNC 2023c 18 0 std::__ndk1::__function::__func<Tab1::init()::$_12, std::__ndk1::allocator<Tab1::init()::$_12>, void (std::__ndk1::basic_string<char, std::__ndk1::char_traits<char>, std::__ndk1::allocator<char> > const&)>::target(std::type_info const&) const
FUNC 20254 c 0 std::__ndk1::__function::__func<Tab1::init()::$_12, std::__ndk1::allocator<Tab1::init()::$_12>, void (std::__ndk1::basic_string<char, std::__ndk1::char_traits<char>, std::__ndk1::allocator<char> > const&)>::target_type() const
FUNC 20260 4 0 std::__ndk1::__function::__func<Tab1::init()::$_13, std::__ndk1::allocator<Tab1::init()::$_13>, void (std::__ndk1::basic_string<char, std::__ndk1::char_traits<char>, std::__ndk1::allocator<char> > const&)>::~__func()
FUNC 20264 20 0 std::__ndk1::__function::__func<Tab1::init()::$_13, std::__ndk1::allocator<Tab1::init()::$_13>, void (std::__ndk1::basic_string<char, std::__ndk1::char_traits<char>, std::__ndk1::allocator<char> > const&)>::__clone() const
FUNC 20284 14 0 std::__ndk1::__function::__func<Tab1::init()::$_13, std::__ndk1::allocator<Tab1::init()::$_13>, void (std::__ndk1::basic_string<char, std::__ndk1::char_traits<char>, std::__ndk1::allocator<char> > const&)>::__clone(std::__ndk1::__function::__base<void (std::__ndk1::basic_string<char, std::__ndk1::char_traits<char>, std::__ndk1::allocator<char> > const&)>*) const
FUNC 20298 2 0 std::__ndk1::__function::__func<Tab1::init()::$_13, std::__ndk1::allocator<Tab1::init()::$_13>, void (std::__ndk1::basic_string<char, std::__ndk1::char_traits<char>, std::__ndk1::allocator<char> > const&)>::destroy()
FUNC 2029a 4 0 std::__ndk1::__function::__func<Tab1::init()::$_13, std::__ndk1::allocator<Tab1::init()::$_13>, void (std::__ndk1::basic_string<char, std::__ndk1::char_traits<char>, std::__ndk1::allocator<char> > const&)>::destroy_deallocate()
FUNC 202a0 68 0 std::__ndk1::__function::__func<Tab1::init()::$_13, std::__ndk1::allocator<Tab1::init()::$_13>, void (std::__ndk1::basic_string<char, std::__ndk1::char_traits<char>, std::__ndk1::allocator<char> > const&)>::operator()(std::__ndk1::basic_string<char, std::__ndk1::char_traits<char>, std::__ndk1::allocator<char> > const&)
FUNC 20308 18 0 std::__ndk1::__function::__func<Tab1::init()::$_13, std::__ndk1::allocator<Tab1::init()::$_13>, void (std::__ndk1::basic_string<char, std::__ndk1::char_traits<char>, std::__ndk1::allocator<char> > const&)>::target(std::type_info const&) const
FUNC 20320 c 0 std::__ndk1::__function::__func<Tab1::init()::$_13, std::__ndk1::allocator<Tab1::init()::$_13>, void (std::__ndk1::basic_string<char, std::__ndk1::char_traits<char>, std::__ndk1::allocator<char> > const&)>::target_type() const
FUNC 2032c 4 0 std::__ndk1::__function::__func<Tab1::init()::$_14, std::__ndk1::allocator<Tab1::init()::$_14>, void (std::__ndk1::basic_string<char, std::__ndk1::char_traits<char>, std::__ndk1::allocator<char> > const&)>::~__func()
FUNC 20330 20 0 std::__ndk1::__function::__func<Tab1::init()::$_14, std::__ndk1::allocator<Tab1::init()::$_14>, void (std::__ndk1::basic_string<char, std::__ndk1::char_traits<char>, std::__ndk1::allocator<char> > const&)>::__clone() const
FUNC 20350 14 0 std::__ndk1::__function::__func<Tab1::init()::$_14, std::__ndk1::allocator<Tab1::init()::$_14>, void (std::__ndk1::basic_string<char, std::__ndk1::char_traits<char>, std::__ndk1::allocator<char> > const&)>::__clone(std::__ndk1::__function::__base<void (std::__ndk1::basic_string<char, std::__ndk1::char_traits<char>, std::__ndk1::allocator<char> > const&)>*) const
FUNC 20364 2 0 std::__ndk1::__function::__func<Tab1::init()::$_14, std::__ndk1::allocator<Tab1::init()::$_14>, void (std::__ndk1::basic_string<char, std::__ndk1::char_traits<char>, std::__ndk1::allocator<char> > const&)>::destroy()
FUNC 20366 4 0 std::__ndk1::__function::__func<Tab1::init()::$_14, std::__ndk1::allocator<Tab1::init()::$_14>, void (std::__ndk1::basic_string<char, std::__ndk1::char_traits<char>, std::__ndk1::allocator<char> > const&)>::destroy_deallocate()
FUNC 2036c 68 0 std::__ndk1::__function::__func<Tab1::init()::$_14, std::__ndk1::allocator<Tab1::init()::$_14>, void (std::__ndk1::basic_string<char, std::__ndk1::char_traits<char>, std::__ndk1::allocator<char> > const&)>::operator()(std::__ndk1::basic_string<char, std::__ndk1::char_traits<char>, std::__ndk1::allocator<char> > const&)
FUNC 203d4 18 0 std::__ndk1::__function::__func<Tab1::init()::$_14, std::__ndk1::allocator<Tab1::init()::$_14>, void (std::__ndk1::basic_string<char, std::__ndk1::char_traits<char>, std::__ndk1::allocator<char> > const&)>::target(std::type_info const&) const
FUNC 203ec c 0 std::__ndk1::__function::__func<Tab1::init()::$_14, std::__ndk1::allocator<Tab1::init()::$_14>, void (std::__ndk1::basic_string<char, std::__ndk1::char_traits<char>, std::__ndk1::allocator<char> > const&)>::target_type() const
FUNC 203f8 4 0 std::__ndk1::__function::__func<Tab1::init()::$_15, std::__ndk1::allocator<Tab1::init()::$_15>, void (std::__ndk1::basic_string<char, std::__ndk1::char_traits<char>, std::__ndk1::allocator<char> > const&)>::~__func()
FUNC 203fc 20 0 std::__ndk1::__function::__func<Tab1::init()::$_15, std::__ndk1::allocator<Tab1::init()::$_15>, void (std::__ndk1::basic_string<char, std::__ndk1::char_traits<char>, std::__ndk1::allocator<char> > const&)>::__clone() const
FUNC 2041c 14 0 std::__ndk1::__function::__func<Tab1::init()::$_15, std::__ndk1::allocator<Tab1::init()::$_15>, void (std::__ndk1::basic_string<char, std::__ndk1::char_traits<char>, std::__ndk1::allocator<char> > const&)>::__clone(std::__ndk1::__function::__base<void (std::__ndk1::basic_string<char, std::__ndk1::char_traits<char>, std::__ndk1::allocator<char> > const&)>*) const
FUNC 20430 2 0 std::__ndk1::__function::__func<Tab1::init()::$_15, std::__ndk1::allocator<Tab1::init()::$_15>, void (std::__ndk1::basic_string<char, std::__ndk1::char_traits<char>, std::__ndk1::allocator<char> > const&)>::destroy()
FUNC 20432 4 0 std::__ndk1::__function::__func<Tab1::init()::$_15, std::__ndk1::allocator<Tab1::init()::$_15>, void (std::__ndk1::basic_string<char, std::__ndk1::char_traits<char>, std::__ndk1::allocator<char> > const&)>::destroy_deallocate()
FUNC 20438 68 0 std::__ndk1::__function::__func<Tab1::init()::$_15, std::__ndk1::allocator<Tab1::init()::$_15>, void (std::__ndk1::basic_string<char, std::__ndk1::char_traits<char>, std::__ndk1::allocator<char> > const&)>::operator()(std::__ndk1::basic_string<char, std::__ndk1::char_traits<char>, std::__ndk1::allocator<char> > const&)
FUNC 204a0 18 0 std::__ndk1::__function::__func<Tab1::init()::$_15, std::__ndk1::allocator<Tab1::init()::$_15>, void (std::__ndk1::basic_string<char, std::__ndk1::char_traits<char>, std::__ndk1::allocator<char> > const&)>::target(std::type_info const&) const
FUNC 204b8 c 0 std::__ndk1::__function::__func<Tab1::init()::$_15, std::__ndk1::allocator<Tab1::init()::$_15>, void (std::__ndk1::basic_string<char, std::__ndk1::char_traits<char>, std::__ndk1::allocator<char> > const&)>::target_type() const
FUNC 204c4 4 0 std::__ndk1::__function::__func<Tab1::init()::$_16, std::__ndk1::allocator<Tab1::init()::$_16>, void (std::__ndk1::basic_string<char, std::__ndk1::char_traits<char>, std::__ndk1::allocator<char> > const&)>::~__func()
FUNC 204c8 20 0 std::__ndk1::__function::__func<Tab1::init()::$_16, std::__ndk1::allocator<Tab1::init()::$_16>, void (std::__ndk1::basic_string<char, std::__ndk1::char_traits<char>, std::__ndk1::allocator<char> > const&)>::__clone() const
FUNC 204e8 14 0 std::__ndk1::__function::__func<Tab1::init()::$_16, std::__ndk1::allocator<Tab1::init()::$_16>, void (std::__ndk1::basic_string<char, std::__ndk1::char_traits<char>, std::__ndk1::allocator<char> > const&)>::__clone(std::__ndk1::__function::__base<void (std::__ndk1::basic_string<char, std::__ndk1::char_traits<char>, std::__ndk1::allocator<char> > const&)>*) const
FUNC 204fc 2 0 std::__ndk1::__function::__func<Tab1::init()::$_16, std::__ndk1::allocator<Tab1::init()::$_16>, void (std::__ndk1::basic_string<char, std::__ndk1::char_traits<char>, std::__ndk1::allocator<char> > const&)>::destroy()
FUNC 204fe 4 0 std::__ndk1::__function::__func<Tab1::init()::$_16, std::__ndk1::allocator<Tab1::init()::$_16>, void (std::__ndk1::basic_string<char, std::__ndk1::char_traits<char>, std::__ndk1::allocator<char> > const&)>::destroy_deallocate()
FUNC 20504 68 0 std::__ndk1::__function::__func<Tab1::init()::$_16, std::__ndk1::allocator<Tab1::init()::$_16>, void (std::__ndk1::basic_string<char, std::__ndk1::char_traits<char>, std::__ndk1::allocator<char> > const&)>::operator()(std::__ndk1::basic_string<char, std::__ndk1::char_traits<char>, std::__ndk1::allocator<char> > const&)
FUNC 2056c 18 0 std::__ndk1::__function::__func<Tab1::init()::$_16, std::__ndk1::allocator<Tab1::init()::$_16>, void (std::__ndk1::basic_string<char, std::__ndk1::char_traits<char>, std::__ndk1::allocator<char> > const&)>::target(std::type_info const&) const
FUNC 20584 c 0 std::__ndk1::__function::__func<Tab1::init()::$_16, std::__ndk1::allocator<Tab1::init()::$_16>, void (std::__ndk1::basic_string<char, std::__ndk1::char_traits<char>, std::__ndk1::allocator<char> > const&)>::target_type() const
FUNC 20590 4 0 std::__ndk1::__function::__func<Tab1::init()::$_17, std::__ndk1::allocator<Tab1::init()::$_17>, void (std::__ndk1::basic_string<char, std::__ndk1::char_traits<char>, std::__ndk1::allocator<char> > const&)>::~__func()
FUNC 20594 20 0 std::__ndk1::__function::__func<Tab1::init()::$_17, std::__ndk1::allocator<Tab1::init()::$_17>, void (std::__ndk1::basic_string<char, std::__ndk1::char_traits<char>, std::__ndk1::allocator<char> > const&)>::__clone() const
FUNC 205b4 14 0 std::__ndk1::__function::__func<Tab1::init()::$_17, std::__ndk1::allocator<Tab1::init()::$_17>, void (std::__ndk1::basic_string<char, std::__ndk1::char_traits<char>, std::__ndk1::allocator<char> > const&)>::__clone(std::__ndk1::__function::__base<void (std::__ndk1::basic_string<char, std::__ndk1::char_traits<char>, std::__ndk1::allocator<char> > const&)>*) const
FUNC 205c8 2 0 std::__ndk1::__function::__func<Tab1::init()::$_17, std::__ndk1::allocator<Tab1::init()::$_17>, void (std::__ndk1::basic_string<char, std::__ndk1::char_traits<char>, std::__ndk1::allocator<char> > const&)>::destroy()
FUNC 205ca 4 0 std::__ndk1::__function::__func<Tab1::init()::$_17, std::__ndk1::allocator<Tab1::init()::$_17>, void (std::__ndk1::basic_string<char, std::__ndk1::char_traits<char>, std::__ndk1::allocator<char> > const&)>::destroy_deallocate()
FUNC 205d0 68 0 std::__ndk1::__function::__func<Tab1::init()::$_17, std::__ndk1::allocator<Tab1::init()::$_17>, void (std::__ndk1::basic_string<char, std::__ndk1::char_traits<char>, std::__ndk1::allocator<char> > const&)>::operator()(std::__ndk1::basic_string<char, std::__ndk1::char_traits<char>, std::__ndk1::allocator<char> > const&)
FUNC 20638 18 0 std::__ndk1::__function::__func<Tab1::init()::$_17, std::__ndk1::allocator<Tab1::init()::$_17>, void (std::__ndk1::basic_string<char, std::__ndk1::char_traits<char>, std::__ndk1::allocator<char> > const&)>::target(std::type_info const&) const
FUNC 20650 c 0 std::__ndk1::__function::__func<Tab1::init()::$_17, std::__ndk1::allocator<Tab1::init()::$_17>, void (std::__ndk1::basic_string<char, std::__ndk1::char_traits<char>, std::__ndk1::allocator<char> > const&)>::target_type() const
FUNC 2065c 4 0 std::__ndk1::__function::__func<Tab1::init()::$_18, std::__ndk1::allocator<Tab1::init()::$_18>, void (std::__ndk1::basic_string<char, std::__ndk1::char_traits<char>, std::__ndk1::allocator<char> > const&)>::~__func()
FUNC 20660 20 0 std::__ndk1::__function::__func<Tab1::init()::$_18, std::__ndk1::allocator<Tab1::init()::$_18>, void (std::__ndk1::basic_string<char, std::__ndk1::char_traits<char>, std::__ndk1::allocator<char> > const&)>::__clone() const
FUNC 20680 14 0 std::__ndk1::__function::__func<Tab1::init()::$_18, std::__ndk1::allocator<Tab1::init()::$_18>, void (std::__ndk1::basic_string<char, std::__ndk1::char_traits<char>, std::__ndk1::allocator<char> > const&)>::__clone(std::__ndk1::__function::__base<void (std::__ndk1::basic_string<char, std::__ndk1::char_traits<char>, std::__ndk1::allocator<char> > const&)>*) const
FUNC 20694 2 0 std::__ndk1::__function::__func<Tab1::init()::$_18, std::__ndk1::allocator<Tab1::init()::$_18>, void (std::__ndk1::basic_string<char, std::__ndk1::char_traits<char>, std::__ndk1::allocator<char> > const&)>::destroy()
FUNC 20696 4 0 std::__ndk1::__function::__func<Tab1::init()::$_18, std::__ndk1::allocator<Tab1::init()::$_18>, void (std::__ndk1::basic_string<char, std::__ndk1::char_traits<char>, std::__ndk1::allocator<char> > const&)>::destroy_deallocate()
FUNC 2069c 68 0 std::__ndk1::__function::__func<Tab1::init()::$_18, std::__ndk1::allocator<Tab1::init()::$_18>, void (std::__ndk1::basic_string<char, std::__ndk1::char_traits<char>, std::__ndk1::allocator<char> > const&)>::operator()(std::__ndk1::basic_string<char, std::__ndk1::char_traits<char>, std::__ndk1::allocator<char> > const&)
FUNC 20704 18 0 std::__ndk1::__function::__func<Tab1::init()::$_18, std::__ndk1::allocator<Tab1::init()::$_18>, void (std::__ndk1::basic_string<char, std::__ndk1::char_traits<char>, std::__ndk1::allocator<char> > const&)>::target(std::type_info const&) const
FUNC 2071c c 0 std::__ndk1::__function::__func<Tab1::init()::$_18, std::__ndk1::allocator<Tab1::init()::$_18>, void (std::__ndk1::basic_string<char, std::__ndk1::char_traits<char>, std::__ndk1::allocator<char> > const&)>::target_type() const
FUNC 20728 4 0 std::__ndk1::__function::__func<Tab1::init()::$_19, std::__ndk1::allocator<Tab1::init()::$_19>, void (std::__ndk1::basic_string<char, std::__ndk1::char_traits<char>, std::__ndk1::allocator<char> > const&)>::~__func()
FUNC 2072c 20 0 std::__ndk1::__function::__func<Tab1::init()::$_19, std::__ndk1::allocator<Tab1::init()::$_19>, void (std::__ndk1::basic_string<char, std::__ndk1::char_traits<char>, std::__ndk1::allocator<char> > const&)>::__clone() const
FUNC 2074c 14 0 std::__ndk1::__function::__func<Tab1::init()::$_19, std::__ndk1::allocator<Tab1::init()::$_19>, void (std::__ndk1::basic_string<char, std::__ndk1::char_traits<char>, std::__ndk1::allocator<char> > const&)>::__clone(std::__ndk1::__function::__base<void (std::__ndk1::basic_string<char, std::__ndk1::char_traits<char>, std::__ndk1::allocator<char> > const&)>*) const
FUNC 20760 2 0 std::__ndk1::__function::__func<Tab1::init()::$_19, std::__ndk1::allocator<Tab1::init()::$_19>, void (std::__ndk1::basic_string<char, std::__ndk1::char_traits<char>, std::__ndk1::allocator<char> > const&)>::destroy()
FUNC 20762 4 0 std::__ndk1::__function::__func<Tab1::init()::$_19, std::__ndk1::allocator<Tab1::init()::$_19>, void (std::__ndk1::basic_string<char, std::__ndk1::char_traits<char>, std::__ndk1::allocator<char> > const&)>::destroy_deallocate()
FUNC 20768 68 0 std::__ndk1::__function::__func<Tab1::init()::$_19, std::__ndk1::allocator<Tab1::init()::$_19>, void (std::__ndk1::basic_string<char, std::__ndk1::char_traits<char>, std::__ndk1::allocator<char> > const&)>::operator()(std::__ndk1::basic_string<char, std::__ndk1::char_traits<char>, std::__ndk1::allocator<char> > const&)
FUNC 207d0 18 0 std::__ndk1::__function::__func<Tab1::init()::$_19, std::__ndk1::allocator<Tab1::init()::$_19>, void (std::__ndk1::basic_string<char, std::__ndk1::char_traits<char>, std::__ndk1::allocator<char> > const&)>::target(std::type_info const&) const
FUNC 207e8 c 0 std::__ndk1::__function::__func<Tab1::init()::$_19, std::__ndk1::allocator<Tab1::init()::$_19>, void (std::__ndk1::basic_string<char, std::__ndk1::char_traits<char>, std::__ndk1::allocator<char> > const&)>::target_type() const
FUNC 207f4 1f70 0 Tab2::init()
FUNC 22764 88 0 Tab2::SaveCheckbox(cocos2d::CCObject*)
FUNC 227ec 88 0 Tab2::SaveCheckbox2(cocos2d::CCObject*)
FUNC 22874 88 0 Tab2::SaveCheckbox3(cocos2d::CCObject*)
FUNC 228fc 88 0 Tab2::SaveCheckbox4(cocos2d::CCObject*)
FUNC 22984 88 0 Tab2::SaveCheckbox5(cocos2d::CCObject*)
FUNC 22a0c 88 0 Tab2::SaveCheckbox6(cocos2d::CCObject*)
FUNC 22a94 88 0 Tab2::SaveCheckbox7(cocos2d::CCObject*)
FUNC 22b1c 88 0 Tab2::SaveCheckbox8(cocos2d::CCObject*)
FUNC 22ba4 88 0 Tab2::SaveCheckbox9(cocos2d::CCObject*)
FUNC 22c2c 88 0 Tab2::SaveCheckbox10(cocos2d::CCObject*)
FUNC 22cb4 74 0 Tab2::create()
FUNC 22d28 10 0 Tab2::~Tab2()
FUNC 22d38 8 0 {virtual override thunk({offset(-264)}, Tab2::~Tab2())}
FUNC 22d40 14 0 {virtual override thunk({offset(-264)}, Tab2::~Tab2())}
FUNC 22d54 4 0 std::__ndk1::__function::__func<Tab2::init()::$_0, std::__ndk1::allocator<Tab2::init()::$_0>, void (std::__ndk1::basic_string<char, std::__ndk1::char_traits<char>, std::__ndk1::allocator<char> > const&)>::~__func()
FUNC 22d58 20 0 std::__ndk1::__function::__func<Tab2::init()::$_0, std::__ndk1::allocator<Tab2::init()::$_0>, void (std::__ndk1::basic_string<char, std::__ndk1::char_traits<char>, std::__ndk1::allocator<char> > const&)>::__clone() const
FUNC 22d78 14 0 std::__ndk1::__function::__func<Tab2::init()::$_0, std::__ndk1::allocator<Tab2::init()::$_0>, void (std::__ndk1::basic_string<char, std::__ndk1::char_traits<char>, std::__ndk1::allocator<char> > const&)>::__clone(std::__ndk1::__function::__base<void (std::__ndk1::basic_string<char, std::__ndk1::char_traits<char>, std::__ndk1::allocator<char> > const&)>*) const
FUNC 22d8c 2 0 std::__ndk1::__function::__func<Tab2::init()::$_0, std::__ndk1::allocator<Tab2::init()::$_0>, void (std::__ndk1::basic_string<char, std::__ndk1::char_traits<char>, std::__ndk1::allocator<char> > const&)>::destroy()
FUNC 22d8e 4 0 std::__ndk1::__function::__func<Tab2::init()::$_0, std::__ndk1::allocator<Tab2::init()::$_0>, void (std::__ndk1::basic_string<char, std::__ndk1::char_traits<char>, std::__ndk1::allocator<char> > const&)>::destroy_deallocate()
FUNC 22d94 68 0 std::__ndk1::__function::__func<Tab2::init()::$_0, std::__ndk1::allocator<Tab2::init()::$_0>, void (std::__ndk1::basic_string<char, std::__ndk1::char_traits<char>, std::__ndk1::allocator<char> > const&)>::operator()(std::__ndk1::basic_string<char, std::__ndk1::char_traits<char>, std::__ndk1::allocator<char> > const&)
FUNC 22dfc 18 0 std::__ndk1::__function::__func<Tab2::init()::$_0, std::__ndk1::allocator<Tab2::init()::$_0>, void (std::__ndk1::basic_string<char, std::__ndk1::char_traits<char>, std::__ndk1::allocator<char> > const&)>::target(std::type_info const&) const
FUNC 22e14 c 0 std::__ndk1::__function::__func<Tab2::init()::$_0, std::__ndk1::allocator<Tab2::init()::$_0>, void (std::__ndk1::basic_string<char, std::__ndk1::char_traits<char>, std::__ndk1::allocator<char> > const&)>::target_type() const
FUNC 22e20 4 0 std::__ndk1::__function::__func<Tab2::init()::$_1, std::__ndk1::allocator<Tab2::init()::$_1>, void (std::__ndk1::basic_string<char, std::__ndk1::char_traits<char>, std::__ndk1::allocator<char> > const&)>::~__func()
FUNC 22e24 20 0 std::__ndk1::__function::__func<Tab2::init()::$_1, std::__ndk1::allocator<Tab2::init()::$_1>, void (std::__ndk1::basic_string<char, std::__ndk1::char_traits<char>, std::__ndk1::allocator<char> > const&)>::__clone() const
FUNC 22e44 14 0 std::__ndk1::__function::__func<Tab2::init()::$_1, std::__ndk1::allocator<Tab2::init()::$_1>, void (std::__ndk1::basic_string<char, std::__ndk1::char_traits<char>, std::__ndk1::allocator<char> > const&)>::__clone(std::__ndk1::__function::__base<void (std::__ndk1::basic_string<char, std::__ndk1::char_traits<char>, std::__ndk1::allocator<char> > const&)>*) const
FUNC 22e58 2 0 std::__ndk1::__function::__func<Tab2::init()::$_1, std::__ndk1::allocator<Tab2::init()::$_1>, void (std::__ndk1::basic_string<char, std::__ndk1::char_traits<char>, std::__ndk1::allocator<char> > const&)>::destroy()
FUNC 22e5a 4 0 std::__ndk1::__function::__func<Tab2::init()::$_1, std::__ndk1::allocator<Tab2::init()::$_1>, void (std::__ndk1::basic_string<char, std::__ndk1::char_traits<char>, std::__ndk1::allocator<char> > const&)>::destroy_deallocate()
FUNC 22e60 68 0 std::__ndk1::__function::__func<Tab2::init()::$_1, std::__ndk1::allocator<Tab2::init()::$_1>, void (std::__ndk1::basic_string<char, std::__ndk1::char_traits<char>, std::__ndk1::allocator<char> > const&)>::operator()(std::__ndk1::basic_string<char, std::__ndk1::char_traits<char>, std::__ndk1::allocator<char> > const&)
FUNC 22ec8 18 0 std::__ndk1::__function::__func<Tab2::init()::$_1, std::__ndk1::allocator<Tab2::init()::$_1>, void (std::__ndk1::basic_string<char, std::__ndk1::char_traits<char>, std::__ndk1::allocator<char> > const&)>::target(std::type_info const&) const
FUNC 22ee0 c 0 std::__ndk1::__function::__func<Tab2::init()::$_1, std::__ndk1::allocator<Tab2::init()::$_1>, void (std::__ndk1::basic_string<char, std::__ndk1::char_traits<char>, std::__ndk1::allocator<char> > const&)>::target_type() const
FUNC 22eec 4 0 std::__ndk1::__function::__func<Tab2::init()::$_2, std::__ndk1::allocator<Tab2::init()::$_2>, void (std::__ndk1::basic_string<char, std::__ndk1::char_traits<char>, std::__ndk1::allocator<char> > const&)>::~__func()
FUNC 22ef0 20 0 std::__ndk1::__function::__func<Tab2::init()::$_2, std::__ndk1::allocator<Tab2::init()::$_2>, void (std::__ndk1::basic_string<char, std::__ndk1::char_traits<char>, std::__ndk1::allocator<char> > const&)>::__clone() const
FUNC 22f10 14 0 std::__ndk1::__function::__func<Tab2::init()::$_2, std::__ndk1::allocator<Tab2::init()::$_2>, void (std::__ndk1::basic_string<char, std::__ndk1::char_traits<char>, std::__ndk1::allocator<char> > const&)>::__clone(std::__ndk1::__function::__base<void (std::__ndk1::basic_string<char, std::__ndk1::char_traits<char>, std::__ndk1::allocator<char> > const&)>*) const
FUNC 22f24 2 0 std::__ndk1::__function::__func<Tab2::init()::$_2, std::__ndk1::allocator<Tab2::init()::$_2>, void (std::__ndk1::basic_string<char, std::__ndk1::char_traits<char>, std::__ndk1::allocator<char> > const&)>::destroy()
FUNC 22f26 4 0 std::__ndk1::__function::__func<Tab2::init()::$_2, std::__ndk1::allocator<Tab2::init()::$_2>, void (std::__ndk1::basic_string<char, std::__ndk1::char_traits<char>, std::__ndk1::allocator<char> > const&)>::destroy_deallocate()
FUNC 22f2c 68 0 std::__ndk1::__function::__func<Tab2::init()::$_2, std::__ndk1::allocator<Tab2::init()::$_2>, void (std::__ndk1::basic_string<char, std::__ndk1::char_traits<char>, std::__ndk1::allocator<char> > const&)>::operator()(std::__ndk1::basic_string<char, std::__ndk1::char_traits<char>, std::__ndk1::allocator<char> > const&)
FUNC 22f94 18 0 std::__ndk1::__function::__func<Tab2::init()::$_2, std::__ndk1::allocator<Tab2::init()::$_2>, void (std::__ndk1::basic_string<char, std::__ndk1::char_traits<char>, std::__ndk1::allocator<char> > const&)>::target(std::type_info const&) const
FUNC 22fac c 0 std::__ndk1::__function::__func<Tab2::init()::$_2, std::__ndk1::allocator<Tab2::init()::$_2>, void (std::__ndk1::basic_string<char, std::__ndk1::char_traits<char>, std::__ndk1::allocator<char> > const&)>::target_type() const
FUNC 22fb8 4 0 std::__ndk1::__function::__func<Tab2::init()::$_3, std::__ndk1::allocator<Tab2::init()::$_3>, void (std::__ndk1::basic_string<char, std::__ndk1::char_traits<char>, std::__ndk1::allocator<char> > const&)>::~__func()
FUNC 22fbc 20 0 std::__ndk1::__function::__func<Tab2::init()::$_3, std::__ndk1::allocator<Tab2::init()::$_3>, void (std::__ndk1::basic_string<char, std::__ndk1::char_traits<char>, std::__ndk1::allocator<char> > const&)>::__clone() const
FUNC 22fdc 14 0 std::__ndk1::__function::__func<Tab2::init()::$_3, std::__ndk1::allocator<Tab2::init()::$_3>, void (std::__ndk1::basic_string<char, std::__ndk1::char_traits<char>, std::__ndk1::allocator<char> > const&)>::__clone(std::__ndk1::__function::__base<void (std::__ndk1::basic_string<char, std::__ndk1::char_traits<char>, std::__ndk1::allocator<char> > const&)>*) const
FUNC 22ff0 2 0 std::__ndk1::__function::__func<Tab2::init()::$_3, std::__ndk1::allocator<Tab2::init()::$_3>, void (std::__ndk1::basic_string<char, std::__ndk1::char_traits<char>, std::__ndk1::allocator<char> > const&)>::destroy()
FUNC 22ff2 4 0 std::__ndk1::__function::__func<Tab2::init()::$_3, std::__ndk1::allocator<Tab2::init()::$_3>, void (std::__ndk1::basic_string<char, std::__ndk1::char_traits<char>, std::__ndk1::allocator<char> > const&)>::destroy_deallocate()
FUNC 22ff8 68 0 std::__ndk1::__function::__func<Tab2::init()::$_3, std::__ndk1::allocator<Tab2::init()::$_3>, void (std::__ndk1::basic_string<char, std::__ndk1::char_traits<char>, std::__ndk1::allocator<char> > const&)>::operator()(std::__ndk1::basic_string<char, std::__ndk1::char_traits<char>, std::__ndk1::allocator<char> > const&)
FUNC 23060 18 0 std::__ndk1::__function::__func<Tab2::init()::$_3, std::__ndk1::allocator<Tab2::init()::$_3>, void (std::__ndk1::basic_string<char, std::__ndk1::char_traits<char>, std::__ndk1::allocator<char> > const&)>::target(std::type_info const&) const
FUNC 23078 c 0 std::__ndk1::__function::__func<Tab2::init()::$_3, std::__ndk1::allocator<Tab2::init()::$_3>, void (std::__ndk1::basic_string<char, std::__ndk1::char_traits<char>, std::__ndk1::allocator<char> > const&)>::target_type() const
FUNC 23084 4 0 std::__ndk1::__function::__func<Tab2::init()::$_4, std::__ndk1::allocator<Tab2::init()::$_4>, void (std::__ndk1::basic_string<char, std::__ndk1::char_traits<char>, std::__ndk1::allocator<char> > const&)>::~__func()
FUNC 23088 20 0 std::__ndk1::__function::__func<Tab2::init()::$_4, std::__ndk1::allocator<Tab2::init()::$_4>, void (std::__ndk1::basic_string<char, std::__ndk1::char_traits<char>, std::__ndk1::allocator<char> > const&)>::__clone() const
FUNC 230a8 14 0 std::__ndk1::__function::__func<Tab2::init()::$_4, std::__ndk1::allocator<Tab2::init()::$_4>, void (std::__ndk1::basic_string<char, std::__ndk1::char_traits<char>, std::__ndk1::allocator<char> > const&)>::__clone(std::__ndk1::__function::__base<void (std::__ndk1::basic_string<char, std::__ndk1::char_traits<char>, std::__ndk1::allocator<char> > const&)>*) const
FUNC 230bc 2 0 std::__ndk1::__function::__func<Tab2::init()::$_4, std::__ndk1::allocator<Tab2::init()::$_4>, void (std::__ndk1::basic_string<char, std::__ndk1::char_traits<char>, std::__ndk1::allocator<char> > const&)>::destroy()
FUNC 230be 4 0 std::__ndk1::__function::__func<Tab2::init()::$_4, std::__ndk1::allocator<Tab2::init()::$_4>, void (std::__ndk1::basic_string<char, std::__ndk1::char_traits<char>, std::__ndk1::allocator<char> > const&)>::destroy_deallocate()
FUNC 230c4 68 0 std::__ndk1::__function::__func<Tab2::init()::$_4, std::__ndk1::allocator<Tab2::init()::$_4>, void (std::__ndk1::basic_string<char, std::__ndk1::char_traits<char>, std::__ndk1::allocator<char> > const&)>::operator()(std::__ndk1::basic_string<char, std::__ndk1::char_traits<char>, std::__ndk1::allocator<char> > const&)
FUNC 2312c 18 0 std::__ndk1::__function::__func<Tab2::init()::$_4, std::__ndk1::allocator<Tab2::init()::$_4>, void (std::__ndk1::basic_string<char, std::__ndk1::char_traits<char>, std::__ndk1::allocator<char> > const&)>::target(std::type_info const&) const
FUNC 23144 c 0 std::__ndk1::__function::__func<Tab2::init()::$_4, std::__ndk1::allocator<Tab2::init()::$_4>, void (std::__ndk1::basic_string<char, std::__ndk1::char_traits<char>, std::__ndk1::allocator<char> > const&)>::target_type() const
FUNC 23150 4 0 std::__ndk1::__function::__func<Tab2::init()::$_5, std::__ndk1::allocator<Tab2::init()::$_5>, void (std::__ndk1::basic_string<char, std::__ndk1::char_traits<char>, std::__ndk1::allocator<char> > const&)>::~__func()
FUNC 23154 20 0 std::__ndk1::__function::__func<Tab2::init()::$_5, std::__ndk1::allocator<Tab2::init()::$_5>, void (std::__ndk1::basic_string<char, std::__ndk1::char_traits<char>, std::__ndk1::allocator<char> > const&)>::__clone() const
FUNC 23174 14 0 std::__ndk1::__function::__func<Tab2::init()::$_5, std::__ndk1::allocator<Tab2::init()::$_5>, void (std::__ndk1::basic_string<char, std::__ndk1::char_traits<char>, std::__ndk1::allocator<char> > const&)>::__clone(std::__ndk1::__function::__base<void (std::__ndk1::basic_string<char, std::__ndk1::char_traits<char>, std::__ndk1::allocator<char> > const&)>*) const
FUNC 23188 2 0 std::__ndk1::__function::__func<Tab2::init()::$_5, std::__ndk1::allocator<Tab2::init()::$_5>, void (std::__ndk1::basic_string<char, std::__ndk1::char_traits<char>, std::__ndk1::allocator<char> > const&)>::destroy()
FUNC 2318a 4 0 std::__ndk1::__function::__func<Tab2::init()::$_5, std::__ndk1::allocator<Tab2::init()::$_5>, void (std::__ndk1::basic_string<char, std::__ndk1::char_traits<char>, std::__ndk1::allocator<char> > const&)>::destroy_deallocate()
FUNC 23190 68 0 std::__ndk1::__function::__func<Tab2::init()::$_5, std::__ndk1::allocator<Tab2::init()::$_5>, void (std::__ndk1::basic_string<char, std::__ndk1::char_traits<char>, std::__ndk1::allocator<char> > const&)>::operator()(std::__ndk1::basic_string<char, std::__ndk1::char_traits<char>, std::__ndk1::allocator<char> > const&)
FUNC 231f8 18 0 std::__ndk1::__function::__func<Tab2::init()::$_5, std::__ndk1::allocator<Tab2::init()::$_5>, void (std::__ndk1::basic_string<char, std::__ndk1::char_traits<char>, std::__ndk1::allocator<char> > const&)>::target(std::type_info const&) const
FUNC 23210 c 0 std::__ndk1::__function::__func<Tab2::init()::$_5, std::__ndk1::allocator<Tab2::init()::$_5>, void (std::__ndk1::basic_string<char, std::__ndk1::char_traits<char>, std::__ndk1::allocator<char> > const&)>::target_type() const
FUNC 2321c 4 0 std::__ndk1::__function::__func<Tab2::init()::$_6, std::__ndk1::allocator<Tab2::init()::$_6>, void (std::__ndk1::basic_string<char, std::__ndk1::char_traits<char>, std::__ndk1::allocator<char> > const&)>::~__func()
FUNC 23220 20 0 std::__ndk1::__function::__func<Tab2::init()::$_6, std::__ndk1::allocator<Tab2::init()::$_6>, void (std::__ndk1::basic_string<char, std::__ndk1::char_traits<char>, std::__ndk1::allocator<char> > const&)>::__clone() const
FUNC 23240 14 0 std::__ndk1::__function::__func<Tab2::init()::$_6, std::__ndk1::allocator<Tab2::init()::$_6>, void (std::__ndk1::basic_string<char, std::__ndk1::char_traits<char>, std::__ndk1::allocator<char> > const&)>::__clone(std::__ndk1::__function::__base<void (std::__ndk1::basic_string<char, std::__ndk1::char_traits<char>, std::__ndk1::allocator<char> > const&)>*) const
FUNC 23254 2 0 std::__ndk1::__function::__func<Tab2::init()::$_6, std::__ndk1::allocator<Tab2::init()::$_6>, void (std::__ndk1::basic_string<char, std::__ndk1::char_traits<char>, std::__ndk1::allocator<char> > const&)>::destroy()
FUNC 23256 4 0 std::__ndk1::__function::__func<Tab2::init()::$_6, std::__ndk1::allocator<Tab2::init()::$_6>, void (std::__ndk1::basic_string<char, std::__ndk1::char_traits<char>, std::__ndk1::allocator<char> > const&)>::destroy_deallocate()
FUNC 2325c 68 0 std::__ndk1::__function::__func<Tab2::init()::$_6, std::__ndk1::allocator<Tab2::init()::$_6>, void (std::__ndk1::basic_string<char, std::__ndk1::char_traits<char>, std::__ndk1::allocator<char> > const&)>::operator()(std::__ndk1::basic_string<char, std::__ndk1::char_traits<char>, std::__ndk1::allocator<char> > const&)
FUNC 232c4 18 0 std::__ndk1::__function::__func<Tab2::init()::$_6, std::__ndk1::allocator<Tab2::init()::$_6>, void (std::__ndk1::basic_string<char, std::__ndk1::char_traits<char>, std::__ndk1::allocator<char> > const&)>::target(std::type_info const&) const
FUNC 232dc c 0 std::__ndk1::__function::__func<Tab2::init()::$_6, std::__ndk1::allocator<Tab2::init()::$_6>, void (std::__ndk1::basic_string<char, std::__ndk1::char_traits<char>, std::__ndk1::allocator<char> > const&)>::target_type() const
FUNC 232e8 4 0 std::__ndk1::__function::__func<Tab2::init()::$_7, std::__ndk1::allocator<Tab2::init()::$_7>, void (std::__ndk1::basic_string<char, std::__ndk1::char_traits<char>, std::__ndk1::allocator<char> > const&)>::~__func()
FUNC 232ec 20 0 std::__ndk1::__function::__func<Tab2::init()::$_7, std::__ndk1::allocator<Tab2::init()::$_7>, void (std::__ndk1::basic_string<char, std::__ndk1::char_traits<char>, std::__ndk1::allocator<char> > const&)>::__clone() const
FUNC 2330c 14 0 std::__ndk1::__function::__func<Tab2::init()::$_7, std::__ndk1::allocator<Tab2::init()::$_7>, void (std::__ndk1::basic_string<char, std::__ndk1::char_traits<char>, std::__ndk1::allocator<char> > const&)>::__clone(std::__ndk1::__function::__base<void (std::__ndk1::basic_string<char, std::__ndk1::char_traits<char>, std::__ndk1::allocator<char> > const&)>*) const
FUNC 23320 2 0 std::__ndk1::__function::__func<Tab2::init()::$_7, std::__ndk1::allocator<Tab2::init()::$_7>, void (std::__ndk1::basic_string<char, std::__ndk1::char_traits<char>, std::__ndk1::allocator<char> > const&)>::destroy()
FUNC 23322 4 0 std::__ndk1::__function::__func<Tab2::init()::$_7, std::__ndk1::allocator<Tab2::init()::$_7>, void (std::__ndk1::basic_string<char, std::__ndk1::char_traits<char>, std::__ndk1::allocator<char> > const&)>::destroy_deallocate()
FUNC 23328 68 0 std::__ndk1::__function::__func<Tab2::init()::$_7, std::__ndk1::allocator<Tab2::init()::$_7>, void (std::__ndk1::basic_string<char, std::__ndk1::char_traits<char>, std::__ndk1::allocator<char> > const&)>::operator()(std::__ndk1::basic_string<char, std::__ndk1::char_traits<char>, std::__ndk1::allocator<char> > const&)
FUNC 23390 18 0 std::__ndk1::__function::__func<Tab2::init()::$_7, std::__ndk1::allocator<Tab2::init()::$_7>, void (std::__ndk1::basic_string<char, std::__ndk1::char_traits<char>, std::__ndk1::allocator<char> > const&)>::target(std::type_info const&) const
FUNC 233a8 c 0 std::__ndk1::__function::__func<Tab2::init()::$_7, std::__ndk1::allocator<Tab2::init()::$_7>, void (std::__ndk1::basic_string<char, std::__ndk1::char_traits<char>, std::__ndk1::allocator<char> > const&)>::target_type() const
FUNC 233b4 4 0 std::__ndk1::__function::__func<Tab2::init()::$_8, std::__ndk1::allocator<Tab2::init()::$_8>, void (std::__ndk1::basic_string<char, std::__ndk1::char_traits<char>, std::__ndk1::allocator<char> > const&)>::~__func()
FUNC 233b8 20 0 std::__ndk1::__function::__func<Tab2::init()::$_8, std::__ndk1::allocator<Tab2::init()::$_8>, void (std::__ndk1::basic_string<char, std::__ndk1::char_traits<char>, std::__ndk1::allocator<char> > const&)>::__clone() const
FUNC 233d8 14 0 std::__ndk1::__function::__func<Tab2::init()::$_8, std::__ndk1::allocator<Tab2::init()::$_8>, void (std::__ndk1::basic_string<char, std::__ndk1::char_traits<char>, std::__ndk1::allocator<char> > const&)>::__clone(std::__ndk1::__function::__base<void (std::__ndk1::basic_string<char, std::__ndk1::char_traits<char>, std::__ndk1::allocator<char> > const&)>*) const
FUNC 233ec 2 0 std::__ndk1::__function::__func<Tab2::init()::$_8, std::__ndk1::allocator<Tab2::init()::$_8>, void (std::__ndk1::basic_string<char, std::__ndk1::char_traits<char>, std::__ndk1::allocator<char> > const&)>::destroy()
FUNC 233ee 4 0 std::__ndk1::__function::__func<Tab2::init()::$_8, std::__ndk1::allocator<Tab2::init()::$_8>, void (std::__ndk1::basic_string<char, std::__ndk1::char_traits<char>, std::__ndk1::allocator<char> > const&)>::destroy_deallocate()
FUNC 233f4 68 0 std::__ndk1::__function::__func<Tab2::init()::$_8, std::__ndk1::allocator<Tab2::init()::$_8>, void (std::__ndk1::basic_string<char, std::__ndk1::char_traits<char>, std::__ndk1::allocator<char> > const&)>::operator()(std::__ndk1::basic_string<char, std::__ndk1::char_traits<char>, std::__ndk1::allocator<char> > const&)
FUNC 2345c 18 0 std::__ndk1::__function::__func<Tab2::init()::$_8, std::__ndk1::allocator<Tab2::init()::$_8>, void (std::__ndk1::basic_string<char, std::__ndk1::char_traits<char>, std::__ndk1::allocator<char> > const&)>::target(std::type_info const&) const
FUNC 23474 c 0 std::__ndk1::__function::__func<Tab2::init()::$_8, std::__ndk1::allocator<Tab2::init()::$_8>, void (std::__ndk1::basic_string<char, std::__ndk1::char_traits<char>, std::__ndk1::allocator<char> > const&)>::target_type() const
FUNC 23480 4 0 std::__ndk1::__function::__func<Tab2::init()::$_9, std::__ndk1::allocator<Tab2::init()::$_9>, void (std::__ndk1::basic_string<char, std::__ndk1::char_traits<char>, std::__ndk1::allocator<char> > const&)>::~__func()
FUNC 23484 20 0 std::__ndk1::__function::__func<Tab2::init()::$_9, std::__ndk1::allocator<Tab2::init()::$_9>, void (std::__ndk1::basic_string<char, std::__ndk1::char_traits<char>, std::__ndk1::allocator<char> > const&)>::__clone() const
FUNC 234a4 14 0 std::__ndk1::__function::__func<Tab2::init()::$_9, std::__ndk1::allocator<Tab2::init()::$_9>, void (std::__ndk1::basic_string<char, std::__ndk1::char_traits<char>, std::__ndk1::allocator<char> > const&)>::__clone(std::__ndk1::__function::__base<void (std::__ndk1::basic_string<char, std::__ndk1::char_traits<char>, std::__ndk1::allocator<char> > const&)>*) const
FUNC 234b8 2 0 std::__ndk1::__function::__func<Tab2::init()::$_9, std::__ndk1::allocator<Tab2::init()::$_9>, void (std::__ndk1::basic_string<char, std::__ndk1::char_traits<char>, std::__ndk1::allocator<char> > const&)>::destroy()
FUNC 234ba 4 0 std::__ndk1::__function::__func<Tab2::init()::$_9, std::__ndk1::allocator<Tab2::init()::$_9>, void (std::__ndk1::basic_string<char, std::__ndk1::char_traits<char>, std::__ndk1::allocator<char> > const&)>::destroy_deallocate()
FUNC 234c0 68 0 std::__ndk1::__function::__func<Tab2::init()::$_9, std::__ndk1::allocator<Tab2::init()::$_9>, void (std::__ndk1::basic_string<char, std::__ndk1::char_traits<char>, std::__ndk1::allocator<char> > const&)>::operator()(std::__ndk1::basic_string<char, std::__ndk1::char_traits<char>, std::__ndk1::allocator<char> > const&)
FUNC 23528 18 0 std::__ndk1::__function::__func<Tab2::init()::$_9, std::__ndk1::allocator<Tab2::init()::$_9>, void (std::__ndk1::basic_string<char, std::__ndk1::char_traits<char>, std::__ndk1::allocator<char> > const&)>::target(std::type_info const&) const
FUNC 23540 c 0 std::__ndk1::__function::__func<Tab2::init()::$_9, std::__ndk1::allocator<Tab2::init()::$_9>, void (std::__ndk1::basic_string<char, std::__ndk1::char_traits<char>, std::__ndk1::allocator<char> > const&)>::target_type() const
FUNC 2354c 4 0 std::__ndk1::__function::__func<Tab2::init()::$_10, std::__ndk1::allocator<Tab2::init()::$_10>, void (std::__ndk1::basic_string<char, std::__ndk1::char_traits<char>, std::__ndk1::allocator<char> > const&)>::~__func()
FUNC 23550 20 0 std::__ndk1::__function::__func<Tab2::init()::$_10, std::__ndk1::allocator<Tab2::init()::$_10>, void (std::__ndk1::basic_string<char, std::__ndk1::char_traits<char>, std::__ndk1::allocator<char> > const&)>::__clone() const
FUNC 23570 14 0 std::__ndk1::__function::__func<Tab2::init()::$_10, std::__ndk1::allocator<Tab2::init()::$_10>, void (std::__ndk1::basic_string<char, std::__ndk1::char_traits<char>, std::__ndk1::allocator<char> > const&)>::__clone(std::__ndk1::__function::__base<void (std::__ndk1::basic_string<char, std::__ndk1::char_traits<char>, std::__ndk1::allocator<char> > const&)>*) const
FUNC 23584 2 0 std::__ndk1::__function::__func<Tab2::init()::$_10, std::__ndk1::allocator<Tab2::init()::$_10>, void (std::__ndk1::basic_string<char, std::__ndk1::char_traits<char>, std::__ndk1::allocator<char> > const&)>::destroy()
FUNC 23586 4 0 std::__ndk1::__function::__func<Tab2::init()::$_10, std::__ndk1::allocator<Tab2::init()::$_10>, void (std::__ndk1::basic_string<char, std::__ndk1::char_traits<char>, std::__ndk1::allocator<char> > const&)>::destroy_deallocate()
FUNC 2358c 68 0 std::__ndk1::__function::__func<Tab2::init()::$_10, std::__ndk1::allocator<Tab2::init()::$_10>, void (std::__ndk1::basic_string<char, std::__ndk1::char_traits<char>, std::__ndk1::allocator<char> > const&)>::operator()(std::__ndk1::basic_string<char, std::__ndk1::char_traits<char>, std::__ndk1::allocator<char> > const&)
FUNC 235f4 18 0 std::__ndk1::__function::__func<Tab2::init()::$_10, std::__ndk1::allocator<Tab2::init()::$_10>, void (std::__ndk1::basic_string<char, std::__ndk1::char_traits<char>, std::__ndk1::allocator<char> > const&)>::target(std::type_info const&) const
FUNC 2360c c 0 std::__ndk1::__function::__func<Tab2::init()::$_10, std::__ndk1::allocator<Tab2::init()::$_10>, void (std::__ndk1::basic_string<char, std::__ndk1::char_traits<char>, std::__ndk1::allocator<char> > const&)>::target_type() const
FUNC 23618 4 0 std::__ndk1::__function::__func<Tab2::init()::$_11, std::__ndk1::allocator<Tab2::init()::$_11>, void (std::__ndk1::basic_string<char, std::__ndk1::char_traits<char>, std::__ndk1::allocator<char> > const&)>::~__func()
FUNC 2361c 20 0 std::__ndk1::__function::__func<Tab2::init()::$_11, std::__ndk1::allocator<Tab2::init()::$_11>, void (std::__ndk1::basic_string<char, std::__ndk1::char_traits<char>, std::__ndk1::allocator<char> > const&)>::__clone() const
FUNC 2363c 14 0 std::__ndk1::__function::__func<Tab2::init()::$_11, std::__ndk1::allocator<Tab2::init()::$_11>, void (std::__ndk1::basic_string<char, std::__ndk1::char_traits<char>, std::__ndk1::allocator<char> > const&)>::__clone(std::__ndk1::__function::__base<void (std::__ndk1::basic_string<char, std::__ndk1::char_traits<char>, std::__ndk1::allocator<char> > const&)>*) const
FUNC 23650 2 0 std::__ndk1::__function::__func<Tab2::init()::$_11, std::__ndk1::allocator<Tab2::init()::$_11>, void (std::__ndk1::basic_string<char, std::__ndk1::char_traits<char>, std::__ndk1::allocator<char> > const&)>::destroy()
FUNC 23652 4 0 std::__ndk1::__function::__func<Tab2::init()::$_11, std::__ndk1::allocator<Tab2::init()::$_11>, void (std::__ndk1::basic_string<char, std::__ndk1::char_traits<char>, std::__ndk1::allocator<char> > const&)>::destroy_deallocate()
FUNC 23658 68 0 std::__ndk1::__function::__func<Tab2::init()::$_11, std::__ndk1::allocator<Tab2::init()::$_11>, void (std::__ndk1::basic_string<char, std::__ndk1::char_traits<char>, std::__ndk1::allocator<char> > const&)>::operator()(std::__ndk1::basic_string<char, std::__ndk1::char_traits<char>, std::__ndk1::allocator<char> > const&)
FUNC 236c0 18 0 std::__ndk1::__function::__func<Tab2::init()::$_11, std::__ndk1::allocator<Tab2::init()::$_11>, void (std::__ndk1::basic_string<char, std::__ndk1::char_traits<char>, std::__ndk1::allocator<char> > const&)>::target(std::type_info const&) const
FUNC 236d8 c 0 std::__ndk1::__function::__func<Tab2::init()::$_11, std::__ndk1::allocator<Tab2::init()::$_11>, void (std::__ndk1::basic_string<char, std::__ndk1::char_traits<char>, std::__ndk1::allocator<char> > const&)>::target_type() const
FUNC 236e4 4 0 std::__ndk1::__function::__func<Tab2::init()::$_12, std::__ndk1::allocator<Tab2::init()::$_12>, void (std::__ndk1::basic_string<char, std::__ndk1::char_traits<char>, std::__ndk1::allocator<char> > const&)>::~__func()
FUNC 236e8 20 0 std::__ndk1::__function::__func<Tab2::init()::$_12, std::__ndk1::allocator<Tab2::init()::$_12>, void (std::__ndk1::basic_string<char, std::__ndk1::char_traits<char>, std::__ndk1::allocator<char> > const&)>::__clone() const
FUNC 23708 14 0 std::__ndk1::__function::__func<Tab2::init()::$_12, std::__ndk1::allocator<Tab2::init()::$_12>, void (std::__ndk1::basic_string<char, std::__ndk1::char_traits<char>, std::__ndk1::allocator<char> > const&)>::__clone(std::__ndk1::__function::__base<void (std::__ndk1::basic_string<char, std::__ndk1::char_traits<char>, std::__ndk1::allocator<char> > const&)>*) const
FUNC 2371c 2 0 std::__ndk1::__function::__func<Tab2::init()::$_12, std::__ndk1::allocator<Tab2::init()::$_12>, void (std::__ndk1::basic_string<char, std::__ndk1::char_traits<char>, std::__ndk1::allocator<char> > const&)>::destroy()
FUNC 2371e 4 0 std::__ndk1::__function::__func<Tab2::init()::$_12, std::__ndk1::allocator<Tab2::init()::$_12>, void (std::__ndk1::basic_string<char, std::__ndk1::char_traits<char>, std::__ndk1::allocator<char> > const&)>::destroy_deallocate()
FUNC 23724 68 0 std::__ndk1::__function::__func<Tab2::init()::$_12, std::__ndk1::allocator<Tab2::init()::$_12>, void (std::__ndk1::basic_string<char, std::__ndk1::char_traits<char>, std::__ndk1::allocator<char> > const&)>::operator()(std::__ndk1::basic_string<char, std::__ndk1::char_traits<char>, std::__ndk1::allocator<char> > const&)
FUNC 2378c 18 0 std::__ndk1::__function::__func<Tab2::init()::$_12, std::__ndk1::allocator<Tab2::init()::$_12>, void (std::__ndk1::basic_string<char, std::__ndk1::char_traits<char>, std::__ndk1::allocator<char> > const&)>::target(std::type_info const&) const
FUNC 237a4 c 0 std::__ndk1::__function::__func<Tab2::init()::$_12, std::__ndk1::allocator<Tab2::init()::$_12>, void (std::__ndk1::basic_string<char, std::__ndk1::char_traits<char>, std::__ndk1::allocator<char> > const&)>::target_type() const
FUNC 237b0 4 0 std::__ndk1::__function::__func<Tab2::init()::$_13, std::__ndk1::allocator<Tab2::init()::$_13>, void (std::__ndk1::basic_string<char, std::__ndk1::char_traits<char>, std::__ndk1::allocator<char> > const&)>::~__func()
FUNC 237b4 20 0 std::__ndk1::__function::__func<Tab2::init()::$_13, std::__ndk1::allocator<Tab2::init()::$_13>, void (std::__ndk1::basic_string<char, std::__ndk1::char_traits<char>, std::__ndk1::allocator<char> > const&)>::__clone() const
FUNC 237d4 14 0 std::__ndk1::__function::__func<Tab2::init()::$_13, std::__ndk1::allocator<Tab2::init()::$_13>, void (std::__ndk1::basic_string<char, std::__ndk1::char_traits<char>, std::__ndk1::allocator<char> > const&)>::__clone(std::__ndk1::__function::__base<void (std::__ndk1::basic_string<char, std::__ndk1::char_traits<char>, std::__ndk1::allocator<char> > const&)>*) const
FUNC 237e8 2 0 std::__ndk1::__function::__func<Tab2::init()::$_13, std::__ndk1::allocator<Tab2::init()::$_13>, void (std::__ndk1::basic_string<char, std::__ndk1::char_traits<char>, std::__ndk1::allocator<char> > const&)>::destroy()
FUNC 237ea 4 0 std::__ndk1::__function::__func<Tab2::init()::$_13, std::__ndk1::allocator<Tab2::init()::$_13>, void (std::__ndk1::basic_string<char, std::__ndk1::char_traits<char>, std::__ndk1::allocator<char> > const&)>::destroy_deallocate()
FUNC 237f0 68 0 std::__ndk1::__function::__func<Tab2::init()::$_13, std::__ndk1::allocator<Tab2::init()::$_13>, void (std::__ndk1::basic_string<char, std::__ndk1::char_traits<char>, std::__ndk1::allocator<char> > const&)>::operator()(std::__ndk1::basic_string<char, std::__ndk1::char_traits<char>, std::__ndk1::allocator<char> > const&)
FUNC 23858 18 0 std::__ndk1::__function::__func<Tab2::init()::$_13, std::__ndk1::allocator<Tab2::init()::$_13>, void (std::__ndk1::basic_string<char, std::__ndk1::char_traits<char>, std::__ndk1::allocator<char> > const&)>::target(std::type_info const&) const
FUNC 23870 c 0 std::__ndk1::__function::__func<Tab2::init()::$_13, std::__ndk1::allocator<Tab2::init()::$_13>, void (std::__ndk1::basic_string<char, std::__ndk1::char_traits<char>, std::__ndk1::allocator<char> > const&)>::target_type() const
FUNC 2387c 4 0 std::__ndk1::__function::__func<Tab2::init()::$_14, std::__ndk1::allocator<Tab2::init()::$_14>, void (std::__ndk1::basic_string<char, std::__ndk1::char_traits<char>, std::__ndk1::allocator<char> > const&)>::~__func()
FUNC 23880 20 0 std::__ndk1::__function::__func<Tab2::init()::$_14, std::__ndk1::allocator<Tab2::init()::$_14>, void (std::__ndk1::basic_string<char, std::__ndk1::char_traits<char>, std::__ndk1::allocator<char> > const&)>::__clone() const
FUNC 238a0 14 0 std::__ndk1::__function::__func<Tab2::init()::$_14, std::__ndk1::allocator<Tab2::init()::$_14>, void (std::__ndk1::basic_string<char, std::__ndk1::char_traits<char>, std::__ndk1::allocator<char> > const&)>::__clone(std::__ndk1::__function::__base<void (std::__ndk1::basic_string<char, std::__ndk1::char_traits<char>, std::__ndk1::allocator<char> > const&)>*) const
FUNC 238b4 2 0 std::__ndk1::__function::__func<Tab2::init()::$_14, std::__ndk1::allocator<Tab2::init()::$_14>, void (std::__ndk1::basic_string<char, std::__ndk1::char_traits<char>, std::__ndk1::allocator<char> > const&)>::destroy()
FUNC 238b6 4 0 std::__ndk1::__function::__func<Tab2::init()::$_14, std::__ndk1::allocator<Tab2::init()::$_14>, void (std::__ndk1::basic_string<char, std::__ndk1::char_traits<char>, std::__ndk1::allocator<char> > const&)>::destroy_deallocate()
FUNC 238bc 68 0 std::__ndk1::__function::__func<Tab2::init()::$_14, std::__ndk1::allocator<Tab2::init()::$_14>, void (std::__ndk1::basic_string<char, std::__ndk1::char_traits<char>, std::__ndk1::allocator<char> > const&)>::operator()(std::__ndk1::basic_string<char, std::__ndk1::char_traits<char>, std::__ndk1::allocator<char> > const&)
FUNC 23924 18 0 std::__ndk1::__function::__func<Tab2::init()::$_14, std::__ndk1::allocator<Tab2::init()::$_14>, void (std::__ndk1::basic_string<char, std::__ndk1::char_traits<char>, std::__ndk1::allocator<char> > const&)>::target(std::type_info const&) const
FUNC 2393c c 0 std::__ndk1::__function::__func<Tab2::init()::$_14, std::__ndk1::allocator<Tab2::init()::$_14>, void (std::__ndk1::basic_string<char, std::__ndk1::char_traits<char>, std::__ndk1::allocator<char> > const&)>::target_type() const
FUNC 23948 4 0 std::__ndk1::__function::__func<Tab2::init()::$_15, std::__ndk1::allocator<Tab2::init()::$_15>, void (std::__ndk1::basic_string<char, std::__ndk1::char_traits<char>, std::__ndk1::allocator<char> > const&)>::~__func()
FUNC 2394c 20 0 std::__ndk1::__function::__func<Tab2::init()::$_15, std::__ndk1::allocator<Tab2::init()::$_15>, void (std::__ndk1::basic_string<char, std::__ndk1::char_traits<char>, std::__ndk1::allocator<char> > const&)>::__clone() const
FUNC 2396c 14 0 std::__ndk1::__function::__func<Tab2::init()::$_15, std::__ndk1::allocator<Tab2::init()::$_15>, void (std::__ndk1::basic_string<char, std::__ndk1::char_traits<char>, std::__ndk1::allocator<char> > const&)>::__clone(std::__ndk1::__function::__base<void (std::__ndk1::basic_string<char, std::__ndk1::char_traits<char>, std::__ndk1::allocator<char> > const&)>*) const
FUNC 23980 2 0 std::__ndk1::__function::__func<Tab2::init()::$_15, std::__ndk1::allocator<Tab2::init()::$_15>, void (std::__ndk1::basic_string<char, std::__ndk1::char_traits<char>, std::__ndk1::allocator<char> > const&)>::destroy()
FUNC 23982 4 0 std::__ndk1::__function::__func<Tab2::init()::$_15, std::__ndk1::allocator<Tab2::init()::$_15>, void (std::__ndk1::basic_string<char, std::__ndk1::char_traits<char>, std::__ndk1::allocator<char> > const&)>::destroy_deallocate()
FUNC 23988 68 0 std::__ndk1::__function::__func<Tab2::init()::$_15, std::__ndk1::allocator<Tab2::init()::$_15>, void (std::__ndk1::basic_string<char, std::__ndk1::char_traits<char>, std::__ndk1::allocator<char> > const&)>::operator()(std::__ndk1::basic_string<char, std::__ndk1::char_traits<char>, std::__ndk1::allocator<char> > const&)
FUNC 239f0 18 0 std::__ndk1::__function::__func<Tab2::init()::$_15, std::__ndk1::allocator<Tab2::init()::$_15>, void (std::__ndk1::basic_string<char, std::__ndk1::char_traits<char>, std::__ndk1::allocator<char> > const&)>::target(std::type_info const&) const
FUNC 23a08 c 0 std::__ndk1::__function::__func<Tab2::init()::$_15, std::__ndk1::allocator<Tab2::init()::$_15>, void (std::__ndk1::basic_string<char, std::__ndk1::char_traits<char>, std::__ndk1::allocator<char> > const&)>::target_type() const
FUNC 23a14 4 0 std::__ndk1::__function::__func<Tab2::init()::$_16, std::__ndk1::allocator<Tab2::init()::$_16>, void (std::__ndk1::basic_string<char, std::__ndk1::char_traits<char>, std::__ndk1::allocator<char> > const&)>::~__func()
FUNC 23a18 20 0 std::__ndk1::__function::__func<Tab2::init()::$_16, std::__ndk1::allocator<Tab2::init()::$_16>, void (std::__ndk1::basic_string<char, std::__ndk1::char_traits<char>, std::__ndk1::allocator<char> > const&)>::__clone() const
FUNC 23a38 14 0 std::__ndk1::__function::__func<Tab2::init()::$_16, std::__ndk1::allocator<Tab2::init()::$_16>, void (std::__ndk1::basic_string<char, std::__ndk1::char_traits<char>, std::__ndk1::allocator<char> > const&)>::__clone(std::__ndk1::__function::__base<void (std::__ndk1::basic_string<char, std::__ndk1::char_traits<char>, std::__ndk1::allocator<char> > const&)>*) const
FUNC 23a4c 2 0 std::__ndk1::__function::__func<Tab2::init()::$_16, std::__ndk1::allocator<Tab2::init()::$_16>, void (std::__ndk1::basic_string<char, std::__ndk1::char_traits<char>, std::__ndk1::allocator<char> > const&)>::destroy()
FUNC 23a4e 4 0 std::__ndk1::__function::__func<Tab2::init()::$_16, std::__ndk1::allocator<Tab2::init()::$_16>, void (std::__ndk1::basic_string<char, std::__ndk1::char_traits<char>, std::__ndk1::allocator<char> > const&)>::destroy_deallocate()
FUNC 23a54 68 0 std::__ndk1::__function::__func<Tab2::init()::$_16, std::__ndk1::allocator<Tab2::init()::$_16>, void (std::__ndk1::basic_string<char, std::__ndk1::char_traits<char>, std::__ndk1::allocator<char> > const&)>::operator()(std::__ndk1::basic_string<char, std::__ndk1::char_traits<char>, std::__ndk1::allocator<char> > const&)
FUNC 23abc 18 0 std::__ndk1::__function::__func<Tab2::init()::$_16, std::__ndk1::allocator<Tab2::init()::$_16>, void (std::__ndk1::basic_string<char, std::__ndk1::char_traits<char>, std::__ndk1::allocator<char> > const&)>::target(std::type_info const&) const
FUNC 23ad4 c 0 std::__ndk1::__function::__func<Tab2::init()::$_16, std::__ndk1::allocator<Tab2::init()::$_16>, void (std::__ndk1::basic_string<char, std::__ndk1::char_traits<char>, std::__ndk1::allocator<char> > const&)>::target_type() const
FUNC 23ae0 4 0 std::__ndk1::__function::__func<Tab2::init()::$_17, std::__ndk1::allocator<Tab2::init()::$_17>, void (std::__ndk1::basic_string<char, std::__ndk1::char_traits<char>, std::__ndk1::allocator<char> > const&)>::~__func()
FUNC 23ae4 20 0 std::__ndk1::__function::__func<Tab2::init()::$_17, std::__ndk1::allocator<Tab2::init()::$_17>, void (std::__ndk1::basic_string<char, std::__ndk1::char_traits<char>, std::__ndk1::allocator<char> > const&)>::__clone() const
FUNC 23b04 14 0 std::__ndk1::__function::__func<Tab2::init()::$_17, std::__ndk1::allocator<Tab2::init()::$_17>, void (std::__ndk1::basic_string<char, std::__ndk1::char_traits<char>, std::__ndk1::allocator<char> > const&)>::__clone(std::__ndk1::__function::__base<void (std::__ndk1::basic_string<char, std::__ndk1::char_traits<char>, std::__ndk1::allocator<char> > const&)>*) const
FUNC 23b18 2 0 std::__ndk1::__function::__func<Tab2::init()::$_17, std::__ndk1::allocator<Tab2::init()::$_17>, void (std::__ndk1::basic_string<char, std::__ndk1::char_traits<char>, std::__ndk1::allocator<char> > const&)>::destroy()
FUNC 23b1a 4 0 std::__ndk1::__function::__func<Tab2::init()::$_17, std::__ndk1::allocator<Tab2::init()::$_17>, void (std::__ndk1::basic_string<char, std::__ndk1::char_traits<char>, std::__ndk1::allocator<char> > const&)>::destroy_deallocate()
FUNC 23b20 68 0 std::__ndk1::__function::__func<Tab2::init()::$_17, std::__ndk1::allocator<Tab2::init()::$_17>, void (std::__ndk1::basic_string<char, std::__ndk1::char_traits<char>, std::__ndk1::allocator<char> > const&)>::operator()(std::__ndk1::basic_string<char, std::__ndk1::char_traits<char>, std::__ndk1::allocator<char> > const&)
FUNC 23b88 18 0 std::__ndk1::__function::__func<Tab2::init()::$_17, std::__ndk1::allocator<Tab2::init()::$_17>, void (std::__ndk1::basic_string<char, std::__ndk1::char_traits<char>, std::__ndk1::allocator<char> > const&)>::target(std::type_info const&) const
FUNC 23ba0 c 0 std::__ndk1::__function::__func<Tab2::init()::$_17, std::__ndk1::allocator<Tab2::init()::$_17>, void (std::__ndk1::basic_string<char, std::__ndk1::char_traits<char>, std::__ndk1::allocator<char> > const&)>::target_type() const
FUNC 23bac 4 0 std::__ndk1::__function::__func<Tab2::init()::$_18, std::__ndk1::allocator<Tab2::init()::$_18>, void (std::__ndk1::basic_string<char, std::__ndk1::char_traits<char>, std::__ndk1::allocator<char> > const&)>::~__func()
FUNC 23bb0 20 0 std::__ndk1::__function::__func<Tab2::init()::$_18, std::__ndk1::allocator<Tab2::init()::$_18>, void (std::__ndk1::basic_string<char, std::__ndk1::char_traits<char>, std::__ndk1::allocator<char> > const&)>::__clone() const
FUNC 23bd0 14 0 std::__ndk1::__function::__func<Tab2::init()::$_18, std::__ndk1::allocator<Tab2::init()::$_18>, void (std::__ndk1::basic_string<char, std::__ndk1::char_traits<char>, std::__ndk1::allocator<char> > const&)>::__clone(std::__ndk1::__function::__base<void (std::__ndk1::basic_string<char, std::__ndk1::char_traits<char>, std::__ndk1::allocator<char> > const&)>*) const
FUNC 23be4 2 0 std::__ndk1::__function::__func<Tab2::init()::$_18, std::__ndk1::allocator<Tab2::init()::$_18>, void (std::__ndk1::basic_string<char, std::__ndk1::char_traits<char>, std::__ndk1::allocator<char> > const&)>::destroy()
FUNC 23be6 4 0 std::__ndk1::__function::__func<Tab2::init()::$_18, std::__ndk1::allocator<Tab2::init()::$_18>, void (std::__ndk1::basic_string<char, std::__ndk1::char_traits<char>, std::__ndk1::allocator<char> > const&)>::destroy_deallocate()
FUNC 23bec 68 0 std::__ndk1::__function::__func<Tab2::init()::$_18, std::__ndk1::allocator<Tab2::init()::$_18>, void (std::__ndk1::basic_string<char, std::__ndk1::char_traits<char>, std::__ndk1::allocator<char> > const&)>::operator()(std::__ndk1::basic_string<char, std::__ndk1::char_traits<char>, std::__ndk1::allocator<char> > const&)
FUNC 23c54 18 0 std::__ndk1::__function::__func<Tab2::init()::$_18, std::__ndk1::allocator<Tab2::init()::$_18>, void (std::__ndk1::basic_string<char, std::__ndk1::char_traits<char>, std::__ndk1::allocator<char> > const&)>::target(std::type_info const&) const
FUNC 23c6c c 0 std::__ndk1::__function::__func<Tab2::init()::$_18, std::__ndk1::allocator<Tab2::init()::$_18>, void (std::__ndk1::basic_string<char, std::__ndk1::char_traits<char>, std::__ndk1::allocator<char> > const&)>::target_type() const
FUNC 23c78 4 0 std::__ndk1::__function::__func<Tab2::init()::$_19, std::__ndk1::allocator<Tab2::init()::$_19>, void (std::__ndk1::basic_string<char, std::__ndk1::char_traits<char>, std::__ndk1::allocator<char> > const&)>::~__func()
FUNC 23c7c 20 0 std::__ndk1::__function::__func<Tab2::init()::$_19, std::__ndk1::allocator<Tab2::init()::$_19>, void (std::__ndk1::basic_string<char, std::__ndk1::char_traits<char>, std::__ndk1::allocator<char> > const&)>::__clone() const
FUNC 23c9c 14 0 std::__ndk1::__function::__func<Tab2::init()::$_19, std::__ndk1::allocator<Tab2::init()::$_19>, void (std::__ndk1::basic_string<char, std::__ndk1::char_traits<char>, std::__ndk1::allocator<char> > const&)>::__clone(std::__ndk1::__function::__base<void (std::__ndk1::basic_string<char, std::__ndk1::char_traits<char>, std::__ndk1::allocator<char> > const&)>*) const
FUNC 23cb0 2 0 std::__ndk1::__function::__func<Tab2::init()::$_19, std::__ndk1::allocator<Tab2::init()::$_19>, void (std::__ndk1::basic_string<char, std::__ndk1::char_traits<char>, std::__ndk1::allocator<char> > const&)>::destroy()
FUNC 23cb2 4 0 std::__ndk1::__function::__func<Tab2::init()::$_19, std::__ndk1::allocator<Tab2::init()::$_19>, void (std::__ndk1::basic_string<char, std::__ndk1::char_traits<char>, std::__ndk1::allocator<char> > const&)>::destroy_deallocate()
FUNC 23cb8 68 0 std::__ndk1::__function::__func<Tab2::init()::$_19, std::__ndk1::allocator<Tab2::init()::$_19>, void (std::__ndk1::basic_string<char, std::__ndk1::char_traits<char>, std::__ndk1::allocator<char> > const&)>::operator()(std::__ndk1::basic_string<char, std::__ndk1::char_traits<char>, std::__ndk1::allocator<char> > const&)
FUNC 23d20 18 0 std::__ndk1::__function::__func<Tab2::init()::$_19, std::__ndk1::allocator<Tab2::init()::$_19>, void (std::__ndk1::basic_string<char, std::__ndk1::char_traits<char>, std::__ndk1::allocator<char> > const&)>::target(std::type_info const&) const
FUNC 23d38 c 0 std::__ndk1::__function::__func<Tab2::init()::$_19, std::__ndk1::allocator<Tab2::init()::$_19>, void (std::__ndk1::basic_string<char, std::__ndk1::char_traits<char>, std::__ndk1::allocator<char> > const&)>::target_type() const
FUNC 23d44 1f70 0 Tab3::init()
FUNC 25cb4 88 0 Tab3::SaveCheckbox(cocos2d::CCObject*)
FUNC 25d3c 88 0 Tab3::SaveCheckbox2(cocos2d::CCObject*)
FUNC 25dc4 88 0 Tab3::SaveCheckbox3(cocos2d::CCObject*)
FUNC 25e4c 88 0 Tab3::SaveCheckbox4(cocos2d::CCObject*)
FUNC 25ed4 88 0 Tab3::SaveCheckbox5(cocos2d::CCObject*)
FUNC 25f5c 88 0 Tab3::SaveCheckbox6(cocos2d::CCObject*)
FUNC 25fe4 88 0 Tab3::SaveCheckbox7(cocos2d::CCObject*)
FUNC 2606c 88 0 Tab3::SaveCheckbox8(cocos2d::CCObject*)
FUNC 260f4 88 0 Tab3::SaveCheckbox9(cocos2d::CCObject*)
FUNC 2617c 88 0 Tab3::SaveCheckbox10(cocos2d::CCObject*)
FUNC 26204 74 0 Tab3::create()
FUNC 26278 10 0 Tab3::~Tab3()
FUNC 26288 8 0 {virtual override thunk({offset(-264)}, Tab3::~Tab3())}
FUNC 26290 14 0 {virtual override thunk({offset(-264)}, Tab3::~Tab3())}
FUNC 262a4 4 0 std::__ndk1::__function::__func<Tab3::init()::$_0, std::__ndk1::allocator<Tab3::init()::$_0>, void (std::__ndk1::basic_string<char, std::__ndk1::char_traits<char>, std::__ndk1::allocator<char> > const&)>::~__func()
FUNC 262a8 20 0 std::__ndk1::__function::__func<Tab3::init()::$_0, std::__ndk1::allocator<Tab3::init()::$_0>, void (std::__ndk1::basic_string<char, std::__ndk1::char_traits<char>, std::__ndk1::allocator<char> > const&)>::__clone() const
FUNC 262c8 14 0 std::__ndk1::__function::__func<Tab3::init()::$_0, std::__ndk1::allocator<Tab3::init()::$_0>, void (std::__ndk1::basic_string<char, std::__ndk1::char_traits<char>, std::__ndk1::allocator<char> > const&)>::__clone(std::__ndk1::__function::__base<void (std::__ndk1::basic_string<char, std::__ndk1::char_traits<char>, std::__ndk1::allocator<char> > const&)>*) const
FUNC 262dc 2 0 std::__ndk1::__function::__func<Tab3::init()::$_0, std::__ndk1::allocator<Tab3::init()::$_0>, void (std::__ndk1::basic_string<char, std::__ndk1::char_traits<char>, std::__ndk1::allocator<char> > const&)>::destroy()
FUNC 262de 4 0 std::__ndk1::__function::__func<Tab3::init()::$_0, std::__ndk1::allocator<Tab3::init()::$_0>, void (std::__ndk1::basic_string<char, std::__ndk1::char_traits<char>, std::__ndk1::allocator<char> > const&)>::destroy_deallocate()
FUNC 262e4 68 0 std::__ndk1::__function::__func<Tab3::init()::$_0, std::__ndk1::allocator<Tab3::init()::$_0>, void (std::__ndk1::basic_string<char, std::__ndk1::char_traits<char>, std::__ndk1::allocator<char> > const&)>::operator()(std::__ndk1::basic_string<char, std::__ndk1::char_traits<char>, std::__ndk1::allocator<char> > const&)
FUNC 2634c 18 0 std::__ndk1::__function::__func<Tab3::init()::$_0, std::__ndk1::allocator<Tab3::init()::$_0>, void (std::__ndk1::basic_string<char, std::__ndk1::char_traits<char>, std::__ndk1::allocator<char> > const&)>::target(std::type_info const&) const
FUNC 26364 c 0 std::__ndk1::__function::__func<Tab3::init()::$_0, std::__ndk1::allocator<Tab3::init()::$_0>, void (std::__ndk1::basic_string<char, std::__ndk1::char_traits<char>, std::__ndk1::allocator<char> > const&)>::target_type() const
FUNC 26370 4 0 std::__ndk1::__function::__func<Tab3::init()::$_1, std::__ndk1::allocator<Tab3::init()::$_1>, void (std::__ndk1::basic_string<char, std::__ndk1::char_traits<char>, std::__ndk1::allocator<char> > const&)>::~__func()
FUNC 26374 20 0 std::__ndk1::__function::__func<Tab3::init()::$_1, std::__ndk1::allocator<Tab3::init()::$_1>, void (std::__ndk1::basic_string<char, std::__ndk1::char_traits<char>, std::__ndk1::allocator<char> > const&)>::__clone() const
FUNC 26394 14 0 std::__ndk1::__function::__func<Tab3::init()::$_1, std::__ndk1::allocator<Tab3::init()::$_1>, void (std::__ndk1::basic_string<char, std::__ndk1::char_traits<char>, std::__ndk1::allocator<char> > const&)>::__clone(std::__ndk1::__function::__base<void (std::__ndk1::basic_string<char, std::__ndk1::char_traits<char>, std::__ndk1::allocator<char> > const&)>*) const
FUNC 263a8 2 0 std::__ndk1::__function::__func<Tab3::init()::$_1, std::__ndk1::allocator<Tab3::init()::$_1>, void (std::__ndk1::basic_string<char, std::__ndk1::char_traits<char>, std::__ndk1::allocator<char> > const&)>::destroy()
FUNC 263aa 4 0 std::__ndk1::__function::__func<Tab3::init()::$_1, std::__ndk1::allocator<Tab3::init()::$_1>, void (std::__ndk1::basic_string<char, std::__ndk1::char_traits<char>, std::__ndk1::allocator<char> > const&)>::destroy_deallocate()
FUNC 263b0 68 0 std::__ndk1::__function::__func<Tab3::init()::$_1, std::__ndk1::allocator<Tab3::init()::$_1>, void (std::__ndk1::basic_string<char, std::__ndk1::char_traits<char>, std::__ndk1::allocator<char> > const&)>::operator()(std::__ndk1::basic_string<char, std::__ndk1::char_traits<char>, std::__ndk1::allocator<char> > const&)
FUNC 26418 18 0 std::__ndk1::__function::__func<Tab3::init()::$_1, std::__ndk1::allocator<Tab3::init()::$_1>, void (std::__ndk1::basic_string<char, std::__ndk1::char_traits<char>, std::__ndk1::allocator<char> > const&)>::target(std::type_info const&) const
FUNC 26430 c 0 std::__ndk1::__function::__func<Tab3::init()::$_1, std::__ndk1::allocator<Tab3::init()::$_1>, void (std::__ndk1::basic_string<char, std::__ndk1::char_traits<char>, std::__ndk1::allocator<char> > const&)>::target_type() const
FUNC 2643c 4 0 std::__ndk1::__function::__func<Tab3::init()::$_2, std::__ndk1::allocator<Tab3::init()::$_2>, void (std::__ndk1::basic_string<char, std::__ndk1::char_traits<char>, std::__ndk1::allocator<char> > const&)>::~__func()
FUNC 26440 20 0 std::__ndk1::__function::__func<Tab3::init()::$_2, std::__ndk1::allocator<Tab3::init()::$_2>, void (std::__ndk1::basic_string<char, std::__ndk1::char_traits<char>, std::__ndk1::allocator<char> > const&)>::__clone() const
FUNC 26460 14 0 std::__ndk1::__function::__func<Tab3::init()::$_2, std::__ndk1::allocator<Tab3::init()::$_2>, void (std::__ndk1::basic_string<char, std::__ndk1::char_traits<char>, std::__ndk1::allocator<char> > const&)>::__clone(std::__ndk1::__function::__base<void (std::__ndk1::basic_string<char, std::__ndk1::char_traits<char>, std::__ndk1::allocator<char> > const&)>*) const
FUNC 26474 2 0 std::__ndk1::__function::__func<Tab3::init()::$_2, std::__ndk1::allocator<Tab3::init()::$_2>, void (std::__ndk1::basic_string<char, std::__ndk1::char_traits<char>, std::__ndk1::allocator<char> > const&)>::destroy()
FUNC 26476 4 0 std::__ndk1::__function::__func<Tab3::init()::$_2, std::__ndk1::allocator<Tab3::init()::$_2>, void (std::__ndk1::basic_string<char, std::__ndk1::char_traits<char>, std::__ndk1::allocator<char> > const&)>::destroy_deallocate()
FUNC 2647c 68 0 std::__ndk1::__function::__func<Tab3::init()::$_2, std::__ndk1::allocator<Tab3::init()::$_2>, void (std::__ndk1::basic_string<char, std::__ndk1::char_traits<char>, std::__ndk1::allocator<char> > const&)>::operator()(std::__ndk1::basic_string<char, std::__ndk1::char_traits<char>, std::__ndk1::allocator<char> > const&)
FUNC 264e4 18 0 std::__ndk1::__function::__func<Tab3::init()::$_2, std::__ndk1::allocator<Tab3::init()::$_2>, void (std::__ndk1::basic_string<char, std::__ndk1::char_traits<char>, std::__ndk1::allocator<char> > const&)>::target(std::type_info const&) const
FUNC 264fc c 0 std::__ndk1::__function::__func<Tab3::init()::$_2, std::__ndk1::allocator<Tab3::init()::$_2>, void (std::__ndk1::basic_string<char, std::__ndk1::char_traits<char>, std::__ndk1::allocator<char> > const&)>::target_type() const
FUNC 26508 4 0 std::__ndk1::__function::__func<Tab3::init()::$_3, std::__ndk1::allocator<Tab3::init()::$_3>, void (std::__ndk1::basic_string<char, std::__ndk1::char_traits<char>, std::__ndk1::allocator<char> > const&)>::~__func()
FUNC 2650c 20 0 std::__ndk1::__function::__func<Tab3::init()::$_3, std::__ndk1::allocator<Tab3::init()::$_3>, void (std::__ndk1::basic_string<char, std::__ndk1::char_traits<char>, std::__ndk1::allocator<char> > const&)>::__clone() const
FUNC 2652c 14 0 std::__ndk1::__function::__func<Tab3::init()::$_3, std::__ndk1::allocator<Tab3::init()::$_3>, void (std::__ndk1::basic_string<char, std::__ndk1::char_traits<char>, std::__ndk1::allocator<char> > const&)>::__clone(std::__ndk1::__function::__base<void (std::__ndk1::basic_string<char, std::__ndk1::char_traits<char>, std::__ndk1::allocator<char> > const&)>*) const
FUNC 26540 2 0 std::__ndk1::__function::__func<Tab3::init()::$_3, std::__ndk1::allocator<Tab3::init()::$_3>, void (std::__ndk1::basic_string<char, std::__ndk1::char_traits<char>, std::__ndk1::allocator<char> > const&)>::destroy()
FUNC 26542 4 0 std::__ndk1::__function::__func<Tab3::init()::$_3, std::__ndk1::allocator<Tab3::init()::$_3>, void (std::__ndk1::basic_string<char, std::__ndk1::char_traits<char>, std::__ndk1::allocator<char> > const&)>::destroy_deallocate()
FUNC 26548 68 0 std::__ndk1::__function::__func<Tab3::init()::$_3, std::__ndk1::allocator<Tab3::init()::$_3>, void (std::__ndk1::basic_string<char, std::__ndk1::char_traits<char>, std::__ndk1::allocator<char> > const&)>::operator()(std::__ndk1::basic_string<char, std::__ndk1::char_traits<char>, std::__ndk1::allocator<char> > const&)
FUNC 265b0 18 0 std::__ndk1::__function::__func<Tab3::init()::$_3, std::__ndk1::allocator<Tab3::init()::$_3>, void (std::__ndk1::basic_string<char, std::__ndk1::char_traits<char>, std::__ndk1::allocator<char> > const&)>::target(std::type_info const&) const
FUNC 265c8 c 0 std::__ndk1::__function::__func<Tab3::init()::$_3, std::__ndk1::allocator<Tab3::init()::$_3>, void (std::__ndk1::basic_string<char, std::__ndk1::char_traits<char>, std::__ndk1::allocator<char> > const&)>::target_type() const
FUNC 265d4 4 0 std::__ndk1::__function::__func<Tab3::init()::$_4, std::__ndk1::allocator<Tab3::init()::$_4>, void (std::__ndk1::basic_string<char, std::__ndk1::char_traits<char>, std::__ndk1::allocator<char> > const&)>::~__func()
FUNC 265d8 20 0 std::__ndk1::__function::__func<Tab3::init()::$_4, std::__ndk1::allocator<Tab3::init()::$_4>, void (std::__ndk1::basic_string<char, std::__ndk1::char_traits<char>, std::__ndk1::allocator<char> > const&)>::__clone() const
FUNC 265f8 14 0 std::__ndk1::__function::__func<Tab3::init()::$_4, std::__ndk1::allocator<Tab3::init()::$_4>, void (std::__ndk1::basic_string<char, std::__ndk1::char_traits<char>, std::__ndk1::allocator<char> > const&)>::__clone(std::__ndk1::__function::__base<void (std::__ndk1::basic_string<char, std::__ndk1::char_traits<char>, std::__ndk1::allocator<char> > const&)>*) const
FUNC 2660c 2 0 std::__ndk1::__function::__func<Tab3::init()::$_4, std::__ndk1::allocator<Tab3::init()::$_4>, void (std::__ndk1::basic_string<char, std::__ndk1::char_traits<char>, std::__ndk1::allocator<char> > const&)>::destroy()
FUNC 2660e 4 0 std::__ndk1::__function::__func<Tab3::init()::$_4, std::__ndk1::allocator<Tab3::init()::$_4>, void (std::__ndk1::basic_string<char, std::__ndk1::char_traits<char>, std::__ndk1::allocator<char> > const&)>::destroy_deallocate()
FUNC 26614 68 0 std::__ndk1::__function::__func<Tab3::init()::$_4, std::__ndk1::allocator<Tab3::init()::$_4>, void (std::__ndk1::basic_string<char, std::__ndk1::char_traits<char>, std::__ndk1::allocator<char> > const&)>::operator()(std::__ndk1::basic_string<char, std::__ndk1::char_traits<char>, std::__ndk1::allocator<char> > const&)
FUNC 2667c 18 0 std::__ndk1::__function::__func<Tab3::init()::$_4, std::__ndk1::allocator<Tab3::init()::$_4>, void (std::__ndk1::basic_string<char, std::__ndk1::char_traits<char>, std::__ndk1::allocator<char> > const&)>::target(std::type_info const&) const
FUNC 26694 c 0 std::__ndk1::__function::__func<Tab3::init()::$_4, std::__ndk1::allocator<Tab3::init()::$_4>, void (std::__ndk1::basic_string<char, std::__ndk1::char_traits<char>, std::__ndk1::allocator<char> > const&)>::target_type() const
FUNC 266a0 4 0 std::__ndk1::__function::__func<Tab3::init()::$_5, std::__ndk1::allocator<Tab3::init()::$_5>, void (std::__ndk1::basic_string<char, std::__ndk1::char_traits<char>, std::__ndk1::allocator<char> > const&)>::~__func()
FUNC 266a4 20 0 std::__ndk1::__function::__func<Tab3::init()::$_5, std::__ndk1::allocator<Tab3::init()::$_5>, void (std::__ndk1::basic_string<char, std::__ndk1::char_traits<char>, std::__ndk1::allocator<char> > const&)>::__clone() const
FUNC 266c4 14 0 std::__ndk1::__function::__func<Tab3::init()::$_5, std::__ndk1::allocator<Tab3::init()::$_5>, void (std::__ndk1::basic_string<char, std::__ndk1::char_traits<char>, std::__ndk1::allocator<char> > const&)>::__clone(std::__ndk1::__function::__base<void (std::__ndk1::basic_string<char, std::__ndk1::char_traits<char>, std::__ndk1::allocator<char> > const&)>*) const
FUNC 266d8 2 0 std::__ndk1::__function::__func<Tab3::init()::$_5, std::__ndk1::allocator<Tab3::init()::$_5>, void (std::__ndk1::basic_string<char, std::__ndk1::char_traits<char>, std::__ndk1::allocator<char> > const&)>::destroy()
FUNC 266da 4 0 std::__ndk1::__function::__func<Tab3::init()::$_5, std::__ndk1::allocator<Tab3::init()::$_5>, void (std::__ndk1::basic_string<char, std::__ndk1::char_traits<char>, std::__ndk1::allocator<char> > const&)>::destroy_deallocate()
FUNC 266e0 68 0 std::__ndk1::__function::__func<Tab3::init()::$_5, std::__ndk1::allocator<Tab3::init()::$_5>, void (std::__ndk1::basic_string<char, std::__ndk1::char_traits<char>, std::__ndk1::allocator<char> > const&)>::operator()(std::__ndk1::basic_string<char, std::__ndk1::char_traits<char>, std::__ndk1::allocator<char> > const&)
FUNC 26748 18 0 std::__ndk1::__function::__func<Tab3::init()::$_5, std::__ndk1::allocator<Tab3::init()::$_5>, void (std::__ndk1::basic_string<char, std::__ndk1::char_traits<char>, std::__ndk1::allocator<char> > const&)>::target(std::type_info const&) const
FUNC 26760 c 0 std::__ndk1::__function::__func<Tab3::init()::$_5, std::__ndk1::allocator<Tab3::init()::$_5>, void (std::__ndk1::basic_string<char, std::__ndk1::char_traits<char>, std::__ndk1::allocator<char> > const&)>::target_type() const
FUNC 2676c 4 0 std::__ndk1::__function::__func<Tab3::init()::$_6, std::__ndk1::allocator<Tab3::init()::$_6>, void (std::__ndk1::basic_string<char, std::__ndk1::char_traits<char>, std::__ndk1::allocator<char> > const&)>::~__func()
FUNC 26770 20 0 std::__ndk1::__function::__func<Tab3::init()::$_6, std::__ndk1::allocator<Tab3::init()::$_6>, void (std::__ndk1::basic_string<char, std::__ndk1::char_traits<char>, std::__ndk1::allocator<char> > const&)>::__clone() const
FUNC 26790 14 0 std::__ndk1::__function::__func<Tab3::init()::$_6, std::__ndk1::allocator<Tab3::init()::$_6>, void (std::__ndk1::basic_string<char, std::__ndk1::char_traits<char>, std::__ndk1::allocator<char> > const&)>::__clone(std::__ndk1::__function::__base<void (std::__ndk1::basic_string<char, std::__ndk1::char_traits<char>, std::__ndk1::allocator<char> > const&)>*) const
FUNC 267a4 2 0 std::__ndk1::__function::__func<Tab3::init()::$_6, std::__ndk1::allocator<Tab3::init()::$_6>, void (std::__ndk1::basic_string<char, std::__ndk1::char_traits<char>, std::__ndk1::allocator<char> > const&)>::destroy()
FUNC 267a6 4 0 std::__ndk1::__function::__func<Tab3::init()::$_6, std::__ndk1::allocator<Tab3::init()::$_6>, void (std::__ndk1::basic_string<char, std::__ndk1::char_traits<char>, std::__ndk1::allocator<char> > const&)>::destroy_deallocate()
FUNC 267ac 68 0 std::__ndk1::__function::__func<Tab3::init()::$_6, std::__ndk1::allocator<Tab3::init()::$_6>, void (std::__ndk1::basic_string<char, std::__ndk1::char_traits<char>, std::__ndk1::allocator<char> > const&)>::operator()(std::__ndk1::basic_string<char, std::__ndk1::char_traits<char>, std::__ndk1::allocator<char> > const&)
FUNC 26814 18 0 std::__ndk1::__function::__func<Tab3::init()::$_6, std::__ndk1::allocator<Tab3::init()::$_6>, void (std::__ndk1::basic_string<char, std::__ndk1::char_traits<char>, std::__ndk1::allocator<char> > const&)>::target(std::type_info const&) const
FUNC 2682c c 0 std::__ndk1::__function::__func<Tab3::init()::$_6, std::__ndk1::allocator<Tab3::init()::$_6>, void (std::__ndk1::basic_string<char, std::__ndk1::char_traits<char>, std::__ndk1::allocator<char> > const&)>::target_type() const
FUNC 26838 4 0 std::__ndk1::__function::__func<Tab3::init()::$_7, std::__ndk1::allocator<Tab3::init()::$_7>, void (std::__ndk1::basic_string<char, std::__ndk1::char_traits<char>, std::__ndk1::allocator<char> > const&)>::~__func()
FUNC 2683c 20 0 std::__ndk1::__function::__func<Tab3::init()::$_7, std::__ndk1::allocator<Tab3::init()::$_7>, void (std::__ndk1::basic_string<char, std::__ndk1::char_traits<char>, std::__ndk1::allocator<char> > const&)>::__clone() const
FUNC 2685c 14 0 std::__ndk1::__function::__func<Tab3::init()::$_7, std::__ndk1::allocator<Tab3::init()::$_7>, void (std::__ndk1::basic_string<char, std::__ndk1::char_traits<char>, std::__ndk1::allocator<char> > const&)>::__clone(std::__ndk1::__function::__base<void (std::__ndk1::basic_string<char, std::__ndk1::char_traits<char>, std::__ndk1::allocator<char> > const&)>*) const
FUNC 26870 2 0 std::__ndk1::__function::__func<Tab3::init()::$_7, std::__ndk1::allocator<Tab3::init()::$_7>, void (std::__ndk1::basic_string<char, std::__ndk1::char_traits<char>, std::__ndk1::allocator<char> > const&)>::destroy()
FUNC 26872 4 0 std::__ndk1::__function::__func<Tab3::init()::$_7, std::__ndk1::allocator<Tab3::init()::$_7>, void (std::__ndk1::basic_string<char, std::__ndk1::char_traits<char>, std::__ndk1::allocator<char> > const&)>::destroy_deallocate()
FUNC 26878 68 0 std::__ndk1::__function::__func<Tab3::init()::$_7, std::__ndk1::allocator<Tab3::init()::$_7>, void (std::__ndk1::basic_string<char, std::__ndk1::char_traits<char>, std::__ndk1::allocator<char> > const&)>::operator()(std::__ndk1::basic_string<char, std::__ndk1::char_traits<char>, std::__ndk1::allocator<char> > const&)
FUNC 268e0 18 0 std::__ndk1::__function::__func<Tab3::init()::$_7, std::__ndk1::allocator<Tab3::init()::$_7>, void (std::__ndk1::basic_string<char, std::__ndk1::char_traits<char>, std::__ndk1::allocator<char> > const&)>::target(std::type_info const&) const
FUNC 268f8 c 0 std::__ndk1::__function::__func<Tab3::init()::$_7, std::__ndk1::allocator<Tab3::init()::$_7>, void (std::__ndk1::basic_string<char, std::__ndk1::char_traits<char>, std::__ndk1::allocator<char> > const&)>::target_type() const
FUNC 26904 4 0 std::__ndk1::__function::__func<Tab3::init()::$_8, std::__ndk1::allocator<Tab3::init()::$_8>, void (std::__ndk1::basic_string<char, std::__ndk1::char_traits<char>, std::__ndk1::allocator<char> > const&)>::~__func()
FUNC 26908 20 0 std::__ndk1::__function::__func<Tab3::init()::$_8, std::__ndk1::allocator<Tab3::init()::$_8>, void (std::__ndk1::basic_string<char, std::__ndk1::char_traits<char>, std::__ndk1::allocator<char> > const&)>::__clone() const
FUNC 26928 14 0 std::__ndk1::__function::__func<Tab3::init()::$_8, std::__ndk1::allocator<Tab3::init()::$_8>, void (std::__ndk1::basic_string<char, std::__ndk1::char_traits<char>, std::__ndk1::allocator<char> > const&)>::__clone(std::__ndk1::__function::__base<void (std::__ndk1::basic_string<char, std::__ndk1::char_traits<char>, std::__ndk1::allocator<char> > const&)>*) const
FUNC 2693c 2 0 std::__ndk1::__function::__func<Tab3::init()::$_8, std::__ndk1::allocator<Tab3::init()::$_8>, void (std::__ndk1::basic_string<char, std::__ndk1::char_traits<char>, std::__ndk1::allocator<char> > const&)>::destroy()
FUNC 2693e 4 0 std::__ndk1::__function::__func<Tab3::init()::$_8, std::__ndk1::allocator<Tab3::init()::$_8>, void (std::__ndk1::basic_string<char, std::__ndk1::char_traits<char>, std::__ndk1::allocator<char> > const&)>::destroy_deallocate()
FUNC 26944 68 0 std::__ndk1::__function::__func<Tab3::init()::$_8, std::__ndk1::allocator<Tab3::init()::$_8>, void (std::__ndk1::basic_string<char, std::__ndk1::char_traits<char>, std::__ndk1::allocator<char> > const&)>::operator()(std::__ndk1::basic_string<char, std::__ndk1::char_traits<char>, std::__ndk1::allocator<char> > const&)
FUNC 269ac 18 0 std::__ndk1::__function::__func<Tab3::init()::$_8, std::__ndk1::allocator<Tab3::init()::$_8>, void (std::__ndk1::basic_string<char, std::__ndk1::char_traits<char>, std::__ndk1::allocator<char> > const&)>::target(std::type_info const&) const
FUNC 269c4 c 0 std::__ndk1::__function::__func<Tab3::init()::$_8, std::__ndk1::allocator<Tab3::init()::$_8>, void (std::__ndk1::basic_string<char, std::__ndk1::char_traits<char>, std::__ndk1::allocator<char> > const&)>::target_type() const
FUNC 269d0 4 0 std::__ndk1::__function::__func<Tab3::init()::$_9, std::__ndk1::allocator<Tab3::init()::$_9>, void (std::__ndk1::basic_string<char, std::__ndk1::char_traits<char>, std::__ndk1::allocator<char> > const&)>::~__func()
FUNC 269d4 20 0 std::__ndk1::__function::__func<Tab3::init()::$_9, std::__ndk1::allocator<Tab3::init()::$_9>, void (std::__ndk1::basic_string<char, std::__ndk1::char_traits<char>, std::__ndk1::allocator<char> > const&)>::__clone() const
FUNC 269f4 14 0 std::__ndk1::__function::__func<Tab3::init()::$_9, std::__ndk1::allocator<Tab3::init()::$_9>, void (std::__ndk1::basic_string<char, std::__ndk1::char_traits<char>, std::__ndk1::allocator<char> > const&)>::__clone(std::__ndk1::__function::__base<void (std::__ndk1::basic_string<char, std::__ndk1::char_traits<char>, std::__ndk1::allocator<char> > const&)>*) const
FUNC 26a08 2 0 std::__ndk1::__function::__func<Tab3::init()::$_9, std::__ndk1::allocator<Tab3::init()::$_9>, void (std::__ndk1::basic_string<char, std::__ndk1::char_traits<char>, std::__ndk1::allocator<char> > const&)>::destroy()
FUNC 26a0a 4 0 std::__ndk1::__function::__func<Tab3::init()::$_9, std::__ndk1::allocator<Tab3::init()::$_9>, void (std::__ndk1::basic_string<char, std::__ndk1::char_traits<char>, std::__ndk1::allocator<char> > const&)>::destroy_deallocate()
FUNC 26a10 68 0 std::__ndk1::__function::__func<Tab3::init()::$_9, std::__ndk1::allocator<Tab3::init()::$_9>, void (std::__ndk1::basic_string<char, std::__ndk1::char_traits<char>, std::__ndk1::allocator<char> > const&)>::operator()(std::__ndk1::basic_string<char, std::__ndk1::char_traits<char>, std::__ndk1::allocator<char> > const&)
FUNC 26a78 18 0 std::__ndk1::__function::__func<Tab3::init()::$_9, std::__ndk1::allocator<Tab3::init()::$_9>, void (std::__ndk1::basic_string<char, std::__ndk1::char_traits<char>, std::__ndk1::allocator<char> > const&)>::target(std::type_info const&) const
FUNC 26a90 c 0 std::__ndk1::__function::__func<Tab3::init()::$_9, std::__ndk1::allocator<Tab3::init()::$_9>, void (std::__ndk1::basic_string<char, std::__ndk1::char_traits<char>, std::__ndk1::allocator<char> > const&)>::target_type() const
FUNC 26a9c 4 0 std::__ndk1::__function::__func<Tab3::init()::$_10, std::__ndk1::allocator<Tab3::init()::$_10>, void (std::__ndk1::basic_string<char, std::__ndk1::char_traits<char>, std::__ndk1::allocator<char> > const&)>::~__func()
FUNC 26aa0 20 0 std::__ndk1::__function::__func<Tab3::init()::$_10, std::__ndk1::allocator<Tab3::init()::$_10>, void (std::__ndk1::basic_string<char, std::__ndk1::char_traits<char>, std::__ndk1::allocator<char> > const&)>::__clone() const
FUNC 26ac0 14 0 std::__ndk1::__function::__func<Tab3::init()::$_10, std::__ndk1::allocator<Tab3::init()::$_10>, void (std::__ndk1::basic_string<char, std::__ndk1::char_traits<char>, std::__ndk1::allocator<char> > const&)>::__clone(std::__ndk1::__function::__base<void (std::__ndk1::basic_string<char, std::__ndk1::char_traits<char>, std::__ndk1::allocator<char> > const&)>*) const
FUNC 26ad4 2 0 std::__ndk1::__function::__func<Tab3::init()::$_10, std::__ndk1::allocator<Tab3::init()::$_10>, void (std::__ndk1::basic_string<char, std::__ndk1::char_traits<char>, std::__ndk1::allocator<char> > const&)>::destroy()
FUNC 26ad6 4 0 std::__ndk1::__function::__func<Tab3::init()::$_10, std::__ndk1::allocator<Tab3::init()::$_10>, void (std::__ndk1::basic_string<char, std::__ndk1::char_traits<char>, std::__ndk1::allocator<char> > const&)>::destroy_deallocate()
FUNC 26adc 68 0 std::__ndk1::__function::__func<Tab3::init()::$_10, std::__ndk1::allocator<Tab3::init()::$_10>, void (std::__ndk1::basic_string<char, std::__ndk1::char_traits<char>, std::__ndk1::allocator<char> > const&)>::operator()(std::__ndk1::basic_string<char, std::__ndk1::char_traits<char>, std::__ndk1::allocator<char> > const&)
FUNC 26b44 18 0 std::__ndk1::__function::__func<Tab3::init()::$_10, std::__ndk1::allocator<Tab3::init()::$_10>, void (std::__ndk1::basic_string<char, std::__ndk1::char_traits<char>, std::__ndk1::allocator<char> > const&)>::target(std::type_info const&) const
FUNC 26b5c c 0 std::__ndk1::__function::__func<Tab3::init()::$_10, std::__ndk1::allocator<Tab3::init()::$_10>, void (std::__ndk1::basic_string<char, std::__ndk1::char_traits<char>, std::__ndk1::allocator<char> > const&)>::target_type() const
FUNC 26b68 4 0 std::__ndk1::__function::__func<Tab3::init()::$_11, std::__ndk1::allocator<Tab3::init()::$_11>, void (std::__ndk1::basic_string<char, std::__ndk1::char_traits<char>, std::__ndk1::allocator<char> > const&)>::~__func()
FUNC 26b6c 20 0 std::__ndk1::__function::__func<Tab3::init()::$_11, std::__ndk1::allocator<Tab3::init()::$_11>, void (std::__ndk1::basic_string<char, std::__ndk1::char_traits<char>, std::__ndk1::allocator<char> > const&)>::__clone() const
FUNC 26b8c 14 0 std::__ndk1::__function::__func<Tab3::init()::$_11, std::__ndk1::allocator<Tab3::init()::$_11>, void (std::__ndk1::basic_string<char, std::__ndk1::char_traits<char>, std::__ndk1::allocator<char> > const&)>::__clone(std::__ndk1::__function::__base<void (std::__ndk1::basic_string<char, std::__ndk1::char_traits<char>, std::__ndk1::allocator<char> > const&)>*) const
FUNC 26ba0 2 0 std::__ndk1::__function::__func<Tab3::init()::$_11, std::__ndk1::allocator<Tab3::init()::$_11>, void (std::__ndk1::basic_string<char, std::__ndk1::char_traits<char>, std::__ndk1::allocator<char> > const&)>::destroy()
FUNC 26ba2 4 0 std::__ndk1::__function::__func<Tab3::init()::$_11, std::__ndk1::allocator<Tab3::init()::$_11>, void (std::__ndk1::basic_string<char, std::__ndk1::char_traits<char>, std::__ndk1::allocator<char> > const&)>::destroy_deallocate()
FUNC 26ba8 68 0 std::__ndk1::__function::__func<Tab3::init()::$_11, std::__ndk1::allocator<Tab3::init()::$_11>, void (std::__ndk1::basic_string<char, std::__ndk1::char_traits<char>, std::__ndk1::allocator<char> > const&)>::operator()(std::__ndk1::basic_string<char, std::__ndk1::char_traits<char>, std::__ndk1::allocator<char> > const&)
FUNC 26c10 18 0 std::__ndk1::__function::__func<Tab3::init()::$_11, std::__ndk1::allocator<Tab3::init()::$_11>, void (std::__ndk1::basic_string<char, std::__ndk1::char_traits<char>, std::__ndk1::allocator<char> > const&)>::target(std::type_info const&) const
FUNC 26c28 c 0 std::__ndk1::__function::__func<Tab3::init()::$_11, std::__ndk1::allocator<Tab3::init()::$_11>, void (std::__ndk1::basic_string<char, std::__ndk1::char_traits<char>, std::__ndk1::allocator<char> > const&)>::target_type() const
FUNC 26c34 4 0 std::__ndk1::__function::__func<Tab3::init()::$_12, std::__ndk1::allocator<Tab3::init()::$_12>, void (std::__ndk1::basic_string<char, std::__ndk1::char_traits<char>, std::__ndk1::allocator<char> > const&)>::~__func()
FUNC 26c38 20 0 std::__ndk1::__function::__func<Tab3::init()::$_12, std::__ndk1::allocator<Tab3::init()::$_12>, void (std::__ndk1::basic_string<char, std::__ndk1::char_traits<char>, std::__ndk1::allocator<char> > const&)>::__clone() const
FUNC 26c58 14 0 std::__ndk1::__function::__func<Tab3::init()::$_12, std::__ndk1::allocator<Tab3::init()::$_12>, void (std::__ndk1::basic_string<char, std::__ndk1::char_traits<char>, std::__ndk1::allocator<char> > const&)>::__clone(std::__ndk1::__function::__base<void (std::__ndk1::basic_string<char, std::__ndk1::char_traits<char>, std::__ndk1::allocator<char> > const&)>*) const
FUNC 26c6c 2 0 std::__ndk1::__function::__func<Tab3::init()::$_12, std::__ndk1::allocator<Tab3::init()::$_12>, void (std::__ndk1::basic_string<char, std::__ndk1::char_traits<char>, std::__ndk1::allocator<char> > const&)>::destroy()
FUNC 26c6e 4 0 std::__ndk1::__function::__func<Tab3::init()::$_12, std::__ndk1::allocator<Tab3::init()::$_12>, void (std::__ndk1::basic_string<char, std::__ndk1::char_traits<char>, std::__ndk1::allocator<char> > const&)>::destroy_deallocate()
FUNC 26c74 68 0 std::__ndk1::__function::__func<Tab3::init()::$_12, std::__ndk1::allocator<Tab3::init()::$_12>, void (std::__ndk1::basic_string<char, std::__ndk1::char_traits<char>, std::__ndk1::allocator<char> > const&)>::operator()(std::__ndk1::basic_string<char, std::__ndk1::char_traits<char>, std::__ndk1::allocator<char> > const&)
FUNC 26cdc 18 0 std::__ndk1::__function::__func<Tab3::init()::$_12, std::__ndk1::allocator<Tab3::init()::$_12>, void (std::__ndk1::basic_string<char, std::__ndk1::char_traits<char>, std::__ndk1::allocator<char> > const&)>::target(std::type_info const&) const
FUNC 26cf4 c 0 std::__ndk1::__function::__func<Tab3::init()::$_12, std::__ndk1::allocator<Tab3::init()::$_12>, void (std::__ndk1::basic_string<char, std::__ndk1::char_traits<char>, std::__ndk1::allocator<char> > const&)>::target_type() const
FUNC 26d00 4 0 std::__ndk1::__function::__func<Tab3::init()::$_13, std::__ndk1::allocator<Tab3::init()::$_13>, void (std::__ndk1::basic_string<char, std::__ndk1::char_traits<char>, std::__ndk1::allocator<char> > const&)>::~__func()
FUNC 26d04 20 0 std::__ndk1::__function::__func<Tab3::init()::$_13, std::__ndk1::allocator<Tab3::init()::$_13>, void (std::__ndk1::basic_string<char, std::__ndk1::char_traits<char>, std::__ndk1::allocator<char> > const&)>::__clone() const
FUNC 26d24 14 0 std::__ndk1::__function::__func<Tab3::init()::$_13, std::__ndk1::allocator<Tab3::init()::$_13>, void (std::__ndk1::basic_string<char, std::__ndk1::char_traits<char>, std::__ndk1::allocator<char> > const&)>::__clone(std::__ndk1::__function::__base<void (std::__ndk1::basic_string<char, std::__ndk1::char_traits<char>, std::__ndk1::allocator<char> > const&)>*) const
FUNC 26d38 2 0 std::__ndk1::__function::__func<Tab3::init()::$_13, std::__ndk1::allocator<Tab3::init()::$_13>, void (std::__ndk1::basic_string<char, std::__ndk1::char_traits<char>, std::__ndk1::allocator<char> > const&)>::destroy()
FUNC 26d3a 4 0 std::__ndk1::__function::__func<Tab3::init()::$_13, std::__ndk1::allocator<Tab3::init()::$_13>, void (std::__ndk1::basic_string<char, std::__ndk1::char_traits<char>, std::__ndk1::allocator<char> > const&)>::destroy_deallocate()
FUNC 26d40 68 0 std::__ndk1::__function::__func<Tab3::init()::$_13, std::__ndk1::allocator<Tab3::init()::$_13>, void (std::__ndk1::basic_string<char, std::__ndk1::char_traits<char>, std::__ndk1::allocator<char> > const&)>::operator()(std::__ndk1::basic_string<char, std::__ndk1::char_traits<char>, std::__ndk1::allocator<char> > const&)
FUNC 26da8 18 0 std::__ndk1::__function::__func<Tab3::init()::$_13, std::__ndk1::allocator<Tab3::init()::$_13>, void (std::__ndk1::basic_string<char, std::__ndk1::char_traits<char>, std::__ndk1::allocator<char> > const&)>::target(std::type_info const&) const
FUNC 26dc0 c 0 std::__ndk1::__function::__func<Tab3::init()::$_13, std::__ndk1::allocator<Tab3::init()::$_13>, void (std::__ndk1::basic_string<char, std::__ndk1::char_traits<char>, std::__ndk1::allocator<char> > const&)>::target_type() const
FUNC 26dcc 4 0 std::__ndk1::__function::__func<Tab3::init()::$_14, std::__ndk1::allocator<Tab3::init()::$_14>, void (std::__ndk1::basic_string<char, std::__ndk1::char_traits<char>, std::__ndk1::allocator<char> > const&)>::~__func()
FUNC 26dd0 20 0 std::__ndk1::__function::__func<Tab3::init()::$_14, std::__ndk1::allocator<Tab3::init()::$_14>, void (std::__ndk1::basic_string<char, std::__ndk1::char_traits<char>, std::__ndk1::allocator<char> > const&)>::__clone() const
FUNC 26df0 14 0 std::__ndk1::__function::__func<Tab3::init()::$_14, std::__ndk1::allocator<Tab3::init()::$_14>, void (std::__ndk1::basic_string<char, std::__ndk1::char_traits<char>, std::__ndk1::allocator<char> > const&)>::__clone(std::__ndk1::__function::__base<void (std::__ndk1::basic_string<char, std::__ndk1::char_traits<char>, std::__ndk1::allocator<char> > const&)>*) const
FUNC 26e04 2 0 std::__ndk1::__function::__func<Tab3::init()::$_14, std::__ndk1::allocator<Tab3::init()::$_14>, void (std::__ndk1::basic_string<char, std::__ndk1::char_traits<char>, std::__ndk1::allocator<char> > const&)>::destroy()
FUNC 26e06 4 0 std::__ndk1::__function::__func<Tab3::init()::$_14, std::__ndk1::allocator<Tab3::init()::$_14>, void (std::__ndk1::basic_string<char, std::__ndk1::char_traits<char>, std::__ndk1::allocator<char> > const&)>::destroy_deallocate()
FUNC 26e0c 68 0 std::__ndk1::__function::__func<Tab3::init()::$_14, std::__ndk1::allocator<Tab3::init()::$_14>, void (std::__ndk1::basic_string<char, std::__ndk1::char_traits<char>, std::__ndk1::allocator<char> > const&)>::operator()(std::__ndk1::basic_string<char, std::__ndk1::char_traits<char>, std::__ndk1::allocator<char> > const&)
FUNC 26e74 18 0 std::__ndk1::__function::__func<Tab3::init()::$_14, std::__ndk1::allocator<Tab3::init()::$_14>, void (std::__ndk1::basic_string<char, std::__ndk1::char_traits<char>, std::__ndk1::allocator<char> > const&)>::target(std::type_info const&) const
FUNC 26e8c c 0 std::__ndk1::__function::__func<Tab3::init()::$_14, std::__ndk1::allocator<Tab3::init()::$_14>, void (std::__ndk1::basic_string<char, std::__ndk1::char_traits<char>, std::__ndk1::allocator<char> > const&)>::target_type() const
FUNC 26e98 4 0 std::__ndk1::__function::__func<Tab3::init()::$_15, std::__ndk1::allocator<Tab3::init()::$_15>, void (std::__ndk1::basic_string<char, std::__ndk1::char_traits<char>, std::__ndk1::allocator<char> > const&)>::~__func()
FUNC 26e9c 20 0 std::__ndk1::__function::__func<Tab3::init()::$_15, std::__ndk1::allocator<Tab3::init()::$_15>, void (std::__ndk1::basic_string<char, std::__ndk1::char_traits<char>, std::__ndk1::allocator<char> > const&)>::__clone() const
FUNC 26ebc 14 0 std::__ndk1::__function::__func<Tab3::init()::$_15, std::__ndk1::allocator<Tab3::init()::$_15>, void (std::__ndk1::basic_string<char, std::__ndk1::char_traits<char>, std::__ndk1::allocator<char> > const&)>::__clone(std::__ndk1::__function::__base<void (std::__ndk1::basic_string<char, std::__ndk1::char_traits<char>, std::__ndk1::allocator<char> > const&)>*) const
FUNC 26ed0 2 0 std::__ndk1::__function::__func<Tab3::init()::$_15, std::__ndk1::allocator<Tab3::init()::$_15>, void (std::__ndk1::basic_string<char, std::__ndk1::char_traits<char>, std::__ndk1::allocator<char> > const&)>::destroy()
FUNC 26ed2 4 0 std::__ndk1::__function::__func<Tab3::init()::$_15, std::__ndk1::allocator<Tab3::init()::$_15>, void (std::__ndk1::basic_string<char, std::__ndk1::char_traits<char>, std::__ndk1::allocator<char> > const&)>::destroy_deallocate()
FUNC 26ed8 68 0 std::__ndk1::__function::__func<Tab3::init()::$_15, std::__ndk1::allocator<Tab3::init()::$_15>, void (std::__ndk1::basic_string<char, std::__ndk1::char_traits<char>, std::__ndk1::allocator<char> > const&)>::operator()(std::__ndk1::basic_string<char, std::__ndk1::char_traits<char>, std::__ndk1::allocator<char> > const&)
FUNC 26f40 18 0 std::__ndk1::__function::__func<Tab3::init()::$_15, std::__ndk1::allocator<Tab3::init()::$_15>, void (std::__ndk1::basic_string<char, std::__ndk1::char_traits<char>, std::__ndk1::allocator<char> > const&)>::target(std::type_info const&) const
FUNC 26f58 c 0 std::__ndk1::__function::__func<Tab3::init()::$_15, std::__ndk1::allocator<Tab3::init()::$_15>, void (std::__ndk1::basic_string<char, std::__ndk1::char_traits<char>, std::__ndk1::allocator<char> > const&)>::target_type() const
FUNC 26f64 4 0 std::__ndk1::__function::__func<Tab3::init()::$_16, std::__ndk1::allocator<Tab3::init()::$_16>, void (std::__ndk1::basic_string<char, std::__ndk1::char_traits<char>, std::__ndk1::allocator<char> > const&)>::~__func()
FUNC 26f68 20 0 std::__ndk1::__function::__func<Tab3::init()::$_16, std::__ndk1::allocator<Tab3::init()::$_16>, void (std::__ndk1::basic_string<char, std::__ndk1::char_traits<char>, std::__ndk1::allocator<char> > const&)>::__clone() const
FUNC 26f88 14 0 std::__ndk1::__function::__func<Tab3::init()::$_16, std::__ndk1::allocator<Tab3::init()::$_16>, void (std::__ndk1::basic_string<char, std::__ndk1::char_traits<char>, std::__ndk1::allocator<char> > const&)>::__clone(std::__ndk1::__function::__base<void (std::__ndk1::basic_string<char, std::__ndk1::char_traits<char>, std::__ndk1::allocator<char> > const&)>*) const
FUNC 26f9c 2 0 std::__ndk1::__function::__func<Tab3::init()::$_16, std::__ndk1::allocator<Tab3::init()::$_16>, void (std::__ndk1::basic_string<char, std::__ndk1::char_traits<char>, std::__ndk1::allocator<char> > const&)>::destroy()
FUNC 26f9e 4 0 std::__ndk1::__function::__func<Tab3::init()::$_16, std::__ndk1::allocator<Tab3::init()::$_16>, void (std::__ndk1::basic_string<char, std::__ndk1::char_traits<char>, std::__ndk1::allocator<char> > const&)>::destroy_deallocate()
FUNC 26fa4 68 0 std::__ndk1::__function::__func<Tab3::init()::$_16, std::__ndk1::allocator<Tab3::init()::$_16>, void (std::__ndk1::basic_string<char, std::__ndk1::char_traits<char>, std::__ndk1::allocator<char> > const&)>::operator()(std::__ndk1::basic_string<char, std::__ndk1::char_traits<char>, std::__ndk1::allocator<char> > const&)
FUNC 2700c 18 0 std::__ndk1::__function::__func<Tab3::init()::$_16, std::__ndk1::allocator<Tab3::init()::$_16>, void (std::__ndk1::basic_string<char, std::__ndk1::char_traits<char>, std::__ndk1::allocator<char> > const&)>::target(std::type_info const&) const
FUNC 27024 c 0 std::__ndk1::__function::__func<Tab3::init()::$_16, std::__ndk1::allocator<Tab3::init()::$_16>, void (std::__ndk1::basic_string<char, std::__ndk1::char_traits<char>, std::__ndk1::allocator<char> > const&)>::target_type() const
FUNC 27030 4 0 std::__ndk1::__function::__func<Tab3::init()::$_17, std::__ndk1::allocator<Tab3::init()::$_17>, void (std::__ndk1::basic_string<char, std::__ndk1::char_traits<char>, std::__ndk1::allocator<char> > const&)>::~__func()
FUNC 27034 20 0 std::__ndk1::__function::__func<Tab3::init()::$_17, std::__ndk1::allocator<Tab3::init()::$_17>, void (std::__ndk1::basic_string<char, std::__ndk1::char_traits<char>, std::__ndk1::allocator<char> > const&)>::__clone() const
FUNC 27054 14 0 std::__ndk1::__function::__func<Tab3::init()::$_17, std::__ndk1::allocator<Tab3::init()::$_17>, void (std::__ndk1::basic_string<char, std::__ndk1::char_traits<char>, std::__ndk1::allocator<char> > const&)>::__clone(std::__ndk1::__function::__base<void (std::__ndk1::basic_string<char, std::__ndk1::char_traits<char>, std::__ndk1::allocator<char> > const&)>*) const
FUNC 27068 2 0 std::__ndk1::__function::__func<Tab3::init()::$_17, std::__ndk1::allocator<Tab3::init()::$_17>, void (std::__ndk1::basic_string<char, std::__ndk1::char_traits<char>, std::__ndk1::allocator<char> > const&)>::destroy()
FUNC 2706a 4 0 std::__ndk1::__function::__func<Tab3::init()::$_17, std::__ndk1::allocator<Tab3::init()::$_17>, void (std::__ndk1::basic_string<char, std::__ndk1::char_traits<char>, std::__ndk1::allocator<char> > const&)>::destroy_deallocate()
FUNC 27070 68 0 std::__ndk1::__function::__func<Tab3::init()::$_17, std::__ndk1::allocator<Tab3::init()::$_17>, void (std::__ndk1::basic_string<char, std::__ndk1::char_traits<char>, std::__ndk1::allocator<char> > const&)>::operator()(std::__ndk1::basic_string<char, std::__ndk1::char_traits<char>, std::__ndk1::allocator<char> > const&)
FUNC 270d8 18 0 std::__ndk1::__function::__func<Tab3::init()::$_17, std::__ndk1::allocator<Tab3::init()::$_17>, void (std::__ndk1::basic_string<char, std::__ndk1::char_traits<char>, std::__ndk1::allocator<char> > const&)>::target(std::type_info const&) const
FUNC 270f0 c 0 std::__ndk1::__function::__func<Tab3::init()::$_17, std::__ndk1::allocator<Tab3::init()::$_17>, void (std::__ndk1::basic_string<char, std::__ndk1::char_traits<char>, std::__ndk1::allocator<char> > const&)>::target_type() const
FUNC 270fc 4 0 std::__ndk1::__function::__func<Tab3::init()::$_18, std::__ndk1::allocator<Tab3::init()::$_18>, void (std::__ndk1::basic_string<char, std::__ndk1::char_traits<char>, std::__ndk1::allocator<char> > const&)>::~__func()
FUNC 27100 20 0 std::__ndk1::__function::__func<Tab3::init()::$_18, std::__ndk1::allocator<Tab3::init()::$_18>, void (std::__ndk1::basic_string<char, std::__ndk1::char_traits<char>, std::__ndk1::allocator<char> > const&)>::__clone() const
FUNC 27120 14 0 std::__ndk1::__function::__func<Tab3::init()::$_18, std::__ndk1::allocator<Tab3::init()::$_18>, void (std::__ndk1::basic_string<char, std::__ndk1::char_traits<char>, std::__ndk1::allocator<char> > const&)>::__clone(std::__ndk1::__function::__base<void (std::__ndk1::basic_string<char, std::__ndk1::char_traits<char>, std::__ndk1::allocator<char> > const&)>*) const
FUNC 27134 2 0 std::__ndk1::__function::__func<Tab3::init()::$_18, std::__ndk1::allocator<Tab3::init()::$_18>, void (std::__ndk1::basic_string<char, std::__ndk1::char_traits<char>, std::__ndk1::allocator<char> > const&)>::destroy()
FUNC 27136 4 0 std::__ndk1::__function::__func<Tab3::init()::$_18, std::__ndk1::allocator<Tab3::init()::$_18>, void (std::__ndk1::basic_string<char, std::__ndk1::char_traits<char>, std::__ndk1::allocator<char> > const&)>::destroy_deallocate()
FUNC 2713c 68 0 std::__ndk1::__function::__func<Tab3::init()::$_18, std::__ndk1::allocator<Tab3::init()::$_18>, void (std::__ndk1::basic_string<char, std::__ndk1::char_traits<char>, std::__ndk1::allocator<char> > const&)>::operator()(std::__ndk1::basic_string<char, std::__ndk1::char_traits<char>, std::__ndk1::allocator<char> > const&)
FUNC 271a4 18 0 std::__ndk1::__function::__func<Tab3::init()::$_18, std::__ndk1::allocator<Tab3::init()::$_18>, void (std::__ndk1::basic_string<char, std::__ndk1::char_traits<char>, std::__ndk1::allocator<char> > const&)>::target(std::type_info const&) const
FUNC 271bc c 0 std::__ndk1::__function::__func<Tab3::init()::$_18, std::__ndk1::allocator<Tab3::init()::$_18>, void (std::__ndk1::basic_string<char, std::__ndk1::char_traits<char>, std::__ndk1::allocator<char> > const&)>::target_type() const
FUNC 271c8 4 0 std::__ndk1::__function::__func<Tab3::init()::$_19, std::__ndk1::allocator<Tab3::init()::$_19>, void (std::__ndk1::basic_string<char, std::__ndk1::char_traits<char>, std::__ndk1::allocator<char> > const&)>::~__func()
FUNC 271cc 20 0 std::__ndk1::__function::__func<Tab3::init()::$_19, std::__ndk1::allocator<Tab3::init()::$_19>, void (std::__ndk1::basic_string<char, std::__ndk1::char_traits<char>, std::__ndk1::allocator<char> > const&)>::__clone() const
FUNC 271ec 14 0 std::__ndk1::__function::__func<Tab3::init()::$_19, std::__ndk1::allocator<Tab3::init()::$_19>, void (std::__ndk1::basic_string<char, std::__ndk1::char_traits<char>, std::__ndk1::allocator<char> > const&)>::__clone(std::__ndk1::__function::__base<void (std::__ndk1::basic_string<char, std::__ndk1::char_traits<char>, std::__ndk1::allocator<char> > const&)>*) const
FUNC 27200 2 0 std::__ndk1::__function::__func<Tab3::init()::$_19, std::__ndk1::allocator<Tab3::init()::$_19>, void (std::__ndk1::basic_string<char, std::__ndk1::char_traits<char>, std::__ndk1::allocator<char> > const&)>::destroy()
FUNC 27202 4 0 std::__ndk1::__function::__func<Tab3::init()::$_19, std::__ndk1::allocator<Tab3::init()::$_19>, void (std::__ndk1::basic_string<char, std::__ndk1::char_traits<char>, std::__ndk1::allocator<char> > const&)>::destroy_deallocate()
FUNC 27208 68 0 std::__ndk1::__function::__func<Tab3::init()::$_19, std::__ndk1::allocator<Tab3::init()::$_19>, void (std::__ndk1::basic_string<char, std::__ndk1::char_traits<char>, std::__ndk1::allocator<char> > const&)>::operator()(std::__ndk1::basic_string<char, std::__ndk1::char_traits<char>, std::__ndk1::allocator<char> > const&)
FUNC 27270 18 0 std::__ndk1::__function::__func<Tab3::init()::$_19, std::__ndk1::allocator<Tab3::init()::$_19>, void (std::__ndk1::basic_string<char, std::__ndk1::char_traits<char>, std::__ndk1::allocator<char> > const&)>::target(std::type_info const&) const
FUNC 27288 c 0 std::__ndk1::__function::__func<Tab3::init()::$_19, std::__ndk1::allocator<Tab3::init()::$_19>, void (std::__ndk1::basic_string<char, std::__ndk1::char_traits<char>, std::__ndk1::allocator<char> > const&)>::target_type() const
FUNC 27294 1f70 0 Tab4::init()
FUNC 29204 88 0 Tab4::SaveCheckbox(cocos2d::CCObject*)
FUNC 2928c 88 0 Tab4::SaveCheckbox2(cocos2d::CCObject*)
FUNC 29314 88 0 Tab4::SaveCheckbox3(cocos2d::CCObject*)
FUNC 2939c 88 0 Tab4::SaveCheckbox4(cocos2d::CCObject*)
FUNC 29424 88 0 Tab4::SaveCheckbox5(cocos2d::CCObject*)
FUNC 294ac 88 0 Tab4::SaveCheckbox6(cocos2d::CCObject*)
FUNC 29534 88 0 Tab4::SaveCheckbox7(cocos2d::CCObject*)
FUNC 295bc 88 0 Tab4::SaveCheckbox8(cocos2d::CCObject*)
FUNC 29644 88 0 Tab4::SaveCheckbox9(cocos2d::CCObject*)
FUNC 296cc 88 0 Tab4::SaveCheckbox10(cocos2d::CCObject*)
FUNC 29754 74 0 Tab4::create()
FUNC 297c8 10 0 Tab4::~Tab4()
FUNC 297d8 8 0 {virtual override thunk({offset(-264)}, Tab4::~Tab4())}
FUNC 297e0 14 0 {virtual override thunk({offset(-264)}, Tab4::~Tab4())}
FUNC 297f4 4 0 std::__ndk1::__function::__func<Tab4::init()::$_0, std::__ndk1::allocator<Tab4::init()::$_0>, void (std::__ndk1::basic_string<char, std::__ndk1::char_traits<char>, std::__ndk1::allocator<char> > const&)>::~__func()
FUNC 297f8 20 0 std::__ndk1::__function::__func<Tab4::init()::$_0, std::__ndk1::allocator<Tab4::init()::$_0>, void (std::__ndk1::basic_string<char, std::__ndk1::char_traits<char>, std::__ndk1::allocator<char> > const&)>::__clone() const
FUNC 29818 14 0 std::__ndk1::__function::__func<Tab4::init()::$_0, std::__ndk1::allocator<Tab4::init()::$_0>, void (std::__ndk1::basic_string<char, std::__ndk1::char_traits<char>, std::__ndk1::allocator<char> > const&)>::__clone(std::__ndk1::__function::__base<void (std::__ndk1::basic_string<char, std::__ndk1::char_traits<char>, std::__ndk1::allocator<char> > const&)>*) const
FUNC 2982c 2 0 std::__ndk1::__function::__func<Tab4::init()::$_0, std::__ndk1::allocator<Tab4::init()::$_0>, void (std::__ndk1::basic_string<char, std::__ndk1::char_traits<char>, std::__ndk1::allocator<char> > const&)>::destroy()
FUNC 2982e 4 0 std::__ndk1::__function::__func<Tab4::init()::$_0, std::__ndk1::allocator<Tab4::init()::$_0>, void (std::__ndk1::basic_string<char, std::__ndk1::char_traits<char>, std::__ndk1::allocator<char> > const&)>::destroy_deallocate()
FUNC 29834 68 0 std::__ndk1::__function::__func<Tab4::init()::$_0, std::__ndk1::allocator<Tab4::init()::$_0>, void (std::__ndk1::basic_string<char, std::__ndk1::char_traits<char>, std::__ndk1::allocator<char> > const&)>::operator()(std::__ndk1::basic_string<char, std::__ndk1::char_traits<char>, std::__ndk1::allocator<char> > const&)
FUNC 2989c 18 0 std::__ndk1::__function::__func<Tab4::init()::$_0, std::__ndk1::allocator<Tab4::init()::$_0>, void (std::__ndk1::basic_string<char, std::__ndk1::char_traits<char>, std::__ndk1::allocator<char> > const&)>::target(std::type_info const&) const
FUNC 298b4 c 0 std::__ndk1::__function::__func<Tab4::init()::$_0, std::__ndk1::allocator<Tab4::init()::$_0>, void (std::__ndk1::basic_string<char, std::__ndk1::char_traits<char>, std::__ndk1::allocator<char> > const&)>::target_type() const
FUNC 298c0 4 0 std::__ndk1::__function::__func<Tab4::init()::$_1, std::__ndk1::allocator<Tab4::init()::$_1>, void (std::__ndk1::basic_string<char, std::__ndk1::char_traits<char>, std::__ndk1::allocator<char> > const&)>::~__func()
FUNC 298c4 20 0 std::__ndk1::__function::__func<Tab4::init()::$_1, std::__ndk1::allocator<Tab4::init()::$_1>, void (std::__ndk1::basic_string<char, std::__ndk1::char_traits<char>, std::__ndk1::allocator<char> > const&)>::__clone() const
FUNC 298e4 14 0 std::__ndk1::__function::__func<Tab4::init()::$_1, std::__ndk1::allocator<Tab4::init()::$_1>, void (std::__ndk1::basic_string<char, std::__ndk1::char_traits<char>, std::__ndk1::allocator<char> > const&)>::__clone(std::__ndk1::__function::__base<void (std::__ndk1::basic_string<char, std::__ndk1::char_traits<char>, std::__ndk1::allocator<char> > const&)>*) const
FUNC 298f8 2 0 std::__ndk1::__function::__func<Tab4::init()::$_1, std::__ndk1::allocator<Tab4::init()::$_1>, void (std::__ndk1::basic_string<char, std::__ndk1::char_traits<char>, std::__ndk1::allocator<char> > const&)>::destroy()
FUNC 298fa 4 0 std::__ndk1::__function::__func<Tab4::init()::$_1, std::__ndk1::allocator<Tab4::init()::$_1>, void (std::__ndk1::basic_string<char, std::__ndk1::char_traits<char>, std::__ndk1::allocator<char> > const&)>::destroy_deallocate()
FUNC 29900 68 0 std::__ndk1::__function::__func<Tab4::init()::$_1, std::__ndk1::allocator<Tab4::init()::$_1>, void (std::__ndk1::basic_string<char, std::__ndk1::char_traits<char>, std::__ndk1::allocator<char> > const&)>::operator()(std::__ndk1::basic_string<char, std::__ndk1::char_traits<char>, std::__ndk1::allocator<char> > const&)
FUNC 29968 18 0 std::__ndk1::__function::__func<Tab4::init()::$_1, std::__ndk1::allocator<Tab4::init()::$_1>, void (std::__ndk1::basic_string<char, std::__ndk1::char_traits<char>, std::__ndk1::allocator<char> > const&)>::target(std::type_info const&) const
FUNC 29980 c 0 std::__ndk1::__function::__func<Tab4::init()::$_1, std::__ndk1::allocator<Tab4::init()::$_1>, void (std::__ndk1::basic_string<char, std::__ndk1::char_traits<char>, std::__ndk1::allocator<char> > const&)>::target_type() const
FUNC 2998c 4 0 std::__ndk1::__function::__func<Tab4::init()::$_2, std::__ndk1::allocator<Tab4::init()::$_2>, void (std::__ndk1::basic_string<char, std::__ndk1::char_traits<char>, std::__ndk1::allocator<char> > const&)>::~__func()
FUNC 29990 20 0 std::__ndk1::__function::__func<Tab4::init()::$_2, std::__ndk1::allocator<Tab4::init()::$_2>, void (std::__ndk1::basic_string<char, std::__ndk1::char_traits<char>, std::__ndk1::allocator<char> > const&)>::__clone() const
FUNC 299b0 14 0 std::__ndk1::__function::__func<Tab4::init()::$_2, std::__ndk1::allocator<Tab4::init()::$_2>, void (std::__ndk1::basic_string<char, std::__ndk1::char_traits<char>, std::__ndk1::allocator<char> > const&)>::__clone(std::__ndk1::__function::__base<void (std::__ndk1::basic_string<char, std::__ndk1::char_traits<char>, std::__ndk1::allocator<char> > const&)>*) const
FUNC 299c4 2 0 std::__ndk1::__function::__func<Tab4::init()::$_2, std::__ndk1::allocator<Tab4::init()::$_2>, void (std::__ndk1::basic_string<char, std::__ndk1::char_traits<char>, std::__ndk1::allocator<char> > const&)>::destroy()
FUNC 299c6 4 0 std::__ndk1::__function::__func<Tab4::init()::$_2, std::__ndk1::allocator<Tab4::init()::$_2>, void (std::__ndk1::basic_string<char, std::__ndk1::char_traits<char>, std::__ndk1::allocator<char> > const&)>::destroy_deallocate()
FUNC 299cc 68 0 std::__ndk1::__function::__func<Tab4::init()::$_2, std::__ndk1::allocator<Tab4::init()::$_2>, void (std::__ndk1::basic_string<char, std::__ndk1::char_traits<char>, std::__ndk1::allocator<char> > const&)>::operator()(std::__ndk1::basic_string<char, std::__ndk1::char_traits<char>, std::__ndk1::allocator<char> > const&)
FUNC 29a34 18 0 std::__ndk1::__function::__func<Tab4::init()::$_2, std::__ndk1::allocator<Tab4::init()::$_2>, void (std::__ndk1::basic_string<char, std::__ndk1::char_traits<char>, std::__ndk1::allocator<char> > const&)>::target(std::type_info const&) const
FUNC 29a4c c 0 std::__ndk1::__function::__func<Tab4::init()::$_2, std::__ndk1::allocator<Tab4::init()::$_2>, void (std::__ndk1::basic_string<char, std::__ndk1::char_traits<char>, std::__ndk1::allocator<char> > const&)>::target_type() const
FUNC 29a58 4 0 std::__ndk1::__function::__func<Tab4::init()::$_3, std::__ndk1::allocator<Tab4::init()::$_3>, void (std::__ndk1::basic_string<char, std::__ndk1::char_traits<char>, std::__ndk1::allocator<char> > const&)>::~__func()
FUNC 29a5c 20 0 std::__ndk1::__function::__func<Tab4::init()::$_3, std::__ndk1::allocator<Tab4::init()::$_3>, void (std::__ndk1::basic_string<char, std::__ndk1::char_traits<char>, std::__ndk1::allocator<char> > const&)>::__clone() const
FUNC 29a7c 14 0 std::__ndk1::__function::__func<Tab4::init()::$_3, std::__ndk1::allocator<Tab4::init()::$_3>, void (std::__ndk1::basic_string<char, std::__ndk1::char_traits<char>, std::__ndk1::allocator<char> > const&)>::__clone(std::__ndk1::__function::__base<void (std::__ndk1::basic_string<char, std::__ndk1::char_traits<char>, std::__ndk1::allocator<char> > const&)>*) const
FUNC 29a90 2 0 std::__ndk1::__function::__func<Tab4::init()::$_3, std::__ndk1::allocator<Tab4::init()::$_3>, void (std::__ndk1::basic_string<char, std::__ndk1::char_traits<char>, std::__ndk1::allocator<char> > const&)>::destroy()
FUNC 29a92 4 0 std::__ndk1::__function::__func<Tab4::init()::$_3, std::__ndk1::allocator<Tab4::init()::$_3>, void (std::__ndk1::basic_string<char, std::__ndk1::char_traits<char>, std::__ndk1::allocator<char> > const&)>::destroy_deallocate()
FUNC 29a98 68 0 std::__ndk1::__function::__func<Tab4::init()::$_3, std::__ndk1::allocator<Tab4::init()::$_3>, void (std::__ndk1::basic_string<char, std::__ndk1::char_traits<char>, std::__ndk1::allocator<char> > const&)>::operator()(std::__ndk1::basic_string<char, std::__ndk1::char_traits<char>, std::__ndk1::allocator<char> > const&)
FUNC 29b00 18 0 std::__ndk1::__function::__func<Tab4::init()::$_3, std::__ndk1::allocator<Tab4::init()::$_3>, void (std::__ndk1::basic_string<char, std::__ndk1::char_traits<char>, std::__ndk1::allocator<char> > const&)>::target(std::type_info const&) const
FUNC 29b18 c 0 std::__ndk1::__function::__func<Tab4::init()::$_3, std::__ndk1::allocator<Tab4::init()::$_3>, void (std::__ndk1::basic_string<char, std::__ndk1::char_traits<char>, std::__ndk1::allocator<char> > const&)>::target_type() const
FUNC 29b24 4 0 std::__ndk1::__function::__func<Tab4::init()::$_4, std::__ndk1::allocator<Tab4::init()::$_4>, void (std::__ndk1::basic_string<char, std::__ndk1::char_traits<char>, std::__ndk1::allocator<char> > const&)>::~__func()
FUNC 29b28 20 0 std::__ndk1::__function::__func<Tab4::init()::$_4, std::__ndk1::allocator<Tab4::init()::$_4>, void (std::__ndk1::basic_string<char, std::__ndk1::char_traits<char>, std::__ndk1::allocator<char> > const&)>::__clone() const
FUNC 29b48 14 0 std::__ndk1::__function::__func<Tab4::init()::$_4, std::__ndk1::allocator<Tab4::init()::$_4>, void (std::__ndk1::basic_string<char, std::__ndk1::char_traits<char>, std::__ndk1::allocator<char> > const&)>::__clone(std::__ndk1::__function::__base<void (std::__ndk1::basic_string<char, std::__ndk1::char_traits<char>, std::__ndk1::allocator<char> > const&)>*) const
FUNC 29b5c 2 0 std::__ndk1::__function::__func<Tab4::init()::$_4, std::__ndk1::allocator<Tab4::init()::$_4>, void (std::__ndk1::basic_string<char, std::__ndk1::char_traits<char>, std::__ndk1::allocator<char> > const&)>::destroy()
FUNC 29b5e 4 0 std::__ndk1::__function::__func<Tab4::init()::$_4, std::__ndk1::allocator<Tab4::init()::$_4>, void (std::__ndk1::basic_string<char, std::__ndk1::char_traits<char>, std::__ndk1::allocator<char> > const&)>::destroy_deallocate()
FUNC 29b64 68 0 std::__ndk1::__function::__func<Tab4::init()::$_4, std::__ndk1::allocator<Tab4::init()::$_4>, void (std::__ndk1::basic_string<char, std::__ndk1::char_traits<char>, std::__ndk1::allocator<char> > const&)>::operator()(std::__ndk1::basic_string<char, std::__ndk1::char_traits<char>, std::__ndk1::allocator<char> > const&)
FUNC 29bcc 18 0 std::__ndk1::__function::__func<Tab4::init()::$_4, std::__ndk1::allocator<Tab4::init()::$_4>, void (std::__ndk1::basic_string<char, std::__ndk1::char_traits<char>, std::__ndk1::allocator<char> > const&)>::target(std::type_info const&) const
FUNC 29be4 c 0 std::__ndk1::__function::__func<Tab4::init()::$_4, std::__ndk1::allocator<Tab4::init()::$_4>, void (std::__ndk1::basic_string<char, std::__ndk1::char_traits<char>, std::__ndk1::allocator<char> > const&)>::target_type() const
FUNC 29bf0 4 0 std::__ndk1::__function::__func<Tab4::init()::$_5, std::__ndk1::allocator<Tab4::init()::$_5>, void (std::__ndk1::basic_string<char, std::__ndk1::char_traits<char>, std::__ndk1::allocator<char> > const&)>::~__func()
FUNC 29bf4 20 0 std::__ndk1::__function::__func<Tab4::init()::$_5, std::__ndk1::allocator<Tab4::init()::$_5>, void (std::__ndk1::basic_string<char, std::__ndk1::char_traits<char>, std::__ndk1::allocator<char> > const&)>::__clone() const
FUNC 29c14 14 0 std::__ndk1::__function::__func<Tab4::init()::$_5, std::__ndk1::allocator<Tab4::init()::$_5>, void (std::__ndk1::basic_string<char, std::__ndk1::char_traits<char>, std::__ndk1::allocator<char> > const&)>::__clone(std::__ndk1::__function::__base<void (std::__ndk1::basic_string<char, std::__ndk1::char_traits<char>, std::__ndk1::allocator<char> > const&)>*) const
FUNC 29c28 2 0 std::__ndk1::__function::__func<Tab4::init()::$_5, std::__ndk1::allocator<Tab4::init()::$_5>, void (std::__ndk1::basic_string<char, std::__ndk1::char_traits<char>, std::__ndk1::allocator<char> > const&)>::destroy()
FUNC 29c2a 4 0 std::__ndk1::__function::__func<Tab4::init()::$_5, std::__ndk1::allocator<Tab4::init()::$_5>, void (std::__ndk1::basic_string<char, std::__ndk1::char_traits<char>, std::__ndk1::allocator<char> > const&)>::destroy_deallocate()
FUNC 29c30 68 0 std::__ndk1::__function::__func<Tab4::init()::$_5, std::__ndk1::allocator<Tab4::init()::$_5>, void (std::__ndk1::basic_string<char, std::__ndk1::char_traits<char>, std::__ndk1::allocator<char> > const&)>::operator()(std::__ndk1::basic_string<char, std::__ndk1::char_traits<char>, std::__ndk1::allocator<char> > const&)
FUNC 29c98 18 0 std::__ndk1::__function::__func<Tab4::init()::$_5, std::__ndk1::allocator<Tab4::init()::$_5>, void (std::__ndk1::basic_string<char, std::__ndk1::char_traits<char>, std::__ndk1::allocator<char> > const&)>::target(std::type_info const&) const
FUNC 29cb0 c 0 std::__ndk1::__function::__func<Tab4::init()::$_5, std::__ndk1::allocator<Tab4::init()::$_5>, void (std::__ndk1::basic_string<char, std::__ndk1::char_traits<char>, std::__ndk1::allocator<char> > const&)>::target_type() const
FUNC 29cbc 4 0 std::__ndk1::__function::__func<Tab4::init()::$_6, std::__ndk1::allocator<Tab4::init()::$_6>, void (std::__ndk1::basic_string<char, std::__ndk1::char_traits<char>, std::__ndk1::allocator<char> > const&)>::~__func()
FUNC 29cc0 20 0 std::__ndk1::__function::__func<Tab4::init()::$_6, std::__ndk1::allocator<Tab4::init()::$_6>, void (std::__ndk1::basic_string<char, std::__ndk1::char_traits<char>, std::__ndk1::allocator<char> > const&)>::__clone() const
FUNC 29ce0 14 0 std::__ndk1::__function::__func<Tab4::init()::$_6, std::__ndk1::allocator<Tab4::init()::$_6>, void (std::__ndk1::basic_string<char, std::__ndk1::char_traits<char>, std::__ndk1::allocator<char> > const&)>::__clone(std::__ndk1::__function::__base<void (std::__ndk1::basic_string<char, std::__ndk1::char_traits<char>, std::__ndk1::allocator<char> > const&)>*) const
FUNC 29cf4 2 0 std::__ndk1::__function::__func<Tab4::init()::$_6, std::__ndk1::allocator<Tab4::init()::$_6>, void (std::__ndk1::basic_string<char, std::__ndk1::char_traits<char>, std::__ndk1::allocator<char> > const&)>::destroy()
FUNC 29cf6 4 0 std::__ndk1::__function::__func<Tab4::init()::$_6, std::__ndk1::allocator<Tab4::init()::$_6>, void (std::__ndk1::basic_string<char, std::__ndk1::char_traits<char>, std::__ndk1::allocator<char> > const&)>::destroy_deallocate()
FUNC 29cfc 68 0 std::__ndk1::__function::__func<Tab4::init()::$_6, std::__ndk1::allocator<Tab4::init()::$_6>, void (std::__ndk1::basic_string<char, std::__ndk1::char_traits<char>, std::__ndk1::allocator<char> > const&)>::operator()(std::__ndk1::basic_string<char, std::__ndk1::char_traits<char>, std::__ndk1::allocator<char> > const&)
FUNC 29d64 18 0 std::__ndk1::__function::__func<Tab4::init()::$_6, std::__ndk1::allocator<Tab4::init()::$_6>, void (std::__ndk1::basic_string<char, std::__ndk1::char_traits<char>, std::__ndk1::allocator<char> > const&)>::target(std::type_info const&) const
FUNC 29d7c c 0 std::__ndk1::__function::__func<Tab4::init()::$_6, std::__ndk1::allocator<Tab4::init()::$_6>, void (std::__ndk1::basic_string<char, std::__ndk1::char_traits<char>, std::__ndk1::allocator<char> > const&)>::target_type() const
FUNC 29d88 4 0 std::__ndk1::__function::__func<Tab4::init()::$_7, std::__ndk1::allocator<Tab4::init()::$_7>, void (std::__ndk1::basic_string<char, std::__ndk1::char_traits<char>, std::__ndk1::allocator<char> > const&)>::~__func()
FUNC 29d8c 20 0 std::__ndk1::__function::__func<Tab4::init()::$_7, std::__ndk1::allocator<Tab4::init()::$_7>, void (std::__ndk1::basic_string<char, std::__ndk1::char_traits<char>, std::__ndk1::allocator<char> > const&)>::__clone() const
FUNC 29dac 14 0 std::__ndk1::__function::__func<Tab4::init()::$_7, std::__ndk1::allocator<Tab4::init()::$_7>, void (std::__ndk1::basic_string<char, std::__ndk1::char_traits<char>, std::__ndk1::allocator<char> > const&)>::__clone(std::__ndk1::__function::__base<void (std::__ndk1::basic_string<char, std::__ndk1::char_traits<char>, std::__ndk1::allocator<char> > const&)>*) const
FUNC 29dc0 2 0 std::__ndk1::__function::__func<Tab4::init()::$_7, std::__ndk1::allocator<Tab4::init()::$_7>, void (std::__ndk1::basic_string<char, std::__ndk1::char_traits<char>, std::__ndk1::allocator<char> > const&)>::destroy()
FUNC 29dc2 4 0 std::__ndk1::__function::__func<Tab4::init()::$_7, std::__ndk1::allocator<Tab4::init()::$_7>, void (std::__ndk1::basic_string<char, std::__ndk1::char_traits<char>, std::__ndk1::allocator<char> > const&)>::destroy_deallocate()
FUNC 29dc8 68 0 std::__ndk1::__function::__func<Tab4::init()::$_7, std::__ndk1::allocator<Tab4::init()::$_7>, void (std::__ndk1::basic_string<char, std::__ndk1::char_traits<char>, std::__ndk1::allocator<char> > const&)>::operator()(std::__ndk1::basic_string<char, std::__ndk1::char_traits<char>, std::__ndk1::allocator<char> > const&)
FUNC 29e30 18 0 std::__ndk1::__function::__func<Tab4::init()::$_7, std::__ndk1::allocator<Tab4::init()::$_7>, void (std::__ndk1::basic_string<char, std::__ndk1::char_traits<char>, std::__ndk1::allocator<char> > const&)>::target(std::type_info const&) const
FUNC 29e48 c 0 std::__ndk1::__function::__func<Tab4::init()::$_7, std::__ndk1::allocator<Tab4::init()::$_7>, void (std::__ndk1::basic_string<char, std::__ndk1::char_traits<char>, std::__ndk1::allocator<char> > const&)>::target_type() const
FUNC 29e54 4 0 std::__ndk1::__function::__func<Tab4::init()::$_8, std::__ndk1::allocator<Tab4::init()::$_8>, void (std::__ndk1::basic_string<char, std::__ndk1::char_traits<char>, std::__ndk1::allocator<char> > const&)>::~__func()
FUNC 29e58 20 0 std::__ndk1::__function::__func<Tab4::init()::$_8, std::__ndk1::allocator<Tab4::init()::$_8>, void (std::__ndk1::basic_string<char, std::__ndk1::char_traits<char>, std::__ndk1::allocator<char> > const&)>::__clone() const
FUNC 29e78 14 0 std::__ndk1::__function::__func<Tab4::init()::$_8, std::__ndk1::allocator<Tab4::init()::$_8>, void (std::__ndk1::basic_string<char, std::__ndk1::char_traits<char>, std::__ndk1::allocator<char> > const&)>::__clone(std::__ndk1::__function::__base<void (std::__ndk1::basic_string<char, std::__ndk1::char_traits<char>, std::__ndk1::allocator<char> > const&)>*) const
FUNC 29e8c 2 0 std::__ndk1::__function::__func<Tab4::init()::$_8, std::__ndk1::allocator<Tab4::init()::$_8>, void (std::__ndk1::basic_string<char, std::__ndk1::char_traits<char>, std::__ndk1::allocator<char> > const&)>::destroy()
FUNC 29e8e 4 0 std::__ndk1::__function::__func<Tab4::init()::$_8, std::__ndk1::allocator<Tab4::init()::$_8>, void (std::__ndk1::basic_string<char, std::__ndk1::char_traits<char>, std::__ndk1::allocator<char> > const&)>::destroy_deallocate()
FUNC 29e94 68 0 std::__ndk1::__function::__func<Tab4::init()::$_8, std::__ndk1::allocator<Tab4::init()::$_8>, void (std::__ndk1::basic_string<char, std::__ndk1::char_traits<char>, std::__ndk1::allocator<char> > const&)>::operator()(std::__ndk1::basic_string<char, std::__ndk1::char_traits<char>, std::__ndk1::allocator<char> > const&)
FUNC 29efc 18 0 std::__ndk1::__function::__func<Tab4::init()::$_8, std::__ndk1::allocator<Tab4::init()::$_8>, void (std::__ndk1::basic_string<char, std::__ndk1::char_traits<char>, std::__ndk1::allocator<char> > const&)>::target(std::type_info const&) const
FUNC 29f14 c 0 std::__ndk1::__function::__func<Tab4::init()::$_8, std::__ndk1::allocator<Tab4::init()::$_8>, void (std::__ndk1::basic_string<char, std::__ndk1::char_traits<char>, std::__ndk1::allocator<char> > const&)>::target_type() const
FUNC 29f20 4 0 std::__ndk1::__function::__func<Tab4::init()::$_9, std::__ndk1::allocator<Tab4::init()::$_9>, void (std::__ndk1::basic_string<char, std::__ndk1::char_traits<char>, std::__ndk1::allocator<char> > const&)>::~__func()
FUNC 29f24 20 0 std::__ndk1::__function::__func<Tab4::init()::$_9, std::__ndk1::allocator<Tab4::init()::$_9>, void (std::__ndk1::basic_string<char, std::__ndk1::char_traits<char>, std::__ndk1::allocator<char> > const&)>::__clone() const
FUNC 29f44 14 0 std::__ndk1::__function::__func<Tab4::init()::$_9, std::__ndk1::allocator<Tab4::init()::$_9>, void (std::__ndk1::basic_string<char, std::__ndk1::char_traits<char>, std::__ndk1::allocator<char> > const&)>::__clone(std::__ndk1::__function::__base<void (std::__ndk1::basic_string<char, std::__ndk1::char_traits<char>, std::__ndk1::allocator<char> > const&)>*) const
FUNC 29f58 2 0 std::__ndk1::__function::__func<Tab4::init()::$_9, std::__ndk1::allocator<Tab4::init()::$_9>, void (std::__ndk1::basic_string<char, std::__ndk1::char_traits<char>, std::__ndk1::allocator<char> > const&)>::destroy()
FUNC 29f5a 4 0 std::__ndk1::__function::__func<Tab4::init()::$_9, std::__ndk1::allocator<Tab4::init()::$_9>, void (std::__ndk1::basic_string<char, std::__ndk1::char_traits<char>, std::__ndk1::allocator<char> > const&)>::destroy_deallocate()
FUNC 29f60 68 0 std::__ndk1::__function::__func<Tab4::init()::$_9, std::__ndk1::allocator<Tab4::init()::$_9>, void (std::__ndk1::basic_string<char, std::__ndk1::char_traits<char>, std::__ndk1::allocator<char> > const&)>::operator()(std::__ndk1::basic_string<char, std::__ndk1::char_traits<char>, std::__ndk1::allocator<char> > const&)
FUNC 29fc8 18 0 std::__ndk1::__function::__func<Tab4::init()::$_9, std::__ndk1::allocator<Tab4::init()::$_9>, void (std::__ndk1::basic_string<char, std::__ndk1::char_traits<char>, std::__ndk1::allocator<char> > const&)>::target(std::type_info const&) const
FUNC 29fe0 c 0 std::__ndk1::__function::__func<Tab4::init()::$_9, std::__ndk1::allocator<Tab4::init()::$_9>, void (std::__ndk1::basic_string<char, std::__ndk1::char_traits<char>, std::__ndk1::allocator<char> > const&)>::target_type() const
FUNC 29fec 4 0 std::__ndk1::__function::__func<Tab4::init()::$_10, std::__ndk1::allocator<Tab4::init()::$_10>, void (std::__ndk1::basic_string<char, std::__ndk1::char_traits<char>, std::__ndk1::allocator<char> > const&)>::~__func()
FUNC 29ff0 20 0 std::__ndk1::__function::__func<Tab4::init()::$_10, std::__ndk1::allocator<Tab4::init()::$_10>, void (std::__ndk1::basic_string<char, std::__ndk1::char_traits<char>, std::__ndk1::allocator<char> > const&)>::__clone() const
FUNC 2a010 14 0 std::__ndk1::__function::__func<Tab4::init()::$_10, std::__ndk1::allocator<Tab4::init()::$_10>, void (std::__ndk1::basic_string<char, std::__ndk1::char_traits<char>, std::__ndk1::allocator<char> > const&)>::__clone(std::__ndk1::__function::__base<void (std::__ndk1::basic_string<char, std::__ndk1::char_traits<char>, std::__ndk1::allocator<char> > const&)>*) const
FUNC 2a024 2 0 std::__ndk1::__function::__func<Tab4::init()::$_10, std::__ndk1::allocator<Tab4::init()::$_10>, void (std::__ndk1::basic_string<char, std::__ndk1::char_traits<char>, std::__ndk1::allocator<char> > const&)>::destroy()
FUNC 2a026 4 0 std::__ndk1::__function::__func<Tab4::init()::$_10, std::__ndk1::allocator<Tab4::init()::$_10>, void (std::__ndk1::basic_string<char, std::__ndk1::char_traits<char>, std::__ndk1::allocator<char> > const&)>::destroy_deallocate()
FUNC 2a02c 68 0 std::__ndk1::__function::__func<Tab4::init()::$_10, std::__ndk1::allocator<Tab4::init()::$_10>, void (std::__ndk1::basic_string<char, std::__ndk1::char_traits<char>, std::__ndk1::allocator<char> > const&)>::operator()(std::__ndk1::basic_string<char, std::__ndk1::char_traits<char>, std::__ndk1::allocator<char> > const&)
FUNC 2a094 18 0 std::__ndk1::__function::__func<Tab4::init()::$_10, std::__ndk1::allocator<Tab4::init()::$_10>, void (std::__ndk1::basic_string<char, std::__ndk1::char_traits<char>, std::__ndk1::allocator<char> > const&)>::target(std::type_info const&) const
FUNC 2a0ac c 0 std::__ndk1::__function::__func<Tab4::init()::$_10, std::__ndk1::allocator<Tab4::init()::$_10>, void (std::__ndk1::basic_string<char, std::__ndk1::char_traits<char>, std::__ndk1::allocator<char> > const&)>::target_type() const
FUNC 2a0b8 4 0 std::__ndk1::__function::__func<Tab4::init()::$_11, std::__ndk1::allocator<Tab4::init()::$_11>, void (std::__ndk1::basic_string<char, std::__ndk1::char_traits<char>, std::__ndk1::allocator<char> > const&)>::~__func()
FUNC 2a0bc 20 0 std::__ndk1::__function::__func<Tab4::init()::$_11, std::__ndk1::allocator<Tab4::init()::$_11>, void (std::__ndk1::basic_string<char, std::__ndk1::char_traits<char>, std::__ndk1::allocator<char> > const&)>::__clone() const
FUNC 2a0dc 14 0 std::__ndk1::__function::__func<Tab4::init()::$_11, std::__ndk1::allocator<Tab4::init()::$_11>, void (std::__ndk1::basic_string<char, std::__ndk1::char_traits<char>, std::__ndk1::allocator<char> > const&)>::__clone(std::__ndk1::__function::__base<void (std::__ndk1::basic_string<char, std::__ndk1::char_traits<char>, std::__ndk1::allocator<char> > const&)>*) const
FUNC 2a0f0 2 0 std::__ndk1::__function::__func<Tab4::init()::$_11, std::__ndk1::allocator<Tab4::init()::$_11>, void (std::__ndk1::basic_string<char, std::__ndk1::char_traits<char>, std::__ndk1::allocator<char> > const&)>::destroy()
FUNC 2a0f2 4 0 std::__ndk1::__function::__func<Tab4::init()::$_11, std::__ndk1::allocator<Tab4::init()::$_11>, void (std::__ndk1::basic_string<char, std::__ndk1::char_traits<char>, std::__ndk1::allocator<char> > const&)>::destroy_deallocate()
FUNC 2a0f8 68 0 std::__ndk1::__function::__func<Tab4::init()::$_11, std::__ndk1::allocator<Tab4::init()::$_11>, void (std::__ndk1::basic_string<char, std::__ndk1::char_traits<char>, std::__ndk1::allocator<char> > const&)>::operator()(std::__ndk1::basic_string<char, std::__ndk1::char_traits<char>, std::__ndk1::allocator<char> > const&)
FUNC 2a160 18 0 std::__ndk1::__function::__func<Tab4::init()::$_11, std::__ndk1::allocator<Tab4::init()::$_11>, void (std::__ndk1::basic_string<char, std::__ndk1::char_traits<char>, std::__ndk1::allocator<char> > const&)>::target(std::type_info const&) const
FUNC 2a178 c 0 std::__ndk1::__function::__func<Tab4::init()::$_11, std::__ndk1::allocator<Tab4::init()::$_11>, void (std::__ndk1::basic_string<char, std::__ndk1::char_traits<char>, std::__ndk1::allocator<char> > const&)>::target_type() const
FUNC 2a184 4 0 std::__ndk1::__function::__func<Tab4::init()::$_12, std::__ndk1::allocator<Tab4::init()::$_12>, void (std::__ndk1::basic_string<char, std::__ndk1::char_traits<char>, std::__ndk1::allocator<char> > const&)>::~__func()
FUNC 2a188 20 0 std::__ndk1::__function::__func<Tab4::init()::$_12, std::__ndk1::allocator<Tab4::init()::$_12>, void (std::__ndk1::basic_string<char, std::__ndk1::char_traits<char>, std::__ndk1::allocator<char> > const&)>::__clone() const
FUNC 2a1a8 14 0 std::__ndk1::__function::__func<Tab4::init()::$_12, std::__ndk1::allocator<Tab4::init()::$_12>, void (std::__ndk1::basic_string<char, std::__ndk1::char_traits<char>, std::__ndk1::allocator<char> > const&)>::__clone(std::__ndk1::__function::__base<void (std::__ndk1::basic_string<char, std::__ndk1::char_traits<char>, std::__ndk1::allocator<char> > const&)>*) const
FUNC 2a1bc 2 0 std::__ndk1::__function::__func<Tab4::init()::$_12, std::__ndk1::allocator<Tab4::init()::$_12>, void (std::__ndk1::basic_string<char, std::__ndk1::char_traits<char>, std::__ndk1::allocator<char> > const&)>::destroy()
FUNC 2a1be 4 0 std::__ndk1::__function::__func<Tab4::init()::$_12, std::__ndk1::allocator<Tab4::init()::$_12>, void (std::__ndk1::basic_string<char, std::__ndk1::char_traits<char>, std::__ndk1::allocator<char> > const&)>::destroy_deallocate()
FUNC 2a1c4 68 0 std::__ndk1::__function::__func<Tab4::init()::$_12, std::__ndk1::allocator<Tab4::init()::$_12>, void (std::__ndk1::basic_string<char, std::__ndk1::char_traits<char>, std::__ndk1::allocator<char> > const&)>::operator()(std::__ndk1::basic_string<char, std::__ndk1::char_traits<char>, std::__ndk1::allocator<char> > const&)
FUNC 2a22c 18 0 std::__ndk1::__function::__func<Tab4::init()::$_12, std::__ndk1::allocator<Tab4::init()::$_12>, void (std::__ndk1::basic_string<char, std::__ndk1::char_traits<char>, std::__ndk1::allocator<char> > const&)>::target(std::type_info const&) const
FUNC 2a244 c 0 std::__ndk1::__function::__func<Tab4::init()::$_12, std::__ndk1::allocator<Tab4::init()::$_12>, void (std::__ndk1::basic_string<char, std::__ndk1::char_traits<char>, std::__ndk1::allocator<char> > const&)>::target_type() const
FUNC 2a250 4 0 std::__ndk1::__function::__func<Tab4::init()::$_13, std::__ndk1::allocator<Tab4::init()::$_13>, void (std::__ndk1::basic_string<char, std::__ndk1::char_traits<char>, std::__ndk1::allocator<char> > const&)>::~__func()
FUNC 2a254 20 0 std::__ndk1::__function::__func<Tab4::init()::$_13, std::__ndk1::allocator<Tab4::init()::$_13>, void (std::__ndk1::basic_string<char, std::__ndk1::char_traits<char>, std::__ndk1::allocator<char> > const&)>::__clone() const
FUNC 2a274 14 0 std::__ndk1::__function::__func<Tab4::init()::$_13, std::__ndk1::allocator<Tab4::init()::$_13>, void (std::__ndk1::basic_string<char, std::__ndk1::char_traits<char>, std::__ndk1::allocator<char> > const&)>::__clone(std::__ndk1::__function::__base<void (std::__ndk1::basic_string<char, std::__ndk1::char_traits<char>, std::__ndk1::allocator<char> > const&)>*) const
FUNC 2a288 2 0 std::__ndk1::__function::__func<Tab4::init()::$_13, std::__ndk1::allocator<Tab4::init()::$_13>, void (std::__ndk1::basic_string<char, std::__ndk1::char_traits<char>, std::__ndk1::allocator<char> > const&)>::destroy()
FUNC 2a28a 4 0 std::__ndk1::__function::__func<Tab4::init()::$_13, std::__ndk1::allocator<Tab4::init()::$_13>, void (std::__ndk1::basic_string<char, std::__ndk1::char_traits<char>, std::__ndk1::allocator<char> > const&)>::destroy_deallocate()
FUNC 2a290 68 0 std::__ndk1::__function::__func<Tab4::init()::$_13, std::__ndk1::allocator<Tab4::init()::$_13>, void (std::__ndk1::basic_string<char, std::__ndk1::char_traits<char>, std::__ndk1::allocator<char> > const&)>::operator()(std::__ndk1::basic_string<char, std::__ndk1::char_traits<char>, std::__ndk1::allocator<char> > const&)
FUNC 2a2f8 18 0 std::__ndk1::__function::__func<Tab4::init()::$_13, std::__ndk1::allocator<Tab4::init()::$_13>, void (std::__ndk1::basic_string<char, std::__ndk1::char_traits<char>, std::__ndk1::allocator<char> > const&)>::target(std::type_info const&) const
FUNC 2a310 c 0 std::__ndk1::__function::__func<Tab4::init()::$_13, std::__ndk1::allocator<Tab4::init()::$_13>, void (std::__ndk1::basic_string<char, std::__ndk1::char_traits<char>, std::__ndk1::allocator<char> > const&)>::target_type() const
FUNC 2a31c 4 0 std::__ndk1::__function::__func<Tab4::init()::$_14, std::__ndk1::allocator<Tab4::init()::$_14>, void (std::__ndk1::basic_string<char, std::__ndk1::char_traits<char>, std::__ndk1::allocator<char> > const&)>::~__func()
FUNC 2a320 20 0 std::__ndk1::__function::__func<Tab4::init()::$_14, std::__ndk1::allocator<Tab4::init()::$_14>, void (std::__ndk1::basic_string<char, std::__ndk1::char_traits<char>, std::__ndk1::allocator<char> > const&)>::__clone() const
FUNC 2a340 14 0 std::__ndk1::__function::__func<Tab4::init()::$_14, std::__ndk1::allocator<Tab4::init()::$_14>, void (std::__ndk1::basic_string<char, std::__ndk1::char_traits<char>, std::__ndk1::allocator<char> > const&)>::__clone(std::__ndk1::__function::__base<void (std::__ndk1::basic_string<char, std::__ndk1::char_traits<char>, std::__ndk1::allocator<char> > const&)>*) const
FUNC 2a354 2 0 std::__ndk1::__function::__func<Tab4::init()::$_14, std::__ndk1::allocator<Tab4::init()::$_14>, void (std::__ndk1::basic_string<char, std::__ndk1::char_traits<char>, std::__ndk1::allocator<char> > const&)>::destroy()
FUNC 2a356 4 0 std::__ndk1::__function::__func<Tab4::init()::$_14, std::__ndk1::allocator<Tab4::init()::$_14>, void (std::__ndk1::basic_string<char, std::__ndk1::char_traits<char>, std::__ndk1::allocator<char> > const&)>::destroy_deallocate()
FUNC 2a35c 68 0 std::__ndk1::__function::__func<Tab4::init()::$_14, std::__ndk1::allocator<Tab4::init()::$_14>, void (std::__ndk1::basic_string<char, std::__ndk1::char_traits<char>, std::__ndk1::allocator<char> > const&)>::operator()(std::__ndk1::basic_string<char, std::__ndk1::char_traits<char>, std::__ndk1::allocator<char> > const&)
FUNC 2a3c4 18 0 std::__ndk1::__function::__func<Tab4::init()::$_14, std::__ndk1::allocator<Tab4::init()::$_14>, void (std::__ndk1::basic_string<char, std::__ndk1::char_traits<char>, std::__ndk1::allocator<char> > const&)>::target(std::type_info const&) const
FUNC 2a3dc c 0 std::__ndk1::__function::__func<Tab4::init()::$_14, std::__ndk1::allocator<Tab4::init()::$_14>, void (std::__ndk1::basic_string<char, std::__ndk1::char_traits<char>, std::__ndk1::allocator<char> > const&)>::target_type() const
FUNC 2a3e8 4 0 std::__ndk1::__function::__func<Tab4::init()::$_15, std::__ndk1::allocator<Tab4::init()::$_15>, void (std::__ndk1::basic_string<char, std::__ndk1::char_traits<char>, std::__ndk1::allocator<char> > const&)>::~__func()
FUNC 2a3ec 20 0 std::__ndk1::__function::__func<Tab4::init()::$_15, std::__ndk1::allocator<Tab4::init()::$_15>, void (std::__ndk1::basic_string<char, std::__ndk1::char_traits<char>, std::__ndk1::allocator<char> > const&)>::__clone() const
FUNC 2a40c 14 0 std::__ndk1::__function::__func<Tab4::init()::$_15, std::__ndk1::allocator<Tab4::init()::$_15>, void (std::__ndk1::basic_string<char, std::__ndk1::char_traits<char>, std::__ndk1::allocator<char> > const&)>::__clone(std::__ndk1::__function::__base<void (std::__ndk1::basic_string<char, std::__ndk1::char_traits<char>, std::__ndk1::allocator<char> > const&)>*) const
FUNC 2a420 2 0 std::__ndk1::__function::__func<Tab4::init()::$_15, std::__ndk1::allocator<Tab4::init()::$_15>, void (std::__ndk1::basic_string<char, std::__ndk1::char_traits<char>, std::__ndk1::allocator<char> > const&)>::destroy()
FUNC 2a422 4 0 std::__ndk1::__function::__func<Tab4::init()::$_15, std::__ndk1::allocator<Tab4::init()::$_15>, void (std::__ndk1::basic_string<char, std::__ndk1::char_traits<char>, std::__ndk1::allocator<char> > const&)>::destroy_deallocate()
FUNC 2a428 68 0 std::__ndk1::__function::__func<Tab4::init()::$_15, std::__ndk1::allocator<Tab4::init()::$_15>, void (std::__ndk1::basic_string<char, std::__ndk1::char_traits<char>, std::__ndk1::allocator<char> > const&)>::operator()(std::__ndk1::basic_string<char, std::__ndk1::char_traits<char>, std::__ndk1::allocator<char> > const&)
FUNC 2a490 18 0 std::__ndk1::__function::__func<Tab4::init()::$_15, std::__ndk1::allocator<Tab4::init()::$_15>, void (std::__ndk1::basic_string<char, std::__ndk1::char_traits<char>, std::__ndk1::allocator<char> > const&)>::target(std::type_info const&) const
FUNC 2a4a8 c 0 std::__ndk1::__function::__func<Tab4::init()::$_15, std::__ndk1::allocator<Tab4::init()::$_15>, void (std::__ndk1::basic_string<char, std::__ndk1::char_traits<char>, std::__ndk1::allocator<char> > const&)>::target_type() const
FUNC 2a4b4 4 0 std::__ndk1::__function::__func<Tab4::init()::$_16, std::__ndk1::allocator<Tab4::init()::$_16>, void (std::__ndk1::basic_string<char, std::__ndk1::char_traits<char>, std::__ndk1::allocator<char> > const&)>::~__func()
FUNC 2a4b8 20 0 std::__ndk1::__function::__func<Tab4::init()::$_16, std::__ndk1::allocator<Tab4::init()::$_16>, void (std::__ndk1::basic_string<char, std::__ndk1::char_traits<char>, std::__ndk1::allocator<char> > const&)>::__clone() const
FUNC 2a4d8 14 0 std::__ndk1::__function::__func<Tab4::init()::$_16, std::__ndk1::allocator<Tab4::init()::$_16>, void (std::__ndk1::basic_string<char, std::__ndk1::char_traits<char>, std::__ndk1::allocator<char> > const&)>::__clone(std::__ndk1::__function::__base<void (std::__ndk1::basic_string<char, std::__ndk1::char_traits<char>, std::__ndk1::allocator<char> > const&)>*) const
FUNC 2a4ec 2 0 std::__ndk1::__function::__func<Tab4::init()::$_16, std::__ndk1::allocator<Tab4::init()::$_16>, void (std::__ndk1::basic_string<char, std::__ndk1::char_traits<char>, std::__ndk1::allocator<char> > const&)>::destroy()
FUNC 2a4ee 4 0 std::__ndk1::__function::__func<Tab4::init()::$_16, std::__ndk1::allocator<Tab4::init()::$_16>, void (std::__ndk1::basic_string<char, std::__ndk1::char_traits<char>, std::__ndk1::allocator<char> > const&)>::destroy_deallocate()
FUNC 2a4f4 68 0 std::__ndk1::__function::__func<Tab4::init()::$_16, std::__ndk1::allocator<Tab4::init()::$_16>, void (std::__ndk1::basic_string<char, std::__ndk1::char_traits<char>, std::__ndk1::allocator<char> > const&)>::operator()(std::__ndk1::basic_string<char, std::__ndk1::char_traits<char>, std::__ndk1::allocator<char> > const&)
FUNC 2a55c 18 0 std::__ndk1::__function::__func<Tab4::init()::$_16, std::__ndk1::allocator<Tab4::init()::$_16>, void (std::__ndk1::basic_string<char, std::__ndk1::char_traits<char>, std::__ndk1::allocator<char> > const&)>::target(std::type_info const&) const
FUNC 2a574 c 0 std::__ndk1::__function::__func<Tab4::init()::$_16, std::__ndk1::allocator<Tab4::init()::$_16>, void (std::__ndk1::basic_string<char, std::__ndk1::char_traits<char>, std::__ndk1::allocator<char> > const&)>::target_type() const
FUNC 2a580 4 0 std::__ndk1::__function::__func<Tab4::init()::$_17, std::__ndk1::allocator<Tab4::init()::$_17>, void (std::__ndk1::basic_string<char, std::__ndk1::char_traits<char>, std::__ndk1::allocator<char> > const&)>::~__func()
FUNC 2a584 20 0 std::__ndk1::__function::__func<Tab4::init()::$_17, std::__ndk1::allocator<Tab4::init()::$_17>, void (std::__ndk1::basic_string<char, std::__ndk1::char_traits<char>, std::__ndk1::allocator<char> > const&)>::__clone() const
FUNC 2a5a4 14 0 std::__ndk1::__function::__func<Tab4::init()::$_17, std::__ndk1::allocator<Tab4::init()::$_17>, void (std::__ndk1::basic_string<char, std::__ndk1::char_traits<char>, std::__ndk1::allocator<char> > const&)>::__clone(std::__ndk1::__function::__base<void (std::__ndk1::basic_string<char, std::__ndk1::char_traits<char>, std::__ndk1::allocator<char> > const&)>*) const
FUNC 2a5b8 2 0 std::__ndk1::__function::__func<Tab4::init()::$_17, std::__ndk1::allocator<Tab4::init()::$_17>, void (std::__ndk1::basic_string<char, std::__ndk1::char_traits<char>, std::__ndk1::allocator<char> > const&)>::destroy()
FUNC 2a5ba 4 0 std::__ndk1::__function::__func<Tab4::init()::$_17, std::__ndk1::allocator<Tab4::init()::$_17>, void (std::__ndk1::basic_string<char, std::__ndk1::char_traits<char>, std::__ndk1::allocator<char> > const&)>::destroy_deallocate()
FUNC 2a5c0 68 0 std::__ndk1::__function::__func<Tab4::init()::$_17, std::__ndk1::allocator<Tab4::init()::$_17>, void (std::__ndk1::basic_string<char, std::__ndk1::char_traits<char>, std::__ndk1::allocator<char> > const&)>::operator()(std::__ndk1::basic_string<char, std::__ndk1::char_traits<char>, std::__ndk1::allocator<char> > const&)
FUNC 2a628 18 0 std::__ndk1::__function::__func<Tab4::init()::$_17, std::__ndk1::allocator<Tab4::init()::$_17>, void (std::__ndk1::basic_string<char, std::__ndk1::char_traits<char>, std::__ndk1::allocator<char> > const&)>::target(std::type_info const&) const
FUNC 2a640 c 0 std::__ndk1::__function::__func<Tab4::init()::$_17, std::__ndk1::allocator<Tab4::init()::$_17>, void (std::__ndk1::basic_string<char, std::__ndk1::char_traits<char>, std::__ndk1::allocator<char> > const&)>::target_type() const
FUNC 2a64c 4 0 std::__ndk1::__function::__func<Tab4::init()::$_18, std::__ndk1::allocator<Tab4::init()::$_18>, void (std::__ndk1::basic_string<char, std::__ndk1::char_traits<char>, std::__ndk1::allocator<char> > const&)>::~__func()
FUNC 2a650 20 0 std::__ndk1::__function::__func<Tab4::init()::$_18, std::__ndk1::allocator<Tab4::init()::$_18>, void (std::__ndk1::basic_string<char, std::__ndk1::char_traits<char>, std::__ndk1::allocator<char> > const&)>::__clone() const
FUNC 2a670 14 0 std::__ndk1::__function::__func<Tab4::init()::$_18, std::__ndk1::allocator<Tab4::init()::$_18>, void (std::__ndk1::basic_string<char, std::__ndk1::char_traits<char>, std::__ndk1::allocator<char> > const&)>::__clone(std::__ndk1::__function::__base<void (std::__ndk1::basic_string<char, std::__ndk1::char_traits<char>, std::__ndk1::allocator<char> > const&)>*) const
FUNC 2a684 2 0 std::__ndk1::__function::__func<Tab4::init()::$_18, std::__ndk1::allocator<Tab4::init()::$_18>, void (std::__ndk1::basic_string<char, std::__ndk1::char_traits<char>, std::__ndk1::allocator<char> > const&)>::destroy()
FUNC 2a686 4 0 std::__ndk1::__function::__func<Tab4::init()::$_18, std::__ndk1::allocator<Tab4::init()::$_18>, void (std::__ndk1::basic_string<char, std::__ndk1::char_traits<char>, std::__ndk1::allocator<char> > const&)>::destroy_deallocate()
FUNC 2a68c 68 0 std::__ndk1::__function::__func<Tab4::init()::$_18, std::__ndk1::allocator<Tab4::init()::$_18>, void (std::__ndk1::basic_string<char, std::__ndk1::char_traits<char>, std::__ndk1::allocator<char> > const&)>::operator()(std::__ndk1::basic_string<char, std::__ndk1::char_traits<char>, std::__ndk1::allocator<char> > const&)
FUNC 2a6f4 18 0 std::__ndk1::__function::__func<Tab4::init()::$_18, std::__ndk1::allocator<Tab4::init()::$_18>, void (std::__ndk1::basic_string<char, std::__ndk1::char_traits<char>, std::__ndk1::allocator<char> > const&)>::target(std::type_info const&) const
FUNC 2a70c c 0 std::__ndk1::__function::__func<Tab4::init()::$_18, std::__ndk1::allocator<Tab4::init()::$_18>, void (std::__ndk1::basic_string<char, std::__ndk1::char_traits<char>, std::__ndk1::allocator<char> > const&)>::target_type() const
FUNC 2a718 4 0 std::__ndk1::__function::__func<Tab4::init()::$_19, std::__ndk1::allocator<Tab4::init()::$_19>, void (std::__ndk1::basic_string<char, std::__ndk1::char_traits<char>, std::__ndk1::allocator<char> > const&)>::~__func()
FUNC 2a71c 20 0 std::__ndk1::__function::__func<Tab4::init()::$_19, std::__ndk1::allocator<Tab4::init()::$_19>, void (std::__ndk1::basic_string<char, std::__ndk1::char_traits<char>, std::__ndk1::allocator<char> > const&)>::__clone() const
FUNC 2a73c 14 0 std::__ndk1::__function::__func<Tab4::init()::$_19, std::__ndk1::allocator<Tab4::init()::$_19>, void (std::__ndk1::basic_string<char, std::__ndk1::char_traits<char>, std::__ndk1::allocator<char> > const&)>::__clone(std::__ndk1::__function::__base<void (std::__ndk1::basic_string<char, std::__ndk1::char_traits<char>, std::__ndk1::allocator<char> > const&)>*) const
FUNC 2a750 2 0 std::__ndk1::__function::__func<Tab4::init()::$_19, std::__ndk1::allocator<Tab4::init()::$_19>, void (std::__ndk1::basic_string<char, std::__ndk1::char_traits<char>, std::__ndk1::allocator<char> > const&)>::destroy()
FUNC 2a752 4 0 std::__ndk1::__function::__func<Tab4::init()::$_19, std::__ndk1::allocator<Tab4::init()::$_19>, void (std::__ndk1::basic_string<char, std::__ndk1::char_traits<char>, std::__ndk1::allocator<char> > const&)>::destroy_deallocate()
FUNC 2a758 68 0 std::__ndk1::__function::__func<Tab4::init()::$_19, std::__ndk1::allocator<Tab4::init()::$_19>, void (std::__ndk1::basic_string<char, std::__ndk1::char_traits<char>, std::__ndk1::allocator<char> > const&)>::operator()(std::__ndk1::basic_string<char, std::__ndk1::char_traits<char>, std::__ndk1::allocator<char> > const&)
FUNC 2a7c0 18 0 std::__ndk1::__function::__func<Tab4::init()::$_19, std::__ndk1::allocator<Tab4::init()::$_19>, void (std::__ndk1::basic_string<char, std::__ndk1::char_traits<char>, std::__ndk1::allocator<char> > const&)>::target(std::type_info const&) const
FUNC 2a7d8 c 0 std::__ndk1::__function::__func<Tab4::init()::$_19, std::__ndk1::allocator<Tab4::init()::$_19>, void (std::__ndk1::basic_string<char, std::__ndk1::char_traits<char>, std::__ndk1::allocator<char> > const&)>::target_type() const
FUNC 2a7e4 1f70 0 Tab5::init()
FUNC 2c754 88 0 Tab5::SaveCheckbox(cocos2d::CCObject*)
FUNC 2c7dc 88 0 Tab5::SaveCheckbox2(cocos2d::CCObject*)
FUNC 2c864 88 0 Tab5::SaveCheckbox3(cocos2d::CCObject*)
FUNC 2c8ec 88 0 Tab5::SaveCheckbox4(cocos2d::CCObject*)
FUNC 2c974 88 0 Tab5::SaveCheckbox5(cocos2d::CCObject*)
FUNC 2c9fc 88 0 Tab5::SaveCheckbox6(cocos2d::CCObject*)
FUNC 2ca84 88 0 Tab5::SaveCheckbox7(cocos2d::CCObject*)
FUNC 2cb0c 88 0 Tab5::SaveCheckbox8(cocos2d::CCObject*)
FUNC 2cb94 88 0 Tab5::SaveCheckbox9(cocos2d::CCObject*)
FUNC 2cc1c 88 0 Tab5::SaveCheckbox10(cocos2d::CCObject*)
FUNC 2cca4 74 0 Tab5::create()
FUNC 2cd18 10 0 Tab5::~Tab5()
FUNC 2cd28 8 0 {virtual override thunk({offset(-264)}, Tab5::~Tab5())}
FUNC 2cd30 14 0 {virtual override thunk({offset(-264)}, Tab5::~Tab5())}
FUNC 2cd44 4 0 std::__ndk1::__function::__func<Tab5::init()::$_0, std::__ndk1::allocator<Tab5::init()::$_0>, void (std::__ndk1::basic_string<char, std::__ndk1::char_traits<char>, std::__ndk1::allocator<char> > const&)>::~__func()
FUNC 2cd48 20 0 std::__ndk1::__function::__func<Tab5::init()::$_0, std::__ndk1::allocator<Tab5::init()::$_0>, void (std::__ndk1::basic_string<char, std::__ndk1::char_traits<char>, std::__ndk1::allocator<char> > const&)>::__clone() const
FUNC 2cd68 14 0 std::__ndk1::__function::__func<Tab5::init()::$_0, std::__ndk1::allocator<Tab5::init()::$_0>, void (std::__ndk1::basic_string<char, std::__ndk1::char_traits<char>, std::__ndk1::allocator<char> > const&)>::__clone(std::__ndk1::__function::__base<void (std::__ndk1::basic_string<char, std::__ndk1::char_traits<char>, std::__ndk1::allocator<char> > const&)>*) const
FUNC 2cd7c 2 0 std::__ndk1::__function::__func<Tab5::init()::$_0, std::__ndk1::allocator<Tab5::init()::$_0>, void (std::__ndk1::basic_string<char, std::__ndk1::char_traits<char>, std::__ndk1::allocator<char> > const&)>::destroy()
FUNC 2cd7e 4 0 std::__ndk1::__function::__func<Tab5::init()::$_0, std::__ndk1::allocator<Tab5::init()::$_0>, void (std::__ndk1::basic_string<char, std::__ndk1::char_traits<char>, std::__ndk1::allocator<char> > const&)>::destroy_deallocate()
FUNC 2cd84 68 0 std::__ndk1::__function::__func<Tab5::init()::$_0, std::__ndk1::allocator<Tab5::init()::$_0>, void (std::__ndk1::basic_string<char, std::__ndk1::char_traits<char>, std::__ndk1::allocator<char> > const&)>::operator()(std::__ndk1::basic_string<char, std::__ndk1::char_traits<char>, std::__ndk1::allocator<char> > const&)
FUNC 2cdec 18 0 std::__ndk1::__function::__func<Tab5::init()::$_0, std::__ndk1::allocator<Tab5::init()::$_0>, void (std::__ndk1::basic_string<char, std::__ndk1::char_traits<char>, std::__ndk1::allocator<char> > const&)>::target(std::type_info const&) const
FUNC 2ce04 c 0 std::__ndk1::__function::__func<Tab5::init()::$_0, std::__ndk1::allocator<Tab5::init()::$_0>, void (std::__ndk1::basic_string<char, std::__ndk1::char_traits<char>, std::__ndk1::allocator<char> > const&)>::target_type() const
FUNC 2ce10 4 0 std::__ndk1::__function::__func<Tab5::init()::$_1, std::__ndk1::allocator<Tab5::init()::$_1>, void (std::__ndk1::basic_string<char, std::__ndk1::char_traits<char>, std::__ndk1::allocator<char> > const&)>::~__func()
FUNC 2ce14 20 0 std::__ndk1::__function::__func<Tab5::init()::$_1, std::__ndk1::allocator<Tab5::init()::$_1>, void (std::__ndk1::basic_string<char, std::__ndk1::char_traits<char>, std::__ndk1::allocator<char> > const&)>::__clone() const
FUNC 2ce34 14 0 std::__ndk1::__function::__func<Tab5::init()::$_1, std::__ndk1::allocator<Tab5::init()::$_1>, void (std::__ndk1::basic_string<char, std::__ndk1::char_traits<char>, std::__ndk1::allocator<char> > const&)>::__clone(std::__ndk1::__function::__base<void (std::__ndk1::basic_string<char, std::__ndk1::char_traits<char>, std::__ndk1::allocator<char> > const&)>*) const
FUNC 2ce48 2 0 std::__ndk1::__function::__func<Tab5::init()::$_1, std::__ndk1::allocator<Tab5::init()::$_1>, void (std::__ndk1::basic_string<char, std::__ndk1::char_traits<char>, std::__ndk1::allocator<char> > const&)>::destroy()
FUNC 2ce4a 4 0 std::__ndk1::__function::__func<Tab5::init()::$_1, std::__ndk1::allocator<Tab5::init()::$_1>, void (std::__ndk1::basic_string<char, std::__ndk1::char_traits<char>, std::__ndk1::allocator<char> > const&)>::destroy_deallocate()
FUNC 2ce50 68 0 std::__ndk1::__function::__func<Tab5::init()::$_1, std::__ndk1::allocator<Tab5::init()::$_1>, void (std::__ndk1::basic_string<char, std::__ndk1::char_traits<char>, std::__ndk1::allocator<char> > const&)>::operator()(std::__ndk1::basic_string<char, std::__ndk1::char_traits<char>, std::__ndk1::allocator<char> > const&)
FUNC 2ceb8 18 0 std::__ndk1::__function::__func<Tab5::init()::$_1, std::__ndk1::allocator<Tab5::init()::$_1>, void (std::__ndk1::basic_string<char, std::__ndk1::char_traits<char>, std::__ndk1::allocator<char> > const&)>::target(std::type_info const&) const
FUNC 2ced0 c 0 std::__ndk1::__function::__func<Tab5::init()::$_1, std::__ndk1::allocator<Tab5::init()::$_1>, void (std::__ndk1::basic_string<char, std::__ndk1::char_traits<char>, std::__ndk1::allocator<char> > const&)>::target_type() const
FUNC 2cedc 4 0 std::__ndk1::__function::__func<Tab5::init()::$_2, std::__ndk1::allocator<Tab5::init()::$_2>, void (std::__ndk1::basic_string<char, std::__ndk1::char_traits<char>, std::__ndk1::allocator<char> > const&)>::~__func()
FUNC 2cee0 20 0 std::__ndk1::__function::__func<Tab5::init()::$_2, std::__ndk1::allocator<Tab5::init()::$_2>, void (std::__ndk1::basic_string<char, std::__ndk1::char_traits<char>, std::__ndk1::allocator<char> > const&)>::__clone() const
FUNC 2cf00 14 0 std::__ndk1::__function::__func<Tab5::init()::$_2, std::__ndk1::allocator<Tab5::init()::$_2>, void (std::__ndk1::basic_string<char, std::__ndk1::char_traits<char>, std::__ndk1::allocator<char> > const&)>::__clone(std::__ndk1::__function::__base<void (std::__ndk1::basic_string<char, std::__ndk1::char_traits<char>, std::__ndk1::allocator<char> > const&)>*) const
FUNC 2cf14 2 0 std::__ndk1::__function::__func<Tab5::init()::$_2, std::__ndk1::allocator<Tab5::init()::$_2>, void (std::__ndk1::basic_string<char, std::__ndk1::char_traits<char>, std::__ndk1::allocator<char> > const&)>::destroy()
FUNC 2cf16 4 0 std::__ndk1::__function::__func<Tab5::init()::$_2, std::__ndk1::allocator<Tab5::init()::$_2>, void (std::__ndk1::basic_string<char, std::__ndk1::char_traits<char>, std::__ndk1::allocator<char> > const&)>::destroy_deallocate()
FUNC 2cf1c 68 0 std::__ndk1::__function::__func<Tab5::init()::$_2, std::__ndk1::allocator<Tab5::init()::$_2>, void (std::__ndk1::basic_string<char, std::__ndk1::char_traits<char>, std::__ndk1::allocator<char> > const&)>::operator()(std::__ndk1::basic_string<char, std::__ndk1::char_traits<char>, std::__ndk1::allocator<char> > const&)
FUNC 2cf84 18 0 std::__ndk1::__function::__func<Tab5::init()::$_2, std::__ndk1::allocator<Tab5::init()::$_2>, void (std::__ndk1::basic_string<char, std::__ndk1::char_traits<char>, std::__ndk1::allocator<char> > const&)>::target(std::type_info const&) const
FUNC 2cf9c c 0 std::__ndk1::__function::__func<Tab5::init()::$_2, std::__ndk1::allocator<Tab5::init()::$_2>, void (std::__ndk1::basic_string<char, std::__ndk1::char_traits<char>, std::__ndk1::allocator<char> > const&)>::target_type() const
FUNC 2cfa8 4 0 std::__ndk1::__function::__func<Tab5::init()::$_3, std::__ndk1::allocator<Tab5::init()::$_3>, void (std::__ndk1::basic_string<char, std::__ndk1::char_traits<char>, std::__ndk1::allocator<char> > const&)>::~__func()
FUNC 2cfac 20 0 std::__ndk1::__function::__func<Tab5::init()::$_3, std::__ndk1::allocator<Tab5::init()::$_3>, void (std::__ndk1::basic_string<char, std::__ndk1::char_traits<char>, std::__ndk1::allocator<char> > const&)>::__clone() const
FUNC 2cfcc 14 0 std::__ndk1::__function::__func<Tab5::init()::$_3, std::__ndk1::allocator<Tab5::init()::$_3>, void (std::__ndk1::basic_string<char, std::__ndk1::char_traits<char>, std::__ndk1::allocator<char> > const&)>::__clone(std::__ndk1::__function::__base<void (std::__ndk1::basic_string<char, std::__ndk1::char_traits<char>, std::__ndk1::allocator<char> > const&)>*) const
FUNC 2cfe0 2 0 std::__ndk1::__function::__func<Tab5::init()::$_3, std::__ndk1::allocator<Tab5::init()::$_3>, void (std::__ndk1::basic_string<char, std::__ndk1::char_traits<char>, std::__ndk1::allocator<char> > const&)>::destroy()
FUNC 2cfe2 4 0 std::__ndk1::__function::__func<Tab5::init()::$_3, std::__ndk1::allocator<Tab5::init()::$_3>, void (std::__ndk1::basic_string<char, std::__ndk1::char_traits<char>, std::__ndk1::allocator<char> > const&)>::destroy_deallocate()
FUNC 2cfe8 68 0 std::__ndk1::__function::__func<Tab5::init()::$_3, std::__ndk1::allocator<Tab5::init()::$_3>, void (std::__ndk1::basic_string<char, std::__ndk1::char_traits<char>, std::__ndk1::allocator<char> > const&)>::operator()(std::__ndk1::basic_string<char, std::__ndk1::char_traits<char>, std::__ndk1::allocator<char> > const&)
FUNC 2d050 18 0 std::__ndk1::__function::__func<Tab5::init()::$_3, std::__ndk1::allocator<Tab5::init()::$_3>, void (std::__ndk1::basic_string<char, std::__ndk1::char_traits<char>, std::__ndk1::allocator<char> > const&)>::target(std::type_info const&) const
FUNC 2d068 c 0 std::__ndk1::__function::__func<Tab5::init()::$_3, std::__ndk1::allocator<Tab5::init()::$_3>, void (std::__ndk1::basic_string<char, std::__ndk1::char_traits<char>, std::__ndk1::allocator<char> > const&)>::target_type() const
FUNC 2d074 4 0 std::__ndk1::__function::__func<Tab5::init()::$_4, std::__ndk1::allocator<Tab5::init()::$_4>, void (std::__ndk1::basic_string<char, std::__ndk1::char_traits<char>, std::__ndk1::allocator<char> > const&)>::~__func()
FUNC 2d078 20 0 std::__ndk1::__function::__func<Tab5::init()::$_4, std::__ndk1::allocator<Tab5::init()::$_4>, void (std::__ndk1::basic_string<char, std::__ndk1::char_traits<char>, std::__ndk1::allocator<char> > const&)>::__clone() const
FUNC 2d098 14 0 std::__ndk1::__function::__func<Tab5::init()::$_4, std::__ndk1::allocator<Tab5::init()::$_4>, void (std::__ndk1::basic_string<char, std::__ndk1::char_traits<char>, std::__ndk1::allocator<char> > const&)>::__clone(std::__ndk1::__function::__base<void (std::__ndk1::basic_string<char, std::__ndk1::char_traits<char>, std::__ndk1::allocator<char> > const&)>*) const
FUNC 2d0ac 2 0 std::__ndk1::__function::__func<Tab5::init()::$_4, std::__ndk1::allocator<Tab5::init()::$_4>, void (std::__ndk1::basic_string<char, std::__ndk1::char_traits<char>, std::__ndk1::allocator<char> > const&)>::destroy()
FUNC 2d0ae 4 0 std::__ndk1::__function::__func<Tab5::init()::$_4, std::__ndk1::allocator<Tab5::init()::$_4>, void (std::__ndk1::basic_string<char, std::__ndk1::char_traits<char>, std::__ndk1::allocator<char> > const&)>::destroy_deallocate()
FUNC 2d0b4 68 0 std::__ndk1::__function::__func<Tab5::init()::$_4, std::__ndk1::allocator<Tab5::init()::$_4>, void (std::__ndk1::basic_string<char, std::__ndk1::char_traits<char>, std::__ndk1::allocator<char> > const&)>::operator()(std::__ndk1::basic_string<char, std::__ndk1::char_traits<char>, std::__ndk1::allocator<char> > const&)
FUNC 2d11c 18 0 std::__ndk1::__function::__func<Tab5::init()::$_4, std::__ndk1::allocator<Tab5::init()::$_4>, void (std::__ndk1::basic_string<char, std::__ndk1::char_traits<char>, std::__ndk1::allocator<char> > const&)>::target(std::type_info const&) const
FUNC 2d134 c 0 std::__ndk1::__function::__func<Tab5::init()::$_4, std::__ndk1::allocator<Tab5::init()::$_4>, void (std::__ndk1::basic_string<char, std::__ndk1::char_traits<char>, std::__ndk1::allocator<char> > const&)>::target_type() const
FUNC 2d140 4 0 std::__ndk1::__function::__func<Tab5::init()::$_5, std::__ndk1::allocator<Tab5::init()::$_5>, void (std::__ndk1::basic_string<char, std::__ndk1::char_traits<char>, std::__ndk1::allocator<char> > const&)>::~__func()
FUNC 2d144 20 0 std::__ndk1::__function::__func<Tab5::init()::$_5, std::__ndk1::allocator<Tab5::init()::$_5>, void (std::__ndk1::basic_string<char, std::__ndk1::char_traits<char>, std::__ndk1::allocator<char> > const&)>::__clone() const
FUNC 2d164 14 0 std::__ndk1::__function::__func<Tab5::init()::$_5, std::__ndk1::allocator<Tab5::init()::$_5>, void (std::__ndk1::basic_string<char, std::__ndk1::char_traits<char>, std::__ndk1::allocator<char> > const&)>::__clone(std::__ndk1::__function::__base<void (std::__ndk1::basic_string<char, std::__ndk1::char_traits<char>, std::__ndk1::allocator<char> > const&)>*) const
FUNC 2d178 2 0 std::__ndk1::__function::__func<Tab5::init()::$_5, std::__ndk1::allocator<Tab5::init()::$_5>, void (std::__ndk1::basic_string<char, std::__ndk1::char_traits<char>, std::__ndk1::allocator<char> > const&)>::destroy()
FUNC 2d17a 4 0 std::__ndk1::__function::__func<Tab5::init()::$_5, std::__ndk1::allocator<Tab5::init()::$_5>, void (std::__ndk1::basic_string<char, std::__ndk1::char_traits<char>, std::__ndk1::allocator<char> > const&)>::destroy_deallocate()
FUNC 2d180 68 0 std::__ndk1::__function::__func<Tab5::init()::$_5, std::__ndk1::allocator<Tab5::init()::$_5>, void (std::__ndk1::basic_string<char, std::__ndk1::char_traits<char>, std::__ndk1::allocator<char> > const&)>::operator()(std::__ndk1::basic_string<char, std::__ndk1::char_traits<char>, std::__ndk1::allocator<char> > const&)
FUNC 2d1e8 18 0 std::__ndk1::__function::__func<Tab5::init()::$_5, std::__ndk1::allocator<Tab5::init()::$_5>, void (std::__ndk1::basic_string<char, std::__ndk1::char_traits<char>, std::__ndk1::allocator<char> > const&)>::target(std::type_info const&) const
FUNC 2d200 c 0 std::__ndk1::__function::__func<Tab5::init()::$_5, std::__ndk1::allocator<Tab5::init()::$_5>, void (std::__ndk1::basic_string<char, std::__ndk1::char_traits<char>, std::__ndk1::allocator<char> > const&)>::target_type() const
FUNC 2d20c 4 0 std::__ndk1::__function::__func<Tab5::init()::$_6, std::__ndk1::allocator<Tab5::init()::$_6>, void (std::__ndk1::basic_string<char, std::__ndk1::char_traits<char>, std::__ndk1::allocator<char> > const&)>::~__func()
FUNC 2d210 20 0 std::__ndk1::__function::__func<Tab5::init()::$_6, std::__ndk1::allocator<Tab5::init()::$_6>, void (std::__ndk1::basic_string<char, std::__ndk1::char_traits<char>, std::__ndk1::allocator<char> > const&)>::__clone() const
FUNC 2d230 14 0 std::__ndk1::__function::__func<Tab5::init()::$_6, std::__ndk1::allocator<Tab5::init()::$_6>, void (std::__ndk1::basic_string<char, std::__ndk1::char_traits<char>, std::__ndk1::allocator<char> > const&)>::__clone(std::__ndk1::__function::__base<void (std::__ndk1::basic_string<char, std::__ndk1::char_traits<char>, std::__ndk1::allocator<char> > const&)>*) const
FUNC 2d244 2 0 std::__ndk1::__function::__func<Tab5::init()::$_6, std::__ndk1::allocator<Tab5::init()::$_6>, void (std::__ndk1::basic_string<char, std::__ndk1::char_traits<char>, std::__ndk1::allocator<char> > const&)>::destroy()
FUNC 2d246 4 0 std::__ndk1::__function::__func<Tab5::init()::$_6, std::__ndk1::allocator<Tab5::init()::$_6>, void (std::__ndk1::basic_string<char, std::__ndk1::char_traits<char>, std::__ndk1::allocator<char> > const&)>::destroy_deallocate()
FUNC 2d24c 68 0 std::__ndk1::__function::__func<Tab5::init()::$_6, std::__ndk1::allocator<Tab5::init()::$_6>, void (std::__ndk1::basic_string<char, std::__ndk1::char_traits<char>, std::__ndk1::allocator<char> > const&)>::operator()(std::__ndk1::basic_string<char, std::__ndk1::char_traits<char>, std::__ndk1::allocator<char> > const&)
FUNC 2d2b4 18 0 std::__ndk1::__function::__func<Tab5::init()::$_6, std::__ndk1::allocator<Tab5::init()::$_6>, void (std::__ndk1::basic_string<char, std::__ndk1::char_traits<char>, std::__ndk1::allocator<char> > const&)>::target(std::type_info const&) const
FUNC 2d2cc c 0 std::__ndk1::__function::__func<Tab5::init()::$_6, std::__ndk1::allocator<Tab5::init()::$_6>, void (std::__ndk1::basic_string<char, std::__ndk1::char_traits<char>, std::__ndk1::allocator<char> > const&)>::target_type() const
FUNC 2d2d8 4 0 std::__ndk1::__function::__func<Tab5::init()::$_7, std::__ndk1::allocator<Tab5::init()::$_7>, void (std::__ndk1::basic_string<char, std::__ndk1::char_traits<char>, std::__ndk1::allocator<char> > const&)>::~__func()
FUNC 2d2dc 20 0 std::__ndk1::__function::__func<Tab5::init()::$_7, std::__ndk1::allocator<Tab5::init()::$_7>, void (std::__ndk1::basic_string<char, std::__ndk1::char_traits<char>, std::__ndk1::allocator<char> > const&)>::__clone() const
FUNC 2d2fc 14 0 std::__ndk1::__function::__func<Tab5::init()::$_7, std::__ndk1::allocator<Tab5::init()::$_7>, void (std::__ndk1::basic_string<char, std::__ndk1::char_traits<char>, std::__ndk1::allocator<char> > const&)>::__clone(std::__ndk1::__function::__base<void (std::__ndk1::basic_string<char, std::__ndk1::char_traits<char>, std::__ndk1::allocator<char> > const&)>*) const
FUNC 2d310 2 0 std::__ndk1::__function::__func<Tab5::init()::$_7, std::__ndk1::allocator<Tab5::init()::$_7>, void (std::__ndk1::basic_string<char, std::__ndk1::char_traits<char>, std::__ndk1::allocator<char> > const&)>::destroy()
FUNC 2d312 4 0 std::__ndk1::__function::__func<Tab5::init()::$_7, std::__ndk1::allocator<Tab5::init()::$_7>, void (std::__ndk1::basic_string<char, std::__ndk1::char_traits<char>, std::__ndk1::allocator<char> > const&)>::destroy_deallocate()
FUNC 2d318 68 0 std::__ndk1::__function::__func<Tab5::init()::$_7, std::__ndk1::allocator<Tab5::init()::$_7>, void (std::__ndk1::basic_string<char, std::__ndk1::char_traits<char>, std::__ndk1::allocator<char> > const&)>::operator()(std::__ndk1::basic_string<char, std::__ndk1::char_traits<char>, std::__ndk1::allocator<char> > const&)
FUNC 2d380 18 0 std::__ndk1::__function::__func<Tab5::init()::$_7, std::__ndk1::allocator<Tab5::init()::$_7>, void (std::__ndk1::basic_string<char, std::__ndk1::char_traits<char>, std::__ndk1::allocator<char> > const&)>::target(std::type_info const&) const
FUNC 2d398 c 0 std::__ndk1::__function::__func<Tab5::init()::$_7, std::__ndk1::allocator<Tab5::init()::$_7>, void (std::__ndk1::basic_string<char, std::__ndk1::char_traits<char>, std::__ndk1::allocator<char> > const&)>::target_type() const
FUNC 2d3a4 4 0 std::__ndk1::__function::__func<Tab5::init()::$_8, std::__ndk1::allocator<Tab5::init()::$_8>, void (std::__ndk1::basic_string<char, std::__ndk1::char_traits<char>, std::__ndk1::allocator<char> > const&)>::~__func()
FUNC 2d3a8 20 0 std::__ndk1::__function::__func<Tab5::init()::$_8, std::__ndk1::allocator<Tab5::init()::$_8>, void (std::__ndk1::basic_string<char, std::__ndk1::char_traits<char>, std::__ndk1::allocator<char> > const&)>::__clone() const
FUNC 2d3c8 14 0 std::__ndk1::__function::__func<Tab5::init()::$_8, std::__ndk1::allocator<Tab5::init()::$_8>, void (std::__ndk1::basic_string<char, std::__ndk1::char_traits<char>, std::__ndk1::allocator<char> > const&)>::__clone(std::__ndk1::__function::__base<void (std::__ndk1::basic_string<char, std::__ndk1::char_traits<char>, std::__ndk1::allocator<char> > const&)>*) const
FUNC 2d3dc 2 0 std::__ndk1::__function::__func<Tab5::init()::$_8, std::__ndk1::allocator<Tab5::init()::$_8>, void (std::__ndk1::basic_string<char, std::__ndk1::char_traits<char>, std::__ndk1::allocator<char> > const&)>::destroy()
FUNC 2d3de 4 0 std::__ndk1::__function::__func<Tab5::init()::$_8, std::__ndk1::allocator<Tab5::init()::$_8>, void (std::__ndk1::basic_string<char, std::__ndk1::char_traits<char>, std::__ndk1::allocator<char> > const&)>::destroy_deallocate()
FUNC 2d3e4 68 0 std::__ndk1::__function::__func<Tab5::init()::$_8, std::__ndk1::allocator<Tab5::init()::$_8>, void (std::__ndk1::basic_string<char, std::__ndk1::char_traits<char>, std::__ndk1::allocator<char> > const&)>::operator()(std::__ndk1::basic_string<char, std::__ndk1::char_traits<char>, std::__ndk1::allocator<char> > const&)
FUNC 2d44c 18 0 std::__ndk1::__function::__func<Tab5::init()::$_8, std::__ndk1::allocator<Tab5::init()::$_8>, void (std::__ndk1::basic_string<char, std::__ndk1::char_traits<char>, std::__ndk1::allocator<char> > const&)>::target(std::type_info const&) const
FUNC 2d464 c 0 std::__ndk1::__function::__func<Tab5::init()::$_8, std::__ndk1::allocator<Tab5::init()::$_8>, void (std::__ndk1::basic_string<char, std::__ndk1::char_traits<char>, std::__ndk1::allocator<char> > const&)>::target_type() const
FUNC 2d470 4 0 std::__ndk1::__function::__func<Tab5::init()::$_9, std::__ndk1::allocator<Tab5::init()::$_9>, void (std::__ndk1::basic_string<char, std::__ndk1::char_traits<char>, std::__ndk1::allocator<char> > const&)>::~__func()
FUNC 2d474 20 0 std::__ndk1::__function::__func<Tab5::init()::$_9, std::__ndk1::allocator<Tab5::init()::$_9>, void (std::__ndk1::basic_string<char, std::__ndk1::char_traits<char>, std::__ndk1::allocator<char> > const&)>::__clone() const
FUNC 2d494 14 0 std::__ndk1::__function::__func<Tab5::init()::$_9, std::__ndk1::allocator<Tab5::init()::$_9>, void (std::__ndk1::basic_string<char, std::__ndk1::char_traits<char>, std::__ndk1::allocator<char> > const&)>::__clone(std::__ndk1::__function::__base<void (std::__ndk1::basic_string<char, std::__ndk1::char_traits<char>, std::__ndk1::allocator<char> > const&)>*) const
FUNC 2d4a8 2 0 std::__ndk1::__function::__func<Tab5::init()::$_9, std::__ndk1::allocator<Tab5::init()::$_9>, void (std::__ndk1::basic_string<char, std::__ndk1::char_traits<char>, std::__ndk1::allocator<char> > const&)>::destroy()
FUNC 2d4aa 4 0 std::__ndk1::__function::__func<Tab5::init()::$_9, std::__ndk1::allocator<Tab5::init()::$_9>, void (std::__ndk1::basic_string<char, std::__ndk1::char_traits<char>, std::__ndk1::allocator<char> > const&)>::destroy_deallocate()
FUNC 2d4b0 68 0 std::__ndk1::__function::__func<Tab5::init()::$_9, std::__ndk1::allocator<Tab5::init()::$_9>, void (std::__ndk1::basic_string<char, std::__ndk1::char_traits<char>, std::__ndk1::allocator<char> > const&)>::operator()(std::__ndk1::basic_string<char, std::__ndk1::char_traits<char>, std::__ndk1::allocator<char> > const&)
FUNC 2d518 18 0 std::__ndk1::__function::__func<Tab5::init()::$_9, std::__ndk1::allocator<Tab5::init()::$_9>, void (std::__ndk1::basic_string<char, std::__ndk1::char_traits<char>, std::__ndk1::allocator<char> > const&)>::target(std::type_info const&) const
FUNC 2d530 c 0 std::__ndk1::__function::__func<Tab5::init()::$_9, std::__ndk1::allocator<Tab5::init()::$_9>, void (std::__ndk1::basic_string<char, std::__ndk1::char_traits<char>, std::__ndk1::allocator<char> > const&)>::target_type() const
FUNC 2d53c 4 0 std::__ndk1::__function::__func<Tab5::init()::$_10, std::__ndk1::allocator<Tab5::init()::$_10>, void (std::__ndk1::basic_string<char, std::__ndk1::char_traits<char>, std::__ndk1::allocator<char> > const&)>::~__func()
FUNC 2d540 20 0 std::__ndk1::__function::__func<Tab5::init()::$_10, std::__ndk1::allocator<Tab5::init()::$_10>, void (std::__ndk1::basic_string<char, std::__ndk1::char_traits<char>, std::__ndk1::allocator<char> > const&)>::__clone() const
FUNC 2d560 14 0 std::__ndk1::__function::__func<Tab5::init()::$_10, std::__ndk1::allocator<Tab5::init()::$_10>, void (std::__ndk1::basic_string<char, std::__ndk1::char_traits<char>, std::__ndk1::allocator<char> > const&)>::__clone(std::__ndk1::__function::__base<void (std::__ndk1::basic_string<char, std::__ndk1::char_traits<char>, std::__ndk1::allocator<char> > const&)>*) const
FUNC 2d574 2 0 std::__ndk1::__function::__func<Tab5::init()::$_10, std::__ndk1::allocator<Tab5::init()::$_10>, void (std::__ndk1::basic_string<char, std::__ndk1::char_traits<char>, std::__ndk1::allocator<char> > const&)>::destroy()
FUNC 2d576 4 0 std::__ndk1::__function::__func<Tab5::init()::$_10, std::__ndk1::allocator<Tab5::init()::$_10>, void (std::__ndk1::basic_string<char, std::__ndk1::char_traits<char>, std::__ndk1::allocator<char> > const&)>::destroy_deallocate()
FUNC 2d57c 68 0 std::__ndk1::__function::__func<Tab5::init()::$_10, std::__ndk1::allocator<Tab5::init()::$_10>, void (std::__ndk1::basic_string<char, std::__ndk1::char_traits<char>, std::__ndk1::allocator<char> > const&)>::operator()(std::__ndk1::basic_string<char, std::__ndk1::char_traits<char>, std::__ndk1::allocator<char> > const&)
FUNC 2d5e4 18 0 std::__ndk1::__function::__func<Tab5::init()::$_10, std::__ndk1::allocator<Tab5::init()::$_10>, void (std::__ndk1::basic_string<char, std::__ndk1::char_traits<char>, std::__ndk1::allocator<char> > const&)>::target(std::type_info const&) const
FUNC 2d5fc c 0 std::__ndk1::__function::__func<Tab5::init()::$_10, std::__ndk1::allocator<Tab5::init()::$_10>, void (std::__ndk1::basic_string<char, std::__ndk1::char_traits<char>, std::__ndk1::allocator<char> > const&)>::target_type() const
FUNC 2d608 4 0 std::__ndk1::__function::__func<Tab5::init()::$_11, std::__ndk1::allocator<Tab5::init()::$_11>, void (std::__ndk1::basic_string<char, std::__ndk1::char_traits<char>, std::__ndk1::allocator<char> > const&)>::~__func()
FUNC 2d60c 20 0 std::__ndk1::__function::__func<Tab5::init()::$_11, std::__ndk1::allocator<Tab5::init()::$_11>, void (std::__ndk1::basic_string<char, std::__ndk1::char_traits<char>, std::__ndk1::allocator<char> > const&)>::__clone() const
FUNC 2d62c 14 0 std::__ndk1::__function::__func<Tab5::init()::$_11, std::__ndk1::allocator<Tab5::init()::$_11>, void (std::__ndk1::basic_string<char, std::__ndk1::char_traits<char>, std::__ndk1::allocator<char> > const&)>::__clone(std::__ndk1::__function::__base<void (std::__ndk1::basic_string<char, std::__ndk1::char_traits<char>, std::__ndk1::allocator<char> > const&)>*) const
FUNC 2d640 2 0 std::__ndk1::__function::__func<Tab5::init()::$_11, std::__ndk1::allocator<Tab5::init()::$_11>, void (std::__ndk1::basic_string<char, std::__ndk1::char_traits<char>, std::__ndk1::allocator<char> > const&)>::destroy()
FUNC 2d642 4 0 std::__ndk1::__function::__func<Tab5::init()::$_11, std::__ndk1::allocator<Tab5::init()::$_11>, void (std::__ndk1::basic_string<char, std::__ndk1::char_traits<char>, std::__ndk1::allocator<char> > const&)>::destroy_deallocate()
FUNC 2d648 68 0 std::__ndk1::__function::__func<Tab5::init()::$_11, std::__ndk1::allocator<Tab5::init()::$_11>, void (std::__ndk1::basic_string<char, std::__ndk1::char_traits<char>, std::__ndk1::allocator<char> > const&)>::operator()(std::__ndk1::basic_string<char, std::__ndk1::char_traits<char>, std::__ndk1::allocator<char> > const&)
FUNC 2d6b0 18 0 std::__ndk1::__function::__func<Tab5::init()::$_11, std::__ndk1::allocator<Tab5::init()::$_11>, void (std::__ndk1::basic_string<char, std::__ndk1::char_traits<char>, std::__ndk1::allocator<char> > const&)>::target(std::type_info const&) const
FUNC 2d6c8 c 0 std::__ndk1::__function::__func<Tab5::init()::$_11, std::__ndk1::allocator<Tab5::init()::$_11>, void (std::__ndk1::basic_string<char, std::__ndk1::char_traits<char>, std::__ndk1::allocator<char> > const&)>::target_type() const
FUNC 2d6d4 4 0 std::__ndk1::__function::__func<Tab5::init()::$_12, std::__ndk1::allocator<Tab5::init()::$_12>, void (std::__ndk1::basic_string<char, std::__ndk1::char_traits<char>, std::__ndk1::allocator<char> > const&)>::~__func()
FUNC 2d6d8 20 0 std::__ndk1::__function::__func<Tab5::init()::$_12, std::__ndk1::allocator<Tab5::init()::$_12>, void (std::__ndk1::basic_string<char, std::__ndk1::char_traits<char>, std::__ndk1::allocator<char> > const&)>::__clone() const
FUNC 2d6f8 14 0 std::__ndk1::__function::__func<Tab5::init()::$_12, std::__ndk1::allocator<Tab5::init()::$_12>, void (std::__ndk1::basic_string<char, std::__ndk1::char_traits<char>, std::__ndk1::allocator<char> > const&)>::__clone(std::__ndk1::__function::__base<void (std::__ndk1::basic_string<char, std::__ndk1::char_traits<char>, std::__ndk1::allocator<char> > const&)>*) const
FUNC 2d70c 2 0 std::__ndk1::__function::__func<Tab5::init()::$_12, std::__ndk1::allocator<Tab5::init()::$_12>, void (std::__ndk1::basic_string<char, std::__ndk1::char_traits<char>, std::__ndk1::allocator<char> > const&)>::destroy()
FUNC 2d70e 4 0 std::__ndk1::__function::__func<Tab5::init()::$_12, std::__ndk1::allocator<Tab5::init()::$_12>, void (std::__ndk1::basic_string<char, std::__ndk1::char_traits<char>, std::__ndk1::allocator<char> > const&)>::destroy_deallocate()
FUNC 2d714 68 0 std::__ndk1::__function::__func<Tab5::init()::$_12, std::__ndk1::allocator<Tab5::init()::$_12>, void (std::__ndk1::basic_string<char, std::__ndk1::char_traits<char>, std::__ndk1::allocator<char> > const&)>::operator()(std::__ndk1::basic_string<char, std::__ndk1::char_traits<char>, std::__ndk1::allocator<char> > const&)
FUNC 2d77c 18 0 std::__ndk1::__function::__func<Tab5::init()::$_12, std::__ndk1::allocator<Tab5::init()::$_12>, void (std::__ndk1::basic_string<char, std::__ndk1::char_traits<char>, std::__ndk1::allocator<char> > const&)>::target(std::type_info const&) const
FUNC 2d794 c 0 std::__ndk1::__function::__func<Tab5::init()::$_12, std::__ndk1::allocator<Tab5::init()::$_12>, void (std::__ndk1::basic_string<char, std::__ndk1::char_traits<char>, std::__ndk1::allocator<char> > const&)>::target_type() const
FUNC 2d7a0 4 0 std::__ndk1::__function::__func<Tab5::init()::$_13, std::__ndk1::allocator<Tab5::init()::$_13>, void (std::__ndk1::basic_string<char, std::__ndk1::char_traits<char>, std::__ndk1::allocator<char> > const&)>::~__func()
FUNC 2d7a4 20 0 std::__ndk1::__function::__func<Tab5::init()::$_13, std::__ndk1::allocator<Tab5::init()::$_13>, void (std::__ndk1::basic_string<char, std::__ndk1::char_traits<char>, std::__ndk1::allocator<char> > const&)>::__clone() const
FUNC 2d7c4 14 0 std::__ndk1::__function::__func<Tab5::init()::$_13, std::__ndk1::allocator<Tab5::init()::$_13>, void (std::__ndk1::basic_string<char, std::__ndk1::char_traits<char>, std::__ndk1::allocator<char> > const&)>::__clone(std::__ndk1::__function::__base<void (std::__ndk1::basic_string<char, std::__ndk1::char_traits<char>, std::__ndk1::allocator<char> > const&)>*) const
FUNC 2d7d8 2 0 std::__ndk1::__function::__func<Tab5::init()::$_13, std::__ndk1::allocator<Tab5::init()::$_13>, void (std::__ndk1::basic_string<char, std::__ndk1::char_traits<char>, std::__ndk1::allocator<char> > const&)>::destroy()
FUNC 2d7da 4 0 std::__ndk1::__function::__func<Tab5::init()::$_13, std::__ndk1::allocator<Tab5::init()::$_13>, void (std::__ndk1::basic_string<char, std::__ndk1::char_traits<char>, std::__ndk1::allocator<char> > const&)>::destroy_deallocate()
FUNC 2d7e0 68 0 std::__ndk1::__function::__func<Tab5::init()::$_13, std::__ndk1::allocator<Tab5::init()::$_13>, void (std::__ndk1::basic_string<char, std::__ndk1::char_traits<char>, std::__ndk1::allocator<char> > const&)>::operator()(std::__ndk1::basic_string<char, std::__ndk1::char_traits<char>, std::__ndk1::allocator<char> > const&)
FUNC 2d848 18 0 std::__ndk1::__function::__func<Tab5::init()::$_13, std::__ndk1::allocator<Tab5::init()::$_13>, void (std::__ndk1::basic_string<char, std::__ndk1::char_traits<char>, std::__ndk1::allocator<char> > const&)>::target(std::type_info const&) const
FUNC 2d860 c 0 std::__ndk1::__function::__func<Tab5::init()::$_13, std::__ndk1::allocator<Tab5::init()::$_13>, void (std::__ndk1::basic_string<char, std::__ndk1::char_traits<char>, std::__ndk1::allocator<char> > const&)>::target_type() const
FUNC 2d86c 4 0 std::__ndk1::__function::__func<Tab5::init()::$_14, std::__ndk1::allocator<Tab5::init()::$_14>, void (std::__ndk1::basic_string<char, std::__ndk1::char_traits<char>, std::__ndk1::allocator<char> > const&)>::~__func()
FUNC 2d870 20 0 std::__ndk1::__function::__func<Tab5::init()::$_14, std::__ndk1::allocator<Tab5::init()::$_14>, void (std::__ndk1::basic_string<char, std::__ndk1::char_traits<char>, std::__ndk1::allocator<char> > const&)>::__clone() const
FUNC 2d890 14 0 std::__ndk1::__function::__func<Tab5::init()::$_14, std::__ndk1::allocator<Tab5::init()::$_14>, void (std::__ndk1::basic_string<char, std::__ndk1::char_traits<char>, std::__ndk1::allocator<char> > const&)>::__clone(std::__ndk1::__function::__base<void (std::__ndk1::basic_string<char, std::__ndk1::char_traits<char>, std::__ndk1::allocator<char> > const&)>*) const
FUNC 2d8a4 2 0 std::__ndk1::__function::__func<Tab5::init()::$_14, std::__ndk1::allocator<Tab5::init()::$_14>, void (std::__ndk1::basic_string<char, std::__ndk1::char_traits<char>, std::__ndk1::allocator<char> > const&)>::destroy()
FUNC 2d8a6 4 0 std::__ndk1::__function::__func<Tab5::init()::$_14, std::__ndk1::allocator<Tab5::init()::$_14>, void (std::__ndk1::basic_string<char, std::__ndk1::char_traits<char>, std::__ndk1::allocator<char> > const&)>::destroy_deallocate()
FUNC 2d8ac 68 0 std::__ndk1::__function::__func<Tab5::init()::$_14, std::__ndk1::allocator<Tab5::init()::$_14>, void (std::__ndk1::basic_string<char, std::__ndk1::char_traits<char>, std::__ndk1::allocator<char> > const&)>::operator()(std::__ndk1::basic_string<char, std::__ndk1::char_traits<char>, std::__ndk1::allocator<char> > const&)
FUNC 2d914 18 0 std::__ndk1::__function::__func<Tab5::init()::$_14, std::__ndk1::allocator<Tab5::init()::$_14>, void (std::__ndk1::basic_string<char, std::__ndk1::char_traits<char>, std::__ndk1::allocator<char> > const&)>::target(std::type_info const&) const
FUNC 2d92c c 0 std::__ndk1::__function::__func<Tab5::init()::$_14, std::__ndk1::allocator<Tab5::init()::$_14>, void (std::__ndk1::basic_string<char, std::__ndk1::char_traits<char>, std::__ndk1::allocator<char> > const&)>::target_type() const
FUNC 2d938 4 0 std::__ndk1::__function::__func<Tab5::init()::$_15, std::__ndk1::allocator<Tab5::init()::$_15>, void (std::__ndk1::basic_string<char, std::__ndk1::char_traits<char>, std::__ndk1::allocator<char> > const&)>::~__func()
FUNC 2d93c 20 0 std::__ndk1::__function::__func<Tab5::init()::$_15, std::__ndk1::allocator<Tab5::init()::$_15>, void (std::__ndk1::basic_string<char, std::__ndk1::char_traits<char>, std::__ndk1::allocator<char> > const&)>::__clone() const
FUNC 2d95c 14 0 std::__ndk1::__function::__func<Tab5::init()::$_15, std::__ndk1::allocator<Tab5::init()::$_15>, void (std::__ndk1::basic_string<char, std::__ndk1::char_traits<char>, std::__ndk1::allocator<char> > const&)>::__clone(std::__ndk1::__function::__base<void (std::__ndk1::basic_string<char, std::__ndk1::char_traits<char>, std::__ndk1::allocator<char> > const&)>*) const
FUNC 2d970 2 0 std::__ndk1::__function::__func<Tab5::init()::$_15, std::__ndk1::allocator<Tab5::init()::$_15>, void (std::__ndk1::basic_string<char, std::__ndk1::char_traits<char>, std::__ndk1::allocator<char> > const&)>::destroy()
FUNC 2d972 4 0 std::__ndk1::__function::__func<Tab5::init()::$_15, std::__ndk1::allocator<Tab5::init()::$_15>, void (std::__ndk1::basic_string<char, std::__ndk1::char_traits<char>, std::__ndk1::allocator<char> > const&)>::destroy_deallocate()
FUNC 2d978 68 0 std::__ndk1::__function::__func<Tab5::init()::$_15, std::__ndk1::allocator<Tab5::init()::$_15>, void (std::__ndk1::basic_string<char, std::__ndk1::char_traits<char>, std::__ndk1::allocator<char> > const&)>::operator()(std::__ndk1::basic_string<char, std::__ndk1::char_traits<char>, std::__ndk1::allocator<char> > const&)
FUNC 2d9e0 18 0 std::__ndk1::__function::__func<Tab5::init()::$_15, std::__ndk1::allocator<Tab5::init()::$_15>, void (std::__ndk1::basic_string<char, std::__ndk1::char_traits<char>, std::__ndk1::allocator<char> > const&)>::target(std::type_info const&) const
FUNC 2d9f8 c 0 std::__ndk1::__function::__func<Tab5::init()::$_15, std::__ndk1::allocator<Tab5::init()::$_15>, void (std::__ndk1::basic_string<char, std::__ndk1::char_traits<char>, std::__ndk1::allocator<char> > const&)>::target_type() const
FUNC 2da04 4 0 std::__ndk1::__function::__func<Tab5::init()::$_16, std::__ndk1::allocator<Tab5::init()::$_16>, void (std::__ndk1::basic_string<char, std::__ndk1::char_traits<char>, std::__ndk1::allocator<char> > const&)>::~__func()
FUNC 2da08 20 0 std::__ndk1::__function::__func<Tab5::init()::$_16, std::__ndk1::allocator<Tab5::init()::$_16>, void (std::__ndk1::basic_string<char, std::__ndk1::char_traits<char>, std::__ndk1::allocator<char> > const&)>::__clone() const
FUNC 2da28 14 0 std::__ndk1::__function::__func<Tab5::init()::$_16, std::__ndk1::allocator<Tab5::init()::$_16>, void (std::__ndk1::basic_string<char, std::__ndk1::char_traits<char>, std::__ndk1::allocator<char> > const&)>::__clone(std::__ndk1::__function::__base<void (std::__ndk1::basic_string<char, std::__ndk1::char_traits<char>, std::__ndk1::allocator<char> > const&)>*) const
FUNC 2da3c 2 0 std::__ndk1::__function::__func<Tab5::init()::$_16, std::__ndk1::allocator<Tab5::init()::$_16>, void (std::__ndk1::basic_string<char, std::__ndk1::char_traits<char>, std::__ndk1::allocator<char> > const&)>::destroy()
FUNC 2da3e 4 0 std::__ndk1::__function::__func<Tab5::init()::$_16, std::__ndk1::allocator<Tab5::init()::$_16>, void (std::__ndk1::basic_string<char, std::__ndk1::char_traits<char>, std::__ndk1::allocator<char> > const&)>::destroy_deallocate()
FUNC 2da44 68 0 std::__ndk1::__function::__func<Tab5::init()::$_16, std::__ndk1::allocator<Tab5::init()::$_16>, void (std::__ndk1::basic_string<char, std::__ndk1::char_traits<char>, std::__ndk1::allocator<char> > const&)>::operator()(std::__ndk1::basic_string<char, std::__ndk1::char_traits<char>, std::__ndk1::allocator<char> > const&)
FUNC 2daac 18 0 std::__ndk1::__function::__func<Tab5::init()::$_16, std::__ndk1::allocator<Tab5::init()::$_16>, void (std::__ndk1::basic_string<char, std::__ndk1::char_traits<char>, std::__ndk1::allocator<char> > const&)>::target(std::type_info const&) const
FUNC 2dac4 c 0 std::__ndk1::__function::__func<Tab5::init()::$_16, std::__ndk1::allocator<Tab5::init()::$_16>, void (std::__ndk1::basic_string<char, std::__ndk1::char_traits<char>, std::__ndk1::allocator<char> > const&)>::target_type() const
FUNC 2dad0 4 0 std::__ndk1::__function::__func<Tab5::init()::$_17, std::__ndk1::allocator<Tab5::init()::$_17>, void (std::__ndk1::basic_string<char, std::__ndk1::char_traits<char>, std::__ndk1::allocator<char> > const&)>::~__func()
FUNC 2dad4 20 0 std::__ndk1::__function::__func<Tab5::init()::$_17, std::__ndk1::allocator<Tab5::init()::$_17>, void (std::__ndk1::basic_string<char, std::__ndk1::char_traits<char>, std::__ndk1::allocator<char> > const&)>::__clone() const
FUNC 2daf4 14 0 std::__ndk1::__function::__func<Tab5::init()::$_17, std::__ndk1::allocator<Tab5::init()::$_17>, void (std::__ndk1::basic_string<char, std::__ndk1::char_traits<char>, std::__ndk1::allocator<char> > const&)>::__clone(std::__ndk1::__function::__base<void (std::__ndk1::basic_string<char, std::__ndk1::char_traits<char>, std::__ndk1::allocator<char> > const&)>*) const
FUNC 2db08 2 0 std::__ndk1::__function::__func<Tab5::init()::$_17, std::__ndk1::allocator<Tab5::init()::$_17>, void (std::__ndk1::basic_string<char, std::__ndk1::char_traits<char>, std::__ndk1::allocator<char> > const&)>::destroy()
FUNC 2db0a 4 0 std::__ndk1::__function::__func<Tab5::init()::$_17, std::__ndk1::allocator<Tab5::init()::$_17>, void (std::__ndk1::basic_string<char, std::__ndk1::char_traits<char>, std::__ndk1::allocator<char> > const&)>::destroy_deallocate()
FUNC 2db10 68 0 std::__ndk1::__function::__func<Tab5::init()::$_17, std::__ndk1::allocator<Tab5::init()::$_17>, void (std::__ndk1::basic_string<char, std::__ndk1::char_traits<char>, std::__ndk1::allocator<char> > const&)>::operator()(std::__ndk1::basic_string<char, std::__ndk1::char_traits<char>, std::__ndk1::allocator<char> > const&)
FUNC 2db78 18 0 std::__ndk1::__function::__func<Tab5::init()::$_17, std::__ndk1::allocator<Tab5::init()::$_17>, void (std::__ndk1::basic_string<char, std::__ndk1::char_traits<char>, std::__ndk1::allocator<char> > const&)>::target(std::type_info const&) const
FUNC 2db90 c 0 std::__ndk1::__function::__func<Tab5::init()::$_17, std::__ndk1::allocator<Tab5::init()::$_17>, void (std::__ndk1::basic_string<char, std::__ndk1::char_traits<char>, std::__ndk1::allocator<char> > const&)>::target_type() const
FUNC 2db9c 4 0 std::__ndk1::__function::__func<Tab5::init()::$_18, std::__ndk1::allocator<Tab5::init()::$_18>, void (std::__ndk1::basic_string<char, std::__ndk1::char_traits<char>, std::__ndk1::allocator<char> > const&)>::~__func()
FUNC 2dba0 20 0 std::__ndk1::__function::__func<Tab5::init()::$_18, std::__ndk1::allocator<Tab5::init()::$_18>, void (std::__ndk1::basic_string<char, std::__ndk1::char_traits<char>, std::__ndk1::allocator<char> > const&)>::__clone() const
FUNC 2dbc0 14 0 std::__ndk1::__function::__func<Tab5::init()::$_18, std::__ndk1::allocator<Tab5::init()::$_18>, void (std::__ndk1::basic_string<char, std::__ndk1::char_traits<char>, std::__ndk1::allocator<char> > const&)>::__clone(std::__ndk1::__function::__base<void (std::__ndk1::basic_string<char, std::__ndk1::char_traits<char>, std::__ndk1::allocator<char> > const&)>*) const
FUNC 2dbd4 2 0 std::__ndk1::__function::__func<Tab5::init()::$_18, std::__ndk1::allocator<Tab5::init()::$_18>, void (std::__ndk1::basic_string<char, std::__ndk1::char_traits<char>, std::__ndk1::allocator<char> > const&)>::destroy()
FUNC 2dbd6 4 0 std::__ndk1::__function::__func<Tab5::init()::$_18, std::__ndk1::allocator<Tab5::init()::$_18>, void (std::__ndk1::basic_string<char, std::__ndk1::char_traits<char>, std::__ndk1::allocator<char> > const&)>::destroy_deallocate()
FUNC 2dbdc 68 0 std::__ndk1::__function::__func<Tab5::init()::$_18, std::__ndk1::allocator<Tab5::init()::$_18>, void (std::__ndk1::basic_string<char, std::__ndk1::char_traits<char>, std::__ndk1::allocator<char> > const&)>::operator()(std::__ndk1::basic_string<char, std::__ndk1::char_traits<char>, std::__ndk1::allocator<char> > const&)
FUNC 2dc44 18 0 std::__ndk1::__function::__func<Tab5::init()::$_18, std::__ndk1::allocator<Tab5::init()::$_18>, void (std::__ndk1::basic_string<char, std::__ndk1::char_traits<char>, std::__ndk1::allocator<char> > const&)>::target(std::type_info const&) const
FUNC 2dc5c c 0 std::__ndk1::__function::__func<Tab5::init()::$_18, std::__ndk1::allocator<Tab5::init()::$_18>, void (std::__ndk1::basic_string<char, std::__ndk1::char_traits<char>, std::__ndk1::allocator<char> > const&)>::target_type() const
FUNC 2dc68 4 0 std::__ndk1::__function::__func<Tab5::init()::$_19, std::__ndk1::allocator<Tab5::init()::$_19>, void (std::__ndk1::basic_string<char, std::__ndk1::char_traits<char>, std::__ndk1::allocator<char> > const&)>::~__func()
FUNC 2dc6c 20 0 std::__ndk1::__function::__func<Tab5::init()::$_19, std::__ndk1::allocator<Tab5::init()::$_19>, void (std::__ndk1::basic_string<char, std::__ndk1::char_traits<char>, std::__ndk1::allocator<char> > const&)>::__clone() const
FUNC 2dc8c 14 0 std::__ndk1::__function::__func<Tab5::init()::$_19, std::__ndk1::allocator<Tab5::init()::$_19>, void (std::__ndk1::basic_string<char, std::__ndk1::char_traits<char>, std::__ndk1::allocator<char> > const&)>::__clone(std::__ndk1::__function::__base<void (std::__ndk1::basic_string<char, std::__ndk1::char_traits<char>, std::__ndk1::allocator<char> > const&)>*) const
FUNC 2dca0 2 0 std::__ndk1::__function::__func<Tab5::init()::$_19, std::__ndk1::allocator<Tab5::init()::$_19>, void (std::__ndk1::basic_string<char, std::__ndk1::char_traits<char>, std::__ndk1::allocator<char> > const&)>::destroy()
FUNC 2dca2 4 0 std::__ndk1::__function::__func<Tab5::init()::$_19, std::__ndk1::allocator<Tab5::init()::$_19>, void (std::__ndk1::basic_string<char, std::__ndk1::char_traits<char>, std::__ndk1::allocator<char> > const&)>::destroy_deallocate()
FUNC 2dca8 68 0 std::__ndk1::__function::__func<Tab5::init()::$_19, std::__ndk1::allocator<Tab5::init()::$_19>, void (std::__ndk1::basic_string<char, std::__ndk1::char_traits<char>, std::__ndk1::allocator<char> > const&)>::operator()(std::__ndk1::basic_string<char, std::__ndk1::char_traits<char>, std::__ndk1::allocator<char> > const&)
FUNC 2dd10 18 0 std::__ndk1::__function::__func<Tab5::init()::$_19, std::__ndk1::allocator<Tab5::init()::$_19>, void (std::__ndk1::basic_string<char, std::__ndk1::char_traits<char>, std::__ndk1::allocator<char> > const&)>::target(std::type_info const&) const
FUNC 2dd28 c 0 std::__ndk1::__function::__func<Tab5::init()::$_19, std::__ndk1::allocator<Tab5::init()::$_19>, void (std::__ndk1::basic_string<char, std::__ndk1::char_traits<char>, std::__ndk1::allocator<char> > const&)>::target_type() const
FUNC 2dd34 20 0 geode::getMod()
FUNC 2dd54 20 0 geodeImplicitEntry
FUNC 2dd74 28 0 std::__ndk1::unordered_map<void*, bool, std::__ndk1::hash<void*>, std::__ndk1::equal_to<void*>, std::__ndk1::allocator<std::__ndk1::pair<void* const, bool> > >::~unordered_map[abi:ne190000]()
FUNC 2dd9c cc 0 wrapFunction(unsigned int, tulip::hook::WrapperMetadata const&)
FUNC 2de68 48 0 geode::impl::ResultData<void*, std::__ndk1::basic_string<char, std::__ndk1::char_traits<char>, std::__ndk1::allocator<char> > >::unwrapErr() &
FUNC 2deb0 60 0 geode::impl::ResultData<void*, std::__ndk1::basic_string<char, std::__ndk1::char_traits<char>, std::__ndk1::allocator<char> > >::~ResultData()
FUNC 2df10 46 0 tulip::hook::WrapperMetadata::~WrapperMetadata()
FUNC 2df56 10 0 cocos2d::CCObject::~CCObject()
FUNC 2df66 10 0 cocos2d::CCNode::~CCNode()
FUNC 2df76 8 0 {virtual override thunk({offset(-264)}, cocos2d::CCLayer::~CCLayer())}
FUNC 2df7e 10 0 cocos2d::CCLayer::~CCLayer()
FUNC 2df8e 14 0 {virtual override thunk({offset(-264)}, cocos2d::CCLayer::~CCLayer())}
FUNC 2dfa4 1dc 0 cocos2d::CCLayerRGBA::CCLayerRGBA()
FUNC 2e180 258 0 cocos2d::CCLayerRGBA::~CCLayerRGBA()
FUNC 2e3d8 8 0 {virtual override thunk({offset(-264)}, cocos2d::CCLayerRGBA::~CCLayerRGBA())}
FUNC 2e3e0 10 0 cocos2d::CCLayerRGBA::~CCLayerRGBA()
FUNC 2e3f0 14 0 {virtual override thunk({offset(-264)}, cocos2d::CCLayerRGBA::~CCLayerRGBA())}
FUNC 2e404 1e4 0 cocos2d::CCLayerColor::CCLayerColor()
FUNC 2e5e8 8 0 {virtual override thunk({offset(-264)}, cocos2d::CCLayerColor::~CCLayerColor())}
FUNC 2e5f0 10 0 cocos2d::CCLayerColor::~CCLayerColor()
FUNC 2e600 14 0 {virtual override thunk({offset(-264)}, cocos2d::CCLayerColor::~CCLayerColor())}
FUNC 2e614 74 0 FLAlertLayer::FLAlertLayer()
FUNC 2e688 8 0 {virtual override thunk({offset(-264)}, FLAlertLayer::~FLAlertLayer())}
FUNC 2e690 10 0 FLAlertLayer::~FLAlertLayer()
FUNC 2e6a0 14 0 {virtual override thunk({offset(-264)}, FLAlertLayer::~FLAlertLayer())}
FUNC 2e6b4 18 0 CCMenuItemSpriteExtra::create(cocos2d::CCNode*, cocos2d::CCObject*, void (cocos2d::CCObject::*)(cocos2d::CCObject*))
FUNC 2e6cc 180 0 CCMenuItemToggler::createWithStandardSprites(cocos2d::CCObject*, void (cocos2d::CCObject::*)(cocos2d::CCObject*), float)
FUNC 2e84c 2 0 cocos2d::CCObject::update(float)
FUNC 2e850 280 0 cocos2d::CCLayerColor::~CCLayerColor()
FUNC 2ead0 25c 0 cocos2d::CCLayer::~CCLayer()
FUNC 2ed2c 214 0 cocos2d::CCNode::~CCNode()
FUNC 2ef40 280 0 FLAlertLayer::~FLAlertLayer()
FUNC 2f1c0 410 0 cocos2d::CCObject::~CCObject()
FUNC 2f5d0 f8 0 _ZN5geode15UnwrapExceptionC2IRPvQsr4implE18IsStringStreamableIT_EEENS_4impl5OkTagEOS4_
FUNC 2f6c8 104 0 _ZN5geode15UnwrapExceptionC2IRNSt6__ndk112basic_stringIcNS2_11char_traitsIcEENS2_9allocatorIcEEEEQsr4implE18IsStringStreamableIT_EEENS_4impl6ErrTagEOSA_
FUNC 2f7cc 2 0 std::__ndk1::__variant_detail::__visitation::__base::__dispatcher<(unsigned int)0>::__dispatch[abi:ne190000]<std::__ndk1::__variant_detail::__dtor<std::__ndk1::__variant_detail::__traits<void*, std::__ndk1::basic_string<char, std::__ndk1::char_traits<char>, std::__ndk1::allocator<char> > >, (std::__ndk1::__variant_detail::_Trait)1>::__destroy[abi:ne190000]()::{lambda(auto:1&)#1}, std::__ndk1::__variant_detail::__base<(std::__ndk1::__variant_detail::__traits<void*, std::__ndk1::basic_string<char, std::__ndk1::char_traits<char>, std::__ndk1::allocator<char> > >)1, std::__ndk1::__variant_detail::__traits, std::__ndk1::allocator<char> >&>(std::__ndk1::__variant_detail::__dtor<std::__ndk1::__variant_detail::__traits<void*, std::__ndk1::basic_string<char, std::__ndk1::char_traits<char>, std::__ndk1::allocator<char> > >, (std::__ndk1::__variant_detail::_Trait)1>, std::__ndk1::__variant_detail::__base<(std::__ndk1::__variant_detail::__traits<void*, std::__ndk1::basic_string<char, std::__ndk1::char_traits<char>, std::__ndk1::allocator<char> > >)1, std::__ndk1::__variant_detail::__traits, std::__ndk1::allocator<char> >&)
FUNC 2f7ce e 0 std::__ndk1::__variant_detail::__visitation::__base::__dispatcher<(unsigned int)1>::__dispatch[abi:ne190000]<std::__ndk1::__variant_detail::__dtor<std::__ndk1::__variant_detail::__traits<void*, std::__ndk1::basic_string<char, std::__ndk1::char_traits<char>, std::__ndk1::allocator<char> > >, (std::__ndk1::__variant_detail::_Trait)1>::__destroy[abi:ne190000]()::{lambda(auto:1&)#1}, std::__ndk1::__variant_detail::__base<(std::__ndk1::__variant_detail::__traits<void*, std::__ndk1::basic_string<char, std::__ndk1::char_traits<char>, std::__ndk1::allocator<char> > >)1, std::__ndk1::__variant_detail::__traits, std::__ndk1::allocator<char> >&>(std::__ndk1::__variant_detail::__dtor<std::__ndk1::__variant_detail::__traits<void*, std::__ndk1::basic_string<char, std::__ndk1::char_traits<char>, std::__ndk1::allocator<char> > >, (std::__ndk1::__variant_detail::_Trait)1>, std::__ndk1::__variant_detail::__base<(std::__ndk1::__variant_detail::__traits<void*, std::__ndk1::basic_string<char, std::__ndk1::char_traits<char>, std::__ndk1::allocator<char> > >)1, std::__ndk1::__variant_detail::__traits, std::__ndk1::allocator<char> >&)
FUNC 2f7dc 3f2 0 std::__ndk1::__hash_table<std::__ndk1::__hash_value_type<void*, bool>, std::__ndk1::__unordered_map_hasher<void*, std::__ndk1::__hash_value_type<void*, bool>, std::__ndk1::hash<void*>, std::__ndk1::equal_to<void*>, true>, std::__ndk1::__unordered_map_equal<void*, std::__ndk1::__hash_value_type<void*, bool>, std::__ndk1::equal_to<void*>, std::__ndk1::hash<void*>, true>, std::__ndk1::allocator<std::__ndk1::__hash_value_type<void*, bool> > >::__emplace_unique_key_args<void*, std::__ndk1::piecewise_construct_t const&, std::__ndk1::tuple<void* const&>, std::__ndk1::tuple<> >(void* const&, std::__ndk1::piecewise_construct_t const&, std::__ndk1::tuple<void* const&>, std::__ndk1::tuple<>)
FUNC 2fbd0 1cc 0 fmt::v11::detail::write_loc(fmt::v11::basic_appender<char>, fmt::v11::loc_value, fmt::v11::format_specs const&, fmt::v11::detail::locale_ref)
FUNC 2fd9c 44 0 fmt::v11::format_facet<std::__ndk1::locale>::~format_facet()
FUNC 2fde0 38 0 fmt::v11::report_error(char const*)
FUNC 2fe18 18 0 fmt::v11::format_error::runtime_error(char const*)
FUNC 2fe30 420 0 fmt::v11::format_facet<std::__ndk1::locale>::do_put(fmt::v11::basic_appender<char>, fmt::v11::loc_value, fmt::v11::format_specs const&) const
FUNC 30250 30 0 fmt::v11::detail::loc_writer<char>::~loc_writer()
FUNC 30280 c0 0 fmt::v11::vformat(fmt::v11::basic_string_view<char>, fmt::v11::basic_format_args<fmt::v11::context>)
FUNC 30340 198 0 fmt::v11::detail::dragonbox::cache_accessor<double>::get_cached_power(int)
FUNC 304d8 278 0 fmt::v11::detail::vformat_to<char>(fmt::v11::detail::buffer<char>&, fmt::v11::basic_string_view<char>, fmt::v11::detail::vformat_args<char>::type, fmt::v11::detail::locale_ref)
FUNC 30750 228 0 fmt::v11::detail::is_printable(unsigned int)
FUNC 30978 360 0 fmt::v11::detail::dragonbox::to_decimal<float>(float)
FUNC 30cd8 7fc 0 fmt::v11::detail::dragonbox::to_decimal<double>(double)
FUNC 314d4 4c 0 fmt::v11::basic_memory_buffer<char, (unsigned int)500, std::__ndk1::allocator<char> >::grow(fmt::v11::detail::buffer<char>&, unsigned int)
FUNC 31520 48 0 fmt::v11::format_facet<std::__ndk1::locale>::~format_facet()
FUNC 31568 10 0 fmt::v11::format_error::~format_error()
FUNC 31578 9a 0 fmt::v11::detail::copy_noinline<char, char const*, fmt::v11::basic_appender<char> >(char const*, char const*, fmt::v11::basic_appender<char>)
FUNC 31614 54 0 fmt::v11::detail::default_arg_formatter<char>::operator()<bool>(bool)
FUNC 31668 34 0 fmt::v11::detail::default_arg_formatter<char>::operator()<char>(char)
FUNC 316a0 e8 0 fmt::v11::detail::default_arg_formatter<char>::operator()<float>(float)
FUNC 31790 ec 0 fmt::v11::detail::default_arg_formatter<char>::operator()<double>(double)
FUNC 31880 ec 0 fmt::v11::detail::default_arg_formatter<char>::operator()<long double>(long double)
FUNC 3196c 2c 0 fmt::v11::detail::default_arg_formatter<char>::operator()<char const*>(char const*)
FUNC 31998 74 0 fmt::v11::detail::default_arg_formatter<char>::operator()<void const*>(void const*)
FUNC 31a0c 1b0 0 _ZN3fmt3v116detail5writeIcNS0_14basic_appenderIcEEiTnNSt6__ndk19enable_ifIXaaaasr11is_integralIT1_EE5valuentsr3std7is_sameIS7_bEE5valuentsr3std7is_sameIS7_T_EE5valueEiE4typeELi0EEET0_SB_S7_
FUNC 31bbc 9a 0 fmt::v11::detail::copy_noinline<char, char*, fmt::v11::basic_appender<char> >(char*, char*, fmt::v11::basic_appender<char>)
FUNC 31c58 174 0 _ZN3fmt3v116detail5writeIcNS0_14basic_appenderIcEEjTnNSt6__ndk19enable_ifIXaaaasr11is_integralIT1_EE5valuentsr3std7is_sameIS7_bEE5valuentsr3std7is_sameIS7_T_EE5valueEiE4typeELi0EEET0_SB_S7_
FUNC 31dcc 218 0 _ZN3fmt3v116detail5writeIcNS0_14basic_appenderIcEExTnNSt6__ndk19enable_ifIXaaaasr11is_integralIT1_EE5valuentsr3std7is_sameIS7_bEE5valuentsr3std7is_sameIS7_T_EE5valueEiE4typeELi0EEET0_SB_S7_
FUNC 31fe4 1dc 0 _ZN3fmt3v116detail5writeIcNS0_14basic_appenderIcEEyTnNSt6__ndk19enable_ifIXaaaasr11is_integralIT1_EE5valuentsr3std7is_sameIS7_bEE5valuentsr3std7is_sameIS7_T_EE5valueEiE4typeELi0EEET0_SB_S7_
FUNC 321c0 188 0 _ZN3fmt3v116detail5writeIcNS0_14basic_appenderIcEEbTnNSt6__ndk19enable_ifIXsr3std7is_sameIT1_bEE5valueEiE4typeELi0EEET0_SA_S7_RKNS0_12format_specsENS1_10locale_refE
FUNC 32348 9f8 0 fmt::v11::detail::write_int_noinline<char, fmt::v11::basic_appender<char>, unsigned int>(fmt::v11::basic_appender<char>, fmt::v11::detail::write_int_arg<unsigned int>, fmt::v11::format_specs const&, fmt::v11::detail::locale_ref)
FUNC 32d40 fa 0 fmt::v11::detail::fill<char, fmt::v11::basic_appender<char> >(fmt::v11::basic_appender<char>, unsigned int, fmt::v11::detail::fill_t const&)
FUNC 32e3c 184 0 fmt::v11::detail::write_padded<char, (fmt::v11::align::type)1, fmt::v11::basic_appender<char>, fmt::v11::detail::write_char<char, fmt::v11::basic_appender<char> >(fmt::v11::basic_appender<char>, char, fmt::v11::format_specs const&)::{lambda(fmt::v11::basic_appender<char>&)#1}>(fmt::v11::basic_appender<char>, fmt::v11::format_specs const&, unsigned int, unsigned int, fmt::v11::detail::write_char<char, fmt::v11::basic_appender<char> >(fmt::v11::basic_appender<char>, char, fmt::v11::format_specs const&)::{lambda(fmt::v11::basic_appender<char>&)#1})
FUNC 32fc0 210 0 fmt::v11::detail::write_escaped_cp<fmt::v11::basic_appender<char>, char>(fmt::v11::basic_appender<char>, fmt::v11::detail::find_escape_result<char> const&)
FUNC 331d0 e0 0 fmt::v11::detail::write_codepoint<(unsigned int)2, char, fmt::v11::basic_appender<char> >(fmt::v11::basic_appender<char>, char, unsigned int)
FUNC 332b0 e0 0 fmt::v11::detail::write_codepoint<(unsigned int)8, char, fmt::v11::basic_appender<char> >(fmt::v11::basic_appender<char>, char, unsigned int)
FUNC 33390 140 0 fmt::v11::detail::write_padded<char, (fmt::v11::align::type)1, fmt::v11::basic_appender<char>, fmt::v11::detail::write_nonfinite<char, fmt::v11::basic_appender<char> >(fmt::v11::basic_appender<char>, bool, fmt::v11::format_specs, fmt::v11::sign::type)::{lambda(fmt::v11::basic_appender<char>&)#1}>(fmt::v11::basic_appender<char>, fmt::v11::format_specs const&, unsigned int, unsigned int, fmt::v11::detail::write_nonfinite<char, fmt::v11::basic_appender<char> >(fmt::v11::basic_appender<char>, bool, fmt::v11::format_specs, fmt::v11::sign::type)::{lambda(fmt::v11::basic_appender<char>&)#1})
FUNC 334d0 904 0 fmt::v11::detail::do_write_float<char, fmt::v11::basic_appender<char>, fmt::v11::detail::dragonbox::decimal_fp<float>, fmt::v11::detail::digit_grouping<char> >(fmt::v11::basic_appender<char>, fmt::v11::detail::dragonbox::decimal_fp<float> const&, fmt::v11::format_specs const&, fmt::v11::detail::float_specs, fmt::v11::detail::locale_ref)
FUNC 33dd4 e0 0 fmt::v11::detail::do_write_float<char, fmt::v11::basic_appender<char>, fmt::v11::detail::dragonbox::decimal_fp<float>, fmt::v11::detail::digit_grouping<char> >(fmt::v11::basic_appender<char>, fmt::v11::detail::dragonbox::decimal_fp<float> const&, fmt::v11::format_specs const&, fmt::v11::detail::float_specs, fmt::v11::detail::locale_ref)::{lambda(fmt::v11::basic_appender<char>(fmt::v11::basic_appender<char>))#1}::operator() const
FUNC 33eb4 194 0 fmt::v11::detail::digit_grouping<char>::digit_grouping(fmt::v11::detail::locale_ref, bool)
FUNC 34048 22 0 fmt::v11::detail::digit_grouping<char>::~digit_grouping()
FUNC 3406c 104 0 fmt::v11::detail::write_exponent<char, fmt::v11::basic_appender<char> >(int, fmt::v11::basic_appender<char>)
FUNC 34170 144 0 _ZN3fmt3v116detail17write_significandIcjTnNSt6__ndk19enable_ifIXsr3std11is_integralIT0_EE5valueEiE4typeELi0EEEPT_S9_S5_iiS8_
FUNC 342b4 66 0 std::__ndk1::basic_string<char, std::__ndk1::char_traits<char>, std::__ndk1::allocator<char> >::__assign_no_alias<true>(char const*, unsigned int)
FUNC 3431a a6 0 std::__ndk1::basic_string<char, std::__ndk1::char_traits<char>, std::__ndk1::allocator<char> >::__assign_no_alias<false>(char const*, unsigned int)
FUNC 343c0 21c 0 fmt::v11::detail::digit_grouping<char>::apply<fmt::v11::basic_appender<char>, char>(fmt::v11::basic_appender<char>, fmt::v11::basic_string_view<char>) const
FUNC 345dc 6e 0 fmt::v11::basic_memory_buffer<int, (unsigned int)500, std::__ndk1::allocator<int> >::grow(fmt::v11::detail::buffer<int>&, unsigned int)
FUNC 3464c 9ac 0 fmt::v11::detail::do_write_float<char, fmt::v11::basic_appender<char>, fmt::v11::detail::dragonbox::decimal_fp<double>, fmt::v11::detail::digit_grouping<char> >(fmt::v11::basic_appender<char>, fmt::v11::detail::dragonbox::decimal_fp<double> const&, fmt::v11::format_specs const&, fmt::v11::detail::float_specs, fmt::v11::detail::locale_ref)
FUNC 34ff8 e8 0 fmt::v11::detail::do_write_float<char, fmt::v11::basic_appender<char>, fmt::v11::detail::dragonbox::decimal_fp<double>, fmt::v11::detail::digit_grouping<char> >(fmt::v11::basic_appender<char>, fmt::v11::detail::dragonbox::decimal_fp<double> const&, fmt::v11::format_specs const&, fmt::v11::detail::float_specs, fmt::v11::detail::locale_ref)::{lambda(fmt::v11::basic_appender<char>(fmt::v11::basic_appender<char>))#1}::operator() const
FUNC 350e0 19c 0 _ZN3fmt3v116detail17write_significandIcyTnNSt6__ndk19enable_ifIXsr3std11is_integralIT0_EE5valueEiE4typeELi0EEEPT_S9_S5_iiS8_
FUNC 3527c 150 0 fmt::v11::detail::write_padded<char, (fmt::v11::align::type)2, fmt::v11::basic_appender<char>, fmt::v11::detail::write_ptr<char, fmt::v11::basic_appender<char>, unsigned int>(fmt::v11::basic_appender<char>, unsigned int, fmt::v11::format_specs const*)::{lambda(fmt::v11::basic_appender<char>&)#1}>(fmt::v11::basic_appender<char>, fmt::v11::format_specs const&, unsigned int, unsigned int, fmt::v11::detail::write_ptr<char, fmt::v11::basic_appender<char>, unsigned int>(fmt::v11::basic_appender<char>, unsigned int, fmt::v11::format_specs const*)::{lambda(fmt::v11::basic_appender<char>&)#1})
FUNC 353d0 1808 0 fmt::v11::detail::parse_replacement_field<char, fmt::v11::detail::vformat_to<char>(fmt::v11::detail::buffer<char>&, fmt::v11::basic_string_view<char>, fmt::v11::detail::vformat_args<char>::type, fmt::v11::detail::locale_ref)::format_handler&>(char const*, char const*, fmt::v11::detail::vformat_to<char>(fmt::v11::detail::buffer<char>&, fmt::v11::basic_string_view<char>, fmt::v11::detail::vformat_args<char>::type, fmt::v11::detail::locale_ref)::format_handler&)
FUNC 36bd8 1cc 0 fmt::v11::detail::parse_dynamic_spec<char>(char const*, char const*, int&, fmt::v11::detail::arg_ref<char>&, fmt::v11::basic_format_parse_context<char>&)
FUNC 36da4 f6 0 fmt::v11::basic_format_args<fmt::v11::context>::get<char>(fmt::v11::basic_string_view<char>) const
FUNC 36e9c b78 0 fmt::v11::detail::write_int_noinline<char, fmt::v11::basic_appender<char>, unsigned long long>(fmt::v11::basic_appender<char>, fmt::v11::detail::write_int_arg<unsigned long long>, fmt::v11::format_specs const&, fmt::v11::detail::locale_ref)
FUNC 37a14 3a4 0 _ZN3fmt3v116detail15format_hexfloatIdTnNSt6__ndk19enable_ifIXntsr16is_double_doubleIT_EE5valueEiE4typeELi0EEEvS5_NS0_12format_specsERNS1_6bufferIcEE
FUNC 37db8 ebc 0 fmt::v11::detail::format_float<double>(double, int, fmt::v11::detail::float_specs, fmt::v11::detail::buffer<char>&)
FUNC 38c74 10c 0 fmt::v11::detail::write_padded<char, (fmt::v11::align::type)2, fmt::v11::basic_appender<char>, fmt::v11::detail::write_bytes<char, (fmt::v11::align::type)2, fmt::v11::basic_appender<char> >(fmt::v11::basic_appender<char>, fmt::v11::basic_string_view<char>, fmt::v11::format_specs const&)::{lambda(fmt::v11::basic_appender<char>&)#1}>(fmt::v11::basic_appender<char>, fmt::v11::format_specs const&, unsigned int, unsigned int, fmt::v11::detail::write_bytes<char, (fmt::v11::align::type)2, fmt::v11::basic_appender<char> >(fmt::v11::basic_appender<char>, fmt::v11::basic_string_view<char>, fmt::v11::format_specs const&)::{lambda(fmt::v11::basic_appender<char>&)#1})
FUNC 38d80 c4 0 fmt::v11::detail::bigint::operator<<=(int)
FUNC 38e44 414 0 fmt::v11::detail::bigint::assign_pow10(int)
FUNC 39258 276 0 fmt::v11::detail::bigint::divmod_assign(fmt::v11::detail::bigint const&)
FUNC 394ce 6e 0 fmt::v11::basic_memory_buffer<unsigned int, (unsigned int)32, std::__ndk1::allocator<unsigned int> >::grow(fmt::v11::detail::buffer<unsigned int>&, unsigned int)
FUNC 3953c 994 0 fmt::v11::detail::do_write_float<char, fmt::v11::basic_appender<char>, fmt::v11::detail::big_decimal_fp, fmt::v11::detail::digit_grouping<char> >(fmt::v11::basic_appender<char>, fmt::v11::detail::big_decimal_fp const&, fmt::v11::format_specs const&, fmt::v11::detail::float_specs, fmt::v11::detail::locale_ref)
FUNC 39ed0 e0 0 fmt::v11::detail::do_write_float<char, fmt::v11::basic_appender<char>, fmt::v11::detail::big_decimal_fp, fmt::v11::detail::digit_grouping<char> >(fmt::v11::basic_appender<char>, fmt::v11::detail::big_decimal_fp const&, fmt::v11::format_specs const&, fmt::v11::detail::float_specs, fmt::v11::detail::locale_ref)::{lambda(fmt::v11::basic_appender<char>(fmt::v11::basic_appender<char>))#1}::operator() const
FUNC 39fb0 834 0 fmt::v11::detail::write<char, fmt::v11::basic_appender<char> >(fmt::v11::basic_appender<char>, fmt::v11::basic_string_view<char>, fmt::v11::format_specs const&)
FUNC 3a7e4 124 0 fmt::v11::detail::for_each_codepoint<fmt::v11::detail::find_escape(char const*, char const*)::{lambda(unsigned int, fmt::v11::basic_string_view<char>)#1}>(fmt::v11::basic_string_view<char>, fmt::v11::detail::find_escape(char const*, char const*)::{lambda(unsigned int, fmt::v11::basic_string_view<char>)#1})::{lambda(char const*, char const*)#1}::operator()(char const*, char const*) const
FUNC 3a910 1e4 0 fmt::v11::detail::for_each_codepoint<fmt::v11::detail::compute_width(fmt::v11::basic_string_view<char>)::count_code_points>(fmt::v11::basic_string_view<char>, fmt::v11::detail::compute_width(fmt::v11::basic_string_view<char>)::count_code_points)::{lambda(char const*, char const*)#1}::operator()(char const*, char const*) const
FUNC 3aaf4 544 0 fmt::v11::detail::write_int<fmt::v11::basic_appender<char>, unsigned long long, char>(fmt::v11::basic_appender<char>, unsigned long long, unsigned int, fmt::v11::format_specs const&, fmt::v11::detail::digit_grouping<char> const&)
PUBLIC 3b039 0 __ThumbV7PILongThunk___cxa_atexit
PUBLIC 3b045 0 __ThumbV7PILongThunk__ZdlPv
PUBLIC 3b051 0 __ThumbV7PILongThunk__ZN5geode17openSettingsPopupEPNS_3ModE
PUBLIC 3b05d 0 __ThumbV7PILongThunk__ZNSt6__ndk16locale5facetD2Ev
PUBLIC 3b070 0 <.plt ELF section in ninsam.to-do_list.android32.so>
STACK CFI INIT 18514 778 .cfa: sp 0 +
STACK CFI 18516 .cfa: sp 20 + .ra: .cfa -4 + ^ r7: .cfa -8 + ^ r6: .cfa -12 + ^ r5: .cfa -16 + ^ r4: .cfa -20 + ^
STACK CFI 18518 .cfa: r7 8 +
STACK CFI 1851c r11: .cfa -24 + ^ r10: .cfa -28 + ^ r9: .cfa -32 + ^ r8: .cfa -36 + ^
STACK CFI INIT 18c8c 1c .cfa: sp 0 +
STACK CFI 18c8e .cfa: sp 16 + .ra: .cfa -4 + ^ r7: .cfa -8 + ^ r6: .cfa -12 + ^ r4: .cfa -16 + ^
STACK CFI 18c90 .cfa: r7 8 +
STACK CFI INIT 18cb0 580 .cfa: sp 0 +
STACK CFI 18cb2 .cfa: sp 20 + .ra: .cfa -4 + ^ r7: .cfa -8 + ^ r6: .cfa -12 + ^ r5: .cfa -16 + ^ r4: .cfa -20 + ^
STACK CFI 18cb4 .cfa: r7 8 +
STACK CFI 18cb8 r11: .cfa -24 + ^ r9: .cfa -28 + ^ r8: .cfa -32 + ^
STACK CFI INIT 19230 3a .cfa: sp 0 +
STACK CFI 19232 .cfa: sp 16 + .ra: .cfa -4 + ^ r7: .cfa -8 + ^ r5: .cfa -12 + ^ r4: .cfa -16 + ^
STACK CFI 19234 .cfa: r7 8 +
STACK CFI INIT 1926c 60 .cfa: sp 0 +
STACK CFI 1926e .cfa: sp 16 + .ra: .cfa -4 + ^ r7: .cfa -8 + ^ r6: .cfa -12 + ^ r4: .cfa -16 + ^
STACK CFI 19270 .cfa: r7 8 +
STACK CFI INIT 192cc 3e .cfa: sp 0 +
STACK CFI 192ce .cfa: sp 20 + .ra: .cfa -4 + ^ r7: .cfa -8 + ^ r6: .cfa -12 + ^ r5: .cfa -16 + ^ r4: .cfa -20 + ^
STACK CFI 192d0 .cfa: r7 8 +
STACK CFI 192d4 r11: .cfa -24 + ^
STACK CFI INIT 1930a 2 .cfa: sp 0 +
STACK CFI INIT 1930c c .cfa: sp 0 +
STACK CFI 1930e .cfa: sp 8 + .ra: .cfa -4 + ^ r7: .cfa -8 + ^
STACK CFI 19310 .cfa: r7 8 +
STACK CFI INIT 19318 f8 .cfa: sp 0 +
STACK CFI 1931a .cfa: sp 20 + .ra: .cfa -4 + ^ r7: .cfa -8 + ^ r6: .cfa -12 + ^ r5: .cfa -16 + ^ r4: .cfa -20 + ^
STACK CFI 1931c .cfa: r7 8 +
STACK CFI 19320 r8: .cfa -24 + ^
STACK CFI INIT 19410 34 .cfa: sp 0 +
STACK CFI 19412 .cfa: sp 8 + .ra: .cfa -4 + ^ r7: .cfa -8 + ^
STACK CFI 19414 .cfa: r7 8 +
STACK CFI INIT 19444 d8 .cfa: sp 0 +
STACK CFI 19446 .cfa: sp 20 + .ra: .cfa -4 + ^ r7: .cfa -8 + ^ r6: .cfa -12 + ^ r5: .cfa -16 + ^ r4: .cfa -20 + ^
STACK CFI 19448 .cfa: r7 8 +
STACK CFI 1944c r11: .cfa -24 + ^ r10: .cfa -28 + ^ r9: .cfa -32 + ^ r8: .cfa -36 + ^
STACK CFI INIT 1951c 68 .cfa: sp 0 +
STACK CFI 1951e .cfa: sp 20 + .ra: .cfa -4 + ^ r7: .cfa -8 + ^ r6: .cfa -12 + ^ r5: .cfa -16 + ^ r4: .cfa -20 + ^
STACK CFI 19520 .cfa: r7 8 +
STACK CFI 19524 r11: .cfa -24 + ^
STACK CFI INIT 19584 10 .cfa: sp 0 +
STACK CFI 19586 .cfa: sp 8 + .ra: .cfa -4 + ^ r7: .cfa -8 + ^
STACK CFI 19588 .cfa: r7 8 +
STACK CFI INIT 19594 108 .cfa: sp 0 +
STACK CFI 19596 .cfa: sp 20 + .ra: .cfa -4 + ^ r7: .cfa -8 + ^ r6: .cfa -12 + ^ r5: .cfa -16 + ^ r4: .cfa -20 + ^
STACK CFI 19598 .cfa: r7 8 +
STACK CFI 1959c r11: .cfa -24 + ^ r10: .cfa -28 + ^ r9: .cfa -32 + ^ r8: .cfa -36 + ^
STACK CFI INIT 1969c 110 .cfa: sp 0 +
STACK CFI 1969e .cfa: sp 20 + .ra: .cfa -4 + ^ r7: .cfa -8 + ^ r6: .cfa -12 + ^ r5: .cfa -16 + ^ r4: .cfa -20 + ^
STACK CFI 196a0 .cfa: r7 8 +
STACK CFI 196a4 r11: .cfa -24 + ^ r10: .cfa -28 + ^ r9: .cfa -32 + ^ r8: .cfa -36 + ^
STACK CFI INIT 197ac 10 .cfa: sp 0 +
STACK CFI 197ae .cfa: sp 8 + .ra: .cfa -4 + ^ r7: .cfa -8 + ^
STACK CFI 197b0 .cfa: r7 8 +
STACK CFI INIT 197bc 38 .cfa: sp 0 +
STACK CFI 197be .cfa: sp 16 + .ra: .cfa -4 + ^ r7: .cfa -8 + ^ r5: .cfa -12 + ^ r4: .cfa -16 + ^
STACK CFI 197c0 .cfa: r7 8 +
STACK CFI INIT 197f4 18 .cfa: sp 0 +
STACK CFI 197f6 .cfa: sp 8 + .ra: .cfa -4 + ^ r7: .cfa -8 + ^
STACK CFI 197f8 .cfa: r7 8 +
STACK CFI INIT 1980c 28 .cfa: sp 0 +
STACK CFI 1980e .cfa: sp 8 + .ra: .cfa -4 + ^ r7: .cfa -8 + ^
STACK CFI 19810 .cfa: r7 8 +
STACK CFI INIT 19834 da .cfa: sp 0 +
STACK CFI 19836 .cfa: sp 20 + .ra: .cfa -4 + ^ r7: .cfa -8 + ^ r6: .cfa -12 + ^ r5: .cfa -16 + ^ r4: .cfa -20 + ^
STACK CFI 19838 .cfa: r7 8 +
STACK CFI 1983c r11: .cfa -24 + ^
STACK CFI INIT 1990e e0 .cfa: sp 0 +
STACK CFI 19910 .cfa: sp 20 + .ra: .cfa -4 + ^ r7: .cfa -8 + ^ r6: .cfa -12 + ^ r5: .cfa -16 + ^ r4: .cfa -20 + ^
STACK CFI 19912 .cfa: r7 8 +
STACK CFI 19916 r11: .cfa -24 + ^ r9: .cfa -28 + ^ r8: .cfa -32 + ^
STACK CFI INIT 199ee 5e .cfa: sp 0 +
STACK CFI 199f6 .cfa: sp 20 + .ra: .cfa -4 + ^ r7: .cfa -8 + ^ r6: .cfa -12 + ^ r5: .cfa -16 + ^ r4: .cfa -20 + ^
STACK CFI 199f8 .cfa: r7 8 +
STACK CFI 199fc r8: .cfa -24 + ^
STACK CFI INIT 19a4c 3c .cfa: sp 0 +
STACK CFI 19a4e .cfa: sp 16 + .ra: .cfa -4 + ^ r7: .cfa -8 + ^ r6: .cfa -12 + ^ r4: .cfa -16 + ^
STACK CFI 19a50 .cfa: r7 8 +
STACK CFI INIT 19a88 18 .cfa: sp 0 +
STACK CFI 19a8a .cfa: sp 8 + .ra: .cfa -4 + ^ r7: .cfa -8 + ^
STACK CFI 19a8c .cfa: r7 8 +
STACK CFI INIT 19aa0 46 .cfa: sp 0 +
STACK CFI 19aa2 .cfa: sp 20 + .ra: .cfa -4 + ^ r7: .cfa -8 + ^ r6: .cfa -12 + ^ r5: .cfa -16 + ^ r4: .cfa -20 + ^
STACK CFI 19aa4 .cfa: r7 8 +
STACK CFI 19aa8 r8: .cfa -24 + ^
STACK CFI INIT 19ae6 3c .cfa: sp 0 +
STACK CFI 19ae8 .cfa: sp 16 + .ra: .cfa -4 + ^ r7: .cfa -8 + ^ r5: .cfa -12 + ^ r4: .cfa -16 + ^
STACK CFI 19aea .cfa: r7 8 +
STACK CFI INIT 19b24 10 .cfa: sp 0 +
STACK CFI 19b26 .cfa: sp 8 + .ra: .cfa -4 + ^ r7: .cfa -8 + ^
STACK CFI 19b28 .cfa: r7 8 +
STACK CFI INIT 19b34 2 .cfa: sp 0 +
STACK CFI INIT 19b36 e .cfa: sp 0 +
STACK CFI INIT 19b44 5a .cfa: sp 0 +
STACK CFI 19b4c .cfa: sp 16 + .ra: .cfa -4 + ^ r7: .cfa -8 + ^ r5: .cfa -12 + ^ r4: .cfa -16 + ^
STACK CFI 19b4e .cfa: r7 8 +
STACK CFI INIT 19ba0 260 .cfa: sp 0 +
STACK CFI 19ba2 .cfa: sp 20 + .ra: .cfa -4 + ^ r7: .cfa -8 + ^ r6: .cfa -12 + ^ r5: .cfa -16 + ^ r4: .cfa -20 + ^
STACK CFI 19ba4 .cfa: r7 8 +
STACK CFI 19ba8 r11: .cfa -24 + ^ r9: .cfa -28 + ^ r8: .cfa -32 + ^
STACK CFI INIT 19e00 24 .cfa: sp 0 +
STACK CFI 19e02 .cfa: sp 16 + .ra: .cfa -4 + ^ r7: .cfa -8 + ^ r5: .cfa -12 + ^ r4: .cfa -16 + ^
STACK CFI 19e04 .cfa: r7 8 +
STACK CFI INIT 19e24 3a .cfa: sp 0 +
STACK CFI 19e26 .cfa: sp 16 + .ra: .cfa -4 + ^ r7: .cfa -8 + ^ r5: .cfa -12 + ^ r4: .cfa -16 + ^
STACK CFI 19e28 .cfa: r7 8 +
STACK CFI INIT 19e5e 46 .cfa: sp 0 +
STACK CFI 19e60 .cfa: sp 16 + .ra: .cfa -4 + ^ r7: .cfa -8 + ^ r5: .cfa -12 + ^ r4: .cfa -16 + ^
STACK CFI 19e62 .cfa: r7 8 +
STACK CFI INIT 19ea4 118 .cfa: sp 0 +
STACK CFI 19ea6 .cfa: sp 20 + .ra: .cfa -4 + ^ r7: .cfa -8 + ^ r6: .cfa -12 + ^ r5: .cfa -16 + ^ r4: .cfa -20 + ^
STACK CFI 19ea8 .cfa: r7 8 +
STACK CFI 19eac r11: .cfa -24 + ^
STACK CFI INIT 19fbc 14 .cfa: sp 0 +
STACK CFI 19fbe .cfa: sp 8 + .ra: .cfa -4 + ^ r7: .cfa -8 + ^
STACK CFI 19fc0 .cfa: r7 8 +
STACK CFI INIT 19fd0 3a .cfa: sp 0 +
STACK CFI 19fd2 .cfa: sp 16 + .ra: .cfa -4 + ^ r7: .cfa -8 + ^ r5: .cfa -12 + ^ r4: .cfa -16 + ^
STACK CFI 19fd4 .cfa: r7 8 +
STACK CFI INIT 1a00c 8c .cfa: sp 0 +
STACK CFI 1a00e .cfa: sp 20 + .ra: .cfa -4 + ^ r7: .cfa -8 + ^ r6: .cfa -12 + ^ r5: .cfa -16 + ^ r4: .cfa -20 + ^
STACK CFI 1a010 .cfa: r7 8 +
STACK CFI 1a014 r11: .cfa -24 + ^ r9: .cfa -28 + ^ r8: .cfa -32 + ^
STACK CFI INIT 1a098 3fc .cfa: sp 0 +
STACK CFI 1a09a .cfa: sp 20 + .ra: .cfa -4 + ^ r7: .cfa -8 + ^ r6: .cfa -12 + ^ r5: .cfa -16 + ^ r4: .cfa -20 + ^
STACK CFI 1a09c .cfa: r7 8 +
STACK CFI 1a0a0 r11: .cfa -24 + ^ r10: .cfa -28 + ^ r9: .cfa -32 + ^ r8: .cfa -36 + ^
STACK CFI INIT 1a494 2 .cfa: sp 0 +
STACK CFI INIT 1a498 10 .cfa: sp 0 +
STACK CFI 1a49a .cfa: sp 8 + .ra: .cfa -4 + ^ r7: .cfa -8 + ^
STACK CFI 1a49c .cfa: r7 8 +
STACK CFI INIT 1a4a8 10 .cfa: sp 0 +
STACK CFI 1a4aa .cfa: sp 8 + .ra: .cfa -4 + ^ r7: .cfa -8 + ^
STACK CFI 1a4ac .cfa: r7 8 +
STACK CFI INIT 1a4b8 8 .cfa: sp 0 +
STACK CFI 1a4ba .cfa: sp 8 + .ra: .cfa -4 + ^ r7: .cfa -8 + ^
STACK CFI 1a4bc .cfa: r7 8 +
STACK CFI INIT 1a4c0 8 .cfa: sp 0 +
STACK CFI 1a4c2 .cfa: sp 8 + .ra: .cfa -4 + ^ r7: .cfa -8 + ^
STACK CFI 1a4c4 .cfa: r7 8 +
STACK CFI INIT 1a4c8 2 .cfa: sp 0 +
STACK CFI INIT 1a4ca 4 .cfa: sp 0 +
STACK CFI INIT 1a4d0 20 .cfa: sp 0 +
STACK CFI 1a4d2 .cfa: sp 16 + .ra: .cfa -4 + ^ r7: .cfa -8 + ^ r6: .cfa -12 + ^ r4: .cfa -16 + ^
STACK CFI 1a4d4 .cfa: r7 8 +
STACK CFI INIT 1a4f0 14 .cfa: sp 0 +
STACK CFI INIT 1a504 2 .cfa: sp 0 +
STACK CFI INIT 1a506 4 .cfa: sp 0 +
STACK CFI INIT 1a50a 8 .cfa: sp 0 +
STACK CFI INIT 1a514 18 .cfa: sp 0 +
STACK CFI INIT 1a52c c .cfa: sp 0 +
STACK CFI INIT 1a538 ba .cfa: sp 0 +
STACK CFI 1a53a .cfa: sp 20 + .ra: .cfa -4 + ^ r7: .cfa -8 + ^ r6: .cfa -12 + ^ r5: .cfa -16 + ^ r4: .cfa -20 + ^
STACK CFI 1a53c .cfa: r7 8 +
STACK CFI 1a540 r11: .cfa -24 + ^ r10: .cfa -28 + ^ r9: .cfa -32 + ^ r8: .cfa -36 + ^
STACK CFI INIT 1a5f2 14a .cfa: sp 0 +
STACK CFI 1a604 .cfa: sp 16 + .ra: .cfa -4 + ^ r7: .cfa -8 + ^ r6: .cfa -12 + ^ r4: .cfa -16 + ^
STACK CFI 1a606 .cfa: r7 8 +
STACK CFI INIT 1a73c 17cc .cfa: sp 0 +
STACK CFI 1a73e .cfa: sp 20 + .ra: .cfa -4 + ^ r7: .cfa -8 + ^ r6: .cfa -12 + ^ r5: .cfa -16 + ^ r4: .cfa -20 + ^
STACK CFI 1a740 .cfa: r7 8 +
STACK CFI 1a744 r11: .cfa -24 + ^ r10: .cfa -28 + ^ r9: .cfa -32 + ^ r8: .cfa -36 + ^
STACK CFI INIT 1bf08 2 .cfa: sp 0 +
STACK CFI INIT 1bf0c 1e4 .cfa: sp 0 +
STACK CFI 1bf0e .cfa: sp 20 + .ra: .cfa -4 + ^ r7: .cfa -8 + ^ r6: .cfa -12 + ^ r5: .cfa -16 + ^ r4: .cfa -20 + ^
STACK CFI 1bf10 .cfa: r7 8 +
STACK CFI 1bf14 r10: .cfa -24 + ^ r9: .cfa -28 + ^ r8: .cfa -32 + ^
STACK CFI INIT 1c0f0 8 .cfa: sp 0 +
STACK CFI INIT 1c0f8 34 .cfa: sp 0 +
STACK CFI 1c0fa .cfa: sp 16 + .ra: .cfa -4 + ^ r7: .cfa -8 + ^ r6: .cfa -12 + ^ r4: .cfa -16 + ^
STACK CFI 1c0fc .cfa: r7 8 +
STACK CFI INIT 1c12c 450 .cfa: sp 0 +
STACK CFI 1c12e .cfa: sp 20 + .ra: .cfa -4 + ^ r7: .cfa -8 + ^ r6: .cfa -12 + ^ r5: .cfa -16 + ^ r4: .cfa -20 + ^
STACK CFI 1c130 .cfa: r7 8 +
STACK CFI 1c134 r11: .cfa -24 + ^
STACK CFI INIT 1c57c 7c .cfa: sp 0 +
STACK CFI 1c57e .cfa: sp 16 + .ra: .cfa -4 + ^ r7: .cfa -8 + ^ r6: .cfa -12 + ^ r4: .cfa -16 + ^
STACK CFI 1c580 .cfa: r7 8 +
STACK CFI INIT 1c5f8 4 .cfa: sp 0 +
STACK CFI INIT 1c5fc 10 .cfa: sp 0 +
STACK CFI 1c5fe .cfa: sp 8 + .ra: .cfa -4 + ^ r7: .cfa -8 + ^
STACK CFI 1c600 .cfa: r7 8 +
STACK CFI INIT 1c60c 2 .cfa: sp 0 +
STACK CFI INIT 1c60e 4 .cfa: sp 0 +
STACK CFI INIT 1c612 8 .cfa: sp 0 +
STACK CFI INIT 1c61a 14 .cfa: sp 0 +
STACK CFI 1c61c .cfa: sp 8 + .ra: .cfa -4 + ^ r7: .cfa -8 + ^
STACK CFI 1c61e .cfa: r7 8 +
STACK CFI INIT 1c62e 2 .cfa: sp 0 +
STACK CFI INIT 1c630 2 .cfa: sp 0 +
STACK CFI INIT 1c632 2 .cfa: sp 0 +
STACK CFI INIT 1c634 2 .cfa: sp 0 +
STACK CFI INIT 1c636 2 .cfa: sp 0 +
STACK CFI INIT 1c638 4 .cfa: sp 0 +
STACK CFI INIT 1c63c 60 .cfa: sp 0 +
STACK CFI 1c63e .cfa: sp 16 + .ra: .cfa -4 + ^ r7: .cfa -8 + ^ r6: .cfa -12 + ^ r4: .cfa -16 + ^
STACK CFI 1c640 .cfa: r7 8 +
STACK CFI INIT 1c69c 60 .cfa: sp 0 +
STACK CFI 1c69e .cfa: sp 16 + .ra: .cfa -4 + ^ r7: .cfa -8 + ^ r6: .cfa -12 + ^ r4: .cfa -16 + ^
STACK CFI 1c6a0 .cfa: r7 8 +
STACK CFI INIT 1c6fc 2 .cfa: sp 0 +
STACK CFI INIT 1c6fe e .cfa: sp 0 +
STACK CFI INIT 1c70c e .cfa: sp 0 +
STACK CFI INIT 1c71a e .cfa: sp 0 +
STACK CFI INIT 1c728 4 .cfa: sp 0 +
STACK CFI INIT 1c72c 20 .cfa: sp 0 +
STACK CFI 1c72e .cfa: sp 16 + .ra: .cfa -4 + ^ r7: .cfa -8 + ^ r6: .cfa -12 + ^ r4: .cfa -16 + ^
STACK CFI 1c730 .cfa: r7 8 +
STACK CFI INIT 1c74c 14 .cfa: sp 0 +
STACK CFI INIT 1c760 2 .cfa: sp 0 +
STACK CFI INIT 1c762 4 .cfa: sp 0 +
STACK CFI INIT 1c768 68 .cfa: sp 0 +
STACK CFI 1c76a .cfa: sp 16 + .ra: .cfa -4 + ^ r7: .cfa -8 + ^ r5: .cfa -12 + ^ r4: .cfa -16 + ^
STACK CFI 1c76c .cfa: r7 8 +
STACK CFI INIT 1c7d0 18 .cfa: sp 0 +
STACK CFI INIT 1c7e8 c .cfa: sp 0 +
STACK CFI INIT 1c7f4 cc .cfa: sp 0 +
STACK CFI 1c7f6 .cfa: sp 20 + .ra: .cfa -4 + ^ r7: .cfa -8 + ^ r6: .cfa -12 + ^ r5: .cfa -16 + ^ r4: .cfa -20 + ^
STACK CFI 1c7f8 .cfa: r7 8 +
STACK CFI 1c7fc r11: .cfa -24 + ^ r9: .cfa -28 + ^ r8: .cfa -32 + ^
STACK CFI INIT 1c8c0 15c .cfa: sp 0 +
STACK CFI 1c8c2 .cfa: sp 20 + .ra: .cfa -4 + ^ r7: .cfa -8 + ^ r6: .cfa -12 + ^ r5: .cfa -16 + ^ r4: .cfa -20 + ^
STACK CFI 1c8c4 .cfa: r7 8 +
STACK CFI 1c8c8 r8: .cfa -24 + ^
STACK CFI INIT 1ca1c 4 .cfa: sp 0 +
STACK CFI INIT 1ca20 20 .cfa: sp 0 +
STACK CFI 1ca22 .cfa: sp 16 + .ra: .cfa -4 + ^ r7: .cfa -8 + ^ r6: .cfa -12 + ^ r4: .cfa -16 + ^
STACK CFI 1ca24 .cfa: r7 8 +
STACK CFI INIT 1ca40 14 .cfa: sp 0 +
STACK CFI INIT 1ca54 2 .cfa: sp 0 +
STACK CFI INIT 1ca56 4 .cfa: sp 0 +
STACK CFI INIT 1ca5c 68 .cfa: sp 0 +
STACK CFI 1ca5e .cfa: sp 16 + .ra: .cfa -4 + ^ r7: .cfa -8 + ^ r5: .cfa -12 + ^ r4: .cfa -16 + ^
STACK CFI 1ca60 .cfa: r7 8 +
STACK CFI INIT 1cac4 18 .cfa: sp 0 +
STACK CFI INIT 1cadc c .cfa: sp 0 +
STACK CFI INIT 1cae8 4 .cfa: sp 0 +
STACK CFI INIT 1caec 20 .cfa: sp 0 +
STACK CFI 1caee .cfa: sp 16 + .ra: .cfa -4 + ^ r7: .cfa -8 + ^ r6: .cfa -12 + ^ r4: .cfa -16 + ^
STACK CFI 1caf0 .cfa: r7 8 +
STACK CFI INIT 1cb0c 14 .cfa: sp 0 +
STACK CFI INIT 1cb20 2 .cfa: sp 0 +
STACK CFI INIT 1cb22 4 .cfa: sp 0 +
STACK CFI INIT 1cb28 68 .cfa: sp 0 +
STACK CFI 1cb2a .cfa: sp 16 + .ra: .cfa -4 + ^ r7: .cfa -8 + ^ r5: .cfa -12 + ^ r4: .cfa -16 + ^
STACK CFI 1cb2c .cfa: r7 8 +
STACK CFI INIT 1cb90 18 .cfa: sp 0 +
STACK CFI INIT 1cba8 c .cfa: sp 0 +
STACK CFI INIT 1cbb4 4 .cfa: sp 0 +
STACK CFI INIT 1cbb8 20 .cfa: sp 0 +
STACK CFI 1cbba .cfa: sp 16 + .ra: .cfa -4 + ^ r7: .cfa -8 + ^ r6: .cfa -12 + ^ r4: .cfa -16 + ^
STACK CFI 1cbbc .cfa: r7 8 +
STACK CFI INIT 1cbd8 14 .cfa: sp 0 +
STACK CFI INIT 1cbec 2 .cfa: sp 0 +
STACK CFI INIT 1cbee 4 .cfa: sp 0 +
STACK CFI INIT 1cbf4 68 .cfa: sp 0 +
STACK CFI 1cbf6 .cfa: sp 16 + .ra: .cfa -4 + ^ r7: .cfa -8 + ^ r5: .cfa -12 + ^ r4: .cfa -16 + ^
STACK CFI 1cbf8 .cfa: r7 8 +
STACK CFI INIT 1cc5c 18 .cfa: sp 0 +
STACK CFI INIT 1cc74 c .cfa: sp 0 +
STACK CFI INIT 1cc80 2 .cfa: sp 0 +
STACK CFI INIT 1cc82 4 .cfa: sp 0 +
STACK CFI INIT 1cc88 20 .cfa: sp 0 +
STACK CFI 1cc8a .cfa: sp 16 + .ra: .cfa -4 + ^ r7: .cfa -8 + ^ r6: .cfa -12 + ^ r4: .cfa -16 + ^
STACK CFI 1cc8c .cfa: r7 8 +
STACK CFI INIT 1cca8 14 .cfa: sp 0 +
STACK CFI INIT 1ccbc 2 .cfa: sp 0 +
STACK CFI INIT 1ccbe 4 .cfa: sp 0 +
STACK CFI INIT 1ccc4 68 .cfa: sp 0 +
STACK CFI 1ccc6 .cfa: sp 16 + .ra: .cfa -4 + ^ r7: .cfa -8 + ^ r5: .cfa -12 + ^ r4: .cfa -16 + ^
STACK CFI 1ccc8 .cfa: r7 8 +
STACK CFI INIT 1cd2c 18 .cfa: sp 0 +
STACK CFI INIT 1cd44 c .cfa: sp 0 +
STACK CFI INIT 1cd50 2120 .cfa: sp 0 +
STACK CFI 1cd52 .cfa: sp 20 + .ra: .cfa -4 + ^ r7: .cfa -8 + ^ r6: .cfa -12 + ^ r5: .cfa -16 + ^ r4: .cfa -20 + ^
STACK CFI 1cd54 .cfa: r7 8 +
STACK CFI 1cd58 r11: .cfa -24 + ^ r10: .cfa -28 + ^ r9: .cfa -32 + ^ r8: .cfa -36 + ^
STACK CFI INIT 1ee70 80 .cfa: sp 0 +
STACK CFI 1ee72 .cfa: sp 20 + .ra: .cfa -4 + ^ r7: .cfa -8 + ^ r6: .cfa -12 + ^ r5: .cfa -16 + ^ r4: .cfa -20 + ^
STACK CFI 1ee74 .cfa: r7 8 +
STACK CFI 1ee78 r10: .cfa -24 + ^ r9: .cfa -28 + ^ r8: .cfa -32 + ^
STACK CFI INIT 1eef0 88 .cfa: sp 0 +
STACK CFI 1eef2 .cfa: sp 16 + .ra: .cfa -4 + ^ r7: .cfa -8 + ^ r5: .cfa -12 + ^ r4: .cfa -16 + ^
STACK CFI 1eef4 .cfa: r7 8 +
STACK CFI INIT 1ef78 13c .cfa: sp 0 +
STACK CFI 1ef7a .cfa: sp 20 + .ra: .cfa -4 + ^ r7: .cfa -8 + ^ r6: .cfa -12 + ^ r5: .cfa -16 + ^ r4: .cfa -20 + ^
STACK CFI 1ef7c .cfa: r7 8 +
STACK CFI 1ef80 r11: .cfa -24 + ^ r10: .cfa -28 + ^ r9: .cfa -32 + ^ r8: .cfa -36 + ^
STACK CFI INIT 1f0b4 88 .cfa: sp 0 +
STACK CFI 1f0b6 .cfa: sp 16 + .ra: .cfa -4 + ^ r7: .cfa -8 + ^ r5: .cfa -12 + ^ r4: .cfa -16 + ^
STACK CFI 1f0b8 .cfa: r7 8 +
STACK CFI INIT 1f13c 88 .cfa: sp 0 +
STACK CFI 1f13e .cfa: sp 16 + .ra: .cfa -4 + ^ r7: .cfa -8 + ^ r5: .cfa -12 + ^ r4: .cfa -16 + ^
STACK CFI 1f140 .cfa: r7 8 +
STACK CFI INIT 1f1c4 88 .cfa: sp 0 +
STACK CFI 1f1c6 .cfa: sp 16 + .ra: .cfa -4 + ^ r7: .cfa -8 + ^ r5: .cfa -12 + ^ r4: .cfa -16 + ^
STACK CFI 1f1c8 .cfa: r7 8 +
STACK CFI INIT 1f24c 88 .cfa: sp 0 +
STACK CFI 1f24e .cfa: sp 16 + .ra: .cfa -4 + ^ r7: .cfa -8 + ^ r5: .cfa -12 + ^ r4: .cfa -16 + ^
STACK CFI 1f250 .cfa: r7 8 +
STACK CFI INIT 1f2d4 88 .cfa: sp 0 +
STACK CFI 1f2d6 .cfa: sp 16 + .ra: .cfa -4 + ^ r7: .cfa -8 + ^ r5: .cfa -12 + ^ r4: .cfa -16 + ^
STACK CFI 1f2d8 .cfa: r7 8 +
STACK CFI INIT 1f35c 88 .cfa: sp 0 +
STACK CFI 1f35e .cfa: sp 16 + .ra: .cfa -4 + ^ r7: .cfa -8 + ^ r5: .cfa -12 + ^ r4: .cfa -16 + ^
STACK CFI 1f360 .cfa: r7 8 +
STACK CFI INIT 1f3e4 88 .cfa: sp 0 +
STACK CFI 1f3e6 .cfa: sp 16 + .ra: .cfa -4 + ^ r7: .cfa -8 + ^ r5: .cfa -12 + ^ r4: .cfa -16 + ^
STACK CFI 1f3e8 .cfa: r7 8 +
STACK CFI INIT 1f46c 88 .cfa: sp 0 +
STACK CFI 1f46e .cfa: sp 16 + .ra: .cfa -4 + ^ r7: .cfa -8 + ^ r5: .cfa -12 + ^ r4: .cfa -16 + ^
STACK CFI 1f470 .cfa: r7 8 +
STACK CFI INIT 1f4f4 88 .cfa: sp 0 +
STACK CFI 1f4f6 .cfa: sp 16 + .ra: .cfa -4 + ^ r7: .cfa -8 + ^ r5: .cfa -12 + ^ r4: .cfa -16 + ^
STACK CFI 1f4f8 .cfa: r7 8 +
STACK CFI INIT 1f57c 74 .cfa: sp 0 +
STACK CFI 1f57e .cfa: sp 16 + .ra: .cfa -4 + ^ r7: .cfa -8 + ^ r6: .cfa -12 + ^ r4: .cfa -16 + ^
STACK CFI 1f580 .cfa: r7 8 +
STACK CFI INIT 1f5f0 10 .cfa: sp 0 +
STACK CFI 1f5f2 .cfa: sp 8 + .ra: .cfa -4 + ^ r7: .cfa -8 + ^
STACK CFI 1f5f4 .cfa: r7 8 +
STACK CFI INIT 1f600 2 .cfa: sp 0 +
STACK CFI INIT 1f602 4 .cfa: sp 0 +
STACK CFI INIT 1f606 6 .cfa: sp 0 +
STACK CFI INIT 1f60c 6 .cfa: sp 0 +
STACK CFI INIT 1f612 8 .cfa: sp 0 +
STACK CFI INIT 1f61a 14 .cfa: sp 0 +
STACK CFI 1f61c .cfa: sp 8 + .ra: .cfa -4 + ^ r7: .cfa -8 + ^
STACK CFI 1f61e .cfa: r7 8 +
STACK CFI INIT 1f62e 2 .cfa: sp 0 +
STACK CFI INIT 1f630 4 .cfa: sp 0 +
STACK CFI INIT 1f634 b2 .cfa: sp 0 +
STACK CFI 1f636 .cfa: sp 20 + .ra: .cfa -4 + ^ r7: .cfa -8 + ^ r6: .cfa -12 + ^ r5: .cfa -16 + ^ r4: .cfa -20 + ^
STACK CFI 1f638 .cfa: r7 8 +
STACK CFI 1f63c r11: .cfa -24 + ^ r10: .cfa -28 + ^ r9: .cfa -32 + ^ r8: .cfa -36 + ^
STACK CFI INIT 1f6e8 10c .cfa: sp 0 +
STACK CFI 1f6ea .cfa: sp 20 + .ra: .cfa -4 + ^ r7: .cfa -8 + ^ r6: .cfa -12 + ^ r5: .cfa -16 + ^ r4: .cfa -20 + ^
STACK CFI 1f6ec .cfa: r7 8 +
STACK CFI 1f6f0 r11: .cfa -24 + ^
STACK CFI INIT 1f7f4 2 .cfa: sp 0 +
STACK CFI INIT 1f7f6 e .cfa: sp 0 +
STACK CFI INIT 1f804 4 .cfa: sp 0 +
STACK CFI INIT 1f808 20 .cfa: sp 0 +
STACK CFI 1f80a .cfa: sp 16 + .ra: .cfa -4 + ^ r7: .cfa -8 + ^ r6: .cfa -12 + ^ r4: .cfa -16 + ^
STACK CFI 1f80c .cfa: r7 8 +
STACK CFI INIT 1f828 14 .cfa: sp 0 +
STACK CFI INIT 1f83c 2 .cfa: sp 0 +
STACK CFI INIT 1f83e 4 .cfa: sp 0 +
STACK CFI INIT 1f844 68 .cfa: sp 0 +
STACK CFI 1f846 .cfa: sp 16 + .ra: .cfa -4 + ^ r7: .cfa -8 + ^ r5: .cfa -12 + ^ r4: .cfa -16 + ^
STACK CFI 1f848 .cfa: r7 8 +
STACK CFI INIT 1f8ac 18 .cfa: sp 0 +
STACK CFI INIT 1f8c4 c .cfa: sp 0 +
STACK CFI INIT 1f8d0 4 .cfa: sp 0 +
STACK CFI INIT 1f8d4 20 .cfa: sp 0 +
STACK CFI 1f8d6 .cfa: sp 16 + .ra: .cfa -4 + ^ r7: .cfa -8 + ^ r6: .cfa -12 + ^ r4: .cfa -16 + ^
STACK CFI 1f8d8 .cfa: r7 8 +
STACK CFI INIT 1f8f4 14 .cfa: sp 0 +
STACK CFI INIT 1f908 2 .cfa: sp 0 +
STACK CFI INIT 1f90a 4 .cfa: sp 0 +
STACK CFI INIT 1f910 68 .cfa: sp 0 +
STACK CFI 1f912 .cfa: sp 16 + .ra: .cfa -4 + ^ r7: .cfa -8 + ^ r5: .cfa -12 + ^ r4: .cfa -16 + ^
STACK CFI 1f914 .cfa: r7 8 +
STACK CFI INIT 1f978 18 .cfa: sp 0 +
STACK CFI INIT 1f990 c .cfa: sp 0 +
STACK CFI INIT 1f99c 4 .cfa: sp 0 +
STACK CFI INIT 1f9a0 20 .cfa: sp 0 +
STACK CFI 1f9a2 .cfa: sp 16 + .ra: .cfa -4 + ^ r7: .cfa -8 + ^ r6: .cfa -12 + ^ r4: .cfa -16 + ^
STACK CFI 1f9a4 .cfa: r7 8 +
STACK CFI INIT 1f9c0 14 .cfa: sp 0 +
STACK CFI INIT 1f9d4 2 .cfa: sp 0 +
STACK CFI INIT 1f9d6 4 .cfa: sp 0 +
STACK CFI INIT 1f9dc 68 .cfa: sp 0 +
STACK CFI 1f9de .cfa: sp 16 + .ra: .cfa -4 + ^ r7: .cfa -8 + ^ r5: .cfa -12 + ^ r4: .cfa -16 + ^
STACK CFI 1f9e0 .cfa: r7 8 +
STACK CFI INIT 1fa44 18 .cfa: sp 0 +
STACK CFI INIT 1fa5c c .cfa: sp 0 +
STACK CFI INIT 1fa68 4 .cfa: sp 0 +
STACK CFI INIT 1fa6c 20 .cfa: sp 0 +
STACK CFI 1fa6e .cfa: sp 16 + .ra: .cfa -4 + ^ r7: .cfa -8 + ^ r6: .cfa -12 + ^ r4: .cfa -16 + ^
STACK CFI 1fa70 .cfa: r7 8 +
STACK CFI INIT 1fa8c 14 .cfa: sp 0 +
STACK CFI INIT 1faa0 2 .cfa: sp 0 +
STACK CFI INIT 1faa2 4 .cfa: sp 0 +
STACK CFI INIT 1faa8 68 .cfa: sp 0 +
STACK CFI 1faaa .cfa: sp 16 + .ra: .cfa -4 + ^ r7: .cfa -8 + ^ r5: .cfa -12 + ^ r4: .cfa -16 + ^
STACK CFI 1faac .cfa: r7 8 +
STACK CFI INIT 1fb10 18 .cfa: sp 0 +
STACK CFI INIT 1fb28 c .cfa: sp 0 +
STACK CFI INIT 1fb34 4 .cfa: sp 0 +
STACK CFI INIT 1fb38 20 .cfa: sp 0 +
STACK CFI 1fb3a .cfa: sp 16 + .ra: .cfa -4 + ^ r7: .cfa -8 + ^ r6: .cfa -12 + ^ r4: .cfa -16 + ^
STACK CFI 1fb3c .cfa: r7 8 +
STACK CFI INIT 1fb58 14 .cfa: sp 0 +
STACK CFI INIT 1fb6c 2 .cfa: sp 0 +
STACK CFI INIT 1fb6e 4 .cfa: sp 0 +
STACK CFI INIT 1fb74 68 .cfa: sp 0 +
STACK CFI 1fb76 .cfa: sp 16 + .ra: .cfa -4 + ^ r7: .cfa -8 + ^ r5: .cfa -12 + ^ r4: .cfa -16 + ^
STACK CFI 1fb78 .cfa: r7 8 +
STACK CFI INIT 1fbdc 18 .cfa: sp 0 +
STACK CFI INIT 1fbf4 c .cfa: sp 0 +
STACK CFI INIT 1fc00 4 .cfa: sp 0 +
STACK CFI INIT 1fc04 20 .cfa: sp 0 +
STACK CFI 1fc06 .cfa: sp 16 + .ra: .cfa -4 + ^ r7: .cfa -8 + ^ r6: .cfa -12 + ^ r4: .cfa -16 + ^
STACK CFI 1fc08 .cfa: r7 8 +
STACK CFI INIT 1fc24 14 .cfa: sp 0 +
STACK CFI INIT 1fc38 2 .cfa: sp 0 +
STACK CFI INIT 1fc3a 4 .cfa: sp 0 +
STACK CFI INIT 1fc40 68 .cfa: sp 0 +
STACK CFI 1fc42 .cfa: sp 16 + .ra: .cfa -4 + ^ r7: .cfa -8 + ^ r5: .cfa -12 + ^ r4: .cfa -16 + ^
STACK CFI 1fc44 .cfa: r7 8 +
STACK CFI INIT 1fca8 18 .cfa: sp 0 +
STACK CFI INIT 1fcc0 c .cfa: sp 0 +
STACK CFI INIT 1fccc 4 .cfa: sp 0 +
STACK CFI INIT 1fcd0 20 .cfa: sp 0 +
STACK CFI 1fcd2 .cfa: sp 16 + .ra: .cfa -4 + ^ r7: .cfa -8 + ^ r6: .cfa -12 + ^ r4: .cfa -16 + ^
STACK CFI 1fcd4 .cfa: r7 8 +
STACK CFI INIT 1fcf0 14 .cfa: sp 0 +
STACK CFI INIT 1fd04 2 .cfa: sp 0 +
STACK CFI INIT 1fd06 4 .cfa: sp 0 +
STACK CFI INIT 1fd0c 68 .cfa: sp 0 +
STACK CFI 1fd0e .cfa: sp 16 + .ra: .cfa -4 + ^ r7: .cfa -8 + ^ r5: .cfa -12 + ^ r4: .cfa -16 + ^
STACK CFI 1fd10 .cfa: r7 8 +
STACK CFI INIT 1fd74 18 .cfa: sp 0 +
STACK CFI INIT 1fd8c c .cfa: sp 0 +
STACK CFI INIT 1fd98 4 .cfa: sp 0 +
STACK CFI INIT 1fd9c 20 .cfa: sp 0 +
STACK CFI 1fd9e .cfa: sp 16 + .ra: .cfa -4 + ^ r7: .cfa -8 + ^ r6: .cfa -12 + ^ r4: .cfa -16 + ^
STACK CFI 1fda0 .cfa: r7 8 +
STACK CFI INIT 1fdbc 14 .cfa: sp 0 +
STACK CFI INIT 1fdd0 2 .cfa: sp 0 +
STACK CFI INIT 1fdd2 4 .cfa: sp 0 +
STACK CFI INIT 1fdd8 68 .cfa: sp 0 +
STACK CFI 1fdda .cfa: sp 16 + .ra: .cfa -4 + ^ r7: .cfa -8 + ^ r5: .cfa -12 + ^ r4: .cfa -16 + ^
STACK CFI 1fddc .cfa: r7 8 +
STACK CFI INIT 1fe40 18 .cfa: sp 0 +
STACK CFI INIT 1fe58 c .cfa: sp 0 +
STACK CFI INIT 1fe64 4 .cfa: sp 0 +
STACK CFI INIT 1fe68 20 .cfa: sp 0 +
STACK CFI 1fe6a .cfa: sp 16 + .ra: .cfa -4 + ^ r7: .cfa -8 + ^ r6: .cfa -12 + ^ r4: .cfa -16 + ^
STACK CFI 1fe6c .cfa: r7 8 +
STACK CFI INIT 1fe88 14 .cfa: sp 0 +
STACK CFI INIT 1fe9c 2 .cfa: sp 0 +
STACK CFI INIT 1fe9e 4 .cfa: sp 0 +
STACK CFI INIT 1fea4 68 .cfa: sp 0 +
STACK CFI 1fea6 .cfa: sp 16 + .ra: .cfa -4 + ^ r7: .cfa -8 + ^ r5: .cfa -12 + ^ r4: .cfa -16 + ^
STACK CFI 1fea8 .cfa: r7 8 +
STACK CFI INIT 1ff0c 18 .cfa: sp 0 +
STACK CFI INIT 1ff24 c .cfa: sp 0 +
STACK CFI INIT 1ff30 4 .cfa: sp 0 +
STACK CFI INIT 1ff34 20 .cfa: sp 0 +
STACK CFI 1ff36 .cfa: sp 16 + .ra: .cfa -4 + ^ r7: .cfa -8 + ^ r6: .cfa -12 + ^ r4: .cfa -16 + ^
STACK CFI 1ff38 .cfa: r7 8 +
STACK CFI INIT 1ff54 14 .cfa: sp 0 +
STACK CFI INIT 1ff68 2 .cfa: sp 0 +
STACK CFI INIT 1ff6a 4 .cfa: sp 0 +
STACK CFI INIT 1ff70 68 .cfa: sp 0 +
STACK CFI 1ff72 .cfa: sp 16 + .ra: .cfa -4 + ^ r7: .cfa -8 + ^ r5: .cfa -12 + ^ r4: .cfa -16 + ^
STACK CFI 1ff74 .cfa: r7 8 +
STACK CFI INIT 1ffd8 18 .cfa: sp 0 +
STACK CFI INIT 1fff0 c .cfa: sp 0 +
STACK CFI INIT 1fffc 4 .cfa: sp 0 +
STACK CFI INIT 20000 20 .cfa: sp 0 +
STACK CFI 20002 .cfa: sp 16 + .ra: .cfa -4 + ^ r7: .cfa -8 + ^ r6: .cfa -12 + ^ r4: .cfa -16 + ^
STACK CFI 20004 .cfa: r7 8 +
STACK CFI INIT 20020 14 .cfa: sp 0 +
STACK CFI INIT 20034 2 .cfa: sp 0 +
STACK CFI INIT 20036 4 .cfa: sp 0 +
STACK CFI INIT 2003c 68 .cfa: sp 0 +
STACK CFI 2003e .cfa: sp 16 + .ra: .cfa -4 + ^ r7: .cfa -8 + ^ r5: .cfa -12 + ^ r4: .cfa -16 + ^
STACK CFI 20040 .cfa: r7 8 +
STACK CFI INIT 200a4 18 .cfa: sp 0 +
STACK CFI INIT 200bc c .cfa: sp 0 +
STACK CFI INIT 200c8 4 .cfa: sp 0 +
STACK CFI INIT 200cc 20 .cfa: sp 0 +
STACK CFI 200ce .cfa: sp 16 + .ra: .cfa -4 + ^ r7: .cfa -8 + ^ r6: .cfa -12 + ^ r4: .cfa -16 + ^
STACK CFI 200d0 .cfa: r7 8 +
STACK CFI INIT 200ec 14 .cfa: sp 0 +
STACK CFI INIT 20100 2 .cfa: sp 0 +
STACK CFI INIT 20102 4 .cfa: sp 0 +
STACK CFI INIT 20108 68 .cfa: sp 0 +
STACK CFI 2010a .cfa: sp 16 + .ra: .cfa -4 + ^ r7: .cfa -8 + ^ r5: .cfa -12 + ^ r4: .cfa -16 + ^
STACK CFI 2010c .cfa: r7 8 +
STACK CFI INIT 20170 18 .cfa: sp 0 +
STACK CFI INIT 20188 c .cfa: sp 0 +
STACK CFI INIT 20194 4 .cfa: sp 0 +
STACK CFI INIT 20198 20 .cfa: sp 0 +
STACK CFI 2019a .cfa: sp 16 + .ra: .cfa -4 + ^ r7: .cfa -8 + ^ r6: .cfa -12 + ^ r4: .cfa -16 + ^
STACK CFI 2019c .cfa: r7 8 +
STACK CFI INIT 201b8 14 .cfa: sp 0 +
STACK CFI INIT 201cc 2 .cfa: sp 0 +
STACK CFI INIT 201ce 4 .cfa: sp 0 +
STACK CFI INIT 201d4 68 .cfa: sp 0 +
STACK CFI 201d6 .cfa: sp 16 + .ra: .cfa -4 + ^ r7: .cfa -8 + ^ r5: .cfa -12 + ^ r4: .cfa -16 + ^
STACK CFI 201d8 .cfa: r7 8 +
STACK CFI INIT 2023c 18 .cfa: sp 0 +
STACK CFI INIT 20254 c .cfa: sp 0 +
STACK CFI INIT 20260 4 .cfa: sp 0 +
STACK CFI INIT 20264 20 .cfa: sp 0 +
STACK CFI 20266 .cfa: sp 16 + .ra: .cfa -4 + ^ r7: .cfa -8 + ^ r6: .cfa -12 + ^ r4: .cfa -16 + ^
STACK CFI 20268 .cfa: r7 8 +
STACK CFI INIT 20284 14 .cfa: sp 0 +
STACK CFI INIT 20298 2 .cfa: sp 0 +
STACK CFI INIT 2029a 4 .cfa: sp 0 +
STACK CFI INIT 202a0 68 .cfa: sp 0 +
STACK CFI 202a2 .cfa: sp 16 + .ra: .cfa -4 + ^ r7: .cfa -8 + ^ r5: .cfa -12 + ^ r4: .cfa -16 + ^
STACK CFI 202a4 .cfa: r7 8 +
STACK CFI INIT 20308 18 .cfa: sp 0 +
STACK CFI INIT 20320 c .cfa: sp 0 +
STACK CFI INIT 2032c 4 .cfa: sp 0 +
STACK CFI INIT 20330 20 .cfa: sp 0 +
STACK CFI 20332 .cfa: sp 16 + .ra: .cfa -4 + ^ r7: .cfa -8 + ^ r6: .cfa -12 + ^ r4: .cfa -16 + ^
STACK CFI 20334 .cfa: r7 8 +
STACK CFI INIT 20350 14 .cfa: sp 0 +
STACK CFI INIT 20364 2 .cfa: sp 0 +
STACK CFI INIT 20366 4 .cfa: sp 0 +
STACK CFI INIT 2036c 68 .cfa: sp 0 +
STACK CFI 2036e .cfa: sp 16 + .ra: .cfa -4 + ^ r7: .cfa -8 + ^ r5: .cfa -12 + ^ r4: .cfa -16 + ^
STACK CFI 20370 .cfa: r7 8 +
STACK CFI INIT 203d4 18 .cfa: sp 0 +
STACK CFI INIT 203ec c .cfa: sp 0 +
STACK CFI INIT 203f8 4 .cfa: sp 0 +
STACK CFI INIT 203fc 20 .cfa: sp 0 +
STACK CFI 203fe .cfa: sp 16 + .ra: .cfa -4 + ^ r7: .cfa -8 + ^ r6: .cfa -12 + ^ r4: .cfa -16 + ^
STACK CFI 20400 .cfa: r7 8 +
STACK CFI INIT 2041c 14 .cfa: sp 0 +
STACK CFI INIT 20430 2 .cfa: sp 0 +
STACK CFI INIT 20432 4 .cfa: sp 0 +
STACK CFI INIT 20438 68 .cfa: sp 0 +
STACK CFI 2043a .cfa: sp 16 + .ra: .cfa -4 + ^ r7: .cfa -8 + ^ r5: .cfa -12 + ^ r4: .cfa -16 + ^
STACK CFI 2043c .cfa: r7 8 +
STACK CFI INIT 204a0 18 .cfa: sp 0 +
STACK CFI INIT 204b8 c .cfa: sp 0 +
STACK CFI INIT 204c4 4 .cfa: sp 0 +
STACK CFI INIT 204c8 20 .cfa: sp 0 +
STACK CFI 204ca .cfa: sp 16 + .ra: .cfa -4 + ^ r7: .cfa -8 + ^ r6: .cfa -12 + ^ r4: .cfa -16 + ^
STACK CFI 204cc .cfa: r7 8 +
STACK CFI INIT 204e8 14 .cfa: sp 0 +
STACK CFI INIT 204fc 2 .cfa: sp 0 +
STACK CFI INIT 204fe 4 .cfa: sp 0 +
STACK CFI INIT 20504 68 .cfa: sp 0 +
STACK CFI 20506 .cfa: sp 16 + .ra: .cfa -4 + ^ r7: .cfa -8 + ^ r5: .cfa -12 + ^ r4: .cfa -16 + ^
STACK CFI 20508 .cfa: r7 8 +
STACK CFI INIT 2056c 18 .cfa: sp 0 +
STACK CFI INIT 20584 c .cfa: sp 0 +
STACK CFI INIT 20590 4 .cfa: sp 0 +
STACK CFI INIT 20594 20 .cfa: sp 0 +
STACK CFI 20596 .cfa: sp 16 + .ra: .cfa -4 + ^ r7: .cfa -8 + ^ r6: .cfa -12 + ^ r4: .cfa -16 + ^
STACK CFI 20598 .cfa: r7 8 +
STACK CFI INIT 205b4 14 .cfa: sp 0 +
STACK CFI INIT 205c8 2 .cfa: sp 0 +
STACK CFI INIT 205ca 4 .cfa: sp 0 +
STACK CFI INIT 205d0 68 .cfa: sp 0 +
STACK CFI 205d2 .cfa: sp 16 + .ra: .cfa -4 + ^ r7: .cfa -8 + ^ r5: .cfa -12 + ^ r4: .cfa -16 + ^
STACK CFI 205d4 .cfa: r7 8 +
STACK CFI INIT 20638 18 .cfa: sp 0 +
STACK CFI INIT 20650 c .cfa: sp 0 +
STACK CFI INIT 2065c 4 .cfa: sp 0 +
STACK CFI INIT 20660 20 .cfa: sp 0 +
STACK CFI 20662 .cfa: sp 16 + .ra: .cfa -4 + ^ r7: .cfa -8 + ^ r6: .cfa -12 + ^ r4: .cfa -16 + ^
STACK CFI 20664 .cfa: r7 8 +
STACK CFI INIT 20680 14 .cfa: sp 0 +
STACK CFI INIT 20694 2 .cfa: sp 0 +
STACK CFI INIT 20696 4 .cfa: sp 0 +
STACK CFI INIT 2069c 68 .cfa: sp 0 +
STACK CFI 2069e .cfa: sp 16 + .ra: .cfa -4 + ^ r7: .cfa -8 + ^ r5: .cfa -12 + ^ r4: .cfa -16 + ^
STACK CFI 206a0 .cfa: r7 8 +
STACK CFI INIT 20704 18 .cfa: sp 0 +
STACK CFI INIT 2071c c .cfa: sp 0 +
STACK CFI INIT 20728 4 .cfa: sp 0 +
STACK CFI INIT 2072c 20 .cfa: sp 0 +
STACK CFI 2072e .cfa: sp 16 + .ra: .cfa -4 + ^ r7: .cfa -8 + ^ r6: .cfa -12 + ^ r4: .cfa -16 + ^
STACK CFI 20730 .cfa: r7 8 +
STACK CFI INIT 2074c 14 .cfa: sp 0 +
STACK CFI INIT 20760 2 .cfa: sp 0 +
STACK CFI INIT 20762 4 .cfa: sp 0 +
STACK CFI INIT 20768 68 .cfa: sp 0 +
STACK CFI 2076a .cfa: sp 16 + .ra: .cfa -4 + ^ r7: .cfa -8 + ^ r5: .cfa -12 + ^ r4: .cfa -16 + ^
STACK CFI 2076c .cfa: r7 8 +
STACK CFI INIT 207d0 18 .cfa: sp 0 +
STACK CFI INIT 207e8 c .cfa: sp 0 +
STACK CFI INIT 207f4 1f70 .cfa: sp 0 +
STACK CFI 207f6 .cfa: sp 20 + .ra: .cfa -4 + ^ r7: .cfa -8 + ^ r6: .cfa -12 + ^ r5: .cfa -16 + ^ r4: .cfa -20 + ^
STACK CFI 207f8 .cfa: r7 8 +
STACK CFI 207fc r11: .cfa -24 + ^ r10: .cfa -28 + ^ r9: .cfa -32 + ^ r8: .cfa -36 + ^
STACK CFI INIT 22764 88 .cfa: sp 0 +
STACK CFI 22766 .cfa: sp 16 + .ra: .cfa -4 + ^ r7: .cfa -8 + ^ r5: .cfa -12 + ^ r4: .cfa -16 + ^
STACK CFI 22768 .cfa: r7 8 +
STACK CFI INIT 227ec 88 .cfa: sp 0 +
STACK CFI 227ee .cfa: sp 16 + .ra: .cfa -4 + ^ r7: .cfa -8 + ^ r5: .cfa -12 + ^ r4: .cfa -16 + ^
STACK CFI 227f0 .cfa: r7 8 +
STACK CFI INIT 22874 88 .cfa: sp 0 +
STACK CFI 22876 .cfa: sp 16 + .ra: .cfa -4 + ^ r7: .cfa -8 + ^ r5: .cfa -12 + ^ r4: .cfa -16 + ^
STACK CFI 22878 .cfa: r7 8 +
STACK CFI INIT 228fc 88 .cfa: sp 0 +
STACK CFI 228fe .cfa: sp 16 + .ra: .cfa -4 + ^ r7: .cfa -8 + ^ r5: .cfa -12 + ^ r4: .cfa -16 + ^
STACK CFI 22900 .cfa: r7 8 +
STACK CFI INIT 22984 88 .cfa: sp 0 +
STACK CFI 22986 .cfa: sp 16 + .ra: .cfa -4 + ^ r7: .cfa -8 + ^ r5: .cfa -12 + ^ r4: .cfa -16 + ^
STACK CFI 22988 .cfa: r7 8 +
STACK CFI INIT 22a0c 88 .cfa: sp 0 +
STACK CFI 22a0e .cfa: sp 16 + .ra: .cfa -4 + ^ r7: .cfa -8 + ^ r5: .cfa -12 + ^ r4: .cfa -16 + ^
STACK CFI 22a10 .cfa: r7 8 +
STACK CFI INIT 22a94 88 .cfa: sp 0 +
STACK CFI 22a96 .cfa: sp 16 + .ra: .cfa -4 + ^ r7: .cfa -8 + ^ r5: .cfa -12 + ^ r4: .cfa -16 + ^
STACK CFI 22a98 .cfa: r7 8 +
STACK CFI INIT 22b1c 88 .cfa: sp 0 +
STACK CFI 22b1e .cfa: sp 16 + .ra: .cfa -4 + ^ r7: .cfa -8 + ^ r5: .cfa -12 + ^ r4: .cfa -16 + ^
STACK CFI 22b20 .cfa: r7 8 +
STACK CFI INIT 22ba4 88 .cfa: sp 0 +
STACK CFI 22ba6 .cfa: sp 16 + .ra: .cfa -4 + ^ r7: .cfa -8 + ^ r5: .cfa -12 + ^ r4: .cfa -16 + ^
STACK CFI 22ba8 .cfa: r7 8 +
STACK CFI INIT 22c2c 88 .cfa: sp 0 +
STACK CFI 22c2e .cfa: sp 16 + .ra: .cfa -4 + ^ r7: .cfa -8 + ^ r5: .cfa -12 + ^ r4: .cfa -16 + ^
STACK CFI 22c30 .cfa: r7 8 +
STACK CFI INIT 22cb4 74 .cfa: sp 0 +
STACK CFI 22cb6 .cfa: sp 16 + .ra: .cfa -4 + ^ r7: .cfa -8 + ^ r6: .cfa -12 + ^ r4: .cfa -16 + ^
STACK CFI 22cb8 .cfa: r7 8 +
STACK CFI INIT 22d28 10 .cfa: sp 0 +
STACK CFI 22d2a .cfa: sp 8 + .ra: .cfa -4 + ^ r7: .cfa -8 + ^
STACK CFI 22d2c .cfa: r7 8 +
STACK CFI INIT 22d38 8 .cfa: sp 0 +
STACK CFI INIT 22d40 14 .cfa: sp 0 +
STACK CFI 22d42 .cfa: sp 8 + .ra: .cfa -4 + ^ r7: .cfa -8 + ^
STACK CFI 22d44 .cfa: r7 8 +
STACK CFI INIT 22d54 4 .cfa: sp 0 +
STACK CFI INIT 22d58 20 .cfa: sp 0 +
STACK CFI 22d5a .cfa: sp 16 + .ra: .cfa -4 + ^ r7: .cfa -8 + ^ r6: .cfa -12 + ^ r4: .cfa -16 + ^
STACK CFI 22d5c .cfa: r7 8 +
STACK CFI INIT 22d78 14 .cfa: sp 0 +
STACK CFI INIT 22d8c 2 .cfa: sp 0 +
STACK CFI INIT 22d8e 4 .cfa: sp 0 +
STACK CFI INIT 22d94 68 .cfa: sp 0 +
STACK CFI 22d96 .cfa: sp 16 + .ra: .cfa -4 + ^ r7: .cfa -8 + ^ r5: .cfa -12 + ^ r4: .cfa -16 + ^
STACK CFI 22d98 .cfa: r7 8 +
STACK CFI INIT 22dfc 18 .cfa: sp 0 +
STACK CFI INIT 22e14 c .cfa: sp 0 +
STACK CFI INIT 22e20 4 .cfa: sp 0 +
STACK CFI INIT 22e24 20 .cfa: sp 0 +
STACK CFI 22e26 .cfa: sp 16 + .ra: .cfa -4 + ^ r7: .cfa -8 + ^ r6: .cfa -12 + ^ r4: .cfa -16 + ^
STACK CFI 22e28 .cfa: r7 8 +
STACK CFI INIT 22e44 14 .cfa: sp 0 +
STACK CFI INIT 22e58 2 .cfa: sp 0 +
STACK CFI INIT 22e5a 4 .cfa: sp 0 +
STACK CFI INIT 22e60 68 .cfa: sp 0 +
STACK CFI 22e62 .cfa: sp 16 + .ra: .cfa -4 + ^ r7: .cfa -8 + ^ r5: .cfa -12 + ^ r4: .cfa -16 + ^
STACK CFI 22e64 .cfa: r7 8 +
STACK CFI INIT 22ec8 18 .cfa: sp 0 +
STACK CFI INIT 22ee0 c .cfa: sp 0 +
STACK CFI INIT 22eec 4 .cfa: sp 0 +
STACK CFI INIT 22ef0 20 .cfa: sp 0 +
STACK CFI 22ef2 .cfa: sp 16 + .ra: .cfa -4 + ^ r7: .cfa -8 + ^ r6: .cfa -12 + ^ r4: .cfa -16 + ^
STACK CFI 22ef4 .cfa: r7 8 +
STACK CFI INIT 22f10 14 .cfa: sp 0 +
STACK CFI INIT 22f24 2 .cfa: sp 0 +
STACK CFI INIT 22f26 4 .cfa: sp 0 +
STACK CFI INIT 22f2c 68 .cfa: sp 0 +
STACK CFI 22f2e .cfa: sp 16 + .ra: .cfa -4 + ^ r7: .cfa -8 + ^ r5: .cfa -12 + ^ r4: .cfa -16 + ^
STACK CFI 22f30 .cfa: r7 8 +
STACK CFI INIT 22f94 18 .cfa: sp 0 +
STACK CFI INIT 22fac c .cfa: sp 0 +
STACK CFI INIT 22fb8 4 .cfa: sp 0 +
STACK CFI INIT 22fbc 20 .cfa: sp 0 +
STACK CFI 22fbe .cfa: sp 16 + .ra: .cfa -4 + ^ r7: .cfa -8 + ^ r6: .cfa -12 + ^ r4: .cfa -16 + ^
STACK CFI 22fc0 .cfa: r7 8 +
STACK CFI INIT 22fdc 14 .cfa: sp 0 +
STACK CFI INIT 22ff0 2 .cfa: sp 0 +
STACK CFI INIT 22ff2 4 .cfa: sp 0 +
STACK CFI INIT 22ff8 68 .cfa: sp 0 +
STACK CFI 22ffa .cfa: sp 16 + .ra: .cfa -4 + ^ r7: .cfa -8 + ^ r5: .cfa -12 + ^ r4: .cfa -16 + ^
STACK CFI 22ffc .cfa: r7 8 +
STACK CFI INIT 23060 18 .cfa: sp 0 +
STACK CFI INIT 23078 c .cfa: sp 0 +
STACK CFI INIT 23084 4 .cfa: sp 0 +
STACK CFI INIT 23088 20 .cfa: sp 0 +
STACK CFI 2308a .cfa: sp 16 + .ra: .cfa -4 + ^ r7: .cfa -8 + ^ r6: .cfa -12 + ^ r4: .cfa -16 + ^
STACK CFI 2308c .cfa: r7 8 +
STACK CFI INIT 230a8 14 .cfa: sp 0 +
STACK CFI INIT 230bc 2 .cfa: sp 0 +
STACK CFI INIT 230be 4 .cfa: sp 0 +
STACK CFI INIT 230c4 68 .cfa: sp 0 +
STACK CFI 230c6 .cfa: sp 16 + .ra: .cfa -4 + ^ r7: .cfa -8 + ^ r5: .cfa -12 + ^ r4: .cfa -16 + ^
STACK CFI 230c8 .cfa: r7 8 +
STACK CFI INIT 2312c 18 .cfa: sp 0 +
STACK CFI INIT 23144 c .cfa: sp 0 +
STACK CFI INIT 23150 4 .cfa: sp 0 +
STACK CFI INIT 23154 20 .cfa: sp 0 +
STACK CFI 23156 .cfa: sp 16 + .ra: .cfa -4 + ^ r7: .cfa -8 + ^ r6: .cfa -12 + ^ r4: .cfa -16 + ^
STACK CFI 23158 .cfa: r7 8 +
STACK CFI INIT 23174 14 .cfa: sp 0 +
STACK CFI INIT 23188 2 .cfa: sp 0 +
STACK CFI INIT 2318a 4 .cfa: sp 0 +
STACK CFI INIT 23190 68 .cfa: sp 0 +
STACK CFI 23192 .cfa: sp 16 + .ra: .cfa -4 + ^ r7: .cfa -8 + ^ r5: .cfa -12 + ^ r4: .cfa -16 + ^
STACK CFI 23194 .cfa: r7 8 +
STACK CFI INIT 231f8 18 .cfa: sp 0 +
STACK CFI INIT 23210 c .cfa: sp 0 +
STACK CFI INIT 2321c 4 .cfa: sp 0 +
STACK CFI INIT 23220 20 .cfa: sp 0 +
STACK CFI 23222 .cfa: sp 16 + .ra: .cfa -4 + ^ r7: .cfa -8 + ^ r6: .cfa -12 + ^ r4: .cfa -16 + ^
STACK CFI 23224 .cfa: r7 8 +
STACK CFI INIT 23240 14 .cfa: sp 0 +
STACK CFI INIT 23254 2 .cfa: sp 0 +
STACK CFI INIT 23256 4 .cfa: sp 0 +
STACK CFI INIT 2325c 68 .cfa: sp 0 +
STACK CFI 2325e .cfa: sp 16 + .ra: .cfa -4 + ^ r7: .cfa -8 + ^ r5: .cfa -12 + ^ r4: .cfa -16 + ^
STACK CFI 23260 .cfa: r7 8 +
STACK CFI INIT 232c4 18 .cfa: sp 0 +
STACK CFI INIT 232dc c .cfa: sp 0 +
STACK CFI INIT 232e8 4 .cfa: sp 0 +
STACK CFI INIT 232ec 20 .cfa: sp 0 +
STACK CFI 232ee .cfa: sp 16 + .ra: .cfa -4 + ^ r7: .cfa -8 + ^ r6: .cfa -12 + ^ r4: .cfa -16 + ^
STACK CFI 232f0 .cfa: r7 8 +
STACK CFI INIT 2330c 14 .cfa: sp 0 +
STACK CFI INIT 23320 2 .cfa: sp 0 +
STACK CFI INIT 23322 4 .cfa: sp 0 +
STACK CFI INIT 23328 68 .cfa: sp 0 +
STACK CFI 2332a .cfa: sp 16 + .ra: .cfa -4 + ^ r7: .cfa -8 + ^ r5: .cfa -12 + ^ r4: .cfa -16 + ^
STACK CFI 2332c .cfa: r7 8 +
STACK CFI INIT 23390 18 .cfa: sp 0 +
STACK CFI INIT 233a8 c .cfa: sp 0 +
STACK CFI INIT 233b4 4 .cfa: sp 0 +
STACK CFI INIT 233b8 20 .cfa: sp 0 +
STACK CFI 233ba .cfa: sp 16 + .ra: .cfa -4 + ^ r7: .cfa -8 + ^ r6: .cfa -12 + ^ r4: .cfa -16 + ^
STACK CFI 233bc .cfa: r7 8 +
STACK CFI INIT 233d8 14 .cfa: sp 0 +
STACK CFI INIT 233ec 2 .cfa: sp 0 +
STACK CFI INIT 233ee 4 .cfa: sp 0 +
STACK CFI INIT 233f4 68 .cfa: sp 0 +
STACK CFI 233f6 .cfa: sp 16 + .ra: .cfa -4 + ^ r7: .cfa -8 + ^ r5: .cfa -12 + ^ r4: .cfa -16 + ^
STACK CFI 233f8 .cfa: r7 8 +
STACK CFI INIT 2345c 18 .cfa: sp 0 +
STACK CFI INIT 23474 c .cfa: sp 0 +
STACK CFI INIT 23480 4 .cfa: sp 0 +
STACK CFI INIT 23484 20 .cfa: sp 0 +
STACK CFI 23486 .cfa: sp 16 + .ra: .cfa -4 + ^ r7: .cfa -8 + ^ r6: .cfa -12 + ^ r4: .cfa -16 + ^
STACK CFI 23488 .cfa: r7 8 +
STACK CFI INIT 234a4 14 .cfa: sp 0 +
STACK CFI INIT 234b8 2 .cfa: sp 0 +
STACK CFI INIT 234ba 4 .cfa: sp 0 +
STACK CFI INIT 234c0 68 .cfa: sp 0 +
STACK CFI 234c2 .cfa: sp 16 + .ra: .cfa -4 + ^ r7: .cfa -8 + ^ r5: .cfa -12 + ^ r4: .cfa -16 + ^
STACK CFI 234c4 .cfa: r7 8 +
STACK CFI INIT 23528 18 .cfa: sp 0 +
STACK CFI INIT 23540 c .cfa: sp 0 +
STACK CFI INIT 2354c 4 .cfa: sp 0 +
STACK CFI INIT 23550 20 .cfa: sp 0 +
STACK CFI 23552 .cfa: sp 16 + .ra: .cfa -4 + ^ r7: .cfa -8 + ^ r6: .cfa -12 + ^ r4: .cfa -16 + ^
STACK CFI 23554 .cfa: r7 8 +
STACK CFI INIT 23570 14 .cfa: sp 0 +
STACK CFI INIT 23584 2 .cfa: sp 0 +
STACK CFI INIT 23586 4 .cfa: sp 0 +
STACK CFI INIT 2358c 68 .cfa: sp 0 +
STACK CFI 2358e .cfa: sp 16 + .ra: .cfa -4 + ^ r7: .cfa -8 + ^ r5: .cfa -12 + ^ r4: .cfa -16 + ^
STACK CFI 23590 .cfa: r7 8 +
STACK CFI INIT 235f4 18 .cfa: sp 0 +
STACK CFI INIT 2360c c .cfa: sp 0 +
STACK CFI INIT 23618 4 .cfa: sp 0 +
STACK CFI INIT 2361c 20 .cfa: sp 0 +
STACK CFI 2361e .cfa: sp 16 + .ra: .cfa -4 + ^ r7: .cfa -8 + ^ r6: .cfa -12 + ^ r4: .cfa -16 + ^
STACK CFI 23620 .cfa: r7 8 +
STACK CFI INIT 2363c 14 .cfa: sp 0 +
STACK CFI INIT 23650 2 .cfa: sp 0 +
STACK CFI INIT 23652 4 .cfa: sp 0 +
STACK CFI INIT 23658 68 .cfa: sp 0 +
STACK CFI 2365a .cfa: sp 16 + .ra: .cfa -4 + ^ r7: .cfa -8 + ^ r5: .cfa -12 + ^ r4: .cfa -16 + ^
STACK CFI 2365c .cfa: r7 8 +
STACK CFI INIT 236c0 18 .cfa: sp 0 +
STACK CFI INIT 236d8 c .cfa: sp 0 +
STACK CFI INIT 236e4 4 .cfa: sp 0 +
STACK CFI INIT 236e8 20 .cfa: sp 0 +
STACK CFI 236ea .cfa: sp 16 + .ra: .cfa -4 + ^ r7: .cfa -8 + ^ r6: .cfa -12 + ^ r4: .cfa -16 + ^
STACK CFI 236ec .cfa: r7 8 +
STACK CFI INIT 23708 14 .cfa: sp 0 +
STACK CFI INIT 2371c 2 .cfa: sp 0 +
STACK CFI INIT 2371e 4 .cfa: sp 0 +
STACK CFI INIT 23724 68 .cfa: sp 0 +
STACK CFI 23726 .cfa: sp 16 + .ra: .cfa -4 + ^ r7: .cfa -8 + ^ r5: .cfa -12 + ^ r4: .cfa -16 + ^
STACK CFI 23728 .cfa: r7 8 +
STACK CFI INIT 2378c 18 .cfa: sp 0 +
STACK CFI INIT 237a4 c .cfa: sp 0 +
STACK CFI INIT 237b0 4 .cfa: sp 0 +
STACK CFI INIT 237b4 20 .cfa: sp 0 +
STACK CFI 237b6 .cfa: sp 16 + .ra: .cfa -4 + ^ r7: .cfa -8 + ^ r6: .cfa -12 + ^ r4: .cfa -16 + ^
STACK CFI 237b8 .cfa: r7 8 +
STACK CFI INIT 237d4 14 .cfa: sp 0 +
STACK CFI INIT 237e8 2 .cfa: sp 0 +
STACK CFI INIT 237ea 4 .cfa: sp 0 +
STACK CFI INIT 237f0 68 .cfa: sp 0 +
STACK CFI 237f2 .cfa: sp 16 + .ra: .cfa -4 + ^ r7: .cfa -8 + ^ r5: .cfa -12 + ^ r4: .cfa -16 + ^
STACK CFI 237f4 .cfa: r7 8 +
STACK CFI INIT 23858 18 .cfa: sp 0 +
STACK CFI INIT 23870 c .cfa: sp 0 +
STACK CFI INIT 2387c 4 .cfa: sp 0 +
STACK CFI INIT 23880 20 .cfa: sp 0 +
STACK CFI 23882 .cfa: sp 16 + .ra: .cfa -4 + ^ r7: .cfa -8 + ^ r6: .cfa -12 + ^ r4: .cfa -16 + ^
STACK CFI 23884 .cfa: r7 8 +
STACK CFI INIT 238a0 14 .cfa: sp 0 +
STACK CFI INIT 238b4 2 .cfa: sp 0 +
STACK CFI INIT 238b6 4 .cfa: sp 0 +
STACK CFI INIT 238bc 68 .cfa: sp 0 +
STACK CFI 238be .cfa: sp 16 + .ra: .cfa -4 + ^ r7: .cfa -8 + ^ r5: .cfa -12 + ^ r4: .cfa -16 + ^
STACK CFI 238c0 .cfa: r7 8 +
STACK CFI INIT 23924 18 .cfa: sp 0 +
STACK CFI INIT 2393c c .cfa: sp 0 +
STACK CFI INIT 23948 4 .cfa: sp 0 +
STACK CFI INIT 2394c 20 .cfa: sp 0 +
STACK CFI 2394e .cfa: sp 16 + .ra: .cfa -4 + ^ r7: .cfa -8 + ^ r6: .cfa -12 + ^ r4: .cfa -16 + ^
STACK CFI 23950 .cfa: r7 8 +
STACK CFI INIT 2396c 14 .cfa: sp 0 +
STACK CFI INIT 23980 2 .cfa: sp 0 +
STACK CFI INIT 23982 4 .cfa: sp 0 +
STACK CFI INIT 23988 68 .cfa: sp 0 +
STACK CFI 2398a .cfa: sp 16 + .ra: .cfa -4 + ^ r7: .cfa -8 + ^ r5: .cfa -12 + ^ r4: .cfa -16 + ^
STACK CFI 2398c .cfa: r7 8 +
STACK CFI INIT 239f0 18 .cfa: sp 0 +
STACK CFI INIT 23a08 c .cfa: sp 0 +
STACK CFI INIT 23a14 4 .cfa: sp 0 +
STACK CFI INIT 23a18 20 .cfa: sp 0 +
STACK CFI 23a1a .cfa: sp 16 + .ra: .cfa -4 + ^ r7: .cfa -8 + ^ r6: .cfa -12 + ^ r4: .cfa -16 + ^
STACK CFI 23a1c .cfa: r7 8 +
STACK CFI INIT 23a38 14 .cfa: sp 0 +
STACK CFI INIT 23a4c 2 .cfa: sp 0 +
STACK CFI INIT 23a4e 4 .cfa: sp 0 +
STACK CFI INIT 23a54 68 .cfa: sp 0 +
STACK CFI 23a56 .cfa: sp 16 + .ra: .cfa -4 + ^ r7: .cfa -8 + ^ r5: .cfa -12 + ^ r4: .cfa -16 + ^
STACK CFI 23a58 .cfa: r7 8 +
STACK CFI INIT 23abc 18 .cfa: sp 0 +
STACK CFI INIT 23ad4 c .cfa: sp 0 +
STACK CFI INIT 23ae0 4 .cfa: sp 0 +
STACK CFI INIT 23ae4 20 .cfa: sp 0 +
STACK CFI 23ae6 .cfa: sp 16 + .ra: .cfa -4 + ^ r7: .cfa -8 + ^ r6: .cfa -12 + ^ r4: .cfa -16 + ^
STACK CFI 23ae8 .cfa: r7 8 +
STACK CFI INIT 23b04 14 .cfa: sp 0 +
STACK CFI INIT 23b18 2 .cfa: sp 0 +
STACK CFI INIT 23b1a 4 .cfa: sp 0 +
STACK CFI INIT 23b20 68 .cfa: sp 0 +
STACK CFI 23b22 .cfa: sp 16 + .ra: .cfa -4 + ^ r7: .cfa -8 + ^ r5: .cfa -12 + ^ r4: .cfa -16 + ^
STACK CFI 23b24 .cfa: r7 8 +
STACK CFI INIT 23b88 18 .cfa: sp 0 +
STACK CFI INIT 23ba0 c .cfa: sp 0 +
STACK CFI INIT 23bac 4 .cfa: sp 0 +
STACK CFI INIT 23bb0 20 .cfa: sp 0 +
STACK CFI 23bb2 .cfa: sp 16 + .ra: .cfa -4 + ^ r7: .cfa -8 + ^ r6: .cfa -12 + ^ r4: .cfa -16 + ^
STACK CFI 23bb4 .cfa: r7 8 +
STACK CFI INIT 23bd0 14 .cfa: sp 0 +
STACK CFI INIT 23be4 2 .cfa: sp 0 +
STACK CFI INIT 23be6 4 .cfa: sp 0 +
STACK CFI INIT 23bec 68 .cfa: sp 0 +
STACK CFI 23bee .cfa: sp 16 + .ra: .cfa -4 + ^ r7: .cfa -8 + ^ r5: .cfa -12 + ^ r4: .cfa -16 + ^
STACK CFI 23bf0 .cfa: r7 8 +
STACK CFI INIT 23c54 18 .cfa: sp 0 +
STACK CFI INIT 23c6c c .cfa: sp 0 +
STACK CFI INIT 23c78 4 .cfa: sp 0 +
STACK CFI INIT 23c7c 20 .cfa: sp 0 +
STACK CFI 23c7e .cfa: sp 16 + .ra: .cfa -4 + ^ r7: .cfa -8 + ^ r6: .cfa -12 + ^ r4: .cfa -16 + ^
STACK CFI 23c80 .cfa: r7 8 +
STACK CFI INIT 23c9c 14 .cfa: sp 0 +
STACK CFI INIT 23cb0 2 .cfa: sp 0 +
STACK CFI INIT 23cb2 4 .cfa: sp 0 +
STACK CFI INIT 23cb8 68 .cfa: sp 0 +
STACK CFI 23cba .cfa: sp 16 + .ra: .cfa -4 + ^ r7: .cfa -8 + ^ r5: .cfa -12 + ^ r4: .cfa -16 + ^
STACK CFI 23cbc .cfa: r7 8 +
STACK CFI INIT 23d20 18 .cfa: sp 0 +
STACK CFI INIT 23d38 c .cfa: sp 0 +
STACK CFI INIT 23d44 1f70 .cfa: sp 0 +
STACK CFI 23d46 .cfa: sp 20 + .ra: .cfa -4 + ^ r7: .cfa -8 + ^ r6: .cfa -12 + ^ r5: .cfa -16 + ^ r4: .cfa -20 + ^
STACK CFI 23d48 .cfa: r7 8 +
STACK CFI 23d4c r11: .cfa -24 + ^ r10: .cfa -28 + ^ r9: .cfa -32 + ^ r8: .cfa -36 + ^
STACK CFI INIT 25cb4 88 .cfa: sp 0 +
STACK CFI 25cb6 .cfa: sp 16 + .ra: .cfa -4 + ^ r7: .cfa -8 + ^ r5: .cfa -12 + ^ r4: .cfa -16 + ^
STACK CFI 25cb8 .cfa: r7 8 +
STACK CFI INIT 25d3c 88 .cfa: sp 0 +
STACK CFI 25d3e .cfa: sp 16 + .ra: .cfa -4 + ^ r7: .cfa -8 + ^ r5: .cfa -12 + ^ r4: .cfa -16 + ^
STACK CFI 25d40 .cfa: r7 8 +
STACK CFI INIT 25dc4 88 .cfa: sp 0 +
STACK CFI 25dc6 .cfa: sp 16 + .ra: .cfa -4 + ^ r7: .cfa -8 + ^ r5: .cfa -12 + ^ r4: .cfa -16 + ^
STACK CFI 25dc8 .cfa: r7 8 +
STACK CFI INIT 25e4c 88 .cfa: sp 0 +
STACK CFI 25e4e .cfa: sp 16 + .ra: .cfa -4 + ^ r7: .cfa -8 + ^ r5: .cfa -12 + ^ r4: .cfa -16 + ^
STACK CFI 25e50 .cfa: r7 8 +
STACK CFI INIT 25ed4 88 .cfa: sp 0 +
STACK CFI 25ed6 .cfa: sp 16 + .ra: .cfa -4 + ^ r7: .cfa -8 + ^ r5: .cfa -12 + ^ r4: .cfa -16 + ^
STACK CFI 25ed8 .cfa: r7 8 +
STACK CFI INIT 25f5c 88 .cfa: sp 0 +
STACK CFI 25f5e .cfa: sp 16 + .ra: .cfa -4 + ^ r7: .cfa -8 + ^ r5: .cfa -12 + ^ r4: .cfa -16 + ^
STACK CFI 25f60 .cfa: r7 8 +
STACK CFI INIT 25fe4 88 .cfa: sp 0 +
STACK CFI 25fe6 .cfa: sp 16 + .ra: .cfa -4 + ^ r7: .cfa -8 + ^ r5: .cfa -12 + ^ r4: .cfa -16 + ^
STACK CFI 25fe8 .cfa: r7 8 +
STACK CFI INIT 2606c 88 .cfa: sp 0 +
STACK CFI 2606e .cfa: sp 16 + .ra: .cfa -4 + ^ r7: .cfa -8 + ^ r5: .cfa -12 + ^ r4: .cfa -16 + ^
STACK CFI 26070 .cfa: r7 8 +
STACK CFI INIT 260f4 88 .cfa: sp 0 +
STACK CFI 260f6 .cfa: sp 16 + .ra: .cfa -4 + ^ r7: .cfa -8 + ^ r5: .cfa -12 + ^ r4: .cfa -16 + ^
STACK CFI 260f8 .cfa: r7 8 +
STACK CFI INIT 2617c 88 .cfa: sp 0 +
STACK CFI 2617e .cfa: sp 16 + .ra: .cfa -4 + ^ r7: .cfa -8 + ^ r5: .cfa -12 + ^ r4: .cfa -16 + ^
STACK CFI 26180 .cfa: r7 8 +
STACK CFI INIT 26204 74 .cfa: sp 0 +
STACK CFI 26206 .cfa: sp 16 + .ra: .cfa -4 + ^ r7: .cfa -8 + ^ r6: .cfa -12 + ^ r4: .cfa -16 + ^
STACK CFI 26208 .cfa: r7 8 +
STACK CFI INIT 26278 10 .cfa: sp 0 +
STACK CFI 2627a .cfa: sp 8 + .ra: .cfa -4 + ^ r7: .cfa -8 + ^
STACK CFI 2627c .cfa: r7 8 +
STACK CFI INIT 26288 8 .cfa: sp 0 +
STACK CFI INIT 26290 14 .cfa: sp 0 +
STACK CFI 26292 .cfa: sp 8 + .ra: .cfa -4 + ^ r7: .cfa -8 + ^
STACK CFI 26294 .cfa: r7 8 +
STACK CFI INIT 262a4 4 .cfa: sp 0 +
STACK CFI INIT 262a8 20 .cfa: sp 0 +
STACK CFI 262aa .cfa: sp 16 + .ra: .cfa -4 + ^ r7: .cfa -8 + ^ r6: .cfa -12 + ^ r4: .cfa -16 + ^
STACK CFI 262ac .cfa: r7 8 +
STACK CFI INIT 262c8 14 .cfa: sp 0 +
STACK CFI INIT 262dc 2 .cfa: sp 0 +
STACK CFI INIT 262de 4 .cfa: sp 0 +
STACK CFI INIT 262e4 68 .cfa: sp 0 +
STACK CFI 262e6 .cfa: sp 16 + .ra: .cfa -4 + ^ r7: .cfa -8 + ^ r5: .cfa -12 + ^ r4: .cfa -16 + ^
STACK CFI 262e8 .cfa: r7 8 +
STACK CFI INIT 2634c 18 .cfa: sp 0 +
STACK CFI INIT 26364 c .cfa: sp 0 +
STACK CFI INIT 26370 4 .cfa: sp 0 +
STACK CFI INIT 26374 20 .cfa: sp 0 +
STACK CFI 26376 .cfa: sp 16 + .ra: .cfa -4 + ^ r7: .cfa -8 + ^ r6: .cfa -12 + ^ r4: .cfa -16 + ^
STACK CFI 26378 .cfa: r7 8 +
STACK CFI INIT 26394 14 .cfa: sp 0 +
STACK CFI INIT 263a8 2 .cfa: sp 0 +
STACK CFI INIT 263aa 4 .cfa: sp 0 +
STACK CFI INIT 263b0 68 .cfa: sp 0 +
STACK CFI 263b2 .cfa: sp 16 + .ra: .cfa -4 + ^ r7: .cfa -8 + ^ r5: .cfa -12 + ^ r4: .cfa -16 + ^
STACK CFI 263b4 .cfa: r7 8 +
STACK CFI INIT 26418 18 .cfa: sp 0 +
STACK CFI INIT 26430 c .cfa: sp 0 +
STACK CFI INIT 2643c 4 .cfa: sp 0 +
STACK CFI INIT 26440 20 .cfa: sp 0 +
STACK CFI 26442 .cfa: sp 16 + .ra: .cfa -4 + ^ r7: .cfa -8 + ^ r6: .cfa -12 + ^ r4: .cfa -16 + ^
STACK CFI 26444 .cfa: r7 8 +
STACK CFI INIT 26460 14 .cfa: sp 0 +
STACK CFI INIT 26474 2 .cfa: sp 0 +
STACK CFI INIT 26476 4 .cfa: sp 0 +
STACK CFI INIT 2647c 68 .cfa: sp 0 +
STACK CFI 2647e .cfa: sp 16 + .ra: .cfa -4 + ^ r7: .cfa -8 + ^ r5: .cfa -12 + ^ r4: .cfa -16 + ^
STACK CFI 26480 .cfa: r7 8 +
STACK CFI INIT 264e4 18 .cfa: sp 0 +
STACK CFI INIT 264fc c .cfa: sp 0 +
STACK CFI INIT 26508 4 .cfa: sp 0 +
STACK CFI INIT 2650c 20 .cfa: sp 0 +
STACK CFI 2650e .cfa: sp 16 + .ra: .cfa -4 + ^ r7: .cfa -8 + ^ r6: .cfa -12 + ^ r4: .cfa -16 + ^
STACK CFI 26510 .cfa: r7 8 +
STACK CFI INIT 2652c 14 .cfa: sp 0 +
STACK CFI INIT 26540 2 .cfa: sp 0 +
STACK CFI INIT 26542 4 .cfa: sp 0 +
STACK CFI INIT 26548 68 .cfa: sp 0 +
STACK CFI 2654a .cfa: sp 16 + .ra: .cfa -4 + ^ r7: .cfa -8 + ^ r5: .cfa -12 + ^ r4: .cfa -16 + ^
STACK CFI 2654c .cfa: r7 8 +
STACK CFI INIT 265b0 18 .cfa: sp 0 +
STACK CFI INIT 265c8 c .cfa: sp 0 +
STACK CFI INIT 265d4 4 .cfa: sp 0 +
STACK CFI INIT 265d8 20 .cfa: sp 0 +
STACK CFI 265da .cfa: sp 16 + .ra: .cfa -4 + ^ r7: .cfa -8 + ^ r6: .cfa -12 + ^ r4: .cfa -16 + ^
STACK CFI 265dc .cfa: r7 8 +
STACK CFI INIT 265f8 14 .cfa: sp 0 +
STACK CFI INIT 2660c 2 .cfa: sp 0 +
STACK CFI INIT 2660e 4 .cfa: sp 0 +
STACK CFI INIT 26614 68 .cfa: sp 0 +
STACK CFI 26616 .cfa: sp 16 + .ra: .cfa -4 + ^ r7: .cfa -8 + ^ r5: .cfa -12 + ^ r4: .cfa -16 + ^
STACK CFI 26618 .cfa: r7 8 +
STACK CFI INIT 2667c 18 .cfa: sp 0 +
STACK CFI INIT 26694 c .cfa: sp 0 +
STACK CFI INIT 266a0 4 .cfa: sp 0 +
STACK CFI INIT 266a4 20 .cfa: sp 0 +
STACK CFI 266a6 .cfa: sp 16 + .ra: .cfa -4 + ^ r7: .cfa -8 + ^ r6: .cfa -12 + ^ r4: .cfa -16 + ^
STACK CFI 266a8 .cfa: r7 8 +
STACK CFI INIT 266c4 14 .cfa: sp 0 +
STACK CFI INIT 266d8 2 .cfa: sp 0 +
STACK CFI INIT 266da 4 .cfa: sp 0 +
STACK CFI INIT 266e0 68 .cfa: sp 0 +
STACK CFI 266e2 .cfa: sp 16 + .ra: .cfa -4 + ^ r7: .cfa -8 + ^ r5: .cfa -12 + ^ r4: .cfa -16 + ^
STACK CFI 266e4 .cfa: r7 8 +
STACK CFI INIT 26748 18 .cfa: sp 0 +
STACK CFI INIT 26760 c .cfa: sp 0 +
STACK CFI INIT 2676c 4 .cfa: sp 0 +
STACK CFI INIT 26770 20 .cfa: sp 0 +
STACK CFI 26772 .cfa: sp 16 + .ra: .cfa -4 + ^ r7: .cfa -8 + ^ r6: .cfa -12 + ^ r4: .cfa -16 + ^
STACK CFI 26774 .cfa: r7 8 +
STACK CFI INIT 26790 14 .cfa: sp 0 +
STACK CFI INIT 267a4 2 .cfa: sp 0 +
STACK CFI INIT 267a6 4 .cfa: sp 0 +
STACK CFI INIT 267ac 68 .cfa: sp 0 +
STACK CFI 267ae .cfa: sp 16 + .ra: .cfa -4 + ^ r7: .cfa -8 + ^ r5: .cfa -12 + ^ r4: .cfa -16 + ^
STACK CFI 267b0 .cfa: r7 8 +
STACK CFI INIT 26814 18 .cfa: sp 0 +
STACK CFI INIT 2682c c .cfa: sp 0 +
STACK CFI INIT 26838 4 .cfa: sp 0 +
STACK CFI INIT 2683c 20 .cfa: sp 0 +
STACK CFI 2683e .cfa: sp 16 + .ra: .cfa -4 + ^ r7: .cfa -8 + ^ r6: .cfa -12 + ^ r4: .cfa -16 + ^
STACK CFI 26840 .cfa: r7 8 +
STACK CFI INIT 2685c 14 .cfa: sp 0 +
STACK CFI INIT 26870 2 .cfa: sp 0 +
STACK CFI INIT 26872 4 .cfa: sp 0 +
STACK CFI INIT 26878 68 .cfa: sp 0 +
STACK CFI 2687a .cfa: sp 16 + .ra: .cfa -4 + ^ r7: .cfa -8 + ^ r5: .cfa -12 + ^ r4: .cfa -16 + ^
STACK CFI 2687c .cfa: r7 8 +
STACK CFI INIT 268e0 18 .cfa: sp 0 +
STACK CFI INIT 268f8 c .cfa: sp 0 +
STACK CFI INIT 26904 4 .cfa: sp 0 +
STACK CFI INIT 26908 20 .cfa: sp 0 +
STACK CFI 2690a .cfa: sp 16 + .ra: .cfa -4 + ^ r7: .cfa -8 + ^ r6: .cfa -12 + ^ r4: .cfa -16 + ^
STACK CFI 2690c .cfa: r7 8 +
STACK CFI INIT 26928 14 .cfa: sp 0 +
STACK CFI INIT 2693c 2 .cfa: sp 0 +
STACK CFI INIT 2693e 4 .cfa: sp 0 +
STACK CFI INIT 26944 68 .cfa: sp 0 +
STACK CFI 26946 .cfa: sp 16 + .ra: .cfa -4 + ^ r7: .cfa -8 + ^ r5: .cfa -12 + ^ r4: .cfa -16 + ^
STACK CFI 26948 .cfa: r7 8 +
STACK CFI INIT 269ac 18 .cfa: sp 0 +
STACK CFI INIT 269c4 c .cfa: sp 0 +
STACK CFI INIT 269d0 4 .cfa: sp 0 +
STACK CFI INIT 269d4 20 .cfa: sp 0 +
STACK CFI 269d6 .cfa: sp 16 + .ra: .cfa -4 + ^ r7: .cfa -8 + ^ r6: .cfa -12 + ^ r4: .cfa -16 + ^
STACK CFI 269d8 .cfa: r7 8 +
STACK CFI INIT 269f4 14 .cfa: sp 0 +
STACK CFI INIT 26a08 2 .cfa: sp 0 +
STACK CFI INIT 26a0a 4 .cfa: sp 0 +
STACK CFI INIT 26a10 68 .cfa: sp 0 +
STACK CFI 26a12 .cfa: sp 16 + .ra: .cfa -4 + ^ r7: .cfa -8 + ^ r5: .cfa -12 + ^ r4: .cfa -16 + ^
STACK CFI 26a14 .cfa: r7 8 +
STACK CFI INIT 26a78 18 .cfa: sp 0 +
STACK CFI INIT 26a90 c .cfa: sp 0 +
STACK CFI INIT 26a9c 4 .cfa: sp 0 +
STACK CFI INIT 26aa0 20 .cfa: sp 0 +
STACK CFI 26aa2 .cfa: sp 16 + .ra: .cfa -4 + ^ r7: .cfa -8 + ^ r6: .cfa -12 + ^ r4: .cfa -16 + ^
STACK CFI 26aa4 .cfa: r7 8 +
STACK CFI INIT 26ac0 14 .cfa: sp 0 +
STACK CFI INIT 26ad4 2 .cfa: sp 0 +
STACK CFI INIT 26ad6 4 .cfa: sp 0 +
STACK CFI INIT 26adc 68 .cfa: sp 0 +
STACK CFI 26ade .cfa: sp 16 + .ra: .cfa -4 + ^ r7: .cfa -8 + ^ r5: .cfa -12 + ^ r4: .cfa -16 + ^
STACK CFI 26ae0 .cfa: r7 8 +
STACK CFI INIT 26b44 18 .cfa: sp 0 +
STACK CFI INIT 26b5c c .cfa: sp 0 +
STACK CFI INIT 26b68 4 .cfa: sp 0 +
STACK CFI INIT 26b6c 20 .cfa: sp 0 +
STACK CFI 26b6e .cfa: sp 16 + .ra: .cfa -4 + ^ r7: .cfa -8 + ^ r6: .cfa -12 + ^ r4: .cfa -16 + ^
STACK CFI 26b70 .cfa: r7 8 +
STACK CFI INIT 26b8c 14 .cfa: sp 0 +
STACK CFI INIT 26ba0 2 .cfa: sp 0 +
STACK CFI INIT 26ba2 4 .cfa: sp 0 +
STACK CFI INIT 26ba8 68 .cfa: sp 0 +
STACK CFI 26baa .cfa: sp 16 + .ra: .cfa -4 + ^ r7: .cfa -8 + ^ r5: .cfa -12 + ^ r4: .cfa -16 + ^
STACK CFI 26bac .cfa: r7 8 +
STACK CFI INIT 26c10 18 .cfa: sp 0 +
STACK CFI INIT 26c28 c .cfa: sp 0 +
STACK CFI INIT 26c34 4 .cfa: sp 0 +
STACK CFI INIT 26c38 20 .cfa: sp 0 +
STACK CFI 26c3a .cfa: sp 16 + .ra: .cfa -4 + ^ r7: .cfa -8 + ^ r6: .cfa -12 + ^ r4: .cfa -16 + ^
STACK CFI 26c3c .cfa: r7 8 +
STACK CFI INIT 26c58 14 .cfa: sp 0 +
STACK CFI INIT 26c6c 2 .cfa: sp 0 +
STACK CFI INIT 26c6e 4 .cfa: sp 0 +
STACK CFI INIT 26c74 68 .cfa: sp 0 +
STACK CFI 26c76 .cfa: sp 16 + .ra: .cfa -4 + ^ r7: .cfa -8 + ^ r5: .cfa -12 + ^ r4: .cfa -16 + ^
STACK CFI 26c78 .cfa: r7 8 +
STACK CFI INIT 26cdc 18 .cfa: sp 0 +
STACK CFI INIT 26cf4 c .cfa: sp 0 +
STACK CFI INIT 26d00 4 .cfa: sp 0 +
STACK CFI INIT 26d04 20 .cfa: sp 0 +
STACK CFI 26d06 .cfa: sp 16 + .ra: .cfa -4 + ^ r7: .cfa -8 + ^ r6: .cfa -12 + ^ r4: .cfa -16 + ^
STACK CFI 26d08 .cfa: r7 8 +
STACK CFI INIT 26d24 14 .cfa: sp 0 +
STACK CFI INIT 26d38 2 .cfa: sp 0 +
STACK CFI INIT 26d3a 4 .cfa: sp 0 +
STACK CFI INIT 26d40 68 .cfa: sp 0 +
STACK CFI 26d42 .cfa: sp 16 + .ra: .cfa -4 + ^ r7: .cfa -8 + ^ r5: .cfa -12 + ^ r4: .cfa -16 + ^
STACK CFI 26d44 .cfa: r7 8 +
STACK CFI INIT 26da8 18 .cfa: sp 0 +
STACK CFI INIT 26dc0 c .cfa: sp 0 +
STACK CFI INIT 26dcc 4 .cfa: sp 0 +
STACK CFI INIT 26dd0 20 .cfa: sp 0 +
STACK CFI 26dd2 .cfa: sp 16 + .ra: .cfa -4 + ^ r7: .cfa -8 + ^ r6: .cfa -12 + ^ r4: .cfa -16 + ^
STACK CFI 26dd4 .cfa: r7 8 +
STACK CFI INIT 26df0 14 .cfa: sp 0 +
STACK CFI INIT 26e04 2 .cfa: sp 0 +
STACK CFI INIT 26e06 4 .cfa: sp 0 +
STACK CFI INIT 26e0c 68 .cfa: sp 0 +
STACK CFI 26e0e .cfa: sp 16 + .ra: .cfa -4 + ^ r7: .cfa -8 + ^ r5: .cfa -12 + ^ r4: .cfa -16 + ^
STACK CFI 26e10 .cfa: r7 8 +
STACK CFI INIT 26e74 18 .cfa: sp 0 +
STACK CFI INIT 26e8c c .cfa: sp 0 +
STACK CFI INIT 26e98 4 .cfa: sp 0 +
STACK CFI INIT 26e9c 20 .cfa: sp 0 +
STACK CFI 26e9e .cfa: sp 16 + .ra: .cfa -4 + ^ r7: .cfa -8 + ^ r6: .cfa -12 + ^ r4: .cfa -16 + ^
STACK CFI 26ea0 .cfa: r7 8 +
STACK CFI INIT 26ebc 14 .cfa: sp 0 +
STACK CFI INIT 26ed0 2 .cfa: sp 0 +
STACK CFI INIT 26ed2 4 .cfa: sp 0 +
STACK CFI INIT 26ed8 68 .cfa: sp 0 +
STACK CFI 26eda .cfa: sp 16 + .ra: .cfa -4 + ^ r7: .cfa -8 + ^ r5: .cfa -12 + ^ r4: .cfa -16 + ^
STACK CFI 26edc .cfa: r7 8 +
STACK CFI INIT 26f40 18 .cfa: sp 0 +
STACK CFI INIT 26f58 c .cfa: sp 0 +
STACK CFI INIT 26f64 4 .cfa: sp 0 +
STACK CFI INIT 26f68 20 .cfa: sp 0 +
STACK CFI 26f6a .cfa: sp 16 + .ra: .cfa -4 + ^ r7: .cfa -8 + ^ r6: .cfa -12 + ^ r4: .cfa -16 + ^
STACK CFI 26f6c .cfa: r7 8 +
STACK CFI INIT 26f88 14 .cfa: sp 0 +
STACK CFI INIT 26f9c 2 .cfa: sp 0 +
STACK CFI INIT 26f9e 4 .cfa: sp 0 +
STACK CFI INIT 26fa4 68 .cfa: sp 0 +
STACK CFI 26fa6 .cfa: sp 16 + .ra: .cfa -4 + ^ r7: .cfa -8 + ^ r5: .cfa -12 + ^ r4: .cfa -16 + ^
STACK CFI 26fa8 .cfa: r7 8 +
STACK CFI INIT 2700c 18 .cfa: sp 0 +
STACK CFI INIT 27024 c .cfa: sp 0 +
STACK CFI INIT 27030 4 .cfa: sp 0 +
STACK CFI INIT 27034 20 .cfa: sp 0 +
STACK CFI 27036 .cfa: sp 16 + .ra: .cfa -4 + ^ r7: .cfa -8 + ^ r6: .cfa -12 + ^ r4: .cfa -16 + ^
STACK CFI 27038 .cfa: r7 8 +
STACK CFI INIT 27054 14 .cfa: sp 0 +
STACK CFI INIT 27068 2 .cfa: sp 0 +
STACK CFI INIT 2706a 4 .cfa: sp 0 +
STACK CFI INIT 27070 68 .cfa: sp 0 +
STACK CFI 27072 .cfa: sp 16 + .ra: .cfa -4 + ^ r7: .cfa -8 + ^ r5: .cfa -12 + ^ r4: .cfa -16 + ^
STACK CFI 27074 .cfa: r7 8 +
STACK CFI INIT 270d8 18 .cfa: sp 0 +
STACK CFI INIT 270f0 c .cfa: sp 0 +
STACK CFI INIT 270fc 4 .cfa: sp 0 +
STACK CFI INIT 27100 20 .cfa: sp 0 +
STACK CFI 27102 .cfa: sp 16 + .ra: .cfa -4 + ^ r7: .cfa -8 + ^ r6: .cfa -12 + ^ r4: .cfa -16 + ^
STACK CFI 27104 .cfa: r7 8 +
STACK CFI INIT 27120 14 .cfa: sp 0 +
STACK CFI INIT 27134 2 .cfa: sp 0 +
STACK CFI INIT 27136 4 .cfa: sp 0 +
STACK CFI INIT 2713c 68 .cfa: sp 0 +
STACK CFI 2713e .cfa: sp 16 + .ra: .cfa -4 + ^ r7: .cfa -8 + ^ r5: .cfa -12 + ^ r4: .cfa -16 + ^
STACK CFI 27140 .cfa: r7 8 +
STACK CFI INIT 271a4 18 .cfa: sp 0 +
STACK CFI INIT 271bc c .cfa: sp 0 +
STACK CFI INIT 271c8 4 .cfa: sp 0 +
STACK CFI INIT 271cc 20 .cfa: sp 0 +
STACK CFI 271ce .cfa: sp 16 + .ra: .cfa -4 + ^ r7: .cfa -8 + ^ r6: .cfa -12 + ^ r4: .cfa -16 + ^
STACK CFI 271d0 .cfa: r7 8 +
STACK CFI INIT 271ec 14 .cfa: sp 0 +
STACK CFI INIT 27200 2 .cfa: sp 0 +
STACK CFI INIT 27202 4 .cfa: sp 0 +
STACK CFI INIT 27208 68 .cfa: sp 0 +
STACK CFI 2720a .cfa: sp 16 + .ra: .cfa -4 + ^ r7: .cfa -8 + ^ r5: .cfa -12 + ^ r4: .cfa -16 + ^
STACK CFI 2720c .cfa: r7 8 +
STACK CFI INIT 27270 18 .cfa: sp 0 +
STACK CFI INIT 27288 c .cfa: sp 0 +
STACK CFI INIT 27294 1f70 .cfa: sp 0 +
STACK CFI 27296 .cfa: sp 20 + .ra: .cfa -4 + ^ r7: .cfa -8 + ^ r6: .cfa -12 + ^ r5: .cfa -16 + ^ r4: .cfa -20 + ^
STACK CFI 27298 .cfa: r7 8 +
STACK CFI 2729c r11: .cfa -24 + ^ r10: .cfa -28 + ^ r9: .cfa -32 + ^ r8: .cfa -36 + ^
STACK CFI INIT 29204 88 .cfa: sp 0 +
STACK CFI 29206 .cfa: sp 16 + .ra: .cfa -4 + ^ r7: .cfa -8 + ^ r5: .cfa -12 + ^ r4: .cfa -16 + ^
STACK CFI 29208 .cfa: r7 8 +
STACK CFI INIT 2928c 88 .cfa: sp 0 +
STACK CFI 2928e .cfa: sp 16 + .ra: .cfa -4 + ^ r7: .cfa -8 + ^ r5: .cfa -12 + ^ r4: .cfa -16 + ^
STACK CFI 29290 .cfa: r7 8 +
STACK CFI INIT 29314 88 .cfa: sp 0 +
STACK CFI 29316 .cfa: sp 16 + .ra: .cfa -4 + ^ r7: .cfa -8 + ^ r5: .cfa -12 + ^ r4: .cfa -16 + ^
STACK CFI 29318 .cfa: r7 8 +
STACK CFI INIT 2939c 88 .cfa: sp 0 +
STACK CFI 2939e .cfa: sp 16 + .ra: .cfa -4 + ^ r7: .cfa -8 + ^ r5: .cfa -12 + ^ r4: .cfa -16 + ^
STACK CFI 293a0 .cfa: r7 8 +
STACK CFI INIT 29424 88 .cfa: sp 0 +
STACK CFI 29426 .cfa: sp 16 + .ra: .cfa -4 + ^ r7: .cfa -8 + ^ r5: .cfa -12 + ^ r4: .cfa -16 + ^
STACK CFI 29428 .cfa: r7 8 +
STACK CFI INIT 294ac 88 .cfa: sp 0 +
STACK CFI 294ae .cfa: sp 16 + .ra: .cfa -4 + ^ r7: .cfa -8 + ^ r5: .cfa -12 + ^ r4: .cfa -16 + ^
STACK CFI 294b0 .cfa: r7 8 +
STACK CFI INIT 29534 88 .cfa: sp 0 +
STACK CFI 29536 .cfa: sp 16 + .ra: .cfa -4 + ^ r7: .cfa -8 + ^ r5: .cfa -12 + ^ r4: .cfa -16 + ^
STACK CFI 29538 .cfa: r7 8 +
STACK CFI INIT 295bc 88 .cfa: sp 0 +
STACK CFI 295be .cfa: sp 16 + .ra: .cfa -4 + ^ r7: .cfa -8 + ^ r5: .cfa -12 + ^ r4: .cfa -16 + ^
STACK CFI 295c0 .cfa: r7 8 +
STACK CFI INIT 29644 88 .cfa: sp 0 +
STACK CFI 29646 .cfa: sp 16 + .ra: .cfa -4 + ^ r7: .cfa -8 + ^ r5: .cfa -12 + ^ r4: .cfa -16 + ^
STACK CFI 29648 .cfa: r7 8 +
STACK CFI INIT 296cc 88 .cfa: sp 0 +
STACK CFI 296ce .cfa: sp 16 + .ra: .cfa -4 + ^ r7: .cfa -8 + ^ r5: .cfa -12 + ^ r4: .cfa -16 + ^
STACK CFI 296d0 .cfa: r7 8 +
STACK CFI INIT 29754 74 .cfa: sp 0 +
STACK CFI 29756 .cfa: sp 16 + .ra: .cfa -4 + ^ r7: .cfa -8 + ^ r6: .cfa -12 + ^ r4: .cfa -16 + ^
STACK CFI 29758 .cfa: r7 8 +
STACK CFI INIT 297c8 10 .cfa: sp 0 +
STACK CFI 297ca .cfa: sp 8 + .ra: .cfa -4 + ^ r7: .cfa -8 + ^
STACK CFI 297cc .cfa: r7 8 +
STACK CFI INIT 297d8 8 .cfa: sp 0 +
STACK CFI INIT 297e0 14 .cfa: sp 0 +
STACK CFI 297e2 .cfa: sp 8 + .ra: .cfa -4 + ^ r7: .cfa -8 + ^
STACK CFI 297e4 .cfa: r7 8 +
STACK CFI INIT 297f4 4 .cfa: sp 0 +
STACK CFI INIT 297f8 20 .cfa: sp 0 +
STACK CFI 297fa .cfa: sp 16 + .ra: .cfa -4 + ^ r7: .cfa -8 + ^ r6: .cfa -12 + ^ r4: .cfa -16 + ^
STACK CFI 297fc .cfa: r7 8 +
STACK CFI INIT 29818 14 .cfa: sp 0 +
STACK CFI INIT 2982c 2 .cfa: sp 0 +
STACK CFI INIT 2982e 4 .cfa: sp 0 +
STACK CFI INIT 29834 68 .cfa: sp 0 +
STACK CFI 29836 .cfa: sp 16 + .ra: .cfa -4 + ^ r7: .cfa -8 + ^ r5: .cfa -12 + ^ r4: .cfa -16 + ^
STACK CFI 29838 .cfa: r7 8 +
STACK CFI INIT 2989c 18 .cfa: sp 0 +
STACK CFI INIT 298b4 c .cfa: sp 0 +
STACK CFI INIT 298c0 4 .cfa: sp 0 +
STACK CFI INIT 298c4 20 .cfa: sp 0 +
STACK CFI 298c6 .cfa: sp 16 + .ra: .cfa -4 + ^ r7: .cfa -8 + ^ r6: .cfa -12 + ^ r4: .cfa -16 + ^
STACK CFI 298c8 .cfa: r7 8 +
STACK CFI INIT 298e4 14 .cfa: sp 0 +
STACK CFI INIT 298f8 2 .cfa: sp 0 +
STACK CFI INIT 298fa 4 .cfa: sp 0 +
STACK CFI INIT 29900 68 .cfa: sp 0 +
STACK CFI 29902 .cfa: sp 16 + .ra: .cfa -4 + ^ r7: .cfa -8 + ^ r5: .cfa -12 + ^ r4: .cfa -16 + ^
STACK CFI 29904 .cfa: r7 8 +
STACK CFI INIT 29968 18 .cfa: sp 0 +
STACK CFI INIT 29980 c .cfa: sp 0 +
STACK CFI INIT 2998c 4 .cfa: sp 0 +
STACK CFI INIT 29990 20 .cfa: sp 0 +
STACK CFI 29992 .cfa: sp 16 + .ra: .cfa -4 + ^ r7: .cfa -8 + ^ r6: .cfa -12 + ^ r4: .cfa -16 + ^
STACK CFI 29994 .cfa: r7 8 +
STACK CFI INIT 299b0 14 .cfa: sp 0 +
STACK CFI INIT 299c4 2 .cfa: sp 0 +
STACK CFI INIT 299c6 4 .cfa: sp 0 +
STACK CFI INIT 299cc 68 .cfa: sp 0 +
STACK CFI 299ce .cfa: sp 16 + .ra: .cfa -4 + ^ r7: .cfa -8 + ^ r5: .cfa -12 + ^ r4: .cfa -16 + ^
STACK CFI 299d0 .cfa: r7 8 +
STACK CFI INIT 29a34 18 .cfa: sp 0 +
STACK CFI INIT 29a4c c .cfa: sp 0 +
STACK CFI INIT 29a58 4 .cfa: sp 0 +
STACK CFI INIT 29a5c 20 .cfa: sp 0 +
STACK CFI 29a5e .cfa: sp 16 + .ra: .cfa -4 + ^ r7: .cfa -8 + ^ r6: .cfa -12 + ^ r4: .cfa -16 + ^
STACK CFI 29a60 .cfa: r7 8 +
STACK CFI INIT 29a7c 14 .cfa: sp 0 +
STACK CFI INIT 29a90 2 .cfa: sp 0 +
STACK CFI INIT 29a92 4 .cfa: sp 0 +
STACK CFI INIT 29a98 68 .cfa: sp 0 +
STACK CFI 29a9a .cfa: sp 16 + .ra: .cfa -4 + ^ r7: .cfa -8 + ^ r5: .cfa -12 + ^ r4: .cfa -16 + ^
STACK CFI 29a9c .cfa: r7 8 +
STACK CFI INIT 29b00 18 .cfa: sp 0 +
STACK CFI INIT 29b18 c .cfa: sp 0 +
STACK CFI INIT 29b24 4 .cfa: sp 0 +
STACK CFI INIT 29b28 20 .cfa: sp 0 +
STACK CFI 29b2a .cfa: sp 16 + .ra: .cfa -4 + ^ r7: .cfa -8 + ^ r6: .cfa -12 + ^ r4: .cfa -16 + ^
STACK CFI 29b2c .cfa: r7 8 +
STACK CFI INIT 29b48 14 .cfa: sp 0 +
STACK CFI INIT 29b5c 2 .cfa: sp 0 +
STACK CFI INIT 29b5e 4 .cfa: sp 0 +
STACK CFI INIT 29b64 68 .cfa: sp 0 +
STACK CFI 29b66 .cfa: sp 16 + .ra: .cfa -4 + ^ r7: .cfa -8 + ^ r5: .cfa -12 + ^ r4: .cfa -16 + ^
STACK CFI 29b68 .cfa: r7 8 +
STACK CFI INIT 29bcc 18 .cfa: sp 0 +
STACK CFI INIT 29be4 c .cfa: sp 0 +
STACK CFI INIT 29bf0 4 .cfa: sp 0 +
STACK CFI INIT 29bf4 20 .cfa: sp 0 +
STACK CFI 29bf6 .cfa: sp 16 + .ra: .cfa -4 + ^ r7: .cfa -8 + ^ r6: .cfa -12 + ^ r4: .cfa -16 + ^
STACK CFI 29bf8 .cfa: r7 8 +
STACK CFI INIT 29c14 14 .cfa: sp 0 +
STACK CFI INIT 29c28 2 .cfa: sp 0 +
STACK CFI INIT 29c2a 4 .cfa: sp 0 +
STACK CFI INIT 29c30 68 .cfa: sp 0 +
STACK CFI 29c32 .cfa: sp 16 + .ra: .cfa -4 + ^ r7: .cfa -8 + ^ r5: .cfa -12 + ^ r4: .cfa -16 + ^
STACK CFI 29c34 .cfa: r7 8 +
STACK CFI INIT 29c98 18 .cfa: sp 0 +
STACK CFI INIT 29cb0 c .cfa: sp 0 +
STACK CFI INIT 29cbc 4 .cfa: sp 0 +
STACK CFI INIT 29cc0 20 .cfa: sp 0 +
STACK CFI 29cc2 .cfa: sp 16 + .ra: .cfa -4 + ^ r7: .cfa -8 + ^ r6: .cfa -12 + ^ r4: .cfa -16 + ^
STACK CFI 29cc4 .cfa: r7 8 +
STACK CFI INIT 29ce0 14 .cfa: sp 0 +
STACK CFI INIT 29cf4 2 .cfa: sp 0 +
STACK CFI INIT 29cf6 4 .cfa: sp 0 +
STACK CFI INIT 29cfc 68 .cfa: sp 0 +
STACK CFI 29cfe .cfa: sp 16 + .ra: .cfa -4 + ^ r7: .cfa -8 + ^ r5: .cfa -12 + ^ r4: .cfa -16 + ^
STACK CFI 29d00 .cfa: r7 8 +
STACK CFI INIT 29d64 18 .cfa: sp 0 +
STACK CFI INIT 29d7c c .cfa: sp 0 +
STACK CFI INIT 29d88 4 .cfa: sp 0 +
STACK CFI INIT 29d8c 20 .cfa: sp 0 +
STACK CFI 29d8e .cfa: sp 16 + .ra: .cfa -4 + ^ r7: .cfa -8 + ^ r6: .cfa -12 + ^ r4: .cfa -16 + ^
STACK CFI 29d90 .cfa: r7 8 +
STACK CFI INIT 29dac 14 .cfa: sp 0 +
STACK CFI INIT 29dc0 2 .cfa: sp 0 +
STACK CFI INIT 29dc2 4 .cfa: sp 0 +
STACK CFI INIT 29dc8 68 .cfa: sp 0 +
STACK CFI 29dca .cfa: sp 16 + .ra: .cfa -4 + ^ r7: .cfa -8 + ^ r5: .cfa -12 + ^ r4: .cfa -16 + ^
STACK CFI 29dcc .cfa: r7 8 +
STACK CFI INIT 29e30 18 .cfa: sp 0 +
STACK CFI INIT 29e48 c .cfa: sp 0 +
STACK CFI INIT 29e54 4 .cfa: sp 0 +
STACK CFI INIT 29e58 20 .cfa: sp 0 +
STACK CFI 29e5a .cfa: sp 16 + .ra: .cfa -4 + ^ r7: .cfa -8 + ^ r6: .cfa -12 + ^ r4: .cfa -16 + ^
STACK CFI 29e5c .cfa: r7 8 +
STACK CFI INIT 29e78 14 .cfa: sp 0 +
STACK CFI INIT 29e8c 2 .cfa: sp 0 +
STACK CFI INIT 29e8e 4 .cfa: sp 0 +
STACK CFI INIT 29e94 68 .cfa: sp 0 +
STACK CFI 29e96 .cfa: sp 16 + .ra: .cfa -4 + ^ r7: .cfa -8 + ^ r5: .cfa -12 + ^ r4: .cfa -16 + ^
STACK CFI 29e98 .cfa: r7 8 +
STACK CFI INIT 29efc 18 .cfa: sp 0 +
STACK CFI INIT 29f14 c .cfa: sp 0 +
STACK CFI INIT 29f20 4 .cfa: sp 0 +
STACK CFI INIT 29f24 20 .cfa: sp 0 +
STACK CFI 29f26 .cfa: sp 16 + .ra: .cfa -4 + ^ r7: .cfa -8 + ^ r6: .cfa -12 + ^ r4: .cfa -16 + ^
STACK CFI 29f28 .cfa: r7 8 +
STACK CFI INIT 29f44 14 .cfa: sp 0 +
STACK CFI INIT 29f58 2 .cfa: sp 0 +
STACK CFI INIT 29f5a 4 .cfa: sp 0 +
STACK CFI INIT 29f60 68 .cfa: sp 0 +
STACK CFI 29f62 .cfa: sp 16 + .ra: .cfa -4 + ^ r7: .cfa -8 + ^ r5: .cfa -12 + ^ r4: .cfa -16 + ^
STACK CFI 29f64 .cfa: r7 8 +
STACK CFI INIT 29fc8 18 .cfa: sp 0 +
STACK CFI INIT 29fe0 c .cfa: sp 0 +
STACK CFI INIT 29fec 4 .cfa: sp 0 +
STACK CFI INIT 29ff0 20 .cfa: sp 0 +
STACK CFI 29ff2 .cfa: sp 16 + .ra: .cfa -4 + ^ r7: .cfa -8 + ^ r6: .cfa -12 + ^ r4: .cfa -16 + ^
STACK CFI 29ff4 .cfa: r7 8 +
STACK CFI INIT 2a010 14 .cfa: sp 0 +
STACK CFI INIT 2a024 2 .cfa: sp 0 +
STACK CFI INIT 2a026 4 .cfa: sp 0 +
STACK CFI INIT 2a02c 68 .cfa: sp 0 +
STACK CFI 2a02e .cfa: sp 16 + .ra: .cfa -4 + ^ r7: .cfa -8 + ^ r5: .cfa -12 + ^ r4: .cfa -16 + ^
STACK CFI 2a030 .cfa: r7 8 +
STACK CFI INIT 2a094 18 .cfa: sp 0 +
STACK CFI INIT 2a0ac c .cfa: sp 0 +
STACK CFI INIT 2a0b8 4 .cfa: sp 0 +
STACK CFI INIT 2a0bc 20 .cfa: sp 0 +
STACK CFI 2a0be .cfa: sp 16 + .ra: .cfa -4 + ^ r7: .cfa -8 + ^ r6: .cfa -12 + ^ r4: .cfa -16 + ^
STACK CFI 2a0c0 .cfa: r7 8 +
STACK CFI INIT 2a0dc 14 .cfa: sp 0 +
STACK CFI INIT 2a0f0 2 .cfa: sp 0 +
STACK CFI INIT 2a0f2 4 .cfa: sp 0 +
STACK CFI INIT 2a0f8 68 .cfa: sp 0 +
STACK CFI 2a0fa .cfa: sp 16 + .ra: .cfa -4 + ^ r7: .cfa -8 + ^ r5: .cfa -12 + ^ r4: .cfa -16 + ^
STACK CFI 2a0fc .cfa: r7 8 +
STACK CFI INIT 2a160 18 .cfa: sp 0 +
STACK CFI INIT 2a178 c .cfa: sp 0 +
STACK CFI INIT 2a184 4 .cfa: sp 0 +
STACK CFI INIT 2a188 20 .cfa: sp 0 +
STACK CFI 2a18a .cfa: sp 16 + .ra: .cfa -4 + ^ r7: .cfa -8 + ^ r6: .cfa -12 + ^ r4: .cfa -16 + ^
STACK CFI 2a18c .cfa: r7 8 +
STACK CFI INIT 2a1a8 14 .cfa: sp 0 +
STACK CFI INIT 2a1bc 2 .cfa: sp 0 +
STACK CFI INIT 2a1be 4 .cfa: sp 0 +
STACK CFI INIT 2a1c4 68 .cfa: sp 0 +
STACK CFI 2a1c6 .cfa: sp 16 + .ra: .cfa -4 + ^ r7: .cfa -8 + ^ r5: .cfa -12 + ^ r4: .cfa -16 + ^
STACK CFI 2a1c8 .cfa: r7 8 +
STACK CFI INIT 2a22c 18 .cfa: sp 0 +
STACK CFI INIT 2a244 c .cfa: sp 0 +
STACK CFI INIT 2a250 4 .cfa: sp 0 +
STACK CFI INIT 2a254 20 .cfa: sp 0 +
STACK CFI 2a256 .cfa: sp 16 + .ra: .cfa -4 + ^ r7: .cfa -8 + ^ r6: .cfa -12 + ^ r4: .cfa -16 + ^
STACK CFI 2a258 .cfa: r7 8 +
STACK CFI INIT 2a274 14 .cfa: sp 0 +
STACK CFI INIT 2a288 2 .cfa: sp 0 +
STACK CFI INIT 2a28a 4 .cfa: sp 0 +
STACK CFI INIT 2a290 68 .cfa: sp 0 +
STACK CFI 2a292 .cfa: sp 16 + .ra: .cfa -4 + ^ r7: .cfa -8 + ^ r5: .cfa -12 + ^ r4: .cfa -16 + ^
STACK CFI 2a294 .cfa: r7 8 +
STACK CFI INIT 2a2f8 18 .cfa: sp 0 +
STACK CFI INIT 2a310 c .cfa: sp 0 +
STACK CFI INIT 2a31c 4 .cfa: sp 0 +
STACK CFI INIT 2a320 20 .cfa: sp 0 +
STACK CFI 2a322 .cfa: sp 16 + .ra: .cfa -4 + ^ r7: .cfa -8 + ^ r6: .cfa -12 + ^ r4: .cfa -16 + ^
STACK CFI 2a324 .cfa: r7 8 +
STACK CFI INIT 2a340 14 .cfa: sp 0 +
STACK CFI INIT 2a354 2 .cfa: sp 0 +
STACK CFI INIT 2a356 4 .cfa: sp 0 +
STACK CFI INIT 2a35c 68 .cfa: sp 0 +
STACK CFI 2a35e .cfa: sp 16 + .ra: .cfa -4 + ^ r7: .cfa -8 + ^ r5: .cfa -12 + ^ r4: .cfa -16 + ^
STACK CFI 2a360 .cfa: r7 8 +
STACK CFI INIT 2a3c4 18 .cfa: sp 0 +
STACK CFI INIT 2a3dc c .cfa: sp 0 +
STACK CFI INIT 2a3e8 4 .cfa: sp 0 +
STACK CFI INIT 2a3ec 20 .cfa: sp 0 +
STACK CFI 2a3ee .cfa: sp 16 + .ra: .cfa -4 + ^ r7: .cfa -8 + ^ r6: .cfa -12 + ^ r4: .cfa -16 + ^
STACK CFI 2a3f0 .cfa: r7 8 +
STACK CFI INIT 2a40c 14 .cfa: sp 0 +
STACK CFI INIT 2a420 2 .cfa: sp 0 +
STACK CFI INIT 2a422 4 .cfa: sp 0 +
STACK CFI INIT 2a428 68 .cfa: sp 0 +
STACK CFI 2a42a .cfa: sp 16 + .ra: .cfa -4 + ^ r7: .cfa -8 + ^ r5: .cfa -12 + ^ r4: .cfa -16 + ^
STACK CFI 2a42c .cfa: r7 8 +
STACK CFI INIT 2a490 18 .cfa: sp 0 +
STACK CFI INIT 2a4a8 c .cfa: sp 0 +
STACK CFI INIT 2a4b4 4 .cfa: sp 0 +
STACK CFI INIT 2a4b8 20 .cfa: sp 0 +
STACK CFI 2a4ba .cfa: sp 16 + .ra: .cfa -4 + ^ r7: .cfa -8 + ^ r6: .cfa -12 + ^ r4: .cfa -16 + ^
STACK CFI 2a4bc .cfa: r7 8 +
STACK CFI INIT 2a4d8 14 .cfa: sp 0 +
STACK CFI INIT 2a4ec 2 .cfa: sp 0 +
STACK CFI INIT 2a4ee 4 .cfa: sp 0 +
STACK CFI INIT 2a4f4 68 .cfa: sp 0 +
STACK CFI 2a4f6 .cfa: sp 16 + .ra: .cfa -4 + ^ r7: .cfa -8 + ^ r5: .cfa -12 + ^ r4: .cfa -16 + ^
STACK CFI 2a4f8 .cfa: r7 8 +
STACK CFI INIT 2a55c 18 .cfa: sp 0 +
STACK CFI INIT 2a574 c .cfa: sp 0 +
STACK CFI INIT 2a580 4 .cfa: sp 0 +
STACK CFI INIT 2a584 20 .cfa: sp 0 +
STACK CFI 2a586 .cfa: sp 16 + .ra: .cfa -4 + ^ r7: .cfa -8 + ^ r6: .cfa -12 + ^ r4: .cfa -16 + ^
STACK CFI 2a588 .cfa: r7 8 +
STACK CFI INIT 2a5a4 14 .cfa: sp 0 +
STACK CFI INIT 2a5b8 2 .cfa: sp 0 +
STACK CFI INIT 2a5ba 4 .cfa: sp 0 +
STACK CFI INIT 2a5c0 68 .cfa: sp 0 +
STACK CFI 2a5c2 .cfa: sp 16 + .ra: .cfa -4 + ^ r7: .cfa -8 + ^ r5: .cfa -12 + ^ r4: .cfa -16 + ^
STACK CFI 2a5c4 .cfa: r7 8 +
STACK CFI INIT 2a628 18 .cfa: sp 0 +
STACK CFI INIT 2a640 c .cfa: sp 0 +
STACK CFI INIT 2a64c 4 .cfa: sp 0 +
STACK CFI INIT 2a650 20 .cfa: sp 0 +
STACK CFI 2a652 .cfa: sp 16 + .ra: .cfa -4 + ^ r7: .cfa -8 + ^ r6: .cfa -12 + ^ r4: .cfa -16 + ^
STACK CFI 2a654 .cfa: r7 8 +
STACK CFI INIT 2a670 14 .cfa: sp 0 +
STACK CFI INIT 2a684 2 .cfa: sp 0 +
STACK CFI INIT 2a686 4 .cfa: sp 0 +
STACK CFI INIT 2a68c 68 .cfa: sp 0 +
STACK CFI 2a68e .cfa: sp 16 + .ra: .cfa -4 + ^ r7: .cfa -8 + ^ r5: .cfa -12 + ^ r4: .cfa -16 + ^
STACK CFI 2a690 .cfa: r7 8 +
STACK CFI INIT 2a6f4 18 .cfa: sp 0 +
STACK CFI INIT 2a70c c .cfa: sp 0 +
STACK CFI INIT 2a718 4 .cfa: sp 0 +
STACK CFI INIT 2a71c 20 .cfa: sp 0 +
STACK CFI 2a71e .cfa: sp 16 + .ra: .cfa -4 + ^ r7: .cfa -8 + ^ r6: .cfa -12 + ^ r4: .cfa -16 + ^
STACK CFI 2a720 .cfa: r7 8 +
STACK CFI INIT 2a73c 14 .cfa: sp 0 +
STACK CFI INIT 2a750 2 .cfa: sp 0 +
STACK CFI INIT 2a752 4 .cfa: sp 0 +
STACK CFI INIT 2a758 68 .cfa: sp 0 +
STACK CFI 2a75a .cfa: sp 16 + .ra: .cfa -4 + ^ r7: .cfa -8 + ^ r5: .cfa -12 + ^ r4: .cfa -16 + ^
STACK CFI 2a75c .cfa: r7 8 +
STACK CFI INIT 2a7c0 18 .cfa: sp 0 +
STACK CFI INIT 2a7d8 c .cfa: sp 0 +
STACK CFI INIT 2a7e4 1f70 .cfa: sp 0 +
STACK CFI 2a7e6 .cfa: sp 20 + .ra: .cfa -4 + ^ r7: .cfa -8 + ^ r6: .cfa -12 + ^ r5: .cfa -16 + ^ r4: .cfa -20 + ^
STACK CFI 2a7e8 .cfa: r7 8 +
STACK CFI 2a7ec r11: .cfa -24 + ^ r10: .cfa -28 + ^ r9: .cfa -32 + ^ r8: .cfa -36 + ^
STACK CFI INIT 2c754 88 .cfa: sp 0 +
STACK CFI 2c756 .cfa: sp 16 + .ra: .cfa -4 + ^ r7: .cfa -8 + ^ r5: .cfa -12 + ^ r4: .cfa -16 + ^
STACK CFI 2c758 .cfa: r7 8 +
STACK CFI INIT 2c7dc 88 .cfa: sp 0 +
STACK CFI 2c7de .cfa: sp 16 + .ra: .cfa -4 + ^ r7: .cfa -8 + ^ r5: .cfa -12 + ^ r4: .cfa -16 + ^
STACK CFI 2c7e0 .cfa: r7 8 +
STACK CFI INIT 2c864 88 .cfa: sp 0 +
STACK CFI 2c866 .cfa: sp 16 + .ra: .cfa -4 + ^ r7: .cfa -8 + ^ r5: .cfa -12 + ^ r4: .cfa -16 + ^
STACK CFI 2c868 .cfa: r7 8 +
STACK CFI INIT 2c8ec 88 .cfa: sp 0 +
STACK CFI 2c8ee .cfa: sp 16 + .ra: .cfa -4 + ^ r7: .cfa -8 + ^ r5: .cfa -12 + ^ r4: .cfa -16 + ^
STACK CFI 2c8f0 .cfa: r7 8 +
STACK CFI INIT 2c974 88 .cfa: sp 0 +
STACK CFI 2c976 .cfa: sp 16 + .ra: .cfa -4 + ^ r7: .cfa -8 + ^ r5: .cfa -12 + ^ r4: .cfa -16 + ^
STACK CFI 2c978 .cfa: r7 8 +
STACK CFI INIT 2c9fc 88 .cfa: sp 0 +
STACK CFI 2c9fe .cfa: sp 16 + .ra: .cfa -4 + ^ r7: .cfa -8 + ^ r5: .cfa -12 + ^ r4: .cfa -16 + ^
STACK CFI 2ca00 .cfa: r7 8 +
STACK CFI INIT 2ca84 88 .cfa: sp 0 +
STACK CFI 2ca86 .cfa: sp 16 + .ra: .cfa -4 + ^ r7: .cfa -8 + ^ r5: .cfa -12 + ^ r4: .cfa -16 + ^
STACK CFI 2ca88 .cfa: r7 8 +
STACK CFI INIT 2cb0c 88 .cfa: sp 0 +
STACK CFI 2cb0e .cfa: sp 16 + .ra: .cfa -4 + ^ r7: .cfa -8 + ^ r5: .cfa -12 + ^ r4: .cfa -16 + ^
STACK CFI 2cb10 .cfa: r7 8 +
STACK CFI INIT 2cb94 88 .cfa: sp 0 +
STACK CFI 2cb96 .cfa: sp 16 + .ra: .cfa -4 + ^ r7: .cfa -8 + ^ r5: .cfa -12 + ^ r4: .cfa -16 + ^
STACK CFI 2cb98 .cfa: r7 8 +
STACK CFI INIT 2cc1c 88 .cfa: sp 0 +
STACK CFI 2cc1e .cfa: sp 16 + .ra: .cfa -4 + ^ r7: .cfa -8 + ^ r5: .cfa -12 + ^ r4: .cfa -16 + ^
STACK CFI 2cc20 .cfa: r7 8 +
STACK CFI INIT 2cca4 74 .cfa: sp 0 +
STACK CFI 2cca6 .cfa: sp 16 + .ra: .cfa -4 + ^ r7: .cfa -8 + ^ r6: .cfa -12 + ^ r4: .cfa -16 + ^
STACK CFI 2cca8 .cfa: r7 8 +
STACK CFI INIT 2cd18 10 .cfa: sp 0 +
STACK CFI 2cd1a .cfa: sp 8 + .ra: .cfa -4 + ^ r7: .cfa -8 + ^
STACK CFI 2cd1c .cfa: r7 8 +
STACK CFI INIT 2cd28 8 .cfa: sp 0 +
STACK CFI INIT 2cd30 14 .cfa: sp 0 +
STACK CFI 2cd32 .cfa: sp 8 + .ra: .cfa -4 + ^ r7: .cfa -8 + ^
STACK CFI 2cd34 .cfa: r7 8 +
STACK CFI INIT 2cd44 4 .cfa: sp 0 +
STACK CFI INIT 2cd48 20 .cfa: sp 0 +
STACK CFI 2cd4a .cfa: sp 16 + .ra: .cfa -4 + ^ r7: .cfa -8 + ^ r6: .cfa -12 + ^ r4: .cfa -16 + ^
STACK CFI 2cd4c .cfa: r7 8 +
STACK CFI INIT 2cd68 14 .cfa: sp 0 +
STACK CFI INIT 2cd7c 2 .cfa: sp 0 +
STACK CFI INIT 2cd7e 4 .cfa: sp 0 +
STACK CFI INIT 2cd84 68 .cfa: sp 0 +
STACK CFI 2cd86 .cfa: sp 16 + .ra: .cfa -4 + ^ r7: .cfa -8 + ^ r5: .cfa -12 + ^ r4: .cfa -16 + ^
STACK CFI 2cd88 .cfa: r7 8 +
STACK CFI INIT 2cdec 18 .cfa: sp 0 +
STACK CFI INIT 2ce04 c .cfa: sp 0 +
STACK CFI INIT 2ce10 4 .cfa: sp 0 +
STACK CFI INIT 2ce14 20 .cfa: sp 0 +
STACK CFI 2ce16 .cfa: sp 16 + .ra: .cfa -4 + ^ r7: .cfa -8 + ^ r6: .cfa -12 + ^ r4: .cfa -16 + ^
STACK CFI 2ce18 .cfa: r7 8 +
STACK CFI INIT 2ce34 14 .cfa: sp 0 +
STACK CFI INIT 2ce48 2 .cfa: sp 0 +
STACK CFI INIT 2ce4a 4 .cfa: sp 0 +
STACK CFI INIT 2ce50 68 .cfa: sp 0 +
STACK CFI 2ce52 .cfa: sp 16 + .ra: .cfa -4 + ^ r7: .cfa -8 + ^ r5: .cfa -12 + ^ r4: .cfa -16 + ^
STACK CFI 2ce54 .cfa: r7 8 +
STACK CFI INIT 2ceb8 18 .cfa: sp 0 +
STACK CFI INIT 2ced0 c .cfa: sp 0 +
STACK CFI INIT 2cedc 4 .cfa: sp 0 +
STACK CFI INIT 2cee0 20 .cfa: sp 0 +
STACK CFI 2cee2 .cfa: sp 16 + .ra: .cfa -4 + ^ r7: .cfa -8 + ^ r6: .cfa -12 + ^ r4: .cfa -16 + ^
STACK CFI 2cee4 .cfa: r7 8 +
STACK CFI INIT 2cf00 14 .cfa: sp 0 +
STACK CFI INIT 2cf14 2 .cfa: sp 0 +
STACK CFI INIT 2cf16 4 .cfa: sp 0 +
STACK CFI INIT 2cf1c 68 .cfa: sp 0 +
STACK CFI 2cf1e .cfa: sp 16 + .ra: .cfa -4 + ^ r7: .cfa -8 + ^ r5: .cfa -12 + ^ r4: .cfa -16 + ^
STACK CFI 2cf20 .cfa: r7 8 +
STACK CFI INIT 2cf84 18 .cfa: sp 0 +
STACK CFI INIT 2cf9c c .cfa: sp 0 +
STACK CFI INIT 2cfa8 4 .cfa: sp 0 +
STACK CFI INIT 2cfac 20 .cfa: sp 0 +
STACK CFI 2cfae .cfa: sp 16 + .ra: .cfa -4 + ^ r7: .cfa -8 + ^ r6: .cfa -12 + ^ r4: .cfa -16 + ^
STACK CFI 2cfb0 .cfa: r7 8 +
STACK CFI INIT 2cfcc 14 .cfa: sp 0 +
STACK CFI INIT 2cfe0 2 .cfa: sp 0 +
STACK CFI INIT 2cfe2 4 .cfa: sp 0 +
STACK CFI INIT 2cfe8 68 .cfa: sp 0 +
STACK CFI 2cfea .cfa: sp 16 + .ra: .cfa -4 + ^ r7: .cfa -8 + ^ r5: .cfa -12 + ^ r4: .cfa -16 + ^
STACK CFI 2cfec .cfa: r7 8 +
STACK CFI INIT 2d050 18 .cfa: sp 0 +
STACK CFI INIT 2d068 c .cfa: sp 0 +
STACK CFI INIT 2d074 4 .cfa: sp 0 +
STACK CFI INIT 2d078 20 .cfa: sp 0 +
STACK CFI 2d07a .cfa: sp 16 + .ra: .cfa -4 + ^ r7: .cfa -8 + ^ r6: .cfa -12 + ^ r4: .cfa -16 + ^
STACK CFI 2d07c .cfa: r7 8 +
STACK CFI INIT 2d098 14 .cfa: sp 0 +
STACK CFI INIT 2d0ac 2 .cfa: sp 0 +
STACK CFI INIT 2d0ae 4 .cfa: sp 0 +
STACK CFI INIT 2d0b4 68 .cfa: sp 0 +
STACK CFI 2d0b6 .cfa: sp 16 + .ra: .cfa -4 + ^ r7: .cfa -8 + ^ r5: .cfa -12 + ^ r4: .cfa -16 + ^
STACK CFI 2d0b8 .cfa: r7 8 +
STACK CFI INIT 2d11c 18 .cfa: sp 0 +
STACK CFI INIT 2d134 c .cfa: sp 0 +
STACK CFI INIT 2d140 4 .cfa: sp 0 +
STACK CFI INIT 2d144 20 .cfa: sp 0 +
STACK CFI 2d146 .cfa: sp 16 + .ra: .cfa -4 + ^ r7: .cfa -8 + ^ r6: .cfa -12 + ^ r4: .cfa -16 + ^
STACK CFI 2d148 .cfa: r7 8 +
STACK CFI INIT 2d164 14 .cfa: sp 0 +
STACK CFI INIT 2d178 2 .cfa: sp 0 +
STACK CFI INIT 2d17a 4 .cfa: sp 0 +
STACK CFI INIT 2d180 68 .cfa: sp 0 +
STACK CFI 2d182 .cfa: sp 16 + .ra: .cfa -4 + ^ r7: .cfa -8 + ^ r5: .cfa -12 + ^ r4: .cfa -16 + ^
STACK CFI 2d184 .cfa: r7 8 +
STACK CFI INIT 2d1e8 18 .cfa: sp 0 +
STACK CFI INIT 2d200 c .cfa: sp 0 +
STACK CFI INIT 2d20c 4 .cfa: sp 0 +
STACK CFI INIT 2d210 20 .cfa: sp 0 +
STACK CFI 2d212 .cfa: sp 16 + .ra: .cfa -4 + ^ r7: .cfa -8 + ^ r6: .cfa -12 + ^ r4: .cfa -16 + ^
STACK CFI 2d214 .cfa: r7 8 +
STACK CFI INIT 2d230 14 .cfa: sp 0 +
STACK CFI INIT 2d244 2 .cfa: sp 0 +
STACK CFI INIT 2d246 4 .cfa: sp 0 +
STACK CFI INIT 2d24c 68 .cfa: sp 0 +
STACK CFI 2d24e .cfa: sp 16 + .ra: .cfa -4 + ^ r7: .cfa -8 + ^ r5: .cfa -12 + ^ r4: .cfa -16 + ^
STACK CFI 2d250 .cfa: r7 8 +
STACK CFI INIT 2d2b4 18 .cfa: sp 0 +
STACK CFI INIT 2d2cc c .cfa: sp 0 +
STACK CFI INIT 2d2d8 4 .cfa: sp 0 +
STACK CFI INIT 2d2dc 20 .cfa: sp 0 +
STACK CFI 2d2de .cfa: sp 16 + .ra: .cfa -4 + ^ r7: .cfa -8 + ^ r6: .cfa -12 + ^ r4: .cfa -16 + ^
STACK CFI 2d2e0 .cfa: r7 8 +
STACK CFI INIT 2d2fc 14 .cfa: sp 0 +
STACK CFI INIT 2d310 2 .cfa: sp 0 +
STACK CFI INIT 2d312 4 .cfa: sp 0 +
STACK CFI INIT 2d318 68 .cfa: sp 0 +
STACK CFI 2d31a .cfa: sp 16 + .ra: .cfa -4 + ^ r7: .cfa -8 + ^ r5: .cfa -12 + ^ r4: .cfa -16 + ^
STACK CFI 2d31c .cfa: r7 8 +
STACK CFI INIT 2d380 18 .cfa: sp 0 +
STACK CFI INIT 2d398 c .cfa: sp 0 +
STACK CFI INIT 2d3a4 4 .cfa: sp 0 +
STACK CFI INIT 2d3a8 20 .cfa: sp 0 +
STACK CFI 2d3aa .cfa: sp 16 + .ra: .cfa -4 + ^ r7: .cfa -8 + ^ r6: .cfa -12 + ^ r4: .cfa -16 + ^
STACK CFI 2d3ac .cfa: r7 8 +
STACK CFI INIT 2d3c8 14 .cfa: sp 0 +
STACK CFI INIT 2d3dc 2 .cfa: sp 0 +
STACK CFI INIT 2d3de 4 .cfa: sp 0 +
STACK CFI INIT 2d3e4 68 .cfa: sp 0 +
STACK CFI 2d3e6 .cfa: sp 16 + .ra: .cfa -4 + ^ r7: .cfa -8 + ^ r5: .cfa -12 + ^ r4: .cfa -16 + ^
STACK CFI 2d3e8 .cfa: r7 8 +
STACK CFI INIT 2d44c 18 .cfa: sp 0 +
STACK CFI INIT 2d464 c .cfa: sp 0 +
STACK CFI INIT 2d470 4 .cfa: sp 0 +
STACK CFI INIT 2d474 20 .cfa: sp 0 +
STACK CFI 2d476 .cfa: sp 16 + .ra: .cfa -4 + ^ r7: .cfa -8 + ^ r6: .cfa -12 + ^ r4: .cfa -16 + ^
STACK CFI 2d478 .cfa: r7 8 +
STACK CFI INIT 2d494 14 .cfa: sp 0 +
STACK CFI INIT 2d4a8 2 .cfa: sp 0 +
STACK CFI INIT 2d4aa 4 .cfa: sp 0 +
STACK CFI INIT 2d4b0 68 .cfa: sp 0 +
STACK CFI 2d4b2 .cfa: sp 16 + .ra: .cfa -4 + ^ r7: .cfa -8 + ^ r5: .cfa -12 + ^ r4: .cfa -16 + ^
STACK CFI 2d4b4 .cfa: r7 8 +
STACK CFI INIT 2d518 18 .cfa: sp 0 +
STACK CFI INIT 2d530 c .cfa: sp 0 +
STACK CFI INIT 2d53c 4 .cfa: sp 0 +
STACK CFI INIT 2d540 20 .cfa: sp 0 +
STACK CFI 2d542 .cfa: sp 16 + .ra: .cfa -4 + ^ r7: .cfa -8 + ^ r6: .cfa -12 + ^ r4: .cfa -16 + ^
STACK CFI 2d544 .cfa: r7 8 +
STACK CFI INIT 2d560 14 .cfa: sp 0 +
STACK CFI INIT 2d574 2 .cfa: sp 0 +
STACK CFI INIT 2d576 4 .cfa: sp 0 +
STACK CFI INIT 2d57c 68 .cfa: sp 0 +
STACK CFI 2d57e .cfa: sp 16 + .ra: .cfa -4 + ^ r7: .cfa -8 + ^ r5: .cfa -12 + ^ r4: .cfa -16 + ^
STACK CFI 2d580 .cfa: r7 8 +
STACK CFI INIT 2d5e4 18 .cfa: sp 0 +
STACK CFI INIT 2d5fc c .cfa: sp 0 +
STACK CFI INIT 2d608 4 .cfa: sp 0 +
STACK CFI INIT 2d60c 20 .cfa: sp 0 +
STACK CFI 2d60e .cfa: sp 16 + .ra: .cfa -4 + ^ r7: .cfa -8 + ^ r6: .cfa -12 + ^ r4: .cfa -16 + ^
STACK CFI 2d610 .cfa: r7 8 +
STACK CFI INIT 2d62c 14 .cfa: sp 0 +
STACK CFI INIT 2d640 2 .cfa: sp 0 +
STACK CFI INIT 2d642 4 .cfa: sp 0 +
STACK CFI INIT 2d648 68 .cfa: sp 0 +
STACK CFI 2d64a .cfa: sp 16 + .ra: .cfa -4 + ^ r7: .cfa -8 + ^ r5: .cfa -12 + ^ r4: .cfa -16 + ^
STACK CFI 2d64c .cfa: r7 8 +
STACK CFI INIT 2d6b0 18 .cfa: sp 0 +
STACK CFI INIT 2d6c8 c .cfa: sp 0 +
STACK CFI INIT 2d6d4 4 .cfa: sp 0 +
STACK CFI INIT 2d6d8 20 .cfa: sp 0 +
STACK CFI 2d6da .cfa: sp 16 + .ra: .cfa -4 + ^ r7: .cfa -8 + ^ r6: .cfa -12 + ^ r4: .cfa -16 + ^
STACK CFI 2d6dc .cfa: r7 8 +
STACK CFI INIT 2d6f8 14 .cfa: sp 0 +
STACK CFI INIT 2d70c 2 .cfa: sp 0 +
STACK CFI INIT 2d70e 4 .cfa: sp 0 +
STACK CFI INIT 2d714 68 .cfa: sp 0 +
STACK CFI 2d716 .cfa: sp 16 + .ra: .cfa -4 + ^ r7: .cfa -8 + ^ r5: .cfa -12 + ^ r4: .cfa -16 + ^
STACK CFI 2d718 .cfa: r7 8 +
STACK CFI INIT 2d77c 18 .cfa: sp 0 +
STACK CFI INIT 2d794 c .cfa: sp 0 +
STACK CFI INIT 2d7a0 4 .cfa: sp 0 +
STACK CFI INIT 2d7a4 20 .cfa: sp 0 +
STACK CFI 2d7a6 .cfa: sp 16 + .ra: .cfa -4 + ^ r7: .cfa -8 + ^ r6: .cfa -12 + ^ r4: .cfa -16 + ^
STACK CFI 2d7a8 .cfa: r7 8 +
STACK CFI INIT 2d7c4 14 .cfa: sp 0 +
STACK CFI INIT 2d7d8 2 .cfa: sp 0 +
STACK CFI INIT 2d7da 4 .cfa: sp 0 +
STACK CFI INIT 2d7e0 68 .cfa: sp 0 +
STACK CFI 2d7e2 .cfa: sp 16 + .ra: .cfa -4 + ^ r7: .cfa -8 + ^ r5: .cfa -12 + ^ r4: .cfa -16 + ^
STACK CFI 2d7e4 .cfa: r7 8 +
STACK CFI INIT 2d848 18 .cfa: sp 0 +
STACK CFI INIT 2d860 c .cfa: sp 0 +
STACK CFI INIT 2d86c 4 .cfa: sp 0 +
STACK CFI INIT 2d870 20 .cfa: sp 0 +
STACK CFI 2d872 .cfa: sp 16 + .ra: .cfa -4 + ^ r7: .cfa -8 + ^ r6: .cfa -12 + ^ r4: .cfa -16 + ^
STACK CFI 2d874 .cfa: r7 8 +
STACK CFI INIT 2d890 14 .cfa: sp 0 +
STACK CFI INIT 2d8a4 2 .cfa: sp 0 +
STACK CFI INIT 2d8a6 4 .cfa: sp 0 +
STACK CFI INIT 2d8ac 68 .cfa: sp 0 +
STACK CFI 2d8ae .cfa: sp 16 + .ra: .cfa -4 + ^ r7: .cfa -8 + ^ r5: .cfa -12 + ^ r4: .cfa -16 + ^
STACK CFI 2d8b0 .cfa: r7 8 +
STACK CFI INIT 2d914 18 .cfa: sp 0 +
STACK CFI INIT 2d92c c .cfa: sp 0 +
STACK CFI INIT 2d938 4 .cfa: sp 0 +
STACK CFI INIT 2d93c 20 .cfa: sp 0 +
STACK CFI 2d93e .cfa: sp 16 + .ra: .cfa -4 + ^ r7: .cfa -8 + ^ r6: .cfa -12 + ^ r4: .cfa -16 + ^
STACK CFI 2d940 .cfa: r7 8 +
STACK CFI INIT 2d95c 14 .cfa: sp 0 +
STACK CFI INIT 2d970 2 .cfa: sp 0 +
STACK CFI INIT 2d972 4 .cfa: sp 0 +
STACK CFI INIT 2d978 68 .cfa: sp 0 +
STACK CFI 2d97a .cfa: sp 16 + .ra: .cfa -4 + ^ r7: .cfa -8 + ^ r5: .cfa -12 + ^ r4: .cfa -16 + ^
STACK CFI 2d97c .cfa: r7 8 +
STACK CFI INIT 2d9e0 18 .cfa: sp 0 +
STACK CFI INIT 2d9f8 c .cfa: sp 0 +
STACK CFI INIT 2da04 4 .cfa: sp 0 +
STACK CFI INIT 2da08 20 .cfa: sp 0 +
STACK CFI 2da0a .cfa: sp 16 + .ra: .cfa -4 + ^ r7: .cfa -8 + ^ r6: .cfa -12 + ^ r4: .cfa -16 + ^
STACK CFI 2da0c .cfa: r7 8 +
STACK CFI INIT 2da28 14 .cfa: sp 0 +
STACK CFI INIT 2da3c 2 .cfa: sp 0 +
STACK CFI INIT 2da3e 4 .cfa: sp 0 +
STACK CFI INIT 2da44 68 .cfa: sp 0 +
STACK CFI 2da46 .cfa: sp 16 + .ra: .cfa -4 + ^ r7: .cfa -8 + ^ r5: .cfa -12 + ^ r4: .cfa -16 + ^
STACK CFI 2da48 .cfa: r7 8 +
STACK CFI INIT 2daac 18 .cfa: sp 0 +
STACK CFI INIT 2dac4 c .cfa: sp 0 +
STACK CFI INIT 2dad0 4 .cfa: sp 0 +
STACK CFI INIT 2dad4 20 .cfa: sp 0 +
STACK CFI 2dad6 .cfa: sp 16 + .ra: .cfa -4 + ^ r7: .cfa -8 + ^ r6: .cfa -12 + ^ r4: .cfa -16 + ^
STACK CFI 2dad8 .cfa: r7 8 +
STACK CFI INIT 2daf4 14 .cfa: sp 0 +
STACK CFI INIT 2db08 2 .cfa: sp 0 +
STACK CFI INIT 2db0a 4 .cfa: sp 0 +
STACK CFI INIT 2db10 68 .cfa: sp 0 +
STACK CFI 2db12 .cfa: sp 16 + .ra: .cfa -4 + ^ r7: .cfa -8 + ^ r5: .cfa -12 + ^ r4: .cfa -16 + ^
STACK CFI 2db14 .cfa: r7 8 +
STACK CFI INIT 2db78 18 .cfa: sp 0 +
STACK CFI INIT 2db90 c .cfa: sp 0 +
STACK CFI INIT 2db9c 4 .cfa: sp 0 +
STACK CFI INIT 2dba0 20 .cfa: sp 0 +
STACK CFI 2dba2 .cfa: sp 16 + .ra: .cfa -4 + ^ r7: .cfa -8 + ^ r6: .cfa -12 + ^ r4: .cfa -16 + ^
STACK CFI 2dba4 .cfa: r7 8 +
STACK CFI INIT 2dbc0 14 .cfa: sp 0 +
STACK CFI INIT 2dbd4 2 .cfa: sp 0 +
STACK CFI INIT 2dbd6 4 .cfa: sp 0 +
STACK CFI INIT 2dbdc 68 .cfa: sp 0 +
STACK CFI 2dbde .cfa: sp 16 + .ra: .cfa -4 + ^ r7: .cfa -8 + ^ r5: .cfa -12 + ^ r4: .cfa -16 + ^
STACK CFI 2dbe0 .cfa: r7 8 +
STACK CFI INIT 2dc44 18 .cfa: sp 0 +
STACK CFI INIT 2dc5c c .cfa: sp 0 +
STACK CFI INIT 2dc68 4 .cfa: sp 0 +
STACK CFI INIT 2dc6c 20 .cfa: sp 0 +
STACK CFI 2dc6e .cfa: sp 16 + .ra: .cfa -4 + ^ r7: .cfa -8 + ^ r6: .cfa -12 + ^ r4: .cfa -16 + ^
STACK CFI 2dc70 .cfa: r7 8 +
STACK CFI INIT 2dc8c 14 .cfa: sp 0 +
STACK CFI INIT 2dca0 2 .cfa: sp 0 +
STACK CFI INIT 2dca2 4 .cfa: sp 0 +
STACK CFI INIT 2dca8 68 .cfa: sp 0 +
STACK CFI 2dcaa .cfa: sp 16 + .ra: .cfa -4 + ^ r7: .cfa -8 + ^ r5: .cfa -12 + ^ r4: .cfa -16 + ^
STACK CFI 2dcac .cfa: r7 8 +
STACK CFI INIT 2dd10 18 .cfa: sp 0 +
STACK CFI INIT 2dd28 c .cfa: sp 0 +
STACK CFI INIT 2dd34 20 .cfa: sp 0 +
STACK CFI 2dd36 .cfa: sp 16 + .ra: .cfa -4 + ^ r7: .cfa -8 + ^ r6: .cfa -12 + ^ r4: .cfa -16 + ^
STACK CFI 2dd38 .cfa: r7 8 +
STACK CFI INIT 2dd54 20 .cfa: sp 0 +
STACK CFI 2dd56 .cfa: sp 16 + .ra: .cfa -4 + ^ r7: .cfa -8 + ^ r6: .cfa -12 + ^ r4: .cfa -16 + ^
STACK CFI 2dd58 .cfa: r7 8 +
STACK CFI INIT 2dd74 28 .cfa: sp 0 +
STACK CFI 2dd76 .cfa: sp 16 + .ra: .cfa -4 + ^ r7: .cfa -8 + ^ r5: .cfa -12 + ^ r4: .cfa -16 + ^
STACK CFI 2dd78 .cfa: r7 8 +
STACK CFI INIT 2dd9c cc .cfa: sp 0 +
STACK CFI 2dd9e .cfa: sp 16 + .ra: .cfa -4 + ^ r7: .cfa -8 + ^ r6: .cfa -12 + ^ r4: .cfa -16 + ^
STACK CFI 2dda0 .cfa: r7 8 +
STACK CFI INIT 2de68 48 .cfa: sp 0 +
STACK CFI 2de6a .cfa: sp 16 + .ra: .cfa -4 + ^ r7: .cfa -8 + ^ r5: .cfa -12 + ^ r4: .cfa -16 + ^
STACK CFI 2de6c .cfa: r7 8 +
STACK CFI INIT 2deb0 60 .cfa: sp 0 +
STACK CFI 2deb2 .cfa: sp 16 + .ra: .cfa -4 + ^ r7: .cfa -8 + ^ r6: .cfa -12 + ^ r4: .cfa -16 + ^
STACK CFI 2deb4 .cfa: r7 8 +
STACK CFI INIT 2df10 46 .cfa: sp 0 +
STACK CFI 2df12 .cfa: sp 16 + .ra: .cfa -4 + ^ r7: .cfa -8 + ^ r5: .cfa -12 + ^ r4: .cfa -16 + ^
STACK CFI 2df14 .cfa: r7 8 +
STACK CFI INIT 2df56 10 .cfa: sp 0 +
STACK CFI 2df58 .cfa: sp 8 + .ra: .cfa -4 + ^ r7: .cfa -8 + ^
STACK CFI 2df5a .cfa: r7 8 +
STACK CFI INIT 2df66 10 .cfa: sp 0 +
STACK CFI 2df68 .cfa: sp 8 + .ra: .cfa -4 + ^ r7: .cfa -8 + ^
STACK CFI 2df6a .cfa: r7 8 +
STACK CFI INIT 2df76 8 .cfa: sp 0 +
STACK CFI INIT 2df7e 10 .cfa: sp 0 +
STACK CFI 2df80 .cfa: sp 8 + .ra: .cfa -4 + ^ r7: .cfa -8 + ^
STACK CFI 2df82 .cfa: r7 8 +
STACK CFI INIT 2df8e 14 .cfa: sp 0 +
STACK CFI 2df90 .cfa: sp 8 + .ra: .cfa -4 + ^ r7: .cfa -8 + ^
STACK CFI 2df92 .cfa: r7 8 +
STACK CFI INIT 2dfa4 1dc .cfa: sp 0 +
STACK CFI 2dfa6 .cfa: sp 20 + .ra: .cfa -4 + ^ r7: .cfa -8 + ^ r6: .cfa -12 + ^ r5: .cfa -16 + ^ r4: .cfa -20 + ^
STACK CFI 2dfa8 .cfa: r7 8 +
STACK CFI 2dfac r8: .cfa -24 + ^
STACK CFI INIT 2e180 258 .cfa: sp 0 +
STACK CFI 2e182 .cfa: sp 20 + .ra: .cfa -4 + ^ r7: .cfa -8 + ^ r6: .cfa -12 + ^ r5: .cfa -16 + ^ r4: .cfa -20 + ^
STACK CFI 2e184 .cfa: r7 8 +
STACK CFI 2e188 r11: .cfa -24 + ^ r10: .cfa -28 + ^ r9: .cfa -32 + ^ r8: .cfa -36 + ^
STACK CFI INIT 2e3d8 8 .cfa: sp 0 +
STACK CFI INIT 2e3e0 10 .cfa: sp 0 +
STACK CFI 2e3e2 .cfa: sp 8 + .ra: .cfa -4 + ^ r7: .cfa -8 + ^
STACK CFI 2e3e4 .cfa: r7 8 +
STACK CFI INIT 2e3f0 14 .cfa: sp 0 +
STACK CFI 2e3f2 .cfa: sp 8 + .ra: .cfa -4 + ^ r7: .cfa -8 + ^
STACK CFI 2e3f4 .cfa: r7 8 +
STACK CFI INIT 2e404 1e4 .cfa: sp 0 +
STACK CFI 2e406 .cfa: sp 20 + .ra: .cfa -4 + ^ r7: .cfa -8 + ^ r6: .cfa -12 + ^ r5: .cfa -16 + ^ r4: .cfa -20 + ^
STACK CFI 2e408 .cfa: r7 8 +
STACK CFI 2e40c r8: .cfa -24 + ^
STACK CFI INIT 2e5e8 8 .cfa: sp 0 +
STACK CFI INIT 2e5f0 10 .cfa: sp 0 +
STACK CFI 2e5f2 .cfa: sp 8 + .ra: .cfa -4 + ^ r7: .cfa -8 + ^
STACK CFI 2e5f4 .cfa: r7 8 +
STACK CFI INIT 2e600 14 .cfa: sp 0 +
STACK CFI 2e602 .cfa: sp 8 + .ra: .cfa -4 + ^ r7: .cfa -8 + ^
STACK CFI 2e604 .cfa: r7 8 +
STACK CFI INIT 2e614 74 .cfa: sp 0 +
STACK CFI 2e616 .cfa: sp 16 + .ra: .cfa -4 + ^ r7: .cfa -8 + ^ r5: .cfa -12 + ^ r4: .cfa -16 + ^
STACK CFI 2e618 .cfa: r7 8 +
STACK CFI INIT 2e688 8 .cfa: sp 0 +
STACK CFI INIT 2e690 10 .cfa: sp 0 +
STACK CFI 2e692 .cfa: sp 8 + .ra: .cfa -4 + ^ r7: .cfa -8 + ^
STACK CFI 2e694 .cfa: r7 8 +
STACK CFI INIT 2e6a0 14 .cfa: sp 0 +
STACK CFI 2e6a2 .cfa: sp 8 + .ra: .cfa -4 + ^ r7: .cfa -8 + ^
STACK CFI 2e6a4 .cfa: r7 8 +
STACK CFI INIT 2e6b4 18 .cfa: sp 0 +
STACK CFI 2e6b6 .cfa: sp 8 + .ra: .cfa -4 + ^ r7: .cfa -8 + ^
STACK CFI 2e6b8 .cfa: r7 8 +
STACK CFI INIT 2e6cc 180 .cfa: sp 0 +
STACK CFI 2e6ce .cfa: sp 20 + .ra: .cfa -4 + ^ r7: .cfa -8 + ^ r6: .cfa -12 + ^ r5: .cfa -16 + ^ r4: .cfa -20 + ^
STACK CFI 2e6d0 .cfa: r7 8 +
STACK CFI 2e6d4 r11: .cfa -24 + ^ r10: .cfa -28 + ^ r9: .cfa -32 + ^ r8: .cfa -36 + ^
STACK CFI INIT 2e84c 2 .cfa: sp 0 +
STACK CFI INIT 2e850 280 .cfa: sp 0 +
STACK CFI 2e852 .cfa: sp 20 + .ra: .cfa -4 + ^ r7: .cfa -8 + ^ r6: .cfa -12 + ^ r5: .cfa -16 + ^ r4: .cfa -20 + ^
STACK CFI 2e854 .cfa: r7 8 +
STACK CFI 2e858 r11: .cfa -24 + ^ r10: .cfa -28 + ^ r9: .cfa -32 + ^ r8: .cfa -36 + ^
STACK CFI INIT 2ead0 25c .cfa: sp 0 +
STACK CFI 2ead2 .cfa: sp 20 + .ra: .cfa -4 + ^ r7: .cfa -8 + ^ r6: .cfa -12 + ^ r5: .cfa -16 + ^ r4: .cfa -20 + ^
STACK CFI 2ead4 .cfa: r7 8 +
STACK CFI 2ead8 r11: .cfa -24 + ^ r10: .cfa -28 + ^ r9: .cfa -32 + ^ r8: .cfa -36 + ^
STACK CFI INIT 2ed2c 214 .cfa: sp 0 +
STACK CFI 2ed2e .cfa: sp 20 + .ra: .cfa -4 + ^ r7: .cfa -8 + ^ r6: .cfa -12 + ^ r5: .cfa -16 + ^ r4: .cfa -20 + ^
STACK CFI 2ed30 .cfa: r7 8 +
STACK CFI 2ed34 r11: .cfa -24 + ^ r10: .cfa -28 + ^ r9: .cfa -32 + ^ r8: .cfa -36 + ^
STACK CFI INIT 2ef40 280 .cfa: sp 0 +
STACK CFI 2ef42 .cfa: sp 20 + .ra: .cfa -4 + ^ r7: .cfa -8 + ^ r6: .cfa -12 + ^ r5: .cfa -16 + ^ r4: .cfa -20 + ^
STACK CFI 2ef44 .cfa: r7 8 +
STACK CFI 2ef48 r11: .cfa -24 + ^ r10: .cfa -28 + ^ r9: .cfa -32 + ^ r8: .cfa -36 + ^
STACK CFI INIT 2f1c0 410 .cfa: sp 0 +
STACK CFI 2f1c2 .cfa: sp 20 + .ra: .cfa -4 + ^ r7: .cfa -8 + ^ r6: .cfa -12 + ^ r5: .cfa -16 + ^ r4: .cfa -20 + ^
STACK CFI 2f1c4 .cfa: r7 8 +
STACK CFI 2f1c8 r11: .cfa -24 + ^ r10: .cfa -28 + ^ r9: .cfa -32 + ^ r8: .cfa -36 + ^
STACK CFI INIT 2f5d0 f8 .cfa: sp 0 +
STACK CFI 2f5d2 .cfa: sp 20 + .ra: .cfa -4 + ^ r7: .cfa -8 + ^ r6: .cfa -12 + ^ r5: .cfa -16 + ^ r4: .cfa -20 + ^
STACK CFI 2f5d4 .cfa: r7 8 +
STACK CFI 2f5d8 r8: .cfa -24 + ^
STACK CFI INIT 2f6c8 104 .cfa: sp 0 +
STACK CFI 2f6ca .cfa: sp 20 + .ra: .cfa -4 + ^ r7: .cfa -8 + ^ r6: .cfa -12 + ^ r5: .cfa -16 + ^ r4: .cfa -20 + ^
STACK CFI 2f6cc .cfa: r7 8 +
STACK CFI 2f6d0 r8: .cfa -24 + ^
STACK CFI INIT 2f7cc 2 .cfa: sp 0 +
STACK CFI INIT 2f7ce e .cfa: sp 0 +
STACK CFI INIT 2f7dc 3f2 .cfa: sp 0 +
STACK CFI 2f7de .cfa: sp 20 + .ra: .cfa -4 + ^ r7: .cfa -8 + ^ r6: .cfa -12 + ^ r5: .cfa -16 + ^ r4: .cfa -20 + ^
STACK CFI 2f7e0 .cfa: r7 8 +
STACK CFI 2f7e4 r11: .cfa -24 + ^ r10: .cfa -28 + ^ r9: .cfa -32 + ^ r8: .cfa -36 + ^
STACK CFI INIT 2fbd0 1cc .cfa: sp 0 +
STACK CFI 2fbd2 .cfa: sp 20 + .ra: .cfa -4 + ^ r7: .cfa -8 + ^ r6: .cfa -12 + ^ r5: .cfa -16 + ^ r4: .cfa -20 + ^
STACK CFI 2fbd4 .cfa: r7 8 +
STACK CFI 2fbd8 r11: .cfa -24 + ^ r10: .cfa -28 + ^ r9: .cfa -32 + ^ r8: .cfa -36 + ^
STACK CFI INIT 2fd9c 44 .cfa: sp 0 +
STACK CFI 2fd9e .cfa: sp 16 + .ra: .cfa -4 + ^ r7: .cfa -8 + ^ r6: .cfa -12 + ^ r4: .cfa -16 + ^
STACK CFI 2fda0 .cfa: r7 8 +
STACK CFI INIT 2fde0 38 .cfa: sp 0 +
STACK CFI 2fde2 .cfa: sp 16 + .ra: .cfa -4 + ^ r7: .cfa -8 + ^ r5: .cfa -12 + ^ r4: .cfa -16 + ^
STACK CFI 2fde4 .cfa: r7 8 +
STACK CFI INIT 2fe18 18 .cfa: sp 0 +
STACK CFI 2fe1a .cfa: sp 8 + .ra: .cfa -4 + ^ r7: .cfa -8 + ^
STACK CFI 2fe1c .cfa: r7 8 +
STACK CFI INIT 2fe30 420 .cfa: sp 0 +
STACK CFI 2fe32 .cfa: sp 20 + .ra: .cfa -4 + ^ r7: .cfa -8 + ^ r6: .cfa -12 + ^ r5: .cfa -16 + ^ r4: .cfa -20 + ^
STACK CFI 2fe34 .cfa: r7 8 +
STACK CFI 2fe38 r11: .cfa -24 + ^ r10: .cfa -28 + ^ r9: .cfa -32 + ^ r8: .cfa -36 + ^
STACK CFI INIT 30250 30 .cfa: sp 0 +
STACK CFI 30252 .cfa: sp 16 + .ra: .cfa -4 + ^ r7: .cfa -8 + ^ r6: .cfa -12 + ^ r4: .cfa -16 + ^
STACK CFI 30254 .cfa: r7 8 +
STACK CFI INIT 30280 c0 .cfa: sp 0 +
STACK CFI 30282 .cfa: sp 20 + .ra: .cfa -4 + ^ r7: .cfa -8 + ^ r6: .cfa -12 + ^ r5: .cfa -16 + ^ r4: .cfa -20 + ^
STACK CFI 30284 .cfa: r7 8 +
STACK CFI 30288 r11: .cfa -24 + ^ r9: .cfa -28 + ^ r8: .cfa -32 + ^
STACK CFI INIT 30340 198 .cfa: sp 0 +
STACK CFI 30342 .cfa: sp 20 + .ra: .cfa -4 + ^ r7: .cfa -8 + ^ r6: .cfa -12 + ^ r5: .cfa -16 + ^ r4: .cfa -20 + ^
STACK CFI 30344 .cfa: r7 8 +
STACK CFI 30348 r11: .cfa -24 + ^ r10: .cfa -28 + ^ r9: .cfa -32 + ^ r8: .cfa -36 + ^
STACK CFI INIT 304d8 278 .cfa: sp 0 +
STACK CFI 304da .cfa: sp 20 + .ra: .cfa -4 + ^ r7: .cfa -8 + ^ r6: .cfa -12 + ^ r5: .cfa -16 + ^ r4: .cfa -20 + ^
STACK CFI 304dc .cfa: r7 8 +
STACK CFI 304e0 r10: .cfa -24 + ^ r9: .cfa -28 + ^ r8: .cfa -32 + ^
STACK CFI INIT 30750 228 .cfa: sp 0 +
STACK CFI 30752 .cfa: sp 20 + .ra: .cfa -4 + ^ r7: .cfa -8 + ^ r6: .cfa -12 + ^ r5: .cfa -16 + ^ r4: .cfa -20 + ^
STACK CFI 30754 .cfa: r7 8 +
STACK CFI 30758 r11: .cfa -24 + ^
STACK CFI INIT 30978 360 .cfa: sp 0 +
STACK CFI 3097a .cfa: sp 20 + .ra: .cfa -4 + ^ r7: .cfa -8 + ^ r6: .cfa -12 + ^ r5: .cfa -16 + ^ r4: .cfa -20 + ^
STACK CFI 3097c .cfa: r7 8 +
STACK CFI 30980 r11: .cfa -24 + ^ r10: .cfa -28 + ^ r9: .cfa -32 + ^ r8: .cfa -36 + ^
STACK CFI INIT 30cd8 7fc .cfa: sp 0 +
STACK CFI 30cda .cfa: sp 20 + .ra: .cfa -4 + ^ r7: .cfa -8 + ^ r6: .cfa -12 + ^ r5: .cfa -16 + ^ r4: .cfa -20 + ^
STACK CFI 30cdc .cfa: r7 8 +
STACK CFI 30ce0 r11: .cfa -24 + ^ r10: .cfa -28 + ^ r9: .cfa -32 + ^ r8: .cfa -36 + ^
STACK CFI INIT 314d4 4c .cfa: sp 0 +
STACK CFI 314d6 .cfa: sp 20 + .ra: .cfa -4 + ^ r7: .cfa -8 + ^ r6: .cfa -12 + ^ r5: .cfa -16 + ^ r4: .cfa -20 + ^
STACK CFI 314d8 .cfa: r7 8 +
STACK CFI 314dc r8: .cfa -24 + ^
STACK CFI INIT 31520 48 .cfa: sp 0 +
STACK CFI 31522 .cfa: sp 16 + .ra: .cfa -4 + ^ r7: .cfa -8 + ^ r6: .cfa -12 + ^ r4: .cfa -16 + ^
STACK CFI 31524 .cfa: r7 8 +
STACK CFI INIT 31568 10 .cfa: sp 0 +
STACK CFI 3156a .cfa: sp 8 + .ra: .cfa -4 + ^ r7: .cfa -8 + ^
STACK CFI 3156c .cfa: r7 8 +
STACK CFI INIT 31578 9a .cfa: sp 0 +
STACK CFI 3157a .cfa: sp 20 + .ra: .cfa -4 + ^ r7: .cfa -8 + ^ r6: .cfa -12 + ^ r5: .cfa -16 + ^ r4: .cfa -20 + ^
STACK CFI 3157c .cfa: r7 8 +
STACK CFI 31580 r11: .cfa -24 + ^ r9: .cfa -28 + ^ r8: .cfa -32 + ^
STACK CFI INIT 31614 54 .cfa: sp 0 +
STACK CFI 31616 .cfa: sp 8 + .ra: .cfa -4 + ^ r7: .cfa -8 + ^
STACK CFI 31618 .cfa: r7 8 +
STACK CFI INIT 31668 34 .cfa: sp 0 +
STACK CFI 3166a .cfa: sp 16 + .ra: .cfa -4 + ^ r7: .cfa -8 + ^ r5: .cfa -12 + ^ r4: .cfa -16 + ^
STACK CFI 3166c .cfa: r7 8 +
STACK CFI INIT 316a0 e8 .cfa: sp 0 +
STACK CFI 316a2 .cfa: sp 20 + .ra: .cfa -4 + ^ r7: .cfa -8 + ^ r6: .cfa -12 + ^ r5: .cfa -16 + ^ r4: .cfa -20 + ^
STACK CFI 316a4 .cfa: r7 8 +
STACK CFI 316a8 r11: .cfa -24 + ^
STACK CFI INIT 31790 ec .cfa: sp 0 +
STACK CFI 31792 .cfa: sp 20 + .ra: .cfa -4 + ^ r7: .cfa -8 + ^ r6: .cfa -12 + ^ r5: .cfa -16 + ^ r4: .cfa -20 + ^
STACK CFI 31794 .cfa: r7 8 +
STACK CFI 31798 r11: .cfa -24 + ^
STACK CFI INIT 31880 ec .cfa: sp 0 +
STACK CFI 31882 .cfa: sp 20 + .ra: .cfa -4 + ^ r7: .cfa -8 + ^ r6: .cfa -12 + ^ r5: .cfa -16 + ^ r4: .cfa -20 + ^
STACK CFI 31884 .cfa: r7 8 +
STACK CFI 31888 r11: .cfa -24 + ^
STACK CFI INIT 3196c 2c .cfa: sp 0 +
STACK CFI 3196e .cfa: sp 16 + .ra: .cfa -4 + ^ r7: .cfa -8 + ^ r5: .cfa -12 + ^ r4: .cfa -16 + ^
STACK CFI 31970 .cfa: r7 8 +
STACK CFI INIT 31998 74 .cfa: sp 0 +
STACK CFI 3199a .cfa: sp 8 + .ra: .cfa -4 + ^ r7: .cfa -8 + ^
STACK CFI 3199c .cfa: r7 8 +
STACK CFI INIT 31a0c 1b0 .cfa: sp 0 +
STACK CFI 31a0e .cfa: sp 20 + .ra: .cfa -4 + ^ r7: .cfa -8 + ^ r6: .cfa -12 + ^ r5: .cfa -16 + ^ r4: .cfa -20 + ^
STACK CFI 31a10 .cfa: r7 8 +
STACK CFI 31a14 r10: .cfa -24 + ^ r9: .cfa -28 + ^ r8: .cfa -32 + ^
STACK CFI INIT 31bbc 9a .cfa: sp 0 +
STACK CFI 31bbe .cfa: sp 20 + .ra: .cfa -4 + ^ r7: .cfa -8 + ^ r6: .cfa -12 + ^ r5: .cfa -16 + ^ r4: .cfa -20 + ^
STACK CFI 31bc0 .cfa: r7 8 +
STACK CFI 31bc4 r11: .cfa -24 + ^ r9: .cfa -28 + ^ r8: .cfa -32 + ^
STACK CFI INIT 31c58 174 .cfa: sp 0 +
STACK CFI 31c5a .cfa: sp 20 + .ra: .cfa -4 + ^ r7: .cfa -8 + ^ r6: .cfa -12 + ^ r5: .cfa -16 + ^ r4: .cfa -20 + ^
STACK CFI 31c5c .cfa: r7 8 +
STACK CFI 31c60 r10: .cfa -24 + ^ r9: .cfa -28 + ^ r8: .cfa -32 + ^
STACK CFI INIT 31dcc 218 .cfa: sp 0 +
STACK CFI 31dce .cfa: sp 20 + .ra: .cfa -4 + ^ r7: .cfa -8 + ^ r6: .cfa -12 + ^ r5: .cfa -16 + ^ r4: .cfa -20 + ^
STACK CFI 31dd0 .cfa: r7 8 +
STACK CFI 31dd4 r11: .cfa -24 + ^ r10: .cfa -28 + ^ r9: .cfa -32 + ^ r8: .cfa -36 + ^
STACK CFI INIT 31fe4 1dc .cfa: sp 0 +
STACK CFI 31fe6 .cfa: sp 20 + .ra: .cfa -4 + ^ r7: .cfa -8 + ^ r6: .cfa -12 + ^ r5: .cfa -16 + ^ r4: .cfa -20 + ^
STACK CFI 31fe8 .cfa: r7 8 +
STACK CFI 31fec r11: .cfa -24 + ^ r10: .cfa -28 + ^ r9: .cfa -32 + ^ r8: .cfa -36 + ^
STACK CFI INIT 321c0 188 .cfa: sp 0 +
STACK CFI 321c2 .cfa: sp 20 + .ra: .cfa -4 + ^ r7: .cfa -8 + ^ r6: .cfa -12 + ^ r5: .cfa -16 + ^ r4: .cfa -20 + ^
STACK CFI 321c4 .cfa: r7 8 +
STACK CFI 321c8 r11: .cfa -24 + ^ r10: .cfa -28 + ^ r9: .cfa -32 + ^ r8: .cfa -36 + ^
STACK CFI INIT 32348 9f8 .cfa: sp 0 +
STACK CFI 3234a .cfa: sp 20 + .ra: .cfa -4 + ^ r7: .cfa -8 + ^ r6: .cfa -12 + ^ r5: .cfa -16 + ^ r4: .cfa -20 + ^
STACK CFI 3234c .cfa: r7 8 +
STACK CFI 32350 r11: .cfa -24 + ^ r10: .cfa -28 + ^ r9: .cfa -32 + ^ r8: .cfa -36 + ^
STACK CFI INIT 32d40 fa .cfa: sp 0 +
STACK CFI 32d42 .cfa: sp 20 + .ra: .cfa -4 + ^ r7: .cfa -8 + ^ r6: .cfa -12 + ^ r5: .cfa -16 + ^ r4: .cfa -20 + ^
STACK CFI 32d44 .cfa: r7 8 +
STACK CFI 32d48 r11: .cfa -24 + ^ r10: .cfa -28 + ^ r9: .cfa -32 + ^ r8: .cfa -36 + ^
STACK CFI INIT 32e3c 184 .cfa: sp 0 +
STACK CFI 32e3e .cfa: sp 20 + .ra: .cfa -4 + ^ r7: .cfa -8 + ^ r6: .cfa -12 + ^ r5: .cfa -16 + ^ r4: .cfa -20 + ^
STACK CFI 32e40 .cfa: r7 8 +
STACK CFI 32e44 r11: .cfa -24 + ^ r10: .cfa -28 + ^ r9: .cfa -32 + ^ r8: .cfa -36 + ^
STACK CFI INIT 32fc0 210 .cfa: sp 0 +
STACK CFI 32fc2 .cfa: sp 20 + .ra: .cfa -4 + ^ r7: .cfa -8 + ^ r6: .cfa -12 + ^ r5: .cfa -16 + ^ r4: .cfa -20 + ^
STACK CFI 32fc4 .cfa: r7 8 +
STACK CFI 32fc8 r8: .cfa -24 + ^
STACK CFI INIT 331d0 e0 .cfa: sp 0 +
STACK CFI 331d2 .cfa: sp 20 + .ra: .cfa -4 + ^ r7: .cfa -8 + ^ r6: .cfa -12 + ^ r5: .cfa -16 + ^ r4: .cfa -20 + ^
STACK CFI 331d4 .cfa: r7 8 +
STACK CFI 331d8 r8: .cfa -24 + ^
STACK CFI INIT 332b0 e0 .cfa: sp 0 +
STACK CFI 332b2 .cfa: sp 20 + .ra: .cfa -4 + ^ r7: .cfa -8 + ^ r6: .cfa -12 + ^ r5: .cfa -16 + ^ r4: .cfa -20 + ^
STACK CFI 332b4 .cfa: r7 8 +
STACK CFI 332b8 r8: .cfa -24 + ^
STACK CFI INIT 33390 140 .cfa: sp 0 +
STACK CFI 33392 .cfa: sp 20 + .ra: .cfa -4 + ^ r7: .cfa -8 + ^ r6: .cfa -12 + ^ r5: .cfa -16 + ^ r4: .cfa -20 + ^
STACK CFI 33394 .cfa: r7 8 +
STACK CFI 33398 r11: .cfa -24 + ^ r10: .cfa -28 + ^ r9: .cfa -32 + ^ r8: .cfa -36 + ^
STACK CFI INIT 334d0 904 .cfa: sp 0 +
STACK CFI 334d2 .cfa: sp 20 + .ra: .cfa -4 + ^ r7: .cfa -8 + ^ r6: .cfa -12 + ^ r5: .cfa -16 + ^ r4: .cfa -20 + ^
STACK CFI 334d4 .cfa: r7 8 +
STACK CFI 334d8 r11: .cfa -24 + ^ r10: .cfa -28 + ^ r9: .cfa -32 + ^ r8: .cfa -36 + ^
STACK CFI INIT 33dd4 e0 .cfa: sp 0 +
STACK CFI 33dd6 .cfa: sp 20 + .ra: .cfa -4 + ^ r7: .cfa -8 + ^ r6: .cfa -12 + ^ r5: .cfa -16 + ^ r4: .cfa -20 + ^
STACK CFI 33dd8 .cfa: r7 8 +
STACK CFI 33ddc r8: .cfa -24 + ^
STACK CFI INIT 33eb4 194 .cfa: sp 0 +
STACK CFI 33eb6 .cfa: sp 20 + .ra: .cfa -4 + ^ r7: .cfa -8 + ^ r6: .cfa -12 + ^ r5: .cfa -16 + ^ r4: .cfa -20 + ^
STACK CFI 33eb8 .cfa: r7 8 +
STACK CFI 33ebc r8: .cfa -24 + ^
STACK CFI INIT 34048 22 .cfa: sp 0 +
STACK CFI 3404a .cfa: sp 16 + .ra: .cfa -4 + ^ r7: .cfa -8 + ^ r6: .cfa -12 + ^ r4: .cfa -16 + ^
STACK CFI 3404c .cfa: r7 8 +
STACK CFI INIT 3406c 104 .cfa: sp 0 +
STACK CFI 3406e .cfa: sp 20 + .ra: .cfa -4 + ^ r7: .cfa -8 + ^ r6: .cfa -12 + ^ r5: .cfa -16 + ^ r4: .cfa -20 + ^
STACK CFI 34070 .cfa: r7 8 +
STACK CFI 34074 r10: .cfa -24 + ^ r9: .cfa -28 + ^ r8: .cfa -32 + ^
STACK CFI INIT 34170 144 .cfa: sp 0 +
STACK CFI 34172 .cfa: sp 20 + .ra: .cfa -4 + ^ r7: .cfa -8 + ^ r6: .cfa -12 + ^ r5: .cfa -16 + ^ r4: .cfa -20 + ^
STACK CFI 34174 .cfa: r7 8 +
STACK CFI 34178 r11: .cfa -24 + ^ r9: .cfa -28 + ^ r8: .cfa -32 + ^
STACK CFI INIT 342b4 66 .cfa: sp 0 +
STACK CFI 342b6 .cfa: sp 20 + .ra: .cfa -4 + ^ r7: .cfa -8 + ^ r6: .cfa -12 + ^ r5: .cfa -16 + ^ r4: .cfa -20 + ^
STACK CFI 342b8 .cfa: r7 8 +
STACK CFI 342bc r11: .cfa -24 + ^ r9: .cfa -28 + ^ r8: .cfa -32 + ^
STACK CFI INIT 3431a a6 .cfa: sp 0 +
STACK CFI 3431c .cfa: sp 20 + .ra: .cfa -4 + ^ r7: .cfa -8 + ^ r6: .cfa -12 + ^ r5: .cfa -16 + ^ r4: .cfa -20 + ^
STACK CFI 3431e .cfa: r7 8 +
STACK CFI 34322 r10: .cfa -24 + ^ r9: .cfa -28 + ^ r8: .cfa -32 + ^
STACK CFI INIT 343c0 21c .cfa: sp 0 +
STACK CFI 343c2 .cfa: sp 20 + .ra: .cfa -4 + ^ r7: .cfa -8 + ^ r6: .cfa -12 + ^ r5: .cfa -16 + ^ r4: .cfa -20 + ^
STACK CFI 343c4 .cfa: r7 8 +
STACK CFI 343c8 r11: .cfa -24 + ^ r10: .cfa -28 + ^ r9: .cfa -32 + ^ r8: .cfa -36 + ^
STACK CFI INIT 345dc 6e .cfa: sp 0 +
STACK CFI 345de .cfa: sp 20 + .ra: .cfa -4 + ^ r7: .cfa -8 + ^ r6: .cfa -12 + ^ r5: .cfa -16 + ^ r4: .cfa -20 + ^
STACK CFI 345e0 .cfa: r7 8 +
STACK CFI 345e4 r8: .cfa -24 + ^
STACK CFI INIT 3464c 9ac .cfa: sp 0 +
STACK CFI 3464e .cfa: sp 20 + .ra: .cfa -4 + ^ r7: .cfa -8 + ^ r6: .cfa -12 + ^ r5: .cfa -16 + ^ r4: .cfa -20 + ^
STACK CFI 34650 .cfa: r7 8 +
STACK CFI 34654 r11: .cfa -24 + ^ r10: .cfa -28 + ^ r9: .cfa -32 + ^ r8: .cfa -36 + ^
STACK CFI INIT 34ff8 e8 .cfa: sp 0 +
STACK CFI 34ffa .cfa: sp 20 + .ra: .cfa -4 + ^ r7: .cfa -8 + ^ r6: .cfa -12 + ^ r5: .cfa -16 + ^ r4: .cfa -20 + ^
STACK CFI 34ffc .cfa: r7 8 +
STACK CFI 35000 r8: .cfa -24 + ^
STACK CFI INIT 350e0 19c .cfa: sp 0 +
STACK CFI 350e2 .cfa: sp 20 + .ra: .cfa -4 + ^ r7: .cfa -8 + ^ r6: .cfa -12 + ^ r5: .cfa -16 + ^ r4: .cfa -20 + ^
STACK CFI 350e4 .cfa: r7 8 +
STACK CFI 350e8 r11: .cfa -24 + ^ r10: .cfa -28 + ^ r9: .cfa -32 + ^ r8: .cfa -36 + ^
STACK CFI INIT 3527c 150 .cfa: sp 0 +
STACK CFI 3527e .cfa: sp 20 + .ra: .cfa -4 + ^ r7: .cfa -8 + ^ r6: .cfa -12 + ^ r5: .cfa -16 + ^ r4: .cfa -20 + ^
STACK CFI 35280 .cfa: r7 8 +
STACK CFI 35284 r11: .cfa -24 + ^ r10: .cfa -28 + ^ r9: .cfa -32 + ^ r8: .cfa -36 + ^
STACK CFI INIT 353d0 1808 .cfa: sp 0 +
STACK CFI 353d2 .cfa: sp 20 + .ra: .cfa -4 + ^ r7: .cfa -8 + ^ r6: .cfa -12 + ^ r5: .cfa -16 + ^ r4: .cfa -20 + ^
STACK CFI 353d4 .cfa: r7 8 +
STACK CFI 353d8 r11: .cfa -24 + ^ r10: .cfa -28 + ^ r9: .cfa -32 + ^ r8: .cfa -36 + ^
STACK CFI INIT 36bd8 1cc .cfa: sp 0 +
STACK CFI 36bda .cfa: sp 20 + .ra: .cfa -4 + ^ r7: .cfa -8 + ^ r6: .cfa -12 + ^ r5: .cfa -16 + ^ r4: .cfa -20 + ^
STACK CFI 36bdc .cfa: r7 8 +
STACK CFI 36be0 r8: .cfa -24 + ^
STACK CFI INIT 36da4 f6 .cfa: sp 0 +
STACK CFI 36da6 .cfa: sp 20 + .ra: .cfa -4 + ^ r7: .cfa -8 + ^ r6: .cfa -12 + ^ r5: .cfa -16 + ^ r4: .cfa -20 + ^
STACK CFI 36da8 .cfa: r7 8 +
STACK CFI 36dac r11: .cfa -24 + ^ r10: .cfa -28 + ^ r9: .cfa -32 + ^ r8: .cfa -36 + ^
STACK CFI INIT 36e9c b78 .cfa: sp 0 +
STACK CFI 36e9e .cfa: sp 20 + .ra: .cfa -4 + ^ r7: .cfa -8 + ^ r6: .cfa -12 + ^ r5: .cfa -16 + ^ r4: .cfa -20 + ^
STACK CFI 36ea0 .cfa: r7 8 +
STACK CFI 36ea4 r11: .cfa -24 + ^ r10: .cfa -28 + ^ r9: .cfa -32 + ^ r8: .cfa -36 + ^
STACK CFI INIT 37a14 3a4 .cfa: sp 0 +
STACK CFI 37a16 .cfa: sp 20 + .ra: .cfa -4 + ^ r7: .cfa -8 + ^ r6: .cfa -12 + ^ r5: .cfa -16 + ^ r4: .cfa -20 + ^
STACK CFI 37a18 .cfa: r7 8 +
STACK CFI 37a1c r11: .cfa -24 + ^ r10: .cfa -28 + ^ r9: .cfa -32 + ^ r8: .cfa -36 + ^
STACK CFI INIT 37db8 ebc .cfa: sp 0 +
STACK CFI 37dba .cfa: sp 20 + .ra: .cfa -4 + ^ r7: .cfa -8 + ^ r6: .cfa -12 + ^ r5: .cfa -16 + ^ r4: .cfa -20 + ^
STACK CFI 37dbc .cfa: r7 8 +
STACK CFI 37dc0 r11: .cfa -24 + ^ r10: .cfa -28 + ^ r9: .cfa -32 + ^ r8: .cfa -36 + ^
STACK CFI INIT 38c74 10c .cfa: sp 0 +
STACK CFI 38c76 .cfa: sp 20 + .ra: .cfa -4 + ^ r7: .cfa -8 + ^ r6: .cfa -12 + ^ r5: .cfa -16 + ^ r4: .cfa -20 + ^
STACK CFI 38c78 .cfa: r7 8 +
STACK CFI 38c7c r11: .cfa -24 + ^ r10: .cfa -28 + ^ r9: .cfa -32 + ^ r8: .cfa -36 + ^
STACK CFI INIT 38d80 c4 .cfa: sp 0 +
STACK CFI 38d9e .cfa: sp 20 + .ra: .cfa -4 + ^ r7: .cfa -8 + ^ r6: .cfa -12 + ^ r5: .cfa -16 + ^ r4: .cfa -20 + ^
STACK CFI 38da0 .cfa: r7 8 +
STACK CFI 38da4 r8: .cfa -24 + ^
STACK CFI INIT 38e44 414 .cfa: sp 0 +
STACK CFI 38e46 .cfa: sp 20 + .ra: .cfa -4 + ^ r7: .cfa -8 + ^ r6: .cfa -12 + ^ r5: .cfa -16 + ^ r4: .cfa -20 + ^
STACK CFI 38e48 .cfa: r7 8 +
STACK CFI 38e4c r11: .cfa -24 + ^ r10: .cfa -28 + ^ r9: .cfa -32 + ^ r8: .cfa -36 + ^
STACK CFI INIT 39258 276 .cfa: sp 0 +
STACK CFI 3925a .cfa: sp 20 + .ra: .cfa -4 + ^ r7: .cfa -8 + ^ r6: .cfa -12 + ^ r5: .cfa -16 + ^ r4: .cfa -20 + ^
STACK CFI 3925c .cfa: r7 8 +
STACK CFI 39260 r11: .cfa -24 + ^ r10: .cfa -28 + ^ r9: .cfa -32 + ^ r8: .cfa -36 + ^
STACK CFI INIT 394ce 6e .cfa: sp 0 +
STACK CFI 394d0 .cfa: sp 20 + .ra: .cfa -4 + ^ r7: .cfa -8 + ^ r6: .cfa -12 + ^ r5: .cfa -16 + ^ r4: .cfa -20 + ^
STACK CFI 394d2 .cfa: r7 8 +
STACK CFI 394d6 r8: .cfa -24 + ^
STACK CFI INIT 3953c 994 .cfa: sp 0 +
STACK CFI 3953e .cfa: sp 20 + .ra: .cfa -4 + ^ r7: .cfa -8 + ^ r6: .cfa -12 + ^ r5: .cfa -16 + ^ r4: .cfa -20 + ^
STACK CFI 39540 .cfa: r7 8 +
STACK CFI 39544 r11: .cfa -24 + ^ r10: .cfa -28 + ^ r9: .cfa -32 + ^ r8: .cfa -36 + ^
STACK CFI INIT 39ed0 e0 .cfa: sp 0 +
STACK CFI 39ed2 .cfa: sp 20 + .ra: .cfa -4 + ^ r7: .cfa -8 + ^ r6: .cfa -12 + ^ r5: .cfa -16 + ^ r4: .cfa -20 + ^
STACK CFI 39ed4 .cfa: r7 8 +
STACK CFI 39ed8 r11: .cfa -24 + ^ r10: .cfa -28 + ^ r9: .cfa -32 + ^ r8: .cfa -36 + ^
STACK CFI INIT 39fb0 834 .cfa: sp 0 +
STACK CFI 39fb2 .cfa: sp 20 + .ra: .cfa -4 + ^ r7: .cfa -8 + ^ r6: .cfa -12 + ^ r5: .cfa -16 + ^ r4: .cfa -20 + ^
STACK CFI 39fb4 .cfa: r7 8 +
STACK CFI 39fb8 r11: .cfa -24 + ^ r10: .cfa -28 + ^ r9: .cfa -32 + ^ r8: .cfa -36 + ^
STACK CFI INIT 3a7e4 124 .cfa: sp 0 +
STACK CFI 3a7e6 .cfa: sp 20 + .ra: .cfa -4 + ^ r7: .cfa -8 + ^ r6: .cfa -12 + ^ r5: .cfa -16 + ^ r4: .cfa -20 + ^
STACK CFI 3a7e8 .cfa: r7 8 +
STACK CFI 3a7ec r11: .cfa -24 + ^ r10: .cfa -28 + ^ r9: .cfa -32 + ^ r8: .cfa -36 + ^
STACK CFI INIT 3a910 1e4 .cfa: sp 0 +
STACK CFI 3a912 .cfa: sp 20 + .ra: .cfa -4 + ^ r7: .cfa -8 + ^ r6: .cfa -12 + ^ r5: .cfa -16 + ^ r4: .cfa -20 + ^
STACK CFI 3a914 .cfa: r7 8 +
STACK CFI 3a918 r11: .cfa -24 + ^ r10: .cfa -28 + ^ r9: .cfa -32 + ^ r8: .cfa -36 + ^
STACK CFI INIT 3aaf4 544 .cfa: sp 0 +
STACK CFI 3aaf6 .cfa: sp 20 + .ra: .cfa -4 + ^ r7: .cfa -8 + ^ r6: .cfa -12 + ^ r5: .cfa -16 + ^ r4: .cfa -20 + ^
STACK CFI 3aaf8 .cfa: r7 8 +
STACK CFI 3aafc r11: .cfa -24 + ^ r10: .cfa -28 + ^ r9: .cfa -32 + ^ r8: .cfa -36 + ^
