MODULE Linux arm64 7F7066955D6DFCEE1C00F45B62D4569A0 iandyhd3.autosort_lists.android64.so
INFO CODE_ID 9566707F6D5DEEFC1C00F45B62D4569ABB7870B0
INFO GENERATOR mozilla/dump_syms 2.3.4
PUBLIC 13370 0 __on_dlclose
PUBLIC 13380 0 __emutls_unregister_key
PUBLIC 13388 0 __on_dlclose_late
PUBLIC 13390 0 __atexit_handler_wrapper
PUBLIC 133a4 0 atexit
PUBLIC 133c0 0 pthread_atfork
PUBLIC 133d0 0 unwind_phase2
PUBLIC 13504 0 _Unwind_Resume
PUBLIC 13588 0 unwind_phase2_forced
PUBLIC m 1367c 0 __unw_init_local
PUBLIC m 13724 0 __unw_get_reg
PUBLIC 137a0 0 __unw_step_stage2
PUBLIC m 137b4 0 __unw_get_proc_info
PUBLIC m 137f4 0 __unw_resume
PUBLIC 1381c 0 libunwind::CFI_Parser<libunwind::LocalAddressSpace>::decodeFDE(libunwind::LocalAddressSpace&, unsigned long, libunwind::CFI_Parser<libunwind::LocalAddressSpace>::FDE_Info*, libunwind::CFI_Parser<libunwind::LocalAddressSpace>::CIE_Info*, bool)
PUBLIC 139ac 0 libunwind::CFI_Parser<libunwind::LocalAddressSpace>::parseCIE(libunwind::LocalAddressSpace&, unsigned long, libunwind::CFI_Parser<libunwind::LocalAddressSpace>::CIE_Info*)
PUBLIC 13c74 0 libunwind::AbstractUnwindCursor::~AbstractUnwindCursor()
PUBLIC 13c7c 0 libunwind::UnwindCursor<libunwind::LocalAddressSpace, libunwind::Registers_arm64>::~UnwindCursor()
PUBLIC 13c84 0 libunwind::UnwindCursor<libunwind::LocalAddressSpace, libunwind::Registers_arm64>::validReg(int)
PUBLIC 13cc8 0 libunwind::UnwindCursor<libunwind::LocalAddressSpace, libunwind::Registers_arm64>::getReg(int)
PUBLIC 13db0 0 libunwind::UnwindCursor<libunwind::LocalAddressSpace, libunwind::Registers_arm64>::setReg(int, unsigned long)
PUBLIC 13e98 0 libunwind::UnwindCursor<libunwind::LocalAddressSpace, libunwind::Registers_arm64>::validFloatReg(int)
PUBLIC 13eac 0 libunwind::UnwindCursor<libunwind::LocalAddressSpace, libunwind::Registers_arm64>::getFloatReg(int)
PUBLIC 13ebc 0 libunwind::UnwindCursor<libunwind::LocalAddressSpace, libunwind::Registers_arm64>::setFloatReg(int, double)
PUBLIC 13ecc 0 libunwind::UnwindCursor<libunwind::LocalAddressSpace, libunwind::Registers_arm64>::step(bool)
PUBLIC 13fbc 0 libunwind::UnwindCursor<libunwind::LocalAddressSpace, libunwind::Registers_arm64>::getInfo(unw_proc_info_t*)
PUBLIC 14000 0 libunwind::UnwindCursor<libunwind::LocalAddressSpace, libunwind::Registers_arm64>::jumpto()
PUBLIC 1400c 0 libunwind::UnwindCursor<libunwind::LocalAddressSpace, libunwind::Registers_arm64>::isSignalFrame()
PUBLIC 14018 0 libunwind::UnwindCursor<libunwind::LocalAddressSpace, libunwind::Registers_arm64>::getFunctionName(char*, unsigned long, unsigned long*)
PUBLIC 14044 0 libunwind::UnwindCursor<libunwind::LocalAddressSpace, libunwind::Registers_arm64>::setInfoBasedOnIPRegister(bool)
PUBLIC 142c4 0 libunwind::UnwindCursor<libunwind::LocalAddressSpace, libunwind::Registers_arm64>::getRegisterName(int)
PUBLIC 142d0 0 libunwind::UnwindCursor<libunwind::LocalAddressSpace, libunwind::Registers_arm64>::stepThroughSigReturn(libunwind::Registers_arm64&)
PUBLIC 143f0 0 libunwind::DwarfInstructions<libunwind::LocalAddressSpace, libunwind::Registers_arm64>::stepWithDwarf(libunwind::LocalAddressSpace&, unsigned long, unsigned long, libunwind::Registers_arm64&, bool&, bool)
PUBLIC 14878 0 libunwind::CFI_Parser<libunwind::LocalAddressSpace>::parseFDEInstructions(libunwind::LocalAddressSpace&, libunwind::CFI_Parser<libunwind::LocalAddressSpace>::FDE_Info const&, libunwind::CFI_Parser<libunwind::LocalAddressSpace>::CIE_Info const&, unsigned long, int, libunwind::CFI_Parser<libunwind::LocalAddressSpace>::PrologInfo*)
PUBLIC 154c0 0 libunwind::DwarfInstructions<libunwind::LocalAddressSpace, libunwind::Registers_arm64>::getCFA(libunwind::LocalAddressSpace&, libunwind::CFI_Parser<libunwind::LocalAddressSpace>::PrologInfo const&, libunwind::Registers_arm64 const&)
PUBLIC 155f4 0 libunwind::DwarfInstructions<libunwind::LocalAddressSpace, libunwind::Registers_arm64>::getSavedRegister(libunwind::LocalAddressSpace&, libunwind::Registers_arm64 const&, unsigned long, libunwind::CFI_Parser<libunwind::LocalAddressSpace>::RegisterLocation const&)
PUBLIC 15804 0 libunwind::LocalAddressSpace::getEncodedP(unsigned long&, unsigned long, unsigned char, unsigned long)
PUBLIC 15b90 0 libunwind::LocalAddressSpace::getULEB128(unsigned long&, unsigned long)
PUBLIC 15d58 0 libunwind::DwarfInstructions<libunwind::LocalAddressSpace, libunwind::Registers_arm64>::evaluateExpression(unsigned long, libunwind::LocalAddressSpace&, libunwind::Registers_arm64 const&, unsigned long)
PUBLIC 16714 0 libunwind::UnwindCursor<libunwind::LocalAddressSpace, libunwind::Registers_arm64>::getInfoFromDwarfSection(unsigned long, libunwind::UnwindInfoSections const&, unsigned int)
PUBLIC 169e8 0 libunwind::findUnwindSectionsByPhdr(dl_phdr_info*, unsigned long, void*)
PUBLIC 16b1c 0 libunwind::EHHeaderParser<libunwind::LocalAddressSpace>::decodeEHHdr(libunwind::LocalAddressSpace&, unsigned long, unsigned long, libunwind::EHHeaderParser<libunwind::LocalAddressSpace>::EHHeaderInfo&)
PUBLIC 16c3c 0 libunwind::CFI_Parser<libunwind::LocalAddressSpace>::findFDE(libunwind::LocalAddressSpace&, unsigned long, unsigned long, unsigned long, unsigned long, libunwind::CFI_Parser<libunwind::LocalAddressSpace>::FDE_Info*, libunwind::CFI_Parser<libunwind::LocalAddressSpace>::CIE_Info*)
PUBLIC 16e04 0 libunwind::EHHeaderParser<libunwind::LocalAddressSpace>::findFDE(libunwind::LocalAddressSpace&, unsigned long, unsigned long, unsigned int, libunwind::CFI_Parser<libunwind::LocalAddressSpace>::FDE_Info*, libunwind::CFI_Parser<libunwind::LocalAddressSpace>::CIE_Info*)
PUBLIC 16f6c 0 libunwind::EHHeaderParser<libunwind::LocalAddressSpace>::getTableEntrySize(unsigned char)
PUBLIC 17068 0 libunwind::Registers_arm64::getRegisterName(int)
PUBLIC 17098 0 __libunwind_Registers_arm64_jumpto
PUBLIC m 17128 0 __unw_getcontext
PUBLIC 171d0 0 __aarch64_ldadd8_relax
PUBLIC 17200 0 init_have_lse_atomics
PUBLIC 17298 0 __init_cpu_features_constructor
PUBLIC 17834 0 __init_cpu_features
PUBLIC 178c0 0 __aarch64_ldadd8_acq_rel
PUBLIC 178f0 0 __cxx_global_var_init
PUBLIC 184c4 0 geode::modifier::ModifyBase<geode::modifier::ModifyDerive<MyListLayer, LevelListLayer> >::~ModifyBase()
PUBLIC 184dc 0 Sorter::canSplit()
PUBLIC 184e4 0 Sorter::split(gd::vector<int> const&)
PUBLIC 184f0 0 SortById::operator_lt(GJGameLevel*, GJGameLevel*)
PUBLIC 1851c 0 SortByLevelName::operator_lt(GJGameLevel*, GJGameLevel*)
PUBLIC 186e8 0 SortByStars::operator_lt(GJGameLevel*, GJGameLevel*)
PUBLIC 18838 0 SortByAuthorName::operator_lt(GJGameLevel*, GJGameLevel*)
PUBLIC 18a04 0 SortByRating::operator_lt(GJGameLevel*, GJGameLevel*)
PUBLIC 18ac8 0 geode::modifier::ModifyDerive<MyListLayer, LevelListLayer>::apply()
PUBLIC 18f34 0 std::__ndk1::shared_ptr<geode::Hook>::~shared_ptr[abi:ne180000]()
PUBLIC 18f84 0 geode::impl::ResultData<geode::Hook*, std::__ndk1::basic_string<char, std::__ndk1::char_traits<char>, std::__ndk1::allocator<char> > >::~ResultData()
PUBLIC 18ff8 0 std::__ndk1::vector<std::__ndk1::basic_string<char, std::__ndk1::char_traits<char>, std::__ndk1::allocator<char> >, std::__ndk1::allocator<std::__ndk1::basic_string<char, std::__ndk1::char_traits<char>, std::__ndk1::allocator<char> > > >::~vector[abi:ne180000]()
PUBLIC 19074 0 geode::modifier::ModifyBase<geode::modifier::ModifyDerive<MyListLayer, LevelListLayer> >::apply()
PUBLIC 19078 0 __clang_call_terminate
PUBLIC 19088 0 _ZN5geode15UnwrapExceptionC2IRPNS_4HookEQsr4implE18IsStringStreamableIT_EEENS_4impl5OkTagEOS5_
PUBLIC 191dc 0 std::__ndk1::__throw_bad_variant_access[abi:ne180000]()
PUBLIC 19210 0 std::__ndk1::basic_stringstream<char, std::__ndk1::char_traits<char>, std::__ndk1::allocator<char> >::basic_stringstream[abi:ne180000]()
PUBLIC m 1933c 0 std::__ndk1::basic_stringstream<char, std::__ndk1::char_traits<char>, std::__ndk1::allocator<char> >::~basic_stringstream()
PUBLIC 193bc 0 geode::UnwrapException::~UnwrapException()
PUBLIC 193e0 0 std::__ndk1::__put_character_sequence[abi:ne180000]<char, std::__ndk1::char_traits<char> >(std::__ndk1::basic_ostream<char, std::__ndk1::char_traits<char> >, std::__ndk1::basic_ostream const*, unsigned long)
PUBLIC 19584 0 std::__ndk1::__pad_and_output[abi:ne180000]<char, std::__ndk1::char_traits<char> >(std::__ndk1::char_traits<char>, std::__ndk1::ostreambuf_iterator const*, std::__ndk1::ostreambuf_iterator const, std::__ndk1::ostreambuf_iterator const, std::__ndk1::ios_base&, std::__ndk1::ostreambuf_iterator)
PUBLIC 19760 0 std::__ndk1::basic_string<char, std::__ndk1::char_traits<char>, std::__ndk1::allocator<char> >::__throw_length_error[abi:ne180000]() const
PUBLIC 19774 0 std::__ndk1::__throw_length_error[abi:ne180000](char const*)
PUBLIC 197c4 0 std::length_error::length_error[abi:ne180000](char const*)
PUBLIC 197f4 0 std::__throw_bad_array_new_length([abi:ne180000], void)
PUBLIC 19828 0 std::__ndk1::basic_stringbuf<char, std::__ndk1::char_traits<char>, std::__ndk1::allocator<char> >::str[abi:ne180000]() &&
PUBLIC 199a0 0 std::__ndk1::basic_stringbuf<char, std::__ndk1::char_traits<char>, std::__ndk1::allocator<char> >::__init_buf_ptrs[abi:ne180000]()
PUBLIC 19ae8 0 std::__ndk1::basic_string<char, std::__ndk1::char_traits<char>, std::__ndk1::allocator<char> >::__init_copy_ctor_external(char const*, unsigned long)
PUBLIC 19b68 0 std::__ndk1::__split_buffer<std::__ndk1::basic_string<char, std::__ndk1::char_traits<char>, std::__ndk1::allocator<char> >, std::__ndk1::allocator<std::__ndk1::basic_string<char, std::__ndk1::char_traits<char>, std::__ndk1::allocator<char> > >&>::~__split_buffer()
PUBLIC 19bd0 0 std::__ndk1::vector<std::__ndk1::basic_string<char, std::__ndk1::char_traits<char>, std::__ndk1::allocator<char> >, std::__ndk1::allocator<std::__ndk1::basic_string<char, std::__ndk1::char_traits<char>, std::__ndk1::allocator<char> > > >::__throw_length_error[abi:ne180000]() const
PUBLIC 19be4 0 std::__ndk1::__variant_detail::__visitation::__base::__dispatcher<(unsigned long)0>::__dispatch[abi:ne180000]<std::__ndk1::__variant_detail::__dtor<std::__ndk1::__variant_detail::__traits<geode::Hook*, std::__ndk1::basic_string<char, std::__ndk1::char_traits<char>, std::__ndk1::allocator<char> > >, (std::__ndk1::__variant_detail::_Trait)1>::__destroy[abi:ne180000]()::{lambda(auto:1&)#1}, std::__ndk1::__variant_detail::__base<(std::__ndk1::__variant_detail::__traits<geode::Hook*, std::__ndk1::basic_string<char, std::__ndk1::char_traits<char>, std::__ndk1::allocator<char> > >)1, geode::Hook, std::__ndk1::allocator<char> >&>(std::__ndk1::__variant_detail::__dtor<std::__ndk1::__variant_detail::__traits<geode::Hook*, std::__ndk1::basic_string<char, std::__ndk1::char_traits<char>, std::__ndk1::allocator<char> > >, (std::__ndk1::__variant_detail::_Trait)1>, std::__ndk1::__variant_detail::__base<(std::__ndk1::__variant_detail::__traits<geode::Hook*, std::__ndk1::basic_string<char, std::__ndk1::char_traits<char>, std::__ndk1::allocator<char> > >)1, geode::Hook, std::__ndk1::allocator<char> >&)
PUBLIC 19be8 0 std::__ndk1::__variant_detail::__visitation::__base::__dispatcher<(unsigned long)1>::__dispatch[abi:ne180000]<std::__ndk1::__variant_detail::__dtor<std::__ndk1::__variant_detail::__traits<geode::Hook*, std::__ndk1::basic_string<char, std::__ndk1::char_traits<char>, std::__ndk1::allocator<char> > >, (std::__ndk1::__variant_detail::_Trait)1>::__destroy[abi:ne180000]()::{lambda(auto:1&)#1}, std::__ndk1::__variant_detail::__base<(std::__ndk1::__variant_detail::__traits<geode::Hook*, std::__ndk1::basic_string<char, std::__ndk1::char_traits<char>, std::__ndk1::allocator<char> > >)1, geode::Hook, std::__ndk1::allocator<char> >&>(std::__ndk1::__variant_detail::__dtor<std::__ndk1::__variant_detail::__traits<geode::Hook*, std::__ndk1::basic_string<char, std::__ndk1::char_traits<char>, std::__ndk1::allocator<char> > >, (std::__ndk1::__variant_detail::_Trait)1>, std::__ndk1::__variant_detail::__base<(std::__ndk1::__variant_detail::__traits<geode::Hook*, std::__ndk1::basic_string<char, std::__ndk1::char_traits<char>, std::__ndk1::allocator<char> > >)1, geode::Hook, std::__ndk1::allocator<char> >&)
PUBLIC 19bfc 0 std::__ndk1::__tree<std::__ndk1::__value_type<std::__ndk1::basic_string<char, std::__ndk1::char_traits<char>, std::__ndk1::allocator<char> >, std::__ndk1::shared_ptr<geode::Hook> >, std::__ndk1::__map_value_compare<std::__ndk1::basic_string<char, std::__ndk1::char_traits<char>, std::__ndk1::allocator<char> >, std::__ndk1::__value_type<std::__ndk1::basic_string<char, std::__ndk1::char_traits<char>, std::__ndk1::allocator<char> >, std::__ndk1::shared_ptr<geode::Hook> >, std::__ndk1::less<std::__ndk1::basic_string<char, std::__ndk1::char_traits<char>, std::__ndk1::allocator<char> > >, true>, std::__ndk1::allocator<std::__ndk1::__value_type<std::__ndk1::basic_string<char, std::__ndk1::char_traits<char>, std::__ndk1::allocator<char> >, std::__ndk1::shared_ptr<geode::Hook> > > >::destroy(std::__ndk1::__tree_node<std::__ndk1::__value_type<std::__ndk1::basic_string<char, std::__ndk1::char_traits<char>, std::__ndk1::allocator<char> >, std::__ndk1::shared_ptr<geode::Hook> >, void*>*)
PUBLIC 19c80 0 geode::modifier::AsStaticFunction_init<MyListLayer, bool (MyListLayer::*)(GJLevelList*)>::Impl<bool (MyListLayer::*)(GJLevelList*)>::function(MyListLayer*, GJLevelList*)
PUBLIC 19e04 0 std::__ndk1::shared_ptr<tulip::hook::CallingConvention>::~shared_ptr[abi:ne180000]()
PUBLIC 19e54 0 tulip::hook::HandlerMetadata::~HandlerMetadata()
PUBLIC 19eb8 0 MyListLayer::onSort(cocos2d::CCObject*)
PUBLIC 1a218 0 cocos2d::CCCopying::copyWithZone(cocos2d::CCZone*)
PUBLIC 1a220 0 ChooseSortLayer::~ChooseSortLayer()
PUBLIC 1a2d8 0 ChooseSortLayer::~ChooseSortLayer()
PUBLIC 1a398 0 geode::Popup<LevelListLayer*>::registerWithTouchDispatcher()
PUBLIC 1a3c4 0 geode::Popup<LevelListLayer*>::keyDown(cocos2d::enumKeyCodes)
PUBLIC 1a3ec 0 cocos2d::CCLayerRGBA::setOpacityModifyRGB(bool)
PUBLIC 1a3f0 0 cocos2d::CCLayerRGBA::isOpacityModifyRGB()
PUBLIC 1a3f8 0 ChooseSortLayer::setup(LevelListLayer*)
PUBLIC 1addc 0 geode::Popup<LevelListLayer*>::onClose(cocos2d::CCObject*)
PUBLIC 1af24 0 {virtual override thunk({offset(-320)}, ChooseSortLayer::~ChooseSortLayer())}
PUBLIC 1afe0 0 {virtual override thunk({offset(-320)}, ChooseSortLayer::~ChooseSortLayer())}
PUBLIC 1b0a4 0 {virtual override thunk({offset(-344)}, geode::Popup<LevelListLayer*>::keyDown(cocos2d::enumKeyCodes))}
PUBLIC 1b0d0 0 cocos2d::CCKeyboardDelegate::keyUp(cocos2d::enumKeyCodes)
PUBLIC 1b0d4 0 cocos2d::CCMouseDelegate::rightKeyDown()
PUBLIC 1b0d8 0 cocos2d::CCMouseDelegate::rightKeyUp()
PUBLIC 1b0dc 0 cocos2d::CCMouseDelegate::scrollWheel(float, float)
PUBLIC 1b0e0 0 {virtual override thunk({offset(-408)}, cocos2d::CCLayerRGBA::setOpacityModifyRGB(bool))}
PUBLIC 1b0e4 0 {virtual override thunk({offset(-408)}, cocos2d::CCLayerRGBA::isOpacityModifyRGB())}
PUBLIC 1b0ec 0 geode::Popup<LevelListLayer*>::~Popup()
PUBLIC 1b158 0 geode::Popup<LevelListLayer*>::~Popup()
PUBLIC 1b15c 0 {virtual override thunk({offset(-320)}, geode::Popup<LevelListLayer*>::~Popup())}
PUBLIC 1b1c8 0 {virtual override thunk({offset(-320)}, geode::Popup<LevelListLayer*>::~Popup())}
PUBLIC 1b1cc 0 ChooseSortLayer::toggleSort(cocos2d::CCObject*)
PUBLIC 1b690 0 ChooseSortLayer::onApply(cocos2d::CCObject*)
PUBLIC 1b714 0 geode::cocos::CCArrayExt<GJGameLevel*>::~CCArrayExt()
PUBLIC 1b730 0 std::__ndk1::vector<GJGameLevel*, std::__ndk1::allocator<GJGameLevel*> >::__throw_length_error[abi:ne180000]() const
PUBLIC 1b744 0 std::__ndk1::__introsort<std::__ndk1::_ClassicAlgPolicy, ChooseSortLayer::sortList(Sorter*)::{lambda(GJGameLevel*, GJGameLevel*)#1}&, GJGameLevel**, false>(GJGameLevel**, GJGameLevel**, ChooseSortLayer::sortList(Sorter*)::{lambda(GJGameLevel*, GJGameLevel*)#1}&, std::__ndk1::iterator_traits<GJGameLevel**>::difference_type, bool)
PUBLIC 1c030 0 std::__ndk1::__sort3[abi:ne180000]<std::__ndk1::_ClassicAlgPolicy, ChooseSortLayer::sortList(Sorter*)::{lambda(GJGameLevel*, GJGameLevel)#1}&, GJGameLevel*>(GJGameLevel*, GJGameLevel*, GJGameLevel*, ChooseSortLayer::sortList(Sorter*)::{lambda(GJGameLevel*, GJGameLevel)#1}&)
PUBLIC 1c168 0 std::__ndk1::__insertion_sort_incomplete[abi:ne180000]<std::__ndk1::_ClassicAlgPolicy, ChooseSortLayer::sortList(Sorter*)::{lambda(GJGameLevel*, GJGameLevel)#1}&, GJGameLevel*>(GJGameLevel*, GJGameLevel*, ChooseSortLayer::sortList(Sorter*)::{lambda(GJGameLevel*, GJGameLevel)#1}&)
PUBLIC 1c3d4 0 std::__ndk1::__sort5[abi:ne180000]<std::__ndk1::_ClassicAlgPolicy, ChooseSortLayer::sortList(Sorter*)::{lambda(GJGameLevel*, GJGameLevel)#1}&, GJGameLevel*>(GJGameLevel*, GJGameLevel*, GJGameLevel*, GJGameLevel*, GJGameLevel*, ChooseSortLayer::sortList(Sorter*)::{lambda(GJGameLevel*, GJGameLevel)#1}&)
PUBLIC 1c56c 0 geode::cocos::CCArrayExt<cocos2d::CCNode*>::~CCArrayExt()
PUBLIC 1c588 0 geode::Popup<LevelListLayer*>::CloseEvent::~CloseEvent()
PUBLIC 1c5e8 0 geode::Popup<LevelListLayer*>::CloseEvent::~CloseEvent()
PUBLIC 1c658 0 std::__ndk1::__shared_ptr_emplace<geode::Popup<LevelListLayer*>::CloseEvent::Impl, std::__ndk1::allocator<geode::Popup<LevelListLayer*>::CloseEvent::Impl> >::~__shared_ptr_emplace()
PUBLIC 1c668 0 std::__ndk1::__shared_ptr_emplace<geode::Popup<LevelListLayer*>::CloseEvent::Impl, std::__ndk1::allocator<geode::Popup<LevelListLayer*>::CloseEvent::Impl> >::~__shared_ptr_emplace()
PUBLIC 1c698 0 std::__ndk1::__shared_ptr_emplace<geode::Popup<LevelListLayer*>::CloseEvent::Impl, std::__ndk1::allocator<geode::Popup<LevelListLayer*>::CloseEvent::Impl> >::__on_zero_shared()
PUBLIC 1c69c 0 std::__ndk1::__shared_ptr_emplace<geode::Popup<LevelListLayer*>::CloseEvent::Impl, std::__ndk1::allocator<geode::Popup<LevelListLayer*>::CloseEvent::Impl> >::__on_zero_shared_weak()
PUBLIC 1c6a0 0 std::__ndk1::__tree_balance_after_insert[abi:ne180000]<std::__ndk1::__tree_node_base<void*>*>(std::__ndk1::__tree_node_base<void*>*, std::__ndk1::__tree_node_base<void*>*)
PUBLIC m 1c850 0 geodeImplicitEntry
PUBLIC 1c88c 0 std::__ndk1::unordered_map<void*, bool, std::__ndk1::hash<void*>, std::__ndk1::equal_to<void*>, std::__ndk1::allocator<std::__ndk1::pair<void* const, bool> > >::~unordered_map[abi:ne180000]()
PUBLIC 1c8d8 0 wrapFunction(unsigned long, tulip::hook::WrapperMetadata const&)
PUBLIC 1ca0c 0 geode::impl::ResultData<void*, std::__ndk1::basic_string<char, std::__ndk1::char_traits<char>, std::__ndk1::allocator<char> > >::unwrapErr() &
PUBLIC 1ca84 0 geode::impl::ResultData<void*, std::__ndk1::basic_string<char, std::__ndk1::char_traits<char>, std::__ndk1::allocator<char> > >::~ResultData()
PUBLIC 1caf8 0 tulip::hook::WrapperMetadata::~WrapperMetadata()
PUBLIC 1cb5c 0 cocos2d::CCObject::~CCObject()
PUBLIC 1cb80 0 cocos2d::CCNode::~CCNode()
PUBLIC 1cba4 0 {virtual override thunk({offset(-320)}, cocos2d::CCLayer::~CCLayer())}
PUBLIC 1cbac 0 cocos2d::CCLayer::~CCLayer()
PUBLIC 1cbd0 0 {virtual override thunk({offset(-320)}, cocos2d::CCLayer::~CCLayer())}
PUBLIC 1cbf8 0 cocos2d::CCLayerRGBA::~CCLayerRGBA()
PUBLIC 1ced0 0 {virtual override thunk({offset(-320)}, cocos2d::CCLayerRGBA::~CCLayerRGBA())}
PUBLIC 1ced8 0 cocos2d::CCLayerRGBA::~CCLayerRGBA()
PUBLIC 1cefc 0 {virtual override thunk({offset(-320)}, cocos2d::CCLayerRGBA::~CCLayerRGBA())}
PUBLIC 1cf24 0 cocos2d::CCLayerColor::CCLayerColor()
PUBLIC 1d174 0 {virtual override thunk({offset(-320)}, cocos2d::CCLayerColor::~CCLayerColor())}
PUBLIC 1d17c 0 cocos2d::CCLayerColor::~CCLayerColor()
PUBLIC 1d1a0 0 {virtual override thunk({offset(-320)}, cocos2d::CCLayerColor::~CCLayerColor())}
PUBLIC 1d1c8 0 {virtual override thunk({offset(-320)}, FLAlertLayer::~FLAlertLayer())}
PUBLIC 1d1d0 0 FLAlertLayer::~FLAlertLayer()
PUBLIC 1d1f4 0 {virtual override thunk({offset(-320)}, FLAlertLayer::~FLAlertLayer())}
PUBLIC 1d21c 0 cocos2d::CCObject::update(float)
PUBLIC 1d220 0 cocos2d::CCLayerColor::~CCLayerColor()
PUBLIC 1d4dc 0 FLAlertLayer::~FLAlertLayer()
PUBLIC 1d798 0 cocos2d::CCNode::~CCNode()
PUBLIC 1da10 0 cocos2d::CCLayer::~CCLayer()
PUBLIC 1dcd8 0 cocos2d::CCObject::~CCObject()
PUBLIC 1e1a4 0 _ZN5geode15UnwrapExceptionC2IRPvQsr4implE18IsStringStreamableIT_EEENS_4impl5OkTagEOS4_
PUBLIC 1e2f8 0 _ZN5geode15UnwrapExceptionC2IRNSt6__ndk112basic_stringIcNS2_11char_traitsIcEENS2_9allocatorIcEEEEQsr4implE18IsStringStreamableIT_EEENS_4impl6ErrTagEOSA_
PUBLIC 1e460 0 std::__ndk1::__variant_detail::__visitation::__base::__dispatcher<(unsigned long)0>::__dispatch[abi:ne180000]<std::__ndk1::__variant_detail::__dtor<std::__ndk1::__variant_detail::__traits<void*, std::__ndk1::basic_string<char, std::__ndk1::char_traits<char>, std::__ndk1::allocator<char> > >, (std::__ndk1::__variant_detail::_Trait)1>::__destroy[abi:ne180000]()::{lambda(auto:1&)#1}, std::__ndk1::__variant_detail::__base<(std::__ndk1::__variant_detail::__traits<void*, std::__ndk1::basic_string<char, std::__ndk1::char_traits<char>, std::__ndk1::allocator<char> > >)1, std::__ndk1::__variant_detail::__traits, std::__ndk1::allocator<char> >&>(std::__ndk1::__variant_detail::__dtor<std::__ndk1::__variant_detail::__traits<void*, std::__ndk1::basic_string<char, std::__ndk1::char_traits<char>, std::__ndk1::allocator<char> > >, (std::__ndk1::__variant_detail::_Trait)1>, std::__ndk1::__variant_detail::__base<(std::__ndk1::__variant_detail::__traits<void*, std::__ndk1::basic_string<char, std::__ndk1::char_traits<char>, std::__ndk1::allocator<char> > >)1, std::__ndk1::__variant_detail::__traits, std::__ndk1::allocator<char> >&)
PUBLIC 1e464 0 std::__ndk1::__variant_detail::__visitation::__base::__dispatcher<(unsigned long)1>::__dispatch[abi:ne180000]<std::__ndk1::__variant_detail::__dtor<std::__ndk1::__variant_detail::__traits<void*, std::__ndk1::basic_string<char, std::__ndk1::char_traits<char>, std::__ndk1::allocator<char> > >, (std::__ndk1::__variant_detail::_Trait)1>::__destroy[abi:ne180000]()::{lambda(auto:1&)#1}, std::__ndk1::__variant_detail::__base<(std::__ndk1::__variant_detail::__traits<void*, std::__ndk1::basic_string<char, std::__ndk1::char_traits<char>, std::__ndk1::allocator<char> > >)1, std::__ndk1::__variant_detail::__traits, std::__ndk1::allocator<char> >&>(std::__ndk1::__variant_detail::__dtor<std::__ndk1::__variant_detail::__traits<void*, std::__ndk1::basic_string<char, std::__ndk1::char_traits<char>, std::__ndk1::allocator<char> > >, (std::__ndk1::__variant_detail::_Trait)1>, std::__ndk1::__variant_detail::__base<(std::__ndk1::__variant_detail::__traits<void*, std::__ndk1::basic_string<char, std::__ndk1::char_traits<char>, std::__ndk1::allocator<char> > >)1, std::__ndk1::__variant_detail::__traits, std::__ndk1::allocator<char> >&)
PUBLIC 1e478 0 std::__ndk1::__hash_table<std::__ndk1::__hash_value_type<void*, bool>, std::__ndk1::__unordered_map_hasher<void*, std::__ndk1::__hash_value_type<void*, bool>, std::__ndk1::hash<void*>, std::__ndk1::equal_to<void*>, true>, std::__ndk1::__unordered_map_equal<void*, std::__ndk1::__hash_value_type<void*, bool>, std::__ndk1::equal_to<void*>, std::__ndk1::hash<void*>, true>, std::__ndk1::allocator<std::__ndk1::__hash_value_type<void*, bool> > >::__emplace_unique_key_args<void*, std::__ndk1::piecewise_construct_t const&, std::__ndk1::tuple<void* const&>, std::__ndk1::tuple<> >(void* const&, std::__ndk1::piecewise_construct_t const&, std::__ndk1::tuple<void* const&>, std::__ndk1::tuple<>)
PUBLIC 1e960 0 <.plt ELF section in iandyhd3.autosort_lists.android64.so>
STACK CFI INIT 13370 10 .cfa: sp 0 +
STACK CFI INIT 13380 8 .cfa: sp 0 +
STACK CFI INIT 13388 8 .cfa: sp 0 +
STACK CFI INIT 13390 14 .cfa: sp 0 +
STACK CFI INIT 133a4 1c .cfa: sp 0 +
STACK CFI INIT 133c0 10 .cfa: sp 0 +
STACK CFI INIT 133d0 134 .cfa: sp 0 +
STACK CFI INIT 13504 84 .cfa: sp 0 +
STACK CFI INIT 13588 f4 .cfa: sp 0 +
STACK CFI INIT 1367c a8 .cfa: sp 0 +
STACK CFI INIT 13724 7c .cfa: sp 0 +
STACK CFI INIT 137a0 14 .cfa: sp 0 +
STACK CFI INIT 137b4 40 .cfa: sp 0 +
STACK CFI INIT 137f4 28 .cfa: sp 0 +
STACK CFI INIT 1381c 190 .cfa: sp 0 +
STACK CFI INIT 139ac 2c8 .cfa: sp 0 +
STACK CFI INIT 13c74 8 .cfa: sp 0 +
STACK CFI INIT 13c7c 8 .cfa: sp 0 +
STACK CFI INIT 13c84 44 .cfa: sp 0 +
STACK CFI INIT 13cc8 e8 .cfa: sp 0 +
STACK CFI INIT 13db0 e8 .cfa: sp 0 +
STACK CFI INIT 13e98 14 .cfa: sp 0 +
STACK CFI INIT 13eac 10 .cfa: sp 0 +
STACK CFI INIT 13ebc 10 .cfa: sp 0 +
STACK CFI INIT 13ecc f0 .cfa: sp 0 +
STACK CFI INIT 13fbc 44 .cfa: sp 0 +
STACK CFI INIT 14000 c .cfa: sp 0 +
STACK CFI INIT 1400c c .cfa: sp 0 +
STACK CFI INIT 14018 2c .cfa: sp 0 +
STACK CFI INIT 14044 280 .cfa: sp 0 +
STACK CFI INIT 142c4 c .cfa: sp 0 +
STACK CFI INIT 142d0 120 .cfa: sp 0 +
STACK CFI INIT 143f0 488 .cfa: sp 0 +
STACK CFI INIT 14878 c48 .cfa: sp 0 +
STACK CFI INIT 154c0 134 .cfa: sp 0 +
STACK CFI INIT 155f4 210 .cfa: sp 0 +
STACK CFI INIT 15804 38c .cfa: sp 0 +
STACK CFI INIT 15b90 1c8 .cfa: sp 0 +
STACK CFI INIT 15d58 9bc .cfa: sp 0 +
STACK CFI INIT 16714 2d4 .cfa: sp 0 +
STACK CFI INIT 169e8 134 .cfa: sp 0 +
STACK CFI INIT 16b1c 120 .cfa: sp 0 +
STACK CFI INIT 16c3c 1c8 .cfa: sp 0 +
STACK CFI INIT 16e04 168 .cfa: sp 0 +
STACK CFI INIT 16f6c fc .cfa: sp 0 +
STACK CFI INIT 17068 30 .cfa: sp 0 +
STACK CFI INIT 171d0 30 .cfa: sp 0 +
STACK CFI INIT 17200 98 .cfa: sp 0 +
STACK CFI INIT 17298 59c .cfa: sp 0 +
STACK CFI INIT 17834 8c .cfa: sp 0 +
STACK CFI INIT 178c0 30 .cfa: sp 0 +
STACK CFI INIT 184c4 18 .cfa: sp 0 +
STACK CFI INIT 184dc 8 .cfa: sp 0 +
STACK CFI INIT 184e4 c .cfa: sp 0 +
STACK CFI INIT 184f0 2c .cfa: sp 0 +
STACK CFI INIT 186e8 150 .cfa: sp 0 +
STACK CFI INIT 18a04 c4 .cfa: sp 0 +
STACK CFI INIT 18f34 50 .cfa: sp 0 +
STACK CFI 18f38 .cfa: sp 32 +
STACK CFI 18f40 .cfa: x29 32 + x19: .cfa -16 + ^ .ra: .cfa -24 + ^ x29: .cfa -32 + ^
STACK CFI 18f58 .cfa: sp 32 +
STACK CFI 18f60 .cfa: sp 0 +
STACK CFI 18f64 .cfa: x29 32 +
STACK CFI 18f78 .cfa: sp 32 +
STACK CFI 18f80 .cfa: sp 0 +
STACK CFI INIT 18ff8 7c .cfa: sp 0 +
STACK CFI 18ffc .cfa: sp 48 +
STACK CFI 19008 .cfa: x29 48 + x19: .cfa -8 + ^ x20: .cfa -16 + ^ x21: .cfa -32 + ^ .ra: .cfa -40 + ^ x29: .cfa -48 + ^
STACK CFI 19054 .cfa: sp 48 +
STACK CFI 19060 .cfa: sp 0 +
STACK CFI 19064 .cfa: sp 48 +
STACK CFI 19070 .cfa: sp 0 +
STACK CFI INIT 19074 4 .cfa: sp 0 +
STACK CFI INIT 19078 10 .cfa: sp 0 +
STACK CFI 1907c .cfa: sp 16 +
STACK CFI 19080 .cfa: x29 16 + .ra: .cfa -8 + ^ x29: .cfa -16 + ^
STACK CFI INIT 191dc 34 .cfa: sp 0 +
STACK CFI 191e0 .cfa: sp 16 +
STACK CFI 191e4 .cfa: x29 16 + .ra: .cfa -8 + ^ x29: .cfa -16 + ^
STACK CFI INIT 1933c 80 .cfa: sp 0 +
STACK CFI 19340 .cfa: sp 48 +
STACK CFI 1934c .cfa: x29 48 + x19: .cfa -8 + ^ x20: .cfa -16 + ^ x21: .cfa -32 + ^ .ra: .cfa -40 + ^ x29: .cfa -48 + ^
STACK CFI 193ac .cfa: sp 48 +
STACK CFI 193b8 .cfa: sp 0 +
STACK CFI INIT 193bc 24 .cfa: sp 0 +
STACK CFI 193c0 .cfa: sp 32 +
STACK CFI 193c8 .cfa: x29 32 + x19: .cfa -16 + ^ .ra: .cfa -24 + ^ x29: .cfa -32 + ^
STACK CFI 193d4 .cfa: sp 32 +
STACK CFI 193dc .cfa: sp 0 +
STACK CFI INIT 19760 14 .cfa: sp 0 +
STACK CFI 19764 .cfa: sp 16 +
STACK CFI 19768 .cfa: x29 16 + .ra: .cfa -8 + ^ x29: .cfa -16 + ^
STACK CFI INIT 197c4 30 .cfa: sp 0 +
STACK CFI 197c8 .cfa: sp 32 +
STACK CFI 197d0 .cfa: x29 32 + x19: .cfa -16 + ^ .ra: .cfa -24 + ^ x29: .cfa -32 + ^
STACK CFI 197e8 .cfa: sp 32 +
STACK CFI 197f0 .cfa: sp 0 +
STACK CFI INIT 197f4 34 .cfa: sp 0 +
STACK CFI 197f8 .cfa: sp 32 +
STACK CFI 19800 .cfa: x29 32 + x19: .cfa -16 + ^ .ra: .cfa -24 + ^ x29: .cfa -32 + ^
STACK CFI INIT 199a0 148 .cfa: sp 0 +
STACK CFI 199a4 .cfa: sp 48 +
STACK CFI 199b0 .cfa: x29 48 + x19: .cfa -8 + ^ x20: .cfa -16 + ^ x21: .cfa -32 + ^ .ra: .cfa -40 + ^ x29: .cfa -48 + ^
STACK CFI 19ad8 .cfa: sp 48 +
STACK CFI 19ae4 .cfa: sp 0 +
STACK CFI INIT 19ae8 80 .cfa: sp 0 +
STACK CFI 19aec .cfa: sp 48 +
STACK CFI 19af8 .cfa: x29 48 + x19: .cfa -8 + ^ x20: .cfa -16 + ^ x21: .cfa -24 + ^ x22: .cfa -32 + ^ .ra: .cfa -40 + ^ x29: .cfa -48 + ^
STACK CFI 19b10 .cfa: sp 48 +
STACK CFI 19b1c .cfa: sp 0 +
STACK CFI 19b20 .cfa: x29 48 +
STACK CFI 19b50 .cfa: sp 48 +
STACK CFI 19b5c .cfa: sp 0 +
STACK CFI 19b60 .cfa: x29 48 +
STACK CFI INIT 19b68 68 .cfa: sp 0 +
STACK CFI 19b6c .cfa: sp 32 +
STACK CFI 19b74 .cfa: x29 32 + x19: .cfa -8 + ^ x20: .cfa -16 + ^ .ra: .cfa -24 + ^ x29: .cfa -32 + ^
STACK CFI 19b8c .cfa: sp 32 +
STACK CFI 19b94 .cfa: sp 0 +
STACK CFI 19b98 .cfa: x29 32 +
STACK CFI 19bc4 .cfa: sp 32 +
STACK CFI 19bcc .cfa: sp 0 +
STACK CFI INIT 19bd0 14 .cfa: sp 0 +
STACK CFI 19bd4 .cfa: sp 16 +
STACK CFI 19bd8 .cfa: x29 16 + .ra: .cfa -8 + ^ x29: .cfa -16 + ^
STACK CFI INIT 19be4 4 .cfa: sp 0 +
STACK CFI INIT 19be8 14 .cfa: sp 0 +
STACK CFI INIT 19bfc 84 .cfa: sp 0 +
STACK CFI 19c04 .cfa: sp 32 +
STACK CFI 19c0c .cfa: x29 32 + x19: .cfa -8 + ^ x20: .cfa -16 + ^ .ra: .cfa -24 + ^ x29: .cfa -32 + ^
STACK CFI 19c4c .cfa: sp 32 +
STACK CFI 19c54 .cfa: sp 0 +
STACK CFI 19c5c .cfa: x29 32 +
STACK CFI INIT 19e04 50 .cfa: sp 0 +
STACK CFI 19e08 .cfa: sp 32 +
STACK CFI 19e10 .cfa: x29 32 + x19: .cfa -16 + ^ .ra: .cfa -24 + ^ x29: .cfa -32 + ^
STACK CFI 19e28 .cfa: sp 32 +
STACK CFI 19e30 .cfa: sp 0 +
STACK CFI 19e34 .cfa: x29 32 +
STACK CFI 19e48 .cfa: sp 32 +
STACK CFI 19e50 .cfa: sp 0 +
STACK CFI INIT 19e54 64 .cfa: sp 0 +
STACK CFI 19e58 .cfa: sp 32 +
STACK CFI 19e60 .cfa: x29 32 + x19: .cfa -16 + ^ .ra: .cfa -24 + ^ x29: .cfa -32 + ^
STACK CFI 19e8c .cfa: sp 32 +
STACK CFI 19e94 .cfa: sp 0 +
STACK CFI 19e98 .cfa: x29 32 +
STACK CFI 19eac .cfa: sp 32 +
STACK CFI 19eb4 .cfa: sp 0 +
STACK CFI INIT 1a218 8 .cfa: sp 0 +
STACK CFI INIT 1a398 2c .cfa: sp 0 +
STACK CFI 1a39c .cfa: sp 32 +
STACK CFI 1a3a4 .cfa: x29 32 + x19: .cfa -16 + ^ .ra: .cfa -24 + ^ x29: .cfa -32 + ^
STACK CFI 1a3b8 .cfa: sp 32 +
STACK CFI 1a3c0 .cfa: sp 0 +
STACK CFI INIT 1a3c4 28 .cfa: sp 0 +
STACK CFI INIT 1a3ec 4 .cfa: sp 0 +
STACK CFI INIT 1a3f0 8 .cfa: sp 0 +
STACK CFI INIT 1b0a4 2c .cfa: sp 0 +
STACK CFI INIT 1b0d0 4 .cfa: sp 0 +
STACK CFI INIT 1b0d4 4 .cfa: sp 0 +
STACK CFI INIT 1b0d8 4 .cfa: sp 0 +
STACK CFI INIT 1b0dc 4 .cfa: sp 0 +
STACK CFI INIT 1b0e0 4 .cfa: sp 0 +
STACK CFI INIT 1b0e4 8 .cfa: sp 0 +
STACK CFI INIT 1b158 4 .cfa: sp 0 +
STACK CFI INIT 1b1c8 4 .cfa: sp 0 +
STACK CFI INIT 1b690 84 .cfa: sp 0 +
STACK CFI 1b694 .cfa: sp 48 +
STACK CFI 1b6a0 .cfa: x29 48 + x19: .cfa -8 + ^ x20: .cfa -16 + ^ x21: .cfa -24 + ^ x22: .cfa -32 + ^ .ra: .cfa -40 + ^ x29: .cfa -48 + ^
STACK CFI 1b704 .cfa: sp 48 +
STACK CFI 1b710 .cfa: sp 0 +
STACK CFI INIT 1b730 14 .cfa: sp 0 +
STACK CFI 1b734 .cfa: sp 16 +
STACK CFI 1b738 .cfa: x29 16 + .ra: .cfa -8 + ^ x29: .cfa -16 + ^
STACK CFI INIT 1b744 8ec .cfa: sp 0 +
STACK CFI 1b748 .cfa: sp 128 +
STACK CFI 1b764 .cfa: x29 96 + x19: .cfa -8 + ^ x20: .cfa -16 + ^ x21: .cfa -24 + ^ x22: .cfa -32 + ^ x23: .cfa -40 + ^ x24: .cfa -48 + ^ x25: .cfa -56 + ^ x26: .cfa -64 + ^ x27: .cfa -72 + ^ x28: .cfa -80 + ^ .ra: .cfa -88 + ^ x29: .cfa -96 + ^
STACK CFI 1bb6c .cfa: sp 128 +
STACK CFI 1bb88 .cfa: sp 0 +
STACK CFI 1bb8c .cfa: x29 96 +
STACK CFI 1bbd0 .cfa: sp 128 +
STACK CFI 1bbec .cfa: sp 0 +
STACK CFI 1bbf0 .cfa: x29 96 +
STACK CFI 1bfa8 .cfa: sp 128 +
STACK CFI 1bfc4 .cfa: sp 0 +
STACK CFI 1bfc8 .cfa: x29 96 +
STACK CFI INIT 1c030 138 .cfa: sp 0 +
STACK CFI 1c034 .cfa: sp 64 +
STACK CFI 1c044 .cfa: x29 64 + x19: .cfa -8 + ^ x20: .cfa -16 + ^ x21: .cfa -24 + ^ x22: .cfa -32 + ^ x23: .cfa -48 + ^ .ra: .cfa -56 + ^ x29: .cfa -64 + ^
STACK CFI 1c0b0 .cfa: sp 64 +
STACK CFI 1c0c0 .cfa: sp 0 +
STACK CFI 1c0c4 .cfa: x29 64 +
STACK CFI 1c108 .cfa: sp 64 +
STACK CFI 1c118 .cfa: sp 0 +
STACK CFI 1c11c .cfa: x29 64 +
STACK CFI 1c154 .cfa: sp 64 +
STACK CFI 1c164 .cfa: sp 0 +
STACK CFI INIT 1c168 26c .cfa: sp 0 +
STACK CFI 1c16c .cfa: sp 80 +
STACK CFI 1c180 .cfa: x29 80 + x19: .cfa -8 + ^ x20: .cfa -16 + ^ x21: .cfa -24 + ^ x22: .cfa -32 + ^ x23: .cfa -40 + ^ x24: .cfa -48 + ^ x25: .cfa -56 + ^ x26: .cfa -64 + ^ .ra: .cfa -72 + ^ x29: .cfa -80 + ^
STACK CFI 1c398 .cfa: sp 80 +
STACK CFI 1c3ac .cfa: sp 0 +
STACK CFI 1c3b0 .cfa: x29 80 +
STACK CFI 1c3bc .cfa: sp 80 +
STACK CFI 1c3d0 .cfa: sp 0 +
STACK CFI INIT 1c3d4 198 .cfa: sp 0 +
STACK CFI 1c3d8 .cfa: sp 64 +
STACK CFI 1c3e8 .cfa: x29 64 + x19: .cfa -8 + ^ x20: .cfa -16 + ^ x21: .cfa -24 + ^ x22: .cfa -32 + ^ x23: .cfa -40 + ^ x24: .cfa -48 + ^ .ra: .cfa -56 + ^ x29: .cfa -64 + ^
STACK CFI 1c558 .cfa: sp 64 +
STACK CFI 1c568 .cfa: sp 0 +
STACK CFI INIT 1c588 60 .cfa: sp 0 +
STACK CFI 1c58c .cfa: sp 32 +
STACK CFI 1c594 .cfa: x29 32 + x19: .cfa -8 + ^ x20: .cfa -16 + ^ .ra: .cfa -24 + ^ x29: .cfa -32 + ^
STACK CFI 1c5b4 .cfa: sp 32 +
STACK CFI 1c5bc .cfa: sp 0 +
STACK CFI 1c5c0 .cfa: x29 32 +
STACK CFI 1c5dc .cfa: sp 32 +
STACK CFI 1c5e4 .cfa: sp 0 +
STACK CFI INIT 1c5e8 70 .cfa: sp 0 +
STACK CFI 1c5ec .cfa: sp 32 +
STACK CFI 1c5f4 .cfa: x29 32 + x19: .cfa -8 + ^ x20: .cfa -16 + ^ .ra: .cfa -24 + ^ x29: .cfa -32 + ^
STACK CFI 1c61c .cfa: sp 32 +
STACK CFI 1c624 .cfa: sp 0 +
STACK CFI 1c628 .cfa: x29 32 +
STACK CFI 1c64c .cfa: sp 32 +
STACK CFI 1c654 .cfa: sp 0 +
STACK CFI INIT 1c658 10 .cfa: sp 0 +
STACK CFI INIT 1c668 30 .cfa: sp 0 +
STACK CFI 1c66c .cfa: sp 32 +
STACK CFI 1c674 .cfa: x29 32 + x19: .cfa -16 + ^ .ra: .cfa -24 + ^ x29: .cfa -32 + ^
STACK CFI 1c68c .cfa: sp 32 +
STACK CFI 1c694 .cfa: sp 0 +
STACK CFI INIT 1c698 4 .cfa: sp 0 +
STACK CFI INIT 1c69c 4 .cfa: sp 0 +
STACK CFI INIT 1c6a0 1b0 .cfa: sp 0 +
STACK CFI INIT 1c850 3c .cfa: sp 0 +
STACK CFI 1c854 .cfa: sp 32 +
STACK CFI 1c85c .cfa: x29 32 + x19: .cfa -16 + ^ .ra: .cfa -24 + ^ x29: .cfa -32 + ^
STACK CFI 1c868 .cfa: sp 32 +
STACK CFI 1c870 .cfa: sp 0 +
STACK CFI 1c874 .cfa: x29 32 +
STACK CFI 1c880 .cfa: sp 32 +
STACK CFI 1c888 .cfa: sp 0 +
STACK CFI INIT 1c88c 4c .cfa: sp 0 +
STACK CFI 1c890 .cfa: sp 32 +
STACK CFI 1c898 .cfa: x29 32 + x19: .cfa -8 + ^ x20: .cfa -16 + ^ .ra: .cfa -24 + ^ x29: .cfa -32 + ^
STACK CFI 1c8c0 .cfa: sp 32 +
STACK CFI 1c8c8 .cfa: sp 0 +
STACK CFI 1c8cc .cfa: sp 32 +
STACK CFI 1c8d4 .cfa: sp 0 +
STACK CFI INIT 1caf8 64 .cfa: sp 0 +
STACK CFI 1cafc .cfa: sp 32 +
STACK CFI 1cb04 .cfa: x29 32 + x19: .cfa -16 + ^ .ra: .cfa -24 + ^ x29: .cfa -32 + ^
STACK CFI 1cb30 .cfa: sp 32 +
STACK CFI 1cb38 .cfa: sp 0 +
STACK CFI 1cb3c .cfa: x29 32 +
STACK CFI 1cb50 .cfa: sp 32 +
STACK CFI 1cb58 .cfa: sp 0 +
STACK CFI INIT 1cb5c 24 .cfa: sp 0 +
STACK CFI 1cb60 .cfa: sp 32 +
STACK CFI 1cb68 .cfa: x29 32 + x19: .cfa -16 + ^ .ra: .cfa -24 + ^ x29: .cfa -32 + ^
STACK CFI 1cb74 .cfa: sp 32 +
STACK CFI 1cb7c .cfa: sp 0 +
STACK CFI INIT 1cb80 24 .cfa: sp 0 +
STACK CFI 1cb84 .cfa: sp 32 +
STACK CFI 1cb8c .cfa: x29 32 + x19: .cfa -16 + ^ .ra: .cfa -24 + ^ x29: .cfa -32 + ^
STACK CFI 1cb98 .cfa: sp 32 +
STACK CFI 1cba0 .cfa: sp 0 +
STACK CFI INIT 1cba4 8 .cfa: sp 0 +
STACK CFI INIT 1cbac 24 .cfa: sp 0 +
STACK CFI 1cbb0 .cfa: sp 32 +
STACK CFI 1cbb8 .cfa: x29 32 + x19: .cfa -16 + ^ .ra: .cfa -24 + ^ x29: .cfa -32 + ^
STACK CFI 1cbc4 .cfa: sp 32 +
STACK CFI 1cbcc .cfa: sp 0 +
STACK CFI INIT 1cbd0 28 .cfa: sp 0 +
STACK CFI 1cbd4 .cfa: sp 32 +
STACK CFI 1cbdc .cfa: x29 32 + x19: .cfa -16 + ^ .ra: .cfa -24 + ^ x29: .cfa -32 + ^
STACK CFI 1cbec .cfa: sp 32 +
STACK CFI 1cbf4 .cfa: sp 0 +
STACK CFI INIT 1ced0 8 .cfa: sp 0 +
STACK CFI INIT 1ced8 24 .cfa: sp 0 +
STACK CFI 1cedc .cfa: sp 32 +
STACK CFI 1cee4 .cfa: x29 32 + x19: .cfa -16 + ^ .ra: .cfa -24 + ^ x29: .cfa -32 + ^
STACK CFI 1cef0 .cfa: sp 32 +
STACK CFI 1cef8 .cfa: sp 0 +
STACK CFI INIT 1cefc 28 .cfa: sp 0 +
STACK CFI 1cf00 .cfa: sp 32 +
STACK CFI 1cf08 .cfa: x29 32 + x19: .cfa -16 + ^ .ra: .cfa -24 + ^ x29: .cfa -32 + ^
STACK CFI 1cf18 .cfa: sp 32 +
STACK CFI 1cf20 .cfa: sp 0 +
STACK CFI INIT 1d174 8 .cfa: sp 0 +
STACK CFI INIT 1d17c 24 .cfa: sp 0 +
STACK CFI 1d180 .cfa: sp 32 +
STACK CFI 1d188 .cfa: x29 32 + x19: .cfa -16 + ^ .ra: .cfa -24 + ^ x29: .cfa -32 + ^
STACK CFI 1d194 .cfa: sp 32 +
STACK CFI 1d19c .cfa: sp 0 +
STACK CFI INIT 1d1a0 28 .cfa: sp 0 +
STACK CFI 1d1a4 .cfa: sp 32 +
STACK CFI 1d1ac .cfa: x29 32 + x19: .cfa -16 + ^ .ra: .cfa -24 + ^ x29: .cfa -32 + ^
STACK CFI 1d1bc .cfa: sp 32 +
STACK CFI 1d1c4 .cfa: sp 0 +
STACK CFI INIT 1d1c8 8 .cfa: sp 0 +
STACK CFI INIT 1d1d0 24 .cfa: sp 0 +
STACK CFI 1d1d4 .cfa: sp 32 +
STACK CFI 1d1dc .cfa: x29 32 + x19: .cfa -16 + ^ .ra: .cfa -24 + ^ x29: .cfa -32 + ^
STACK CFI 1d1e8 .cfa: sp 32 +
STACK CFI 1d1f0 .cfa: sp 0 +
STACK CFI INIT 1d1f4 28 .cfa: sp 0 +
STACK CFI 1d1f8 .cfa: sp 32 +
STACK CFI 1d200 .cfa: x29 32 + x19: .cfa -16 + ^ .ra: .cfa -24 + ^ x29: .cfa -32 + ^
STACK CFI 1d210 .cfa: sp 32 +
STACK CFI 1d218 .cfa: sp 0 +
STACK CFI INIT 1d21c 4 .cfa: sp 0 +
STACK CFI INIT 1e460 4 .cfa: sp 0 +
STACK CFI INIT 1e464 14 .cfa: sp 0 +
STACK CFI INIT 178f0 bd4 .cfa: sp 0 +
STACK CFI 178f4 .cfa: sp 240 +
STACK CFI 17910 .cfa: x29 96 + x19: .cfa -8 + ^ x20: .cfa -16 + ^ x21: .cfa -24 + ^ x22: .cfa -32 + ^ x23: .cfa -40 + ^ x24: .cfa -48 + ^ x25: .cfa -56 + ^ x26: .cfa -64 + ^ x27: .cfa -72 + ^ x28: .cfa -80 + ^ .ra: .cfa -88 + ^ x29: .cfa -96 + ^
STACK CFI 17cec .cfa: sp 240 +
STACK CFI 17d08 .cfa: sp 0 +
STACK CFI 17d0c .cfa: x29 96 +
STACK CFI 1836c .cfa: sp 240 +
STACK CFI 18388 .cfa: sp 0 +
STACK CFI 1838c .cfa: x29 96 +
STACK CFI INIT 1851c 1cc .cfa: sp 0 +
STACK CFI 18520 .cfa: sp 176 +
STACK CFI 18534 .cfa: x29 64 + x19: .cfa -8 + ^ x20: .cfa -16 + ^ x21: .cfa -24 + ^ x22: .cfa -32 + ^ x23: .cfa -40 + ^ x24: .cfa -48 + ^ .ra: .cfa -56 + ^ x29: .cfa -64 + ^
STACK CFI 1860c .cfa: sp 176 +
STACK CFI 18620 .cfa: sp 0 +
STACK CFI 18624 .cfa: x29 64 +
STACK CFI INIT 18838 1cc .cfa: sp 0 +
STACK CFI 1883c .cfa: sp 176 +
STACK CFI 18850 .cfa: x29 64 + x19: .cfa -8 + ^ x20: .cfa -16 + ^ x21: .cfa -24 + ^ x22: .cfa -32 + ^ x23: .cfa -40 + ^ x24: .cfa -48 + ^ .ra: .cfa -56 + ^ x29: .cfa -64 + ^
STACK CFI 18928 .cfa: sp 176 +
STACK CFI 1893c .cfa: sp 0 +
STACK CFI 18940 .cfa: x29 64 +
STACK CFI INIT 18ac8 46c .cfa: sp 0 +
STACK CFI 18acc .cfa: sp 240 +
STACK CFI 18ae8 .cfa: x29 96 + x19: .cfa -8 + ^ x20: .cfa -16 + ^ x21: .cfa -24 + ^ x22: .cfa -32 + ^ x23: .cfa -40 + ^ x24: .cfa -48 + ^ x25: .cfa -56 + ^ x26: .cfa -64 + ^ x27: .cfa -80 + ^ .ra: .cfa -88 + ^ x29: .cfa -96 + ^
STACK CFI 18e04 .cfa: sp 240 +
STACK CFI 18e20 .cfa: sp 0 +
STACK CFI 18e24 .cfa: x29 96 +
STACK CFI INIT 18f84 74 .cfa: sp 0 +
STACK CFI 18f88 .cfa: sp 48 +
STACK CFI 18f94 .cfa: x29 32 + x19: .cfa -8 + ^ x20: .cfa -16 + ^ .ra: .cfa -24 + ^ x29: .cfa -32 + ^
STACK CFI 18fe0 .cfa: sp 48 +
STACK CFI 18fec .cfa: sp 0 +
STACK CFI 18ff0 .cfa: x29 32 +
STACK CFI INIT 19088 154 .cfa: sp 0 +
STACK CFI 1908c .cfa: sp 384 +
STACK CFI 190a0 .cfa: x29 64 + x19: .cfa -8 + ^ x20: .cfa -16 + ^ x21: .cfa -24 + ^ x22: .cfa -32 + ^ x23: .cfa -40 + ^ x28: .cfa -48 + ^ .ra: .cfa -56 + ^ x29: .cfa -64 + ^
STACK CFI 19184 .cfa: sp 384 +
STACK CFI 19198 .cfa: sp 0 +
STACK CFI 1919c .cfa: x29 64 +
STACK CFI INIT 19210 12c .cfa: sp 0 +
STACK CFI 19214 .cfa: sp 80 +
STACK CFI 19228 .cfa: x29 80 + x19: .cfa -8 + ^ x20: .cfa -16 + ^ x21: .cfa -24 + ^ x22: .cfa -32 + ^ x23: .cfa -40 + ^ x24: .cfa -48 + ^ x25: .cfa -56 + ^ x26: .cfa -64 + ^ .ra: .cfa -72 + ^ x29: .cfa -80 + ^
STACK CFI 192f0 .cfa: sp 80 +
STACK CFI 19304 .cfa: sp 0 +
STACK CFI 19308 .cfa: x29 80 +
STACK CFI INIT 193e0 1a4 .cfa: sp 0 +
STACK CFI 193e4 .cfa: sp 112 +
STACK CFI 193fc .cfa: x29 80 + x19: .cfa -8 + ^ x20: .cfa -16 + ^ x21: .cfa -24 + ^ x22: .cfa -32 + ^ x23: .cfa -40 + ^ x24: .cfa -48 + ^ x25: .cfa -56 + ^ x26: .cfa -64 + ^ .ra: .cfa -72 + ^ x29: .cfa -80 + ^
STACK CFI 194ec .cfa: sp 112 +
STACK CFI 19504 .cfa: sp 0 +
STACK CFI 19508 .cfa: x29 80 +
STACK CFI INIT 19584 1dc .cfa: sp 0 +
STACK CFI 19588 .cfa: sp 128 +
STACK CFI 195a4 .cfa: x29 96 + x19: .cfa -8 + ^ x20: .cfa -16 + ^ x21: .cfa -24 + ^ x22: .cfa -32 + ^ x23: .cfa -40 + ^ x24: .cfa -48 + ^ x25: .cfa -56 + ^ x26: .cfa -64 + ^ x27: .cfa -80 + ^ .ra: .cfa -88 + ^ x29: .cfa -96 + ^
STACK CFI 19710 .cfa: sp 128 +
STACK CFI 1972c .cfa: sp 0 +
STACK CFI 19730 .cfa: x29 96 +
STACK CFI INIT 19774 50 .cfa: sp 0 +
STACK CFI 19778 .cfa: sp 32 +
STACK CFI 19780 .cfa: x29 32 + x19: .cfa -8 + ^ x20: .cfa -16 + ^ .ra: .cfa -24 + ^ x29: .cfa -32 + ^
STACK CFI INIT 19828 178 .cfa: sp 0 +
STACK CFI 1982c .cfa: sp 80 +
STACK CFI 19840 .cfa: x29 80 + x19: .cfa -8 + ^ x20: .cfa -16 + ^ x21: .cfa -24 + ^ x22: .cfa -32 + ^ x23: .cfa -40 + ^ x24: .cfa -48 + ^ x25: .cfa -64 + ^ .ra: .cfa -72 + ^ x29: .cfa -80 + ^
STACK CFI 1996c .cfa: sp 80 +
STACK CFI 19980 .cfa: sp 0 +
STACK CFI 19984 .cfa: x29 80 +
STACK CFI INIT 19c80 184 .cfa: sp 0 +
STACK CFI 19c84 .cfa: sp 96 +
STACK CFI 19c98 .cfa: x29 64 + x19: .cfa -8 + ^ x20: .cfa -16 + ^ x21: .cfa -24 + ^ x22: .cfa -32 + ^ x23: .cfa -48 + ^ .ra: .cfa -56 + ^ x29: .cfa -64 + ^
STACK CFI 19dbc .cfa: sp 96 +
STACK CFI 19dd0 .cfa: sp 0 +
STACK CFI 19dd4 .cfa: x29 64 +
STACK CFI INIT 19eb8 360 .cfa: sp 0 +
STACK CFI 19ebc .cfa: sp 96 +
STACK CFI 19ecc .cfa: x29 48 + x19: .cfa -8 + ^ x20: .cfa -16 + ^ x21: .cfa -24 + ^ x22: .cfa -32 + ^ .ra: .cfa -40 + ^ x29: .cfa -48 + ^
STACK CFI 1a1cc .cfa: sp 96 +
STACK CFI 1a1dc .cfa: sp 0 +
STACK CFI 1a1e0 .cfa: x29 48 +
STACK CFI INIT 1a220 b8 .cfa: sp 0 +
STACK CFI 1a224 .cfa: sp 32 +
STACK CFI 1a22c .cfa: x29 32 + x19: .cfa -16 + ^ .ra: .cfa -24 + ^ x29: .cfa -32 + ^
STACK CFI 1a2c8 .cfa: sp 32 +
STACK CFI 1a2d0 .cfa: sp 0 +
STACK CFI 1a2d4 .cfa: x29 32 +
STACK CFI INIT 1a2d8 c0 .cfa: sp 0 +
STACK CFI 1a2dc .cfa: sp 32 +
STACK CFI 1a2e4 .cfa: x29 32 + x19: .cfa -16 + ^ .ra: .cfa -24 + ^ x29: .cfa -32 + ^
STACK CFI 1a388 .cfa: sp 32 +
STACK CFI 1a390 .cfa: sp 0 +
STACK CFI 1a394 .cfa: x29 32 +
STACK CFI INIT 1a3f8 9e4 .cfa: sp 0 +
STACK CFI 1a3fc .cfa: sp 208 +
STACK CFI 1a424 .cfa: x29 96 + x19: .cfa -8 + ^ x20: .cfa -16 + ^ x21: .cfa -24 + ^ x22: .cfa -32 + ^ x23: .cfa -40 + ^ x24: .cfa -48 + ^ x25: .cfa -56 + ^ x26: .cfa -64 + ^ x27: .cfa -72 + ^ x28: .cfa -80 + ^ .ra: .cfa -88 + ^ x29: .cfa -96 + ^ v8: .cfa -104 + ^ v9: .cfa -112 + ^ v10: .cfa -120 + ^ v11: .cfa -128 + ^ v12: .cfa -144 + ^
STACK CFI 1aad8 .cfa: sp 208 +
STACK CFI 1ab00 .cfa: sp 0 +
STACK CFI 1ab04 .cfa: x29 96 +
STACK CFI INIT 1addc 148 .cfa: sp 0 +
STACK CFI 1ade0 .cfa: sp 96 +
STACK CFI 1adf0 .cfa: x29 48 + x19: .cfa -8 + ^ x20: .cfa -16 + ^ x21: .cfa -32 + ^ .ra: .cfa -40 + ^ x29: .cfa -48 + ^
STACK CFI 1aed8 .cfa: sp 96 +
STACK CFI 1aee8 .cfa: sp 0 +
STACK CFI 1aeec .cfa: x29 48 +
STACK CFI INIT 1af24 bc .cfa: sp 0 +
STACK CFI 1af28 .cfa: sp 32 +
STACK CFI 1af30 .cfa: x29 32 + x19: .cfa -8 + ^ x20: .cfa -16 + ^ .ra: .cfa -24 + ^ x29: .cfa -32 + ^
STACK CFI 1afd0 .cfa: sp 32 +
STACK CFI 1afd8 .cfa: sp 0 +
STACK CFI 1afdc .cfa: x29 32 +
STACK CFI INIT 1afe0 c4 .cfa: sp 0 +
STACK CFI 1afe4 .cfa: sp 32 +
STACK CFI 1afec .cfa: x29 32 + x19: .cfa -8 + ^ x20: .cfa -16 + ^ .ra: .cfa -24 + ^ x29: .cfa -32 + ^
STACK CFI 1b094 .cfa: sp 32 +
STACK CFI 1b09c .cfa: sp 0 +
STACK CFI 1b0a0 .cfa: x29 32 +
STACK CFI INIT 1b0ec 6c .cfa: sp 0 +
STACK CFI 1b0f0 .cfa: sp 32 +
STACK CFI 1b0f8 .cfa: x29 32 + x19: .cfa -16 + ^ .ra: .cfa -24 + ^ x29: .cfa -32 + ^
STACK CFI 1b148 .cfa: sp 32 +
STACK CFI 1b150 .cfa: sp 0 +
STACK CFI 1b154 .cfa: x29 32 +
STACK CFI INIT 1b15c 6c .cfa: sp 0 +
STACK CFI 1b160 .cfa: sp 32 +
STACK CFI 1b168 .cfa: x29 32 + x19: .cfa -16 + ^ .ra: .cfa -24 + ^ x29: .cfa -32 + ^
STACK CFI 1b1b8 .cfa: sp 32 +
STACK CFI 1b1c0 .cfa: sp 0 +
STACK CFI 1b1c4 .cfa: x29 32 +
STACK CFI INIT 1b1cc 4c4 .cfa: sp 0 +
STACK CFI 1b1d0 .cfa: sp 144 +
STACK CFI 1b1ec .cfa: x29 96 + x19: .cfa -8 + ^ x20: .cfa -16 + ^ x21: .cfa -24 + ^ x22: .cfa -32 + ^ x23: .cfa -40 + ^ x24: .cfa -48 + ^ x25: .cfa -56 + ^ x26: .cfa -64 + ^ x27: .cfa -72 + ^ x28: .cfa -80 + ^ .ra: .cfa -88 + ^ x29: .cfa -96 + ^
STACK CFI 1b5e8 .cfa: sp 144 +
STACK CFI 1b604 .cfa: sp 0 +
STACK CFI 1b608 .cfa: x29 96 +
STACK CFI INIT 1b714 1c .cfa: sp 0 +
STACK CFI 1b718 .cfa: sp 16 +
STACK CFI 1b71c .cfa: x29 16 + .ra: .cfa -8 + ^ x29: .cfa -16 + ^
STACK CFI 1b724 .cfa: sp 16 +
STACK CFI 1b728 .cfa: sp 0 +
STACK CFI 1b72c .cfa: x29 16 +
STACK CFI INIT 1c56c 1c .cfa: sp 0 +
STACK CFI 1c570 .cfa: sp 16 +
STACK CFI 1c574 .cfa: x29 16 + .ra: .cfa -8 + ^ x29: .cfa -16 + ^
STACK CFI 1c57c .cfa: sp 16 +
STACK CFI 1c580 .cfa: sp 0 +
STACK CFI 1c584 .cfa: x29 16 +
STACK CFI INIT 1c8d8 134 .cfa: sp 0 +
STACK CFI 1c8dc .cfa: sp 80 +
STACK CFI 1c8e8 .cfa: x29 32 + x19: .cfa -8 + ^ x20: .cfa -16 + ^ .ra: .cfa -24 + ^ x29: .cfa -32 + ^
STACK CFI 1c918 .cfa: sp 80 +
STACK CFI 1c924 .cfa: sp 0 +
STACK CFI 1c928 .cfa: x29 32 +
STACK CFI INIT 1ca0c 78 .cfa: sp 0 +
STACK CFI 1ca10 .cfa: sp 32 +
STACK CFI 1ca18 .cfa: x29 32 + x19: .cfa -8 + ^ x20: .cfa -16 + ^ .ra: .cfa -24 + ^ x29: .cfa -32 + ^
STACK CFI 1ca24 .cfa: sp 32 +
STACK CFI 1ca2c .cfa: sp 0 +
STACK CFI 1ca30 .cfa: x29 32 +
STACK CFI INIT 1ca84 74 .cfa: sp 0 +
STACK CFI 1ca88 .cfa: sp 48 +
STACK CFI 1ca94 .cfa: x29 32 + x19: .cfa -8 + ^ x20: .cfa -16 + ^ .ra: .cfa -24 + ^ x29: .cfa -32 + ^
STACK CFI 1cae0 .cfa: sp 48 +
STACK CFI 1caec .cfa: sp 0 +
STACK CFI 1caf0 .cfa: x29 32 +
STACK CFI INIT 1cbf8 2d8 .cfa: sp 0 +
STACK CFI 1cbfc .cfa: sp 128 +
STACK CFI 1cc10 .cfa: x29 64 + x19: .cfa -8 + ^ x20: .cfa -16 + ^ x21: .cfa -24 + ^ x22: .cfa -32 + ^ x23: .cfa -48 + ^ .ra: .cfa -56 + ^ x29: .cfa -64 + ^
STACK CFI 1cd7c .cfa: sp 128 +
STACK CFI 1cd90 .cfa: sp 0 +
STACK CFI 1cd94 .cfa: x29 64 +
STACK CFI INIT 1cf24 250 .cfa: sp 0 +
STACK CFI 1cf28 .cfa: sp 112 +
STACK CFI 1cf38 .cfa: x29 48 + x19: .cfa -8 + ^ x20: .cfa -16 + ^ x21: .cfa -32 + ^ .ra: .cfa -40 + ^ x29: .cfa -48 + ^
STACK CFI 1d01c .cfa: sp 112 +
STACK CFI 1d02c .cfa: sp 0 +
STACK CFI 1d030 .cfa: x29 48 +
STACK CFI INIT 1d220 2bc .cfa: sp 0 +
STACK CFI 1d224 .cfa: sp 128 +
STACK CFI 1d238 .cfa: x29 64 + x19: .cfa -8 + ^ x20: .cfa -16 + ^ x21: .cfa -24 + ^ x22: .cfa -32 + ^ x23: .cfa -48 + ^ .ra: .cfa -56 + ^ x29: .cfa -64 + ^
STACK CFI 1d388 .cfa: sp 128 +
STACK CFI 1d39c .cfa: sp 0 +
STACK CFI 1d3a0 .cfa: x29 64 +
STACK CFI INIT 1d4dc 2bc .cfa: sp 0 +
STACK CFI 1d4e0 .cfa: sp 128 +
STACK CFI 1d4f4 .cfa: x29 64 + x19: .cfa -8 + ^ x20: .cfa -16 + ^ x21: .cfa -24 + ^ x22: .cfa -32 + ^ x23: .cfa -48 + ^ .ra: .cfa -56 + ^ x29: .cfa -64 + ^
STACK CFI 1d644 .cfa: sp 128 +
STACK CFI 1d658 .cfa: sp 0 +
STACK CFI 1d65c .cfa: x29 64 +
STACK CFI INIT 1d798 278 .cfa: sp 0 +
STACK CFI 1d79c .cfa: sp 128 +
STACK CFI 1d7b0 .cfa: x29 64 + x19: .cfa -8 + ^ x20: .cfa -16 + ^ x21: .cfa -24 + ^ x22: .cfa -32 + ^ x23: .cfa -48 + ^ .ra: .cfa -56 + ^ x29: .cfa -64 + ^
STACK CFI 1d8bc .cfa: sp 128 +
STACK CFI 1d8d0 .cfa: sp 0 +
STACK CFI 1d8d4 .cfa: x29 64 +
STACK CFI INIT 1da10 2c8 .cfa: sp 0 +
STACK CFI 1da14 .cfa: sp 128 +
STACK CFI 1da28 .cfa: x29 64 + x19: .cfa -8 + ^ x20: .cfa -16 + ^ x21: .cfa -24 + ^ x22: .cfa -32 + ^ x23: .cfa -48 + ^ .ra: .cfa -56 + ^ x29: .cfa -64 + ^
STACK CFI 1db84 .cfa: sp 128 +
STACK CFI 1db98 .cfa: sp 0 +
STACK CFI 1db9c .cfa: x29 64 +
STACK CFI INIT 1dcd8 4cc .cfa: sp 0 +
STACK CFI 1dcdc .cfa: sp 128 +
STACK CFI 1dcf0 .cfa: x29 64 + x19: .cfa -8 + ^ x20: .cfa -16 + ^ x21: .cfa -24 + ^ x22: .cfa -32 + ^ x23: .cfa -48 + ^ .ra: .cfa -56 + ^ x29: .cfa -64 + ^
STACK CFI 1dffc .cfa: sp 128 +
STACK CFI 1e010 .cfa: sp 0 +
STACK CFI 1e014 .cfa: x29 64 +
STACK CFI INIT 1e1a4 154 .cfa: sp 0 +
STACK CFI 1e1a8 .cfa: sp 384 +
STACK CFI 1e1bc .cfa: x29 64 + x19: .cfa -8 + ^ x20: .cfa -16 + ^ x21: .cfa -24 + ^ x22: .cfa -32 + ^ x23: .cfa -40 + ^ x28: .cfa -48 + ^ .ra: .cfa -56 + ^ x29: .cfa -64 + ^
STACK CFI 1e2a0 .cfa: sp 384 +
STACK CFI 1e2b4 .cfa: sp 0 +
STACK CFI 1e2b8 .cfa: x29 64 +
STACK CFI INIT 1e2f8 168 .cfa: sp 0 +
STACK CFI 1e2fc .cfa: sp 384 +
STACK CFI 1e310 .cfa: x29 64 + x19: .cfa -8 + ^ x20: .cfa -16 + ^ x21: .cfa -24 + ^ x22: .cfa -32 + ^ x23: .cfa -40 + ^ x28: .cfa -48 + ^ .ra: .cfa -56 + ^ x29: .cfa -64 + ^
STACK CFI 1e408 .cfa: sp 384 +
STACK CFI 1e41c .cfa: sp 0 +
STACK CFI 1e420 .cfa: x29 64 +
STACK CFI INIT 1e478 4e0 .cfa: sp 0 +
STACK CFI 1e47c .cfa: sp 64 +
STACK CFI 1e48c .cfa: x29 64 + x19: .cfa -8 + ^ x20: .cfa -16 + ^ x21: .cfa -24 + ^ x22: .cfa -32 + ^ x23: .cfa -40 + ^ x24: .cfa -48 + ^ .ra: .cfa -56 + ^ x29: .cfa -64 + ^
STACK CFI 1e92c .cfa: sp 64 +
STACK CFI 1e93c .cfa: sp 0 +
STACK CFI 1e940 .cfa: x29 64 +
