MODULE Linux arm64 D30DAB4C0522AF5B212E5950828B5AAA0 firee.object-workshop.android64.so
INFO CODE_ID 4CAB0DD322055BAF212E5950828B5AAA5ABDBF1A
INFO GENERATOR mozilla/dump_syms 2.3.4
PUBLIC 76f40 0 __on_dlclose
PUBLIC 76f50 0 __emutls_unregister_key
PUBLIC 76f58 0 __on_dlclose_late
PUBLIC 76f60 0 __atexit_handler_wrapper
PUBLIC 76f74 0 atexit
PUBLIC 76f90 0 pthread_atfork
PUBLIC 76fa0 0 unwind_phase2
PUBLIC 770d4 0 _Unwind_Resume
PUBLIC 77158 0 unwind_phase2_forced
PUBLIC m 7724c 0 __unw_init_local
PUBLIC m 772f4 0 __unw_get_reg
PUBLIC 77370 0 __unw_step_stage2
PUBLIC m 77384 0 __unw_get_proc_info
PUBLIC m 773c4 0 __unw_resume
PUBLIC 773ec 0 libunwind::CFI_Parser<libunwind::LocalAddressSpace>::decodeFDE(libunwind::LocalAddressSpace&, unsigned long, libunwind::CFI_Parser<libunwind::LocalAddressSpace>::FDE_Info*, libunwind::CFI_Parser<libunwind::LocalAddressSpace>::CIE_Info*, bool)
PUBLIC 7757c 0 libunwind::CFI_Parser<libunwind::LocalAddressSpace>::parseCIE(libunwind::LocalAddressSpace&, unsigned long, libunwind::CFI_Parser<libunwind::LocalAddressSpace>::CIE_Info*)
PUBLIC 77844 0 libunwind::AbstractUnwindCursor::~AbstractUnwindCursor()
PUBLIC 7784c 0 libunwind::UnwindCursor<libunwind::LocalAddressSpace, libunwind::Registers_arm64>::~UnwindCursor()
PUBLIC 77854 0 libunwind::UnwindCursor<libunwind::LocalAddressSpace, libunwind::Registers_arm64>::validReg(int)
PUBLIC 77898 0 libunwind::UnwindCursor<libunwind::LocalAddressSpace, libunwind::Registers_arm64>::getReg(int)
PUBLIC 77980 0 libunwind::UnwindCursor<libunwind::LocalAddressSpace, libunwind::Registers_arm64>::setReg(int, unsigned long)
PUBLIC 77a68 0 libunwind::UnwindCursor<libunwind::LocalAddressSpace, libunwind::Registers_arm64>::validFloatReg(int)
PUBLIC 77a7c 0 libunwind::UnwindCursor<libunwind::LocalAddressSpace, libunwind::Registers_arm64>::getFloatReg(int)
PUBLIC 77a8c 0 libunwind::UnwindCursor<libunwind::LocalAddressSpace, libunwind::Registers_arm64>::setFloatReg(int, double)
PUBLIC 77a9c 0 libunwind::UnwindCursor<libunwind::LocalAddressSpace, libunwind::Registers_arm64>::step(bool)
PUBLIC 77b8c 0 libunwind::UnwindCursor<libunwind::LocalAddressSpace, libunwind::Registers_arm64>::getInfo(unw_proc_info_t*)
PUBLIC 77bd0 0 libunwind::UnwindCursor<libunwind::LocalAddressSpace, libunwind::Registers_arm64>::jumpto()
PUBLIC 77bdc 0 libunwind::UnwindCursor<libunwind::LocalAddressSpace, libunwind::Registers_arm64>::isSignalFrame()
PUBLIC 77be8 0 libunwind::UnwindCursor<libunwind::LocalAddressSpace, libunwind::Registers_arm64>::getFunctionName(char*, unsigned long, unsigned long*)
PUBLIC 77c14 0 libunwind::UnwindCursor<libunwind::LocalAddressSpace, libunwind::Registers_arm64>::setInfoBasedOnIPRegister(bool)
PUBLIC 77e94 0 libunwind::UnwindCursor<libunwind::LocalAddressSpace, libunwind::Registers_arm64>::getRegisterName(int)
PUBLIC 77ea0 0 libunwind::UnwindCursor<libunwind::LocalAddressSpace, libunwind::Registers_arm64>::stepThroughSigReturn(libunwind::Registers_arm64&)
PUBLIC 77fc0 0 libunwind::DwarfInstructions<libunwind::LocalAddressSpace, libunwind::Registers_arm64>::stepWithDwarf(libunwind::LocalAddressSpace&, unsigned long, unsigned long, libunwind::Registers_arm64&, bool&, bool)
PUBLIC 78448 0 libunwind::CFI_Parser<libunwind::LocalAddressSpace>::parseFDEInstructions(libunwind::LocalAddressSpace&, libunwind::CFI_Parser<libunwind::LocalAddressSpace>::FDE_Info const&, libunwind::CFI_Parser<libunwind::LocalAddressSpace>::CIE_Info const&, unsigned long, int, libunwind::CFI_Parser<libunwind::LocalAddressSpace>::PrologInfo*)
PUBLIC 79090 0 libunwind::DwarfInstructions<libunwind::LocalAddressSpace, libunwind::Registers_arm64>::getCFA(libunwind::LocalAddressSpace&, libunwind::CFI_Parser<libunwind::LocalAddressSpace>::PrologInfo const&, libunwind::Registers_arm64 const&)
PUBLIC 791c4 0 libunwind::DwarfInstructions<libunwind::LocalAddressSpace, libunwind::Registers_arm64>::getSavedRegister(libunwind::LocalAddressSpace&, libunwind::Registers_arm64 const&, unsigned long, libunwind::CFI_Parser<libunwind::LocalAddressSpace>::RegisterLocation const&)
PUBLIC 793d4 0 libunwind::LocalAddressSpace::getEncodedP(unsigned long&, unsigned long, unsigned char, unsigned long)
PUBLIC 79760 0 libunwind::LocalAddressSpace::getULEB128(unsigned long&, unsigned long)
PUBLIC 79928 0 libunwind::DwarfInstructions<libunwind::LocalAddressSpace, libunwind::Registers_arm64>::evaluateExpression(unsigned long, libunwind::LocalAddressSpace&, libunwind::Registers_arm64 const&, unsigned long)
PUBLIC 7a2e4 0 libunwind::UnwindCursor<libunwind::LocalAddressSpace, libunwind::Registers_arm64>::getInfoFromDwarfSection(unsigned long, libunwind::UnwindInfoSections const&, unsigned int)
PUBLIC 7a5b8 0 libunwind::findUnwindSectionsByPhdr(dl_phdr_info*, unsigned long, void*)
PUBLIC 7a6ec 0 libunwind::EHHeaderParser<libunwind::LocalAddressSpace>::decodeEHHdr(libunwind::LocalAddressSpace&, unsigned long, unsigned long, libunwind::EHHeaderParser<libunwind::LocalAddressSpace>::EHHeaderInfo&)
PUBLIC 7a80c 0 libunwind::CFI_Parser<libunwind::LocalAddressSpace>::findFDE(libunwind::LocalAddressSpace&, unsigned long, unsigned long, unsigned long, unsigned long, libunwind::CFI_Parser<libunwind::LocalAddressSpace>::FDE_Info*, libunwind::CFI_Parser<libunwind::LocalAddressSpace>::CIE_Info*)
PUBLIC 7a9d4 0 libunwind::EHHeaderParser<libunwind::LocalAddressSpace>::findFDE(libunwind::LocalAddressSpace&, unsigned long, unsigned long, unsigned int, libunwind::CFI_Parser<libunwind::LocalAddressSpace>::FDE_Info*, libunwind::CFI_Parser<libunwind::LocalAddressSpace>::CIE_Info*)
PUBLIC 7ab3c 0 libunwind::EHHeaderParser<libunwind::LocalAddressSpace>::getTableEntrySize(unsigned char)
PUBLIC 7ac38 0 libunwind::Registers_arm64::getRegisterName(int)
PUBLIC 7ac68 0 __libunwind_Registers_arm64_jumpto
PUBLIC m 7acf8 0 __unw_getcontext
PUBLIC 7ada0 0 __aarch64_ldadd8_relax
PUBLIC 7add0 0 init_have_lse_atomics
PUBLIC 7ae68 0 __init_cpu_features_constructor
PUBLIC 7b404 0 __init_cpu_features
PUBLIC 7b490 0 __aarch64_ldadd8_acq_rel
FUNC 7b4c0 614 0 authentication::AuthenticationManager::getAuthenticationToken(std::__ndk1::function<void (std::__ndk1::basic_string<char, std::__ndk1::char_traits<char>, std::__ndk1::allocator<char> >)>, std::__ndk1::function<void (std::__ndk1::basic_string<char, std::__ndk1::char_traits<char>, std::__ndk1::allocator<char> >)>)
FUNC 7bad4 84 0 authentication::AuthenticationManager::getAuthenticationToken(std::__ndk1::function<void (std::__ndk1::basic_string<char, std::__ndk1::char_traits<char>, std::__ndk1::allocator<char> >)>, std::__ndk1::function<void (std::__ndk1::basic_string<char, std::__ndk1::char_traits<char>, std::__ndk1::allocator<char> >)>)::$_0::~$_0()
FUNC 7bb58 50 0 geode::Task<geode::utils::web::WebResponse, geode::utils::web::WebProgress>::~Task()
PUBLIC 7bba8 0 __clang_call_terminate
FUNC 7bbb8 70 0 std::__ndk1::basic_string<char, std::__ndk1::char_traits<char>, std::__ndk1::allocator<char> >::__init_copy_ctor_external(char const*, unsigned long)
FUNC 7bc28 14 0 std::__ndk1::basic_string<char, std::__ndk1::char_traits<char>, std::__ndk1::allocator<char> >::__throw_length_error[abi:ne180000]() const
FUNC 7bc3c 50 0 std::__ndk1::__throw_length_error[abi:ne180000](char const*)
FUNC 7bc8c 30 0 std::length_error::length_error[abi:ne180000](char const*)
FUNC 7bcbc 34 0 std::__ndk1::__throw_bad_function_call[abi:ne180000]()
FUNC 7bcf0 24 0 std::__ndk1::bad_function_call::~bad_function_call()
FUNC 7bd14 d0 0 fmt::v11::detail::value<fmt::v11::context>::format_custom_arg<gd::string, fmt::v11::formatter<gd::string, char, void> >(void*, fmt::v11::basic_format_parse_context<char>&, fmt::v11::context&)
FUNC 7bde4 160 0 fmt::v11::formatter<gd::string, char, void>::format<fmt::v11::context>(gd::string const&, fmt::v11::context&) const
FUNC 7bf44 4a4 0 fmt::v11::detail::parse_format_specs<char>(char const*, char const*, fmt::v11::detail::dynamic_format_specs<char>&, fmt::v11::basic_format_parse_context<char>&, fmt::v11::detail::type)
FUNC 7c3e8 1a4 0 fmt::v11::detail::parse_dynamic_spec<char>(char const*, char const*, int&, fmt::v11::detail::arg_ref<char>&, fmt::v11::basic_format_parse_context<char>&)
FUNC 7c58c 17c 0 fmt::v11::detail::do_parse_arg_id<char, fmt::v11::detail::dynamic_spec_id_handler<char>&>(char const*, char const*, fmt::v11::detail::dynamic_spec_id_handler<char>&)
FUNC 7c708 114 0 fmt::v11::detail::handle_dynamic_spec<fmt::v11::detail::width_checker, fmt::v11::context>(int&, fmt::v11::detail::arg_ref<fmt::v11::context::char_type>, fmt::v11::context&)
FUNC 7c81c 114 0 fmt::v11::detail::handle_dynamic_spec<fmt::v11::detail::precision_checker, fmt::v11::context>(int&, fmt::v11::detail::arg_ref<fmt::v11::context::char_type>, fmt::v11::context&)
FUNC 7c930 27c 0 fmt::v11::detail::write<char, fmt::v11::basic_appender<char> >(fmt::v11::basic_appender<char>, fmt::v11::basic_string_view<char>, fmt::v11::format_specs const&)
FUNC 7cbac 200 0 fmt::v11::detail::write_escaped_string<char, fmt::v11::detail::counting_iterator>(fmt::v11::detail::counting_iterator, fmt::v11::basic_string_view<char>)
FUNC 7cdac 20c 0 fmt::v11::detail::write_padded<char, (fmt::v11::align::type)1, fmt::v11::basic_appender<char>, fmt::v11::detail::write<char, fmt::v11::basic_appender<char> >(fmt::v11::basic_appender<char>, fmt::v11::basic_string_view<char>, fmt::v11::format_specs const&)::{lambda(fmt::v11::basic_appender<char>)#1}>(fmt::v11::basic_appender<char>, fmt::v11::format_specs const&, unsigned long, unsigned long, fmt::v11::detail::write<char, fmt::v11::basic_appender<char> >(fmt::v11::basic_appender<char>, fmt::v11::basic_string_view<char>, fmt::v11::format_specs const&)::{lambda(fmt::v11::basic_appender<char>&&)#1})
FUNC 7cfb8 3ac 0 fmt::v11::detail::for_each_codepoint<fmt::v11::detail::code_point_index(fmt::v11::basic_string_view<char>, unsigned long)::{lambda(unsigned int, fmt::v11::basic_string_view<char>)#1}>(fmt::v11::basic_string_view<char>, fmt::v11::detail::code_point_index(fmt::v11::basic_string_view<char>, unsigned long)::{lambda(unsigned int, fmt::v11::basic_string_view<char>)#1})
FUNC 7d364 194 0 fmt::v11::detail::write_escaped_cp<fmt::v11::detail::counting_iterator, char>(fmt::v11::detail::counting_iterator, fmt::v11::detail::find_escape_result<char> const&)
FUNC 7d4f8 17c 0 fmt::v11::detail::for_each_codepoint<fmt::v11::detail::find_escape(char const*, char const*)::{lambda(unsigned int, fmt::v11::basic_string_view<char>)#1}>(fmt::v11::basic_string_view<char>, fmt::v11::detail::find_escape(char const*, char const*)::{lambda(unsigned int, fmt::v11::basic_string_view<char>)#1})::{lambda(char const*, char const*)#1}::operator()(char const*, char const*) const
FUNC 7d674 1b8 0 fmt::v11::detail::for_each_codepoint<fmt::v11::detail::compute_width(fmt::v11::basic_string_view<char>)::count_code_points>(fmt::v11::basic_string_view<char>, fmt::v11::detail::compute_width(fmt::v11::basic_string_view<char>)::count_code_points)::{lambda(char const*, char const*)#1}::operator()(char const*, char const*) const
FUNC 7d82c 1d0 0 fmt::v11::detail::fill<char, fmt::v11::basic_appender<char> >(fmt::v11::basic_appender<char>, unsigned long, fmt::v11::detail::fill_t const&)
FUNC 7d9fc 380 0 fmt::v11::detail::write_escaped_string<char, fmt::v11::basic_appender<char> >(fmt::v11::basic_appender<char>, fmt::v11::basic_string_view<char>)
FUNC 7dd7c 1e4 0 fmt::v11::detail::write_escaped_cp<fmt::v11::basic_appender<char>, char>(fmt::v11::basic_appender<char>, fmt::v11::detail::find_escape_result<char> const&)
FUNC 7df60 178 0 fmt::v11::detail::write_codepoint<(unsigned long)2, char, fmt::v11::basic_appender<char> >(fmt::v11::basic_appender<char>, char, unsigned int)
FUNC 7e0d8 178 0 fmt::v11::detail::write_codepoint<(unsigned long)4, char, fmt::v11::basic_appender<char> >(fmt::v11::basic_appender<char>, char, unsigned int)
FUNC 7e250 178 0 fmt::v11::detail::write_codepoint<(unsigned long)8, char, fmt::v11::basic_appender<char> >(fmt::v11::basic_appender<char>, char, unsigned int)
FUNC 7e3c8 94 0 fmt::v11::detail::get_dynamic_spec<fmt::v11::detail::width_checker, fmt::v11::basic_format_arg<fmt::v11::context> >(fmt::v11::basic_format_arg<fmt::v11::context>)
FUNC 7e45c 158 0 fmt::v11::basic_format_args<fmt::v11::context>::get<char>(fmt::v11::basic_string_view<char>) const
FUNC 7e5b4 94 0 fmt::v11::detail::get_dynamic_spec<fmt::v11::detail::precision_checker, fmt::v11::basic_format_arg<fmt::v11::context> >(fmt::v11::basic_format_arg<fmt::v11::context>)
FUNC 7e648 168 0 std::__ndk1::__function::__value_func<void (geode::Task<geode::utils::web::WebResponse, geode::utils::web::WebProgress>::Event*)>::swap[abi:ne180000](std::__ndk1::__function::__value_func<void (geode::Task<geode::utils::web::WebResponse, geode::utils::web::WebProgress>::Event*)>&)
FUNC 7e7b0 90 0 std::__ndk1::__function::__func<authentication::AuthenticationManager::getAuthenticationToken(std::__ndk1::function<void (std::__ndk1::basic_string<char, std::__ndk1::char_traits<char>, std::__ndk1::allocator<char> >)>, std::__ndk1::function<void (std::__ndk1::basic_string<char, std::__ndk1::char_traits<char>, std::__ndk1::allocator<char> >)>)::$_0, std::__ndk1::allocator<authentication::AuthenticationManager::getAuthenticationToken(std::__ndk1::function<void (std::__ndk1::basic_string<char, std::__ndk1::char_traits<char>, std::__ndk1::allocator<char> >)>, std::__ndk1::function<void (std::__ndk1::basic_string<char, std::__ndk1::char_traits<char>, std::__ndk1::allocator<char> >)>)::$_0>, void (geode::Task<geode::utils::web::WebResponse, geode::utils::web::WebProgress>::Event*)>::~__func()
FUNC 7e840 8c 0 std::__ndk1::__function::__func<authentication::AuthenticationManager::getAuthenticationToken(std::__ndk1::function<void (std::__ndk1::basic_string<char, std::__ndk1::char_traits<char>, std::__ndk1::allocator<char> >)>, std::__ndk1::function<void (std::__ndk1::basic_string<char, std::__ndk1::char_traits<char>, std::__ndk1::allocator<char> >)>)::$_0, std::__ndk1::allocator<authentication::AuthenticationManager::getAuthenticationToken(std::__ndk1::function<void (std::__ndk1::basic_string<char, std::__ndk1::char_traits<char>, std::__ndk1::allocator<char> >)>, std::__ndk1::function<void (std::__ndk1::basic_string<char, std::__ndk1::char_traits<char>, std::__ndk1::allocator<char> >)>)::$_0>, void (geode::Task<geode::utils::web::WebResponse, geode::utils::web::WebProgress>::Event*)>::~__func()
FUNC 7e8cc 110 0 std::__ndk1::__function::__func<authentication::AuthenticationManager::getAuthenticationToken(std::__ndk1::function<void (std::__ndk1::basic_string<char, std::__ndk1::char_traits<char>, std::__ndk1::allocator<char> >)>, std::__ndk1::function<void (std::__ndk1::basic_string<char, std::__ndk1::char_traits<char>, std::__ndk1::allocator<char> >)>)::$_0, std::__ndk1::allocator<authentication::AuthenticationManager::getAuthenticationToken(std::__ndk1::function<void (std::__ndk1::basic_string<char, std::__ndk1::char_traits<char>, std::__ndk1::allocator<char> >)>, std::__ndk1::function<void (std::__ndk1::basic_string<char, std::__ndk1::char_traits<char>, std::__ndk1::allocator<char> >)>)::$_0>, void (geode::Task<geode::utils::web::WebResponse, geode::utils::web::WebProgress>::Event*)>::__clone() const
FUNC 7e9dc 114 0 std::__ndk1::__function::__func<authentication::AuthenticationManager::getAuthenticationToken(std::__ndk1::function<void (std::__ndk1::basic_string<char, std::__ndk1::char_traits<char>, std::__ndk1::allocator<char> >)>, std::__ndk1::function<void (std::__ndk1::basic_string<char, std::__ndk1::char_traits<char>, std::__ndk1::allocator<char> >)>)::$_0, std::__ndk1::allocator<authentication::AuthenticationManager::getAuthenticationToken(std::__ndk1::function<void (std::__ndk1::basic_string<char, std::__ndk1::char_traits<char>, std::__ndk1::allocator<char> >)>, std::__ndk1::function<void (std::__ndk1::basic_string<char, std::__ndk1::char_traits<char>, std::__ndk1::allocator<char> >)>)::$_0>, void (geode::Task<geode::utils::web::WebResponse, geode::utils::web::WebProgress>::Event*)>::__clone(std::__ndk1::__function::__base<void (geode::Task<geode::utils::web::WebResponse, geode::utils::web::WebProgress>::Event*)>*) const
FUNC 7eaf0 84 0 std::__ndk1::__function::__func<authentication::AuthenticationManager::getAuthenticationToken(std::__ndk1::function<void (std::__ndk1::basic_string<char, std::__ndk1::char_traits<char>, std::__ndk1::allocator<char> >)>, std::__ndk1::function<void (std::__ndk1::basic_string<char, std::__ndk1::char_traits<char>, std::__ndk1::allocator<char> >)>)::$_0, std::__ndk1::allocator<authentication::AuthenticationManager::getAuthenticationToken(std::__ndk1::function<void (std::__ndk1::basic_string<char, std::__ndk1::char_traits<char>, std::__ndk1::allocator<char> >)>, std::__ndk1::function<void (std::__ndk1::basic_string<char, std::__ndk1::char_traits<char>, std::__ndk1::allocator<char> >)>)::$_0>, void (geode::Task<geode::utils::web::WebResponse, geode::utils::web::WebProgress>::Event*)>::destroy()
FUNC 7eb74 80 0 std::__ndk1::__function::__func<authentication::AuthenticationManager::getAuthenticationToken(std::__ndk1::function<void (std::__ndk1::basic_string<char, std::__ndk1::char_traits<char>, std::__ndk1::allocator<char> >)>, std::__ndk1::function<void (std::__ndk1::basic_string<char, std::__ndk1::char_traits<char>, std::__ndk1::allocator<char> >)>)::$_0, std::__ndk1::allocator<authentication::AuthenticationManager::getAuthenticationToken(std::__ndk1::function<void (std::__ndk1::basic_string<char, std::__ndk1::char_traits<char>, std::__ndk1::allocator<char> >)>, std::__ndk1::function<void (std::__ndk1::basic_string<char, std::__ndk1::char_traits<char>, std::__ndk1::allocator<char> >)>)::$_0>, void (geode::Task<geode::utils::web::WebResponse, geode::utils::web::WebProgress>::Event*)>::destroy_deallocate()
FUNC 7ebf4 51c 0 std::__ndk1::__function::__func<authentication::AuthenticationManager::getAuthenticationToken(std::__ndk1::function<void (std::__ndk1::basic_string<char, std::__ndk1::char_traits<char>, std::__ndk1::allocator<char> >)>, std::__ndk1::function<void (std::__ndk1::basic_string<char, std::__ndk1::char_traits<char>, std::__ndk1::allocator<char> >)>)::$_0, std::__ndk1::allocator<authentication::AuthenticationManager::getAuthenticationToken(std::__ndk1::function<void (std::__ndk1::basic_string<char, std::__ndk1::char_traits<char>, std::__ndk1::allocator<char> >)>, std::__ndk1::function<void (std::__ndk1::basic_string<char, std::__ndk1::char_traits<char>, std::__ndk1::allocator<char> >)>)::$_0>, void (geode::Task<geode::utils::web::WebResponse, geode::utils::web::WebProgress>::Event*)>::operator()(geode::Task<geode::utils::web::WebResponse, geode::utils::web::WebProgress>::Event*&&)
FUNC 7f110 1c 0 std::__ndk1::__function::__func<authentication::AuthenticationManager::getAuthenticationToken(std::__ndk1::function<void (std::__ndk1::basic_string<char, std::__ndk1::char_traits<char>, std::__ndk1::allocator<char> >)>, std::__ndk1::function<void (std::__ndk1::basic_string<char, std::__ndk1::char_traits<char>, std::__ndk1::allocator<char> >)>)::$_0, std::__ndk1::allocator<authentication::AuthenticationManager::getAuthenticationToken(std::__ndk1::function<void (std::__ndk1::basic_string<char, std::__ndk1::char_traits<char>, std::__ndk1::allocator<char> >)>, std::__ndk1::function<void (std::__ndk1::basic_string<char, std::__ndk1::char_traits<char>, std::__ndk1::allocator<char> >)>)::$_0>, void (geode::Task<geode::utils::web::WebResponse, geode::utils::web::WebProgress>::Event*)>::target(std::type_info const&) const
FUNC 7f12c c 0 std::__ndk1::__function::__func<authentication::AuthenticationManager::getAuthenticationToken(std::__ndk1::function<void (std::__ndk1::basic_string<char, std::__ndk1::char_traits<char>, std::__ndk1::allocator<char> >)>, std::__ndk1::function<void (std::__ndk1::basic_string<char, std::__ndk1::char_traits<char>, std::__ndk1::allocator<char> >)>)::$_0, std::__ndk1::allocator<authentication::AuthenticationManager::getAuthenticationToken(std::__ndk1::function<void (std::__ndk1::basic_string<char, std::__ndk1::char_traits<char>, std::__ndk1::allocator<char> >)>, std::__ndk1::function<void (std::__ndk1::basic_string<char, std::__ndk1::char_traits<char>, std::__ndk1::allocator<char> >)>)::$_0>, void (geode::Task<geode::utils::web::WebResponse, geode::utils::web::WebProgress>::Event*)>::target_type() const
FUNC 7f138 74 0 geode::impl::ResultData<matjson::Value, std::__ndk1::basic_string<char, std::__ndk1::char_traits<char>, std::__ndk1::allocator<char> > >::~ResultData()
FUNC 7f1ac 74 0 geode::impl::ResultData<std::__ndk1::basic_string<char, std::__ndk1::char_traits<char>, std::__ndk1::allocator<char> >, std::__ndk1::basic_string<char, std::__ndk1::char_traits<char>, std::__ndk1::allocator<char> > >::~ResultData()
FUNC 7f220 34 0 std::__ndk1::__throw_bad_variant_access[abi:ne180000]()
FUNC 7f254 8 0 std::__ndk1::__variant_detail::__visitation::__base::__dispatcher<(unsigned long)0>::__dispatch[abi:ne180000]<std::__ndk1::__variant_detail::__dtor<std::__ndk1::__variant_detail::__traits<matjson::Value, std::__ndk1::basic_string<char, std::__ndk1::char_traits<char>, std::__ndk1::allocator<char> > >, (std::__ndk1::__variant_detail::_Trait)1>::__destroy[abi:ne180000]()::{lambda(auto:1&)#1}, std::__ndk1::__variant_detail::__base<(std::__ndk1::__variant_detail::__traits<matjson::Value, std::__ndk1::basic_string<char, std::__ndk1::char_traits<char>, std::__ndk1::allocator<char> > >)1, matjson, std::__ndk1::allocator<char> >&>(std::__ndk1::__variant_detail::__dtor<std::__ndk1::__variant_detail::__traits<matjson::Value, std::__ndk1::basic_string<char, std::__ndk1::char_traits<char>, std::__ndk1::allocator<char> > >, (std::__ndk1::__variant_detail::_Trait)1>, std::__ndk1::__variant_detail::__base<(std::__ndk1::__variant_detail::__traits<matjson::Value, std::__ndk1::basic_string<char, std::__ndk1::char_traits<char>, std::__ndk1::allocator<char> > >)1, matjson, std::__ndk1::allocator<char> >&)
FUNC 7f25c 14 0 std::__ndk1::__variant_detail::__visitation::__base::__dispatcher<(unsigned long)1>::__dispatch[abi:ne180000]<std::__ndk1::__variant_detail::__dtor<std::__ndk1::__variant_detail::__traits<matjson::Value, std::__ndk1::basic_string<char, std::__ndk1::char_traits<char>, std::__ndk1::allocator<char> > >, (std::__ndk1::__variant_detail::_Trait)1>::__destroy[abi:ne180000]()::{lambda(auto:1&)#1}, std::__ndk1::__variant_detail::__base<(std::__ndk1::__variant_detail::__traits<matjson::Value, std::__ndk1::basic_string<char, std::__ndk1::char_traits<char>, std::__ndk1::allocator<char> > >)1, matjson, std::__ndk1::allocator<char> >&>(std::__ndk1::__variant_detail::__dtor<std::__ndk1::__variant_detail::__traits<matjson::Value, std::__ndk1::basic_string<char, std::__ndk1::char_traits<char>, std::__ndk1::allocator<char> > >, (std::__ndk1::__variant_detail::_Trait)1>, std::__ndk1::__variant_detail::__base<(std::__ndk1::__variant_detail::__traits<matjson::Value, std::__ndk1::basic_string<char, std::__ndk1::char_traits<char>, std::__ndk1::allocator<char> > >)1, matjson, std::__ndk1::allocator<char> >&)
FUNC 7f270 14 0 std::__ndk1::__variant_detail::__visitation::__base::__dispatcher<(unsigned long)0>::__dispatch[abi:ne180000]<std::__ndk1::__variant_detail::__dtor<std::__ndk1::__variant_detail::__traits<std::__ndk1::basic_string<char, std::__ndk1::char_traits<char>, std::__ndk1::allocator<char> >, std::__ndk1::allocator<char> >, (std::__ndk1::__variant_detail::_Trait)1>::__destroy[abi:ne180000]()::{lambda(auto:1&)#1}, std::__ndk1::__variant_detail::__base<(std::__ndk1::__variant_detail::__traits<std::__ndk1::basic_string<char, std::__ndk1::char_traits<char>, std::__ndk1::allocator<char> >, std::__ndk1::allocator<char> >)1, std::__ndk1::allocator<char>, std::__ndk1::allocator<char> >&>(std::__ndk1::__variant_detail::__dtor<std::__ndk1::__variant_detail::__traits<std::__ndk1::basic_string<char, std::__ndk1::char_traits<char>, std::__ndk1::allocator<char> >, std::__ndk1::allocator<char> >, (std::__ndk1::__variant_detail::_Trait)1>, std::__ndk1::__variant_detail::__base<(std::__ndk1::__variant_detail::__traits<std::__ndk1::basic_string<char, std::__ndk1::char_traits<char>, std::__ndk1::allocator<char> >, std::__ndk1::allocator<char> >)1, std::__ndk1::allocator<char>, std::__ndk1::allocator<char> >&)
FUNC 7f284 14 0 std::__ndk1::__variant_detail::__visitation::__base::__dispatcher<(unsigned long)1>::__dispatch[abi:ne180000]<std::__ndk1::__variant_detail::__dtor<std::__ndk1::__variant_detail::__traits<std::__ndk1::basic_string<char, std::__ndk1::char_traits<char>, std::__ndk1::allocator<char> >, std::__ndk1::allocator<char> >, (std::__ndk1::__variant_detail::_Trait)1>::__destroy[abi:ne180000]()::{lambda(auto:1&)#1}, std::__ndk1::__variant_detail::__base<(std::__ndk1::__variant_detail::__traits<std::__ndk1::basic_string<char, std::__ndk1::char_traits<char>, std::__ndk1::allocator<char> >, std::__ndk1::allocator<char> >)1, std::__ndk1::allocator<char>, std::__ndk1::allocator<char> >&>(std::__ndk1::__variant_detail::__dtor<std::__ndk1::__variant_detail::__traits<std::__ndk1::basic_string<char, std::__ndk1::char_traits<char>, std::__ndk1::allocator<char> >, std::__ndk1::allocator<char> >, (std::__ndk1::__variant_detail::_Trait)1>, std::__ndk1::__variant_detail::__base<(std::__ndk1::__variant_detail::__traits<std::__ndk1::basic_string<char, std::__ndk1::char_traits<char>, std::__ndk1::allocator<char> >, std::__ndk1::allocator<char> >)1, std::__ndk1::allocator<char>, std::__ndk1::allocator<char> >&)
FUNC 7f298 168 0 _ZN5geode15UnwrapExceptionC2IRNSt6__ndk112basic_stringIcNS2_11char_traitsIcEENS2_9allocatorIcEEEEQsr4implE18IsStringStreamableIT_EEENS_4impl6ErrTagEOSA_
FUNC 7f400 124 0 std::__ndk1::basic_stringstream<char, std::__ndk1::char_traits<char>, std::__ndk1::allocator<char> >::basic_stringstream[abi:ne180000]()
FUNC 7f524 80 0 std::__ndk1::basic_stringstream<char, std::__ndk1::char_traits<char>, std::__ndk1::allocator<char> >::~basic_stringstream()
FUNC 7f5a4 24 0 geode::UnwrapException::~UnwrapException()
FUNC 7f5c8 198 0 std::__ndk1::__put_character_sequence[abi:ne180000]<char, std::__ndk1::char_traits<char> >(std::__ndk1::basic_ostream<char, std::__ndk1::char_traits<char> >, std::__ndk1::basic_ostream const*, unsigned long)
FUNC 7f760 1b4 0 std::__ndk1::__pad_and_output[abi:ne180000]<char, std::__ndk1::char_traits<char> >(std::__ndk1::char_traits<char>, std::__ndk1::ostreambuf_iterator const*, std::__ndk1::ostreambuf_iterator const, std::__ndk1::ostreambuf_iterator const, std::__ndk1::ios_base&, std::__ndk1::ostreambuf_iterator)
FUNC 7f914 15c 0 std::__ndk1::basic_stringbuf<char, std::__ndk1::char_traits<char>, std::__ndk1::allocator<char> >::str[abi:ne180000]() &&
FUNC 7fa70 148 0 std::__ndk1::basic_stringbuf<char, std::__ndk1::char_traits<char>, std::__ndk1::allocator<char> >::__init_buf_ptrs[abi:ne180000]()
FUNC 7fbb8 74 0 geode::impl::ResultData<matjson::Value&, std::__ndk1::basic_string<char, std::__ndk1::char_traits<char>, std::__ndk1::allocator<char> > >::~ResultData()
FUNC 7fc2c 4 0 std::__ndk1::__variant_detail::__visitation::__base::__dispatcher<(unsigned long)0>::__dispatch[abi:ne180000]<std::__ndk1::__variant_detail::__dtor<std::__ndk1::__variant_detail::__traits<std::__ndk1::reference_wrapper<matjson::Value>, std::__ndk1::basic_string<char, std::__ndk1::char_traits<char>, std::__ndk1::allocator<char> > >, (std::__ndk1::__variant_detail::_Trait)1>::__destroy[abi:ne180000]()::{lambda(auto:1&)#1}, std::__ndk1::__variant_detail::__base<(std::__ndk1::__variant_detail::__traits<std::__ndk1::reference_wrapper<matjson::Value>, std::__ndk1::basic_string<char, std::__ndk1::char_traits<char>, std::__ndk1::allocator<char> > >)1, matjson::Value, std::__ndk1::allocator<char> >&>(std::__ndk1::__variant_detail::__dtor<std::__ndk1::__variant_detail::__traits<std::__ndk1::reference_wrapper<matjson::Value>, std::__ndk1::basic_string<char, std::__ndk1::char_traits<char>, std::__ndk1::allocator<char> > >, (std::__ndk1::__variant_detail::_Trait)1>, std::__ndk1::__variant_detail::__base<(std::__ndk1::__variant_detail::__traits<std::__ndk1::reference_wrapper<matjson::Value>, std::__ndk1::basic_string<char, std::__ndk1::char_traits<char>, std::__ndk1::allocator<char> > >)1, matjson::Value, std::__ndk1::allocator<char> >&)
FUNC 7fc30 14 0 std::__ndk1::__variant_detail::__visitation::__base::__dispatcher<(unsigned long)1>::__dispatch[abi:ne180000]<std::__ndk1::__variant_detail::__dtor<std::__ndk1::__variant_detail::__traits<std::__ndk1::reference_wrapper<matjson::Value>, std::__ndk1::basic_string<char, std::__ndk1::char_traits<char>, std::__ndk1::allocator<char> > >, (std::__ndk1::__variant_detail::_Trait)1>::__destroy[abi:ne180000]()::{lambda(auto:1&)#1}, std::__ndk1::__variant_detail::__base<(std::__ndk1::__variant_detail::__traits<std::__ndk1::reference_wrapper<matjson::Value>, std::__ndk1::basic_string<char, std::__ndk1::char_traits<char>, std::__ndk1::allocator<char> > >)1, matjson::Value, std::__ndk1::allocator<char> >&>(std::__ndk1::__variant_detail::__dtor<std::__ndk1::__variant_detail::__traits<std::__ndk1::reference_wrapper<matjson::Value>, std::__ndk1::basic_string<char, std::__ndk1::char_traits<char>, std::__ndk1::allocator<char> > >, (std::__ndk1::__variant_detail::_Trait)1>, std::__ndk1::__variant_detail::__base<(std::__ndk1::__variant_detail::__traits<std::__ndk1::reference_wrapper<matjson::Value>, std::__ndk1::basic_string<char, std::__ndk1::char_traits<char>, std::__ndk1::allocator<char> > >)1, matjson::Value, std::__ndk1::allocator<char> >&)
FUNC 7fc44 21c 0 geode::Task<geode::utils::web::WebResponse, geode::utils::web::WebProgress>::setListener(geode::EventListenerProtocol*)
FUNC 7fe60 50 0 geode::Task<geode::utils::web::WebResponse, geode::utils::web::WebProgress>::setListener(geode::EventListenerProtocol*)::{lambda()#1}::~{lambda()#1}()
FUNC 7feb0 50 0 geode::Task<geode::utils::web::WebResponse, geode::utils::web::WebProgress>::setListener(geode::EventListenerProtocol*)::{lambda()#2}::~{lambda()#2}()
FUNC 7ff00 5c 0 std::__ndk1::__function::__func<geode::Task<geode::utils::web::WebResponse, geode::utils::web::WebProgress>::setListener(geode::EventListenerProtocol*)::{lambda()#1}, std::__ndk1::allocator<geode::Task<geode::utils::web::WebResponse, geode::utils::web::WebProgress>::setListener(geode::EventListenerProtocol*)::{lambda()#1}>, void ()>::~__func()
FUNC 7ff5c 5c 0 std::__ndk1::__function::__func<geode::Task<geode::utils::web::WebResponse, geode::utils::web::WebProgress>::setListener(geode::EventListenerProtocol*)::{lambda()#1}, std::__ndk1::allocator<geode::Task<geode::utils::web::WebResponse, geode::utils::web::WebProgress>::setListener(geode::EventListenerProtocol*)::{lambda()#1}>, void ()>::~__func()
FUNC 7ffb8 58 0 std::__ndk1::__function::__func<geode::Task<geode::utils::web::WebResponse, geode::utils::web::WebProgress>::setListener(geode::EventListenerProtocol*)::{lambda()#1}, std::__ndk1::allocator<geode::Task<geode::utils::web::WebResponse, geode::utils::web::WebProgress>::setListener(geode::EventListenerProtocol*)::{lambda()#1}>, void ()>::__clone() const
FUNC 80010 4c 0 std::__ndk1::__function::__func<geode::Task<geode::utils::web::WebResponse, geode::utils::web::WebProgress>::setListener(geode::EventListenerProtocol*)::{lambda()#1}, std::__ndk1::allocator<geode::Task<geode::utils::web::WebResponse, geode::utils::web::WebProgress>::setListener(geode::EventListenerProtocol*)::{lambda()#1}>, void ()>::__clone(std::__ndk1::__function::__base<void ()>*) const
FUNC 8005c 50 0 std::__ndk1::__function::__func<geode::Task<geode::utils::web::WebResponse, geode::utils::web::WebProgress>::setListener(geode::EventListenerProtocol*)::{lambda()#1}, std::__ndk1::allocator<geode::Task<geode::utils::web::WebResponse, geode::utils::web::WebProgress>::setListener(geode::EventListenerProtocol*)::{lambda()#1}>, void ()>::destroy()
FUNC 800ac 50 0 std::__ndk1::__function::__func<geode::Task<geode::utils::web::WebResponse, geode::utils::web::WebProgress>::setListener(geode::EventListenerProtocol*)::{lambda()#1}, std::__ndk1::allocator<geode::Task<geode::utils::web::WebResponse, geode::utils::web::WebProgress>::setListener(geode::EventListenerProtocol*)::{lambda()#1}>, void ()>::destroy_deallocate()
FUNC 800fc 8 0 std::__ndk1::__function::__func<geode::Task<geode::utils::web::WebResponse, geode::utils::web::WebProgress>::setListener(geode::EventListenerProtocol*)::{lambda()#1}, std::__ndk1::allocator<geode::Task<geode::utils::web::WebResponse, geode::utils::web::WebProgress>::setListener(geode::EventListenerProtocol*)::{lambda()#1}>, void ()>::operator()()
FUNC 80104 1c 0 std::__ndk1::__function::__func<geode::Task<geode::utils::web::WebResponse, geode::utils::web::WebProgress>::setListener(geode::EventListenerProtocol*)::{lambda()#1}, std::__ndk1::allocator<geode::Task<geode::utils::web::WebResponse, geode::utils::web::WebProgress>::setListener(geode::EventListenerProtocol*)::{lambda()#1}>, void ()>::target(std::type_info const&) const
FUNC 80120 c 0 std::__ndk1::__function::__func<geode::Task<geode::utils::web::WebResponse, geode::utils::web::WebProgress>::setListener(geode::EventListenerProtocol*)::{lambda()#1}, std::__ndk1::allocator<geode::Task<geode::utils::web::WebResponse, geode::utils::web::WebProgress>::setListener(geode::EventListenerProtocol*)::{lambda()#1}>, void ()>::target_type() const
FUNC 8012c 198 0 geode::Task<geode::utils::web::WebResponse, geode::utils::web::WebProgress>::setListener(geode::EventListenerProtocol*)::{lambda()#1}::operator()() const
FUNC 802c4 50 0 geode::Task<geode::utils::web::WebResponse, geode::utils::web::WebProgress>::Event::~Event()
FUNC 80314 58 0 geode::Task<geode::utils::web::WebResponse, geode::utils::web::WebProgress>::Event::~Event()
FUNC 8036c 5c 0 std::__ndk1::__function::__func<geode::Task<geode::utils::web::WebResponse, geode::utils::web::WebProgress>::setListener(geode::EventListenerProtocol*)::{lambda()#2}, std::__ndk1::allocator<geode::Task<geode::utils::web::WebResponse, geode::utils::web::WebProgress>::setListener(geode::EventListenerProtocol*)::{lambda()#2}>, void ()>::~__func()
FUNC 803c8 5c 0 std::__ndk1::__function::__func<geode::Task<geode::utils::web::WebResponse, geode::utils::web::WebProgress>::setListener(geode::EventListenerProtocol*)::{lambda()#2}, std::__ndk1::allocator<geode::Task<geode::utils::web::WebResponse, geode::utils::web::WebProgress>::setListener(geode::EventListenerProtocol*)::{lambda()#2}>, void ()>::~__func()
FUNC 80424 58 0 std::__ndk1::__function::__func<geode::Task<geode::utils::web::WebResponse, geode::utils::web::WebProgress>::setListener(geode::EventListenerProtocol*)::{lambda()#2}, std::__ndk1::allocator<geode::Task<geode::utils::web::WebResponse, geode::utils::web::WebProgress>::setListener(geode::EventListenerProtocol*)::{lambda()#2}>, void ()>::__clone() const
FUNC 8047c 4c 0 std::__ndk1::__function::__func<geode::Task<geode::utils::web::WebResponse, geode::utils::web::WebProgress>::setListener(geode::EventListenerProtocol*)::{lambda()#2}, std::__ndk1::allocator<geode::Task<geode::utils::web::WebResponse, geode::utils::web::WebProgress>::setListener(geode::EventListenerProtocol*)::{lambda()#2}>, void ()>::__clone(std::__ndk1::__function::__base<void ()>*) const
FUNC 804c8 50 0 std::__ndk1::__function::__func<geode::Task<geode::utils::web::WebResponse, geode::utils::web::WebProgress>::setListener(geode::EventListenerProtocol*)::{lambda()#2}, std::__ndk1::allocator<geode::Task<geode::utils::web::WebResponse, geode::utils::web::WebProgress>::setListener(geode::EventListenerProtocol*)::{lambda()#2}>, void ()>::destroy()
FUNC 80518 50 0 std::__ndk1::__function::__func<geode::Task<geode::utils::web::WebResponse, geode::utils::web::WebProgress>::setListener(geode::EventListenerProtocol*)::{lambda()#2}, std::__ndk1::allocator<geode::Task<geode::utils::web::WebResponse, geode::utils::web::WebProgress>::setListener(geode::EventListenerProtocol*)::{lambda()#2}>, void ()>::destroy_deallocate()
FUNC 80568 8 0 std::__ndk1::__function::__func<geode::Task<geode::utils::web::WebResponse, geode::utils::web::WebProgress>::setListener(geode::EventListenerProtocol*)::{lambda()#2}, std::__ndk1::allocator<geode::Task<geode::utils::web::WebResponse, geode::utils::web::WebProgress>::setListener(geode::EventListenerProtocol*)::{lambda()#2}>, void ()>::operator()()
FUNC 80570 1c 0 std::__ndk1::__function::__func<geode::Task<geode::utils::web::WebResponse, geode::utils::web::WebProgress>::setListener(geode::EventListenerProtocol*)::{lambda()#2}, std::__ndk1::allocator<geode::Task<geode::utils::web::WebResponse, geode::utils::web::WebProgress>::setListener(geode::EventListenerProtocol*)::{lambda()#2}>, void ()>::target(std::type_info const&) const
FUNC 8058c c 0 std::__ndk1::__function::__func<geode::Task<geode::utils::web::WebResponse, geode::utils::web::WebProgress>::setListener(geode::EventListenerProtocol*)::{lambda()#2}, std::__ndk1::allocator<geode::Task<geode::utils::web::WebResponse, geode::utils::web::WebProgress>::setListener(geode::EventListenerProtocol*)::{lambda()#2}>, void ()>::target_type() const
FUNC 80598 188 0 geode::Task<geode::utils::web::WebResponse, geode::utils::web::WebProgress>::setListener(geode::EventListenerProtocol*)::{lambda()#2}::operator()() const
FUNC 80720 68c 0 CustomObjects::onWorkshop(cocos2d::CCObject*)
FUNC 80dac 118 0 geode::Mod::getSettingValue<long>(std::__ndk1::basic_string_view<char, std::__ndk1::char_traits<char> >) const
FUNC 80ec4 184 0 geode::Mod::getSettingValue<std::__ndk1::basic_string<char, std::__ndk1::char_traits<char>, std::__ndk1::allocator<char> > >(std::__ndk1::basic_string_view<char, std::__ndk1::char_traits<char> >) const
FUNC 81048 1bc 0 CustomObjects::init(LevelEditorLayer*)
FUNC 81204 8c 0 std::__ndk1::basic_string<char, std::__ndk1::char_traits<char>, std::__ndk1::allocator<char> >::basic_string[abi:ne180000]<0>()
FUNC 81290 60 0 __cxx_global_var_init
FUNC 812f0 1c 0 geode::modifier::ModifyBase<geode::modifier::ModifyDerive<CustomObjects, EditorUI> >::~ModifyBase()
FUNC 8130c 444 0 __cxx_global_var_init.2
FUNC 81750 1c 0 geode::modifier::ModifyBase<geode::modifier::ModifyDerive<ObjectBypass, EditorUI> >::~ModifyBase()
FUNC 8176c 400 0 __cxx_global_var_init.3
FUNC 81b6c 400 0 __cxx_global_var_init.4
FUNC 81f6c 1c 0 geode::modifier::ModifyBase<geode::modifier::ModifyDerive<hook274<(anonymous namespace)::hook274Parent>, ProfilePage> >::~ModifyBase()
FUNC 81f88 1c 0 geode::modifier::ModifyBase<geode::modifier::ModifyDerive<hook409<(anonymous namespace)::hook409Parent>, EditorUI> >::~ModifyBase()
FUNC 81fa4 34 0 std::__throw_bad_array_new_length([abi:ne180000], void)
FUNC 81fd8 8 0 cocos2d::CCCopying::copyWithZone(cocos2d::CCZone*)
FUNC 81fe0 4 0 cocos2d::CCLayerRGBA::setOpacityModifyRGB(bool)
FUNC 81fe4 8 0 cocos2d::CCLayerRGBA::isOpacityModifyRGB()
FUNC 81fec 4 0 cocos2d::CCKeyboardDelegate::keyUp(cocos2d::enumKeyCodes)
FUNC 81ff0 4 0 cocos2d::CCMouseDelegate::rightKeyDown()
FUNC 81ff4 4 0 cocos2d::CCMouseDelegate::rightKeyUp()
FUNC 81ff8 4 0 cocos2d::CCMouseDelegate::scrollWheel(float, float)
FUNC 81ffc 4 0 {virtual override thunk({offset(-408)}, cocos2d::CCLayerRGBA::setOpacityModifyRGB(bool))}
FUNC 82000 8 0 {virtual override thunk({offset(-408)}, cocos2d::CCLayerRGBA::isOpacityModifyRGB())}
FUNC 82008 3c0 0 geode::modifier::ModifyBase<geode::modifier::ModifyDerive<CustomObjects, EditorUI> >::ModifyBase()
FUNC 823c8 2bc 0 geode::modifier::ModifyDerive<CustomObjects, EditorUI>::apply()
FUNC 82684 50 0 std::__ndk1::shared_ptr<geode::Hook>::~shared_ptr[abi:ne180000]()
FUNC 826d4 74 0 geode::impl::ResultData<geode::Hook*, std::__ndk1::basic_string<char, std::__ndk1::char_traits<char>, std::__ndk1::allocator<char> > >::~ResultData()
FUNC 82748 7c 0 std::__ndk1::vector<std::__ndk1::basic_string<char, std::__ndk1::char_traits<char>, std::__ndk1::allocator<char> >, std::__ndk1::allocator<std::__ndk1::basic_string<char, std::__ndk1::char_traits<char>, std::__ndk1::allocator<char> > > >::~vector[abi:ne180000]()
FUNC 827c4 4 0 geode::modifier::ModifyBase<geode::modifier::ModifyDerive<CustomObjects, EditorUI> >::apply()
FUNC 827c8 154 0 _ZN5geode15UnwrapExceptionC2IRPNS_4HookEQsr4implE18IsStringStreamableIT_EEENS_4impl5OkTagEOS5_
FUNC 8291c 21c 0 std::__ndk1::vector<std::__ndk1::basic_string<char, std::__ndk1::char_traits<char>, std::__ndk1::allocator<char> >, std::__ndk1::allocator<std::__ndk1::basic_string<char, std::__ndk1::char_traits<char>, std::__ndk1::allocator<char> > > >::__push_back_slow_path<std::__ndk1::basic_string<char, std::__ndk1::char_traits<char>, std::__ndk1::allocator<char> > const&>(std::__ndk1::basic_string<char, std::__ndk1::char_traits<char>, std::__ndk1::allocator<char> > const&)
FUNC 82b38 68 0 std::__ndk1::__split_buffer<std::__ndk1::basic_string<char, std::__ndk1::char_traits<char>, std::__ndk1::allocator<char> >, std::__ndk1::allocator<std::__ndk1::basic_string<char, std::__ndk1::char_traits<char>, std::__ndk1::allocator<char> > >&>::~__split_buffer()
FUNC 82ba0 14 0 std::__ndk1::vector<std::__ndk1::basic_string<char, std::__ndk1::char_traits<char>, std::__ndk1::allocator<char> >, std::__ndk1::allocator<std::__ndk1::basic_string<char, std::__ndk1::char_traits<char>, std::__ndk1::allocator<char> > > >::__throw_length_error[abi:ne180000]() const
FUNC 82bb4 4 0 std::__ndk1::__variant_detail::__visitation::__base::__dispatcher<(unsigned long)0>::__dispatch[abi:ne180000]<std::__ndk1::__variant_detail::__dtor<std::__ndk1::__variant_detail::__traits<geode::Hook*, std::__ndk1::basic_string<char, std::__ndk1::char_traits<char>, std::__ndk1::allocator<char> > >, (std::__ndk1::__variant_detail::_Trait)1>::__destroy[abi:ne180000]()::{lambda(auto:1&)#1}, std::__ndk1::__variant_detail::__base<(std::__ndk1::__variant_detail::__traits<geode::Hook*, std::__ndk1::basic_string<char, std::__ndk1::char_traits<char>, std::__ndk1::allocator<char> > >)1, geode::Hook, std::__ndk1::allocator<char> >&>(std::__ndk1::__variant_detail::__dtor<std::__ndk1::__variant_detail::__traits<geode::Hook*, std::__ndk1::basic_string<char, std::__ndk1::char_traits<char>, std::__ndk1::allocator<char> > >, (std::__ndk1::__variant_detail::_Trait)1>, std::__ndk1::__variant_detail::__base<(std::__ndk1::__variant_detail::__traits<geode::Hook*, std::__ndk1::basic_string<char, std::__ndk1::char_traits<char>, std::__ndk1::allocator<char> > >)1, geode::Hook, std::__ndk1::allocator<char> >&)
FUNC 82bb8 14 0 std::__ndk1::__variant_detail::__visitation::__base::__dispatcher<(unsigned long)1>::__dispatch[abi:ne180000]<std::__ndk1::__variant_detail::__dtor<std::__ndk1::__variant_detail::__traits<geode::Hook*, std::__ndk1::basic_string<char, std::__ndk1::char_traits<char>, std::__ndk1::allocator<char> > >, (std::__ndk1::__variant_detail::_Trait)1>::__destroy[abi:ne180000]()::{lambda(auto:1&)#1}, std::__ndk1::__variant_detail::__base<(std::__ndk1::__variant_detail::__traits<geode::Hook*, std::__ndk1::basic_string<char, std::__ndk1::char_traits<char>, std::__ndk1::allocator<char> > >)1, geode::Hook, std::__ndk1::allocator<char> >&>(std::__ndk1::__variant_detail::__dtor<std::__ndk1::__variant_detail::__traits<geode::Hook*, std::__ndk1::basic_string<char, std::__ndk1::char_traits<char>, std::__ndk1::allocator<char> > >, (std::__ndk1::__variant_detail::_Trait)1>, std::__ndk1::__variant_detail::__base<(std::__ndk1::__variant_detail::__traits<geode::Hook*, std::__ndk1::basic_string<char, std::__ndk1::char_traits<char>, std::__ndk1::allocator<char> > >)1, geode::Hook, std::__ndk1::allocator<char> >&)
FUNC 82bcc fc 0 std::__ndk1::__tree<std::__ndk1::__value_type<std::__ndk1::basic_string<char, std::__ndk1::char_traits<char>, std::__ndk1::allocator<char> >, std::__ndk1::shared_ptr<geode::Hook> >, std::__ndk1::__map_value_compare<std::__ndk1::basic_string<char, std::__ndk1::char_traits<char>, std::__ndk1::allocator<char> >, std::__ndk1::__value_type<std::__ndk1::basic_string<char, std::__ndk1::char_traits<char>, std::__ndk1::allocator<char> >, std::__ndk1::shared_ptr<geode::Hook> >, std::__ndk1::less<std::__ndk1::basic_string<char, std::__ndk1::char_traits<char>, std::__ndk1::allocator<char> > >, true>, std::__ndk1::allocator<std::__ndk1::__value_type<std::__ndk1::basic_string<char, std::__ndk1::char_traits<char>, std::__ndk1::allocator<char> >, std::__ndk1::shared_ptr<geode::Hook> > > >::find<std::__ndk1::basic_string<char, std::__ndk1::char_traits<char>, std::__ndk1::allocator<char> > >(std::__ndk1::basic_string<char, std::__ndk1::char_traits<char>, std::__ndk1::allocator<char> > const&)
FUNC 82cc8 d4 0 std::__ndk1::__tree<std::__ndk1::__value_type<std::__ndk1::basic_string<char, std::__ndk1::char_traits<char>, std::__ndk1::allocator<char> >, std::__ndk1::shared_ptr<geode::Hook> >, std::__ndk1::__map_value_compare<std::__ndk1::basic_string<char, std::__ndk1::char_traits<char>, std::__ndk1::allocator<char> >, std::__ndk1::__value_type<std::__ndk1::basic_string<char, std::__ndk1::char_traits<char>, std::__ndk1::allocator<char> >, std::__ndk1::shared_ptr<geode::Hook> >, std::__ndk1::less<std::__ndk1::basic_string<char, std::__ndk1::char_traits<char>, std::__ndk1::allocator<char> > >, true>, std::__ndk1::allocator<std::__ndk1::__value_type<std::__ndk1::basic_string<char, std::__ndk1::char_traits<char>, std::__ndk1::allocator<char> >, std::__ndk1::shared_ptr<geode::Hook> > > >::erase(std::__ndk1::__tree_const_iterator<std::__ndk1::__value_type<std::__ndk1::basic_string<char, std::__ndk1::char_traits<char>, std::__ndk1::allocator<char> >, std::__ndk1::shared_ptr<geode::Hook> >, std::__ndk1::__tree_node<std::__ndk1::__value_type<std::__ndk1::basic_string<char, std::__ndk1::char_traits<char>, std::__ndk1::allocator<char> >, std::__ndk1::shared_ptr<geode::Hook> >, void*>*, long>)
FUNC 82d9c 388 0 std::__ndk1::__tree_remove[abi:ne180000]<std::__ndk1::__tree_node_base<void*>*>(std::__ndk1::__tree_node_base<void*>*, std::__ndk1::__tree_node_base<void*>*)
FUNC 83124 8c 0 std::__ndk1::__tree<std::__ndk1::__value_type<std::__ndk1::basic_string<char, std::__ndk1::char_traits<char>, std::__ndk1::allocator<char> >, std::__ndk1::shared_ptr<geode::Hook> >, std::__ndk1::__map_value_compare<std::__ndk1::basic_string<char, std::__ndk1::char_traits<char>, std::__ndk1::allocator<char> >, std::__ndk1::__value_type<std::__ndk1::basic_string<char, std::__ndk1::char_traits<char>, std::__ndk1::allocator<char> >, std::__ndk1::shared_ptr<geode::Hook> >, std::__ndk1::less<std::__ndk1::basic_string<char, std::__ndk1::char_traits<char>, std::__ndk1::allocator<char> > >, true>, std::__ndk1::allocator<std::__ndk1::__value_type<std::__ndk1::basic_string<char, std::__ndk1::char_traits<char>, std::__ndk1::allocator<char> >, std::__ndk1::shared_ptr<geode::Hook> > > >::destroy(std::__ndk1::__tree_node<std::__ndk1::__value_type<std::__ndk1::basic_string<char, std::__ndk1::char_traits<char>, std::__ndk1::allocator<char> >, std::__ndk1::shared_ptr<geode::Hook> >, void*>*)
FUNC 831b0 184 0 geode::Hook::create<bool (*)(CustomObjects*, LevelEditorLayer*)>(void*, bool (*)(CustomObjects*, LevelEditorLayer*), std::__ndk1::basic_string<char, std::__ndk1::char_traits<char>, std::__ndk1::allocator<char> > const&, tulip::hook::TulipConvention, tulip::hook::HookMetadata const&)
FUNC 83334 4 0 geode::modifier::AsStaticFunction_init<CustomObjects, bool (CustomObjects::*)(LevelEditorLayer*)>::Impl<bool (CustomObjects::*)(LevelEditorLayer*)>::function(CustomObjects*, LevelEditorLayer*)
FUNC 83338 50 0 std::__ndk1::shared_ptr<tulip::hook::CallingConvention>::~shared_ptr[abi:ne180000]()
FUNC 83388 64 0 tulip::hook::HandlerMetadata::~HandlerMetadata()
FUNC 833ec 104 0 std::__ndk1::__tree<std::__ndk1::__value_type<std::__ndk1::basic_string<char, std::__ndk1::char_traits<char>, std::__ndk1::allocator<char> >, std::__ndk1::shared_ptr<geode::Hook> >, std::__ndk1::__map_value_compare<std::__ndk1::basic_string<char, std::__ndk1::char_traits<char>, std::__ndk1::allocator<char> >, std::__ndk1::__value_type<std::__ndk1::basic_string<char, std::__ndk1::char_traits<char>, std::__ndk1::allocator<char> >, std::__ndk1::shared_ptr<geode::Hook> >, std::__ndk1::less<std::__ndk1::basic_string<char, std::__ndk1::char_traits<char>, std::__ndk1::allocator<char> > >, true>, std::__ndk1::allocator<std::__ndk1::__value_type<std::__ndk1::basic_string<char, std::__ndk1::char_traits<char>, std::__ndk1::allocator<char> >, std::__ndk1::shared_ptr<geode::Hook> > > >::__find_equal<std::__ndk1::basic_string<char, std::__ndk1::char_traits<char>, std::__ndk1::allocator<char> > >(std::__ndk1::__tree_end_node<std::__ndk1::__tree_node_base<void*>*>*&, std::__ndk1::basic_string<char, std::__ndk1::char_traits<char>, std::__ndk1::allocator<char> > const&)
FUNC 834f0 19c 0 std::__ndk1::__tree_balance_after_insert[abi:ne180000]<std::__ndk1::__tree_node_base<void*>*>(std::__ndk1::__tree_node_base<void*>*, std::__ndk1::__tree_node_base<void*>*)
FUNC 8368c e4 0 geode::cast::traverseTypeinfoFor(void*, geode::cast::ClassTypeinfoType const*, char const*)
FUNC 83770 50 0 std::__ndk1::shared_ptr<geode::StringSettingV3>::~shared_ptr[abi:ne180000]()
FUNC 837c0 20 0 std::__ndk1::__function::__func<CustomObjects::onWorkshop(cocos2d::CCObject*)::$_0, std::__ndk1::allocator<CustomObjects::onWorkshop(cocos2d::CCObject*)::$_0>, void (int)>::~__func()
FUNC 837e0 40 0 std::__ndk1::__function::__func<CustomObjects::onWorkshop(cocos2d::CCObject*)::$_0, std::__ndk1::allocator<CustomObjects::onWorkshop(cocos2d::CCObject*)::$_0>, void (int)>::~__func()
FUNC 83820 84 0 std::__ndk1::__function::__func<CustomObjects::onWorkshop(cocos2d::CCObject*)::$_0, std::__ndk1::allocator<CustomObjects::onWorkshop(cocos2d::CCObject*)::$_0>, void (int)>::__clone() const
FUNC 838a4 4c 0 std::__ndk1::__function::__func<CustomObjects::onWorkshop(cocos2d::CCObject*)::$_0, std::__ndk1::allocator<CustomObjects::onWorkshop(cocos2d::CCObject*)::$_0>, void (int)>::__clone(std::__ndk1::__function::__base<void (int)>*) const
FUNC 838f0 14 0 std::__ndk1::__function::__func<CustomObjects::onWorkshop(cocos2d::CCObject*)::$_0, std::__ndk1::allocator<CustomObjects::onWorkshop(cocos2d::CCObject*)::$_0>, void (int)>::destroy()
FUNC 83904 34 0 std::__ndk1::__function::__func<CustomObjects::onWorkshop(cocos2d::CCObject*)::$_0, std::__ndk1::allocator<CustomObjects::onWorkshop(cocos2d::CCObject*)::$_0>, void (int)>::destroy_deallocate()
FUNC 83938 550 0 std::__ndk1::__function::__func<CustomObjects::onWorkshop(cocos2d::CCObject*)::$_0, std::__ndk1::allocator<CustomObjects::onWorkshop(cocos2d::CCObject*)::$_0>, void (int)>::operator()(int&&)
FUNC 83e88 1c 0 std::__ndk1::__function::__func<CustomObjects::onWorkshop(cocos2d::CCObject*)::$_0, std::__ndk1::allocator<CustomObjects::onWorkshop(cocos2d::CCObject*)::$_0>, void (int)>::target(std::type_info const&) const
FUNC 83ea4 c 0 std::__ndk1::__function::__func<CustomObjects::onWorkshop(cocos2d::CCObject*)::$_0, std::__ndk1::allocator<CustomObjects::onWorkshop(cocos2d::CCObject*)::$_0>, void (int)>::target_type() const
FUNC 83eb0 f4 0 ObjectWorkshop::create(bool)
FUNC 83fa4 12c 0 dashauth::DashAuthRequest::getToken(geode::Mod*, std::__ndk1::basic_string<char, std::__ndk1::char_traits<char>, std::__ndk1::allocator<char> > const&)
FUNC 840d0 1cc 0 dashauth::SentDashAuthRequest::then(std::__ndk1::function<void (std::__ndk1::basic_string<char, std::__ndk1::char_traits<char>, std::__ndk1::allocator<char> > const&)>)
FUNC 8429c 8c 0 authentication::AuthenticationManager::get()
FUNC 84328 59c 0 ObjectWorkshop::ObjectWorkshop()
FUNC 848c4 70 0 std::__ndk1::unordered_set<std::__ndk1::basic_string<char, std::__ndk1::char_traits<char>, std::__ndk1::allocator<char> >, std::__ndk1::hash<std::__ndk1::basic_string<char, std::__ndk1::char_traits<char>, std::__ndk1::allocator<char> > >, std::__ndk1::equal_to<std::__ndk1::basic_string<char, std::__ndk1::char_traits<char>, std::__ndk1::allocator<char> > >, std::__ndk1::allocator<std::__ndk1::basic_string<char, std::__ndk1::char_traits<char>, std::__ndk1::allocator<char> > > >::~unordered_set[abi:ne180000]()
FUNC 84934 144 0 ObjectData::~ObjectData()
FUNC 84a78 b0 0 UserData::~UserData()
FUNC 84b28 8c 0 geode::EventListener<geode::Task<geode::utils::web::WebResponse, geode::utils::web::WebProgress> >::~EventListener()
FUNC 84bb4 6c 0 geode::Popup<bool>::~Popup()
FUNC 84c20 4 0 geode::Popup<bool>::~Popup()
FUNC 84c24 2c 0 geode::Popup<bool>::registerWithTouchDispatcher()
FUNC 84c50 28 0 geode::Popup<bool>::keyDown(cocos2d::enumKeyCodes)
FUNC 84c78 148 0 geode::Popup<bool>::onClose(cocos2d::CCObject*)
FUNC 84dc0 6c 0 {virtual override thunk({offset(-320)}, geode::Popup<bool>::~Popup())}
FUNC 84e2c 4 0 {virtual override thunk({offset(-320)}, geode::Popup<bool>::~Popup())}
FUNC 84e30 2c 0 {virtual override thunk({offset(-344)}, geode::Popup<bool>::keyDown(cocos2d::enumKeyCodes))}
FUNC 84e5c 50 0 geode::Popup<bool>::CloseEvent::~CloseEvent()
FUNC 84eac 58 0 geode::Popup<bool>::CloseEvent::~CloseEvent()
FUNC 84f04 10 0 std::__ndk1::__shared_ptr_emplace<geode::Popup<bool>::CloseEvent::Impl, std::__ndk1::allocator<geode::Popup<bool>::CloseEvent::Impl> >::~__shared_ptr_emplace()
FUNC 84f14 30 0 std::__ndk1::__shared_ptr_emplace<geode::Popup<bool>::CloseEvent::Impl, std::__ndk1::allocator<geode::Popup<bool>::CloseEvent::Impl> >::~__shared_ptr_emplace()
FUNC 84f44 4 0 std::__ndk1::__shared_ptr_emplace<geode::Popup<bool>::CloseEvent::Impl, std::__ndk1::allocator<geode::Popup<bool>::CloseEvent::Impl> >::__on_zero_shared()
FUNC 84f48 4 0 std::__ndk1::__shared_ptr_emplace<geode::Popup<bool>::CloseEvent::Impl, std::__ndk1::allocator<geode::Popup<bool>::CloseEvent::Impl> >::__on_zero_shared_weak()
FUNC 84f4c 4 0 geode::EventListener<geode::Task<geode::utils::web::WebResponse, geode::utils::web::WebProgress> >::getPool() const
FUNC 84f50 1ac 0 geode::EventListener<geode::Task<geode::utils::web::WebResponse, geode::utils::web::WebProgress> >::handle(geode::Event*)
FUNC 850fc 94 0 geode::EventListener<geode::Task<geode::utils::web::WebResponse, geode::utils::web::WebProgress> >::~EventListener()
FUNC 85190 50 0 std::__ndk1::shared_ptr<geode::Task<geode::utils::web::WebResponse, geode::utils::web::WebProgress>::Handle>::~shared_ptr[abi:ne180000]()
FUNC 851e0 2f4 0 geode::Popup<bool>::initBase(float, float, bool, char const*, cocos2d::CCRect, bool)
FUNC 854d4 1d4 0 dashauth::SentDashAuthRequest::SentDashAuthRequest()
FUNC 856a8 ac 0 std::__ndk1::basic_string<char, std::__ndk1::char_traits<char>, std::__ndk1::allocator<char> >::__assign_no_alias<true>(char const*, unsigned long)
FUNC 85754 100 0 std::__ndk1::basic_string<char, std::__ndk1::char_traits<char>, std::__ndk1::allocator<char> >::__assign_no_alias<false>(char const*, unsigned long)
FUNC 85854 168 0 std::__ndk1::__function::__value_func<void (std::__ndk1::basic_string<char, std::__ndk1::char_traits<char>, std::__ndk1::allocator<char> > const&)>::swap[abi:ne180000](std::__ndk1::__function::__value_func<void (std::__ndk1::basic_string<char, std::__ndk1::char_traits<char>, std::__ndk1::allocator<char> > const&)>&)
FUNC 859bc 4 0 std::__ndk1::__function::__func<CustomObjects::onWorkshop(cocos2d::CCObject*)::$_0::operator()(int) const::{lambda(std::__ndk1::basic_string<char, std::__ndk1::char_traits<char>, std::__ndk1::allocator<char> >)#1}, std::__ndk1::allocator<CustomObjects::onWorkshop(cocos2d::CCObject*)::$_0::operator()(int) const::{lambda(std::__ndk1::basic_string<char, std::__ndk1::char_traits<char>, std::__ndk1::allocator<char> >)#1}>, void (std::__ndk1::basic_string<char, std::__ndk1::char_traits<char>, std::__ndk1::allocator<char> > const&)>::~__func()
FUNC 859c0 34 0 std::__ndk1::__function::__func<CustomObjects::onWorkshop(cocos2d::CCObject*)::$_0::operator()(int) const::{lambda(std::__ndk1::basic_string<char, std::__ndk1::char_traits<char>, std::__ndk1::allocator<char> >)#1}, std::__ndk1::allocator<CustomObjects::onWorkshop(cocos2d::CCObject*)::$_0::operator()(int) const::{lambda(std::__ndk1::basic_string<char, std::__ndk1::char_traits<char>, std::__ndk1::allocator<char> >)#1}>, void (std::__ndk1::basic_string<char, std::__ndk1::char_traits<char>, std::__ndk1::allocator<char> > const&)>::__clone() const
FUNC 859f4 14 0 std::__ndk1::__function::__func<CustomObjects::onWorkshop(cocos2d::CCObject*)::$_0::operator()(int) const::{lambda(std::__ndk1::basic_string<char, std::__ndk1::char_traits<char>, std::__ndk1::allocator<char> >)#1}, std::__ndk1::allocator<CustomObjects::onWorkshop(cocos2d::CCObject*)::$_0::operator()(int) const::{lambda(std::__ndk1::basic_string<char, std::__ndk1::char_traits<char>, std::__ndk1::allocator<char> >)#1}>, void (std::__ndk1::basic_string<char, std::__ndk1::char_traits<char>, std::__ndk1::allocator<char> > const&)>::__clone(std::__ndk1::__function::__base<void (std::__ndk1::basic_string<char, std::__ndk1::char_traits<char>, std::__ndk1::allocator<char> > const&)>*) const
FUNC 85a08 4 0 std::__ndk1::__function::__func<CustomObjects::onWorkshop(cocos2d::CCObject*)::$_0::operator()(int) const::{lambda(std::__ndk1::basic_string<char, std::__ndk1::char_traits<char>, std::__ndk1::allocator<char> >)#1}, std::__ndk1::allocator<CustomObjects::onWorkshop(cocos2d::CCObject*)::$_0::operator()(int) const::{lambda(std::__ndk1::basic_string<char, std::__ndk1::char_traits<char>, std::__ndk1::allocator<char> >)#1}>, void (std::__ndk1::basic_string<char, std::__ndk1::char_traits<char>, std::__ndk1::allocator<char> > const&)>::destroy()
FUNC 85a0c 4 0 std::__ndk1::__function::__func<CustomObjects::onWorkshop(cocos2d::CCObject*)::$_0::operator()(int) const::{lambda(std::__ndk1::basic_string<char, std::__ndk1::char_traits<char>, std::__ndk1::allocator<char> >)#1}, std::__ndk1::allocator<CustomObjects::onWorkshop(cocos2d::CCObject*)::$_0::operator()(int) const::{lambda(std::__ndk1::basic_string<char, std::__ndk1::char_traits<char>, std::__ndk1::allocator<char> >)#1}>, void (std::__ndk1::basic_string<char, std::__ndk1::char_traits<char>, std::__ndk1::allocator<char> > const&)>::destroy_deallocate()
FUNC 85a10 1ac 0 std::__ndk1::__function::__func<CustomObjects::onWorkshop(cocos2d::CCObject*)::$_0::operator()(int) const::{lambda(std::__ndk1::basic_string<char, std::__ndk1::char_traits<char>, std::__ndk1::allocator<char> >)#1}, std::__ndk1::allocator<CustomObjects::onWorkshop(cocos2d::CCObject*)::$_0::operator()(int) const::{lambda(std::__ndk1::basic_string<char, std::__ndk1::char_traits<char>, std::__ndk1::allocator<char> >)#1}>, void (std::__ndk1::basic_string<char, std::__ndk1::char_traits<char>, std::__ndk1::allocator<char> > const&)>::operator()(std::__ndk1::basic_string<char, std::__ndk1::char_traits<char>, std::__ndk1::allocator<char> > const&)
FUNC 85bbc 1c 0 std::__ndk1::__function::__func<CustomObjects::onWorkshop(cocos2d::CCObject*)::$_0::operator()(int) const::{lambda(std::__ndk1::basic_string<char, std::__ndk1::char_traits<char>, std::__ndk1::allocator<char> >)#1}, std::__ndk1::allocator<CustomObjects::onWorkshop(cocos2d::CCObject*)::$_0::operator()(int) const::{lambda(std::__ndk1::basic_string<char, std::__ndk1::char_traits<char>, std::__ndk1::allocator<char> >)#1}>, void (std::__ndk1::basic_string<char, std::__ndk1::char_traits<char>, std::__ndk1::allocator<char> > const&)>::target(std::type_info const&) const
FUNC 85bd8 c 0 std::__ndk1::__function::__func<CustomObjects::onWorkshop(cocos2d::CCObject*)::$_0::operator()(int) const::{lambda(std::__ndk1::basic_string<char, std::__ndk1::char_traits<char>, std::__ndk1::allocator<char> >)#1}, std::__ndk1::allocator<CustomObjects::onWorkshop(cocos2d::CCObject*)::$_0::operator()(int) const::{lambda(std::__ndk1::basic_string<char, std::__ndk1::char_traits<char>, std::__ndk1::allocator<char> >)#1}>, void (std::__ndk1::basic_string<char, std::__ndk1::char_traits<char>, std::__ndk1::allocator<char> > const&)>::target_type() const
FUNC 85be4 f8 0 std::__ndk1::thread::thread<dashauth::SentDashAuthRequest::then(std::__ndk1::function<void (std::__ndk1::basic_string<char, std::__ndk1::char_traits<char>, std::__ndk1::allocator<char> > const&)>)::{lambda()#1}, , void>(&&)
FUNC 85cdc b8 0 std::__ndk1::__thread_proxy[abi:ne180000]<std::__ndk1::tuple<std::__ndk1::unique_ptr<std::__ndk1::__thread_struct, std::__ndk1::default_delete<std::__ndk1::unique_ptr> >, dashauth::SentDashAuthRequest::then(std::__ndk1::function<void (std::__ndk1::basic_string<char, std::__ndk1::char_traits<char>, std::__ndk1::allocator<char> > const&)>)::{lambda()#1}> >(std::__ndk1::tuple<std::__ndk1::unique_ptr<std::__ndk1::__thread_struct, std::__ndk1::default_delete<std::__ndk1::unique_ptr> >, dashauth::SentDashAuthRequest::then(std::__ndk1::function<void (std::__ndk1::basic_string<char, std::__ndk1::char_traits<char>, std::__ndk1::allocator<char> > const&)>)::{lambda()#1}>)
FUNC 85d94 50 0 std::__ndk1::unique_ptr<std::__ndk1::tuple<std::__ndk1::unique_ptr<std::__ndk1::__thread_struct, std::__ndk1::default_delete<std::__ndk1::__thread_struct> >, dashauth::SentDashAuthRequest::then(std::__ndk1::function<void (std::__ndk1::basic_string<char, std::__ndk1::char_traits<char>, std::__ndk1::allocator<char> > const&)>)::{lambda()#1}>, std::__ndk1::default_delete<std::__ndk1::tuple<std::__ndk1::unique_ptr<std::__ndk1::__thread_struct, std::__ndk1::default_delete<std::__ndk1::__thread_struct> >, dashauth::SentDashAuthRequest::then(std::__ndk1::function<void (std::__ndk1::basic_string<char, std::__ndk1::char_traits<char>, std::__ndk1::allocator<char> > const&)>)::{lambda()#1}> > >::~unique_ptr[abi:ne180000]()
FUNC 85de4 3c 0 std::__ndk1::unique_ptr<std::__ndk1::__thread_struct, std::__ndk1::default_delete<std::__ndk1::__thread_struct> >::~unique_ptr[abi:ne180000]()
FUNC 85e20 290 0 dashauth::SentDashAuthRequest::then(std::__ndk1::function<void (std::__ndk1::basic_string<char, std::__ndk1::char_traits<char>, std::__ndk1::allocator<char> > const&)>)::{lambda()#1}::operator()() const
FUNC 860b0 74 0 geode::EventListener<geode::Task<geode::utils::web::WebResponse, geode::utils::web::WebProgress> >::setFilter(geode::Task<geode::utils::web::WebResponse, geode::utils::web::WebProgress>)
FUNC 86124 4 0 std::__ndk1::__function::__func<dashauth::SentDashAuthRequest::then(std::__ndk1::function<void (std::__ndk1::basic_string<char, std::__ndk1::char_traits<char>, std::__ndk1::allocator<char> > const&)>)::{lambda()#1}::operator()() const::{lambda(geode::Task<geode::utils::web::WebResponse, geode::utils::web::WebProgress>::Event*)#1}, std::__ndk1::allocator<dashauth::SentDashAuthRequest::then(std::__ndk1::function<void (std::__ndk1::basic_string<char, std::__ndk1::char_traits<char>, std::__ndk1::allocator<char> > const&)>)::{lambda()#1}::operator()() const::{lambda(geode::Task<geode::utils::web::WebResponse, geode::utils::web::WebProgress>::Event*)#1}>, void (geode::Task<geode::utils::web::WebResponse, geode::utils::web::WebProgress>::Event*)>::~__func()
FUNC 86128 38 0 std::__ndk1::__function::__func<dashauth::SentDashAuthRequest::then(std::__ndk1::function<void (std::__ndk1::basic_string<char, std::__ndk1::char_traits<char>, std::__ndk1::allocator<char> > const&)>)::{lambda()#1}::operator()() const::{lambda(geode::Task<geode::utils::web::WebResponse, geode::utils::web::WebProgress>::Event*)#1}, std::__ndk1::allocator<dashauth::SentDashAuthRequest::then(std::__ndk1::function<void (std::__ndk1::basic_string<char, std::__ndk1::char_traits<char>, std::__ndk1::allocator<char> > const&)>)::{lambda()#1}::operator()() const::{lambda(geode::Task<geode::utils::web::WebResponse, geode::utils::web::WebProgress>::Event*)#1}>, void (geode::Task<geode::utils::web::WebResponse, geode::utils::web::WebProgress>::Event*)>::__clone() const
FUNC 86160 18 0 std::__ndk1::__function::__func<dashauth::SentDashAuthRequest::then(std::__ndk1::function<void (std::__ndk1::basic_string<char, std::__ndk1::char_traits<char>, std::__ndk1::allocator<char> > const&)>)::{lambda()#1}::operator()() const::{lambda(geode::Task<geode::utils::web::WebResponse, geode::utils::web::WebProgress>::Event*)#1}, std::__ndk1::allocator<dashauth::SentDashAuthRequest::then(std::__ndk1::function<void (std::__ndk1::basic_string<char, std::__ndk1::char_traits<char>, std::__ndk1::allocator<char> > const&)>)::{lambda()#1}::operator()() const::{lambda(geode::Task<geode::utils::web::WebResponse, geode::utils::web::WebProgress>::Event*)#1}>, void (geode::Task<geode::utils::web::WebResponse, geode::utils::web::WebProgress>::Event*)>::__clone(std::__ndk1::__function::__base<void (geode::Task<geode::utils::web::WebResponse, geode::utils::web::WebProgress>::Event*)>*) const
FUNC 86178 4 0 std::__ndk1::__function::__func<dashauth::SentDashAuthRequest::then(std::__ndk1::function<void (std::__ndk1::basic_string<char, std::__ndk1::char_traits<char>, std::__ndk1::allocator<char> > const&)>)::{lambda()#1}::operator()() const::{lambda(geode::Task<geode::utils::web::WebResponse, geode::utils::web::WebProgress>::Event*)#1}, std::__ndk1::allocator<dashauth::SentDashAuthRequest::then(std::__ndk1::function<void (std::__ndk1::basic_string<char, std::__ndk1::char_traits<char>, std::__ndk1::allocator<char> > const&)>)::{lambda()#1}::operator()() const::{lambda(geode::Task<geode::utils::web::WebResponse, geode::utils::web::WebProgress>::Event*)#1}>, void (geode::Task<geode::utils::web::WebResponse, geode::utils::web::WebProgress>::Event*)>::destroy()
FUNC 8617c 4 0 std::__ndk1::__function::__func<dashauth::SentDashAuthRequest::then(std::__ndk1::function<void (std::__ndk1::basic_string<char, std::__ndk1::char_traits<char>, std::__ndk1::allocator<char> > const&)>)::{lambda()#1}::operator()() const::{lambda(geode::Task<geode::utils::web::WebResponse, geode::utils::web::WebProgress>::Event*)#1}, std::__ndk1::allocator<dashauth::SentDashAuthRequest::then(std::__ndk1::function<void (std::__ndk1::basic_string<char, std::__ndk1::char_traits<char>, std::__ndk1::allocator<char> > const&)>)::{lambda()#1}::operator()() const::{lambda(geode::Task<geode::utils::web::WebResponse, geode::utils::web::WebProgress>::Event*)#1}>, void (geode::Task<geode::utils::web::WebResponse, geode::utils::web::WebProgress>::Event*)>::destroy_deallocate()
FUNC 86180 c 0 std::__ndk1::__function::__func<dashauth::SentDashAuthRequest::then(std::__ndk1::function<void (std::__ndk1::basic_string<char, std::__ndk1::char_traits<char>, std::__ndk1::allocator<char> > const&)>)::{lambda()#1}::operator()() const::{lambda(geode::Task<geode::utils::web::WebResponse, geode::utils::web::WebProgress>::Event*)#1}, std::__ndk1::allocator<dashauth::SentDashAuthRequest::then(std::__ndk1::function<void (std::__ndk1::basic_string<char, std::__ndk1::char_traits<char>, std::__ndk1::allocator<char> > const&)>)::{lambda()#1}::operator()() const::{lambda(geode::Task<geode::utils::web::WebResponse, geode::utils::web::WebProgress>::Event*)#1}>, void (geode::Task<geode::utils::web::WebResponse, geode::utils::web::WebProgress>::Event*)>::operator()(geode::Task<geode::utils::web::WebResponse, geode::utils::web::WebProgress>::Event*&&)
FUNC 8618c 1c 0 std::__ndk1::__function::__func<dashauth::SentDashAuthRequest::then(std::__ndk1::function<void (std::__ndk1::basic_string<char, std::__ndk1::char_traits<char>, std::__ndk1::allocator<char> > const&)>)::{lambda()#1}::operator()() const::{lambda(geode::Task<geode::utils::web::WebResponse, geode::utils::web::WebProgress>::Event*)#1}, std::__ndk1::allocator<dashauth::SentDashAuthRequest::then(std::__ndk1::function<void (std::__ndk1::basic_string<char, std::__ndk1::char_traits<char>, std::__ndk1::allocator<char> > const&)>)::{lambda()#1}::operator()() const::{lambda(geode::Task<geode::utils::web::WebResponse, geode::utils::web::WebProgress>::Event*)#1}>, void (geode::Task<geode::utils::web::WebResponse, geode::utils::web::WebProgress>::Event*)>::target(std::type_info const&) const
FUNC 861a8 c 0 std::__ndk1::__function::__func<dashauth::SentDashAuthRequest::then(std::__ndk1::function<void (std::__ndk1::basic_string<char, std::__ndk1::char_traits<char>, std::__ndk1::allocator<char> > const&)>)::{lambda()#1}::operator()() const::{lambda(geode::Task<geode::utils::web::WebResponse, geode::utils::web::WebProgress>::Event*)#1}, std::__ndk1::allocator<dashauth::SentDashAuthRequest::then(std::__ndk1::function<void (std::__ndk1::basic_string<char, std::__ndk1::char_traits<char>, std::__ndk1::allocator<char> > const&)>)::{lambda()#1}::operator()() const::{lambda(geode::Task<geode::utils::web::WebResponse, geode::utils::web::WebProgress>::Event*)#1}>, void (geode::Task<geode::utils::web::WebResponse, geode::utils::web::WebProgress>::Event*)>::target_type() const
FUNC 861b4 267c 0 dashauth::SentDashAuthRequest::then(std::__ndk1::function<void (std::__ndk1::basic_string<char, std::__ndk1::char_traits<char>, std::__ndk1::allocator<char> > const&)>)::{lambda()#1}::operator()() const::{lambda(geode::Task<geode::utils::web::WebResponse, geode::utils::web::WebProgress>::Event*)#1}::operator()(geode::Task<geode::utils::web::WebResponse, geode::utils::web::WebProgress>::Event*) const
FUNC 88830 ac 0 geode::log::info<std::__ndk1::basic_string<char, std::__ndk1::char_traits<char>, std::__ndk1::allocator<char> >&>(fmt::v11::basic_format_string<char, fmt::v11::type_identity<std::__ndk1::conditional<IsWrappedCocos<std::__ndk1::basic_string<char, std::__ndk1::char_traits<char>, std::__ndk1::allocator<char> >&>, decltype ((wrapCocosObj<std::__ndk1::basic_string<char, std::__ndk1::char_traits<char>, std::__ndk1::allocator<char> >&>)((std::declval<std::__ndk1::basic_string<char, std::__ndk1::char_traits<char>, std::__ndk1::allocator<char> >&>)())), std::__ndk1::basic_string<char, std::__ndk1::char_traits<char>, std::__ndk1::allocator<char> >&>::type>::type>, std::__ndk1::basic_string<char, std::__ndk1::char_traits<char>, std::__ndk1::allocator<char> >&)
FUNC 888dc 118 0 std::__ndk1::basic_stringstream<char, std::__ndk1::char_traits<char>, std::__ndk1::allocator<char> >::basic_stringstream[abi:ne180000](std::__ndk1::basic_string<char, std::__ndk1::char_traits<char>, std::__ndk1::allocator<char> > const&, unsigned int)
FUNC 889f4 1b4 0 std::__ndk1::getline[abi:ne180000]<char, std::__ndk1::char_traits<char>, std::__ndk1::allocator<char> >(std::__ndk1::basic_istream<char, std::__ndk1::char_traits<char> >, std::__ndk1::basic_string<std::__ndk1::basic_istream, char, std::__ndk1::allocator<char> >&, std::__ndk1::basic_istream)
FUNC 88ba8 84 0 geode::log::info<>(fmt::v11::basic_format_string<char, fmt::v11::type_identity<std::__ndk1::conditional<IsWrappedCocos<>, decltype ((wrapCocosObj<>)((std::declval<>)())), >::type>::type>, &&)
FUNC 88c2c d8 0 fmt::v11::detail::value<fmt::v11::context>::format_custom_arg<std::__ndk1::optional<std::__ndk1::basic_string<char, std::__ndk1::char_traits<char>, std::__ndk1::allocator<char> > >, fmt::v11::formatter<std::__ndk1::optional<std::__ndk1::basic_string<char, std::__ndk1::char_traits<char>, std::__ndk1::allocator<char> > >, char, void> >(void*, fmt::v11::basic_format_parse_context<char>&, fmt::v11::context&)
FUNC 88d04 1a4 0 fmt::v11::formatter<std::__ndk1::optional<std::__ndk1::basic_string<char, std::__ndk1::char_traits<char>, std::__ndk1::allocator<char> > >, char, void>::format<fmt::v11::context>(std::__ndk1::optional<std::__ndk1::basic_string<char, std::__ndk1::char_traits<char>, std::__ndk1::allocator<char> > > const&, fmt::v11::context&) const
FUNC 88ea8 150 0 fmt::v11::detail::copy_noinline<char, char const*, fmt::v11::basic_appender<char> >(char const*, char const*, fmt::v11::basic_appender<char>)
FUNC 88ff8 4 0 std::__ndk1::__variant_detail::__visitation::__base::__dispatcher<(unsigned long)0>::__dispatch[abi:ne180000]<std::__ndk1::__variant_detail::__dtor<std::__ndk1::__variant_detail::__traits<bool, std::__ndk1::basic_string<char, std::__ndk1::char_traits<char>, std::__ndk1::allocator<char> > >, (std::__ndk1::__variant_detail::_Trait)1>::__destroy[abi:ne180000]()::{lambda(auto:1&)#1}, std::__ndk1::__variant_detail::__base<(std::__ndk1::__variant_detail::__traits<bool, std::__ndk1::basic_string<char, std::__ndk1::char_traits<char>, std::__ndk1::allocator<char> > >)1, bool, std::__ndk1::allocator<char> >&>(std::__ndk1::__variant_detail::__dtor<std::__ndk1::__variant_detail::__traits<bool, std::__ndk1::basic_string<char, std::__ndk1::char_traits<char>, std::__ndk1::allocator<char> > >, (std::__ndk1::__variant_detail::_Trait)1>, std::__ndk1::__variant_detail::__base<(std::__ndk1::__variant_detail::__traits<bool, std::__ndk1::basic_string<char, std::__ndk1::char_traits<char>, std::__ndk1::allocator<char> > >)1, bool, std::__ndk1::allocator<char> >&)
FUNC 88ffc 14 0 std::__ndk1::__variant_detail::__visitation::__base::__dispatcher<(unsigned long)1>::__dispatch[abi:ne180000]<std::__ndk1::__variant_detail::__dtor<std::__ndk1::__variant_detail::__traits<bool, std::__ndk1::basic_string<char, std::__ndk1::char_traits<char>, std::__ndk1::allocator<char> > >, (std::__ndk1::__variant_detail::_Trait)1>::__destroy[abi:ne180000]()::{lambda(auto:1&)#1}, std::__ndk1::__variant_detail::__base<(std::__ndk1::__variant_detail::__traits<bool, std::__ndk1::basic_string<char, std::__ndk1::char_traits<char>, std::__ndk1::allocator<char> > >)1, bool, std::__ndk1::allocator<char> >&>(std::__ndk1::__variant_detail::__dtor<std::__ndk1::__variant_detail::__traits<bool, std::__ndk1::basic_string<char, std::__ndk1::char_traits<char>, std::__ndk1::allocator<char> > >, (std::__ndk1::__variant_detail::_Trait)1>, std::__ndk1::__variant_detail::__base<(std::__ndk1::__variant_detail::__traits<bool, std::__ndk1::basic_string<char, std::__ndk1::char_traits<char>, std::__ndk1::allocator<char> > >)1, bool, std::__ndk1::allocator<char> >&)
FUNC 89010 4 0 std::__ndk1::__variant_detail::__visitation::__base::__dispatcher<(unsigned long)0>::__dispatch[abi:ne180000]<std::__ndk1::__variant_detail::__dtor<std::__ndk1::__variant_detail::__traits<long, std::__ndk1::basic_string<char, std::__ndk1::char_traits<char>, std::__ndk1::allocator<char> > >, (std::__ndk1::__variant_detail::_Trait)1>::__destroy[abi:ne180000]()::{lambda(auto:1&)#1}, std::__ndk1::__variant_detail::__base<(std::__ndk1::__variant_detail::__traits<long, std::__ndk1::basic_string<char, std::__ndk1::char_traits<char>, std::__ndk1::allocator<char> > >)1, long, std::__ndk1::allocator<char> >&>(std::__ndk1::__variant_detail::__dtor<std::__ndk1::__variant_detail::__traits<long, std::__ndk1::basic_string<char, std::__ndk1::char_traits<char>, std::__ndk1::allocator<char> > >, (std::__ndk1::__variant_detail::_Trait)1>, std::__ndk1::__variant_detail::__base<(std::__ndk1::__variant_detail::__traits<long, std::__ndk1::basic_string<char, std::__ndk1::char_traits<char>, std::__ndk1::allocator<char> > >)1, long, std::__ndk1::allocator<char> >&)
FUNC 89014 14 0 std::__ndk1::__variant_detail::__visitation::__base::__dispatcher<(unsigned long)1>::__dispatch[abi:ne180000]<std::__ndk1::__variant_detail::__dtor<std::__ndk1::__variant_detail::__traits<long, std::__ndk1::basic_string<char, std::__ndk1::char_traits<char>, std::__ndk1::allocator<char> > >, (std::__ndk1::__variant_detail::_Trait)1>::__destroy[abi:ne180000]()::{lambda(auto:1&)#1}, std::__ndk1::__variant_detail::__base<(std::__ndk1::__variant_detail::__traits<long, std::__ndk1::basic_string<char, std::__ndk1::char_traits<char>, std::__ndk1::allocator<char> > >)1, long, std::__ndk1::allocator<char> >&>(std::__ndk1::__variant_detail::__dtor<std::__ndk1::__variant_detail::__traits<long, std::__ndk1::basic_string<char, std::__ndk1::char_traits<char>, std::__ndk1::allocator<char> > >, (std::__ndk1::__variant_detail::_Trait)1>, std::__ndk1::__variant_detail::__base<(std::__ndk1::__variant_detail::__traits<long, std::__ndk1::basic_string<char, std::__ndk1::char_traits<char>, std::__ndk1::allocator<char> > >)1, long, std::__ndk1::allocator<char> >&)
FUNC 89028 b0 0 std::__ndk1::basic_stringbuf<char, std::__ndk1::char_traits<char>, std::__ndk1::allocator<char> >::basic_stringbuf[abi:ne180000](std::__ndk1::basic_string<char, std::__ndk1::char_traits<char>, std::__ndk1::allocator<char> > const&, unsigned int)
FUNC 890d8 130 0 std::__ndk1::__tree<std::__ndk1::__value_type<std::__ndk1::basic_string<char, std::__ndk1::char_traits<char>, std::__ndk1::allocator<char> >, std::__ndk1::basic_string<char, std::__ndk1::char_traits<char>, std::__ndk1::allocator<char> > >, std::__ndk1::__map_value_compare<std::__ndk1::basic_string<char, std::__ndk1::char_traits<char>, std::__ndk1::allocator<char> >, std::__ndk1::__value_type<std::__ndk1::basic_string<char, std::__ndk1::char_traits<char>, std::__ndk1::allocator<char> >, std::__ndk1::basic_string<char, std::__ndk1::char_traits<char>, std::__ndk1::allocator<char> > >, std::__ndk1::less<std::__ndk1::basic_string<char, std::__ndk1::char_traits<char>, std::__ndk1::allocator<char> > >, true>, std::__ndk1::allocator<std::__ndk1::__value_type<std::__ndk1::basic_string<char, std::__ndk1::char_traits<char>, std::__ndk1::allocator<char> >, std::__ndk1::basic_string<char, std::__ndk1::char_traits<char>, std::__ndk1::allocator<char> > > > >::__emplace_unique_key_args<std::__ndk1::basic_string<char, std::__ndk1::char_traits<char>, std::__ndk1::allocator<char> >, std::__ndk1::piecewise_construct_t const&, std::__ndk1::tuple<std::__ndk1::basic_string<char, std::__ndk1::char_traits<char>, std::__ndk1::allocator<char> > const&>, std::__ndk1::tuple<> >(std::__ndk1::basic_string<char, std::__ndk1::char_traits<char>, std::__ndk1::allocator<char> > const&, std::__ndk1::piecewise_construct_t const&, std::__ndk1::tuple<std::__ndk1::basic_string<char, std::__ndk1::char_traits<char>, std::__ndk1::allocator<char> > const&>, std::__ndk1::tuple<>)
FUNC 89208 104 0 std::__ndk1::__tree<std::__ndk1::__value_type<std::__ndk1::basic_string<char, std::__ndk1::char_traits<char>, std::__ndk1::allocator<char> >, std::__ndk1::basic_string<char, std::__ndk1::char_traits<char>, std::__ndk1::allocator<char> > >, std::__ndk1::__map_value_compare<std::__ndk1::basic_string<char, std::__ndk1::char_traits<char>, std::__ndk1::allocator<char> >, std::__ndk1::__value_type<std::__ndk1::basic_string<char, std::__ndk1::char_traits<char>, std::__ndk1::allocator<char> >, std::__ndk1::basic_string<char, std::__ndk1::char_traits<char>, std::__ndk1::allocator<char> > >, std::__ndk1::less<std::__ndk1::basic_string<char, std::__ndk1::char_traits<char>, std::__ndk1::allocator<char> > >, true>, std::__ndk1::allocator<std::__ndk1::__value_type<std::__ndk1::basic_string<char, std::__ndk1::char_traits<char>, std::__ndk1::allocator<char> >, std::__ndk1::basic_string<char, std::__ndk1::char_traits<char>, std::__ndk1::allocator<char> > > > >::__find_equal<std::__ndk1::basic_string<char, std::__ndk1::char_traits<char>, std::__ndk1::allocator<char> > >(std::__ndk1::__tree_end_node<std::__ndk1::__tree_node_base<void*>*>*&, std::__ndk1::basic_string<char, std::__ndk1::char_traits<char>, std::__ndk1::allocator<char> > const&)
FUNC 8930c 5c 0 std::__ndk1::unique_ptr<std::__ndk1::__tree_node<std::__ndk1::__value_type<std::__ndk1::basic_string<char, std::__ndk1::char_traits<char>, std::__ndk1::allocator<char> >, std::__ndk1::basic_string<char, std::__ndk1::char_traits<char>, std::__ndk1::allocator<char> > >, void*>, std::__ndk1::__tree_node_destructor<std::__ndk1::allocator<std::__ndk1::__tree_node<std::__ndk1::__value_type<std::__ndk1::basic_string<char, std::__ndk1::char_traits<char>, std::__ndk1::allocator<char> >, std::__ndk1::basic_string<char, std::__ndk1::char_traits<char>, std::__ndk1::allocator<char> > >, void*> > > >::~unique_ptr[abi:ne180000]()
FUNC 89368 14 0 std::__ndk1::vector<std::__ndk1::basic_string<char, std::__ndk1::char_traits<char>, std::__ndk1::allocator<char> >, std::__ndk1::allocator<std::__ndk1::basic_string<char, std::__ndk1::char_traits<char>, std::__ndk1::allocator<char> > > >::__throw_out_of_range[abi:ne180000]() const
FUNC 8937c 50 0 std::__ndk1::__throw_out_of_range[abi:ne180000](char const*)
FUNC 893cc 30 0 std::out_of_range::out_of_range[abi:ne180000](char const*)
FUNC 893fc 60 0 std::__ndk1::__tree<std::__ndk1::__value_type<std::__ndk1::basic_string<char, std::__ndk1::char_traits<char>, std::__ndk1::allocator<char> >, std::__ndk1::basic_string<char, std::__ndk1::char_traits<char>, std::__ndk1::allocator<char> > >, std::__ndk1::__map_value_compare<std::__ndk1::basic_string<char, std::__ndk1::char_traits<char>, std::__ndk1::allocator<char> >, std::__ndk1::__value_type<std::__ndk1::basic_string<char, std::__ndk1::char_traits<char>, std::__ndk1::allocator<char> >, std::__ndk1::basic_string<char, std::__ndk1::char_traits<char>, std::__ndk1::allocator<char> > >, std::__ndk1::less<std::__ndk1::basic_string<char, std::__ndk1::char_traits<char>, std::__ndk1::allocator<char> > >, true>, std::__ndk1::allocator<std::__ndk1::__value_type<std::__ndk1::basic_string<char, std::__ndk1::char_traits<char>, std::__ndk1::allocator<char> >, std::__ndk1::basic_string<char, std::__ndk1::char_traits<char>, std::__ndk1::allocator<char> > > > >::destroy(std::__ndk1::__tree_node<std::__ndk1::__value_type<std::__ndk1::basic_string<char, std::__ndk1::char_traits<char>, std::__ndk1::allocator<char> >, std::__ndk1::basic_string<char, std::__ndk1::char_traits<char>, std::__ndk1::allocator<char> > >, void*>*)
FUNC 8945c 4 0 std::__ndk1::__function::__func<CustomObjects::onWorkshop(cocos2d::CCObject*)::$_0::operator()(int) const::{lambda(std::__ndk1::basic_string<char, std::__ndk1::char_traits<char>, std::__ndk1::allocator<char> > const&)#1}, std::__ndk1::allocator<CustomObjects::onWorkshop(cocos2d::CCObject*)::$_0::operator()(int) const::{lambda(std::__ndk1::basic_string<char, std::__ndk1::char_traits<char>, std::__ndk1::allocator<char> > const&)#1}>, void (std::__ndk1::basic_string<char, std::__ndk1::char_traits<char>, std::__ndk1::allocator<char> > const&)>::~__func()
FUNC 89460 34 0 std::__ndk1::__function::__func<CustomObjects::onWorkshop(cocos2d::CCObject*)::$_0::operator()(int) const::{lambda(std::__ndk1::basic_string<char, std::__ndk1::char_traits<char>, std::__ndk1::allocator<char> > const&)#1}, std::__ndk1::allocator<CustomObjects::onWorkshop(cocos2d::CCObject*)::$_0::operator()(int) const::{lambda(std::__ndk1::basic_string<char, std::__ndk1::char_traits<char>, std::__ndk1::allocator<char> > const&)#1}>, void (std::__ndk1::basic_string<char, std::__ndk1::char_traits<char>, std::__ndk1::allocator<char> > const&)>::__clone() const
FUNC 89494 14 0 std::__ndk1::__function::__func<CustomObjects::onWorkshop(cocos2d::CCObject*)::$_0::operator()(int) const::{lambda(std::__ndk1::basic_string<char, std::__ndk1::char_traits<char>, std::__ndk1::allocator<char> > const&)#1}, std::__ndk1::allocator<CustomObjects::onWorkshop(cocos2d::CCObject*)::$_0::operator()(int) const::{lambda(std::__ndk1::basic_string<char, std::__ndk1::char_traits<char>, std::__ndk1::allocator<char> > const&)#1}>, void (std::__ndk1::basic_string<char, std::__ndk1::char_traits<char>, std::__ndk1::allocator<char> > const&)>::__clone(std::__ndk1::__function::__base<void (std::__ndk1::basic_string<char, std::__ndk1::char_traits<char>, std::__ndk1::allocator<char> > const&)>*) const
FUNC 894a8 4 0 std::__ndk1::__function::__func<CustomObjects::onWorkshop(cocos2d::CCObject*)::$_0::operator()(int) const::{lambda(std::__ndk1::basic_string<char, std::__ndk1::char_traits<char>, std::__ndk1::allocator<char> > const&)#1}, std::__ndk1::allocator<CustomObjects::onWorkshop(cocos2d::CCObject*)::$_0::operator()(int) const::{lambda(std::__ndk1::basic_string<char, std::__ndk1::char_traits<char>, std::__ndk1::allocator<char> > const&)#1}>, void (std::__ndk1::basic_string<char, std::__ndk1::char_traits<char>, std::__ndk1::allocator<char> > const&)>::destroy()
FUNC 894ac 4 0 std::__ndk1::__function::__func<CustomObjects::onWorkshop(cocos2d::CCObject*)::$_0::operator()(int) const::{lambda(std::__ndk1::basic_string<char, std::__ndk1::char_traits<char>, std::__ndk1::allocator<char> > const&)#1}, std::__ndk1::allocator<CustomObjects::onWorkshop(cocos2d::CCObject*)::$_0::operator()(int) const::{lambda(std::__ndk1::basic_string<char, std::__ndk1::char_traits<char>, std::__ndk1::allocator<char> > const&)#1}>, void (std::__ndk1::basic_string<char, std::__ndk1::char_traits<char>, std::__ndk1::allocator<char> > const&)>::destroy_deallocate()
FUNC 894b0 134 0 std::__ndk1::__function::__func<CustomObjects::onWorkshop(cocos2d::CCObject*)::$_0::operator()(int) const::{lambda(std::__ndk1::basic_string<char, std::__ndk1::char_traits<char>, std::__ndk1::allocator<char> > const&)#1}, std::__ndk1::allocator<CustomObjects::onWorkshop(cocos2d::CCObject*)::$_0::operator()(int) const::{lambda(std::__ndk1::basic_string<char, std::__ndk1::char_traits<char>, std::__ndk1::allocator<char> > const&)#1}>, void (std::__ndk1::basic_string<char, std::__ndk1::char_traits<char>, std::__ndk1::allocator<char> > const&)>::operator()(std::__ndk1::basic_string<char, std::__ndk1::char_traits<char>, std::__ndk1::allocator<char> > const&)
FUNC 895e4 1c 0 std::__ndk1::__function::__func<CustomObjects::onWorkshop(cocos2d::CCObject*)::$_0::operator()(int) const::{lambda(std::__ndk1::basic_string<char, std::__ndk1::char_traits<char>, std::__ndk1::allocator<char> > const&)#1}, std::__ndk1::allocator<CustomObjects::onWorkshop(cocos2d::CCObject*)::$_0::operator()(int) const::{lambda(std::__ndk1::basic_string<char, std::__ndk1::char_traits<char>, std::__ndk1::allocator<char> > const&)#1}>, void (std::__ndk1::basic_string<char, std::__ndk1::char_traits<char>, std::__ndk1::allocator<char> > const&)>::target(std::type_info const&) const
FUNC 89600 c 0 std::__ndk1::__function::__func<CustomObjects::onWorkshop(cocos2d::CCObject*)::$_0::operator()(int) const::{lambda(std::__ndk1::basic_string<char, std::__ndk1::char_traits<char>, std::__ndk1::allocator<char> > const&)#1}, std::__ndk1::allocator<CustomObjects::onWorkshop(cocos2d::CCObject*)::$_0::operator()(int) const::{lambda(std::__ndk1::basic_string<char, std::__ndk1::char_traits<char>, std::__ndk1::allocator<char> > const&)#1}>, void (std::__ndk1::basic_string<char, std::__ndk1::char_traits<char>, std::__ndk1::allocator<char> > const&)>::target_type() const
FUNC 8960c 4 0 std::__ndk1::__function::__func<CustomObjects::onWorkshop(cocos2d::CCObject*)::$_0::operator()(int) const::{lambda(std::__ndk1::basic_string<char, std::__ndk1::char_traits<char>, std::__ndk1::allocator<char> > const&)#1}::operator()(std::__ndk1::basic_string<char, std::__ndk1::char_traits<char>, std::__ndk1::allocator<char> > const&) const::{lambda(int)#1}, std::__ndk1::allocator<CustomObjects::onWorkshop(cocos2d::CCObject*)::$_0::operator()(int) const::{lambda(std::__ndk1::basic_string<char, std::__ndk1::char_traits<char>, std::__ndk1::allocator<char> > const&)#1}::operator()(std::__ndk1::basic_string<char, std::__ndk1::char_traits<char>, std::__ndk1::allocator<char> > const&) const::{lambda(int)#1}>, void (int)>::~__func()
FUNC 89610 34 0 std::__ndk1::__function::__func<CustomObjects::onWorkshop(cocos2d::CCObject*)::$_0::operator()(int) const::{lambda(std::__ndk1::basic_string<char, std::__ndk1::char_traits<char>, std::__ndk1::allocator<char> > const&)#1}::operator()(std::__ndk1::basic_string<char, std::__ndk1::char_traits<char>, std::__ndk1::allocator<char> > const&) const::{lambda(int)#1}, std::__ndk1::allocator<CustomObjects::onWorkshop(cocos2d::CCObject*)::$_0::operator()(int) const::{lambda(std::__ndk1::basic_string<char, std::__ndk1::char_traits<char>, std::__ndk1::allocator<char> > const&)#1}::operator()(std::__ndk1::basic_string<char, std::__ndk1::char_traits<char>, std::__ndk1::allocator<char> > const&) const::{lambda(int)#1}>, void (int)>::__clone() const
FUNC 89644 14 0 std::__ndk1::__function::__func<CustomObjects::onWorkshop(cocos2d::CCObject*)::$_0::operator()(int) const::{lambda(std::__ndk1::basic_string<char, std::__ndk1::char_traits<char>, std::__ndk1::allocator<char> > const&)#1}::operator()(std::__ndk1::basic_string<char, std::__ndk1::char_traits<char>, std::__ndk1::allocator<char> > const&) const::{lambda(int)#1}, std::__ndk1::allocator<CustomObjects::onWorkshop(cocos2d::CCObject*)::$_0::operator()(int) const::{lambda(std::__ndk1::basic_string<char, std::__ndk1::char_traits<char>, std::__ndk1::allocator<char> > const&)#1}::operator()(std::__ndk1::basic_string<char, std::__ndk1::char_traits<char>, std::__ndk1::allocator<char> > const&) const::{lambda(int)#1}>, void (int)>::__clone(std::__ndk1::__function::__base<void (int)>*) const
FUNC 89658 4 0 std::__ndk1::__function::__func<CustomObjects::onWorkshop(cocos2d::CCObject*)::$_0::operator()(int) const::{lambda(std::__ndk1::basic_string<char, std::__ndk1::char_traits<char>, std::__ndk1::allocator<char> > const&)#1}::operator()(std::__ndk1::basic_string<char, std::__ndk1::char_traits<char>, std::__ndk1::allocator<char> > const&) const::{lambda(int)#1}, std::__ndk1::allocator<CustomObjects::onWorkshop(cocos2d::CCObject*)::$_0::operator()(int) const::{lambda(std::__ndk1::basic_string<char, std::__ndk1::char_traits<char>, std::__ndk1::allocator<char> > const&)#1}::operator()(std::__ndk1::basic_string<char, std::__ndk1::char_traits<char>, std::__ndk1::allocator<char> > const&) const::{lambda(int)#1}>, void (int)>::destroy()
FUNC 8965c 4 0 std::__ndk1::__function::__func<CustomObjects::onWorkshop(cocos2d::CCObject*)::$_0::operator()(int) const::{lambda(std::__ndk1::basic_string<char, std::__ndk1::char_traits<char>, std::__ndk1::allocator<char> > const&)#1}::operator()(std::__ndk1::basic_string<char, std::__ndk1::char_traits<char>, std::__ndk1::allocator<char> > const&) const::{lambda(int)#1}, std::__ndk1::allocator<CustomObjects::onWorkshop(cocos2d::CCObject*)::$_0::operator()(int) const::{lambda(std::__ndk1::basic_string<char, std::__ndk1::char_traits<char>, std::__ndk1::allocator<char> > const&)#1}::operator()(std::__ndk1::basic_string<char, std::__ndk1::char_traits<char>, std::__ndk1::allocator<char> > const&) const::{lambda(int)#1}>, void (int)>::destroy_deallocate()
FUNC 89660 1a0 0 std::__ndk1::__function::__func<CustomObjects::onWorkshop(cocos2d::CCObject*)::$_0::operator()(int) const::{lambda(std::__ndk1::basic_string<char, std::__ndk1::char_traits<char>, std::__ndk1::allocator<char> > const&)#1}::operator()(std::__ndk1::basic_string<char, std::__ndk1::char_traits<char>, std::__ndk1::allocator<char> > const&) const::{lambda(int)#1}, std::__ndk1::allocator<CustomObjects::onWorkshop(cocos2d::CCObject*)::$_0::operator()(int) const::{lambda(std::__ndk1::basic_string<char, std::__ndk1::char_traits<char>, std::__ndk1::allocator<char> > const&)#1}::operator()(std::__ndk1::basic_string<char, std::__ndk1::char_traits<char>, std::__ndk1::allocator<char> > const&) const::{lambda(int)#1}>, void (int)>::operator()(int&&)
FUNC 89800 1c 0 std::__ndk1::__function::__func<CustomObjects::onWorkshop(cocos2d::CCObject*)::$_0::operator()(int) const::{lambda(std::__ndk1::basic_string<char, std::__ndk1::char_traits<char>, std::__ndk1::allocator<char> > const&)#1}::operator()(std::__ndk1::basic_string<char, std::__ndk1::char_traits<char>, std::__ndk1::allocator<char> > const&) const::{lambda(int)#1}, std::__ndk1::allocator<CustomObjects::onWorkshop(cocos2d::CCObject*)::$_0::operator()(int) const::{lambda(std::__ndk1::basic_string<char, std::__ndk1::char_traits<char>, std::__ndk1::allocator<char> > const&)#1}::operator()(std::__ndk1::basic_string<char, std::__ndk1::char_traits<char>, std::__ndk1::allocator<char> > const&) const::{lambda(int)#1}>, void (int)>::target(std::type_info const&) const
FUNC 8981c c 0 std::__ndk1::__function::__func<CustomObjects::onWorkshop(cocos2d::CCObject*)::$_0::operator()(int) const::{lambda(std::__ndk1::basic_string<char, std::__ndk1::char_traits<char>, std::__ndk1::allocator<char> > const&)#1}::operator()(std::__ndk1::basic_string<char, std::__ndk1::char_traits<char>, std::__ndk1::allocator<char> > const&) const::{lambda(int)#1}, std::__ndk1::allocator<CustomObjects::onWorkshop(cocos2d::CCObject*)::$_0::operator()(int) const::{lambda(std::__ndk1::basic_string<char, std::__ndk1::char_traits<char>, std::__ndk1::allocator<char> > const&)#1}::operator()(std::__ndk1::basic_string<char, std::__ndk1::char_traits<char>, std::__ndk1::allocator<char> > const&) const::{lambda(int)#1}>, void (int)>::target_type() const
FUNC 89828 124 0 authentication::AuthenticationManager::AuthenticationManager()
FUNC 8994c 4 0 std::__ndk1::__function::__func<CustomObjects::onWorkshop(cocos2d::CCObject*)::$_0::operator()(int) const::{lambda(std::__ndk1::basic_string<char, std::__ndk1::char_traits<char>, std::__ndk1::allocator<char> >)#2}, std::__ndk1::allocator<CustomObjects::onWorkshop(cocos2d::CCObject*)::$_0::operator()(int) const::{lambda(std::__ndk1::basic_string<char, std::__ndk1::char_traits<char>, std::__ndk1::allocator<char> >)#2}>, void (std::__ndk1::basic_string<char, std::__ndk1::char_traits<char>, std::__ndk1::allocator<char> >)>::~__func()
FUNC 89950 34 0 std::__ndk1::__function::__func<CustomObjects::onWorkshop(cocos2d::CCObject*)::$_0::operator()(int) const::{lambda(std::__ndk1::basic_string<char, std::__ndk1::char_traits<char>, std::__ndk1::allocator<char> >)#2}, std::__ndk1::allocator<CustomObjects::onWorkshop(cocos2d::CCObject*)::$_0::operator()(int) const::{lambda(std::__ndk1::basic_string<char, std::__ndk1::char_traits<char>, std::__ndk1::allocator<char> >)#2}>, void (std::__ndk1::basic_string<char, std::__ndk1::char_traits<char>, std::__ndk1::allocator<char> >)>::__clone() const
FUNC 89984 14 0 std::__ndk1::__function::__func<CustomObjects::onWorkshop(cocos2d::CCObject*)::$_0::operator()(int) const::{lambda(std::__ndk1::basic_string<char, std::__ndk1::char_traits<char>, std::__ndk1::allocator<char> >)#2}, std::__ndk1::allocator<CustomObjects::onWorkshop(cocos2d::CCObject*)::$_0::operator()(int) const::{lambda(std::__ndk1::basic_string<char, std::__ndk1::char_traits<char>, std::__ndk1::allocator<char> >)#2}>, void (std::__ndk1::basic_string<char, std::__ndk1::char_traits<char>, std::__ndk1::allocator<char> >)>::__clone(std::__ndk1::__function::__base<void (std::__ndk1::basic_string<char, std::__ndk1::char_traits<char>, std::__ndk1::allocator<char> >)>*) const
FUNC 89998 4 0 std::__ndk1::__function::__func<CustomObjects::onWorkshop(cocos2d::CCObject*)::$_0::operator()(int) const::{lambda(std::__ndk1::basic_string<char, std::__ndk1::char_traits<char>, std::__ndk1::allocator<char> >)#2}, std::__ndk1::allocator<CustomObjects::onWorkshop(cocos2d::CCObject*)::$_0::operator()(int) const::{lambda(std::__ndk1::basic_string<char, std::__ndk1::char_traits<char>, std::__ndk1::allocator<char> >)#2}>, void (std::__ndk1::basic_string<char, std::__ndk1::char_traits<char>, std::__ndk1::allocator<char> >)>::destroy()
FUNC 8999c 4 0 std::__ndk1::__function::__func<CustomObjects::onWorkshop(cocos2d::CCObject*)::$_0::operator()(int) const::{lambda(std::__ndk1::basic_string<char, std::__ndk1::char_traits<char>, std::__ndk1::allocator<char> >)#2}, std::__ndk1::allocator<CustomObjects::onWorkshop(cocos2d::CCObject*)::$_0::operator()(int) const::{lambda(std::__ndk1::basic_string<char, std::__ndk1::char_traits<char>, std::__ndk1::allocator<char> >)#2}>, void (std::__ndk1::basic_string<char, std::__ndk1::char_traits<char>, std::__ndk1::allocator<char> >)>::destroy_deallocate()
FUNC 899a0 18c 0 std::__ndk1::__function::__func<CustomObjects::onWorkshop(cocos2d::CCObject*)::$_0::operator()(int) const::{lambda(std::__ndk1::basic_string<char, std::__ndk1::char_traits<char>, std::__ndk1::allocator<char> >)#2}, std::__ndk1::allocator<CustomObjects::onWorkshop(cocos2d::CCObject*)::$_0::operator()(int) const::{lambda(std::__ndk1::basic_string<char, std::__ndk1::char_traits<char>, std::__ndk1::allocator<char> >)#2}>, void (std::__ndk1::basic_string<char, std::__ndk1::char_traits<char>, std::__ndk1::allocator<char> >)>::operator()(std::__ndk1::basic_string<char, std::__ndk1::char_traits<char>, std::__ndk1::allocator<char> >&&)
FUNC 89b2c 1c 0 std::__ndk1::__function::__func<CustomObjects::onWorkshop(cocos2d::CCObject*)::$_0::operator()(int) const::{lambda(std::__ndk1::basic_string<char, std::__ndk1::char_traits<char>, std::__ndk1::allocator<char> >)#2}, std::__ndk1::allocator<CustomObjects::onWorkshop(cocos2d::CCObject*)::$_0::operator()(int) const::{lambda(std::__ndk1::basic_string<char, std::__ndk1::char_traits<char>, std::__ndk1::allocator<char> >)#2}>, void (std::__ndk1::basic_string<char, std::__ndk1::char_traits<char>, std::__ndk1::allocator<char> >)>::target(std::type_info const&) const
FUNC 89b48 c 0 std::__ndk1::__function::__func<CustomObjects::onWorkshop(cocos2d::CCObject*)::$_0::operator()(int) const::{lambda(std::__ndk1::basic_string<char, std::__ndk1::char_traits<char>, std::__ndk1::allocator<char> >)#2}, std::__ndk1::allocator<CustomObjects::onWorkshop(cocos2d::CCObject*)::$_0::operator()(int) const::{lambda(std::__ndk1::basic_string<char, std::__ndk1::char_traits<char>, std::__ndk1::allocator<char> >)#2}>, void (std::__ndk1::basic_string<char, std::__ndk1::char_traits<char>, std::__ndk1::allocator<char> >)>::target_type() const
FUNC 89b54 4 0 std::__ndk1::__function::__func<CustomObjects::onWorkshop(cocos2d::CCObject*)::$_0::operator()(int) const::{lambda(std::__ndk1::basic_string<char, std::__ndk1::char_traits<char>, std::__ndk1::allocator<char> >(std::__ndk1::basic_string<char, std::__ndk1::char_traits<char>, std::__ndk1::allocator<char> >))#2}::operator() const::{lambda(int)#1}, std::__ndk1::allocator<CustomObjects::onWorkshop(cocos2d::CCObject*)::$_0::operator()(int) const::{lambda(std::__ndk1::basic_string<char, std::__ndk1::char_traits<char>, std::__ndk1::allocator<char> >(std::__ndk1::basic_string<char, std::__ndk1::char_traits<char>, std::__ndk1::allocator<char> >))#2}::operator() const::{lambda(int)#1}>, void (int)>::~__func()
FUNC 89b58 34 0 std::__ndk1::__function::__func<CustomObjects::onWorkshop(cocos2d::CCObject*)::$_0::operator()(int) const::{lambda(std::__ndk1::basic_string<char, std::__ndk1::char_traits<char>, std::__ndk1::allocator<char> >(std::__ndk1::basic_string<char, std::__ndk1::char_traits<char>, std::__ndk1::allocator<char> >))#2}::operator() const::{lambda(int)#1}, std::__ndk1::allocator<CustomObjects::onWorkshop(cocos2d::CCObject*)::$_0::operator()(int) const::{lambda(std::__ndk1::basic_string<char, std::__ndk1::char_traits<char>, std::__ndk1::allocator<char> >(std::__ndk1::basic_string<char, std::__ndk1::char_traits<char>, std::__ndk1::allocator<char> >))#2}::operator() const::{lambda(int)#1}>, void (int)>::__clone() const
FUNC 89b8c 14 0 std::__ndk1::__function::__func<CustomObjects::onWorkshop(cocos2d::CCObject*)::$_0::operator()(int) const::{lambda(std::__ndk1::basic_string<char, std::__ndk1::char_traits<char>, std::__ndk1::allocator<char> >(std::__ndk1::basic_string<char, std::__ndk1::char_traits<char>, std::__ndk1::allocator<char> >))#2}::operator() const::{lambda(int)#1}, std::__ndk1::allocator<CustomObjects::onWorkshop(cocos2d::CCObject*)::$_0::operator()(int) const::{lambda(std::__ndk1::basic_string<char, std::__ndk1::char_traits<char>, std::__ndk1::allocator<char> >(std::__ndk1::basic_string<char, std::__ndk1::char_traits<char>, std::__ndk1::allocator<char> >))#2}::operator() const::{lambda(int)#1}>, void (int)>::__clone(std::__ndk1::__function::__base<void (int)>*) const
FUNC 89ba0 4 0 std::__ndk1::__function::__func<CustomObjects::onWorkshop(cocos2d::CCObject*)::$_0::operator()(int) const::{lambda(std::__ndk1::basic_string<char, std::__ndk1::char_traits<char>, std::__ndk1::allocator<char> >(std::__ndk1::basic_string<char, std::__ndk1::char_traits<char>, std::__ndk1::allocator<char> >))#2}::operator() const::{lambda(int)#1}, std::__ndk1::allocator<CustomObjects::onWorkshop(cocos2d::CCObject*)::$_0::operator()(int) const::{lambda(std::__ndk1::basic_string<char, std::__ndk1::char_traits<char>, std::__ndk1::allocator<char> >(std::__ndk1::basic_string<char, std::__ndk1::char_traits<char>, std::__ndk1::allocator<char> >))#2}::operator() const::{lambda(int)#1}>, void (int)>::destroy()
FUNC 89ba4 4 0 std::__ndk1::__function::__func<CustomObjects::onWorkshop(cocos2d::CCObject*)::$_0::operator()(int) const::{lambda(std::__ndk1::basic_string<char, std::__ndk1::char_traits<char>, std::__ndk1::allocator<char> >(std::__ndk1::basic_string<char, std::__ndk1::char_traits<char>, std::__ndk1::allocator<char> >))#2}::operator() const::{lambda(int)#1}, std::__ndk1::allocator<CustomObjects::onWorkshop(cocos2d::CCObject*)::$_0::operator()(int) const::{lambda(std::__ndk1::basic_string<char, std::__ndk1::char_traits<char>, std::__ndk1::allocator<char> >(std::__ndk1::basic_string<char, std::__ndk1::char_traits<char>, std::__ndk1::allocator<char> >))#2}::operator() const::{lambda(int)#1}>, void (int)>::destroy_deallocate()
FUNC 89ba8 1a0 0 std::__ndk1::__function::__func<CustomObjects::onWorkshop(cocos2d::CCObject*)::$_0::operator()(int) const::{lambda(std::__ndk1::basic_string<char, std::__ndk1::char_traits<char>, std::__ndk1::allocator<char> >(std::__ndk1::basic_string<char, std::__ndk1::char_traits<char>, std::__ndk1::allocator<char> >))#2}::operator() const::{lambda(int)#1}, std::__ndk1::allocator<CustomObjects::onWorkshop(cocos2d::CCObject*)::$_0::operator()(int) const::{lambda(std::__ndk1::basic_string<char, std::__ndk1::char_traits<char>, std::__ndk1::allocator<char> >(std::__ndk1::basic_string<char, std::__ndk1::char_traits<char>, std::__ndk1::allocator<char> >))#2}::operator() const::{lambda(int)#1}>, void (int)>::operator()(int&&)
FUNC 89d48 1c 0 std::__ndk1::__function::__func<CustomObjects::onWorkshop(cocos2d::CCObject*)::$_0::operator()(int) const::{lambda(std::__ndk1::basic_string<char, std::__ndk1::char_traits<char>, std::__ndk1::allocator<char> >(std::__ndk1::basic_string<char, std::__ndk1::char_traits<char>, std::__ndk1::allocator<char> >))#2}::operator() const::{lambda(int)#1}, std::__ndk1::allocator<CustomObjects::onWorkshop(cocos2d::CCObject*)::$_0::operator()(int) const::{lambda(std::__ndk1::basic_string<char, std::__ndk1::char_traits<char>, std::__ndk1::allocator<char> >(std::__ndk1::basic_string<char, std::__ndk1::char_traits<char>, std::__ndk1::allocator<char> >))#2}::operator() const::{lambda(int)#1}>, void (int)>::target(std::type_info const&) const
FUNC 89d64 c 0 std::__ndk1::__function::__func<CustomObjects::onWorkshop(cocos2d::CCObject*)::$_0::operator()(int) const::{lambda(std::__ndk1::basic_string<char, std::__ndk1::char_traits<char>, std::__ndk1::allocator<char> >(std::__ndk1::basic_string<char, std::__ndk1::char_traits<char>, std::__ndk1::allocator<char> >))#2}::operator() const::{lambda(int)#1}, std::__ndk1::allocator<CustomObjects::onWorkshop(cocos2d::CCObject*)::$_0::operator()(int) const::{lambda(std::__ndk1::basic_string<char, std::__ndk1::char_traits<char>, std::__ndk1::allocator<char> >(std::__ndk1::basic_string<char, std::__ndk1::char_traits<char>, std::__ndk1::allocator<char> >))#2}::operator() const::{lambda(int)#1}>, void (int)>::target_type() const
FUNC 89d70 4 0 std::__ndk1::__function::__func<authentication::AuthenticationManager::getAuthenticationToken(std::__ndk1::function<void (std::__ndk1::basic_string<char, std::__ndk1::char_traits<char>, std::__ndk1::allocator<char> >)>, std::__ndk1::function<void (std::__ndk1::basic_string<char, std::__ndk1::char_traits<char>, std::__ndk1::allocator<char> >)>), std::__ndk1::allocator<authentication::AuthenticationManager::getAuthenticationToken(std::__ndk1::function<void (std::__ndk1::basic_string<char, std::__ndk1::char_traits<char>, std::__ndk1::allocator<char> >)>, std::__ndk1::function<void (std::__ndk1::basic_string<char, std::__ndk1::char_traits<char>, std::__ndk1::allocator<char> >)>)>, void (std::__ndk1::basic_string<char, std::__ndk1::char_traits<char>, std::__ndk1::allocator<char> >)>::~__func()
FUNC 89d74 24 0 std::__ndk1::__function::__func<authentication::AuthenticationManager::getAuthenticationToken(std::__ndk1::function<void (std::__ndk1::basic_string<char, std::__ndk1::char_traits<char>, std::__ndk1::allocator<char> >)>, std::__ndk1::function<void (std::__ndk1::basic_string<char, std::__ndk1::char_traits<char>, std::__ndk1::allocator<char> >)>), std::__ndk1::allocator<authentication::AuthenticationManager::getAuthenticationToken(std::__ndk1::function<void (std::__ndk1::basic_string<char, std::__ndk1::char_traits<char>, std::__ndk1::allocator<char> >)>, std::__ndk1::function<void (std::__ndk1::basic_string<char, std::__ndk1::char_traits<char>, std::__ndk1::allocator<char> >)>)>, void (std::__ndk1::basic_string<char, std::__ndk1::char_traits<char>, std::__ndk1::allocator<char> >)>::__clone() const
FUNC 89d98 10 0 std::__ndk1::__function::__func<authentication::AuthenticationManager::getAuthenticationToken(std::__ndk1::function<void (std::__ndk1::basic_string<char, std::__ndk1::char_traits<char>, std::__ndk1::allocator<char> >)>, std::__ndk1::function<void (std::__ndk1::basic_string<char, std::__ndk1::char_traits<char>, std::__ndk1::allocator<char> >)>), std::__ndk1::allocator<authentication::AuthenticationManager::getAuthenticationToken(std::__ndk1::function<void (std::__ndk1::basic_string<char, std::__ndk1::char_traits<char>, std::__ndk1::allocator<char> >)>, std::__ndk1::function<void (std::__ndk1::basic_string<char, std::__ndk1::char_traits<char>, std::__ndk1::allocator<char> >)>)>, void (std::__ndk1::basic_string<char, std::__ndk1::char_traits<char>, std::__ndk1::allocator<char> >)>::__clone(std::__ndk1::__function::__base<void (std::__ndk1::basic_string<char, std::__ndk1::char_traits<char>, std::__ndk1::allocator<char> >)>*) const
FUNC 89da8 4 0 std::__ndk1::__function::__func<authentication::AuthenticationManager::getAuthenticationToken(std::__ndk1::function<void (std::__ndk1::basic_string<char, std::__ndk1::char_traits<char>, std::__ndk1::allocator<char> >)>, std::__ndk1::function<void (std::__ndk1::basic_string<char, std::__ndk1::char_traits<char>, std::__ndk1::allocator<char> >)>), std::__ndk1::allocator<authentication::AuthenticationManager::getAuthenticationToken(std::__ndk1::function<void (std::__ndk1::basic_string<char, std::__ndk1::char_traits<char>, std::__ndk1::allocator<char> >)>, std::__ndk1::function<void (std::__ndk1::basic_string<char, std::__ndk1::char_traits<char>, std::__ndk1::allocator<char> >)>)>, void (std::__ndk1::basic_string<char, std::__ndk1::char_traits<char>, std::__ndk1::allocator<char> >)>::destroy()
FUNC 89dac 4 0 std::__ndk1::__function::__func<authentication::AuthenticationManager::getAuthenticationToken(std::__ndk1::function<void (std::__ndk1::basic_string<char, std::__ndk1::char_traits<char>, std::__ndk1::allocator<char> >)>, std::__ndk1::function<void (std::__ndk1::basic_string<char, std::__ndk1::char_traits<char>, std::__ndk1::allocator<char> >)>), std::__ndk1::allocator<authentication::AuthenticationManager::getAuthenticationToken(std::__ndk1::function<void (std::__ndk1::basic_string<char, std::__ndk1::char_traits<char>, std::__ndk1::allocator<char> >)>, std::__ndk1::function<void (std::__ndk1::basic_string<char, std::__ndk1::char_traits<char>, std::__ndk1::allocator<char> >)>)>, void (std::__ndk1::basic_string<char, std::__ndk1::char_traits<char>, std::__ndk1::allocator<char> >)>::destroy_deallocate()
FUNC 89db0 1c 0 std::__ndk1::__function::__func<authentication::AuthenticationManager::getAuthenticationToken(std::__ndk1::function<void (std::__ndk1::basic_string<char, std::__ndk1::char_traits<char>, std::__ndk1::allocator<char> >)>, std::__ndk1::function<void (std::__ndk1::basic_string<char, std::__ndk1::char_traits<char>, std::__ndk1::allocator<char> >)>), std::__ndk1::allocator<authentication::AuthenticationManager::getAuthenticationToken(std::__ndk1::function<void (std::__ndk1::basic_string<char, std::__ndk1::char_traits<char>, std::__ndk1::allocator<char> >)>, std::__ndk1::function<void (std::__ndk1::basic_string<char, std::__ndk1::char_traits<char>, std::__ndk1::allocator<char> >)>)>, void (std::__ndk1::basic_string<char, std::__ndk1::char_traits<char>, std::__ndk1::allocator<char> >)>::operator()(std::__ndk1::basic_string<char, std::__ndk1::char_traits<char>, std::__ndk1::allocator<char> >&&)
FUNC 89dcc 1c 0 std::__ndk1::__function::__func<authentication::AuthenticationManager::getAuthenticationToken(std::__ndk1::function<void (std::__ndk1::basic_string<char, std::__ndk1::char_traits<char>, std::__ndk1::allocator<char> >)>, std::__ndk1::function<void (std::__ndk1::basic_string<char, std::__ndk1::char_traits<char>, std::__ndk1::allocator<char> >)>), std::__ndk1::allocator<authentication::AuthenticationManager::getAuthenticationToken(std::__ndk1::function<void (std::__ndk1::basic_string<char, std::__ndk1::char_traits<char>, std::__ndk1::allocator<char> >)>, std::__ndk1::function<void (std::__ndk1::basic_string<char, std::__ndk1::char_traits<char>, std::__ndk1::allocator<char> >)>)>, void (std::__ndk1::basic_string<char, std::__ndk1::char_traits<char>, std::__ndk1::allocator<char> >)>::target(std::type_info const&) const
FUNC 89de8 c 0 std::__ndk1::__function::__func<authentication::AuthenticationManager::getAuthenticationToken(std::__ndk1::function<void (std::__ndk1::basic_string<char, std::__ndk1::char_traits<char>, std::__ndk1::allocator<char> >)>, std::__ndk1::function<void (std::__ndk1::basic_string<char, std::__ndk1::char_traits<char>, std::__ndk1::allocator<char> >)>), std::__ndk1::allocator<authentication::AuthenticationManager::getAuthenticationToken(std::__ndk1::function<void (std::__ndk1::basic_string<char, std::__ndk1::char_traits<char>, std::__ndk1::allocator<char> >)>, std::__ndk1::function<void (std::__ndk1::basic_string<char, std::__ndk1::char_traits<char>, std::__ndk1::allocator<char> >)>)>, void (std::__ndk1::basic_string<char, std::__ndk1::char_traits<char>, std::__ndk1::allocator<char> >)>::target_type() const
FUNC 89df4 4 0 std::__ndk1::__function::__base<cocos2d::CCNode* (EditorUI*, CCMenuItemToggler*)>::~__base()
FUNC 89df8 4 0 std::__ndk1::__function::__func<CustomObjects::init(LevelEditorLayer*)::$_0, std::__ndk1::allocator<CustomObjects::init(LevelEditorLayer*)::$_0>, cocos2d::CCNode* (EditorUI*, CCMenuItemToggler*)>::~__func()
FUNC 89dfc 34 0 std::__ndk1::__function::__func<CustomObjects::init(LevelEditorLayer*)::$_0, std::__ndk1::allocator<CustomObjects::init(LevelEditorLayer*)::$_0>, cocos2d::CCNode* (EditorUI*, CCMenuItemToggler*)>::__clone() const
FUNC 89e30 14 0 std::__ndk1::__function::__func<CustomObjects::init(LevelEditorLayer*)::$_0, std::__ndk1::allocator<CustomObjects::init(LevelEditorLayer*)::$_0>, cocos2d::CCNode* (EditorUI*, CCMenuItemToggler*)>::__clone(std::__ndk1::__function::__base<cocos2d::CCNode* (EditorUI*, CCMenuItemToggler*)>*) const
FUNC 89e44 4 0 std::__ndk1::__function::__func<CustomObjects::init(LevelEditorLayer*)::$_0, std::__ndk1::allocator<CustomObjects::init(LevelEditorLayer*)::$_0>, cocos2d::CCNode* (EditorUI*, CCMenuItemToggler*)>::destroy()
FUNC 89e48 4 0 std::__ndk1::__function::__func<CustomObjects::init(LevelEditorLayer*)::$_0, std::__ndk1::allocator<CustomObjects::init(LevelEditorLayer*)::$_0>, cocos2d::CCNode* (EditorUI*, CCMenuItemToggler*)>::destroy_deallocate()
FUNC 89e4c a54 0 std::__ndk1::__function::__func<CustomObjects::init(LevelEditorLayer*)::$_0, std::__ndk1::allocator<CustomObjects::init(LevelEditorLayer*)::$_0>, cocos2d::CCNode* (EditorUI*, CCMenuItemToggler*)>::operator()(EditorUI*&&, CCMenuItemToggler*&&)
FUNC 8a8a0 1c 0 std::__ndk1::__function::__func<CustomObjects::init(LevelEditorLayer*)::$_0, std::__ndk1::allocator<CustomObjects::init(LevelEditorLayer*)::$_0>, cocos2d::CCNode* (EditorUI*, CCMenuItemToggler*)>::target(std::type_info const&) const
FUNC 8a8bc c 0 std::__ndk1::__function::__func<CustomObjects::init(LevelEditorLayer*)::$_0, std::__ndk1::allocator<CustomObjects::init(LevelEditorLayer*)::$_0>, cocos2d::CCNode* (EditorUI*, CCMenuItemToggler*)>::target_type() const
FUNC 8a8c8 274 0 geode::modifier::FieldIntermediate<CustomObjects, EditorUI>::self()
FUNC 8ab3c 430 0 geode::modifier::FieldContainer::getField(unsigned long)
FUNC 8af6c 10c 0 geode::modifier::FieldContainer::setField(unsigned long, unsigned long, std::__ndk1::function<void (void*)>)
FUNC 8b078 b8 0 geode::modifier::FieldIntermediate<CustomObjects, EditorUI>::fieldDestructor(void*)
FUNC 8b130 14 0 std::__ndk1::vector<void*, std::__ndk1::allocator<void*> >::__throw_length_error[abi:ne180000]() const
FUNC 8b144 14 0 std::__ndk1::vector<std::__ndk1::function<void (void*)>, std::__ndk1::allocator<std::__ndk1::function<void (void*)> > >::__throw_length_error[abi:ne180000]() const
FUNC 8b158 14 0 std::__ndk1::vector<void*, std::__ndk1::allocator<void*> >::__throw_out_of_range[abi:ne180000]() const
FUNC 8b16c 14 0 std::__ndk1::vector<std::__ndk1::function<void (void*)>, std::__ndk1::allocator<std::__ndk1::function<void (void*)> > >::__throw_out_of_range[abi:ne180000]() const
FUNC 8b180 4 0 std::__ndk1::__function::__base<void (void*)>::~__base()
FUNC 8b184 4 0 std::__ndk1::__function::__func<void (*)(void*), std::__ndk1::allocator<void (*)(void*)>, void (void*)>::~__func()
FUNC 8b188 38 0 std::__ndk1::__function::__func<void (*)(void*), std::__ndk1::allocator<void (*)(void*)>, void (void*)>::__clone() const
FUNC 8b1c0 18 0 std::__ndk1::__function::__func<void (*)(void*), std::__ndk1::allocator<void (*)(void*)>, void (void*)>::__clone(std::__ndk1::__function::__base<void (void*)>*) const
FUNC 8b1d8 4 0 std::__ndk1::__function::__func<void (*)(void*), std::__ndk1::allocator<void (*)(void*)>, void (void*)>::destroy()
FUNC 8b1dc 4 0 std::__ndk1::__function::__func<void (*)(void*), std::__ndk1::allocator<void (*)(void*)>, void (void*)>::destroy_deallocate()
FUNC 8b1e0 10 0 std::__ndk1::__function::__func<void (*)(void*), std::__ndk1::allocator<void (*)(void*)>, void (void*)>::operator()(void*&&)
FUNC 8b1f0 1c 0 std::__ndk1::__function::__func<void (*)(void*), std::__ndk1::allocator<void (*)(void*)>, void (void*)>::target(std::type_info const&) const
FUNC 8b20c c 0 std::__ndk1::__function::__func<void (*)(void*), std::__ndk1::allocator<void (*)(void*)>, void (void*)>::target_type() const
FUNC 8b218 4 0 std::__ndk1::__function::__func<CustomObjects::init(LevelEditorLayer*)::$_0::operator()(EditorUI*, CCMenuItemToggler*) const::{lambda(geode::Task<geode::utils::web::WebResponse, geode::utils::web::WebProgress>::Event*)#1}, std::__ndk1::allocator<CustomObjects::init(LevelEditorLayer*)::$_0::operator()(EditorUI*, CCMenuItemToggler*) const::{lambda(geode::Task<geode::utils::web::WebResponse, geode::utils::web::WebProgress>::Event*)#1}>, void (geode::Task<geode::utils::web::WebResponse, geode::utils::web::WebProgress>::Event*)>::~__func()
FUNC 8b21c 38 0 std::__ndk1::__function::__func<CustomObjects::init(LevelEditorLayer*)::$_0::operator()(EditorUI*, CCMenuItemToggler*) const::{lambda(geode::Task<geode::utils::web::WebResponse, geode::utils::web::WebProgress>::Event*)#1}, std::__ndk1::allocator<CustomObjects::init(LevelEditorLayer*)::$_0::operator()(EditorUI*, CCMenuItemToggler*) const::{lambda(geode::Task<geode::utils::web::WebResponse, geode::utils::web::WebProgress>::Event*)#1}>, void (geode::Task<geode::utils::web::WebResponse, geode::utils::web::WebProgress>::Event*)>::__clone() const
FUNC 8b254 18 0 std::__ndk1::__function::__func<CustomObjects::init(LevelEditorLayer*)::$_0::operator()(EditorUI*, CCMenuItemToggler*) const::{lambda(geode::Task<geode::utils::web::WebResponse, geode::utils::web::WebProgress>::Event*)#1}, std::__ndk1::allocator<CustomObjects::init(LevelEditorLayer*)::$_0::operator()(EditorUI*, CCMenuItemToggler*) const::{lambda(geode::Task<geode::utils::web::WebResponse, geode::utils::web::WebProgress>::Event*)#1}>, void (geode::Task<geode::utils::web::WebResponse, geode::utils::web::WebProgress>::Event*)>::__clone(std::__ndk1::__function::__base<void (geode::Task<geode::utils::web::WebResponse, geode::utils::web::WebProgress>::Event*)>*) const
FUNC 8b26c 4 0 std::__ndk1::__function::__func<CustomObjects::init(LevelEditorLayer*)::$_0::operator()(EditorUI*, CCMenuItemToggler*) const::{lambda(geode::Task<geode::utils::web::WebResponse, geode::utils::web::WebProgress>::Event*)#1}, std::__ndk1::allocator<CustomObjects::init(LevelEditorLayer*)::$_0::operator()(EditorUI*, CCMenuItemToggler*) const::{lambda(geode::Task<geode::utils::web::WebResponse, geode::utils::web::WebProgress>::Event*)#1}>, void (geode::Task<geode::utils::web::WebResponse, geode::utils::web::WebProgress>::Event*)>::destroy()
FUNC 8b270 4 0 std::__ndk1::__function::__func<CustomObjects::init(LevelEditorLayer*)::$_0::operator()(EditorUI*, CCMenuItemToggler*) const::{lambda(geode::Task<geode::utils::web::WebResponse, geode::utils::web::WebProgress>::Event*)#1}, std::__ndk1::allocator<CustomObjects::init(LevelEditorLayer*)::$_0::operator()(EditorUI*, CCMenuItemToggler*) const::{lambda(geode::Task<geode::utils::web::WebResponse, geode::utils::web::WebProgress>::Event*)#1}>, void (geode::Task<geode::utils::web::WebResponse, geode::utils::web::WebProgress>::Event*)>::destroy_deallocate()
FUNC 8b274 4a4 0 std::__ndk1::__function::__func<CustomObjects::init(LevelEditorLayer*)::$_0::operator()(EditorUI*, CCMenuItemToggler*) const::{lambda(geode::Task<geode::utils::web::WebResponse, geode::utils::web::WebProgress>::Event*)#1}, std::__ndk1::allocator<CustomObjects::init(LevelEditorLayer*)::$_0::operator()(EditorUI*, CCMenuItemToggler*) const::{lambda(geode::Task<geode::utils::web::WebResponse, geode::utils::web::WebProgress>::Event*)#1}>, void (geode::Task<geode::utils::web::WebResponse, geode::utils::web::WebProgress>::Event*)>::operator()(geode::Task<geode::utils::web::WebResponse, geode::utils::web::WebProgress>::Event*&&)
FUNC 8b718 1c 0 std::__ndk1::__function::__func<CustomObjects::init(LevelEditorLayer*)::$_0::operator()(EditorUI*, CCMenuItemToggler*) const::{lambda(geode::Task<geode::utils::web::WebResponse, geode::utils::web::WebProgress>::Event*)#1}, std::__ndk1::allocator<CustomObjects::init(LevelEditorLayer*)::$_0::operator()(EditorUI*, CCMenuItemToggler*) const::{lambda(geode::Task<geode::utils::web::WebResponse, geode::utils::web::WebProgress>::Event*)#1}>, void (geode::Task<geode::utils::web::WebResponse, geode::utils::web::WebProgress>::Event*)>::target(std::type_info const&) const
FUNC 8b734 c 0 std::__ndk1::__function::__func<CustomObjects::init(LevelEditorLayer*)::$_0::operator()(EditorUI*, CCMenuItemToggler*) const::{lambda(geode::Task<geode::utils::web::WebResponse, geode::utils::web::WebProgress>::Event*)#1}, std::__ndk1::allocator<CustomObjects::init(LevelEditorLayer*)::$_0::operator()(EditorUI*, CCMenuItemToggler*) const::{lambda(geode::Task<geode::utils::web::WebResponse, geode::utils::web::WebProgress>::Event*)#1}>, void (geode::Task<geode::utils::web::WebResponse, geode::utils::web::WebProgress>::Event*)>::target_type() const
FUNC 8b740 3dc 0 geode::modifier::ModifyDerive<ObjectBypass, EditorUI>::apply()
FUNC 8bb1c 4 0 geode::modifier::ModifyBase<geode::modifier::ModifyDerive<ObjectBypass, EditorUI> >::apply()
FUNC 8bb20 284 0 geode::modifier::AsStaticFunction_onNewCustomItem<ObjectBypass, void (ObjectBypass::*)(cocos2d::CCObject*)>::Impl<void (ObjectBypass::*)(cocos2d::CCObject*)>::function(ObjectBypass*, cocos2d::CCObject*)
FUNC 8bda4 6ec 0 geode::modifier::ModifyDerive<hook274<(anonymous namespace)::hook274Parent>, ProfilePage>::apply()
FUNC 8c490 4 0 geode::modifier::ModifyBase<geode::modifier::ModifyDerive<hook274<(anonymous namespace)::hook274Parent>, ProfilePage> >::apply()
FUNC 8c494 31c 0 geode::modifier::AsStaticFunction_loadPageFromUserInfo<hook274<(anonymous namespace)::hook274Parent>, void (hook274<(anonymous namespace)::hook274Parent>::*)(GJUserScore*)>::Impl<void (hook274<(anonymous namespace)::hook274Parent>::*)(GJUserScore*)>::function(hook274<(anonymous namespace)::hook274Parent>*, GJUserScore*)
FUNC 8c7b0 dc 0 geode::modifier::AsStaticFunction_onClose<hook274<(anonymous namespace)::hook274Parent>, void (hook274<(anonymous namespace)::hook274Parent>::*)(cocos2d::CCObject*)>::Impl<void (hook274<(anonymous namespace)::hook274Parent>::*)(cocos2d::CCObject*)>::function(hook274<(anonymous namespace)::hook274Parent>*, cocos2d::CCObject*)
FUNC 8c88c 248 0 geode::modifier::FieldIntermediate<hook274<(anonymous namespace)::hook274Parent>, ProfilePage>::operator->()
FUNC 8cad4 98 0 geode::modifier::FieldIntermediate<hook274<(anonymous namespace)::hook274Parent>, ProfilePage>::fieldDestructor(void*)
FUNC 8cb6c 4 0 std::__ndk1::__function::__base<void (geode::Task<geode::utils::web::WebResponse, geode::utils::web::WebProgress>::Event*)>::~__base()
FUNC 8cb70 4 0 std::__ndk1::__function::__func<hook274<(anonymous namespace)::hook274Parent>::loadPageFromUserInfo(GJUserScore*)::{lambda(geode::Task<geode::utils::web::WebResponse, geode::utils::web::WebProgress>::Event*)#1}, std::__ndk1::allocator<hook274<(anonymous namespace)::hook274Parent>::loadPageFromUserInfo(GJUserScore*)::{lambda(geode::Task<geode::utils::web::WebResponse, geode::utils::web::WebProgress>::Event*)#1}>, void (geode::Task<geode::utils::web::WebResponse, geode::utils::web::WebProgress>::Event*)>::~__func()
FUNC 8cb74 34 0 std::__ndk1::__function::__func<hook274<(anonymous namespace)::hook274Parent>::loadPageFromUserInfo(GJUserScore*)::{lambda(geode::Task<geode::utils::web::WebResponse, geode::utils::web::WebProgress>::Event*)#1}, std::__ndk1::allocator<hook274<(anonymous namespace)::hook274Parent>::loadPageFromUserInfo(GJUserScore*)::{lambda(geode::Task<geode::utils::web::WebResponse, geode::utils::web::WebProgress>::Event*)#1}>, void (geode::Task<geode::utils::web::WebResponse, geode::utils::web::WebProgress>::Event*)>::__clone() const
FUNC 8cba8 14 0 std::__ndk1::__function::__func<hook274<(anonymous namespace)::hook274Parent>::loadPageFromUserInfo(GJUserScore*)::{lambda(geode::Task<geode::utils::web::WebResponse, geode::utils::web::WebProgress>::Event*)#1}, std::__ndk1::allocator<hook274<(anonymous namespace)::hook274Parent>::loadPageFromUserInfo(GJUserScore*)::{lambda(geode::Task<geode::utils::web::WebResponse, geode::utils::web::WebProgress>::Event*)#1}>, void (geode::Task<geode::utils::web::WebResponse, geode::utils::web::WebProgress>::Event*)>::__clone(std::__ndk1::__function::__base<void (geode::Task<geode::utils::web::WebResponse, geode::utils::web::WebProgress>::Event*)>*) const
FUNC 8cbbc 4 0 std::__ndk1::__function::__func<hook274<(anonymous namespace)::hook274Parent>::loadPageFromUserInfo(GJUserScore*)::{lambda(geode::Task<geode::utils::web::WebResponse, geode::utils::web::WebProgress>::Event*)#1}, std::__ndk1::allocator<hook274<(anonymous namespace)::hook274Parent>::loadPageFromUserInfo(GJUserScore*)::{lambda(geode::Task<geode::utils::web::WebResponse, geode::utils::web::WebProgress>::Event*)#1}>, void (geode::Task<geode::utils::web::WebResponse, geode::utils::web::WebProgress>::Event*)>::destroy()
FUNC 8cbc0 4 0 std::__ndk1::__function::__func<hook274<(anonymous namespace)::hook274Parent>::loadPageFromUserInfo(GJUserScore*)::{lambda(geode::Task<geode::utils::web::WebResponse, geode::utils::web::WebProgress>::Event*)#1}, std::__ndk1::allocator<hook274<(anonymous namespace)::hook274Parent>::loadPageFromUserInfo(GJUserScore*)::{lambda(geode::Task<geode::utils::web::WebResponse, geode::utils::web::WebProgress>::Event*)#1}>, void (geode::Task<geode::utils::web::WebResponse, geode::utils::web::WebProgress>::Event*)>::destroy_deallocate()
FUNC 8cbc4 52c 0 std::__ndk1::__function::__func<hook274<(anonymous namespace)::hook274Parent>::loadPageFromUserInfo(GJUserScore*)::{lambda(geode::Task<geode::utils::web::WebResponse, geode::utils::web::WebProgress>::Event*)#1}, std::__ndk1::allocator<hook274<(anonymous namespace)::hook274Parent>::loadPageFromUserInfo(GJUserScore*)::{lambda(geode::Task<geode::utils::web::WebResponse, geode::utils::web::WebProgress>::Event*)#1}>, void (geode::Task<geode::utils::web::WebResponse, geode::utils::web::WebProgress>::Event*)>::operator()(geode::Task<geode::utils::web::WebResponse, geode::utils::web::WebProgress>::Event*&&)
FUNC 8d0f0 1c 0 std::__ndk1::__function::__func<hook274<(anonymous namespace)::hook274Parent>::loadPageFromUserInfo(GJUserScore*)::{lambda(geode::Task<geode::utils::web::WebResponse, geode::utils::web::WebProgress>::Event*)#1}, std::__ndk1::allocator<hook274<(anonymous namespace)::hook274Parent>::loadPageFromUserInfo(GJUserScore*)::{lambda(geode::Task<geode::utils::web::WebResponse, geode::utils::web::WebProgress>::Event*)#1}>, void (geode::Task<geode::utils::web::WebResponse, geode::utils::web::WebProgress>::Event*)>::target(std::type_info const&) const
FUNC 8d10c c 0 std::__ndk1::__function::__func<hook274<(anonymous namespace)::hook274Parent>::loadPageFromUserInfo(GJUserScore*)::{lambda(geode::Task<geode::utils::web::WebResponse, geode::utils::web::WebProgress>::Event*)#1}, std::__ndk1::allocator<hook274<(anonymous namespace)::hook274Parent>::loadPageFromUserInfo(GJUserScore*)::{lambda(geode::Task<geode::utils::web::WebResponse, geode::utils::web::WebProgress>::Event*)#1}>, void (geode::Task<geode::utils::web::WebResponse, geode::utils::web::WebProgress>::Event*)>::target_type() const
FUNC 8d118 148 0 geode::cocos::CCMenuItemExt::createSpriteExtraWithFilename(std::__ndk1::basic_string_view<char, std::__ndk1::char_traits<char> >, float, std::__ndk1::function<void (CCMenuItemSpriteExtra*)>)
FUNC 8d260 13c 0 geode::cocos::CCMenuItemExt::createSpriteExtra(cocos2d::CCNode*, std::__ndk1::function<void (CCMenuItemSpriteExtra*)>)
FUNC 8d39c 194 0 geode::cocos::CCMenuItemExt::assignCallback<CCMenuItemSpriteExtra>(cocos2d::CCMenuItem*, std::__ndk1::function<void (CCMenuItemSpriteExtra*)>)
FUNC 8d530 1c8 0 geode::cocos::CCMenuItemExt::LambdaCallback<CCMenuItemSpriteExtra>::create(std::__ndk1::function<void (CCMenuItemSpriteExtra*)>)
FUNC 8d6f8 70 0 geode::cocos::CCMenuItemExt::LambdaCallback<CCMenuItemSpriteExtra>::execute(cocos2d::CCNode*)
FUNC 8d768 5c 0 geode::cocos::CCMenuItemExt::LambdaCallback<CCMenuItemSpriteExtra>::~LambdaCallback()
FUNC 8d7c4 64 0 geode::cocos::CCMenuItemExt::LambdaCallback<CCMenuItemSpriteExtra>::~LambdaCallback()
FUNC 8d828 4 0 cocos2d::CCObject::update(float)
FUNC 8d82c 4 0 std::__ndk1::__function::__base<void (CCMenuItemSpriteExtra*)>::~__base()
FUNC 8d830 4 0 std::__ndk1::__function::__func<hook274<(anonymous namespace)::hook274Parent>::loadPageFromUserInfo(GJUserScore*)::{lambda(geode::Task<geode::utils::web::WebResponse, geode::utils::web::WebProgress>::Event*)#1}::operator()(geode::Task<geode::utils::web::WebResponse, geode::utils::web::WebProgress>::Event*) const::{lambda(cocos2d::CCObject*)#1}, std::__ndk1::allocator<hook274<(anonymous namespace)::hook274Parent>::loadPageFromUserInfo(GJUserScore*)::{lambda(geode::Task<geode::utils::web::WebResponse, geode::utils::web::WebProgress>::Event*)#1}::operator()(geode::Task<geode::utils::web::WebResponse, geode::utils::web::WebProgress>::Event*) const::{lambda(cocos2d::CCObject*)#1}>, void (CCMenuItemSpriteExtra*)>::~__func()
FUNC 8d834 34 0 std::__ndk1::__function::__func<hook274<(anonymous namespace)::hook274Parent>::loadPageFromUserInfo(GJUserScore*)::{lambda(geode::Task<geode::utils::web::WebResponse, geode::utils::web::WebProgress>::Event*)#1}::operator()(geode::Task<geode::utils::web::WebResponse, geode::utils::web::WebProgress>::Event*) const::{lambda(cocos2d::CCObject*)#1}, std::__ndk1::allocator<hook274<(anonymous namespace)::hook274Parent>::loadPageFromUserInfo(GJUserScore*)::{lambda(geode::Task<geode::utils::web::WebResponse, geode::utils::web::WebProgress>::Event*)#1}::operator()(geode::Task<geode::utils::web::WebResponse, geode::utils::web::WebProgress>::Event*) const::{lambda(cocos2d::CCObject*)#1}>, void (CCMenuItemSpriteExtra*)>::__clone() const
FUNC 8d868 14 0 std::__ndk1::__function::__func<hook274<(anonymous namespace)::hook274Parent>::loadPageFromUserInfo(GJUserScore*)::{lambda(geode::Task<geode::utils::web::WebResponse, geode::utils::web::WebProgress>::Event*)#1}::operator()(geode::Task<geode::utils::web::WebResponse, geode::utils::web::WebProgress>::Event*) const::{lambda(cocos2d::CCObject*)#1}, std::__ndk1::allocator<hook274<(anonymous namespace)::hook274Parent>::loadPageFromUserInfo(GJUserScore*)::{lambda(geode::Task<geode::utils::web::WebResponse, geode::utils::web::WebProgress>::Event*)#1}::operator()(geode::Task<geode::utils::web::WebResponse, geode::utils::web::WebProgress>::Event*) const::{lambda(cocos2d::CCObject*)#1}>, void (CCMenuItemSpriteExtra*)>::__clone(std::__ndk1::__function::__base<void (CCMenuItemSpriteExtra*)>*) const
FUNC 8d87c 4 0 std::__ndk1::__function::__func<hook274<(anonymous namespace)::hook274Parent>::loadPageFromUserInfo(GJUserScore*)::{lambda(geode::Task<geode::utils::web::WebResponse, geode::utils::web::WebProgress>::Event*)#1}::operator()(geode::Task<geode::utils::web::WebResponse, geode::utils::web::WebProgress>::Event*) const::{lambda(cocos2d::CCObject*)#1}, std::__ndk1::allocator<hook274<(anonymous namespace)::hook274Parent>::loadPageFromUserInfo(GJUserScore*)::{lambda(geode::Task<geode::utils::web::WebResponse, geode::utils::web::WebProgress>::Event*)#1}::operator()(geode::Task<geode::utils::web::WebResponse, geode::utils::web::WebProgress>::Event*) const::{lambda(cocos2d::CCObject*)#1}>, void (CCMenuItemSpriteExtra*)>::destroy()
FUNC 8d880 4 0 std::__ndk1::__function::__func<hook274<(anonymous namespace)::hook274Parent>::loadPageFromUserInfo(GJUserScore*)::{lambda(geode::Task<geode::utils::web::WebResponse, geode::utils::web::WebProgress>::Event*)#1}::operator()(geode::Task<geode::utils::web::WebResponse, geode::utils::web::WebProgress>::Event*) const::{lambda(cocos2d::CCObject*)#1}, std::__ndk1::allocator<hook274<(anonymous namespace)::hook274Parent>::loadPageFromUserInfo(GJUserScore*)::{lambda(geode::Task<geode::utils::web::WebResponse, geode::utils::web::WebProgress>::Event*)#1}::operator()(geode::Task<geode::utils::web::WebResponse, geode::utils::web::WebProgress>::Event*) const::{lambda(cocos2d::CCObject*)#1}>, void (CCMenuItemSpriteExtra*)>::destroy_deallocate()
FUNC 8d884 3b8 0 std::__ndk1::__function::__func<hook274<(anonymous namespace)::hook274Parent>::loadPageFromUserInfo(GJUserScore*)::{lambda(geode::Task<geode::utils::web::WebResponse, geode::utils::web::WebProgress>::Event*)#1}::operator()(geode::Task<geode::utils::web::WebResponse, geode::utils::web::WebProgress>::Event*) const::{lambda(cocos2d::CCObject*)#1}, std::__ndk1::allocator<hook274<(anonymous namespace)::hook274Parent>::loadPageFromUserInfo(GJUserScore*)::{lambda(geode::Task<geode::utils::web::WebResponse, geode::utils::web::WebProgress>::Event*)#1}::operator()(geode::Task<geode::utils::web::WebResponse, geode::utils::web::WebProgress>::Event*) const::{lambda(cocos2d::CCObject*)#1}>, void (CCMenuItemSpriteExtra*)>::operator()(CCMenuItemSpriteExtra*&&)
FUNC 8dc3c 1c 0 std::__ndk1::__function::__func<hook274<(anonymous namespace)::hook274Parent>::loadPageFromUserInfo(GJUserScore*)::{lambda(geode::Task<geode::utils::web::WebResponse, geode::utils::web::WebProgress>::Event*)#1}::operator()(geode::Task<geode::utils::web::WebResponse, geode::utils::web::WebProgress>::Event*) const::{lambda(cocos2d::CCObject*)#1}, std::__ndk1::allocator<hook274<(anonymous namespace)::hook274Parent>::loadPageFromUserInfo(GJUserScore*)::{lambda(geode::Task<geode::utils::web::WebResponse, geode::utils::web::WebProgress>::Event*)#1}::operator()(geode::Task<geode::utils::web::WebResponse, geode::utils::web::WebProgress>::Event*) const::{lambda(cocos2d::CCObject*)#1}>, void (CCMenuItemSpriteExtra*)>::target(std::type_info const&) const
FUNC 8dc58 c 0 std::__ndk1::__function::__func<hook274<(anonymous namespace)::hook274Parent>::loadPageFromUserInfo(GJUserScore*)::{lambda(geode::Task<geode::utils::web::WebResponse, geode::utils::web::WebProgress>::Event*)#1}::operator()(geode::Task<geode::utils::web::WebResponse, geode::utils::web::WebProgress>::Event*) const::{lambda(cocos2d::CCObject*)#1}, std::__ndk1::allocator<hook274<(anonymous namespace)::hook274Parent>::loadPageFromUserInfo(GJUserScore*)::{lambda(geode::Task<geode::utils::web::WebResponse, geode::utils::web::WebProgress>::Event*)#1}::operator()(geode::Task<geode::utils::web::WebResponse, geode::utils::web::WebProgress>::Event*) const::{lambda(cocos2d::CCObject*)#1}>, void (CCMenuItemSpriteExtra*)>::target_type() const
FUNC 8dc64 104 0 ObjectWorkshop::createToUser(bool, int)
FUNC 8dd68 20 0 std::__ndk1::__function::__func<hook274<(anonymous namespace)::hook274Parent>::loadPageFromUserInfo(GJUserScore*)::{lambda(geode::Task<geode::utils::web::WebResponse, geode::utils::web::WebProgress>::Event*)#1}::operator()(geode::Task<geode::utils::web::WebResponse, geode::utils::web::WebProgress>::Event*) const::{lambda(cocos2d::CCObject*)#1}::operator()(cocos2d::CCObject*) const::{lambda(int)#1}, std::__ndk1::allocator<hook274<(anonymous namespace)::hook274Parent>::loadPageFromUserInfo(GJUserScore*)::{lambda(geode::Task<geode::utils::web::WebResponse, geode::utils::web::WebProgress>::Event*)#1}::operator()(geode::Task<geode::utils::web::WebResponse, geode::utils::web::WebProgress>::Event*) const::{lambda(cocos2d::CCObject*)#1}::operator()(cocos2d::CCObject*) const::{lambda(int)#1}>, void (int)>::~__func()
FUNC 8dd88 40 0 std::__ndk1::__function::__func<hook274<(anonymous namespace)::hook274Parent>::loadPageFromUserInfo(GJUserScore*)::{lambda(geode::Task<geode::utils::web::WebResponse, geode::utils::web::WebProgress>::Event*)#1}::operator()(geode::Task<geode::utils::web::WebResponse, geode::utils::web::WebProgress>::Event*) const::{lambda(cocos2d::CCObject*)#1}::operator()(cocos2d::CCObject*) const::{lambda(int)#1}, std::__ndk1::allocator<hook274<(anonymous namespace)::hook274Parent>::loadPageFromUserInfo(GJUserScore*)::{lambda(geode::Task<geode::utils::web::WebResponse, geode::utils::web::WebProgress>::Event*)#1}::operator()(geode::Task<geode::utils::web::WebResponse, geode::utils::web::WebProgress>::Event*) const::{lambda(cocos2d::CCObject*)#1}::operator()(cocos2d::CCObject*) const::{lambda(int)#1}>, void (int)>::~__func()
FUNC 8ddc8 88 0 std::__ndk1::__function::__func<hook274<(anonymous namespace)::hook274Parent>::loadPageFromUserInfo(GJUserScore*)::{lambda(geode::Task<geode::utils::web::WebResponse, geode::utils::web::WebProgress>::Event*)#1}::operator()(geode::Task<geode::utils::web::WebResponse, geode::utils::web::WebProgress>::Event*) const::{lambda(cocos2d::CCObject*)#1}::operator()(cocos2d::CCObject*) const::{lambda(int)#1}, std::__ndk1::allocator<hook274<(anonymous namespace)::hook274Parent>::loadPageFromUserInfo(GJUserScore*)::{lambda(geode::Task<geode::utils::web::WebResponse, geode::utils::web::WebProgress>::Event*)#1}::operator()(geode::Task<geode::utils::web::WebResponse, geode::utils::web::WebProgress>::Event*) const::{lambda(cocos2d::CCObject*)#1}::operator()(cocos2d::CCObject*) const::{lambda(int)#1}>, void (int)>::__clone() const
FUNC 8de50 4c 0 std::__ndk1::__function::__func<hook274<(anonymous namespace)::hook274Parent>::loadPageFromUserInfo(GJUserScore*)::{lambda(geode::Task<geode::utils::web::WebResponse, geode::utils::web::WebProgress>::Event*)#1}::operator()(geode::Task<geode::utils::web::WebResponse, geode::utils::web::WebProgress>::Event*) const::{lambda(cocos2d::CCObject*)#1}::operator()(cocos2d::CCObject*) const::{lambda(int)#1}, std::__ndk1::allocator<hook274<(anonymous namespace)::hook274Parent>::loadPageFromUserInfo(GJUserScore*)::{lambda(geode::Task<geode::utils::web::WebResponse, geode::utils::web::WebProgress>::Event*)#1}::operator()(geode::Task<geode::utils::web::WebResponse, geode::utils::web::WebProgress>::Event*) const::{lambda(cocos2d::CCObject*)#1}::operator()(cocos2d::CCObject*) const::{lambda(int)#1}>, void (int)>::__clone(std::__ndk1::__function::__base<void (int)>*) const
FUNC 8de9c 14 0 std::__ndk1::__function::__func<hook274<(anonymous namespace)::hook274Parent>::loadPageFromUserInfo(GJUserScore*)::{lambda(geode::Task<geode::utils::web::WebResponse, geode::utils::web::WebProgress>::Event*)#1}::operator()(geode::Task<geode::utils::web::WebResponse, geode::utils::web::WebProgress>::Event*) const::{lambda(cocos2d::CCObject*)#1}::operator()(cocos2d::CCObject*) const::{lambda(int)#1}, std::__ndk1::allocator<hook274<(anonymous namespace)::hook274Parent>::loadPageFromUserInfo(GJUserScore*)::{lambda(geode::Task<geode::utils::web::WebResponse, geode::utils::web::WebProgress>::Event*)#1}::operator()(geode::Task<geode::utils::web::WebResponse, geode::utils::web::WebProgress>::Event*) const::{lambda(cocos2d::CCObject*)#1}::operator()(cocos2d::CCObject*) const::{lambda(int)#1}>, void (int)>::destroy()
FUNC 8deb0 34 0 std::__ndk1::__function::__func<hook274<(anonymous namespace)::hook274Parent>::loadPageFromUserInfo(GJUserScore*)::{lambda(geode::Task<geode::utils::web::WebResponse, geode::utils::web::WebProgress>::Event*)#1}::operator()(geode::Task<geode::utils::web::WebResponse, geode::utils::web::WebProgress>::Event*) const::{lambda(cocos2d::CCObject*)#1}::operator()(cocos2d::CCObject*) const::{lambda(int)#1}, std::__ndk1::allocator<hook274<(anonymous namespace)::hook274Parent>::loadPageFromUserInfo(GJUserScore*)::{lambda(geode::Task<geode::utils::web::WebResponse, geode::utils::web::WebProgress>::Event*)#1}::operator()(geode::Task<geode::utils::web::WebResponse, geode::utils::web::WebProgress>::Event*) const::{lambda(cocos2d::CCObject*)#1}::operator()(cocos2d::CCObject*) const::{lambda(int)#1}>, void (int)>::destroy_deallocate()
FUNC 8dee4 580 0 std::__ndk1::__function::__func<hook274<(anonymous namespace)::hook274Parent>::loadPageFromUserInfo(GJUserScore*)::{lambda(geode::Task<geode::utils::web::WebResponse, geode::utils::web::WebProgress>::Event*)#1}::operator()(geode::Task<geode::utils::web::WebResponse, geode::utils::web::WebProgress>::Event*) const::{lambda(cocos2d::CCObject*)#1}::operator()(cocos2d::CCObject*) const::{lambda(int)#1}, std::__ndk1::allocator<hook274<(anonymous namespace)::hook274Parent>::loadPageFromUserInfo(GJUserScore*)::{lambda(geode::Task<geode::utils::web::WebResponse, geode::utils::web::WebProgress>::Event*)#1}::operator()(geode::Task<geode::utils::web::WebResponse, geode::utils::web::WebProgress>::Event*) const::{lambda(cocos2d::CCObject*)#1}::operator()(cocos2d::CCObject*) const::{lambda(int)#1}>, void (int)>::operator()(int&&)
FUNC 8e464 1c 0 std::__ndk1::__function::__func<hook274<(anonymous namespace)::hook274Parent>::loadPageFromUserInfo(GJUserScore*)::{lambda(geode::Task<geode::utils::web::WebResponse, geode::utils::web::WebProgress>::Event*)#1}::operator()(geode::Task<geode::utils::web::WebResponse, geode::utils::web::WebProgress>::Event*) const::{lambda(cocos2d::CCObject*)#1}::operator()(cocos2d::CCObject*) const::{lambda(int)#1}, std::__ndk1::allocator<hook274<(anonymous namespace)::hook274Parent>::loadPageFromUserInfo(GJUserScore*)::{lambda(geode::Task<geode::utils::web::WebResponse, geode::utils::web::WebProgress>::Event*)#1}::operator()(geode::Task<geode::utils::web::WebResponse, geode::utils::web::WebProgress>::Event*) const::{lambda(cocos2d::CCObject*)#1}::operator()(cocos2d::CCObject*) const::{lambda(int)#1}>, void (int)>::target(std::type_info const&) const
FUNC 8e480 c 0 std::__ndk1::__function::__func<hook274<(anonymous namespace)::hook274Parent>::loadPageFromUserInfo(GJUserScore*)::{lambda(geode::Task<geode::utils::web::WebResponse, geode::utils::web::WebProgress>::Event*)#1}::operator()(geode::Task<geode::utils::web::WebResponse, geode::utils::web::WebProgress>::Event*) const::{lambda(cocos2d::CCObject*)#1}::operator()(cocos2d::CCObject*) const::{lambda(int)#1}, std::__ndk1::allocator<hook274<(anonymous namespace)::hook274Parent>::loadPageFromUserInfo(GJUserScore*)::{lambda(geode::Task<geode::utils::web::WebResponse, geode::utils::web::WebProgress>::Event*)#1}::operator()(geode::Task<geode::utils::web::WebResponse, geode::utils::web::WebProgress>::Event*) const::{lambda(cocos2d::CCObject*)#1}::operator()(cocos2d::CCObject*) const::{lambda(int)#1}>, void (int)>::target_type() const
FUNC 8e48c 4 0 std::__ndk1::__function::__func<hook274<(anonymous namespace)::hook274Parent>::loadPageFromUserInfo(GJUserScore*)::{lambda(geode::Task<geode::utils::web::WebResponse, geode::utils::web::WebProgress>::Event*)#1}::operator()(geode::Task<geode::utils::web::WebResponse, geode::utils::web::WebProgress>::Event*) const::{lambda(cocos2d::CCObject*)#1}::operator()(cocos2d::CCObject*) const::{lambda(int)#1}::operator()(int) const::{lambda(std::__ndk1::basic_string<char, std::__ndk1::char_traits<char>, std::__ndk1::allocator<char> >)#1}, std::__ndk1::allocator<hook274<(anonymous namespace)::hook274Parent>::loadPageFromUserInfo(GJUserScore*)::{lambda(geode::Task<geode::utils::web::WebResponse, geode::utils::web::WebProgress>::Event*)#1}::operator()(geode::Task<geode::utils::web::WebResponse, geode::utils::web::WebProgress>::Event*) const::{lambda(cocos2d::CCObject*)#1}::operator()(cocos2d::CCObject*) const::{lambda(int)#1}::operator()(int) const::{lambda(std::__ndk1::basic_string<char, std::__ndk1::char_traits<char>, std::__ndk1::allocator<char> >)#1}>, void (std::__ndk1::basic_string<char, std::__ndk1::char_traits<char>, std::__ndk1::allocator<char> > const&)>::~__func()
FUNC 8e490 34 0 std::__ndk1::__function::__func<hook274<(anonymous namespace)::hook274Parent>::loadPageFromUserInfo(GJUserScore*)::{lambda(geode::Task<geode::utils::web::WebResponse, geode::utils::web::WebProgress>::Event*)#1}::operator()(geode::Task<geode::utils::web::WebResponse, geode::utils::web::WebProgress>::Event*) const::{lambda(cocos2d::CCObject*)#1}::operator()(cocos2d::CCObject*) const::{lambda(int)#1}::operator()(int) const::{lambda(std::__ndk1::basic_string<char, std::__ndk1::char_traits<char>, std::__ndk1::allocator<char> >)#1}, std::__ndk1::allocator<hook274<(anonymous namespace)::hook274Parent>::loadPageFromUserInfo(GJUserScore*)::{lambda(geode::Task<geode::utils::web::WebResponse, geode::utils::web::WebProgress>::Event*)#1}::operator()(geode::Task<geode::utils::web::WebResponse, geode::utils::web::WebProgress>::Event*) const::{lambda(cocos2d::CCObject*)#1}::operator()(cocos2d::CCObject*) const::{lambda(int)#1}::operator()(int) const::{lambda(std::__ndk1::basic_string<char, std::__ndk1::char_traits<char>, std::__ndk1::allocator<char> >)#1}>, void (std::__ndk1::basic_string<char, std::__ndk1::char_traits<char>, std::__ndk1::allocator<char> > const&)>::__clone() const
FUNC 8e4c4 14 0 std::__ndk1::__function::__func<hook274<(anonymous namespace)::hook274Parent>::loadPageFromUserInfo(GJUserScore*)::{lambda(geode::Task<geode::utils::web::WebResponse, geode::utils::web::WebProgress>::Event*)#1}::operator()(geode::Task<geode::utils::web::WebResponse, geode::utils::web::WebProgress>::Event*) const::{lambda(cocos2d::CCObject*)#1}::operator()(cocos2d::CCObject*) const::{lambda(int)#1}::operator()(int) const::{lambda(std::__ndk1::basic_string<char, std::__ndk1::char_traits<char>, std::__ndk1::allocator<char> >)#1}, std::__ndk1::allocator<hook274<(anonymous namespace)::hook274Parent>::loadPageFromUserInfo(GJUserScore*)::{lambda(geode::Task<geode::utils::web::WebResponse, geode::utils::web::WebProgress>::Event*)#1}::operator()(geode::Task<geode::utils::web::WebResponse, geode::utils::web::WebProgress>::Event*) const::{lambda(cocos2d::CCObject*)#1}::operator()(cocos2d::CCObject*) const::{lambda(int)#1}::operator()(int) const::{lambda(std::__ndk1::basic_string<char, std::__ndk1::char_traits<char>, std::__ndk1::allocator<char> >)#1}>, void (std::__ndk1::basic_string<char, std::__ndk1::char_traits<char>, std::__ndk1::allocator<char> > const&)>::__clone(std::__ndk1::__function::__base<void (std::__ndk1::basic_string<char, std::__ndk1::char_traits<char>, std::__ndk1::allocator<char> > const&)>*) const
FUNC 8e4d8 4 0 std::__ndk1::__function::__func<hook274<(anonymous namespace)::hook274Parent>::loadPageFromUserInfo(GJUserScore*)::{lambda(geode::Task<geode::utils::web::WebResponse, geode::utils::web::WebProgress>::Event*)#1}::operator()(geode::Task<geode::utils::web::WebResponse, geode::utils::web::WebProgress>::Event*) const::{lambda(cocos2d::CCObject*)#1}::operator()(cocos2d::CCObject*) const::{lambda(int)#1}::operator()(int) const::{lambda(std::__ndk1::basic_string<char, std::__ndk1::char_traits<char>, std::__ndk1::allocator<char> >)#1}, std::__ndk1::allocator<hook274<(anonymous namespace)::hook274Parent>::loadPageFromUserInfo(GJUserScore*)::{lambda(geode::Task<geode::utils::web::WebResponse, geode::utils::web::WebProgress>::Event*)#1}::operator()(geode::Task<geode::utils::web::WebResponse, geode::utils::web::WebProgress>::Event*) const::{lambda(cocos2d::CCObject*)#1}::operator()(cocos2d::CCObject*) const::{lambda(int)#1}::operator()(int) const::{lambda(std::__ndk1::basic_string<char, std::__ndk1::char_traits<char>, std::__ndk1::allocator<char> >)#1}>, void (std::__ndk1::basic_string<char, std::__ndk1::char_traits<char>, std::__ndk1::allocator<char> > const&)>::destroy()
FUNC 8e4dc 4 0 std::__ndk1::__function::__func<hook274<(anonymous namespace)::hook274Parent>::loadPageFromUserInfo(GJUserScore*)::{lambda(geode::Task<geode::utils::web::WebResponse, geode::utils::web::WebProgress>::Event*)#1}::operator()(geode::Task<geode::utils::web::WebResponse, geode::utils::web::WebProgress>::Event*) const::{lambda(cocos2d::CCObject*)#1}::operator()(cocos2d::CCObject*) const::{lambda(int)#1}::operator()(int) const::{lambda(std::__ndk1::basic_string<char, std::__ndk1::char_traits<char>, std::__ndk1::allocator<char> >)#1}, std::__ndk1::allocator<hook274<(anonymous namespace)::hook274Parent>::loadPageFromUserInfo(GJUserScore*)::{lambda(geode::Task<geode::utils::web::WebResponse, geode::utils::web::WebProgress>::Event*)#1}::operator()(geode::Task<geode::utils::web::WebResponse, geode::utils::web::WebProgress>::Event*) const::{lambda(cocos2d::CCObject*)#1}::operator()(cocos2d::CCObject*) const::{lambda(int)#1}::operator()(int) const::{lambda(std::__ndk1::basic_string<char, std::__ndk1::char_traits<char>, std::__ndk1::allocator<char> >)#1}>, void (std::__ndk1::basic_string<char, std::__ndk1::char_traits<char>, std::__ndk1::allocator<char> > const&)>::destroy_deallocate()
FUNC 8e4e0 1ac 0 std::__ndk1::__function::__func<hook274<(anonymous namespace)::hook274Parent>::loadPageFromUserInfo(GJUserScore*)::{lambda(geode::Task<geode::utils::web::WebResponse, geode::utils::web::WebProgress>::Event*)#1}::operator()(geode::Task<geode::utils::web::WebResponse, geode::utils::web::WebProgress>::Event*) const::{lambda(cocos2d::CCObject*)#1}::operator()(cocos2d::CCObject*) const::{lambda(int)#1}::operator()(int) const::{lambda(std::__ndk1::basic_string<char, std::__ndk1::char_traits<char>, std::__ndk1::allocator<char> >)#1}, std::__ndk1::allocator<hook274<(anonymous namespace)::hook274Parent>::loadPageFromUserInfo(GJUserScore*)::{lambda(geode::Task<geode::utils::web::WebResponse, geode::utils::web::WebProgress>::Event*)#1}::operator()(geode::Task<geode::utils::web::WebResponse, geode::utils::web::WebProgress>::Event*) const::{lambda(cocos2d::CCObject*)#1}::operator()(cocos2d::CCObject*) const::{lambda(int)#1}::operator()(int) const::{lambda(std::__ndk1::basic_string<char, std::__ndk1::char_traits<char>, std::__ndk1::allocator<char> >)#1}>, void (std::__ndk1::basic_string<char, std::__ndk1::char_traits<char>, std::__ndk1::allocator<char> > const&)>::operator()(std::__ndk1::basic_string<char, std::__ndk1::char_traits<char>, std::__ndk1::allocator<char> > const&)
FUNC 8e68c 1c 0 std::__ndk1::__function::__func<hook274<(anonymous namespace)::hook274Parent>::loadPageFromUserInfo(GJUserScore*)::{lambda(geode::Task<geode::utils::web::WebResponse, geode::utils::web::WebProgress>::Event*)#1}::operator()(geode::Task<geode::utils::web::WebResponse, geode::utils::web::WebProgress>::Event*) const::{lambda(cocos2d::CCObject*)#1}::operator()(cocos2d::CCObject*) const::{lambda(int)#1}::operator()(int) const::{lambda(std::__ndk1::basic_string<char, std::__ndk1::char_traits<char>, std::__ndk1::allocator<char> >)#1}, std::__ndk1::allocator<hook274<(anonymous namespace)::hook274Parent>::loadPageFromUserInfo(GJUserScore*)::{lambda(geode::Task<geode::utils::web::WebResponse, geode::utils::web::WebProgress>::Event*)#1}::operator()(geode::Task<geode::utils::web::WebResponse, geode::utils::web::WebProgress>::Event*) const::{lambda(cocos2d::CCObject*)#1}::operator()(cocos2d::CCObject*) const::{lambda(int)#1}::operator()(int) const::{lambda(std::__ndk1::basic_string<char, std::__ndk1::char_traits<char>, std::__ndk1::allocator<char> >)#1}>, void (std::__ndk1::basic_string<char, std::__ndk1::char_traits<char>, std::__ndk1::allocator<char> > const&)>::target(std::type_info const&) const
FUNC 8e6a8 c 0 std::__ndk1::__function::__func<hook274<(anonymous namespace)::hook274Parent>::loadPageFromUserInfo(GJUserScore*)::{lambda(geode::Task<geode::utils::web::WebResponse, geode::utils::web::WebProgress>::Event*)#1}::operator()(geode::Task<geode::utils::web::WebResponse, geode::utils::web::WebProgress>::Event*) const::{lambda(cocos2d::CCObject*)#1}::operator()(cocos2d::CCObject*) const::{lambda(int)#1}::operator()(int) const::{lambda(std::__ndk1::basic_string<char, std::__ndk1::char_traits<char>, std::__ndk1::allocator<char> >)#1}, std::__ndk1::allocator<hook274<(anonymous namespace)::hook274Parent>::loadPageFromUserInfo(GJUserScore*)::{lambda(geode::Task<geode::utils::web::WebResponse, geode::utils::web::WebProgress>::Event*)#1}::operator()(geode::Task<geode::utils::web::WebResponse, geode::utils::web::WebProgress>::Event*) const::{lambda(cocos2d::CCObject*)#1}::operator()(cocos2d::CCObject*) const::{lambda(int)#1}::operator()(int) const::{lambda(std::__ndk1::basic_string<char, std::__ndk1::char_traits<char>, std::__ndk1::allocator<char> >)#1}>, void (std::__ndk1::basic_string<char, std::__ndk1::char_traits<char>, std::__ndk1::allocator<char> > const&)>::target_type() const
FUNC 8e6b4 4 0 std::__ndk1::__function::__base<void (std::__ndk1::basic_string<char, std::__ndk1::char_traits<char>, std::__ndk1::allocator<char> > const&)>::~__base()
FUNC 8e6b8 4 0 std::__ndk1::__function::__func<hook274<(anonymous namespace)::hook274Parent>::loadPageFromUserInfo(GJUserScore*)::{lambda(geode::Task<geode::utils::web::WebResponse, geode::utils::web::WebProgress>::Event*)#1}::operator()(geode::Task<geode::utils::web::WebResponse, geode::utils::web::WebProgress>::Event*) const::{lambda(cocos2d::CCObject*)#1}::operator()(cocos2d::CCObject*) const::{lambda(int)#1}::operator()(int) const::{lambda(std::__ndk1::basic_string<char, std::__ndk1::char_traits<char>, std::__ndk1::allocator<char> > const&)#1}, std::__ndk1::allocator<hook274<(anonymous namespace)::hook274Parent>::loadPageFromUserInfo(GJUserScore*)::{lambda(geode::Task<geode::utils::web::WebResponse, geode::utils::web::WebProgress>::Event*)#1}::operator()(geode::Task<geode::utils::web::WebResponse, geode::utils::web::WebProgress>::Event*) const::{lambda(cocos2d::CCObject*)#1}::operator()(cocos2d::CCObject*) const::{lambda(int)#1}::operator()(int) const::{lambda(std::__ndk1::basic_string<char, std::__ndk1::char_traits<char>, std::__ndk1::allocator<char> > const&)#1}>, void (std::__ndk1::basic_string<char, std::__ndk1::char_traits<char>, std::__ndk1::allocator<char> > const&)>::~__func()
FUNC 8e6bc 38 0 std::__ndk1::__function::__func<hook274<(anonymous namespace)::hook274Parent>::loadPageFromUserInfo(GJUserScore*)::{lambda(geode::Task<geode::utils::web::WebResponse, geode::utils::web::WebProgress>::Event*)#1}::operator()(geode::Task<geode::utils::web::WebResponse, geode::utils::web::WebProgress>::Event*) const::{lambda(cocos2d::CCObject*)#1}::operator()(cocos2d::CCObject*) const::{lambda(int)#1}::operator()(int) const::{lambda(std::__ndk1::basic_string<char, std::__ndk1::char_traits<char>, std::__ndk1::allocator<char> > const&)#1}, std::__ndk1::allocator<hook274<(anonymous namespace)::hook274Parent>::loadPageFromUserInfo(GJUserScore*)::{lambda(geode::Task<geode::utils::web::WebResponse, geode::utils::web::WebProgress>::Event*)#1}::operator()(geode::Task<geode::utils::web::WebResponse, geode::utils::web::WebProgress>::Event*) const::{lambda(cocos2d::CCObject*)#1}::operator()(cocos2d::CCObject*) const::{lambda(int)#1}::operator()(int) const::{lambda(std::__ndk1::basic_string<char, std::__ndk1::char_traits<char>, std::__ndk1::allocator<char> > const&)#1}>, void (std::__ndk1::basic_string<char, std::__ndk1::char_traits<char>, std::__ndk1::allocator<char> > const&)>::__clone() const
FUNC 8e6f4 18 0 std::__ndk1::__function::__func<hook274<(anonymous namespace)::hook274Parent>::loadPageFromUserInfo(GJUserScore*)::{lambda(geode::Task<geode::utils::web::WebResponse, geode::utils::web::WebProgress>::Event*)#1}::operator()(geode::Task<geode::utils::web::WebResponse, geode::utils::web::WebProgress>::Event*) const::{lambda(cocos2d::CCObject*)#1}::operator()(cocos2d::CCObject*) const::{lambda(int)#1}::operator()(int) const::{lambda(std::__ndk1::basic_string<char, std::__ndk1::char_traits<char>, std::__ndk1::allocator<char> > const&)#1}, std::__ndk1::allocator<hook274<(anonymous namespace)::hook274Parent>::loadPageFromUserInfo(GJUserScore*)::{lambda(geode::Task<geode::utils::web::WebResponse, geode::utils::web::WebProgress>::Event*)#1}::operator()(geode::Task<geode::utils::web::WebResponse, geode::utils::web::WebProgress>::Event*) const::{lambda(cocos2d::CCObject*)#1}::operator()(cocos2d::CCObject*) const::{lambda(int)#1}::operator()(int) const::{lambda(std::__ndk1::basic_string<char, std::__ndk1::char_traits<char>, std::__ndk1::allocator<char> > const&)#1}>, void (std::__ndk1::basic_string<char, std::__ndk1::char_traits<char>, std::__ndk1::allocator<char> > const&)>::__clone(std::__ndk1::__function::__base<void (std::__ndk1::basic_string<char, std::__ndk1::char_traits<char>, std::__ndk1::allocator<char> > const&)>*) const
FUNC 8e70c 4 0 std::__ndk1::__function::__func<hook274<(anonymous namespace)::hook274Parent>::loadPageFromUserInfo(GJUserScore*)::{lambda(geode::Task<geode::utils::web::WebResponse, geode::utils::web::WebProgress>::Event*)#1}::operator()(geode::Task<geode::utils::web::WebResponse, geode::utils::web::WebProgress>::Event*) const::{lambda(cocos2d::CCObject*)#1}::operator()(cocos2d::CCObject*) const::{lambda(int)#1}::operator()(int) const::{lambda(std::__ndk1::basic_string<char, std::__ndk1::char_traits<char>, std::__ndk1::allocator<char> > const&)#1}, std::__ndk1::allocator<hook274<(anonymous namespace)::hook274Parent>::loadPageFromUserInfo(GJUserScore*)::{lambda(geode::Task<geode::utils::web::WebResponse, geode::utils::web::WebProgress>::Event*)#1}::operator()(geode::Task<geode::utils::web::WebResponse, geode::utils::web::WebProgress>::Event*) const::{lambda(cocos2d::CCObject*)#1}::operator()(cocos2d::CCObject*) const::{lambda(int)#1}::operator()(int) const::{lambda(std::__ndk1::basic_string<char, std::__ndk1::char_traits<char>, std::__ndk1::allocator<char> > const&)#1}>, void (std::__ndk1::basic_string<char, std::__ndk1::char_traits<char>, std::__ndk1::allocator<char> > const&)>::destroy()
FUNC 8e710 4 0 std::__ndk1::__function::__func<hook274<(anonymous namespace)::hook274Parent>::loadPageFromUserInfo(GJUserScore*)::{lambda(geode::Task<geode::utils::web::WebResponse, geode::utils::web::WebProgress>::Event*)#1}::operator()(geode::Task<geode::utils::web::WebResponse, geode::utils::web::WebProgress>::Event*) const::{lambda(cocos2d::CCObject*)#1}::operator()(cocos2d::CCObject*) const::{lambda(int)#1}::operator()(int) const::{lambda(std::__ndk1::basic_string<char, std::__ndk1::char_traits<char>, std::__ndk1::allocator<char> > const&)#1}, std::__ndk1::allocator<hook274<(anonymous namespace)::hook274Parent>::loadPageFromUserInfo(GJUserScore*)::{lambda(geode::Task<geode::utils::web::WebResponse, geode::utils::web::WebProgress>::Event*)#1}::operator()(geode::Task<geode::utils::web::WebResponse, geode::utils::web::WebProgress>::Event*) const::{lambda(cocos2d::CCObject*)#1}::operator()(cocos2d::CCObject*) const::{lambda(int)#1}::operator()(int) const::{lambda(std::__ndk1::basic_string<char, std::__ndk1::char_traits<char>, std::__ndk1::allocator<char> > const&)#1}>, void (std::__ndk1::basic_string<char, std::__ndk1::char_traits<char>, std::__ndk1::allocator<char> > const&)>::destroy_deallocate()
FUNC 8e714 144 0 std::__ndk1::__function::__func<hook274<(anonymous namespace)::hook274Parent>::loadPageFromUserInfo(GJUserScore*)::{lambda(geode::Task<geode::utils::web::WebResponse, geode::utils::web::WebProgress>::Event*)#1}::operator()(geode::Task<geode::utils::web::WebResponse, geode::utils::web::WebProgress>::Event*) const::{lambda(cocos2d::CCObject*)#1}::operator()(cocos2d::CCObject*) const::{lambda(int)#1}::operator()(int) const::{lambda(std::__ndk1::basic_string<char, std::__ndk1::char_traits<char>, std::__ndk1::allocator<char> > const&)#1}, std::__ndk1::allocator<hook274<(anonymous namespace)::hook274Parent>::loadPageFromUserInfo(GJUserScore*)::{lambda(geode::Task<geode::utils::web::WebResponse, geode::utils::web::WebProgress>::Event*)#1}::operator()(geode::Task<geode::utils::web::WebResponse, geode::utils::web::WebProgress>::Event*) const::{lambda(cocos2d::CCObject*)#1}::operator()(cocos2d::CCObject*) const::{lambda(int)#1}::operator()(int) const::{lambda(std::__ndk1::basic_string<char, std::__ndk1::char_traits<char>, std::__ndk1::allocator<char> > const&)#1}>, void (std::__ndk1::basic_string<char, std::__ndk1::char_traits<char>, std::__ndk1::allocator<char> > const&)>::operator()(std::__ndk1::basic_string<char, std::__ndk1::char_traits<char>, std::__ndk1::allocator<char> > const&)
FUNC 8e858 1c 0 std::__ndk1::__function::__func<hook274<(anonymous namespace)::hook274Parent>::loadPageFromUserInfo(GJUserScore*)::{lambda(geode::Task<geode::utils::web::WebResponse, geode::utils::web::WebProgress>::Event*)#1}::operator()(geode::Task<geode::utils::web::WebResponse, geode::utils::web::WebProgress>::Event*) const::{lambda(cocos2d::CCObject*)#1}::operator()(cocos2d::CCObject*) const::{lambda(int)#1}::operator()(int) const::{lambda(std::__ndk1::basic_string<char, std::__ndk1::char_traits<char>, std::__ndk1::allocator<char> > const&)#1}, std::__ndk1::allocator<hook274<(anonymous namespace)::hook274Parent>::loadPageFromUserInfo(GJUserScore*)::{lambda(geode::Task<geode::utils::web::WebResponse, geode::utils::web::WebProgress>::Event*)#1}::operator()(geode::Task<geode::utils::web::WebResponse, geode::utils::web::WebProgress>::Event*) const::{lambda(cocos2d::CCObject*)#1}::operator()(cocos2d::CCObject*) const::{lambda(int)#1}::operator()(int) const::{lambda(std::__ndk1::basic_string<char, std::__ndk1::char_traits<char>, std::__ndk1::allocator<char> > const&)#1}>, void (std::__ndk1::basic_string<char, std::__ndk1::char_traits<char>, std::__ndk1::allocator<char> > const&)>::target(std::type_info const&) const
FUNC 8e874 c 0 std::__ndk1::__function::__func<hook274<(anonymous namespace)::hook274Parent>::loadPageFromUserInfo(GJUserScore*)::{lambda(geode::Task<geode::utils::web::WebResponse, geode::utils::web::WebProgress>::Event*)#1}::operator()(geode::Task<geode::utils::web::WebResponse, geode::utils::web::WebProgress>::Event*) const::{lambda(cocos2d::CCObject*)#1}::operator()(cocos2d::CCObject*) const::{lambda(int)#1}::operator()(int) const::{lambda(std::__ndk1::basic_string<char, std::__ndk1::char_traits<char>, std::__ndk1::allocator<char> > const&)#1}, std::__ndk1::allocator<hook274<(anonymous namespace)::hook274Parent>::loadPageFromUserInfo(GJUserScore*)::{lambda(geode::Task<geode::utils::web::WebResponse, geode::utils::web::WebProgress>::Event*)#1}::operator()(geode::Task<geode::utils::web::WebResponse, geode::utils::web::WebProgress>::Event*) const::{lambda(cocos2d::CCObject*)#1}::operator()(cocos2d::CCObject*) const::{lambda(int)#1}::operator()(int) const::{lambda(std::__ndk1::basic_string<char, std::__ndk1::char_traits<char>, std::__ndk1::allocator<char> > const&)#1}>, void (std::__ndk1::basic_string<char, std::__ndk1::char_traits<char>, std::__ndk1::allocator<char> > const&)>::target_type() const
FUNC 8e880 4 0 std::__ndk1::__function::__func<hook274<(anonymous namespace)::hook274Parent>::loadPageFromUserInfo(GJUserScore*)::{lambda(geode::Task<geode::utils::web::WebResponse, geode::utils::web::WebProgress>::Event*)#1}::operator()(geode::Task<geode::utils::web::WebResponse, geode::utils::web::WebProgress>::Event*) const::{lambda(cocos2d::CCObject*)#1}::operator()(cocos2d::CCObject*) const::{lambda(int)#1}::operator()(int) const::{lambda(std::__ndk1::basic_string<char, std::__ndk1::char_traits<char>, std::__ndk1::allocator<char> > const&)#1}::operator()(std::__ndk1::basic_string<char, std::__ndk1::char_traits<char>, std::__ndk1::allocator<char> > const&) const::{lambda(int)#1}, std::__ndk1::allocator<hook274<(anonymous namespace)::hook274Parent>::loadPageFromUserInfo(GJUserScore*)::{lambda(geode::Task<geode::utils::web::WebResponse, geode::utils::web::WebProgress>::Event*)#1}::operator()(geode::Task<geode::utils::web::WebResponse, geode::utils::web::WebProgress>::Event*) const::{lambda(cocos2d::CCObject*)#1}::operator()(cocos2d::CCObject*) const::{lambda(int)#1}::operator()(int) const::{lambda(std::__ndk1::basic_string<char, std::__ndk1::char_traits<char>, std::__ndk1::allocator<char> > const&)#1}::operator()(std::__ndk1::basic_string<char, std::__ndk1::char_traits<char>, std::__ndk1::allocator<char> > const&) const::{lambda(int)#1}>, void (int)>::~__func()
FUNC 8e884 38 0 std::__ndk1::__function::__func<hook274<(anonymous namespace)::hook274Parent>::loadPageFromUserInfo(GJUserScore*)::{lambda(geode::Task<geode::utils::web::WebResponse, geode::utils::web::WebProgress>::Event*)#1}::operator()(geode::Task<geode::utils::web::WebResponse, geode::utils::web::WebProgress>::Event*) const::{lambda(cocos2d::CCObject*)#1}::operator()(cocos2d::CCObject*) const::{lambda(int)#1}::operator()(int) const::{lambda(std::__ndk1::basic_string<char, std::__ndk1::char_traits<char>, std::__ndk1::allocator<char> > const&)#1}::operator()(std::__ndk1::basic_string<char, std::__ndk1::char_traits<char>, std::__ndk1::allocator<char> > const&) const::{lambda(int)#1}, std::__ndk1::allocator<hook274<(anonymous namespace)::hook274Parent>::loadPageFromUserInfo(GJUserScore*)::{lambda(geode::Task<geode::utils::web::WebResponse, geode::utils::web::WebProgress>::Event*)#1}::operator()(geode::Task<geode::utils::web::WebResponse, geode::utils::web::WebProgress>::Event*) const::{lambda(cocos2d::CCObject*)#1}::operator()(cocos2d::CCObject*) const::{lambda(int)#1}::operator()(int) const::{lambda(std::__ndk1::basic_string<char, std::__ndk1::char_traits<char>, std::__ndk1::allocator<char> > const&)#1}::operator()(std::__ndk1::basic_string<char, std::__ndk1::char_traits<char>, std::__ndk1::allocator<char> > const&) const::{lambda(int)#1}>, void (int)>::__clone() const
FUNC 8e8bc 18 0 std::__ndk1::__function::__func<hook274<(anonymous namespace)::hook274Parent>::loadPageFromUserInfo(GJUserScore*)::{lambda(geode::Task<geode::utils::web::WebResponse, geode::utils::web::WebProgress>::Event*)#1}::operator()(geode::Task<geode::utils::web::WebResponse, geode::utils::web::WebProgress>::Event*) const::{lambda(cocos2d::CCObject*)#1}::operator()(cocos2d::CCObject*) const::{lambda(int)#1}::operator()(int) const::{lambda(std::__ndk1::basic_string<char, std::__ndk1::char_traits<char>, std::__ndk1::allocator<char> > const&)#1}::operator()(std::__ndk1::basic_string<char, std::__ndk1::char_traits<char>, std::__ndk1::allocator<char> > const&) const::{lambda(int)#1}, std::__ndk1::allocator<hook274<(anonymous namespace)::hook274Parent>::loadPageFromUserInfo(GJUserScore*)::{lambda(geode::Task<geode::utils::web::WebResponse, geode::utils::web::WebProgress>::Event*)#1}::operator()(geode::Task<geode::utils::web::WebResponse, geode::utils::web::WebProgress>::Event*) const::{lambda(cocos2d::CCObject*)#1}::operator()(cocos2d::CCObject*) const::{lambda(int)#1}::operator()(int) const::{lambda(std::__ndk1::basic_string<char, std::__ndk1::char_traits<char>, std::__ndk1::allocator<char> > const&)#1}::operator()(std::__ndk1::basic_string<char, std::__ndk1::char_traits<char>, std::__ndk1::allocator<char> > const&) const::{lambda(int)#1}>, void (int)>::__clone(std::__ndk1::__function::__base<void (int)>*) const
FUNC 8e8d4 4 0 std::__ndk1::__function::__func<hook274<(anonymous namespace)::hook274Parent>::loadPageFromUserInfo(GJUserScore*)::{lambda(geode::Task<geode::utils::web::WebResponse, geode::utils::web::WebProgress>::Event*)#1}::operator()(geode::Task<geode::utils::web::WebResponse, geode::utils::web::WebProgress>::Event*) const::{lambda(cocos2d::CCObject*)#1}::operator()(cocos2d::CCObject*) const::{lambda(int)#1}::operator()(int) const::{lambda(std::__ndk1::basic_string<char, std::__ndk1::char_traits<char>, std::__ndk1::allocator<char> > const&)#1}::operator()(std::__ndk1::basic_string<char, std::__ndk1::char_traits<char>, std::__ndk1::allocator<char> > const&) const::{lambda(int)#1}, std::__ndk1::allocator<hook274<(anonymous namespace)::hook274Parent>::loadPageFromUserInfo(GJUserScore*)::{lambda(geode::Task<geode::utils::web::WebResponse, geode::utils::web::WebProgress>::Event*)#1}::operator()(geode::Task<geode::utils::web::WebResponse, geode::utils::web::WebProgress>::Event*) const::{lambda(cocos2d::CCObject*)#1}::operator()(cocos2d::CCObject*) const::{lambda(int)#1}::operator()(int) const::{lambda(std::__ndk1::basic_string<char, std::__ndk1::char_traits<char>, std::__ndk1::allocator<char> > const&)#1}::operator()(std::__ndk1::basic_string<char, std::__ndk1::char_traits<char>, std::__ndk1::allocator<char> > const&) const::{lambda(int)#1}>, void (int)>::destroy()
FUNC 8e8d8 4 0 std::__ndk1::__function::__func<hook274<(anonymous namespace)::hook274Parent>::loadPageFromUserInfo(GJUserScore*)::{lambda(geode::Task<geode::utils::web::WebResponse, geode::utils::web::WebProgress>::Event*)#1}::operator()(geode::Task<geode::utils::web::WebResponse, geode::utils::web::WebProgress>::Event*) const::{lambda(cocos2d::CCObject*)#1}::operator()(cocos2d::CCObject*) const::{lambda(int)#1}::operator()(int) const::{lambda(std::__ndk1::basic_string<char, std::__ndk1::char_traits<char>, std::__ndk1::allocator<char> > const&)#1}::operator()(std::__ndk1::basic_string<char, std::__ndk1::char_traits<char>, std::__ndk1::allocator<char> > const&) const::{lambda(int)#1}, std::__ndk1::allocator<hook274<(anonymous namespace)::hook274Parent>::loadPageFromUserInfo(GJUserScore*)::{lambda(geode::Task<geode::utils::web::WebResponse, geode::utils::web::WebProgress>::Event*)#1}::operator()(geode::Task<geode::utils::web::WebResponse, geode::utils::web::WebProgress>::Event*) const::{lambda(cocos2d::CCObject*)#1}::operator()(cocos2d::CCObject*) const::{lambda(int)#1}::operator()(int) const::{lambda(std::__ndk1::basic_string<char, std::__ndk1::char_traits<char>, std::__ndk1::allocator<char> > const&)#1}::operator()(std::__ndk1::basic_string<char, std::__ndk1::char_traits<char>, std::__ndk1::allocator<char> > const&) const::{lambda(int)#1}>, void (int)>::destroy_deallocate()
FUNC 8e8dc 1b4 0 std::__ndk1::__function::__func<hook274<(anonymous namespace)::hook274Parent>::loadPageFromUserInfo(GJUserScore*)::{lambda(geode::Task<geode::utils::web::WebResponse, geode::utils::web::WebProgress>::Event*)#1}::operator()(geode::Task<geode::utils::web::WebResponse, geode::utils::web::WebProgress>::Event*) const::{lambda(cocos2d::CCObject*)#1}::operator()(cocos2d::CCObject*) const::{lambda(int)#1}::operator()(int) const::{lambda(std::__ndk1::basic_string<char, std::__ndk1::char_traits<char>, std::__ndk1::allocator<char> > const&)#1}::operator()(std::__ndk1::basic_string<char, std::__ndk1::char_traits<char>, std::__ndk1::allocator<char> > const&) const::{lambda(int)#1}, std::__ndk1::allocator<hook274<(anonymous namespace)::hook274Parent>::loadPageFromUserInfo(GJUserScore*)::{lambda(geode::Task<geode::utils::web::WebResponse, geode::utils::web::WebProgress>::Event*)#1}::operator()(geode::Task<geode::utils::web::WebResponse, geode::utils::web::WebProgress>::Event*) const::{lambda(cocos2d::CCObject*)#1}::operator()(cocos2d::CCObject*) const::{lambda(int)#1}::operator()(int) const::{lambda(std::__ndk1::basic_string<char, std::__ndk1::char_traits<char>, std::__ndk1::allocator<char> > const&)#1}::operator()(std::__ndk1::basic_string<char, std::__ndk1::char_traits<char>, std::__ndk1::allocator<char> > const&) const::{lambda(int)#1}>, void (int)>::operator()(int&&)
FUNC 8ea90 1c 0 std::__ndk1::__function::__func<hook274<(anonymous namespace)::hook274Parent>::loadPageFromUserInfo(GJUserScore*)::{lambda(geode::Task<geode::utils::web::WebResponse, geode::utils::web::WebProgress>::Event*)#1}::operator()(geode::Task<geode::utils::web::WebResponse, geode::utils::web::WebProgress>::Event*) const::{lambda(cocos2d::CCObject*)#1}::operator()(cocos2d::CCObject*) const::{lambda(int)#1}::operator()(int) const::{lambda(std::__ndk1::basic_string<char, std::__ndk1::char_traits<char>, std::__ndk1::allocator<char> > const&)#1}::operator()(std::__ndk1::basic_string<char, std::__ndk1::char_traits<char>, std::__ndk1::allocator<char> > const&) const::{lambda(int)#1}, std::__ndk1::allocator<hook274<(anonymous namespace)::hook274Parent>::loadPageFromUserInfo(GJUserScore*)::{lambda(geode::Task<geode::utils::web::WebResponse, geode::utils::web::WebProgress>::Event*)#1}::operator()(geode::Task<geode::utils::web::WebResponse, geode::utils::web::WebProgress>::Event*) const::{lambda(cocos2d::CCObject*)#1}::operator()(cocos2d::CCObject*) const::{lambda(int)#1}::operator()(int) const::{lambda(std::__ndk1::basic_string<char, std::__ndk1::char_traits<char>, std::__ndk1::allocator<char> > const&)#1}::operator()(std::__ndk1::basic_string<char, std::__ndk1::char_traits<char>, std::__ndk1::allocator<char> > const&) const::{lambda(int)#1}>, void (int)>::target(std::type_info const&) const
FUNC 8eaac c 0 std::__ndk1::__function::__func<hook274<(anonymous namespace)::hook274Parent>::loadPageFromUserInfo(GJUserScore*)::{lambda(geode::Task<geode::utils::web::WebResponse, geode::utils::web::WebProgress>::Event*)#1}::operator()(geode::Task<geode::utils::web::WebResponse, geode::utils::web::WebProgress>::Event*) const::{lambda(cocos2d::CCObject*)#1}::operator()(cocos2d::CCObject*) const::{lambda(int)#1}::operator()(int) const::{lambda(std::__ndk1::basic_string<char, std::__ndk1::char_traits<char>, std::__ndk1::allocator<char> > const&)#1}::operator()(std::__ndk1::basic_string<char, std::__ndk1::char_traits<char>, std::__ndk1::allocator<char> > const&) const::{lambda(int)#1}, std::__ndk1::allocator<hook274<(anonymous namespace)::hook274Parent>::loadPageFromUserInfo(GJUserScore*)::{lambda(geode::Task<geode::utils::web::WebResponse, geode::utils::web::WebProgress>::Event*)#1}::operator()(geode::Task<geode::utils::web::WebResponse, geode::utils::web::WebProgress>::Event*) const::{lambda(cocos2d::CCObject*)#1}::operator()(cocos2d::CCObject*) const::{lambda(int)#1}::operator()(int) const::{lambda(std::__ndk1::basic_string<char, std::__ndk1::char_traits<char>, std::__ndk1::allocator<char> > const&)#1}::operator()(std::__ndk1::basic_string<char, std::__ndk1::char_traits<char>, std::__ndk1::allocator<char> > const&) const::{lambda(int)#1}>, void (int)>::target_type() const
FUNC 8eab8 4 0 std::__ndk1::__function::__base<void (std::__ndk1::basic_string<char, std::__ndk1::char_traits<char>, std::__ndk1::allocator<char> >)>::~__base()
FUNC 8eabc 4 0 std::__ndk1::__function::__func<hook274<(anonymous namespace)::hook274Parent>::loadPageFromUserInfo(GJUserScore*)::{lambda(geode::Task<geode::utils::web::WebResponse, geode::utils::web::WebProgress>::Event*)#1}::operator()(geode::Task<geode::utils::web::WebResponse, geode::utils::web::WebProgress>::Event*) const::{lambda(cocos2d::CCObject*)#1}::operator()(cocos2d::CCObject*) const::{lambda(int)#1}::operator()(int) const::{lambda(std::__ndk1::basic_string<char, std::__ndk1::char_traits<char>, std::__ndk1::allocator<char> >)#2}, std::__ndk1::allocator<hook274<(anonymous namespace)::hook274Parent>::loadPageFromUserInfo(GJUserScore*)::{lambda(geode::Task<geode::utils::web::WebResponse, geode::utils::web::WebProgress>::Event*)#1}::operator()(geode::Task<geode::utils::web::WebResponse, geode::utils::web::WebProgress>::Event*) const::{lambda(cocos2d::CCObject*)#1}::operator()(cocos2d::CCObject*) const::{lambda(int)#1}::operator()(int) const::{lambda(std::__ndk1::basic_string<char, std::__ndk1::char_traits<char>, std::__ndk1::allocator<char> >)#2}>, void (std::__ndk1::basic_string<char, std::__ndk1::char_traits<char>, std::__ndk1::allocator<char> >)>::~__func()
FUNC 8eac0 38 0 std::__ndk1::__function::__func<hook274<(anonymous namespace)::hook274Parent>::loadPageFromUserInfo(GJUserScore*)::{lambda(geode::Task<geode::utils::web::WebResponse, geode::utils::web::WebProgress>::Event*)#1}::operator()(geode::Task<geode::utils::web::WebResponse, geode::utils::web::WebProgress>::Event*) const::{lambda(cocos2d::CCObject*)#1}::operator()(cocos2d::CCObject*) const::{lambda(int)#1}::operator()(int) const::{lambda(std::__ndk1::basic_string<char, std::__ndk1::char_traits<char>, std::__ndk1::allocator<char> >)#2}, std::__ndk1::allocator<hook274<(anonymous namespace)::hook274Parent>::loadPageFromUserInfo(GJUserScore*)::{lambda(geode::Task<geode::utils::web::WebResponse, geode::utils::web::WebProgress>::Event*)#1}::operator()(geode::Task<geode::utils::web::WebResponse, geode::utils::web::WebProgress>::Event*) const::{lambda(cocos2d::CCObject*)#1}::operator()(cocos2d::CCObject*) const::{lambda(int)#1}::operator()(int) const::{lambda(std::__ndk1::basic_string<char, std::__ndk1::char_traits<char>, std::__ndk1::allocator<char> >)#2}>, void (std::__ndk1::basic_string<char, std::__ndk1::char_traits<char>, std::__ndk1::allocator<char> >)>::__clone() const
FUNC 8eaf8 18 0 std::__ndk1::__function::__func<hook274<(anonymous namespace)::hook274Parent>::loadPageFromUserInfo(GJUserScore*)::{lambda(geode::Task<geode::utils::web::WebResponse, geode::utils::web::WebProgress>::Event*)#1}::operator()(geode::Task<geode::utils::web::WebResponse, geode::utils::web::WebProgress>::Event*) const::{lambda(cocos2d::CCObject*)#1}::operator()(cocos2d::CCObject*) const::{lambda(int)#1}::operator()(int) const::{lambda(std::__ndk1::basic_string<char, std::__ndk1::char_traits<char>, std::__ndk1::allocator<char> >)#2}, std::__ndk1::allocator<hook274<(anonymous namespace)::hook274Parent>::loadPageFromUserInfo(GJUserScore*)::{lambda(geode::Task<geode::utils::web::WebResponse, geode::utils::web::WebProgress>::Event*)#1}::operator()(geode::Task<geode::utils::web::WebResponse, geode::utils::web::WebProgress>::Event*) const::{lambda(cocos2d::CCObject*)#1}::operator()(cocos2d::CCObject*) const::{lambda(int)#1}::operator()(int) const::{lambda(std::__ndk1::basic_string<char, std::__ndk1::char_traits<char>, std::__ndk1::allocator<char> >)#2}>, void (std::__ndk1::basic_string<char, std::__ndk1::char_traits<char>, std::__ndk1::allocator<char> >)>::__clone(std::__ndk1::__function::__base<void (std::__ndk1::basic_string<char, std::__ndk1::char_traits<char>, std::__ndk1::allocator<char> >)>*) const
FUNC 8eb10 4 0 std::__ndk1::__function::__func<hook274<(anonymous namespace)::hook274Parent>::loadPageFromUserInfo(GJUserScore*)::{lambda(geode::Task<geode::utils::web::WebResponse, geode::utils::web::WebProgress>::Event*)#1}::operator()(geode::Task<geode::utils::web::WebResponse, geode::utils::web::WebProgress>::Event*) const::{lambda(cocos2d::CCObject*)#1}::operator()(cocos2d::CCObject*) const::{lambda(int)#1}::operator()(int) const::{lambda(std::__ndk1::basic_string<char, std::__ndk1::char_traits<char>, std::__ndk1::allocator<char> >)#2}, std::__ndk1::allocator<hook274<(anonymous namespace)::hook274Parent>::loadPageFromUserInfo(GJUserScore*)::{lambda(geode::Task<geode::utils::web::WebResponse, geode::utils::web::WebProgress>::Event*)#1}::operator()(geode::Task<geode::utils::web::WebResponse, geode::utils::web::WebProgress>::Event*) const::{lambda(cocos2d::CCObject*)#1}::operator()(cocos2d::CCObject*) const::{lambda(int)#1}::operator()(int) const::{lambda(std::__ndk1::basic_string<char, std::__ndk1::char_traits<char>, std::__ndk1::allocator<char> >)#2}>, void (std::__ndk1::basic_string<char, std::__ndk1::char_traits<char>, std::__ndk1::allocator<char> >)>::destroy()
FUNC 8eb14 4 0 std::__ndk1::__function::__func<hook274<(anonymous namespace)::hook274Parent>::loadPageFromUserInfo(GJUserScore*)::{lambda(geode::Task<geode::utils::web::WebResponse, geode::utils::web::WebProgress>::Event*)#1}::operator()(geode::Task<geode::utils::web::WebResponse, geode::utils::web::WebProgress>::Event*) const::{lambda(cocos2d::CCObject*)#1}::operator()(cocos2d::CCObject*) const::{lambda(int)#1}::operator()(int) const::{lambda(std::__ndk1::basic_string<char, std::__ndk1::char_traits<char>, std::__ndk1::allocator<char> >)#2}, std::__ndk1::allocator<hook274<(anonymous namespace)::hook274Parent>::loadPageFromUserInfo(GJUserScore*)::{lambda(geode::Task<geode::utils::web::WebResponse, geode::utils::web::WebProgress>::Event*)#1}::operator()(geode::Task<geode::utils::web::WebResponse, geode::utils::web::WebProgress>::Event*) const::{lambda(cocos2d::CCObject*)#1}::operator()(cocos2d::CCObject*) const::{lambda(int)#1}::operator()(int) const::{lambda(std::__ndk1::basic_string<char, std::__ndk1::char_traits<char>, std::__ndk1::allocator<char> >)#2}>, void (std::__ndk1::basic_string<char, std::__ndk1::char_traits<char>, std::__ndk1::allocator<char> >)>::destroy_deallocate()
FUNC 8eb18 19c 0 std::__ndk1::__function::__func<hook274<(anonymous namespace)::hook274Parent>::loadPageFromUserInfo(GJUserScore*)::{lambda(geode::Task<geode::utils::web::WebResponse, geode::utils::web::WebProgress>::Event*)#1}::operator()(geode::Task<geode::utils::web::WebResponse, geode::utils::web::WebProgress>::Event*) const::{lambda(cocos2d::CCObject*)#1}::operator()(cocos2d::CCObject*) const::{lambda(int)#1}::operator()(int) const::{lambda(std::__ndk1::basic_string<char, std::__ndk1::char_traits<char>, std::__ndk1::allocator<char> >)#2}, std::__ndk1::allocator<hook274<(anonymous namespace)::hook274Parent>::loadPageFromUserInfo(GJUserScore*)::{lambda(geode::Task<geode::utils::web::WebResponse, geode::utils::web::WebProgress>::Event*)#1}::operator()(geode::Task<geode::utils::web::WebResponse, geode::utils::web::WebProgress>::Event*) const::{lambda(cocos2d::CCObject*)#1}::operator()(cocos2d::CCObject*) const::{lambda(int)#1}::operator()(int) const::{lambda(std::__ndk1::basic_string<char, std::__ndk1::char_traits<char>, std::__ndk1::allocator<char> >)#2}>, void (std::__ndk1::basic_string<char, std::__ndk1::char_traits<char>, std::__ndk1::allocator<char> >)>::operator()(std::__ndk1::basic_string<char, std::__ndk1::char_traits<char>, std::__ndk1::allocator<char> >&&)
FUNC 8ecb4 1c 0 std::__ndk1::__function::__func<hook274<(anonymous namespace)::hook274Parent>::loadPageFromUserInfo(GJUserScore*)::{lambda(geode::Task<geode::utils::web::WebResponse, geode::utils::web::WebProgress>::Event*)#1}::operator()(geode::Task<geode::utils::web::WebResponse, geode::utils::web::WebProgress>::Event*) const::{lambda(cocos2d::CCObject*)#1}::operator()(cocos2d::CCObject*) const::{lambda(int)#1}::operator()(int) const::{lambda(std::__ndk1::basic_string<char, std::__ndk1::char_traits<char>, std::__ndk1::allocator<char> >)#2}, std::__ndk1::allocator<hook274<(anonymous namespace)::hook274Parent>::loadPageFromUserInfo(GJUserScore*)::{lambda(geode::Task<geode::utils::web::WebResponse, geode::utils::web::WebProgress>::Event*)#1}::operator()(geode::Task<geode::utils::web::WebResponse, geode::utils::web::WebProgress>::Event*) const::{lambda(cocos2d::CCObject*)#1}::operator()(cocos2d::CCObject*) const::{lambda(int)#1}::operator()(int) const::{lambda(std::__ndk1::basic_string<char, std::__ndk1::char_traits<char>, std::__ndk1::allocator<char> >)#2}>, void (std::__ndk1::basic_string<char, std::__ndk1::char_traits<char>, std::__ndk1::allocator<char> >)>::target(std::type_info const&) const
FUNC 8ecd0 c 0 std::__ndk1::__function::__func<hook274<(anonymous namespace)::hook274Parent>::loadPageFromUserInfo(GJUserScore*)::{lambda(geode::Task<geode::utils::web::WebResponse, geode::utils::web::WebProgress>::Event*)#1}::operator()(geode::Task<geode::utils::web::WebResponse, geode::utils::web::WebProgress>::Event*) const::{lambda(cocos2d::CCObject*)#1}::operator()(cocos2d::CCObject*) const::{lambda(int)#1}::operator()(int) const::{lambda(std::__ndk1::basic_string<char, std::__ndk1::char_traits<char>, std::__ndk1::allocator<char> >)#2}, std::__ndk1::allocator<hook274<(anonymous namespace)::hook274Parent>::loadPageFromUserInfo(GJUserScore*)::{lambda(geode::Task<geode::utils::web::WebResponse, geode::utils::web::WebProgress>::Event*)#1}::operator()(geode::Task<geode::utils::web::WebResponse, geode::utils::web::WebProgress>::Event*) const::{lambda(cocos2d::CCObject*)#1}::operator()(cocos2d::CCObject*) const::{lambda(int)#1}::operator()(int) const::{lambda(std::__ndk1::basic_string<char, std::__ndk1::char_traits<char>, std::__ndk1::allocator<char> >)#2}>, void (std::__ndk1::basic_string<char, std::__ndk1::char_traits<char>, std::__ndk1::allocator<char> >)>::target_type() const
FUNC 8ecdc 4 0 std::__ndk1::__function::__base<void (int)>::~__base()
FUNC 8ece0 4 0 std::__ndk1::__function::__func<hook274<(anonymous namespace)::hook274Parent>::loadPageFromUserInfo(GJUserScore*)::{lambda(geode::Task<geode::utils::web::WebResponse, geode::utils::web::WebProgress>::Event*)#1}::operator()(geode::Task<geode::utils::web::WebResponse, geode::utils::web::WebProgress>::Event*) const::{lambda(cocos2d::CCObject*)#1}::operator()(cocos2d::CCObject*) const::{lambda(int)#1}::operator()(int) const::{lambda(std::__ndk1::basic_string<char, std::__ndk1::char_traits<char>, std::__ndk1::allocator<char> >(std::__ndk1::basic_string<char, std::__ndk1::char_traits<char>, std::__ndk1::allocator<char> >))#2}::operator() const::{lambda(int)#1}, std::__ndk1::allocator<hook274<(anonymous namespace)::hook274Parent>::loadPageFromUserInfo(GJUserScore*)::{lambda(geode::Task<geode::utils::web::WebResponse, geode::utils::web::WebProgress>::Event*)#1}::operator()(geode::Task<geode::utils::web::WebResponse, geode::utils::web::WebProgress>::Event*) const::{lambda(cocos2d::CCObject*)#1}::operator()(cocos2d::CCObject*) const::{lambda(int)#1}::operator()(int) const::{lambda(std::__ndk1::basic_string<char, std::__ndk1::char_traits<char>, std::__ndk1::allocator<char> >(std::__ndk1::basic_string<char, std::__ndk1::char_traits<char>, std::__ndk1::allocator<char> >))#2}::operator() const::{lambda(int)#1}>, void (int)>::~__func()
FUNC 8ece4 38 0 std::__ndk1::__function::__func<hook274<(anonymous namespace)::hook274Parent>::loadPageFromUserInfo(GJUserScore*)::{lambda(geode::Task<geode::utils::web::WebResponse, geode::utils::web::WebProgress>::Event*)#1}::operator()(geode::Task<geode::utils::web::WebResponse, geode::utils::web::WebProgress>::Event*) const::{lambda(cocos2d::CCObject*)#1}::operator()(cocos2d::CCObject*) const::{lambda(int)#1}::operator()(int) const::{lambda(std::__ndk1::basic_string<char, std::__ndk1::char_traits<char>, std::__ndk1::allocator<char> >(std::__ndk1::basic_string<char, std::__ndk1::char_traits<char>, std::__ndk1::allocator<char> >))#2}::operator() const::{lambda(int)#1}, std::__ndk1::allocator<hook274<(anonymous namespace)::hook274Parent>::loadPageFromUserInfo(GJUserScore*)::{lambda(geode::Task<geode::utils::web::WebResponse, geode::utils::web::WebProgress>::Event*)#1}::operator()(geode::Task<geode::utils::web::WebResponse, geode::utils::web::WebProgress>::Event*) const::{lambda(cocos2d::CCObject*)#1}::operator()(cocos2d::CCObject*) const::{lambda(int)#1}::operator()(int) const::{lambda(std::__ndk1::basic_string<char, std::__ndk1::char_traits<char>, std::__ndk1::allocator<char> >(std::__ndk1::basic_string<char, std::__ndk1::char_traits<char>, std::__ndk1::allocator<char> >))#2}::operator() const::{lambda(int)#1}>, void (int)>::__clone() const
FUNC 8ed1c 18 0 std::__ndk1::__function::__func<hook274<(anonymous namespace)::hook274Parent>::loadPageFromUserInfo(GJUserScore*)::{lambda(geode::Task<geode::utils::web::WebResponse, geode::utils::web::WebProgress>::Event*)#1}::operator()(geode::Task<geode::utils::web::WebResponse, geode::utils::web::WebProgress>::Event*) const::{lambda(cocos2d::CCObject*)#1}::operator()(cocos2d::CCObject*) const::{lambda(int)#1}::operator()(int) const::{lambda(std::__ndk1::basic_string<char, std::__ndk1::char_traits<char>, std::__ndk1::allocator<char> >(std::__ndk1::basic_string<char, std::__ndk1::char_traits<char>, std::__ndk1::allocator<char> >))#2}::operator() const::{lambda(int)#1}, std::__ndk1::allocator<hook274<(anonymous namespace)::hook274Parent>::loadPageFromUserInfo(GJUserScore*)::{lambda(geode::Task<geode::utils::web::WebResponse, geode::utils::web::WebProgress>::Event*)#1}::operator()(geode::Task<geode::utils::web::WebResponse, geode::utils::web::WebProgress>::Event*) const::{lambda(cocos2d::CCObject*)#1}::operator()(cocos2d::CCObject*) const::{lambda(int)#1}::operator()(int) const::{lambda(std::__ndk1::basic_string<char, std::__ndk1::char_traits<char>, std::__ndk1::allocator<char> >(std::__ndk1::basic_string<char, std::__ndk1::char_traits<char>, std::__ndk1::allocator<char> >))#2}::operator() const::{lambda(int)#1}>, void (int)>::__clone(std::__ndk1::__function::__base<void (int)>*) const
FUNC 8ed34 4 0 std::__ndk1::__function::__func<hook274<(anonymous namespace)::hook274Parent>::loadPageFromUserInfo(GJUserScore*)::{lambda(geode::Task<geode::utils::web::WebResponse, geode::utils::web::WebProgress>::Event*)#1}::operator()(geode::Task<geode::utils::web::WebResponse, geode::utils::web::WebProgress>::Event*) const::{lambda(cocos2d::CCObject*)#1}::operator()(cocos2d::CCObject*) const::{lambda(int)#1}::operator()(int) const::{lambda(std::__ndk1::basic_string<char, std::__ndk1::char_traits<char>, std::__ndk1::allocator<char> >(std::__ndk1::basic_string<char, std::__ndk1::char_traits<char>, std::__ndk1::allocator<char> >))#2}::operator() const::{lambda(int)#1}, std::__ndk1::allocator<hook274<(anonymous namespace)::hook274Parent>::loadPageFromUserInfo(GJUserScore*)::{lambda(geode::Task<geode::utils::web::WebResponse, geode::utils::web::WebProgress>::Event*)#1}::operator()(geode::Task<geode::utils::web::WebResponse, geode::utils::web::WebProgress>::Event*) const::{lambda(cocos2d::CCObject*)#1}::operator()(cocos2d::CCObject*) const::{lambda(int)#1}::operator()(int) const::{lambda(std::__ndk1::basic_string<char, std::__ndk1::char_traits<char>, std::__ndk1::allocator<char> >(std::__ndk1::basic_string<char, std::__ndk1::char_traits<char>, std::__ndk1::allocator<char> >))#2}::operator() const::{lambda(int)#1}>, void (int)>::destroy()
FUNC 8ed38 4 0 std::__ndk1::__function::__func<hook274<(anonymous namespace)::hook274Parent>::loadPageFromUserInfo(GJUserScore*)::{lambda(geode::Task<geode::utils::web::WebResponse, geode::utils::web::WebProgress>::Event*)#1}::operator()(geode::Task<geode::utils::web::WebResponse, geode::utils::web::WebProgress>::Event*) const::{lambda(cocos2d::CCObject*)#1}::operator()(cocos2d::CCObject*) const::{lambda(int)#1}::operator()(int) const::{lambda(std::__ndk1::basic_string<char, std::__ndk1::char_traits<char>, std::__ndk1::allocator<char> >(std::__ndk1::basic_string<char, std::__ndk1::char_traits<char>, std::__ndk1::allocator<char> >))#2}::operator() const::{lambda(int)#1}, std::__ndk1::allocator<hook274<(anonymous namespace)::hook274Parent>::loadPageFromUserInfo(GJUserScore*)::{lambda(geode::Task<geode::utils::web::WebResponse, geode::utils::web::WebProgress>::Event*)#1}::operator()(geode::Task<geode::utils::web::WebResponse, geode::utils::web::WebProgress>::Event*) const::{lambda(cocos2d::CCObject*)#1}::operator()(cocos2d::CCObject*) const::{lambda(int)#1}::operator()(int) const::{lambda(std::__ndk1::basic_string<char, std::__ndk1::char_traits<char>, std::__ndk1::allocator<char> >(std::__ndk1::basic_string<char, std::__ndk1::char_traits<char>, std::__ndk1::allocator<char> >))#2}::operator() const::{lambda(int)#1}>, void (int)>::destroy_deallocate()
FUNC 8ed3c 1b4 0 std::__ndk1::__function::__func<hook274<(anonymous namespace)::hook274Parent>::loadPageFromUserInfo(GJUserScore*)::{lambda(geode::Task<geode::utils::web::WebResponse, geode::utils::web::WebProgress>::Event*)#1}::operator()(geode::Task<geode::utils::web::WebResponse, geode::utils::web::WebProgress>::Event*) const::{lambda(cocos2d::CCObject*)#1}::operator()(cocos2d::CCObject*) const::{lambda(int)#1}::operator()(int) const::{lambda(std::__ndk1::basic_string<char, std::__ndk1::char_traits<char>, std::__ndk1::allocator<char> >(std::__ndk1::basic_string<char, std::__ndk1::char_traits<char>, std::__ndk1::allocator<char> >))#2}::operator() const::{lambda(int)#1}, std::__ndk1::allocator<hook274<(anonymous namespace)::hook274Parent>::loadPageFromUserInfo(GJUserScore*)::{lambda(geode::Task<geode::utils::web::WebResponse, geode::utils::web::WebProgress>::Event*)#1}::operator()(geode::Task<geode::utils::web::WebResponse, geode::utils::web::WebProgress>::Event*) const::{lambda(cocos2d::CCObject*)#1}::operator()(cocos2d::CCObject*) const::{lambda(int)#1}::operator()(int) const::{lambda(std::__ndk1::basic_string<char, std::__ndk1::char_traits<char>, std::__ndk1::allocator<char> >(std::__ndk1::basic_string<char, std::__ndk1::char_traits<char>, std::__ndk1::allocator<char> >))#2}::operator() const::{lambda(int)#1}>, void (int)>::operator()(int&&)
FUNC 8eef0 1c 0 std::__ndk1::__function::__func<hook274<(anonymous namespace)::hook274Parent>::loadPageFromUserInfo(GJUserScore*)::{lambda(geode::Task<geode::utils::web::WebResponse, geode::utils::web::WebProgress>::Event*)#1}::operator()(geode::Task<geode::utils::web::WebResponse, geode::utils::web::WebProgress>::Event*) const::{lambda(cocos2d::CCObject*)#1}::operator()(cocos2d::CCObject*) const::{lambda(int)#1}::operator()(int) const::{lambda(std::__ndk1::basic_string<char, std::__ndk1::char_traits<char>, std::__ndk1::allocator<char> >(std::__ndk1::basic_string<char, std::__ndk1::char_traits<char>, std::__ndk1::allocator<char> >))#2}::operator() const::{lambda(int)#1}, std::__ndk1::allocator<hook274<(anonymous namespace)::hook274Parent>::loadPageFromUserInfo(GJUserScore*)::{lambda(geode::Task<geode::utils::web::WebResponse, geode::utils::web::WebProgress>::Event*)#1}::operator()(geode::Task<geode::utils::web::WebResponse, geode::utils::web::WebProgress>::Event*) const::{lambda(cocos2d::CCObject*)#1}::operator()(cocos2d::CCObject*) const::{lambda(int)#1}::operator()(int) const::{lambda(std::__ndk1::basic_string<char, std::__ndk1::char_traits<char>, std::__ndk1::allocator<char> >(std::__ndk1::basic_string<char, std::__ndk1::char_traits<char>, std::__ndk1::allocator<char> >))#2}::operator() const::{lambda(int)#1}>, void (int)>::target(std::type_info const&) const
FUNC 8ef0c c 0 std::__ndk1::__function::__func<hook274<(anonymous namespace)::hook274Parent>::loadPageFromUserInfo(GJUserScore*)::{lambda(geode::Task<geode::utils::web::WebResponse, geode::utils::web::WebProgress>::Event*)#1}::operator()(geode::Task<geode::utils::web::WebResponse, geode::utils::web::WebProgress>::Event*) const::{lambda(cocos2d::CCObject*)#1}::operator()(cocos2d::CCObject*) const::{lambda(int)#1}::operator()(int) const::{lambda(std::__ndk1::basic_string<char, std::__ndk1::char_traits<char>, std::__ndk1::allocator<char> >(std::__ndk1::basic_string<char, std::__ndk1::char_traits<char>, std::__ndk1::allocator<char> >))#2}::operator() const::{lambda(int)#1}, std::__ndk1::allocator<hook274<(anonymous namespace)::hook274Parent>::loadPageFromUserInfo(GJUserScore*)::{lambda(geode::Task<geode::utils::web::WebResponse, geode::utils::web::WebProgress>::Event*)#1}::operator()(geode::Task<geode::utils::web::WebResponse, geode::utils::web::WebProgress>::Event*) const::{lambda(cocos2d::CCObject*)#1}::operator()(cocos2d::CCObject*) const::{lambda(int)#1}::operator()(int) const::{lambda(std::__ndk1::basic_string<char, std::__ndk1::char_traits<char>, std::__ndk1::allocator<char> >(std::__ndk1::basic_string<char, std::__ndk1::char_traits<char>, std::__ndk1::allocator<char> >))#2}::operator() const::{lambda(int)#1}>, void (int)>::target_type() const
FUNC 8ef18 170 0 geode::Task<geode::utils::web::WebResponse, geode::utils::web::WebProgress>::cancel(std::__ndk1::shared_ptr<geode::Task<geode::utils::web::WebResponse, geode::utils::web::WebProgress>::Handle>, bool)
FUNC 8f088 50 0 geode::Task<geode::utils::web::WebResponse, geode::utils::web::WebProgress>::cancel(std::__ndk1::shared_ptr<geode::Task<geode::utils::web::WebResponse, geode::utils::web::WebProgress>::Handle>, bool)::{lambda()#1}::~{lambda()#1}()
FUNC 8f0d8 5c 0 std::__ndk1::__function::__func<geode::Task<geode::utils::web::WebResponse, geode::utils::web::WebProgress>::cancel(std::__ndk1::shared_ptr<geode::Task<geode::utils::web::WebResponse, geode::utils::web::WebProgress>::Handle>, bool)::{lambda()#1}, std::__ndk1::allocator<geode::Task<geode::utils::web::WebResponse, geode::utils::web::WebProgress>::cancel(std::__ndk1::shared_ptr<geode::Task<geode::utils::web::WebResponse, geode::utils::web::WebProgress>::Handle>, bool)::{lambda()#1}>, void ()>::~__func()
FUNC 8f134 5c 0 std::__ndk1::__function::__func<geode::Task<geode::utils::web::WebResponse, geode::utils::web::WebProgress>::cancel(std::__ndk1::shared_ptr<geode::Task<geode::utils::web::WebResponse, geode::utils::web::WebProgress>::Handle>, bool)::{lambda()#1}, std::__ndk1::allocator<geode::Task<geode::utils::web::WebResponse, geode::utils::web::WebProgress>::cancel(std::__ndk1::shared_ptr<geode::Task<geode::utils::web::WebResponse, geode::utils::web::WebProgress>::Handle>, bool)::{lambda()#1}>, void ()>::~__func()
FUNC 8f190 50 0 std::__ndk1::__function::__func<geode::Task<geode::utils::web::WebResponse, geode::utils::web::WebProgress>::cancel(std::__ndk1::shared_ptr<geode::Task<geode::utils::web::WebResponse, geode::utils::web::WebProgress>::Handle>, bool)::{lambda()#1}, std::__ndk1::allocator<geode::Task<geode::utils::web::WebResponse, geode::utils::web::WebProgress>::cancel(std::__ndk1::shared_ptr<geode::Task<geode::utils::web::WebResponse, geode::utils::web::WebProgress>::Handle>, bool)::{lambda()#1}>, void ()>::__clone() const
FUNC 8f1e0 34 0 std::__ndk1::__function::__func<geode::Task<geode::utils::web::WebResponse, geode::utils::web::WebProgress>::cancel(std::__ndk1::shared_ptr<geode::Task<geode::utils::web::WebResponse, geode::utils::web::WebProgress>::Handle>, bool)::{lambda()#1}, std::__ndk1::allocator<geode::Task<geode::utils::web::WebResponse, geode::utils::web::WebProgress>::cancel(std::__ndk1::shared_ptr<geode::Task<geode::utils::web::WebResponse, geode::utils::web::WebProgress>::Handle>, bool)::{lambda()#1}>, void ()>::__clone(std::__ndk1::__function::__base<void ()>*) const
FUNC 8f214 50 0 std::__ndk1::__function::__func<geode::Task<geode::utils::web::WebResponse, geode::utils::web::WebProgress>::cancel(std::__ndk1::shared_ptr<geode::Task<geode::utils::web::WebResponse, geode::utils::web::WebProgress>::Handle>, bool)::{lambda()#1}, std::__ndk1::allocator<geode::Task<geode::utils::web::WebResponse, geode::utils::web::WebProgress>::cancel(std::__ndk1::shared_ptr<geode::Task<geode::utils::web::WebResponse, geode::utils::web::WebProgress>::Handle>, bool)::{lambda()#1}>, void ()>::destroy()
FUNC 8f264 50 0 std::__ndk1::__function::__func<geode::Task<geode::utils::web::WebResponse, geode::utils::web::WebProgress>::cancel(std::__ndk1::shared_ptr<geode::Task<geode::utils::web::WebResponse, geode::utils::web::WebProgress>::Handle>, bool)::{lambda()#1}, std::__ndk1::allocator<geode::Task<geode::utils::web::WebResponse, geode::utils::web::WebProgress>::cancel(std::__ndk1::shared_ptr<geode::Task<geode::utils::web::WebResponse, geode::utils::web::WebProgress>::Handle>, bool)::{lambda()#1}>, void ()>::destroy_deallocate()
FUNC 8f2b4 8 0 std::__ndk1::__function::__func<geode::Task<geode::utils::web::WebResponse, geode::utils::web::WebProgress>::cancel(std::__ndk1::shared_ptr<geode::Task<geode::utils::web::WebResponse, geode::utils::web::WebProgress>::Handle>, bool)::{lambda()#1}, std::__ndk1::allocator<geode::Task<geode::utils::web::WebResponse, geode::utils::web::WebProgress>::cancel(std::__ndk1::shared_ptr<geode::Task<geode::utils::web::WebResponse, geode::utils::web::WebProgress>::Handle>, bool)::{lambda()#1}>, void ()>::operator()()
FUNC 8f2bc 1c 0 std::__ndk1::__function::__func<geode::Task<geode::utils::web::WebResponse, geode::utils::web::WebProgress>::cancel(std::__ndk1::shared_ptr<geode::Task<geode::utils::web::WebResponse, geode::utils::web::WebProgress>::Handle>, bool)::{lambda()#1}, std::__ndk1::allocator<geode::Task<geode::utils::web::WebResponse, geode::utils::web::WebProgress>::cancel(std::__ndk1::shared_ptr<geode::Task<geode::utils::web::WebResponse, geode::utils::web::WebProgress>::Handle>, bool)::{lambda()#1}>, void ()>::target(std::type_info const&) const
FUNC 8f2d8 c 0 std::__ndk1::__function::__func<geode::Task<geode::utils::web::WebResponse, geode::utils::web::WebProgress>::cancel(std::__ndk1::shared_ptr<geode::Task<geode::utils::web::WebResponse, geode::utils::web::WebProgress>::Handle>, bool)::{lambda()#1}, std::__ndk1::allocator<geode::Task<geode::utils::web::WebResponse, geode::utils::web::WebProgress>::cancel(std::__ndk1::shared_ptr<geode::Task<geode::utils::web::WebResponse, geode::utils::web::WebProgress>::Handle>, bool)::{lambda()#1}>, void ()>::target_type() const
FUNC 8f2e4 1b8 0 geode::Task<geode::utils::web::WebResponse, geode::utils::web::WebProgress>::cancel(std::__ndk1::shared_ptr<geode::Task<geode::utils::web::WebResponse, geode::utils::web::WebProgress>::Handle>, bool)::{lambda()#1}::operator()()
FUNC 8f49c 3a8 0 geode::modifier::ModifyDerive<hook409<(anonymous namespace)::hook409Parent>, EditorUI>::apply()
FUNC 8f844 4 0 geode::modifier::ModifyBase<geode::modifier::ModifyDerive<hook409<(anonymous namespace)::hook409Parent>, EditorUI> >::apply()
FUNC 8f848 b8 0 geode::addresser::getVirtual<void (EditorUI::*)(cocos2d::enumKeyCodes)>(void (EditorUI::*)(cocos2d::enumKeyCodes))
FUNC 8f900 78 0 geode::modifier::AsStaticFunction_keyDown<hook409<(anonymous namespace)::hook409Parent>, void (hook409<(anonymous namespace)::hook409Parent>::*)(cocos2d::enumKeyCodes)>::Impl<void (hook409<(anonymous namespace)::hook409Parent>::*)(cocos2d::enumKeyCodes)>::function(hook409<(anonymous namespace)::hook409Parent>*, cocos2d::enumKeyCodes)
FUNC 8f978 10c 0 EditorUI::EditorUI(geode::ZeroConstructorType)
FUNC 8fa84 684 0 CaseCell::init(UserData, CaseData, std::__ndk1::function<void ()>)
FUNC 90108 1f0 0 CaseData::operator=(CaseData const&)
FUNC 902f8 46c 0 CaseCell::create(UserData, CaseData, std::__ndk1::function<void ()>)
FUNC 90764 1b8 0 CaseData::CaseData(CaseData const&)
FUNC 9091c 94 0 CaseData::~CaseData()
FUNC 909b0 1ec 0 CaseCell::~CaseCell()
FUNC 90b9c 24 0 CaseCell::~CaseCell()
FUNC 90bc0 2c0 0 std::__ndk1::vector<matjson::Value, std::__ndk1::allocator<matjson::Value> >::__assign_with_size[abi:ne180000]<matjson::Value*, std::__ndk1::vector<matjson::Value, std::__ndk1::allocator<matjson::Value> >::__assign_with_size[abi:ne180000]>(matjson::Value*, std::__ndk1::vector<matjson::Value, std::__ndk1::allocator<matjson::Value> >::__assign_with_size[abi:ne180000], long)
FUNC 90e80 14 0 std::__ndk1::vector<matjson::Value, std::__ndk1::allocator<matjson::Value> >::__throw_length_error[abi:ne180000]() const
FUNC 90e94 68 0 std::__ndk1::vector<matjson::Value, std::__ndk1::allocator<matjson::Value> >::~vector[abi:ne180000]()
FUNC 90efc 11c 0 std::__ndk1::vector<matjson::Value, std::__ndk1::allocator<matjson::Value> >::__init_with_size[abi:ne180000]<matjson::Value*, std::__ndk1::vector<matjson::Value, std::__ndk1::allocator<matjson::Value> >::__init_with_size[abi:ne180000]>(matjson::Value*, std::__ndk1::vector<matjson::Value, std::__ndk1::allocator<matjson::Value> >::__init_with_size[abi:ne180000], unsigned long)
FUNC 91018 7c 0 std::__ndk1::__exception_guard_exceptions<std::__ndk1::vector<matjson::Value, std::__ndk1::allocator<matjson::Value> >::__destroy_vector>::~__exception_guard_exceptions[abi:ne180000]()
FUNC 91094 168 0 std::__ndk1::__function::__value_func<void ()>::swap[abi:ne180000](std::__ndk1::__function::__value_func<void ()>&)
FUNC 911fc 30c 0 CategoryButton::init(char const*)
FUNC 91508 24 0 CategoryButton::~CategoryButton()
FUNC 9152c de0 0 OWCommentCell::init(CommentData, ObjectData, UserData, std::__ndk1::function<void ()>)
FUNC 9230c 1b4 0 OWCommentCell::onVote(cocos2d::CCObject*)
FUNC 924c0 160 0 OWCommentCell::onDelete(cocos2d::CCObject*)
FUNC 92620 168 0 OWCommentCell::onPin(cocos2d::CCObject*)
FUNC 92788 288 0 VotePopup::create(std::__ndk1::basic_string<char, std::__ndk1::char_traits<char>, std::__ndk1::allocator<char> >, std::__ndk1::function<void (bool)>)
FUNC 92a10 444 0 OWCommentCell::create(CommentData, ObjectData, UserData, std::__ndk1::function<void ()>)
FUNC 92e54 11c 0 CommentData::CommentData(CommentData const&)
FUNC 92f70 270 0 ObjectData::ObjectData(ObjectData const&)
FUNC 931e0 64 0 CommentData::~CommentData()
FUNC 93244 1ac 0 OWCommentCell::~OWCommentCell()
FUNC 933f0 24 0 OWCommentCell::~OWCommentCell()
FUNC 93414 19c 0 geode::Popup<std::__ndk1::basic_string<char, std::__ndk1::char_traits<char>, std::__ndk1::allocator<char> >, std::__ndk1::function<void (bool)> >::initAnchored(float, float, std::__ndk1::basic_string<char, std::__ndk1::char_traits<char>, std::__ndk1::allocator<char> >, std::__ndk1::function<void (bool)>, char const*, cocos2d::CCRect)
FUNC 935b0 408 0 geode::Popup<std::__ndk1::basic_string<char, std::__ndk1::char_traits<char>, std::__ndk1::allocator<char> >, std::__ndk1::function<void (bool)> >::initBase(float, float, std::__ndk1::basic_string<char, std::__ndk1::char_traits<char>, std::__ndk1::allocator<char> >, std::__ndk1::function<void (bool)>, char const*, cocos2d::CCRect, bool)
FUNC 939b8 12c 0 std::__ndk1::unordered_set<std::__ndk1::basic_string<char, std::__ndk1::char_traits<char>, std::__ndk1::allocator<char> >, std::__ndk1::hash<std::__ndk1::basic_string<char, std::__ndk1::char_traits<char>, std::__ndk1::allocator<char> > >, std::__ndk1::equal_to<std::__ndk1::basic_string<char, std::__ndk1::char_traits<char>, std::__ndk1::allocator<char> > >, std::__ndk1::allocator<std::__ndk1::basic_string<char, std::__ndk1::char_traits<char>, std::__ndk1::allocator<char> > > >::unordered_set(std::__ndk1::unordered_set<std::__ndk1::basic_string<char, std::__ndk1::char_traits<char>, std::__ndk1::allocator<char> >, std::__ndk1::hash<std::__ndk1::basic_string<char, std::__ndk1::char_traits<char>, std::__ndk1::allocator<char> > >, std::__ndk1::equal_to<std::__ndk1::basic_string<char, std::__ndk1::char_traits<char>, std::__ndk1::allocator<char> > >, std::__ndk1::allocator<std::__ndk1::basic_string<char, std::__ndk1::char_traits<char>, std::__ndk1::allocator<char> > > > const&)
FUNC 93ae4 70 0 std::__ndk1::__hash_table<std::__ndk1::basic_string<char, std::__ndk1::char_traits<char>, std::__ndk1::allocator<char> >, std::__ndk1::hash<std::__ndk1::basic_string<char, std::__ndk1::char_traits<char>, std::__ndk1::allocator<char> > >, std::__ndk1::equal_to<std::__ndk1::basic_string<char, std::__ndk1::char_traits<char>, std::__ndk1::allocator<char> > >, std::__ndk1::allocator<std::__ndk1::basic_string<char, std::__ndk1::char_traits<char>, std::__ndk1::allocator<char> > > >::~__hash_table()
FUNC 93b54 15c 0 std::__ndk1::__hash_table<std::__ndk1::basic_string<char, std::__ndk1::char_traits<char>, std::__ndk1::allocator<char> >, std::__ndk1::hash<std::__ndk1::basic_string<char, std::__ndk1::char_traits<char>, std::__ndk1::allocator<char> > >, std::__ndk1::equal_to<std::__ndk1::basic_string<char, std::__ndk1::char_traits<char>, std::__ndk1::allocator<char> > >, std::__ndk1::allocator<std::__ndk1::basic_string<char, std::__ndk1::char_traits<char>, std::__ndk1::allocator<char> > > >::__do_rehash<true>(unsigned long)
FUNC 93cb0 400 0 std::__ndk1::__hash_table<std::__ndk1::basic_string<char, std::__ndk1::char_traits<char>, std::__ndk1::allocator<char> >, std::__ndk1::hash<std::__ndk1::basic_string<char, std::__ndk1::char_traits<char>, std::__ndk1::allocator<char> > >, std::__ndk1::equal_to<std::__ndk1::basic_string<char, std::__ndk1::char_traits<char>, std::__ndk1::allocator<char> > >, std::__ndk1::allocator<std::__ndk1::basic_string<char, std::__ndk1::char_traits<char>, std::__ndk1::allocator<char> > > >::__emplace_unique_key_args<std::__ndk1::basic_string<char, std::__ndk1::char_traits<char>, std::__ndk1::allocator<char> >, std::__ndk1::basic_string<char, std::__ndk1::char_traits<char>, std::__ndk1::allocator<char> > const&>(std::__ndk1::basic_string<char, std::__ndk1::char_traits<char>, std::__ndk1::allocator<char> > const&, std::__ndk1::basic_string<char, std::__ndk1::char_traits<char>, std::__ndk1::allocator<char> > const&)
FUNC 940b0 50 0 std::__ndk1::unique_ptr<std::__ndk1::__hash_node<std::__ndk1::basic_string<char, std::__ndk1::char_traits<char>, std::__ndk1::allocator<char> >, void*>, std::__ndk1::__hash_node_destructor<std::__ndk1::allocator<std::__ndk1::__hash_node<std::__ndk1::basic_string<char, std::__ndk1::char_traits<char>, std::__ndk1::allocator<char> >, void*> > > >::~unique_ptr[abi:ne180000]()
FUNC 94100 438 0 std::__ndk1::__murmur2_or_cityhash<unsigned long, (unsigned long)64>::operator()[abi:ne180000](void const*, unsigned long) const
FUNC 94538 15c 0 std::__ndk1::vector<ReportData, std::__ndk1::allocator<ReportData> >::__init_with_size[abi:ne180000]<ReportData*, std::__ndk1::vector<ReportData, std::__ndk1::allocator<ReportData> >::__init_with_size[abi:ne180000]>(ReportData*, std::__ndk1::vector<ReportData, std::__ndk1::allocator<ReportData> >::__init_with_size[abi:ne180000], unsigned long)
FUNC 94694 88 0 std::__ndk1::__exception_guard_exceptions<std::__ndk1::vector<ReportData, std::__ndk1::allocator<ReportData> >::__destroy_vector>::~__exception_guard_exceptions[abi:ne180000]()
FUNC 9471c 14 0 std::__ndk1::vector<ReportData, std::__ndk1::allocator<ReportData> >::__throw_length_error[abi:ne180000]() const
FUNC 94730 54 0 std::__ndk1::__exception_guard_exceptions<std::__ndk1::_AllocatorDestroyRangeReverse<std::__ndk1::allocator<ReportData>, ReportData*> >::~__exception_guard_exceptions[abi:ne180000]()
FUNC 94784 4 0 std::__ndk1::__function::__func<OWCommentCell::init(CommentData, ObjectData, UserData, std::__ndk1::function<void ()>)::$_0, std::__ndk1::allocator<OWCommentCell::init(CommentData, ObjectData, UserData, std::__ndk1::function<void ()>)::$_0>, void (CCMenuItemSpriteExtra*)>::~__func()
FUNC 94788 34 0 std::__ndk1::__function::__func<OWCommentCell::init(CommentData, ObjectData, UserData, std::__ndk1::function<void ()>)::$_0, std::__ndk1::allocator<OWCommentCell::init(CommentData, ObjectData, UserData, std::__ndk1::function<void ()>)::$_0>, void (CCMenuItemSpriteExtra*)>::__clone() const
FUNC 947bc 14 0 std::__ndk1::__function::__func<OWCommentCell::init(CommentData, ObjectData, UserData, std::__ndk1::function<void ()>)::$_0, std::__ndk1::allocator<OWCommentCell::init(CommentData, ObjectData, UserData, std::__ndk1::function<void ()>)::$_0>, void (CCMenuItemSpriteExtra*)>::__clone(std::__ndk1::__function::__base<void (CCMenuItemSpriteExtra*)>*) const
FUNC 947d0 4 0 std::__ndk1::__function::__func<OWCommentCell::init(CommentData, ObjectData, UserData, std::__ndk1::function<void ()>)::$_0, std::__ndk1::allocator<OWCommentCell::init(CommentData, ObjectData, UserData, std::__ndk1::function<void ()>)::$_0>, void (CCMenuItemSpriteExtra*)>::destroy()
FUNC 947d4 4 0 std::__ndk1::__function::__func<OWCommentCell::init(CommentData, ObjectData, UserData, std::__ndk1::function<void ()>)::$_0, std::__ndk1::allocator<OWCommentCell::init(CommentData, ObjectData, UserData, std::__ndk1::function<void ()>)::$_0>, void (CCMenuItemSpriteExtra*)>::destroy_deallocate()
FUNC 947d8 124 0 std::__ndk1::__function::__func<OWCommentCell::init(CommentData, ObjectData, UserData, std::__ndk1::function<void ()>)::$_0, std::__ndk1::allocator<OWCommentCell::init(CommentData, ObjectData, UserData, std::__ndk1::function<void ()>)::$_0>, void (CCMenuItemSpriteExtra*)>::operator()(CCMenuItemSpriteExtra*&&)
FUNC 948fc 1c 0 std::__ndk1::__function::__func<OWCommentCell::init(CommentData, ObjectData, UserData, std::__ndk1::function<void ()>)::$_0, std::__ndk1::allocator<OWCommentCell::init(CommentData, ObjectData, UserData, std::__ndk1::function<void ()>)::$_0>, void (CCMenuItemSpriteExtra*)>::target(std::type_info const&) const
FUNC 94918 c 0 std::__ndk1::__function::__func<OWCommentCell::init(CommentData, ObjectData, UserData, std::__ndk1::function<void ()>)::$_0, std::__ndk1::allocator<OWCommentCell::init(CommentData, ObjectData, UserData, std::__ndk1::function<void ()>)::$_0>, void (CCMenuItemSpriteExtra*)>::target_type() const
FUNC 94924 4 0 std::__ndk1::__function::__base<void (bool)>::~__base()
FUNC 94928 4 0 std::__ndk1::__function::__func<OWCommentCell::onVote(cocos2d::CCObject*)::$_0, std::__ndk1::allocator<OWCommentCell::onVote(cocos2d::CCObject*)::$_0>, void (bool)>::~__func()
FUNC 9492c 34 0 std::__ndk1::__function::__func<OWCommentCell::onVote(cocos2d::CCObject*)::$_0, std::__ndk1::allocator<OWCommentCell::onVote(cocos2d::CCObject*)::$_0>, void (bool)>::__clone() const
FUNC 94960 14 0 std::__ndk1::__function::__func<OWCommentCell::onVote(cocos2d::CCObject*)::$_0, std::__ndk1::allocator<OWCommentCell::onVote(cocos2d::CCObject*)::$_0>, void (bool)>::__clone(std::__ndk1::__function::__base<void (bool)>*) const
FUNC 94974 4 0 std::__ndk1::__function::__func<OWCommentCell::onVote(cocos2d::CCObject*)::$_0, std::__ndk1::allocator<OWCommentCell::onVote(cocos2d::CCObject*)::$_0>, void (bool)>::destroy()
FUNC 94978 4 0 std::__ndk1::__function::__func<OWCommentCell::onVote(cocos2d::CCObject*)::$_0, std::__ndk1::allocator<OWCommentCell::onVote(cocos2d::CCObject*)::$_0>, void (bool)>::destroy_deallocate()
FUNC 9497c 568 0 std::__ndk1::__function::__func<OWCommentCell::onVote(cocos2d::CCObject*)::$_0, std::__ndk1::allocator<OWCommentCell::onVote(cocos2d::CCObject*)::$_0>, void (bool)>::operator()(bool&&)
FUNC 94ee4 1c 0 std::__ndk1::__function::__func<OWCommentCell::onVote(cocos2d::CCObject*)::$_0, std::__ndk1::allocator<OWCommentCell::onVote(cocos2d::CCObject*)::$_0>, void (bool)>::target(std::type_info const&) const
FUNC 94f00 c 0 std::__ndk1::__function::__func<OWCommentCell::onVote(cocos2d::CCObject*)::$_0, std::__ndk1::allocator<OWCommentCell::onVote(cocos2d::CCObject*)::$_0>, void (bool)>::target_type() const
FUNC 94f0c 20 0 std::__ndk1::__function::__func<OWCommentCell::onVote(cocos2d::CCObject*)::$_0::operator()(bool) const::{lambda(geode::Task<geode::utils::web::WebResponse, geode::utils::web::WebProgress>::Event*)#1}, std::__ndk1::allocator<OWCommentCell::onVote(cocos2d::CCObject*)::$_0::operator()(bool) const::{lambda(geode::Task<geode::utils::web::WebResponse, geode::utils::web::WebProgress>::Event*)#1}>, void (geode::Task<geode::utils::web::WebResponse, geode::utils::web::WebProgress>::Event*)>::~__func()
FUNC 94f2c 40 0 std::__ndk1::__function::__func<OWCommentCell::onVote(cocos2d::CCObject*)::$_0::operator()(bool) const::{lambda(geode::Task<geode::utils::web::WebResponse, geode::utils::web::WebProgress>::Event*)#1}, std::__ndk1::allocator<OWCommentCell::onVote(cocos2d::CCObject*)::$_0::operator()(bool) const::{lambda(geode::Task<geode::utils::web::WebResponse, geode::utils::web::WebProgress>::Event*)#1}>, void (geode::Task<geode::utils::web::WebResponse, geode::utils::web::WebProgress>::Event*)>::~__func()
FUNC 94f6c 7c 0 std::__ndk1::__function::__func<OWCommentCell::onVote(cocos2d::CCObject*)::$_0::operator()(bool) const::{lambda(geode::Task<geode::utils::web::WebResponse, geode::utils::web::WebProgress>::Event*)#1}, std::__ndk1::allocator<OWCommentCell::onVote(cocos2d::CCObject*)::$_0::operator()(bool) const::{lambda(geode::Task<geode::utils::web::WebResponse, geode::utils::web::WebProgress>::Event*)#1}>, void (geode::Task<geode::utils::web::WebResponse, geode::utils::web::WebProgress>::Event*)>::__clone() const
FUNC 94fe8 40 0 std::__ndk1::__function::__func<OWCommentCell::onVote(cocos2d::CCObject*)::$_0::operator()(bool) const::{lambda(geode::Task<geode::utils::web::WebResponse, geode::utils::web::WebProgress>::Event*)#1}, std::__ndk1::allocator<OWCommentCell::onVote(cocos2d::CCObject*)::$_0::operator()(bool) const::{lambda(geode::Task<geode::utils::web::WebResponse, geode::utils::web::WebProgress>::Event*)#1}>, void (geode::Task<geode::utils::web::WebResponse, geode::utils::web::WebProgress>::Event*)>::__clone(std::__ndk1::__function::__base<void (geode::Task<geode::utils::web::WebResponse, geode::utils::web::WebProgress>::Event*)>*) const
FUNC 95028 14 0 std::__ndk1::__function::__func<OWCommentCell::onVote(cocos2d::CCObject*)::$_0::operator()(bool) const::{lambda(geode::Task<geode::utils::web::WebResponse, geode::utils::web::WebProgress>::Event*)#1}, std::__ndk1::allocator<OWCommentCell::onVote(cocos2d::CCObject*)::$_0::operator()(bool) const::{lambda(geode::Task<geode::utils::web::WebResponse, geode::utils::web::WebProgress>::Event*)#1}>, void (geode::Task<geode::utils::web::WebResponse, geode::utils::web::WebProgress>::Event*)>::destroy()
FUNC 9503c 34 0 std::__ndk1::__function::__func<OWCommentCell::onVote(cocos2d::CCObject*)::$_0::operator()(bool) const::{lambda(geode::Task<geode::utils::web::WebResponse, geode::utils::web::WebProgress>::Event*)#1}, std::__ndk1::allocator<OWCommentCell::onVote(cocos2d::CCObject*)::$_0::operator()(bool) const::{lambda(geode::Task<geode::utils::web::WebResponse, geode::utils::web::WebProgress>::Event*)#1}>, void (geode::Task<geode::utils::web::WebResponse, geode::utils::web::WebProgress>::Event*)>::destroy_deallocate()
FUNC 95070 228 0 std::__ndk1::__function::__func<OWCommentCell::onVote(cocos2d::CCObject*)::$_0::operator()(bool) const::{lambda(geode::Task<geode::utils::web::WebResponse, geode::utils::web::WebProgress>::Event*)#1}, std::__ndk1::allocator<OWCommentCell::onVote(cocos2d::CCObject*)::$_0::operator()(bool) const::{lambda(geode::Task<geode::utils::web::WebResponse, geode::utils::web::WebProgress>::Event*)#1}>, void (geode::Task<geode::utils::web::WebResponse, geode::utils::web::WebProgress>::Event*)>::operator()(geode::Task<geode::utils::web::WebResponse, geode::utils::web::WebProgress>::Event*&&)
FUNC 95298 1c 0 std::__ndk1::__function::__func<OWCommentCell::onVote(cocos2d::CCObject*)::$_0::operator()(bool) const::{lambda(geode::Task<geode::utils::web::WebResponse, geode::utils::web::WebProgress>::Event*)#1}, std::__ndk1::allocator<OWCommentCell::onVote(cocos2d::CCObject*)::$_0::operator()(bool) const::{lambda(geode::Task<geode::utils::web::WebResponse, geode::utils::web::WebProgress>::Event*)#1}>, void (geode::Task<geode::utils::web::WebResponse, geode::utils::web::WebProgress>::Event*)>::target(std::type_info const&) const
FUNC 952b4 c 0 std::__ndk1::__function::__func<OWCommentCell::onVote(cocos2d::CCObject*)::$_0::operator()(bool) const::{lambda(geode::Task<geode::utils::web::WebResponse, geode::utils::web::WebProgress>::Event*)#1}, std::__ndk1::allocator<OWCommentCell::onVote(cocos2d::CCObject*)::$_0::operator()(bool) const::{lambda(geode::Task<geode::utils::web::WebResponse, geode::utils::web::WebProgress>::Event*)#1}>, void (geode::Task<geode::utils::web::WebResponse, geode::utils::web::WebProgress>::Event*)>::target_type() const
FUNC 952c0 330 0 Utils::notifMessage(matjson::Value const&, std::__ndk1::function<void ()>)
FUNC 955f0 1b4 0 Utils::notifError(matjson::Value const&)
FUNC 957a4 74 0 geode::impl::ResultData<matjson::Value const&, std::__ndk1::basic_string<char, std::__ndk1::char_traits<char>, std::__ndk1::allocator<char> > >::~ResultData()
FUNC 95818 4 0 std::__ndk1::__variant_detail::__visitation::__base::__dispatcher<(unsigned long)0>::__dispatch[abi:ne180000]<std::__ndk1::__variant_detail::__dtor<std::__ndk1::__variant_detail::__traits<std::__ndk1::reference_wrapper<matjson::Value const>, std::__ndk1::basic_string<char, std::__ndk1::char_traits<char>, std::__ndk1::allocator<char> > >, (std::__ndk1::__variant_detail::_Trait)1>::__destroy[abi:ne180000]()::{lambda(auto:1&)#1}, std::__ndk1::__variant_detail::__base<(std::__ndk1::__variant_detail::__traits<std::__ndk1::reference_wrapper<matjson::Value const>, std::__ndk1::basic_string<char, std::__ndk1::char_traits<char>, std::__ndk1::allocator<char> > >)1, matjson::Value const, std::__ndk1::allocator<char> >&>(std::__ndk1::__variant_detail::__dtor<std::__ndk1::__variant_detail::__traits<std::__ndk1::reference_wrapper<matjson::Value const>, std::__ndk1::basic_string<char, std::__ndk1::char_traits<char>, std::__ndk1::allocator<char> > >, (std::__ndk1::__variant_detail::_Trait)1>, std::__ndk1::__variant_detail::__base<(std::__ndk1::__variant_detail::__traits<std::__ndk1::reference_wrapper<matjson::Value const>, std::__ndk1::basic_string<char, std::__ndk1::char_traits<char>, std::__ndk1::allocator<char> > >)1, matjson::Value const, std::__ndk1::allocator<char> >&)
FUNC 9581c 14 0 std::__ndk1::__variant_detail::__visitation::__base::__dispatcher<(unsigned long)1>::__dispatch[abi:ne180000]<std::__ndk1::__variant_detail::__dtor<std::__ndk1::__variant_detail::__traits<std::__ndk1::reference_wrapper<matjson::Value const>, std::__ndk1::basic_string<char, std::__ndk1::char_traits<char>, std::__ndk1::allocator<char> > >, (std::__ndk1::__variant_detail::_Trait)1>::__destroy[abi:ne180000]()::{lambda(auto:1&)#1}, std::__ndk1::__variant_detail::__base<(std::__ndk1::__variant_detail::__traits<std::__ndk1::reference_wrapper<matjson::Value const>, std::__ndk1::basic_string<char, std::__ndk1::char_traits<char>, std::__ndk1::allocator<char> > >)1, matjson::Value const, std::__ndk1::allocator<char> >&>(std::__ndk1::__variant_detail::__dtor<std::__ndk1::__variant_detail::__traits<std::__ndk1::reference_wrapper<matjson::Value const>, std::__ndk1::basic_string<char, std::__ndk1::char_traits<char>, std::__ndk1::allocator<char> > >, (std::__ndk1::__variant_detail::_Trait)1>, std::__ndk1::__variant_detail::__base<(std::__ndk1::__variant_detail::__traits<std::__ndk1::reference_wrapper<matjson::Value const>, std::__ndk1::basic_string<char, std::__ndk1::char_traits<char>, std::__ndk1::allocator<char> > >)1, matjson::Value const, std::__ndk1::allocator<char> >&)
FUNC 95830 4 0 std::__ndk1::__function::__func<OWCommentCell::onPin(cocos2d::CCObject*)::$_0, std::__ndk1::allocator<OWCommentCell::onPin(cocos2d::CCObject*)::$_0>, void (FLAlertLayer*, bool)>::~__func()
FUNC 95834 34 0 std::__ndk1::__function::__func<OWCommentCell::onPin(cocos2d::CCObject*)::$_0, std::__ndk1::allocator<OWCommentCell::onPin(cocos2d::CCObject*)::$_0>, void (FLAlertLayer*, bool)>::__clone() const
FUNC 95868 14 0 std::__ndk1::__function::__func<OWCommentCell::onPin(cocos2d::CCObject*)::$_0, std::__ndk1::allocator<OWCommentCell::onPin(cocos2d::CCObject*)::$_0>, void (FLAlertLayer*, bool)>::__clone(std::__ndk1::__function::__base<void (FLAlertLayer*, bool)>*) const
FUNC 9587c 4 0 std::__ndk1::__function::__func<OWCommentCell::onPin(cocos2d::CCObject*)::$_0, std::__ndk1::allocator<OWCommentCell::onPin(cocos2d::CCObject*)::$_0>, void (FLAlertLayer*, bool)>::destroy()
FUNC 95880 4 0 std::__ndk1::__function::__func<OWCommentCell::onPin(cocos2d::CCObject*)::$_0, std::__ndk1::allocator<OWCommentCell::onPin(cocos2d::CCObject*)::$_0>, void (FLAlertLayer*, bool)>::destroy_deallocate()
FUNC 95884 3f4 0 std::__ndk1::__function::__func<OWCommentCell::onPin(cocos2d::CCObject*)::$_0, std::__ndk1::allocator<OWCommentCell::onPin(cocos2d::CCObject*)::$_0>, void (FLAlertLayer*, bool)>::operator()(FLAlertLayer*&&, bool&&)
FUNC 95c78 1c 0 std::__ndk1::__function::__func<OWCommentCell::onPin(cocos2d::CCObject*)::$_0, std::__ndk1::allocator<OWCommentCell::onPin(cocos2d::CCObject*)::$_0>, void (FLAlertLayer*, bool)>::target(std::type_info const&) const
FUNC 95c94 c 0 std::__ndk1::__function::__func<OWCommentCell::onPin(cocos2d::CCObject*)::$_0, std::__ndk1::allocator<OWCommentCell::onPin(cocos2d::CCObject*)::$_0>, void (FLAlertLayer*, bool)>::target_type() const
FUNC 95ca0 4 0 std::__ndk1::__function::__func<OWCommentCell::onPin(cocos2d::CCObject*)::$_0::operator()<FLAlertLayer*>(FLAlertLayer*, bool) const::{lambda(geode::Task<geode::utils::web::WebResponse, geode::utils::web::WebProgress>::Event*)#1}, std::__ndk1::allocator<OWCommentCell::onPin(cocos2d::CCObject*)::$_0::operator()<FLAlertLayer*>(FLAlertLayer*, bool) const::{lambda(geode::Task<geode::utils::web::WebResponse, geode::utils::web::WebProgress>::Event*)#1}>, void (geode::Task<geode::utils::web::WebResponse, geode::utils::web::WebProgress>::Event*)>::~__func()
FUNC 95ca4 34 0 std::__ndk1::__function::__func<OWCommentCell::onPin(cocos2d::CCObject*)::$_0::operator()<FLAlertLayer*>(FLAlertLayer*, bool) const::{lambda(geode::Task<geode::utils::web::WebResponse, geode::utils::web::WebProgress>::Event*)#1}, std::__ndk1::allocator<OWCommentCell::onPin(cocos2d::CCObject*)::$_0::operator()<FLAlertLayer*>(FLAlertLayer*, bool) const::{lambda(geode::Task<geode::utils::web::WebResponse, geode::utils::web::WebProgress>::Event*)#1}>, void (geode::Task<geode::utils::web::WebResponse, geode::utils::web::WebProgress>::Event*)>::__clone() const
FUNC 95cd8 14 0 std::__ndk1::__function::__func<OWCommentCell::onPin(cocos2d::CCObject*)::$_0::operator()<FLAlertLayer*>(FLAlertLayer*, bool) const::{lambda(geode::Task<geode::utils::web::WebResponse, geode::utils::web::WebProgress>::Event*)#1}, std::__ndk1::allocator<OWCommentCell::onPin(cocos2d::CCObject*)::$_0::operator()<FLAlertLayer*>(FLAlertLayer*, bool) const::{lambda(geode::Task<geode::utils::web::WebResponse, geode::utils::web::WebProgress>::Event*)#1}>, void (geode::Task<geode::utils::web::WebResponse, geode::utils::web::WebProgress>::Event*)>::__clone(std::__ndk1::__function::__base<void (geode::Task<geode::utils::web::WebResponse, geode::utils::web::WebProgress>::Event*)>*) const
FUNC 95cec 4 0 std::__ndk1::__function::__func<OWCommentCell::onPin(cocos2d::CCObject*)::$_0::operator()<FLAlertLayer*>(FLAlertLayer*, bool) const::{lambda(geode::Task<geode::utils::web::WebResponse, geode::utils::web::WebProgress>::Event*)#1}, std::__ndk1::allocator<OWCommentCell::onPin(cocos2d::CCObject*)::$_0::operator()<FLAlertLayer*>(FLAlertLayer*, bool) const::{lambda(geode::Task<geode::utils::web::WebResponse, geode::utils::web::WebProgress>::Event*)#1}>, void (geode::Task<geode::utils::web::WebResponse, geode::utils::web::WebProgress>::Event*)>::destroy()
FUNC 95cf0 4 0 std::__ndk1::__function::__func<OWCommentCell::onPin(cocos2d::CCObject*)::$_0::operator()<FLAlertLayer*>(FLAlertLayer*, bool) const::{lambda(geode::Task<geode::utils::web::WebResponse, geode::utils::web::WebProgress>::Event*)#1}, std::__ndk1::allocator<OWCommentCell::onPin(cocos2d::CCObject*)::$_0::operator()<FLAlertLayer*>(FLAlertLayer*, bool) const::{lambda(geode::Task<geode::utils::web::WebResponse, geode::utils::web::WebProgress>::Event*)#1}>, void (geode::Task<geode::utils::web::WebResponse, geode::utils::web::WebProgress>::Event*)>::destroy_deallocate()
FUNC 95cf4 228 0 std::__ndk1::__function::__func<OWCommentCell::onPin(cocos2d::CCObject*)::$_0::operator()<FLAlertLayer*>(FLAlertLayer*, bool) const::{lambda(geode::Task<geode::utils::web::WebResponse, geode::utils::web::WebProgress>::Event*)#1}, std::__ndk1::allocator<OWCommentCell::onPin(cocos2d::CCObject*)::$_0::operator()<FLAlertLayer*>(FLAlertLayer*, bool) const::{lambda(geode::Task<geode::utils::web::WebResponse, geode::utils::web::WebProgress>::Event*)#1}>, void (geode::Task<geode::utils::web::WebResponse, geode::utils::web::WebProgress>::Event*)>::operator()(geode::Task<geode::utils::web::WebResponse, geode::utils::web::WebProgress>::Event*&&)
FUNC 95f1c 1c 0 std::__ndk1::__function::__func<OWCommentCell::onPin(cocos2d::CCObject*)::$_0::operator()<FLAlertLayer*>(FLAlertLayer*, bool) const::{lambda(geode::Task<geode::utils::web::WebResponse, geode::utils::web::WebProgress>::Event*)#1}, std::__ndk1::allocator<OWCommentCell::onPin(cocos2d::CCObject*)::$_0::operator()<FLAlertLayer*>(FLAlertLayer*, bool) const::{lambda(geode::Task<geode::utils::web::WebResponse, geode::utils::web::WebProgress>::Event*)#1}>, void (geode::Task<geode::utils::web::WebResponse, geode::utils::web::WebProgress>::Event*)>::target(std::type_info const&) const
FUNC 95f38 c 0 std::__ndk1::__function::__func<OWCommentCell::onPin(cocos2d::CCObject*)::$_0::operator()<FLAlertLayer*>(FLAlertLayer*, bool) const::{lambda(geode::Task<geode::utils::web::WebResponse, geode::utils::web::WebProgress>::Event*)#1}, std::__ndk1::allocator<OWCommentCell::onPin(cocos2d::CCObject*)::$_0::operator()<FLAlertLayer*>(FLAlertLayer*, bool) const::{lambda(geode::Task<geode::utils::web::WebResponse, geode::utils::web::WebProgress>::Event*)#1}>, void (geode::Task<geode::utils::web::WebResponse, geode::utils::web::WebProgress>::Event*)>::target_type() const
FUNC 95f44 4 0 std::__ndk1::__function::__base<void (FLAlertLayer*, bool)>::~__base()
FUNC 95f48 4 0 std::__ndk1::__function::__func<OWCommentCell::onDelete(cocos2d::CCObject*)::$_0, std::__ndk1::allocator<OWCommentCell::onDelete(cocos2d::CCObject*)::$_0>, void (FLAlertLayer*, bool)>::~__func()
FUNC 95f4c 34 0 std::__ndk1::__function::__func<OWCommentCell::onDelete(cocos2d::CCObject*)::$_0, std::__ndk1::allocator<OWCommentCell::onDelete(cocos2d::CCObject*)::$_0>, void (FLAlertLayer*, bool)>::__clone() const
FUNC 95f80 14 0 std::__ndk1::__function::__func<OWCommentCell::onDelete(cocos2d::CCObject*)::$_0, std::__ndk1::allocator<OWCommentCell::onDelete(cocos2d::CCObject*)::$_0>, void (FLAlertLayer*, bool)>::__clone(std::__ndk1::__function::__base<void (FLAlertLayer*, bool)>*) const
FUNC 95f94 4 0 std::__ndk1::__function::__func<OWCommentCell::onDelete(cocos2d::CCObject*)::$_0, std::__ndk1::allocator<OWCommentCell::onDelete(cocos2d::CCObject*)::$_0>, void (FLAlertLayer*, bool)>::destroy()
FUNC 95f98 4 0 std::__ndk1::__function::__func<OWCommentCell::onDelete(cocos2d::CCObject*)::$_0, std::__ndk1::allocator<OWCommentCell::onDelete(cocos2d::CCObject*)::$_0>, void (FLAlertLayer*, bool)>::destroy_deallocate()
FUNC 95f9c 3f4 0 std::__ndk1::__function::__func<OWCommentCell::onDelete(cocos2d::CCObject*)::$_0, std::__ndk1::allocator<OWCommentCell::onDelete(cocos2d::CCObject*)::$_0>, void (FLAlertLayer*, bool)>::operator()(FLAlertLayer*&&, bool&&)
FUNC 96390 1c 0 std::__ndk1::__function::__func<OWCommentCell::onDelete(cocos2d::CCObject*)::$_0, std::__ndk1::allocator<OWCommentCell::onDelete(cocos2d::CCObject*)::$_0>, void (FLAlertLayer*, bool)>::target(std::type_info const&) const
FUNC 963ac c 0 std::__ndk1::__function::__func<OWCommentCell::onDelete(cocos2d::CCObject*)::$_0, std::__ndk1::allocator<OWCommentCell::onDelete(cocos2d::CCObject*)::$_0>, void (FLAlertLayer*, bool)>::target_type() const
FUNC 963b8 4 0 std::__ndk1::__function::__func<OWCommentCell::onDelete(cocos2d::CCObject*)::$_0::operator()<FLAlertLayer*>(FLAlertLayer*, bool) const::{lambda(geode::Task<geode::utils::web::WebResponse, geode::utils::web::WebProgress>::Event*)#1}, std::__ndk1::allocator<OWCommentCell::onDelete(cocos2d::CCObject*)::$_0::operator()<FLAlertLayer*>(FLAlertLayer*, bool) const::{lambda(geode::Task<geode::utils::web::WebResponse, geode::utils::web::WebProgress>::Event*)#1}>, void (geode::Task<geode::utils::web::WebResponse, geode::utils::web::WebProgress>::Event*)>::~__func()
FUNC 963bc 34 0 std::__ndk1::__function::__func<OWCommentCell::onDelete(cocos2d::CCObject*)::$_0::operator()<FLAlertLayer*>(FLAlertLayer*, bool) const::{lambda(geode::Task<geode::utils::web::WebResponse, geode::utils::web::WebProgress>::Event*)#1}, std::__ndk1::allocator<OWCommentCell::onDelete(cocos2d::CCObject*)::$_0::operator()<FLAlertLayer*>(FLAlertLayer*, bool) const::{lambda(geode::Task<geode::utils::web::WebResponse, geode::utils::web::WebProgress>::Event*)#1}>, void (geode::Task<geode::utils::web::WebResponse, geode::utils::web::WebProgress>::Event*)>::__clone() const
FUNC 963f0 14 0 std::__ndk1::__function::__func<OWCommentCell::onDelete(cocos2d::CCObject*)::$_0::operator()<FLAlertLayer*>(FLAlertLayer*, bool) const::{lambda(geode::Task<geode::utils::web::WebResponse, geode::utils::web::WebProgress>::Event*)#1}, std::__ndk1::allocator<OWCommentCell::onDelete(cocos2d::CCObject*)::$_0::operator()<FLAlertLayer*>(FLAlertLayer*, bool) const::{lambda(geode::Task<geode::utils::web::WebResponse, geode::utils::web::WebProgress>::Event*)#1}>, void (geode::Task<geode::utils::web::WebResponse, geode::utils::web::WebProgress>::Event*)>::__clone(std::__ndk1::__function::__base<void (geode::Task<geode::utils::web::WebResponse, geode::utils::web::WebProgress>::Event*)>*) const
FUNC 96404 4 0 std::__ndk1::__function::__func<OWCommentCell::onDelete(cocos2d::CCObject*)::$_0::operator()<FLAlertLayer*>(FLAlertLayer*, bool) const::{lambda(geode::Task<geode::utils::web::WebResponse, geode::utils::web::WebProgress>::Event*)#1}, std::__ndk1::allocator<OWCommentCell::onDelete(cocos2d::CCObject*)::$_0::operator()<FLAlertLayer*>(FLAlertLayer*, bool) const::{lambda(geode::Task<geode::utils::web::WebResponse, geode::utils::web::WebProgress>::Event*)#1}>, void (geode::Task<geode::utils::web::WebResponse, geode::utils::web::WebProgress>::Event*)>::destroy()
FUNC 96408 4 0 std::__ndk1::__function::__func<OWCommentCell::onDelete(cocos2d::CCObject*)::$_0::operator()<FLAlertLayer*>(FLAlertLayer*, bool) const::{lambda(geode::Task<geode::utils::web::WebResponse, geode::utils::web::WebProgress>::Event*)#1}, std::__ndk1::allocator<OWCommentCell::onDelete(cocos2d::CCObject*)::$_0::operator()<FLAlertLayer*>(FLAlertLayer*, bool) const::{lambda(geode::Task<geode::utils::web::WebResponse, geode::utils::web::WebProgress>::Event*)#1}>, void (geode::Task<geode::utils::web::WebResponse, geode::utils::web::WebProgress>::Event*)>::destroy_deallocate()
FUNC 9640c 228 0 std::__ndk1::__function::__func<OWCommentCell::onDelete(cocos2d::CCObject*)::$_0::operator()<FLAlertLayer*>(FLAlertLayer*, bool) const::{lambda(geode::Task<geode::utils::web::WebResponse, geode::utils::web::WebProgress>::Event*)#1}, std::__ndk1::allocator<OWCommentCell::onDelete(cocos2d::CCObject*)::$_0::operator()<FLAlertLayer*>(FLAlertLayer*, bool) const::{lambda(geode::Task<geode::utils::web::WebResponse, geode::utils::web::WebProgress>::Event*)#1}>, void (geode::Task<geode::utils::web::WebResponse, geode::utils::web::WebProgress>::Event*)>::operator()(geode::Task<geode::utils::web::WebResponse, geode::utils::web::WebProgress>::Event*&&)
FUNC 96634 1c 0 std::__ndk1::__function::__func<OWCommentCell::onDelete(cocos2d::CCObject*)::$_0::operator()<FLAlertLayer*>(FLAlertLayer*, bool) const::{lambda(geode::Task<geode::utils::web::WebResponse, geode::utils::web::WebProgress>::Event*)#1}, std::__ndk1::allocator<OWCommentCell::onDelete(cocos2d::CCObject*)::$_0::operator()<FLAlertLayer*>(FLAlertLayer*, bool) const::{lambda(geode::Task<geode::utils::web::WebResponse, geode::utils::web::WebProgress>::Event*)#1}>, void (geode::Task<geode::utils::web::WebResponse, geode::utils::web::WebProgress>::Event*)>::target(std::type_info const&) const
FUNC 96650 c 0 std::__ndk1::__function::__func<OWCommentCell::onDelete(cocos2d::CCObject*)::$_0::operator()<FLAlertLayer*>(FLAlertLayer*, bool) const::{lambda(geode::Task<geode::utils::web::WebResponse, geode::utils::web::WebProgress>::Event*)#1}, std::__ndk1::allocator<OWCommentCell::onDelete(cocos2d::CCObject*)::$_0::operator()<FLAlertLayer*>(FLAlertLayer*, bool) const::{lambda(geode::Task<geode::utils::web::WebResponse, geode::utils::web::WebProgress>::Event*)#1}>, void (geode::Task<geode::utils::web::WebResponse, geode::utils::web::WebProgress>::Event*)>::target_type() const
FUNC 9665c 3d4 0 ExtPreviewBG::init(LevelEditorLayer*, std::__ndk1::basic_string<char, std::__ndk1::char_traits<char>, std::__ndk1::allocator<char> >, cocos2d::CCSize)
FUNC 96a30 100 0 ExtPreviewBG::ccTouchBegan(cocos2d::CCTouch*, cocos2d::CCEvent*)
FUNC 96b30 8 0 {virtual override thunk({offset(-320)}, ExtPreviewBG::ccTouchBegan(cocos2d::CCTouch*, cocos2d::CCEvent*))}
FUNC 96b38 e4 0 ExtPreviewBG::ccTouchMoved(cocos2d::CCTouch*, cocos2d::CCEvent*)
FUNC 96c1c 8 0 {virtual override thunk({offset(-320)}, ExtPreviewBG::ccTouchMoved(cocos2d::CCTouch*, cocos2d::CCEvent*))}
FUNC 96c24 1b4 0 ExtPreviewBG::create(LevelEditorLayer*, std::__ndk1::basic_string<char, std::__ndk1::char_traits<char>, std::__ndk1::allocator<char> >, cocos2d::CCSize)
FUNC 96dd8 24 0 ExtPreviewBG::~ExtPreviewBG()
FUNC 96dfc 8 0 {virtual override thunk({offset(-320)}, ExtPreviewBG::~ExtPreviewBG())}
FUNC 96e04 28 0 {virtual override thunk({offset(-320)}, ExtPreviewBG::~ExtPreviewBG())}
FUNC 96e2c 31c 0 ObjectItem::createStars(double)
FUNC 97148 f8 0 ObjectItem::starColor(double)
FUNC 97240 454 0 ObjectItem::createClickableStars(cocos2d::CCObject*, void (cocos2d::CCObject::*)(cocos2d::CCObject*))
FUNC 97694 a78 0 ObjectItem::init(LevelEditorLayer*, ObjectData)
FUNC 9810c 284 0 ObjectData::operator=(ObjectData const&)
FUNC 98390 17c 0 ObjectItem::create(LevelEditorLayer*, ObjectData)
FUNC 9850c 3c 0 ObjectItem::~ObjectItem()
FUNC 98548 44 0 ObjectItem::~ObjectItem()
FUNC 9858c 1b8 0 std::__ndk1::__hash_table<std::__ndk1::basic_string<char, std::__ndk1::char_traits<char>, std::__ndk1::allocator<char> >, std::__ndk1::hash<std::__ndk1::basic_string<char, std::__ndk1::char_traits<char>, std::__ndk1::allocator<char> > >, std::__ndk1::equal_to<std::__ndk1::basic_string<char, std::__ndk1::char_traits<char>, std::__ndk1::allocator<char> > >, std::__ndk1::allocator<std::__ndk1::basic_string<char, std::__ndk1::char_traits<char>, std::__ndk1::allocator<char> > > >::__assign_multi<std::__ndk1::__hash_const_iterator<std::__ndk1::__hash_node<std::__ndk1::basic_string<char, std::__ndk1::char_traits<char>, std::__ndk1::allocator<char> >, void*>*> >(std::__ndk1::__hash_const_iterator<std::__ndk1::__hash_node<std::__ndk1::basic_string<char, std::__ndk1::char_traits<char>, std::__ndk1::allocator<char> >, void*>*>, std::__ndk1::__hash_const_iterator<std::__ndk1::__hash_node<std::__ndk1::basic_string<char, std::__ndk1::char_traits<char>, std::__ndk1::allocator<char> >, void*>*>)
FUNC 98744 174 0 std::__ndk1::__hash_table<std::__ndk1::basic_string<char, std::__ndk1::char_traits<char>, std::__ndk1::allocator<char> >, std::__ndk1::hash<std::__ndk1::basic_string<char, std::__ndk1::char_traits<char>, std::__ndk1::allocator<char> > >, std::__ndk1::equal_to<std::__ndk1::basic_string<char, std::__ndk1::char_traits<char>, std::__ndk1::allocator<char> > >, std::__ndk1::allocator<std::__ndk1::basic_string<char, std::__ndk1::char_traits<char>, std::__ndk1::allocator<char> > > >::__node_insert_multi(std::__ndk1::__hash_node<std::__ndk1::basic_string<char, std::__ndk1::char_traits<char>, std::__ndk1::allocator<char> >, void*>*)
FUNC 988b8 4c 0 std::__ndk1::__hash_table<std::__ndk1::basic_string<char, std::__ndk1::char_traits<char>, std::__ndk1::allocator<char> >, std::__ndk1::hash<std::__ndk1::basic_string<char, std::__ndk1::char_traits<char>, std::__ndk1::allocator<char> > >, std::__ndk1::equal_to<std::__ndk1::basic_string<char, std::__ndk1::char_traits<char>, std::__ndk1::allocator<char> > >, std::__ndk1::allocator<std::__ndk1::basic_string<char, std::__ndk1::char_traits<char>, std::__ndk1::allocator<char> > > >::__deallocate_node(std::__ndk1::__hash_node_base<std::__ndk1::__hash_node<std::__ndk1::basic_string<char, std::__ndk1::char_traits<char>, std::__ndk1::allocator<char> >, void*>*>*)
FUNC 98904 298 0 std::__ndk1::__hash_table<std::__ndk1::basic_string<char, std::__ndk1::char_traits<char>, std::__ndk1::allocator<char> >, std::__ndk1::hash<std::__ndk1::basic_string<char, std::__ndk1::char_traits<char>, std::__ndk1::allocator<char> > >, std::__ndk1::equal_to<std::__ndk1::basic_string<char, std::__ndk1::char_traits<char>, std::__ndk1::allocator<char> > >, std::__ndk1::allocator<std::__ndk1::basic_string<char, std::__ndk1::char_traits<char>, std::__ndk1::allocator<char> > > >::__node_insert_multi_prepare(unsigned long, std::__ndk1::basic_string<char, std::__ndk1::char_traits<char>, std::__ndk1::allocator<char> >&)
FUNC 98b9c 254 0 std::__ndk1::__hash_table<std::__ndk1::basic_string<char, std::__ndk1::char_traits<char>, std::__ndk1::allocator<char> >, std::__ndk1::hash<std::__ndk1::basic_string<char, std::__ndk1::char_traits<char>, std::__ndk1::allocator<char> > >, std::__ndk1::equal_to<std::__ndk1::basic_string<char, std::__ndk1::char_traits<char>, std::__ndk1::allocator<char> > >, std::__ndk1::allocator<std::__ndk1::basic_string<char, std::__ndk1::char_traits<char>, std::__ndk1::allocator<char> > > >::__do_rehash<false>(unsigned long)
FUNC 98df0 f4 0 std::__ndk1::__hash_table<std::__ndk1::basic_string<char, std::__ndk1::char_traits<char>, std::__ndk1::allocator<char> >, std::__ndk1::hash<std::__ndk1::basic_string<char, std::__ndk1::char_traits<char>, std::__ndk1::allocator<char> > >, std::__ndk1::equal_to<std::__ndk1::basic_string<char, std::__ndk1::char_traits<char>, std::__ndk1::allocator<char> > >, std::__ndk1::allocator<std::__ndk1::basic_string<char, std::__ndk1::char_traits<char>, std::__ndk1::allocator<char> > > >::__construct_node<std::__ndk1::basic_string<char, std::__ndk1::char_traits<char>, std::__ndk1::allocator<char> > const&>(std::__ndk1::basic_string<char, std::__ndk1::char_traits<char>, std::__ndk1::allocator<char> > const&)
FUNC 98ee4 3c8 0 std::__ndk1::vector<ReportData, std::__ndk1::allocator<ReportData> >::__assign_with_size[abi:ne180000]<ReportData*, std::__ndk1::vector<ReportData, std::__ndk1::allocator<ReportData> >::__assign_with_size[abi:ne180000]>(ReportData*, std::__ndk1::vector<ReportData, std::__ndk1::allocator<ReportData> >::__assign_with_size[abi:ne180000], long)
FUNC 992ac 10 0 ScrollLayerExt::scrollWheel(float, float)
FUNC 992bc 14 0 {virtual override thunk({offset(-352)}, ScrollLayerExt::scrollWheel(float, float))}
FUNC 992d0 d0 0 ScrollLayerExt::ccTouchBegan(cocos2d::CCTouch*, cocos2d::CCEvent*)
FUNC 993a0 8 0 {virtual override thunk({offset(-320)}, ScrollLayerExt::ccTouchBegan(cocos2d::CCTouch*, cocos2d::CCEvent*))}
FUNC 993a8 b8 0 ScrollLayerExt::ccTouchCancelled(cocos2d::CCTouch*, cocos2d::CCEvent*)
FUNC 99460 8 0 {virtual override thunk({offset(-320)}, ScrollLayerExt::ccTouchCancelled(cocos2d::CCTouch*, cocos2d::CCEvent*))}
FUNC 99468 a4 0 ScrollLayerExt::ccTouchEnded(cocos2d::CCTouch*, cocos2d::CCEvent*)
FUNC 9950c a8 0 {virtual override thunk({offset(-320)}, ScrollLayerExt::ccTouchEnded(cocos2d::CCTouch*, cocos2d::CCEvent*))}
FUNC 995b4 194 0 ScrollLayerExt::ccTouchMoved(cocos2d::CCTouch*, cocos2d::CCEvent*)
FUNC 99748 8 0 {virtual override thunk({offset(-320)}, ScrollLayerExt::ccTouchMoved(cocos2d::CCTouch*, cocos2d::CCEvent*))}
FUNC 99750 27c 0 ScrollLayerExt::ScrollLayerExt(cocos2d::CCRect const&, bool, bool)
FUNC 999cc 118 0 ScrollLayerExt::visit()
FUNC 99ae4 148 0 ScrollLayerExt::fixTouchPrio()
FUNC 99c2c b4 0 ScrollLayerExt::~ScrollLayerExt()
FUNC 99ce0 bc 0 ScrollLayerExt::~ScrollLayerExt()
FUNC 99d9c b8 0 {virtual override thunk({offset(-320)}, ScrollLayerExt::~ScrollLayerExt())}
FUNC 99e54 c0 0 {virtual override thunk({offset(-320)}, ScrollLayerExt::~ScrollLayerExt())}
FUNC 99f14 4 0 std::__ndk1::__function::__base<void ()>::~__base()
FUNC 99f18 4 0 std::__ndk1::__function::__func<ScrollLayerExt::fixTouchPrio()::$_0, std::__ndk1::allocator<ScrollLayerExt::fixTouchPrio()::$_0>, void ()>::~__func()
FUNC 99f1c 40 0 std::__ndk1::__function::__func<ScrollLayerExt::fixTouchPrio()::$_0, std::__ndk1::allocator<ScrollLayerExt::fixTouchPrio()::$_0>, void ()>::__clone() const
FUNC 99f5c 20 0 std::__ndk1::__function::__func<ScrollLayerExt::fixTouchPrio()::$_0, std::__ndk1::allocator<ScrollLayerExt::fixTouchPrio()::$_0>, void ()>::__clone(std::__ndk1::__function::__base<void ()>*) const
FUNC 99f7c 4 0 std::__ndk1::__function::__func<ScrollLayerExt::fixTouchPrio()::$_0, std::__ndk1::allocator<ScrollLayerExt::fixTouchPrio()::$_0>, void ()>::destroy()
FUNC 99f80 4 0 std::__ndk1::__function::__func<ScrollLayerExt::fixTouchPrio()::$_0, std::__ndk1::allocator<ScrollLayerExt::fixTouchPrio()::$_0>, void ()>::destroy_deallocate()
FUNC 99f84 54 0 std::__ndk1::__function::__func<ScrollLayerExt::fixTouchPrio()::$_0, std::__ndk1::allocator<ScrollLayerExt::fixTouchPrio()::$_0>, void ()>::operator()()
FUNC 99fd8 1c 0 std::__ndk1::__function::__func<ScrollLayerExt::fixTouchPrio()::$_0, std::__ndk1::allocator<ScrollLayerExt::fixTouchPrio()::$_0>, void ()>::target(std::type_info const&) const
FUNC 99ff4 c 0 std::__ndk1::__function::__func<ScrollLayerExt::fixTouchPrio()::$_0, std::__ndk1::allocator<ScrollLayerExt::fixTouchPrio()::$_0>, void ()>::target_type() const
FUNC 9a000 2ac 0 TextInputNode::init(std::__ndk1::basic_string<char, std::__ndk1::char_traits<char>, std::__ndk1::allocator<char> >, unsigned int, cocos2d::CCSize, float, float)
FUNC 9a2ac ec 0 TextInputNode::textChanged(CCTextInputNode*)
FUNC 9a398 16c 0 TextInputNode::updateDescText(std::__ndk1::basic_string<char, std::__ndk1::char_traits<char>, std::__ndk1::allocator<char> >)
FUNC 9a504 8 0 {virtual override thunk({offset(-320)}, TextInputNode::textChanged(CCTextInputNode*))}
FUNC 9a50c 12c 0 TextInputNode::textInputClosed(CCTextInputNode*)
FUNC 9a638 8 0 {virtual override thunk({offset(-320)}, TextInputNode::textInputClosed(CCTextInputNode*))}
FUNC 9a640 d4 0 TextInputNode::~TextInputNode()
FUNC 9a714 dc 0 TextInputNode::~TextInputNode()
FUNC 9a7f0 4 0 TextInputNode::textInputOpened(CCTextInputNode*)
FUNC 9a7f4 4 0 {virtual override thunk({offset(-320)}, TextInputNode::textInputOpened(CCTextInputNode*))}
FUNC 9a7f8 128 0 std::__ndk1::basic_string<char, std::__ndk1::char_traits<char>, std::__ndk1::allocator<char> >::__assign_external(char const*, unsigned long)
FUNC 9a920 16c4 0 ObjectWorkshop::setup(bool)
FUNC 9bfe4 b8 0 geode::Task<geode::utils::web::WebResponse, geode::utils::web::WebProgress>::cancel()
FUNC 9c09c cc 0 geode::EventListener<geode::Task<geode::utils::web::WebResponse, geode::utils::web::WebProgress> >::bind(std::__ndk1::function<void (geode::Task<geode::utils::web::WebResponse, geode::utils::web::WebProgress>*::Event)>)
FUNC 9c168 f4 0 ObjectWorkshop::onBackBtn(cocos2d::CCObject*)
FUNC 9c25c 108 0 ObjectWorkshop::onProfileSelf(cocos2d::CCObject*)
FUNC 9c364 238 0 ObjectWorkshop::createCategoryBtn(char const*, int, bool)
FUNC 9c59c 1ec 0 ObjectWorkshop::createCategoryBtn(char const*, int)
FUNC 9c788 1f8 0 ObjectWorkshop::onSearchBtn(cocos2d::CCObject*)
FUNC 9c980 1ac 0 ObjectWorkshop::onFilterBtn(cocos2d::CCObject*)
FUNC 9cb2c 24 0 ObjectWorkshop::onReloadBtn(cocos2d::CCObject*)
FUNC 9cb50 194 0 ObjectWorkshop::onLeftPage(cocos2d::CCObject*)
FUNC 9cce4 198 0 ObjectWorkshop::onRightPage(cocos2d::CCObject*)
FUNC 9ce7c 174 0 ObjectWorkshop::RegenCategory()
FUNC 9cff0 544 0 ObjectWorkshop::onSideButton(cocos2d::CCObject*)
FUNC 9d534 8c 0 ObjectWorkshop::textInputOpened(CCTextInputNode*)
FUNC 9d5c0 8c 0 {virtual override thunk({offset(-672)}, ObjectWorkshop::textInputOpened(CCTextInputNode*))}
FUNC 9d64c 3ec 0 ObjectWorkshop::textInputClosed(CCTextInputNode*)
FUNC 9da38 8 0 {virtual override thunk({offset(-672)}, ObjectWorkshop::textInputClosed(CCTextInputNode*))}
FUNC 9da40 4 0 ObjectWorkshop::onRetryBtn(cocos2d::CCObject*)
FUNC 9da44 37c 0 Utils::url_encode(std::__ndk1::basic_string<char, std::__ndk1::char_traits<char>, std::__ndk1::allocator<char> > const&)
FUNC 9ddc0 384 0 ObjectWorkshop::onClickUser(int)
FUNC 9e144 76c 0 ObjectWorkshop::onAdminBtn(cocos2d::CCObject*)
FUNC 9e8b0 5ec 0 ObjectWorkshop::onClickObject(cocos2d::CCObject*)
FUNC 9ee9c d24 0 ObjectWorkshop::onUploadBtn(cocos2d::CCObject*)
FUNC 9fbc0 84 0 std::__ndk1::unordered_set<std::__ndk1::basic_string<char, std::__ndk1::char_traits<char>, std::__ndk1::allocator<char> >, std::__ndk1::hash<std::__ndk1::basic_string<char, std::__ndk1::char_traits<char>, std::__ndk1::allocator<char> > >, std::__ndk1::equal_to<std::__ndk1::basic_string<char, std::__ndk1::char_traits<char>, std::__ndk1::allocator<char> > >, std::__ndk1::allocator<std::__ndk1::basic_string<char, std::__ndk1::char_traits<char>, std::__ndk1::allocator<char> > > >::clear[abi:ne180000]()
FUNC 9fc44 af4 0 ObjectWorkshop::onUpload(cocos2d::CCObject*)
FUNC a0738 b4 0 ObjectWorkshop::onRulesBtn(cocos2d::CCObject*)
FUNC a07ec 1ac 0 ObjectWorkshop::onUploadFilterBtn(cocos2d::CCObject*)
FUNC a0998 20 0 geode::cocos::CCArrayExt<CreateMenuItem*, CreateMenuItem>::~CCArrayExt()
FUNC a09b8 308 0 FiltersPopup::create(std::__ndk1::unordered_set<std::__ndk1::basic_string<char, std::__ndk1::char_traits<char>, std::__ndk1::allocator<char> >, std::__ndk1::hash<std::__ndk1::basic_string<char, std::__ndk1::char_traits<char>, std::__ndk1::allocator<char> > >, std::__ndk1::equal_to<std::__ndk1::basic_string<char, std::__ndk1::char_traits<char>, std::__ndk1::allocator<char> > >, std::__ndk1::allocator<std::__ndk1::basic_string<char, std::__ndk1::char_traits<char>, std::__ndk1::allocator<char> > > >, std::__ndk1::unordered_set<std::__ndk1::basic_string<char, std::__ndk1::char_traits<char>, std::__ndk1::allocator<char> >, std::__ndk1::hash<std::__ndk1::basic_string<char, std::__ndk1::char_traits<char>, std::__ndk1::allocator<char> > >, std::__ndk1::equal_to<std::__ndk1::basic_string<char, std::__ndk1::char_traits<char>, std::__ndk1::allocator<char> > >, std::__ndk1::allocator<std::__ndk1::basic_string<char, std::__ndk1::char_traits<char>, std::__ndk1::allocator<char> > > >, bool, std::__ndk1::function<void (std::__ndk1::unordered_set<std::__ndk1::basic_string<char, std::__ndk1::char_traits<char>, std::__ndk1::allocator<char> >, std::__ndk1::hash<std::__ndk1::basic_string<char, std::__ndk1::char_traits<char>, std::__ndk1::allocator<char> > >, std::__ndk1::equal_to<std::__ndk1::basic_string<char, std::__ndk1::char_traits<char>, std::__ndk1::allocator<char> > >, std::__ndk1::allocator<std::__ndk1::basic_string<char, std::__ndk1::char_traits<char>, std::__ndk1::allocator<char> > > >)>)
FUNC a0cc0 38 0 _ZNSt6__ndk112basic_stringIcNS_11char_traitsIcEENS_9allocatorIcEEEaSIN2gd6stringETnNS_9enable_ifIXaasr33__can_be_converted_to_string_viewIcS2_T_EE5valuentsr17__is_same_uncvrefISA_S5_EE5valueEiE4typeELi0EEERS5_RKSA_
FUNC a0cf8 180 0 Utils::replaceAll(std::__ndk1::basic_string<char, std::__ndk1::char_traits<char>, std::__ndk1::allocator<char> >, std::__ndk1::basic_string<char, std::__ndk1::char_traits<char>, std::__ndk1::allocator<char> > const&, std::__ndk1::basic_string<char, std::__ndk1::char_traits<char>, std::__ndk1::allocator<char> > const&)
FUNC a0e78 64 0 _ZN7matjson5ValueC2ITkNS_12CanSerializeERNSt6__ndk113unordered_setINS2_12basic_stringIcNS2_11char_traitsIcEENS2_9allocatorIcEEEENS2_4hashIS9_EENS2_8equal_toIS9_EENS7_IS9_EEEEEEOT_
FUNC a0edc 374 0 ObjectWorkshop::onClose(cocos2d::CCObject*)
FUNC a1250 64 0 ObjectWorkshop::keyDown(cocos2d::enumKeyCodes)
FUNC a12b4 68 0 {virtual override thunk({offset(-344)}, ObjectWorkshop::keyDown(cocos2d::enumKeyCodes))}
FUNC a131c 50 0 ObjectWorkshop::keyBackClicked()
FUNC a136c 54 0 {virtual override thunk({offset(-336)}, ObjectWorkshop::keyBackClicked())}
FUNC a13c0 55c 0 ObjectWorkshop::~ObjectWorkshop()
FUNC a191c 24 0 ObjectWorkshop::~ObjectWorkshop()
FUNC a1940 8 0 {virtual override thunk({offset(-320)}, ObjectWorkshop::~ObjectWorkshop())}
FUNC a1948 28 0 {virtual override thunk({offset(-320)}, ObjectWorkshop::~ObjectWorkshop())}
FUNC a1970 14 0 std::__ndk1::basic_string<char, std::__ndk1::char_traits<char>, std::__ndk1::allocator<char> >::__throw_out_of_range[abi:ne180000]() const
FUNC a1984 dc 0 std::__ndk1::basic_ostringstream<char, std::__ndk1::char_traits<char>, std::__ndk1::allocator<char> >::basic_ostringstream[abi:ne180000]()
FUNC a1a60 c4 0 std::__ndk1::basic_ostringstream<char, std::__ndk1::char_traits<char>, std::__ndk1::allocator<char> >::str[abi:ne180000]() const &
FUNC a1b24 7c 0 std::__ndk1::basic_ostringstream<char, std::__ndk1::char_traits<char>, std::__ndk1::allocator<char> >::~basic_ostringstream()
FUNC a1ba0 260 0 geode::Popup<UserData, UserData>::initAnchored(float, float, UserData, UserData, char const*, cocos2d::CCRect)
FUNC a1e00 6c 0 geode::Popup<UserData, UserData>::~Popup()
FUNC a1e6c 4 0 geode::Popup<UserData, UserData>::~Popup()
FUNC a1e70 2c 0 geode::Popup<UserData, UserData>::registerWithTouchDispatcher()
FUNC a1e9c 28 0 geode::Popup<UserData, UserData>::keyDown(cocos2d::enumKeyCodes)
FUNC a1ec4 148 0 geode::Popup<UserData, UserData>::onClose(cocos2d::CCObject*)
FUNC a200c 6c 0 {virtual override thunk({offset(-320)}, geode::Popup<UserData, UserData>::~Popup())}
FUNC a2078 4 0 {virtual override thunk({offset(-320)}, geode::Popup<UserData, UserData>::~Popup())}
FUNC a207c 2c 0 {virtual override thunk({offset(-344)}, geode::Popup<UserData, UserData>::keyDown(cocos2d::enumKeyCodes))}
FUNC a20a8 50 0 geode::Popup<UserData, UserData>::CloseEvent::~CloseEvent()
FUNC a20f8 58 0 geode::Popup<UserData, UserData>::CloseEvent::~CloseEvent()
FUNC a2150 10 0 std::__ndk1::__shared_ptr_emplace<geode::Popup<UserData, UserData>::CloseEvent::Impl, std::__ndk1::allocator<geode::Popup<UserData, UserData>::CloseEvent::Impl> >::~__shared_ptr_emplace()
FUNC a2160 30 0 std::__ndk1::__shared_ptr_emplace<geode::Popup<UserData, UserData>::CloseEvent::Impl, std::__ndk1::allocator<geode::Popup<UserData, UserData>::CloseEvent::Impl> >::~__shared_ptr_emplace()
FUNC a2190 4 0 std::__ndk1::__shared_ptr_emplace<geode::Popup<UserData, UserData>::CloseEvent::Impl, std::__ndk1::allocator<geode::Popup<UserData, UserData>::CloseEvent::Impl> >::__on_zero_shared()
FUNC a2194 4 0 std::__ndk1::__shared_ptr_emplace<geode::Popup<UserData, UserData>::CloseEvent::Impl, std::__ndk1::allocator<geode::Popup<UserData, UserData>::CloseEvent::Impl> >::__on_zero_shared_weak()
FUNC a2198 4f4 0 geode::Popup<UserData, UserData>::initBase(float, float, UserData, UserData, char const*, cocos2d::CCRect, bool)
FUNC a268c 2b4 0 geode::Popup<ObjectData, UserData>::initAnchored(float, float, ObjectData, UserData, char const*, cocos2d::CCRect)
FUNC a2940 6c 0 geode::Popup<ObjectData, UserData>::~Popup()
FUNC a29ac 4 0 geode::Popup<ObjectData, UserData>::~Popup()
FUNC a29b0 2c 0 geode::Popup<ObjectData, UserData>::registerWithTouchDispatcher()
FUNC a29dc 28 0 geode::Popup<ObjectData, UserData>::keyDown(cocos2d::enumKeyCodes)
FUNC a2a04 148 0 geode::Popup<ObjectData, UserData>::onClose(cocos2d::CCObject*)
FUNC a2b4c 6c 0 {virtual override thunk({offset(-320)}, geode::Popup<ObjectData, UserData>::~Popup())}
FUNC a2bb8 4 0 {virtual override thunk({offset(-320)}, geode::Popup<ObjectData, UserData>::~Popup())}
FUNC a2bbc 2c 0 {virtual override thunk({offset(-344)}, geode::Popup<ObjectData, UserData>::keyDown(cocos2d::enumKeyCodes))}
FUNC a2be8 50 0 geode::Popup<ObjectData, UserData>::CloseEvent::~CloseEvent()
FUNC a2c38 58 0 geode::Popup<ObjectData, UserData>::CloseEvent::~CloseEvent()
FUNC a2c90 10 0 std::__ndk1::__shared_ptr_emplace<geode::Popup<ObjectData, UserData>::CloseEvent::Impl, std::__ndk1::allocator<geode::Popup<ObjectData, UserData>::CloseEvent::Impl> >::~__shared_ptr_emplace()
FUNC a2ca0 30 0 std::__ndk1::__shared_ptr_emplace<geode::Popup<ObjectData, UserData>::CloseEvent::Impl, std::__ndk1::allocator<geode::Popup<ObjectData, UserData>::CloseEvent::Impl> >::~__shared_ptr_emplace()
FUNC a2cd0 4 0 std::__ndk1::__shared_ptr_emplace<geode::Popup<ObjectData, UserData>::CloseEvent::Impl, std::__ndk1::allocator<geode::Popup<ObjectData, UserData>::CloseEvent::Impl> >::__on_zero_shared()
FUNC a2cd4 4 0 std::__ndk1::__shared_ptr_emplace<geode::Popup<ObjectData, UserData>::CloseEvent::Impl, std::__ndk1::allocator<geode::Popup<ObjectData, UserData>::CloseEvent::Impl> >::__on_zero_shared_weak()
FUNC a2cd8 54c 0 geode::Popup<ObjectData, UserData>::initBase(float, float, ObjectData, UserData, char const*, cocos2d::CCRect, bool)
FUNC a3224 2cc 0 geode::Popup<std::__ndk1::unordered_set<std::__ndk1::basic_string<char, std::__ndk1::char_traits<char>, std::__ndk1::allocator<char> >, std::__ndk1::hash<std::__ndk1::basic_string<char, std::__ndk1::char_traits<char>, std::__ndk1::allocator<char> > >, std::__ndk1::equal_to<std::__ndk1::basic_string<char, std::__ndk1::char_traits<char>, std::__ndk1::allocator<char> > >, std::__ndk1::allocator<std::__ndk1::basic_string<char, std::__ndk1::char_traits<char>, std::__ndk1::allocator<char> > > >, std::__ndk1::unordered_set<std::__ndk1::basic_string<char, std::__ndk1::char_traits<char>, std::__ndk1::allocator<char> >, std::__ndk1::hash<std::__ndk1::basic_string<char, std::__ndk1::char_traits<char>, std::__ndk1::allocator<char> > >, std::__ndk1::equal_to<std::__ndk1::basic_string<char, std::__ndk1::char_traits<char>, std::__ndk1::allocator<char> > >, std::__ndk1::allocator<std::__ndk1::basic_string<char, std::__ndk1::char_traits<char>, std::__ndk1::allocator<char> > > >, bool, std::__ndk1::function<void (std::__ndk1::unordered_set<std::__ndk1::basic_string<char, std::__ndk1::char_traits<char>, std::__ndk1::allocator<char> >, std::__ndk1::hash<std::__ndk1::basic_string<char, std::__ndk1::char_traits<char>, std::__ndk1::allocator<char> > >, std::__ndk1::equal_to<std::__ndk1::basic_string<char, std::__ndk1::char_traits<char>, std::__ndk1::allocator<char> > >, std::__ndk1::allocator<std::__ndk1::basic_string<char, std::__ndk1::char_traits<char>, std::__ndk1::allocator<char> > > >)> >::initAnchored(float, float, std::__ndk1::unordered_set<std::__ndk1::basic_string<char, std::__ndk1::char_traits<char>, std::__ndk1::allocator<char> >, std::__ndk1::hash<std::__ndk1::basic_string<char, std::__ndk1::char_traits<char>, std::__ndk1::allocator<char> > >, std::__ndk1::equal_to<std::__ndk1::basic_string<char, std::__ndk1::char_traits<char>, std::__ndk1::allocator<char> > >, std::__ndk1::allocator<std::__ndk1::basic_string<char, std::__ndk1::char_traits<char>, std::__ndk1::allocator<char> > > >, std::__ndk1::unordered_set<std::__ndk1::basic_string<char, std::__ndk1::char_traits<char>, std::__ndk1::allocator<char> >, std::__ndk1::hash<std::__ndk1::basic_string<char, std::__ndk1::char_traits<char>, std::__ndk1::allocator<char> > >, std::__ndk1::equal_to<std::__ndk1::basic_string<char, std::__ndk1::char_traits<char>, std::__ndk1::allocator<char> > >, std::__ndk1::allocator<std::__ndk1::basic_string<char, std::__ndk1::char_traits<char>, std::__ndk1::allocator<char> > > >, bool, std::__ndk1::function<void (std::__ndk1::unordered_set<std::__ndk1::basic_string<char, std::__ndk1::char_traits<char>, std::__ndk1::allocator<char> >, std::__ndk1::hash<std::__ndk1::basic_string<char, std::__ndk1::char_traits<char>, std::__ndk1::allocator<char> > >, std::__ndk1::equal_to<std::__ndk1::basic_string<char, std::__ndk1::char_traits<char>, std::__ndk1::allocator<char> > >, std::__ndk1::allocator<std::__ndk1::basic_string<char, std::__ndk1::char_traits<char>, std::__ndk1::allocator<char> > > >)>, char const*, cocos2d::CCRect)
FUNC a34f0 538 0 geode::Popup<std::__ndk1::unordered_set<std::__ndk1::basic_string<char, std::__ndk1::char_traits<char>, std::__ndk1::allocator<char> >, std::__ndk1::hash<std::__ndk1::basic_string<char, std::__ndk1::char_traits<char>, std::__ndk1::allocator<char> > >, std::__ndk1::equal_to<std::__ndk1::basic_string<char, std::__ndk1::char_traits<char>, std::__ndk1::allocator<char> > >, std::__ndk1::allocator<std::__ndk1::basic_string<char, std::__ndk1::char_traits<char>, std::__ndk1::allocator<char> > > >, std::__ndk1::unordered_set<std::__ndk1::basic_string<char, std::__ndk1::char_traits<char>, std::__ndk1::allocator<char> >, std::__ndk1::hash<std::__ndk1::basic_string<char, std::__ndk1::char_traits<char>, std::__ndk1::allocator<char> > >, std::__ndk1::equal_to<std::__ndk1::basic_string<char, std::__ndk1::char_traits<char>, std::__ndk1::allocator<char> > >, std::__ndk1::allocator<std::__ndk1::basic_string<char, std::__ndk1::char_traits<char>, std::__ndk1::allocator<char> > > >, bool, std::__ndk1::function<void (std::__ndk1::unordered_set<std::__ndk1::basic_string<char, std::__ndk1::char_traits<char>, std::__ndk1::allocator<char> >, std::__ndk1::hash<std::__ndk1::basic_string<char, std::__ndk1::char_traits<char>, std::__ndk1::allocator<char> > >, std::__ndk1::equal_to<std::__ndk1::basic_string<char, std::__ndk1::char_traits<char>, std::__ndk1::allocator<char> > >, std::__ndk1::allocator<std::__ndk1::basic_string<char, std::__ndk1::char_traits<char>, std::__ndk1::allocator<char> > > >)> >::initBase(float, float, std::__ndk1::unordered_set<std::__ndk1::basic_string<char, std::__ndk1::char_traits<char>, std::__ndk1::allocator<char> >, std::__ndk1::hash<std::__ndk1::basic_string<char, std::__ndk1::char_traits<char>, std::__ndk1::allocator<char> > >, std::__ndk1::equal_to<std::__ndk1::basic_string<char, std::__ndk1::char_traits<char>, std::__ndk1::allocator<char> > >, std::__ndk1::allocator<std::__ndk1::basic_string<char, std::__ndk1::char_traits<char>, std::__ndk1::allocator<char> > > >, std::__ndk1::unordered_set<std::__ndk1::basic_string<char, std::__ndk1::char_traits<char>, std::__ndk1::allocator<char> >, std::__ndk1::hash<std::__ndk1::basic_string<char, std::__ndk1::char_traits<char>, std::__ndk1::allocator<char> > >, std::__ndk1::equal_to<std::__ndk1::basic_string<char, std::__ndk1::char_traits<char>, std::__ndk1::allocator<char> > >, std::__ndk1::allocator<std::__ndk1::basic_string<char, std::__ndk1::char_traits<char>, std::__ndk1::allocator<char> > > >, bool, std::__ndk1::function<void (std::__ndk1::unordered_set<std::__ndk1::basic_string<char, std::__ndk1::char_traits<char>, std::__ndk1::allocator<char> >, std::__ndk1::hash<std::__ndk1::basic_string<char, std::__ndk1::char_traits<char>, std::__ndk1::allocator<char> > >, std::__ndk1::equal_to<std::__ndk1::basic_string<char, std::__ndk1::char_traits<char>, std::__ndk1::allocator<char> > >, std::__ndk1::allocator<std::__ndk1::basic_string<char, std::__ndk1::char_traits<char>, std::__ndk1::allocator<char> > > >)>, char const*, cocos2d::CCRect, bool)
FUNC a3a28 4 0 std::__ndk1::__function::__func<ObjectWorkshop::setup(bool)::$_0, std::__ndk1::allocator<ObjectWorkshop::setup(bool)::$_0>, void (geode::Task<geode::utils::web::WebResponse, geode::utils::web::WebProgress>::Event*)>::~__func()
FUNC a3a2c 34 0 std::__ndk1::__function::__func<ObjectWorkshop::setup(bool)::$_0, std::__ndk1::allocator<ObjectWorkshop::setup(bool)::$_0>, void (geode::Task<geode::utils::web::WebResponse, geode::utils::web::WebProgress>::Event*)>::__clone() const
FUNC a3a60 14 0 std::__ndk1::__function::__func<ObjectWorkshop::setup(bool)::$_0, std::__ndk1::allocator<ObjectWorkshop::setup(bool)::$_0>, void (geode::Task<geode::utils::web::WebResponse, geode::utils::web::WebProgress>::Event*)>::__clone(std::__ndk1::__function::__base<void (geode::Task<geode::utils::web::WebResponse, geode::utils::web::WebProgress>::Event*)>*) const
FUNC a3a74 4 0 std::__ndk1::__function::__func<ObjectWorkshop::setup(bool)::$_0, std::__ndk1::allocator<ObjectWorkshop::setup(bool)::$_0>, void (geode::Task<geode::utils::web::WebResponse, geode::utils::web::WebProgress>::Event*)>::destroy()
FUNC a3a78 4 0 std::__ndk1::__function::__func<ObjectWorkshop::setup(bool)::$_0, std::__ndk1::allocator<ObjectWorkshop::setup(bool)::$_0>, void (geode::Task<geode::utils::web::WebResponse, geode::utils::web::WebProgress>::Event*)>::destroy_deallocate()
FUNC a3a7c 690 0 std::__ndk1::__function::__func<ObjectWorkshop::setup(bool)::$_0, std::__ndk1::allocator<ObjectWorkshop::setup(bool)::$_0>, void (geode::Task<geode::utils::web::WebResponse, geode::utils::web::WebProgress>::Event*)>::operator()(geode::Task<geode::utils::web::WebResponse, geode::utils::web::WebProgress>::Event*&&)
FUNC a410c 1c 0 std::__ndk1::__function::__func<ObjectWorkshop::setup(bool)::$_0, std::__ndk1::allocator<ObjectWorkshop::setup(bool)::$_0>, void (geode::Task<geode::utils::web::WebResponse, geode::utils::web::WebProgress>::Event*)>::target(std::type_info const&) const
FUNC a4128 c 0 std::__ndk1::__function::__func<ObjectWorkshop::setup(bool)::$_0, std::__ndk1::allocator<ObjectWorkshop::setup(bool)::$_0>, void (geode::Task<geode::utils::web::WebResponse, geode::utils::web::WebProgress>::Event*)>::target_type() const
FUNC a4134 7c 0 geode::impl::ResultData<matjson::Value&, std::__ndk1::basic_string<char, std::__ndk1::char_traits<char>, std::__ndk1::allocator<char> > >::unwrap() &
FUNC a41b0 74 0 geode::impl::ResultData<std::__ndk1::vector<matjson::Value, std::__ndk1::allocator<matjson::Value> >&, std::__ndk1::basic_string<char, std::__ndk1::char_traits<char>, std::__ndk1::allocator<char> > >::~ResultData()
FUNC a4224 158 0 Utils::arrayToUnorderedSet<std::__ndk1::basic_string<char, std::__ndk1::char_traits<char>, std::__ndk1::allocator<char> > >(std::__ndk1::vector<matjson::Value, std::__ndk1::allocator<matjson::Value> > const&)
FUNC a437c 4 0 std::__ndk1::__variant_detail::__visitation::__base::__dispatcher<(unsigned long)0>::__dispatch[abi:ne180000]<std::__ndk1::__variant_detail::__dtor<std::__ndk1::__variant_detail::__traits<std::__ndk1::reference_wrapper<std::__ndk1::vector<matjson::Value, std::__ndk1::allocator<matjson> > >, std::__ndk1::basic_string<char, std::__ndk1::char_traits<char>, matjson::Value<char> > >, (std::__ndk1::__variant_detail::_Trait)1>::__destroy[abi:ne180000]()::{lambda(auto:1&)#1}, std::__ndk1::__variant_detail::__base<(std::__ndk1::__variant_detail::__traits<std::__ndk1::reference_wrapper<std::__ndk1::vector<matjson::Value, std::__ndk1::allocator<matjson> > >, std::__ndk1::basic_string<char, std::__ndk1::char_traits<char>, matjson::Value<char> > >)1, std::__ndk1::vector<matjson::Value, std::__ndk1::allocator<matjson> >, matjson::Value<char> >&>(std::__ndk1::__variant_detail::__dtor<std::__ndk1::__variant_detail::__traits<std::__ndk1::reference_wrapper<std::__ndk1::vector<matjson::Value, std::__ndk1::allocator<matjson> > >, std::__ndk1::basic_string<char, std::__ndk1::char_traits<char>, matjson::Value<char> > >, (std::__ndk1::__variant_detail::_Trait)1>, std::__ndk1::__variant_detail::__base<(std::__ndk1::__variant_detail::__traits<std::__ndk1::reference_wrapper<std::__ndk1::vector<matjson::Value, std::__ndk1::allocator<matjson> > >, std::__ndk1::basic_string<char, std::__ndk1::char_traits<char>, matjson::Value<char> > >)1, std::__ndk1::vector<matjson::Value, std::__ndk1::allocator<matjson> >, matjson::Value<char> >&)
FUNC a4380 14 0 std::__ndk1::__variant_detail::__visitation::__base::__dispatcher<(unsigned long)1>::__dispatch[abi:ne180000]<std::__ndk1::__variant_detail::__dtor<std::__ndk1::__variant_detail::__traits<std::__ndk1::reference_wrapper<std::__ndk1::vector<matjson::Value, std::__ndk1::allocator<matjson> > >, std::__ndk1::basic_string<char, std::__ndk1::char_traits<char>, matjson::Value<char> > >, (std::__ndk1::__variant_detail::_Trait)1>::__destroy[abi:ne180000]()::{lambda(auto:1&)#1}, std::__ndk1::__variant_detail::__base<(std::__ndk1::__variant_detail::__traits<std::__ndk1::reference_wrapper<std::__ndk1::vector<matjson::Value, std::__ndk1::allocator<matjson> > >, std::__ndk1::basic_string<char, std::__ndk1::char_traits<char>, matjson::Value<char> > >)1, std::__ndk1::vector<matjson::Value, std::__ndk1::allocator<matjson> >, matjson::Value<char> >&>(std::__ndk1::__variant_detail::__dtor<std::__ndk1::__variant_detail::__traits<std::__ndk1::reference_wrapper<std::__ndk1::vector<matjson::Value, std::__ndk1::allocator<matjson> > >, std::__ndk1::basic_string<char, std::__ndk1::char_traits<char>, matjson::Value<char> > >, (std::__ndk1::__variant_detail::_Trait)1>, std::__ndk1::__variant_detail::__base<(std::__ndk1::__variant_detail::__traits<std::__ndk1::reference_wrapper<std::__ndk1::vector<matjson::Value, std::__ndk1::allocator<matjson> > >, std::__ndk1::basic_string<char, std::__ndk1::char_traits<char>, matjson::Value<char> > >)1, std::__ndk1::vector<matjson::Value, std::__ndk1::allocator<matjson> >, matjson::Value<char> >&)
FUNC a4394 3c8 0 std::__ndk1::__hash_table<std::__ndk1::basic_string<char, std::__ndk1::char_traits<char>, std::__ndk1::allocator<char> >, std::__ndk1::hash<std::__ndk1::basic_string<char, std::__ndk1::char_traits<char>, std::__ndk1::allocator<char> > >, std::__ndk1::equal_to<std::__ndk1::basic_string<char, std::__ndk1::char_traits<char>, std::__ndk1::allocator<char> > >, std::__ndk1::allocator<std::__ndk1::basic_string<char, std::__ndk1::char_traits<char>, std::__ndk1::allocator<char> > > >::__emplace_unique_key_args<std::__ndk1::basic_string<char, std::__ndk1::char_traits<char>, std::__ndk1::allocator<char> >, std::__ndk1::basic_string<char, std::__ndk1::char_traits<char>, std::__ndk1::allocator<char> > >(std::__ndk1::basic_string<char, std::__ndk1::char_traits<char>, std::__ndk1::allocator<char> > const&, std::__ndk1::basic_string<char, std::__ndk1::char_traits<char>, std::__ndk1::allocator<char> >&&)
FUNC a475c 108 0 std::__ndk1::__hash_table<std::__ndk1::basic_string<char, std::__ndk1::char_traits<char>, std::__ndk1::allocator<char> >, std::__ndk1::hash<std::__ndk1::basic_string<char, std::__ndk1::char_traits<char>, std::__ndk1::allocator<char> > >, std::__ndk1::equal_to<std::__ndk1::basic_string<char, std::__ndk1::char_traits<char>, std::__ndk1::allocator<char> > >, std::__ndk1::allocator<std::__ndk1::basic_string<char, std::__ndk1::char_traits<char>, std::__ndk1::allocator<char> > > >::__move_assign(std::__ndk1::__hash_table<std::__ndk1::basic_string<char, std::__ndk1::char_traits<char>, std::__ndk1::allocator<char> >, std::__ndk1::hash<std::__ndk1::basic_string<char, std::__ndk1::char_traits<char>, std::__ndk1::allocator<char> > >, std::__ndk1::equal_to<std::__ndk1::basic_string<char, std::__ndk1::char_traits<char>, std::__ndk1::allocator<char> > >, std::__ndk1::allocator<std::__ndk1::basic_string<char, std::__ndk1::char_traits<char>, std::__ndk1::allocator<char> > > >&, std::__ndk1::integral_constant<bool, true>)
FUNC a4864 608 0 fmt::v11::detail::value<fmt::v11::context>::format_custom_arg<std::__ndk1::unordered_set<std::__ndk1::basic_string<char, std::__ndk1::char_traits<char>, std::__ndk1::allocator<char> >, std::__ndk1::hash<std::__ndk1::basic_string<char, std::__ndk1::char_traits<char>, std::__ndk1::allocator<char> > >, std::__ndk1::equal_to<std::__ndk1::basic_string<char, std::__ndk1::char_traits<char>, std::__ndk1::allocator<char> > >, std::__ndk1::allocator<std::__ndk1::basic_string<char, std::__ndk1::char_traits<char>, std::__ndk1::allocator<char> > > >, fmt::v11::formatter<std::__ndk1::unordered_set<std::__ndk1::basic_string<char, std::__ndk1::char_traits<char>, std::__ndk1::allocator<char> >, std::__ndk1::hash<std::__ndk1::basic_string<char, std::__ndk1::char_traits<char>, std::__ndk1::allocator<char> > >, std::__ndk1::equal_to<std::__ndk1::basic_string<char, std::__ndk1::char_traits<char>, std::__ndk1::allocator<char> > >, std::__ndk1::allocator<std::__ndk1::basic_string<char, std::__ndk1::char_traits<char>, std::__ndk1::allocator<char> > > >, char, void> >(void*, fmt::v11::basic_format_parse_context<char>&, fmt::v11::context&)
FUNC a4e6c 4 0 std::__ndk1::__function::__func<ObjectWorkshop::setup(bool)::$_1, std::__ndk1::allocator<ObjectWorkshop::setup(bool)::$_1>, void (geode::Task<geode::utils::web::WebResponse, geode::utils::web::WebProgress>::Event*)>::~__func()
FUNC a4e70 38 0 std::__ndk1::__function::__func<ObjectWorkshop::setup(bool)::$_1, std::__ndk1::allocator<ObjectWorkshop::setup(bool)::$_1>, void (geode::Task<geode::utils::web::WebResponse, geode::utils::web::WebProgress>::Event*)>::__clone() const
FUNC a4ea8 18 0 std::__ndk1::__function::__func<ObjectWorkshop::setup(bool)::$_1, std::__ndk1::allocator<ObjectWorkshop::setup(bool)::$_1>, void (geode::Task<geode::utils::web::WebResponse, geode::utils::web::WebProgress>::Event*)>::__clone(std::__ndk1::__function::__base<void (geode::Task<geode::utils::web::WebResponse, geode::utils::web::WebProgress>::Event*)>*) const
FUNC a4ec0 4 0 std::__ndk1::__function::__func<ObjectWorkshop::setup(bool)::$_1, std::__ndk1::allocator<ObjectWorkshop::setup(bool)::$_1>, void (geode::Task<geode::utils::web::WebResponse, geode::utils::web::WebProgress>::Event*)>::destroy()
FUNC a4ec4 4 0 std::__ndk1::__function::__func<ObjectWorkshop::setup(bool)::$_1, std::__ndk1::allocator<ObjectWorkshop::setup(bool)::$_1>, void (geode::Task<geode::utils::web::WebResponse, geode::utils::web::WebProgress>::Event*)>::destroy_deallocate()
FUNC a4ec8 d84 0 std::__ndk1::__function::__func<ObjectWorkshop::setup(bool)::$_1, std::__ndk1::allocator<ObjectWorkshop::setup(bool)::$_1>, void (geode::Task<geode::utils::web::WebResponse, geode::utils::web::WebProgress>::Event*)>::operator()(geode::Task<geode::utils::web::WebResponse, geode::utils::web::WebProgress>::Event*&&)
FUNC a5c4c 1c 0 std::__ndk1::__function::__func<ObjectWorkshop::setup(bool)::$_1, std::__ndk1::allocator<ObjectWorkshop::setup(bool)::$_1>, void (geode::Task<geode::utils::web::WebResponse, geode::utils::web::WebProgress>::Event*)>::target(std::type_info const&) const
FUNC a5c68 c 0 std::__ndk1::__function::__func<ObjectWorkshop::setup(bool)::$_1, std::__ndk1::allocator<ObjectWorkshop::setup(bool)::$_1>, void (geode::Task<geode::utils::web::WebResponse, geode::utils::web::WebProgress>::Event*)>::target_type() const
FUNC a5c74 c74 0 matjson::Serialize<UserData>::fromJson(matjson::Value const&)
FUNC a68e8 78 0 geode::impl::ResultData<UserData, std::__ndk1::basic_string<char, std::__ndk1::char_traits<char>, std::__ndk1::allocator<char> > >::unwrap() &
FUNC a6960 bc 0 UserData::operator=(UserData const&)
FUNC a6a1c 7c 0 geode::impl::ResultData<matjson::Value&, std::__ndk1::basic_string<char, std::__ndk1::char_traits<char>, std::__ndk1::allocator<char> > >::unwrap() &&
FUNC a6a98 74 0 geode::impl::ResultData<long, std::__ndk1::basic_string<char, std::__ndk1::char_traits<char>, std::__ndk1::allocator<char> > >::~ResultData()
FUNC a6b0c 914 0 WarningPopup::create(CaseData, std::__ndk1::function<void ()>)
FUNC a7420 74 0 geode::impl::ResultData<UserData, std::__ndk1::basic_string<char, std::__ndk1::char_traits<char>, std::__ndk1::allocator<char> > >::~ResultData()
FUNC a7494 78 0 geode::impl::ResultData<long, std::__ndk1::basic_string<char, std::__ndk1::char_traits<char>, std::__ndk1::allocator<char> > >::unwrapErr() &&
FUNC a750c 78 0 geode::impl::ResultData<long, std::__ndk1::basic_string<char, std::__ndk1::char_traits<char>, std::__ndk1::allocator<char> > >::unwrap() &&
FUNC a7584 78 0 geode::impl::ResultData<std::__ndk1::basic_string<char, std::__ndk1::char_traits<char>, std::__ndk1::allocator<char> >, std::__ndk1::basic_string<char, std::__ndk1::char_traits<char>, std::__ndk1::allocator<char> > >::unwrapErr() &&
FUNC a75fc 78 0 geode::impl::ResultData<std::__ndk1::basic_string<char, std::__ndk1::char_traits<char>, std::__ndk1::allocator<char> >, std::__ndk1::basic_string<char, std::__ndk1::char_traits<char>, std::__ndk1::allocator<char> > >::unwrap() &&
FUNC a7674 74 0 geode::impl::ResultData<std::__ndk1::vector<matjson::Value, std::__ndk1::allocator<matjson::Value> > const&, std::__ndk1::basic_string<char, std::__ndk1::char_traits<char>, std::__ndk1::allocator<char> > >::~ResultData()
FUNC a76e8 74 0 geode::impl::ResultData<std::__ndk1::vector<matjson::Value, std::__ndk1::allocator<matjson::Value> > const&, std::__ndk1::basic_string<char, std::__ndk1::char_traits<char>, std::__ndk1::allocator<char> > >::unwrapErr() &&
FUNC a775c 7c 0 geode::impl::ResultData<std::__ndk1::vector<matjson::Value, std::__ndk1::allocator<matjson::Value> > const&, std::__ndk1::basic_string<char, std::__ndk1::char_traits<char>, std::__ndk1::allocator<char> > >::unwrap() &&
FUNC a77d8 154 0 _ZN5geode15UnwrapExceptionC2IRlQsr4implE18IsStringStreamableIT_EEENS_4impl5OkTagEOS3_
FUNC a792c 168 0 _ZN5geode15UnwrapExceptionC2IRNSt6__ndk112basic_stringIcNS2_11char_traitsIcEENS2_9allocatorIcEEEEQsr4implE18IsStringStreamableIT_EEENS_4impl5OkTagEOSA_
FUNC a7a94 4 0 std::__ndk1::__variant_detail::__visitation::__base::__dispatcher<(unsigned long)0>::__dispatch[abi:ne180000]<std::__ndk1::__variant_detail::__dtor<std::__ndk1::__variant_detail::__traits<std::__ndk1::reference_wrapper<std::__ndk1::vector<matjson::Value, std::__ndk1::allocator<matjson> > const>, std::__ndk1::basic_string<char, std::__ndk1::char_traits<char>, matjson::Value<char> > >, (std::__ndk1::__variant_detail::_Trait)1>::__destroy[abi:ne180000]()::{lambda(auto:1&)#1}, std::__ndk1::__variant_detail::__base<(std::__ndk1::__variant_detail::__traits<std::__ndk1::reference_wrapper<std::__ndk1::vector<matjson::Value, std::__ndk1::allocator<matjson> > const>, std::__ndk1::basic_string<char, std::__ndk1::char_traits<char>, matjson::Value<char> > >)1, std::__ndk1::vector<matjson::Value, std::__ndk1::allocator<matjson> > const, matjson::Value<char> >&>(std::__ndk1::__variant_detail::__dtor<std::__ndk1::__variant_detail::__traits<std::__ndk1::reference_wrapper<std::__ndk1::vector<matjson::Value, std::__ndk1::allocator<matjson> > const>, std::__ndk1::basic_string<char, std::__ndk1::char_traits<char>, matjson::Value<char> > >, (std::__ndk1::__variant_detail::_Trait)1>, std::__ndk1::__variant_detail::__base<(std::__ndk1::__variant_detail::__traits<std::__ndk1::reference_wrapper<std::__ndk1::vector<matjson::Value, std::__ndk1::allocator<matjson> > const>, std::__ndk1::basic_string<char, std::__ndk1::char_traits<char>, matjson::Value<char> > >)1, std::__ndk1::vector<matjson::Value, std::__ndk1::allocator<matjson> > const, matjson::Value<char> >&)
FUNC a7a98 14 0 std::__ndk1::__variant_detail::__visitation::__base::__dispatcher<(unsigned long)1>::__dispatch[abi:ne180000]<std::__ndk1::__variant_detail::__dtor<std::__ndk1::__variant_detail::__traits<std::__ndk1::reference_wrapper<std::__ndk1::vector<matjson::Value, std::__ndk1::allocator<matjson> > const>, std::__ndk1::basic_string<char, std::__ndk1::char_traits<char>, matjson::Value<char> > >, (std::__ndk1::__variant_detail::_Trait)1>::__destroy[abi:ne180000]()::{lambda(auto:1&)#1}, std::__ndk1::__variant_detail::__base<(std::__ndk1::__variant_detail::__traits<std::__ndk1::reference_wrapper<std::__ndk1::vector<matjson::Value, std::__ndk1::allocator<matjson> > const>, std::__ndk1::basic_string<char, std::__ndk1::char_traits<char>, matjson::Value<char> > >)1, std::__ndk1::vector<matjson::Value, std::__ndk1::allocator<matjson> > const, matjson::Value<char> >&>(std::__ndk1::__variant_detail::__dtor<std::__ndk1::__variant_detail::__traits<std::__ndk1::reference_wrapper<std::__ndk1::vector<matjson::Value, std::__ndk1::allocator<matjson> > const>, std::__ndk1::basic_string<char, std::__ndk1::char_traits<char>, matjson::Value<char> > >, (std::__ndk1::__variant_detail::_Trait)1>, std::__ndk1::__variant_detail::__base<(std::__ndk1::__variant_detail::__traits<std::__ndk1::reference_wrapper<std::__ndk1::vector<matjson::Value, std::__ndk1::allocator<matjson> > const>, std::__ndk1::basic_string<char, std::__ndk1::char_traits<char>, matjson::Value<char> > >)1, std::__ndk1::vector<matjson::Value, std::__ndk1::allocator<matjson> > const, matjson::Value<char> >&)
FUNC a7aac 34 0 _ZN5geode15UnwrapExceptionC2IRNSt6__ndk117reference_wrapperIKNS2_6vectorIN7matjson5ValueENS2_9allocatorIS6_EEEEEEQntsr4implE18IsStringStreamableIT_EEENS_4impl5OkTagEOSD_
FUNC a7ae0 6c 0 geode::Popup<CaseData, std::__ndk1::function<void ()> >::~Popup()
FUNC a7b4c 4 0 geode::Popup<CaseData, std::__ndk1::function<void ()> >::~Popup()
FUNC a7b50 2c 0 geode::Popup<CaseData, std::__ndk1::function<void ()> >::registerWithTouchDispatcher()
FUNC a7b7c 28 0 geode::Popup<CaseData, std::__ndk1::function<void ()> >::keyDown(cocos2d::enumKeyCodes)
FUNC a7ba4 148 0 geode::Popup<CaseData, std::__ndk1::function<void ()> >::onClose(cocos2d::CCObject*)
FUNC a7cec 6c 0 {virtual override thunk({offset(-320)}, geode::Popup<CaseData, std::__ndk1::function<void ()> >::~Popup())}
FUNC a7d58 4 0 {virtual override thunk({offset(-320)}, geode::Popup<CaseData, std::__ndk1::function<void ()> >::~Popup())}
FUNC a7d5c 2c 0 {virtual override thunk({offset(-344)}, geode::Popup<CaseData, std::__ndk1::function<void ()> >::keyDown(cocos2d::enumKeyCodes))}
FUNC a7d88 50 0 geode::Popup<CaseData, std::__ndk1::function<void ()> >::CloseEvent::~CloseEvent()
FUNC a7dd8 58 0 geode::Popup<CaseData, std::__ndk1::function<void ()> >::CloseEvent::~CloseEvent()
FUNC a7e30 10 0 std::__ndk1::__shared_ptr_emplace<geode::Popup<CaseData, std::__ndk1::function<void ()> >::CloseEvent::Impl, std::__ndk1::allocator<geode::Popup<CaseData, std::__ndk1::function<void ()> >::CloseEvent::Impl> >::~__shared_ptr_emplace()
FUNC a7e40 30 0 std::__ndk1::__shared_ptr_emplace<geode::Popup<CaseData, std::__ndk1::function<void ()> >::CloseEvent::Impl, std::__ndk1::allocator<geode::Popup<CaseData, std::__ndk1::function<void ()> >::CloseEvent::Impl> >::~__shared_ptr_emplace()
FUNC a7e70 4 0 std::__ndk1::__shared_ptr_emplace<geode::Popup<CaseData, std::__ndk1::function<void ()> >::CloseEvent::Impl, std::__ndk1::allocator<geode::Popup<CaseData, std::__ndk1::function<void ()> >::CloseEvent::Impl> >::__on_zero_shared()
FUNC a7e74 4 0 std::__ndk1::__shared_ptr_emplace<geode::Popup<CaseData, std::__ndk1::function<void ()> >::CloseEvent::Impl, std::__ndk1::allocator<geode::Popup<CaseData, std::__ndk1::function<void ()> >::CloseEvent::Impl> >::__on_zero_shared_weak()
FUNC a7e78 4 0 std::__ndk1::__function::__func<ObjectWorkshop::setup(bool)::$_1::operator()(geode::Task<geode::utils::web::WebResponse, geode::utils::web::WebProgress>::Event*) const::{lambda()#1}, std::__ndk1::allocator<ObjectWorkshop::setup(bool)::$_1::operator()(geode::Task<geode::utils::web::WebResponse, geode::utils::web::WebProgress>::Event*) const::{lambda()#1}>, void ()>::~__func()
FUNC a7e7c 34 0 std::__ndk1::__function::__func<ObjectWorkshop::setup(bool)::$_1::operator()(geode::Task<geode::utils::web::WebResponse, geode::utils::web::WebProgress>::Event*) const::{lambda()#1}, std::__ndk1::allocator<ObjectWorkshop::setup(bool)::$_1::operator()(geode::Task<geode::utils::web::WebResponse, geode::utils::web::WebProgress>::Event*) const::{lambda()#1}>, void ()>::__clone() const
FUNC a7eb0 14 0 std::__ndk1::__function::__func<ObjectWorkshop::setup(bool)::$_1::operator()(geode::Task<geode::utils::web::WebResponse, geode::utils::web::WebProgress>::Event*) const::{lambda()#1}, std::__ndk1::allocator<ObjectWorkshop::setup(bool)::$_1::operator()(geode::Task<geode::utils::web::WebResponse, geode::utils::web::WebProgress>::Event*) const::{lambda()#1}>, void ()>::__clone(std::__ndk1::__function::__base<void ()>*) const
FUNC a7ec4 4 0 std::__ndk1::__function::__func<ObjectWorkshop::setup(bool)::$_1::operator()(geode::Task<geode::utils::web::WebResponse, geode::utils::web::WebProgress>::Event*) const::{lambda()#1}, std::__ndk1::allocator<ObjectWorkshop::setup(bool)::$_1::operator()(geode::Task<geode::utils::web::WebResponse, geode::utils::web::WebProgress>::Event*) const::{lambda()#1}>, void ()>::destroy()
FUNC a7ec8 4 0 std::__ndk1::__function::__func<ObjectWorkshop::setup(bool)::$_1::operator()(geode::Task<geode::utils::web::WebResponse, geode::utils::web::WebProgress>::Event*) const::{lambda()#1}, std::__ndk1::allocator<ObjectWorkshop::setup(bool)::$_1::operator()(geode::Task<geode::utils::web::WebResponse, geode::utils::web::WebProgress>::Event*) const::{lambda()#1}>, void ()>::destroy_deallocate()
FUNC a7ecc 10 0 std::__ndk1::__function::__func<ObjectWorkshop::setup(bool)::$_1::operator()(geode::Task<geode::utils::web::WebResponse, geode::utils::web::WebProgress>::Event*) const::{lambda()#1}, std::__ndk1::allocator<ObjectWorkshop::setup(bool)::$_1::operator()(geode::Task<geode::utils::web::WebResponse, geode::utils::web::WebProgress>::Event*) const::{lambda()#1}>, void ()>::operator()()
FUNC a7edc 1c 0 std::__ndk1::__function::__func<ObjectWorkshop::setup(bool)::$_1::operator()(geode::Task<geode::utils::web::WebResponse, geode::utils::web::WebProgress>::Event*) const::{lambda()#1}, std::__ndk1::allocator<ObjectWorkshop::setup(bool)::$_1::operator()(geode::Task<geode::utils::web::WebResponse, geode::utils::web::WebProgress>::Event*) const::{lambda()#1}>, void ()>::target(std::type_info const&) const
FUNC a7ef8 c 0 std::__ndk1::__function::__func<ObjectWorkshop::setup(bool)::$_1::operator()(geode::Task<geode::utils::web::WebResponse, geode::utils::web::WebProgress>::Event*) const::{lambda()#1}, std::__ndk1::allocator<ObjectWorkshop::setup(bool)::$_1::operator()(geode::Task<geode::utils::web::WebResponse, geode::utils::web::WebProgress>::Event*) const::{lambda()#1}>, void ()>::target_type() const
FUNC a7f04 b0 0 std::__ndk1::__variant_detail::__visitation::__base::__dispatcher<(unsigned long)0>::__dispatch[abi:ne180000]<std::__ndk1::__variant_detail::__dtor<std::__ndk1::__variant_detail::__traits<UserData, std::__ndk1::basic_string<char, std::__ndk1::char_traits<char>, std::__ndk1::allocator<char> > >, (std::__ndk1::__variant_detail::_Trait)1>::__destroy[abi:ne180000]()::{lambda(auto:1&)#1}, std::__ndk1::__variant_detail::__base<(std::__ndk1::__variant_detail::__traits<UserData, std::__ndk1::basic_string<char, std::__ndk1::char_traits<char>, std::__ndk1::allocator<char> > >)1, std::__ndk1::__variant_detail::__traits, std::__ndk1::allocator<char> >&>(std::__ndk1::__variant_detail::__dtor<std::__ndk1::__variant_detail::__traits<UserData, std::__ndk1::basic_string<char, std::__ndk1::char_traits<char>, std::__ndk1::allocator<char> > >, (std::__ndk1::__variant_detail::_Trait)1>, std::__ndk1::__variant_detail::__base<(std::__ndk1::__variant_detail::__traits<UserData, std::__ndk1::basic_string<char, std::__ndk1::char_traits<char>, std::__ndk1::allocator<char> > >)1, std::__ndk1::__variant_detail::__traits, std::__ndk1::allocator<char> >&)
FUNC a7fb4 14 0 std::__ndk1::__variant_detail::__visitation::__base::__dispatcher<(unsigned long)1>::__dispatch[abi:ne180000]<std::__ndk1::__variant_detail::__dtor<std::__ndk1::__variant_detail::__traits<UserData, std::__ndk1::basic_string<char, std::__ndk1::char_traits<char>, std::__ndk1::allocator<char> > >, (std::__ndk1::__variant_detail::_Trait)1>::__destroy[abi:ne180000]()::{lambda(auto:1&)#1}, std::__ndk1::__variant_detail::__base<(std::__ndk1::__variant_detail::__traits<UserData, std::__ndk1::basic_string<char, std::__ndk1::char_traits<char>, std::__ndk1::allocator<char> > >)1, std::__ndk1::__variant_detail::__traits, std::__ndk1::allocator<char> >&>(std::__ndk1::__variant_detail::__dtor<std::__ndk1::__variant_detail::__traits<UserData, std::__ndk1::basic_string<char, std::__ndk1::char_traits<char>, std::__ndk1::allocator<char> > >, (std::__ndk1::__variant_detail::_Trait)1>, std::__ndk1::__variant_detail::__base<(std::__ndk1::__variant_detail::__traits<UserData, std::__ndk1::basic_string<char, std::__ndk1::char_traits<char>, std::__ndk1::allocator<char> > >)1, std::__ndk1::__variant_detail::__traits, std::__ndk1::allocator<char> >&)
FUNC a7fc8 4 0 std::__ndk1::__function::__func<ObjectWorkshop::RegenCategory()::$_0, std::__ndk1::allocator<ObjectWorkshop::RegenCategory()::$_0>, void ()>::~__func()
FUNC a7fcc 34 0 std::__ndk1::__function::__func<ObjectWorkshop::RegenCategory()::$_0, std::__ndk1::allocator<ObjectWorkshop::RegenCategory()::$_0>, void ()>::__clone() const
FUNC a8000 14 0 std::__ndk1::__function::__func<ObjectWorkshop::RegenCategory()::$_0, std::__ndk1::allocator<ObjectWorkshop::RegenCategory()::$_0>, void ()>::__clone(std::__ndk1::__function::__base<void ()>*) const
FUNC a8014 4 0 std::__ndk1::__function::__func<ObjectWorkshop::RegenCategory()::$_0, std::__ndk1::allocator<ObjectWorkshop::RegenCategory()::$_0>, void ()>::destroy()
FUNC a8018 4 0 std::__ndk1::__function::__func<ObjectWorkshop::RegenCategory()::$_0, std::__ndk1::allocator<ObjectWorkshop::RegenCategory()::$_0>, void ()>::destroy_deallocate()
FUNC a801c 174 0 std::__ndk1::__function::__func<ObjectWorkshop::RegenCategory()::$_0, std::__ndk1::allocator<ObjectWorkshop::RegenCategory()::$_0>, void ()>::operator()()
FUNC a8190 1c 0 std::__ndk1::__function::__func<ObjectWorkshop::RegenCategory()::$_0, std::__ndk1::allocator<ObjectWorkshop::RegenCategory()::$_0>, void ()>::target(std::type_info const&) const
FUNC a81ac c 0 std::__ndk1::__function::__func<ObjectWorkshop::RegenCategory()::$_0, std::__ndk1::allocator<ObjectWorkshop::RegenCategory()::$_0>, void ()>::target_type() const
FUNC a81b8 4 0 std::__ndk1::__function::__func<ObjectWorkshop::RegenCategory()::$_0::operator()() const::{lambda()#1}, std::__ndk1::allocator<ObjectWorkshop::RegenCategory()::$_0::operator()() const::{lambda()#1}>, void ()>::~__func()
FUNC a81bc 34 0 std::__ndk1::__function::__func<ObjectWorkshop::RegenCategory()::$_0::operator()() const::{lambda()#1}, std::__ndk1::allocator<ObjectWorkshop::RegenCategory()::$_0::operator()() const::{lambda()#1}>, void ()>::__clone() const
FUNC a81f0 14 0 std::__ndk1::__function::__func<ObjectWorkshop::RegenCategory()::$_0::operator()() const::{lambda()#1}, std::__ndk1::allocator<ObjectWorkshop::RegenCategory()::$_0::operator()() const::{lambda()#1}>, void ()>::__clone(std::__ndk1::__function::__base<void ()>*) const
FUNC a8204 4 0 std::__ndk1::__function::__func<ObjectWorkshop::RegenCategory()::$_0::operator()() const::{lambda()#1}, std::__ndk1::allocator<ObjectWorkshop::RegenCategory()::$_0::operator()() const::{lambda()#1}>, void ()>::destroy()
FUNC a8208 4 0 std::__ndk1::__function::__func<ObjectWorkshop::RegenCategory()::$_0::operator()() const::{lambda()#1}, std::__ndk1::allocator<ObjectWorkshop::RegenCategory()::$_0::operator()() const::{lambda()#1}>, void ()>::destroy_deallocate()
FUNC a820c 10 0 std::__ndk1::__function::__func<ObjectWorkshop::RegenCategory()::$_0::operator()() const::{lambda()#1}, std::__ndk1::allocator<ObjectWorkshop::RegenCategory()::$_0::operator()() const::{lambda()#1}>, void ()>::operator()()
FUNC a821c 1c 0 std::__ndk1::__function::__func<ObjectWorkshop::RegenCategory()::$_0::operator()() const::{lambda()#1}, std::__ndk1::allocator<ObjectWorkshop::RegenCategory()::$_0::operator()() const::{lambda()#1}>, void ()>::target(std::type_info const&) const
FUNC a8238 c 0 std::__ndk1::__function::__func<ObjectWorkshop::RegenCategory()::$_0::operator()() const::{lambda()#1}, std::__ndk1::allocator<ObjectWorkshop::RegenCategory()::$_0::operator()() const::{lambda()#1}>, void ()>::target_type() const
FUNC a8244 4 0 std::__ndk1::__function::__func<ObjectWorkshop::RegenCategory()::$_1, std::__ndk1::allocator<ObjectWorkshop::RegenCategory()::$_1>, void ()>::~__func()
FUNC a8248 34 0 std::__ndk1::__function::__func<ObjectWorkshop::RegenCategory()::$_1, std::__ndk1::allocator<ObjectWorkshop::RegenCategory()::$_1>, void ()>::__clone() const
FUNC a827c 14 0 std::__ndk1::__function::__func<ObjectWorkshop::RegenCategory()::$_1, std::__ndk1::allocator<ObjectWorkshop::RegenCategory()::$_1>, void ()>::__clone(std::__ndk1::__function::__base<void ()>*) const
FUNC a8290 4 0 std::__ndk1::__function::__func<ObjectWorkshop::RegenCategory()::$_1, std::__ndk1::allocator<ObjectWorkshop::RegenCategory()::$_1>, void ()>::destroy()
FUNC a8294 4 0 std::__ndk1::__function::__func<ObjectWorkshop::RegenCategory()::$_1, std::__ndk1::allocator<ObjectWorkshop::RegenCategory()::$_1>, void ()>::destroy_deallocate()
FUNC a8298 1b94 0 std::__ndk1::__function::__func<ObjectWorkshop::RegenCategory()::$_1, std::__ndk1::allocator<ObjectWorkshop::RegenCategory()::$_1>, void ()>::operator()()
FUNC a9e2c 1c 0 std::__ndk1::__function::__func<ObjectWorkshop::RegenCategory()::$_1, std::__ndk1::allocator<ObjectWorkshop::RegenCategory()::$_1>, void ()>::target(std::type_info const&) const
FUNC a9e48 c 0 std::__ndk1::__function::__func<ObjectWorkshop::RegenCategory()::$_1, std::__ndk1::allocator<ObjectWorkshop::RegenCategory()::$_1>, void ()>::target_type() const
FUNC a9e54 24 0 BreakLine::~BreakLine()
FUNC a9e78 98 0 BreakLine::draw()
FUNC a9f10 4 0 std::__ndk1::__function::__func<ObjectWorkshop::load()::$_0, std::__ndk1::allocator<ObjectWorkshop::load()::$_0>, void (geode::Task<geode::utils::web::WebResponse, geode::utils::web::WebProgress>::Event*)>::~__func()
FUNC a9f14 34 0 std::__ndk1::__function::__func<ObjectWorkshop::load()::$_0, std::__ndk1::allocator<ObjectWorkshop::load()::$_0>, void (geode::Task<geode::utils::web::WebResponse, geode::utils::web::WebProgress>::Event*)>::__clone() const
FUNC a9f48 14 0 std::__ndk1::__function::__func<ObjectWorkshop::load()::$_0, std::__ndk1::allocator<ObjectWorkshop::load()::$_0>, void (geode::Task<geode::utils::web::WebResponse, geode::utils::web::WebProgress>::Event*)>::__clone(std::__ndk1::__function::__base<void (geode::Task<geode::utils::web::WebResponse, geode::utils::web::WebProgress>::Event*)>*) const
FUNC a9f5c 4 0 std::__ndk1::__function::__func<ObjectWorkshop::load()::$_0, std::__ndk1::allocator<ObjectWorkshop::load()::$_0>, void (geode::Task<geode::utils::web::WebResponse, geode::utils::web::WebProgress>::Event*)>::destroy()
FUNC a9f60 4 0 std::__ndk1::__function::__func<ObjectWorkshop::load()::$_0, std::__ndk1::allocator<ObjectWorkshop::load()::$_0>, void (geode::Task<geode::utils::web::WebResponse, geode::utils::web::WebProgress>::Event*)>::destroy_deallocate()
FUNC a9f64 c 0 std::__ndk1::__function::__func<ObjectWorkshop::load()::$_0, std::__ndk1::allocator<ObjectWorkshop::load()::$_0>, void (geode::Task<geode::utils::web::WebResponse, geode::utils::web::WebProgress>::Event*)>::operator()(geode::Task<geode::utils::web::WebResponse, geode::utils::web::WebProgress>::Event*&&)
FUNC a9f70 1c 0 std::__ndk1::__function::__func<ObjectWorkshop::load()::$_0, std::__ndk1::allocator<ObjectWorkshop::load()::$_0>, void (geode::Task<geode::utils::web::WebResponse, geode::utils::web::WebProgress>::Event*)>::target(std::type_info const&) const
FUNC a9f8c c 0 std::__ndk1::__function::__func<ObjectWorkshop::load()::$_0, std::__ndk1::allocator<ObjectWorkshop::load()::$_0>, void (geode::Task<geode::utils::web::WebResponse, geode::utils::web::WebProgress>::Event*)>::target_type() const
FUNC a9f98 2ee8 0 ObjectWorkshop::load()::$_0::operator()(geode::Task<geode::utils::web::WebResponse, geode::utils::web::WebProgress>::Event*) const
FUNC ace80 e7c 0 matjson::Serialize<ObjectData>::fromJson(matjson::Value const&)
FUNC adcfc 74 0 geode::impl::ResultData<ReportData, std::__ndk1::basic_string<char, std::__ndk1::char_traits<char>, std::__ndk1::allocator<char> > >::~ResultData()
FUNC add70 74 0 geode::impl::ResultData<ObjectData, std::__ndk1::basic_string<char, std::__ndk1::char_traits<char>, std::__ndk1::allocator<char> > >::~ResultData()
FUNC adde4 dc 0 ObjectWorkshop::onReviewerInfoBtn(cocos2d::CCObject*)
FUNC adec0 dc 0 ObjectWorkshop::onAdminInfoBtn(cocos2d::CCObject*)
FUNC adf9c 74 0 geode::impl::ResultData<double, std::__ndk1::basic_string<char, std::__ndk1::char_traits<char>, std::__ndk1::allocator<char> > >::~ResultData()
FUNC ae010 24 0 ObjectWorkshop::onGoProfileBtn(cocos2d::CCObject*)
FUNC ae034 68 0 std::__ndk1::__split_buffer<ReportData, std::__ndk1::allocator<ReportData>&>::~__split_buffer()
FUNC ae09c 14 0 std::__ndk1::__variant_detail::__visitation::__base::__dispatcher<(unsigned long)0>::__dispatch[abi:ne180000]<std::__ndk1::__variant_detail::__dtor<std::__ndk1::__variant_detail::__traits<ReportData, std::__ndk1::basic_string<char, std::__ndk1::char_traits<char>, std::__ndk1::allocator<char> > >, (std::__ndk1::__variant_detail::_Trait)1>::__destroy[abi:ne180000]()::{lambda(auto:1&)#1}, std::__ndk1::__variant_detail::__base<(std::__ndk1::__variant_detail::__traits<ReportData, std::__ndk1::basic_string<char, std::__ndk1::char_traits<char>, std::__ndk1::allocator<char> > >)1, std::__ndk1::__variant_detail::__traits, std::__ndk1::allocator<char> >&>(std::__ndk1::__variant_detail::__dtor<std::__ndk1::__variant_detail::__traits<ReportData, std::__ndk1::basic_string<char, std::__ndk1::char_traits<char>, std::__ndk1::allocator<char> > >, (std::__ndk1::__variant_detail::_Trait)1>, std::__ndk1::__variant_detail::__base<(std::__ndk1::__variant_detail::__traits<ReportData, std::__ndk1::basic_string<char, std::__ndk1::char_traits<char>, std::__ndk1::allocator<char> > >)1, std::__ndk1::__variant_detail::__traits, std::__ndk1::allocator<char> >&)
FUNC ae0b0 14 0 std::__ndk1::__variant_detail::__visitation::__base::__dispatcher<(unsigned long)1>::__dispatch[abi:ne180000]<std::__ndk1::__variant_detail::__dtor<std::__ndk1::__variant_detail::__traits<ReportData, std::__ndk1::basic_string<char, std::__ndk1::char_traits<char>, std::__ndk1::allocator<char> > >, (std::__ndk1::__variant_detail::_Trait)1>::__destroy[abi:ne180000]()::{lambda(auto:1&)#1}, std::__ndk1::__variant_detail::__base<(std::__ndk1::__variant_detail::__traits<ReportData, std::__ndk1::basic_string<char, std::__ndk1::char_traits<char>, std::__ndk1::allocator<char> > >)1, std::__ndk1::__variant_detail::__traits, std::__ndk1::allocator<char> >&>(std::__ndk1::__variant_detail::__dtor<std::__ndk1::__variant_detail::__traits<ReportData, std::__ndk1::basic_string<char, std::__ndk1::char_traits<char>, std::__ndk1::allocator<char> > >, (std::__ndk1::__variant_detail::_Trait)1>, std::__ndk1::__variant_detail::__base<(std::__ndk1::__variant_detail::__traits<ReportData, std::__ndk1::basic_string<char, std::__ndk1::char_traits<char>, std::__ndk1::allocator<char> > >)1, std::__ndk1::__variant_detail::__traits, std::__ndk1::allocator<char> >&)
FUNC ae0c4 8 0 std::__ndk1::__variant_detail::__visitation::__base::__dispatcher<(unsigned long)0>::__dispatch[abi:ne180000]<std::__ndk1::__variant_detail::__dtor<std::__ndk1::__variant_detail::__traits<ObjectData, std::__ndk1::basic_string<char, std::__ndk1::char_traits<char>, std::__ndk1::allocator<char> > >, (std::__ndk1::__variant_detail::_Trait)1>::__destroy[abi:ne180000]()::{lambda(auto:1&)#1}, std::__ndk1::__variant_detail::__base<(std::__ndk1::__variant_detail::__traits<ObjectData, std::__ndk1::basic_string<char, std::__ndk1::char_traits<char>, std::__ndk1::allocator<char> > >)1, std::__ndk1::__variant_detail::__traits, std::__ndk1::allocator<char> >&>(std::__ndk1::__variant_detail::__dtor<std::__ndk1::__variant_detail::__traits<ObjectData, std::__ndk1::basic_string<char, std::__ndk1::char_traits<char>, std::__ndk1::allocator<char> > >, (std::__ndk1::__variant_detail::_Trait)1>, std::__ndk1::__variant_detail::__base<(std::__ndk1::__variant_detail::__traits<ObjectData, std::__ndk1::basic_string<char, std::__ndk1::char_traits<char>, std::__ndk1::allocator<char> > >)1, std::__ndk1::__variant_detail::__traits, std::__ndk1::allocator<char> >&)
FUNC ae0cc 14 0 std::__ndk1::__variant_detail::__visitation::__base::__dispatcher<(unsigned long)1>::__dispatch[abi:ne180000]<std::__ndk1::__variant_detail::__dtor<std::__ndk1::__variant_detail::__traits<ObjectData, std::__ndk1::basic_string<char, std::__ndk1::char_traits<char>, std::__ndk1::allocator<char> > >, (std::__ndk1::__variant_detail::_Trait)1>::__destroy[abi:ne180000]()::{lambda(auto:1&)#1}, std::__ndk1::__variant_detail::__base<(std::__ndk1::__variant_detail::__traits<ObjectData, std::__ndk1::basic_string<char, std::__ndk1::char_traits<char>, std::__ndk1::allocator<char> > >)1, std::__ndk1::__variant_detail::__traits, std::__ndk1::allocator<char> >&>(std::__ndk1::__variant_detail::__dtor<std::__ndk1::__variant_detail::__traits<ObjectData, std::__ndk1::basic_string<char, std::__ndk1::char_traits<char>, std::__ndk1::allocator<char> > >, (std::__ndk1::__variant_detail::_Trait)1>, std::__ndk1::__variant_detail::__base<(std::__ndk1::__variant_detail::__traits<ObjectData, std::__ndk1::basic_string<char, std::__ndk1::char_traits<char>, std::__ndk1::allocator<char> > >)1, std::__ndk1::__variant_detail::__traits, std::__ndk1::allocator<char> >&)
FUNC ae0e0 4 0 std::__ndk1::__variant_detail::__visitation::__base::__dispatcher<(unsigned long)0>::__dispatch[abi:ne180000]<std::__ndk1::__variant_detail::__dtor<std::__ndk1::__variant_detail::__traits<double, std::__ndk1::basic_string<char, std::__ndk1::char_traits<char>, std::__ndk1::allocator<char> > >, (std::__ndk1::__variant_detail::_Trait)1>::__destroy[abi:ne180000]()::{lambda(auto:1&)#1}, std::__ndk1::__variant_detail::__base<(std::__ndk1::__variant_detail::__traits<double, std::__ndk1::basic_string<char, std::__ndk1::char_traits<char>, std::__ndk1::allocator<char> > >)1, double, std::__ndk1::allocator<char> >&>(std::__ndk1::__variant_detail::__dtor<std::__ndk1::__variant_detail::__traits<double, std::__ndk1::basic_string<char, std::__ndk1::char_traits<char>, std::__ndk1::allocator<char> > >, (std::__ndk1::__variant_detail::_Trait)1>, std::__ndk1::__variant_detail::__base<(std::__ndk1::__variant_detail::__traits<double, std::__ndk1::basic_string<char, std::__ndk1::char_traits<char>, std::__ndk1::allocator<char> > >)1, double, std::__ndk1::allocator<char> >&)
FUNC ae0e4 14 0 std::__ndk1::__variant_detail::__visitation::__base::__dispatcher<(unsigned long)1>::__dispatch[abi:ne180000]<std::__ndk1::__variant_detail::__dtor<std::__ndk1::__variant_detail::__traits<double, std::__ndk1::basic_string<char, std::__ndk1::char_traits<char>, std::__ndk1::allocator<char> > >, (std::__ndk1::__variant_detail::_Trait)1>::__destroy[abi:ne180000]()::{lambda(auto:1&)#1}, std::__ndk1::__variant_detail::__base<(std::__ndk1::__variant_detail::__traits<double, std::__ndk1::basic_string<char, std::__ndk1::char_traits<char>, std::__ndk1::allocator<char> > >)1, double, std::__ndk1::allocator<char> >&>(std::__ndk1::__variant_detail::__dtor<std::__ndk1::__variant_detail::__traits<double, std::__ndk1::basic_string<char, std::__ndk1::char_traits<char>, std::__ndk1::allocator<char> > >, (std::__ndk1::__variant_detail::_Trait)1>, std::__ndk1::__variant_detail::__base<(std::__ndk1::__variant_detail::__traits<double, std::__ndk1::basic_string<char, std::__ndk1::char_traits<char>, std::__ndk1::allocator<char> > >)1, double, std::__ndk1::allocator<char> >&)
FUNC ae0f8 4 0 std::__ndk1::__function::__func<ObjectWorkshop::load()::$_1, std::__ndk1::allocator<ObjectWorkshop::load()::$_1>, void (geode::Task<geode::utils::web::WebResponse, geode::utils::web::WebProgress>::Event*)>::~__func()
FUNC ae0fc 34 0 std::__ndk1::__function::__func<ObjectWorkshop::load()::$_1, std::__ndk1::allocator<ObjectWorkshop::load()::$_1>, void (geode::Task<geode::utils::web::WebResponse, geode::utils::web::WebProgress>::Event*)>::__clone() const
FUNC ae130 14 0 std::__ndk1::__function::__func<ObjectWorkshop::load()::$_1, std::__ndk1::allocator<ObjectWorkshop::load()::$_1>, void (geode::Task<geode::utils::web::WebResponse, geode::utils::web::WebProgress>::Event*)>::__clone(std::__ndk1::__function::__base<void (geode::Task<geode::utils::web::WebResponse, geode::utils::web::WebProgress>::Event*)>*) const
FUNC ae144 4 0 std::__ndk1::__function::__func<ObjectWorkshop::load()::$_1, std::__ndk1::allocator<ObjectWorkshop::load()::$_1>, void (geode::Task<geode::utils::web::WebResponse, geode::utils::web::WebProgress>::Event*)>::destroy()
FUNC ae148 4 0 std::__ndk1::__function::__func<ObjectWorkshop::load()::$_1, std::__ndk1::allocator<ObjectWorkshop::load()::$_1>, void (geode::Task<geode::utils::web::WebResponse, geode::utils::web::WebProgress>::Event*)>::destroy_deallocate()
FUNC ae14c cac 0 std::__ndk1::__function::__func<ObjectWorkshop::load()::$_1, std::__ndk1::allocator<ObjectWorkshop::load()::$_1>, void (geode::Task<geode::utils::web::WebResponse, geode::utils::web::WebProgress>::Event*)>::operator()(geode::Task<geode::utils::web::WebResponse, geode::utils::web::WebProgress>::Event*&&)
FUNC aedf8 1c 0 std::__ndk1::__function::__func<ObjectWorkshop::load()::$_1, std::__ndk1::allocator<ObjectWorkshop::load()::$_1>, void (geode::Task<geode::utils::web::WebResponse, geode::utils::web::WebProgress>::Event*)>::target(std::type_info const&) const
FUNC aee14 c 0 std::__ndk1::__function::__func<ObjectWorkshop::load()::$_1, std::__ndk1::allocator<ObjectWorkshop::load()::$_1>, void (geode::Task<geode::utils::web::WebResponse, geode::utils::web::WebProgress>::Event*)>::target_type() const
FUNC aee20 d0 0 fmt::v11::detail::value<fmt::v11::context>::format_custom_arg<fmt::v11::join_view<std::__ndk1::__hash_const_iterator<std::__ndk1::__hash_node<std::__ndk1::basic_string<char, std::__ndk1::char_traits<char>, std::__ndk1::allocator<char> >, void*>*>, std::__ndk1::__hash_const_iterator<std::__ndk1::__hash_node<std::__ndk1::basic_string<char, std::__ndk1::char_traits<char>, std::__ndk1::allocator<char> >, void*>*>, char>, fmt::v11::formatter<fmt::v11::join_view<std::__ndk1::__hash_const_iterator<std::__ndk1::__hash_node<std::__ndk1::basic_string<char, std::__ndk1::char_traits<char>, std::__ndk1::allocator<char> >, void*>*>, std::__ndk1::__hash_const_iterator<std::__ndk1::__hash_node<std::__ndk1::basic_string<char, std::__ndk1::char_traits<char>, std::__ndk1::allocator<char> >, void*>*>, char>, char, void> >(void*, fmt::v11::basic_format_parse_context<char>&, fmt::v11::context&)
FUNC aeef0 320 0 fmt::v11::formatter<fmt::v11::join_view<std::__ndk1::__hash_const_iterator<std::__ndk1::__hash_node<std::__ndk1::basic_string<char, std::__ndk1::char_traits<char>, std::__ndk1::allocator<char> >, void*>*>, std::__ndk1::__hash_const_iterator<std::__ndk1::__hash_node<std::__ndk1::basic_string<char, std::__ndk1::char_traits<char>, std::__ndk1::allocator<char> >, void*>*>, char>, char, void>::format<fmt::v11::context>(fmt::v11::join_view<std::__ndk1::__hash_const_iterator<std::__ndk1::__hash_node<std::__ndk1::basic_string<char, std::__ndk1::char_traits<char>, std::__ndk1::allocator<char> >, void*>*>, std::__ndk1::__hash_const_iterator<std::__ndk1::__hash_node<std::__ndk1::basic_string<char, std::__ndk1::char_traits<char>, std::__ndk1::allocator<char> >, void*>*>, char> const&, fmt::v11::context&) const
FUNC af210 4 0 std::__ndk1::__function::__func<ObjectWorkshop::onUploadBtn(cocos2d::CCObject*)::$_0, std::__ndk1::allocator<ObjectWorkshop::onUploadBtn(cocos2d::CCObject*)::$_0>, void (std::__ndk1::basic_string<char, std::__ndk1::char_traits<char>, std::__ndk1::allocator<char> > const&)>::~__func()
FUNC af214 38 0 std::__ndk1::__function::__func<ObjectWorkshop::onUploadBtn(cocos2d::CCObject*)::$_0, std::__ndk1::allocator<ObjectWorkshop::onUploadBtn(cocos2d::CCObject*)::$_0>, void (std::__ndk1::basic_string<char, std::__ndk1::char_traits<char>, std::__ndk1::allocator<char> > const&)>::__clone() const
FUNC af24c 18 0 std::__ndk1::__function::__func<ObjectWorkshop::onUploadBtn(cocos2d::CCObject*)::$_0, std::__ndk1::allocator<ObjectWorkshop::onUploadBtn(cocos2d::CCObject*)::$_0>, void (std::__ndk1::basic_string<char, std::__ndk1::char_traits<char>, std::__ndk1::allocator<char> > const&)>::__clone(std::__ndk1::__function::__base<void (std::__ndk1::basic_string<char, std::__ndk1::char_traits<char>, std::__ndk1::allocator<char> > const&)>*) const
FUNC af264 4 0 std::__ndk1::__function::__func<ObjectWorkshop::onUploadBtn(cocos2d::CCObject*)::$_0, std::__ndk1::allocator<ObjectWorkshop::onUploadBtn(cocos2d::CCObject*)::$_0>, void (std::__ndk1::basic_string<char, std::__ndk1::char_traits<char>, std::__ndk1::allocator<char> > const&)>::destroy()
FUNC af268 4 0 std::__ndk1::__function::__func<ObjectWorkshop::onUploadBtn(cocos2d::CCObject*)::$_0, std::__ndk1::allocator<ObjectWorkshop::onUploadBtn(cocos2d::CCObject*)::$_0>, void (std::__ndk1::basic_string<char, std::__ndk1::char_traits<char>, std::__ndk1::allocator<char> > const&)>::destroy_deallocate()
FUNC af26c 21c 0 std::__ndk1::__function::__func<ObjectWorkshop::onUploadBtn(cocos2d::CCObject*)::$_0, std::__ndk1::allocator<ObjectWorkshop::onUploadBtn(cocos2d::CCObject*)::$_0>, void (std::__ndk1::basic_string<char, std::__ndk1::char_traits<char>, std::__ndk1::allocator<char> > const&)>::operator()(std::__ndk1::basic_string<char, std::__ndk1::char_traits<char>, std::__ndk1::allocator<char> > const&)
FUNC af488 1c 0 std::__ndk1::__function::__func<ObjectWorkshop::onUploadBtn(cocos2d::CCObject*)::$_0, std::__ndk1::allocator<ObjectWorkshop::onUploadBtn(cocos2d::CCObject*)::$_0>, void (std::__ndk1::basic_string<char, std::__ndk1::char_traits<char>, std::__ndk1::allocator<char> > const&)>::target(std::type_info const&) const
FUNC af4a4 c 0 std::__ndk1::__function::__func<ObjectWorkshop::onUploadBtn(cocos2d::CCObject*)::$_0, std::__ndk1::allocator<ObjectWorkshop::onUploadBtn(cocos2d::CCObject*)::$_0>, void (std::__ndk1::basic_string<char, std::__ndk1::char_traits<char>, std::__ndk1::allocator<char> > const&)>::target_type() const
FUNC af4b0 4 0 std::__ndk1::__function::__func<ObjectWorkshop::onUploadBtn(cocos2d::CCObject*)::$_1, std::__ndk1::allocator<ObjectWorkshop::onUploadBtn(cocos2d::CCObject*)::$_1>, void ()>::~__func()
FUNC af4b4 38 0 std::__ndk1::__function::__func<ObjectWorkshop::onUploadBtn(cocos2d::CCObject*)::$_1, std::__ndk1::allocator<ObjectWorkshop::onUploadBtn(cocos2d::CCObject*)::$_1>, void ()>::__clone() const
FUNC af4ec 18 0 std::__ndk1::__function::__func<ObjectWorkshop::onUploadBtn(cocos2d::CCObject*)::$_1, std::__ndk1::allocator<ObjectWorkshop::onUploadBtn(cocos2d::CCObject*)::$_1>, void ()>::__clone(std::__ndk1::__function::__base<void ()>*) const
FUNC af504 4 0 std::__ndk1::__function::__func<ObjectWorkshop::onUploadBtn(cocos2d::CCObject*)::$_1, std::__ndk1::allocator<ObjectWorkshop::onUploadBtn(cocos2d::CCObject*)::$_1>, void ()>::destroy()
FUNC af508 4 0 std::__ndk1::__function::__func<ObjectWorkshop::onUploadBtn(cocos2d::CCObject*)::$_1, std::__ndk1::allocator<ObjectWorkshop::onUploadBtn(cocos2d::CCObject*)::$_1>, void ()>::destroy_deallocate()
FUNC af50c 174 0 std::__ndk1::__function::__func<ObjectWorkshop::onUploadBtn(cocos2d::CCObject*)::$_1, std::__ndk1::allocator<ObjectWorkshop::onUploadBtn(cocos2d::CCObject*)::$_1>, void ()>::operator()()
FUNC af680 1c 0 std::__ndk1::__function::__func<ObjectWorkshop::onUploadBtn(cocos2d::CCObject*)::$_1, std::__ndk1::allocator<ObjectWorkshop::onUploadBtn(cocos2d::CCObject*)::$_1>, void ()>::target(std::type_info const&) const
FUNC af69c c 0 std::__ndk1::__function::__func<ObjectWorkshop::onUploadBtn(cocos2d::CCObject*)::$_1, std::__ndk1::allocator<ObjectWorkshop::onUploadBtn(cocos2d::CCObject*)::$_1>, void ()>::target_type() const
FUNC af6a8 4 0 std::__ndk1::__function::__func<ObjectWorkshop::onUploadBtn(cocos2d::CCObject*)::$_2, std::__ndk1::allocator<ObjectWorkshop::onUploadBtn(cocos2d::CCObject*)::$_2>, void ()>::~__func()
FUNC af6ac 40 0 std::__ndk1::__function::__func<ObjectWorkshop::onUploadBtn(cocos2d::CCObject*)::$_2, std::__ndk1::allocator<ObjectWorkshop::onUploadBtn(cocos2d::CCObject*)::$_2>, void ()>::__clone() const
FUNC af6ec 20 0 std::__ndk1::__function::__func<ObjectWorkshop::onUploadBtn(cocos2d::CCObject*)::$_2, std::__ndk1::allocator<ObjectWorkshop::onUploadBtn(cocos2d::CCObject*)::$_2>, void ()>::__clone(std::__ndk1::__function::__base<void ()>*) const
FUNC af70c 4 0 std::__ndk1::__function::__func<ObjectWorkshop::onUploadBtn(cocos2d::CCObject*)::$_2, std::__ndk1::allocator<ObjectWorkshop::onUploadBtn(cocos2d::CCObject*)::$_2>, void ()>::destroy()
FUNC af710 4 0 std::__ndk1::__function::__func<ObjectWorkshop::onUploadBtn(cocos2d::CCObject*)::$_2, std::__ndk1::allocator<ObjectWorkshop::onUploadBtn(cocos2d::CCObject*)::$_2>, void ()>::destroy_deallocate()
FUNC af714 260 0 std::__ndk1::__function::__func<ObjectWorkshop::onUploadBtn(cocos2d::CCObject*)::$_2, std::__ndk1::allocator<ObjectWorkshop::onUploadBtn(cocos2d::CCObject*)::$_2>, void ()>::operator()()
FUNC af974 1c 0 std::__ndk1::__function::__func<ObjectWorkshop::onUploadBtn(cocos2d::CCObject*)::$_2, std::__ndk1::allocator<ObjectWorkshop::onUploadBtn(cocos2d::CCObject*)::$_2>, void ()>::target(std::type_info const&) const
FUNC af990 c 0 std::__ndk1::__function::__func<ObjectWorkshop::onUploadBtn(cocos2d::CCObject*)::$_2, std::__ndk1::allocator<ObjectWorkshop::onUploadBtn(cocos2d::CCObject*)::$_2>, void ()>::target_type() const
FUNC af99c 4 0 std::__ndk1::__function::__func<ObjectWorkshop::onFilterBtn(cocos2d::CCObject*)::$_0, std::__ndk1::allocator<ObjectWorkshop::onFilterBtn(cocos2d::CCObject*)::$_0>, void (std::__ndk1::unordered_set<std::__ndk1::basic_string<char, std::__ndk1::char_traits<char>, std::__ndk1::allocator<char> >, std::__ndk1::hash<std::__ndk1::basic_string<char, std::__ndk1::char_traits<char>, std::__ndk1::allocator<char> > >, std::__ndk1::equal_to<std::__ndk1::basic_string<char, std::__ndk1::char_traits<char>, std::__ndk1::allocator<char> > >, std::__ndk1::allocator<std::__ndk1::basic_string<char, std::__ndk1::char_traits<char>, std::__ndk1::allocator<char> > > >)>::~__func()
FUNC af9a0 34 0 std::__ndk1::__function::__func<ObjectWorkshop::onFilterBtn(cocos2d::CCObject*)::$_0, std::__ndk1::allocator<ObjectWorkshop::onFilterBtn(cocos2d::CCObject*)::$_0>, void (std::__ndk1::unordered_set<std::__ndk1::basic_string<char, std::__ndk1::char_traits<char>, std::__ndk1::allocator<char> >, std::__ndk1::hash<std::__ndk1::basic_string<char, std::__ndk1::char_traits<char>, std::__ndk1::allocator<char> > >, std::__ndk1::equal_to<std::__ndk1::basic_string<char, std::__ndk1::char_traits<char>, std::__ndk1::allocator<char> > >, std::__ndk1::allocator<std::__ndk1::basic_string<char, std::__ndk1::char_traits<char>, std::__ndk1::allocator<char> > > >)>::__clone() const
FUNC af9d4 14 0 std::__ndk1::__function::__func<ObjectWorkshop::onFilterBtn(cocos2d::CCObject*)::$_0, std::__ndk1::allocator<ObjectWorkshop::onFilterBtn(cocos2d::CCObject*)::$_0>, void (std::__ndk1::unordered_set<std::__ndk1::basic_string<char, std::__ndk1::char_traits<char>, std::__ndk1::allocator<char> >, std::__ndk1::hash<std::__ndk1::basic_string<char, std::__ndk1::char_traits<char>, std::__ndk1::allocator<char> > >, std::__ndk1::equal_to<std::__ndk1::basic_string<char, std::__ndk1::char_traits<char>, std::__ndk1::allocator<char> > >, std::__ndk1::allocator<std::__ndk1::basic_string<char, std::__ndk1::char_traits<char>, std::__ndk1::allocator<char> > > >)>::__clone(std::__ndk1::__function::__base<void (std::__ndk1::unordered_set<std::__ndk1::basic_string<char, std::__ndk1::char_traits<char>, std::__ndk1::allocator<char> >, std::__ndk1::hash<std::__ndk1::basic_string<char, std::__ndk1::char_traits<char>, std::__ndk1::allocator<char> > >, std::__ndk1::equal_to<std::__ndk1::basic_string<char, std::__ndk1::char_traits<char>, std::__ndk1::allocator<char> > >, std::__ndk1::allocator<std::__ndk1::basic_string<char, std::__ndk1::char_traits<char>, std::__ndk1::allocator<char> > > >)>*) const
FUNC af9e8 4 0 std::__ndk1::__function::__func<ObjectWorkshop::onFilterBtn(cocos2d::CCObject*)::$_0, std::__ndk1::allocator<ObjectWorkshop::onFilterBtn(cocos2d::CCObject*)::$_0>, void (std::__ndk1::unordered_set<std::__ndk1::basic_string<char, std::__ndk1::char_traits<char>, std::__ndk1::allocator<char> >, std::__ndk1::hash<std::__ndk1::basic_string<char, std::__ndk1::char_traits<char>, std::__ndk1::allocator<char> > >, std::__ndk1::equal_to<std::__ndk1::basic_string<char, std::__ndk1::char_traits<char>, std::__ndk1::allocator<char> > >, std::__ndk1::allocator<std::__ndk1::basic_string<char, std::__ndk1::char_traits<char>, std::__ndk1::allocator<char> > > >)>::destroy()
FUNC af9ec 4 0 std::__ndk1::__function::__func<ObjectWorkshop::onFilterBtn(cocos2d::CCObject*)::$_0, std::__ndk1::allocator<ObjectWorkshop::onFilterBtn(cocos2d::CCObject*)::$_0>, void (std::__ndk1::unordered_set<std::__ndk1::basic_string<char, std::__ndk1::char_traits<char>, std::__ndk1::allocator<char> >, std::__ndk1::hash<std::__ndk1::basic_string<char, std::__ndk1::char_traits<char>, std::__ndk1::allocator<char> > >, std::__ndk1::equal_to<std::__ndk1::basic_string<char, std::__ndk1::char_traits<char>, std::__ndk1::allocator<char> > >, std::__ndk1::allocator<std::__ndk1::basic_string<char, std::__ndk1::char_traits<char>, std::__ndk1::allocator<char> > > >)>::destroy_deallocate()
FUNC af9f0 238 0 std::__ndk1::__function::__func<ObjectWorkshop::onFilterBtn(cocos2d::CCObject*)::$_0, std::__ndk1::allocator<ObjectWorkshop::onFilterBtn(cocos2d::CCObject*)::$_0>, void (std::__ndk1::unordered_set<std::__ndk1::basic_string<char, std::__ndk1::char_traits<char>, std::__ndk1::allocator<char> >, std::__ndk1::hash<std::__ndk1::basic_string<char, std::__ndk1::char_traits<char>, std::__ndk1::allocator<char> > >, std::__ndk1::equal_to<std::__ndk1::basic_string<char, std::__ndk1::char_traits<char>, std::__ndk1::allocator<char> > >, std::__ndk1::allocator<std::__ndk1::basic_string<char, std::__ndk1::char_traits<char>, std::__ndk1::allocator<char> > > >)>::operator()(std::__ndk1::unordered_set<std::__ndk1::basic_string<char, std::__ndk1::char_traits<char>, std::__ndk1::allocator<char> >, std::__ndk1::hash<std::__ndk1::basic_string<char, std::__ndk1::char_traits<char>, std::__ndk1::allocator<char> > >, std::__ndk1::equal_to<std::__ndk1::basic_string<char, std::__ndk1::char_traits<char>, std::__ndk1::allocator<char> > >, std::__ndk1::allocator<std::__ndk1::basic_string<char, std::__ndk1::char_traits<char>, std::__ndk1::allocator<char> > > >&&)
FUNC afc28 1c 0 std::__ndk1::__function::__func<ObjectWorkshop::onFilterBtn(cocos2d::CCObject*)::$_0, std::__ndk1::allocator<ObjectWorkshop::onFilterBtn(cocos2d::CCObject*)::$_0>, void (std::__ndk1::unordered_set<std::__ndk1::basic_string<char, std::__ndk1::char_traits<char>, std::__ndk1::allocator<char> >, std::__ndk1::hash<std::__ndk1::basic_string<char, std::__ndk1::char_traits<char>, std::__ndk1::allocator<char> > >, std::__ndk1::equal_to<std::__ndk1::basic_string<char, std::__ndk1::char_traits<char>, std::__ndk1::allocator<char> > >, std::__ndk1::allocator<std::__ndk1::basic_string<char, std::__ndk1::char_traits<char>, std::__ndk1::allocator<char> > > >)>::target(std::type_info const&) const
FUNC afc44 c 0 std::__ndk1::__function::__func<ObjectWorkshop::onFilterBtn(cocos2d::CCObject*)::$_0, std::__ndk1::allocator<ObjectWorkshop::onFilterBtn(cocos2d::CCObject*)::$_0>, void (std::__ndk1::unordered_set<std::__ndk1::basic_string<char, std::__ndk1::char_traits<char>, std::__ndk1::allocator<char> >, std::__ndk1::hash<std::__ndk1::basic_string<char, std::__ndk1::char_traits<char>, std::__ndk1::allocator<char> > >, std::__ndk1::equal_to<std::__ndk1::basic_string<char, std::__ndk1::char_traits<char>, std::__ndk1::allocator<char> > >, std::__ndk1::allocator<std::__ndk1::basic_string<char, std::__ndk1::char_traits<char>, std::__ndk1::allocator<char> > > >)>::target_type() const
FUNC afc50 1bc 0 std::__ndk1::__hash_table<std::__ndk1::basic_string<char, std::__ndk1::char_traits<char>, std::__ndk1::allocator<char> >, std::__ndk1::hash<std::__ndk1::basic_string<char, std::__ndk1::char_traits<char>, std::__ndk1::allocator<char> > >, std::__ndk1::equal_to<std::__ndk1::basic_string<char, std::__ndk1::char_traits<char>, std::__ndk1::allocator<char> > >, std::__ndk1::allocator<std::__ndk1::basic_string<char, std::__ndk1::char_traits<char>, std::__ndk1::allocator<char> > > >::find<std::__ndk1::basic_string<char, std::__ndk1::char_traits<char>, std::__ndk1::allocator<char> > >(std::__ndk1::basic_string<char, std::__ndk1::char_traits<char>, std::__ndk1::allocator<char> > const&) const
FUNC afe0c 4 0 std::__ndk1::__function::__base<void (std::__ndk1::unordered_set<std::__ndk1::basic_string<char, std::__ndk1::char_traits<char>, std::__ndk1::allocator<char> >, std::__ndk1::hash<std::__ndk1::basic_string<char, std::__ndk1::char_traits<char>, std::__ndk1::allocator<char> > >, std::__ndk1::equal_to<std::__ndk1::basic_string<char, std::__ndk1::char_traits<char>, std::__ndk1::allocator<char> > >, std::__ndk1::allocator<std::__ndk1::basic_string<char, std::__ndk1::char_traits<char>, std::__ndk1::allocator<char> > > >)>::~__base()
FUNC afe10 4 0 std::__ndk1::__function::__func<ObjectWorkshop::onUploadFilterBtn(cocos2d::CCObject*)::$_0, std::__ndk1::allocator<ObjectWorkshop::onUploadFilterBtn(cocos2d::CCObject*)::$_0>, void (std::__ndk1::unordered_set<std::__ndk1::basic_string<char, std::__ndk1::char_traits<char>, std::__ndk1::allocator<char> >, std::__ndk1::hash<std::__ndk1::basic_string<char, std::__ndk1::char_traits<char>, std::__ndk1::allocator<char> > >, std::__ndk1::equal_to<std::__ndk1::basic_string<char, std::__ndk1::char_traits<char>, std::__ndk1::allocator<char> > >, std::__ndk1::allocator<std::__ndk1::basic_string<char, std::__ndk1::char_traits<char>, std::__ndk1::allocator<char> > > >)>::~__func()
FUNC afe14 34 0 std::__ndk1::__function::__func<ObjectWorkshop::onUploadFilterBtn(cocos2d::CCObject*)::$_0, std::__ndk1::allocator<ObjectWorkshop::onUploadFilterBtn(cocos2d::CCObject*)::$_0>, void (std::__ndk1::unordered_set<std::__ndk1::basic_string<char, std::__ndk1::char_traits<char>, std::__ndk1::allocator<char> >, std::__ndk1::hash<std::__ndk1::basic_string<char, std::__ndk1::char_traits<char>, std::__ndk1::allocator<char> > >, std::__ndk1::equal_to<std::__ndk1::basic_string<char, std::__ndk1::char_traits<char>, std::__ndk1::allocator<char> > >, std::__ndk1::allocator<std::__ndk1::basic_string<char, std::__ndk1::char_traits<char>, std::__ndk1::allocator<char> > > >)>::__clone() const
FUNC afe48 14 0 std::__ndk1::__function::__func<ObjectWorkshop::onUploadFilterBtn(cocos2d::CCObject*)::$_0, std::__ndk1::allocator<ObjectWorkshop::onUploadFilterBtn(cocos2d::CCObject*)::$_0>, void (std::__ndk1::unordered_set<std::__ndk1::basic_string<char, std::__ndk1::char_traits<char>, std::__ndk1::allocator<char> >, std::__ndk1::hash<std::__ndk1::basic_string<char, std::__ndk1::char_traits<char>, std::__ndk1::allocator<char> > >, std::__ndk1::equal_to<std::__ndk1::basic_string<char, std::__ndk1::char_traits<char>, std::__ndk1::allocator<char> > >, std::__ndk1::allocator<std::__ndk1::basic_string<char, std::__ndk1::char_traits<char>, std::__ndk1::allocator<char> > > >)>::__clone(std::__ndk1::__function::__base<void (std::__ndk1::unordered_set<std::__ndk1::basic_string<char, std::__ndk1::char_traits<char>, std::__ndk1::allocator<char> >, std::__ndk1::hash<std::__ndk1::basic_string<char, std::__ndk1::char_traits<char>, std::__ndk1::allocator<char> > >, std::__ndk1::equal_to<std::__ndk1::basic_string<char, std::__ndk1::char_traits<char>, std::__ndk1::allocator<char> > >, std::__ndk1::allocator<std::__ndk1::basic_string<char, std::__ndk1::char_traits<char>, std::__ndk1::allocator<char> > > >)>*) const
FUNC afe5c 4 0 std::__ndk1::__function::__func<ObjectWorkshop::onUploadFilterBtn(cocos2d::CCObject*)::$_0, std::__ndk1::allocator<ObjectWorkshop::onUploadFilterBtn(cocos2d::CCObject*)::$_0>, void (std::__ndk1::unordered_set<std::__ndk1::basic_string<char, std::__ndk1::char_traits<char>, std::__ndk1::allocator<char> >, std::__ndk1::hash<std::__ndk1::basic_string<char, std::__ndk1::char_traits<char>, std::__ndk1::allocator<char> > >, std::__ndk1::equal_to<std::__ndk1::basic_string<char, std::__ndk1::char_traits<char>, std::__ndk1::allocator<char> > >, std::__ndk1::allocator<std::__ndk1::basic_string<char, std::__ndk1::char_traits<char>, std::__ndk1::allocator<char> > > >)>::destroy()
FUNC afe60 4 0 std::__ndk1::__function::__func<ObjectWorkshop::onUploadFilterBtn(cocos2d::CCObject*)::$_0, std::__ndk1::allocator<ObjectWorkshop::onUploadFilterBtn(cocos2d::CCObject*)::$_0>, void (std::__ndk1::unordered_set<std::__ndk1::basic_string<char, std::__ndk1::char_traits<char>, std::__ndk1::allocator<char> >, std::__ndk1::hash<std::__ndk1::basic_string<char, std::__ndk1::char_traits<char>, std::__ndk1::allocator<char> > >, std::__ndk1::equal_to<std::__ndk1::basic_string<char, std::__ndk1::char_traits<char>, std::__ndk1::allocator<char> > >, std::__ndk1::allocator<std::__ndk1::basic_string<char, std::__ndk1::char_traits<char>, std::__ndk1::allocator<char> > > >)>::destroy_deallocate()
FUNC afe64 12c 0 std::__ndk1::__function::__func<ObjectWorkshop::onUploadFilterBtn(cocos2d::CCObject*)::$_0, std::__ndk1::allocator<ObjectWorkshop::onUploadFilterBtn(cocos2d::CCObject*)::$_0>, void (std::__ndk1::unordered_set<std::__ndk1::basic_string<char, std::__ndk1::char_traits<char>, std::__ndk1::allocator<char> >, std::__ndk1::hash<std::__ndk1::basic_string<char, std::__ndk1::char_traits<char>, std::__ndk1::allocator<char> > >, std::__ndk1::equal_to<std::__ndk1::basic_string<char, std::__ndk1::char_traits<char>, std::__ndk1::allocator<char> > >, std::__ndk1::allocator<std::__ndk1::basic_string<char, std::__ndk1::char_traits<char>, std::__ndk1::allocator<char> > > >)>::operator()(std::__ndk1::unordered_set<std::__ndk1::basic_string<char, std::__ndk1::char_traits<char>, std::__ndk1::allocator<char> >, std::__ndk1::hash<std::__ndk1::basic_string<char, std::__ndk1::char_traits<char>, std::__ndk1::allocator<char> > >, std::__ndk1::equal_to<std::__ndk1::basic_string<char, std::__ndk1::char_traits<char>, std::__ndk1::allocator<char> > >, std::__ndk1::allocator<std::__ndk1::basic_string<char, std::__ndk1::char_traits<char>, std::__ndk1::allocator<char> > > >&&)
FUNC aff90 1c 0 std::__ndk1::__function::__func<ObjectWorkshop::onUploadFilterBtn(cocos2d::CCObject*)::$_0, std::__ndk1::allocator<ObjectWorkshop::onUploadFilterBtn(cocos2d::CCObject*)::$_0>, void (std::__ndk1::unordered_set<std::__ndk1::basic_string<char, std::__ndk1::char_traits<char>, std::__ndk1::allocator<char> >, std::__ndk1::hash<std::__ndk1::basic_string<char, std::__ndk1::char_traits<char>, std::__ndk1::allocator<char> > >, std::__ndk1::equal_to<std::__ndk1::basic_string<char, std::__ndk1::char_traits<char>, std::__ndk1::allocator<char> > >, std::__ndk1::allocator<std::__ndk1::basic_string<char, std::__ndk1::char_traits<char>, std::__ndk1::allocator<char> > > >)>::target(std::type_info const&) const
FUNC affac c 0 std::__ndk1::__function::__func<ObjectWorkshop::onUploadFilterBtn(cocos2d::CCObject*)::$_0, std::__ndk1::allocator<ObjectWorkshop::onUploadFilterBtn(cocos2d::CCObject*)::$_0>, void (std::__ndk1::unordered_set<std::__ndk1::basic_string<char, std::__ndk1::char_traits<char>, std::__ndk1::allocator<char> >, std::__ndk1::hash<std::__ndk1::basic_string<char, std::__ndk1::char_traits<char>, std::__ndk1::allocator<char> > >, std::__ndk1::equal_to<std::__ndk1::basic_string<char, std::__ndk1::char_traits<char>, std::__ndk1::allocator<char> > >, std::__ndk1::allocator<std::__ndk1::basic_string<char, std::__ndk1::char_traits<char>, std::__ndk1::allocator<char> > > >)>::target_type() const
FUNC affb8 4 0 std::__ndk1::__function::__func<ObjectWorkshop::onUpload(cocos2d::CCObject*)::$_0, std::__ndk1::allocator<ObjectWorkshop::onUpload(cocos2d::CCObject*)::$_0>, void (geode::Task<geode::utils::web::WebResponse, geode::utils::web::WebProgress>::Event*)>::~__func()
FUNC affbc 34 0 std::__ndk1::__function::__func<ObjectWorkshop::onUpload(cocos2d::CCObject*)::$_0, std::__ndk1::allocator<ObjectWorkshop::onUpload(cocos2d::CCObject*)::$_0>, void (geode::Task<geode::utils::web::WebResponse, geode::utils::web::WebProgress>::Event*)>::__clone() const
FUNC afff0 14 0 std::__ndk1::__function::__func<ObjectWorkshop::onUpload(cocos2d::CCObject*)::$_0, std::__ndk1::allocator<ObjectWorkshop::onUpload(cocos2d::CCObject*)::$_0>, void (geode::Task<geode::utils::web::WebResponse, geode::utils::web::WebProgress>::Event*)>::__clone(std::__ndk1::__function::__base<void (geode::Task<geode::utils::web::WebResponse, geode::utils::web::WebProgress>::Event*)>*) const
FUNC b0004 4 0 std::__ndk1::__function::__func<ObjectWorkshop::onUpload(cocos2d::CCObject*)::$_0, std::__ndk1::allocator<ObjectWorkshop::onUpload(cocos2d::CCObject*)::$_0>, void (geode::Task<geode::utils::web::WebResponse, geode::utils::web::WebProgress>::Event*)>::destroy()
FUNC b0008 4 0 std::__ndk1::__function::__func<ObjectWorkshop::onUpload(cocos2d::CCObject*)::$_0, std::__ndk1::allocator<ObjectWorkshop::onUpload(cocos2d::CCObject*)::$_0>, void (geode::Task<geode::utils::web::WebResponse, geode::utils::web::WebProgress>::Event*)>::destroy_deallocate()
FUNC b000c 250 0 std::__ndk1::__function::__func<ObjectWorkshop::onUpload(cocos2d::CCObject*)::$_0, std::__ndk1::allocator<ObjectWorkshop::onUpload(cocos2d::CCObject*)::$_0>, void (geode::Task<geode::utils::web::WebResponse, geode::utils::web::WebProgress>::Event*)>::operator()(geode::Task<geode::utils::web::WebResponse, geode::utils::web::WebProgress>::Event*&&)
FUNC b025c 1c 0 std::__ndk1::__function::__func<ObjectWorkshop::onUpload(cocos2d::CCObject*)::$_0, std::__ndk1::allocator<ObjectWorkshop::onUpload(cocos2d::CCObject*)::$_0>, void (geode::Task<geode::utils::web::WebResponse, geode::utils::web::WebProgress>::Event*)>::target(std::type_info const&) const
FUNC b0278 c 0 std::__ndk1::__function::__func<ObjectWorkshop::onUpload(cocos2d::CCObject*)::$_0, std::__ndk1::allocator<ObjectWorkshop::onUpload(cocos2d::CCObject*)::$_0>, void (geode::Task<geode::utils::web::WebResponse, geode::utils::web::WebProgress>::Event*)>::target_type() const
FUNC b0284 13c 0 _ZN7matjson9SerializeINSt6__ndk113unordered_setINS1_12basic_stringIcNS1_11char_traitsIcEENS1_9allocatorIcEEEENS1_4hashIS8_EENS1_8equal_toIS8_EENS6_IS8_EEEEE6toJsonERKSE_QrQRKT__XcvNS_5ValueEfp_E
FUNC b03c0 e0 0 std::__ndk1::vector<matjson::Value, std::__ndk1::allocator<matjson::Value> >::reserve(unsigned long)
FUNC b04a0 134 0 _ZNSt6__ndk19transformB8ne180000INS_21__hash_const_iteratorIPNS_11__hash_nodeINS_12basic_stringIcNS_11char_traitsIcEENS_9allocatorIcEEEEPvEEEENS_20back_insert_iteratorINS_6vectorIN7matjson5ValueENS6_ISG_EEEEEEZNSF_9SerializeINS_13unordered_setIS8_NS_4hashIS8_EENS_8equal_toIS8_EENS6_IS8_EEEEE6toJsonERKSR_QrQRKT__XcvSG_fL0p_EEUlRKS8_E_EET0_SV_SV_S11_T1_
FUNC b05d4 11c 0 std::__ndk1::vector<matjson::Value, std::__ndk1::allocator<matjson::Value> >::__push_back_slow_path<matjson::Value>(matjson::Value&&)
FUNC b06f0 4c8 0 AdminPopup::setup(UserData, UserData)
FUNC b0bb8 224 0 AdminPopup::~AdminPopup()
FUNC b0ddc 24 0 AdminPopup::~AdminPopup()
FUNC b0e00 8 0 {virtual override thunk({offset(-320)}, AdminPopup::~AdminPopup())}
FUNC b0e08 28 0 {virtual override thunk({offset(-320)}, AdminPopup::~AdminPopup())}
FUNC b0e30 4 0 std::__ndk1::__function::__func<AdminPopup::setup(UserData, UserData)::$_0, std::__ndk1::allocator<AdminPopup::setup(UserData, UserData)::$_0>, void (CCMenuItemSpriteExtra*)>::~__func()
FUNC b0e34 34 0 std::__ndk1::__function::__func<AdminPopup::setup(UserData, UserData)::$_0, std::__ndk1::allocator<AdminPopup::setup(UserData, UserData)::$_0>, void (CCMenuItemSpriteExtra*)>::__clone() const
FUNC b0e68 14 0 std::__ndk1::__function::__func<AdminPopup::setup(UserData, UserData)::$_0, std::__ndk1::allocator<AdminPopup::setup(UserData, UserData)::$_0>, void (CCMenuItemSpriteExtra*)>::__clone(std::__ndk1::__function::__base<void (CCMenuItemSpriteExtra*)>*) const
FUNC b0e7c 4 0 std::__ndk1::__function::__func<AdminPopup::setup(UserData, UserData)::$_0, std::__ndk1::allocator<AdminPopup::setup(UserData, UserData)::$_0>, void (CCMenuItemSpriteExtra*)>::destroy()
FUNC b0e80 4 0 std::__ndk1::__function::__func<AdminPopup::setup(UserData, UserData)::$_0, std::__ndk1::allocator<AdminPopup::setup(UserData, UserData)::$_0>, void (CCMenuItemSpriteExtra*)>::destroy_deallocate()
FUNC b0e84 b34 0 std::__ndk1::__function::__func<AdminPopup::setup(UserData, UserData)::$_0, std::__ndk1::allocator<AdminPopup::setup(UserData, UserData)::$_0>, void (CCMenuItemSpriteExtra*)>::operator()(CCMenuItemSpriteExtra*&&)
FUNC b19b8 1c 0 std::__ndk1::__function::__func<AdminPopup::setup(UserData, UserData)::$_0, std::__ndk1::allocator<AdminPopup::setup(UserData, UserData)::$_0>, void (CCMenuItemSpriteExtra*)>::target(std::type_info const&) const
FUNC b19d4 c 0 std::__ndk1::__function::__func<AdminPopup::setup(UserData, UserData)::$_0, std::__ndk1::allocator<AdminPopup::setup(UserData, UserData)::$_0>, void (CCMenuItemSpriteExtra*)>::target_type() const
FUNC b19e0 4 0 std::__ndk1::__function::__func<AdminPopup::setup(UserData, UserData)::$_0::operator()(cocos2d::CCObject*) const::{lambda(int)#1}, std::__ndk1::allocator<AdminPopup::setup(UserData, UserData)::$_0::operator()(cocos2d::CCObject*) const::{lambda(int)#1}>, void (int)>::~__func()
FUNC b19e4 38 0 std::__ndk1::__function::__func<AdminPopup::setup(UserData, UserData)::$_0::operator()(cocos2d::CCObject*) const::{lambda(int)#1}, std::__ndk1::allocator<AdminPopup::setup(UserData, UserData)::$_0::operator()(cocos2d::CCObject*) const::{lambda(int)#1}>, void (int)>::__clone() const
FUNC b1a1c 18 0 std::__ndk1::__function::__func<AdminPopup::setup(UserData, UserData)::$_0::operator()(cocos2d::CCObject*) const::{lambda(int)#1}, std::__ndk1::allocator<AdminPopup::setup(UserData, UserData)::$_0::operator()(cocos2d::CCObject*) const::{lambda(int)#1}>, void (int)>::__clone(std::__ndk1::__function::__base<void (int)>*) const
FUNC b1a34 4 0 std::__ndk1::__function::__func<AdminPopup::setup(UserData, UserData)::$_0::operator()(cocos2d::CCObject*) const::{lambda(int)#1}, std::__ndk1::allocator<AdminPopup::setup(UserData, UserData)::$_0::operator()(cocos2d::CCObject*) const::{lambda(int)#1}>, void (int)>::destroy()
FUNC b1a38 4 0 std::__ndk1::__function::__func<AdminPopup::setup(UserData, UserData)::$_0::operator()(cocos2d::CCObject*) const::{lambda(int)#1}, std::__ndk1::allocator<AdminPopup::setup(UserData, UserData)::$_0::operator()(cocos2d::CCObject*) const::{lambda(int)#1}>, void (int)>::destroy_deallocate()
FUNC b1a3c 174 0 std::__ndk1::__function::__func<AdminPopup::setup(UserData, UserData)::$_0::operator()(cocos2d::CCObject*) const::{lambda(int)#1}, std::__ndk1::allocator<AdminPopup::setup(UserData, UserData)::$_0::operator()(cocos2d::CCObject*) const::{lambda(int)#1}>, void (int)>::operator()(int&&)
FUNC b1bb0 1c 0 std::__ndk1::__function::__func<AdminPopup::setup(UserData, UserData)::$_0::operator()(cocos2d::CCObject*) const::{lambda(int)#1}, std::__ndk1::allocator<AdminPopup::setup(UserData, UserData)::$_0::operator()(cocos2d::CCObject*) const::{lambda(int)#1}>, void (int)>::target(std::type_info const&) const
FUNC b1bcc c 0 std::__ndk1::__function::__func<AdminPopup::setup(UserData, UserData)::$_0::operator()(cocos2d::CCObject*) const::{lambda(int)#1}, std::__ndk1::allocator<AdminPopup::setup(UserData, UserData)::$_0::operator()(cocos2d::CCObject*) const::{lambda(int)#1}>, void (int)>::target_type() const
FUNC b1bd8 4 0 std::__ndk1::__function::__func<AdminPopup::setup(UserData, UserData)::$_1, std::__ndk1::allocator<AdminPopup::setup(UserData, UserData)::$_1>, void (CCMenuItemSpriteExtra*)>::~__func()
FUNC b1bdc 34 0 std::__ndk1::__function::__func<AdminPopup::setup(UserData, UserData)::$_1, std::__ndk1::allocator<AdminPopup::setup(UserData, UserData)::$_1>, void (CCMenuItemSpriteExtra*)>::__clone() const
FUNC b1c10 14 0 std::__ndk1::__function::__func<AdminPopup::setup(UserData, UserData)::$_1, std::__ndk1::allocator<AdminPopup::setup(UserData, UserData)::$_1>, void (CCMenuItemSpriteExtra*)>::__clone(std::__ndk1::__function::__base<void (CCMenuItemSpriteExtra*)>*) const
FUNC b1c24 4 0 std::__ndk1::__function::__func<AdminPopup::setup(UserData, UserData)::$_1, std::__ndk1::allocator<AdminPopup::setup(UserData, UserData)::$_1>, void (CCMenuItemSpriteExtra*)>::destroy()
FUNC b1c28 4 0 std::__ndk1::__function::__func<AdminPopup::setup(UserData, UserData)::$_1, std::__ndk1::allocator<AdminPopup::setup(UserData, UserData)::$_1>, void (CCMenuItemSpriteExtra*)>::destroy_deallocate()
FUNC b1c2c 764 0 std::__ndk1::__function::__func<AdminPopup::setup(UserData, UserData)::$_1, std::__ndk1::allocator<AdminPopup::setup(UserData, UserData)::$_1>, void (CCMenuItemSpriteExtra*)>::operator()(CCMenuItemSpriteExtra*&&)
FUNC b2390 1c 0 std::__ndk1::__function::__func<AdminPopup::setup(UserData, UserData)::$_1, std::__ndk1::allocator<AdminPopup::setup(UserData, UserData)::$_1>, void (CCMenuItemSpriteExtra*)>::target(std::type_info const&) const
FUNC b23ac c 0 std::__ndk1::__function::__func<AdminPopup::setup(UserData, UserData)::$_1, std::__ndk1::allocator<AdminPopup::setup(UserData, UserData)::$_1>, void (CCMenuItemSpriteExtra*)>::target_type() const
FUNC b23b8 4 0 std::__ndk1::__function::__func<AdminPopup::setup(UserData, UserData)::$_2, std::__ndk1::allocator<AdminPopup::setup(UserData, UserData)::$_2>, void (CCMenuItemSpriteExtra*)>::~__func()
FUNC b23bc 34 0 std::__ndk1::__function::__func<AdminPopup::setup(UserData, UserData)::$_2, std::__ndk1::allocator<AdminPopup::setup(UserData, UserData)::$_2>, void (CCMenuItemSpriteExtra*)>::__clone() const
FUNC b23f0 14 0 std::__ndk1::__function::__func<AdminPopup::setup(UserData, UserData)::$_2, std::__ndk1::allocator<AdminPopup::setup(UserData, UserData)::$_2>, void (CCMenuItemSpriteExtra*)>::__clone(std::__ndk1::__function::__base<void (CCMenuItemSpriteExtra*)>*) const
FUNC b2404 4 0 std::__ndk1::__function::__func<AdminPopup::setup(UserData, UserData)::$_2, std::__ndk1::allocator<AdminPopup::setup(UserData, UserData)::$_2>, void (CCMenuItemSpriteExtra*)>::destroy()
FUNC b2408 4 0 std::__ndk1::__function::__func<AdminPopup::setup(UserData, UserData)::$_2, std::__ndk1::allocator<AdminPopup::setup(UserData, UserData)::$_2>, void (CCMenuItemSpriteExtra*)>::destroy_deallocate()
FUNC b240c e8 0 std::__ndk1::__function::__func<AdminPopup::setup(UserData, UserData)::$_2, std::__ndk1::allocator<AdminPopup::setup(UserData, UserData)::$_2>, void (CCMenuItemSpriteExtra*)>::operator()(CCMenuItemSpriteExtra*&&)
FUNC b24f4 1c 0 std::__ndk1::__function::__func<AdminPopup::setup(UserData, UserData)::$_2, std::__ndk1::allocator<AdminPopup::setup(UserData, UserData)::$_2>, void (CCMenuItemSpriteExtra*)>::target(std::type_info const&) const
FUNC b2510 c 0 std::__ndk1::__function::__func<AdminPopup::setup(UserData, UserData)::$_2, std::__ndk1::allocator<AdminPopup::setup(UserData, UserData)::$_2>, void (CCMenuItemSpriteExtra*)>::target_type() const
FUNC b251c 3dc 0 CasePopup::setup(UserData, UserData)
FUNC b28f8 150 0 geode::Popup<UserData, UserData>::setTitle(std::__ndk1::basic_string<char, std::__ndk1::char_traits<char>, std::__ndk1::allocator<char> > const&, char const*, float, float)
FUNC b2a48 4fc 0 CasePopup::onLoadCases(cocos2d::CCObject*)
FUNC b2f44 14c 0 geode::cocos::CCMenuItemExt::createSpriteExtraWithFrameName(std::__ndk1::basic_string_view<char, std::__ndk1::char_traits<char> >, float, std::__ndk1::function<void (CCMenuItemSpriteExtra*)>)
FUNC b3090 d8 0 CasePopup::onClose(cocos2d::CCObject*)
FUNC b3168 224 0 CasePopup::~CasePopup()
FUNC b338c 24 0 CasePopup::~CasePopup()
FUNC b33b0 8 0 {virtual override thunk({offset(-320)}, CasePopup::~CasePopup())}
FUNC b33b8 28 0 {virtual override thunk({offset(-320)}, CasePopup::~CasePopup())}
FUNC b33e0 4 0 std::__ndk1::__function::__func<CasePopup::setup(UserData, UserData)::$_0, std::__ndk1::allocator<CasePopup::setup(UserData, UserData)::$_0>, void (CCMenuItemSpriteExtra*)>::~__func()
FUNC b33e4 34 0 std::__ndk1::__function::__func<CasePopup::setup(UserData, UserData)::$_0, std::__ndk1::allocator<CasePopup::setup(UserData, UserData)::$_0>, void (CCMenuItemSpriteExtra*)>::__clone() const
FUNC b3418 14 0 std::__ndk1::__function::__func<CasePopup::setup(UserData, UserData)::$_0, std::__ndk1::allocator<CasePopup::setup(UserData, UserData)::$_0>, void (CCMenuItemSpriteExtra*)>::__clone(std::__ndk1::__function::__base<void (CCMenuItemSpriteExtra*)>*) const
FUNC b342c 4 0 std::__ndk1::__function::__func<CasePopup::setup(UserData, UserData)::$_0, std::__ndk1::allocator<CasePopup::setup(UserData, UserData)::$_0>, void (CCMenuItemSpriteExtra*)>::destroy()
FUNC b3430 4 0 std::__ndk1::__function::__func<CasePopup::setup(UserData, UserData)::$_0, std::__ndk1::allocator<CasePopup::setup(UserData, UserData)::$_0>, void (CCMenuItemSpriteExtra*)>::destroy_deallocate()
FUNC b3434 cf4 0 std::__ndk1::__function::__func<CasePopup::setup(UserData, UserData)::$_0, std::__ndk1::allocator<CasePopup::setup(UserData, UserData)::$_0>, void (CCMenuItemSpriteExtra*)>::operator()(CCMenuItemSpriteExtra*&&)
FUNC b4128 1c 0 std::__ndk1::__function::__func<CasePopup::setup(UserData, UserData)::$_0, std::__ndk1::allocator<CasePopup::setup(UserData, UserData)::$_0>, void (CCMenuItemSpriteExtra*)>::target(std::type_info const&) const
FUNC b4144 c 0 std::__ndk1::__function::__func<CasePopup::setup(UserData, UserData)::$_0, std::__ndk1::allocator<CasePopup::setup(UserData, UserData)::$_0>, void (CCMenuItemSpriteExtra*)>::target_type() const
FUNC b4150 6c 0 geode::Popup<UserData, std::__ndk1::function<void ()> >::~Popup()
FUNC b41bc 4 0 geode::Popup<UserData, std::__ndk1::function<void ()> >::~Popup()
FUNC b41c0 2c 0 geode::Popup<UserData, std::__ndk1::function<void ()> >::registerWithTouchDispatcher()
FUNC b41ec 28 0 geode::Popup<UserData, std::__ndk1::function<void ()> >::keyDown(cocos2d::enumKeyCodes)
FUNC b4214 148 0 geode::Popup<UserData, std::__ndk1::function<void ()> >::onClose(cocos2d::CCObject*)
FUNC b435c 6c 0 {virtual override thunk({offset(-320)}, geode::Popup<UserData, std::__ndk1::function<void ()> >::~Popup())}
FUNC b43c8 4 0 {virtual override thunk({offset(-320)}, geode::Popup<UserData, std::__ndk1::function<void ()> >::~Popup())}
FUNC b43cc 2c 0 {virtual override thunk({offset(-344)}, geode::Popup<UserData, std::__ndk1::function<void ()> >::keyDown(cocos2d::enumKeyCodes))}
FUNC b43f8 50 0 geode::Popup<UserData, std::__ndk1::function<void ()> >::CloseEvent::~CloseEvent()
FUNC b4448 58 0 geode::Popup<UserData, std::__ndk1::function<void ()> >::CloseEvent::~CloseEvent()
FUNC b44a0 10 0 std::__ndk1::__shared_ptr_emplace<geode::Popup<UserData, std::__ndk1::function<void ()> >::CloseEvent::Impl, std::__ndk1::allocator<geode::Popup<UserData, std::__ndk1::function<void ()> >::CloseEvent::Impl> >::~__shared_ptr_emplace()
FUNC b44b0 30 0 std::__ndk1::__shared_ptr_emplace<geode::Popup<UserData, std::__ndk1::function<void ()> >::CloseEvent::Impl, std::__ndk1::allocator<geode::Popup<UserData, std::__ndk1::function<void ()> >::CloseEvent::Impl> >::~__shared_ptr_emplace()
FUNC b44e0 4 0 std::__ndk1::__shared_ptr_emplace<geode::Popup<UserData, std::__ndk1::function<void ()> >::CloseEvent::Impl, std::__ndk1::allocator<geode::Popup<UserData, std::__ndk1::function<void ()> >::CloseEvent::Impl> >::__on_zero_shared()
FUNC b44e4 4 0 std::__ndk1::__shared_ptr_emplace<geode::Popup<UserData, std::__ndk1::function<void ()> >::CloseEvent::Impl, std::__ndk1::allocator<geode::Popup<UserData, std::__ndk1::function<void ()> >::CloseEvent::Impl> >::__on_zero_shared_weak()
FUNC b44e8 8c 0 std::__ndk1::__exception_guard_exceptions<std::__ndk1::vector<std::__ndk1::basic_string<char, std::__ndk1::char_traits<char>, std::__ndk1::allocator<char> >, std::__ndk1::allocator<std::__ndk1::basic_string<char, std::__ndk1::char_traits<char>, std::__ndk1::allocator<char> > > >::__destroy_vector>::~__exception_guard_exceptions[abi:ne180000]()
FUNC b4574 4 0 std::__ndk1::__function::__func<CasePopup::setup(UserData, UserData)::$_0::operator()(cocos2d::CCObject*) const::{lambda()#1}, std::__ndk1::allocator<CasePopup::setup(UserData, UserData)::$_0::operator()(cocos2d::CCObject*) const::{lambda()#1}>, void ()>::~__func()
FUNC b4578 34 0 std::__ndk1::__function::__func<CasePopup::setup(UserData, UserData)::$_0::operator()(cocos2d::CCObject*) const::{lambda()#1}, std::__ndk1::allocator<CasePopup::setup(UserData, UserData)::$_0::operator()(cocos2d::CCObject*) const::{lambda()#1}>, void ()>::__clone() const
FUNC b45ac 14 0 std::__ndk1::__function::__func<CasePopup::setup(UserData, UserData)::$_0::operator()(cocos2d::CCObject*) const::{lambda()#1}, std::__ndk1::allocator<CasePopup::setup(UserData, UserData)::$_0::operator()(cocos2d::CCObject*) const::{lambda()#1}>, void ()>::__clone(std::__ndk1::__function::__base<void ()>*) const
FUNC b45c0 4 0 std::__ndk1::__function::__func<CasePopup::setup(UserData, UserData)::$_0::operator()(cocos2d::CCObject*) const::{lambda()#1}, std::__ndk1::allocator<CasePopup::setup(UserData, UserData)::$_0::operator()(cocos2d::CCObject*) const::{lambda()#1}>, void ()>::destroy()
FUNC b45c4 4 0 std::__ndk1::__function::__func<CasePopup::setup(UserData, UserData)::$_0::operator()(cocos2d::CCObject*) const::{lambda()#1}, std::__ndk1::allocator<CasePopup::setup(UserData, UserData)::$_0::operator()(cocos2d::CCObject*) const::{lambda()#1}>, void ()>::destroy_deallocate()
FUNC b45c8 8 0 std::__ndk1::__function::__func<CasePopup::setup(UserData, UserData)::$_0::operator()(cocos2d::CCObject*) const::{lambda()#1}, std::__ndk1::allocator<CasePopup::setup(UserData, UserData)::$_0::operator()(cocos2d::CCObject*) const::{lambda()#1}>, void ()>::operator()()
FUNC b45d0 1c 0 std::__ndk1::__function::__func<CasePopup::setup(UserData, UserData)::$_0::operator()(cocos2d::CCObject*) const::{lambda()#1}, std::__ndk1::allocator<CasePopup::setup(UserData, UserData)::$_0::operator()(cocos2d::CCObject*) const::{lambda()#1}>, void ()>::target(std::type_info const&) const
FUNC b45ec c 0 std::__ndk1::__function::__func<CasePopup::setup(UserData, UserData)::$_0::operator()(cocos2d::CCObject*) const::{lambda()#1}, std::__ndk1::allocator<CasePopup::setup(UserData, UserData)::$_0::operator()(cocos2d::CCObject*) const::{lambda()#1}>, void ()>::target_type() const
FUNC b45f8 4 0 std::__ndk1::__function::__func<CasePopup::onLoadCases(cocos2d::CCObject*)::$_0, std::__ndk1::allocator<CasePopup::onLoadCases(cocos2d::CCObject*)::$_0>, void (geode::Task<geode::utils::web::WebResponse, geode::utils::web::WebProgress>::Event*)>::~__func()
FUNC b45fc 38 0 std::__ndk1::__function::__func<CasePopup::onLoadCases(cocos2d::CCObject*)::$_0, std::__ndk1::allocator<CasePopup::onLoadCases(cocos2d::CCObject*)::$_0>, void (geode::Task<geode::utils::web::WebResponse, geode::utils::web::WebProgress>::Event*)>::__clone() const
FUNC b4634 18 0 std::__ndk1::__function::__func<CasePopup::onLoadCases(cocos2d::CCObject*)::$_0, std::__ndk1::allocator<CasePopup::onLoadCases(cocos2d::CCObject*)::$_0>, void (geode::Task<geode::utils::web::WebResponse, geode::utils::web::WebProgress>::Event*)>::__clone(std::__ndk1::__function::__base<void (geode::Task<geode::utils::web::WebResponse, geode::utils::web::WebProgress>::Event*)>*) const
FUNC b464c 4 0 std::__ndk1::__function::__func<CasePopup::onLoadCases(cocos2d::CCObject*)::$_0, std::__ndk1::allocator<CasePopup::onLoadCases(cocos2d::CCObject*)::$_0>, void (geode::Task<geode::utils::web::WebResponse, geode::utils::web::WebProgress>::Event*)>::destroy()
FUNC b4650 4 0 std::__ndk1::__function::__func<CasePopup::onLoadCases(cocos2d::CCObject*)::$_0, std::__ndk1::allocator<CasePopup::onLoadCases(cocos2d::CCObject*)::$_0>, void (geode::Task<geode::utils::web::WebResponse, geode::utils::web::WebProgress>::Event*)>::destroy_deallocate()
FUNC b4654 1978 0 std::__ndk1::__function::__func<CasePopup::onLoadCases(cocos2d::CCObject*)::$_0, std::__ndk1::allocator<CasePopup::onLoadCases(cocos2d::CCObject*)::$_0>, void (geode::Task<geode::utils::web::WebResponse, geode::utils::web::WebProgress>::Event*)>::operator()(geode::Task<geode::utils::web::WebResponse, geode::utils::web::WebProgress>::Event*&&)
FUNC b5fcc 1c 0 std::__ndk1::__function::__func<CasePopup::onLoadCases(cocos2d::CCObject*)::$_0, std::__ndk1::allocator<CasePopup::onLoadCases(cocos2d::CCObject*)::$_0>, void (geode::Task<geode::utils::web::WebResponse, geode::utils::web::WebProgress>::Event*)>::target(std::type_info const&) const
FUNC b5fe8 c 0 std::__ndk1::__function::__func<CasePopup::onLoadCases(cocos2d::CCObject*)::$_0, std::__ndk1::allocator<CasePopup::onLoadCases(cocos2d::CCObject*)::$_0>, void (geode::Task<geode::utils::web::WebResponse, geode::utils::web::WebProgress>::Event*)>::target_type() const
FUNC b5ff4 74 0 geode::impl::ResultData<CaseData, std::__ndk1::basic_string<char, std::__ndk1::char_traits<char>, std::__ndk1::allocator<char> > >::~ResultData()
FUNC b6068 78 0 geode::impl::ResultData<bool, std::__ndk1::basic_string<char, std::__ndk1::char_traits<char>, std::__ndk1::allocator<char> > >::unwrapErr() &&
FUNC b60e0 78 0 geode::impl::ResultData<bool, std::__ndk1::basic_string<char, std::__ndk1::char_traits<char>, std::__ndk1::allocator<char> > >::unwrap() &&
FUNC b6158 74 0 geode::impl::ResultData<bool, std::__ndk1::basic_string<char, std::__ndk1::char_traits<char>, std::__ndk1::allocator<char> > >::~ResultData()
FUNC b61cc 154 0 _ZN5geode15UnwrapExceptionC2IRbQsr4implE18IsStringStreamableIT_EEENS_4impl5OkTagEOS3_
FUNC b6320 4 0 std::__ndk1::__function::__func<CasePopup::onLoadCases(cocos2d::CCObject*)::$_0::operator()(geode::Task<geode::utils::web::WebResponse, geode::utils::web::WebProgress>::Event*) const::{lambda()#1}, std::__ndk1::allocator<CasePopup::onLoadCases(cocos2d::CCObject*)::$_0::operator()(geode::Task<geode::utils::web::WebResponse, geode::utils::web::WebProgress>::Event*) const::{lambda()#1}>, void ()>::~__func()
FUNC b6324 34 0 std::__ndk1::__function::__func<CasePopup::onLoadCases(cocos2d::CCObject*)::$_0::operator()(geode::Task<geode::utils::web::WebResponse, geode::utils::web::WebProgress>::Event*) const::{lambda()#1}, std::__ndk1::allocator<CasePopup::onLoadCases(cocos2d::CCObject*)::$_0::operator()(geode::Task<geode::utils::web::WebResponse, geode::utils::web::WebProgress>::Event*) const::{lambda()#1}>, void ()>::__clone() const
FUNC b6358 14 0 std::__ndk1::__function::__func<CasePopup::onLoadCases(cocos2d::CCObject*)::$_0::operator()(geode::Task<geode::utils::web::WebResponse, geode::utils::web::WebProgress>::Event*) const::{lambda()#1}, std::__ndk1::allocator<CasePopup::onLoadCases(cocos2d::CCObject*)::$_0::operator()(geode::Task<geode::utils::web::WebResponse, geode::utils::web::WebProgress>::Event*) const::{lambda()#1}>, void ()>::__clone(std::__ndk1::__function::__base<void ()>*) const
FUNC b636c 4 0 std::__ndk1::__function::__func<CasePopup::onLoadCases(cocos2d::CCObject*)::$_0::operator()(geode::Task<geode::utils::web::WebResponse, geode::utils::web::WebProgress>::Event*) const::{lambda()#1}, std::__ndk1::allocator<CasePopup::onLoadCases(cocos2d::CCObject*)::$_0::operator()(geode::Task<geode::utils::web::WebResponse, geode::utils::web::WebProgress>::Event*) const::{lambda()#1}>, void ()>::destroy()
FUNC b6370 4 0 std::__ndk1::__function::__func<CasePopup::onLoadCases(cocos2d::CCObject*)::$_0::operator()(geode::Task<geode::utils::web::WebResponse, geode::utils::web::WebProgress>::Event*) const::{lambda()#1}, std::__ndk1::allocator<CasePopup::onLoadCases(cocos2d::CCObject*)::$_0::operator()(geode::Task<geode::utils::web::WebResponse, geode::utils::web::WebProgress>::Event*) const::{lambda()#1}>, void ()>::destroy_deallocate()
FUNC b6374 8 0 std::__ndk1::__function::__func<CasePopup::onLoadCases(cocos2d::CCObject*)::$_0::operator()(geode::Task<geode::utils::web::WebResponse, geode::utils::web::WebProgress>::Event*) const::{lambda()#1}, std::__ndk1::allocator<CasePopup::onLoadCases(cocos2d::CCObject*)::$_0::operator()(geode::Task<geode::utils::web::WebResponse, geode::utils::web::WebProgress>::Event*) const::{lambda()#1}>, void ()>::operator()()
FUNC b637c 1c 0 std::__ndk1::__function::__func<CasePopup::onLoadCases(cocos2d::CCObject*)::$_0::operator()(geode::Task<geode::utils::web::WebResponse, geode::utils::web::WebProgress>::Event*) const::{lambda()#1}, std::__ndk1::allocator<CasePopup::onLoadCases(cocos2d::CCObject*)::$_0::operator()(geode::Task<geode::utils::web::WebResponse, geode::utils::web::WebProgress>::Event*) const::{lambda()#1}>, void ()>::target(std::type_info const&) const
FUNC b6398 c 0 std::__ndk1::__function::__func<CasePopup::onLoadCases(cocos2d::CCObject*)::$_0::operator()(geode::Task<geode::utils::web::WebResponse, geode::utils::web::WebProgress>::Event*) const::{lambda()#1}, std::__ndk1::allocator<CasePopup::onLoadCases(cocos2d::CCObject*)::$_0::operator()(geode::Task<geode::utils::web::WebResponse, geode::utils::web::WebProgress>::Event*) const::{lambda()#1}>, void ()>::target_type() const
FUNC b63a4 94 0 std::__ndk1::__variant_detail::__visitation::__base::__dispatcher<(unsigned long)0>::__dispatch[abi:ne180000]<std::__ndk1::__variant_detail::__dtor<std::__ndk1::__variant_detail::__traits<CaseData, std::__ndk1::basic_string<char, std::__ndk1::char_traits<char>, std::__ndk1::allocator<char> > >, (std::__ndk1::__variant_detail::_Trait)1>::__destroy[abi:ne180000]()::{lambda(auto:1&)#1}, std::__ndk1::__variant_detail::__base<(std::__ndk1::__variant_detail::__traits<CaseData, std::__ndk1::basic_string<char, std::__ndk1::char_traits<char>, std::__ndk1::allocator<char> > >)1, std::__ndk1::__variant_detail::__traits, std::__ndk1::allocator<char> >&>(std::__ndk1::__variant_detail::__dtor<std::__ndk1::__variant_detail::__traits<CaseData, std::__ndk1::basic_string<char, std::__ndk1::char_traits<char>, std::__ndk1::allocator<char> > >, (std::__ndk1::__variant_detail::_Trait)1>, std::__ndk1::__variant_detail::__base<(std::__ndk1::__variant_detail::__traits<CaseData, std::__ndk1::basic_string<char, std::__ndk1::char_traits<char>, std::__ndk1::allocator<char> > >)1, std::__ndk1::__variant_detail::__traits, std::__ndk1::allocator<char> >&)
FUNC b6438 14 0 std::__ndk1::__variant_detail::__visitation::__base::__dispatcher<(unsigned long)1>::__dispatch[abi:ne180000]<std::__ndk1::__variant_detail::__dtor<std::__ndk1::__variant_detail::__traits<CaseData, std::__ndk1::basic_string<char, std::__ndk1::char_traits<char>, std::__ndk1::allocator<char> > >, (std::__ndk1::__variant_detail::_Trait)1>::__destroy[abi:ne180000]()::{lambda(auto:1&)#1}, std::__ndk1::__variant_detail::__base<(std::__ndk1::__variant_detail::__traits<CaseData, std::__ndk1::basic_string<char, std::__ndk1::char_traits<char>, std::__ndk1::allocator<char> > >)1, std::__ndk1::__variant_detail::__traits, std::__ndk1::allocator<char> >&>(std::__ndk1::__variant_detail::__dtor<std::__ndk1::__variant_detail::__traits<CaseData, std::__ndk1::basic_string<char, std::__ndk1::char_traits<char>, std::__ndk1::allocator<char> > >, (std::__ndk1::__variant_detail::_Trait)1>, std::__ndk1::__variant_detail::__base<(std::__ndk1::__variant_detail::__traits<CaseData, std::__ndk1::basic_string<char, std::__ndk1::char_traits<char>, std::__ndk1::allocator<char> > >)1, std::__ndk1::__variant_detail::__traits, std::__ndk1::allocator<char> >&)
FUNC b644c d0c 0 NewCasePopup::setup(UserData, std::__ndk1::function<void ()>)
FUNC b7158 b0 0 NewCasePopup::setup(UserData, std::__ndk1::function<void ()>)::$_3::~$_3()
FUNC b7208 d8 0 NewCasePopup::onClose(cocos2d::CCObject*)
FUNC b72e0 170 0 NewCasePopup::~NewCasePopup()
FUNC b7450 24 0 NewCasePopup::~NewCasePopup()
FUNC b7474 8 0 {virtual override thunk({offset(-320)}, NewCasePopup::~NewCasePopup())}
FUNC b747c 28 0 {virtual override thunk({offset(-320)}, NewCasePopup::~NewCasePopup())}
FUNC b74a4 44 0 std::__ndk1::__function::__func<NewCasePopup::setup(UserData, std::__ndk1::function<void ()>)::$_0, std::__ndk1::allocator<NewCasePopup::setup(UserData, std::__ndk1::function<void ()>)::$_0>, void (geode::Task<geode::utils::web::WebResponse, geode::utils::web::WebProgress>::Event*)>::~__func()
FUNC b74e8 5c 0 std::__ndk1::__function::__func<NewCasePopup::setup(UserData, std::__ndk1::function<void ()>)::$_0, std::__ndk1::allocator<NewCasePopup::setup(UserData, std::__ndk1::function<void ()>)::$_0>, void (geode::Task<geode::utils::web::WebResponse, geode::utils::web::WebProgress>::Event*)>::~__func()
FUNC b7544 90 0 std::__ndk1::__function::__func<NewCasePopup::setup(UserData, std::__ndk1::function<void ()>)::$_0, std::__ndk1::allocator<NewCasePopup::setup(UserData, std::__ndk1::function<void ()>)::$_0>, void (geode::Task<geode::utils::web::WebResponse, geode::utils::web::WebProgress>::Event*)>::__clone() const
FUNC b75d4 80 0 std::__ndk1::__function::__func<NewCasePopup::setup(UserData, std::__ndk1::function<void ()>)::$_0, std::__ndk1::allocator<NewCasePopup::setup(UserData, std::__ndk1::function<void ()>)::$_0>, void (geode::Task<geode::utils::web::WebResponse, geode::utils::web::WebProgress>::Event*)>::__clone(std::__ndk1::__function::__base<void (geode::Task<geode::utils::web::WebResponse, geode::utils::web::WebProgress>::Event*)>*) const
FUNC b7654 38 0 std::__ndk1::__function::__func<NewCasePopup::setup(UserData, std::__ndk1::function<void ()>)::$_0, std::__ndk1::allocator<NewCasePopup::setup(UserData, std::__ndk1::function<void ()>)::$_0>, void (geode::Task<geode::utils::web::WebResponse, geode::utils::web::WebProgress>::Event*)>::destroy()
FUNC b768c 50 0 std::__ndk1::__function::__func<NewCasePopup::setup(UserData, std::__ndk1::function<void ()>)::$_0, std::__ndk1::allocator<NewCasePopup::setup(UserData, std::__ndk1::function<void ()>)::$_0>, void (geode::Task<geode::utils::web::WebResponse, geode::utils::web::WebProgress>::Event*)>::destroy_deallocate()
FUNC b76dc 3e4 0 std::__ndk1::__function::__func<NewCasePopup::setup(UserData, std::__ndk1::function<void ()>)::$_0, std::__ndk1::allocator<NewCasePopup::setup(UserData, std::__ndk1::function<void ()>)::$_0>, void (geode::Task<geode::utils::web::WebResponse, geode::utils::web::WebProgress>::Event*)>::operator()(geode::Task<geode::utils::web::WebResponse, geode::utils::web::WebProgress>::Event*&&)
FUNC b7ac0 1c 0 std::__ndk1::__function::__func<NewCasePopup::setup(UserData, std::__ndk1::function<void ()>)::$_0, std::__ndk1::allocator<NewCasePopup::setup(UserData, std::__ndk1::function<void ()>)::$_0>, void (geode::Task<geode::utils::web::WebResponse, geode::utils::web::WebProgress>::Event*)>::target(std::type_info const&) const
FUNC b7adc c 0 std::__ndk1::__function::__func<NewCasePopup::setup(UserData, std::__ndk1::function<void ()>)::$_0, std::__ndk1::allocator<NewCasePopup::setup(UserData, std::__ndk1::function<void ()>)::$_0>, void (geode::Task<geode::utils::web::WebResponse, geode::utils::web::WebProgress>::Event*)>::target_type() const
FUNC b7ae8 4 0 std::__ndk1::__function::__func<NewCasePopup::setup(UserData, std::__ndk1::function<void ()>)::$_1, std::__ndk1::allocator<NewCasePopup::setup(UserData, std::__ndk1::function<void ()>)::$_1>, void (CCMenuItemSpriteExtra*)>::~__func()
FUNC b7aec 40 0 std::__ndk1::__function::__func<NewCasePopup::setup(UserData, std::__ndk1::function<void ()>)::$_1, std::__ndk1::allocator<NewCasePopup::setup(UserData, std::__ndk1::function<void ()>)::$_1>, void (CCMenuItemSpriteExtra*)>::__clone() const
FUNC b7b2c 20 0 std::__ndk1::__function::__func<NewCasePopup::setup(UserData, std::__ndk1::function<void ()>)::$_1, std::__ndk1::allocator<NewCasePopup::setup(UserData, std::__ndk1::function<void ()>)::$_1>, void (CCMenuItemSpriteExtra*)>::__clone(std::__ndk1::__function::__base<void (CCMenuItemSpriteExtra*)>*) const
FUNC b7b4c 4 0 std::__ndk1::__function::__func<NewCasePopup::setup(UserData, std::__ndk1::function<void ()>)::$_1, std::__ndk1::allocator<NewCasePopup::setup(UserData, std::__ndk1::function<void ()>)::$_1>, void (CCMenuItemSpriteExtra*)>::destroy()
FUNC b7b50 4 0 std::__ndk1::__function::__func<NewCasePopup::setup(UserData, std::__ndk1::function<void ()>)::$_1, std::__ndk1::allocator<NewCasePopup::setup(UserData, std::__ndk1::function<void ()>)::$_1>, void (CCMenuItemSpriteExtra*)>::destroy_deallocate()
FUNC b7b54 a8 0 std::__ndk1::__function::__func<NewCasePopup::setup(UserData, std::__ndk1::function<void ()>)::$_1, std::__ndk1::allocator<NewCasePopup::setup(UserData, std::__ndk1::function<void ()>)::$_1>, void (CCMenuItemSpriteExtra*)>::operator()(CCMenuItemSpriteExtra*&&)
FUNC b7bfc 1c 0 std::__ndk1::__function::__func<NewCasePopup::setup(UserData, std::__ndk1::function<void ()>)::$_1, std::__ndk1::allocator<NewCasePopup::setup(UserData, std::__ndk1::function<void ()>)::$_1>, void (CCMenuItemSpriteExtra*)>::target(std::type_info const&) const
FUNC b7c18 c 0 std::__ndk1::__function::__func<NewCasePopup::setup(UserData, std::__ndk1::function<void ()>)::$_1, std::__ndk1::allocator<NewCasePopup::setup(UserData, std::__ndk1::function<void ()>)::$_1>, void (CCMenuItemSpriteExtra*)>::target_type() const
FUNC b7c24 4 0 std::__ndk1::__function::__func<NewCasePopup::setup(UserData, std::__ndk1::function<void ()>)::$_2, std::__ndk1::allocator<NewCasePopup::setup(UserData, std::__ndk1::function<void ()>)::$_2>, void (CCMenuItemSpriteExtra*)>::~__func()
FUNC b7c28 40 0 std::__ndk1::__function::__func<NewCasePopup::setup(UserData, std::__ndk1::function<void ()>)::$_2, std::__ndk1::allocator<NewCasePopup::setup(UserData, std::__ndk1::function<void ()>)::$_2>, void (CCMenuItemSpriteExtra*)>::__clone() const
FUNC b7c68 20 0 std::__ndk1::__function::__func<NewCasePopup::setup(UserData, std::__ndk1::function<void ()>)::$_2, std::__ndk1::allocator<NewCasePopup::setup(UserData, std::__ndk1::function<void ()>)::$_2>, void (CCMenuItemSpriteExtra*)>::__clone(std::__ndk1::__function::__base<void (CCMenuItemSpriteExtra*)>*) const
FUNC b7c88 4 0 std::__ndk1::__function::__func<NewCasePopup::setup(UserData, std::__ndk1::function<void ()>)::$_2, std::__ndk1::allocator<NewCasePopup::setup(UserData, std::__ndk1::function<void ()>)::$_2>, void (CCMenuItemSpriteExtra*)>::destroy()
FUNC b7c8c 4 0 std::__ndk1::__function::__func<NewCasePopup::setup(UserData, std::__ndk1::function<void ()>)::$_2, std::__ndk1::allocator<NewCasePopup::setup(UserData, std::__ndk1::function<void ()>)::$_2>, void (CCMenuItemSpriteExtra*)>::destroy_deallocate()
FUNC b7c90 a0 0 std::__ndk1::__function::__func<NewCasePopup::setup(UserData, std::__ndk1::function<void ()>)::$_2, std::__ndk1::allocator<NewCasePopup::setup(UserData, std::__ndk1::function<void ()>)::$_2>, void (CCMenuItemSpriteExtra*)>::operator()(CCMenuItemSpriteExtra*&&)
FUNC b7d30 1c 0 std::__ndk1::__function::__func<NewCasePopup::setup(UserData, std::__ndk1::function<void ()>)::$_2, std::__ndk1::allocator<NewCasePopup::setup(UserData, std::__ndk1::function<void ()>)::$_2>, void (CCMenuItemSpriteExtra*)>::target(std::type_info const&) const
FUNC b7d4c c 0 std::__ndk1::__function::__func<NewCasePopup::setup(UserData, std::__ndk1::function<void ()>)::$_2, std::__ndk1::allocator<NewCasePopup::setup(UserData, std::__ndk1::function<void ()>)::$_2>, void (CCMenuItemSpriteExtra*)>::target_type() const
FUNC b7d58 bc 0 std::__ndk1::__function::__func<NewCasePopup::setup(UserData, std::__ndk1::function<void ()>)::$_3, std::__ndk1::allocator<NewCasePopup::setup(UserData, std::__ndk1::function<void ()>)::$_3>, void (CCMenuItemSpriteExtra*)>::~__func()
FUNC b7e14 b4 0 std::__ndk1::__function::__func<NewCasePopup::setup(UserData, std::__ndk1::function<void ()>)::$_3, std::__ndk1::allocator<NewCasePopup::setup(UserData, std::__ndk1::function<void ()>)::$_3>, void (CCMenuItemSpriteExtra*)>::~__func()
FUNC b7ec8 54 0 std::__ndk1::__function::__func<NewCasePopup::setup(UserData, std::__ndk1::function<void ()>)::$_3, std::__ndk1::allocator<NewCasePopup::setup(UserData, std::__ndk1::function<void ()>)::$_3>, void (CCMenuItemSpriteExtra*)>::__clone() const
FUNC b7f1c 1c 0 std::__ndk1::__function::__func<NewCasePopup::setup(UserData, std::__ndk1::function<void ()>)::$_3, std::__ndk1::allocator<NewCasePopup::setup(UserData, std::__ndk1::function<void ()>)::$_3>, void (CCMenuItemSpriteExtra*)>::__clone(std::__ndk1::__function::__base<void (CCMenuItemSpriteExtra*)>*) const
FUNC b7f38 8 0 std::__ndk1::__function::__func<NewCasePopup::setup(UserData, std::__ndk1::function<void ()>)::$_3, std::__ndk1::allocator<NewCasePopup::setup(UserData, std::__ndk1::function<void ()>)::$_3>, void (CCMenuItemSpriteExtra*)>::destroy()
FUNC b7f40 28 0 std::__ndk1::__function::__func<NewCasePopup::setup(UserData, std::__ndk1::function<void ()>)::$_3, std::__ndk1::allocator<NewCasePopup::setup(UserData, std::__ndk1::function<void ()>)::$_3>, void (CCMenuItemSpriteExtra*)>::destroy_deallocate()
FUNC b7f68 57c 0 std::__ndk1::__function::__func<NewCasePopup::setup(UserData, std::__ndk1::function<void ()>)::$_3, std::__ndk1::allocator<NewCasePopup::setup(UserData, std::__ndk1::function<void ()>)::$_3>, void (CCMenuItemSpriteExtra*)>::operator()(CCMenuItemSpriteExtra*&&)
FUNC b84e4 1c 0 std::__ndk1::__function::__func<NewCasePopup::setup(UserData, std::__ndk1::function<void ()>)::$_3, std::__ndk1::allocator<NewCasePopup::setup(UserData, std::__ndk1::function<void ()>)::$_3>, void (CCMenuItemSpriteExtra*)>::target(std::type_info const&) const
FUNC b8500 c 0 std::__ndk1::__function::__func<NewCasePopup::setup(UserData, std::__ndk1::function<void ()>)::$_3, std::__ndk1::allocator<NewCasePopup::setup(UserData, std::__ndk1::function<void ()>)::$_3>, void (CCMenuItemSpriteExtra*)>::target_type() const
FUNC b850c ec 0 std::__ndk1::__compressed_pair_elem<NewCasePopup::setup(UserData, std::__ndk1::function<void ()>)::$_3, 0, false>::__compressed_pair_elem[abi:ne180000]<NewCasePopup::setup(UserData, std::__ndk1::function<void ()>)::$_3 const&, (unsigned long)0>(std::__ndk1::tuple<NewCasePopup::setup(UserData, std::__ndk1::function<void ()>)::$_3 const&>, std::__ndk1::__tuple_indices<((unsigned long)0)...>)
FUNC b85f8 b0 0 std::__ndk1::__function::__alloc_func<NewCasePopup::setup(UserData, std::__ndk1::function<void ()>)::$_3, std::__ndk1::allocator<NewCasePopup::setup(UserData, std::__ndk1::function<void ()>)::$_3>, void (CCMenuItemSpriteExtra*)>::destroy[abi:ne180000]()
FUNC b86a8 758 0 RolePopup::setup(UserData, std::__ndk1::function<void (int)>)
FUNC b8e00 7c 0 RolePopup::onClose(cocos2d::CCObject*)
FUNC b8e7c 148 0 geode::Popup<UserData, std::__ndk1::function<void (int)> >::onClose(cocos2d::CCObject*)
FUNC b8fc4 170 0 RolePopup::~RolePopup()
FUNC b9134 24 0 RolePopup::~RolePopup()
FUNC b9158 2c 0 geode::Popup<UserData, std::__ndk1::function<void (int)> >::registerWithTouchDispatcher()
FUNC b9184 28 0 geode::Popup<UserData, std::__ndk1::function<void (int)> >::keyDown(cocos2d::enumKeyCodes)
FUNC b91ac 8 0 {virtual override thunk({offset(-320)}, RolePopup::~RolePopup())}
FUNC b91b4 28 0 {virtual override thunk({offset(-320)}, RolePopup::~RolePopup())}
FUNC b91dc 2c 0 {virtual override thunk({offset(-344)}, geode::Popup<UserData, std::__ndk1::function<void (int)> >::keyDown(cocos2d::enumKeyCodes))}
FUNC b9208 14 0 std::__ndk1::vector<CCMenuItemSpriteExtra*, std::__ndk1::allocator<CCMenuItemSpriteExtra*> >::__throw_length_error[abi:ne180000]() const
FUNC b921c 6c 0 geode::Popup<UserData, std::__ndk1::function<void (int)> >::~Popup()
FUNC b9288 4 0 geode::Popup<UserData, std::__ndk1::function<void (int)> >::~Popup()
FUNC b928c 6c 0 {virtual override thunk({offset(-320)}, geode::Popup<UserData, std::__ndk1::function<void (int)> >::~Popup())}
FUNC b92f8 4 0 {virtual override thunk({offset(-320)}, geode::Popup<UserData, std::__ndk1::function<void (int)> >::~Popup())}
FUNC b92fc 4 0 std::__ndk1::__function::__func<RolePopup::setup(UserData, std::__ndk1::function<void (int)>)::$_0, std::__ndk1::allocator<RolePopup::setup(UserData, std::__ndk1::function<void (int)>)::$_0>, void (CCMenuItemSpriteExtra*)>::~__func()
FUNC b9300 34 0 std::__ndk1::__function::__func<RolePopup::setup(UserData, std::__ndk1::function<void (int)>)::$_0, std::__ndk1::allocator<RolePopup::setup(UserData, std::__ndk1::function<void (int)>)::$_0>, void (CCMenuItemSpriteExtra*)>::__clone() const
FUNC b9334 14 0 std::__ndk1::__function::__func<RolePopup::setup(UserData, std::__ndk1::function<void (int)>)::$_0, std::__ndk1::allocator<RolePopup::setup(UserData, std::__ndk1::function<void (int)>)::$_0>, void (CCMenuItemSpriteExtra*)>::__clone(std::__ndk1::__function::__base<void (CCMenuItemSpriteExtra*)>*) const
FUNC b9348 4 0 std::__ndk1::__function::__func<RolePopup::setup(UserData, std::__ndk1::function<void (int)>)::$_0, std::__ndk1::allocator<RolePopup::setup(UserData, std::__ndk1::function<void (int)>)::$_0>, void (CCMenuItemSpriteExtra*)>::destroy()
FUNC b934c 4 0 std::__ndk1::__function::__func<RolePopup::setup(UserData, std::__ndk1::function<void (int)>)::$_0, std::__ndk1::allocator<RolePopup::setup(UserData, std::__ndk1::function<void (int)>)::$_0>, void (CCMenuItemSpriteExtra*)>::destroy_deallocate()
FUNC b9350 b0 0 std::__ndk1::__function::__func<RolePopup::setup(UserData, std::__ndk1::function<void (int)>)::$_0, std::__ndk1::allocator<RolePopup::setup(UserData, std::__ndk1::function<void (int)>)::$_0>, void (CCMenuItemSpriteExtra*)>::operator()(CCMenuItemSpriteExtra*&&)
FUNC b9400 1c 0 std::__ndk1::__function::__func<RolePopup::setup(UserData, std::__ndk1::function<void (int)>)::$_0, std::__ndk1::allocator<RolePopup::setup(UserData, std::__ndk1::function<void (int)>)::$_0>, void (CCMenuItemSpriteExtra*)>::target(std::type_info const&) const
FUNC b941c c 0 std::__ndk1::__function::__func<RolePopup::setup(UserData, std::__ndk1::function<void (int)>)::$_0, std::__ndk1::allocator<RolePopup::setup(UserData, std::__ndk1::function<void (int)>)::$_0>, void (CCMenuItemSpriteExtra*)>::target_type() const
FUNC b9428 50 0 geode::Popup<UserData, std::__ndk1::function<void (int)> >::CloseEvent::~CloseEvent()
FUNC b9478 58 0 geode::Popup<UserData, std::__ndk1::function<void (int)> >::CloseEvent::~CloseEvent()
FUNC b94d0 10 0 std::__ndk1::__shared_ptr_emplace<geode::Popup<UserData, std::__ndk1::function<void (int)> >::CloseEvent::Impl, std::__ndk1::allocator<geode::Popup<UserData, std::__ndk1::function<void (int)> >::CloseEvent::Impl> >::~__shared_ptr_emplace()
FUNC b94e0 30 0 std::__ndk1::__shared_ptr_emplace<geode::Popup<UserData, std::__ndk1::function<void (int)> >::CloseEvent::Impl, std::__ndk1::allocator<geode::Popup<UserData, std::__ndk1::function<void (int)> >::CloseEvent::Impl> >::~__shared_ptr_emplace()
FUNC b9510 4 0 std::__ndk1::__shared_ptr_emplace<geode::Popup<UserData, std::__ndk1::function<void (int)> >::CloseEvent::Impl, std::__ndk1::allocator<geode::Popup<UserData, std::__ndk1::function<void (int)> >::CloseEvent::Impl> >::__on_zero_shared()
FUNC b9514 4 0 std::__ndk1::__shared_ptr_emplace<geode::Popup<UserData, std::__ndk1::function<void (int)> >::CloseEvent::Impl, std::__ndk1::allocator<geode::Popup<UserData, std::__ndk1::function<void (int)> >::CloseEvent::Impl> >::__on_zero_shared_weak()
FUNC b9518 ec 0 AuthLoadLayer::init()
FUNC b9604 24 0 AuthLoadLayer::~AuthLoadLayer()
FUNC b9628 8 0 {virtual override thunk({offset(-320)}, AuthLoadLayer::~AuthLoadLayer())}
FUNC b9630 28 0 {virtual override thunk({offset(-320)}, AuthLoadLayer::~AuthLoadLayer())}
FUNC b9658 384 0 AuthMenu::setup()
FUNC b99dc 1f0 0 AuthMenu::onDashAuth(cocos2d::CCObject*)
FUNC b9bcc 1f0 0 AuthMenu::onGDAuth(cocos2d::CCObject*)
FUNC b9dbc e8 0 AuthMenu::onDoLater(cocos2d::CCObject*)
FUNC b9ea4 c4 0 AuthMenu::onInfoBtn(cocos2d::CCObject*)
FUNC b9f68 5d8 0 AuthMenu::testAuth(std::__ndk1::basic_string<char, std::__ndk1::char_traits<char>, std::__ndk1::allocator<char> >, std::__ndk1::function<void (int)>)
FUNC ba540 68 0 AuthMenu::testAuth(std::__ndk1::basic_string<char, std::__ndk1::char_traits<char>, std::__ndk1::allocator<char> >, std::__ndk1::function<void (int)>)::$_1::~$_1()
FUNC ba5a8 654 0 AuthMenu::genAuthToken(AuthMethod, std::__ndk1::basic_string<char, std::__ndk1::char_traits<char>, std::__ndk1::allocator<char> >, bool, std::__ndk1::function<void (int)>)
FUNC babfc 74 0 AuthMenu::~AuthMenu()
FUNC bac70 2c 0 geode::Popup<>::registerWithTouchDispatcher()
FUNC bac9c 28 0 geode::Popup<>::keyDown(cocos2d::enumKeyCodes)
FUNC bacc4 148 0 geode::Popup<>::onClose(cocos2d::CCObject*)
FUNC bae0c 6c 0 {virtual override thunk({offset(-320)}, AuthMenu::~AuthMenu())}
FUNC bae78 74 0 {virtual override thunk({offset(-320)}, AuthMenu::~AuthMenu())}
FUNC baeec 2c 0 {virtual override thunk({offset(-344)}, geode::Popup<>::keyDown(cocos2d::enumKeyCodes))}
FUNC baf18 6c 0 geode::Popup<>::~Popup()
FUNC baf84 4 0 geode::Popup<>::~Popup()
FUNC baf88 6c 0 {virtual override thunk({offset(-320)}, geode::Popup<>::~Popup())}
FUNC baff4 4 0 {virtual override thunk({offset(-320)}, geode::Popup<>::~Popup())}
FUNC baff8 50 0 geode::Popup<>::CloseEvent::~CloseEvent()
FUNC bb048 58 0 geode::Popup<>::CloseEvent::~CloseEvent()
FUNC bb0a0 10 0 std::__ndk1::__shared_ptr_emplace<geode::Popup<>::CloseEvent::Impl, std::__ndk1::allocator<geode::Popup<>::CloseEvent::Impl> >::~__shared_ptr_emplace()
FUNC bb0b0 30 0 std::__ndk1::__shared_ptr_emplace<geode::Popup<>::CloseEvent::Impl, std::__ndk1::allocator<geode::Popup<>::CloseEvent::Impl> >::~__shared_ptr_emplace()
FUNC bb0e0 4 0 std::__ndk1::__shared_ptr_emplace<geode::Popup<>::CloseEvent::Impl, std::__ndk1::allocator<geode::Popup<>::CloseEvent::Impl> >::__on_zero_shared()
FUNC bb0e4 4 0 std::__ndk1::__shared_ptr_emplace<geode::Popup<>::CloseEvent::Impl, std::__ndk1::allocator<geode::Popup<>::CloseEvent::Impl> >::__on_zero_shared_weak()
FUNC bb0e8 4 0 std::__ndk1::__function::__func<AuthMenu::onDashAuth(cocos2d::CCObject*)::$_0, std::__ndk1::allocator<AuthMenu::onDashAuth(cocos2d::CCObject*)::$_0>, void (FLAlertLayer*, bool)>::~__func()
FUNC bb0ec 34 0 std::__ndk1::__function::__func<AuthMenu::onDashAuth(cocos2d::CCObject*)::$_0, std::__ndk1::allocator<AuthMenu::onDashAuth(cocos2d::CCObject*)::$_0>, void (FLAlertLayer*, bool)>::__clone() const
FUNC bb120 14 0 std::__ndk1::__function::__func<AuthMenu::onDashAuth(cocos2d::CCObject*)::$_0, std::__ndk1::allocator<AuthMenu::onDashAuth(cocos2d::CCObject*)::$_0>, void (FLAlertLayer*, bool)>::__clone(std::__ndk1::__function::__base<void (FLAlertLayer*, bool)>*) const
FUNC bb134 4 0 std::__ndk1::__function::__func<AuthMenu::onDashAuth(cocos2d::CCObject*)::$_0, std::__ndk1::allocator<AuthMenu::onDashAuth(cocos2d::CCObject*)::$_0>, void (FLAlertLayer*, bool)>::destroy()
FUNC bb138 4 0 std::__ndk1::__function::__func<AuthMenu::onDashAuth(cocos2d::CCObject*)::$_0, std::__ndk1::allocator<AuthMenu::onDashAuth(cocos2d::CCObject*)::$_0>, void (FLAlertLayer*, bool)>::destroy_deallocate()
FUNC bb13c 268 0 std::__ndk1::__function::__func<AuthMenu::onDashAuth(cocos2d::CCObject*)::$_0, std::__ndk1::allocator<AuthMenu::onDashAuth(cocos2d::CCObject*)::$_0>, void (FLAlertLayer*, bool)>::operator()(FLAlertLayer*&&, bool&&)
FUNC bb3a4 1c 0 std::__ndk1::__function::__func<AuthMenu::onDashAuth(cocos2d::CCObject*)::$_0, std::__ndk1::allocator<AuthMenu::onDashAuth(cocos2d::CCObject*)::$_0>, void (FLAlertLayer*, bool)>::target(std::type_info const&) const
FUNC bb3c0 c 0 std::__ndk1::__function::__func<AuthMenu::onDashAuth(cocos2d::CCObject*)::$_0, std::__ndk1::allocator<AuthMenu::onDashAuth(cocos2d::CCObject*)::$_0>, void (FLAlertLayer*, bool)>::target_type() const
FUNC bb3cc 4 0 std::__ndk1::__function::__func<AuthMenu::onDashAuth(cocos2d::CCObject*)::$_0::operator()<FLAlertLayer*>(FLAlertLayer*, bool) const::{lambda(std::__ndk1::basic_string<char, std::__ndk1::char_traits<char>, std::__ndk1::allocator<char> >)#1}, std::__ndk1::allocator<AuthMenu::onDashAuth(cocos2d::CCObject*)::$_0::operator()<FLAlertLayer*>(FLAlertLayer*, bool) const::{lambda(std::__ndk1::basic_string<char, std::__ndk1::char_traits<char>, std::__ndk1::allocator<char> >)#1}>, void (std::__ndk1::basic_string<char, std::__ndk1::char_traits<char>, std::__ndk1::allocator<char> > const&)>::~__func()
FUNC bb3d0 24 0 std::__ndk1::__function::__func<AuthMenu::onDashAuth(cocos2d::CCObject*)::$_0::operator()<FLAlertLayer*>(FLAlertLayer*, bool) const::{lambda(std::__ndk1::basic_string<char, std::__ndk1::char_traits<char>, std::__ndk1::allocator<char> >)#1}, std::__ndk1::allocator<AuthMenu::onDashAuth(cocos2d::CCObject*)::$_0::operator()<FLAlertLayer*>(FLAlertLayer*, bool) const::{lambda(std::__ndk1::basic_string<char, std::__ndk1::char_traits<char>, std::__ndk1::allocator<char> >)#1}>, void (std::__ndk1::basic_string<char, std::__ndk1::char_traits<char>, std::__ndk1::allocator<char> > const&)>::__clone() const
FUNC bb3f4 10 0 std::__ndk1::__function::__func<AuthMenu::onDashAuth(cocos2d::CCObject*)::$_0::operator()<FLAlertLayer*>(FLAlertLayer*, bool) const::{lambda(std::__ndk1::basic_string<char, std::__ndk1::char_traits<char>, std::__ndk1::allocator<char> >)#1}, std::__ndk1::allocator<AuthMenu::onDashAuth(cocos2d::CCObject*)::$_0::operator()<FLAlertLayer*>(FLAlertLayer*, bool) const::{lambda(std::__ndk1::basic_string<char, std::__ndk1::char_traits<char>, std::__ndk1::allocator<char> >)#1}>, void (std::__ndk1::basic_string<char, std::__ndk1::char_traits<char>, std::__ndk1::allocator<char> > const&)>::__clone(std::__ndk1::__function::__base<void (std::__ndk1::basic_string<char, std::__ndk1::char_traits<char>, std::__ndk1::allocator<char> > const&)>*) const
FUNC bb404 4 0 std::__ndk1::__function::__func<AuthMenu::onDashAuth(cocos2d::CCObject*)::$_0::operator()<FLAlertLayer*>(FLAlertLayer*, bool) const::{lambda(std::__ndk1::basic_string<char, std::__ndk1::char_traits<char>, std::__ndk1::allocator<char> >)#1}, std::__ndk1::allocator<AuthMenu::onDashAuth(cocos2d::CCObject*)::$_0::operator()<FLAlertLayer*>(FLAlertLayer*, bool) const::{lambda(std::__ndk1::basic_string<char, std::__ndk1::char_traits<char>, std::__ndk1::allocator<char> >)#1}>, void (std::__ndk1::basic_string<char, std::__ndk1::char_traits<char>, std::__ndk1::allocator<char> > const&)>::destroy()
FUNC bb408 4 0 std::__ndk1::__function::__func<AuthMenu::onDashAuth(cocos2d::CCObject*)::$_0::operator()<FLAlertLayer*>(FLAlertLayer*, bool) const::{lambda(std::__ndk1::basic_string<char, std::__ndk1::char_traits<char>, std::__ndk1::allocator<char> >)#1}, std::__ndk1::allocator<AuthMenu::onDashAuth(cocos2d::CCObject*)::$_0::operator()<FLAlertLayer*>(FLAlertLayer*, bool) const::{lambda(std::__ndk1::basic_string<char, std::__ndk1::char_traits<char>, std::__ndk1::allocator<char> >)#1}>, void (std::__ndk1::basic_string<char, std::__ndk1::char_traits<char>, std::__ndk1::allocator<char> > const&)>::destroy_deallocate()
FUNC bb40c 18c 0 std::__ndk1::__function::__func<AuthMenu::onDashAuth(cocos2d::CCObject*)::$_0::operator()<FLAlertLayer*>(FLAlertLayer*, bool) const::{lambda(std::__ndk1::basic_string<char, std::__ndk1::char_traits<char>, std::__ndk1::allocator<char> >)#1}, std::__ndk1::allocator<AuthMenu::onDashAuth(cocos2d::CCObject*)::$_0::operator()<FLAlertLayer*>(FLAlertLayer*, bool) const::{lambda(std::__ndk1::basic_string<char, std::__ndk1::char_traits<char>, std::__ndk1::allocator<char> >)#1}>, void (std::__ndk1::basic_string<char, std::__ndk1::char_traits<char>, std::__ndk1::allocator<char> > const&)>::operator()(std::__ndk1::basic_string<char, std::__ndk1::char_traits<char>, std::__ndk1::allocator<char> > const&)
FUNC bb598 1c 0 std::__ndk1::__function::__func<AuthMenu::onDashAuth(cocos2d::CCObject*)::$_0::operator()<FLAlertLayer*>(FLAlertLayer*, bool) const::{lambda(std::__ndk1::basic_string<char, std::__ndk1::char_traits<char>, std::__ndk1::allocator<char> >)#1}, std::__ndk1::allocator<AuthMenu::onDashAuth(cocos2d::CCObject*)::$_0::operator()<FLAlertLayer*>(FLAlertLayer*, bool) const::{lambda(std::__ndk1::basic_string<char, std::__ndk1::char_traits<char>, std::__ndk1::allocator<char> >)#1}>, void (std::__ndk1::basic_string<char, std::__ndk1::char_traits<char>, std::__ndk1::allocator<char> > const&)>::target(std::type_info const&) const
FUNC bb5b4 c 0 std::__ndk1::__function::__func<AuthMenu::onDashAuth(cocos2d::CCObject*)::$_0::operator()<FLAlertLayer*>(FLAlertLayer*, bool) const::{lambda(std::__ndk1::basic_string<char, std::__ndk1::char_traits<char>, std::__ndk1::allocator<char> >)#1}, std::__ndk1::allocator<AuthMenu::onDashAuth(cocos2d::CCObject*)::$_0::operator()<FLAlertLayer*>(FLAlertLayer*, bool) const::{lambda(std::__ndk1::basic_string<char, std::__ndk1::char_traits<char>, std::__ndk1::allocator<char> >)#1}>, void (std::__ndk1::basic_string<char, std::__ndk1::char_traits<char>, std::__ndk1::allocator<char> > const&)>::target_type() const
FUNC bb5c0 4 0 std::__ndk1::__function::__func<AuthMenu::onDashAuth(cocos2d::CCObject*)::$_0::operator()<FLAlertLayer*>(FLAlertLayer*, bool) const::{lambda(std::__ndk1::basic_string<char, std::__ndk1::char_traits<char>, std::__ndk1::allocator<char> > const&)#1}, std::__ndk1::allocator<AuthMenu::onDashAuth(cocos2d::CCObject*)::$_0::operator()<FLAlertLayer*>(FLAlertLayer*, bool) const::{lambda(std::__ndk1::basic_string<char, std::__ndk1::char_traits<char>, std::__ndk1::allocator<char> > const&)#1}>, void (std::__ndk1::basic_string<char, std::__ndk1::char_traits<char>, std::__ndk1::allocator<char> > const&)>::~__func()
FUNC bb5c4 24 0 std::__ndk1::__function::__func<AuthMenu::onDashAuth(cocos2d::CCObject*)::$_0::operator()<FLAlertLayer*>(FLAlertLayer*, bool) const::{lambda(std::__ndk1::basic_string<char, std::__ndk1::char_traits<char>, std::__ndk1::allocator<char> > const&)#1}, std::__ndk1::allocator<AuthMenu::onDashAuth(cocos2d::CCObject*)::$_0::operator()<FLAlertLayer*>(FLAlertLayer*, bool) const::{lambda(std::__ndk1::basic_string<char, std::__ndk1::char_traits<char>, std::__ndk1::allocator<char> > const&)#1}>, void (std::__ndk1::basic_string<char, std::__ndk1::char_traits<char>, std::__ndk1::allocator<char> > const&)>::__clone() const
FUNC bb5e8 10 0 std::__ndk1::__function::__func<AuthMenu::onDashAuth(cocos2d::CCObject*)::$_0::operator()<FLAlertLayer*>(FLAlertLayer*, bool) const::{lambda(std::__ndk1::basic_string<char, std::__ndk1::char_traits<char>, std::__ndk1::allocator<char> > const&)#1}, std::__ndk1::allocator<AuthMenu::onDashAuth(cocos2d::CCObject*)::$_0::operator()<FLAlertLayer*>(FLAlertLayer*, bool) const::{lambda(std::__ndk1::basic_string<char, std::__ndk1::char_traits<char>, std::__ndk1::allocator<char> > const&)#1}>, void (std::__ndk1::basic_string<char, std::__ndk1::char_traits<char>, std::__ndk1::allocator<char> > const&)>::__clone(std::__ndk1::__function::__base<void (std::__ndk1::basic_string<char, std::__ndk1::char_traits<char>, std::__ndk1::allocator<char> > const&)>*) const
FUNC bb5f8 4 0 std::__ndk1::__function::__func<AuthMenu::onDashAuth(cocos2d::CCObject*)::$_0::operator()<FLAlertLayer*>(FLAlertLayer*, bool) const::{lambda(std::__ndk1::basic_string<char, std::__ndk1::char_traits<char>, std::__ndk1::allocator<char> > const&)#1}, std::__ndk1::allocator<AuthMenu::onDashAuth(cocos2d::CCObject*)::$_0::operator()<FLAlertLayer*>(FLAlertLayer*, bool) const::{lambda(std::__ndk1::basic_string<char, std::__ndk1::char_traits<char>, std::__ndk1::allocator<char> > const&)#1}>, void (std::__ndk1::basic_string<char, std::__ndk1::char_traits<char>, std::__ndk1::allocator<char> > const&)>::destroy()
FUNC bb5fc 4 0 std::__ndk1::__function::__func<AuthMenu::onDashAuth(cocos2d::CCObject*)::$_0::operator()<FLAlertLayer*>(FLAlertLayer*, bool) const::{lambda(std::__ndk1::basic_string<char, std::__ndk1::char_traits<char>, std::__ndk1::allocator<char> > const&)#1}, std::__ndk1::allocator<AuthMenu::onDashAuth(cocos2d::CCObject*)::$_0::operator()<FLAlertLayer*>(FLAlertLayer*, bool) const::{lambda(std::__ndk1::basic_string<char, std::__ndk1::char_traits<char>, std::__ndk1::allocator<char> > const&)#1}>, void (std::__ndk1::basic_string<char, std::__ndk1::char_traits<char>, std::__ndk1::allocator<char> > const&)>::destroy_deallocate()
FUNC bb600 18c 0 std::__ndk1::__function::__func<AuthMenu::onDashAuth(cocos2d::CCObject*)::$_0::operator()<FLAlertLayer*>(FLAlertLayer*, bool) const::{lambda(std::__ndk1::basic_string<char, std::__ndk1::char_traits<char>, std::__ndk1::allocator<char> > const&)#1}, std::__ndk1::allocator<AuthMenu::onDashAuth(cocos2d::CCObject*)::$_0::operator()<FLAlertLayer*>(FLAlertLayer*, bool) const::{lambda(std::__ndk1::basic_string<char, std::__ndk1::char_traits<char>, std::__ndk1::allocator<char> > const&)#1}>, void (std::__ndk1::basic_string<char, std::__ndk1::char_traits<char>, std::__ndk1::allocator<char> > const&)>::operator()(std::__ndk1::basic_string<char, std::__ndk1::char_traits<char>, std::__ndk1::allocator<char> > const&)
FUNC bb78c 1c 0 std::__ndk1::__function::__func<AuthMenu::onDashAuth(cocos2d::CCObject*)::$_0::operator()<FLAlertLayer*>(FLAlertLayer*, bool) const::{lambda(std::__ndk1::basic_string<char, std::__ndk1::char_traits<char>, std::__ndk1::allocator<char> > const&)#1}, std::__ndk1::allocator<AuthMenu::onDashAuth(cocos2d::CCObject*)::$_0::operator()<FLAlertLayer*>(FLAlertLayer*, bool) const::{lambda(std::__ndk1::basic_string<char, std::__ndk1::char_traits<char>, std::__ndk1::allocator<char> > const&)#1}>, void (std::__ndk1::basic_string<char, std::__ndk1::char_traits<char>, std::__ndk1::allocator<char> > const&)>::target(std::type_info const&) const
FUNC bb7a8 c 0 std::__ndk1::__function::__func<AuthMenu::onDashAuth(cocos2d::CCObject*)::$_0::operator()<FLAlertLayer*>(FLAlertLayer*, bool) const::{lambda(std::__ndk1::basic_string<char, std::__ndk1::char_traits<char>, std::__ndk1::allocator<char> > const&)#1}, std::__ndk1::allocator<AuthMenu::onDashAuth(cocos2d::CCObject*)::$_0::operator()<FLAlertLayer*>(FLAlertLayer*, bool) const::{lambda(std::__ndk1::basic_string<char, std::__ndk1::char_traits<char>, std::__ndk1::allocator<char> > const&)#1}>, void (std::__ndk1::basic_string<char, std::__ndk1::char_traits<char>, std::__ndk1::allocator<char> > const&)>::target_type() const
FUNC bb7b4 4 0 std::__ndk1::__function::__func<AuthMenu::onDashAuth(cocos2d::CCObject*)::$_0::operator()<FLAlertLayer*>(FLAlertLayer*, bool) const::{lambda(std::__ndk1::basic_string<char, std::__ndk1::char_traits<char>, std::__ndk1::allocator<char> > const&)#1}::operator()(std::__ndk1::basic_string<char, std::__ndk1::char_traits<char>, std::__ndk1::allocator<char> > const&) const::{lambda(bool)#1}, std::__ndk1::allocator<AuthMenu::onDashAuth(cocos2d::CCObject*)::$_0::operator()<FLAlertLayer*>(FLAlertLayer*, bool) const::{lambda(std::__ndk1::basic_string<char, std::__ndk1::char_traits<char>, std::__ndk1::allocator<char> > const&)#1}::operator()(std::__ndk1::basic_string<char, std::__ndk1::char_traits<char>, std::__ndk1::allocator<char> > const&) const::{lambda(bool)#1}>, void (int)>::~__func()
FUNC bb7b8 24 0 std::__ndk1::__function::__func<AuthMenu::onDashAuth(cocos2d::CCObject*)::$_0::operator()<FLAlertLayer*>(FLAlertLayer*, bool) const::{lambda(std::__ndk1::basic_string<char, std::__ndk1::char_traits<char>, std::__ndk1::allocator<char> > const&)#1}::operator()(std::__ndk1::basic_string<char, std::__ndk1::char_traits<char>, std::__ndk1::allocator<char> > const&) const::{lambda(bool)#1}, std::__ndk1::allocator<AuthMenu::onDashAuth(cocos2d::CCObject*)::$_0::operator()<FLAlertLayer*>(FLAlertLayer*, bool) const::{lambda(std::__ndk1::basic_string<char, std::__ndk1::char_traits<char>, std::__ndk1::allocator<char> > const&)#1}::operator()(std::__ndk1::basic_string<char, std::__ndk1::char_traits<char>, std::__ndk1::allocator<char> > const&) const::{lambda(bool)#1}>, void (int)>::__clone() const
FUNC bb7dc 10 0 std::__ndk1::__function::__func<AuthMenu::onDashAuth(cocos2d::CCObject*)::$_0::operator()<FLAlertLayer*>(FLAlertLayer*, bool) const::{lambda(std::__ndk1::basic_string<char, std::__ndk1::char_traits<char>, std::__ndk1::allocator<char> > const&)#1}::operator()(std::__ndk1::basic_string<char, std::__ndk1::char_traits<char>, std::__ndk1::allocator<char> > const&) const::{lambda(bool)#1}, std::__ndk1::allocator<AuthMenu::onDashAuth(cocos2d::CCObject*)::$_0::operator()<FLAlertLayer*>(FLAlertLayer*, bool) const::{lambda(std::__ndk1::basic_string<char, std::__ndk1::char_traits<char>, std::__ndk1::allocator<char> > const&)#1}::operator()(std::__ndk1::basic_string<char, std::__ndk1::char_traits<char>, std::__ndk1::allocator<char> > const&) const::{lambda(bool)#1}>, void (int)>::__clone(std::__ndk1::__function::__base<void (int)>*) const
FUNC bb7ec 4 0 std::__ndk1::__function::__func<AuthMenu::onDashAuth(cocos2d::CCObject*)::$_0::operator()<FLAlertLayer*>(FLAlertLayer*, bool) const::{lambda(std::__ndk1::basic_string<char, std::__ndk1::char_traits<char>, std::__ndk1::allocator<char> > const&)#1}::operator()(std::__ndk1::basic_string<char, std::__ndk1::char_traits<char>, std::__ndk1::allocator<char> > const&) const::{lambda(bool)#1}, std::__ndk1::allocator<AuthMenu::onDashAuth(cocos2d::CCObject*)::$_0::operator()<FLAlertLayer*>(FLAlertLayer*, bool) const::{lambda(std::__ndk1::basic_string<char, std::__ndk1::char_traits<char>, std::__ndk1::allocator<char> > const&)#1}::operator()(std::__ndk1::basic_string<char, std::__ndk1::char_traits<char>, std::__ndk1::allocator<char> > const&) const::{lambda(bool)#1}>, void (int)>::destroy()
FUNC bb7f0 4 0 std::__ndk1::__function::__func<AuthMenu::onDashAuth(cocos2d::CCObject*)::$_0::operator()<FLAlertLayer*>(FLAlertLayer*, bool) const::{lambda(std::__ndk1::basic_string<char, std::__ndk1::char_traits<char>, std::__ndk1::allocator<char> > const&)#1}::operator()(std::__ndk1::basic_string<char, std::__ndk1::char_traits<char>, std::__ndk1::allocator<char> > const&) const::{lambda(bool)#1}, std::__ndk1::allocator<AuthMenu::onDashAuth(cocos2d::CCObject*)::$_0::operator()<FLAlertLayer*>(FLAlertLayer*, bool) const::{lambda(std::__ndk1::basic_string<char, std::__ndk1::char_traits<char>, std::__ndk1::allocator<char> > const&)#1}::operator()(std::__ndk1::basic_string<char, std::__ndk1::char_traits<char>, std::__ndk1::allocator<char> > const&) const::{lambda(bool)#1}>, void (int)>::destroy_deallocate()
FUNC bb7f4 2c 0 std::__ndk1::__function::__func<AuthMenu::onDashAuth(cocos2d::CCObject*)::$_0::operator()<FLAlertLayer*>(FLAlertLayer*, bool) const::{lambda(std::__ndk1::basic_string<char, std::__ndk1::char_traits<char>, std::__ndk1::allocator<char> > const&)#1}::operator()(std::__ndk1::basic_string<char, std::__ndk1::char_traits<char>, std::__ndk1::allocator<char> > const&) const::{lambda(bool)#1}, std::__ndk1::allocator<AuthMenu::onDashAuth(cocos2d::CCObject*)::$_0::operator()<FLAlertLayer*>(FLAlertLayer*, bool) const::{lambda(std::__ndk1::basic_string<char, std::__ndk1::char_traits<char>, std::__ndk1::allocator<char> > const&)#1}::operator()(std::__ndk1::basic_string<char, std::__ndk1::char_traits<char>, std::__ndk1::allocator<char> > const&) const::{lambda(bool)#1}>, void (int)>::operator()(int&&)
FUNC bb820 1c 0 std::__ndk1::__function::__func<AuthMenu::onDashAuth(cocos2d::CCObject*)::$_0::operator()<FLAlertLayer*>(FLAlertLayer*, bool) const::{lambda(std::__ndk1::basic_string<char, std::__ndk1::char_traits<char>, std::__ndk1::allocator<char> > const&)#1}::operator()(std::__ndk1::basic_string<char, std::__ndk1::char_traits<char>, std::__ndk1::allocator<char> > const&) const::{lambda(bool)#1}, std::__ndk1::allocator<AuthMenu::onDashAuth(cocos2d::CCObject*)::$_0::operator()<FLAlertLayer*>(FLAlertLayer*, bool) const::{lambda(std::__ndk1::basic_string<char, std::__ndk1::char_traits<char>, std::__ndk1::allocator<char> > const&)#1}::operator()(std::__ndk1::basic_string<char, std::__ndk1::char_traits<char>, std::__ndk1::allocator<char> > const&) const::{lambda(bool)#1}>, void (int)>::target(std::type_info const&) const
FUNC bb83c c 0 std::__ndk1::__function::__func<AuthMenu::onDashAuth(cocos2d::CCObject*)::$_0::operator()<FLAlertLayer*>(FLAlertLayer*, bool) const::{lambda(std::__ndk1::basic_string<char, std::__ndk1::char_traits<char>, std::__ndk1::allocator<char> > const&)#1}::operator()(std::__ndk1::basic_string<char, std::__ndk1::char_traits<char>, std::__ndk1::allocator<char> > const&) const::{lambda(bool)#1}, std::__ndk1::allocator<AuthMenu::onDashAuth(cocos2d::CCObject*)::$_0::operator()<FLAlertLayer*>(FLAlertLayer*, bool) const::{lambda(std::__ndk1::basic_string<char, std::__ndk1::char_traits<char>, std::__ndk1::allocator<char> > const&)#1}::operator()(std::__ndk1::basic_string<char, std::__ndk1::char_traits<char>, std::__ndk1::allocator<char> > const&) const::{lambda(bool)#1}>, void (int)>::target_type() const
FUNC bb848 4 0 std::__ndk1::__function::__func<AuthMenu::testAuth(std::__ndk1::basic_string<char, std::__ndk1::char_traits<char>, std::__ndk1::allocator<char> >, std::__ndk1::function<void (int)>)::$_0, std::__ndk1::allocator<AuthMenu::testAuth(std::__ndk1::basic_string<char, std::__ndk1::char_traits<char>, std::__ndk1::allocator<char> >, std::__ndk1::function<void (int)>)::$_0>, void (geode::Task<geode::utils::web::WebResponse, geode::utils::web::WebProgress>::Event*)>::~__func()
FUNC bb84c 24 0 std::__ndk1::__function::__func<AuthMenu::testAuth(std::__ndk1::basic_string<char, std::__ndk1::char_traits<char>, std::__ndk1::allocator<char> >, std::__ndk1::function<void (int)>)::$_0, std::__ndk1::allocator<AuthMenu::testAuth(std::__ndk1::basic_string<char, std::__ndk1::char_traits<char>, std::__ndk1::allocator<char> >, std::__ndk1::function<void (int)>)::$_0>, void (geode::Task<geode::utils::web::WebResponse, geode::utils::web::WebProgress>::Event*)>::__clone() const
FUNC bb870 10 0 std::__ndk1::__function::__func<AuthMenu::testAuth(std::__ndk1::basic_string<char, std::__ndk1::char_traits<char>, std::__ndk1::allocator<char> >, std::__ndk1::function<void (int)>)::$_0, std::__ndk1::allocator<AuthMenu::testAuth(std::__ndk1::basic_string<char, std::__ndk1::char_traits<char>, std::__ndk1::allocator<char> >, std::__ndk1::function<void (int)>)::$_0>, void (geode::Task<geode::utils::web::WebResponse, geode::utils::web::WebProgress>::Event*)>::__clone(std::__ndk1::__function::__base<void (geode::Task<geode::utils::web::WebResponse, geode::utils::web::WebProgress>::Event*)>*) const
FUNC bb880 4 0 std::__ndk1::__function::__func<AuthMenu::testAuth(std::__ndk1::basic_string<char, std::__ndk1::char_traits<char>, std::__ndk1::allocator<char> >, std::__ndk1::function<void (int)>)::$_0, std::__ndk1::allocator<AuthMenu::testAuth(std::__ndk1::basic_string<char, std::__ndk1::char_traits<char>, std::__ndk1::allocator<char> >, std::__ndk1::function<void (int)>)::$_0>, void (geode::Task<geode::utils::web::WebResponse, geode::utils::web::WebProgress>::Event*)>::destroy()
FUNC bb884 4 0 std::__ndk1::__function::__func<AuthMenu::testAuth(std::__ndk1::basic_string<char, std::__ndk1::char_traits<char>, std::__ndk1::allocator<char> >, std::__ndk1::function<void (int)>)::$_0, std::__ndk1::allocator<AuthMenu::testAuth(std::__ndk1::basic_string<char, std::__ndk1::char_traits<char>, std::__ndk1::allocator<char> >, std::__ndk1::function<void (int)>)::$_0>, void (geode::Task<geode::utils::web::WebResponse, geode::utils::web::WebProgress>::Event*)>::destroy_deallocate()
FUNC bb888 98 0 std::__ndk1::__function::__func<AuthMenu::testAuth(std::__ndk1::basic_string<char, std::__ndk1::char_traits<char>, std::__ndk1::allocator<char> >, std::__ndk1::function<void (int)>)::$_0, std::__ndk1::allocator<AuthMenu::testAuth(std::__ndk1::basic_string<char, std::__ndk1::char_traits<char>, std::__ndk1::allocator<char> >, std::__ndk1::function<void (int)>)::$_0>, void (geode::Task<geode::utils::web::WebResponse, geode::utils::web::WebProgress>::Event*)>::operator()(geode::Task<geode::utils::web::WebResponse, geode::utils::web::WebProgress>::Event*&&)
FUNC bb920 1c 0 std::__ndk1::__function::__func<AuthMenu::testAuth(std::__ndk1::basic_string<char, std::__ndk1::char_traits<char>, std::__ndk1::allocator<char> >, std::__ndk1::function<void (int)>)::$_0, std::__ndk1::allocator<AuthMenu::testAuth(std::__ndk1::basic_string<char, std::__ndk1::char_traits<char>, std::__ndk1::allocator<char> >, std::__ndk1::function<void (int)>)::$_0>, void (geode::Task<geode::utils::web::WebResponse, geode::utils::web::WebProgress>::Event*)>::target(std::type_info const&) const
FUNC bb93c c 0 std::__ndk1::__function::__func<AuthMenu::testAuth(std::__ndk1::basic_string<char, std::__ndk1::char_traits<char>, std::__ndk1::allocator<char> >, std::__ndk1::function<void (int)>)::$_0, std::__ndk1::allocator<AuthMenu::testAuth(std::__ndk1::basic_string<char, std::__ndk1::char_traits<char>, std::__ndk1::allocator<char> >, std::__ndk1::function<void (int)>)::$_0>, void (geode::Task<geode::utils::web::WebResponse, geode::utils::web::WebProgress>::Event*)>::target_type() const
FUNC bb948 70 0 std::__ndk1::__function::__func<AuthMenu::testAuth(std::__ndk1::basic_string<char, std::__ndk1::char_traits<char>, std::__ndk1::allocator<char> >, std::__ndk1::function<void (int)>)::$_1, std::__ndk1::allocator<AuthMenu::testAuth(std::__ndk1::basic_string<char, std::__ndk1::char_traits<char>, std::__ndk1::allocator<char> >, std::__ndk1::function<void (int)>)::$_1>, void (geode::Task<geode::utils::web::WebResponse, geode::utils::web::WebProgress>::Event*)>::~__func()
FUNC bb9b8 6c 0 std::__ndk1::__function::__func<AuthMenu::testAuth(std::__ndk1::basic_string<char, std::__ndk1::char_traits<char>, std::__ndk1::allocator<char> >, std::__ndk1::function<void (int)>)::$_1, std::__ndk1::allocator<AuthMenu::testAuth(std::__ndk1::basic_string<char, std::__ndk1::char_traits<char>, std::__ndk1::allocator<char> >, std::__ndk1::function<void (int)>)::$_1>, void (geode::Task<geode::utils::web::WebResponse, geode::utils::web::WebProgress>::Event*)>::~__func()
FUNC bba24 f8 0 std::__ndk1::__function::__func<AuthMenu::testAuth(std::__ndk1::basic_string<char, std::__ndk1::char_traits<char>, std::__ndk1::allocator<char> >, std::__ndk1::function<void (int)>)::$_1, std::__ndk1::allocator<AuthMenu::testAuth(std::__ndk1::basic_string<char, std::__ndk1::char_traits<char>, std::__ndk1::allocator<char> >, std::__ndk1::function<void (int)>)::$_1>, void (geode::Task<geode::utils::web::WebResponse, geode::utils::web::WebProgress>::Event*)>::__clone() const
FUNC bbb1c e8 0 std::__ndk1::__function::__func<AuthMenu::testAuth(std::__ndk1::basic_string<char, std::__ndk1::char_traits<char>, std::__ndk1::allocator<char> >, std::__ndk1::function<void (int)>)::$_1, std::__ndk1::allocator<AuthMenu::testAuth(std::__ndk1::basic_string<char, std::__ndk1::char_traits<char>, std::__ndk1::allocator<char> >, std::__ndk1::function<void (int)>)::$_1>, void (geode::Task<geode::utils::web::WebResponse, geode::utils::web::WebProgress>::Event*)>::__clone(std::__ndk1::__function::__base<void (geode::Task<geode::utils::web::WebResponse, geode::utils::web::WebProgress>::Event*)>*) const
FUNC bbc04 64 0 std::__ndk1::__function::__func<AuthMenu::testAuth(std::__ndk1::basic_string<char, std::__ndk1::char_traits<char>, std::__ndk1::allocator<char> >, std::__ndk1::function<void (int)>)::$_1, std::__ndk1::allocator<AuthMenu::testAuth(std::__ndk1::basic_string<char, std::__ndk1::char_traits<char>, std::__ndk1::allocator<char> >, std::__ndk1::function<void (int)>)::$_1>, void (geode::Task<geode::utils::web::WebResponse, geode::utils::web::WebProgress>::Event*)>::destroy()
FUNC bbc68 60 0 std::__ndk1::__function::__func<AuthMenu::testAuth(std::__ndk1::basic_string<char, std::__ndk1::char_traits<char>, std::__ndk1::allocator<char> >, std::__ndk1::function<void (int)>)::$_1, std::__ndk1::allocator<AuthMenu::testAuth(std::__ndk1::basic_string<char, std::__ndk1::char_traits<char>, std::__ndk1::allocator<char> >, std::__ndk1::function<void (int)>)::$_1>, void (geode::Task<geode::utils::web::WebResponse, geode::utils::web::WebProgress>::Event*)>::destroy_deallocate()
FUNC bbcc8 af8 0 std::__ndk1::__function::__func<AuthMenu::testAuth(std::__ndk1::basic_string<char, std::__ndk1::char_traits<char>, std::__ndk1::allocator<char> >, std::__ndk1::function<void (int)>)::$_1, std::__ndk1::allocator<AuthMenu::testAuth(std::__ndk1::basic_string<char, std::__ndk1::char_traits<char>, std::__ndk1::allocator<char> >, std::__ndk1::function<void (int)>)::$_1>, void (geode::Task<geode::utils::web::WebResponse, geode::utils::web::WebProgress>::Event*)>::operator()(geode::Task<geode::utils::web::WebResponse, geode::utils::web::WebProgress>::Event*&&)
FUNC bc7c0 1c 0 std::__ndk1::__function::__func<AuthMenu::testAuth(std::__ndk1::basic_string<char, std::__ndk1::char_traits<char>, std::__ndk1::allocator<char> >, std::__ndk1::function<void (int)>)::$_1, std::__ndk1::allocator<AuthMenu::testAuth(std::__ndk1::basic_string<char, std::__ndk1::char_traits<char>, std::__ndk1::allocator<char> >, std::__ndk1::function<void (int)>)::$_1>, void (geode::Task<geode::utils::web::WebResponse, geode::utils::web::WebProgress>::Event*)>::target(std::type_info const&) const
FUNC bc7dc c 0 std::__ndk1::__function::__func<AuthMenu::testAuth(std::__ndk1::basic_string<char, std::__ndk1::char_traits<char>, std::__ndk1::allocator<char> >, std::__ndk1::function<void (int)>)::$_1, std::__ndk1::allocator<AuthMenu::testAuth(std::__ndk1::basic_string<char, std::__ndk1::char_traits<char>, std::__ndk1::allocator<char> >, std::__ndk1::function<void (int)>)::$_1>, void (geode::Task<geode::utils::web::WebResponse, geode::utils::web::WebProgress>::Event*)>::target_type() const
FUNC bc7e8 44 0 std::__ndk1::__function::__func<AuthMenu::genAuthToken(AuthMethod, std::__ndk1::basic_string<char, std::__ndk1::char_traits<char>, std::__ndk1::allocator<char> >, bool, std::__ndk1::function<void (int)>)::$_0, std::__ndk1::allocator<AuthMenu::genAuthToken(AuthMethod, std::__ndk1::basic_string<char, std::__ndk1::char_traits<char>, std::__ndk1::allocator<char> >, bool, std::__ndk1::function<void (int)>)::$_0>, void (geode::Task<geode::utils::web::WebResponse, geode::utils::web::WebProgress>::Event*)>::~__func()
FUNC bc82c 5c 0 std::__ndk1::__function::__func<AuthMenu::genAuthToken(AuthMethod, std::__ndk1::basic_string<char, std::__ndk1::char_traits<char>, std::__ndk1::allocator<char> >, bool, std::__ndk1::function<void (int)>)::$_0, std::__ndk1::allocator<AuthMenu::genAuthToken(AuthMethod, std::__ndk1::basic_string<char, std::__ndk1::char_traits<char>, std::__ndk1::allocator<char> >, bool, std::__ndk1::function<void (int)>)::$_0>, void (geode::Task<geode::utils::web::WebResponse, geode::utils::web::WebProgress>::Event*)>::~__func()
FUNC bc888 98 0 std::__ndk1::__function::__func<AuthMenu::genAuthToken(AuthMethod, std::__ndk1::basic_string<char, std::__ndk1::char_traits<char>, std::__ndk1::allocator<char> >, bool, std::__ndk1::function<void (int)>)::$_0, std::__ndk1::allocator<AuthMenu::genAuthToken(AuthMethod, std::__ndk1::basic_string<char, std::__ndk1::char_traits<char>, std::__ndk1::allocator<char> >, bool, std::__ndk1::function<void (int)>)::$_0>, void (geode::Task<geode::utils::web::WebResponse, geode::utils::web::WebProgress>::Event*)>::__clone() const
FUNC bc920 88 0 std::__ndk1::__function::__func<AuthMenu::genAuthToken(AuthMethod, std::__ndk1::basic_string<char, std::__ndk1::char_traits<char>, std::__ndk1::allocator<char> >, bool, std::__ndk1::function<void (int)>)::$_0, std::__ndk1::allocator<AuthMenu::genAuthToken(AuthMethod, std::__ndk1::basic_string<char, std::__ndk1::char_traits<char>, std::__ndk1::allocator<char> >, bool, std::__ndk1::function<void (int)>)::$_0>, void (geode::Task<geode::utils::web::WebResponse, geode::utils::web::WebProgress>::Event*)>::__clone(std::__ndk1::__function::__base<void (geode::Task<geode::utils::web::WebResponse, geode::utils::web::WebProgress>::Event*)>*) const
FUNC bc9a8 38 0 std::__ndk1::__function::__func<AuthMenu::genAuthToken(AuthMethod, std::__ndk1::basic_string<char, std::__ndk1::char_traits<char>, std::__ndk1::allocator<char> >, bool, std::__ndk1::function<void (int)>)::$_0, std::__ndk1::allocator<AuthMenu::genAuthToken(AuthMethod, std::__ndk1::basic_string<char, std::__ndk1::char_traits<char>, std::__ndk1::allocator<char> >, bool, std::__ndk1::function<void (int)>)::$_0>, void (geode::Task<geode::utils::web::WebResponse, geode::utils::web::WebProgress>::Event*)>::destroy()
FUNC bc9e0 50 0 std::__ndk1::__function::__func<AuthMenu::genAuthToken(AuthMethod, std::__ndk1::basic_string<char, std::__ndk1::char_traits<char>, std::__ndk1::allocator<char> >, bool, std::__ndk1::function<void (int)>)::$_0, std::__ndk1::allocator<AuthMenu::genAuthToken(AuthMethod, std::__ndk1::basic_string<char, std::__ndk1::char_traits<char>, std::__ndk1::allocator<char> >, bool, std::__ndk1::function<void (int)>)::$_0>, void (geode::Task<geode::utils::web::WebResponse, geode::utils::web::WebProgress>::Event*)>::destroy_deallocate()
FUNC bca30 c88 0 std::__ndk1::__function::__func<AuthMenu::genAuthToken(AuthMethod, std::__ndk1::basic_string<char, std::__ndk1::char_traits<char>, std::__ndk1::allocator<char> >, bool, std::__ndk1::function<void (int)>)::$_0, std::__ndk1::allocator<AuthMenu::genAuthToken(AuthMethod, std::__ndk1::basic_string<char, std::__ndk1::char_traits<char>, std::__ndk1::allocator<char> >, bool, std::__ndk1::function<void (int)>)::$_0>, void (geode::Task<geode::utils::web::WebResponse, geode::utils::web::WebProgress>::Event*)>::operator()(geode::Task<geode::utils::web::WebResponse, geode::utils::web::WebProgress>::Event*&&)
FUNC bd6b8 1c 0 std::__ndk1::__function::__func<AuthMenu::genAuthToken(AuthMethod, std::__ndk1::basic_string<char, std::__ndk1::char_traits<char>, std::__ndk1::allocator<char> >, bool, std::__ndk1::function<void (int)>)::$_0, std::__ndk1::allocator<AuthMenu::genAuthToken(AuthMethod, std::__ndk1::basic_string<char, std::__ndk1::char_traits<char>, std::__ndk1::allocator<char> >, bool, std::__ndk1::function<void (int)>)::$_0>, void (geode::Task<geode::utils::web::WebResponse, geode::utils::web::WebProgress>::Event*)>::target(std::type_info const&) const
FUNC bd6d4 c 0 std::__ndk1::__function::__func<AuthMenu::genAuthToken(AuthMethod, std::__ndk1::basic_string<char, std::__ndk1::char_traits<char>, std::__ndk1::allocator<char> >, bool, std::__ndk1::function<void (int)>)::$_0, std::__ndk1::allocator<AuthMenu::genAuthToken(AuthMethod, std::__ndk1::basic_string<char, std::__ndk1::char_traits<char>, std::__ndk1::allocator<char> >, bool, std::__ndk1::function<void (int)>)::$_0>, void (geode::Task<geode::utils::web::WebResponse, geode::utils::web::WebProgress>::Event*)>::target_type() const
FUNC bd6e0 74 0 geode::impl::ResultData<void, std::__ndk1::basic_string<char, std::__ndk1::char_traits<char>, std::__ndk1::allocator<char> > >::~ResultData()
FUNC bd754 4 0 std::__ndk1::__variant_detail::__visitation::__base::__dispatcher<(unsigned long)0>::__dispatch[abi:ne180000]<std::__ndk1::__variant_detail::__dtor<std::__ndk1::__variant_detail::__traits<std::__ndk1::monostate, std::__ndk1::basic_string<char, std::__ndk1::char_traits<char>, std::__ndk1::allocator<char> > >, (std::__ndk1::__variant_detail::_Trait)1>::__destroy[abi:ne180000]()::{lambda(auto:1&)#1}, std::__ndk1::__variant_detail::__base<(std::__ndk1::__variant_detail::__traits<std::__ndk1::monostate, std::__ndk1::basic_string<char, std::__ndk1::char_traits<char>, std::__ndk1::allocator<char> > >)1, std::__ndk1::__variant_detail::__traits, std::__ndk1::allocator<char> >&>(std::__ndk1::__variant_detail::__dtor<std::__ndk1::__variant_detail::__traits<std::__ndk1::monostate, std::__ndk1::basic_string<char, std::__ndk1::char_traits<char>, std::__ndk1::allocator<char> > >, (std::__ndk1::__variant_detail::_Trait)1>, std::__ndk1::__variant_detail::__base<(std::__ndk1::__variant_detail::__traits<std::__ndk1::monostate, std::__ndk1::basic_string<char, std::__ndk1::char_traits<char>, std::__ndk1::allocator<char> > >)1, std::__ndk1::__variant_detail::__traits, std::__ndk1::allocator<char> >&)
FUNC bd758 14 0 std::__ndk1::__variant_detail::__visitation::__base::__dispatcher<(unsigned long)1>::__dispatch[abi:ne180000]<std::__ndk1::__variant_detail::__dtor<std::__ndk1::__variant_detail::__traits<std::__ndk1::monostate, std::__ndk1::basic_string<char, std::__ndk1::char_traits<char>, std::__ndk1::allocator<char> > >, (std::__ndk1::__variant_detail::_Trait)1>::__destroy[abi:ne180000]()::{lambda(auto:1&)#1}, std::__ndk1::__variant_detail::__base<(std::__ndk1::__variant_detail::__traits<std::__ndk1::monostate, std::__ndk1::basic_string<char, std::__ndk1::char_traits<char>, std::__ndk1::allocator<char> > >)1, std::__ndk1::__variant_detail::__traits, std::__ndk1::allocator<char> >&>(std::__ndk1::__variant_detail::__dtor<std::__ndk1::__variant_detail::__traits<std::__ndk1::monostate, std::__ndk1::basic_string<char, std::__ndk1::char_traits<char>, std::__ndk1::allocator<char> > >, (std::__ndk1::__variant_detail::_Trait)1>, std::__ndk1::__variant_detail::__base<(std::__ndk1::__variant_detail::__traits<std::__ndk1::monostate, std::__ndk1::basic_string<char, std::__ndk1::char_traits<char>, std::__ndk1::allocator<char> > >)1, std::__ndk1::__variant_detail::__traits, std::__ndk1::allocator<char> >&)
FUNC bd76c 50 0 std::__ndk1::shared_ptr<geode::IntSettingV3>::~shared_ptr[abi:ne180000]()
FUNC bd7bc 4 0 std::__ndk1::__function::__func<AuthMenu::onGDAuth(cocos2d::CCObject*)::$_0, std::__ndk1::allocator<AuthMenu::onGDAuth(cocos2d::CCObject*)::$_0>, void (FLAlertLayer*, bool)>::~__func()
FUNC bd7c0 34 0 std::__ndk1::__function::__func<AuthMenu::onGDAuth(cocos2d::CCObject*)::$_0, std::__ndk1::allocator<AuthMenu::onGDAuth(cocos2d::CCObject*)::$_0>, void (FLAlertLayer*, bool)>::__clone() const
FUNC bd7f4 14 0 std::__ndk1::__function::__func<AuthMenu::onGDAuth(cocos2d::CCObject*)::$_0, std::__ndk1::allocator<AuthMenu::onGDAuth(cocos2d::CCObject*)::$_0>, void (FLAlertLayer*, bool)>::__clone(std::__ndk1::__function::__base<void (FLAlertLayer*, bool)>*) const
FUNC bd808 4 0 std::__ndk1::__function::__func<AuthMenu::onGDAuth(cocos2d::CCObject*)::$_0, std::__ndk1::allocator<AuthMenu::onGDAuth(cocos2d::CCObject*)::$_0>, void (FLAlertLayer*, bool)>::destroy()
FUNC bd80c 4 0 std::__ndk1::__function::__func<AuthMenu::onGDAuth(cocos2d::CCObject*)::$_0, std::__ndk1::allocator<AuthMenu::onGDAuth(cocos2d::CCObject*)::$_0>, void (FLAlertLayer*, bool)>::destroy_deallocate()
FUNC bd810 1b0 0 std::__ndk1::__function::__func<AuthMenu::onGDAuth(cocos2d::CCObject*)::$_0, std::__ndk1::allocator<AuthMenu::onGDAuth(cocos2d::CCObject*)::$_0>, void (FLAlertLayer*, bool)>::operator()(FLAlertLayer*&&, bool&&)
FUNC bd9c0 1c 0 std::__ndk1::__function::__func<AuthMenu::onGDAuth(cocos2d::CCObject*)::$_0, std::__ndk1::allocator<AuthMenu::onGDAuth(cocos2d::CCObject*)::$_0>, void (FLAlertLayer*, bool)>::target(std::type_info const&) const
FUNC bd9dc c 0 std::__ndk1::__function::__func<AuthMenu::onGDAuth(cocos2d::CCObject*)::$_0, std::__ndk1::allocator<AuthMenu::onGDAuth(cocos2d::CCObject*)::$_0>, void (FLAlertLayer*, bool)>::target_type() const
FUNC bd9e8 4 0 std::__ndk1::__function::__func<AuthMenu::onGDAuth(cocos2d::CCObject*)::$_0::operator()<FLAlertLayer*>(FLAlertLayer*, bool) const::{lambda(std::__ndk1::basic_string<char, std::__ndk1::char_traits<char>, std::__ndk1::allocator<char> >)#1}, std::__ndk1::allocator<AuthMenu::onGDAuth(cocos2d::CCObject*)::$_0::operator()<FLAlertLayer*>(FLAlertLayer*, bool) const::{lambda(std::__ndk1::basic_string<char, std::__ndk1::char_traits<char>, std::__ndk1::allocator<char> >)#1}>, void (std::__ndk1::basic_string<char, std::__ndk1::char_traits<char>, std::__ndk1::allocator<char> >)>::~__func()
FUNC bd9ec 34 0 std::__ndk1::__function::__func<AuthMenu::onGDAuth(cocos2d::CCObject*)::$_0::operator()<FLAlertLayer*>(FLAlertLayer*, bool) const::{lambda(std::__ndk1::basic_string<char, std::__ndk1::char_traits<char>, std::__ndk1::allocator<char> >)#1}, std::__ndk1::allocator<AuthMenu::onGDAuth(cocos2d::CCObject*)::$_0::operator()<FLAlertLayer*>(FLAlertLayer*, bool) const::{lambda(std::__ndk1::basic_string<char, std::__ndk1::char_traits<char>, std::__ndk1::allocator<char> >)#1}>, void (std::__ndk1::basic_string<char, std::__ndk1::char_traits<char>, std::__ndk1::allocator<char> >)>::__clone() const
FUNC bda20 14 0 std::__ndk1::__function::__func<AuthMenu::onGDAuth(cocos2d::CCObject*)::$_0::operator()<FLAlertLayer*>(FLAlertLayer*, bool) const::{lambda(std::__ndk1::basic_string<char, std::__ndk1::char_traits<char>, std::__ndk1::allocator<char> >)#1}, std::__ndk1::allocator<AuthMenu::onGDAuth(cocos2d::CCObject*)::$_0::operator()<FLAlertLayer*>(FLAlertLayer*, bool) const::{lambda(std::__ndk1::basic_string<char, std::__ndk1::char_traits<char>, std::__ndk1::allocator<char> >)#1}>, void (std::__ndk1::basic_string<char, std::__ndk1::char_traits<char>, std::__ndk1::allocator<char> >)>::__clone(std::__ndk1::__function::__base<void (std::__ndk1::basic_string<char, std::__ndk1::char_traits<char>, std::__ndk1::allocator<char> >)>*) const
FUNC bda34 4 0 std::__ndk1::__function::__func<AuthMenu::onGDAuth(cocos2d::CCObject*)::$_0::operator()<FLAlertLayer*>(FLAlertLayer*, bool) const::{lambda(std::__ndk1::basic_string<char, std::__ndk1::char_traits<char>, std::__ndk1::allocator<char> >)#1}, std::__ndk1::allocator<AuthMenu::onGDAuth(cocos2d::CCObject*)::$_0::operator()<FLAlertLayer*>(FLAlertLayer*, bool) const::{lambda(std::__ndk1::basic_string<char, std::__ndk1::char_traits<char>, std::__ndk1::allocator<char> >)#1}>, void (std::__ndk1::basic_string<char, std::__ndk1::char_traits<char>, std::__ndk1::allocator<char> >)>::destroy()
FUNC bda38 4 0 std::__ndk1::__function::__func<AuthMenu::onGDAuth(cocos2d::CCObject*)::$_0::operator()<FLAlertLayer*>(FLAlertLayer*, bool) const::{lambda(std::__ndk1::basic_string<char, std::__ndk1::char_traits<char>, std::__ndk1::allocator<char> >)#1}, std::__ndk1::allocator<AuthMenu::onGDAuth(cocos2d::CCObject*)::$_0::operator()<FLAlertLayer*>(FLAlertLayer*, bool) const::{lambda(std::__ndk1::basic_string<char, std::__ndk1::char_traits<char>, std::__ndk1::allocator<char> >)#1}>, void (std::__ndk1::basic_string<char, std::__ndk1::char_traits<char>, std::__ndk1::allocator<char> >)>::destroy_deallocate()
FUNC bda3c 184 0 std::__ndk1::__function::__func<AuthMenu::onGDAuth(cocos2d::CCObject*)::$_0::operator()<FLAlertLayer*>(FLAlertLayer*, bool) const::{lambda(std::__ndk1::basic_string<char, std::__ndk1::char_traits<char>, std::__ndk1::allocator<char> >)#1}, std::__ndk1::allocator<AuthMenu::onGDAuth(cocos2d::CCObject*)::$_0::operator()<FLAlertLayer*>(FLAlertLayer*, bool) const::{lambda(std::__ndk1::basic_string<char, std::__ndk1::char_traits<char>, std::__ndk1::allocator<char> >)#1}>, void (std::__ndk1::basic_string<char, std::__ndk1::char_traits<char>, std::__ndk1::allocator<char> >)>::operator()(std::__ndk1::basic_string<char, std::__ndk1::char_traits<char>, std::__ndk1::allocator<char> >&&)
FUNC bdbc0 1c 0 std::__ndk1::__function::__func<AuthMenu::onGDAuth(cocos2d::CCObject*)::$_0::operator()<FLAlertLayer*>(FLAlertLayer*, bool) const::{lambda(std::__ndk1::basic_string<char, std::__ndk1::char_traits<char>, std::__ndk1::allocator<char> >)#1}, std::__ndk1::allocator<AuthMenu::onGDAuth(cocos2d::CCObject*)::$_0::operator()<FLAlertLayer*>(FLAlertLayer*, bool) const::{lambda(std::__ndk1::basic_string<char, std::__ndk1::char_traits<char>, std::__ndk1::allocator<char> >)#1}>, void (std::__ndk1::basic_string<char, std::__ndk1::char_traits<char>, std::__ndk1::allocator<char> >)>::target(std::type_info const&) const
FUNC bdbdc c 0 std::__ndk1::__function::__func<AuthMenu::onGDAuth(cocos2d::CCObject*)::$_0::operator()<FLAlertLayer*>(FLAlertLayer*, bool) const::{lambda(std::__ndk1::basic_string<char, std::__ndk1::char_traits<char>, std::__ndk1::allocator<char> >)#1}, std::__ndk1::allocator<AuthMenu::onGDAuth(cocos2d::CCObject*)::$_0::operator()<FLAlertLayer*>(FLAlertLayer*, bool) const::{lambda(std::__ndk1::basic_string<char, std::__ndk1::char_traits<char>, std::__ndk1::allocator<char> >)#1}>, void (std::__ndk1::basic_string<char, std::__ndk1::char_traits<char>, std::__ndk1::allocator<char> >)>::target_type() const
FUNC bdbe8 4 0 std::__ndk1::__function::__func<AuthMenu::onGDAuth(cocos2d::CCObject*)::$_0::operator()<FLAlertLayer*>(FLAlertLayer*, bool) const::{lambda(std::__ndk1::basic_string<char, std::__ndk1::char_traits<char>, std::__ndk1::allocator<char> >(std::__ndk1::basic_string<char, std::__ndk1::char_traits<char>, std::__ndk1::allocator<char> >))#1}::operator() const::{lambda(bool)#1}, std::__ndk1::allocator<AuthMenu::onGDAuth(cocos2d::CCObject*)::$_0::operator()<FLAlertLayer*>(FLAlertLayer*, bool) const::{lambda(std::__ndk1::basic_string<char, std::__ndk1::char_traits<char>, std::__ndk1::allocator<char> >(std::__ndk1::basic_string<char, std::__ndk1::char_traits<char>, std::__ndk1::allocator<char> >))#1}::operator() const::{lambda(bool)#1}>, void (int)>::~__func()
FUNC bdbec 24 0 std::__ndk1::__function::__func<AuthMenu::onGDAuth(cocos2d::CCObject*)::$_0::operator()<FLAlertLayer*>(FLAlertLayer*, bool) const::{lambda(std::__ndk1::basic_string<char, std::__ndk1::char_traits<char>, std::__ndk1::allocator<char> >(std::__ndk1::basic_string<char, std::__ndk1::char_traits<char>, std::__ndk1::allocator<char> >))#1}::operator() const::{lambda(bool)#1}, std::__ndk1::allocator<AuthMenu::onGDAuth(cocos2d::CCObject*)::$_0::operator()<FLAlertLayer*>(FLAlertLayer*, bool) const::{lambda(std::__ndk1::basic_string<char, std::__ndk1::char_traits<char>, std::__ndk1::allocator<char> >(std::__ndk1::basic_string<char, std::__ndk1::char_traits<char>, std::__ndk1::allocator<char> >))#1}::operator() const::{lambda(bool)#1}>, void (int)>::__clone() const
FUNC bdc10 10 0 std::__ndk1::__function::__func<AuthMenu::onGDAuth(cocos2d::CCObject*)::$_0::operator()<FLAlertLayer*>(FLAlertLayer*, bool) const::{lambda(std::__ndk1::basic_string<char, std::__ndk1::char_traits<char>, std::__ndk1::allocator<char> >(std::__ndk1::basic_string<char, std::__ndk1::char_traits<char>, std::__ndk1::allocator<char> >))#1}::operator() const::{lambda(bool)#1}, std::__ndk1::allocator<AuthMenu::onGDAuth(cocos2d::CCObject*)::$_0::operator()<FLAlertLayer*>(FLAlertLayer*, bool) const::{lambda(std::__ndk1::basic_string<char, std::__ndk1::char_traits<char>, std::__ndk1::allocator<char> >(std::__ndk1::basic_string<char, std::__ndk1::char_traits<char>, std::__ndk1::allocator<char> >))#1}::operator() const::{lambda(bool)#1}>, void (int)>::__clone(std::__ndk1::__function::__base<void (int)>*) const
FUNC bdc20 4 0 std::__ndk1::__function::__func<AuthMenu::onGDAuth(cocos2d::CCObject*)::$_0::operator()<FLAlertLayer*>(FLAlertLayer*, bool) const::{lambda(std::__ndk1::basic_string<char, std::__ndk1::char_traits<char>, std::__ndk1::allocator<char> >(std::__ndk1::basic_string<char, std::__ndk1::char_traits<char>, std::__ndk1::allocator<char> >))#1}::operator() const::{lambda(bool)#1}, std::__ndk1::allocator<AuthMenu::onGDAuth(cocos2d::CCObject*)::$_0::operator()<FLAlertLayer*>(FLAlertLayer*, bool) const::{lambda(std::__ndk1::basic_string<char, std::__ndk1::char_traits<char>, std::__ndk1::allocator<char> >(std::__ndk1::basic_string<char, std::__ndk1::char_traits<char>, std::__ndk1::allocator<char> >))#1}::operator() const::{lambda(bool)#1}>, void (int)>::destroy()
FUNC bdc24 4 0 std::__ndk1::__function::__func<AuthMenu::onGDAuth(cocos2d::CCObject*)::$_0::operator()<FLAlertLayer*>(FLAlertLayer*, bool) const::{lambda(std::__ndk1::basic_string<char, std::__ndk1::char_traits<char>, std::__ndk1::allocator<char> >(std::__ndk1::basic_string<char, std::__ndk1::char_traits<char>, std::__ndk1::allocator<char> >))#1}::operator() const::{lambda(bool)#1}, std::__ndk1::allocator<AuthMenu::onGDAuth(cocos2d::CCObject*)::$_0::operator()<FLAlertLayer*>(FLAlertLayer*, bool) const::{lambda(std::__ndk1::basic_string<char, std::__ndk1::char_traits<char>, std::__ndk1::allocator<char> >(std::__ndk1::basic_string<char, std::__ndk1::char_traits<char>, std::__ndk1::allocator<char> >))#1}::operator() const::{lambda(bool)#1}>, void (int)>::destroy_deallocate()
FUNC bdc28 2c 0 std::__ndk1::__function::__func<AuthMenu::onGDAuth(cocos2d::CCObject*)::$_0::operator()<FLAlertLayer*>(FLAlertLayer*, bool) const::{lambda(std::__ndk1::basic_string<char, std::__ndk1::char_traits<char>, std::__ndk1::allocator<char> >(std::__ndk1::basic_string<char, std::__ndk1::char_traits<char>, std::__ndk1::allocator<char> >))#1}::operator() const::{lambda(bool)#1}, std::__ndk1::allocator<AuthMenu::onGDAuth(cocos2d::CCObject*)::$_0::operator()<FLAlertLayer*>(FLAlertLayer*, bool) const::{lambda(std::__ndk1::basic_string<char, std::__ndk1::char_traits<char>, std::__ndk1::allocator<char> >(std::__ndk1::basic_string<char, std::__ndk1::char_traits<char>, std::__ndk1::allocator<char> >))#1}::operator() const::{lambda(bool)#1}>, void (int)>::operator()(int&&)
FUNC bdc54 1c 0 std::__ndk1::__function::__func<AuthMenu::onGDAuth(cocos2d::CCObject*)::$_0::operator()<FLAlertLayer*>(FLAlertLayer*, bool) const::{lambda(std::__ndk1::basic_string<char, std::__ndk1::char_traits<char>, std::__ndk1::allocator<char> >(std::__ndk1::basic_string<char, std::__ndk1::char_traits<char>, std::__ndk1::allocator<char> >))#1}::operator() const::{lambda(bool)#1}, std::__ndk1::allocator<AuthMenu::onGDAuth(cocos2d::CCObject*)::$_0::operator()<FLAlertLayer*>(FLAlertLayer*, bool) const::{lambda(std::__ndk1::basic_string<char, std::__ndk1::char_traits<char>, std::__ndk1::allocator<char> >(std::__ndk1::basic_string<char, std::__ndk1::char_traits<char>, std::__ndk1::allocator<char> >))#1}::operator() const::{lambda(bool)#1}>, void (int)>::target(std::type_info const&) const
FUNC bdc70 c 0 std::__ndk1::__function::__func<AuthMenu::onGDAuth(cocos2d::CCObject*)::$_0::operator()<FLAlertLayer*>(FLAlertLayer*, bool) const::{lambda(std::__ndk1::basic_string<char, std::__ndk1::char_traits<char>, std::__ndk1::allocator<char> >(std::__ndk1::basic_string<char, std::__ndk1::char_traits<char>, std::__ndk1::allocator<char> >))#1}::operator() const::{lambda(bool)#1}, std::__ndk1::allocator<AuthMenu::onGDAuth(cocos2d::CCObject*)::$_0::operator()<FLAlertLayer*>(FLAlertLayer*, bool) const::{lambda(std::__ndk1::basic_string<char, std::__ndk1::char_traits<char>, std::__ndk1::allocator<char> >(std::__ndk1::basic_string<char, std::__ndk1::char_traits<char>, std::__ndk1::allocator<char> >))#1}::operator() const::{lambda(bool)#1}>, void (int)>::target_type() const
FUNC bdc7c 4 0 std::__ndk1::__function::__func<AuthMenu::onDoLater(cocos2d::CCObject*)::$_0, std::__ndk1::allocator<AuthMenu::onDoLater(cocos2d::CCObject*)::$_0>, void ()>::~__func()
FUNC bdc80 24 0 std::__ndk1::__function::__func<AuthMenu::onDoLater(cocos2d::CCObject*)::$_0, std::__ndk1::allocator<AuthMenu::onDoLater(cocos2d::CCObject*)::$_0>, void ()>::__clone() const
FUNC bdca4 10 0 std::__ndk1::__function::__func<AuthMenu::onDoLater(cocos2d::CCObject*)::$_0, std::__ndk1::allocator<AuthMenu::onDoLater(cocos2d::CCObject*)::$_0>, void ()>::__clone(std::__ndk1::__function::__base<void ()>*) const
FUNC bdcb4 4 0 std::__ndk1::__function::__func<AuthMenu::onDoLater(cocos2d::CCObject*)::$_0, std::__ndk1::allocator<AuthMenu::onDoLater(cocos2d::CCObject*)::$_0>, void ()>::destroy()
FUNC bdcb8 4 0 std::__ndk1::__function::__func<AuthMenu::onDoLater(cocos2d::CCObject*)::$_0, std::__ndk1::allocator<AuthMenu::onDoLater(cocos2d::CCObject*)::$_0>, void ()>::destroy_deallocate()
FUNC bdcbc 20 0 std::__ndk1::__function::__func<AuthMenu::onDoLater(cocos2d::CCObject*)::$_0, std::__ndk1::allocator<AuthMenu::onDoLater(cocos2d::CCObject*)::$_0>, void ()>::operator()()
FUNC bdcdc 1c 0 std::__ndk1::__function::__func<AuthMenu::onDoLater(cocos2d::CCObject*)::$_0, std::__ndk1::allocator<AuthMenu::onDoLater(cocos2d::CCObject*)::$_0>, void ()>::target(std::type_info const&) const
FUNC bdcf8 c 0 std::__ndk1::__function::__func<AuthMenu::onDoLater(cocos2d::CCObject*)::$_0, std::__ndk1::allocator<AuthMenu::onDoLater(cocos2d::CCObject*)::$_0>, void ()>::target_type() const
FUNC bdd04 198 0 _GLOBAL__sub_I_AuthMenu.cpp
FUNC bde9c 62c 0 CommentPopup::setup(ObjectData, std::__ndk1::function<void ()>)
FUNC be4c8 654 0 CommentPopup::onSubmit(cocos2d::CCObject*)
FUNC beb1c 14 0 CommentPopup::onClose(cocos2d::CCObject*)
FUNC beb30 148 0 geode::Popup<ObjectData, std::__ndk1::function<void ()> >::onClose(cocos2d::CCObject*)
FUNC bec78 164 0 CommentPopup::~CommentPopup()
FUNC beddc 24 0 CommentPopup::~CommentPopup()
FUNC bee00 2c 0 geode::Popup<ObjectData, std::__ndk1::function<void ()> >::registerWithTouchDispatcher()
FUNC bee2c 28 0 geode::Popup<ObjectData, std::__ndk1::function<void ()> >::keyDown(cocos2d::enumKeyCodes)
FUNC bee54 8 0 {virtual override thunk({offset(-320)}, CommentPopup::~CommentPopup())}
FUNC bee5c 28 0 {virtual override thunk({offset(-320)}, CommentPopup::~CommentPopup())}
FUNC bee84 2c 0 {virtual override thunk({offset(-344)}, geode::Popup<ObjectData, std::__ndk1::function<void ()> >::keyDown(cocos2d::enumKeyCodes))}
FUNC beeb0 1b8 0 TextInputNode::create(std::__ndk1::basic_string<char, std::__ndk1::char_traits<char>, std::__ndk1::allocator<char> >, unsigned int, cocos2d::CCSize, float, float)
FUNC bf068 4 0 std::__ndk1::__function::__func<TextInputNode::m_textInputChanged::{lambda()#1}, std::__ndk1::allocator<TextInputNode::m_textInputChanged::{lambda()#1}>, void ()>::~__func()
FUNC bf06c 24 0 std::__ndk1::__function::__func<TextInputNode::m_textInputChanged::{lambda()#1}, std::__ndk1::allocator<TextInputNode::m_textInputChanged::{lambda()#1}>, void ()>::__clone() const
FUNC bf090 10 0 std::__ndk1::__function::__func<TextInputNode::m_textInputChanged::{lambda()#1}, std::__ndk1::allocator<TextInputNode::m_textInputChanged::{lambda()#1}>, void ()>::__clone(std::__ndk1::__function::__base<void ()>*) const
FUNC bf0a0 4 0 std::__ndk1::__function::__func<TextInputNode::m_textInputChanged::{lambda()#1}, std::__ndk1::allocator<TextInputNode::m_textInputChanged::{lambda()#1}>, void ()>::destroy()
FUNC bf0a4 4 0 std::__ndk1::__function::__func<TextInputNode::m_textInputChanged::{lambda()#1}, std::__ndk1::allocator<TextInputNode::m_textInputChanged::{lambda()#1}>, void ()>::destroy_deallocate()
FUNC bf0a8 4 0 std::__ndk1::__function::__func<TextInputNode::m_textInputChanged::{lambda()#1}, std::__ndk1::allocator<TextInputNode::m_textInputChanged::{lambda()#1}>, void ()>::operator()()
FUNC bf0ac 1c 0 std::__ndk1::__function::__func<TextInputNode::m_textInputChanged::{lambda()#1}, std::__ndk1::allocator<TextInputNode::m_textInputChanged::{lambda()#1}>, void ()>::target(std::type_info const&) const
FUNC bf0c8 c 0 std::__ndk1::__function::__func<TextInputNode::m_textInputChanged::{lambda()#1}, std::__ndk1::allocator<TextInputNode::m_textInputChanged::{lambda()#1}>, void ()>::target_type() const
FUNC bf0d4 4 0 std::__ndk1::__function::__func<TextInputNode::m_textInputClosed::{lambda()#1}, std::__ndk1::allocator<TextInputNode::m_textInputClosed::{lambda()#1}>, void ()>::~__func()
FUNC bf0d8 24 0 std::__ndk1::__function::__func<TextInputNode::m_textInputClosed::{lambda()#1}, std::__ndk1::allocator<TextInputNode::m_textInputClosed::{lambda()#1}>, void ()>::__clone() const
FUNC bf0fc 10 0 std::__ndk1::__function::__func<TextInputNode::m_textInputClosed::{lambda()#1}, std::__ndk1::allocator<TextInputNode::m_textInputClosed::{lambda()#1}>, void ()>::__clone(std::__ndk1::__function::__base<void ()>*) const
FUNC bf10c 4 0 std::__ndk1::__function::__func<TextInputNode::m_textInputClosed::{lambda()#1}, std::__ndk1::allocator<TextInputNode::m_textInputClosed::{lambda()#1}>, void ()>::destroy()
FUNC bf110 4 0 std::__ndk1::__function::__func<TextInputNode::m_textInputClosed::{lambda()#1}, std::__ndk1::allocator<TextInputNode::m_textInputClosed::{lambda()#1}>, void ()>::destroy_deallocate()
FUNC bf114 4 0 std::__ndk1::__function::__func<TextInputNode::m_textInputClosed::{lambda()#1}, std::__ndk1::allocator<TextInputNode::m_textInputClosed::{lambda()#1}>, void ()>::operator()()
FUNC bf118 1c 0 std::__ndk1::__function::__func<TextInputNode::m_textInputClosed::{lambda()#1}, std::__ndk1::allocator<TextInputNode::m_textInputClosed::{lambda()#1}>, void ()>::target(std::type_info const&) const
FUNC bf134 c 0 std::__ndk1::__function::__func<TextInputNode::m_textInputClosed::{lambda()#1}, std::__ndk1::allocator<TextInputNode::m_textInputClosed::{lambda()#1}>, void ()>::target_type() const
FUNC bf140 4 0 std::__ndk1::__function::__func<TextInputNode::m_updateText::{lambda(std::__ndk1::basic_string<char, std::__ndk1::char_traits<char>, std::__ndk1::allocator<char> >)#1}, std::__ndk1::allocator<TextInputNode::m_updateText::{lambda(std::__ndk1::basic_string<char, std::__ndk1::char_traits<char>, std::__ndk1::allocator<char> >)#1}>, void (std::__ndk1::basic_string<char, std::__ndk1::char_traits<char>, std::__ndk1::allocator<char> >)>::~__func()
FUNC bf144 24 0 std::__ndk1::__function::__func<TextInputNode::m_updateText::{lambda(std::__ndk1::basic_string<char, std::__ndk1::char_traits<char>, std::__ndk1::allocator<char> >)#1}, std::__ndk1::allocator<TextInputNode::m_updateText::{lambda(std::__ndk1::basic_string<char, std::__ndk1::char_traits<char>, std::__ndk1::allocator<char> >)#1}>, void (std::__ndk1::basic_string<char, std::__ndk1::char_traits<char>, std::__ndk1::allocator<char> >)>::__clone() const
FUNC bf168 10 0 std::__ndk1::__function::__func<TextInputNode::m_updateText::{lambda(std::__ndk1::basic_string<char, std::__ndk1::char_traits<char>, std::__ndk1::allocator<char> >)#1}, std::__ndk1::allocator<TextInputNode::m_updateText::{lambda(std::__ndk1::basic_string<char, std::__ndk1::char_traits<char>, std::__ndk1::allocator<char> >)#1}>, void (std::__ndk1::basic_string<char, std::__ndk1::char_traits<char>, std::__ndk1::allocator<char> >)>::__clone(std::__ndk1::__function::__base<void (std::__ndk1::basic_string<char, std::__ndk1::char_traits<char>, std::__ndk1::allocator<char> >)>*) const
FUNC bf178 4 0 std::__ndk1::__function::__func<TextInputNode::m_updateText::{lambda(std::__ndk1::basic_string<char, std::__ndk1::char_traits<char>, std::__ndk1::allocator<char> >)#1}, std::__ndk1::allocator<TextInputNode::m_updateText::{lambda(std::__ndk1::basic_string<char, std::__ndk1::char_traits<char>, std::__ndk1::allocator<char> >)#1}>, void (std::__ndk1::basic_string<char, std::__ndk1::char_traits<char>, std::__ndk1::allocator<char> >)>::destroy()
FUNC bf17c 4 0 std::__ndk1::__function::__func<TextInputNode::m_updateText::{lambda(std::__ndk1::basic_string<char, std::__ndk1::char_traits<char>, std::__ndk1::allocator<char> >)#1}, std::__ndk1::allocator<TextInputNode::m_updateText::{lambda(std::__ndk1::basic_string<char, std::__ndk1::char_traits<char>, std::__ndk1::allocator<char> >)#1}>, void (std::__ndk1::basic_string<char, std::__ndk1::char_traits<char>, std::__ndk1::allocator<char> >)>::destroy_deallocate()
FUNC bf180 1c 0 std::__ndk1::__function::__func<TextInputNode::m_updateText::{lambda(std::__ndk1::basic_string<char, std::__ndk1::char_traits<char>, std::__ndk1::allocator<char> >)#1}, std::__ndk1::allocator<TextInputNode::m_updateText::{lambda(std::__ndk1::basic_string<char, std::__ndk1::char_traits<char>, std::__ndk1::allocator<char> >)#1}>, void (std::__ndk1::basic_string<char, std::__ndk1::char_traits<char>, std::__ndk1::allocator<char> >)>::operator()(std::__ndk1::basic_string<char, std::__ndk1::char_traits<char>, std::__ndk1::allocator<char> >&&)
FUNC bf19c 1c 0 std::__ndk1::__function::__func<TextInputNode::m_updateText::{lambda(std::__ndk1::basic_string<char, std::__ndk1::char_traits<char>, std::__ndk1::allocator<char> >)#1}, std::__ndk1::allocator<TextInputNode::m_updateText::{lambda(std::__ndk1::basic_string<char, std::__ndk1::char_traits<char>, std::__ndk1::allocator<char> >)#1}>, void (std::__ndk1::basic_string<char, std::__ndk1::char_traits<char>, std::__ndk1::allocator<char> >)>::target(std::type_info const&) const
FUNC bf1b8 c 0 std::__ndk1::__function::__func<TextInputNode::m_updateText::{lambda(std::__ndk1::basic_string<char, std::__ndk1::char_traits<char>, std::__ndk1::allocator<char> >)#1}, std::__ndk1::allocator<TextInputNode::m_updateText::{lambda(std::__ndk1::basic_string<char, std::__ndk1::char_traits<char>, std::__ndk1::allocator<char> >)#1}>, void (std::__ndk1::basic_string<char, std::__ndk1::char_traits<char>, std::__ndk1::allocator<char> >)>::target_type() const
FUNC bf1c4 168 0 std::__ndk1::__function::__value_func<void (std::__ndk1::basic_string<char, std::__ndk1::char_traits<char>, std::__ndk1::allocator<char> >)>::swap[abi:ne180000](std::__ndk1::__function::__value_func<void (std::__ndk1::basic_string<char, std::__ndk1::char_traits<char>, std::__ndk1::allocator<char> >)>&)
FUNC bf32c 6c 0 geode::Popup<ObjectData, std::__ndk1::function<void ()> >::~Popup()
FUNC bf398 4 0 geode::Popup<ObjectData, std::__ndk1::function<void ()> >::~Popup()
FUNC bf39c 6c 0 {virtual override thunk({offset(-320)}, geode::Popup<ObjectData, std::__ndk1::function<void ()> >::~Popup())}
FUNC bf408 4 0 {virtual override thunk({offset(-320)}, geode::Popup<ObjectData, std::__ndk1::function<void ()> >::~Popup())}
FUNC bf40c 4 0 std::__ndk1::__function::__func<CommentPopup::setup(ObjectData, std::__ndk1::function<void ()>)::$_0, std::__ndk1::allocator<CommentPopup::setup(ObjectData, std::__ndk1::function<void ()>)::$_0>, void (std::__ndk1::basic_string<char, std::__ndk1::char_traits<char>, std::__ndk1::allocator<char> >)>::~__func()
FUNC bf410 34 0 std::__ndk1::__function::__func<CommentPopup::setup(ObjectData, std::__ndk1::function<void ()>)::$_0, std::__ndk1::allocator<CommentPopup::setup(ObjectData, std::__ndk1::function<void ()>)::$_0>, void (std::__ndk1::basic_string<char, std::__ndk1::char_traits<char>, std::__ndk1::allocator<char> >)>::__clone() const
FUNC bf444 14 0 std::__ndk1::__function::__func<CommentPopup::setup(ObjectData, std::__ndk1::function<void ()>)::$_0, std::__ndk1::allocator<CommentPopup::setup(ObjectData, std::__ndk1::function<void ()>)::$_0>, void (std::__ndk1::basic_string<char, std::__ndk1::char_traits<char>, std::__ndk1::allocator<char> >)>::__clone(std::__ndk1::__function::__base<void (std::__ndk1::basic_string<char, std::__ndk1::char_traits<char>, std::__ndk1::allocator<char> >)>*) const
FUNC bf458 4 0 std::__ndk1::__function::__func<CommentPopup::setup(ObjectData, std::__ndk1::function<void ()>)::$_0, std::__ndk1::allocator<CommentPopup::setup(ObjectData, std::__ndk1::function<void ()>)::$_0>, void (std::__ndk1::basic_string<char, std::__ndk1::char_traits<char>, std::__ndk1::allocator<char> >)>::destroy()
FUNC bf45c 4 0 std::__ndk1::__function::__func<CommentPopup::setup(ObjectData, std::__ndk1::function<void ()>)::$_0, std::__ndk1::allocator<CommentPopup::setup(ObjectData, std::__ndk1::function<void ()>)::$_0>, void (std::__ndk1::basic_string<char, std::__ndk1::char_traits<char>, std::__ndk1::allocator<char> >)>::destroy_deallocate()
FUNC bf460 200 0 std::__ndk1::__function::__func<CommentPopup::setup(ObjectData, std::__ndk1::function<void ()>)::$_0, std::__ndk1::allocator<CommentPopup::setup(ObjectData, std::__ndk1::function<void ()>)::$_0>, void (std::__ndk1::basic_string<char, std::__ndk1::char_traits<char>, std::__ndk1::allocator<char> >)>::operator()(std::__ndk1::basic_string<char, std::__ndk1::char_traits<char>, std::__ndk1::allocator<char> >&&)
FUNC bf660 1c 0 std::__ndk1::__function::__func<CommentPopup::setup(ObjectData, std::__ndk1::function<void ()>)::$_0, std::__ndk1::allocator<CommentPopup::setup(ObjectData, std::__ndk1::function<void ()>)::$_0>, void (std::__ndk1::basic_string<char, std::__ndk1::char_traits<char>, std::__ndk1::allocator<char> >)>::target(std::type_info const&) const
FUNC bf67c c 0 std::__ndk1::__function::__func<CommentPopup::setup(ObjectData, std::__ndk1::function<void ()>)::$_0, std::__ndk1::allocator<CommentPopup::setup(ObjectData, std::__ndk1::function<void ()>)::$_0>, void (std::__ndk1::basic_string<char, std::__ndk1::char_traits<char>, std::__ndk1::allocator<char> >)>::target_type() const
FUNC bf688 50 0 geode::Popup<ObjectData, std::__ndk1::function<void ()> >::CloseEvent::~CloseEvent()
FUNC bf6d8 58 0 geode::Popup<ObjectData, std::__ndk1::function<void ()> >::CloseEvent::~CloseEvent()
FUNC bf730 10 0 std::__ndk1::__shared_ptr_emplace<geode::Popup<ObjectData, std::__ndk1::function<void ()> >::CloseEvent::Impl, std::__ndk1::allocator<geode::Popup<ObjectData, std::__ndk1::function<void ()> >::CloseEvent::Impl> >::~__shared_ptr_emplace()
FUNC bf740 30 0 std::__ndk1::__shared_ptr_emplace<geode::Popup<ObjectData, std::__ndk1::function<void ()> >::CloseEvent::Impl, std::__ndk1::allocator<geode::Popup<ObjectData, std::__ndk1::function<void ()> >::CloseEvent::Impl> >::~__shared_ptr_emplace()
FUNC bf770 4 0 std::__ndk1::__shared_ptr_emplace<geode::Popup<ObjectData, std::__ndk1::function<void ()> >::CloseEvent::Impl, std::__ndk1::allocator<geode::Popup<ObjectData, std::__ndk1::function<void ()> >::CloseEvent::Impl> >::__on_zero_shared()
FUNC bf774 4 0 std::__ndk1::__shared_ptr_emplace<geode::Popup<ObjectData, std::__ndk1::function<void ()> >::CloseEvent::Impl, std::__ndk1::allocator<geode::Popup<ObjectData, std::__ndk1::function<void ()> >::CloseEvent::Impl> >::__on_zero_shared_weak()
FUNC bf778 4 0 std::__ndk1::__function::__func<CommentPopup::onSubmit(cocos2d::CCObject*)::$_0, std::__ndk1::allocator<CommentPopup::onSubmit(cocos2d::CCObject*)::$_0>, void (geode::Task<geode::utils::web::WebResponse, geode::utils::web::WebProgress>::Event*)>::~__func()
FUNC bf77c 34 0 std::__ndk1::__function::__func<CommentPopup::onSubmit(cocos2d::CCObject*)::$_0, std::__ndk1::allocator<CommentPopup::onSubmit(cocos2d::CCObject*)::$_0>, void (geode::Task<geode::utils::web::WebResponse, geode::utils::web::WebProgress>::Event*)>::__clone() const
FUNC bf7b0 14 0 std::__ndk1::__function::__func<CommentPopup::onSubmit(cocos2d::CCObject*)::$_0, std::__ndk1::allocator<CommentPopup::onSubmit(cocos2d::CCObject*)::$_0>, void (geode::Task<geode::utils::web::WebResponse, geode::utils::web::WebProgress>::Event*)>::__clone(std::__ndk1::__function::__base<void (geode::Task<geode::utils::web::WebResponse, geode::utils::web::WebProgress>::Event*)>*) const
FUNC bf7c4 4 0 std::__ndk1::__function::__func<CommentPopup::onSubmit(cocos2d::CCObject*)::$_0, std::__ndk1::allocator<CommentPopup::onSubmit(cocos2d::CCObject*)::$_0>, void (geode::Task<geode::utils::web::WebResponse, geode::utils::web::WebProgress>::Event*)>::destroy()
FUNC bf7c8 4 0 std::__ndk1::__function::__func<CommentPopup::onSubmit(cocos2d::CCObject*)::$_0, std::__ndk1::allocator<CommentPopup::onSubmit(cocos2d::CCObject*)::$_0>, void (geode::Task<geode::utils::web::WebResponse, geode::utils::web::WebProgress>::Event*)>::destroy_deallocate()
FUNC bf7cc 3e0 0 std::__ndk1::__function::__func<CommentPopup::onSubmit(cocos2d::CCObject*)::$_0, std::__ndk1::allocator<CommentPopup::onSubmit(cocos2d::CCObject*)::$_0>, void (geode::Task<geode::utils::web::WebResponse, geode::utils::web::WebProgress>::Event*)>::operator()(geode::Task<geode::utils::web::WebResponse, geode::utils::web::WebProgress>::Event*&&)
FUNC bfbac 1c 0 std::__ndk1::__function::__func<CommentPopup::onSubmit(cocos2d::CCObject*)::$_0, std::__ndk1::allocator<CommentPopup::onSubmit(cocos2d::CCObject*)::$_0>, void (geode::Task<geode::utils::web::WebResponse, geode::utils::web::WebProgress>::Event*)>::target(std::type_info const&) const
FUNC bfbc8 c 0 std::__ndk1::__function::__func<CommentPopup::onSubmit(cocos2d::CCObject*)::$_0, std::__ndk1::allocator<CommentPopup::onSubmit(cocos2d::CCObject*)::$_0>, void (geode::Task<geode::utils::web::WebResponse, geode::utils::web::WebProgress>::Event*)>::target_type() const
FUNC bfbd4 6c8 0 CommentsPopup::setup(ObjectData, UserData)
FUNC c029c 150 0 geode::Popup<ObjectData, UserData>::setTitle(std::__ndk1::basic_string<char, std::__ndk1::char_traits<char>, std::__ndk1::allocator<char> > const&, char const*, float, float)
FUNC c03ec 3e0 0 CommentsPopup::onLoadComments(cocos2d::CCObject*)
FUNC c07cc 44 0 CommentsPopup::onCategoryButton(cocos2d::CCObject*)
FUNC c0810 118 0 CommentsPopup::updateCategoryBG()
FUNC c0928 d8 0 CommentsPopup::onClose(cocos2d::CCObject*)
FUNC c0a00 1ac 0 CommentsPopup::~CommentsPopup()
FUNC c0bac 24 0 CommentsPopup::~CommentsPopup()
FUNC c0bd0 8 0 {virtual override thunk({offset(-320)}, CommentsPopup::~CommentsPopup())}
FUNC c0bd8 28 0 {virtual override thunk({offset(-320)}, CommentsPopup::~CommentsPopup())}
FUNC c0c00 4 0 std::__ndk1::__function::__func<CommentsPopup::setup(ObjectData, UserData)::$_0, std::__ndk1::allocator<CommentsPopup::setup(ObjectData, UserData)::$_0>, void (CCMenuItemSpriteExtra*)>::~__func()
FUNC c0c04 34 0 std::__ndk1::__function::__func<CommentsPopup::setup(ObjectData, UserData)::$_0, std::__ndk1::allocator<CommentsPopup::setup(ObjectData, UserData)::$_0>, void (CCMenuItemSpriteExtra*)>::__clone() const
FUNC c0c38 14 0 std::__ndk1::__function::__func<CommentsPopup::setup(ObjectData, UserData)::$_0, std::__ndk1::allocator<CommentsPopup::setup(ObjectData, UserData)::$_0>, void (CCMenuItemSpriteExtra*)>::__clone(std::__ndk1::__function::__base<void (CCMenuItemSpriteExtra*)>*) const
FUNC c0c4c 4 0 std::__ndk1::__function::__func<CommentsPopup::setup(ObjectData, UserData)::$_0, std::__ndk1::allocator<CommentsPopup::setup(ObjectData, UserData)::$_0>, void (CCMenuItemSpriteExtra*)>::destroy()
FUNC c0c50 4 0 std::__ndk1::__function::__func<CommentsPopup::setup(ObjectData, UserData)::$_0, std::__ndk1::allocator<CommentsPopup::setup(ObjectData, UserData)::$_0>, void (CCMenuItemSpriteExtra*)>::destroy_deallocate()
FUNC c0c54 20 0 std::__ndk1::__function::__func<CommentsPopup::setup(ObjectData, UserData)::$_0, std::__ndk1::allocator<CommentsPopup::setup(ObjectData, UserData)::$_0>, void (CCMenuItemSpriteExtra*)>::operator()(CCMenuItemSpriteExtra*&&)
FUNC c0c74 1c 0 std::__ndk1::__function::__func<CommentsPopup::setup(ObjectData, UserData)::$_0, std::__ndk1::allocator<CommentsPopup::setup(ObjectData, UserData)::$_0>, void (CCMenuItemSpriteExtra*)>::target(std::type_info const&) const
FUNC c0c90 c 0 std::__ndk1::__function::__func<CommentsPopup::setup(ObjectData, UserData)::$_0, std::__ndk1::allocator<CommentsPopup::setup(ObjectData, UserData)::$_0>, void (CCMenuItemSpriteExtra*)>::target_type() const
FUNC c0c9c 4 0 std::__ndk1::__function::__func<CommentsPopup::setup(ObjectData, UserData)::$_1, std::__ndk1::allocator<CommentsPopup::setup(ObjectData, UserData)::$_1>, void (CCMenuItemSpriteExtra*)>::~__func()
FUNC c0ca0 34 0 std::__ndk1::__function::__func<CommentsPopup::setup(ObjectData, UserData)::$_1, std::__ndk1::allocator<CommentsPopup::setup(ObjectData, UserData)::$_1>, void (CCMenuItemSpriteExtra*)>::__clone() const
FUNC c0cd4 14 0 std::__ndk1::__function::__func<CommentsPopup::setup(ObjectData, UserData)::$_1, std::__ndk1::allocator<CommentsPopup::setup(ObjectData, UserData)::$_1>, void (CCMenuItemSpriteExtra*)>::__clone(std::__ndk1::__function::__base<void (CCMenuItemSpriteExtra*)>*) const
FUNC c0ce8 4 0 std::__ndk1::__function::__func<CommentsPopup::setup(ObjectData, UserData)::$_1, std::__ndk1::allocator<CommentsPopup::setup(ObjectData, UserData)::$_1>, void (CCMenuItemSpriteExtra*)>::destroy()
FUNC c0cec 4 0 std::__ndk1::__function::__func<CommentsPopup::setup(ObjectData, UserData)::$_1, std::__ndk1::allocator<CommentsPopup::setup(ObjectData, UserData)::$_1>, void (CCMenuItemSpriteExtra*)>::destroy_deallocate()
FUNC c0cf0 24 0 std::__ndk1::__function::__func<CommentsPopup::setup(ObjectData, UserData)::$_1, std::__ndk1::allocator<CommentsPopup::setup(ObjectData, UserData)::$_1>, void (CCMenuItemSpriteExtra*)>::operator()(CCMenuItemSpriteExtra*&&)
FUNC c0d14 1c 0 std::__ndk1::__function::__func<CommentsPopup::setup(ObjectData, UserData)::$_1, std::__ndk1::allocator<CommentsPopup::setup(ObjectData, UserData)::$_1>, void (CCMenuItemSpriteExtra*)>::target(std::type_info const&) const
FUNC c0d30 c 0 std::__ndk1::__function::__func<CommentsPopup::setup(ObjectData, UserData)::$_1, std::__ndk1::allocator<CommentsPopup::setup(ObjectData, UserData)::$_1>, void (CCMenuItemSpriteExtra*)>::target_type() const
FUNC c0d3c 4 0 std::__ndk1::__function::__func<CommentsPopup::setup(ObjectData, UserData)::$_2, std::__ndk1::allocator<CommentsPopup::setup(ObjectData, UserData)::$_2>, void (CCMenuItemSpriteExtra*)>::~__func()
FUNC c0d40 34 0 std::__ndk1::__function::__func<CommentsPopup::setup(ObjectData, UserData)::$_2, std::__ndk1::allocator<CommentsPopup::setup(ObjectData, UserData)::$_2>, void (CCMenuItemSpriteExtra*)>::__clone() const
FUNC c0d74 14 0 std::__ndk1::__function::__func<CommentsPopup::setup(ObjectData, UserData)::$_2, std::__ndk1::allocator<CommentsPopup::setup(ObjectData, UserData)::$_2>, void (CCMenuItemSpriteExtra*)>::__clone(std::__ndk1::__function::__base<void (CCMenuItemSpriteExtra*)>*) const
FUNC c0d88 4 0 std::__ndk1::__function::__func<CommentsPopup::setup(ObjectData, UserData)::$_2, std::__ndk1::allocator<CommentsPopup::setup(ObjectData, UserData)::$_2>, void (CCMenuItemSpriteExtra*)>::destroy()
FUNC c0d8c 4 0 std::__ndk1::__function::__func<CommentsPopup::setup(ObjectData, UserData)::$_2, std::__ndk1::allocator<CommentsPopup::setup(ObjectData, UserData)::$_2>, void (CCMenuItemSpriteExtra*)>::destroy_deallocate()
FUNC c0d90 ac0 0 std::__ndk1::__function::__func<CommentsPopup::setup(ObjectData, UserData)::$_2, std::__ndk1::allocator<CommentsPopup::setup(ObjectData, UserData)::$_2>, void (CCMenuItemSpriteExtra*)>::operator()(CCMenuItemSpriteExtra*&&)
FUNC c1850 1c 0 std::__ndk1::__function::__func<CommentsPopup::setup(ObjectData, UserData)::$_2, std::__ndk1::allocator<CommentsPopup::setup(ObjectData, UserData)::$_2>, void (CCMenuItemSpriteExtra*)>::target(std::type_info const&) const
FUNC c186c c 0 std::__ndk1::__function::__func<CommentsPopup::setup(ObjectData, UserData)::$_2, std::__ndk1::allocator<CommentsPopup::setup(ObjectData, UserData)::$_2>, void (CCMenuItemSpriteExtra*)>::target_type() const
FUNC c1878 4 0 std::__ndk1::__function::__func<CommentsPopup::setup(ObjectData, UserData)::$_2::operator()(cocos2d::CCObject*) const::{lambda()#1}, std::__ndk1::allocator<CommentsPopup::setup(ObjectData, UserData)::$_2::operator()(cocos2d::CCObject*) const::{lambda()#1}>, void ()>::~__func()
FUNC c187c 34 0 std::__ndk1::__function::__func<CommentsPopup::setup(ObjectData, UserData)::$_2::operator()(cocos2d::CCObject*) const::{lambda()#1}, std::__ndk1::allocator<CommentsPopup::setup(ObjectData, UserData)::$_2::operator()(cocos2d::CCObject*) const::{lambda()#1}>, void ()>::__clone() const
FUNC c18b0 14 0 std::__ndk1::__function::__func<CommentsPopup::setup(ObjectData, UserData)::$_2::operator()(cocos2d::CCObject*) const::{lambda()#1}, std::__ndk1::allocator<CommentsPopup::setup(ObjectData, UserData)::$_2::operator()(cocos2d::CCObject*) const::{lambda()#1}>, void ()>::__clone(std::__ndk1::__function::__base<void ()>*) const
FUNC c18c4 4 0 std::__ndk1::__function::__func<CommentsPopup::setup(ObjectData, UserData)::$_2::operator()(cocos2d::CCObject*) const::{lambda()#1}, std::__ndk1::allocator<CommentsPopup::setup(ObjectData, UserData)::$_2::operator()(cocos2d::CCObject*) const::{lambda()#1}>, void ()>::destroy()
FUNC c18c8 4 0 std::__ndk1::__function::__func<CommentsPopup::setup(ObjectData, UserData)::$_2::operator()(cocos2d::CCObject*) const::{lambda()#1}, std::__ndk1::allocator<CommentsPopup::setup(ObjectData, UserData)::$_2::operator()(cocos2d::CCObject*) const::{lambda()#1}>, void ()>::destroy_deallocate()
FUNC c18cc 8 0 std::__ndk1::__function::__func<CommentsPopup::setup(ObjectData, UserData)::$_2::operator()(cocos2d::CCObject*) const::{lambda()#1}, std::__ndk1::allocator<CommentsPopup::setup(ObjectData, UserData)::$_2::operator()(cocos2d::CCObject*) const::{lambda()#1}>, void ()>::operator()()
FUNC c18d4 1c 0 std::__ndk1::__function::__func<CommentsPopup::setup(ObjectData, UserData)::$_2::operator()(cocos2d::CCObject*) const::{lambda()#1}, std::__ndk1::allocator<CommentsPopup::setup(ObjectData, UserData)::$_2::operator()(cocos2d::CCObject*) const::{lambda()#1}>, void ()>::target(std::type_info const&) const
FUNC c18f0 c 0 std::__ndk1::__function::__func<CommentsPopup::setup(ObjectData, UserData)::$_2::operator()(cocos2d::CCObject*) const::{lambda()#1}, std::__ndk1::allocator<CommentsPopup::setup(ObjectData, UserData)::$_2::operator()(cocos2d::CCObject*) const::{lambda()#1}>, void ()>::target_type() const
FUNC c18fc 4 0 std::__ndk1::__function::__func<CommentsPopup::onLoadComments(cocos2d::CCObject*)::$_0, std::__ndk1::allocator<CommentsPopup::onLoadComments(cocos2d::CCObject*)::$_0>, void (geode::Task<geode::utils::web::WebResponse, geode::utils::web::WebProgress>::Event*)>::~__func()
FUNC c1900 38 0 std::__ndk1::__function::__func<CommentsPopup::onLoadComments(cocos2d::CCObject*)::$_0, std::__ndk1::allocator<CommentsPopup::onLoadComments(cocos2d::CCObject*)::$_0>, void (geode::Task<geode::utils::web::WebResponse, geode::utils::web::WebProgress>::Event*)>::__clone() const
FUNC c1938 18 0 std::__ndk1::__function::__func<CommentsPopup::onLoadComments(cocos2d::CCObject*)::$_0, std::__ndk1::allocator<CommentsPopup::onLoadComments(cocos2d::CCObject*)::$_0>, void (geode::Task<geode::utils::web::WebResponse, geode::utils::web::WebProgress>::Event*)>::__clone(std::__ndk1::__function::__base<void (geode::Task<geode::utils::web::WebResponse, geode::utils::web::WebProgress>::Event*)>*) const
FUNC c1950 4 0 std::__ndk1::__function::__func<CommentsPopup::onLoadComments(cocos2d::CCObject*)::$_0, std::__ndk1::allocator<CommentsPopup::onLoadComments(cocos2d::CCObject*)::$_0>, void (geode::Task<geode::utils::web::WebResponse, geode::utils::web::WebProgress>::Event*)>::destroy()
FUNC c1954 4 0 std::__ndk1::__function::__func<CommentsPopup::onLoadComments(cocos2d::CCObject*)::$_0, std::__ndk1::allocator<CommentsPopup::onLoadComments(cocos2d::CCObject*)::$_0>, void (geode::Task<geode::utils::web::WebResponse, geode::utils::web::WebProgress>::Event*)>::destroy_deallocate()
FUNC c1958 1cd0 0 std::__ndk1::__function::__func<CommentsPopup::onLoadComments(cocos2d::CCObject*)::$_0, std::__ndk1::allocator<CommentsPopup::onLoadComments(cocos2d::CCObject*)::$_0>, void (geode::Task<geode::utils::web::WebResponse, geode::utils::web::WebProgress>::Event*)>::operator()(geode::Task<geode::utils::web::WebResponse, geode::utils::web::WebProgress>::Event*&&)
FUNC c3628 1c 0 std::__ndk1::__function::__func<CommentsPopup::onLoadComments(cocos2d::CCObject*)::$_0, std::__ndk1::allocator<CommentsPopup::onLoadComments(cocos2d::CCObject*)::$_0>, void (geode::Task<geode::utils::web::WebResponse, geode::utils::web::WebProgress>::Event*)>::target(std::type_info const&) const
FUNC c3644 c 0 std::__ndk1::__function::__func<CommentsPopup::onLoadComments(cocos2d::CCObject*)::$_0, std::__ndk1::allocator<CommentsPopup::onLoadComments(cocos2d::CCObject*)::$_0>, void (geode::Task<geode::utils::web::WebResponse, geode::utils::web::WebProgress>::Event*)>::target_type() const
FUNC c3650 74 0 geode::impl::ResultData<CommentData, std::__ndk1::basic_string<char, std::__ndk1::char_traits<char>, std::__ndk1::allocator<char> > >::~ResultData()
FUNC c36c4 7c 0 geode::impl::ResultData<matjson::Value const&, std::__ndk1::basic_string<char, std::__ndk1::char_traits<char>, std::__ndk1::allocator<char> > >::unwrap() &
FUNC c3740 114 0 std::__ndk1::vector<matjson::Value, std::__ndk1::allocator<matjson::Value> >::vector[abi:ne180000](std::initializer_list<matjson::Value>)
FUNC c3854 4 0 std::__ndk1::__function::__func<CommentsPopup::onLoadComments(cocos2d::CCObject*)::$_0::operator()(geode::Task<geode::utils::web::WebResponse, geode::utils::web::WebProgress>::Event*) const::{lambda()#1}, std::__ndk1::allocator<CommentsPopup::onLoadComments(cocos2d::CCObject*)::$_0::operator()(geode::Task<geode::utils::web::WebResponse, geode::utils::web::WebProgress>::Event*) const::{lambda()#1}>, void ()>::~__func()
FUNC c3858 34 0 std::__ndk1::__function::__func<CommentsPopup::onLoadComments(cocos2d::CCObject*)::$_0::operator()(geode::Task<geode::utils::web::WebResponse, geode::utils::web::WebProgress>::Event*) const::{lambda()#1}, std::__ndk1::allocator<CommentsPopup::onLoadComments(cocos2d::CCObject*)::$_0::operator()(geode::Task<geode::utils::web::WebResponse, geode::utils::web::WebProgress>::Event*) const::{lambda()#1}>, void ()>::__clone() const
FUNC c388c 14 0 std::__ndk1::__function::__func<CommentsPopup::onLoadComments(cocos2d::CCObject*)::$_0::operator()(geode::Task<geode::utils::web::WebResponse, geode::utils::web::WebProgress>::Event*) const::{lambda()#1}, std::__ndk1::allocator<CommentsPopup::onLoadComments(cocos2d::CCObject*)::$_0::operator()(geode::Task<geode::utils::web::WebResponse, geode::utils::web::WebProgress>::Event*) const::{lambda()#1}>, void ()>::__clone(std::__ndk1::__function::__base<void ()>*) const
FUNC c38a0 4 0 std::__ndk1::__function::__func<CommentsPopup::onLoadComments(cocos2d::CCObject*)::$_0::operator()(geode::Task<geode::utils::web::WebResponse, geode::utils::web::WebProgress>::Event*) const::{lambda()#1}, std::__ndk1::allocator<CommentsPopup::onLoadComments(cocos2d::CCObject*)::$_0::operator()(geode::Task<geode::utils::web::WebResponse, geode::utils::web::WebProgress>::Event*) const::{lambda()#1}>, void ()>::destroy()
FUNC c38a4 4 0 std::__ndk1::__function::__func<CommentsPopup::onLoadComments(cocos2d::CCObject*)::$_0::operator()(geode::Task<geode::utils::web::WebResponse, geode::utils::web::WebProgress>::Event*) const::{lambda()#1}, std::__ndk1::allocator<CommentsPopup::onLoadComments(cocos2d::CCObject*)::$_0::operator()(geode::Task<geode::utils::web::WebResponse, geode::utils::web::WebProgress>::Event*) const::{lambda()#1}>, void ()>::destroy_deallocate()
FUNC c38a8 8 0 std::__ndk1::__function::__func<CommentsPopup::onLoadComments(cocos2d::CCObject*)::$_0::operator()(geode::Task<geode::utils::web::WebResponse, geode::utils::web::WebProgress>::Event*) const::{lambda()#1}, std::__ndk1::allocator<CommentsPopup::onLoadComments(cocos2d::CCObject*)::$_0::operator()(geode::Task<geode::utils::web::WebResponse, geode::utils::web::WebProgress>::Event*) const::{lambda()#1}>, void ()>::operator()()
FUNC c38b0 1c 0 std::__ndk1::__function::__func<CommentsPopup::onLoadComments(cocos2d::CCObject*)::$_0::operator()(geode::Task<geode::utils::web::WebResponse, geode::utils::web::WebProgress>::Event*) const::{lambda()#1}, std::__ndk1::allocator<CommentsPopup::onLoadComments(cocos2d::CCObject*)::$_0::operator()(geode::Task<geode::utils::web::WebResponse, geode::utils::web::WebProgress>::Event*) const::{lambda()#1}>, void ()>::target(std::type_info const&) const
FUNC c38cc c 0 std::__ndk1::__function::__func<CommentsPopup::onLoadComments(cocos2d::CCObject*)::$_0::operator()(geode::Task<geode::utils::web::WebResponse, geode::utils::web::WebProgress>::Event*) const::{lambda()#1}, std::__ndk1::allocator<CommentsPopup::onLoadComments(cocos2d::CCObject*)::$_0::operator()(geode::Task<geode::utils::web::WebResponse, geode::utils::web::WebProgress>::Event*) const::{lambda()#1}>, void ()>::target_type() const
FUNC c38d8 64 0 std::__ndk1::__variant_detail::__visitation::__base::__dispatcher<(unsigned long)0>::__dispatch[abi:ne180000]<std::__ndk1::__variant_detail::__dtor<std::__ndk1::__variant_detail::__traits<CommentData, std::__ndk1::basic_string<char, std::__ndk1::char_traits<char>, std::__ndk1::allocator<char> > >, (std::__ndk1::__variant_detail::_Trait)1>::__destroy[abi:ne180000]()::{lambda(auto:1&)#1}, std::__ndk1::__variant_detail::__base<(std::__ndk1::__variant_detail::__traits<CommentData, std::__ndk1::basic_string<char, std::__ndk1::char_traits<char>, std::__ndk1::allocator<char> > >)1, std::__ndk1::__variant_detail::__traits, std::__ndk1::allocator<char> >&>(std::__ndk1::__variant_detail::__dtor<std::__ndk1::__variant_detail::__traits<CommentData, std::__ndk1::basic_string<char, std::__ndk1::char_traits<char>, std::__ndk1::allocator<char> > >, (std::__ndk1::__variant_detail::_Trait)1>, std::__ndk1::__variant_detail::__base<(std::__ndk1::__variant_detail::__traits<CommentData, std::__ndk1::basic_string<char, std::__ndk1::char_traits<char>, std::__ndk1::allocator<char> > >)1, std::__ndk1::__variant_detail::__traits, std::__ndk1::allocator<char> >&)
FUNC c393c 14 0 std::__ndk1::__variant_detail::__visitation::__base::__dispatcher<(unsigned long)1>::__dispatch[abi:ne180000]<std::__ndk1::__variant_detail::__dtor<std::__ndk1::__variant_detail::__traits<CommentData, std::__ndk1::basic_string<char, std::__ndk1::char_traits<char>, std::__ndk1::allocator<char> > >, (std::__ndk1::__variant_detail::_Trait)1>::__destroy[abi:ne180000]()::{lambda(auto:1&)#1}, std::__ndk1::__variant_detail::__base<(std::__ndk1::__variant_detail::__traits<CommentData, std::__ndk1::basic_string<char, std::__ndk1::char_traits<char>, std::__ndk1::allocator<char> > >)1, std::__ndk1::__variant_detail::__traits, std::__ndk1::allocator<char> >&>(std::__ndk1::__variant_detail::__dtor<std::__ndk1::__variant_detail::__traits<CommentData, std::__ndk1::basic_string<char, std::__ndk1::char_traits<char>, std::__ndk1::allocator<char> > >, (std::__ndk1::__variant_detail::_Trait)1>, std::__ndk1::__variant_detail::__base<(std::__ndk1::__variant_detail::__traits<CommentData, std::__ndk1::basic_string<char, std::__ndk1::char_traits<char>, std::__ndk1::allocator<char> > >)1, std::__ndk1::__variant_detail::__traits, std::__ndk1::allocator<char> >&)
FUNC c3950 1088 0 EditPopup::setup(ObjectData, std::__ndk1::unordered_set<std::__ndk1::basic_string<char, std::__ndk1::char_traits<char>, std::__ndk1::allocator<char> >, std::__ndk1::hash<std::__ndk1::basic_string<char, std::__ndk1::char_traits<char>, std::__ndk1::allocator<char> > >, std::__ndk1::equal_to<std::__ndk1::basic_string<char, std::__ndk1::char_traits<char>, std::__ndk1::allocator<char> > >, std::__ndk1::allocator<std::__ndk1::basic_string<char, std::__ndk1::char_traits<char>, std::__ndk1::allocator<char> > > >, UserData)
FUNC c49d8 1ac 0 EditPopup::updateDescObj(std::__ndk1::basic_string<char, std::__ndk1::char_traits<char>, std::__ndk1::allocator<char> >)
FUNC c4b84 990 0 EditPopup::onUpdateBtn(cocos2d::CCObject*)
FUNC c5514 170 0 EditPopup::onOverwriteBtn(cocos2d::CCObject*)
FUNC c5684 258 0 EditPopup::~EditPopup()
FUNC c58dc 24 0 EditPopup::~EditPopup()
FUNC c5900 2c 0 geode::Popup<ObjectData, std::__ndk1::unordered_set<std::__ndk1::basic_string<char, std::__ndk1::char_traits<char>, std::__ndk1::allocator<char> >, std::__ndk1::hash<std::__ndk1::basic_string<char, std::__ndk1::char_traits<char>, std::__ndk1::allocator<char> > >, std::__ndk1::equal_to<std::__ndk1::basic_string<char, std::__ndk1::char_traits<char>, std::__ndk1::allocator<char> > >, std::__ndk1::allocator<std::__ndk1::basic_string<char, std::__ndk1::char_traits<char>, std::__ndk1::allocator<char> > > >, UserData>::registerWithTouchDispatcher()
FUNC c592c 28 0 geode::Popup<ObjectData, std::__ndk1::unordered_set<std::__ndk1::basic_string<char, std::__ndk1::char_traits<char>, std::__ndk1::allocator<char> >, std::__ndk1::hash<std::__ndk1::basic_string<char, std::__ndk1::char_traits<char>, std::__ndk1::allocator<char> > >, std::__ndk1::equal_to<std::__ndk1::basic_string<char, std::__ndk1::char_traits<char>, std::__ndk1::allocator<char> > >, std::__ndk1::allocator<std::__ndk1::basic_string<char, std::__ndk1::char_traits<char>, std::__ndk1::allocator<char> > > >, UserData>::keyDown(cocos2d::enumKeyCodes)
FUNC c5954 10 0 EditPopup::onClose(cocos2d::CCObject*)
FUNC c5964 8 0 {virtual override thunk({offset(-320)}, EditPopup::~EditPopup())}
FUNC c596c 28 0 {virtual override thunk({offset(-320)}, EditPopup::~EditPopup())}
FUNC c5994 2c 0 {virtual override thunk({offset(-344)}, geode::Popup<ObjectData, std::__ndk1::unordered_set<std::__ndk1::basic_string<char, std::__ndk1::char_traits<char>, std::__ndk1::allocator<char> >, std::__ndk1::hash<std::__ndk1::basic_string<char, std::__ndk1::char_traits<char>, std::__ndk1::allocator<char> > >, std::__ndk1::equal_to<std::__ndk1::basic_string<char, std::__ndk1::char_traits<char>, std::__ndk1::allocator<char> > >, std::__ndk1::allocator<std::__ndk1::basic_string<char, std::__ndk1::char_traits<char>, std::__ndk1::allocator<char> > > >, UserData>::keyDown(cocos2d::enumKeyCodes))}
FUNC c59c0 6c 0 geode::Popup<ObjectData, std::__ndk1::unordered_set<std::__ndk1::basic_string<char, std::__ndk1::char_traits<char>, std::__ndk1::allocator<char> >, std::__ndk1::hash<std::__ndk1::basic_string<char, std::__ndk1::char_traits<char>, std::__ndk1::allocator<char> > >, std::__ndk1::equal_to<std::__ndk1::basic_string<char, std::__ndk1::char_traits<char>, std::__ndk1::allocator<char> > >, std::__ndk1::allocator<std::__ndk1::basic_string<char, std::__ndk1::char_traits<char>, std::__ndk1::allocator<char> > > >, UserData>::~Popup()
FUNC c5a2c 4 0 geode::Popup<ObjectData, std::__ndk1::unordered_set<std::__ndk1::basic_string<char, std::__ndk1::char_traits<char>, std::__ndk1::allocator<char> >, std::__ndk1::hash<std::__ndk1::basic_string<char, std::__ndk1::char_traits<char>, std::__ndk1::allocator<char> > >, std::__ndk1::equal_to<std::__ndk1::basic_string<char, std::__ndk1::char_traits<char>, std::__ndk1::allocator<char> > >, std::__ndk1::allocator<std::__ndk1::basic_string<char, std::__ndk1::char_traits<char>, std::__ndk1::allocator<char> > > >, UserData>::~Popup()
FUNC c5a30 148 0 geode::Popup<ObjectData, std::__ndk1::unordered_set<std::__ndk1::basic_string<char, std::__ndk1::char_traits<char>, std::__ndk1::allocator<char> >, std::__ndk1::hash<std::__ndk1::basic_string<char, std::__ndk1::char_traits<char>, std::__ndk1::allocator<char> > >, std::__ndk1::equal_to<std::__ndk1::basic_string<char, std::__ndk1::char_traits<char>, std::__ndk1::allocator<char> > >, std::__ndk1::allocator<std::__ndk1::basic_string<char, std::__ndk1::char_traits<char>, std::__ndk1::allocator<char> > > >, UserData>::onClose(cocos2d::CCObject*)
FUNC c5b78 6c 0 {virtual override thunk({offset(-320)}, geode::Popup<ObjectData, std::__ndk1::unordered_set<std::__ndk1::basic_string<char, std::__ndk1::char_traits<char>, std::__ndk1::allocator<char> >, std::__ndk1::hash<std::__ndk1::basic_string<char, std::__ndk1::char_traits<char>, std::__ndk1::allocator<char> > >, std::__ndk1::equal_to<std::__ndk1::basic_string<char, std::__ndk1::char_traits<char>, std::__ndk1::allocator<char> > >, std::__ndk1::allocator<std::__ndk1::basic_string<char, std::__ndk1::char_traits<char>, std::__ndk1::allocator<char> > > >, UserData>::~Popup())}
FUNC c5be4 4 0 {virtual override thunk({offset(-320)}, geode::Popup<ObjectData, std::__ndk1::unordered_set<std::__ndk1::basic_string<char, std::__ndk1::char_traits<char>, std::__ndk1::allocator<char> >, std::__ndk1::hash<std::__ndk1::basic_string<char, std::__ndk1::char_traits<char>, std::__ndk1::allocator<char> > >, std::__ndk1::equal_to<std::__ndk1::basic_string<char, std::__ndk1::char_traits<char>, std::__ndk1::allocator<char> > >, std::__ndk1::allocator<std::__ndk1::basic_string<char, std::__ndk1::char_traits<char>, std::__ndk1::allocator<char> > > >, UserData>::~Popup())}
FUNC c5be8 50 0 geode::Popup<ObjectData, std::__ndk1::unordered_set<std::__ndk1::basic_string<char, std::__ndk1::char_traits<char>, std::__ndk1::allocator<char> >, std::__ndk1::hash<std::__ndk1::basic_string<char, std::__ndk1::char_traits<char>, std::__ndk1::allocator<char> > >, std::__ndk1::equal_to<std::__ndk1::basic_string<char, std::__ndk1::char_traits<char>, std::__ndk1::allocator<char> > >, std::__ndk1::allocator<std::__ndk1::basic_string<char, std::__ndk1::char_traits<char>, std::__ndk1::allocator<char> > > >, UserData>::CloseEvent::~CloseEvent()
FUNC c5c38 58 0 geode::Popup<ObjectData, std::__ndk1::unordered_set<std::__ndk1::basic_string<char, std::__ndk1::char_traits<char>, std::__ndk1::allocator<char> >, std::__ndk1::hash<std::__ndk1::basic_string<char, std::__ndk1::char_traits<char>, std::__ndk1::allocator<char> > >, std::__ndk1::equal_to<std::__ndk1::basic_string<char, std::__ndk1::char_traits<char>, std::__ndk1::allocator<char> > >, std::__ndk1::allocator<std::__ndk1::basic_string<char, std::__ndk1::char_traits<char>, std::__ndk1::allocator<char> > > >, UserData>::CloseEvent::~CloseEvent()
FUNC c5c90 10 0 std::__ndk1::__shared_ptr_emplace<geode::Popup<ObjectData, std::__ndk1::unordered_set<std::__ndk1::basic_string<char, std::__ndk1::char_traits<char>, std::__ndk1::allocator<char> >, std::__ndk1::hash<std::__ndk1::basic_string<char, std::__ndk1::char_traits<char>, std::__ndk1::allocator<char> > >, std::__ndk1::equal_to<std::__ndk1::basic_string<char, std::__ndk1::char_traits<char>, std::__ndk1::allocator<char> > >, std::__ndk1::allocator<std::__ndk1::basic_string<char, std::__ndk1::char_traits<char>, std::__ndk1::allocator<char> > > >, UserData>::CloseEvent::Impl, std::__ndk1::allocator<geode::Popup<ObjectData, std::__ndk1::unordered_set<std::__ndk1::basic_string<char, std::__ndk1::char_traits<char>, std::__ndk1::allocator<char> >, std::__ndk1::hash<std::__ndk1::basic_string<char, std::__ndk1::char_traits<char>, std::__ndk1::allocator<char> > >, std::__ndk1::equal_to<std::__ndk1::basic_string<char, std::__ndk1::char_traits<char>, std::__ndk1::allocator<char> > >, std::__ndk1::allocator<std::__ndk1::basic_string<char, std::__ndk1::char_traits<char>, std::__ndk1::allocator<char> > > >, UserData>::CloseEvent::Impl> >::~__shared_ptr_emplace()
FUNC c5ca0 30 0 std::__ndk1::__shared_ptr_emplace<geode::Popup<ObjectData, std::__ndk1::unordered_set<std::__ndk1::basic_string<char, std::__ndk1::char_traits<char>, std::__ndk1::allocator<char> >, std::__ndk1::hash<std::__ndk1::basic_string<char, std::__ndk1::char_traits<char>, std::__ndk1::allocator<char> > >, std::__ndk1::equal_to<std::__ndk1::basic_string<char, std::__ndk1::char_traits<char>, std::__ndk1::allocator<char> > >, std::__ndk1::allocator<std::__ndk1::basic_string<char, std::__ndk1::char_traits<char>, std::__ndk1::allocator<char> > > >, UserData>::CloseEvent::Impl, std::__ndk1::allocator<geode::Popup<ObjectData, std::__ndk1::unordered_set<std::__ndk1::basic_string<char, std::__ndk1::char_traits<char>, std::__ndk1::allocator<char> >, std::__ndk1::hash<std::__ndk1::basic_string<char, std::__ndk1::char_traits<char>, std::__ndk1::allocator<char> > >, std::__ndk1::equal_to<std::__ndk1::basic_string<char, std::__ndk1::char_traits<char>, std::__ndk1::allocator<char> > >, std::__ndk1::allocator<std::__ndk1::basic_string<char, std::__ndk1::char_traits<char>, std::__ndk1::allocator<char> > > >, UserData>::CloseEvent::Impl> >::~__shared_ptr_emplace()
FUNC c5cd0 4 0 std::__ndk1::__shared_ptr_emplace<geode::Popup<ObjectData, std::__ndk1::unordered_set<std::__ndk1::basic_string<char, std::__ndk1::char_traits<char>, std::__ndk1::allocator<char> >, std::__ndk1::hash<std::__ndk1::basic_string<char, std::__ndk1::char_traits<char>, std::__ndk1::allocator<char> > >, std::__ndk1::equal_to<std::__ndk1::basic_string<char, std::__ndk1::char_traits<char>, std::__ndk1::allocator<char> > >, std::__ndk1::allocator<std::__ndk1::basic_string<char, std::__ndk1::char_traits<char>, std::__ndk1::allocator<char> > > >, UserData>::CloseEvent::Impl, std::__ndk1::allocator<geode::Popup<ObjectData, std::__ndk1::unordered_set<std::__ndk1::basic_string<char, std::__ndk1::char_traits<char>, std::__ndk1::allocator<char> >, std::__ndk1::hash<std::__ndk1::basic_string<char, std::__ndk1::char_traits<char>, std::__ndk1::allocator<char> > >, std::__ndk1::equal_to<std::__ndk1::basic_string<char, std::__ndk1::char_traits<char>, std::__ndk1::allocator<char> > >, std::__ndk1::allocator<std::__ndk1::basic_string<char, std::__ndk1::char_traits<char>, std::__ndk1::allocator<char> > > >, UserData>::CloseEvent::Impl> >::__on_zero_shared()
FUNC c5cd4 4 0 std::__ndk1::__shared_ptr_emplace<geode::Popup<ObjectData, std::__ndk1::unordered_set<std::__ndk1::basic_string<char, std::__ndk1::char_traits<char>, std::__ndk1::allocator<char> >, std::__ndk1::hash<std::__ndk1::basic_string<char, std::__ndk1::char_traits<char>, std::__ndk1::allocator<char> > >, std::__ndk1::equal_to<std::__ndk1::basic_string<char, std::__ndk1::char_traits<char>, std::__ndk1::allocator<char> > >, std::__ndk1::allocator<std::__ndk1::basic_string<char, std::__ndk1::char_traits<char>, std::__ndk1::allocator<char> > > >, UserData>::CloseEvent::Impl, std::__ndk1::allocator<geode::Popup<ObjectData, std::__ndk1::unordered_set<std::__ndk1::basic_string<char, std::__ndk1::char_traits<char>, std::__ndk1::allocator<char> >, std::__ndk1::hash<std::__ndk1::basic_string<char, std::__ndk1::char_traits<char>, std::__ndk1::allocator<char> > >, std::__ndk1::equal_to<std::__ndk1::basic_string<char, std::__ndk1::char_traits<char>, std::__ndk1::allocator<char> > >, std::__ndk1::allocator<std::__ndk1::basic_string<char, std::__ndk1::char_traits<char>, std::__ndk1::allocator<char> > > >, UserData>::CloseEvent::Impl> >::__on_zero_shared_weak()
FUNC c5cd8 4 0 std::__ndk1::__function::__func<EditPopup::setup(ObjectData, std::__ndk1::unordered_set<std::__ndk1::basic_string<char, std::__ndk1::char_traits<char>, std::__ndk1::allocator<char> >, std::__ndk1::hash<std::__ndk1::basic_string<char, std::__ndk1::char_traits<char>, std::__ndk1::allocator<char> > >, std::__ndk1::equal_to<std::__ndk1::basic_string<char, std::__ndk1::char_traits<char>, std::__ndk1::allocator<char> > >, std::__ndk1::allocator<std::__ndk1::basic_string<char, std::__ndk1::char_traits<char>, std::__ndk1::allocator<char> > > >, UserData)::$_0, std::__ndk1::allocator<EditPopup::setup(ObjectData, std::__ndk1::unordered_set<std::__ndk1::basic_string<char, std::__ndk1::char_traits<char>, std::__ndk1::allocator<char> >, std::__ndk1::hash<std::__ndk1::basic_string<char, std::__ndk1::char_traits<char>, std::__ndk1::allocator<char> > >, std::__ndk1::equal_to<std::__ndk1::basic_string<char, std::__ndk1::char_traits<char>, std::__ndk1::allocator<char> > >, std::__ndk1::allocator<std::__ndk1::basic_string<char, std::__ndk1::char_traits<char>, std::__ndk1::allocator<char> > > >, UserData)::$_0>, void (std::__ndk1::basic_string<char, std::__ndk1::char_traits<char>, std::__ndk1::allocator<char> >)>::~__func()
FUNC c5cdc 34 0 std::__ndk1::__function::__func<EditPopup::setup(ObjectData, std::__ndk1::unordered_set<std::__ndk1::basic_string<char, std::__ndk1::char_traits<char>, std::__ndk1::allocator<char> >, std::__ndk1::hash<std::__ndk1::basic_string<char, std::__ndk1::char_traits<char>, std::__ndk1::allocator<char> > >, std::__ndk1::equal_to<std::__ndk1::basic_string<char, std::__ndk1::char_traits<char>, std::__ndk1::allocator<char> > >, std::__ndk1::allocator<std::__ndk1::basic_string<char, std::__ndk1::char_traits<char>, std::__ndk1::allocator<char> > > >, UserData)::$_0, std::__ndk1::allocator<EditPopup::setup(ObjectData, std::__ndk1::unordered_set<std::__ndk1::basic_string<char, std::__ndk1::char_traits<char>, std::__ndk1::allocator<char> >, std::__ndk1::hash<std::__ndk1::basic_string<char, std::__ndk1::char_traits<char>, std::__ndk1::allocator<char> > >, std::__ndk1::equal_to<std::__ndk1::basic_string<char, std::__ndk1::char_traits<char>, std::__ndk1::allocator<char> > >, std::__ndk1::allocator<std::__ndk1::basic_string<char, std::__ndk1::char_traits<char>, std::__ndk1::allocator<char> > > >, UserData)::$_0>, void (std::__ndk1::basic_string<char, std::__ndk1::char_traits<char>, std::__ndk1::allocator<char> >)>::__clone() const
FUNC c5d10 14 0 std::__ndk1::__function::__func<EditPopup::setup(ObjectData, std::__ndk1::unordered_set<std::__ndk1::basic_string<char, std::__ndk1::char_traits<char>, std::__ndk1::allocator<char> >, std::__ndk1::hash<std::__ndk1::basic_string<char, std::__ndk1::char_traits<char>, std::__ndk1::allocator<char> > >, std::__ndk1::equal_to<std::__ndk1::basic_string<char, std::__ndk1::char_traits<char>, std::__ndk1::allocator<char> > >, std::__ndk1::allocator<std::__ndk1::basic_string<char, std::__ndk1::char_traits<char>, std::__ndk1::allocator<char> > > >, UserData)::$_0, std::__ndk1::allocator<EditPopup::setup(ObjectData, std::__ndk1::unordered_set<std::__ndk1::basic_string<char, std::__ndk1::char_traits<char>, std::__ndk1::allocator<char> >, std::__ndk1::hash<std::__ndk1::basic_string<char, std::__ndk1::char_traits<char>, std::__ndk1::allocator<char> > >, std::__ndk1::equal_to<std::__ndk1::basic_string<char, std::__ndk1::char_traits<char>, std::__ndk1::allocator<char> > >, std::__ndk1::allocator<std::__ndk1::basic_string<char, std::__ndk1::char_traits<char>, std::__ndk1::allocator<char> > > >, UserData)::$_0>, void (std::__ndk1::basic_string<char, std::__ndk1::char_traits<char>, std::__ndk1::allocator<char> >)>::__clone(std::__ndk1::__function::__base<void (std::__ndk1::basic_string<char, std::__ndk1::char_traits<char>, std::__ndk1::allocator<char> >)>*) const
FUNC c5d24 4 0 std::__ndk1::__function::__func<EditPopup::setup(ObjectData, std::__ndk1::unordered_set<std::__ndk1::basic_string<char, std::__ndk1::char_traits<char>, std::__ndk1::allocator<char> >, std::__ndk1::hash<std::__ndk1::basic_string<char, std::__ndk1::char_traits<char>, std::__ndk1::allocator<char> > >, std::__ndk1::equal_to<std::__ndk1::basic_string<char, std::__ndk1::char_traits<char>, std::__ndk1::allocator<char> > >, std::__ndk1::allocator<std::__ndk1::basic_string<char, std::__ndk1::char_traits<char>, std::__ndk1::allocator<char> > > >, UserData)::$_0, std::__ndk1::allocator<EditPopup::setup(ObjectData, std::__ndk1::unordered_set<std::__ndk1::basic_string<char, std::__ndk1::char_traits<char>, std::__ndk1::allocator<char> >, std::__ndk1::hash<std::__ndk1::basic_string<char, std::__ndk1::char_traits<char>, std::__ndk1::allocator<char> > >, std::__ndk1::equal_to<std::__ndk1::basic_string<char, std::__ndk1::char_traits<char>, std::__ndk1::allocator<char> > >, std::__ndk1::allocator<std::__ndk1::basic_string<char, std::__ndk1::char_traits<char>, std::__ndk1::allocator<char> > > >, UserData)::$_0>, void (std::__ndk1::basic_string<char, std::__ndk1::char_traits<char>, std::__ndk1::allocator<char> >)>::destroy()
FUNC c5d28 4 0 std::__ndk1::__function::__func<EditPopup::setup(ObjectData, std::__ndk1::unordered_set<std::__ndk1::basic_string<char, std::__ndk1::char_traits<char>, std::__ndk1::allocator<char> >, std::__ndk1::hash<std::__ndk1::basic_string<char, std::__ndk1::char_traits<char>, std::__ndk1::allocator<char> > >, std::__ndk1::equal_to<std::__ndk1::basic_string<char, std::__ndk1::char_traits<char>, std::__ndk1::allocator<char> > >, std::__ndk1::allocator<std::__ndk1::basic_string<char, std::__ndk1::char_traits<char>, std::__ndk1::allocator<char> > > >, UserData)::$_0, std::__ndk1::allocator<EditPopup::setup(ObjectData, std::__ndk1::unordered_set<std::__ndk1::basic_string<char, std::__ndk1::char_traits<char>, std::__ndk1::allocator<char> >, std::__ndk1::hash<std::__ndk1::basic_string<char, std::__ndk1::char_traits<char>, std::__ndk1::allocator<char> > >, std::__ndk1::equal_to<std::__ndk1::basic_string<char, std::__ndk1::char_traits<char>, std::__ndk1::allocator<char> > >, std::__ndk1::allocator<std::__ndk1::basic_string<char, std::__ndk1::char_traits<char>, std::__ndk1::allocator<char> > > >, UserData)::$_0>, void (std::__ndk1::basic_string<char, std::__ndk1::char_traits<char>, std::__ndk1::allocator<char> >)>::destroy_deallocate()
FUNC c5d2c 100 0 std::__ndk1::__function::__func<EditPopup::setup(ObjectData, std::__ndk1::unordered_set<std::__ndk1::basic_string<char, std::__ndk1::char_traits<char>, std::__ndk1::allocator<char> >, std::__ndk1::hash<std::__ndk1::basic_string<char, std::__ndk1::char_traits<char>, std::__ndk1::allocator<char> > >, std::__ndk1::equal_to<std::__ndk1::basic_string<char, std::__ndk1::char_traits<char>, std::__ndk1::allocator<char> > >, std::__ndk1::allocator<std::__ndk1::basic_string<char, std::__ndk1::char_traits<char>, std::__ndk1::allocator<char> > > >, UserData)::$_0, std::__ndk1::allocator<EditPopup::setup(ObjectData, std::__ndk1::unordered_set<std::__ndk1::basic_string<char, std::__ndk1::char_traits<char>, std::__ndk1::allocator<char> >, std::__ndk1::hash<std::__ndk1::basic_string<char, std::__ndk1::char_traits<char>, std::__ndk1::allocator<char> > >, std::__ndk1::equal_to<std::__ndk1::basic_string<char, std::__ndk1::char_traits<char>, std::__ndk1::allocator<char> > >, std::__ndk1::allocator<std::__ndk1::basic_string<char, std::__ndk1::char_traits<char>, std::__ndk1::allocator<char> > > >, UserData)::$_0>, void (std::__ndk1::basic_string<char, std::__ndk1::char_traits<char>, std::__ndk1::allocator<char> >)>::operator()(std::__ndk1::basic_string<char, std::__ndk1::char_traits<char>, std::__ndk1::allocator<char> >&&)
FUNC c5e2c 1c 0 std::__ndk1::__function::__func<EditPopup::setup(ObjectData, std::__ndk1::unordered_set<std::__ndk1::basic_string<char, std::__ndk1::char_traits<char>, std::__ndk1::allocator<char> >, std::__ndk1::hash<std::__ndk1::basic_string<char, std::__ndk1::char_traits<char>, std::__ndk1::allocator<char> > >, std::__ndk1::equal_to<std::__ndk1::basic_string<char, std::__ndk1::char_traits<char>, std::__ndk1::allocator<char> > >, std::__ndk1::allocator<std::__ndk1::basic_string<char, std::__ndk1::char_traits<char>, std::__ndk1::allocator<char> > > >, UserData)::$_0, std::__ndk1::allocator<EditPopup::setup(ObjectData, std::__ndk1::unordered_set<std::__ndk1::basic_string<char, std::__ndk1::char_traits<char>, std::__ndk1::allocator<char> >, std::__ndk1::hash<std::__ndk1::basic_string<char, std::__ndk1::char_traits<char>, std::__ndk1::allocator<char> > >, std::__ndk1::equal_to<std::__ndk1::basic_string<char, std::__ndk1::char_traits<char>, std::__ndk1::allocator<char> > >, std::__ndk1::allocator<std::__ndk1::basic_string<char, std::__ndk1::char_traits<char>, std::__ndk1::allocator<char> > > >, UserData)::$_0>, void (std::__ndk1::basic_string<char, std::__ndk1::char_traits<char>, std::__ndk1::allocator<char> >)>::target(std::type_info const&) const
FUNC c5e48 c 0 std::__ndk1::__function::__func<EditPopup::setup(ObjectData, std::__ndk1::unordered_set<std::__ndk1::basic_string<char, std::__ndk1::char_traits<char>, std::__ndk1::allocator<char> >, std::__ndk1::hash<std::__ndk1::basic_string<char, std::__ndk1::char_traits<char>, std::__ndk1::allocator<char> > >, std::__ndk1::equal_to<std::__ndk1::basic_string<char, std::__ndk1::char_traits<char>, std::__ndk1::allocator<char> > >, std::__ndk1::allocator<std::__ndk1::basic_string<char, std::__ndk1::char_traits<char>, std::__ndk1::allocator<char> > > >, UserData)::$_0, std::__ndk1::allocator<EditPopup::setup(ObjectData, std::__ndk1::unordered_set<std::__ndk1::basic_string<char, std::__ndk1::char_traits<char>, std::__ndk1::allocator<char> >, std::__ndk1::hash<std::__ndk1::basic_string<char, std::__ndk1::char_traits<char>, std::__ndk1::allocator<char> > >, std::__ndk1::equal_to<std::__ndk1::basic_string<char, std::__ndk1::char_traits<char>, std::__ndk1::allocator<char> > >, std::__ndk1::allocator<std::__ndk1::basic_string<char, std::__ndk1::char_traits<char>, std::__ndk1::allocator<char> > > >, UserData)::$_0>, void (std::__ndk1::basic_string<char, std::__ndk1::char_traits<char>, std::__ndk1::allocator<char> >)>::target_type() const
FUNC c5e54 4 0 std::__ndk1::__function::__func<EditPopup::setup(ObjectData, std::__ndk1::unordered_set<std::__ndk1::basic_string<char, std::__ndk1::char_traits<char>, std::__ndk1::allocator<char> >, std::__ndk1::hash<std::__ndk1::basic_string<char, std::__ndk1::char_traits<char>, std::__ndk1::allocator<char> > >, std::__ndk1::equal_to<std::__ndk1::basic_string<char, std::__ndk1::char_traits<char>, std::__ndk1::allocator<char> > >, std::__ndk1::allocator<std::__ndk1::basic_string<char, std::__ndk1::char_traits<char>, std::__ndk1::allocator<char> > > >, UserData)::$_1, std::__ndk1::allocator<EditPopup::setup(ObjectData, std::__ndk1::unordered_set<std::__ndk1::basic_string<char, std::__ndk1::char_traits<char>, std::__ndk1::allocator<char> >, std::__ndk1::hash<std::__ndk1::basic_string<char, std::__ndk1::char_traits<char>, std::__ndk1::allocator<char> > >, std::__ndk1::equal_to<std::__ndk1::basic_string<char, std::__ndk1::char_traits<char>, std::__ndk1::allocator<char> > >, std::__ndk1::allocator<std::__ndk1::basic_string<char, std::__ndk1::char_traits<char>, std::__ndk1::allocator<char> > > >, UserData)::$_1>, void (CCMenuItemSpriteExtra*)>::~__func()
FUNC c5e58 34 0 std::__ndk1::__function::__func<EditPopup::setup(ObjectData, std::__ndk1::unordered_set<std::__ndk1::basic_string<char, std::__ndk1::char_traits<char>, std::__ndk1::allocator<char> >, std::__ndk1::hash<std::__ndk1::basic_string<char, std::__ndk1::char_traits<char>, std::__ndk1::allocator<char> > >, std::__ndk1::equal_to<std::__ndk1::basic_string<char, std::__ndk1::char_traits<char>, std::__ndk1::allocator<char> > >, std::__ndk1::allocator<std::__ndk1::basic_string<char, std::__ndk1::char_traits<char>, std::__ndk1::allocator<char> > > >, UserData)::$_1, std::__ndk1::allocator<EditPopup::setup(ObjectData, std::__ndk1::unordered_set<std::__ndk1::basic_string<char, std::__ndk1::char_traits<char>, std::__ndk1::allocator<char> >, std::__ndk1::hash<std::__ndk1::basic_string<char, std::__ndk1::char_traits<char>, std::__ndk1::allocator<char> > >, std::__ndk1::equal_to<std::__ndk1::basic_string<char, std::__ndk1::char_traits<char>, std::__ndk1::allocator<char> > >, std::__ndk1::allocator<std::__ndk1::basic_string<char, std::__ndk1::char_traits<char>, std::__ndk1::allocator<char> > > >, UserData)::$_1>, void (CCMenuItemSpriteExtra*)>::__clone() const
FUNC c5e8c 14 0 std::__ndk1::__function::__func<EditPopup::setup(ObjectData, std::__ndk1::unordered_set<std::__ndk1::basic_string<char, std::__ndk1::char_traits<char>, std::__ndk1::allocator<char> >, std::__ndk1::hash<std::__ndk1::basic_string<char, std::__ndk1::char_traits<char>, std::__ndk1::allocator<char> > >, std::__ndk1::equal_to<std::__ndk1::basic_string<char, std::__ndk1::char_traits<char>, std::__ndk1::allocator<char> > >, std::__ndk1::allocator<std::__ndk1::basic_string<char, std::__ndk1::char_traits<char>, std::__ndk1::allocator<char> > > >, UserData)::$_1, std::__ndk1::allocator<EditPopup::setup(ObjectData, std::__ndk1::unordered_set<std::__ndk1::basic_string<char, std::__ndk1::char_traits<char>, std::__ndk1::allocator<char> >, std::__ndk1::hash<std::__ndk1::basic_string<char, std::__ndk1::char_traits<char>, std::__ndk1::allocator<char> > >, std::__ndk1::equal_to<std::__ndk1::basic_string<char, std::__ndk1::char_traits<char>, std::__ndk1::allocator<char> > >, std::__ndk1::allocator<std::__ndk1::basic_string<char, std::__ndk1::char_traits<char>, std::__ndk1::allocator<char> > > >, UserData)::$_1>, void (CCMenuItemSpriteExtra*)>::__clone(std::__ndk1::__function::__base<void (CCMenuItemSpriteExtra*)>*) const
FUNC c5ea0 4 0 std::__ndk1::__function::__func<EditPopup::setup(ObjectData, std::__ndk1::unordered_set<std::__ndk1::basic_string<char, std::__ndk1::char_traits<char>, std::__ndk1::allocator<char> >, std::__ndk1::hash<std::__ndk1::basic_string<char, std::__ndk1::char_traits<char>, std::__ndk1::allocator<char> > >, std::__ndk1::equal_to<std::__ndk1::basic_string<char, std::__ndk1::char_traits<char>, std::__ndk1::allocator<char> > >, std::__ndk1::allocator<std::__ndk1::basic_string<char, std::__ndk1::char_traits<char>, std::__ndk1::allocator<char> > > >, UserData)::$_1, std::__ndk1::allocator<EditPopup::setup(ObjectData, std::__ndk1::unordered_set<std::__ndk1::basic_string<char, std::__ndk1::char_traits<char>, std::__ndk1::allocator<char> >, std::__ndk1::hash<std::__ndk1::basic_string<char, std::__ndk1::char_traits<char>, std::__ndk1::allocator<char> > >, std::__ndk1::equal_to<std::__ndk1::basic_string<char, std::__ndk1::char_traits<char>, std::__ndk1::allocator<char> > >, std::__ndk1::allocator<std::__ndk1::basic_string<char, std::__ndk1::char_traits<char>, std::__ndk1::allocator<char> > > >, UserData)::$_1>, void (CCMenuItemSpriteExtra*)>::destroy()
FUNC c5ea4 4 0 std::__ndk1::__function::__func<EditPopup::setup(ObjectData, std::__ndk1::unordered_set<std::__ndk1::basic_string<char, std::__ndk1::char_traits<char>, std::__ndk1::allocator<char> >, std::__ndk1::hash<std::__ndk1::basic_string<char, std::__ndk1::char_traits<char>, std::__ndk1::allocator<char> > >, std::__ndk1::equal_to<std::__ndk1::basic_string<char, std::__ndk1::char_traits<char>, std::__ndk1::allocator<char> > >, std::__ndk1::allocator<std::__ndk1::basic_string<char, std::__ndk1::char_traits<char>, std::__ndk1::allocator<char> > > >, UserData)::$_1, std::__ndk1::allocator<EditPopup::setup(ObjectData, std::__ndk1::unordered_set<std::__ndk1::basic_string<char, std::__ndk1::char_traits<char>, std::__ndk1::allocator<char> >, std::__ndk1::hash<std::__ndk1::basic_string<char, std::__ndk1::char_traits<char>, std::__ndk1::allocator<char> > >, std::__ndk1::equal_to<std::__ndk1::basic_string<char, std::__ndk1::char_traits<char>, std::__ndk1::allocator<char> > >, std::__ndk1::allocator<std::__ndk1::basic_string<char, std::__ndk1::char_traits<char>, std::__ndk1::allocator<char> > > >, UserData)::$_1>, void (CCMenuItemSpriteExtra*)>::destroy_deallocate()
FUNC c5ea8 1ac 0 std::__ndk1::__function::__func<EditPopup::setup(ObjectData, std::__ndk1::unordered_set<std::__ndk1::basic_string<char, std::__ndk1::char_traits<char>, std::__ndk1::allocator<char> >, std::__ndk1::hash<std::__ndk1::basic_string<char, std::__ndk1::char_traits<char>, std::__ndk1::allocator<char> > >, std::__ndk1::equal_to<std::__ndk1::basic_string<char, std::__ndk1::char_traits<char>, std::__ndk1::allocator<char> > >, std::__ndk1::allocator<std::__ndk1::basic_string<char, std::__ndk1::char_traits<char>, std::__ndk1::allocator<char> > > >, UserData)::$_1, std::__ndk1::allocator<EditPopup::setup(ObjectData, std::__ndk1::unordered_set<std::__ndk1::basic_string<char, std::__ndk1::char_traits<char>, std::__ndk1::allocator<char> >, std::__ndk1::hash<std::__ndk1::basic_string<char, std::__ndk1::char_traits<char>, std::__ndk1::allocator<char> > >, std::__ndk1::equal_to<std::__ndk1::basic_string<char, std::__ndk1::char_traits<char>, std::__ndk1::allocator<char> > >, std::__ndk1::allocator<std::__ndk1::basic_string<char, std::__ndk1::char_traits<char>, std::__ndk1::allocator<char> > > >, UserData)::$_1>, void (CCMenuItemSpriteExtra*)>::operator()(CCMenuItemSpriteExtra*&&)
FUNC c6054 1c 0 std::__ndk1::__function::__func<EditPopup::setup(ObjectData, std::__ndk1::unordered_set<std::__ndk1::basic_string<char, std::__ndk1::char_traits<char>, std::__ndk1::allocator<char> >, std::__ndk1::hash<std::__ndk1::basic_string<char, std::__ndk1::char_traits<char>, std::__ndk1::allocator<char> > >, std::__ndk1::equal_to<std::__ndk1::basic_string<char, std::__ndk1::char_traits<char>, std::__ndk1::allocator<char> > >, std::__ndk1::allocator<std::__ndk1::basic_string<char, std::__ndk1::char_traits<char>, std::__ndk1::allocator<char> > > >, UserData)::$_1, std::__ndk1::allocator<EditPopup::setup(ObjectData, std::__ndk1::unordered_set<std::__ndk1::basic_string<char, std::__ndk1::char_traits<char>, std::__ndk1::allocator<char> >, std::__ndk1::hash<std::__ndk1::basic_string<char, std::__ndk1::char_traits<char>, std::__ndk1::allocator<char> > >, std::__ndk1::equal_to<std::__ndk1::basic_string<char, std::__ndk1::char_traits<char>, std::__ndk1::allocator<char> > >, std::__ndk1::allocator<std::__ndk1::basic_string<char, std::__ndk1::char_traits<char>, std::__ndk1::allocator<char> > > >, UserData)::$_1>, void (CCMenuItemSpriteExtra*)>::target(std::type_info const&) const
FUNC c6070 c 0 std::__ndk1::__function::__func<EditPopup::setup(ObjectData, std::__ndk1::unordered_set<std::__ndk1::basic_string<char, std::__ndk1::char_traits<char>, std::__ndk1::allocator<char> >, std::__ndk1::hash<std::__ndk1::basic_string<char, std::__ndk1::char_traits<char>, std::__ndk1::allocator<char> > >, std::__ndk1::equal_to<std::__ndk1::basic_string<char, std::__ndk1::char_traits<char>, std::__ndk1::allocator<char> > >, std::__ndk1::allocator<std::__ndk1::basic_string<char, std::__ndk1::char_traits<char>, std::__ndk1::allocator<char> > > >, UserData)::$_1, std::__ndk1::allocator<EditPopup::setup(ObjectData, std::__ndk1::unordered_set<std::__ndk1::basic_string<char, std::__ndk1::char_traits<char>, std::__ndk1::allocator<char> >, std::__ndk1::hash<std::__ndk1::basic_string<char, std::__ndk1::char_traits<char>, std::__ndk1::allocator<char> > >, std::__ndk1::equal_to<std::__ndk1::basic_string<char, std::__ndk1::char_traits<char>, std::__ndk1::allocator<char> > >, std::__ndk1::allocator<std::__ndk1::basic_string<char, std::__ndk1::char_traits<char>, std::__ndk1::allocator<char> > > >, UserData)::$_1>, void (CCMenuItemSpriteExtra*)>::target_type() const
FUNC c607c 4 0 std::__ndk1::__function::__func<EditPopup::setup(ObjectData, std::__ndk1::unordered_set<std::__ndk1::basic_string<char, std::__ndk1::char_traits<char>, std::__ndk1::allocator<char> >, std::__ndk1::hash<std::__ndk1::basic_string<char, std::__ndk1::char_traits<char>, std::__ndk1::allocator<char> > >, std::__ndk1::equal_to<std::__ndk1::basic_string<char, std::__ndk1::char_traits<char>, std::__ndk1::allocator<char> > >, std::__ndk1::allocator<std::__ndk1::basic_string<char, std::__ndk1::char_traits<char>, std::__ndk1::allocator<char> > > >, UserData)::$_1::operator()(cocos2d::CCObject*) const::{lambda(std::__ndk1::unordered_set<std::__ndk1::basic_string<char, std::__ndk1::char_traits<char>, std::__ndk1::allocator<char> >, std::__ndk1::hash<std::__ndk1::basic_string<char, std::__ndk1::char_traits<char>, std::__ndk1::allocator<char> > >, std::__ndk1::equal_to<std::__ndk1::basic_string<char, std::__ndk1::char_traits<char>, std::__ndk1::allocator<char> > >, std::__ndk1::allocator<std::__ndk1::basic_string<char, std::__ndk1::char_traits<char>, std::__ndk1::allocator<char> > > >)#1}, std::__ndk1::allocator<EditPopup::setup(ObjectData, std::__ndk1::unordered_set<std::__ndk1::basic_string<char, std::__ndk1::char_traits<char>, std::__ndk1::allocator<char> >, std::__ndk1::hash<std::__ndk1::basic_string<char, std::__ndk1::char_traits<char>, std::__ndk1::allocator<char> > >, std::__ndk1::equal_to<std::__ndk1::basic_string<char, std::__ndk1::char_traits<char>, std::__ndk1::allocator<char> > >, std::__ndk1::allocator<std::__ndk1::basic_string<char, std::__ndk1::char_traits<char>, std::__ndk1::allocator<char> > > >, UserData)::$_1::operator()(cocos2d::CCObject*) const::{lambda(std::__ndk1::unordered_set<std::__ndk1::basic_string<char, std::__ndk1::char_traits<char>, std::__ndk1::allocator<char> >, std::__ndk1::hash<std::__ndk1::basic_string<char, std::__ndk1::char_traits<char>, std::__ndk1::allocator<char> > >, std::__ndk1::equal_to<std::__ndk1::basic_string<char, std::__ndk1::char_traits<char>, std::__ndk1::allocator<char> > >, std::__ndk1::allocator<std::__ndk1::basic_string<char, std::__ndk1::char_traits<char>, std::__ndk1::allocator<char> > > >)#1}>, void (std::__ndk1::unordered_set<std::__ndk1::basic_string<char, std::__ndk1::char_traits<char>, std::__ndk1::allocator<char> >, std::__ndk1::hash<std::__ndk1::basic_string<char, std::__ndk1::char_traits<char>, std::__ndk1::allocator<char> > >, std::__ndk1::equal_to<std::__ndk1::basic_string<char, std::__ndk1::char_traits<char>, std::__ndk1::allocator<char> > >, std::__ndk1::allocator<std::__ndk1::basic_string<char, std::__ndk1::char_traits<char>, std::__ndk1::allocator<char> > > >)>::~__func()
FUNC c6080 34 0 std::__ndk1::__function::__func<EditPopup::setup(ObjectData, std::__ndk1::unordered_set<std::__ndk1::basic_string<char, std::__ndk1::char_traits<char>, std::__ndk1::allocator<char> >, std::__ndk1::hash<std::__ndk1::basic_string<char, std::__ndk1::char_traits<char>, std::__ndk1::allocator<char> > >, std::__ndk1::equal_to<std::__ndk1::basic_string<char, std::__ndk1::char_traits<char>, std::__ndk1::allocator<char> > >, std::__ndk1::allocator<std::__ndk1::basic_string<char, std::__ndk1::char_traits<char>, std::__ndk1::allocator<char> > > >, UserData)::$_1::operator()(cocos2d::CCObject*) const::{lambda(std::__ndk1::unordered_set<std::__ndk1::basic_string<char, std::__ndk1::char_traits<char>, std::__ndk1::allocator<char> >, std::__ndk1::hash<std::__ndk1::basic_string<char, std::__ndk1::char_traits<char>, std::__ndk1::allocator<char> > >, std::__ndk1::equal_to<std::__ndk1::basic_string<char, std::__ndk1::char_traits<char>, std::__ndk1::allocator<char> > >, std::__ndk1::allocator<std::__ndk1::basic_string<char, std::__ndk1::char_traits<char>, std::__ndk1::allocator<char> > > >)#1}, std::__ndk1::allocator<EditPopup::setup(ObjectData, std::__ndk1::unordered_set<std::__ndk1::basic_string<char, std::__ndk1::char_traits<char>, std::__ndk1::allocator<char> >, std::__ndk1::hash<std::__ndk1::basic_string<char, std::__ndk1::char_traits<char>, std::__ndk1::allocator<char> > >, std::__ndk1::equal_to<std::__ndk1::basic_string<char, std::__ndk1::char_traits<char>, std::__ndk1::allocator<char> > >, std::__ndk1::allocator<std::__ndk1::basic_string<char, std::__ndk1::char_traits<char>, std::__ndk1::allocator<char> > > >, UserData)::$_1::operator()(cocos2d::CCObject*) const::{lambda(std::__ndk1::unordered_set<std::__ndk1::basic_string<char, std::__ndk1::char_traits<char>, std::__ndk1::allocator<char> >, std::__ndk1::hash<std::__ndk1::basic_string<char, std::__ndk1::char_traits<char>, std::__ndk1::allocator<char> > >, std::__ndk1::equal_to<std::__ndk1::basic_string<char, std::__ndk1::char_traits<char>, std::__ndk1::allocator<char> > >, std::__ndk1::allocator<std::__ndk1::basic_string<char, std::__ndk1::char_traits<char>, std::__ndk1::allocator<char> > > >)#1}>, void (std::__ndk1::unordered_set<std::__ndk1::basic_string<char, std::__ndk1::char_traits<char>, std::__ndk1::allocator<char> >, std::__ndk1::hash<std::__ndk1::basic_string<char, std::__ndk1::char_traits<char>, std::__ndk1::allocator<char> > >, std::__ndk1::equal_to<std::__ndk1::basic_string<char, std::__ndk1::char_traits<char>, std::__ndk1::allocator<char> > >, std::__ndk1::allocator<std::__ndk1::basic_string<char, std::__ndk1::char_traits<char>, std::__ndk1::allocator<char> > > >)>::__clone() const
FUNC c60b4 14 0 std::__ndk1::__function::__func<EditPopup::setup(ObjectData, std::__ndk1::unordered_set<std::__ndk1::basic_string<char, std::__ndk1::char_traits<char>, std::__ndk1::allocator<char> >, std::__ndk1::hash<std::__ndk1::basic_string<char, std::__ndk1::char_traits<char>, std::__ndk1::allocator<char> > >, std::__ndk1::equal_to<std::__ndk1::basic_string<char, std::__ndk1::char_traits<char>, std::__ndk1::allocator<char> > >, std::__ndk1::allocator<std::__ndk1::basic_string<char, std::__ndk1::char_traits<char>, std::__ndk1::allocator<char> > > >, UserData)::$_1::operator()(cocos2d::CCObject*) const::{lambda(std::__ndk1::unordered_set<std::__ndk1::basic_string<char, std::__ndk1::char_traits<char>, std::__ndk1::allocator<char> >, std::__ndk1::hash<std::__ndk1::basic_string<char, std::__ndk1::char_traits<char>, std::__ndk1::allocator<char> > >, std::__ndk1::equal_to<std::__ndk1::basic_string<char, std::__ndk1::char_traits<char>, std::__ndk1::allocator<char> > >, std::__ndk1::allocator<std::__ndk1::basic_string<char, std::__ndk1::char_traits<char>, std::__ndk1::allocator<char> > > >)#1}, std::__ndk1::allocator<EditPopup::setup(ObjectData, std::__ndk1::unordered_set<std::__ndk1::basic_string<char, std::__ndk1::char_traits<char>, std::__ndk1::allocator<char> >, std::__ndk1::hash<std::__ndk1::basic_string<char, std::__ndk1::char_traits<char>, std::__ndk1::allocator<char> > >, std::__ndk1::equal_to<std::__ndk1::basic_string<char, std::__ndk1::char_traits<char>, std::__ndk1::allocator<char> > >, std::__ndk1::allocator<std::__ndk1::basic_string<char, std::__ndk1::char_traits<char>, std::__ndk1::allocator<char> > > >, UserData)::$_1::operator()(cocos2d::CCObject*) const::{lambda(std::__ndk1::unordered_set<std::__ndk1::basic_string<char, std::__ndk1::char_traits<char>, std::__ndk1::allocator<char> >, std::__ndk1::hash<std::__ndk1::basic_string<char, std::__ndk1::char_traits<char>, std::__ndk1::allocator<char> > >, std::__ndk1::equal_to<std::__ndk1::basic_string<char, std::__ndk1::char_traits<char>, std::__ndk1::allocator<char> > >, std::__ndk1::allocator<std::__ndk1::basic_string<char, std::__ndk1::char_traits<char>, std::__ndk1::allocator<char> > > >)#1}>, void (std::__ndk1::unordered_set<std::__ndk1::basic_string<char, std::__ndk1::char_traits<char>, std::__ndk1::allocator<char> >, std::__ndk1::hash<std::__ndk1::basic_string<char, std::__ndk1::char_traits<char>, std::__ndk1::allocator<char> > >, std::__ndk1::equal_to<std::__ndk1::basic_string<char, std::__ndk1::char_traits<char>, std::__ndk1::allocator<char> > >, std::__ndk1::allocator<std::__ndk1::basic_string<char, std::__ndk1::char_traits<char>, std::__ndk1::allocator<char> > > >)>::__clone(std::__ndk1::__function::__base<void (std::__ndk1::unordered_set<std::__ndk1::basic_string<char, std::__ndk1::char_traits<char>, std::__ndk1::allocator<char> >, std::__ndk1::hash<std::__ndk1::basic_string<char, std::__ndk1::char_traits<char>, std::__ndk1::allocator<char> > >, std::__ndk1::equal_to<std::__ndk1::basic_string<char, std::__ndk1::char_traits<char>, std::__ndk1::allocator<char> > >, std::__ndk1::allocator<std::__ndk1::basic_string<char, std::__ndk1::char_traits<char>, std::__ndk1::allocator<char> > > >)>*) const
FUNC c60c8 4 0 std::__ndk1::__function::__func<EditPopup::setup(ObjectData, std::__ndk1::unordered_set<std::__ndk1::basic_string<char, std::__ndk1::char_traits<char>, std::__ndk1::allocator<char> >, std::__ndk1::hash<std::__ndk1::basic_string<char, std::__ndk1::char_traits<char>, std::__ndk1::allocator<char> > >, std::__ndk1::equal_to<std::__ndk1::basic_string<char, std::__ndk1::char_traits<char>, std::__ndk1::allocator<char> > >, std::__ndk1::allocator<std::__ndk1::basic_string<char, std::__ndk1::char_traits<char>, std::__ndk1::allocator<char> > > >, UserData)::$_1::operator()(cocos2d::CCObject*) const::{lambda(std::__ndk1::unordered_set<std::__ndk1::basic_string<char, std::__ndk1::char_traits<char>, std::__ndk1::allocator<char> >, std::__ndk1::hash<std::__ndk1::basic_string<char, std::__ndk1::char_traits<char>, std::__ndk1::allocator<char> > >, std::__ndk1::equal_to<std::__ndk1::basic_string<char, std::__ndk1::char_traits<char>, std::__ndk1::allocator<char> > >, std::__ndk1::allocator<std::__ndk1::basic_string<char, std::__ndk1::char_traits<char>, std::__ndk1::allocator<char> > > >)#1}, std::__ndk1::allocator<EditPopup::setup(ObjectData, std::__ndk1::unordered_set<std::__ndk1::basic_string<char, std::__ndk1::char_traits<char>, std::__ndk1::allocator<char> >, std::__ndk1::hash<std::__ndk1::basic_string<char, std::__ndk1::char_traits<char>, std::__ndk1::allocator<char> > >, std::__ndk1::equal_to<std::__ndk1::basic_string<char, std::__ndk1::char_traits<char>, std::__ndk1::allocator<char> > >, std::__ndk1::allocator<std::__ndk1::basic_string<char, std::__ndk1::char_traits<char>, std::__ndk1::allocator<char> > > >, UserData)::$_1::operator()(cocos2d::CCObject*) const::{lambda(std::__ndk1::unordered_set<std::__ndk1::basic_string<char, std::__ndk1::char_traits<char>, std::__ndk1::allocator<char> >, std::__ndk1::hash<std::__ndk1::basic_string<char, std::__ndk1::char_traits<char>, std::__ndk1::allocator<char> > >, std::__ndk1::equal_to<std::__ndk1::basic_string<char, std::__ndk1::char_traits<char>, std::__ndk1::allocator<char> > >, std::__ndk1::allocator<std::__ndk1::basic_string<char, std::__ndk1::char_traits<char>, std::__ndk1::allocator<char> > > >)#1}>, void (std::__ndk1::unordered_set<std::__ndk1::basic_string<char, std::__ndk1::char_traits<char>, std::__ndk1::allocator<char> >, std::__ndk1::hash<std::__ndk1::basic_string<char, std::__ndk1::char_traits<char>, std::__ndk1::allocator<char> > >, std::__ndk1::equal_to<std::__ndk1::basic_string<char, std::__ndk1::char_traits<char>, std::__ndk1::allocator<char> > >, std::__ndk1::allocator<std::__ndk1::basic_string<char, std::__ndk1::char_traits<char>, std::__ndk1::allocator<char> > > >)>::destroy()
FUNC c60cc 4 0 std::__ndk1::__function::__func<EditPopup::setup(ObjectData, std::__ndk1::unordered_set<std::__ndk1::basic_string<char, std::__ndk1::char_traits<char>, std::__ndk1::allocator<char> >, std::__ndk1::hash<std::__ndk1::basic_string<char, std::__ndk1::char_traits<char>, std::__ndk1::allocator<char> > >, std::__ndk1::equal_to<std::__ndk1::basic_string<char, std::__ndk1::char_traits<char>, std::__ndk1::allocator<char> > >, std::__ndk1::allocator<std::__ndk1::basic_string<char, std::__ndk1::char_traits<char>, std::__ndk1::allocator<char> > > >, UserData)::$_1::operator()(cocos2d::CCObject*) const::{lambda(std::__ndk1::unordered_set<std::__ndk1::basic_string<char, std::__ndk1::char_traits<char>, std::__ndk1::allocator<char> >, std::__ndk1::hash<std::__ndk1::basic_string<char, std::__ndk1::char_traits<char>, std::__ndk1::allocator<char> > >, std::__ndk1::equal_to<std::__ndk1::basic_string<char, std::__ndk1::char_traits<char>, std::__ndk1::allocator<char> > >, std::__ndk1::allocator<std::__ndk1::basic_string<char, std::__ndk1::char_traits<char>, std::__ndk1::allocator<char> > > >)#1}, std::__ndk1::allocator<EditPopup::setup(ObjectData, std::__ndk1::unordered_set<std::__ndk1::basic_string<char, std::__ndk1::char_traits<char>, std::__ndk1::allocator<char> >, std::__ndk1::hash<std::__ndk1::basic_string<char, std::__ndk1::char_traits<char>, std::__ndk1::allocator<char> > >, std::__ndk1::equal_to<std::__ndk1::basic_string<char, std::__ndk1::char_traits<char>, std::__ndk1::allocator<char> > >, std::__ndk1::allocator<std::__ndk1::basic_string<char, std::__ndk1::char_traits<char>, std::__ndk1::allocator<char> > > >, UserData)::$_1::operator()(cocos2d::CCObject*) const::{lambda(std::__ndk1::unordered_set<std::__ndk1::basic_string<char, std::__ndk1::char_traits<char>, std::__ndk1::allocator<char> >, std::__ndk1::hash<std::__ndk1::basic_string<char, std::__ndk1::char_traits<char>, std::__ndk1::allocator<char> > >, std::__ndk1::equal_to<std::__ndk1::basic_string<char, std::__ndk1::char_traits<char>, std::__ndk1::allocator<char> > >, std::__ndk1::allocator<std::__ndk1::basic_string<char, std::__ndk1::char_traits<char>, std::__ndk1::allocator<char> > > >)#1}>, void (std::__ndk1::unordered_set<std::__ndk1::basic_string<char, std::__ndk1::char_traits<char>, std::__ndk1::allocator<char> >, std::__ndk1::hash<std::__ndk1::basic_string<char, std::__ndk1::char_traits<char>, std::__ndk1::allocator<char> > >, std::__ndk1::equal_to<std::__ndk1::basic_string<char, std::__ndk1::char_traits<char>, std::__ndk1::allocator<char> > >, std::__ndk1::allocator<std::__ndk1::basic_string<char, std::__ndk1::char_traits<char>, std::__ndk1::allocator<char> > > >)>::destroy_deallocate()
FUNC c60d0 12c 0 std::__ndk1::__function::__func<EditPopup::setup(ObjectData, std::__ndk1::unordered_set<std::__ndk1::basic_string<char, std::__ndk1::char_traits<char>, std::__ndk1::allocator<char> >, std::__ndk1::hash<std::__ndk1::basic_string<char, std::__ndk1::char_traits<char>, std::__ndk1::allocator<char> > >, std::__ndk1::equal_to<std::__ndk1::basic_string<char, std::__ndk1::char_traits<char>, std::__ndk1::allocator<char> > >, std::__ndk1::allocator<std::__ndk1::basic_string<char, std::__ndk1::char_traits<char>, std::__ndk1::allocator<char> > > >, UserData)::$_1::operator()(cocos2d::CCObject*) const::{lambda(std::__ndk1::unordered_set<std::__ndk1::basic_string<char, std::__ndk1::char_traits<char>, std::__ndk1::allocator<char> >, std::__ndk1::hash<std::__ndk1::basic_string<char, std::__ndk1::char_traits<char>, std::__ndk1::allocator<char> > >, std::__ndk1::equal_to<std::__ndk1::basic_string<char, std::__ndk1::char_traits<char>, std::__ndk1::allocator<char> > >, std::__ndk1::allocator<std::__ndk1::basic_string<char, std::__ndk1::char_traits<char>, std::__ndk1::allocator<char> > > >)#1}, std::__ndk1::allocator<EditPopup::setup(ObjectData, std::__ndk1::unordered_set<std::__ndk1::basic_string<char, std::__ndk1::char_traits<char>, std::__ndk1::allocator<char> >, std::__ndk1::hash<std::__ndk1::basic_string<char, std::__ndk1::char_traits<char>, std::__ndk1::allocator<char> > >, std::__ndk1::equal_to<std::__ndk1::basic_string<char, std::__ndk1::char_traits<char>, std::__ndk1::allocator<char> > >, std::__ndk1::allocator<std::__ndk1::basic_string<char, std::__ndk1::char_traits<char>, std::__ndk1::allocator<char> > > >, UserData)::$_1::operator()(cocos2d::CCObject*) const::{lambda(std::__ndk1::unordered_set<std::__ndk1::basic_string<char, std::__ndk1::char_traits<char>, std::__ndk1::allocator<char> >, std::__ndk1::hash<std::__ndk1::basic_string<char, std::__ndk1::char_traits<char>, std::__ndk1::allocator<char> > >, std::__ndk1::equal_to<std::__ndk1::basic_string<char, std::__ndk1::char_traits<char>, std::__ndk1::allocator<char> > >, std::__ndk1::allocator<std::__ndk1::basic_string<char, std::__ndk1::char_traits<char>, std::__ndk1::allocator<char> > > >)#1}>, void (std::__ndk1::unordered_set<std::__ndk1::basic_string<char, std::__ndk1::char_traits<char>, std::__ndk1::allocator<char> >, std::__ndk1::hash<std::__ndk1::basic_string<char, std::__ndk1::char_traits<char>, std::__ndk1::allocator<char> > >, std::__ndk1::equal_to<std::__ndk1::basic_string<char, std::__ndk1::char_traits<char>, std::__ndk1::allocator<char> > >, std::__ndk1::allocator<std::__ndk1::basic_string<char, std::__ndk1::char_traits<char>, std::__ndk1::allocator<char> > > >)>::operator()(std::__ndk1::unordered_set<std::__ndk1::basic_string<char, std::__ndk1::char_traits<char>, std::__ndk1::allocator<char> >, std::__ndk1::hash<std::__ndk1::basic_string<char, std::__ndk1::char_traits<char>, std::__ndk1::allocator<char> > >, std::__ndk1::equal_to<std::__ndk1::basic_string<char, std::__ndk1::char_traits<char>, std::__ndk1::allocator<char> > >, std::__ndk1::allocator<std::__ndk1::basic_string<char, std::__ndk1::char_traits<char>, std::__ndk1::allocator<char> > > >&&)
