MODULE Linux arm64 7D40F52B1050FB548DFCB5B2F7E542AE0 hiimjustin000.auto_no_auto_retry.android64.so
INFO CODE_ID 2BF5407D501054FB8DFCB5B2F7E542AEBCBDCE34
INFO GENERATOR mozilla/dump_syms 2.3.4
PUBLIC 1b490 0 __on_dlclose
PUBLIC 1b4a0 0 __emutls_unregister_key
PUBLIC 1b4a8 0 __on_dlclose_late
PUBLIC 1b4b0 0 __atexit_handler_wrapper
PUBLIC 1b4c4 0 atexit
PUBLIC 1b4e0 0 pthread_atfork
PUBLIC 1b4f0 0 unwind_phase2
PUBLIC 1b624 0 _Unwind_Resume
PUBLIC 1b6a8 0 unwind_phase2_forced
PUBLIC m 1b79c 0 __unw_init_local
PUBLIC m 1b844 0 __unw_get_reg
PUBLIC 1b8c0 0 __unw_step_stage2
PUBLIC m 1b8d4 0 __unw_get_proc_info
PUBLIC m 1b914 0 __unw_resume
PUBLIC 1b93c 0 libunwind::CFI_Parser<libunwind::LocalAddressSpace>::decodeFDE(libunwind::LocalAddressSpace&, unsigned long, libunwind::CFI_Parser<libunwind::LocalAddressSpace>::FDE_Info*, libunwind::CFI_Parser<libunwind::LocalAddressSpace>::CIE_Info*, bool)
PUBLIC 1bacc 0 libunwind::CFI_Parser<libunwind::LocalAddressSpace>::parseCIE(libunwind::LocalAddressSpace&, unsigned long, libunwind::CFI_Parser<libunwind::LocalAddressSpace>::CIE_Info*)
PUBLIC 1bd94 0 libunwind::AbstractUnwindCursor::~AbstractUnwindCursor()
PUBLIC 1bd9c 0 libunwind::UnwindCursor<libunwind::LocalAddressSpace, libunwind::Registers_arm64>::~UnwindCursor()
PUBLIC 1bda4 0 libunwind::UnwindCursor<libunwind::LocalAddressSpace, libunwind::Registers_arm64>::validReg(int)
PUBLIC 1bde8 0 libunwind::UnwindCursor<libunwind::LocalAddressSpace, libunwind::Registers_arm64>::getReg(int)
PUBLIC 1bed0 0 libunwind::UnwindCursor<libunwind::LocalAddressSpace, libunwind::Registers_arm64>::setReg(int, unsigned long)
PUBLIC 1bfb8 0 libunwind::UnwindCursor<libunwind::LocalAddressSpace, libunwind::Registers_arm64>::validFloatReg(int)
PUBLIC 1bfcc 0 libunwind::UnwindCursor<libunwind::LocalAddressSpace, libunwind::Registers_arm64>::getFloatReg(int)
PUBLIC 1bfdc 0 libunwind::UnwindCursor<libunwind::LocalAddressSpace, libunwind::Registers_arm64>::setFloatReg(int, double)
PUBLIC 1bfec 0 libunwind::UnwindCursor<libunwind::LocalAddressSpace, libunwind::Registers_arm64>::step(bool)
PUBLIC 1c0dc 0 libunwind::UnwindCursor<libunwind::LocalAddressSpace, libunwind::Registers_arm64>::getInfo(unw_proc_info_t*)
PUBLIC 1c120 0 libunwind::UnwindCursor<libunwind::LocalAddressSpace, libunwind::Registers_arm64>::jumpto()
PUBLIC 1c12c 0 libunwind::UnwindCursor<libunwind::LocalAddressSpace, libunwind::Registers_arm64>::isSignalFrame()
PUBLIC 1c138 0 libunwind::UnwindCursor<libunwind::LocalAddressSpace, libunwind::Registers_arm64>::getFunctionName(char*, unsigned long, unsigned long*)
PUBLIC 1c164 0 libunwind::UnwindCursor<libunwind::LocalAddressSpace, libunwind::Registers_arm64>::setInfoBasedOnIPRegister(bool)
PUBLIC 1c3e4 0 libunwind::UnwindCursor<libunwind::LocalAddressSpace, libunwind::Registers_arm64>::getRegisterName(int)
PUBLIC 1c3f0 0 libunwind::UnwindCursor<libunwind::LocalAddressSpace, libunwind::Registers_arm64>::stepThroughSigReturn(libunwind::Registers_arm64&)
PUBLIC 1c510 0 libunwind::DwarfInstructions<libunwind::LocalAddressSpace, libunwind::Registers_arm64>::stepWithDwarf(libunwind::LocalAddressSpace&, unsigned long, unsigned long, libunwind::Registers_arm64&, bool&, bool)
PUBLIC 1c998 0 libunwind::CFI_Parser<libunwind::LocalAddressSpace>::parseFDEInstructions(libunwind::LocalAddressSpace&, libunwind::CFI_Parser<libunwind::LocalAddressSpace>::FDE_Info const&, libunwind::CFI_Parser<libunwind::LocalAddressSpace>::CIE_Info const&, unsigned long, int, libunwind::CFI_Parser<libunwind::LocalAddressSpace>::PrologInfo*)
PUBLIC 1d5e0 0 libunwind::DwarfInstructions<libunwind::LocalAddressSpace, libunwind::Registers_arm64>::getCFA(libunwind::LocalAddressSpace&, libunwind::CFI_Parser<libunwind::LocalAddressSpace>::PrologInfo const&, libunwind::Registers_arm64 const&)
PUBLIC 1d714 0 libunwind::DwarfInstructions<libunwind::LocalAddressSpace, libunwind::Registers_arm64>::getSavedRegister(libunwind::LocalAddressSpace&, libunwind::Registers_arm64 const&, unsigned long, libunwind::CFI_Parser<libunwind::LocalAddressSpace>::RegisterLocation const&)
PUBLIC 1d924 0 libunwind::LocalAddressSpace::getEncodedP(unsigned long&, unsigned long, unsigned char, unsigned long)
PUBLIC 1dcb0 0 libunwind::LocalAddressSpace::getULEB128(unsigned long&, unsigned long)
PUBLIC 1de78 0 libunwind::DwarfInstructions<libunwind::LocalAddressSpace, libunwind::Registers_arm64>::evaluateExpression(unsigned long, libunwind::LocalAddressSpace&, libunwind::Registers_arm64 const&, unsigned long)
PUBLIC 1e834 0 libunwind::UnwindCursor<libunwind::LocalAddressSpace, libunwind::Registers_arm64>::getInfoFromDwarfSection(unsigned long, libunwind::UnwindInfoSections const&, unsigned int)
PUBLIC 1eb08 0 libunwind::findUnwindSectionsByPhdr(dl_phdr_info*, unsigned long, void*)
PUBLIC 1ec3c 0 libunwind::EHHeaderParser<libunwind::LocalAddressSpace>::decodeEHHdr(libunwind::LocalAddressSpace&, unsigned long, unsigned long, libunwind::EHHeaderParser<libunwind::LocalAddressSpace>::EHHeaderInfo&)
PUBLIC 1ed5c 0 libunwind::CFI_Parser<libunwind::LocalAddressSpace>::findFDE(libunwind::LocalAddressSpace&, unsigned long, unsigned long, unsigned long, unsigned long, libunwind::CFI_Parser<libunwind::LocalAddressSpace>::FDE_Info*, libunwind::CFI_Parser<libunwind::LocalAddressSpace>::CIE_Info*)
PUBLIC 1ef24 0 libunwind::EHHeaderParser<libunwind::LocalAddressSpace>::findFDE(libunwind::LocalAddressSpace&, unsigned long, unsigned long, unsigned int, libunwind::CFI_Parser<libunwind::LocalAddressSpace>::FDE_Info*, libunwind::CFI_Parser<libunwind::LocalAddressSpace>::CIE_Info*)
PUBLIC 1f08c 0 libunwind::EHHeaderParser<libunwind::LocalAddressSpace>::getTableEntrySize(unsigned char)
PUBLIC 1f188 0 libunwind::Registers_arm64::getRegisterName(int)
PUBLIC 1f1b8 0 __libunwind_Registers_arm64_jumpto
PUBLIC m 1f248 0 __unw_getcontext
PUBLIC 1f2f0 0 __aarch64_ldadd8_relax
PUBLIC 1f320 0 init_have_lse_atomics
PUBLIC 1f3b8 0 __init_cpu_features_constructor
PUBLIC 1f954 0 __init_cpu_features
PUBLIC 1f9e0 0 __aarch64_ldadd8_acq_rel
PUBLIC 1fa10 0 ANARSettingsPopup::create()
PUBLIC 1fb74 0 ANARSettingsPopup::setup()
PUBLIC 20820 0 geode::Mod::getSettingValue<long>(std::__ndk1::basic_string_view<char, std::__ndk1::char_traits<char> >) const
PUBLIC 20938 0 geode::Mod::getSettingValue<bool>(std::__ndk1::basic_string_view<char, std::__ndk1::char_traits<char> >) const
PUBLIC 20a6c 0 geode::cocos::CCMenuItemExt::createSpriteExtraWithFrameName(std::__ndk1::basic_string_view<char, std::__ndk1::char_traits<char> >, float, std::__ndk1::function<void (CCMenuItemSpriteExtra*)>)
PUBLIC 20bb4 0 ANARSettingsPopup::onSlider(cocos2d::CCObject*)
PUBLIC 20bf4 0 geode::cocos::CCMenuItemExt::createSpriteExtra(cocos2d::CCNode*, std::__ndk1::function<void (CCMenuItemSpriteExtra*)>)
PUBLIC 20fc0 0 ANARSettingsPopup::valueChanged(bool)
PUBLIC 2108c 0 cocos2d::CCCopying::copyWithZone(cocos2d::CCZone*)
PUBLIC 21094 0 geode::Popup<>::~Popup()
PUBLIC 21100 0 ANARSettingsPopup::~ANARSettingsPopup()
PUBLIC 21174 0 geode::Popup<>::registerWithTouchDispatcher()
PUBLIC 211a0 0 geode::Popup<>::keyDown(cocos2d::enumKeyCodes)
PUBLIC 211c8 0 cocos2d::CCLayerRGBA::setOpacityModifyRGB(bool)
PUBLIC 211cc 0 cocos2d::CCLayerRGBA::isOpacityModifyRGB()
PUBLIC 211d4 0 geode::Popup<>::onClose(cocos2d::CCObject*)
PUBLIC 2131c 0 {virtual override thunk({offset(-320)}, ANARSettingsPopup::~ANARSettingsPopup())}
PUBLIC 21388 0 {virtual override thunk({offset(-320)}, ANARSettingsPopup::~ANARSettingsPopup())}
PUBLIC 213fc 0 {virtual override thunk({offset(-344)}, geode::Popup<>::keyDown(cocos2d::enumKeyCodes))}
PUBLIC 21428 0 cocos2d::CCKeyboardDelegate::keyUp(cocos2d::enumKeyCodes)
PUBLIC 2142c 0 cocos2d::CCMouseDelegate::rightKeyDown()
PUBLIC 21430 0 cocos2d::CCMouseDelegate::rightKeyUp()
PUBLIC 21434 0 cocos2d::CCMouseDelegate::scrollWheel(float, float)
PUBLIC 21438 0 {virtual override thunk({offset(-408)}, cocos2d::CCLayerRGBA::setOpacityModifyRGB(bool))}
PUBLIC 2143c 0 {virtual override thunk({offset(-408)}, cocos2d::CCLayerRGBA::isOpacityModifyRGB())}
PUBLIC 21444 0 geode::Popup<>::~Popup()
PUBLIC 21448 0 {virtual override thunk({offset(-320)}, geode::Popup<>::~Popup())}
PUBLIC 214b4 0 {virtual override thunk({offset(-320)}, geode::Popup<>::~Popup())}
PUBLIC 214b8 0 __clang_call_terminate
PUBLIC 214c8 0 geode::cocos::CCMenuItemExt::LambdaCallback<CCMenuItemToggler>::execute(cocos2d::CCNode*)
PUBLIC 21538 0 geode::cocos::CCMenuItemExt::LambdaCallback<CCMenuItemToggler>::~LambdaCallback()
PUBLIC 21594 0 geode::cocos::CCMenuItemExt::LambdaCallback<CCMenuItemToggler>::~LambdaCallback()
PUBLIC 215f8 0 cocos2d::CCObject::update(float)
PUBLIC 215fc 0 std::__ndk1::__throw_bad_function_call[abi:ne180000]()
PUBLIC 21630 0 std::__ndk1::bad_function_call::~bad_function_call()
PUBLIC 21654 0 geode::cocos::CCMenuItemExt::LambdaCallback<CCMenuItemSpriteExtra>::execute(cocos2d::CCNode*)
PUBLIC 216c4 0 geode::cocos::CCMenuItemExt::LambdaCallback<CCMenuItemSpriteExtra>::~LambdaCallback()
PUBLIC 21720 0 geode::cocos::CCMenuItemExt::LambdaCallback<CCMenuItemSpriteExtra>::~LambdaCallback()
PUBLIC 21784 0 geode::Popup<>::initBase(float, float, char const*, cocos2d::CCRect, bool)
PUBLIC 21a8c 0 std::__ndk1::shared_ptr<geode::IntSettingV3>::~shared_ptr[abi:ne180000]()
PUBLIC 21adc 0 geode::cast::traverseTypeinfoFor(void*, geode::cast::ClassTypeinfoType const*, char const*)
PUBLIC 21be0 0 std::__ndk1::shared_ptr<geode::BoolSettingV3>::~shared_ptr[abi:ne180000]()
PUBLIC 21c30 0 std::__ndk1::__function::__base<void (std::__ndk1::basic_string<char, std::__ndk1::char_traits<char>, std::__ndk1::allocator<char> > const&)>::~__base()
PUBLIC 21c34 0 std::__ndk1::__function::__func<ANARSettingsPopup::setup()::$_4, std::__ndk1::allocator<ANARSettingsPopup::setup()::$_4>, void (std::__ndk1::basic_string<char, std::__ndk1::char_traits<char>, std::__ndk1::allocator<char> > const&)>::~__func()
PUBLIC 21c38 0 std::__ndk1::__function::__func<ANARSettingsPopup::setup()::$_4, std::__ndk1::allocator<ANARSettingsPopup::setup()::$_4>, void (std::__ndk1::basic_string<char, std::__ndk1::char_traits<char>, std::__ndk1::allocator<char> > const&)>::__clone() const
PUBLIC 21c6c 0 std::__ndk1::__function::__func<ANARSettingsPopup::setup()::$_4, std::__ndk1::allocator<ANARSettingsPopup::setup()::$_4>, void (std::__ndk1::basic_string<char, std::__ndk1::char_traits<char>, std::__ndk1::allocator<char> > const&)>::__clone(std::__ndk1::__function::__base<void (std::__ndk1::basic_string<char, std::__ndk1::char_traits<char>, std::__ndk1::allocator<char> > const&)>*) const
PUBLIC 21c80 0 std::__ndk1::__function::__func<ANARSettingsPopup::setup()::$_4, std::__ndk1::allocator<ANARSettingsPopup::setup()::$_4>, void (std::__ndk1::basic_string<char, std::__ndk1::char_traits<char>, std::__ndk1::allocator<char> > const&)>::destroy()
PUBLIC 21c84 0 std::__ndk1::__function::__func<ANARSettingsPopup::setup()::$_4, std::__ndk1::allocator<ANARSettingsPopup::setup()::$_4>, void (std::__ndk1::basic_string<char, std::__ndk1::char_traits<char>, std::__ndk1::allocator<char> > const&)>::destroy_deallocate()
PUBLIC 21c88 0 std::__ndk1::__function::__func<ANARSettingsPopup::setup()::$_4, std::__ndk1::allocator<ANARSettingsPopup::setup()::$_4>, void (std::__ndk1::basic_string<char, std::__ndk1::char_traits<char>, std::__ndk1::allocator<char> > const&)>::operator()(std::__ndk1::basic_string<char, std::__ndk1::char_traits<char>, std::__ndk1::allocator<char> > const&)
PUBLIC 220a0 0 std::__ndk1::__function::__func<ANARSettingsPopup::setup()::$_4, std::__ndk1::allocator<ANARSettingsPopup::setup()::$_4>, void (std::__ndk1::basic_string<char, std::__ndk1::char_traits<char>, std::__ndk1::allocator<char> > const&)>::target(std::type_info const&) const
PUBLIC 220bc 0 std::__ndk1::__function::__func<ANARSettingsPopup::setup()::$_4, std::__ndk1::allocator<ANARSettingsPopup::setup()::$_4>, void (std::__ndk1::basic_string<char, std::__ndk1::char_traits<char>, std::__ndk1::allocator<char> > const&)>::target_type() const
PUBLIC 220c8 0 std::__ndk1::__variant_detail::__visitation::__base::__dispatcher<(unsigned long)0>::__dispatch[abi:ne180000]<std::__ndk1::__variant_detail::__dtor<std::__ndk1::__variant_detail::__traits<int, std::__ndk1::basic_string<char, std::__ndk1::char_traits<char>, std::__ndk1::allocator<char> > >, (std::__ndk1::__variant_detail::_Trait)1>::__destroy[abi:ne180000]()::{lambda(auto:1&)#1}, std::__ndk1::__variant_detail::__base<(std::__ndk1::__variant_detail::__traits<int, std::__ndk1::basic_string<char, std::__ndk1::char_traits<char>, std::__ndk1::allocator<char> > >)1, int, std::__ndk1::allocator<char> >&>(std::__ndk1::__variant_detail::__dtor<std::__ndk1::__variant_detail::__traits<int, std::__ndk1::basic_string<char, std::__ndk1::char_traits<char>, std::__ndk1::allocator<char> > >, (std::__ndk1::__variant_detail::_Trait)1>, std::__ndk1::__variant_detail::__base<(std::__ndk1::__variant_detail::__traits<int, std::__ndk1::basic_string<char, std::__ndk1::char_traits<char>, std::__ndk1::allocator<char> > >)1, int, std::__ndk1::allocator<char> >&)
PUBLIC 220cc 0 std::__ndk1::__variant_detail::__visitation::__base::__dispatcher<(unsigned long)1>::__dispatch[abi:ne180000]<std::__ndk1::__variant_detail::__dtor<std::__ndk1::__variant_detail::__traits<int, std::__ndk1::basic_string<char, std::__ndk1::char_traits<char>, std::__ndk1::allocator<char> > >, (std::__ndk1::__variant_detail::_Trait)1>::__destroy[abi:ne180000]()::{lambda(auto:1&)#1}, std::__ndk1::__variant_detail::__base<(std::__ndk1::__variant_detail::__traits<int, std::__ndk1::basic_string<char, std::__ndk1::char_traits<char>, std::__ndk1::allocator<char> > >)1, int, std::__ndk1::allocator<char> >&>(std::__ndk1::__variant_detail::__dtor<std::__ndk1::__variant_detail::__traits<int, std::__ndk1::basic_string<char, std::__ndk1::char_traits<char>, std::__ndk1::allocator<char> > >, (std::__ndk1::__variant_detail::_Trait)1>, std::__ndk1::__variant_detail::__base<(std::__ndk1::__variant_detail::__traits<int, std::__ndk1::basic_string<char, std::__ndk1::char_traits<char>, std::__ndk1::allocator<char> > >)1, int, std::__ndk1::allocator<char> >&)
PUBLIC 220e0 0 std::__ndk1::__function::__func<ANARSettingsPopup::setup()::$_0, std::__ndk1::allocator<ANARSettingsPopup::setup()::$_0>, void (CCMenuItemSpriteExtra*)>::~__func()
PUBLIC 220e4 0 std::__ndk1::__function::__func<ANARSettingsPopup::setup()::$_0, std::__ndk1::allocator<ANARSettingsPopup::setup()::$_0>, void (CCMenuItemSpriteExtra*)>::__clone() const
PUBLIC 22118 0 std::__ndk1::__function::__func<ANARSettingsPopup::setup()::$_0, std::__ndk1::allocator<ANARSettingsPopup::setup()::$_0>, void (CCMenuItemSpriteExtra*)>::__clone(std::__ndk1::__function::__base<void (CCMenuItemSpriteExtra*)>*) const
PUBLIC 2212c 0 std::__ndk1::__function::__func<ANARSettingsPopup::setup()::$_0, std::__ndk1::allocator<ANARSettingsPopup::setup()::$_0>, void (CCMenuItemSpriteExtra*)>::destroy()
PUBLIC 22130 0 std::__ndk1::__function::__func<ANARSettingsPopup::setup()::$_0, std::__ndk1::allocator<ANARSettingsPopup::setup()::$_0>, void (CCMenuItemSpriteExtra*)>::destroy_deallocate()
PUBLIC 22134 0 std::__ndk1::__function::__func<ANARSettingsPopup::setup()::$_0, std::__ndk1::allocator<ANARSettingsPopup::setup()::$_0>, void (CCMenuItemSpriteExtra*)>::operator()(CCMenuItemSpriteExtra*&&)
PUBLIC 22154 0 std::__ndk1::__function::__func<ANARSettingsPopup::setup()::$_0, std::__ndk1::allocator<ANARSettingsPopup::setup()::$_0>, void (CCMenuItemSpriteExtra*)>::target(std::type_info const&) const
PUBLIC 22170 0 std::__ndk1::__function::__func<ANARSettingsPopup::setup()::$_0, std::__ndk1::allocator<ANARSettingsPopup::setup()::$_0>, void (CCMenuItemSpriteExtra*)>::target_type() const
PUBLIC 2217c 0 std::__ndk1::__function::__func<ANARSettingsPopup::setup()::$_1, std::__ndk1::allocator<ANARSettingsPopup::setup()::$_1>, void (CCMenuItemSpriteExtra*)>::~__func()
PUBLIC 22180 0 std::__ndk1::__function::__func<ANARSettingsPopup::setup()::$_1, std::__ndk1::allocator<ANARSettingsPopup::setup()::$_1>, void (CCMenuItemSpriteExtra*)>::__clone() const
PUBLIC 221b4 0 std::__ndk1::__function::__func<ANARSettingsPopup::setup()::$_1, std::__ndk1::allocator<ANARSettingsPopup::setup()::$_1>, void (CCMenuItemSpriteExtra*)>::__clone(std::__ndk1::__function::__base<void (CCMenuItemSpriteExtra*)>*) const
PUBLIC 221c8 0 std::__ndk1::__function::__func<ANARSettingsPopup::setup()::$_1, std::__ndk1::allocator<ANARSettingsPopup::setup()::$_1>, void (CCMenuItemSpriteExtra*)>::destroy()
PUBLIC 221cc 0 std::__ndk1::__function::__func<ANARSettingsPopup::setup()::$_1, std::__ndk1::allocator<ANARSettingsPopup::setup()::$_1>, void (CCMenuItemSpriteExtra*)>::destroy_deallocate()
PUBLIC 221d0 0 std::__ndk1::__function::__func<ANARSettingsPopup::setup()::$_1, std::__ndk1::allocator<ANARSettingsPopup::setup()::$_1>, void (CCMenuItemSpriteExtra*)>::operator()(CCMenuItemSpriteExtra*&&)
PUBLIC 221f4 0 std::__ndk1::__function::__func<ANARSettingsPopup::setup()::$_1, std::__ndk1::allocator<ANARSettingsPopup::setup()::$_1>, void (CCMenuItemSpriteExtra*)>::target(std::type_info const&) const
PUBLIC 22210 0 std::__ndk1::__function::__func<ANARSettingsPopup::setup()::$_1, std::__ndk1::allocator<ANARSettingsPopup::setup()::$_1>, void (CCMenuItemSpriteExtra*)>::target_type() const
PUBLIC 2221c 0 std::__ndk1::__function::__base<void (CCMenuItemToggler*)>::~__base()
PUBLIC 22220 0 std::__ndk1::__function::__func<ANARSettingsPopup::setup()::$_2, std::__ndk1::allocator<ANARSettingsPopup::setup()::$_2>, void (CCMenuItemToggler*)>::~__func()
PUBLIC 22224 0 std::__ndk1::__function::__func<ANARSettingsPopup::setup()::$_2, std::__ndk1::allocator<ANARSettingsPopup::setup()::$_2>, void (CCMenuItemToggler*)>::__clone() const
PUBLIC 22258 0 std::__ndk1::__function::__func<ANARSettingsPopup::setup()::$_2, std::__ndk1::allocator<ANARSettingsPopup::setup()::$_2>, void (CCMenuItemToggler*)>::__clone(std::__ndk1::__function::__base<void (CCMenuItemToggler*)>*) const
PUBLIC 2226c 0 std::__ndk1::__function::__func<ANARSettingsPopup::setup()::$_2, std::__ndk1::allocator<ANARSettingsPopup::setup()::$_2>, void (CCMenuItemToggler*)>::destroy()
PUBLIC 22270 0 std::__ndk1::__function::__func<ANARSettingsPopup::setup()::$_2, std::__ndk1::allocator<ANARSettingsPopup::setup()::$_2>, void (CCMenuItemToggler*)>::destroy_deallocate()
PUBLIC 22274 0 std::__ndk1::__function::__func<ANARSettingsPopup::setup()::$_2, std::__ndk1::allocator<ANARSettingsPopup::setup()::$_2>, void (CCMenuItemToggler*)>::operator()(CCMenuItemToggler*&&)
PUBLIC 222e8 0 std::__ndk1::__function::__func<ANARSettingsPopup::setup()::$_2, std::__ndk1::allocator<ANARSettingsPopup::setup()::$_2>, void (CCMenuItemToggler*)>::target(std::type_info const&) const
PUBLIC 22304 0 std::__ndk1::__function::__func<ANARSettingsPopup::setup()::$_2, std::__ndk1::allocator<ANARSettingsPopup::setup()::$_2>, void (CCMenuItemToggler*)>::target_type() const
PUBLIC 22310 0 geode::Popup<>::CloseEvent::~CloseEvent()
PUBLIC 22370 0 geode::Popup<>::CloseEvent::~CloseEvent()
PUBLIC 223e0 0 std::__ndk1::__shared_ptr_emplace<geode::Popup<>::CloseEvent::Impl, std::__ndk1::allocator<geode::Popup<>::CloseEvent::Impl> >::~__shared_ptr_emplace()
PUBLIC 223f0 0 std::__ndk1::__shared_ptr_emplace<geode::Popup<>::CloseEvent::Impl, std::__ndk1::allocator<geode::Popup<>::CloseEvent::Impl> >::~__shared_ptr_emplace()
PUBLIC 22420 0 std::__ndk1::__shared_ptr_emplace<geode::Popup<>::CloseEvent::Impl, std::__ndk1::allocator<geode::Popup<>::CloseEvent::Impl> >::__on_zero_shared()
PUBLIC 22424 0 std::__ndk1::__shared_ptr_emplace<geode::Popup<>::CloseEvent::Impl, std::__ndk1::allocator<geode::Popup<>::CloseEvent::Impl> >::__on_zero_shared_weak()
PUBLIC 22428 0 std::__ndk1::__function::__base<void (CCMenuItemSpriteExtra*)>::~__base()
PUBLIC 2242c 0 std::__ndk1::__function::__func<ANARSettingsPopup::setup()::$_3, std::__ndk1::allocator<ANARSettingsPopup::setup()::$_3>, void (CCMenuItemSpriteExtra*)>::~__func()
PUBLIC 22430 0 std::__ndk1::__function::__func<ANARSettingsPopup::setup()::$_3, std::__ndk1::allocator<ANARSettingsPopup::setup()::$_3>, void (CCMenuItemSpriteExtra*)>::__clone() const
PUBLIC 22464 0 std::__ndk1::__function::__func<ANARSettingsPopup::setup()::$_3, std::__ndk1::allocator<ANARSettingsPopup::setup()::$_3>, void (CCMenuItemSpriteExtra*)>::__clone(std::__ndk1::__function::__base<void (CCMenuItemSpriteExtra*)>*) const
PUBLIC 22478 0 std::__ndk1::__function::__func<ANARSettingsPopup::setup()::$_3, std::__ndk1::allocator<ANARSettingsPopup::setup()::$_3>, void (CCMenuItemSpriteExtra*)>::destroy()
PUBLIC 2247c 0 std::__ndk1::__function::__func<ANARSettingsPopup::setup()::$_3, std::__ndk1::allocator<ANARSettingsPopup::setup()::$_3>, void (CCMenuItemSpriteExtra*)>::destroy_deallocate()
PUBLIC 22480 0 std::__ndk1::__function::__func<ANARSettingsPopup::setup()::$_3, std::__ndk1::allocator<ANARSettingsPopup::setup()::$_3>, void (CCMenuItemSpriteExtra*)>::operator()(CCMenuItemSpriteExtra*&&)
PUBLIC 227d0 0 std::__ndk1::__function::__func<ANARSettingsPopup::setup()::$_3, std::__ndk1::allocator<ANARSettingsPopup::setup()::$_3>, void (CCMenuItemSpriteExtra*)>::target(std::type_info const&) const
PUBLIC 227ec 0 std::__ndk1::__function::__func<ANARSettingsPopup::setup()::$_3, std::__ndk1::allocator<ANARSettingsPopup::setup()::$_3>, void (CCMenuItemSpriteExtra*)>::target_type() const
PUBLIC 227f8 0 std::__ndk1::__variant_detail::__visitation::__base::__dispatcher<(unsigned long)0>::__dispatch[abi:ne180000]<std::__ndk1::__variant_detail::__dtor<std::__ndk1::__variant_detail::__traits<std::__ndk1::monostate, std::__ndk1::basic_string<char, std::__ndk1::char_traits<char>, std::__ndk1::allocator<char> > >, (std::__ndk1::__variant_detail::_Trait)1>::__destroy[abi:ne180000]()::{lambda(auto:1&)#1}, std::__ndk1::__variant_detail::__base<(std::__ndk1::__variant_detail::__traits<std::__ndk1::monostate, std::__ndk1::basic_string<char, std::__ndk1::char_traits<char>, std::__ndk1::allocator<char> > >)1, std::__ndk1::__variant_detail::__traits, std::__ndk1::allocator<char> >&>(std::__ndk1::__variant_detail::__dtor<std::__ndk1::__variant_detail::__traits<std::__ndk1::monostate, std::__ndk1::basic_string<char, std::__ndk1::char_traits<char>, std::__ndk1::allocator<char> > >, (std::__ndk1::__variant_detail::_Trait)1>, std::__ndk1::__variant_detail::__base<(std::__ndk1::__variant_detail::__traits<std::__ndk1::monostate, std::__ndk1::basic_string<char, std::__ndk1::char_traits<char>, std::__ndk1::allocator<char> > >)1, std::__ndk1::__variant_detail::__traits, std::__ndk1::allocator<char> >&)
PUBLIC 227fc 0 std::__ndk1::__variant_detail::__visitation::__base::__dispatcher<(unsigned long)1>::__dispatch[abi:ne180000]<std::__ndk1::__variant_detail::__dtor<std::__ndk1::__variant_detail::__traits<std::__ndk1::monostate, std::__ndk1::basic_string<char, std::__ndk1::char_traits<char>, std::__ndk1::allocator<char> > >, (std::__ndk1::__variant_detail::_Trait)1>::__destroy[abi:ne180000]()::{lambda(auto:1&)#1}, std::__ndk1::__variant_detail::__base<(std::__ndk1::__variant_detail::__traits<std::__ndk1::monostate, std::__ndk1::basic_string<char, std::__ndk1::char_traits<char>, std::__ndk1::allocator<char> > >)1, std::__ndk1::__variant_detail::__traits, std::__ndk1::allocator<char> >&>(std::__ndk1::__variant_detail::__dtor<std::__ndk1::__variant_detail::__traits<std::__ndk1::monostate, std::__ndk1::basic_string<char, std::__ndk1::char_traits<char>, std::__ndk1::allocator<char> > >, (std::__ndk1::__variant_detail::_Trait)1>, std::__ndk1::__variant_detail::__base<(std::__ndk1::__variant_detail::__traits<std::__ndk1::monostate, std::__ndk1::basic_string<char, std::__ndk1::char_traits<char>, std::__ndk1::allocator<char> > >)1, std::__ndk1::__variant_detail::__traits, std::__ndk1::allocator<char> >&)
PUBLIC 22810 0 __cxx_global_var_init
PUBLIC 22c94 0 geode::modifier::ModifyBase<geode::modifier::ModifyDerive<ANARPlayLayer, PlayLayer> >::~ModifyBase()
PUBLIC 22cac 0 __cxx_global_var_init.1
PUBLIC 23130 0 geode::modifier::ModifyBase<geode::modifier::ModifyDerive<ANARPauseLayer, PauseLayer> >::~ModifyBase()
PUBLIC 23148 0 geode::modifier::ModifyDerive<ANARPlayLayer, PlayLayer>::apply()
PUBLIC 23744 0 std::__ndk1::shared_ptr<geode::Hook>::~shared_ptr[abi:ne180000]()
PUBLIC 23794 0 geode::impl::ResultData<geode::Hook*, std::__ndk1::basic_string<char, std::__ndk1::char_traits<char>, std::__ndk1::allocator<char> > >::~ResultData()
PUBLIC 23808 0 std::__ndk1::vector<std::__ndk1::basic_string<char, std::__ndk1::char_traits<char>, std::__ndk1::allocator<char> >, std::__ndk1::allocator<std::__ndk1::basic_string<char, std::__ndk1::char_traits<char>, std::__ndk1::allocator<char> > > >::~vector[abi:ne180000]()
PUBLIC 23884 0 geode::modifier::ModifyBase<geode::modifier::ModifyDerive<ANARPlayLayer, PlayLayer> >::apply()
PUBLIC 23888 0 _ZN5geode15UnwrapExceptionC2IRPNS_4HookEQsr4implE18IsStringStreamableIT_EEENS_4impl5OkTagEOS5_
PUBLIC 239dc 0 std::__ndk1::__throw_bad_variant_access[abi:ne180000]()
PUBLIC 23a10 0 std::__ndk1::basic_stringstream<char, std::__ndk1::char_traits<char>, std::__ndk1::allocator<char> >::basic_stringstream[abi:ne180000]()
PUBLIC m 23b3c 0 std::__ndk1::basic_stringstream<char, std::__ndk1::char_traits<char>, std::__ndk1::allocator<char> >::~basic_stringstream()
PUBLIC 23bbc 0 geode::UnwrapException::~UnwrapException()
PUBLIC 23be0 0 std::__ndk1::__put_character_sequence[abi:ne180000]<char, std::__ndk1::char_traits<char> >(std::__ndk1::basic_ostream<char, std::__ndk1::char_traits<char> >, std::__ndk1::basic_ostream const*, unsigned long)
PUBLIC 23d84 0 std::__ndk1::__pad_and_output[abi:ne180000]<char, std::__ndk1::char_traits<char> >(std::__ndk1::char_traits<char>, std::__ndk1::ostreambuf_iterator const*, std::__ndk1::ostreambuf_iterator const, std::__ndk1::ostreambuf_iterator const, std::__ndk1::ios_base&, std::__ndk1::ostreambuf_iterator)
PUBLIC 23f60 0 std::__ndk1::basic_string<char, std::__ndk1::char_traits<char>, std::__ndk1::allocator<char> >::__throw_length_error[abi:ne180000]() const
PUBLIC 23f74 0 std::__ndk1::__throw_length_error[abi:ne180000](char const*)
PUBLIC 23fc4 0 std::length_error::length_error[abi:ne180000](char const*)
PUBLIC 23ff4 0 std::__throw_bad_array_new_length([abi:ne180000], void)
PUBLIC 24028 0 std::__ndk1::basic_stringbuf<char, std::__ndk1::char_traits<char>, std::__ndk1::allocator<char> >::str[abi:ne180000]() &&
PUBLIC 241a0 0 std::__ndk1::basic_stringbuf<char, std::__ndk1::char_traits<char>, std::__ndk1::allocator<char> >::__init_buf_ptrs[abi:ne180000]()
PUBLIC 242e8 0 std::__ndk1::vector<std::__ndk1::basic_string<char, std::__ndk1::char_traits<char>, std::__ndk1::allocator<char> >, std::__ndk1::allocator<std::__ndk1::basic_string<char, std::__ndk1::char_traits<char>, std::__ndk1::allocator<char> > > >::__push_back_slow_path<std::__ndk1::basic_string<char, std::__ndk1::char_traits<char>, std::__ndk1::allocator<char> > const&>(std::__ndk1::basic_string<char, std::__ndk1::char_traits<char>, std::__ndk1::allocator<char> > const&)
PUBLIC 2450c 0 std::__ndk1::basic_string<char, std::__ndk1::char_traits<char>, std::__ndk1::allocator<char> >::__init_copy_ctor_external(char const*, unsigned long)
PUBLIC 2458c 0 std::__ndk1::__split_buffer<std::__ndk1::basic_string<char, std::__ndk1::char_traits<char>, std::__ndk1::allocator<char> >, std::__ndk1::allocator<std::__ndk1::basic_string<char, std::__ndk1::char_traits<char>, std::__ndk1::allocator<char> > >&>::~__split_buffer()
PUBLIC 245f4 0 std::__ndk1::vector<std::__ndk1::basic_string<char, std::__ndk1::char_traits<char>, std::__ndk1::allocator<char> >, std::__ndk1::allocator<std::__ndk1::basic_string<char, std::__ndk1::char_traits<char>, std::__ndk1::allocator<char> > > >::__throw_length_error[abi:ne180000]() const
PUBLIC 24608 0 std::__ndk1::__variant_detail::__visitation::__base::__dispatcher<(unsigned long)0>::__dispatch[abi:ne180000]<std::__ndk1::__variant_detail::__dtor<std::__ndk1::__variant_detail::__traits<geode::Hook*, std::__ndk1::basic_string<char, std::__ndk1::char_traits<char>, std::__ndk1::allocator<char> > >, (std::__ndk1::__variant_detail::_Trait)1>::__destroy[abi:ne180000]()::{lambda(auto:1&)#1}, std::__ndk1::__variant_detail::__base<(std::__ndk1::__variant_detail::__traits<geode::Hook*, std::__ndk1::basic_string<char, std::__ndk1::char_traits<char>, std::__ndk1::allocator<char> > >)1, geode::Hook, std::__ndk1::allocator<char> >&>(std::__ndk1::__variant_detail::__dtor<std::__ndk1::__variant_detail::__traits<geode::Hook*, std::__ndk1::basic_string<char, std::__ndk1::char_traits<char>, std::__ndk1::allocator<char> > >, (std::__ndk1::__variant_detail::_Trait)1>, std::__ndk1::__variant_detail::__base<(std::__ndk1::__variant_detail::__traits<geode::Hook*, std::__ndk1::basic_string<char, std::__ndk1::char_traits<char>, std::__ndk1::allocator<char> > >)1, geode::Hook, std::__ndk1::allocator<char> >&)
PUBLIC 2460c 0 std::__ndk1::__variant_detail::__visitation::__base::__dispatcher<(unsigned long)1>::__dispatch[abi:ne180000]<std::__ndk1::__variant_detail::__dtor<std::__ndk1::__variant_detail::__traits<geode::Hook*, std::__ndk1::basic_string<char, std::__ndk1::char_traits<char>, std::__ndk1::allocator<char> > >, (std::__ndk1::__variant_detail::_Trait)1>::__destroy[abi:ne180000]()::{lambda(auto:1&)#1}, std::__ndk1::__variant_detail::__base<(std::__ndk1::__variant_detail::__traits<geode::Hook*, std::__ndk1::basic_string<char, std::__ndk1::char_traits<char>, std::__ndk1::allocator<char> > >)1, geode::Hook, std::__ndk1::allocator<char> >&>(std::__ndk1::__variant_detail::__dtor<std::__ndk1::__variant_detail::__traits<geode::Hook*, std::__ndk1::basic_string<char, std::__ndk1::char_traits<char>, std::__ndk1::allocator<char> > >, (std::__ndk1::__variant_detail::_Trait)1>, std::__ndk1::__variant_detail::__base<(std::__ndk1::__variant_detail::__traits<geode::Hook*, std::__ndk1::basic_string<char, std::__ndk1::char_traits<char>, std::__ndk1::allocator<char> > >)1, geode::Hook, std::__ndk1::allocator<char> >&)
PUBLIC 24620 0 std::__ndk1::__tree<std::__ndk1::__value_type<std::__ndk1::basic_string<char, std::__ndk1::char_traits<char>, std::__ndk1::allocator<char> >, std::__ndk1::shared_ptr<geode::Hook> >, std::__ndk1::__map_value_compare<std::__ndk1::basic_string<char, std::__ndk1::char_traits<char>, std::__ndk1::allocator<char> >, std::__ndk1::__value_type<std::__ndk1::basic_string<char, std::__ndk1::char_traits<char>, std::__ndk1::allocator<char> >, std::__ndk1::shared_ptr<geode::Hook> >, std::__ndk1::less<std::__ndk1::basic_string<char, std::__ndk1::char_traits<char>, std::__ndk1::allocator<char> > >, true>, std::__ndk1::allocator<std::__ndk1::__value_type<std::__ndk1::basic_string<char, std::__ndk1::char_traits<char>, std::__ndk1::allocator<char> >, std::__ndk1::shared_ptr<geode::Hook> > > >::find<std::__ndk1::basic_string<char, std::__ndk1::char_traits<char>, std::__ndk1::allocator<char> > >(std::__ndk1::basic_string<char, std::__ndk1::char_traits<char>, std::__ndk1::allocator<char> > const&)
PUBLIC 24740 0 std::__ndk1::__tree<std::__ndk1::__value_type<std::__ndk1::basic_string<char, std::__ndk1::char_traits<char>, std::__ndk1::allocator<char> >, std::__ndk1::shared_ptr<geode::Hook> >, std::__ndk1::__map_value_compare<std::__ndk1::basic_string<char, std::__ndk1::char_traits<char>, std::__ndk1::allocator<char> >, std::__ndk1::__value_type<std::__ndk1::basic_string<char, std::__ndk1::char_traits<char>, std::__ndk1::allocator<char> >, std::__ndk1::shared_ptr<geode::Hook> >, std::__ndk1::less<std::__ndk1::basic_string<char, std::__ndk1::char_traits<char>, std::__ndk1::allocator<char> > >, true>, std::__ndk1::allocator<std::__ndk1::__value_type<std::__ndk1::basic_string<char, std::__ndk1::char_traits<char>, std::__ndk1::allocator<char> >, std::__ndk1::shared_ptr<geode::Hook> > > >::erase(std::__ndk1::__tree_const_iterator<std::__ndk1::__value_type<std::__ndk1::basic_string<char, std::__ndk1::char_traits<char>, std::__ndk1::allocator<char> >, std::__ndk1::shared_ptr<geode::Hook> >, std::__ndk1::__tree_node<std::__ndk1::__value_type<std::__ndk1::basic_string<char, std::__ndk1::char_traits<char>, std::__ndk1::allocator<char> >, std::__ndk1::shared_ptr<geode::Hook> >, void*>*, long>)
PUBLIC 24be4 0 std::__ndk1::__tree<std::__ndk1::__value_type<std::__ndk1::basic_string<char, std::__ndk1::char_traits<char>, std::__ndk1::allocator<char> >, std::__ndk1::shared_ptr<geode::Hook> >, std::__ndk1::__map_value_compare<std::__ndk1::basic_string<char, std::__ndk1::char_traits<char>, std::__ndk1::allocator<char> >, std::__ndk1::__value_type<std::__ndk1::basic_string<char, std::__ndk1::char_traits<char>, std::__ndk1::allocator<char> >, std::__ndk1::shared_ptr<geode::Hook> >, std::__ndk1::less<std::__ndk1::basic_string<char, std::__ndk1::char_traits<char>, std::__ndk1::allocator<char> > >, true>, std::__ndk1::allocator<std::__ndk1::__value_type<std::__ndk1::basic_string<char, std::__ndk1::char_traits<char>, std::__ndk1::allocator<char> >, std::__ndk1::shared_ptr<geode::Hook> > > >::destroy(std::__ndk1::__tree_node<std::__ndk1::__value_type<std::__ndk1::basic_string<char, std::__ndk1::char_traits<char>, std::__ndk1::allocator<char> >, std::__ndk1::shared_ptr<geode::Hook> >, void*>*)
PUBLIC 24c68 0 geode::modifier::AsStaticFunction_resetLevel<ANARPlayLayer, void (ANARPlayLayer::*)()>::Impl<void (ANARPlayLayer::*)()>::function(ANARPlayLayer*)
PUBLIC 24d6c 0 geode::modifier::AsStaticFunction_destroyPlayer<ANARPlayLayer, void (ANARPlayLayer::*)(PlayerObject*, GameObject*)>::Impl<void (ANARPlayLayer::*)(PlayerObject*, GameObject*)>::function(ANARPlayLayer*, PlayerObject*, GameObject*)
PUBLIC 24e88 0 std::__ndk1::shared_ptr<tulip::hook::CallingConvention>::~shared_ptr[abi:ne180000]()
PUBLIC 24ed8 0 tulip::hook::HandlerMetadata::~HandlerMetadata()
PUBLIC 24f3c 0 std::__ndk1::vector<tulip::hook::AbstractType, std::__ndk1::allocator<tulip::hook::AbstractType> >::__throw_length_error[abi:ne180000]() const
PUBLIC 24f50 0 std::__ndk1::__tree<std::__ndk1::__value_type<std::__ndk1::basic_string<char, std::__ndk1::char_traits<char>, std::__ndk1::allocator<char> >, std::__ndk1::shared_ptr<geode::Hook> >, std::__ndk1::__map_value_compare<std::__ndk1::basic_string<char, std::__ndk1::char_traits<char>, std::__ndk1::allocator<char> >, std::__ndk1::__value_type<std::__ndk1::basic_string<char, std::__ndk1::char_traits<char>, std::__ndk1::allocator<char> >, std::__ndk1::shared_ptr<geode::Hook> >, std::__ndk1::less<std::__ndk1::basic_string<char, std::__ndk1::char_traits<char>, std::__ndk1::allocator<char> > >, true>, std::__ndk1::allocator<std::__ndk1::__value_type<std::__ndk1::basic_string<char, std::__ndk1::char_traits<char>, std::__ndk1::allocator<char> >, std::__ndk1::shared_ptr<geode::Hook> > > >::__emplace_unique_key_args<std::__ndk1::basic_string<char, std::__ndk1::char_traits<char>, std::__ndk1::allocator<char> >, std::__ndk1::piecewise_construct_t const&, std::__ndk1::tuple<std::__ndk1::basic_string<char, std::__ndk1::char_traits<char>, std::__ndk1::allocator<char> >&&>, std::__ndk1::tuple<> >(std::__ndk1::basic_string<char, std::__ndk1::char_traits<char>, std::__ndk1::allocator<char> > const&, std::__ndk1::piecewise_construct_t const&, std::__ndk1::tuple<std::__ndk1::basic_string<char, std::__ndk1::char_traits<char>, std::__ndk1::allocator<char> >&&>, std::__ndk1::tuple<>)
PUBLIC 250b8 0 std::__ndk1::__tree_balance_after_insert[abi:ne180000]<std::__ndk1::__tree_node_base<void*>*>(std::__ndk1::__tree_node_base<void*>*, std::__ndk1::__tree_node_base<void*>*)
PUBLIC 25268 0 geode::addresser::Addresser::addressOfVirtual<void, PlayLayer, PlayerObject*, GameObject*>(void (PlayLayer::*)(PlayerObject*, GameObject*))
PUBLIC 25330 0 PlayLayer::PlayLayer(geode::ZeroConstructorType)
PUBLIC 25b4c 0 GJGameState::GJGameState()
PUBLIC 260c4 0 geode::stl::unordered_map<int, int, geode::stl::hash<int>, geode::stl::equal_to<int>, std::__ndk1::allocator<std::__ndk1::pair<int const, int> > >::~unordered_map()
PUBLIC 2613c 0 geode::stl::unordered_set<int, geode::stl::hash<int>, geode::stl::equal_to<int>, std::__ndk1::allocator<int> >::~unordered_set()
PUBLIC 261b4 0 geode::stl::unordered_map<int, gd::string, geode::stl::hash<int>, geode::stl::equal_to<int>, std::__ndk1::allocator<std::__ndk1::pair<int const, gd::string> > >::~unordered_map()
PUBLIC 26238 0 gd::map<std::__ndk1::pair<int, int>, int>::~map()
PUBLIC 26254 0 geode::stl::unordered_map<int, gd::vector<LabelGameObject*>, geode::stl::hash<int>, geode::stl::equal_to<int>, std::__ndk1::allocator<std::__ndk1::pair<int const, gd::vector<LabelGameObject*> > > >::~unordered_map()
PUBLIC 262e0 0 geode::stl::unordered_map<int, std::__ndk1::pair<int, int>, geode::stl::hash<int>, geode::stl::equal_to<int>, std::__ndk1::allocator<std::__ndk1::pair<int const, std::__ndk1::pair<int, int> > > >::~unordered_map()
PUBLIC 26358 0 geode::stl::unordered_map<int, gd::vector<GameObject*>, geode::stl::hash<int>, geode::stl::equal_to<int>, std::__ndk1::allocator<std::__ndk1::pair<int const, gd::vector<GameObject*> > > >::~unordered_map()
PUBLIC 263e4 0 geode::stl::unordered_map<int, cocos2d::CCPoint, geode::stl::hash<int>, geode::stl::equal_to<int>, std::__ndk1::allocator<std::__ndk1::pair<int const, cocos2d::CCPoint> > >::~unordered_map()
PUBLIC 2645c 0 gd::vector<geode::stl::unordered_map<int, int, geode::stl::hash<int>, geode::stl::equal_to<int>, std::__ndk1::allocator<std::__ndk1::pair<int const, int> > > >::~vector()
PUBLIC 26560 0 GJGameState::~GJGameState()
PUBLIC 26958 0 geode::stl::unordered_map<int, SongChannelState, geode::stl::hash<int>, geode::stl::equal_to<int>, std::__ndk1::allocator<std::__ndk1::pair<int const, SongChannelState> > >::~unordered_map()
PUBLIC 269d0 0 gd::map<std::__ndk1::pair<int, int>, SFXTriggerInstance>::~map()
PUBLIC 269ec 0 geode::stl::unordered_map<int, std::__ndk1::vector<int, std::__ndk1::allocator<int> >, geode::stl::hash<int>, geode::stl::equal_to<int>, std::__ndk1::allocator<std::__ndk1::pair<int const, std::__ndk1::vector<int, std::__ndk1::allocator<int> > > > >::~unordered_map()
PUBLIC 26a7c 0 gd::vector<EnterEffectInstance>::~vector()
PUBLIC 26b14 0 geode::stl::unordered_map<int, std::__ndk1::vector<EnterEffectInstance, std::__ndk1::allocator<EnterEffectInstance> >, geode::stl::hash<int>, geode::stl::equal_to<int>, std::__ndk1::allocator<std::__ndk1::pair<int const, std::__ndk1::vector<EnterEffectInstance, std::__ndk1::allocator<EnterEffectInstance> > > > >::~unordered_map()
PUBLIC 26b50 0 gd::map<std::__ndk1::pair<GJGameEvent, int>, int>::~map()
PUBLIC 26b6c 0 gd::map<std::__ndk1::pair<GJGameEvent, int>, gd::vector<EventTriggerInstance> >::~map()
PUBLIC 26b88 0 geode::stl::unordered_map<int, EnhancedGameObject*, geode::stl::hash<int>, geode::stl::equal_to<int>, std::__ndk1::allocator<std::__ndk1::pair<int const, EnhancedGameObject*> > >::~unordered_map()
PUBLIC 26c00 0 geode::stl::unordered_map<int, GameObjectPhysics, geode::stl::hash<int>, geode::stl::equal_to<int>, std::__ndk1::allocator<std::__ndk1::pair<int const, GameObjectPhysics> > >::~unordered_map()
PUBLIC 26c78 0 geode::stl::unordered_map<int, GJValueTween, geode::stl::hash<int>, geode::stl::equal_to<int>, std::__ndk1::allocator<std::__ndk1::pair<int const, GJValueTween> > >::~unordered_map()
PUBLIC 26cf0 0 geode::stl::unordered_map<int, bool, geode::stl::hash<int>, geode::stl::equal_to<int>, std::__ndk1::allocator<std::__ndk1::pair<int const, bool> > >::~unordered_map()
PUBLIC 26d68 0 gd::map<std::__ndk1::pair<GJGameEvent, int>, gd::vector<EventTriggerInstance> >::map(std::__ndk1::map<std::__ndk1::pair<GJGameEvent, int>, gd::vector<EventTriggerInstance>, std::__ndk1::less<std::__ndk1::pair<GJGameEvent, int> >, std::__ndk1::allocator<std::__ndk1::pair<std::__ndk1::pair<GJGameEvent, int> const, gd::vector<EventTriggerInstance> > > >)
PUBLIC 26f34 0 gd::map<std::__ndk1::pair<GJGameEvent, int>, gd::vector<EventTriggerInstance> >::insert_pair(std::__ndk1::pair<std::__ndk1::pair<GJGameEvent, int>, gd::vector<EventTriggerInstance> > const&)
PUBLIC 271ec 0 std::__ndk1::pair<std::__ndk1::pair<GJGameEvent, int>, gd::vector<EventTriggerInstance> >::~pair()
PUBLIC 2726c 0 std::__ndk1::pair<std::__ndk1::pair<GJGameEvent, int> const, gd::vector<EventTriggerInstance> >::~pair()
PUBLIC 272ec 0 gd::vector<EventTriggerInstance>::vector(gd::vector<EventTriggerInstance> const&)
PUBLIC 2748c 0 geode::stl::_rb_insert_rebalance(bool, geode::stl::_rb_tree_base*, geode::stl::_rb_tree_base*, geode::stl::_rb_tree_base&)
PUBLIC 27744 0 gd::vector<EventTriggerInstance>::operator=(gd::vector<EventTriggerInstance> const&)
PUBLIC 27900 0 gd::vector<EventTriggerInstance>::~vector()
PUBLIC 27980 0 std::__ndk1::__tree<std::__ndk1::__value_type<std::__ndk1::pair<GJGameEvent, int>, gd::vector<EventTriggerInstance> >, std::__ndk1::__map_value_compare<std::__ndk1::pair<GJGameEvent, int>, std::__ndk1::__value_type<std::__ndk1::pair<GJGameEvent, int>, gd::vector<EventTriggerInstance> >, std::__ndk1::less<std::__ndk1::pair<GJGameEvent, int> >, true>, std::__ndk1::allocator<std::__ndk1::__value_type<std::__ndk1::pair<GJGameEvent, int>, gd::vector<EventTriggerInstance> > > >::destroy(std::__ndk1::__tree_node<std::__ndk1::__value_type<std::__ndk1::pair<GJGameEvent, int>, gd::vector<EventTriggerInstance> >, void*>*)
PUBLIC 27a18 0 gd::map<std::__ndk1::pair<int, int>, SFXTriggerInstance>::erase(geode::stl::_rb_tree_node<std::__ndk1::pair<std::__ndk1::pair<int, int>, SFXTriggerInstance> >*)
PUBLIC 27a6c 0 gd::map<int, EnterEffectAnimValue>::erase(geode::stl::_rb_tree_node<std::__ndk1::pair<int, EnterEffectAnimValue> >*)
PUBLIC 27ac0 0 geode::stl::_Hashtable<int, std::__ndk1::pair<int const, std::__ndk1::vector<EnterEffectInstance, std::__ndk1::allocator<EnterEffectInstance> > >, std::__ndk1::allocator<std::__ndk1::pair<int const, std::__ndk1::vector<EnterEffectInstance, std::__ndk1::allocator<EnterEffectInstance> > > >, geode::stl::__detail::_Select1st, geode::stl::equal_to<int>, geode::stl::hash<int>, geode::stl::__detail::_Mod_range_hashing, geode::stl::__detail::_Default_ranged_hash, geode::stl::__detail::_Prime_rehash_policy, geode::stl::__detail::_Hashtable_traits<false, false, true> >::clear()
PUBLIC 27b68 0 gd::map<std::__ndk1::pair<GJGameEvent, int>, int>::erase(geode::stl::_rb_tree_node<std::__ndk1::pair<std::__ndk1::pair<GJGameEvent, int>, int> >*)
PUBLIC 27bbc 0 gd::map<std::__ndk1::pair<GJGameEvent, int>, gd::vector<EventTriggerInstance> >::erase(geode::stl::_rb_tree_node<std::__ndk1::pair<std::__ndk1::pair<GJGameEvent, int>, gd::vector<EventTriggerInstance> > >*)
PUBLIC 27c64 0 gd::map<std::__ndk1::pair<int, int>, int>::erase(geode::stl::_rb_tree_node<std::__ndk1::pair<std::__ndk1::pair<int, int>, int> >*)
PUBLIC 27cb8 0 geode::modifier::ModifyDerive<ANARPauseLayer, PauseLayer>::apply()
PUBLIC 27fd4 0 geode::modifier::ModifyBase<geode::modifier::ModifyDerive<ANARPauseLayer, PauseLayer> >::apply()
PUBLIC 27fd8 0 geode::modifier::AsStaticFunction_customSetup<ANARPauseLayer, void (ANARPauseLayer::*)()>::Impl<void (ANARPauseLayer::*)()>::function(ANARPauseLayer*)
PUBLIC 2815c 0 geode::addresser::Addresser::addressOfVirtual<void, PauseLayer, >(void (PauseLayer::*)())
PUBLIC 28204 0 PauseLayer::PauseLayer(geode::ZeroConstructorType)
PUBLIC 28290 0 ANARPauseLayer::onAutoNoAutoRetry(cocos2d::CCObject*)
PUBLIC m 282ac 0 geodeImplicitEntry
PUBLIC 282e8 0 cocos2d::CCDestructor::~CCDestructor()
PUBLIC 283e4 0 wrapFunction(unsigned long, tulip::hook::WrapperMetadata const&)
PUBLIC 28518 0 geode::impl::ResultData<void*, std::__ndk1::basic_string<char, std::__ndk1::char_traits<char>, std::__ndk1::allocator<char> > >::unwrapErr() &
PUBLIC 28590 0 geode::impl::ResultData<void*, std::__ndk1::basic_string<char, std::__ndk1::char_traits<char>, std::__ndk1::allocator<char> > >::~ResultData()
PUBLIC 28604 0 tulip::hook::WrapperMetadata::~WrapperMetadata()
PUBLIC 28668 0 cocos2d::CCObject::CCObject()
PUBLIC 287dc 0 cocos2d::CCNode::~CCNode()
PUBLIC 28800 0 {virtual override thunk({offset(-320)}, cocos2d::CCLayer::~CCLayer())}
PUBLIC 28808 0 cocos2d::CCLayer::~CCLayer()
PUBLIC 2882c 0 {virtual override thunk({offset(-320)}, cocos2d::CCLayer::~CCLayer())}
PUBLIC 28854 0 cocos2d::CCObject::~CCObject()
PUBLIC 28878 0 cocos2d::CCLayerColor::CCLayerColor()
PUBLIC 28da0 0 cocos2d::CCLayerRGBA::~CCLayerRGBA()
PUBLIC 28fec 0 {virtual override thunk({offset(-320)}, cocos2d::CCLayerColor::~CCLayerColor())}
PUBLIC 28ff4 0 cocos2d::CCLayerColor::~CCLayerColor()
PUBLIC 29018 0 {virtual override thunk({offset(-320)}, cocos2d::CCLayerColor::~CCLayerColor())}
PUBLIC 29040 0 {virtual override thunk({offset(-320)}, cocos2d::CCLayerRGBA::~CCLayerRGBA())}
PUBLIC 29048 0 cocos2d::CCLayerRGBA::~CCLayerRGBA()
PUBLIC 2906c 0 {virtual override thunk({offset(-320)}, cocos2d::CCLayerRGBA::~CCLayerRGBA())}
PUBLIC 29094 0 {virtual override thunk({offset(-320)}, FLAlertLayer::~FLAlertLayer())}
PUBLIC 2909c 0 FLAlertLayer::~FLAlertLayer()
PUBLIC 290c0 0 {virtual override thunk({offset(-320)}, FLAlertLayer::~FLAlertLayer())}
PUBLIC 290e8 0 GJBaseGameLayer::~GJBaseGameLayer()
PUBLIC 298f4 0 GJBaseGameLayer::GJBaseGameLayer(geode::CutoffConstructorType, unsigned long)
PUBLIC 2a0a4 0 {virtual override thunk({offset(-320)}, GJBaseGameLayer::~GJBaseGameLayer())}
PUBLIC 2a0ac 0 GJBaseGameLayer::~GJBaseGameLayer()
PUBLIC 2a0d0 0 {virtual override thunk({offset(-320)}, GJBaseGameLayer::~GJBaseGameLayer())}
PUBLIC 2a0f8 0 GJBaseGameLayer::toggleGroupTriggered(int, bool, gd::vector<int> const&, int, int)
PUBLIC 2a264 0 tulip::hook::AbstractFunction::from<void, GJBaseGameLayer*, int, bool, gd::vector<int> const&, int, int>(void (*)(GJBaseGameLayer*, int, bool, gd::vector<int> const&, int, int))
PUBLIC 2a710 0 {virtual override thunk({offset(-408)}, GJBaseGameLayer::toggleGroupTriggered(int, bool, gd::vector<int> const&, int, int))}
PUBLIC 2a718 0 GJBaseGameLayer::spawnGroup(int, bool, double, gd::vector<int> const&, int, int)
PUBLIC 2a894 0 tulip::hook::AbstractFunction::from<void, GJBaseGameLayer*, int, bool, double, gd::vector<int> const&, int, int>(void (*)(GJBaseGameLayer*, int, bool, double, gd::vector<int> const&, int, int))
PUBLIC 2ae40 0 {virtual override thunk({offset(-408)}, GJBaseGameLayer::spawnGroup(int, bool, double, gd::vector<int> const&, int, int))}
PUBLIC 2ae48 0 GJBaseGameLayer::spawnObject(GameObject*, double, gd::vector<int> const&)
PUBLIC 2afa4 0 tulip::hook::AbstractFunction::from<void, GJBaseGameLayer*, GameObject*, double, gd::vector<int> const&>(void (*)(GJBaseGameLayer*, GameObject*, double, gd::vector<int> const&))
PUBLIC 2b278 0 {virtual override thunk({offset(-408)}, GJBaseGameLayer::spawnObject(GameObject*, double, gd::vector<int> const&))}
PUBLIC 2b280 0 GJBaseGameLayer::activatePlatformerEndTrigger(EndTriggerGameObject*, gd::vector<int> const&)
PUBLIC 2b3cc 0 tulip::hook::AbstractFunction::from<void, GJBaseGameLayer*, EndTriggerGameObject*, gd::vector<int> const&>(void (*)(GJBaseGameLayer*, EndTriggerGameObject*, gd::vector<int> const&))
PUBLIC 2b4d4 0 GJBaseGameLayer::toggleGlitter(bool)
PUBLIC 2b4d8 0 GJBaseGameLayer::timeForPos(cocos2d::CCPoint, int, int, bool, int)
PUBLIC 2b4e0 0 GJBaseGameLayer::posForTime(float)
PUBLIC 2b4e8 0 GJBaseGameLayer::resetSPTriggered()
PUBLIC 2b4ec 0 GJBaseGameLayer::createCustomParticle(gd::string const&, cocos2d::ParticleStruct const&, int, bool)
PUBLIC 2b650 0 tulip::hook::AbstractFunction::from<TodoReturnPlaceholder, GJBaseGameLayer*, gd::string const&, cocos2d::ParticleStruct const&, int, bool>(TodoReturnPlaceholder (*)(GJBaseGameLayer*, gd::string const&, cocos2d::ParticleStruct const&, int, bool))
PUBLIC 2ba24 0 GJBaseGameLayer::claimCustomParticle(gd::string const&, cocos2d::ParticleStruct const&, int, int, int, bool)
PUBLIC 2bba0 0 tulip::hook::AbstractFunction::from<TodoReturnPlaceholder, GJBaseGameLayer*, gd::string const&, cocos2d::ParticleStruct const&, int, int, int, bool>(TodoReturnPlaceholder (*)(GJBaseGameLayer*, gd::string const&, cocos2d::ParticleStruct const&, int, int, int, bool))
PUBLIC 2c174 0 GJBaseGameLayer::unclaimCustomParticle(gd::string const&, cocos2d::CCParticleSystemQuad*)
PUBLIC 2c2c0 0 tulip::hook::AbstractFunction::from<TodoReturnPlaceholder, GJBaseGameLayer*, gd::string const&, cocos2d::CCParticleSystemQuad*>(TodoReturnPlaceholder (*)(GJBaseGameLayer*, gd::string const&, cocos2d::CCParticleSystemQuad*))
PUBLIC 2c3c8 0 PlayLayer::~PlayLayer()
PUBLIC 2c6c4 0 {virtual override thunk({offset(-320)}, PlayLayer::~PlayLayer())}
PUBLIC 2c6cc 0 PlayLayer::~PlayLayer()
PUBLIC 2c6f0 0 {virtual override thunk({offset(-320)}, PlayLayer::~PlayLayer())}
PUBLIC 2c718 0 PlayLayer::activatePlatformerEndTrigger(EndTriggerGameObject*, gd::vector<int> const&)
PUBLIC 2c864 0 tulip::hook::AbstractFunction::from<void, PlayLayer*, EndTriggerGameObject*, gd::vector<int> const&>(void (*)(PlayLayer*, EndTriggerGameObject*, gd::vector<int> const&))
PUBLIC 2c96c 0 cocos2d::CCLayer::~CCLayer()
PUBLIC 2cbb0 0 cocos2d::CCLayerColor::~CCLayerColor()
PUBLIC 2ce04 0 FLAlertLayer::~FLAlertLayer()
PUBLIC 2d0b8 0 cocos2d::CCNode::~CCNode()
PUBLIC 2d2dc 0 cocos2d::CCObject::~CCObject()
PUBLIC 2d500 0 _ZN5geode15UnwrapExceptionC2IRPvQsr4implE18IsStringStreamableIT_EEENS_4impl5OkTagEOS4_
PUBLIC 2d654 0 _ZN5geode15UnwrapExceptionC2IRNSt6__ndk112basic_stringIcNS2_11char_traitsIcEENS2_9allocatorIcEEEEQsr4implE18IsStringStreamableIT_EEENS_4impl6ErrTagEOSA_
PUBLIC 2d7bc 0 std::__ndk1::__variant_detail::__visitation::__base::__dispatcher<(unsigned long)0>::__dispatch[abi:ne180000]<std::__ndk1::__variant_detail::__dtor<std::__ndk1::__variant_detail::__traits<void*, std::__ndk1::basic_string<char, std::__ndk1::char_traits<char>, std::__ndk1::allocator<char> > >, (std::__ndk1::__variant_detail::_Trait)1>::__destroy[abi:ne180000]()::{lambda(auto:1&)#1}, std::__ndk1::__variant_detail::__base<(std::__ndk1::__variant_detail::__traits<void*, std::__ndk1::basic_string<char, std::__ndk1::char_traits<char>, std::__ndk1::allocator<char> > >)1, std::__ndk1::__variant_detail::__traits, std::__ndk1::allocator<char> >&>(std::__ndk1::__variant_detail::__dtor<std::__ndk1::__variant_detail::__traits<void*, std::__ndk1::basic_string<char, std::__ndk1::char_traits<char>, std::__ndk1::allocator<char> > >, (std::__ndk1::__variant_detail::_Trait)1>, std::__ndk1::__variant_detail::__base<(std::__ndk1::__variant_detail::__traits<void*, std::__ndk1::basic_string<char, std::__ndk1::char_traits<char>, std::__ndk1::allocator<char> > >)1, std::__ndk1::__variant_detail::__traits, std::__ndk1::allocator<char> >&)
PUBLIC 2d7c0 0 std::__ndk1::__variant_detail::__visitation::__base::__dispatcher<(unsigned long)1>::__dispatch[abi:ne180000]<std::__ndk1::__variant_detail::__dtor<std::__ndk1::__variant_detail::__traits<void*, std::__ndk1::basic_string<char, std::__ndk1::char_traits<char>, std::__ndk1::allocator<char> > >, (std::__ndk1::__variant_detail::_Trait)1>::__destroy[abi:ne180000]()::{lambda(auto:1&)#1}, std::__ndk1::__variant_detail::__base<(std::__ndk1::__variant_detail::__traits<void*, std::__ndk1::basic_string<char, std::__ndk1::char_traits<char>, std::__ndk1::allocator<char> > >)1, std::__ndk1::__variant_detail::__traits, std::__ndk1::allocator<char> >&>(std::__ndk1::__variant_detail::__dtor<std::__ndk1::__variant_detail::__traits<void*, std::__ndk1::basic_string<char, std::__ndk1::char_traits<char>, std::__ndk1::allocator<char> > >, (std::__ndk1::__variant_detail::_Trait)1>, std::__ndk1::__variant_detail::__base<(std::__ndk1::__variant_detail::__traits<void*, std::__ndk1::basic_string<char, std::__ndk1::char_traits<char>, std::__ndk1::allocator<char> > >)1, std::__ndk1::__variant_detail::__traits, std::__ndk1::allocator<char> >&)
PUBLIC 2d7d4 0 std::__ndk1::__hash_table<std::__ndk1::__hash_value_type<void*, bool>, std::__ndk1::__unordered_map_hasher<void*, std::__ndk1::__hash_value_type<void*, bool>, std::__ndk1::hash<void*>, std::__ndk1::equal_to<void*>, true>, std::__ndk1::__unordered_map_equal<void*, std::__ndk1::__hash_value_type<void*, bool>, std::__ndk1::equal_to<void*>, std::__ndk1::hash<void*>, true>, std::__ndk1::allocator<std::__ndk1::__hash_value_type<void*, bool> > >::__emplace_unique_key_args<void*, std::__ndk1::piecewise_construct_t const&, std::__ndk1::tuple<void* const&>, std::__ndk1::tuple<> >(void* const&, std::__ndk1::piecewise_construct_t const&, std::__ndk1::tuple<void* const&>, std::__ndk1::tuple<>)
PUBLIC 2dcb4 0 std::__ndk1::__hash_table<std::__ndk1::__hash_value_type<void*, bool>, std::__ndk1::__unordered_map_hasher<void*, std::__ndk1::__hash_value_type<void*, bool>, std::__ndk1::hash<void*>, std::__ndk1::equal_to<void*>, true>, std::__ndk1::__unordered_map_equal<void*, std::__ndk1::__hash_value_type<void*, bool>, std::__ndk1::equal_to<void*>, std::__ndk1::hash<void*>, true>, std::__ndk1::allocator<std::__ndk1::__hash_value_type<void*, bool> > >::find<void*>(void* const&)
PUBLIC 2ddc4 0 std::__ndk1::__hash_table<std::__ndk1::__hash_value_type<void*, bool>, std::__ndk1::__unordered_map_hasher<void*, std::__ndk1::__hash_value_type<void*, bool>, std::__ndk1::hash<void*>, std::__ndk1::equal_to<void*>, true>, std::__ndk1::__unordered_map_equal<void*, std::__ndk1::__hash_value_type<void*, bool>, std::__ndk1::equal_to<void*>, std::__ndk1::hash<void*>, true>, std::__ndk1::allocator<std::__ndk1::__hash_value_type<void*, bool> > >::remove(std::__ndk1::__hash_const_iterator<std::__ndk1::__hash_node<std::__ndk1::__hash_value_type<void*, bool>, void*>*>)
PUBLIC 2df00 0 <.plt ELF section in hiimjustin000.auto_no_auto_retry.android64.so>
STACK CFI INIT 1b490 10 .cfa: sp 0 +
STACK CFI INIT 1b4a0 8 .cfa: sp 0 +
STACK CFI INIT 1b4a8 8 .cfa: sp 0 +
STACK CFI INIT 1b4b0 14 .cfa: sp 0 +
STACK CFI INIT 1b4c4 1c .cfa: sp 0 +
STACK CFI INIT 1b4e0 10 .cfa: sp 0 +
STACK CFI INIT 1b4f0 134 .cfa: sp 0 +
STACK CFI INIT 1b624 84 .cfa: sp 0 +
STACK CFI INIT 1b6a8 f4 .cfa: sp 0 +
STACK CFI INIT 1b79c a8 .cfa: sp 0 +
STACK CFI INIT 1b844 7c .cfa: sp 0 +
STACK CFI INIT 1b8c0 14 .cfa: sp 0 +
STACK CFI INIT 1b8d4 40 .cfa: sp 0 +
STACK CFI INIT 1b914 28 .cfa: sp 0 +
STACK CFI INIT 1b93c 190 .cfa: sp 0 +
STACK CFI INIT 1bacc 2c8 .cfa: sp 0 +
STACK CFI INIT 1bd94 8 .cfa: sp 0 +
STACK CFI INIT 1bd9c 8 .cfa: sp 0 +
STACK CFI INIT 1bda4 44 .cfa: sp 0 +
STACK CFI INIT 1bde8 e8 .cfa: sp 0 +
STACK CFI INIT 1bed0 e8 .cfa: sp 0 +
STACK CFI INIT 1bfb8 14 .cfa: sp 0 +
STACK CFI INIT 1bfcc 10 .cfa: sp 0 +
STACK CFI INIT 1bfdc 10 .cfa: sp 0 +
STACK CFI INIT 1bfec f0 .cfa: sp 0 +
STACK CFI INIT 1c0dc 44 .cfa: sp 0 +
STACK CFI INIT 1c120 c .cfa: sp 0 +
STACK CFI INIT 1c12c c .cfa: sp 0 +
STACK CFI INIT 1c138 2c .cfa: sp 0 +
STACK CFI INIT 1c164 280 .cfa: sp 0 +
STACK CFI INIT 1c3e4 c .cfa: sp 0 +
STACK CFI INIT 1c3f0 120 .cfa: sp 0 +
STACK CFI INIT 1c510 488 .cfa: sp 0 +
STACK CFI INIT 1c998 c48 .cfa: sp 0 +
STACK CFI INIT 1d5e0 134 .cfa: sp 0 +
STACK CFI INIT 1d714 210 .cfa: sp 0 +
STACK CFI INIT 1d924 38c .cfa: sp 0 +
STACK CFI INIT 1dcb0 1c8 .cfa: sp 0 +
STACK CFI INIT 1de78 9bc .cfa: sp 0 +
STACK CFI INIT 1e834 2d4 .cfa: sp 0 +
STACK CFI INIT 1eb08 134 .cfa: sp 0 +
STACK CFI INIT 1ec3c 120 .cfa: sp 0 +
STACK CFI INIT 1ed5c 1c8 .cfa: sp 0 +
STACK CFI INIT 1ef24 168 .cfa: sp 0 +
STACK CFI INIT 1f08c fc .cfa: sp 0 +
STACK CFI INIT 1f188 30 .cfa: sp 0 +
STACK CFI INIT 1f2f0 30 .cfa: sp 0 +
STACK CFI INIT 1f320 98 .cfa: sp 0 +
STACK CFI INIT 1f3b8 59c .cfa: sp 0 +
STACK CFI INIT 1f954 8c .cfa: sp 0 +
STACK CFI INIT 1f9e0 30 .cfa: sp 0 +
STACK CFI INIT 20bb4 40 .cfa: sp 0 +
STACK CFI 20bb8 .cfa: sp 32 +
STACK CFI 20bc0 .cfa: x29 32 + x19: .cfa -16 + ^ .ra: .cfa -24 + ^ x29: .cfa -32 + ^
STACK CFI 20be8 .cfa: sp 32 +
STACK CFI 20bf0 .cfa: sp 0 +
STACK CFI INIT 2108c 8 .cfa: sp 0 +
STACK CFI INIT 21174 2c .cfa: sp 0 +
STACK CFI 21178 .cfa: sp 32 +
STACK CFI 21180 .cfa: x29 32 + x19: .cfa -16 + ^ .ra: .cfa -24 + ^ x29: .cfa -32 + ^
STACK CFI 21194 .cfa: sp 32 +
STACK CFI 2119c .cfa: sp 0 +
STACK CFI INIT 211a0 28 .cfa: sp 0 +
STACK CFI INIT 211c8 4 .cfa: sp 0 +
STACK CFI INIT 211cc 8 .cfa: sp 0 +
STACK CFI INIT 213fc 2c .cfa: sp 0 +
STACK CFI INIT 21428 4 .cfa: sp 0 +
STACK CFI INIT 2142c 4 .cfa: sp 0 +
STACK CFI INIT 21430 4 .cfa: sp 0 +
STACK CFI INIT 21434 4 .cfa: sp 0 +
STACK CFI INIT 21438 4 .cfa: sp 0 +
STACK CFI INIT 2143c 8 .cfa: sp 0 +
STACK CFI INIT 21444 4 .cfa: sp 0 +
STACK CFI INIT 214b4 4 .cfa: sp 0 +
STACK CFI INIT 214b8 10 .cfa: sp 0 +
STACK CFI 214bc .cfa: sp 16 +
STACK CFI 214c0 .cfa: x29 16 + .ra: .cfa -8 + ^ x29: .cfa -16 + ^
STACK CFI INIT 214c8 70 .cfa: sp 0 +
STACK CFI 214cc .cfa: sp 48 +
STACK CFI 214d8 .cfa: x29 32 + x19: .cfa -16 + ^ .ra: .cfa -24 + ^ x29: .cfa -32 + ^
STACK CFI 21510 .cfa: sp 48 +
STACK CFI 2151c .cfa: sp 0 +
STACK CFI 21520 .cfa: x29 32 +
STACK CFI INIT 21538 5c .cfa: sp 0 +
STACK CFI 2153c .cfa: sp 32 +
STACK CFI 21544 .cfa: x29 32 + x19: .cfa -16 + ^ .ra: .cfa -24 + ^ x29: .cfa -32 + ^
STACK CFI 21588 .cfa: sp 32 +
STACK CFI 21590 .cfa: sp 0 +
STACK CFI INIT 21594 64 .cfa: sp 0 +
STACK CFI 21598 .cfa: sp 32 +
STACK CFI 215a0 .cfa: x29 32 + x19: .cfa -16 + ^ .ra: .cfa -24 + ^ x29: .cfa -32 + ^
STACK CFI 215ec .cfa: sp 32 +
STACK CFI 215f4 .cfa: sp 0 +
STACK CFI INIT 215f8 4 .cfa: sp 0 +
STACK CFI INIT 215fc 34 .cfa: sp 0 +
STACK CFI 21600 .cfa: sp 16 +
STACK CFI 21604 .cfa: x29 16 + .ra: .cfa -8 + ^ x29: .cfa -16 + ^
STACK CFI INIT 21630 24 .cfa: sp 0 +
STACK CFI 21634 .cfa: sp 32 +
STACK CFI 2163c .cfa: x29 32 + x19: .cfa -16 + ^ .ra: .cfa -24 + ^ x29: .cfa -32 + ^
STACK CFI 21648 .cfa: sp 32 +
STACK CFI 21650 .cfa: sp 0 +
STACK CFI INIT 21654 70 .cfa: sp 0 +
STACK CFI 21658 .cfa: sp 48 +
STACK CFI 21664 .cfa: x29 32 + x19: .cfa -16 + ^ .ra: .cfa -24 + ^ x29: .cfa -32 + ^
STACK CFI 2169c .cfa: sp 48 +
STACK CFI 216a8 .cfa: sp 0 +
STACK CFI 216ac .cfa: x29 32 +
STACK CFI INIT 216c4 5c .cfa: sp 0 +
STACK CFI 216c8 .cfa: sp 32 +
STACK CFI 216d0 .cfa: x29 32 + x19: .cfa -16 + ^ .ra: .cfa -24 + ^ x29: .cfa -32 + ^
STACK CFI 21714 .cfa: sp 32 +
STACK CFI 2171c .cfa: sp 0 +
STACK CFI INIT 21720 64 .cfa: sp 0 +
STACK CFI 21724 .cfa: sp 32 +
STACK CFI 2172c .cfa: x29 32 + x19: .cfa -16 + ^ .ra: .cfa -24 + ^ x29: .cfa -32 + ^
STACK CFI 21778 .cfa: sp 32 +
STACK CFI 21780 .cfa: sp 0 +
STACK CFI INIT 21784 308 .cfa: sp 0 +
STACK CFI 21788 .cfa: sp 128 +
STACK CFI 217a0 .cfa: x29 64 + x19: .cfa -8 + ^ x20: .cfa -16 + ^ x21: .cfa -24 + ^ x22: .cfa -32 + ^ x23: .cfa -48 + ^ .ra: .cfa -56 + ^ x29: .cfa -64 + ^ v8: .cfa -72 + ^ v9: .cfa -80 + ^
STACK CFI 219d4 .cfa: sp 128 +
STACK CFI 219ec .cfa: sp 0 +
STACK CFI 219f0 .cfa: x29 64 +
STACK CFI INIT 21a8c 50 .cfa: sp 0 +
STACK CFI 21a90 .cfa: sp 32 +
STACK CFI 21a98 .cfa: x29 32 + x19: .cfa -16 + ^ .ra: .cfa -24 + ^ x29: .cfa -32 + ^
STACK CFI 21ab0 .cfa: sp 32 +
STACK CFI 21ab8 .cfa: sp 0 +
STACK CFI 21abc .cfa: x29 32 +
STACK CFI 21ad0 .cfa: sp 32 +
STACK CFI 21ad8 .cfa: sp 0 +
STACK CFI INIT 21adc 104 .cfa: sp 0 +
STACK CFI 21ae0 .cfa: sp 64 +
STACK CFI 21af0 .cfa: x29 64 + x19: .cfa -8 + ^ x20: .cfa -16 + ^ x21: .cfa -24 + ^ x22: .cfa -32 + ^ x23: .cfa -48 + ^ .ra: .cfa -56 + ^ x29: .cfa -64 + ^
STACK CFI 21b4c .cfa: sp 64 +
STACK CFI 21b5c .cfa: sp 0 +
STACK CFI 21b60 .cfa: x29 64 +
STACK CFI 21b7c .cfa: sp 64 +
STACK CFI 21b8c .cfa: sp 0 +
STACK CFI 21b90 .cfa: x29 64 +
STACK CFI 21bcc .cfa: sp 64 +
STACK CFI 21bdc .cfa: sp 0 +
STACK CFI INIT 21be0 50 .cfa: sp 0 +
STACK CFI 21be4 .cfa: sp 32 +
STACK CFI 21bec .cfa: x29 32 + x19: .cfa -16 + ^ .ra: .cfa -24 + ^ x29: .cfa -32 + ^
STACK CFI 21c04 .cfa: sp 32 +
STACK CFI 21c0c .cfa: sp 0 +
STACK CFI 21c10 .cfa: x29 32 +
STACK CFI 21c24 .cfa: sp 32 +
STACK CFI 21c2c .cfa: sp 0 +
STACK CFI INIT 21c30 4 .cfa: sp 0 +
STACK CFI INIT 21c34 4 .cfa: sp 0 +
STACK CFI INIT 21c38 34 .cfa: sp 0 +
STACK CFI 21c3c .cfa: sp 32 +
STACK CFI 21c44 .cfa: x29 32 + x19: .cfa -16 + ^ .ra: .cfa -24 + ^ x29: .cfa -32 + ^
STACK CFI 21c60 .cfa: sp 32 +
STACK CFI 21c68 .cfa: sp 0 +
STACK CFI INIT 21c6c 14 .cfa: sp 0 +
STACK CFI INIT 21c80 4 .cfa: sp 0 +
STACK CFI INIT 21c84 4 .cfa: sp 0 +
STACK CFI INIT 220a0 1c .cfa: sp 0 +
STACK CFI INIT 220bc c .cfa: sp 0 +
STACK CFI INIT 220c8 4 .cfa: sp 0 +
STACK CFI INIT 220cc 14 .cfa: sp 0 +
STACK CFI INIT 220e0 4 .cfa: sp 0 +
STACK CFI INIT 220e4 34 .cfa: sp 0 +
STACK CFI 220e8 .cfa: sp 32 +
STACK CFI 220f0 .cfa: x29 32 + x19: .cfa -16 + ^ .ra: .cfa -24 + ^ x29: .cfa -32 + ^
STACK CFI 2210c .cfa: sp 32 +
STACK CFI 22114 .cfa: sp 0 +
STACK CFI INIT 22118 14 .cfa: sp 0 +
STACK CFI INIT 2212c 4 .cfa: sp 0 +
STACK CFI INIT 22130 4 .cfa: sp 0 +
STACK CFI INIT 22134 20 .cfa: sp 0 +
STACK CFI INIT 22154 1c .cfa: sp 0 +
STACK CFI INIT 22170 c .cfa: sp 0 +
STACK CFI INIT 2217c 4 .cfa: sp 0 +
STACK CFI INIT 22180 34 .cfa: sp 0 +
STACK CFI 22184 .cfa: sp 32 +
STACK CFI 2218c .cfa: x29 32 + x19: .cfa -16 + ^ .ra: .cfa -24 + ^ x29: .cfa -32 + ^
STACK CFI 221a8 .cfa: sp 32 +
STACK CFI 221b0 .cfa: sp 0 +
STACK CFI INIT 221b4 14 .cfa: sp 0 +
STACK CFI INIT 221c8 4 .cfa: sp 0 +
STACK CFI INIT 221cc 4 .cfa: sp 0 +
STACK CFI INIT 221d0 24 .cfa: sp 0 +
STACK CFI INIT 221f4 1c .cfa: sp 0 +
STACK CFI INIT 22210 c .cfa: sp 0 +
STACK CFI INIT 2221c 4 .cfa: sp 0 +
STACK CFI INIT 22220 4 .cfa: sp 0 +
STACK CFI INIT 22224 34 .cfa: sp 0 +
STACK CFI 22228 .cfa: sp 32 +
STACK CFI 22230 .cfa: x29 32 + x19: .cfa -16 + ^ .ra: .cfa -24 + ^ x29: .cfa -32 + ^
STACK CFI 2224c .cfa: sp 32 +
STACK CFI 22254 .cfa: sp 0 +
STACK CFI INIT 22258 14 .cfa: sp 0 +
STACK CFI INIT 2226c 4 .cfa: sp 0 +
STACK CFI INIT 22270 4 .cfa: sp 0 +
STACK CFI INIT 22274 74 .cfa: sp 0 +
STACK CFI 22278 .cfa: sp 32 +
STACK CFI 22280 .cfa: x29 32 + x19: .cfa -16 + ^ .ra: .cfa -24 + ^ x29: .cfa -32 + ^
STACK CFI 222dc .cfa: sp 32 +
STACK CFI 222e4 .cfa: sp 0 +
STACK CFI INIT 222e8 1c .cfa: sp 0 +
STACK CFI INIT 22304 c .cfa: sp 0 +
STACK CFI INIT 22310 60 .cfa: sp 0 +
STACK CFI 22314 .cfa: sp 32 +
STACK CFI 2231c .cfa: x29 32 + x19: .cfa -8 + ^ x20: .cfa -16 + ^ .ra: .cfa -24 + ^ x29: .cfa -32 + ^
STACK CFI 2233c .cfa: sp 32 +
STACK CFI 22344 .cfa: sp 0 +
STACK CFI 22348 .cfa: x29 32 +
STACK CFI 22364 .cfa: sp 32 +
STACK CFI 2236c .cfa: sp 0 +
STACK CFI INIT 22370 70 .cfa: sp 0 +
STACK CFI 22374 .cfa: sp 32 +
STACK CFI 2237c .cfa: x29 32 + x19: .cfa -8 + ^ x20: .cfa -16 + ^ .ra: .cfa -24 + ^ x29: .cfa -32 + ^
STACK CFI 223a4 .cfa: sp 32 +
STACK CFI 223ac .cfa: sp 0 +
STACK CFI 223b0 .cfa: x29 32 +
STACK CFI 223d4 .cfa: sp 32 +
STACK CFI 223dc .cfa: sp 0 +
STACK CFI INIT 223e0 10 .cfa: sp 0 +
STACK CFI INIT 223f0 30 .cfa: sp 0 +
STACK CFI 223f4 .cfa: sp 32 +
STACK CFI 223fc .cfa: x29 32 + x19: .cfa -16 + ^ .ra: .cfa -24 + ^ x29: .cfa -32 + ^
STACK CFI 22414 .cfa: sp 32 +
STACK CFI 2241c .cfa: sp 0 +
STACK CFI INIT 22420 4 .cfa: sp 0 +
STACK CFI INIT 22424 4 .cfa: sp 0 +
STACK CFI INIT 22428 4 .cfa: sp 0 +
STACK CFI INIT 2242c 4 .cfa: sp 0 +
STACK CFI INIT 22430 34 .cfa: sp 0 +
STACK CFI 22434 .cfa: sp 32 +
STACK CFI 2243c .cfa: x29 32 + x19: .cfa -16 + ^ .ra: .cfa -24 + ^ x29: .cfa -32 + ^
STACK CFI 22458 .cfa: sp 32 +
STACK CFI 22460 .cfa: sp 0 +
STACK CFI INIT 22464 14 .cfa: sp 0 +
STACK CFI INIT 22478 4 .cfa: sp 0 +
STACK CFI INIT 2247c 4 .cfa: sp 0 +
STACK CFI INIT 227d0 1c .cfa: sp 0 +
STACK CFI INIT 227ec c .cfa: sp 0 +
STACK CFI INIT 227f8 4 .cfa: sp 0 +
STACK CFI INIT 227fc 14 .cfa: sp 0 +
STACK CFI INIT 22c94 18 .cfa: sp 0 +
STACK CFI INIT 23130 18 .cfa: sp 0 +
STACK CFI INIT 23744 50 .cfa: sp 0 +
STACK CFI 23748 .cfa: sp 32 +
STACK CFI 23750 .cfa: x29 32 + x19: .cfa -16 + ^ .ra: .cfa -24 + ^ x29: .cfa -32 + ^
STACK CFI 23768 .cfa: sp 32 +
STACK CFI 23770 .cfa: sp 0 +
STACK CFI 23774 .cfa: x29 32 +
STACK CFI 23788 .cfa: sp 32 +
STACK CFI 23790 .cfa: sp 0 +
STACK CFI INIT 23808 7c .cfa: sp 0 +
STACK CFI 2380c .cfa: sp 48 +
STACK CFI 23818 .cfa: x29 48 + x19: .cfa -8 + ^ x20: .cfa -16 + ^ x21: .cfa -32 + ^ .ra: .cfa -40 + ^ x29: .cfa -48 + ^
STACK CFI 23864 .cfa: sp 48 +
STACK CFI 23870 .cfa: sp 0 +
STACK CFI 23874 .cfa: sp 48 +
STACK CFI 23880 .cfa: sp 0 +
STACK CFI INIT 23884 4 .cfa: sp 0 +
STACK CFI INIT 239dc 34 .cfa: sp 0 +
STACK CFI 239e0 .cfa: sp 16 +
STACK CFI 239e4 .cfa: x29 16 + .ra: .cfa -8 + ^ x29: .cfa -16 + ^
STACK CFI INIT 23b3c 80 .cfa: sp 0 +
STACK CFI 23b40 .cfa: sp 48 +
STACK CFI 23b4c .cfa: x29 48 + x19: .cfa -8 + ^ x20: .cfa -16 + ^ x21: .cfa -32 + ^ .ra: .cfa -40 + ^ x29: .cfa -48 + ^
STACK CFI 23bac .cfa: sp 48 +
STACK CFI 23bb8 .cfa: sp 0 +
STACK CFI INIT 23bbc 24 .cfa: sp 0 +
STACK CFI 23bc0 .cfa: sp 32 +
STACK CFI 23bc8 .cfa: x29 32 + x19: .cfa -16 + ^ .ra: .cfa -24 + ^ x29: .cfa -32 + ^
STACK CFI 23bd4 .cfa: sp 32 +
STACK CFI 23bdc .cfa: sp 0 +
STACK CFI INIT 23f60 14 .cfa: sp 0 +
STACK CFI 23f64 .cfa: sp 16 +
STACK CFI 23f68 .cfa: x29 16 + .ra: .cfa -8 + ^ x29: .cfa -16 + ^
STACK CFI INIT 23fc4 30 .cfa: sp 0 +
STACK CFI 23fc8 .cfa: sp 32 +
STACK CFI 23fd0 .cfa: x29 32 + x19: .cfa -16 + ^ .ra: .cfa -24 + ^ x29: .cfa -32 + ^
STACK CFI 23fe8 .cfa: sp 32 +
STACK CFI 23ff0 .cfa: sp 0 +
STACK CFI INIT 23ff4 34 .cfa: sp 0 +
STACK CFI 23ff8 .cfa: sp 32 +
STACK CFI 24000 .cfa: x29 32 + x19: .cfa -16 + ^ .ra: .cfa -24 + ^ x29: .cfa -32 + ^
STACK CFI INIT 241a0 148 .cfa: sp 0 +
STACK CFI 241a4 .cfa: sp 48 +
STACK CFI 241b0 .cfa: x29 48 + x19: .cfa -8 + ^ x20: .cfa -16 + ^ x21: .cfa -32 + ^ .ra: .cfa -40 + ^ x29: .cfa -48 + ^
STACK CFI 242d8 .cfa: sp 48 +
STACK CFI 242e4 .cfa: sp 0 +
STACK CFI INIT 2450c 80 .cfa: sp 0 +
STACK CFI 24510 .cfa: sp 48 +
STACK CFI 2451c .cfa: x29 48 + x19: .cfa -8 + ^ x20: .cfa -16 + ^ x21: .cfa -24 + ^ x22: .cfa -32 + ^ .ra: .cfa -40 + ^ x29: .cfa -48 + ^
STACK CFI 24534 .cfa: sp 48 +
STACK CFI 24540 .cfa: sp 0 +
STACK CFI 24544 .cfa: x29 48 +
STACK CFI 24574 .cfa: sp 48 +
STACK CFI 24580 .cfa: sp 0 +
STACK CFI 24584 .cfa: x29 48 +
STACK CFI INIT 2458c 68 .cfa: sp 0 +
STACK CFI 24590 .cfa: sp 32 +
STACK CFI 24598 .cfa: x29 32 + x19: .cfa -8 + ^ x20: .cfa -16 + ^ .ra: .cfa -24 + ^ x29: .cfa -32 + ^
STACK CFI 245b0 .cfa: sp 32 +
STACK CFI 245b8 .cfa: sp 0 +
STACK CFI 245bc .cfa: x29 32 +
STACK CFI 245e8 .cfa: sp 32 +
STACK CFI 245f0 .cfa: sp 0 +
STACK CFI INIT 245f4 14 .cfa: sp 0 +
STACK CFI 245f8 .cfa: sp 16 +
STACK CFI 245fc .cfa: x29 16 + .ra: .cfa -8 + ^ x29: .cfa -16 + ^
STACK CFI INIT 24608 4 .cfa: sp 0 +
STACK CFI INIT 2460c 14 .cfa: sp 0 +
STACK CFI INIT 24620 120 .cfa: sp 0 +
STACK CFI 24624 .cfa: sp 64 +
STACK CFI 24634 .cfa: x29 64 + x19: .cfa -8 + ^ x20: .cfa -16 + ^ x21: .cfa -24 + ^ x22: .cfa -32 + ^ x23: .cfa -40 + ^ x24: .cfa -48 + ^ .ra: .cfa -56 + ^ x29: .cfa -64 + ^
STACK CFI 2472c .cfa: sp 64 +
STACK CFI 2473c .cfa: sp 0 +
STACK CFI INIT 24740 4a4 .cfa: sp 0 +
STACK CFI 24744 .cfa: sp 32 +
STACK CFI 2474c .cfa: x29 32 + x19: .cfa -8 + ^ x20: .cfa -16 + ^ .ra: .cfa -24 + ^ x29: .cfa -32 + ^
STACK CFI 24b2c .cfa: sp 32 +
STACK CFI 24b34 .cfa: sp 0 +
STACK CFI 24b38 .cfa: x29 32 +
STACK CFI INIT 24be4 84 .cfa: sp 0 +
STACK CFI 24bec .cfa: sp 32 +
STACK CFI 24bf4 .cfa: x29 32 + x19: .cfa -8 + ^ x20: .cfa -16 + ^ .ra: .cfa -24 + ^ x29: .cfa -32 + ^
STACK CFI 24c34 .cfa: sp 32 +
STACK CFI 24c3c .cfa: sp 0 +
STACK CFI 24c44 .cfa: x29 32 +
STACK CFI INIT 24c68 104 .cfa: sp 0 +
STACK CFI 24c6c .cfa: sp 48 +
STACK CFI 24c78 .cfa: x29 48 + x19: .cfa -8 + ^ x20: .cfa -16 + ^ x21: .cfa -32 + ^ .ra: .cfa -40 + ^ x29: .cfa -48 + ^
STACK CFI 24d4c .cfa: sp 48 +
STACK CFI 24d58 .cfa: sp 0 +
STACK CFI 24d5c .cfa: sp 48 +
STACK CFI 24d68 .cfa: sp 0 +
STACK CFI INIT 24d6c 11c .cfa: sp 0 +
STACK CFI 24d70 .cfa: sp 64 +
STACK CFI 24d80 .cfa: x29 64 + x19: .cfa -8 + ^ x20: .cfa -16 + ^ x21: .cfa -24 + ^ x22: .cfa -32 + ^ x23: .cfa -40 + ^ x24: .cfa -48 + ^ .ra: .cfa -56 + ^ x29: .cfa -64 + ^
STACK CFI 24e54 .cfa: sp 64 +
STACK CFI 24e64 .cfa: sp 0 +
STACK CFI 24e68 .cfa: x29 64 +
STACK CFI 24e74 .cfa: sp 64 +
STACK CFI 24e84 .cfa: sp 0 +
STACK CFI INIT 24e88 50 .cfa: sp 0 +
STACK CFI 24e8c .cfa: sp 32 +
STACK CFI 24e94 .cfa: x29 32 + x19: .cfa -16 + ^ .ra: .cfa -24 + ^ x29: .cfa -32 + ^
STACK CFI 24eac .cfa: sp 32 +
STACK CFI 24eb4 .cfa: sp 0 +
STACK CFI 24eb8 .cfa: x29 32 +
STACK CFI 24ecc .cfa: sp 32 +
STACK CFI 24ed4 .cfa: sp 0 +
STACK CFI INIT 24ed8 64 .cfa: sp 0 +
STACK CFI 24edc .cfa: sp 32 +
STACK CFI 24ee4 .cfa: x29 32 + x19: .cfa -16 + ^ .ra: .cfa -24 + ^ x29: .cfa -32 + ^
STACK CFI 24f10 .cfa: sp 32 +
STACK CFI 24f18 .cfa: sp 0 +
STACK CFI 24f1c .cfa: x29 32 +
STACK CFI 24f30 .cfa: sp 32 +
STACK CFI 24f38 .cfa: sp 0 +
STACK CFI INIT 24f3c 14 .cfa: sp 0 +
STACK CFI 24f40 .cfa: sp 16 +
STACK CFI 24f44 .cfa: x29 16 + .ra: .cfa -8 + ^ x29: .cfa -16 + ^
STACK CFI INIT 24f50 168 .cfa: sp 0 +
STACK CFI 24f54 .cfa: sp 80 +
STACK CFI 24f68 .cfa: x29 80 + x19: .cfa -8 + ^ x20: .cfa -16 + ^ x21: .cfa -24 + ^ x22: .cfa -32 + ^ x23: .cfa -40 + ^ x24: .cfa -48 + ^ x25: .cfa -56 + ^ x26: .cfa -64 + ^ .ra: .cfa -72 + ^ x29: .cfa -80 + ^
STACK CFI 250a0 .cfa: sp 80 +
STACK CFI 250b4 .cfa: sp 0 +
STACK CFI INIT 250b8 1b0 .cfa: sp 0 +
STACK CFI INIT 260c4 78 .cfa: sp 0 +
STACK CFI 260c8 .cfa: sp 48 +
STACK CFI 260d4 .cfa: x29 48 + x19: .cfa -8 + ^ x20: .cfa -16 + ^ x21: .cfa -32 + ^ .ra: .cfa -40 + ^ x29: .cfa -48 + ^
STACK CFI 2611c .cfa: sp 48 +
STACK CFI 26128 .cfa: sp 0 +
STACK CFI 2612c .cfa: sp 48 +
STACK CFI 26138 .cfa: sp 0 +
STACK CFI INIT 2613c 78 .cfa: sp 0 +
STACK CFI 26140 .cfa: sp 48 +
STACK CFI 2614c .cfa: x29 48 + x19: .cfa -8 + ^ x20: .cfa -16 + ^ x21: .cfa -32 + ^ .ra: .cfa -40 + ^ x29: .cfa -48 + ^
STACK CFI 26194 .cfa: sp 48 +
STACK CFI 261a0 .cfa: sp 0 +
STACK CFI 261a4 .cfa: sp 48 +
STACK CFI 261b0 .cfa: sp 0 +
STACK CFI INIT 261b4 84 .cfa: sp 0 +
STACK CFI 261b8 .cfa: sp 48 +
STACK CFI 261c4 .cfa: x29 48 + x19: .cfa -8 + ^ x20: .cfa -16 + ^ x21: .cfa -24 + ^ x22: .cfa -32 + ^ .ra: .cfa -40 + ^ x29: .cfa -48 + ^
STACK CFI 26218 .cfa: sp 48 +
STACK CFI 26224 .cfa: sp 0 +
STACK CFI 26228 .cfa: sp 48 +
STACK CFI 26234 .cfa: sp 0 +
STACK CFI INIT 26254 8c .cfa: sp 0 +
STACK CFI 26258 .cfa: sp 48 +
STACK CFI 26264 .cfa: x29 48 + x19: .cfa -8 + ^ x20: .cfa -16 + ^ x21: .cfa -24 + ^ x22: .cfa -32 + ^ .ra: .cfa -40 + ^ x29: .cfa -48 + ^
STACK CFI 2629c .cfa: sp 48 +
STACK CFI 262a8 .cfa: sp 0 +
STACK CFI 262ac .cfa: x29 48 +
STACK CFI 262d0 .cfa: sp 48 +
STACK CFI 262dc .cfa: sp 0 +
STACK CFI INIT 262e0 78 .cfa: sp 0 +
STACK CFI 262e4 .cfa: sp 48 +
STACK CFI 262f0 .cfa: x29 48 + x19: .cfa -8 + ^ x20: .cfa -16 + ^ x21: .cfa -32 + ^ .ra: .cfa -40 + ^ x29: .cfa -48 + ^
STACK CFI 26338 .cfa: sp 48 +
STACK CFI 26344 .cfa: sp 0 +
STACK CFI 26348 .cfa: sp 48 +
STACK CFI 26354 .cfa: sp 0 +
STACK CFI INIT 26358 8c .cfa: sp 0 +
STACK CFI 2635c .cfa: sp 48 +
STACK CFI 26368 .cfa: x29 48 + x19: .cfa -8 + ^ x20: .cfa -16 + ^ x21: .cfa -24 + ^ x22: .cfa -32 + ^ .ra: .cfa -40 + ^ x29: .cfa -48 + ^
STACK CFI 263a0 .cfa: sp 48 +
STACK CFI 263ac .cfa: sp 0 +
STACK CFI 263b0 .cfa: x29 48 +
STACK CFI 263d4 .cfa: sp 48 +
STACK CFI 263e0 .cfa: sp 0 +
STACK CFI INIT 263e4 78 .cfa: sp 0 +
STACK CFI 263e8 .cfa: sp 48 +
STACK CFI 263f4 .cfa: x29 48 + x19: .cfa -8 + ^ x20: .cfa -16 + ^ x21: .cfa -32 + ^ .ra: .cfa -40 + ^ x29: .cfa -48 + ^
STACK CFI 2643c .cfa: sp 48 +
STACK CFI 26448 .cfa: sp 0 +
STACK CFI 2644c .cfa: sp 48 +
STACK CFI 26458 .cfa: sp 0 +
STACK CFI INIT 2645c 104 .cfa: sp 0 +
STACK CFI 26460 .cfa: sp 64 +
STACK CFI 26470 .cfa: x29 64 + x19: .cfa -8 + ^ x20: .cfa -16 + ^ x21: .cfa -24 + ^ x22: .cfa -32 + ^ x23: .cfa -48 + ^ .ra: .cfa -56 + ^ x29: .cfa -64 + ^
STACK CFI 26538 .cfa: sp 64 +
STACK CFI 26548 .cfa: sp 0 +
STACK CFI 2654c .cfa: sp 64 +
STACK CFI 2655c .cfa: sp 0 +
STACK CFI INIT 26958 78 .cfa: sp 0 +
STACK CFI 2695c .cfa: sp 48 +
STACK CFI 26968 .cfa: x29 48 + x19: .cfa -8 + ^ x20: .cfa -16 + ^ x21: .cfa -32 + ^ .ra: .cfa -40 + ^ x29: .cfa -48 + ^
STACK CFI 269b0 .cfa: sp 48 +
STACK CFI 269bc .cfa: sp 0 +
STACK CFI 269c0 .cfa: sp 48 +
STACK CFI 269cc .cfa: sp 0 +
STACK CFI INIT 269ec 90 .cfa: sp 0 +
STACK CFI 269f0 .cfa: sp 48 +
STACK CFI 269fc .cfa: x29 48 + x19: .cfa -8 + ^ x20: .cfa -16 + ^ x21: .cfa -24 + ^ x22: .cfa -32 + ^ .ra: .cfa -40 + ^ x29: .cfa -48 + ^
STACK CFI 26a34 .cfa: sp 48 +
STACK CFI 26a40 .cfa: sp 0 +
STACK CFI 26a44 .cfa: x29 48 +
STACK CFI 26a6c .cfa: sp 48 +
STACK CFI 26a78 .cfa: sp 0 +
STACK CFI INIT 26b14 3c .cfa: sp 0 +
STACK CFI 26b18 .cfa: sp 32 +
STACK CFI 26b20 .cfa: x29 32 + x19: .cfa -16 + ^ .ra: .cfa -24 + ^ x29: .cfa -32 + ^
STACK CFI 26b38 .cfa: sp 32 +
STACK CFI 26b40 .cfa: sp 0 +
STACK CFI 26b44 .cfa: sp 32 +
STACK CFI 26b4c .cfa: sp 0 +
STACK CFI INIT 26b88 78 .cfa: sp 0 +
STACK CFI 26b8c .cfa: sp 48 +
STACK CFI 26b98 .cfa: x29 48 + x19: .cfa -8 + ^ x20: .cfa -16 + ^ x21: .cfa -32 + ^ .ra: .cfa -40 + ^ x29: .cfa -48 + ^
STACK CFI 26be0 .cfa: sp 48 +
STACK CFI 26bec .cfa: sp 0 +
STACK CFI 26bf0 .cfa: sp 48 +
STACK CFI 26bfc .cfa: sp 0 +
STACK CFI INIT 26c00 78 .cfa: sp 0 +
STACK CFI 26c04 .cfa: sp 48 +
STACK CFI 26c10 .cfa: x29 48 + x19: .cfa -8 + ^ x20: .cfa -16 + ^ x21: .cfa -32 + ^ .ra: .cfa -40 + ^ x29: .cfa -48 + ^
STACK CFI 26c58 .cfa: sp 48 +
STACK CFI 26c64 .cfa: sp 0 +
STACK CFI 26c68 .cfa: sp 48 +
STACK CFI 26c74 .cfa: sp 0 +
STACK CFI INIT 26c78 78 .cfa: sp 0 +
STACK CFI 26c7c .cfa: sp 48 +
STACK CFI 26c88 .cfa: x29 48 + x19: .cfa -8 + ^ x20: .cfa -16 + ^ x21: .cfa -32 + ^ .ra: .cfa -40 + ^ x29: .cfa -48 + ^
STACK CFI 26cd0 .cfa: sp 48 +
STACK CFI 26cdc .cfa: sp 0 +
STACK CFI 26ce0 .cfa: sp 48 +
STACK CFI 26cec .cfa: sp 0 +
STACK CFI INIT 26cf0 78 .cfa: sp 0 +
STACK CFI 26cf4 .cfa: sp 48 +
STACK CFI 26d00 .cfa: x29 48 + x19: .cfa -8 + ^ x20: .cfa -16 + ^ x21: .cfa -32 + ^ .ra: .cfa -40 + ^ x29: .cfa -48 + ^
STACK CFI 26d48 .cfa: sp 48 +
STACK CFI 26d54 .cfa: sp 0 +
STACK CFI 26d58 .cfa: sp 48 +
STACK CFI 26d64 .cfa: sp 0 +
STACK CFI INIT 26f34 2b8 .cfa: sp 0 +
STACK CFI 26f38 .cfa: sp 80 +
STACK CFI 26f4c .cfa: x29 80 + x19: .cfa -8 + ^ x20: .cfa -16 + ^ x21: .cfa -24 + ^ x22: .cfa -32 + ^ x23: .cfa -40 + ^ x24: .cfa -48 + ^ x25: .cfa -64 + ^ .ra: .cfa -72 + ^ x29: .cfa -80 + ^
STACK CFI 270f8 .cfa: sp 80 +
STACK CFI 2710c .cfa: sp 0 +
STACK CFI 27110 .cfa: x29 80 +
STACK CFI 271d4 .cfa: sp 80 +
STACK CFI 271e8 .cfa: sp 0 +
STACK CFI INIT 271ec 80 .cfa: sp 0 +
STACK CFI 271f0 .cfa: sp 48 +
STACK CFI 271fc .cfa: x29 48 + x19: .cfa -8 + ^ x20: .cfa -16 + ^ x21: .cfa -32 + ^ .ra: .cfa -40 + ^ x29: .cfa -48 + ^
STACK CFI 2724c .cfa: sp 48 +
STACK CFI 27258 .cfa: sp 0 +
STACK CFI 2725c .cfa: sp 48 +
STACK CFI 27268 .cfa: sp 0 +
STACK CFI INIT 2726c 80 .cfa: sp 0 +
STACK CFI 27270 .cfa: sp 48 +
STACK CFI 2727c .cfa: x29 48 + x19: .cfa -8 + ^ x20: .cfa -16 + ^ x21: .cfa -32 + ^ .ra: .cfa -40 + ^ x29: .cfa -48 + ^
STACK CFI 272cc .cfa: sp 48 +
STACK CFI 272d8 .cfa: sp 0 +
STACK CFI 272dc .cfa: sp 48 +
STACK CFI 272e8 .cfa: sp 0 +
STACK CFI INIT 2748c 2b8 .cfa: sp 0 +
STACK CFI INIT 27744 1bc .cfa: sp 0 +
STACK CFI 27748 .cfa: sp 64 +
STACK CFI 27758 .cfa: x29 64 + x19: .cfa -8 + ^ x20: .cfa -16 + ^ x21: .cfa -24 + ^ x22: .cfa -32 + ^ x23: .cfa -48 + ^ .ra: .cfa -56 + ^ x29: .cfa -64 + ^
STACK CFI 2785c .cfa: sp 64 +
STACK CFI 2786c .cfa: sp 0 +
STACK CFI 27870 .cfa: x29 64 +
STACK CFI INIT 27900 80 .cfa: sp 0 +
STACK CFI 27904 .cfa: sp 48 +
STACK CFI 27910 .cfa: x29 48 + x19: .cfa -8 + ^ x20: .cfa -16 + ^ x21: .cfa -32 + ^ .ra: .cfa -40 + ^ x29: .cfa -48 + ^
STACK CFI 27960 .cfa: sp 48 +
STACK CFI 2796c .cfa: sp 0 +
STACK CFI 27970 .cfa: sp 48 +
STACK CFI 2797c .cfa: sp 0 +
STACK CFI INIT 27980 98 .cfa: sp 0 +
STACK CFI 27988 .cfa: sp 48 +
STACK CFI 27994 .cfa: x29 48 + x19: .cfa -8 + ^ x20: .cfa -16 + ^ x21: .cfa -32 + ^ .ra: .cfa -40 + ^ x29: .cfa -48 + ^
STACK CFI 279e4 .cfa: sp 0 + x19: x19 x20: x20 x21: x21 .ra: x30 x29: x29
STACK CFI 279e8 .cfa: x29 48 + x19: .cfa -8 + ^ x20: .cfa -16 + ^ x21: .cfa -32 + ^ .ra: .cfa -40 + ^ x29: .cfa -48 + ^
STACK CFI 27a08 .cfa: sp 48 +
STACK CFI 27a14 .cfa: sp 0 +
STACK CFI INIT 27a18 54 .cfa: sp 0 +
STACK CFI 27a20 .cfa: sp 32 +
STACK CFI 27a28 .cfa: x29 32 + x19: .cfa -8 + ^ x20: .cfa -16 + ^ .ra: .cfa -24 + ^ x29: .cfa -32 + ^
STACK CFI 27a60 .cfa: sp 32 +
STACK CFI 27a68 .cfa: sp 0 +
STACK CFI INIT 27a6c 54 .cfa: sp 0 +
STACK CFI 27a74 .cfa: sp 32 +
STACK CFI 27a7c .cfa: x29 32 + x19: .cfa -8 + ^ x20: .cfa -16 + ^ .ra: .cfa -24 + ^ x29: .cfa -32 + ^
STACK CFI 27ab4 .cfa: sp 32 +
STACK CFI 27abc .cfa: sp 0 +
STACK CFI INIT 27b68 54 .cfa: sp 0 +
STACK CFI 27b70 .cfa: sp 32 +
STACK CFI 27b78 .cfa: x29 32 + x19: .cfa -8 + ^ x20: .cfa -16 + ^ .ra: .cfa -24 + ^ x29: .cfa -32 + ^
STACK CFI 27bb0 .cfa: sp 32 +
STACK CFI 27bb8 .cfa: sp 0 +
STACK CFI INIT 27bbc a8 .cfa: sp 0 +
STACK CFI 27bc4 .cfa: sp 48 +
STACK CFI 27bd0 .cfa: x29 48 + x19: .cfa -8 + ^ x20: .cfa -16 + ^ x21: .cfa -24 + ^ x22: .cfa -32 + ^ .ra: .cfa -40 + ^ x29: .cfa -48 + ^
STACK CFI 27c54 .cfa: sp 48 +
STACK CFI 27c60 .cfa: sp 0 +
STACK CFI INIT 27c64 54 .cfa: sp 0 +
STACK CFI 27c6c .cfa: sp 32 +
STACK CFI 27c74 .cfa: x29 32 + x19: .cfa -8 + ^ x20: .cfa -16 + ^ .ra: .cfa -24 + ^ x29: .cfa -32 + ^
STACK CFI 27cac .cfa: sp 32 +
STACK CFI 27cb4 .cfa: sp 0 +
STACK CFI INIT 27fd4 4 .cfa: sp 0 +
STACK CFI INIT 28204 8c .cfa: sp 0 +
STACK CFI 28208 .cfa: sp 32 +
STACK CFI 28210 .cfa: x29 32 + x19: .cfa -16 + ^ .ra: .cfa -24 + ^ x29: .cfa -32 + ^
STACK CFI 28284 .cfa: sp 32 +
STACK CFI 2828c .cfa: sp 0 +
STACK CFI INIT 28290 1c .cfa: sp 0 +
STACK CFI 28294 .cfa: sp 16 +
STACK CFI 28298 .cfa: x29 16 + .ra: .cfa -8 + ^ x29: .cfa -16 + ^
STACK CFI 282a4 .cfa: sp 16 +
STACK CFI 282a8 .cfa: sp 0 +
STACK CFI INIT 282ac 3c .cfa: sp 0 +
STACK CFI 282b0 .cfa: sp 32 +
STACK CFI 282b8 .cfa: x29 32 + x19: .cfa -16 + ^ .ra: .cfa -24 + ^ x29: .cfa -32 + ^
STACK CFI 282c4 .cfa: sp 32 +
STACK CFI 282cc .cfa: sp 0 +
STACK CFI 282d0 .cfa: x29 32 +
STACK CFI 282dc .cfa: sp 32 +
STACK CFI 282e4 .cfa: sp 0 +
STACK CFI INIT 28604 64 .cfa: sp 0 +
STACK CFI 28608 .cfa: sp 32 +
STACK CFI 28610 .cfa: x29 32 + x19: .cfa -16 + ^ .ra: .cfa -24 + ^ x29: .cfa -32 + ^
STACK CFI 2863c .cfa: sp 32 +
STACK CFI 28644 .cfa: sp 0 +
STACK CFI 28648 .cfa: x29 32 +
STACK CFI 2865c .cfa: sp 32 +
STACK CFI 28664 .cfa: sp 0 +
STACK CFI INIT 287dc 24 .cfa: sp 0 +
STACK CFI 287e0 .cfa: sp 32 +
STACK CFI 287e8 .cfa: x29 32 + x19: .cfa -16 + ^ .ra: .cfa -24 + ^ x29: .cfa -32 + ^
STACK CFI 287f4 .cfa: sp 32 +
STACK CFI 287fc .cfa: sp 0 +
STACK CFI INIT 28800 8 .cfa: sp 0 +
STACK CFI INIT 28808 24 .cfa: sp 0 +
STACK CFI 2880c .cfa: sp 32 +
STACK CFI 28814 .cfa: x29 32 + x19: .cfa -16 + ^ .ra: .cfa -24 + ^ x29: .cfa -32 + ^
STACK CFI 28820 .cfa: sp 32 +
STACK CFI 28828 .cfa: sp 0 +
STACK CFI INIT 2882c 28 .cfa: sp 0 +
STACK CFI 28830 .cfa: sp 32 +
STACK CFI 28838 .cfa: x29 32 + x19: .cfa -16 + ^ .ra: .cfa -24 + ^ x29: .cfa -32 + ^
STACK CFI 28848 .cfa: sp 32 +
STACK CFI 28850 .cfa: sp 0 +
STACK CFI INIT 28854 24 .cfa: sp 0 +
STACK CFI 28858 .cfa: sp 32 +
STACK CFI 28860 .cfa: x29 32 + x19: .cfa -16 + ^ .ra: .cfa -24 + ^ x29: .cfa -32 + ^
STACK CFI 2886c .cfa: sp 32 +
STACK CFI 28874 .cfa: sp 0 +
STACK CFI INIT 28fec 8 .cfa: sp 0 +
STACK CFI INIT 28ff4 24 .cfa: sp 0 +
STACK CFI 28ff8 .cfa: sp 32 +
STACK CFI 29000 .cfa: x29 32 + x19: .cfa -16 + ^ .ra: .cfa -24 + ^ x29: .cfa -32 + ^
STACK CFI 2900c .cfa: sp 32 +
STACK CFI 29014 .cfa: sp 0 +
STACK CFI INIT 29018 28 .cfa: sp 0 +
STACK CFI 2901c .cfa: sp 32 +
STACK CFI 29024 .cfa: x29 32 + x19: .cfa -16 + ^ .ra: .cfa -24 + ^ x29: .cfa -32 + ^
STACK CFI 29034 .cfa: sp 32 +
STACK CFI 2903c .cfa: sp 0 +
STACK CFI INIT 29040 8 .cfa: sp 0 +
STACK CFI INIT 29048 24 .cfa: sp 0 +
STACK CFI 2904c .cfa: sp 32 +
STACK CFI 29054 .cfa: x29 32 + x19: .cfa -16 + ^ .ra: .cfa -24 + ^ x29: .cfa -32 + ^
STACK CFI 29060 .cfa: sp 32 +
STACK CFI 29068 .cfa: sp 0 +
STACK CFI INIT 2906c 28 .cfa: sp 0 +
STACK CFI 29070 .cfa: sp 32 +
STACK CFI 29078 .cfa: x29 32 + x19: .cfa -16 + ^ .ra: .cfa -24 + ^ x29: .cfa -32 + ^
STACK CFI 29088 .cfa: sp 32 +
STACK CFI 29090 .cfa: sp 0 +
STACK CFI INIT 29094 8 .cfa: sp 0 +
STACK CFI INIT 2909c 24 .cfa: sp 0 +
STACK CFI 290a0 .cfa: sp 32 +
STACK CFI 290a8 .cfa: x29 32 + x19: .cfa -16 + ^ .ra: .cfa -24 + ^ x29: .cfa -32 + ^
STACK CFI 290b4 .cfa: sp 32 +
STACK CFI 290bc .cfa: sp 0 +
STACK CFI INIT 290c0 28 .cfa: sp 0 +
STACK CFI 290c4 .cfa: sp 32 +
STACK CFI 290cc .cfa: x29 32 + x19: .cfa -16 + ^ .ra: .cfa -24 + ^ x29: .cfa -32 + ^
STACK CFI 290dc .cfa: sp 32 +
STACK CFI 290e4 .cfa: sp 0 +
STACK CFI INIT 2a0a4 8 .cfa: sp 0 +
STACK CFI INIT 2a0ac 24 .cfa: sp 0 +
STACK CFI 2a0b0 .cfa: sp 32 +
STACK CFI 2a0b8 .cfa: x29 32 + x19: .cfa -16 + ^ .ra: .cfa -24 + ^ x29: .cfa -32 + ^
STACK CFI 2a0c4 .cfa: sp 32 +
STACK CFI 2a0cc .cfa: sp 0 +
STACK CFI INIT 2a0d0 28 .cfa: sp 0 +
STACK CFI 2a0d4 .cfa: sp 32 +
STACK CFI 2a0dc .cfa: x29 32 + x19: .cfa -16 + ^ .ra: .cfa -24 + ^ x29: .cfa -32 + ^
STACK CFI 2a0ec .cfa: sp 32 +
STACK CFI 2a0f4 .cfa: sp 0 +
STACK CFI INIT 2a710 8 .cfa: sp 0 +
STACK CFI INIT 2ae40 8 .cfa: sp 0 +
STACK CFI INIT 2b278 8 .cfa: sp 0 +
STACK CFI INIT 2b4d4 4 .cfa: sp 0 +
STACK CFI INIT 2b4d8 8 .cfa: sp 0 +
STACK CFI INIT 2b4e0 8 .cfa: sp 0 +
STACK CFI INIT 2b4e8 4 .cfa: sp 0 +
STACK CFI INIT 2c6c4 8 .cfa: sp 0 +
STACK CFI INIT 2c6cc 24 .cfa: sp 0 +
STACK CFI 2c6d0 .cfa: sp 32 +
STACK CFI 2c6d8 .cfa: x29 32 + x19: .cfa -16 + ^ .ra: .cfa -24 + ^ x29: .cfa -32 + ^
STACK CFI 2c6e4 .cfa: sp 32 +
STACK CFI 2c6ec .cfa: sp 0 +
STACK CFI INIT 2c6f0 28 .cfa: sp 0 +
STACK CFI 2c6f4 .cfa: sp 32 +
STACK CFI 2c6fc .cfa: x29 32 + x19: .cfa -16 + ^ .ra: .cfa -24 + ^ x29: .cfa -32 + ^
STACK CFI 2c70c .cfa: sp 32 +
STACK CFI 2c714 .cfa: sp 0 +
STACK CFI INIT 2d7bc 4 .cfa: sp 0 +
STACK CFI INIT 2d7c0 14 .cfa: sp 0 +
STACK CFI INIT 2dcb4 110 .cfa: sp 0 +
STACK CFI INIT 2ddc4 134 .cfa: sp 0 +
STACK CFI INIT 1fa10 164 .cfa: sp 0 +
STACK CFI 1fa14 .cfa: sp 64 +
STACK CFI 1fa20 .cfa: x29 32 + x19: .cfa -8 + ^ x20: .cfa -16 + ^ .ra: .cfa -24 + ^ x29: .cfa -32 + ^
STACK CFI 1fb3c .cfa: sp 64 +
STACK CFI 1fb48 .cfa: sp 0 +
STACK CFI 1fb4c .cfa: x29 32 +
STACK CFI INIT 1fb74 cac .cfa: sp 0 +
STACK CFI 1fb78 .cfa: sp 80 +
STACK CFI 1fb8c .cfa: x29 80 + x19: .cfa -8 + ^ x20: .cfa -16 + ^ x21: .cfa -24 + ^ x22: .cfa -32 + ^ x23: .cfa -40 + ^ x24: .cfa -48 + ^ x25: .cfa -56 + ^ x28: .cfa -64 + ^ .ra: .cfa -72 + ^ x29: .cfa -80 + ^
STACK CFI 205f0 .cfa: sp 80 +
STACK CFI 20604 .cfa: sp 0 +
STACK CFI 20608 .cfa: x29 80 +
STACK CFI INIT 20820 118 .cfa: sp 0 +
STACK CFI 20824 .cfa: sp 80 +
STACK CFI 20834 .cfa: x29 48 + x19: .cfa -8 + ^ x20: .cfa -16 + ^ x21: .cfa -24 + ^ x22: .cfa -32 + ^ .ra: .cfa -40 + ^ x29: .cfa -48 + ^
STACK CFI 2091c .cfa: sp 80 +
STACK CFI 2092c .cfa: sp 0 +
STACK CFI 20930 .cfa: x29 48 +
STACK CFI INIT 20938 134 .cfa: sp 0 +
STACK CFI 2093c .cfa: sp 80 +
STACK CFI 2094c .cfa: x29 48 + x19: .cfa -8 + ^ x20: .cfa -16 + ^ x21: .cfa -24 + ^ x22: .cfa -32 + ^ .ra: .cfa -40 + ^ x29: .cfa -48 + ^
STACK CFI 20a50 .cfa: sp 80 +
STACK CFI 20a60 .cfa: sp 0 +
STACK CFI 20a64 .cfa: x29 48 +
STACK CFI INIT 20a6c 148 .cfa: sp 0 +
STACK CFI 20a70 .cfa: sp 112 +
STACK CFI 20a80 .cfa: x29 48 + x19: .cfa -8 + ^ x20: .cfa -16 + ^ x21: .cfa -32 + ^ .ra: .cfa -40 + ^ x29: .cfa -48 + ^
STACK CFI 20b4c .cfa: sp 112 +
STACK CFI 20b5c .cfa: sp 0 +
STACK CFI 20b60 .cfa: x29 48 +
STACK CFI INIT 20bf4 3cc .cfa: sp 0 +
STACK CFI 20bf8 .cfa: sp 224 +
STACK CFI 20c0c .cfa: x29 64 + x19: .cfa -8 + ^ x20: .cfa -16 + ^ x21: .cfa -24 + ^ x22: .cfa -32 + ^ x23: .cfa -48 + ^ .ra: .cfa -56 + ^ x29: .cfa -64 + ^
STACK CFI 20ecc .cfa: sp 224 +
STACK CFI 20ee0 .cfa: sp 0 +
STACK CFI 20ee4 .cfa: x29 64 +
STACK CFI INIT 20fc0 cc .cfa: sp 0 +
STACK CFI 20fc4 .cfa: sp 80 +
STACK CFI 20fd4 .cfa: x29 48 + x19: .cfa -8 + ^ x20: .cfa -16 + ^ x21: .cfa -32 + ^ .ra: .cfa -40 + ^ x29: .cfa -48 + ^
STACK CFI 21048 .cfa: sp 80 +
STACK CFI 21058 .cfa: sp 0 +
STACK CFI 2105c .cfa: x29 48 +
STACK CFI INIT 21094 6c .cfa: sp 0 +
STACK CFI 21098 .cfa: sp 32 +
STACK CFI 210a0 .cfa: x29 32 + x19: .cfa -16 + ^ .ra: .cfa -24 + ^ x29: .cfa -32 + ^
STACK CFI 210f0 .cfa: sp 32 +
STACK CFI 210f8 .cfa: sp 0 +
STACK CFI 210fc .cfa: x29 32 +
STACK CFI INIT 21100 74 .cfa: sp 0 +
STACK CFI 21104 .cfa: sp 32 +
STACK CFI 2110c .cfa: x29 32 + x19: .cfa -16 + ^ .ra: .cfa -24 + ^ x29: .cfa -32 + ^
STACK CFI 21164 .cfa: sp 32 +
STACK CFI 2116c .cfa: sp 0 +
STACK CFI 21170 .cfa: x29 32 +
STACK CFI INIT 211d4 148 .cfa: sp 0 +
STACK CFI 211d8 .cfa: sp 96 +
STACK CFI 211e8 .cfa: x29 48 + x19: .cfa -8 + ^ x20: .cfa -16 + ^ x21: .cfa -32 + ^ .ra: .cfa -40 + ^ x29: .cfa -48 + ^
STACK CFI 212d0 .cfa: sp 96 +
STACK CFI 212e0 .cfa: sp 0 +
STACK CFI 212e4 .cfa: x29 48 +
STACK CFI INIT 2131c 6c .cfa: sp 0 +
STACK CFI 21320 .cfa: sp 32 +
STACK CFI 21328 .cfa: x29 32 + x19: .cfa -16 + ^ .ra: .cfa -24 + ^ x29: .cfa -32 + ^
STACK CFI 21378 .cfa: sp 32 +
STACK CFI 21380 .cfa: sp 0 +
STACK CFI 21384 .cfa: x29 32 +
STACK CFI INIT 21388 74 .cfa: sp 0 +
STACK CFI 2138c .cfa: sp 32 +
STACK CFI 21394 .cfa: x29 32 + x19: .cfa -16 + ^ .ra: .cfa -24 + ^ x29: .cfa -32 + ^
STACK CFI 213ec .cfa: sp 32 +
STACK CFI 213f4 .cfa: sp 0 +
STACK CFI 213f8 .cfa: x29 32 +
STACK CFI INIT 21448 6c .cfa: sp 0 +
STACK CFI 2144c .cfa: sp 32 +
STACK CFI 21454 .cfa: x29 32 + x19: .cfa -16 + ^ .ra: .cfa -24 + ^ x29: .cfa -32 + ^
STACK CFI 214a4 .cfa: sp 32 +
STACK CFI 214ac .cfa: sp 0 +
STACK CFI 214b0 .cfa: x29 32 +
STACK CFI INIT 21c88 418 .cfa: sp 0 +
STACK CFI 21c8c .cfa: sp 112 +
STACK CFI 21c9c .cfa: x29 48 + x19: .cfa -8 + ^ x20: .cfa -16 + ^ x21: .cfa -32 + ^ .ra: .cfa -40 + ^ x29: .cfa -48 + ^
STACK CFI 22050 .cfa: sp 112 +
STACK CFI 22060 .cfa: sp 0 +
STACK CFI 22064 .cfa: x29 48 +
STACK CFI INIT 22480 350 .cfa: sp 0 +
STACK CFI 22484 .cfa: sp 112 +
STACK CFI 22498 .cfa: x29 64 + x19: .cfa -8 + ^ x20: .cfa -16 + ^ x21: .cfa -24 + ^ x22: .cfa -32 + ^ x23: .cfa -40 + ^ x24: .cfa -48 + ^ .ra: .cfa -56 + ^ x29: .cfa -64 + ^
STACK CFI 22730 .cfa: sp 112 +
STACK CFI 22744 .cfa: sp 0 +
STACK CFI 22748 .cfa: x29 64 +
STACK CFI INIT 22810 484 .cfa: sp 0 +
STACK CFI 22814 .cfa: sp 224 +
STACK CFI 22830 .cfa: x29 96 + x19: .cfa -8 + ^ x20: .cfa -16 + ^ x21: .cfa -24 + ^ x22: .cfa -32 + ^ x23: .cfa -40 + ^ x24: .cfa -48 + ^ x25: .cfa -56 + ^ x26: .cfa -64 + ^ x27: .cfa -72 + ^ x28: .cfa -80 + ^ .ra: .cfa -88 + ^ x29: .cfa -96 + ^
STACK CFI 22aa0 .cfa: sp 224 +
STACK CFI 22abc .cfa: sp 0 +
STACK CFI 22ac0 .cfa: x29 96 +
STACK CFI 22b8c .cfa: sp 224 +
STACK CFI 22ba8 .cfa: sp 0 +
STACK CFI 22bac .cfa: x29 96 +
STACK CFI INIT 22cac 484 .cfa: sp 0 +
STACK CFI 22cb0 .cfa: sp 224 +
STACK CFI 22ccc .cfa: x29 96 + x19: .cfa -8 + ^ x20: .cfa -16 + ^ x21: .cfa -24 + ^ x22: .cfa -32 + ^ x23: .cfa -40 + ^ x24: .cfa -48 + ^ x25: .cfa -56 + ^ x26: .cfa -64 + ^ x27: .cfa -72 + ^ x28: .cfa -80 + ^ .ra: .cfa -88 + ^ x29: .cfa -96 + ^
STACK CFI 22f3c .cfa: sp 224 +
STACK CFI 22f58 .cfa: sp 0 +
STACK CFI 22f5c .cfa: x29 96 +
STACK CFI 23028 .cfa: sp 224 +
STACK CFI 23044 .cfa: sp 0 +
STACK CFI 23048 .cfa: x29 96 +
STACK CFI INIT 23148 5fc .cfa: sp 0 +
STACK CFI 2314c .cfa: sp 256 +
STACK CFI 23164 .cfa: x29 80 + x19: .cfa -8 + ^ x20: .cfa -16 + ^ x21: .cfa -24 + ^ x22: .cfa -32 + ^ x23: .cfa -40 + ^ x24: .cfa -48 + ^ x25: .cfa -56 + ^ x26: .cfa -64 + ^ .ra: .cfa -72 + ^ x29: .cfa -80 + ^
STACK CFI 23574 .cfa: sp 256 +
STACK CFI 2358c .cfa: sp 0 +
STACK CFI 23590 .cfa: x29 80 +
STACK CFI INIT 23794 74 .cfa: sp 0 +
STACK CFI 23798 .cfa: sp 48 +
STACK CFI 237a4 .cfa: x29 32 + x19: .cfa -8 + ^ x20: .cfa -16 + ^ .ra: .cfa -24 + ^ x29: .cfa -32 + ^
STACK CFI 237f0 .cfa: sp 48 +
STACK CFI 237fc .cfa: sp 0 +
STACK CFI 23800 .cfa: x29 32 +
STACK CFI INIT 23888 154 .cfa: sp 0 +
STACK CFI 2388c .cfa: sp 384 +
STACK CFI 238a0 .cfa: x29 64 + x19: .cfa -8 + ^ x20: .cfa -16 + ^ x21: .cfa -24 + ^ x22: .cfa -32 + ^ x23: .cfa -40 + ^ x28: .cfa -48 + ^ .ra: .cfa -56 + ^ x29: .cfa -64 + ^
STACK CFI 23984 .cfa: sp 384 +
STACK CFI 23998 .cfa: sp 0 +
STACK CFI 2399c .cfa: x29 64 +
STACK CFI INIT 23a10 12c .cfa: sp 0 +
STACK CFI 23a14 .cfa: sp 80 +
STACK CFI 23a28 .cfa: x29 80 + x19: .cfa -8 + ^ x20: .cfa -16 + ^ x21: .cfa -24 + ^ x22: .cfa -32 + ^ x23: .cfa -40 + ^ x24: .cfa -48 + ^ x25: .cfa -56 + ^ x26: .cfa -64 + ^ .ra: .cfa -72 + ^ x29: .cfa -80 + ^
STACK CFI 23af0 .cfa: sp 80 +
STACK CFI 23b04 .cfa: sp 0 +
STACK CFI 23b08 .cfa: x29 80 +
STACK CFI INIT 23be0 1a4 .cfa: sp 0 +
STACK CFI 23be4 .cfa: sp 112 +
STACK CFI 23bfc .cfa: x29 80 + x19: .cfa -8 + ^ x20: .cfa -16 + ^ x21: .cfa -24 + ^ x22: .cfa -32 + ^ x23: .cfa -40 + ^ x24: .cfa -48 + ^ x25: .cfa -56 + ^ x26: .cfa -64 + ^ .ra: .cfa -72 + ^ x29: .cfa -80 + ^
STACK CFI 23cec .cfa: sp 112 +
STACK CFI 23d04 .cfa: sp 0 +
STACK CFI 23d08 .cfa: x29 80 +
STACK CFI INIT 23d84 1dc .cfa: sp 0 +
STACK CFI 23d88 .cfa: sp 128 +
STACK CFI 23da4 .cfa: x29 96 + x19: .cfa -8 + ^ x20: .cfa -16 + ^ x21: .cfa -24 + ^ x22: .cfa -32 + ^ x23: .cfa -40 + ^ x24: .cfa -48 + ^ x25: .cfa -56 + ^ x26: .cfa -64 + ^ x27: .cfa -80 + ^ .ra: .cfa -88 + ^ x29: .cfa -96 + ^
STACK CFI 23f10 .cfa: sp 128 +
STACK CFI 23f2c .cfa: sp 0 +
STACK CFI 23f30 .cfa: x29 96 +
STACK CFI INIT 23f74 50 .cfa: sp 0 +
STACK CFI 23f78 .cfa: sp 32 +
STACK CFI 23f80 .cfa: x29 32 + x19: .cfa -8 + ^ x20: .cfa -16 + ^ .ra: .cfa -24 + ^ x29: .cfa -32 + ^
STACK CFI INIT 24028 178 .cfa: sp 0 +
STACK CFI 2402c .cfa: sp 80 +
STACK CFI 24040 .cfa: x29 80 + x19: .cfa -8 + ^ x20: .cfa -16 + ^ x21: .cfa -24 + ^ x22: .cfa -32 + ^ x23: .cfa -40 + ^ x24: .cfa -48 + ^ x25: .cfa -64 + ^ .ra: .cfa -72 + ^ x29: .cfa -80 + ^
STACK CFI 2416c .cfa: sp 80 +
STACK CFI 24180 .cfa: sp 0 +
STACK CFI 24184 .cfa: x29 80 +
STACK CFI INIT 242e8 224 .cfa: sp 0 +
STACK CFI 242ec .cfa: sp 128 +
STACK CFI 24304 .cfa: x29 80 + x19: .cfa -8 + ^ x20: .cfa -16 + ^ x21: .cfa -24 + ^ x22: .cfa -32 + ^ x23: .cfa -40 + ^ x24: .cfa -48 + ^ x25: .cfa -64 + ^ .ra: .cfa -72 + ^ x29: .cfa -80 + ^
STACK CFI 244a0 .cfa: sp 128 +
STACK CFI 244b8 .cfa: sp 0 +
STACK CFI 244bc .cfa: x29 80 +
STACK CFI INIT 25268 c8 .cfa: sp 0 +
STACK CFI 2526c .cfa: sp 32 +
STACK CFI 25274 .cfa: x29 32 + x19: .cfa -8 + ^ x20: .cfa -16 + ^ .ra: .cfa -24 + ^ x29: .cfa -32 + ^
STACK CFI 252a8 .cfa: sp 32 +
STACK CFI 252b0 .cfa: sp 0 +
STACK CFI 252b4 .cfa: x29 32 +
STACK CFI 252b8 .cfa: sp 32 +
STACK CFI 252c0 .cfa: sp 0 +
STACK CFI 252c4 .cfa: x29 32 +
STACK CFI INIT 25330 81c .cfa: sp 0 +
STACK CFI 25334 .cfa: sp 80 +
STACK CFI 25348 .cfa: x29 80 + x19: .cfa -8 + ^ x20: .cfa -16 + ^ x21: .cfa -24 + ^ x22: .cfa -32 + ^ x23: .cfa -40 + ^ x24: .cfa -48 + ^ x25: .cfa -56 + ^ x26: .cfa -64 + ^ .ra: .cfa -72 + ^ x29: .cfa -80 + ^
STACK CFI 257d0 .cfa: sp 80 +
STACK CFI 257e4 .cfa: sp 0 +
STACK CFI 257e8 .cfa: x29 80 +
STACK CFI INIT 25b4c 578 .cfa: sp 0 +
STACK CFI 25b50 .cfa: sp 96 +
STACK CFI 25b64 .cfa: x29 64 + x19: .cfa -8 + ^ x20: .cfa -16 + ^ x21: .cfa -24 + ^ x22: .cfa -32 + ^ x23: .cfa -48 + ^ .ra: .cfa -56 + ^ x29: .cfa -64 + ^
STACK CFI 25f04 .cfa: sp 96 +
STACK CFI 25f18 .cfa: sp 0 +
STACK CFI 25f1c .cfa: x29 64 +
STACK CFI INIT 26238 1c .cfa: sp 0 +
STACK CFI 2623c .cfa: sp 16 +
STACK CFI 26240 .cfa: x29 16 + .ra: .cfa -8 + ^ x29: .cfa -16 + ^
STACK CFI 26248 .cfa: sp 16 +
STACK CFI 2624c .cfa: sp 0 +
STACK CFI 26250 .cfa: x29 16 +
STACK CFI INIT 26560 3f8 .cfa: sp 0 +
STACK CFI 26564 .cfa: sp 48 +
STACK CFI 26570 .cfa: x29 48 + x19: .cfa -8 + ^ x20: .cfa -16 + ^ x21: .cfa -24 + ^ x22: .cfa -32 + ^ .ra: .cfa -40 + ^ x29: .cfa -48 + ^
STACK CFI 268d8 .cfa: sp 48 +
STACK CFI 268e4 .cfa: sp 0 +
STACK CFI 268e8 .cfa: x29 48 +
STACK CFI 26938 .cfa: sp 48 +
STACK CFI 26944 .cfa: sp 0 +
STACK CFI 26948 .cfa: x29 48 +
STACK CFI INIT 269d0 1c .cfa: sp 0 +
STACK CFI 269d4 .cfa: sp 16 +
STACK CFI 269d8 .cfa: x29 16 + .ra: .cfa -8 + ^ x29: .cfa -16 + ^
STACK CFI 269e0 .cfa: sp 16 +
STACK CFI 269e4 .cfa: sp 0 +
STACK CFI 269e8 .cfa: x29 16 +
STACK CFI INIT 26a7c 98 .cfa: sp 0 +
STACK CFI 26a80 .cfa: sp 48 +
STACK CFI 26a8c .cfa: x29 48 + x19: .cfa -8 + ^ x20: .cfa -16 + ^ x21: .cfa -32 + ^ .ra: .cfa -40 + ^ x29: .cfa -48 + ^
STACK CFI 26aec .cfa: sp 48 +
STACK CFI 26af8 .cfa: sp 0 +
STACK CFI 26afc .cfa: sp 48 +
STACK CFI 26b08 .cfa: sp 0 +
STACK CFI 26b0c .cfa: x29 48 +
STACK CFI INIT 26b50 1c .cfa: sp 0 +
STACK CFI 26b54 .cfa: sp 16 +
STACK CFI 26b58 .cfa: x29 16 + .ra: .cfa -8 + ^ x29: .cfa -16 + ^
STACK CFI 26b60 .cfa: sp 16 +
STACK CFI 26b64 .cfa: sp 0 +
STACK CFI 26b68 .cfa: x29 16 +
STACK CFI INIT 26b6c 1c .cfa: sp 0 +
STACK CFI 26b70 .cfa: sp 16 +
STACK CFI 26b74 .cfa: x29 16 + .ra: .cfa -8 + ^ x29: .cfa -16 + ^
STACK CFI 26b7c .cfa: sp 16 +
STACK CFI 26b80 .cfa: sp 0 +
STACK CFI 26b84 .cfa: x29 16 +
STACK CFI INIT 26d68 1cc .cfa: sp 0 +
STACK CFI 26d6c .cfa: sp 160 +
STACK CFI 26d84 .cfa: x29 80 + x19: .cfa -8 + ^ x20: .cfa -16 + ^ x21: .cfa -24 + ^ x22: .cfa -32 + ^ x23: .cfa -40 + ^ x24: .cfa -48 + ^ x25: .cfa -56 + ^ x26: .cfa -64 + ^ .ra: .cfa -72 + ^ x29: .cfa -80 + ^
STACK CFI 26ee0 .cfa: sp 160 +
STACK CFI 26ef8 .cfa: sp 0 +
STACK CFI 26efc .cfa: x29 80 +
STACK CFI INIT 272ec 1a0 .cfa: sp 0 +
STACK CFI 272f0 .cfa: sp 64 +
STACK CFI 27300 .cfa: x29 64 + x19: .cfa -8 + ^ x20: .cfa -16 + ^ x21: .cfa -24 + ^ x22: .cfa -32 + ^ x23: .cfa -48 + ^ .ra: .cfa -56 + ^ x29: .cfa -64 + ^
STACK CFI 273c4 .cfa: sp 64 +
STACK CFI 273d4 .cfa: sp 0 +
STACK CFI 273d8 .cfa: x29 64 +
STACK CFI INIT 27ac0 a8 .cfa: sp 0 +
STACK CFI 27ac4 .cfa: sp 64 +
STACK CFI 27ad4 .cfa: x29 64 + x19: .cfa -8 + ^ x20: .cfa -16 + ^ x21: .cfa -24 + ^ x22: .cfa -32 + ^ x23: .cfa -40 + ^ x24: .cfa -48 + ^ .ra: .cfa -56 + ^ x29: .cfa -64 + ^
STACK CFI 27af8 .cfa: sp 64 +
STACK CFI 27b08 .cfa: sp 0 +
STACK CFI 27b0c .cfa: x29 64 +
STACK CFI INIT 27cb8 31c .cfa: sp 0 +
STACK CFI 27cbc .cfa: sp 224 +
STACK CFI 27cd0 .cfa: x29 64 + x19: .cfa -8 + ^ x20: .cfa -16 + ^ x21: .cfa -24 + ^ x22: .cfa -32 + ^ x23: .cfa -48 + ^ .ra: .cfa -56 + ^ x29: .cfa -64 + ^
STACK CFI 27ec4 .cfa: sp 224 +
STACK CFI 27ed8 .cfa: sp 0 +
STACK CFI 27edc .cfa: x29 64 +
STACK CFI INIT 27fd8 184 .cfa: sp 0 +
STACK CFI 27fdc .cfa: sp 80 +
STACK CFI 27fec .cfa: x29 48 + x19: .cfa -8 + ^ x20: .cfa -16 + ^ x21: .cfa -24 + ^ x22: .cfa -32 + ^ .ra: .cfa -40 + ^ x29: .cfa -48 + ^
STACK CFI 28118 .cfa: sp 80 +
STACK CFI 28128 .cfa: sp 0 +
STACK CFI 2812c .cfa: x29 48 +
STACK CFI INIT 2815c a8 .cfa: sp 0 +
STACK CFI 28160 .cfa: sp 32 +
STACK CFI 28168 .cfa: x29 32 + x19: .cfa -16 + ^ .ra: .cfa -24 + ^ x29: .cfa -32 + ^
STACK CFI 2819c .cfa: sp 32 +
STACK CFI 281a4 .cfa: sp 0 +
STACK CFI 281a8 .cfa: x29 32 +
STACK CFI 281ac .cfa: sp 32 +
STACK CFI 281b4 .cfa: sp 0 +
STACK CFI 281b8 .cfa: x29 32 +
STACK CFI INIT 282e8 fc .cfa: sp 0 +
STACK CFI 282ec .cfa: sp 96 +
STACK CFI 282fc .cfa: x29 48 + x19: .cfa -8 + ^ x20: .cfa -16 + ^ x21: .cfa -32 + ^ .ra: .cfa -40 + ^ x29: .cfa -48 + ^
STACK CFI 28374 .cfa: sp 96 +
STACK CFI 28384 .cfa: sp 0 +
STACK CFI 28388 .cfa: x29 48 +
STACK CFI INIT 283e4 134 .cfa: sp 0 +
STACK CFI 283e8 .cfa: sp 80 +
STACK CFI 283f4 .cfa: x29 32 + x19: .cfa -8 + ^ x20: .cfa -16 + ^ .ra: .cfa -24 + ^ x29: .cfa -32 + ^
STACK CFI 28424 .cfa: sp 80 +
STACK CFI 28430 .cfa: sp 0 +
STACK CFI 28434 .cfa: x29 32 +
STACK CFI INIT 28518 78 .cfa: sp 0 +
STACK CFI 2851c .cfa: sp 32 +
STACK CFI 28524 .cfa: x29 32 + x19: .cfa -8 + ^ x20: .cfa -16 + ^ .ra: .cfa -24 + ^ x29: .cfa -32 + ^
STACK CFI 28530 .cfa: sp 32 +
STACK CFI 28538 .cfa: sp 0 +
STACK CFI 2853c .cfa: x29 32 +
STACK CFI INIT 28590 74 .cfa: sp 0 +
STACK CFI 28594 .cfa: sp 48 +
STACK CFI 285a0 .cfa: x29 32 + x19: .cfa -8 + ^ x20: .cfa -16 + ^ .ra: .cfa -24 + ^ x29: .cfa -32 + ^
STACK CFI 285ec .cfa: sp 48 +
STACK CFI 285f8 .cfa: sp 0 +
STACK CFI 285fc .cfa: x29 32 +
STACK CFI INIT 28668 174 .cfa: sp 0 +
STACK CFI 2866c .cfa: sp 112 +
STACK CFI 2867c .cfa: x29 48 + x19: .cfa -8 + ^ x20: .cfa -16 + ^ x21: .cfa -32 + ^ .ra: .cfa -40 + ^ x29: .cfa -48 + ^
STACK CFI 286c8 .cfa: sp 112 +
STACK CFI 286d8 .cfa: sp 0 +
STACK CFI 286dc .cfa: x29 48 +
STACK CFI INIT 28878 528 .cfa: sp 0 +
STACK CFI 2887c .cfa: sp 112 +
STACK CFI 2888c .cfa: x29 48 + x19: .cfa -8 + ^ x20: .cfa -16 + ^ x21: .cfa -32 + ^ .ra: .cfa -40 + ^ x29: .cfa -48 + ^
STACK CFI 289f4 .cfa: sp 112 +
STACK CFI 28a04 .cfa: sp 0 +
STACK CFI 28a08 .cfa: x29 48 +
STACK CFI INIT 28da0 24c .cfa: sp 0 +
STACK CFI 28da4 .cfa: sp 128 +
STACK CFI 28db8 .cfa: x29 64 + x19: .cfa -8 + ^ x20: .cfa -16 + ^ x21: .cfa -24 + ^ x22: .cfa -32 + ^ x23: .cfa -48 + ^ .ra: .cfa -56 + ^ x29: .cfa -64 + ^
STACK CFI 28e88 .cfa: sp 128 +
STACK CFI 28e9c .cfa: sp 0 +
STACK CFI 28ea0 .cfa: x29 64 +
STACK CFI INIT 290e8 80c .cfa: sp 0 +
STACK CFI 290ec .cfa: sp 128 +
STACK CFI 29100 .cfa: x29 64 + x19: .cfa -8 + ^ x20: .cfa -16 + ^ x21: .cfa -24 + ^ x22: .cfa -32 + ^ x23: .cfa -48 + ^ .ra: .cfa -56 + ^ x29: .cfa -64 + ^
STACK CFI 2971c .cfa: sp 128 +
STACK CFI 29730 .cfa: sp 0 +
STACK CFI 29734 .cfa: x29 64 +
STACK CFI INIT 298f4 7b0 .cfa: sp 0 +
STACK CFI 298f8 .cfa: sp 80 +
STACK CFI 2990c .cfa: x29 80 + x19: .cfa -8 + ^ x20: .cfa -16 + ^ x21: .cfa -24 + ^ x22: .cfa -32 + ^ x23: .cfa -40 + ^ x24: .cfa -48 + ^ x25: .cfa -56 + ^ x26: .cfa -64 + ^ .ra: .cfa -72 + ^ x29: .cfa -80 + ^
STACK CFI 29d28 .cfa: sp 80 +
STACK CFI 29d3c .cfa: sp 0 +
STACK CFI 29d40 .cfa: x29 80 +
STACK CFI INIT 2a0f8 16c .cfa: sp 0 +
STACK CFI 2a0fc .cfa: sp 160 +
STACK CFI 2a114 .cfa: x29 80 + x19: .cfa -8 + ^ x20: .cfa -16 + ^ x21: .cfa -24 + ^ x22: .cfa -32 + ^ x23: .cfa -40 + ^ x24: .cfa -48 + ^ x25: .cfa -56 + ^ x26: .cfa -64 + ^ .ra: .cfa -72 + ^ x29: .cfa -80 + ^
STACK CFI 2a17c .cfa: sp 160 +
STACK CFI 2a194 .cfa: sp 0 +
STACK CFI 2a198 .cfa: x29 80 +
STACK CFI INIT 2a264 4ac .cfa: sp 0 +
STACK CFI 2a268 .cfa: sp 128 +
STACK CFI 2a280 .cfa: x29 80 + x19: .cfa -8 + ^ x20: .cfa -16 + ^ x21: .cfa -24 + ^ x22: .cfa -32 + ^ x23: .cfa -40 + ^ x24: .cfa -48 + ^ x25: .cfa -64 + ^ .ra: .cfa -72 + ^ x29: .cfa -80 + ^
STACK CFI 2a68c .cfa: sp 128 +
STACK CFI 2a6a4 .cfa: sp 0 +
STACK CFI 2a6a8 .cfa: x29 80 +
STACK CFI INIT 2a718 17c .cfa: sp 0 +
STACK CFI 2a71c .cfa: sp 176 +
STACK CFI 2a738 .cfa: x29 80 + x19: .cfa -8 + ^ x20: .cfa -16 + ^ x21: .cfa -24 + ^ x22: .cfa -32 + ^ x23: .cfa -40 + ^ x24: .cfa -48 + ^ x25: .cfa -56 + ^ x26: .cfa -64 + ^ .ra: .cfa -72 + ^ x29: .cfa -80 + ^ v8: .cfa -96 + ^
STACK CFI 2a7a8 .cfa: sp 176 +
STACK CFI 2a7c4 .cfa: sp 0 +
STACK CFI 2a7c8 .cfa: x29 80 +
STACK CFI INIT 2a894 5ac .cfa: sp 0 +
STACK CFI 2a898 .cfa: sp 128 +
STACK CFI 2a8b0 .cfa: x29 80 + x19: .cfa -8 + ^ x20: .cfa -16 + ^ x21: .cfa -24 + ^ x22: .cfa -32 + ^ x23: .cfa -40 + ^ x24: .cfa -48 + ^ x25: .cfa -64 + ^ .ra: .cfa -72 + ^ x29: .cfa -80 + ^
STACK CFI 2adac .cfa: sp 128 +
STACK CFI 2adc4 .cfa: sp 0 +
STACK CFI 2adc8 .cfa: x29 80 +
STACK CFI INIT 2ae48 15c .cfa: sp 0 +
STACK CFI 2ae4c .cfa: sp 144 +
STACK CFI 2ae64 .cfa: x29 56 + x19: .cfa -8 + ^ x20: .cfa -16 + ^ x21: .cfa -24 + ^ x22: .cfa -32 + ^ x23: .cfa -40 + ^ .ra: .cfa -48 + ^ x29: .cfa -56 + ^ v8: .cfa -64 + ^
STACK CFI 2aebc .cfa: sp 144 +
STACK CFI 2aed4 .cfa: sp 0 +
STACK CFI 2aed8 .cfa: x29 56 +
STACK CFI INIT 2afa4 2d4 .cfa: sp 0 +
STACK CFI 2afa8 .cfa: sp 96 +
STACK CFI 2afc0 .cfa: x29 80 + x19: .cfa -8 + ^ x20: .cfa -16 + ^ x21: .cfa -24 + ^ x22: .cfa -32 + ^ x23: .cfa -40 + ^ x24: .cfa -48 + ^ x25: .cfa -64 + ^ .ra: .cfa -72 + ^ x29: .cfa -80 + ^
STACK CFI 2b214 .cfa: sp 96 +
STACK CFI 2b22c .cfa: sp 0 +
STACK CFI 2b230 .cfa: x29 80 +
STACK CFI INIT 2b280 14c .cfa: sp 0 +
STACK CFI 2b284 .cfa: sp 144 +
STACK CFI 2b298 .cfa: x29 64 + x19: .cfa -8 + ^ x20: .cfa -16 + ^ x21: .cfa -24 + ^ x22: .cfa -32 + ^ x23: .cfa -48 + ^ .ra: .cfa -56 + ^ x29: .cfa -64 + ^
STACK CFI 2b2e8 .cfa: sp 144 +
STACK CFI 2b2fc .cfa: sp 0 +
STACK CFI 2b300 .cfa: x29 64 +
STACK CFI INIT 2b3cc 108 .cfa: sp 0 +
STACK CFI 2b3d0 .cfa: sp 64 +
STACK CFI 2b3e0 .cfa: x29 48 + x19: .cfa -8 + ^ x20: .cfa -16 + ^ x21: .cfa -24 + ^ x22: .cfa -32 + ^ .ra: .cfa -40 + ^ x29: .cfa -48 + ^
STACK CFI 2b48c .cfa: sp 64 +
STACK CFI 2b49c .cfa: sp 0 +
STACK CFI 2b4a0 .cfa: x29 48 +
STACK CFI INIT 2b4ec 164 .cfa: sp 0 +
STACK CFI 2b4f0 .cfa: sp 160 +
STACK CFI 2b508 .cfa: x29 80 + x19: .cfa -8 + ^ x20: .cfa -16 + ^ x21: .cfa -24 + ^ x22: .cfa -32 + ^ x23: .cfa -40 + ^ x24: .cfa -48 + ^ x25: .cfa -64 + ^ .ra: .cfa -72 + ^ x29: .cfa -80 + ^
STACK CFI 2b568 .cfa: sp 160 +
STACK CFI 2b580 .cfa: sp 0 +
STACK CFI 2b584 .cfa: x29 80 +
STACK CFI INIT 2b650 3d4 .cfa: sp 0 +
STACK CFI 2b654 .cfa: sp 96 +
STACK CFI 2b66c .cfa: x29 80 + x19: .cfa -8 + ^ x20: .cfa -16 + ^ x21: .cfa -24 + ^ x22: .cfa -32 + ^ x23: .cfa -40 + ^ x24: .cfa -48 + ^ x25: .cfa -64 + ^ .ra: .cfa -72 + ^ x29: .cfa -80 + ^
STACK CFI 2b9b0 .cfa: sp 96 +
STACK CFI 2b9c8 .cfa: sp 0 +
STACK CFI 2b9cc .cfa: x29 80 +
STACK CFI INIT 2ba24 17c .cfa: sp 0 +
STACK CFI 2ba28 .cfa: sp 176 +
STACK CFI 2ba44 .cfa: x29 96 + x19: .cfa -8 + ^ x20: .cfa -16 + ^ x21: .cfa -24 + ^ x22: .cfa -32 + ^ x23: .cfa -40 + ^ x24: .cfa -48 + ^ x25: .cfa -56 + ^ x26: .cfa -64 + ^ x27: .cfa -80 + ^ .ra: .cfa -88 + ^ x29: .cfa -96 + ^
STACK CFI 2bab4 .cfa: sp 176 +
STACK CFI 2bad0 .cfa: sp 0 +
STACK CFI 2bad4 .cfa: x29 96 +
STACK CFI INIT 2bba0 5d4 .cfa: sp 0 +
STACK CFI 2bba4 .cfa: sp 96 +
STACK CFI 2bbbc .cfa: x29 80 + x19: .cfa -8 + ^ x20: .cfa -16 + ^ x21: .cfa -24 + ^ x22: .cfa -32 + ^ x23: .cfa -40 + ^ x24: .cfa -48 + ^ x25: .cfa -64 + ^ .ra: .cfa -72 + ^ x29: .cfa -80 + ^
STACK CFI 2c0e0 .cfa: sp 96 +
STACK CFI 2c0f8 .cfa: sp 0 +
STACK CFI 2c0fc .cfa: x29 80 +
STACK CFI INIT 2c174 14c .cfa: sp 0 +
STACK CFI 2c178 .cfa: sp 144 +
STACK CFI 2c18c .cfa: x29 64 + x19: .cfa -8 + ^ x20: .cfa -16 + ^ x21: .cfa -24 + ^ x22: .cfa -32 + ^ x23: .cfa -48 + ^ .ra: .cfa -56 + ^ x29: .cfa -64 + ^
STACK CFI 2c1dc .cfa: sp 144 +
STACK CFI 2c1f0 .cfa: sp 0 +
STACK CFI 2c1f4 .cfa: x29 64 +
STACK CFI INIT 2c2c0 108 .cfa: sp 0 +
STACK CFI 2c2c4 .cfa: sp 64 +
STACK CFI 2c2d4 .cfa: x29 48 + x19: .cfa -8 + ^ x20: .cfa -16 + ^ x21: .cfa -24 + ^ x22: .cfa -32 + ^ .ra: .cfa -40 + ^ x29: .cfa -48 + ^
STACK CFI 2c380 .cfa: sp 64 +
STACK CFI 2c390 .cfa: sp 0 +
STACK CFI 2c394 .cfa: x29 48 +
STACK CFI INIT 2c3c8 2fc .cfa: sp 0 +
STACK CFI 2c3cc .cfa: sp 128 +
STACK CFI 2c3e0 .cfa: x29 64 + x19: .cfa -8 + ^ x20: .cfa -16 + ^ x21: .cfa -24 + ^ x22: .cfa -32 + ^ x23: .cfa -40 + ^ x24: .cfa -48 + ^ .ra: .cfa -56 + ^ x29: .cfa -64 + ^
STACK CFI 2c560 .cfa: sp 128 +
STACK CFI 2c574 .cfa: sp 0 +
STACK CFI 2c578 .cfa: x29 64 +
STACK CFI INIT 2c718 14c .cfa: sp 0 +
STACK CFI 2c71c .cfa: sp 144 +
STACK CFI 2c730 .cfa: x29 64 + x19: .cfa -8 + ^ x20: .cfa -16 + ^ x21: .cfa -24 + ^ x22: .cfa -32 + ^ x23: .cfa -48 + ^ .ra: .cfa -56 + ^ x29: .cfa -64 + ^
STACK CFI 2c780 .cfa: sp 144 +
STACK CFI 2c794 .cfa: sp 0 +
STACK CFI 2c798 .cfa: x29 64 +
STACK CFI INIT 2c864 108 .cfa: sp 0 +
STACK CFI 2c868 .cfa: sp 64 +
STACK CFI 2c878 .cfa: x29 48 + x19: .cfa -8 + ^ x20: .cfa -16 + ^ x21: .cfa -24 + ^ x22: .cfa -32 + ^ .ra: .cfa -40 + ^ x29: .cfa -48 + ^
STACK CFI 2c924 .cfa: sp 64 +
STACK CFI 2c934 .cfa: sp 0 +
STACK CFI 2c938 .cfa: x29 48 +
STACK CFI INIT 2c96c 244 .cfa: sp 0 +
STACK CFI 2c970 .cfa: sp 128 +
STACK CFI 2c984 .cfa: x29 64 + x19: .cfa -8 + ^ x20: .cfa -16 + ^ x21: .cfa -24 + ^ x22: .cfa -32 + ^ x23: .cfa -48 + ^ .ra: .cfa -56 + ^ x29: .cfa -64 + ^
STACK CFI 2ca4c .cfa: sp 128 +
STACK CFI 2ca60 .cfa: sp 0 +
STACK CFI 2ca64 .cfa: x29 64 +
STACK CFI INIT 2cbb0 254 .cfa: sp 0 +
STACK CFI 2cbb4 .cfa: sp 128 +
STACK CFI 2cbc8 .cfa: x29 64 + x19: .cfa -8 + ^ x20: .cfa -16 + ^ x21: .cfa -24 + ^ x22: .cfa -32 + ^ x23: .cfa -48 + ^ .ra: .cfa -56 + ^ x29: .cfa -64 + ^
STACK CFI 2cca0 .cfa: sp 128 +
STACK CFI 2ccb4 .cfa: sp 0 +
STACK CFI 2ccb8 .cfa: x29 64 +
STACK CFI INIT 2ce04 2b4 .cfa: sp 0 +
STACK CFI 2ce08 .cfa: sp 128 +
STACK CFI 2ce1c .cfa: x29 64 + x19: .cfa -8 + ^ x20: .cfa -16 + ^ x21: .cfa -24 + ^ x22: .cfa -32 + ^ x23: .cfa -40 + ^ x24: .cfa -48 + ^ .ra: .cfa -56 + ^ x29: .cfa -64 + ^
STACK CFI 2cf54 .cfa: sp 128 +
STACK CFI 2cf68 .cfa: sp 0 +
STACK CFI 2cf6c .cfa: x29 64 +
STACK CFI INIT 2d0b8 224 .cfa: sp 0 +
STACK CFI 2d0bc .cfa: sp 128 +
STACK CFI 2d0d0 .cfa: x29 64 + x19: .cfa -8 + ^ x20: .cfa -16 + ^ x21: .cfa -24 + ^ x22: .cfa -32 + ^ x23: .cfa -48 + ^ .ra: .cfa -56 + ^ x29: .cfa -64 + ^
STACK CFI 2d178 .cfa: sp 128 +
STACK CFI 2d18c .cfa: sp 0 +
STACK CFI 2d190 .cfa: x29 64 +
STACK CFI INIT 2d2dc 224 .cfa: sp 0 +
STACK CFI 2d2e0 .cfa: sp 128 +
STACK CFI 2d2f4 .cfa: x29 64 + x19: .cfa -8 + ^ x20: .cfa -16 + ^ x21: .cfa -24 + ^ x22: .cfa -32 + ^ x23: .cfa -48 + ^ .ra: .cfa -56 + ^ x29: .cfa -64 + ^
STACK CFI 2d39c .cfa: sp 128 +
STACK CFI 2d3b0 .cfa: sp 0 +
STACK CFI 2d3b4 .cfa: x29 64 +
STACK CFI INIT 2d500 154 .cfa: sp 0 +
STACK CFI 2d504 .cfa: sp 384 +
STACK CFI 2d518 .cfa: x29 64 + x19: .cfa -8 + ^ x20: .cfa -16 + ^ x21: .cfa -24 + ^ x22: .cfa -32 + ^ x23: .cfa -40 + ^ x28: .cfa -48 + ^ .ra: .cfa -56 + ^ x29: .cfa -64 + ^
STACK CFI 2d5fc .cfa: sp 384 +
STACK CFI 2d610 .cfa: sp 0 +
STACK CFI 2d614 .cfa: x29 64 +
STACK CFI INIT 2d654 168 .cfa: sp 0 +
STACK CFI 2d658 .cfa: sp 384 +
STACK CFI 2d66c .cfa: x29 64 + x19: .cfa -8 + ^ x20: .cfa -16 + ^ x21: .cfa -24 + ^ x22: .cfa -32 + ^ x23: .cfa -40 + ^ x28: .cfa -48 + ^ .ra: .cfa -56 + ^ x29: .cfa -64 + ^
STACK CFI 2d764 .cfa: sp 384 +
STACK CFI 2d778 .cfa: sp 0 +
STACK CFI 2d77c .cfa: x29 64 +
STACK CFI INIT 2d7d4 4e0 .cfa: sp 0 +
STACK CFI 2d7d8 .cfa: sp 64 +
STACK CFI 2d7e8 .cfa: x29 64 + x19: .cfa -8 + ^ x20: .cfa -16 + ^ x21: .cfa -24 + ^ x22: .cfa -32 + ^ x23: .cfa -40 + ^ x24: .cfa -48 + ^ .ra: .cfa -56 + ^ x29: .cfa -64 + ^
STACK CFI 2dc88 .cfa: sp 64 +
STACK CFI 2dc98 .cfa: sp 0 +
STACK CFI 2dc9c .cfa: x29 64 +
