MODULE Linux arm 9F5379BE50784D671D57E1166AB93E8C0 thesillydoggo.qolmod.android32.so
INFO CODE_ID BE79539F7850674D1D57E1166AB93E8C57AC02C8
INFO GENERATOR mozilla/dump_syms 2.3.4
PUBLIC 84c70 0 __on_dlclose
PUBLIC 84c80 0 __emutls_unregister_key
PUBLIC 84c84 0 __on_dlclose_late
PUBLIC 84c88 0 __atexit_handler_wrapper
PUBLIC 84c94 0 atexit
PUBLIC 84cb4 0 pthread_atfork
FUNC 84cc4 58 0 __cxx_global_var_init
FUNC 84d1c 54 0 __cxx_global_var_init.1
FUNC 84d70 1e 0 std::__ndk1::vector<BlurLayer*, std::__ndk1::allocator<BlurLayer*> >::~vector[abi:ne180000]()
FUNC 84d90 564 0 __cxx_global_var_init.2
FUNC 852f4 d8 0 std::__ndk1::vector<std::__ndk1::basic_string<char, std::__ndk1::char_traits<char>, std::__ndk1::allocator<char> >, std::__ndk1::allocator<std::__ndk1::basic_string<char, std::__ndk1::char_traits<char>, std::__ndk1::allocator<char> > > >::vector[abi:ne180000](std::initializer_list<std::__ndk1::basic_string<char, std::__ndk1::char_traits<char>, std::__ndk1::allocator<char> > >)
FUNC 853cc 3e 0 std::__ndk1::vector<std::__ndk1::basic_string<char, std::__ndk1::char_traits<char>, std::__ndk1::allocator<char> >, std::__ndk1::allocator<std::__ndk1::basic_string<char, std::__ndk1::char_traits<char>, std::__ndk1::allocator<char> > > >::~vector[abi:ne180000]()
FUNC 8540c 64 0 __cxx_global_var_init.28
FUNC 85470 28 0 std::__ndk1::unordered_map<unsigned int, bool, std::__ndk1::hash<unsigned int>, std::__ndk1::equal_to<unsigned int>, std::__ndk1::allocator<std::__ndk1::pair<unsigned int const, bool> > >::~unordered_map[abi:ne180000]()
FUNC 85498 248 0 Module::Module(std::__ndk1::basic_string<char, std::__ndk1::char_traits<char>, std::__ndk1::allocator<char> >, std::__ndk1::basic_string<char, std::__ndk1::char_traits<char>, std::__ndk1::allocator<char> >, std::__ndk1::basic_string<char, std::__ndk1::char_traits<char>, std::__ndk1::allocator<char> >, bool, std::__ndk1::basic_string<char, std::__ndk1::char_traits<char>, std::__ndk1::allocator<char> >, bool)
FUNC 856e0 4c 0 __cxx_global_var_init.31
FUNC 8572c 20 0 geode::modifier::ModifyBase<geode::modifier::ModifyDerive<WindowMouseDispatcher, cocos2d::CCMouseDispatcher> >::~ModifyBase()
PUBLIC 8574d 0 __clang_call_terminate
FUNC 85758 10 0 std::__ndk1::basic_string<char, std::__ndk1::char_traits<char>, std::__ndk1::allocator<char> >::__throw_length_error[abi:ne180000]() const
FUNC 85768 38 0 std::__ndk1::__throw_length_error[abi:ne180000](char const*)
FUNC 857a0 18 0 std::length_error::length_error[abi:ne180000](char const*)
FUNC 857b8 28 0 std::__throw_bad_array_new_length([abi:ne180000], void)
FUNC 857e0 4e 0 std::__ndk1::__exception_guard_exceptions<std::__ndk1::vector<std::__ndk1::basic_string<char, std::__ndk1::char_traits<char>, std::__ndk1::allocator<char> >, std::__ndk1::allocator<std::__ndk1::basic_string<char, std::__ndk1::char_traits<char>, std::__ndk1::allocator<char> > > >::__destroy_vector>::~__exception_guard_exceptions[abi:ne180000]()
FUNC 85830 10 0 std::__ndk1::vector<std::__ndk1::basic_string<char, std::__ndk1::char_traits<char>, std::__ndk1::allocator<char> >, std::__ndk1::allocator<std::__ndk1::basic_string<char, std::__ndk1::char_traits<char>, std::__ndk1::allocator<char> > > >::__throw_length_error[abi:ne180000]() const
FUNC 85840 3a 0 std::__ndk1::__exception_guard_exceptions<std::__ndk1::_AllocatorDestroyRangeReverse<std::__ndk1::allocator<std::__ndk1::basic_string<char, std::__ndk1::char_traits<char>, std::__ndk1::allocator<char> > >, std::__ndk1::basic_string<char, std::__ndk1::char_traits<char>, std::__ndk1::allocator<char> >*> >::~__exception_guard_exceptions[abi:ne180000]()
FUNC 8587a 46 0 std::__ndk1::basic_string<char, std::__ndk1::char_traits<char>, std::__ndk1::allocator<char> >::__init_copy_ctor_external(char const*, unsigned int)
FUNC 858c0 66 0 std::__ndk1::basic_string<char, std::__ndk1::char_traits<char>, std::__ndk1::allocator<char> >::__assign_no_alias<true>(char const*, unsigned int)
FUNC 85926 a6 0 std::__ndk1::basic_string<char, std::__ndk1::char_traits<char>, std::__ndk1::allocator<char> >::__assign_no_alias<false>(char const*, unsigned int)
FUNC 859cc 10 0 std::__ndk1::vector<QOLModExt::ModuleExt*, std::__ndk1::allocator<QOLModExt::ModuleExt*> >::__throw_length_error[abi:ne180000]() const
FUNC 859dc 10 0 std::__ndk1::vector<Module*, std::__ndk1::allocator<Module*> >::__throw_length_error[abi:ne180000]() const
FUNC 859ec 29c 0 geode::modifier::ModifyBase<geode::modifier::ModifyDerive<WindowMouseDispatcher, cocos2d::CCMouseDispatcher> >::ModifyBase()
FUNC 85c88 278 0 geode::modifier::ModifyDerive<WindowMouseDispatcher, cocos2d::CCMouseDispatcher>::apply()
FUNC 85f00 3a 0 std::__ndk1::shared_ptr<geode::Hook>::~shared_ptr[abi:ne180000]()
FUNC 85f3c 60 0 geode::impl::ResultData<geode::Hook*, std::__ndk1::basic_string<char, std::__ndk1::char_traits<char>, std::__ndk1::allocator<char> > >::~ResultData()
FUNC 85f9c 2 0 geode::modifier::ModifyBase<geode::modifier::ModifyDerive<WindowMouseDispatcher, cocos2d::CCMouseDispatcher> >::apply()
FUNC 85fa0 f8 0 _ZN5geode15UnwrapExceptionC2IRPNS_4HookEQsr4implE18IsStringStreamableIT_EEENS_4impl5OkTagEOS5_
FUNC 86098 34 0 std::__ndk1::__throw_bad_variant_access[abi:ne180000]()
FUNC 860cc d8 0 std::__ndk1::basic_stringstream<char, std::__ndk1::char_traits<char>, std::__ndk1::allocator<char> >::basic_stringstream[abi:ne180000]()
FUNC 861a4 68 0 std::__ndk1::basic_stringstream<char, std::__ndk1::char_traits<char>, std::__ndk1::allocator<char> >::~basic_stringstream()
FUNC 8620c 10 0 geode::UnwrapException::~UnwrapException()
FUNC 8621c 108 0 std::__ndk1::__put_character_sequence[abi:ne180000]<char, std::__ndk1::char_traits<char> >(std::__ndk1::basic_ostream<char, std::__ndk1::char_traits<char> >, std::__ndk1::basic_ostream const*, unsigned int)
FUNC 86324 110 0 std::__ndk1::__pad_and_output[abi:ne180000]<char, std::__ndk1::char_traits<char> >(std::__ndk1::char_traits<char>, std::__ndk1::ostreambuf_iterator const*, std::__ndk1::ostreambuf_iterator const, std::__ndk1::ostreambuf_iterator const, std::__ndk1::ios_base&, std::__ndk1::ostreambuf_iterator)
FUNC 86434 ce 0 std::__ndk1::basic_stringbuf<char, std::__ndk1::char_traits<char>, std::__ndk1::allocator<char> >::str[abi:ne180000]() &&
FUNC 86502 e0 0 std::__ndk1::basic_stringbuf<char, std::__ndk1::char_traits<char>, std::__ndk1::allocator<char> >::__init_buf_ptrs[abi:ne180000]()
FUNC 865e4 164 0 std::__ndk1::vector<std::__ndk1::basic_string<char, std::__ndk1::char_traits<char>, std::__ndk1::allocator<char> >, std::__ndk1::allocator<std::__ndk1::basic_string<char, std::__ndk1::char_traits<char>, std::__ndk1::allocator<char> > > >::__push_back_slow_path<std::__ndk1::basic_string<char, std::__ndk1::char_traits<char>, std::__ndk1::allocator<char> > const&>(std::__ndk1::basic_string<char, std::__ndk1::char_traits<char>, std::__ndk1::allocator<char> > const&)
FUNC 86748 3c 0 std::__ndk1::__split_buffer<std::__ndk1::basic_string<char, std::__ndk1::char_traits<char>, std::__ndk1::allocator<char> >, std::__ndk1::allocator<std::__ndk1::basic_string<char, std::__ndk1::char_traits<char>, std::__ndk1::allocator<char> > >&>::~__split_buffer()
FUNC 86784 2 0 std::__ndk1::__variant_detail::__visitation::__base::__dispatcher<(unsigned int)0>::__dispatch[abi:ne180000]<std::__ndk1::__variant_detail::__dtor<std::__ndk1::__variant_detail::__traits<geode::Hook*, std::__ndk1::basic_string<char, std::__ndk1::char_traits<char>, std::__ndk1::allocator<char> > >, (std::__ndk1::__variant_detail::_Trait)1>::__destroy[abi:ne180000]()::{lambda(auto:1&)#1}, std::__ndk1::__variant_detail::__base<(std::__ndk1::__variant_detail::__traits<geode::Hook*, std::__ndk1::basic_string<char, std::__ndk1::char_traits<char>, std::__ndk1::allocator<char> > >)1, geode::Hook, std::__ndk1::allocator<char> >&>(std::__ndk1::__variant_detail::__dtor<std::__ndk1::__variant_detail::__traits<geode::Hook*, std::__ndk1::basic_string<char, std::__ndk1::char_traits<char>, std::__ndk1::allocator<char> > >, (std::__ndk1::__variant_detail::_Trait)1>, std::__ndk1::__variant_detail::__base<(std::__ndk1::__variant_detail::__traits<geode::Hook*, std::__ndk1::basic_string<char, std::__ndk1::char_traits<char>, std::__ndk1::allocator<char> > >)1, geode::Hook, std::__ndk1::allocator<char> >&)
FUNC 86786 e 0 std::__ndk1::__variant_detail::__visitation::__base::__dispatcher<(unsigned int)1>::__dispatch[abi:ne180000]<std::__ndk1::__variant_detail::__dtor<std::__ndk1::__variant_detail::__traits<geode::Hook*, std::__ndk1::basic_string<char, std::__ndk1::char_traits<char>, std::__ndk1::allocator<char> > >, (std::__ndk1::__variant_detail::_Trait)1>::__destroy[abi:ne180000]()::{lambda(auto:1&)#1}, std::__ndk1::__variant_detail::__base<(std::__ndk1::__variant_detail::__traits<geode::Hook*, std::__ndk1::basic_string<char, std::__ndk1::char_traits<char>, std::__ndk1::allocator<char> > >)1, geode::Hook, std::__ndk1::allocator<char> >&>(std::__ndk1::__variant_detail::__dtor<std::__ndk1::__variant_detail::__traits<geode::Hook*, std::__ndk1::basic_string<char, std::__ndk1::char_traits<char>, std::__ndk1::allocator<char> > >, (std::__ndk1::__variant_detail::_Trait)1>, std::__ndk1::__variant_detail::__base<(std::__ndk1::__variant_detail::__traits<geode::Hook*, std::__ndk1::basic_string<char, std::__ndk1::char_traits<char>, std::__ndk1::allocator<char> > >)1, geode::Hook, std::__ndk1::allocator<char> >&)
FUNC 86794 c0 0 std::__ndk1::__tree<std::__ndk1::__value_type<std::__ndk1::basic_string<char, std::__ndk1::char_traits<char>, std::__ndk1::allocator<char> >, std::__ndk1::shared_ptr<geode::Hook> >, std::__ndk1::__map_value_compare<std::__ndk1::basic_string<char, std::__ndk1::char_traits<char>, std::__ndk1::allocator<char> >, std::__ndk1::__value_type<std::__ndk1::basic_string<char, std::__ndk1::char_traits<char>, std::__ndk1::allocator<char> >, std::__ndk1::shared_ptr<geode::Hook> >, std::__ndk1::less<std::__ndk1::basic_string<char, std::__ndk1::char_traits<char>, std::__ndk1::allocator<char> > >, true>, std::__ndk1::allocator<std::__ndk1::__value_type<std::__ndk1::basic_string<char, std::__ndk1::char_traits<char>, std::__ndk1::allocator<char> >, std::__ndk1::shared_ptr<geode::Hook> > > >::find<std::__ndk1::basic_string<char, std::__ndk1::char_traits<char>, std::__ndk1::allocator<char> > >(std::__ndk1::basic_string<char, std::__ndk1::char_traits<char>, std::__ndk1::allocator<char> > const&)
FUNC 86854 82 0 std::__ndk1::__tree<std::__ndk1::__value_type<std::__ndk1::basic_string<char, std::__ndk1::char_traits<char>, std::__ndk1::allocator<char> >, std::__ndk1::shared_ptr<geode::Hook> >, std::__ndk1::__map_value_compare<std::__ndk1::basic_string<char, std::__ndk1::char_traits<char>, std::__ndk1::allocator<char> >, std::__ndk1::__value_type<std::__ndk1::basic_string<char, std::__ndk1::char_traits<char>, std::__ndk1::allocator<char> >, std::__ndk1::shared_ptr<geode::Hook> >, std::__ndk1::less<std::__ndk1::basic_string<char, std::__ndk1::char_traits<char>, std::__ndk1::allocator<char> > >, true>, std::__ndk1::allocator<std::__ndk1::__value_type<std::__ndk1::basic_string<char, std::__ndk1::char_traits<char>, std::__ndk1::allocator<char> >, std::__ndk1::shared_ptr<geode::Hook> > > >::erase(std::__ndk1::__tree_const_iterator<std::__ndk1::__value_type<std::__ndk1::basic_string<char, std::__ndk1::char_traits<char>, std::__ndk1::allocator<char> >, std::__ndk1::shared_ptr<geode::Hook> >, std::__ndk1::__tree_node<std::__ndk1::__value_type<std::__ndk1::basic_string<char, std::__ndk1::char_traits<char>, std::__ndk1::allocator<char> >, std::__ndk1::shared_ptr<geode::Hook> >, void*>*, int>)
FUNC 868d6 274 0 std::__ndk1::__tree_remove[abi:ne180000]<std::__ndk1::__tree_node_base<void*>*>(std::__ndk1::__tree_node_base<void*>*, std::__ndk1::__tree_node_base<void*>*)
FUNC 86b4a 5e 0 std::__ndk1::__tree<std::__ndk1::__value_type<std::__ndk1::basic_string<char, std::__ndk1::char_traits<char>, std::__ndk1::allocator<char> >, std::__ndk1::shared_ptr<geode::Hook> >, std::__ndk1::__map_value_compare<std::__ndk1::basic_string<char, std::__ndk1::char_traits<char>, std::__ndk1::allocator<char> >, std::__ndk1::__value_type<std::__ndk1::basic_string<char, std::__ndk1::char_traits<char>, std::__ndk1::allocator<char> >, std::__ndk1::shared_ptr<geode::Hook> >, std::__ndk1::less<std::__ndk1::basic_string<char, std::__ndk1::char_traits<char>, std::__ndk1::allocator<char> > >, true>, std::__ndk1::allocator<std::__ndk1::__value_type<std::__ndk1::basic_string<char, std::__ndk1::char_traits<char>, std::__ndk1::allocator<char> >, std::__ndk1::shared_ptr<geode::Hook> > > >::destroy(std::__ndk1::__tree_node<std::__ndk1::__value_type<std::__ndk1::basic_string<char, std::__ndk1::char_traits<char>, std::__ndk1::allocator<char> >, std::__ndk1::shared_ptr<geode::Hook> >, void*>*)
FUNC 86bb0 138 0 geode::Hook::create<bool (*)(WindowMouseDispatcher*, float, float)>(void*, bool (*)(WindowMouseDispatcher*, float, float), std::__ndk1::basic_string<char, std::__ndk1::char_traits<char>, std::__ndk1::allocator<char> > const&, tulip::hook::TulipConvention, tulip::hook::HookMetadata const&)
FUNC 86ce8 54 0 geode::modifier::AsStaticFunction_dispatchScrollMSG<WindowMouseDispatcher, bool (WindowMouseDispatcher::*)(float, float)>::Impl<bool (WindowMouseDispatcher::*)(float, float)>::function(WindowMouseDispatcher*, float, float)
FUNC 86d3c 3a 0 std::__ndk1::shared_ptr<tulip::hook::CallingConvention>::~shared_ptr[abi:ne180000]()
FUNC 86d76 46 0 tulip::hook::HandlerMetadata::~HandlerMetadata()
FUNC 86dbc 10 0 std::__ndk1::vector<tulip::hook::AbstractType, std::__ndk1::allocator<tulip::hook::AbstractType> >::__throw_length_error[abi:ne180000]() const
FUNC 86dcc ba 0 std::__ndk1::__tree<std::__ndk1::__value_type<std::__ndk1::basic_string<char, std::__ndk1::char_traits<char>, std::__ndk1::allocator<char> >, std::__ndk1::shared_ptr<geode::Hook> >, std::__ndk1::__map_value_compare<std::__ndk1::basic_string<char, std::__ndk1::char_traits<char>, std::__ndk1::allocator<char> >, std::__ndk1::__value_type<std::__ndk1::basic_string<char, std::__ndk1::char_traits<char>, std::__ndk1::allocator<char> >, std::__ndk1::shared_ptr<geode::Hook> >, std::__ndk1::less<std::__ndk1::basic_string<char, std::__ndk1::char_traits<char>, std::__ndk1::allocator<char> > >, true>, std::__ndk1::allocator<std::__ndk1::__value_type<std::__ndk1::basic_string<char, std::__ndk1::char_traits<char>, std::__ndk1::allocator<char> >, std::__ndk1::shared_ptr<geode::Hook> > > >::__find_equal<std::__ndk1::basic_string<char, std::__ndk1::char_traits<char>, std::__ndk1::allocator<char> > >(std::__ndk1::__tree_end_node<std::__ndk1::__tree_node_base<void*>*>*&, std::__ndk1::basic_string<char, std::__ndk1::char_traits<char>, std::__ndk1::allocator<char> > const&)
FUNC 86e86 14a 0 std::__ndk1::__tree_balance_after_insert[abi:ne180000]<std::__ndk1::__tree_node_base<void*>*>(std::__ndk1::__tree_node_base<void*>*, std::__ndk1::__tree_node_base<void*>*)
FUNC 86fd0 6dc 0 geodeExecFunction48<(anonymous namespace)::ExecFuncUnique48>()::{lambda(QOLModExt::PushWindowEvent*)#1}::__invoke(QOLModExt::PushWindowEvent*)
FUNC 876ac 10 0 std::__ndk1::vector<Window*, std::__ndk1::allocator<Window*> >::__throw_length_error[abi:ne180000]() const
FUNC 876bc 4 0 geode::EventListener<geode::EventFilter<QOLModExt::PushWindowEvent> >::getPool() const
FUNC 876c0 e0 0 geode::EventListener<geode::EventFilter<QOLModExt::PushWindowEvent> >::handle(geode::Event*)
FUNC 877a0 38 0 geode::EventListener<geode::EventFilter<QOLModExt::PushWindowEvent> >::~EventListener()
FUNC 877d8 3c 0 geode::EventListener<geode::EventFilter<QOLModExt::PushWindowEvent> >::~EventListener()
FUNC 87814 2 0 std::__ndk1::__function::__base<geode::ListenerResult(QOLModExt::PushWindowEvent*)>::~__base()
FUNC 87816 4 0 std::__ndk1::__function::__func<geode::ListenerResult (*)(QOLModExt::PushWindowEvent*), std::__ndk1::allocator<geode::ListenerResult (*)(QOLModExt::PushWindowEvent*)>, geode::ListenerResult(QOLModExt::PushWindowEvent*)>::~__func()
FUNC 8781c 20 0 std::__ndk1::__function::__func<geode::ListenerResult (*)(QOLModExt::PushWindowEvent*), std::__ndk1::allocator<geode::ListenerResult (*)(QOLModExt::PushWindowEvent*)>, geode::ListenerResult(QOLModExt::PushWindowEvent*)>::__clone() const
FUNC 8783c 14 0 std::__ndk1::__function::__func<geode::ListenerResult (*)(QOLModExt::PushWindowEvent*), std::__ndk1::allocator<geode::ListenerResult (*)(QOLModExt::PushWindowEvent*)>, geode::ListenerResult(QOLModExt::PushWindowEvent*)>::__clone(std::__ndk1::__function::__base<geode::ListenerResult(QOLModExt::PushWindowEvent*)>*) const
FUNC 87850 2 0 std::__ndk1::__function::__func<geode::ListenerResult (*)(QOLModExt::PushWindowEvent*), std::__ndk1::allocator<geode::ListenerResult (*)(QOLModExt::PushWindowEvent*)>, geode::ListenerResult(QOLModExt::PushWindowEvent*)>::destroy()
FUNC 87852 4 0 std::__ndk1::__function::__func<geode::ListenerResult (*)(QOLModExt::PushWindowEvent*), std::__ndk1::allocator<geode::ListenerResult (*)(QOLModExt::PushWindowEvent*)>, geode::ListenerResult(QOLModExt::PushWindowEvent*)>::destroy_deallocate()
FUNC 87856 8 0 std::__ndk1::__function::__func<geode::ListenerResult (*)(QOLModExt::PushWindowEvent*), std::__ndk1::allocator<geode::ListenerResult (*)(QOLModExt::PushWindowEvent*)>, geode::ListenerResult(QOLModExt::PushWindowEvent*)>::operator()(QOLModExt::PushWindowEvent*&&)
FUNC 87860 18 0 std::__ndk1::__function::__func<geode::ListenerResult (*)(QOLModExt::PushWindowEvent*), std::__ndk1::allocator<geode::ListenerResult (*)(QOLModExt::PushWindowEvent*)>, geode::ListenerResult(QOLModExt::PushWindowEvent*)>::target(std::type_info const&) const
FUNC 87878 c 0 std::__ndk1::__function::__func<geode::ListenerResult (*)(QOLModExt::PushWindowEvent*), std::__ndk1::allocator<geode::ListenerResult (*)(QOLModExt::PushWindowEvent*)>, geode::ListenerResult(QOLModExt::PushWindowEvent*)>::target_type() const
FUNC 87884 8c 0 geode::cast::traverseTypeinfoFor(void*, geode::cast::ClassTypeinfoType const*, char const*)
FUNC 87910 34 0 std::__ndk1::__throw_bad_function_call[abi:ne180000]()
FUNC 87944 10 0 std::__ndk1::bad_function_call::~bad_function_call()
FUNC 87954 80 0 geodeExecFunction48<(anonymous namespace)::ExecFuncUnique48>()::{lambda(QOLModExt::ToggleModuleEvent*)#1}::__invoke(QOLModExt::ToggleModuleEvent*)
FUNC 879d4 4 0 geode::EventListener<geode::EventFilter<QOLModExt::ToggleModuleEvent> >::getPool() const
FUNC 879d8 e0 0 geode::EventListener<geode::EventFilter<QOLModExt::ToggleModuleEvent> >::handle(geode::Event*)
FUNC 87ab8 38 0 geode::EventListener<geode::EventFilter<QOLModExt::ToggleModuleEvent> >::~EventListener()
FUNC 87af0 3c 0 geode::EventListener<geode::EventFilter<QOLModExt::ToggleModuleEvent> >::~EventListener()
FUNC 87b2c 2 0 std::__ndk1::__function::__base<geode::ListenerResult(QOLModExt::ToggleModuleEvent*)>::~__base()
FUNC 87b2e 4 0 std::__ndk1::__function::__func<geode::ListenerResult (*)(QOLModExt::ToggleModuleEvent*), std::__ndk1::allocator<geode::ListenerResult (*)(QOLModExt::ToggleModuleEvent*)>, geode::ListenerResult(QOLModExt::ToggleModuleEvent*)>::~__func()
FUNC 87b34 20 0 std::__ndk1::__function::__func<geode::ListenerResult (*)(QOLModExt::ToggleModuleEvent*), std::__ndk1::allocator<geode::ListenerResult (*)(QOLModExt::ToggleModuleEvent*)>, geode::ListenerResult(QOLModExt::ToggleModuleEvent*)>::__clone() const
FUNC 87b54 14 0 std::__ndk1::__function::__func<geode::ListenerResult (*)(QOLModExt::ToggleModuleEvent*), std::__ndk1::allocator<geode::ListenerResult (*)(QOLModExt::ToggleModuleEvent*)>, geode::ListenerResult(QOLModExt::ToggleModuleEvent*)>::__clone(std::__ndk1::__function::__base<geode::ListenerResult(QOLModExt::ToggleModuleEvent*)>*) const
FUNC 87b68 2 0 std::__ndk1::__function::__func<geode::ListenerResult (*)(QOLModExt::ToggleModuleEvent*), std::__ndk1::allocator<geode::ListenerResult (*)(QOLModExt::ToggleModuleEvent*)>, geode::ListenerResult(QOLModExt::ToggleModuleEvent*)>::destroy()
FUNC 87b6a 4 0 std::__ndk1::__function::__func<geode::ListenerResult (*)(QOLModExt::ToggleModuleEvent*), std::__ndk1::allocator<geode::ListenerResult (*)(QOLModExt::ToggleModuleEvent*)>, geode::ListenerResult(QOLModExt::ToggleModuleEvent*)>::destroy_deallocate()
FUNC 87b6e 8 0 std::__ndk1::__function::__func<geode::ListenerResult (*)(QOLModExt::ToggleModuleEvent*), std::__ndk1::allocator<geode::ListenerResult (*)(QOLModExt::ToggleModuleEvent*)>, geode::ListenerResult(QOLModExt::ToggleModuleEvent*)>::operator()(QOLModExt::ToggleModuleEvent*&&)
FUNC 87b78 18 0 std::__ndk1::__function::__func<geode::ListenerResult (*)(QOLModExt::ToggleModuleEvent*), std::__ndk1::allocator<geode::ListenerResult (*)(QOLModExt::ToggleModuleEvent*)>, geode::ListenerResult(QOLModExt::ToggleModuleEvent*)>::target(std::type_info const&) const
FUNC 87b90 c 0 std::__ndk1::__function::__func<geode::ListenerResult (*)(QOLModExt::ToggleModuleEvent*), std::__ndk1::allocator<geode::ListenerResult (*)(QOLModExt::ToggleModuleEvent*)>, geode::ListenerResult(QOLModExt::ToggleModuleEvent*)>::target_type() const
FUNC 87b9c 13c 0 geodeExecFunction48<(anonymous namespace)::ExecFuncUnique48>()::{lambda(QOLModExt::CommentEmojisOverrideLabelCreatePrivateEventPleaseDoNotUseOrIWillTouchYou*)#1}::__invoke(QOLModExt::CommentEmojisOverrideLabelCreatePrivateEventPleaseDoNotUseOrIWillTouchYou*)
FUNC 87cd8 4 0 geode::EventListener<geode::EventFilter<QOLModExt::CommentEmojisOverrideLabelCreatePrivateEventPleaseDoNotUseOrIWillTouchYou> >::getPool() const
FUNC 87cdc e0 0 geode::EventListener<geode::EventFilter<QOLModExt::CommentEmojisOverrideLabelCreatePrivateEventPleaseDoNotUseOrIWillTouchYou> >::handle(geode::Event*)
FUNC 87dbc 38 0 geode::EventListener<geode::EventFilter<QOLModExt::CommentEmojisOverrideLabelCreatePrivateEventPleaseDoNotUseOrIWillTouchYou> >::~EventListener()
FUNC 87df4 3c 0 geode::EventListener<geode::EventFilter<QOLModExt::CommentEmojisOverrideLabelCreatePrivateEventPleaseDoNotUseOrIWillTouchYou> >::~EventListener()
FUNC 87e30 2 0 std::__ndk1::__function::__base<geode::ListenerResult(QOLModExt::CommentEmojisOverrideLabelCreatePrivateEventPleaseDoNotUseOrIWillTouchYou*)>::~__base()
FUNC 87e32 4 0 std::__ndk1::__function::__func<geode::ListenerResult (*)(QOLModExt::CommentEmojisOverrideLabelCreatePrivateEventPleaseDoNotUseOrIWillTouchYou*), std::__ndk1::allocator<geode::ListenerResult (*)(QOLModExt::CommentEmojisOverrideLabelCreatePrivateEventPleaseDoNotUseOrIWillTouchYou*)>, geode::ListenerResult(QOLModExt::CommentEmojisOverrideLabelCreatePrivateEventPleaseDoNotUseOrIWillTouchYou*)>::~__func()
FUNC 87e38 20 0 std::__ndk1::__function::__func<geode::ListenerResult (*)(QOLModExt::CommentEmojisOverrideLabelCreatePrivateEventPleaseDoNotUseOrIWillTouchYou*), std::__ndk1::allocator<geode::ListenerResult (*)(QOLModExt::CommentEmojisOverrideLabelCreatePrivateEventPleaseDoNotUseOrIWillTouchYou*)>, geode::ListenerResult(QOLModExt::CommentEmojisOverrideLabelCreatePrivateEventPleaseDoNotUseOrIWillTouchYou*)>::__clone() const
FUNC 87e58 14 0 std::__ndk1::__function::__func<geode::ListenerResult (*)(QOLModExt::CommentEmojisOverrideLabelCreatePrivateEventPleaseDoNotUseOrIWillTouchYou*), std::__ndk1::allocator<geode::ListenerResult (*)(QOLModExt::CommentEmojisOverrideLabelCreatePrivateEventPleaseDoNotUseOrIWillTouchYou*)>, geode::ListenerResult(QOLModExt::CommentEmojisOverrideLabelCreatePrivateEventPleaseDoNotUseOrIWillTouchYou*)>::__clone(std::__ndk1::__function::__base<geode::ListenerResult(QOLModExt::CommentEmojisOverrideLabelCreatePrivateEventPleaseDoNotUseOrIWillTouchYou*)>*) const
FUNC 87e6c 2 0 std::__ndk1::__function::__func<geode::ListenerResult (*)(QOLModExt::CommentEmojisOverrideLabelCreatePrivateEventPleaseDoNotUseOrIWillTouchYou*), std::__ndk1::allocator<geode::ListenerResult (*)(QOLModExt::CommentEmojisOverrideLabelCreatePrivateEventPleaseDoNotUseOrIWillTouchYou*)>, geode::ListenerResult(QOLModExt::CommentEmojisOverrideLabelCreatePrivateEventPleaseDoNotUseOrIWillTouchYou*)>::destroy()
FUNC 87e6e 4 0 std::__ndk1::__function::__func<geode::ListenerResult (*)(QOLModExt::CommentEmojisOverrideLabelCreatePrivateEventPleaseDoNotUseOrIWillTouchYou*), std::__ndk1::allocator<geode::ListenerResult (*)(QOLModExt::CommentEmojisOverrideLabelCreatePrivateEventPleaseDoNotUseOrIWillTouchYou*)>, geode::ListenerResult(QOLModExt::CommentEmojisOverrideLabelCreatePrivateEventPleaseDoNotUseOrIWillTouchYou*)>::destroy_deallocate()
FUNC 87e72 8 0 std::__ndk1::__function::__func<geode::ListenerResult (*)(QOLModExt::CommentEmojisOverrideLabelCreatePrivateEventPleaseDoNotUseOrIWillTouchYou*), std::__ndk1::allocator<geode::ListenerResult (*)(QOLModExt::CommentEmojisOverrideLabelCreatePrivateEventPleaseDoNotUseOrIWillTouchYou*)>, geode::ListenerResult(QOLModExt::CommentEmojisOverrideLabelCreatePrivateEventPleaseDoNotUseOrIWillTouchYou*)>::operator()(QOLModExt::CommentEmojisOverrideLabelCreatePrivateEventPleaseDoNotUseOrIWillTouchYou*&&)
FUNC 87e7c 18 0 std::__ndk1::__function::__func<geode::ListenerResult (*)(QOLModExt::CommentEmojisOverrideLabelCreatePrivateEventPleaseDoNotUseOrIWillTouchYou*), std::__ndk1::allocator<geode::ListenerResult (*)(QOLModExt::CommentEmojisOverrideLabelCreatePrivateEventPleaseDoNotUseOrIWillTouchYou*)>, geode::ListenerResult(QOLModExt::CommentEmojisOverrideLabelCreatePrivateEventPleaseDoNotUseOrIWillTouchYou*)>::target(std::type_info const&) const
FUNC 87e94 c 0 std::__ndk1::__function::__func<geode::ListenerResult (*)(QOLModExt::CommentEmojisOverrideLabelCreatePrivateEventPleaseDoNotUseOrIWillTouchYou*), std::__ndk1::allocator<geode::ListenerResult (*)(QOLModExt::CommentEmojisOverrideLabelCreatePrivateEventPleaseDoNotUseOrIWillTouchYou*)>, geode::ListenerResult(QOLModExt::CommentEmojisOverrideLabelCreatePrivateEventPleaseDoNotUseOrIWillTouchYou*)>::target_type() const
FUNC 87ea0 f4 0 _GLOBAL__sub_I_QOLModExt.cpp
FUNC 87f94 54 0 __cxx_global_var_init.29
FUNC 87fe8 1e 0 std::__ndk1::vector<TransLabelBMFont*, std::__ndk1::allocator<TransLabelBMFont*> >::~vector[abi:ne180000]()
FUNC 88008 54 0 __cxx_global_var_init.30
FUNC 8805c 1e 0 std::__ndk1::vector<cocos2d::CCNode*, std::__ndk1::allocator<cocos2d::CCNode*> >::~vector[abi:ne180000]()
FUNC 8807c 58 0 __cxx_global_var_init.31
FUNC 880d4 16 0 geode::Ref<cocos2d::CCSprite>::~Ref()
FUNC 880ec 54 0 __cxx_global_var_init.32
FUNC 88140 1e 0 std::__ndk1::vector<cocos2d::extension::CCScale9Sprite*, std::__ndk1::allocator<cocos2d::extension::CCScale9Sprite*> >::~vector[abi:ne180000]()
FUNC 88160 54 0 __cxx_global_var_init.33
FUNC 881b4 1e 0 std::__ndk1::vector<CCMenuItemSpriteExtra*, std::__ndk1::allocator<CCMenuItemSpriteExtra*> >::~vector[abi:ne180000]()
FUNC 881d4 54 0 __cxx_global_var_init.34
FUNC 88228 54 0 __cxx_global_var_init.35
FUNC 8827c 3e 0 std::__ndk1::vector<std::__ndk1::vector<cocos2d::CCNode*, std::__ndk1::allocator<cocos2d::CCNode*> >, std::__ndk1::allocator<std::__ndk1::vector<cocos2d::CCNode*, std::__ndk1::allocator<cocos2d::CCNode*> > > >::~vector[abi:ne180000]()
FUNC 882bc 94 0 __cxx_global_var_init.36
FUNC 88350 244 0 AndroidBall::init()
FUNC 88594 808 0 AndroidBall::UpdateVisible(bool)
FUNC 88d9c 15c 0 AndroidBall::_ccTouchBegan(cocos2d::CCTouch*, cocos2d::CCEvent*)
FUNC 88ef8 15c 0 AndroidBall::_ccTouchEnded(cocos2d::CCTouch*, cocos2d::CCEvent*)
FUNC 89054 20 0 geode::Mod::get<void>()
FUNC 89074 88 0 geode::Mod::setSavedValue<float>(std::__ndk1::basic_string_view<char, std::__ndk1::char_traits<char> >, float const&)
FUNC 890fc e8 0 AndroidBall::_ccTouchMoved(cocos2d::CCTouch*, cocos2d::CCEvent*)
FUNC 891e4 6 0 AndroidBall::update(float)
FUNC 891ec e0 0 cocos2d::CCNode::getChildByType<PauseLayer, PauseLayer>(int)
FUNC 892cc e0 0 cocos2d::CCNode::getChildByType<LevelEditorLayer, LevelEditorLayer>(int)
FUNC 893ac 138 0 geode::Mod::getSavedValue<int>(std::__ndk1::basic_string_view<char, std::__ndk1::char_traits<char> >, int const&)
FUNC 894e4 5c 0 AndroidBall::~AndroidBall()
FUNC 89540 60 0 {virtual override thunk({offset(-264)}, AndroidBall::~AndroidBall())}
FUNC 895a0 60 0 AndroidBall::~AndroidBall()
FUNC 89600 64 0 {virtual override thunk({offset(-264)}, AndroidBall::~AndroidBall())}
FUNC 89664 148 0 geode::Mod::getSavedValue<bool>(std::__ndk1::basic_string_view<char, std::__ndk1::char_traits<char> >, bool const&)
FUNC 897ac 16c 0 AndroidBall::setColonThreeEnabled()
FUNC 89918 80 0 geode::Mod::setSavedValue<bool>(std::__ndk1::basic_string_view<char, std::__ndk1::char_traits<char> >, bool const&)
FUNC 89998 78 0 QOLModTouchDispatcher::touches(cocos2d::CCSet*, cocos2d::CCEvent*, unsigned int)
FUNC 89a10 4 0 cocos2d::CCCopying::copyWithZone(cocos2d::CCZone*)
FUNC 89a14 2 0 cocos2d::CCKeyboardDelegate::keyUp(cocos2d::enumKeyCodes)
FUNC 89a16 2 0 cocos2d::CCMouseDelegate::rightKeyDown()
FUNC 89a18 2 0 cocos2d::CCMouseDelegate::rightKeyUp()
FUNC 89a1a 2 0 cocos2d::CCMouseDelegate::scrollWheel(float, float)
FUNC 89a1c 4c 0 __cxx_global_var_init.50
FUNC 89a68 20 0 geode::modifier::ModifyBase<geode::modifier::ModifyDerive<SafePlayLayer, PlayLayer> >::~ModifyBase()
FUNC 89a88 4c 0 __cxx_global_var_init.51
FUNC 89ad4 20 0 geode::modifier::ModifyBase<geode::modifier::ModifyDerive<SafeGJGameLevel, GJGameLevel> >::~ModifyBase()
FUNC 89af4 4c 0 __cxx_global_var_init.52
FUNC 89b40 20 0 geode::modifier::ModifyBase<geode::modifier::ModifyDerive<SafeEndLevelLayer, EndLevelLayer> >::~ModifyBase()
FUNC 89b60 4c 0 __cxx_global_var_init.53
FUNC 89bac 20 0 geode::modifier::ModifyBase<geode::modifier::ModifyDerive<QOLModTouchDispatcher, cocos2d::CCTouchDispatcher> >::~ModifyBase()
FUNC 89bcc 2d0 0 __cxx_global_var_init.54
FUNC 89e9c 2d0 0 __cxx_global_var_init.55
FUNC 8a16c 20 0 geode::modifier::ModifyBase<geode::modifier::ModifyDerive<hook270<(anonymous namespace)::hook270Parent>, cocos2d::CCScene> >::~ModifyBase()
FUNC 8a18c 20 0 geode::modifier::ModifyBase<geode::modifier::ModifyDerive<hook290<(anonymous namespace)::hook290Parent>, AppDelegate> >::~ModifyBase()
FUNC 8a1ac 118 0 ColourUtility::hsvToRgb(cocos2d::_ccHSVValue const&)
FUNC 8a2c4 5c 0 std::__ndk1::unique_ptr<std::__ndk1::__tree_node<std::__ndk1::__value_type<std::__ndk1::basic_string<char, std::__ndk1::char_traits<char>, std::__ndk1::allocator<char> >, std::__ndk1::shared_ptr<geode::Hook> >, void*>, std::__ndk1::__tree_node_destructor<std::__ndk1::allocator<std::__ndk1::__tree_node<std::__ndk1::__value_type<std::__ndk1::basic_string<char, std::__ndk1::char_traits<char>, std::__ndk1::allocator<char> >, std::__ndk1::shared_ptr<geode::Hook> >, void*> > > >::~unique_ptr[abi:ne180000]()
FUNC 8a320 29c 0 geode::modifier::ModifyBase<geode::modifier::ModifyDerive<SafePlayLayer, PlayLayer> >::ModifyBase()
FUNC 8a5bc 874 0 geode::modifier::ModifyDerive<SafePlayLayer, PlayLayer>::apply()
FUNC 8ae30 2 0 geode::modifier::ModifyBase<geode::modifier::ModifyDerive<SafePlayLayer, PlayLayer> >::apply()
FUNC 8ae34 b0 0 geode::Hook::create<bool (*)(SafePlayLayer*, GJGameLevel*, bool, bool)>(void*, bool (*)(SafePlayLayer*, GJGameLevel*, bool, bool), std::__ndk1::basic_string<char, std::__ndk1::char_traits<char>, std::__ndk1::allocator<char> > const&, tulip::hook::TulipConvention, tulip::hook::HookMetadata const&)
FUNC 8aee4 4 0 geode::modifier::AsStaticFunction_init<SafePlayLayer, bool (SafePlayLayer::*)(GJGameLevel*, bool, bool)>::Impl<bool (SafePlayLayer::*)(GJGameLevel*, bool, bool)>::function(SafePlayLayer*, GJGameLevel*, bool, bool)
FUNC 8aee8 cc 0 geode::Hook::create<void (*)(SafePlayLayer*)>(void*, void (*)(SafePlayLayer*), std::__ndk1::basic_string<char, std::__ndk1::char_traits<char>, std::__ndk1::allocator<char> > const&, tulip::hook::TulipConvention, tulip::hook::HookMetadata const&)
FUNC 8afb4 4 0 geode::modifier::AsStaticFunction_levelComplete<SafePlayLayer, void (SafePlayLayer::*)()>::Impl<void (SafePlayLayer::*)()>::function(SafePlayLayer*)
FUNC 8afb8 54 0 geode::modifier::AsStaticFunction_resetLevel<SafePlayLayer, void (SafePlayLayer::*)()>::Impl<void (SafePlayLayer::*)()>::function(SafePlayLayer*)
FUNC 8b00c b0 0 geode::Hook::create<void (*)(SafePlayLayer*, bool, int, int, bool, bool, bool)>(void*, void (*)(SafePlayLayer*, bool, int, int, bool, bool, bool), std::__ndk1::basic_string<char, std::__ndk1::char_traits<char>, std::__ndk1::allocator<char> > const&, tulip::hook::TulipConvention, tulip::hook::HookMetadata const&)
FUNC 8b0bc 1a 0 geode::modifier::AsStaticFunction_showNewBest<SafePlayLayer, void (SafePlayLayer::*)(bool, int, int, bool, bool, bool)>::Impl<void (SafePlayLayer::*)(bool, int, int, bool, bool, bool)>::function(SafePlayLayer*, bool, int, int, bool, bool, bool)
FUNC 8b0e0 260 0 tulip::hook::AbstractFunction::from<bool, SafePlayLayer*, GJGameLevel*, bool, bool>(bool (*)(SafePlayLayer*, GJGameLevel*, bool, bool))
FUNC 8b340 570 0 tulip::hook::AbstractFunction::from<void, SafePlayLayer*, bool, int, int, bool, bool, bool>(void (*)(SafePlayLayer*, bool, int, int, bool, bool, bool))
FUNC 8b8b0 29c 0 geode::modifier::ModifyBase<geode::modifier::ModifyDerive<SafeGJGameLevel, GJGameLevel> >::ModifyBase()
FUNC 8bb4c 264 0 geode::modifier::ModifyDerive<SafeGJGameLevel, GJGameLevel>::apply()
FUNC 8bdb0 2 0 geode::modifier::ModifyBase<geode::modifier::ModifyDerive<SafeGJGameLevel, GJGameLevel> >::apply()
FUNC 8bdb4 b0 0 geode::Hook::create<void (*)(SafeGJGameLevel*, int, bool, int, int, bool)>(void*, void (*)(SafeGJGameLevel*, int, bool, int, int, bool), std::__ndk1::basic_string<char, std::__ndk1::char_traits<char>, std::__ndk1::allocator<char> > const&, tulip::hook::TulipConvention, tulip::hook::HookMetadata const&)
FUNC 8be64 16 0 geode::modifier::AsStaticFunction_savePercentage<SafeGJGameLevel, void (SafeGJGameLevel::*)(int, bool, int, int, bool)>::Impl<void (SafeGJGameLevel::*)(int, bool, int, int, bool)>::function(SafeGJGameLevel*, int, bool, int, int, bool)
FUNC 8be80 470 0 tulip::hook::AbstractFunction::from<void, SafeGJGameLevel*, int, bool, int, int, bool>(void (*)(SafeGJGameLevel*, int, bool, int, int, bool))
FUNC 8c2f0 29c 0 geode::modifier::ModifyBase<geode::modifier::ModifyDerive<SafeEndLevelLayer, EndLevelLayer> >::ModifyBase()
FUNC 8c58c 260 0 geode::modifier::ModifyDerive<SafeEndLevelLayer, EndLevelLayer>::apply()
FUNC 8c7ec 2 0 geode::modifier::ModifyBase<geode::modifier::ModifyDerive<SafeEndLevelLayer, EndLevelLayer> >::apply()
FUNC 8c7ee 44 0 geode::addresser::getVirtual<void (EndLevelLayer::*)()>(void (EndLevelLayer::*)())
FUNC 8c834 cc 0 geode::Hook::create<void (*)(SafeEndLevelLayer*)>(void*, void (*)(SafeEndLevelLayer*), std::__ndk1::basic_string<char, std::__ndk1::char_traits<char>, std::__ndk1::allocator<char> > const&, tulip::hook::TulipConvention, tulip::hook::HookMetadata const&)
FUNC 8c900 4 0 geode::modifier::AsStaticFunction_customSetup<SafeEndLevelLayer, void (SafeEndLevelLayer::*)()>::Impl<void (SafeEndLevelLayer::*)()>::function(SafeEndLevelLayer*)
FUNC 8c904 6c 0 _ZN5geode9addresser9Addresser14cachedInstanceI13EndLevelLayerEEPT_vQ18HasZeroConstructorIS4_E
FUNC 8c970 84 0 EndLevelLayer::EndLevelLayer(geode::ZeroConstructorType)
FUNC 8c9f4 110 0 geode::Mod::getSavedValue<bool>(std::__ndk1::basic_string_view<char, std::__ndk1::char_traits<char> >)
FUNC 8cb04 60 0 geode::impl::ResultData<matjson::Value&, std::__ndk1::basic_string<char, std::__ndk1::char_traits<char>, std::__ndk1::allocator<char> > >::~ResultData()
FUNC 8cb64 104 0 _ZN5geode15UnwrapExceptionC2IRNSt6__ndk112basic_stringIcNS2_11char_traitsIcEENS2_9allocatorIcEEEEQsr4implE18IsStringStreamableIT_EEENS_4impl6ErrTagEOSA_
FUNC 8cc68 2 0 std::__ndk1::__variant_detail::__visitation::__base::__dispatcher<(unsigned int)0>::__dispatch[abi:ne180000]<std::__ndk1::__variant_detail::__dtor<std::__ndk1::__variant_detail::__traits<std::__ndk1::reference_wrapper<matjson::Value>, std::__ndk1::basic_string<char, std::__ndk1::char_traits<char>, std::__ndk1::allocator<char> > >, (std::__ndk1::__variant_detail::_Trait)1>::__destroy[abi:ne180000]()::{lambda(auto:1&)#1}, std::__ndk1::__variant_detail::__base<(std::__ndk1::__variant_detail::__traits<std::__ndk1::reference_wrapper<matjson::Value>, std::__ndk1::basic_string<char, std::__ndk1::char_traits<char>, std::__ndk1::allocator<char> > >)1, matjson::Value, std::__ndk1::allocator<char> >&>(std::__ndk1::__variant_detail::__dtor<std::__ndk1::__variant_detail::__traits<std::__ndk1::reference_wrapper<matjson::Value>, std::__ndk1::basic_string<char, std::__ndk1::char_traits<char>, std::__ndk1::allocator<char> > >, (std::__ndk1::__variant_detail::_Trait)1>, std::__ndk1::__variant_detail::__base<(std::__ndk1::__variant_detail::__traits<std::__ndk1::reference_wrapper<matjson::Value>, std::__ndk1::basic_string<char, std::__ndk1::char_traits<char>, std::__ndk1::allocator<char> > >)1, matjson::Value, std::__ndk1::allocator<char> >&)
FUNC 8cc6a e 0 std::__ndk1::__variant_detail::__visitation::__base::__dispatcher<(unsigned int)1>::__dispatch[abi:ne180000]<std::__ndk1::__variant_detail::__dtor<std::__ndk1::__variant_detail::__traits<std::__ndk1::reference_wrapper<matjson::Value>, std::__ndk1::basic_string<char, std::__ndk1::char_traits<char>, std::__ndk1::allocator<char> > >, (std::__ndk1::__variant_detail::_Trait)1>::__destroy[abi:ne180000]()::{lambda(auto:1&)#1}, std::__ndk1::__variant_detail::__base<(std::__ndk1::__variant_detail::__traits<std::__ndk1::reference_wrapper<matjson::Value>, std::__ndk1::basic_string<char, std::__ndk1::char_traits<char>, std::__ndk1::allocator<char> > >)1, matjson::Value, std::__ndk1::allocator<char> >&>(std::__ndk1::__variant_detail::__dtor<std::__ndk1::__variant_detail::__traits<std::__ndk1::reference_wrapper<matjson::Value>, std::__ndk1::basic_string<char, std::__ndk1::char_traits<char>, std::__ndk1::allocator<char> > >, (std::__ndk1::__variant_detail::_Trait)1>, std::__ndk1::__variant_detail::__base<(std::__ndk1::__variant_detail::__traits<std::__ndk1::reference_wrapper<matjson::Value>, std::__ndk1::basic_string<char, std::__ndk1::char_traits<char>, std::__ndk1::allocator<char> > >)1, matjson::Value, std::__ndk1::allocator<char> >&)
FUNC 8cc78 2 0 std::__ndk1::__variant_detail::__visitation::__base::__dispatcher<(unsigned int)0>::__dispatch[abi:ne180000]<std::__ndk1::__variant_detail::__dtor<std::__ndk1::__variant_detail::__traits<bool, std::__ndk1::basic_string<char, std::__ndk1::char_traits<char>, std::__ndk1::allocator<char> > >, (std::__ndk1::__variant_detail::_Trait)1>::__destroy[abi:ne180000]()::{lambda(auto:1&)#1}, std::__ndk1::__variant_detail::__base<(std::__ndk1::__variant_detail::__traits<bool, std::__ndk1::basic_string<char, std::__ndk1::char_traits<char>, std::__ndk1::allocator<char> > >)1, bool, std::__ndk1::allocator<char> >&>(std::__ndk1::__variant_detail::__dtor<std::__ndk1::__variant_detail::__traits<bool, std::__ndk1::basic_string<char, std::__ndk1::char_traits<char>, std::__ndk1::allocator<char> > >, (std::__ndk1::__variant_detail::_Trait)1>, std::__ndk1::__variant_detail::__base<(std::__ndk1::__variant_detail::__traits<bool, std::__ndk1::basic_string<char, std::__ndk1::char_traits<char>, std::__ndk1::allocator<char> > >)1, bool, std::__ndk1::allocator<char> >&)
FUNC 8cc7a e 0 std::__ndk1::__variant_detail::__visitation::__base::__dispatcher<(unsigned int)1>::__dispatch[abi:ne180000]<std::__ndk1::__variant_detail::__dtor<std::__ndk1::__variant_detail::__traits<bool, std::__ndk1::basic_string<char, std::__ndk1::char_traits<char>, std::__ndk1::allocator<char> > >, (std::__ndk1::__variant_detail::_Trait)1>::__destroy[abi:ne180000]()::{lambda(auto:1&)#1}, std::__ndk1::__variant_detail::__base<(std::__ndk1::__variant_detail::__traits<bool, std::__ndk1::basic_string<char, std::__ndk1::char_traits<char>, std::__ndk1::allocator<char> > >)1, bool, std::__ndk1::allocator<char> >&>(std::__ndk1::__variant_detail::__dtor<std::__ndk1::__variant_detail::__traits<bool, std::__ndk1::basic_string<char, std::__ndk1::char_traits<char>, std::__ndk1::allocator<char> > >, (std::__ndk1::__variant_detail::_Trait)1>, std::__ndk1::__variant_detail::__base<(std::__ndk1::__variant_detail::__traits<bool, std::__ndk1::basic_string<char, std::__ndk1::char_traits<char>, std::__ndk1::allocator<char> > >)1, bool, std::__ndk1::allocator<char> >&)
FUNC 8cc88 c0 0 matjson::Value::as<int>() const
FUNC 8cd48 2 0 std::__ndk1::__variant_detail::__visitation::__base::__dispatcher<(unsigned int)0>::__dispatch[abi:ne180000]<std::__ndk1::__variant_detail::__dtor<std::__ndk1::__variant_detail::__traits<long long, std::__ndk1::basic_string<char, std::__ndk1::char_traits<char>, std::__ndk1::allocator<char> > >, (std::__ndk1::__variant_detail::_Trait)1>::__destroy[abi:ne180000]()::{lambda(auto:1&)#1}, std::__ndk1::__variant_detail::__base<(std::__ndk1::__variant_detail::__traits<long long, std::__ndk1::basic_string<char, std::__ndk1::char_traits<char>, std::__ndk1::allocator<char> > >)1, long long, std::__ndk1::allocator<char> >&>(std::__ndk1::__variant_detail::__dtor<std::__ndk1::__variant_detail::__traits<long long, std::__ndk1::basic_string<char, std::__ndk1::char_traits<char>, std::__ndk1::allocator<char> > >, (std::__ndk1::__variant_detail::_Trait)1>, std::__ndk1::__variant_detail::__base<(std::__ndk1::__variant_detail::__traits<long long, std::__ndk1::basic_string<char, std::__ndk1::char_traits<char>, std::__ndk1::allocator<char> > >)1, long long, std::__ndk1::allocator<char> >&)
FUNC 8cd4a e 0 std::__ndk1::__variant_detail::__visitation::__base::__dispatcher<(unsigned int)1>::__dispatch[abi:ne180000]<std::__ndk1::__variant_detail::__dtor<std::__ndk1::__variant_detail::__traits<long long, std::__ndk1::basic_string<char, std::__ndk1::char_traits<char>, std::__ndk1::allocator<char> > >, (std::__ndk1::__variant_detail::_Trait)1>::__destroy[abi:ne180000]()::{lambda(auto:1&)#1}, std::__ndk1::__variant_detail::__base<(std::__ndk1::__variant_detail::__traits<long long, std::__ndk1::basic_string<char, std::__ndk1::char_traits<char>, std::__ndk1::allocator<char> > >)1, long long, std::__ndk1::allocator<char> >&>(std::__ndk1::__variant_detail::__dtor<std::__ndk1::__variant_detail::__traits<long long, std::__ndk1::basic_string<char, std::__ndk1::char_traits<char>, std::__ndk1::allocator<char> > >, (std::__ndk1::__variant_detail::_Trait)1>, std::__ndk1::__variant_detail::__base<(std::__ndk1::__variant_detail::__traits<long long, std::__ndk1::basic_string<char, std::__ndk1::char_traits<char>, std::__ndk1::allocator<char> > >)1, long long, std::__ndk1::allocator<char> >&)
FUNC 8cd58 2 0 std::__ndk1::__variant_detail::__visitation::__base::__dispatcher<(unsigned int)0>::__dispatch[abi:ne180000]<std::__ndk1::__variant_detail::__dtor<std::__ndk1::__variant_detail::__traits<int, std::__ndk1::basic_string<char, std::__ndk1::char_traits<char>, std::__ndk1::allocator<char> > >, (std::__ndk1::__variant_detail::_Trait)1>::__destroy[abi:ne180000]()::{lambda(auto:1&)#1}, std::__ndk1::__variant_detail::__base<(std::__ndk1::__variant_detail::__traits<int, std::__ndk1::basic_string<char, std::__ndk1::char_traits<char>, std::__ndk1::allocator<char> > >)1, int, std::__ndk1::allocator<char> >&>(std::__ndk1::__variant_detail::__dtor<std::__ndk1::__variant_detail::__traits<int, std::__ndk1::basic_string<char, std::__ndk1::char_traits<char>, std::__ndk1::allocator<char> > >, (std::__ndk1::__variant_detail::_Trait)1>, std::__ndk1::__variant_detail::__base<(std::__ndk1::__variant_detail::__traits<int, std::__ndk1::basic_string<char, std::__ndk1::char_traits<char>, std::__ndk1::allocator<char> > >)1, int, std::__ndk1::allocator<char> >&)
FUNC 8cd5a e 0 std::__ndk1::__variant_detail::__visitation::__base::__dispatcher<(unsigned int)1>::__dispatch[abi:ne180000]<std::__ndk1::__variant_detail::__dtor<std::__ndk1::__variant_detail::__traits<int, std::__ndk1::basic_string<char, std::__ndk1::char_traits<char>, std::__ndk1::allocator<char> > >, (std::__ndk1::__variant_detail::_Trait)1>::__destroy[abi:ne180000]()::{lambda(auto:1&)#1}, std::__ndk1::__variant_detail::__base<(std::__ndk1::__variant_detail::__traits<int, std::__ndk1::basic_string<char, std::__ndk1::char_traits<char>, std::__ndk1::allocator<char> > >)1, int, std::__ndk1::allocator<char> >&>(std::__ndk1::__variant_detail::__dtor<std::__ndk1::__variant_detail::__traits<int, std::__ndk1::basic_string<char, std::__ndk1::char_traits<char>, std::__ndk1::allocator<char> > >, (std::__ndk1::__variant_detail::_Trait)1>, std::__ndk1::__variant_detail::__base<(std::__ndk1::__variant_detail::__traits<int, std::__ndk1::basic_string<char, std::__ndk1::char_traits<char>, std::__ndk1::allocator<char> > >)1, int, std::__ndk1::allocator<char> >&)
FUNC 8cd68 2f8 0 geode::modifier::ModifyBase<geode::modifier::ModifyDerive<QOLModTouchDispatcher, cocos2d::CCTouchDispatcher> >::ModifyBase()
FUNC 8d060 274 0 geode::modifier::ModifyDerive<QOLModTouchDispatcher, cocos2d::CCTouchDispatcher>::apply()
FUNC 8d2d4 2 0 geode::modifier::ModifyBase<geode::modifier::ModifyDerive<QOLModTouchDispatcher, cocos2d::CCTouchDispatcher> >::apply()
FUNC 8d2d8 e8 0 geode::modifier::ModifyBase<geode::modifier::ModifyDerive<QOLModTouchDispatcher, cocos2d::CCTouchDispatcher> >::setHookPriority(std::__ndk1::basic_string_view<char, std::__ndk1::char_traits<char> >, int)
FUNC 8d3c0 118 0 geode::modifier::ModifyBase<geode::modifier::ModifyDerive<QOLModTouchDispatcher, cocos2d::CCTouchDispatcher> >::getHook(std::__ndk1::basic_string_view<char, std::__ndk1::char_traits<char> >)
FUNC 8d4d8 c8 0 std::__ndk1::__tree<std::__ndk1::__value_type<std::__ndk1::basic_string<char, std::__ndk1::char_traits<char>, std::__ndk1::allocator<char> >, std::__ndk1::shared_ptr<geode::Hook> >, std::__ndk1::__map_value_compare<std::__ndk1::basic_string<char, std::__ndk1::char_traits<char>, std::__ndk1::allocator<char> >, std::__ndk1::__value_type<std::__ndk1::basic_string<char, std::__ndk1::char_traits<char>, std::__ndk1::allocator<char> >, std::__ndk1::shared_ptr<geode::Hook> >, std::__ndk1::less<std::__ndk1::basic_string<char, std::__ndk1::char_traits<char>, std::__ndk1::allocator<char> > >, true>, std::__ndk1::allocator<std::__ndk1::__value_type<std::__ndk1::basic_string<char, std::__ndk1::char_traits<char>, std::__ndk1::allocator<char> >, std::__ndk1::shared_ptr<geode::Hook> > > >::__emplace_unique_key_args<std::__ndk1::basic_string<char, std::__ndk1::char_traits<char>, std::__ndk1::allocator<char> >, std::__ndk1::piecewise_construct_t const&, std::__ndk1::tuple<std::__ndk1::basic_string<char, std::__ndk1::char_traits<char>, std::__ndk1::allocator<char> > const&>, std::__ndk1::tuple<> >(std::__ndk1::basic_string<char, std::__ndk1::char_traits<char>, std::__ndk1::allocator<char> > const&, std::__ndk1::piecewise_construct_t const&, std::__ndk1::tuple<std::__ndk1::basic_string<char, std::__ndk1::char_traits<char>, std::__ndk1::allocator<char> > const&>, std::__ndk1::tuple<>)
FUNC 8d5a0 2 0 std::__ndk1::__variant_detail::__visitation::__base::__dispatcher<(unsigned int)0>::__dispatch[abi:ne180000]<std::__ndk1::__variant_detail::__dtor<std::__ndk1::__variant_detail::__traits<std::__ndk1::monostate, std::__ndk1::basic_string<char, std::__ndk1::char_traits<char>, std::__ndk1::allocator<char> > >, (std::__ndk1::__variant_detail::_Trait)1>::__destroy[abi:ne180000]()::{lambda(auto:1&)#1}, std::__ndk1::__variant_detail::__base<(std::__ndk1::__variant_detail::__traits<std::__ndk1::monostate, std::__ndk1::basic_string<char, std::__ndk1::char_traits<char>, std::__ndk1::allocator<char> > >)1, std::__ndk1::__variant_detail::__traits, std::__ndk1::allocator<char> >&>(std::__ndk1::__variant_detail::__dtor<std::__ndk1::__variant_detail::__traits<std::__ndk1::monostate, std::__ndk1::basic_string<char, std::__ndk1::char_traits<char>, std::__ndk1::allocator<char> > >, (std::__ndk1::__variant_detail::_Trait)1>, std::__ndk1::__variant_detail::__base<(std::__ndk1::__variant_detail::__traits<std::__ndk1::monostate, std::__ndk1::basic_string<char, std::__ndk1::char_traits<char>, std::__ndk1::allocator<char> > >)1, std::__ndk1::__variant_detail::__traits, std::__ndk1::allocator<char> >&)
FUNC 8d5a2 e 0 std::__ndk1::__variant_detail::__visitation::__base::__dispatcher<(unsigned int)1>::__dispatch[abi:ne180000]<std::__ndk1::__variant_detail::__dtor<std::__ndk1::__variant_detail::__traits<std::__ndk1::monostate, std::__ndk1::basic_string<char, std::__ndk1::char_traits<char>, std::__ndk1::allocator<char> > >, (std::__ndk1::__variant_detail::_Trait)1>::__destroy[abi:ne180000]()::{lambda(auto:1&)#1}, std::__ndk1::__variant_detail::__base<(std::__ndk1::__variant_detail::__traits<std::__ndk1::monostate, std::__ndk1::basic_string<char, std::__ndk1::char_traits<char>, std::__ndk1::allocator<char> > >)1, std::__ndk1::__variant_detail::__traits, std::__ndk1::allocator<char> >&>(std::__ndk1::__variant_detail::__dtor<std::__ndk1::__variant_detail::__traits<std::__ndk1::monostate, std::__ndk1::basic_string<char, std::__ndk1::char_traits<char>, std::__ndk1::allocator<char> > >, (std::__ndk1::__variant_detail::_Trait)1>, std::__ndk1::__variant_detail::__base<(std::__ndk1::__variant_detail::__traits<std::__ndk1::monostate, std::__ndk1::basic_string<char, std::__ndk1::char_traits<char>, std::__ndk1::allocator<char> > >)1, std::__ndk1::__variant_detail::__traits, std::__ndk1::allocator<char> >&)
FUNC 8d5b0 b0 0 geode::Hook::create<void (*)(QOLModTouchDispatcher*, cocos2d::CCSet*, cocos2d::CCEvent*, unsigned int)>(void*, void (*)(QOLModTouchDispatcher*, cocos2d::CCSet*, cocos2d::CCEvent*, unsigned int), std::__ndk1::basic_string<char, std::__ndk1::char_traits<char>, std::__ndk1::allocator<char> > const&, tulip::hook::TulipConvention, tulip::hook::HookMetadata const&)
FUNC 8d660 4 0 geode::modifier::AsStaticFunction_touches<QOLModTouchDispatcher, void (QOLModTouchDispatcher::*)(cocos2d::CCSet*, cocos2d::CCEvent*, unsigned int)>::Impl<void (QOLModTouchDispatcher::*)(cocos2d::CCSet*, cocos2d::CCEvent*, unsigned int)>::function(QOLModTouchDispatcher*, cocos2d::CCSet*, cocos2d::CCEvent*, unsigned int)
FUNC 8d670 260 0 tulip::hook::AbstractFunction::from<void, QOLModTouchDispatcher*, cocos2d::CCSet*, cocos2d::CCEvent*, unsigned int>(void (*)(QOLModTouchDispatcher*, cocos2d::CCSet*, cocos2d::CCEvent*, unsigned int))
FUNC 8d8d0 120 0 geode::Mod::getSavedValue<float>(std::__ndk1::basic_string_view<char, std::__ndk1::char_traits<char> >)
FUNC 8d9f0 c8 0 matjson::Value::as<float>() const
FUNC 8dab8 2 0 std::__ndk1::__variant_detail::__visitation::__base::__dispatcher<(unsigned int)0>::__dispatch[abi:ne180000]<std::__ndk1::__variant_detail::__dtor<std::__ndk1::__variant_detail::__traits<double, std::__ndk1::basic_string<char, std::__ndk1::char_traits<char>, std::__ndk1::allocator<char> > >, (std::__ndk1::__variant_detail::_Trait)1>::__destroy[abi:ne180000]()::{lambda(auto:1&)#1}, std::__ndk1::__variant_detail::__base<(std::__ndk1::__variant_detail::__traits<double, std::__ndk1::basic_string<char, std::__ndk1::char_traits<char>, std::__ndk1::allocator<char> > >)1, double, std::__ndk1::allocator<char> >&>(std::__ndk1::__variant_detail::__dtor<std::__ndk1::__variant_detail::__traits<double, std::__ndk1::basic_string<char, std::__ndk1::char_traits<char>, std::__ndk1::allocator<char> > >, (std::__ndk1::__variant_detail::_Trait)1>, std::__ndk1::__variant_detail::__base<(std::__ndk1::__variant_detail::__traits<double, std::__ndk1::basic_string<char, std::__ndk1::char_traits<char>, std::__ndk1::allocator<char> > >)1, double, std::__ndk1::allocator<char> >&)
FUNC 8daba e 0 std::__ndk1::__variant_detail::__visitation::__base::__dispatcher<(unsigned int)1>::__dispatch[abi:ne180000]<std::__ndk1::__variant_detail::__dtor<std::__ndk1::__variant_detail::__traits<double, std::__ndk1::basic_string<char, std::__ndk1::char_traits<char>, std::__ndk1::allocator<char> > >, (std::__ndk1::__variant_detail::_Trait)1>::__destroy[abi:ne180000]()::{lambda(auto:1&)#1}, std::__ndk1::__variant_detail::__base<(std::__ndk1::__variant_detail::__traits<double, std::__ndk1::basic_string<char, std::__ndk1::char_traits<char>, std::__ndk1::allocator<char> > >)1, double, std::__ndk1::allocator<char> >&>(std::__ndk1::__variant_detail::__dtor<std::__ndk1::__variant_detail::__traits<double, std::__ndk1::basic_string<char, std::__ndk1::char_traits<char>, std::__ndk1::allocator<char> > >, (std::__ndk1::__variant_detail::_Trait)1>, std::__ndk1::__variant_detail::__base<(std::__ndk1::__variant_detail::__traits<double, std::__ndk1::basic_string<char, std::__ndk1::char_traits<char>, std::__ndk1::allocator<char> > >)1, double, std::__ndk1::allocator<char> >&)
FUNC 8dac8 2 0 std::__ndk1::__variant_detail::__visitation::__base::__dispatcher<(unsigned int)0>::__dispatch[abi:ne180000]<std::__ndk1::__variant_detail::__dtor<std::__ndk1::__variant_detail::__traits<float, std::__ndk1::basic_string<char, std::__ndk1::char_traits<char>, std::__ndk1::allocator<char> > >, (std::__ndk1::__variant_detail::_Trait)1>::__destroy[abi:ne180000]()::{lambda(auto:1&)#1}, std::__ndk1::__variant_detail::__base<(std::__ndk1::__variant_detail::__traits<float, std::__ndk1::basic_string<char, std::__ndk1::char_traits<char>, std::__ndk1::allocator<char> > >)1, float, std::__ndk1::allocator<char> >&>(std::__ndk1::__variant_detail::__dtor<std::__ndk1::__variant_detail::__traits<float, std::__ndk1::basic_string<char, std::__ndk1::char_traits<char>, std::__ndk1::allocator<char> > >, (std::__ndk1::__variant_detail::_Trait)1>, std::__ndk1::__variant_detail::__base<(std::__ndk1::__variant_detail::__traits<float, std::__ndk1::basic_string<char, std::__ndk1::char_traits<char>, std::__ndk1::allocator<char> > >)1, float, std::__ndk1::allocator<char> >&)
FUNC 8daca e 0 std::__ndk1::__variant_detail::__visitation::__base::__dispatcher<(unsigned int)1>::__dispatch[abi:ne180000]<std::__ndk1::__variant_detail::__dtor<std::__ndk1::__variant_detail::__traits<float, std::__ndk1::basic_string<char, std::__ndk1::char_traits<char>, std::__ndk1::allocator<char> > >, (std::__ndk1::__variant_detail::_Trait)1>::__destroy[abi:ne180000]()::{lambda(auto:1&)#1}, std::__ndk1::__variant_detail::__base<(std::__ndk1::__variant_detail::__traits<float, std::__ndk1::basic_string<char, std::__ndk1::char_traits<char>, std::__ndk1::allocator<char> > >)1, float, std::__ndk1::allocator<char> >&>(std::__ndk1::__variant_detail::__dtor<std::__ndk1::__variant_detail::__traits<float, std::__ndk1::basic_string<char, std::__ndk1::char_traits<char>, std::__ndk1::allocator<char> > >, (std::__ndk1::__variant_detail::_Trait)1>, std::__ndk1::__variant_detail::__base<(std::__ndk1::__variant_detail::__traits<float, std::__ndk1::basic_string<char, std::__ndk1::char_traits<char>, std::__ndk1::allocator<char> > >)1, float, std::__ndk1::allocator<char> >&)
FUNC 8dad8 2e0 0 geode::modifier::ModifyDerive<hook270<(anonymous namespace)::hook270Parent>, cocos2d::CCScene>::apply()
FUNC 8ddb8 2 0 geode::modifier::ModifyBase<geode::modifier::ModifyDerive<hook270<(anonymous namespace)::hook270Parent>, cocos2d::CCScene> >::apply()
FUNC 8ddbc 54 0 geode::modifier::AsStaticFunction_getHighestChildZ<hook270<(anonymous namespace)::hook270Parent>, int (hook270<(anonymous namespace)::hook270Parent>::*)()>::Impl<int (hook270<(anonymous namespace)::hook270Parent>::*)()>::function(hook270<(anonymous namespace)::hook270Parent>*)
FUNC 8de10 30c 0 geode::modifier::ModifyDerive<hook290<(anonymous namespace)::hook290Parent>, AppDelegate>::apply()
FUNC 8e11c 2 0 geode::modifier::ModifyBase<geode::modifier::ModifyDerive<hook290<(anonymous namespace)::hook290Parent>, AppDelegate> >::apply()
FUNC 8e120 170 0 geode::modifier::AsStaticFunction_willSwitchToScene<hook290<(anonymous namespace)::hook290Parent>, void (hook290<(anonymous namespace)::hook290Parent>::*)(cocos2d::CCScene*)>::Impl<void (hook290<(anonymous namespace)::hook290Parent>::*)(cocos2d::CCScene*)>::function(hook290<(anonymous namespace)::hook290Parent>*, cocos2d::CCScene*)
FUNC 8e290 b4 0 geode::addresser::Addresser::addressOfVirtual<void, AppDelegate, cocos2d::CCScene*>(void (AppDelegate::*)(cocos2d::CCScene*))
FUNC 8e344 163c 0 AndroidUI::setup()
FUNC 8f980 98 0 BlurLayer::create()
FUNC 8fa18 210 0 AndroidUI::onPressTab(cocos2d::CCObject*)
FUNC 8fc28 440 0 AndroidUI::updateVersionLabel()
FUNC 90068 84 0 AndroidUI::get()
FUNC 900ec 3a 0 geode::Task<geode::Result<std::__ndk1::optional<geode::VersionInfo>, std::__ndk1::basic_string<char, std::__ndk1::char_traits<char>, std::__ndk1::allocator<char> > >, std::__ndk1::monostate>::~Task()
FUNC 90128 a4 0 AndroidUI::onUpdate(cocos2d::CCObject*)
FUNC 901cc 1e 0 AndroidUI::update(float)
FUNC 901ec 718 0 AndroidUI::textChanged(CCTextInputNode*)
FUNC 90904 8 0 {virtual override thunk({offset(-520)}, AndroidUI::textChanged(CCTextInputNode*))}
FUNC 90910 ac 0 AndroidUI::create()
FUNC 909bc 180 0 AndroidUI::AndroidUI()
FUNC 90b3c 98 0 AndroidUI::addToScene()
FUNC 90bd4 94 0 AndroidUI::keyDown(cocos2d::enumKeyCodes)
FUNC 90c68 18 0 geode::Popup<>::keyDown(cocos2d::enumKeyCodes)
FUNC 90c80 8 0 {virtual override thunk({offset(-276)}, AndroidUI::keyDown(cocos2d::enumKeyCodes))}
FUNC 90c88 144 0 AndroidUI::~AndroidUI()
FUNC 90dcc 10 0 AndroidUI::~AndroidUI()
FUNC 90ddc 20 0 geode::Popup<>::registerWithTouchDispatcher()
FUNC 90dfc 2 0 cocos2d::CCLayerRGBA::setOpacityModifyRGB(bool)
FUNC 90dfe 4 0 cocos2d::CCLayerRGBA::isOpacityModifyRGB()
FUNC 90e04 e4 0 geode::Popup<>::onClose(cocos2d::CCObject*)
FUNC 90ee8 8 0 {virtual override thunk({offset(-264)}, AndroidUI::~AndroidUI())}
FUNC 90ef0 14 0 {virtual override thunk({offset(-264)}, AndroidUI::~AndroidUI())}
FUNC 90f04 2 0 {virtual override thunk({offset(-316)}, cocos2d::CCLayerRGBA::setOpacityModifyRGB(bool))}
FUNC 90f06 4 0 {virtual override thunk({offset(-316)}, cocos2d::CCLayerRGBA::isOpacityModifyRGB())}
FUNC 90f0c 73a 0 std::__ndk1::__introsort<std::__ndk1::_ClassicAlgPolicy, AndroidUI::setup()::$_0&, Window**, false>(Window**, Window**, AndroidUI::setup()::$_0&, std::__ndk1::iterator_traits<Window**>::difference_type, bool)
FUNC 91646 11c 0 _ZNSt6__ndk124__sort5_maybe_branchlessB8ne180000INS_17_ClassicAlgPolicyERZN9AndroidUI5setupEvE3$_0PP6WindowTnNS_9enable_ifIXntsr21__use_branchless_sortIT0_T1_EE5valueEiE4typeELi0EEEvSA_SA_SA_SA_SA_S9_
FUNC 91764 20c 0 std::__ndk1::__insertion_sort_incomplete[abi:ne180000]<std::__ndk1::_ClassicAlgPolicy, AndroidUI::setup()::$_0&, Window**>(Window**, Window**, AndroidUI::setup()::$_0&)
FUNC 91970 10 0 std::__ndk1::vector<CategoryTabSprite*, std::__ndk1::allocator<CategoryTabSprite*> >::__throw_length_error[abi:ne180000]() const
FUNC 91980 10 0 std::__ndk1::vector<CCMenuItemSpriteExtra*, std::__ndk1::allocator<CCMenuItemSpriteExtra*> >::__throw_length_error[abi:ne180000]() const
FUNC 91990 10 0 std::__ndk1::vector<cocos2d::CCMenu*, std::__ndk1::allocator<cocos2d::CCMenu*> >::__throw_length_error[abi:ne180000]() const
FUNC 919a0 5c 0 geode::Popup<>::~Popup()
FUNC 919fc 2 0 geode::Popup<>::~Popup()
FUNC 91a00 60 0 {virtual override thunk({offset(-264)}, geode::Popup<>::~Popup())}
FUNC 91a60 2 0 {virtual override thunk({offset(-264)}, geode::Popup<>::~Popup())}
FUNC 91a62 1c 0 {virtual override thunk({offset(-276)}, geode::Popup<>::keyDown(cocos2d::enumKeyCodes))}
FUNC 91a80 16c 0 geode::Task<geode::Result<std::__ndk1::optional<geode::VersionInfo>, std::__ndk1::basic_string<char, std::__ndk1::char_traits<char>, std::__ndk1::allocator<char> > >, std::__ndk1::monostate>::setListener(geode::EventListenerProtocol*)
FUNC 91bec 4 0 geode::EventListener<geode::Task<geode::Result<std::__ndk1::optional<geode::VersionInfo>, std::__ndk1::basic_string<char, std::__ndk1::char_traits<char>, std::__ndk1::allocator<char> > >, std::__ndk1::monostate> >::getPool() const
FUNC 91bf0 e8 0 geode::EventListener<geode::Task<geode::Result<std::__ndk1::optional<geode::VersionInfo>, std::__ndk1::basic_string<char, std::__ndk1::char_traits<char>, std::__ndk1::allocator<char> > >, std::__ndk1::monostate> >::handle(geode::Event*)
FUNC 91cd8 68 0 geode::EventListener<geode::Task<geode::Result<std::__ndk1::optional<geode::VersionInfo>, std::__ndk1::basic_string<char, std::__ndk1::char_traits<char>, std::__ndk1::allocator<char> > >, std::__ndk1::monostate> >::~EventListener()
FUNC 91d40 6c 0 geode::EventListener<geode::Task<geode::Result<std::__ndk1::optional<geode::VersionInfo>, std::__ndk1::basic_string<char, std::__ndk1::char_traits<char>, std::__ndk1::allocator<char> > >, std::__ndk1::monostate> >::~EventListener()
FUNC 91dac 3a 0 geode::Task<geode::Result<std::__ndk1::optional<geode::VersionInfo>, std::__ndk1::basic_string<char, std::__ndk1::char_traits<char>, std::__ndk1::allocator<char> > >, std::__ndk1::monostate>::setListener(geode::EventListenerProtocol*)::{lambda()#1}::~{lambda()#1}()
FUNC 91de6 3a 0 geode::Task<geode::Result<std::__ndk1::optional<geode::VersionInfo>, std::__ndk1::basic_string<char, std::__ndk1::char_traits<char>, std::__ndk1::allocator<char> > >, std::__ndk1::monostate>::setListener(geode::EventListenerProtocol*)::{lambda()#2}::~{lambda()#2}()
FUNC 91e20 48 0 std::__ndk1::__function::__func<geode::Task<geode::Result<std::__ndk1::optional<geode::VersionInfo>, std::__ndk1::basic_string<char, std::__ndk1::char_traits<char>, std::__ndk1::allocator<char> > >, std::__ndk1::monostate>::setListener(geode::EventListenerProtocol*)::{lambda()#1}, std::__ndk1::allocator<geode::Task<geode::Result<std::__ndk1::optional<geode::VersionInfo>, std::__ndk1::basic_string<char, std::__ndk1::char_traits<char>, std::__ndk1::allocator<char> > >, std::__ndk1::monostate>::setListener(geode::EventListenerProtocol*)::{lambda()#1}>, void ()>::~__func()
FUNC 91e68 54 0 std::__ndk1::__function::__func<geode::Task<geode::Result<std::__ndk1::optional<geode::VersionInfo>, std::__ndk1::basic_string<char, std::__ndk1::char_traits<char>, std::__ndk1::allocator<char> > >, std::__ndk1::monostate>::setListener(geode::EventListenerProtocol*)::{lambda()#1}, std::__ndk1::allocator<geode::Task<geode::Result<std::__ndk1::optional<geode::VersionInfo>, std::__ndk1::basic_string<char, std::__ndk1::char_traits<char>, std::__ndk1::allocator<char> > >, std::__ndk1::monostate>::setListener(geode::EventListenerProtocol*)::{lambda()#1}>, void ()>::~__func()
FUNC 91ebc 40 0 std::__ndk1::__function::__func<geode::Task<geode::Result<std::__ndk1::optional<geode::VersionInfo>, std::__ndk1::basic_string<char, std::__ndk1::char_traits<char>, std::__ndk1::allocator<char> > >, std::__ndk1::monostate>::setListener(geode::EventListenerProtocol*)::{lambda()#1}, std::__ndk1::allocator<geode::Task<geode::Result<std::__ndk1::optional<geode::VersionInfo>, std::__ndk1::basic_string<char, std::__ndk1::char_traits<char>, std::__ndk1::allocator<char> > >, std::__ndk1::monostate>::setListener(geode::EventListenerProtocol*)::{lambda()#1}>, void ()>::__clone() const
FUNC 91efc 34 0 std::__ndk1::__function::__func<geode::Task<geode::Result<std::__ndk1::optional<geode::VersionInfo>, std::__ndk1::basic_string<char, std::__ndk1::char_traits<char>, std::__ndk1::allocator<char> > >, std::__ndk1::monostate>::setListener(geode::EventListenerProtocol*)::{lambda()#1}, std::__ndk1::allocator<geode::Task<geode::Result<std::__ndk1::optional<geode::VersionInfo>, std::__ndk1::basic_string<char, std::__ndk1::char_traits<char>, std::__ndk1::allocator<char> > >, std::__ndk1::monostate>::setListener(geode::EventListenerProtocol*)::{lambda()#1}>, void ()>::__clone(std::__ndk1::__function::__base<void ()>*) const
FUNC 91f30 3a 0 std::__ndk1::__function::__func<geode::Task<geode::Result<std::__ndk1::optional<geode::VersionInfo>, std::__ndk1::basic_string<char, std::__ndk1::char_traits<char>, std::__ndk1::allocator<char> > >, std::__ndk1::monostate>::setListener(geode::EventListenerProtocol*)::{lambda()#1}, std::__ndk1::allocator<geode::Task<geode::Result<std::__ndk1::optional<geode::VersionInfo>, std::__ndk1::basic_string<char, std::__ndk1::char_traits<char>, std::__ndk1::allocator<char> > >, std::__ndk1::monostate>::setListener(geode::EventListenerProtocol*)::{lambda()#1}>, void ()>::destroy()
FUNC 91f6a 44 0 std::__ndk1::__function::__func<geode::Task<geode::Result<std::__ndk1::optional<geode::VersionInfo>, std::__ndk1::basic_string<char, std::__ndk1::char_traits<char>, std::__ndk1::allocator<char> > >, std::__ndk1::monostate>::setListener(geode::EventListenerProtocol*)::{lambda()#1}, std::__ndk1::allocator<geode::Task<geode::Result<std::__ndk1::optional<geode::VersionInfo>, std::__ndk1::basic_string<char, std::__ndk1::char_traits<char>, std::__ndk1::allocator<char> > >, std::__ndk1::monostate>::setListener(geode::EventListenerProtocol*)::{lambda()#1}>, void ()>::destroy_deallocate()
FUNC 91fb0 150 0 std::__ndk1::__function::__func<geode::Task<geode::Result<std::__ndk1::optional<geode::VersionInfo>, std::__ndk1::basic_string<char, std::__ndk1::char_traits<char>, std::__ndk1::allocator<char> > >, std::__ndk1::monostate>::setListener(geode::EventListenerProtocol*)::{lambda()#1}, std::__ndk1::allocator<geode::Task<geode::Result<std::__ndk1::optional<geode::VersionInfo>, std::__ndk1::basic_string<char, std::__ndk1::char_traits<char>, std::__ndk1::allocator<char> > >, std::__ndk1::monostate>::setListener(geode::EventListenerProtocol*)::{lambda()#1}>, void ()>::operator()()
FUNC 92100 18 0 std::__ndk1::__function::__func<geode::Task<geode::Result<std::__ndk1::optional<geode::VersionInfo>, std::__ndk1::basic_string<char, std::__ndk1::char_traits<char>, std::__ndk1::allocator<char> > >, std::__ndk1::monostate>::setListener(geode::EventListenerProtocol*)::{lambda()#1}, std::__ndk1::allocator<geode::Task<geode::Result<std::__ndk1::optional<geode::VersionInfo>, std::__ndk1::basic_string<char, std::__ndk1::char_traits<char>, std::__ndk1::allocator<char> > >, std::__ndk1::monostate>::setListener(geode::EventListenerProtocol*)::{lambda()#1}>, void ()>::target(std::type_info const&) const
FUNC 92118 c 0 std::__ndk1::__function::__func<geode::Task<geode::Result<std::__ndk1::optional<geode::VersionInfo>, std::__ndk1::basic_string<char, std::__ndk1::char_traits<char>, std::__ndk1::allocator<char> > >, std::__ndk1::monostate>::setListener(geode::EventListenerProtocol*)::{lambda()#1}, std::__ndk1::allocator<geode::Task<geode::Result<std::__ndk1::optional<geode::VersionInfo>, std::__ndk1::basic_string<char, std::__ndk1::char_traits<char>, std::__ndk1::allocator<char> > >, std::__ndk1::monostate>::setListener(geode::EventListenerProtocol*)::{lambda()#1}>, void ()>::target_type() const
FUNC 92124 44 0 geode::Task<geode::Result<std::__ndk1::optional<geode::VersionInfo>, std::__ndk1::basic_string<char, std::__ndk1::char_traits<char>, std::__ndk1::allocator<char> > >, std::__ndk1::monostate>::Event::~Event()
FUNC 92168 40 0 geode::Task<geode::Result<std::__ndk1::optional<geode::VersionInfo>, std::__ndk1::basic_string<char, std::__ndk1::char_traits<char>, std::__ndk1::allocator<char> > >, std::__ndk1::monostate>::Event::~Event()
FUNC 921a8 48 0 std::__ndk1::__function::__func<geode::Task<geode::Result<std::__ndk1::optional<geode::VersionInfo>, std::__ndk1::basic_string<char, std::__ndk1::char_traits<char>, std::__ndk1::allocator<char> > >, std::__ndk1::monostate>::setListener(geode::EventListenerProtocol*)::{lambda()#2}, std::__ndk1::allocator<geode::Task<geode::Result<std::__ndk1::optional<geode::VersionInfo>, std::__ndk1::basic_string<char, std::__ndk1::char_traits<char>, std::__ndk1::allocator<char> > >, std::__ndk1::monostate>::setListener(geode::EventListenerProtocol*)::{lambda()#2}>, void ()>::~__func()
FUNC 921f0 54 0 std::__ndk1::__function::__func<geode::Task<geode::Result<std::__ndk1::optional<geode::VersionInfo>, std::__ndk1::basic_string<char, std::__ndk1::char_traits<char>, std::__ndk1::allocator<char> > >, std::__ndk1::monostate>::setListener(geode::EventListenerProtocol*)::{lambda()#2}, std::__ndk1::allocator<geode::Task<geode::Result<std::__ndk1::optional<geode::VersionInfo>, std::__ndk1::basic_string<char, std::__ndk1::char_traits<char>, std::__ndk1::allocator<char> > >, std::__ndk1::monostate>::setListener(geode::EventListenerProtocol*)::{lambda()#2}>, void ()>::~__func()
FUNC 92244 3c 0 std::__ndk1::__function::__func<geode::Task<geode::Result<std::__ndk1::optional<geode::VersionInfo>, std::__ndk1::basic_string<char, std::__ndk1::char_traits<char>, std::__ndk1::allocator<char> > >, std::__ndk1::monostate>::setListener(geode::EventListenerProtocol*)::{lambda()#2}, std::__ndk1::allocator<geode::Task<geode::Result<std::__ndk1::optional<geode::VersionInfo>, std::__ndk1::basic_string<char, std::__ndk1::char_traits<char>, std::__ndk1::allocator<char> > >, std::__ndk1::monostate>::setListener(geode::EventListenerProtocol*)::{lambda()#2}>, void ()>::__clone() const
FUNC 92280 30 0 std::__ndk1::__function::__func<geode::Task<geode::Result<std::__ndk1::optional<geode::VersionInfo>, std::__ndk1::basic_string<char, std::__ndk1::char_traits<char>, std::__ndk1::allocator<char> > >, std::__ndk1::monostate>::setListener(geode::EventListenerProtocol*)::{lambda()#2}, std::__ndk1::allocator<geode::Task<geode::Result<std::__ndk1::optional<geode::VersionInfo>, std::__ndk1::basic_string<char, std::__ndk1::char_traits<char>, std::__ndk1::allocator<char> > >, std::__ndk1::monostate>::setListener(geode::EventListenerProtocol*)::{lambda()#2}>, void ()>::__clone(std::__ndk1::__function::__base<void ()>*) const
FUNC 922b0 3a 0 std::__ndk1::__function::__func<geode::Task<geode::Result<std::__ndk1::optional<geode::VersionInfo>, std::__ndk1::basic_string<char, std::__ndk1::char_traits<char>, std::__ndk1::allocator<char> > >, std::__ndk1::monostate>::setListener(geode::EventListenerProtocol*)::{lambda()#2}, std::__ndk1::allocator<geode::Task<geode::Result<std::__ndk1::optional<geode::VersionInfo>, std::__ndk1::basic_string<char, std::__ndk1::char_traits<char>, std::__ndk1::allocator<char> > >, std::__ndk1::monostate>::setListener(geode::EventListenerProtocol*)::{lambda()#2}>, void ()>::destroy()
FUNC 922ea 44 0 std::__ndk1::__function::__func<geode::Task<geode::Result<std::__ndk1::optional<geode::VersionInfo>, std::__ndk1::basic_string<char, std::__ndk1::char_traits<char>, std::__ndk1::allocator<char> > >, std::__ndk1::monostate>::setListener(geode::EventListenerProtocol*)::{lambda()#2}, std::__ndk1::allocator<geode::Task<geode::Result<std::__ndk1::optional<geode::VersionInfo>, std::__ndk1::basic_string<char, std::__ndk1::char_traits<char>, std::__ndk1::allocator<char> > >, std::__ndk1::monostate>::setListener(geode::EventListenerProtocol*)::{lambda()#2}>, void ()>::destroy_deallocate()
FUNC 92330 150 0 std::__ndk1::__function::__func<geode::Task<geode::Result<std::__ndk1::optional<geode::VersionInfo>, std::__ndk1::basic_string<char, std::__ndk1::char_traits<char>, std::__ndk1::allocator<char> > >, std::__ndk1::monostate>::setListener(geode::EventListenerProtocol*)::{lambda()#2}, std::__ndk1::allocator<geode::Task<geode::Result<std::__ndk1::optional<geode::VersionInfo>, std::__ndk1::basic_string<char, std::__ndk1::char_traits<char>, std::__ndk1::allocator<char> > >, std::__ndk1::monostate>::setListener(geode::EventListenerProtocol*)::{lambda()#2}>, void ()>::operator()()
FUNC 92480 18 0 std::__ndk1::__function::__func<geode::Task<geode::Result<std::__ndk1::optional<geode::VersionInfo>, std::__ndk1::basic_string<char, std::__ndk1::char_traits<char>, std::__ndk1::allocator<char> > >, std::__ndk1::monostate>::setListener(geode::EventListenerProtocol*)::{lambda()#2}, std::__ndk1::allocator<geode::Task<geode::Result<std::__ndk1::optional<geode::VersionInfo>, std::__ndk1::basic_string<char, std::__ndk1::char_traits<char>, std::__ndk1::allocator<char> > >, std::__ndk1::monostate>::setListener(geode::EventListenerProtocol*)::{lambda()#2}>, void ()>::target(std::type_info const&) const
FUNC 92498 c 0 std::__ndk1::__function::__func<geode::Task<geode::Result<std::__ndk1::optional<geode::VersionInfo>, std::__ndk1::basic_string<char, std::__ndk1::char_traits<char>, std::__ndk1::allocator<char> > >, std::__ndk1::monostate>::setListener(geode::EventListenerProtocol*)::{lambda()#2}, std::__ndk1::allocator<geode::Task<geode::Result<std::__ndk1::optional<geode::VersionInfo>, std::__ndk1::basic_string<char, std::__ndk1::char_traits<char>, std::__ndk1::allocator<char> > >, std::__ndk1::monostate>::setListener(geode::EventListenerProtocol*)::{lambda()#2}>, void ()>::target_type() const
FUNC 924a4 2 0 std::__ndk1::__function::__base<void (geode::Task<geode::Result<std::__ndk1::optional<geode::VersionInfo>, std::__ndk1::basic_string<char, std::__ndk1::char_traits<char>, std::__ndk1::allocator<char> > >, std::__ndk1::monostate>::Event*)>::~__base()
FUNC 924a6 4 0 std::__ndk1::__function::__func<AndroidUI::updateVersionLabel()::$_0, std::__ndk1::allocator<AndroidUI::updateVersionLabel()::$_0>, void (geode::Task<geode::Result<std::__ndk1::optional<geode::VersionInfo>, std::__ndk1::basic_string<char, std::__ndk1::char_traits<char>, std::__ndk1::allocator<char> > >, std::__ndk1::monostate>::Event*)>::~__func()
FUNC 924ac 20 0 std::__ndk1::__function::__func<AndroidUI::updateVersionLabel()::$_0, std::__ndk1::allocator<AndroidUI::updateVersionLabel()::$_0>, void (geode::Task<geode::Result<std::__ndk1::optional<geode::VersionInfo>, std::__ndk1::basic_string<char, std::__ndk1::char_traits<char>, std::__ndk1::allocator<char> > >, std::__ndk1::monostate>::Event*)>::__clone() const
FUNC 924cc 14 0 std::__ndk1::__function::__func<AndroidUI::updateVersionLabel()::$_0, std::__ndk1::allocator<AndroidUI::updateVersionLabel()::$_0>, void (geode::Task<geode::Result<std::__ndk1::optional<geode::VersionInfo>, std::__ndk1::basic_string<char, std::__ndk1::char_traits<char>, std::__ndk1::allocator<char> > >, std::__ndk1::monostate>::Event*)>::__clone(std::__ndk1::__function::__base<void (geode::Task<geode::Result<std::__ndk1::optional<geode::VersionInfo>, std::__ndk1::basic_string<char, std::__ndk1::char_traits<char>, std::__ndk1::allocator<char> > >, std::__ndk1::monostate>::Event*)>*) const
FUNC 924e0 2 0 std::__ndk1::__function::__func<AndroidUI::updateVersionLabel()::$_0, std::__ndk1::allocator<AndroidUI::updateVersionLabel()::$_0>, void (geode::Task<geode::Result<std::__ndk1::optional<geode::VersionInfo>, std::__ndk1::basic_string<char, std::__ndk1::char_traits<char>, std::__ndk1::allocator<char> > >, std::__ndk1::monostate>::Event*)>::destroy()
FUNC 924e2 4 0 std::__ndk1::__function::__func<AndroidUI::updateVersionLabel()::$_0, std::__ndk1::allocator<AndroidUI::updateVersionLabel()::$_0>, void (geode::Task<geode::Result<std::__ndk1::optional<geode::VersionInfo>, std::__ndk1::basic_string<char, std::__ndk1::char_traits<char>, std::__ndk1::allocator<char> > >, std::__ndk1::monostate>::Event*)>::destroy_deallocate()
FUNC 924e8 80 0 std::__ndk1::__function::__func<AndroidUI::updateVersionLabel()::$_0, std::__ndk1::allocator<AndroidUI::updateVersionLabel()::$_0>, void (geode::Task<geode::Result<std::__ndk1::optional<geode::VersionInfo>, std::__ndk1::basic_string<char, std::__ndk1::char_traits<char>, std::__ndk1::allocator<char> > >, std::__ndk1::monostate>::Event*)>::operator()(geode::Task<geode::Result<std::__ndk1::optional<geode::VersionInfo>, std::__ndk1::basic_string<char, std::__ndk1::char_traits<char>, std::__ndk1::allocator<char> > >, std::__ndk1::monostate>::Event*&&)
FUNC 92568 18 0 std::__ndk1::__function::__func<AndroidUI::updateVersionLabel()::$_0, std::__ndk1::allocator<AndroidUI::updateVersionLabel()::$_0>, void (geode::Task<geode::Result<std::__ndk1::optional<geode::VersionInfo>, std::__ndk1::basic_string<char, std::__ndk1::char_traits<char>, std::__ndk1::allocator<char> > >, std::__ndk1::monostate>::Event*)>::target(std::type_info const&) const
FUNC 92580 c 0 std::__ndk1::__function::__func<AndroidUI::updateVersionLabel()::$_0, std::__ndk1::allocator<AndroidUI::updateVersionLabel()::$_0>, void (geode::Task<geode::Result<std::__ndk1::optional<geode::VersionInfo>, std::__ndk1::basic_string<char, std::__ndk1::char_traits<char>, std::__ndk1::allocator<char> > >, std::__ndk1::monostate>::Event*)>::target_type() const
FUNC 9258c 244 0 geode::Popup<>::initBase(float, float, char const*, cocos2d::CCRect, bool)
FUNC 927d0 44 0 geode::Popup<>::CloseEvent::~CloseEvent()
FUNC 92814 40 0 geode::Popup<>::CloseEvent::~CloseEvent()
FUNC 92854 10 0 std::__ndk1::__shared_ptr_emplace<geode::Popup<>::CloseEvent::Impl, std::__ndk1::allocator<geode::Popup<>::CloseEvent::Impl> >::~__shared_ptr_emplace()
FUNC 92864 1c 0 std::__ndk1::__shared_ptr_emplace<geode::Popup<>::CloseEvent::Impl, std::__ndk1::allocator<geode::Popup<>::CloseEvent::Impl> >::~__shared_ptr_emplace()
FUNC 92880 2 0 std::__ndk1::__shared_ptr_emplace<geode::Popup<>::CloseEvent::Impl, std::__ndk1::allocator<geode::Popup<>::CloseEvent::Impl> >::__on_zero_shared()
FUNC 92882 4 0 std::__ndk1::__shared_ptr_emplace<geode::Popup<>::CloseEvent::Impl, std::__ndk1::allocator<geode::Popup<>::CloseEvent::Impl> >::__on_zero_shared_weak()
FUNC 92888 130 0 Client::Client()
FUNC 929b8 260 0 Client::setLanguage(std::__ndk1::basic_string<char, std::__ndk1::char_traits<char>, std::__ndk1::allocator<char> >)
FUNC 92c18 1e4 0 geode::Mod::getSavedValue<std::__ndk1::basic_string<char, std::__ndk1::char_traits<char>, std::__ndk1::allocator<char> > >(std::__ndk1::basic_string_view<char, std::__ndk1::char_traits<char> >, std::__ndk1::basic_string<char, std::__ndk1::char_traits<char>, std::__ndk1::allocator<char> > const&)
FUNC 92dfc 16 0 geode::Ref<BlurLayer>::~Ref()
FUNC 92e14 168 0 Client::handleKeybinds(cocos2d::enumKeyCodes, bool, bool)
FUNC 92f80 1fc 0 Client::initImGui()
FUNC 9317c 374 0 Client::setUIScale(float)
FUNC 934f0 14c 0 geode::Mod::getSavedValue<float>(std::__ndk1::basic_string_view<char, std::__ndk1::char_traits<char> >, float const&)
FUNC 9363c 3500 0 Client::loadImGuiTheme(std::__ndk1::basic_string<char, std::__ndk1::char_traits<char>, std::__ndk1::allocator<char> >)
FUNC 96b3c 50c 0 Client::sortWindows(bool)
FUNC 97048 2f8 0 Client::toggleWindowVisibility(WindowTransitionType, bool)
FUNC 97340 230 0 Client::drawImGui()
FUNC 97570 404 0 Client::GetModuleEnabled(std::__ndk1::basic_string_view<char, std::__ndk1::char_traits<char> >)
FUNC 97974 60 0 geode::impl::ResultData<matjson::Value, std::__ndk1::basic_string<char, std::__ndk1::char_traits<char>, std::__ndk1::allocator<char> > >::~ResultData()
FUNC 979d4 cc 0 geode::Mod::setSavedValue<std::__ndk1::basic_string<char, std::__ndk1::char_traits<char>, std::__ndk1::allocator<char> > >(std::__ndk1::basic_string_view<char, std::__ndk1::char_traits<char> >, std::__ndk1::basic_string<char, std::__ndk1::char_traits<char>, std::__ndk1::allocator<char> > const&)
FUNC 97aa0 528 0 Client::getLanguages()
FUNC 97fc8 3a 0 std::__ndk1::__fs::filesystem::directory_iterator::~directory_iterator[abi:ne180000]()
FUNC 98002 3e 0 std::__ndk1::vector<std::__ndk1::__fs::filesystem::path, std::__ndk1::allocator<std::__ndk1::__fs::filesystem::path> >::~vector[abi:ne180000]()
FUNC 98040 270 0 Client::getThemeColour(std::__ndk1::basic_string<char, std::__ndk1::char_traits<char>, std::__ndk1::allocator<char> >, cocos2d::_ccColor4B)
FUNC 982b0 60 0 geode::impl::ResultData<cocos2d::_ccColor4B, std::__ndk1::basic_string<char, std::__ndk1::char_traits<char>, std::__ndk1::allocator<char> > >::~ResultData()
FUNC 98310 b0 0 Client::SetModuleEnabled(std::__ndk1::basic_string_view<char, std::__ndk1::char_traits<char> >, bool)
FUNC 983c0 bc 0 Client::GetModule(std::__ndk1::basic_string<char, std::__ndk1::char_traits<char>, std::__ndk1::allocator<char> >)
FUNC 9847c ac 0 std::__ndk1::__fs::filesystem::path::operator/=[abi:ne180000](std::__ndk1::__fs::filesystem::path const&)
FUNC 98528 1e0 0 _ZNSt6__ndk112basic_stringIcNS_11char_traitsIcEENS_9allocatorIcEEE6appendB8ne180000IPKcTnNS_9enable_ifIXsr31__has_forward_iterator_categoryIT_EE5valueEiE4typeELi0EEERS5_SA_SA_
FUNC 98708 6 0 std::__ndk1::__variant_detail::__visitation::__base::__dispatcher<(unsigned int)0>::__dispatch[abi:ne180000]<std::__ndk1::__variant_detail::__dtor<std::__ndk1::__variant_detail::__traits<matjson::Value, std::__ndk1::basic_string<char, std::__ndk1::char_traits<char>, std::__ndk1::allocator<char> > >, (std::__ndk1::__variant_detail::_Trait)1>::__destroy[abi:ne180000]()::{lambda(auto:1&)#1}, std::__ndk1::__variant_detail::__base<(std::__ndk1::__variant_detail::__traits<matjson::Value, std::__ndk1::basic_string<char, std::__ndk1::char_traits<char>, std::__ndk1::allocator<char> > >)1, matjson, std::__ndk1::allocator<char> >&>(std::__ndk1::__variant_detail::__dtor<std::__ndk1::__variant_detail::__traits<matjson::Value, std::__ndk1::basic_string<char, std::__ndk1::char_traits<char>, std::__ndk1::allocator<char> > >, (std::__ndk1::__variant_detail::_Trait)1>, std::__ndk1::__variant_detail::__base<(std::__ndk1::__variant_detail::__traits<matjson::Value, std::__ndk1::basic_string<char, std::__ndk1::char_traits<char>, std::__ndk1::allocator<char> > >)1, matjson, std::__ndk1::allocator<char> >&)
FUNC 9870e e 0 std::__ndk1::__variant_detail::__visitation::__base::__dispatcher<(unsigned int)1>::__dispatch[abi:ne180000]<std::__ndk1::__variant_detail::__dtor<std::__ndk1::__variant_detail::__traits<matjson::Value, std::__ndk1::basic_string<char, std::__ndk1::char_traits<char>, std::__ndk1::allocator<char> > >, (std::__ndk1::__variant_detail::_Trait)1>::__destroy[abi:ne180000]()::{lambda(auto:1&)#1}, std::__ndk1::__variant_detail::__base<(std::__ndk1::__variant_detail::__traits<matjson::Value, std::__ndk1::basic_string<char, std::__ndk1::char_traits<char>, std::__ndk1::allocator<char> > >)1, matjson, std::__ndk1::allocator<char> >&>(std::__ndk1::__variant_detail::__dtor<std::__ndk1::__variant_detail::__traits<matjson::Value, std::__ndk1::basic_string<char, std::__ndk1::char_traits<char>, std::__ndk1::allocator<char> > >, (std::__ndk1::__variant_detail::_Trait)1>, std::__ndk1::__variant_detail::__base<(std::__ndk1::__variant_detail::__traits<matjson::Value, std::__ndk1::basic_string<char, std::__ndk1::char_traits<char>, std::__ndk1::allocator<char> > >)1, matjson, std::__ndk1::allocator<char> >&)
FUNC 9871c 3c 0 std::__ndk1::__split_buffer<std::__ndk1::__fs::filesystem::path, std::__ndk1::allocator<std::__ndk1::__fs::filesystem::path>&>::~__split_buffer()
FUNC 98758 10 0 std::__ndk1::vector<std::__ndk1::__fs::filesystem::path, std::__ndk1::allocator<std::__ndk1::__fs::filesystem::path> >::__throw_length_error[abi:ne180000]() const
FUNC 98768 73a 0 std::__ndk1::__introsort<std::__ndk1::_ClassicAlgPolicy, Client::sortWindows(bool)::$_0&, Window**, false>(Window**, Window**, Client::sortWindows(bool)::$_0&, std::__ndk1::iterator_traits<Window**>::difference_type, bool)
FUNC 98ea2 11c 0 _ZNSt6__ndk124__sort5_maybe_branchlessB8ne180000INS_17_ClassicAlgPolicyERZN6Client11sortWindowsEbE3$_0PP6WindowTnNS_9enable_ifIXntsr21__use_branchless_sortIT0_T1_EE5valueEiE4typeELi0EEEvSA_SA_SA_SA_SA_S9_
FUNC 98fc0 20c 0 std::__ndk1::__insertion_sort_incomplete[abi:ne180000]<std::__ndk1::_ClassicAlgPolicy, Client::sortWindows(bool)::$_0&, Window**>(Window**, Window**, Client::sortWindows(bool)::$_0&)
FUNC 991cc 766 0 std::__ndk1::__introsort<std::__ndk1::_ClassicAlgPolicy, Client::toggleWindowVisibility(WindowTransitionType, bool)::$_0&, Window**, false>(Window**, Window**, Client::toggleWindowVisibility(WindowTransitionType, bool)::$_0&, std::__ndk1::iterator_traits<Window**>::difference_type, bool)
FUNC 99932 ee 0 _ZNSt6__ndk124__sort5_maybe_branchlessB8ne180000INS_17_ClassicAlgPolicyERZN6Client22toggleWindowVisibilityE20WindowTransitionTypebE3$_0PP6WindowTnNS_9enable_ifIXntsr21__use_branchless_sortIT0_T1_EE5valueEiE4typeELi0EEEvSB_SB_SB_SB_SB_SA_
FUNC 99a20 f0 0 std::__ndk1::__sort3[abi:ne180000]<std::__ndk1::_ClassicAlgPolicy, Client::toggleWindowVisibility(WindowTransitionType, bool)::$_0&, Window**>(Window**, Window**, Window**, Client::toggleWindowVisibility(WindowTransitionType, bool)::$_0&)
FUNC 99b10 156 0 std::__ndk1::__insertion_sort_incomplete[abi:ne180000]<std::__ndk1::_ClassicAlgPolicy, Client::toggleWindowVisibility(WindowTransitionType, bool)::$_0&, Window**>(Window**, Window**, Client::toggleWindowVisibility(WindowTransitionType, bool)::$_0&)
FUNC 99c66 b8 0 std::__ndk1::__sort4[abi:ne180000]<std::__ndk1::_ClassicAlgPolicy, Client::toggleWindowVisibility(WindowTransitionType, bool)::$_0&, Window**>(Window**, Window**, Window**, Window**, Client::toggleWindowVisibility(WindowTransitionType, bool)::$_0&)
FUNC 99d1e 2 0 std::__ndk1::__variant_detail::__visitation::__base::__dispatcher<(unsigned int)0>::__dispatch[abi:ne180000]<std::__ndk1::__variant_detail::__dtor<std::__ndk1::__variant_detail::__traits<cocos2d::_ccColor4B, std::__ndk1::basic_string<char, std::__ndk1::char_traits<char>, std::__ndk1::allocator<char> > >, (std::__ndk1::__variant_detail::_Trait)1>::__destroy[abi:ne180000]()::{lambda(auto:1&)#1}, std::__ndk1::__variant_detail::__base<(std::__ndk1::__variant_detail::__traits<cocos2d::_ccColor4B, std::__ndk1::basic_string<char, std::__ndk1::char_traits<char>, std::__ndk1::allocator<char> > >)1, cocos2d, std::__ndk1::allocator<char> >&>(std::__ndk1::__variant_detail::__dtor<std::__ndk1::__variant_detail::__traits<cocos2d::_ccColor4B, std::__ndk1::basic_string<char, std::__ndk1::char_traits<char>, std::__ndk1::allocator<char> > >, (std::__ndk1::__variant_detail::_Trait)1>, std::__ndk1::__variant_detail::__base<(std::__ndk1::__variant_detail::__traits<cocos2d::_ccColor4B, std::__ndk1::basic_string<char, std::__ndk1::char_traits<char>, std::__ndk1::allocator<char> > >)1, cocos2d, std::__ndk1::allocator<char> >&)
FUNC 99d20 e 0 std::__ndk1::__variant_detail::__visitation::__base::__dispatcher<(unsigned int)1>::__dispatch[abi:ne180000]<std::__ndk1::__variant_detail::__dtor<std::__ndk1::__variant_detail::__traits<cocos2d::_ccColor4B, std::__ndk1::basic_string<char, std::__ndk1::char_traits<char>, std::__ndk1::allocator<char> > >, (std::__ndk1::__variant_detail::_Trait)1>::__destroy[abi:ne180000]()::{lambda(auto:1&)#1}, std::__ndk1::__variant_detail::__base<(std::__ndk1::__variant_detail::__traits<cocos2d::_ccColor4B, std::__ndk1::basic_string<char, std::__ndk1::char_traits<char>, std::__ndk1::allocator<char> > >)1, cocos2d, std::__ndk1::allocator<char> >&>(std::__ndk1::__variant_detail::__dtor<std::__ndk1::__variant_detail::__traits<cocos2d::_ccColor4B, std::__ndk1::basic_string<char, std::__ndk1::char_traits<char>, std::__ndk1::allocator<char> > >, (std::__ndk1::__variant_detail::_Trait)1>, std::__ndk1::__variant_detail::__base<(std::__ndk1::__variant_detail::__traits<cocos2d::_ccColor4B, std::__ndk1::basic_string<char, std::__ndk1::char_traits<char>, std::__ndk1::allocator<char> > >)1, cocos2d, std::__ndk1::allocator<char> >&)
FUNC 99d30 60 0 geode::impl::ResultData<std::__ndk1::basic_string<char, std::__ndk1::char_traits<char>, std::__ndk1::allocator<char> >, std::__ndk1::basic_string<char, std::__ndk1::char_traits<char>, std::__ndk1::allocator<char> > >::~ResultData()
FUNC 99d90 e 0 std::__ndk1::__variant_detail::__visitation::__base::__dispatcher<(unsigned int)0>::__dispatch[abi:ne180000]<std::__ndk1::__variant_detail::__dtor<std::__ndk1::__variant_detail::__traits<std::__ndk1::basic_string<char, std::__ndk1::char_traits<char>, std::__ndk1::allocator<char> >, std::__ndk1::allocator<char> >, (std::__ndk1::__variant_detail::_Trait)1>::__destroy[abi:ne180000]()::{lambda(auto:1&)#1}, std::__ndk1::__variant_detail::__base<(std::__ndk1::__variant_detail::__traits<std::__ndk1::basic_string<char, std::__ndk1::char_traits<char>, std::__ndk1::allocator<char> >, std::__ndk1::allocator<char> >)1, std::__ndk1::allocator<char>, std::__ndk1::allocator<char> >&>(std::__ndk1::__variant_detail::__dtor<std::__ndk1::__variant_detail::__traits<std::__ndk1::basic_string<char, std::__ndk1::char_traits<char>, std::__ndk1::allocator<char> >, std::__ndk1::allocator<char> >, (std::__ndk1::__variant_detail::_Trait)1>, std::__ndk1::__variant_detail::__base<(std::__ndk1::__variant_detail::__traits<std::__ndk1::basic_string<char, std::__ndk1::char_traits<char>, std::__ndk1::allocator<char> >, std::__ndk1::allocator<char> >)1, std::__ndk1::allocator<char>, std::__ndk1::allocator<char> >&)
FUNC 99d9e e 0 std::__ndk1::__variant_detail::__visitation::__base::__dispatcher<(unsigned int)1>::__dispatch[abi:ne180000]<std::__ndk1::__variant_detail::__dtor<std::__ndk1::__variant_detail::__traits<std::__ndk1::basic_string<char, std::__ndk1::char_traits<char>, std::__ndk1::allocator<char> >, std::__ndk1::allocator<char> >, (std::__ndk1::__variant_detail::_Trait)1>::__destroy[abi:ne180000]()::{lambda(auto:1&)#1}, std::__ndk1::__variant_detail::__base<(std::__ndk1::__variant_detail::__traits<std::__ndk1::basic_string<char, std::__ndk1::char_traits<char>, std::__ndk1::allocator<char> >, std::__ndk1::allocator<char> >)1, std::__ndk1::allocator<char>, std::__ndk1::allocator<char> >&>(std::__ndk1::__variant_detail::__dtor<std::__ndk1::__variant_detail::__traits<std::__ndk1::basic_string<char, std::__ndk1::char_traits<char>, std::__ndk1::allocator<char> >, std::__ndk1::allocator<char> >, (std::__ndk1::__variant_detail::_Trait)1>, std::__ndk1::__variant_detail::__base<(std::__ndk1::__variant_detail::__traits<std::__ndk1::basic_string<char, std::__ndk1::char_traits<char>, std::__ndk1::allocator<char> >, std::__ndk1::allocator<char> >)1, std::__ndk1::allocator<char>, std::__ndk1::allocator<char> >&)
FUNC 99dac 4 0 std::__ndk1::__function::__func<Client::initImGui()::$_0, std::__ndk1::allocator<Client::initImGui()::$_0>, void ()>::~__func()
FUNC 99db0 20 0 std::__ndk1::__function::__func<Client::initImGui()::$_0, std::__ndk1::allocator<Client::initImGui()::$_0>, void ()>::__clone() const
FUNC 99dd0 14 0 std::__ndk1::__function::__func<Client::initImGui()::$_0, std::__ndk1::allocator<Client::initImGui()::$_0>, void ()>::__clone(std::__ndk1::__function::__base<void ()>*) const
FUNC 99de4 2 0 std::__ndk1::__function::__func<Client::initImGui()::$_0, std::__ndk1::allocator<Client::initImGui()::$_0>, void ()>::destroy()
FUNC 99de6 4 0 std::__ndk1::__function::__func<Client::initImGui()::$_0, std::__ndk1::allocator<Client::initImGui()::$_0>, void ()>::destroy_deallocate()
FUNC 99dea a 0 std::__ndk1::__function::__func<Client::initImGui()::$_0, std::__ndk1::allocator<Client::initImGui()::$_0>, void ()>::operator()()
FUNC 99df4 18 0 std::__ndk1::__function::__func<Client::initImGui()::$_0, std::__ndk1::allocator<Client::initImGui()::$_0>, void ()>::target(std::type_info const&) const
FUNC 99e0c c 0 std::__ndk1::__function::__func<Client::initImGui()::$_0, std::__ndk1::allocator<Client::initImGui()::$_0>, void ()>::target_type() const
FUNC 99e18 15c 0 geode::Mod::getSavedValue<std::__ndk1::basic_string<char, std::__ndk1::char_traits<char>, std::__ndk1::allocator<char> > >(std::__ndk1::basic_string_view<char, std::__ndk1::char_traits<char> >)
FUNC 99f74 24 0 std::__ndk1::__tree<std::__ndk1::__value_type<float, float>, std::__ndk1::__map_value_compare<float, std::__ndk1::__value_type<float, float>, std::__ndk1::less<float>, true>, std::__ndk1::allocator<std::__ndk1::__value_type<float, float> > >::destroy(std::__ndk1::__tree_node<std::__ndk1::__value_type<float, float>, void*>*)
FUNC 99f98 4 0 std::__ndk1::__function::__func<Client::setUIScale(float)::$_0, std::__ndk1::allocator<Client::setUIScale(float)::$_0>, void ()>::~__func()
FUNC 99f9c 28 0 std::__ndk1::__function::__func<Client::setUIScale(float)::$_0, std::__ndk1::allocator<Client::setUIScale(float)::$_0>, void ()>::__clone() const
FUNC 99fc4 1c 0 std::__ndk1::__function::__func<Client::setUIScale(float)::$_0, std::__ndk1::allocator<Client::setUIScale(float)::$_0>, void ()>::__clone(std::__ndk1::__function::__base<void ()>*) const
FUNC 99fe0 2 0 std::__ndk1::__function::__func<Client::setUIScale(float)::$_0, std::__ndk1::allocator<Client::setUIScale(float)::$_0>, void ()>::destroy()
FUNC 99fe2 4 0 std::__ndk1::__function::__func<Client::setUIScale(float)::$_0, std::__ndk1::allocator<Client::setUIScale(float)::$_0>, void ()>::destroy_deallocate()
FUNC 99fe8 90 0 std::__ndk1::__function::__func<Client::setUIScale(float)::$_0, std::__ndk1::allocator<Client::setUIScale(float)::$_0>, void ()>::operator()()
FUNC 9a078 18 0 std::__ndk1::__function::__func<Client::setUIScale(float)::$_0, std::__ndk1::allocator<Client::setUIScale(float)::$_0>, void ()>::target(std::type_info const&) const
FUNC 9a090 c 0 std::__ndk1::__function::__func<Client::setUIScale(float)::$_0, std::__ndk1::allocator<Client::setUIScale(float)::$_0>, void ()>::target_type() const
FUNC 9a09c 2 0 std::__ndk1::__function::__base<void ()>::~__base()
FUNC 9a09e 4 0 std::__ndk1::__function::__func<Client::setUIScale(float)::$_0::operator()() const::{lambda()#1}, std::__ndk1::allocator<Client::setUIScale(float)::$_0::operator()() const::{lambda()#1}>, void ()>::~__func()
FUNC 9a0a4 28 0 std::__ndk1::__function::__func<Client::setUIScale(float)::$_0::operator()() const::{lambda()#1}, std::__ndk1::allocator<Client::setUIScale(float)::$_0::operator()() const::{lambda()#1}>, void ()>::__clone() const
FUNC 9a0cc 1c 0 std::__ndk1::__function::__func<Client::setUIScale(float)::$_0::operator()() const::{lambda()#1}, std::__ndk1::allocator<Client::setUIScale(float)::$_0::operator()() const::{lambda()#1}>, void ()>::__clone(std::__ndk1::__function::__base<void ()>*) const
FUNC 9a0e8 2 0 std::__ndk1::__function::__func<Client::setUIScale(float)::$_0::operator()() const::{lambda()#1}, std::__ndk1::allocator<Client::setUIScale(float)::$_0::operator()() const::{lambda()#1}>, void ()>::destroy()
FUNC 9a0ea 4 0 std::__ndk1::__function::__func<Client::setUIScale(float)::$_0::operator()() const::{lambda()#1}, std::__ndk1::allocator<Client::setUIScale(float)::$_0::operator()() const::{lambda()#1}>, void ()>::destroy_deallocate()
FUNC 9a0ee 8 0 std::__ndk1::__function::__func<Client::setUIScale(float)::$_0::operator()() const::{lambda()#1}, std::__ndk1::allocator<Client::setUIScale(float)::$_0::operator()() const::{lambda()#1}>, void ()>::operator()()
FUNC 9a0f8 18 0 std::__ndk1::__function::__func<Client::setUIScale(float)::$_0::operator()() const::{lambda()#1}, std::__ndk1::allocator<Client::setUIScale(float)::$_0::operator()() const::{lambda()#1}>, void ()>::target(std::type_info const&) const
FUNC 9a110 c 0 std::__ndk1::__function::__func<Client::setUIScale(float)::$_0::operator()() const::{lambda()#1}, std::__ndk1::allocator<Client::setUIScale(float)::$_0::operator()() const::{lambda()#1}>, void ()>::target_type() const
FUNC 9a11c a4 0 fmt::v11::detail::value<fmt::v11::context>::format_custom_arg<std::__ndk1::optional<std::__ndk1::basic_string<char, std::__ndk1::char_traits<char>, std::__ndk1::allocator<char> > >, fmt::v11::formatter<std::__ndk1::optional<std::__ndk1::basic_string<char, std::__ndk1::char_traits<char>, std::__ndk1::allocator<char> > >, char, void> >(void*, fmt::v11::basic_format_parse_context<char>&, fmt::v11::context&)
FUNC 9a1c0 114 0 fmt::v11::formatter<std::__ndk1::optional<std::__ndk1::basic_string<char, std::__ndk1::char_traits<char>, std::__ndk1::allocator<char> > >, char, void>::format<fmt::v11::context>(std::__ndk1::optional<std::__ndk1::basic_string<char, std::__ndk1::char_traits<char>, std::__ndk1::allocator<char> > > const&, fmt::v11::context&) const
FUNC 9a2d4 468 0 fmt::v11::detail::parse_format_specs<char>(char const*, char const*, fmt::v11::detail::dynamic_format_specs<char>&, fmt::v11::basic_format_parse_context<char>&, fmt::v11::detail::type)
FUNC 9a73c 10c 0 fmt::v11::detail::parse_dynamic_spec<char>(char const*, char const*, int&, fmt::v11::detail::arg_ref<char>&, fmt::v11::basic_format_parse_context<char>&)
FUNC 9a848 114 0 fmt::v11::detail::do_parse_arg_id<char, fmt::v11::detail::dynamic_spec_id_handler<char>&>(char const*, char const*, fmt::v11::detail::dynamic_spec_id_handler<char>&)
FUNC 9a95c 9a 0 fmt::v11::detail::copy_noinline<char, char const*, fmt::v11::basic_appender<char> >(char const*, char const*, fmt::v11::basic_appender<char>)
FUNC 9a9f8 bc 0 fmt::v11::detail::handle_dynamic_spec<fmt::v11::detail::width_checker, fmt::v11::context>(int&, fmt::v11::detail::arg_ref<fmt::v11::context::char_type>, fmt::v11::context&)
FUNC 9aab4 bc 0 fmt::v11::detail::handle_dynamic_spec<fmt::v11::detail::precision_checker, fmt::v11::context>(int&, fmt::v11::detail::arg_ref<fmt::v11::context::char_type>, fmt::v11::context&)
FUNC 9ab70 16c 0 fmt::v11::detail::write<char, fmt::v11::basic_appender<char> >(fmt::v11::basic_appender<char>, fmt::v11::basic_string_view<char>, fmt::v11::format_specs const&)
FUNC 9acdc 118 0 fmt::v11::detail::write_escaped_string<char, fmt::v11::detail::counting_iterator>(fmt::v11::detail::counting_iterator, fmt::v11::basic_string_view<char>)
FUNC 9adf4 120 0 fmt::v11::detail::write_padded<char, (fmt::v11::align::type)1, fmt::v11::basic_appender<char>, fmt::v11::detail::write<char, fmt::v11::basic_appender<char> >(fmt::v11::basic_appender<char>, fmt::v11::basic_string_view<char>, fmt::v11::format_specs const&)::{lambda(fmt::v11::basic_appender<char>)#1}>(fmt::v11::basic_appender<char>, fmt::v11::format_specs const&, unsigned int, unsigned int, fmt::v11::detail::write<char, fmt::v11::basic_appender<char> >(fmt::v11::basic_appender<char>, fmt::v11::basic_string_view<char>, fmt::v11::format_specs const&)::{lambda(fmt::v11::basic_appender<char>&&)#1})
FUNC 9af14 2c4 0 fmt::v11::detail::for_each_codepoint<fmt::v11::detail::code_point_index(fmt::v11::basic_string_view<char>, unsigned int)::{lambda(unsigned int, fmt::v11::basic_string_view<char>)#1}>(fmt::v11::basic_string_view<char>, fmt::v11::detail::code_point_index(fmt::v11::basic_string_view<char>, unsigned int)::{lambda(unsigned int, fmt::v11::basic_string_view<char>)#1})
FUNC 9b1d8 10c 0 fmt::v11::detail::write_escaped_cp<fmt::v11::detail::counting_iterator, char>(fmt::v11::detail::counting_iterator, fmt::v11::detail::find_escape_result<char> const&)
FUNC 9b2e4 124 0 fmt::v11::detail::for_each_codepoint<fmt::v11::detail::find_escape(char const*, char const*)::{lambda(unsigned int, fmt::v11::basic_string_view<char>)#1}>(fmt::v11::basic_string_view<char>, fmt::v11::detail::find_escape(char const*, char const*)::{lambda(unsigned int, fmt::v11::basic_string_view<char>)#1})::{lambda(char const*, char const*)#1}::operator()(char const*, char const*) const
FUNC 9b410 1e4 0 fmt::v11::detail::for_each_codepoint<fmt::v11::detail::compute_width(fmt::v11::basic_string_view<char>)::count_code_points>(fmt::v11::basic_string_view<char>, fmt::v11::detail::compute_width(fmt::v11::basic_string_view<char>)::count_code_points)::{lambda(char const*, char const*)#1}::operator()(char const*, char const*) const
FUNC 9b5f4 fa 0 fmt::v11::detail::fill<char, fmt::v11::basic_appender<char> >(fmt::v11::basic_appender<char>, unsigned int, fmt::v11::detail::fill_t const&)
FUNC 9b6f0 1e4 0 fmt::v11::detail::write_escaped_string<char, fmt::v11::basic_appender<char> >(fmt::v11::basic_appender<char>, fmt::v11::basic_string_view<char>)
FUNC 9b8d4 118 0 fmt::v11::detail::write_escaped_cp<fmt::v11::basic_appender<char>, char>(fmt::v11::basic_appender<char>, fmt::v11::detail::find_escape_result<char> const&)
FUNC 9b9ec e0 0 fmt::v11::detail::write_codepoint<(unsigned int)2, char, fmt::v11::basic_appender<char> >(fmt::v11::basic_appender<char>, char, unsigned int)
FUNC 9bacc dc 0 fmt::v11::detail::write_codepoint<(unsigned int)4, char, fmt::v11::basic_appender<char> >(fmt::v11::basic_appender<char>, char, unsigned int)
FUNC 9bba8 e0 0 fmt::v11::detail::write_codepoint<(unsigned int)8, char, fmt::v11::basic_appender<char> >(fmt::v11::basic_appender<char>, char, unsigned int)
FUNC 9bc88 60 0 fmt::v11::detail::get_dynamic_spec<fmt::v11::detail::width_checker, fmt::v11::basic_format_arg<fmt::v11::context> >(fmt::v11::basic_format_arg<fmt::v11::context>)
FUNC 9bce8 106 0 fmt::v11::basic_format_args<fmt::v11::context>::get<char>(fmt::v11::basic_string_view<char>) const
FUNC 9bdf0 60 0 fmt::v11::detail::get_dynamic_spec<fmt::v11::detail::precision_checker, fmt::v11::basic_format_arg<fmt::v11::context> >(fmt::v11::basic_format_arg<fmt::v11::context>)
FUNC 9be50 10c 0 std::__ndk1::__hash_table<std::__ndk1::__hash_value_type<unsigned int, bool>, std::__ndk1::__unordered_map_hasher<unsigned int, std::__ndk1::__hash_value_type<unsigned int, bool>, std::__ndk1::hash<unsigned int>, std::__ndk1::equal_to<unsigned int>, true>, std::__ndk1::__unordered_map_equal<unsigned int, std::__ndk1::__hash_value_type<unsigned int, bool>, std::__ndk1::equal_to<unsigned int>, std::__ndk1::hash<unsigned int>, true>, std::__ndk1::allocator<std::__ndk1::__hash_value_type<unsigned int, bool> > >::__do_rehash<true>(unsigned int)
FUNC 9bf5c 26a 0 std::__ndk1::__hash_table<std::__ndk1::__hash_value_type<unsigned int, bool>, std::__ndk1::__unordered_map_hasher<unsigned int, std::__ndk1::__hash_value_type<unsigned int, bool>, std::__ndk1::hash<unsigned int>, std::__ndk1::equal_to<unsigned int>, true>, std::__ndk1::__unordered_map_equal<unsigned int, std::__ndk1::__hash_value_type<unsigned int, bool>, std::__ndk1::equal_to<unsigned int>, std::__ndk1::hash<unsigned int>, true>, std::__ndk1::allocator<std::__ndk1::__hash_value_type<unsigned int, bool> > >::__emplace_unique_key_args<unsigned int, std::__ndk1::piecewise_construct_t const&, std::__ndk1::tuple<unsigned int&&>, std::__ndk1::tuple<> >(unsigned int const&, std::__ndk1::piecewise_construct_t const&, std::__ndk1::tuple<unsigned int&&>, std::__ndk1::tuple<>)
FUNC 9c1c6 66 0 Dropdown::onToggleVisible(cocos2d::CCObject*)
FUNC 9c22c 1b0 0 Dropdown::setVis(bool)
FUNC 9c3dc 88 0 Dropdown::onPress(cocos2d::CCObject*)
FUNC 9c464 ec 0 Dropdown::setSelected(int)
FUNC 9c550 9c 0 Dropdown::visit()
FUNC 9c5ec 4f4 0 Dropdown::init(cocos2d::CCSize, std::__ndk1::vector<std::__ndk1::basic_string<char, std::__ndk1::char_traits<char>, std::__ndk1::allocator<char> >, std::__ndk1::allocator<std::__ndk1::basic_string<char, std::__ndk1::char_traits<char>, std::__ndk1::allocator<char> > > >, void (cocos2d::CCObject::*)(cocos2d::CCObject*), int)
FUNC 9cae0 20 0 Dropdown::registerWithTouchDispatcher()
FUNC 9cb00 144 0 Dropdown::create(cocos2d::CCSize, std::__ndk1::vector<std::__ndk1::basic_string<char, std::__ndk1::char_traits<char>, std::__ndk1::allocator<char> >, std::__ndk1::allocator<std::__ndk1::basic_string<char, std::__ndk1::char_traits<char>, std::__ndk1::allocator<char> > > >, void (cocos2d::CCObject::*)(cocos2d::CCObject*), int)
FUNC 9cc44 94 0 Dropdown::~Dropdown()
FUNC 9ccd8 98 0 Dropdown::~Dropdown()
FUNC 9cd70 2 0 cocos2d::CCMenu::setOpacityModifyRGB(bool)
FUNC 9cd72 4 0 cocos2d::CCMenu::isOpacityModifyRGB()
FUNC 9cd76 6 0 cocos2d::CCMenu::isEnabled()
FUNC 9cd7c 6 0 cocos2d::CCMenu::setEnabled(bool)
FUNC 9cd84 90 0 {virtual override thunk({offset(-264)}, Dropdown::~Dropdown())}
FUNC 9ce14 94 0 {virtual override thunk({offset(-264)}, Dropdown::~Dropdown())}
FUNC 9cea8 2 0 {virtual override thunk({offset(-316)}, cocos2d::CCMenu::setOpacityModifyRGB(bool))}
FUNC 9ceaa 4 0 {virtual override thunk({offset(-316)}, cocos2d::CCMenu::isOpacityModifyRGB())}
FUNC 9ceae 10 0 CCContentSizeTo::~CCContentSizeTo()
FUNC 9cec0 6c 0 CCContentSizeTo::update(float)
FUNC 9cf2c 4 0 cocos2d::CCAction::setTag(int)
FUNC 9cf30 22 0 CCContentSizeTo::startWithTarget(cocos2d::CCNode*)
FUNC 9cf54 2a8 0 std::__ndk1::vector<std::__ndk1::basic_string<char, std::__ndk1::char_traits<char>, std::__ndk1::allocator<char> >, std::__ndk1::allocator<std::__ndk1::basic_string<char, std::__ndk1::char_traits<char>, std::__ndk1::allocator<char> > > >::__assign_with_size[abi:ne180000]<std::__ndk1::basic_string<char, std::__ndk1::char_traits<char>, std::__ndk1::allocator<char> >*, std::__ndk1::vector<std::__ndk1::basic_string<char, std::__ndk1::char_traits<char>, std::__ndk1::allocator<char> >, std::__ndk1::allocator<std::__ndk1::basic_string<char, std::__ndk1::char_traits<char>, std::__ndk1::allocator<char> > > >::__assign_with_size[abi:ne180000]>(std::__ndk1::basic_string<char, std::__ndk1::char_traits<char>, std::__ndk1::allocator<char> >*, std::__ndk1::vector<std::__ndk1::basic_string<char, std::__ndk1::char_traits<char>, std::__ndk1::allocator<char> >, std::__ndk1::allocator<std::__ndk1::basic_string<char, std::__ndk1::char_traits<char>, std::__ndk1::allocator<char> > > >::__assign_with_size[abi:ne180000], int)
FUNC 9d1fc 10 0 std::__ndk1::vector<cocos2d::CCMenuItemSprite*, std::__ndk1::allocator<cocos2d::CCMenuItemSprite*> >::__throw_length_error[abi:ne180000]() const
FUNC 9d20c d4 0 std::__ndk1::vector<std::__ndk1::basic_string<char, std::__ndk1::char_traits<char>, std::__ndk1::allocator<char> >, std::__ndk1::allocator<std::__ndk1::basic_string<char, std::__ndk1::char_traits<char>, std::__ndk1::allocator<char> > > >::__init_with_size[abi:ne180000]<std::__ndk1::basic_string<char, std::__ndk1::char_traits<char>, std::__ndk1::allocator<char> >*, std::__ndk1::vector<std::__ndk1::basic_string<char, std::__ndk1::char_traits<char>, std::__ndk1::allocator<char> >, std::__ndk1::allocator<std::__ndk1::basic_string<char, std::__ndk1::char_traits<char>, std::__ndk1::allocator<char> > > >::__init_with_size[abi:ne180000]>(std::__ndk1::basic_string<char, std::__ndk1::char_traits<char>, std::__ndk1::allocator<char> >*, std::__ndk1::vector<std::__ndk1::basic_string<char, std::__ndk1::char_traits<char>, std::__ndk1::allocator<char> >, std::__ndk1::allocator<std::__ndk1::basic_string<char, std::__ndk1::char_traits<char>, std::__ndk1::allocator<char> > > >::__init_with_size[abi:ne180000], unsigned int)
FUNC 9d2e0 1230 0 Module::drawImGui()
FUNC 9e510 1cc 0 Module::onToggleAndroid(cocos2d::CCObject*)
FUNC 9e6dc 40 0 Module::onOptionsAndroid(cocos2d::CCObject*)
FUNC 9e71c 98 0 Module::onInfoAndroid(cocos2d::CCObject*)
FUNC 9e7b4 160 0 Module::enableHooks()
FUNC 9e914 160 0 Module::disableHooks()
FUNC 9ea74 148 0 Module::enablePatches()
FUNC 9ebbc 148 0 Module::disablePatches()
FUNC 9ed04 56c 0 Module::makeAndroid(cocos2d::CCNode*, cocos2d::CCPoint)
FUNC 9f270 100 0 Module::addHookRaw(geode::Result<geode::Hook*, std::__ndk1::basic_string<char, std::__ndk1::char_traits<char>, std::__ndk1::allocator<char> > >)
FUNC 9f370 174 0 Module::addHook(geode::Hook*)
FUNC 9f4e4 60 0 geode::impl::ResultData<void, std::__ndk1::basic_string<char, std::__ndk1::char_traits<char>, std::__ndk1::allocator<char> > >::~ResultData()
FUNC 9f544 174 0 Module::addPatch(geode::Patch*)
FUNC 9f6b8 188 0 Module::save()
FUNC 9f840 184 0 Module::load()
FUNC 9f9c4 bc 0 Module::~Module()
FUNC 9fa80 10 0 Module::~Module()
FUNC 9fa90 16 0 Module::onChange()
FUNC 9faa8 10 0 std::__ndk1::vector<geode::Hook*, std::__ndk1::allocator<geode::Hook*> >::__throw_length_error[abi:ne180000]() const
FUNC 9fab8 10 0 std::__ndk1::vector<geode::Patch*, std::__ndk1::allocator<geode::Patch*> >::__throw_length_error[abi:ne180000]() const
FUNC 9fac8 4 0 std::__ndk1::__function::__func<Module::makeAndroid(cocos2d::CCNode*, cocos2d::CCPoint)::$_0, std::__ndk1::allocator<Module::makeAndroid(cocos2d::CCNode*, cocos2d::CCPoint)::$_0>, void ()>::~__func()
FUNC 9facc 28 0 std::__ndk1::__function::__func<Module::makeAndroid(cocos2d::CCNode*, cocos2d::CCPoint)::$_0, std::__ndk1::allocator<Module::makeAndroid(cocos2d::CCNode*, cocos2d::CCPoint)::$_0>, void ()>::__clone() const
FUNC 9faf4 20 0 std::__ndk1::__function::__func<Module::makeAndroid(cocos2d::CCNode*, cocos2d::CCPoint)::$_0, std::__ndk1::allocator<Module::makeAndroid(cocos2d::CCNode*, cocos2d::CCPoint)::$_0>, void ()>::__clone(std::__ndk1::__function::__base<void ()>*) const
FUNC 9fb14 2 0 std::__ndk1::__function::__func<Module::makeAndroid(cocos2d::CCNode*, cocos2d::CCPoint)::$_0, std::__ndk1::allocator<Module::makeAndroid(cocos2d::CCNode*, cocos2d::CCPoint)::$_0>, void ()>::destroy()
FUNC 9fb16 4 0 std::__ndk1::__function::__func<Module::makeAndroid(cocos2d::CCNode*, cocos2d::CCPoint)::$_0, std::__ndk1::allocator<Module::makeAndroid(cocos2d::CCNode*, cocos2d::CCPoint)::$_0>, void ()>::destroy_deallocate()
FUNC 9fb1c 84 0 std::__ndk1::__function::__func<Module::makeAndroid(cocos2d::CCNode*, cocos2d::CCPoint)::$_0, std::__ndk1::allocator<Module::makeAndroid(cocos2d::CCNode*, cocos2d::CCPoint)::$_0>, void ()>::operator()()
FUNC 9fba0 18 0 std::__ndk1::__function::__func<Module::makeAndroid(cocos2d::CCNode*, cocos2d::CCPoint)::$_0, std::__ndk1::allocator<Module::makeAndroid(cocos2d::CCNode*, cocos2d::CCPoint)::$_0>, void ()>::target(std::type_info const&) const
FUNC 9fbb8 c 0 std::__ndk1::__function::__func<Module::makeAndroid(cocos2d::CCNode*, cocos2d::CCPoint)::$_0, std::__ndk1::allocator<Module::makeAndroid(cocos2d::CCNode*, cocos2d::CCPoint)::$_0>, void ()>::target_type() const
FUNC 9fbc4 4 0 std::__ndk1::__function::__func<Module::makeAndroid(cocos2d::CCNode*, cocos2d::CCPoint)::$_1, std::__ndk1::allocator<Module::makeAndroid(cocos2d::CCNode*, cocos2d::CCPoint)::$_1>, void ()>::~__func()
FUNC 9fbc8 28 0 std::__ndk1::__function::__func<Module::makeAndroid(cocos2d::CCNode*, cocos2d::CCPoint)::$_1, std::__ndk1::allocator<Module::makeAndroid(cocos2d::CCNode*, cocos2d::CCPoint)::$_1>, void ()>::__clone() const
FUNC 9fbf0 20 0 std::__ndk1::__function::__func<Module::makeAndroid(cocos2d::CCNode*, cocos2d::CCPoint)::$_1, std::__ndk1::allocator<Module::makeAndroid(cocos2d::CCNode*, cocos2d::CCPoint)::$_1>, void ()>::__clone(std::__ndk1::__function::__base<void ()>*) const
FUNC 9fc10 2 0 std::__ndk1::__function::__func<Module::makeAndroid(cocos2d::CCNode*, cocos2d::CCPoint)::$_1, std::__ndk1::allocator<Module::makeAndroid(cocos2d::CCNode*, cocos2d::CCPoint)::$_1>, void ()>::destroy()
FUNC 9fc12 4 0 std::__ndk1::__function::__func<Module::makeAndroid(cocos2d::CCNode*, cocos2d::CCPoint)::$_1, std::__ndk1::allocator<Module::makeAndroid(cocos2d::CCNode*, cocos2d::CCPoint)::$_1>, void ()>::destroy_deallocate()
FUNC 9fc18 7c 0 std::__ndk1::__function::__func<Module::makeAndroid(cocos2d::CCNode*, cocos2d::CCPoint)::$_1, std::__ndk1::allocator<Module::makeAndroid(cocos2d::CCNode*, cocos2d::CCPoint)::$_1>, void ()>::operator()()
FUNC 9fc94 18 0 std::__ndk1::__function::__func<Module::makeAndroid(cocos2d::CCNode*, cocos2d::CCPoint)::$_1, std::__ndk1::allocator<Module::makeAndroid(cocos2d::CCNode*, cocos2d::CCPoint)::$_1>, void ()>::target(std::type_info const&) const
FUNC 9fcac c 0 std::__ndk1::__function::__func<Module::makeAndroid(cocos2d::CCNode*, cocos2d::CCPoint)::$_1, std::__ndk1::allocator<Module::makeAndroid(cocos2d::CCNode*, cocos2d::CCPoint)::$_1>, void ()>::target_type() const
FUNC 9fcb8 220 0 ColourModule::makeAndroid(cocos2d::CCNode*, cocos2d::CCPoint)
FUNC 9fed8 26 0 ColourModule::onPickColourAndroid(cocos2d::CCObject*)
FUNC 9fefe 30 0 ColourModule::updateColor(cocos2d::_ccColor4B const&)
FUNC 9ff2e 34 0 {virtual override thunk({offset(-436)}, ColourModule::updateColor(cocos2d::_ccColor4B const&))}
FUNC 9ff64 128 0 ColourModule::ColourModule(std::__ndk1::basic_string<char, std::__ndk1::char_traits<char>, std::__ndk1::allocator<char> >, std::__ndk1::basic_string<char, std::__ndk1::char_traits<char>, std::__ndk1::allocator<char> >, cocos2d::_ccColor3B)
FUNC a008c 11c 0 ColourModule::save()
FUNC a01a8 90 0 geode::Mod::setSavedValue<cocos2d::_ccColor3B>(std::__ndk1::basic_string_view<char, std::__ndk1::char_traits<char> >, cocos2d::_ccColor3B const&)
FUNC a0238 130 0 ColourModule::load()
FUNC a0368 158 0 geode::Mod::getSavedValue<cocos2d::_ccColor3B>(std::__ndk1::basic_string_view<char, std::__ndk1::char_traits<char> >, cocos2d::_ccColor3B const&)
FUNC a04c0 10 0 ColourModule::~ColourModule()
FUNC a04d0 114 0 geode::Mod::getSavedValue<cocos2d::_ccColor3B>(std::__ndk1::basic_string_view<char, std::__ndk1::char_traits<char> >)
FUNC a05e4 2 0 std::__ndk1::__variant_detail::__visitation::__base::__dispatcher<(unsigned int)0>::__dispatch[abi:ne180000]<std::__ndk1::__variant_detail::__dtor<std::__ndk1::__variant_detail::__traits<cocos2d::_ccColor3B, std::__ndk1::basic_string<char, std::__ndk1::char_traits<char>, std::__ndk1::allocator<char> > >, (std::__ndk1::__variant_detail::_Trait)1>::__destroy[abi:ne180000]()::{lambda(auto:1&)#1}, std::__ndk1::__variant_detail::__base<(std::__ndk1::__variant_detail::__traits<cocos2d::_ccColor3B, std::__ndk1::basic_string<char, std::__ndk1::char_traits<char>, std::__ndk1::allocator<char> > >)1, cocos2d, std::__ndk1::allocator<char> >&>(std::__ndk1::__variant_detail::__dtor<std::__ndk1::__variant_detail::__traits<cocos2d::_ccColor3B, std::__ndk1::basic_string<char, std::__ndk1::char_traits<char>, std::__ndk1::allocator<char> > >, (std::__ndk1::__variant_detail::_Trait)1>, std::__ndk1::__variant_detail::__base<(std::__ndk1::__variant_detail::__traits<cocos2d::_ccColor3B, std::__ndk1::basic_string<char, std::__ndk1::char_traits<char>, std::__ndk1::allocator<char> > >)1, cocos2d, std::__ndk1::allocator<char> >&)
FUNC a05e6 e 0 std::__ndk1::__variant_detail::__visitation::__base::__dispatcher<(unsigned int)1>::__dispatch[abi:ne180000]<std::__ndk1::__variant_detail::__dtor<std::__ndk1::__variant_detail::__traits<cocos2d::_ccColor3B, std::__ndk1::basic_string<char, std::__ndk1::char_traits<char>, std::__ndk1::allocator<char> > >, (std::__ndk1::__variant_detail::_Trait)1>::__destroy[abi:ne180000]()::{lambda(auto:1&)#1}, std::__ndk1::__variant_detail::__base<(std::__ndk1::__variant_detail::__traits<cocos2d::_ccColor3B, std::__ndk1::basic_string<char, std::__ndk1::char_traits<char>, std::__ndk1::allocator<char> > >)1, cocos2d, std::__ndk1::allocator<char> >&>(std::__ndk1::__variant_detail::__dtor<std::__ndk1::__variant_detail::__traits<cocos2d::_ccColor3B, std::__ndk1::basic_string<char, std::__ndk1::char_traits<char>, std::__ndk1::allocator<char> > >, (std::__ndk1::__variant_detail::_Trait)1>, std::__ndk1::__variant_detail::__base<(std::__ndk1::__variant_detail::__traits<cocos2d::_ccColor3B, std::__ndk1::basic_string<char, std::__ndk1::char_traits<char>, std::__ndk1::allocator<char> > >)1, cocos2d, std::__ndk1::allocator<char> >&)
FUNC a05f4 80 0 geode::Mod::setSavedValue<int>(std::__ndk1::basic_string_view<char, std::__ndk1::char_traits<char> >, int const&)
FUNC a0674 108 0 geode::Mod::getSavedValue<int>(std::__ndk1::basic_string_view<char, std::__ndk1::char_traits<char> >)
FUNC a077c 54 0 __cxx_global_var_init.29
FUNC a07d0 1e 0 std::__ndk1::vector<ThreadedLabelBMFont*, std::__ndk1::allocator<ThreadedLabelBMFont*> >::~vector[abi:ne180000]()
FUNC a07ee c8 0 std::__ndk1::basic_string<char, std::__ndk1::char_traits<char>, std::__ndk1::allocator<char> >::__assign_external(char const*, unsigned int)
FUNC a08b6 2 0 std::__ndk1::__function::__base<void (std::__ndk1::basic_string<char, std::__ndk1::char_traits<char>, std::__ndk1::allocator<char> >)>::~__base()
FUNC a08b8 138 0 imguiTextInputChanged(ImGuiInputTextCallbackData*)
FUNC a09f0 8c 0 InputModule::drawImGui()
FUNC a0a7c 444 0 InputModule::makeAndroid(cocos2d::CCNode*, cocos2d::CCPoint)
FUNC a0ec0 70 0 InputModule::textChanged(CCTextInputNode*)
FUNC a0f30 8 0 {virtual override thunk({offset(-436)}, InputModule::textChanged(CCTextInputNode*))}
FUNC a0f38 11c 0 InputModule::InputModule()
FUNC a1054 1e0 0 InputModule::InputModule(std::__ndk1::basic_string<char, std::__ndk1::char_traits<char>, std::__ndk1::allocator<char> >, std::__ndk1::basic_string<char, std::__ndk1::char_traits<char>, std::__ndk1::allocator<char> >, std::__ndk1::basic_string<char, std::__ndk1::char_traits<char>, std::__ndk1::allocator<char> >)
FUNC a1234 12c 0 InputModule::save()
FUNC a1360 19c 0 InputModule::load()
FUNC a14fc 168 0 InputModule::updateValue()
FUNC a1664 10c 0 geode::utils::numFromString<float>(std::__ndk1::basic_string_view<char, std::__ndk1::char_traits<char> >, int)
FUNC a1770 17c 0 geode::utils::numFromString<int>(std::__ndk1::basic_string_view<char, std::__ndk1::char_traits<char> >, int)
FUNC a18ec 60 0 geode::impl::ResultData<float, std::__ndk1::basic_string<char, std::__ndk1::char_traits<char>, std::__ndk1::allocator<char> > >::~ResultData()
FUNC a194c 64 0 InputModule::~InputModule()
FUNC a19b0 68 0 InputModule::~InputModule()
FUNC a1a18 4 0 std::__ndk1::__function::__func<InputModule::load()::$_0, std::__ndk1::allocator<InputModule::load()::$_0>, void ()>::~__func()
FUNC a1a1c 20 0 std::__ndk1::__function::__func<InputModule::load()::$_0, std::__ndk1::allocator<InputModule::load()::$_0>, void ()>::__clone() const
FUNC a1a3c 14 0 std::__ndk1::__function::__func<InputModule::load()::$_0, std::__ndk1::allocator<InputModule::load()::$_0>, void ()>::__clone(std::__ndk1::__function::__base<void ()>*) const
FUNC a1a50 2 0 std::__ndk1::__function::__func<InputModule::load()::$_0, std::__ndk1::allocator<InputModule::load()::$_0>, void ()>::destroy()
FUNC a1a52 4 0 std::__ndk1::__function::__func<InputModule::load()::$_0, std::__ndk1::allocator<InputModule::load()::$_0>, void ()>::destroy_deallocate()
FUNC a1a58 c4 0 std::__ndk1::__function::__func<InputModule::load()::$_0, std::__ndk1::allocator<InputModule::load()::$_0>, void ()>::operator()()
FUNC a1b1c 18 0 std::__ndk1::__function::__func<InputModule::load()::$_0, std::__ndk1::allocator<InputModule::load()::$_0>, void ()>::target(std::type_info const&) const
FUNC a1b34 c 0 std::__ndk1::__function::__func<InputModule::load()::$_0, std::__ndk1::allocator<InputModule::load()::$_0>, void ()>::target_type() const
FUNC a1b40 1a4 0 _ZNSt6__ndk121__from_chars_integralB8ne180000IjTnNS_9enable_ifIXsr11is_unsignedIT_EE5valueEiE4typeELi0EEENS_17from_chars_resultEPKcS7_RS2_i
FUNC a1ce4 100 0 _ZNSt6__ndk124__subject_seq_combinatorB8ne180000IPKcjZNS_21__from_chars_integralB8ne180000IjTnNS_9enable_ifIXsr11is_unsignedIT_EE5valueEiE4typeELi0EEENS_17from_chars_resultES2_S2_RS5_iEUlS2_S2_RjiE_JiEEES8_S5_S5_RT0_T1_DpT2_
FUNC a1de4 17c 0 _ZZNSt6__ndk121__from_chars_integralB8ne180000IjTnNS_9enable_ifIXsr11is_unsignedIT_EE5valueEiE4typeELi0EEENS_17from_chars_resultEPKcS7_RS2_iENKUlS7_S7_RjiE_clES7_S7_S9_i
FUNC a1f60 294 0 SliderModule::makeAndroid(cocos2d::CCNode*, cocos2d::CCPoint)
FUNC a21f4 2a 0 SliderModule::onSliderChanged(cocos2d::CCObject*)
FUNC a2220 fc 0 SliderModule::SliderModule(std::__ndk1::basic_string<char, std::__ndk1::char_traits<char>, std::__ndk1::allocator<char> >, std::__ndk1::basic_string<char, std::__ndk1::char_traits<char>, std::__ndk1::allocator<char> >, float)
FUNC a231c 11c 0 SliderModule::save()
FUNC a2438 124 0 SliderModule::load()
FUNC a255c 10 0 SliderModule::~SliderModule()
FUNC a256c 3bc 0 TransCustomizerModule::makeAndroid(cocos2d::CCNode*, cocos2d::CCPoint)
FUNC a2928 184 0 TransCustomizerModule::onLeft(cocos2d::CCObject*)
FUNC a2aac 184 0 TransCustomizerModule::onRight(cocos2d::CCObject*)
FUNC a2c30 2 0 TransCustomizerModule::save()
FUNC a2c32 2 0 TransCustomizerModule::load()
FUNC a2c34 10 0 TransCustomizerModule::~TransCustomizerModule()
FUNC a2c44 2 0 std::__ndk1::__function::__base<void (std::__ndk1::basic_string<char, std::__ndk1::char_traits<char>, std::__ndk1::allocator<char> > const&)>::~__base()
FUNC a2c46 4 0 std::__ndk1::__function::__func<TransCustomizerModule::makeAndroid(cocos2d::CCNode*, cocos2d::CCPoint)::$_0, std::__ndk1::allocator<TransCustomizerModule::makeAndroid(cocos2d::CCNode*, cocos2d::CCPoint)::$_0>, void (std::__ndk1::basic_string<char, std::__ndk1::char_traits<char>, std::__ndk1::allocator<char> > const&)>::~__func()
FUNC a2c4c 20 0 std::__ndk1::__function::__func<TransCustomizerModule::makeAndroid(cocos2d::CCNode*, cocos2d::CCPoint)::$_0, std::__ndk1::allocator<TransCustomizerModule::makeAndroid(cocos2d::CCNode*, cocos2d::CCPoint)::$_0>, void (std::__ndk1::basic_string<char, std::__ndk1::char_traits<char>, std::__ndk1::allocator<char> > const&)>::__clone() const
FUNC a2c6c 14 0 std::__ndk1::__function::__func<TransCustomizerModule::makeAndroid(cocos2d::CCNode*, cocos2d::CCPoint)::$_0, std::__ndk1::allocator<TransCustomizerModule::makeAndroid(cocos2d::CCNode*, cocos2d::CCPoint)::$_0>, void (std::__ndk1::basic_string<char, std::__ndk1::char_traits<char>, std::__ndk1::allocator<char> > const&)>::__clone(std::__ndk1::__function::__base<void (std::__ndk1::basic_string<char, std::__ndk1::char_traits<char>, std::__ndk1::allocator<char> > const&)>*) const
FUNC a2c80 2 0 std::__ndk1::__function::__func<TransCustomizerModule::makeAndroid(cocos2d::CCNode*, cocos2d::CCPoint)::$_0, std::__ndk1::allocator<TransCustomizerModule::makeAndroid(cocos2d::CCNode*, cocos2d::CCPoint)::$_0>, void (std::__ndk1::basic_string<char, std::__ndk1::char_traits<char>, std::__ndk1::allocator<char> > const&)>::destroy()
FUNC a2c82 4 0 std::__ndk1::__function::__func<TransCustomizerModule::makeAndroid(cocos2d::CCNode*, cocos2d::CCPoint)::$_0, std::__ndk1::allocator<TransCustomizerModule::makeAndroid(cocos2d::CCNode*, cocos2d::CCPoint)::$_0>, void (std::__ndk1::basic_string<char, std::__ndk1::char_traits<char>, std::__ndk1::allocator<char> > const&)>::destroy_deallocate()
FUNC a2c88 e8 0 std::__ndk1::__function::__func<TransCustomizerModule::makeAndroid(cocos2d::CCNode*, cocos2d::CCPoint)::$_0, std::__ndk1::allocator<TransCustomizerModule::makeAndroid(cocos2d::CCNode*, cocos2d::CCPoint)::$_0>, void (std::__ndk1::basic_string<char, std::__ndk1::char_traits<char>, std::__ndk1::allocator<char> > const&)>::operator()(std::__ndk1::basic_string<char, std::__ndk1::char_traits<char>, std::__ndk1::allocator<char> > const&)
FUNC a2d70 18 0 std::__ndk1::__function::__func<TransCustomizerModule::makeAndroid(cocos2d::CCNode*, cocos2d::CCPoint)::$_0, std::__ndk1::allocator<TransCustomizerModule::makeAndroid(cocos2d::CCNode*, cocos2d::CCPoint)::$_0>, void (std::__ndk1::basic_string<char, std::__ndk1::char_traits<char>, std::__ndk1::allocator<char> > const&)>::target(std::type_info const&) const
FUNC a2d88 c 0 std::__ndk1::__function::__func<TransCustomizerModule::makeAndroid(cocos2d::CCNode*, cocos2d::CCPoint)::$_0, std::__ndk1::allocator<TransCustomizerModule::makeAndroid(cocos2d::CCNode*, cocos2d::CCPoint)::$_0>, void (std::__ndk1::basic_string<char, std::__ndk1::char_traits<char>, std::__ndk1::allocator<char> > const&)>::target_type() const
FUNC a2d94 4a8 0 Window::drawImGui()
FUNC a323c 4 0 Window::getPosition()
FUNC a3240 16 0 Window::setPosition(cocos2d::CCPoint const&)
FUNC a3258 2b8 0 Window::cocosCreate(cocos2d::CCMenu*)
FUNC a3510 78 0 Window::~Window()
FUNC a3588 7c 0 Window::~Window()
FUNC a3604 24d8 0 Config::cocosCreate(cocos2d::CCMenu*)
FUNC a5adc c4 0 Config::createTabButton(std::__ndk1::basic_string<char, std::__ndk1::char_traits<char>, std::__ndk1::allocator<char> >, int)
FUNC a5ba0 64 0 Config::onDropdownChanged(cocos2d::CCObject*)
FUNC a5c04 24 0 Config::onManageKeybinds(cocos2d::CCObject*)
FUNC a5c28 24 0 Config::onChangeLanguage(cocos2d::CCObject*)
FUNC a5c4c 304 0 Config::onSliderChanged(cocos2d::CCObject*)
FUNC a5f50 88 0 Config::onDisableGP(cocos2d::CCObject*)
FUNC a5fd8 88 0 Config::onDisableEditor(cocos2d::CCObject*)
FUNC a6060 718 0 Config::createBtn(cocos2d::CCNode*, int)
FUNC a6778 1a4 0 Config::onRoxi(cocos2d::CCObject*)
FUNC a691c 180 0 Config::onLink(cocos2d::CCObject*)
FUNC a6a9c 178 0 Config::onChangeTab(cocos2d::CCObject*)
FUNC a6c14 16 0 geode::cocos::CCArrayExt<cocos2d::CCNode*, cocos2d::CCNode>::~CCArrayExt()
FUNC a6c2a 16 0 geode::cocos::CCArrayExt<CCMenuItemToggler*, CCMenuItemToggler>::~CCArrayExt()
FUNC a6c40 300 0 Config::changeTheme(cocos2d::CCObject*)
FUNC a6f40 5e8 0 Config::drawImGui()
FUNC a7528 7c 0 Config::~Config()
FUNC a75a4 10 0 std::__ndk1::vector<cocos2d::CCNode*, std::__ndk1::allocator<cocos2d::CCNode*> >::__throw_length_error[abi:ne180000]() const
FUNC a75b4 10 0 std::__ndk1::vector<cocos2d::extension::CCScale9Sprite*, std::__ndk1::allocator<cocos2d::extension::CCScale9Sprite*> >::__throw_length_error[abi:ne180000]() const
FUNC a75c4 10 0 std::__ndk1::basic_string<char, std::__ndk1::char_traits<char>, std::__ndk1::allocator<char> >::__throw_out_of_range[abi:ne180000]() const
FUNC a75d4 38 0 std::__ndk1::__throw_out_of_range[abi:ne180000](char const*)
FUNC a760c 18 0 std::out_of_range::out_of_range[abi:ne180000](char const*)
FUNC a7624 2 0 std::__ndk1::__function::__base<void (FLAlertLayer*, bool)>::~__base()
FUNC a7626 4 0 std::__ndk1::__function::__func<Config::onLink(cocos2d::CCObject*)::$_0, std::__ndk1::allocator<Config::onLink(cocos2d::CCObject*)::$_0>, void (FLAlertLayer*, bool)>::~__func()
FUNC a762c 18 0 std::__ndk1::__function::__func<Config::onLink(cocos2d::CCObject*)::$_0, std::__ndk1::allocator<Config::onLink(cocos2d::CCObject*)::$_0>, void (FLAlertLayer*, bool)>::__clone() const
FUNC a7644 10 0 std::__ndk1::__function::__func<Config::onLink(cocos2d::CCObject*)::$_0, std::__ndk1::allocator<Config::onLink(cocos2d::CCObject*)::$_0>, void (FLAlertLayer*, bool)>::__clone(std::__ndk1::__function::__base<void (FLAlertLayer*, bool)>*) const
FUNC a7654 2 0 std::__ndk1::__function::__func<Config::onLink(cocos2d::CCObject*)::$_0, std::__ndk1::allocator<Config::onLink(cocos2d::CCObject*)::$_0>, void (FLAlertLayer*, bool)>::destroy()
FUNC a7656 4 0 std::__ndk1::__function::__func<Config::onLink(cocos2d::CCObject*)::$_0, std::__ndk1::allocator<Config::onLink(cocos2d::CCObject*)::$_0>, void (FLAlertLayer*, bool)>::destroy_deallocate()
FUNC a765a 30 0 std::__ndk1::__function::__func<Config::onLink(cocos2d::CCObject*)::$_0, std::__ndk1::allocator<Config::onLink(cocos2d::CCObject*)::$_0>, void (FLAlertLayer*, bool)>::operator()(FLAlertLayer*&&, bool&&)
FUNC a768c 18 0 std::__ndk1::__function::__func<Config::onLink(cocos2d::CCObject*)::$_0, std::__ndk1::allocator<Config::onLink(cocos2d::CCObject*)::$_0>, void (FLAlertLayer*, bool)>::target(std::type_info const&) const
FUNC a76a4 c 0 std::__ndk1::__function::__func<Config::onLink(cocos2d::CCObject*)::$_0, std::__ndk1::allocator<Config::onLink(cocos2d::CCObject*)::$_0>, void (FLAlertLayer*, bool)>::target_type() const
FUNC a76b0 330 0 EffectUI::getColourForSelected(int, bool)
FUNC a79e0 f0 0 EffectUI::getIncompatibleModLoaded()
FUNC a7ad0 23c 0 EffectUI::getIncompatibleMods()
FUNC a7d0c 320 0 EffectUI::updateValues()
FUNC a802c 3c0 0 __cxx_global_var_init.41
FUNC a83ec 2d0 0 __cxx_global_var_init.42
FUNC a86bc 4 0 _GLOBAL__sub_I_IconEffects.cpp
FUNC a86c0 20 0 geode::modifier::ModifyBase<geode::modifier::ModifyDerive<hook132<(anonymous namespace)::hook132Parent>, GJBaseGameLayer> >::~ModifyBase()
FUNC a86e0 20 0 geode::modifier::ModifyBase<geode::modifier::ModifyDerive<hook180<(anonymous namespace)::hook180Parent>, MenuLayer> >::~ModifyBase()
FUNC a8700 30c 0 geode::modifier::ModifyDerive<hook132<(anonymous namespace)::hook132Parent>, GJBaseGameLayer>::apply()
FUNC a8a0c 2 0 geode::modifier::ModifyBase<geode::modifier::ModifyDerive<hook132<(anonymous namespace)::hook132Parent>, GJBaseGameLayer> >::apply()
FUNC a8a10 108 0 geode::modifier::ModifyBase<geode::modifier::ModifyDerive<hook132<(anonymous namespace)::hook132Parent>, GJBaseGameLayer> >::getHook(std::__ndk1::basic_string_view<char, std::__ndk1::char_traits<char> >)
FUNC a8b18 44 0 geode::addresser::getVirtual<void (GJBaseGameLayer::*)(float)>(void (GJBaseGameLayer::*)(float))
FUNC a8b5c 20c 0 geode::modifier::AsStaticFunction_update<hook132<(anonymous namespace)::hook132Parent>, void (hook132<(anonymous namespace)::hook132Parent>::*)(float)>::Impl<void (hook132<(anonymous namespace)::hook132Parent>::*)(float)>::function(hook132<(anonymous namespace)::hook132Parent>*, float)
FUNC a8d68 6c 0 _ZN5geode9addresser9Addresser14cachedInstanceI15GJBaseGameLayerEEPT_vQ18HasZeroConstructorIS4_E
FUNC a8dd4 60a 0 GJBaseGameLayer::GJBaseGameLayer(geode::ZeroConstructorType)
FUNC a93e0 3e0 0 GJGameState::GJGameState()
FUNC a97c0 3a 0 geode::stl::unordered_map<int, int, geode::stl::hash<int>, geode::stl::equal_to<int>, std::__ndk1::allocator<std::__ndk1::pair<int const, int> > >::~unordered_map()
FUNC a97fa 3a 0 geode::stl::unordered_set<int, geode::stl::hash<int>, geode::stl::equal_to<int>, std::__ndk1::allocator<int> >::~unordered_set()
FUNC a9834 4c 0 geode::stl::unordered_map<int, gd::string, geode::stl::hash<int>, geode::stl::equal_to<int>, std::__ndk1::allocator<std::__ndk1::pair<int const, gd::string> > >::~unordered_map()
FUNC a9880 14 0 gd::map<std::__ndk1::pair<int, int>, int>::~map()
FUNC a9894 4e 0 geode::stl::unordered_map<int, gd::vector<LabelGameObject*>, geode::stl::hash<int>, geode::stl::equal_to<int>, std::__ndk1::allocator<std::__ndk1::pair<int const, gd::vector<LabelGameObject*> > > >::~unordered_map()
FUNC a98e2 3a 0 geode::stl::unordered_map<int, std::__ndk1::pair<int, int>, geode::stl::hash<int>, geode::stl::equal_to<int>, std::__ndk1::allocator<std::__ndk1::pair<int const, std::__ndk1::pair<int, int> > > >::~unordered_map()
FUNC a991c 4e 0 geode::stl::unordered_map<int, gd::vector<GameObject*>, geode::stl::hash<int>, geode::stl::equal_to<int>, std::__ndk1::allocator<std::__ndk1::pair<int const, gd::vector<GameObject*> > > >::~unordered_map()
FUNC a996a 3a 0 geode::stl::unordered_map<int, cocos2d::CCPoint, geode::stl::hash<int>, geode::stl::equal_to<int>, std::__ndk1::allocator<std::__ndk1::pair<int const, cocos2d::CCPoint> > >::~unordered_map()
FUNC a99a4 9a 0 gd::vector<geode::stl::unordered_map<int, int, geode::stl::hash<int>, geode::stl::equal_to<int>, std::__ndk1::allocator<std::__ndk1::pair<int const, int> > > >::~vector()
FUNC a9a3e 33a 0 GJGameState::~GJGameState()
FUNC a9d78 3a 0 geode::stl::unordered_map<int, SongChannelState, geode::stl::hash<int>, geode::stl::equal_to<int>, std::__ndk1::allocator<std::__ndk1::pair<int const, SongChannelState> > >::~unordered_map()
FUNC a9db2 14 0 gd::map<std::__ndk1::pair<int, int>, SFXTriggerInstance>::~map()
FUNC a9dc6 50 0 geode::stl::unordered_map<int, std::__ndk1::vector<int, std::__ndk1::allocator<int> >, geode::stl::hash<int>, geode::stl::equal_to<int>, std::__ndk1::allocator<std::__ndk1::pair<int const, std::__ndk1::vector<int, std::__ndk1::allocator<int> > > > >::~unordered_map()
FUNC a9e16 58 0 gd::vector<EnterEffectInstance>::~vector()
FUNC a9e6e 34 0 geode::stl::unordered_map<int, std::__ndk1::vector<EnterEffectInstance, std::__ndk1::allocator<EnterEffectInstance> >, geode::stl::hash<int>, geode::stl::equal_to<int>, std::__ndk1::allocator<std::__ndk1::pair<int const, std::__ndk1::vector<EnterEffectInstance, std::__ndk1::allocator<EnterEffectInstance> > > > >::~unordered_map()
FUNC a9ea2 14 0 gd::map<std::__ndk1::pair<GJGameEvent, int>, int>::~map()
FUNC a9eb6 14 0 gd::map<std::__ndk1::pair<GJGameEvent, int>, gd::vector<EventTriggerInstance> >::~map()
FUNC a9eca 3a 0 geode::stl::unordered_map<int, EnhancedGameObject*, geode::stl::hash<int>, geode::stl::equal_to<int>, std::__ndk1::allocator<std::__ndk1::pair<int const, EnhancedGameObject*> > >::~unordered_map()
FUNC a9f04 3a 0 geode::stl::unordered_map<int, GameObjectPhysics, geode::stl::hash<int>, geode::stl::equal_to<int>, std::__ndk1::allocator<std::__ndk1::pair<int const, GameObjectPhysics> > >::~unordered_map()
FUNC a9f3e 3a 0 geode::stl::unordered_map<int, GJValueTween, geode::stl::hash<int>, geode::stl::equal_to<int>, std::__ndk1::allocator<std::__ndk1::pair<int const, GJValueTween> > >::~unordered_map()
FUNC a9f78 3a 0 geode::stl::unordered_map<int, bool, geode::stl::hash<int>, geode::stl::equal_to<int>, std::__ndk1::allocator<std::__ndk1::pair<int const, bool> > >::~unordered_map()
FUNC a9fb4 11c 0 gd::map<std::__ndk1::pair<GJGameEvent, int>, gd::vector<EventTriggerInstance> >::map(std::__ndk1::map<std::__ndk1::pair<GJGameEvent, int>, gd::vector<EventTriggerInstance>, std::__ndk1::less<std::__ndk1::pair<GJGameEvent, int> >, std::__ndk1::allocator<std::__ndk1::pair<std::__ndk1::pair<GJGameEvent, int> const, gd::vector<EventTriggerInstance> > > >)
FUNC aa0d0 19e 0 gd::map<std::__ndk1::pair<GJGameEvent, int>, gd::vector<EventTriggerInstance> >::insert_pair(std::__ndk1::pair<std::__ndk1::pair<GJGameEvent, int>, gd::vector<EventTriggerInstance> > const&)
FUNC aa26e 40 0 std::__ndk1::pair<std::__ndk1::pair<GJGameEvent, int>, gd::vector<EventTriggerInstance> >::~pair()
FUNC aa2ae 40 0 std::__ndk1::pair<std::__ndk1::pair<GJGameEvent, int> const, gd::vector<EventTriggerInstance> >::~pair()
FUNC aa2ee 10a 0 gd::vector<EventTriggerInstance>::vector(gd::vector<EventTriggerInstance> const&)
FUNC aa3f8 17c 0 geode::stl::_rb_insert_rebalance(bool, geode::stl::_rb_tree_base*, geode::stl::_rb_tree_base*, geode::stl::_rb_tree_base&)
FUNC aa574 12e 0 gd::vector<EventTriggerInstance>::operator=(gd::vector<EventTriggerInstance> const&)
FUNC aa6a2 40 0 gd::vector<EventTriggerInstance>::~vector()
FUNC aa6e2 5c 0 std::__ndk1::__tree<std::__ndk1::__value_type<std::__ndk1::pair<GJGameEvent, int>, gd::vector<EventTriggerInstance> >, std::__ndk1::__map_value_compare<std::__ndk1::pair<GJGameEvent, int>, std::__ndk1::__value_type<std::__ndk1::pair<GJGameEvent, int>, gd::vector<EventTriggerInstance> >, std::__ndk1::less<std::__ndk1::pair<GJGameEvent, int> >, true>, std::__ndk1::allocator<std::__ndk1::__value_type<std::__ndk1::pair<GJGameEvent, int>, gd::vector<EventTriggerInstance> > > >::destroy(std::__ndk1::__tree_node<std::__ndk1::__value_type<std::__ndk1::pair<GJGameEvent, int>, gd::vector<EventTriggerInstance> >, void*>*)
FUNC aa73e 2c 0 gd::map<std::__ndk1::pair<int, int>, SFXTriggerInstance>::erase(geode::stl::_rb_tree_node<std::__ndk1::pair<std::__ndk1::pair<int, int>, SFXTriggerInstance> >*)
FUNC aa76a 2c 0 gd::map<int, EnterEffectAnimValue>::erase(geode::stl::_rb_tree_node<std::__ndk1::pair<int, EnterEffectAnimValue> >*)
FUNC aa796 64 0 geode::stl::__detail::_Hashtable_alloc<std::__ndk1::allocator<geode::stl::__detail::_Hash_node<std::__ndk1::pair<int const, std::__ndk1::vector<EnterEffectInstance, std::__ndk1::allocator<EnterEffectInstance> > >, false> > >::_M_deallocate_nodes(geode::stl::__detail::_Hash_node<std::__ndk1::pair<int const, std::__ndk1::vector<EnterEffectInstance, std::__ndk1::allocator<EnterEffectInstance> > >, false>*)
FUNC aa7fa 2c 0 gd::map<std::__ndk1::pair<GJGameEvent, int>, int>::erase(geode::stl::_rb_tree_node<std::__ndk1::pair<std::__ndk1::pair<GJGameEvent, int>, int> >*)
FUNC aa826 6e 0 gd::map<std::__ndk1::pair<GJGameEvent, int>, gd::vector<EventTriggerInstance> >::erase(geode::stl::_rb_tree_node<std::__ndk1::pair<std::__ndk1::pair<GJGameEvent, int>, gd::vector<EventTriggerInstance> > >*)
FUNC aa894 2c 0 gd::map<std::__ndk1::pair<int, int>, int>::erase(geode::stl::_rb_tree_node<std::__ndk1::pair<std::__ndk1::pair<int, int>, int> >*)
FUNC aa8c0 2cc 0 geode::modifier::ModifyDerive<hook180<(anonymous namespace)::hook180Parent>, MenuLayer>::apply()
FUNC aab8c 2 0 geode::modifier::ModifyBase<geode::modifier::ModifyDerive<hook180<(anonymous namespace)::hook180Parent>, MenuLayer> >::apply()
FUNC aab8e 44 0 geode::addresser::getVirtual<bool (MenuLayer::*)()>(bool (MenuLayer::*)())
FUNC aabd4 b8 0 geode::modifier::AsStaticFunction_init<hook180<(anonymous namespace)::hook180Parent>, bool (hook180<(anonymous namespace)::hook180Parent>::*)()>::Impl<bool (hook180<(anonymous namespace)::hook180Parent>::*)()>::function(hook180<(anonymous namespace)::hook180Parent>*)
FUNC aac8c 6c 0 _ZN5geode9addresser9Addresser14cachedInstanceI9MenuLayerEEPT_vQ18HasZeroConstructorIS4_E
FUNC aacf8 6c 0 MenuLayer::MenuLayer(geode::ZeroConstructorType)
FUNC aad64 988 0 Labels::cocosCreate(cocos2d::CCMenu*)
FUNC ab6ec d64 0 Labels::onAddItem(cocos2d::CCObject*)
FUNC ac450 24 0 Labels::onSetupSafeZone(cocos2d::CCObject*)
FUNC ac474 510 0 Labels::onImportFromFile(cocos2d::CCObject*)
FUNC ac984 c88 0 Labels::refreshList()
FUNC ad60c 2b8 0 Labels::save()
FUNC ad8c4 114 0 Labels::onDelete(cocos2d::CCObject*)
FUNC ad9d8 30 0 Labels::onSettings(cocos2d::CCObject*)
FUNC ada08 38 0 Labels::onToggleVisible(cocos2d::CCObject*)
FUNC ada40 2a 0 std::__ndk1::vector<matjson::Value, std::__ndk1::allocator<matjson::Value> >::~vector[abi:ne180000]()
FUNC ada6c 344 0 Labels::load()
FUNC addb0 1b60 0 Labels::loadFromPrevSave()
FUNC af910 138 0 geode::Mod::getSavedValue<matjson::Value>(std::__ndk1::basic_string_view<char, std::__ndk1::char_traits<char> >)
FUNC afa48 60 0 geode::impl::ResultData<std::__ndk1::vector<matjson::Value, std::__ndk1::allocator<matjson::Value> >&, std::__ndk1::basic_string<char, std::__ndk1::char_traits<char>, std::__ndk1::allocator<char> > >::~ResultData()
FUNC afaa8 3a 0 geode::Task<geode::Result<std::__ndk1::vector<std::__ndk1::__fs::filesystem::path, std::__ndk1::allocator<std::__ndk1::__fs::filesystem::path> >, std::__ndk1::basic_string<char, std::__ndk1::char_traits<char>, std::__ndk1::allocator<char> > >, std::__ndk1::monostate>::~Task()
FUNC afae2 4a 0 geode::utils::file::FilePickOptions::Filter::~Filter()
FUNC afb2c 30 0 geode::utils::file::FilePickOptions::~FilePickOptions()
FUNC afb5c 450 0 Labels::importFromFile(std::__ndk1::__fs::filesystem::path)
FUNC affac fc 0 geodeExecFunction726<(anonymous namespace)::ExecFuncUnique726>(geode::ModStateEvent*)
FUNC b00a8 b4 0 Labels::~Labels()
FUNC b015c 10 0 Labels::~Labels()
FUNC b016c 4c 0 __cxx_global_var_init.125
FUNC b01b8 20 0 geode::modifier::ModifyBase<geode::modifier::ModifyDerive<BestPlayLayer, PlayLayer> >::~ModifyBase()
FUNC b01d8 4c 0 __cxx_global_var_init.126
FUNC b0224 20 0 geode::modifier::ModifyBase<geode::modifier::ModifyDerive<RunPlayLayer, PlayLayer> >::~ModifyBase()
FUNC b0244 10 0 std::__ndk1::vector<LabelEvent, std::__ndk1::allocator<LabelEvent> >::__throw_length_error[abi:ne180000]() const
FUNC b0254 b6 0 std::__ndk1::vector<matjson::Value, std::__ndk1::allocator<matjson::Value> >::__push_back_slow_path<matjson::Value>(matjson::Value&&)
FUNC b030c 10 0 std::__ndk1::vector<matjson::Value, std::__ndk1::allocator<matjson::Value> >::__throw_length_error[abi:ne180000]() const
FUNC b031c 42 0 std::__ndk1::__exception_guard_exceptions<std::__ndk1::vector<matjson::Value, std::__ndk1::allocator<matjson::Value> >::__destroy_vector>::~__exception_guard_exceptions[abi:ne180000]()
FUNC b035e 2 0 std::__ndk1::__variant_detail::__visitation::__base::__dispatcher<(unsigned int)0>::__dispatch[abi:ne180000]<std::__ndk1::__variant_detail::__dtor<std::__ndk1::__variant_detail::__traits<std::__ndk1::reference_wrapper<std::__ndk1::vector<matjson::Value, std::__ndk1::allocator<matjson> > >, std::__ndk1::basic_string<char, std::__ndk1::char_traits<char>, matjson::Value<char> > >, (std::__ndk1::__variant_detail::_Trait)1>::__destroy[abi:ne180000]()::{lambda(auto:1&)#1}, std::__ndk1::__variant_detail::__base<(std::__ndk1::__variant_detail::__traits<std::__ndk1::reference_wrapper<std::__ndk1::vector<matjson::Value, std::__ndk1::allocator<matjson> > >, std::__ndk1::basic_string<char, std::__ndk1::char_traits<char>, matjson::Value<char> > >)1, std::__ndk1::vector<matjson::Value, std::__ndk1::allocator<matjson> >, matjson::Value<char> >&>(std::__ndk1::__variant_detail::__dtor<std::__ndk1::__variant_detail::__traits<std::__ndk1::reference_wrapper<std::__ndk1::vector<matjson::Value, std::__ndk1::allocator<matjson> > >, std::__ndk1::basic_string<char, std::__ndk1::char_traits<char>, matjson::Value<char> > >, (std::__ndk1::__variant_detail::_Trait)1>, std::__ndk1::__variant_detail::__base<(std::__ndk1::__variant_detail::__traits<std::__ndk1::reference_wrapper<std::__ndk1::vector<matjson::Value, std::__ndk1::allocator<matjson> > >, std::__ndk1::basic_string<char, std::__ndk1::char_traits<char>, matjson::Value<char> > >)1, std::__ndk1::vector<matjson::Value, std::__ndk1::allocator<matjson> >, matjson::Value<char> >&)
FUNC b0360 e 0 std::__ndk1::__variant_detail::__visitation::__base::__dispatcher<(unsigned int)1>::__dispatch[abi:ne180000]<std::__ndk1::__variant_detail::__dtor<std::__ndk1::__variant_detail::__traits<std::__ndk1::reference_wrapper<std::__ndk1::vector<matjson::Value, std::__ndk1::allocator<matjson> > >, std::__ndk1::basic_string<char, std::__ndk1::char_traits<char>, matjson::Value<char> > >, (std::__ndk1::__variant_detail::_Trait)1>::__destroy[abi:ne180000]()::{lambda(auto:1&)#1}, std::__ndk1::__variant_detail::__base<(std::__ndk1::__variant_detail::__traits<std::__ndk1::reference_wrapper<std::__ndk1::vector<matjson::Value, std::__ndk1::allocator<matjson> > >, std::__ndk1::basic_string<char, std::__ndk1::char_traits<char>, matjson::Value<char> > >)1, std::__ndk1::vector<matjson::Value, std::__ndk1::allocator<matjson> >, matjson::Value<char> >&>(std::__ndk1::__variant_detail::__dtor<std::__ndk1::__variant_detail::__traits<std::__ndk1::reference_wrapper<std::__ndk1::vector<matjson::Value, std::__ndk1::allocator<matjson> > >, std::__ndk1::basic_string<char, std::__ndk1::char_traits<char>, matjson::Value<char> > >, (std::__ndk1::__variant_detail::_Trait)1>, std::__ndk1::__variant_detail::__base<(std::__ndk1::__variant_detail::__traits<std::__ndk1::reference_wrapper<std::__ndk1::vector<matjson::Value, std::__ndk1::allocator<matjson> > >, std::__ndk1::basic_string<char, std::__ndk1::char_traits<char>, matjson::Value<char> > >)1, std::__ndk1::vector<matjson::Value, std::__ndk1::allocator<matjson> >, matjson::Value<char> >&)
FUNC b0370 22c 0 std::__ndk1::vector<geode::utils::file::FilePickOptions::Filter, std::__ndk1::allocator<geode::utils::file::FilePickOptions::Filter> >::__push_back_slow_path<geode::utils::file::FilePickOptions::Filter const&>(geode::utils::file::FilePickOptions::Filter const&)
FUNC b059c 124 0 std::__ndk1::unordered_set<std::__ndk1::basic_string<char, std::__ndk1::char_traits<char>, std::__ndk1::allocator<char> >, std::__ndk1::hash<std::__ndk1::basic_string<char, std::__ndk1::char_traits<char>, std::__ndk1::allocator<char> > >, std::__ndk1::equal_to<std::__ndk1::basic_string<char, std::__ndk1::char_traits<char>, std::__ndk1::allocator<char> > >, std::__ndk1::allocator<std::__ndk1::basic_string<char, std::__ndk1::char_traits<char>, std::__ndk1::allocator<char> > > >::unordered_set(std::__ndk1::unordered_set<std::__ndk1::basic_string<char, std::__ndk1::char_traits<char>, std::__ndk1::allocator<char> >, std::__ndk1::hash<std::__ndk1::basic_string<char, std::__ndk1::char_traits<char>, std::__ndk1::allocator<char> > >, std::__ndk1::equal_to<std::__ndk1::basic_string<char, std::__ndk1::char_traits<char>, std::__ndk1::allocator<char> > >, std::__ndk1::allocator<std::__ndk1::basic_string<char, std::__ndk1::char_traits<char>, std::__ndk1::allocator<char> > > > const&)
FUNC b06c0 3e 0 std::__ndk1::__hash_table<std::__ndk1::basic_string<char, std::__ndk1::char_traits<char>, std::__ndk1::allocator<char> >, std::__ndk1::hash<std::__ndk1::basic_string<char, std::__ndk1::char_traits<char>, std::__ndk1::allocator<char> > >, std::__ndk1::equal_to<std::__ndk1::basic_string<char, std::__ndk1::char_traits<char>, std::__ndk1::allocator<char> > >, std::__ndk1::allocator<std::__ndk1::basic_string<char, std::__ndk1::char_traits<char>, std::__ndk1::allocator<char> > > >::~__hash_table()
FUNC b06fe 10c 0 std::__ndk1::__hash_table<std::__ndk1::basic_string<char, std::__ndk1::char_traits<char>, std::__ndk1::allocator<char> >, std::__ndk1::hash<std::__ndk1::basic_string<char, std::__ndk1::char_traits<char>, std::__ndk1::allocator<char> > >, std::__ndk1::equal_to<std::__ndk1::basic_string<char, std::__ndk1::char_traits<char>, std::__ndk1::allocator<char> > >, std::__ndk1::allocator<std::__ndk1::basic_string<char, std::__ndk1::char_traits<char>, std::__ndk1::allocator<char> > > >::__do_rehash<true>(unsigned int)
FUNC b080c 39c 0 std::__ndk1::__hash_table<std::__ndk1::basic_string<char, std::__ndk1::char_traits<char>, std::__ndk1::allocator<char> >, std::__ndk1::hash<std::__ndk1::basic_string<char, std::__ndk1::char_traits<char>, std::__ndk1::allocator<char> > >, std::__ndk1::equal_to<std::__ndk1::basic_string<char, std::__ndk1::char_traits<char>, std::__ndk1::allocator<char> > >, std::__ndk1::allocator<std::__ndk1::basic_string<char, std::__ndk1::char_traits<char>, std::__ndk1::allocator<char> > > >::__emplace_unique_key_args<std::__ndk1::basic_string<char, std::__ndk1::char_traits<char>, std::__ndk1::allocator<char> >, std::__ndk1::basic_string<char, std::__ndk1::char_traits<char>, std::__ndk1::allocator<char> > const&>(std::__ndk1::basic_string<char, std::__ndk1::char_traits<char>, std::__ndk1::allocator<char> > const&, std::__ndk1::basic_string<char, std::__ndk1::char_traits<char>, std::__ndk1::allocator<char> > const&)
FUNC b0ba8 3a 0 std::__ndk1::unique_ptr<std::__ndk1::__hash_node<std::__ndk1::basic_string<char, std::__ndk1::char_traits<char>, std::__ndk1::allocator<char> >, void*>, std::__ndk1::__hash_node_destructor<std::__ndk1::allocator<std::__ndk1::__hash_node<std::__ndk1::basic_string<char, std::__ndk1::char_traits<char>, std::__ndk1::allocator<char> >, void*> > > >::~unique_ptr[abi:ne180000]()
FUNC b0be2 2c 0 std::__ndk1::__hash_table<std::__ndk1::basic_string<char, std::__ndk1::char_traits<char>, std::__ndk1::allocator<char> >, std::__ndk1::hash<std::__ndk1::basic_string<char, std::__ndk1::char_traits<char>, std::__ndk1::allocator<char> > >, std::__ndk1::equal_to<std::__ndk1::basic_string<char, std::__ndk1::char_traits<char>, std::__ndk1::allocator<char> > >, std::__ndk1::allocator<std::__ndk1::basic_string<char, std::__ndk1::char_traits<char>, std::__ndk1::allocator<char> > > >::__deallocate_node(std::__ndk1::__hash_node_base<std::__ndk1::__hash_node<std::__ndk1::basic_string<char, std::__ndk1::char_traits<char>, std::__ndk1::allocator<char> >, void*>*>*)
FUNC b0c0e 1a 0 std::__ndk1::__split_buffer<geode::utils::file::FilePickOptions::Filter, std::__ndk1::allocator<geode::utils::file::FilePickOptions::Filter>&>::~__split_buffer()
FUNC b0c28 10 0 std::__ndk1::vector<geode::utils::file::FilePickOptions::Filter, std::__ndk1::allocator<geode::utils::file::FilePickOptions::Filter> >::__throw_length_error[abi:ne180000]() const
FUNC b0c38 76 0 std::__ndk1::__split_buffer<geode::utils::file::FilePickOptions::Filter, std::__ndk1::allocator<geode::utils::file::FilePickOptions::Filter>&>::__destruct_at_end[abi:ne180000](geode::utils::file::FilePickOptions::Filter*)
FUNC b0cae 6e 0 std::__ndk1::vector<geode::utils::file::FilePickOptions::Filter, std::__ndk1::allocator<geode::utils::file::FilePickOptions::Filter> >::__base_destruct_at_end[abi:ne180000](geode::utils::file::FilePickOptions::Filter*)
FUNC b0d1c 29c 0 geode::modifier::ModifyBase<geode::modifier::ModifyDerive<BestPlayLayer, PlayLayer> >::ModifyBase()
FUNC b0fb8 464 0 geode::modifier::ModifyDerive<BestPlayLayer, PlayLayer>::apply()
FUNC b141c 2 0 geode::modifier::ModifyBase<geode::modifier::ModifyDerive<BestPlayLayer, PlayLayer> >::apply()
FUNC b141e 44 0 geode::addresser::getVirtual<void (PlayLayer::*)(PlayerObject*, GameObject*)>(void (PlayLayer::*)(PlayerObject*, GameObject*))
FUNC b1470 138 0 geode::Hook::create<void (*)(BestPlayLayer*, PlayerObject*, GameObject*)>(void*, void (*)(BestPlayLayer*, PlayerObject*, GameObject*), std::__ndk1::basic_string<char, std::__ndk1::char_traits<char>, std::__ndk1::allocator<char> > const&, tulip::hook::TulipConvention, tulip::hook::HookMetadata const&)
FUNC b15a8 4 0 geode::modifier::AsStaticFunction_destroyPlayer<BestPlayLayer, void (BestPlayLayer::*)(PlayerObject*, GameObject*)>::Impl<void (BestPlayLayer::*)(PlayerObject*, GameObject*)>::function(BestPlayLayer*, PlayerObject*, GameObject*)
FUNC b15ac cc 0 geode::Hook::create<void (*)(BestPlayLayer*)>(void*, void (*)(BestPlayLayer*), std::__ndk1::basic_string<char, std::__ndk1::char_traits<char>, std::__ndk1::allocator<char> > const&, tulip::hook::TulipConvention, tulip::hook::HookMetadata const&)
FUNC b1678 20 0 geode::modifier::AsStaticFunction_resetLevel<BestPlayLayer, void (BestPlayLayer::*)()>::Impl<void (BestPlayLayer::*)()>::function(BestPlayLayer*)
FUNC b1698 6c 0 _ZN5geode9addresser9Addresser14cachedInstanceI9PlayLayerEEPT_vQ18HasZeroConstructorIS4_E
FUNC b1704 90 0 PlayLayer::PlayLayer(geode::ZeroConstructorType)
FUNC b1794 606 0 GJBaseGameLayer::GJBaseGameLayer(geode::ZeroConstructorType, unsigned int)
FUNC b1d9c 29c 0 geode::modifier::ModifyBase<geode::modifier::ModifyDerive<RunPlayLayer, PlayLayer> >::ModifyBase()
FUNC b2038 264 0 geode::modifier::ModifyDerive<RunPlayLayer, PlayLayer>::apply()
FUNC b229c 2 0 geode::modifier::ModifyBase<geode::modifier::ModifyDerive<RunPlayLayer, PlayLayer> >::apply()
FUNC b22a0 cc 0 geode::Hook::create<void (*)(RunPlayLayer*)>(void*, void (*)(RunPlayLayer*), std::__ndk1::basic_string<char, std::__ndk1::char_traits<char>, std::__ndk1::allocator<char> > const&, tulip::hook::TulipConvention, tulip::hook::HookMetadata const&)
FUNC b236c 20 0 geode::modifier::AsStaticFunction_resetLevel<RunPlayLayer, void (RunPlayLayer::*)()>::Impl<void (RunPlayLayer::*)()>::function(RunPlayLayer*)
FUNC b238c 4 0 std::__ndk1::__function::__func<Labels::onDelete(cocos2d::CCObject*)::$_0, std::__ndk1::allocator<Labels::onDelete(cocos2d::CCObject*)::$_0>, void (FLAlertLayer*, bool)>::~__func()
FUNC b2390 20 0 std::__ndk1::__function::__func<Labels::onDelete(cocos2d::CCObject*)::$_0, std::__ndk1::allocator<Labels::onDelete(cocos2d::CCObject*)::$_0>, void (FLAlertLayer*, bool)>::__clone() const
FUNC b23b0 18 0 std::__ndk1::__function::__func<Labels::onDelete(cocos2d::CCObject*)::$_0, std::__ndk1::allocator<Labels::onDelete(cocos2d::CCObject*)::$_0>, void (FLAlertLayer*, bool)>::__clone(std::__ndk1::__function::__base<void (FLAlertLayer*, bool)>*) const
FUNC b23c8 2 0 std::__ndk1::__function::__func<Labels::onDelete(cocos2d::CCObject*)::$_0, std::__ndk1::allocator<Labels::onDelete(cocos2d::CCObject*)::$_0>, void (FLAlertLayer*, bool)>::destroy()
FUNC b23ca 4 0 std::__ndk1::__function::__func<Labels::onDelete(cocos2d::CCObject*)::$_0, std::__ndk1::allocator<Labels::onDelete(cocos2d::CCObject*)::$_0>, void (FLAlertLayer*, bool)>::destroy_deallocate()
FUNC b23d0 ac 0 std::__ndk1::__function::__func<Labels::onDelete(cocos2d::CCObject*)::$_0, std::__ndk1::allocator<Labels::onDelete(cocos2d::CCObject*)::$_0>, void (FLAlertLayer*, bool)>::operator()(FLAlertLayer*&&, bool&&)
FUNC b247c 18 0 std::__ndk1::__function::__func<Labels::onDelete(cocos2d::CCObject*)::$_0, std::__ndk1::allocator<Labels::onDelete(cocos2d::CCObject*)::$_0>, void (FLAlertLayer*, bool)>::target(std::type_info const&) const
FUNC b2494 c 0 std::__ndk1::__function::__func<Labels::onDelete(cocos2d::CCObject*)::$_0, std::__ndk1::allocator<Labels::onDelete(cocos2d::CCObject*)::$_0>, void (FLAlertLayer*, bool)>::target_type() const
FUNC b24a0 4 0 std::__ndk1::__function::__func<Labels::refreshList()::$_1, std::__ndk1::allocator<Labels::refreshList()::$_1>, void (std::__ndk1::basic_string<char, std::__ndk1::char_traits<char>, std::__ndk1::allocator<char> > const&)>::~__func()
FUNC b24a4 20 0 std::__ndk1::__function::__func<Labels::refreshList()::$_1, std::__ndk1::allocator<Labels::refreshList()::$_1>, void (std::__ndk1::basic_string<char, std::__ndk1::char_traits<char>, std::__ndk1::allocator<char> > const&)>::__clone() const
FUNC b24c4 18 0 std::__ndk1::__function::__func<Labels::refreshList()::$_1, std::__ndk1::allocator<Labels::refreshList()::$_1>, void (std::__ndk1::basic_string<char, std::__ndk1::char_traits<char>, std::__ndk1::allocator<char> > const&)>::__clone(std::__ndk1::__function::__base<void (std::__ndk1::basic_string<char, std::__ndk1::char_traits<char>, std::__ndk1::allocator<char> > const&)>*) const
FUNC b24dc 2 0 std::__ndk1::__function::__func<Labels::refreshList()::$_1, std::__ndk1::allocator<Labels::refreshList()::$_1>, void (std::__ndk1::basic_string<char, std::__ndk1::char_traits<char>, std::__ndk1::allocator<char> > const&)>::destroy()
FUNC b24de 4 0 std::__ndk1::__function::__func<Labels::refreshList()::$_1, std::__ndk1::allocator<Labels::refreshList()::$_1>, void (std::__ndk1::basic_string<char, std::__ndk1::char_traits<char>, std::__ndk1::allocator<char> > const&)>::destroy_deallocate()
FUNC b24e2 5a 0 std::__ndk1::__function::__func<Labels::refreshList()::$_1, std::__ndk1::allocator<Labels::refreshList()::$_1>, void (std::__ndk1::basic_string<char, std::__ndk1::char_traits<char>, std::__ndk1::allocator<char> > const&)>::operator()(std::__ndk1::basic_string<char, std::__ndk1::char_traits<char>, std::__ndk1::allocator<char> > const&)
FUNC b253c 18 0 std::__ndk1::__function::__func<Labels::refreshList()::$_1, std::__ndk1::allocator<Labels::refreshList()::$_1>, void (std::__ndk1::basic_string<char, std::__ndk1::char_traits<char>, std::__ndk1::allocator<char> > const&)>::target(std::type_info const&) const
FUNC b2554 c 0 std::__ndk1::__function::__func<Labels::refreshList()::$_1, std::__ndk1::allocator<Labels::refreshList()::$_1>, void (std::__ndk1::basic_string<char, std::__ndk1::char_traits<char>, std::__ndk1::allocator<char> > const&)>::target_type() const
FUNC b2560 4 0 std::__ndk1::__function::__func<Labels::refreshList()::$_2, std::__ndk1::allocator<Labels::refreshList()::$_2>, void ()>::~__func()
FUNC b2564 20 0 std::__ndk1::__function::__func<Labels::refreshList()::$_2, std::__ndk1::allocator<Labels::refreshList()::$_2>, void ()>::__clone() const
FUNC b2584 18 0 std::__ndk1::__function::__func<Labels::refreshList()::$_2, std::__ndk1::allocator<Labels::refreshList()::$_2>, void ()>::__clone(std::__ndk1::__function::__base<void ()>*) const
FUNC b259c 2 0 std::__ndk1::__function::__func<Labels::refreshList()::$_2, std::__ndk1::allocator<Labels::refreshList()::$_2>, void ()>::destroy()
FUNC b259e 4 0 std::__ndk1::__function::__func<Labels::refreshList()::$_2, std::__ndk1::allocator<Labels::refreshList()::$_2>, void ()>::destroy_deallocate()
FUNC b25a2 58 0 std::__ndk1::__function::__func<Labels::refreshList()::$_2, std::__ndk1::allocator<Labels::refreshList()::$_2>, void ()>::operator()()
FUNC b25fc 18 0 std::__ndk1::__function::__func<Labels::refreshList()::$_2, std::__ndk1::allocator<Labels::refreshList()::$_2>, void ()>::target(std::type_info const&) const
FUNC b2614 c 0 std::__ndk1::__function::__func<Labels::refreshList()::$_2, std::__ndk1::allocator<Labels::refreshList()::$_2>, void ()>::target_type() const
FUNC b2620 4 0 std::__ndk1::__function::__func<Labels::refreshList()::$_0, std::__ndk1::allocator<Labels::refreshList()::$_0>, void ()>::~__func()
FUNC b2624 28 0 std::__ndk1::__function::__func<Labels::refreshList()::$_0, std::__ndk1::allocator<Labels::refreshList()::$_0>, void ()>::__clone() const
FUNC b264c 1c 0 std::__ndk1::__function::__func<Labels::refreshList()::$_0, std::__ndk1::allocator<Labels::refreshList()::$_0>, void ()>::__clone(std::__ndk1::__function::__base<void ()>*) const
FUNC b2668 2 0 std::__ndk1::__function::__func<Labels::refreshList()::$_0, std::__ndk1::allocator<Labels::refreshList()::$_0>, void ()>::destroy()
FUNC b266a 4 0 std::__ndk1::__function::__func<Labels::refreshList()::$_0, std::__ndk1::allocator<Labels::refreshList()::$_0>, void ()>::destroy_deallocate()
FUNC b2670 1dc 0 std::__ndk1::__function::__func<Labels::refreshList()::$_0, std::__ndk1::allocator<Labels::refreshList()::$_0>, void ()>::operator()()
FUNC b284c 18 0 std::__ndk1::__function::__func<Labels::refreshList()::$_0, std::__ndk1::allocator<Labels::refreshList()::$_0>, void ()>::target(std::type_info const&) const
FUNC b2864 c 0 std::__ndk1::__function::__func<Labels::refreshList()::$_0, std::__ndk1::allocator<Labels::refreshList()::$_0>, void ()>::target_type() const
FUNC b2870 832 0 std::__ndk1::__introsort<std::__ndk1::_ClassicAlgPolicy, Labels::refreshList()::$_0::operator()() const::{lambda(cocos2d::CCNode*, cocos2d::CCNode*)#1}&, cocos2d::CCNode**, false>(cocos2d::CCNode**, cocos2d::CCNode**, Labels::refreshList()::$_0::operator()() const::{lambda(cocos2d::CCNode*, cocos2d::CCNode*)#1}&, std::__ndk1::iterator_traits<cocos2d::CCNode**>::difference_type, bool)
FUNC b30a2 114 0 std::__ndk1::__sort3[abi:ne180000]<std::__ndk1::_ClassicAlgPolicy, Labels::refreshList()::$_0::operator()() const::{lambda(cocos2d::CCNode*, cocos2d::CCNode&)#1}, cocos2d::CCNode*>(cocos2d::CCNode*, cocos2d::CCNode*, cocos2d::CCNode*, Labels::refreshList()::$_0::operator()() const::{lambda(cocos2d::CCNode*, cocos2d::CCNode&)#1})
FUNC b31b8 23a 0 std::__ndk1::__insertion_sort_incomplete[abi:ne180000]<std::__ndk1::_ClassicAlgPolicy, Labels::refreshList()::$_0::operator()() const::{lambda(cocos2d::CCNode*, cocos2d::CCNode&)#1}, cocos2d::CCNode*>(cocos2d::CCNode*, cocos2d::CCNode*, Labels::refreshList()::$_0::operator()() const::{lambda(cocos2d::CCNode*, cocos2d::CCNode&)#1})
FUNC b33f2 b8 0 std::__ndk1::__sort4[abi:ne180000]<std::__ndk1::_ClassicAlgPolicy, Labels::refreshList()::$_0::operator()() const::{lambda(cocos2d::CCNode*, cocos2d::CCNode&)#1}, cocos2d::CCNode*>(cocos2d::CCNode*, cocos2d::CCNode*, cocos2d::CCNode*, cocos2d::CCNode*, Labels::refreshList()::$_0::operator()() const::{lambda(cocos2d::CCNode*, cocos2d::CCNode&)#1})
FUNC b34ac 11c 0 std::__ndk1::__hash_table<std::__ndk1::basic_string<char, std::__ndk1::char_traits<char>, std::__ndk1::allocator<char> >, std::__ndk1::hash<std::__ndk1::basic_string<char, std::__ndk1::char_traits<char>, std::__ndk1::allocator<char> > >, std::__ndk1::equal_to<std::__ndk1::basic_string<char, std::__ndk1::char_traits<char>, std::__ndk1::allocator<char> > >, std::__ndk1::allocator<std::__ndk1::basic_string<char, std::__ndk1::char_traits<char>, std::__ndk1::allocator<char> > > >::__assign_unique<std::__ndk1::basic_string<char, std::__ndk1::char_traits<char>, std::__ndk1::allocator<char> > const*>(std::__ndk1::basic_string<char, std::__ndk1::char_traits<char>, std::__ndk1::allocator<char> > const*, std::__ndk1::basic_string<char, std::__ndk1::char_traits<char>, std::__ndk1::allocator<char> > const*)
FUNC b35c8 130 0 std::__ndk1::__hash_table<std::__ndk1::basic_string<char, std::__ndk1::char_traits<char>, std::__ndk1::allocator<char> >, std::__ndk1::hash<std::__ndk1::basic_string<char, std::__ndk1::char_traits<char>, std::__ndk1::allocator<char> > >, std::__ndk1::equal_to<std::__ndk1::basic_string<char, std::__ndk1::char_traits<char>, std::__ndk1::allocator<char> > >, std::__ndk1::allocator<std::__ndk1::basic_string<char, std::__ndk1::char_traits<char>, std::__ndk1::allocator<char> > > >::__node_insert_unique(std::__ndk1::__hash_node<std::__ndk1::basic_string<char, std::__ndk1::char_traits<char>, std::__ndk1::allocator<char> >, void*>*)
FUNC b36f8 23e 0 std::__ndk1::__hash_table<std::__ndk1::basic_string<char, std::__ndk1::char_traits<char>, std::__ndk1::allocator<char> >, std::__ndk1::hash<std::__ndk1::basic_string<char, std::__ndk1::char_traits<char>, std::__ndk1::allocator<char> > >, std::__ndk1::equal_to<std::__ndk1::basic_string<char, std::__ndk1::char_traits<char>, std::__ndk1::allocator<char> > >, std::__ndk1::allocator<std::__ndk1::basic_string<char, std::__ndk1::char_traits<char>, std::__ndk1::allocator<char> > > >::__node_insert_unique_prepare[abi:ne180000](unsigned int, std::__ndk1::basic_string<char, std::__ndk1::char_traits<char>, std::__ndk1::allocator<char> >&)
FUNC b3936 4 0 geode::EventListener<geode::Task<geode::Result<std::__ndk1::vector<std::__ndk1::__fs::filesystem::path, std::__ndk1::allocator<std::__ndk1::__fs::filesystem::path> >, std::__ndk1::basic_string<char, std::__ndk1::char_traits<char>, std::__ndk1::allocator<char> > >, std::__ndk1::monostate> >::getPool() const
FUNC b393c e8 0 geode::EventListener<geode::Task<geode::Result<std::__ndk1::vector<std::__ndk1::__fs::filesystem::path, std::__ndk1::allocator<std::__ndk1::__fs::filesystem::path> >, std::__ndk1::basic_string<char, std::__ndk1::char_traits<char>, std::__ndk1::allocator<char> > >, std::__ndk1::monostate> >::handle(geode::Event*)
FUNC b3a24 68 0 geode::EventListener<geode::Task<geode::Result<std::__ndk1::vector<std::__ndk1::__fs::filesystem::path, std::__ndk1::allocator<std::__ndk1::__fs::filesystem::path> >, std::__ndk1::basic_string<char, std::__ndk1::char_traits<char>, std::__ndk1::allocator<char> > >, std::__ndk1::monostate> >::~EventListener()
FUNC b3a8c 6c 0 geode::EventListener<geode::Task<geode::Result<std::__ndk1::vector<std::__ndk1::__fs::filesystem::path, std::__ndk1::allocator<std::__ndk1::__fs::filesystem::path> >, std::__ndk1::basic_string<char, std::__ndk1::char_traits<char>, std::__ndk1::allocator<char> > >, std::__ndk1::monostate> >::~EventListener()
FUNC b3af8 3a 0 geode::Task<geode::Result<std::__ndk1::vector<std::__ndk1::__fs::filesystem::path, std::__ndk1::allocator<std::__ndk1::__fs::filesystem::path> >, std::__ndk1::basic_string<char, std::__ndk1::char_traits<char>, std::__ndk1::allocator<char> > >, std::__ndk1::monostate>::setListener(geode::EventListenerProtocol*)::{lambda()#1}::~{lambda()#1}()
FUNC b3b32 3a 0 geode::Task<geode::Result<std::__ndk1::vector<std::__ndk1::__fs::filesystem::path, std::__ndk1::allocator<std::__ndk1::__fs::filesystem::path> >, std::__ndk1::basic_string<char, std::__ndk1::char_traits<char>, std::__ndk1::allocator<char> > >, std::__ndk1::monostate>::setListener(geode::EventListenerProtocol*)::{lambda()#2}::~{lambda()#2}()
FUNC b3b6c 48 0 std::__ndk1::__function::__func<geode::Task<geode::Result<std::__ndk1::vector<std::__ndk1::__fs::filesystem::path, std::__ndk1::allocator<std::__ndk1::__fs::filesystem::path> >, std::__ndk1::basic_string<char, std::__ndk1::char_traits<char>, std::__ndk1::allocator<char> > >, std::__ndk1::monostate>::setListener(geode::EventListenerProtocol*)::{lambda()#1}, std::__ndk1::allocator<geode::Task<geode::Result<std::__ndk1::vector<std::__ndk1::__fs::filesystem::path, std::__ndk1::allocator<std::__ndk1::__fs::filesystem::path> >, std::__ndk1::basic_string<char, std::__ndk1::char_traits<char>, std::__ndk1::allocator<char> > >, std::__ndk1::monostate>::setListener(geode::EventListenerProtocol*)::{lambda()#1}>, void ()>::~__func()
FUNC b3bb4 54 0 std::__ndk1::__function::__func<geode::Task<geode::Result<std::__ndk1::vector<std::__ndk1::__fs::filesystem::path, std::__ndk1::allocator<std::__ndk1::__fs::filesystem::path> >, std::__ndk1::basic_string<char, std::__ndk1::char_traits<char>, std::__ndk1::allocator<char> > >, std::__ndk1::monostate>::setListener(geode::EventListenerProtocol*)::{lambda()#1}, std::__ndk1::allocator<geode::Task<geode::Result<std::__ndk1::vector<std::__ndk1::__fs::filesystem::path, std::__ndk1::allocator<std::__ndk1::__fs::filesystem::path> >, std::__ndk1::basic_string<char, std::__ndk1::char_traits<char>, std::__ndk1::allocator<char> > >, std::__ndk1::monostate>::setListener(geode::EventListenerProtocol*)::{lambda()#1}>, void ()>::~__func()
FUNC b3c08 40 0 std::__ndk1::__function::__func<geode::Task<geode::Result<std::__ndk1::vector<std::__ndk1::__fs::filesystem::path, std::__ndk1::allocator<std::__ndk1::__fs::filesystem::path> >, std::__ndk1::basic_string<char, std::__ndk1::char_traits<char>, std::__ndk1::allocator<char> > >, std::__ndk1::monostate>::setListener(geode::EventListenerProtocol*)::{lambda()#1}, std::__ndk1::allocator<geode::Task<geode::Result<std::__ndk1::vector<std::__ndk1::__fs::filesystem::path, std::__ndk1::allocator<std::__ndk1::__fs::filesystem::path> >, std::__ndk1::basic_string<char, std::__ndk1::char_traits<char>, std::__ndk1::allocator<char> > >, std::__ndk1::monostate>::setListener(geode::EventListenerProtocol*)::{lambda()#1}>, void ()>::__clone() const
FUNC b3c48 34 0 std::__ndk1::__function::__func<geode::Task<geode::Result<std::__ndk1::vector<std::__ndk1::__fs::filesystem::path, std::__ndk1::allocator<std::__ndk1::__fs::filesystem::path> >, std::__ndk1::basic_string<char, std::__ndk1::char_traits<char>, std::__ndk1::allocator<char> > >, std::__ndk1::monostate>::setListener(geode::EventListenerProtocol*)::{lambda()#1}, std::__ndk1::allocator<geode::Task<geode::Result<std::__ndk1::vector<std::__ndk1::__fs::filesystem::path, std::__ndk1::allocator<std::__ndk1::__fs::filesystem::path> >, std::__ndk1::basic_string<char, std::__ndk1::char_traits<char>, std::__ndk1::allocator<char> > >, std::__ndk1::monostate>::setListener(geode::EventListenerProtocol*)::{lambda()#1}>, void ()>::__clone(std::__ndk1::__function::__base<void ()>*) const
FUNC b3c7c 3a 0 std::__ndk1::__function::__func<geode::Task<geode::Result<std::__ndk1::vector<std::__ndk1::__fs::filesystem::path, std::__ndk1::allocator<std::__ndk1::__fs::filesystem::path> >, std::__ndk1::basic_string<char, std::__ndk1::char_traits<char>, std::__ndk1::allocator<char> > >, std::__ndk1::monostate>::setListener(geode::EventListenerProtocol*)::{lambda()#1}, std::__ndk1::allocator<geode::Task<geode::Result<std::__ndk1::vector<std::__ndk1::__fs::filesystem::path, std::__ndk1::allocator<std::__ndk1::__fs::filesystem::path> >, std::__ndk1::basic_string<char, std::__ndk1::char_traits<char>, std::__ndk1::allocator<char> > >, std::__ndk1::monostate>::setListener(geode::EventListenerProtocol*)::{lambda()#1}>, void ()>::destroy()
FUNC b3cb6 44 0 std::__ndk1::__function::__func<geode::Task<geode::Result<std::__ndk1::vector<std::__ndk1::__fs::filesystem::path, std::__ndk1::allocator<std::__ndk1::__fs::filesystem::path> >, std::__ndk1::basic_string<char, std::__ndk1::char_traits<char>, std::__ndk1::allocator<char> > >, std::__ndk1::monostate>::setListener(geode::EventListenerProtocol*)::{lambda()#1}, std::__ndk1::allocator<geode::Task<geode::Result<std::__ndk1::vector<std::__ndk1::__fs::filesystem::path, std::__ndk1::allocator<std::__ndk1::__fs::filesystem::path> >, std::__ndk1::basic_string<char, std::__ndk1::char_traits<char>, std::__ndk1::allocator<char> > >, std::__ndk1::monostate>::setListener(geode::EventListenerProtocol*)::{lambda()#1}>, void ()>::destroy_deallocate()
FUNC b3cfc 150 0 std::__ndk1::__function::__func<geode::Task<geode::Result<std::__ndk1::vector<std::__ndk1::__fs::filesystem::path, std::__ndk1::allocator<std::__ndk1::__fs::filesystem::path> >, std::__ndk1::basic_string<char, std::__ndk1::char_traits<char>, std::__ndk1::allocator<char> > >, std::__ndk1::monostate>::setListener(geode::EventListenerProtocol*)::{lambda()#1}, std::__ndk1::allocator<geode::Task<geode::Result<std::__ndk1::vector<std::__ndk1::__fs::filesystem::path, std::__ndk1::allocator<std::__ndk1::__fs::filesystem::path> >, std::__ndk1::basic_string<char, std::__ndk1::char_traits<char>, std::__ndk1::allocator<char> > >, std::__ndk1::monostate>::setListener(geode::EventListenerProtocol*)::{lambda()#1}>, void ()>::operator()()
FUNC b3e4c 18 0 std::__ndk1::__function::__func<geode::Task<geode::Result<std::__ndk1::vector<std::__ndk1::__fs::filesystem::path, std::__ndk1::allocator<std::__ndk1::__fs::filesystem::path> >, std::__ndk1::basic_string<char, std::__ndk1::char_traits<char>, std::__ndk1::allocator<char> > >, std::__ndk1::monostate>::setListener(geode::EventListenerProtocol*)::{lambda()#1}, std::__ndk1::allocator<geode::Task<geode::Result<std::__ndk1::vector<std::__ndk1::__fs::filesystem::path, std::__ndk1::allocator<std::__ndk1::__fs::filesystem::path> >, std::__ndk1::basic_string<char, std::__ndk1::char_traits<char>, std::__ndk1::allocator<char> > >, std::__ndk1::monostate>::setListener(geode::EventListenerProtocol*)::{lambda()#1}>, void ()>::target(std::type_info const&) const
FUNC b3e64 c 0 std::__ndk1::__function::__func<geode::Task<geode::Result<std::__ndk1::vector<std::__ndk1::__fs::filesystem::path, std::__ndk1::allocator<std::__ndk1::__fs::filesystem::path> >, std::__ndk1::basic_string<char, std::__ndk1::char_traits<char>, std::__ndk1::allocator<char> > >, std::__ndk1::monostate>::setListener(geode::EventListenerProtocol*)::{lambda()#1}, std::__ndk1::allocator<geode::Task<geode::Result<std::__ndk1::vector<std::__ndk1::__fs::filesystem::path, std::__ndk1::allocator<std::__ndk1::__fs::filesystem::path> >, std::__ndk1::basic_string<char, std::__ndk1::char_traits<char>, std::__ndk1::allocator<char> > >, std::__ndk1::monostate>::setListener(geode::EventListenerProtocol*)::{lambda()#1}>, void ()>::target_type() const
FUNC b3e70 44 0 geode::Task<geode::Result<std::__ndk1::vector<std::__ndk1::__fs::filesystem::path, std::__ndk1::allocator<std::__ndk1::__fs::filesystem::path> >, std::__ndk1::basic_string<char, std::__ndk1::char_traits<char>, std::__ndk1::allocator<char> > >, std::__ndk1::monostate>::Event::~Event()
FUNC b3eb4 40 0 geode::Task<geode::Result<std::__ndk1::vector<std::__ndk1::__fs::filesystem::path, std::__ndk1::allocator<std::__ndk1::__fs::filesystem::path> >, std::__ndk1::basic_string<char, std::__ndk1::char_traits<char>, std::__ndk1::allocator<char> > >, std::__ndk1::monostate>::Event::~Event()
FUNC b3ef4 48 0 std::__ndk1::__function::__func<geode::Task<geode::Result<std::__ndk1::vector<std::__ndk1::__fs::filesystem::path, std::__ndk1::allocator<std::__ndk1::__fs::filesystem::path> >, std::__ndk1::basic_string<char, std::__ndk1::char_traits<char>, std::__ndk1::allocator<char> > >, std::__ndk1::monostate>::setListener(geode::EventListenerProtocol*)::{lambda()#2}, std::__ndk1::allocator<geode::Task<geode::Result<std::__ndk1::vector<std::__ndk1::__fs::filesystem::path, std::__ndk1::allocator<std::__ndk1::__fs::filesystem::path> >, std::__ndk1::basic_string<char, std::__ndk1::char_traits<char>, std::__ndk1::allocator<char> > >, std::__ndk1::monostate>::setListener(geode::EventListenerProtocol*)::{lambda()#2}>, void ()>::~__func()
FUNC b3f3c 54 0 std::__ndk1::__function::__func<geode::Task<geode::Result<std::__ndk1::vector<std::__ndk1::__fs::filesystem::path, std::__ndk1::allocator<std::__ndk1::__fs::filesystem::path> >, std::__ndk1::basic_string<char, std::__ndk1::char_traits<char>, std::__ndk1::allocator<char> > >, std::__ndk1::monostate>::setListener(geode::EventListenerProtocol*)::{lambda()#2}, std::__ndk1::allocator<geode::Task<geode::Result<std::__ndk1::vector<std::__ndk1::__fs::filesystem::path, std::__ndk1::allocator<std::__ndk1::__fs::filesystem::path> >, std::__ndk1::basic_string<char, std::__ndk1::char_traits<char>, std::__ndk1::allocator<char> > >, std::__ndk1::monostate>::setListener(geode::EventListenerProtocol*)::{lambda()#2}>, void ()>::~__func()
FUNC b3f90 3c 0 std::__ndk1::__function::__func<geode::Task<geode::Result<std::__ndk1::vector<std::__ndk1::__fs::filesystem::path, std::__ndk1::allocator<std::__ndk1::__fs::filesystem::path> >, std::__ndk1::basic_string<char, std::__ndk1::char_traits<char>, std::__ndk1::allocator<char> > >, std::__ndk1::monostate>::setListener(geode::EventListenerProtocol*)::{lambda()#2}, std::__ndk1::allocator<geode::Task<geode::Result<std::__ndk1::vector<std::__ndk1::__fs::filesystem::path, std::__ndk1::allocator<std::__ndk1::__fs::filesystem::path> >, std::__ndk1::basic_string<char, std::__ndk1::char_traits<char>, std::__ndk1::allocator<char> > >, std::__ndk1::monostate>::setListener(geode::EventListenerProtocol*)::{lambda()#2}>, void ()>::__clone() const
FUNC b3fcc 30 0 std::__ndk1::__function::__func<geode::Task<geode::Result<std::__ndk1::vector<std::__ndk1::__fs::filesystem::path, std::__ndk1::allocator<std::__ndk1::__fs::filesystem::path> >, std::__ndk1::basic_string<char, std::__ndk1::char_traits<char>, std::__ndk1::allocator<char> > >, std::__ndk1::monostate>::setListener(geode::EventListenerProtocol*)::{lambda()#2}, std::__ndk1::allocator<geode::Task<geode::Result<std::__ndk1::vector<std::__ndk1::__fs::filesystem::path, std::__ndk1::allocator<std::__ndk1::__fs::filesystem::path> >, std::__ndk1::basic_string<char, std::__ndk1::char_traits<char>, std::__ndk1::allocator<char> > >, std::__ndk1::monostate>::setListener(geode::EventListenerProtocol*)::{lambda()#2}>, void ()>::__clone(std::__ndk1::__function::__base<void ()>*) const
FUNC b3ffc 3a 0 std::__ndk1::__function::__func<geode::Task<geode::Result<std::__ndk1::vector<std::__ndk1::__fs::filesystem::path, std::__ndk1::allocator<std::__ndk1::__fs::filesystem::path> >, std::__ndk1::basic_string<char, std::__ndk1::char_traits<char>, std::__ndk1::allocator<char> > >, std::__ndk1::monostate>::setListener(geode::EventListenerProtocol*)::{lambda()#2}, std::__ndk1::allocator<geode::Task<geode::Result<std::__ndk1::vector<std::__ndk1::__fs::filesystem::path, std::__ndk1::allocator<std::__ndk1::__fs::filesystem::path> >, std::__ndk1::basic_string<char, std::__ndk1::char_traits<char>, std::__ndk1::allocator<char> > >, std::__ndk1::monostate>::setListener(geode::EventListenerProtocol*)::{lambda()#2}>, void ()>::destroy()
FUNC b4036 44 0 std::__ndk1::__function::__func<geode::Task<geode::Result<std::__ndk1::vector<std::__ndk1::__fs::filesystem::path, std::__ndk1::allocator<std::__ndk1::__fs::filesystem::path> >, std::__ndk1::basic_string<char, std::__ndk1::char_traits<char>, std::__ndk1::allocator<char> > >, std::__ndk1::monostate>::setListener(geode::EventListenerProtocol*)::{lambda()#2}, std::__ndk1::allocator<geode::Task<geode::Result<std::__ndk1::vector<std::__ndk1::__fs::filesystem::path, std::__ndk1::allocator<std::__ndk1::__fs::filesystem::path> >, std::__ndk1::basic_string<char, std::__ndk1::char_traits<char>, std::__ndk1::allocator<char> > >, std::__ndk1::monostate>::setListener(geode::EventListenerProtocol*)::{lambda()#2}>, void ()>::destroy_deallocate()
FUNC b407c 150 0 std::__ndk1::__function::__func<geode::Task<geode::Result<std::__ndk1::vector<std::__ndk1::__fs::filesystem::path, std::__ndk1::allocator<std::__ndk1::__fs::filesystem::path> >, std::__ndk1::basic_string<char, std::__ndk1::char_traits<char>, std::__ndk1::allocator<char> > >, std::__ndk1::monostate>::setListener(geode::EventListenerProtocol*)::{lambda()#2}, std::__ndk1::allocator<geode::Task<geode::Result<std::__ndk1::vector<std::__ndk1::__fs::filesystem::path, std::__ndk1::allocator<std::__ndk1::__fs::filesystem::path> >, std::__ndk1::basic_string<char, std::__ndk1::char_traits<char>, std::__ndk1::allocator<char> > >, std::__ndk1::monostate>::setListener(geode::EventListenerProtocol*)::{lambda()#2}>, void ()>::operator()()
FUNC b41cc 18 0 std::__ndk1::__function::__func<geode::Task<geode::Result<std::__ndk1::vector<std::__ndk1::__fs::filesystem::path, std::__ndk1::allocator<std::__ndk1::__fs::filesystem::path> >, std::__ndk1::basic_string<char, std::__ndk1::char_traits<char>, std::__ndk1::allocator<char> > >, std::__ndk1::monostate>::setListener(geode::EventListenerProtocol*)::{lambda()#2}, std::__ndk1::allocator<geode::Task<geode::Result<std::__ndk1::vector<std::__ndk1::__fs::filesystem::path, std::__ndk1::allocator<std::__ndk1::__fs::filesystem::path> >, std::__ndk1::basic_string<char, std::__ndk1::char_traits<char>, std::__ndk1::allocator<char> > >, std::__ndk1::monostate>::setListener(geode::EventListenerProtocol*)::{lambda()#2}>, void ()>::target(std::type_info const&) const
FUNC b41e4 c 0 std::__ndk1::__function::__func<geode::Task<geode::Result<std::__ndk1::vector<std::__ndk1::__fs::filesystem::path, std::__ndk1::allocator<std::__ndk1::__fs::filesystem::path> >, std::__ndk1::basic_string<char, std::__ndk1::char_traits<char>, std::__ndk1::allocator<char> > >, std::__ndk1::monostate>::setListener(geode::EventListenerProtocol*)::{lambda()#2}, std::__ndk1::allocator<geode::Task<geode::Result<std::__ndk1::vector<std::__ndk1::__fs::filesystem::path, std::__ndk1::allocator<std::__ndk1::__fs::filesystem::path> >, std::__ndk1::basic_string<char, std::__ndk1::char_traits<char>, std::__ndk1::allocator<char> > >, std::__ndk1::monostate>::setListener(geode::EventListenerProtocol*)::{lambda()#2}>, void ()>::target_type() const
FUNC b41f0 2 0 std::__ndk1::__function::__base<void (geode::Task<geode::Result<std::__ndk1::vector<std::__ndk1::__fs::filesystem::path, std::__ndk1::allocator<std::__ndk1::__fs::filesystem::path> >, std::__ndk1::basic_string<char, std::__ndk1::char_traits<char>, std::__ndk1::allocator<char> > >, std::__ndk1::monostate>::Event*)>::~__base()
FUNC b41f2 4 0 _ZNSt6__ndk110__function6__funcIZNK5geode4TaskINS2_6ResultINS_6vectorINS_4__fs10filesystem4pathENS_9allocatorIS8_EEEENS_12basic_stringIcNS_11char_traitsIcEENS9_IcEEEEEENS_9monostateEE6listenIZN6Labels16onImportFromFileEPN7cocos2d8CCObjectEE3$_0ZNKSJ_6listenISP_EEvOT_EUlRKSR_E_ZNKSQ_ISP_EEvSS_EUlvE_EEvSS_OT0_OT1_EUlPNSJ_5EventEE_NS9_IS13_EEFvS12_EED0Ev
FUNC b41f8 28 0 _ZNKSt6__ndk110__function6__funcIZNK5geode4TaskINS2_6ResultINS_6vectorINS_4__fs10filesystem4pathENS_9allocatorIS8_EEEENS_12basic_stringIcNS_11char_traitsIcEENS9_IcEEEEEENS_9monostateEE6listenIZN6Labels16onImportFromFileEPN7cocos2d8CCObjectEE3$_0ZNKSJ_6listenISP_EEvOT_EUlRKSR_E_ZNKSQ_ISP_EEvSS_EUlvE_EEvSS_OT0_OT1_EUlPNSJ_5EventEE_NS9_IS13_EEFvS12_EE7__cloneEv
FUNC b4220 1c 0 _ZNKSt6__ndk110__function6__funcIZNK5geode4TaskINS2_6ResultINS_6vectorINS_4__fs10filesystem4pathENS_9allocatorIS8_EEEENS_12basic_stringIcNS_11char_traitsIcEENS9_IcEEEEEENS_9monostateEE6listenIZN6Labels16onImportFromFileEPN7cocos2d8CCObjectEE3$_0ZNKSJ_6listenISP_EEvOT_EUlRKSR_E_ZNKSQ_ISP_EEvSS_EUlvE_EEvSS_OT0_OT1_EUlPNSJ_5EventEE_NS9_IS13_EEFvS12_EE7__cloneEPNS0_6__baseIS15_EE
FUNC b423c 2 0 _ZNSt6__ndk110__function6__funcIZNK5geode4TaskINS2_6ResultINS_6vectorINS_4__fs10filesystem4pathENS_9allocatorIS8_EEEENS_12basic_stringIcNS_11char_traitsIcEENS9_IcEEEEEENS_9monostateEE6listenIZN6Labels16onImportFromFileEPN7cocos2d8CCObjectEE3$_0ZNKSJ_6listenISP_EEvOT_EUlRKSR_E_ZNKSQ_ISP_EEvSS_EUlvE_EEvSS_OT0_OT1_EUlPNSJ_5EventEE_NS9_IS13_EEFvS12_EE7destroyEv
FUNC b423e 4 0 _ZNSt6__ndk110__function6__funcIZNK5geode4TaskINS2_6ResultINS_6vectorINS_4__fs10filesystem4pathENS_9allocatorIS8_EEEENS_12basic_stringIcNS_11char_traitsIcEENS9_IcEEEEEENS_9monostateEE6listenIZN6Labels16onImportFromFileEPN7cocos2d8CCObjectEE3$_0ZNKSJ_6listenISP_EEvOT_EUlRKSR_E_ZNKSQ_ISP_EEvSS_EUlvE_EEvSS_OT0_OT1_EUlPNSJ_5EventEE_NS9_IS13_EEFvS12_EE18destroy_deallocateEv
FUNC b4244 230 0 _ZNSt6__ndk110__function6__funcIZNK5geode4TaskINS2_6ResultINS_6vectorINS_4__fs10filesystem4pathENS_9allocatorIS8_EEEENS_12basic_stringIcNS_11char_traitsIcEENS9_IcEEEEEENS_9monostateEE6listenIZN6Labels16onImportFromFileEPN7cocos2d8CCObjectEE3$_0ZNKSJ_6listenISP_EEvOT_EUlRKSR_E_ZNKSQ_ISP_EEvSS_EUlvE_EEvSS_OT0_OT1_EUlPNSJ_5EventEE_NS9_IS13_EEFvS12_EEclEOS12_
FUNC b4474 18 0 _ZNKSt6__ndk110__function6__funcIZNK5geode4TaskINS2_6ResultINS_6vectorINS_4__fs10filesystem4pathENS_9allocatorIS8_EEEENS_12basic_stringIcNS_11char_traitsIcEENS9_IcEEEEEENS_9monostateEE6listenIZN6Labels16onImportFromFileEPN7cocos2d8CCObjectEE3$_0ZNKSJ_6listenISP_EEvOT_EUlRKSR_E_ZNKSQ_ISP_EEvSS_EUlvE_EEvSS_OT0_OT1_EUlPNSJ_5EventEE_NS9_IS13_EEFvS12_EE6targetERKSt9type_info
FUNC b448c c 0 _ZNKSt6__ndk110__function6__funcIZNK5geode4TaskINS2_6ResultINS_6vectorINS_4__fs10filesystem4pathENS_9allocatorIS8_EEEENS_12basic_stringIcNS_11char_traitsIcEENS9_IcEEEEEENS_9monostateEE6listenIZN6Labels16onImportFromFileEPN7cocos2d8CCObjectEE3$_0ZNKSJ_6listenISP_EEvOT_EUlRKSR_E_ZNKSQ_ISP_EEvSS_EUlvE_EEvSS_OT0_OT1_EUlPNSJ_5EventEE_NS9_IS13_EEFvS12_EE11target_typeEv
FUNC b4498 4e 0 std::__ndk1::__exception_guard_exceptions<std::__ndk1::vector<std::__ndk1::__fs::filesystem::path, std::__ndk1::allocator<std::__ndk1::__fs::filesystem::path> >::__destroy_vector>::~__exception_guard_exceptions[abi:ne180000]()
FUNC b44e6 3a 0 std::__ndk1::__exception_guard_exceptions<std::__ndk1::_AllocatorDestroyRangeReverse<std::__ndk1::allocator<std::__ndk1::__fs::filesystem::path>, std::__ndk1::__fs::filesystem::path*> >::~__exception_guard_exceptions[abi:ne180000]()
FUNC b4520 4 0 _ZNSt6__ndk110__function6__funcIZZNK5geode4TaskINS2_6ResultINS_6vectorINS_4__fs10filesystem4pathENS_9allocatorIS8_EEEENS_12basic_stringIcNS_11char_traitsIcEENS9_IcEEEEEENS_9monostateEE6listenIZN6Labels16onImportFromFileEPN7cocos2d8CCObjectEE3$_0ZNKSJ_6listenISP_EEvOT_EUlRKSR_E_ZNKSQ_ISP_EEvSS_EUlvE_EEvSS_OT0_OT1_ENUlPNSJ_5EventEE_clES12_EUlvE_NS9_IS14_EEFvvEED0Ev
FUNC b4524 20 0 _ZNKSt6__ndk110__function6__funcIZZNK5geode4TaskINS2_6ResultINS_6vectorINS_4__fs10filesystem4pathENS_9allocatorIS8_EEEENS_12basic_stringIcNS_11char_traitsIcEENS9_IcEEEEEENS_9monostateEE6listenIZN6Labels16onImportFromFileEPN7cocos2d8CCObjectEE3$_0ZNKSJ_6listenISP_EEvOT_EUlRKSR_E_ZNKSQ_ISP_EEvSS_EUlvE_EEvSS_OT0_OT1_ENUlPNSJ_5EventEE_clES12_EUlvE_NS9_IS14_EEFvvEE7__cloneEv
FUNC b4544 14 0 _ZNKSt6__ndk110__function6__funcIZZNK5geode4TaskINS2_6ResultINS_6vectorINS_4__fs10filesystem4pathENS_9allocatorIS8_EEEENS_12basic_stringIcNS_11char_traitsIcEENS9_IcEEEEEENS_9monostateEE6listenIZN6Labels16onImportFromFileEPN7cocos2d8CCObjectEE3$_0ZNKSJ_6listenISP_EEvOT_EUlRKSR_E_ZNKSQ_ISP_EEvSS_EUlvE_EEvSS_OT0_OT1_ENUlPNSJ_5EventEE_clES12_EUlvE_NS9_IS14_EEFvvEE7__cloneEPNS0_6__baseIS16_EE
FUNC b4558 2 0 _ZNSt6__ndk110__function6__funcIZZNK5geode4TaskINS2_6ResultINS_6vectorINS_4__fs10filesystem4pathENS_9allocatorIS8_EEEENS_12basic_stringIcNS_11char_traitsIcEENS9_IcEEEEEENS_9monostateEE6listenIZN6Labels16onImportFromFileEPN7cocos2d8CCObjectEE3$_0ZNKSJ_6listenISP_EEvOT_EUlRKSR_E_ZNKSQ_ISP_EEvSS_EUlvE_EEvSS_OT0_OT1_ENUlPNSJ_5EventEE_clES12_EUlvE_NS9_IS14_EEFvvEE7destroyEv
FUNC b455a 4 0 _ZNSt6__ndk110__function6__funcIZZNK5geode4TaskINS2_6ResultINS_6vectorINS_4__fs10filesystem4pathENS_9allocatorIS8_EEEENS_12basic_stringIcNS_11char_traitsIcEENS9_IcEEEEEENS_9monostateEE6listenIZN6Labels16onImportFromFileEPN7cocos2d8CCObjectEE3$_0ZNKSJ_6listenISP_EEvOT_EUlRKSR_E_ZNKSQ_ISP_EEvSS_EUlvE_EEvSS_OT0_OT1_ENUlPNSJ_5EventEE_clES12_EUlvE_NS9_IS14_EEFvvEE18destroy_deallocateEv
FUNC b455e e 0 _ZNSt6__ndk110__function6__funcIZZNK5geode4TaskINS2_6ResultINS_6vectorINS_4__fs10filesystem4pathENS_9allocatorIS8_EEEENS_12basic_stringIcNS_11char_traitsIcEENS9_IcEEEEEENS_9monostateEE6listenIZN6Labels16onImportFromFileEPN7cocos2d8CCObjectEE3$_0ZNKSJ_6listenISP_EEvOT_EUlRKSR_E_ZNKSQ_ISP_EEvSS_EUlvE_EEvSS_OT0_OT1_ENUlPNSJ_5EventEE_clES12_EUlvE_NS9_IS14_EEFvvEEclEv
FUNC b456c 18 0 _ZNKSt6__ndk110__function6__funcIZZNK5geode4TaskINS2_6ResultINS_6vectorINS_4__fs10filesystem4pathENS_9allocatorIS8_EEEENS_12basic_stringIcNS_11char_traitsIcEENS9_IcEEEEEENS_9monostateEE6listenIZN6Labels16onImportFromFileEPN7cocos2d8CCObjectEE3$_0ZNKSJ_6listenISP_EEvOT_EUlRKSR_E_ZNKSQ_ISP_EEvSS_EUlvE_EEvSS_OT0_OT1_ENUlPNSJ_5EventEE_clES12_EUlvE_NS9_IS14_EEFvvEE6targetERKSt9type_info
FUNC b4584 c 0 _ZNKSt6__ndk110__function6__funcIZZNK5geode4TaskINS2_6ResultINS_6vectorINS_4__fs10filesystem4pathENS_9allocatorIS8_EEEENS_12basic_stringIcNS_11char_traitsIcEENS9_IcEEEEEENS_9monostateEE6listenIZN6Labels16onImportFromFileEPN7cocos2d8CCObjectEE3$_0ZNKSJ_6listenISP_EEvOT_EUlRKSR_E_ZNKSQ_ISP_EEvSS_EUlvE_EEvSS_OT0_OT1_ENUlPNSJ_5EventEE_clES12_EUlvE_NS9_IS14_EEFvvEE11target_typeEv
FUNC b4590 2 0 std::__ndk1::__function::__base<void (std::__ndk1::vector<std::__ndk1::basic_string<char, std::__ndk1::char_traits<char>, std::__ndk1::allocator<char> >, std::__ndk1::allocator<std::__ndk1::basic_string<char, std::__ndk1::char_traits<char>, std::__ndk1::allocator<char> > > >)>::~__base()
FUNC b4592 4 0 std::__ndk1::__function::__func<geodeExecFunction726<(anonymous namespace)::ExecFuncUnique726>(geode::ModStateEvent*)::{lambda(std::__ndk1::vector<std::__ndk1::basic_string<char, std::__ndk1::char_traits<char>, std::__ndk1::allocator<char> >, std::__ndk1::allocator<std::__ndk1::basic_string<char, std::__ndk1::char_traits<char>, std::__ndk1::allocator<char> > > >)#1}, std::__ndk1::allocator<geodeExecFunction726<(anonymous namespace)::ExecFuncUnique726>(geode::ModStateEvent*)::{lambda(std::__ndk1::vector<std::__ndk1::basic_string<char, std::__ndk1::char_traits<char>, std::__ndk1::allocator<char> >, std::__ndk1::allocator<std::__ndk1::basic_string<char, std::__ndk1::char_traits<char>, std::__ndk1::allocator<char> > > >)#1}>, void (std::__ndk1::vector<std::__ndk1::basic_string<char, std::__ndk1::char_traits<char>, std::__ndk1::allocator<char> >, std::__ndk1::allocator<std::__ndk1::basic_string<char, std::__ndk1::char_traits<char>, std::__ndk1::allocator<char> > > >)>::~__func()
FUNC b4598 18 0 std::__ndk1::__function::__func<geodeExecFunction726<(anonymous namespace)::ExecFuncUnique726>(geode::ModStateEvent*)::{lambda(std::__ndk1::vector<std::__ndk1::basic_string<char, std::__ndk1::char_traits<char>, std::__ndk1::allocator<char> >, std::__ndk1::allocator<std::__ndk1::basic_string<char, std::__ndk1::char_traits<char>, std::__ndk1::allocator<char> > > >)#1}, std::__ndk1::allocator<geodeExecFunction726<(anonymous namespace)::ExecFuncUnique726>(geode::ModStateEvent*)::{lambda(std::__ndk1::vector<std::__ndk1::basic_string<char, std::__ndk1::char_traits<char>, std::__ndk1::allocator<char> >, std::__ndk1::allocator<std::__ndk1::basic_string<char, std::__ndk1::char_traits<char>, std::__ndk1::allocator<char> > > >)#1}>, void (std::__ndk1::vector<std::__ndk1::basic_string<char, std::__ndk1::char_traits<char>, std::__ndk1::allocator<char> >, std::__ndk1::allocator<std::__ndk1::basic_string<char, std::__ndk1::char_traits<char>, std::__ndk1::allocator<char> > > >)>::__clone() const
FUNC b45b0 10 0 std::__ndk1::__function::__func<geodeExecFunction726<(anonymous namespace)::ExecFuncUnique726>(geode::ModStateEvent*)::{lambda(std::__ndk1::vector<std::__ndk1::basic_string<char, std::__ndk1::char_traits<char>, std::__ndk1::allocator<char> >, std::__ndk1::allocator<std::__ndk1::basic_string<char, std::__ndk1::char_traits<char>, std::__ndk1::allocator<char> > > >)#1}, std::__ndk1::allocator<geodeExecFunction726<(anonymous namespace)::ExecFuncUnique726>(geode::ModStateEvent*)::{lambda(std::__ndk1::vector<std::__ndk1::basic_string<char, std::__ndk1::char_traits<char>, std::__ndk1::allocator<char> >, std::__ndk1::allocator<std::__ndk1::basic_string<char, std::__ndk1::char_traits<char>, std::__ndk1::allocator<char> > > >)#1}>, void (std::__ndk1::vector<std::__ndk1::basic_string<char, std::__ndk1::char_traits<char>, std::__ndk1::allocator<char> >, std::__ndk1::allocator<std::__ndk1::basic_string<char, std::__ndk1::char_traits<char>, std::__ndk1::allocator<char> > > >)>::__clone(std::__ndk1::__function::__base<void (std::__ndk1::vector<std::__ndk1::basic_string<char, std::__ndk1::char_traits<char>, std::__ndk1::allocator<char> >, std::__ndk1::allocator<std::__ndk1::basic_string<char, std::__ndk1::char_traits<char>, std::__ndk1::allocator<char> > > >)>*) const
FUNC b45c0 2 0 std::__ndk1::__function::__func<geodeExecFunction726<(anonymous namespace)::ExecFuncUnique726>(geode::ModStateEvent*)::{lambda(std::__ndk1::vector<std::__ndk1::basic_string<char, std::__ndk1::char_traits<char>, std::__ndk1::allocator<char> >, std::__ndk1::allocator<std::__ndk1::basic_string<char, std::__ndk1::char_traits<char>, std::__ndk1::allocator<char> > > >)#1}, std::__ndk1::allocator<geodeExecFunction726<(anonymous namespace)::ExecFuncUnique726>(geode::ModStateEvent*)::{lambda(std::__ndk1::vector<std::__ndk1::basic_string<char, std::__ndk1::char_traits<char>, std::__ndk1::allocator<char> >, std::__ndk1::allocator<std::__ndk1::basic_string<char, std::__ndk1::char_traits<char>, std::__ndk1::allocator<char> > > >)#1}>, void (std::__ndk1::vector<std::__ndk1::basic_string<char, std::__ndk1::char_traits<char>, std::__ndk1::allocator<char> >, std::__ndk1::allocator<std::__ndk1::basic_string<char, std::__ndk1::char_traits<char>, std::__ndk1::allocator<char> > > >)>::destroy()
FUNC b45c2 4 0 std::__ndk1::__function::__func<geodeExecFunction726<(anonymous namespace)::ExecFuncUnique726>(geode::ModStateEvent*)::{lambda(std::__ndk1::vector<std::__ndk1::basic_string<char, std::__ndk1::char_traits<char>, std::__ndk1::allocator<char> >, std::__ndk1::allocator<std::__ndk1::basic_string<char, std::__ndk1::char_traits<char>, std::__ndk1::allocator<char> > > >)#1}, std::__ndk1::allocator<geodeExecFunction726<(anonymous namespace)::ExecFuncUnique726>(geode::ModStateEvent*)::{lambda(std::__ndk1::vector<std::__ndk1::basic_string<char, std::__ndk1::char_traits<char>, std::__ndk1::allocator<char> >, std::__ndk1::allocator<std::__ndk1::basic_string<char, std::__ndk1::char_traits<char>, std::__ndk1::allocator<char> > > >)#1}>, void (std::__ndk1::vector<std::__ndk1::basic_string<char, std::__ndk1::char_traits<char>, std::__ndk1::allocator<char> >, std::__ndk1::allocator<std::__ndk1::basic_string<char, std::__ndk1::char_traits<char>, std::__ndk1::allocator<char> > > >)>::destroy_deallocate()
FUNC b45c8 124 0 std::__ndk1::__function::__func<geodeExecFunction726<(anonymous namespace)::ExecFuncUnique726>(geode::ModStateEvent*)::{lambda(std::__ndk1::vector<std::__ndk1::basic_string<char, std::__ndk1::char_traits<char>, std::__ndk1::allocator<char> >, std::__ndk1::allocator<std::__ndk1::basic_string<char, std::__ndk1::char_traits<char>, std::__ndk1::allocator<char> > > >)#1}, std::__ndk1::allocator<geodeExecFunction726<(anonymous namespace)::ExecFuncUnique726>(geode::ModStateEvent*)::{lambda(std::__ndk1::vector<std::__ndk1::basic_string<char, std::__ndk1::char_traits<char>, std::__ndk1::allocator<char> >, std::__ndk1::allocator<std::__ndk1::basic_string<char, std::__ndk1::char_traits<char>, std::__ndk1::allocator<char> > > >)#1}>, void (std::__ndk1::vector<std::__ndk1::basic_string<char, std::__ndk1::char_traits<char>, std::__ndk1::allocator<char> >, std::__ndk1::allocator<std::__ndk1::basic_string<char, std::__ndk1::char_traits<char>, std::__ndk1::allocator<char> > > >)>::operator()(std::__ndk1::vector<std::__ndk1::basic_string<char, std::__ndk1::char_traits<char>, std::__ndk1::allocator<char> >, std::__ndk1::allocator<std::__ndk1::basic_string<char, std::__ndk1::char_traits<char>, std::__ndk1::allocator<char> > > >&&)
FUNC b46ec 18 0 std::__ndk1::__function::__func<geodeExecFunction726<(anonymous namespace)::ExecFuncUnique726>(geode::ModStateEvent*)::{lambda(std::__ndk1::vector<std::__ndk1::basic_string<char, std::__ndk1::char_traits<char>, std::__ndk1::allocator<char> >, std::__ndk1::allocator<std::__ndk1::basic_string<char, std::__ndk1::char_traits<char>, std::__ndk1::allocator<char> > > >)#1}, std::__ndk1::allocator<geodeExecFunction726<(anonymous namespace)::ExecFuncUnique726>(geode::ModStateEvent*)::{lambda(std::__ndk1::vector<std::__ndk1::basic_string<char, std::__ndk1::char_traits<char>, std::__ndk1::allocator<char> >, std::__ndk1::allocator<std::__ndk1::basic_string<char, std::__ndk1::char_traits<char>, std::__ndk1::allocator<char> > > >)#1}>, void (std::__ndk1::vector<std::__ndk1::basic_string<char, std::__ndk1::char_traits<char>, std::__ndk1::allocator<char> >, std::__ndk1::allocator<std::__ndk1::basic_string<char, std::__ndk1::char_traits<char>, std::__ndk1::allocator<char> > > >)>::target(std::type_info const&) const
FUNC b4704 c 0 std::__ndk1::__function::__func<geodeExecFunction726<(anonymous namespace)::ExecFuncUnique726>(geode::ModStateEvent*)::{lambda(std::__ndk1::vector<std::__ndk1::basic_string<char, std::__ndk1::char_traits<char>, std::__ndk1::allocator<char> >, std::__ndk1::allocator<std::__ndk1::basic_string<char, std::__ndk1::char_traits<char>, std::__ndk1::allocator<char> > > >)#1}, std::__ndk1::allocator<geodeExecFunction726<(anonymous namespace)::ExecFuncUnique726>(geode::ModStateEvent*)::{lambda(std::__ndk1::vector<std::__ndk1::basic_string<char, std::__ndk1::char_traits<char>, std::__ndk1::allocator<char> >, std::__ndk1::allocator<std::__ndk1::basic_string<char, std::__ndk1::char_traits<char>, std::__ndk1::allocator<char> > > >)#1}>, void (std::__ndk1::vector<std::__ndk1::basic_string<char, std::__ndk1::char_traits<char>, std::__ndk1::allocator<char> >, std::__ndk1::allocator<std::__ndk1::basic_string<char, std::__ndk1::char_traits<char>, std::__ndk1::allocator<char> > > >)>::target_type() const
FUNC b4710 4 0 geode::EventListener<geode::ModStateFilter>::getPool() const
FUNC b4714 e4 0 geode::EventListener<geode::ModStateFilter>::handle(geode::Event*)
FUNC b47f8 38 0 geode::EventListener<geode::ModStateFilter>::~EventListener()
FUNC b4830 3c 0 geode::EventListener<geode::ModStateFilter>::~EventListener()
FUNC b486c 2 0 std::__ndk1::__function::__base<void (geode::ModStateEvent*)>::~__base()
FUNC b486e 4 0 std::__ndk1::__function::__func<void (*)(geode::ModStateEvent*), std::__ndk1::allocator<void (*)(geode::ModStateEvent*)>, void (geode::ModStateEvent*)>::~__func()
FUNC b4874 20 0 std::__ndk1::__function::__func<void (*)(geode::ModStateEvent*), std::__ndk1::allocator<void (*)(geode::ModStateEvent*)>, void (geode::ModStateEvent*)>::__clone() const
FUNC b4894 14 0 std::__ndk1::__function::__func<void (*)(geode::ModStateEvent*), std::__ndk1::allocator<void (*)(geode::ModStateEvent*)>, void (geode::ModStateEvent*)>::__clone(std::__ndk1::__function::__base<void (geode::ModStateEvent*)>*) const
FUNC b48a8 2 0 std::__ndk1::__function::__func<void (*)(geode::ModStateEvent*), std::__ndk1::allocator<void (*)(geode::ModStateEvent*)>, void (geode::ModStateEvent*)>::destroy()
FUNC b48aa 4 0 std::__ndk1::__function::__func<void (*)(geode::ModStateEvent*), std::__ndk1::allocator<void (*)(geode::ModStateEvent*)>, void (geode::ModStateEvent*)>::destroy_deallocate()
FUNC b48ae 8 0 std::__ndk1::__function::__func<void (*)(geode::ModStateEvent*), std::__ndk1::allocator<void (*)(geode::ModStateEvent*)>, void (geode::ModStateEvent*)>::operator()(geode::ModStateEvent*&&)
FUNC b48b8 18 0 std::__ndk1::__function::__func<void (*)(geode::ModStateEvent*), std::__ndk1::allocator<void (*)(geode::ModStateEvent*)>, void (geode::ModStateEvent*)>::target(std::type_info const&) const
FUNC b48d0 c 0 std::__ndk1::__function::__func<void (*)(geode::ModStateEvent*), std::__ndk1::allocator<void (*)(geode::ModStateEvent*)>, void (geode::ModStateEvent*)>::target_type() const
FUNC b48dc cc 0 _GLOBAL__sub_I_Labels.cpp
FUNC b49a8 e0 0 cocos2d::CCNode::getChildByType<LevelInfoLayer, LevelInfoLayer>(int)
FUNC b4a88 e0 0 cocos2d::CCNode::getChildByType<cocos2d::CCMenu, cocos2d::CCMenu>(int)
FUNC b4b68 e0 0 cocos2d::CCNode::getChildByType<TextArea, TextArea>(int)
FUNC b4c48 9c 0 Speedhack::onClear(cocos2d::CCObject*)
FUNC b4ce4 12c 0 Speedhack::sliderChanged(cocos2d::CCObject*)
FUNC b4e10 1ec 0 Speedhack::onPreset(cocos2d::CCObject*)
FUNC b4ffc 2ac 0 Speedhack::updatePresets()
FUNC b52a8 b0 0 Speedhack::updatePresetsSprites(int)
FUNC b5358 1d8 0 geode::Mod::setSavedValue<std::__ndk1::vector<float, std::__ndk1::allocator<float> > >(std::__ndk1::basic_string_view<char, std::__ndk1::char_traits<char> >, std::__ndk1::vector<float, std::__ndk1::allocator<float> > const&)
FUNC b5530 83c 0 Speedhack::cocosCreate(cocos2d::CCMenu*)
FUNC b5d6c 2c0 0 Speedhack::onNewPreset(cocos2d::CCObject*)
FUNC b602c 74 0 Speedhack::onDeletePreset(cocos2d::CCObject*)
FUNC b60a0 16c 0 Speedhack::textChanged(CCTextInputNode*)
FUNC b620c a8 0 Speedhack::~Speedhack()
FUNC b62b4 10 0 Speedhack::~Speedhack()
FUNC b62c4 10 0 std::__ndk1::vector<float, std::__ndk1::allocator<float> >::__throw_length_error[abi:ne180000]() const
FUNC b62d4 8d6 0 std::__ndk1::__introsort<std::__ndk1::_ClassicAlgPolicy, Speedhack::updatePresets()::$_0&, float*, false>(float*, float*, Speedhack::updatePresets()::$_0&, std::__ndk1::iterator_traits<float*>::difference_type, bool)
FUNC b6bac 3a0 0 std::__ndk1::__insertion_sort_incomplete[abi:ne180000]<std::__ndk1::_ClassicAlgPolicy, Speedhack::updatePresets()::$_0&, float*>(float*, float*, Speedhack::updatePresets()::$_0&)
FUNC b6f4c 60 0 geode::impl::ResultData<std::__ndk1::vector<float, std::__ndk1::allocator<float> >, std::__ndk1::basic_string<char, std::__ndk1::char_traits<char>, std::__ndk1::allocator<char> > >::~ResultData()
FUNC b6fac 3c8 0 _ZN7matjson9SerializeINSt6__ndk16vectorIfNS1_9allocatorIfEEEEE8fromJsonERKNS_5ValueEQrQS9__Xcldtfp_2asIT_EEE
FUNC b7374 e 0 std::__ndk1::__variant_detail::__visitation::__base::__dispatcher<(unsigned int)0>::__dispatch[abi:ne180000]<std::__ndk1::__variant_detail::__dtor<std::__ndk1::__variant_detail::__traits<std::__ndk1::vector<float, std::__ndk1::allocator<float> >, std::__ndk1::basic_string<char, std::__ndk1::char_traits<char>, std::__ndk1::vector<char> > >, (std::__ndk1::__variant_detail::_Trait)1>::__destroy[abi:ne180000]()::{lambda(auto:1&)#1}, std::__ndk1::__variant_detail::__base<(std::__ndk1::__variant_detail::__traits<std::__ndk1::vector<float, std::__ndk1::allocator<float> >, std::__ndk1::basic_string<char, std::__ndk1::char_traits<char>, std::__ndk1::vector<char> > >)1, std::__ndk1::allocator<float>, std::__ndk1::vector<char> >&>(std::__ndk1::__variant_detail::__dtor<std::__ndk1::__variant_detail::__traits<std::__ndk1::vector<float, std::__ndk1::allocator<float> >, std::__ndk1::basic_string<char, std::__ndk1::char_traits<char>, std::__ndk1::vector<char> > >, (std::__ndk1::__variant_detail::_Trait)1>, std::__ndk1::__variant_detail::__base<(std::__ndk1::__variant_detail::__traits<std::__ndk1::vector<float, std::__ndk1::allocator<float> >, std::__ndk1::basic_string<char, std::__ndk1::char_traits<char>, std::__ndk1::vector<char> > >)1, std::__ndk1::allocator<float>, std::__ndk1::vector<char> >&)
FUNC b7382 e 0 std::__ndk1::__variant_detail::__visitation::__base::__dispatcher<(unsigned int)1>::__dispatch[abi:ne180000]<std::__ndk1::__variant_detail::__dtor<std::__ndk1::__variant_detail::__traits<std::__ndk1::vector<float, std::__ndk1::allocator<float> >, std::__ndk1::basic_string<char, std::__ndk1::char_traits<char>, std::__ndk1::vector<char> > >, (std::__ndk1::__variant_detail::_Trait)1>::__destroy[abi:ne180000]()::{lambda(auto:1&)#1}, std::__ndk1::__variant_detail::__base<(std::__ndk1::__variant_detail::__traits<std::__ndk1::vector<float, std::__ndk1::allocator<float> >, std::__ndk1::basic_string<char, std::__ndk1::char_traits<char>, std::__ndk1::vector<char> > >)1, std::__ndk1::allocator<float>, std::__ndk1::vector<char> >&>(std::__ndk1::__variant_detail::__dtor<std::__ndk1::__variant_detail::__traits<std::__ndk1::vector<float, std::__ndk1::allocator<float> >, std::__ndk1::basic_string<char, std::__ndk1::char_traits<char>, std::__ndk1::vector<char> > >, (std::__ndk1::__variant_detail::_Trait)1>, std::__ndk1::__variant_detail::__base<(std::__ndk1::__variant_detail::__traits<std::__ndk1::vector<float, std::__ndk1::allocator<float> >, std::__ndk1::basic_string<char, std::__ndk1::char_traits<char>, std::__ndk1::vector<char> > >)1, std::__ndk1::allocator<float>, std::__ndk1::vector<char> >&)
FUNC b7390 124 0 _ZN7matjson9SerializeINSt6__ndk16vectorIfNS1_9allocatorIfEEEEE6toJsonERKS5_QrQRKT__XcvNS_5ValueEfp_E
FUNC b74b4 4 0 Universal::cocosCreate(cocos2d::CCMenu*)
FUNC b74b8 7c 0 Universal::~Universal()
FUNC b7534 2d0 0 __cxx_global_var_init.42
FUNC b7804 20 0 geode::modifier::ModifyBase<geode::modifier::ModifyDerive<hook11<(anonymous namespace)::hook11Parent>, SecretLayer2> >::~ModifyBase()
FUNC b7830 320 0 geode::modifier::ModifyDerive<hook11<(anonymous namespace)::hook11Parent>, SecretLayer2>::apply()
FUNC b7b50 2 0 geode::modifier::ModifyBase<geode::modifier::ModifyDerive<hook11<(anonymous namespace)::hook11Parent>, SecretLayer2> >::apply()
FUNC b7b54 3b4 0 geode::modifier::AsStaticFunction_onSubmit<hook11<(anonymous namespace)::hook11Parent>, void (hook11<(anonymous namespace)::hook11Parent>::*)(cocos2d::CCObject*)>::Impl<void (hook11<(anonymous namespace)::hook11Parent>::*)(cocos2d::CCObject*)>::function(hook11<(anonymous namespace)::hook11Parent>*, cocos2d::CCObject*)
FUNC b7f08 e0 0 cocos2d::CCNode::getChildByType<CCTextInputNode, CCTextInputNode>(int)
FUNC b7fe8 8c 0 std::__ndk1::random_device::random_device[abi:ne180000]()
FUNC b8074 19c 0 std::__ndk1::uniform_int_distribution<int>::operator()<std::__ndk1::mersenne_twister_engine<unsigned int, (unsigned int)32, (unsigned int)624, (unsigned int)397, (unsigned int)31, (unsigned int)2567483615, (unsigned int)11, (unsigned int)4294967295, (unsigned int)7, (unsigned int)2636928640, (unsigned int)15, (unsigned int)4022730752, (unsigned int)18, (unsigned int)1812433253> >(std::__ndk1::mersenne_twister_engine<unsigned int, (unsigned int)32, (unsigned int)624, (unsigned int)397, (unsigned int)31, (unsigned int)2567483615, (unsigned int)11, (unsigned int)4294967295, (unsigned int)7, (unsigned int)2636928640, (unsigned int)15, (unsigned int)4022730752, (unsigned int)18, (unsigned int)1812433253>&, std::__ndk1::uniform_int_distribution<int>::param_type const&)
FUNC b8210 13c 0 fmt::v11::detail::value<fmt::v11::context>::format_custom_arg<gd::string, fmt::v11::formatter<gd::string, char, void> >(void*, fmt::v11::basic_format_parse_context<char>&, fmt::v11::context&)
FUNC b834c 4fc 0 std::__ndk1::__hash_table<std::__ndk1::__hash_value_type<std::__ndk1::basic_string<char, std::__ndk1::char_traits<char>, std::__ndk1::allocator<char> >, std::__ndk1::function<void (std::__ndk1::vector<std::__ndk1::basic_string<char, std::__ndk1::char_traits<char>, std::__ndk1::allocator<char> >, std::__ndk1::allocator<std::__ndk1::basic_string<char, std::__ndk1::char_traits<char>, std::__ndk1::allocator<char> > > >)> >, std::__ndk1::__unordered_map_hasher<std::__ndk1::basic_string<char, std::__ndk1::char_traits<char>, std::__ndk1::allocator<char> >, std::__ndk1::__hash_value_type<std::__ndk1::basic_string<char, std::__ndk1::char_traits<char>, std::__ndk1::allocator<char> >, std::__ndk1::function<void (std::__ndk1::vector<std::__ndk1::basic_string<char, std::__ndk1::char_traits<char>, std::__ndk1::allocator<char> >, std::__ndk1::allocator<std::__ndk1::basic_string<char, std::__ndk1::char_traits<char>, std::__ndk1::allocator<char> > > >)> >, std::__ndk1::hash<std::__ndk1::basic_string<char, std::__ndk1::char_traits<char>, std::__ndk1::allocator<char> > >, std::__ndk1::equal_to<std::__ndk1::basic_string<char, std::__ndk1::char_traits<char>, std::__ndk1::allocator<char> > >, true>, std::__ndk1::__unordered_map_equal<std::__ndk1::basic_string<char, std::__ndk1::char_traits<char>, std::__ndk1::allocator<char> >, std::__ndk1::__hash_value_type<std::__ndk1::basic_string<char, std::__ndk1::char_traits<char>, std::__ndk1::allocator<char> >, std::__ndk1::function<void (std::__ndk1::vector<std::__ndk1::basic_string<char, std::__ndk1::char_traits<char>, std::__ndk1::allocator<char> >, std::__ndk1::allocator<std::__ndk1::basic_string<char, std::__ndk1::char_traits<char>, std::__ndk1::allocator<char> > > >)> >, std::__ndk1::equal_to<std::__ndk1::basic_string<char, std::__ndk1::char_traits<char>, std::__ndk1::allocator<char> > >, std::__ndk1::hash<std::__ndk1::basic_string<char, std::__ndk1::char_traits<char>, std::__ndk1::allocator<char> > >, true>, std::__ndk1::allocator<std::__ndk1::__hash_value_type<std::__ndk1::basic_string<char, std::__ndk1::char_traits<char>, std::__ndk1::allocator<char> >, std::__ndk1::function<void (std::__ndk1::vector<std::__ndk1::basic_string<char, std::__ndk1::char_traits<char>, std::__ndk1::allocator<char> >, std::__ndk1::allocator<std::__ndk1::basic_string<char, std::__ndk1::char_traits<char>, std::__ndk1::allocator<char> > > >)> > > >::__emplace_unique_key_args<std::__ndk1::basic_string<char, std::__ndk1::char_traits<char>, std::__ndk1::allocator<char> >, std::__ndk1::basic_string<char, std::__ndk1::char_traits<char>, std::__ndk1::allocator<char> >&, std::__ndk1::function<void (std::__ndk1::vector<std::__ndk1::basic_string<char, std::__ndk1::char_traits<char>, std::__ndk1::allocator<char> >, std::__ndk1::allocator<std::__ndk1::basic_string<char, std::__ndk1::char_traits<char>, std::__ndk1::allocator<char> > > >)>&>(std::__ndk1::basic_string<char, std::__ndk1::char_traits<char>, std::__ndk1::allocator<char> > const&, std::__ndk1::basic_string<char, std::__ndk1::char_traits<char>, std::__ndk1::allocator<char> >&, std::__ndk1::function<void (std::__ndk1::vector<std::__ndk1::basic_string<char, std::__ndk1::char_traits<char>, std::__ndk1::allocator<char> >, std::__ndk1::allocator<std::__ndk1::basic_string<char, std::__ndk1::char_traits<char>, std::__ndk1::allocator<char> > > >)>&)
FUNC b8848 44 0 std::__ndk1::unique_ptr<std::__ndk1::__hash_node<std::__ndk1::__hash_value_type<std::__ndk1::basic_string<char, std::__ndk1::char_traits<char>, std::__ndk1::allocator<char> >, std::__ndk1::function<void (std::__ndk1::vector<std::__ndk1::basic_string<char, std::__ndk1::char_traits<char>, std::__ndk1::allocator<char> >, std::__ndk1::allocator<std::__ndk1::basic_string<char, std::__ndk1::char_traits<char>, std::__ndk1::allocator<char> > > >)> >, void*>, std::__ndk1::__hash_node_destructor<std::__ndk1::allocator<std::__ndk1::__hash_node<std::__ndk1::__hash_value_type<std::__ndk1::basic_string<char, std::__ndk1::char_traits<char>, std::__ndk1::allocator<char> >, std::__ndk1::function<void (std::__ndk1::vector<std::__ndk1::basic_string<char, std::__ndk1::char_traits<char>, std::__ndk1::allocator<char> >, std::__ndk1::allocator<std::__ndk1::basic_string<char, std::__ndk1::char_traits<char>, std::__ndk1::allocator<char> > > >)> >, void*> > > >::~unique_ptr[abi:ne180000]()
FUNC b888c 2d0 0 __cxx_global_var_init.30
FUNC b8b5c 20 0 geode::modifier::ModifyBase<geode::modifier::ModifyDerive<hook13<(anonymous namespace)::hook13Parent>, PlayLayer> >::~ModifyBase()
FUNC b8b7c 2d8 0 geode::modifier::ModifyDerive<hook13<(anonymous namespace)::hook13Parent>, PlayLayer>::apply()
FUNC b8e54 2 0 geode::modifier::ModifyBase<geode::modifier::ModifyDerive<hook13<(anonymous namespace)::hook13Parent>, PlayLayer> >::apply()
FUNC b8e58 4c4 0 geode::modifier::AsStaticFunction_updateProgressbar<hook13<(anonymous namespace)::hook13Parent>, void (hook13<(anonymous namespace)::hook13Parent>::*)()>::Impl<void (hook13<(anonymous namespace)::hook13Parent>::*)()>::function(hook13<(anonymous namespace)::hook13Parent>*)
FUNC b931c 118 0 geode::modifier::FieldIntermediate<hook13<(anonymous namespace)::hook13Parent>, PlayLayer>::operator->()
FUNC b9434 e8 0 geode::utils::numToString<float>(float, unsigned int)
FUNC b951c 1c0 0 geode::modifier::FieldContainer::getField(unsigned int)
FUNC b96dc ae 0 geode::modifier::FieldContainer::setField(unsigned int, unsigned int, std::__ndk1::function<void (void*)>)
FUNC b978a 2 0 geode::modifier::FieldIntermediate<hook13<(anonymous namespace)::hook13Parent>, PlayLayer>::fieldDestructor(void*)
FUNC b978c 10 0 std::__ndk1::vector<void*, std::__ndk1::allocator<void*> >::__throw_length_error[abi:ne180000]() const
FUNC b979c 186 0 std::__ndk1::vector<std::__ndk1::function<void (void*)>, std::__ndk1::allocator<std::__ndk1::function<void (void*)> > >::__push_back_slow_path<std::__ndk1::function<void (void*)> >(std::__ndk1::function<void (void*)>&&)
FUNC b9924 10 0 std::__ndk1::vector<std::__ndk1::function<void (void*)>, std::__ndk1::allocator<std::__ndk1::function<void (void*)> > >::__throw_length_error[abi:ne180000]() const
FUNC b9934 10 0 std::__ndk1::vector<void*, std::__ndk1::allocator<void*> >::__throw_out_of_range[abi:ne180000]() const
FUNC b9944 10 0 std::__ndk1::vector<std::__ndk1::function<void (void*)>, std::__ndk1::allocator<std::__ndk1::function<void (void*)> > >::__throw_out_of_range[abi:ne180000]() const
FUNC b9954 2 0 std::__ndk1::__function::__base<void (void*)>::~__base()
FUNC b9956 4 0 std::__ndk1::__function::__func<void (*)(void*), std::__ndk1::allocator<void (*)(void*)>, void (void*)>::~__func()
FUNC b995c 20 0 std::__ndk1::__function::__func<void (*)(void*), std::__ndk1::allocator<void (*)(void*)>, void (void*)>::__clone() const
FUNC b997c 14 0 std::__ndk1::__function::__func<void (*)(void*), std::__ndk1::allocator<void (*)(void*)>, void (void*)>::__clone(std::__ndk1::__function::__base<void (void*)>*) const
FUNC b9990 2 0 std::__ndk1::__function::__func<void (*)(void*), std::__ndk1::allocator<void (*)(void*)>, void (void*)>::destroy()
FUNC b9992 4 0 std::__ndk1::__function::__func<void (*)(void*), std::__ndk1::allocator<void (*)(void*)>, void (void*)>::destroy_deallocate()
FUNC b9996 8 0 std::__ndk1::__function::__func<void (*)(void*), std::__ndk1::allocator<void (*)(void*)>, void (void*)>::operator()(void*&&)
FUNC b99a0 18 0 std::__ndk1::__function::__func<void (*)(void*), std::__ndk1::allocator<void (*)(void*)>, void (void*)>::target(std::type_info const&) const
FUNC b99b8 c 0 std::__ndk1::__function::__func<void (*)(void*), std::__ndk1::allocator<void (*)(void*)>, void (void*)>::target_type() const
FUNC b99d0 e4 0 _ZN3fmt3v116detail5writeIcNS0_14basic_appenderIcEEfTnNSt6__ndk19enable_ifIXsr13is_fast_floatIT1_EE5valueEiE4typeELi0EEET0_SA_S7_
FUNC b9ab4 4c 0 fmt::v11::basic_memory_buffer<char, (unsigned int)500, std::__ndk1::allocator<char> >::grow(fmt::v11::detail::buffer<char>&, unsigned int)
FUNC b9b00 140 0 fmt::v11::detail::write_padded<char, (fmt::v11::align::type)1, fmt::v11::basic_appender<char>, fmt::v11::detail::write_nonfinite<char, fmt::v11::basic_appender<char> >(fmt::v11::basic_appender<char>, bool, fmt::v11::format_specs, fmt::v11::sign::type)::{lambda(fmt::v11::basic_appender<char>&)#1}>(fmt::v11::basic_appender<char>, fmt::v11::format_specs const&, unsigned int, unsigned int, fmt::v11::detail::write_nonfinite<char, fmt::v11::basic_appender<char> >(fmt::v11::basic_appender<char>, bool, fmt::v11::format_specs, fmt::v11::sign::type)::{lambda(fmt::v11::basic_appender<char>&)#1})
FUNC b9c40 4e4 0 fmt::v11::detail::do_write_float<char, fmt::v11::basic_appender<char>, fmt::v11::detail::dragonbox::decimal_fp<float>, fmt::v11::detail::digit_grouping<char> >(fmt::v11::basic_appender<char>, fmt::v11::detail::dragonbox::decimal_fp<float> const&, fmt::v11::format_specs const&, fmt::v11::detail::float_specs, fmt::v11::detail::locale_ref)
FUNC ba124 e0 0 fmt::v11::detail::do_write_float<char, fmt::v11::basic_appender<char>, fmt::v11::detail::dragonbox::decimal_fp<float>, fmt::v11::detail::digit_grouping<char> >(fmt::v11::basic_appender<char>, fmt::v11::detail::dragonbox::decimal_fp<float> const&, fmt::v11::format_specs const&, fmt::v11::detail::float_specs, fmt::v11::detail::locale_ref)::{lambda(fmt::v11::basic_appender<char>(fmt::v11::basic_appender<char>))#1}::operator() const
FUNC ba204 130 0 fmt::v11::detail::digit_grouping<char>::digit_grouping(fmt::v11::detail::locale_ref, bool)
FUNC ba334 22 0 fmt::v11::detail::digit_grouping<char>::~digit_grouping()
FUNC ba358 104 0 fmt::v11::detail::write_exponent<char, fmt::v11::basic_appender<char> >(int, fmt::v11::basic_appender<char>)
FUNC ba45c 144 0 _ZN3fmt3v116detail17write_significandIcjTnNSt6__ndk19enable_ifIXsr3std11is_integralIT0_EE5valueEiE4typeELi0EEEPT_S9_S5_iiS8_
FUNC ba5a0 9a 0 fmt::v11::detail::copy_noinline<char, char*, fmt::v11::basic_appender<char> >(char*, char*, fmt::v11::basic_appender<char>)
FUNC ba63a b2 0 fmt::v11::detail::do_write_float<char, fmt::v11::basic_appender<char>, fmt::v11::detail::dragonbox::decimal_fp<float>, fmt::v11::detail::digit_grouping<char> >(fmt::v11::basic_appender<char>, fmt::v11::detail::dragonbox::decimal_fp<float> const&, fmt::v11::format_specs const&, fmt::v11::detail::float_specs, fmt::v11::detail::locale_ref)::{lambda(fmt::v11::basic_appender<char>(fmt::v11::basic_appender<char>))#2}::operator() const
FUNC ba6ec 1d4 0 fmt::v11::detail::write_significand<char, fmt::v11::basic_appender<char>, unsigned int, fmt::v11::detail::digit_grouping<char> >(fmt::v11::basic_appender<char>, unsigned int, int, int, fmt::v11::detail::digit_grouping<char> const&)
FUNC ba8c0 21c 0 fmt::v11::detail::digit_grouping<char>::apply<fmt::v11::basic_appender<char>, char>(fmt::v11::basic_appender<char>, fmt::v11::basic_string_view<char>) const
FUNC baadc 6e 0 fmt::v11::basic_memory_buffer<int, (unsigned int)500, std::__ndk1::allocator<int> >::grow(fmt::v11::detail::buffer<int>&, unsigned int)
FUNC bab4c fc 0 fmt::v11::detail::write_padded<char, (fmt::v11::align::type)2, fmt::v11::basic_appender<char>, fmt::v11::detail::do_write_float<char, fmt::v11::basic_appender<char>, fmt::v11::detail::dragonbox::decimal_fp<float>, fmt::v11::detail::digit_grouping<char> >(fmt::v11::basic_appender<char>, fmt::v11::detail::dragonbox::decimal_fp<float> const&, fmt::v11::format_specs const&, fmt::v11::detail::float_specs, fmt::v11::detail::locale_ref)::{lambda(fmt::v11::basic_appender<char>&)#3}>(fmt::v11::basic_appender<char>, fmt::v11::format_specs const&, unsigned int, unsigned int, fmt::v11::detail::do_write_float<char, fmt::v11::basic_appender<char>, fmt::v11::detail::dragonbox::decimal_fp<float>, fmt::v11::detail::digit_grouping<char> >(fmt::v11::basic_appender<char>, fmt::v11::detail::dragonbox::decimal_fp<float> const&, fmt::v11::format_specs const&, fmt::v11::detail::float_specs, fmt::v11::detail::locale_ref)::{lambda(fmt::v11::basic_appender<char>&)#3})
FUNC bac48 e0 0 fmt::v11::detail::write_significand<fmt::v11::basic_appender<char>, char, unsigned int, fmt::v11::detail::digit_grouping<char> >(fmt::v11::basic_appender<char>, unsigned int, int, int, char, fmt::v11::detail::digit_grouping<char> const&)
FUNC bad28 164 0 fmt::v11::detail::do_write_float<char, fmt::v11::basic_appender<char>, fmt::v11::detail::dragonbox::decimal_fp<float>, fmt::v11::detail::digit_grouping<char> >(fmt::v11::basic_appender<char>, fmt::v11::detail::dragonbox::decimal_fp<float> const&, fmt::v11::format_specs const&, fmt::v11::detail::float_specs, fmt::v11::detail::locale_ref)::{lambda(fmt::v11::basic_appender<char>(fmt::v11::basic_appender<char>))#4}::operator() const
FUNC bae8c 4b0 0 __cxx_global_var_init.30
FUNC bb33c 20 0 geode::modifier::ModifyBase<geode::modifier::ModifyDerive<hook11<(anonymous namespace)::hook11Parent>, GJBaseGameLayer> >::~ModifyBase()
FUNC bb35c 60 0 std::__ndk1::__variant_detail::__dtor<std::__ndk1::__variant_detail::__traits<geode::Hook*, std::__ndk1::basic_string<char, std::__ndk1::char_traits<char>, std::__ndk1::allocator<char> > >, (std::__ndk1::__variant_detail::_Trait)1>::~__dtor()
FUNC bb3c0 3b8 0 geode::modifier::ModifyDerive<hook11<(anonymous namespace)::hook11Parent>, GJBaseGameLayer>::apply()
FUNC bb778 2 0 geode::modifier::ModifyBase<geode::modifier::ModifyDerive<hook11<(anonymous namespace)::hook11Parent>, GJBaseGameLayer> >::apply()
FUNC bb77c 60 0 hook11<(anonymous namespace)::hook11Parent>::onModify<geode::modifier::ModifyBase<geode::modifier::ModifyDerive<hook11<(anonymous namespace)::hook11Parent>, GJBaseGameLayer> > >(geode::modifier::ModifyBase<geode::modifier::ModifyDerive<hook11<(anonymous namespace)::hook11Parent>, GJBaseGameLayer> >&)::{lambda()#1}::~{lambda()#1}()
FUNC bb7dc 6 0 std::__ndk1::__variant_detail::__visitation::__base::__dispatcher<(unsigned int)0, (unsigned int)0>::__dispatch[abi:ne180000]<std::__ndk1::__variant_detail::__ctor<std::__ndk1::__variant_detail::__traits<geode::Hook*, std::__ndk1::basic_string<char, std::__ndk1::char_traits<char>, std::__ndk1::allocator<char> > > >::__generic_construct[abi:ne180000]<std::__ndk1::__variant_detail::__copy_constructor<std::__ndk1::basic_string<char, std::__ndk1::char_traits<char>, std::__ndk1::allocator<char> >, (std::__ndk1::__variant_detail::_Trait)1> const&>(std::__ndk1::__variant_detail::__traits<geode::Hook*, std::__ndk1::basic_string<char, std::__ndk1::char_traits<char>, std::__ndk1::allocator<char> > >&, std::__ndk1::__variant_detail::__copy_constructor<std::__ndk1::basic_string<char, std::__ndk1::char_traits<char>, std::__ndk1::allocator<char> >, (std::__ndk1::__variant_detail::_Trait)1> const&)::{lambda(std::__ndk1::__variant_detail::__copy_constructor<std::__ndk1::basic_string<char, std::__ndk1::char_traits<char>, std::__ndk1::allocator<char> >, (std::__ndk1::__variant_detail::_Trait)1> const&, auto:2&&)#1}, std::__ndk1::__variant_detail::__base<(std::__ndk1::__variant_detail::__ctor<std::__ndk1::__variant_detail::__traits<geode::Hook*, std::__ndk1::basic_string<char, std::__ndk1::char_traits<char>, std::__ndk1::allocator<char> > > >::__generic_construct[abi:ne180000])1, geode::Hook, std::__ndk1::allocator<char> >&, std::__ndk1::__variant_detail::__ctor<std::__ndk1::__variant_detail::__traits<geode::Hook*, std::__ndk1::basic_string<char, std::__ndk1::char_traits<char>, std::__ndk1::allocator<char> > > >::__generic_construct[abi:ne180000]<std::__ndk1::__variant_detail::__copy_constructor<std::__ndk1::basic_string<char, std::__ndk1::char_traits<char>, std::__ndk1::allocator<char> >, (std::__ndk1::__variant_detail::_Trait)1> const&>(std::__ndk1::__variant_detail::__traits<geode::Hook*, std::__ndk1::basic_string<char, std::__ndk1::char_traits<char>, std::__ndk1::allocator<char> > >&, std::__ndk1::__variant_detail::__copy_constructor<std::__ndk1::basic_string<char, std::__ndk1::char_traits<char>, std::__ndk1::allocator<char> >, (std::__ndk1::__variant_detail::_Trait)1> const&)::{lambda(std::__ndk1::__variant_detail::__copy_constructor<std::__ndk1::basic_string<char, std::__ndk1::char_traits<char>, std::__ndk1::allocator<char> >, (std::__ndk1::__variant_detail::_Trait)1> const&, auto:2&&)#1} const&>(std::__ndk1::__variant_detail::__copy_constructor<std::__ndk1::basic_string<char, std::__ndk1::char_traits<char>, std::__ndk1::allocator<char> >, (std::__ndk1::__variant_detail::_Trait)1> const&, std::__ndk1::__variant_detail::__base<(std::__ndk1::__variant_detail::__ctor<std::__ndk1::__variant_detail::__traits<geode::Hook*, std::__ndk1::basic_string<char, std::__ndk1::char_traits<char>, std::__ndk1::allocator<char> > > >::__generic_construct[abi:ne180000])1, geode::Hook, std::__ndk1::allocator<char> >&, std::__ndk1::__variant_detail::__ctor<std::__ndk1::__variant_detail::__traits<geode::Hook*, std::__ndk1::basic_string<char, std::__ndk1::char_traits<char>, std::__ndk1::allocator<char> > > >::__generic_construct[abi:ne180000]<std::__ndk1::__variant_detail::__copy_constructor<std::__ndk1::basic_string<char, std::__ndk1::char_traits<char>, std::__ndk1::allocator<char> >, (std::__ndk1::__variant_detail::_Trait)1> const&>(std::__ndk1::__variant_detail::__traits<geode::Hook*, std::__ndk1::basic_string<char, std::__ndk1::char_traits<char>, std::__ndk1::allocator<char> > >&, std::__ndk1::__variant_detail::__copy_constructor<std::__ndk1::basic_string<char, std::__ndk1::char_traits<char>, std::__ndk1::allocator<char> >, (std::__ndk1::__variant_detail::_Trait)1> const&)::{lambda(std::__ndk1::__variant_detail::__copy_constructor<std::__ndk1::basic_string<char, std::__ndk1::char_traits<char>, std::__ndk1::allocator<char> >, (std::__ndk1::__variant_detail::_Trait)1> const&, auto:2&&)#1} const&)
FUNC bb7e2 20 0 std::__ndk1::__variant_detail::__visitation::__base::__dispatcher<(unsigned int)1, (unsigned int)1>::__dispatch[abi:ne180000]<std::__ndk1::__variant_detail::__ctor<std::__ndk1::__variant_detail::__traits<geode::Hook*, std::__ndk1::basic_string<char, std::__ndk1::char_traits<char>, std::__ndk1::allocator<char> > > >::__generic_construct[abi:ne180000]<std::__ndk1::__variant_detail::__copy_constructor<std::__ndk1::basic_string<char, std::__ndk1::char_traits<char>, std::__ndk1::allocator<char> >, (std::__ndk1::__variant_detail::_Trait)1> const&>(std::__ndk1::__variant_detail::__traits<geode::Hook*, std::__ndk1::basic_string<char, std::__ndk1::char_traits<char>, std::__ndk1::allocator<char> > >&, std::__ndk1::__variant_detail::__copy_constructor<std::__ndk1::basic_string<char, std::__ndk1::char_traits<char>, std::__ndk1::allocator<char> >, (std::__ndk1::__variant_detail::_Trait)1> const&)::{lambda(std::__ndk1::__variant_detail::__copy_constructor<std::__ndk1::basic_string<char, std::__ndk1::char_traits<char>, std::__ndk1::allocator<char> >, (std::__ndk1::__variant_detail::_Trait)1> const&, auto:2&&)#1}, std::__ndk1::__variant_detail::__base<(std::__ndk1::__variant_detail::__ctor<std::__ndk1::__variant_detail::__traits<geode::Hook*, std::__ndk1::basic_string<char, std::__ndk1::char_traits<char>, std::__ndk1::allocator<char> > > >::__generic_construct[abi:ne180000])1, geode::Hook, std::__ndk1::allocator<char> >&, std::__ndk1::__variant_detail::__ctor<std::__ndk1::__variant_detail::__traits<geode::Hook*, std::__ndk1::basic_string<char, std::__ndk1::char_traits<char>, std::__ndk1::allocator<char> > > >::__generic_construct[abi:ne180000]<std::__ndk1::__variant_detail::__copy_constructor<std::__ndk1::basic_string<char, std::__ndk1::char_traits<char>, std::__ndk1::allocator<char> >, (std::__ndk1::__variant_detail::_Trait)1> const&>(std::__ndk1::__variant_detail::__traits<geode::Hook*, std::__ndk1::basic_string<char, std::__ndk1::char_traits<char>, std::__ndk1::allocator<char> > >&, std::__ndk1::__variant_detail::__copy_constructor<std::__ndk1::basic_string<char, std::__ndk1::char_traits<char>, std::__ndk1::allocator<char> >, (std::__ndk1::__variant_detail::_Trait)1> const&)::{lambda(std::__ndk1::__variant_detail::__copy_constructor<std::__ndk1::basic_string<char, std::__ndk1::char_traits<char>, std::__ndk1::allocator<char> >, (std::__ndk1::__variant_detail::_Trait)1> const&, auto:2&&)#1} const&>(std::__ndk1::__variant_detail::__copy_constructor<std::__ndk1::basic_string<char, std::__ndk1::char_traits<char>, std::__ndk1::allocator<char> >, (std::__ndk1::__variant_detail::_Trait)1> const&, std::__ndk1::__variant_detail::__base<(std::__ndk1::__variant_detail::__ctor<std::__ndk1::__variant_detail::__traits<geode::Hook*, std::__ndk1::basic_string<char, std::__ndk1::char_traits<char>, std::__ndk1::allocator<char> > > >::__generic_construct[abi:ne180000])1, geode::Hook, std::__ndk1::allocator<char> >&, std::__ndk1::__variant_detail::__ctor<std::__ndk1::__variant_detail::__traits<geode::Hook*, std::__ndk1::basic_string<char, std::__ndk1::char_traits<char>, std::__ndk1::allocator<char> > > >::__generic_construct[abi:ne180000]<std::__ndk1::__variant_detail::__copy_constructor<std::__ndk1::basic_string<char, std::__ndk1::char_traits<char>, std::__ndk1::allocator<char> >, (std::__ndk1::__variant_detail::_Trait)1> const&>(std::__ndk1::__variant_detail::__traits<geode::Hook*, std::__ndk1::basic_string<char, std::__ndk1::char_traits<char>, std::__ndk1::allocator<char> > >&, std::__ndk1::__variant_detail::__copy_constructor<std::__ndk1::basic_string<char, std::__ndk1::char_traits<char>, std::__ndk1::allocator<char> >, (std::__ndk1::__variant_detail::_Trait)1> const&)::{lambda(std::__ndk1::__variant_detail::__copy_constructor<std::__ndk1::basic_string<char, std::__ndk1::char_traits<char>, std::__ndk1::allocator<char> >, (std::__ndk1::__variant_detail::_Trait)1> const&, auto:2&&)#1} const&)
FUNC bb804 6c 0 std::__ndk1::__function::__func<hook11<(anonymous namespace)::hook11Parent>::onModify<geode::modifier::ModifyBase<geode::modifier::ModifyDerive<hook11<(anonymous namespace)::hook11Parent>, GJBaseGameLayer> > >(geode::modifier::ModifyBase<geode::modifier::ModifyDerive<hook11<(anonymous namespace)::hook11Parent>, GJBaseGameLayer> >&)::{lambda()#1}, std::__ndk1::allocator<hook11<(anonymous namespace)::hook11Parent>::onModify<geode::modifier::ModifyBase<geode::modifier::ModifyDerive<hook11<(anonymous namespace)::hook11Parent>, GJBaseGameLayer> > >(geode::modifier::ModifyBase<geode::modifier::ModifyDerive<hook11<(anonymous namespace)::hook11Parent>, GJBaseGameLayer> >&)::{lambda()#1}>, void ()>::~__func()
FUNC bb870 6c 0 std::__ndk1::__function::__func<hook11<(anonymous namespace)::hook11Parent>::onModify<geode::modifier::ModifyBase<geode::modifier::ModifyDerive<hook11<(anonymous namespace)::hook11Parent>, GJBaseGameLayer> > >(geode::modifier::ModifyBase<geode::modifier::ModifyDerive<hook11<(anonymous namespace)::hook11Parent>, GJBaseGameLayer> >&)::{lambda()#1}, std::__ndk1::allocator<hook11<(anonymous namespace)::hook11Parent>::onModify<geode::modifier::ModifyBase<geode::modifier::ModifyDerive<hook11<(anonymous namespace)::hook11Parent>, GJBaseGameLayer> > >(geode::modifier::ModifyBase<geode::modifier::ModifyDerive<hook11<(anonymous namespace)::hook11Parent>, GJBaseGameLayer> >&)::{lambda()#1}>, void ()>::~__func()
FUNC bb8dc 98 0 std::__ndk1::__function::__func<hook11<(anonymous namespace)::hook11Parent>::onModify<geode::modifier::ModifyBase<geode::modifier::ModifyDerive<hook11<(anonymous namespace)::hook11Parent>, GJBaseGameLayer> > >(geode::modifier::ModifyBase<geode::modifier::ModifyDerive<hook11<(anonymous namespace)::hook11Parent>, GJBaseGameLayer> >&)::{lambda()#1}, std::__ndk1::allocator<hook11<(anonymous namespace)::hook11Parent>::onModify<geode::modifier::ModifyBase<geode::modifier::ModifyDerive<hook11<(anonymous namespace)::hook11Parent>, GJBaseGameLayer> > >(geode::modifier::ModifyBase<geode::modifier::ModifyDerive<hook11<(anonymous namespace)::hook11Parent>, GJBaseGameLayer> >&)::{lambda()#1}>, void ()>::__clone() const
FUNC bb974 88 0 std::__ndk1::__function::__func<hook11<(anonymous namespace)::hook11Parent>::onModify<geode::modifier::ModifyBase<geode::modifier::ModifyDerive<hook11<(anonymous namespace)::hook11Parent>, GJBaseGameLayer> > >(geode::modifier::ModifyBase<geode::modifier::ModifyDerive<hook11<(anonymous namespace)::hook11Parent>, GJBaseGameLayer> >&)::{lambda()#1}, std::__ndk1::allocator<hook11<(anonymous namespace)::hook11Parent>::onModify<geode::modifier::ModifyBase<geode::modifier::ModifyDerive<hook11<(anonymous namespace)::hook11Parent>, GJBaseGameLayer> > >(geode::modifier::ModifyBase<geode::modifier::ModifyDerive<hook11<(anonymous namespace)::hook11Parent>, GJBaseGameLayer> >&)::{lambda()#1}>, void ()>::__clone(std::__ndk1::__function::__base<void ()>*) const
FUNC bb9fc 60 0 std::__ndk1::__function::__func<hook11<(anonymous namespace)::hook11Parent>::onModify<geode::modifier::ModifyBase<geode::modifier::ModifyDerive<hook11<(anonymous namespace)::hook11Parent>, GJBaseGameLayer> > >(geode::modifier::ModifyBase<geode::modifier::ModifyDerive<hook11<(anonymous namespace)::hook11Parent>, GJBaseGameLayer> >&)::{lambda()#1}, std::__ndk1::allocator<hook11<(anonymous namespace)::hook11Parent>::onModify<geode::modifier::ModifyBase<geode::modifier::ModifyDerive<hook11<(anonymous namespace)::hook11Parent>, GJBaseGameLayer> > >(geode::modifier::ModifyBase<geode::modifier::ModifyDerive<hook11<(anonymous namespace)::hook11Parent>, GJBaseGameLayer> >&)::{lambda()#1}>, void ()>::destroy()
FUNC bba5c 60 0 std::__ndk1::__function::__func<hook11<(anonymous namespace)::hook11Parent>::onModify<geode::modifier::ModifyBase<geode::modifier::ModifyDerive<hook11<(anonymous namespace)::hook11Parent>, GJBaseGameLayer> > >(geode::modifier::ModifyBase<geode::modifier::ModifyDerive<hook11<(anonymous namespace)::hook11Parent>, GJBaseGameLayer> >&)::{lambda()#1}, std::__ndk1::allocator<hook11<(anonymous namespace)::hook11Parent>::onModify<geode::modifier::ModifyBase<geode::modifier::ModifyDerive<hook11<(anonymous namespace)::hook11Parent>, GJBaseGameLayer> > >(geode::modifier::ModifyBase<geode::modifier::ModifyDerive<hook11<(anonymous namespace)::hook11Parent>, GJBaseGameLayer> >&)::{lambda()#1}>, void ()>::destroy_deallocate()
FUNC bbabc d4 0 std::__ndk1::__function::__func<hook11<(anonymous namespace)::hook11Parent>::onModify<geode::modifier::ModifyBase<geode::modifier::ModifyDerive<hook11<(anonymous namespace)::hook11Parent>, GJBaseGameLayer> > >(geode::modifier::ModifyBase<geode::modifier::ModifyDerive<hook11<(anonymous namespace)::hook11Parent>, GJBaseGameLayer> >&)::{lambda()#1}, std::__ndk1::allocator<hook11<(anonymous namespace)::hook11Parent>::onModify<geode::modifier::ModifyBase<geode::modifier::ModifyDerive<hook11<(anonymous namespace)::hook11Parent>, GJBaseGameLayer> > >(geode::modifier::ModifyBase<geode::modifier::ModifyDerive<hook11<(anonymous namespace)::hook11Parent>, GJBaseGameLayer> >&)::{lambda()#1}>, void ()>::operator()()
FUNC bbb90 18 0 std::__ndk1::__function::__func<hook11<(anonymous namespace)::hook11Parent>::onModify<geode::modifier::ModifyBase<geode::modifier::ModifyDerive<hook11<(anonymous namespace)::hook11Parent>, GJBaseGameLayer> > >(geode::modifier::ModifyBase<geode::modifier::ModifyDerive<hook11<(anonymous namespace)::hook11Parent>, GJBaseGameLayer> >&)::{lambda()#1}, std::__ndk1::allocator<hook11<(anonymous namespace)::hook11Parent>::onModify<geode::modifier::ModifyBase<geode::modifier::ModifyDerive<hook11<(anonymous namespace)::hook11Parent>, GJBaseGameLayer> > >(geode::modifier::ModifyBase<geode::modifier::ModifyDerive<hook11<(anonymous namespace)::hook11Parent>, GJBaseGameLayer> >&)::{lambda()#1}>, void ()>::target(std::type_info const&) const
FUNC bbba8 c 0 std::__ndk1::__function::__func<hook11<(anonymous namespace)::hook11Parent>::onModify<geode::modifier::ModifyBase<geode::modifier::ModifyDerive<hook11<(anonymous namespace)::hook11Parent>, GJBaseGameLayer> > >(geode::modifier::ModifyBase<geode::modifier::ModifyDerive<hook11<(anonymous namespace)::hook11Parent>, GJBaseGameLayer> >&)::{lambda()#1}, std::__ndk1::allocator<hook11<(anonymous namespace)::hook11Parent>::onModify<geode::modifier::ModifyBase<geode::modifier::ModifyDerive<hook11<(anonymous namespace)::hook11Parent>, GJBaseGameLayer> > >(geode::modifier::ModifyBase<geode::modifier::ModifyDerive<hook11<(anonymous namespace)::hook11Parent>, GJBaseGameLayer> >&)::{lambda()#1}>, void ()>::target_type() const
FUNC bbbb4 6 0 std::__ndk1::__variant_detail::__visitation::__base::__dispatcher<(unsigned int)0, (unsigned int)0>::__dispatch[abi:ne180000]<std::__ndk1::__variant_detail::__ctor<std::__ndk1::__variant_detail::__traits<geode::Hook*, std::__ndk1::basic_string<char, std::__ndk1::char_traits<char>, std::__ndk1::allocator<char> > > >::__generic_construct[abi:ne180000]<std::__ndk1::__variant_detail::__move_constructor<std::__ndk1::basic_string<char, std::__ndk1::char_traits<char>, std::__ndk1::allocator<char> >, (std::__ndk1::__variant_detail::_Trait)1> >(std::__ndk1::__variant_detail::__traits<geode::Hook*, std::__ndk1::basic_string<char, std::__ndk1::char_traits<char>, std::__ndk1::allocator<char> > >&, std::__ndk1::__variant_detail::__move_constructor<std::__ndk1::basic_string<char, std::__ndk1::char_traits<char>, std::__ndk1::allocator<char> >, (std::__ndk1::__variant_detail::_Trait)1>&&)::{lambda(std::__ndk1::__variant_detail::__move_constructor<std::__ndk1::basic_string<char, std::__ndk1::char_traits<char>, std::__ndk1::allocator<char> >, (std::__ndk1::__variant_detail::_Trait)1>&, auto:2&&)#1}, std::__ndk1::__variant_detail::__base<(std::__ndk1::__variant_detail::__ctor<std::__ndk1::__variant_detail::__traits<geode::Hook*, std::__ndk1::basic_string<char, std::__ndk1::char_traits<char>, std::__ndk1::allocator<char> > > >::__generic_construct[abi:ne180000])1, geode::Hook, std::__ndk1::allocator<char> >&, std::__ndk1::__variant_detail::__ctor<std::__ndk1::__variant_detail::__traits<geode::Hook*, std::__ndk1::basic_string<char, std::__ndk1::char_traits<char>, std::__ndk1::allocator<char> > > >::__generic_construct[abi:ne180000]<std::__ndk1::__variant_detail::__move_constructor<std::__ndk1::basic_string<char, std::__ndk1::char_traits<char>, std::__ndk1::allocator<char> >, (std::__ndk1::__variant_detail::_Trait)1> >(std::__ndk1::__variant_detail::__traits<geode::Hook*, std::__ndk1::basic_string<char, std::__ndk1::char_traits<char>, std::__ndk1::allocator<char> > >&, std::__ndk1::__variant_detail::__move_constructor<std::__ndk1::basic_string<char, std::__ndk1::char_traits<char>, std::__ndk1::allocator<char> >, (std::__ndk1::__variant_detail::_Trait)1>&&)::{lambda(std::__ndk1::__variant_detail::__move_constructor<std::__ndk1::basic_string<char, std::__ndk1::char_traits<char>, std::__ndk1::allocator<char> >, (std::__ndk1::__variant_detail::_Trait)1>&, auto:2&&)#1}>(std::__ndk1::__variant_detail::__move_constructor<std::__ndk1::basic_string<char, std::__ndk1::char_traits<char>, std::__ndk1::allocator<char> >, (std::__ndk1::__variant_detail::_Trait)1>, std::__ndk1::__variant_detail::__base<(std::__ndk1::__variant_detail::__ctor<std::__ndk1::__variant_detail::__traits<geode::Hook*, std::__ndk1::basic_string<char, std::__ndk1::char_traits<char>, std::__ndk1::allocator<char> > > >::__generic_construct[abi:ne180000])1, geode::Hook, std::__ndk1::allocator<char> >&, std::__ndk1::__variant_detail::__ctor<std::__ndk1::__variant_detail::__traits<geode::Hook*, std::__ndk1::basic_string<char, std::__ndk1::char_traits<char>, std::__ndk1::allocator<char> > > >::__generic_construct[abi:ne180000]<std::__ndk1::__variant_detail::__move_constructor<std::__ndk1::basic_string<char, std::__ndk1::char_traits<char>, std::__ndk1::allocator<char> >, (std::__ndk1::__variant_detail::_Trait)1> >(std::__ndk1::__variant_detail::__traits<geode::Hook*, std::__ndk1::basic_string<char, std::__ndk1::char_traits<char>, std::__ndk1::allocator<char> > >&, std::__ndk1::__variant_detail::__move_constructor<std::__ndk1::basic_string<char, std::__ndk1::char_traits<char>, std::__ndk1::allocator<char> >, (std::__ndk1::__variant_detail::_Trait)1>&&)::{lambda(std::__ndk1::__variant_detail::__move_constructor<std::__ndk1::basic_string<char, std::__ndk1::char_traits<char>, std::__ndk1::allocator<char> >, (std::__ndk1::__variant_detail::_Trait)1>&, auto:2&&)#1})
FUNC bbbba 16 0 std::__ndk1::__variant_detail::__visitation::__base::__dispatcher<(unsigned int)1, (unsigned int)1>::__dispatch[abi:ne180000]<std::__ndk1::__variant_detail::__ctor<std::__ndk1::__variant_detail::__traits<geode::Hook*, std::__ndk1::basic_string<char, std::__ndk1::char_traits<char>, std::__ndk1::allocator<char> > > >::__generic_construct[abi:ne180000]<std::__ndk1::__variant_detail::__move_constructor<std::__ndk1::basic_string<char, std::__ndk1::char_traits<char>, std::__ndk1::allocator<char> >, (std::__ndk1::__variant_detail::_Trait)1> >(std::__ndk1::__variant_detail::__traits<geode::Hook*, std::__ndk1::basic_string<char, std::__ndk1::char_traits<char>, std::__ndk1::allocator<char> > >&, std::__ndk1::__variant_detail::__move_constructor<std::__ndk1::basic_string<char, std::__ndk1::char_traits<char>, std::__ndk1::allocator<char> >, (std::__ndk1::__variant_detail::_Trait)1>&&)::{lambda(std::__ndk1::__variant_detail::__move_constructor<std::__ndk1::basic_string<char, std::__ndk1::char_traits<char>, std::__ndk1::allocator<char> >, (std::__ndk1::__variant_detail::_Trait)1>&, auto:2&&)#1}, std::__ndk1::__variant_detail::__base<(std::__ndk1::__variant_detail::__ctor<std::__ndk1::__variant_detail::__traits<geode::Hook*, std::__ndk1::basic_string<char, std::__ndk1::char_traits<char>, std::__ndk1::allocator<char> > > >::__generic_construct[abi:ne180000])1, geode::Hook, std::__ndk1::allocator<char> >&, std::__ndk1::__variant_detail::__ctor<std::__ndk1::__variant_detail::__traits<geode::Hook*, std::__ndk1::basic_string<char, std::__ndk1::char_traits<char>, std::__ndk1::allocator<char> > > >::__generic_construct[abi:ne180000]<std::__ndk1::__variant_detail::__move_constructor<std::__ndk1::basic_string<char, std::__ndk1::char_traits<char>, std::__ndk1::allocator<char> >, (std::__ndk1::__variant_detail::_Trait)1> >(std::__ndk1::__variant_detail::__traits<geode::Hook*, std::__ndk1::basic_string<char, std::__ndk1::char_traits<char>, std::__ndk1::allocator<char> > >&, std::__ndk1::__variant_detail::__move_constructor<std::__ndk1::basic_string<char, std::__ndk1::char_traits<char>, std::__ndk1::allocator<char> >, (std::__ndk1::__variant_detail::_Trait)1>&&)::{lambda(std::__ndk1::__variant_detail::__move_constructor<std::__ndk1::basic_string<char, std::__ndk1::char_traits<char>, std::__ndk1::allocator<char> >, (std::__ndk1::__variant_detail::_Trait)1>&, auto:2&&)#1}>(std::__ndk1::__variant_detail::__move_constructor<std::__ndk1::basic_string<char, std::__ndk1::char_traits<char>, std::__ndk1::allocator<char> >, (std::__ndk1::__variant_detail::_Trait)1>, std::__ndk1::__variant_detail::__base<(std::__ndk1::__variant_detail::__ctor<std::__ndk1::__variant_detail::__traits<geode::Hook*, std::__ndk1::basic_string<char, std::__ndk1::char_traits<char>, std::__ndk1::allocator<char> > > >::__generic_construct[abi:ne180000])1, geode::Hook, std::__ndk1::allocator<char> >&, std::__ndk1::__variant_detail::__ctor<std::__ndk1::__variant_detail::__traits<geode::Hook*, std::__ndk1::basic_string<char, std::__ndk1::char_traits<char>, std::__ndk1::allocator<char> > > >::__generic_construct[abi:ne180000]<std::__ndk1::__variant_detail::__move_constructor<std::__ndk1::basic_string<char, std::__ndk1::char_traits<char>, std::__ndk1::allocator<char> >, (std::__ndk1::__variant_detail::_Trait)1> >(std::__ndk1::__variant_detail::__traits<geode::Hook*, std::__ndk1::basic_string<char, std::__ndk1::char_traits<char>, std::__ndk1::allocator<char> > >&, std::__ndk1::__variant_detail::__move_constructor<std::__ndk1::basic_string<char, std::__ndk1::char_traits<char>, std::__ndk1::allocator<char> >, (std::__ndk1::__variant_detail::_Trait)1>&&)::{lambda(std::__ndk1::__variant_detail::__move_constructor<std::__ndk1::basic_string<char, std::__ndk1::char_traits<char>, std::__ndk1::allocator<char> >, (std::__ndk1::__variant_detail::_Trait)1>&, auto:2&&)#1})
FUNC bbbd0 170 0 geode::modifier::AsStaticFunction_collisionCheckObjects<hook11<(anonymous namespace)::hook11Parent>, void (hook11<(anonymous namespace)::hook11Parent>::*)(PlayerObject*, gd::vector<GameObject*>*, int, float)>::Impl<void (hook11<(anonymous namespace)::hook11Parent>::*)(PlayerObject*, gd::vector<GameObject*>*, int, float)>::function(hook11<(anonymous namespace)::hook11Parent>*, PlayerObject*, gd::vector<GameObject*>*, int, float)
FUNC bbd40 550 0 __cxx_global_var_init.30
FUNC bc290 20 0 geode::modifier::ModifyBase<geode::modifier::ModifyDerive<hook8<(anonymous namespace)::hook8Parent>, UILayer> >::~ModifyBase()
FUNC bc2b0 48 0 std::__ndk1::pair<std::__ndk1::basic_string<char, std::__ndk1::char_traits<char>, std::__ndk1::allocator<char> > const, std::__ndk1::shared_ptr<geode::Hook> >::~pair()
FUNC bc300 5c8 0 geode::modifier::ModifyDerive<hook8<(anonymous namespace)::hook8Parent>, UILayer>::apply()
FUNC bc8c8 2 0 geode::modifier::ModifyBase<geode::modifier::ModifyDerive<hook8<(anonymous namespace)::hook8Parent>, UILayer> >::apply()
FUNC bc8cc 2c 0 std::__ndk1::__function::__func<hook8<(anonymous namespace)::hook8Parent>::onModify<geode::modifier::ModifyBase<geode::modifier::ModifyDerive<hook8<(anonymous namespace)::hook8Parent>, UILayer> > >(geode::modifier::ModifyBase<geode::modifier::ModifyDerive<hook8<(anonymous namespace)::hook8Parent>, UILayer> >&)::{lambda()#1}, std::__ndk1::allocator<hook8<(anonymous namespace)::hook8Parent>::onModify<geode::modifier::ModifyBase<geode::modifier::ModifyDerive<hook8<(anonymous namespace)::hook8Parent>, UILayer> > >(geode::modifier::ModifyBase<geode::modifier::ModifyDerive<hook8<(anonymous namespace)::hook8Parent>, UILayer> >&)::{lambda()#1}>, void ()>::~__func()
FUNC bc8f8 30 0 std::__ndk1::__function::__func<hook8<(anonymous namespace)::hook8Parent>::onModify<geode::modifier::ModifyBase<geode::modifier::ModifyDerive<hook8<(anonymous namespace)::hook8Parent>, UILayer> > >(geode::modifier::ModifyBase<geode::modifier::ModifyDerive<hook8<(anonymous namespace)::hook8Parent>, UILayer> >&)::{lambda()#1}, std::__ndk1::allocator<hook8<(anonymous namespace)::hook8Parent>::onModify<geode::modifier::ModifyBase<geode::modifier::ModifyDerive<hook8<(anonymous namespace)::hook8Parent>, UILayer> > >(geode::modifier::ModifyBase<geode::modifier::ModifyDerive<hook8<(anonymous namespace)::hook8Parent>, UILayer> >&)::{lambda()#1}>, void ()>::~__func()
FUNC bc928 7c 0 std::__ndk1::__function::__func<hook8<(anonymous namespace)::hook8Parent>::onModify<geode::modifier::ModifyBase<geode::modifier::ModifyDerive<hook8<(anonymous namespace)::hook8Parent>, UILayer> > >(geode::modifier::ModifyBase<geode::modifier::ModifyDerive<hook8<(anonymous namespace)::hook8Parent>, UILayer> >&)::{lambda()#1}, std::__ndk1::allocator<hook8<(anonymous namespace)::hook8Parent>::onModify<geode::modifier::ModifyBase<geode::modifier::ModifyDerive<hook8<(anonymous namespace)::hook8Parent>, UILayer> > >(geode::modifier::ModifyBase<geode::modifier::ModifyDerive<hook8<(anonymous namespace)::hook8Parent>, UILayer> >&)::{lambda()#1}>, void ()>::__clone() const
FUNC bc9a4 70 0 std::__ndk1::__function::__func<hook8<(anonymous namespace)::hook8Parent>::onModify<geode::modifier::ModifyBase<geode::modifier::ModifyDerive<hook8<(anonymous namespace)::hook8Parent>, UILayer> > >(geode::modifier::ModifyBase<geode::modifier::ModifyDerive<hook8<(anonymous namespace)::hook8Parent>, UILayer> >&)::{lambda()#1}, std::__ndk1::allocator<hook8<(anonymous namespace)::hook8Parent>::onModify<geode::modifier::ModifyBase<geode::modifier::ModifyDerive<hook8<(anonymous namespace)::hook8Parent>, UILayer> > >(geode::modifier::ModifyBase<geode::modifier::ModifyDerive<hook8<(anonymous namespace)::hook8Parent>, UILayer> >&)::{lambda()#1}>, void ()>::__clone(std::__ndk1::__function::__base<void ()>*) const
FUNC bca14 10 0 std::__ndk1::__function::__func<hook8<(anonymous namespace)::hook8Parent>::onModify<geode::modifier::ModifyBase<geode::modifier::ModifyDerive<hook8<(anonymous namespace)::hook8Parent>, UILayer> > >(geode::modifier::ModifyBase<geode::modifier::ModifyDerive<hook8<(anonymous namespace)::hook8Parent>, UILayer> >&)::{lambda()#1}, std::__ndk1::allocator<hook8<(anonymous namespace)::hook8Parent>::onModify<geode::modifier::ModifyBase<geode::modifier::ModifyDerive<hook8<(anonymous namespace)::hook8Parent>, UILayer> > >(geode::modifier::ModifyBase<geode::modifier::ModifyDerive<hook8<(anonymous namespace)::hook8Parent>, UILayer> >&)::{lambda()#1}>, void ()>::destroy()
FUNC bca24 22 0 std::__ndk1::__function::__func<hook8<(anonymous namespace)::hook8Parent>::onModify<geode::modifier::ModifyBase<geode::modifier::ModifyDerive<hook8<(anonymous namespace)::hook8Parent>, UILayer> > >(geode::modifier::ModifyBase<geode::modifier::ModifyDerive<hook8<(anonymous namespace)::hook8Parent>, UILayer> >&)::{lambda()#1}, std::__ndk1::allocator<hook8<(anonymous namespace)::hook8Parent>::onModify<geode::modifier::ModifyBase<geode::modifier::ModifyDerive<hook8<(anonymous namespace)::hook8Parent>, UILayer> > >(geode::modifier::ModifyBase<geode::modifier::ModifyDerive<hook8<(anonymous namespace)::hook8Parent>, UILayer> >&)::{lambda()#1}>, void ()>::destroy_deallocate()
FUNC bca48 94 0 std::__ndk1::__function::__func<hook8<(anonymous namespace)::hook8Parent>::onModify<geode::modifier::ModifyBase<geode::modifier::ModifyDerive<hook8<(anonymous namespace)::hook8Parent>, UILayer> > >(geode::modifier::ModifyBase<geode::modifier::ModifyDerive<hook8<(anonymous namespace)::hook8Parent>, UILayer> >&)::{lambda()#1}, std::__ndk1::allocator<hook8<(anonymous namespace)::hook8Parent>::onModify<geode::modifier::ModifyBase<geode::modifier::ModifyDerive<hook8<(anonymous namespace)::hook8Parent>, UILayer> > >(geode::modifier::ModifyBase<geode::modifier::ModifyDerive<hook8<(anonymous namespace)::hook8Parent>, UILayer> >&)::{lambda()#1}>, void ()>::operator()()
FUNC bcadc 18 0 std::__ndk1::__function::__func<hook8<(anonymous namespace)::hook8Parent>::onModify<geode::modifier::ModifyBase<geode::modifier::ModifyDerive<hook8<(anonymous namespace)::hook8Parent>, UILayer> > >(geode::modifier::ModifyBase<geode::modifier::ModifyDerive<hook8<(anonymous namespace)::hook8Parent>, UILayer> >&)::{lambda()#1}, std::__ndk1::allocator<hook8<(anonymous namespace)::hook8Parent>::onModify<geode::modifier::ModifyBase<geode::modifier::ModifyDerive<hook8<(anonymous namespace)::hook8Parent>, UILayer> > >(geode::modifier::ModifyBase<geode::modifier::ModifyDerive<hook8<(anonymous namespace)::hook8Parent>, UILayer> >&)::{lambda()#1}>, void ()>::target(std::type_info const&) const
FUNC bcaf4 c 0 std::__ndk1::__function::__func<hook8<(anonymous namespace)::hook8Parent>::onModify<geode::modifier::ModifyBase<geode::modifier::ModifyDerive<hook8<(anonymous namespace)::hook8Parent>, UILayer> > >(geode::modifier::ModifyBase<geode::modifier::ModifyDerive<hook8<(anonymous namespace)::hook8Parent>, UILayer> >&)::{lambda()#1}, std::__ndk1::allocator<hook8<(anonymous namespace)::hook8Parent>::onModify<geode::modifier::ModifyBase<geode::modifier::ModifyDerive<hook8<(anonymous namespace)::hook8Parent>, UILayer> > >(geode::modifier::ModifyBase<geode::modifier::ModifyDerive<hook8<(anonymous namespace)::hook8Parent>, UILayer> >&)::{lambda()#1}>, void ()>::target_type() const
FUNC bcb00 e 0 geode::modifier::AsStaticFunction_handleKeypress<hook8<(anonymous namespace)::hook8Parent>, void (hook8<(anonymous namespace)::hook8Parent>::*)(cocos2d::enumKeyCodes, bool)>::Impl<void (hook8<(anonymous namespace)::hook8Parent>::*)(cocos2d::enumKeyCodes, bool)>::function(hook8<(anonymous namespace)::hook8Parent>*, cocos2d::enumKeyCodes, bool)
FUNC bcb0e e 0 geode::modifier::AsStaticFunction_onPause<hook8<(anonymous namespace)::hook8Parent>, void (hook8<(anonymous namespace)::hook8Parent>::*)(cocos2d::CCObject*)>::Impl<void (hook8<(anonymous namespace)::hook8Parent>::*)(cocos2d::CCObject*)>::function(hook8<(anonymous namespace)::hook8Parent>*, cocos2d::CCObject*)
FUNC bcb1c 584 0 __cxx_global_var_init.31
FUNC bd0a0 20 0 geode::modifier::ModifyBase<geode::modifier::ModifyDerive<AutoBaseGameLayer, GJBaseGameLayer> >::~ModifyBase()
FUNC bd0c0 2e0 0 geode::modifier::ModifyDerive<AutoBaseGameLayer, GJBaseGameLayer>::apply()
FUNC bd3a0 2 0 geode::modifier::ModifyBase<geode::modifier::ModifyDerive<AutoBaseGameLayer, GJBaseGameLayer> >::apply()
FUNC bd3a4 2c 0 std::__ndk1::__function::__func<AutoBaseGameLayer::onModify<geode::modifier::ModifyBase<geode::modifier::ModifyDerive<AutoBaseGameLayer, GJBaseGameLayer> > >(geode::modifier::ModifyBase<geode::modifier::ModifyDerive<AutoBaseGameLayer, GJBaseGameLayer> >&)::{lambda()#1}, std::__ndk1::allocator<AutoBaseGameLayer::onModify<geode::modifier::ModifyBase<geode::modifier::ModifyDerive<AutoBaseGameLayer, GJBaseGameLayer> > >(geode::modifier::ModifyBase<geode::modifier::ModifyDerive<AutoBaseGameLayer, GJBaseGameLayer> >&)::{lambda()#1}>, void ()>::~__func()
FUNC bd3d0 30 0 std::__ndk1::__function::__func<AutoBaseGameLayer::onModify<geode::modifier::ModifyBase<geode::modifier::ModifyDerive<AutoBaseGameLayer, GJBaseGameLayer> > >(geode::modifier::ModifyBase<geode::modifier::ModifyDerive<AutoBaseGameLayer, GJBaseGameLayer> >&)::{lambda()#1}, std::__ndk1::allocator<AutoBaseGameLayer::onModify<geode::modifier::ModifyBase<geode::modifier::ModifyDerive<AutoBaseGameLayer, GJBaseGameLayer> > >(geode::modifier::ModifyBase<geode::modifier::ModifyDerive<AutoBaseGameLayer, GJBaseGameLayer> >&)::{lambda()#1}>, void ()>::~__func()
FUNC bd400 7c 0 std::__ndk1::__function::__func<AutoBaseGameLayer::onModify<geode::modifier::ModifyBase<geode::modifier::ModifyDerive<AutoBaseGameLayer, GJBaseGameLayer> > >(geode::modifier::ModifyBase<geode::modifier::ModifyDerive<AutoBaseGameLayer, GJBaseGameLayer> >&)::{lambda()#1}, std::__ndk1::allocator<AutoBaseGameLayer::onModify<geode::modifier::ModifyBase<geode::modifier::ModifyDerive<AutoBaseGameLayer, GJBaseGameLayer> > >(geode::modifier::ModifyBase<geode::modifier::ModifyDerive<AutoBaseGameLayer, GJBaseGameLayer> >&)::{lambda()#1}>, void ()>::__clone() const
FUNC bd47c 70 0 std::__ndk1::__function::__func<AutoBaseGameLayer::onModify<geode::modifier::ModifyBase<geode::modifier::ModifyDerive<AutoBaseGameLayer, GJBaseGameLayer> > >(geode::modifier::ModifyBase<geode::modifier::ModifyDerive<AutoBaseGameLayer, GJBaseGameLayer> >&)::{lambda()#1}, std::__ndk1::allocator<AutoBaseGameLayer::onModify<geode::modifier::ModifyBase<geode::modifier::ModifyDerive<AutoBaseGameLayer, GJBaseGameLayer> > >(geode::modifier::ModifyBase<geode::modifier::ModifyDerive<AutoBaseGameLayer, GJBaseGameLayer> >&)::{lambda()#1}>, void ()>::__clone(std::__ndk1::__function::__base<void ()>*) const
FUNC bd4ec 10 0 std::__ndk1::__function::__func<AutoBaseGameLayer::onModify<geode::modifier::ModifyBase<geode::modifier::ModifyDerive<AutoBaseGameLayer, GJBaseGameLayer> > >(geode::modifier::ModifyBase<geode::modifier::ModifyDerive<AutoBaseGameLayer, GJBaseGameLayer> >&)::{lambda()#1}, std::__ndk1::allocator<AutoBaseGameLayer::onModify<geode::modifier::ModifyBase<geode::modifier::ModifyDerive<AutoBaseGameLayer, GJBaseGameLayer> > >(geode::modifier::ModifyBase<geode::modifier::ModifyDerive<AutoBaseGameLayer, GJBaseGameLayer> >&)::{lambda()#1}>, void ()>::destroy()
FUNC bd4fc 22 0 std::__ndk1::__function::__func<AutoBaseGameLayer::onModify<geode::modifier::ModifyBase<geode::modifier::ModifyDerive<AutoBaseGameLayer, GJBaseGameLayer> > >(geode::modifier::ModifyBase<geode::modifier::ModifyDerive<AutoBaseGameLayer, GJBaseGameLayer> >&)::{lambda()#1}, std::__ndk1::allocator<AutoBaseGameLayer::onModify<geode::modifier::ModifyBase<geode::modifier::ModifyDerive<AutoBaseGameLayer, GJBaseGameLayer> > >(geode::modifier::ModifyBase<geode::modifier::ModifyDerive<AutoBaseGameLayer, GJBaseGameLayer> >&)::{lambda()#1}>, void ()>::destroy_deallocate()
FUNC bd520 90 0 std::__ndk1::__function::__func<AutoBaseGameLayer::onModify<geode::modifier::ModifyBase<geode::modifier::ModifyDerive<AutoBaseGameLayer, GJBaseGameLayer> > >(geode::modifier::ModifyBase<geode::modifier::ModifyDerive<AutoBaseGameLayer, GJBaseGameLayer> >&)::{lambda()#1}, std::__ndk1::allocator<AutoBaseGameLayer::onModify<geode::modifier::ModifyBase<geode::modifier::ModifyDerive<AutoBaseGameLayer, GJBaseGameLayer> > >(geode::modifier::ModifyBase<geode::modifier::ModifyDerive<AutoBaseGameLayer, GJBaseGameLayer> >&)::{lambda()#1}>, void ()>::operator()()
FUNC bd5b0 18 0 std::__ndk1::__function::__func<AutoBaseGameLayer::onModify<geode::modifier::ModifyBase<geode::modifier::ModifyDerive<AutoBaseGameLayer, GJBaseGameLayer> > >(geode::modifier::ModifyBase<geode::modifier::ModifyDerive<AutoBaseGameLayer, GJBaseGameLayer> >&)::{lambda()#1}, std::__ndk1::allocator<AutoBaseGameLayer::onModify<geode::modifier::ModifyBase<geode::modifier::ModifyDerive<AutoBaseGameLayer, GJBaseGameLayer> > >(geode::modifier::ModifyBase<geode::modifier::ModifyDerive<AutoBaseGameLayer, GJBaseGameLayer> >&)::{lambda()#1}>, void ()>::target(std::type_info const&) const
FUNC bd5c8 c 0 std::__ndk1::__function::__func<AutoBaseGameLayer::onModify<geode::modifier::ModifyBase<geode::modifier::ModifyDerive<AutoBaseGameLayer, GJBaseGameLayer> > >(geode::modifier::ModifyBase<geode::modifier::ModifyDerive<AutoBaseGameLayer, GJBaseGameLayer> >&)::{lambda()#1}, std::__ndk1::allocator<AutoBaseGameLayer::onModify<geode::modifier::ModifyBase<geode::modifier::ModifyDerive<AutoBaseGameLayer, GJBaseGameLayer> > >(geode::modifier::ModifyBase<geode::modifier::ModifyDerive<AutoBaseGameLayer, GJBaseGameLayer> >&)::{lambda()#1}>, void ()>::target_type() const
FUNC bd5d4 1cc 0 geode::modifier::AsStaticFunction_checkRepellPlayer<AutoBaseGameLayer, void (AutoBaseGameLayer::*)()>::Impl<void (AutoBaseGameLayer::*)()>::function(AutoBaseGameLayer*)
FUNC bd7a0 120 0 geode::modifier::FieldIntermediate<AutoBaseGameLayer, GJBaseGameLayer>::self()
FUNC bd8c0 2 0 geode::modifier::FieldIntermediate<AutoBaseGameLayer, GJBaseGameLayer>::fieldDestructor(void*)
FUNC bd8c2 4 0 std::__ndk1::__function::__func<geodeExecFunction60<(anonymous namespace)::ExecFuncUnique60>()::{lambda()#1}, std::__ndk1::allocator<geodeExecFunction60<(anonymous namespace)::ExecFuncUnique60>()::{lambda()#1}>, void ()>::~__func()
FUNC bd8c8 18 0 std::__ndk1::__function::__func<geodeExecFunction60<(anonymous namespace)::ExecFuncUnique60>()::{lambda()#1}, std::__ndk1::allocator<geodeExecFunction60<(anonymous namespace)::ExecFuncUnique60>()::{lambda()#1}>, void ()>::__clone() const
FUNC bd8e0 10 0 std::__ndk1::__function::__func<geodeExecFunction60<(anonymous namespace)::ExecFuncUnique60>()::{lambda()#1}, std::__ndk1::allocator<geodeExecFunction60<(anonymous namespace)::ExecFuncUnique60>()::{lambda()#1}>, void ()>::__clone(std::__ndk1::__function::__base<void ()>*) const
FUNC bd8f0 2 0 std::__ndk1::__function::__func<geodeExecFunction60<(anonymous namespace)::ExecFuncUnique60>()::{lambda()#1}, std::__ndk1::allocator<geodeExecFunction60<(anonymous namespace)::ExecFuncUnique60>()::{lambda()#1}>, void ()>::destroy()
FUNC bd8f2 4 0 std::__ndk1::__function::__func<geodeExecFunction60<(anonymous namespace)::ExecFuncUnique60>()::{lambda()#1}, std::__ndk1::allocator<geodeExecFunction60<(anonymous namespace)::ExecFuncUnique60>()::{lambda()#1}>, void ()>::destroy_deallocate()
FUNC bd8f8 ac 0 std::__ndk1::__function::__func<geodeExecFunction60<(anonymous namespace)::ExecFuncUnique60>()::{lambda()#1}, std::__ndk1::allocator<geodeExecFunction60<(anonymous namespace)::ExecFuncUnique60>()::{lambda()#1}>, void ()>::operator()()
FUNC bd9a4 18 0 std::__ndk1::__function::__func<geodeExecFunction60<(anonymous namespace)::ExecFuncUnique60>()::{lambda()#1}, std::__ndk1::allocator<geodeExecFunction60<(anonymous namespace)::ExecFuncUnique60>()::{lambda()#1}>, void ()>::target(std::type_info const&) const
FUNC bd9bc c 0 std::__ndk1::__function::__func<geodeExecFunction60<(anonymous namespace)::ExecFuncUnique60>()::{lambda()#1}, std::__ndk1::allocator<geodeExecFunction60<(anonymous namespace)::ExecFuncUnique60>()::{lambda()#1}>, void ()>::target_type() const
FUNC bd9c8 80 0 _GLOBAL__sub_I_AutoClicker.cpp
FUNC bda48 550 0 __cxx_global_var_init.30
FUNC bdf98 20 0 geode::modifier::ModifyBase<geode::modifier::ModifyDerive<hook8<(anonymous namespace)::hook8Parent>, PlayLayer> >::~ModifyBase()
FUNC bdfc0 588 0 geode::modifier::ModifyDerive<hook8<(anonymous namespace)::hook8Parent>, PlayLayer>::apply()
FUNC be548 2 0 geode::modifier::ModifyBase<geode::modifier::ModifyDerive<hook8<(anonymous namespace)::hook8Parent>, PlayLayer> >::apply()
FUNC be54c 2c 0 std::__ndk1::__function::__func<hook8<(anonymous namespace)::hook8Parent>::onModify<geode::modifier::ModifyBase<geode::modifier::ModifyDerive<hook8<(anonymous namespace)::hook8Parent>, PlayLayer> > >(geode::modifier::ModifyBase<geode::modifier::ModifyDerive<hook8<(anonymous namespace)::hook8Parent>, PlayLayer> >&)::{lambda()#1}, std::__ndk1::allocator<hook8<(anonymous namespace)::hook8Parent>::onModify<geode::modifier::ModifyBase<geode::modifier::ModifyDerive<hook8<(anonymous namespace)::hook8Parent>, PlayLayer> > >(geode::modifier::ModifyBase<geode::modifier::ModifyDerive<hook8<(anonymous namespace)::hook8Parent>, PlayLayer> >&)::{lambda()#1}>, void ()>::~__func()
FUNC be578 30 0 std::__ndk1::__function::__func<hook8<(anonymous namespace)::hook8Parent>::onModify<geode::modifier::ModifyBase<geode::modifier::ModifyDerive<hook8<(anonymous namespace)::hook8Parent>, PlayLayer> > >(geode::modifier::ModifyBase<geode::modifier::ModifyDerive<hook8<(anonymous namespace)::hook8Parent>, PlayLayer> >&)::{lambda()#1}, std::__ndk1::allocator<hook8<(anonymous namespace)::hook8Parent>::onModify<geode::modifier::ModifyBase<geode::modifier::ModifyDerive<hook8<(anonymous namespace)::hook8Parent>, PlayLayer> > >(geode::modifier::ModifyBase<geode::modifier::ModifyDerive<hook8<(anonymous namespace)::hook8Parent>, PlayLayer> >&)::{lambda()#1}>, void ()>::~__func()
FUNC be5a8 7c 0 std::__ndk1::__function::__func<hook8<(anonymous namespace)::hook8Parent>::onModify<geode::modifier::ModifyBase<geode::modifier::ModifyDerive<hook8<(anonymous namespace)::hook8Parent>, PlayLayer> > >(geode::modifier::ModifyBase<geode::modifier::ModifyDerive<hook8<(anonymous namespace)::hook8Parent>, PlayLayer> >&)::{lambda()#1}, std::__ndk1::allocator<hook8<(anonymous namespace)::hook8Parent>::onModify<geode::modifier::ModifyBase<geode::modifier::ModifyDerive<hook8<(anonymous namespace)::hook8Parent>, PlayLayer> > >(geode::modifier::ModifyBase<geode::modifier::ModifyDerive<hook8<(anonymous namespace)::hook8Parent>, PlayLayer> >&)::{lambda()#1}>, void ()>::__clone() const
FUNC be624 70 0 std::__ndk1::__function::__func<hook8<(anonymous namespace)::hook8Parent>::onModify<geode::modifier::ModifyBase<geode::modifier::ModifyDerive<hook8<(anonymous namespace)::hook8Parent>, PlayLayer> > >(geode::modifier::ModifyBase<geode::modifier::ModifyDerive<hook8<(anonymous namespace)::hook8Parent>, PlayLayer> >&)::{lambda()#1}, std::__ndk1::allocator<hook8<(anonymous namespace)::hook8Parent>::onModify<geode::modifier::ModifyBase<geode::modifier::ModifyDerive<hook8<(anonymous namespace)::hook8Parent>, PlayLayer> > >(geode::modifier::ModifyBase<geode::modifier::ModifyDerive<hook8<(anonymous namespace)::hook8Parent>, PlayLayer> >&)::{lambda()#1}>, void ()>::__clone(std::__ndk1::__function::__base<void ()>*) const
FUNC be694 10 0 std::__ndk1::__function::__func<hook8<(anonymous namespace)::hook8Parent>::onModify<geode::modifier::ModifyBase<geode::modifier::ModifyDerive<hook8<(anonymous namespace)::hook8Parent>, PlayLayer> > >(geode::modifier::ModifyBase<geode::modifier::ModifyDerive<hook8<(anonymous namespace)::hook8Parent>, PlayLayer> >&)::{lambda()#1}, std::__ndk1::allocator<hook8<(anonymous namespace)::hook8Parent>::onModify<geode::modifier::ModifyBase<geode::modifier::ModifyDerive<hook8<(anonymous namespace)::hook8Parent>, PlayLayer> > >(geode::modifier::ModifyBase<geode::modifier::ModifyDerive<hook8<(anonymous namespace)::hook8Parent>, PlayLayer> >&)::{lambda()#1}>, void ()>::destroy()
FUNC be6a4 22 0 std::__ndk1::__function::__func<hook8<(anonymous namespace)::hook8Parent>::onModify<geode::modifier::ModifyBase<geode::modifier::ModifyDerive<hook8<(anonymous namespace)::hook8Parent>, PlayLayer> > >(geode::modifier::ModifyBase<geode::modifier::ModifyDerive<hook8<(anonymous namespace)::hook8Parent>, PlayLayer> >&)::{lambda()#1}, std::__ndk1::allocator<hook8<(anonymous namespace)::hook8Parent>::onModify<geode::modifier::ModifyBase<geode::modifier::ModifyDerive<hook8<(anonymous namespace)::hook8Parent>, PlayLayer> > >(geode::modifier::ModifyBase<geode::modifier::ModifyDerive<hook8<(anonymous namespace)::hook8Parent>, PlayLayer> >&)::{lambda()#1}>, void ()>::destroy_deallocate()
FUNC be6c8 80 0 std::__ndk1::__function::__func<hook8<(anonymous namespace)::hook8Parent>::onModify<geode::modifier::ModifyBase<geode::modifier::ModifyDerive<hook8<(anonymous namespace)::hook8Parent>, PlayLayer> > >(geode::modifier::ModifyBase<geode::modifier::ModifyDerive<hook8<(anonymous namespace)::hook8Parent>, PlayLayer> >&)::{lambda()#1}, std::__ndk1::allocator<hook8<(anonymous namespace)::hook8Parent>::onModify<geode::modifier::ModifyBase<geode::modifier::ModifyDerive<hook8<(anonymous namespace)::hook8Parent>, PlayLayer> > >(geode::modifier::ModifyBase<geode::modifier::ModifyDerive<hook8<(anonymous namespace)::hook8Parent>, PlayLayer> >&)::{lambda()#1}>, void ()>::operator()()
FUNC be748 18 0 std::__ndk1::__function::__func<hook8<(anonymous namespace)::hook8Parent>::onModify<geode::modifier::ModifyBase<geode::modifier::ModifyDerive<hook8<(anonymous namespace)::hook8Parent>, PlayLayer> > >(geode::modifier::ModifyBase<geode::modifier::ModifyDerive<hook8<(anonymous namespace)::hook8Parent>, PlayLayer> >&)::{lambda()#1}, std::__ndk1::allocator<hook8<(anonymous namespace)::hook8Parent>::onModify<geode::modifier::ModifyBase<geode::modifier::ModifyDerive<hook8<(anonymous namespace)::hook8Parent>, PlayLayer> > >(geode::modifier::ModifyBase<geode::modifier::ModifyDerive<hook8<(anonymous namespace)::hook8Parent>, PlayLayer> >&)::{lambda()#1}>, void ()>::target(std::type_info const&) const
FUNC be760 c 0 std::__ndk1::__function::__func<hook8<(anonymous namespace)::hook8Parent>::onModify<geode::modifier::ModifyBase<geode::modifier::ModifyDerive<hook8<(anonymous namespace)::hook8Parent>, PlayLayer> > >(geode::modifier::ModifyBase<geode::modifier::ModifyDerive<hook8<(anonymous namespace)::hook8Parent>, PlayLayer> >&)::{lambda()#1}, std::__ndk1::allocator<hook8<(anonymous namespace)::hook8Parent>::onModify<geode::modifier::ModifyBase<geode::modifier::ModifyDerive<hook8<(anonymous namespace)::hook8Parent>, PlayLayer> > >(geode::modifier::ModifyBase<geode::modifier::ModifyDerive<hook8<(anonymous namespace)::hook8Parent>, PlayLayer> >&)::{lambda()#1}>, void ()>::target_type() const
FUNC be76c 110 0 geode::modifier::AsStaticFunction_addObject<hook8<(anonymous namespace)::hook8Parent>, void (hook8<(anonymous namespace)::hook8Parent>::*)(GameObject*)>::Impl<void (hook8<(anonymous namespace)::hook8Parent>::*)(GameObject*)>::function(hook8<(anonymous namespace)::hook8Parent>*, GameObject*)
FUNC be87c 3e 0 geode::modifier::AsStaticFunction_resetLevel<hook8<(anonymous namespace)::hook8Parent>, void (hook8<(anonymous namespace)::hook8Parent>::*)()>::Impl<void (hook8<(anonymous namespace)::hook8Parent>::*)()>::function(hook8<(anonymous namespace)::hook8Parent>*)
FUNC be8bc 11c 0 geode::modifier::FieldIntermediate<hook8<(anonymous namespace)::hook8Parent>, PlayLayer>::operator->()
FUNC be9d8 10 0 geode::modifier::FieldIntermediate<hook8<(anonymous namespace)::hook8Parent>, PlayLayer>::fieldDestructor(void*)
FUNC be9e8 10 0 std::__ndk1::vector<EffectGameObject*, std::__ndk1::allocator<EffectGameObject*> >::__throw_length_error[abi:ne180000]() const
FUNC be9f8 4a8 0 __cxx_global_var_init.30
FUNC beea0 4a8 0 __cxx_global_var_init.31
FUNC bf348 20 0 geode::modifier::ModifyBase<geode::modifier::ModifyDerive<hook9<(anonymous namespace)::hook9Parent>, LevelInfoLayer> >::~ModifyBase()
FUNC bf368 20 0 geode::modifier::ModifyBase<geode::modifier::ModifyDerive<hook22<(anonymous namespace)::hook22Parent>, EditLevelLayer> >::~ModifyBase()
FUNC bf390 340 0 geode::modifier::ModifyDerive<hook9<(anonymous namespace)::hook9Parent>, LevelInfoLayer>::apply()
FUNC bf6d0 2 0 geode::modifier::ModifyBase<geode::modifier::ModifyDerive<hook9<(anonymous namespace)::hook9Parent>, LevelInfoLayer> >::apply()
FUNC bf6d4 60 0 hook9<(anonymous namespace)::hook9Parent>::onModify<geode::modifier::ModifyBase<geode::modifier::ModifyDerive<hook9<(anonymous namespace)::hook9Parent>, LevelInfoLayer> > >(geode::modifier::ModifyBase<geode::modifier::ModifyDerive<hook9<(anonymous namespace)::hook9Parent>, LevelInfoLayer> >&)::{lambda()#1}::~{lambda()#1}()
FUNC bf734 6c 0 std::__ndk1::__function::__func<hook9<(anonymous namespace)::hook9Parent>::onModify<geode::modifier::ModifyBase<geode::modifier::ModifyDerive<hook9<(anonymous namespace)::hook9Parent>, LevelInfoLayer> > >(geode::modifier::ModifyBase<geode::modifier::ModifyDerive<hook9<(anonymous namespace)::hook9Parent>, LevelInfoLayer> >&)::{lambda()#1}, std::__ndk1::allocator<hook9<(anonymous namespace)::hook9Parent>::onModify<geode::modifier::ModifyBase<geode::modifier::ModifyDerive<hook9<(anonymous namespace)::hook9Parent>, LevelInfoLayer> > >(geode::modifier::ModifyBase<geode::modifier::ModifyDerive<hook9<(anonymous namespace)::hook9Parent>, LevelInfoLayer> >&)::{lambda()#1}>, void ()>::~__func()
FUNC bf7a0 6c 0 std::__ndk1::__function::__func<hook9<(anonymous namespace)::hook9Parent>::onModify<geode::modifier::ModifyBase<geode::modifier::ModifyDerive<hook9<(anonymous namespace)::hook9Parent>, LevelInfoLayer> > >(geode::modifier::ModifyBase<geode::modifier::ModifyDerive<hook9<(anonymous namespace)::hook9Parent>, LevelInfoLayer> >&)::{lambda()#1}, std::__ndk1::allocator<hook9<(anonymous namespace)::hook9Parent>::onModify<geode::modifier::ModifyBase<geode::modifier::ModifyDerive<hook9<(anonymous namespace)::hook9Parent>, LevelInfoLayer> > >(geode::modifier::ModifyBase<geode::modifier::ModifyDerive<hook9<(anonymous namespace)::hook9Parent>, LevelInfoLayer> >&)::{lambda()#1}>, void ()>::~__func()
FUNC bf80c 98 0 std::__ndk1::__function::__func<hook9<(anonymous namespace)::hook9Parent>::onModify<geode::modifier::ModifyBase<geode::modifier::ModifyDerive<hook9<(anonymous namespace)::hook9Parent>, LevelInfoLayer> > >(geode::modifier::ModifyBase<geode::modifier::ModifyDerive<hook9<(anonymous namespace)::hook9Parent>, LevelInfoLayer> >&)::{lambda()#1}, std::__ndk1::allocator<hook9<(anonymous namespace)::hook9Parent>::onModify<geode::modifier::ModifyBase<geode::modifier::ModifyDerive<hook9<(anonymous namespace)::hook9Parent>, LevelInfoLayer> > >(geode::modifier::ModifyBase<geode::modifier::ModifyDerive<hook9<(anonymous namespace)::hook9Parent>, LevelInfoLayer> >&)::{lambda()#1}>, void ()>::__clone() const
FUNC bf8a4 88 0 std::__ndk1::__function::__func<hook9<(anonymous namespace)::hook9Parent>::onModify<geode::modifier::ModifyBase<geode::modifier::ModifyDerive<hook9<(anonymous namespace)::hook9Parent>, LevelInfoLayer> > >(geode::modifier::ModifyBase<geode::modifier::ModifyDerive<hook9<(anonymous namespace)::hook9Parent>, LevelInfoLayer> >&)::{lambda()#1}, std::__ndk1::allocator<hook9<(anonymous namespace)::hook9Parent>::onModify<geode::modifier::ModifyBase<geode::modifier::ModifyDerive<hook9<(anonymous namespace)::hook9Parent>, LevelInfoLayer> > >(geode::modifier::ModifyBase<geode::modifier::ModifyDerive<hook9<(anonymous namespace)::hook9Parent>, LevelInfoLayer> >&)::{lambda()#1}>, void ()>::__clone(std::__ndk1::__function::__base<void ()>*) const
FUNC bf92c 60 0 std::__ndk1::__function::__func<hook9<(anonymous namespace)::hook9Parent>::onModify<geode::modifier::ModifyBase<geode::modifier::ModifyDerive<hook9<(anonymous namespace)::hook9Parent>, LevelInfoLayer> > >(geode::modifier::ModifyBase<geode::modifier::ModifyDerive<hook9<(anonymous namespace)::hook9Parent>, LevelInfoLayer> >&)::{lambda()#1}, std::__ndk1::allocator<hook9<(anonymous namespace)::hook9Parent>::onModify<geode::modifier::ModifyBase<geode::modifier::ModifyDerive<hook9<(anonymous namespace)::hook9Parent>, LevelInfoLayer> > >(geode::modifier::ModifyBase<geode::modifier::ModifyDerive<hook9<(anonymous namespace)::hook9Parent>, LevelInfoLayer> >&)::{lambda()#1}>, void ()>::destroy()
FUNC bf98c 60 0 std::__ndk1::__function::__func<hook9<(anonymous namespace)::hook9Parent>::onModify<geode::modifier::ModifyBase<geode::modifier::ModifyDerive<hook9<(anonymous namespace)::hook9Parent>, LevelInfoLayer> > >(geode::modifier::ModifyBase<geode::modifier::ModifyDerive<hook9<(anonymous namespace)::hook9Parent>, LevelInfoLayer> >&)::{lambda()#1}, std::__ndk1::allocator<hook9<(anonymous namespace)::hook9Parent>::onModify<geode::modifier::ModifyBase<geode::modifier::ModifyDerive<hook9<(anonymous namespace)::hook9Parent>, LevelInfoLayer> > >(geode::modifier::ModifyBase<geode::modifier::ModifyDerive<hook9<(anonymous namespace)::hook9Parent>, LevelInfoLayer> >&)::{lambda()#1}>, void ()>::destroy_deallocate()
FUNC bf9ec d4 0 std::__ndk1::__function::__func<hook9<(anonymous namespace)::hook9Parent>::onModify<geode::modifier::ModifyBase<geode::modifier::ModifyDerive<hook9<(anonymous namespace)::hook9Parent>, LevelInfoLayer> > >(geode::modifier::ModifyBase<geode::modifier::ModifyDerive<hook9<(anonymous namespace)::hook9Parent>, LevelInfoLayer> >&)::{lambda()#1}, std::__ndk1::allocator<hook9<(anonymous namespace)::hook9Parent>::onModify<geode::modifier::ModifyBase<geode::modifier::ModifyDerive<hook9<(anonymous namespace)::hook9Parent>, LevelInfoLayer> > >(geode::modifier::ModifyBase<geode::modifier::ModifyDerive<hook9<(anonymous namespace)::hook9Parent>, LevelInfoLayer> >&)::{lambda()#1}>, void ()>::operator()()
FUNC bfac0 18 0 std::__ndk1::__function::__func<hook9<(anonymous namespace)::hook9Parent>::onModify<geode::modifier::ModifyBase<geode::modifier::ModifyDerive<hook9<(anonymous namespace)::hook9Parent>, LevelInfoLayer> > >(geode::modifier::ModifyBase<geode::modifier::ModifyDerive<hook9<(anonymous namespace)::hook9Parent>, LevelInfoLayer> >&)::{lambda()#1}, std::__ndk1::allocator<hook9<(anonymous namespace)::hook9Parent>::onModify<geode::modifier::ModifyBase<geode::modifier::ModifyDerive<hook9<(anonymous namespace)::hook9Parent>, LevelInfoLayer> > >(geode::modifier::ModifyBase<geode::modifier::ModifyDerive<hook9<(anonymous namespace)::hook9Parent>, LevelInfoLayer> >&)::{lambda()#1}>, void ()>::target(std::type_info const&) const
FUNC bfad8 c 0 std::__ndk1::__function::__func<hook9<(anonymous namespace)::hook9Parent>::onModify<geode::modifier::ModifyBase<geode::modifier::ModifyDerive<hook9<(anonymous namespace)::hook9Parent>, LevelInfoLayer> > >(geode::modifier::ModifyBase<geode::modifier::ModifyDerive<hook9<(anonymous namespace)::hook9Parent>, LevelInfoLayer> >&)::{lambda()#1}, std::__ndk1::allocator<hook9<(anonymous namespace)::hook9Parent>::onModify<geode::modifier::ModifyBase<geode::modifier::ModifyDerive<hook9<(anonymous namespace)::hook9Parent>, LevelInfoLayer> > >(geode::modifier::ModifyBase<geode::modifier::ModifyDerive<hook9<(anonymous namespace)::hook9Parent>, LevelInfoLayer> >&)::{lambda()#1}>, void ()>::target_type() const
FUNC bfae4 1a 0 geode::modifier::AsStaticFunction_init<hook9<(anonymous namespace)::hook9Parent>, bool (hook9<(anonymous namespace)::hook9Parent>::*)(GJGameLevel*, bool)>::Impl<bool (hook9<(anonymous namespace)::hook9Parent>::*)(GJGameLevel*, bool)>::function(hook9<(anonymous namespace)::hook9Parent>*, GJGameLevel*, bool)
FUNC bfb00 310 0 geode::modifier::ModifyDerive<hook22<(anonymous namespace)::hook22Parent>, EditLevelLayer>::apply()
FUNC bfe10 2 0 geode::modifier::ModifyBase<geode::modifier::ModifyDerive<hook22<(anonymous namespace)::hook22Parent>, EditLevelLayer> >::apply()
FUNC bfe14 60 0 hook22<(anonymous namespace)::hook22Parent>::onModify<geode::modifier::ModifyBase<geode::modifier::ModifyDerive<hook22<(anonymous namespace)::hook22Parent>, EditLevelLayer> > >(geode::modifier::ModifyBase<geode::modifier::ModifyDerive<hook22<(anonymous namespace)::hook22Parent>, EditLevelLayer> >&)::{lambda()#1}::~{lambda()#1}()
FUNC bfe74 6c 0 std::__ndk1::__function::__func<hook22<(anonymous namespace)::hook22Parent>::onModify<geode::modifier::ModifyBase<geode::modifier::ModifyDerive<hook22<(anonymous namespace)::hook22Parent>, EditLevelLayer> > >(geode::modifier::ModifyBase<geode::modifier::ModifyDerive<hook22<(anonymous namespace)::hook22Parent>, EditLevelLayer> >&)::{lambda()#1}, std::__ndk1::allocator<hook22<(anonymous namespace)::hook22Parent>::onModify<geode::modifier::ModifyBase<geode::modifier::ModifyDerive<hook22<(anonymous namespace)::hook22Parent>, EditLevelLayer> > >(geode::modifier::ModifyBase<geode::modifier::ModifyDerive<hook22<(anonymous namespace)::hook22Parent>, EditLevelLayer> >&)::{lambda()#1}>, void ()>::~__func()
FUNC bfee0 6c 0 std::__ndk1::__function::__func<hook22<(anonymous namespace)::hook22Parent>::onModify<geode::modifier::ModifyBase<geode::modifier::ModifyDerive<hook22<(anonymous namespace)::hook22Parent>, EditLevelLayer> > >(geode::modifier::ModifyBase<geode::modifier::ModifyDerive<hook22<(anonymous namespace)::hook22Parent>, EditLevelLayer> >&)::{lambda()#1}, std::__ndk1::allocator<hook22<(anonymous namespace)::hook22Parent>::onModify<geode::modifier::ModifyBase<geode::modifier::ModifyDerive<hook22<(anonymous namespace)::hook22Parent>, EditLevelLayer> > >(geode::modifier::ModifyBase<geode::modifier::ModifyDerive<hook22<(anonymous namespace)::hook22Parent>, EditLevelLayer> >&)::{lambda()#1}>, void ()>::~__func()
FUNC bff4c 98 0 std::__ndk1::__function::__func<hook22<(anonymous namespace)::hook22Parent>::onModify<geode::modifier::ModifyBase<geode::modifier::ModifyDerive<hook22<(anonymous namespace)::hook22Parent>, EditLevelLayer> > >(geode::modifier::ModifyBase<geode::modifier::ModifyDerive<hook22<(anonymous namespace)::hook22Parent>, EditLevelLayer> >&)::{lambda()#1}, std::__ndk1::allocator<hook22<(anonymous namespace)::hook22Parent>::onModify<geode::modifier::ModifyBase<geode::modifier::ModifyDerive<hook22<(anonymous namespace)::hook22Parent>, EditLevelLayer> > >(geode::modifier::ModifyBase<geode::modifier::ModifyDerive<hook22<(anonymous namespace)::hook22Parent>, EditLevelLayer> >&)::{lambda()#1}>, void ()>::__clone() const
FUNC bffe4 88 0 std::__ndk1::__function::__func<hook22<(anonymous namespace)::hook22Parent>::onModify<geode::modifier::ModifyBase<geode::modifier::ModifyDerive<hook22<(anonymous namespace)::hook22Parent>, EditLevelLayer> > >(geode::modifier::ModifyBase<geode::modifier::ModifyDerive<hook22<(anonymous namespace)::hook22Parent>, EditLevelLayer> >&)::{lambda()#1}, std::__ndk1::allocator<hook22<(anonymous namespace)::hook22Parent>::onModify<geode::modifier::ModifyBase<geode::modifier::ModifyDerive<hook22<(anonymous namespace)::hook22Parent>, EditLevelLayer> > >(geode::modifier::ModifyBase<geode::modifier::ModifyDerive<hook22<(anonymous namespace)::hook22Parent>, EditLevelLayer> >&)::{lambda()#1}>, void ()>::__clone(std::__ndk1::__function::__base<void ()>*) const
FUNC c006c 60 0 std::__ndk1::__function::__func<hook22<(anonymous namespace)::hook22Parent>::onModify<geode::modifier::ModifyBase<geode::modifier::ModifyDerive<hook22<(anonymous namespace)::hook22Parent>, EditLevelLayer> > >(geode::modifier::ModifyBase<geode::modifier::ModifyDerive<hook22<(anonymous namespace)::hook22Parent>, EditLevelLayer> >&)::{lambda()#1}, std::__ndk1::allocator<hook22<(anonymous namespace)::hook22Parent>::onModify<geode::modifier::ModifyBase<geode::modifier::ModifyDerive<hook22<(anonymous namespace)::hook22Parent>, EditLevelLayer> > >(geode::modifier::ModifyBase<geode::modifier::ModifyDerive<hook22<(anonymous namespace)::hook22Parent>, EditLevelLayer> >&)::{lambda()#1}>, void ()>::destroy()
FUNC c00cc 60 0 std::__ndk1::__function::__func<hook22<(anonymous namespace)::hook22Parent>::onModify<geode::modifier::ModifyBase<geode::modifier::ModifyDerive<hook22<(anonymous namespace)::hook22Parent>, EditLevelLayer> > >(geode::modifier::ModifyBase<geode::modifier::ModifyDerive<hook22<(anonymous namespace)::hook22Parent>, EditLevelLayer> >&)::{lambda()#1}, std::__ndk1::allocator<hook22<(anonymous namespace)::hook22Parent>::onModify<geode::modifier::ModifyBase<geode::modifier::ModifyDerive<hook22<(anonymous namespace)::hook22Parent>, EditLevelLayer> > >(geode::modifier::ModifyBase<geode::modifier::ModifyDerive<hook22<(anonymous namespace)::hook22Parent>, EditLevelLayer> >&)::{lambda()#1}>, void ()>::destroy_deallocate()
FUNC c012c d4 0 std::__ndk1::__function::__func<hook22<(anonymous namespace)::hook22Parent>::onModify<geode::modifier::ModifyBase<geode::modifier::ModifyDerive<hook22<(anonymous namespace)::hook22Parent>, EditLevelLayer> > >(geode::modifier::ModifyBase<geode::modifier::ModifyDerive<hook22<(anonymous namespace)::hook22Parent>, EditLevelLayer> >&)::{lambda()#1}, std::__ndk1::allocator<hook22<(anonymous namespace)::hook22Parent>::onModify<geode::modifier::ModifyBase<geode::modifier::ModifyDerive<hook22<(anonymous namespace)::hook22Parent>, EditLevelLayer> > >(geode::modifier::ModifyBase<geode::modifier::ModifyDerive<hook22<(anonymous namespace)::hook22Parent>, EditLevelLayer> >&)::{lambda()#1}>, void ()>::operator()()
FUNC c0200 18 0 std::__ndk1::__function::__func<hook22<(anonymous namespace)::hook22Parent>::onModify<geode::modifier::ModifyBase<geode::modifier::ModifyDerive<hook22<(anonymous namespace)::hook22Parent>, EditLevelLayer> > >(geode::modifier::ModifyBase<geode::modifier::ModifyDerive<hook22<(anonymous namespace)::hook22Parent>, EditLevelLayer> >&)::{lambda()#1}, std::__ndk1::allocator<hook22<(anonymous namespace)::hook22Parent>::onModify<geode::modifier::ModifyBase<geode::modifier::ModifyDerive<hook22<(anonymous namespace)::hook22Parent>, EditLevelLayer> > >(geode::modifier::ModifyBase<geode::modifier::ModifyDerive<hook22<(anonymous namespace)::hook22Parent>, EditLevelLayer> >&)::{lambda()#1}>, void ()>::target(std::type_info const&) const
FUNC c0218 c 0 std::__ndk1::__function::__func<hook22<(anonymous namespace)::hook22Parent>::onModify<geode::modifier::ModifyBase<geode::modifier::ModifyDerive<hook22<(anonymous namespace)::hook22Parent>, EditLevelLayer> > >(geode::modifier::ModifyBase<geode::modifier::ModifyDerive<hook22<(anonymous namespace)::hook22Parent>, EditLevelLayer> >&)::{lambda()#1}, std::__ndk1::allocator<hook22<(anonymous namespace)::hook22Parent>::onModify<geode::modifier::ModifyBase<geode::modifier::ModifyDerive<hook22<(anonymous namespace)::hook22Parent>, EditLevelLayer> > >(geode::modifier::ModifyBase<geode::modifier::ModifyDerive<hook22<(anonymous namespace)::hook22Parent>, EditLevelLayer> >&)::{lambda()#1}>, void ()>::target_type() const
FUNC c0224 1a 0 geode::modifier::AsStaticFunction_init<hook22<(anonymous namespace)::hook22Parent>, bool (hook22<(anonymous namespace)::hook22Parent>::*)(GJGameLevel*)>::Impl<bool (hook22<(anonymous namespace)::hook22Parent>::*)(GJGameLevel*)>::function(hook22<(anonymous namespace)::hook22Parent>*, GJGameLevel*)
FUNC c0240 4a8 0 __cxx_global_var_init.30
FUNC c06e8 20 0 geode::modifier::ModifyBase<geode::modifier::ModifyDerive<hook8<(anonymous namespace)::hook8Parent>, PlayLayer> >::~ModifyBase()
FUNC c0710 350 0 geode::modifier::ModifyDerive<hook8<(anonymous namespace)::hook8Parent>, PlayLayer>::apply()
FUNC c0a60 2 0 geode::modifier::ModifyBase<geode::modifier::ModifyDerive<hook8<(anonymous namespace)::hook8Parent>, PlayLayer> >::apply()
FUNC c0a64 60 0 hook8<(anonymous namespace)::hook8Parent>::onModify<geode::modifier::ModifyBase<geode::modifier::ModifyDerive<hook8<(anonymous namespace)::hook8Parent>, PlayLayer> > >(geode::modifier::ModifyBase<geode::modifier::ModifyDerive<hook8<(anonymous namespace)::hook8Parent>, PlayLayer> >&)::{lambda()#1}::~{lambda()#1}()
FUNC c0ac4 6c 0 std::__ndk1::__function::__func<hook8<(anonymous namespace)::hook8Parent>::onModify<geode::modifier::ModifyBase<geode::modifier::ModifyDerive<hook8<(anonymous namespace)::hook8Parent>, PlayLayer> > >(geode::modifier::ModifyBase<geode::modifier::ModifyDerive<hook8<(anonymous namespace)::hook8Parent>, PlayLayer> >&)::{lambda()#1}, std::__ndk1::allocator<hook8<(anonymous namespace)::hook8Parent>::onModify<geode::modifier::ModifyBase<geode::modifier::ModifyDerive<hook8<(anonymous namespace)::hook8Parent>, PlayLayer> > >(geode::modifier::ModifyBase<geode::modifier::ModifyDerive<hook8<(anonymous namespace)::hook8Parent>, PlayLayer> >&)::{lambda()#1}>, void ()>::~__func()
FUNC c0b30 6c 0 std::__ndk1::__function::__func<hook8<(anonymous namespace)::hook8Parent>::onModify<geode::modifier::ModifyBase<geode::modifier::ModifyDerive<hook8<(anonymous namespace)::hook8Parent>, PlayLayer> > >(geode::modifier::ModifyBase<geode::modifier::ModifyDerive<hook8<(anonymous namespace)::hook8Parent>, PlayLayer> >&)::{lambda()#1}, std::__ndk1::allocator<hook8<(anonymous namespace)::hook8Parent>::onModify<geode::modifier::ModifyBase<geode::modifier::ModifyDerive<hook8<(anonymous namespace)::hook8Parent>, PlayLayer> > >(geode::modifier::ModifyBase<geode::modifier::ModifyDerive<hook8<(anonymous namespace)::hook8Parent>, PlayLayer> >&)::{lambda()#1}>, void ()>::~__func()
FUNC c0b9c 98 0 std::__ndk1::__function::__func<hook8<(anonymous namespace)::hook8Parent>::onModify<geode::modifier::ModifyBase<geode::modifier::ModifyDerive<hook8<(anonymous namespace)::hook8Parent>, PlayLayer> > >(geode::modifier::ModifyBase<geode::modifier::ModifyDerive<hook8<(anonymous namespace)::hook8Parent>, PlayLayer> >&)::{lambda()#1}, std::__ndk1::allocator<hook8<(anonymous namespace)::hook8Parent>::onModify<geode::modifier::ModifyBase<geode::modifier::ModifyDerive<hook8<(anonymous namespace)::hook8Parent>, PlayLayer> > >(geode::modifier::ModifyBase<geode::modifier::ModifyDerive<hook8<(anonymous namespace)::hook8Parent>, PlayLayer> >&)::{lambda()#1}>, void ()>::__clone() const
FUNC c0c34 88 0 std::__ndk1::__function::__func<hook8<(anonymous namespace)::hook8Parent>::onModify<geode::modifier::ModifyBase<geode::modifier::ModifyDerive<hook8<(anonymous namespace)::hook8Parent>, PlayLayer> > >(geode::modifier::ModifyBase<geode::modifier::ModifyDerive<hook8<(anonymous namespace)::hook8Parent>, PlayLayer> >&)::{lambda()#1}, std::__ndk1::allocator<hook8<(anonymous namespace)::hook8Parent>::onModify<geode::modifier::ModifyBase<geode::modifier::ModifyDerive<hook8<(anonymous namespace)::hook8Parent>, PlayLayer> > >(geode::modifier::ModifyBase<geode::modifier::ModifyDerive<hook8<(anonymous namespace)::hook8Parent>, PlayLayer> >&)::{lambda()#1}>, void ()>::__clone(std::__ndk1::__function::__base<void ()>*) const
FUNC c0cbc 60 0 std::__ndk1::__function::__func<hook8<(anonymous namespace)::hook8Parent>::onModify<geode::modifier::ModifyBase<geode::modifier::ModifyDerive<hook8<(anonymous namespace)::hook8Parent>, PlayLayer> > >(geode::modifier::ModifyBase<geode::modifier::ModifyDerive<hook8<(anonymous namespace)::hook8Parent>, PlayLayer> >&)::{lambda()#1}, std::__ndk1::allocator<hook8<(anonymous namespace)::hook8Parent>::onModify<geode::modifier::ModifyBase<geode::modifier::ModifyDerive<hook8<(anonymous namespace)::hook8Parent>, PlayLayer> > >(geode::modifier::ModifyBase<geode::modifier::ModifyDerive<hook8<(anonymous namespace)::hook8Parent>, PlayLayer> >&)::{lambda()#1}>, void ()>::destroy()
FUNC c0d1c 60 0 std::__ndk1::__function::__func<hook8<(anonymous namespace)::hook8Parent>::onModify<geode::modifier::ModifyBase<geode::modifier::ModifyDerive<hook8<(anonymous namespace)::hook8Parent>, PlayLayer> > >(geode::modifier::ModifyBase<geode::modifier::ModifyDerive<hook8<(anonymous namespace)::hook8Parent>, PlayLayer> >&)::{lambda()#1}, std::__ndk1::allocator<hook8<(anonymous namespace)::hook8Parent>::onModify<geode::modifier::ModifyBase<geode::modifier::ModifyDerive<hook8<(anonymous namespace)::hook8Parent>, PlayLayer> > >(geode::modifier::ModifyBase<geode::modifier::ModifyDerive<hook8<(anonymous namespace)::hook8Parent>, PlayLayer> >&)::{lambda()#1}>, void ()>::destroy_deallocate()
FUNC c0d7c f0 0 std::__ndk1::__function::__func<hook8<(anonymous namespace)::hook8Parent>::onModify<geode::modifier::ModifyBase<geode::modifier::ModifyDerive<hook8<(anonymous namespace)::hook8Parent>, PlayLayer> > >(geode::modifier::ModifyBase<geode::modifier::ModifyDerive<hook8<(anonymous namespace)::hook8Parent>, PlayLayer> >&)::{lambda()#1}, std::__ndk1::allocator<hook8<(anonymous namespace)::hook8Parent>::onModify<geode::modifier::ModifyBase<geode::modifier::ModifyDerive<hook8<(anonymous namespace)::hook8Parent>, PlayLayer> > >(geode::modifier::ModifyBase<geode::modifier::ModifyDerive<hook8<(anonymous namespace)::hook8Parent>, PlayLayer> >&)::{lambda()#1}>, void ()>::operator()()
FUNC c0e6c 18 0 std::__ndk1::__function::__func<hook8<(anonymous namespace)::hook8Parent>::onModify<geode::modifier::ModifyBase<geode::modifier::ModifyDerive<hook8<(anonymous namespace)::hook8Parent>, PlayLayer> > >(geode::modifier::ModifyBase<geode::modifier::ModifyDerive<hook8<(anonymous namespace)::hook8Parent>, PlayLayer> >&)::{lambda()#1}, std::__ndk1::allocator<hook8<(anonymous namespace)::hook8Parent>::onModify<geode::modifier::ModifyBase<geode::modifier::ModifyDerive<hook8<(anonymous namespace)::hook8Parent>, PlayLayer> > >(geode::modifier::ModifyBase<geode::modifier::ModifyDerive<hook8<(anonymous namespace)::hook8Parent>, PlayLayer> >&)::{lambda()#1}>, void ()>::target(std::type_info const&) const
FUNC c0e84 c 0 std::__ndk1::__function::__func<hook8<(anonymous namespace)::hook8Parent>::onModify<geode::modifier::ModifyBase<geode::modifier::ModifyDerive<hook8<(anonymous namespace)::hook8Parent>, PlayLayer> > >(geode::modifier::ModifyBase<geode::modifier::ModifyDerive<hook8<(anonymous namespace)::hook8Parent>, PlayLayer> >&)::{lambda()#1}, std::__ndk1::allocator<hook8<(anonymous namespace)::hook8Parent>::onModify<geode::modifier::ModifyBase<geode::modifier::ModifyDerive<hook8<(anonymous namespace)::hook8Parent>, PlayLayer> > >(geode::modifier::ModifyBase<geode::modifier::ModifyDerive<hook8<(anonymous namespace)::hook8Parent>, PlayLayer> >&)::{lambda()#1}>, void ()>::target_type() const
FUNC c0e90 1a 0 geode::modifier::AsStaticFunction_init<hook8<(anonymous namespace)::hook8Parent>, bool (hook8<(anonymous namespace)::hook8Parent>::*)(GJGameLevel*, bool, bool)>::Impl<bool (hook8<(anonymous namespace)::hook8Parent>::*)(GJGameLevel*, bool, bool)>::function(hook8<(anonymous namespace)::hook8Parent>*, GJGameLevel*, bool, bool)
FUNC c0eac 4a8 0 __cxx_global_var_init.30
FUNC c1354 20 0 geode::modifier::ModifyBase<geode::modifier::ModifyDerive<hook10<(anonymous namespace)::hook10Parent>, LevelInfoLayer> >::~ModifyBase()
FUNC c1380 340 0 geode::modifier::ModifyDerive<hook10<(anonymous namespace)::hook10Parent>, LevelInfoLayer>::apply()
FUNC c16c0 2 0 geode::modifier::ModifyBase<geode::modifier::ModifyDerive<hook10<(anonymous namespace)::hook10Parent>, LevelInfoLayer> >::apply()
FUNC c16c4 60 0 hook10<(anonymous namespace)::hook10Parent>::onModify<geode::modifier::ModifyBase<geode::modifier::ModifyDerive<hook10<(anonymous namespace)::hook10Parent>, LevelInfoLayer> > >(geode::modifier::ModifyBase<geode::modifier::ModifyDerive<hook10<(anonymous namespace)::hook10Parent>, LevelInfoLayer> >&)::{lambda()#1}::~{lambda()#1}()
FUNC c1724 6c 0 std::__ndk1::__function::__func<hook10<(anonymous namespace)::hook10Parent>::onModify<geode::modifier::ModifyBase<geode::modifier::ModifyDerive<hook10<(anonymous namespace)::hook10Parent>, LevelInfoLayer> > >(geode::modifier::ModifyBase<geode::modifier::ModifyDerive<hook10<(anonymous namespace)::hook10Parent>, LevelInfoLayer> >&)::{lambda()#1}, std::__ndk1::allocator<hook10<(anonymous namespace)::hook10Parent>::onModify<geode::modifier::ModifyBase<geode::modifier::ModifyDerive<hook10<(anonymous namespace)::hook10Parent>, LevelInfoLayer> > >(geode::modifier::ModifyBase<geode::modifier::ModifyDerive<hook10<(anonymous namespace)::hook10Parent>, LevelInfoLayer> >&)::{lambda()#1}>, void ()>::~__func()
FUNC c1790 6c 0 std::__ndk1::__function::__func<hook10<(anonymous namespace)::hook10Parent>::onModify<geode::modifier::ModifyBase<geode::modifier::ModifyDerive<hook10<(anonymous namespace)::hook10Parent>, LevelInfoLayer> > >(geode::modifier::ModifyBase<geode::modifier::ModifyDerive<hook10<(anonymous namespace)::hook10Parent>, LevelInfoLayer> >&)::{lambda()#1}, std::__ndk1::allocator<hook10<(anonymous namespace)::hook10Parent>::onModify<geode::modifier::ModifyBase<geode::modifier::ModifyDerive<hook10<(anonymous namespace)::hook10Parent>, LevelInfoLayer> > >(geode::modifier::ModifyBase<geode::modifier::ModifyDerive<hook10<(anonymous namespace)::hook10Parent>, LevelInfoLayer> >&)::{lambda()#1}>, void ()>::~__func()
FUNC c17fc 98 0 std::__ndk1::__function::__func<hook10<(anonymous namespace)::hook10Parent>::onModify<geode::modifier::ModifyBase<geode::modifier::ModifyDerive<hook10<(anonymous namespace)::hook10Parent>, LevelInfoLayer> > >(geode::modifier::ModifyBase<geode::modifier::ModifyDerive<hook10<(anonymous namespace)::hook10Parent>, LevelInfoLayer> >&)::{lambda()#1}, std::__ndk1::allocator<hook10<(anonymous namespace)::hook10Parent>::onModify<geode::modifier::ModifyBase<geode::modifier::ModifyDerive<hook10<(anonymous namespace)::hook10Parent>, LevelInfoLayer> > >(geode::modifier::ModifyBase<geode::modifier::ModifyDerive<hook10<(anonymous namespace)::hook10Parent>, LevelInfoLayer> >&)::{lambda()#1}>, void ()>::__clone() const
FUNC c1894 88 0 std::__ndk1::__function::__func<hook10<(anonymous namespace)::hook10Parent>::onModify<geode::modifier::ModifyBase<geode::modifier::ModifyDerive<hook10<(anonymous namespace)::hook10Parent>, LevelInfoLayer> > >(geode::modifier::ModifyBase<geode::modifier::ModifyDerive<hook10<(anonymous namespace)::hook10Parent>, LevelInfoLayer> >&)::{lambda()#1}, std::__ndk1::allocator<hook10<(anonymous namespace)::hook10Parent>::onModify<geode::modifier::ModifyBase<geode::modifier::ModifyDerive<hook10<(anonymous namespace)::hook10Parent>, LevelInfoLayer> > >(geode::modifier::ModifyBase<geode::modifier::ModifyDerive<hook10<(anonymous namespace)::hook10Parent>, LevelInfoLayer> >&)::{lambda()#1}>, void ()>::__clone(std::__ndk1::__function::__base<void ()>*) const
FUNC c191c 60 0 std::__ndk1::__function::__func<hook10<(anonymous namespace)::hook10Parent>::onModify<geode::modifier::ModifyBase<geode::modifier::ModifyDerive<hook10<(anonymous namespace)::hook10Parent>, LevelInfoLayer> > >(geode::modifier::ModifyBase<geode::modifier::ModifyDerive<hook10<(anonymous namespace)::hook10Parent>, LevelInfoLayer> >&)::{lambda()#1}, std::__ndk1::allocator<hook10<(anonymous namespace)::hook10Parent>::onModify<geode::modifier::ModifyBase<geode::modifier::ModifyDerive<hook10<(anonymous namespace)::hook10Parent>, LevelInfoLayer> > >(geode::modifier::ModifyBase<geode::modifier::ModifyDerive<hook10<(anonymous namespace)::hook10Parent>, LevelInfoLayer> >&)::{lambda()#1}>, void ()>::destroy()
FUNC c197c 60 0 std::__ndk1::__function::__func<hook10<(anonymous namespace)::hook10Parent>::onModify<geode::modifier::ModifyBase<geode::modifier::ModifyDerive<hook10<(anonymous namespace)::hook10Parent>, LevelInfoLayer> > >(geode::modifier::ModifyBase<geode::modifier::ModifyDerive<hook10<(anonymous namespace)::hook10Parent>, LevelInfoLayer> >&)::{lambda()#1}, std::__ndk1::allocator<hook10<(anonymous namespace)::hook10Parent>::onModify<geode::modifier::ModifyBase<geode::modifier::ModifyDerive<hook10<(anonymous namespace)::hook10Parent>, LevelInfoLayer> > >(geode::modifier::ModifyBase<geode::modifier::ModifyDerive<hook10<(anonymous namespace)::hook10Parent>, LevelInfoLayer> >&)::{lambda()#1}>, void ()>::destroy_deallocate()
FUNC c19dc d0 0 std::__ndk1::__function::__func<hook10<(anonymous namespace)::hook10Parent>::onModify<geode::modifier::ModifyBase<geode::modifier::ModifyDerive<hook10<(anonymous namespace)::hook10Parent>, LevelInfoLayer> > >(geode::modifier::ModifyBase<geode::modifier::ModifyDerive<hook10<(anonymous namespace)::hook10Parent>, LevelInfoLayer> >&)::{lambda()#1}, std::__ndk1::allocator<hook10<(anonymous namespace)::hook10Parent>::onModify<geode::modifier::ModifyBase<geode::modifier::ModifyDerive<hook10<(anonymous namespace)::hook10Parent>, LevelInfoLayer> > >(geode::modifier::ModifyBase<geode::modifier::ModifyDerive<hook10<(anonymous namespace)::hook10Parent>, LevelInfoLayer> >&)::{lambda()#1}>, void ()>::operator()()
FUNC c1aac 18 0 std::__ndk1::__function::__func<hook10<(anonymous namespace)::hook10Parent>::onModify<geode::modifier::ModifyBase<geode::modifier::ModifyDerive<hook10<(anonymous namespace)::hook10Parent>, LevelInfoLayer> > >(geode::modifier::ModifyBase<geode::modifier::ModifyDerive<hook10<(anonymous namespace)::hook10Parent>, LevelInfoLayer> >&)::{lambda()#1}, std::__ndk1::allocator<hook10<(anonymous namespace)::hook10Parent>::onModify<geode::modifier::ModifyBase<geode::modifier::ModifyDerive<hook10<(anonymous namespace)::hook10Parent>, LevelInfoLayer> > >(geode::modifier::ModifyBase<geode::modifier::ModifyDerive<hook10<(anonymous namespace)::hook10Parent>, LevelInfoLayer> >&)::{lambda()#1}>, void ()>::target(std::type_info const&) const
FUNC c1ac4 c 0 std::__ndk1::__function::__func<hook10<(anonymous namespace)::hook10Parent>::onModify<geode::modifier::ModifyBase<geode::modifier::ModifyDerive<hook10<(anonymous namespace)::hook10Parent>, LevelInfoLayer> > >(geode::modifier::ModifyBase<geode::modifier::ModifyDerive<hook10<(anonymous namespace)::hook10Parent>, LevelInfoLayer> >&)::{lambda()#1}, std::__ndk1::allocator<hook10<(anonymous namespace)::hook10Parent>::onModify<geode::modifier::ModifyBase<geode::modifier::ModifyDerive<hook10<(anonymous namespace)::hook10Parent>, LevelInfoLayer> > >(geode::modifier::ModifyBase<geode::modifier::ModifyDerive<hook10<(anonymous namespace)::hook10Parent>, LevelInfoLayer> >&)::{lambda()#1}>, void ()>::target_type() const
FUNC c1ad0 98 0 geode::modifier::AsStaticFunction_init<hook10<(anonymous namespace)::hook10Parent>, bool (hook10<(anonymous namespace)::hook10Parent>::*)(GJGameLevel*, bool)>::Impl<bool (hook10<(anonymous namespace)::hook10Parent>::*)(GJGameLevel*, bool)>::function(hook10<(anonymous namespace)::hook10Parent>*, GJGameLevel*, bool)
FUNC c1b68 4 0 std::__ndk1::__function::__func<hook10<(anonymous namespace)::hook10Parent>::init(GJGameLevel*, bool)::{lambda()#1}, std::__ndk1::allocator<hook10<(anonymous namespace)::hook10Parent>::init(GJGameLevel*, bool)::{lambda()#1}>, void ()>::~__func()
FUNC c1b6c 20 0 std::__ndk1::__function::__func<hook10<(anonymous namespace)::hook10Parent>::init(GJGameLevel*, bool)::{lambda()#1}, std::__ndk1::allocator<hook10<(anonymous namespace)::hook10Parent>::init(GJGameLevel*, bool)::{lambda()#1}>, void ()>::__clone() const
FUNC c1b8c 14 0 std::__ndk1::__function::__func<hook10<(anonymous namespace)::hook10Parent>::init(GJGameLevel*, bool)::{lambda()#1}, std::__ndk1::allocator<hook10<(anonymous namespace)::hook10Parent>::init(GJGameLevel*, bool)::{lambda()#1}>, void ()>::__clone(std::__ndk1::__function::__base<void ()>*) const
FUNC c1ba0 2 0 std::__ndk1::__function::__func<hook10<(anonymous namespace)::hook10Parent>::init(GJGameLevel*, bool)::{lambda()#1}, std::__ndk1::allocator<hook10<(anonymous namespace)::hook10Parent>::init(GJGameLevel*, bool)::{lambda()#1}>, void ()>::destroy()
FUNC c1ba2 4 0 std::__ndk1::__function::__func<hook10<(anonymous namespace)::hook10Parent>::init(GJGameLevel*, bool)::{lambda()#1}, std::__ndk1::allocator<hook10<(anonymous namespace)::hook10Parent>::init(GJGameLevel*, bool)::{lambda()#1}>, void ()>::destroy_deallocate()
FUNC c1ba6 34 0 std::__ndk1::__function::__func<hook10<(anonymous namespace)::hook10Parent>::init(GJGameLevel*, bool)::{lambda()#1}, std::__ndk1::allocator<hook10<(anonymous namespace)::hook10Parent>::init(GJGameLevel*, bool)::{lambda()#1}>, void ()>::operator()()
FUNC c1bdc 18 0 std::__ndk1::__function::__func<hook10<(anonymous namespace)::hook10Parent>::init(GJGameLevel*, bool)::{lambda()#1}, std::__ndk1::allocator<hook10<(anonymous namespace)::hook10Parent>::init(GJGameLevel*, bool)::{lambda()#1}>, void ()>::target(std::type_info const&) const
FUNC c1bf4 c 0 std::__ndk1::__function::__func<hook10<(anonymous namespace)::hook10Parent>::init(GJGameLevel*, bool)::{lambda()#1}, std::__ndk1::allocator<hook10<(anonymous namespace)::hook10Parent>::init(GJGameLevel*, bool)::{lambda()#1}>, void ()>::target_type() const
FUNC c1c00 550 0 __cxx_global_var_init.30
FUNC c2150 20 0 geode::modifier::ModifyBase<geode::modifier::ModifyDerive<hook8<(anonymous namespace)::hook8Parent>, PlayerObject> >::~ModifyBase()
FUNC c2170 320 0 geode::modifier::ModifyDerive<hook8<(anonymous namespace)::hook8Parent>, PlayerObject>::apply()
FUNC c2490 2 0 geode::modifier::ModifyBase<geode::modifier::ModifyDerive<hook8<(anonymous namespace)::hook8Parent>, PlayerObject> >::apply()
FUNC c2494 2c 0 std::__ndk1::__function::__func<hook8<(anonymous namespace)::hook8Parent>::onModify<geode::modifier::ModifyBase<geode::modifier::ModifyDerive<hook8<(anonymous namespace)::hook8Parent>, PlayerObject> > >(geode::modifier::ModifyBase<geode::modifier::ModifyDerive<hook8<(anonymous namespace)::hook8Parent>, PlayerObject> >&)::{lambda()#1}, std::__ndk1::allocator<hook8<(anonymous namespace)::hook8Parent>::onModify<geode::modifier::ModifyBase<geode::modifier::ModifyDerive<hook8<(anonymous namespace)::hook8Parent>, PlayerObject> > >(geode::modifier::ModifyBase<geode::modifier::ModifyDerive<hook8<(anonymous namespace)::hook8Parent>, PlayerObject> >&)::{lambda()#1}>, void ()>::~__func()
FUNC c24c0 30 0 std::__ndk1::__function::__func<hook8<(anonymous namespace)::hook8Parent>::onModify<geode::modifier::ModifyBase<geode::modifier::ModifyDerive<hook8<(anonymous namespace)::hook8Parent>, PlayerObject> > >(geode::modifier::ModifyBase<geode::modifier::ModifyDerive<hook8<(anonymous namespace)::hook8Parent>, PlayerObject> >&)::{lambda()#1}, std::__ndk1::allocator<hook8<(anonymous namespace)::hook8Parent>::onModify<geode::modifier::ModifyBase<geode::modifier::ModifyDerive<hook8<(anonymous namespace)::hook8Parent>, PlayerObject> > >(geode::modifier::ModifyBase<geode::modifier::ModifyDerive<hook8<(anonymous namespace)::hook8Parent>, PlayerObject> >&)::{lambda()#1}>, void ()>::~__func()
FUNC c24f0 7c 0 std::__ndk1::__function::__func<hook8<(anonymous namespace)::hook8Parent>::onModify<geode::modifier::ModifyBase<geode::modifier::ModifyDerive<hook8<(anonymous namespace)::hook8Parent>, PlayerObject> > >(geode::modifier::ModifyBase<geode::modifier::ModifyDerive<hook8<(anonymous namespace)::hook8Parent>, PlayerObject> >&)::{lambda()#1}, std::__ndk1::allocator<hook8<(anonymous namespace)::hook8Parent>::onModify<geode::modifier::ModifyBase<geode::modifier::ModifyDerive<hook8<(anonymous namespace)::hook8Parent>, PlayerObject> > >(geode::modifier::ModifyBase<geode::modifier::ModifyDerive<hook8<(anonymous namespace)::hook8Parent>, PlayerObject> >&)::{lambda()#1}>, void ()>::__clone() const
FUNC c256c 70 0 std::__ndk1::__function::__func<hook8<(anonymous namespace)::hook8Parent>::onModify<geode::modifier::ModifyBase<geode::modifier::ModifyDerive<hook8<(anonymous namespace)::hook8Parent>, PlayerObject> > >(geode::modifier::ModifyBase<geode::modifier::ModifyDerive<hook8<(anonymous namespace)::hook8Parent>, PlayerObject> >&)::{lambda()#1}, std::__ndk1::allocator<hook8<(anonymous namespace)::hook8Parent>::onModify<geode::modifier::ModifyBase<geode::modifier::ModifyDerive<hook8<(anonymous namespace)::hook8Parent>, PlayerObject> > >(geode::modifier::ModifyBase<geode::modifier::ModifyDerive<hook8<(anonymous namespace)::hook8Parent>, PlayerObject> >&)::{lambda()#1}>, void ()>::__clone(std::__ndk1::__function::__base<void ()>*) const
FUNC c25dc 10 0 std::__ndk1::__function::__func<hook8<(anonymous namespace)::hook8Parent>::onModify<geode::modifier::ModifyBase<geode::modifier::ModifyDerive<hook8<(anonymous namespace)::hook8Parent>, PlayerObject> > >(geode::modifier::ModifyBase<geode::modifier::ModifyDerive<hook8<(anonymous namespace)::hook8Parent>, PlayerObject> >&)::{lambda()#1}, std::__ndk1::allocator<hook8<(anonymous namespace)::hook8Parent>::onModify<geode::modifier::ModifyBase<geode::modifier::ModifyDerive<hook8<(anonymous namespace)::hook8Parent>, PlayerObject> > >(geode::modifier::ModifyBase<geode::modifier::ModifyDerive<hook8<(anonymous namespace)::hook8Parent>, PlayerObject> >&)::{lambda()#1}>, void ()>::destroy()
FUNC c25ec 22 0 std::__ndk1::__function::__func<hook8<(anonymous namespace)::hook8Parent>::onModify<geode::modifier::ModifyBase<geode::modifier::ModifyDerive<hook8<(anonymous namespace)::hook8Parent>, PlayerObject> > >(geode::modifier::ModifyBase<geode::modifier::ModifyDerive<hook8<(anonymous namespace)::hook8Parent>, PlayerObject> >&)::{lambda()#1}, std::__ndk1::allocator<hook8<(anonymous namespace)::hook8Parent>::onModify<geode::modifier::ModifyBase<geode::modifier::ModifyDerive<hook8<(anonymous namespace)::hook8Parent>, PlayerObject> > >(geode::modifier::ModifyBase<geode::modifier::ModifyDerive<hook8<(anonymous namespace)::hook8Parent>, PlayerObject> >&)::{lambda()#1}>, void ()>::destroy_deallocate()
FUNC c2610 88 0 std::__ndk1::__function::__func<hook8<(anonymous namespace)::hook8Parent>::onModify<geode::modifier::ModifyBase<geode::modifier::ModifyDerive<hook8<(anonymous namespace)::hook8Parent>, PlayerObject> > >(geode::modifier::ModifyBase<geode::modifier::ModifyDerive<hook8<(anonymous namespace)::hook8Parent>, PlayerObject> >&)::{lambda()#1}, std::__ndk1::allocator<hook8<(anonymous namespace)::hook8Parent>::onModify<geode::modifier::ModifyBase<geode::modifier::ModifyDerive<hook8<(anonymous namespace)::hook8Parent>, PlayerObject> > >(geode::modifier::ModifyBase<geode::modifier::ModifyDerive<hook8<(anonymous namespace)::hook8Parent>, PlayerObject> >&)::{lambda()#1}>, void ()>::operator()()
FUNC c2698 18 0 std::__ndk1::__function::__func<hook8<(anonymous namespace)::hook8Parent>::onModify<geode::modifier::ModifyBase<geode::modifier::ModifyDerive<hook8<(anonymous namespace)::hook8Parent>, PlayerObject> > >(geode::modifier::ModifyBase<geode::modifier::ModifyDerive<hook8<(anonymous namespace)::hook8Parent>, PlayerObject> >&)::{lambda()#1}, std::__ndk1::allocator<hook8<(anonymous namespace)::hook8Parent>::onModify<geode::modifier::ModifyBase<geode::modifier::ModifyDerive<hook8<(anonymous namespace)::hook8Parent>, PlayerObject> > >(geode::modifier::ModifyBase<geode::modifier::ModifyDerive<hook8<(anonymous namespace)::hook8Parent>, PlayerObject> >&)::{lambda()#1}>, void ()>::target(std::type_info const&) const
FUNC c26b0 c 0 std::__ndk1::__function::__func<hook8<(anonymous namespace)::hook8Parent>::onModify<geode::modifier::ModifyBase<geode::modifier::ModifyDerive<hook8<(anonymous namespace)::hook8Parent>, PlayerObject> > >(geode::modifier::ModifyBase<geode::modifier::ModifyDerive<hook8<(anonymous namespace)::hook8Parent>, PlayerObject> >&)::{lambda()#1}, std::__ndk1::allocator<hook8<(anonymous namespace)::hook8Parent>::onModify<geode::modifier::ModifyBase<geode::modifier::ModifyDerive<hook8<(anonymous namespace)::hook8Parent>, PlayerObject> > >(geode::modifier::ModifyBase<geode::modifier::ModifyDerive<hook8<(anonymous namespace)::hook8Parent>, PlayerObject> >&)::{lambda()#1}>, void ()>::target_type() const
FUNC c26bc 54 0 geode::modifier::AsStaticFunction_switchedToMode<hook8<(anonymous namespace)::hook8Parent>, void (hook8<(anonymous namespace)::hook8Parent>::*)(GameObjectType)>::Impl<void (hook8<(anonymous namespace)::hook8Parent>::*)(GameObjectType)>::function(hook8<(anonymous namespace)::hook8Parent>*, GameObjectType)
FUNC c2710 4ac 0 __cxx_global_var_init.30
FUNC c2bbc 20 0 geode::modifier::ModifyBase<geode::modifier::ModifyDerive<hook9<(anonymous namespace)::hook9Parent>, SecretLayer2> >::~ModifyBase()
FUNC c2be0 310 0 geode::modifier::ModifyDerive<hook9<(anonymous namespace)::hook9Parent>, SecretLayer2>::apply()
FUNC c2ef0 2 0 geode::modifier::ModifyBase<geode::modifier::ModifyDerive<hook9<(anonymous namespace)::hook9Parent>, SecretLayer2> >::apply()
FUNC c2ef4 108 0 geode::modifier::ModifyBase<geode::modifier::ModifyDerive<hook9<(anonymous namespace)::hook9Parent>, SecretLayer2> >::getHook(std::__ndk1::basic_string_view<char, std::__ndk1::char_traits<char> >)
FUNC c2ffc 60 0 hook9<(anonymous namespace)::hook9Parent>::onModify<geode::modifier::ModifyBase<geode::modifier::ModifyDerive<hook9<(anonymous namespace)::hook9Parent>, SecretLayer2> > >(geode::modifier::ModifyBase<geode::modifier::ModifyDerive<hook9<(anonymous namespace)::hook9Parent>, SecretLayer2> >&)::{lambda()#1}::~{lambda()#1}()
FUNC c305c 6c 0 std::__ndk1::__function::__func<hook9<(anonymous namespace)::hook9Parent>::onModify<geode::modifier::ModifyBase<geode::modifier::ModifyDerive<hook9<(anonymous namespace)::hook9Parent>, SecretLayer2> > >(geode::modifier::ModifyBase<geode::modifier::ModifyDerive<hook9<(anonymous namespace)::hook9Parent>, SecretLayer2> >&)::{lambda()#1}, std::__ndk1::allocator<hook9<(anonymous namespace)::hook9Parent>::onModify<geode::modifier::ModifyBase<geode::modifier::ModifyDerive<hook9<(anonymous namespace)::hook9Parent>, SecretLayer2> > >(geode::modifier::ModifyBase<geode::modifier::ModifyDerive<hook9<(anonymous namespace)::hook9Parent>, SecretLayer2> >&)::{lambda()#1}>, void ()>::~__func()
FUNC c30c8 6c 0 std::__ndk1::__function::__func<hook9<(anonymous namespace)::hook9Parent>::onModify<geode::modifier::ModifyBase<geode::modifier::ModifyDerive<hook9<(anonymous namespace)::hook9Parent>, SecretLayer2> > >(geode::modifier::ModifyBase<geode::modifier::ModifyDerive<hook9<(anonymous namespace)::hook9Parent>, SecretLayer2> >&)::{lambda()#1}, std::__ndk1::allocator<hook9<(anonymous namespace)::hook9Parent>::onModify<geode::modifier::ModifyBase<geode::modifier::ModifyDerive<hook9<(anonymous namespace)::hook9Parent>, SecretLayer2> > >(geode::modifier::ModifyBase<geode::modifier::ModifyDerive<hook9<(anonymous namespace)::hook9Parent>, SecretLayer2> >&)::{lambda()#1}>, void ()>::~__func()
FUNC c3134 98 0 std::__ndk1::__function::__func<hook9<(anonymous namespace)::hook9Parent>::onModify<geode::modifier::ModifyBase<geode::modifier::ModifyDerive<hook9<(anonymous namespace)::hook9Parent>, SecretLayer2> > >(geode::modifier::ModifyBase<geode::modifier::ModifyDerive<hook9<(anonymous namespace)::hook9Parent>, SecretLayer2> >&)::{lambda()#1}, std::__ndk1::allocator<hook9<(anonymous namespace)::hook9Parent>::onModify<geode::modifier::ModifyBase<geode::modifier::ModifyDerive<hook9<(anonymous namespace)::hook9Parent>, SecretLayer2> > >(geode::modifier::ModifyBase<geode::modifier::ModifyDerive<hook9<(anonymous namespace)::hook9Parent>, SecretLayer2> >&)::{lambda()#1}>, void ()>::__clone() const
FUNC c31cc 88 0 std::__ndk1::__function::__func<hook9<(anonymous namespace)::hook9Parent>::onModify<geode::modifier::ModifyBase<geode::modifier::ModifyDerive<hook9<(anonymous namespace)::hook9Parent>, SecretLayer2> > >(geode::modifier::ModifyBase<geode::modifier::ModifyDerive<hook9<(anonymous namespace)::hook9Parent>, SecretLayer2> >&)::{lambda()#1}, std::__ndk1::allocator<hook9<(anonymous namespace)::hook9Parent>::onModify<geode::modifier::ModifyBase<geode::modifier::ModifyDerive<hook9<(anonymous namespace)::hook9Parent>, SecretLayer2> > >(geode::modifier::ModifyBase<geode::modifier::ModifyDerive<hook9<(anonymous namespace)::hook9Parent>, SecretLayer2> >&)::{lambda()#1}>, void ()>::__clone(std::__ndk1::__function::__base<void ()>*) const
FUNC c3254 60 0 std::__ndk1::__function::__func<hook9<(anonymous namespace)::hook9Parent>::onModify<geode::modifier::ModifyBase<geode::modifier::ModifyDerive<hook9<(anonymous namespace)::hook9Parent>, SecretLayer2> > >(geode::modifier::ModifyBase<geode::modifier::ModifyDerive<hook9<(anonymous namespace)::hook9Parent>, SecretLayer2> >&)::{lambda()#1}, std::__ndk1::allocator<hook9<(anonymous namespace)::hook9Parent>::onModify<geode::modifier::ModifyBase<geode::modifier::ModifyDerive<hook9<(anonymous namespace)::hook9Parent>, SecretLayer2> > >(geode::modifier::ModifyBase<geode::modifier::ModifyDerive<hook9<(anonymous namespace)::hook9Parent>, SecretLayer2> >&)::{lambda()#1}>, void ()>::destroy()
FUNC c32b4 60 0 std::__ndk1::__function::__func<hook9<(anonymous namespace)::hook9Parent>::onModify<geode::modifier::ModifyBase<geode::modifier::ModifyDerive<hook9<(anonymous namespace)::hook9Parent>, SecretLayer2> > >(geode::modifier::ModifyBase<geode::modifier::ModifyDerive<hook9<(anonymous namespace)::hook9Parent>, SecretLayer2> >&)::{lambda()#1}, std::__ndk1::allocator<hook9<(anonymous namespace)::hook9Parent>::onModify<geode::modifier::ModifyBase<geode::modifier::ModifyDerive<hook9<(anonymous namespace)::hook9Parent>, SecretLayer2> > >(geode::modifier::ModifyBase<geode::modifier::ModifyDerive<hook9<(anonymous namespace)::hook9Parent>, SecretLayer2> >&)::{lambda()#1}>, void ()>::destroy_deallocate()
FUNC c3314 fc 0 std::__ndk1::__function::__func<hook9<(anonymous namespace)::hook9Parent>::onModify<geode::modifier::ModifyBase<geode::modifier::ModifyDerive<hook9<(anonymous namespace)::hook9Parent>, SecretLayer2> > >(geode::modifier::ModifyBase<geode::modifier::ModifyDerive<hook9<(anonymous namespace)::hook9Parent>, SecretLayer2> >&)::{lambda()#1}, std::__ndk1::allocator<hook9<(anonymous namespace)::hook9Parent>::onModify<geode::modifier::ModifyBase<geode::modifier::ModifyDerive<hook9<(anonymous namespace)::hook9Parent>, SecretLayer2> > >(geode::modifier::ModifyBase<geode::modifier::ModifyDerive<hook9<(anonymous namespace)::hook9Parent>, SecretLayer2> >&)::{lambda()#1}>, void ()>::operator()()
FUNC c3410 18 0 std::__ndk1::__function::__func<hook9<(anonymous namespace)::hook9Parent>::onModify<geode::modifier::ModifyBase<geode::modifier::ModifyDerive<hook9<(anonymous namespace)::hook9Parent>, SecretLayer2> > >(geode::modifier::ModifyBase<geode::modifier::ModifyDerive<hook9<(anonymous namespace)::hook9Parent>, SecretLayer2> >&)::{lambda()#1}, std::__ndk1::allocator<hook9<(anonymous namespace)::hook9Parent>::onModify<geode::modifier::ModifyBase<geode::modifier::ModifyDerive<hook9<(anonymous namespace)::hook9Parent>, SecretLayer2> > >(geode::modifier::ModifyBase<geode::modifier::ModifyDerive<hook9<(anonymous namespace)::hook9Parent>, SecretLayer2> >&)::{lambda()#1}>, void ()>::target(std::type_info const&) const
FUNC c3428 c 0 std::__ndk1::__function::__func<hook9<(anonymous namespace)::hook9Parent>::onModify<geode::modifier::ModifyBase<geode::modifier::ModifyDerive<hook9<(anonymous namespace)::hook9Parent>, SecretLayer2> > >(geode::modifier::ModifyBase<geode::modifier::ModifyDerive<hook9<(anonymous namespace)::hook9Parent>, SecretLayer2> >&)::{lambda()#1}, std::__ndk1::allocator<hook9<(anonymous namespace)::hook9Parent>::onModify<geode::modifier::ModifyBase<geode::modifier::ModifyDerive<hook9<(anonymous namespace)::hook9Parent>, SecretLayer2> > >(geode::modifier::ModifyBase<geode::modifier::ModifyDerive<hook9<(anonymous namespace)::hook9Parent>, SecretLayer2> >&)::{lambda()#1}>, void ()>::target_type() const
FUNC c3434 48 0 geode::modifier::AsStaticFunction_onDoor<hook9<(anonymous namespace)::hook9Parent>, void (hook9<(anonymous namespace)::hook9Parent>::*)(cocos2d::CCObject*)>::Impl<void (hook9<(anonymous namespace)::hook9Parent>::*)(cocos2d::CCObject*)>::function(hook9<(anonymous namespace)::hook9Parent>*, cocos2d::CCObject*)
FUNC c347c 4ac 0 __cxx_global_var_init.30
FUNC c3928 20 0 geode::modifier::ModifyBase<geode::modifier::ModifyDerive<hook8<(anonymous namespace)::hook8Parent>, SecretLayer2> >::~ModifyBase()
FUNC c3950 320 0 geode::modifier::ModifyDerive<hook8<(anonymous namespace)::hook8Parent>, SecretLayer2>::apply()
FUNC c3c70 2 0 geode::modifier::ModifyBase<geode::modifier::ModifyDerive<hook8<(anonymous namespace)::hook8Parent>, SecretLayer2> >::apply()
FUNC c3c74 108 0 geode::modifier::ModifyBase<geode::modifier::ModifyDerive<hook8<(anonymous namespace)::hook8Parent>, SecretLayer2> >::getHook(std::__ndk1::basic_string_view<char, std::__ndk1::char_traits<char> >)
FUNC c3d7c 60 0 hook8<(anonymous namespace)::hook8Parent>::onModify<geode::modifier::ModifyBase<geode::modifier::ModifyDerive<hook8<(anonymous namespace)::hook8Parent>, SecretLayer2> > >(geode::modifier::ModifyBase<geode::modifier::ModifyDerive<hook8<(anonymous namespace)::hook8Parent>, SecretLayer2> >&)::{lambda()#1}::~{lambda()#1}()
FUNC c3ddc 6c 0 std::__ndk1::__function::__func<hook8<(anonymous namespace)::hook8Parent>::onModify<geode::modifier::ModifyBase<geode::modifier::ModifyDerive<hook8<(anonymous namespace)::hook8Parent>, SecretLayer2> > >(geode::modifier::ModifyBase<geode::modifier::ModifyDerive<hook8<(anonymous namespace)::hook8Parent>, SecretLayer2> >&)::{lambda()#1}, std::__ndk1::allocator<hook8<(anonymous namespace)::hook8Parent>::onModify<geode::modifier::ModifyBase<geode::modifier::ModifyDerive<hook8<(anonymous namespace)::hook8Parent>, SecretLayer2> > >(geode::modifier::ModifyBase<geode::modifier::ModifyDerive<hook8<(anonymous namespace)::hook8Parent>, SecretLayer2> >&)::{lambda()#1}>, void ()>::~__func()
FUNC c3e48 6c 0 std::__ndk1::__function::__func<hook8<(anonymous namespace)::hook8Parent>::onModify<geode::modifier::ModifyBase<geode::modifier::ModifyDerive<hook8<(anonymous namespace)::hook8Parent>, SecretLayer2> > >(geode::modifier::ModifyBase<geode::modifier::ModifyDerive<hook8<(anonymous namespace)::hook8Parent>, SecretLayer2> >&)::{lambda()#1}, std::__ndk1::allocator<hook8<(anonymous namespace)::hook8Parent>::onModify<geode::modifier::ModifyBase<geode::modifier::ModifyDerive<hook8<(anonymous namespace)::hook8Parent>, SecretLayer2> > >(geode::modifier::ModifyBase<geode::modifier::ModifyDerive<hook8<(anonymous namespace)::hook8Parent>, SecretLayer2> >&)::{lambda()#1}>, void ()>::~__func()
FUNC c3eb4 98 0 std::__ndk1::__function::__func<hook8<(anonymous namespace)::hook8Parent>::onModify<geode::modifier::ModifyBase<geode::modifier::ModifyDerive<hook8<(anonymous namespace)::hook8Parent>, SecretLayer2> > >(geode::modifier::ModifyBase<geode::modifier::ModifyDerive<hook8<(anonymous namespace)::hook8Parent>, SecretLayer2> >&)::{lambda()#1}, std::__ndk1::allocator<hook8<(anonymous namespace)::hook8Parent>::onModify<geode::modifier::ModifyBase<geode::modifier::ModifyDerive<hook8<(anonymous namespace)::hook8Parent>, SecretLayer2> > >(geode::modifier::ModifyBase<geode::modifier::ModifyDerive<hook8<(anonymous namespace)::hook8Parent>, SecretLayer2> >&)::{lambda()#1}>, void ()>::__clone() const
FUNC c3f4c 88 0 std::__ndk1::__function::__func<hook8<(anonymous namespace)::hook8Parent>::onModify<geode::modifier::ModifyBase<geode::modifier::ModifyDerive<hook8<(anonymous namespace)::hook8Parent>, SecretLayer2> > >(geode::modifier::ModifyBase<geode::modifier::ModifyDerive<hook8<(anonymous namespace)::hook8Parent>, SecretLayer2> >&)::{lambda()#1}, std::__ndk1::allocator<hook8<(anonymous namespace)::hook8Parent>::onModify<geode::modifier::ModifyBase<geode::modifier::ModifyDerive<hook8<(anonymous namespace)::hook8Parent>, SecretLayer2> > >(geode::modifier::ModifyBase<geode::modifier::ModifyDerive<hook8<(anonymous namespace)::hook8Parent>, SecretLayer2> >&)::{lambda()#1}>, void ()>::__clone(std::__ndk1::__function::__base<void ()>*) const
FUNC c3fd4 60 0 std::__ndk1::__function::__func<hook8<(anonymous namespace)::hook8Parent>::onModify<geode::modifier::ModifyBase<geode::modifier::ModifyDerive<hook8<(anonymous namespace)::hook8Parent>, SecretLayer2> > >(geode::modifier::ModifyBase<geode::modifier::ModifyDerive<hook8<(anonymous namespace)::hook8Parent>, SecretLayer2> >&)::{lambda()#1}, std::__ndk1::allocator<hook8<(anonymous namespace)::hook8Parent>::onModify<geode::modifier::ModifyBase<geode::modifier::ModifyDerive<hook8<(anonymous namespace)::hook8Parent>, SecretLayer2> > >(geode::modifier::ModifyBase<geode::modifier::ModifyDerive<hook8<(anonymous namespace)::hook8Parent>, SecretLayer2> >&)::{lambda()#1}>, void ()>::destroy()
FUNC c4034 60 0 std::__ndk1::__function::__func<hook8<(anonymous namespace)::hook8Parent>::onModify<geode::modifier::ModifyBase<geode::modifier::ModifyDerive<hook8<(anonymous namespace)::hook8Parent>, SecretLayer2> > >(geode::modifier::ModifyBase<geode::modifier::ModifyDerive<hook8<(anonymous namespace)::hook8Parent>, SecretLayer2> >&)::{lambda()#1}, std::__ndk1::allocator<hook8<(anonymous namespace)::hook8Parent>::onModify<geode::modifier::ModifyBase<geode::modifier::ModifyDerive<hook8<(anonymous namespace)::hook8Parent>, SecretLayer2> > >(geode::modifier::ModifyBase<geode::modifier::ModifyDerive<hook8<(anonymous namespace)::hook8Parent>, SecretLayer2> >&)::{lambda()#1}>, void ()>::destroy_deallocate()
FUNC c4094 fc 0 std::__ndk1::__function::__func<hook8<(anonymous namespace)::hook8Parent>::onModify<geode::modifier::ModifyBase<geode::modifier::ModifyDerive<hook8<(anonymous namespace)::hook8Parent>, SecretLayer2> > >(geode::modifier::ModifyBase<geode::modifier::ModifyDerive<hook8<(anonymous namespace)::hook8Parent>, SecretLayer2> >&)::{lambda()#1}, std::__ndk1::allocator<hook8<(anonymous namespace)::hook8Parent>::onModify<geode::modifier::ModifyBase<geode::modifier::ModifyDerive<hook8<(anonymous namespace)::hook8Parent>, SecretLayer2> > >(geode::modifier::ModifyBase<geode::modifier::ModifyDerive<hook8<(anonymous namespace)::hook8Parent>, SecretLayer2> >&)::{lambda()#1}>, void ()>::operator()()
FUNC c4190 18 0 std::__ndk1::__function::__func<hook8<(anonymous namespace)::hook8Parent>::onModify<geode::modifier::ModifyBase<geode::modifier::ModifyDerive<hook8<(anonymous namespace)::hook8Parent>, SecretLayer2> > >(geode::modifier::ModifyBase<geode::modifier::ModifyDerive<hook8<(anonymous namespace)::hook8Parent>, SecretLayer2> >&)::{lambda()#1}, std::__ndk1::allocator<hook8<(anonymous namespace)::hook8Parent>::onModify<geode::modifier::ModifyBase<geode::modifier::ModifyDerive<hook8<(anonymous namespace)::hook8Parent>, SecretLayer2> > >(geode::modifier::ModifyBase<geode::modifier::ModifyDerive<hook8<(anonymous namespace)::hook8Parent>, SecretLayer2> >&)::{lambda()#1}>, void ()>::target(std::type_info const&) const
FUNC c41a8 c 0 std::__ndk1::__function::__func<hook8<(anonymous namespace)::hook8Parent>::onModify<geode::modifier::ModifyBase<geode::modifier::ModifyDerive<hook8<(anonymous namespace)::hook8Parent>, SecretLayer2> > >(geode::modifier::ModifyBase<geode::modifier::ModifyDerive<hook8<(anonymous namespace)::hook8Parent>, SecretLayer2> >&)::{lambda()#1}, std::__ndk1::allocator<hook8<(anonymous namespace)::hook8Parent>::onModify<geode::modifier::ModifyBase<geode::modifier::ModifyDerive<hook8<(anonymous namespace)::hook8Parent>, SecretLayer2> > >(geode::modifier::ModifyBase<geode::modifier::ModifyDerive<hook8<(anonymous namespace)::hook8Parent>, SecretLayer2> >&)::{lambda()#1}>, void ()>::target_type() const
FUNC c41b4 3e 0 geode::modifier::AsStaticFunction_onSecretLevel<hook8<(anonymous namespace)::hook8Parent>, void (hook8<(anonymous namespace)::hook8Parent>::*)(cocos2d::CCObject*)>::Impl<void (hook8<(anonymous namespace)::hook8Parent>::*)(cocos2d::CCObject*)>::function(hook8<(anonymous namespace)::hook8Parent>*, cocos2d::CCObject*)
FUNC c41f4 4ac 0 __cxx_global_var_init.30
FUNC c46a0 20 0 geode::modifier::ModifyBase<geode::modifier::ModifyDerive<hook8<(anonymous namespace)::hook8Parent>, CreatorLayer> >::~ModifyBase()
FUNC c46c0 320 0 geode::modifier::ModifyDerive<hook8<(anonymous namespace)::hook8Parent>, CreatorLayer>::apply()
FUNC c49e0 2 0 geode::modifier::ModifyBase<geode::modifier::ModifyDerive<hook8<(anonymous namespace)::hook8Parent>, CreatorLayer> >::apply()
FUNC c49e4 108 0 geode::modifier::ModifyBase<geode::modifier::ModifyDerive<hook8<(anonymous namespace)::hook8Parent>, CreatorLayer> >::getHook(std::__ndk1::basic_string_view<char, std::__ndk1::char_traits<char> >)
FUNC c4aec 60 0 hook8<(anonymous namespace)::hook8Parent>::onModify<geode::modifier::ModifyBase<geode::modifier::ModifyDerive<hook8<(anonymous namespace)::hook8Parent>, CreatorLayer> > >(geode::modifier::ModifyBase<geode::modifier::ModifyDerive<hook8<(anonymous namespace)::hook8Parent>, CreatorLayer> >&)::{lambda()#1}::~{lambda()#1}()
FUNC c4b4c 6c 0 std::__ndk1::__function::__func<hook8<(anonymous namespace)::hook8Parent>::onModify<geode::modifier::ModifyBase<geode::modifier::ModifyDerive<hook8<(anonymous namespace)::hook8Parent>, CreatorLayer> > >(geode::modifier::ModifyBase<geode::modifier::ModifyDerive<hook8<(anonymous namespace)::hook8Parent>, CreatorLayer> >&)::{lambda()#1}, std::__ndk1::allocator<hook8<(anonymous namespace)::hook8Parent>::onModify<geode::modifier::ModifyBase<geode::modifier::ModifyDerive<hook8<(anonymous namespace)::hook8Parent>, CreatorLayer> > >(geode::modifier::ModifyBase<geode::modifier::ModifyDerive<hook8<(anonymous namespace)::hook8Parent>, CreatorLayer> >&)::{lambda()#1}>, void ()>::~__func()
FUNC c4bb8 6c 0 std::__ndk1::__function::__func<hook8<(anonymous namespace)::hook8Parent>::onModify<geode::modifier::ModifyBase<geode::modifier::ModifyDerive<hook8<(anonymous namespace)::hook8Parent>, CreatorLayer> > >(geode::modifier::ModifyBase<geode::modifier::ModifyDerive<hook8<(anonymous namespace)::hook8Parent>, CreatorLayer> >&)::{lambda()#1}, std::__ndk1::allocator<hook8<(anonymous namespace)::hook8Parent>::onModify<geode::modifier::ModifyBase<geode::modifier::ModifyDerive<hook8<(anonymous namespace)::hook8Parent>, CreatorLayer> > >(geode::modifier::ModifyBase<geode::modifier::ModifyDerive<hook8<(anonymous namespace)::hook8Parent>, CreatorLayer> >&)::{lambda()#1}>, void ()>::~__func()
FUNC c4c24 98 0 std::__ndk1::__function::__func<hook8<(anonymous namespace)::hook8Parent>::onModify<geode::modifier::ModifyBase<geode::modifier::ModifyDerive<hook8<(anonymous namespace)::hook8Parent>, CreatorLayer> > >(geode::modifier::ModifyBase<geode::modifier::ModifyDerive<hook8<(anonymous namespace)::hook8Parent>, CreatorLayer> >&)::{lambda()#1}, std::__ndk1::allocator<hook8<(anonymous namespace)::hook8Parent>::onModify<geode::modifier::ModifyBase<geode::modifier::ModifyDerive<hook8<(anonymous namespace)::hook8Parent>, CreatorLayer> > >(geode::modifier::ModifyBase<geode::modifier::ModifyDerive<hook8<(anonymous namespace)::hook8Parent>, CreatorLayer> >&)::{lambda()#1}>, void ()>::__clone() const
FUNC c4cbc 88 0 std::__ndk1::__function::__func<hook8<(anonymous namespace)::hook8Parent>::onModify<geode::modifier::ModifyBase<geode::modifier::ModifyDerive<hook8<(anonymous namespace)::hook8Parent>, CreatorLayer> > >(geode::modifier::ModifyBase<geode::modifier::ModifyDerive<hook8<(anonymous namespace)::hook8Parent>, CreatorLayer> >&)::{lambda()#1}, std::__ndk1::allocator<hook8<(anonymous namespace)::hook8Parent>::onModify<geode::modifier::ModifyBase<geode::modifier::ModifyDerive<hook8<(anonymous namespace)::hook8Parent>, CreatorLayer> > >(geode::modifier::ModifyBase<geode::modifier::ModifyDerive<hook8<(anonymous namespace)::hook8Parent>, CreatorLayer> >&)::{lambda()#1}>, void ()>::__clone(std::__ndk1::__function::__base<void ()>*) const
FUNC c4d44 60 0 std::__ndk1::__function::__func<hook8<(anonymous namespace)::hook8Parent>::onModify<geode::modifier::ModifyBase<geode::modifier::ModifyDerive<hook8<(anonymous namespace)::hook8Parent>, CreatorLayer> > >(geode::modifier::ModifyBase<geode::modifier::ModifyDerive<hook8<(anonymous namespace)::hook8Parent>, CreatorLayer> >&)::{lambda()#1}, std::__ndk1::allocator<hook8<(anonymous namespace)::hook8Parent>::onModify<geode::modifier::ModifyBase<geode::modifier::ModifyDerive<hook8<(anonymous namespace)::hook8Parent>, CreatorLayer> > >(geode::modifier::ModifyBase<geode::modifier::ModifyDerive<hook8<(anonymous namespace)::hook8Parent>, CreatorLayer> >&)::{lambda()#1}>, void ()>::destroy()
FUNC c4da4 60 0 std::__ndk1::__function::__func<hook8<(anonymous namespace)::hook8Parent>::onModify<geode::modifier::ModifyBase<geode::modifier::ModifyDerive<hook8<(anonymous namespace)::hook8Parent>, CreatorLayer> > >(geode::modifier::ModifyBase<geode::modifier::ModifyDerive<hook8<(anonymous namespace)::hook8Parent>, CreatorLayer> >&)::{lambda()#1}, std::__ndk1::allocator<hook8<(anonymous namespace)::hook8Parent>::onModify<geode::modifier::ModifyBase<geode::modifier::ModifyDerive<hook8<(anonymous namespace)::hook8Parent>, CreatorLayer> > >(geode::modifier::ModifyBase<geode::modifier::ModifyDerive<hook8<(anonymous namespace)::hook8Parent>, CreatorLayer> >&)::{lambda()#1}>, void ()>::destroy_deallocate()
FUNC c4e04 fc 0 std::__ndk1::__function::__func<hook8<(anonymous namespace)::hook8Parent>::onModify<geode::modifier::ModifyBase<geode::modifier::ModifyDerive<hook8<(anonymous namespace)::hook8Parent>, CreatorLayer> > >(geode::modifier::ModifyBase<geode::modifier::ModifyDerive<hook8<(anonymous namespace)::hook8Parent>, CreatorLayer> >&)::{lambda()#1}, std::__ndk1::allocator<hook8<(anonymous namespace)::hook8Parent>::onModify<geode::modifier::ModifyBase<geode::modifier::ModifyDerive<hook8<(anonymous namespace)::hook8Parent>, CreatorLayer> > >(geode::modifier::ModifyBase<geode::modifier::ModifyDerive<hook8<(anonymous namespace)::hook8Parent>, CreatorLayer> >&)::{lambda()#1}>, void ()>::operator()()
FUNC c4f00 18 0 std::__ndk1::__function::__func<hook8<(anonymous namespace)::hook8Parent>::onModify<geode::modifier::ModifyBase<geode::modifier::ModifyDerive<hook8<(anonymous namespace)::hook8Parent>, CreatorLayer> > >(geode::modifier::ModifyBase<geode::modifier::ModifyDerive<hook8<(anonymous namespace)::hook8Parent>, CreatorLayer> >&)::{lambda()#1}, std::__ndk1::allocator<hook8<(anonymous namespace)::hook8Parent>::onModify<geode::modifier::ModifyBase<geode::modifier::ModifyDerive<hook8<(anonymous namespace)::hook8Parent>, CreatorLayer> > >(geode::modifier::ModifyBase<geode::modifier::ModifyDerive<hook8<(anonymous namespace)::hook8Parent>, CreatorLayer> >&)::{lambda()#1}>, void ()>::target(std::type_info const&) const
FUNC c4f18 c 0 std::__ndk1::__function::__func<hook8<(anonymous namespace)::hook8Parent>::onModify<geode::modifier::ModifyBase<geode::modifier::ModifyDerive<hook8<(anonymous namespace)::hook8Parent>, CreatorLayer> > >(geode::modifier::ModifyBase<geode::modifier::ModifyDerive<hook8<(anonymous namespace)::hook8Parent>, CreatorLayer> >&)::{lambda()#1}, std::__ndk1::allocator<hook8<(anonymous namespace)::hook8Parent>::onModify<geode::modifier::ModifyBase<geode::modifier::ModifyDerive<hook8<(anonymous namespace)::hook8Parent>, CreatorLayer> > >(geode::modifier::ModifyBase<geode::modifier::ModifyDerive<hook8<(anonymous namespace)::hook8Parent>, CreatorLayer> >&)::{lambda()#1}>, void ()>::target_type() const
FUNC c4f24 24 0 geode::modifier::AsStaticFunction_onTreasureRoom<hook8<(anonymous namespace)::hook8Parent>, void (hook8<(anonymous namespace)::hook8Parent>::*)(cocos2d::CCObject*)>::Impl<void (hook8<(anonymous namespace)::hook8Parent>::*)(cocos2d::CCObject*)>::function(hook8<(anonymous namespace)::hook8Parent>*, cocos2d::CCObject*)
FUNC c4f48 4ac 0 __cxx_global_var_init.30
FUNC c53f4 20 0 geode::modifier::ModifyBase<geode::modifier::ModifyDerive<hook8<(anonymous namespace)::hook8Parent>, CreatorLayer> >::~ModifyBase()
FUNC c5420 320 0 geode::modifier::ModifyDerive<hook8<(anonymous namespace)::hook8Parent>, CreatorLayer>::apply()
FUNC c5740 2 0 geode::modifier::ModifyBase<geode::modifier::ModifyDerive<hook8<(anonymous namespace)::hook8Parent>, CreatorLayer> >::apply()
FUNC c5744 108 0 geode::modifier::ModifyBase<geode::modifier::ModifyDerive<hook8<(anonymous namespace)::hook8Parent>, CreatorLayer> >::getHook(std::__ndk1::basic_string_view<char, std::__ndk1::char_traits<char> >)
FUNC c584c 60 0 hook8<(anonymous namespace)::hook8Parent>::onModify<geode::modifier::ModifyBase<geode::modifier::ModifyDerive<hook8<(anonymous namespace)::hook8Parent>, CreatorLayer> > >(geode::modifier::ModifyBase<geode::modifier::ModifyDerive<hook8<(anonymous namespace)::hook8Parent>, CreatorLayer> >&)::{lambda()#1}::~{lambda()#1}()
FUNC c58ac 6c 0 std::__ndk1::__function::__func<hook8<(anonymous namespace)::hook8Parent>::onModify<geode::modifier::ModifyBase<geode::modifier::ModifyDerive<hook8<(anonymous namespace)::hook8Parent>, CreatorLayer> > >(geode::modifier::ModifyBase<geode::modifier::ModifyDerive<hook8<(anonymous namespace)::hook8Parent>, CreatorLayer> >&)::{lambda()#1}, std::__ndk1::allocator<hook8<(anonymous namespace)::hook8Parent>::onModify<geode::modifier::ModifyBase<geode::modifier::ModifyDerive<hook8<(anonymous namespace)::hook8Parent>, CreatorLayer> > >(geode::modifier::ModifyBase<geode::modifier::ModifyDerive<hook8<(anonymous namespace)::hook8Parent>, CreatorLayer> >&)::{lambda()#1}>, void ()>::~__func()
FUNC c5918 6c 0 std::__ndk1::__function::__func<hook8<(anonymous namespace)::hook8Parent>::onModify<geode::modifier::ModifyBase<geode::modifier::ModifyDerive<hook8<(anonymous namespace)::hook8Parent>, CreatorLayer> > >(geode::modifier::ModifyBase<geode::modifier::ModifyDerive<hook8<(anonymous namespace)::hook8Parent>, CreatorLayer> >&)::{lambda()#1}, std::__ndk1::allocator<hook8<(anonymous namespace)::hook8Parent>::onModify<geode::modifier::ModifyBase<geode::modifier::ModifyDerive<hook8<(anonymous namespace)::hook8Parent>, CreatorLayer> > >(geode::modifier::ModifyBase<geode::modifier::ModifyDerive<hook8<(anonymous namespace)::hook8Parent>, CreatorLayer> >&)::{lambda()#1}>, void ()>::~__func()
FUNC c5984 98 0 std::__ndk1::__function::__func<hook8<(anonymous namespace)::hook8Parent>::onModify<geode::modifier::ModifyBase<geode::modifier::ModifyDerive<hook8<(anonymous namespace)::hook8Parent>, CreatorLayer> > >(geode::modifier::ModifyBase<geode::modifier::ModifyDerive<hook8<(anonymous namespace)::hook8Parent>, CreatorLayer> >&)::{lambda()#1}, std::__ndk1::allocator<hook8<(anonymous namespace)::hook8Parent>::onModify<geode::modifier::ModifyBase<geode::modifier::ModifyDerive<hook8<(anonymous namespace)::hook8Parent>, CreatorLayer> > >(geode::modifier::ModifyBase<geode::modifier::ModifyDerive<hook8<(anonymous namespace)::hook8Parent>, CreatorLayer> >&)::{lambda()#1}>, void ()>::__clone() const
FUNC c5a1c 88 0 std::__ndk1::__function::__func<hook8<(anonymous namespace)::hook8Parent>::onModify<geode::modifier::ModifyBase<geode::modifier::ModifyDerive<hook8<(anonymous namespace)::hook8Parent>, CreatorLayer> > >(geode::modifier::ModifyBase<geode::modifier::ModifyDerive<hook8<(anonymous namespace)::hook8Parent>, CreatorLayer> >&)::{lambda()#1}, std::__ndk1::allocator<hook8<(anonymous namespace)::hook8Parent>::onModify<geode::modifier::ModifyBase<geode::modifier::ModifyDerive<hook8<(anonymous namespace)::hook8Parent>, CreatorLayer> > >(geode::modifier::ModifyBase<geode::modifier::ModifyDerive<hook8<(anonymous namespace)::hook8Parent>, CreatorLayer> >&)::{lambda()#1}>, void ()>::__clone(std::__ndk1::__function::__base<void ()>*) const
FUNC c5aa4 60 0 std::__ndk1::__function::__func<hook8<(anonymous namespace)::hook8Parent>::onModify<geode::modifier::ModifyBase<geode::modifier::ModifyDerive<hook8<(anonymous namespace)::hook8Parent>, CreatorLayer> > >(geode::modifier::ModifyBase<geode::modifier::ModifyDerive<hook8<(anonymous namespace)::hook8Parent>, CreatorLayer> >&)::{lambda()#1}, std::__ndk1::allocator<hook8<(anonymous namespace)::hook8Parent>::onModify<geode::modifier::ModifyBase<geode::modifier::ModifyDerive<hook8<(anonymous namespace)::hook8Parent>, CreatorLayer> > >(geode::modifier::ModifyBase<geode::modifier::ModifyDerive<hook8<(anonymous namespace)::hook8Parent>, CreatorLayer> >&)::{lambda()#1}>, void ()>::destroy()
FUNC c5b04 60 0 std::__ndk1::__function::__func<hook8<(anonymous namespace)::hook8Parent>::onModify<geode::modifier::ModifyBase<geode::modifier::ModifyDerive<hook8<(anonymous namespace)::hook8Parent>, CreatorLayer> > >(geode::modifier::ModifyBase<geode::modifier::ModifyDerive<hook8<(anonymous namespace)::hook8Parent>, CreatorLayer> >&)::{lambda()#1}, std::__ndk1::allocator<hook8<(anonymous namespace)::hook8Parent>::onModify<geode::modifier::ModifyBase<geode::modifier::ModifyDerive<hook8<(anonymous namespace)::hook8Parent>, CreatorLayer> > >(geode::modifier::ModifyBase<geode::modifier::ModifyDerive<hook8<(anonymous namespace)::hook8Parent>, CreatorLayer> >&)::{lambda()#1}>, void ()>::destroy_deallocate()
FUNC c5b64 fc 0 std::__ndk1::__function::__func<hook8<(anonymous namespace)::hook8Parent>::onModify<geode::modifier::ModifyBase<geode::modifier::ModifyDerive<hook8<(anonymous namespace)::hook8Parent>, CreatorLayer> > >(geode::modifier::ModifyBase<geode::modifier::ModifyDerive<hook8<(anonymous namespace)::hook8Parent>, CreatorLayer> >&)::{lambda()#1}, std::__ndk1::allocator<hook8<(anonymous namespace)::hook8Parent>::onModify<geode::modifier::ModifyBase<geode::modifier::ModifyDerive<hook8<(anonymous namespace)::hook8Parent>, CreatorLayer> > >(geode::modifier::ModifyBase<geode::modifier::ModifyDerive<hook8<(anonymous namespace)::hook8Parent>, CreatorLayer> >&)::{lambda()#1}>, void ()>::operator()()
FUNC c5c60 18 0 std::__ndk1::__function::__func<hook8<(anonymous namespace)::hook8Parent>::onModify<geode::modifier::ModifyBase<geode::modifier::ModifyDerive<hook8<(anonymous namespace)::hook8Parent>, CreatorLayer> > >(geode::modifier::ModifyBase<geode::modifier::ModifyDerive<hook8<(anonymous namespace)::hook8Parent>, CreatorLayer> >&)::{lambda()#1}, std::__ndk1::allocator<hook8<(anonymous namespace)::hook8Parent>::onModify<geode::modifier::ModifyBase<geode::modifier::ModifyDerive<hook8<(anonymous namespace)::hook8Parent>, CreatorLayer> > >(geode::modifier::ModifyBase<geode::modifier::ModifyDerive<hook8<(anonymous namespace)::hook8Parent>, CreatorLayer> >&)::{lambda()#1}>, void ()>::target(std::type_info const&) const
FUNC c5c78 c 0 std::__ndk1::__function::__func<hook8<(anonymous namespace)::hook8Parent>::onModify<geode::modifier::ModifyBase<geode::modifier::ModifyDerive<hook8<(anonymous namespace)::hook8Parent>, CreatorLayer> > >(geode::modifier::ModifyBase<geode::modifier::ModifyDerive<hook8<(anonymous namespace)::hook8Parent>, CreatorLayer> >&)::{lambda()#1}, std::__ndk1::allocator<hook8<(anonymous namespace)::hook8Parent>::onModify<geode::modifier::ModifyBase<geode::modifier::ModifyDerive<hook8<(anonymous namespace)::hook8Parent>, CreatorLayer> > >(geode::modifier::ModifyBase<geode::modifier::ModifyDerive<hook8<(anonymous namespace)::hook8Parent>, CreatorLayer> >&)::{lambda()#1}>, void ()>::target_type() const
FUNC c5c84 22 0 geode::modifier::AsStaticFunction_onSecretVault<hook8<(anonymous namespace)::hook8Parent>, void (hook8<(anonymous namespace)::hook8Parent>::*)(cocos2d::CCObject*)>::Impl<void (hook8<(anonymous namespace)::hook8Parent>::*)(cocos2d::CCObject*)>::function(hook8<(anonymous namespace)::hook8Parent>*, cocos2d::CCObject*)
FUNC c5ca8 550 0 __cxx_global_var_init.30
FUNC c61f8 20 0 geode::modifier::ModifyBase<geode::modifier::ModifyDerive<hook9<(anonymous namespace)::hook9Parent>, SecretRewardsLayer> >::~ModifyBase()
FUNC c6218 464 0 geode::modifier::ModifyDerive<hook9<(anonymous namespace)::hook9Parent>, SecretRewardsLayer>::apply()
FUNC c667c 2 0 geode::modifier::ModifyBase<geode::modifier::ModifyDerive<hook9<(anonymous namespace)::hook9Parent>, SecretRewardsLayer> >::apply()
FUNC c6680 2c 0 std::__ndk1::__function::__func<hook9<(anonymous namespace)::hook9Parent>::onModify<geode::modifier::ModifyBase<geode::modifier::ModifyDerive<hook9<(anonymous namespace)::hook9Parent>, SecretRewardsLayer> > >(geode::modifier::ModifyBase<geode::modifier::ModifyDerive<hook9<(anonymous namespace)::hook9Parent>, SecretRewardsLayer> >&)::{lambda()#1}, std::__ndk1::allocator<hook9<(anonymous namespace)::hook9Parent>::onModify<geode::modifier::ModifyBase<geode::modifier::ModifyDerive<hook9<(anonymous namespace)::hook9Parent>, SecretRewardsLayer> > >(geode::modifier::ModifyBase<geode::modifier::ModifyDerive<hook9<(anonymous namespace)::hook9Parent>, SecretRewardsLayer> >&)::{lambda()#1}>, void ()>::~__func()
FUNC c66ac 30 0 std::__ndk1::__function::__func<hook9<(anonymous namespace)::hook9Parent>::onModify<geode::modifier::ModifyBase<geode::modifier::ModifyDerive<hook9<(anonymous namespace)::hook9Parent>, SecretRewardsLayer> > >(geode::modifier::ModifyBase<geode::modifier::ModifyDerive<hook9<(anonymous namespace)::hook9Parent>, SecretRewardsLayer> >&)::{lambda()#1}, std::__ndk1::allocator<hook9<(anonymous namespace)::hook9Parent>::onModify<geode::modifier::ModifyBase<geode::modifier::ModifyDerive<hook9<(anonymous namespace)::hook9Parent>, SecretRewardsLayer> > >(geode::modifier::ModifyBase<geode::modifier::ModifyDerive<hook9<(anonymous namespace)::hook9Parent>, SecretRewardsLayer> >&)::{lambda()#1}>, void ()>::~__func()
FUNC c66dc 7c 0 std::__ndk1::__function::__func<hook9<(anonymous namespace)::hook9Parent>::onModify<geode::modifier::ModifyBase<geode::modifier::ModifyDerive<hook9<(anonymous namespace)::hook9Parent>, SecretRewardsLayer> > >(geode::modifier::ModifyBase<geode::modifier::ModifyDerive<hook9<(anonymous namespace)::hook9Parent>, SecretRewardsLayer> >&)::{lambda()#1}, std::__ndk1::allocator<hook9<(anonymous namespace)::hook9Parent>::onModify<geode::modifier::ModifyBase<geode::modifier::ModifyDerive<hook9<(anonymous namespace)::hook9Parent>, SecretRewardsLayer> > >(geode::modifier::ModifyBase<geode::modifier::ModifyDerive<hook9<(anonymous namespace)::hook9Parent>, SecretRewardsLayer> >&)::{lambda()#1}>, void ()>::__clone() const
FUNC c6758 70 0 std::__ndk1::__function::__func<hook9<(anonymous namespace)::hook9Parent>::onModify<geode::modifier::ModifyBase<geode::modifier::ModifyDerive<hook9<(anonymous namespace)::hook9Parent>, SecretRewardsLayer> > >(geode::modifier::ModifyBase<geode::modifier::ModifyDerive<hook9<(anonymous namespace)::hook9Parent>, SecretRewardsLayer> >&)::{lambda()#1}, std::__ndk1::allocator<hook9<(anonymous namespace)::hook9Parent>::onModify<geode::modifier::ModifyBase<geode::modifier::ModifyDerive<hook9<(anonymous namespace)::hook9Parent>, SecretRewardsLayer> > >(geode::modifier::ModifyBase<geode::modifier::ModifyDerive<hook9<(anonymous namespace)::hook9Parent>, SecretRewardsLayer> >&)::{lambda()#1}>, void ()>::__clone(std::__ndk1::__function::__base<void ()>*) const
FUNC c67c8 10 0 std::__ndk1::__function::__func<hook9<(anonymous namespace)::hook9Parent>::onModify<geode::modifier::ModifyBase<geode::modifier::ModifyDerive<hook9<(anonymous namespace)::hook9Parent>, SecretRewardsLayer> > >(geode::modifier::ModifyBase<geode::modifier::ModifyDerive<hook9<(anonymous namespace)::hook9Parent>, SecretRewardsLayer> >&)::{lambda()#1}, std::__ndk1::allocator<hook9<(anonymous namespace)::hook9Parent>::onModify<geode::modifier::ModifyBase<geode::modifier::ModifyDerive<hook9<(anonymous namespace)::hook9Parent>, SecretRewardsLayer> > >(geode::modifier::ModifyBase<geode::modifier::ModifyDerive<hook9<(anonymous namespace)::hook9Parent>, SecretRewardsLayer> >&)::{lambda()#1}>, void ()>::destroy()
FUNC c67d8 22 0 std::__ndk1::__function::__func<hook9<(anonymous namespace)::hook9Parent>::onModify<geode::modifier::ModifyBase<geode::modifier::ModifyDerive<hook9<(anonymous namespace)::hook9Parent>, SecretRewardsLayer> > >(geode::modifier::ModifyBase<geode::modifier::ModifyDerive<hook9<(anonymous namespace)::hook9Parent>, SecretRewardsLayer> >&)::{lambda()#1}, std::__ndk1::allocator<hook9<(anonymous namespace)::hook9Parent>::onModify<geode::modifier::ModifyBase<geode::modifier::ModifyDerive<hook9<(anonymous namespace)::hook9Parent>, SecretRewardsLayer> > >(geode::modifier::ModifyBase<geode::modifier::ModifyDerive<hook9<(anonymous namespace)::hook9Parent>, SecretRewardsLayer> >&)::{lambda()#1}>, void ()>::destroy_deallocate()
FUNC c67fc 94 0 std::__ndk1::__function::__func<hook9<(anonymous namespace)::hook9Parent>::onModify<geode::modifier::ModifyBase<geode::modifier::ModifyDerive<hook9<(anonymous namespace)::hook9Parent>, SecretRewardsLayer> > >(geode::modifier::ModifyBase<geode::modifier::ModifyDerive<hook9<(anonymous namespace)::hook9Parent>, SecretRewardsLayer> >&)::{lambda()#1}, std::__ndk1::allocator<hook9<(anonymous namespace)::hook9Parent>::onModify<geode::modifier::ModifyBase<geode::modifier::ModifyDerive<hook9<(anonymous namespace)::hook9Parent>, SecretRewardsLayer> > >(geode::modifier::ModifyBase<geode::modifier::ModifyDerive<hook9<(anonymous namespace)::hook9Parent>, SecretRewardsLayer> >&)::{lambda()#1}>, void ()>::operator()()
FUNC c6890 18 0 std::__ndk1::__function::__func<hook9<(anonymous namespace)::hook9Parent>::onModify<geode::modifier::ModifyBase<geode::modifier::ModifyDerive<hook9<(anonymous namespace)::hook9Parent>, SecretRewardsLayer> > >(geode::modifier::ModifyBase<geode::modifier::ModifyDerive<hook9<(anonymous namespace)::hook9Parent>, SecretRewardsLayer> >&)::{lambda()#1}, std::__ndk1::allocator<hook9<(anonymous namespace)::hook9Parent>::onModify<geode::modifier::ModifyBase<geode::modifier::ModifyDerive<hook9<(anonymous namespace)::hook9Parent>, SecretRewardsLayer> > >(geode::modifier::ModifyBase<geode::modifier::ModifyDerive<hook9<(anonymous namespace)::hook9Parent>, SecretRewardsLayer> >&)::{lambda()#1}>, void ()>::target(std::type_info const&) const
FUNC c68a8 c 0 std::__ndk1::__function::__func<hook9<(anonymous namespace)::hook9Parent>::onModify<geode::modifier::ModifyBase<geode::modifier::ModifyDerive<hook9<(anonymous namespace)::hook9Parent>, SecretRewardsLayer> > >(geode::modifier::ModifyBase<geode::modifier::ModifyDerive<hook9<(anonymous namespace)::hook9Parent>, SecretRewardsLayer> >&)::{lambda()#1}, std::__ndk1::allocator<hook9<(anonymous namespace)::hook9Parent>::onModify<geode::modifier::ModifyBase<geode::modifier::ModifyDerive<hook9<(anonymous namespace)::hook9Parent>, SecretRewardsLayer> > >(geode::modifier::ModifyBase<geode::modifier::ModifyDerive<hook9<(anonymous namespace)::hook9Parent>, SecretRewardsLayer> >&)::{lambda()#1}>, void ()>::target_type() const
FUNC c68c0 108 0 geode::Hook::create<void (*)(hook9<(anonymous namespace)::hook9Parent>*, cocos2d::CCObject*)>(void*, void (*)(hook9<(anonymous namespace)::hook9Parent>*, cocos2d::CCObject*), std::__ndk1::basic_string<char, std::__ndk1::char_traits<char>, std::__ndk1::allocator<char> > const&, tulip::hook::TulipConvention, tulip::hook::HookMetadata const&)
FUNC c69c8 d4 0 geode::modifier::AsStaticFunction_onGoldChest<hook9<(anonymous namespace)::hook9Parent>, void (hook9<(anonymous namespace)::hook9Parent>::*)(cocos2d::CCObject*)>::Impl<void (hook9<(anonymous namespace)::hook9Parent>::*)(cocos2d::CCObject*)>::function(hook9<(anonymous namespace)::hook9Parent>*, cocos2d::CCObject*)
FUNC c6a9c d0 0 geode::modifier::AsStaticFunction_onSelectItem<hook9<(anonymous namespace)::hook9Parent>, void (hook9<(anonymous namespace)::hook9Parent>::*)(cocos2d::CCObject*)>::Impl<void (hook9<(anonymous namespace)::hook9Parent>::*)(cocos2d::CCObject*)>::function(hook9<(anonymous namespace)::hook9Parent>*, cocos2d::CCObject*)
FUNC c6b6c 2d0 0 __cxx_global_var_init.30
FUNC c6e3c 20 0 geode::modifier::ModifyBase<geode::modifier::ModifyDerive<hook13<(anonymous namespace)::hook13Parent>, PlayLayer> >::~ModifyBase()
FUNC c6e60 884 0 geode::modifier::ModifyDerive<hook13<(anonymous namespace)::hook13Parent>, PlayLayer>::apply()
FUNC c76e4 2 0 geode::modifier::ModifyBase<geode::modifier::ModifyDerive<hook13<(anonymous namespace)::hook13Parent>, PlayLayer> >::apply()
FUNC c76e6 44 0 geode::addresser::getVirtual<void (PlayLayer::*)(float)>(void (PlayLayer::*)(float))
FUNC c772c 12c 0 geode::modifier::AsStaticFunction_postUpdate<hook13<(anonymous namespace)::hook13Parent>, void (hook13<(anonymous namespace)::hook13Parent>::*)(float)>::Impl<void (hook13<(anonymous namespace)::hook13Parent>::*)(float)>::function(hook13<(anonymous namespace)::hook13Parent>*, float)
FUNC c7858 112 0 geode::modifier::AsStaticFunction_addObject<hook13<(anonymous namespace)::hook13Parent>, void (hook13<(anonymous namespace)::hook13Parent>::*)(GameObject*)>::Impl<void (hook13<(anonymous namespace)::hook13Parent>::*)(GameObject*)>::function(hook13<(anonymous namespace)::hook13Parent>*, GameObject*)
FUNC c796c c0 0 geode::modifier::AsStaticFunction_init<hook13<(anonymous namespace)::hook13Parent>, bool (hook13<(anonymous namespace)::hook13Parent>::*)(GJGameLevel*, bool, bool)>::Impl<bool (hook13<(anonymous namespace)::hook13Parent>::*)(GJGameLevel*, bool, bool)>::function(hook13<(anonymous namespace)::hook13Parent>*, GJGameLevel*, bool, bool)
FUNC c7a2c 11c 0 geode::modifier::FieldIntermediate<hook13<(anonymous namespace)::hook13Parent>, PlayLayer>::operator->()
FUNC c7b48 10 0 geode::modifier::FieldIntermediate<hook13<(anonymous namespace)::hook13Parent>, PlayLayer>::fieldDestructor(void*)
FUNC c7b58 10 0 std::__ndk1::vector<GameObject*, std::__ndk1::allocator<GameObject*> >::__throw_length_error[abi:ne180000]() const
FUNC c7b68 4b0 0 __cxx_global_var_init.30
FUNC c8018 20 0 geode::modifier::ModifyBase<geode::modifier::ModifyDerive<hook8<(anonymous namespace)::hook8Parent>, GJBaseGameLayer> >::~ModifyBase()
FUNC c8040 3b8 0 geode::modifier::ModifyDerive<hook8<(anonymous namespace)::hook8Parent>, GJBaseGameLayer>::apply()
FUNC c83f8 2 0 geode::modifier::ModifyBase<geode::modifier::ModifyDerive<hook8<(anonymous namespace)::hook8Parent>, GJBaseGameLayer> >::apply()
FUNC c83fc 60 0 hook8<(anonymous namespace)::hook8Parent>::onModify<geode::modifier::ModifyBase<geode::modifier::ModifyDerive<hook8<(anonymous namespace)::hook8Parent>, GJBaseGameLayer> > >(geode::modifier::ModifyBase<geode::modifier::ModifyDerive<hook8<(anonymous namespace)::hook8Parent>, GJBaseGameLayer> >&)::{lambda()#1}::~{lambda()#1}()
FUNC c845c 6c 0 std::__ndk1::__function::__func<hook8<(anonymous namespace)::hook8Parent>::onModify<geode::modifier::ModifyBase<geode::modifier::ModifyDerive<hook8<(anonymous namespace)::hook8Parent>, GJBaseGameLayer> > >(geode::modifier::ModifyBase<geode::modifier::ModifyDerive<hook8<(anonymous namespace)::hook8Parent>, GJBaseGameLayer> >&)::{lambda()#1}, std::__ndk1::allocator<hook8<(anonymous namespace)::hook8Parent>::onModify<geode::modifier::ModifyBase<geode::modifier::ModifyDerive<hook8<(anonymous namespace)::hook8Parent>, GJBaseGameLayer> > >(geode::modifier::ModifyBase<geode::modifier::ModifyDerive<hook8<(anonymous namespace)::hook8Parent>, GJBaseGameLayer> >&)::{lambda()#1}>, void ()>::~__func()
FUNC c84c8 6c 0 std::__ndk1::__function::__func<hook8<(anonymous namespace)::hook8Parent>::onModify<geode::modifier::ModifyBase<geode::modifier::ModifyDerive<hook8<(anonymous namespace)::hook8Parent>, GJBaseGameLayer> > >(geode::modifier::ModifyBase<geode::modifier::ModifyDerive<hook8<(anonymous namespace)::hook8Parent>, GJBaseGameLayer> >&)::{lambda()#1}, std::__ndk1::allocator<hook8<(anonymous namespace)::hook8Parent>::onModify<geode::modifier::ModifyBase<geode::modifier::ModifyDerive<hook8<(anonymous namespace)::hook8Parent>, GJBaseGameLayer> > >(geode::modifier::ModifyBase<geode::modifier::ModifyDerive<hook8<(anonymous namespace)::hook8Parent>, GJBaseGameLayer> >&)::{lambda()#1}>, void ()>::~__func()
FUNC c8534 98 0 std::__ndk1::__function::__func<hook8<(anonymous namespace)::hook8Parent>::onModify<geode::modifier::ModifyBase<geode::modifier::ModifyDerive<hook8<(anonymous namespace)::hook8Parent>, GJBaseGameLayer> > >(geode::modifier::ModifyBase<geode::modifier::ModifyDerive<hook8<(anonymous namespace)::hook8Parent>, GJBaseGameLayer> >&)::{lambda()#1}, std::__ndk1::allocator<hook8<(anonymous namespace)::hook8Parent>::onModify<geode::modifier::ModifyBase<geode::modifier::ModifyDerive<hook8<(anonymous namespace)::hook8Parent>, GJBaseGameLayer> > >(geode::modifier::ModifyBase<geode::modifier::ModifyDerive<hook8<(anonymous namespace)::hook8Parent>, GJBaseGameLayer> >&)::{lambda()#1}>, void ()>::__clone() const
FUNC c85cc 88 0 std::__ndk1::__function::__func<hook8<(anonymous namespace)::hook8Parent>::onModify<geode::modifier::ModifyBase<geode::modifier::ModifyDerive<hook8<(anonymous namespace)::hook8Parent>, GJBaseGameLayer> > >(geode::modifier::ModifyBase<geode::modifier::ModifyDerive<hook8<(anonymous namespace)::hook8Parent>, GJBaseGameLayer> >&)::{lambda()#1}, std::__ndk1::allocator<hook8<(anonymous namespace)::hook8Parent>::onModify<geode::modifier::ModifyBase<geode::modifier::ModifyDerive<hook8<(anonymous namespace)::hook8Parent>, GJBaseGameLayer> > >(geode::modifier::ModifyBase<geode::modifier::ModifyDerive<hook8<(anonymous namespace)::hook8Parent>, GJBaseGameLayer> >&)::{lambda()#1}>, void ()>::__clone(std::__ndk1::__function::__base<void ()>*) const
FUNC c8654 60 0 std::__ndk1::__function::__func<hook8<(anonymous namespace)::hook8Parent>::onModify<geode::modifier::ModifyBase<geode::modifier::ModifyDerive<hook8<(anonymous namespace)::hook8Parent>, GJBaseGameLayer> > >(geode::modifier::ModifyBase<geode::modifier::ModifyDerive<hook8<(anonymous namespace)::hook8Parent>, GJBaseGameLayer> >&)::{lambda()#1}, std::__ndk1::allocator<hook8<(anonymous namespace)::hook8Parent>::onModify<geode::modifier::ModifyBase<geode::modifier::ModifyDerive<hook8<(anonymous namespace)::hook8Parent>, GJBaseGameLayer> > >(geode::modifier::ModifyBase<geode::modifier::ModifyDerive<hook8<(anonymous namespace)::hook8Parent>, GJBaseGameLayer> >&)::{lambda()#1}>, void ()>::destroy()
FUNC c86b4 60 0 std::__ndk1::__function::__func<hook8<(anonymous namespace)::hook8Parent>::onModify<geode::modifier::ModifyBase<geode::modifier::ModifyDerive<hook8<(anonymous namespace)::hook8Parent>, GJBaseGameLayer> > >(geode::modifier::ModifyBase<geode::modifier::ModifyDerive<hook8<(anonymous namespace)::hook8Parent>, GJBaseGameLayer> >&)::{lambda()#1}, std::__ndk1::allocator<hook8<(anonymous namespace)::hook8Parent>::onModify<geode::modifier::ModifyBase<geode::modifier::ModifyDerive<hook8<(anonymous namespace)::hook8Parent>, GJBaseGameLayer> > >(geode::modifier::ModifyBase<geode::modifier::ModifyDerive<hook8<(anonymous namespace)::hook8Parent>, GJBaseGameLayer> >&)::{lambda()#1}>, void ()>::destroy_deallocate()
FUNC c8714 f0 0 std::__ndk1::__function::__func<hook8<(anonymous namespace)::hook8Parent>::onModify<geode::modifier::ModifyBase<geode::modifier::ModifyDerive<hook8<(anonymous namespace)::hook8Parent>, GJBaseGameLayer> > >(geode::modifier::ModifyBase<geode::modifier::ModifyDerive<hook8<(anonymous namespace)::hook8Parent>, GJBaseGameLayer> >&)::{lambda()#1}, std::__ndk1::allocator<hook8<(anonymous namespace)::hook8Parent>::onModify<geode::modifier::ModifyBase<geode::modifier::ModifyDerive<hook8<(anonymous namespace)::hook8Parent>, GJBaseGameLayer> > >(geode::modifier::ModifyBase<geode::modifier::ModifyDerive<hook8<(anonymous namespace)::hook8Parent>, GJBaseGameLayer> >&)::{lambda()#1}>, void ()>::operator()()
FUNC c8804 18 0 std::__ndk1::__function::__func<hook8<(anonymous namespace)::hook8Parent>::onModify<geode::modifier::ModifyBase<geode::modifier::ModifyDerive<hook8<(anonymous namespace)::hook8Parent>, GJBaseGameLayer> > >(geode::modifier::ModifyBase<geode::modifier::ModifyDerive<hook8<(anonymous namespace)::hook8Parent>, GJBaseGameLayer> >&)::{lambda()#1}, std::__ndk1::allocator<hook8<(anonymous namespace)::hook8Parent>::onModify<geode::modifier::ModifyBase<geode::modifier::ModifyDerive<hook8<(anonymous namespace)::hook8Parent>, GJBaseGameLayer> > >(geode::modifier::ModifyBase<geode::modifier::ModifyDerive<hook8<(anonymous namespace)::hook8Parent>, GJBaseGameLayer> >&)::{lambda()#1}>, void ()>::target(std::type_info const&) const
FUNC c881c c 0 std::__ndk1::__function::__func<hook8<(anonymous namespace)::hook8Parent>::onModify<geode::modifier::ModifyBase<geode::modifier::ModifyDerive<hook8<(anonymous namespace)::hook8Parent>, GJBaseGameLayer> > >(geode::modifier::ModifyBase<geode::modifier::ModifyDerive<hook8<(anonymous namespace)::hook8Parent>, GJBaseGameLayer> >&)::{lambda()#1}, std::__ndk1::allocator<hook8<(anonymous namespace)::hook8Parent>::onModify<geode::modifier::ModifyBase<geode::modifier::ModifyDerive<hook8<(anonymous namespace)::hook8Parent>, GJBaseGameLayer> > >(geode::modifier::ModifyBase<geode::modifier::ModifyDerive<hook8<(anonymous namespace)::hook8Parent>, GJBaseGameLayer> >&)::{lambda()#1}>, void ()>::target_type() const
FUNC c8828 100 0 geode::modifier::AsStaticFunction_collisionCheckObjects<hook8<(anonymous namespace)::hook8Parent>, void (hook8<(anonymous namespace)::hook8Parent>::*)(PlayerObject*, gd::vector<GameObject*>*, int, float)>::Impl<void (hook8<(anonymous namespace)::hook8Parent>::*)(PlayerObject*, gd::vector<GameObject*>*, int, float)>::function(hook8<(anonymous namespace)::hook8Parent>*, PlayerObject*, gd::vector<GameObject*>*, int, float)
FUNC c8928 4a8 0 __cxx_global_var_init.30
FUNC c8dd0 20 0 geode::modifier::ModifyBase<geode::modifier::ModifyDerive<hook8<(anonymous namespace)::hook8Parent>, ProfilePage> >::~ModifyBase()
FUNC c8df0 310 0 geode::modifier::ModifyDerive<hook8<(anonymous namespace)::hook8Parent>, ProfilePage>::apply()
FUNC c9100 2 0 geode::modifier::ModifyBase<geode::modifier::ModifyDerive<hook8<(anonymous namespace)::hook8Parent>, ProfilePage> >::apply()
FUNC c9104 60 0 hook8<(anonymous namespace)::hook8Parent>::onModify<geode::modifier::ModifyBase<geode::modifier::ModifyDerive<hook8<(anonymous namespace)::hook8Parent>, ProfilePage> > >(geode::modifier::ModifyBase<geode::modifier::ModifyDerive<hook8<(anonymous namespace)::hook8Parent>, ProfilePage> >&)::{lambda()#1}::~{lambda()#1}()
FUNC c9164 6c 0 std::__ndk1::__function::__func<hook8<(anonymous namespace)::hook8Parent>::onModify<geode::modifier::ModifyBase<geode::modifier::ModifyDerive<hook8<(anonymous namespace)::hook8Parent>, ProfilePage> > >(geode::modifier::ModifyBase<geode::modifier::ModifyDerive<hook8<(anonymous namespace)::hook8Parent>, ProfilePage> >&)::{lambda()#1}, std::__ndk1::allocator<hook8<(anonymous namespace)::hook8Parent>::onModify<geode::modifier::ModifyBase<geode::modifier::ModifyDerive<hook8<(anonymous namespace)::hook8Parent>, ProfilePage> > >(geode::modifier::ModifyBase<geode::modifier::ModifyDerive<hook8<(anonymous namespace)::hook8Parent>, ProfilePage> >&)::{lambda()#1}>, void ()>::~__func()
FUNC c91d0 6c 0 std::__ndk1::__function::__func<hook8<(anonymous namespace)::hook8Parent>::onModify<geode::modifier::ModifyBase<geode::modifier::ModifyDerive<hook8<(anonymous namespace)::hook8Parent>, ProfilePage> > >(geode::modifier::ModifyBase<geode::modifier::ModifyDerive<hook8<(anonymous namespace)::hook8Parent>, ProfilePage> >&)::{lambda()#1}, std::__ndk1::allocator<hook8<(anonymous namespace)::hook8Parent>::onModify<geode::modifier::ModifyBase<geode::modifier::ModifyDerive<hook8<(anonymous namespace)::hook8Parent>, ProfilePage> > >(geode::modifier::ModifyBase<geode::modifier::ModifyDerive<hook8<(anonymous namespace)::hook8Parent>, ProfilePage> >&)::{lambda()#1}>, void ()>::~__func()
FUNC c923c 98 0 std::__ndk1::__function::__func<hook8<(anonymous namespace)::hook8Parent>::onModify<geode::modifier::ModifyBase<geode::modifier::ModifyDerive<hook8<(anonymous namespace)::hook8Parent>, ProfilePage> > >(geode::modifier::ModifyBase<geode::modifier::ModifyDerive<hook8<(anonymous namespace)::hook8Parent>, ProfilePage> >&)::{lambda()#1}, std::__ndk1::allocator<hook8<(anonymous namespace)::hook8Parent>::onModify<geode::modifier::ModifyBase<geode::modifier::ModifyDerive<hook8<(anonymous namespace)::hook8Parent>, ProfilePage> > >(geode::modifier::ModifyBase<geode::modifier::ModifyDerive<hook8<(anonymous namespace)::hook8Parent>, ProfilePage> >&)::{lambda()#1}>, void ()>::__clone() const
FUNC c92d4 88 0 std::__ndk1::__function::__func<hook8<(anonymous namespace)::hook8Parent>::onModify<geode::modifier::ModifyBase<geode::modifier::ModifyDerive<hook8<(anonymous namespace)::hook8Parent>, ProfilePage> > >(geode::modifier::ModifyBase<geode::modifier::ModifyDerive<hook8<(anonymous namespace)::hook8Parent>, ProfilePage> >&)::{lambda()#1}, std::__ndk1::allocator<hook8<(anonymous namespace)::hook8Parent>::onModify<geode::modifier::ModifyBase<geode::modifier::ModifyDerive<hook8<(anonymous namespace)::hook8Parent>, ProfilePage> > >(geode::modifier::ModifyBase<geode::modifier::ModifyDerive<hook8<(anonymous namespace)::hook8Parent>, ProfilePage> >&)::{lambda()#1}>, void ()>::__clone(std::__ndk1::__function::__base<void ()>*) const
FUNC c935c 60 0 std::__ndk1::__function::__func<hook8<(anonymous namespace)::hook8Parent>::onModify<geode::modifier::ModifyBase<geode::modifier::ModifyDerive<hook8<(anonymous namespace)::hook8Parent>, ProfilePage> > >(geode::modifier::ModifyBase<geode::modifier::ModifyDerive<hook8<(anonymous namespace)::hook8Parent>, ProfilePage> >&)::{lambda()#1}, std::__ndk1::allocator<hook8<(anonymous namespace)::hook8Parent>::onModify<geode::modifier::ModifyBase<geode::modifier::ModifyDerive<hook8<(anonymous namespace)::hook8Parent>, ProfilePage> > >(geode::modifier::ModifyBase<geode::modifier::ModifyDerive<hook8<(anonymous namespace)::hook8Parent>, ProfilePage> >&)::{lambda()#1}>, void ()>::destroy()
FUNC c93bc 60 0 std::__ndk1::__function::__func<hook8<(anonymous namespace)::hook8Parent>::onModify<geode::modifier::ModifyBase<geode::modifier::ModifyDerive<hook8<(anonymous namespace)::hook8Parent>, ProfilePage> > >(geode::modifier::ModifyBase<geode::modifier::ModifyDerive<hook8<(anonymous namespace)::hook8Parent>, ProfilePage> >&)::{lambda()#1}, std::__ndk1::allocator<hook8<(anonymous namespace)::hook8Parent>::onModify<geode::modifier::ModifyBase<geode::modifier::ModifyDerive<hook8<(anonymous namespace)::hook8Parent>, ProfilePage> > >(geode::modifier::ModifyBase<geode::modifier::ModifyDerive<hook8<(anonymous namespace)::hook8Parent>, ProfilePage> >&)::{lambda()#1}>, void ()>::destroy_deallocate()
FUNC c941c f0 0 std::__ndk1::__function::__func<hook8<(anonymous namespace)::hook8Parent>::onModify<geode::modifier::ModifyBase<geode::modifier::ModifyDerive<hook8<(anonymous namespace)::hook8Parent>, ProfilePage> > >(geode::modifier::ModifyBase<geode::modifier::ModifyDerive<hook8<(anonymous namespace)::hook8Parent>, ProfilePage> >&)::{lambda()#1}, std::__ndk1::allocator<hook8<(anonymous namespace)::hook8Parent>::onModify<geode::modifier::ModifyBase<geode::modifier::ModifyDerive<hook8<(anonymous namespace)::hook8Parent>, ProfilePage> > >(geode::modifier::ModifyBase<geode::modifier::ModifyDerive<hook8<(anonymous namespace)::hook8Parent>, ProfilePage> >&)::{lambda()#1}>, void ()>::operator()()
FUNC c950c 18 0 std::__ndk1::__function::__func<hook8<(anonymous namespace)::hook8Parent>::onModify<geode::modifier::ModifyBase<geode::modifier::ModifyDerive<hook8<(anonymous namespace)::hook8Parent>, ProfilePage> > >(geode::modifier::ModifyBase<geode::modifier::ModifyDerive<hook8<(anonymous namespace)::hook8Parent>, ProfilePage> >&)::{lambda()#1}, std::__ndk1::allocator<hook8<(anonymous namespace)::hook8Parent>::onModify<geode::modifier::ModifyBase<geode::modifier::ModifyDerive<hook8<(anonymous namespace)::hook8Parent>, ProfilePage> > >(geode::modifier::ModifyBase<geode::modifier::ModifyDerive<hook8<(anonymous namespace)::hook8Parent>, ProfilePage> >&)::{lambda()#1}>, void ()>::target(std::type_info const&) const
FUNC c9524 c 0 std::__ndk1::__function::__func<hook8<(anonymous namespace)::hook8Parent>::onModify<geode::modifier::ModifyBase<geode::modifier::ModifyDerive<hook8<(anonymous namespace)::hook8Parent>, ProfilePage> > >(geode::modifier::ModifyBase<geode::modifier::ModifyDerive<hook8<(anonymous namespace)::hook8Parent>, ProfilePage> >&)::{lambda()#1}, std::__ndk1::allocator<hook8<(anonymous namespace)::hook8Parent>::onModify<geode::modifier::ModifyBase<geode::modifier::ModifyDerive<hook8<(anonymous namespace)::hook8Parent>, ProfilePage> > >(geode::modifier::ModifyBase<geode::modifier::ModifyDerive<hook8<(anonymous namespace)::hook8Parent>, ProfilePage> >&)::{lambda()#1}>, void ()>::target_type() const
FUNC c9530 1c 0 geode::modifier::AsStaticFunction_loadPageFromUserInfo<hook8<(anonymous namespace)::hook8Parent>, void (hook8<(anonymous namespace)::hook8Parent>::*)(GJUserScore*)>::Impl<void (hook8<(anonymous namespace)::hook8Parent>::*)(GJUserScore*)>::function(hook8<(anonymous namespace)::hook8Parent>*, GJUserScore*)
FUNC c954c 4a8 0 __cxx_global_var_init.30
FUNC c99f4 20 0 geode::modifier::ModifyBase<geode::modifier::ModifyDerive<hook8<(anonymous namespace)::hook8Parent>, PlayLayer> >::~ModifyBase()
FUNC c9a20 33c 0 geode::modifier::ModifyDerive<hook8<(anonymous namespace)::hook8Parent>, PlayLayer>::apply()
FUNC c9d5c 2 0 geode::modifier::ModifyBase<geode::modifier::ModifyDerive<hook8<(anonymous namespace)::hook8Parent>, PlayLayer> >::apply()
FUNC c9d60 60 0 hook8<(anonymous namespace)::hook8Parent>::onModify<geode::modifier::ModifyBase<geode::modifier::ModifyDerive<hook8<(anonymous namespace)::hook8Parent>, PlayLayer> > >(geode::modifier::ModifyBase<geode::modifier::ModifyDerive<hook8<(anonymous namespace)::hook8Parent>, PlayLayer> >&)::{lambda()#1}::~{lambda()#1}()
FUNC c9dc0 6c 0 std::__ndk1::__function::__func<hook8<(anonymous namespace)::hook8Parent>::onModify<geode::modifier::ModifyBase<geode::modifier::ModifyDerive<hook8<(anonymous namespace)::hook8Parent>, PlayLayer> > >(geode::modifier::ModifyBase<geode::modifier::ModifyDerive<hook8<(anonymous namespace)::hook8Parent>, PlayLayer> >&)::{lambda()#1}, std::__ndk1::allocator<hook8<(anonymous namespace)::hook8Parent>::onModify<geode::modifier::ModifyBase<geode::modifier::ModifyDerive<hook8<(anonymous namespace)::hook8Parent>, PlayLayer> > >(geode::modifier::ModifyBase<geode::modifier::ModifyDerive<hook8<(anonymous namespace)::hook8Parent>, PlayLayer> >&)::{lambda()#1}>, void ()>::~__func()
FUNC c9e2c 6c 0 std::__ndk1::__function::__func<hook8<(anonymous namespace)::hook8Parent>::onModify<geode::modifier::ModifyBase<geode::modifier::ModifyDerive<hook8<(anonymous namespace)::hook8Parent>, PlayLayer> > >(geode::modifier::ModifyBase<geode::modifier::ModifyDerive<hook8<(anonymous namespace)::hook8Parent>, PlayLayer> >&)::{lambda()#1}, std::__ndk1::allocator<hook8<(anonymous namespace)::hook8Parent>::onModify<geode::modifier::ModifyBase<geode::modifier::ModifyDerive<hook8<(anonymous namespace)::hook8Parent>, PlayLayer> > >(geode::modifier::ModifyBase<geode::modifier::ModifyDerive<hook8<(anonymous namespace)::hook8Parent>, PlayLayer> >&)::{lambda()#1}>, void ()>::~__func()
FUNC c9e98 98 0 std::__ndk1::__function::__func<hook8<(anonymous namespace)::hook8Parent>::onModify<geode::modifier::ModifyBase<geode::modifier::ModifyDerive<hook8<(anonymous namespace)::hook8Parent>, PlayLayer> > >(geode::modifier::ModifyBase<geode::modifier::ModifyDerive<hook8<(anonymous namespace)::hook8Parent>, PlayLayer> >&)::{lambda()#1}, std::__ndk1::allocator<hook8<(anonymous namespace)::hook8Parent>::onModify<geode::modifier::ModifyBase<geode::modifier::ModifyDerive<hook8<(anonymous namespace)::hook8Parent>, PlayLayer> > >(geode::modifier::ModifyBase<geode::modifier::ModifyDerive<hook8<(anonymous namespace)::hook8Parent>, PlayLayer> >&)::{lambda()#1}>, void ()>::__clone() const
FUNC c9f30 88 0 std::__ndk1::__function::__func<hook8<(anonymous namespace)::hook8Parent>::onModify<geode::modifier::ModifyBase<geode::modifier::ModifyDerive<hook8<(anonymous namespace)::hook8Parent>, PlayLayer> > >(geode::modifier::ModifyBase<geode::modifier::ModifyDerive<hook8<(anonymous namespace)::hook8Parent>, PlayLayer> >&)::{lambda()#1}, std::__ndk1::allocator<hook8<(anonymous namespace)::hook8Parent>::onModify<geode::modifier::ModifyBase<geode::modifier::ModifyDerive<hook8<(anonymous namespace)::hook8Parent>, PlayLayer> > >(geode::modifier::ModifyBase<geode::modifier::ModifyDerive<hook8<(anonymous namespace)::hook8Parent>, PlayLayer> >&)::{lambda()#1}>, void ()>::__clone(std::__ndk1::__function::__base<void ()>*) const
FUNC c9fb8 60 0 std::__ndk1::__function::__func<hook8<(anonymous namespace)::hook8Parent>::onModify<geode::modifier::ModifyBase<geode::modifier::ModifyDerive<hook8<(anonymous namespace)::hook8Parent>, PlayLayer> > >(geode::modifier::ModifyBase<geode::modifier::ModifyDerive<hook8<(anonymous namespace)::hook8Parent>, PlayLayer> >&)::{lambda()#1}, std::__ndk1::allocator<hook8<(anonymous namespace)::hook8Parent>::onModify<geode::modifier::ModifyBase<geode::modifier::ModifyDerive<hook8<(anonymous namespace)::hook8Parent>, PlayLayer> > >(geode::modifier::ModifyBase<geode::modifier::ModifyDerive<hook8<(anonymous namespace)::hook8Parent>, PlayLayer> >&)::{lambda()#1}>, void ()>::destroy()
FUNC ca018 60 0 std::__ndk1::__function::__func<hook8<(anonymous namespace)::hook8Parent>::onModify<geode::modifier::ModifyBase<geode::modifier::ModifyDerive<hook8<(anonymous namespace)::hook8Parent>, PlayLayer> > >(geode::modifier::ModifyBase<geode::modifier::ModifyDerive<hook8<(anonymous namespace)::hook8Parent>, PlayLayer> >&)::{lambda()#1}, std::__ndk1::allocator<hook8<(anonymous namespace)::hook8Parent>::onModify<geode::modifier::ModifyBase<geode::modifier::ModifyDerive<hook8<(anonymous namespace)::hook8Parent>, PlayLayer> > >(geode::modifier::ModifyBase<geode::modifier::ModifyDerive<hook8<(anonymous namespace)::hook8Parent>, PlayLayer> >&)::{lambda()#1}>, void ()>::destroy_deallocate()
FUNC ca078 e8 0 std::__ndk1::__function::__func<hook8<(anonymous namespace)::hook8Parent>::onModify<geode::modifier::ModifyBase<geode::modifier::ModifyDerive<hook8<(anonymous namespace)::hook8Parent>, PlayLayer> > >(geode::modifier::ModifyBase<geode::modifier::ModifyDerive<hook8<(anonymous namespace)::hook8Parent>, PlayLayer> >&)::{lambda()#1}, std::__ndk1::allocator<hook8<(anonymous namespace)::hook8Parent>::onModify<geode::modifier::ModifyBase<geode::modifier::ModifyDerive<hook8<(anonymous namespace)::hook8Parent>, PlayLayer> > >(geode::modifier::ModifyBase<geode::modifier::ModifyDerive<hook8<(anonymous namespace)::hook8Parent>, PlayLayer> >&)::{lambda()#1}>, void ()>::operator()()
FUNC ca160 18 0 std::__ndk1::__function::__func<hook8<(anonymous namespace)::hook8Parent>::onModify<geode::modifier::ModifyBase<geode::modifier::ModifyDerive<hook8<(anonymous namespace)::hook8Parent>, PlayLayer> > >(geode::modifier::ModifyBase<geode::modifier::ModifyDerive<hook8<(anonymous namespace)::hook8Parent>, PlayLayer> >&)::{lambda()#1}, std::__ndk1::allocator<hook8<(anonymous namespace)::hook8Parent>::onModify<geode::modifier::ModifyBase<geode::modifier::ModifyDerive<hook8<(anonymous namespace)::hook8Parent>, PlayLayer> > >(geode::modifier::ModifyBase<geode::modifier::ModifyDerive<hook8<(anonymous namespace)::hook8Parent>, PlayLayer> >&)::{lambda()#1}>, void ()>::target(std::type_info const&) const
FUNC ca178 c 0 std::__ndk1::__function::__func<hook8<(anonymous namespace)::hook8Parent>::onModify<geode::modifier::ModifyBase<geode::modifier::ModifyDerive<hook8<(anonymous namespace)::hook8Parent>, PlayLayer> > >(geode::modifier::ModifyBase<geode::modifier::ModifyDerive<hook8<(anonymous namespace)::hook8Parent>, PlayLayer> >&)::{lambda()#1}, std::__ndk1::allocator<hook8<(anonymous namespace)::hook8Parent>::onModify<geode::modifier::ModifyBase<geode::modifier::ModifyDerive<hook8<(anonymous namespace)::hook8Parent>, PlayLayer> > >(geode::modifier::ModifyBase<geode::modifier::ModifyDerive<hook8<(anonymous namespace)::hook8Parent>, PlayLayer> >&)::{lambda()#1}>, void ()>::target_type() const
FUNC ca184 88 0 geode::modifier::AsStaticFunction_destroyPlayer<hook8<(anonymous namespace)::hook8Parent>, void (hook8<(anonymous namespace)::hook8Parent>::*)(PlayerObject*, GameObject*)>::Impl<void (hook8<(anonymous namespace)::hook8Parent>::*)(PlayerObject*, GameObject*)>::function(hook8<(anonymous namespace)::hook8Parent>*, PlayerObject*, GameObject*)
FUNC ca20c 4a8 0 __cxx_global_var_init.30
FUNC ca6b4 20 0 geode::modifier::ModifyBase<geode::modifier::ModifyDerive<hook9<(anonymous namespace)::hook9Parent>, LevelInfoLayer> >::~ModifyBase()
FUNC ca6d4 2f4 0 __cxx_global_var_init.31
FUNC ca9c8 20 0 geode::modifier::ModifyBase<geode::modifier::ModifyDerive<ShowPasswordLayer, NumberInputLayer> >::~ModifyBase()
FUNC ca9f0 340 0 geode::modifier::ModifyDerive<hook9<(anonymous namespace)::hook9Parent>, LevelInfoLayer>::apply()
FUNC cad30 2 0 geode::modifier::ModifyBase<geode::modifier::ModifyDerive<hook9<(anonymous namespace)::hook9Parent>, LevelInfoLayer> >::apply()
FUNC cad34 60 0 hook9<(anonymous namespace)::hook9Parent>::onModify<geode::modifier::ModifyBase<geode::modifier::ModifyDerive<hook9<(anonymous namespace)::hook9Parent>, LevelInfoLayer> > >(geode::modifier::ModifyBase<geode::modifier::ModifyDerive<hook9<(anonymous namespace)::hook9Parent>, LevelInfoLayer> >&)::{lambda()#1}::~{lambda()#1}()
FUNC cad94 6c 0 std::__ndk1::__function::__func<hook9<(anonymous namespace)::hook9Parent>::onModify<geode::modifier::ModifyBase<geode::modifier::ModifyDerive<hook9<(anonymous namespace)::hook9Parent>, LevelInfoLayer> > >(geode::modifier::ModifyBase<geode::modifier::ModifyDerive<hook9<(anonymous namespace)::hook9Parent>, LevelInfoLayer> >&)::{lambda()#1}, std::__ndk1::allocator<hook9<(anonymous namespace)::hook9Parent>::onModify<geode::modifier::ModifyBase<geode::modifier::ModifyDerive<hook9<(anonymous namespace)::hook9Parent>, LevelInfoLayer> > >(geode::modifier::ModifyBase<geode::modifier::ModifyDerive<hook9<(anonymous namespace)::hook9Parent>, LevelInfoLayer> >&)::{lambda()#1}>, void ()>::~__func()
FUNC cae00 6c 0 std::__ndk1::__function::__func<hook9<(anonymous namespace)::hook9Parent>::onModify<geode::modifier::ModifyBase<geode::modifier::ModifyDerive<hook9<(anonymous namespace)::hook9Parent>, LevelInfoLayer> > >(geode::modifier::ModifyBase<geode::modifier::ModifyDerive<hook9<(anonymous namespace)::hook9Parent>, LevelInfoLayer> >&)::{lambda()#1}, std::__ndk1::allocator<hook9<(anonymous namespace)::hook9Parent>::onModify<geode::modifier::ModifyBase<geode::modifier::ModifyDerive<hook9<(anonymous namespace)::hook9Parent>, LevelInfoLayer> > >(geode::modifier::ModifyBase<geode::modifier::ModifyDerive<hook9<(anonymous namespace)::hook9Parent>, LevelInfoLayer> >&)::{lambda()#1}>, void ()>::~__func()
FUNC cae6c 98 0 std::__ndk1::__function::__func<hook9<(anonymous namespace)::hook9Parent>::onModify<geode::modifier::ModifyBase<geode::modifier::ModifyDerive<hook9<(anonymous namespace)::hook9Parent>, LevelInfoLayer> > >(geode::modifier::ModifyBase<geode::modifier::ModifyDerive<hook9<(anonymous namespace)::hook9Parent>, LevelInfoLayer> >&)::{lambda()#1}, std::__ndk1::allocator<hook9<(anonymous namespace)::hook9Parent>::onModify<geode::modifier::ModifyBase<geode::modifier::ModifyDerive<hook9<(anonymous namespace)::hook9Parent>, LevelInfoLayer> > >(geode::modifier::ModifyBase<geode::modifier::ModifyDerive<hook9<(anonymous namespace)::hook9Parent>, LevelInfoLayer> >&)::{lambda()#1}>, void ()>::__clone() const
FUNC caf04 88 0 std::__ndk1::__function::__func<hook9<(anonymous namespace)::hook9Parent>::onModify<geode::modifier::ModifyBase<geode::modifier::ModifyDerive<hook9<(anonymous namespace)::hook9Parent>, LevelInfoLayer> > >(geode::modifier::ModifyBase<geode::modifier::ModifyDerive<hook9<(anonymous namespace)::hook9Parent>, LevelInfoLayer> >&)::{lambda()#1}, std::__ndk1::allocator<hook9<(anonymous namespace)::hook9Parent>::onModify<geode::modifier::ModifyBase<geode::modifier::ModifyDerive<hook9<(anonymous namespace)::hook9Parent>, LevelInfoLayer> > >(geode::modifier::ModifyBase<geode::modifier::ModifyDerive<hook9<(anonymous namespace)::hook9Parent>, LevelInfoLayer> >&)::{lambda()#1}>, void ()>::__clone(std::__ndk1::__function::__base<void ()>*) const
FUNC caf8c 60 0 std::__ndk1::__function::__func<hook9<(anonymous namespace)::hook9Parent>::onModify<geode::modifier::ModifyBase<geode::modifier::ModifyDerive<hook9<(anonymous namespace)::hook9Parent>, LevelInfoLayer> > >(geode::modifier::ModifyBase<geode::modifier::ModifyDerive<hook9<(anonymous namespace)::hook9Parent>, LevelInfoLayer> >&)::{lambda()#1}, std::__ndk1::allocator<hook9<(anonymous namespace)::hook9Parent>::onModify<geode::modifier::ModifyBase<geode::modifier::ModifyDerive<hook9<(anonymous namespace)::hook9Parent>, LevelInfoLayer> > >(geode::modifier::ModifyBase<geode::modifier::ModifyDerive<hook9<(anonymous namespace)::hook9Parent>, LevelInfoLayer> >&)::{lambda()#1}>, void ()>::destroy()
FUNC cafec 60 0 std::__ndk1::__function::__func<hook9<(anonymous namespace)::hook9Parent>::onModify<geode::modifier::ModifyBase<geode::modifier::ModifyDerive<hook9<(anonymous namespace)::hook9Parent>, LevelInfoLayer> > >(geode::modifier::ModifyBase<geode::modifier::ModifyDerive<hook9<(anonymous namespace)::hook9Parent>, LevelInfoLayer> >&)::{lambda()#1}, std::__ndk1::allocator<hook9<(anonymous namespace)::hook9Parent>::onModify<geode::modifier::ModifyBase<geode::modifier::ModifyDerive<hook9<(anonymous namespace)::hook9Parent>, LevelInfoLayer> > >(geode::modifier::ModifyBase<geode::modifier::ModifyDerive<hook9<(anonymous namespace)::hook9Parent>, LevelInfoLayer> >&)::{lambda()#1}>, void ()>::destroy_deallocate()
FUNC cb04c d0 0 std::__ndk1::__function::__func<hook9<(anonymous namespace)::hook9Parent>::onModify<geode::modifier::ModifyBase<geode::modifier::ModifyDerive<hook9<(anonymous namespace)::hook9Parent>, LevelInfoLayer> > >(geode::modifier::ModifyBase<geode::modifier::ModifyDerive<hook9<(anonymous namespace)::hook9Parent>, LevelInfoLayer> >&)::{lambda()#1}, std::__ndk1::allocator<hook9<(anonymous namespace)::hook9Parent>::onModify<geode::modifier::ModifyBase<geode::modifier::ModifyDerive<hook9<(anonymous namespace)::hook9Parent>, LevelInfoLayer> > >(geode::modifier::ModifyBase<geode::modifier::ModifyDerive<hook9<(anonymous namespace)::hook9Parent>, LevelInfoLayer> >&)::{lambda()#1}>, void ()>::operator()()
FUNC cb11c 18 0 std::__ndk1::__function::__func<hook9<(anonymous namespace)::hook9Parent>::onModify<geode::modifier::ModifyBase<geode::modifier::ModifyDerive<hook9<(anonymous namespace)::hook9Parent>, LevelInfoLayer> > >(geode::modifier::ModifyBase<geode::modifier::ModifyDerive<hook9<(anonymous namespace)::hook9Parent>, LevelInfoLayer> >&)::{lambda()#1}, std::__ndk1::allocator<hook9<(anonymous namespace)::hook9Parent>::onModify<geode::modifier::ModifyBase<geode::modifier::ModifyDerive<hook9<(anonymous namespace)::hook9Parent>, LevelInfoLayer> > >(geode::modifier::ModifyBase<geode::modifier::ModifyDerive<hook9<(anonymous namespace)::hook9Parent>, LevelInfoLayer> >&)::{lambda()#1}>, void ()>::target(std::type_info const&) const
FUNC cb134 c 0 std::__ndk1::__function::__func<hook9<(anonymous namespace)::hook9Parent>::onModify<geode::modifier::ModifyBase<geode::modifier::ModifyDerive<hook9<(anonymous namespace)::hook9Parent>, LevelInfoLayer> > >(geode::modifier::ModifyBase<geode::modifier::ModifyDerive<hook9<(anonymous namespace)::hook9Parent>, LevelInfoLayer> >&)::{lambda()#1}, std::__ndk1::allocator<hook9<(anonymous namespace)::hook9Parent>::onModify<geode::modifier::ModifyBase<geode::modifier::ModifyDerive<hook9<(anonymous namespace)::hook9Parent>, LevelInfoLayer> > >(geode::modifier::ModifyBase<geode::modifier::ModifyDerive<hook9<(anonymous namespace)::hook9Parent>, LevelInfoLayer> >&)::{lambda()#1}>, void ()>::target_type() const
FUNC cb140 284 0 geode::modifier::AsStaticFunction_init<hook9<(anonymous namespace)::hook9Parent>, bool (hook9<(anonymous namespace)::hook9Parent>::*)(GJGameLevel*, bool)>::Impl<bool (hook9<(anonymous namespace)::hook9Parent>::*)(GJGameLevel*, bool)>::function(hook9<(anonymous namespace)::hook9Parent>*, GJGameLevel*, bool)
FUNC cb3c4 2d0 0 geode::modifier::ModifyDerive<ShowPasswordLayer, NumberInputLayer>::apply()
FUNC cb694 2 0 geode::modifier::ModifyBase<geode::modifier::ModifyDerive<ShowPasswordLayer, NumberInputLayer> >::apply()
FUNC cb698 84 0 geode::addresser::getVirtual<bool (NumberInputLayer::*)()>(bool (NumberInputLayer::*)())
FUNC cb71c c4 0 geode::modifier::AsStaticFunction_init<ShowPasswordLayer, bool (ShowPasswordLayer::*)()>::Impl<bool (ShowPasswordLayer::*)()>::function(ShowPasswordLayer*)
FUNC cb7e0 80 0 NumberInputLayer::NumberInputLayer(geode::ZeroConstructorType)
FUNC cb860 1c0 0 ShowPasswordLayer::onShowPassword(cocos2d::CCObject*)
FUNC cba20 4a8 0 __cxx_global_var_init.30
FUNC cbec8 20 0 geode::modifier::ModifyBase<geode::modifier::ModifyDerive<hook8<(anonymous namespace)::hook8Parent>, MenuLayer> >::~ModifyBase()
FUNC cbee8 2cc 0 geode::modifier::ModifyDerive<hook8<(anonymous namespace)::hook8Parent>, MenuLayer>::apply()
FUNC cc1b4 2 0 geode::modifier::ModifyBase<geode::modifier::ModifyDerive<hook8<(anonymous namespace)::hook8Parent>, MenuLayer> >::apply()
FUNC cc1b8 60 0 hook8<(anonymous namespace)::hook8Parent>::onModify<geode::modifier::ModifyBase<geode::modifier::ModifyDerive<hook8<(anonymous namespace)::hook8Parent>, MenuLayer> > >(geode::modifier::ModifyBase<geode::modifier::ModifyDerive<hook8<(anonymous namespace)::hook8Parent>, MenuLayer> >&)::{lambda()#1}::~{lambda()#1}()
FUNC cc218 6c 0 std::__ndk1::__function::__func<hook8<(anonymous namespace)::hook8Parent>::onModify<geode::modifier::ModifyBase<geode::modifier::ModifyDerive<hook8<(anonymous namespace)::hook8Parent>, MenuLayer> > >(geode::modifier::ModifyBase<geode::modifier::ModifyDerive<hook8<(anonymous namespace)::hook8Parent>, MenuLayer> >&)::{lambda()#1}, std::__ndk1::allocator<hook8<(anonymous namespace)::hook8Parent>::onModify<geode::modifier::ModifyBase<geode::modifier::ModifyDerive<hook8<(anonymous namespace)::hook8Parent>, MenuLayer> > >(geode::modifier::ModifyBase<geode::modifier::ModifyDerive<hook8<(anonymous namespace)::hook8Parent>, MenuLayer> >&)::{lambda()#1}>, void ()>::~__func()
FUNC cc284 6c 0 std::__ndk1::__function::__func<hook8<(anonymous namespace)::hook8Parent>::onModify<geode::modifier::ModifyBase<geode::modifier::ModifyDerive<hook8<(anonymous namespace)::hook8Parent>, MenuLayer> > >(geode::modifier::ModifyBase<geode::modifier::ModifyDerive<hook8<(anonymous namespace)::hook8Parent>, MenuLayer> >&)::{lambda()#1}, std::__ndk1::allocator<hook8<(anonymous namespace)::hook8Parent>::onModify<geode::modifier::ModifyBase<geode::modifier::ModifyDerive<hook8<(anonymous namespace)::hook8Parent>, MenuLayer> > >(geode::modifier::ModifyBase<geode::modifier::ModifyDerive<hook8<(anonymous namespace)::hook8Parent>, MenuLayer> >&)::{lambda()#1}>, void ()>::~__func()
FUNC cc2f0 98 0 std::__ndk1::__function::__func<hook8<(anonymous namespace)::hook8Parent>::onModify<geode::modifier::ModifyBase<geode::modifier::ModifyDerive<hook8<(anonymous namespace)::hook8Parent>, MenuLayer> > >(geode::modifier::ModifyBase<geode::modifier::ModifyDerive<hook8<(anonymous namespace)::hook8Parent>, MenuLayer> >&)::{lambda()#1}, std::__ndk1::allocator<hook8<(anonymous namespace)::hook8Parent>::onModify<geode::modifier::ModifyBase<geode::modifier::ModifyDerive<hook8<(anonymous namespace)::hook8Parent>, MenuLayer> > >(geode::modifier::ModifyBase<geode::modifier::ModifyDerive<hook8<(anonymous namespace)::hook8Parent>, MenuLayer> >&)::{lambda()#1}>, void ()>::__clone() const
FUNC cc388 88 0 std::__ndk1::__function::__func<hook8<(anonymous namespace)::hook8Parent>::onModify<geode::modifier::ModifyBase<geode::modifier::ModifyDerive<hook8<(anonymous namespace)::hook8Parent>, MenuLayer> > >(geode::modifier::ModifyBase<geode::modifier::ModifyDerive<hook8<(anonymous namespace)::hook8Parent>, MenuLayer> >&)::{lambda()#1}, std::__ndk1::allocator<hook8<(anonymous namespace)::hook8Parent>::onModify<geode::modifier::ModifyBase<geode::modifier::ModifyDerive<hook8<(anonymous namespace)::hook8Parent>, MenuLayer> > >(geode::modifier::ModifyBase<geode::modifier::ModifyDerive<hook8<(anonymous namespace)::hook8Parent>, MenuLayer> >&)::{lambda()#1}>, void ()>::__clone(std::__ndk1::__function::__base<void ()>*) const
FUNC cc410 60 0 std::__ndk1::__function::__func<hook8<(anonymous namespace)::hook8Parent>::onModify<geode::modifier::ModifyBase<geode::modifier::ModifyDerive<hook8<(anonymous namespace)::hook8Parent>, MenuLayer> > >(geode::modifier::ModifyBase<geode::modifier::ModifyDerive<hook8<(anonymous namespace)::hook8Parent>, MenuLayer> >&)::{lambda()#1}, std::__ndk1::allocator<hook8<(anonymous namespace)::hook8Parent>::onModify<geode::modifier::ModifyBase<geode::modifier::ModifyDerive<hook8<(anonymous namespace)::hook8Parent>, MenuLayer> > >(geode::modifier::ModifyBase<geode::modifier::ModifyDerive<hook8<(anonymous namespace)::hook8Parent>, MenuLayer> >&)::{lambda()#1}>, void ()>::destroy()
FUNC cc470 60 0 std::__ndk1::__function::__func<hook8<(anonymous namespace)::hook8Parent>::onModify<geode::modifier::ModifyBase<geode::modifier::ModifyDerive<hook8<(anonymous namespace)::hook8Parent>, MenuLayer> > >(geode::modifier::ModifyBase<geode::modifier::ModifyDerive<hook8<(anonymous namespace)::hook8Parent>, MenuLayer> >&)::{lambda()#1}, std::__ndk1::allocator<hook8<(anonymous namespace)::hook8Parent>::onModify<geode::modifier::ModifyBase<geode::modifier::ModifyDerive<hook8<(anonymous namespace)::hook8Parent>, MenuLayer> > >(geode::modifier::ModifyBase<geode::modifier::ModifyDerive<hook8<(anonymous namespace)::hook8Parent>, MenuLayer> >&)::{lambda()#1}>, void ()>::destroy_deallocate()
FUNC cc4d0 f0 0 std::__ndk1::__function::__func<hook8<(anonymous namespace)::hook8Parent>::onModify<geode::modifier::ModifyBase<geode::modifier::ModifyDerive<hook8<(anonymous namespace)::hook8Parent>, MenuLayer> > >(geode::modifier::ModifyBase<geode::modifier::ModifyDerive<hook8<(anonymous namespace)::hook8Parent>, MenuLayer> >&)::{lambda()#1}, std::__ndk1::allocator<hook8<(anonymous namespace)::hook8Parent>::onModify<geode::modifier::ModifyBase<geode::modifier::ModifyDerive<hook8<(anonymous namespace)::hook8Parent>, MenuLayer> > >(geode::modifier::ModifyBase<geode::modifier::ModifyDerive<hook8<(anonymous namespace)::hook8Parent>, MenuLayer> >&)::{lambda()#1}>, void ()>::operator()()
FUNC cc5c0 18 0 std::__ndk1::__function::__func<hook8<(anonymous namespace)::hook8Parent>::onModify<geode::modifier::ModifyBase<geode::modifier::ModifyDerive<hook8<(anonymous namespace)::hook8Parent>, MenuLayer> > >(geode::modifier::ModifyBase<geode::modifier::ModifyDerive<hook8<(anonymous namespace)::hook8Parent>, MenuLayer> >&)::{lambda()#1}, std::__ndk1::allocator<hook8<(anonymous namespace)::hook8Parent>::onModify<geode::modifier::ModifyBase<geode::modifier::ModifyDerive<hook8<(anonymous namespace)::hook8Parent>, MenuLayer> > >(geode::modifier::ModifyBase<geode::modifier::ModifyDerive<hook8<(anonymous namespace)::hook8Parent>, MenuLayer> >&)::{lambda()#1}>, void ()>::target(std::type_info const&) const
FUNC cc5d8 c 0 std::__ndk1::__function::__func<hook8<(anonymous namespace)::hook8Parent>::onModify<geode::modifier::ModifyBase<geode::modifier::ModifyDerive<hook8<(anonymous namespace)::hook8Parent>, MenuLayer> > >(geode::modifier::ModifyBase<geode::modifier::ModifyDerive<hook8<(anonymous namespace)::hook8Parent>, MenuLayer> >&)::{lambda()#1}, std::__ndk1::allocator<hook8<(anonymous namespace)::hook8Parent>::onModify<geode::modifier::ModifyBase<geode::modifier::ModifyDerive<hook8<(anonymous namespace)::hook8Parent>, MenuLayer> > >(geode::modifier::ModifyBase<geode::modifier::ModifyDerive<hook8<(anonymous namespace)::hook8Parent>, MenuLayer> >&)::{lambda()#1}>, void ()>::target_type() const
FUNC cc5e4 cc 0 geode::modifier::AsStaticFunction_init<hook8<(anonymous namespace)::hook8Parent>, bool (hook8<(anonymous namespace)::hook8Parent>::*)()>::Impl<bool (hook8<(anonymous namespace)::hook8Parent>::*)()>::function(hook8<(anonymous namespace)::hook8Parent>*)
FUNC cc6b0 550 0 __cxx_global_var_init.30
FUNC ccc00 550 0 __cxx_global_var_init.31
FUNC cd150 20 0 geode::modifier::ModifyBase<geode::modifier::ModifyDerive<hook11<(anonymous namespace)::hook11Parent>, HardStreak> >::~ModifyBase()
FUNC cd170 20 0 geode::modifier::ModifyBase<geode::modifier::ModifyDerive<hook22<(anonymous namespace)::hook22Parent>, PlayerObject> >::~ModifyBase()
FUNC cd190 310 0 geode::modifier::ModifyDerive<hook11<(anonymous namespace)::hook11Parent>, HardStreak>::apply()
FUNC cd4a0 2 0 geode::modifier::ModifyBase<geode::modifier::ModifyDerive<hook11<(anonymous namespace)::hook11Parent>, HardStreak> >::apply()
FUNC cd4a4 2c 0 std::__ndk1::__function::__func<hook11<(anonymous namespace)::hook11Parent>::onModify<geode::modifier::ModifyBase<geode::modifier::ModifyDerive<hook11<(anonymous namespace)::hook11Parent>, HardStreak> > >(geode::modifier::ModifyBase<geode::modifier::ModifyDerive<hook11<(anonymous namespace)::hook11Parent>, HardStreak> >&)::{lambda()#1}, std::__ndk1::allocator<hook11<(anonymous namespace)::hook11Parent>::onModify<geode::modifier::ModifyBase<geode::modifier::ModifyDerive<hook11<(anonymous namespace)::hook11Parent>, HardStreak> > >(geode::modifier::ModifyBase<geode::modifier::ModifyDerive<hook11<(anonymous namespace)::hook11Parent>, HardStreak> >&)::{lambda()#1}>, void ()>::~__func()
FUNC cd4d0 30 0 std::__ndk1::__function::__func<hook11<(anonymous namespace)::hook11Parent>::onModify<geode::modifier::ModifyBase<geode::modifier::ModifyDerive<hook11<(anonymous namespace)::hook11Parent>, HardStreak> > >(geode::modifier::ModifyBase<geode::modifier::ModifyDerive<hook11<(anonymous namespace)::hook11Parent>, HardStreak> >&)::{lambda()#1}, std::__ndk1::allocator<hook11<(anonymous namespace)::hook11Parent>::onModify<geode::modifier::ModifyBase<geode::modifier::ModifyDerive<hook11<(anonymous namespace)::hook11Parent>, HardStreak> > >(geode::modifier::ModifyBase<geode::modifier::ModifyDerive<hook11<(anonymous namespace)::hook11Parent>, HardStreak> >&)::{lambda()#1}>, void ()>::~__func()
FUNC cd500 7c 0 std::__ndk1::__function::__func<hook11<(anonymous namespace)::hook11Parent>::onModify<geode::modifier::ModifyBase<geode::modifier::ModifyDerive<hook11<(anonymous namespace)::hook11Parent>, HardStreak> > >(geode::modifier::ModifyBase<geode::modifier::ModifyDerive<hook11<(anonymous namespace)::hook11Parent>, HardStreak> >&)::{lambda()#1}, std::__ndk1::allocator<hook11<(anonymous namespace)::hook11Parent>::onModify<geode::modifier::ModifyBase<geode::modifier::ModifyDerive<hook11<(anonymous namespace)::hook11Parent>, HardStreak> > >(geode::modifier::ModifyBase<geode::modifier::ModifyDerive<hook11<(anonymous namespace)::hook11Parent>, HardStreak> >&)::{lambda()#1}>, void ()>::__clone() const
FUNC cd57c 70 0 std::__ndk1::__function::__func<hook11<(anonymous namespace)::hook11Parent>::onModify<geode::modifier::ModifyBase<geode::modifier::ModifyDerive<hook11<(anonymous namespace)::hook11Parent>, HardStreak> > >(geode::modifier::ModifyBase<geode::modifier::ModifyDerive<hook11<(anonymous namespace)::hook11Parent>, HardStreak> >&)::{lambda()#1}, std::__ndk1::allocator<hook11<(anonymous namespace)::hook11Parent>::onModify<geode::modifier::ModifyBase<geode::modifier::ModifyDerive<hook11<(anonymous namespace)::hook11Parent>, HardStreak> > >(geode::modifier::ModifyBase<geode::modifier::ModifyDerive<hook11<(anonymous namespace)::hook11Parent>, HardStreak> >&)::{lambda()#1}>, void ()>::__clone(std::__ndk1::__function::__base<void ()>*) const
FUNC cd5ec 10 0 std::__ndk1::__function::__func<hook11<(anonymous namespace)::hook11Parent>::onModify<geode::modifier::ModifyBase<geode::modifier::ModifyDerive<hook11<(anonymous namespace)::hook11Parent>, HardStreak> > >(geode::modifier::ModifyBase<geode::modifier::ModifyDerive<hook11<(anonymous namespace)::hook11Parent>, HardStreak> >&)::{lambda()#1}, std::__ndk1::allocator<hook11<(anonymous namespace)::hook11Parent>::onModify<geode::modifier::ModifyBase<geode::modifier::ModifyDerive<hook11<(anonymous namespace)::hook11Parent>, HardStreak> > >(geode::modifier::ModifyBase<geode::modifier::ModifyDerive<hook11<(anonymous namespace)::hook11Parent>, HardStreak> >&)::{lambda()#1}>, void ()>::destroy()
FUNC cd5fc 22 0 std::__ndk1::__function::__func<hook11<(anonymous namespace)::hook11Parent>::onModify<geode::modifier::ModifyBase<geode::modifier::ModifyDerive<hook11<(anonymous namespace)::hook11Parent>, HardStreak> > >(geode::modifier::ModifyBase<geode::modifier::ModifyDerive<hook11<(anonymous namespace)::hook11Parent>, HardStreak> >&)::{lambda()#1}, std::__ndk1::allocator<hook11<(anonymous namespace)::hook11Parent>::onModify<geode::modifier::ModifyBase<geode::modifier::ModifyDerive<hook11<(anonymous namespace)::hook11Parent>, HardStreak> > >(geode::modifier::ModifyBase<geode::modifier::ModifyDerive<hook11<(anonymous namespace)::hook11Parent>, HardStreak> >&)::{lambda()#1}>, void ()>::destroy_deallocate()
FUNC cd620 88 0 std::__ndk1::__function::__func<hook11<(anonymous namespace)::hook11Parent>::onModify<geode::modifier::ModifyBase<geode::modifier::ModifyDerive<hook11<(anonymous namespace)::hook11Parent>, HardStreak> > >(geode::modifier::ModifyBase<geode::modifier::ModifyDerive<hook11<(anonymous namespace)::hook11Parent>, HardStreak> >&)::{lambda()#1}, std::__ndk1::allocator<hook11<(anonymous namespace)::hook11Parent>::onModify<geode::modifier::ModifyBase<geode::modifier::ModifyDerive<hook11<(anonymous namespace)::hook11Parent>, HardStreak> > >(geode::modifier::ModifyBase<geode::modifier::ModifyDerive<hook11<(anonymous namespace)::hook11Parent>, HardStreak> >&)::{lambda()#1}>, void ()>::operator()()
FUNC cd6a8 18 0 std::__ndk1::__function::__func<hook11<(anonymous namespace)::hook11Parent>::onModify<geode::modifier::ModifyBase<geode::modifier::ModifyDerive<hook11<(anonymous namespace)::hook11Parent>, HardStreak> > >(geode::modifier::ModifyBase<geode::modifier::ModifyDerive<hook11<(anonymous namespace)::hook11Parent>, HardStreak> >&)::{lambda()#1}, std::__ndk1::allocator<hook11<(anonymous namespace)::hook11Parent>::onModify<geode::modifier::ModifyBase<geode::modifier::ModifyDerive<hook11<(anonymous namespace)::hook11Parent>, HardStreak> > >(geode::modifier::ModifyBase<geode::modifier::ModifyDerive<hook11<(anonymous namespace)::hook11Parent>, HardStreak> >&)::{lambda()#1}>, void ()>::target(std::type_info const&) const
FUNC cd6c0 c 0 std::__ndk1::__function::__func<hook11<(anonymous namespace)::hook11Parent>::onModify<geode::modifier::ModifyBase<geode::modifier::ModifyDerive<hook11<(anonymous namespace)::hook11Parent>, HardStreak> > >(geode::modifier::ModifyBase<geode::modifier::ModifyDerive<hook11<(anonymous namespace)::hook11Parent>, HardStreak> >&)::{lambda()#1}, std::__ndk1::allocator<hook11<(anonymous namespace)::hook11Parent>::onModify<geode::modifier::ModifyBase<geode::modifier::ModifyDerive<hook11<(anonymous namespace)::hook11Parent>, HardStreak> > >(geode::modifier::ModifyBase<geode::modifier::ModifyDerive<hook11<(anonymous namespace)::hook11Parent>, HardStreak> >&)::{lambda()#1}>, void ()>::target_type() const
FUNC cd6cc 26 0 geode::modifier::AsStaticFunction_updateStroke<hook11<(anonymous namespace)::hook11Parent>, void (hook11<(anonymous namespace)::hook11Parent>::*)(float)>::Impl<void (hook11<(anonymous namespace)::hook11Parent>::*)(float)>::function(hook11<(anonymous namespace)::hook11Parent>*, float)
FUNC cd6f4 6f8 0 geode::modifier::ModifyDerive<hook22<(anonymous namespace)::hook22Parent>, PlayerObject>::apply()
FUNC cddec 2 0 geode::modifier::ModifyBase<geode::modifier::ModifyDerive<hook22<(anonymous namespace)::hook22Parent>, PlayerObject> >::apply()
FUNC cddf0 2c 0 std::__ndk1::__function::__func<hook22<(anonymous namespace)::hook22Parent>::onModify<geode::modifier::ModifyBase<geode::modifier::ModifyDerive<hook22<(anonymous namespace)::hook22Parent>, PlayerObject> > >(geode::modifier::ModifyBase<geode::modifier::ModifyDerive<hook22<(anonymous namespace)::hook22Parent>, PlayerObject> >&)::{lambda()#1}, std::__ndk1::allocator<hook22<(anonymous namespace)::hook22Parent>::onModify<geode::modifier::ModifyBase<geode::modifier::ModifyDerive<hook22<(anonymous namespace)::hook22Parent>, PlayerObject> > >(geode::modifier::ModifyBase<geode::modifier::ModifyDerive<hook22<(anonymous namespace)::hook22Parent>, PlayerObject> >&)::{lambda()#1}>, void ()>::~__func()
FUNC cde1c 30 0 std::__ndk1::__function::__func<hook22<(anonymous namespace)::hook22Parent>::onModify<geode::modifier::ModifyBase<geode::modifier::ModifyDerive<hook22<(anonymous namespace)::hook22Parent>, PlayerObject> > >(geode::modifier::ModifyBase<geode::modifier::ModifyDerive<hook22<(anonymous namespace)::hook22Parent>, PlayerObject> >&)::{lambda()#1}, std::__ndk1::allocator<hook22<(anonymous namespace)::hook22Parent>::onModify<geode::modifier::ModifyBase<geode::modifier::ModifyDerive<hook22<(anonymous namespace)::hook22Parent>, PlayerObject> > >(geode::modifier::ModifyBase<geode::modifier::ModifyDerive<hook22<(anonymous namespace)::hook22Parent>, PlayerObject> >&)::{lambda()#1}>, void ()>::~__func()
FUNC cde4c 7c 0 std::__ndk1::__function::__func<hook22<(anonymous namespace)::hook22Parent>::onModify<geode::modifier::ModifyBase<geode::modifier::ModifyDerive<hook22<(anonymous namespace)::hook22Parent>, PlayerObject> > >(geode::modifier::ModifyBase<geode::modifier::ModifyDerive<hook22<(anonymous namespace)::hook22Parent>, PlayerObject> >&)::{lambda()#1}, std::__ndk1::allocator<hook22<(anonymous namespace)::hook22Parent>::onModify<geode::modifier::ModifyBase<geode::modifier::ModifyDerive<hook22<(anonymous namespace)::hook22Parent>, PlayerObject> > >(geode::modifier::ModifyBase<geode::modifier::ModifyDerive<hook22<(anonymous namespace)::hook22Parent>, PlayerObject> >&)::{lambda()#1}>, void ()>::__clone() const
FUNC cdec8 70 0 std::__ndk1::__function::__func<hook22<(anonymous namespace)::hook22Parent>::onModify<geode::modifier::ModifyBase<geode::modifier::ModifyDerive<hook22<(anonymous namespace)::hook22Parent>, PlayerObject> > >(geode::modifier::ModifyBase<geode::modifier::ModifyDerive<hook22<(anonymous namespace)::hook22Parent>, PlayerObject> >&)::{lambda()#1}, std::__ndk1::allocator<hook22<(anonymous namespace)::hook22Parent>::onModify<geode::modifier::ModifyBase<geode::modifier::ModifyDerive<hook22<(anonymous namespace)::hook22Parent>, PlayerObject> > >(geode::modifier::ModifyBase<geode::modifier::ModifyDerive<hook22<(anonymous namespace)::hook22Parent>, PlayerObject> >&)::{lambda()#1}>, void ()>::__clone(std::__ndk1::__function::__base<void ()>*) const
FUNC cdf38 10 0 std::__ndk1::__function::__func<hook22<(anonymous namespace)::hook22Parent>::onModify<geode::modifier::ModifyBase<geode::modifier::ModifyDerive<hook22<(anonymous namespace)::hook22Parent>, PlayerObject> > >(geode::modifier::ModifyBase<geode::modifier::ModifyDerive<hook22<(anonymous namespace)::hook22Parent>, PlayerObject> >&)::{lambda()#1}, std::__ndk1::allocator<hook22<(anonymous namespace)::hook22Parent>::onModify<geode::modifier::ModifyBase<geode::modifier::ModifyDerive<hook22<(anonymous namespace)::hook22Parent>, PlayerObject> > >(geode::modifier::ModifyBase<geode::modifier::ModifyDerive<hook22<(anonymous namespace)::hook22Parent>, PlayerObject> >&)::{lambda()#1}>, void ()>::destroy()
FUNC cdf48 22 0 std::__ndk1::__function::__func<hook22<(anonymous namespace)::hook22Parent>::onModify<geode::modifier::ModifyBase<geode::modifier::ModifyDerive<hook22<(anonymous namespace)::hook22Parent>, PlayerObject> > >(geode::modifier::ModifyBase<geode::modifier::ModifyDerive<hook22<(anonymous namespace)::hook22Parent>, PlayerObject> >&)::{lambda()#1}, std::__ndk1::allocator<hook22<(anonymous namespace)::hook22Parent>::onModify<geode::modifier::ModifyBase<geode::modifier::ModifyDerive<hook22<(anonymous namespace)::hook22Parent>, PlayerObject> > >(geode::modifier::ModifyBase<geode::modifier::ModifyDerive<hook22<(anonymous namespace)::hook22Parent>, PlayerObject> >&)::{lambda()#1}>, void ()>::destroy_deallocate()
FUNC cdf6c 88 0 std::__ndk1::__function::__func<hook22<(anonymous namespace)::hook22Parent>::onModify<geode::modifier::ModifyBase<geode::modifier::ModifyDerive<hook22<(anonymous namespace)::hook22Parent>, PlayerObject> > >(geode::modifier::ModifyBase<geode::modifier::ModifyDerive<hook22<(anonymous namespace)::hook22Parent>, PlayerObject> >&)::{lambda()#1}, std::__ndk1::allocator<hook22<(anonymous namespace)::hook22Parent>::onModify<geode::modifier::ModifyBase<geode::modifier::ModifyDerive<hook22<(anonymous namespace)::hook22Parent>, PlayerObject> > >(geode::modifier::ModifyBase<geode::modifier::ModifyDerive<hook22<(anonymous namespace)::hook22Parent>, PlayerObject> >&)::{lambda()#1}>, void ()>::operator()()
FUNC cdff4 18 0 std::__ndk1::__function::__func<hook22<(anonymous namespace)::hook22Parent>::onModify<geode::modifier::ModifyBase<geode::modifier::ModifyDerive<hook22<(anonymous namespace)::hook22Parent>, PlayerObject> > >(geode::modifier::ModifyBase<geode::modifier::ModifyDerive<hook22<(anonymous namespace)::hook22Parent>, PlayerObject> >&)::{lambda()#1}, std::__ndk1::allocator<hook22<(anonymous namespace)::hook22Parent>::onModify<geode::modifier::ModifyBase<geode::modifier::ModifyDerive<hook22<(anonymous namespace)::hook22Parent>, PlayerObject> > >(geode::modifier::ModifyBase<geode::modifier::ModifyDerive<hook22<(anonymous namespace)::hook22Parent>, PlayerObject> >&)::{lambda()#1}>, void ()>::target(std::type_info const&) const
FUNC ce00c c 0 std::__ndk1::__function::__func<hook22<(anonymous namespace)::hook22Parent>::onModify<geode::modifier::ModifyBase<geode::modifier::ModifyDerive<hook22<(anonymous namespace)::hook22Parent>, PlayerObject> > >(geode::modifier::ModifyBase<geode::modifier::ModifyDerive<hook22<(anonymous namespace)::hook22Parent>, PlayerObject> >&)::{lambda()#1}, std::__ndk1::allocator<hook22<(anonymous namespace)::hook22Parent>::onModify<geode::modifier::ModifyBase<geode::modifier::ModifyDerive<hook22<(anonymous namespace)::hook22Parent>, PlayerObject> > >(geode::modifier::ModifyBase<geode::modifier::ModifyDerive<hook22<(anonymous namespace)::hook22Parent>, PlayerObject> >&)::{lambda()#1}>, void ()>::target_type() const
FUNC ce018 44 0 geode::addresser::getVirtual<void (PlayerObject::*)(float)>(void (PlayerObject::*)(float))
FUNC ce060 108 0 geode::Hook::create<void (*)(hook22<(anonymous namespace)::hook22Parent>*, float)>(void*, void (*)(hook22<(anonymous namespace)::hook22Parent>*, float), std::__ndk1::basic_string<char, std::__ndk1::char_traits<char>, std::__ndk1::allocator<char> > const&, tulip::hook::TulipConvention, tulip::hook::HookMetadata const&)
FUNC ce168 36 0 geode::modifier::AsStaticFunction_update<hook22<(anonymous namespace)::hook22Parent>, void (hook22<(anonymous namespace)::hook22Parent>::*)(float)>::Impl<void (hook22<(anonymous namespace)::hook22Parent>::*)(float)>::function(hook22<(anonymous namespace)::hook22Parent>*, float)
FUNC ce19e 30 0 geode::modifier::AsStaticFunction_fadeOutStreak2<hook22<(anonymous namespace)::hook22Parent>, void (hook22<(anonymous namespace)::hook22Parent>::*)(float)>::Impl<void (hook22<(anonymous namespace)::hook22Parent>::*)(float)>::function(hook22<(anonymous namespace)::hook22Parent>*, float)
FUNC ce1d0 80 0 geode::modifier::AsStaticFunction_placeStreakPoint<hook22<(anonymous namespace)::hook22Parent>, void (hook22<(anonymous namespace)::hook22Parent>::*)()>::Impl<void (hook22<(anonymous namespace)::hook22Parent>::*)()>::function(hook22<(anonymous namespace)::hook22Parent>*)
FUNC ce250 6c 0 _ZN5geode9addresser9Addresser14cachedInstanceI12PlayerObjectEEPT_vQ18HasZeroConstructorIS4_E
FUNC ce2bc 24c 0 PlayerObject::PlayerObject(geode::ZeroConstructorType)
FUNC ce508 14 0 gd::map<int, bool>::~map()
FUNC ce51c 3a 0 geode::stl::unordered_map<int, GameObject*, geode::stl::hash<int>, geode::stl::equal_to<int>, std::__ndk1::allocator<std::__ndk1::pair<int const, GameObject*> > >::~unordered_map()
FUNC ce556 3a 0 geode::stl::unordered_map<int, GJPointDouble, geode::stl::hash<int>, geode::stl::equal_to<int>, std::__ndk1::allocator<std::__ndk1::pair<int const, GJPointDouble> > >::~unordered_map()
FUNC ce590 38 0 GameObject::~GameObject()
FUNC ce5c8 2c 0 gd::map<int, bool>::erase(geode::stl::_rb_tree_node<std::__ndk1::pair<int, bool> >*)
FUNC ce5f4 4a8 0 __cxx_global_var_init.33
FUNC cea9c 20 0 geode::modifier::ModifyBase<geode::modifier::ModifyDerive<hook9<(anonymous namespace)::hook9Parent>, EndLevelLayer> >::~ModifyBase()
FUNC ceabc 2d4 0 geode::modifier::ModifyDerive<hook9<(anonymous namespace)::hook9Parent>, EndLevelLayer>::apply()
FUNC ced90 2 0 geode::modifier::ModifyBase<geode::modifier::ModifyDerive<hook9<(anonymous namespace)::hook9Parent>, EndLevelLayer> >::apply()
FUNC ced94 60 0 hook9<(anonymous namespace)::hook9Parent>::onModify<geode::modifier::ModifyBase<geode::modifier::ModifyDerive<hook9<(anonymous namespace)::hook9Parent>, EndLevelLayer> > >(geode::modifier::ModifyBase<geode::modifier::ModifyDerive<hook9<(anonymous namespace)::hook9Parent>, EndLevelLayer> >&)::{lambda()#1}::~{lambda()#1}()
FUNC cedf4 6c 0 std::__ndk1::__function::__func<hook9<(anonymous namespace)::hook9Parent>::onModify<geode::modifier::ModifyBase<geode::modifier::ModifyDerive<hook9<(anonymous namespace)::hook9Parent>, EndLevelLayer> > >(geode::modifier::ModifyBase<geode::modifier::ModifyDerive<hook9<(anonymous namespace)::hook9Parent>, EndLevelLayer> >&)::{lambda()#1}, std::__ndk1::allocator<hook9<(anonymous namespace)::hook9Parent>::onModify<geode::modifier::ModifyBase<geode::modifier::ModifyDerive<hook9<(anonymous namespace)::hook9Parent>, EndLevelLayer> > >(geode::modifier::ModifyBase<geode::modifier::ModifyDerive<hook9<(anonymous namespace)::hook9Parent>, EndLevelLayer> >&)::{lambda()#1}>, void ()>::~__func()
FUNC cee60 6c 0 std::__ndk1::__function::__func<hook9<(anonymous namespace)::hook9Parent>::onModify<geode::modifier::ModifyBase<geode::modifier::ModifyDerive<hook9<(anonymous namespace)::hook9Parent>, EndLevelLayer> > >(geode::modifier::ModifyBase<geode::modifier::ModifyDerive<hook9<(anonymous namespace)::hook9Parent>, EndLevelLayer> >&)::{lambda()#1}, std::__ndk1::allocator<hook9<(anonymous namespace)::hook9Parent>::onModify<geode::modifier::ModifyBase<geode::modifier::ModifyDerive<hook9<(anonymous namespace)::hook9Parent>, EndLevelLayer> > >(geode::modifier::ModifyBase<geode::modifier::ModifyDerive<hook9<(anonymous namespace)::hook9Parent>, EndLevelLayer> >&)::{lambda()#1}>, void ()>::~__func()
FUNC ceecc 98 0 std::__ndk1::__function::__func<hook9<(anonymous namespace)::hook9Parent>::onModify<geode::modifier::ModifyBase<geode::modifier::ModifyDerive<hook9<(anonymous namespace)::hook9Parent>, EndLevelLayer> > >(geode::modifier::ModifyBase<geode::modifier::ModifyDerive<hook9<(anonymous namespace)::hook9Parent>, EndLevelLayer> >&)::{lambda()#1}, std::__ndk1::allocator<hook9<(anonymous namespace)::hook9Parent>::onModify<geode::modifier::ModifyBase<geode::modifier::ModifyDerive<hook9<(anonymous namespace)::hook9Parent>, EndLevelLayer> > >(geode::modifier::ModifyBase<geode::modifier::ModifyDerive<hook9<(anonymous namespace)::hook9Parent>, EndLevelLayer> >&)::{lambda()#1}>, void ()>::__clone() const
FUNC cef64 88 0 std::__ndk1::__function::__func<hook9<(anonymous namespace)::hook9Parent>::onModify<geode::modifier::ModifyBase<geode::modifier::ModifyDerive<hook9<(anonymous namespace)::hook9Parent>, EndLevelLayer> > >(geode::modifier::ModifyBase<geode::modifier::ModifyDerive<hook9<(anonymous namespace)::hook9Parent>, EndLevelLayer> >&)::{lambda()#1}, std::__ndk1::allocator<hook9<(anonymous namespace)::hook9Parent>::onModify<geode::modifier::ModifyBase<geode::modifier::ModifyDerive<hook9<(anonymous namespace)::hook9Parent>, EndLevelLayer> > >(geode::modifier::ModifyBase<geode::modifier::ModifyDerive<hook9<(anonymous namespace)::hook9Parent>, EndLevelLayer> >&)::{lambda()#1}>, void ()>::__clone(std::__ndk1::__function::__base<void ()>*) const
FUNC cefec 60 0 std::__ndk1::__function::__func<hook9<(anonymous namespace)::hook9Parent>::onModify<geode::modifier::ModifyBase<geode::modifier::ModifyDerive<hook9<(anonymous namespace)::hook9Parent>, EndLevelLayer> > >(geode::modifier::ModifyBase<geode::modifier::ModifyDerive<hook9<(anonymous namespace)::hook9Parent>, EndLevelLayer> >&)::{lambda()#1}, std::__ndk1::allocator<hook9<(anonymous namespace)::hook9Parent>::onModify<geode::modifier::ModifyBase<geode::modifier::ModifyDerive<hook9<(anonymous namespace)::hook9Parent>, EndLevelLayer> > >(geode::modifier::ModifyBase<geode::modifier::ModifyDerive<hook9<(anonymous namespace)::hook9Parent>, EndLevelLayer> >&)::{lambda()#1}>, void ()>::destroy()
FUNC cf04c 60 0 std::__ndk1::__function::__func<hook9<(anonymous namespace)::hook9Parent>::onModify<geode::modifier::ModifyBase<geode::modifier::ModifyDerive<hook9<(anonymous namespace)::hook9Parent>, EndLevelLayer> > >(geode::modifier::ModifyBase<geode::modifier::ModifyDerive<hook9<(anonymous namespace)::hook9Parent>, EndLevelLayer> >&)::{lambda()#1}, std::__ndk1::allocator<hook9<(anonymous namespace)::hook9Parent>::onModify<geode::modifier::ModifyBase<geode::modifier::ModifyDerive<hook9<(anonymous namespace)::hook9Parent>, EndLevelLayer> > >(geode::modifier::ModifyBase<geode::modifier::ModifyDerive<hook9<(anonymous namespace)::hook9Parent>, EndLevelLayer> >&)::{lambda()#1}>, void ()>::destroy_deallocate()
FUNC cf0ac f0 0 std::__ndk1::__function::__func<hook9<(anonymous namespace)::hook9Parent>::onModify<geode::modifier::ModifyBase<geode::modifier::ModifyDerive<hook9<(anonymous namespace)::hook9Parent>, EndLevelLayer> > >(geode::modifier::ModifyBase<geode::modifier::ModifyDerive<hook9<(anonymous namespace)::hook9Parent>, EndLevelLayer> >&)::{lambda()#1}, std::__ndk1::allocator<hook9<(anonymous namespace)::hook9Parent>::onModify<geode::modifier::ModifyBase<geode::modifier::ModifyDerive<hook9<(anonymous namespace)::hook9Parent>, EndLevelLayer> > >(geode::modifier::ModifyBase<geode::modifier::ModifyDerive<hook9<(anonymous namespace)::hook9Parent>, EndLevelLayer> >&)::{lambda()#1}>, void ()>::operator()()
FUNC cf19c 18 0 std::__ndk1::__function::__func<hook9<(anonymous namespace)::hook9Parent>::onModify<geode::modifier::ModifyBase<geode::modifier::ModifyDerive<hook9<(anonymous namespace)::hook9Parent>, EndLevelLayer> > >(geode::modifier::ModifyBase<geode::modifier::ModifyDerive<hook9<(anonymous namespace)::hook9Parent>, EndLevelLayer> >&)::{lambda()#1}, std::__ndk1::allocator<hook9<(anonymous namespace)::hook9Parent>::onModify<geode::modifier::ModifyBase<geode::modifier::ModifyDerive<hook9<(anonymous namespace)::hook9Parent>, EndLevelLayer> > >(geode::modifier::ModifyBase<geode::modifier::ModifyDerive<hook9<(anonymous namespace)::hook9Parent>, EndLevelLayer> >&)::{lambda()#1}>, void ()>::target(std::type_info const&) const
FUNC cf1b4 c 0 std::__ndk1::__function::__func<hook9<(anonymous namespace)::hook9Parent>::onModify<geode::modifier::ModifyBase<geode::modifier::ModifyDerive<hook9<(anonymous namespace)::hook9Parent>, EndLevelLayer> > >(geode::modifier::ModifyBase<geode::modifier::ModifyDerive<hook9<(anonymous namespace)::hook9Parent>, EndLevelLayer> >&)::{lambda()#1}, std::__ndk1::allocator<hook9<(anonymous namespace)::hook9Parent>::onModify<geode::modifier::ModifyBase<geode::modifier::ModifyDerive<hook9<(anonymous namespace)::hook9Parent>, EndLevelLayer> > >(geode::modifier::ModifyBase<geode::modifier::ModifyDerive<hook9<(anonymous namespace)::hook9Parent>, EndLevelLayer> >&)::{lambda()#1}>, void ()>::target_type() const
FUNC cf1c0 194 0 geode::modifier::AsStaticFunction_customSetup<hook9<(anonymous namespace)::hook9Parent>, void (hook9<(anonymous namespace)::hook9Parent>::*)()>::Impl<void (hook9<(anonymous namespace)::hook9Parent>::*)()>::function(hook9<(anonymous namespace)::hook9Parent>*)
FUNC cf354 4a8 0 __cxx_global_var_init.30
FUNC cf7fc 4a8 0 __cxx_global_var_init.31
FUNC cfca4 20 0 geode::modifier::ModifyBase<geode::modifier::ModifyDerive<hook9<(anonymous namespace)::hook9Parent>, FMODAudioEngine> >::~ModifyBase()
FUNC cfcc4 20 0 geode::modifier::ModifyBase<geode::modifier::ModifyDerive<hook17<(anonymous namespace)::hook17Parent>, MusicDownloadManager> >::~ModifyBase()
FUNC cfcf0 3a8 0 geode::modifier::ModifyDerive<hook9<(anonymous namespace)::hook9Parent>, FMODAudioEngine>::apply()
FUNC d0098 2 0 geode::modifier::ModifyBase<geode::modifier::ModifyDerive<hook9<(anonymous namespace)::hook9Parent>, FMODAudioEngine> >::apply()
FUNC d009c 60 0 hook9<(anonymous namespace)::hook9Parent>::onModify<geode::modifier::ModifyBase<geode::modifier::ModifyDerive<hook9<(anonymous namespace)::hook9Parent>, FMODAudioEngine> > >(geode::modifier::ModifyBase<geode::modifier::ModifyDerive<hook9<(anonymous namespace)::hook9Parent>, FMODAudioEngine> >&)::{lambda()#1}::~{lambda()#1}()
FUNC d00fc 6c 0 std::__ndk1::__function::__func<hook9<(anonymous namespace)::hook9Parent>::onModify<geode::modifier::ModifyBase<geode::modifier::ModifyDerive<hook9<(anonymous namespace)::hook9Parent>, FMODAudioEngine> > >(geode::modifier::ModifyBase<geode::modifier::ModifyDerive<hook9<(anonymous namespace)::hook9Parent>, FMODAudioEngine> >&)::{lambda()#1}, std::__ndk1::allocator<hook9<(anonymous namespace)::hook9Parent>::onModify<geode::modifier::ModifyBase<geode::modifier::ModifyDerive<hook9<(anonymous namespace)::hook9Parent>, FMODAudioEngine> > >(geode::modifier::ModifyBase<geode::modifier::ModifyDerive<hook9<(anonymous namespace)::hook9Parent>, FMODAudioEngine> >&)::{lambda()#1}>, void ()>::~__func()
FUNC d0168 6c 0 std::__ndk1::__function::__func<hook9<(anonymous namespace)::hook9Parent>::onModify<geode::modifier::ModifyBase<geode::modifier::ModifyDerive<hook9<(anonymous namespace)::hook9Parent>, FMODAudioEngine> > >(geode::modifier::ModifyBase<geode::modifier::ModifyDerive<hook9<(anonymous namespace)::hook9Parent>, FMODAudioEngine> >&)::{lambda()#1}, std::__ndk1::allocator<hook9<(anonymous namespace)::hook9Parent>::onModify<geode::modifier::ModifyBase<geode::modifier::ModifyDerive<hook9<(anonymous namespace)::hook9Parent>, FMODAudioEngine> > >(geode::modifier::ModifyBase<geode::modifier::ModifyDerive<hook9<(anonymous namespace)::hook9Parent>, FMODAudioEngine> >&)::{lambda()#1}>, void ()>::~__func()
FUNC d01d4 98 0 std::__ndk1::__function::__func<hook9<(anonymous namespace)::hook9Parent>::onModify<geode::modifier::ModifyBase<geode::modifier::ModifyDerive<hook9<(anonymous namespace)::hook9Parent>, FMODAudioEngine> > >(geode::modifier::ModifyBase<geode::modifier::ModifyDerive<hook9<(anonymous namespace)::hook9Parent>, FMODAudioEngine> >&)::{lambda()#1}, std::__ndk1::allocator<hook9<(anonymous namespace)::hook9Parent>::onModify<geode::modifier::ModifyBase<geode::modifier::ModifyDerive<hook9<(anonymous namespace)::hook9Parent>, FMODAudioEngine> > >(geode::modifier::ModifyBase<geode::modifier::ModifyDerive<hook9<(anonymous namespace)::hook9Parent>, FMODAudioEngine> >&)::{lambda()#1}>, void ()>::__clone() const
FUNC d026c 88 0 std::__ndk1::__function::__func<hook9<(anonymous namespace)::hook9Parent>::onModify<geode::modifier::ModifyBase<geode::modifier::ModifyDerive<hook9<(anonymous namespace)::hook9Parent>, FMODAudioEngine> > >(geode::modifier::ModifyBase<geode::modifier::ModifyDerive<hook9<(anonymous namespace)::hook9Parent>, FMODAudioEngine> >&)::{lambda()#1}, std::__ndk1::allocator<hook9<(anonymous namespace)::hook9Parent>::onModify<geode::modifier::ModifyBase<geode::modifier::ModifyDerive<hook9<(anonymous namespace)::hook9Parent>, FMODAudioEngine> > >(geode::modifier::ModifyBase<geode::modifier::ModifyDerive<hook9<(anonymous namespace)::hook9Parent>, FMODAudioEngine> >&)::{lambda()#1}>, void ()>::__clone(std::__ndk1::__function::__base<void ()>*) const
FUNC d02f4 60 0 std::__ndk1::__function::__func<hook9<(anonymous namespace)::hook9Parent>::onModify<geode::modifier::ModifyBase<geode::modifier::ModifyDerive<hook9<(anonymous namespace)::hook9Parent>, FMODAudioEngine> > >(geode::modifier::ModifyBase<geode::modifier::ModifyDerive<hook9<(anonymous namespace)::hook9Parent>, FMODAudioEngine> >&)::{lambda()#1}, std::__ndk1::allocator<hook9<(anonymous namespace)::hook9Parent>::onModify<geode::modifier::ModifyBase<geode::modifier::ModifyDerive<hook9<(anonymous namespace)::hook9Parent>, FMODAudioEngine> > >(geode::modifier::ModifyBase<geode::modifier::ModifyDerive<hook9<(anonymous namespace)::hook9Parent>, FMODAudioEngine> >&)::{lambda()#1}>, void ()>::destroy()
FUNC d0354 60 0 std::__ndk1::__function::__func<hook9<(anonymous namespace)::hook9Parent>::onModify<geode::modifier::ModifyBase<geode::modifier::ModifyDerive<hook9<(anonymous namespace)::hook9Parent>, FMODAudioEngine> > >(geode::modifier::ModifyBase<geode::modifier::ModifyDerive<hook9<(anonymous namespace)::hook9Parent>, FMODAudioEngine> >&)::{lambda()#1}, std::__ndk1::allocator<hook9<(anonymous namespace)::hook9Parent>::onModify<geode::modifier::ModifyBase<geode::modifier::ModifyDerive<hook9<(anonymous namespace)::hook9Parent>, FMODAudioEngine> > >(geode::modifier::ModifyBase<geode::modifier::ModifyDerive<hook9<(anonymous namespace)::hook9Parent>, FMODAudioEngine> >&)::{lambda()#1}>, void ()>::destroy_deallocate()
FUNC d03b4 e8 0 std::__ndk1::__function::__func<hook9<(anonymous namespace)::hook9Parent>::onModify<geode::modifier::ModifyBase<geode::modifier::ModifyDerive<hook9<(anonymous namespace)::hook9Parent>, FMODAudioEngine> > >(geode::modifier::ModifyBase<geode::modifier::ModifyDerive<hook9<(anonymous namespace)::hook9Parent>, FMODAudioEngine> >&)::{lambda()#1}, std::__ndk1::allocator<hook9<(anonymous namespace)::hook9Parent>::onModify<geode::modifier::ModifyBase<geode::modifier::ModifyDerive<hook9<(anonymous namespace)::hook9Parent>, FMODAudioEngine> > >(geode::modifier::ModifyBase<geode::modifier::ModifyDerive<hook9<(anonymous namespace)::hook9Parent>, FMODAudioEngine> >&)::{lambda()#1}>, void ()>::operator()()
FUNC d049c 18 0 std::__ndk1::__function::__func<hook9<(anonymous namespace)::hook9Parent>::onModify<geode::modifier::ModifyBase<geode::modifier::ModifyDerive<hook9<(anonymous namespace)::hook9Parent>, FMODAudioEngine> > >(geode::modifier::ModifyBase<geode::modifier::ModifyDerive<hook9<(anonymous namespace)::hook9Parent>, FMODAudioEngine> >&)::{lambda()#1}, std::__ndk1::allocator<hook9<(anonymous namespace)::hook9Parent>::onModify<geode::modifier::ModifyBase<geode::modifier::ModifyDerive<hook9<(anonymous namespace)::hook9Parent>, FMODAudioEngine> > >(geode::modifier::ModifyBase<geode::modifier::ModifyDerive<hook9<(anonymous namespace)::hook9Parent>, FMODAudioEngine> >&)::{lambda()#1}>, void ()>::target(std::type_info const&) const
FUNC d04b4 c 0 std::__ndk1::__function::__func<hook9<(anonymous namespace)::hook9Parent>::onModify<geode::modifier::ModifyBase<geode::modifier::ModifyDerive<hook9<(anonymous namespace)::hook9Parent>, FMODAudioEngine> > >(geode::modifier::ModifyBase<geode::modifier::ModifyDerive<hook9<(anonymous namespace)::hook9Parent>, FMODAudioEngine> >&)::{lambda()#1}, std::__ndk1::allocator<hook9<(anonymous namespace)::hook9Parent>::onModify<geode::modifier::ModifyBase<geode::modifier::ModifyDerive<hook9<(anonymous namespace)::hook9Parent>, FMODAudioEngine> > >(geode::modifier::ModifyBase<geode::modifier::ModifyDerive<hook9<(anonymous namespace)::hook9Parent>, FMODAudioEngine> >&)::{lambda()#1}>, void ()>::target_type() const
FUNC d04c0 84 0 geode::modifier::AsStaticFunction_playEffect<hook9<(anonymous namespace)::hook9Parent>, void (hook9<(anonymous namespace)::hook9Parent>::*)(gd::string, float, float, float)>::Impl<void (hook9<(anonymous namespace)::hook9Parent>::*)(gd::string, float, float, float)>::function(hook9<(anonymous namespace)::hook9Parent>*, gd::string, float, float, float)
FUNC d0550 310 0 geode::modifier::ModifyDerive<hook17<(anonymous namespace)::hook17Parent>, MusicDownloadManager>::apply()
FUNC d0860 2 0 geode::modifier::ModifyBase<geode::modifier::ModifyDerive<hook17<(anonymous namespace)::hook17Parent>, MusicDownloadManager> >::apply()
FUNC d0864 60 0 hook17<(anonymous namespace)::hook17Parent>::onModify<geode::modifier::ModifyBase<geode::modifier::ModifyDerive<hook17<(anonymous namespace)::hook17Parent>, MusicDownloadManager> > >(geode::modifier::ModifyBase<geode::modifier::ModifyDerive<hook17<(anonymous namespace)::hook17Parent>, MusicDownloadManager> >&)::{lambda()#1}::~{lambda()#1}()
FUNC d08c4 6c 0 std::__ndk1::__function::__func<hook17<(anonymous namespace)::hook17Parent>::onModify<geode::modifier::ModifyBase<geode::modifier::ModifyDerive<hook17<(anonymous namespace)::hook17Parent>, MusicDownloadManager> > >(geode::modifier::ModifyBase<geode::modifier::ModifyDerive<hook17<(anonymous namespace)::hook17Parent>, MusicDownloadManager> >&)::{lambda()#1}, std::__ndk1::allocator<hook17<(anonymous namespace)::hook17Parent>::onModify<geode::modifier::ModifyBase<geode::modifier::ModifyDerive<hook17<(anonymous namespace)::hook17Parent>, MusicDownloadManager> > >(geode::modifier::ModifyBase<geode::modifier::ModifyDerive<hook17<(anonymous namespace)::hook17Parent>, MusicDownloadManager> >&)::{lambda()#1}>, void ()>::~__func()
FUNC d0930 6c 0 std::__ndk1::__function::__func<hook17<(anonymous namespace)::hook17Parent>::onModify<geode::modifier::ModifyBase<geode::modifier::ModifyDerive<hook17<(anonymous namespace)::hook17Parent>, MusicDownloadManager> > >(geode::modifier::ModifyBase<geode::modifier::ModifyDerive<hook17<(anonymous namespace)::hook17Parent>, MusicDownloadManager> >&)::{lambda()#1}, std::__ndk1::allocator<hook17<(anonymous namespace)::hook17Parent>::onModify<geode::modifier::ModifyBase<geode::modifier::ModifyDerive<hook17<(anonymous namespace)::hook17Parent>, MusicDownloadManager> > >(geode::modifier::ModifyBase<geode::modifier::ModifyDerive<hook17<(anonymous namespace)::hook17Parent>, MusicDownloadManager> >&)::{lambda()#1}>, void ()>::~__func()
FUNC d099c 98 0 std::__ndk1::__function::__func<hook17<(anonymous namespace)::hook17Parent>::onModify<geode::modifier::ModifyBase<geode::modifier::ModifyDerive<hook17<(anonymous namespace)::hook17Parent>, MusicDownloadManager> > >(geode::modifier::ModifyBase<geode::modifier::ModifyDerive<hook17<(anonymous namespace)::hook17Parent>, MusicDownloadManager> >&)::{lambda()#1}, std::__ndk1::allocator<hook17<(anonymous namespace)::hook17Parent>::onModify<geode::modifier::ModifyBase<geode::modifier::ModifyDerive<hook17<(anonymous namespace)::hook17Parent>, MusicDownloadManager> > >(geode::modifier::ModifyBase<geode::modifier::ModifyDerive<hook17<(anonymous namespace)::hook17Parent>, MusicDownloadManager> >&)::{lambda()#1}>, void ()>::__clone() const
FUNC d0a34 88 0 std::__ndk1::__function::__func<hook17<(anonymous namespace)::hook17Parent>::onModify<geode::modifier::ModifyBase<geode::modifier::ModifyDerive<hook17<(anonymous namespace)::hook17Parent>, MusicDownloadManager> > >(geode::modifier::ModifyBase<geode::modifier::ModifyDerive<hook17<(anonymous namespace)::hook17Parent>, MusicDownloadManager> >&)::{lambda()#1}, std::__ndk1::allocator<hook17<(anonymous namespace)::hook17Parent>::onModify<geode::modifier::ModifyBase<geode::modifier::ModifyDerive<hook17<(anonymous namespace)::hook17Parent>, MusicDownloadManager> > >(geode::modifier::ModifyBase<geode::modifier::ModifyDerive<hook17<(anonymous namespace)::hook17Parent>, MusicDownloadManager> >&)::{lambda()#1}>, void ()>::__clone(std::__ndk1::__function::__base<void ()>*) const
FUNC d0abc 60 0 std::__ndk1::__function::__func<hook17<(anonymous namespace)::hook17Parent>::onModify<geode::modifier::ModifyBase<geode::modifier::ModifyDerive<hook17<(anonymous namespace)::hook17Parent>, MusicDownloadManager> > >(geode::modifier::ModifyBase<geode::modifier::ModifyDerive<hook17<(anonymous namespace)::hook17Parent>, MusicDownloadManager> >&)::{lambda()#1}, std::__ndk1::allocator<hook17<(anonymous namespace)::hook17Parent>::onModify<geode::modifier::ModifyBase<geode::modifier::ModifyDerive<hook17<(anonymous namespace)::hook17Parent>, MusicDownloadManager> > >(geode::modifier::ModifyBase<geode::modifier::ModifyDerive<hook17<(anonymous namespace)::hook17Parent>, MusicDownloadManager> >&)::{lambda()#1}>, void ()>::destroy()
FUNC d0b1c 60 0 std::__ndk1::__function::__func<hook17<(anonymous namespace)::hook17Parent>::onModify<geode::modifier::ModifyBase<geode::modifier::ModifyDerive<hook17<(anonymous namespace)::hook17Parent>, MusicDownloadManager> > >(geode::modifier::ModifyBase<geode::modifier::ModifyDerive<hook17<(anonymous namespace)::hook17Parent>, MusicDownloadManager> >&)::{lambda()#1}, std::__ndk1::allocator<hook17<(anonymous namespace)::hook17Parent>::onModify<geode::modifier::ModifyBase<geode::modifier::ModifyDerive<hook17<(anonymous namespace)::hook17Parent>, MusicDownloadManager> > >(geode::modifier::ModifyBase<geode::modifier::ModifyDerive<hook17<(anonymous namespace)::hook17Parent>, MusicDownloadManager> >&)::{lambda()#1}>, void ()>::destroy_deallocate()
FUNC d0b7c e8 0 std::__ndk1::__function::__func<hook17<(anonymous namespace)::hook17Parent>::onModify<geode::modifier::ModifyBase<geode::modifier::ModifyDerive<hook17<(anonymous namespace)::hook17Parent>, MusicDownloadManager> > >(geode::modifier::ModifyBase<geode::modifier::ModifyDerive<hook17<(anonymous namespace)::hook17Parent>, MusicDownloadManager> >&)::{lambda()#1}, std::__ndk1::allocator<hook17<(anonymous namespace)::hook17Parent>::onModify<geode::modifier::ModifyBase<geode::modifier::ModifyDerive<hook17<(anonymous namespace)::hook17Parent>, MusicDownloadManager> > >(geode::modifier::ModifyBase<geode::modifier::ModifyDerive<hook17<(anonymous namespace)::hook17Parent>, MusicDownloadManager> >&)::{lambda()#1}>, void ()>::operator()()
FUNC d0c64 18 0 std::__ndk1::__function::__func<hook17<(anonymous namespace)::hook17Parent>::onModify<geode::modifier::ModifyBase<geode::modifier::ModifyDerive<hook17<(anonymous namespace)::hook17Parent>, MusicDownloadManager> > >(geode::modifier::ModifyBase<geode::modifier::ModifyDerive<hook17<(anonymous namespace)::hook17Parent>, MusicDownloadManager> >&)::{lambda()#1}, std::__ndk1::allocator<hook17<(anonymous namespace)::hook17Parent>::onModify<geode::modifier::ModifyBase<geode::modifier::ModifyDerive<hook17<(anonymous namespace)::hook17Parent>, MusicDownloadManager> > >(geode::modifier::ModifyBase<geode::modifier::ModifyDerive<hook17<(anonymous namespace)::hook17Parent>, MusicDownloadManager> >&)::{lambda()#1}>, void ()>::target(std::type_info const&) const
FUNC d0c7c c 0 std::__ndk1::__function::__func<hook17<(anonymous namespace)::hook17Parent>::onModify<geode::modifier::ModifyBase<geode::modifier::ModifyDerive<hook17<(anonymous namespace)::hook17Parent>, MusicDownloadManager> > >(geode::modifier::ModifyBase<geode::modifier::ModifyDerive<hook17<(anonymous namespace)::hook17Parent>, MusicDownloadManager> >&)::{lambda()#1}, std::__ndk1::allocator<hook17<(anonymous namespace)::hook17Parent>::onModify<geode::modifier::ModifyBase<geode::modifier::ModifyDerive<hook17<(anonymous namespace)::hook17Parent>, MusicDownloadManager> > >(geode::modifier::ModifyBase<geode::modifier::ModifyDerive<hook17<(anonymous namespace)::hook17Parent>, MusicDownloadManager> >&)::{lambda()#1}>, void ()>::target_type() const
FUNC d0c88 14 0 geode::modifier::AsStaticFunction_pathForSFX<hook17<(anonymous namespace)::hook17Parent>, gd::string (hook17<(anonymous namespace)::hook17Parent>::*)(int)>::Impl<gd::string (hook17<(anonymous namespace)::hook17Parent>::*)(int)>::function(hook17<(anonymous namespace)::hook17Parent>*, int)
FUNC d0c9c 2d0 0 __cxx_global_var_init.30
FUNC d0f6c 20 0 geode::modifier::ModifyBase<geode::modifier::ModifyDerive<hook8<(anonymous namespace)::hook8Parent>, GJBaseGameLayer> >::~ModifyBase()
FUNC d0f8c 2cc 0 geode::modifier::ModifyDerive<hook8<(anonymous namespace)::hook8Parent>, GJBaseGameLayer>::apply()
FUNC d1258 2 0 geode::modifier::ModifyBase<geode::modifier::ModifyDerive<hook8<(anonymous namespace)::hook8Parent>, GJBaseGameLayer> >::apply()
FUNC d125a 44 0 geode::addresser::getVirtual<void (GJBaseGameLayer::*)()>(void (GJBaseGameLayer::*)())
FUNC d12a0 138 0 geode::modifier::AsStaticFunction_updateDebugDraw<hook8<(anonymous namespace)::hook8Parent>, void (hook8<(anonymous namespace)::hook8Parent>::*)()>::Impl<void (hook8<(anonymous namespace)::hook8Parent>::*)()>::function(hook8<(anonymous namespace)::hook8Parent>*)
FUNC d13d8 16 0 geode::cocos::CCArrayExt<GameObject*, GameObject>::~CCArrayExt()
FUNC d13f0 2d0 0 __cxx_global_var_init.30
FUNC d16c0 20 0 geode::modifier::ModifyBase<geode::modifier::ModifyDerive<hook8<(anonymous namespace)::hook8Parent>, PlayerObject> >::~ModifyBase()
FUNC d16e0 320 0 geode::modifier::ModifyDerive<hook8<(anonymous namespace)::hook8Parent>, PlayerObject>::apply()
FUNC d1a00 2 0 geode::modifier::ModifyBase<geode::modifier::ModifyDerive<hook8<(anonymous namespace)::hook8Parent>, PlayerObject> >::apply()
FUNC d1a04 48 0 geode::modifier::AsStaticFunction_toggleGhostEffect<hook8<(anonymous namespace)::hook8Parent>, void (hook8<(anonymous namespace)::hook8Parent>::*)(GhostType)>::Impl<void (hook8<(anonymous namespace)::hook8Parent>::*)(GhostType)>::function(hook8<(anonymous namespace)::hook8Parent>*, GhostType)
FUNC d1a4c 4a8 0 __cxx_global_var_init.30
FUNC d1ef4 20 0 geode::modifier::ModifyBase<geode::modifier::ModifyDerive<hook8<(anonymous namespace)::hook8Parent>, PlayLayer> >::~ModifyBase()
FUNC d1f20 350 0 geode::modifier::ModifyDerive<hook8<(anonymous namespace)::hook8Parent>, PlayLayer>::apply()
FUNC d2270 2 0 geode::modifier::ModifyBase<geode::modifier::ModifyDerive<hook8<(anonymous namespace)::hook8Parent>, PlayLayer> >::apply()
FUNC d2274 60 0 hook8<(anonymous namespace)::hook8Parent>::onModify<geode::modifier::ModifyBase<geode::modifier::ModifyDerive<hook8<(anonymous namespace)::hook8Parent>, PlayLayer> > >(geode::modifier::ModifyBase<geode::modifier::ModifyDerive<hook8<(anonymous namespace)::hook8Parent>, PlayLayer> >&)::{lambda()#1}::~{lambda()#1}()
FUNC d22d4 6c 0 std::__ndk1::__function::__func<hook8<(anonymous namespace)::hook8Parent>::onModify<geode::modifier::ModifyBase<geode::modifier::ModifyDerive<hook8<(anonymous namespace)::hook8Parent>, PlayLayer> > >(geode::modifier::ModifyBase<geode::modifier::ModifyDerive<hook8<(anonymous namespace)::hook8Parent>, PlayLayer> >&)::{lambda()#1}, std::__ndk1::allocator<hook8<(anonymous namespace)::hook8Parent>::onModify<geode::modifier::ModifyBase<geode::modifier::ModifyDerive<hook8<(anonymous namespace)::hook8Parent>, PlayLayer> > >(geode::modifier::ModifyBase<geode::modifier::ModifyDerive<hook8<(anonymous namespace)::hook8Parent>, PlayLayer> >&)::{lambda()#1}>, void ()>::~__func()
FUNC d2340 6c 0 std::__ndk1::__function::__func<hook8<(anonymous namespace)::hook8Parent>::onModify<geode::modifier::ModifyBase<geode::modifier::ModifyDerive<hook8<(anonymous namespace)::hook8Parent>, PlayLayer> > >(geode::modifier::ModifyBase<geode::modifier::ModifyDerive<hook8<(anonymous namespace)::hook8Parent>, PlayLayer> >&)::{lambda()#1}, std::__ndk1::allocator<hook8<(anonymous namespace)::hook8Parent>::onModify<geode::modifier::ModifyBase<geode::modifier::ModifyDerive<hook8<(anonymous namespace)::hook8Parent>, PlayLayer> > >(geode::modifier::ModifyBase<geode::modifier::ModifyDerive<hook8<(anonymous namespace)::hook8Parent>, PlayLayer> >&)::{lambda()#1}>, void ()>::~__func()
FUNC d23ac 98 0 std::__ndk1::__function::__func<hook8<(anonymous namespace)::hook8Parent>::onModify<geode::modifier::ModifyBase<geode::modifier::ModifyDerive<hook8<(anonymous namespace)::hook8Parent>, PlayLayer> > >(geode::modifier::ModifyBase<geode::modifier::ModifyDerive<hook8<(anonymous namespace)::hook8Parent>, PlayLayer> >&)::{lambda()#1}, std::__ndk1::allocator<hook8<(anonymous namespace)::hook8Parent>::onModify<geode::modifier::ModifyBase<geode::modifier::ModifyDerive<hook8<(anonymous namespace)::hook8Parent>, PlayLayer> > >(geode::modifier::ModifyBase<geode::modifier::ModifyDerive<hook8<(anonymous namespace)::hook8Parent>, PlayLayer> >&)::{lambda()#1}>, void ()>::__clone() const
FUNC d2444 88 0 std::__ndk1::__function::__func<hook8<(anonymous namespace)::hook8Parent>::onModify<geode::modifier::ModifyBase<geode::modifier::ModifyDerive<hook8<(anonymous namespace)::hook8Parent>, PlayLayer> > >(geode::modifier::ModifyBase<geode::modifier::ModifyDerive<hook8<(anonymous namespace)::hook8Parent>, PlayLayer> >&)::{lambda()#1}, std::__ndk1::allocator<hook8<(anonymous namespace)::hook8Parent>::onModify<geode::modifier::ModifyBase<geode::modifier::ModifyDerive<hook8<(anonymous namespace)::hook8Parent>, PlayLayer> > >(geode::modifier::ModifyBase<geode::modifier::ModifyDerive<hook8<(anonymous namespace)::hook8Parent>, PlayLayer> >&)::{lambda()#1}>, void ()>::__clone(std::__ndk1::__function::__base<void ()>*) const
FUNC d24cc 60 0 std::__ndk1::__function::__func<hook8<(anonymous namespace)::hook8Parent>::onModify<geode::modifier::ModifyBase<geode::modifier::ModifyDerive<hook8<(anonymous namespace)::hook8Parent>, PlayLayer> > >(geode::modifier::ModifyBase<geode::modifier::ModifyDerive<hook8<(anonymous namespace)::hook8Parent>, PlayLayer> >&)::{lambda()#1}, std::__ndk1::allocator<hook8<(anonymous namespace)::hook8Parent>::onModify<geode::modifier::ModifyBase<geode::modifier::ModifyDerive<hook8<(anonymous namespace)::hook8Parent>, PlayLayer> > >(geode::modifier::ModifyBase<geode::modifier::ModifyDerive<hook8<(anonymous namespace)::hook8Parent>, PlayLayer> >&)::{lambda()#1}>, void ()>::destroy()
FUNC d252c 60 0 std::__ndk1::__function::__func<hook8<(anonymous namespace)::hook8Parent>::onModify<geode::modifier::ModifyBase<geode::modifier::ModifyDerive<hook8<(anonymous namespace)::hook8Parent>, PlayLayer> > >(geode::modifier::ModifyBase<geode::modifier::ModifyDerive<hook8<(anonymous namespace)::hook8Parent>, PlayLayer> >&)::{lambda()#1}, std::__ndk1::allocator<hook8<(anonymous namespace)::hook8Parent>::onModify<geode::modifier::ModifyBase<geode::modifier::ModifyDerive<hook8<(anonymous namespace)::hook8Parent>, PlayLayer> > >(geode::modifier::ModifyBase<geode::modifier::ModifyDerive<hook8<(anonymous namespace)::hook8Parent>, PlayLayer> >&)::{lambda()#1}>, void ()>::destroy_deallocate()
FUNC d258c d8 0 std::__ndk1::__function::__func<hook8<(anonymous namespace)::hook8Parent>::onModify<geode::modifier::ModifyBase<geode::modifier::ModifyDerive<hook8<(anonymous namespace)::hook8Parent>, PlayLayer> > >(geode::modifier::ModifyBase<geode::modifier::ModifyDerive<hook8<(anonymous namespace)::hook8Parent>, PlayLayer> >&)::{lambda()#1}, std::__ndk1::allocator<hook8<(anonymous namespace)::hook8Parent>::onModify<geode::modifier::ModifyBase<geode::modifier::ModifyDerive<hook8<(anonymous namespace)::hook8Parent>, PlayLayer> > >(geode::modifier::ModifyBase<geode::modifier::ModifyDerive<hook8<(anonymous namespace)::hook8Parent>, PlayLayer> >&)::{lambda()#1}>, void ()>::operator()()
FUNC d2664 18 0 std::__ndk1::__function::__func<hook8<(anonymous namespace)::hook8Parent>::onModify<geode::modifier::ModifyBase<geode::modifier::ModifyDerive<hook8<(anonymous namespace)::hook8Parent>, PlayLayer> > >(geode::modifier::ModifyBase<geode::modifier::ModifyDerive<hook8<(anonymous namespace)::hook8Parent>, PlayLayer> >&)::{lambda()#1}, std::__ndk1::allocator<hook8<(anonymous namespace)::hook8Parent>::onModify<geode::modifier::ModifyBase<geode::modifier::ModifyDerive<hook8<(anonymous namespace)::hook8Parent>, PlayLayer> > >(geode::modifier::ModifyBase<geode::modifier::ModifyDerive<hook8<(anonymous namespace)::hook8Parent>, PlayLayer> >&)::{lambda()#1}>, void ()>::target(std::type_info const&) const
FUNC d267c c 0 std::__ndk1::__function::__func<hook8<(anonymous namespace)::hook8Parent>::onModify<geode::modifier::ModifyBase<geode::modifier::ModifyDerive<hook8<(anonymous namespace)::hook8Parent>, PlayLayer> > >(geode::modifier::ModifyBase<geode::modifier::ModifyDerive<hook8<(anonymous namespace)::hook8Parent>, PlayLayer> >&)::{lambda()#1}, std::__ndk1::allocator<hook8<(anonymous namespace)::hook8Parent>::onModify<geode::modifier::ModifyBase<geode::modifier::ModifyDerive<hook8<(anonymous namespace)::hook8Parent>, PlayLayer> > >(geode::modifier::ModifyBase<geode::modifier::ModifyDerive<hook8<(anonymous namespace)::hook8Parent>, PlayLayer> >&)::{lambda()#1}>, void ()>::target_type() const
FUNC d2688 38 0 geode::modifier::AsStaticFunction_init<hook8<(anonymous namespace)::hook8Parent>, bool (hook8<(anonymous namespace)::hook8Parent>::*)(GJGameLevel*, bool, bool)>::Impl<bool (hook8<(anonymous namespace)::hook8Parent>::*)(GJGameLevel*, bool, bool)>::function(hook8<(anonymous namespace)::hook8Parent>*, GJGameLevel*, bool, bool)
FUNC d26c0 2d0 0 __cxx_global_var_init.30
FUNC d2990 20 0 geode::modifier::ModifyBase<geode::modifier::ModifyDerive<hook11<(anonymous namespace)::hook11Parent>, cocos2d::CCMotionStreak> >::~ModifyBase()
FUNC d29b0 30c 0 geode::modifier::ModifyDerive<hook11<(anonymous namespace)::hook11Parent>, cocos2d::CCMotionStreak>::apply()
FUNC d2cbc 2 0 geode::modifier::ModifyBase<geode::modifier::ModifyDerive<hook11<(anonymous namespace)::hook11Parent>, cocos2d::CCMotionStreak> >::apply()
FUNC d2cbe 44 0 geode::addresser::getVirtual<void (cocos2d::CCMotionStreak::*)(float)>(void (cocos2d::CCMotionStreak::*)(float))
FUNC d2d04 44 0 geode::modifier::AsStaticFunction_update<hook11<(anonymous namespace)::hook11Parent>, void (hook11<(anonymous namespace)::hook11Parent>::*)(float)>::Impl<void (hook11<(anonymous namespace)::hook11Parent>::*)(float)>::function(hook11<(anonymous namespace)::hook11Parent>*, float)
FUNC d2d48 6c 0 _ZN5geode9addresser9Addresser14cachedInstanceIN7cocos2d14CCMotionStreakEEEPT_vQ18HasZeroConstructorIS5_E
FUNC d2db4 50 0 cocos2d::CCMotionStreak::CCMotionStreak(geode::ZeroConstructorType)
FUNC d2e04 128 0 geode::modifier::FieldIntermediate<SteppedBaseGameLayer, GJBaseGameLayer>::self()
FUNC d2f2c 16 0 geode::Ref<CheckpointObject>::~Ref()
FUNC d2f44 224 0 SteppedUILayer::updateUI()
FUNC d3168 e8 0 SteppedBaseGameLayer::restoreState()
FUNC d3250 10c 0 SteppedBaseGameLayer::stepFrame()
FUNC d335c 40 0 SteppedUILayer::onTogglePaused(cocos2d::CCObject*)
FUNC d339c 22 0 SteppedUILayer::onPreviousFrame(cocos2d::CCObject*)
FUNC d33be 22 0 SteppedUILayer::onStepFrame(cocos2d::CCObject*)
FUNC d33e0 584 0 __cxx_global_var_init.42
FUNC d3964 20 0 geode::modifier::ModifyBase<geode::modifier::ModifyDerive<SteppedBaseGameLayer, GJBaseGameLayer> >::~ModifyBase()
FUNC d3984 2f4 0 __cxx_global_var_init.43
FUNC d3c78 20 0 geode::modifier::ModifyBase<geode::modifier::ModifyDerive<SteppedUILayer, UILayer> >::~ModifyBase()
FUNC d3c98 584 0 __cxx_global_var_init.44
FUNC d421c 20 0 geode::modifier::ModifyBase<geode::modifier::ModifyDerive<SteppedKeyboardDispatcher, cocos2d::CCKeyboardDispatcher> >::~ModifyBase()
FUNC d423c 44 0 geode::modifier::FieldIntermediate<SteppedBaseGameLayer, GJBaseGameLayer>::fieldDestructor(void*)
FUNC d4280 10 0 std::__ndk1::vector<geode::Ref<CheckpointObject>, std::__ndk1::allocator<geode::Ref<CheckpointObject> > >::__throw_length_error[abi:ne180000]() const
FUNC d4290 11c 0 geode::modifier::FieldIntermediate<SteppedUILayer, UILayer>::self()
FUNC d43ac 2 0 geode::modifier::FieldIntermediate<SteppedUILayer, UILayer>::fieldDestructor(void*)
FUNC d43b0 594 0 geode::modifier::ModifyDerive<SteppedBaseGameLayer, GJBaseGameLayer>::apply()
FUNC d4944 2 0 geode::modifier::ModifyBase<geode::modifier::ModifyDerive<SteppedBaseGameLayer, GJBaseGameLayer> >::apply()
FUNC d4948 2c 0 std::__ndk1::__function::__func<SteppedBaseGameLayer::onModify<geode::modifier::ModifyBase<geode::modifier::ModifyDerive<SteppedBaseGameLayer, GJBaseGameLayer> > >(geode::modifier::ModifyBase<geode::modifier::ModifyDerive<SteppedBaseGameLayer, GJBaseGameLayer> >&)::{lambda()#1}, std::__ndk1::allocator<SteppedBaseGameLayer::onModify<geode::modifier::ModifyBase<geode::modifier::ModifyDerive<SteppedBaseGameLayer, GJBaseGameLayer> > >(geode::modifier::ModifyBase<geode::modifier::ModifyDerive<SteppedBaseGameLayer, GJBaseGameLayer> >&)::{lambda()#1}>, void ()>::~__func()
FUNC d4974 30 0 std::__ndk1::__function::__func<SteppedBaseGameLayer::onModify<geode::modifier::ModifyBase<geode::modifier::ModifyDerive<SteppedBaseGameLayer, GJBaseGameLayer> > >(geode::modifier::ModifyBase<geode::modifier::ModifyDerive<SteppedBaseGameLayer, GJBaseGameLayer> >&)::{lambda()#1}, std::__ndk1::allocator<SteppedBaseGameLayer::onModify<geode::modifier::ModifyBase<geode::modifier::ModifyDerive<SteppedBaseGameLayer, GJBaseGameLayer> > >(geode::modifier::ModifyBase<geode::modifier::ModifyDerive<SteppedBaseGameLayer, GJBaseGameLayer> >&)::{lambda()#1}>, void ()>::~__func()
FUNC d49a4 7c 0 std::__ndk1::__function::__func<SteppedBaseGameLayer::onModify<geode::modifier::ModifyBase<geode::modifier::ModifyDerive<SteppedBaseGameLayer, GJBaseGameLayer> > >(geode::modifier::ModifyBase<geode::modifier::ModifyDerive<SteppedBaseGameLayer, GJBaseGameLayer> >&)::{lambda()#1}, std::__ndk1::allocator<SteppedBaseGameLayer::onModify<geode::modifier::ModifyBase<geode::modifier::ModifyDerive<SteppedBaseGameLayer, GJBaseGameLayer> > >(geode::modifier::ModifyBase<geode::modifier::ModifyDerive<SteppedBaseGameLayer, GJBaseGameLayer> >&)::{lambda()#1}>, void ()>::__clone() const
FUNC d4a20 70 0 std::__ndk1::__function::__func<SteppedBaseGameLayer::onModify<geode::modifier::ModifyBase<geode::modifier::ModifyDerive<SteppedBaseGameLayer, GJBaseGameLayer> > >(geode::modifier::ModifyBase<geode::modifier::ModifyDerive<SteppedBaseGameLayer, GJBaseGameLayer> >&)::{lambda()#1}, std::__ndk1::allocator<SteppedBaseGameLayer::onModify<geode::modifier::ModifyBase<geode::modifier::ModifyDerive<SteppedBaseGameLayer, GJBaseGameLayer> > >(geode::modifier::ModifyBase<geode::modifier::ModifyDerive<SteppedBaseGameLayer, GJBaseGameLayer> >&)::{lambda()#1}>, void ()>::__clone(std::__ndk1::__function::__base<void ()>*) const
FUNC d4a90 10 0 std::__ndk1::__function::__func<SteppedBaseGameLayer::onModify<geode::modifier::ModifyBase<geode::modifier::ModifyDerive<SteppedBaseGameLayer, GJBaseGameLayer> > >(geode::modifier::ModifyBase<geode::modifier::ModifyDerive<SteppedBaseGameLayer, GJBaseGameLayer> >&)::{lambda()#1}, std::__ndk1::allocator<SteppedBaseGameLayer::onModify<geode::modifier::ModifyBase<geode::modifier::ModifyDerive<SteppedBaseGameLayer, GJBaseGameLayer> > >(geode::modifier::ModifyBase<geode::modifier::ModifyDerive<SteppedBaseGameLayer, GJBaseGameLayer> >&)::{lambda()#1}>, void ()>::destroy()
FUNC d4aa0 22 0 std::__ndk1::__function::__func<SteppedBaseGameLayer::onModify<geode::modifier::ModifyBase<geode::modifier::ModifyDerive<SteppedBaseGameLayer, GJBaseGameLayer> > >(geode::modifier::ModifyBase<geode::modifier::ModifyDerive<SteppedBaseGameLayer, GJBaseGameLayer> >&)::{lambda()#1}, std::__ndk1::allocator<SteppedBaseGameLayer::onModify<geode::modifier::ModifyBase<geode::modifier::ModifyDerive<SteppedBaseGameLayer, GJBaseGameLayer> > >(geode::modifier::ModifyBase<geode::modifier::ModifyDerive<SteppedBaseGameLayer, GJBaseGameLayer> >&)::{lambda()#1}>, void ()>::destroy_deallocate()
FUNC d4ac4 94 0 std::__ndk1::__function::__func<SteppedBaseGameLayer::onModify<geode::modifier::ModifyBase<geode::modifier::ModifyDerive<SteppedBaseGameLayer, GJBaseGameLayer> > >(geode::modifier::ModifyBase<geode::modifier::ModifyDerive<SteppedBaseGameLayer, GJBaseGameLayer> >&)::{lambda()#1}, std::__ndk1::allocator<SteppedBaseGameLayer::onModify<geode::modifier::ModifyBase<geode::modifier::ModifyDerive<SteppedBaseGameLayer, GJBaseGameLayer> > >(geode::modifier::ModifyBase<geode::modifier::ModifyDerive<SteppedBaseGameLayer, GJBaseGameLayer> >&)::{lambda()#1}>, void ()>::operator()()
FUNC d4b58 18 0 std::__ndk1::__function::__func<SteppedBaseGameLayer::onModify<geode::modifier::ModifyBase<geode::modifier::ModifyDerive<SteppedBaseGameLayer, GJBaseGameLayer> > >(geode::modifier::ModifyBase<geode::modifier::ModifyDerive<SteppedBaseGameLayer, GJBaseGameLayer> >&)::{lambda()#1}, std::__ndk1::allocator<SteppedBaseGameLayer::onModify<geode::modifier::ModifyBase<geode::modifier::ModifyDerive<SteppedBaseGameLayer, GJBaseGameLayer> > >(geode::modifier::ModifyBase<geode::modifier::ModifyDerive<SteppedBaseGameLayer, GJBaseGameLayer> >&)::{lambda()#1}>, void ()>::target(std::type_info const&) const
FUNC d4b70 c 0 std::__ndk1::__function::__func<SteppedBaseGameLayer::onModify<geode::modifier::ModifyBase<geode::modifier::ModifyDerive<SteppedBaseGameLayer, GJBaseGameLayer> > >(geode::modifier::ModifyBase<geode::modifier::ModifyDerive<SteppedBaseGameLayer, GJBaseGameLayer> >&)::{lambda()#1}, std::__ndk1::allocator<SteppedBaseGameLayer::onModify<geode::modifier::ModifyBase<geode::modifier::ModifyDerive<SteppedBaseGameLayer, GJBaseGameLayer> > >(geode::modifier::ModifyBase<geode::modifier::ModifyDerive<SteppedBaseGameLayer, GJBaseGameLayer> >&)::{lambda()#1}>, void ()>::target_type() const
FUNC d4b7c 3e 0 geode::modifier::AsStaticFunction_update<SteppedBaseGameLayer, void (SteppedBaseGameLayer::*)(float)>::Impl<void (SteppedBaseGameLayer::*)(float)>::function(SteppedBaseGameLayer*, float)
FUNC d4bbc 240 0 geode::modifier::AsStaticFunction_checkRepellPlayer<SteppedBaseGameLayer, void (SteppedBaseGameLayer::*)()>::Impl<void (SteppedBaseGameLayer::*)()>::function(SteppedBaseGameLayer*)
FUNC d4e00 310 0 geode::modifier::ModifyDerive<SteppedUILayer, UILayer>::apply()
FUNC d5110 2 0 geode::modifier::ModifyBase<geode::modifier::ModifyDerive<SteppedUILayer, UILayer> >::apply()
FUNC d5114 260 0 geode::modifier::AsStaticFunction_init<SteppedUILayer, bool (SteppedUILayer::*)(GJBaseGameLayer*)>::Impl<bool (SteppedUILayer::*)(GJBaseGameLayer*)>::function(SteppedUILayer*, GJBaseGameLayer*)
FUNC d5380 370 0 geode::modifier::ModifyDerive<SteppedKeyboardDispatcher, cocos2d::CCKeyboardDispatcher>::apply()
FUNC d56f0 2 0 geode::modifier::ModifyBase<geode::modifier::ModifyDerive<SteppedKeyboardDispatcher, cocos2d::CCKeyboardDispatcher> >::apply()
FUNC d56f4 2c 0 std::__ndk1::__function::__func<SteppedKeyboardDispatcher::onModify<geode::modifier::ModifyBase<geode::modifier::ModifyDerive<SteppedKeyboardDispatcher, cocos2d::CCKeyboardDispatcher> > >(geode::modifier::ModifyBase<geode::modifier::ModifyDerive<SteppedKeyboardDispatcher, cocos2d::CCKeyboardDispatcher> >&)::{lambda()#1}, std::__ndk1::allocator<SteppedKeyboardDispatcher::onModify<geode::modifier::ModifyBase<geode::modifier::ModifyDerive<SteppedKeyboardDispatcher, cocos2d::CCKeyboardDispatcher> > >(geode::modifier::ModifyBase<geode::modifier::ModifyDerive<SteppedKeyboardDispatcher, cocos2d::CCKeyboardDispatcher> >&)::{lambda()#1}>, void ()>::~__func()
FUNC d5720 30 0 std::__ndk1::__function::__func<SteppedKeyboardDispatcher::onModify<geode::modifier::ModifyBase<geode::modifier::ModifyDerive<SteppedKeyboardDispatcher, cocos2d::CCKeyboardDispatcher> > >(geode::modifier::ModifyBase<geode::modifier::ModifyDerive<SteppedKeyboardDispatcher, cocos2d::CCKeyboardDispatcher> >&)::{lambda()#1}, std::__ndk1::allocator<SteppedKeyboardDispatcher::onModify<geode::modifier::ModifyBase<geode::modifier::ModifyDerive<SteppedKeyboardDispatcher, cocos2d::CCKeyboardDispatcher> > >(geode::modifier::ModifyBase<geode::modifier::ModifyDerive<SteppedKeyboardDispatcher, cocos2d::CCKeyboardDispatcher> >&)::{lambda()#1}>, void ()>::~__func()
FUNC d5750 7c 0 std::__ndk1::__function::__func<SteppedKeyboardDispatcher::onModify<geode::modifier::ModifyBase<geode::modifier::ModifyDerive<SteppedKeyboardDispatcher, cocos2d::CCKeyboardDispatcher> > >(geode::modifier::ModifyBase<geode::modifier::ModifyDerive<SteppedKeyboardDispatcher, cocos2d::CCKeyboardDispatcher> >&)::{lambda()#1}, std::__ndk1::allocator<SteppedKeyboardDispatcher::onModify<geode::modifier::ModifyBase<geode::modifier::ModifyDerive<SteppedKeyboardDispatcher, cocos2d::CCKeyboardDispatcher> > >(geode::modifier::ModifyBase<geode::modifier::ModifyDerive<SteppedKeyboardDispatcher, cocos2d::CCKeyboardDispatcher> >&)::{lambda()#1}>, void ()>::__clone() const
FUNC d57cc 70 0 std::__ndk1::__function::__func<SteppedKeyboardDispatcher::onModify<geode::modifier::ModifyBase<geode::modifier::ModifyDerive<SteppedKeyboardDispatcher, cocos2d::CCKeyboardDispatcher> > >(geode::modifier::ModifyBase<geode::modifier::ModifyDerive<SteppedKeyboardDispatcher, cocos2d::CCKeyboardDispatcher> >&)::{lambda()#1}, std::__ndk1::allocator<SteppedKeyboardDispatcher::onModify<geode::modifier::ModifyBase<geode::modifier::ModifyDerive<SteppedKeyboardDispatcher, cocos2d::CCKeyboardDispatcher> > >(geode::modifier::ModifyBase<geode::modifier::ModifyDerive<SteppedKeyboardDispatcher, cocos2d::CCKeyboardDispatcher> >&)::{lambda()#1}>, void ()>::__clone(std::__ndk1::__function::__base<void ()>*) const
FUNC d583c 10 0 std::__ndk1::__function::__func<SteppedKeyboardDispatcher::onModify<geode::modifier::ModifyBase<geode::modifier::ModifyDerive<SteppedKeyboardDispatcher, cocos2d::CCKeyboardDispatcher> > >(geode::modifier::ModifyBase<geode::modifier::ModifyDerive<SteppedKeyboardDispatcher, cocos2d::CCKeyboardDispatcher> >&)::{lambda()#1}, std::__ndk1::allocator<SteppedKeyboardDispatcher::onModify<geode::modifier::ModifyBase<geode::modifier::ModifyDerive<SteppedKeyboardDispatcher, cocos2d::CCKeyboardDispatcher> > >(geode::modifier::ModifyBase<geode::modifier::ModifyDerive<SteppedKeyboardDispatcher, cocos2d::CCKeyboardDispatcher> >&)::{lambda()#1}>, void ()>::destroy()
FUNC d584c 22 0 std::__ndk1::__function::__func<SteppedKeyboardDispatcher::onModify<geode::modifier::ModifyBase<geode::modifier::ModifyDerive<SteppedKeyboardDispatcher, cocos2d::CCKeyboardDispatcher> > >(geode::modifier::ModifyBase<geode::modifier::ModifyDerive<SteppedKeyboardDispatcher, cocos2d::CCKeyboardDispatcher> >&)::{lambda()#1}, std::__ndk1::allocator<SteppedKeyboardDispatcher::onModify<geode::modifier::ModifyBase<geode::modifier::ModifyDerive<SteppedKeyboardDispatcher, cocos2d::CCKeyboardDispatcher> > >(geode::modifier::ModifyBase<geode::modifier::ModifyDerive<SteppedKeyboardDispatcher, cocos2d::CCKeyboardDispatcher> >&)::{lambda()#1}>, void ()>::destroy_deallocate()
FUNC d5870 94 0 std::__ndk1::__function::__func<SteppedKeyboardDispatcher::onModify<geode::modifier::ModifyBase<geode::modifier::ModifyDerive<SteppedKeyboardDispatcher, cocos2d::CCKeyboardDispatcher> > >(geode::modifier::ModifyBase<geode::modifier::ModifyDerive<SteppedKeyboardDispatcher, cocos2d::CCKeyboardDispatcher> >&)::{lambda()#1}, std::__ndk1::allocator<SteppedKeyboardDispatcher::onModify<geode::modifier::ModifyBase<geode::modifier::ModifyDerive<SteppedKeyboardDispatcher, cocos2d::CCKeyboardDispatcher> > >(geode::modifier::ModifyBase<geode::modifier::ModifyDerive<SteppedKeyboardDispatcher, cocos2d::CCKeyboardDispatcher> >&)::{lambda()#1}>, void ()>::operator()()
FUNC d5904 18 0 std::__ndk1::__function::__func<SteppedKeyboardDispatcher::onModify<geode::modifier::ModifyBase<geode::modifier::ModifyDerive<SteppedKeyboardDispatcher, cocos2d::CCKeyboardDispatcher> > >(geode::modifier::ModifyBase<geode::modifier::ModifyDerive<SteppedKeyboardDispatcher, cocos2d::CCKeyboardDispatcher> >&)::{lambda()#1}, std::__ndk1::allocator<SteppedKeyboardDispatcher::onModify<geode::modifier::ModifyBase<geode::modifier::ModifyDerive<SteppedKeyboardDispatcher, cocos2d::CCKeyboardDispatcher> > >(geode::modifier::ModifyBase<geode::modifier::ModifyDerive<SteppedKeyboardDispatcher, cocos2d::CCKeyboardDispatcher> >&)::{lambda()#1}>, void ()>::target(std::type_info const&) const
FUNC d591c c 0 std::__ndk1::__function::__func<SteppedKeyboardDispatcher::onModify<geode::modifier::ModifyBase<geode::modifier::ModifyDerive<SteppedKeyboardDispatcher, cocos2d::CCKeyboardDispatcher> > >(geode::modifier::ModifyBase<geode::modifier::ModifyDerive<SteppedKeyboardDispatcher, cocos2d::CCKeyboardDispatcher> >&)::{lambda()#1}, std::__ndk1::allocator<SteppedKeyboardDispatcher::onModify<geode::modifier::ModifyBase<geode::modifier::ModifyDerive<SteppedKeyboardDispatcher, cocos2d::CCKeyboardDispatcher> > >(geode::modifier::ModifyBase<geode::modifier::ModifyDerive<SteppedKeyboardDispatcher, cocos2d::CCKeyboardDispatcher> >&)::{lambda()#1}>, void ()>::target_type() const
FUNC d5928 88 0 geode::modifier::AsStaticFunction_dispatchKeyboardMSG<SteppedKeyboardDispatcher, bool (SteppedKeyboardDispatcher::*)(cocos2d::enumKeyCodes, bool, bool)>::Impl<bool (SteppedKeyboardDispatcher::*)(cocos2d::enumKeyCodes, bool, bool)>::function(SteppedKeyboardDispatcher*, cocos2d::enumKeyCodes, bool, bool)
FUNC d59b0 4 0 std::__ndk1::__function::__func<geodeExecFunction222<(anonymous namespace)::ExecFuncUnique222>()::{lambda()#1}, std::__ndk1::allocator<geodeExecFunction222<(anonymous namespace)::ExecFuncUnique222>()::{lambda()#1}>, void ()>::~__func()
FUNC d59b4 18 0 std::__ndk1::__function::__func<geodeExecFunction222<(anonymous namespace)::ExecFuncUnique222>()::{lambda()#1}, std::__ndk1::allocator<geodeExecFunction222<(anonymous namespace)::ExecFuncUnique222>()::{lambda()#1}>, void ()>::__clone() const
FUNC d59cc 10 0 std::__ndk1::__function::__func<geodeExecFunction222<(anonymous namespace)::ExecFuncUnique222>()::{lambda()#1}, std::__ndk1::allocator<geodeExecFunction222<(anonymous namespace)::ExecFuncUnique222>()::{lambda()#1}>, void ()>::__clone(std::__ndk1::__function::__base<void ()>*) const
FUNC d59dc 2 0 std::__ndk1::__function::__func<geodeExecFunction222<(anonymous namespace)::ExecFuncUnique222>()::{lambda()#1}, std::__ndk1::allocator<geodeExecFunction222<(anonymous namespace)::ExecFuncUnique222>()::{lambda()#1}>, void ()>::destroy()
FUNC d59de 4 0 std::__ndk1::__function::__func<geodeExecFunction222<(anonymous namespace)::ExecFuncUnique222>()::{lambda()#1}, std::__ndk1::allocator<geodeExecFunction222<(anonymous namespace)::ExecFuncUnique222>()::{lambda()#1}>, void ()>::destroy_deallocate()
FUNC d59e4 f8 0 std::__ndk1::__function::__func<geodeExecFunction222<(anonymous namespace)::ExecFuncUnique222>()::{lambda()#1}, std::__ndk1::allocator<geodeExecFunction222<(anonymous namespace)::ExecFuncUnique222>()::{lambda()#1}>, void ()>::operator()()
FUNC d5adc 18 0 std::__ndk1::__function::__func<geodeExecFunction222<(anonymous namespace)::ExecFuncUnique222>()::{lambda()#1}, std::__ndk1::allocator<geodeExecFunction222<(anonymous namespace)::ExecFuncUnique222>()::{lambda()#1}>, void ()>::target(std::type_info const&) const
FUNC d5af4 c 0 std::__ndk1::__function::__func<geodeExecFunction222<(anonymous namespace)::ExecFuncUnique222>()::{lambda()#1}, std::__ndk1::allocator<geodeExecFunction222<(anonymous namespace)::ExecFuncUnique222>()::{lambda()#1}>, void ()>::target_type() const
FUNC d5b00 2 0 ModuleChangeDelegate::onModuleChanged(bool)
FUNC d5b02 1c 0 FrameStepperUIDelegate::initOptionsLayer(cocos2d::CCLayer*)
FUNC d5b20 140 0 EditPositionLayer::create(EditPositionType)
FUNC d5c60 2 0 std::__ndk1::__function::__base<void (bool)>::~__base()
FUNC d5c62 4 0 std::__ndk1::__function::__func<geodeExecFunction222<(anonymous namespace)::ExecFuncUnique222>()::{lambda()#1}::operator()() const::{lambda(bool)#1}, std::__ndk1::allocator<geodeExecFunction222<(anonymous namespace)::ExecFuncUnique222>()::{lambda()#1}::operator()() const::{lambda(bool)#1}>, void (bool)>::~__func()
FUNC d5c68 18 0 std::__ndk1::__function::__func<geodeExecFunction222<(anonymous namespace)::ExecFuncUnique222>()::{lambda()#1}::operator()() const::{lambda(bool)#1}, std::__ndk1::allocator<geodeExecFunction222<(anonymous namespace)::ExecFuncUnique222>()::{lambda()#1}::operator()() const::{lambda(bool)#1}>, void (bool)>::__clone() const
FUNC d5c80 10 0 std::__ndk1::__function::__func<geodeExecFunction222<(anonymous namespace)::ExecFuncUnique222>()::{lambda()#1}::operator()() const::{lambda(bool)#1}, std::__ndk1::allocator<geodeExecFunction222<(anonymous namespace)::ExecFuncUnique222>()::{lambda()#1}::operator()() const::{lambda(bool)#1}>, void (bool)>::__clone(std::__ndk1::__function::__base<void (bool)>*) const
FUNC d5c90 2 0 std::__ndk1::__function::__func<geodeExecFunction222<(anonymous namespace)::ExecFuncUnique222>()::{lambda()#1}::operator()() const::{lambda(bool)#1}, std::__ndk1::allocator<geodeExecFunction222<(anonymous namespace)::ExecFuncUnique222>()::{lambda()#1}::operator()() const::{lambda(bool)#1}>, void (bool)>::destroy()
FUNC d5c92 4 0 std::__ndk1::__function::__func<geodeExecFunction222<(anonymous namespace)::ExecFuncUnique222>()::{lambda()#1}::operator()() const::{lambda(bool)#1}, std::__ndk1::allocator<geodeExecFunction222<(anonymous namespace)::ExecFuncUnique222>()::{lambda()#1}::operator()() const::{lambda(bool)#1}>, void (bool)>::destroy_deallocate()
FUNC d5c96 4c 0 std::__ndk1::__function::__func<geodeExecFunction222<(anonymous namespace)::ExecFuncUnique222>()::{lambda()#1}::operator()() const::{lambda(bool)#1}, std::__ndk1::allocator<geodeExecFunction222<(anonymous namespace)::ExecFuncUnique222>()::{lambda()#1}::operator()() const::{lambda(bool)#1}>, void (bool)>::operator()(bool&&)
FUNC d5ce4 18 0 std::__ndk1::__function::__func<geodeExecFunction222<(anonymous namespace)::ExecFuncUnique222>()::{lambda()#1}::operator()() const::{lambda(bool)#1}, std::__ndk1::allocator<geodeExecFunction222<(anonymous namespace)::ExecFuncUnique222>()::{lambda()#1}::operator()() const::{lambda(bool)#1}>, void (bool)>::target(std::type_info const&) const
FUNC d5cfc c 0 std::__ndk1::__function::__func<geodeExecFunction222<(anonymous namespace)::ExecFuncUnique222>()::{lambda()#1}::operator()() const::{lambda(bool)#1}, std::__ndk1::allocator<geodeExecFunction222<(anonymous namespace)::ExecFuncUnique222>()::{lambda()#1}::operator()() const::{lambda(bool)#1}>, void (bool)>::target_type() const
FUNC d5d08 cc 0 std::__ndk1::__function::__value_func<void (bool)>::swap[abi:ne180000](std::__ndk1::__function::__value_func<void (bool)>&)
FUNC d5dd4 b0 0 _GLOBAL__sub_I_FrameStepper.cpp
FUNC d5e84 4b0 0 __cxx_global_var_init.30
FUNC d6334 20 0 geode::modifier::ModifyBase<geode::modifier::ModifyDerive<hook10<(anonymous namespace)::hook10Parent>, EditorUI> >::~ModifyBase()
FUNC d6360 350 0 geode::modifier::ModifyDerive<hook10<(anonymous namespace)::hook10Parent>, EditorUI>::apply()
FUNC d66b0 2 0 geode::modifier::ModifyBase<geode::modifier::ModifyDerive<hook10<(anonymous namespace)::hook10Parent>, EditorUI> >::apply()
FUNC d66b4 60 0 hook10<(anonymous namespace)::hook10Parent>::onModify<geode::modifier::ModifyBase<geode::modifier::ModifyDerive<hook10<(anonymous namespace)::hook10Parent>, EditorUI> > >(geode::modifier::ModifyBase<geode::modifier::ModifyDerive<hook10<(anonymous namespace)::hook10Parent>, EditorUI> >&)::{lambda()#1}::~{lambda()#1}()
FUNC d6714 6c 0 std::__ndk1::__function::__func<hook10<(anonymous namespace)::hook10Parent>::onModify<geode::modifier::ModifyBase<geode::modifier::ModifyDerive<hook10<(anonymous namespace)::hook10Parent>, EditorUI> > >(geode::modifier::ModifyBase<geode::modifier::ModifyDerive<hook10<(anonymous namespace)::hook10Parent>, EditorUI> >&)::{lambda()#1}, std::__ndk1::allocator<hook10<(anonymous namespace)::hook10Parent>::onModify<geode::modifier::ModifyBase<geode::modifier::ModifyDerive<hook10<(anonymous namespace)::hook10Parent>, EditorUI> > >(geode::modifier::ModifyBase<geode::modifier::ModifyDerive<hook10<(anonymous namespace)::hook10Parent>, EditorUI> >&)::{lambda()#1}>, void ()>::~__func()
FUNC d6780 6c 0 std::__ndk1::__function::__func<hook10<(anonymous namespace)::hook10Parent>::onModify<geode::modifier::ModifyBase<geode::modifier::ModifyDerive<hook10<(anonymous namespace)::hook10Parent>, EditorUI> > >(geode::modifier::ModifyBase<geode::modifier::ModifyDerive<hook10<(anonymous namespace)::hook10Parent>, EditorUI> >&)::{lambda()#1}, std::__ndk1::allocator<hook10<(anonymous namespace)::hook10Parent>::onModify<geode::modifier::ModifyBase<geode::modifier::ModifyDerive<hook10<(anonymous namespace)::hook10Parent>, EditorUI> > >(geode::modifier::ModifyBase<geode::modifier::ModifyDerive<hook10<(anonymous namespace)::hook10Parent>, EditorUI> >&)::{lambda()#1}>, void ()>::~__func()
FUNC d67ec 98 0 std::__ndk1::__function::__func<hook10<(anonymous namespace)::hook10Parent>::onModify<geode::modifier::ModifyBase<geode::modifier::ModifyDerive<hook10<(anonymous namespace)::hook10Parent>, EditorUI> > >(geode::modifier::ModifyBase<geode::modifier::ModifyDerive<hook10<(anonymous namespace)::hook10Parent>, EditorUI> >&)::{lambda()#1}, std::__ndk1::allocator<hook10<(anonymous namespace)::hook10Parent>::onModify<geode::modifier::ModifyBase<geode::modifier::ModifyDerive<hook10<(anonymous namespace)::hook10Parent>, EditorUI> > >(geode::modifier::ModifyBase<geode::modifier::ModifyDerive<hook10<(anonymous namespace)::hook10Parent>, EditorUI> >&)::{lambda()#1}>, void ()>::__clone() const
FUNC d6884 88 0 std::__ndk1::__function::__func<hook10<(anonymous namespace)::hook10Parent>::onModify<geode::modifier::ModifyBase<geode::modifier::ModifyDerive<hook10<(anonymous namespace)::hook10Parent>, EditorUI> > >(geode::modifier::ModifyBase<geode::modifier::ModifyDerive<hook10<(anonymous namespace)::hook10Parent>, EditorUI> >&)::{lambda()#1}, std::__ndk1::allocator<hook10<(anonymous namespace)::hook10Parent>::onModify<geode::modifier::ModifyBase<geode::modifier::ModifyDerive<hook10<(anonymous namespace)::hook10Parent>, EditorUI> > >(geode::modifier::ModifyBase<geode::modifier::ModifyDerive<hook10<(anonymous namespace)::hook10Parent>, EditorUI> >&)::{lambda()#1}>, void ()>::__clone(std::__ndk1::__function::__base<void ()>*) const
FUNC d690c 60 0 std::__ndk1::__function::__func<hook10<(anonymous namespace)::hook10Parent>::onModify<geode::modifier::ModifyBase<geode::modifier::ModifyDerive<hook10<(anonymous namespace)::hook10Parent>, EditorUI> > >(geode::modifier::ModifyBase<geode::modifier::ModifyDerive<hook10<(anonymous namespace)::hook10Parent>, EditorUI> >&)::{lambda()#1}, std::__ndk1::allocator<hook10<(anonymous namespace)::hook10Parent>::onModify<geode::modifier::ModifyBase<geode::modifier::ModifyDerive<hook10<(anonymous namespace)::hook10Parent>, EditorUI> > >(geode::modifier::ModifyBase<geode::modifier::ModifyDerive<hook10<(anonymous namespace)::hook10Parent>, EditorUI> >&)::{lambda()#1}>, void ()>::destroy()
FUNC d696c 60 0 std::__ndk1::__function::__func<hook10<(anonymous namespace)::hook10Parent>::onModify<geode::modifier::ModifyBase<geode::modifier::ModifyDerive<hook10<(anonymous namespace)::hook10Parent>, EditorUI> > >(geode::modifier::ModifyBase<geode::modifier::ModifyDerive<hook10<(anonymous namespace)::hook10Parent>, EditorUI> >&)::{lambda()#1}, std::__ndk1::allocator<hook10<(anonymous namespace)::hook10Parent>::onModify<geode::modifier::ModifyBase<geode::modifier::ModifyDerive<hook10<(anonymous namespace)::hook10Parent>, EditorUI> > >(geode::modifier::ModifyBase<geode::modifier::ModifyDerive<hook10<(anonymous namespace)::hook10Parent>, EditorUI> >&)::{lambda()#1}>, void ()>::destroy_deallocate()
FUNC d69cc f0 0 std::__ndk1::__function::__func<hook10<(anonymous namespace)::hook10Parent>::onModify<geode::modifier::ModifyBase<geode::modifier::ModifyDerive<hook10<(anonymous namespace)::hook10Parent>, EditorUI> > >(geode::modifier::ModifyBase<geode::modifier::ModifyDerive<hook10<(anonymous namespace)::hook10Parent>, EditorUI> >&)::{lambda()#1}, std::__ndk1::allocator<hook10<(anonymous namespace)::hook10Parent>::onModify<geode::modifier::ModifyBase<geode::modifier::ModifyDerive<hook10<(anonymous namespace)::hook10Parent>, EditorUI> > >(geode::modifier::ModifyBase<geode::modifier::ModifyDerive<hook10<(anonymous namespace)::hook10Parent>, EditorUI> >&)::{lambda()#1}>, void ()>::operator()()
FUNC d6abc 18 0 std::__ndk1::__function::__func<hook10<(anonymous namespace)::hook10Parent>::onModify<geode::modifier::ModifyBase<geode::modifier::ModifyDerive<hook10<(anonymous namespace)::hook10Parent>, EditorUI> > >(geode::modifier::ModifyBase<geode::modifier::ModifyDerive<hook10<(anonymous namespace)::hook10Parent>, EditorUI> >&)::{lambda()#1}, std::__ndk1::allocator<hook10<(anonymous namespace)::hook10Parent>::onModify<geode::modifier::ModifyBase<geode::modifier::ModifyDerive<hook10<(anonymous namespace)::hook10Parent>, EditorUI> > >(geode::modifier::ModifyBase<geode::modifier::ModifyDerive<hook10<(anonymous namespace)::hook10Parent>, EditorUI> >&)::{lambda()#1}>, void ()>::target(std::type_info const&) const
FUNC d6ad4 c 0 std::__ndk1::__function::__func<hook10<(anonymous namespace)::hook10Parent>::onModify<geode::modifier::ModifyBase<geode::modifier::ModifyDerive<hook10<(anonymous namespace)::hook10Parent>, EditorUI> > >(geode::modifier::ModifyBase<geode::modifier::ModifyDerive<hook10<(anonymous namespace)::hook10Parent>, EditorUI> >&)::{lambda()#1}, std::__ndk1::allocator<hook10<(anonymous namespace)::hook10Parent>::onModify<geode::modifier::ModifyBase<geode::modifier::ModifyDerive<hook10<(anonymous namespace)::hook10Parent>, EditorUI> > >(geode::modifier::ModifyBase<geode::modifier::ModifyDerive<hook10<(anonymous namespace)::hook10Parent>, EditorUI> >&)::{lambda()#1}>, void ()>::target_type() const
FUNC d6ae0 2 0 geode::modifier::AsStaticFunction_constrainGameLayerPosition<hook10<(anonymous namespace)::hook10Parent>, void (hook10<(anonymous namespace)::hook10Parent>::*)(float, float)>::Impl<void (hook10<(anonymous namespace)::hook10Parent>::*)(float, float)>::function(hook10<(anonymous namespace)::hook10Parent>*, float, float)
FUNC d6ae4 550 0 __cxx_global_var_init.30
FUNC d7034 550 0 __cxx_global_var_init.31
FUNC d7584 20 0 geode::modifier::ModifyBase<geode::modifier::ModifyDerive<hook9<(anonymous namespace)::hook9Parent>, GameStatsManager> >::~ModifyBase()
FUNC d75a4 20 0 geode::modifier::ModifyBase<geode::modifier::ModifyDerive<hook20<(anonymous namespace)::hook20Parent>, PlayLayer> >::~ModifyBase()
FUNC d75d0 340 0 geode::modifier::ModifyDerive<hook9<(anonymous namespace)::hook9Parent>, GameStatsManager>::apply()
FUNC d7910 2 0 geode::modifier::ModifyBase<geode::modifier::ModifyDerive<hook9<(anonymous namespace)::hook9Parent>, GameStatsManager> >::apply()
FUNC d7914 2c 0 std::__ndk1::__function::__func<hook9<(anonymous namespace)::hook9Parent>::onModify<geode::modifier::ModifyBase<geode::modifier::ModifyDerive<hook9<(anonymous namespace)::hook9Parent>, GameStatsManager> > >(geode::modifier::ModifyBase<geode::modifier::ModifyDerive<hook9<(anonymous namespace)::hook9Parent>, GameStatsManager> >&)::{lambda()#1}, std::__ndk1::allocator<hook9<(anonymous namespace)::hook9Parent>::onModify<geode::modifier::ModifyBase<geode::modifier::ModifyDerive<hook9<(anonymous namespace)::hook9Parent>, GameStatsManager> > >(geode::modifier::ModifyBase<geode::modifier::ModifyDerive<hook9<(anonymous namespace)::hook9Parent>, GameStatsManager> >&)::{lambda()#1}>, void ()>::~__func()
FUNC d7940 30 0 std::__ndk1::__function::__func<hook9<(anonymous namespace)::hook9Parent>::onModify<geode::modifier::ModifyBase<geode::modifier::ModifyDerive<hook9<(anonymous namespace)::hook9Parent>, GameStatsManager> > >(geode::modifier::ModifyBase<geode::modifier::ModifyDerive<hook9<(anonymous namespace)::hook9Parent>, GameStatsManager> >&)::{lambda()#1}, std::__ndk1::allocator<hook9<(anonymous namespace)::hook9Parent>::onModify<geode::modifier::ModifyBase<geode::modifier::ModifyDerive<hook9<(anonymous namespace)::hook9Parent>, GameStatsManager> > >(geode::modifier::ModifyBase<geode::modifier::ModifyDerive<hook9<(anonymous namespace)::hook9Parent>, GameStatsManager> >&)::{lambda()#1}>, void ()>::~__func()
FUNC d7970 7c 0 std::__ndk1::__function::__func<hook9<(anonymous namespace)::hook9Parent>::onModify<geode::modifier::ModifyBase<geode::modifier::ModifyDerive<hook9<(anonymous namespace)::hook9Parent>, GameStatsManager> > >(geode::modifier::ModifyBase<geode::modifier::ModifyDerive<hook9<(anonymous namespace)::hook9Parent>, GameStatsManager> >&)::{lambda()#1}, std::__ndk1::allocator<hook9<(anonymous namespace)::hook9Parent>::onModify<geode::modifier::ModifyBase<geode::modifier::ModifyDerive<hook9<(anonymous namespace)::hook9Parent>, GameStatsManager> > >(geode::modifier::ModifyBase<geode::modifier::ModifyDerive<hook9<(anonymous namespace)::hook9Parent>, GameStatsManager> >&)::{lambda()#1}>, void ()>::__clone() const
FUNC d79ec 70 0 std::__ndk1::__function::__func<hook9<(anonymous namespace)::hook9Parent>::onModify<geode::modifier::ModifyBase<geode::modifier::ModifyDerive<hook9<(anonymous namespace)::hook9Parent>, GameStatsManager> > >(geode::modifier::ModifyBase<geode::modifier::ModifyDerive<hook9<(anonymous namespace)::hook9Parent>, GameStatsManager> >&)::{lambda()#1}, std::__ndk1::allocator<hook9<(anonymous namespace)::hook9Parent>::onModify<geode::modifier::ModifyBase<geode::modifier::ModifyDerive<hook9<(anonymous namespace)::hook9Parent>, GameStatsManager> > >(geode::modifier::ModifyBase<geode::modifier::ModifyDerive<hook9<(anonymous namespace)::hook9Parent>, GameStatsManager> >&)::{lambda()#1}>, void ()>::__clone(std::__ndk1::__function::__base<void ()>*) const
FUNC d7a5c 10 0 std::__ndk1::__function::__func<hook9<(anonymous namespace)::hook9Parent>::onModify<geode::modifier::ModifyBase<geode::modifier::ModifyDerive<hook9<(anonymous namespace)::hook9Parent>, GameStatsManager> > >(geode::modifier::ModifyBase<geode::modifier::ModifyDerive<hook9<(anonymous namespace)::hook9Parent>, GameStatsManager> >&)::{lambda()#1}, std::__ndk1::allocator<hook9<(anonymous namespace)::hook9Parent>::onModify<geode::modifier::ModifyBase<geode::modifier::ModifyDerive<hook9<(anonymous namespace)::hook9Parent>, GameStatsManager> > >(geode::modifier::ModifyBase<geode::modifier::ModifyDerive<hook9<(anonymous namespace)::hook9Parent>, GameStatsManager> >&)::{lambda()#1}>, void ()>::destroy()
FUNC d7a6c 22 0 std::__ndk1::__function::__func<hook9<(anonymous namespace)::hook9Parent>::onModify<geode::modifier::ModifyBase<geode::modifier::ModifyDerive<hook9<(anonymous namespace)::hook9Parent>, GameStatsManager> > >(geode::modifier::ModifyBase<geode::modifier::ModifyDerive<hook9<(anonymous namespace)::hook9Parent>, GameStatsManager> >&)::{lambda()#1}, std::__ndk1::allocator<hook9<(anonymous namespace)::hook9Parent>::onModify<geode::modifier::ModifyBase<geode::modifier::ModifyDerive<hook9<(anonymous namespace)::hook9Parent>, GameStatsManager> > >(geode::modifier::ModifyBase<geode::modifier::ModifyDerive<hook9<(anonymous namespace)::hook9Parent>, GameStatsManager> >&)::{lambda()#1}>, void ()>::destroy_deallocate()
FUNC d7a90 94 0 std::__ndk1::__function::__func<hook9<(anonymous namespace)::hook9Parent>::onModify<geode::modifier::ModifyBase<geode::modifier::ModifyDerive<hook9<(anonymous namespace)::hook9Parent>, GameStatsManager> > >(geode::modifier::ModifyBase<geode::modifier::ModifyDerive<hook9<(anonymous namespace)::hook9Parent>, GameStatsManager> >&)::{lambda()#1}, std::__ndk1::allocator<hook9<(anonymous namespace)::hook9Parent>::onModify<geode::modifier::ModifyBase<geode::modifier::ModifyDerive<hook9<(anonymous namespace)::hook9Parent>, GameStatsManager> > >(geode::modifier::ModifyBase<geode::modifier::ModifyDerive<hook9<(anonymous namespace)::hook9Parent>, GameStatsManager> >&)::{lambda()#1}>, void ()>::operator()()
FUNC d7b24 18 0 std::__ndk1::__function::__func<hook9<(anonymous namespace)::hook9Parent>::onModify<geode::modifier::ModifyBase<geode::modifier::ModifyDerive<hook9<(anonymous namespace)::hook9Parent>, GameStatsManager> > >(geode::modifier::ModifyBase<geode::modifier::ModifyDerive<hook9<(anonymous namespace)::hook9Parent>, GameStatsManager> >&)::{lambda()#1}, std::__ndk1::allocator<hook9<(anonymous namespace)::hook9Parent>::onModify<geode::modifier::ModifyBase<geode::modifier::ModifyDerive<hook9<(anonymous namespace)::hook9Parent>, GameStatsManager> > >(geode::modifier::ModifyBase<geode::modifier::ModifyDerive<hook9<(anonymous namespace)::hook9Parent>, GameStatsManager> >&)::{lambda()#1}>, void ()>::target(std::type_info const&) const
FUNC d7b3c c 0 std::__ndk1::__function::__func<hook9<(anonymous namespace)::hook9Parent>::onModify<geode::modifier::ModifyBase<geode::modifier::ModifyDerive<hook9<(anonymous namespace)::hook9Parent>, GameStatsManager> > >(geode::modifier::ModifyBase<geode::modifier::ModifyDerive<hook9<(anonymous namespace)::hook9Parent>, GameStatsManager> >&)::{lambda()#1}, std::__ndk1::allocator<hook9<(anonymous namespace)::hook9Parent>::onModify<geode::modifier::ModifyBase<geode::modifier::ModifyDerive<hook9<(anonymous namespace)::hook9Parent>, GameStatsManager> > >(geode::modifier::ModifyBase<geode::modifier::ModifyDerive<hook9<(anonymous namespace)::hook9Parent>, GameStatsManager> >&)::{lambda()#1}>, void ()>::target_type() const
FUNC d7b48 38 0 geode::modifier::AsStaticFunction_incrementStat<hook9<(anonymous namespace)::hook9Parent>, void (hook9<(anonymous namespace)::hook9Parent>::*)(char const*, int)>::Impl<void (hook9<(anonymous namespace)::hook9Parent>::*)(char const*, int)>::function(hook9<(anonymous namespace)::hook9Parent>*, char const*, int)
FUNC d7b80 2d8 0 geode::modifier::ModifyDerive<hook20<(anonymous namespace)::hook20Parent>, PlayLayer>::apply()
FUNC d7e58 2 0 geode::modifier::ModifyBase<geode::modifier::ModifyDerive<hook20<(anonymous namespace)::hook20Parent>, PlayLayer> >::apply()
FUNC d7e5c 2c 0 std::__ndk1::__function::__func<hook20<(anonymous namespace)::hook20Parent>::onModify<geode::modifier::ModifyBase<geode::modifier::ModifyDerive<hook20<(anonymous namespace)::hook20Parent>, PlayLayer> > >(geode::modifier::ModifyBase<geode::modifier::ModifyDerive<hook20<(anonymous namespace)::hook20Parent>, PlayLayer> >&)::{lambda()#1}, std::__ndk1::allocator<hook20<(anonymous namespace)::hook20Parent>::onModify<geode::modifier::ModifyBase<geode::modifier::ModifyDerive<hook20<(anonymous namespace)::hook20Parent>, PlayLayer> > >(geode::modifier::ModifyBase<geode::modifier::ModifyDerive<hook20<(anonymous namespace)::hook20Parent>, PlayLayer> >&)::{lambda()#1}>, void ()>::~__func()
FUNC d7e88 30 0 std::__ndk1::__function::__func<hook20<(anonymous namespace)::hook20Parent>::onModify<geode::modifier::ModifyBase<geode::modifier::ModifyDerive<hook20<(anonymous namespace)::hook20Parent>, PlayLayer> > >(geode::modifier::ModifyBase<geode::modifier::ModifyDerive<hook20<(anonymous namespace)::hook20Parent>, PlayLayer> >&)::{lambda()#1}, std::__ndk1::allocator<hook20<(anonymous namespace)::hook20Parent>::onModify<geode::modifier::ModifyBase<geode::modifier::ModifyDerive<hook20<(anonymous namespace)::hook20Parent>, PlayLayer> > >(geode::modifier::ModifyBase<geode::modifier::ModifyDerive<hook20<(anonymous namespace)::hook20Parent>, PlayLayer> >&)::{lambda()#1}>, void ()>::~__func()
FUNC d7eb8 7c 0 std::__ndk1::__function::__func<hook20<(anonymous namespace)::hook20Parent>::onModify<geode::modifier::ModifyBase<geode::modifier::ModifyDerive<hook20<(anonymous namespace)::hook20Parent>, PlayLayer> > >(geode::modifier::ModifyBase<geode::modifier::ModifyDerive<hook20<(anonymous namespace)::hook20Parent>, PlayLayer> >&)::{lambda()#1}, std::__ndk1::allocator<hook20<(anonymous namespace)::hook20Parent>::onModify<geode::modifier::ModifyBase<geode::modifier::ModifyDerive<hook20<(anonymous namespace)::hook20Parent>, PlayLayer> > >(geode::modifier::ModifyBase<geode::modifier::ModifyDerive<hook20<(anonymous namespace)::hook20Parent>, PlayLayer> >&)::{lambda()#1}>, void ()>::__clone() const
FUNC d7f34 70 0 std::__ndk1::__function::__func<hook20<(anonymous namespace)::hook20Parent>::onModify<geode::modifier::ModifyBase<geode::modifier::ModifyDerive<hook20<(anonymous namespace)::hook20Parent>, PlayLayer> > >(geode::modifier::ModifyBase<geode::modifier::ModifyDerive<hook20<(anonymous namespace)::hook20Parent>, PlayLayer> >&)::{lambda()#1}, std::__ndk1::allocator<hook20<(anonymous namespace)::hook20Parent>::onModify<geode::modifier::ModifyBase<geode::modifier::ModifyDerive<hook20<(anonymous namespace)::hook20Parent>, PlayLayer> > >(geode::modifier::ModifyBase<geode::modifier::ModifyDerive<hook20<(anonymous namespace)::hook20Parent>, PlayLayer> >&)::{lambda()#1}>, void ()>::__clone(std::__ndk1::__function::__base<void ()>*) const
FUNC d7fa4 10 0 std::__ndk1::__function::__func<hook20<(anonymous namespace)::hook20Parent>::onModify<geode::modifier::ModifyBase<geode::modifier::ModifyDerive<hook20<(anonymous namespace)::hook20Parent>, PlayLayer> > >(geode::modifier::ModifyBase<geode::modifier::ModifyDerive<hook20<(anonymous namespace)::hook20Parent>, PlayLayer> >&)::{lambda()#1}, std::__ndk1::allocator<hook20<(anonymous namespace)::hook20Parent>::onModify<geode::modifier::ModifyBase<geode::modifier::ModifyDerive<hook20<(anonymous namespace)::hook20Parent>, PlayLayer> > >(geode::modifier::ModifyBase<geode::modifier::ModifyDerive<hook20<(anonymous namespace)::hook20Parent>, PlayLayer> >&)::{lambda()#1}>, void ()>::destroy()
FUNC d7fb4 22 0 std::__ndk1::__function::__func<hook20<(anonymous namespace)::hook20Parent>::onModify<geode::modifier::ModifyBase<geode::modifier::ModifyDerive<hook20<(anonymous namespace)::hook20Parent>, PlayLayer> > >(geode::modifier::ModifyBase<geode::modifier::ModifyDerive<hook20<(anonymous namespace)::hook20Parent>, PlayLayer> >&)::{lambda()#1}, std::__ndk1::allocator<hook20<(anonymous namespace)::hook20Parent>::onModify<geode::modifier::ModifyBase<geode::modifier::ModifyDerive<hook20<(anonymous namespace)::hook20Parent>, PlayLayer> > >(geode::modifier::ModifyBase<geode::modifier::ModifyDerive<hook20<(anonymous namespace)::hook20Parent>, PlayLayer> >&)::{lambda()#1}>, void ()>::destroy_deallocate()
FUNC d7fd8 94 0 std::__ndk1::__function::__func<hook20<(anonymous namespace)::hook20Parent>::onModify<geode::modifier::ModifyBase<geode::modifier::ModifyDerive<hook20<(anonymous namespace)::hook20Parent>, PlayLayer> > >(geode::modifier::ModifyBase<geode::modifier::ModifyDerive<hook20<(anonymous namespace)::hook20Parent>, PlayLayer> >&)::{lambda()#1}, std::__ndk1::allocator<hook20<(anonymous namespace)::hook20Parent>::onModify<geode::modifier::ModifyBase<geode::modifier::ModifyDerive<hook20<(anonymous namespace)::hook20Parent>, PlayLayer> > >(geode::modifier::ModifyBase<geode::modifier::ModifyDerive<hook20<(anonymous namespace)::hook20Parent>, PlayLayer> >&)::{lambda()#1}>, void ()>::operator()()
FUNC d806c 18 0 std::__ndk1::__function::__func<hook20<(anonymous namespace)::hook20Parent>::onModify<geode::modifier::ModifyBase<geode::modifier::ModifyDerive<hook20<(anonymous namespace)::hook20Parent>, PlayLayer> > >(geode::modifier::ModifyBase<geode::modifier::ModifyDerive<hook20<(anonymous namespace)::hook20Parent>, PlayLayer> >&)::{lambda()#1}, std::__ndk1::allocator<hook20<(anonymous namespace)::hook20Parent>::onModify<geode::modifier::ModifyBase<geode::modifier::ModifyDerive<hook20<(anonymous namespace)::hook20Parent>, PlayLayer> > >(geode::modifier::ModifyBase<geode::modifier::ModifyDerive<hook20<(anonymous namespace)::hook20Parent>, PlayLayer> >&)::{lambda()#1}>, void ()>::target(std::type_info const&) const
FUNC d8084 c 0 std::__ndk1::__function::__func<hook20<(anonymous namespace)::hook20Parent>::onModify<geode::modifier::ModifyBase<geode::modifier::ModifyDerive<hook20<(anonymous namespace)::hook20Parent>, PlayLayer> > >(geode::modifier::ModifyBase<geode::modifier::ModifyDerive<hook20<(anonymous namespace)::hook20Parent>, PlayLayer> >&)::{lambda()#1}, std::__ndk1::allocator<hook20<(anonymous namespace)::hook20Parent>::onModify<geode::modifier::ModifyBase<geode::modifier::ModifyDerive<hook20<(anonymous namespace)::hook20Parent>, PlayLayer> > >(geode::modifier::ModifyBase<geode::modifier::ModifyDerive<hook20<(anonymous namespace)::hook20Parent>, PlayLayer> >&)::{lambda()#1}>, void ()>::target_type() const
FUNC d8090 5c 0 geode::modifier::AsStaticFunction_resetLevel<hook20<(anonymous namespace)::hook20Parent>, void (hook20<(anonymous namespace)::hook20Parent>::*)()>::Impl<void (hook20<(anonymous namespace)::hook20Parent>::*)()>::function(hook20<(anonymous namespace)::hook20Parent>*)
FUNC d80ec 2f4 0 __cxx_global_var_init.30
FUNC d83e0 20 0 geode::modifier::ModifyBase<geode::modifier::ModifyDerive<OptionsLayerExt, OptionsLayer> >::~ModifyBase()
FUNC d8400 2d0 0 __cxx_global_var_init.31
FUNC d86d0 20 0 geode::modifier::ModifyBase<geode::modifier::ModifyDerive<hook45<(anonymous namespace)::hook45Parent>, PauseLayer> >::~ModifyBase()
FUNC d86f0 2d0 0 geode::modifier::ModifyDerive<OptionsLayerExt, OptionsLayer>::apply()
FUNC d89c0 2 0 geode::modifier::ModifyBase<geode::modifier::ModifyDerive<OptionsLayerExt, OptionsLayer> >::apply()
FUNC d89c4 7c 0 geode::addresser::getVirtual<void (OptionsLayer::*)()>(void (OptionsLayer::*)())
FUNC d8a40 15c 0 geode::modifier::AsStaticFunction_customSetup<OptionsLayerExt, void (OptionsLayerExt::*)()>::Impl<void (OptionsLayerExt::*)()>::function(OptionsLayerExt*)
FUNC d8b9c 80 0 OptionsLayer::OptionsLayer(geode::ZeroConstructorType)
FUNC d8c1c 34 0 OptionsLayerExt::onPauseOptions(cocos2d::CCObject*)
FUNC d8c50 320 0 geode::modifier::ModifyDerive<hook45<(anonymous namespace)::hook45Parent>, PauseLayer>::apply()
FUNC d8f70 2 0 geode::modifier::ModifyBase<geode::modifier::ModifyDerive<hook45<(anonymous namespace)::hook45Parent>, PauseLayer> >::apply()
FUNC d8f74 5c 0 geode::modifier::AsStaticFunction_onSettings<hook45<(anonymous namespace)::hook45Parent>, void (hook45<(anonymous namespace)::hook45Parent>::*)(cocos2d::CCObject*)>::Impl<void (hook45<(anonymous namespace)::hook45Parent>::*)(cocos2d::CCObject*)>::function(hook45<(anonymous namespace)::hook45Parent>*, cocos2d::CCObject*)
FUNC d8fd0 550 0 __cxx_global_var_init.30
FUNC d9520 550 0 __cxx_global_var_init.31
FUNC d9a70 550 0 __cxx_global_var_init.32
FUNC d9fc0 550 0 __cxx_global_var_init.33
FUNC da510 550 0 __cxx_global_var_init.34
FUNC daa60 20 0 geode::modifier::ModifyBase<geode::modifier::ModifyDerive<hook12<(anonymous namespace)::hook12Parent>, cocos2d::CCSpriteFrameCache> >::~ModifyBase()
FUNC daa80 20 0 geode::modifier::ModifyBase<geode::modifier::ModifyDerive<hook26<(anonymous namespace)::hook26Parent>, GJBaseGameLayer> >::~ModifyBase()
FUNC daaa0 20 0 geode::modifier::ModifyBase<geode::modifier::ModifyDerive<hook39<(anonymous namespace)::hook39Parent>, EnhancedGameObject> >::~ModifyBase()
FUNC daac0 20 0 geode::modifier::ModifyBase<geode::modifier::ModifyDerive<hook57<(anonymous namespace)::hook57Parent>, CCCircleWave> >::~ModifyBase()
FUNC daae0 20 0 geode::modifier::ModifyBase<geode::modifier::ModifyDerive<hook69<(anonymous namespace)::hook69Parent>, GameObject> >::~ModifyBase()
FUNC dab00 330 0 geode::modifier::ModifyDerive<hook12<(anonymous namespace)::hook12Parent>, cocos2d::CCSpriteFrameCache>::apply()
FUNC dae30 2 0 geode::modifier::ModifyBase<geode::modifier::ModifyDerive<hook12<(anonymous namespace)::hook12Parent>, cocos2d::CCSpriteFrameCache> >::apply()
FUNC dae34 2c 0 std::__ndk1::__function::__func<hook12<(anonymous namespace)::hook12Parent>::onModify<geode::modifier::ModifyBase<geode::modifier::ModifyDerive<hook12<(anonymous namespace)::hook12Parent>, cocos2d::CCSpriteFrameCache> > >(geode::modifier::ModifyBase<geode::modifier::ModifyDerive<hook12<(anonymous namespace)::hook12Parent>, cocos2d::CCSpriteFrameCache> >&)::{lambda()#1}, std::__ndk1::allocator<hook12<(anonymous namespace)::hook12Parent>::onModify<geode::modifier::ModifyBase<geode::modifier::ModifyDerive<hook12<(anonymous namespace)::hook12Parent>, cocos2d::CCSpriteFrameCache> > >(geode::modifier::ModifyBase<geode::modifier::ModifyDerive<hook12<(anonymous namespace)::hook12Parent>, cocos2d::CCSpriteFrameCache> >&)::{lambda()#1}>, void ()>::~__func()
FUNC dae60 30 0 std::__ndk1::__function::__func<hook12<(anonymous namespace)::hook12Parent>::onModify<geode::modifier::ModifyBase<geode::modifier::ModifyDerive<hook12<(anonymous namespace)::hook12Parent>, cocos2d::CCSpriteFrameCache> > >(geode::modifier::ModifyBase<geode::modifier::ModifyDerive<hook12<(anonymous namespace)::hook12Parent>, cocos2d::CCSpriteFrameCache> >&)::{lambda()#1}, std::__ndk1::allocator<hook12<(anonymous namespace)::hook12Parent>::onModify<geode::modifier::ModifyBase<geode::modifier::ModifyDerive<hook12<(anonymous namespace)::hook12Parent>, cocos2d::CCSpriteFrameCache> > >(geode::modifier::ModifyBase<geode::modifier::ModifyDerive<hook12<(anonymous namespace)::hook12Parent>, cocos2d::CCSpriteFrameCache> >&)::{lambda()#1}>, void ()>::~__func()
FUNC dae90 7c 0 std::__ndk1::__function::__func<hook12<(anonymous namespace)::hook12Parent>::onModify<geode::modifier::ModifyBase<geode::modifier::ModifyDerive<hook12<(anonymous namespace)::hook12Parent>, cocos2d::CCSpriteFrameCache> > >(geode::modifier::ModifyBase<geode::modifier::ModifyDerive<hook12<(anonymous namespace)::hook12Parent>, cocos2d::CCSpriteFrameCache> >&)::{lambda()#1}, std::__ndk1::allocator<hook12<(anonymous namespace)::hook12Parent>::onModify<geode::modifier::ModifyBase<geode::modifier::ModifyDerive<hook12<(anonymous namespace)::hook12Parent>, cocos2d::CCSpriteFrameCache> > >(geode::modifier::ModifyBase<geode::modifier::ModifyDerive<hook12<(anonymous namespace)::hook12Parent>, cocos2d::CCSpriteFrameCache> >&)::{lambda()#1}>, void ()>::__clone() const
FUNC daf0c 70 0 std::__ndk1::__function::__func<hook12<(anonymous namespace)::hook12Parent>::onModify<geode::modifier::ModifyBase<geode::modifier::ModifyDerive<hook12<(anonymous namespace)::hook12Parent>, cocos2d::CCSpriteFrameCache> > >(geode::modifier::ModifyBase<geode::modifier::ModifyDerive<hook12<(anonymous namespace)::hook12Parent>, cocos2d::CCSpriteFrameCache> >&)::{lambda()#1}, std::__ndk1::allocator<hook12<(anonymous namespace)::hook12Parent>::onModify<geode::modifier::ModifyBase<geode::modifier::ModifyDerive<hook12<(anonymous namespace)::hook12Parent>, cocos2d::CCSpriteFrameCache> > >(geode::modifier::ModifyBase<geode::modifier::ModifyDerive<hook12<(anonymous namespace)::hook12Parent>, cocos2d::CCSpriteFrameCache> >&)::{lambda()#1}>, void ()>::__clone(std::__ndk1::__function::__base<void ()>*) const
FUNC daf7c 10 0 std::__ndk1::__function::__func<hook12<(anonymous namespace)::hook12Parent>::onModify<geode::modifier::ModifyBase<geode::modifier::ModifyDerive<hook12<(anonymous namespace)::hook12Parent>, cocos2d::CCSpriteFrameCache> > >(geode::modifier::ModifyBase<geode::modifier::ModifyDerive<hook12<(anonymous namespace)::hook12Parent>, cocos2d::CCSpriteFrameCache> >&)::{lambda()#1}, std::__ndk1::allocator<hook12<(anonymous namespace)::hook12Parent>::onModify<geode::modifier::ModifyBase<geode::modifier::ModifyDerive<hook12<(anonymous namespace)::hook12Parent>, cocos2d::CCSpriteFrameCache> > >(geode::modifier::ModifyBase<geode::modifier::ModifyDerive<hook12<(anonymous namespace)::hook12Parent>, cocos2d::CCSpriteFrameCache> >&)::{lambda()#1}>, void ()>::destroy()
FUNC daf8c 22 0 std::__ndk1::__function::__func<hook12<(anonymous namespace)::hook12Parent>::onModify<geode::modifier::ModifyBase<geode::modifier::ModifyDerive<hook12<(anonymous namespace)::hook12Parent>, cocos2d::CCSpriteFrameCache> > >(geode::modifier::ModifyBase<geode::modifier::ModifyDerive<hook12<(anonymous namespace)::hook12Parent>, cocos2d::CCSpriteFrameCache> >&)::{lambda()#1}, std::__ndk1::allocator<hook12<(anonymous namespace)::hook12Parent>::onModify<geode::modifier::ModifyBase<geode::modifier::ModifyDerive<hook12<(anonymous namespace)::hook12Parent>, cocos2d::CCSpriteFrameCache> > >(geode::modifier::ModifyBase<geode::modifier::ModifyDerive<hook12<(anonymous namespace)::hook12Parent>, cocos2d::CCSpriteFrameCache> >&)::{lambda()#1}>, void ()>::destroy_deallocate()
FUNC dafb0 94 0 std::__ndk1::__function::__func<hook12<(anonymous namespace)::hook12Parent>::onModify<geode::modifier::ModifyBase<geode::modifier::ModifyDerive<hook12<(anonymous namespace)::hook12Parent>, cocos2d::CCSpriteFrameCache> > >(geode::modifier::ModifyBase<geode::modifier::ModifyDerive<hook12<(anonymous namespace)::hook12Parent>, cocos2d::CCSpriteFrameCache> >&)::{lambda()#1}, std::__ndk1::allocator<hook12<(anonymous namespace)::hook12Parent>::onModify<geode::modifier::ModifyBase<geode::modifier::ModifyDerive<hook12<(anonymous namespace)::hook12Parent>, cocos2d::CCSpriteFrameCache> > >(geode::modifier::ModifyBase<geode::modifier::ModifyDerive<hook12<(anonymous namespace)::hook12Parent>, cocos2d::CCSpriteFrameCache> >&)::{lambda()#1}>, void ()>::operator()()
FUNC db044 18 0 std::__ndk1::__function::__func<hook12<(anonymous namespace)::hook12Parent>::onModify<geode::modifier::ModifyBase<geode::modifier::ModifyDerive<hook12<(anonymous namespace)::hook12Parent>, cocos2d::CCSpriteFrameCache> > >(geode::modifier::ModifyBase<geode::modifier::ModifyDerive<hook12<(anonymous namespace)::hook12Parent>, cocos2d::CCSpriteFrameCache> >&)::{lambda()#1}, std::__ndk1::allocator<hook12<(anonymous namespace)::hook12Parent>::onModify<geode::modifier::ModifyBase<geode::modifier::ModifyDerive<hook12<(anonymous namespace)::hook12Parent>, cocos2d::CCSpriteFrameCache> > >(geode::modifier::ModifyBase<geode::modifier::ModifyDerive<hook12<(anonymous namespace)::hook12Parent>, cocos2d::CCSpriteFrameCache> >&)::{lambda()#1}>, void ()>::target(std::type_info const&) const
FUNC db05c c 0 std::__ndk1::__function::__func<hook12<(anonymous namespace)::hook12Parent>::onModify<geode::modifier::ModifyBase<geode::modifier::ModifyDerive<hook12<(anonymous namespace)::hook12Parent>, cocos2d::CCSpriteFrameCache> > >(geode::modifier::ModifyBase<geode::modifier::ModifyDerive<hook12<(anonymous namespace)::hook12Parent>, cocos2d::CCSpriteFrameCache> >&)::{lambda()#1}, std::__ndk1::allocator<hook12<(anonymous namespace)::hook12Parent>::onModify<geode::modifier::ModifyBase<geode::modifier::ModifyDerive<hook12<(anonymous namespace)::hook12Parent>, cocos2d::CCSpriteFrameCache> > >(geode::modifier::ModifyBase<geode::modifier::ModifyDerive<hook12<(anonymous namespace)::hook12Parent>, cocos2d::CCSpriteFrameCache> >&)::{lambda()#1}>, void ()>::target_type() const
FUNC db068 1a8 0 geode::modifier::AsStaticFunction_spriteFrameByName<hook12<(anonymous namespace)::hook12Parent>, cocos2d::CCSpriteFrame* (hook12<(anonymous namespace)::hook12Parent>::*)(char const*)>::Impl<cocos2d::CCSpriteFrame* (hook12<(anonymous namespace)::hook12Parent>::*)(char const*)>::function(hook12<(anonymous namespace)::hook12Parent>*, char const*)
FUNC db210 320 0 geode::modifier::ModifyDerive<hook26<(anonymous namespace)::hook26Parent>, GJBaseGameLayer>::apply()
FUNC db530 2 0 geode::modifier::ModifyBase<geode::modifier::ModifyDerive<hook26<(anonymous namespace)::hook26Parent>, GJBaseGameLayer> >::apply()
FUNC db534 2c 0 std::__ndk1::__function::__func<hook26<(anonymous namespace)::hook26Parent>::onModify<geode::modifier::ModifyBase<geode::modifier::ModifyDerive<hook26<(anonymous namespace)::hook26Parent>, GJBaseGameLayer> > >(geode::modifier::ModifyBase<geode::modifier::ModifyDerive<hook26<(anonymous namespace)::hook26Parent>, GJBaseGameLayer> >&)::{lambda()#1}, std::__ndk1::allocator<hook26<(anonymous namespace)::hook26Parent>::onModify<geode::modifier::ModifyBase<geode::modifier::ModifyDerive<hook26<(anonymous namespace)::hook26Parent>, GJBaseGameLayer> > >(geode::modifier::ModifyBase<geode::modifier::ModifyDerive<hook26<(anonymous namespace)::hook26Parent>, GJBaseGameLayer> >&)::{lambda()#1}>, void ()>::~__func()
FUNC db560 30 0 std::__ndk1::__function::__func<hook26<(anonymous namespace)::hook26Parent>::onModify<geode::modifier::ModifyBase<geode::modifier::ModifyDerive<hook26<(anonymous namespace)::hook26Parent>, GJBaseGameLayer> > >(geode::modifier::ModifyBase<geode::modifier::ModifyDerive<hook26<(anonymous namespace)::hook26Parent>, GJBaseGameLayer> >&)::{lambda()#1}, std::__ndk1::allocator<hook26<(anonymous namespace)::hook26Parent>::onModify<geode::modifier::ModifyBase<geode::modifier::ModifyDerive<hook26<(anonymous namespace)::hook26Parent>, GJBaseGameLayer> > >(geode::modifier::ModifyBase<geode::modifier::ModifyDerive<hook26<(anonymous namespace)::hook26Parent>, GJBaseGameLayer> >&)::{lambda()#1}>, void ()>::~__func()
FUNC db590 7c 0 std::__ndk1::__function::__func<hook26<(anonymous namespace)::hook26Parent>::onModify<geode::modifier::ModifyBase<geode::modifier::ModifyDerive<hook26<(anonymous namespace)::hook26Parent>, GJBaseGameLayer> > >(geode::modifier::ModifyBase<geode::modifier::ModifyDerive<hook26<(anonymous namespace)::hook26Parent>, GJBaseGameLayer> >&)::{lambda()#1}, std::__ndk1::allocator<hook26<(anonymous namespace)::hook26Parent>::onModify<geode::modifier::ModifyBase<geode::modifier::ModifyDerive<hook26<(anonymous namespace)::hook26Parent>, GJBaseGameLayer> > >(geode::modifier::ModifyBase<geode::modifier::ModifyDerive<hook26<(anonymous namespace)::hook26Parent>, GJBaseGameLayer> >&)::{lambda()#1}>, void ()>::__clone() const
FUNC db60c 70 0 std::__ndk1::__function::__func<hook26<(anonymous namespace)::hook26Parent>::onModify<geode::modifier::ModifyBase<geode::modifier::ModifyDerive<hook26<(anonymous namespace)::hook26Parent>, GJBaseGameLayer> > >(geode::modifier::ModifyBase<geode::modifier::ModifyDerive<hook26<(anonymous namespace)::hook26Parent>, GJBaseGameLayer> >&)::{lambda()#1}, std::__ndk1::allocator<hook26<(anonymous namespace)::hook26Parent>::onModify<geode::modifier::ModifyBase<geode::modifier::ModifyDerive<hook26<(anonymous namespace)::hook26Parent>, GJBaseGameLayer> > >(geode::modifier::ModifyBase<geode::modifier::ModifyDerive<hook26<(anonymous namespace)::hook26Parent>, GJBaseGameLayer> >&)::{lambda()#1}>, void ()>::__clone(std::__ndk1::__function::__base<void ()>*) const
FUNC db67c 10 0 std::__ndk1::__function::__func<hook26<(anonymous namespace)::hook26Parent>::onModify<geode::modifier::ModifyBase<geode::modifier::ModifyDerive<hook26<(anonymous namespace)::hook26Parent>, GJBaseGameLayer> > >(geode::modifier::ModifyBase<geode::modifier::ModifyDerive<hook26<(anonymous namespace)::hook26Parent>, GJBaseGameLayer> >&)::{lambda()#1}, std::__ndk1::allocator<hook26<(anonymous namespace)::hook26Parent>::onModify<geode::modifier::ModifyBase<geode::modifier::ModifyDerive<hook26<(anonymous namespace)::hook26Parent>, GJBaseGameLayer> > >(geode::modifier::ModifyBase<geode::modifier::ModifyDerive<hook26<(anonymous namespace)::hook26Parent>, GJBaseGameLayer> >&)::{lambda()#1}>, void ()>::destroy()
FUNC db68c 22 0 std::__ndk1::__function::__func<hook26<(anonymous namespace)::hook26Parent>::onModify<geode::modifier::ModifyBase<geode::modifier::ModifyDerive<hook26<(anonymous namespace)::hook26Parent>, GJBaseGameLayer> > >(geode::modifier::ModifyBase<geode::modifier::ModifyDerive<hook26<(anonymous namespace)::hook26Parent>, GJBaseGameLayer> >&)::{lambda()#1}, std::__ndk1::allocator<hook26<(anonymous namespace)::hook26Parent>::onModify<geode::modifier::ModifyBase<geode::modifier::ModifyDerive<hook26<(anonymous namespace)::hook26Parent>, GJBaseGameLayer> > >(geode::modifier::ModifyBase<geode::modifier::ModifyDerive<hook26<(anonymous namespace)::hook26Parent>, GJBaseGameLayer> >&)::{lambda()#1}>, void ()>::destroy_deallocate()
FUNC db6b0 94 0 std::__ndk1::__function::__func<hook26<(anonymous namespace)::hook26Parent>::onModify<geode::modifier::ModifyBase<geode::modifier::ModifyDerive<hook26<(anonymous namespace)::hook26Parent>, GJBaseGameLayer> > >(geode::modifier::ModifyBase<geode::modifier::ModifyDerive<hook26<(anonymous namespace)::hook26Parent>, GJBaseGameLayer> >&)::{lambda()#1}, std::__ndk1::allocator<hook26<(anonymous namespace)::hook26Parent>::onModify<geode::modifier::ModifyBase<geode::modifier::ModifyDerive<hook26<(anonymous namespace)::hook26Parent>, GJBaseGameLayer> > >(geode::modifier::ModifyBase<geode::modifier::ModifyDerive<hook26<(anonymous namespace)::hook26Parent>, GJBaseGameLayer> >&)::{lambda()#1}>, void ()>::operator()()
FUNC db744 18 0 std::__ndk1::__function::__func<hook26<(anonymous namespace)::hook26Parent>::onModify<geode::modifier::ModifyBase<geode::modifier::ModifyDerive<hook26<(anonymous namespace)::hook26Parent>, GJBaseGameLayer> > >(geode::modifier::ModifyBase<geode::modifier::ModifyDerive<hook26<(anonymous namespace)::hook26Parent>, GJBaseGameLayer> >&)::{lambda()#1}, std::__ndk1::allocator<hook26<(anonymous namespace)::hook26Parent>::onModify<geode::modifier::ModifyBase<geode::modifier::ModifyDerive<hook26<(anonymous namespace)::hook26Parent>, GJBaseGameLayer> > >(geode::modifier::ModifyBase<geode::modifier::ModifyDerive<hook26<(anonymous namespace)::hook26Parent>, GJBaseGameLayer> >&)::{lambda()#1}>, void ()>::target(std::type_info const&) const
FUNC db75c c 0 std::__ndk1::__function::__func<hook26<(anonymous namespace)::hook26Parent>::onModify<geode::modifier::ModifyBase<geode::modifier::ModifyDerive<hook26<(anonymous namespace)::hook26Parent>, GJBaseGameLayer> > >(geode::modifier::ModifyBase<geode::modifier::ModifyDerive<hook26<(anonymous namespace)::hook26Parent>, GJBaseGameLayer> >&)::{lambda()#1}, std::__ndk1::allocator<hook26<(anonymous namespace)::hook26Parent>::onModify<geode::modifier::ModifyBase<geode::modifier::ModifyDerive<hook26<(anonymous namespace)::hook26Parent>, GJBaseGameLayer> > >(geode::modifier::ModifyBase<geode::modifier::ModifyDerive<hook26<(anonymous namespace)::hook26Parent>, GJBaseGameLayer> >&)::{lambda()#1}>, void ()>::target_type() const
FUNC db768 20 0 geode::modifier::AsStaticFunction_hasUniqueCoin<hook26<(anonymous namespace)::hook26Parent>, bool (hook26<(anonymous namespace)::hook26Parent>::*)(EffectGameObject*)>::Impl<bool (hook26<(anonymous namespace)::hook26Parent>::*)(EffectGameObject*)>::function(hook26<(anonymous namespace)::hook26Parent>*, EffectGameObject*)
FUNC db788 2e0 0 geode::modifier::ModifyDerive<hook39<(anonymous namespace)::hook39Parent>, EnhancedGameObject>::apply()
FUNC dba68 2 0 geode::modifier::ModifyBase<geode::modifier::ModifyDerive<hook39<(anonymous namespace)::hook39Parent>, EnhancedGameObject> >::apply()
FUNC dba6c 2c 0 std::__ndk1::__function::__func<hook39<(anonymous namespace)::hook39Parent>::onModify<geode::modifier::ModifyBase<geode::modifier::ModifyDerive<hook39<(anonymous namespace)::hook39Parent>, EnhancedGameObject> > >(geode::modifier::ModifyBase<geode::modifier::ModifyDerive<hook39<(anonymous namespace)::hook39Parent>, EnhancedGameObject> >&)::{lambda()#1}, std::__ndk1::allocator<hook39<(anonymous namespace)::hook39Parent>::onModify<geode::modifier::ModifyBase<geode::modifier::ModifyDerive<hook39<(anonymous namespace)::hook39Parent>, EnhancedGameObject> > >(geode::modifier::ModifyBase<geode::modifier::ModifyDerive<hook39<(anonymous namespace)::hook39Parent>, EnhancedGameObject> >&)::{lambda()#1}>, void ()>::~__func()
FUNC dba98 30 0 std::__ndk1::__function::__func<hook39<(anonymous namespace)::hook39Parent>::onModify<geode::modifier::ModifyBase<geode::modifier::ModifyDerive<hook39<(anonymous namespace)::hook39Parent>, EnhancedGameObject> > >(geode::modifier::ModifyBase<geode::modifier::ModifyDerive<hook39<(anonymous namespace)::hook39Parent>, EnhancedGameObject> >&)::{lambda()#1}, std::__ndk1::allocator<hook39<(anonymous namespace)::hook39Parent>::onModify<geode::modifier::ModifyBase<geode::modifier::ModifyDerive<hook39<(anonymous namespace)::hook39Parent>, EnhancedGameObject> > >(geode::modifier::ModifyBase<geode::modifier::ModifyDerive<hook39<(anonymous namespace)::hook39Parent>, EnhancedGameObject> >&)::{lambda()#1}>, void ()>::~__func()
FUNC dbac8 7c 0 std::__ndk1::__function::__func<hook39<(anonymous namespace)::hook39Parent>::onModify<geode::modifier::ModifyBase<geode::modifier::ModifyDerive<hook39<(anonymous namespace)::hook39Parent>, EnhancedGameObject> > >(geode::modifier::ModifyBase<geode::modifier::ModifyDerive<hook39<(anonymous namespace)::hook39Parent>, EnhancedGameObject> >&)::{lambda()#1}, std::__ndk1::allocator<hook39<(anonymous namespace)::hook39Parent>::onModify<geode::modifier::ModifyBase<geode::modifier::ModifyDerive<hook39<(anonymous namespace)::hook39Parent>, EnhancedGameObject> > >(geode::modifier::ModifyBase<geode::modifier::ModifyDerive<hook39<(anonymous namespace)::hook39Parent>, EnhancedGameObject> >&)::{lambda()#1}>, void ()>::__clone() const
FUNC dbb44 70 0 std::__ndk1::__function::__func<hook39<(anonymous namespace)::hook39Parent>::onModify<geode::modifier::ModifyBase<geode::modifier::ModifyDerive<hook39<(anonymous namespace)::hook39Parent>, EnhancedGameObject> > >(geode::modifier::ModifyBase<geode::modifier::ModifyDerive<hook39<(anonymous namespace)::hook39Parent>, EnhancedGameObject> >&)::{lambda()#1}, std::__ndk1::allocator<hook39<(anonymous namespace)::hook39Parent>::onModify<geode::modifier::ModifyBase<geode::modifier::ModifyDerive<hook39<(anonymous namespace)::hook39Parent>, EnhancedGameObject> > >(geode::modifier::ModifyBase<geode::modifier::ModifyDerive<hook39<(anonymous namespace)::hook39Parent>, EnhancedGameObject> >&)::{lambda()#1}>, void ()>::__clone(std::__ndk1::__function::__base<void ()>*) const
FUNC dbbb4 10 0 std::__ndk1::__function::__func<hook39<(anonymous namespace)::hook39Parent>::onModify<geode::modifier::ModifyBase<geode::modifier::ModifyDerive<hook39<(anonymous namespace)::hook39Parent>, EnhancedGameObject> > >(geode::modifier::ModifyBase<geode::modifier::ModifyDerive<hook39<(anonymous namespace)::hook39Parent>, EnhancedGameObject> >&)::{lambda()#1}, std::__ndk1::allocator<hook39<(anonymous namespace)::hook39Parent>::onModify<geode::modifier::ModifyBase<geode::modifier::ModifyDerive<hook39<(anonymous namespace)::hook39Parent>, EnhancedGameObject> > >(geode::modifier::ModifyBase<geode::modifier::ModifyDerive<hook39<(anonymous namespace)::hook39Parent>, EnhancedGameObject> >&)::{lambda()#1}>, void ()>::destroy()
FUNC dbbc4 22 0 std::__ndk1::__function::__func<hook39<(anonymous namespace)::hook39Parent>::onModify<geode::modifier::ModifyBase<geode::modifier::ModifyDerive<hook39<(anonymous namespace)::hook39Parent>, EnhancedGameObject> > >(geode::modifier::ModifyBase<geode::modifier::ModifyDerive<hook39<(anonymous namespace)::hook39Parent>, EnhancedGameObject> >&)::{lambda()#1}, std::__ndk1::allocator<hook39<(anonymous namespace)::hook39Parent>::onModify<geode::modifier::ModifyBase<geode::modifier::ModifyDerive<hook39<(anonymous namespace)::hook39Parent>, EnhancedGameObject> > >(geode::modifier::ModifyBase<geode::modifier::ModifyDerive<hook39<(anonymous namespace)::hook39Parent>, EnhancedGameObject> >&)::{lambda()#1}>, void ()>::destroy_deallocate()
FUNC dbbe8 94 0 std::__ndk1::__function::__func<hook39<(anonymous namespace)::hook39Parent>::onModify<geode::modifier::ModifyBase<geode::modifier::ModifyDerive<hook39<(anonymous namespace)::hook39Parent>, EnhancedGameObject> > >(geode::modifier::ModifyBase<geode::modifier::ModifyDerive<hook39<(anonymous namespace)::hook39Parent>, EnhancedGameObject> >&)::{lambda()#1}, std::__ndk1::allocator<hook39<(anonymous namespace)::hook39Parent>::onModify<geode::modifier::ModifyBase<geode::modifier::ModifyDerive<hook39<(anonymous namespace)::hook39Parent>, EnhancedGameObject> > >(geode::modifier::ModifyBase<geode::modifier::ModifyDerive<hook39<(anonymous namespace)::hook39Parent>, EnhancedGameObject> >&)::{lambda()#1}>, void ()>::operator()()
FUNC dbc7c 18 0 std::__ndk1::__function::__func<hook39<(anonymous namespace)::hook39Parent>::onModify<geode::modifier::ModifyBase<geode::modifier::ModifyDerive<hook39<(anonymous namespace)::hook39Parent>, EnhancedGameObject> > >(geode::modifier::ModifyBase<geode::modifier::ModifyDerive<hook39<(anonymous namespace)::hook39Parent>, EnhancedGameObject> >&)::{lambda()#1}, std::__ndk1::allocator<hook39<(anonymous namespace)::hook39Parent>::onModify<geode::modifier::ModifyBase<geode::modifier::ModifyDerive<hook39<(anonymous namespace)::hook39Parent>, EnhancedGameObject> > >(geode::modifier::ModifyBase<geode::modifier::ModifyDerive<hook39<(anonymous namespace)::hook39Parent>, EnhancedGameObject> >&)::{lambda()#1}>, void ()>::target(std::type_info const&) const
FUNC dbc94 c 0 std::__ndk1::__function::__func<hook39<(anonymous namespace)::hook39Parent>::onModify<geode::modifier::ModifyBase<geode::modifier::ModifyDerive<hook39<(anonymous namespace)::hook39Parent>, EnhancedGameObject> > >(geode::modifier::ModifyBase<geode::modifier::ModifyDerive<hook39<(anonymous namespace)::hook39Parent>, EnhancedGameObject> >&)::{lambda()#1}, std::__ndk1::allocator<hook39<(anonymous namespace)::hook39Parent>::onModify<geode::modifier::ModifyBase<geode::modifier::ModifyDerive<hook39<(anonymous namespace)::hook39Parent>, EnhancedGameObject> > >(geode::modifier::ModifyBase<geode::modifier::ModifyDerive<hook39<(anonymous namespace)::hook39Parent>, EnhancedGameObject> >&)::{lambda()#1}>, void ()>::target_type() const
FUNC dbca0 7c 0 geode::modifier::AsStaticFunction_updateUserCoin<hook39<(anonymous namespace)::hook39Parent>, void (hook39<(anonymous namespace)::hook39Parent>::*)()>::Impl<void (hook39<(anonymous namespace)::hook39Parent>::*)()>::function(hook39<(anonymous namespace)::hook39Parent>*)
FUNC dbd20 3a4 0 geode::modifier::ModifyDerive<hook57<(anonymous namespace)::hook57Parent>, CCCircleWave>::apply()
FUNC dc0c4 2 0 geode::modifier::ModifyBase<geode::modifier::ModifyDerive<hook57<(anonymous namespace)::hook57Parent>, CCCircleWave> >::apply()
FUNC dc0c8 2c 0 std::__ndk1::__function::__func<hook57<(anonymous namespace)::hook57Parent>::onModify<geode::modifier::ModifyBase<geode::modifier::ModifyDerive<hook57<(anonymous namespace)::hook57Parent>, CCCircleWave> > >(geode::modifier::ModifyBase<geode::modifier::ModifyDerive<hook57<(anonymous namespace)::hook57Parent>, CCCircleWave> >&)::{lambda()#1}, std::__ndk1::allocator<hook57<(anonymous namespace)::hook57Parent>::onModify<geode::modifier::ModifyBase<geode::modifier::ModifyDerive<hook57<(anonymous namespace)::hook57Parent>, CCCircleWave> > >(geode::modifier::ModifyBase<geode::modifier::ModifyDerive<hook57<(anonymous namespace)::hook57Parent>, CCCircleWave> >&)::{lambda()#1}>, void ()>::~__func()
FUNC dc0f4 30 0 std::__ndk1::__function::__func<hook57<(anonymous namespace)::hook57Parent>::onModify<geode::modifier::ModifyBase<geode::modifier::ModifyDerive<hook57<(anonymous namespace)::hook57Parent>, CCCircleWave> > >(geode::modifier::ModifyBase<geode::modifier::ModifyDerive<hook57<(anonymous namespace)::hook57Parent>, CCCircleWave> >&)::{lambda()#1}, std::__ndk1::allocator<hook57<(anonymous namespace)::hook57Parent>::onModify<geode::modifier::ModifyBase<geode::modifier::ModifyDerive<hook57<(anonymous namespace)::hook57Parent>, CCCircleWave> > >(geode::modifier::ModifyBase<geode::modifier::ModifyDerive<hook57<(anonymous namespace)::hook57Parent>, CCCircleWave> >&)::{lambda()#1}>, void ()>::~__func()
FUNC dc124 7c 0 std::__ndk1::__function::__func<hook57<(anonymous namespace)::hook57Parent>::onModify<geode::modifier::ModifyBase<geode::modifier::ModifyDerive<hook57<(anonymous namespace)::hook57Parent>, CCCircleWave> > >(geode::modifier::ModifyBase<geode::modifier::ModifyDerive<hook57<(anonymous namespace)::hook57Parent>, CCCircleWave> >&)::{lambda()#1}, std::__ndk1::allocator<hook57<(anonymous namespace)::hook57Parent>::onModify<geode::modifier::ModifyBase<geode::modifier::ModifyDerive<hook57<(anonymous namespace)::hook57Parent>, CCCircleWave> > >(geode::modifier::ModifyBase<geode::modifier::ModifyDerive<hook57<(anonymous namespace)::hook57Parent>, CCCircleWave> >&)::{lambda()#1}>, void ()>::__clone() const
FUNC dc1a0 70 0 std::__ndk1::__function::__func<hook57<(anonymous namespace)::hook57Parent>::onModify<geode::modifier::ModifyBase<geode::modifier::ModifyDerive<hook57<(anonymous namespace)::hook57Parent>, CCCircleWave> > >(geode::modifier::ModifyBase<geode::modifier::ModifyDerive<hook57<(anonymous namespace)::hook57Parent>, CCCircleWave> >&)::{lambda()#1}, std::__ndk1::allocator<hook57<(anonymous namespace)::hook57Parent>::onModify<geode::modifier::ModifyBase<geode::modifier::ModifyDerive<hook57<(anonymous namespace)::hook57Parent>, CCCircleWave> > >(geode::modifier::ModifyBase<geode::modifier::ModifyDerive<hook57<(anonymous namespace)::hook57Parent>, CCCircleWave> >&)::{lambda()#1}>, void ()>::__clone(std::__ndk1::__function::__base<void ()>*) const
FUNC dc210 10 0 std::__ndk1::__function::__func<hook57<(anonymous namespace)::hook57Parent>::onModify<geode::modifier::ModifyBase<geode::modifier::ModifyDerive<hook57<(anonymous namespace)::hook57Parent>, CCCircleWave> > >(geode::modifier::ModifyBase<geode::modifier::ModifyDerive<hook57<(anonymous namespace)::hook57Parent>, CCCircleWave> >&)::{lambda()#1}, std::__ndk1::allocator<hook57<(anonymous namespace)::hook57Parent>::onModify<geode::modifier::ModifyBase<geode::modifier::ModifyDerive<hook57<(anonymous namespace)::hook57Parent>, CCCircleWave> > >(geode::modifier::ModifyBase<geode::modifier::ModifyDerive<hook57<(anonymous namespace)::hook57Parent>, CCCircleWave> >&)::{lambda()#1}>, void ()>::destroy()
FUNC dc220 22 0 std::__ndk1::__function::__func<hook57<(anonymous namespace)::hook57Parent>::onModify<geode::modifier::ModifyBase<geode::modifier::ModifyDerive<hook57<(anonymous namespace)::hook57Parent>, CCCircleWave> > >(geode::modifier::ModifyBase<geode::modifier::ModifyDerive<hook57<(anonymous namespace)::hook57Parent>, CCCircleWave> >&)::{lambda()#1}, std::__ndk1::allocator<hook57<(anonymous namespace)::hook57Parent>::onModify<geode::modifier::ModifyBase<geode::modifier::ModifyDerive<hook57<(anonymous namespace)::hook57Parent>, CCCircleWave> > >(geode::modifier::ModifyBase<geode::modifier::ModifyDerive<hook57<(anonymous namespace)::hook57Parent>, CCCircleWave> >&)::{lambda()#1}>, void ()>::destroy_deallocate()
