MODULE Linux arm64 9E93A9A5FF36901BB78B6BE11415EDA90 logon.betterstats.android64.so
INFO CODE_ID A5A9939E36FF1B90B78B6BE11415EDA956C37D71
INFO GENERATOR mozilla/dump_syms 2.3.4
PUBLIC dfb0 0 __on_dlclose
PUBLIC dfc0 0 __emutls_unregister_key
PUBLIC dfc8 0 __on_dlclose_late
PUBLIC dfd0 0 __atexit_handler_wrapper
PUBLIC dfe4 0 atexit
PUBLIC e000 0 pthread_atfork
PUBLIC e010 0 unwind_phase2
PUBLIC e144 0 _Unwind_Resume
PUBLIC e1c8 0 unwind_phase2_forced
PUBLIC m e2bc 0 __unw_init_local
PUBLIC m e364 0 __unw_get_reg
PUBLIC e3e0 0 __unw_step_stage2
PUBLIC m e3f4 0 __unw_get_proc_info
PUBLIC m e434 0 __unw_resume
PUBLIC e45c 0 libunwind::CFI_Parser<libunwind::LocalAddressSpace>::decodeFDE(libunwind::LocalAddressSpace&, unsigned long, libunwind::CFI_Parser<libunwind::LocalAddressSpace>::FDE_Info*, libunwind::CFI_Parser<libunwind::LocalAddressSpace>::CIE_Info*, bool)
PUBLIC e5ec 0 libunwind::CFI_Parser<libunwind::LocalAddressSpace>::parseCIE(libunwind::LocalAddressSpace&, unsigned long, libunwind::CFI_Parser<libunwind::LocalAddressSpace>::CIE_Info*)
PUBLIC e8b4 0 libunwind::AbstractUnwindCursor::~AbstractUnwindCursor()
PUBLIC e8bc 0 libunwind::UnwindCursor<libunwind::LocalAddressSpace, libunwind::Registers_arm64>::~UnwindCursor()
PUBLIC e8c4 0 libunwind::UnwindCursor<libunwind::LocalAddressSpace, libunwind::Registers_arm64>::validReg(int)
PUBLIC e908 0 libunwind::UnwindCursor<libunwind::LocalAddressSpace, libunwind::Registers_arm64>::getReg(int)
PUBLIC e9f0 0 libunwind::UnwindCursor<libunwind::LocalAddressSpace, libunwind::Registers_arm64>::setReg(int, unsigned long)
PUBLIC ead8 0 libunwind::UnwindCursor<libunwind::LocalAddressSpace, libunwind::Registers_arm64>::validFloatReg(int)
PUBLIC eaec 0 libunwind::UnwindCursor<libunwind::LocalAddressSpace, libunwind::Registers_arm64>::getFloatReg(int)
PUBLIC eafc 0 libunwind::UnwindCursor<libunwind::LocalAddressSpace, libunwind::Registers_arm64>::setFloatReg(int, double)
PUBLIC eb0c 0 libunwind::UnwindCursor<libunwind::LocalAddressSpace, libunwind::Registers_arm64>::step(bool)
PUBLIC ebfc 0 libunwind::UnwindCursor<libunwind::LocalAddressSpace, libunwind::Registers_arm64>::getInfo(unw_proc_info_t*)
PUBLIC ec40 0 libunwind::UnwindCursor<libunwind::LocalAddressSpace, libunwind::Registers_arm64>::jumpto()
PUBLIC ec4c 0 libunwind::UnwindCursor<libunwind::LocalAddressSpace, libunwind::Registers_arm64>::isSignalFrame()
PUBLIC ec58 0 libunwind::UnwindCursor<libunwind::LocalAddressSpace, libunwind::Registers_arm64>::getFunctionName(char*, unsigned long, unsigned long*)
PUBLIC ec84 0 libunwind::UnwindCursor<libunwind::LocalAddressSpace, libunwind::Registers_arm64>::setInfoBasedOnIPRegister(bool)
PUBLIC ef04 0 libunwind::UnwindCursor<libunwind::LocalAddressSpace, libunwind::Registers_arm64>::getRegisterName(int)
PUBLIC ef10 0 libunwind::UnwindCursor<libunwind::LocalAddressSpace, libunwind::Registers_arm64>::stepThroughSigReturn(libunwind::Registers_arm64&)
PUBLIC f030 0 libunwind::DwarfInstructions<libunwind::LocalAddressSpace, libunwind::Registers_arm64>::stepWithDwarf(libunwind::LocalAddressSpace&, unsigned long, unsigned long, libunwind::Registers_arm64&, bool&, bool)
PUBLIC f4b8 0 libunwind::CFI_Parser<libunwind::LocalAddressSpace>::parseFDEInstructions(libunwind::LocalAddressSpace&, libunwind::CFI_Parser<libunwind::LocalAddressSpace>::FDE_Info const&, libunwind::CFI_Parser<libunwind::LocalAddressSpace>::CIE_Info const&, unsigned long, int, libunwind::CFI_Parser<libunwind::LocalAddressSpace>::PrologInfo*)
PUBLIC 10100 0 libunwind::DwarfInstructions<libunwind::LocalAddressSpace, libunwind::Registers_arm64>::getCFA(libunwind::LocalAddressSpace&, libunwind::CFI_Parser<libunwind::LocalAddressSpace>::PrologInfo const&, libunwind::Registers_arm64 const&)
PUBLIC 10234 0 libunwind::DwarfInstructions<libunwind::LocalAddressSpace, libunwind::Registers_arm64>::getSavedRegister(libunwind::LocalAddressSpace&, libunwind::Registers_arm64 const&, unsigned long, libunwind::CFI_Parser<libunwind::LocalAddressSpace>::RegisterLocation const&)
PUBLIC 10444 0 libunwind::LocalAddressSpace::getEncodedP(unsigned long&, unsigned long, unsigned char, unsigned long)
PUBLIC 107d0 0 libunwind::LocalAddressSpace::getULEB128(unsigned long&, unsigned long)
PUBLIC 10998 0 libunwind::DwarfInstructions<libunwind::LocalAddressSpace, libunwind::Registers_arm64>::evaluateExpression(unsigned long, libunwind::LocalAddressSpace&, libunwind::Registers_arm64 const&, unsigned long)
PUBLIC 11354 0 libunwind::UnwindCursor<libunwind::LocalAddressSpace, libunwind::Registers_arm64>::getInfoFromDwarfSection(unsigned long, libunwind::UnwindInfoSections const&, unsigned int)
PUBLIC 11628 0 libunwind::findUnwindSectionsByPhdr(dl_phdr_info*, unsigned long, void*)
PUBLIC 1175c 0 libunwind::EHHeaderParser<libunwind::LocalAddressSpace>::decodeEHHdr(libunwind::LocalAddressSpace&, unsigned long, unsigned long, libunwind::EHHeaderParser<libunwind::LocalAddressSpace>::EHHeaderInfo&)
PUBLIC 1187c 0 libunwind::CFI_Parser<libunwind::LocalAddressSpace>::findFDE(libunwind::LocalAddressSpace&, unsigned long, unsigned long, unsigned long, unsigned long, libunwind::CFI_Parser<libunwind::LocalAddressSpace>::FDE_Info*, libunwind::CFI_Parser<libunwind::LocalAddressSpace>::CIE_Info*)
PUBLIC 11a44 0 libunwind::EHHeaderParser<libunwind::LocalAddressSpace>::findFDE(libunwind::LocalAddressSpace&, unsigned long, unsigned long, unsigned int, libunwind::CFI_Parser<libunwind::LocalAddressSpace>::FDE_Info*, libunwind::CFI_Parser<libunwind::LocalAddressSpace>::CIE_Info*)
PUBLIC 11bac 0 libunwind::EHHeaderParser<libunwind::LocalAddressSpace>::getTableEntrySize(unsigned char)
PUBLIC 11ca8 0 libunwind::Registers_arm64::getRegisterName(int)
PUBLIC 11cd8 0 __libunwind_Registers_arm64_jumpto
PUBLIC m 11d68 0 __unw_getcontext
PUBLIC 11e10 0 __aarch64_ldadd8_relax
PUBLIC 11e40 0 init_have_lse_atomics
PUBLIC 11ed8 0 __init_cpu_features_constructor
PUBLIC 12474 0 __init_cpu_features
PUBLIC 12500 0 __aarch64_ldadd8_acq_rel
PUBLIC 12530 0 __cxx_global_var_init
PUBLIC 129b0 0 geode::modifier::ModifyBase<geode::modifier::ModifyDerive<MyEditLevelLayer, EditLevelLayer> >::~ModifyBase()
PUBLIC 129cc 0 geode::modifier::ModifyDerive<MyEditLevelLayer, EditLevelLayer>::apply()
PUBLIC 12d38 0 std::__ndk1::shared_ptr<geode::Hook>::~shared_ptr[abi:ne180000]()
PUBLIC 12d88 0 geode::impl::ResultData<geode::Hook*, std::__ndk1::basic_string<char, std::__ndk1::char_traits<char>, std::__ndk1::allocator<char> > >::~ResultData()
PUBLIC 12dfc 0 std::__ndk1::vector<std::__ndk1::basic_string<char, std::__ndk1::char_traits<char>, std::__ndk1::allocator<char> >, std::__ndk1::allocator<std::__ndk1::basic_string<char, std::__ndk1::char_traits<char>, std::__ndk1::allocator<char> > > >::~vector[abi:ne180000]()
PUBLIC 12e78 0 geode::modifier::ModifyBase<geode::modifier::ModifyDerive<MyEditLevelLayer, EditLevelLayer> >::apply()
PUBLIC 12e7c 0 __clang_call_terminate
PUBLIC 12e8c 0 _ZN5geode15UnwrapExceptionC2IRPNS_4HookEQsr4implE18IsStringStreamableIT_EEENS_4impl5OkTagEOS5_
PUBLIC 12fe0 0 std::__ndk1::__throw_bad_variant_access[abi:ne180000]()
PUBLIC 13014 0 std::__ndk1::basic_stringstream<char, std::__ndk1::char_traits<char>, std::__ndk1::allocator<char> >::basic_stringstream[abi:ne180000]()
PUBLIC m 13140 0 std::__ndk1::basic_stringstream<char, std::__ndk1::char_traits<char>, std::__ndk1::allocator<char> >::~basic_stringstream()
PUBLIC 131c0 0 geode::UnwrapException::~UnwrapException()
PUBLIC 131e4 0 std::__ndk1::__put_character_sequence[abi:ne180000]<char, std::__ndk1::char_traits<char> >(std::__ndk1::basic_ostream<char, std::__ndk1::char_traits<char> >, std::__ndk1::basic_ostream const*, unsigned long)
PUBLIC 13388 0 std::__ndk1::__pad_and_output[abi:ne180000]<char, std::__ndk1::char_traits<char> >(std::__ndk1::char_traits<char>, std::__ndk1::ostreambuf_iterator const*, std::__ndk1::ostreambuf_iterator const, std::__ndk1::ostreambuf_iterator const, std::__ndk1::ios_base&, std::__ndk1::ostreambuf_iterator)
PUBLIC 13564 0 std::__ndk1::basic_string<char, std::__ndk1::char_traits<char>, std::__ndk1::allocator<char> >::__throw_length_error[abi:ne180000]() const
PUBLIC 13578 0 std::__ndk1::__throw_length_error[abi:ne180000](char const*)
PUBLIC 135c8 0 std::length_error::length_error[abi:ne180000](char const*)
PUBLIC 135f8 0 std::__throw_bad_array_new_length([abi:ne180000], void)
PUBLIC 1362c 0 std::__ndk1::basic_stringbuf<char, std::__ndk1::char_traits<char>, std::__ndk1::allocator<char> >::str[abi:ne180000]() &&
PUBLIC 137a4 0 std::__ndk1::basic_stringbuf<char, std::__ndk1::char_traits<char>, std::__ndk1::allocator<char> >::__init_buf_ptrs[abi:ne180000]()
PUBLIC 138ec 0 std::__ndk1::vector<std::__ndk1::basic_string<char, std::__ndk1::char_traits<char>, std::__ndk1::allocator<char> >, std::__ndk1::allocator<std::__ndk1::basic_string<char, std::__ndk1::char_traits<char>, std::__ndk1::allocator<char> > > >::__push_back_slow_path<std::__ndk1::basic_string<char, std::__ndk1::char_traits<char>, std::__ndk1::allocator<char> > const&>(std::__ndk1::basic_string<char, std::__ndk1::char_traits<char>, std::__ndk1::allocator<char> > const&)
PUBLIC 13b14 0 std::__ndk1::basic_string<char, std::__ndk1::char_traits<char>, std::__ndk1::allocator<char> >::__init_copy_ctor_external(char const*, unsigned long)
PUBLIC 13b94 0 std::__ndk1::__split_buffer<std::__ndk1::basic_string<char, std::__ndk1::char_traits<char>, std::__ndk1::allocator<char> >, std::__ndk1::allocator<std::__ndk1::basic_string<char, std::__ndk1::char_traits<char>, std::__ndk1::allocator<char> > >&>::~__split_buffer()
PUBLIC 13bfc 0 std::__ndk1::vector<std::__ndk1::basic_string<char, std::__ndk1::char_traits<char>, std::__ndk1::allocator<char> >, std::__ndk1::allocator<std::__ndk1::basic_string<char, std::__ndk1::char_traits<char>, std::__ndk1::allocator<char> > > >::__throw_length_error[abi:ne180000]() const
PUBLIC 13c10 0 std::__ndk1::__variant_detail::__visitation::__base::__dispatcher<(unsigned long)0>::__dispatch[abi:ne180000]<std::__ndk1::__variant_detail::__dtor<std::__ndk1::__variant_detail::__traits<geode::Hook*, std::__ndk1::basic_string<char, std::__ndk1::char_traits<char>, std::__ndk1::allocator<char> > >, (std::__ndk1::__variant_detail::_Trait)1>::__destroy[abi:ne180000]()::{lambda(auto:1&)#1}, std::__ndk1::__variant_detail::__base<(std::__ndk1::__variant_detail::__traits<geode::Hook*, std::__ndk1::basic_string<char, std::__ndk1::char_traits<char>, std::__ndk1::allocator<char> > >)1, geode::Hook, std::__ndk1::allocator<char> >&>(std::__ndk1::__variant_detail::__dtor<std::__ndk1::__variant_detail::__traits<geode::Hook*, std::__ndk1::basic_string<char, std::__ndk1::char_traits<char>, std::__ndk1::allocator<char> > >, (std::__ndk1::__variant_detail::_Trait)1>, std::__ndk1::__variant_detail::__base<(std::__ndk1::__variant_detail::__traits<geode::Hook*, std::__ndk1::basic_string<char, std::__ndk1::char_traits<char>, std::__ndk1::allocator<char> > >)1, geode::Hook, std::__ndk1::allocator<char> >&)
PUBLIC 13c14 0 std::__ndk1::__variant_detail::__visitation::__base::__dispatcher<(unsigned long)1>::__dispatch[abi:ne180000]<std::__ndk1::__variant_detail::__dtor<std::__ndk1::__variant_detail::__traits<geode::Hook*, std::__ndk1::basic_string<char, std::__ndk1::char_traits<char>, std::__ndk1::allocator<char> > >, (std::__ndk1::__variant_detail::_Trait)1>::__destroy[abi:ne180000]()::{lambda(auto:1&)#1}, std::__ndk1::__variant_detail::__base<(std::__ndk1::__variant_detail::__traits<geode::Hook*, std::__ndk1::basic_string<char, std::__ndk1::char_traits<char>, std::__ndk1::allocator<char> > >)1, geode::Hook, std::__ndk1::allocator<char> >&>(std::__ndk1::__variant_detail::__dtor<std::__ndk1::__variant_detail::__traits<geode::Hook*, std::__ndk1::basic_string<char, std::__ndk1::char_traits<char>, std::__ndk1::allocator<char> > >, (std::__ndk1::__variant_detail::_Trait)1>, std::__ndk1::__variant_detail::__base<(std::__ndk1::__variant_detail::__traits<geode::Hook*, std::__ndk1::basic_string<char, std::__ndk1::char_traits<char>, std::__ndk1::allocator<char> > >)1, geode::Hook, std::__ndk1::allocator<char> >&)
PUBLIC 13c28 0 std::__ndk1::__tree<std::__ndk1::__value_type<std::__ndk1::basic_string<char, std::__ndk1::char_traits<char>, std::__ndk1::allocator<char> >, std::__ndk1::shared_ptr<geode::Hook> >, std::__ndk1::__map_value_compare<std::__ndk1::basic_string<char, std::__ndk1::char_traits<char>, std::__ndk1::allocator<char> >, std::__ndk1::__value_type<std::__ndk1::basic_string<char, std::__ndk1::char_traits<char>, std::__ndk1::allocator<char> >, std::__ndk1::shared_ptr<geode::Hook> >, std::__ndk1::less<std::__ndk1::basic_string<char, std::__ndk1::char_traits<char>, std::__ndk1::allocator<char> > >, true>, std::__ndk1::allocator<std::__ndk1::__value_type<std::__ndk1::basic_string<char, std::__ndk1::char_traits<char>, std::__ndk1::allocator<char> >, std::__ndk1::shared_ptr<geode::Hook> > > >::find<std::__ndk1::basic_string<char, std::__ndk1::char_traits<char>, std::__ndk1::allocator<char> > >(std::__ndk1::basic_string<char, std::__ndk1::char_traits<char>, std::__ndk1::allocator<char> > const&)
PUBLIC 13d48 0 std::__ndk1::__tree<std::__ndk1::__value_type<std::__ndk1::basic_string<char, std::__ndk1::char_traits<char>, std::__ndk1::allocator<char> >, std::__ndk1::shared_ptr<geode::Hook> >, std::__ndk1::__map_value_compare<std::__ndk1::basic_string<char, std::__ndk1::char_traits<char>, std::__ndk1::allocator<char> >, std::__ndk1::__value_type<std::__ndk1::basic_string<char, std::__ndk1::char_traits<char>, std::__ndk1::allocator<char> >, std::__ndk1::shared_ptr<geode::Hook> >, std::__ndk1::less<std::__ndk1::basic_string<char, std::__ndk1::char_traits<char>, std::__ndk1::allocator<char> > >, true>, std::__ndk1::allocator<std::__ndk1::__value_type<std::__ndk1::basic_string<char, std::__ndk1::char_traits<char>, std::__ndk1::allocator<char> >, std::__ndk1::shared_ptr<geode::Hook> > > >::erase(std::__ndk1::__tree_const_iterator<std::__ndk1::__value_type<std::__ndk1::basic_string<char, std::__ndk1::char_traits<char>, std::__ndk1::allocator<char> >, std::__ndk1::shared_ptr<geode::Hook> >, std::__ndk1::__tree_node<std::__ndk1::__value_type<std::__ndk1::basic_string<char, std::__ndk1::char_traits<char>, std::__ndk1::allocator<char> >, std::__ndk1::shared_ptr<geode::Hook> >, void*>*, long>)
PUBLIC 13e1c 0 std::__ndk1::__tree_remove[abi:ne180000]<std::__ndk1::__tree_node_base<void*>*>(std::__ndk1::__tree_node_base<void*>*, std::__ndk1::__tree_node_base<void*>*)
PUBLIC 141e4 0 std::__ndk1::__tree<std::__ndk1::__value_type<std::__ndk1::basic_string<char, std::__ndk1::char_traits<char>, std::__ndk1::allocator<char> >, std::__ndk1::shared_ptr<geode::Hook> >, std::__ndk1::__map_value_compare<std::__ndk1::basic_string<char, std::__ndk1::char_traits<char>, std::__ndk1::allocator<char> >, std::__ndk1::__value_type<std::__ndk1::basic_string<char, std::__ndk1::char_traits<char>, std::__ndk1::allocator<char> >, std::__ndk1::shared_ptr<geode::Hook> >, std::__ndk1::less<std::__ndk1::basic_string<char, std::__ndk1::char_traits<char>, std::__ndk1::allocator<char> > >, true>, std::__ndk1::allocator<std::__ndk1::__value_type<std::__ndk1::basic_string<char, std::__ndk1::char_traits<char>, std::__ndk1::allocator<char> >, std::__ndk1::shared_ptr<geode::Hook> > > >::destroy(std::__ndk1::__tree_node<std::__ndk1::__value_type<std::__ndk1::basic_string<char, std::__ndk1::char_traits<char>, std::__ndk1::allocator<char> >, std::__ndk1::shared_ptr<geode::Hook> >, void*>*)
PUBLIC 14270 0 geode::modifier::AsStaticFunction_init<MyEditLevelLayer, bool (MyEditLevelLayer::*)(GJGameLevel*)>::Impl<bool (MyEditLevelLayer::*)(GJGameLevel*)>::function(MyEditLevelLayer*, GJGameLevel*)
PUBLIC 1438c 0 std::__ndk1::shared_ptr<tulip::hook::CallingConvention>::~shared_ptr[abi:ne180000]()
PUBLIC 143dc 0 tulip::hook::HandlerMetadata::~HandlerMetadata()
PUBLIC 14440 0 MyEditLevelLayer::myoninfoBtn(cocos2d::CCObject*)
PUBLIC 14708 0 std::__ndk1::__tree<std::__ndk1::__value_type<std::__ndk1::basic_string<char, std::__ndk1::char_traits<char>, std::__ndk1::allocator<char> >, std::__ndk1::shared_ptr<geode::Hook> >, std::__ndk1::__map_value_compare<std::__ndk1::basic_string<char, std::__ndk1::char_traits<char>, std::__ndk1::allocator<char> >, std::__ndk1::__value_type<std::__ndk1::basic_string<char, std::__ndk1::char_traits<char>, std::__ndk1::allocator<char> >, std::__ndk1::shared_ptr<geode::Hook> >, std::__ndk1::less<std::__ndk1::basic_string<char, std::__ndk1::char_traits<char>, std::__ndk1::allocator<char> > >, true>, std::__ndk1::allocator<std::__ndk1::__value_type<std::__ndk1::basic_string<char, std::__ndk1::char_traits<char>, std::__ndk1::allocator<char> >, std::__ndk1::shared_ptr<geode::Hook> > > >::__emplace_unique_key_args<std::__ndk1::basic_string<char, std::__ndk1::char_traits<char>, std::__ndk1::allocator<char> >, std::__ndk1::piecewise_construct_t const&, std::__ndk1::tuple<std::__ndk1::basic_string<char, std::__ndk1::char_traits<char>, std::__ndk1::allocator<char> >&&>, std::__ndk1::tuple<> >(std::__ndk1::basic_string<char, std::__ndk1::char_traits<char>, std::__ndk1::allocator<char> > const&, std::__ndk1::piecewise_construct_t const&, std::__ndk1::tuple<std::__ndk1::basic_string<char, std::__ndk1::char_traits<char>, std::__ndk1::allocator<char> >&&>, std::__ndk1::tuple<>)
PUBLIC 14880 0 std::__ndk1::__tree_balance_after_insert[abi:ne180000]<std::__ndk1::__tree_node_base<void*>*>(std::__ndk1::__tree_node_base<void*>*, std::__ndk1::__tree_node_base<void*>*)
PUBLIC 14a30 0 __cxx_global_var_init
PUBLIC 14eb0 0 geode::modifier::ModifyBase<geode::modifier::ModifyDerive<MyLevelInfoLayer, LevelInfoLayer> >::~ModifyBase()
PUBLIC 14ecc 0 geode::modifier::ModifyDerive<MyLevelInfoLayer, LevelInfoLayer>::apply()
PUBLIC 1527c 0 geode::modifier::ModifyBase<geode::modifier::ModifyDerive<MyLevelInfoLayer, LevelInfoLayer> >::apply()
PUBLIC 15280 0 geode::modifier::AsStaticFunction_init<MyLevelInfoLayer, bool (MyLevelInfoLayer::*)(GJGameLevel*, bool)>::Impl<bool (MyLevelInfoLayer::*)(GJGameLevel*, bool)>::function(MyLevelInfoLayer*, GJGameLevel*, bool)
PUBLIC 153ac 0 std::__ndk1::vector<tulip::hook::AbstractType, std::__ndk1::allocator<tulip::hook::AbstractType> >::__throw_length_error[abi:ne180000]() const
PUBLIC 153c0 0 MyLevelInfoLayer::myoninfoBtn(cocos2d::CCObject*)
PUBLIC 15688 0 __cxx_global_var_init
PUBLIC 15b08 0 geode::modifier::ModifyBase<geode::modifier::ModifyDerive<MyLevelSelectLayer, LevelSelectLayer> >::~ModifyBase()
PUBLIC 15b24 0 geode::modifier::ModifyDerive<MyLevelSelectLayer, LevelSelectLayer>::apply()
PUBLIC 161b4 0 geode::modifier::ModifyBase<geode::modifier::ModifyDerive<MyLevelSelectLayer, LevelSelectLayer> >::apply()
PUBLIC 161b8 0 geode::modifier::AsStaticFunction_updatePageWithObject<MyLevelSelectLayer, void (MyLevelSelectLayer::*)(cocos2d::CCObject*, cocos2d::CCObject*)>::Impl<void (MyLevelSelectLayer::*)(cocos2d::CCObject*, cocos2d::CCObject*)>::function(MyLevelSelectLayer*, cocos2d::CCObject*, cocos2d::CCObject*)
PUBLIC 16210 0 geode::modifier::AsStaticFunction_init<MyLevelSelectLayer, bool (MyLevelSelectLayer::*)(int)>::Impl<bool (MyLevelSelectLayer::*)(int)>::function(MyLevelSelectLayer*, int)
PUBLIC 1632c 0 geode::addresser::Addresser::addressOfVirtual<void, LevelSelectLayer, cocos2d::CCObject*, cocos2d::CCObject*>(void (LevelSelectLayer::*)(cocos2d::CCObject*, cocos2d::CCObject*))
PUBLIC 163d4 0 LevelSelectLayer::LevelSelectLayer(geode::ZeroConstructorType)
PUBLIC 16470 0 std::__ndk1::__throw_out_of_range[abi:ne180000](char const*)
PUBLIC 164c0 0 std::out_of_range::out_of_range[abi:ne180000](char const*)
PUBLIC 164f0 0 MyLevelSelectLayer::myoninfoBtn(cocos2d::CCObject*)
PUBLIC 16818 0 __cxx_global_var_init
PUBLIC 16c54 0 geode::modifier::ModifyBase<geode::modifier::ModifyDerive<hook17<(anonymous namespace)::hook17Parent>, PlayLayer> >::~ModifyBase()
PUBLIC 16c70 0 geode::modifier::ModifyDerive<hook17<(anonymous namespace)::hook17Parent>, PlayLayer>::apply()
PUBLIC 17ae0 0 geode::modifier::ModifyBase<geode::modifier::ModifyDerive<hook17<(anonymous namespace)::hook17Parent>, PlayLayer> >::apply()
PUBLIC 17ae4 0 geode::modifier::AsStaticFunction_init<hook17<(anonymous namespace)::hook17Parent>, bool (hook17<(anonymous namespace)::hook17Parent>::*)(GJGameLevel*, bool, bool)>::Impl<bool (hook17<(anonymous namespace)::hook17Parent>::*)(GJGameLevel*, bool, bool)>::function(hook17<(anonymous namespace)::hook17Parent>*, GJGameLevel*, bool, bool)
PUBLIC 17b34 0 geode::Hook::create<void (*)(hook17<(anonymous namespace)::hook17Parent>*)>(void*, void (*)(hook17<(anonymous namespace)::hook17Parent>*), std::__ndk1::basic_string<char, std::__ndk1::char_traits<char>, std::__ndk1::allocator<char> > const&, tulip::hook::TulipConvention, tulip::hook::HookMetadata const&)
PUBLIC 17c68 0 geode::modifier::AsStaticFunction_levelComplete<hook17<(anonymous namespace)::hook17Parent>, void (hook17<(anonymous namespace)::hook17Parent>::*)()>::Impl<void (hook17<(anonymous namespace)::hook17Parent>::*)()>::function(hook17<(anonymous namespace)::hook17Parent>*)
PUBLIC 17cac 0 geode::modifier::AsStaticFunction_onQuit<hook17<(anonymous namespace)::hook17Parent>, void (hook17<(anonymous namespace)::hook17Parent>::*)()>::Impl<void (hook17<(anonymous namespace)::hook17Parent>::*)()>::function(hook17<(anonymous namespace)::hook17Parent>*)
PUBLIC 17d80 0 geode::modifier::AsStaticFunction_resetLevel<hook17<(anonymous namespace)::hook17Parent>, void (hook17<(anonymous namespace)::hook17Parent>::*)()>::Impl<void (hook17<(anonymous namespace)::hook17Parent>::*)()>::function(hook17<(anonymous namespace)::hook17Parent>*)
PUBLIC 17dfc 0 geode::modifier::AsStaticFunction_togglePracticeMode<hook17<(anonymous namespace)::hook17Parent>, void (hook17<(anonymous namespace)::hook17Parent>::*)(bool)>::Impl<void (hook17<(anonymous namespace)::hook17Parent>::*)(bool)>::function(hook17<(anonymous namespace)::hook17Parent>*, bool)
PUBLIC 17e40 0 geode::modifier::AsStaticFunction_updateAttempts<hook17<(anonymous namespace)::hook17Parent>, void (hook17<(anonymous namespace)::hook17Parent>::*)()>::Impl<void (hook17<(anonymous namespace)::hook17Parent>::*)()>::function(hook17<(anonymous namespace)::hook17Parent>*)
PUBLIC 17e68 0 dataText(GJGameLevel*, LevelData const&)
PUBLIC 18c8c 0 levelValue(GJGameLevel*)
PUBLIC 19104 0 loadData(GJGameLevel*)
PUBLIC 19498 0 geode::Mod::getSavedValue<LevelData>(std::__ndk1::basic_string_view<char, std::__ndk1::char_traits<char> >)
PUBLIC 19ba8 0 geode::Mod::setSavedValue<LevelData>(std::__ndk1::basic_string_view<char, std::__ndk1::char_traits<char> >, LevelData const&)
PUBLIC 19ca0 0 saveData(GJGameLevel*, LevelData const&)
PUBLIC 19df0 0 std::__ndk1::__variant_detail::__visitation::__base::__dispatcher<(unsigned long)0>::__dispatch[abi:ne180000]<std::__ndk1::__variant_detail::__dtor<std::__ndk1::__variant_detail::__traits<std::__ndk1::monostate, std::__ndk1::basic_string<char, std::__ndk1::char_traits<char>, std::__ndk1::allocator<char> > >, (std::__ndk1::__variant_detail::_Trait)1>::__destroy[abi:ne180000]()::{lambda(auto:1&)#1}, std::__ndk1::__variant_detail::__base<(std::__ndk1::__variant_detail::__traits<std::__ndk1::monostate, std::__ndk1::basic_string<char, std::__ndk1::char_traits<char>, std::__ndk1::allocator<char> > >)1, std::__ndk1::__variant_detail::__traits, std::__ndk1::allocator<char> >&>(std::__ndk1::__variant_detail::__dtor<std::__ndk1::__variant_detail::__traits<std::__ndk1::monostate, std::__ndk1::basic_string<char, std::__ndk1::char_traits<char>, std::__ndk1::allocator<char> > >, (std::__ndk1::__variant_detail::_Trait)1>, std::__ndk1::__variant_detail::__base<(std::__ndk1::__variant_detail::__traits<std::__ndk1::monostate, std::__ndk1::basic_string<char, std::__ndk1::char_traits<char>, std::__ndk1::allocator<char> > >)1, std::__ndk1::__variant_detail::__traits, std::__ndk1::allocator<char> >&)
PUBLIC 19df4 0 std::__ndk1::__variant_detail::__visitation::__base::__dispatcher<(unsigned long)1>::__dispatch[abi:ne180000]<std::__ndk1::__variant_detail::__dtor<std::__ndk1::__variant_detail::__traits<std::__ndk1::monostate, std::__ndk1::basic_string<char, std::__ndk1::char_traits<char>, std::__ndk1::allocator<char> > >, (std::__ndk1::__variant_detail::_Trait)1>::__destroy[abi:ne180000]()::{lambda(auto:1&)#1}, std::__ndk1::__variant_detail::__base<(std::__ndk1::__variant_detail::__traits<std::__ndk1::monostate, std::__ndk1::basic_string<char, std::__ndk1::char_traits<char>, std::__ndk1::allocator<char> > >)1, std::__ndk1::__variant_detail::__traits, std::__ndk1::allocator<char> >&>(std::__ndk1::__variant_detail::__dtor<std::__ndk1::__variant_detail::__traits<std::__ndk1::monostate, std::__ndk1::basic_string<char, std::__ndk1::char_traits<char>, std::__ndk1::allocator<char> > >, (std::__ndk1::__variant_detail::_Trait)1>, std::__ndk1::__variant_detail::__base<(std::__ndk1::__variant_detail::__traits<std::__ndk1::monostate, std::__ndk1::basic_string<char, std::__ndk1::char_traits<char>, std::__ndk1::allocator<char> > >)1, std::__ndk1::__variant_detail::__traits, std::__ndk1::allocator<char> >&)
PUBLIC 19e08 0 geode::impl::ResultData<matjson::Value&, std::__ndk1::basic_string<char, std::__ndk1::char_traits<char>, std::__ndk1::allocator<char> > >::~ResultData()
PUBLIC 19e7c 0 geode::impl::ResultData<double, std::__ndk1::basic_string<char, std::__ndk1::char_traits<char>, std::__ndk1::allocator<char> > >::~ResultData()
PUBLIC 19ef0 0 geode::impl::ResultData<long, std::__ndk1::basic_string<char, std::__ndk1::char_traits<char>, std::__ndk1::allocator<char> > >::~ResultData()
PUBLIC 19f64 0 _ZN5geode15UnwrapExceptionC2IRNSt6__ndk112basic_stringIcNS2_11char_traitsIcEENS2_9allocatorIcEEEEQsr4implE18IsStringStreamableIT_EEENS_4impl6ErrTagEOSA_
PUBLIC 1a0cc 0 std::__ndk1::__variant_detail::__visitation::__base::__dispatcher<(unsigned long)0>::__dispatch[abi:ne180000]<std::__ndk1::__variant_detail::__dtor<std::__ndk1::__variant_detail::__traits<double, std::__ndk1::basic_string<char, std::__ndk1::char_traits<char>, std::__ndk1::allocator<char> > >, (std::__ndk1::__variant_detail::_Trait)1>::__destroy[abi:ne180000]()::{lambda(auto:1&)#1}, std::__ndk1::__variant_detail::__base<(std::__ndk1::__variant_detail::__traits<double, std::__ndk1::basic_string<char, std::__ndk1::char_traits<char>, std::__ndk1::allocator<char> > >)1, double, std::__ndk1::allocator<char> >&>(std::__ndk1::__variant_detail::__dtor<std::__ndk1::__variant_detail::__traits<double, std::__ndk1::basic_string<char, std::__ndk1::char_traits<char>, std::__ndk1::allocator<char> > >, (std::__ndk1::__variant_detail::_Trait)1>, std::__ndk1::__variant_detail::__base<(std::__ndk1::__variant_detail::__traits<double, std::__ndk1::basic_string<char, std::__ndk1::char_traits<char>, std::__ndk1::allocator<char> > >)1, double, std::__ndk1::allocator<char> >&)
PUBLIC 1a0d0 0 std::__ndk1::__variant_detail::__visitation::__base::__dispatcher<(unsigned long)1>::__dispatch[abi:ne180000]<std::__ndk1::__variant_detail::__dtor<std::__ndk1::__variant_detail::__traits<double, std::__ndk1::basic_string<char, std::__ndk1::char_traits<char>, std::__ndk1::allocator<char> > >, (std::__ndk1::__variant_detail::_Trait)1>::__destroy[abi:ne180000]()::{lambda(auto:1&)#1}, std::__ndk1::__variant_detail::__base<(std::__ndk1::__variant_detail::__traits<double, std::__ndk1::basic_string<char, std::__ndk1::char_traits<char>, std::__ndk1::allocator<char> > >)1, double, std::__ndk1::allocator<char> >&>(std::__ndk1::__variant_detail::__dtor<std::__ndk1::__variant_detail::__traits<double, std::__ndk1::basic_string<char, std::__ndk1::char_traits<char>, std::__ndk1::allocator<char> > >, (std::__ndk1::__variant_detail::_Trait)1>, std::__ndk1::__variant_detail::__base<(std::__ndk1::__variant_detail::__traits<double, std::__ndk1::basic_string<char, std::__ndk1::char_traits<char>, std::__ndk1::allocator<char> > >)1, double, std::__ndk1::allocator<char> >&)
PUBLIC 1a0e4 0 std::__ndk1::__variant_detail::__visitation::__base::__dispatcher<(unsigned long)0>::__dispatch[abi:ne180000]<std::__ndk1::__variant_detail::__dtor<std::__ndk1::__variant_detail::__traits<long, std::__ndk1::basic_string<char, std::__ndk1::char_traits<char>, std::__ndk1::allocator<char> > >, (std::__ndk1::__variant_detail::_Trait)1>::__destroy[abi:ne180000]()::{lambda(auto:1&)#1}, std::__ndk1::__variant_detail::__base<(std::__ndk1::__variant_detail::__traits<long, std::__ndk1::basic_string<char, std::__ndk1::char_traits<char>, std::__ndk1::allocator<char> > >)1, long, std::__ndk1::allocator<char> >&>(std::__ndk1::__variant_detail::__dtor<std::__ndk1::__variant_detail::__traits<long, std::__ndk1::basic_string<char, std::__ndk1::char_traits<char>, std::__ndk1::allocator<char> > >, (std::__ndk1::__variant_detail::_Trait)1>, std::__ndk1::__variant_detail::__base<(std::__ndk1::__variant_detail::__traits<long, std::__ndk1::basic_string<char, std::__ndk1::char_traits<char>, std::__ndk1::allocator<char> > >)1, long, std::__ndk1::allocator<char> >&)
PUBLIC 1a0e8 0 std::__ndk1::__variant_detail::__visitation::__base::__dispatcher<(unsigned long)1>::__dispatch[abi:ne180000]<std::__ndk1::__variant_detail::__dtor<std::__ndk1::__variant_detail::__traits<long, std::__ndk1::basic_string<char, std::__ndk1::char_traits<char>, std::__ndk1::allocator<char> > >, (std::__ndk1::__variant_detail::_Trait)1>::__destroy[abi:ne180000]()::{lambda(auto:1&)#1}, std::__ndk1::__variant_detail::__base<(std::__ndk1::__variant_detail::__traits<long, std::__ndk1::basic_string<char, std::__ndk1::char_traits<char>, std::__ndk1::allocator<char> > >)1, long, std::__ndk1::allocator<char> >&>(std::__ndk1::__variant_detail::__dtor<std::__ndk1::__variant_detail::__traits<long, std::__ndk1::basic_string<char, std::__ndk1::char_traits<char>, std::__ndk1::allocator<char> > >, (std::__ndk1::__variant_detail::_Trait)1>, std::__ndk1::__variant_detail::__base<(std::__ndk1::__variant_detail::__traits<long, std::__ndk1::basic_string<char, std::__ndk1::char_traits<char>, std::__ndk1::allocator<char> > >)1, long, std::__ndk1::allocator<char> >&)
PUBLIC 1a0fc 0 std::__ndk1::__variant_detail::__visitation::__base::__dispatcher<(unsigned long)0>::__dispatch[abi:ne180000]<std::__ndk1::__variant_detail::__dtor<std::__ndk1::__variant_detail::__traits<std::__ndk1::reference_wrapper<matjson::Value>, std::__ndk1::basic_string<char, std::__ndk1::char_traits<char>, std::__ndk1::allocator<char> > >, (std::__ndk1::__variant_detail::_Trait)1>::__destroy[abi:ne180000]()::{lambda(auto:1&)#1}, std::__ndk1::__variant_detail::__base<(std::__ndk1::__variant_detail::__traits<std::__ndk1::reference_wrapper<matjson::Value>, std::__ndk1::basic_string<char, std::__ndk1::char_traits<char>, std::__ndk1::allocator<char> > >)1, matjson::Value, std::__ndk1::allocator<char> >&>(std::__ndk1::__variant_detail::__dtor<std::__ndk1::__variant_detail::__traits<std::__ndk1::reference_wrapper<matjson::Value>, std::__ndk1::basic_string<char, std::__ndk1::char_traits<char>, std::__ndk1::allocator<char> > >, (std::__ndk1::__variant_detail::_Trait)1>, std::__ndk1::__variant_detail::__base<(std::__ndk1::__variant_detail::__traits<std::__ndk1::reference_wrapper<matjson::Value>, std::__ndk1::basic_string<char, std::__ndk1::char_traits<char>, std::__ndk1::allocator<char> > >)1, matjson::Value, std::__ndk1::allocator<char> >&)
PUBLIC 1a100 0 std::__ndk1::__variant_detail::__visitation::__base::__dispatcher<(unsigned long)1>::__dispatch[abi:ne180000]<std::__ndk1::__variant_detail::__dtor<std::__ndk1::__variant_detail::__traits<std::__ndk1::reference_wrapper<matjson::Value>, std::__ndk1::basic_string<char, std::__ndk1::char_traits<char>, std::__ndk1::allocator<char> > >, (std::__ndk1::__variant_detail::_Trait)1>::__destroy[abi:ne180000]()::{lambda(auto:1&)#1}, std::__ndk1::__variant_detail::__base<(std::__ndk1::__variant_detail::__traits<std::__ndk1::reference_wrapper<matjson::Value>, std::__ndk1::basic_string<char, std::__ndk1::char_traits<char>, std::__ndk1::allocator<char> > >)1, matjson::Value, std::__ndk1::allocator<char> >&>(std::__ndk1::__variant_detail::__dtor<std::__ndk1::__variant_detail::__traits<std::__ndk1::reference_wrapper<matjson::Value>, std::__ndk1::basic_string<char, std::__ndk1::char_traits<char>, std::__ndk1::allocator<char> > >, (std::__ndk1::__variant_detail::_Trait)1>, std::__ndk1::__variant_detail::__base<(std::__ndk1::__variant_detail::__traits<std::__ndk1::reference_wrapper<matjson::Value>, std::__ndk1::basic_string<char, std::__ndk1::char_traits<char>, std::__ndk1::allocator<char> > >)1, matjson::Value, std::__ndk1::allocator<char> >&)
PUBLIC 1a114 0 std::__ndk1::__variant_detail::__visitation::__base::__dispatcher<(unsigned long)0>::__dispatch[abi:ne180000]<std::__ndk1::__variant_detail::__dtor<std::__ndk1::__variant_detail::__traits<LevelData, std::__ndk1::basic_string<char, std::__ndk1::char_traits<char>, std::__ndk1::allocator<char> > >, (std::__ndk1::__variant_detail::_Trait)1>::__destroy[abi:ne180000]()::{lambda(auto:1&)#1}, std::__ndk1::__variant_detail::__base<(std::__ndk1::__variant_detail::__traits<LevelData, std::__ndk1::basic_string<char, std::__ndk1::char_traits<char>, std::__ndk1::allocator<char> > >)1, std::__ndk1::__variant_detail::__traits, std::__ndk1::allocator<char> >&>(std::__ndk1::__variant_detail::__dtor<std::__ndk1::__variant_detail::__traits<LevelData, std::__ndk1::basic_string<char, std::__ndk1::char_traits<char>, std::__ndk1::allocator<char> > >, (std::__ndk1::__variant_detail::_Trait)1>, std::__ndk1::__variant_detail::__base<(std::__ndk1::__variant_detail::__traits<LevelData, std::__ndk1::basic_string<char, std::__ndk1::char_traits<char>, std::__ndk1::allocator<char> > >)1, std::__ndk1::__variant_detail::__traits, std::__ndk1::allocator<char> >&)
PUBLIC 1a118 0 std::__ndk1::__variant_detail::__visitation::__base::__dispatcher<(unsigned long)1>::__dispatch[abi:ne180000]<std::__ndk1::__variant_detail::__dtor<std::__ndk1::__variant_detail::__traits<LevelData, std::__ndk1::basic_string<char, std::__ndk1::char_traits<char>, std::__ndk1::allocator<char> > >, (std::__ndk1::__variant_detail::_Trait)1>::__destroy[abi:ne180000]()::{lambda(auto:1&)#1}, std::__ndk1::__variant_detail::__base<(std::__ndk1::__variant_detail::__traits<LevelData, std::__ndk1::basic_string<char, std::__ndk1::char_traits<char>, std::__ndk1::allocator<char> > >)1, std::__ndk1::__variant_detail::__traits, std::__ndk1::allocator<char> >&>(std::__ndk1::__variant_detail::__dtor<std::__ndk1::__variant_detail::__traits<LevelData, std::__ndk1::basic_string<char, std::__ndk1::char_traits<char>, std::__ndk1::allocator<char> > >, (std::__ndk1::__variant_detail::_Trait)1>, std::__ndk1::__variant_detail::__base<(std::__ndk1::__variant_detail::__traits<LevelData, std::__ndk1::basic_string<char, std::__ndk1::char_traits<char>, std::__ndk1::allocator<char> > >)1, std::__ndk1::__variant_detail::__traits, std::__ndk1::allocator<char> >&)
PUBLIC 1a12c 0 matjson::Serialize<LevelData>::toJson(LevelData const&)
PUBLIC 1a720 0 std::__ndk1::pair<std::__ndk1::basic_string<char, std::__ndk1::char_traits<char>, std::__ndk1::allocator<char> >, matjson::Value>::~pair()
PUBLIC 1a75c 0 std::__ndk1::vector<matjson::Value, std::__ndk1::allocator<matjson::Value> >::~vector[abi:ne180000]()
PUBLIC 1a7c4 0 std::__ndk1::__split_buffer<matjson::Value, std::__ndk1::allocator<matjson::Value>&>::~__split_buffer()
PUBLIC 1a818 0 std::__ndk1::vector<matjson::Value, std::__ndk1::allocator<matjson::Value> >::__throw_length_error[abi:ne180000]() const
PUBLIC m 1a82c 0 geodeImplicitEntry
PUBLIC 1a868 0 std::__ndk1::unordered_map<void*, bool, std::__ndk1::hash<void*>, std::__ndk1::equal_to<void*>, std::__ndk1::allocator<std::__ndk1::pair<void* const, bool> > >::~unordered_map[abi:ne180000]()
PUBLIC 1a8b4 0 wrapFunction(unsigned long, tulip::hook::WrapperMetadata const&)
PUBLIC 1a9e8 0 geode::impl::ResultData<void*, std::__ndk1::basic_string<char, std::__ndk1::char_traits<char>, std::__ndk1::allocator<char> > >::unwrapErr() &
PUBLIC 1aa60 0 geode::impl::ResultData<void*, std::__ndk1::basic_string<char, std::__ndk1::char_traits<char>, std::__ndk1::allocator<char> > >::~ResultData()
PUBLIC 1aad4 0 tulip::hook::WrapperMetadata::~WrapperMetadata()
PUBLIC 1ab38 0 cocos2d::CCObject::~CCObject()
PUBLIC 1ab5c 0 cocos2d::CCNode::~CCNode()
PUBLIC 1ab80 0 {virtual override thunk({offset(-320)}, cocos2d::CCLayer::~CCLayer())}
PUBLIC 1ab88 0 cocos2d::CCLayer::~CCLayer()
PUBLIC 1abac 0 {virtual override thunk({offset(-320)}, cocos2d::CCLayer::~CCLayer())}
PUBLIC 1abd4 0 FLAlertLayer::create(FLAlertLayerProtocol*, char const*, gd::string, char const*, char const*, float)
PUBLIC 1ad8c 0 tulip::hook::AbstractFunction::from<FLAlertLayer*, FLAlertLayerProtocol*, char const*, gd::string, char const*, char const*, float>(FLAlertLayer* (*)(FLAlertLayerProtocol*, char const*, gd::string, char const*, char const*, float))
PUBLIC 1b270 0 LevelSelectLayer::~LevelSelectLayer()
PUBLIC 1b558 0 {virtual override thunk({offset(-320)}, LevelSelectLayer::~LevelSelectLayer())}
PUBLIC 1b560 0 LevelSelectLayer::~LevelSelectLayer()
PUBLIC 1b584 0 {virtual override thunk({offset(-320)}, LevelSelectLayer::~LevelSelectLayer())}
PUBLIC 1b5ac 0 cocos2d::CCCopying::copyWithZone(cocos2d::CCZone*)
PUBLIC 1b5b4 0 cocos2d::CCObject::update(float)
PUBLIC 1b5b8 0 cocos2d::CCKeyboardDelegate::keyUp(cocos2d::enumKeyCodes)
PUBLIC 1b5bc 0 cocos2d::CCMouseDelegate::rightKeyDown()
PUBLIC 1b5c0 0 cocos2d::CCMouseDelegate::rightKeyUp()
PUBLIC 1b5c4 0 cocos2d::CCMouseDelegate::scrollWheel(float, float)
PUBLIC 1b5c8 0 cocos2d::CCNode::~CCNode()
PUBLIC 1b840 0 cocos2d::CCLayer::~CCLayer()
PUBLIC 1bb08 0 cocos2d::CCObject::~CCObject()
PUBLIC 1bfd4 0 _ZN5geode15UnwrapExceptionC2IRPvQsr4implE18IsStringStreamableIT_EEENS_4impl5OkTagEOS4_
PUBLIC 1c128 0 std::__ndk1::__variant_detail::__visitation::__base::__dispatcher<(unsigned long)0>::__dispatch[abi:ne180000]<std::__ndk1::__variant_detail::__dtor<std::__ndk1::__variant_detail::__traits<void*, std::__ndk1::basic_string<char, std::__ndk1::char_traits<char>, std::__ndk1::allocator<char> > >, (std::__ndk1::__variant_detail::_Trait)1>::__destroy[abi:ne180000]()::{lambda(auto:1&)#1}, std::__ndk1::__variant_detail::__base<(std::__ndk1::__variant_detail::__traits<void*, std::__ndk1::basic_string<char, std::__ndk1::char_traits<char>, std::__ndk1::allocator<char> > >)1, std::__ndk1::__variant_detail::__traits, std::__ndk1::allocator<char> >&>(std::__ndk1::__variant_detail::__dtor<std::__ndk1::__variant_detail::__traits<void*, std::__ndk1::basic_string<char, std::__ndk1::char_traits<char>, std::__ndk1::allocator<char> > >, (std::__ndk1::__variant_detail::_Trait)1>, std::__ndk1::__variant_detail::__base<(std::__ndk1::__variant_detail::__traits<void*, std::__ndk1::basic_string<char, std::__ndk1::char_traits<char>, std::__ndk1::allocator<char> > >)1, std::__ndk1::__variant_detail::__traits, std::__ndk1::allocator<char> >&)
PUBLIC 1c12c 0 std::__ndk1::__variant_detail::__visitation::__base::__dispatcher<(unsigned long)1>::__dispatch[abi:ne180000]<std::__ndk1::__variant_detail::__dtor<std::__ndk1::__variant_detail::__traits<void*, std::__ndk1::basic_string<char, std::__ndk1::char_traits<char>, std::__ndk1::allocator<char> > >, (std::__ndk1::__variant_detail::_Trait)1>::__destroy[abi:ne180000]()::{lambda(auto:1&)#1}, std::__ndk1::__variant_detail::__base<(std::__ndk1::__variant_detail::__traits<void*, std::__ndk1::basic_string<char, std::__ndk1::char_traits<char>, std::__ndk1::allocator<char> > >)1, std::__ndk1::__variant_detail::__traits, std::__ndk1::allocator<char> >&>(std::__ndk1::__variant_detail::__dtor<std::__ndk1::__variant_detail::__traits<void*, std::__ndk1::basic_string<char, std::__ndk1::char_traits<char>, std::__ndk1::allocator<char> > >, (std::__ndk1::__variant_detail::_Trait)1>, std::__ndk1::__variant_detail::__base<(std::__ndk1::__variant_detail::__traits<void*, std::__ndk1::basic_string<char, std::__ndk1::char_traits<char>, std::__ndk1::allocator<char> > >)1, std::__ndk1::__variant_detail::__traits, std::__ndk1::allocator<char> >&)
PUBLIC 1c140 0 std::__ndk1::__hash_table<std::__ndk1::__hash_value_type<void*, bool>, std::__ndk1::__unordered_map_hasher<void*, std::__ndk1::__hash_value_type<void*, bool>, std::__ndk1::hash<void*>, std::__ndk1::equal_to<void*>, true>, std::__ndk1::__unordered_map_equal<void*, std::__ndk1::__hash_value_type<void*, bool>, std::__ndk1::equal_to<void*>, std::__ndk1::hash<void*>, true>, std::__ndk1::allocator<std::__ndk1::__hash_value_type<void*, bool> > >::__emplace_unique_key_args<void*, std::__ndk1::piecewise_construct_t const&, std::__ndk1::tuple<void* const&>, std::__ndk1::tuple<> >(void* const&, std::__ndk1::piecewise_construct_t const&, std::__ndk1::tuple<void* const&>, std::__ndk1::tuple<>)
PUBLIC 1c620 0 <.plt ELF section in logon.betterstats.android64.so>
STACK CFI INIT dfb0 10 .cfa: sp 0 +
STACK CFI INIT dfc0 8 .cfa: sp 0 +
STACK CFI INIT dfc8 8 .cfa: sp 0 +
STACK CFI INIT dfd0 14 .cfa: sp 0 +
STACK CFI INIT dfe4 1c .cfa: sp 0 +
STACK CFI INIT e000 10 .cfa: sp 0 +
STACK CFI INIT e010 134 .cfa: sp 0 +
STACK CFI INIT e144 84 .cfa: sp 0 +
STACK CFI INIT e1c8 f4 .cfa: sp 0 +
STACK CFI INIT e2bc a8 .cfa: sp 0 +
STACK CFI INIT e364 7c .cfa: sp 0 +
STACK CFI INIT e3e0 14 .cfa: sp 0 +
STACK CFI INIT e3f4 40 .cfa: sp 0 +
STACK CFI INIT e434 28 .cfa: sp 0 +
STACK CFI INIT e45c 190 .cfa: sp 0 +
STACK CFI INIT e5ec 2c8 .cfa: sp 0 +
STACK CFI INIT e8b4 8 .cfa: sp 0 +
STACK CFI INIT e8bc 8 .cfa: sp 0 +
STACK CFI INIT e8c4 44 .cfa: sp 0 +
STACK CFI INIT e908 e8 .cfa: sp 0 +
STACK CFI INIT e9f0 e8 .cfa: sp 0 +
STACK CFI INIT ead8 14 .cfa: sp 0 +
STACK CFI INIT eaec 10 .cfa: sp 0 +
STACK CFI INIT eafc 10 .cfa: sp 0 +
STACK CFI INIT eb0c f0 .cfa: sp 0 +
STACK CFI INIT ebfc 44 .cfa: sp 0 +
STACK CFI INIT ec40 c .cfa: sp 0 +
STACK CFI INIT ec4c c .cfa: sp 0 +
STACK CFI INIT ec58 2c .cfa: sp 0 +
STACK CFI INIT ec84 280 .cfa: sp 0 +
STACK CFI INIT ef04 c .cfa: sp 0 +
STACK CFI INIT ef10 120 .cfa: sp 0 +
STACK CFI INIT f030 488 .cfa: sp 0 +
STACK CFI INIT f4b8 c48 .cfa: sp 0 +
STACK CFI INIT 10100 134 .cfa: sp 0 +
STACK CFI INIT 10234 210 .cfa: sp 0 +
STACK CFI INIT 10444 38c .cfa: sp 0 +
STACK CFI INIT 107d0 1c8 .cfa: sp 0 +
STACK CFI INIT 10998 9bc .cfa: sp 0 +
STACK CFI INIT 11354 2d4 .cfa: sp 0 +
STACK CFI INIT 11628 134 .cfa: sp 0 +
STACK CFI INIT 1175c 120 .cfa: sp 0 +
STACK CFI INIT 1187c 1c8 .cfa: sp 0 +
STACK CFI INIT 11a44 168 .cfa: sp 0 +
STACK CFI INIT 11bac fc .cfa: sp 0 +
STACK CFI INIT 11ca8 30 .cfa: sp 0 +
STACK CFI INIT 11e10 30 .cfa: sp 0 +
STACK CFI INIT 11e40 98 .cfa: sp 0 +
STACK CFI INIT 11ed8 59c .cfa: sp 0 +
STACK CFI INIT 12474 8c .cfa: sp 0 +
STACK CFI INIT 12500 30 .cfa: sp 0 +
STACK CFI INIT 129b0 1c .cfa: sp 0 +
STACK CFI INIT 12d38 50 .cfa: sp 0 +
STACK CFI 12d3c .cfa: sp 32 +
STACK CFI 12d44 .cfa: x29 32 + x19: .cfa -16 + ^ .ra: .cfa -24 + ^ x29: .cfa -32 + ^
STACK CFI 12d5c .cfa: sp 32 +
STACK CFI 12d64 .cfa: sp 0 +
STACK CFI 12d68 .cfa: x29 32 +
STACK CFI 12d7c .cfa: sp 32 +
STACK CFI 12d84 .cfa: sp 0 +
STACK CFI INIT 12dfc 7c .cfa: sp 0 +
STACK CFI 12e00 .cfa: sp 48 +
STACK CFI 12e0c .cfa: x29 48 + x19: .cfa -8 + ^ x20: .cfa -16 + ^ x21: .cfa -32 + ^ .ra: .cfa -40 + ^ x29: .cfa -48 + ^
STACK CFI 12e58 .cfa: sp 48 +
STACK CFI 12e64 .cfa: sp 0 +
STACK CFI 12e68 .cfa: sp 48 +
STACK CFI 12e74 .cfa: sp 0 +
STACK CFI INIT 12e78 4 .cfa: sp 0 +
STACK CFI INIT 12e7c 10 .cfa: sp 0 +
STACK CFI 12e80 .cfa: sp 16 +
STACK CFI 12e84 .cfa: x29 16 + .ra: .cfa -8 + ^ x29: .cfa -16 + ^
STACK CFI INIT 12fe0 34 .cfa: sp 0 +
STACK CFI 12fe4 .cfa: sp 16 +
STACK CFI 12fe8 .cfa: x29 16 + .ra: .cfa -8 + ^ x29: .cfa -16 + ^
STACK CFI INIT 13140 80 .cfa: sp 0 +
STACK CFI 13144 .cfa: sp 48 +
STACK CFI 13150 .cfa: x29 48 + x19: .cfa -8 + ^ x20: .cfa -16 + ^ x21: .cfa -32 + ^ .ra: .cfa -40 + ^ x29: .cfa -48 + ^
STACK CFI 131b0 .cfa: sp 48 +
STACK CFI 131bc .cfa: sp 0 +
STACK CFI INIT 131c0 24 .cfa: sp 0 +
STACK CFI 131c4 .cfa: sp 32 +
STACK CFI 131cc .cfa: x29 32 + x19: .cfa -16 + ^ .ra: .cfa -24 + ^ x29: .cfa -32 + ^
STACK CFI 131d8 .cfa: sp 32 +
STACK CFI 131e0 .cfa: sp 0 +
STACK CFI INIT 13564 14 .cfa: sp 0 +
STACK CFI 13568 .cfa: sp 16 +
STACK CFI 1356c .cfa: x29 16 + .ra: .cfa -8 + ^ x29: .cfa -16 + ^
STACK CFI INIT 135c8 30 .cfa: sp 0 +
STACK CFI 135cc .cfa: sp 32 +
STACK CFI 135d4 .cfa: x29 32 + x19: .cfa -16 + ^ .ra: .cfa -24 + ^ x29: .cfa -32 + ^
STACK CFI 135ec .cfa: sp 32 +
STACK CFI 135f4 .cfa: sp 0 +
STACK CFI INIT 135f8 34 .cfa: sp 0 +
STACK CFI 135fc .cfa: sp 32 +
STACK CFI 13604 .cfa: x29 32 + x19: .cfa -16 + ^ .ra: .cfa -24 + ^ x29: .cfa -32 + ^
STACK CFI INIT 137a4 148 .cfa: sp 0 +
STACK CFI 137a8 .cfa: sp 48 +
STACK CFI 137b4 .cfa: x29 48 + x19: .cfa -8 + ^ x20: .cfa -16 + ^ x21: .cfa -32 + ^ .ra: .cfa -40 + ^ x29: .cfa -48 + ^
STACK CFI 138dc .cfa: sp 48 +
STACK CFI 138e8 .cfa: sp 0 +
STACK CFI INIT 13b14 80 .cfa: sp 0 +
STACK CFI 13b18 .cfa: sp 48 +
STACK CFI 13b24 .cfa: x29 48 + x19: .cfa -8 + ^ x20: .cfa -16 + ^ x21: .cfa -24 + ^ x22: .cfa -32 + ^ .ra: .cfa -40 + ^ x29: .cfa -48 + ^
STACK CFI 13b3c .cfa: sp 48 +
STACK CFI 13b48 .cfa: sp 0 +
STACK CFI 13b4c .cfa: x29 48 +
STACK CFI 13b7c .cfa: sp 48 +
STACK CFI 13b88 .cfa: sp 0 +
STACK CFI 13b8c .cfa: x29 48 +
STACK CFI INIT 13b94 68 .cfa: sp 0 +
STACK CFI 13b98 .cfa: sp 32 +
STACK CFI 13ba0 .cfa: x29 32 + x19: .cfa -8 + ^ x20: .cfa -16 + ^ .ra: .cfa -24 + ^ x29: .cfa -32 + ^
STACK CFI 13bb8 .cfa: sp 32 +
STACK CFI 13bc0 .cfa: sp 0 +
STACK CFI 13bc4 .cfa: x29 32 +
STACK CFI 13bf0 .cfa: sp 32 +
STACK CFI 13bf8 .cfa: sp 0 +
STACK CFI INIT 13bfc 14 .cfa: sp 0 +
STACK CFI 13c00 .cfa: sp 16 +
STACK CFI 13c04 .cfa: x29 16 + .ra: .cfa -8 + ^ x29: .cfa -16 + ^
STACK CFI INIT 13c10 4 .cfa: sp 0 +
STACK CFI INIT 13c14 14 .cfa: sp 0 +
STACK CFI INIT 13c28 120 .cfa: sp 0 +
STACK CFI 13c2c .cfa: sp 64 +
STACK CFI 13c3c .cfa: x29 64 + x19: .cfa -8 + ^ x20: .cfa -16 + ^ x21: .cfa -24 + ^ x22: .cfa -32 + ^ x23: .cfa -40 + ^ x24: .cfa -48 + ^ .ra: .cfa -56 + ^ x29: .cfa -64 + ^
STACK CFI 13d34 .cfa: sp 64 +
STACK CFI 13d44 .cfa: sp 0 +
STACK CFI INIT 13d48 d4 .cfa: sp 0 +
STACK CFI 13d4c .cfa: sp 48 +
STACK CFI 13d58 .cfa: x29 48 + x19: .cfa -8 + ^ x20: .cfa -16 + ^ x21: .cfa -32 + ^ .ra: .cfa -40 + ^ x29: .cfa -48 + ^
STACK CFI 13de8 .cfa: sp 48 +
STACK CFI 13df4 .cfa: sp 0 +
STACK CFI 13df8 .cfa: x29 48 +
STACK CFI INIT 13e1c 3c8 .cfa: sp 0 +
STACK CFI INIT 141e4 8c .cfa: sp 0 +
STACK CFI 141ec .cfa: sp 32 +
STACK CFI 141f4 .cfa: x29 32 + x19: .cfa -8 + ^ x20: .cfa -16 + ^ .ra: .cfa -24 + ^ x29: .cfa -32 + ^
STACK CFI 1423c .cfa: sp 32 +
STACK CFI 14244 .cfa: sp 0 +
STACK CFI 1424c .cfa: x29 32 +
STACK CFI INIT 14270 11c .cfa: sp 0 +
STACK CFI 14274 .cfa: sp 80 +
STACK CFI 14284 .cfa: x29 48 + x19: .cfa -8 + ^ x20: .cfa -16 + ^ x21: .cfa -24 + ^ x22: .cfa -32 + ^ .ra: .cfa -40 + ^ x29: .cfa -48 + ^
STACK CFI 14374 .cfa: sp 80 +
STACK CFI 14384 .cfa: sp 0 +
STACK CFI 14388 .cfa: x29 48 +
STACK CFI INIT 1438c 50 .cfa: sp 0 +
STACK CFI 14390 .cfa: sp 32 +
STACK CFI 14398 .cfa: x29 32 + x19: .cfa -16 + ^ .ra: .cfa -24 + ^ x29: .cfa -32 + ^
STACK CFI 143b0 .cfa: sp 32 +
STACK CFI 143b8 .cfa: sp 0 +
STACK CFI 143bc .cfa: x29 32 +
STACK CFI 143d0 .cfa: sp 32 +
STACK CFI 143d8 .cfa: sp 0 +
STACK CFI INIT 143dc 64 .cfa: sp 0 +
STACK CFI 143e0 .cfa: sp 32 +
STACK CFI 143e8 .cfa: x29 32 + x19: .cfa -16 + ^ .ra: .cfa -24 + ^ x29: .cfa -32 + ^
STACK CFI 14414 .cfa: sp 32 +
STACK CFI 1441c .cfa: sp 0 +
STACK CFI 14420 .cfa: x29 32 +
STACK CFI 14434 .cfa: sp 32 +
STACK CFI 1443c .cfa: sp 0 +
STACK CFI INIT 14708 178 .cfa: sp 0 +
STACK CFI 1470c .cfa: sp 80 +
STACK CFI 14720 .cfa: x29 80 + x19: .cfa -8 + ^ x20: .cfa -16 + ^ x21: .cfa -24 + ^ x22: .cfa -32 + ^ x23: .cfa -40 + ^ x24: .cfa -48 + ^ x25: .cfa -56 + ^ x26: .cfa -64 + ^ .ra: .cfa -72 + ^ x29: .cfa -80 + ^
STACK CFI 14868 .cfa: sp 80 +
STACK CFI 1487c .cfa: sp 0 +
STACK CFI INIT 14880 1b0 .cfa: sp 0 +
STACK CFI INIT 14eb0 1c .cfa: sp 0 +
STACK CFI INIT 1527c 4 .cfa: sp 0 +
STACK CFI INIT 15280 12c .cfa: sp 0 +
STACK CFI 15284 .cfa: sp 80 +
STACK CFI 15294 .cfa: x29 48 + x19: .cfa -8 + ^ x20: .cfa -16 + ^ x21: .cfa -24 + ^ x22: .cfa -32 + ^ .ra: .cfa -40 + ^ x29: .cfa -48 + ^
STACK CFI 15394 .cfa: sp 80 +
STACK CFI 153a4 .cfa: sp 0 +
STACK CFI 153a8 .cfa: x29 48 +
STACK CFI INIT 153ac 14 .cfa: sp 0 +
STACK CFI 153b0 .cfa: sp 16 +
STACK CFI 153b4 .cfa: x29 16 + .ra: .cfa -8 + ^ x29: .cfa -16 + ^
STACK CFI INIT 15b08 1c .cfa: sp 0 +
STACK CFI INIT 161b4 4 .cfa: sp 0 +
STACK CFI INIT 161b8 58 .cfa: sp 0 +
STACK CFI 161bc .cfa: sp 32 +
STACK CFI 161c4 .cfa: x29 32 + x19: .cfa -16 + ^ .ra: .cfa -24 + ^ x29: .cfa -32 + ^
STACK CFI 161f8 .cfa: sp 32 +
STACK CFI 16200 .cfa: sp 0 +
STACK CFI 16204 .cfa: x29 32 +
STACK CFI INIT 16210 11c .cfa: sp 0 +
STACK CFI 16214 .cfa: sp 80 +
STACK CFI 16224 .cfa: x29 48 + x19: .cfa -8 + ^ x20: .cfa -16 + ^ x21: .cfa -24 + ^ x22: .cfa -32 + ^ .ra: .cfa -40 + ^ x29: .cfa -48 + ^
STACK CFI 16314 .cfa: sp 80 +
STACK CFI 16324 .cfa: sp 0 +
STACK CFI 16328 .cfa: x29 48 +
STACK CFI INIT 163d4 9c .cfa: sp 0 +
STACK CFI INIT 164c0 30 .cfa: sp 0 +
STACK CFI 164c4 .cfa: sp 32 +
STACK CFI 164cc .cfa: x29 32 + x19: .cfa -16 + ^ .ra: .cfa -24 + ^ x29: .cfa -32 + ^
STACK CFI 164e4 .cfa: sp 32 +
STACK CFI 164ec .cfa: sp 0 +
STACK CFI INIT 16c54 1c .cfa: sp 0 +
STACK CFI INIT 17ae0 4 .cfa: sp 0 +
STACK CFI INIT 17ae4 50 .cfa: sp 0 +
STACK CFI 17ae8 .cfa: sp 32 +
STACK CFI 17af0 .cfa: x29 32 + x19: .cfa -16 + ^ .ra: .cfa -24 + ^ x29: .cfa -32 + ^
STACK CFI 17b28 .cfa: sp 32 +
STACK CFI 17b30 .cfa: sp 0 +
STACK CFI INIT 17c68 44 .cfa: sp 0 +
STACK CFI INIT 17cac d4 .cfa: sp 0 +
STACK CFI 17cb0 .cfa: sp 32 +
STACK CFI 17cb8 .cfa: x29 32 + x19: .cfa -16 + ^ .ra: .cfa -24 + ^ x29: .cfa -32 + ^
STACK CFI 17d74 .cfa: sp 32 +
STACK CFI 17d7c .cfa: sp 0 +
STACK CFI INIT 17d80 7c .cfa: sp 0 +
STACK CFI 17dc0 .cfa: sp 32 +
STACK CFI 17dc8 .cfa: x29 32 + x19: .cfa -16 + ^ .ra: .cfa -24 + ^ x29: .cfa -32 + ^
STACK CFI 17de8 .cfa: sp 32 +
STACK CFI 17df0 .cfa: sp 0 +
STACK CFI INIT 17dfc 44 .cfa: sp 0 +
STACK CFI INIT 17e40 28 .cfa: sp 0 +
STACK CFI INIT 19df0 4 .cfa: sp 0 +
STACK CFI INIT 19df4 14 .cfa: sp 0 +
STACK CFI INIT 1a0cc 4 .cfa: sp 0 +
STACK CFI INIT 1a0d0 14 .cfa: sp 0 +
STACK CFI INIT 1a0e4 4 .cfa: sp 0 +
STACK CFI INIT 1a0e8 14 .cfa: sp 0 +
STACK CFI INIT 1a0fc 4 .cfa: sp 0 +
STACK CFI INIT 1a100 14 .cfa: sp 0 +
STACK CFI INIT 1a114 4 .cfa: sp 0 +
STACK CFI INIT 1a118 14 .cfa: sp 0 +
STACK CFI INIT 1a720 3c .cfa: sp 0 +
STACK CFI 1a724 .cfa: sp 32 +
STACK CFI 1a72c .cfa: x29 32 + x19: .cfa -16 + ^ .ra: .cfa -24 + ^ x29: .cfa -32 + ^
STACK CFI 1a740 .cfa: sp 32 +
STACK CFI 1a748 .cfa: sp 0 +
STACK CFI 1a74c .cfa: x29 32 +
STACK CFI 1a750 .cfa: sp 32 +
STACK CFI 1a758 .cfa: sp 0 +
STACK CFI INIT 1a75c 68 .cfa: sp 0 +
STACK CFI 1a760 .cfa: sp 48 +
STACK CFI 1a76c .cfa: x29 48 + x19: .cfa -8 + ^ x20: .cfa -16 + ^ x21: .cfa -32 + ^ .ra: .cfa -40 + ^ x29: .cfa -48 + ^
STACK CFI 1a7a4 .cfa: sp 48 +
STACK CFI 1a7b0 .cfa: sp 0 +
STACK CFI 1a7b4 .cfa: sp 48 +
STACK CFI 1a7c0 .cfa: sp 0 +
STACK CFI INIT 1a7c4 54 .cfa: sp 0 +
STACK CFI 1a7c8 .cfa: sp 32 +
STACK CFI 1a7d0 .cfa: x29 32 + x19: .cfa -8 + ^ x20: .cfa -16 + ^ .ra: .cfa -24 + ^ x29: .cfa -32 + ^
STACK CFI 1a800 .cfa: sp 32 +
STACK CFI 1a808 .cfa: sp 0 +
STACK CFI 1a80c .cfa: sp 32 +
STACK CFI 1a814 .cfa: sp 0 +
STACK CFI INIT 1a818 14 .cfa: sp 0 +
STACK CFI 1a81c .cfa: sp 16 +
STACK CFI 1a820 .cfa: x29 16 + .ra: .cfa -8 + ^ x29: .cfa -16 + ^
STACK CFI INIT 1a82c 3c .cfa: sp 0 +
STACK CFI 1a830 .cfa: sp 32 +
STACK CFI 1a838 .cfa: x29 32 + x19: .cfa -16 + ^ .ra: .cfa -24 + ^ x29: .cfa -32 + ^
STACK CFI 1a844 .cfa: sp 32 +
STACK CFI 1a84c .cfa: sp 0 +
STACK CFI 1a850 .cfa: x29 32 +
STACK CFI 1a85c .cfa: sp 32 +
STACK CFI 1a864 .cfa: sp 0 +
STACK CFI INIT 1a868 4c .cfa: sp 0 +
STACK CFI 1a86c .cfa: sp 32 +
STACK CFI 1a874 .cfa: x29 32 + x19: .cfa -8 + ^ x20: .cfa -16 + ^ .ra: .cfa -24 + ^ x29: .cfa -32 + ^
STACK CFI 1a89c .cfa: sp 32 +
STACK CFI 1a8a4 .cfa: sp 0 +
STACK CFI 1a8a8 .cfa: sp 32 +
STACK CFI 1a8b0 .cfa: sp 0 +
STACK CFI INIT 1aad4 64 .cfa: sp 0 +
STACK CFI 1aad8 .cfa: sp 32 +
STACK CFI 1aae0 .cfa: x29 32 + x19: .cfa -16 + ^ .ra: .cfa -24 + ^ x29: .cfa -32 + ^
STACK CFI 1ab0c .cfa: sp 32 +
STACK CFI 1ab14 .cfa: sp 0 +
STACK CFI 1ab18 .cfa: x29 32 +
STACK CFI 1ab2c .cfa: sp 32 +
STACK CFI 1ab34 .cfa: sp 0 +
STACK CFI INIT 1ab38 24 .cfa: sp 0 +
STACK CFI 1ab3c .cfa: sp 32 +
STACK CFI 1ab44 .cfa: x29 32 + x19: .cfa -16 + ^ .ra: .cfa -24 + ^ x29: .cfa -32 + ^
STACK CFI 1ab50 .cfa: sp 32 +
STACK CFI 1ab58 .cfa: sp 0 +
STACK CFI INIT 1ab5c 24 .cfa: sp 0 +
STACK CFI 1ab60 .cfa: sp 32 +
STACK CFI 1ab68 .cfa: x29 32 + x19: .cfa -16 + ^ .ra: .cfa -24 + ^ x29: .cfa -32 + ^
STACK CFI 1ab74 .cfa: sp 32 +
STACK CFI 1ab7c .cfa: sp 0 +
STACK CFI INIT 1ab80 8 .cfa: sp 0 +
STACK CFI INIT 1ab88 24 .cfa: sp 0 +
STACK CFI 1ab8c .cfa: sp 32 +
STACK CFI 1ab94 .cfa: x29 32 + x19: .cfa -16 + ^ .ra: .cfa -24 + ^ x29: .cfa -32 + ^
STACK CFI 1aba0 .cfa: sp 32 +
STACK CFI 1aba8 .cfa: sp 0 +
STACK CFI INIT 1abac 28 .cfa: sp 0 +
STACK CFI 1abb0 .cfa: sp 32 +
STACK CFI 1abb8 .cfa: x29 32 + x19: .cfa -16 + ^ .ra: .cfa -24 + ^ x29: .cfa -32 + ^
STACK CFI 1abc8 .cfa: sp 32 +
STACK CFI 1abd0 .cfa: sp 0 +
STACK CFI INIT 1b558 8 .cfa: sp 0 +
STACK CFI INIT 1b560 24 .cfa: sp 0 +
STACK CFI 1b564 .cfa: sp 32 +
STACK CFI 1b56c .cfa: x29 32 + x19: .cfa -16 + ^ .ra: .cfa -24 + ^ x29: .cfa -32 + ^
STACK CFI 1b578 .cfa: sp 32 +
STACK CFI 1b580 .cfa: sp 0 +
STACK CFI INIT 1b584 28 .cfa: sp 0 +
STACK CFI 1b588 .cfa: sp 32 +
STACK CFI 1b590 .cfa: x29 32 + x19: .cfa -16 + ^ .ra: .cfa -24 + ^ x29: .cfa -32 + ^
STACK CFI 1b5a0 .cfa: sp 32 +
STACK CFI 1b5a8 .cfa: sp 0 +
STACK CFI INIT 1b5ac 8 .cfa: sp 0 +
STACK CFI INIT 1b5b4 4 .cfa: sp 0 +
STACK CFI INIT 1b5b8 4 .cfa: sp 0 +
STACK CFI INIT 1b5bc 4 .cfa: sp 0 +
STACK CFI INIT 1b5c0 4 .cfa: sp 0 +
STACK CFI INIT 1b5c4 4 .cfa: sp 0 +
STACK CFI INIT 1c128 4 .cfa: sp 0 +
STACK CFI INIT 1c12c 14 .cfa: sp 0 +
STACK CFI INIT 12530 480 .cfa: sp 0 +
STACK CFI 12534 .cfa: sp 224 +
STACK CFI 12550 .cfa: x29 96 + x19: .cfa -8 + ^ x20: .cfa -16 + ^ x21: .cfa -24 + ^ x22: .cfa -32 + ^ x23: .cfa -40 + ^ x24: .cfa -48 + ^ x25: .cfa -56 + ^ x26: .cfa -64 + ^ x27: .cfa -80 + ^ .ra: .cfa -88 + ^ x29: .cfa -96 + ^
STACK CFI 127bc .cfa: sp 224 +
STACK CFI 127d8 .cfa: sp 0 +
STACK CFI 127dc .cfa: x29 96 +
STACK CFI 128a8 .cfa: sp 224 +
STACK CFI 128c4 .cfa: sp 0 +
STACK CFI 128c8 .cfa: x29 96 +
STACK CFI INIT 129cc 36c .cfa: sp 0 +
STACK CFI 129d0 .cfa: sp 208 +
STACK CFI 129e4 .cfa: x29 64 + x19: .cfa -8 + ^ x20: .cfa -16 + ^ x21: .cfa -24 + ^ x22: .cfa -32 + ^ x23: .cfa -48 + ^ .ra: .cfa -56 + ^ x29: .cfa -64 + ^
STACK CFI 12c14 .cfa: sp 208 +
STACK CFI 12c28 .cfa: sp 0 +
STACK CFI 12c2c .cfa: x29 64 +
STACK CFI INIT 12d88 74 .cfa: sp 0 +
STACK CFI 12d8c .cfa: sp 48 +
STACK CFI 12d98 .cfa: x29 32 + x19: .cfa -8 + ^ x20: .cfa -16 + ^ .ra: .cfa -24 + ^ x29: .cfa -32 + ^
STACK CFI 12de4 .cfa: sp 48 +
STACK CFI 12df0 .cfa: sp 0 +
STACK CFI 12df4 .cfa: x29 32 +
STACK CFI INIT 12e8c 154 .cfa: sp 0 +
STACK CFI 12e90 .cfa: sp 384 +
STACK CFI 12ea4 .cfa: x29 64 + x19: .cfa -8 + ^ x20: .cfa -16 + ^ x21: .cfa -24 + ^ x22: .cfa -32 + ^ x23: .cfa -40 + ^ x28: .cfa -48 + ^ .ra: .cfa -56 + ^ x29: .cfa -64 + ^
STACK CFI 12f88 .cfa: sp 384 +
STACK CFI 12f9c .cfa: sp 0 +
STACK CFI 12fa0 .cfa: x29 64 +
STACK CFI INIT 13014 12c .cfa: sp 0 +
STACK CFI 13018 .cfa: sp 80 +
STACK CFI 1302c .cfa: x29 80 + x19: .cfa -8 + ^ x20: .cfa -16 + ^ x21: .cfa -24 + ^ x22: .cfa -32 + ^ x23: .cfa -40 + ^ x24: .cfa -48 + ^ x25: .cfa -56 + ^ x26: .cfa -64 + ^ .ra: .cfa -72 + ^ x29: .cfa -80 + ^
STACK CFI 130f4 .cfa: sp 80 +
STACK CFI 13108 .cfa: sp 0 +
STACK CFI 1310c .cfa: x29 80 +
STACK CFI INIT 131e4 1a4 .cfa: sp 0 +
STACK CFI 131e8 .cfa: sp 112 +
STACK CFI 13200 .cfa: x29 80 + x19: .cfa -8 + ^ x20: .cfa -16 + ^ x21: .cfa -24 + ^ x22: .cfa -32 + ^ x23: .cfa -40 + ^ x24: .cfa -48 + ^ x25: .cfa -56 + ^ x26: .cfa -64 + ^ .ra: .cfa -72 + ^ x29: .cfa -80 + ^
STACK CFI 132f0 .cfa: sp 112 +
STACK CFI 13308 .cfa: sp 0 +
STACK CFI 1330c .cfa: x29 80 +
STACK CFI INIT 13388 1dc .cfa: sp 0 +
STACK CFI 1338c .cfa: sp 128 +
STACK CFI 133a8 .cfa: x29 96 + x19: .cfa -8 + ^ x20: .cfa -16 + ^ x21: .cfa -24 + ^ x22: .cfa -32 + ^ x23: .cfa -40 + ^ x24: .cfa -48 + ^ x25: .cfa -56 + ^ x26: .cfa -64 + ^ x27: .cfa -80 + ^ .ra: .cfa -88 + ^ x29: .cfa -96 + ^
STACK CFI 13514 .cfa: sp 128 +
STACK CFI 13530 .cfa: sp 0 +
STACK CFI 13534 .cfa: x29 96 +
STACK CFI INIT 13578 50 .cfa: sp 0 +
STACK CFI 1357c .cfa: sp 32 +
STACK CFI 13584 .cfa: x29 32 + x19: .cfa -8 + ^ x20: .cfa -16 + ^ .ra: .cfa -24 + ^ x29: .cfa -32 + ^
STACK CFI INIT 1362c 178 .cfa: sp 0 +
STACK CFI 13630 .cfa: sp 80 +
STACK CFI 13644 .cfa: x29 80 + x19: .cfa -8 + ^ x20: .cfa -16 + ^ x21: .cfa -24 + ^ x22: .cfa -32 + ^ x23: .cfa -40 + ^ x24: .cfa -48 + ^ x25: .cfa -64 + ^ .ra: .cfa -72 + ^ x29: .cfa -80 + ^
STACK CFI 13770 .cfa: sp 80 +
STACK CFI 13784 .cfa: sp 0 +
STACK CFI 13788 .cfa: x29 80 +
STACK CFI INIT 138ec 228 .cfa: sp 0 +
STACK CFI 138f0 .cfa: sp 128 +
STACK CFI 13908 .cfa: x29 80 + x19: .cfa -8 + ^ x20: .cfa -16 + ^ x21: .cfa -24 + ^ x22: .cfa -32 + ^ x23: .cfa -40 + ^ x24: .cfa -48 + ^ x25: .cfa -64 + ^ .ra: .cfa -72 + ^ x29: .cfa -80 + ^
STACK CFI 13aa4 .cfa: sp 128 +
STACK CFI 13abc .cfa: sp 0 +
STACK CFI 13ac0 .cfa: x29 80 +
STACK CFI INIT 14440 2c8 .cfa: sp 0 +
STACK CFI 14444 .cfa: sp 144 +
STACK CFI 14458 .cfa: x29 64 + x19: .cfa -8 + ^ x20: .cfa -16 + ^ x21: .cfa -24 + ^ x22: .cfa -32 + ^ x23: .cfa -40 + ^ x24: .cfa -48 + ^ .ra: .cfa -56 + ^ x29: .cfa -64 + ^
STACK CFI 14638 .cfa: sp 144 +
STACK CFI 1464c .cfa: sp 0 +
STACK CFI 14650 .cfa: x29 64 +
STACK CFI INIT 14a30 480 .cfa: sp 0 +
STACK CFI 14a34 .cfa: sp 224 +
STACK CFI 14a50 .cfa: x29 96 + x19: .cfa -8 + ^ x20: .cfa -16 + ^ x21: .cfa -24 + ^ x22: .cfa -32 + ^ x23: .cfa -40 + ^ x24: .cfa -48 + ^ x25: .cfa -56 + ^ x26: .cfa -64 + ^ x27: .cfa -80 + ^ .ra: .cfa -88 + ^ x29: .cfa -96 + ^
STACK CFI 14cbc .cfa: sp 224 +
STACK CFI 14cd8 .cfa: sp 0 +
STACK CFI 14cdc .cfa: x29 96 +
STACK CFI 14da8 .cfa: sp 224 +
STACK CFI 14dc4 .cfa: sp 0 +
STACK CFI 14dc8 .cfa: x29 96 +
STACK CFI INIT 14ecc 3b0 .cfa: sp 0 +
STACK CFI 14ed0 .cfa: sp 224 +
STACK CFI 14ee4 .cfa: x29 64 + x19: .cfa -8 + ^ x20: .cfa -16 + ^ x21: .cfa -24 + ^ x22: .cfa -32 + ^ x23: .cfa -48 + ^ .ra: .cfa -56 + ^ x29: .cfa -64 + ^
STACK CFI 1514c .cfa: sp 224 +
STACK CFI 15160 .cfa: sp 0 +
STACK CFI 15164 .cfa: x29 64 +
STACK CFI INIT 153c0 2c8 .cfa: sp 0 +
STACK CFI 153c4 .cfa: sp 144 +
STACK CFI 153d8 .cfa: x29 64 + x19: .cfa -8 + ^ x20: .cfa -16 + ^ x21: .cfa -24 + ^ x22: .cfa -32 + ^ x23: .cfa -40 + ^ x24: .cfa -48 + ^ .ra: .cfa -56 + ^ x29: .cfa -64 + ^
STACK CFI 155b8 .cfa: sp 144 +
STACK CFI 155cc .cfa: sp 0 +
STACK CFI 155d0 .cfa: x29 64 +
STACK CFI INIT 15688 480 .cfa: sp 0 +
STACK CFI 1568c .cfa: sp 224 +
STACK CFI 156a8 .cfa: x29 96 + x19: .cfa -8 + ^ x20: .cfa -16 + ^ x21: .cfa -24 + ^ x22: .cfa -32 + ^ x23: .cfa -40 + ^ x24: .cfa -48 + ^ x25: .cfa -56 + ^ x26: .cfa -64 + ^ x27: .cfa -80 + ^ .ra: .cfa -88 + ^ x29: .cfa -96 + ^
STACK CFI 15914 .cfa: sp 224 +
STACK CFI 15930 .cfa: sp 0 +
STACK CFI 15934 .cfa: x29 96 +
STACK CFI 15a00 .cfa: sp 224 +
STACK CFI 15a1c .cfa: sp 0 +
STACK CFI 15a20 .cfa: x29 96 +
STACK CFI INIT 15b24 690 .cfa: sp 0 +
STACK CFI 15b28 .cfa: sp 288 +
STACK CFI 15b44 .cfa: x29 96 + x19: .cfa -8 + ^ x20: .cfa -16 + ^ x21: .cfa -24 + ^ x22: .cfa -32 + ^ x23: .cfa -40 + ^ x24: .cfa -48 + ^ x25: .cfa -56 + ^ x26: .cfa -64 + ^ x28: .cfa -80 + ^ .ra: .cfa -88 + ^ x29: .cfa -96 + ^
STACK CFI 15fc0 .cfa: sp 288 +
STACK CFI 15fdc .cfa: sp 0 +
STACK CFI 15fe0 .cfa: x29 96 +
STACK CFI INIT 1632c a8 .cfa: sp 0 +
STACK CFI 16330 .cfa: sp 32 +
STACK CFI 16338 .cfa: x29 32 + x19: .cfa -16 + ^ .ra: .cfa -24 + ^ x29: .cfa -32 + ^
STACK CFI 1636c .cfa: sp 32 +
STACK CFI 16374 .cfa: sp 0 +
STACK CFI 16378 .cfa: x29 32 +
STACK CFI 1637c .cfa: sp 32 +
STACK CFI 16384 .cfa: sp 0 +
STACK CFI 16388 .cfa: x29 32 +
STACK CFI INIT 16470 50 .cfa: sp 0 +
STACK CFI 16474 .cfa: sp 32 +
STACK CFI 1647c .cfa: x29 32 + x19: .cfa -8 + ^ x20: .cfa -16 + ^ .ra: .cfa -24 + ^ x29: .cfa -32 + ^
STACK CFI INIT 164f0 328 .cfa: sp 0 +
STACK CFI 164f4 .cfa: sp 160 +
STACK CFI 1650c .cfa: x29 80 + x19: .cfa -8 + ^ x20: .cfa -16 + ^ x21: .cfa -24 + ^ x22: .cfa -32 + ^ x23: .cfa -40 + ^ x24: .cfa -48 + ^ x25: .cfa -64 + ^ .ra: .cfa -72 + ^ x29: .cfa -80 + ^
STACK CFI 16594 .cfa: sp 160 +
STACK CFI 165ac .cfa: sp 0 +
STACK CFI 165b0 .cfa: x29 80 +
STACK CFI 16744 .cfa: sp 160 +
STACK CFI 1675c .cfa: sp 0 +
STACK CFI 16760 .cfa: x29 80 +
STACK CFI INIT 16818 43c .cfa: sp 0 +
STACK CFI 1681c .cfa: sp 224 +
STACK CFI 16838 .cfa: x29 96 + x19: .cfa -8 + ^ x20: .cfa -16 + ^ x21: .cfa -24 + ^ x22: .cfa -32 + ^ x23: .cfa -40 + ^ x24: .cfa -48 + ^ x25: .cfa -56 + ^ x26: .cfa -64 + ^ x27: .cfa -72 + ^ x28: .cfa -80 + ^ .ra: .cfa -88 + ^ x29: .cfa -96 + ^
STACK CFI 16b4c .cfa: sp 224 +
STACK CFI 16b68 .cfa: sp 0 +
STACK CFI 16b6c .cfa: x29 96 +
STACK CFI INIT 16c70 e70 .cfa: sp 0 +
STACK CFI 16c74 .cfa: sp 304 +
STACK CFI 16c90 .cfa: x29 96 + x19: .cfa -8 + ^ x20: .cfa -16 + ^ x21: .cfa -24 + ^ x22: .cfa -32 + ^ x23: .cfa -40 + ^ x24: .cfa -48 + ^ x25: .cfa -56 + ^ x26: .cfa -64 + ^ x27: .cfa -72 + ^ x28: .cfa -80 + ^ .ra: .cfa -88 + ^ x29: .cfa -96 + ^
STACK CFI 176ec .cfa: sp 304 +
STACK CFI 17708 .cfa: sp 0 +
STACK CFI 1770c .cfa: x29 96 +
STACK CFI INIT 17b34 134 .cfa: sp 0 +
STACK CFI 17b38 .cfa: sp 128 +
STACK CFI 17b4c .cfa: x29 64 + x19: .cfa -8 + ^ x20: .cfa -16 + ^ x21: .cfa -24 + ^ x22: .cfa -32 + ^ x23: .cfa -40 + ^ x24: .cfa -48 + ^ .ra: .cfa -56 + ^ x29: .cfa -64 + ^
STACK CFI 17c18 .cfa: sp 128 +
STACK CFI 17c2c .cfa: sp 0 +
STACK CFI 17c30 .cfa: x29 64 +
STACK CFI INIT 17e68 e24 .cfa: sp 0 +
STACK CFI 17e6c .cfa: sp 96 +
STACK CFI 17e84 .cfa: x29 64 + x19: .cfa -8 + ^ x20: .cfa -16 + ^ x21: .cfa -24 + ^ x22: .cfa -32 + ^ x23: .cfa -40 + ^ x28: .cfa -48 + ^ .ra: .cfa -56 + ^ x29: .cfa -64 + ^ v8: .cfa -72 + ^ v9: .cfa -80 + ^ v10: .cfa -96 + ^
STACK CFI 18780 .cfa: sp 96 +
STACK CFI 18798 .cfa: sp 0 +
STACK CFI 1879c .cfa: x29 64 +
STACK CFI INIT 18c8c 478 .cfa: sp 0 +
STACK CFI 18c90 .cfa: sp 144 +
STACK CFI 18ca8 .cfa: x29 80 + x19: .cfa -8 + ^ x20: .cfa -16 + ^ x21: .cfa -24 + ^ x22: .cfa -32 + ^ x23: .cfa -40 + ^ x24: .cfa -48 + ^ x25: .cfa -56 + ^ x26: .cfa -64 + ^ .ra: .cfa -72 + ^ x29: .cfa -80 + ^
STACK CFI 18f58 .cfa: sp 144 +
STACK CFI 18f70 .cfa: sp 0 +
STACK CFI 18f74 .cfa: x29 80 +
STACK CFI INIT 19104 394 .cfa: sp 0 +
STACK CFI 19108 .cfa: sp 160 +
STACK CFI 1911c .cfa: x29 64 + x19: .cfa -8 + ^ x20: .cfa -16 + ^ x21: .cfa -24 + ^ x22: .cfa -32 + ^ x23: .cfa -40 + ^ x24: .cfa -48 + ^ .ra: .cfa -56 + ^ x29: .cfa -64 + ^
STACK CFI 19208 .cfa: sp 160 +
STACK CFI 1921c .cfa: sp 0 +
STACK CFI 19220 .cfa: x29 64 +
STACK CFI 19438 .cfa: sp 160 +
STACK CFI 1944c .cfa: sp 0 +
STACK CFI 19450 .cfa: x29 64 +
STACK CFI INIT 19498 710 .cfa: sp 0 +
STACK CFI 1949c .cfa: sp 352 +
STACK CFI 194b8 .cfa: x29 96 + x19: .cfa -8 + ^ x20: .cfa -16 + ^ x21: .cfa -24 + ^ x22: .cfa -32 + ^ x23: .cfa -40 + ^ x24: .cfa -48 + ^ x25: .cfa -56 + ^ x26: .cfa -64 + ^ x28: .cfa -80 + ^ .ra: .cfa -88 + ^ x29: .cfa -96 + ^
STACK CFI 1989c .cfa: sp 352 +
STACK CFI 198b8 .cfa: sp 0 +
STACK CFI 198bc .cfa: x29 96 +
STACK CFI INIT 19ba8 f8 .cfa: sp 0 +
STACK CFI 19bac .cfa: sp 112 +
STACK CFI 19bc4 .cfa: x29 80 + x19: .cfa -8 + ^ x20: .cfa -16 + ^ x21: .cfa -24 + ^ x22: .cfa -32 + ^ x23: .cfa -40 + ^ x24: .cfa -48 + ^ x25: .cfa -64 + ^ .ra: .cfa -72 + ^ x29: .cfa -80 + ^
STACK CFI 19c50 .cfa: sp 112 +
STACK CFI 19c68 .cfa: sp 0 +
STACK CFI 19c6c .cfa: x29 80 +
STACK CFI INIT 19ca0 150 .cfa: sp 0 +
STACK CFI 19ca4 .cfa: sp 160 +
STACK CFI 19cb8 .cfa: x29 64 + x19: .cfa -8 + ^ x20: .cfa -16 + ^ x21: .cfa -24 + ^ x22: .cfa -32 + ^ x23: .cfa -48 + ^ .ra: .cfa -56 + ^ x29: .cfa -64 + ^
STACK CFI 19da4 .cfa: sp 160 +
STACK CFI 19db8 .cfa: sp 0 +
STACK CFI 19dbc .cfa: x29 64 +
STACK CFI INIT 19e08 74 .cfa: sp 0 +
STACK CFI 19e0c .cfa: sp 48 +
STACK CFI 19e18 .cfa: x29 32 + x19: .cfa -8 + ^ x20: .cfa -16 + ^ .ra: .cfa -24 + ^ x29: .cfa -32 + ^
STACK CFI 19e64 .cfa: sp 48 +
STACK CFI 19e70 .cfa: sp 0 +
STACK CFI 19e74 .cfa: x29 32 +
STACK CFI INIT 19e7c 74 .cfa: sp 0 +
STACK CFI 19e80 .cfa: sp 48 +
STACK CFI 19e8c .cfa: x29 32 + x19: .cfa -8 + ^ x20: .cfa -16 + ^ .ra: .cfa -24 + ^ x29: .cfa -32 + ^
STACK CFI 19ed8 .cfa: sp 48 +
STACK CFI 19ee4 .cfa: sp 0 +
STACK CFI 19ee8 .cfa: x29 32 +
STACK CFI INIT 19ef0 74 .cfa: sp 0 +
STACK CFI 19ef4 .cfa: sp 48 +
STACK CFI 19f00 .cfa: x29 32 + x19: .cfa -8 + ^ x20: .cfa -16 + ^ .ra: .cfa -24 + ^ x29: .cfa -32 + ^
STACK CFI 19f4c .cfa: sp 48 +
STACK CFI 19f58 .cfa: sp 0 +
STACK CFI 19f5c .cfa: x29 32 +
STACK CFI INIT 19f64 168 .cfa: sp 0 +
STACK CFI 19f68 .cfa: sp 384 +
STACK CFI 19f7c .cfa: x29 64 + x19: .cfa -8 + ^ x20: .cfa -16 + ^ x21: .cfa -24 + ^ x22: .cfa -32 + ^ x23: .cfa -40 + ^ x28: .cfa -48 + ^ .ra: .cfa -56 + ^ x29: .cfa -64 + ^
STACK CFI 1a074 .cfa: sp 384 +
STACK CFI 1a088 .cfa: sp 0 +
STACK CFI 1a08c .cfa: x29 64 +
STACK CFI INIT 1a12c 5f4 .cfa: sp 0 +
STACK CFI 1a130 .cfa: sp 416 +
STACK CFI 1a14c .cfa: x29 96 + x19: .cfa -8 + ^ x20: .cfa -16 + ^ x21: .cfa -24 + ^ x22: .cfa -32 + ^ x23: .cfa -40 + ^ x24: .cfa -48 + ^ x25: .cfa -56 + ^ x26: .cfa -64 + ^ x27: .cfa -72 + ^ x28: .cfa -80 + ^ .ra: .cfa -88 + ^ x29: .cfa -96 + ^
STACK CFI 1a560 .cfa: sp 416 +
STACK CFI 1a57c .cfa: sp 0 +
STACK CFI 1a580 .cfa: x29 96 +
STACK CFI INIT 1a8b4 134 .cfa: sp 0 +
STACK CFI 1a8b8 .cfa: sp 80 +
STACK CFI 1a8c4 .cfa: x29 32 + x19: .cfa -8 + ^ x20: .cfa -16 + ^ .ra: .cfa -24 + ^ x29: .cfa -32 + ^
STACK CFI 1a8f4 .cfa: sp 80 +
STACK CFI 1a900 .cfa: sp 0 +
STACK CFI 1a904 .cfa: x29 32 +
STACK CFI INIT 1a9e8 78 .cfa: sp 0 +
STACK CFI 1a9ec .cfa: sp 32 +
STACK CFI 1a9f4 .cfa: x29 32 + x19: .cfa -8 + ^ x20: .cfa -16 + ^ .ra: .cfa -24 + ^ x29: .cfa -32 + ^
STACK CFI 1aa00 .cfa: sp 32 +
STACK CFI 1aa08 .cfa: sp 0 +
STACK CFI 1aa0c .cfa: x29 32 +
STACK CFI INIT 1aa60 74 .cfa: sp 0 +
STACK CFI 1aa64 .cfa: sp 48 +
STACK CFI 1aa70 .cfa: x29 32 + x19: .cfa -8 + ^ x20: .cfa -16 + ^ .ra: .cfa -24 + ^ x29: .cfa -32 + ^
STACK CFI 1aabc .cfa: sp 48 +
STACK CFI 1aac8 .cfa: sp 0 +
STACK CFI 1aacc .cfa: x29 32 +
STACK CFI INIT 1abd4 1b8 .cfa: sp 0 +
STACK CFI 1abd8 .cfa: sp 160 +
STACK CFI 1abf4 .cfa: x29 72 + x19: .cfa -8 + ^ x20: .cfa -16 + ^ x21: .cfa -24 + ^ x22: .cfa -32 + ^ x23: .cfa -40 + ^ x24: .cfa -48 + ^ x25: .cfa -56 + ^ .ra: .cfa -64 + ^ x29: .cfa -72 + ^ v8: .cfa -80 + ^
STACK CFI 1ac78 .cfa: sp 160 +
STACK CFI 1ac94 .cfa: sp 0 +
STACK CFI 1ac98 .cfa: x29 72 +
STACK CFI INIT 1ad8c 4e4 .cfa: sp 0 +
STACK CFI 1ad90 .cfa: sp 96 +
STACK CFI 1ada8 .cfa: x29 80 + x19: .cfa -8 + ^ x20: .cfa -16 + ^ x21: .cfa -24 + ^ x22: .cfa -32 + ^ x23: .cfa -40 + ^ x24: .cfa -48 + ^ x25: .cfa -64 + ^ .ra: .cfa -72 + ^ x29: .cfa -80 + ^
STACK CFI 1b1ec .cfa: sp 96 +
STACK CFI 1b204 .cfa: sp 0 +
STACK CFI 1b208 .cfa: x29 80 +
STACK CFI INIT 1b270 2e8 .cfa: sp 0 +
STACK CFI 1b274 .cfa: sp 128 +
STACK CFI 1b288 .cfa: x29 64 + x19: .cfa -8 + ^ x20: .cfa -16 + ^ x21: .cfa -24 + ^ x22: .cfa -32 + ^ x23: .cfa -48 + ^ .ra: .cfa -56 + ^ x29: .cfa -64 + ^
STACK CFI 1b404 .cfa: sp 128 +
STACK CFI 1b418 .cfa: sp 0 +
STACK CFI 1b41c .cfa: x29 64 +
STACK CFI INIT 1b5c8 278 .cfa: sp 0 +
STACK CFI 1b5cc .cfa: sp 128 +
STACK CFI 1b5e0 .cfa: x29 64 + x19: .cfa -8 + ^ x20: .cfa -16 + ^ x21: .cfa -24 + ^ x22: .cfa -32 + ^ x23: .cfa -48 + ^ .ra: .cfa -56 + ^ x29: .cfa -64 + ^
STACK CFI 1b6ec .cfa: sp 128 +
STACK CFI 1b700 .cfa: sp 0 +
STACK CFI 1b704 .cfa: x29 64 +
STACK CFI INIT 1b840 2c8 .cfa: sp 0 +
STACK CFI 1b844 .cfa: sp 128 +
STACK CFI 1b858 .cfa: x29 64 + x19: .cfa -8 + ^ x20: .cfa -16 + ^ x21: .cfa -24 + ^ x22: .cfa -32 + ^ x23: .cfa -48 + ^ .ra: .cfa -56 + ^ x29: .cfa -64 + ^
STACK CFI 1b9b4 .cfa: sp 128 +
STACK CFI 1b9c8 .cfa: sp 0 +
STACK CFI 1b9cc .cfa: x29 64 +
STACK CFI INIT 1bb08 4cc .cfa: sp 0 +
STACK CFI 1bb0c .cfa: sp 128 +
STACK CFI 1bb20 .cfa: x29 64 + x19: .cfa -8 + ^ x20: .cfa -16 + ^ x21: .cfa -24 + ^ x22: .cfa -32 + ^ x23: .cfa -48 + ^ .ra: .cfa -56 + ^ x29: .cfa -64 + ^
STACK CFI 1be2c .cfa: sp 128 +
STACK CFI 1be40 .cfa: sp 0 +
STACK CFI 1be44 .cfa: x29 64 +
STACK CFI INIT 1bfd4 154 .cfa: sp 0 +
STACK CFI 1bfd8 .cfa: sp 384 +
STACK CFI 1bfec .cfa: x29 64 + x19: .cfa -8 + ^ x20: .cfa -16 + ^ x21: .cfa -24 + ^ x22: .cfa -32 + ^ x23: .cfa -40 + ^ x28: .cfa -48 + ^ .ra: .cfa -56 + ^ x29: .cfa -64 + ^
STACK CFI 1c0d0 .cfa: sp 384 +
STACK CFI 1c0e4 .cfa: sp 0 +
STACK CFI 1c0e8 .cfa: x29 64 +
STACK CFI INIT 1c140 4e0 .cfa: sp 0 +
STACK CFI 1c144 .cfa: sp 64 +
STACK CFI 1c154 .cfa: x29 64 + x19: .cfa -8 + ^ x20: .cfa -16 + ^ x21: .cfa -24 + ^ x22: .cfa -32 + ^ x23: .cfa -40 + ^ x24: .cfa -48 + ^ .ra: .cfa -56 + ^ x29: .cfa -64 + ^
STACK CFI 1c5f4 .cfa: sp 64 +
STACK CFI 1c604 .cfa: sp 0 +
STACK CFI 1c608 .cfa: x29 64 +
