MODULE Linux arm64 70AA31AD1C2CD5DB0336033E2DA83D140 prevter.go-indicator.android64.so
INFO CODE_ID AD31AA702C1CDBD50336033E2DA83D149E1032BE
INFO GENERATOR mozilla/dump_syms 2.3.4
PUBLIC 29ff0 0 __on_dlclose
PUBLIC 2a000 0 __emutls_unregister_key
PUBLIC 2a008 0 __on_dlclose_late
PUBLIC 2a010 0 __atexit_handler_wrapper
PUBLIC 2a024 0 atexit
PUBLIC 2a040 0 pthread_atfork
PUBLIC 2a050 0 unwind_phase2
PUBLIC 2a184 0 _Unwind_Resume
PUBLIC 2a208 0 unwind_phase2_forced
PUBLIC m 2a2fc 0 __unw_init_local
PUBLIC m 2a3a4 0 __unw_get_reg
PUBLIC 2a420 0 __unw_step_stage2
PUBLIC m 2a434 0 __unw_get_proc_info
PUBLIC m 2a474 0 __unw_resume
PUBLIC 2a49c 0 libunwind::CFI_Parser<libunwind::LocalAddressSpace>::decodeFDE(libunwind::LocalAddressSpace&, unsigned long, libunwind::CFI_Parser<libunwind::LocalAddressSpace>::FDE_Info*, libunwind::CFI_Parser<libunwind::LocalAddressSpace>::CIE_Info*, bool)
PUBLIC 2a62c 0 libunwind::CFI_Parser<libunwind::LocalAddressSpace>::parseCIE(libunwind::LocalAddressSpace&, unsigned long, libunwind::CFI_Parser<libunwind::LocalAddressSpace>::CIE_Info*)
PUBLIC 2a8f4 0 libunwind::AbstractUnwindCursor::~AbstractUnwindCursor()
PUBLIC 2a8fc 0 libunwind::UnwindCursor<libunwind::LocalAddressSpace, libunwind::Registers_arm64>::~UnwindCursor()
PUBLIC 2a904 0 libunwind::UnwindCursor<libunwind::LocalAddressSpace, libunwind::Registers_arm64>::validReg(int)
PUBLIC 2a948 0 libunwind::UnwindCursor<libunwind::LocalAddressSpace, libunwind::Registers_arm64>::getReg(int)
PUBLIC 2aa30 0 libunwind::UnwindCursor<libunwind::LocalAddressSpace, libunwind::Registers_arm64>::setReg(int, unsigned long)
PUBLIC 2ab18 0 libunwind::UnwindCursor<libunwind::LocalAddressSpace, libunwind::Registers_arm64>::validFloatReg(int)
PUBLIC 2ab2c 0 libunwind::UnwindCursor<libunwind::LocalAddressSpace, libunwind::Registers_arm64>::getFloatReg(int)
PUBLIC 2ab3c 0 libunwind::UnwindCursor<libunwind::LocalAddressSpace, libunwind::Registers_arm64>::setFloatReg(int, double)
PUBLIC 2ab4c 0 libunwind::UnwindCursor<libunwind::LocalAddressSpace, libunwind::Registers_arm64>::step(bool)
PUBLIC 2ac3c 0 libunwind::UnwindCursor<libunwind::LocalAddressSpace, libunwind::Registers_arm64>::getInfo(unw_proc_info_t*)
PUBLIC 2ac80 0 libunwind::UnwindCursor<libunwind::LocalAddressSpace, libunwind::Registers_arm64>::jumpto()
PUBLIC 2ac8c 0 libunwind::UnwindCursor<libunwind::LocalAddressSpace, libunwind::Registers_arm64>::isSignalFrame()
PUBLIC 2ac98 0 libunwind::UnwindCursor<libunwind::LocalAddressSpace, libunwind::Registers_arm64>::getFunctionName(char*, unsigned long, unsigned long*)
PUBLIC 2acc4 0 libunwind::UnwindCursor<libunwind::LocalAddressSpace, libunwind::Registers_arm64>::setInfoBasedOnIPRegister(bool)
PUBLIC 2af44 0 libunwind::UnwindCursor<libunwind::LocalAddressSpace, libunwind::Registers_arm64>::getRegisterName(int)
PUBLIC 2af50 0 libunwind::UnwindCursor<libunwind::LocalAddressSpace, libunwind::Registers_arm64>::stepThroughSigReturn(libunwind::Registers_arm64&)
PUBLIC 2b070 0 libunwind::DwarfInstructions<libunwind::LocalAddressSpace, libunwind::Registers_arm64>::stepWithDwarf(libunwind::LocalAddressSpace&, unsigned long, unsigned long, libunwind::Registers_arm64&, bool&, bool)
PUBLIC 2b4f8 0 libunwind::CFI_Parser<libunwind::LocalAddressSpace>::parseFDEInstructions(libunwind::LocalAddressSpace&, libunwind::CFI_Parser<libunwind::LocalAddressSpace>::FDE_Info const&, libunwind::CFI_Parser<libunwind::LocalAddressSpace>::CIE_Info const&, unsigned long, int, libunwind::CFI_Parser<libunwind::LocalAddressSpace>::PrologInfo*)
PUBLIC 2c140 0 libunwind::DwarfInstructions<libunwind::LocalAddressSpace, libunwind::Registers_arm64>::getCFA(libunwind::LocalAddressSpace&, libunwind::CFI_Parser<libunwind::LocalAddressSpace>::PrologInfo const&, libunwind::Registers_arm64 const&)
PUBLIC 2c274 0 libunwind::DwarfInstructions<libunwind::LocalAddressSpace, libunwind::Registers_arm64>::getSavedRegister(libunwind::LocalAddressSpace&, libunwind::Registers_arm64 const&, unsigned long, libunwind::CFI_Parser<libunwind::LocalAddressSpace>::RegisterLocation const&)
PUBLIC 2c484 0 libunwind::LocalAddressSpace::getEncodedP(unsigned long&, unsigned long, unsigned char, unsigned long)
PUBLIC 2c810 0 libunwind::LocalAddressSpace::getULEB128(unsigned long&, unsigned long)
PUBLIC 2c9d8 0 libunwind::DwarfInstructions<libunwind::LocalAddressSpace, libunwind::Registers_arm64>::evaluateExpression(unsigned long, libunwind::LocalAddressSpace&, libunwind::Registers_arm64 const&, unsigned long)
PUBLIC 2d394 0 libunwind::UnwindCursor<libunwind::LocalAddressSpace, libunwind::Registers_arm64>::getInfoFromDwarfSection(unsigned long, libunwind::UnwindInfoSections const&, unsigned int)
PUBLIC 2d668 0 libunwind::findUnwindSectionsByPhdr(dl_phdr_info*, unsigned long, void*)
PUBLIC 2d79c 0 libunwind::EHHeaderParser<libunwind::LocalAddressSpace>::decodeEHHdr(libunwind::LocalAddressSpace&, unsigned long, unsigned long, libunwind::EHHeaderParser<libunwind::LocalAddressSpace>::EHHeaderInfo&)
PUBLIC 2d8bc 0 libunwind::CFI_Parser<libunwind::LocalAddressSpace>::findFDE(libunwind::LocalAddressSpace&, unsigned long, unsigned long, unsigned long, unsigned long, libunwind::CFI_Parser<libunwind::LocalAddressSpace>::FDE_Info*, libunwind::CFI_Parser<libunwind::LocalAddressSpace>::CIE_Info*)
PUBLIC 2da84 0 libunwind::EHHeaderParser<libunwind::LocalAddressSpace>::findFDE(libunwind::LocalAddressSpace&, unsigned long, unsigned long, unsigned int, libunwind::CFI_Parser<libunwind::LocalAddressSpace>::FDE_Info*, libunwind::CFI_Parser<libunwind::LocalAddressSpace>::CIE_Info*)
PUBLIC 2dbec 0 libunwind::EHHeaderParser<libunwind::LocalAddressSpace>::getTableEntrySize(unsigned char)
PUBLIC 2dce8 0 libunwind::Registers_arm64::getRegisterName(int)
PUBLIC 2dd18 0 __libunwind_Registers_arm64_jumpto
PUBLIC m 2dda8 0 __unw_getcontext
PUBLIC 2de50 0 __aarch64_ldadd8_relax
PUBLIC 2de80 0 init_have_lse_atomics
PUBLIC 2df18 0 __init_cpu_features_constructor
PUBLIC 2e4b4 0 __init_cpu_features
PUBLIC 2e540 0 __aarch64_ldadd8_acq_rel
PUBLIC 2e570 0 GoIndicatorPlayLayer::recreateIndicators()
PUBLIC 2f608 0 IndicatorData::hasIndicators(std::__ndk1::basic_string_view<char, std::__ndk1::char_traits<char> >)
PUBLIC 2f7d4 0 IndicatorData::getIndicators(std::__ndk1::basic_string_view<char, std::__ndk1::char_traits<char> >)
PUBLIC 2fa14 0 geode::Mod::getSavedValue<double>(std::__ndk1::basic_string_view<char, std::__ndk1::char_traits<char> >, double const&)
PUBLIC 2fbf0 0 std::__ndk1::vector<IndicatorData, std::__ndk1::allocator<IndicatorData> >::~vector[abi:ne180000]()
PUBLIC 2fc94 0 __cxx_global_var_init
PUBLIC 2fcf4 0 geode::modifier::ModifyBase<geode::modifier::ModifyDerive<GoIndicatorPlayLayer, PlayLayer> >::~ModifyBase()
PUBLIC 2fd10 0 __cxx_global_var_init.3
PUBLIC 30190 0 geode::modifier::ModifyBase<geode::modifier::ModifyDerive<GoIndicatorPauseLayer, PauseLayer> >::~ModifyBase()
PUBLIC 301ac 0 __clang_call_terminate
PUBLIC 301bc 0 geode::modifier::FieldIntermediate<GoIndicatorPlayLayer, PlayLayer>::fieldDestructor(void*)
PUBLIC 301d4 0 std::__ndk1::vector<void*, std::__ndk1::allocator<void*> >::__throw_length_error[abi:ne180000]() const
PUBLIC 301e8 0 std::__ndk1::__throw_length_error[abi:ne180000](char const*)
PUBLIC 30238 0 std::length_error::length_error[abi:ne180000](char const*)
PUBLIC 30268 0 std::__throw_bad_array_new_length([abi:ne180000], void)
PUBLIC 3029c 0 std::__ndk1::vector<std::__ndk1::function<void (void*)>, std::__ndk1::allocator<std::__ndk1::function<void (void*)> > >::__throw_length_error[abi:ne180000]() const
PUBLIC 302b0 0 std::__ndk1::vector<void*, std::__ndk1::allocator<void*> >::__throw_out_of_range[abi:ne180000]() const
PUBLIC 302bc 0 std::__ndk1::__throw_out_of_range[abi:ne180000](char const*)
PUBLIC 3030c 0 std::out_of_range::out_of_range[abi:ne180000](char const*)
PUBLIC 3033c 0 std::__ndk1::vector<std::__ndk1::function<void (void*)>, std::__ndk1::allocator<std::__ndk1::function<void (void*)> > >::__throw_out_of_range[abi:ne180000]() const
PUBLIC 30348 0 std::__ndk1::__function::__base<void (void*)>::~__base()
PUBLIC 3034c 0 std::__ndk1::__function::__func<void (*)(void*), std::__ndk1::allocator<void (*)(void*)>, void (void*)>::~__func()
PUBLIC 30350 0 std::__ndk1::__function::__func<void (*)(void*), std::__ndk1::allocator<void (*)(void*)>, void (void*)>::__clone() const
PUBLIC 30388 0 std::__ndk1::__function::__func<void (*)(void*), std::__ndk1::allocator<void (*)(void*)>, void (void*)>::__clone(std::__ndk1::__function::__base<void (void*)>*) const
PUBLIC 303a0 0 std::__ndk1::__function::__func<void (*)(void*), std::__ndk1::allocator<void (*)(void*)>, void (void*)>::destroy()
PUBLIC 303a4 0 std::__ndk1::__function::__func<void (*)(void*), std::__ndk1::allocator<void (*)(void*)>, void (void*)>::destroy_deallocate()
PUBLIC 303a8 0 std::__ndk1::__function::__func<void (*)(void*), std::__ndk1::allocator<void (*)(void*)>, void (void*)>::operator()(void*&&)
PUBLIC 303b8 0 std::__ndk1::__function::__func<void (*)(void*), std::__ndk1::allocator<void (*)(void*)>, void (void*)>::target(std::type_info const&) const
PUBLIC 303d4 0 std::__ndk1::__function::__func<void (*)(void*), std::__ndk1::allocator<void (*)(void*)>, void (void*)>::target_type() const
PUBLIC 303e0 0 geode::Mod::getSavedValue<bool>(std::__ndk1::basic_string_view<char, std::__ndk1::char_traits<char> >, bool const&)
PUBLIC 305cc 0 geode::impl::ResultData<matjson::Value&, std::__ndk1::basic_string<char, std::__ndk1::char_traits<char>, std::__ndk1::allocator<char> > >::~ResultData()
PUBLIC 30640 0 _ZN5geode15UnwrapExceptionC2IRNSt6__ndk112basic_stringIcNS2_11char_traitsIcEENS2_9allocatorIcEEEEQsr4implE18IsStringStreamableIT_EEENS_4impl6ErrTagEOSA_
PUBLIC 307a8 0 std::__ndk1::__throw_bad_variant_access[abi:ne180000]()
PUBLIC 307dc 0 std::__ndk1::basic_stringstream<char, std::__ndk1::char_traits<char>, std::__ndk1::allocator<char> >::basic_stringstream[abi:ne180000]()
PUBLIC m 30908 0 std::__ndk1::basic_stringstream<char, std::__ndk1::char_traits<char>, std::__ndk1::allocator<char> >::~basic_stringstream()
PUBLIC 30988 0 geode::UnwrapException::~UnwrapException()
PUBLIC 309ac 0 std::__ndk1::__put_character_sequence[abi:ne180000]<char, std::__ndk1::char_traits<char> >(std::__ndk1::basic_ostream<char, std::__ndk1::char_traits<char> >, std::__ndk1::basic_ostream const*, unsigned long)
PUBLIC 30b50 0 std::__ndk1::__pad_and_output[abi:ne180000]<char, std::__ndk1::char_traits<char> >(std::__ndk1::char_traits<char>, std::__ndk1::ostreambuf_iterator const*, std::__ndk1::ostreambuf_iterator const, std::__ndk1::ostreambuf_iterator const, std::__ndk1::ios_base&, std::__ndk1::ostreambuf_iterator)
PUBLIC 30d2c 0 std::__ndk1::basic_string<char, std::__ndk1::char_traits<char>, std::__ndk1::allocator<char> >::__throw_length_error[abi:ne180000]() const
PUBLIC 30d40 0 std::__ndk1::basic_stringbuf<char, std::__ndk1::char_traits<char>, std::__ndk1::allocator<char> >::str[abi:ne180000]() &&
PUBLIC 30eb8 0 std::__ndk1::basic_stringbuf<char, std::__ndk1::char_traits<char>, std::__ndk1::allocator<char> >::__init_buf_ptrs[abi:ne180000]()
PUBLIC 31000 0 std::__ndk1::basic_string<char, std::__ndk1::char_traits<char>, std::__ndk1::allocator<char> >::__init_copy_ctor_external(char const*, unsigned long)
PUBLIC 31080 0 std::__ndk1::__variant_detail::__visitation::__base::__dispatcher<(unsigned long)0>::__dispatch[abi:ne180000]<std::__ndk1::__variant_detail::__dtor<std::__ndk1::__variant_detail::__traits<std::__ndk1::reference_wrapper<matjson::Value>, std::__ndk1::basic_string<char, std::__ndk1::char_traits<char>, std::__ndk1::allocator<char> > >, (std::__ndk1::__variant_detail::_Trait)1>::__destroy[abi:ne180000]()::{lambda(auto:1&)#1}, std::__ndk1::__variant_detail::__base<(std::__ndk1::__variant_detail::__traits<std::__ndk1::reference_wrapper<matjson::Value>, std::__ndk1::basic_string<char, std::__ndk1::char_traits<char>, std::__ndk1::allocator<char> > >)1, matjson::Value, std::__ndk1::allocator<char> >&>(std::__ndk1::__variant_detail::__dtor<std::__ndk1::__variant_detail::__traits<std::__ndk1::reference_wrapper<matjson::Value>, std::__ndk1::basic_string<char, std::__ndk1::char_traits<char>, std::__ndk1::allocator<char> > >, (std::__ndk1::__variant_detail::_Trait)1>, std::__ndk1::__variant_detail::__base<(std::__ndk1::__variant_detail::__traits<std::__ndk1::reference_wrapper<matjson::Value>, std::__ndk1::basic_string<char, std::__ndk1::char_traits<char>, std::__ndk1::allocator<char> > >)1, matjson::Value, std::__ndk1::allocator<char> >&)
PUBLIC 31084 0 std::__ndk1::__variant_detail::__visitation::__base::__dispatcher<(unsigned long)1>::__dispatch[abi:ne180000]<std::__ndk1::__variant_detail::__dtor<std::__ndk1::__variant_detail::__traits<std::__ndk1::reference_wrapper<matjson::Value>, std::__ndk1::basic_string<char, std::__ndk1::char_traits<char>, std::__ndk1::allocator<char> > >, (std::__ndk1::__variant_detail::_Trait)1>::__destroy[abi:ne180000]()::{lambda(auto:1&)#1}, std::__ndk1::__variant_detail::__base<(std::__ndk1::__variant_detail::__traits<std::__ndk1::reference_wrapper<matjson::Value>, std::__ndk1::basic_string<char, std::__ndk1::char_traits<char>, std::__ndk1::allocator<char> > >)1, matjson::Value, std::__ndk1::allocator<char> >&>(std::__ndk1::__variant_detail::__dtor<std::__ndk1::__variant_detail::__traits<std::__ndk1::reference_wrapper<matjson::Value>, std::__ndk1::basic_string<char, std::__ndk1::char_traits<char>, std::__ndk1::allocator<char> > >, (std::__ndk1::__variant_detail::_Trait)1>, std::__ndk1::__variant_detail::__base<(std::__ndk1::__variant_detail::__traits<std::__ndk1::reference_wrapper<matjson::Value>, std::__ndk1::basic_string<char, std::__ndk1::char_traits<char>, std::__ndk1::allocator<char> > >)1, matjson::Value, std::__ndk1::allocator<char> >&)
PUBLIC 31098 0 std::__ndk1::__variant_detail::__visitation::__base::__dispatcher<(unsigned long)0>::__dispatch[abi:ne180000]<std::__ndk1::__variant_detail::__dtor<std::__ndk1::__variant_detail::__traits<bool, std::__ndk1::basic_string<char, std::__ndk1::char_traits<char>, std::__ndk1::allocator<char> > >, (std::__ndk1::__variant_detail::_Trait)1>::__destroy[abi:ne180000]()::{lambda(auto:1&)#1}, std::__ndk1::__variant_detail::__base<(std::__ndk1::__variant_detail::__traits<bool, std::__ndk1::basic_string<char, std::__ndk1::char_traits<char>, std::__ndk1::allocator<char> > >)1, bool, std::__ndk1::allocator<char> >&>(std::__ndk1::__variant_detail::__dtor<std::__ndk1::__variant_detail::__traits<bool, std::__ndk1::basic_string<char, std::__ndk1::char_traits<char>, std::__ndk1::allocator<char> > >, (std::__ndk1::__variant_detail::_Trait)1>, std::__ndk1::__variant_detail::__base<(std::__ndk1::__variant_detail::__traits<bool, std::__ndk1::basic_string<char, std::__ndk1::char_traits<char>, std::__ndk1::allocator<char> > >)1, bool, std::__ndk1::allocator<char> >&)
PUBLIC 3109c 0 std::__ndk1::__variant_detail::__visitation::__base::__dispatcher<(unsigned long)1>::__dispatch[abi:ne180000]<std::__ndk1::__variant_detail::__dtor<std::__ndk1::__variant_detail::__traits<bool, std::__ndk1::basic_string<char, std::__ndk1::char_traits<char>, std::__ndk1::allocator<char> > >, (std::__ndk1::__variant_detail::_Trait)1>::__destroy[abi:ne180000]()::{lambda(auto:1&)#1}, std::__ndk1::__variant_detail::__base<(std::__ndk1::__variant_detail::__traits<bool, std::__ndk1::basic_string<char, std::__ndk1::char_traits<char>, std::__ndk1::allocator<char> > >)1, bool, std::__ndk1::allocator<char> >&>(std::__ndk1::__variant_detail::__dtor<std::__ndk1::__variant_detail::__traits<bool, std::__ndk1::basic_string<char, std::__ndk1::char_traits<char>, std::__ndk1::allocator<char> > >, (std::__ndk1::__variant_detail::_Trait)1>, std::__ndk1::__variant_detail::__base<(std::__ndk1::__variant_detail::__traits<bool, std::__ndk1::basic_string<char, std::__ndk1::char_traits<char>, std::__ndk1::allocator<char> > >)1, bool, std::__ndk1::allocator<char> >&)
PUBLIC 310b0 0 geode::Mod::getSavedValue<std::__ndk1::vector<IndicatorData, std::__ndk1::allocator<IndicatorData> > >(std::__ndk1::basic_string_view<char, std::__ndk1::char_traits<char> >, std::__ndk1::vector<IndicatorData, std::__ndk1::allocator<IndicatorData> > const&)
PUBLIC 313e8 0 geode::impl::ResultData<std::__ndk1::vector<IndicatorData, std::__ndk1::allocator<IndicatorData> >, std::__ndk1::basic_string<char, std::__ndk1::char_traits<char>, std::__ndk1::allocator<char> > >::~ResultData()
PUBLIC 3145c 0 _ZN7matjson9SerializeINSt6__ndk16vectorI13IndicatorDataNS1_9allocatorIS3_EEEEE8fromJsonERKNS_5ValueEQrQSA__Xcldtfp_2asIT_EEE
PUBLIC 31894 0 std::__ndk1::vector<IndicatorData, std::__ndk1::allocator<IndicatorData> >::reserve(unsigned long)
PUBLIC 319d8 0 IndicatorData::~IndicatorData()
PUBLIC 31a1c 0 geode::impl::ResultData<IndicatorData, std::__ndk1::basic_string<char, std::__ndk1::char_traits<char>, std::__ndk1::allocator<char> > >::~ResultData()
PUBLIC 31a90 0 std::__ndk1::vector<IndicatorData, std::__ndk1::allocator<IndicatorData> >::__throw_length_error[abi:ne180000]() const
PUBLIC 31aa4 0 matjson::Serialize<IndicatorData>::fromJson(matjson::Value const&)
PUBLIC 31d1c 0 getOr<double>(matjson::Value const&, std::__ndk1::basic_string_view<char, std::__ndk1::char_traits<char> >, double)
PUBLIC 31e18 0 getOr<std::__ndk1::basic_string<char, std::__ndk1::char_traits<char>, std::__ndk1::allocator<char> > >(matjson::Value const&, std::__ndk1::basic_string_view<char, std::__ndk1::char_traits<char> >, std::__ndk1::basic_string<char, std::__ndk1::char_traits<char>, std::__ndk1::allocator<char> >)
PUBLIC 31f70 0 getOr<cocos2d::_ccColor4B>(matjson::Value const&, std::__ndk1::basic_string_view<char, std::__ndk1::char_traits<char> >, cocos2d::_ccColor4B)
PUBLIC 32060 0 getOr<bool>(matjson::Value const&, std::__ndk1::basic_string_view<char, std::__ndk1::char_traits<char> >, bool)
PUBLIC 32158 0 matjson::Value::as<double>() const
PUBLIC 3225c 0 geode::impl::ResultData<matjson::Value const&, std::__ndk1::basic_string<char, std::__ndk1::char_traits<char>, std::__ndk1::allocator<char> > >::~ResultData()
PUBLIC 322d0 0 std::__ndk1::__variant_detail::__visitation::__base::__dispatcher<(unsigned long)0>::__dispatch[abi:ne180000]<std::__ndk1::__variant_detail::__dtor<std::__ndk1::__variant_detail::__traits<double, std::__ndk1::basic_string<char, std::__ndk1::char_traits<char>, std::__ndk1::allocator<char> > >, (std::__ndk1::__variant_detail::_Trait)1>::__destroy[abi:ne180000]()::{lambda(auto:1&)#1}, std::__ndk1::__variant_detail::__base<(std::__ndk1::__variant_detail::__traits<double, std::__ndk1::basic_string<char, std::__ndk1::char_traits<char>, std::__ndk1::allocator<char> > >)1, double, std::__ndk1::allocator<char> >&>(std::__ndk1::__variant_detail::__dtor<std::__ndk1::__variant_detail::__traits<double, std::__ndk1::basic_string<char, std::__ndk1::char_traits<char>, std::__ndk1::allocator<char> > >, (std::__ndk1::__variant_detail::_Trait)1>, std::__ndk1::__variant_detail::__base<(std::__ndk1::__variant_detail::__traits<double, std::__ndk1::basic_string<char, std::__ndk1::char_traits<char>, std::__ndk1::allocator<char> > >)1, double, std::__ndk1::allocator<char> >&)
PUBLIC 322d4 0 std::__ndk1::__variant_detail::__visitation::__base::__dispatcher<(unsigned long)1>::__dispatch[abi:ne180000]<std::__ndk1::__variant_detail::__dtor<std::__ndk1::__variant_detail::__traits<double, std::__ndk1::basic_string<char, std::__ndk1::char_traits<char>, std::__ndk1::allocator<char> > >, (std::__ndk1::__variant_detail::_Trait)1>::__destroy[abi:ne180000]()::{lambda(auto:1&)#1}, std::__ndk1::__variant_detail::__base<(std::__ndk1::__variant_detail::__traits<double, std::__ndk1::basic_string<char, std::__ndk1::char_traits<char>, std::__ndk1::allocator<char> > >)1, double, std::__ndk1::allocator<char> >&>(std::__ndk1::__variant_detail::__dtor<std::__ndk1::__variant_detail::__traits<double, std::__ndk1::basic_string<char, std::__ndk1::char_traits<char>, std::__ndk1::allocator<char> > >, (std::__ndk1::__variant_detail::_Trait)1>, std::__ndk1::__variant_detail::__base<(std::__ndk1::__variant_detail::__traits<double, std::__ndk1::basic_string<char, std::__ndk1::char_traits<char>, std::__ndk1::allocator<char> > >)1, double, std::__ndk1::allocator<char> >&)
PUBLIC 322e8 0 std::__ndk1::__variant_detail::__visitation::__base::__dispatcher<(unsigned long)0>::__dispatch[abi:ne180000]<std::__ndk1::__variant_detail::__dtor<std::__ndk1::__variant_detail::__traits<std::__ndk1::reference_wrapper<matjson::Value const>, std::__ndk1::basic_string<char, std::__ndk1::char_traits<char>, std::__ndk1::allocator<char> > >, (std::__ndk1::__variant_detail::_Trait)1>::__destroy[abi:ne180000]()::{lambda(auto:1&)#1}, std::__ndk1::__variant_detail::__base<(std::__ndk1::__variant_detail::__traits<std::__ndk1::reference_wrapper<matjson::Value const>, std::__ndk1::basic_string<char, std::__ndk1::char_traits<char>, std::__ndk1::allocator<char> > >)1, matjson::Value const, std::__ndk1::allocator<char> >&>(std::__ndk1::__variant_detail::__dtor<std::__ndk1::__variant_detail::__traits<std::__ndk1::reference_wrapper<matjson::Value const>, std::__ndk1::basic_string<char, std::__ndk1::char_traits<char>, std::__ndk1::allocator<char> > >, (std::__ndk1::__variant_detail::_Trait)1>, std::__ndk1::__variant_detail::__base<(std::__ndk1::__variant_detail::__traits<std::__ndk1::reference_wrapper<matjson::Value const>, std::__ndk1::basic_string<char, std::__ndk1::char_traits<char>, std::__ndk1::allocator<char> > >)1, matjson::Value const, std::__ndk1::allocator<char> >&)
PUBLIC 322ec 0 std::__ndk1::__variant_detail::__visitation::__base::__dispatcher<(unsigned long)1>::__dispatch[abi:ne180000]<std::__ndk1::__variant_detail::__dtor<std::__ndk1::__variant_detail::__traits<std::__ndk1::reference_wrapper<matjson::Value const>, std::__ndk1::basic_string<char, std::__ndk1::char_traits<char>, std::__ndk1::allocator<char> > >, (std::__ndk1::__variant_detail::_Trait)1>::__destroy[abi:ne180000]()::{lambda(auto:1&)#1}, std::__ndk1::__variant_detail::__base<(std::__ndk1::__variant_detail::__traits<std::__ndk1::reference_wrapper<matjson::Value const>, std::__ndk1::basic_string<char, std::__ndk1::char_traits<char>, std::__ndk1::allocator<char> > >)1, matjson::Value const, std::__ndk1::allocator<char> >&>(std::__ndk1::__variant_detail::__dtor<std::__ndk1::__variant_detail::__traits<std::__ndk1::reference_wrapper<matjson::Value const>, std::__ndk1::basic_string<char, std::__ndk1::char_traits<char>, std::__ndk1::allocator<char> > >, (std::__ndk1::__variant_detail::_Trait)1>, std::__ndk1::__variant_detail::__base<(std::__ndk1::__variant_detail::__traits<std::__ndk1::reference_wrapper<matjson::Value const>, std::__ndk1::basic_string<char, std::__ndk1::char_traits<char>, std::__ndk1::allocator<char> > >)1, matjson::Value const, std::__ndk1::allocator<char> >&)
PUBLIC 32300 0 std::__ndk1::__variant_detail::__visitation::__base::__dispatcher<(unsigned long)0>::__dispatch[abi:ne180000]<std::__ndk1::__variant_detail::__dtor<std::__ndk1::__variant_detail::__traits<std::__ndk1::basic_string<char, std::__ndk1::char_traits<char>, std::__ndk1::allocator<char> >, std::__ndk1::allocator<char> >, (std::__ndk1::__variant_detail::_Trait)1>::__destroy[abi:ne180000]()::{lambda(auto:1&)#1}, std::__ndk1::__variant_detail::__base<(std::__ndk1::__variant_detail::__traits<std::__ndk1::basic_string<char, std::__ndk1::char_traits<char>, std::__ndk1::allocator<char> >, std::__ndk1::allocator<char> >)1, std::__ndk1::allocator<char>, std::__ndk1::allocator<char> >&>(std::__ndk1::__variant_detail::__dtor<std::__ndk1::__variant_detail::__traits<std::__ndk1::basic_string<char, std::__ndk1::char_traits<char>, std::__ndk1::allocator<char> >, std::__ndk1::allocator<char> >, (std::__ndk1::__variant_detail::_Trait)1>, std::__ndk1::__variant_detail::__base<(std::__ndk1::__variant_detail::__traits<std::__ndk1::basic_string<char, std::__ndk1::char_traits<char>, std::__ndk1::allocator<char> >, std::__ndk1::allocator<char> >)1, std::__ndk1::allocator<char>, std::__ndk1::allocator<char> >&)
PUBLIC 32314 0 std::__ndk1::__variant_detail::__visitation::__base::__dispatcher<(unsigned long)1>::__dispatch[abi:ne180000]<std::__ndk1::__variant_detail::__dtor<std::__ndk1::__variant_detail::__traits<std::__ndk1::basic_string<char, std::__ndk1::char_traits<char>, std::__ndk1::allocator<char> >, std::__ndk1::allocator<char> >, (std::__ndk1::__variant_detail::_Trait)1>::__destroy[abi:ne180000]()::{lambda(auto:1&)#1}, std::__ndk1::__variant_detail::__base<(std::__ndk1::__variant_detail::__traits<std::__ndk1::basic_string<char, std::__ndk1::char_traits<char>, std::__ndk1::allocator<char> >, std::__ndk1::allocator<char> >)1, std::__ndk1::allocator<char>, std::__ndk1::allocator<char> >&>(std::__ndk1::__variant_detail::__dtor<std::__ndk1::__variant_detail::__traits<std::__ndk1::basic_string<char, std::__ndk1::char_traits<char>, std::__ndk1::allocator<char> >, std::__ndk1::allocator<char> >, (std::__ndk1::__variant_detail::_Trait)1>, std::__ndk1::__variant_detail::__base<(std::__ndk1::__variant_detail::__traits<std::__ndk1::basic_string<char, std::__ndk1::char_traits<char>, std::__ndk1::allocator<char> >, std::__ndk1::allocator<char> >)1, std::__ndk1::allocator<char>, std::__ndk1::allocator<char> >&)
PUBLIC 32328 0 std::__ndk1::__variant_detail::__visitation::__base::__dispatcher<(unsigned long)0>::__dispatch[abi:ne180000]<std::__ndk1::__variant_detail::__dtor<std::__ndk1::__variant_detail::__traits<cocos2d::_ccColor4B, std::__ndk1::basic_string<char, std::__ndk1::char_traits<char>, std::__ndk1::allocator<char> > >, (std::__ndk1::__variant_detail::_Trait)1>::__destroy[abi:ne180000]()::{lambda(auto:1&)#1}, std::__ndk1::__variant_detail::__base<(std::__ndk1::__variant_detail::__traits<cocos2d::_ccColor4B, std::__ndk1::basic_string<char, std::__ndk1::char_traits<char>, std::__ndk1::allocator<char> > >)1, cocos2d, std::__ndk1::allocator<char> >&>(std::__ndk1::__variant_detail::__dtor<std::__ndk1::__variant_detail::__traits<cocos2d::_ccColor4B, std::__ndk1::basic_string<char, std::__ndk1::char_traits<char>, std::__ndk1::allocator<char> > >, (std::__ndk1::__variant_detail::_Trait)1>, std::__ndk1::__variant_detail::__base<(std::__ndk1::__variant_detail::__traits<cocos2d::_ccColor4B, std::__ndk1::basic_string<char, std::__ndk1::char_traits<char>, std::__ndk1::allocator<char> > >)1, cocos2d, std::__ndk1::allocator<char> >&)
PUBLIC 3232c 0 std::__ndk1::__variant_detail::__visitation::__base::__dispatcher<(unsigned long)1>::__dispatch[abi:ne180000]<std::__ndk1::__variant_detail::__dtor<std::__ndk1::__variant_detail::__traits<cocos2d::_ccColor4B, std::__ndk1::basic_string<char, std::__ndk1::char_traits<char>, std::__ndk1::allocator<char> > >, (std::__ndk1::__variant_detail::_Trait)1>::__destroy[abi:ne180000]()::{lambda(auto:1&)#1}, std::__ndk1::__variant_detail::__base<(std::__ndk1::__variant_detail::__traits<cocos2d::_ccColor4B, std::__ndk1::basic_string<char, std::__ndk1::char_traits<char>, std::__ndk1::allocator<char> > >)1, cocos2d, std::__ndk1::allocator<char> >&>(std::__ndk1::__variant_detail::__dtor<std::__ndk1::__variant_detail::__traits<cocos2d::_ccColor4B, std::__ndk1::basic_string<char, std::__ndk1::char_traits<char>, std::__ndk1::allocator<char> > >, (std::__ndk1::__variant_detail::_Trait)1>, std::__ndk1::__variant_detail::__base<(std::__ndk1::__variant_detail::__traits<cocos2d::_ccColor4B, std::__ndk1::basic_string<char, std::__ndk1::char_traits<char>, std::__ndk1::allocator<char> > >)1, cocos2d, std::__ndk1::allocator<char> >&)
PUBLIC 32340 0 std::__ndk1::vector<IndicatorData, std::__ndk1::allocator<IndicatorData> >::__emplace_back_slow_path<IndicatorData>(IndicatorData&&)
PUBLIC 324e4 0 std::__ndk1::__variant_detail::__visitation::__base::__dispatcher<(unsigned long)0>::__dispatch[abi:ne180000]<std::__ndk1::__variant_detail::__dtor<std::__ndk1::__variant_detail::__traits<IndicatorData, std::__ndk1::basic_string<char, std::__ndk1::char_traits<char>, std::__ndk1::allocator<char> > >, (std::__ndk1::__variant_detail::_Trait)1>::__destroy[abi:ne180000]()::{lambda(auto:1&)#1}, std::__ndk1::__variant_detail::__base<(std::__ndk1::__variant_detail::__traits<IndicatorData, std::__ndk1::basic_string<char, std::__ndk1::char_traits<char>, std::__ndk1::allocator<char> > >)1, std::__ndk1::__variant_detail::__traits, std::__ndk1::allocator<char> >&>(std::__ndk1::__variant_detail::__dtor<std::__ndk1::__variant_detail::__traits<IndicatorData, std::__ndk1::basic_string<char, std::__ndk1::char_traits<char>, std::__ndk1::allocator<char> > >, (std::__ndk1::__variant_detail::_Trait)1>, std::__ndk1::__variant_detail::__base<(std::__ndk1::__variant_detail::__traits<IndicatorData, std::__ndk1::basic_string<char, std::__ndk1::char_traits<char>, std::__ndk1::allocator<char> > >)1, std::__ndk1::__variant_detail::__traits, std::__ndk1::allocator<char> >&)
PUBLIC 32528 0 std::__ndk1::__variant_detail::__visitation::__base::__dispatcher<(unsigned long)1>::__dispatch[abi:ne180000]<std::__ndk1::__variant_detail::__dtor<std::__ndk1::__variant_detail::__traits<IndicatorData, std::__ndk1::basic_string<char, std::__ndk1::char_traits<char>, std::__ndk1::allocator<char> > >, (std::__ndk1::__variant_detail::_Trait)1>::__destroy[abi:ne180000]()::{lambda(auto:1&)#1}, std::__ndk1::__variant_detail::__base<(std::__ndk1::__variant_detail::__traits<IndicatorData, std::__ndk1::basic_string<char, std::__ndk1::char_traits<char>, std::__ndk1::allocator<char> > >)1, std::__ndk1::__variant_detail::__traits, std::__ndk1::allocator<char> >&>(std::__ndk1::__variant_detail::__dtor<std::__ndk1::__variant_detail::__traits<IndicatorData, std::__ndk1::basic_string<char, std::__ndk1::char_traits<char>, std::__ndk1::allocator<char> > >, (std::__ndk1::__variant_detail::_Trait)1>, std::__ndk1::__variant_detail::__base<(std::__ndk1::__variant_detail::__traits<IndicatorData, std::__ndk1::basic_string<char, std::__ndk1::char_traits<char>, std::__ndk1::allocator<char> > >)1, std::__ndk1::__variant_detail::__traits, std::__ndk1::allocator<char> >&)
PUBLIC 3253c 0 std::__ndk1::__exception_guard_exceptions<std::__ndk1::vector<IndicatorData, std::__ndk1::allocator<IndicatorData> >::__destroy_vector>::~__exception_guard_exceptions[abi:ne180000]()
PUBLIC 325f0 0 std::__ndk1::__uninitialized_allocator_copy_impl[abi:ne180000]<std::__ndk1::allocator<IndicatorData>, std::__ndk1::allocator*, std::__ndk1::allocator<IndicatorData>, std::__ndk1::allocator<IndicatorData> >(std::__ndk1::allocator<IndicatorData>&, std::__ndk1::allocator*, std::__ndk1::allocator<IndicatorData>, std::__ndk1::allocator*)
PUBLIC 3273c 0 std::__ndk1::__exception_guard_exceptions<std::__ndk1::_AllocatorDestroyRangeReverse<std::__ndk1::allocator<IndicatorData>, IndicatorData*> >::~__exception_guard_exceptions[abi:ne180000]()
PUBLIC 327a0 0 std::__ndk1::__variant_detail::__visitation::__base::__dispatcher<(unsigned long)0>::__dispatch[abi:ne180000]<std::__ndk1::__variant_detail::__dtor<std::__ndk1::__variant_detail::__traits<std::__ndk1::vector<IndicatorData, std::__ndk1::allocator<std::__ndk1::vector> >, std::__ndk1::basic_string<char, std::__ndk1::char_traits<char>, IndicatorData<char> > >, (std::__ndk1::__variant_detail::_Trait)1>::__destroy[abi:ne180000]()::{lambda(auto:1&)#1}, std::__ndk1::__variant_detail::__base<(std::__ndk1::__variant_detail::__traits<std::__ndk1::vector<IndicatorData, std::__ndk1::allocator<std::__ndk1::vector> >, std::__ndk1::basic_string<char, std::__ndk1::char_traits<char>, IndicatorData<char> > >)1, std::__ndk1::allocator<std::__ndk1::vector>, IndicatorData<char> >&>(std::__ndk1::__variant_detail::__dtor<std::__ndk1::__variant_detail::__traits<std::__ndk1::vector<IndicatorData, std::__ndk1::allocator<std::__ndk1::vector> >, std::__ndk1::basic_string<char, std::__ndk1::char_traits<char>, IndicatorData<char> > >, (std::__ndk1::__variant_detail::_Trait)1>, std::__ndk1::__variant_detail::__base<(std::__ndk1::__variant_detail::__traits<std::__ndk1::vector<IndicatorData, std::__ndk1::allocator<std::__ndk1::vector> >, std::__ndk1::basic_string<char, std::__ndk1::char_traits<char>, IndicatorData<char> > >)1, std::__ndk1::allocator<std::__ndk1::vector>, IndicatorData<char> >&)
PUBLIC 32844 0 std::__ndk1::__variant_detail::__visitation::__base::__dispatcher<(unsigned long)1>::__dispatch[abi:ne180000]<std::__ndk1::__variant_detail::__dtor<std::__ndk1::__variant_detail::__traits<std::__ndk1::vector<IndicatorData, std::__ndk1::allocator<std::__ndk1::vector> >, std::__ndk1::basic_string<char, std::__ndk1::char_traits<char>, IndicatorData<char> > >, (std::__ndk1::__variant_detail::_Trait)1>::__destroy[abi:ne180000]()::{lambda(auto:1&)#1}, std::__ndk1::__variant_detail::__base<(std::__ndk1::__variant_detail::__traits<std::__ndk1::vector<IndicatorData, std::__ndk1::allocator<std::__ndk1::vector> >, std::__ndk1::basic_string<char, std::__ndk1::char_traits<char>, IndicatorData<char> > >)1, std::__ndk1::allocator<std::__ndk1::vector>, IndicatorData<char> >&>(std::__ndk1::__variant_detail::__dtor<std::__ndk1::__variant_detail::__traits<std::__ndk1::vector<IndicatorData, std::__ndk1::allocator<std::__ndk1::vector> >, std::__ndk1::basic_string<char, std::__ndk1::char_traits<char>, IndicatorData<char> > >, (std::__ndk1::__variant_detail::_Trait)1>, std::__ndk1::__variant_detail::__base<(std::__ndk1::__variant_detail::__traits<std::__ndk1::vector<IndicatorData, std::__ndk1::allocator<std::__ndk1::vector> >, std::__ndk1::basic_string<char, std::__ndk1::char_traits<char>, IndicatorData<char> > >)1, std::__ndk1::allocator<std::__ndk1::vector>, IndicatorData<char> >&)
PUBLIC 32858 0 _ZN7matjson9SerializeINSt6__ndk16vectorI13IndicatorDataNS1_9allocatorIS3_EEEEE6toJsonERKS6_QrQRKT__XcvNS_5ValueEfp_E
PUBLIC 32998 0 std::__ndk1::vector<matjson::Value, std::__ndk1::allocator<matjson::Value> >::reserve(unsigned long)
PUBLIC 32af8 0 _ZNSt6__ndk19transformB8ne180000INS_11__wrap_iterIPK13IndicatorDataEENS_20back_insert_iteratorINS_6vectorIN7matjson5ValueENS_9allocatorIS9_EEEEEEZNS8_9SerializeINS7_IS2_NSA_IS2_EEEEE6toJsonERKSG_QrQRKT__XcvS9_fL0p_EEUlRS3_E_EET0_SK_SK_SP_T1_
PUBLIC 32c20 0 std::__ndk1::vector<matjson::Value, std::__ndk1::allocator<matjson::Value> >::~vector[abi:ne180000]()
PUBLIC 32c88 0 std::__ndk1::vector<matjson::Value, std::__ndk1::allocator<matjson::Value> >::__throw_length_error[abi:ne180000]() const
PUBLIC 32c9c 0 std::__ndk1::__split_buffer<matjson::Value, std::__ndk1::allocator<matjson::Value>&>::~__split_buffer()
PUBLIC 32cf0 0 matjson::Serialize<IndicatorData>::toJson(IndicatorData const&)
PUBLIC 32f74 0 std::__ndk1::vector<matjson::Value, std::__ndk1::allocator<matjson::Value> >::__push_back_slow_path<matjson::Value>(matjson::Value&&)
PUBLIC 33138 0 std::__ndk1::vector<IndicatorNode*, std::__ndk1::allocator<IndicatorNode*> >::__throw_length_error[abi:ne180000]() const
PUBLIC 3314c 0 geode::modifier::ModifyBase<geode::modifier::ModifyDerive<GoIndicatorPlayLayer, PlayLayer> >::ModifyBase()
PUBLIC 33548 0 geode::modifier::ModifyDerive<GoIndicatorPlayLayer, PlayLayer>::apply()
PUBLIC 337e8 0 std::__ndk1::shared_ptr<geode::Hook>::~shared_ptr[abi:ne180000]()
PUBLIC 33838 0 geode::impl::ResultData<geode::Hook*, std::__ndk1::basic_string<char, std::__ndk1::char_traits<char>, std::__ndk1::allocator<char> > >::~ResultData()
PUBLIC 338ac 0 std::__ndk1::vector<std::__ndk1::basic_string<char, std::__ndk1::char_traits<char>, std::__ndk1::allocator<char> >, std::__ndk1::allocator<std::__ndk1::basic_string<char, std::__ndk1::char_traits<char>, std::__ndk1::allocator<char> > > >::~vector[abi:ne180000]()
PUBLIC 33928 0 geode::modifier::ModifyBase<geode::modifier::ModifyDerive<GoIndicatorPlayLayer, PlayLayer> >::apply()
PUBLIC 3392c 0 _ZN5geode15UnwrapExceptionC2IRPNS_4HookEQsr4implE18IsStringStreamableIT_EEENS_4impl5OkTagEOS5_
PUBLIC 33a80 0 std::__ndk1::vector<std::__ndk1::basic_string<char, std::__ndk1::char_traits<char>, std::__ndk1::allocator<char> >, std::__ndk1::allocator<std::__ndk1::basic_string<char, std::__ndk1::char_traits<char>, std::__ndk1::allocator<char> > > >::__push_back_slow_path<std::__ndk1::basic_string<char, std::__ndk1::char_traits<char>, std::__ndk1::allocator<char> > const&>(std::__ndk1::basic_string<char, std::__ndk1::char_traits<char>, std::__ndk1::allocator<char> > const&)
PUBLIC 33ca8 0 std::__ndk1::__split_buffer<std::__ndk1::basic_string<char, std::__ndk1::char_traits<char>, std::__ndk1::allocator<char> >, std::__ndk1::allocator<std::__ndk1::basic_string<char, std::__ndk1::char_traits<char>, std::__ndk1::allocator<char> > >&>::~__split_buffer()
PUBLIC 33d10 0 std::__ndk1::vector<std::__ndk1::basic_string<char, std::__ndk1::char_traits<char>, std::__ndk1::allocator<char> >, std::__ndk1::allocator<std::__ndk1::basic_string<char, std::__ndk1::char_traits<char>, std::__ndk1::allocator<char> > > >::__throw_length_error[abi:ne180000]() const
PUBLIC 33d24 0 std::__ndk1::__variant_detail::__visitation::__base::__dispatcher<(unsigned long)0>::__dispatch[abi:ne180000]<std::__ndk1::__variant_detail::__dtor<std::__ndk1::__variant_detail::__traits<geode::Hook*, std::__ndk1::basic_string<char, std::__ndk1::char_traits<char>, std::__ndk1::allocator<char> > >, (std::__ndk1::__variant_detail::_Trait)1>::__destroy[abi:ne180000]()::{lambda(auto:1&)#1}, std::__ndk1::__variant_detail::__base<(std::__ndk1::__variant_detail::__traits<geode::Hook*, std::__ndk1::basic_string<char, std::__ndk1::char_traits<char>, std::__ndk1::allocator<char> > >)1, geode::Hook, std::__ndk1::allocator<char> >&>(std::__ndk1::__variant_detail::__dtor<std::__ndk1::__variant_detail::__traits<geode::Hook*, std::__ndk1::basic_string<char, std::__ndk1::char_traits<char>, std::__ndk1::allocator<char> > >, (std::__ndk1::__variant_detail::_Trait)1>, std::__ndk1::__variant_detail::__base<(std::__ndk1::__variant_detail::__traits<geode::Hook*, std::__ndk1::basic_string<char, std::__ndk1::char_traits<char>, std::__ndk1::allocator<char> > >)1, geode::Hook, std::__ndk1::allocator<char> >&)
PUBLIC 33d28 0 std::__ndk1::__variant_detail::__visitation::__base::__dispatcher<(unsigned long)1>::__dispatch[abi:ne180000]<std::__ndk1::__variant_detail::__dtor<std::__ndk1::__variant_detail::__traits<geode::Hook*, std::__ndk1::basic_string<char, std::__ndk1::char_traits<char>, std::__ndk1::allocator<char> > >, (std::__ndk1::__variant_detail::_Trait)1>::__destroy[abi:ne180000]()::{lambda(auto:1&)#1}, std::__ndk1::__variant_detail::__base<(std::__ndk1::__variant_detail::__traits<geode::Hook*, std::__ndk1::basic_string<char, std::__ndk1::char_traits<char>, std::__ndk1::allocator<char> > >)1, geode::Hook, std::__ndk1::allocator<char> >&>(std::__ndk1::__variant_detail::__dtor<std::__ndk1::__variant_detail::__traits<geode::Hook*, std::__ndk1::basic_string<char, std::__ndk1::char_traits<char>, std::__ndk1::allocator<char> > >, (std::__ndk1::__variant_detail::_Trait)1>, std::__ndk1::__variant_detail::__base<(std::__ndk1::__variant_detail::__traits<geode::Hook*, std::__ndk1::basic_string<char, std::__ndk1::char_traits<char>, std::__ndk1::allocator<char> > >)1, geode::Hook, std::__ndk1::allocator<char> >&)
PUBLIC 33d3c 0 std::__ndk1::__tree<std::__ndk1::__value_type<std::__ndk1::basic_string<char, std::__ndk1::char_traits<char>, std::__ndk1::allocator<char> >, std::__ndk1::shared_ptr<geode::Hook> >, std::__ndk1::__map_value_compare<std::__ndk1::basic_string<char, std::__ndk1::char_traits<char>, std::__ndk1::allocator<char> >, std::__ndk1::__value_type<std::__ndk1::basic_string<char, std::__ndk1::char_traits<char>, std::__ndk1::allocator<char> >, std::__ndk1::shared_ptr<geode::Hook> >, std::__ndk1::less<std::__ndk1::basic_string<char, std::__ndk1::char_traits<char>, std::__ndk1::allocator<char> > >, true>, std::__ndk1::allocator<std::__ndk1::__value_type<std::__ndk1::basic_string<char, std::__ndk1::char_traits<char>, std::__ndk1::allocator<char> >, std::__ndk1::shared_ptr<geode::Hook> > > >::find<std::__ndk1::basic_string<char, std::__ndk1::char_traits<char>, std::__ndk1::allocator<char> > >(std::__ndk1::basic_string<char, std::__ndk1::char_traits<char>, std::__ndk1::allocator<char> > const&)
PUBLIC 33e5c 0 std::__ndk1::__tree<std::__ndk1::__value_type<std::__ndk1::basic_string<char, std::__ndk1::char_traits<char>, std::__ndk1::allocator<char> >, std::__ndk1::shared_ptr<geode::Hook> >, std::__ndk1::__map_value_compare<std::__ndk1::basic_string<char, std::__ndk1::char_traits<char>, std::__ndk1::allocator<char> >, std::__ndk1::__value_type<std::__ndk1::basic_string<char, std::__ndk1::char_traits<char>, std::__ndk1::allocator<char> >, std::__ndk1::shared_ptr<geode::Hook> >, std::__ndk1::less<std::__ndk1::basic_string<char, std::__ndk1::char_traits<char>, std::__ndk1::allocator<char> > >, true>, std::__ndk1::allocator<std::__ndk1::__value_type<std::__ndk1::basic_string<char, std::__ndk1::char_traits<char>, std::__ndk1::allocator<char> >, std::__ndk1::shared_ptr<geode::Hook> > > >::erase(std::__ndk1::__tree_const_iterator<std::__ndk1::__value_type<std::__ndk1::basic_string<char, std::__ndk1::char_traits<char>, std::__ndk1::allocator<char> >, std::__ndk1::shared_ptr<geode::Hook> >, std::__ndk1::__tree_node<std::__ndk1::__value_type<std::__ndk1::basic_string<char, std::__ndk1::char_traits<char>, std::__ndk1::allocator<char> >, std::__ndk1::shared_ptr<geode::Hook> >, void*>*, long>)
PUBLIC 33f30 0 std::__ndk1::__tree_remove[abi:ne180000]<std::__ndk1::__tree_node_base<void*>*>(std::__ndk1::__tree_node_base<void*>*, std::__ndk1::__tree_node_base<void*>*)
PUBLIC 342f8 0 std::__ndk1::__tree<std::__ndk1::__value_type<std::__ndk1::basic_string<char, std::__ndk1::char_traits<char>, std::__ndk1::allocator<char> >, std::__ndk1::shared_ptr<geode::Hook> >, std::__ndk1::__map_value_compare<std::__ndk1::basic_string<char, std::__ndk1::char_traits<char>, std::__ndk1::allocator<char> >, std::__ndk1::__value_type<std::__ndk1::basic_string<char, std::__ndk1::char_traits<char>, std::__ndk1::allocator<char> >, std::__ndk1::shared_ptr<geode::Hook> >, std::__ndk1::less<std::__ndk1::basic_string<char, std::__ndk1::char_traits<char>, std::__ndk1::allocator<char> > >, true>, std::__ndk1::allocator<std::__ndk1::__value_type<std::__ndk1::basic_string<char, std::__ndk1::char_traits<char>, std::__ndk1::allocator<char> >, std::__ndk1::shared_ptr<geode::Hook> > > >::destroy(std::__ndk1::__tree_node<std::__ndk1::__value_type<std::__ndk1::basic_string<char, std::__ndk1::char_traits<char>, std::__ndk1::allocator<char> >, std::__ndk1::shared_ptr<geode::Hook> >, void*>*)
PUBLIC 34384 0 geode::Hook::create<void (*)(GoIndicatorPlayLayer*)>(void*, void (*)(GoIndicatorPlayLayer*), std::__ndk1::basic_string<char, std::__ndk1::char_traits<char>, std::__ndk1::allocator<char> > const&, tulip::hook::TulipConvention, tulip::hook::HookMetadata const&)
PUBLIC 344b8 0 geode::modifier::AsStaticFunction_setupHasCompleted<GoIndicatorPlayLayer, void (GoIndicatorPlayLayer::*)()>::Impl<void (GoIndicatorPlayLayer::*)()>::function(GoIndicatorPlayLayer*)
PUBLIC 344f8 0 std::__ndk1::shared_ptr<tulip::hook::CallingConvention>::~shared_ptr[abi:ne180000]()
PUBLIC 34548 0 tulip::hook::HandlerMetadata::~HandlerMetadata()
PUBLIC 345ac 0 std::__ndk1::__tree<std::__ndk1::__value_type<std::__ndk1::basic_string<char, std::__ndk1::char_traits<char>, std::__ndk1::allocator<char> >, std::__ndk1::shared_ptr<geode::Hook> >, std::__ndk1::__map_value_compare<std::__ndk1::basic_string<char, std::__ndk1::char_traits<char>, std::__ndk1::allocator<char> >, std::__ndk1::__value_type<std::__ndk1::basic_string<char, std::__ndk1::char_traits<char>, std::__ndk1::allocator<char> >, std::__ndk1::shared_ptr<geode::Hook> >, std::__ndk1::less<std::__ndk1::basic_string<char, std::__ndk1::char_traits<char>, std::__ndk1::allocator<char> > >, true>, std::__ndk1::allocator<std::__ndk1::__value_type<std::__ndk1::basic_string<char, std::__ndk1::char_traits<char>, std::__ndk1::allocator<char> >, std::__ndk1::shared_ptr<geode::Hook> > > >::__emplace_unique_key_args<std::__ndk1::basic_string<char, std::__ndk1::char_traits<char>, std::__ndk1::allocator<char> >, std::__ndk1::piecewise_construct_t const&, std::__ndk1::tuple<std::__ndk1::basic_string<char, std::__ndk1::char_traits<char>, std::__ndk1::allocator<char> >&&>, std::__ndk1::tuple<> >(std::__ndk1::basic_string<char, std::__ndk1::char_traits<char>, std::__ndk1::allocator<char> > const&, std::__ndk1::piecewise_construct_t const&, std::__ndk1::tuple<std::__ndk1::basic_string<char, std::__ndk1::char_traits<char>, std::__ndk1::allocator<char> >&&>, std::__ndk1::tuple<>)
PUBLIC 34724 0 std::__ndk1::__tree_balance_after_insert[abi:ne180000]<std::__ndk1::__tree_node_base<void*>*>(std::__ndk1::__tree_node_base<void*>*, std::__ndk1::__tree_node_base<void*>*)
PUBLIC 348d4 0 geode::modifier::ModifyDerive<GoIndicatorPauseLayer, PauseLayer>::apply()
PUBLIC 34c04 0 geode::modifier::ModifyBase<geode::modifier::ModifyDerive<GoIndicatorPauseLayer, PauseLayer> >::apply()
PUBLIC 34c08 0 geode::modifier::AsStaticFunction_customSetup<GoIndicatorPauseLayer, void (GoIndicatorPauseLayer::*)()>::Impl<void (GoIndicatorPauseLayer::*)()>::function(GoIndicatorPauseLayer*)
PUBLIC 34d80 0 geode::addresser::Addresser::addressOfVirtual<void, PauseLayer, >(void (PauseLayer::*)())
PUBLIC 34e28 0 PauseLayer::PauseLayer(geode::ZeroConstructorType)
PUBLIC 34eb4 0 GoIndicatorPauseLayer::onAddIndicator(cocos2d::CCObject*)
PUBLIC 350d4 0 ColorPicker::init(cocos2d::_ccColor4B const&, std::__ndk1::function<void (cocos2d::_ccColor4B const&)> const&)
PUBLIC 35370 0 ColorPicker::onPickColor(cocos2d::CCObject*)
PUBLIC 353b8 0 ColorPicker::updateColor(cocos2d::_ccColor4B const&)
PUBLIC 353e4 0 {virtual override thunk({offset(-472)}, ColorPicker::updateColor(cocos2d::_ccColor4B const&))}
PUBLIC 35410 0 ColorPicker::create(cocos2d::_ccColor4B const&, std::__ndk1::function<void (cocos2d::_ccColor4B const&)> const&)
PUBLIC 35560 0 cocos2d::CCCopying::copyWithZone(cocos2d::CCZone*)
PUBLIC 35568 0 ColorPicker::~ColorPicker()
PUBLIC 355f8 0 ColorPicker::~ColorPicker()
PUBLIC 35690 0 cocos2d::CCNodeRGBA::setOpacityModifyRGB(bool)
PUBLIC 35694 0 cocos2d::CCNodeRGBA::isOpacityModifyRGB()
PUBLIC 3569c 0 {virtual override thunk({offset(-320)}, cocos2d::CCNodeRGBA::setOpacityModifyRGB(bool))}
PUBLIC 356a0 0 {virtual override thunk({offset(-320)}, cocos2d::CCNodeRGBA::isOpacityModifyRGB())}
PUBLIC 356a8 0 std::__ndk1::__throw_bad_function_call[abi:ne180000]()
PUBLIC 356dc 0 std::__ndk1::bad_function_call::~bad_function_call()
PUBLIC 35700 0 FloatSlider::init(double, double, double, std::__ndk1::function<void (double)> const&)
PUBLIC 35d34 0 FloatSlider::onSliderChanged(cocos2d::CCObject*)
PUBLIC 35f1c 0 FloatSlider::~FloatSlider()
PUBLIC 35fa0 0 FloatSlider::~FloatSlider()
PUBLIC 3602c 0 cocos2d::CCMenu::setOpacityModifyRGB(bool)
PUBLIC 36030 0 cocos2d::CCMenu::isOpacityModifyRGB()
PUBLIC 36038 0 cocos2d::CCMenu::isEnabled()
PUBLIC 36040 0 cocos2d::CCMenu::setEnabled(bool)
PUBLIC 36048 0 {virtual override thunk({offset(-320)}, FloatSlider::~FloatSlider())}
PUBLIC 360d0 0 {virtual override thunk({offset(-320)}, FloatSlider::~FloatSlider())}
PUBLIC 36160 0 cocos2d::CCKeyboardDelegate::keyUp(cocos2d::enumKeyCodes)
PUBLIC 36164 0 cocos2d::CCMouseDelegate::rightKeyDown()
PUBLIC 36168 0 cocos2d::CCMouseDelegate::rightKeyUp()
PUBLIC 3616c 0 cocos2d::CCMouseDelegate::scrollWheel(float, float)
PUBLIC 36170 0 {virtual override thunk({offset(-408)}, cocos2d::CCMenu::setOpacityModifyRGB(bool))}
PUBLIC 36174 0 {virtual override thunk({offset(-408)}, cocos2d::CCMenu::isOpacityModifyRGB())}
PUBLIC 3617c 0 std::__ndk1::__function::__base<void (std::__ndk1::basic_string<char, std::__ndk1::char_traits<char>, std::__ndk1::allocator<char> > const&)>::~__base()
PUBLIC 36180 0 std::__ndk1::__function::__func<FloatSlider::init(double, double, double, std::__ndk1::function<void (double)> const&)::$_0, std::__ndk1::allocator<FloatSlider::init(double, double, double, std::__ndk1::function<void (double)> const&)::$_0>, void (std::__ndk1::basic_string<char, std::__ndk1::char_traits<char>, std::__ndk1::allocator<char> > const&)>::~__func()
PUBLIC 36184 0 std::__ndk1::__function::__func<FloatSlider::init(double, double, double, std::__ndk1::function<void (double)> const&)::$_0, std::__ndk1::allocator<FloatSlider::init(double, double, double, std::__ndk1::function<void (double)> const&)::$_0>, void (std::__ndk1::basic_string<char, std::__ndk1::char_traits<char>, std::__ndk1::allocator<char> > const&)>::__clone() const
PUBLIC 361b8 0 std::__ndk1::__function::__func<FloatSlider::init(double, double, double, std::__ndk1::function<void (double)> const&)::$_0, std::__ndk1::allocator<FloatSlider::init(double, double, double, std::__ndk1::function<void (double)> const&)::$_0>, void (std::__ndk1::basic_string<char, std::__ndk1::char_traits<char>, std::__ndk1::allocator<char> > const&)>::__clone(std::__ndk1::__function::__base<void (std::__ndk1::basic_string<char, std::__ndk1::char_traits<char>, std::__ndk1::allocator<char> > const&)>*) const
PUBLIC 361cc 0 std::__ndk1::__function::__func<FloatSlider::init(double, double, double, std::__ndk1::function<void (double)> const&)::$_0, std::__ndk1::allocator<FloatSlider::init(double, double, double, std::__ndk1::function<void (double)> const&)::$_0>, void (std::__ndk1::basic_string<char, std::__ndk1::char_traits<char>, std::__ndk1::allocator<char> > const&)>::destroy()
PUBLIC 361d0 0 std::__ndk1::__function::__func<FloatSlider::init(double, double, double, std::__ndk1::function<void (double)> const&)::$_0, std::__ndk1::allocator<FloatSlider::init(double, double, double, std::__ndk1::function<void (double)> const&)::$_0>, void (std::__ndk1::basic_string<char, std::__ndk1::char_traits<char>, std::__ndk1::allocator<char> > const&)>::destroy_deallocate()
PUBLIC 361d4 0 std::__ndk1::__function::__func<FloatSlider::init(double, double, double, std::__ndk1::function<void (double)> const&)::$_0, std::__ndk1::allocator<FloatSlider::init(double, double, double, std::__ndk1::function<void (double)> const&)::$_0>, void (std::__ndk1::basic_string<char, std::__ndk1::char_traits<char>, std::__ndk1::allocator<char> > const&)>::operator()(std::__ndk1::basic_string<char, std::__ndk1::char_traits<char>, std::__ndk1::allocator<char> > const&)
PUBLIC 363e0 0 std::__ndk1::__function::__func<FloatSlider::init(double, double, double, std::__ndk1::function<void (double)> const&)::$_0, std::__ndk1::allocator<FloatSlider::init(double, double, double, std::__ndk1::function<void (double)> const&)::$_0>, void (std::__ndk1::basic_string<char, std::__ndk1::char_traits<char>, std::__ndk1::allocator<char> > const&)>::target(std::type_info const&) const
PUBLIC 363fc 0 std::__ndk1::__function::__func<FloatSlider::init(double, double, double, std::__ndk1::function<void (double)> const&)::$_0, std::__ndk1::allocator<FloatSlider::init(double, double, double, std::__ndk1::function<void (double)> const&)::$_0>, void (std::__ndk1::basic_string<char, std::__ndk1::char_traits<char>, std::__ndk1::allocator<char> > const&)>::target_type() const
PUBLIC 36408 0 geode::impl::ResultData<double, std::__ndk1::basic_string<char, std::__ndk1::char_traits<char>, std::__ndk1::allocator<char> > >::~ResultData()
PUBLIC 3647c 0 FontPickerPopup::updateFont() const
PUBLIC 36774 0 FontPickerPopup::setup(std::__ndk1::basic_string<char, std::__ndk1::char_traits<char>, std::__ndk1::allocator<char> > const&, std::__ndk1::function<void (std::__ndk1::basic_string<char, std::__ndk1::char_traits<char>, std::__ndk1::allocator<char> > const&)> const&)
PUBLIC 36ef8 0 geode::cocos::CCMenuItemExt::createSpriteExtra(cocos2d::CCNode*, std::__ndk1::function<void (CCMenuItemSpriteExtra*)>)
PUBLIC 37034 0 geode::cocos::CCMenuItemExt::createSpriteExtraWithFrameName(std::__ndk1::basic_string_view<char, std::__ndk1::char_traits<char> >, float, std::__ndk1::function<void (CCMenuItemSpriteExtra*)>)
PUBLIC 37180 0 FontPicker::init(std::__ndk1::basic_string<char, std::__ndk1::char_traits<char>, std::__ndk1::allocator<char> > const&, std::__ndk1::function<void (std::__ndk1::basic_string<char, std::__ndk1::char_traits<char>, std::__ndk1::allocator<char> > const&)> const&)
PUBLIC 37528 0 FontPicker::onPickFont(cocos2d::CCObject*)
PUBLIC 3790c 0 FontPicker::create(std::__ndk1::basic_string<char, std::__ndk1::char_traits<char>, std::__ndk1::allocator<char> > const&, std::__ndk1::function<void (std::__ndk1::basic_string<char, std::__ndk1::char_traits<char>, std::__ndk1::allocator<char> > const&)> const&)
PUBLIC 37a58 0 geode::Popup<std::__ndk1::basic_string<char, std::__ndk1::char_traits<char>, std::__ndk1::allocator<char> > const&, std::__ndk1::function<void (std::__ndk1::basic_string<char, std::__ndk1::char_traits<char>, std::__ndk1::allocator<char> > const&)> const&>::~Popup()
PUBLIC 37ac4 0 FontPickerPopup::~FontPickerPopup()
PUBLIC 37b38 0 geode::Popup<std::__ndk1::basic_string<char, std::__ndk1::char_traits<char>, std::__ndk1::allocator<char> > const&, std::__ndk1::function<void (std::__ndk1::basic_string<char, std::__ndk1::char_traits<char>, std::__ndk1::allocator<char> > const&)> const&>::registerWithTouchDispatcher()
PUBLIC 37b64 0 geode::Popup<std::__ndk1::basic_string<char, std::__ndk1::char_traits<char>, std::__ndk1::allocator<char> > const&, std::__ndk1::function<void (std::__ndk1::basic_string<char, std::__ndk1::char_traits<char>, std::__ndk1::allocator<char> > const&)> const&>::keyDown(cocos2d::enumKeyCodes)
PUBLIC 37b8c 0 cocos2d::CCLayerRGBA::setOpacityModifyRGB(bool)
PUBLIC 37b90 0 cocos2d::CCLayerRGBA::isOpacityModifyRGB()
PUBLIC 37b98 0 geode::Popup<std::__ndk1::basic_string<char, std::__ndk1::char_traits<char>, std::__ndk1::allocator<char> > const&, std::__ndk1::function<void (std::__ndk1::basic_string<char, std::__ndk1::char_traits<char>, std::__ndk1::allocator<char> > const&)> const&>::onClose(cocos2d::CCObject*)
PUBLIC 37ce0 0 {virtual override thunk({offset(-320)}, FontPickerPopup::~FontPickerPopup())}
PUBLIC 37d4c 0 {virtual override thunk({offset(-320)}, FontPickerPopup::~FontPickerPopup())}
PUBLIC 37dc0 0 {virtual override thunk({offset(-344)}, geode::Popup<std::__ndk1::basic_string<char, std::__ndk1::char_traits<char>, std::__ndk1::allocator<char> > const&, std::__ndk1::function<void (std::__ndk1::basic_string<char, std::__ndk1::char_traits<char>, std::__ndk1::allocator<char> > const&)> const&>::keyDown(cocos2d::enumKeyCodes))}
PUBLIC 37dec 0 {virtual override thunk({offset(-408)}, cocos2d::CCLayerRGBA::setOpacityModifyRGB(bool))}
PUBLIC 37df0 0 {virtual override thunk({offset(-408)}, cocos2d::CCLayerRGBA::isOpacityModifyRGB())}
PUBLIC 37df8 0 geode::Popup<std::__ndk1::basic_string<char, std::__ndk1::char_traits<char>, std::__ndk1::allocator<char> > const&, std::__ndk1::function<void (std::__ndk1::basic_string<char, std::__ndk1::char_traits<char>, std::__ndk1::allocator<char> > const&)> const&>::~Popup()
PUBLIC 37dfc 0 {virtual override thunk({offset(-320)}, geode::Popup<std::__ndk1::basic_string<char, std::__ndk1::char_traits<char>, std::__ndk1::allocator<char> > const&, std::__ndk1::function<void (std::__ndk1::basic_string<char, std::__ndk1::char_traits<char>, std::__ndk1::allocator<char> > const&)> const&>::~Popup())}
PUBLIC 37e68 0 {virtual override thunk({offset(-320)}, geode::Popup<std::__ndk1::basic_string<char, std::__ndk1::char_traits<char>, std::__ndk1::allocator<char> > const&, std::__ndk1::function<void (std::__ndk1::basic_string<char, std::__ndk1::char_traits<char>, std::__ndk1::allocator<char> > const&)> const&>::~Popup())}
PUBLIC 37e6c 0 geode::cocos::CCMenuItemExt::assignCallback<CCMenuItemSpriteExtra>(cocos2d::CCMenuItem*, std::__ndk1::function<void (CCMenuItemSpriteExtra*)>)
PUBLIC 38000 0 geode::cocos::CCMenuItemExt::LambdaCallback<CCMenuItemSpriteExtra>::create(std::__ndk1::function<void (CCMenuItemSpriteExtra*)>)
PUBLIC 381c8 0 geode::cocos::CCMenuItemExt::LambdaCallback<CCMenuItemSpriteExtra>::execute(cocos2d::CCNode*)
PUBLIC 38238 0 geode::cocos::CCMenuItemExt::LambdaCallback<CCMenuItemSpriteExtra>::~LambdaCallback()
PUBLIC 38294 0 geode::cocos::CCMenuItemExt::LambdaCallback<CCMenuItemSpriteExtra>::~LambdaCallback()
PUBLIC 382f8 0 cocos2d::CCObject::update(float)
PUBLIC 382fc 0 std::__ndk1::basic_string<char, std::__ndk1::char_traits<char>, std::__ndk1::allocator<char> >::__assign_no_alias<true>(char const*, unsigned long)
PUBLIC 383a8 0 std::__ndk1::basic_string<char, std::__ndk1::char_traits<char>, std::__ndk1::allocator<char> >::__assign_no_alias<false>(char const*, unsigned long)
PUBLIC 384b8 0 FontPicker::~FontPicker()
PUBLIC 38550 0 FontPicker::~FontPicker()
PUBLIC 385f0 0 std::__ndk1::__function::__func<FontPickerPopup::setup(std::__ndk1::basic_string<char, std::__ndk1::char_traits<char>, std::__ndk1::allocator<char> > const&, std::__ndk1::function<void (std::__ndk1::basic_string<char, std::__ndk1::char_traits<char>, std::__ndk1::allocator<char> > const&)> const&)::$_0, std::__ndk1::allocator<FontPickerPopup::setup(std::__ndk1::basic_string<char, std::__ndk1::char_traits<char>, std::__ndk1::allocator<char> > const&, std::__ndk1::function<void (std::__ndk1::basic_string<char, std::__ndk1::char_traits<char>, std::__ndk1::allocator<char> > const&)> const&)::$_0>, void (CCMenuItemSpriteExtra*)>::~__func()
PUBLIC 385f4 0 std::__ndk1::__function::__func<FontPickerPopup::setup(std::__ndk1::basic_string<char, std::__ndk1::char_traits<char>, std::__ndk1::allocator<char> > const&, std::__ndk1::function<void (std::__ndk1::basic_string<char, std::__ndk1::char_traits<char>, std::__ndk1::allocator<char> > const&)> const&)::$_0, std::__ndk1::allocator<FontPickerPopup::setup(std::__ndk1::basic_string<char, std::__ndk1::char_traits<char>, std::__ndk1::allocator<char> > const&, std::__ndk1::function<void (std::__ndk1::basic_string<char, std::__ndk1::char_traits<char>, std::__ndk1::allocator<char> > const&)> const&)::$_0>, void (CCMenuItemSpriteExtra*)>::__clone() const
PUBLIC 38628 0 std::__ndk1::__function::__func<FontPickerPopup::setup(std::__ndk1::basic_string<char, std::__ndk1::char_traits<char>, std::__ndk1::allocator<char> > const&, std::__ndk1::function<void (std::__ndk1::basic_string<char, std::__ndk1::char_traits<char>, std::__ndk1::allocator<char> > const&)> const&)::$_0, std::__ndk1::allocator<FontPickerPopup::setup(std::__ndk1::basic_string<char, std::__ndk1::char_traits<char>, std::__ndk1::allocator<char> > const&, std::__ndk1::function<void (std::__ndk1::basic_string<char, std::__ndk1::char_traits<char>, std::__ndk1::allocator<char> > const&)> const&)::$_0>, void (CCMenuItemSpriteExtra*)>::__clone(std::__ndk1::__function::__base<void (CCMenuItemSpriteExtra*)>*) const
PUBLIC 3863c 0 std::__ndk1::__function::__func<FontPickerPopup::setup(std::__ndk1::basic_string<char, std::__ndk1::char_traits<char>, std::__ndk1::allocator<char> > const&, std::__ndk1::function<void (std::__ndk1::basic_string<char, std::__ndk1::char_traits<char>, std::__ndk1::allocator<char> > const&)> const&)::$_0, std::__ndk1::allocator<FontPickerPopup::setup(std::__ndk1::basic_string<char, std::__ndk1::char_traits<char>, std::__ndk1::allocator<char> > const&, std::__ndk1::function<void (std::__ndk1::basic_string<char, std::__ndk1::char_traits<char>, std::__ndk1::allocator<char> > const&)> const&)::$_0>, void (CCMenuItemSpriteExtra*)>::destroy()
PUBLIC 38640 0 std::__ndk1::__function::__func<FontPickerPopup::setup(std::__ndk1::basic_string<char, std::__ndk1::char_traits<char>, std::__ndk1::allocator<char> > const&, std::__ndk1::function<void (std::__ndk1::basic_string<char, std::__ndk1::char_traits<char>, std::__ndk1::allocator<char> > const&)> const&)::$_0, std::__ndk1::allocator<FontPickerPopup::setup(std::__ndk1::basic_string<char, std::__ndk1::char_traits<char>, std::__ndk1::allocator<char> > const&, std::__ndk1::function<void (std::__ndk1::basic_string<char, std::__ndk1::char_traits<char>, std::__ndk1::allocator<char> > const&)> const&)::$_0>, void (CCMenuItemSpriteExtra*)>::destroy_deallocate()
PUBLIC 38644 0 std::__ndk1::__function::__func<FontPickerPopup::setup(std::__ndk1::basic_string<char, std::__ndk1::char_traits<char>, std::__ndk1::allocator<char> > const&, std::__ndk1::function<void (std::__ndk1::basic_string<char, std::__ndk1::char_traits<char>, std::__ndk1::allocator<char> > const&)> const&)::$_0, std::__ndk1::allocator<FontPickerPopup::setup(std::__ndk1::basic_string<char, std::__ndk1::char_traits<char>, std::__ndk1::allocator<char> > const&, std::__ndk1::function<void (std::__ndk1::basic_string<char, std::__ndk1::char_traits<char>, std::__ndk1::allocator<char> > const&)> const&)::$_0>, void (CCMenuItemSpriteExtra*)>::operator()(CCMenuItemSpriteExtra*&&)
PUBLIC 3867c 0 std::__ndk1::__function::__func<FontPickerPopup::setup(std::__ndk1::basic_string<char, std::__ndk1::char_traits<char>, std::__ndk1::allocator<char> > const&, std::__ndk1::function<void (std::__ndk1::basic_string<char, std::__ndk1::char_traits<char>, std::__ndk1::allocator<char> > const&)> const&)::$_0, std::__ndk1::allocator<FontPickerPopup::setup(std::__ndk1::basic_string<char, std::__ndk1::char_traits<char>, std::__ndk1::allocator<char> > const&, std::__ndk1::function<void (std::__ndk1::basic_string<char, std::__ndk1::char_traits<char>, std::__ndk1::allocator<char> > const&)> const&)::$_0>, void (CCMenuItemSpriteExtra*)>::target(std::type_info const&) const
PUBLIC 38698 0 std::__ndk1::__function::__func<FontPickerPopup::setup(std::__ndk1::basic_string<char, std::__ndk1::char_traits<char>, std::__ndk1::allocator<char> > const&, std::__ndk1::function<void (std::__ndk1::basic_string<char, std::__ndk1::char_traits<char>, std::__ndk1::allocator<char> > const&)> const&)::$_0, std::__ndk1::allocator<FontPickerPopup::setup(std::__ndk1::basic_string<char, std::__ndk1::char_traits<char>, std::__ndk1::allocator<char> > const&, std::__ndk1::function<void (std::__ndk1::basic_string<char, std::__ndk1::char_traits<char>, std::__ndk1::allocator<char> > const&)> const&)::$_0>, void (CCMenuItemSpriteExtra*)>::target_type() const
PUBLIC 386a4 0 std::__ndk1::__function::__base<void (CCMenuItemSpriteExtra*)>::~__base()
PUBLIC 386a8 0 std::__ndk1::__function::__func<FontPickerPopup::setup(std::__ndk1::basic_string<char, std::__ndk1::char_traits<char>, std::__ndk1::allocator<char> > const&, std::__ndk1::function<void (std::__ndk1::basic_string<char, std::__ndk1::char_traits<char>, std::__ndk1::allocator<char> > const&)> const&)::$_1, std::__ndk1::allocator<FontPickerPopup::setup(std::__ndk1::basic_string<char, std::__ndk1::char_traits<char>, std::__ndk1::allocator<char> > const&, std::__ndk1::function<void (std::__ndk1::basic_string<char, std::__ndk1::char_traits<char>, std::__ndk1::allocator<char> > const&)> const&)::$_1>, void (CCMenuItemSpriteExtra*)>::~__func()
PUBLIC 386ac 0 std::__ndk1::__function::__func<FontPickerPopup::setup(std::__ndk1::basic_string<char, std::__ndk1::char_traits<char>, std::__ndk1::allocator<char> > const&, std::__ndk1::function<void (std::__ndk1::basic_string<char, std::__ndk1::char_traits<char>, std::__ndk1::allocator<char> > const&)> const&)::$_1, std::__ndk1::allocator<FontPickerPopup::setup(std::__ndk1::basic_string<char, std::__ndk1::char_traits<char>, std::__ndk1::allocator<char> > const&, std::__ndk1::function<void (std::__ndk1::basic_string<char, std::__ndk1::char_traits<char>, std::__ndk1::allocator<char> > const&)> const&)::$_1>, void (CCMenuItemSpriteExtra*)>::__clone() const
PUBLIC 386e0 0 std::__ndk1::__function::__func<FontPickerPopup::setup(std::__ndk1::basic_string<char, std::__ndk1::char_traits<char>, std::__ndk1::allocator<char> > const&, std::__ndk1::function<void (std::__ndk1::basic_string<char, std::__ndk1::char_traits<char>, std::__ndk1::allocator<char> > const&)> const&)::$_1, std::__ndk1::allocator<FontPickerPopup::setup(std::__ndk1::basic_string<char, std::__ndk1::char_traits<char>, std::__ndk1::allocator<char> > const&, std::__ndk1::function<void (std::__ndk1::basic_string<char, std::__ndk1::char_traits<char>, std::__ndk1::allocator<char> > const&)> const&)::$_1>, void (CCMenuItemSpriteExtra*)>::__clone(std::__ndk1::__function::__base<void (CCMenuItemSpriteExtra*)>*) const
PUBLIC 386f4 0 std::__ndk1::__function::__func<FontPickerPopup::setup(std::__ndk1::basic_string<char, std::__ndk1::char_traits<char>, std::__ndk1::allocator<char> > const&, std::__ndk1::function<void (std::__ndk1::basic_string<char, std::__ndk1::char_traits<char>, std::__ndk1::allocator<char> > const&)> const&)::$_1, std::__ndk1::allocator<FontPickerPopup::setup(std::__ndk1::basic_string<char, std::__ndk1::char_traits<char>, std::__ndk1::allocator<char> > const&, std::__ndk1::function<void (std::__ndk1::basic_string<char, std::__ndk1::char_traits<char>, std::__ndk1::allocator<char> > const&)> const&)::$_1>, void (CCMenuItemSpriteExtra*)>::destroy()
PUBLIC 386f8 0 std::__ndk1::__function::__func<FontPickerPopup::setup(std::__ndk1::basic_string<char, std::__ndk1::char_traits<char>, std::__ndk1::allocator<char> > const&, std::__ndk1::function<void (std::__ndk1::basic_string<char, std::__ndk1::char_traits<char>, std::__ndk1::allocator<char> > const&)> const&)::$_1, std::__ndk1::allocator<FontPickerPopup::setup(std::__ndk1::basic_string<char, std::__ndk1::char_traits<char>, std::__ndk1::allocator<char> > const&, std::__ndk1::function<void (std::__ndk1::basic_string<char, std::__ndk1::char_traits<char>, std::__ndk1::allocator<char> > const&)> const&)::$_1>, void (CCMenuItemSpriteExtra*)>::destroy_deallocate()
PUBLIC 386fc 0 std::__ndk1::__function::__func<FontPickerPopup::setup(std::__ndk1::basic_string<char, std::__ndk1::char_traits<char>, std::__ndk1::allocator<char> > const&, std::__ndk1::function<void (std::__ndk1::basic_string<char, std::__ndk1::char_traits<char>, std::__ndk1::allocator<char> > const&)> const&)::$_1, std::__ndk1::allocator<FontPickerPopup::setup(std::__ndk1::basic_string<char, std::__ndk1::char_traits<char>, std::__ndk1::allocator<char> > const&, std::__ndk1::function<void (std::__ndk1::basic_string<char, std::__ndk1::char_traits<char>, std::__ndk1::allocator<char> > const&)> const&)::$_1>, void (CCMenuItemSpriteExtra*)>::operator()(CCMenuItemSpriteExtra*&&)
PUBLIC 38734 0 std::__ndk1::__function::__func<FontPickerPopup::setup(std::__ndk1::basic_string<char, std::__ndk1::char_traits<char>, std::__ndk1::allocator<char> > const&, std::__ndk1::function<void (std::__ndk1::basic_string<char, std::__ndk1::char_traits<char>, std::__ndk1::allocator<char> > const&)> const&)::$_1, std::__ndk1::allocator<FontPickerPopup::setup(std::__ndk1::basic_string<char, std::__ndk1::char_traits<char>, std::__ndk1::allocator<char> > const&, std::__ndk1::function<void (std::__ndk1::basic_string<char, std::__ndk1::char_traits<char>, std::__ndk1::allocator<char> > const&)> const&)::$_1>, void (CCMenuItemSpriteExtra*)>::target(std::type_info const&) const
PUBLIC 38750 0 std::__ndk1::__function::__func<FontPickerPopup::setup(std::__ndk1::basic_string<char, std::__ndk1::char_traits<char>, std::__ndk1::allocator<char> > const&, std::__ndk1::function<void (std::__ndk1::basic_string<char, std::__ndk1::char_traits<char>, std::__ndk1::allocator<char> > const&)> const&)::$_1, std::__ndk1::allocator<FontPickerPopup::setup(std::__ndk1::basic_string<char, std::__ndk1::char_traits<char>, std::__ndk1::allocator<char> > const&, std::__ndk1::function<void (std::__ndk1::basic_string<char, std::__ndk1::char_traits<char>, std::__ndk1::allocator<char> > const&)> const&)::$_1>, void (CCMenuItemSpriteExtra*)>::target_type() const
PUBLIC 3875c 0 geode::Popup<std::__ndk1::basic_string<char, std::__ndk1::char_traits<char>, std::__ndk1::allocator<char> > const&, std::__ndk1::function<void (std::__ndk1::basic_string<char, std::__ndk1::char_traits<char>, std::__ndk1::allocator<char> > const&)> const&>::CloseEvent::~CloseEvent()
PUBLIC 387bc 0 geode::Popup<std::__ndk1::basic_string<char, std::__ndk1::char_traits<char>, std::__ndk1::allocator<char> > const&, std::__ndk1::function<void (std::__ndk1::basic_string<char, std::__ndk1::char_traits<char>, std::__ndk1::allocator<char> > const&)> const&>::CloseEvent::~CloseEvent()
PUBLIC 3882c 0 std::__ndk1::__shared_ptr_emplace<geode::Popup<std::__ndk1::basic_string<char, std::__ndk1::char_traits<char>, std::__ndk1::allocator<char> > const&, std::__ndk1::function<void (std::__ndk1::basic_string<char, std::__ndk1::char_traits<char>, std::__ndk1::allocator<char> > const&)> const&>::CloseEvent::Impl, std::__ndk1::allocator<geode::Popup<std::__ndk1::basic_string<char, std::__ndk1::char_traits<char>, std::__ndk1::allocator<char> > const&, std::__ndk1::function<void (std::__ndk1::basic_string<char, std::__ndk1::char_traits<char>, std::__ndk1::allocator<char> > const&)> const&>::CloseEvent::Impl> >::~__shared_ptr_emplace()
PUBLIC 3883c 0 std::__ndk1::__shared_ptr_emplace<geode::Popup<std::__ndk1::basic_string<char, std::__ndk1::char_traits<char>, std::__ndk1::allocator<char> > const&, std::__ndk1::function<void (std::__ndk1::basic_string<char, std::__ndk1::char_traits<char>, std::__ndk1::allocator<char> > const&)> const&>::CloseEvent::Impl, std::__ndk1::allocator<geode::Popup<std::__ndk1::basic_string<char, std::__ndk1::char_traits<char>, std::__ndk1::allocator<char> > const&, std::__ndk1::function<void (std::__ndk1::basic_string<char, std::__ndk1::char_traits<char>, std::__ndk1::allocator<char> > const&)> const&>::CloseEvent::Impl> >::~__shared_ptr_emplace()
PUBLIC 3886c 0 std::__ndk1::__shared_ptr_emplace<geode::Popup<std::__ndk1::basic_string<char, std::__ndk1::char_traits<char>, std::__ndk1::allocator<char> > const&, std::__ndk1::function<void (std::__ndk1::basic_string<char, std::__ndk1::char_traits<char>, std::__ndk1::allocator<char> > const&)> const&>::CloseEvent::Impl, std::__ndk1::allocator<geode::Popup<std::__ndk1::basic_string<char, std::__ndk1::char_traits<char>, std::__ndk1::allocator<char> > const&, std::__ndk1::function<void (std::__ndk1::basic_string<char, std::__ndk1::char_traits<char>, std::__ndk1::allocator<char> > const&)> const&>::CloseEvent::Impl> >::__on_zero_shared()
PUBLIC 38870 0 std::__ndk1::__shared_ptr_emplace<geode::Popup<std::__ndk1::basic_string<char, std::__ndk1::char_traits<char>, std::__ndk1::allocator<char> > const&, std::__ndk1::function<void (std::__ndk1::basic_string<char, std::__ndk1::char_traits<char>, std::__ndk1::allocator<char> > const&)> const&>::CloseEvent::Impl, std::__ndk1::allocator<geode::Popup<std::__ndk1::basic_string<char, std::__ndk1::char_traits<char>, std::__ndk1::allocator<char> > const&, std::__ndk1::function<void (std::__ndk1::basic_string<char, std::__ndk1::char_traits<char>, std::__ndk1::allocator<char> > const&)> const&>::CloseEvent::Impl> >::__on_zero_shared_weak()
PUBLIC 38874 0 std::__ndk1::__function::__func<FontPickerPopup::setup(std::__ndk1::basic_string<char, std::__ndk1::char_traits<char>, std::__ndk1::allocator<char> > const&, std::__ndk1::function<void (std::__ndk1::basic_string<char, std::__ndk1::char_traits<char>, std::__ndk1::allocator<char> > const&)> const&)::$_2, std::__ndk1::allocator<FontPickerPopup::setup(std::__ndk1::basic_string<char, std::__ndk1::char_traits<char>, std::__ndk1::allocator<char> > const&, std::__ndk1::function<void (std::__ndk1::basic_string<char, std::__ndk1::char_traits<char>, std::__ndk1::allocator<char> > const&)> const&)::$_2>, void (CCMenuItemSpriteExtra*)>::~__func()
PUBLIC 388c0 0 std::__ndk1::__function::__func<FontPickerPopup::setup(std::__ndk1::basic_string<char, std::__ndk1::char_traits<char>, std::__ndk1::allocator<char> > const&, std::__ndk1::function<void (std::__ndk1::basic_string<char, std::__ndk1::char_traits<char>, std::__ndk1::allocator<char> > const&)> const&)::$_2, std::__ndk1::allocator<FontPickerPopup::setup(std::__ndk1::basic_string<char, std::__ndk1::char_traits<char>, std::__ndk1::allocator<char> > const&, std::__ndk1::function<void (std::__ndk1::basic_string<char, std::__ndk1::char_traits<char>, std::__ndk1::allocator<char> > const&)> const&)::$_2>, void (CCMenuItemSpriteExtra*)>::~__func()
PUBLIC 3891c 0 std::__ndk1::__function::__func<FontPickerPopup::setup(std::__ndk1::basic_string<char, std::__ndk1::char_traits<char>, std::__ndk1::allocator<char> > const&, std::__ndk1::function<void (std::__ndk1::basic_string<char, std::__ndk1::char_traits<char>, std::__ndk1::allocator<char> > const&)> const&)::$_2, std::__ndk1::allocator<FontPickerPopup::setup(std::__ndk1::basic_string<char, std::__ndk1::char_traits<char>, std::__ndk1::allocator<char> > const&, std::__ndk1::function<void (std::__ndk1::basic_string<char, std::__ndk1::char_traits<char>, std::__ndk1::allocator<char> > const&)> const&)::$_2>, void (CCMenuItemSpriteExtra*)>::__clone() const
PUBLIC 389b8 0 std::__ndk1::__function::__func<FontPickerPopup::setup(std::__ndk1::basic_string<char, std::__ndk1::char_traits<char>, std::__ndk1::allocator<char> > const&, std::__ndk1::function<void (std::__ndk1::basic_string<char, std::__ndk1::char_traits<char>, std::__ndk1::allocator<char> > const&)> const&)::$_2, std::__ndk1::allocator<FontPickerPopup::setup(std::__ndk1::basic_string<char, std::__ndk1::char_traits<char>, std::__ndk1::allocator<char> > const&, std::__ndk1::function<void (std::__ndk1::basic_string<char, std::__ndk1::char_traits<char>, std::__ndk1::allocator<char> > const&)> const&)::$_2>, void (CCMenuItemSpriteExtra*)>::__clone(std::__ndk1::__function::__base<void (CCMenuItemSpriteExtra*)>*) const
PUBLIC 38a40 0 std::__ndk1::__function::__func<FontPickerPopup::setup(std::__ndk1::basic_string<char, std::__ndk1::char_traits<char>, std::__ndk1::allocator<char> > const&, std::__ndk1::function<void (std::__ndk1::basic_string<char, std::__ndk1::char_traits<char>, std::__ndk1::allocator<char> > const&)> const&)::$_2, std::__ndk1::allocator<FontPickerPopup::setup(std::__ndk1::basic_string<char, std::__ndk1::char_traits<char>, std::__ndk1::allocator<char> > const&, std::__ndk1::function<void (std::__ndk1::basic_string<char, std::__ndk1::char_traits<char>, std::__ndk1::allocator<char> > const&)> const&)::$_2>, void (CCMenuItemSpriteExtra*)>::destroy()
PUBLIC 38a80 0 std::__ndk1::__function::__func<FontPickerPopup::setup(std::__ndk1::basic_string<char, std::__ndk1::char_traits<char>, std::__ndk1::allocator<char> > const&, std::__ndk1::function<void (std::__ndk1::basic_string<char, std::__ndk1::char_traits<char>, std::__ndk1::allocator<char> > const&)> const&)::$_2, std::__ndk1::allocator<FontPickerPopup::setup(std::__ndk1::basic_string<char, std::__ndk1::char_traits<char>, std::__ndk1::allocator<char> > const&, std::__ndk1::function<void (std::__ndk1::basic_string<char, std::__ndk1::char_traits<char>, std::__ndk1::allocator<char> > const&)> const&)::$_2>, void (CCMenuItemSpriteExtra*)>::destroy_deallocate()
PUBLIC 38ad0 0 std::__ndk1::__function::__func<FontPickerPopup::setup(std::__ndk1::basic_string<char, std::__ndk1::char_traits<char>, std::__ndk1::allocator<char> > const&, std::__ndk1::function<void (std::__ndk1::basic_string<char, std::__ndk1::char_traits<char>, std::__ndk1::allocator<char> > const&)> const&)::$_2, std::__ndk1::allocator<FontPickerPopup::setup(std::__ndk1::basic_string<char, std::__ndk1::char_traits<char>, std::__ndk1::allocator<char> > const&, std::__ndk1::function<void (std::__ndk1::basic_string<char, std::__ndk1::char_traits<char>, std::__ndk1::allocator<char> > const&)> const&)::$_2>, void (CCMenuItemSpriteExtra*)>::operator()(CCMenuItemSpriteExtra*&&)
PUBLIC 38c3c 0 std::__ndk1::__function::__func<FontPickerPopup::setup(std::__ndk1::basic_string<char, std::__ndk1::char_traits<char>, std::__ndk1::allocator<char> > const&, std::__ndk1::function<void (std::__ndk1::basic_string<char, std::__ndk1::char_traits<char>, std::__ndk1::allocator<char> > const&)> const&)::$_2, std::__ndk1::allocator<FontPickerPopup::setup(std::__ndk1::basic_string<char, std::__ndk1::char_traits<char>, std::__ndk1::allocator<char> > const&, std::__ndk1::function<void (std::__ndk1::basic_string<char, std::__ndk1::char_traits<char>, std::__ndk1::allocator<char> > const&)> const&)::$_2>, void (CCMenuItemSpriteExtra*)>::target(std::type_info const&) const
PUBLIC 38c58 0 std::__ndk1::__function::__func<FontPickerPopup::setup(std::__ndk1::basic_string<char, std::__ndk1::char_traits<char>, std::__ndk1::allocator<char> > const&, std::__ndk1::function<void (std::__ndk1::basic_string<char, std::__ndk1::char_traits<char>, std::__ndk1::allocator<char> > const&)> const&)::$_2, std::__ndk1::allocator<FontPickerPopup::setup(std::__ndk1::basic_string<char, std::__ndk1::char_traits<char>, std::__ndk1::allocator<char> > const&, std::__ndk1::function<void (std::__ndk1::basic_string<char, std::__ndk1::char_traits<char>, std::__ndk1::allocator<char> > const&)> const&)::$_2>, void (CCMenuItemSpriteExtra*)>::target_type() const
PUBLIC 38c64 0 geode::cast::traverseTypeinfoFor(void*, geode::cast::ClassTypeinfoType const*, char const*)
PUBLIC 38d60 0 std::__ndk1::__function::__func<FontPicker::onPickFont(cocos2d::CCObject*)::$_0, std::__ndk1::allocator<FontPicker::onPickFont(cocos2d::CCObject*)::$_0>, void (std::__ndk1::basic_string<char, std::__ndk1::char_traits<char>, std::__ndk1::allocator<char> > const&)>::~__func()
PUBLIC 38d64 0 std::__ndk1::__function::__func<FontPicker::onPickFont(cocos2d::CCObject*)::$_0, std::__ndk1::allocator<FontPicker::onPickFont(cocos2d::CCObject*)::$_0>, void (std::__ndk1::basic_string<char, std::__ndk1::char_traits<char>, std::__ndk1::allocator<char> > const&)>::__clone() const
PUBLIC 38d98 0 std::__ndk1::__function::__func<FontPicker::onPickFont(cocos2d::CCObject*)::$_0, std::__ndk1::allocator<FontPicker::onPickFont(cocos2d::CCObject*)::$_0>, void (std::__ndk1::basic_string<char, std::__ndk1::char_traits<char>, std::__ndk1::allocator<char> > const&)>::__clone(std::__ndk1::__function::__base<void (std::__ndk1::basic_string<char, std::__ndk1::char_traits<char>, std::__ndk1::allocator<char> > const&)>*) const
PUBLIC 38dac 0 std::__ndk1::__function::__func<FontPicker::onPickFont(cocos2d::CCObject*)::$_0, std::__ndk1::allocator<FontPicker::onPickFont(cocos2d::CCObject*)::$_0>, void (std::__ndk1::basic_string<char, std::__ndk1::char_traits<char>, std::__ndk1::allocator<char> > const&)>::destroy()
PUBLIC 38db0 0 std::__ndk1::__function::__func<FontPicker::onPickFont(cocos2d::CCObject*)::$_0, std::__ndk1::allocator<FontPicker::onPickFont(cocos2d::CCObject*)::$_0>, void (std::__ndk1::basic_string<char, std::__ndk1::char_traits<char>, std::__ndk1::allocator<char> > const&)>::destroy_deallocate()
PUBLIC 38db4 0 std::__ndk1::__function::__func<FontPicker::onPickFont(cocos2d::CCObject*)::$_0, std::__ndk1::allocator<FontPicker::onPickFont(cocos2d::CCObject*)::$_0>, void (std::__ndk1::basic_string<char, std::__ndk1::char_traits<char>, std::__ndk1::allocator<char> > const&)>::operator()(std::__ndk1::basic_string<char, std::__ndk1::char_traits<char>, std::__ndk1::allocator<char> > const&)
PUBLIC 38f6c 0 std::__ndk1::__function::__func<FontPicker::onPickFont(cocos2d::CCObject*)::$_0, std::__ndk1::allocator<FontPicker::onPickFont(cocos2d::CCObject*)::$_0>, void (std::__ndk1::basic_string<char, std::__ndk1::char_traits<char>, std::__ndk1::allocator<char> > const&)>::target(std::type_info const&) const
PUBLIC 38f88 0 std::__ndk1::__function::__func<FontPicker::onPickFont(cocos2d::CCObject*)::$_0, std::__ndk1::allocator<FontPicker::onPickFont(cocos2d::CCObject*)::$_0>, void (std::__ndk1::basic_string<char, std::__ndk1::char_traits<char>, std::__ndk1::allocator<char> > const&)>::target_type() const
PUBLIC 38f94 0 IndicatorNode::init(IndicatorData const&, float)
PUBLIC 3913c 0 IndicatorNode::~IndicatorNode()
PUBLIC 39160 0 LevelIndicatorsList::setup(std::__ndk1::basic_string<char, std::__ndk1::char_traits<char>, std::__ndk1::allocator<char> > const&)
PUBLIC 39dd8 0 geode::cocos::CCMenuItemExt::createTogglerWithStandardSprites(float, std::__ndk1::function<void (CCMenuItemToggler*)>)
PUBLIC 3a2b4 0 LevelIndicatorsList::refreshList()
PUBLIC 3afb0 0 LevelIndicatorsList::create(std::__ndk1::basic_string<char, std::__ndk1::char_traits<char>, std::__ndk1::allocator<char> > const&)
PUBLIC 3b120 0 LevelIndicatorsList::onExit()
PUBLIC 3b5f4 0 LevelIndicatorsList::~LevelIndicatorsList()
PUBLIC 3b718 0 LevelIndicatorsList::~LevelIndicatorsList()
PUBLIC 3b73c 0 geode::Popup<std::__ndk1::basic_string<char, std::__ndk1::char_traits<char>, std::__ndk1::allocator<char> > const&>::registerWithTouchDispatcher()
PUBLIC 3b768 0 geode::Popup<std::__ndk1::basic_string<char, std::__ndk1::char_traits<char>, std::__ndk1::allocator<char> > const&>::keyDown(cocos2d::enumKeyCodes)
PUBLIC 3b790 0 geode::Popup<std::__ndk1::basic_string<char, std::__ndk1::char_traits<char>, std::__ndk1::allocator<char> > const&>::onClose(cocos2d::CCObject*)
PUBLIC 3b8d8 0 {virtual override thunk({offset(-320)}, LevelIndicatorsList::~LevelIndicatorsList())}
PUBLIC 3b8e0 0 {virtual override thunk({offset(-320)}, LevelIndicatorsList::~LevelIndicatorsList())}
PUBLIC 3b908 0 {virtual override thunk({offset(-344)}, geode::Popup<std::__ndk1::basic_string<char, std::__ndk1::char_traits<char>, std::__ndk1::allocator<char> > const&>::keyDown(cocos2d::enumKeyCodes))}
PUBLIC 3b934 0 geode::cocos::CCMenuItemExt::LambdaCallback<CCMenuItemToggler>::execute(cocos2d::CCNode*)
PUBLIC 3b9a4 0 geode::cocos::CCMenuItemExt::LambdaCallback<CCMenuItemToggler>::~LambdaCallback()
PUBLIC 3ba00 0 geode::cocos::CCMenuItemExt::LambdaCallback<CCMenuItemToggler>::~LambdaCallback()
PUBLIC 3ba64 0 geode::Popup<std::__ndk1::basic_string<char, std::__ndk1::char_traits<char>, std::__ndk1::allocator<char> > const&>::~Popup()
PUBLIC 3bad0 0 geode::Popup<std::__ndk1::basic_string<char, std::__ndk1::char_traits<char>, std::__ndk1::allocator<char> > const&>::~Popup()
PUBLIC 3bad4 0 {virtual override thunk({offset(-320)}, geode::Popup<std::__ndk1::basic_string<char, std::__ndk1::char_traits<char>, std::__ndk1::allocator<char> > const&>::~Popup())}
PUBLIC 3bb40 0 {virtual override thunk({offset(-320)}, geode::Popup<std::__ndk1::basic_string<char, std::__ndk1::char_traits<char>, std::__ndk1::allocator<char> > const&>::~Popup())}
PUBLIC 3bb44 0 std::__ndk1::__function::__func<LevelIndicatorsList::setup(std::__ndk1::basic_string<char, std::__ndk1::char_traits<char>, std::__ndk1::allocator<char> > const&)::$_0, std::__ndk1::allocator<LevelIndicatorsList::setup(std::__ndk1::basic_string<char, std::__ndk1::char_traits<char>, std::__ndk1::allocator<char> > const&)::$_0>, void (CCMenuItemToggler*)>::~__func()
PUBLIC 3bb48 0 std::__ndk1::__function::__func<LevelIndicatorsList::setup(std::__ndk1::basic_string<char, std::__ndk1::char_traits<char>, std::__ndk1::allocator<char> > const&)::$_0, std::__ndk1::allocator<LevelIndicatorsList::setup(std::__ndk1::basic_string<char, std::__ndk1::char_traits<char>, std::__ndk1::allocator<char> > const&)::$_0>, void (CCMenuItemToggler*)>::__clone() const
PUBLIC 3bb7c 0 std::__ndk1::__function::__func<LevelIndicatorsList::setup(std::__ndk1::basic_string<char, std::__ndk1::char_traits<char>, std::__ndk1::allocator<char> > const&)::$_0, std::__ndk1::allocator<LevelIndicatorsList::setup(std::__ndk1::basic_string<char, std::__ndk1::char_traits<char>, std::__ndk1::allocator<char> > const&)::$_0>, void (CCMenuItemToggler*)>::__clone(std::__ndk1::__function::__base<void (CCMenuItemToggler*)>*) const
PUBLIC 3bb90 0 std::__ndk1::__function::__func<LevelIndicatorsList::setup(std::__ndk1::basic_string<char, std::__ndk1::char_traits<char>, std::__ndk1::allocator<char> > const&)::$_0, std::__ndk1::allocator<LevelIndicatorsList::setup(std::__ndk1::basic_string<char, std::__ndk1::char_traits<char>, std::__ndk1::allocator<char> > const&)::$_0>, void (CCMenuItemToggler*)>::destroy()
PUBLIC 3bb94 0 std::__ndk1::__function::__func<LevelIndicatorsList::setup(std::__ndk1::basic_string<char, std::__ndk1::char_traits<char>, std::__ndk1::allocator<char> > const&)::$_0, std::__ndk1::allocator<LevelIndicatorsList::setup(std::__ndk1::basic_string<char, std::__ndk1::char_traits<char>, std::__ndk1::allocator<char> > const&)::$_0>, void (CCMenuItemToggler*)>::destroy_deallocate()
PUBLIC 3bb98 0 std::__ndk1::__function::__func<LevelIndicatorsList::setup(std::__ndk1::basic_string<char, std::__ndk1::char_traits<char>, std::__ndk1::allocator<char> > const&)::$_0, std::__ndk1::allocator<LevelIndicatorsList::setup(std::__ndk1::basic_string<char, std::__ndk1::char_traits<char>, std::__ndk1::allocator<char> > const&)::$_0>, void (CCMenuItemToggler*)>::operator()(CCMenuItemToggler*&&)
PUBLIC 3bef0 0 std::__ndk1::__function::__func<LevelIndicatorsList::setup(std::__ndk1::basic_string<char, std::__ndk1::char_traits<char>, std::__ndk1::allocator<char> > const&)::$_0, std::__ndk1::allocator<LevelIndicatorsList::setup(std::__ndk1::basic_string<char, std::__ndk1::char_traits<char>, std::__ndk1::allocator<char> > const&)::$_0>, void (CCMenuItemToggler*)>::target(std::type_info const&) const
PUBLIC 3bf0c 0 std::__ndk1::__function::__func<LevelIndicatorsList::setup(std::__ndk1::basic_string<char, std::__ndk1::char_traits<char>, std::__ndk1::allocator<char> > const&)::$_0, std::__ndk1::allocator<LevelIndicatorsList::setup(std::__ndk1::basic_string<char, std::__ndk1::char_traits<char>, std::__ndk1::allocator<char> > const&)::$_0>, void (CCMenuItemToggler*)>::target_type() const
PUBLIC 3bf18 0 std::__ndk1::__function::__func<LevelIndicatorsList::setup(std::__ndk1::basic_string<char, std::__ndk1::char_traits<char>, std::__ndk1::allocator<char> > const&)::$_1, std::__ndk1::allocator<LevelIndicatorsList::setup(std::__ndk1::basic_string<char, std::__ndk1::char_traits<char>, std::__ndk1::allocator<char> > const&)::$_1>, void (CCMenuItemSpriteExtra*)>::~__func()
PUBLIC 3bf1c 0 std::__ndk1::__function::__func<LevelIndicatorsList::setup(std::__ndk1::basic_string<char, std::__ndk1::char_traits<char>, std::__ndk1::allocator<char> > const&)::$_1, std::__ndk1::allocator<LevelIndicatorsList::setup(std::__ndk1::basic_string<char, std::__ndk1::char_traits<char>, std::__ndk1::allocator<char> > const&)::$_1>, void (CCMenuItemSpriteExtra*)>::__clone() const
PUBLIC 3bf50 0 std::__ndk1::__function::__func<LevelIndicatorsList::setup(std::__ndk1::basic_string<char, std::__ndk1::char_traits<char>, std::__ndk1::allocator<char> > const&)::$_1, std::__ndk1::allocator<LevelIndicatorsList::setup(std::__ndk1::basic_string<char, std::__ndk1::char_traits<char>, std::__ndk1::allocator<char> > const&)::$_1>, void (CCMenuItemSpriteExtra*)>::__clone(std::__ndk1::__function::__base<void (CCMenuItemSpriteExtra*)>*) const
PUBLIC 3bf64 0 std::__ndk1::__function::__func<LevelIndicatorsList::setup(std::__ndk1::basic_string<char, std::__ndk1::char_traits<char>, std::__ndk1::allocator<char> > const&)::$_1, std::__ndk1::allocator<LevelIndicatorsList::setup(std::__ndk1::basic_string<char, std::__ndk1::char_traits<char>, std::__ndk1::allocator<char> > const&)::$_1>, void (CCMenuItemSpriteExtra*)>::destroy()
PUBLIC 3bf68 0 std::__ndk1::__function::__func<LevelIndicatorsList::setup(std::__ndk1::basic_string<char, std::__ndk1::char_traits<char>, std::__ndk1::allocator<char> > const&)::$_1, std::__ndk1::allocator<LevelIndicatorsList::setup(std::__ndk1::basic_string<char, std::__ndk1::char_traits<char>, std::__ndk1::allocator<char> > const&)::$_1>, void (CCMenuItemSpriteExtra*)>::destroy_deallocate()
PUBLIC 3bf6c 0 std::__ndk1::__function::__func<LevelIndicatorsList::setup(std::__ndk1::basic_string<char, std::__ndk1::char_traits<char>, std::__ndk1::allocator<char> > const&)::$_1, std::__ndk1::allocator<LevelIndicatorsList::setup(std::__ndk1::basic_string<char, std::__ndk1::char_traits<char>, std::__ndk1::allocator<char> > const&)::$_1>, void (CCMenuItemSpriteExtra*)>::operator()(CCMenuItemSpriteExtra*&&)
PUBLIC 3c284 0 std::__ndk1::__function::__func<LevelIndicatorsList::setup(std::__ndk1::basic_string<char, std::__ndk1::char_traits<char>, std::__ndk1::allocator<char> > const&)::$_1, std::__ndk1::allocator<LevelIndicatorsList::setup(std::__ndk1::basic_string<char, std::__ndk1::char_traits<char>, std::__ndk1::allocator<char> > const&)::$_1>, void (CCMenuItemSpriteExtra*)>::target(std::type_info const&) const
PUBLIC 3c2a0 0 std::__ndk1::__function::__func<LevelIndicatorsList::setup(std::__ndk1::basic_string<char, std::__ndk1::char_traits<char>, std::__ndk1::allocator<char> > const&)::$_1, std::__ndk1::allocator<LevelIndicatorsList::setup(std::__ndk1::basic_string<char, std::__ndk1::char_traits<char>, std::__ndk1::allocator<char> > const&)::$_1>, void (CCMenuItemSpriteExtra*)>::target_type() const
PUBLIC 3c2ac 0 std::__ndk1::__function::__func<LevelIndicatorsList::setup(std::__ndk1::basic_string<char, std::__ndk1::char_traits<char>, std::__ndk1::allocator<char> > const&)::$_2, std::__ndk1::allocator<LevelIndicatorsList::setup(std::__ndk1::basic_string<char, std::__ndk1::char_traits<char>, std::__ndk1::allocator<char> > const&)::$_2>, void (std::__ndk1::basic_string<char, std::__ndk1::char_traits<char>, std::__ndk1::allocator<char> > const&)>::~__func()
PUBLIC 3c2b0 0 std::__ndk1::__function::__func<LevelIndicatorsList::setup(std::__ndk1::basic_string<char, std::__ndk1::char_traits<char>, std::__ndk1::allocator<char> > const&)::$_2, std::__ndk1::allocator<LevelIndicatorsList::setup(std::__ndk1::basic_string<char, std::__ndk1::char_traits<char>, std::__ndk1::allocator<char> > const&)::$_2>, void (std::__ndk1::basic_string<char, std::__ndk1::char_traits<char>, std::__ndk1::allocator<char> > const&)>::__clone() const
PUBLIC 3c2e4 0 std::__ndk1::__function::__func<LevelIndicatorsList::setup(std::__ndk1::basic_string<char, std::__ndk1::char_traits<char>, std::__ndk1::allocator<char> > const&)::$_2, std::__ndk1::allocator<LevelIndicatorsList::setup(std::__ndk1::basic_string<char, std::__ndk1::char_traits<char>, std::__ndk1::allocator<char> > const&)::$_2>, void (std::__ndk1::basic_string<char, std::__ndk1::char_traits<char>, std::__ndk1::allocator<char> > const&)>::__clone(std::__ndk1::__function::__base<void (std::__ndk1::basic_string<char, std::__ndk1::char_traits<char>, std::__ndk1::allocator<char> > const&)>*) const
PUBLIC 3c2f8 0 std::__ndk1::__function::__func<LevelIndicatorsList::setup(std::__ndk1::basic_string<char, std::__ndk1::char_traits<char>, std::__ndk1::allocator<char> > const&)::$_2, std::__ndk1::allocator<LevelIndicatorsList::setup(std::__ndk1::basic_string<char, std::__ndk1::char_traits<char>, std::__ndk1::allocator<char> > const&)::$_2>, void (std::__ndk1::basic_string<char, std::__ndk1::char_traits<char>, std::__ndk1::allocator<char> > const&)>::destroy()
PUBLIC 3c2fc 0 std::__ndk1::__function::__func<LevelIndicatorsList::setup(std::__ndk1::basic_string<char, std::__ndk1::char_traits<char>, std::__ndk1::allocator<char> > const&)::$_2, std::__ndk1::allocator<LevelIndicatorsList::setup(std::__ndk1::basic_string<char, std::__ndk1::char_traits<char>, std::__ndk1::allocator<char> > const&)::$_2>, void (std::__ndk1::basic_string<char, std::__ndk1::char_traits<char>, std::__ndk1::allocator<char> > const&)>::destroy_deallocate()
PUBLIC 3c300 0 std::__ndk1::__function::__func<LevelIndicatorsList::setup(std::__ndk1::basic_string<char, std::__ndk1::char_traits<char>, std::__ndk1::allocator<char> > const&)::$_2, std::__ndk1::allocator<LevelIndicatorsList::setup(std::__ndk1::basic_string<char, std::__ndk1::char_traits<char>, std::__ndk1::allocator<char> > const&)::$_2>, void (std::__ndk1::basic_string<char, std::__ndk1::char_traits<char>, std::__ndk1::allocator<char> > const&)>::operator()(std::__ndk1::basic_string<char, std::__ndk1::char_traits<char>, std::__ndk1::allocator<char> > const&)
PUBLIC 3c770 0 std::__ndk1::__function::__func<LevelIndicatorsList::setup(std::__ndk1::basic_string<char, std::__ndk1::char_traits<char>, std::__ndk1::allocator<char> > const&)::$_2, std::__ndk1::allocator<LevelIndicatorsList::setup(std::__ndk1::basic_string<char, std::__ndk1::char_traits<char>, std::__ndk1::allocator<char> > const&)::$_2>, void (std::__ndk1::basic_string<char, std::__ndk1::char_traits<char>, std::__ndk1::allocator<char> > const&)>::target(std::type_info const&) const
PUBLIC 3c78c 0 std::__ndk1::__function::__func<LevelIndicatorsList::setup(std::__ndk1::basic_string<char, std::__ndk1::char_traits<char>, std::__ndk1::allocator<char> > const&)::$_2, std::__ndk1::allocator<LevelIndicatorsList::setup(std::__ndk1::basic_string<char, std::__ndk1::char_traits<char>, std::__ndk1::allocator<char> > const&)::$_2>, void (std::__ndk1::basic_string<char, std::__ndk1::char_traits<char>, std::__ndk1::allocator<char> > const&)>::target_type() const
PUBLIC 3c798 0 std::__ndk1::__function::__func<LevelIndicatorsList::createIndicatorCell(IndicatorData&, int)::$_0, std::__ndk1::allocator<LevelIndicatorsList::createIndicatorCell(IndicatorData&, int)::$_0>, void (CCMenuItemSpriteExtra*)>::~__func()
PUBLIC 3c79c 0 std::__ndk1::__function::__func<LevelIndicatorsList::createIndicatorCell(IndicatorData&, int)::$_0, std::__ndk1::allocator<LevelIndicatorsList::createIndicatorCell(IndicatorData&, int)::$_0>, void (CCMenuItemSpriteExtra*)>::__clone() const
PUBLIC 3c7d4 0 std::__ndk1::__function::__func<LevelIndicatorsList::createIndicatorCell(IndicatorData&, int)::$_0, std::__ndk1::allocator<LevelIndicatorsList::createIndicatorCell(IndicatorData&, int)::$_0>, void (CCMenuItemSpriteExtra*)>::__clone(std::__ndk1::__function::__base<void (CCMenuItemSpriteExtra*)>*) const
PUBLIC 3c7ec 0 std::__ndk1::__function::__func<LevelIndicatorsList::createIndicatorCell(IndicatorData&, int)::$_0, std::__ndk1::allocator<LevelIndicatorsList::createIndicatorCell(IndicatorData&, int)::$_0>, void (CCMenuItemSpriteExtra*)>::destroy()
PUBLIC 3c7f0 0 std::__ndk1::__function::__func<LevelIndicatorsList::createIndicatorCell(IndicatorData&, int)::$_0, std::__ndk1::allocator<LevelIndicatorsList::createIndicatorCell(IndicatorData&, int)::$_0>, void (CCMenuItemSpriteExtra*)>::destroy_deallocate()
PUBLIC 3c7f4 0 std::__ndk1::__function::__func<LevelIndicatorsList::createIndicatorCell(IndicatorData&, int)::$_0, std::__ndk1::allocator<LevelIndicatorsList::createIndicatorCell(IndicatorData&, int)::$_0>, void (CCMenuItemSpriteExtra*)>::operator()(CCMenuItemSpriteExtra*&&)
PUBLIC 3c924 0 std::__ndk1::__function::__func<LevelIndicatorsList::createIndicatorCell(IndicatorData&, int)::$_0, std::__ndk1::allocator<LevelIndicatorsList::createIndicatorCell(IndicatorData&, int)::$_0>, void (CCMenuItemSpriteExtra*)>::target(std::type_info const&) const
PUBLIC 3c940 0 std::__ndk1::__function::__func<LevelIndicatorsList::createIndicatorCell(IndicatorData&, int)::$_0, std::__ndk1::allocator<LevelIndicatorsList::createIndicatorCell(IndicatorData&, int)::$_0>, void (CCMenuItemSpriteExtra*)>::target_type() const
PUBLIC 3c94c 0 std::__ndk1::__function::__base<void (double)>::~__base()
PUBLIC 3c950 0 std::__ndk1::__function::__func<LevelIndicatorsList::createIndicatorCell(IndicatorData&, int)::$_1, std::__ndk1::allocator<LevelIndicatorsList::createIndicatorCell(IndicatorData&, int)::$_1>, void (double)>::~__func()
PUBLIC 3c954 0 std::__ndk1::__function::__func<LevelIndicatorsList::createIndicatorCell(IndicatorData&, int)::$_1, std::__ndk1::allocator<LevelIndicatorsList::createIndicatorCell(IndicatorData&, int)::$_1>, void (double)>::__clone() const
PUBLIC 3c98c 0 std::__ndk1::__function::__func<LevelIndicatorsList::createIndicatorCell(IndicatorData&, int)::$_1, std::__ndk1::allocator<LevelIndicatorsList::createIndicatorCell(IndicatorData&, int)::$_1>, void (double)>::__clone(std::__ndk1::__function::__base<void (double)>*) const
PUBLIC 3c9a4 0 std::__ndk1::__function::__func<LevelIndicatorsList::createIndicatorCell(IndicatorData&, int)::$_1, std::__ndk1::allocator<LevelIndicatorsList::createIndicatorCell(IndicatorData&, int)::$_1>, void (double)>::destroy()
PUBLIC 3c9a8 0 std::__ndk1::__function::__func<LevelIndicatorsList::createIndicatorCell(IndicatorData&, int)::$_1, std::__ndk1::allocator<LevelIndicatorsList::createIndicatorCell(IndicatorData&, int)::$_1>, void (double)>::destroy_deallocate()
PUBLIC 3c9ac 0 std::__ndk1::__function::__func<LevelIndicatorsList::createIndicatorCell(IndicatorData&, int)::$_1, std::__ndk1::allocator<LevelIndicatorsList::createIndicatorCell(IndicatorData&, int)::$_1>, void (double)>::operator()(double&&)
PUBLIC 3c9c8 0 std::__ndk1::__function::__func<LevelIndicatorsList::createIndicatorCell(IndicatorData&, int)::$_1, std::__ndk1::allocator<LevelIndicatorsList::createIndicatorCell(IndicatorData&, int)::$_1>, void (double)>::target(std::type_info const&) const
PUBLIC 3c9e4 0 std::__ndk1::__function::__func<LevelIndicatorsList::createIndicatorCell(IndicatorData&, int)::$_1, std::__ndk1::allocator<LevelIndicatorsList::createIndicatorCell(IndicatorData&, int)::$_1>, void (double)>::target_type() const
PUBLIC 3c9f0 0 std::__ndk1::__function::__base<void (CCMenuItemToggler*)>::~__base()
PUBLIC 3c9f4 0 std::__ndk1::__function::__func<LevelIndicatorsList::createIndicatorCell(IndicatorData&, int)::$_2, std::__ndk1::allocator<LevelIndicatorsList::createIndicatorCell(IndicatorData&, int)::$_2>, void (CCMenuItemToggler*)>::~__func()
PUBLIC 3c9f8 0 std::__ndk1::__function::__func<LevelIndicatorsList::createIndicatorCell(IndicatorData&, int)::$_2, std::__ndk1::allocator<LevelIndicatorsList::createIndicatorCell(IndicatorData&, int)::$_2>, void (CCMenuItemToggler*)>::__clone() const
PUBLIC 3ca30 0 std::__ndk1::__function::__func<LevelIndicatorsList::createIndicatorCell(IndicatorData&, int)::$_2, std::__ndk1::allocator<LevelIndicatorsList::createIndicatorCell(IndicatorData&, int)::$_2>, void (CCMenuItemToggler*)>::__clone(std::__ndk1::__function::__base<void (CCMenuItemToggler*)>*) const
PUBLIC 3ca48 0 std::__ndk1::__function::__func<LevelIndicatorsList::createIndicatorCell(IndicatorData&, int)::$_2, std::__ndk1::allocator<LevelIndicatorsList::createIndicatorCell(IndicatorData&, int)::$_2>, void (CCMenuItemToggler*)>::destroy()
PUBLIC 3ca4c 0 std::__ndk1::__function::__func<LevelIndicatorsList::createIndicatorCell(IndicatorData&, int)::$_2, std::__ndk1::allocator<LevelIndicatorsList::createIndicatorCell(IndicatorData&, int)::$_2>, void (CCMenuItemToggler*)>::destroy_deallocate()
PUBLIC 3ca50 0 std::__ndk1::__function::__func<LevelIndicatorsList::createIndicatorCell(IndicatorData&, int)::$_2, std::__ndk1::allocator<LevelIndicatorsList::createIndicatorCell(IndicatorData&, int)::$_2>, void (CCMenuItemToggler*)>::operator()(CCMenuItemToggler*&&)
PUBLIC 3ca70 0 std::__ndk1::__function::__func<LevelIndicatorsList::createIndicatorCell(IndicatorData&, int)::$_2, std::__ndk1::allocator<LevelIndicatorsList::createIndicatorCell(IndicatorData&, int)::$_2>, void (CCMenuItemToggler*)>::target(std::type_info const&) const
PUBLIC 3ca8c 0 std::__ndk1::__function::__func<LevelIndicatorsList::createIndicatorCell(IndicatorData&, int)::$_2, std::__ndk1::allocator<LevelIndicatorsList::createIndicatorCell(IndicatorData&, int)::$_2>, void (CCMenuItemToggler*)>::target_type() const
PUBLIC 3ca98 0 std::__ndk1::__function::__func<LevelIndicatorsList::createIndicatorCell(IndicatorData&, int)::$_5, std::__ndk1::allocator<LevelIndicatorsList::createIndicatorCell(IndicatorData&, int)::$_5>, void (std::__ndk1::basic_string<char, std::__ndk1::char_traits<char>, std::__ndk1::allocator<char> > const&)>::~__func()
PUBLIC 3ca9c 0 std::__ndk1::__function::__func<LevelIndicatorsList::createIndicatorCell(IndicatorData&, int)::$_5, std::__ndk1::allocator<LevelIndicatorsList::createIndicatorCell(IndicatorData&, int)::$_5>, void (std::__ndk1::basic_string<char, std::__ndk1::char_traits<char>, std::__ndk1::allocator<char> > const&)>::__clone() const
PUBLIC 3cad4 0 std::__ndk1::__function::__func<LevelIndicatorsList::createIndicatorCell(IndicatorData&, int)::$_5, std::__ndk1::allocator<LevelIndicatorsList::createIndicatorCell(IndicatorData&, int)::$_5>, void (std::__ndk1::basic_string<char, std::__ndk1::char_traits<char>, std::__ndk1::allocator<char> > const&)>::__clone(std::__ndk1::__function::__base<void (std::__ndk1::basic_string<char, std::__ndk1::char_traits<char>, std::__ndk1::allocator<char> > const&)>*) const
PUBLIC 3caec 0 std::__ndk1::__function::__func<LevelIndicatorsList::createIndicatorCell(IndicatorData&, int)::$_5, std::__ndk1::allocator<LevelIndicatorsList::createIndicatorCell(IndicatorData&, int)::$_5>, void (std::__ndk1::basic_string<char, std::__ndk1::char_traits<char>, std::__ndk1::allocator<char> > const&)>::destroy()
PUBLIC 3caf0 0 std::__ndk1::__function::__func<LevelIndicatorsList::createIndicatorCell(IndicatorData&, int)::$_5, std::__ndk1::allocator<LevelIndicatorsList::createIndicatorCell(IndicatorData&, int)::$_5>, void (std::__ndk1::basic_string<char, std::__ndk1::char_traits<char>, std::__ndk1::allocator<char> > const&)>::destroy_deallocate()
PUBLIC 3caf4 0 std::__ndk1::__function::__func<LevelIndicatorsList::createIndicatorCell(IndicatorData&, int)::$_5, std::__ndk1::allocator<LevelIndicatorsList::createIndicatorCell(IndicatorData&, int)::$_5>, void (std::__ndk1::basic_string<char, std::__ndk1::char_traits<char>, std::__ndk1::allocator<char> > const&)>::operator()(std::__ndk1::basic_string<char, std::__ndk1::char_traits<char>, std::__ndk1::allocator<char> > const&)
PUBLIC 3cc3c 0 std::__ndk1::__function::__func<LevelIndicatorsList::createIndicatorCell(IndicatorData&, int)::$_5, std::__ndk1::allocator<LevelIndicatorsList::createIndicatorCell(IndicatorData&, int)::$_5>, void (std::__ndk1::basic_string<char, std::__ndk1::char_traits<char>, std::__ndk1::allocator<char> > const&)>::target(std::type_info const&) const
PUBLIC 3cc58 0 std::__ndk1::__function::__func<LevelIndicatorsList::createIndicatorCell(IndicatorData&, int)::$_5, std::__ndk1::allocator<LevelIndicatorsList::createIndicatorCell(IndicatorData&, int)::$_5>, void (std::__ndk1::basic_string<char, std::__ndk1::char_traits<char>, std::__ndk1::allocator<char> > const&)>::target_type() const
PUBLIC 3cc64 0 std::__ndk1::__function::__func<LevelIndicatorsList::createIndicatorCell(IndicatorData&, int)::$_3, std::__ndk1::allocator<LevelIndicatorsList::createIndicatorCell(IndicatorData&, int)::$_3>, void (std::__ndk1::basic_string<char, std::__ndk1::char_traits<char>, std::__ndk1::allocator<char> > const&)>::~__func()
PUBLIC 3cc68 0 std::__ndk1::__function::__func<LevelIndicatorsList::createIndicatorCell(IndicatorData&, int)::$_3, std::__ndk1::allocator<LevelIndicatorsList::createIndicatorCell(IndicatorData&, int)::$_3>, void (std::__ndk1::basic_string<char, std::__ndk1::char_traits<char>, std::__ndk1::allocator<char> > const&)>::__clone() const
PUBLIC 3cca0 0 std::__ndk1::__function::__func<LevelIndicatorsList::createIndicatorCell(IndicatorData&, int)::$_3, std::__ndk1::allocator<LevelIndicatorsList::createIndicatorCell(IndicatorData&, int)::$_3>, void (std::__ndk1::basic_string<char, std::__ndk1::char_traits<char>, std::__ndk1::allocator<char> > const&)>::__clone(std::__ndk1::__function::__base<void (std::__ndk1::basic_string<char, std::__ndk1::char_traits<char>, std::__ndk1::allocator<char> > const&)>*) const
PUBLIC 3ccb8 0 std::__ndk1::__function::__func<LevelIndicatorsList::createIndicatorCell(IndicatorData&, int)::$_3, std::__ndk1::allocator<LevelIndicatorsList::createIndicatorCell(IndicatorData&, int)::$_3>, void (std::__ndk1::basic_string<char, std::__ndk1::char_traits<char>, std::__ndk1::allocator<char> > const&)>::destroy()
PUBLIC 3ccbc 0 std::__ndk1::__function::__func<LevelIndicatorsList::createIndicatorCell(IndicatorData&, int)::$_3, std::__ndk1::allocator<LevelIndicatorsList::createIndicatorCell(IndicatorData&, int)::$_3>, void (std::__ndk1::basic_string<char, std::__ndk1::char_traits<char>, std::__ndk1::allocator<char> > const&)>::destroy_deallocate()
PUBLIC 3ccc0 0 std::__ndk1::__function::__func<LevelIndicatorsList::createIndicatorCell(IndicatorData&, int)::$_3, std::__ndk1::allocator<LevelIndicatorsList::createIndicatorCell(IndicatorData&, int)::$_3>, void (std::__ndk1::basic_string<char, std::__ndk1::char_traits<char>, std::__ndk1::allocator<char> > const&)>::operator()(std::__ndk1::basic_string<char, std::__ndk1::char_traits<char>, std::__ndk1::allocator<char> > const&)
PUBLIC 3cddc 0 std::__ndk1::__function::__func<LevelIndicatorsList::createIndicatorCell(IndicatorData&, int)::$_3, std::__ndk1::allocator<LevelIndicatorsList::createIndicatorCell(IndicatorData&, int)::$_3>, void (std::__ndk1::basic_string<char, std::__ndk1::char_traits<char>, std::__ndk1::allocator<char> > const&)>::target(std::type_info const&) const
PUBLIC 3cdf8 0 std::__ndk1::__function::__func<LevelIndicatorsList::createIndicatorCell(IndicatorData&, int)::$_3, std::__ndk1::allocator<LevelIndicatorsList::createIndicatorCell(IndicatorData&, int)::$_3>, void (std::__ndk1::basic_string<char, std::__ndk1::char_traits<char>, std::__ndk1::allocator<char> > const&)>::target_type() const
PUBLIC 3ce04 0 std::__ndk1::__function::__base<void (cocos2d::_ccColor4B const&)>::~__base()
PUBLIC 3ce08 0 std::__ndk1::__function::__func<LevelIndicatorsList::createIndicatorCell(IndicatorData&, int)::$_4, std::__ndk1::allocator<LevelIndicatorsList::createIndicatorCell(IndicatorData&, int)::$_4>, void (cocos2d::_ccColor4B const&)>::~__func()
PUBLIC 3ce0c 0 std::__ndk1::__function::__func<LevelIndicatorsList::createIndicatorCell(IndicatorData&, int)::$_4, std::__ndk1::allocator<LevelIndicatorsList::createIndicatorCell(IndicatorData&, int)::$_4>, void (cocos2d::_ccColor4B const&)>::__clone() const
PUBLIC 3ce44 0 std::__ndk1::__function::__func<LevelIndicatorsList::createIndicatorCell(IndicatorData&, int)::$_4, std::__ndk1::allocator<LevelIndicatorsList::createIndicatorCell(IndicatorData&, int)::$_4>, void (cocos2d::_ccColor4B const&)>::__clone(std::__ndk1::__function::__base<void (cocos2d::_ccColor4B const&)>*) const
PUBLIC 3ce5c 0 std::__ndk1::__function::__func<LevelIndicatorsList::createIndicatorCell(IndicatorData&, int)::$_4, std::__ndk1::allocator<LevelIndicatorsList::createIndicatorCell(IndicatorData&, int)::$_4>, void (cocos2d::_ccColor4B const&)>::destroy()
PUBLIC 3ce60 0 std::__ndk1::__function::__func<LevelIndicatorsList::createIndicatorCell(IndicatorData&, int)::$_4, std::__ndk1::allocator<LevelIndicatorsList::createIndicatorCell(IndicatorData&, int)::$_4>, void (cocos2d::_ccColor4B const&)>::destroy_deallocate()
PUBLIC 3ce64 0 std::__ndk1::__function::__func<LevelIndicatorsList::createIndicatorCell(IndicatorData&, int)::$_4, std::__ndk1::allocator<LevelIndicatorsList::createIndicatorCell(IndicatorData&, int)::$_4>, void (cocos2d::_ccColor4B const&)>::operator()(cocos2d::_ccColor4B const&)
PUBLIC 3ce80 0 std::__ndk1::__function::__func<LevelIndicatorsList::createIndicatorCell(IndicatorData&, int)::$_4, std::__ndk1::allocator<LevelIndicatorsList::createIndicatorCell(IndicatorData&, int)::$_4>, void (cocos2d::_ccColor4B const&)>::target(std::type_info const&) const
PUBLIC 3ce9c 0 std::__ndk1::__function::__func<LevelIndicatorsList::createIndicatorCell(IndicatorData&, int)::$_4, std::__ndk1::allocator<LevelIndicatorsList::createIndicatorCell(IndicatorData&, int)::$_4>, void (cocos2d::_ccColor4B const&)>::target_type() const
PUBLIC 3cea8 0 geode::Popup<std::__ndk1::basic_string<char, std::__ndk1::char_traits<char>, std::__ndk1::allocator<char> > const&>::initBase(float, float, std::__ndk1::basic_string<char, std::__ndk1::char_traits<char>, std::__ndk1::allocator<char> > const&, char const*, cocos2d::CCRect, bool)
PUBLIC 3d1bc 0 geode::Popup<std::__ndk1::basic_string<char, std::__ndk1::char_traits<char>, std::__ndk1::allocator<char> > const&>::CloseEvent::~CloseEvent()
PUBLIC 3d21c 0 geode::Popup<std::__ndk1::basic_string<char, std::__ndk1::char_traits<char>, std::__ndk1::allocator<char> > const&>::CloseEvent::~CloseEvent()
PUBLIC 3d28c 0 std::__ndk1::__shared_ptr_emplace<geode::Popup<std::__ndk1::basic_string<char, std::__ndk1::char_traits<char>, std::__ndk1::allocator<char> > const&>::CloseEvent::Impl, std::__ndk1::allocator<geode::Popup<std::__ndk1::basic_string<char, std::__ndk1::char_traits<char>, std::__ndk1::allocator<char> > const&>::CloseEvent::Impl> >::~__shared_ptr_emplace()
PUBLIC 3d29c 0 std::__ndk1::__shared_ptr_emplace<geode::Popup<std::__ndk1::basic_string<char, std::__ndk1::char_traits<char>, std::__ndk1::allocator<char> > const&>::CloseEvent::Impl, std::__ndk1::allocator<geode::Popup<std::__ndk1::basic_string<char, std::__ndk1::char_traits<char>, std::__ndk1::allocator<char> > const&>::CloseEvent::Impl> >::~__shared_ptr_emplace()
PUBLIC 3d2cc 0 std::__ndk1::__shared_ptr_emplace<geode::Popup<std::__ndk1::basic_string<char, std::__ndk1::char_traits<char>, std::__ndk1::allocator<char> > const&>::CloseEvent::Impl, std::__ndk1::allocator<geode::Popup<std::__ndk1::basic_string<char, std::__ndk1::char_traits<char>, std::__ndk1::allocator<char> > const&>::CloseEvent::Impl> >::__on_zero_shared()
PUBLIC 3d2d0 0 std::__ndk1::__shared_ptr_emplace<geode::Popup<std::__ndk1::basic_string<char, std::__ndk1::char_traits<char>, std::__ndk1::allocator<char> > const&>::CloseEvent::Impl, std::__ndk1::allocator<geode::Popup<std::__ndk1::basic_string<char, std::__ndk1::char_traits<char>, std::__ndk1::allocator<char> > const&>::CloseEvent::Impl> >::__on_zero_shared_weak()
PUBLIC m 3d2d4 0 geodeImplicitEntry
PUBLIC 3d310 0 cocos2d::CCDestructor::~CCDestructor()
PUBLIC 3d40c 0 wrapFunction(unsigned long, tulip::hook::WrapperMetadata const&)
PUBLIC 3d540 0 geode::impl::ResultData<void*, std::__ndk1::basic_string<char, std::__ndk1::char_traits<char>, std::__ndk1::allocator<char> > >::unwrapErr() &
PUBLIC 3d5b8 0 geode::impl::ResultData<void*, std::__ndk1::basic_string<char, std::__ndk1::char_traits<char>, std::__ndk1::allocator<char> > >::~ResultData()
PUBLIC 3d62c 0 tulip::hook::WrapperMetadata::~WrapperMetadata()
PUBLIC 3d690 0 cocos2d::CCNodeRGBA::CCNodeRGBA()
PUBLIC 3d810 0 cocos2d::CCObject::CCObject()
PUBLIC 3d984 0 cocos2d::CCNode::CCNode()
PUBLIC 3db18 0 cocos2d::CCNode::~CCNode()
PUBLIC 3db3c 0 cocos2d::CCLayer::CCLayer()
PUBLIC 3dcd4 0 {virtual override thunk({offset(-320)}, cocos2d::CCLayer::~CCLayer())}
PUBLIC 3dcdc 0 cocos2d::CCLayer::~CCLayer()
PUBLIC 3dd00 0 {virtual override thunk({offset(-320)}, cocos2d::CCLayer::~CCLayer())}
PUBLIC 3dd28 0 cocos2d::CCObject::~CCObject()
PUBLIC 3dd4c 0 cocos2d::CCLayerColor::CCLayerColor()
PUBLIC 3deec 0 cocos2d::CCLayerRGBA::CCLayerRGBA()
PUBLIC 3e08c 0 cocos2d::CCLayerRGBA::~CCLayerRGBA()
PUBLIC 3e2d8 0 {virtual override thunk({offset(-320)}, cocos2d::CCLayerColor::~CCLayerColor())}
PUBLIC 3e2e0 0 cocos2d::CCLayerColor::~CCLayerColor()
PUBLIC 3e304 0 {virtual override thunk({offset(-320)}, cocos2d::CCLayerColor::~CCLayerColor())}
PUBLIC 3e32c 0 {virtual override thunk({offset(-320)}, cocos2d::CCLayerRGBA::~CCLayerRGBA())}
PUBLIC 3e334 0 cocos2d::CCLayerRGBA::~CCLayerRGBA()
PUBLIC 3e358 0 {virtual override thunk({offset(-320)}, cocos2d::CCLayerRGBA::~CCLayerRGBA())}
PUBLIC 3e380 0 cocos2d::CCNodeRGBA::~CCNodeRGBA()
PUBLIC 3e3a4 0 cocos2d::CCMenuItem::~CCMenuItem()
PUBLIC 3e3c8 0 {virtual override thunk({offset(-320)}, FLAlertLayer::~FLAlertLayer())}
PUBLIC 3e3d0 0 FLAlertLayer::~FLAlertLayer()
PUBLIC 3e3f4 0 {virtual override thunk({offset(-320)}, FLAlertLayer::~FLAlertLayer())}
PUBLIC 3e41c 0 cocos2d::CCNodeRGBA::~CCNodeRGBA()
PUBLIC 3e648 0 cocos2d::CCMenuItem::~CCMenuItem()
PUBLIC 3e874 0 CCMenuItemSpriteExtra::~CCMenuItemSpriteExtra()
PUBLIC 3e8b8 0 CCMenuItemSpriteExtra::~CCMenuItemSpriteExtra()
PUBLIC 3e904 0 cocos2d::CCLayer::~CCLayer()
PUBLIC 3eb48 0 cocos2d::CCLayerColor::~CCLayerColor()
PUBLIC 3ed9c 0 FLAlertLayer::~FLAlertLayer()
PUBLIC 3f050 0 cocos2d::CCNode::~CCNode()
PUBLIC 3f274 0 cocos2d::CCObject::~CCObject()
PUBLIC 3f498 0 _ZN5geode15UnwrapExceptionC2IRPvQsr4implE18IsStringStreamableIT_EEENS_4impl5OkTagEOS4_
PUBLIC 3f5ec 0 std::__ndk1::__variant_detail::__visitation::__base::__dispatcher<(unsigned long)0>::__dispatch[abi:ne180000]<std::__ndk1::__variant_detail::__dtor<std::__ndk1::__variant_detail::__traits<void*, std::__ndk1::basic_string<char, std::__ndk1::char_traits<char>, std::__ndk1::allocator<char> > >, (std::__ndk1::__variant_detail::_Trait)1>::__destroy[abi:ne180000]()::{lambda(auto:1&)#1}, std::__ndk1::__variant_detail::__base<(std::__ndk1::__variant_detail::__traits<void*, std::__ndk1::basic_string<char, std::__ndk1::char_traits<char>, std::__ndk1::allocator<char> > >)1, std::__ndk1::__variant_detail::__traits, std::__ndk1::allocator<char> >&>(std::__ndk1::__variant_detail::__dtor<std::__ndk1::__variant_detail::__traits<void*, std::__ndk1::basic_string<char, std::__ndk1::char_traits<char>, std::__ndk1::allocator<char> > >, (std::__ndk1::__variant_detail::_Trait)1>, std::__ndk1::__variant_detail::__base<(std::__ndk1::__variant_detail::__traits<void*, std::__ndk1::basic_string<char, std::__ndk1::char_traits<char>, std::__ndk1::allocator<char> > >)1, std::__ndk1::__variant_detail::__traits, std::__ndk1::allocator<char> >&)
PUBLIC 3f5f0 0 std::__ndk1::__variant_detail::__visitation::__base::__dispatcher<(unsigned long)1>::__dispatch[abi:ne180000]<std::__ndk1::__variant_detail::__dtor<std::__ndk1::__variant_detail::__traits<void*, std::__ndk1::basic_string<char, std::__ndk1::char_traits<char>, std::__ndk1::allocator<char> > >, (std::__ndk1::__variant_detail::_Trait)1>::__destroy[abi:ne180000]()::{lambda(auto:1&)#1}, std::__ndk1::__variant_detail::__base<(std::__ndk1::__variant_detail::__traits<void*, std::__ndk1::basic_string<char, std::__ndk1::char_traits<char>, std::__ndk1::allocator<char> > >)1, std::__ndk1::__variant_detail::__traits, std::__ndk1::allocator<char> >&>(std::__ndk1::__variant_detail::__dtor<std::__ndk1::__variant_detail::__traits<void*, std::__ndk1::basic_string<char, std::__ndk1::char_traits<char>, std::__ndk1::allocator<char> > >, (std::__ndk1::__variant_detail::_Trait)1>, std::__ndk1::__variant_detail::__base<(std::__ndk1::__variant_detail::__traits<void*, std::__ndk1::basic_string<char, std::__ndk1::char_traits<char>, std::__ndk1::allocator<char> > >)1, std::__ndk1::__variant_detail::__traits, std::__ndk1::allocator<char> >&)
PUBLIC 3f604 0 std::__ndk1::__hash_table<std::__ndk1::__hash_value_type<void*, bool>, std::__ndk1::__unordered_map_hasher<void*, std::__ndk1::__hash_value_type<void*, bool>, std::__ndk1::hash<void*>, std::__ndk1::equal_to<void*>, true>, std::__ndk1::__unordered_map_equal<void*, std::__ndk1::__hash_value_type<void*, bool>, std::__ndk1::equal_to<void*>, std::__ndk1::hash<void*>, true>, std::__ndk1::allocator<std::__ndk1::__hash_value_type<void*, bool> > >::__emplace_unique_key_args<void*, std::__ndk1::piecewise_construct_t const&, std::__ndk1::tuple<void* const&>, std::__ndk1::tuple<> >(void* const&, std::__ndk1::piecewise_construct_t const&, std::__ndk1::tuple<void* const&>, std::__ndk1::tuple<>)
PUBLIC 3fae4 0 std::__ndk1::__hash_table<std::__ndk1::__hash_value_type<void*, bool>, std::__ndk1::__unordered_map_hasher<void*, std::__ndk1::__hash_value_type<void*, bool>, std::__ndk1::hash<void*>, std::__ndk1::equal_to<void*>, true>, std::__ndk1::__unordered_map_equal<void*, std::__ndk1::__hash_value_type<void*, bool>, std::__ndk1::equal_to<void*>, std::__ndk1::hash<void*>, true>, std::__ndk1::allocator<std::__ndk1::__hash_value_type<void*, bool> > >::find<void*>(void* const&)
PUBLIC 3fbf4 0 std::__ndk1::__hash_table<std::__ndk1::__hash_value_type<void*, bool>, std::__ndk1::__unordered_map_hasher<void*, std::__ndk1::__hash_value_type<void*, bool>, std::__ndk1::hash<void*>, std::__ndk1::equal_to<void*>, true>, std::__ndk1::__unordered_map_equal<void*, std::__ndk1::__hash_value_type<void*, bool>, std::__ndk1::equal_to<void*>, std::__ndk1::hash<void*>, true>, std::__ndk1::allocator<std::__ndk1::__hash_value_type<void*, bool> > >::remove(std::__ndk1::__hash_const_iterator<std::__ndk1::__hash_node<std::__ndk1::__hash_value_type<void*, bool>, void*>*>)
PUBLIC 3fd28 0 __udivti3
PUBLIC 3fd34 0 __udivmodti4
PUBLIC m 3ff80 0 __eqtf2
PUBLIC 40020 0 __unordtf2
PUBLIC 40058 0 fmt::v11::detail::write_loc(fmt::v11::basic_appender<char>, fmt::v11::loc_value, fmt::v11::format_specs const&, fmt::v11::detail::locale_ref)
PUBLIC 402ec 0 fmt::v11::format_facet<std::__ndk1::locale>::~format_facet()
PUBLIC 40368 0 fmt::v11::report_error(char const*)
PUBLIC 403b8 0 fmt::v11::format_error::runtime_error(char const*)
PUBLIC 403e4 0 fmt::v11::format_facet<std::__ndk1::locale>::do_put(fmt::v11::basic_appender<char>, fmt::v11::loc_value, fmt::v11::format_specs const&) const
PUBLIC 40ba4 0 fmt::v11::detail::loc_writer<char>::~loc_writer()
PUBLIC 40c08 0 fmt::v11::detail::vformat_to<char>(fmt::v11::detail::buffer<char>&, fmt::v11::basic_string_view<char>, fmt::v11::detail::vformat_args<char>::type, fmt::v11::detail::locale_ref)
PUBLIC 41178 0 fmt::v11::detail::is_printable(unsigned int)
PUBLIC 413a0 0 fmt::v11::detail::dragonbox::to_decimal<float>(float)
PUBLIC 4167c 0 fmt::v11::detail::dragonbox::to_decimal<double>(double)
PUBLIC 41bb8 0 fmt::v11::basic_memory_buffer<char, (unsigned long)500, std::__ndk1::allocator<char> >::grow(fmt::v11::detail::buffer<char>&, unsigned long)
PUBLIC 41c30 0 fmt::v11::format_facet<std::__ndk1::locale>::~format_facet()
PUBLIC 41cbc 0 fmt::v11::format_error::~format_error()
PUBLIC 41ce0 0 fmt::v11::detail::copy_noinline<char, char const*, fmt::v11::basic_appender<char> >(char const*, char const*, fmt::v11::basic_appender<char>)
PUBLIC 41e30 0 fmt::v11::detail::default_arg_formatter<char>::operator()<bool>(bool)
PUBLIC 41e98 0 fmt::v11::detail::default_arg_formatter<char>::operator()<char>(char)
PUBLIC 41f28 0 fmt::v11::detail::default_arg_formatter<char>::operator()<float>(float)
PUBLIC 42014 0 fmt::v11::detail::default_arg_formatter<char>::operator()<double>(double)
PUBLIC 42100 0 fmt::v11::detail::default_arg_formatter<char>::operator()<char const*>(char const*)
PUBLIC 42148 0 fmt::v11::detail::default_arg_formatter<char>::operator()<void const*>(void const*)
PUBLIC 421e0 0 _ZN3fmt3v116detail5writeIcNS0_14basic_appenderIcEEiTnNSt6__ndk19enable_ifIXaaaasr11is_integralIT1_EE5valuentsr3std7is_sameIS7_bEE5valuentsr3std7is_sameIS7_T_EE5valueEiE4typeELi0EEET0_SB_S7_
PUBLIC 42440 0 fmt::v11::detail::copy_noinline<char, char*, fmt::v11::basic_appender<char> >(char*, char*, fmt::v11::basic_appender<char>)
PUBLIC 42590 0 _ZN3fmt3v116detail5writeIcNS0_14basic_appenderIcEEjTnNSt6__ndk19enable_ifIXaaaasr11is_integralIT1_EE5valuentsr3std7is_sameIS7_bEE5valuentsr3std7is_sameIS7_T_EE5valueEiE4typeELi0EEET0_SB_S7_
PUBLIC 42770 0 _ZN3fmt3v116detail5writeIcNS0_14basic_appenderIcEExTnNSt6__ndk19enable_ifIXaaaasr11is_integralIT1_EE5valuentsr3std7is_sameIS7_bEE5valuentsr3std7is_sameIS7_T_EE5valueEiE4typeELi0EEET0_SB_S7_
PUBLIC 429f4 0 _ZN3fmt3v116detail5writeIcNS0_14basic_appenderIcEEyTnNSt6__ndk19enable_ifIXaaaasr11is_integralIT1_EE5valuentsr3std7is_sameIS7_bEE5valuentsr3std7is_sameIS7_T_EE5valueEiE4typeELi0EEET0_SB_S7_
PUBLIC 42bfc 0 _ZN3fmt3v116detail5writeIcNS0_14basic_appenderIcEEnTnNSt6__ndk19enable_ifIXaaaasr11is_integralIT1_EE5valuentsr3std7is_sameIS7_bEE5valuentsr3std7is_sameIS7_T_EE5valueEiE4typeELi0EEET0_SB_S7_
PUBLIC 42f5c 0 _ZN3fmt3v116detail5writeIcNS0_14basic_appenderIcEEoTnNSt6__ndk19enable_ifIXaaaasr11is_integralIT1_EE5valuentsr3std7is_sameIS7_bEE5valuentsr3std7is_sameIS7_T_EE5valueEiE4typeELi0EEET0_SB_S7_
PUBLIC 43270 0 _ZN3fmt3v116detail5writeIcNS0_14basic_appenderIcEEbTnNSt6__ndk19enable_ifIXsr3std7is_sameIT1_bEE5valueEiE4typeELi0EEET0_SA_S7_RKNS0_12format_specsENS1_10locale_refE
PUBLIC 43500 0 fmt::v11::detail::write_int_noinline<char, fmt::v11::basic_appender<char>, unsigned int>(fmt::v11::basic_appender<char>, fmt::v11::detail::write_int_arg<unsigned int>, fmt::v11::format_specs const&, fmt::v11::detail::locale_ref)
PUBLIC 442dc 0 fmt::v11::detail::fill<char, fmt::v11::basic_appender<char> >(fmt::v11::basic_appender<char>, unsigned long, fmt::v11::detail::fill_t const&)
PUBLIC 444ac 0 fmt::v11::detail::write_padded<char, (fmt::v11::align::type)1, fmt::v11::basic_appender<char>, fmt::v11::detail::write_char<char, fmt::v11::basic_appender<char> >(fmt::v11::basic_appender<char>, char, fmt::v11::format_specs const&)::{lambda(fmt::v11::basic_appender<char>&)#1}>(fmt::v11::basic_appender<char>, fmt::v11::format_specs const&, unsigned long, unsigned long, fmt::v11::detail::write_char<char, fmt::v11::basic_appender<char> >(fmt::v11::basic_appender<char>, char, fmt::v11::format_specs const&)::{lambda(fmt::v11::basic_appender<char>&)#1})
PUBLIC 446e8 0 fmt::v11::detail::write_escaped_cp<fmt::v11::basic_appender<char>, char>(fmt::v11::basic_appender<char>, fmt::v11::detail::find_escape_result<char> const&)
PUBLIC 449f4 0 fmt::v11::detail::write_codepoint<(unsigned long)2, char, fmt::v11::basic_appender<char> >(fmt::v11::basic_appender<char>, char, unsigned int)
PUBLIC 44b6c 0 fmt::v11::detail::write_codepoint<(unsigned long)8, char, fmt::v11::basic_appender<char> >(fmt::v11::basic_appender<char>, char, unsigned int)
PUBLIC 44ce4 0 fmt::v11::detail::write_padded<char, (fmt::v11::align::type)1, fmt::v11::basic_appender<char>, fmt::v11::detail::write_nonfinite<char, fmt::v11::basic_appender<char> >(fmt::v11::basic_appender<char>, bool, fmt::v11::format_specs, fmt::v11::sign::type)::{lambda(fmt::v11::basic_appender<char>&)#1}>(fmt::v11::basic_appender<char>, fmt::v11::format_specs const&, unsigned long, unsigned long, fmt::v11::detail::write_nonfinite<char, fmt::v11::basic_appender<char> >(fmt::v11::basic_appender<char>, bool, fmt::v11::format_specs, fmt::v11::sign::type)::{lambda(fmt::v11::basic_appender<char>&)#1})
PUBLIC 44f24 0 fmt::v11::detail::do_write_float<char, fmt::v11::basic_appender<char>, fmt::v11::detail::dragonbox::decimal_fp<float>, fmt::v11::detail::digit_grouping<char> >(fmt::v11::basic_appender<char>, fmt::v11::detail::dragonbox::decimal_fp<float> const&, fmt::v11::format_specs const&, fmt::v11::detail::float_specs, fmt::v11::detail::locale_ref)
PUBLIC 45b98 0 fmt::v11::detail::do_write_float<char, fmt::v11::basic_appender<char>, fmt::v11::detail::dragonbox::decimal_fp<float>, fmt::v11::detail::digit_grouping<char> >(fmt::v11::basic_appender<char>, fmt::v11::detail::dragonbox::decimal_fp<float> const&, fmt::v11::format_specs const&, fmt::v11::detail::float_specs, fmt::v11::detail::locale_ref)::{lambda(fmt::v11::basic_appender<char>(fmt::v11::basic_appender<char>))#1}::operator() const
PUBLIC 45cec 0 fmt::v11::detail::digit_grouping<char>::digit_grouping(fmt::v11::detail::locale_ref, bool)
PUBLIC 45f58 0 fmt::v11::detail::digit_grouping<char>::~digit_grouping()
PUBLIC 45f9c 0 fmt::v11::detail::write_exponent<char, fmt::v11::basic_appender<char> >(int, fmt::v11::basic_appender<char>)
PUBLIC 4616c 0 _ZN3fmt3v116detail17write_significandIcjTnNSt6__ndk19enable_ifIXsr3std11is_integralIT0_EE5valueEiE4typeELi0EEEPT_S9_S5_iiS8_
PUBLIC 462e8 0 fmt::v11::detail::digit_grouping<char>::apply<fmt::v11::basic_appender<char>, char>(fmt::v11::basic_appender<char>, fmt::v11::basic_string_view<char>) const
PUBLIC 466a0 0 fmt::v11::basic_memory_buffer<int, (unsigned long)500, std::__ndk1::allocator<int> >::grow(fmt::v11::detail::buffer<int>&, unsigned long)
PUBLIC 46740 0 fmt::v11::detail::do_write_float<char, fmt::v11::basic_appender<char>, fmt::v11::detail::dragonbox::decimal_fp<double>, fmt::v11::detail::digit_grouping<char> >(fmt::v11::basic_appender<char>, fmt::v11::detail::dragonbox::decimal_fp<double> const&, fmt::v11::format_specs const&, fmt::v11::detail::float_specs, fmt::v11::detail::locale_ref)
PUBLIC 473f4 0 fmt::v11::detail::do_write_float<char, fmt::v11::basic_appender<char>, fmt::v11::detail::dragonbox::decimal_fp<double>, fmt::v11::detail::digit_grouping<char> >(fmt::v11::basic_appender<char>, fmt::v11::detail::dragonbox::decimal_fp<double> const&, fmt::v11::format_specs const&, fmt::v11::detail::float_specs, fmt::v11::detail::locale_ref)::{lambda(fmt::v11::basic_appender<char>(fmt::v11::basic_appender<char>))#1}::operator() const
PUBLIC 4754c 0 _ZN3fmt3v116detail17write_significandIcmTnNSt6__ndk19enable_ifIXsr3std11is_integralIT0_EE5valueEiE4typeELi0EEEPT_S9_S5_iiS8_
PUBLIC 476dc 0 fmt::v11::detail::write_float<char, fmt::v11::basic_appender<char>, long double>(fmt::v11::basic_appender<char>, long double, fmt::v11::format_specs, fmt::v11::detail::locale_ref)
PUBLIC 481d8 0 fmt::v11::detail::write_padded<char, (fmt::v11::align::type)2, fmt::v11::basic_appender<char>, fmt::v11::detail::write_bytes<char, (fmt::v11::align::type)2, fmt::v11::basic_appender<char> >(fmt::v11::basic_appender<char>, fmt::v11::basic_string_view<char>, fmt::v11::format_specs const&)::{lambda(fmt::v11::basic_appender<char>&)#1}>(fmt::v11::basic_appender<char>, fmt::v11::format_specs const&, unsigned long, unsigned long, fmt::v11::detail::write_bytes<char, (fmt::v11::align::type)2, fmt::v11::basic_appender<char> >(fmt::v11::basic_appender<char>, fmt::v11::basic_string_view<char>, fmt::v11::format_specs const&)::{lambda(fmt::v11::basic_appender<char>&)#1})
PUBLIC 483b4 0 fmt::v11::detail::format_dragon(fmt::v11::detail::basic_fp<unsigned __int128>, unsigned int, int, fmt::v11::detail::buffer<char>&, int&)
PUBLIC 497e4 0 fmt::v11::detail::bigint::operator<<=(int)
PUBLIC 49908 0 fmt::v11::detail::bigint::assign_pow10(int)
PUBLIC 4a064 0 fmt::v11::detail::bigint::divmod_assign(fmt::v11::detail::bigint const&)
PUBLIC 4a384 0 fmt::v11::basic_memory_buffer<unsigned int, (unsigned long)32, std::__ndk1::allocator<unsigned int> >::grow(fmt::v11::detail::buffer<unsigned int>&, unsigned long)
PUBLIC 4a424 0 fmt::v11::detail::do_write_float<char, fmt::v11::basic_appender<char>, fmt::v11::detail::big_decimal_fp, fmt::v11::detail::digit_grouping<char> >(fmt::v11::basic_appender<char>, fmt::v11::detail::big_decimal_fp const&, fmt::v11::format_specs const&, fmt::v11::detail::float_specs, fmt::v11::detail::locale_ref)
PUBLIC 4b2d4 0 fmt::v11::detail::do_write_float<char, fmt::v11::basic_appender<char>, fmt::v11::detail::big_decimal_fp, fmt::v11::detail::digit_grouping<char> >(fmt::v11::basic_appender<char>, fmt::v11::detail::big_decimal_fp const&, fmt::v11::format_specs const&, fmt::v11::detail::float_specs, fmt::v11::detail::locale_ref)::{lambda(fmt::v11::basic_appender<char>(fmt::v11::basic_appender<char>))#1}::operator() const
PUBLIC 4b434 0 fmt::v11::detail::write_padded<char, (fmt::v11::align::type)2, fmt::v11::basic_appender<char>, fmt::v11::detail::write_ptr<char, fmt::v11::basic_appender<char>, unsigned long>(fmt::v11::basic_appender<char>, unsigned long, fmt::v11::format_specs const*)::{lambda(fmt::v11::basic_appender<char>&)#1}>(fmt::v11::basic_appender<char>, fmt::v11::format_specs const&, unsigned long, unsigned long, fmt::v11::detail::write_ptr<char, fmt::v11::basic_appender<char>, unsigned long>(fmt::v11::basic_appender<char>, unsigned long, fmt::v11::format_specs const*)::{lambda(fmt::v11::basic_appender<char>&)#1})
PUBLIC 4b648 0 fmt::v11::detail::parse_replacement_field<char, fmt::v11::detail::vformat_to<char>(fmt::v11::detail::buffer<char>&, fmt::v11::basic_string_view<char>, fmt::v11::detail::vformat_args<char>::type, fmt::v11::detail::locale_ref)::format_handler&>(char const*, char const*, fmt::v11::detail::vformat_to<char>(fmt::v11::detail::buffer<char>&, fmt::v11::basic_string_view<char>, fmt::v11::detail::vformat_args<char>::type, fmt::v11::detail::locale_ref)::format_handler&)
PUBLIC 4d2e4 0 fmt::v11::detail::parse_dynamic_spec<char>(char const*, char const*, int&, fmt::v11::detail::arg_ref<char>&, fmt::v11::basic_format_parse_context<char>&)
PUBLIC 4d574 0 fmt::v11::basic_format_args<fmt::v11::context>::get<char>(fmt::v11::basic_string_view<char>) const
PUBLIC 4d6cc 0 fmt::v11::detail::write_int_noinline<char, fmt::v11::basic_appender<char>, unsigned long>(fmt::v11::basic_appender<char>, fmt::v11::detail::write_int_arg<unsigned long>, fmt::v11::format_specs const&, fmt::v11::detail::locale_ref)
PUBLIC 4e520 0 fmt::v11::detail::write_int_noinline<char, fmt::v11::basic_appender<char>, unsigned __int128>(fmt::v11::basic_appender<char>, fmt::v11::detail::write_int_arg<unsigned __int128>, fmt::v11::format_specs const&, fmt::v11::detail::locale_ref)
PUBLIC 4f588 0 _ZN3fmt3v116detail15format_hexfloatIdTnNSt6__ndk19enable_ifIXntsr16is_double_doubleIT_EE5valueEiE4typeELi0EEEvS5_NS0_12format_specsERNS1_6bufferIcEE
PUBLIC 4faa8 0 fmt::v11::detail::format_float<double>(double, int, fmt::v11::detail::float_specs, fmt::v11::detail::buffer<char>&)
PUBLIC 50448 0 fmt::v11::detail::write<char, fmt::v11::basic_appender<char> >(fmt::v11::basic_appender<char>, fmt::v11::basic_string_view<char>, fmt::v11::format_specs const&)
PUBLIC 517b4 0 fmt::v11::detail::for_each_codepoint<fmt::v11::detail::compute_width(fmt::v11::basic_string_view<char>)::count_code_points>(fmt::v11::basic_string_view<char>, fmt::v11::detail::compute_width(fmt::v11::basic_string_view<char>)::count_code_points)::{lambda(char const*, char const*)#1}::operator()(char const*, char const*) const
PUBLIC 5196c 0 fmt::v11::detail::write_int<fmt::v11::basic_appender<char>, unsigned long, char>(fmt::v11::basic_appender<char>, unsigned long, unsigned int, fmt::v11::format_specs const&, fmt::v11::detail::digit_grouping<char> const&)
PUBLIC 51ee8 0 fmt::v11::detail::write_int<fmt::v11::basic_appender<char>, unsigned __int128, char>(fmt::v11::basic_appender<char>, unsigned __int128, unsigned int, fmt::v11::format_specs const&, fmt::v11::detail::digit_grouping<char> const&)
PUBLIC 52570 0 <.plt ELF section in prevter.go-indicator.android64.so>
STACK CFI INIT 29ff0 10 .cfa: sp 0 +
STACK CFI INIT 2a000 8 .cfa: sp 0 +
STACK CFI INIT 2a008 8 .cfa: sp 0 +
STACK CFI INIT 2a010 14 .cfa: sp 0 +
STACK CFI INIT 2a024 1c .cfa: sp 0 +
STACK CFI INIT 2a040 10 .cfa: sp 0 +
STACK CFI INIT 2a050 134 .cfa: sp 0 +
STACK CFI INIT 2a184 84 .cfa: sp 0 +
STACK CFI INIT 2a208 f4 .cfa: sp 0 +
STACK CFI INIT 2a2fc a8 .cfa: sp 0 +
STACK CFI INIT 2a3a4 7c .cfa: sp 0 +
STACK CFI INIT 2a420 14 .cfa: sp 0 +
STACK CFI INIT 2a434 40 .cfa: sp 0 +
STACK CFI INIT 2a474 28 .cfa: sp 0 +
STACK CFI INIT 2a49c 190 .cfa: sp 0 +
STACK CFI INIT 2a62c 2c8 .cfa: sp 0 +
STACK CFI INIT 2a8f4 8 .cfa: sp 0 +
STACK CFI INIT 2a8fc 8 .cfa: sp 0 +
STACK CFI INIT 2a904 44 .cfa: sp 0 +
STACK CFI INIT 2a948 e8 .cfa: sp 0 +
STACK CFI INIT 2aa30 e8 .cfa: sp 0 +
STACK CFI INIT 2ab18 14 .cfa: sp 0 +
STACK CFI INIT 2ab2c 10 .cfa: sp 0 +
STACK CFI INIT 2ab3c 10 .cfa: sp 0 +
STACK CFI INIT 2ab4c f0 .cfa: sp 0 +
STACK CFI INIT 2ac3c 44 .cfa: sp 0 +
STACK CFI INIT 2ac80 c .cfa: sp 0 +
STACK CFI INIT 2ac8c c .cfa: sp 0 +
STACK CFI INIT 2ac98 2c .cfa: sp 0 +
STACK CFI INIT 2acc4 280 .cfa: sp 0 +
STACK CFI INIT 2af44 c .cfa: sp 0 +
STACK CFI INIT 2af50 120 .cfa: sp 0 +
STACK CFI INIT 2b070 488 .cfa: sp 0 +
STACK CFI INIT 2b4f8 c48 .cfa: sp 0 +
STACK CFI INIT 2c140 134 .cfa: sp 0 +
STACK CFI INIT 2c274 210 .cfa: sp 0 +
STACK CFI INIT 2c484 38c .cfa: sp 0 +
STACK CFI INIT 2c810 1c8 .cfa: sp 0 +
STACK CFI INIT 2c9d8 9bc .cfa: sp 0 +
STACK CFI INIT 2d394 2d4 .cfa: sp 0 +
STACK CFI INIT 2d668 134 .cfa: sp 0 +
STACK CFI INIT 2d79c 120 .cfa: sp 0 +
STACK CFI INIT 2d8bc 1c8 .cfa: sp 0 +
STACK CFI INIT 2da84 168 .cfa: sp 0 +
STACK CFI INIT 2dbec fc .cfa: sp 0 +
STACK CFI INIT 2dce8 30 .cfa: sp 0 +
STACK CFI INIT 2de50 30 .cfa: sp 0 +
STACK CFI INIT 2de80 98 .cfa: sp 0 +
STACK CFI INIT 2df18 59c .cfa: sp 0 +
STACK CFI INIT 2e4b4 8c .cfa: sp 0 +
STACK CFI INIT 2e540 30 .cfa: sp 0 +
STACK CFI INIT 2fbf0 a4 .cfa: sp 0 +
STACK CFI 2fbf4 .cfa: sp 48 +
STACK CFI 2fc00 .cfa: x29 48 + x19: .cfa -8 + ^ x20: .cfa -16 + ^ x21: .cfa -32 + ^ .ra: .cfa -40 + ^ x29: .cfa -48 + ^
STACK CFI 2fc20 .cfa: sp 48 +
STACK CFI 2fc2c .cfa: sp 0 +
STACK CFI 2fc30 .cfa: x29 48 +
STACK CFI 2fc74 .cfa: sp 48 +
STACK CFI 2fc80 .cfa: sp 0 +
STACK CFI 2fc84 .cfa: sp 48 +
STACK CFI 2fc90 .cfa: sp 0 +
STACK CFI INIT 2fc94 60 .cfa: sp 0 +
STACK CFI 2fca4 .cfa: sp 32 +
STACK CFI 2fcac .cfa: x29 32 + x19: .cfa -16 + ^ .ra: .cfa -24 + ^ x29: .cfa -32 + ^
STACK CFI 2fce4 .cfa: sp 32 +
STACK CFI 2fcec .cfa: sp 0 +
STACK CFI INIT 2fcf4 1c .cfa: sp 0 +
STACK CFI INIT 30190 1c .cfa: sp 0 +
STACK CFI INIT 301ac 10 .cfa: sp 0 +
STACK CFI 301b0 .cfa: sp 16 +
STACK CFI 301b4 .cfa: x29 16 + .ra: .cfa -8 + ^ x29: .cfa -16 + ^
STACK CFI INIT 301bc 18 .cfa: sp 0 +
STACK CFI INIT 301d4 14 .cfa: sp 0 +
STACK CFI 301d8 .cfa: sp 16 +
STACK CFI 301dc .cfa: x29 16 + .ra: .cfa -8 + ^ x29: .cfa -16 + ^
STACK CFI INIT 30238 30 .cfa: sp 0 +
STACK CFI 3023c .cfa: sp 32 +
STACK CFI 30244 .cfa: x29 32 + x19: .cfa -16 + ^ .ra: .cfa -24 + ^ x29: .cfa -32 + ^
STACK CFI 3025c .cfa: sp 32 +
STACK CFI 30264 .cfa: sp 0 +
STACK CFI INIT 30268 34 .cfa: sp 0 +
STACK CFI 3026c .cfa: sp 32 +
STACK CFI 30274 .cfa: x29 32 + x19: .cfa -16 + ^ .ra: .cfa -24 + ^ x29: .cfa -32 + ^
STACK CFI INIT 3029c 14 .cfa: sp 0 +
STACK CFI 302a0 .cfa: sp 16 +
STACK CFI 302a4 .cfa: x29 16 + .ra: .cfa -8 + ^ x29: .cfa -16 + ^
STACK CFI INIT 302b0 c .cfa: sp 0 +
STACK CFI 302b4 .cfa: sp 16 +
STACK CFI 302b8 .cfa: x29 16 + .ra: .cfa -8 + ^ x29: .cfa -16 + ^
STACK CFI INIT 3030c 30 .cfa: sp 0 +
STACK CFI 30310 .cfa: sp 32 +
STACK CFI 30318 .cfa: x29 32 + x19: .cfa -16 + ^ .ra: .cfa -24 + ^ x29: .cfa -32 + ^
STACK CFI 30330 .cfa: sp 32 +
STACK CFI 30338 .cfa: sp 0 +
STACK CFI INIT 3033c c .cfa: sp 0 +
STACK CFI 30340 .cfa: sp 16 +
STACK CFI 30344 .cfa: x29 16 + .ra: .cfa -8 + ^ x29: .cfa -16 + ^
STACK CFI INIT 30348 4 .cfa: sp 0 +
STACK CFI INIT 3034c 4 .cfa: sp 0 +
STACK CFI INIT 30350 38 .cfa: sp 0 +
STACK CFI 30354 .cfa: sp 32 +
STACK CFI 3035c .cfa: x29 32 + x19: .cfa -16 + ^ .ra: .cfa -24 + ^ x29: .cfa -32 + ^
STACK CFI 3037c .cfa: sp 32 +
STACK CFI 30384 .cfa: sp 0 +
STACK CFI INIT 30388 18 .cfa: sp 0 +
STACK CFI INIT 303a0 4 .cfa: sp 0 +
STACK CFI INIT 303a4 4 .cfa: sp 0 +
STACK CFI INIT 303a8 10 .cfa: sp 0 +
STACK CFI INIT 303b8 1c .cfa: sp 0 +
STACK CFI INIT 303d4 c .cfa: sp 0 +
STACK CFI INIT 307a8 34 .cfa: sp 0 +
STACK CFI 307ac .cfa: sp 16 +
STACK CFI 307b0 .cfa: x29 16 + .ra: .cfa -8 + ^ x29: .cfa -16 + ^
STACK CFI INIT 30908 80 .cfa: sp 0 +
STACK CFI 3090c .cfa: sp 48 +
STACK CFI 30918 .cfa: x29 48 + x19: .cfa -8 + ^ x20: .cfa -16 + ^ x21: .cfa -32 + ^ .ra: .cfa -40 + ^ x29: .cfa -48 + ^
STACK CFI 30978 .cfa: sp 48 +
STACK CFI 30984 .cfa: sp 0 +
STACK CFI INIT 30988 24 .cfa: sp 0 +
STACK CFI 3098c .cfa: sp 32 +
STACK CFI 30994 .cfa: x29 32 + x19: .cfa -16 + ^ .ra: .cfa -24 + ^ x29: .cfa -32 + ^
STACK CFI 309a0 .cfa: sp 32 +
STACK CFI 309a8 .cfa: sp 0 +
STACK CFI INIT 30d2c 14 .cfa: sp 0 +
STACK CFI 30d30 .cfa: sp 16 +
STACK CFI 30d34 .cfa: x29 16 + .ra: .cfa -8 + ^ x29: .cfa -16 + ^
STACK CFI INIT 30eb8 148 .cfa: sp 0 +
STACK CFI 30ebc .cfa: sp 48 +
STACK CFI 30ec8 .cfa: x29 48 + x19: .cfa -8 + ^ x20: .cfa -16 + ^ x21: .cfa -32 + ^ .ra: .cfa -40 + ^ x29: .cfa -48 + ^
STACK CFI 30ff0 .cfa: sp 48 +
STACK CFI 30ffc .cfa: sp 0 +
STACK CFI INIT 31000 80 .cfa: sp 0 +
STACK CFI 31004 .cfa: sp 48 +
STACK CFI 31010 .cfa: x29 48 + x19: .cfa -8 + ^ x20: .cfa -16 + ^ x21: .cfa -24 + ^ x22: .cfa -32 + ^ .ra: .cfa -40 + ^ x29: .cfa -48 + ^
STACK CFI 31028 .cfa: sp 48 +
STACK CFI 31034 .cfa: sp 0 +
STACK CFI 31038 .cfa: x29 48 +
STACK CFI 31068 .cfa: sp 48 +
STACK CFI 31074 .cfa: sp 0 +
STACK CFI 31078 .cfa: x29 48 +
STACK CFI INIT 31080 4 .cfa: sp 0 +
STACK CFI INIT 31084 14 .cfa: sp 0 +
STACK CFI INIT 31098 4 .cfa: sp 0 +
STACK CFI INIT 3109c 14 .cfa: sp 0 +
STACK CFI INIT 31894 144 .cfa: sp 0 +
STACK CFI 31898 .cfa: sp 48 +
STACK CFI 318a4 .cfa: x29 48 + x19: .cfa -8 + ^ x20: .cfa -16 + ^ x21: .cfa -24 + ^ x22: .cfa -32 + ^ .ra: .cfa -40 + ^ x29: .cfa -48 + ^
STACK CFI 31968 .cfa: sp 48 +
STACK CFI 31974 .cfa: sp 0 +
STACK CFI 31978 .cfa: x29 48 +
STACK CFI 319c0 .cfa: sp 48 +
STACK CFI 319cc .cfa: sp 0 +
STACK CFI 319d0 .cfa: x29 48 +
STACK CFI INIT 319d8 44 .cfa: sp 0 +
STACK CFI 319dc .cfa: sp 32 +
STACK CFI 319e4 .cfa: x29 32 + x19: .cfa -16 + ^ .ra: .cfa -24 + ^ x29: .cfa -32 + ^
STACK CFI 31a00 .cfa: sp 32 +
STACK CFI 31a08 .cfa: sp 0 +
STACK CFI 31a0c .cfa: x29 32 +
STACK CFI 31a10 .cfa: sp 32 +
STACK CFI 31a18 .cfa: sp 0 +
STACK CFI INIT 31a90 14 .cfa: sp 0 +
STACK CFI 31a94 .cfa: sp 16 +
STACK CFI 31a98 .cfa: x29 16 + .ra: .cfa -8 + ^ x29: .cfa -16 + ^
STACK CFI INIT 322d0 4 .cfa: sp 0 +
STACK CFI INIT 322d4 14 .cfa: sp 0 +
STACK CFI INIT 322e8 4 .cfa: sp 0 +
STACK CFI INIT 322ec 14 .cfa: sp 0 +
STACK CFI INIT 32300 14 .cfa: sp 0 +
STACK CFI INIT 32314 14 .cfa: sp 0 +
STACK CFI INIT 32328 4 .cfa: sp 0 +
STACK CFI INIT 3232c 14 .cfa: sp 0 +
STACK CFI INIT 32340 1a4 .cfa: sp 0 +
STACK CFI 32344 .cfa: sp 48 +
STACK CFI 32350 .cfa: x29 48 + x19: .cfa -8 + ^ x20: .cfa -16 + ^ x21: .cfa -24 + ^ x22: .cfa -32 + ^ .ra: .cfa -40 + ^ x29: .cfa -48 + ^
STACK CFI 324c8 .cfa: sp 48 +
STACK CFI 324d4 .cfa: sp 0 +
STACK CFI 324d8 .cfa: x29 48 +
STACK CFI INIT 324e4 44 .cfa: sp 0 +
STACK CFI 324e8 .cfa: sp 32 +
STACK CFI 324f0 .cfa: x29 32 + x19: .cfa -16 + ^ .ra: .cfa -24 + ^ x29: .cfa -32 + ^
STACK CFI 3250c .cfa: sp 32 +
STACK CFI 32514 .cfa: sp 0 +
STACK CFI 32518 .cfa: x29 32 +
STACK CFI 3251c .cfa: sp 32 +
STACK CFI 32524 .cfa: sp 0 +
STACK CFI INIT 32528 14 .cfa: sp 0 +
STACK CFI INIT 3253c b4 .cfa: sp 0 +
STACK CFI 32540 .cfa: sp 48 +
STACK CFI 3254c .cfa: x29 48 + x19: .cfa -8 + ^ x20: .cfa -16 + ^ x21: .cfa -24 + ^ x22: .cfa -32 + ^ .ra: .cfa -40 + ^ x29: .cfa -48 + ^
STACK CFI 32554 .cfa: sp 48 +
STACK CFI 32560 .cfa: sp 0 +
STACK CFI 32564 .cfa: x29 48 +
STACK CFI 32588 .cfa: sp 48 +
STACK CFI 32594 .cfa: sp 0 +
STACK CFI 32598 .cfa: x29 48 +
STACK CFI 325e0 .cfa: sp 48 +
STACK CFI 325ec .cfa: sp 0 +
STACK CFI INIT 3273c 64 .cfa: sp 0 +
STACK CFI 3274c .cfa: sp 32 +
STACK CFI 32754 .cfa: x29 32 + x19: .cfa -8 + ^ x20: .cfa -16 + ^ .ra: .cfa -24 + ^ x29: .cfa -32 + ^
STACK CFI 32794 .cfa: sp 32 +
STACK CFI 3279c .cfa: sp 0 +
STACK CFI INIT 327a0 a4 .cfa: sp 0 +
STACK CFI 327a4 .cfa: sp 48 +
STACK CFI 327b0 .cfa: x29 48 + x19: .cfa -8 + ^ x20: .cfa -16 + ^ x21: .cfa -32 + ^ .ra: .cfa -40 + ^ x29: .cfa -48 + ^
STACK CFI 327d0 .cfa: sp 48 +
STACK CFI 327dc .cfa: sp 0 +
STACK CFI 327e0 .cfa: x29 48 +
STACK CFI 32824 .cfa: sp 48 +
STACK CFI 32830 .cfa: sp 0 +
STACK CFI 32834 .cfa: sp 48 +
STACK CFI 32840 .cfa: sp 0 +
STACK CFI INIT 32844 14 .cfa: sp 0 +
STACK CFI INIT 32c20 68 .cfa: sp 0 +
STACK CFI 32c24 .cfa: sp 48 +
STACK CFI 32c30 .cfa: x29 48 + x19: .cfa -8 + ^ x20: .cfa -16 + ^ x21: .cfa -32 + ^ .ra: .cfa -40 + ^ x29: .cfa -48 + ^
STACK CFI 32c68 .cfa: sp 48 +
STACK CFI 32c74 .cfa: sp 0 +
STACK CFI 32c78 .cfa: sp 48 +
STACK CFI 32c84 .cfa: sp 0 +
STACK CFI INIT 32c88 14 .cfa: sp 0 +
STACK CFI 32c8c .cfa: sp 16 +
STACK CFI 32c90 .cfa: x29 16 + .ra: .cfa -8 + ^ x29: .cfa -16 + ^
STACK CFI INIT 32c9c 54 .cfa: sp 0 +
STACK CFI 32ca0 .cfa: sp 32 +
STACK CFI 32ca8 .cfa: x29 32 + x19: .cfa -8 + ^ x20: .cfa -16 + ^ .ra: .cfa -24 + ^ x29: .cfa -32 + ^
STACK CFI 32cd8 .cfa: sp 32 +
STACK CFI 32ce0 .cfa: sp 0 +
STACK CFI 32ce4 .cfa: sp 32 +
STACK CFI 32cec .cfa: sp 0 +
STACK CFI INIT 33138 14 .cfa: sp 0 +
STACK CFI 3313c .cfa: sp 16 +
STACK CFI 33140 .cfa: x29 16 + .ra: .cfa -8 + ^ x29: .cfa -16 + ^
STACK CFI INIT 337e8 50 .cfa: sp 0 +
STACK CFI 337ec .cfa: sp 32 +
STACK CFI 337f4 .cfa: x29 32 + x19: .cfa -16 + ^ .ra: .cfa -24 + ^ x29: .cfa -32 + ^
STACK CFI 3380c .cfa: sp 32 +
STACK CFI 33814 .cfa: sp 0 +
STACK CFI 33818 .cfa: x29 32 +
STACK CFI 3382c .cfa: sp 32 +
STACK CFI 33834 .cfa: sp 0 +
STACK CFI INIT 338ac 7c .cfa: sp 0 +
STACK CFI 338b0 .cfa: sp 48 +
STACK CFI 338bc .cfa: x29 48 + x19: .cfa -8 + ^ x20: .cfa -16 + ^ x21: .cfa -32 + ^ .ra: .cfa -40 + ^ x29: .cfa -48 + ^
STACK CFI 33908 .cfa: sp 48 +
STACK CFI 33914 .cfa: sp 0 +
STACK CFI 33918 .cfa: sp 48 +
STACK CFI 33924 .cfa: sp 0 +
STACK CFI INIT 33928 4 .cfa: sp 0 +
STACK CFI INIT 33ca8 68 .cfa: sp 0 +
STACK CFI 33cac .cfa: sp 32 +
STACK CFI 33cb4 .cfa: x29 32 + x19: .cfa -8 + ^ x20: .cfa -16 + ^ .ra: .cfa -24 + ^ x29: .cfa -32 + ^
STACK CFI 33ccc .cfa: sp 32 +
STACK CFI 33cd4 .cfa: sp 0 +
STACK CFI 33cd8 .cfa: x29 32 +
STACK CFI 33d04 .cfa: sp 32 +
STACK CFI 33d0c .cfa: sp 0 +
STACK CFI INIT 33d10 14 .cfa: sp 0 +
STACK CFI 33d14 .cfa: sp 16 +
STACK CFI 33d18 .cfa: x29 16 + .ra: .cfa -8 + ^ x29: .cfa -16 + ^
STACK CFI INIT 33d24 4 .cfa: sp 0 +
STACK CFI INIT 33d28 14 .cfa: sp 0 +
STACK CFI INIT 33d3c 120 .cfa: sp 0 +
STACK CFI 33d40 .cfa: sp 64 +
STACK CFI 33d50 .cfa: x29 64 + x19: .cfa -8 + ^ x20: .cfa -16 + ^ x21: .cfa -24 + ^ x22: .cfa -32 + ^ x23: .cfa -40 + ^ x24: .cfa -48 + ^ .ra: .cfa -56 + ^ x29: .cfa -64 + ^
STACK CFI 33e48 .cfa: sp 64 +
STACK CFI 33e58 .cfa: sp 0 +
STACK CFI INIT 33e5c d4 .cfa: sp 0 +
STACK CFI 33e60 .cfa: sp 48 +
STACK CFI 33e6c .cfa: x29 48 + x19: .cfa -8 + ^ x20: .cfa -16 + ^ x21: .cfa -32 + ^ .ra: .cfa -40 + ^ x29: .cfa -48 + ^
STACK CFI 33efc .cfa: sp 48 +
STACK CFI 33f08 .cfa: sp 0 +
STACK CFI 33f0c .cfa: x29 48 +
STACK CFI INIT 33f30 3c8 .cfa: sp 0 +
STACK CFI INIT 342f8 8c .cfa: sp 0 +
STACK CFI 34300 .cfa: sp 32 +
STACK CFI 34308 .cfa: x29 32 + x19: .cfa -8 + ^ x20: .cfa -16 + ^ .ra: .cfa -24 + ^ x29: .cfa -32 + ^
STACK CFI 34350 .cfa: sp 32 +
STACK CFI 34358 .cfa: sp 0 +
STACK CFI 34360 .cfa: x29 32 +
STACK CFI INIT 344b8 40 .cfa: sp 0 +
STACK CFI 344bc .cfa: sp 32 +
STACK CFI 344c4 .cfa: x29 32 + x19: .cfa -16 + ^ .ra: .cfa -24 + ^ x29: .cfa -32 + ^
STACK CFI 344dc .cfa: sp 32 +
STACK CFI 344e4 .cfa: sp 0 +
STACK CFI 344e8 .cfa: x29 32 +
STACK CFI 344ec .cfa: sp 32 +
STACK CFI 344f4 .cfa: sp 0 +
STACK CFI INIT 344f8 50 .cfa: sp 0 +
STACK CFI 344fc .cfa: sp 32 +
STACK CFI 34504 .cfa: x29 32 + x19: .cfa -16 + ^ .ra: .cfa -24 + ^ x29: .cfa -32 + ^
STACK CFI 3451c .cfa: sp 32 +
STACK CFI 34524 .cfa: sp 0 +
STACK CFI 34528 .cfa: x29 32 +
STACK CFI 3453c .cfa: sp 32 +
STACK CFI 34544 .cfa: sp 0 +
STACK CFI INIT 34548 64 .cfa: sp 0 +
STACK CFI 3454c .cfa: sp 32 +
STACK CFI 34554 .cfa: x29 32 + x19: .cfa -16 + ^ .ra: .cfa -24 + ^ x29: .cfa -32 + ^
STACK CFI 34580 .cfa: sp 32 +
STACK CFI 34588 .cfa: sp 0 +
STACK CFI 3458c .cfa: x29 32 +
STACK CFI 345a0 .cfa: sp 32 +
STACK CFI 345a8 .cfa: sp 0 +
STACK CFI INIT 345ac 178 .cfa: sp 0 +
STACK CFI 345b0 .cfa: sp 80 +
STACK CFI 345c4 .cfa: x29 80 + x19: .cfa -8 + ^ x20: .cfa -16 + ^ x21: .cfa -24 + ^ x22: .cfa -32 + ^ x23: .cfa -40 + ^ x24: .cfa -48 + ^ x25: .cfa -56 + ^ x26: .cfa -64 + ^ .ra: .cfa -72 + ^ x29: .cfa -80 + ^
STACK CFI 3470c .cfa: sp 80 +
STACK CFI 34720 .cfa: sp 0 +
STACK CFI INIT 34724 1b0 .cfa: sp 0 +
STACK CFI INIT 34c04 4 .cfa: sp 0 +
STACK CFI INIT 34e28 8c .cfa: sp 0 +
STACK CFI 34e2c .cfa: sp 32 +
STACK CFI 34e34 .cfa: x29 32 + x19: .cfa -16 + ^ .ra: .cfa -24 + ^ x29: .cfa -32 + ^
STACK CFI 34ea8 .cfa: sp 32 +
STACK CFI 34eb0 .cfa: sp 0 +
STACK CFI INIT 35370 48 .cfa: sp 0 +
STACK CFI 35374 .cfa: sp 32 +
STACK CFI 3537c .cfa: x29 32 + x19: .cfa -8 + ^ x20: .cfa -16 + ^ .ra: .cfa -24 + ^ x29: .cfa -32 + ^
STACK CFI 353ac .cfa: sp 32 +
STACK CFI 353b4 .cfa: sp 0 +
STACK CFI INIT 353b8 2c .cfa: sp 0 +
STACK CFI 353dc .cfa: sp 16 +
STACK CFI 353e0 .cfa: x29 16 + .ra: .cfa -8 + ^ x29: .cfa -16 + ^
STACK CFI INIT 353e4 2c .cfa: sp 0 +
STACK CFI 35408 .cfa: sp 16 +
STACK CFI 3540c .cfa: x29 16 + .ra: .cfa -8 + ^ x29: .cfa -16 + ^
STACK CFI INIT 35560 8 .cfa: sp 0 +
STACK CFI INIT 35568 90 .cfa: sp 0 +
STACK CFI 3556c .cfa: sp 32 +
STACK CFI 35574 .cfa: x29 32 + x19: .cfa -16 + ^ .ra: .cfa -24 + ^ x29: .cfa -32 + ^
STACK CFI 355ec .cfa: sp 32 +
STACK CFI 355f4 .cfa: sp 0 +
STACK CFI INIT 355f8 98 .cfa: sp 0 +
STACK CFI 355fc .cfa: sp 32 +
STACK CFI 35604 .cfa: x29 32 + x19: .cfa -16 + ^ .ra: .cfa -24 + ^ x29: .cfa -32 + ^
STACK CFI 35684 .cfa: sp 32 +
STACK CFI 3568c .cfa: sp 0 +
STACK CFI INIT 35690 4 .cfa: sp 0 +
STACK CFI INIT 35694 8 .cfa: sp 0 +
STACK CFI INIT 3569c 4 .cfa: sp 0 +
STACK CFI INIT 356a0 8 .cfa: sp 0 +
STACK CFI INIT 356a8 34 .cfa: sp 0 +
STACK CFI 356ac .cfa: sp 16 +
STACK CFI 356b0 .cfa: x29 16 + .ra: .cfa -8 + ^ x29: .cfa -16 + ^
STACK CFI INIT 356dc 24 .cfa: sp 0 +
STACK CFI 356e0 .cfa: sp 32 +
STACK CFI 356e8 .cfa: x29 32 + x19: .cfa -16 + ^ .ra: .cfa -24 + ^ x29: .cfa -32 + ^
STACK CFI 356f4 .cfa: sp 32 +
STACK CFI 356fc .cfa: sp 0 +
STACK CFI INIT 35f1c 84 .cfa: sp 0 +
STACK CFI 35f20 .cfa: sp 32 +
STACK CFI 35f28 .cfa: x29 32 + x19: .cfa -16 + ^ .ra: .cfa -24 + ^ x29: .cfa -32 + ^
STACK CFI 35f94 .cfa: sp 32 +
STACK CFI 35f9c .cfa: sp 0 +
STACK CFI INIT 35fa0 8c .cfa: sp 0 +
STACK CFI 35fa4 .cfa: sp 32 +
STACK CFI 35fac .cfa: x29 32 + x19: .cfa -16 + ^ .ra: .cfa -24 + ^ x29: .cfa -32 + ^
STACK CFI 36020 .cfa: sp 32 +
STACK CFI 36028 .cfa: sp 0 +
STACK CFI INIT 3602c 4 .cfa: sp 0 +
STACK CFI INIT 36030 8 .cfa: sp 0 +
STACK CFI INIT 36038 8 .cfa: sp 0 +
STACK CFI INIT 36040 8 .cfa: sp 0 +
STACK CFI INIT 36048 88 .cfa: sp 0 +
STACK CFI 3604c .cfa: sp 32 +
STACK CFI 36054 .cfa: x29 32 + x19: .cfa -16 + ^ .ra: .cfa -24 + ^ x29: .cfa -32 + ^
STACK CFI 360c4 .cfa: sp 32 +
STACK CFI 360cc .cfa: sp 0 +
STACK CFI INIT 360d0 90 .cfa: sp 0 +
STACK CFI 360d4 .cfa: sp 32 +
STACK CFI 360dc .cfa: x29 32 + x19: .cfa -16 + ^ .ra: .cfa -24 + ^ x29: .cfa -32 + ^
STACK CFI 36154 .cfa: sp 32 +
STACK CFI 3615c .cfa: sp 0 +
STACK CFI INIT 36160 4 .cfa: sp 0 +
STACK CFI INIT 36164 4 .cfa: sp 0 +
STACK CFI INIT 36168 4 .cfa: sp 0 +
STACK CFI INIT 3616c 4 .cfa: sp 0 +
STACK CFI INIT 36170 4 .cfa: sp 0 +
STACK CFI INIT 36174 8 .cfa: sp 0 +
STACK CFI INIT 3617c 4 .cfa: sp 0 +
STACK CFI INIT 36180 4 .cfa: sp 0 +
STACK CFI INIT 36184 34 .cfa: sp 0 +
STACK CFI 36188 .cfa: sp 32 +
STACK CFI 36190 .cfa: x29 32 + x19: .cfa -16 + ^ .ra: .cfa -24 + ^ x29: .cfa -32 + ^
STACK CFI 361ac .cfa: sp 32 +
STACK CFI 361b4 .cfa: sp 0 +
STACK CFI INIT 361b8 14 .cfa: sp 0 +
STACK CFI INIT 361cc 4 .cfa: sp 0 +
STACK CFI INIT 361d0 4 .cfa: sp 0 +
STACK CFI INIT 363e0 1c .cfa: sp 0 +
STACK CFI INIT 363fc c .cfa: sp 0 +
STACK CFI INIT 37b38 2c .cfa: sp 0 +
STACK CFI 37b3c .cfa: sp 32 +
STACK CFI 37b44 .cfa: x29 32 + x19: .cfa -16 + ^ .ra: .cfa -24 + ^ x29: .cfa -32 + ^
STACK CFI 37b58 .cfa: sp 32 +
STACK CFI 37b60 .cfa: sp 0 +
STACK CFI INIT 37b64 28 .cfa: sp 0 +
STACK CFI INIT 37b8c 4 .cfa: sp 0 +
STACK CFI INIT 37b90 8 .cfa: sp 0 +
STACK CFI INIT 37dc0 2c .cfa: sp 0 +
STACK CFI INIT 37dec 4 .cfa: sp 0 +
STACK CFI INIT 37df0 8 .cfa: sp 0 +
STACK CFI INIT 37df8 4 .cfa: sp 0 +
STACK CFI INIT 37e68 4 .cfa: sp 0 +
STACK CFI INIT 381c8 70 .cfa: sp 0 +
STACK CFI 381cc .cfa: sp 48 +
STACK CFI 381d8 .cfa: x29 32 + x19: .cfa -16 + ^ .ra: .cfa -24 + ^ x29: .cfa -32 + ^
STACK CFI 38210 .cfa: sp 48 +
STACK CFI 3821c .cfa: sp 0 +
STACK CFI 38220 .cfa: x29 32 +
STACK CFI INIT 38238 5c .cfa: sp 0 +
STACK CFI 3823c .cfa: sp 32 +
STACK CFI 38244 .cfa: x29 32 + x19: .cfa -16 + ^ .ra: .cfa -24 + ^ x29: .cfa -32 + ^
STACK CFI 38288 .cfa: sp 32 +
STACK CFI 38290 .cfa: sp 0 +
STACK CFI INIT 38294 64 .cfa: sp 0 +
STACK CFI 38298 .cfa: sp 32 +
STACK CFI 382a0 .cfa: x29 32 + x19: .cfa -16 + ^ .ra: .cfa -24 + ^ x29: .cfa -32 + ^
STACK CFI 382ec .cfa: sp 32 +
STACK CFI 382f4 .cfa: sp 0 +
STACK CFI INIT 382f8 4 .cfa: sp 0 +
STACK CFI INIT 382fc ac .cfa: sp 0 +
STACK CFI 38300 .cfa: sp 64 +
STACK CFI 38310 .cfa: x29 64 + x19: .cfa -8 + ^ x20: .cfa -16 + ^ x21: .cfa -24 + ^ x22: .cfa -32 + ^ x23: .cfa -48 + ^ .ra: .cfa -56 + ^ x29: .cfa -64 + ^
STACK CFI 3838c .cfa: sp 64 +
STACK CFI 3839c .cfa: sp 0 +
STACK CFI 383a0 .cfa: x29 64 +
STACK CFI INIT 383a8 110 .cfa: sp 0 +
STACK CFI 383ac .cfa: sp 64 +
STACK CFI 383bc .cfa: x29 64 + x19: .cfa -8 + ^ x20: .cfa -16 + ^ x21: .cfa -24 + ^ x22: .cfa -32 + ^ x23: .cfa -40 + ^ x24: .cfa -48 + ^ .ra: .cfa -56 + ^ x29: .cfa -64 + ^
STACK CFI 3849c .cfa: sp 64 +
STACK CFI 384ac .cfa: sp 0 +
STACK CFI 384b0 .cfa: x29 64 +
STACK CFI INIT 384b8 98 .cfa: sp 0 +
STACK CFI 384bc .cfa: sp 32 +
STACK CFI 384c4 .cfa: x29 32 + x19: .cfa -16 + ^ .ra: .cfa -24 + ^ x29: .cfa -32 + ^
STACK CFI 38544 .cfa: sp 32 +
STACK CFI 3854c .cfa: sp 0 +
STACK CFI INIT 38550 a0 .cfa: sp 0 +
STACK CFI 38554 .cfa: sp 32 +
STACK CFI 3855c .cfa: x29 32 + x19: .cfa -16 + ^ .ra: .cfa -24 + ^ x29: .cfa -32 + ^
STACK CFI 385e4 .cfa: sp 32 +
STACK CFI 385ec .cfa: sp 0 +
STACK CFI INIT 385f0 4 .cfa: sp 0 +
STACK CFI INIT 385f4 34 .cfa: sp 0 +
STACK CFI 385f8 .cfa: sp 32 +
STACK CFI 38600 .cfa: x29 32 + x19: .cfa -16 + ^ .ra: .cfa -24 + ^ x29: .cfa -32 + ^
STACK CFI 3861c .cfa: sp 32 +
STACK CFI 38624 .cfa: sp 0 +
STACK CFI INIT 38628 14 .cfa: sp 0 +
STACK CFI INIT 3863c 4 .cfa: sp 0 +
STACK CFI INIT 38640 4 .cfa: sp 0 +
STACK CFI INIT 38644 38 .cfa: sp 0 +
STACK CFI INIT 3867c 1c .cfa: sp 0 +
STACK CFI INIT 38698 c .cfa: sp 0 +
STACK CFI INIT 386a4 4 .cfa: sp 0 +
STACK CFI INIT 386a8 4 .cfa: sp 0 +
STACK CFI INIT 386ac 34 .cfa: sp 0 +
STACK CFI 386b0 .cfa: sp 32 +
STACK CFI 386b8 .cfa: x29 32 + x19: .cfa -16 + ^ .ra: .cfa -24 + ^ x29: .cfa -32 + ^
STACK CFI 386d4 .cfa: sp 32 +
STACK CFI 386dc .cfa: sp 0 +
STACK CFI INIT 386e0 14 .cfa: sp 0 +
STACK CFI INIT 386f4 4 .cfa: sp 0 +
STACK CFI INIT 386f8 4 .cfa: sp 0 +
STACK CFI INIT 386fc 38 .cfa: sp 0 +
STACK CFI INIT 38734 1c .cfa: sp 0 +
STACK CFI INIT 38750 c .cfa: sp 0 +
STACK CFI INIT 3875c 60 .cfa: sp 0 +
STACK CFI 38760 .cfa: sp 32 +
STACK CFI 38768 .cfa: x29 32 + x19: .cfa -8 + ^ x20: .cfa -16 + ^ .ra: .cfa -24 + ^ x29: .cfa -32 + ^
STACK CFI 38788 .cfa: sp 32 +
STACK CFI 38790 .cfa: sp 0 +
STACK CFI 38794 .cfa: x29 32 +
STACK CFI 387b0 .cfa: sp 32 +
STACK CFI 387b8 .cfa: sp 0 +
STACK CFI INIT 387bc 70 .cfa: sp 0 +
STACK CFI 387c0 .cfa: sp 32 +
STACK CFI 387c8 .cfa: x29 32 + x19: .cfa -8 + ^ x20: .cfa -16 + ^ .ra: .cfa -24 + ^ x29: .cfa -32 + ^
STACK CFI 387f0 .cfa: sp 32 +
STACK CFI 387f8 .cfa: sp 0 +
STACK CFI 387fc .cfa: x29 32 +
STACK CFI 38820 .cfa: sp 32 +
STACK CFI 38828 .cfa: sp 0 +
STACK CFI INIT 3882c 10 .cfa: sp 0 +
STACK CFI INIT 3883c 30 .cfa: sp 0 +
STACK CFI 38840 .cfa: sp 32 +
STACK CFI 38848 .cfa: x29 32 + x19: .cfa -16 + ^ .ra: .cfa -24 + ^ x29: .cfa -32 + ^
STACK CFI 38860 .cfa: sp 32 +
STACK CFI 38868 .cfa: sp 0 +
STACK CFI INIT 3886c 4 .cfa: sp 0 +
STACK CFI INIT 38870 4 .cfa: sp 0 +
STACK CFI INIT 38874 4c .cfa: sp 0 +
STACK CFI INIT 388c0 5c .cfa: sp 0 +
STACK CFI 388c4 .cfa: sp 32 +
STACK CFI 388cc .cfa: x29 32 + x19: .cfa -16 + ^ .ra: .cfa -24 + ^ x29: .cfa -32 + ^
STACK CFI 38910 .cfa: sp 32 +
STACK CFI 38918 .cfa: sp 0 +
STACK CFI INIT 389b8 88 .cfa: sp 0 +
STACK CFI 389bc .cfa: sp 32 +
STACK CFI 389c4 .cfa: x29 32 + x19: .cfa -16 + ^ .ra: .cfa -24 + ^ x29: .cfa -32 + ^
STACK CFI 38a04 .cfa: sp 32 +
STACK CFI 38a0c .cfa: sp 0 +
STACK CFI 38a10 .cfa: x29 32 +
STACK CFI 38a14 .cfa: sp 32 +
STACK CFI 38a1c .cfa: sp 0 +
STACK CFI 38a20 .cfa: x29 32 +
STACK CFI 38a34 .cfa: sp 32 +
STACK CFI 38a3c .cfa: sp 0 +
STACK CFI INIT 38a40 40 .cfa: sp 0 +
STACK CFI INIT 38a80 50 .cfa: sp 0 +
STACK CFI 38a84 .cfa: sp 32 +
STACK CFI 38a8c .cfa: x29 32 + x19: .cfa -16 + ^ .ra: .cfa -24 + ^ x29: .cfa -32 + ^
STACK CFI 38ac4 .cfa: sp 32 +
STACK CFI 38acc .cfa: sp 0 +
STACK CFI INIT 38c3c 1c .cfa: sp 0 +
STACK CFI INIT 38c58 c .cfa: sp 0 +
STACK CFI INIT 38c64 fc .cfa: sp 0 +
STACK CFI 38c68 .cfa: sp 64 +
STACK CFI 38c78 .cfa: x29 64 + x19: .cfa -8 + ^ x20: .cfa -16 + ^ x21: .cfa -24 + ^ x22: .cfa -32 + ^ x23: .cfa -48 + ^ .ra: .cfa -56 + ^ x29: .cfa -64 + ^
STACK CFI 38cdc .cfa: sp 64 +
STACK CFI 38cec .cfa: sp 0 +
STACK CFI 38cf0 .cfa: x29 64 +
STACK CFI 38d0c .cfa: sp 64 +
STACK CFI 38d1c .cfa: sp 0 +
STACK CFI 38d20 .cfa: x29 64 +
STACK CFI 38d4c .cfa: sp 64 +
STACK CFI 38d5c .cfa: sp 0 +
STACK CFI INIT 38d60 4 .cfa: sp 0 +
STACK CFI INIT 38d64 34 .cfa: sp 0 +
STACK CFI 38d68 .cfa: sp 32 +
STACK CFI 38d70 .cfa: x29 32 + x19: .cfa -16 + ^ .ra: .cfa -24 + ^ x29: .cfa -32 + ^
STACK CFI 38d8c .cfa: sp 32 +
STACK CFI 38d94 .cfa: sp 0 +
STACK CFI INIT 38d98 14 .cfa: sp 0 +
STACK CFI INIT 38dac 4 .cfa: sp 0 +
STACK CFI INIT 38db0 4 .cfa: sp 0 +
STACK CFI INIT 38db4 1b8 .cfa: sp 0 +
STACK CFI 38db8 .cfa: sp 96 +
STACK CFI 38dcc .cfa: x29 64 + x19: .cfa -8 + ^ x20: .cfa -16 + ^ x21: .cfa -24 + ^ x22: .cfa -32 + ^ x23: .cfa -48 + ^ .ra: .cfa -56 + ^ x29: .cfa -64 + ^
STACK CFI 38f3c .cfa: sp 96 +
STACK CFI 38f50 .cfa: sp 0 +
STACK CFI 38f54 .cfa: x29 64 +
STACK CFI INIT 38f6c 1c .cfa: sp 0 +
STACK CFI INIT 38f88 c .cfa: sp 0 +
STACK CFI INIT 38f94 1a8 .cfa: sp 0 +
STACK CFI 38f98 .cfa: sp 80 +
STACK CFI 38fac .cfa: x29 48 + x19: .cfa -8 + ^ x20: .cfa -16 + ^ x21: .cfa -24 + ^ x22: .cfa -32 + ^ .ra: .cfa -40 + ^ x29: .cfa -48 + ^ v8: .cfa -64 + ^
STACK CFI 39120 .cfa: sp 80 +
STACK CFI 39134 .cfa: sp 0 +
STACK CFI 39138 .cfa: x29 48 +
STACK CFI INIT 3913c 24 .cfa: sp 0 +
STACK CFI 39140 .cfa: sp 32 +
STACK CFI 39148 .cfa: x29 32 + x19: .cfa -16 + ^ .ra: .cfa -24 + ^ x29: .cfa -32 + ^
STACK CFI 39154 .cfa: sp 32 +
STACK CFI 3915c .cfa: sp 0 +
STACK CFI INIT 3b718 24 .cfa: sp 0 +
STACK CFI 3b71c .cfa: sp 32 +
STACK CFI 3b724 .cfa: x29 32 + x19: .cfa -16 + ^ .ra: .cfa -24 + ^ x29: .cfa -32 + ^
STACK CFI 3b730 .cfa: sp 32 +
STACK CFI 3b738 .cfa: sp 0 +
STACK CFI INIT 3b73c 2c .cfa: sp 0 +
STACK CFI 3b740 .cfa: sp 32 +
STACK CFI 3b748 .cfa: x29 32 + x19: .cfa -16 + ^ .ra: .cfa -24 + ^ x29: .cfa -32 + ^
STACK CFI 3b75c .cfa: sp 32 +
STACK CFI 3b764 .cfa: sp 0 +
STACK CFI INIT 3b768 28 .cfa: sp 0 +
STACK CFI INIT 3b8d8 8 .cfa: sp 0 +
STACK CFI INIT 3b8e0 28 .cfa: sp 0 +
STACK CFI 3b8e4 .cfa: sp 32 +
STACK CFI 3b8ec .cfa: x29 32 + x19: .cfa -16 + ^ .ra: .cfa -24 + ^ x29: .cfa -32 + ^
STACK CFI 3b8fc .cfa: sp 32 +
STACK CFI 3b904 .cfa: sp 0 +
STACK CFI INIT 3b908 2c .cfa: sp 0 +
STACK CFI INIT 3b934 70 .cfa: sp 0 +
STACK CFI 3b938 .cfa: sp 48 +
STACK CFI 3b944 .cfa: x29 32 + x19: .cfa -16 + ^ .ra: .cfa -24 + ^ x29: .cfa -32 + ^
STACK CFI 3b97c .cfa: sp 48 +
STACK CFI 3b988 .cfa: sp 0 +
STACK CFI 3b98c .cfa: x29 32 +
STACK CFI INIT 3b9a4 5c .cfa: sp 0 +
STACK CFI 3b9a8 .cfa: sp 32 +
STACK CFI 3b9b0 .cfa: x29 32 + x19: .cfa -16 + ^ .ra: .cfa -24 + ^ x29: .cfa -32 + ^
STACK CFI 3b9f4 .cfa: sp 32 +
STACK CFI 3b9fc .cfa: sp 0 +
STACK CFI INIT 3ba00 64 .cfa: sp 0 +
STACK CFI 3ba04 .cfa: sp 32 +
STACK CFI 3ba0c .cfa: x29 32 + x19: .cfa -16 + ^ .ra: .cfa -24 + ^ x29: .cfa -32 + ^
STACK CFI 3ba58 .cfa: sp 32 +
STACK CFI 3ba60 .cfa: sp 0 +
STACK CFI INIT 3bad0 4 .cfa: sp 0 +
STACK CFI INIT 3bb40 4 .cfa: sp 0 +
STACK CFI INIT 3bb44 4 .cfa: sp 0 +
STACK CFI INIT 3bb48 34 .cfa: sp 0 +
STACK CFI 3bb4c .cfa: sp 32 +
STACK CFI 3bb54 .cfa: x29 32 + x19: .cfa -16 + ^ .ra: .cfa -24 + ^ x29: .cfa -32 + ^
STACK CFI 3bb70 .cfa: sp 32 +
STACK CFI 3bb78 .cfa: sp 0 +
STACK CFI INIT 3bb7c 14 .cfa: sp 0 +
STACK CFI INIT 3bb90 4 .cfa: sp 0 +
STACK CFI INIT 3bb94 4 .cfa: sp 0 +
STACK CFI INIT 3bef0 1c .cfa: sp 0 +
STACK CFI INIT 3bf0c c .cfa: sp 0 +
STACK CFI INIT 3bf18 4 .cfa: sp 0 +
STACK CFI INIT 3bf1c 34 .cfa: sp 0 +
STACK CFI 3bf20 .cfa: sp 32 +
STACK CFI 3bf28 .cfa: x29 32 + x19: .cfa -16 + ^ .ra: .cfa -24 + ^ x29: .cfa -32 + ^
STACK CFI 3bf44 .cfa: sp 32 +
STACK CFI 3bf4c .cfa: sp 0 +
STACK CFI INIT 3bf50 14 .cfa: sp 0 +
STACK CFI INIT 3bf64 4 .cfa: sp 0 +
STACK CFI INIT 3bf68 4 .cfa: sp 0 +
STACK CFI INIT 3c284 1c .cfa: sp 0 +
STACK CFI INIT 3c2a0 c .cfa: sp 0 +
STACK CFI INIT 3c2ac 4 .cfa: sp 0 +
STACK CFI INIT 3c2b0 34 .cfa: sp 0 +
STACK CFI 3c2b4 .cfa: sp 32 +
STACK CFI 3c2bc .cfa: x29 32 + x19: .cfa -16 + ^ .ra: .cfa -24 + ^ x29: .cfa -32 + ^
STACK CFI 3c2d8 .cfa: sp 32 +
STACK CFI 3c2e0 .cfa: sp 0 +
STACK CFI INIT 3c2e4 14 .cfa: sp 0 +
STACK CFI INIT 3c2f8 4 .cfa: sp 0 +
STACK CFI INIT 3c2fc 4 .cfa: sp 0 +
STACK CFI INIT 3c770 1c .cfa: sp 0 +
STACK CFI INIT 3c78c c .cfa: sp 0 +
STACK CFI INIT 3c798 4 .cfa: sp 0 +
STACK CFI INIT 3c79c 38 .cfa: sp 0 +
STACK CFI 3c7a0 .cfa: sp 32 +
STACK CFI 3c7a8 .cfa: x29 32 + x19: .cfa -16 + ^ .ra: .cfa -24 + ^ x29: .cfa -32 + ^
STACK CFI 3c7c8 .cfa: sp 32 +
STACK CFI 3c7d0 .cfa: sp 0 +
STACK CFI INIT 3c7d4 18 .cfa: sp 0 +
STACK CFI INIT 3c7ec 4 .cfa: sp 0 +
STACK CFI INIT 3c7f0 4 .cfa: sp 0 +
STACK CFI INIT 3c7f4 130 .cfa: sp 0 +
STACK CFI 3c7f8 .cfa: sp 80 +
STACK CFI 3c80c .cfa: x29 80 + x19: .cfa -8 + ^ x20: .cfa -16 + ^ x21: .cfa -24 + ^ x22: .cfa -32 + ^ x23: .cfa -40 + ^ x24: .cfa -48 + ^ x25: .cfa -64 + ^ .ra: .cfa -72 + ^ x29: .cfa -80 + ^
STACK CFI 3c90c .cfa: sp 80 +
STACK CFI 3c920 .cfa: sp 0 +
STACK CFI INIT 3c924 1c .cfa: sp 0 +
STACK CFI INIT 3c940 c .cfa: sp 0 +
STACK CFI INIT 3c94c 4 .cfa: sp 0 +
STACK CFI INIT 3c950 4 .cfa: sp 0 +
STACK CFI INIT 3c954 38 .cfa: sp 0 +
STACK CFI 3c958 .cfa: sp 32 +
STACK CFI 3c960 .cfa: x29 32 + x19: .cfa -16 + ^ .ra: .cfa -24 + ^ x29: .cfa -32 + ^
STACK CFI 3c980 .cfa: sp 32 +
STACK CFI 3c988 .cfa: sp 0 +
STACK CFI INIT 3c98c 18 .cfa: sp 0 +
STACK CFI INIT 3c9a4 4 .cfa: sp 0 +
STACK CFI INIT 3c9a8 4 .cfa: sp 0 +
STACK CFI INIT 3c9ac 1c .cfa: sp 0 +
STACK CFI INIT 3c9c8 1c .cfa: sp 0 +
STACK CFI INIT 3c9e4 c .cfa: sp 0 +
STACK CFI INIT 3c9f0 4 .cfa: sp 0 +
STACK CFI INIT 3c9f4 4 .cfa: sp 0 +
STACK CFI INIT 3c9f8 38 .cfa: sp 0 +
STACK CFI 3c9fc .cfa: sp 32 +
STACK CFI 3ca04 .cfa: x29 32 + x19: .cfa -16 + ^ .ra: .cfa -24 + ^ x29: .cfa -32 + ^
STACK CFI 3ca24 .cfa: sp 32 +
STACK CFI 3ca2c .cfa: sp 0 +
STACK CFI INIT 3ca30 18 .cfa: sp 0 +
STACK CFI INIT 3ca48 4 .cfa: sp 0 +
STACK CFI INIT 3ca4c 4 .cfa: sp 0 +
STACK CFI INIT 3ca50 20 .cfa: sp 0 +
STACK CFI INIT 3ca70 1c .cfa: sp 0 +
STACK CFI INIT 3ca8c c .cfa: sp 0 +
STACK CFI INIT 3ca98 4 .cfa: sp 0 +
STACK CFI INIT 3ca9c 38 .cfa: sp 0 +
STACK CFI 3caa0 .cfa: sp 32 +
STACK CFI 3caa8 .cfa: x29 32 + x19: .cfa -16 + ^ .ra: .cfa -24 + ^ x29: .cfa -32 + ^
STACK CFI 3cac8 .cfa: sp 32 +
STACK CFI 3cad0 .cfa: sp 0 +
STACK CFI INIT 3cad4 18 .cfa: sp 0 +
STACK CFI INIT 3caec 4 .cfa: sp 0 +
STACK CFI INIT 3caf0 4 .cfa: sp 0 +
STACK CFI INIT 3cc3c 1c .cfa: sp 0 +
STACK CFI INIT 3cc58 c .cfa: sp 0 +
STACK CFI INIT 3cc64 4 .cfa: sp 0 +
STACK CFI INIT 3cc68 38 .cfa: sp 0 +
STACK CFI 3cc6c .cfa: sp 32 +
STACK CFI 3cc74 .cfa: x29 32 + x19: .cfa -16 + ^ .ra: .cfa -24 + ^ x29: .cfa -32 + ^
STACK CFI 3cc94 .cfa: sp 32 +
STACK CFI 3cc9c .cfa: sp 0 +
STACK CFI INIT 3cca0 18 .cfa: sp 0 +
STACK CFI INIT 3ccb8 4 .cfa: sp 0 +
STACK CFI INIT 3ccbc 4 .cfa: sp 0 +
STACK CFI INIT 3cddc 1c .cfa: sp 0 +
STACK CFI INIT 3cdf8 c .cfa: sp 0 +
STACK CFI INIT 3ce04 4 .cfa: sp 0 +
STACK CFI INIT 3ce08 4 .cfa: sp 0 +
STACK CFI INIT 3ce0c 38 .cfa: sp 0 +
STACK CFI 3ce10 .cfa: sp 32 +
STACK CFI 3ce18 .cfa: x29 32 + x19: .cfa -16 + ^ .ra: .cfa -24 + ^ x29: .cfa -32 + ^
STACK CFI 3ce38 .cfa: sp 32 +
STACK CFI 3ce40 .cfa: sp 0 +
STACK CFI INIT 3ce44 18 .cfa: sp 0 +
STACK CFI INIT 3ce5c 4 .cfa: sp 0 +
STACK CFI INIT 3ce60 4 .cfa: sp 0 +
STACK CFI INIT 3ce64 1c .cfa: sp 0 +
STACK CFI INIT 3ce80 1c .cfa: sp 0 +
STACK CFI INIT 3ce9c c .cfa: sp 0 +
STACK CFI INIT 3cea8 314 .cfa: sp 0 +
STACK CFI 3ceac .cfa: sp 128 +
STACK CFI 3cec4 .cfa: x29 64 + x19: .cfa -8 + ^ x20: .cfa -16 + ^ x21: .cfa -24 + ^ x22: .cfa -32 + ^ x23: .cfa -40 + ^ x24: .cfa -48 + ^ .ra: .cfa -56 + ^ x29: .cfa -64 + ^ v8: .cfa -72 + ^ v9: .cfa -80 + ^
STACK CFI 3d100 .cfa: sp 128 +
STACK CFI 3d118 .cfa: sp 0 +
STACK CFI 3d11c .cfa: x29 64 +
STACK CFI INIT 3d1bc 60 .cfa: sp 0 +
STACK CFI 3d1c0 .cfa: sp 32 +
STACK CFI 3d1c8 .cfa: x29 32 + x19: .cfa -8 + ^ x20: .cfa -16 + ^ .ra: .cfa -24 + ^ x29: .cfa -32 + ^
STACK CFI 3d1e8 .cfa: sp 32 +
STACK CFI 3d1f0 .cfa: sp 0 +
STACK CFI 3d1f4 .cfa: x29 32 +
STACK CFI 3d210 .cfa: sp 32 +
STACK CFI 3d218 .cfa: sp 0 +
STACK CFI INIT 3d21c 70 .cfa: sp 0 +
STACK CFI 3d220 .cfa: sp 32 +
STACK CFI 3d228 .cfa: x29 32 + x19: .cfa -8 + ^ x20: .cfa -16 + ^ .ra: .cfa -24 + ^ x29: .cfa -32 + ^
STACK CFI 3d250 .cfa: sp 32 +
STACK CFI 3d258 .cfa: sp 0 +
STACK CFI 3d25c .cfa: x29 32 +
STACK CFI 3d280 .cfa: sp 32 +
STACK CFI 3d288 .cfa: sp 0 +
STACK CFI INIT 3d28c 10 .cfa: sp 0 +
STACK CFI INIT 3d29c 30 .cfa: sp 0 +
STACK CFI 3d2a0 .cfa: sp 32 +
STACK CFI 3d2a8 .cfa: x29 32 + x19: .cfa -16 + ^ .ra: .cfa -24 + ^ x29: .cfa -32 + ^
STACK CFI 3d2c0 .cfa: sp 32 +
STACK CFI 3d2c8 .cfa: sp 0 +
STACK CFI INIT 3d2cc 4 .cfa: sp 0 +
STACK CFI INIT 3d2d0 4 .cfa: sp 0 +
STACK CFI INIT 3d2d4 3c .cfa: sp 0 +
STACK CFI 3d2d8 .cfa: sp 32 +
STACK CFI 3d2e0 .cfa: x29 32 + x19: .cfa -16 + ^ .ra: .cfa -24 + ^ x29: .cfa -32 + ^
STACK CFI 3d2ec .cfa: sp 32 +
STACK CFI 3d2f4 .cfa: sp 0 +
STACK CFI 3d2f8 .cfa: x29 32 +
STACK CFI 3d304 .cfa: sp 32 +
STACK CFI 3d30c .cfa: sp 0 +
STACK CFI INIT 3d62c 64 .cfa: sp 0 +
STACK CFI 3d630 .cfa: sp 32 +
STACK CFI 3d638 .cfa: x29 32 + x19: .cfa -16 + ^ .ra: .cfa -24 + ^ x29: .cfa -32 + ^
STACK CFI 3d664 .cfa: sp 32 +
STACK CFI 3d66c .cfa: sp 0 +
STACK CFI 3d670 .cfa: x29 32 +
STACK CFI 3d684 .cfa: sp 32 +
STACK CFI 3d68c .cfa: sp 0 +
STACK CFI INIT 3db18 24 .cfa: sp 0 +
STACK CFI 3db1c .cfa: sp 32 +
STACK CFI 3db24 .cfa: x29 32 + x19: .cfa -16 + ^ .ra: .cfa -24 + ^ x29: .cfa -32 + ^
STACK CFI 3db30 .cfa: sp 32 +
STACK CFI 3db38 .cfa: sp 0 +
STACK CFI INIT 3dcd4 8 .cfa: sp 0 +
STACK CFI INIT 3dcdc 24 .cfa: sp 0 +
STACK CFI 3dce0 .cfa: sp 32 +
STACK CFI 3dce8 .cfa: x29 32 + x19: .cfa -16 + ^ .ra: .cfa -24 + ^ x29: .cfa -32 + ^
STACK CFI 3dcf4 .cfa: sp 32 +
STACK CFI 3dcfc .cfa: sp 0 +
STACK CFI INIT 3dd00 28 .cfa: sp 0 +
STACK CFI 3dd04 .cfa: sp 32 +
STACK CFI 3dd0c .cfa: x29 32 + x19: .cfa -16 + ^ .ra: .cfa -24 + ^ x29: .cfa -32 + ^
STACK CFI 3dd1c .cfa: sp 32 +
STACK CFI 3dd24 .cfa: sp 0 +
STACK CFI INIT 3dd28 24 .cfa: sp 0 +
STACK CFI 3dd2c .cfa: sp 32 +
STACK CFI 3dd34 .cfa: x29 32 + x19: .cfa -16 + ^ .ra: .cfa -24 + ^ x29: .cfa -32 + ^
STACK CFI 3dd40 .cfa: sp 32 +
STACK CFI 3dd48 .cfa: sp 0 +
STACK CFI INIT 3e2d8 8 .cfa: sp 0 +
STACK CFI INIT 3e2e0 24 .cfa: sp 0 +
STACK CFI 3e2e4 .cfa: sp 32 +
STACK CFI 3e2ec .cfa: x29 32 + x19: .cfa -16 + ^ .ra: .cfa -24 + ^ x29: .cfa -32 + ^
STACK CFI 3e2f8 .cfa: sp 32 +
STACK CFI 3e300 .cfa: sp 0 +
STACK CFI INIT 3e304 28 .cfa: sp 0 +
STACK CFI 3e308 .cfa: sp 32 +
STACK CFI 3e310 .cfa: x29 32 + x19: .cfa -16 + ^ .ra: .cfa -24 + ^ x29: .cfa -32 + ^
STACK CFI 3e320 .cfa: sp 32 +
STACK CFI 3e328 .cfa: sp 0 +
STACK CFI INIT 3e32c 8 .cfa: sp 0 +
STACK CFI INIT 3e334 24 .cfa: sp 0 +
STACK CFI 3e338 .cfa: sp 32 +
STACK CFI 3e340 .cfa: x29 32 + x19: .cfa -16 + ^ .ra: .cfa -24 + ^ x29: .cfa -32 + ^
STACK CFI 3e34c .cfa: sp 32 +
STACK CFI 3e354 .cfa: sp 0 +
STACK CFI INIT 3e358 28 .cfa: sp 0 +
STACK CFI 3e35c .cfa: sp 32 +
STACK CFI 3e364 .cfa: x29 32 + x19: .cfa -16 + ^ .ra: .cfa -24 + ^ x29: .cfa -32 + ^
STACK CFI 3e374 .cfa: sp 32 +
STACK CFI 3e37c .cfa: sp 0 +
STACK CFI INIT 3e380 24 .cfa: sp 0 +
STACK CFI 3e384 .cfa: sp 32 +
STACK CFI 3e38c .cfa: x29 32 + x19: .cfa -16 + ^ .ra: .cfa -24 + ^ x29: .cfa -32 + ^
STACK CFI 3e398 .cfa: sp 32 +
STACK CFI 3e3a0 .cfa: sp 0 +
STACK CFI INIT 3e3a4 24 .cfa: sp 0 +
STACK CFI 3e3a8 .cfa: sp 32 +
STACK CFI 3e3b0 .cfa: x29 32 + x19: .cfa -16 + ^ .ra: .cfa -24 + ^ x29: .cfa -32 + ^
STACK CFI 3e3bc .cfa: sp 32 +
STACK CFI 3e3c4 .cfa: sp 0 +
STACK CFI INIT 3e3c8 8 .cfa: sp 0 +
STACK CFI INIT 3e3d0 24 .cfa: sp 0 +
STACK CFI 3e3d4 .cfa: sp 32 +
STACK CFI 3e3dc .cfa: x29 32 + x19: .cfa -16 + ^ .ra: .cfa -24 + ^ x29: .cfa -32 + ^
STACK CFI 3e3e8 .cfa: sp 32 +
STACK CFI 3e3f0 .cfa: sp 0 +
STACK CFI INIT 3e3f4 28 .cfa: sp 0 +
STACK CFI 3e3f8 .cfa: sp 32 +
STACK CFI 3e400 .cfa: x29 32 + x19: .cfa -16 + ^ .ra: .cfa -24 + ^ x29: .cfa -32 + ^
STACK CFI 3e410 .cfa: sp 32 +
STACK CFI 3e418 .cfa: sp 0 +
STACK CFI INIT 3e874 44 .cfa: sp 0 +
STACK CFI 3e878 .cfa: sp 32 +
STACK CFI 3e880 .cfa: x29 32 + x19: .cfa -16 + ^ .ra: .cfa -24 + ^ x29: .cfa -32 + ^
STACK CFI 3e8ac .cfa: sp 32 +
STACK CFI 3e8b4 .cfa: sp 0 +
STACK CFI INIT 3e8b8 4c .cfa: sp 0 +
STACK CFI 3e8bc .cfa: sp 32 +
STACK CFI 3e8c4 .cfa: x29 32 + x19: .cfa -16 + ^ .ra: .cfa -24 + ^ x29: .cfa -32 + ^
STACK CFI 3e8f8 .cfa: sp 32 +
STACK CFI 3e900 .cfa: sp 0 +
STACK CFI INIT 3f5ec 4 .cfa: sp 0 +
STACK CFI INIT 3f5f0 14 .cfa: sp 0 +
STACK CFI INIT 3fae4 110 .cfa: sp 0 +
STACK CFI INIT 3fbf4 134 .cfa: sp 0 +
STACK CFI INIT 3fd28 c .cfa: sp 0 +
STACK CFI INIT 3fd34 24c .cfa: sp 0 +
STACK CFI INIT 3ff80 a0 .cfa: sp 0 +
STACK CFI 3ff8c .cfa: sp 32 +
STACK CFI 3ffe4 .cfa: sp 0 +
STACK CFI 3ffe8 .cfa: sp 32 +
STACK CFI 3fff0 .cfa: sp 0 +
STACK CFI 3fff4 .cfa: sp 32 +
STACK CFI 40008 .cfa: sp 0 +
STACK CFI 4000c .cfa: sp 32 +
STACK CFI 4001c .cfa: sp 0 +
STACK CFI INIT 40020 38 .cfa: sp 0 +
STACK CFI 4002c .cfa: sp 32 +
STACK CFI 40054 .cfa: sp 0 +
STACK CFI INIT 402ec 7c .cfa: sp 0 +
STACK CFI 402f0 .cfa: sp 32 +
STACK CFI 402f8 .cfa: x29 32 + x19: .cfa -16 + ^ .ra: .cfa -24 + ^ x29: .cfa -32 + ^
STACK CFI 40324 .cfa: sp 32 +
STACK CFI 4032c .cfa: sp 0 +
STACK CFI 40330 .cfa: x29 32 +
STACK CFI 4035c .cfa: sp 32 +
STACK CFI 40364 .cfa: sp 0 +
STACK CFI INIT 403b8 2c .cfa: sp 0 +
STACK CFI 403bc .cfa: sp 32 +
STACK CFI 403c4 .cfa: x29 32 + x19: .cfa -16 + ^ .ra: .cfa -24 + ^ x29: .cfa -32 + ^
STACK CFI 403d8 .cfa: sp 32 +
STACK CFI 403e0 .cfa: sp 0 +
STACK CFI INIT 40ba4 64 .cfa: sp 0 +
STACK CFI 40ba8 .cfa: sp 32 +
STACK CFI 40bb0 .cfa: x29 32 + x19: .cfa -16 + ^ .ra: .cfa -24 + ^ x29: .cfa -32 + ^
STACK CFI 40bcc .cfa: sp 32 +
STACK CFI 40bd4 .cfa: sp 0 +
STACK CFI 40bd8 .cfa: x29 32 +
STACK CFI 40bfc .cfa: sp 32 +
STACK CFI 40c04 .cfa: sp 0 +
STACK CFI INIT 40c08 570 .cfa: sp 0 +
STACK CFI 40c0c .cfa: sp 176 +
STACK CFI 40c20 .cfa: x29 64 + x19: .cfa -8 + ^ x20: .cfa -16 + ^ x21: .cfa -24 + ^ x22: .cfa -32 + ^ x23: .cfa -40 + ^ x24: .cfa -48 + ^ .ra: .cfa -56 + ^ x29: .cfa -64 + ^
STACK CFI 40e50 .cfa: sp 176 +
STACK CFI 40e64 .cfa: sp 0 +
STACK CFI 40e68 .cfa: x29 64 +
STACK CFI 40eb4 .cfa: sp 176 +
STACK CFI 40ec8 .cfa: sp 0 +
STACK CFI 40ecc .cfa: x29 64 +
STACK CFI 40f04 .cfa: sp 176 +
STACK CFI 40f18 .cfa: sp 0 +
STACK CFI 40f1c .cfa: x29 64 +
STACK CFI 40f34 .cfa: sp 176 +
STACK CFI 40f48 .cfa: sp 0 +
STACK CFI 40f4c .cfa: x29 64 +
STACK CFI 40f6c .cfa: sp 176 +
STACK CFI 40f80 .cfa: sp 0 +
STACK CFI 40f84 .cfa: x29 64 +
STACK CFI 40f9c .cfa: sp 176 +
STACK CFI 40fb0 .cfa: sp 0 +
STACK CFI 40fb4 .cfa: x29 64 +
STACK CFI 40fc8 .cfa: sp 176 +
STACK CFI 40fdc .cfa: sp 0 +
STACK CFI 40fe0 .cfa: x29 64 +
STACK CFI 40ff4 .cfa: sp 176 +
STACK CFI 41008 .cfa: sp 0 +
STACK CFI 4100c .cfa: x29 64 +
STACK CFI 4101c .cfa: sp 176 +
STACK CFI 41030 .cfa: sp 0 +
STACK CFI 41034 .cfa: x29 64 +
STACK CFI 41044 .cfa: sp 176 +
STACK CFI 41058 .cfa: sp 0 +
STACK CFI 4105c .cfa: x29 64 +
STACK CFI 41074 .cfa: sp 176 +
STACK CFI 41088 .cfa: sp 0 +
STACK CFI 4108c .cfa: x29 64 +
STACK CFI 410a0 .cfa: sp 176 +
STACK CFI 410b4 .cfa: sp 0 +
STACK CFI 410b8 .cfa: x29 64 +
STACK CFI 410d0 .cfa: sp 176 +
STACK CFI 410e4 .cfa: sp 0 +
STACK CFI 410e8 .cfa: x29 64 +
STACK CFI 41114 .cfa: sp 176 +
STACK CFI 41128 .cfa: sp 0 +
STACK CFI 4112c .cfa: x29 64 +
STACK CFI 41140 .cfa: sp 176 +
STACK CFI 41154 .cfa: sp 0 +
STACK CFI 41158 .cfa: x29 64 +
STACK CFI INIT 41178 228 .cfa: sp 0 +
STACK CFI INIT 413a0 2dc .cfa: sp 0 +
STACK CFI INIT 4167c 53c .cfa: sp 0 +
STACK CFI INIT 41bb8 78 .cfa: sp 0 +
STACK CFI 41bbc .cfa: sp 48 +
STACK CFI 41bc8 .cfa: x29 48 + x19: .cfa -8 + ^ x20: .cfa -16 + ^ x21: .cfa -24 + ^ x22: .cfa -32 + ^ .ra: .cfa -40 + ^ x29: .cfa -48 + ^
STACK CFI 41c10 .cfa: sp 48 +
STACK CFI 41c1c .cfa: sp 0 +
STACK CFI 41c20 .cfa: sp 48 +
STACK CFI 41c2c .cfa: sp 0 +
STACK CFI INIT 41c30 8c .cfa: sp 0 +
STACK CFI 41c34 .cfa: sp 32 +
STACK CFI 41c3c .cfa: x29 32 + x19: .cfa -16 + ^ .ra: .cfa -24 + ^ x29: .cfa -32 + ^
STACK CFI 41c70 .cfa: sp 32 +
STACK CFI 41c78 .cfa: sp 0 +
STACK CFI 41c7c .cfa: x29 32 +
STACK CFI 41cb0 .cfa: sp 32 +
STACK CFI 41cb8 .cfa: sp 0 +
STACK CFI INIT 41cbc 24 .cfa: sp 0 +
STACK CFI 41cc0 .cfa: sp 32 +
STACK CFI 41cc8 .cfa: x29 32 + x19: .cfa -16 + ^ .ra: .cfa -24 + ^ x29: .cfa -32 + ^
STACK CFI 41cd4 .cfa: sp 32 +
STACK CFI 41cdc .cfa: sp 0 +
STACK CFI INIT 41ce0 150 .cfa: sp 0 +
STACK CFI 41ce4 .cfa: sp 48 +
STACK CFI 41cf0 .cfa: x29 48 + x19: .cfa -8 + ^ x20: .cfa -16 + ^ x21: .cfa -24 + ^ x22: .cfa -32 + ^ .ra: .cfa -40 + ^ x29: .cfa -48 + ^
STACK CFI 41e20 .cfa: sp 48 +
STACK CFI 41e2c .cfa: sp 0 +
STACK CFI INIT 41e30 68 .cfa: sp 0 +
STACK CFI 41e34 .cfa: sp 64 +
STACK CFI 41e40 .cfa: x29 32 + x19: .cfa -16 + ^ .ra: .cfa -24 + ^ x29: .cfa -32 + ^
STACK CFI 41e84 .cfa: sp 64 +
STACK CFI 41e90 .cfa: sp 0 +
STACK CFI 41e94 .cfa: x29 32 +
STACK CFI INIT 41e98 90 .cfa: sp 0 +
STACK CFI 41e9c .cfa: sp 32 +
STACK CFI 41ea4 .cfa: x29 32 + x19: .cfa -8 + ^ x20: .cfa -16 + ^ .ra: .cfa -24 + ^ x29: .cfa -32 + ^
STACK CFI 41ed0 .cfa: sp 32 +
STACK CFI 41ed8 .cfa: sp 0 +
STACK CFI 41edc .cfa: x29 32 +
STACK CFI 41f1c .cfa: sp 32 +
STACK CFI 41f24 .cfa: sp 0 +
STACK CFI INIT 41f28 ec .cfa: sp 0 +
STACK CFI 41f2c .cfa: sp 112 +
STACK CFI 41f3c .cfa: x29 48 + x19: .cfa -8 + ^ x20: .cfa -16 + ^ x21: .cfa -32 + ^ .ra: .cfa -40 + ^ x29: .cfa -48 + ^
STACK CFI 41ffc .cfa: sp 112 +
STACK CFI 4200c .cfa: sp 0 +
STACK CFI 42010 .cfa: x29 48 +
STACK CFI INIT 42014 ec .cfa: sp 0 +
STACK CFI 42018 .cfa: sp 112 +
STACK CFI 42028 .cfa: x29 48 + x19: .cfa -8 + ^ x20: .cfa -16 + ^ x21: .cfa -32 + ^ .ra: .cfa -40 + ^ x29: .cfa -48 + ^
STACK CFI 420e8 .cfa: sp 112 +
STACK CFI 420f8 .cfa: sp 0 +
STACK CFI 420fc .cfa: x29 48 +
STACK CFI INIT 42100 48 .cfa: sp 0 +
STACK CFI 42104 .cfa: sp 32 +
STACK CFI 4210c .cfa: x29 32 + x19: .cfa -8 + ^ x20: .cfa -16 + ^ .ra: .cfa -24 + ^ x29: .cfa -32 + ^
STACK CFI 42130 .cfa: sp 32 +
STACK CFI 42138 .cfa: sp 0 +
STACK CFI 4213c .cfa: x29 32 +
STACK CFI INIT 42148 98 .cfa: sp 0 +
STACK CFI 4214c .cfa: sp 80 +
STACK CFI 42158 .cfa: x29 32 + x19: .cfa -16 + ^ .ra: .cfa -24 + ^ x29: .cfa -32 + ^
STACK CFI 421cc .cfa: sp 80 +
STACK CFI 421d8 .cfa: sp 0 +
STACK CFI 421dc .cfa: x29 32 +
STACK CFI INIT 421e0 260 .cfa: sp 0 +
STACK CFI 421e4 .cfa: sp 112 +
STACK CFI 421fc .cfa: x29 80 + x19: .cfa -8 + ^ x20: .cfa -16 + ^ x21: .cfa -24 + ^ x22: .cfa -32 + ^ x23: .cfa -40 + ^ x24: .cfa -48 + ^ x25: .cfa -64 + ^ .ra: .cfa -72 + ^ x29: .cfa -80 + ^
STACK CFI 423e0 .cfa: sp 112 +
STACK CFI 423f8 .cfa: sp 0 +
STACK CFI 423fc .cfa: x29 80 +
STACK CFI INIT 42440 150 .cfa: sp 0 +
STACK CFI 42444 .cfa: sp 48 +
STACK CFI 42450 .cfa: x29 48 + x19: .cfa -8 + ^ x20: .cfa -16 + ^ x21: .cfa -24 + ^ x22: .cfa -32 + ^ .ra: .cfa -40 + ^ x29: .cfa -48 + ^
STACK CFI 42580 .cfa: sp 48 +
STACK CFI 4258c .cfa: sp 0 +
STACK CFI INIT 42590 1e0 .cfa: sp 0 +
STACK CFI 42594 .cfa: sp 96 +
STACK CFI 425a8 .cfa: x29 64 + x19: .cfa -8 + ^ x20: .cfa -16 + ^ x21: .cfa -24 + ^ x22: .cfa -32 + ^ x23: .cfa -40 + ^ x24: .cfa -48 + ^ .ra: .cfa -56 + ^ x29: .cfa -64 + ^
STACK CFI 42728 .cfa: sp 96 +
STACK CFI 4273c .cfa: sp 0 +
STACK CFI 42740 .cfa: x29 64 +
STACK CFI INIT 42770 284 .cfa: sp 0 +
STACK CFI 42774 .cfa: sp 112 +
STACK CFI 4278c .cfa: x29 80 + x19: .cfa -8 + ^ x20: .cfa -16 + ^ x21: .cfa -24 + ^ x22: .cfa -32 + ^ x23: .cfa -40 + ^ x24: .cfa -48 + ^ x25: .cfa -64 + ^ .ra: .cfa -72 + ^ x29: .cfa -80 + ^
STACK CFI 42994 .cfa: sp 112 +
STACK CFI 429ac .cfa: sp 0 +
STACK CFI 429b0 .cfa: x29 80 +
STACK CFI INIT 429f4 208 .cfa: sp 0 +
STACK CFI 429f8 .cfa: sp 96 +
STACK CFI 42a0c .cfa: x29 64 + x19: .cfa -8 + ^ x20: .cfa -16 + ^ x21: .cfa -24 + ^ x22: .cfa -32 + ^ x23: .cfa -40 + ^ x24: .cfa -48 + ^ .ra: .cfa -56 + ^ x29: .cfa -64 + ^
STACK CFI 42bb4 .cfa: sp 96 +
STACK CFI 42bc8 .cfa: sp 0 +
STACK CFI 42bcc .cfa: x29 64 +
STACK CFI INIT 42bfc 360 .cfa: sp 0 +
STACK CFI 42c00 .cfa: sp 160 +
STACK CFI 42c1c .cfa: x29 96 + x19: .cfa -8 + ^ x20: .cfa -16 + ^ x21: .cfa -24 + ^ x22: .cfa -32 + ^ x23: .cfa -40 + ^ x24: .cfa -48 + ^ x25: .cfa -56 + ^ x26: .cfa -64 + ^ x27: .cfa -72 + ^ x28: .cfa -80 + ^ .ra: .cfa -88 + ^ x29: .cfa -96 + ^
STACK CFI 42ee8 .cfa: sp 160 +
STACK CFI 42f04 .cfa: sp 0 +
STACK CFI 42f08 .cfa: x29 96 +
STACK CFI INIT 42f5c 314 .cfa: sp 0 +
STACK CFI 42f60 .cfa: sp 144 +
STACK CFI 42f7c .cfa: x29 96 + x19: .cfa -8 + ^ x20: .cfa -16 + ^ x21: .cfa -24 + ^ x22: .cfa -32 + ^ x23: .cfa -40 + ^ x24: .cfa -48 + ^ x25: .cfa -56 + ^ x26: .cfa -64 + ^ x27: .cfa -72 + ^ x28: .cfa -80 + ^ .ra: .cfa -88 + ^ x29: .cfa -96 + ^
STACK CFI 431f8 .cfa: sp 144 +
STACK CFI 43214 .cfa: sp 0 +
STACK CFI 43218 .cfa: x29 96 +
STACK CFI INIT 43270 290 .cfa: sp 0 +
STACK CFI 43274 .cfa: sp 128 +
STACK CFI 4328c .cfa: x29 80 + x19: .cfa -8 + ^ x20: .cfa -16 + ^ x21: .cfa -24 + ^ x22: .cfa -32 + ^ x23: .cfa -40 + ^ x24: .cfa -48 + ^ x25: .cfa -56 + ^ x26: .cfa -64 + ^ .ra: .cfa -72 + ^ x29: .cfa -80 + ^
STACK CFI 434e0 .cfa: sp 128 +
STACK CFI 434f8 .cfa: sp 0 +
STACK CFI 434fc .cfa: x29 80 +
STACK CFI INIT 43500 ddc .cfa: sp 0 +
STACK CFI 43504 .cfa: sp 144 +
STACK CFI 43520 .cfa: x29 96 + x19: .cfa -8 + ^ x20: .cfa -16 + ^ x21: .cfa -24 + ^ x22: .cfa -32 + ^ x23: .cfa -40 + ^ x24: .cfa -48 + ^ x25: .cfa -56 + ^ x26: .cfa -64 + ^ x27: .cfa -72 + ^ x28: .cfa -80 + ^ .ra: .cfa -88 + ^ x29: .cfa -96 + ^
STACK CFI 441b4 .cfa: sp 144 +
STACK CFI 441d0 .cfa: sp 0 +
STACK CFI 441d4 .cfa: x29 96 +
STACK CFI INIT 442dc 1d0 .cfa: sp 0 +
STACK CFI 442e0 .cfa: sp 80 +
STACK CFI 442f4 .cfa: x29 80 + x19: .cfa -8 + ^ x20: .cfa -16 + ^ x21: .cfa -24 + ^ x22: .cfa -32 + ^ x23: .cfa -40 + ^ x24: .cfa -48 + ^ x25: .cfa -64 + ^ .ra: .cfa -72 + ^ x29: .cfa -80 + ^
STACK CFI 44494 .cfa: sp 80 +
STACK CFI 444a8 .cfa: sp 0 +
STACK CFI INIT 444ac 23c .cfa: sp 0 +
STACK CFI 444b0 .cfa: sp 112 +
STACK CFI 444c4 .cfa: x29 64 + x19: .cfa -8 + ^ x20: .cfa -16 + ^ x21: .cfa -24 + ^ x22: .cfa -32 + ^ x23: .cfa -40 + ^ x24: .cfa -48 + ^ .ra: .cfa -56 + ^ x29: .cfa -64 + ^
STACK CFI 446a0 .cfa: sp 112 +
STACK CFI 446b4 .cfa: sp 0 +
STACK CFI 446b8 .cfa: x29 64 +
STACK CFI INIT 446e8 30c .cfa: sp 0 +
STACK CFI 446ec .cfa: sp 80 +
STACK CFI 44700 .cfa: x29 64 + x19: .cfa -8 + ^ x20: .cfa -16 + ^ x21: .cfa -24 + ^ x22: .cfa -32 + ^ x23: .cfa -40 + ^ x24: .cfa -48 + ^ .ra: .cfa -56 + ^ x29: .cfa -64 + ^
STACK CFI 4487c .cfa: sp 80 +
STACK CFI 44890 .cfa: sp 0 +
STACK CFI 44894 .cfa: x29 64 +
STACK CFI INIT 449f4 178 .cfa: sp 0 +
STACK CFI 449f8 .cfa: sp 80 +
STACK CFI 44a0c .cfa: x29 64 + x19: .cfa -8 + ^ x20: .cfa -16 + ^ x21: .cfa -24 + ^ x22: .cfa -32 + ^ x23: .cfa -40 + ^ x24: .cfa -48 + ^ .ra: .cfa -56 + ^ x29: .cfa -64 + ^
STACK CFI 44b50 .cfa: sp 80 +
STACK CFI 44b64 .cfa: sp 0 +
STACK CFI 44b68 .cfa: x29 64 +
STACK CFI INIT 44b6c 178 .cfa: sp 0 +
STACK CFI 44b70 .cfa: sp 80 +
STACK CFI 44b84 .cfa: x29 64 + x19: .cfa -8 + ^ x20: .cfa -16 + ^ x21: .cfa -24 + ^ x22: .cfa -32 + ^ x23: .cfa -40 + ^ x24: .cfa -48 + ^ .ra: .cfa -56 + ^ x29: .cfa -64 + ^
STACK CFI 44cc8 .cfa: sp 80 +
STACK CFI 44cdc .cfa: sp 0 +
STACK CFI 44ce0 .cfa: x29 64 +
STACK CFI INIT 44ce4 240 .cfa: sp 0 +
STACK CFI 44ce8 .cfa: sp 96 +
STACK CFI 44d00 .cfa: x29 96 + x19: .cfa -8 + ^ x20: .cfa -16 + ^ x21: .cfa -24 + ^ x22: .cfa -32 + ^ x23: .cfa -40 + ^ x24: .cfa -48 + ^ x25: .cfa -56 + ^ x26: .cfa -64 + ^ x27: .cfa -72 + ^ x28: .cfa -80 + ^ .ra: .cfa -88 + ^ x29: .cfa -96 + ^
STACK CFI 44f08 .cfa: sp 96 +
STACK CFI 44f20 .cfa: sp 0 +
STACK CFI INIT 45b98 154 .cfa: sp 0 +
STACK CFI 45b9c .cfa: sp 96 +
STACK CFI 45bb0 .cfa: x29 64 + x19: .cfa -8 + ^ x20: .cfa -16 + ^ x21: .cfa -24 + ^ x22: .cfa -32 + ^ x23: .cfa -48 + ^ .ra: .cfa -56 + ^ x29: .cfa -64 + ^
STACK CFI 45c90 .cfa: sp 96 +
STACK CFI 45ca4 .cfa: sp 0 +
STACK CFI 45ca8 .cfa: x29 64 +
STACK CFI INIT 45f58 44 .cfa: sp 0 +
STACK CFI 45f5c .cfa: sp 32 +
STACK CFI 45f64 .cfa: x29 32 + x19: .cfa -16 + ^ .ra: .cfa -24 + ^ x29: .cfa -32 + ^
STACK CFI 45f80 .cfa: sp 32 +
STACK CFI 45f88 .cfa: sp 0 +
STACK CFI 45f8c .cfa: x29 32 +
STACK CFI 45f90 .cfa: sp 32 +
STACK CFI 45f98 .cfa: sp 0 +
STACK CFI INIT 45f9c 1d0 .cfa: sp 0 +
STACK CFI 45fa0 .cfa: sp 64 +
STACK CFI 45fb0 .cfa: x29 64 + x19: .cfa -8 + ^ x20: .cfa -16 + ^ x21: .cfa -24 + ^ x22: .cfa -32 + ^ x23: .cfa -40 + ^ x24: .cfa -48 + ^ .ra: .cfa -56 + ^ x29: .cfa -64 + ^
STACK CFI 46070 .cfa: sp 64 +
STACK CFI 46080 .cfa: sp 0 +
STACK CFI 46084 .cfa: x29 64 +
STACK CFI INIT 4616c 17c .cfa: sp 0 +
STACK CFI INIT 466a0 a0 .cfa: sp 0 +
STACK CFI 466a4 .cfa: sp 48 +
STACK CFI 466b0 .cfa: x29 48 + x19: .cfa -8 + ^ x20: .cfa -16 + ^ x21: .cfa -24 + ^ x22: .cfa -32 + ^ .ra: .cfa -40 + ^ x29: .cfa -48 + ^
STACK CFI 4671c .cfa: sp 48 +
STACK CFI 46728 .cfa: sp 0 +
STACK CFI 4672c .cfa: sp 48 +
STACK CFI 46738 .cfa: sp 0 +
STACK CFI 4673c .cfa: x29 48 +
STACK CFI INIT 473f4 158 .cfa: sp 0 +
STACK CFI 473f8 .cfa: sp 96 +
STACK CFI 4740c .cfa: x29 64 + x19: .cfa -8 + ^ x20: .cfa -16 + ^ x21: .cfa -24 + ^ x22: .cfa -32 + ^ x23: .cfa -48 + ^ .ra: .cfa -56 + ^ x29: .cfa -64 + ^
STACK CFI 474f0 .cfa: sp 96 +
STACK CFI 47504 .cfa: sp 0 +
STACK CFI 47508 .cfa: x29 64 +
STACK CFI INIT 4754c 190 .cfa: sp 0 +
STACK CFI INIT 481d8 1dc .cfa: sp 0 +
STACK CFI 481dc .cfa: sp 80 +
STACK CFI 481f0 .cfa: x29 80 + x19: .cfa -8 + ^ x20: .cfa -16 + ^ x21: .cfa -24 + ^ x22: .cfa -32 + ^ x23: .cfa -40 + ^ x24: .cfa -48 + ^ x25: .cfa -64 + ^ .ra: .cfa -72 + ^ x29: .cfa -80 + ^
STACK CFI 4839c .cfa: sp 80 +
STACK CFI 483b0 .cfa: sp 0 +
STACK CFI INIT 497e4 124 .cfa: sp 0 +
STACK CFI 49814 .cfa: sp 32 +
STACK CFI 4981c .cfa: x29 32 + x19: .cfa -8 + ^ x20: .cfa -16 + ^ .ra: .cfa -24 + ^ x29: .cfa -32 + ^
STACK CFI 498fc .cfa: sp 32 +
STACK CFI 49904 .cfa: sp 0 +
STACK CFI INIT 4a064 320 .cfa: sp 0 +
STACK CFI 4a068 .cfa: sp 64 +
STACK CFI 4a078 .cfa: x29 64 + x19: .cfa -8 + ^ x20: .cfa -16 + ^ x21: .cfa -24 + ^ x22: .cfa -32 + ^ x23: .cfa -40 + ^ x24: .cfa -48 + ^ .ra: .cfa -56 + ^ x29: .cfa -64 + ^
STACK CFI 4a0f4 .cfa: sp 64 +
STACK CFI 4a104 .cfa: sp 0 +
STACK CFI 4a108 .cfa: x29 64 +
STACK CFI 4a2dc .cfa: sp 64 +
STACK CFI 4a2ec .cfa: sp 0 +
STACK CFI 4a2f0 .cfa: x29 64 +
STACK CFI 4a300 .cfa: sp 64 +
STACK CFI 4a310 .cfa: sp 0 +
STACK CFI 4a314 .cfa: x29 64 +
STACK CFI INIT 4a384 a0 .cfa: sp 0 +
STACK CFI 4a388 .cfa: sp 48 +
STACK CFI 4a394 .cfa: x29 48 + x19: .cfa -8 + ^ x20: .cfa -16 + ^ x21: .cfa -24 + ^ x22: .cfa -32 + ^ .ra: .cfa -40 + ^ x29: .cfa -48 + ^
STACK CFI 4a400 .cfa: sp 48 +
STACK CFI 4a40c .cfa: sp 0 +
STACK CFI 4a410 .cfa: sp 48 +
STACK CFI 4a41c .cfa: sp 0 +
STACK CFI 4a420 .cfa: x29 48 +
STACK CFI INIT 4b2d4 160 .cfa: sp 0 +
STACK CFI 4b2d8 .cfa: sp 64 +
STACK CFI 4b2e8 .cfa: x29 64 + x19: .cfa -8 + ^ x20: .cfa -16 + ^ x21: .cfa -24 + ^ x22: .cfa -32 + ^ x23: .cfa -48 + ^ .ra: .cfa -56 + ^ x29: .cfa -64 + ^
STACK CFI 4b3e0 .cfa: sp 64 +
STACK CFI 4b3f0 .cfa: sp 0 +
STACK CFI 4b3f4 .cfa: x29 64 +
STACK CFI INIT 4b434 214 .cfa: sp 0 +
STACK CFI 4b438 .cfa: sp 128 +
STACK CFI 4b454 .cfa: x29 96 + x19: .cfa -8 + ^ x20: .cfa -16 + ^ x21: .cfa -24 + ^ x22: .cfa -32 + ^ x23: .cfa -40 + ^ x24: .cfa -48 + ^ x25: .cfa -56 + ^ x26: .cfa -64 + ^ x27: .cfa -80 + ^ .ra: .cfa -88 + ^ x29: .cfa -96 + ^
STACK CFI 4b5d0 .cfa: sp 128 +
STACK CFI 4b5ec .cfa: sp 0 +
STACK CFI 4b5f0 .cfa: x29 96 +
STACK CFI INIT 4d2e4 290 .cfa: sp 0 +
STACK CFI 4d2e8 .cfa: sp 16 +
STACK CFI 4d2ec .cfa: x29 16 + .ra: .cfa -8 + ^ x29: .cfa -16 + ^
STACK CFI 4d378 .cfa: sp 16 +
STACK CFI 4d37c .cfa: sp 0 +
STACK CFI 4d380 .cfa: x29 16 +
STACK CFI 4d3d0 .cfa: sp 16 +
STACK CFI 4d3d4 .cfa: sp 0 +
STACK CFI 4d3d8 .cfa: x29 16 +
STACK CFI 4d53c .cfa: sp 16 +
STACK CFI 4d540 .cfa: sp 0 +
STACK CFI 4d544 .cfa: x29 16 +
STACK CFI INIT 4d574 158 .cfa: sp 0 +
STACK CFI 4d578 .cfa: sp 112 +
STACK CFI 4d594 .cfa: x29 96 + x19: .cfa -8 + ^ x20: .cfa -16 + ^ x21: .cfa -24 + ^ x22: .cfa -32 + ^ x23: .cfa -40 + ^ x24: .cfa -48 + ^ x25: .cfa -56 + ^ x26: .cfa -64 + ^ x27: .cfa -72 + ^ x28: .cfa -80 + ^ .ra: .cfa -88 + ^ x29: .cfa -96 + ^
STACK CFI 4d67c .cfa: sp 112 +
STACK CFI 4d680 .cfa: x29 96 +
STACK CFI 4d688 .cfa: sp 112 +
STACK CFI 4d6a4 .cfa: sp 0 +
STACK CFI 4d6a8 .cfa: x29 96 +
STACK CFI 4d6c8 .cfa: sp 112 +
STACK CFI INIT 4d6cc e54 .cfa: sp 0 +
STACK CFI 4d6d0 .cfa: sp 192 +
STACK CFI 4d6ec .cfa: x29 96 + x19: .cfa -8 + ^ x20: .cfa -16 + ^ x21: .cfa -24 + ^ x22: .cfa -32 + ^ x23: .cfa -40 + ^ x24: .cfa -48 + ^ x25: .cfa -56 + ^ x26: .cfa -64 + ^ x27: .cfa -72 + ^ x28: .cfa -80 + ^ .ra: .cfa -88 + ^ x29: .cfa -96 + ^
STACK CFI 4e408 .cfa: sp 192 +
STACK CFI 4e424 .cfa: sp 0 +
STACK CFI 4e428 .cfa: x29 96 +
STACK CFI INIT 4e520 1068 .cfa: sp 0 +
STACK CFI 4e524 .cfa: sp 288 +
STACK CFI 4e540 .cfa: x29 96 + x19: .cfa -8 + ^ x20: .cfa -16 + ^ x21: .cfa -24 + ^ x22: .cfa -32 + ^ x23: .cfa -40 + ^ x24: .cfa -48 + ^ x25: .cfa -56 + ^ x26: .cfa -64 + ^ x27: .cfa -72 + ^ x28: .cfa -80 + ^ .ra: .cfa -88 + ^ x29: .cfa -96 + ^
STACK CFI 4f2d0 .cfa: sp 288 +
STACK CFI 4f2ec .cfa: sp 0 +
STACK CFI 4f2f0 .cfa: x29 96 +
STACK CFI INIT 4f588 520 .cfa: sp 0 +
STACK CFI 4f58c .cfa: sp 144 +
STACK CFI 4f5a8 .cfa: x29 96 + x19: .cfa -8 + ^ x20: .cfa -16 + ^ x21: .cfa -24 + ^ x22: .cfa -32 + ^ x23: .cfa -40 + ^ x24: .cfa -48 + ^ x25: .cfa -56 + ^ x26: .cfa -64 + ^ x27: .cfa -72 + ^ x28: .cfa -80 + ^ .ra: .cfa -88 + ^ x29: .cfa -96 + ^
STACK CFI 4fa84 .cfa: sp 144 +
STACK CFI 4faa0 .cfa: sp 0 +
STACK CFI 4faa4 .cfa: x29 96 +
STACK CFI INIT 50448 136c .cfa: sp 0 +
STACK CFI 5044c .cfa: sp 224 +
STACK CFI 50468 .cfa: x29 96 + x19: .cfa -8 + ^ x20: .cfa -16 + ^ x21: .cfa -24 + ^ x22: .cfa -32 + ^ x23: .cfa -40 + ^ x24: .cfa -48 + ^ x25: .cfa -56 + ^ x26: .cfa -64 + ^ x27: .cfa -72 + ^ x28: .cfa -80 + ^ .ra: .cfa -88 + ^ x29: .cfa -96 + ^
STACK CFI 51790 .cfa: sp 224 +
STACK CFI 517ac .cfa: sp 0 +
STACK CFI 517b0 .cfa: x29 96 +
STACK CFI INIT 517b4 1b8 .cfa: sp 0 +
STACK CFI INIT 2e570 1098 .cfa: sp 0 +
STACK CFI 2e574 .cfa: sp 112 +
STACK CFI 2e590 .cfa: x29 96 + x19: .cfa -8 + ^ x20: .cfa -16 + ^ x21: .cfa -24 + ^ x22: .cfa -32 + ^ x23: .cfa -40 + ^ x24: .cfa -48 + ^ x25: .cfa -56 + ^ x26: .cfa -64 + ^ x27: .cfa -72 + ^ x28: .cfa -80 + ^ .ra: .cfa -88 + ^ x29: .cfa -96 + ^ v8: .cfa -112 + ^
STACK CFI 2f2f4 .cfa: sp 112 +
STACK CFI 2f310 .cfa: sp 0 +
STACK CFI 2f314 .cfa: x29 96 +
STACK CFI INIT 2f608 1cc .cfa: sp 0 +
STACK CFI 2f60c .cfa: sp 80 +
STACK CFI 2f620 .cfa: x29 80 + x19: .cfa -8 + ^ x20: .cfa -16 + ^ x21: .cfa -24 + ^ x22: .cfa -32 + ^ x23: .cfa -40 + ^ x24: .cfa -48 + ^ x25: .cfa -56 + ^ x28: .cfa -64 + ^ .ra: .cfa -72 + ^ x29: .cfa -80 + ^
STACK CFI 2f730 .cfa: sp 80 +
STACK CFI 2f744 .cfa: sp 0 +
STACK CFI 2f748 .cfa: x29 80 +
STACK CFI INIT 2f7d4 240 .cfa: sp 0 +
STACK CFI 2f7d8 .cfa: sp 96 +
STACK CFI 2f7f0 .cfa: x29 96 + x19: .cfa -8 + ^ x20: .cfa -16 + ^ x21: .cfa -24 + ^ x22: .cfa -32 + ^ x23: .cfa -40 + ^ x24: .cfa -48 + ^ x25: .cfa -56 + ^ x26: .cfa -64 + ^ x28: .cfa -80 + ^ .ra: .cfa -88 + ^ x29: .cfa -96 + ^
STACK CFI 2f9a8 .cfa: sp 96 +
STACK CFI 2f9c0 .cfa: sp 0 +
STACK CFI 2f9c4 .cfa: x29 96 +
STACK CFI INIT 2fa14 1dc .cfa: sp 0 +
STACK CFI 2fa18 .cfa: sp 208 +
STACK CFI 2fa30 .cfa: x29 64 + x19: .cfa -8 + ^ x20: .cfa -16 + ^ x21: .cfa -24 + ^ x22: .cfa -32 + ^ x23: .cfa -40 + ^ x24: .cfa -48 + ^ .ra: .cfa -56 + ^ x29: .cfa -64 + ^ v8: .cfa -80 + ^
STACK CFI 2fb7c .cfa: sp 208 +
STACK CFI 2fb94 .cfa: sp 0 +
STACK CFI 2fb98 .cfa: x29 64 +
STACK CFI INIT 2fd10 480 .cfa: sp 0 +
STACK CFI 2fd14 .cfa: sp 224 +
STACK CFI 2fd30 .cfa: x29 96 + x19: .cfa -8 + ^ x20: .cfa -16 + ^ x21: .cfa -24 + ^ x22: .cfa -32 + ^ x23: .cfa -40 + ^ x24: .cfa -48 + ^ x25: .cfa -56 + ^ x26: .cfa -64 + ^ x27: .cfa -80 + ^ .ra: .cfa -88 + ^ x29: .cfa -96 + ^
STACK CFI 2ff9c .cfa: sp 224 +
STACK CFI 2ffb8 .cfa: sp 0 +
STACK CFI 2ffbc .cfa: x29 96 +
STACK CFI 30088 .cfa: sp 224 +
STACK CFI 300a4 .cfa: sp 0 +
STACK CFI 300a8 .cfa: x29 96 +
STACK CFI INIT 301e8 50 .cfa: sp 0 +
STACK CFI 301ec .cfa: sp 32 +
STACK CFI 301f4 .cfa: x29 32 + x19: .cfa -8 + ^ x20: .cfa -16 + ^ .ra: .cfa -24 + ^ x29: .cfa -32 + ^
STACK CFI INIT 302bc 50 .cfa: sp 0 +
STACK CFI 302c0 .cfa: sp 32 +
STACK CFI 302c8 .cfa: x29 32 + x19: .cfa -8 + ^ x20: .cfa -16 + ^ .ra: .cfa -24 + ^ x29: .cfa -32 + ^
STACK CFI INIT 303e0 1ec .cfa: sp 0 +
STACK CFI 303e4 .cfa: sp 208 +
STACK CFI 303fc .cfa: x29 80 + x19: .cfa -8 + ^ x20: .cfa -16 + ^ x21: .cfa -24 + ^ x22: .cfa -32 + ^ x23: .cfa -40 + ^ x24: .cfa -48 + ^ x25: .cfa -64 + ^ .ra: .cfa -72 + ^ x29: .cfa -80 + ^
STACK CFI 30558 .cfa: sp 208 +
STACK CFI 30570 .cfa: sp 0 +
STACK CFI 30574 .cfa: x29 80 +
STACK CFI INIT 305cc 74 .cfa: sp 0 +
STACK CFI 305d0 .cfa: sp 48 +
STACK CFI 305dc .cfa: x29 32 + x19: .cfa -8 + ^ x20: .cfa -16 + ^ .ra: .cfa -24 + ^ x29: .cfa -32 + ^
STACK CFI 30628 .cfa: sp 48 +
STACK CFI 30634 .cfa: sp 0 +
STACK CFI 30638 .cfa: x29 32 +
STACK CFI INIT 30640 168 .cfa: sp 0 +
STACK CFI 30644 .cfa: sp 384 +
STACK CFI 30658 .cfa: x29 64 + x19: .cfa -8 + ^ x20: .cfa -16 + ^ x21: .cfa -24 + ^ x22: .cfa -32 + ^ x23: .cfa -40 + ^ x28: .cfa -48 + ^ .ra: .cfa -56 + ^ x29: .cfa -64 + ^
STACK CFI 30750 .cfa: sp 384 +
STACK CFI 30764 .cfa: sp 0 +
STACK CFI 30768 .cfa: x29 64 +
STACK CFI INIT 307dc 12c .cfa: sp 0 +
STACK CFI 307e0 .cfa: sp 80 +
STACK CFI 307f4 .cfa: x29 80 + x19: .cfa -8 + ^ x20: .cfa -16 + ^ x21: .cfa -24 + ^ x22: .cfa -32 + ^ x23: .cfa -40 + ^ x24: .cfa -48 + ^ x25: .cfa -56 + ^ x26: .cfa -64 + ^ .ra: .cfa -72 + ^ x29: .cfa -80 + ^
STACK CFI 308bc .cfa: sp 80 +
STACK CFI 308d0 .cfa: sp 0 +
STACK CFI 308d4 .cfa: x29 80 +
STACK CFI INIT 309ac 1a4 .cfa: sp 0 +
STACK CFI 309b0 .cfa: sp 112 +
STACK CFI 309c8 .cfa: x29 80 + x19: .cfa -8 + ^ x20: .cfa -16 + ^ x21: .cfa -24 + ^ x22: .cfa -32 + ^ x23: .cfa -40 + ^ x24: .cfa -48 + ^ x25: .cfa -56 + ^ x26: .cfa -64 + ^ .ra: .cfa -72 + ^ x29: .cfa -80 + ^
STACK CFI 30ab8 .cfa: sp 112 +
STACK CFI 30ad0 .cfa: sp 0 +
STACK CFI 30ad4 .cfa: x29 80 +
STACK CFI INIT 30b50 1dc .cfa: sp 0 +
STACK CFI 30b54 .cfa: sp 128 +
STACK CFI 30b70 .cfa: x29 96 + x19: .cfa -8 + ^ x20: .cfa -16 + ^ x21: .cfa -24 + ^ x22: .cfa -32 + ^ x23: .cfa -40 + ^ x24: .cfa -48 + ^ x25: .cfa -56 + ^ x26: .cfa -64 + ^ x27: .cfa -80 + ^ .ra: .cfa -88 + ^ x29: .cfa -96 + ^
STACK CFI 30cdc .cfa: sp 128 +
STACK CFI 30cf8 .cfa: sp 0 +
STACK CFI 30cfc .cfa: x29 96 +
STACK CFI INIT 30d40 178 .cfa: sp 0 +
STACK CFI 30d44 .cfa: sp 80 +
STACK CFI 30d58 .cfa: x29 80 + x19: .cfa -8 + ^ x20: .cfa -16 + ^ x21: .cfa -24 + ^ x22: .cfa -32 + ^ x23: .cfa -40 + ^ x24: .cfa -48 + ^ x25: .cfa -64 + ^ .ra: .cfa -72 + ^ x29: .cfa -80 + ^
STACK CFI 30e84 .cfa: sp 80 +
STACK CFI 30e98 .cfa: sp 0 +
STACK CFI 30e9c .cfa: x29 80 +
STACK CFI INIT 310b0 338 .cfa: sp 0 +
STACK CFI 310b4 .cfa: sp 208 +
STACK CFI 310cc .cfa: x29 80 + x19: .cfa -8 + ^ x20: .cfa -16 + ^ x21: .cfa -24 + ^ x22: .cfa -32 + ^ x23: .cfa -40 + ^ x24: .cfa -48 + ^ x25: .cfa -64 + ^ .ra: .cfa -72 + ^ x29: .cfa -80 + ^
STACK CFI 312f4 .cfa: sp 208 +
STACK CFI 3130c .cfa: sp 0 +
STACK CFI 31310 .cfa: x29 80 +
STACK CFI INIT 313e8 74 .cfa: sp 0 +
STACK CFI 313ec .cfa: sp 48 +
STACK CFI 313f8 .cfa: x29 32 + x19: .cfa -8 + ^ x20: .cfa -16 + ^ .ra: .cfa -24 + ^ x29: .cfa -32 + ^
STACK CFI 31444 .cfa: sp 48 +
STACK CFI 31450 .cfa: sp 0 +
STACK CFI 31454 .cfa: x29 32 +
STACK CFI INIT 3145c 438 .cfa: sp 0 +
STACK CFI 31460 .cfa: sp 272 +
STACK CFI 3147c .cfa: x29 96 + x19: .cfa -8 + ^ x20: .cfa -16 + ^ x21: .cfa -24 + ^ x22: .cfa -32 + ^ x23: .cfa -40 + ^ x24: .cfa -48 + ^ x25: .cfa -56 + ^ x26: .cfa -64 + ^ x27: .cfa -72 + ^ x28: .cfa -80 + ^ .ra: .cfa -88 + ^ x29: .cfa -96 + ^
STACK CFI 31778 .cfa: sp 272 +
STACK CFI 31794 .cfa: sp 0 +
STACK CFI 31798 .cfa: x29 96 +
STACK CFI INIT 31a1c 74 .cfa: sp 0 +
STACK CFI 31a20 .cfa: sp 48 +
STACK CFI 31a2c .cfa: x29 32 + x19: .cfa -8 + ^ x20: .cfa -16 + ^ .ra: .cfa -24 + ^ x29: .cfa -32 + ^
STACK CFI 31a78 .cfa: sp 48 +
STACK CFI 31a84 .cfa: sp 0 +
STACK CFI 31a88 .cfa: x29 32 +
STACK CFI INIT 31aa4 278 .cfa: sp 0 +
STACK CFI 31aa8 .cfa: sp 208 +
STACK CFI 31ab8 .cfa: x29 48 + x19: .cfa -8 + ^ x20: .cfa -16 + ^ x21: .cfa -24 + ^ x22: .cfa -32 + ^ .ra: .cfa -40 + ^ x29: .cfa -48 + ^
STACK CFI 31c60 .cfa: sp 208 +
STACK CFI 31c70 .cfa: sp 0 +
STACK CFI 31c74 .cfa: x29 48 +
STACK CFI INIT 31d1c fc .cfa: sp 0 +
STACK CFI 31d20 .cfa: sp 128 +
STACK CFI 31d30 .cfa: x29 32 + x19: .cfa -8 + ^ x20: .cfa -16 + ^ .ra: .cfa -24 + ^ x29: .cfa -32 + ^ v8: .cfa -48 + ^
STACK CFI 31dd0 .cfa: sp 128 +
STACK CFI 31de0 .cfa: sp 0 +
STACK CFI 31de4 .cfa: x29 32 +
STACK CFI INIT 31e18 158 .cfa: sp 0 +
STACK CFI 31e1c .cfa: sp 128 +
STACK CFI 31e2c .cfa: x29 48 + x19: .cfa -8 + ^ x20: .cfa -16 + ^ x21: .cfa -24 + ^ x22: .cfa -32 + ^ .ra: .cfa -40 + ^ x29: .cfa -48 + ^
STACK CFI 31f28 .cfa: sp 128 +
STACK CFI 31f38 .cfa: sp 0 +
STACK CFI 31f3c .cfa: x29 48 +
STACK CFI INIT 31f70 f0 .cfa: sp 0 +
STACK CFI 31f74 .cfa: sp 112 +
STACK CFI 31f80 .cfa: x29 32 + x19: .cfa -8 + ^ x20: .cfa -16 + ^ .ra: .cfa -24 + ^ x29: .cfa -32 + ^
STACK CFI 32020 .cfa: sp 112 +
STACK CFI 3202c .cfa: sp 0 +
STACK CFI 32030 .cfa: x29 32 +
STACK CFI INIT 32060 f8 .cfa: sp 0 +
STACK CFI 32064 .cfa: sp 112 +
STACK CFI 32070 .cfa: x29 32 + x19: .cfa -8 + ^ x20: .cfa -16 + ^ .ra: .cfa -24 + ^ x29: .cfa -32 + ^
STACK CFI 32118 .cfa: sp 112 +
STACK CFI 32124 .cfa: sp 0 +
STACK CFI 32128 .cfa: x29 32 +
STACK CFI INIT 32158 104 .cfa: sp 0 +
STACK CFI 3215c .cfa: sp 112 +
STACK CFI 32168 .cfa: x29 32 + x19: .cfa -8 + ^ x20: .cfa -16 + ^ .ra: .cfa -24 + ^ x29: .cfa -32 + ^
STACK CFI 3222c .cfa: sp 112 +
STACK CFI 32238 .cfa: sp 0 +
STACK CFI 3223c .cfa: x29 32 +
STACK CFI INIT 3225c 74 .cfa: sp 0 +
STACK CFI 32260 .cfa: sp 48 +
STACK CFI 3226c .cfa: x29 32 + x19: .cfa -8 + ^ x20: .cfa -16 + ^ .ra: .cfa -24 + ^ x29: .cfa -32 + ^
STACK CFI 322b8 .cfa: sp 48 +
STACK CFI 322c4 .cfa: sp 0 +
STACK CFI 322c8 .cfa: x29 32 +
STACK CFI INIT 325f0 14c .cfa: sp 0 +
STACK CFI 325f4 .cfa: sp 128 +
STACK CFI 32608 .cfa: x29 64 + x19: .cfa -8 + ^ x20: .cfa -16 + ^ x21: .cfa -24 + ^ x22: .cfa -32 + ^ x23: .cfa -48 + ^ .ra: .cfa -56 + ^ x29: .cfa -64 + ^
STACK CFI 326e4 .cfa: sp 128 +
STACK CFI 326f8 .cfa: sp 0 +
STACK CFI 326fc .cfa: x29 64 +
STACK CFI INIT 32858 140 .cfa: sp 0 +
STACK CFI 3285c .cfa: sp 112 +
STACK CFI 3286c .cfa: x29 48 + x19: .cfa -8 + ^ x20: .cfa -16 + ^ x21: .cfa -32 + ^ .ra: .cfa -40 + ^ x29: .cfa -48 + ^
STACK CFI 3294c .cfa: sp 112 +
STACK CFI 3295c .cfa: sp 0 +
STACK CFI 32960 .cfa: x29 48 +
STACK CFI INIT 32998 160 .cfa: sp 0 +
STACK CFI 3299c .cfa: sp 128 +
STACK CFI 329b4 .cfa: x29 80 + x19: .cfa -8 + ^ x20: .cfa -16 + ^ x21: .cfa -24 + ^ x22: .cfa -32 + ^ x23: .cfa -40 + ^ x24: .cfa -48 + ^ x25: .cfa -64 + ^ .ra: .cfa -72 + ^ x29: .cfa -80 + ^
STACK CFI 32a88 .cfa: sp 128 +
STACK CFI 32aa0 .cfa: sp 0 +
STACK CFI 32aa4 .cfa: x29 80 +
STACK CFI INIT 32af8 128 .cfa: sp 0 +
STACK CFI 32afc .cfa: sp 96 +
STACK CFI 32b10 .cfa: x29 64 + x19: .cfa -8 + ^ x20: .cfa -16 + ^ x21: .cfa -24 + ^ x22: .cfa -32 + ^ x23: .cfa -48 + ^ .ra: .cfa -56 + ^ x29: .cfa -64 + ^
STACK CFI 32bc4 .cfa: sp 96 +
STACK CFI 32bd8 .cfa: sp 0 +
STACK CFI 32bdc .cfa: x29 64 +
STACK CFI INIT 32cf0 284 .cfa: sp 0 +
STACK CFI 32cf4 .cfa: sp 160 +
STACK CFI 32d04 .cfa: x29 48 + x19: .cfa -8 + ^ x20: .cfa -16 + ^ x21: .cfa -32 + ^ .ra: .cfa -40 + ^ x29: .cfa -48 + ^
STACK CFI 32eac .cfa: sp 160 +
STACK CFI 32ebc .cfa: sp 0 +
STACK CFI 32ec0 .cfa: x29 48 +
STACK CFI INIT 32f74 1c4 .cfa: sp 0 +
STACK CFI 32f78 .cfa: sp 128 +
STACK CFI 32f8c .cfa: x29 64 + x19: .cfa -8 + ^ x20: .cfa -16 + ^ x21: .cfa -24 + ^ x22: .cfa -32 + ^ x23: .cfa -40 + ^ x24: .cfa -48 + ^ .ra: .cfa -56 + ^ x29: .cfa -64 + ^
STACK CFI 330a8 .cfa: sp 128 +
STACK CFI 330bc .cfa: sp 0 +
STACK CFI 330c0 .cfa: x29 64 +
STACK CFI INIT 3314c 3fc .cfa: sp 0 +
STACK CFI 33150 .cfa: sp 224 +
STACK CFI 3316c .cfa: x29 96 + x19: .cfa -8 + ^ x20: .cfa -16 + ^ x21: .cfa -24 + ^ x22: .cfa -32 + ^ x23: .cfa -40 + ^ x24: .cfa -48 + ^ x25: .cfa -56 + ^ x26: .cfa -64 + ^ x27: .cfa -72 + ^ x28: .cfa -80 + ^ .ra: .cfa -88 + ^ x29: .cfa -96 + ^
STACK CFI 33444 .cfa: sp 224 +
STACK CFI 33460 .cfa: sp 0 +
STACK CFI 33464 .cfa: x29 96 +
STACK CFI INIT 33548 2a0 .cfa: sp 0 +
STACK CFI 3354c .cfa: sp 176 +
STACK CFI 33560 .cfa: x29 64 + x19: .cfa -8 + ^ x20: .cfa -16 + ^ x21: .cfa -24 + ^ x22: .cfa -32 + ^ x23: .cfa -48 + ^ .ra: .cfa -56 + ^ x29: .cfa -64 + ^
STACK CFI 33710 .cfa: sp 176 +
STACK CFI 33724 .cfa: sp 0 +
STACK CFI 33728 .cfa: x29 64 +
STACK CFI INIT 33838 74 .cfa: sp 0 +
STACK CFI 3383c .cfa: sp 48 +
STACK CFI 33848 .cfa: x29 32 + x19: .cfa -8 + ^ x20: .cfa -16 + ^ .ra: .cfa -24 + ^ x29: .cfa -32 + ^
STACK CFI 33894 .cfa: sp 48 +
STACK CFI 338a0 .cfa: sp 0 +
STACK CFI 338a4 .cfa: x29 32 +
STACK CFI INIT 3392c 154 .cfa: sp 0 +
STACK CFI 33930 .cfa: sp 384 +
STACK CFI 33944 .cfa: x29 64 + x19: .cfa -8 + ^ x20: .cfa -16 + ^ x21: .cfa -24 + ^ x22: .cfa -32 + ^ x23: .cfa -40 + ^ x28: .cfa -48 + ^ .ra: .cfa -56 + ^ x29: .cfa -64 + ^
STACK CFI 33a28 .cfa: sp 384 +
STACK CFI 33a3c .cfa: sp 0 +
STACK CFI 33a40 .cfa: x29 64 +
STACK CFI INIT 33a80 228 .cfa: sp 0 +
STACK CFI 33a84 .cfa: sp 128 +
STACK CFI 33a9c .cfa: x29 80 + x19: .cfa -8 + ^ x20: .cfa -16 + ^ x21: .cfa -24 + ^ x22: .cfa -32 + ^ x23: .cfa -40 + ^ x24: .cfa -48 + ^ x25: .cfa -64 + ^ .ra: .cfa -72 + ^ x29: .cfa -80 + ^
STACK CFI 33c38 .cfa: sp 128 +
STACK CFI 33c50 .cfa: sp 0 +
STACK CFI 33c54 .cfa: x29 80 +
STACK CFI INIT 34384 134 .cfa: sp 0 +
STACK CFI 34388 .cfa: sp 128 +
STACK CFI 3439c .cfa: x29 64 + x19: .cfa -8 + ^ x20: .cfa -16 + ^ x21: .cfa -24 + ^ x22: .cfa -32 + ^ x23: .cfa -40 + ^ x24: .cfa -48 + ^ .ra: .cfa -56 + ^ x29: .cfa -64 + ^
STACK CFI 34468 .cfa: sp 128 +
STACK CFI 3447c .cfa: sp 0 +
STACK CFI 34480 .cfa: x29 64 +
STACK CFI INIT 348d4 330 .cfa: sp 0 +
STACK CFI 348d8 .cfa: sp 224 +
STACK CFI 348ec .cfa: x29 64 + x19: .cfa -8 + ^ x20: .cfa -16 + ^ x21: .cfa -24 + ^ x22: .cfa -32 + ^ x23: .cfa -48 + ^ .ra: .cfa -56 + ^ x29: .cfa -64 + ^
STACK CFI 34af4 .cfa: sp 224 +
STACK CFI 34b08 .cfa: sp 0 +
STACK CFI 34b0c .cfa: x29 64 +
STACK CFI INIT 34c08 178 .cfa: sp 0 +
STACK CFI 34c0c .cfa: sp 80 +
STACK CFI 34c1c .cfa: x29 48 + x19: .cfa -8 + ^ x20: .cfa -16 + ^ x21: .cfa -24 + ^ x22: .cfa -32 + ^ .ra: .cfa -40 + ^ x29: .cfa -48 + ^
STACK CFI 34d3c .cfa: sp 80 +
STACK CFI 34d4c .cfa: sp 0 +
STACK CFI 34d50 .cfa: x29 48 +
STACK CFI INIT 34d80 a8 .cfa: sp 0 +
STACK CFI 34d84 .cfa: sp 32 +
STACK CFI 34d8c .cfa: x29 32 + x19: .cfa -16 + ^ .ra: .cfa -24 + ^ x29: .cfa -32 + ^
STACK CFI 34dc0 .cfa: sp 32 +
STACK CFI 34dc8 .cfa: sp 0 +
STACK CFI 34dcc .cfa: x29 32 +
STACK CFI 34dd0 .cfa: sp 32 +
STACK CFI 34dd8 .cfa: sp 0 +
STACK CFI 34ddc .cfa: x29 32 +
STACK CFI INIT 34eb4 220 .cfa: sp 0 +
STACK CFI 34eb8 .cfa: sp 80 +
STACK CFI 34ecc .cfa: x29 80 + x19: .cfa -8 + ^ x20: .cfa -16 + ^ x21: .cfa -24 + ^ x22: .cfa -32 + ^ x23: .cfa -40 + ^ x24: .cfa -48 + ^ x28: .cfa -64 + ^ .ra: .cfa -72 + ^ x29: .cfa -80 + ^
STACK CFI 3502c .cfa: sp 80 +
STACK CFI 35040 .cfa: sp 0 +
STACK CFI 35044 .cfa: x29 80 +
STACK CFI INIT 350d4 29c .cfa: sp 0 +
STACK CFI 350d8 .cfa: sp 160 +
STACK CFI 350ec .cfa: x29 64 + x19: .cfa -8 + ^ x20: .cfa -16 + ^ x21: .cfa -24 + ^ x22: .cfa -32 + ^ x23: .cfa -40 + ^ x24: .cfa -48 + ^ .ra: .cfa -56 + ^ x29: .cfa -64 + ^
STACK CFI 35350 .cfa: sp 160 +
STACK CFI 35364 .cfa: sp 0 +
STACK CFI 35368 .cfa: x29 64 +
STACK CFI INIT 35410 150 .cfa: sp 0 +
STACK CFI 35414 .cfa: sp 48 +
STACK CFI 35420 .cfa: x29 48 + x19: .cfa -8 + ^ x20: .cfa -16 + ^ x21: .cfa -32 + ^ .ra: .cfa -40 + ^ x29: .cfa -48 + ^
STACK CFI 354e8 .cfa: sp 48 +
STACK CFI 354f4 .cfa: sp 0 +
STACK CFI 354f8 .cfa: x29 48 +
STACK CFI 35510 .cfa: sp 48 +
STACK CFI 3551c .cfa: sp 0 +
STACK CFI 35520 .cfa: x29 48 +
STACK CFI INIT 35700 634 .cfa: sp 0 +
STACK CFI 35704 .cfa: sp 128 +
STACK CFI 35724 .cfa: x29 96 + x19: .cfa -8 + ^ x20: .cfa -16 + ^ x21: .cfa -24 + ^ x22: .cfa -32 + ^ x23: .cfa -40 + ^ x24: .cfa -48 + ^ x25: .cfa -56 + ^ x26: .cfa -64 + ^ x27: .cfa -72 + ^ x28: .cfa -80 + ^ .ra: .cfa -88 + ^ x29: .cfa -96 + ^ v8: .cfa -104 + ^ v9: .cfa -112 + ^ v10: .cfa -128 + ^
STACK CFI 35c14 .cfa: sp 128 +
STACK CFI 35c34 .cfa: sp 0 +
STACK CFI 35c38 .cfa: x29 96 +
STACK CFI INIT 35d34 1e8 .cfa: sp 0 +
STACK CFI 35d38 .cfa: sp 96 +
STACK CFI 35d54 .cfa: x29 88 + x19: .cfa -8 + ^ x20: .cfa -16 + ^ x21: .cfa -24 + ^ x22: .cfa -32 + ^ x23: .cfa -40 + ^ x24: .cfa -48 + ^ x25: .cfa -56 + ^ x26: .cfa -64 + ^ x28: .cfa -72 + ^ .ra: .cfa -80 + ^ x29: .cfa -88 + ^ v8: .cfa -96 + ^
STACK CFI 35e5c .cfa: sp 96 +
STACK CFI 35e78 .cfa: sp 0 +
STACK CFI 35e7c .cfa: x29 88 +
STACK CFI INIT 361d4 20c .cfa: sp 0 +
STACK CFI 361d8 .cfa: sp 128 +
STACK CFI 361ec .cfa: x29 48 + x19: .cfa -8 + ^ x20: .cfa -16 + ^ x21: .cfa -24 + ^ x22: .cfa -32 + ^ .ra: .cfa -40 + ^ x29: .cfa -48 + ^ v8: .cfa -64 + ^
STACK CFI 36388 .cfa: sp 128 +
STACK CFI 3639c .cfa: sp 0 +
STACK CFI 363a0 .cfa: x29 48 +
STACK CFI INIT 36408 74 .cfa: sp 0 +
STACK CFI 3640c .cfa: sp 48 +
STACK CFI 36418 .cfa: x29 32 + x19: .cfa -8 + ^ x20: .cfa -16 + ^ .ra: .cfa -24 + ^ x29: .cfa -32 + ^
STACK CFI 36464 .cfa: sp 48 +
STACK CFI 36470 .cfa: sp 0 +
STACK CFI 36474 .cfa: x29 32 +
STACK CFI INIT 3647c 2f8 .cfa: sp 0 +
STACK CFI 36480 .cfa: sp 160 +
STACK CFI 3649c .cfa: x29 96 + x19: .cfa -8 + ^ x20: .cfa -16 + ^ x21: .cfa -24 + ^ x22: .cfa -32 + ^ x23: .cfa -40 + ^ x24: .cfa -48 + ^ x25: .cfa -56 + ^ x26: .cfa -64 + ^ x27: .cfa -80 + ^ .ra: .cfa -88 + ^ x29: .cfa -96 + ^
STACK CFI 366bc .cfa: sp 160 +
STACK CFI 366d8 .cfa: sp 0 +
STACK CFI 366dc .cfa: x29 96 +
STACK CFI INIT 36774 784 .cfa: sp 0 +
STACK CFI 36778 .cfa: sp 384 +
STACK CFI 36794 .cfa: x29 96 + x19: .cfa -8 + ^ x20: .cfa -16 + ^ x21: .cfa -24 + ^ x22: .cfa -32 + ^ x23: .cfa -40 + ^ x24: .cfa -48 + ^ x25: .cfa -56 + ^ x26: .cfa -64 + ^ x27: .cfa -72 + ^ x28: .cfa -80 + ^ .ra: .cfa -88 + ^ x29: .cfa -96 + ^
STACK CFI 36dc4 .cfa: sp 384 +
STACK CFI 36de0 .cfa: sp 0 +
STACK CFI 36de4 .cfa: x29 96 +
STACK CFI INIT 36ef8 13c .cfa: sp 0 +
STACK CFI 36efc .cfa: sp 112 +
STACK CFI 36f0c .cfa: x29 48 + x19: .cfa -8 + ^ x20: .cfa -16 + ^ x21: .cfa -32 + ^ .ra: .cfa -40 + ^ x29: .cfa -48 + ^
STACK CFI 36fcc .cfa: sp 112 +
STACK CFI 36fdc .cfa: sp 0 +
STACK CFI 36fe0 .cfa: x29 48 +
STACK CFI INIT 37034 14c .cfa: sp 0 +
STACK CFI 37038 .cfa: sp 112 +
STACK CFI 3704c .cfa: x29 40 + x19: .cfa -8 + ^ x20: .cfa -16 + ^ x21: .cfa -24 + ^ .ra: .cfa -32 + ^ x29: .cfa -40 + ^ v8: .cfa -48 + ^
STACK CFI 37114 .cfa: sp 112 +
STACK CFI 37128 .cfa: sp 0 +
STACK CFI 3712c .cfa: x29 40 +
STACK CFI INIT 37180 3a8 .cfa: sp 0 +
STACK CFI 37184 .cfa: sp 176 +
STACK CFI 3719c .cfa: x29 80 + x19: .cfa -8 + ^ x20: .cfa -16 + ^ x21: .cfa -24 + ^ x22: .cfa -32 + ^ x23: .cfa -40 + ^ x24: .cfa -48 + ^ x25: .cfa -64 + ^ .ra: .cfa -72 + ^ x29: .cfa -80 + ^
STACK CFI 37504 .cfa: sp 176 +
STACK CFI 3751c .cfa: sp 0 +
STACK CFI 37520 .cfa: x29 80 +
STACK CFI INIT 37528 3e4 .cfa: sp 0 +
STACK CFI 3752c .cfa: sp 160 +
STACK CFI 3753c .cfa: x29 48 + x19: .cfa -8 + ^ x20: .cfa -16 + ^ x21: .cfa -24 + ^ x22: .cfa -32 + ^ .ra: .cfa -40 + ^ x29: .cfa -48 + ^
STACK CFI 37888 .cfa: sp 160 +
STACK CFI 37898 .cfa: sp 0 +
STACK CFI 3789c .cfa: x29 48 +
STACK CFI INIT 3790c 14c .cfa: sp 0 +
STACK CFI 37910 .cfa: sp 48 +
STACK CFI 3791c .cfa: x29 48 + x19: .cfa -8 + ^ x20: .cfa -16 + ^ x21: .cfa -32 + ^ .ra: .cfa -40 + ^ x29: .cfa -48 + ^
STACK CFI 379e0 .cfa: sp 48 +
STACK CFI 379ec .cfa: sp 0 +
STACK CFI 379f0 .cfa: x29 48 +
STACK CFI 37a08 .cfa: sp 48 +
STACK CFI 37a14 .cfa: sp 0 +
STACK CFI 37a18 .cfa: x29 48 +
STACK CFI INIT 37a58 6c .cfa: sp 0 +
STACK CFI 37a5c .cfa: sp 32 +
STACK CFI 37a64 .cfa: x29 32 + x19: .cfa -16 + ^ .ra: .cfa -24 + ^ x29: .cfa -32 + ^
STACK CFI 37ab4 .cfa: sp 32 +
STACK CFI 37abc .cfa: sp 0 +
STACK CFI 37ac0 .cfa: x29 32 +
STACK CFI INIT 37ac4 74 .cfa: sp 0 +
STACK CFI 37ac8 .cfa: sp 32 +
STACK CFI 37ad0 .cfa: x29 32 + x19: .cfa -16 + ^ .ra: .cfa -24 + ^ x29: .cfa -32 + ^
STACK CFI 37b28 .cfa: sp 32 +
STACK CFI 37b30 .cfa: sp 0 +
STACK CFI 37b34 .cfa: x29 32 +
STACK CFI INIT 37b98 148 .cfa: sp 0 +
STACK CFI 37b9c .cfa: sp 96 +
STACK CFI 37bac .cfa: x29 48 + x19: .cfa -8 + ^ x20: .cfa -16 + ^ x21: .cfa -32 + ^ .ra: .cfa -40 + ^ x29: .cfa -48 + ^
STACK CFI 37c94 .cfa: sp 96 +
STACK CFI 37ca4 .cfa: sp 0 +
STACK CFI 37ca8 .cfa: x29 48 +
STACK CFI INIT 37ce0 6c .cfa: sp 0 +
STACK CFI 37ce4 .cfa: sp 32 +
STACK CFI 37cec .cfa: x29 32 + x19: .cfa -16 + ^ .ra: .cfa -24 + ^ x29: .cfa -32 + ^
STACK CFI 37d3c .cfa: sp 32 +
STACK CFI 37d44 .cfa: sp 0 +
STACK CFI 37d48 .cfa: x29 32 +
STACK CFI INIT 37d4c 74 .cfa: sp 0 +
STACK CFI 37d50 .cfa: sp 32 +
STACK CFI 37d58 .cfa: x29 32 + x19: .cfa -16 + ^ .ra: .cfa -24 + ^ x29: .cfa -32 + ^
STACK CFI 37db0 .cfa: sp 32 +
STACK CFI 37db8 .cfa: sp 0 +
STACK CFI 37dbc .cfa: x29 32 +
STACK CFI INIT 37dfc 6c .cfa: sp 0 +
STACK CFI 37e00 .cfa: sp 32 +
STACK CFI 37e08 .cfa: x29 32 + x19: .cfa -16 + ^ .ra: .cfa -24 + ^ x29: .cfa -32 + ^
STACK CFI 37e58 .cfa: sp 32 +
STACK CFI 37e60 .cfa: sp 0 +
STACK CFI 37e64 .cfa: x29 32 +
STACK CFI INIT 37e6c 194 .cfa: sp 0 +
STACK CFI 37e70 .cfa: sp 144 +
STACK CFI 37e80 .cfa: x29 48 + x19: .cfa -8 + ^ x20: .cfa -16 + ^ x21: .cfa -24 + ^ x22: .cfa -32 + ^ .ra: .cfa -40 + ^ x29: .cfa -48 + ^
STACK CFI 37f80 .cfa: sp 144 +
STACK CFI 37f90 .cfa: sp 0 +
STACK CFI 37f94 .cfa: x29 48 +
STACK CFI INIT 38000 1c8 .cfa: sp 0 +
STACK CFI 38004 .cfa: sp 112 +
STACK CFI 38014 .cfa: x29 48 + x19: .cfa -8 + ^ x20: .cfa -16 + ^ x21: .cfa -24 + ^ x22: .cfa -32 + ^ .ra: .cfa -40 + ^ x29: .cfa -48 + ^
STACK CFI 38168 .cfa: sp 112 +
STACK CFI 38178 .cfa: sp 0 +
STACK CFI 3817c .cfa: x29 48 +
STACK CFI INIT 3891c 9c .cfa: sp 0 +
STACK CFI 38920 .cfa: sp 32 +
STACK CFI 38928 .cfa: x29 32 + x19: .cfa -8 + ^ x20: .cfa -16 + ^ .ra: .cfa -24 + ^ x29: .cfa -32 + ^
STACK CFI 38974 .cfa: sp 32 +
STACK CFI 3897c .cfa: sp 0 +
STACK CFI 38980 .cfa: x29 32 +
STACK CFI 38998 .cfa: sp 32 +
STACK CFI 389a0 .cfa: sp 0 +
STACK CFI 389a4 .cfa: x29 32 +
STACK CFI INIT 38ad0 16c .cfa: sp 0 +
STACK CFI 38ad4 .cfa: sp 112 +
STACK CFI 38aec .cfa: x29 80 + x19: .cfa -8 + ^ x20: .cfa -16 + ^ x21: .cfa -24 + ^ x22: .cfa -32 + ^ x23: .cfa -40 + ^ x24: .cfa -48 + ^ x25: .cfa -56 + ^ x26: .cfa -64 + ^ .ra: .cfa -72 + ^ x29: .cfa -80 + ^
STACK CFI 38bc4 .cfa: sp 112 +
STACK CFI 38bdc .cfa: sp 0 +
STACK CFI 38be0 .cfa: x29 80 +
STACK CFI INIT 39160 c78 .cfa: sp 0 +
STACK CFI 39164 .cfa: sp 112 +
STACK CFI 39180 .cfa: x29 96 + x19: .cfa -8 + ^ x20: .cfa -16 + ^ x21: .cfa -24 + ^ x22: .cfa -32 + ^ x23: .cfa -40 + ^ x24: .cfa -48 + ^ x25: .cfa -56 + ^ x26: .cfa -64 + ^ x27: .cfa -72 + ^ x28: .cfa -80 + ^ .ra: .cfa -88 + ^ x29: .cfa -96 + ^ v8: .cfa -112 + ^
STACK CFI 39bfc .cfa: sp 112 +
STACK CFI 39c18 .cfa: sp 0 +
STACK CFI 39c1c .cfa: x29 96 +
STACK CFI INIT 39dd8 4dc .cfa: sp 0 +
STACK CFI 39ddc .cfa: sp 288 +
STACK CFI 39df4 .cfa: x29 64 + x19: .cfa -8 + ^ x20: .cfa -16 + ^ x21: .cfa -24 + ^ x22: .cfa -32 + ^ x23: .cfa -40 + ^ x28: .cfa -48 + ^ .ra: .cfa -56 + ^ x29: .cfa -64 + ^ v8: .cfa -80 + ^
STACK CFI 3a180 .cfa: sp 288 +
STACK CFI 3a198 .cfa: sp 0 +
STACK CFI 3a19c .cfa: x29 64 +
STACK CFI INIT 3a2b4 cfc .cfa: sp 0 +
STACK CFI 3a2b8 .cfa: sp 160 +
STACK CFI 3a2e0 .cfa: x29 96 + x19: .cfa -8 + ^ x20: .cfa -16 + ^ x21: .cfa -24 + ^ x22: .cfa -32 + ^ x23: .cfa -40 + ^ x24: .cfa -48 + ^ x25: .cfa -56 + ^ x26: .cfa -64 + ^ x27: .cfa -72 + ^ x28: .cfa -80 + ^ .ra: .cfa -88 + ^ x29: .cfa -96 + ^ v8: .cfa -104 + ^ v9: .cfa -112 + ^ v10: .cfa -120 + ^ v11: .cfa -128 + ^ v12: .cfa -136 + ^ v13: .cfa -144 + ^ v14: .cfa -152 + ^ v15: .cfa -160 + ^
STACK CFI 3ad98 .cfa: sp 160 +
STACK CFI 3adc0 .cfa: sp 0 +
STACK CFI 3adc4 .cfa: x29 96 +
STACK CFI INIT 3afb0 170 .cfa: sp 0 +
STACK CFI 3afb4 .cfa: sp 80 +
STACK CFI 3afc4 .cfa: x29 48 + x19: .cfa -8 + ^ x20: .cfa -16 + ^ x21: .cfa -32 + ^ .ra: .cfa -40 + ^ x29: .cfa -48 + ^
STACK CFI 3b0e4 .cfa: sp 80 +
STACK CFI 3b0f4 .cfa: sp 0 +
STACK CFI 3b0f8 .cfa: x29 48 +
STACK CFI INIT 3b120 4d4 .cfa: sp 0 +
STACK CFI 3b124 .cfa: sp 96 +
STACK CFI 3b13c .cfa: x29 96 + x19: .cfa -8 + ^ x20: .cfa -16 + ^ x21: .cfa -24 + ^ x22: .cfa -32 + ^ x23: .cfa -40 + ^ x24: .cfa -48 + ^ x25: .cfa -56 + ^ x26: .cfa -64 + ^ x27: .cfa -72 + ^ x28: .cfa -80 + ^ .ra: .cfa -88 + ^ x29: .cfa -96 + ^
STACK CFI 3b4c4 .cfa: sp 96 +
STACK CFI 3b4dc .cfa: sp 0 +
STACK CFI 3b4e0 .cfa: x29 96 +
STACK CFI 3b4f4 .cfa: sp 96 +
STACK CFI 3b50c .cfa: sp 0 +
STACK CFI 3b510 .cfa: x29 96 +
STACK CFI INIT 3b5f4 124 .cfa: sp 0 +
STACK CFI 3b5f8 .cfa: sp 48 +
STACK CFI 3b604 .cfa: x29 48 + x19: .cfa -8 + ^ x20: .cfa -16 + ^ x21: .cfa -32 + ^ .ra: .cfa -40 + ^ x29: .cfa -48 + ^
STACK CFI 3b704 .cfa: sp 48 +
STACK CFI 3b710 .cfa: sp 0 +
STACK CFI 3b714 .cfa: x29 48 +
STACK CFI INIT 3b790 148 .cfa: sp 0 +
STACK CFI 3b794 .cfa: sp 96 +
STACK CFI 3b7a4 .cfa: x29 48 + x19: .cfa -8 + ^ x20: .cfa -16 + ^ x21: .cfa -32 + ^ .ra: .cfa -40 + ^ x29: .cfa -48 + ^
STACK CFI 3b88c .cfa: sp 96 +
STACK CFI 3b89c .cfa: sp 0 +
STACK CFI 3b8a0 .cfa: x29 48 +
STACK CFI INIT 3ba64 6c .cfa: sp 0 +
STACK CFI 3ba68 .cfa: sp 32 +
STACK CFI 3ba70 .cfa: x29 32 + x19: .cfa -16 + ^ .ra: .cfa -24 + ^ x29: .cfa -32 + ^
STACK CFI 3bac0 .cfa: sp 32 +
STACK CFI 3bac8 .cfa: sp 0 +
STACK CFI 3bacc .cfa: x29 32 +
STACK CFI INIT 3bad4 6c .cfa: sp 0 +
STACK CFI 3bad8 .cfa: sp 32 +
STACK CFI 3bae0 .cfa: x29 32 + x19: .cfa -16 + ^ .ra: .cfa -24 + ^ x29: .cfa -32 + ^
STACK CFI 3bb30 .cfa: sp 32 +
STACK CFI 3bb38 .cfa: sp 0 +
STACK CFI 3bb3c .cfa: x29 32 +
STACK CFI INIT 3bb98 358 .cfa: sp 0 +
STACK CFI 3bb9c .cfa: sp 96 +
STACK CFI 3bbb4 .cfa: x29 96 + x19: .cfa -8 + ^ x20: .cfa -16 + ^ x21: .cfa -24 + ^ x22: .cfa -32 + ^ x23: .cfa -40 + ^ x24: .cfa -48 + ^ x25: .cfa -56 + ^ x26: .cfa -64 + ^ x28: .cfa -80 + ^ .ra: .cfa -88 + ^ x29: .cfa -96 + ^
STACK CFI 3be4c .cfa: sp 96 +
STACK CFI 3be64 .cfa: sp 0 +
STACK CFI 3be68 .cfa: x29 96 +
STACK CFI INIT 3bf6c 318 .cfa: sp 0 +
STACK CFI 3bf70 .cfa: sp 160 +
STACK CFI 3bf88 .cfa: x29 80 + x19: .cfa -8 + ^ x20: .cfa -16 + ^ x21: .cfa -24 + ^ x22: .cfa -32 + ^ x23: .cfa -40 + ^ x24: .cfa -48 + ^ x25: .cfa -64 + ^ .ra: .cfa -72 + ^ x29: .cfa -80 + ^
STACK CFI 3c214 .cfa: sp 160 +
STACK CFI 3c22c .cfa: sp 0 +
STACK CFI 3c230 .cfa: x29 80 +
STACK CFI INIT 3c300 470 .cfa: sp 0 +
STACK CFI 3c304 .cfa: sp 96 +
STACK CFI 3c320 .cfa: x29 88 + x19: .cfa -8 + ^ x20: .cfa -16 + ^ x21: .cfa -24 + ^ x22: .cfa -32 + ^ x23: .cfa -40 + ^ x24: .cfa -48 + ^ x25: .cfa -56 + ^ x26: .cfa -64 + ^ x28: .cfa -72 + ^ .ra: .cfa -80 + ^ x29: .cfa -88 + ^ v8: .cfa -96 + ^
STACK CFI 3c51c .cfa: sp 96 +
STACK CFI 3c538 .cfa: sp 0 +
STACK CFI 3c53c .cfa: x29 88 +
STACK CFI INIT 3caf4 148 .cfa: sp 0 +
STACK CFI 3caf8 .cfa: sp 128 +
STACK CFI 3cb08 .cfa: x29 48 + x19: .cfa -8 + ^ x20: .cfa -16 + ^ x21: .cfa -32 + ^ .ra: .cfa -40 + ^ x29: .cfa -48 + ^
STACK CFI 3cba0 .cfa: sp 128 +
STACK CFI 3cbb0 .cfa: sp 0 +
STACK CFI 3cbb4 .cfa: x29 48 +
STACK CFI INIT 3ccc0 11c .cfa: sp 0 +
STACK CFI 3ccc4 .cfa: sp 64 +
STACK CFI 3ccd0 .cfa: x29 32 + x19: .cfa -8 + ^ x20: .cfa -16 + ^ .ra: .cfa -24 + ^ x29: .cfa -32 + ^
STACK CFI 3cd9c .cfa: sp 64 +
STACK CFI 3cda8 .cfa: sp 0 +
STACK CFI 3cdac .cfa: x29 32 +
STACK CFI INIT 3d310 fc .cfa: sp 0 +
STACK CFI 3d314 .cfa: sp 96 +
STACK CFI 3d324 .cfa: x29 48 + x19: .cfa -8 + ^ x20: .cfa -16 + ^ x21: .cfa -32 + ^ .ra: .cfa -40 + ^ x29: .cfa -48 + ^
STACK CFI 3d39c .cfa: sp 96 +
STACK CFI 3d3ac .cfa: sp 0 +
STACK CFI 3d3b0 .cfa: x29 48 +
STACK CFI INIT 3d40c 134 .cfa: sp 0 +
STACK CFI 3d410 .cfa: sp 80 +
STACK CFI 3d41c .cfa: x29 32 + x19: .cfa -8 + ^ x20: .cfa -16 + ^ .ra: .cfa -24 + ^ x29: .cfa -32 + ^
STACK CFI 3d44c .cfa: sp 80 +
STACK CFI 3d458 .cfa: sp 0 +
STACK CFI 3d45c .cfa: x29 32 +
STACK CFI INIT 3d540 78 .cfa: sp 0 +
STACK CFI 3d544 .cfa: sp 32 +
STACK CFI 3d54c .cfa: x29 32 + x19: .cfa -8 + ^ x20: .cfa -16 + ^ .ra: .cfa -24 + ^ x29: .cfa -32 + ^
STACK CFI 3d558 .cfa: sp 32 +
STACK CFI 3d560 .cfa: sp 0 +
STACK CFI 3d564 .cfa: x29 32 +
STACK CFI INIT 3d5b8 74 .cfa: sp 0 +
STACK CFI 3d5bc .cfa: sp 48 +
STACK CFI 3d5c8 .cfa: x29 32 + x19: .cfa -8 + ^ x20: .cfa -16 + ^ .ra: .cfa -24 + ^ x29: .cfa -32 + ^
STACK CFI 3d614 .cfa: sp 48 +
STACK CFI 3d620 .cfa: sp 0 +
STACK CFI 3d624 .cfa: x29 32 +
STACK CFI INIT 3d690 180 .cfa: sp 0 +
STACK CFI 3d694 .cfa: sp 112 +
STACK CFI 3d6a4 .cfa: x29 48 + x19: .cfa -8 + ^ x20: .cfa -16 + ^ x21: .cfa -32 + ^ .ra: .cfa -40 + ^ x29: .cfa -48 + ^
STACK CFI 3d6fc .cfa: sp 112 +
STACK CFI 3d70c .cfa: sp 0 +
STACK CFI 3d710 .cfa: x29 48 +
STACK CFI INIT 3d810 174 .cfa: sp 0 +
STACK CFI 3d814 .cfa: sp 112 +
STACK CFI 3d824 .cfa: x29 48 + x19: .cfa -8 + ^ x20: .cfa -16 + ^ x21: .cfa -32 + ^ .ra: .cfa -40 + ^ x29: .cfa -48 + ^
STACK CFI 3d870 .cfa: sp 112 +
STACK CFI 3d880 .cfa: sp 0 +
STACK CFI 3d884 .cfa: x29 48 +
STACK CFI INIT 3d984 194 .cfa: sp 0 +
STACK CFI 3d988 .cfa: sp 112 +
STACK CFI 3d998 .cfa: x29 48 + x19: .cfa -8 + ^ x20: .cfa -16 + ^ x21: .cfa -32 + ^ .ra: .cfa -40 + ^ x29: .cfa -48 + ^
STACK CFI 3da04 .cfa: sp 112 +
STACK CFI 3da14 .cfa: sp 0 +
STACK CFI 3da18 .cfa: x29 48 +
STACK CFI INIT 3db3c 198 .cfa: sp 0 +
STACK CFI 3db40 .cfa: sp 112 +
STACK CFI 3db50 .cfa: x29 48 + x19: .cfa -8 + ^ x20: .cfa -16 + ^ x21: .cfa -32 + ^ .ra: .cfa -40 + ^ x29: .cfa -48 + ^
STACK CFI 3dbc0 .cfa: sp 112 +
STACK CFI 3dbd0 .cfa: sp 0 +
STACK CFI 3dbd4 .cfa: x29 48 +
STACK CFI INIT 3dd4c 1a0 .cfa: sp 0 +
STACK CFI 3dd50 .cfa: sp 112 +
STACK CFI 3dd60 .cfa: x29 48 + x19: .cfa -8 + ^ x20: .cfa -16 + ^ x21: .cfa -32 + ^ .ra: .cfa -40 + ^ x29: .cfa -48 + ^
STACK CFI 3dde0 .cfa: sp 112 +
STACK CFI 3ddf0 .cfa: sp 0 +
STACK CFI 3ddf4 .cfa: x29 48 +
STACK CFI INIT 3deec 1a0 .cfa: sp 0 +
STACK CFI 3def0 .cfa: sp 112 +
STACK CFI 3df00 .cfa: x29 48 + x19: .cfa -8 + ^ x20: .cfa -16 + ^ x21: .cfa -32 + ^ .ra: .cfa -40 + ^ x29: .cfa -48 + ^
STACK CFI 3df78 .cfa: sp 112 +
STACK CFI 3df88 .cfa: sp 0 +
STACK CFI 3df8c .cfa: x29 48 +
STACK CFI INIT 3e08c 24c .cfa: sp 0 +
STACK CFI 3e090 .cfa: sp 128 +
STACK CFI 3e0a4 .cfa: x29 64 + x19: .cfa -8 + ^ x20: .cfa -16 + ^ x21: .cfa -24 + ^ x22: .cfa -32 + ^ x23: .cfa -48 + ^ .ra: .cfa -56 + ^ x29: .cfa -64 + ^
STACK CFI 3e174 .cfa: sp 128 +
STACK CFI 3e188 .cfa: sp 0 +
STACK CFI 3e18c .cfa: x29 64 +
STACK CFI INIT 3e41c 22c .cfa: sp 0 +
STACK CFI 3e420 .cfa: sp 128 +
STACK CFI 3e434 .cfa: x29 64 + x19: .cfa -8 + ^ x20: .cfa -16 + ^ x21: .cfa -24 + ^ x22: .cfa -32 + ^ x23: .cfa -48 + ^ .ra: .cfa -56 + ^ x29: .cfa -64 + ^
STACK CFI 3e4e4 .cfa: sp 128 +
STACK CFI 3e4f8 .cfa: sp 0 +
STACK CFI 3e4fc .cfa: x29 64 +
STACK CFI INIT 3e648 22c .cfa: sp 0 +
STACK CFI 3e64c .cfa: sp 128 +
STACK CFI 3e660 .cfa: x29 64 + x19: .cfa -8 + ^ x20: .cfa -16 + ^ x21: .cfa -24 + ^ x22: .cfa -32 + ^ x23: .cfa -48 + ^ .ra: .cfa -56 + ^ x29: .cfa -64 + ^
STACK CFI 3e710 .cfa: sp 128 +
STACK CFI 3e724 .cfa: sp 0 +
STACK CFI 3e728 .cfa: x29 64 +
STACK CFI INIT 3e904 244 .cfa: sp 0 +
STACK CFI 3e908 .cfa: sp 128 +
STACK CFI 3e91c .cfa: x29 64 + x19: .cfa -8 + ^ x20: .cfa -16 + ^ x21: .cfa -24 + ^ x22: .cfa -32 + ^ x23: .cfa -48 + ^ .ra: .cfa -56 + ^ x29: .cfa -64 + ^
STACK CFI 3e9e4 .cfa: sp 128 +
STACK CFI 3e9f8 .cfa: sp 0 +
STACK CFI 3e9fc .cfa: x29 64 +
STACK CFI INIT 3eb48 254 .cfa: sp 0 +
STACK CFI 3eb4c .cfa: sp 128 +
STACK CFI 3eb60 .cfa: x29 64 + x19: .cfa -8 + ^ x20: .cfa -16 + ^ x21: .cfa -24 + ^ x22: .cfa -32 + ^ x23: .cfa -48 + ^ .ra: .cfa -56 + ^ x29: .cfa -64 + ^
STACK CFI 3ec38 .cfa: sp 128 +
STACK CFI 3ec4c .cfa: sp 0 +
STACK CFI 3ec50 .cfa: x29 64 +
STACK CFI INIT 3ed9c 2b4 .cfa: sp 0 +
STACK CFI 3eda0 .cfa: sp 128 +
STACK CFI 3edb4 .cfa: x29 64 + x19: .cfa -8 + ^ x20: .cfa -16 + ^ x21: .cfa -24 + ^ x22: .cfa -32 + ^ x23: .cfa -40 + ^ x24: .cfa -48 + ^ .ra: .cfa -56 + ^ x29: .cfa -64 + ^
STACK CFI 3eeec .cfa: sp 128 +
STACK CFI 3ef00 .cfa: sp 0 +
STACK CFI 3ef04 .cfa: x29 64 +
STACK CFI INIT 3f050 224 .cfa: sp 0 +
STACK CFI 3f054 .cfa: sp 128 +
STACK CFI 3f068 .cfa: x29 64 + x19: .cfa -8 + ^ x20: .cfa -16 + ^ x21: .cfa -24 + ^ x22: .cfa -32 + ^ x23: .cfa -48 + ^ .ra: .cfa -56 + ^ x29: .cfa -64 + ^
STACK CFI 3f110 .cfa: sp 128 +
STACK CFI 3f124 .cfa: sp 0 +
STACK CFI 3f128 .cfa: x29 64 +
STACK CFI INIT 3f274 224 .cfa: sp 0 +
STACK CFI 3f278 .cfa: sp 128 +
STACK CFI 3f28c .cfa: x29 64 + x19: .cfa -8 + ^ x20: .cfa -16 + ^ x21: .cfa -24 + ^ x22: .cfa -32 + ^ x23: .cfa -48 + ^ .ra: .cfa -56 + ^ x29: .cfa -64 + ^
STACK CFI 3f334 .cfa: sp 128 +
STACK CFI 3f348 .cfa: sp 0 +
STACK CFI 3f34c .cfa: x29 64 +
STACK CFI INIT 3f498 154 .cfa: sp 0 +
STACK CFI 3f49c .cfa: sp 384 +
STACK CFI 3f4b0 .cfa: x29 64 + x19: .cfa -8 + ^ x20: .cfa -16 + ^ x21: .cfa -24 + ^ x22: .cfa -32 + ^ x23: .cfa -40 + ^ x28: .cfa -48 + ^ .ra: .cfa -56 + ^ x29: .cfa -64 + ^
STACK CFI 3f594 .cfa: sp 384 +
STACK CFI 3f5a8 .cfa: sp 0 +
STACK CFI 3f5ac .cfa: x29 64 +
STACK CFI INIT 3f604 4e0 .cfa: sp 0 +
STACK CFI 3f608 .cfa: sp 64 +
STACK CFI 3f618 .cfa: x29 64 + x19: .cfa -8 + ^ x20: .cfa -16 + ^ x21: .cfa -24 + ^ x22: .cfa -32 + ^ x23: .cfa -40 + ^ x24: .cfa -48 + ^ .ra: .cfa -56 + ^ x29: .cfa -64 + ^
STACK CFI 3fab8 .cfa: sp 64 +
STACK CFI 3fac8 .cfa: sp 0 +
STACK CFI 3facc .cfa: x29 64 +
STACK CFI INIT 40058 294 .cfa: sp 0 +
STACK CFI 4005c .cfa: sp 240 +
STACK CFI 40074 .cfa: x29 80 + x19: .cfa -8 + ^ x20: .cfa -16 + ^ x21: .cfa -24 + ^ x22: .cfa -32 + ^ x23: .cfa -40 + ^ x24: .cfa -48 + ^ x25: .cfa -64 + ^ .ra: .cfa -72 + ^ x29: .cfa -80 + ^
STACK CFI 40214 .cfa: sp 240 +
STACK CFI 4022c .cfa: sp 0 +
STACK CFI 40230 .cfa: x29 80 +
STACK CFI INIT 40368 50 .cfa: sp 0 +
STACK CFI 4036c .cfa: sp 32 +
STACK CFI 40374 .cfa: x29 32 + x19: .cfa -8 + ^ x20: .cfa -16 + ^ .ra: .cfa -24 + ^ x29: .cfa -32 + ^
STACK CFI INIT 403e4 7c0 .cfa: sp 0 +
STACK CFI 403e8 .cfa: sp 320 +
STACK CFI 40404 .cfa: x29 96 + x19: .cfa -8 + ^ x20: .cfa -16 + ^ x21: .cfa -24 + ^ x22: .cfa -32 + ^ x23: .cfa -40 + ^ x24: .cfa -48 + ^ x25: .cfa -56 + ^ x26: .cfa -64 + ^ x27: .cfa -72 + ^ x28: .cfa -80 + ^ .ra: .cfa -88 + ^ x29: .cfa -96 + ^
STACK CFI 40a54 .cfa: sp 320 +
STACK CFI 40a70 .cfa: sp 0 +
STACK CFI 40a74 .cfa: x29 96 +
STACK CFI INIT 44f24 c74 .cfa: sp 0 +
STACK CFI 44f28 .cfa: sp 96 +
STACK CFI 44f40 .cfa: x29 96 + x19: .cfa -8 + ^ x20: .cfa -16 + ^ x21: .cfa -24 + ^ x22: .cfa -32 + ^ x23: .cfa -40 + ^ x24: .cfa -48 + ^ x25: .cfa -56 + ^ x26: .cfa -64 + ^ x27: .cfa -72 + ^ x28: .cfa -80 + ^ .ra: .cfa -88 + ^ x29: .cfa -96 + ^
STACK CFI 459b8 .cfa: sp 96 +
STACK CFI 459d0 .cfa: sp 0 +
STACK CFI 459d4 .cfa: x29 96 +
STACK CFI INIT 45cec 26c .cfa: sp 0 +
STACK CFI 45cf0 .cfa: sp 128 +
STACK CFI 45d00 .cfa: x29 48 + x19: .cfa -8 + ^ x20: .cfa -16 + ^ x21: .cfa -24 + ^ x22: .cfa -32 + ^ .ra: .cfa -40 + ^ x29: .cfa -48 + ^
STACK CFI 45ea4 .cfa: sp 128 +
STACK CFI 45eb4 .cfa: sp 0 +
STACK CFI 45eb8 .cfa: x29 48 +
STACK CFI INIT 462e8 3b8 .cfa: sp 0 +
STACK CFI 462ec .cfa: sp 96 +
STACK CFI 46304 .cfa: x29 96 + x19: .cfa -8 + ^ x20: .cfa -16 + ^ x21: .cfa -24 + ^ x22: .cfa -32 + ^ x23: .cfa -40 + ^ x24: .cfa -48 + ^ x25: .cfa -56 + ^ x26: .cfa -64 + ^ x27: .cfa -72 + ^ x28: .cfa -80 + ^ .ra: .cfa -88 + ^ x29: .cfa -96 + ^
STACK CFI 46640 .cfa: sp 96 +
STACK CFI 46658 .cfa: sp 0 +
STACK CFI 4665c .cfa: x29 96 +
STACK CFI INIT 46740 cb4 .cfa: sp 0 +
STACK CFI 46744 .cfa: sp 96 +
STACK CFI 4675c .cfa: x29 96 + x19: .cfa -8 + ^ x20: .cfa -16 + ^ x21: .cfa -24 + ^ x22: .cfa -32 + ^ x23: .cfa -40 + ^ x24: .cfa -48 + ^ x25: .cfa -56 + ^ x26: .cfa -64 + ^ x27: .cfa -72 + ^ x28: .cfa -80 + ^ .ra: .cfa -88 + ^ x29: .cfa -96 + ^
STACK CFI 47204 .cfa: sp 96 +
STACK CFI 4721c .cfa: sp 0 +
STACK CFI 47220 .cfa: x29 96 +
STACK CFI INIT 476dc afc .cfa: sp 0 +
STACK CFI 476e0 .cfa: sp 96 +
STACK CFI 476f8 .cfa: x29 96 + x19: .cfa -8 + ^ x20: .cfa -16 + ^ x21: .cfa -24 + ^ x22: .cfa -32 + ^ x23: .cfa -40 + ^ x24: .cfa -48 + ^ x25: .cfa -56 + ^ x26: .cfa -64 + ^ x27: .cfa -72 + ^ x28: .cfa -80 + ^ .ra: .cfa -88 + ^ x29: .cfa -96 + ^
STACK CFI 4814c .cfa: sp 96 +
STACK CFI 48164 .cfa: sp 0 +
STACK CFI 48168 .cfa: x29 96 +
STACK CFI INIT 483b4 1430 .cfa: sp 0 +
STACK CFI 483b8 .cfa: sp 96 +
STACK CFI 483d0 .cfa: x29 96 + x19: .cfa -8 + ^ x20: .cfa -16 + ^ x21: .cfa -24 + ^ x22: .cfa -32 + ^ x23: .cfa -40 + ^ x24: .cfa -48 + ^ x25: .cfa -56 + ^ x26: .cfa -64 + ^ x27: .cfa -72 + ^ x28: .cfa -80 + ^ .ra: .cfa -88 + ^ x29: .cfa -96 + ^
STACK CFI 4966c .cfa: sp 96 +
STACK CFI 49684 .cfa: sp 0 +
STACK CFI 49688 .cfa: x29 96 +
STACK CFI INIT 49908 75c .cfa: sp 0 +
STACK CFI 4990c .cfa: sp 368 +
STACK CFI 49928 .cfa: x29 96 + x19: .cfa -8 + ^ x20: .cfa -16 + ^ x21: .cfa -24 + ^ x22: .cfa -32 + ^ x23: .cfa -40 + ^ x24: .cfa -48 + ^ x25: .cfa -56 + ^ x26: .cfa -64 + ^ x27: .cfa -72 + ^ x28: .cfa -80 + ^ .ra: .cfa -88 + ^ x29: .cfa -96 + ^
STACK CFI 499dc .cfa: sp 368 +
STACK CFI 499f8 .cfa: sp 0 +
STACK CFI 499fc .cfa: x29 96 +
STACK CFI 49a50 .cfa: sp 368 +
STACK CFI 49a6c .cfa: sp 0 +
STACK CFI 49a70 .cfa: x29 96 +
STACK CFI INIT 4a424 eb0 .cfa: sp 0 +
STACK CFI 4a428 .cfa: sp 96 +
STACK CFI 4a440 .cfa: x29 96 + x19: .cfa -8 + ^ x20: .cfa -16 + ^ x21: .cfa -24 + ^ x22: .cfa -32 + ^ x23: .cfa -40 + ^ x24: .cfa -48 + ^ x25: .cfa -56 + ^ x26: .cfa -64 + ^ x27: .cfa -72 + ^ x28: .cfa -80 + ^ .ra: .cfa -88 + ^ x29: .cfa -96 + ^
STACK CFI 4b0e8 .cfa: sp 96 +
STACK CFI 4b100 .cfa: sp 0 +
STACK CFI 4b104 .cfa: x29 96 +
STACK CFI INIT 4b648 1c9c .cfa: sp 0 +
STACK CFI 4b64c .cfa: sp 112 +
STACK CFI 4b668 .cfa: x29 96 + x19: .cfa -8 + ^ x20: .cfa -16 + ^ x21: .cfa -24 + ^ x22: .cfa -32 + ^ x23: .cfa -40 + ^ x24: .cfa -48 + ^ x25: .cfa -56 + ^ x26: .cfa -64 + ^ x27: .cfa -72 + ^ x28: .cfa -80 + ^ .ra: .cfa -88 + ^ x29: .cfa -96 + ^ v8: .cfa -112 + ^
STACK CFI 4ba50 .cfa: sp 112 +
STACK CFI 4ba6c .cfa: sp 0 +
STACK CFI 4ba70 .cfa: x29 96 +
STACK CFI INIT 4faa8 9a0 .cfa: sp 0 +
STACK CFI 4faac .cfa: sp 144 +
STACK CFI 4fac4 .cfa: x29 80 + x19: .cfa -8 + ^ x20: .cfa -16 + ^ x21: .cfa -24 + ^ x22: .cfa -32 + ^ x23: .cfa -40 + ^ x24: .cfa -48 + ^ x25: .cfa -64 + ^ .ra: .cfa -72 + ^ x29: .cfa -80 + ^
STACK CFI 503c4 .cfa: sp 144 +
STACK CFI 503dc .cfa: sp 0 +
STACK CFI 503e0 .cfa: x29 80 +
STACK CFI INIT 5196c 57c .cfa: sp 0 +
STACK CFI 51970 .cfa: sp 96 +
STACK CFI 51988 .cfa: x29 96 + x19: .cfa -8 + ^ x20: .cfa -16 + ^ x21: .cfa -24 + ^ x22: .cfa -32 + ^ x23: .cfa -40 + ^ x24: .cfa -48 + ^ x25: .cfa -56 + ^ x26: .cfa -64 + ^ x27: .cfa -72 + ^ x28: .cfa -80 + ^ .ra: .cfa -88 + ^ x29: .cfa -96 + ^
STACK CFI 51e4c .cfa: sp 96 +
STACK CFI 51e64 .cfa: sp 0 +
STACK CFI 51e68 .cfa: x29 96 +
STACK CFI INIT 51ee8 67c .cfa: sp 0 +
STACK CFI 51eec .cfa: sp 96 +
STACK CFI 51f04 .cfa: x29 96 + x19: .cfa -8 + ^ x20: .cfa -16 + ^ x21: .cfa -24 + ^ x22: .cfa -32 + ^ x23: .cfa -40 + ^ x24: .cfa -48 + ^ x25: .cfa -56 + ^ x26: .cfa -64 + ^ x27: .cfa -72 + ^ x28: .cfa -80 + ^ .ra: .cfa -88 + ^ x29: .cfa -96 + ^
STACK CFI 524c8 .cfa: sp 96 +
STACK CFI 524e0 .cfa: sp 0 +
STACK CFI 524e4 .cfa: x29 96 +
