MODULE Linux arm64 CF29932E3F92375E102EB003D47E2C430 jarvisdevil.replacecomment.android64.so
INFO CODE_ID 2E9329CF923F5E37102EB003D47E2C43487261BD
INFO GENERATOR mozilla/dump_syms 2.3.4
PUBLIC 3620 0 __on_dlclose
PUBLIC 3630 0 __emutls_unregister_key
PUBLIC 3638 0 __on_dlclose_late
PUBLIC 3640 0 __atexit_handler_wrapper
PUBLIC 3654 0 atexit
PUBLIC 3670 0 pthread_atfork
PUBLIC 3680 0 __aarch64_ldadd8_relax
PUBLIC 36b0 0 init_have_lse_atomics
PUBLIC 3748 0 __init_cpu_features_constructor
PUBLIC 3ce4 0 __init_cpu_features
PUBLIC 3d70 0 __aarch64_ldadd8_acq_rel
PUBLIC 3da0 0 __cxx_global_var_init
PUBLIC 4940 0 geode::modifier::ModifyBase<geode::modifier::ModifyDerive<hook9<(anonymous namespace)::hook9Parent>, CommentCell> >::~ModifyBase()
PUBLIC 4958 0 geode::modifier::ModifyDerive<hook9<(anonymous namespace)::hook9Parent>, CommentCell>::apply()
PUBLIC 4f88 0 std::__ndk1::shared_ptr<geode::Hook>::~shared_ptr[abi:ne180000]()
PUBLIC 4fd8 0 geode::impl::ResultData<geode::Hook*, std::__ndk1::basic_string<char, std::__ndk1::char_traits<char>, std::__ndk1::allocator<char> > >::~ResultData()
PUBLIC 504c 0 std::__ndk1::vector<std::__ndk1::basic_string<char, std::__ndk1::char_traits<char>, std::__ndk1::allocator<char> >, std::__ndk1::allocator<std::__ndk1::basic_string<char, std::__ndk1::char_traits<char>, std::__ndk1::allocator<char> > > >::~vector[abi:ne180000]()
PUBLIC 50c8 0 geode::modifier::ModifyBase<geode::modifier::ModifyDerive<hook9<(anonymous namespace)::hook9Parent>, CommentCell> >::apply()
PUBLIC 50cc 0 __clang_call_terminate
PUBLIC 50dc 0 _ZN5geode15UnwrapExceptionC2IRPNS_4HookEQsr4implE18IsStringStreamableIT_EEENS_4impl5OkTagEOS5_
PUBLIC 56ac 0 std::__ndk1::__throw_bad_variant_access[abi:ne180000]()
PUBLIC m 56e0 0 std::__ndk1::basic_stringstream<char, std::__ndk1::char_traits<char>, std::__ndk1::allocator<char> >::~basic_stringstream()
PUBLIC 5760 0 geode::UnwrapException::~UnwrapException()
PUBLIC 5784 0 std::__ndk1::basic_string<char, std::__ndk1::char_traits<char>, std::__ndk1::allocator<char> >::__throw_length_error[abi:ne180000]() const
PUBLIC 5798 0 std::__ndk1::__throw_length_error[abi:ne180000](char const*)
PUBLIC 57e8 0 std::length_error::length_error[abi:ne180000](char const*)
PUBLIC 5818 0 std::__throw_bad_array_new_length([abi:ne180000], void)
PUBLIC 584c 0 std::__ndk1::basic_stringbuf<char, std::__ndk1::char_traits<char>, std::__ndk1::allocator<char> >::__init_buf_ptrs[abi:ne180000]()
PUBLIC 5994 0 std::__ndk1::basic_string<char, std::__ndk1::char_traits<char>, std::__ndk1::allocator<char> >::__init_copy_ctor_external(char const*, unsigned long)
PUBLIC 5a10 0 std::__ndk1::__split_buffer<std::__ndk1::basic_string<char, std::__ndk1::char_traits<char>, std::__ndk1::allocator<char> >, std::__ndk1::allocator<std::__ndk1::basic_string<char, std::__ndk1::char_traits<char>, std::__ndk1::allocator<char> > >&>::~__split_buffer()
PUBLIC 5a78 0 std::__ndk1::vector<std::__ndk1::basic_string<char, std::__ndk1::char_traits<char>, std::__ndk1::allocator<char> >, std::__ndk1::allocator<std::__ndk1::basic_string<char, std::__ndk1::char_traits<char>, std::__ndk1::allocator<char> > > >::__throw_length_error[abi:ne180000]() const
PUBLIC 5a8c 0 std::__ndk1::__variant_detail::__visitation::__base::__dispatcher<(unsigned long)0>::__dispatch[abi:ne180000]<std::__ndk1::__variant_detail::__dtor<std::__ndk1::__variant_detail::__traits<geode::Hook*, std::__ndk1::basic_string<char, std::__ndk1::char_traits<char>, std::__ndk1::allocator<char> > >, (std::__ndk1::__variant_detail::_Trait)1>::__destroy[abi:ne180000]()::{lambda(auto:1&)#1}, std::__ndk1::__variant_detail::__base<(std::__ndk1::__variant_detail::__traits<geode::Hook*, std::__ndk1::basic_string<char, std::__ndk1::char_traits<char>, std::__ndk1::allocator<char> > >)1, geode::Hook, std::__ndk1::allocator<char> >&>(std::__ndk1::__variant_detail::__dtor<std::__ndk1::__variant_detail::__traits<geode::Hook*, std::__ndk1::basic_string<char, std::__ndk1::char_traits<char>, std::__ndk1::allocator<char> > >, (std::__ndk1::__variant_detail::_Trait)1>, std::__ndk1::__variant_detail::__base<(std::__ndk1::__variant_detail::__traits<geode::Hook*, std::__ndk1::basic_string<char, std::__ndk1::char_traits<char>, std::__ndk1::allocator<char> > >)1, geode::Hook, std::__ndk1::allocator<char> >&)
PUBLIC 5a90 0 std::__ndk1::__variant_detail::__visitation::__base::__dispatcher<(unsigned long)1>::__dispatch[abi:ne180000]<std::__ndk1::__variant_detail::__dtor<std::__ndk1::__variant_detail::__traits<geode::Hook*, std::__ndk1::basic_string<char, std::__ndk1::char_traits<char>, std::__ndk1::allocator<char> > >, (std::__ndk1::__variant_detail::_Trait)1>::__destroy[abi:ne180000]()::{lambda(auto:1&)#1}, std::__ndk1::__variant_detail::__base<(std::__ndk1::__variant_detail::__traits<geode::Hook*, std::__ndk1::basic_string<char, std::__ndk1::char_traits<char>, std::__ndk1::allocator<char> > >)1, geode::Hook, std::__ndk1::allocator<char> >&>(std::__ndk1::__variant_detail::__dtor<std::__ndk1::__variant_detail::__traits<geode::Hook*, std::__ndk1::basic_string<char, std::__ndk1::char_traits<char>, std::__ndk1::allocator<char> > >, (std::__ndk1::__variant_detail::_Trait)1>, std::__ndk1::__variant_detail::__base<(std::__ndk1::__variant_detail::__traits<geode::Hook*, std::__ndk1::basic_string<char, std::__ndk1::char_traits<char>, std::__ndk1::allocator<char> > >)1, geode::Hook, std::__ndk1::allocator<char> >&)
PUBLIC 5aa4 0 std::__ndk1::__tree<std::__ndk1::__value_type<std::__ndk1::basic_string<char, std::__ndk1::char_traits<char>, std::__ndk1::allocator<char> >, std::__ndk1::shared_ptr<geode::Hook> >, std::__ndk1::__map_value_compare<std::__ndk1::basic_string<char, std::__ndk1::char_traits<char>, std::__ndk1::allocator<char> >, std::__ndk1::__value_type<std::__ndk1::basic_string<char, std::__ndk1::char_traits<char>, std::__ndk1::allocator<char> >, std::__ndk1::shared_ptr<geode::Hook> >, std::__ndk1::less<std::__ndk1::basic_string<char, std::__ndk1::char_traits<char>, std::__ndk1::allocator<char> > >, true>, std::__ndk1::allocator<std::__ndk1::__value_type<std::__ndk1::basic_string<char, std::__ndk1::char_traits<char>, std::__ndk1::allocator<char> >, std::__ndk1::shared_ptr<geode::Hook> > > >::destroy(std::__ndk1::__tree_node<std::__ndk1::__value_type<std::__ndk1::basic_string<char, std::__ndk1::char_traits<char>, std::__ndk1::allocator<char> >, std::__ndk1::shared_ptr<geode::Hook> >, void*>*)
PUBLIC 5b28 0 geode::modifier::AsStaticFunction_loadFromComment<hook9<(anonymous namespace)::hook9Parent>, void (hook9<(anonymous namespace)::hook9Parent>::*)(GJComment*)>::Impl<void (hook9<(anonymous namespace)::hook9Parent>::*)(GJComment*)>::function(hook9<(anonymous namespace)::hook9Parent>*, GJComment*)
PUBLIC 5fec 0 std::__ndk1::shared_ptr<tulip::hook::CallingConvention>::~shared_ptr[abi:ne180000]()
PUBLIC 603c 0 tulip::hook::HandlerMetadata::~HandlerMetadata()
PUBLIC 60a0 0 hook9<(anonymous namespace)::hook9Parent>::loadRules(std::__ndk1::basic_string<char, std::__ndk1::char_traits<char>, std::__ndk1::allocator<char> > const&)
PUBLIC 7438 0 std::__ndk1::unordered_map<std::__ndk1::basic_string<char, std::__ndk1::char_traits<char>, std::__ndk1::allocator<char> >, std::__ndk1::basic_string<char, std::__ndk1::char_traits<char>, std::__ndk1::allocator<char> >, std::__ndk1::hash<std::__ndk1::basic_string<char, std::__ndk1::char_traits<char>, std::__ndk1::allocator<char> > >, std::__ndk1::equal_to<std::__ndk1::basic_string<char, std::__ndk1::char_traits<char>, std::__ndk1::allocator<char> > >, std::__ndk1::allocator<std::__ndk1::pair<std::__ndk1::basic_string<char, std::__ndk1::char_traits<char>, std::__ndk1::allocator<char> > const, std::__ndk1::basic_string<char, std::__ndk1::char_traits<char>, std::__ndk1::allocator<char> > > > >::~unordered_map[abi:ne180000]()
PUBLIC 74c4 0 std::__ndk1::shared_ptr<geode::FileSettingV3>::~shared_ptr[abi:ne180000]()
PUBLIC 7514 0 geode::cast::traverseTypeinfoFor(void*, geode::cast::ClassTypeinfoType const*, char const*)
PUBLIC 760c 0 std::__ndk1::operator>>[abi:ne180000]<char, std::__ndk1::char_traits<char>, std::__ndk1::allocator<char> >(std::__ndk1::basic_istream<char, std::__ndk1::char_traits<char> >, std::__ndk1::basic_string<std::__ndk1::basic_istream, char, std::__ndk1::allocator<char> >&)
PUBLIC m 7864 0 std::__ndk1::basic_istringstream<char, std::__ndk1::char_traits<char>, std::__ndk1::allocator<char> >::~basic_istringstream()
PUBLIC m 78e0 0 std::__ndk1::basic_ifstream<char, std::__ndk1::char_traits<char> >::~basic_ifstream()
PUBLIC 7930 0 std::__ndk1::unique_ptr<std::__ndk1::__hash_node<std::__ndk1::__hash_value_type<std::__ndk1::basic_string<char, std::__ndk1::char_traits<char>, std::__ndk1::allocator<char> >, std::__ndk1::basic_string<char, std::__ndk1::char_traits<char>, std::__ndk1::allocator<char> > >, void*>, std::__ndk1::__hash_node_destructor<std::__ndk1::allocator<std::__ndk1::__hash_node<std::__ndk1::__hash_value_type<std::__ndk1::basic_string<char, std::__ndk1::char_traits<char>, std::__ndk1::allocator<char> >, std::__ndk1::basic_string<char, std::__ndk1::char_traits<char>, std::__ndk1::allocator<char> > >, void*> > > >::~unique_ptr[abi:ne180000]()
PUBLIC 798c 0 std::__ndk1::basic_string<char, std::__ndk1::char_traits<char>, std::__ndk1::allocator<char> >::__assign_no_alias<true>(char const*, unsigned long)
PUBLIC 7a34 0 std::__ndk1::basic_string<char, std::__ndk1::char_traits<char>, std::__ndk1::allocator<char> >::__assign_no_alias<false>(char const*, unsigned long)
PUBLIC m 7b40 0 geodeImplicitEntry
PUBLIC 7b80 0 <.plt ELF section in jarvisdevil.replacecomment.android64.so>
STACK CFI INIT 3620 10 .cfa: sp 0 +
STACK CFI INIT 3630 8 .cfa: sp 0 +
STACK CFI INIT 3638 8 .cfa: sp 0 +
STACK CFI INIT 3640 14 .cfa: sp 0 +
STACK CFI INIT 3654 1c .cfa: sp 0 +
STACK CFI INIT 3670 10 .cfa: sp 0 +
STACK CFI INIT 3680 30 .cfa: sp 0 +
STACK CFI INIT 36b0 98 .cfa: sp 0 +
STACK CFI INIT 3748 59c .cfa: sp 0 +
STACK CFI INIT 3ce4 8c .cfa: sp 0 +
STACK CFI INIT 3d70 30 .cfa: sp 0 +
STACK CFI INIT 4940 18 .cfa: sp 0 +
STACK CFI INIT 4f88 50 .cfa: sp 0 +
STACK CFI 4f8c .cfa: sp 32 +
STACK CFI 4f94 .cfa: x29 32 + x19: .cfa -16 + ^ .ra: .cfa -24 + ^ x29: .cfa -32 + ^
STACK CFI 4fac .cfa: sp 32 +
STACK CFI 4fb4 .cfa: sp 0 +
STACK CFI 4fb8 .cfa: x29 32 +
STACK CFI 4fcc .cfa: sp 32 +
STACK CFI 4fd4 .cfa: sp 0 +
STACK CFI INIT 504c 7c .cfa: sp 0 +
STACK CFI 5050 .cfa: sp 48 +
STACK CFI 505c .cfa: x29 48 + x19: .cfa -8 + ^ x20: .cfa -16 + ^ x21: .cfa -32 + ^ .ra: .cfa -40 + ^ x29: .cfa -48 + ^
STACK CFI 50a8 .cfa: sp 48 +
STACK CFI 50b4 .cfa: sp 0 +
STACK CFI 50b8 .cfa: sp 48 +
STACK CFI 50c4 .cfa: sp 0 +
STACK CFI INIT 50c8 4 .cfa: sp 0 +
STACK CFI INIT 50cc 10 .cfa: sp 0 +
STACK CFI 50d0 .cfa: sp 16 +
STACK CFI 50d4 .cfa: x29 16 + .ra: .cfa -8 + ^ x29: .cfa -16 + ^
STACK CFI INIT 56ac 34 .cfa: sp 0 +
STACK CFI 56b0 .cfa: sp 16 +
STACK CFI 56b4 .cfa: x29 16 + .ra: .cfa -8 + ^ x29: .cfa -16 + ^
STACK CFI INIT 56e0 80 .cfa: sp 0 +
STACK CFI 56e4 .cfa: sp 48 +
STACK CFI 56f0 .cfa: x29 48 + x19: .cfa -8 + ^ x20: .cfa -16 + ^ x21: .cfa -32 + ^ .ra: .cfa -40 + ^ x29: .cfa -48 + ^
STACK CFI 5750 .cfa: sp 48 +
STACK CFI 575c .cfa: sp 0 +
STACK CFI INIT 5760 24 .cfa: sp 0 +
STACK CFI 5764 .cfa: sp 32 +
STACK CFI 576c .cfa: x29 32 + x19: .cfa -16 + ^ .ra: .cfa -24 + ^ x29: .cfa -32 + ^
STACK CFI 5778 .cfa: sp 32 +
STACK CFI 5780 .cfa: sp 0 +
STACK CFI INIT 5784 14 .cfa: sp 0 +
STACK CFI 5788 .cfa: sp 16 +
STACK CFI 578c .cfa: x29 16 + .ra: .cfa -8 + ^ x29: .cfa -16 + ^
STACK CFI INIT 57e8 30 .cfa: sp 0 +
STACK CFI 57ec .cfa: sp 32 +
STACK CFI 57f4 .cfa: x29 32 + x19: .cfa -16 + ^ .ra: .cfa -24 + ^ x29: .cfa -32 + ^
STACK CFI 580c .cfa: sp 32 +
STACK CFI 5814 .cfa: sp 0 +
STACK CFI INIT 5818 34 .cfa: sp 0 +
STACK CFI 581c .cfa: sp 32 +
STACK CFI 5824 .cfa: x29 32 + x19: .cfa -16 + ^ .ra: .cfa -24 + ^ x29: .cfa -32 + ^
STACK CFI INIT 584c 148 .cfa: sp 0 +
STACK CFI 5850 .cfa: sp 48 +
STACK CFI 585c .cfa: x29 48 + x19: .cfa -8 + ^ x20: .cfa -16 + ^ x21: .cfa -32 + ^ .ra: .cfa -40 + ^ x29: .cfa -48 + ^
STACK CFI 5984 .cfa: sp 48 +
STACK CFI 5990 .cfa: sp 0 +
STACK CFI INIT 5994 7c .cfa: sp 0 +
STACK CFI 5998 .cfa: sp 48 +
STACK CFI 59a4 .cfa: x29 48 + x19: .cfa -8 + ^ x20: .cfa -16 + ^ x21: .cfa -24 + ^ x22: .cfa -32 + ^ .ra: .cfa -40 + ^ x29: .cfa -48 + ^
STACK CFI 59bc .cfa: sp 48 +
STACK CFI 59c8 .cfa: sp 0 +
STACK CFI 59cc .cfa: x29 48 +
STACK CFI 59fc .cfa: sp 48 +
STACK CFI 5a08 .cfa: sp 0 +
STACK CFI 5a0c .cfa: x29 48 +
STACK CFI INIT 5a10 68 .cfa: sp 0 +
STACK CFI 5a14 .cfa: sp 32 +
STACK CFI 5a1c .cfa: x29 32 + x19: .cfa -8 + ^ x20: .cfa -16 + ^ .ra: .cfa -24 + ^ x29: .cfa -32 + ^
STACK CFI 5a34 .cfa: sp 32 +
STACK CFI 5a3c .cfa: sp 0 +
STACK CFI 5a40 .cfa: x29 32 +
STACK CFI 5a6c .cfa: sp 32 +
STACK CFI 5a74 .cfa: sp 0 +
STACK CFI INIT 5a78 14 .cfa: sp 0 +
STACK CFI 5a7c .cfa: sp 16 +
STACK CFI 5a80 .cfa: x29 16 + .ra: .cfa -8 + ^ x29: .cfa -16 + ^
STACK CFI INIT 5a8c 4 .cfa: sp 0 +
STACK CFI INIT 5a90 14 .cfa: sp 0 +
STACK CFI INIT 5aa4 84 .cfa: sp 0 +
STACK CFI 5aac .cfa: sp 32 +
STACK CFI 5ab4 .cfa: x29 32 + x19: .cfa -8 + ^ x20: .cfa -16 + ^ .ra: .cfa -24 + ^ x29: .cfa -32 + ^
STACK CFI 5af4 .cfa: sp 32 +
STACK CFI 5afc .cfa: sp 0 +
STACK CFI 5b04 .cfa: x29 32 +
STACK CFI INIT 5fec 50 .cfa: sp 0 +
STACK CFI 5ff0 .cfa: sp 32 +
STACK CFI 5ff8 .cfa: x29 32 + x19: .cfa -16 + ^ .ra: .cfa -24 + ^ x29: .cfa -32 + ^
STACK CFI 6010 .cfa: sp 32 +
STACK CFI 6018 .cfa: sp 0 +
STACK CFI 601c .cfa: x29 32 +
STACK CFI 6030 .cfa: sp 32 +
STACK CFI 6038 .cfa: sp 0 +
STACK CFI INIT 603c 64 .cfa: sp 0 +
STACK CFI 6040 .cfa: sp 32 +
STACK CFI 6048 .cfa: x29 32 + x19: .cfa -16 + ^ .ra: .cfa -24 + ^ x29: .cfa -32 + ^
STACK CFI 6074 .cfa: sp 32 +
STACK CFI 607c .cfa: sp 0 +
STACK CFI 6080 .cfa: x29 32 +
STACK CFI 6094 .cfa: sp 32 +
STACK CFI 609c .cfa: sp 0 +
STACK CFI INIT 7438 8c .cfa: sp 0 +
STACK CFI 743c .cfa: sp 48 +
STACK CFI 7448 .cfa: x29 48 + x19: .cfa -8 + ^ x20: .cfa -16 + ^ x21: .cfa -32 + ^ .ra: .cfa -40 + ^ x29: .cfa -48 + ^
STACK CFI 7460 .cfa: sp 48 +
STACK CFI 746c .cfa: sp 0 +
STACK CFI 7470 .cfa: x29 48 +
STACK CFI 74b4 .cfa: sp 48 +
STACK CFI 74c0 .cfa: sp 0 +
STACK CFI INIT 74c4 50 .cfa: sp 0 +
STACK CFI 74c8 .cfa: sp 32 +
STACK CFI 74d0 .cfa: x29 32 + x19: .cfa -16 + ^ .ra: .cfa -24 + ^ x29: .cfa -32 + ^
STACK CFI 74e8 .cfa: sp 32 +
STACK CFI 74f0 .cfa: sp 0 +
STACK CFI 74f4 .cfa: x29 32 +
STACK CFI 7508 .cfa: sp 32 +
STACK CFI 7510 .cfa: sp 0 +
STACK CFI INIT 7514 f8 .cfa: sp 0 +
STACK CFI 7518 .cfa: sp 64 +
STACK CFI 7528 .cfa: x29 64 + x19: .cfa -8 + ^ x20: .cfa -16 + ^ x21: .cfa -24 + ^ x22: .cfa -32 + ^ x23: .cfa -48 + ^ .ra: .cfa -56 + ^ x29: .cfa -64 + ^
STACK CFI 7584 .cfa: sp 64 +
STACK CFI 7594 .cfa: sp 0 +
STACK CFI 7598 .cfa: x29 64 +
STACK CFI 75b4 .cfa: sp 64 +
STACK CFI 75c4 .cfa: sp 0 +
STACK CFI 75c8 .cfa: x29 64 +
STACK CFI 75f8 .cfa: sp 64 +
STACK CFI 7608 .cfa: sp 0 +
STACK CFI INIT 7864 7c .cfa: sp 0 +
STACK CFI 7868 .cfa: sp 48 +
STACK CFI 7874 .cfa: x29 48 + x19: .cfa -8 + ^ x20: .cfa -16 + ^ x21: .cfa -32 + ^ .ra: .cfa -40 + ^ x29: .cfa -48 + ^
STACK CFI 78d0 .cfa: sp 48 +
STACK CFI 78dc .cfa: sp 0 +
STACK CFI INIT 78e0 50 .cfa: sp 0 +
STACK CFI 78e4 .cfa: sp 32 +
STACK CFI 78ec .cfa: x29 32 + x19: .cfa -8 + ^ x20: .cfa -16 + ^ .ra: .cfa -24 + ^ x29: .cfa -32 + ^
STACK CFI 7924 .cfa: sp 32 +
STACK CFI 792c .cfa: sp 0 +
STACK CFI INIT 7930 5c .cfa: sp 0 +
STACK CFI 7934 .cfa: sp 32 +
STACK CFI 793c .cfa: x29 32 + x19: .cfa -16 + ^ .ra: .cfa -24 + ^ x29: .cfa -32 + ^
STACK CFI 7974 .cfa: sp 32 +
STACK CFI 797c .cfa: sp 0 +
STACK CFI 7980 .cfa: sp 32 +
STACK CFI 7988 .cfa: sp 0 +
STACK CFI INIT 798c a8 .cfa: sp 0 +
STACK CFI 7990 .cfa: sp 64 +
STACK CFI 79a0 .cfa: x29 64 + x19: .cfa -8 + ^ x20: .cfa -16 + ^ x21: .cfa -24 + ^ x22: .cfa -32 + ^ x23: .cfa -48 + ^ .ra: .cfa -56 + ^ x29: .cfa -64 + ^
STACK CFI 7a1c .cfa: sp 64 +
STACK CFI 7a2c .cfa: sp 0 +
STACK CFI 7a30 .cfa: x29 64 +
STACK CFI INIT 7a34 10c .cfa: sp 0 +
STACK CFI 7a38 .cfa: sp 64 +
STACK CFI 7a48 .cfa: x29 64 + x19: .cfa -8 + ^ x20: .cfa -16 + ^ x21: .cfa -24 + ^ x22: .cfa -32 + ^ x23: .cfa -40 + ^ x24: .cfa -48 + ^ .ra: .cfa -56 + ^ x29: .cfa -64 + ^
STACK CFI 7b28 .cfa: sp 64 +
STACK CFI 7b38 .cfa: sp 0 +
STACK CFI 7b3c .cfa: x29 64 +
STACK CFI INIT 7b40 3c .cfa: sp 0 +
STACK CFI 7b44 .cfa: sp 32 +
STACK CFI 7b4c .cfa: x29 32 + x19: .cfa -16 + ^ .ra: .cfa -24 + ^ x29: .cfa -32 + ^
STACK CFI 7b58 .cfa: sp 32 +
STACK CFI 7b60 .cfa: sp 0 +
STACK CFI 7b64 .cfa: x29 32 +
STACK CFI 7b70 .cfa: sp 32 +
STACK CFI 7b78 .cfa: sp 0 +
STACK CFI INIT 3da0 ba0 .cfa: sp 0 +
STACK CFI 3da4 .cfa: sp 240 +
STACK CFI 3dc0 .cfa: x29 96 + x19: .cfa -8 + ^ x20: .cfa -16 + ^ x21: .cfa -24 + ^ x22: .cfa -32 + ^ x23: .cfa -40 + ^ x24: .cfa -48 + ^ x25: .cfa -56 + ^ x26: .cfa -64 + ^ x27: .cfa -72 + ^ x28: .cfa -80 + ^ .ra: .cfa -88 + ^ x29: .cfa -96 + ^
STACK CFI 47e8 .cfa: sp 240 +
STACK CFI 4804 .cfa: sp 0 +
STACK CFI 4808 .cfa: x29 96 +
STACK CFI INIT 4958 630 .cfa: sp 0 +
STACK CFI 495c .cfa: sp 304 +
STACK CFI 4978 .cfa: x29 96 + x19: .cfa -8 + ^ x20: .cfa -16 + ^ x21: .cfa -24 + ^ x22: .cfa -32 + ^ x23: .cfa -40 + ^ x24: .cfa -48 + ^ x25: .cfa -56 + ^ x26: .cfa -64 + ^ x27: .cfa -72 + ^ x28: .cfa -80 + ^ .ra: .cfa -88 + ^ x29: .cfa -96 + ^
STACK CFI 4e5c .cfa: sp 304 +
STACK CFI 4e78 .cfa: sp 0 +
STACK CFI 4e7c .cfa: x29 96 +
STACK CFI INIT 4fd8 74 .cfa: sp 0 +
STACK CFI 4fdc .cfa: sp 48 +
STACK CFI 4fe8 .cfa: x29 32 + x19: .cfa -8 + ^ x20: .cfa -16 + ^ .ra: .cfa -24 + ^ x29: .cfa -32 + ^
STACK CFI 5034 .cfa: sp 48 +
STACK CFI 5040 .cfa: sp 0 +
STACK CFI 5044 .cfa: x29 32 +
STACK CFI INIT 50dc 5d0 .cfa: sp 0 +
STACK CFI 50e0 .cfa: sp 496 +
STACK CFI 50fc .cfa: x29 96 + x19: .cfa -8 + ^ x20: .cfa -16 + ^ x21: .cfa -24 + ^ x22: .cfa -32 + ^ x23: .cfa -40 + ^ x24: .cfa -48 + ^ x25: .cfa -56 + ^ x26: .cfa -64 + ^ x27: .cfa -72 + ^ x28: .cfa -80 + ^ .ra: .cfa -88 + ^ x29: .cfa -96 + ^
STACK CFI 5588 .cfa: sp 496 +
STACK CFI 55a4 .cfa: sp 0 +
STACK CFI 55a8 .cfa: x29 96 +
STACK CFI INIT 5798 50 .cfa: sp 0 +
STACK CFI 579c .cfa: sp 32 +
STACK CFI 57a4 .cfa: x29 32 + x19: .cfa -8 + ^ x20: .cfa -16 + ^ .ra: .cfa -24 + ^ x29: .cfa -32 + ^
STACK CFI INIT 5b28 4c4 .cfa: sp 0 +
STACK CFI 5b2c .cfa: sp 208 +
STACK CFI 5b48 .cfa: x29 96 + x19: .cfa -8 + ^ x20: .cfa -16 + ^ x21: .cfa -24 + ^ x22: .cfa -32 + ^ x23: .cfa -40 + ^ x24: .cfa -48 + ^ x25: .cfa -56 + ^ x26: .cfa -64 + ^ x27: .cfa -72 + ^ x28: .cfa -80 + ^ .ra: .cfa -88 + ^ x29: .cfa -96 + ^
STACK CFI 5e68 .cfa: sp 208 +
STACK CFI 5e84 .cfa: sp 0 +
STACK CFI 5e88 .cfa: x29 96 +
STACK CFI INIT 60a0 1398 .cfa: sp 0 +
STACK CFI 60a4 .cfa: sp 96 +
STACK CFI 60bc .cfa: x29 96 + x19: .cfa -8 + ^ x20: .cfa -16 + ^ x21: .cfa -24 + ^ x22: .cfa -32 + ^ x23: .cfa -40 + ^ x24: .cfa -48 + ^ x25: .cfa -56 + ^ x26: .cfa -64 + ^ x27: .cfa -72 + ^ x28: .cfa -80 + ^ .ra: .cfa -88 + ^ x29: .cfa -96 + ^
STACK CFI 727c .cfa: sp 96 +
STACK CFI 7294 .cfa: sp 0 +
STACK CFI 7298 .cfa: x29 96 +
STACK CFI INIT 760c 258 .cfa: sp 0 +
STACK CFI 7610 .cfa: sp 112 +
STACK CFI 7628 .cfa: x29 80 + x19: .cfa -8 + ^ x20: .cfa -16 + ^ x21: .cfa -24 + ^ x22: .cfa -32 + ^ x23: .cfa -40 + ^ x24: .cfa -48 + ^ x25: .cfa -64 + ^ .ra: .cfa -72 + ^ x29: .cfa -80 + ^
STACK CFI 77b0 .cfa: sp 112 +
STACK CFI 77c8 .cfa: sp 0 +
STACK CFI 77cc .cfa: x29 80 +
