MODULE Linux arm64 48384A58840AE5048FA9663069EB62A30 zilko.xdbot.android64.so
INFO CODE_ID 584A38480A8404E58FA9663069EB62A32348AAA6
INFO GENERATOR mozilla/dump_syms 2.3.4
PUBLIC 8b170 0 __on_dlclose
PUBLIC 8b180 0 __emutls_unregister_key
PUBLIC 8b188 0 __on_dlclose_late
PUBLIC 8b190 0 __atexit_handler_wrapper
PUBLIC 8b1a4 0 atexit
PUBLIC 8b1c0 0 pthread_atfork
PUBLIC 8b1d0 0 unwind_phase2
PUBLIC 8b304 0 _Unwind_Resume
PUBLIC 8b388 0 unwind_phase2_forced
PUBLIC m 8b47c 0 __unw_init_local
PUBLIC m 8b524 0 __unw_get_reg
PUBLIC 8b5a0 0 __unw_step_stage2
PUBLIC m 8b5b4 0 __unw_get_proc_info
PUBLIC m 8b5f4 0 __unw_resume
PUBLIC 8b61c 0 libunwind::CFI_Parser<libunwind::LocalAddressSpace>::decodeFDE(libunwind::LocalAddressSpace&, unsigned long, libunwind::CFI_Parser<libunwind::LocalAddressSpace>::FDE_Info*, libunwind::CFI_Parser<libunwind::LocalAddressSpace>::CIE_Info*, bool)
PUBLIC 8b7ac 0 libunwind::CFI_Parser<libunwind::LocalAddressSpace>::parseCIE(libunwind::LocalAddressSpace&, unsigned long, libunwind::CFI_Parser<libunwind::LocalAddressSpace>::CIE_Info*)
PUBLIC 8ba74 0 libunwind::AbstractUnwindCursor::~AbstractUnwindCursor()
PUBLIC 8ba7c 0 libunwind::UnwindCursor<libunwind::LocalAddressSpace, libunwind::Registers_arm64>::~UnwindCursor()
PUBLIC 8ba84 0 libunwind::UnwindCursor<libunwind::LocalAddressSpace, libunwind::Registers_arm64>::validReg(int)
PUBLIC 8bac8 0 libunwind::UnwindCursor<libunwind::LocalAddressSpace, libunwind::Registers_arm64>::getReg(int)
PUBLIC 8bbb0 0 libunwind::UnwindCursor<libunwind::LocalAddressSpace, libunwind::Registers_arm64>::setReg(int, unsigned long)
PUBLIC 8bc98 0 libunwind::UnwindCursor<libunwind::LocalAddressSpace, libunwind::Registers_arm64>::validFloatReg(int)
PUBLIC 8bcac 0 libunwind::UnwindCursor<libunwind::LocalAddressSpace, libunwind::Registers_arm64>::getFloatReg(int)
PUBLIC 8bcbc 0 libunwind::UnwindCursor<libunwind::LocalAddressSpace, libunwind::Registers_arm64>::setFloatReg(int, double)
PUBLIC 8bccc 0 libunwind::UnwindCursor<libunwind::LocalAddressSpace, libunwind::Registers_arm64>::step(bool)
PUBLIC 8bdbc 0 libunwind::UnwindCursor<libunwind::LocalAddressSpace, libunwind::Registers_arm64>::getInfo(unw_proc_info_t*)
PUBLIC 8be00 0 libunwind::UnwindCursor<libunwind::LocalAddressSpace, libunwind::Registers_arm64>::jumpto()
PUBLIC 8be0c 0 libunwind::UnwindCursor<libunwind::LocalAddressSpace, libunwind::Registers_arm64>::isSignalFrame()
PUBLIC 8be18 0 libunwind::UnwindCursor<libunwind::LocalAddressSpace, libunwind::Registers_arm64>::getFunctionName(char*, unsigned long, unsigned long*)
PUBLIC 8be44 0 libunwind::UnwindCursor<libunwind::LocalAddressSpace, libunwind::Registers_arm64>::setInfoBasedOnIPRegister(bool)
PUBLIC 8c0c4 0 libunwind::UnwindCursor<libunwind::LocalAddressSpace, libunwind::Registers_arm64>::getRegisterName(int)
PUBLIC 8c0d0 0 libunwind::UnwindCursor<libunwind::LocalAddressSpace, libunwind::Registers_arm64>::stepThroughSigReturn(libunwind::Registers_arm64&)
PUBLIC 8c1f0 0 libunwind::DwarfInstructions<libunwind::LocalAddressSpace, libunwind::Registers_arm64>::stepWithDwarf(libunwind::LocalAddressSpace&, unsigned long, unsigned long, libunwind::Registers_arm64&, bool&, bool)
PUBLIC 8c678 0 libunwind::CFI_Parser<libunwind::LocalAddressSpace>::parseFDEInstructions(libunwind::LocalAddressSpace&, libunwind::CFI_Parser<libunwind::LocalAddressSpace>::FDE_Info const&, libunwind::CFI_Parser<libunwind::LocalAddressSpace>::CIE_Info const&, unsigned long, int, libunwind::CFI_Parser<libunwind::LocalAddressSpace>::PrologInfo*)
PUBLIC 8d2c0 0 libunwind::DwarfInstructions<libunwind::LocalAddressSpace, libunwind::Registers_arm64>::getCFA(libunwind::LocalAddressSpace&, libunwind::CFI_Parser<libunwind::LocalAddressSpace>::PrologInfo const&, libunwind::Registers_arm64 const&)
PUBLIC 8d3f4 0 libunwind::DwarfInstructions<libunwind::LocalAddressSpace, libunwind::Registers_arm64>::getSavedRegister(libunwind::LocalAddressSpace&, libunwind::Registers_arm64 const&, unsigned long, libunwind::CFI_Parser<libunwind::LocalAddressSpace>::RegisterLocation const&)
PUBLIC 8d604 0 libunwind::LocalAddressSpace::getEncodedP(unsigned long&, unsigned long, unsigned char, unsigned long)
PUBLIC 8d990 0 libunwind::LocalAddressSpace::getULEB128(unsigned long&, unsigned long)
PUBLIC 8db58 0 libunwind::DwarfInstructions<libunwind::LocalAddressSpace, libunwind::Registers_arm64>::evaluateExpression(unsigned long, libunwind::LocalAddressSpace&, libunwind::Registers_arm64 const&, unsigned long)
PUBLIC 8e514 0 libunwind::UnwindCursor<libunwind::LocalAddressSpace, libunwind::Registers_arm64>::getInfoFromDwarfSection(unsigned long, libunwind::UnwindInfoSections const&, unsigned int)
PUBLIC 8e7e8 0 libunwind::findUnwindSectionsByPhdr(dl_phdr_info*, unsigned long, void*)
PUBLIC 8e91c 0 libunwind::EHHeaderParser<libunwind::LocalAddressSpace>::decodeEHHdr(libunwind::LocalAddressSpace&, unsigned long, unsigned long, libunwind::EHHeaderParser<libunwind::LocalAddressSpace>::EHHeaderInfo&)
PUBLIC 8ea3c 0 libunwind::CFI_Parser<libunwind::LocalAddressSpace>::findFDE(libunwind::LocalAddressSpace&, unsigned long, unsigned long, unsigned long, unsigned long, libunwind::CFI_Parser<libunwind::LocalAddressSpace>::FDE_Info*, libunwind::CFI_Parser<libunwind::LocalAddressSpace>::CIE_Info*)
PUBLIC 8ec04 0 libunwind::EHHeaderParser<libunwind::LocalAddressSpace>::findFDE(libunwind::LocalAddressSpace&, unsigned long, unsigned long, unsigned int, libunwind::CFI_Parser<libunwind::LocalAddressSpace>::FDE_Info*, libunwind::CFI_Parser<libunwind::LocalAddressSpace>::CIE_Info*)
PUBLIC 8ed6c 0 libunwind::EHHeaderParser<libunwind::LocalAddressSpace>::getTableEntrySize(unsigned char)
PUBLIC 8ee68 0 libunwind::Registers_arm64::getRegisterName(int)
PUBLIC 8ee98 0 __libunwind_Registers_arm64_jumpto
PUBLIC m 8ef28 0 __unw_getcontext
PUBLIC 8efd0 0 __aarch64_ldadd8_relax
PUBLIC 8f000 0 init_have_lse_atomics
PUBLIC 8f098 0 __init_cpu_features_constructor
PUBLIC 8f634 0 __init_cpu_features
PUBLIC 8f6c0 0 __aarch64_ldadd8_acq_rel
PUBLIC 8f6f0 0 std::__ndk1::vector<float, std::__ndk1::allocator<float> >::~vector[abi:ne180000]()
PUBLIC 8f708 0 std::__ndk1::map<int, int, std::__ndk1::less<int>, std::__ndk1::allocator<std::__ndk1::pair<int const, int> > >::map[abi:ne180000](std::initializer_list<std::__ndk1::pair<int const, int> >, std::__ndk1::less<int> const&)
PUBLIC 8f824 0 __cxx_global_array_dtor
PUBLIC 8f858 0 __cxx_global_array_dtor.10
PUBLIC 8f938 0 __cxx_global_var_init.24
PUBLIC 8fd74 0 __cxx_global_var_init.26
PUBLIC 901b0 0 _GLOBAL__sub_I_main.cpp
PUBLIC 919dc 0 std::__ndk1::unordered_set<int, std::__ndk1::hash<int>, std::__ndk1::equal_to<int>, std::__ndk1::allocator<int> >::~unordered_set[abi:ne180000]()
PUBLIC 91a28 0 std::__ndk1::map<int, std::__ndk1::vector<int, std::__ndk1::allocator<int> >, std::__ndk1::less<int>, std::__ndk1::allocator<std::__ndk1::pair<int const, std::__ndk1::vector<int, std::__ndk1::allocator<int> > > > >::map[abi:ne180000](std::initializer_list<std::__ndk1::pair<int const, std::__ndk1::vector<int, std::__ndk1::allocator<int> > > >, std::__ndk1::less<int> const&)
PUBLIC 91b40 0 std::__ndk1::map<int, std::__ndk1::vector<int, std::__ndk1::allocator<int> >, std::__ndk1::less<int>, std::__ndk1::allocator<std::__ndk1::pair<int const, std::__ndk1::vector<int, std::__ndk1::allocator<int> > > > >::~map[abi:ne180000]()
PUBLIC 91b48 0 geode::modifier::ModifyBase<geode::modifier::ModifyDerive<hook37<(anonymous namespace)::hook37Parent>, PlayLayer> >::~ModifyBase()
PUBLIC 91b64 0 __cxx_global_var_init.25
PUBLIC 91fe4 0 geode::modifier::ModifyBase<geode::modifier::ModifyDerive<BGLHook, GJBaseGameLayer> >::~ModifyBase()
PUBLIC 92000 0 geode::modifier::ModifyBase<geode::modifier::ModifyDerive<hook434<(anonymous namespace)::hook434Parent>, PauseLayer> >::~ModifyBase()
PUBLIC 9201c 0 std::__ndk1::vector<float, std::__ndk1::allocator<float> >::__throw_length_error[abi:ne180000]() const
PUBLIC 92030 0 __clang_call_terminate
PUBLIC 92040 0 std::__ndk1::__throw_length_error[abi:ne180000](char const*)
PUBLIC 92090 0 std::length_error::length_error[abi:ne180000](char const*)
PUBLIC 920c0 0 std::__throw_bad_array_new_length([abi:ne180000], void)
PUBLIC 920f4 0 std::__ndk1::__tree<std::__ndk1::__value_type<int, int>, std::__ndk1::__map_value_compare<int, std::__ndk1::__value_type<int, int>, std::__ndk1::less<int>, true>, std::__ndk1::allocator<std::__ndk1::__value_type<int, int> > >::destroy(std::__ndk1::__tree_node<std::__ndk1::__value_type<int, int>, void*>*)
PUBLIC 92138 0 std::__ndk1::basic_string<char, std::__ndk1::char_traits<char>, std::__ndk1::allocator<char> >::__throw_length_error[abi:ne180000]() const
PUBLIC 9214c 0 std::__ndk1::vector<int, std::__ndk1::allocator<int> >::__throw_length_error[abi:ne180000]() const
PUBLIC 92160 0 std::__ndk1::__hash_table<int, std::__ndk1::hash<int>, std::__ndk1::equal_to<int>, std::__ndk1::allocator<int> >::~__hash_table()
PUBLIC 921ac 0 std::__ndk1::__tree<std::__ndk1::__value_type<int, int>, std::__ndk1::__map_value_compare<int, std::__ndk1::__value_type<int, int>, std::__ndk1::less<int>, true>, std::__ndk1::allocator<std::__ndk1::__value_type<int, int> > >::__find_equal<int>(std::__ndk1::__tree_const_iterator<std::__ndk1::__value_type<int, int>, std::__ndk1::__tree_node<std::__ndk1::__value_type<int, int>, void*>*, long>, std::__ndk1::__tree_end_node<std::__ndk1::__tree_node_base<void*>*>*&, std::__ndk1::__tree_node_base<void*>*&, int const&)
PUBLIC 9235c 0 std::__ndk1::__tree_balance_after_insert[abi:ne180000]<std::__ndk1::__tree_node_base<void*>*>(std::__ndk1::__tree_node_base<void*>*, std::__ndk1::__tree_node_base<void*>*)
PUBLIC 9250c 0 std::__ndk1::__hash_table<int, std::__ndk1::hash<int>, std::__ndk1::equal_to<int>, std::__ndk1::allocator<int> >::__emplace_unique_key_args<int, int const&>(int const&, int const&)
PUBLIC 92830 0 std::__ndk1::__hash_table<int, std::__ndk1::hash<int>, std::__ndk1::equal_to<int>, std::__ndk1::allocator<int> >::__do_rehash<true>(unsigned long)
PUBLIC 929dc 0 std::__ndk1::__tree<std::__ndk1::__value_type<int, std::__ndk1::vector<int, std::__ndk1::allocator<int> > >, std::__ndk1::__map_value_compare<int, std::__ndk1::__value_type<int, std::__ndk1::vector<int, std::__ndk1::allocator<int> > >, std::__ndk1::less<int>, true>, std::__ndk1::allocator<std::__ndk1::__value_type<int, std::__ndk1::vector<int, std::__ndk1::allocator<int> > > > >::__find_equal<int>(std::__ndk1::__tree_const_iterator<std::__ndk1::__value_type<int, std::__ndk1::vector<int, std::__ndk1::allocator<int> > >, std::__ndk1::__tree_node<std::__ndk1::__value_type<int, std::__ndk1::vector<int, std::__ndk1::allocator<int> > >, void*>*, long>, std::__ndk1::__tree_end_node<std::__ndk1::__tree_node_base<void*>*>*&, std::__ndk1::__tree_node_base<void*>*&, int const&)
PUBLIC 92b8c 0 std::__ndk1::__tree<std::__ndk1::__value_type<int, std::__ndk1::vector<int, std::__ndk1::allocator<int> > >, std::__ndk1::__map_value_compare<int, std::__ndk1::__value_type<int, std::__ndk1::vector<int, std::__ndk1::allocator<int> > >, std::__ndk1::less<int>, true>, std::__ndk1::allocator<std::__ndk1::__value_type<int, std::__ndk1::vector<int, std::__ndk1::allocator<int> > > > >::__construct_node<std::__ndk1::pair<int const, std::__ndk1::vector<int, std::__ndk1::allocator<int> > > const&>(std::__ndk1::pair<int const, std::__ndk1::vector<int, std::__ndk1::allocator<int> > > const&)
PUBLIC 92c54 0 std::__ndk1::unique_ptr<std::__ndk1::__tree_node<std::__ndk1::__value_type<int, std::__ndk1::vector<int, std::__ndk1::allocator<int> > >, void*>, std::__ndk1::__tree_node_destructor<std::__ndk1::allocator<std::__ndk1::__tree_node<std::__ndk1::__value_type<int, std::__ndk1::vector<int, std::__ndk1::allocator<int> > >, void*> > > >::~unique_ptr[abi:ne180000]()
PUBLIC 92ca0 0 std::__ndk1::__tree<std::__ndk1::__value_type<int, std::__ndk1::vector<int, std::__ndk1::allocator<int> > >, std::__ndk1::__map_value_compare<int, std::__ndk1::__value_type<int, std::__ndk1::vector<int, std::__ndk1::allocator<int> > >, std::__ndk1::less<int>, true>, std::__ndk1::allocator<std::__ndk1::__value_type<int, std::__ndk1::vector<int, std::__ndk1::allocator<int> > > > >::destroy(std::__ndk1::__tree_node<std::__ndk1::__value_type<int, std::__ndk1::vector<int, std::__ndk1::allocator<int> > >, void*>*)
PUBLIC 92cf0 0 geode::EventListener<geode::SettingChangedFilterV3>::EventListener(std::__ndk1::function<void (std::__ndk1::shared_ptr<geode::SettingV3>)>, geode::SettingChangedFilterV3)
PUBLIC 92de4 0 geode::SettingChangedFilterV3::~SettingChangedFilterV3()
PUBLIC 92e34 0 std::__ndk1::__function::__func<geode::listenForSettingChangesV3<std::__ndk1::basic_string<char, std::__ndk1::char_traits<char>, std::__ndk1::allocator<char> >, void (*)(std::__ndk1::basic_string<char, std::__ndk1::char_traits<char>, std::__ndk1::allocator<char> >)>(std::__ndk1::basic_string_view<char, std::__ndk1::char_traits<char> >, void (*&&)(std::__ndk1::basic_string<char, std::__ndk1::char_traits<char>, std::__ndk1::allocator<char> >), geode::Mod*)::{lambda(std::__ndk1::shared_ptr<geode::SettingV3>)#1}, std::__ndk1::allocator<geode::listenForSettingChangesV3<std::__ndk1::basic_string<char, std::__ndk1::char_traits<char>, std::__ndk1::allocator<char> >, void (*)(std::__ndk1::basic_string<char, std::__ndk1::char_traits<char>, std::__ndk1::allocator<char> >)>(std::__ndk1::basic_string_view<char, std::__ndk1::char_traits<char> >, void (*&&)(std::__ndk1::basic_string<char, std::__ndk1::char_traits<char>, std::__ndk1::allocator<char> >), geode::Mod*)::{lambda(std::__ndk1::shared_ptr<geode::SettingV3>)#1}>, void (std::__ndk1::shared_ptr<geode::SettingV3>)>::~__func()
PUBLIC 92e38 0 std::__ndk1::__function::__func<geode::listenForSettingChangesV3<std::__ndk1::basic_string<char, std::__ndk1::char_traits<char>, std::__ndk1::allocator<char> >, void (*)(std::__ndk1::basic_string<char, std::__ndk1::char_traits<char>, std::__ndk1::allocator<char> >)>(std::__ndk1::basic_string_view<char, std::__ndk1::char_traits<char> >, void (*&&)(std::__ndk1::basic_string<char, std::__ndk1::char_traits<char>, std::__ndk1::allocator<char> >), geode::Mod*)::{lambda(std::__ndk1::shared_ptr<geode::SettingV3>)#1}, std::__ndk1::allocator<geode::listenForSettingChangesV3<std::__ndk1::basic_string<char, std::__ndk1::char_traits<char>, std::__ndk1::allocator<char> >, void (*)(std::__ndk1::basic_string<char, std::__ndk1::char_traits<char>, std::__ndk1::allocator<char> >)>(std::__ndk1::basic_string_view<char, std::__ndk1::char_traits<char> >, void (*&&)(std::__ndk1::basic_string<char, std::__ndk1::char_traits<char>, std::__ndk1::allocator<char> >), geode::Mod*)::{lambda(std::__ndk1::shared_ptr<geode::SettingV3>)#1}>, void (std::__ndk1::shared_ptr<geode::SettingV3>)>::__clone() const
PUBLIC 92e6c 0 std::__ndk1::__function::__func<geode::listenForSettingChangesV3<std::__ndk1::basic_string<char, std::__ndk1::char_traits<char>, std::__ndk1::allocator<char> >, void (*)(std::__ndk1::basic_string<char, std::__ndk1::char_traits<char>, std::__ndk1::allocator<char> >)>(std::__ndk1::basic_string_view<char, std::__ndk1::char_traits<char> >, void (*&&)(std::__ndk1::basic_string<char, std::__ndk1::char_traits<char>, std::__ndk1::allocator<char> >), geode::Mod*)::{lambda(std::__ndk1::shared_ptr<geode::SettingV3>)#1}, std::__ndk1::allocator<geode::listenForSettingChangesV3<std::__ndk1::basic_string<char, std::__ndk1::char_traits<char>, std::__ndk1::allocator<char> >, void (*)(std::__ndk1::basic_string<char, std::__ndk1::char_traits<char>, std::__ndk1::allocator<char> >)>(std::__ndk1::basic_string_view<char, std::__ndk1::char_traits<char> >, void (*&&)(std::__ndk1::basic_string<char, std::__ndk1::char_traits<char>, std::__ndk1::allocator<char> >), geode::Mod*)::{lambda(std::__ndk1::shared_ptr<geode::SettingV3>)#1}>, void (std::__ndk1::shared_ptr<geode::SettingV3>)>::__clone(std::__ndk1::__function::__base<void (std::__ndk1::shared_ptr<geode::SettingV3>)>*) const
PUBLIC 92e80 0 std::__ndk1::__function::__func<geode::listenForSettingChangesV3<std::__ndk1::basic_string<char, std::__ndk1::char_traits<char>, std::__ndk1::allocator<char> >, void (*)(std::__ndk1::basic_string<char, std::__ndk1::char_traits<char>, std::__ndk1::allocator<char> >)>(std::__ndk1::basic_string_view<char, std::__ndk1::char_traits<char> >, void (*&&)(std::__ndk1::basic_string<char, std::__ndk1::char_traits<char>, std::__ndk1::allocator<char> >), geode::Mod*)::{lambda(std::__ndk1::shared_ptr<geode::SettingV3>)#1}, std::__ndk1::allocator<geode::listenForSettingChangesV3<std::__ndk1::basic_string<char, std::__ndk1::char_traits<char>, std::__ndk1::allocator<char> >, void (*)(std::__ndk1::basic_string<char, std::__ndk1::char_traits<char>, std::__ndk1::allocator<char> >)>(std::__ndk1::basic_string_view<char, std::__ndk1::char_traits<char> >, void (*&&)(std::__ndk1::basic_string<char, std::__ndk1::char_traits<char>, std::__ndk1::allocator<char> >), geode::Mod*)::{lambda(std::__ndk1::shared_ptr<geode::SettingV3>)#1}>, void (std::__ndk1::shared_ptr<geode::SettingV3>)>::destroy()
PUBLIC 92e84 0 std::__ndk1::__function::__func<geode::listenForSettingChangesV3<std::__ndk1::basic_string<char, std::__ndk1::char_traits<char>, std::__ndk1::allocator<char> >, void (*)(std::__ndk1::basic_string<char, std::__ndk1::char_traits<char>, std::__ndk1::allocator<char> >)>(std::__ndk1::basic_string_view<char, std::__ndk1::char_traits<char> >, void (*&&)(std::__ndk1::basic_string<char, std::__ndk1::char_traits<char>, std::__ndk1::allocator<char> >), geode::Mod*)::{lambda(std::__ndk1::shared_ptr<geode::SettingV3>)#1}, std::__ndk1::allocator<geode::listenForSettingChangesV3<std::__ndk1::basic_string<char, std::__ndk1::char_traits<char>, std::__ndk1::allocator<char> >, void (*)(std::__ndk1::basic_string<char, std::__ndk1::char_traits<char>, std::__ndk1::allocator<char> >)>(std::__ndk1::basic_string_view<char, std::__ndk1::char_traits<char> >, void (*&&)(std::__ndk1::basic_string<char, std::__ndk1::char_traits<char>, std::__ndk1::allocator<char> >), geode::Mod*)::{lambda(std::__ndk1::shared_ptr<geode::SettingV3>)#1}>, void (std::__ndk1::shared_ptr<geode::SettingV3>)>::destroy_deallocate()
PUBLIC 92e88 0 std::__ndk1::__function::__func<geode::listenForSettingChangesV3<std::__ndk1::basic_string<char, std::__ndk1::char_traits<char>, std::__ndk1::allocator<char> >, void (*)(std::__ndk1::basic_string<char, std::__ndk1::char_traits<char>, std::__ndk1::allocator<char> >)>(std::__ndk1::basic_string_view<char, std::__ndk1::char_traits<char> >, void (*&&)(std::__ndk1::basic_string<char, std::__ndk1::char_traits<char>, std::__ndk1::allocator<char> >), geode::Mod*)::{lambda(std::__ndk1::shared_ptr<geode::SettingV3>)#1}, std::__ndk1::allocator<geode::listenForSettingChangesV3<std::__ndk1::basic_string<char, std::__ndk1::char_traits<char>, std::__ndk1::allocator<char> >, void (*)(std::__ndk1::basic_string<char, std::__ndk1::char_traits<char>, std::__ndk1::allocator<char> >)>(std::__ndk1::basic_string_view<char, std::__ndk1::char_traits<char> >, void (*&&)(std::__ndk1::basic_string<char, std::__ndk1::char_traits<char>, std::__ndk1::allocator<char> >), geode::Mod*)::{lambda(std::__ndk1::shared_ptr<geode::SettingV3>)#1}>, void (std::__ndk1::shared_ptr<geode::SettingV3>)>::operator()(std::__ndk1::shared_ptr<geode::SettingV3>&&)
PUBLIC 93028 0 std::__ndk1::__function::__func<geode::listenForSettingChangesV3<std::__ndk1::basic_string<char, std::__ndk1::char_traits<char>, std::__ndk1::allocator<char> >, void (*)(std::__ndk1::basic_string<char, std::__ndk1::char_traits<char>, std::__ndk1::allocator<char> >)>(std::__ndk1::basic_string_view<char, std::__ndk1::char_traits<char> >, void (*&&)(std::__ndk1::basic_string<char, std::__ndk1::char_traits<char>, std::__ndk1::allocator<char> >), geode::Mod*)::{lambda(std::__ndk1::shared_ptr<geode::SettingV3>)#1}, std::__ndk1::allocator<geode::listenForSettingChangesV3<std::__ndk1::basic_string<char, std::__ndk1::char_traits<char>, std::__ndk1::allocator<char> >, void (*)(std::__ndk1::basic_string<char, std::__ndk1::char_traits<char>, std::__ndk1::allocator<char> >)>(std::__ndk1::basic_string_view<char, std::__ndk1::char_traits<char> >, void (*&&)(std::__ndk1::basic_string<char, std::__ndk1::char_traits<char>, std::__ndk1::allocator<char> >), geode::Mod*)::{lambda(std::__ndk1::shared_ptr<geode::SettingV3>)#1}>, void (std::__ndk1::shared_ptr<geode::SettingV3>)>::target(std::type_info const&) const
PUBLIC 93044 0 std::__ndk1::__function::__func<geode::listenForSettingChangesV3<std::__ndk1::basic_string<char, std::__ndk1::char_traits<char>, std::__ndk1::allocator<char> >, void (*)(std::__ndk1::basic_string<char, std::__ndk1::char_traits<char>, std::__ndk1::allocator<char> >)>(std::__ndk1::basic_string_view<char, std::__ndk1::char_traits<char> >, void (*&&)(std::__ndk1::basic_string<char, std::__ndk1::char_traits<char>, std::__ndk1::allocator<char> >), geode::Mod*)::{lambda(std::__ndk1::shared_ptr<geode::SettingV3>)#1}, std::__ndk1::allocator<geode::listenForSettingChangesV3<std::__ndk1::basic_string<char, std::__ndk1::char_traits<char>, std::__ndk1::allocator<char> >, void (*)(std::__ndk1::basic_string<char, std::__ndk1::char_traits<char>, std::__ndk1::allocator<char> >)>(std::__ndk1::basic_string_view<char, std::__ndk1::char_traits<char> >, void (*&&)(std::__ndk1::basic_string<char, std::__ndk1::char_traits<char>, std::__ndk1::allocator<char> >), geode::Mod*)::{lambda(std::__ndk1::shared_ptr<geode::SettingV3>)#1}>, void (std::__ndk1::shared_ptr<geode::SettingV3>)>::target_type() const
PUBLIC 93050 0 std::__ndk1::shared_ptr<geode::SettingV3>::~shared_ptr[abi:ne180000]()
PUBLIC 930a0 0 std::__ndk1::shared_ptr<geode::StringSettingV3>::~shared_ptr[abi:ne180000]()
PUBLIC 930f0 0 geode::cast::traverseTypeinfoFor(void*, geode::cast::ClassTypeinfoType const*, char const*)
PUBLIC 931f4 0 std::__ndk1::basic_string<char, std::__ndk1::char_traits<char>, std::__ndk1::allocator<char> >::__init_copy_ctor_external(char const*, unsigned long)
PUBLIC 93274 0 geode::EventListener<geode::SettingChangedFilterV3>::getPool() const
PUBLIC 93278 0 geode::EventListener<geode::SettingChangedFilterV3>::handle(geode::Event*)
PUBLIC 933ec 0 geode::EventListener<geode::SettingChangedFilterV3>::~EventListener()
PUBLIC 93488 0 geode::EventListener<geode::SettingChangedFilterV3>::~EventListener()
PUBLIC 9352c 0 geodeExecFunction11<(anonymous namespace)::ExecFuncUnique11>()::{lambda(std::__ndk1::basic_string<char, std::__ndk1::char_traits<char>, std::__ndk1::allocator<char> >(std::__ndk1::basic_string<char, std::__ndk1::char_traits<char>, std::__ndk1::allocator<char> >))#1}::__invoke
PUBLIC 936a4 0 Global::Global()
PUBLIC 937e4 0 Global::~Global()
PUBLIC 93914 0 Macro::Macro()
PUBLIC 93a34 0 Renderer::Renderer()
PUBLIC 93d40 0 gdr::Replay<Macro, input>::~Replay()
PUBLIC 93e00 0 gdr::Replay<Macro, input>::Replay(std::__ndk1::basic_string<char, std::__ndk1::char_traits<char>, std::__ndk1::allocator<char> > const&, std::__ndk1::basic_string<char, std::__ndk1::char_traits<char>, std::__ndk1::allocator<char> > const&)
PUBLIC 93f24 0 gdr::Replay<Macro, input>::parseExtension(std::__ndk1::map<std::__ndk1::basic_string<char, std::__ndk1::char_traits<char>, std::__ndk1::allocator<char> >, nlohmann::json_abi_v3_11_3::basic_json<std::__ndk1::map, std::__ndk1::vector, std::__ndk1::basic_string<char, std::__ndk1::char_traits<char>, std::__ndk1::allocator<char> >, bool, long, unsigned long, double, std::__ndk1::allocator, nlohmann::json_abi_v3_11_3::adl_serializer, std::__ndk1::vector<unsigned char, std::__ndk1::allocator<unsigned char> >, void>, std::__ndk1::less<void>, std::__ndk1::allocator<std::__ndk1::pair<std::__ndk1::basic_string<char, std::__ndk1::char_traits<char>, std::__ndk1::allocator<char> > const, nlohmann::json_abi_v3_11_3::basic_json<std::__ndk1::map, std::__ndk1::vector, std::__ndk1::basic_string<char, std::__ndk1::char_traits<char>, std::__ndk1::allocator<char> >, bool, long, unsigned long, double, std::__ndk1::allocator, nlohmann::json_abi_v3_11_3::adl_serializer, std::__ndk1::vector<unsigned char, std::__ndk1::allocator<unsigned char> >, void> > > >)
PUBLIC 93f28 0 gdr::Replay<Macro, input>::saveExtension() const
PUBLIC 93f3c 0 std::__ndk1::__fs::filesystem::path::operator/=[abi:ne180000](std::__ndk1::__fs::filesystem::path const&)
PUBLIC 94024 0 std::__ndk1::basic_string<char, std::__ndk1::char_traits<char>, std::__ndk1::allocator<char> >::__assign_no_alias<true>(char const*, unsigned long)
PUBLIC 940d0 0 std::__ndk1::basic_string<char, std::__ndk1::char_traits<char>, std::__ndk1::allocator<char> >::__assign_no_alias<false>(char const*, unsigned long)
PUBLIC 941e0 0 _ZNSt6__ndk112basic_stringIcNS_11char_traitsIcEENS_9allocatorIcEEE6appendB8ne180000IPKcTnNS_9enable_ifIXsr31__has_forward_iterator_categoryIT_EE5valueEiE4typeELi0EEERS5_SA_SA_
PUBLIC 944e4 0 Renderer::~Renderer()
PUBLIC 945f8 0 geode::listenForSettingChangesV3<long, void (*)(long)>(std::__ndk1::basic_string_view<char, std::__ndk1::char_traits<char> >, void (*&&)(long), geode::Mod*)
PUBLIC 94848 0 std::__ndk1::__function::__func<geode::listenForSettingChangesV3<long, void (*)(long)>(std::__ndk1::basic_string_view<char, std::__ndk1::char_traits<char> >, void (*&&)(long), geode::Mod*)::{lambda(std::__ndk1::shared_ptr<geode::SettingV3>)#1}, std::__ndk1::allocator<geode::listenForSettingChangesV3<long, void (*)(long)>(std::__ndk1::basic_string_view<char, std::__ndk1::char_traits<char> >, void (*&&)(long), geode::Mod*)::{lambda(std::__ndk1::shared_ptr<geode::SettingV3>)#1}>, void (std::__ndk1::shared_ptr<geode::SettingV3>)>::~__func()
PUBLIC 9484c 0 std::__ndk1::__function::__func<geode::listenForSettingChangesV3<long, void (*)(long)>(std::__ndk1::basic_string_view<char, std::__ndk1::char_traits<char> >, void (*&&)(long), geode::Mod*)::{lambda(std::__ndk1::shared_ptr<geode::SettingV3>)#1}, std::__ndk1::allocator<geode::listenForSettingChangesV3<long, void (*)(long)>(std::__ndk1::basic_string_view<char, std::__ndk1::char_traits<char> >, void (*&&)(long), geode::Mod*)::{lambda(std::__ndk1::shared_ptr<geode::SettingV3>)#1}>, void (std::__ndk1::shared_ptr<geode::SettingV3>)>::__clone() const
PUBLIC 94880 0 std::__ndk1::__function::__func<geode::listenForSettingChangesV3<long, void (*)(long)>(std::__ndk1::basic_string_view<char, std::__ndk1::char_traits<char> >, void (*&&)(long), geode::Mod*)::{lambda(std::__ndk1::shared_ptr<geode::SettingV3>)#1}, std::__ndk1::allocator<geode::listenForSettingChangesV3<long, void (*)(long)>(std::__ndk1::basic_string_view<char, std::__ndk1::char_traits<char> >, void (*&&)(long), geode::Mod*)::{lambda(std::__ndk1::shared_ptr<geode::SettingV3>)#1}>, void (std::__ndk1::shared_ptr<geode::SettingV3>)>::__clone(std::__ndk1::__function::__base<void (std::__ndk1::shared_ptr<geode::SettingV3>)>*) const
PUBLIC 94894 0 std::__ndk1::__function::__func<geode::listenForSettingChangesV3<long, void (*)(long)>(std::__ndk1::basic_string_view<char, std::__ndk1::char_traits<char> >, void (*&&)(long), geode::Mod*)::{lambda(std::__ndk1::shared_ptr<geode::SettingV3>)#1}, std::__ndk1::allocator<geode::listenForSettingChangesV3<long, void (*)(long)>(std::__ndk1::basic_string_view<char, std::__ndk1::char_traits<char> >, void (*&&)(long), geode::Mod*)::{lambda(std::__ndk1::shared_ptr<geode::SettingV3>)#1}>, void (std::__ndk1::shared_ptr<geode::SettingV3>)>::destroy()
PUBLIC 94898 0 std::__ndk1::__function::__func<geode::listenForSettingChangesV3<long, void (*)(long)>(std::__ndk1::basic_string_view<char, std::__ndk1::char_traits<char> >, void (*&&)(long), geode::Mod*)::{lambda(std::__ndk1::shared_ptr<geode::SettingV3>)#1}, std::__ndk1::allocator<geode::listenForSettingChangesV3<long, void (*)(long)>(std::__ndk1::basic_string_view<char, std::__ndk1::char_traits<char> >, void (*&&)(long), geode::Mod*)::{lambda(std::__ndk1::shared_ptr<geode::SettingV3>)#1}>, void (std::__ndk1::shared_ptr<geode::SettingV3>)>::destroy_deallocate()
PUBLIC 9489c 0 std::__ndk1::__function::__func<geode::listenForSettingChangesV3<long, void (*)(long)>(std::__ndk1::basic_string_view<char, std::__ndk1::char_traits<char> >, void (*&&)(long), geode::Mod*)::{lambda(std::__ndk1::shared_ptr<geode::SettingV3>)#1}, std::__ndk1::allocator<geode::listenForSettingChangesV3<long, void (*)(long)>(std::__ndk1::basic_string_view<char, std::__ndk1::char_traits<char> >, void (*&&)(long), geode::Mod*)::{lambda(std::__ndk1::shared_ptr<geode::SettingV3>)#1}>, void (std::__ndk1::shared_ptr<geode::SettingV3>)>::operator()(std::__ndk1::shared_ptr<geode::SettingV3>&&)
PUBLIC 948a4 0 std::__ndk1::__function::__func<geode::listenForSettingChangesV3<long, void (*)(long)>(std::__ndk1::basic_string_view<char, std::__ndk1::char_traits<char> >, void (*&&)(long), geode::Mod*)::{lambda(std::__ndk1::shared_ptr<geode::SettingV3>)#1}, std::__ndk1::allocator<geode::listenForSettingChangesV3<long, void (*)(long)>(std::__ndk1::basic_string_view<char, std::__ndk1::char_traits<char> >, void (*&&)(long), geode::Mod*)::{lambda(std::__ndk1::shared_ptr<geode::SettingV3>)#1}>, void (std::__ndk1::shared_ptr<geode::SettingV3>)>::target(std::type_info const&) const
PUBLIC 948c0 0 std::__ndk1::__function::__func<geode::listenForSettingChangesV3<long, void (*)(long)>(std::__ndk1::basic_string_view<char, std::__ndk1::char_traits<char> >, void (*&&)(long), geode::Mod*)::{lambda(std::__ndk1::shared_ptr<geode::SettingV3>)#1}, std::__ndk1::allocator<geode::listenForSettingChangesV3<long, void (*)(long)>(std::__ndk1::basic_string_view<char, std::__ndk1::char_traits<char> >, void (*&&)(long), geode::Mod*)::{lambda(std::__ndk1::shared_ptr<geode::SettingV3>)#1}>, void (std::__ndk1::shared_ptr<geode::SettingV3>)>::target_type() const
PUBLIC 948cc 0 std::__ndk1::__invoke[abi:ne180000]<geode::listenForSettingChangesV3<long, void (*)(long)>(std::__ndk1::basic_string_view<char, std::__ndk1::char_traits<char> >, void (*&&)(long), std::__ndk1::__invoke[abi:ne180000]::Mod*)::{lambda(std::__ndk1::shared_ptr<std::__ndk1::__invoke[abi:ne180000]::SettingV3>&)#1}, std::__ndk1::__invoke[abi:ne180000]::SettingV3>(geode::listenForSettingChangesV3<long, void (*)(long)>(std::__ndk1::basic_string_view<char, std::__ndk1::char_traits<char> >, void (*&&)(long), std::__ndk1::__invoke[abi:ne180000]::Mod*)::{lambda(std::__ndk1::shared_ptr<std::__ndk1::__invoke[abi:ne180000]::SettingV3>&)#1}, geode::listenForSettingChangesV3<long, void (*)(long)>(std::__ndk1::basic_string_view<char, std::__ndk1::char_traits<char> >, void (*&&)(long), std::__ndk1::__invoke[abi:ne180000]::Mod*)::{lambda(std::__ndk1::shared_ptr<std::__ndk1::__invoke[abi:ne180000]::SettingV3>&)#1})
PUBLIC 94a44 0 std::__ndk1::shared_ptr<geode::IntSettingV3>::~shared_ptr[abi:ne180000]()
PUBLIC 94a94 0 geodeExecFunction11<(anonymous namespace)::ExecFuncUnique11>()::{lambda(long)#1}::__invoke(long)
PUBLIC 94b38 0 geode::listenForSettingChangesV3<bool, void (*)(bool)>(std::__ndk1::basic_string_view<char, std::__ndk1::char_traits<char> >, void (*&&)(bool), geode::Mod*)
PUBLIC 94d80 0 std::__ndk1::__function::__base<void (std::__ndk1::shared_ptr<geode::SettingV3>)>::~__base()
PUBLIC 94d84 0 std::__ndk1::__function::__func<geode::listenForSettingChangesV3<bool, void (*)(bool)>(std::__ndk1::basic_string_view<char, std::__ndk1::char_traits<char> >, void (*&&)(bool), geode::Mod*)::{lambda(std::__ndk1::shared_ptr<geode::SettingV3>)#1}, std::__ndk1::allocator<geode::listenForSettingChangesV3<bool, void (*)(bool)>(std::__ndk1::basic_string_view<char, std::__ndk1::char_traits<char> >, void (*&&)(bool), geode::Mod*)::{lambda(std::__ndk1::shared_ptr<geode::SettingV3>)#1}>, void (std::__ndk1::shared_ptr<geode::SettingV3>)>::~__func()
PUBLIC 94d88 0 std::__ndk1::__function::__func<geode::listenForSettingChangesV3<bool, void (*)(bool)>(std::__ndk1::basic_string_view<char, std::__ndk1::char_traits<char> >, void (*&&)(bool), geode::Mod*)::{lambda(std::__ndk1::shared_ptr<geode::SettingV3>)#1}, std::__ndk1::allocator<geode::listenForSettingChangesV3<bool, void (*)(bool)>(std::__ndk1::basic_string_view<char, std::__ndk1::char_traits<char> >, void (*&&)(bool), geode::Mod*)::{lambda(std::__ndk1::shared_ptr<geode::SettingV3>)#1}>, void (std::__ndk1::shared_ptr<geode::SettingV3>)>::__clone() const
PUBLIC 94dbc 0 std::__ndk1::__function::__func<geode::listenForSettingChangesV3<bool, void (*)(bool)>(std::__ndk1::basic_string_view<char, std::__ndk1::char_traits<char> >, void (*&&)(bool), geode::Mod*)::{lambda(std::__ndk1::shared_ptr<geode::SettingV3>)#1}, std::__ndk1::allocator<geode::listenForSettingChangesV3<bool, void (*)(bool)>(std::__ndk1::basic_string_view<char, std::__ndk1::char_traits<char> >, void (*&&)(bool), geode::Mod*)::{lambda(std::__ndk1::shared_ptr<geode::SettingV3>)#1}>, void (std::__ndk1::shared_ptr<geode::SettingV3>)>::__clone(std::__ndk1::__function::__base<void (std::__ndk1::shared_ptr<geode::SettingV3>)>*) const
PUBLIC 94dd0 0 std::__ndk1::__function::__func<geode::listenForSettingChangesV3<bool, void (*)(bool)>(std::__ndk1::basic_string_view<char, std::__ndk1::char_traits<char> >, void (*&&)(bool), geode::Mod*)::{lambda(std::__ndk1::shared_ptr<geode::SettingV3>)#1}, std::__ndk1::allocator<geode::listenForSettingChangesV3<bool, void (*)(bool)>(std::__ndk1::basic_string_view<char, std::__ndk1::char_traits<char> >, void (*&&)(bool), geode::Mod*)::{lambda(std::__ndk1::shared_ptr<geode::SettingV3>)#1}>, void (std::__ndk1::shared_ptr<geode::SettingV3>)>::destroy()
PUBLIC 94dd4 0 std::__ndk1::__function::__func<geode::listenForSettingChangesV3<bool, void (*)(bool)>(std::__ndk1::basic_string_view<char, std::__ndk1::char_traits<char> >, void (*&&)(bool), geode::Mod*)::{lambda(std::__ndk1::shared_ptr<geode::SettingV3>)#1}, std::__ndk1::allocator<geode::listenForSettingChangesV3<bool, void (*)(bool)>(std::__ndk1::basic_string_view<char, std::__ndk1::char_traits<char> >, void (*&&)(bool), geode::Mod*)::{lambda(std::__ndk1::shared_ptr<geode::SettingV3>)#1}>, void (std::__ndk1::shared_ptr<geode::SettingV3>)>::destroy_deallocate()
PUBLIC 94dd8 0 std::__ndk1::__function::__func<geode::listenForSettingChangesV3<bool, void (*)(bool)>(std::__ndk1::basic_string_view<char, std::__ndk1::char_traits<char> >, void (*&&)(bool), geode::Mod*)::{lambda(std::__ndk1::shared_ptr<geode::SettingV3>)#1}, std::__ndk1::allocator<geode::listenForSettingChangesV3<bool, void (*)(bool)>(std::__ndk1::basic_string_view<char, std::__ndk1::char_traits<char> >, void (*&&)(bool), geode::Mod*)::{lambda(std::__ndk1::shared_ptr<geode::SettingV3>)#1}>, void (std::__ndk1::shared_ptr<geode::SettingV3>)>::operator()(std::__ndk1::shared_ptr<geode::SettingV3>&&)
PUBLIC 94f50 0 std::__ndk1::__function::__func<geode::listenForSettingChangesV3<bool, void (*)(bool)>(std::__ndk1::basic_string_view<char, std::__ndk1::char_traits<char> >, void (*&&)(bool), geode::Mod*)::{lambda(std::__ndk1::shared_ptr<geode::SettingV3>)#1}, std::__ndk1::allocator<geode::listenForSettingChangesV3<bool, void (*)(bool)>(std::__ndk1::basic_string_view<char, std::__ndk1::char_traits<char> >, void (*&&)(bool), geode::Mod*)::{lambda(std::__ndk1::shared_ptr<geode::SettingV3>)#1}>, void (std::__ndk1::shared_ptr<geode::SettingV3>)>::target(std::type_info const&) const
PUBLIC 94f6c 0 std::__ndk1::__function::__func<geode::listenForSettingChangesV3<bool, void (*)(bool)>(std::__ndk1::basic_string_view<char, std::__ndk1::char_traits<char> >, void (*&&)(bool), geode::Mod*)::{lambda(std::__ndk1::shared_ptr<geode::SettingV3>)#1}, std::__ndk1::allocator<geode::listenForSettingChangesV3<bool, void (*)(bool)>(std::__ndk1::basic_string_view<char, std::__ndk1::char_traits<char> >, void (*&&)(bool), geode::Mod*)::{lambda(std::__ndk1::shared_ptr<geode::SettingV3>)#1}>, void (std::__ndk1::shared_ptr<geode::SettingV3>)>::target_type() const
PUBLIC 94f78 0 std::__ndk1::shared_ptr<geode::BoolSettingV3>::~shared_ptr[abi:ne180000]()
PUBLIC 94fc8 0 geodeExecFunction11<(anonymous namespace)::ExecFuncUnique11>()::{lambda(bool)#1}::__invoke(bool)
PUBLIC 95074 0 geodeExecFunction11<(anonymous namespace)::ExecFuncUnique11>()::{lambda(bool)#2}::__invoke(bool)
PUBLIC 95120 0 geode::modifier::ModifyDerive<hook37<(anonymous namespace)::hook37Parent>, PlayLayer>::apply()
PUBLIC 95e0c 0 std::__ndk1::shared_ptr<geode::Hook>::~shared_ptr[abi:ne180000]()
PUBLIC 95e5c 0 geode::impl::ResultData<geode::Hook*, std::__ndk1::basic_string<char, std::__ndk1::char_traits<char>, std::__ndk1::allocator<char> > >::~ResultData()
PUBLIC 95ed0 0 std::__ndk1::vector<std::__ndk1::basic_string<char, std::__ndk1::char_traits<char>, std::__ndk1::allocator<char> >, std::__ndk1::allocator<std::__ndk1::basic_string<char, std::__ndk1::char_traits<char>, std::__ndk1::allocator<char> > > >::~vector[abi:ne180000]()
PUBLIC 95f4c 0 geode::modifier::ModifyBase<geode::modifier::ModifyDerive<hook37<(anonymous namespace)::hook37Parent>, PlayLayer> >::apply()
PUBLIC 95f50 0 _ZN5geode15UnwrapExceptionC2IRPNS_4HookEQsr4implE18IsStringStreamableIT_EEENS_4impl5OkTagEOS5_
PUBLIC 960a4 0 std::__ndk1::__throw_bad_variant_access[abi:ne180000]()
PUBLIC 960d8 0 std::__ndk1::basic_stringstream<char, std::__ndk1::char_traits<char>, std::__ndk1::allocator<char> >::basic_stringstream[abi:ne180000]()
PUBLIC m 96204 0 std::__ndk1::basic_stringstream<char, std::__ndk1::char_traits<char>, std::__ndk1::allocator<char> >::~basic_stringstream()
PUBLIC 96284 0 geode::UnwrapException::~UnwrapException()
PUBLIC 962a8 0 std::__ndk1::__put_character_sequence[abi:ne180000]<char, std::__ndk1::char_traits<char> >(std::__ndk1::basic_ostream<char, std::__ndk1::char_traits<char> >, std::__ndk1::basic_ostream const*, unsigned long)
PUBLIC 9644c 0 std::__ndk1::__pad_and_output[abi:ne180000]<char, std::__ndk1::char_traits<char> >(std::__ndk1::char_traits<char>, std::__ndk1::ostreambuf_iterator const*, std::__ndk1::ostreambuf_iterator const, std::__ndk1::ostreambuf_iterator const, std::__ndk1::ios_base&, std::__ndk1::ostreambuf_iterator)
PUBLIC 96628 0 std::__ndk1::basic_stringbuf<char, std::__ndk1::char_traits<char>, std::__ndk1::allocator<char> >::str[abi:ne180000]() &&
PUBLIC 967a0 0 std::__ndk1::basic_stringbuf<char, std::__ndk1::char_traits<char>, std::__ndk1::allocator<char> >::__init_buf_ptrs[abi:ne180000]()
PUBLIC 968e8 0 std::__ndk1::vector<std::__ndk1::basic_string<char, std::__ndk1::char_traits<char>, std::__ndk1::allocator<char> >, std::__ndk1::allocator<std::__ndk1::basic_string<char, std::__ndk1::char_traits<char>, std::__ndk1::allocator<char> > > >::__push_back_slow_path<std::__ndk1::basic_string<char, std::__ndk1::char_traits<char>, std::__ndk1::allocator<char> > const&>(std::__ndk1::basic_string<char, std::__ndk1::char_traits<char>, std::__ndk1::allocator<char> > const&)
PUBLIC 96b10 0 std::__ndk1::__split_buffer<std::__ndk1::basic_string<char, std::__ndk1::char_traits<char>, std::__ndk1::allocator<char> >, std::__ndk1::allocator<std::__ndk1::basic_string<char, std::__ndk1::char_traits<char>, std::__ndk1::allocator<char> > >&>::~__split_buffer()
PUBLIC 96b78 0 std::__ndk1::vector<std::__ndk1::basic_string<char, std::__ndk1::char_traits<char>, std::__ndk1::allocator<char> >, std::__ndk1::allocator<std::__ndk1::basic_string<char, std::__ndk1::char_traits<char>, std::__ndk1::allocator<char> > > >::__throw_length_error[abi:ne180000]() const
PUBLIC 96b8c 0 std::__ndk1::__variant_detail::__visitation::__base::__dispatcher<(unsigned long)0>::__dispatch[abi:ne180000]<std::__ndk1::__variant_detail::__dtor<std::__ndk1::__variant_detail::__traits<geode::Hook*, std::__ndk1::basic_string<char, std::__ndk1::char_traits<char>, std::__ndk1::allocator<char> > >, (std::__ndk1::__variant_detail::_Trait)1>::__destroy[abi:ne180000]()::{lambda(auto:1&)#1}, std::__ndk1::__variant_detail::__base<(std::__ndk1::__variant_detail::__traits<geode::Hook*, std::__ndk1::basic_string<char, std::__ndk1::char_traits<char>, std::__ndk1::allocator<char> > >)1, geode::Hook, std::__ndk1::allocator<char> >&>(std::__ndk1::__variant_detail::__dtor<std::__ndk1::__variant_detail::__traits<geode::Hook*, std::__ndk1::basic_string<char, std::__ndk1::char_traits<char>, std::__ndk1::allocator<char> > >, (std::__ndk1::__variant_detail::_Trait)1>, std::__ndk1::__variant_detail::__base<(std::__ndk1::__variant_detail::__traits<geode::Hook*, std::__ndk1::basic_string<char, std::__ndk1::char_traits<char>, std::__ndk1::allocator<char> > >)1, geode::Hook, std::__ndk1::allocator<char> >&)
PUBLIC 96b90 0 std::__ndk1::__variant_detail::__visitation::__base::__dispatcher<(unsigned long)1>::__dispatch[abi:ne180000]<std::__ndk1::__variant_detail::__dtor<std::__ndk1::__variant_detail::__traits<geode::Hook*, std::__ndk1::basic_string<char, std::__ndk1::char_traits<char>, std::__ndk1::allocator<char> > >, (std::__ndk1::__variant_detail::_Trait)1>::__destroy[abi:ne180000]()::{lambda(auto:1&)#1}, std::__ndk1::__variant_detail::__base<(std::__ndk1::__variant_detail::__traits<geode::Hook*, std::__ndk1::basic_string<char, std::__ndk1::char_traits<char>, std::__ndk1::allocator<char> > >)1, geode::Hook, std::__ndk1::allocator<char> >&>(std::__ndk1::__variant_detail::__dtor<std::__ndk1::__variant_detail::__traits<geode::Hook*, std::__ndk1::basic_string<char, std::__ndk1::char_traits<char>, std::__ndk1::allocator<char> > >, (std::__ndk1::__variant_detail::_Trait)1>, std::__ndk1::__variant_detail::__base<(std::__ndk1::__variant_detail::__traits<geode::Hook*, std::__ndk1::basic_string<char, std::__ndk1::char_traits<char>, std::__ndk1::allocator<char> > >)1, geode::Hook, std::__ndk1::allocator<char> >&)
PUBLIC 96ba4 0 std::__ndk1::__tree<std::__ndk1::__value_type<std::__ndk1::basic_string<char, std::__ndk1::char_traits<char>, std::__ndk1::allocator<char> >, std::__ndk1::shared_ptr<geode::Hook> >, std::__ndk1::__map_value_compare<std::__ndk1::basic_string<char, std::__ndk1::char_traits<char>, std::__ndk1::allocator<char> >, std::__ndk1::__value_type<std::__ndk1::basic_string<char, std::__ndk1::char_traits<char>, std::__ndk1::allocator<char> >, std::__ndk1::shared_ptr<geode::Hook> >, std::__ndk1::less<std::__ndk1::basic_string<char, std::__ndk1::char_traits<char>, std::__ndk1::allocator<char> > >, true>, std::__ndk1::allocator<std::__ndk1::__value_type<std::__ndk1::basic_string<char, std::__ndk1::char_traits<char>, std::__ndk1::allocator<char> >, std::__ndk1::shared_ptr<geode::Hook> > > >::find<std::__ndk1::basic_string<char, std::__ndk1::char_traits<char>, std::__ndk1::allocator<char> > >(std::__ndk1::basic_string<char, std::__ndk1::char_traits<char>, std::__ndk1::allocator<char> > const&)
PUBLIC 96cc4 0 std::__ndk1::__tree<std::__ndk1::__value_type<std::__ndk1::basic_string<char, std::__ndk1::char_traits<char>, std::__ndk1::allocator<char> >, std::__ndk1::shared_ptr<geode::Hook> >, std::__ndk1::__map_value_compare<std::__ndk1::basic_string<char, std::__ndk1::char_traits<char>, std::__ndk1::allocator<char> >, std::__ndk1::__value_type<std::__ndk1::basic_string<char, std::__ndk1::char_traits<char>, std::__ndk1::allocator<char> >, std::__ndk1::shared_ptr<geode::Hook> >, std::__ndk1::less<std::__ndk1::basic_string<char, std::__ndk1::char_traits<char>, std::__ndk1::allocator<char> > >, true>, std::__ndk1::allocator<std::__ndk1::__value_type<std::__ndk1::basic_string<char, std::__ndk1::char_traits<char>, std::__ndk1::allocator<char> >, std::__ndk1::shared_ptr<geode::Hook> > > >::erase(std::__ndk1::__tree_const_iterator<std::__ndk1::__value_type<std::__ndk1::basic_string<char, std::__ndk1::char_traits<char>, std::__ndk1::allocator<char> >, std::__ndk1::shared_ptr<geode::Hook> >, std::__ndk1::__tree_node<std::__ndk1::__value_type<std::__ndk1::basic_string<char, std::__ndk1::char_traits<char>, std::__ndk1::allocator<char> >, std::__ndk1::shared_ptr<geode::Hook> >, void*>*, long>)
PUBLIC 96d98 0 std::__ndk1::__tree_remove[abi:ne180000]<std::__ndk1::__tree_node_base<void*>*>(std::__ndk1::__tree_node_base<void*>*, std::__ndk1::__tree_node_base<void*>*)
PUBLIC 97160 0 std::__ndk1::__tree<std::__ndk1::__value_type<std::__ndk1::basic_string<char, std::__ndk1::char_traits<char>, std::__ndk1::allocator<char> >, std::__ndk1::shared_ptr<geode::Hook> >, std::__ndk1::__map_value_compare<std::__ndk1::basic_string<char, std::__ndk1::char_traits<char>, std::__ndk1::allocator<char> >, std::__ndk1::__value_type<std::__ndk1::basic_string<char, std::__ndk1::char_traits<char>, std::__ndk1::allocator<char> >, std::__ndk1::shared_ptr<geode::Hook> >, std::__ndk1::less<std::__ndk1::basic_string<char, std::__ndk1::char_traits<char>, std::__ndk1::allocator<char> > >, true>, std::__ndk1::allocator<std::__ndk1::__value_type<std::__ndk1::basic_string<char, std::__ndk1::char_traits<char>, std::__ndk1::allocator<char> >, std::__ndk1::shared_ptr<geode::Hook> > > >::destroy(std::__ndk1::__tree_node<std::__ndk1::__value_type<std::__ndk1::basic_string<char, std::__ndk1::char_traits<char>, std::__ndk1::allocator<char> >, std::__ndk1::shared_ptr<geode::Hook> >, void*>*)
PUBLIC 971ec 0 geode::modifier::AsStaticFunction_postUpdate<hook37<(anonymous namespace)::hook37Parent>, void (hook37<(anonymous namespace)::hook37Parent>::*)(float)>::Impl<void (hook37<(anonymous namespace)::hook37Parent>::*)(float)>::function(hook37<(anonymous namespace)::hook37Parent>*, float)
PUBLIC 972e0 0 geode::modifier::AsStaticFunction_init<hook37<(anonymous namespace)::hook37Parent>, bool (hook37<(anonymous namespace)::hook37Parent>::*)(GJGameLevel*, bool, bool)>::Impl<bool (hook37<(anonymous namespace)::hook37Parent>::*)(GJGameLevel*, bool, bool)>::function(hook37<(anonymous namespace)::hook37Parent>*, GJGameLevel*, bool, bool)
PUBLIC 973e0 0 geode::Hook::create<void (*)(hook37<(anonymous namespace)::hook37Parent>*)>(void*, void (*)(hook37<(anonymous namespace)::hook37Parent>*), std::__ndk1::basic_string<char, std::__ndk1::char_traits<char>, std::__ndk1::allocator<char> > const&, tulip::hook::TulipConvention, tulip::hook::HookMetadata const&)
PUBLIC 97514 0 geode::modifier::AsStaticFunction_onQuit<hook37<(anonymous namespace)::hook37Parent>, void (hook37<(anonymous namespace)::hook37Parent>::*)()>::Impl<void (hook37<(anonymous namespace)::hook37Parent>::*)()>::function(hook37<(anonymous namespace)::hook37Parent>*)
PUBLIC 97608 0 geode::modifier::AsStaticFunction_pauseGame<hook37<(anonymous namespace)::hook37Parent>, void (hook37<(anonymous namespace)::hook37Parent>::*)(bool)>::Impl<void (hook37<(anonymous namespace)::hook37Parent>::*)(bool)>::function(hook37<(anonymous namespace)::hook37Parent>*, bool)
PUBLIC 98418 0 geode::modifier::AsStaticFunction_resetLevel<hook37<(anonymous namespace)::hook37Parent>, void (hook37<(anonymous namespace)::hook37Parent>::*)()>::Impl<void (hook37<(anonymous namespace)::hook37Parent>::*)()>::function(hook37<(anonymous namespace)::hook37Parent>*)
PUBLIC 98e3c 0 geode::addresser::Addresser::addressOfVirtual<void, PlayLayer, float>(void (PlayLayer::*)(float))
PUBLIC 98f28 0 PlayLayer::PlayLayer(geode::ZeroConstructorType)
PUBLIC 98fbc 0 GJBaseGameLayer::GJBaseGameLayer(geode::ZeroConstructorType, unsigned long)
PUBLIC 99768 0 GJGameState::GJGameState()
PUBLIC 99ce0 0 geode::stl::unordered_map<int, int, geode::stl::hash<int>, geode::stl::equal_to<int>, std::__ndk1::allocator<std::__ndk1::pair<int const, int> > >::~unordered_map()
PUBLIC 99d58 0 geode::stl::unordered_set<int, geode::stl::hash<int>, geode::stl::equal_to<int>, std::__ndk1::allocator<int> >::~unordered_set()
PUBLIC 99dd0 0 geode::stl::unordered_map<int, gd::string, geode::stl::hash<int>, geode::stl::equal_to<int>, std::__ndk1::allocator<std::__ndk1::pair<int const, gd::string> > >::~unordered_map()
PUBLIC 99e54 0 gd::map<std::__ndk1::pair<int, int>, int>::~map()
PUBLIC 99e70 0 geode::stl::unordered_map<int, gd::vector<LabelGameObject*>, geode::stl::hash<int>, geode::stl::equal_to<int>, std::__ndk1::allocator<std::__ndk1::pair<int const, gd::vector<LabelGameObject*> > > >::~unordered_map()
PUBLIC 99efc 0 geode::stl::unordered_map<int, std::__ndk1::pair<int, int>, geode::stl::hash<int>, geode::stl::equal_to<int>, std::__ndk1::allocator<std::__ndk1::pair<int const, std::__ndk1::pair<int, int> > > >::~unordered_map()
PUBLIC 99f74 0 geode::stl::unordered_map<int, gd::vector<GameObject*>, geode::stl::hash<int>, geode::stl::equal_to<int>, std::__ndk1::allocator<std::__ndk1::pair<int const, gd::vector<GameObject*> > > >::~unordered_map()
PUBLIC 9a000 0 geode::stl::unordered_map<int, cocos2d::CCPoint, geode::stl::hash<int>, geode::stl::equal_to<int>, std::__ndk1::allocator<std::__ndk1::pair<int const, cocos2d::CCPoint> > >::~unordered_map()
PUBLIC 9a078 0 gd::vector<geode::stl::unordered_map<int, int, geode::stl::hash<int>, geode::stl::equal_to<int>, std::__ndk1::allocator<std::__ndk1::pair<int const, int> > > >::~vector()
PUBLIC 9a17c 0 GJGameState::~GJGameState()
PUBLIC 9a574 0 geode::stl::unordered_map<int, SongChannelState, geode::stl::hash<int>, geode::stl::equal_to<int>, std::__ndk1::allocator<std::__ndk1::pair<int const, SongChannelState> > >::~unordered_map()
PUBLIC 9a5ec 0 gd::map<std::__ndk1::pair<int, int>, SFXTriggerInstance>::~map()
PUBLIC 9a608 0 geode::stl::unordered_map<int, std::__ndk1::vector<int, std::__ndk1::allocator<int> >, geode::stl::hash<int>, geode::stl::equal_to<int>, std::__ndk1::allocator<std::__ndk1::pair<int const, std::__ndk1::vector<int, std::__ndk1::allocator<int> > > > >::~unordered_map()
PUBLIC 9a698 0 gd::vector<EnterEffectInstance>::~vector()
PUBLIC 9a730 0 geode::stl::unordered_map<int, std::__ndk1::vector<EnterEffectInstance, std::__ndk1::allocator<EnterEffectInstance> >, geode::stl::hash<int>, geode::stl::equal_to<int>, std::__ndk1::allocator<std::__ndk1::pair<int const, std::__ndk1::vector<EnterEffectInstance, std::__ndk1::allocator<EnterEffectInstance> > > > >::~unordered_map()
PUBLIC 9a76c 0 gd::map<std::__ndk1::pair<GJGameEvent, int>, int>::~map()
PUBLIC 9a788 0 gd::map<std::__ndk1::pair<GJGameEvent, int>, gd::vector<EventTriggerInstance> >::~map()
PUBLIC 9a7a4 0 geode::stl::unordered_map<int, EnhancedGameObject*, geode::stl::hash<int>, geode::stl::equal_to<int>, std::__ndk1::allocator<std::__ndk1::pair<int const, EnhancedGameObject*> > >::~unordered_map()
PUBLIC 9a81c 0 geode::stl::unordered_map<int, GameObjectPhysics, geode::stl::hash<int>, geode::stl::equal_to<int>, std::__ndk1::allocator<std::__ndk1::pair<int const, GameObjectPhysics> > >::~unordered_map()
PUBLIC 9a894 0 geode::stl::unordered_map<int, GJValueTween, geode::stl::hash<int>, geode::stl::equal_to<int>, std::__ndk1::allocator<std::__ndk1::pair<int const, GJValueTween> > >::~unordered_map()
PUBLIC 9a90c 0 geode::stl::unordered_map<int, bool, geode::stl::hash<int>, geode::stl::equal_to<int>, std::__ndk1::allocator<std::__ndk1::pair<int const, bool> > >::~unordered_map()
PUBLIC 9a984 0 gd::map<std::__ndk1::pair<GJGameEvent, int>, gd::vector<EventTriggerInstance> >::map(std::__ndk1::map<std::__ndk1::pair<GJGameEvent, int>, gd::vector<EventTriggerInstance>, std::__ndk1::less<std::__ndk1::pair<GJGameEvent, int> >, std::__ndk1::allocator<std::__ndk1::pair<std::__ndk1::pair<GJGameEvent, int> const, gd::vector<EventTriggerInstance> > > >)
PUBLIC 9ab50 0 gd::map<std::__ndk1::pair<GJGameEvent, int>, gd::vector<EventTriggerInstance> >::insert_pair(std::__ndk1::pair<std::__ndk1::pair<GJGameEvent, int>, gd::vector<EventTriggerInstance> > const&)
PUBLIC 9ae08 0 std::__ndk1::pair<std::__ndk1::pair<GJGameEvent, int>, gd::vector<EventTriggerInstance> >::~pair()
PUBLIC 9ae88 0 std::__ndk1::pair<std::__ndk1::pair<GJGameEvent, int> const, gd::vector<EventTriggerInstance> >::~pair()
PUBLIC 9af08 0 gd::vector<EventTriggerInstance>::vector(gd::vector<EventTriggerInstance> const&)
PUBLIC 9b0a8 0 geode::stl::_rb_insert_rebalance(bool, geode::stl::_rb_tree_base*, geode::stl::_rb_tree_base*, geode::stl::_rb_tree_base&)
PUBLIC 9b360 0 gd::vector<EventTriggerInstance>::operator=(gd::vector<EventTriggerInstance> const&)
PUBLIC 9b51c 0 gd::vector<EventTriggerInstance>::~vector()
PUBLIC 9b59c 0 std::__ndk1::__tree<std::__ndk1::__value_type<std::__ndk1::pair<GJGameEvent, int>, gd::vector<EventTriggerInstance> >, std::__ndk1::__map_value_compare<std::__ndk1::pair<GJGameEvent, int>, std::__ndk1::__value_type<std::__ndk1::pair<GJGameEvent, int>, gd::vector<EventTriggerInstance> >, std::__ndk1::less<std::__ndk1::pair<GJGameEvent, int> >, true>, std::__ndk1::allocator<std::__ndk1::__value_type<std::__ndk1::pair<GJGameEvent, int>, gd::vector<EventTriggerInstance> > > >::destroy(std::__ndk1::__tree_node<std::__ndk1::__value_type<std::__ndk1::pair<GJGameEvent, int>, gd::vector<EventTriggerInstance> >, void*>*)
PUBLIC 9b634 0 gd::map<std::__ndk1::pair<int, int>, SFXTriggerInstance>::erase(geode::stl::_rb_tree_node<std::__ndk1::pair<std::__ndk1::pair<int, int>, SFXTriggerInstance> >*)
PUBLIC 9b688 0 gd::map<int, EnterEffectAnimValue>::erase(geode::stl::_rb_tree_node<std::__ndk1::pair<int, EnterEffectAnimValue> >*)
PUBLIC 9b6dc 0 geode::stl::_Hashtable<int, std::__ndk1::pair<int const, std::__ndk1::vector<EnterEffectInstance, std::__ndk1::allocator<EnterEffectInstance> > >, std::__ndk1::allocator<std::__ndk1::pair<int const, std::__ndk1::vector<EnterEffectInstance, std::__ndk1::allocator<EnterEffectInstance> > > >, geode::stl::__detail::_Select1st, geode::stl::equal_to<int>, geode::stl::hash<int>, geode::stl::__detail::_Mod_range_hashing, geode::stl::__detail::_Default_ranged_hash, geode::stl::__detail::_Prime_rehash_policy, geode::stl::__detail::_Hashtable_traits<false, false, true> >::clear()
PUBLIC 9b784 0 gd::map<std::__ndk1::pair<GJGameEvent, int>, int>::erase(geode::stl::_rb_tree_node<std::__ndk1::pair<std::__ndk1::pair<GJGameEvent, int>, int> >*)
PUBLIC 9b7d8 0 gd::map<std::__ndk1::pair<GJGameEvent, int>, gd::vector<EventTriggerInstance> >::erase(geode::stl::_rb_tree_node<std::__ndk1::pair<std::__ndk1::pair<GJGameEvent, int>, gd::vector<EventTriggerInstance> > >*)
PUBLIC 9b880 0 gd::map<std::__ndk1::pair<int, int>, int>::erase(geode::stl::_rb_tree_node<std::__ndk1::pair<std::__ndk1::pair<int, int>, int> >*)
PUBLIC 9b8d4 0 std::__ndk1::shared_ptr<tulip::hook::CallingConvention>::~shared_ptr[abi:ne180000]()
PUBLIC 9b924 0 tulip::hook::HandlerMetadata::~HandlerMetadata()
PUBLIC 9b988 0 std::__ndk1::vector<tulip::hook::AbstractType, std::__ndk1::allocator<tulip::hook::AbstractType> >::__throw_length_error[abi:ne180000]() const
PUBLIC 9b99c 0 geode::modifier::FieldIntermediate<hook37<(anonymous namespace)::hook37Parent>, PlayLayer>::operator->()
PUBLIC 9bb2c 0 geode::modifier::FieldContainer::getField(unsigned long)
PUBLIC 9bde4 0 geode::modifier::FieldContainer::setField(unsigned long, unsigned long, std::__ndk1::function<void (void*)>)
PUBLIC 9bef8 0 geode::modifier::FieldIntermediate<hook37<(anonymous namespace)::hook37Parent>, PlayLayer>::fieldDestructor(void*)
PUBLIC 9befc 0 std::__ndk1::vector<void*, std::__ndk1::allocator<void*> >::__throw_length_error[abi:ne180000]() const
PUBLIC 9bf10 0 std::__ndk1::vector<std::__ndk1::function<void (void*)>, std::__ndk1::allocator<std::__ndk1::function<void (void*)> > >::__push_back_slow_path<std::__ndk1::function<void (void*)> >(std::__ndk1::function<void (void*)>&&)
PUBLIC 9c13c 0 std::__ndk1::vector<std::__ndk1::function<void (void*)>, std::__ndk1::allocator<std::__ndk1::function<void (void*)> > >::__throw_length_error[abi:ne180000]() const
PUBLIC 9c150 0 std::__ndk1::vector<void*, std::__ndk1::allocator<void*> >::__throw_out_of_range[abi:ne180000]() const
PUBLIC 9c164 0 std::__ndk1::__throw_out_of_range[abi:ne180000](char const*)
PUBLIC 9c1b4 0 std::out_of_range::out_of_range[abi:ne180000](char const*)
PUBLIC 9c1e4 0 std::__ndk1::vector<std::__ndk1::function<void (void*)>, std::__ndk1::allocator<std::__ndk1::function<void (void*)> > >::__throw_out_of_range[abi:ne180000]() const
PUBLIC 9c1f8 0 std::__ndk1::__function::__base<void (void*)>::~__base()
PUBLIC 9c1fc 0 std::__ndk1::__function::__func<void (*)(void*), std::__ndk1::allocator<void (*)(void*)>, void (void*)>::~__func()
PUBLIC 9c200 0 std::__ndk1::__function::__func<void (*)(void*), std::__ndk1::allocator<void (*)(void*)>, void (void*)>::__clone() const
PUBLIC 9c238 0 std::__ndk1::__function::__func<void (*)(void*), std::__ndk1::allocator<void (*)(void*)>, void (void*)>::__clone(std::__ndk1::__function::__base<void (void*)>*) const
PUBLIC 9c250 0 std::__ndk1::__function::__func<void (*)(void*), std::__ndk1::allocator<void (*)(void*)>, void (void*)>::destroy()
PUBLIC 9c254 0 std::__ndk1::__function::__func<void (*)(void*), std::__ndk1::allocator<void (*)(void*)>, void (void*)>::destroy_deallocate()
PUBLIC 9c258 0 std::__ndk1::__function::__func<void (*)(void*), std::__ndk1::allocator<void (*)(void*)>, void (void*)>::operator()(void*&&)
PUBLIC 9c268 0 std::__ndk1::__function::__func<void (*)(void*), std::__ndk1::allocator<void (*)(void*)>, void (void*)>::target(std::type_info const&) const
PUBLIC 9c284 0 std::__ndk1::__function::__func<void (*)(void*), std::__ndk1::allocator<void (*)(void*)>, void (void*)>::target_type() const
PUBLIC 9c290 0 std::__ndk1::__tree<std::__ndk1::__value_type<std::__ndk1::basic_string<char, std::__ndk1::char_traits<char>, std::__ndk1::allocator<char> >, std::__ndk1::shared_ptr<geode::Hook> >, std::__ndk1::__map_value_compare<std::__ndk1::basic_string<char, std::__ndk1::char_traits<char>, std::__ndk1::allocator<char> >, std::__ndk1::__value_type<std::__ndk1::basic_string<char, std::__ndk1::char_traits<char>, std::__ndk1::allocator<char> >, std::__ndk1::shared_ptr<geode::Hook> >, std::__ndk1::less<std::__ndk1::basic_string<char, std::__ndk1::char_traits<char>, std::__ndk1::allocator<char> > >, true>, std::__ndk1::allocator<std::__ndk1::__value_type<std::__ndk1::basic_string<char, std::__ndk1::char_traits<char>, std::__ndk1::allocator<char> >, std::__ndk1::shared_ptr<geode::Hook> > > >::__emplace_unique_key_args<std::__ndk1::basic_string<char, std::__ndk1::char_traits<char>, std::__ndk1::allocator<char> >, std::__ndk1::piecewise_construct_t const&, std::__ndk1::tuple<std::__ndk1::basic_string<char, std::__ndk1::char_traits<char>, std::__ndk1::allocator<char> >&&>, std::__ndk1::tuple<> >(std::__ndk1::basic_string<char, std::__ndk1::char_traits<char>, std::__ndk1::allocator<char> > const&, std::__ndk1::piecewise_construct_t const&, std::__ndk1::tuple<std::__ndk1::basic_string<char, std::__ndk1::char_traits<char>, std::__ndk1::allocator<char> >&&>, std::__ndk1::tuple<>)
PUBLIC 9c408 0 geode::Mod::getSettingValue<bool>(std::__ndk1::basic_string_view<char, std::__ndk1::char_traits<char> >) const
PUBLIC 9c53c 0 gd::map<int, bool>::insert_pair(std::__ndk1::pair<int, bool> const&)
PUBLIC 9c6ec 0 gdr::Input::parseExtension(std::__ndk1::map<std::__ndk1::basic_string<char, std::__ndk1::char_traits<char>, std::__ndk1::allocator<char> >, nlohmann::json_abi_v3_11_3::basic_json<std::__ndk1::map, std::__ndk1::vector, std::__ndk1::basic_string<char, std::__ndk1::char_traits<char>, std::__ndk1::allocator<char> >, bool, long, unsigned long, double, std::__ndk1::allocator, nlohmann::json_abi_v3_11_3::adl_serializer, std::__ndk1::vector<unsigned char, std::__ndk1::allocator<unsigned char> >, void>, std::__ndk1::less<void>, std::__ndk1::allocator<std::__ndk1::pair<std::__ndk1::basic_string<char, std::__ndk1::char_traits<char>, std::__ndk1::allocator<char> > const, nlohmann::json_abi_v3_11_3::basic_json<std::__ndk1::map, std::__ndk1::vector, std::__ndk1::basic_string<char, std::__ndk1::char_traits<char>, std::__ndk1::allocator<char> >, bool, long, unsigned long, double, std::__ndk1::allocator, nlohmann::json_abi_v3_11_3::adl_serializer, std::__ndk1::vector<unsigned char, std::__ndk1::allocator<unsigned char> >, void> > > >)
PUBLIC 9c6f0 0 gdr::Input::saveExtension() const
PUBLIC 9c704 0 std::__ndk1::vector<input, std::__ndk1::allocator<input> >::__throw_length_error[abi:ne180000]() const
PUBLIC 9c718 0 geode::Mod::getSavedValue<bool>(std::__ndk1::basic_string_view<char, std::__ndk1::char_traits<char> >)
PUBLIC 9c8a8 0 geode::impl::ResultData<matjson::Value&, std::__ndk1::basic_string<char, std::__ndk1::char_traits<char>, std::__ndk1::allocator<char> > >::~ResultData()
PUBLIC 9c91c 0 std::__ndk1::__variant_detail::__visitation::__base::__dispatcher<(unsigned long)0>::__dispatch[abi:ne180000]<std::__ndk1::__variant_detail::__dtor<std::__ndk1::__variant_detail::__traits<std::__ndk1::reference_wrapper<matjson::Value>, std::__ndk1::basic_string<char, std::__ndk1::char_traits<char>, std::__ndk1::allocator<char> > >, (std::__ndk1::__variant_detail::_Trait)1>::__destroy[abi:ne180000]()::{lambda(auto:1&)#1}, std::__ndk1::__variant_detail::__base<(std::__ndk1::__variant_detail::__traits<std::__ndk1::reference_wrapper<matjson::Value>, std::__ndk1::basic_string<char, std::__ndk1::char_traits<char>, std::__ndk1::allocator<char> > >)1, matjson::Value, std::__ndk1::allocator<char> >&>(std::__ndk1::__variant_detail::__dtor<std::__ndk1::__variant_detail::__traits<std::__ndk1::reference_wrapper<matjson::Value>, std::__ndk1::basic_string<char, std::__ndk1::char_traits<char>, std::__ndk1::allocator<char> > >, (std::__ndk1::__variant_detail::_Trait)1>, std::__ndk1::__variant_detail::__base<(std::__ndk1::__variant_detail::__traits<std::__ndk1::reference_wrapper<matjson::Value>, std::__ndk1::basic_string<char, std::__ndk1::char_traits<char>, std::__ndk1::allocator<char> > >)1, matjson::Value, std::__ndk1::allocator<char> >&)
PUBLIC 9c920 0 std::__ndk1::__variant_detail::__visitation::__base::__dispatcher<(unsigned long)1>::__dispatch[abi:ne180000]<std::__ndk1::__variant_detail::__dtor<std::__ndk1::__variant_detail::__traits<std::__ndk1::reference_wrapper<matjson::Value>, std::__ndk1::basic_string<char, std::__ndk1::char_traits<char>, std::__ndk1::allocator<char> > >, (std::__ndk1::__variant_detail::_Trait)1>::__destroy[abi:ne180000]()::{lambda(auto:1&)#1}, std::__ndk1::__variant_detail::__base<(std::__ndk1::__variant_detail::__traits<std::__ndk1::reference_wrapper<matjson::Value>, std::__ndk1::basic_string<char, std::__ndk1::char_traits<char>, std::__ndk1::allocator<char> > >)1, matjson::Value, std::__ndk1::allocator<char> >&>(std::__ndk1::__variant_detail::__dtor<std::__ndk1::__variant_detail::__traits<std::__ndk1::reference_wrapper<matjson::Value>, std::__ndk1::basic_string<char, std::__ndk1::char_traits<char>, std::__ndk1::allocator<char> > >, (std::__ndk1::__variant_detail::_Trait)1>, std::__ndk1::__variant_detail::__base<(std::__ndk1::__variant_detail::__traits<std::__ndk1::reference_wrapper<matjson::Value>, std::__ndk1::basic_string<char, std::__ndk1::char_traits<char>, std::__ndk1::allocator<char> > >)1, matjson::Value, std::__ndk1::allocator<char> >&)
PUBLIC 9c934 0 std::__ndk1::__variant_detail::__visitation::__base::__dispatcher<(unsigned long)0>::__dispatch[abi:ne180000]<std::__ndk1::__variant_detail::__dtor<std::__ndk1::__variant_detail::__traits<bool, std::__ndk1::basic_string<char, std::__ndk1::char_traits<char>, std::__ndk1::allocator<char> > >, (std::__ndk1::__variant_detail::_Trait)1>::__destroy[abi:ne180000]()::{lambda(auto:1&)#1}, std::__ndk1::__variant_detail::__base<(std::__ndk1::__variant_detail::__traits<bool, std::__ndk1::basic_string<char, std::__ndk1::char_traits<char>, std::__ndk1::allocator<char> > >)1, bool, std::__ndk1::allocator<char> >&>(std::__ndk1::__variant_detail::__dtor<std::__ndk1::__variant_detail::__traits<bool, std::__ndk1::basic_string<char, std::__ndk1::char_traits<char>, std::__ndk1::allocator<char> > >, (std::__ndk1::__variant_detail::_Trait)1>, std::__ndk1::__variant_detail::__base<(std::__ndk1::__variant_detail::__traits<bool, std::__ndk1::basic_string<char, std::__ndk1::char_traits<char>, std::__ndk1::allocator<char> > >)1, bool, std::__ndk1::allocator<char> >&)
PUBLIC 9c938 0 std::__ndk1::__variant_detail::__visitation::__base::__dispatcher<(unsigned long)1>::__dispatch[abi:ne180000]<std::__ndk1::__variant_detail::__dtor<std::__ndk1::__variant_detail::__traits<bool, std::__ndk1::basic_string<char, std::__ndk1::char_traits<char>, std::__ndk1::allocator<char> > >, (std::__ndk1::__variant_detail::_Trait)1>::__destroy[abi:ne180000]()::{lambda(auto:1&)#1}, std::__ndk1::__variant_detail::__base<(std::__ndk1::__variant_detail::__traits<bool, std::__ndk1::basic_string<char, std::__ndk1::char_traits<char>, std::__ndk1::allocator<char> > >)1, bool, std::__ndk1::allocator<char> >&>(std::__ndk1::__variant_detail::__dtor<std::__ndk1::__variant_detail::__traits<bool, std::__ndk1::basic_string<char, std::__ndk1::char_traits<char>, std::__ndk1::allocator<char> > >, (std::__ndk1::__variant_detail::_Trait)1>, std::__ndk1::__variant_detail::__base<(std::__ndk1::__variant_detail::__traits<bool, std::__ndk1::basic_string<char, std::__ndk1::char_traits<char>, std::__ndk1::allocator<char> > >)1, bool, std::__ndk1::allocator<char> >&)
PUBLIC 9c94c 0 geode::modifier::ModifyDerive<BGLHook, GJBaseGameLayer>::apply()
PUBLIC 9cffc 0 geode::modifier::ModifyBase<geode::modifier::ModifyDerive<BGLHook, GJBaseGameLayer> >::apply()
PUBLIC 9d000 0 geode::modifier::AsStaticFunction_handleButton<BGLHook, void (BGLHook::*)(bool, int, bool)>::Impl<void (BGLHook::*)(bool, int, bool)>::function(BGLHook*, bool, int, bool)
PUBLIC 9d2f8 0 geode::modifier::AsStaticFunction_processCommands<BGLHook, void (BGLHook::*)(float)>::Impl<void (BGLHook::*)(float)>::function(BGLHook*, float)
PUBLIC 9dc50 0 geode::modifier::FieldIntermediate<BGLHook, GJBaseGameLayer>::self()
PUBLIC 9dddc 0 geode::modifier::FieldIntermediate<BGLHook, GJBaseGameLayer>::fieldDestructor(void*)
PUBLIC 9dde0 0 geode::modifier::ModifyDerive<hook434<(anonymous namespace)::hook434Parent>, PauseLayer>::apply()
PUBLIC 9e700 0 geode::modifier::ModifyBase<geode::modifier::ModifyDerive<hook434<(anonymous namespace)::hook434Parent>, PauseLayer> >::apply()
PUBLIC 9e704 0 geode::modifier::AsStaticFunction_goEdit<hook434<(anonymous namespace)::hook434Parent>, void (hook434<(anonymous namespace)::hook434Parent>::*)()>::Impl<void (hook434<(anonymous namespace)::hook434Parent>::*)()>::function(hook434<(anonymous namespace)::hook434Parent>*)
PUBLIC 9e7e8 0 geode::Hook::create<void (*)(hook434<(anonymous namespace)::hook434Parent>*, cocos2d::CCObject*)>(void*, void (*)(hook434<(anonymous namespace)::hook434Parent>*, cocos2d::CCObject*), std::__ndk1::basic_string<char, std::__ndk1::char_traits<char>, std::__ndk1::allocator<char> > const&, tulip::hook::TulipConvention, tulip::hook::HookMetadata const&)
PUBLIC 9e96c 0 geode::modifier::AsStaticFunction_onNormalMode<hook434<(anonymous namespace)::hook434Parent>, void (hook434<(anonymous namespace)::hook434Parent>::*)(cocos2d::CCObject*)>::Impl<void (hook434<(anonymous namespace)::hook434Parent>::*)(cocos2d::CCObject*)>::function(hook434<(anonymous namespace)::hook434Parent>*, cocos2d::CCObject*)
PUBLIC 9eaac 0 geode::modifier::AsStaticFunction_onPracticeMode<hook434<(anonymous namespace)::hook434Parent>, void (hook434<(anonymous namespace)::hook434Parent>::*)(cocos2d::CCObject*)>::Impl<void (hook434<(anonymous namespace)::hook434Parent>::*)(cocos2d::CCObject*)>::function(hook434<(anonymous namespace)::hook434Parent>*, cocos2d::CCObject*)
PUBLIC 9eb58 0 geode::modifier::AsStaticFunction_onQuit<hook434<(anonymous namespace)::hook434Parent>, void (hook434<(anonymous namespace)::hook434Parent>::*)(cocos2d::CCObject*)>::Impl<void (hook434<(anonymous namespace)::hook434Parent>::*)(cocos2d::CCObject*)>::function(hook434<(anonymous namespace)::hook434Parent>*, cocos2d::CCObject*)
PUBLIC 9ec3c 0 std::__ndk1::__function::__func<hook434<(anonymous namespace)::hook434Parent>::goEdit()::{lambda()#1}, std::__ndk1::allocator<hook434<(anonymous namespace)::hook434Parent>::goEdit()::{lambda()#1}>, void ()>::~__func()
PUBLIC 9ec40 0 std::__ndk1::__function::__func<hook434<(anonymous namespace)::hook434Parent>::goEdit()::{lambda()#1}, std::__ndk1::allocator<hook434<(anonymous namespace)::hook434Parent>::goEdit()::{lambda()#1}>, void ()>::__clone() const
PUBLIC 9ec64 0 std::__ndk1::__function::__func<hook434<(anonymous namespace)::hook434Parent>::goEdit()::{lambda()#1}, std::__ndk1::allocator<hook434<(anonymous namespace)::hook434Parent>::goEdit()::{lambda()#1}>, void ()>::__clone(std::__ndk1::__function::__base<void ()>*) const
PUBLIC 9ec74 0 std::__ndk1::__function::__func<hook434<(anonymous namespace)::hook434Parent>::goEdit()::{lambda()#1}, std::__ndk1::allocator<hook434<(anonymous namespace)::hook434Parent>::goEdit()::{lambda()#1}>, void ()>::destroy()
PUBLIC 9ec78 0 std::__ndk1::__function::__func<hook434<(anonymous namespace)::hook434Parent>::goEdit()::{lambda()#1}, std::__ndk1::allocator<hook434<(anonymous namespace)::hook434Parent>::goEdit()::{lambda()#1}>, void ()>::destroy_deallocate()
PUBLIC 9ec7c 0 std::__ndk1::__function::__func<hook434<(anonymous namespace)::hook434Parent>::goEdit()::{lambda()#1}, std::__ndk1::allocator<hook434<(anonymous namespace)::hook434Parent>::goEdit()::{lambda()#1}>, void ()>::operator()()
PUBLIC 9ed40 0 std::__ndk1::__function::__func<hook434<(anonymous namespace)::hook434Parent>::goEdit()::{lambda()#1}, std::__ndk1::allocator<hook434<(anonymous namespace)::hook434Parent>::goEdit()::{lambda()#1}>, void ()>::target(std::type_info const&) const
PUBLIC 9ed5c 0 std::__ndk1::__function::__func<hook434<(anonymous namespace)::hook434Parent>::goEdit()::{lambda()#1}, std::__ndk1::allocator<hook434<(anonymous namespace)::hook434Parent>::goEdit()::{lambda()#1}>, void ()>::target_type() const
PUBLIC 9ed68 0 std::__ndk1::__function::__base<void ()>::~__base()
PUBLIC 9ed6c 0 std::__ndk1::__function::__func<hook434<(anonymous namespace)::hook434Parent>::onQuit(cocos2d::CCObject*)::{lambda()#1}, std::__ndk1::allocator<hook434<(anonymous namespace)::hook434Parent>::onQuit(cocos2d::CCObject*)::{lambda()#1}>, void ()>::~__func()
PUBLIC 9ed70 0 std::__ndk1::__function::__func<hook434<(anonymous namespace)::hook434Parent>::onQuit(cocos2d::CCObject*)::{lambda()#1}, std::__ndk1::allocator<hook434<(anonymous namespace)::hook434Parent>::onQuit(cocos2d::CCObject*)::{lambda()#1}>, void ()>::__clone() const
PUBLIC 9ed94 0 std::__ndk1::__function::__func<hook434<(anonymous namespace)::hook434Parent>::onQuit(cocos2d::CCObject*)::{lambda()#1}, std::__ndk1::allocator<hook434<(anonymous namespace)::hook434Parent>::onQuit(cocos2d::CCObject*)::{lambda()#1}>, void ()>::__clone(std::__ndk1::__function::__base<void ()>*) const
PUBLIC 9eda4 0 std::__ndk1::__function::__func<hook434<(anonymous namespace)::hook434Parent>::onQuit(cocos2d::CCObject*)::{lambda()#1}, std::__ndk1::allocator<hook434<(anonymous namespace)::hook434Parent>::onQuit(cocos2d::CCObject*)::{lambda()#1}>, void ()>::destroy()
PUBLIC 9eda8 0 std::__ndk1::__function::__func<hook434<(anonymous namespace)::hook434Parent>::onQuit(cocos2d::CCObject*)::{lambda()#1}, std::__ndk1::allocator<hook434<(anonymous namespace)::hook434Parent>::onQuit(cocos2d::CCObject*)::{lambda()#1}>, void ()>::destroy_deallocate()
PUBLIC 9edac 0 std::__ndk1::__function::__func<hook434<(anonymous namespace)::hook434Parent>::onQuit(cocos2d::CCObject*)::{lambda()#1}, std::__ndk1::allocator<hook434<(anonymous namespace)::hook434Parent>::onQuit(cocos2d::CCObject*)::{lambda()#1}>, void ()>::operator()()
PUBLIC 9ee70 0 std::__ndk1::__function::__func<hook434<(anonymous namespace)::hook434Parent>::onQuit(cocos2d::CCObject*)::{lambda()#1}, std::__ndk1::allocator<hook434<(anonymous namespace)::hook434Parent>::onQuit(cocos2d::CCObject*)::{lambda()#1}>, void ()>::target(std::type_info const&) const
PUBLIC 9ee8c 0 std::__ndk1::__function::__func<hook434<(anonymous namespace)::hook434Parent>::onQuit(cocos2d::CCObject*)::{lambda()#1}, std::__ndk1::allocator<hook434<(anonymous namespace)::hook434Parent>::onQuit(cocos2d::CCObject*)::{lambda()#1}>, void ()>::target_type() const
PUBLIC 9ee98 0 __cxx_global_array_dtor
PUBLIC 9eecc 0 __cxx_global_array_dtor.10
PUBLIC 9efac 0 __cxx_global_var_init.49
PUBLIC 9f3e8 0 _GLOBAL__sub_I_global.cpp
PUBLIC a000c 0 std::__ndk1::basic_string<char, std::__ndk1::char_traits<char>, std::__ndk1::allocator<char> >::basic_string[abi:ne180000]<0>()
PUBLIC a00a8 0 std::__ndk1::vector<std::__ndk1::basic_string<char, std::__ndk1::char_traits<char>, std::__ndk1::allocator<char> >, std::__ndk1::allocator<std::__ndk1::basic_string<char, std::__ndk1::char_traits<char>, std::__ndk1::allocator<char> > > >::vector[abi:ne180000](std::initializer_list<std::__ndk1::basic_string<char, std::__ndk1::char_traits<char>, std::__ndk1::allocator<char> > >)
PUBLIC a0200 0 std::__ndk1::map<std::__ndk1::basic_string<char, std::__ndk1::char_traits<char>, std::__ndk1::allocator<char> >, int, std::__ndk1::less<std::__ndk1::basic_string<char, std::__ndk1::char_traits<char>, std::__ndk1::allocator<char> > >, std::__ndk1::allocator<std::__ndk1::pair<std::__ndk1::basic_string<char, std::__ndk1::char_traits<char>, std::__ndk1::allocator<char> > const, int> > >::~map[abi:ne180000]()
PUBLIC a0208 0 _ZNSt6__ndk14pairIKNS_12basic_stringIcNS_11char_traitsIcEENS_9allocatorIcEEEES6_EC2B8ne180000IRA11_KcRA18_SA_TnNS_9enable_ifIXclsr10_CheckArgsE17__enable_implicitIT_T0_EEEiE4typeELi0EEEOSG_OSH_
PUBLIC a0340 0 _ZNSt6__ndk14pairIKNS_12basic_stringIcNS_11char_traitsIcEENS_9allocatorIcEEEES6_EC2B8ne180000IRA21_KcRA14_SA_TnNS_9enable_ifIXclsr10_CheckArgsE17__enable_implicitIT_T0_EEEiE4typeELi0EEEOSG_OSH_
PUBLIC a0478 0 _ZNSt6__ndk14pairIKNS_12basic_stringIcNS_11char_traitsIcEENS_9allocatorIcEEEES6_EC2B8ne180000IRA17_KcSC_TnNS_9enable_ifIXclsr10_CheckArgsE17__enable_implicitIT_T0_EEEiE4typeELi0EEEOSE_OSF_
PUBLIC a05b0 0 std::__ndk1::pair<std::__ndk1::basic_string<char, std::__ndk1::char_traits<char>, std::__ndk1::allocator<char> > const, std::__ndk1::basic_string<char, std::__ndk1::char_traits<char>, std::__ndk1::allocator<char> > >::~pair()
PUBLIC a05f4 0 std::__ndk1::map<std::__ndk1::basic_string<char, std::__ndk1::char_traits<char>, std::__ndk1::allocator<char> >, std::__ndk1::basic_string<char, std::__ndk1::char_traits<char>, std::__ndk1::allocator<char> >, std::__ndk1::less<std::__ndk1::basic_string<char, std::__ndk1::char_traits<char>, std::__ndk1::allocator<char> > >, std::__ndk1::allocator<std::__ndk1::pair<std::__ndk1::basic_string<char, std::__ndk1::char_traits<char>, std::__ndk1::allocator<char> > const, std::__ndk1::basic_string<char, std::__ndk1::char_traits<char>, std::__ndk1::allocator<char> > > > >::map[abi:ne180000](std::initializer_list<std::__ndk1::pair<std::__ndk1::basic_string<char, std::__ndk1::char_traits<char>, std::__ndk1::allocator<char> > const, std::__ndk1::basic_string<char, std::__ndk1::char_traits<char>, std::__ndk1::allocator<char> > > >, std::__ndk1::less<std::__ndk1::basic_string<char, std::__ndk1::char_traits<char>, std::__ndk1::allocator<char> > > const&)
PUBLIC a0710 0 std::__ndk1::map<std::__ndk1::basic_string<char, std::__ndk1::char_traits<char>, std::__ndk1::allocator<char> >, std::__ndk1::basic_string<char, std::__ndk1::char_traits<char>, std::__ndk1::allocator<char> >, std::__ndk1::less<std::__ndk1::basic_string<char, std::__ndk1::char_traits<char>, std::__ndk1::allocator<char> > >, std::__ndk1::allocator<std::__ndk1::pair<std::__ndk1::basic_string<char, std::__ndk1::char_traits<char>, std::__ndk1::allocator<char> > const, std::__ndk1::basic_string<char, std::__ndk1::char_traits<char>, std::__ndk1::allocator<char> > > > >::~map[abi:ne180000]()
PUBLIC a0718 0 IncompatibleMod::~IncompatibleMod()
PUBLIC a07a4 0 std::__ndk1::vector<IncompatibleMod, std::__ndk1::allocator<IncompatibleMod> >::~vector[abi:ne180000]()
PUBLIC a07f0 0 Global::hasIncompatibleMods()
PUBLIC a2080 0 geode::Mod::getSavedValue<matjson::Value>(std::__ndk1::basic_string_view<char, std::__ndk1::char_traits<char> >)
PUBLIC a2250 0 geode::impl::ResultData<std::__ndk1::vector<matjson::Value, std::__ndk1::allocator<matjson::Value> >&, std::__ndk1::basic_string<char, std::__ndk1::char_traits<char>, std::__ndk1::allocator<char> > >::~ResultData()
PUBLIC a22c4 0 geode::impl::ResultData<std::__ndk1::basic_string<char, std::__ndk1::char_traits<char>, std::__ndk1::allocator<char> >, std::__ndk1::basic_string<char, std::__ndk1::char_traits<char>, std::__ndk1::allocator<char> > >::~ResultData()
PUBLIC a2338 0 nlohmann::json_abi_v3_11_3::basic_json<std::__ndk1::map, std::__ndk1::vector, std::__ndk1::basic_string<char, std::__ndk1::char_traits<char>, std::__ndk1::allocator<char> >, bool, long, unsigned long, double, std::__ndk1::allocator, nlohmann::json_abi_v3_11_3::adl_serializer, std::__ndk1::vector<unsigned char, std::__ndk1::allocator<unsigned char> >, void>::operator[]<char const>(char const*)
PUBLIC a2460 0 nlohmann::json_abi_v3_11_3::basic_json<std::__ndk1::map, std::__ndk1::vector, std::__ndk1::basic_string<char, std::__ndk1::char_traits<char>, std::__ndk1::allocator<char> >, bool, long, unsigned long, double, std::__ndk1::allocator, nlohmann::json_abi_v3_11_3::adl_serializer, std::__ndk1::vector<unsigned char, std::__ndk1::allocator<unsigned char> >, void>::~basic_json()
PUBLIC m a247c 0 std::__ndk1::basic_ifstream<char, std::__ndk1::char_traits<char> >::~basic_ifstream()
PUBLIC a24cc 0 Global::getCurrentFrame(bool)
PUBLIC a2654 0 Global::updateSeed(bool)
PUBLIC a28f8 0 geode::Mod::getSavedValue<std::__ndk1::basic_string<char, std::__ndk1::char_traits<char>, std::__ndk1::allocator<char> > >(std::__ndk1::basic_string_view<char, std::__ndk1::char_traits<char> >)
PUBLIC a2ae0 0 Global::updatePitch(float)
PUBLIC a2bf8 0 Global::frameStep()
PUBLIC a2cb0 0 Global::toggleSpeedhack()
PUBLIC a2e74 0 Global::toggleFrameStepper()
PUBLIC a2f14 0 Global::frameStepperOff()
PUBLIC a30a8 0 Global::frameStepperOn()
PUBLIC a3224 0 geodeExecFunction347<(anonymous namespace)::ExecFuncUnique347>()
PUBLIC a5184 0 geode::modifier::ModifyBase<geode::modifier::ModifyDerive<hook12<(anonymous namespace)::hook12Parent>, CCTextInputNode> >::~ModifyBase()
PUBLIC a51a0 0 std::__ndk1::__exception_guard_exceptions<std::__ndk1::vector<std::__ndk1::basic_string<char, std::__ndk1::char_traits<char>, std::__ndk1::allocator<char> >, std::__ndk1::allocator<std::__ndk1::basic_string<char, std::__ndk1::char_traits<char>, std::__ndk1::allocator<char> > > >::__destroy_vector>::~__exception_guard_exceptions[abi:ne180000]()
PUBLIC a522c 0 std::__ndk1::__exception_guard_exceptions<std::__ndk1::_AllocatorDestroyRangeReverse<std::__ndk1::allocator<std::__ndk1::basic_string<char, std::__ndk1::char_traits<char>, std::__ndk1::allocator<char> > >, std::__ndk1::basic_string<char, std::__ndk1::char_traits<char>, std::__ndk1::allocator<char> >*> >::~__exception_guard_exceptions[abi:ne180000]()
PUBLIC a528c 0 std::__ndk1::__exception_guard_exceptions<std::__ndk1::vector<IncompatibleSetting, std::__ndk1::allocator<IncompatibleSetting> >::__destroy_vector>::~__exception_guard_exceptions[abi:ne180000]()
PUBLIC a5318 0 std::__ndk1::vector<IncompatibleSetting, std::__ndk1::allocator<IncompatibleSetting> >::__throw_length_error[abi:ne180000]() const
PUBLIC a532c 0 std::__ndk1::__exception_guard_exceptions<std::__ndk1::_AllocatorDestroyRangeReverse<std::__ndk1::allocator<IncompatibleSetting>, IncompatibleSetting*> >::~__exception_guard_exceptions[abi:ne180000]()
PUBLIC a538c 0 std::__ndk1::__exception_guard_exceptions<std::__ndk1::_AllocatorDestroyRangeReverse<std::__ndk1::allocator<IncompatibleMod>, IncompatibleMod*> >::~__exception_guard_exceptions[abi:ne180000]()
PUBLIC a543c 0 std::__ndk1::vector<IncompatibleMod, std::__ndk1::allocator<IncompatibleMod> >::__destroy_vector::operator()[abi:ne180000]()
PUBLIC a552c 0 _ZN5geode15UnwrapExceptionC2IRNSt6__ndk112basic_stringIcNS2_11char_traitsIcEENS2_9allocatorIcEEEEQsr4implE18IsStringStreamableIT_EEENS_4impl6ErrTagEOSA_
PUBLIC a5694 0 std::__ndk1::__variant_detail::__visitation::__base::__dispatcher<(unsigned long)0>::__dispatch[abi:ne180000]<std::__ndk1::__variant_detail::__dtor<std::__ndk1::__variant_detail::__traits<std::__ndk1::reference_wrapper<std::__ndk1::vector<matjson::Value, std::__ndk1::allocator<matjson> > >, std::__ndk1::basic_string<char, std::__ndk1::char_traits<char>, matjson::Value<char> > >, (std::__ndk1::__variant_detail::_Trait)1>::__destroy[abi:ne180000]()::{lambda(auto:1&)#1}, std::__ndk1::__variant_detail::__base<(std::__ndk1::__variant_detail::__traits<std::__ndk1::reference_wrapper<std::__ndk1::vector<matjson::Value, std::__ndk1::allocator<matjson> > >, std::__ndk1::basic_string<char, std::__ndk1::char_traits<char>, matjson::Value<char> > >)1, std::__ndk1::vector<matjson::Value, std::__ndk1::allocator<matjson> >, matjson::Value<char> >&>(std::__ndk1::__variant_detail::__dtor<std::__ndk1::__variant_detail::__traits<std::__ndk1::reference_wrapper<std::__ndk1::vector<matjson::Value, std::__ndk1::allocator<matjson> > >, std::__ndk1::basic_string<char, std::__ndk1::char_traits<char>, matjson::Value<char> > >, (std::__ndk1::__variant_detail::_Trait)1>, std::__ndk1::__variant_detail::__base<(std::__ndk1::__variant_detail::__traits<std::__ndk1::reference_wrapper<std::__ndk1::vector<matjson::Value, std::__ndk1::allocator<matjson> > >, std::__ndk1::basic_string<char, std::__ndk1::char_traits<char>, matjson::Value<char> > >)1, std::__ndk1::vector<matjson::Value, std::__ndk1::allocator<matjson> >, matjson::Value<char> >&)
PUBLIC a5698 0 std::__ndk1::__variant_detail::__visitation::__base::__dispatcher<(unsigned long)1>::__dispatch[abi:ne180000]<std::__ndk1::__variant_detail::__dtor<std::__ndk1::__variant_detail::__traits<std::__ndk1::reference_wrapper<std::__ndk1::vector<matjson::Value, std::__ndk1::allocator<matjson> > >, std::__ndk1::basic_string<char, std::__ndk1::char_traits<char>, matjson::Value<char> > >, (std::__ndk1::__variant_detail::_Trait)1>::__destroy[abi:ne180000]()::{lambda(auto:1&)#1}, std::__ndk1::__variant_detail::__base<(std::__ndk1::__variant_detail::__traits<std::__ndk1::reference_wrapper<std::__ndk1::vector<matjson::Value, std::__ndk1::allocator<matjson> > >, std::__ndk1::basic_string<char, std::__ndk1::char_traits<char>, matjson::Value<char> > >)1, std::__ndk1::vector<matjson::Value, std::__ndk1::allocator<matjson> >, matjson::Value<char> >&>(std::__ndk1::__variant_detail::__dtor<std::__ndk1::__variant_detail::__traits<std::__ndk1::reference_wrapper<std::__ndk1::vector<matjson::Value, std::__ndk1::allocator<matjson> > >, std::__ndk1::basic_string<char, std::__ndk1::char_traits<char>, matjson::Value<char> > >, (std::__ndk1::__variant_detail::_Trait)1>, std::__ndk1::__variant_detail::__base<(std::__ndk1::__variant_detail::__traits<std::__ndk1::reference_wrapper<std::__ndk1::vector<matjson::Value, std::__ndk1::allocator<matjson> > >, std::__ndk1::basic_string<char, std::__ndk1::char_traits<char>, matjson::Value<char> > >)1, std::__ndk1::vector<matjson::Value, std::__ndk1::allocator<matjson> >, matjson::Value<char> >&)
PUBLIC a56ac 0 std::__ndk1::__variant_detail::__visitation::__base::__dispatcher<(unsigned long)0>::__dispatch[abi:ne180000]<std::__ndk1::__variant_detail::__dtor<std::__ndk1::__variant_detail::__traits<std::__ndk1::basic_string<char, std::__ndk1::char_traits<char>, std::__ndk1::allocator<char> >, std::__ndk1::allocator<char> >, (std::__ndk1::__variant_detail::_Trait)1>::__destroy[abi:ne180000]()::{lambda(auto:1&)#1}, std::__ndk1::__variant_detail::__base<(std::__ndk1::__variant_detail::__traits<std::__ndk1::basic_string<char, std::__ndk1::char_traits<char>, std::__ndk1::allocator<char> >, std::__ndk1::allocator<char> >)1, std::__ndk1::allocator<char>, std::__ndk1::allocator<char> >&>(std::__ndk1::__variant_detail::__dtor<std::__ndk1::__variant_detail::__traits<std::__ndk1::basic_string<char, std::__ndk1::char_traits<char>, std::__ndk1::allocator<char> >, std::__ndk1::allocator<char> >, (std::__ndk1::__variant_detail::_Trait)1>, std::__ndk1::__variant_detail::__base<(std::__ndk1::__variant_detail::__traits<std::__ndk1::basic_string<char, std::__ndk1::char_traits<char>, std::__ndk1::allocator<char> >, std::__ndk1::allocator<char> >)1, std::__ndk1::allocator<char>, std::__ndk1::allocator<char> >&)
PUBLIC a56c0 0 std::__ndk1::__variant_detail::__visitation::__base::__dispatcher<(unsigned long)1>::__dispatch[abi:ne180000]<std::__ndk1::__variant_detail::__dtor<std::__ndk1::__variant_detail::__traits<std::__ndk1::basic_string<char, std::__ndk1::char_traits<char>, std::__ndk1::allocator<char> >, std::__ndk1::allocator<char> >, (std::__ndk1::__variant_detail::_Trait)1>::__destroy[abi:ne180000]()::{lambda(auto:1&)#1}, std::__ndk1::__variant_detail::__base<(std::__ndk1::__variant_detail::__traits<std::__ndk1::basic_string<char, std::__ndk1::char_traits<char>, std::__ndk1::allocator<char> >, std::__ndk1::allocator<char> >)1, std::__ndk1::allocator<char>, std::__ndk1::allocator<char> >&>(std::__ndk1::__variant_detail::__dtor<std::__ndk1::__variant_detail::__traits<std::__ndk1::basic_string<char, std::__ndk1::char_traits<char>, std::__ndk1::allocator<char> >, std::__ndk1::allocator<char> >, (std::__ndk1::__variant_detail::_Trait)1>, std::__ndk1::__variant_detail::__base<(std::__ndk1::__variant_detail::__traits<std::__ndk1::basic_string<char, std::__ndk1::char_traits<char>, std::__ndk1::allocator<char> >, std::__ndk1::allocator<char> >)1, std::__ndk1::allocator<char>, std::__ndk1::allocator<char> >&)
PUBLIC a56d4 0 std::__ndk1::__variant_detail::__visitation::__base::__dispatcher<(unsigned long)0>::__dispatch[abi:ne180000]<std::__ndk1::__variant_detail::__dtor<std::__ndk1::__variant_detail::__traits<long, std::__ndk1::basic_string<char, std::__ndk1::char_traits<char>, std::__ndk1::allocator<char> > >, (std::__ndk1::__variant_detail::_Trait)1>::__destroy[abi:ne180000]()::{lambda(auto:1&)#1}, std::__ndk1::__variant_detail::__base<(std::__ndk1::__variant_detail::__traits<long, std::__ndk1::basic_string<char, std::__ndk1::char_traits<char>, std::__ndk1::allocator<char> > >)1, long, std::__ndk1::allocator<char> >&>(std::__ndk1::__variant_detail::__dtor<std::__ndk1::__variant_detail::__traits<long, std::__ndk1::basic_string<char, std::__ndk1::char_traits<char>, std::__ndk1::allocator<char> > >, (std::__ndk1::__variant_detail::_Trait)1>, std::__ndk1::__variant_detail::__base<(std::__ndk1::__variant_detail::__traits<long, std::__ndk1::basic_string<char, std::__ndk1::char_traits<char>, std::__ndk1::allocator<char> > >)1, long, std::__ndk1::allocator<char> >&)
PUBLIC a56d8 0 std::__ndk1::__variant_detail::__visitation::__base::__dispatcher<(unsigned long)1>::__dispatch[abi:ne180000]<std::__ndk1::__variant_detail::__dtor<std::__ndk1::__variant_detail::__traits<long, std::__ndk1::basic_string<char, std::__ndk1::char_traits<char>, std::__ndk1::allocator<char> > >, (std::__ndk1::__variant_detail::_Trait)1>::__destroy[abi:ne180000]()::{lambda(auto:1&)#1}, std::__ndk1::__variant_detail::__base<(std::__ndk1::__variant_detail::__traits<long, std::__ndk1::basic_string<char, std::__ndk1::char_traits<char>, std::__ndk1::allocator<char> > >)1, long, std::__ndk1::allocator<char> >&>(std::__ndk1::__variant_detail::__dtor<std::__ndk1::__variant_detail::__traits<long, std::__ndk1::basic_string<char, std::__ndk1::char_traits<char>, std::__ndk1::allocator<char> > >, (std::__ndk1::__variant_detail::_Trait)1>, std::__ndk1::__variant_detail::__base<(std::__ndk1::__variant_detail::__traits<long, std::__ndk1::basic_string<char, std::__ndk1::char_traits<char>, std::__ndk1::allocator<char> > >)1, long, std::__ndk1::allocator<char> >&)
PUBLIC a56ec 0 std::__ndk1::vector<std::__ndk1::basic_string<char, std::__ndk1::char_traits<char>, std::__ndk1::allocator<char> >, std::__ndk1::allocator<std::__ndk1::basic_string<char, std::__ndk1::char_traits<char>, std::__ndk1::allocator<char> > > >::__push_back_slow_path<std::__ndk1::basic_string<char, std::__ndk1::char_traits<char>, std::__ndk1::allocator<char> > >(std::__ndk1::basic_string<char, std::__ndk1::char_traits<char>, std::__ndk1::allocator<char> >&&)
PUBLIC a5854 0 std::__ndk1::vector<IncompatibleSetting, std::__ndk1::allocator<IncompatibleSetting> >::__init_with_size[abi:ne180000]<IncompatibleSetting*, std::__ndk1::vector<IncompatibleSetting, std::__ndk1::allocator<IncompatibleSetting> >::__init_with_size[abi:ne180000]>(IncompatibleSetting*, std::__ndk1::vector<IncompatibleSetting, std::__ndk1::allocator<IncompatibleSetting> >::__init_with_size[abi:ne180000], unsigned long)
PUBLIC a59b4 0 nlohmann::json_abi_v3_11_3::basic_json<std::__ndk1::map, std::__ndk1::vector, std::__ndk1::basic_string<char, std::__ndk1::char_traits<char>, std::__ndk1::allocator<char> >, bool, long, unsigned long, double, std::__ndk1::allocator, nlohmann::json_abi_v3_11_3::adl_serializer, std::__ndk1::vector<unsigned char, std::__ndk1::allocator<unsigned char> >, void>::data::~data()
PUBLIC a59d0 0 nlohmann::json_abi_v3_11_3::basic_json<std::__ndk1::map, std::__ndk1::vector, std::__ndk1::basic_string<char, std::__ndk1::char_traits<char>, std::__ndk1::allocator<char> >, bool, long, unsigned long, double, std::__ndk1::allocator, nlohmann::json_abi_v3_11_3::adl_serializer, std::__ndk1::vector<unsigned char, std::__ndk1::allocator<unsigned char> >, void>::json_value::destroy(nlohmann::json_abi_v3_11_3::detail::value_t)
PUBLIC a5e20 0 std::__ndk1::vector<nlohmann::json_abi_v3_11_3::basic_json<std::__ndk1::map, std::__ndk1::vector, std::__ndk1::basic_string<char, std::__ndk1::char_traits<char>, std::__ndk1::allocator<char> >, bool, long, unsigned long, double, std::__ndk1::allocator, nlohmann::json_abi_v3_11_3::adl_serializer, std::__ndk1::vector<unsigned char, std::__ndk1::allocator<unsigned char> >, void>, std::__ndk1::allocator<nlohmann::json_abi_v3_11_3::basic_json<std::__ndk1::map, std::__ndk1::vector, std::__ndk1::basic_string<char, std::__ndk1::char_traits<char>, std::__ndk1::allocator<char> >, bool, long, unsigned long, double, std::__ndk1::allocator, nlohmann::json_abi_v3_11_3::adl_serializer, std::__ndk1::vector<unsigned char, std::__ndk1::allocator<unsigned char> >, void> > >::reserve(unsigned long)
PUBLIC a5efc 0 std::__ndk1::vector<nlohmann::json_abi_v3_11_3::basic_json<std::__ndk1::map, std::__ndk1::vector, std::__ndk1::basic_string<char, std::__ndk1::char_traits<char>, std::__ndk1::allocator<char> >, bool, long, unsigned long, double, std::__ndk1::allocator, nlohmann::json_abi_v3_11_3::adl_serializer, std::__ndk1::vector<unsigned char, std::__ndk1::allocator<unsigned char> >, void>, std::__ndk1::allocator<nlohmann::json_abi_v3_11_3::basic_json<std::__ndk1::map, std::__ndk1::vector, std::__ndk1::basic_string<char, std::__ndk1::char_traits<char>, std::__ndk1::allocator<char> >, bool, long, unsigned long, double, std::__ndk1::allocator, nlohmann::json_abi_v3_11_3::adl_serializer, std::__ndk1::vector<unsigned char, std::__ndk1::allocator<unsigned char> >, void> > >::~vector[abi:ne180000]()
PUBLIC a5f60 0 std::__ndk1::vector<nlohmann::json_abi_v3_11_3::basic_json<std::__ndk1::map, std::__ndk1::vector, std::__ndk1::basic_string<char, std::__ndk1::char_traits<char>, std::__ndk1::allocator<char> >, bool, long, unsigned long, double, std::__ndk1::allocator, nlohmann::json_abi_v3_11_3::adl_serializer, std::__ndk1::vector<unsigned char, std::__ndk1::allocator<unsigned char> >, void>, std::__ndk1::allocator<nlohmann::json_abi_v3_11_3::basic_json<std::__ndk1::map, std::__ndk1::vector, std::__ndk1::basic_string<char, std::__ndk1::char_traits<char>, std::__ndk1::allocator<char> >, bool, long, unsigned long, double, std::__ndk1::allocator, nlohmann::json_abi_v3_11_3::adl_serializer, std::__ndk1::vector<unsigned char, std::__ndk1::allocator<unsigned char> >, void> > >::__throw_length_error[abi:ne180000]() const
PUBLIC a5f74 0 std::__ndk1::__split_buffer<nlohmann::json_abi_v3_11_3::basic_json<std::__ndk1::map, std::__ndk1::vector, std::__ndk1::basic_string<char, std::__ndk1::char_traits<char>, std::__ndk1::allocator<char> >, bool, long, unsigned long, double, std::__ndk1::allocator, nlohmann::json_abi_v3_11_3::adl_serializer, std::__ndk1::vector<unsigned char, std::__ndk1::allocator<unsigned char> >, void>, std::__ndk1::allocator<nlohmann::json_abi_v3_11_3::basic_json<std::__ndk1::map, std::__ndk1::vector, std::__ndk1::basic_string<char, std::__ndk1::char_traits<char>, std::__ndk1::allocator<char> >, bool, long, unsigned long, double, std::__ndk1::allocator, nlohmann::json_abi_v3_11_3::adl_serializer, std::__ndk1::vector<unsigned char, std::__ndk1::allocator<unsigned char> >, void> >&>::~__split_buffer()
PUBLIC a5fcc 0 std::__ndk1::vector<nlohmann::json_abi_v3_11_3::basic_json<std::__ndk1::map, std::__ndk1::vector, std::__ndk1::basic_string<char, std::__ndk1::char_traits<char>, std::__ndk1::allocator<char> >, bool, long, unsigned long, double, std::__ndk1::allocator, nlohmann::json_abi_v3_11_3::adl_serializer, std::__ndk1::vector<unsigned char, std::__ndk1::allocator<unsigned char> >, void>, std::__ndk1::allocator<nlohmann::json_abi_v3_11_3::basic_json<std::__ndk1::map, std::__ndk1::vector, std::__ndk1::basic_string<char, std::__ndk1::char_traits<char>, std::__ndk1::allocator<char> >, bool, long, unsigned long, double, std::__ndk1::allocator, nlohmann::json_abi_v3_11_3::adl_serializer, std::__ndk1::vector<unsigned char, std::__ndk1::allocator<unsigned char> >, void> > >::__push_back_slow_path<nlohmann::json_abi_v3_11_3::basic_json<std::__ndk1::map, std::__ndk1::vector, std::__ndk1::basic_string<char, std::__ndk1::char_traits<char>, std::__ndk1::allocator<char> >, bool, long, unsigned long, double, std::__ndk1::allocator, nlohmann::json_abi_v3_11_3::adl_serializer, std::__ndk1::vector<unsigned char, std::__ndk1::allocator<unsigned char> >, void> >(nlohmann::json_abi_v3_11_3::basic_json<std::__ndk1::map, std::__ndk1::vector, std::__ndk1::basic_string<char, std::__ndk1::char_traits<char>, std::__ndk1::allocator<char> >, bool, long, unsigned long, double, std::__ndk1::allocator, nlohmann::json_abi_v3_11_3::adl_serializer, std::__ndk1::vector<unsigned char, std::__ndk1::allocator<unsigned char> >, void>&&)
PUBLIC a60ec 0 std::__ndk1::__tree<std::__ndk1::__value_type<std::__ndk1::basic_string<char, std::__ndk1::char_traits<char>, std::__ndk1::allocator<char> >, nlohmann::json_abi_v3_11_3::basic_json<std::__ndk1::map, std::__ndk1::vector, std::__ndk1::basic_string<char, std::__ndk1::char_traits<char>, std::__ndk1::allocator<char> >, bool, long, unsigned long, double, std::__ndk1::allocator, nlohmann::json_abi_v3_11_3::adl_serializer, std::__ndk1::vector<unsigned char, std::__ndk1::allocator<unsigned char> >, void> >, std::__ndk1::__map_value_compare<std::__ndk1::basic_string<char, std::__ndk1::char_traits<char>, std::__ndk1::allocator<char> >, std::__ndk1::__value_type<std::__ndk1::basic_string<char, std::__ndk1::char_traits<char>, std::__ndk1::allocator<char> >, nlohmann::json_abi_v3_11_3::basic_json<std::__ndk1::map, std::__ndk1::vector, std::__ndk1::basic_string<char, std::__ndk1::char_traits<char>, std::__ndk1::allocator<char> >, bool, long, unsigned long, double, std::__ndk1::allocator, nlohmann::json_abi_v3_11_3::adl_serializer, std::__ndk1::vector<unsigned char, std::__ndk1::allocator<unsigned char> >, void> >, std::__ndk1::less<void>, true>, std::__ndk1::allocator<std::__ndk1::__value_type<std::__ndk1::basic_string<char, std::__ndk1::char_traits<char>, std::__ndk1::allocator<char> >, nlohmann::json_abi_v3_11_3::basic_json<std::__ndk1::map, std::__ndk1::vector, std::__ndk1::basic_string<char, std::__ndk1::char_traits<char>, std::__ndk1::allocator<char> >, bool, long, unsigned long, double, std::__ndk1::allocator, nlohmann::json_abi_v3_11_3::adl_serializer, std::__ndk1::vector<unsigned char, std::__ndk1::allocator<unsigned char> >, void> > > >::destroy(std::__ndk1::__tree_node<std::__ndk1::__value_type<std::__ndk1::basic_string<char, std::__ndk1::char_traits<char>, std::__ndk1::allocator<char> >, nlohmann::json_abi_v3_11_3::basic_json<std::__ndk1::map, std::__ndk1::vector, std::__ndk1::basic_string<char, std::__ndk1::char_traits<char>, std::__ndk1::allocator<char> >, bool, long, unsigned long, double, std::__ndk1::allocator, nlohmann::json_abi_v3_11_3::adl_serializer, std::__ndk1::vector<unsigned char, std::__ndk1::allocator<unsigned char> >, void> >, void*>*)
PUBLIC a6154 0 std::__ndk1::__tree<std::__ndk1::__value_type<std::__ndk1::basic_string<char, std::__ndk1::char_traits<char>, std::__ndk1::allocator<char> >, int>, std::__ndk1::__map_value_compare<std::__ndk1::basic_string<char, std::__ndk1::char_traits<char>, std::__ndk1::allocator<char> >, std::__ndk1::__value_type<std::__ndk1::basic_string<char, std::__ndk1::char_traits<char>, std::__ndk1::allocator<char> >, int>, std::__ndk1::less<std::__ndk1::basic_string<char, std::__ndk1::char_traits<char>, std::__ndk1::allocator<char> > >, true>, std::__ndk1::allocator<std::__ndk1::__value_type<std::__ndk1::basic_string<char, std::__ndk1::char_traits<char>, std::__ndk1::allocator<char> >, int> > >::__emplace_hint_unique_key_args<std::__ndk1::basic_string<char, std::__ndk1::char_traits<char>, std::__ndk1::allocator<char> >, std::__ndk1::pair<std::__ndk1::basic_string<char, std::__ndk1::char_traits<char>, std::__ndk1::allocator<char> > const, int> const&>(std::__ndk1::__tree_const_iterator<std::__ndk1::__value_type<std::__ndk1::basic_string<char, std::__ndk1::char_traits<char>, std::__ndk1::allocator<char> >, int>, std::__ndk1::__tree_node<std::__ndk1::__value_type<std::__ndk1::basic_string<char, std::__ndk1::char_traits<char>, std::__ndk1::allocator<char> >, int>, void*>*, long>, std::__ndk1::basic_string<char, std::__ndk1::char_traits<char>, std::__ndk1::allocator<char> > const&, std::__ndk1::pair<std::__ndk1::basic_string<char, std::__ndk1::char_traits<char>, std::__ndk1::allocator<char> > const, int> const&)
PUBLIC a6290 0 std::__ndk1::__tree<std::__ndk1::__value_type<std::__ndk1::basic_string<char, std::__ndk1::char_traits<char>, std::__ndk1::allocator<char> >, int>, std::__ndk1::__map_value_compare<std::__ndk1::basic_string<char, std::__ndk1::char_traits<char>, std::__ndk1::allocator<char> >, std::__ndk1::__value_type<std::__ndk1::basic_string<char, std::__ndk1::char_traits<char>, std::__ndk1::allocator<char> >, int>, std::__ndk1::less<std::__ndk1::basic_string<char, std::__ndk1::char_traits<char>, std::__ndk1::allocator<char> > >, true>, std::__ndk1::allocator<std::__ndk1::__value_type<std::__ndk1::basic_string<char, std::__ndk1::char_traits<char>, std::__ndk1::allocator<char> >, int> > >::__find_equal<std::__ndk1::basic_string<char, std::__ndk1::char_traits<char>, std::__ndk1::allocator<char> > >(std::__ndk1::__tree_const_iterator<std::__ndk1::__value_type<std::__ndk1::basic_string<char, std::__ndk1::char_traits<char>, std::__ndk1::allocator<char> >, int>, std::__ndk1::__tree_node<std::__ndk1::__value_type<std::__ndk1::basic_string<char, std::__ndk1::char_traits<char>, std::__ndk1::allocator<char> >, int>, void*>*, long>, std::__ndk1::__tree_end_node<std::__ndk1::__tree_node_base<void*>*>*&, std::__ndk1::__tree_node_base<void*>*&, std::__ndk1::basic_string<char, std::__ndk1::char_traits<char>, std::__ndk1::allocator<char> > const&)
PUBLIC a6680 0 std::__ndk1::unique_ptr<std::__ndk1::__tree_node<std::__ndk1::__value_type<std::__ndk1::basic_string<char, std::__ndk1::char_traits<char>, std::__ndk1::allocator<char> >, int>, void*>, std::__ndk1::__tree_node_destructor<std::__ndk1::allocator<std::__ndk1::__tree_node<std::__ndk1::__value_type<std::__ndk1::basic_string<char, std::__ndk1::char_traits<char>, std::__ndk1::allocator<char> >, int>, void*> > > >::~unique_ptr[abi:ne180000]()
PUBLIC a66d0 0 std::__ndk1::__tree<std::__ndk1::__value_type<std::__ndk1::basic_string<char, std::__ndk1::char_traits<char>, std::__ndk1::allocator<char> >, int>, std::__ndk1::__map_value_compare<std::__ndk1::basic_string<char, std::__ndk1::char_traits<char>, std::__ndk1::allocator<char> >, std::__ndk1::__value_type<std::__ndk1::basic_string<char, std::__ndk1::char_traits<char>, std::__ndk1::allocator<char> >, int>, std::__ndk1::less<std::__ndk1::basic_string<char, std::__ndk1::char_traits<char>, std::__ndk1::allocator<char> > >, true>, std::__ndk1::allocator<std::__ndk1::__value_type<std::__ndk1::basic_string<char, std::__ndk1::char_traits<char>, std::__ndk1::allocator<char> >, int> > >::destroy(std::__ndk1::__tree_node<std::__ndk1::__value_type<std::__ndk1::basic_string<char, std::__ndk1::char_traits<char>, std::__ndk1::allocator<char> >, int>, void*>*)
PUBLIC a6720 0 std::__ndk1::__tree<std::__ndk1::__value_type<std::__ndk1::basic_string<char, std::__ndk1::char_traits<char>, std::__ndk1::allocator<char> >, std::__ndk1::basic_string<char, std::__ndk1::char_traits<char>, std::__ndk1::allocator<char> > >, std::__ndk1::__map_value_compare<std::__ndk1::basic_string<char, std::__ndk1::char_traits<char>, std::__ndk1::allocator<char> >, std::__ndk1::__value_type<std::__ndk1::basic_string<char, std::__ndk1::char_traits<char>, std::__ndk1::allocator<char> >, std::__ndk1::basic_string<char, std::__ndk1::char_traits<char>, std::__ndk1::allocator<char> > >, std::__ndk1::less<std::__ndk1::basic_string<char, std::__ndk1::char_traits<char>, std::__ndk1::allocator<char> > >, true>, std::__ndk1::allocator<std::__ndk1::__value_type<std::__ndk1::basic_string<char, std::__ndk1::char_traits<char>, std::__ndk1::allocator<char> >, std::__ndk1::basic_string<char, std::__ndk1::char_traits<char>, std::__ndk1::allocator<char> > > > >::__find_equal<std::__ndk1::basic_string<char, std::__ndk1::char_traits<char>, std::__ndk1::allocator<char> > >(std::__ndk1::__tree_const_iterator<std::__ndk1::__value_type<std::__ndk1::basic_string<char, std::__ndk1::char_traits<char>, std::__ndk1::allocator<char> >, std::__ndk1::basic_string<char, std::__ndk1::char_traits<char>, std::__ndk1::allocator<char> > >, std::__ndk1::__tree_node<std::__ndk1::__value_type<std::__ndk1::basic_string<char, std::__ndk1::char_traits<char>, std::__ndk1::allocator<char> >, std::__ndk1::basic_string<char, std::__ndk1::char_traits<char>, std::__ndk1::allocator<char> > >, void*>*, long>, std::__ndk1::__tree_end_node<std::__ndk1::__tree_node_base<void*>*>*&, std::__ndk1::__tree_node_base<void*>*&, std::__ndk1::basic_string<char, std::__ndk1::char_traits<char>, std::__ndk1::allocator<char> > const&)
PUBLIC a6b10 0 std::__ndk1::__tree<std::__ndk1::__value_type<std::__ndk1::basic_string<char, std::__ndk1::char_traits<char>, std::__ndk1::allocator<char> >, std::__ndk1::basic_string<char, std::__ndk1::char_traits<char>, std::__ndk1::allocator<char> > >, std::__ndk1::__map_value_compare<std::__ndk1::basic_string<char, std::__ndk1::char_traits<char>, std::__ndk1::allocator<char> >, std::__ndk1::__value_type<std::__ndk1::basic_string<char, std::__ndk1::char_traits<char>, std::__ndk1::allocator<char> >, std::__ndk1::basic_string<char, std::__ndk1::char_traits<char>, std::__ndk1::allocator<char> > >, std::__ndk1::less<std::__ndk1::basic_string<char, std::__ndk1::char_traits<char>, std::__ndk1::allocator<char> > >, true>, std::__ndk1::allocator<std::__ndk1::__value_type<std::__ndk1::basic_string<char, std::__ndk1::char_traits<char>, std::__ndk1::allocator<char> >, std::__ndk1::basic_string<char, std::__ndk1::char_traits<char>, std::__ndk1::allocator<char> > > > >::__construct_node<std::__ndk1::pair<std::__ndk1::basic_string<char, std::__ndk1::char_traits<char>, std::__ndk1::allocator<char> > const, std::__ndk1::basic_string<char, std::__ndk1::char_traits<char>, std::__ndk1::allocator<char> > > const&>(std::__ndk1::pair<std::__ndk1::basic_string<char, std::__ndk1::char_traits<char>, std::__ndk1::allocator<char> > const, std::__ndk1::basic_string<char, std::__ndk1::char_traits<char>, std::__ndk1::allocator<char> > > const&)
PUBLIC a6bf8 0 std::__ndk1::unique_ptr<std::__ndk1::__tree_node<std::__ndk1::__value_type<std::__ndk1::basic_string<char, std::__ndk1::char_traits<char>, std::__ndk1::allocator<char> >, std::__ndk1::basic_string<char, std::__ndk1::char_traits<char>, std::__ndk1::allocator<char> > >, void*>, std::__ndk1::__tree_node_destructor<std::__ndk1::allocator<std::__ndk1::__tree_node<std::__ndk1::__value_type<std::__ndk1::basic_string<char, std::__ndk1::char_traits<char>, std::__ndk1::allocator<char> >, std::__ndk1::basic_string<char, std::__ndk1::char_traits<char>, std::__ndk1::allocator<char> > >, void*> > > >::~unique_ptr[abi:ne180000]()
PUBLIC a6c54 0 std::__ndk1::__tree<std::__ndk1::__value_type<std::__ndk1::basic_string<char, std::__ndk1::char_traits<char>, std::__ndk1::allocator<char> >, std::__ndk1::basic_string<char, std::__ndk1::char_traits<char>, std::__ndk1::allocator<char> > >, std::__ndk1::__map_value_compare<std::__ndk1::basic_string<char, std::__ndk1::char_traits<char>, std::__ndk1::allocator<char> >, std::__ndk1::__value_type<std::__ndk1::basic_string<char, std::__ndk1::char_traits<char>, std::__ndk1::allocator<char> >, std::__ndk1::basic_string<char, std::__ndk1::char_traits<char>, std::__ndk1::allocator<char> > >, std::__ndk1::less<std::__ndk1::basic_string<char, std::__ndk1::char_traits<char>, std::__ndk1::allocator<char> > >, true>, std::__ndk1::allocator<std::__ndk1::__value_type<std::__ndk1::basic_string<char, std::__ndk1::char_traits<char>, std::__ndk1::allocator<char> >, std::__ndk1::basic_string<char, std::__ndk1::char_traits<char>, std::__ndk1::allocator<char> > > > >::destroy(std::__ndk1::__tree_node<std::__ndk1::__value_type<std::__ndk1::basic_string<char, std::__ndk1::char_traits<char>, std::__ndk1::allocator<char> >, std::__ndk1::basic_string<char, std::__ndk1::char_traits<char>, std::__ndk1::allocator<char> > >, void*>*)
PUBLIC a6ccc 0 geode::modifier::ModifyDerive<hook12<(anonymous namespace)::hook12Parent>, CCTextInputNode>::apply()
PUBLIC a708c 0 geode::modifier::ModifyBase<geode::modifier::ModifyDerive<hook12<(anonymous namespace)::hook12Parent>, CCTextInputNode> >::apply()
PUBLIC a7090 0 geode::modifier::AsStaticFunction_ccTouchBegan<hook12<(anonymous namespace)::hook12Parent>, bool (hook12<(anonymous namespace)::hook12Parent>::*)(cocos2d::CCTouch*, cocos2d::CCEvent*)>::Impl<bool (hook12<(anonymous namespace)::hook12Parent>::*)(cocos2d::CCTouch*, cocos2d::CCEvent*)>::function(hook12<(anonymous namespace)::hook12Parent>*, cocos2d::CCTouch*, cocos2d::CCEvent*)
PUBLIC a715c 0 geode::addresser::Addresser::addressOfVirtual<bool, CCTextInputNode, cocos2d::CCTouch*, cocos2d::CCEvent*>(bool (CCTextInputNode::*)(cocos2d::CCTouch*, cocos2d::CCEvent*))
PUBLIC a7224 0 CCTextInputNode::CCTextInputNode(geode::ZeroConstructorType)
PUBLIC a7328 0 geode::impl::ResultData<matjson::Value, std::__ndk1::basic_string<char, std::__ndk1::char_traits<char>, std::__ndk1::allocator<char> > >::~ResultData()
PUBLIC a739c 0 std::__ndk1::__variant_detail::__visitation::__base::__dispatcher<(unsigned long)0>::__dispatch[abi:ne180000]<std::__ndk1::__variant_detail::__dtor<std::__ndk1::__variant_detail::__traits<matjson::Value, std::__ndk1::basic_string<char, std::__ndk1::char_traits<char>, std::__ndk1::allocator<char> > >, (std::__ndk1::__variant_detail::_Trait)1>::__destroy[abi:ne180000]()::{lambda(auto:1&)#1}, std::__ndk1::__variant_detail::__base<(std::__ndk1::__variant_detail::__traits<matjson::Value, std::__ndk1::basic_string<char, std::__ndk1::char_traits<char>, std::__ndk1::allocator<char> > >)1, matjson, std::__ndk1::allocator<char> >&>(std::__ndk1::__variant_detail::__dtor<std::__ndk1::__variant_detail::__traits<matjson::Value, std::__ndk1::basic_string<char, std::__ndk1::char_traits<char>, std::__ndk1::allocator<char> > >, (std::__ndk1::__variant_detail::_Trait)1>, std::__ndk1::__variant_detail::__base<(std::__ndk1::__variant_detail::__traits<matjson::Value, std::__ndk1::basic_string<char, std::__ndk1::char_traits<char>, std::__ndk1::allocator<char> > >)1, matjson, std::__ndk1::allocator<char> >&)
PUBLIC a73a4 0 std::__ndk1::__variant_detail::__visitation::__base::__dispatcher<(unsigned long)1>::__dispatch[abi:ne180000]<std::__ndk1::__variant_detail::__dtor<std::__ndk1::__variant_detail::__traits<matjson::Value, std::__ndk1::basic_string<char, std::__ndk1::char_traits<char>, std::__ndk1::allocator<char> > >, (std::__ndk1::__variant_detail::_Trait)1>::__destroy[abi:ne180000]()::{lambda(auto:1&)#1}, std::__ndk1::__variant_detail::__base<(std::__ndk1::__variant_detail::__traits<matjson::Value, std::__ndk1::basic_string<char, std::__ndk1::char_traits<char>, std::__ndk1::allocator<char> > >)1, matjson, std::__ndk1::allocator<char> >&>(std::__ndk1::__variant_detail::__dtor<std::__ndk1::__variant_detail::__traits<matjson::Value, std::__ndk1::basic_string<char, std::__ndk1::char_traits<char>, std::__ndk1::allocator<char> > >, (std::__ndk1::__variant_detail::_Trait)1>, std::__ndk1::__variant_detail::__base<(std::__ndk1::__variant_detail::__traits<matjson::Value, std::__ndk1::basic_string<char, std::__ndk1::char_traits<char>, std::__ndk1::allocator<char> > >)1, matjson, std::__ndk1::allocator<char> >&)
PUBLIC a73b8 0 std::__ndk1::basic_ifstream<char, std::__ndk1::char_traits<char> >::basic_ifstream(char const*, unsigned int)
PUBLIC a74cc 0 nlohmann::json_abi_v3_11_3::basic_json<std::__ndk1::map, std::__ndk1::vector, std::__ndk1::basic_string<char, std::__ndk1::char_traits<char>, std::__ndk1::allocator<char> >, bool, long, unsigned long, double, std::__ndk1::allocator, nlohmann::json_abi_v3_11_3::adl_serializer, std::__ndk1::vector<unsigned char, std::__ndk1::allocator<unsigned char> >, void>::json_value::json_value(nlohmann::json_abi_v3_11_3::detail::value_t)
PUBLIC a75e0 0 nlohmann::json_abi_v3_11_3::detail::concat<std::__ndk1::basic_string<char, std::__ndk1::char_traits<char>, std::__ndk1::allocator<char> >, std::__ndk1::basic_string<char, std::__ndk1::char_traits<char>, std::__ndk1::allocator<char> >, std::__ndk1::basic_string<char, std::__ndk1::char_traits<char>, std::__ndk1::allocator<char> >, std::__ndk1::basic_string<char, std::__ndk1::char_traits<char>, std::__ndk1::allocator<char> > const&>(std::__ndk1::basic_string<char, std::__ndk1::char_traits<char>, std::__ndk1::allocator<char> >&&, std::__ndk1::basic_string<char, std::__ndk1::char_traits<char>, std::__ndk1::allocator<char> >, std::__ndk1::basic_string<char, std::__ndk1::char_traits<char>, std::__ndk1::allocator<char> > const&)
PUBLIC a76e0 0 nlohmann::json_abi_v3_11_3::detail::concat<std::__ndk1::basic_string<char, std::__ndk1::char_traits<char>, std::__ndk1::allocator<char> >, char const (&) [17], std::__ndk1::basic_string<char, std::__ndk1::char_traits<char>, std::__ndk1::allocator<char> > const&, char, std::__ndk1::basic_string<char, std::__ndk1::char_traits<char>, std::__ndk1::allocator<char> >, char const (&) [3]>(char const (&) [17], std::__ndk1::basic_string<char, std::__ndk1::char_traits<char>, std::__ndk1::allocator<char> > const&, char, std::__ndk1::basic_string<char, std::__ndk1::char_traits<char>, std::__ndk1::allocator<char> >, char const (&) [3])
PUBLIC a7834 0 nlohmann::json_abi_v3_11_3::detail::exception::what() const
PUBLIC a783c 0 nlohmann::json_abi_v3_11_3::detail::exception::~exception()
PUBLIC a7874 0 nlohmann::json_abi_v3_11_3::detail::parser<nlohmann::json_abi_v3_11_3::basic_json<std::__ndk1::map, std::__ndk1::vector, std::__ndk1::basic_string<char, std::__ndk1::char_traits<char>, std::__ndk1::allocator<char> >, bool, long, unsigned long, double, std::__ndk1::allocator, nlohmann::json_abi_v3_11_3::adl_serializer, std::__ndk1::vector<unsigned char, std::__ndk1::allocator<unsigned char> >, void>, nlohmann::json_abi_v3_11_3::detail::input_stream_adapter>::parse(bool, nlohmann::json_abi_v3_11_3::basic_json<std::__ndk1::map, std::__ndk1::vector, std::__ndk1::basic_string<char, std::__ndk1::char_traits<char>, std::__ndk1::allocator<char> >, bool, long, unsigned long, double, std::__ndk1::allocator, nlohmann::json_abi_v3_11_3::adl_serializer, std::__ndk1::vector<unsigned char, std::__ndk1::allocator<unsigned char> >, void>&)
PUBLIC a9488 0 nlohmann::json_abi_v3_11_3::detail::parser<nlohmann::json_abi_v3_11_3::basic_json<std::__ndk1::map, std::__ndk1::vector, std::__ndk1::basic_string<char, std::__ndk1::char_traits<char>, std::__ndk1::allocator<char> >, bool, long, unsigned long, double, std::__ndk1::allocator, nlohmann::json_abi_v3_11_3::adl_serializer, std::__ndk1::vector<unsigned char, std::__ndk1::allocator<unsigned char> >, void>, nlohmann::json_abi_v3_11_3::detail::input_stream_adapter>::~parser()
PUBLIC a9534 0 nlohmann::json_abi_v3_11_3::detail::lexer<nlohmann::json_abi_v3_11_3::basic_json<std::__ndk1::map, std::__ndk1::vector, std::__ndk1::basic_string<char, std::__ndk1::char_traits<char>, std::__ndk1::allocator<char> >, bool, long, unsigned long, double, std::__ndk1::allocator, nlohmann::json_abi_v3_11_3::adl_serializer, std::__ndk1::vector<unsigned char, std::__ndk1::allocator<unsigned char> >, void>, nlohmann::json_abi_v3_11_3::detail::input_stream_adapter>::~lexer()
PUBLIC a9594 0 nlohmann::json_abi_v3_11_3::detail::lexer<nlohmann::json_abi_v3_11_3::basic_json<std::__ndk1::map, std::__ndk1::vector, std::__ndk1::basic_string<char, std::__ndk1::char_traits<char>, std::__ndk1::allocator<char> >, bool, long, unsigned long, double, std::__ndk1::allocator, nlohmann::json_abi_v3_11_3::adl_serializer, std::__ndk1::vector<unsigned char, std::__ndk1::allocator<unsigned char> >, void>, nlohmann::json_abi_v3_11_3::detail::input_stream_adapter>::scan()
PUBLIC ab090 0 nlohmann::json_abi_v3_11_3::detail::lexer<nlohmann::json_abi_v3_11_3::basic_json<std::__ndk1::map, std::__ndk1::vector, std::__ndk1::basic_string<char, std::__ndk1::char_traits<char>, std::__ndk1::allocator<char> >, bool, long, unsigned long, double, std::__ndk1::allocator, nlohmann::json_abi_v3_11_3::adl_serializer, std::__ndk1::vector<unsigned char, std::__ndk1::allocator<unsigned char> >, void>, nlohmann::json_abi_v3_11_3::detail::input_stream_adapter>::skip_whitespace()
PUBLIC ab330 0 nlohmann::json_abi_v3_11_3::detail::lexer<nlohmann::json_abi_v3_11_3::basic_json<std::__ndk1::map, std::__ndk1::vector, std::__ndk1::basic_string<char, std::__ndk1::char_traits<char>, std::__ndk1::allocator<char> >, bool, long, unsigned long, double, std::__ndk1::allocator, nlohmann::json_abi_v3_11_3::adl_serializer, std::__ndk1::vector<unsigned char, std::__ndk1::allocator<unsigned char> >, void>, nlohmann::json_abi_v3_11_3::detail::input_stream_adapter>::get()
PUBLIC ab5b8 0 std::__ndk1::vector<char, std::__ndk1::allocator<char> >::__throw_length_error[abi:ne180000]() const
PUBLIC ab5cc 0 nlohmann::json_abi_v3_11_3::detail::lexer<nlohmann::json_abi_v3_11_3::basic_json<std::__ndk1::map, std::__ndk1::vector, std::__ndk1::basic_string<char, std::__ndk1::char_traits<char>, std::__ndk1::allocator<char> >, bool, long, unsigned long, double, std::__ndk1::allocator, nlohmann::json_abi_v3_11_3::adl_serializer, std::__ndk1::vector<unsigned char, std::__ndk1::allocator<unsigned char> >, void>, nlohmann::json_abi_v3_11_3::detail::input_stream_adapter>::get_codepoint()
PUBLIC ab778 0 nlohmann::json_abi_v3_11_3::detail::json_sax_dom_callback_parser<nlohmann::json_abi_v3_11_3::basic_json<std::__ndk1::map, std::__ndk1::vector, std::__ndk1::basic_string<char, std::__ndk1::char_traits<char>, std::__ndk1::allocator<char> >, bool, long, unsigned long, double, std::__ndk1::allocator, nlohmann::json_abi_v3_11_3::adl_serializer, std::__ndk1::vector<unsigned char, std::__ndk1::allocator<unsigned char> >, void> >::json_sax_dom_callback_parser(nlohmann::json_abi_v3_11_3::basic_json<std::__ndk1::map, std::__ndk1::vector, std::__ndk1::basic_string<char, std::__ndk1::char_traits<char>, std::__ndk1::allocator<char> >, bool, long, unsigned long, double, std::__ndk1::allocator, nlohmann::json_abi_v3_11_3::adl_serializer, std::__ndk1::vector<unsigned char, std::__ndk1::allocator<unsigned char> >, void>&, std::__ndk1::function<bool (int, nlohmann::json_abi_v3_11_3::detail::parse_event_t, nlohmann::json_abi_v3_11_3::basic_json<std::__ndk1::map, std::__ndk1::vector, std::__ndk1::basic_string<char, std::__ndk1::char_traits<char>, std::__ndk1::allocator<char> >, bool, long, unsigned long, double, std::__ndk1::allocator, nlohmann::json_abi_v3_11_3::adl_serializer, std::__ndk1::vector<unsigned char, std::__ndk1::allocator<unsigned char> >, void>&)>, bool)
PUBLIC ab938 0 nlohmann::json_abi_v3_11_3::detail::json_sax_dom_callback_parser<nlohmann::json_abi_v3_11_3::basic_json<std::__ndk1::map, std::__ndk1::vector, std::__ndk1::basic_string<char, std::__ndk1::char_traits<char>, std::__ndk1::allocator<char> >, bool, long, unsigned long, double, std::__ndk1::allocator, nlohmann::json_abi_v3_11_3::adl_serializer, std::__ndk1::vector<unsigned char, std::__ndk1::allocator<unsigned char> >, void> >::parse_error<nlohmann::json_abi_v3_11_3::detail::parse_error>(unsigned long, std::__ndk1::basic_string<char, std::__ndk1::char_traits<char>, std::__ndk1::allocator<char> > const&, nlohmann::json_abi_v3_11_3::detail::parse_error const&)
PUBLIC ab98c 0 nlohmann::json_abi_v3_11_3::detail::lexer<nlohmann::json_abi_v3_11_3::basic_json<std::__ndk1::map, std::__ndk1::vector, std::__ndk1::basic_string<char, std::__ndk1::char_traits<char>, std::__ndk1::allocator<char> >, bool, long, unsigned long, double, std::__ndk1::allocator, nlohmann::json_abi_v3_11_3::adl_serializer, std::__ndk1::vector<unsigned char, std::__ndk1::allocator<unsigned char> >, void>, nlohmann::json_abi_v3_11_3::detail::input_stream_adapter>::get_token_string() const
PUBLIC aba74 0 _ZN8nlohmann16json_abi_v3_11_36detail11parse_error6createIDnTnNSt6__ndk19enable_ifIXsr21is_basic_json_contextIT_EE5valueEiE4typeELi0EEES2_iRKNS1_10position_tERKNS4_12basic_stringIcNS4_11char_traitsIcEENS4_9allocatorIcEEEES6_
PUBLIC abce0 0 nlohmann::json_abi_v3_11_3::detail::parser<nlohmann::json_abi_v3_11_3::basic_json<std::__ndk1::map, std::__ndk1::vector, std::__ndk1::basic_string<char, std::__ndk1::char_traits<char>, std::__ndk1::allocator<char> >, bool, long, unsigned long, double, std::__ndk1::allocator, nlohmann::json_abi_v3_11_3::adl_serializer, std::__ndk1::vector<unsigned char, std::__ndk1::allocator<unsigned char> >, void>, nlohmann::json_abi_v3_11_3::detail::input_stream_adapter>::exception_message(nlohmann::json_abi_v3_11_3::detail::lexer_base<nlohmann::json_abi_v3_11_3::basic_json<std::__ndk1::map, std::__ndk1::vector, std::__ndk1::basic_string<char, std::__ndk1::char_traits<char>, std::__ndk1::allocator<char> >, bool, long, unsigned long, double, std::__ndk1::allocator, nlohmann::json_abi_v3_11_3::adl_serializer, std::__ndk1::vector<unsigned char, std::__ndk1::allocator<unsigned char> >, void> >::token_type, std::__ndk1::basic_string<char, std::__ndk1::char_traits<char>, std::__ndk1::allocator<char> > const&)
PUBLIC ac068 0 nlohmann::json_abi_v3_11_3::detail::exception::~exception()
PUBLIC ac098 0 nlohmann::json_abi_v3_11_3::detail::json_sax_dom_callback_parser<nlohmann::json_abi_v3_11_3::basic_json<std::__ndk1::map, std::__ndk1::vector, std::__ndk1::basic_string<char, std::__ndk1::char_traits<char>, std::__ndk1::allocator<char> >, bool, long, unsigned long, double, std::__ndk1::allocator, nlohmann::json_abi_v3_11_3::adl_serializer, std::__ndk1::vector<unsigned char, std::__ndk1::allocator<unsigned char> >, void> >::~json_sax_dom_callback_parser()
PUBLIC ac124 0 nlohmann::json_abi_v3_11_3::detail::json_sax_dom_parser<nlohmann::json_abi_v3_11_3::basic_json<std::__ndk1::map, std::__ndk1::vector, std::__ndk1::basic_string<char, std::__ndk1::char_traits<char>, std::__ndk1::allocator<char> >, bool, long, unsigned long, double, std::__ndk1::allocator, nlohmann::json_abi_v3_11_3::adl_serializer, std::__ndk1::vector<unsigned char, std::__ndk1::allocator<unsigned char> >, void> >::parse_error<nlohmann::json_abi_v3_11_3::detail::parse_error>(unsigned long, std::__ndk1::basic_string<char, std::__ndk1::char_traits<char>, std::__ndk1::allocator<char> > const&, nlohmann::json_abi_v3_11_3::detail::parse_error const&)
PUBLIC ac178 0 std::__ndk1::vector<bool, std::__ndk1::allocator<bool> >::reserve(unsigned long)
PUBLIC ac27c 0 std::__ndk1::vector<bool, std::__ndk1::allocator<bool> >::__throw_length_error[abi:ne180000]() const
PUBLIC ac290 0 nlohmann::json_abi_v3_11_3::detail::json_sax_dom_callback_parser<nlohmann::json_abi_v3_11_3::basic_json<std::__ndk1::map, std::__ndk1::vector, std::__ndk1::basic_string<char, std::__ndk1::char_traits<char>, std::__ndk1::allocator<char> >, bool, long, unsigned long, double, std::__ndk1::allocator, nlohmann::json_abi_v3_11_3::adl_serializer, std::__ndk1::vector<unsigned char, std::__ndk1::allocator<unsigned char> >, void> >::start_object(unsigned long)
PUBLIC ac680 0 nlohmann::json_abi_v3_11_3::detail::json_sax_dom_callback_parser<nlohmann::json_abi_v3_11_3::basic_json<std::__ndk1::map, std::__ndk1::vector, std::__ndk1::basic_string<char, std::__ndk1::char_traits<char>, std::__ndk1::allocator<char> >, bool, long, unsigned long, double, std::__ndk1::allocator, nlohmann::json_abi_v3_11_3::adl_serializer, std::__ndk1::vector<unsigned char, std::__ndk1::allocator<unsigned char> >, void> >::end_object()
PUBLIC ac934 0 nlohmann::json_abi_v3_11_3::detail::json_sax_dom_callback_parser<nlohmann::json_abi_v3_11_3::basic_json<std::__ndk1::map, std::__ndk1::vector, std::__ndk1::basic_string<char, std::__ndk1::char_traits<char>, std::__ndk1::allocator<char> >, bool, long, unsigned long, double, std::__ndk1::allocator, nlohmann::json_abi_v3_11_3::adl_serializer, std::__ndk1::vector<unsigned char, std::__ndk1::allocator<unsigned char> >, void> >::key(std::__ndk1::basic_string<char, std::__ndk1::char_traits<char>, std::__ndk1::allocator<char> >&)
PUBLIC acb94 0 nlohmann::json_abi_v3_11_3::detail::json_sax_dom_callback_parser<nlohmann::json_abi_v3_11_3::basic_json<std::__ndk1::map, std::__ndk1::vector, std::__ndk1::basic_string<char, std::__ndk1::char_traits<char>, std::__ndk1::allocator<char> >, bool, long, unsigned long, double, std::__ndk1::allocator, nlohmann::json_abi_v3_11_3::adl_serializer, std::__ndk1::vector<unsigned char, std::__ndk1::allocator<unsigned char> >, void> >::start_array(unsigned long)
PUBLIC acf88 0 nlohmann::json_abi_v3_11_3::detail::json_sax_dom_callback_parser<nlohmann::json_abi_v3_11_3::basic_json<std::__ndk1::map, std::__ndk1::vector, std::__ndk1::basic_string<char, std::__ndk1::char_traits<char>, std::__ndk1::allocator<char> >, bool, long, unsigned long, double, std::__ndk1::allocator, nlohmann::json_abi_v3_11_3::adl_serializer, std::__ndk1::vector<unsigned char, std::__ndk1::allocator<unsigned char> >, void> >::end_array()
PUBLIC ad118 0 nlohmann::json_abi_v3_11_3::detail::json_sax_dom_callback_parser<nlohmann::json_abi_v3_11_3::basic_json<std::__ndk1::map, std::__ndk1::vector, std::__ndk1::basic_string<char, std::__ndk1::char_traits<char>, std::__ndk1::allocator<char> >, bool, long, unsigned long, double, std::__ndk1::allocator, nlohmann::json_abi_v3_11_3::adl_serializer, std::__ndk1::vector<unsigned char, std::__ndk1::allocator<unsigned char> >, void> >::parse_error<nlohmann::json_abi_v3_11_3::detail::out_of_range>(unsigned long, std::__ndk1::basic_string<char, std::__ndk1::char_traits<char>, std::__ndk1::allocator<char> > const&, nlohmann::json_abi_v3_11_3::detail::out_of_range const&)
PUBLIC ad16c 0 _ZN8nlohmann16json_abi_v3_11_36detail12out_of_range6createIDnTnNSt6__ndk19enable_ifIXsr21is_basic_json_contextIT_EE5valueEiE4typeELi0EEES2_iRKNS4_12basic_stringIcNS4_11char_traitsIcEENS4_9allocatorIcEEEES6_
PUBLIC ad358 0 nlohmann::json_abi_v3_11_3::detail::concat<std::__ndk1::basic_string<char, std::__ndk1::char_traits<char>, std::__ndk1::allocator<char> >, char const (&) [26], std::__ndk1::basic_string<char, std::__ndk1::char_traits<char>, std::__ndk1::allocator<char> >, char>(char const (&) [26], std::__ndk1::basic_string<char, std::__ndk1::char_traits<char>, std::__ndk1::allocator<char> >, char)
PUBLIC ad41c 0 nlohmann::json_abi_v3_11_3::detail::json_sax_dom_callback_parser<nlohmann::json_abi_v3_11_3::basic_json<std::__ndk1::map, std::__ndk1::vector, std::__ndk1::basic_string<char, std::__ndk1::char_traits<char>, std::__ndk1::allocator<char> >, bool, long, unsigned long, double, std::__ndk1::allocator, nlohmann::json_abi_v3_11_3::adl_serializer, std::__ndk1::vector<unsigned char, std::__ndk1::allocator<unsigned char> >, void> >::handle_value<nlohmann::json_abi_v3_11_3::detail::value_t>(nlohmann::json_abi_v3_11_3::detail::value_t&&, bool)
PUBLIC ad66c 0 _ZN8nlohmann16json_abi_v3_11_36detail12out_of_range6createIPNS0_10basic_jsonINSt6__ndk13mapENS5_6vectorENS5_12basic_stringIcNS5_11char_traitsIcEENS5_9allocatorIcEEEEblmdSB_NS0_14adl_serializerENS7_IhNSB_IhEEEEvEETnNS5_9enable_ifIXsr21is_basic_json_contextIT_EE5valueEiE4typeELi0EEES2_iRKSD_SK_
PUBLIC ad858 0 nlohmann::json_abi_v3_11_3::detail::concat<std::__ndk1::basic_string<char, std::__ndk1::char_traits<char>, std::__ndk1::allocator<char> >, char const (&) [24], std::__ndk1::basic_string<char, std::__ndk1::char_traits<char>, std::__ndk1::allocator<char> > >(char const (&) [24], std::__ndk1::basic_string<char, std::__ndk1::char_traits<char>, std::__ndk1::allocator<char> >)
PUBLIC ad908 0 std::__ndk1::__throw_bad_function_call[abi:ne180000]()
PUBLIC ad93c 0 std::__ndk1::bad_function_call::~bad_function_call()
PUBLIC ad960 0 std::__ndk1::vector<nlohmann::json_abi_v3_11_3::basic_json<std::__ndk1::map, std::__ndk1::vector, std::__ndk1::basic_string<char, std::__ndk1::char_traits<char>, std::__ndk1::allocator<char> >, bool, long, unsigned long, double, std::__ndk1::allocator, nlohmann::json_abi_v3_11_3::adl_serializer, std::__ndk1::vector<unsigned char, std::__ndk1::allocator<unsigned char> >, void>, std::__ndk1::allocator<nlohmann::json_abi_v3_11_3::basic_json<std::__ndk1::map, std::__ndk1::vector, std::__ndk1::basic_string<char, std::__ndk1::char_traits<char>, std::__ndk1::allocator<char> >, bool, long, unsigned long, double, std::__ndk1::allocator, nlohmann::json_abi_v3_11_3::adl_serializer, std::__ndk1::vector<unsigned char, std::__ndk1::allocator<unsigned char> >, void> > >::__emplace_back_slow_path<nlohmann::json_abi_v3_11_3::basic_json<std::__ndk1::map, std::__ndk1::vector, std::__ndk1::basic_string<char, std::__ndk1::char_traits<char>, std::__ndk1::allocator<char> >, bool, long, unsigned long, double, std::__ndk1::allocator, nlohmann::json_abi_v3_11_3::adl_serializer, std::__ndk1::vector<unsigned char, std::__ndk1::allocator<unsigned char> >, void> >(nlohmann::json_abi_v3_11_3::basic_json<std::__ndk1::map, std::__ndk1::vector, std::__ndk1::basic_string<char, std::__ndk1::char_traits<char>, std::__ndk1::allocator<char> >, bool, long, unsigned long, double, std::__ndk1::allocator, nlohmann::json_abi_v3_11_3::adl_serializer, std::__ndk1::vector<unsigned char, std::__ndk1::allocator<unsigned char> >, void>&&)
PUBLIC ada80 0 std::__ndk1::vector<nlohmann::json_abi_v3_11_3::basic_json<std::__ndk1::map, std::__ndk1::vector, std::__ndk1::basic_string<char, std::__ndk1::char_traits<char>, std::__ndk1::allocator<char> >, bool, long, unsigned long, double, std::__ndk1::allocator, nlohmann::json_abi_v3_11_3::adl_serializer, std::__ndk1::vector<unsigned char, std::__ndk1::allocator<unsigned char> >, void>*, std::__ndk1::allocator<nlohmann::json_abi_v3_11_3::basic_json<std::__ndk1::map, std::__ndk1::vector, std::__ndk1::basic_string<char, std::__ndk1::char_traits<char>, std::__ndk1::allocator<char> >, bool, long, unsigned long, double, std::__ndk1::allocator, nlohmann::json_abi_v3_11_3::adl_serializer, std::__ndk1::vector<unsigned char, std::__ndk1::allocator<unsigned char> >, void>*> >::__throw_length_error[abi:ne180000]() const
PUBLIC ada94 0 nlohmann::json_abi_v3_11_3::detail::out_of_range::~out_of_range()
PUBLIC adacc 0 nlohmann::json_abi_v3_11_3::basic_json<std::__ndk1::map, std::__ndk1::vector, std::__ndk1::basic_string<char, std::__ndk1::char_traits<char>, std::__ndk1::allocator<char> >, bool, long, unsigned long, double, std::__ndk1::allocator, nlohmann::json_abi_v3_11_3::adl_serializer, std::__ndk1::vector<unsigned char, std::__ndk1::allocator<unsigned char> >, void>::basic_json(nlohmann::json_abi_v3_11_3::basic_json<std::__ndk1::map, std::__ndk1::vector, std::__ndk1::basic_string<char, std::__ndk1::char_traits<char>, std::__ndk1::allocator<char> >, bool, long, unsigned long, double, std::__ndk1::allocator, nlohmann::json_abi_v3_11_3::adl_serializer, std::__ndk1::vector<unsigned char, std::__ndk1::allocator<unsigned char> >, void> const&)
PUBLIC addec 0 nlohmann::json_abi_v3_11_3::detail::iter_impl<nlohmann::json_abi_v3_11_3::basic_json<std::__ndk1::map, std::__ndk1::vector, std::__ndk1::basic_string<char, std::__ndk1::char_traits<char>, std::__ndk1::allocator<char> >, bool, long, unsigned long, double, std::__ndk1::allocator, nlohmann::json_abi_v3_11_3::adl_serializer, std::__ndk1::vector<unsigned char, std::__ndk1::allocator<unsigned char> >, void> >::operator->() const
PUBLIC adf18 0 _ZN8nlohmann16json_abi_v3_11_310basic_jsonINSt6__ndk13mapENS2_6vectorENS2_12basic_stringIcNS2_11char_traitsIcEENS2_9allocatorIcEEEEblmdS8_NS0_14adl_serializerENS4_IhNS8_IhEEEEvE5eraseINS0_6detail9iter_implISE_EETnNS2_9enable_ifIXoosr3std7is_sameIT_SI_EE5valuesr3std7is_sameISK_NSH_IKSE_EEEE5valueEiE4typeELi0EEESK_SK_
PUBLIC ae2b4 0 std::__ndk1::__tree<std::__ndk1::__value_type<std::__ndk1::basic_string<char, std::__ndk1::char_traits<char>, std::__ndk1::allocator<char> >, nlohmann::json_abi_v3_11_3::basic_json<std::__ndk1::map, std::__ndk1::vector, std::__ndk1::basic_string<char, std::__ndk1::char_traits<char>, std::__ndk1::allocator<char> >, bool, long, unsigned long, double, std::__ndk1::allocator, nlohmann::json_abi_v3_11_3::adl_serializer, std::__ndk1::vector<unsigned char, std::__ndk1::allocator<unsigned char> >, void> >, std::__ndk1::__map_value_compare<std::__ndk1::basic_string<char, std::__ndk1::char_traits<char>, std::__ndk1::allocator<char> >, std::__ndk1::__value_type<std::__ndk1::basic_string<char, std::__ndk1::char_traits<char>, std::__ndk1::allocator<char> >, nlohmann::json_abi_v3_11_3::basic_json<std::__ndk1::map, std::__ndk1::vector, std::__ndk1::basic_string<char, std::__ndk1::char_traits<char>, std::__ndk1::allocator<char> >, bool, long, unsigned long, double, std::__ndk1::allocator, nlohmann::json_abi_v3_11_3::adl_serializer, std::__ndk1::vector<unsigned char, std::__ndk1::allocator<unsigned char> >, void> >, std::__ndk1::less<void>, true>, std::__ndk1::allocator<std::__ndk1::__value_type<std::__ndk1::basic_string<char, std::__ndk1::char_traits<char>, std::__ndk1::allocator<char> >, nlohmann::json_abi_v3_11_3::basic_json<std::__ndk1::map, std::__ndk1::vector, std::__ndk1::basic_string<char, std::__ndk1::char_traits<char>, std::__ndk1::allocator<char> >, bool, long, unsigned long, double, std::__ndk1::allocator, nlohmann::json_abi_v3_11_3::adl_serializer, std::__ndk1::vector<unsigned char, std::__ndk1::allocator<unsigned char> >, void> > > >::__emplace_hint_unique_key_args<std::__ndk1::basic_string<char, std::__ndk1::char_traits<char>, std::__ndk1::allocator<char> >, std::__ndk1::pair<std::__ndk1::basic_string<char, std::__ndk1::char_traits<char>, std::__ndk1::allocator<char> > const, nlohmann::json_abi_v3_11_3::basic_json<std::__ndk1::map, std::__ndk1::vector, std::__ndk1::basic_string<char, std::__ndk1::char_traits<char>, std::__ndk1::allocator<char> >, bool, long, unsigned long, double, std::__ndk1::allocator, nlohmann::json_abi_v3_11_3::adl_serializer, std::__ndk1::vector<unsigned char, std::__ndk1::allocator<unsigned char> >, void> > const&>(std::__ndk1::__tree_const_iterator<std::__ndk1::__value_type<std::__ndk1::basic_string<char, std::__ndk1::char_traits<char>, std::__ndk1::allocator<char> >, nlohmann::json_abi_v3_11_3::basic_json<std::__ndk1::map, std::__ndk1::vector, std::__ndk1::basic_string<char, std::__ndk1::char_traits<char>, std::__ndk1::allocator<char> >, bool, long, unsigned long, double, std::__ndk1::allocator, nlohmann::json_abi_v3_11_3::adl_serializer, std::__ndk1::vector<unsigned char, std::__ndk1::allocator<unsigned char> >, void> >, std::__ndk1::__tree_node<std::__ndk1::__value_type<std::__ndk1::basic_string<char, std::__ndk1::char_traits<char>, std::__ndk1::allocator<char> >, nlohmann::json_abi_v3_11_3::basic_json<std::__ndk1::map, std::__ndk1::vector, std::__ndk1::basic_string<char, std::__ndk1::char_traits<char>, std::__ndk1::allocator<char> >, bool, long, unsigned long, double, std::__ndk1::allocator, nlohmann::json_abi_v3_11_3::adl_serializer, std::__ndk1::vector<unsigned char, std::__ndk1::allocator<unsigned char> >, void> >, void*>*, long>, std::__ndk1::basic_string<char, std::__ndk1::char_traits<char>, std::__ndk1::allocator<char> > const&, std::__ndk1::pair<std::__ndk1::basic_string<char, std::__ndk1::char_traits<char>, std::__ndk1::allocator<char> > const, nlohmann::json_abi_v3_11_3::basic_json<std::__ndk1::map, std::__ndk1::vector, std::__ndk1::basic_string<char, std::__ndk1::char_traits<char>, std::__ndk1::allocator<char> >, bool, long, unsigned long, double, std::__ndk1::allocator, nlohmann::json_abi_v3_11_3::adl_serializer, std::__ndk1::vector<unsigned char, std::__ndk1::allocator<unsigned char> >, void> > const&)
PUBLIC ae40c 0 std::__ndk1::__tree<std::__ndk1::__value_type<std::__ndk1::basic_string<char, std::__ndk1::char_traits<char>, std::__ndk1::allocator<char> >, nlohmann::json_abi_v3_11_3::basic_json<std::__ndk1::map, std::__ndk1::vector, std::__ndk1::basic_string<char, std::__ndk1::char_traits<char>, std::__ndk1::allocator<char> >, bool, long, unsigned long, double, std::__ndk1::allocator, nlohmann::json_abi_v3_11_3::adl_serializer, std::__ndk1::vector<unsigned char, std::__ndk1::allocator<unsigned char> >, void> >, std::__ndk1::__map_value_compare<std::__ndk1::basic_string<char, std::__ndk1::char_traits<char>, std::__ndk1::allocator<char> >, std::__ndk1::__value_type<std::__ndk1::basic_string<char, std::__ndk1::char_traits<char>, std::__ndk1::allocator<char> >, nlohmann::json_abi_v3_11_3::basic_json<std::__ndk1::map, std::__ndk1::vector, std::__ndk1::basic_string<char, std::__ndk1::char_traits<char>, std::__ndk1::allocator<char> >, bool, long, unsigned long, double, std::__ndk1::allocator, nlohmann::json_abi_v3_11_3::adl_serializer, std::__ndk1::vector<unsigned char, std::__ndk1::allocator<unsigned char> >, void> >, std::__ndk1::less<void>, true>, std::__ndk1::allocator<std::__ndk1::__value_type<std::__ndk1::basic_string<char, std::__ndk1::char_traits<char>, std::__ndk1::allocator<char> >, nlohmann::json_abi_v3_11_3::basic_json<std::__ndk1::map, std::__ndk1::vector, std::__ndk1::basic_string<char, std::__ndk1::char_traits<char>, std::__ndk1::allocator<char> >, bool, long, unsigned long, double, std::__ndk1::allocator, nlohmann::json_abi_v3_11_3::adl_serializer, std::__ndk1::vector<unsigned char, std::__ndk1::allocator<unsigned char> >, void> > > >::__find_equal<std::__ndk1::basic_string<char, std::__ndk1::char_traits<char>, std::__ndk1::allocator<char> > >(std::__ndk1::__tree_const_iterator<std::__ndk1::__value_type<std::__ndk1::basic_string<char, std::__ndk1::char_traits<char>, std::__ndk1::allocator<char> >, nlohmann::json_abi_v3_11_3::basic_json<std::__ndk1::map, std::__ndk1::vector, std::__ndk1::basic_string<char, std::__ndk1::char_traits<char>, std::__ndk1::allocator<char> >, bool, long, unsigned long, double, std::__ndk1::allocator, nlohmann::json_abi_v3_11_3::adl_serializer, std::__ndk1::vector<unsigned char, std::__ndk1::allocator<unsigned char> >, void> >, std::__ndk1::__tree_node<std::__ndk1::__value_type<std::__ndk1::basic_string<char, std::__ndk1::char_traits<char>, std::__ndk1::allocator<char> >, nlohmann::json_abi_v3_11_3::basic_json<std::__ndk1::map, std::__ndk1::vector, std::__ndk1::basic_string<char, std::__ndk1::char_traits<char>, std::__ndk1::allocator<char> >, bool, long, unsigned long, double, std::__ndk1::allocator, nlohmann::json_abi_v3_11_3::adl_serializer, std::__ndk1::vector<unsigned char, std::__ndk1::allocator<unsigned char> >, void> >, void*>*, long>, std::__ndk1::__tree_end_node<std::__ndk1::__tree_node_base<void*>*>*&, std::__ndk1::__tree_node_base<void*>*&, std::__ndk1::basic_string<char, std::__ndk1::char_traits<char>, std::__ndk1::allocator<char> > const&)
PUBLIC ae7fc 0 std::__ndk1::unique_ptr<std::__ndk1::__tree_node<std::__ndk1::__value_type<std::__ndk1::basic_string<char, std::__ndk1::char_traits<char>, std::__ndk1::allocator<char> >, nlohmann::json_abi_v3_11_3::basic_json<std::__ndk1::map, std::__ndk1::vector, std::__ndk1::basic_string<char, std::__ndk1::char_traits<char>, std::__ndk1::allocator<char> >, bool, long, unsigned long, double, std::__ndk1::allocator, nlohmann::json_abi_v3_11_3::adl_serializer, std::__ndk1::vector<unsigned char, std::__ndk1::allocator<unsigned char> >, void> >, void*>, std::__ndk1::__tree_node_destructor<std::__ndk1::allocator<std::__ndk1::__tree_node<std::__ndk1::__value_type<std::__ndk1::basic_string<char, std::__ndk1::char_traits<char>, std::__ndk1::allocator<char> >, nlohmann::json_abi_v3_11_3::basic_json<std::__ndk1::map, std::__ndk1::vector, std::__ndk1::basic_string<char, std::__ndk1::char_traits<char>, std::__ndk1::allocator<char> >, bool, long, unsigned long, double, std::__ndk1::allocator, nlohmann::json_abi_v3_11_3::adl_serializer, std::__ndk1::vector<unsigned char, std::__ndk1::allocator<unsigned char> >, void> >, void*> > > >::~unique_ptr[abi:ne180000]()
PUBLIC ae858 0 std::__ndk1::vector<nlohmann::json_abi_v3_11_3::basic_json<std::__ndk1::map, std::__ndk1::vector, std::__ndk1::basic_string<char, std::__ndk1::char_traits<char>, std::__ndk1::allocator<char> >, bool, long, unsigned long, double, std::__ndk1::allocator, nlohmann::json_abi_v3_11_3::adl_serializer, std::__ndk1::vector<unsigned char, std::__ndk1::allocator<unsigned char> >, void>, std::__ndk1::allocator<nlohmann::json_abi_v3_11_3::basic_json<std::__ndk1::map, std::__ndk1::vector, std::__ndk1::basic_string<char, std::__ndk1::char_traits<char>, std::__ndk1::allocator<char> >, bool, long, unsigned long, double, std::__ndk1::allocator, nlohmann::json_abi_v3_11_3::adl_serializer, std::__ndk1::vector<unsigned char, std::__ndk1::allocator<unsigned char> >, void> > >::__init_with_size[abi:ne180000]<nlohmann::json_abi_v3_11_3::basic_json<std::__ndk1::map, std::__ndk1::vector, std::__ndk1::basic_string<char, std::__ndk1::char_traits<char>, std::__ndk1::allocator<char> >, bool, long, unsigned long, double, std::__ndk1::allocator, nlohmann::json_abi_v3_11_3::adl_serializer, std::__ndk1::vector<unsigned char, std::__ndk1::allocator<unsigned char> >, void>*, std::__ndk1::vector<nlohmann::json_abi_v3_11_3::basic_json<std::__ndk1::map, std::__ndk1::vector, std::__ndk1::basic_string<char, std::__ndk1::char_traits<char>, std::__ndk1::allocator<char> >, bool, long, unsigned long, double, std::__ndk1::allocator, nlohmann::json_abi_v3_11_3::adl_serializer, std::__ndk1::vector<unsigned char, std::__ndk1::allocator<unsigned char> >, void>, std::__ndk1::allocator<nlohmann::json_abi_v3_11_3::basic_json<std::__ndk1::map, std::__ndk1::vector, std::__ndk1::basic_string<char, std::__ndk1::char_traits<char>, std::__ndk1::allocator<char> >, bool, long, unsigned long, double, std::__ndk1::allocator, nlohmann::json_abi_v3_11_3::adl_serializer, std::__ndk1::vector<unsigned char, std::__ndk1::allocator<unsigned char> >, void> > >::__init_with_size[abi:ne180000]>(nlohmann::json_abi_v3_11_3::basic_json<std::__ndk1::map, std::__ndk1::vector, std::__ndk1::basic_string<char, std::__ndk1::char_traits<char>, std::__ndk1::allocator<char> >, bool, long, unsigned long, double, std::__ndk1::allocator, nlohmann::json_abi_v3_11_3::adl_serializer, std::__ndk1::vector<unsigned char, std::__ndk1::allocator<unsigned char> >, void>*, std::__ndk1::vector<nlohmann::json_abi_v3_11_3::basic_json<std::__ndk1::map, std::__ndk1::vector, std::__ndk1::basic_string<char, std::__ndk1::char_traits<char>, std::__ndk1::allocator<char> >, bool, long, unsigned long, double, std::__ndk1::allocator, nlohmann::json_abi_v3_11_3::adl_serializer, std::__ndk1::vector<unsigned char, std::__ndk1::allocator<unsigned char> >, void>, std::__ndk1::allocator<nlohmann::json_abi_v3_11_3::basic_json<std::__ndk1::map, std::__ndk1::vector, std::__ndk1::basic_string<char, std::__ndk1::char_traits<char>, std::__ndk1::allocator<char> >, bool, long, unsigned long, double, std::__ndk1::allocator, nlohmann::json_abi_v3_11_3::adl_serializer, std::__ndk1::vector<unsigned char, std::__ndk1::allocator<unsigned char> >, void> > >::__init_with_size[abi:ne180000], unsigned long)
PUBLIC ae988 0 std::__ndk1::__exception_guard_exceptions<std::__ndk1::vector<nlohmann::json_abi_v3_11_3::basic_json<std::__ndk1::map, std::__ndk1::vector, std::__ndk1::basic_string<char, std::__ndk1::char_traits<char>, std::__ndk1::allocator<char> >, bool, long, unsigned long, double, std::__ndk1::allocator, nlohmann::json_abi_v3_11_3::adl_serializer, std::__ndk1::vector<unsigned char, std::__ndk1::allocator<unsigned char> >, void>, std::__ndk1::allocator<nlohmann::json_abi_v3_11_3::basic_json<std::__ndk1::map, std::__ndk1::vector, std::__ndk1::basic_string<char, std::__ndk1::char_traits<char>, std::__ndk1::allocator<char> >, bool, long, unsigned long, double, std::__ndk1::allocator, nlohmann::json_abi_v3_11_3::adl_serializer, std::__ndk1::vector<unsigned char, std::__ndk1::allocator<unsigned char> >, void> > >::__destroy_vector>::~__exception_guard_exceptions[abi:ne180000]()
PUBLIC ae9fc 0 std::__ndk1::__exception_guard_exceptions<std::__ndk1::_AllocatorDestroyRangeReverse<std::__ndk1::allocator<nlohmann::json_abi_v3_11_3::basic_json<std::__ndk1::map, std::__ndk1::vector, std::__ndk1::basic_string<char, std::__ndk1::char_traits<char>, std::__ndk1::allocator<char> >, bool, long, unsigned long, double, std::__ndk1::allocator, nlohmann::json_abi_v3_11_3::adl_serializer, std::__ndk1::vector<unsigned char, std::__ndk1::allocator<unsigned char> >, void> >, nlohmann::json_abi_v3_11_3::basic_json<std::__ndk1::map, std::__ndk1::vector, std::__ndk1::basic_string<char, std::__ndk1::char_traits<char>, std::__ndk1::allocator<char> >, bool, long, unsigned long, double, std::__ndk1::allocator, nlohmann::json_abi_v3_11_3::adl_serializer, std::__ndk1::vector<unsigned char, std::__ndk1::allocator<unsigned char> >, void>*> >::~__exception_guard_exceptions[abi:ne180000]()
PUBLIC aea44 0 std::__ndk1::vector<unsigned char, std::__ndk1::allocator<unsigned char> >::__throw_length_error[abi:ne180000]() const
PUBLIC aea58 0 _ZNK8nlohmann16json_abi_v3_11_36detail9iter_implINS0_10basic_jsonINSt6__ndk13mapENS4_6vectorENS4_12basic_stringIcNS4_11char_traitsIcEENS4_9allocatorIcEEEEblmdSA_NS0_14adl_serializerENS6_IhNSA_IhEEEEvEEEeqISH_TnNS4_9enable_ifIXoosr3std7is_sameIT_SH_EE5valuesr3std7is_sameISK_NS2_IKSG_EEEE5valueEDnE4typeELDn0EEEbRKSK_
PUBLIC aeb98 0 _ZN8nlohmann16json_abi_v3_11_36detail16invalid_iterator6createIPNS0_10basic_jsonINSt6__ndk13mapENS5_6vectorENS5_12basic_stringIcNS5_11char_traitsIcEENS5_9allocatorIcEEEEblmdSB_NS0_14adl_serializerENS7_IhNSB_IhEEEEvEETnNS5_9enable_ifIXsr21is_basic_json_contextIT_EE5valueEiE4typeELi0EEES2_iRKSD_SK_
PUBLIC aed78 0 nlohmann::json_abi_v3_11_3::detail::invalid_iterator::~invalid_iterator()
PUBLIC aedb0 0 _ZN8nlohmann16json_abi_v3_11_36detail10type_error6createIPNS0_10basic_jsonINSt6__ndk13mapENS5_6vectorENS5_12basic_stringIcNS5_11char_traitsIcEENS5_9allocatorIcEEEEblmdSB_NS0_14adl_serializerENS7_IhNSB_IhEEEEvEETnNS5_9enable_ifIXsr21is_basic_json_contextIT_EE5valueEiE4typeELi0EEES2_iRKSD_SK_
PUBLIC aef98 0 nlohmann::json_abi_v3_11_3::detail::concat<std::__ndk1::basic_string<char, std::__ndk1::char_traits<char>, std::__ndk1::allocator<char> >, char const (&) [25], char const*>(char const (&) [25], char const*)
PUBLIC af040 0 nlohmann::json_abi_v3_11_3::basic_json<std::__ndk1::map, std::__ndk1::vector, std::__ndk1::basic_string<char, std::__ndk1::char_traits<char>, std::__ndk1::allocator<char> >, bool, long, unsigned long, double, std::__ndk1::allocator, nlohmann::json_abi_v3_11_3::adl_serializer, std::__ndk1::vector<unsigned char, std::__ndk1::allocator<unsigned char> >, void>::type_name() const
PUBLIC af06c 0 std::__ndk1::__tree<std::__ndk1::__value_type<std::__ndk1::basic_string<char, std::__ndk1::char_traits<char>, std::__ndk1::allocator<char> >, nlohmann::json_abi_v3_11_3::basic_json<std::__ndk1::map, std::__ndk1::vector, std::__ndk1::basic_string<char, std::__ndk1::char_traits<char>, std::__ndk1::allocator<char> >, bool, long, unsigned long, double, std::__ndk1::allocator, nlohmann::json_abi_v3_11_3::adl_serializer, std::__ndk1::vector<unsigned char, std::__ndk1::allocator<unsigned char> >, void> >, std::__ndk1::__map_value_compare<std::__ndk1::basic_string<char, std::__ndk1::char_traits<char>, std::__ndk1::allocator<char> >, std::__ndk1::__value_type<std::__ndk1::basic_string<char, std::__ndk1::char_traits<char>, std::__ndk1::allocator<char> >, nlohmann::json_abi_v3_11_3::basic_json<std::__ndk1::map, std::__ndk1::vector, std::__ndk1::basic_string<char, std::__ndk1::char_traits<char>, std::__ndk1::allocator<char> >, bool, long, unsigned long, double, std::__ndk1::allocator, nlohmann::json_abi_v3_11_3::adl_serializer, std::__ndk1::vector<unsigned char, std::__ndk1::allocator<unsigned char> >, void> >, std::__ndk1::less<void>, true>, std::__ndk1::allocator<std::__ndk1::__value_type<std::__ndk1::basic_string<char, std::__ndk1::char_traits<char>, std::__ndk1::allocator<char> >, nlohmann::json_abi_v3_11_3::basic_json<std::__ndk1::map, std::__ndk1::vector, std::__ndk1::basic_string<char, std::__ndk1::char_traits<char>, std::__ndk1::allocator<char> >, bool, long, unsigned long, double, std::__ndk1::allocator, nlohmann::json_abi_v3_11_3::adl_serializer, std::__ndk1::vector<unsigned char, std::__ndk1::allocator<unsigned char> >, void> > > >::erase(std::__ndk1::__tree_const_iterator<std::__ndk1::__value_type<std::__ndk1::basic_string<char, std::__ndk1::char_traits<char>, std::__ndk1::allocator<char> >, nlohmann::json_abi_v3_11_3::basic_json<std::__ndk1::map, std::__ndk1::vector, std::__ndk1::basic_string<char, std::__ndk1::char_traits<char>, std::__ndk1::allocator<char> >, bool, long, unsigned long, double, std::__ndk1::allocator, nlohmann::json_abi_v3_11_3::adl_serializer, std::__ndk1::vector<unsigned char, std::__ndk1::allocator<unsigned char> >, void> >, std::__ndk1::__tree_node<std::__ndk1::__value_type<std::__ndk1::basic_string<char, std::__ndk1::char_traits<char>, std::__ndk1::allocator<char> >, nlohmann::json_abi_v3_11_3::basic_json<std::__ndk1::map, std::__ndk1::vector, std::__ndk1::basic_string<char, std::__ndk1::char_traits<char>, std::__ndk1::allocator<char> >, bool, long, unsigned long, double, std::__ndk1::allocator, nlohmann::json_abi_v3_11_3::adl_serializer, std::__ndk1::vector<unsigned char, std::__ndk1::allocator<unsigned char> >, void> >, void*>*, long>)
PUBLIC af10c 0 nlohmann::json_abi_v3_11_3::detail::type_error::~type_error()
PUBLIC af144 0 std::__ndk1::__tree<std::__ndk1::__value_type<std::__ndk1::basic_string<char, std::__ndk1::char_traits<char>, std::__ndk1::allocator<char> >, nlohmann::json_abi_v3_11_3::basic_json<std::__ndk1::map, std::__ndk1::vector, std::__ndk1::basic_string<char, std::__ndk1::char_traits<char>, std::__ndk1::allocator<char> >, bool, long, unsigned long, double, std::__ndk1::allocator, nlohmann::json_abi_v3_11_3::adl_serializer, std::__ndk1::vector<unsigned char, std::__ndk1::allocator<unsigned char> >, void> >, std::__ndk1::__map_value_compare<std::__ndk1::basic_string<char, std::__ndk1::char_traits<char>, std::__ndk1::allocator<char> >, std::__ndk1::__value_type<std::__ndk1::basic_string<char, std::__ndk1::char_traits<char>, std::__ndk1::allocator<char> >, nlohmann::json_abi_v3_11_3::basic_json<std::__ndk1::map, std::__ndk1::vector, std::__ndk1::basic_string<char, std::__ndk1::char_traits<char>, std::__ndk1::allocator<char> >, bool, long, unsigned long, double, std::__ndk1::allocator, nlohmann::json_abi_v3_11_3::adl_serializer, std::__ndk1::vector<unsigned char, std::__ndk1::allocator<unsigned char> >, void> >, std::__ndk1::less<void>, true>, std::__ndk1::allocator<std::__ndk1::__value_type<std::__ndk1::basic_string<char, std::__ndk1::char_traits<char>, std::__ndk1::allocator<char> >, nlohmann::json_abi_v3_11_3::basic_json<std::__ndk1::map, std::__ndk1::vector, std::__ndk1::basic_string<char, std::__ndk1::char_traits<char>, std::__ndk1::allocator<char> >, bool, long, unsigned long, double, std::__ndk1::allocator, nlohmann::json_abi_v3_11_3::adl_serializer, std::__ndk1::vector<unsigned char, std::__ndk1::allocator<unsigned char> >, void> > > >::__emplace_unique_key_args<std::__ndk1::basic_string<char, std::__ndk1::char_traits<char>, std::__ndk1::allocator<char> >, std::__ndk1::piecewise_construct_t const&, std::__ndk1::tuple<std::__ndk1::basic_string<char, std::__ndk1::char_traits<char>, std::__ndk1::allocator<char> > const&>, std::__ndk1::tuple<> >(std::__ndk1::basic_string<char, std::__ndk1::char_traits<char>, std::__ndk1::allocator<char> > const&, std::__ndk1::piecewise_construct_t const&, std::__ndk1::tuple<std::__ndk1::basic_string<char, std::__ndk1::char_traits<char>, std::__ndk1::allocator<char> > const&>, std::__ndk1::tuple<>)
PUBLIC af33c 0 nlohmann::json_abi_v3_11_3::detail::concat<std::__ndk1::basic_string<char, std::__ndk1::char_traits<char>, std::__ndk1::allocator<char> >, char const (&) [23], std::__ndk1::basic_string<char, std::__ndk1::char_traits<char>, std::__ndk1::allocator<char> > >(char const (&) [23], std::__ndk1::basic_string<char, std::__ndk1::char_traits<char>, std::__ndk1::allocator<char> >)
PUBLIC af3ec 0 nlohmann::json_abi_v3_11_3::detail::out_of_range::out_of_range(nlohmann::json_abi_v3_11_3::detail::out_of_range const&)
PUBLIC af434 0 nlohmann::json_abi_v3_11_3::detail::json_sax_dom_callback_parser<nlohmann::json_abi_v3_11_3::basic_json<std::__ndk1::map, std::__ndk1::vector, std::__ndk1::basic_string<char, std::__ndk1::char_traits<char>, std::__ndk1::allocator<char> >, bool, long, unsigned long, double, std::__ndk1::allocator, nlohmann::json_abi_v3_11_3::adl_serializer, std::__ndk1::vector<unsigned char, std::__ndk1::allocator<unsigned char> >, void> >::handle_value<double&>(double&, bool)
PUBLIC af680 0 nlohmann::json_abi_v3_11_3::detail::json_sax_dom_callback_parser<nlohmann::json_abi_v3_11_3::basic_json<std::__ndk1::map, std::__ndk1::vector, std::__ndk1::basic_string<char, std::__ndk1::char_traits<char>, std::__ndk1::allocator<char> >, bool, long, unsigned long, double, std::__ndk1::allocator, nlohmann::json_abi_v3_11_3::adl_serializer, std::__ndk1::vector<unsigned char, std::__ndk1::allocator<unsigned char> >, void> >::handle_value<bool&>(bool&, bool)
PUBLIC af8c8 0 nlohmann::json_abi_v3_11_3::detail::json_sax_dom_callback_parser<nlohmann::json_abi_v3_11_3::basic_json<std::__ndk1::map, std::__ndk1::vector, std::__ndk1::basic_string<char, std::__ndk1::char_traits<char>, std::__ndk1::allocator<char> >, bool, long, unsigned long, double, std::__ndk1::allocator, nlohmann::json_abi_v3_11_3::adl_serializer, std::__ndk1::vector<unsigned char, std::__ndk1::allocator<unsigned char> >, void> >::handle_value<std::nullptr_t>(std::nullptr_t&&, bool)
PUBLIC afb0c 0 nlohmann::json_abi_v3_11_3::detail::json_sax_dom_callback_parser<nlohmann::json_abi_v3_11_3::basic_json<std::__ndk1::map, std::__ndk1::vector, std::__ndk1::basic_string<char, std::__ndk1::char_traits<char>, std::__ndk1::allocator<char> >, bool, long, unsigned long, double, std::__ndk1::allocator, nlohmann::json_abi_v3_11_3::adl_serializer, std::__ndk1::vector<unsigned char, std::__ndk1::allocator<unsigned char> >, void> >::handle_value<long&>(long&, bool)
PUBLIC afd50 0 nlohmann::json_abi_v3_11_3::detail::json_sax_dom_callback_parser<nlohmann::json_abi_v3_11_3::basic_json<std::__ndk1::map, std::__ndk1::vector, std::__ndk1::basic_string<char, std::__ndk1::char_traits<char>, std::__ndk1::allocator<char> >, bool, long, unsigned long, double, std::__ndk1::allocator, nlohmann::json_abi_v3_11_3::adl_serializer, std::__ndk1::vector<unsigned char, std::__ndk1::allocator<unsigned char> >, void> >::handle_value<std::__ndk1::basic_string<char, std::__ndk1::char_traits<char>, std::__ndk1::allocator<char> >&>(std::__ndk1::basic_string<char, std::__ndk1::char_traits<char>, std::__ndk1::allocator<char> >&, bool)
PUBLIC b0000 0 nlohmann::json_abi_v3_11_3::detail::json_sax_dom_callback_parser<nlohmann::json_abi_v3_11_3::basic_json<std::__ndk1::map, std::__ndk1::vector, std::__ndk1::basic_string<char, std::__ndk1::char_traits<char>, std::__ndk1::allocator<char> >, bool, long, unsigned long, double, std::__ndk1::allocator, nlohmann::json_abi_v3_11_3::adl_serializer, std::__ndk1::vector<unsigned char, std::__ndk1::allocator<unsigned char> >, void> >::handle_value<unsigned long&>(unsigned long&, bool)
PUBLIC b0248 0 nlohmann::json_abi_v3_11_3::detail::parse_error::parse_error(nlohmann::json_abi_v3_11_3::detail::parse_error const&)
PUBLIC b029c 0 nlohmann::json_abi_v3_11_3::detail::parse_error::~parse_error()
PUBLIC b02d4 0 snprintf(char*, unsigned long pass_object_size1, char const*, ...)
PUBLIC b0370 0 nlohmann::json_abi_v3_11_3::detail::concat<std::__ndk1::basic_string<char, std::__ndk1::char_traits<char>, std::__ndk1::allocator<char> >, std::__ndk1::basic_string<char, std::__ndk1::char_traits<char>, std::__ndk1::allocator<char> >, char const (&) [12], std::__ndk1::basic_string<char, std::__ndk1::char_traits<char>, std::__ndk1::allocator<char> >, char const (&) [3], std::__ndk1::basic_string<char, std::__ndk1::char_traits<char>, std::__ndk1::allocator<char> >, std::__ndk1::basic_string<char, std::__ndk1::char_traits<char>, std::__ndk1::allocator<char> > const&>(std::__ndk1::basic_string<char, std::__ndk1::char_traits<char>, std::__ndk1::allocator<char> >&&, char const (&) [12], std::__ndk1::basic_string<char, std::__ndk1::char_traits<char>, std::__ndk1::allocator<char> >, char const (&) [3], std::__ndk1::basic_string<char, std::__ndk1::char_traits<char>, std::__ndk1::allocator<char> >, std::__ndk1::basic_string<char, std::__ndk1::char_traits<char>, std::__ndk1::allocator<char> > const&)
PUBLIC b052c 0 nlohmann::json_abi_v3_11_3::detail::parse_error::position_string(nlohmann::json_abi_v3_11_3::detail::position_t const&)
PUBLIC b0658 0 nlohmann::json_abi_v3_11_3::detail::concat<std::__ndk1::basic_string<char, std::__ndk1::char_traits<char>, std::__ndk1::allocator<char> >, char const (&) [10], std::__ndk1::basic_string<char, std::__ndk1::char_traits<char>, std::__ndk1::allocator<char> >, char const (&) [10], std::__ndk1::basic_string<char, std::__ndk1::char_traits<char>, std::__ndk1::allocator<char> > >(char const (&) [10], std::__ndk1::basic_string<char, std::__ndk1::char_traits<char>, std::__ndk1::allocator<char> >, char const (&) [10], std::__ndk1::basic_string<char, std::__ndk1::char_traits<char>, std::__ndk1::allocator<char> >)
PUBLIC b0784 0 nlohmann::json_abi_v3_11_3::detail::concat<std::__ndk1::basic_string<char, std::__ndk1::char_traits<char>, std::__ndk1::allocator<char> >, char const (&) [15], std::__ndk1::basic_string<char, std::__ndk1::char_traits<char>, std::__ndk1::allocator<char> > const&, char>(char const (&) [15], std::__ndk1::basic_string<char, std::__ndk1::char_traits<char>, std::__ndk1::allocator<char> > const&, char)
PUBLIC b0848 0 nlohmann::json_abi_v3_11_3::detail::concat<std::__ndk1::basic_string<char, std::__ndk1::char_traits<char>, std::__ndk1::allocator<char> >, char const*, char const (&) [15], std::__ndk1::basic_string<char, std::__ndk1::char_traits<char>, std::__ndk1::allocator<char> >, char>(char const*, char const (&) [15], std::__ndk1::basic_string<char, std::__ndk1::char_traits<char>, std::__ndk1::allocator<char> >, char)
PUBLIC b094c 0 nlohmann::json_abi_v3_11_3::detail::json_sax_dom_parser<nlohmann::json_abi_v3_11_3::basic_json<std::__ndk1::map, std::__ndk1::vector, std::__ndk1::basic_string<char, std::__ndk1::char_traits<char>, std::__ndk1::allocator<char> >, bool, long, unsigned long, double, std::__ndk1::allocator, nlohmann::json_abi_v3_11_3::adl_serializer, std::__ndk1::vector<unsigned char, std::__ndk1::allocator<unsigned char> >, void> >::start_object(unsigned long)
PUBLIC b0c50 0 nlohmann::json_abi_v3_11_3::detail::json_sax_dom_parser<nlohmann::json_abi_v3_11_3::basic_json<std::__ndk1::map, std::__ndk1::vector, std::__ndk1::basic_string<char, std::__ndk1::char_traits<char>, std::__ndk1::allocator<char> >, bool, long, unsigned long, double, std::__ndk1::allocator, nlohmann::json_abi_v3_11_3::adl_serializer, std::__ndk1::vector<unsigned char, std::__ndk1::allocator<unsigned char> >, void> >::start_array(unsigned long)
PUBLIC b0f54 0 nlohmann::json_abi_v3_11_3::detail::json_sax_dom_parser<nlohmann::json_abi_v3_11_3::basic_json<std::__ndk1::map, std::__ndk1::vector, std::__ndk1::basic_string<char, std::__ndk1::char_traits<char>, std::__ndk1::allocator<char> >, bool, long, unsigned long, double, std::__ndk1::allocator, nlohmann::json_abi_v3_11_3::adl_serializer, std::__ndk1::vector<unsigned char, std::__ndk1::allocator<unsigned char> >, void> >::parse_error<nlohmann::json_abi_v3_11_3::detail::out_of_range>(unsigned long, std::__ndk1::basic_string<char, std::__ndk1::char_traits<char>, std::__ndk1::allocator<char> > const&, nlohmann::json_abi_v3_11_3::detail::out_of_range const&)
PUBLIC b0fa8 0 nlohmann::json_abi_v3_11_3::detail::json_sax_dom_parser<nlohmann::json_abi_v3_11_3::basic_json<std::__ndk1::map, std::__ndk1::vector, std::__ndk1::basic_string<char, std::__ndk1::char_traits<char>, std::__ndk1::allocator<char> >, bool, long, unsigned long, double, std::__ndk1::allocator, nlohmann::json_abi_v3_11_3::adl_serializer, std::__ndk1::vector<unsigned char, std::__ndk1::allocator<unsigned char> >, void> >::handle_value<nlohmann::json_abi_v3_11_3::detail::value_t>(nlohmann::json_abi_v3_11_3::detail::value_t&&)
PUBLIC b110c 0 std::__ndk1::vector<nlohmann::json_abi_v3_11_3::basic_json<std::__ndk1::map, std::__ndk1::vector, std::__ndk1::basic_string<char, std::__ndk1::char_traits<char>, std::__ndk1::allocator<char> >, bool, long, unsigned long, double, std::__ndk1::allocator, nlohmann::json_abi_v3_11_3::adl_serializer, std::__ndk1::vector<unsigned char, std::__ndk1::allocator<unsigned char> >, void>, std::__ndk1::allocator<nlohmann::json_abi_v3_11_3::basic_json<std::__ndk1::map, std::__ndk1::vector, std::__ndk1::basic_string<char, std::__ndk1::char_traits<char>, std::__ndk1::allocator<char> >, bool, long, unsigned long, double, std::__ndk1::allocator, nlohmann::json_abi_v3_11_3::adl_serializer, std::__ndk1::vector<unsigned char, std::__ndk1::allocator<unsigned char> >, void> > >::__emplace_back_slow_path<nlohmann::json_abi_v3_11_3::detail::value_t>(nlohmann::json_abi_v3_11_3::detail::value_t&&)
PUBLIC b12c0 0 nlohmann::json_abi_v3_11_3::detail::json_sax_dom_parser<nlohmann::json_abi_v3_11_3::basic_json<std::__ndk1::map, std::__ndk1::vector, std::__ndk1::basic_string<char, std::__ndk1::char_traits<char>, std::__ndk1::allocator<char> >, bool, long, unsigned long, double, std::__ndk1::allocator, nlohmann::json_abi_v3_11_3::adl_serializer, std::__ndk1::vector<unsigned char, std::__ndk1::allocator<unsigned char> >, void> >::handle_value<double&>(double&)
PUBLIC b13f4 0 std::__ndk1::vector<nlohmann::json_abi_v3_11_3::basic_json<std::__ndk1::map, std::__ndk1::vector, std::__ndk1::basic_string<char, std::__ndk1::char_traits<char>, std::__ndk1::allocator<char> >, bool, long, unsigned long, double, std::__ndk1::allocator, nlohmann::json_abi_v3_11_3::adl_serializer, std::__ndk1::vector<unsigned char, std::__ndk1::allocator<unsigned char> >, void>, std::__ndk1::allocator<nlohmann::json_abi_v3_11_3::basic_json<std::__ndk1::map, std::__ndk1::vector, std::__ndk1::basic_string<char, std::__ndk1::char_traits<char>, std::__ndk1::allocator<char> >, bool, long, unsigned long, double, std::__ndk1::allocator, nlohmann::json_abi_v3_11_3::adl_serializer, std::__ndk1::vector<unsigned char, std::__ndk1::allocator<unsigned char> >, void> > >::__emplace_back_slow_path<double&>(double&)
PUBLIC b1510 0 nlohmann::json_abi_v3_11_3::detail::json_sax_dom_parser<nlohmann::json_abi_v3_11_3::basic_json<std::__ndk1::map, std::__ndk1::vector, std::__ndk1::basic_string<char, std::__ndk1::char_traits<char>, std::__ndk1::allocator<char> >, bool, long, unsigned long, double, std::__ndk1::allocator, nlohmann::json_abi_v3_11_3::adl_serializer, std::__ndk1::vector<unsigned char, std::__ndk1::allocator<unsigned char> >, void> >::handle_value<bool&>(bool&)
PUBLIC b1644 0 std::__ndk1::vector<nlohmann::json_abi_v3_11_3::basic_json<std::__ndk1::map, std::__ndk1::vector, std::__ndk1::basic_string<char, std::__ndk1::char_traits<char>, std::__ndk1::allocator<char> >, bool, long, unsigned long, double, std::__ndk1::allocator, nlohmann::json_abi_v3_11_3::adl_serializer, std::__ndk1::vector<unsigned char, std::__ndk1::allocator<unsigned char> >, void>, std::__ndk1::allocator<nlohmann::json_abi_v3_11_3::basic_json<std::__ndk1::map, std::__ndk1::vector, std::__ndk1::basic_string<char, std::__ndk1::char_traits<char>, std::__ndk1::allocator<char> >, bool, long, unsigned long, double, std::__ndk1::allocator, nlohmann::json_abi_v3_11_3::adl_serializer, std::__ndk1::vector<unsigned char, std::__ndk1::allocator<unsigned char> >, void> > >::__emplace_back_slow_path<bool&>(bool&)
PUBLIC b175c 0 nlohmann::json_abi_v3_11_3::detail::json_sax_dom_parser<nlohmann::json_abi_v3_11_3::basic_json<std::__ndk1::map, std::__ndk1::vector, std::__ndk1::basic_string<char, std::__ndk1::char_traits<char>, std::__ndk1::allocator<char> >, bool, long, unsigned long, double, std::__ndk1::allocator, nlohmann::json_abi_v3_11_3::adl_serializer, std::__ndk1::vector<unsigned char, std::__ndk1::allocator<unsigned char> >, void> >::handle_value<std::nullptr_t>(std::nullptr_t&&)
PUBLIC b186c 0 std::__ndk1::vector<nlohmann::json_abi_v3_11_3::basic_json<std::__ndk1::map, std::__ndk1::vector, std::__ndk1::basic_string<char, std::__ndk1::char_traits<char>, std::__ndk1::allocator<char> >, bool, long, unsigned long, double, std::__ndk1::allocator, nlohmann::json_abi_v3_11_3::adl_serializer, std::__ndk1::vector<unsigned char, std::__ndk1::allocator<unsigned char> >, void>, std::__ndk1::allocator<nlohmann::json_abi_v3_11_3::basic_json<std::__ndk1::map, std::__ndk1::vector, std::__ndk1::basic_string<char, std::__ndk1::char_traits<char>, std::__ndk1::allocator<char> >, bool, long, unsigned long, double, std::__ndk1::allocator, nlohmann::json_abi_v3_11_3::adl_serializer, std::__ndk1::vector<unsigned char, std::__ndk1::allocator<unsigned char> >, void> > >::__emplace_back_slow_path<std::nullptr_t>(std::nullptr_t&&)
PUBLIC b197c 0 nlohmann::json_abi_v3_11_3::detail::json_sax_dom_parser<nlohmann::json_abi_v3_11_3::basic_json<std::__ndk1::map, std::__ndk1::vector, std::__ndk1::basic_string<char, std::__ndk1::char_traits<char>, std::__ndk1::allocator<char> >, bool, long, unsigned long, double, std::__ndk1::allocator, nlohmann::json_abi_v3_11_3::adl_serializer, std::__ndk1::vector<unsigned char, std::__ndk1::allocator<unsigned char> >, void> >::handle_value<long&>(long&)
PUBLIC b1ab0 0 std::__ndk1::vector<nlohmann::json_abi_v3_11_3::basic_json<std::__ndk1::map, std::__ndk1::vector, std::__ndk1::basic_string<char, std::__ndk1::char_traits<char>, std::__ndk1::allocator<char> >, bool, long, unsigned long, double, std::__ndk1::allocator, nlohmann::json_abi_v3_11_3::adl_serializer, std::__ndk1::vector<unsigned char, std::__ndk1::allocator<unsigned char> >, void>, std::__ndk1::allocator<nlohmann::json_abi_v3_11_3::basic_json<std::__ndk1::map, std::__ndk1::vector, std::__ndk1::basic_string<char, std::__ndk1::char_traits<char>, std::__ndk1::allocator<char> >, bool, long, unsigned long, double, std::__ndk1::allocator, nlohmann::json_abi_v3_11_3::adl_serializer, std::__ndk1::vector<unsigned char, std::__ndk1::allocator<unsigned char> >, void> > >::__emplace_back_slow_path<long&>(long&)
PUBLIC b1bc8 0 nlohmann::json_abi_v3_11_3::detail::json_sax_dom_parser<nlohmann::json_abi_v3_11_3::basic_json<std::__ndk1::map, std::__ndk1::vector, std::__ndk1::basic_string<char, std::__ndk1::char_traits<char>, std::__ndk1::allocator<char> >, bool, long, unsigned long, double, std::__ndk1::allocator, nlohmann::json_abi_v3_11_3::adl_serializer, std::__ndk1::vector<unsigned char, std::__ndk1::allocator<unsigned char> >, void> >::handle_value<std::__ndk1::basic_string<char, std::__ndk1::char_traits<char>, std::__ndk1::allocator<char> >&>(std::__ndk1::basic_string<char, std::__ndk1::char_traits<char>, std::__ndk1::allocator<char> >&)
PUBLIC b1e3c 0 std::__ndk1::vector<nlohmann::json_abi_v3_11_3::basic_json<std::__ndk1::map, std::__ndk1::vector, std::__ndk1::basic_string<char, std::__ndk1::char_traits<char>, std::__ndk1::allocator<char> >, bool, long, unsigned long, double, std::__ndk1::allocator, nlohmann::json_abi_v3_11_3::adl_serializer, std::__ndk1::vector<unsigned char, std::__ndk1::allocator<unsigned char> >, void>, std::__ndk1::allocator<nlohmann::json_abi_v3_11_3::basic_json<std::__ndk1::map, std::__ndk1::vector, std::__ndk1::basic_string<char, std::__ndk1::char_traits<char>, std::__ndk1::allocator<char> >, bool, long, unsigned long, double, std::__ndk1::allocator, nlohmann::json_abi_v3_11_3::adl_serializer, std::__ndk1::vector<unsigned char, std::__ndk1::allocator<unsigned char> >, void> > >::__emplace_back_slow_path<std::__ndk1::basic_string<char, std::__ndk1::char_traits<char>, std::__ndk1::allocator<char> >&>(std::__ndk1::basic_string<char, std::__ndk1::char_traits<char>, std::__ndk1::allocator<char> >&)
PUBLIC b204c 0 nlohmann::json_abi_v3_11_3::detail::json_sax_dom_parser<nlohmann::json_abi_v3_11_3::basic_json<std::__ndk1::map, std::__ndk1::vector, std::__ndk1::basic_string<char, std::__ndk1::char_traits<char>, std::__ndk1::allocator<char> >, bool, long, unsigned long, double, std::__ndk1::allocator, nlohmann::json_abi_v3_11_3::adl_serializer, std::__ndk1::vector<unsigned char, std::__ndk1::allocator<unsigned char> >, void> >::handle_value<unsigned long&>(unsigned long&)
PUBLIC b2180 0 std::__ndk1::vector<nlohmann::json_abi_v3_11_3::basic_json<std::__ndk1::map, std::__ndk1::vector, std::__ndk1::basic_string<char, std::__ndk1::char_traits<char>, std::__ndk1::allocator<char> >, bool, long, unsigned long, double, std::__ndk1::allocator, nlohmann::json_abi_v3_11_3::adl_serializer, std::__ndk1::vector<unsigned char, std::__ndk1::allocator<unsigned char> >, void>, std::__ndk1::allocator<nlohmann::json_abi_v3_11_3::basic_json<std::__ndk1::map, std::__ndk1::vector, std::__ndk1::basic_string<char, std::__ndk1::char_traits<char>, std::__ndk1::allocator<char> >, bool, long, unsigned long, double, std::__ndk1::allocator, nlohmann::json_abi_v3_11_3::adl_serializer, std::__ndk1::vector<unsigned char, std::__ndk1::allocator<unsigned char> >, void> > >::__emplace_back_slow_path<unsigned long&>(unsigned long&)
PUBLIC b2298 0 std::__ndk1::__tree<std::__ndk1::__value_type<std::__ndk1::basic_string<char, std::__ndk1::char_traits<char>, std::__ndk1::allocator<char> >, nlohmann::json_abi_v3_11_3::basic_json<std::__ndk1::map, std::__ndk1::vector, std::__ndk1::basic_string<char, std::__ndk1::char_traits<char>, std::__ndk1::allocator<char> >, bool, long, unsigned long, double, std::__ndk1::allocator, nlohmann::json_abi_v3_11_3::adl_serializer, std::__ndk1::vector<unsigned char, std::__ndk1::allocator<unsigned char> >, void> >, std::__ndk1::__map_value_compare<std::__ndk1::basic_string<char, std::__ndk1::char_traits<char>, std::__ndk1::allocator<char> >, std::__ndk1::__value_type<std::__ndk1::basic_string<char, std::__ndk1::char_traits<char>, std::__ndk1::allocator<char> >, nlohmann::json_abi_v3_11_3::basic_json<std::__ndk1::map, std::__ndk1::vector, std::__ndk1::basic_string<char, std::__ndk1::char_traits<char>, std::__ndk1::allocator<char> >, bool, long, unsigned long, double, std::__ndk1::allocator, nlohmann::json_abi_v3_11_3::adl_serializer, std::__ndk1::vector<unsigned char, std::__ndk1::allocator<unsigned char> >, void> >, std::__ndk1::less<void>, true>, std::__ndk1::allocator<std::__ndk1::__value_type<std::__ndk1::basic_string<char, std::__ndk1::char_traits<char>, std::__ndk1::allocator<char> >, nlohmann::json_abi_v3_11_3::basic_json<std::__ndk1::map, std::__ndk1::vector, std::__ndk1::basic_string<char, std::__ndk1::char_traits<char>, std::__ndk1::allocator<char> >, bool, long, unsigned long, double, std::__ndk1::allocator, nlohmann::json_abi_v3_11_3::adl_serializer, std::__ndk1::vector<unsigned char, std::__ndk1::allocator<unsigned char> >, void> > > >::find<char [10]>(char const (&) [10])
PUBLIC b23f8 0 nlohmann::json_abi_v3_11_3::basic_json<std::__ndk1::map, std::__ndk1::vector, std::__ndk1::basic_string<char, std::__ndk1::char_traits<char>, std::__ndk1::allocator<char> >, bool, long, unsigned long, double, std::__ndk1::allocator, nlohmann::json_abi_v3_11_3::adl_serializer, std::__ndk1::vector<unsigned char, std::__ndk1::allocator<unsigned char> >, void>::operator[](std::__ndk1::basic_string<char, std::__ndk1::char_traits<char>, std::__ndk1::allocator<char> >)
PUBLIC b255c 0 nlohmann::json_abi_v3_11_3::detail::concat<std::__ndk1::basic_string<char, std::__ndk1::char_traits<char>, std::__ndk1::allocator<char> >, char const (&) [51], char const*>(char const (&) [51], char const*)
PUBLIC b2604 0 std::__ndk1::__tree<std::__ndk1::__value_type<std::__ndk1::basic_string<char, std::__ndk1::char_traits<char>, std::__ndk1::allocator<char> >, nlohmann::json_abi_v3_11_3::basic_json<std::__ndk1::map, std::__ndk1::vector, std::__ndk1::basic_string<char, std::__ndk1::char_traits<char>, std::__ndk1::allocator<char> >, bool, long, unsigned long, double, std::__ndk1::allocator, nlohmann::json_abi_v3_11_3::adl_serializer, std::__ndk1::vector<unsigned char, std::__ndk1::allocator<unsigned char> >, void> >, std::__ndk1::__map_value_compare<std::__ndk1::basic_string<char, std::__ndk1::char_traits<char>, std::__ndk1::allocator<char> >, std::__ndk1::__value_type<std::__ndk1::basic_string<char, std::__ndk1::char_traits<char>, std::__ndk1::allocator<char> >, nlohmann::json_abi_v3_11_3::basic_json<std::__ndk1::map, std::__ndk1::vector, std::__ndk1::basic_string<char, std::__ndk1::char_traits<char>, std::__ndk1::allocator<char> >, bool, long, unsigned long, double, std::__ndk1::allocator, nlohmann::json_abi_v3_11_3::adl_serializer, std::__ndk1::vector<unsigned char, std::__ndk1::allocator<unsigned char> >, void> >, std::__ndk1::less<void>, true>, std::__ndk1::allocator<std::__ndk1::__value_type<std::__ndk1::basic_string<char, std::__ndk1::char_traits<char>, std::__ndk1::allocator<char> >, nlohmann::json_abi_v3_11_3::basic_json<std::__ndk1::map, std::__ndk1::vector, std::__ndk1::basic_string<char, std::__ndk1::char_traits<char>, std::__ndk1::allocator<char> >, bool, long, unsigned long, double, std::__ndk1::allocator, nlohmann::json_abi_v3_11_3::adl_serializer, std::__ndk1::vector<unsigned char, std::__ndk1::allocator<unsigned char> >, void> > > >::__emplace_unique_key_args<std::__ndk1::basic_string<char, std::__ndk1::char_traits<char>, std::__ndk1::allocator<char> >, std::__ndk1::basic_string<char, std::__ndk1::char_traits<char>, std::__ndk1::allocator<char> >, std::nullptr_t>(std::__ndk1::basic_string<char, std::__ndk1::char_traits<char>, std::__ndk1::allocator<char> > const&, std::__ndk1::basic_string<char, std::__ndk1::char_traits<char>, std::__ndk1::allocator<char> >&&, std::nullptr_t)
PUBLIC b277c 0 nlohmann::json_abi_v3_11_3::operator==(nlohmann::json_abi_v3_11_3::basic_json<std::__ndk1::map, std::__ndk1::vector, std::__ndk1::basic_string<char, std::__ndk1::char_traits<char>, std::__ndk1::allocator<char> >, bool, long, unsigned long, double, std::__ndk1::allocator, nlohmann::json_abi_v3_11_3::adl_serializer, std::__ndk1::vector<unsigned char, std::__ndk1::allocator<unsigned char> >, void> const&, nlohmann::json_abi_v3_11_3::basic_json<std::__ndk1::map, std::__ndk1::vector, std::__ndk1::basic_string<char, std::__ndk1::char_traits<char>, std::__ndk1::allocator<char> >, bool, long, unsigned long, double, std::__ndk1::allocator, nlohmann::json_abi_v3_11_3::adl_serializer, std::__ndk1::vector<unsigned char, std::__ndk1::allocator<unsigned char> >, void> const&)
PUBLIC b2bc4 0 std::__ndk1::uniform_int_distribution<int>::operator()<std::__ndk1::mersenne_twister_engine<unsigned long, (unsigned long)32, (unsigned long)624, (unsigned long)397, (unsigned long)31, (unsigned long)2567483615, (unsigned long)11, (unsigned long)4294967295, (unsigned long)7, (unsigned long)2636928640, (unsigned long)15, (unsigned long)4022730752, (unsigned long)18, (unsigned long)1812433253> >(std::__ndk1::mersenne_twister_engine<unsigned long, (unsigned long)32, (unsigned long)624, (unsigned long)397, (unsigned long)31, (unsigned long)2567483615, (unsigned long)11, (unsigned long)4294967295, (unsigned long)7, (unsigned long)2636928640, (unsigned long)15, (unsigned long)4022730752, (unsigned long)18, (unsigned long)1812433253>&, std::__ndk1::uniform_int_distribution<int>::param_type const&)
PUBLIC b2d0c 0 std::__ndk1::__independent_bits_engine<std::__ndk1::mersenne_twister_engine<unsigned long, (unsigned long)32, (unsigned long)624, (unsigned long)397, (unsigned long)31, (unsigned long)2567483615, (unsigned long)11, (unsigned long)4294967295, (unsigned long)7, (unsigned long)2636928640, (unsigned long)15, (unsigned long)4022730752, (unsigned long)18, (unsigned long)1812433253>, unsigned int>::__eval(std::__ndk1::integral_constant<bool, true>)
PUBLIC b2f0c 0 geode::Mod::setSavedValue<std::__ndk1::basic_string<char, std::__ndk1::char_traits<char>, std::__ndk1::allocator<char> > >(std::__ndk1::basic_string_view<char, std::__ndk1::char_traits<char> >, std::__ndk1::basic_string<char, std::__ndk1::char_traits<char>, std::__ndk1::allocator<char> > const&)
PUBLIC b306c 0 geode::Mod::setSettingValue<std::__ndk1::__fs::filesystem::path>(std::__ndk1::basic_string_view<char, std::__ndk1::char_traits<char> >, std::__ndk1::__fs::filesystem::path const&)
PUBLIC b32e0 0 geode::Mod::setSavedValue<cocos2d::_ccColor3B>(std::__ndk1::basic_string_view<char, std::__ndk1::char_traits<char> >, cocos2d::_ccColor3B const&)
PUBLIC b33c4 0 geode::Mod::getSavedValue<double>(std::__ndk1::basic_string_view<char, std::__ndk1::char_traits<char> >)
PUBLIC b3554 0 geode::Mod::getSavedValue<long>(std::__ndk1::basic_string_view<char, std::__ndk1::char_traits<char> >)
PUBLIC b36d8 0 geode::Mod::getSettingValue<long>(std::__ndk1::basic_string_view<char, std::__ndk1::char_traits<char> >) const
PUBLIC b37f0 0 geode::Mod::getSettingValue<std::__ndk1::basic_string<char, std::__ndk1::char_traits<char>, std::__ndk1::allocator<char> > >(std::__ndk1::basic_string_view<char, std::__ndk1::char_traits<char> >) const
PUBLIC b3994 0 std::__ndk1::shared_ptr<geode::FileSettingV3>::~shared_ptr[abi:ne180000]()
PUBLIC b39e4 0 geode::impl::ResultData<void, std::__ndk1::basic_string<char, std::__ndk1::char_traits<char>, std::__ndk1::allocator<char> > >::~ResultData()
PUBLIC b3a58 0 std::__ndk1::__variant_detail::__visitation::__base::__dispatcher<(unsigned long)0>::__dispatch[abi:ne180000]<std::__ndk1::__variant_detail::__dtor<std::__ndk1::__variant_detail::__traits<std::__ndk1::monostate, std::__ndk1::basic_string<char, std::__ndk1::char_traits<char>, std::__ndk1::allocator<char> > >, (std::__ndk1::__variant_detail::_Trait)1>::__destroy[abi:ne180000]()::{lambda(auto:1&)#1}, std::__ndk1::__variant_detail::__base<(std::__ndk1::__variant_detail::__traits<std::__ndk1::monostate, std::__ndk1::basic_string<char, std::__ndk1::char_traits<char>, std::__ndk1::allocator<char> > >)1, std::__ndk1::__variant_detail::__traits, std::__ndk1::allocator<char> >&>(std::__ndk1::__variant_detail::__dtor<std::__ndk1::__variant_detail::__traits<std::__ndk1::monostate, std::__ndk1::basic_string<char, std::__ndk1::char_traits<char>, std::__ndk1::allocator<char> > >, (std::__ndk1::__variant_detail::_Trait)1>, std::__ndk1::__variant_detail::__base<(std::__ndk1::__variant_detail::__traits<std::__ndk1::monostate, std::__ndk1::basic_string<char, std::__ndk1::char_traits<char>, std::__ndk1::allocator<char> > >)1, std::__ndk1::__variant_detail::__traits, std::__ndk1::allocator<char> >&)
PUBLIC b3a5c 0 std::__ndk1::__variant_detail::__visitation::__base::__dispatcher<(unsigned long)1>::__dispatch[abi:ne180000]<std::__ndk1::__variant_detail::__dtor<std::__ndk1::__variant_detail::__traits<std::__ndk1::monostate, std::__ndk1::basic_string<char, std::__ndk1::char_traits<char>, std::__ndk1::allocator<char> > >, (std::__ndk1::__variant_detail::_Trait)1>::__destroy[abi:ne180000]()::{lambda(auto:1&)#1}, std::__ndk1::__variant_detail::__base<(std::__ndk1::__variant_detail::__traits<std::__ndk1::monostate, std::__ndk1::basic_string<char, std::__ndk1::char_traits<char>, std::__ndk1::allocator<char> > >)1, std::__ndk1::__variant_detail::__traits, std::__ndk1::allocator<char> >&>(std::__ndk1::__variant_detail::__dtor<std::__ndk1::__variant_detail::__traits<std::__ndk1::monostate, std::__ndk1::basic_string<char, std::__ndk1::char_traits<char>, std::__ndk1::allocator<char> > >, (std::__ndk1::__variant_detail::_Trait)1>, std::__ndk1::__variant_detail::__base<(std::__ndk1::__variant_detail::__traits<std::__ndk1::monostate, std::__ndk1::basic_string<char, std::__ndk1::char_traits<char>, std::__ndk1::allocator<char> > >)1, std::__ndk1::__variant_detail::__traits, std::__ndk1::allocator<char> >&)
PUBLIC b3a70 0 geode::Mod::getSavedValue<float>(std::__ndk1::basic_string_view<char, std::__ndk1::char_traits<char> >)
PUBLIC b3c00 0 matjson::Value::as<float>() const
PUBLIC b3d08 0 std::__ndk1::__variant_detail::__visitation::__base::__dispatcher<(unsigned long)0>::__dispatch[abi:ne180000]<std::__ndk1::__variant_detail::__dtor<std::__ndk1::__variant_detail::__traits<double, std::__ndk1::basic_string<char, std::__ndk1::char_traits<char>, std::__ndk1::allocator<char> > >, (std::__ndk1::__variant_detail::_Trait)1>::__destroy[abi:ne180000]()::{lambda(auto:1&)#1}, std::__ndk1::__variant_detail::__base<(std::__ndk1::__variant_detail::__traits<double, std::__ndk1::basic_string<char, std::__ndk1::char_traits<char>, std::__ndk1::allocator<char> > >)1, double, std::__ndk1::allocator<char> >&>(std::__ndk1::__variant_detail::__dtor<std::__ndk1::__variant_detail::__traits<double, std::__ndk1::basic_string<char, std::__ndk1::char_traits<char>, std::__ndk1::allocator<char> > >, (std::__ndk1::__variant_detail::_Trait)1>, std::__ndk1::__variant_detail::__base<(std::__ndk1::__variant_detail::__traits<double, std::__ndk1::basic_string<char, std::__ndk1::char_traits<char>, std::__ndk1::allocator<char> > >)1, double, std::__ndk1::allocator<char> >&)
PUBLIC b3d0c 0 std::__ndk1::__variant_detail::__visitation::__base::__dispatcher<(unsigned long)1>::__dispatch[abi:ne180000]<std::__ndk1::__variant_detail::__dtor<std::__ndk1::__variant_detail::__traits<double, std::__ndk1::basic_string<char, std::__ndk1::char_traits<char>, std::__ndk1::allocator<char> > >, (std::__ndk1::__variant_detail::_Trait)1>::__destroy[abi:ne180000]()::{lambda(auto:1&)#1}, std::__ndk1::__variant_detail::__base<(std::__ndk1::__variant_detail::__traits<double, std::__ndk1::basic_string<char, std::__ndk1::char_traits<char>, std::__ndk1::allocator<char> > >)1, double, std::__ndk1::allocator<char> >&>(std::__ndk1::__variant_detail::__dtor<std::__ndk1::__variant_detail::__traits<double, std::__ndk1::basic_string<char, std::__ndk1::char_traits<char>, std::__ndk1::allocator<char> > >, (std::__ndk1::__variant_detail::_Trait)1>, std::__ndk1::__variant_detail::__base<(std::__ndk1::__variant_detail::__traits<double, std::__ndk1::basic_string<char, std::__ndk1::char_traits<char>, std::__ndk1::allocator<char> > >)1, double, std::__ndk1::allocator<char> >&)
PUBLIC b3d20 0 geode::Mod::getSavedValue<int>(std::__ndk1::basic_string_view<char, std::__ndk1::char_traits<char> >)
PUBLIC b3ea4 0 matjson::Value::as<int>() const
PUBLIC b3fa8 0 std::__ndk1::__variant_detail::__visitation::__base::__dispatcher<(unsigned long)0>::__dispatch[abi:ne180000]<std::__ndk1::__variant_detail::__dtor<std::__ndk1::__variant_detail::__traits<int, std::__ndk1::basic_string<char, std::__ndk1::char_traits<char>, std::__ndk1::allocator<char> > >, (std::__ndk1::__variant_detail::_Trait)1>::__destroy[abi:ne180000]()::{lambda(auto:1&)#1}, std::__ndk1::__variant_detail::__base<(std::__ndk1::__variant_detail::__traits<int, std::__ndk1::basic_string<char, std::__ndk1::char_traits<char>, std::__ndk1::allocator<char> > >)1, int, std::__ndk1::allocator<char> >&>(std::__ndk1::__variant_detail::__dtor<std::__ndk1::__variant_detail::__traits<int, std::__ndk1::basic_string<char, std::__ndk1::char_traits<char>, std::__ndk1::allocator<char> > >, (std::__ndk1::__variant_detail::_Trait)1>, std::__ndk1::__variant_detail::__base<(std::__ndk1::__variant_detail::__traits<int, std::__ndk1::basic_string<char, std::__ndk1::char_traits<char>, std::__ndk1::allocator<char> > >)1, int, std::__ndk1::allocator<char> >&)
PUBLIC b3fac 0 std::__ndk1::__variant_detail::__visitation::__base::__dispatcher<(unsigned long)1>::__dispatch[abi:ne180000]<std::__ndk1::__variant_detail::__dtor<std::__ndk1::__variant_detail::__traits<int, std::__ndk1::basic_string<char, std::__ndk1::char_traits<char>, std::__ndk1::allocator<char> > >, (std::__ndk1::__variant_detail::_Trait)1>::__destroy[abi:ne180000]()::{lambda(auto:1&)#1}, std::__ndk1::__variant_detail::__base<(std::__ndk1::__variant_detail::__traits<int, std::__ndk1::basic_string<char, std::__ndk1::char_traits<char>, std::__ndk1::allocator<char> > >)1, int, std::__ndk1::allocator<char> >&>(std::__ndk1::__variant_detail::__dtor<std::__ndk1::__variant_detail::__traits<int, std::__ndk1::basic_string<char, std::__ndk1::char_traits<char>, std::__ndk1::allocator<char> > >, (std::__ndk1::__variant_detail::_Trait)1>, std::__ndk1::__variant_detail::__base<(std::__ndk1::__variant_detail::__traits<int, std::__ndk1::basic_string<char, std::__ndk1::char_traits<char>, std::__ndk1::allocator<char> > >)1, int, std::__ndk1::allocator<char> >&)
PUBLIC b3fc0 0 geode::Mod::getSavedValue<cocos2d::_ccColor3B>(std::__ndk1::basic_string_view<char, std::__ndk1::char_traits<char> >)
PUBLIC b414c 0 std::__ndk1::__variant_detail::__visitation::__base::__dispatcher<(unsigned long)0>::__dispatch[abi:ne180000]<std::__ndk1::__variant_detail::__dtor<std::__ndk1::__variant_detail::__traits<cocos2d::_ccColor3B, std::__ndk1::basic_string<char, std::__ndk1::char_traits<char>, std::__ndk1::allocator<char> > >, (std::__ndk1::__variant_detail::_Trait)1>::__destroy[abi:ne180000]()::{lambda(auto:1&)#1}, std::__ndk1::__variant_detail::__base<(std::__ndk1::__variant_detail::__traits<cocos2d::_ccColor3B, std::__ndk1::basic_string<char, std::__ndk1::char_traits<char>, std::__ndk1::allocator<char> > >)1, cocos2d, std::__ndk1::allocator<char> >&>(std::__ndk1::__variant_detail::__dtor<std::__ndk1::__variant_detail::__traits<cocos2d::_ccColor3B, std::__ndk1::basic_string<char, std::__ndk1::char_traits<char>, std::__ndk1::allocator<char> > >, (std::__ndk1::__variant_detail::_Trait)1>, std::__ndk1::__variant_detail::__base<(std::__ndk1::__variant_detail::__traits<cocos2d::_ccColor3B, std::__ndk1::basic_string<char, std::__ndk1::char_traits<char>, std::__ndk1::allocator<char> > >)1, cocos2d, std::__ndk1::allocator<char> >&)
PUBLIC b4150 0 std::__ndk1::__variant_detail::__visitation::__base::__dispatcher<(unsigned long)1>::__dispatch[abi:ne180000]<std::__ndk1::__variant_detail::__dtor<std::__ndk1::__variant_detail::__traits<cocos2d::_ccColor3B, std::__ndk1::basic_string<char, std::__ndk1::char_traits<char>, std::__ndk1::allocator<char> > >, (std::__ndk1::__variant_detail::_Trait)1>::__destroy[abi:ne180000]()::{lambda(auto:1&)#1}, std::__ndk1::__variant_detail::__base<(std::__ndk1::__variant_detail::__traits<cocos2d::_ccColor3B, std::__ndk1::basic_string<char, std::__ndk1::char_traits<char>, std::__ndk1::allocator<char> > >)1, cocos2d, std::__ndk1::allocator<char> >&>(std::__ndk1::__variant_detail::__dtor<std::__ndk1::__variant_detail::__traits<cocos2d::_ccColor3B, std::__ndk1::basic_string<char, std::__ndk1::char_traits<char>, std::__ndk1::allocator<char> > >, (std::__ndk1::__variant_detail::_Trait)1>, std::__ndk1::__variant_detail::__base<(std::__ndk1::__variant_detail::__traits<cocos2d::_ccColor3B, std::__ndk1::basic_string<char, std::__ndk1::char_traits<char>, std::__ndk1::allocator<char> > >)1, cocos2d, std::__ndk1::allocator<char> >&)
PUBLIC b4164 0 matjson::Value::as<double>() const
PUBLIC b4268 0 matjson::Value::as<long>() const
PUBLIC b436c 0 std::__ndk1::__variant_detail::__visitation::__base::__dispatcher<(unsigned long)0>::__dispatch[abi:ne180000]<std::__ndk1::__variant_detail::__dtor<std::__ndk1::__variant_detail::__traits<float, std::__ndk1::basic_string<char, std::__ndk1::char_traits<char>, std::__ndk1::allocator<char> > >, (std::__ndk1::__variant_detail::_Trait)1>::__destroy[abi:ne180000]()::{lambda(auto:1&)#1}, std::__ndk1::__variant_detail::__base<(std::__ndk1::__variant_detail::__traits<float, std::__ndk1::basic_string<char, std::__ndk1::char_traits<char>, std::__ndk1::allocator<char> > >)1, float, std::__ndk1::allocator<char> >&>(std::__ndk1::__variant_detail::__dtor<std::__ndk1::__variant_detail::__traits<float, std::__ndk1::basic_string<char, std::__ndk1::char_traits<char>, std::__ndk1::allocator<char> > >, (std::__ndk1::__variant_detail::_Trait)1>, std::__ndk1::__variant_detail::__base<(std::__ndk1::__variant_detail::__traits<float, std::__ndk1::basic_string<char, std::__ndk1::char_traits<char>, std::__ndk1::allocator<char> > >)1, float, std::__ndk1::allocator<char> >&)
PUBLIC b4370 0 std::__ndk1::__variant_detail::__visitation::__base::__dispatcher<(unsigned long)1>::__dispatch[abi:ne180000]<std::__ndk1::__variant_detail::__dtor<std::__ndk1::__variant_detail::__traits<float, std::__ndk1::basic_string<char, std::__ndk1::char_traits<char>, std::__ndk1::allocator<char> > >, (std::__ndk1::__variant_detail::_Trait)1>::__destroy[abi:ne180000]()::{lambda(auto:1&)#1}, std::__ndk1::__variant_detail::__base<(std::__ndk1::__variant_detail::__traits<float, std::__ndk1::basic_string<char, std::__ndk1::char_traits<char>, std::__ndk1::allocator<char> > >)1, float, std::__ndk1::allocator<char> >&>(std::__ndk1::__variant_detail::__dtor<std::__ndk1::__variant_detail::__traits<float, std::__ndk1::basic_string<char, std::__ndk1::char_traits<char>, std::__ndk1::allocator<char> > >, (std::__ndk1::__variant_detail::_Trait)1>, std::__ndk1::__variant_detail::__base<(std::__ndk1::__variant_detail::__traits<float, std::__ndk1::basic_string<char, std::__ndk1::char_traits<char>, std::__ndk1::allocator<char> > >)1, float, std::__ndk1::allocator<char> >&)
PUBLIC b4384 0 __cxx_global_array_dtor
PUBLIC b43b8 0 __cxx_global_array_dtor.10
PUBLIC b4498 0 _GLOBAL__sub_I_macro.cpp
PUBLIC b4b58 0 Macro::recordAction(int, int, bool, bool)
PUBLIC b4dbc 0 Macro::updateInfo(PlayLayer*)
PUBLIC b5254 0 Macro::recordFrameFix(int, PlayerObject*, PlayerObject*)
PUBLIC b5494 0 Macro::autoSave(GJGameLevel*, int)
PUBLIC b5a8c 0 geode::Mod::getSettingValue<std::__ndk1::__fs::filesystem::path>(std::__ndk1::basic_string_view<char, std::__ndk1::char_traits<char> >) const
PUBLIC b5c1c 0 Macro::save(std::__ndk1::basic_string<char, std::__ndk1::char_traits<char>, std::__ndk1::allocator<char> >, std::__ndk1::basic_string<char, std::__ndk1::char_traits<char>, std::__ndk1::allocator<char> >, std::__ndk1::basic_string<char, std::__ndk1::char_traits<char>, std::__ndk1::allocator<char> >, bool)
PUBLIC b670c 0 Macro::tryAutosave(GJGameLevel*, CheckpointObject*)
PUBLIC b6c04 0 Macro::updateTPS()
PUBLIC b6ee0 0 gdr::Replay<Macro, input>::exportData(bool)
PUBLIC m b7f64 0 std::__ndk1::basic_ofstream<char, std::__ndk1::char_traits<char> >::~basic_ofstream()
PUBLIC b7fb4 0 Macro::loadXDFile(std::__ndk1::__fs::filesystem::path)
PUBLIC b8228 0 Macro::XDtoGDR(std::__ndk1::__fs::filesystem::path)
PUBLIC b8c18 0 std::__ndk1::basic_stringstream<char, std::__ndk1::char_traits<char>, std::__ndk1::allocator<char> >::basic_stringstream[abi:ne180000](std::__ndk1::basic_string<char, std::__ndk1::char_traits<char>, std::__ndk1::allocator<char> > const&, unsigned int)
PUBLIC b8dac 0 std::__ndk1::getline[abi:ne180000]<char, std::__ndk1::char_traits<char>, std::__ndk1::allocator<char> >(std::__ndk1::basic_istream<char, std::__ndk1::char_traits<char> >, std::__ndk1::basic_string<std::__ndk1::basic_istream, char, std::__ndk1::allocator<char> >&, std::__ndk1::basic_istream)
PUBLIC b8f60 0 Macro::resetState(bool)
PUBLIC b9128 0 Macro::togglePlaying()
PUBLIC b928c 0 RecordLayer::create()
PUBLIC b94bc 0 Macro::shouldStep()
PUBLIC b9570 0 std::__ndk1::vector<gdr::FrameFix, std::__ndk1::allocator<gdr::FrameFix> >::__push_back_slow_path<gdr::FrameFix>(gdr::FrameFix&&)
PUBLIC b9704 0 std::__ndk1::vector<gdr::FrameFix, std::__ndk1::allocator<gdr::FrameFix> >::__throw_length_error[abi:ne180000]() const
PUBLIC b9718 0 std::__ndk1::basic_string<char, std::__ndk1::char_traits<char>, std::__ndk1::allocator<char> >::__throw_out_of_range[abi:ne180000]() const
PUBLIC b972c 0 std::__ndk1::basic_string<char, std::__ndk1::char_traits<char>, std::__ndk1::allocator<char> >::__erase_external_with_move(unsigned long, unsigned long)
PUBLIC b97b4 0 gdr::Replay<Macro, input>::operator=(gdr::Replay<Macro, input> const&)
PUBLIC b9a2c 0 std::__ndk1::vector<input, std::__ndk1::allocator<input> >::__assign_with_size[abi:ne180000]<input*, std::__ndk1::vector<input, std::__ndk1::allocator<input> >::__assign_with_size[abi:ne180000]>(input*, std::__ndk1::vector<input, std::__ndk1::allocator<input> >::__assign_with_size[abi:ne180000], long)
PUBLIC b9c10 0 std::__ndk1::vector<gdr::FrameFix, std::__ndk1::allocator<gdr::FrameFix> >::__assign_with_size[abi:ne180000]<gdr::FrameFix*, std::__ndk1::vector<gdr::FrameFix, std::__ndk1::allocator<gdr::FrameFix> >::__assign_with_size[abi:ne180000]>(gdr::FrameFix*, std::__ndk1::vector<gdr::FrameFix, std::__ndk1::allocator<gdr::FrameFix> >::__assign_with_size[abi:ne180000], long)
PUBLIC b9ecc 0 geode::Popup<>::initBase(float, float, char const*, cocos2d::CCRect, bool)
PUBLIC ba1d4 0 fmt::v11::detail::value<fmt::v11::context>::format_custom_arg<std::__ndk1::__fs::filesystem::path, fmt::v11::formatter<std::__ndk1::__fs::filesystem::path, char, void> >(void*, fmt::v11::basic_format_parse_context<char>&, fmt::v11::context&)
PUBLIC bb0c4 0 fmt::v11::detail::parse_dynamic_spec<char>(char const*, char const*, int&, fmt::v11::detail::arg_ref<char>&, fmt::v11::basic_format_parse_context<char>&)
PUBLIC bb268 0 fmt::v11::detail::do_parse_arg_id<char, fmt::v11::detail::dynamic_spec_id_handler<char>&>(char const*, char const*, fmt::v11::detail::dynamic_spec_id_handler<char>&)
PUBLIC bb3fc 0 fmt::v11::detail::handle_dynamic_spec<fmt::v11::detail::width_checker, fmt::v11::context>(int&, fmt::v11::detail::arg_ref<fmt::v11::context::char_type>, fmt::v11::context&)
PUBLIC bb510 0 fmt::v11::detail::write<char, fmt::v11::basic_appender<char> >(fmt::v11::basic_appender<char>, fmt::v11::basic_string_view<char>, fmt::v11::format_specs const&)
PUBLIC bb78c 0 fmt::v11::detail::get_dynamic_spec<fmt::v11::detail::width_checker, fmt::v11::basic_format_arg<fmt::v11::context> >(fmt::v11::basic_format_arg<fmt::v11::context>)
PUBLIC bb820 0 fmt::v11::basic_format_args<fmt::v11::context>::get<char>(fmt::v11::basic_string_view<char>) const
PUBLIC bb978 0 fmt::v11::detail::write_escaped_string<char, fmt::v11::detail::counting_iterator>(fmt::v11::detail::counting_iterator, fmt::v11::basic_string_view<char>)
PUBLIC bbe98 0 fmt::v11::detail::write_padded<char, (fmt::v11::align::type)1, fmt::v11::basic_appender<char>, fmt::v11::detail::write<char, fmt::v11::basic_appender<char> >(fmt::v11::basic_appender<char>, fmt::v11::basic_string_view<char>, fmt::v11::format_specs const&)::{lambda(fmt::v11::basic_appender<char>)#1}>(fmt::v11::basic_appender<char>, fmt::v11::format_specs const&, unsigned long, unsigned long, fmt::v11::detail::write<char, fmt::v11::basic_appender<char> >(fmt::v11::basic_appender<char>, fmt::v11::basic_string_view<char>, fmt::v11::format_specs const&)::{lambda(fmt::v11::basic_appender<char>&&)#1})
PUBLIC bc0a4 0 fmt::v11::detail::for_each_codepoint<fmt::v11::detail::code_point_index(fmt::v11::basic_string_view<char>, unsigned long)::{lambda(unsigned int, fmt::v11::basic_string_view<char>)#1}>(fmt::v11::basic_string_view<char>, fmt::v11::detail::code_point_index(fmt::v11::basic_string_view<char>, unsigned long)::{lambda(unsigned int, fmt::v11::basic_string_view<char>)#1})
PUBLIC bc4cc 0 fmt::v11::detail::write_escaped_cp<fmt::v11::detail::counting_iterator, char>(fmt::v11::detail::counting_iterator, fmt::v11::detail::find_escape_result<char> const&)
PUBLIC bc660 0 fmt::v11::detail::for_each_codepoint<fmt::v11::detail::compute_width(fmt::v11::basic_string_view<char>)::count_code_points>(fmt::v11::basic_string_view<char>, fmt::v11::detail::compute_width(fmt::v11::basic_string_view<char>)::count_code_points)::{lambda(char const*, char const*)#1}::operator()(char const*, char const*) const
PUBLIC bc818 0 fmt::v11::detail::fill<char, fmt::v11::basic_appender<char> >(fmt::v11::basic_appender<char>, unsigned long, fmt::v11::detail::fill_t const&)
PUBLIC bc9e8 0 fmt::v11::detail::write_escaped_string<char, fmt::v11::basic_appender<char> >(fmt::v11::basic_appender<char>, fmt::v11::basic_string_view<char>)
PUBLIC bd064 0 fmt::v11::detail::write_escaped_cp<fmt::v11::basic_appender<char>, char>(fmt::v11::basic_appender<char>, fmt::v11::detail::find_escape_result<char> const&)
PUBLIC bd248 0 fmt::v11::detail::write_codepoint<(unsigned long)2, char, fmt::v11::basic_appender<char> >(fmt::v11::basic_appender<char>, char, unsigned int)
PUBLIC bd3c0 0 fmt::v11::detail::write_codepoint<(unsigned long)4, char, fmt::v11::basic_appender<char> >(fmt::v11::basic_appender<char>, char, unsigned int)
PUBLIC bd538 0 fmt::v11::detail::write_codepoint<(unsigned long)8, char, fmt::v11::basic_appender<char> >(fmt::v11::basic_appender<char>, char, unsigned int)
PUBLIC bd6b0 0 fmt::v11::basic_memory_buffer<char, (unsigned long)500, std::__ndk1::allocator<char> >::grow(fmt::v11::detail::buffer<char>&, unsigned long)
PUBLIC bd728 0 fmt::v11::detail::write_codepoint<(unsigned long)2, char, std::__ndk1::back_insert_iterator<fmt::v11::basic_memory_buffer<char, (unsigned long)500, std::__ndk1::allocator<char> > > >(std::__ndk1::back_insert_iterator<fmt::v11::basic_memory_buffer<char, (unsigned long)500, std::__ndk1::allocator<char> > >, char, unsigned int)
PUBLIC bd8a0 0 std::__ndk1::__hash_table<std::__ndk1::__hash_value_type<CheckpointObject*, CheckpointData>, std::__ndk1::__unordered_map_hasher<CheckpointObject*, std::__ndk1::__hash_value_type<CheckpointObject*, CheckpointData>, std::__ndk1::hash<CheckpointObject*>, std::__ndk1::equal_to<CheckpointObject*>, true>, std::__ndk1::__unordered_map_equal<CheckpointObject*, std::__ndk1::__hash_value_type<CheckpointObject*, CheckpointData>, std::__ndk1::equal_to<CheckpointObject*>, std::__ndk1::hash<CheckpointObject*>, true>, std::__ndk1::allocator<std::__ndk1::__hash_value_type<CheckpointObject*, CheckpointData> > >::find<CheckpointObject*>(CheckpointObject* const&) const
PUBLIC bd9b0 0 std::__ndk1::__hash_table<std::__ndk1::__hash_value_type<CheckpointObject*, CheckpointData>, std::__ndk1::__unordered_map_hasher<CheckpointObject*, std::__ndk1::__hash_value_type<CheckpointObject*, CheckpointData>, std::__ndk1::hash<CheckpointObject*>, std::__ndk1::equal_to<CheckpointObject*>, true>, std::__ndk1::__unordered_map_equal<CheckpointObject*, std::__ndk1::__hash_value_type<CheckpointObject*, CheckpointData>, std::__ndk1::equal_to<CheckpointObject*>, std::__ndk1::hash<CheckpointObject*>, true>, std::__ndk1::allocator<std::__ndk1::__hash_value_type<CheckpointObject*, CheckpointData> > >::__emplace_unique_key_args<CheckpointObject*, std::__ndk1::piecewise_construct_t const&, std::__ndk1::tuple<CheckpointObject* const&>, std::__ndk1::tuple<> >(CheckpointObject* const&, std::__ndk1::piecewise_construct_t const&, std::__ndk1::tuple<CheckpointObject* const&>, std::__ndk1::tuple<>)
PUBLIC bdd68 0 std::__ndk1::unique_ptr<std::__ndk1::__hash_node<std::__ndk1::__hash_value_type<CheckpointObject*, CheckpointData>, void*>, std::__ndk1::__hash_node_destructor<std::__ndk1::allocator<std::__ndk1::__hash_node<std::__ndk1::__hash_value_type<CheckpointObject*, CheckpointData>, void*> > > >::~unique_ptr[abi:ne180000]()
PUBLIC bddc4 0 std::__ndk1::__hash_table<std::__ndk1::__hash_value_type<CheckpointObject*, CheckpointData>, std::__ndk1::__unordered_map_hasher<CheckpointObject*, std::__ndk1::__hash_value_type<CheckpointObject*, CheckpointData>, std::__ndk1::hash<CheckpointObject*>, std::__ndk1::equal_to<CheckpointObject*>, true>, std::__ndk1::__unordered_map_equal<CheckpointObject*, std::__ndk1::__hash_value_type<CheckpointObject*, CheckpointData>, std::__ndk1::equal_to<CheckpointObject*>, std::__ndk1::hash<CheckpointObject*>, true>, std::__ndk1::allocator<std::__ndk1::__hash_value_type<CheckpointObject*, CheckpointData> > >::__do_rehash<true>(unsigned long)
PUBLIC bdf70 0 std::__ndk1::__narrow_to_utf8<(unsigned long)32>::operator()[abi:ne180000]<std::__ndk1::back_insert_iterator<std::__ndk1::basic_string<char, std::__ndk1::char_traits<char>, std::__ndk1::allocator<char> > >, wchar_t>(std::__ndk1::back_insert_iterator<std::__ndk1::basic_string<char, std::__ndk1::char_traits<char>, std::__ndk1::allocator<char> > >, wchar_t const*, wchar_t const) const
PUBLIC be1b4 0 std::__ndk1::basic_ofstream<char, std::__ndk1::char_traits<char> >::basic_ofstream(char const*, unsigned int)
PUBLIC be2c4 0 nlohmann::json_abi_v3_11_3::basic_json<std::__ndk1::map, std::__ndk1::vector, std::__ndk1::basic_string<char, std::__ndk1::char_traits<char>, std::__ndk1::allocator<char> >, bool, long, unsigned long, double, std::__ndk1::allocator, nlohmann::json_abi_v3_11_3::adl_serializer, std::__ndk1::vector<unsigned char, std::__ndk1::allocator<unsigned char> >, void>::push_back(nlohmann::json_abi_v3_11_3::basic_json<std::__ndk1::map, std::__ndk1::vector, std::__ndk1::basic_string<char, std::__ndk1::char_traits<char>, std::__ndk1::allocator<char> >, bool, long, unsigned long, double, std::__ndk1::allocator, nlohmann::json_abi_v3_11_3::adl_serializer, std::__ndk1::vector<unsigned char, std::__ndk1::allocator<unsigned char> >, void> const&)
PUBLIC be454 0 nlohmann::json_abi_v3_11_3::basic_json<std::__ndk1::map, std::__ndk1::vector, std::__ndk1::basic_string<char, std::__ndk1::char_traits<char>, std::__ndk1::allocator<char> >, bool, long, unsigned long, double, std::__ndk1::allocator, nlohmann::json_abi_v3_11_3::adl_serializer, std::__ndk1::vector<unsigned char, std::__ndk1::allocator<unsigned char> >, void>::dump(int, char, bool, nlohmann::json_abi_v3_11_3::detail::error_handler_t) const
PUBLIC be728 0 nlohmann::json_abi_v3_11_3::basic_json<std::__ndk1::map, std::__ndk1::vector, std::__ndk1::basic_string<char, std::__ndk1::char_traits<char>, std::__ndk1::allocator<char> >, bool, long, unsigned long, double, std::__ndk1::allocator, nlohmann::json_abi_v3_11_3::adl_serializer, std::__ndk1::vector<unsigned char, std::__ndk1::allocator<unsigned char> >, void>::to_msgpack(nlohmann::json_abi_v3_11_3::basic_json<std::__ndk1::map, std::__ndk1::vector, std::__ndk1::basic_string<char, std::__ndk1::char_traits<char>, std::__ndk1::allocator<char> >, bool, long, unsigned long, double, std::__ndk1::allocator, nlohmann::json_abi_v3_11_3::adl_serializer, std::__ndk1::vector<unsigned char, std::__ndk1::allocator<unsigned char> >, void> const&)
PUBLIC be820 0 nlohmann::json_abi_v3_11_3::detail::concat<std::__ndk1::basic_string<char, std::__ndk1::char_traits<char>, std::__ndk1::allocator<char> >, char const (&) [29], char const*>(char const (&) [29], char const*)
PUBLIC be8c8 0 std::__ndk1::vector<nlohmann::json_abi_v3_11_3::basic_json<std::__ndk1::map, std::__ndk1::vector, std::__ndk1::basic_string<char, std::__ndk1::char_traits<char>, std::__ndk1::allocator<char> >, bool, long, unsigned long, double, std::__ndk1::allocator, nlohmann::json_abi_v3_11_3::adl_serializer, std::__ndk1::vector<unsigned char, std::__ndk1::allocator<unsigned char> >, void>, std::__ndk1::allocator<nlohmann::json_abi_v3_11_3::basic_json<std::__ndk1::map, std::__ndk1::vector, std::__ndk1::basic_string<char, std::__ndk1::char_traits<char>, std::__ndk1::allocator<char> >, bool, long, unsigned long, double, std::__ndk1::allocator, nlohmann::json_abi_v3_11_3::adl_serializer, std::__ndk1::vector<unsigned char, std::__ndk1::allocator<unsigned char> >, void> > >::__push_back_slow_path<nlohmann::json_abi_v3_11_3::basic_json<std::__ndk1::map, std::__ndk1::vector, std::__ndk1::basic_string<char, std::__ndk1::char_traits<char>, std::__ndk1::allocator<char> >, bool, long, unsigned long, double, std::__ndk1::allocator, nlohmann::json_abi_v3_11_3::adl_serializer, std::__ndk1::vector<unsigned char, std::__ndk1::allocator<unsigned char> >, void> const&>(nlohmann::json_abi_v3_11_3::basic_json<std::__ndk1::map, std::__ndk1::vector, std::__ndk1::basic_string<char, std::__ndk1::char_traits<char>, std::__ndk1::allocator<char> >, bool, long, unsigned long, double, std::__ndk1::allocator, nlohmann::json_abi_v3_11_3::adl_serializer, std::__ndk1::vector<unsigned char, std::__ndk1::allocator<unsigned char> >, void> const&)
PUBLIC bea78 0 std::__ndk1::shared_ptr<nlohmann::json_abi_v3_11_3::detail::output_adapter_protocol<char> >::~shared_ptr[abi:ne180000]()
PUBLIC beac8 0 nlohmann::json_abi_v3_11_3::detail::output_adapter<char, std::__ndk1::basic_string<char, std::__ndk1::char_traits<char>, std::__ndk1::allocator<char> > >::~output_adapter()
PUBLIC beb18 0 nlohmann::json_abi_v3_11_3::detail::serializer<nlohmann::json_abi_v3_11_3::basic_json<std::__ndk1::map, std::__ndk1::vector, std::__ndk1::basic_string<char, std::__ndk1::char_traits<char>, std::__ndk1::allocator<char> >, bool, long, unsigned long, double, std::__ndk1::allocator, nlohmann::json_abi_v3_11_3::adl_serializer, std::__ndk1::vector<unsigned char, std::__ndk1::allocator<unsigned char> >, void> >::dump(nlohmann::json_abi_v3_11_3::basic_json<std::__ndk1::map, std::__ndk1::vector, std::__ndk1::basic_string<char, std::__ndk1::char_traits<char>, std::__ndk1::allocator<char> >, bool, long, unsigned long, double, std::__ndk1::allocator, nlohmann::json_abi_v3_11_3::adl_serializer, std::__ndk1::vector<unsigned char, std::__ndk1::allocator<unsigned char> >, void> const&, bool, bool, unsigned int, unsigned int)
PUBLIC bfcf4 0 nlohmann::json_abi_v3_11_3::detail::serializer<nlohmann::json_abi_v3_11_3::basic_json<std::__ndk1::map, std::__ndk1::vector, std::__ndk1::basic_string<char, std::__ndk1::char_traits<char>, std::__ndk1::allocator<char> >, bool, long, unsigned long, double, std::__ndk1::allocator, nlohmann::json_abi_v3_11_3::adl_serializer, std::__ndk1::vector<unsigned char, std::__ndk1::allocator<unsigned char> >, void> >::~serializer()
PUBLIC bfd58 0 std::__ndk1::__shared_ptr_emplace<nlohmann::json_abi_v3_11_3::detail::output_string_adapter<char, std::__ndk1::basic_string<char, std::__ndk1::char_traits<char>, std::__ndk1::allocator<char> > >, std::__ndk1::allocator<nlohmann::json_abi_v3_11_3::detail::output_string_adapter<char, std::__ndk1::basic_string<char, std::__ndk1::char_traits<char>, std::__ndk1::allocator<char> > > > >::~__shared_ptr_emplace()
PUBLIC bfd68 0 std::__ndk1::__shared_ptr_emplace<nlohmann::json_abi_v3_11_3::detail::output_string_adapter<char, std::__ndk1::basic_string<char, std::__ndk1::char_traits<char>, std::__ndk1::allocator<char> > >, std::__ndk1::allocator<nlohmann::json_abi_v3_11_3::detail::output_string_adapter<char, std::__ndk1::basic_string<char, std::__ndk1::char_traits<char>, std::__ndk1::allocator<char> > > > >::~__shared_ptr_emplace()
PUBLIC bfd98 0 std::__ndk1::__shared_ptr_emplace<nlohmann::json_abi_v3_11_3::detail::output_string_adapter<char, std::__ndk1::basic_string<char, std::__ndk1::char_traits<char>, std::__ndk1::allocator<char> > >, std::__ndk1::allocator<nlohmann::json_abi_v3_11_3::detail::output_string_adapter<char, std::__ndk1::basic_string<char, std::__ndk1::char_traits<char>, std::__ndk1::allocator<char> > > > >::__on_zero_shared()
PUBLIC bfda4 0 std::__ndk1::__shared_ptr_emplace<nlohmann::json_abi_v3_11_3::detail::output_string_adapter<char, std::__ndk1::basic_string<char, std::__ndk1::char_traits<char>, std::__ndk1::allocator<char> > >, std::__ndk1::allocator<nlohmann::json_abi_v3_11_3::detail::output_string_adapter<char, std::__ndk1::basic_string<char, std::__ndk1::char_traits<char>, std::__ndk1::allocator<char> > > > >::__on_zero_shared_weak()
PUBLIC bfda8 0 nlohmann::json_abi_v3_11_3::detail::output_string_adapter<char, std::__ndk1::basic_string<char, std::__ndk1::char_traits<char>, std::__ndk1::allocator<char> > >::write_character(char)
PUBLIC bfdb0 0 nlohmann::json_abi_v3_11_3::detail::output_string_adapter<char, std::__ndk1::basic_string<char, std::__ndk1::char_traits<char>, std::__ndk1::allocator<char> > >::write_characters(char const*, unsigned long)
PUBLIC bfdb8 0 nlohmann::json_abi_v3_11_3::detail::output_adapter_protocol<char>::~output_adapter_protocol()
PUBLIC bfdbc 0 nlohmann::json_abi_v3_11_3::detail::output_string_adapter<char, std::__ndk1::basic_string<char, std::__ndk1::char_traits<char>, std::__ndk1::allocator<char> > >::~output_string_adapter()
PUBLIC bfdc0 0 nlohmann::json_abi_v3_11_3::detail::serializer<nlohmann::json_abi_v3_11_3::basic_json<std::__ndk1::map, std::__ndk1::vector, std::__ndk1::basic_string<char, std::__ndk1::char_traits<char>, std::__ndk1::allocator<char> >, bool, long, unsigned long, double, std::__ndk1::allocator, nlohmann::json_abi_v3_11_3::adl_serializer, std::__ndk1::vector<unsigned char, std::__ndk1::allocator<unsigned char> >, void> >::dump_escaped(std::__ndk1::basic_string<char, std::__ndk1::char_traits<char>, std::__ndk1::allocator<char> > const&, bool)
PUBLIC c042c 0 _ZN8nlohmann16json_abi_v3_11_36detail10serializerINS0_10basic_jsonINSt6__ndk13mapENS4_6vectorENS4_12basic_stringIcNS4_11char_traitsIcEENS4_9allocatorIcEEEEblmdSA_NS0_14adl_serializerENS6_IhNSA_IhEEEEvEEE12dump_integerIlTnNS4_9enable_ifIXoooooosr3std11is_integralIT_EE5valuesr3std7is_sameISK_mEE5valuesr3std7is_sameISK_lEE5valuesr3std7is_sameISK_hEE5valueEiE4typeELi0EEEvSK_
PUBLIC c0668 0 snprintf(char*, unsigned long pass_object_size1, char const*, ...)
PUBLIC c070c 0 _ZN8nlohmann16json_abi_v3_11_36detail10type_error6createIDnTnNSt6__ndk19enable_ifIXsr21is_basic_json_contextIT_EE5valueEiE4typeELi0EEES2_iRKNS4_12basic_stringIcNS4_11char_traitsIcEENS4_9allocatorIcEEEES6_
PUBLIC c08f4 0 nlohmann::json_abi_v3_11_3::detail::concat<std::__ndk1::basic_string<char, std::__ndk1::char_traits<char>, std::__ndk1::allocator<char> >, char const (&) [29], std::__ndk1::basic_string<char, std::__ndk1::char_traits<char>, std::__ndk1::allocator<char> >, char const (&) [5], std::__ndk1::basic_string<char, std::__ndk1::char_traits<char>, std::__ndk1::allocator<char> > >(char const (&) [29], std::__ndk1::basic_string<char, std::__ndk1::char_traits<char>, std::__ndk1::allocator<char> >, char const (&) [5], std::__ndk1::basic_string<char, std::__ndk1::char_traits<char>, std::__ndk1::allocator<char> >)
PUBLIC c0a20 0 nlohmann::json_abi_v3_11_3::detail::concat<std::__ndk1::basic_string<char, std::__ndk1::char_traits<char>, std::__ndk1::allocator<char> >, char const (&) [39], std::__ndk1::basic_string<char, std::__ndk1::char_traits<char>, std::__ndk1::allocator<char> > >(char const (&) [39], std::__ndk1::basic_string<char, std::__ndk1::char_traits<char>, std::__ndk1::allocator<char> >)
PUBLIC c0ad0 0 nlohmann::json_abi_v3_11_3::detail::dtoa_impl::grisu2<double>(char*, int&, int&, double)
PUBLIC c0cc0 0 nlohmann::json_abi_v3_11_3::detail::dtoa_impl::format_buffer(char*, int, int, int, int)
PUBLIC c0ec0 0 nlohmann::json_abi_v3_11_3::detail::dtoa_impl::grisu2_digit_gen(char*, int&, int&, nlohmann::json_abi_v3_11_3::detail::dtoa_impl::diyfp, nlohmann::json_abi_v3_11_3::detail::dtoa_impl::diyfp, nlohmann::json_abi_v3_11_3::detail::dtoa_impl::diyfp)
PUBLIC c11a0 0 nlohmann::json_abi_v3_11_3::basic_json<std::__ndk1::map, std::__ndk1::vector, std::__ndk1::basic_string<char, std::__ndk1::char_traits<char>, std::__ndk1::allocator<char> >, bool, long, unsigned long, double, std::__ndk1::allocator, nlohmann::json_abi_v3_11_3::adl_serializer, std::__ndk1::vector<unsigned char, std::__ndk1::allocator<unsigned char> >, void>::to_msgpack(nlohmann::json_abi_v3_11_3::basic_json<std::__ndk1::map, std::__ndk1::vector, std::__ndk1::basic_string<char, std::__ndk1::char_traits<char>, std::__ndk1::allocator<char> >, bool, long, unsigned long, double, std::__ndk1::allocator, nlohmann::json_abi_v3_11_3::adl_serializer, std::__ndk1::vector<unsigned char, std::__ndk1::allocator<unsigned char> >, void> const&, nlohmann::json_abi_v3_11_3::detail::output_adapter<unsigned char, std::__ndk1::basic_string<unsigned char, std::__ndk1::char_traits<unsigned char>, std::__ndk1::allocator<unsigned char> > >)
PUBLIC c12a8 0 nlohmann::json_abi_v3_11_3::detail::output_adapter<unsigned char, std::__ndk1::basic_string<unsigned char, std::__ndk1::char_traits<unsigned char>, std::__ndk1::allocator<unsigned char> > >::~output_adapter()
PUBLIC c12f8 0 nlohmann::json_abi_v3_11_3::detail::binary_writer<nlohmann::json_abi_v3_11_3::basic_json<std::__ndk1::map, std::__ndk1::vector, std::__ndk1::basic_string<char, std::__ndk1::char_traits<char>, std::__ndk1::allocator<char> >, bool, long, unsigned long, double, std::__ndk1::allocator, nlohmann::json_abi_v3_11_3::adl_serializer, std::__ndk1::vector<unsigned char, std::__ndk1::allocator<unsigned char> >, void>, unsigned char>::write_msgpack(nlohmann::json_abi_v3_11_3::basic_json<std::__ndk1::map, std::__ndk1::vector, std::__ndk1::basic_string<char, std::__ndk1::char_traits<char>, std::__ndk1::allocator<char> >, bool, long, unsigned long, double, std::__ndk1::allocator, nlohmann::json_abi_v3_11_3::adl_serializer, std::__ndk1::vector<unsigned char, std::__ndk1::allocator<unsigned char> >, void> const&)
PUBLIC c1d34 0 nlohmann::json_abi_v3_11_3::detail::binary_writer<nlohmann::json_abi_v3_11_3::basic_json<std::__ndk1::map, std::__ndk1::vector, std::__ndk1::basic_string<char, std::__ndk1::char_traits<char>, std::__ndk1::allocator<char> >, bool, long, unsigned long, double, std::__ndk1::allocator, nlohmann::json_abi_v3_11_3::adl_serializer, std::__ndk1::vector<unsigned char, std::__ndk1::allocator<unsigned char> >, void>, unsigned char>::~binary_writer()
PUBLIC c1d84 0 std::__ndk1::shared_ptr<nlohmann::json_abi_v3_11_3::detail::output_adapter_protocol<unsigned char> >::~shared_ptr[abi:ne180000]()
PUBLIC c1dd4 0 nlohmann::json_abi_v3_11_3::detail::binary_writer<nlohmann::json_abi_v3_11_3::basic_json<std::__ndk1::map, std::__ndk1::vector, std::__ndk1::basic_string<char, std::__ndk1::char_traits<char>, std::__ndk1::allocator<char> >, bool, long, unsigned long, double, std::__ndk1::allocator, nlohmann::json_abi_v3_11_3::adl_serializer, std::__ndk1::vector<unsigned char, std::__ndk1::allocator<unsigned char> >, void>, unsigned char>::write_number<unsigned short>(unsigned short, bool)
PUBLIC c1e68 0 nlohmann::json_abi_v3_11_3::detail::binary_writer<nlohmann::json_abi_v3_11_3::basic_json<std::__ndk1::map, std::__ndk1::vector, std::__ndk1::basic_string<char, std::__ndk1::char_traits<char>, std::__ndk1::allocator<char> >, bool, long, unsigned long, double, std::__ndk1::allocator, nlohmann::json_abi_v3_11_3::adl_serializer, std::__ndk1::vector<unsigned char, std::__ndk1::allocator<unsigned char> >, void>, unsigned char>::write_number<unsigned int>(unsigned int, bool)
PUBLIC c1efc 0 nlohmann::json_abi_v3_11_3::detail::binary_writer<nlohmann::json_abi_v3_11_3::basic_json<std::__ndk1::map, std::__ndk1::vector, std::__ndk1::basic_string<char, std::__ndk1::char_traits<char>, std::__ndk1::allocator<char> >, bool, long, unsigned long, double, std::__ndk1::allocator, nlohmann::json_abi_v3_11_3::adl_serializer, std::__ndk1::vector<unsigned char, std::__ndk1::allocator<unsigned char> >, void>, unsigned char>::write_number<unsigned long>(unsigned long, bool)
PUBLIC c1f90 0 nlohmann::json_abi_v3_11_3::detail::binary_writer<nlohmann::json_abi_v3_11_3::basic_json<std::__ndk1::map, std::__ndk1::vector, std::__ndk1::basic_string<char, std::__ndk1::char_traits<char>, std::__ndk1::allocator<char> >, bool, long, unsigned long, double, std::__ndk1::allocator, nlohmann::json_abi_v3_11_3::adl_serializer, std::__ndk1::vector<unsigned char, std::__ndk1::allocator<unsigned char> >, void>, unsigned char>::write_number<short>(short, bool)
PUBLIC c2024 0 nlohmann::json_abi_v3_11_3::detail::binary_writer<nlohmann::json_abi_v3_11_3::basic_json<std::__ndk1::map, std::__ndk1::vector, std::__ndk1::basic_string<char, std::__ndk1::char_traits<char>, std::__ndk1::allocator<char> >, bool, long, unsigned long, double, std::__ndk1::allocator, nlohmann::json_abi_v3_11_3::adl_serializer, std::__ndk1::vector<unsigned char, std::__ndk1::allocator<unsigned char> >, void>, unsigned char>::write_number<int>(int, bool)
PUBLIC c20b8 0 nlohmann::json_abi_v3_11_3::detail::binary_writer<nlohmann::json_abi_v3_11_3::basic_json<std::__ndk1::map, std::__ndk1::vector, std::__ndk1::basic_string<char, std::__ndk1::char_traits<char>, std::__ndk1::allocator<char> >, bool, long, unsigned long, double, std::__ndk1::allocator, nlohmann::json_abi_v3_11_3::adl_serializer, std::__ndk1::vector<unsigned char, std::__ndk1::allocator<unsigned char> >, void>, unsigned char>::write_number<long>(long, bool)
PUBLIC c214c 0 std::__ndk1::__shared_ptr_emplace<nlohmann::json_abi_v3_11_3::detail::output_vector_adapter<unsigned char, std::__ndk1::allocator<unsigned char> >, std::__ndk1::allocator<nlohmann::json_abi_v3_11_3::detail::output_vector_adapter<unsigned char, std::__ndk1::allocator<unsigned char> > > >::~__shared_ptr_emplace()
PUBLIC c215c 0 std::__ndk1::__shared_ptr_emplace<nlohmann::json_abi_v3_11_3::detail::output_vector_adapter<unsigned char, std::__ndk1::allocator<unsigned char> >, std::__ndk1::allocator<nlohmann::json_abi_v3_11_3::detail::output_vector_adapter<unsigned char, std::__ndk1::allocator<unsigned char> > > >::~__shared_ptr_emplace()
PUBLIC c218c 0 std::__ndk1::__shared_ptr_emplace<nlohmann::json_abi_v3_11_3::detail::output_vector_adapter<unsigned char, std::__ndk1::allocator<unsigned char> >, std::__ndk1::allocator<nlohmann::json_abi_v3_11_3::detail::output_vector_adapter<unsigned char, std::__ndk1::allocator<unsigned char> > > >::__on_zero_shared()
PUBLIC c2198 0 std::__ndk1::__shared_ptr_emplace<nlohmann::json_abi_v3_11_3::detail::output_vector_adapter<unsigned char, std::__ndk1::allocator<unsigned char> >, std::__ndk1::allocator<nlohmann::json_abi_v3_11_3::detail::output_vector_adapter<unsigned char, std::__ndk1::allocator<unsigned char> > > >::__on_zero_shared_weak()
PUBLIC c219c 0 nlohmann::json_abi_v3_11_3::detail::output_vector_adapter<unsigned char, std::__ndk1::allocator<unsigned char> >::write_character(unsigned char)
PUBLIC c2354 0 nlohmann::json_abi_v3_11_3::detail::output_vector_adapter<unsigned char, std::__ndk1::allocator<unsigned char> >::write_characters(unsigned char const*, unsigned long)
PUBLIC c236c 0 nlohmann::json_abi_v3_11_3::detail::output_adapter_protocol<unsigned char>::~output_adapter_protocol()
PUBLIC c2370 0 nlohmann::json_abi_v3_11_3::detail::output_vector_adapter<unsigned char, std::__ndk1::allocator<unsigned char> >::~output_vector_adapter()
PUBLIC c2374 0 std::__ndk1::vector<unsigned char, std::__ndk1::allocator<unsigned char> >::__insert_with_size[abi:ne180000]<unsigned char const*, unsigned char const>(unsigned char const*<unsigned char const>, unsigned char const*, unsigned char const, long)
PUBLIC c2670 0 __cxx_global_array_dtor
PUBLIC c26a4 0 __cxx_global_array_dtor.10
PUBLIC c2784 0 __cxx_global_var_init.65
PUBLIC c2bc0 0 _GLOBAL__sub_I_keybinds.cpp
PUBLIC c502c 0 std::__ndk1::unordered_map<int, std::__ndk1::basic_string<char, std::__ndk1::char_traits<char>, std::__ndk1::allocator<char> >, std::__ndk1::hash<int>, std::__ndk1::equal_to<int>, std::__ndk1::allocator<std::__ndk1::pair<int const, std::__ndk1::basic_string<char, std::__ndk1::char_traits<char>, std::__ndk1::allocator<char> > > > >::~unordered_map[abi:ne180000]()
PUBLIC c509c 0 geode::modifier::ModifyBase<geode::modifier::ModifyDerive<hook27<(anonymous namespace)::hook27Parent>, cocos2d::CCKeyboardDispatcher> >::~ModifyBase()
PUBLIC c50b8 0 std::__ndk1::__hash_table<std::__ndk1::__hash_value_type<int, std::__ndk1::basic_string<char, std::__ndk1::char_traits<char>, std::__ndk1::allocator<char> > >, std::__ndk1::__unordered_map_hasher<int, std::__ndk1::__hash_value_type<int, std::__ndk1::basic_string<char, std::__ndk1::char_traits<char>, std::__ndk1::allocator<char> > >, std::__ndk1::hash<int>, std::__ndk1::equal_to<int>, true>, std::__ndk1::__unordered_map_equal<int, std::__ndk1::__hash_value_type<int, std::__ndk1::basic_string<char, std::__ndk1::char_traits<char>, std::__ndk1::allocator<char> > >, std::__ndk1::equal_to<int>, std::__ndk1::hash<int>, true>, std::__ndk1::allocator<std::__ndk1::__hash_value_type<int, std::__ndk1::basic_string<char, std::__ndk1::char_traits<char>, std::__ndk1::allocator<char> > > > >::~__hash_table()
PUBLIC c5128 0 std::__ndk1::__hash_table<std::__ndk1::__hash_value_type<int, std::__ndk1::basic_string<char, std::__ndk1::char_traits<char>, std::__ndk1::allocator<char> > >, std::__ndk1::__unordered_map_hasher<int, std::__ndk1::__hash_value_type<int, std::__ndk1::basic_string<char, std::__ndk1::char_traits<char>, std::__ndk1::allocator<char> > >, std::__ndk1::hash<int>, std::__ndk1::equal_to<int>, true>, std::__ndk1::__unordered_map_equal<int, std::__ndk1::__hash_value_type<int, std::__ndk1::basic_string<char, std::__ndk1::char_traits<char>, std::__ndk1::allocator<char> > >, std::__ndk1::equal_to<int>, std::__ndk1::hash<int>, true>, std::__ndk1::allocator<std::__ndk1::__hash_value_type<int, std::__ndk1::basic_string<char, std::__ndk1::char_traits<char>, std::__ndk1::allocator<char> > > > >::__emplace_unique_key_args<int, std::__ndk1::pair<int const, std::__ndk1::basic_string<char, std::__ndk1::char_traits<char>, std::__ndk1::allocator<char> > > const&>(int const&, std::__ndk1::pair<int const, std::__ndk1::basic_string<char, std::__ndk1::char_traits<char>, std::__ndk1::allocator<char> > > const&)
PUBLIC c54e4 0 std::__ndk1::unique_ptr<std::__ndk1::__hash_node<std::__ndk1::__hash_value_type<int, std::__ndk1::basic_string<char, std::__ndk1::char_traits<char>, std::__ndk1::allocator<char> > >, void*>, std::__ndk1::__hash_node_destructor<std::__ndk1::allocator<std::__ndk1::__hash_node<std::__ndk1::__hash_value_type<int, std::__ndk1::basic_string<char, std::__ndk1::char_traits<char>, std::__ndk1::allocator<char> > >, void*> > > >::~unique_ptr[abi:ne180000]()
PUBLIC c5534 0 std::__ndk1::__hash_table<std::__ndk1::__hash_value_type<int, std::__ndk1::basic_string<char, std::__ndk1::char_traits<char>, std::__ndk1::allocator<char> > >, std::__ndk1::__unordered_map_hasher<int, std::__ndk1::__hash_value_type<int, std::__ndk1::basic_string<char, std::__ndk1::char_traits<char>, std::__ndk1::allocator<char> > >, std::__ndk1::hash<int>, std::__ndk1::equal_to<int>, true>, std::__ndk1::__unordered_map_equal<int, std::__ndk1::__hash_value_type<int, std::__ndk1::basic_string<char, std::__ndk1::char_traits<char>, std::__ndk1::allocator<char> > >, std::__ndk1::equal_to<int>, std::__ndk1::hash<int>, true>, std::__ndk1::allocator<std::__ndk1::__hash_value_type<int, std::__ndk1::basic_string<char, std::__ndk1::char_traits<char>, std::__ndk1::allocator<char> > > > >::__do_rehash<true>(unsigned long)
PUBLIC c56e0 0 geode::modifier::ModifyDerive<hook27<(anonymous namespace)::hook27Parent>, cocos2d::CCKeyboardDispatcher>::apply()
PUBLIC c5acc 0 geode::modifier::ModifyBase<geode::modifier::ModifyDerive<hook27<(anonymous namespace)::hook27Parent>, cocos2d::CCKeyboardDispatcher> >::apply()
PUBLIC c5ad0 0 geode::modifier::AsStaticFunction_dispatchKeyboardMSG<hook27<(anonymous namespace)::hook27Parent>, bool (hook27<(anonymous namespace)::hook27Parent>::*)(cocos2d::enumKeyCodes, bool, bool)>::Impl<bool (hook27<(anonymous namespace)::hook27Parent>::*)(cocos2d::enumKeyCodes, bool, bool)>::function(hook27<(anonymous namespace)::hook27Parent>*, cocos2d::enumKeyCodes, bool, bool)
PUBLIC c5dc4 0 __cxx_global_array_dtor
PUBLIC c5df8 0 __cxx_global_array_dtor.10
PUBLIC c5ed8 0 _GLOBAL__sub_I_utils.cpp
PUBLIC c61e4 0 Utils::widen(char const*)
PUBLIC m c6290 0 std::__ndk1::basic_ostringstream<char, std::__ndk1::char_traits<char>, std::__ndk1::allocator<char> >::~basic_ostringstream()
PUBLIC c630c 0 std::__ndk1::basic_ifstream<char, std::__ndk1::char_traits<char> >::basic_ifstream(std::__ndk1::basic_string<char, std::__ndk1::char_traits<char>, std::__ndk1::allocator<char> > const&, unsigned int)
PUBLIC c642c 0 Utils::splitByChar(std::__ndk1::basic_string<char, std::__ndk1::char_traits<char>, std::__ndk1::allocator<char> >, char)
PUBLIC c6aa0 0 std::__ndk1::vector<std::__ndk1::basic_string<char, std::__ndk1::char_traits<char>, std::__ndk1::allocator<char> >, std::__ndk1::allocator<std::__ndk1::basic_string<char, std::__ndk1::char_traits<char>, std::__ndk1::allocator<char> > > >::reserve(unsigned long)
PUBLIC c6bb4 0 geode::Mod::getSettingValue<cocos2d::_ccColor3B>(std::__ndk1::basic_string_view<char, std::__ndk1::char_traits<char> >) const
PUBLIC c6cd4 0 Utils::getSimplifiedString(std::__ndk1::basic_string<char, std::__ndk1::char_traits<char>, std::__ndk1::allocator<char> >)
PUBLIC c6e38 0 std::__ndk1::basic_string<wchar_t, std::__ndk1::char_traits<wchar_t>, std::__ndk1::allocator<wchar_t> >::__throw_length_error[abi:ne180000]() const
PUBLIC c6e4c 0 std::__ndk1::basic_string<wchar_t, std::__ndk1::char_traits<wchar_t>, std::__ndk1::allocator<wchar_t> >::__shrink_or_extend[abi:ne180000](unsigned long)
PUBLIC c6f98 0 std::__ndk1::vector<std::__ndk1::basic_string<char, std::__ndk1::char_traits<char>, std::__ndk1::allocator<char> >, std::__ndk1::allocator<std::__ndk1::basic_string<char, std::__ndk1::char_traits<char>, std::__ndk1::allocator<char> > > >::__emplace_back_slow_path<std::__ndk1::basic_string<char, std::__ndk1::char_traits<char>, std::__ndk1::allocator<char> > >(std::__ndk1::basic_string<char, std::__ndk1::char_traits<char>, std::__ndk1::allocator<char> >&&)
PUBLIC c7100 0 dataFromString(std::__ndk1::basic_string<char, std::__ndk1::char_traits<char>, std::__ndk1::allocator<char> >)
PUBLIC c726c 0 splitByChar(std::__ndk1::basic_string<char, std::__ndk1::char_traits<char>, std::__ndk1::allocator<char> >, char)
PUBLIC c78e0 0 getVersion(std::__ndk1::vector<std::__ndk1::basic_string<char, std::__ndk1::char_traits<char>, std::__ndk1::allocator<char> >, std::__ndk1::allocator<std::__ndk1::basic_string<char, std::__ndk1::char_traits<char>, std::__ndk1::allocator<char> > > >)
PUBLIC c8448 0 __cxx_global_array_dtor
PUBLIC c847c 0 __cxx_global_array_dtor.10
PUBLIC c855c 0 __cxx_global_var_init.53
PUBLIC c8998 0 __cxx_global_var_init.54
PUBLIC c8dd4 0 __cxx_global_var_init.55
PUBLIC c9210 0 __cxx_global_var_init.56
PUBLIC c964c 0 __cxx_global_var_init.57
PUBLIC c9a88 0 __cxx_global_var_init.58
PUBLIC c9ec4 0 __cxx_global_var_init.59
PUBLIC ca300 0 _GLOBAL__sub_I_renderer.cpp
PUBLIC ca9c0 0 Renderer::toggle()
PUBLIC ccb10 0 Renderer::stopAudio()
PUBLIC ccb98 0 Renderer::stop(int)
PUBLIC cce94 0 Renderer::start()::$_0::~$_0()
PUBLIC ccf40 0 ffmpeg::RenderSettings::~RenderSettings()
PUBLIC ccfa4 0 geode::modifier::ModifyBase<geode::modifier::ModifyDerive<hook18<(anonymous namespace)::hook18Parent>, cocos2d::CCParticleSystemQuad> >::~ModifyBase()
PUBLIC ccfc0 0 geode::modifier::ModifyBase<geode::modifier::ModifyDerive<hook32<(anonymous namespace)::hook32Parent>, CCCircleWave> >::~ModifyBase()
PUBLIC ccfdc 0 geode::modifier::ModifyBase<geode::modifier::ModifyDerive<hook47<(anonymous namespace)::hook47Parent>, PlayLayer> >::~ModifyBase()
PUBLIC ccff8 0 geode::modifier::ModifyBase<geode::modifier::ModifyDerive<hook65<(anonymous namespace)::hook65Parent>, EndLevelLayer> >::~ModifyBase()
PUBLIC cd014 0 geode::modifier::ModifyBase<geode::modifier::ModifyDerive<hook80<(anonymous namespace)::hook80Parent>, FMODAudioEngine> >::~ModifyBase()
PUBLIC cd030 0 geode::modifier::ModifyBase<geode::modifier::ModifyDerive<hook89<(anonymous namespace)::hook89Parent>, GJBaseGameLayer> >::~ModifyBase()
PUBLIC cd04c 0 geode::modifier::ModifyBase<geode::modifier::ModifyDerive<hook114<(anonymous namespace)::hook114Parent>, cocos2d::CCScheduler> >::~ModifyBase()
PUBLIC cd068 0 std::__ndk1::basic_string<char, std::__ndk1::char_traits<char>, std::__ndk1::allocator<char> >::__assign_external(char const*, unsigned long)
PUBLIC cd190 0 geode::modifier::ModifyDerive<hook18<(anonymous namespace)::hook18Parent>, cocos2d::CCParticleSystemQuad>::apply()
PUBLIC cd518 0 geode::modifier::ModifyBase<geode::modifier::ModifyDerive<hook18<(anonymous namespace)::hook18Parent>, cocos2d::CCParticleSystemQuad> >::apply()
PUBLIC cd51c 0 geode::modifier::AsStaticFunction_create<hook18<(anonymous namespace)::hook18Parent>, cocos2d::CCParticleSystemQuad* (*)(char const*, bool)>::Impl<cocos2d::CCParticleSystemQuad* (*)(char const*, bool)>::function(char const*, bool)
PUBLIC cd668 0 geode::modifier::ModifyDerive<hook32<(anonymous namespace)::hook32Parent>, CCCircleWave>::apply()
PUBLIC cda60 0 geode::modifier::ModifyBase<geode::modifier::ModifyDerive<hook32<(anonymous namespace)::hook32Parent>, CCCircleWave> >::apply()
PUBLIC cda64 0 geode::modifier::AsStaticFunction_create<hook32<(anonymous namespace)::hook32Parent>, CCCircleWave* (*)(float, float, float, bool, bool)>::Impl<CCCircleWave* (*)(float, float, float, bool, bool)>::function(float, float, float, bool, bool)
PUBLIC cdb5c 0 geode::modifier::ModifyDerive<hook47<(anonymous namespace)::hook47Parent>, PlayLayer>::apply()
PUBLIC cde9c 0 geode::modifier::ModifyBase<geode::modifier::ModifyDerive<hook47<(anonymous namespace)::hook47Parent>, PlayLayer> >::apply()
PUBLIC cdea0 0 geode::modifier::AsStaticFunction_showCompleteText<hook47<(anonymous namespace)::hook47Parent>, void (hook47<(anonymous namespace)::hook47Parent>::*)()>::Impl<void (hook47<(anonymous namespace)::hook47Parent>::*)()>::function(hook47<(anonymous namespace)::hook47Parent>*)
PUBLIC ce080 0 geode::cocos::CCArrayExt<cocos2d::CCNode*, cocos2d::CCNode>::~CCArrayExt()
PUBLIC ce09c 0 geode::modifier::ModifyDerive<hook65<(anonymous namespace)::hook65Parent>, EndLevelLayer>::apply()
PUBLIC ce3dc 0 geode::modifier::ModifyBase<geode::modifier::ModifyDerive<hook65<(anonymous namespace)::hook65Parent>, EndLevelLayer> >::apply()
PUBLIC ce3e0 0 geode::modifier::AsStaticFunction_customSetup<hook65<(anonymous namespace)::hook65Parent>, void (hook65<(anonymous namespace)::hook65Parent>::*)()>::Impl<void (hook65<(anonymous namespace)::hook65Parent>::*)()>::function(hook65<(anonymous namespace)::hook65Parent>*)
PUBLIC ce5a4 0 geode::addresser::Addresser::addressOfVirtual<void, EndLevelLayer, >(void (EndLevelLayer::*)())
PUBLIC ce690 0 EndLevelLayer::EndLevelLayer(geode::ZeroConstructorType)
PUBLIC ce720 0 std::__ndk1::__function::__func<hook65<(anonymous namespace)::hook65Parent>::customSetup()::{lambda()#1}, std::__ndk1::allocator<hook65<(anonymous namespace)::hook65Parent>::customSetup()::{lambda()#1}>, void ()>::~__func()
PUBLIC ce724 0 std::__ndk1::__function::__func<hook65<(anonymous namespace)::hook65Parent>::customSetup()::{lambda()#1}, std::__ndk1::allocator<hook65<(anonymous namespace)::hook65Parent>::customSetup()::{lambda()#1}>, void ()>::__clone() const
PUBLIC ce758 0 std::__ndk1::__function::__func<hook65<(anonymous namespace)::hook65Parent>::customSetup()::{lambda()#1}, std::__ndk1::allocator<hook65<(anonymous namespace)::hook65Parent>::customSetup()::{lambda()#1}>, void ()>::__clone(std::__ndk1::__function::__base<void ()>*) const
PUBLIC ce76c 0 std::__ndk1::__function::__func<hook65<(anonymous namespace)::hook65Parent>::customSetup()::{lambda()#1}, std::__ndk1::allocator<hook65<(anonymous namespace)::hook65Parent>::customSetup()::{lambda()#1}>, void ()>::destroy()
PUBLIC ce770 0 std::__ndk1::__function::__func<hook65<(anonymous namespace)::hook65Parent>::customSetup()::{lambda()#1}, std::__ndk1::allocator<hook65<(anonymous namespace)::hook65Parent>::customSetup()::{lambda()#1}>, void ()>::destroy_deallocate()
PUBLIC ce774 0 std::__ndk1::__function::__func<hook65<(anonymous namespace)::hook65Parent>::customSetup()::{lambda()#1}, std::__ndk1::allocator<hook65<(anonymous namespace)::hook65Parent>::customSetup()::{lambda()#1}>, void ()>::operator()()
PUBLIC ce788 0 std::__ndk1::__function::__func<hook65<(anonymous namespace)::hook65Parent>::customSetup()::{lambda()#1}, std::__ndk1::allocator<hook65<(anonymous namespace)::hook65Parent>::customSetup()::{lambda()#1}>, void ()>::target(std::type_info const&) const
PUBLIC ce7a4 0 std::__ndk1::__function::__func<hook65<(anonymous namespace)::hook65Parent>::customSetup()::{lambda()#1}, std::__ndk1::allocator<hook65<(anonymous namespace)::hook65Parent>::customSetup()::{lambda()#1}>, void ()>::target_type() const
PUBLIC ce7b0 0 geode::modifier::ModifyDerive<hook80<(anonymous namespace)::hook80Parent>, FMODAudioEngine>::apply()
PUBLIC cebd4 0 geode::modifier::ModifyBase<geode::modifier::ModifyDerive<hook80<(anonymous namespace)::hook80Parent>, FMODAudioEngine> >::apply()
PUBLIC cebd8 0 geode::modifier::AsStaticFunction_playEffect<hook80<(anonymous namespace)::hook80Parent>, void (hook80<(anonymous namespace)::hook80Parent>::*)(gd::string, float, float, float)>::Impl<void (hook80<(anonymous namespace)::hook80Parent>::*)(gd::string, float, float, float)>::function(hook80<(anonymous namespace)::hook80Parent>*, gd::string, float, float, float)
PUBLIC ced38 0 geode::modifier::ModifyDerive<hook89<(anonymous namespace)::hook89Parent>, GJBaseGameLayer>::apply()
PUBLIC cf0b8 0 geode::modifier::ModifyBase<geode::modifier::ModifyDerive<hook89<(anonymous namespace)::hook89Parent>, GJBaseGameLayer> >::apply()
PUBLIC cf0bc 0 geode::modifier::AsStaticFunction_update<hook89<(anonymous namespace)::hook89Parent>, void (hook89<(anonymous namespace)::hook89Parent>::*)(float)>::Impl<void (hook89<(anonymous namespace)::hook89Parent>::*)(float)>::function(hook89<(anonymous namespace)::hook89Parent>*, float)
PUBLIC cfb5c 0 geode::addresser::Addresser::addressOfVirtual<void, GJBaseGameLayer, float>(void (GJBaseGameLayer::*)(float))
PUBLIC cfc48 0 GJBaseGameLayer::GJBaseGameLayer(geode::ZeroConstructorType)
PUBLIC d03f8 0 geode::modifier::ModifyDerive<hook114<(anonymous namespace)::hook114Parent>, cocos2d::CCScheduler>::apply()
PUBLIC d0780 0 geode::modifier::ModifyBase<geode::modifier::ModifyDerive<hook114<(anonymous namespace)::hook114Parent>, cocos2d::CCScheduler> >::apply()
PUBLIC d0784 0 geode::modifier::AsStaticFunction_update<hook114<(anonymous namespace)::hook114Parent>, void (hook114<(anonymous namespace)::hook114Parent>::*)(float)>::Impl<void (hook114<(anonymous namespace)::hook114Parent>::*)(float)>::function(hook114<(anonymous namespace)::hook114Parent>*, float)
PUBLIC d0a1c 0 geode::addresser::Addresser::addressOfVirtual<void, cocos2d::CCScheduler, float>(void (cocos2d::CCScheduler::*)(float))
PUBLIC d0b14 0 std::__ndk1::__thread_proxy[abi:ne180000]<std::__ndk1::tuple<std::__ndk1::unique_ptr<std::__ndk1::__thread_struct, std::__ndk1::default_delete<std::__ndk1::unique_ptr> >, Renderer::start()::$_0> >(std::__ndk1::tuple<std::__ndk1::unique_ptr<std::__ndk1::__thread_struct, std::__ndk1::default_delete<std::__ndk1::unique_ptr> >, Renderer::start()::$_0>)
PUBLIC d2150 0 std::__ndk1::unique_ptr<std::__ndk1::tuple<std::__ndk1::unique_ptr<std::__ndk1::__thread_struct, std::__ndk1::default_delete<std::__ndk1::__thread_struct> >, Renderer::start()::$_0>, std::__ndk1::default_delete<std::__ndk1::tuple<std::__ndk1::unique_ptr<std::__ndk1::__thread_struct, std::__ndk1::default_delete<std::__ndk1::__thread_struct> >, Renderer::start()::$_0> > >::~unique_ptr[abi:ne180000]()
PUBLIC d21a8 0 std::__ndk1::unique_ptr<std::__ndk1::__thread_struct, std::__ndk1::default_delete<std::__ndk1::__thread_struct> >::~unique_ptr[abi:ne180000]()
PUBLIC d21e4 0 std::__ndk1::__function::__func<Renderer::start()::$_0::operator()() const::{lambda()#1}, std::__ndk1::allocator<Renderer::start()::$_0::operator()() const::{lambda()#1}>, void ()>::~__func()
PUBLIC d21e8 0 std::__ndk1::__function::__func<Renderer::start()::$_0::operator()() const::{lambda()#1}, std::__ndk1::allocator<Renderer::start()::$_0::operator()() const::{lambda()#1}>, void ()>::__clone() const
PUBLIC d220c 0 std::__ndk1::__function::__func<Renderer::start()::$_0::operator()() const::{lambda()#1}, std::__ndk1::allocator<Renderer::start()::$_0::operator()() const::{lambda()#1}>, void ()>::__clone(std::__ndk1::__function::__base<void ()>*) const
PUBLIC d221c 0 std::__ndk1::__function::__func<Renderer::start()::$_0::operator()() const::{lambda()#1}, std::__ndk1::allocator<Renderer::start()::$_0::operator()() const::{lambda()#1}>, void ()>::destroy()
PUBLIC d2220 0 std::__ndk1::__function::__func<Renderer::start()::$_0::operator()() const::{lambda()#1}, std::__ndk1::allocator<Renderer::start()::$_0::operator()() const::{lambda()#1}>, void ()>::destroy_deallocate()
PUBLIC d2224 0 std::__ndk1::__function::__func<Renderer::start()::$_0::operator()() const::{lambda()#1}, std::__ndk1::allocator<Renderer::start()::$_0::operator()() const::{lambda()#1}>, void ()>::operator()()
PUBLIC d2300 0 std::__ndk1::__function::__func<Renderer::start()::$_0::operator()() const::{lambda()#1}, std::__ndk1::allocator<Renderer::start()::$_0::operator()() const::{lambda()#1}>, void ()>::target(std::type_info const&) const
PUBLIC d231c 0 std::__ndk1::__function::__func<Renderer::start()::$_0::operator()() const::{lambda()#1}, std::__ndk1::allocator<Renderer::start()::$_0::operator()() const::{lambda()#1}>, void ()>::target_type() const
PUBLIC d2328 0 std::__ndk1::__function::__func<Renderer::start()::$_0::operator()() const::{lambda()#2}, std::__ndk1::allocator<Renderer::start()::$_0::operator()() const::{lambda()#2}>, void ()>::~__func()
PUBLIC d232c 0 std::__ndk1::__function::__func<Renderer::start()::$_0::operator()() const::{lambda()#2}, std::__ndk1::allocator<Renderer::start()::$_0::operator()() const::{lambda()#2}>, void ()>::__clone() const
PUBLIC d2350 0 std::__ndk1::__function::__func<Renderer::start()::$_0::operator()() const::{lambda()#2}, std::__ndk1::allocator<Renderer::start()::$_0::operator()() const::{lambda()#2}>, void ()>::__clone(std::__ndk1::__function::__base<void ()>*) const
PUBLIC d2360 0 std::__ndk1::__function::__func<Renderer::start()::$_0::operator()() const::{lambda()#2}, std::__ndk1::allocator<Renderer::start()::$_0::operator()() const::{lambda()#2}>, void ()>::destroy()
PUBLIC d2364 0 std::__ndk1::__function::__func<Renderer::start()::$_0::operator()() const::{lambda()#2}, std::__ndk1::allocator<Renderer::start()::$_0::operator()() const::{lambda()#2}>, void ()>::destroy_deallocate()
PUBLIC d2368 0 std::__ndk1::__function::__func<Renderer::start()::$_0::operator()() const::{lambda()#2}, std::__ndk1::allocator<Renderer::start()::$_0::operator()() const::{lambda()#2}>, void ()>::operator()()
PUBLIC d2414 0 std::__ndk1::__function::__func<Renderer::start()::$_0::operator()() const::{lambda()#2}, std::__ndk1::allocator<Renderer::start()::$_0::operator()() const::{lambda()#2}>, void ()>::target(std::type_info const&) const
PUBLIC d2430 0 std::__ndk1::__function::__func<Renderer::start()::$_0::operator()() const::{lambda()#2}, std::__ndk1::allocator<Renderer::start()::$_0::operator()() const::{lambda()#2}>, void ()>::target_type() const
PUBLIC d243c 0 std::__ndk1::__function::__func<Renderer::start()::$_0::operator()() const::{lambda()#3}, std::__ndk1::allocator<Renderer::start()::$_0::operator()() const::{lambda()#3}>, void ()>::~__func()
PUBLIC d2440 0 std::__ndk1::__function::__func<Renderer::start()::$_0::operator()() const::{lambda()#3}, std::__ndk1::allocator<Renderer::start()::$_0::operator()() const::{lambda()#3}>, void ()>::__clone() const
PUBLIC d2464 0 std::__ndk1::__function::__func<Renderer::start()::$_0::operator()() const::{lambda()#3}, std::__ndk1::allocator<Renderer::start()::$_0::operator()() const::{lambda()#3}>, void ()>::__clone(std::__ndk1::__function::__base<void ()>*) const
PUBLIC d2474 0 std::__ndk1::__function::__func<Renderer::start()::$_0::operator()() const::{lambda()#3}, std::__ndk1::allocator<Renderer::start()::$_0::operator()() const::{lambda()#3}>, void ()>::destroy()
PUBLIC d2478 0 std::__ndk1::__function::__func<Renderer::start()::$_0::operator()() const::{lambda()#3}, std::__ndk1::allocator<Renderer::start()::$_0::operator()() const::{lambda()#3}>, void ()>::destroy_deallocate()
PUBLIC d247c 0 std::__ndk1::__function::__func<Renderer::start()::$_0::operator()() const::{lambda()#3}, std::__ndk1::allocator<Renderer::start()::$_0::operator()() const::{lambda()#3}>, void ()>::operator()()
PUBLIC d2558 0 std::__ndk1::__function::__func<Renderer::start()::$_0::operator()() const::{lambda()#3}, std::__ndk1::allocator<Renderer::start()::$_0::operator()() const::{lambda()#3}>, void ()>::target(std::type_info const&) const
PUBLIC d2574 0 std::__ndk1::__function::__func<Renderer::start()::$_0::operator()() const::{lambda()#3}, std::__ndk1::allocator<Renderer::start()::$_0::operator()() const::{lambda()#3}>, void ()>::target_type() const
PUBLIC d2580 0 std::__ndk1::__function::__func<Renderer::start()::$_0::operator()() const::{lambda()#4}, std::__ndk1::allocator<Renderer::start()::$_0::operator()() const::{lambda()#4}>, void ()>::~__func()
PUBLIC d2584 0 std::__ndk1::__function::__func<Renderer::start()::$_0::operator()() const::{lambda()#4}, std::__ndk1::allocator<Renderer::start()::$_0::operator()() const::{lambda()#4}>, void ()>::__clone() const
PUBLIC d25a8 0 std::__ndk1::__function::__func<Renderer::start()::$_0::operator()() const::{lambda()#4}, std::__ndk1::allocator<Renderer::start()::$_0::operator()() const::{lambda()#4}>, void ()>::__clone(std::__ndk1::__function::__base<void ()>*) const
PUBLIC d25b8 0 std::__ndk1::__function::__func<Renderer::start()::$_0::operator()() const::{lambda()#4}, std::__ndk1::allocator<Renderer::start()::$_0::operator()() const::{lambda()#4}>, void ()>::destroy()
PUBLIC d25bc 0 std::__ndk1::__function::__func<Renderer::start()::$_0::operator()() const::{lambda()#4}, std::__ndk1::allocator<Renderer::start()::$_0::operator()() const::{lambda()#4}>, void ()>::destroy_deallocate()
PUBLIC d25c0 0 std::__ndk1::__function::__func<Renderer::start()::$_0::operator()() const::{lambda()#4}, std::__ndk1::allocator<Renderer::start()::$_0::operator()() const::{lambda()#4}>, void ()>::operator()()
PUBLIC d278c 0 std::__ndk1::__function::__func<Renderer::start()::$_0::operator()() const::{lambda()#4}, std::__ndk1::allocator<Renderer::start()::$_0::operator()() const::{lambda()#4}>, void ()>::target(std::type_info const&) const
PUBLIC d27a8 0 std::__ndk1::__function::__func<Renderer::start()::$_0::operator()() const::{lambda()#4}, std::__ndk1::allocator<Renderer::start()::$_0::operator()() const::{lambda()#4}>, void ()>::target_type() const
PUBLIC d27b4 0 std::__ndk1::__function::__func<Renderer::start()::$_0::operator()() const::{lambda()#5}, std::__ndk1::allocator<Renderer::start()::$_0::operator()() const::{lambda()#5}>, void ()>::~__func()
PUBLIC d27b8 0 std::__ndk1::__function::__func<Renderer::start()::$_0::operator()() const::{lambda()#5}, std::__ndk1::allocator<Renderer::start()::$_0::operator()() const::{lambda()#5}>, void ()>::__clone() const
PUBLIC d27dc 0 std::__ndk1::__function::__func<Renderer::start()::$_0::operator()() const::{lambda()#5}, std::__ndk1::allocator<Renderer::start()::$_0::operator()() const::{lambda()#5}>, void ()>::__clone(std::__ndk1::__function::__base<void ()>*) const
PUBLIC d27ec 0 std::__ndk1::__function::__func<Renderer::start()::$_0::operator()() const::{lambda()#5}, std::__ndk1::allocator<Renderer::start()::$_0::operator()() const::{lambda()#5}>, void ()>::destroy()
PUBLIC d27f0 0 std::__ndk1::__function::__func<Renderer::start()::$_0::operator()() const::{lambda()#5}, std::__ndk1::allocator<Renderer::start()::$_0::operator()() const::{lambda()#5}>, void ()>::destroy_deallocate()
PUBLIC d27f4 0 std::__ndk1::__function::__func<Renderer::start()::$_0::operator()() const::{lambda()#5}, std::__ndk1::allocator<Renderer::start()::$_0::operator()() const::{lambda()#5}>, void ()>::operator()()
PUBLIC d28b8 0 std::__ndk1::__function::__func<Renderer::start()::$_0::operator()() const::{lambda()#5}, std::__ndk1::allocator<Renderer::start()::$_0::operator()() const::{lambda()#5}>, void ()>::target(std::type_info const&) const
PUBLIC d28d4 0 std::__ndk1::__function::__func<Renderer::start()::$_0::operator()() const::{lambda()#5}, std::__ndk1::allocator<Renderer::start()::$_0::operator()() const::{lambda()#5}>, void ()>::target_type() const
PUBLIC d28e0 0 __cxx_global_array_dtor
PUBLIC d2914 0 __cxx_global_array_dtor.10
PUBLIC d29f4 0 __cxx_global_var_init.13
PUBLIC d2e30 0 __cxx_global_var_init.14
PUBLIC d326c 0 __cxx_global_var_init.15
PUBLIC d36a8 0 __cxx_global_var_init.16
PUBLIC d3ae4 0 __cxx_global_var_init.17
PUBLIC d3f20 0 __cxx_global_var_init.18
PUBLIC d435c 0 __cxx_global_var_init.19
PUBLIC d4798 0 _GLOBAL__sub_I_other.cpp
PUBLIC d4c70 0 geode::modifier::ModifyBase<geode::modifier::ModifyDerive<hook14<(anonymous namespace)::hook14Parent>, cocos2d::CCScheduler> >::~ModifyBase()
PUBLIC d4c8c 0 geode::modifier::ModifyBase<geode::modifier::ModifyDerive<hook73<(anonymous namespace)::hook73Parent>, PlayerObject> >::~ModifyBase()
PUBLIC d4ca8 0 geode::modifier::ModifyBase<geode::modifier::ModifyDerive<hook87<(anonymous namespace)::hook87Parent>, PlayLayer> >::~ModifyBase()
PUBLIC d4cc4 0 geode::modifier::ModifyBase<geode::modifier::ModifyDerive<hook173<(anonymous namespace)::hook173Parent>, EndLevelLayer> >::~ModifyBase()
PUBLIC d4ce0 0 geode::modifier::ModifyBase<geode::modifier::ModifyDerive<hook245<(anonymous namespace)::hook245Parent>, GJGameLevel> >::~ModifyBase()
PUBLIC d4cfc 0 geode::modifier::ModifyBase<geode::modifier::ModifyDerive<hook253<(anonymous namespace)::hook253Parent>, EffectGameObject> >::~ModifyBase()
PUBLIC d4d18 0 geode::modifier::ModifyBase<geode::modifier::ModifyDerive<hook268<(anonymous namespace)::hook268Parent>, GameLevelOptionsLayer> >::~ModifyBase()
PUBLIC d4d34 0 geode::modifier::ModifyDerive<hook14<(anonymous namespace)::hook14Parent>, cocos2d::CCScheduler>::apply()
PUBLIC d50bc 0 geode::modifier::ModifyBase<geode::modifier::ModifyDerive<hook14<(anonymous namespace)::hook14Parent>, cocos2d::CCScheduler> >::apply()
PUBLIC d50c0 0 geode::modifier::AsStaticFunction_update<hook14<(anonymous namespace)::hook14Parent>, void (hook14<(anonymous namespace)::hook14Parent>::*)(float)>::Impl<void (hook14<(anonymous namespace)::hook14Parent>::*)(float)>::function(hook14<(anonymous namespace)::hook14Parent>*, float)
PUBLIC d53c0 0 geode::modifier::ModifyDerive<hook73<(anonymous namespace)::hook73Parent>, PlayerObject>::apply()
PUBLIC d5860 0 geode::modifier::ModifyBase<geode::modifier::ModifyDerive<hook73<(anonymous namespace)::hook73Parent>, PlayerObject> >::apply()
PUBLIC d5864 0 geode::Hook::create<void (*)(hook73<(anonymous namespace)::hook73Parent>*)>(void*, void (*)(hook73<(anonymous namespace)::hook73Parent>*), std::__ndk1::basic_string<char, std::__ndk1::char_traits<char>, std::__ndk1::allocator<char> > const&, tulip::hook::TulipConvention, tulip::hook::HookMetadata const&)
PUBLIC d5998 0 geode::modifier::AsStaticFunction_playDeathEffect<hook73<(anonymous namespace)::hook73Parent>, void (hook73<(anonymous namespace)::hook73Parent>::*)()>::Impl<void (hook73<(anonymous namespace)::hook73Parent>::*)()>::function(hook73<(anonymous namespace)::hook73Parent>*)
PUBLIC d5a50 0 geode::modifier::AsStaticFunction_playSpawnEffect<hook73<(anonymous namespace)::hook73Parent>, void (hook73<(anonymous namespace)::hook73Parent>::*)()>::Impl<void (hook73<(anonymous namespace)::hook73Parent>::*)()>::function(hook73<(anonymous namespace)::hook73Parent>*)
PUBLIC d5b08 0 geode::modifier::ModifyDerive<hook87<(anonymous namespace)::hook87Parent>, PlayLayer>::apply()
PUBLIC d6764 0 geode::modifier::ModifyBase<geode::modifier::ModifyDerive<hook87<(anonymous namespace)::hook87Parent>, PlayLayer> >::apply()
PUBLIC d6768 0 geode::modifier::AsStaticFunction_postUpdate<hook87<(anonymous namespace)::hook87Parent>, void (hook87<(anonymous namespace)::hook87Parent>::*)(float)>::Impl<void (hook87<(anonymous namespace)::hook87Parent>::*)(float)>::function(hook87<(anonymous namespace)::hook87Parent>*, float)
PUBLIC d6880 0 geode::modifier::AsStaticFunction_destroyPlayer<hook87<(anonymous namespace)::hook87Parent>, void (hook87<(anonymous namespace)::hook87Parent>::*)(PlayerObject*, GameObject*)>::Impl<void (hook87<(anonymous namespace)::hook87Parent>::*)(PlayerObject*, GameObject*)>::function(hook87<(anonymous namespace)::hook87Parent>*, PlayerObject*, GameObject*)
PUBLIC d6c24 0 geode::modifier::AsStaticFunction_levelComplete<hook87<(anonymous namespace)::hook87Parent>, void (hook87<(anonymous namespace)::hook87Parent>::*)()>::Impl<void (hook87<(anonymous namespace)::hook87Parent>::*)()>::function(hook87<(anonymous namespace)::hook87Parent>*)
PUBLIC d6d64 0 geode::modifier::AsStaticFunction_showNewBest<hook87<(anonymous namespace)::hook87Parent>, void (hook87<(anonymous namespace)::hook87Parent>::*)(bool, int, int, bool, bool, bool)>::Impl<void (hook87<(anonymous namespace)::hook87Parent>::*)(bool, int, int, bool, bool, bool)>::function(hook87<(anonymous namespace)::hook87Parent>*, bool, int, int, bool, bool, bool)
PUBLIC d6ea0 0 geode::addresser::Addresser::addressOfVirtual<void, PlayLayer, PlayerObject*, GameObject*>(void (PlayLayer::*)(PlayerObject*, GameObject*))
PUBLIC d6f8c 0 geode::modifier::FieldIntermediate<hook87<(anonymous namespace)::hook87Parent>, PlayLayer>::operator->()
PUBLIC d7118 0 cocos2d::CCSequence::create(cocos2d::CCFiniteTimeAction*, ...)
PUBLIC d71b0 0 geode::modifier::FieldIntermediate<hook87<(anonymous namespace)::hook87Parent>, PlayLayer>::fieldDestructor(void*)
PUBLIC d71b4 0 geode::modifier::ModifyDerive<hook173<(anonymous namespace)::hook173Parent>, EndLevelLayer>::apply()
PUBLIC d77d0 0 geode::modifier::ModifyBase<geode::modifier::ModifyDerive<hook173<(anonymous namespace)::hook173Parent>, EndLevelLayer> >::apply()
PUBLIC d77d4 0 geode::modifier::AsStaticFunction_customSetup<hook173<(anonymous namespace)::hook173Parent>, void (hook173<(anonymous namespace)::hook173Parent>::*)()>::Impl<void (hook173<(anonymous namespace)::hook173Parent>::*)()>::function(hook173<(anonymous namespace)::hook173Parent>*)
PUBLIC d80d4 0 geode::modifier::AsStaticFunction_onHideLayer<hook173<(anonymous namespace)::hook173Parent>, void (hook173<(anonymous namespace)::hook173Parent>::*)(cocos2d::CCObject*)>::Impl<void (hook173<(anonymous namespace)::hook173Parent>::*)(cocos2d::CCObject*)>::function(hook173<(anonymous namespace)::hook173Parent>*, cocos2d::CCObject*)
PUBLIC d813c 0 RecordLayer::openMenu2(cocos2d::CCObject*)
PUBLIC d8144 0 geode::modifier::ModifyDerive<hook245<(anonymous namespace)::hook245Parent>, GJGameLevel>::apply()
PUBLIC d8564 0 geode::modifier::ModifyBase<geode::modifier::ModifyDerive<hook245<(anonymous namespace)::hook245Parent>, GJGameLevel> >::apply()
PUBLIC d8568 0 geode::modifier::AsStaticFunction_savePercentage<hook245<(anonymous namespace)::hook245Parent>, void (hook245<(anonymous namespace)::hook245Parent>::*)(int, bool, int, int, bool)>::Impl<void (hook245<(anonymous namespace)::hook245Parent>::*)(int, bool, int, int, bool)>::function(hook245<(anonymous namespace)::hook245Parent>*, int, bool, int, int, bool)
PUBLIC d869c 0 geode::modifier::ModifyDerive<hook253<(anonymous namespace)::hook253Parent>, EffectGameObject>::apply()
PUBLIC d8a80 0 geode::modifier::ModifyBase<geode::modifier::ModifyDerive<hook253<(anonymous namespace)::hook253Parent>, EffectGameObject> >::apply()
PUBLIC d8a84 0 geode::modifier::AsStaticFunction_triggerObject<hook253<(anonymous namespace)::hook253Parent>, void (hook253<(anonymous namespace)::hook253Parent>::*)(GJBaseGameLayer*, int, gd::vector<int> const*)>::Impl<void (hook253<(anonymous namespace)::hook253Parent>::*)(GJBaseGameLayer*, int, gd::vector<int> const*)>::function(hook253<(anonymous namespace)::hook253Parent>*, GJBaseGameLayer*, int, gd::vector<int> const*)
PUBLIC d8cb8 0 geode::modifier::ModifyDerive<hook268<(anonymous namespace)::hook268Parent>, GameLevelOptionsLayer>::apply()
PUBLIC d8ff8 0 geode::modifier::ModifyBase<geode::modifier::ModifyDerive<hook268<(anonymous namespace)::hook268Parent>, GameLevelOptionsLayer> >::apply()
PUBLIC d8ffc 0 geode::modifier::AsStaticFunction_create<hook268<(anonymous namespace)::hook268Parent>, GameLevelOptionsLayer* (*)(GJGameLevel*)>::Impl<GameLevelOptionsLayer* (*)(GJGameLevel*)>::function(GJGameLevel*)
PUBLIC d9254 0 __cxx_global_array_dtor
PUBLIC d9288 0 __cxx_global_array_dtor.10
PUBLIC d9368 0 __cxx_global_var_init.11
PUBLIC d97a4 0 _GLOBAL__sub_I_tps_bypass.cpp
PUBLIC d9ab0 0 geode::modifier::ModifyBase<geode::modifier::ModifyDerive<hook4<(anonymous namespace)::hook4Parent>, GJBaseGameLayer> >::~ModifyBase()
PUBLIC d9acc 0 geode::modifier::ModifyDerive<hook4<(anonymous namespace)::hook4Parent>, GJBaseGameLayer>::apply()
PUBLIC da120 0 geode::modifier::ModifyBase<geode::modifier::ModifyDerive<hook4<(anonymous namespace)::hook4Parent>, GJBaseGameLayer> >::apply()
PUBLIC da124 0 geode::modifier::AsStaticFunction_update<hook4<(anonymous namespace)::hook4Parent>, void (hook4<(anonymous namespace)::hook4Parent>::*)(float)>::Impl<void (hook4<(anonymous namespace)::hook4Parent>::*)(float)>::function(hook4<(anonymous namespace)::hook4Parent>*, float)
PUBLIC da3c8 0 geode::modifier::AsStaticFunction_getModifiedDelta<hook4<(anonymous namespace)::hook4Parent>, float (hook4<(anonymous namespace)::hook4Parent>::*)(float)>::Impl<float (hook4<(anonymous namespace)::hook4Parent>::*)(float)>::function(hook4<(anonymous namespace)::hook4Parent>*, float)
PUBLIC da608 0 __cxx_global_array_dtor
PUBLIC da63c 0 __cxx_global_array_dtor.10
PUBLIC da71c 0 __cxx_global_var_init.11
PUBLIC dab58 0 __cxx_global_var_init.12
PUBLIC daf94 0 __cxx_global_var_init.13
PUBLIC db3d0 0 _GLOBAL__sub_I_frame_stepper.cpp
PUBLIC db6dc 0 geode::modifier::ModifyBase<geode::modifier::ModifyDerive<hook53<(anonymous namespace)::hook53Parent>, PlayLayer> >::~ModifyBase()
PUBLIC db6f8 0 geode::modifier::ModifyBase<geode::modifier::ModifyDerive<hook64<(anonymous namespace)::hook64Parent>, GJBaseGameLayer> >::~ModifyBase()
PUBLIC db714 0 geode::modifier::ModifyBase<geode::modifier::ModifyDerive<hook98<(anonymous namespace)::hook98Parent>, cocos2d::CCParticleSystem> >::~ModifyBase()
PUBLIC db730 0 geode::modifier::ModifyDerive<hook53<(anonymous namespace)::hook53Parent>, PlayLayer>::apply()
PUBLIC dba70 0 geode::modifier::ModifyBase<geode::modifier::ModifyDerive<hook53<(anonymous namespace)::hook53Parent>, PlayLayer> >::apply()
PUBLIC dba74 0 geode::modifier::AsStaticFunction_setupHasCompleted<hook53<(anonymous namespace)::hook53Parent>, void (hook53<(anonymous namespace)::hook53Parent>::*)()>::Impl<void (hook53<(anonymous namespace)::hook53Parent>::*)()>::function(hook53<(anonymous namespace)::hook53Parent>*)
PUBLIC dbb18 0 geode::modifier::ModifyDerive<hook64<(anonymous namespace)::hook64Parent>, GJBaseGameLayer>::apply()
PUBLIC dbe98 0 geode::modifier::ModifyBase<geode::modifier::ModifyDerive<hook64<(anonymous namespace)::hook64Parent>, GJBaseGameLayer> >::apply()
PUBLIC dbe9c 0 geode::modifier::AsStaticFunction_update<hook64<(anonymous namespace)::hook64Parent>, void (hook64<(anonymous namespace)::hook64Parent>::*)(float)>::Impl<void (hook64<(anonymous namespace)::hook64Parent>::*)(float)>::function(hook64<(anonymous namespace)::hook64Parent>*, float)
PUBLIC dc0e4 0 geode::modifier::ModifyDerive<hook98<(anonymous namespace)::hook98Parent>, cocos2d::CCParticleSystem>::apply()
PUBLIC dc460 0 geode::modifier::ModifyBase<geode::modifier::ModifyDerive<hook98<(anonymous namespace)::hook98Parent>, cocos2d::CCParticleSystem> >::apply()
PUBLIC dc464 0 geode::modifier::AsStaticFunction_update<hook98<(anonymous namespace)::hook98Parent>, void (hook98<(anonymous namespace)::hook98Parent>::*)(float)>::Impl<void (hook98<(anonymous namespace)::hook98Parent>::*)(float)>::function(hook98<(anonymous namespace)::hook98Parent>*, float)
PUBLIC dc550 0 geode::addresser::Addresser::addressOfVirtual<void, cocos2d::CCParticleSystem, float>(void (cocos2d::CCParticleSystem::*)(float))
PUBLIC dc618 0 cocos2d::CCParticleSystem::CCParticleSystem(geode::ZeroConstructorType)
PUBLIC dc6a4 0 __cxx_global_array_dtor
PUBLIC dc6d8 0 __cxx_global_array_dtor.10
PUBLIC dc7b8 0 __cxx_global_var_init.29
PUBLIC dcbf4 0 __cxx_global_var_init.30
PUBLIC dd030 0 _GLOBAL__sub_I_layout_mode.cpp
PUBLIC de644 0 LayoutMode::getModifiedString(std::__ndk1::basic_string<char, std::__ndk1::char_traits<char>, std::__ndk1::allocator<char> >)
PUBLIC e19e0 0 LayoutMode::mergeVector(std::__ndk1::vector<std::__ndk1::basic_string<char, std::__ndk1::char_traits<char>, std::__ndk1::allocator<char> >, std::__ndk1::allocator<std::__ndk1::basic_string<char, std::__ndk1::char_traits<char>, std::__ndk1::allocator<char> > > >, std::__ndk1::basic_string<char, std::__ndk1::char_traits<char>, std::__ndk1::allocator<char> >)
PUBLIC e1bdc 0 LevelObject::~LevelObject()
PUBLIC e1c70 0 std::__ndk1::vector<LevelObject, std::__ndk1::allocator<LevelObject> >::~vector[abi:ne180000]()
PUBLIC e1d5c 0 geode::modifier::ModifyBase<geode::modifier::ModifyDerive<hook6<(anonymous namespace)::hook6Parent>, LevelTools> >::~ModifyBase()
PUBLIC e1d78 0 geode::modifier::ModifyBase<geode::modifier::ModifyDerive<hook13<(anonymous namespace)::hook13Parent>, PlayLayer> >::~ModifyBase()
PUBLIC e1d94 0 std::__ndk1::vector<std::__ndk1::basic_string<char, std::__ndk1::char_traits<char>, std::__ndk1::allocator<char> >, std::__ndk1::allocator<std::__ndk1::basic_string<char, std::__ndk1::char_traits<char>, std::__ndk1::allocator<char> > > >::__init_with_size[abi:ne180000]<std::__ndk1::basic_string<char, std::__ndk1::char_traits<char>, std::__ndk1::allocator<char> >*, std::__ndk1::vector<std::__ndk1::basic_string<char, std::__ndk1::char_traits<char>, std::__ndk1::allocator<char> >, std::__ndk1::allocator<std::__ndk1::basic_string<char, std::__ndk1::char_traits<char>, std::__ndk1::allocator<char> > > >::__init_with_size[abi:ne180000]>(std::__ndk1::basic_string<char, std::__ndk1::char_traits<char>, std::__ndk1::allocator<char> >*, std::__ndk1::vector<std::__ndk1::basic_string<char, std::__ndk1::char_traits<char>, std::__ndk1::allocator<char> >, std::__ndk1::allocator<std::__ndk1::basic_string<char, std::__ndk1::char_traits<char>, std::__ndk1::allocator<char> > > >::__init_with_size[abi:ne180000], unsigned long)
PUBLIC e1f00 0 std::__ndk1::vector<LevelObject, std::__ndk1::allocator<LevelObject> >::__throw_length_error[abi:ne180000]() const
PUBLIC e1f14 0 geode::modifier::ModifyDerive<hook6<(anonymous namespace)::hook6Parent>, LevelTools>::apply()
PUBLIC e22a0 0 geode::modifier::ModifyBase<geode::modifier::ModifyDerive<hook6<(anonymous namespace)::hook6Parent>, LevelTools> >::apply()
PUBLIC e22a4 0 geode::modifier::AsStaticFunction_verifyLevelIntegrity<hook6<(anonymous namespace)::hook6Parent>, bool (*)(gd::string, int)>::Impl<bool (*)(gd::string, int)>::function(gd::string, int)
PUBLIC e23f0 0 geode::modifier::ModifyDerive<hook13<(anonymous namespace)::hook13Parent>, PlayLayer>::apply()
PUBLIC e2a60 0 geode::modifier::ModifyBase<geode::modifier::ModifyDerive<hook13<(anonymous namespace)::hook13Parent>, PlayLayer> >::apply()
PUBLIC e2a64 0 geode::modifier::AsStaticFunction_addObject<hook13<(anonymous namespace)::hook13Parent>, void (hook13<(anonymous namespace)::hook13Parent>::*)(GameObject*)>::Impl<void (hook13<(anonymous namespace)::hook13Parent>::*)(GameObject*)>::function(hook13<(anonymous namespace)::hook13Parent>*, GameObject*)
PUBLIC e2c54 0 geode::modifier::AsStaticFunction_init<hook13<(anonymous namespace)::hook13Parent>, bool (hook13<(anonymous namespace)::hook13Parent>::*)(GJGameLevel*, bool, bool)>::Impl<bool (hook13<(anonymous namespace)::hook13Parent>::*)(GJGameLevel*, bool, bool)>::function(hook13<(anonymous namespace)::hook13Parent>*, GJGameLevel*, bool, bool)
PUBLIC e2fa8 0 std::__ndk1::__hash_table<int, std::__ndk1::hash<int>, std::__ndk1::equal_to<int>, std::__ndk1::allocator<int> >::__emplace_unique_key_args<int, int>(int const&, int&&)
PUBLIC e3290 0 std::__ndk1::__tree<std::__ndk1::__value_type<int, std::__ndk1::basic_string<char, std::__ndk1::char_traits<char>, std::__ndk1::allocator<char> > >, std::__ndk1::__map_value_compare<int, std::__ndk1::__value_type<int, std::__ndk1::basic_string<char, std::__ndk1::char_traits<char>, std::__ndk1::allocator<char> > >, std::__ndk1::less<int>, true>, std::__ndk1::allocator<std::__ndk1::__value_type<int, std::__ndk1::basic_string<char, std::__ndk1::char_traits<char>, std::__ndk1::allocator<char> > > > >::destroy(std::__ndk1::__tree_node<std::__ndk1::__value_type<int, std::__ndk1::basic_string<char, std::__ndk1::char_traits<char>, std::__ndk1::allocator<char> > >, void*>*)
PUBLIC e32d8 0 std::__ndk1::unique_ptr<std::__ndk1::__tree_node<std::__ndk1::__value_type<int, std::__ndk1::basic_string<char, std::__ndk1::char_traits<char>, std::__ndk1::allocator<char> > >, void*>, std::__ndk1::__tree_node_destructor<std::__ndk1::allocator<std::__ndk1::__tree_node<std::__ndk1::__value_type<int, std::__ndk1::basic_string<char, std::__ndk1::char_traits<char>, std::__ndk1::allocator<char> > >, void*> > > >::~unique_ptr[abi:ne180000]()
PUBLIC e3328 0 __cxx_global_array_dtor
PUBLIC e335c 0 __cxx_global_array_dtor.10
PUBLIC e343c 0 __cxx_global_var_init.30
PUBLIC e3878 0 __cxx_global_var_init.31
PUBLIC e3cb4 0 __cxx_global_var_init.32
PUBLIC e40f0 0 __cxx_global_var_init.33
PUBLIC e452c 0 __cxx_global_var_init.34
PUBLIC e4968 0 __cxx_global_var_init.35
PUBLIC e4da4 0 __cxx_global_var_init.36
PUBLIC e51e0 0 _GLOBAL__sub_I_show_trajectory.cpp
PUBLIC e6fe4 0 ShowTrajectory::trajectoryNode()
PUBLIC e7104 0 ShowTrajectory::createTrajectory(PlayLayer*, PlayerObject*, PlayerObject*, bool, bool)
PUBLIC e787c 0 ShowTrajectory::getVertices(PlayerObject*, cocos2d::CCRect, float)
PUBLIC e7bfc 0 ShowTrajectory::handlePortal(PlayerObject*, int)
PUBLIC e7dec 0 geode::modifier::ModifyBase<geode::modifier::ModifyDerive<hook242<(anonymous namespace)::hook242Parent>, PlayLayer> >::~ModifyBase()
PUBLIC e7e08 0 geode::modifier::ModifyBase<geode::modifier::ModifyDerive<hook307<(anonymous namespace)::hook307Parent>, PauseLayer> >::~ModifyBase()
PUBLIC e7e24 0 geode::modifier::ModifyBase<geode::modifier::ModifyDerive<hook321<(anonymous namespace)::hook321Parent>, GJBaseGameLayer> >::~ModifyBase()
PUBLIC e7e40 0 geode::modifier::ModifyBase<geode::modifier::ModifyDerive<hook401<(anonymous namespace)::hook401Parent>, PlayerObject> >::~ModifyBase()
PUBLIC e7e5c 0 geode::modifier::ModifyBase<geode::modifier::ModifyDerive<hook425<(anonymous namespace)::hook425Parent>, HardStreak> >::~ModifyBase()
PUBLIC e7e78 0 geode::modifier::ModifyBase<geode::modifier::ModifyDerive<hook433<(anonymous namespace)::hook433Parent>, GameObject> >::~ModifyBase()
PUBLIC e7e94 0 geode::modifier::ModifyBase<geode::modifier::ModifyDerive<hook441<(anonymous namespace)::hook441Parent>, EffectGameObject> >::~ModifyBase()
PUBLIC e7eb0 0 cocos2d::CCCopying::copyWithZone(cocos2d::CCZone*)
PUBLIC e7eb8 0 TrajectoryNode::~TrajectoryNode()
PUBLIC e7edc 0 cocos2d::CCNodeRGBA::setOpacityModifyRGB(bool)
PUBLIC e7ee0 0 cocos2d::CCNodeRGBA::isOpacityModifyRGB()
PUBLIC e7ee8 0 {virtual override thunk({offset(-320)}, cocos2d::CCNodeRGBA::setOpacityModifyRGB(bool))}
PUBLIC e7eec 0 {virtual override thunk({offset(-320)}, cocos2d::CCNodeRGBA::isOpacityModifyRGB())}
PUBLIC e7ef4 0 geode::modifier::ModifyDerive<hook242<(anonymous namespace)::hook242Parent>, PlayLayer>::apply()
PUBLIC e8c28 0 geode::modifier::ModifyBase<geode::modifier::ModifyDerive<hook242<(anonymous namespace)::hook242Parent>, PlayLayer> >::apply()
PUBLIC e8c2c 0 geode::modifier::AsStaticFunction_postUpdate<hook242<(anonymous namespace)::hook242Parent>, void (hook242<(anonymous namespace)::hook242Parent>::*)(float)>::Impl<void (hook242<(anonymous namespace)::hook242Parent>::*)(float)>::function(hook242<(anonymous namespace)::hook242Parent>*, float)
PUBLIC e8e94 0 geode::modifier::AsStaticFunction_destroyPlayer<hook242<(anonymous namespace)::hook242Parent>, void (hook242<(anonymous namespace)::hook242Parent>::*)(PlayerObject*, GameObject*)>::Impl<void (hook242<(anonymous namespace)::hook242Parent>::*)(PlayerObject*, GameObject*)>::function(hook242<(anonymous namespace)::hook242Parent>*, PlayerObject*, GameObject*)
PUBLIC e8ef4 0 geode::Hook::create<void (*)(hook242<(anonymous namespace)::hook242Parent>*)>(void*, void (*)(hook242<(anonymous namespace)::hook242Parent>*), std::__ndk1::basic_string<char, std::__ndk1::char_traits<char>, std::__ndk1::allocator<char> > const&, tulip::hook::TulipConvention, tulip::hook::HookMetadata const&)
PUBLIC e9028 0 geode::modifier::AsStaticFunction_onQuit<hook242<(anonymous namespace)::hook242Parent>, void (hook242<(anonymous namespace)::hook242Parent>::*)()>::Impl<void (hook242<(anonymous namespace)::hook242Parent>::*)()>::function(hook242<(anonymous namespace)::hook242Parent>*)
PUBLIC e9068 0 geode::modifier::AsStaticFunction_playEndAnimationToPos<hook242<(anonymous namespace)::hook242Parent>, void (hook242<(anonymous namespace)::hook242Parent>::*)(cocos2d::CCPoint)>::Impl<void (hook242<(anonymous namespace)::hook242Parent>::*)(cocos2d::CCPoint)>::function(hook242<(anonymous namespace)::hook242Parent>*, cocos2d::CCPoint)
PUBLIC e90c4 0 geode::modifier::AsStaticFunction_setupHasCompleted<hook242<(anonymous namespace)::hook242Parent>, void (hook242<(anonymous namespace)::hook242Parent>::*)()>::Impl<void (hook242<(anonymous namespace)::hook242Parent>::*)()>::function(hook242<(anonymous namespace)::hook242Parent>*)
PUBLIC e9214 0 geode::modifier::ModifyDerive<hook307<(anonymous namespace)::hook307Parent>, PauseLayer>::apply()
PUBLIC e9530 0 geode::modifier::ModifyBase<geode::modifier::ModifyDerive<hook307<(anonymous namespace)::hook307Parent>, PauseLayer> >::apply()
PUBLIC e9534 0 geode::modifier::AsStaticFunction_goEdit<hook307<(anonymous namespace)::hook307Parent>, void (hook307<(anonymous namespace)::hook307Parent>::*)()>::Impl<void (hook307<(anonymous namespace)::hook307Parent>::*)()>::function(hook307<(anonymous namespace)::hook307Parent>*)
PUBLIC e9574 0 geode::modifier::ModifyDerive<hook321<(anonymous namespace)::hook321Parent>, GJBaseGameLayer>::apply()
PUBLIC eab70 0 geode::modifier::ModifyBase<geode::modifier::ModifyDerive<hook321<(anonymous namespace)::hook321Parent>, GJBaseGameLayer> >::apply()
PUBLIC eab74 0 geode::modifier::AsStaticFunction_activateSFXTrigger<hook321<(anonymous namespace)::hook321Parent>, void (hook321<(anonymous namespace)::hook321Parent>::*)(SFXTriggerGameObject*)>::Impl<void (hook321<(anonymous namespace)::hook321Parent>::*)(SFXTriggerGameObject*)>::function(hook321<(anonymous namespace)::hook321Parent>*, SFXTriggerGameObject*)
PUBLIC eab88 0 geode::modifier::AsStaticFunction_activateSongEditTrigger<hook321<(anonymous namespace)::hook321Parent>, void (hook321<(anonymous namespace)::hook321Parent>::*)(SongTriggerGameObject*)>::Impl<void (hook321<(anonymous namespace)::hook321Parent>::*)(SongTriggerGameObject*)>::function(hook321<(anonymous namespace)::hook321Parent>*, SongTriggerGameObject*)
PUBLIC eab9c 0 geode::modifier::AsStaticFunction_canBeActivatedByPlayer<hook321<(anonymous namespace)::hook321Parent>, bool (hook321<(anonymous namespace)::hook321Parent>::*)(PlayerObject*, EffectGameObject*)>::Impl<bool (hook321<(anonymous namespace)::hook321Parent>::*)(PlayerObject*, EffectGameObject*)>::function(hook321<(anonymous namespace)::hook321Parent>*, PlayerObject*, EffectGameObject*)
PUBLIC eabd0 0 geode::modifier::AsStaticFunction_collisionCheckObjects<hook321<(anonymous namespace)::hook321Parent>, void (hook321<(anonymous namespace)::hook321Parent>::*)(PlayerObject*, gd::vector<GameObject*>*, int, float)>::Impl<void (hook321<(anonymous namespace)::hook321Parent>::*)(PlayerObject*, gd::vector<GameObject*>*, int, float)>::function(hook321<(anonymous namespace)::hook321Parent>*, PlayerObject*, gd::vector<GameObject*>*, int, float)
PUBLIC eb240 0 geode::modifier::AsStaticFunction_gameEventTriggered<hook321<(anonymous namespace)::hook321Parent>, void (hook321<(anonymous namespace)::hook321Parent>::*)(GJGameEvent, int, int)>::Impl<void (hook321<(anonymous namespace)::hook321Parent>::*)(GJGameEvent, int, int)>::function(hook321<(anonymous namespace)::hook321Parent>*, GJGameEvent, int, int)
PUBLIC eb254 0 geode::modifier::AsStaticFunction_playerTouchedRing<hook321<(anonymous namespace)::hook321Parent>, void (hook321<(anonymous namespace)::hook321Parent>::*)(PlayerObject*, RingObject*)>::Impl<void (hook321<(anonymous namespace)::hook321Parent>::*)(PlayerObject*, RingObject*)>::function(hook321<(anonymous namespace)::hook321Parent>*, PlayerObject*, RingObject*)
PUBLIC eb268 0 geode::modifier::AsStaticFunction_playerTouchedTrigger<hook321<(anonymous namespace)::hook321Parent>, void (hook321<(anonymous namespace)::hook321Parent>::*)(PlayerObject*, EffectGameObject*)>::Impl<void (hook321<(anonymous namespace)::hook321Parent>::*)(PlayerObject*, EffectGameObject*)>::function(hook321<(anonymous namespace)::hook321Parent>*, PlayerObject*, EffectGameObject*)
PUBLIC eb288 0 std::__ndk1::vector<GameObject*, std::__ndk1::allocator<GameObject*> >::__throw_length_error[abi:ne180000]() const
PUBLIC eb29c 0 geode::modifier::ModifyDerive<hook401<(anonymous namespace)::hook401Parent>, PlayerObject>::apply()
PUBLIC ebec4 0 geode::modifier::ModifyBase<geode::modifier::ModifyDerive<hook401<(anonymous namespace)::hook401Parent>, PlayerObject> >::apply()
PUBLIC ebec8 0 geode::modifier::AsStaticFunction_update<hook401<(anonymous namespace)::hook401Parent>, void (hook401<(anonymous namespace)::hook401Parent>::*)(float)>::Impl<void (hook401<(anonymous namespace)::hook401Parent>::*)(float)>::function(hook401<(anonymous namespace)::hook401Parent>*, float)
PUBLIC ebef0 0 geode::modifier::AsStaticFunction_incrementJumps<hook401<(anonymous namespace)::hook401Parent>, void (hook401<(anonymous namespace)::hook401Parent>::*)()>::Impl<void (hook401<(anonymous namespace)::hook401Parent>::*)()>::function(hook401<(anonymous namespace)::hook401Parent>*)
PUBLIC ebf04 0 geode::modifier::AsStaticFunction_playSpiderDashEffect<hook401<(anonymous namespace)::hook401Parent>, void (hook401<(anonymous namespace)::hook401Parent>::*)(cocos2d::CCPoint, cocos2d::CCPoint)>::Impl<void (hook401<(anonymous namespace)::hook401Parent>::*)(cocos2d::CCPoint, cocos2d::CCPoint)>::function(hook401<(anonymous namespace)::hook401Parent>*, cocos2d::CCPoint, cocos2d::CCPoint)
PUBLIC ebf68 0 geode::modifier::AsStaticFunction_ringJump<hook401<(anonymous namespace)::hook401Parent>, void (hook401<(anonymous namespace)::hook401Parent>::*)(RingObject*, bool)>::Impl<void (hook401<(anonymous namespace)::hook401Parent>::*)(RingObject*, bool)>::function(hook401<(anonymous namespace)::hook401Parent>*, RingObject*, bool)
PUBLIC ebf80 0 geode::addresser::Addresser::addressOfVirtual<void, PlayerObject, float>(void (PlayerObject::*)(float))
PUBLIC ec048 0 PlayerObject::PlayerObject(geode::ZeroConstructorType)
PUBLIC ec304 0 gd::map<int, bool>::~map()
PUBLIC ec320 0 geode::stl::unordered_map<int, GameObject*, geode::stl::hash<int>, geode::stl::equal_to<int>, std::__ndk1::allocator<std::__ndk1::pair<int const, GameObject*> > >::~unordered_map()
PUBLIC ec398 0 geode::stl::unordered_map<int, GJPointDouble, geode::stl::hash<int>, geode::stl::equal_to<int>, std::__ndk1::allocator<std::__ndk1::pair<int const, GJPointDouble> > >::~unordered_map()
PUBLIC ec410 0 GameObject::~GameObject()
PUBLIC ec458 0 gd::map<int, bool>::erase(geode::stl::_rb_tree_node<std::__ndk1::pair<int, bool> >*)
PUBLIC ec4ac 0 geode::modifier::ModifyDerive<hook425<(anonymous namespace)::hook425Parent>, HardStreak>::apply()
PUBLIC ec818 0 geode::modifier::ModifyBase<geode::modifier::ModifyDerive<hook425<(anonymous namespace)::hook425Parent>, HardStreak> >::apply()
PUBLIC ec81c 0 geode::modifier::AsStaticFunction_addPoint<hook425<(anonymous namespace)::hook425Parent>, void (hook425<(anonymous namespace)::hook425Parent>::*)(cocos2d::CCPoint)>::Impl<void (hook425<(anonymous namespace)::hook425Parent>::*)(cocos2d::CCPoint)>::function(hook425<(anonymous namespace)::hook425Parent>*, cocos2d::CCPoint)
PUBLIC ec878 0 geode::modifier::ModifyDerive<hook433<(anonymous namespace)::hook433Parent>, GameObject>::apply()
PUBLIC ecbb8 0 geode::modifier::ModifyBase<geode::modifier::ModifyDerive<hook433<(anonymous namespace)::hook433Parent>, GameObject> >::apply()
PUBLIC ecbbc 0 geode::modifier::AsStaticFunction_playShineEffect<hook433<(anonymous namespace)::hook433Parent>, void (hook433<(anonymous namespace)::hook433Parent>::*)()>::Impl<void (hook433<(anonymous namespace)::hook433Parent>::*)()>::function(hook433<(anonymous namespace)::hook433Parent>*)
PUBLIC ecbd0 0 geode::modifier::ModifyDerive<hook441<(anonymous namespace)::hook441Parent>, EffectGameObject>::apply()
PUBLIC ecfb4 0 geode::modifier::ModifyBase<geode::modifier::ModifyDerive<hook441<(anonymous namespace)::hook441Parent>, EffectGameObject> >::apply()
PUBLIC ecfb8 0 geode::modifier::AsStaticFunction_triggerObject<hook441<(anonymous namespace)::hook441Parent>, void (hook441<(anonymous namespace)::hook441Parent>::*)(GJBaseGameLayer*, int, gd::vector<int> const*)>::Impl<void (hook441<(anonymous namespace)::hook441Parent>::*)(GJBaseGameLayer*, int, gd::vector<int> const*)>::function(hook441<(anonymous namespace)::hook441Parent>*, GJBaseGameLayer*, int, gd::vector<int> const*)
PUBLIC ecfcc 0 __cxx_global_array_dtor
PUBLIC ed000 0 __cxx_global_array_dtor.10
PUBLIC ed0e0 0 __cxx_global_var_init.11
PUBLIC ed51c 0 _GLOBAL__sub_I_coin_finder.cpp
PUBLIC ed828 0 geode::modifier::ModifyBase<geode::modifier::ModifyDerive<hook3<(anonymous namespace)::hook3Parent>, PlayLayer> >::~ModifyBase()
PUBLIC ed844 0 geode::modifier::ModifyDerive<hook3<(anonymous namespace)::hook3Parent>, PlayLayer>::apply()
PUBLIC ee0e8 0 geode::modifier::ModifyBase<geode::modifier::ModifyDerive<hook3<(anonymous namespace)::hook3Parent>, PlayLayer> >::apply()
PUBLIC ee0ec 0 geode::modifier::AsStaticFunction_postUpdate<hook3<(anonymous namespace)::hook3Parent>, void (hook3<(anonymous namespace)::hook3Parent>::*)(float)>::Impl<void (hook3<(anonymous namespace)::hook3Parent>::*)(float)>::function(hook3<(anonymous namespace)::hook3Parent>*, float)
PUBLIC ee318 0 geode::modifier::AsStaticFunction_addObject<hook3<(anonymous namespace)::hook3Parent>, void (hook3<(anonymous namespace)::hook3Parent>::*)(GameObject*)>::Impl<void (hook3<(anonymous namespace)::hook3Parent>::*)(GameObject*)>::function(hook3<(anonymous namespace)::hook3Parent>*, GameObject*)
PUBLIC ee4bc 0 geode::modifier::AsStaticFunction_setupHasCompleted<hook3<(anonymous namespace)::hook3Parent>, void (hook3<(anonymous namespace)::hook3Parent>::*)()>::Impl<void (hook3<(anonymous namespace)::hook3Parent>::*)()>::function(hook3<(anonymous namespace)::hook3Parent>*)
PUBLIC ee4f8 0 CoinFinder::drawNode()
PUBLIC ee618 0 geode::modifier::FieldIntermediate<hook3<(anonymous namespace)::hook3Parent>, PlayLayer>::operator->()
PUBLIC ee7a8 0 CoinFinderNode::~CoinFinderNode()
PUBLIC ee7cc 0 geode::modifier::FieldIntermediate<hook3<(anonymous namespace)::hook3Parent>, PlayLayer>::fieldDestructor(void*)
PUBLIC ee7e4 0 __cxx_global_array_dtor
PUBLIC ee818 0 __cxx_global_array_dtor.10
PUBLIC ee8f8 0 __cxx_global_var_init.32
PUBLIC eed34 0 _GLOBAL__sub_I_clickbot.cpp
PUBLIC ef9b0 0 Clickbot::getSound(std::__ndk1::basic_string<char, std::__ndk1::char_traits<char>, std::__ndk1::allocator<char> >)
PUBLIC efb70 0 Clickbot::updateSounds()
PUBLIC f0108 0 matjson::Serialize<ClickSetting>::from_json(matjson::Value const&)
PUBLIC f0344 0 geode::log::debug<>(fmt::v11::basic_format_string<char, fmt::v11::type_identity<std::__ndk1::conditional<IsWrappedCocos<>, decltype ((wrapCocosObj<>)((std::declval<>)())), >::type>::type>, &&)
PUBLIC f03c8 0 geode::modifier::ModifyBase<geode::modifier::ModifyDerive<hook36<(anonymous namespace)::hook36Parent>, GJBaseGameLayer> >::~ModifyBase()
PUBLIC f03e4 0 matjson::Serialize<ClickSetting>::to_json(ClickSetting const&)
PUBLIC f05b0 0 geode::Mod::setSavedValue<matjson::Value>(std::__ndk1::basic_string_view<char, std::__ndk1::char_traits<char> >, matjson::Value const&)
PUBLIC f0698 0 geode::modifier::ModifyDerive<hook36<(anonymous namespace)::hook36Parent>, GJBaseGameLayer>::apply()
PUBLIC f0a6c 0 geode::modifier::ModifyBase<geode::modifier::ModifyDerive<hook36<(anonymous namespace)::hook36Parent>, GJBaseGameLayer> >::apply()
PUBLIC f0a70 0 geode::modifier::AsStaticFunction_handleButton<hook36<(anonymous namespace)::hook36Parent>, void (hook36<(anonymous namespace)::hook36Parent>::*)(bool, int, bool)>::Impl<void (hook36<(anonymous namespace)::hook36Parent>::*)(bool, int, bool)>::function(hook36<(anonymous namespace)::hook36Parent>*, bool, int, bool)
PUBLIC f10e8 0 __cxx_global_array_dtor
PUBLIC f111c 0 __cxx_global_array_dtor.10
PUBLIC f11fc 0 __cxx_global_var_init.11
PUBLIC f1638 0 _GLOBAL__sub_I_autoclicker.cpp
PUBLIC f1944 0 geode::modifier::ModifyBase<geode::modifier::ModifyDerive<hook5<(anonymous namespace)::hook5Parent>, GJBaseGameLayer> >::~ModifyBase()
PUBLIC f1960 0 geode::modifier::ModifyDerive<hook5<(anonymous namespace)::hook5Parent>, GJBaseGameLayer>::apply()
PUBLIC f2010 0 geode::modifier::ModifyBase<geode::modifier::ModifyDerive<hook5<(anonymous namespace)::hook5Parent>, GJBaseGameLayer> >::apply()
PUBLIC f2014 0 geode::modifier::AsStaticFunction_handleButton<hook5<(anonymous namespace)::hook5Parent>, void (hook5<(anonymous namespace)::hook5Parent>::*)(bool, int, bool)>::Impl<void (hook5<(anonymous namespace)::hook5Parent>::*)(bool, int, bool)>::function(hook5<(anonymous namespace)::hook5Parent>*, bool, int, bool)
PUBLIC f2208 0 geode::modifier::AsStaticFunction_processCommands<hook5<(anonymous namespace)::hook5Parent>, void (hook5<(anonymous namespace)::hook5Parent>::*)(float)>::Impl<void (hook5<(anonymous namespace)::hook5Parent>::*)(float)>::function(hook5<(anonymous namespace)::hook5Parent>*, float)
PUBLIC f25fc 0 geode::modifier::FieldIntermediate<hook5<(anonymous namespace)::hook5Parent>, GJBaseGameLayer>::operator->()
PUBLIC f278c 0 geode::modifier::FieldIntermediate<hook5<(anonymous namespace)::hook5Parent>, GJBaseGameLayer>::fieldDestructor(void*)
PUBLIC f2790 0 __cxx_global_array_dtor
PUBLIC f27c4 0 __cxx_global_array_dtor.10
PUBLIC f28a4 0 __cxx_global_var_init.65
PUBLIC f2ce0 0 _GLOBAL__sub_I_macro_editor.cpp
PUBLIC f325c 0 MacroEditLayer::~MacroEditLayer()
PUBLIC f3354 0 {virtual override thunk({offset(-320)}, MacroEditLayer::~MacroEditLayer())}
PUBLIC f335c 0 MacroEditLayer::~MacroEditLayer()
PUBLIC f3380 0 {virtual override thunk({offset(-320)}, MacroEditLayer::~MacroEditLayer())}
PUBLIC f33a8 0 MacroEditLayer::onClose(cocos2d::CCObject*)
PUBLIC f3574 0 MacroEditLayer::updateHover(cocos2d::CCPoint)
PUBLIC f377c 0 MacroEditLayer::setup()
PUBLIC f53f0 0 MacroEditLayer::switchPage(cocos2d::CCObject*)
PUBLIC f5660 0 MacroEditLayer::onSave(cocos2d::CCObject*)
PUBLIC f59c8 0 MacroEditLayer::onMerge(cocos2d::CCObject*)
PUBLIC f5ba4 0 MacroEditLayer::onClear(cocos2d::CCObject*)
PUBLIC f5e5c 0 MacroEditLayer::onAddInput(cocos2d::CCObject*)
PUBLIC f6308 0 MacroEditLayer::onRemoveInput(cocos2d::CCObject*)
PUBLIC f663c 0 MacroEditLayer::switchFrame(cocos2d::CCObject*)
PUBLIC f6700 0 MacroEditLayer::switchButton(cocos2d::CCObject*)
PUBLIC f6858 0 MacroEditLayer::switchAction(cocos2d::CCObject*)
PUBLIC f6954 0 MacroEditLayer::switchPlayer(cocos2d::CCObject*)
PUBLIC f6a50 0 MacroEditLayer::loadPage(int)
PUBLIC f78e0 0 MacroEditLayer::updateSaved()
PUBLIC f7da8 0 MacroEditLayer::getInputText(input)
PUBLIC f8038 0 InputText::~InputText()
PUBLIC f80b4 0 MacroEditLayer::textChanged(CCTextInputNode*)
PUBLIC f82c8 0 MacroEditLayer::changeSelectedInputFrame(int, bool)
PUBLIC f8878 0 {virtual override thunk({offset(-672)}, MacroEditLayer::textChanged(CCTextInputNode*))}
PUBLIC f887c 0 MacroEditLayer::updateLabels()
PUBLIC f8b18 0 MacroEditLayer::flashSelected()
PUBLIC f8c6c 0 std::__ndk1::vector<input, std::__ndk1::allocator<input> >::insert(std::__ndk1::__wrap_iter<input const*>, input const&)
PUBLIC f8f74 0 MacroEditLayer::mergeMacro(std::__ndk1::vector<input, std::__ndk1::allocator<input> >, bool*, bool)
PUBLIC f9760 0 geode::Popup<>::registerWithTouchDispatcher()
PUBLIC f978c 0 MacroEditLayer::keyBackClicked()
PUBLIC f979c 0 geode::Popup<>::keyDown(cocos2d::enumKeyCodes)
PUBLIC f97c4 0 cocos2d::CCLayerRGBA::setOpacityModifyRGB(bool)
PUBLIC f97c8 0 cocos2d::CCLayerRGBA::isOpacityModifyRGB()
PUBLIC f97d0 0 {virtual override thunk({offset(-336)}, MacroEditLayer::keyBackClicked())}
PUBLIC f97e4 0 {virtual override thunk({offset(-344)}, geode::Popup<>::keyDown(cocos2d::enumKeyCodes))}
PUBLIC f9810 0 cocos2d::CCKeyboardDelegate::keyUp(cocos2d::enumKeyCodes)
PUBLIC f9814 0 cocos2d::CCMouseDelegate::rightKeyDown()
PUBLIC f9818 0 cocos2d::CCMouseDelegate::rightKeyUp()
PUBLIC f981c 0 cocos2d::CCMouseDelegate::scrollWheel(float, float)
PUBLIC f9820 0 {virtual override thunk({offset(-408)}, cocos2d::CCLayerRGBA::setOpacityModifyRGB(bool))}
PUBLIC f9824 0 {virtual override thunk({offset(-408)}, cocos2d::CCLayerRGBA::isOpacityModifyRGB())}
PUBLIC f982c 0 geode::modifier::ModifyBase<geode::modifier::ModifyDerive<hook30<(anonymous namespace)::hook30Parent>, FLAlertLayer> >::~ModifyBase()
PUBLIC f9848 0 std::__ndk1::vector<cocos2d::CCLabelBMFont*, std::__ndk1::allocator<cocos2d::CCLabelBMFont*> >::__throw_length_error[abi:ne180000]() const
PUBLIC f985c 0 geode::Popup<>::~Popup()
PUBLIC f98c8 0 geode::Popup<>::~Popup()
PUBLIC f98cc 0 geode::Popup<>::onClose(cocos2d::CCObject*)
PUBLIC f9a14 0 {virtual override thunk({offset(-320)}, geode::Popup<>::~Popup())}
PUBLIC f9a80 0 {virtual override thunk({offset(-320)}, geode::Popup<>::~Popup())}
PUBLIC f9a84 0 geode::Popup<>::CloseEvent::~CloseEvent()
PUBLIC f9ae4 0 geode::Popup<>::CloseEvent::~CloseEvent()
PUBLIC f9b54 0 std::__ndk1::__shared_ptr_emplace<geode::Popup<>::CloseEvent::Impl, std::__ndk1::allocator<geode::Popup<>::CloseEvent::Impl> >::~__shared_ptr_emplace()
PUBLIC f9b64 0 std::__ndk1::__shared_ptr_emplace<geode::Popup<>::CloseEvent::Impl, std::__ndk1::allocator<geode::Popup<>::CloseEvent::Impl> >::~__shared_ptr_emplace()
PUBLIC f9b94 0 std::__ndk1::__shared_ptr_emplace<geode::Popup<>::CloseEvent::Impl, std::__ndk1::allocator<geode::Popup<>::CloseEvent::Impl> >::__on_zero_shared()
PUBLIC f9b98 0 std::__ndk1::__shared_ptr_emplace<geode::Popup<>::CloseEvent::Impl, std::__ndk1::allocator<geode::Popup<>::CloseEvent::Impl> >::__on_zero_shared_weak()
PUBLIC f9b9c 0 geode::modifier::ModifyDerive<hook30<(anonymous namespace)::hook30Parent>, FLAlertLayer>::apply()
PUBLIC fa398 0 geode::modifier::ModifyBase<geode::modifier::ModifyDerive<hook30<(anonymous namespace)::hook30Parent>, FLAlertLayer> >::apply()
PUBLIC fa39c 0 geode::modifier::AsStaticFunction_ccTouchBegan<hook30<(anonymous namespace)::hook30Parent>, bool (hook30<(anonymous namespace)::hook30Parent>::*)(cocos2d::CCTouch*, cocos2d::CCEvent*)>::Impl<bool (hook30<(anonymous namespace)::hook30Parent>::*)(cocos2d::CCTouch*, cocos2d::CCEvent*)>::function(hook30<(anonymous namespace)::hook30Parent>*, cocos2d::CCTouch*, cocos2d::CCEvent*)
PUBLIC fa440 0 geode::Hook::create<void (*)(hook30<(anonymous namespace)::hook30Parent>*, cocos2d::CCTouch*, cocos2d::CCEvent*)>(void*, void (*)(hook30<(anonymous namespace)::hook30Parent>*, cocos2d::CCTouch*, cocos2d::CCEvent*), std::__ndk1::basic_string<char, std::__ndk1::char_traits<char>, std::__ndk1::allocator<char> > const&, tulip::hook::TulipConvention, tulip::hook::HookMetadata const&)
PUBLIC fa604 0 geode::modifier::AsStaticFunction_ccTouchMoved<hook30<(anonymous namespace)::hook30Parent>, void (hook30<(anonymous namespace)::hook30Parent>::*)(cocos2d::CCTouch*, cocos2d::CCEvent*)>::Impl<void (hook30<(anonymous namespace)::hook30Parent>::*)(cocos2d::CCTouch*, cocos2d::CCEvent*)>::function(hook30<(anonymous namespace)::hook30Parent>*, cocos2d::CCTouch*, cocos2d::CCEvent*)
PUBLIC fa69c 0 geode::modifier::AsStaticFunction_ccTouchEnded<hook30<(anonymous namespace)::hook30Parent>, void (hook30<(anonymous namespace)::hook30Parent>::*)(cocos2d::CCTouch*, cocos2d::CCEvent*)>::Impl<void (hook30<(anonymous namespace)::hook30Parent>::*)(cocos2d::CCTouch*, cocos2d::CCEvent*)>::function(hook30<(anonymous namespace)::hook30Parent>*, cocos2d::CCTouch*, cocos2d::CCEvent*)
PUBLIC fa7f0 0 geode::addresser::Addresser::addressOfVirtual<bool, FLAlertLayer, cocos2d::CCTouch*, cocos2d::CCEvent*>(bool (FLAlertLayer::*)(cocos2d::CCTouch*, cocos2d::CCEvent*))
PUBLIC fa8dc 0 FLAlertLayer::FLAlertLayer(geode::ZeroConstructorType)
PUBLIC fa95c 0 geode::addresser::Addresser::addressOfVirtual<void, FLAlertLayer, cocos2d::CCTouch*, cocos2d::CCEvent*>(void (FLAlertLayer::*)(cocos2d::CCTouch*, cocos2d::CCEvent*))
PUBLIC faa48 0 std::__ndk1::__function::__func<MacroEditLayer::onClose(cocos2d::CCObject*)::$_0, std::__ndk1::allocator<MacroEditLayer::onClose(cocos2d::CCObject*)::$_0>, void (FLAlertLayer*, bool)>::~__func()
PUBLIC faa4c 0 std::__ndk1::__function::__func<MacroEditLayer::onClose(cocos2d::CCObject*)::$_0, std::__ndk1::allocator<MacroEditLayer::onClose(cocos2d::CCObject*)::$_0>, void (FLAlertLayer*, bool)>::__clone() const
PUBLIC faa80 0 std::__ndk1::__function::__func<MacroEditLayer::onClose(cocos2d::CCObject*)::$_0, std::__ndk1::allocator<MacroEditLayer::onClose(cocos2d::CCObject*)::$_0>, void (FLAlertLayer*, bool)>::__clone(std::__ndk1::__function::__base<void (FLAlertLayer*, bool)>*) const
PUBLIC faa94 0 std::__ndk1::__function::__func<MacroEditLayer::onClose(cocos2d::CCObject*)::$_0, std::__ndk1::allocator<MacroEditLayer::onClose(cocos2d::CCObject*)::$_0>, void (FLAlertLayer*, bool)>::destroy()
PUBLIC faa98 0 std::__ndk1::__function::__func<MacroEditLayer::onClose(cocos2d::CCObject*)::$_0, std::__ndk1::allocator<MacroEditLayer::onClose(cocos2d::CCObject*)::$_0>, void (FLAlertLayer*, bool)>::destroy_deallocate()
PUBLIC faa9c 0 std::__ndk1::__function::__func<MacroEditLayer::onClose(cocos2d::CCObject*)::$_0, std::__ndk1::allocator<MacroEditLayer::onClose(cocos2d::CCObject*)::$_0>, void (FLAlertLayer*, bool)>::operator()(FLAlertLayer*&&, bool&&)
PUBLIC fab04 0 std::__ndk1::__function::__func<MacroEditLayer::onClose(cocos2d::CCObject*)::$_0, std::__ndk1::allocator<MacroEditLayer::onClose(cocos2d::CCObject*)::$_0>, void (FLAlertLayer*, bool)>::target(std::type_info const&) const
PUBLIC fab20 0 std::__ndk1::__function::__func<MacroEditLayer::onClose(cocos2d::CCObject*)::$_0, std::__ndk1::allocator<MacroEditLayer::onClose(cocos2d::CCObject*)::$_0>, void (FLAlertLayer*, bool)>::target_type() const
PUBLIC fab2c 0 std::__ndk1::__function::__func<MacroEditLayer::onSave(cocos2d::CCObject*)::$_0, std::__ndk1::allocator<MacroEditLayer::onSave(cocos2d::CCObject*)::$_0>, void (FLAlertLayer*, bool)>::~__func()
PUBLIC fab30 0 std::__ndk1::__function::__func<MacroEditLayer::onSave(cocos2d::CCObject*)::$_0, std::__ndk1::allocator<MacroEditLayer::onSave(cocos2d::CCObject*)::$_0>, void (FLAlertLayer*, bool)>::__clone() const
PUBLIC fab64 0 std::__ndk1::__function::__func<MacroEditLayer::onSave(cocos2d::CCObject*)::$_0, std::__ndk1::allocator<MacroEditLayer::onSave(cocos2d::CCObject*)::$_0>, void (FLAlertLayer*, bool)>::__clone(std::__ndk1::__function::__base<void (FLAlertLayer*, bool)>*) const
PUBLIC fab78 0 std::__ndk1::__function::__func<MacroEditLayer::onSave(cocos2d::CCObject*)::$_0, std::__ndk1::allocator<MacroEditLayer::onSave(cocos2d::CCObject*)::$_0>, void (FLAlertLayer*, bool)>::destroy()
PUBLIC fab7c 0 std::__ndk1::__function::__func<MacroEditLayer::onSave(cocos2d::CCObject*)::$_0, std::__ndk1::allocator<MacroEditLayer::onSave(cocos2d::CCObject*)::$_0>, void (FLAlertLayer*, bool)>::destroy_deallocate()
PUBLIC fab80 0 std::__ndk1::__function::__func<MacroEditLayer::onSave(cocos2d::CCObject*)::$_0, std::__ndk1::allocator<MacroEditLayer::onSave(cocos2d::CCObject*)::$_0>, void (FLAlertLayer*, bool)>::operator()(FLAlertLayer*&&, bool&&)
PUBLIC fae3c 0 std::__ndk1::__function::__func<MacroEditLayer::onSave(cocos2d::CCObject*)::$_0, std::__ndk1::allocator<MacroEditLayer::onSave(cocos2d::CCObject*)::$_0>, void (FLAlertLayer*, bool)>::target(std::type_info const&) const
PUBLIC fae58 0 std::__ndk1::__function::__func<MacroEditLayer::onSave(cocos2d::CCObject*)::$_0, std::__ndk1::allocator<MacroEditLayer::onSave(cocos2d::CCObject*)::$_0>, void (FLAlertLayer*, bool)>::target_type() const
PUBLIC fae64 0 MacroEditLayer::create()
PUBLIC fb0a0 0 std::__ndk1::__function::__func<MacroEditLayer::onSave(cocos2d::CCObject*)::$_0::operator()<FLAlertLayer*>(FLAlertLayer*, bool) const::{lambda()#1}, std::__ndk1::allocator<MacroEditLayer::onSave(cocos2d::CCObject*)::$_0::operator()<FLAlertLayer*>(FLAlertLayer*, bool) const::{lambda()#1}>, void ()>::~__func()
PUBLIC fb0a4 0 std::__ndk1::__function::__func<MacroEditLayer::onSave(cocos2d::CCObject*)::$_0::operator()<FLAlertLayer*>(FLAlertLayer*, bool) const::{lambda()#1}, std::__ndk1::allocator<MacroEditLayer::onSave(cocos2d::CCObject*)::$_0::operator()<FLAlertLayer*>(FLAlertLayer*, bool) const::{lambda()#1}>, void ()>::__clone() const
PUBLIC fb0c8 0 std::__ndk1::__function::__func<MacroEditLayer::onSave(cocos2d::CCObject*)::$_0::operator()<FLAlertLayer*>(FLAlertLayer*, bool) const::{lambda()#1}, std::__ndk1::allocator<MacroEditLayer::onSave(cocos2d::CCObject*)::$_0::operator()<FLAlertLayer*>(FLAlertLayer*, bool) const::{lambda()#1}>, void ()>::__clone(std::__ndk1::__function::__base<void ()>*) const
PUBLIC fb0d8 0 std::__ndk1::__function::__func<MacroEditLayer::onSave(cocos2d::CCObject*)::$_0::operator()<FLAlertLayer*>(FLAlertLayer*, bool) const::{lambda()#1}, std::__ndk1::allocator<MacroEditLayer::onSave(cocos2d::CCObject*)::$_0::operator()<FLAlertLayer*>(FLAlertLayer*, bool) const::{lambda()#1}>, void ()>::destroy()
PUBLIC fb0dc 0 std::__ndk1::__function::__func<MacroEditLayer::onSave(cocos2d::CCObject*)::$_0::operator()<FLAlertLayer*>(FLAlertLayer*, bool) const::{lambda()#1}, std::__ndk1::allocator<MacroEditLayer::onSave(cocos2d::CCObject*)::$_0::operator()<FLAlertLayer*>(FLAlertLayer*, bool) const::{lambda()#1}>, void ()>::destroy_deallocate()
PUBLIC fb0e0 0 std::__ndk1::__function::__func<MacroEditLayer::onSave(cocos2d::CCObject*)::$_0::operator()<FLAlertLayer*>(FLAlertLayer*, bool) const::{lambda()#1}, std::__ndk1::allocator<MacroEditLayer::onSave(cocos2d::CCObject*)::$_0::operator()<FLAlertLayer*>(FLAlertLayer*, bool) const::{lambda()#1}>, void ()>::operator()()
PUBLIC fb188 0 std::__ndk1::__function::__func<MacroEditLayer::onSave(cocos2d::CCObject*)::$_0::operator()<FLAlertLayer*>(FLAlertLayer*, bool) const::{lambda()#1}, std::__ndk1::allocator<MacroEditLayer::onSave(cocos2d::CCObject*)::$_0::operator()<FLAlertLayer*>(FLAlertLayer*, bool) const::{lambda()#1}>, void ()>::target(std::type_info const&) const
PUBLIC fb1a4 0 std::__ndk1::__function::__func<MacroEditLayer::onSave(cocos2d::CCObject*)::$_0::operator()<FLAlertLayer*>(FLAlertLayer*, bool) const::{lambda()#1}, std::__ndk1::allocator<MacroEditLayer::onSave(cocos2d::CCObject*)::$_0::operator()<FLAlertLayer*>(FLAlertLayer*, bool) const::{lambda()#1}>, void ()>::target_type() const
PUBLIC fb1b0 0 std::__ndk1::__function::__base<void (FLAlertLayer*, bool)>::~__base()
PUBLIC fb1b4 0 std::__ndk1::__function::__func<MacroEditLayer::onClear(cocos2d::CCObject*)::$_0, std::__ndk1::allocator<MacroEditLayer::onClear(cocos2d::CCObject*)::$_0>, void (FLAlertLayer*, bool)>::~__func()
PUBLIC fb1b8 0 std::__ndk1::__function::__func<MacroEditLayer::onClear(cocos2d::CCObject*)::$_0, std::__ndk1::allocator<MacroEditLayer::onClear(cocos2d::CCObject*)::$_0>, void (FLAlertLayer*, bool)>::__clone() const
PUBLIC fb1ec 0 std::__ndk1::__function::__func<MacroEditLayer::onClear(cocos2d::CCObject*)::$_0, std::__ndk1::allocator<MacroEditLayer::onClear(cocos2d::CCObject*)::$_0>, void (FLAlertLayer*, bool)>::__clone(std::__ndk1::__function::__base<void (FLAlertLayer*, bool)>*) const
PUBLIC fb200 0 std::__ndk1::__function::__func<MacroEditLayer::onClear(cocos2d::CCObject*)::$_0, std::__ndk1::allocator<MacroEditLayer::onClear(cocos2d::CCObject*)::$_0>, void (FLAlertLayer*, bool)>::destroy()
PUBLIC fb204 0 std::__ndk1::__function::__func<MacroEditLayer::onClear(cocos2d::CCObject*)::$_0, std::__ndk1::allocator<MacroEditLayer::onClear(cocos2d::CCObject*)::$_0>, void (FLAlertLayer*, bool)>::destroy_deallocate()
PUBLIC fb208 0 std::__ndk1::__function::__func<MacroEditLayer::onClear(cocos2d::CCObject*)::$_0, std::__ndk1::allocator<MacroEditLayer::onClear(cocos2d::CCObject*)::$_0>, void (FLAlertLayer*, bool)>::operator()(FLAlertLayer*&&, bool&&)
PUBLIC fb248 0 std::__ndk1::__function::__func<MacroEditLayer::onClear(cocos2d::CCObject*)::$_0, std::__ndk1::allocator<MacroEditLayer::onClear(cocos2d::CCObject*)::$_0>, void (FLAlertLayer*, bool)>::target(std::type_info const&) const
PUBLIC fb264 0 std::__ndk1::__function::__func<MacroEditLayer::onClear(cocos2d::CCObject*)::$_0, std::__ndk1::allocator<MacroEditLayer::onClear(cocos2d::CCObject*)::$_0>, void (FLAlertLayer*, bool)>::target_type() const
PUBLIC m fb270 0 __eqtf2
PUBLIC fb310 0 __unordtf2
PUBLIC fb348 0 __udivti3
PUBLIC fb354 0 __udivmodti4
PUBLIC fb5a0 0 __umodti3
PUBLIC fb5c8 0 __cxx_global_array_dtor
PUBLIC fb5fc 0 __cxx_global_array_dtor.10
PUBLIC fb6dc 0 __cxx_global_var_init.50
PUBLIC fbb18 0 _GLOBAL__sub_I_button_edit_layer.cpp
PUBLIC fc734 0 ButtonEditLayer::onSave(cocos2d::CCObject*)
PUBLIC fccf0 0 std::__ndk1::map<std::__ndk1::basic_string<char, std::__ndk1::char_traits<char>, std::__ndk1::allocator<char> >, cocos2d::CCPoint, std::__ndk1::less<std::__ndk1::basic_string<char, std::__ndk1::char_traits<char>, std::__ndk1::allocator<char> > >, std::__ndk1::allocator<std::__ndk1::pair<std::__ndk1::basic_string<char, std::__ndk1::char_traits<char>, std::__ndk1::allocator<char> > const, cocos2d::CCPoint> > >::at(std::__ndk1::basic_string<char, std::__ndk1::char_traits<char>, std::__ndk1::allocator<char> > const&)
PUBLIC fcdd8 0 std::__ndk1::map<std::__ndk1::basic_string<char, std::__ndk1::char_traits<char>, std::__ndk1::allocator<char> >, float, std::__ndk1::less<std::__ndk1::basic_string<char, std::__ndk1::char_traits<char>, std::__ndk1::allocator<char> > >, std::__ndk1::allocator<std::__ndk1::pair<std::__ndk1::basic_string<char, std::__ndk1::char_traits<char>, std::__ndk1::allocator<char> > const, float> > >::at(std::__ndk1::basic_string<char, std::__ndk1::char_traits<char>, std::__ndk1::allocator<char> > const&)
PUBLIC fcec0 0 ButtonEditLayer::updateSelectedLabels()
PUBLIC fd5b0 0 ButtonEditLayer::updateSelected(std::__ndk1::basic_string<char, std::__ndk1::char_traits<char>, std::__ndk1::allocator<char> >)
PUBLIC fd7d8 0 ButtonEditLayer::addSliders()
PUBLIC fd9dc 0 ButtonEditLayer::updateScale(cocos2d::CCObject*)
PUBLIC fda90 0 ButtonEditLayer::updateOpacity(cocos2d::CCObject*)
PUBLIC fdb50 0 ButtonEditLayer::setup()
PUBLIC fe900 0 ButtonEditLayer::onRestore(cocos2d::CCObject*)
PUBLIC ff038 0 ButtonEditLayer::addSprites()
PUBLIC ff71c 0 ButtonEditLayer::~ButtonEditLayer()
PUBLIC ff7ec 0 ButtonEditLayer::~ButtonEditLayer()
PUBLIC ff810 0 {virtual override thunk({offset(-320)}, ButtonEditLayer::~ButtonEditLayer())}
PUBLIC ff818 0 {virtual override thunk({offset(-320)}, ButtonEditLayer::~ButtonEditLayer())}
PUBLIC ff840 0 geode::modifier::ModifyBase<geode::modifier::ModifyDerive<hook29<(anonymous namespace)::hook29Parent>, FLAlertLayer> >::~ModifyBase()
PUBLIC ff85c 0 std::__ndk1::vector<cocos2d::CCSprite*, std::__ndk1::allocator<cocos2d::CCSprite*> >::__throw_length_error[abi:ne180000]() const
PUBLIC ff870 0 std::__ndk1::__tree<std::__ndk1::__value_type<std::__ndk1::basic_string<char, std::__ndk1::char_traits<char>, std::__ndk1::allocator<char> >, float>, std::__ndk1::__map_value_compare<std::__ndk1::basic_string<char, std::__ndk1::char_traits<char>, std::__ndk1::allocator<char> >, std::__ndk1::__value_type<std::__ndk1::basic_string<char, std::__ndk1::char_traits<char>, std::__ndk1::allocator<char> >, float>, std::__ndk1::less<std::__ndk1::basic_string<char, std::__ndk1::char_traits<char>, std::__ndk1::allocator<char> > >, true>, std::__ndk1::allocator<std::__ndk1::__value_type<std::__ndk1::basic_string<char, std::__ndk1::char_traits<char>, std::__ndk1::allocator<char> >, float> > >::destroy(std::__ndk1::__tree_node<std::__ndk1::__value_type<std::__ndk1::basic_string<char, std::__ndk1::char_traits<char>, std::__ndk1::allocator<char> >, float>, void*>*)
PUBLIC ff8b8 0 std::__ndk1::__tree<std::__ndk1::__value_type<std::__ndk1::basic_string<char, std::__ndk1::char_traits<char>, std::__ndk1::allocator<char> >, cocos2d::CCPoint>, std::__ndk1::__map_value_compare<std::__ndk1::basic_string<char, std::__ndk1::char_traits<char>, std::__ndk1::allocator<char> >, std::__ndk1::__value_type<std::__ndk1::basic_string<char, std::__ndk1::char_traits<char>, std::__ndk1::allocator<char> >, cocos2d::CCPoint>, std::__ndk1::less<std::__ndk1::basic_string<char, std::__ndk1::char_traits<char>, std::__ndk1::allocator<char> > >, true>, std::__ndk1::allocator<std::__ndk1::__value_type<std::__ndk1::basic_string<char, std::__ndk1::char_traits<char>, std::__ndk1::allocator<char> >, cocos2d::CCPoint> > >::destroy(std::__ndk1::__tree_node<std::__ndk1::__value_type<std::__ndk1::basic_string<char, std::__ndk1::char_traits<char>, std::__ndk1::allocator<char> >, cocos2d::CCPoint>, void*>*)
PUBLIC ff900 0 geode::modifier::ModifyDerive<hook29<(anonymous namespace)::hook29Parent>, FLAlertLayer>::apply()
PUBLIC 1000fc 0 geode::modifier::ModifyBase<geode::modifier::ModifyDerive<hook29<(anonymous namespace)::hook29Parent>, FLAlertLayer> >::apply()
PUBLIC 100100 0 geode::modifier::AsStaticFunction_ccTouchBegan<hook29<(anonymous namespace)::hook29Parent>, bool (hook29<(anonymous namespace)::hook29Parent>::*)(cocos2d::CCTouch*, cocos2d::CCEvent*)>::Impl<bool (hook29<(anonymous namespace)::hook29Parent>::*)(cocos2d::CCTouch*, cocos2d::CCEvent*)>::function(hook29<(anonymous namespace)::hook29Parent>*, cocos2d::CCTouch*, cocos2d::CCEvent*)
PUBLIC 1003fc 0 geode::Hook::create<void (*)(hook29<(anonymous namespace)::hook29Parent>*, cocos2d::CCTouch*, cocos2d::CCEvent*)>(void*, void (*)(hook29<(anonymous namespace)::hook29Parent>*, cocos2d::CCTouch*, cocos2d::CCEvent*), std::__ndk1::basic_string<char, std::__ndk1::char_traits<char>, std::__ndk1::allocator<char> > const&, tulip::hook::TulipConvention, tulip::hook::HookMetadata const&)
PUBLIC 1005c0 0 geode::modifier::AsStaticFunction_ccTouchMoved<hook29<(anonymous namespace)::hook29Parent>, void (hook29<(anonymous namespace)::hook29Parent>::*)(cocos2d::CCTouch*, cocos2d::CCEvent*)>::Impl<void (hook29<(anonymous namespace)::hook29Parent>::*)(cocos2d::CCTouch*, cocos2d::CCEvent*)>::function(hook29<(anonymous namespace)::hook29Parent>*, cocos2d::CCTouch*, cocos2d::CCEvent*)
PUBLIC 1006a0 0 geode::modifier::AsStaticFunction_ccTouchEnded<hook29<(anonymous namespace)::hook29Parent>, void (hook29<(anonymous namespace)::hook29Parent>::*)(cocos2d::CCTouch*, cocos2d::CCEvent*)>::Impl<void (hook29<(anonymous namespace)::hook29Parent>::*)(cocos2d::CCTouch*, cocos2d::CCEvent*)>::function(hook29<(anonymous namespace)::hook29Parent>*, cocos2d::CCTouch*, cocos2d::CCEvent*)
PUBLIC 1006ec 0 std::__ndk1::__tree<std::__ndk1::__value_type<std::__ndk1::basic_string<char, std::__ndk1::char_traits<char>, std::__ndk1::allocator<char> >, cocos2d::CCPoint>, std::__ndk1::__map_value_compare<std::__ndk1::basic_string<char, std::__ndk1::char_traits<char>, std::__ndk1::allocator<char> >, std::__ndk1::__value_type<std::__ndk1::basic_string<char, std::__ndk1::char_traits<char>, std::__ndk1::allocator<char> >, cocos2d::CCPoint>, std::__ndk1::less<std::__ndk1::basic_string<char, std::__ndk1::char_traits<char>, std::__ndk1::allocator<char> > >, true>, std::__ndk1::allocator<std::__ndk1::__value_type<std::__ndk1::basic_string<char, std::__ndk1::char_traits<char>, std::__ndk1::allocator<char> >, cocos2d::CCPoint> > >::__emplace_unique_key_args<std::__ndk1::basic_string<char, std::__ndk1::char_traits<char>, std::__ndk1::allocator<char> >, std::__ndk1::piecewise_construct_t const&, std::__ndk1::tuple<std::__ndk1::basic_string<char, std::__ndk1::char_traits<char>, std::__ndk1::allocator<char> > const&>, std::__ndk1::tuple<> >(std::__ndk1::basic_string<char, std::__ndk1::char_traits<char>, std::__ndk1::allocator<char> > const&, std::__ndk1::piecewise_construct_t const&, std::__ndk1::tuple<std::__ndk1::basic_string<char, std::__ndk1::char_traits<char>, std::__ndk1::allocator<char> > const&>, std::__ndk1::tuple<>)
PUBLIC 1008c0 0 std::__ndk1::unique_ptr<std::__ndk1::__tree_node<std::__ndk1::__value_type<std::__ndk1::basic_string<char, std::__ndk1::char_traits<char>, std::__ndk1::allocator<char> >, cocos2d::CCPoint>, void*>, std::__ndk1::__tree_node_destructor<std::__ndk1::allocator<std::__ndk1::__tree_node<std::__ndk1::__value_type<std::__ndk1::basic_string<char, std::__ndk1::char_traits<char>, std::__ndk1::allocator<char> >, cocos2d::CCPoint>, void*> > > >::~unique_ptr[abi:ne180000]()
PUBLIC 100910 0 _ZNSt6__ndk112__vformat_toB8ne180000INS_20back_insert_iteratorINS_12basic_stringIcNS_11char_traitsIcEENS_9allocatorIcEEEEEEcNS1_INS_8__format15__output_bufferIcEEEEQ15output_iteratorIT_RKT0_EEESD_SD_NS_17basic_string_viewISE_NS3_ISE_EEEENS_17basic_format_argsINS_20basic_format_contextIT1_SE_EEEE
PUBLIC 100bfc 0 std::__ndk1::__format::__output_buffer<char>::__output_buffer[abi:ne180000]<std::__ndk1::__format::__format_buffer<std::__ndk1::back_insert_iterator<std::__ndk1::basic_string<char, std::__ndk1::char_traits<char>, std::__ndk1::allocator<char> > >, char> >(unsigned long, std::__ndk1::__format::__format_buffer<std::__ndk1::back_insert_iterator<std::__ndk1::basic_string<char, std::__ndk1::char_traits<char>, std::__ndk1::allocator<char> > >, char>*)::{lambda(std::__ndk1::__format::__format_buffer<std::__ndk1::back_insert_iterator<std::__ndk1::basic_string<char, std::__ndk1::char_traits<char>, std::__ndk1::allocator<char> > >, char>(std::__ndk1::__format::__format_buffer<std::__ndk1::back_insert_iterator<std::__ndk1::basic_string<char, std::__ndk1::char_traits<char>, std::__ndk1::allocator<char> > >, char>, unsigned long, auto:1*), unsigned long, void*)#1}::__invoke
PUBLIC 101160 0 std::__ndk1::__throw_format_error[abi:ne180000](char const*)
PUBLIC 1011b0 0 std::__ndk1::format_error::format_error[abi:ne180000](char const*)
PUBLIC 1011dc 0 std::__ndk1::format_error::~format_error()
PUBLIC 101200 0 _ZNSt6__ndk18__format14__parse_arg_idB8ne180000ITkNS_19contiguous_iteratorEPKcNS_26basic_format_parse_contextIcEEEENS0_21__parse_number_resultIT_EES7_S7_RT0_
PUBLIC 1013c8 0 _ZNSt6__ndk118__visit_format_argB8ne180000IZNS_8__format26__handle_replacement_fieldB8ne180000ITkNS_19contiguous_iteratorEPKcNS_26basic_format_parse_contextIcEENS_20basic_format_contextINS_20back_insert_iteratorINS1_15__output_bufferIcEEEEcEEEET_SD_SD_RT0_RT1_EUlSD_E_SC_EEDcOSD_NS_16basic_format_argISE_EE
PUBLIC 1054d8 0 std::__ndk1::__format_spec::__parser<char>::__parse[abi:ne180000]<std::__ndk1::basic_format_parse_context<char> >(std::__ndk1::basic_format_parse_context<char>&, std::__ndk1::__format_spec::__fields)
PUBLIC 105b60 0 std::__ndk1::__unicode::__code_point_view<char>::__consume[abi:ne180000]()
PUBLIC 105d60 0 std::__ndk1::__format_spec::__throw_invalid_type_format_error[abi:ne180000](char const*)
PUBLIC 105ecc 0 std::__ndk1::__format_spec::__throw_invalid_option_format_error[abi:ne180000](char const*, char const)
PUBLIC 1060ec 0 std::__ndk1::__format_spec::__parser<char>::__get_parsed_std_specifications[abi:ne180000]<std::__ndk1::basic_format_context<std::__ndk1::back_insert_iterator<std::__ndk1::__format::__output_buffer<char> >, char> >(std::__ndk1::basic_format_context<std::__ndk1::back_insert_iterator<std::__ndk1::__format::__output_buffer<char> >, char>&) const
PUBLIC 106298 0 _ZNSt6__ndk111__formatter16__format_integerB8ne180000ITkNS_17unsigned_integralEjcNS_20basic_format_contextINS_20back_insert_iteratorINS_8__format15__output_bufferIcEEEEcEEEENT1_8iteratorET_RS9_NS_13__format_spec23__parsed_specificationsIT0_EEb
PUBLIC 1063e4 0 _ZNSt6__ndk111__formatter27__write_string_no_precisionB8ne180000IcTkNS_15output_iteratorIRKT_EENS_20back_insert_iteratorINS_8__format15__output_bufferIcEEEEEEDtfp0_ENS_17basic_string_viewIS3_NS_11char_traitsIS3_EEEET0_NS_13__format_spec23__parsed_specificationsIS3_EE
PUBLIC 1065dc 0 _ZNSt6__ndk111__formatter7__writeB8ne180000IccTkNS_15output_iteratorIRKT_EENS_20back_insert_iteratorINS_8__format15__output_bufferIcEEEEEEDtfp0_ENS_17basic_string_viewIS3_NS_11char_traitsIS3_EEEET1_NS_13__format_spec23__parsed_specificationsIT0_EEl
PUBLIC 106834 0 _ZNSt6__ndk113__format_spec8__detail43__estimate_column_width_grapheme_clusteringB8ne180000ITkNS_19contiguous_iteratorEPKcEENS0_21__column_width_resultIT_EES6_S6_mNS0_23__column_width_roundingE
PUBLIC 106e7c 0 _ZNSt6__ndk111__formatter6__fillB8ne180000ITkNS_15__fmt_char_typeEcTkNS_15output_iteratorIRKT_EENS_20back_insert_iteratorINS_8__format15__output_bufferIcEEEEQ7same_asIS3_cEEET0_SB_mNS_13__format_spec12__code_pointIS3_EE
PUBLIC 1070dc 0 std::__ndk1::__visit_format_arg[abi:ne180000]<std::__ndk1::__format_spec::__substitute_arg_id[abi:ne180000]<std::__ndk1::basic_format_context<std::__ndk1::back_insert_iterator<std::__ndk1::__format::__output_buffer<char> >, char> >(std::__ndk1::basic_format_arg<std::__ndk1::basic_format_context<std::__ndk1::back_insert_iterator<std::__ndk1::__format::__output_buffer<char> >, char> >)::{lambda(std::__ndk1::basic_format_context<std::__ndk1::back_insert_iterator<std::__ndk1::__format::__output_buffer<char> >, char>)#1}, std::__ndk1::__format::__output_buffer<char> >(std::__ndk1::basic_format_context<std::__ndk1::back_insert_iterator<std::__ndk1::__format::__output_buffer<char> >, char>&&, std::__ndk1::back_insert_iterator<std::__ndk1::__format::__output_buffer<char> ><std::__ndk1::__format::__output_buffer<char> >)
PUBLIC 107170 0 _ZNSt6__ndk111__formatter16__format_integerB8ne180000ITkNS_17unsigned_integralEjTkNS_19contiguous_iteratorEPccNS_20basic_format_contextINS_20back_insert_iteratorINS_8__format15__output_bufferIcEEEEcEEQ7same_asIcNS_11conditionalIXsr21__is_primary_templateINS_15iterator_traitsIu14__remove_cvrefIT0_EEEEE5valueENS_26indirectly_readable_traitsISD_EESE_E4type10value_typeEEEENT2_8iteratorET_RSK_NS_13__format_spec23__parsed_specificationsIT1_EEbSC_SC_PKci
PUBLIC 107710 0 _ZNSt6__ndk111__formatter32__write_using_decimal_separatorsB8ne180000INS_20back_insert_iteratorINS_8__format15__output_bufferIcEEEETkNS_19contiguous_iteratorEPccQ7same_asIcNS_11conditionalIXsr21__is_primary_templateINS_15iterator_traitsIu14__remove_cvrefIT0_EEEEE5valueENS_26indirectly_readable_traitsISB_EESC_E4type10value_typeEEEET_SI_SA_SA_SA_ONS_12basic_stringIcNS_11char_traitsIcEENS_9allocatorIcEEEET1_NS_13__format_spec23__parsed_specificationsISQ_EE
PUBLIC 107d70 0 _ZNSt6__ndk111__formatter19__write_transformedB8ne180000ITkNS_19contiguous_iteratorEPcccPFccETkNS_15output_iteratorIRKT0_EENS_20back_insert_iteratorINS_8__format15__output_bufferIcEEEEEEDtfp1_ET_SF_T3_NS_13__format_spec23__parsed_specificationsIT1_EET2_
PUBLIC 107fc8 0 _ZNSt6__ndk119__to_chars_integralB8ne180000ILj2EjTnNS_9enable_ifIXgestT0_Lm4EEiE4typeELi0EEENS_15to_chars_resultEPcS6_S2_
PUBLIC 108054 0 _ZNSt6__ndk119__to_chars_integralB8ne180000ILj8EjTnNS_9enable_ifIXgestT0_Lm4EEiE4typeELi0EEENS_15to_chars_resultEPcS6_S2_
PUBLIC 1080ec 0 _ZNSt6__ndk119__to_chars_integralB8ne180000ILj16EjTnNS_9enable_ifIXgestT0_Lm4EEiE4typeELi0EEENS_15to_chars_resultEPcS6_S2_
PUBLIC 10817c 0 std::__ndk1::__to_chars_integral_width[abi:ne180000]<unsigned int>(unsigned int, unsigned int)
PUBLIC 1081e0 0 std::__ndk1::__itoa::__base_10_u32[abi:ne180000](char*, unsigned int)
PUBLIC 108594 0 _ZNSt6__ndk111__formatter16__format_integerB8ne180000ITkNS_17unsigned_integralEmcNS_20basic_format_contextINS_20back_insert_iteratorINS_8__format15__output_bufferIcEEEEcEEEENT1_8iteratorET_RS9_NS_13__format_spec23__parsed_specificationsIT0_EEb
PUBLIC 1086e0 0 _ZNSt6__ndk111__formatter16__format_integerB8ne180000ITkNS_17unsigned_integralEmTkNS_19contiguous_iteratorEPccNS_20basic_format_contextINS_20back_insert_iteratorINS_8__format15__output_bufferIcEEEEcEEQ7same_asIcNS_11conditionalIXsr21__is_primary_templateINS_15iterator_traitsIu14__remove_cvrefIT0_EEEEE5valueENS_26indirectly_readable_traitsISD_EESE_E4type10value_typeEEEENT2_8iteratorET_RSK_NS_13__format_spec23__parsed_specificationsIT1_EEbSC_SC_PKci
PUBLIC 108d88 0 _ZNSt6__ndk119__to_chars_integralB8ne180000ILj2EmTnNS_9enable_ifIXgestT0_Lm4EEiE4typeELi0EEENS_15to_chars_resultEPcS6_S2_
PUBLIC 108e18 0 _ZNSt6__ndk119__to_chars_integralB8ne180000ILj8EmTnNS_9enable_ifIXgestT0_Lm4EEiE4typeELi0EEENS_15to_chars_resultEPcS6_S2_
PUBLIC 108eb4 0 _ZNSt6__ndk119__to_chars_integralB8ne180000ILj16EmTnNS_9enable_ifIXgestT0_Lm4EEiE4typeELi0EEENS_15to_chars_resultEPcS6_S2_
PUBLIC 108f48 0 std::__ndk1::__to_chars_integral_width[abi:ne180000]<unsigned long>(unsigned long, unsigned int)
PUBLIC 108fb0 0 _ZNSt6__ndk111__formatter16__format_integerB8ne180000ITkNS_17unsigned_integralEocNS_20basic_format_contextINS_20back_insert_iteratorINS_8__format15__output_bufferIcEEEEcEEEENT1_8iteratorET_RS9_NS_13__format_spec23__parsed_specificationsIT0_EEb
PUBLIC 10912c 0 _ZNSt6__ndk111__formatter16__format_integerB8ne180000ITkNS_17unsigned_integralEoTkNS_19contiguous_iteratorEPccNS_20basic_format_contextINS_20back_insert_iteratorINS_8__format15__output_bufferIcEEEEcEEQ7same_asIcNS_11conditionalIXsr21__is_primary_templateINS_15iterator_traitsIu14__remove_cvrefIT0_EEEEE5valueENS_26indirectly_readable_traitsISD_EESE_E4type10value_typeEEEENT2_8iteratorET_RSK_NS_13__format_spec23__parsed_specificationsIT1_EEbSC_SC_PKci
PUBLIC 109cdc 0 _ZNSt6__ndk119__to_chars_integralB8ne180000ILj2EoTnNS_9enable_ifIXgestT0_Lm4EEiE4typeELi0EEENS_15to_chars_resultEPcS6_S2_
PUBLIC 109da0 0 _ZNSt6__ndk119__to_chars_integralB8ne180000ILj8EoTnNS_9enable_ifIXgestT0_Lm4EEiE4typeELi0EEENS_15to_chars_resultEPcS6_S2_
PUBLIC 109e6c 0 _ZNSt6__ndk119__to_chars_integralB8ne180000ILj16EoTnNS_9enable_ifIXgestT0_Lm4EEiE4typeELi0EEENS_15to_chars_resultEPcS6_S2_
PUBLIC 109f2c 0 std::__ndk1::__to_chars_integral_width[abi:ne180000]<unsigned __int128>(unsigned __int128, unsigned int)
PUBLIC 10a010 0 std::__ndk1::__formatter::__format_floating_point_non_finite[abi:ne180000]<std::__ndk1::back_insert_iterator<std::__ndk1::__format::__output_buffer<char> >, char>(std::__ndk1::back_insert_iterator<std::__ndk1::__format::__output_buffer<char> >, std::__ndk1::__format_spec::__parsed_specifications<char>, bool, bool)
PUBLIC 10a174 0 _ZNSt6__ndk111__formatter28__write_using_trailing_zerosB8ne180000IccTkNS_15output_iteratorIRKT_EENS_20back_insert_iteratorINS_8__format15__output_bufferIcEEEEEEDtfp1_EPS4_SC_T1_NS_13__format_spec23__parsed_specificationsIT0_EEmSC_m
PUBLIC 10a4d8 0 std::__ndk1::__formatter::__format_locale_specific_form[abi:ne180000]<std::__ndk1::back_insert_iterator<std::__ndk1::__format::__output_buffer<char> >, double, char>(std::__ndk1::back_insert_iterator<std::__ndk1::__format::__output_buffer<char> >, std::__ndk1::__formatter::__float_buffer<double> const&, std::__ndk1::__formatter::__float_result const&, std::__ndk1::locale, std::__ndk1::__format_spec::__parsed_specifications<char>)
PUBLIC 10ae3c 0 std::__ndk1::__tree<std::__ndk1::__value_type<std::__ndk1::basic_string<char, std::__ndk1::char_traits<char>, std::__ndk1::allocator<char> >, float>, std::__ndk1::__map_value_compare<std::__ndk1::basic_string<char, std::__ndk1::char_traits<char>, std::__ndk1::allocator<char> >, std::__ndk1::__value_type<std::__ndk1::basic_string<char, std::__ndk1::char_traits<char>, std::__ndk1::allocator<char> >, float>, std::__ndk1::less<std::__ndk1::basic_string<char, std::__ndk1::char_traits<char>, std::__ndk1::allocator<char> > >, true>, std::__ndk1::allocator<std::__ndk1::__value_type<std::__ndk1::basic_string<char, std::__ndk1::char_traits<char>, std::__ndk1::allocator<char> >, float> > >::__emplace_unique_key_args<std::__ndk1::basic_string<char, std::__ndk1::char_traits<char>, std::__ndk1::allocator<char> >, std::__ndk1::piecewise_construct_t const&, std::__ndk1::tuple<std::__ndk1::basic_string<char, std::__ndk1::char_traits<char>, std::__ndk1::allocator<char> > const&>, std::__ndk1::tuple<> >(std::__ndk1::basic_string<char, std::__ndk1::char_traits<char>, std::__ndk1::allocator<char> > const&, std::__ndk1::piecewise_construct_t const&, std::__ndk1::tuple<std::__ndk1::basic_string<char, std::__ndk1::char_traits<char>, std::__ndk1::allocator<char> > const&>, std::__ndk1::tuple<>)
PUBLIC 10b010 0 std::__ndk1::unique_ptr<std::__ndk1::__tree_node<std::__ndk1::__value_type<std::__ndk1::basic_string<char, std::__ndk1::char_traits<char>, std::__ndk1::allocator<char> >, float>, void*>, std::__ndk1::__tree_node_destructor<std::__ndk1::allocator<std::__ndk1::__tree_node<std::__ndk1::__value_type<std::__ndk1::basic_string<char, std::__ndk1::char_traits<char>, std::__ndk1::allocator<char> >, float>, void*> > > >::~unique_ptr[abi:ne180000]()
PUBLIC 10b060 0 __cxx_global_array_dtor
PUBLIC 10b094 0 __cxx_global_array_dtor.10
PUBLIC 10b174 0 __cxx_global_var_init.51
PUBLIC 10b5b0 0 _GLOBAL__sub_I_game_ui.cpp
PUBLIC 10bc70 0 Interface::updateLabels()
PUBLIC 10bfec 0 Interface::onFrameStepper()
PUBLIC 10c08c 0 Interface::onFrameStepperOff()
PUBLIC 10c090 0 Interface::onSpeedhack()
PUBLIC 10c094 0 Interface::updateButtons()
PUBLIC 10c780 0 geode::modifier::ModifyBase<geode::modifier::ModifyDerive<hook6<(anonymous namespace)::hook6Parent>, PlayLayer> >::~ModifyBase()
PUBLIC 10c79c 0 geode::modifier::ModifyDerive<hook6<(anonymous namespace)::hook6Parent>, PlayLayer>::apply()
PUBLIC 10ce00 0 geode::modifier::ModifyBase<geode::modifier::ModifyDerive<hook6<(anonymous namespace)::hook6Parent>, PlayLayer> >::apply()
PUBLIC 10ce04 0 geode::modifier::AsStaticFunction_postUpdate<hook6<(anonymous namespace)::hook6Parent>, void (hook6<(anonymous namespace)::hook6Parent>::*)(float)>::Impl<void (hook6<(anonymous namespace)::hook6Parent>::*)(float)>::function(hook6<(anonymous namespace)::hook6Parent>*, float)
PUBLIC 10cfe8 0 geode::modifier::AsStaticFunction_init<hook6<(anonymous namespace)::hook6Parent>, bool (hook6<(anonymous namespace)::hook6Parent>::*)(GJGameLevel*, bool, bool)>::Impl<bool (hook6<(anonymous namespace)::hook6Parent>::*)(GJGameLevel*, bool, bool)>::function(hook6<(anonymous namespace)::hook6Parent>*, GJGameLevel*, bool, bool)
PUBLIC 10d7c0 0 geode::modifier::FieldIntermediate<hook6<(anonymous namespace)::hook6Parent>, PlayLayer>::operator->()
PUBLIC 10d94c 0 geode::modifier::FieldIntermediate<hook6<(anonymous namespace)::hook6Parent>, PlayLayer>::fieldDestructor(void*)
PUBLIC 10d950 0 __cxx_global_array_dtor
PUBLIC 10d984 0 __cxx_global_array_dtor.10
PUBLIC 10da64 0 __cxx_global_var_init.200
PUBLIC 10dea0 0 _GLOBAL__sub_I_record_layer.cpp
PUBLIC 111d98 0 NoclipSettingsLayer::open(cocos2d::CCObject*)
PUBLIC 111f90 0 TrajectorySettingsLayer::open(cocos2d::CCObject*)
PUBLIC 1121a0 0 RecordSetting::~RecordSetting()
PUBLIC 1121e4 0 ClickbotLayer::open(cocos2d::CCObject*)
PUBLIC 1123e8 0 AutoclickerLayer::open(cocos2d::CCObject*)
PUBLIC 1125fc 0 MirrorSettingsLayer::open(cocos2d::CCObject*)
PUBLIC 1127f4 0 std::__ndk1::vector<RecordSetting, std::__ndk1::allocator<RecordSetting> >::~vector[abi:ne180000]()
PUBLIC 112898 0 std::__ndk1::vector<std::__ndk1::vector<RecordSetting, std::__ndk1::allocator<RecordSetting> >, std::__ndk1::allocator<std::__ndk1::vector<RecordSetting, std::__ndk1::allocator<RecordSetting> > > >::~vector[abi:ne180000]()
PUBLIC 1128e4 0 RecordLayer::openSaveMacro(cocos2d::CCObject*)
PUBLIC 112e48 0 RecordLayer::openLoadMacro(cocos2d::CCObject*)
PUBLIC 112e54 0 RecordLayer::openMenu(bool)
PUBLIC 113014 0 RecordLayer::checkSpeedhack()
PUBLIC 113568 0 RecordLayer::onClose(cocos2d::CCObject*)
PUBLIC 113650 0 RecordLayer::toggleRecording(cocos2d::CCObject*)
PUBLIC 113780 0 RecordLayer::updateTPS()
PUBLIC 1140a8 0 RecordLayer::togglePlaying(cocos2d::CCObject*)
PUBLIC 114260 0 RecordLayer::toggleRender(cocos2d::CCObject*)
PUBLIC 114320 0 RecordLayer::onEditMacro(cocos2d::CCObject*)
PUBLIC 114340 0 RecordLayer::macroInfo(cocos2d::CCObject*)
PUBLIC 1144a0 0 RecordLayer::textChanged(CCTextInputNode*)
PUBLIC 115850 0 geode::impl::ResultData<double, std::__ndk1::basic_string<char, std::__ndk1::char_traits<char>, std::__ndk1::allocator<char> > >::~ResultData()
PUBLIC 1158c4 0 {virtual override thunk({offset(-672)}, RecordLayer::textChanged(CCTextInputNode*))}
PUBLIC 1158cc 0 RecordLayer::updatePage(cocos2d::CCObject*)
PUBLIC 115a2c 0 RecordLayer::goToSettingsPage(int)
PUBLIC 1180b0 0 RecordLayer::toggleSetting(cocos2d::CCObject*)
PUBLIC 1191fc 0 RecordLayer::openKeybinds(cocos2d::CCObject*)
PUBLIC 11943c 0 RecordLayer::openPresets(cocos2d::CCObject*)
PUBLIC 119458 0 RenderPresetsLayer::create()
PUBLIC 119650 0 RecordLayer::onAutosaves(cocos2d::CCObject*)
PUBLIC 1197c8 0 RecordLayer::updateDots()
PUBLIC 119908 0 RecordLayer::setup()
PUBLIC 11c32c 0 RecordLayer::moreSettings(cocos2d::CCObject*)
PUBLIC 11c338 0 RenderSettingsLayer::open(cocos2d::CCObject*)
PUBLIC 11c354 0 RecordLayer::onDiscord(cocos2d::CCObject*)
PUBLIC 11c4b8 0 RecordLayer::~RecordLayer()
PUBLIC 11c610 0 RecordLayer::~RecordLayer()
PUBLIC 11c634 0 {virtual override thunk({offset(-320)}, RecordLayer::~RecordLayer())}
PUBLIC 11c63c 0 {virtual override thunk({offset(-320)}, RecordLayer::~RecordLayer())}
PUBLIC 11c664 0 geode::modifier::ModifyBase<geode::modifier::ModifyDerive<hook66<(anonymous namespace)::hook66Parent>, PauseLayer> >::~ModifyBase()
PUBLIC 11c680 0 NoclipSettingsLayer::~NoclipSettingsLayer()
PUBLIC 11c6f4 0 NoclipSettingsLayer::setup()
PUBLIC 11cbbc 0 {virtual override thunk({offset(-320)}, NoclipSettingsLayer::~NoclipSettingsLayer())}
PUBLIC 11cc28 0 {virtual override thunk({offset(-320)}, NoclipSettingsLayer::~NoclipSettingsLayer())}
PUBLIC 11cc9c 0 geode::Popup<>::setTitle(std::__ndk1::basic_string<char, std::__ndk1::char_traits<char>, std::__ndk1::allocator<char> > const&, char const*, float, float)
PUBLIC 11cde8 0 NoclipSettingsLayer::onToggle(cocos2d::CCObject*)
PUBLIC 11d0b0 0 TrajectorySettingsLayer::~TrajectorySettingsLayer()
PUBLIC 11d124 0 TrajectorySettingsLayer::setup()
PUBLIC 11daf8 0 TrajectorySettingsLayer::updateColor(cocos2d::_ccColor4B const&)
PUBLIC 11ddc4 0 TrajectorySettingsLayer::textChanged(CCTextInputNode*)
PUBLIC 11e434 0 {virtual override thunk({offset(-320)}, TrajectorySettingsLayer::~TrajectorySettingsLayer())}
PUBLIC 11e4a0 0 {virtual override thunk({offset(-320)}, TrajectorySettingsLayer::~TrajectorySettingsLayer())}
PUBLIC 11e514 0 {virtual override thunk({offset(-672)}, TrajectorySettingsLayer::updateColor(cocos2d::_ccColor4B const&))}
PUBLIC 11e51c 0 {virtual override thunk({offset(-680)}, TrajectorySettingsLayer::textChanged(CCTextInputNode*))}
PUBLIC 11e524 0 TrajectorySettingsLayer::onToggle(cocos2d::CCObject*)
PUBLIC 11e690 0 TrajectorySettingsLayer::openColorPicker(cocos2d::CCObject*)
PUBLIC 11e710 0 TrajectorySettingsLayer::onRestore(cocos2d::CCObject*)
PUBLIC 11e828 0 std::__ndk1::__exception_guard_exceptions<std::__ndk1::vector<RecordSetting, std::__ndk1::allocator<RecordSetting> >::__destroy_vector>::~__exception_guard_exceptions[abi:ne180000]()
PUBLIC 11e8dc 0 std::__ndk1::vector<RecordSetting, std::__ndk1::allocator<RecordSetting> >::__throw_length_error[abi:ne180000]() const
PUBLIC 11e8f0 0 std::__ndk1::__uninitialized_allocator_copy_impl[abi:ne180000]<std::__ndk1::allocator<RecordSetting>, std::__ndk1::allocator const*, std::__ndk1::allocator const, std::__ndk1::allocator*>(std::__ndk1::allocator<RecordSetting>&, std::__ndk1::allocator const*, std::__ndk1::allocator const, std::__ndk1::allocator*)
PUBLIC 11ea24 0 std::__ndk1::__exception_guard_exceptions<std::__ndk1::_AllocatorDestroyRangeReverse<std::__ndk1::allocator<RecordSetting>, RecordSetting*> >::~__exception_guard_exceptions[abi:ne180000]()
PUBLIC 11ea88 0 AutoclickerLayer::~AutoclickerLayer()
PUBLIC 11eafc 0 AutoclickerLayer::setup()
PUBLIC 11fb98 0 AutoclickerLayer::textChanged(CCTextInputNode*)
PUBLIC 121264 0 {virtual override thunk({offset(-320)}, AutoclickerLayer::~AutoclickerLayer())}
PUBLIC 1212d0 0 {virtual override thunk({offset(-320)}, AutoclickerLayer::~AutoclickerLayer())}
PUBLIC 121344 0 {virtual override thunk({offset(-672)}, AutoclickerLayer::textChanged(CCTextInputNode*))}
PUBLIC 12134c 0 AutoclickerLayer::onToggle(cocos2d::CCObject*)
PUBLIC 121428 0 AutoclickerLayer::updateInputs()
PUBLIC 12186c 0 std::__ndk1::__function::__func<AutoclickerLayer::onToggle(cocos2d::CCObject*)::{lambda()#1}, std::__ndk1::allocator<AutoclickerLayer::onToggle(cocos2d::CCObject*)::{lambda()#1}>, void ()>::~__func()
PUBLIC 121870 0 std::__ndk1::__function::__func<AutoclickerLayer::onToggle(cocos2d::CCObject*)::{lambda()#1}, std::__ndk1::allocator<AutoclickerLayer::onToggle(cocos2d::CCObject*)::{lambda()#1}>, void ()>::__clone() const
PUBLIC 1218a4 0 std::__ndk1::__function::__func<AutoclickerLayer::onToggle(cocos2d::CCObject*)::{lambda()#1}, std::__ndk1::allocator<AutoclickerLayer::onToggle(cocos2d::CCObject*)::{lambda()#1}>, void ()>::__clone(std::__ndk1::__function::__base<void ()>*) const
PUBLIC 1218b8 0 std::__ndk1::__function::__func<AutoclickerLayer::onToggle(cocos2d::CCObject*)::{lambda()#1}, std::__ndk1::allocator<AutoclickerLayer::onToggle(cocos2d::CCObject*)::{lambda()#1}>, void ()>::destroy()
PUBLIC 1218bc 0 std::__ndk1::__function::__func<AutoclickerLayer::onToggle(cocos2d::CCObject*)::{lambda()#1}, std::__ndk1::allocator<AutoclickerLayer::onToggle(cocos2d::CCObject*)::{lambda()#1}>, void ()>::destroy_deallocate()
PUBLIC 1218c0 0 std::__ndk1::__function::__func<AutoclickerLayer::onToggle(cocos2d::CCObject*)::{lambda()#1}, std::__ndk1::allocator<AutoclickerLayer::onToggle(cocos2d::CCObject*)::{lambda()#1}>, void ()>::operator()()
PUBLIC 121a78 0 std::__ndk1::__function::__func<AutoclickerLayer::onToggle(cocos2d::CCObject*)::{lambda()#1}, std::__ndk1::allocator<AutoclickerLayer::onToggle(cocos2d::CCObject*)::{lambda()#1}>, void ()>::target(std::type_info const&) const
PUBLIC 121a94 0 std::__ndk1::__function::__func<AutoclickerLayer::onToggle(cocos2d::CCObject*)::{lambda()#1}, std::__ndk1::allocator<AutoclickerLayer::onToggle(cocos2d::CCObject*)::{lambda()#1}>, void ()>::target_type() const
PUBLIC 121aa0 0 MirrorSettingsLayer::~MirrorSettingsLayer()
PUBLIC 121b14 0 MirrorSettingsLayer::setup()
PUBLIC 121edc 0 {virtual override thunk({offset(-320)}, MirrorSettingsLayer::~MirrorSettingsLayer())}
PUBLIC 121f48 0 {virtual override thunk({offset(-320)}, MirrorSettingsLayer::~MirrorSettingsLayer())}
PUBLIC 121fbc 0 std::__ndk1::__exception_guard_exceptions<std::__ndk1::_AllocatorDestroyRangeReverse<std::__ndk1::allocator<std::__ndk1::vector<RecordSetting, std::__ndk1::allocator<RecordSetting> > >, std::__ndk1::vector<RecordSetting, std::__ndk1::allocator<RecordSetting> >*> >::~__exception_guard_exceptions[abi:ne180000]()
PUBLIC 12207c 0 std::__ndk1::vector<std::__ndk1::vector<RecordSetting, std::__ndk1::allocator<RecordSetting> >, std::__ndk1::allocator<std::__ndk1::vector<RecordSetting, std::__ndk1::allocator<RecordSetting> > > >::__destroy_vector::operator()[abi:ne180000]()
PUBLIC 122168 0 SaveMacroLayer::~SaveMacroLayer()
PUBLIC 1221dc 0 SaveMacroLayer::setup()
PUBLIC 122980 0 {virtual override thunk({offset(-320)}, SaveMacroLayer::~SaveMacroLayer())}
PUBLIC 1229ec 0 {virtual override thunk({offset(-320)}, SaveMacroLayer::~SaveMacroLayer())}
PUBLIC 122a60 0 SaveMacroLayer::onSave(cocos2d::CCObject*)
PUBLIC 123054 0 MacroInfoLayer::~MacroInfoLayer()
PUBLIC 1230c8 0 MacroInfoLayer::setup()
PUBLIC 1258f8 0 {virtual override thunk({offset(-320)}, MacroInfoLayer::~MacroInfoLayer())}
PUBLIC 125964 0 {virtual override thunk({offset(-320)}, MacroInfoLayer::~MacroInfoLayer())}
PUBLIC 1259d8 0 RenderPresetsLayer::~RenderPresetsLayer()
PUBLIC 125a4c 0 RenderPresetsLayer::setup()
PUBLIC 126750 0 {virtual override thunk({offset(-320)}, RenderPresetsLayer::~RenderPresetsLayer())}
PUBLIC 1267bc 0 {virtual override thunk({offset(-320)}, RenderPresetsLayer::~RenderPresetsLayer())}
PUBLIC 126830 0 RenderPresetsLayer::onLoad(cocos2d::CCObject*)
PUBLIC 127a34 0 RenderPresetsLayer::onSave(cocos2d::CCObject*)
PUBLIC 128428 0 RenderPresetsLayer::openRendersFolder(cocos2d::CCObject*)
PUBLIC 128588 0 geode::impl::ResultData<bool, std::__ndk1::basic_string<char, std::__ndk1::char_traits<char>, std::__ndk1::allocator<char> > >::~ResultData()
PUBLIC 1285fc 0 std::__ndk1::__function::__func<RenderPresetsLayer::update()::{lambda()#1}, std::__ndk1::allocator<RenderPresetsLayer::update()::{lambda()#1}>, void ()>::~__func()
PUBLIC 128600 0 std::__ndk1::__function::__func<RenderPresetsLayer::update()::{lambda()#1}, std::__ndk1::allocator<RenderPresetsLayer::update()::{lambda()#1}>, void ()>::__clone() const
PUBLIC 128624 0 std::__ndk1::__function::__func<RenderPresetsLayer::update()::{lambda()#1}, std::__ndk1::allocator<RenderPresetsLayer::update()::{lambda()#1}>, void ()>::__clone(std::__ndk1::__function::__base<void ()>*) const
PUBLIC 128634 0 std::__ndk1::__function::__func<RenderPresetsLayer::update()::{lambda()#1}, std::__ndk1::allocator<RenderPresetsLayer::update()::{lambda()#1}>, void ()>::destroy()
PUBLIC 128638 0 std::__ndk1::__function::__func<RenderPresetsLayer::update()::{lambda()#1}, std::__ndk1::allocator<RenderPresetsLayer::update()::{lambda()#1}>, void ()>::destroy_deallocate()
PUBLIC 12863c 0 std::__ndk1::__function::__func<RenderPresetsLayer::update()::{lambda()#1}, std::__ndk1::allocator<RenderPresetsLayer::update()::{lambda()#1}>, void ()>::operator()()
PUBLIC 1287d0 0 std::__ndk1::__function::__func<RenderPresetsLayer::update()::{lambda()#1}, std::__ndk1::allocator<RenderPresetsLayer::update()::{lambda()#1}>, void ()>::target(std::type_info const&) const
PUBLIC 1287ec 0 std::__ndk1::__function::__func<RenderPresetsLayer::update()::{lambda()#1}, std::__ndk1::allocator<RenderPresetsLayer::update()::{lambda()#1}>, void ()>::target_type() const
PUBLIC 1287f8 0 std::__ndk1::__function::__func<RenderPresetsLayer::update()::{lambda()#1}::operator()() const::{lambda()#1}, std::__ndk1::allocator<RenderPresetsLayer::update()::{lambda()#1}::operator()() const::{lambda()#1}>, void ()>::~__func()
PUBLIC 1287fc 0 std::__ndk1::__function::__func<RenderPresetsLayer::update()::{lambda()#1}::operator()() const::{lambda()#1}, std::__ndk1::allocator<RenderPresetsLayer::update()::{lambda()#1}::operator()() const::{lambda()#1}>, void ()>::__clone() const
PUBLIC 128820 0 std::__ndk1::__function::__func<RenderPresetsLayer::update()::{lambda()#1}::operator()() const::{lambda()#1}, std::__ndk1::allocator<RenderPresetsLayer::update()::{lambda()#1}::operator()() const::{lambda()#1}>, void ()>::__clone(std::__ndk1::__function::__base<void ()>*) const
PUBLIC 128830 0 std::__ndk1::__function::__func<RenderPresetsLayer::update()::{lambda()#1}::operator()() const::{lambda()#1}, std::__ndk1::allocator<RenderPresetsLayer::update()::{lambda()#1}::operator()() const::{lambda()#1}>, void ()>::destroy()
PUBLIC 128834 0 std::__ndk1::__function::__func<RenderPresetsLayer::update()::{lambda()#1}::operator()() const::{lambda()#1}, std::__ndk1::allocator<RenderPresetsLayer::update()::{lambda()#1}::operator()() const::{lambda()#1}>, void ()>::destroy_deallocate()
PUBLIC 128838 0 std::__ndk1::__function::__func<RenderPresetsLayer::update()::{lambda()#1}::operator()() const::{lambda()#1}, std::__ndk1::allocator<RenderPresetsLayer::update()::{lambda()#1}::operator()() const::{lambda()#1}>, void ()>::operator()()
PUBLIC 12885c 0 std::__ndk1::__function::__func<RenderPresetsLayer::update()::{lambda()#1}::operator()() const::{lambda()#1}, std::__ndk1::allocator<RenderPresetsLayer::update()::{lambda()#1}::operator()() const::{lambda()#1}>, void ()>::target(std::type_info const&) const
PUBLIC 128878 0 std::__ndk1::__function::__func<RenderPresetsLayer::update()::{lambda()#1}::operator()() const::{lambda()#1}, std::__ndk1::allocator<RenderPresetsLayer::update()::{lambda()#1}::operator()() const::{lambda()#1}>, void ()>::target_type() const
PUBLIC 128884 0 RenderSettingsLayer::create()
PUBLIC 128a98 0 std::__ndk1::vector<cocos2d::CCNode*, std::__ndk1::allocator<cocos2d::CCNode*> >::__throw_length_error[abi:ne180000]() const
PUBLIC 128aac 0 geode::modifier::ModifyDerive<hook66<(anonymous namespace)::hook66Parent>, PauseLayer>::apply()
PUBLIC 128ddc 0 geode::modifier::ModifyBase<geode::modifier::ModifyDerive<hook66<(anonymous namespace)::hook66Parent>, PauseLayer> >::apply()
PUBLIC 128de0 0 geode::modifier::AsStaticFunction_customSetup<hook66<(anonymous namespace)::hook66Parent>, void (hook66<(anonymous namespace)::hook66Parent>::*)()>::Impl<void (hook66<(anonymous namespace)::hook66Parent>::*)()>::function(hook66<(anonymous namespace)::hook66Parent>*)
PUBLIC 128fb0 0 geode::addresser::Addresser::addressOfVirtual<void, PauseLayer, >(void (PauseLayer::*)())
PUBLIC 129058 0 PauseLayer::PauseLayer(geode::ZeroConstructorType)
PUBLIC 1290e4 0 geodeExecFunction101<(anonymous namespace)::ExecFuncUnique101>()::{lambda(long)#1}::__invoke(long)
PUBLIC 1292e8 0 std::__ndk1::__function::__func<geode::listenForSettingChangesV3<cocos2d::_ccColor3B, void (*)(cocos2d::_ccColor3B)>(std::__ndk1::basic_string_view<char, std::__ndk1::char_traits<char> >, void (*&&)(cocos2d::_ccColor3B), geode::Mod*)::{lambda(std::__ndk1::shared_ptr<geode::SettingV3>)#1}, std::__ndk1::allocator<geode::listenForSettingChangesV3<cocos2d::_ccColor3B, void (*)(cocos2d::_ccColor3B)>(std::__ndk1::basic_string_view<char, std::__ndk1::char_traits<char> >, void (*&&)(cocos2d::_ccColor3B), geode::Mod*)::{lambda(std::__ndk1::shared_ptr<geode::SettingV3>)#1}>, void (std::__ndk1::shared_ptr<geode::SettingV3>)>::~__func()
PUBLIC 1292ec 0 std::__ndk1::__function::__func<geode::listenForSettingChangesV3<cocos2d::_ccColor3B, void (*)(cocos2d::_ccColor3B)>(std::__ndk1::basic_string_view<char, std::__ndk1::char_traits<char> >, void (*&&)(cocos2d::_ccColor3B), geode::Mod*)::{lambda(std::__ndk1::shared_ptr<geode::SettingV3>)#1}, std::__ndk1::allocator<geode::listenForSettingChangesV3<cocos2d::_ccColor3B, void (*)(cocos2d::_ccColor3B)>(std::__ndk1::basic_string_view<char, std::__ndk1::char_traits<char> >, void (*&&)(cocos2d::_ccColor3B), geode::Mod*)::{lambda(std::__ndk1::shared_ptr<geode::SettingV3>)#1}>, void (std::__ndk1::shared_ptr<geode::SettingV3>)>::__clone() const
PUBLIC 129320 0 std::__ndk1::__function::__func<geode::listenForSettingChangesV3<cocos2d::_ccColor3B, void (*)(cocos2d::_ccColor3B)>(std::__ndk1::basic_string_view<char, std::__ndk1::char_traits<char> >, void (*&&)(cocos2d::_ccColor3B), geode::Mod*)::{lambda(std::__ndk1::shared_ptr<geode::SettingV3>)#1}, std::__ndk1::allocator<geode::listenForSettingChangesV3<cocos2d::_ccColor3B, void (*)(cocos2d::_ccColor3B)>(std::__ndk1::basic_string_view<char, std::__ndk1::char_traits<char> >, void (*&&)(cocos2d::_ccColor3B), geode::Mod*)::{lambda(std::__ndk1::shared_ptr<geode::SettingV3>)#1}>, void (std::__ndk1::shared_ptr<geode::SettingV3>)>::__clone(std::__ndk1::__function::__base<void (std::__ndk1::shared_ptr<geode::SettingV3>)>*) const
PUBLIC 129334 0 std::__ndk1::__function::__func<geode::listenForSettingChangesV3<cocos2d::_ccColor3B, void (*)(cocos2d::_ccColor3B)>(std::__ndk1::basic_string_view<char, std::__ndk1::char_traits<char> >, void (*&&)(cocos2d::_ccColor3B), geode::Mod*)::{lambda(std::__ndk1::shared_ptr<geode::SettingV3>)#1}, std::__ndk1::allocator<geode::listenForSettingChangesV3<cocos2d::_ccColor3B, void (*)(cocos2d::_ccColor3B)>(std::__ndk1::basic_string_view<char, std::__ndk1::char_traits<char> >, void (*&&)(cocos2d::_ccColor3B), geode::Mod*)::{lambda(std::__ndk1::shared_ptr<geode::SettingV3>)#1}>, void (std::__ndk1::shared_ptr<geode::SettingV3>)>::destroy()
PUBLIC 129338 0 std::__ndk1::__function::__func<geode::listenForSettingChangesV3<cocos2d::_ccColor3B, void (*)(cocos2d::_ccColor3B)>(std::__ndk1::basic_string_view<char, std::__ndk1::char_traits<char> >, void (*&&)(cocos2d::_ccColor3B), geode::Mod*)::{lambda(std::__ndk1::shared_ptr<geode::SettingV3>)#1}, std::__ndk1::allocator<geode::listenForSettingChangesV3<cocos2d::_ccColor3B, void (*)(cocos2d::_ccColor3B)>(std::__ndk1::basic_string_view<char, std::__ndk1::char_traits<char> >, void (*&&)(cocos2d::_ccColor3B), geode::Mod*)::{lambda(std::__ndk1::shared_ptr<geode::SettingV3>)#1}>, void (std::__ndk1::shared_ptr<geode::SettingV3>)>::destroy_deallocate()
PUBLIC 12933c 0 std::__ndk1::__function::__func<geode::listenForSettingChangesV3<cocos2d::_ccColor3B, void (*)(cocos2d::_ccColor3B)>(std::__ndk1::basic_string_view<char, std::__ndk1::char_traits<char> >, void (*&&)(cocos2d::_ccColor3B), geode::Mod*)::{lambda(std::__ndk1::shared_ptr<geode::SettingV3>)#1}, std::__ndk1::allocator<geode::listenForSettingChangesV3<cocos2d::_ccColor3B, void (*)(cocos2d::_ccColor3B)>(std::__ndk1::basic_string_view<char, std::__ndk1::char_traits<char> >, void (*&&)(cocos2d::_ccColor3B), geode::Mod*)::{lambda(std::__ndk1::shared_ptr<geode::SettingV3>)#1}>, void (std::__ndk1::shared_ptr<geode::SettingV3>)>::operator()(std::__ndk1::shared_ptr<geode::SettingV3>&&)
PUBLIC 1294b4 0 std::__ndk1::__function::__func<geode::listenForSettingChangesV3<cocos2d::_ccColor3B, void (*)(cocos2d::_ccColor3B)>(std::__ndk1::basic_string_view<char, std::__ndk1::char_traits<char> >, void (*&&)(cocos2d::_ccColor3B), geode::Mod*)::{lambda(std::__ndk1::shared_ptr<geode::SettingV3>)#1}, std::__ndk1::allocator<geode::listenForSettingChangesV3<cocos2d::_ccColor3B, void (*)(cocos2d::_ccColor3B)>(std::__ndk1::basic_string_view<char, std::__ndk1::char_traits<char> >, void (*&&)(cocos2d::_ccColor3B), geode::Mod*)::{lambda(std::__ndk1::shared_ptr<geode::SettingV3>)#1}>, void (std::__ndk1::shared_ptr<geode::SettingV3>)>::target(std::type_info const&) const
PUBLIC 1294d0 0 std::__ndk1::__function::__func<geode::listenForSettingChangesV3<cocos2d::_ccColor3B, void (*)(cocos2d::_ccColor3B)>(std::__ndk1::basic_string_view<char, std::__ndk1::char_traits<char> >, void (*&&)(cocos2d::_ccColor3B), geode::Mod*)::{lambda(std::__ndk1::shared_ptr<geode::SettingV3>)#1}, std::__ndk1::allocator<geode::listenForSettingChangesV3<cocos2d::_ccColor3B, void (*)(cocos2d::_ccColor3B)>(std::__ndk1::basic_string_view<char, std::__ndk1::char_traits<char> >, void (*&&)(cocos2d::_ccColor3B), geode::Mod*)::{lambda(std::__ndk1::shared_ptr<geode::SettingV3>)#1}>, void (std::__ndk1::shared_ptr<geode::SettingV3>)>::target_type() const
PUBLIC 1294dc 0 std::__ndk1::shared_ptr<geode::Color3BSettingV3>::~shared_ptr[abi:ne180000]()
PUBLIC 12952c 0 geodeExecFunction101<(anonymous namespace)::ExecFuncUnique101>()::{lambda(cocos2d::_ccColor3B(cocos2d::_ccColor3B))#1}::__invoke
PUBLIC 129634 0 std::__ndk1::__function::__func<RecordLayer::onDiscord(cocos2d::CCObject*)::$_0, std::__ndk1::allocator<RecordLayer::onDiscord(cocos2d::CCObject*)::$_0>, void (FLAlertLayer*, bool)>::~__func()
PUBLIC 129638 0 std::__ndk1::__function::__func<RecordLayer::onDiscord(cocos2d::CCObject*)::$_0, std::__ndk1::allocator<RecordLayer::onDiscord(cocos2d::CCObject*)::$_0>, void (FLAlertLayer*, bool)>::__clone() const
PUBLIC 12965c 0 std::__ndk1::__function::__func<RecordLayer::onDiscord(cocos2d::CCObject*)::$_0, std::__ndk1::allocator<RecordLayer::onDiscord(cocos2d::CCObject*)::$_0>, void (FLAlertLayer*, bool)>::__clone(std::__ndk1::__function::__base<void (FLAlertLayer*, bool)>*) const
PUBLIC 12966c 0 std::__ndk1::__function::__func<RecordLayer::onDiscord(cocos2d::CCObject*)::$_0, std::__ndk1::allocator<RecordLayer::onDiscord(cocos2d::CCObject*)::$_0>, void (FLAlertLayer*, bool)>::destroy()
PUBLIC 129670 0 std::__ndk1::__function::__func<RecordLayer::onDiscord(cocos2d::CCObject*)::$_0, std::__ndk1::allocator<RecordLayer::onDiscord(cocos2d::CCObject*)::$_0>, void (FLAlertLayer*, bool)>::destroy_deallocate()
PUBLIC 129674 0 std::__ndk1::__function::__func<RecordLayer::onDiscord(cocos2d::CCObject*)::$_0, std::__ndk1::allocator<RecordLayer::onDiscord(cocos2d::CCObject*)::$_0>, void (FLAlertLayer*, bool)>::operator()(FLAlertLayer*&&, bool&&)
PUBLIC 129734 0 std::__ndk1::__function::__func<RecordLayer::onDiscord(cocos2d::CCObject*)::$_0, std::__ndk1::allocator<RecordLayer::onDiscord(cocos2d::CCObject*)::$_0>, void (FLAlertLayer*, bool)>::target(std::type_info const&) const
PUBLIC 129750 0 std::__ndk1::__function::__func<RecordLayer::onDiscord(cocos2d::CCObject*)::$_0, std::__ndk1::allocator<RecordLayer::onDiscord(cocos2d::CCObject*)::$_0>, void (FLAlertLayer*, bool)>::target_type() const
PUBLIC 12975c 0 __cxx_global_array_dtor
PUBLIC 129790 0 __cxx_global_array_dtor.10
PUBLIC 129870 0 __cxx_global_var_init.68
PUBLIC 129cac 0 _GLOBAL__sub_I_render_settings_layer.cpp
PUBLIC 129fb8 0 RenderSettingsLayer::textChanged(CCTextInputNode*)
PUBLIC 12a8d0 0 {virtual override thunk({offset(-672)}, RenderSettingsLayer::textChanged(CCTextInputNode*))}
PUBLIC 12a8d8 0 RenderSettingsLayer::onDefaults(cocos2d::CCObject*)
PUBLIC 12aa3c 0 RenderSettingsLayer::setup()
PUBLIC 12d398 0 RenderSettingsLayer::onSlider(cocos2d::CCObject*)
PUBLIC 12d518 0 RenderSettingsLayer::close(cocos2d::CCObject*)
PUBLIC 12d524 0 RenderSettingsLayer::showInfoPopup(cocos2d::CCObject*)
PUBLIC 12d6c0 0 RenderSettingsLayer::~RenderSettingsLayer()
PUBLIC 12d734 0 {virtual override thunk({offset(-320)}, RenderSettingsLayer::~RenderSettingsLayer())}
PUBLIC 12d7a0 0 {virtual override thunk({offset(-320)}, RenderSettingsLayer::~RenderSettingsLayer())}
PUBLIC 12d814 0 geode::modifier::ModifyBase<geode::modifier::ModifyDerive<hook6<(anonymous namespace)::hook6Parent>, SliderTouchLogic> >::~ModifyBase()
PUBLIC 12d830 0 geode::modifier::ModifyDerive<hook6<(anonymous namespace)::hook6Parent>, SliderTouchLogic>::apply()
PUBLIC 12dbf0 0 geode::modifier::ModifyBase<geode::modifier::ModifyDerive<hook6<(anonymous namespace)::hook6Parent>, SliderTouchLogic> >::apply()
PUBLIC 12dbf4 0 geode::modifier::AsStaticFunction_ccTouchBegan<hook6<(anonymous namespace)::hook6Parent>, bool (hook6<(anonymous namespace)::hook6Parent>::*)(cocos2d::CCTouch*, cocos2d::CCEvent*)>::Impl<bool (hook6<(anonymous namespace)::hook6Parent>::*)(cocos2d::CCTouch*, cocos2d::CCEvent*)>::function(hook6<(anonymous namespace)::hook6Parent>*, cocos2d::CCTouch*, cocos2d::CCEvent*)
PUBLIC 12dcd0 0 geode::addresser::Addresser::addressOfVirtual<bool, SliderTouchLogic, cocos2d::CCTouch*, cocos2d::CCEvent*>(bool (SliderTouchLogic::*)(cocos2d::CCTouch*, cocos2d::CCEvent*))
PUBLIC 12dd78 0 SliderTouchLogic::SliderTouchLogic(geode::ZeroConstructorType)
PUBLIC 12de18 0 std::__ndk1::__function::__func<RenderSettingsLayer::onDefaults(cocos2d::CCObject*)::$_0, std::__ndk1::allocator<RenderSettingsLayer::onDefaults(cocos2d::CCObject*)::$_0>, void (FLAlertLayer*, bool)>::~__func()
PUBLIC 12de1c 0 std::__ndk1::__function::__func<RenderSettingsLayer::onDefaults(cocos2d::CCObject*)::$_0, std::__ndk1::allocator<RenderSettingsLayer::onDefaults(cocos2d::CCObject*)::$_0>, void (FLAlertLayer*, bool)>::__clone() const
PUBLIC 12de50 0 std::__ndk1::__function::__func<RenderSettingsLayer::onDefaults(cocos2d::CCObject*)::$_0, std::__ndk1::allocator<RenderSettingsLayer::onDefaults(cocos2d::CCObject*)::$_0>, void (FLAlertLayer*, bool)>::__clone(std::__ndk1::__function::__base<void (FLAlertLayer*, bool)>*) const
PUBLIC 12de64 0 std::__ndk1::__function::__func<RenderSettingsLayer::onDefaults(cocos2d::CCObject*)::$_0, std::__ndk1::allocator<RenderSettingsLayer::onDefaults(cocos2d::CCObject*)::$_0>, void (FLAlertLayer*, bool)>::destroy()
PUBLIC 12de68 0 std::__ndk1::__function::__func<RenderSettingsLayer::onDefaults(cocos2d::CCObject*)::$_0, std::__ndk1::allocator<RenderSettingsLayer::onDefaults(cocos2d::CCObject*)::$_0>, void (FLAlertLayer*, bool)>::destroy_deallocate()
PUBLIC 12de6c 0 std::__ndk1::__function::__func<RenderSettingsLayer::onDefaults(cocos2d::CCObject*)::$_0, std::__ndk1::allocator<RenderSettingsLayer::onDefaults(cocos2d::CCObject*)::$_0>, void (FLAlertLayer*, bool)>::operator()(FLAlertLayer*&&, bool&&)
PUBLIC 12e528 0 std::__ndk1::__function::__func<RenderSettingsLayer::onDefaults(cocos2d::CCObject*)::$_0, std::__ndk1::allocator<RenderSettingsLayer::onDefaults(cocos2d::CCObject*)::$_0>, void (FLAlertLayer*, bool)>::target(std::type_info const&) const
PUBLIC 12e544 0 std::__ndk1::__function::__func<RenderSettingsLayer::onDefaults(cocos2d::CCObject*)::$_0, std::__ndk1::allocator<RenderSettingsLayer::onDefaults(cocos2d::CCObject*)::$_0>, void (FLAlertLayer*, bool)>::target_type() const
PUBLIC 12e550 0 __cxx_global_array_dtor
PUBLIC 12e584 0 __cxx_global_array_dtor.10
PUBLIC 12e664 0 __cxx_global_var_init.87
PUBLIC 12eaa0 0 _GLOBAL__sub_I_load_macro_layer.cpp
PUBLIC 12f01c 0 LoadMacroLayer::open(geode::Popup<>*, geode::Popup<>*, bool)
PUBLIC 12f6b4 0 LoadMacroLayer::textChanged(CCTextInputNode*)
PUBLIC 12f9c8 0 LoadMacroLayer::reloadList(int)
PUBLIC 12fc0c 0 {virtual override thunk({offset(-672)}, LoadMacroLayer::textChanged(CCTextInputNode*))}
PUBLIC 12fc14 0 LoadMacroLayer::addList(bool, float)
PUBLIC 132908 0 LoadMacroLayer::deleteSelected(cocos2d::CCObject*)
PUBLIC 132c3c 0 LoadMacroLayer::onSelectAll(cocos2d::CCObject*)
PUBLIC 132cdc 0 MacroCell::selectMacro(bool)
PUBLIC 132f38 0 LoadMacroLayer::onImportMacro(cocos2d::CCObject*)
PUBLIC 133648 0 geode::utils::file::FilePickOptions::Filter::~Filter()
PUBLIC 1336c8 0 geode::Task<geode::Result<std::__ndk1::__fs::filesystem::path, std::__ndk1::basic_string<char, std::__ndk1::char_traits<char>, std::__ndk1::allocator<char> > >, std::__ndk1::monostate>::~Task()
PUBLIC 133718 0 geode::utils::file::FilePickOptions::~FilePickOptions()
PUBLIC 133784 0 LoadMacroLayer::setup(geode::Popup<>*, geode::Popup<>*, bool)
PUBLIC 134514 0 LoadMacroLayer::openFolder(cocos2d::CCObject*)
PUBLIC 1345f0 0 AutoSaveLayer::open(cocos2d::CCObject*)
PUBLIC 1347fc 0 LoadMacroLayer::updateSort(cocos2d::CCObject*)
PUBLIC 134818 0 LoadMacroLayer::clearSearch(cocos2d::CCObject*)
PUBLIC 1348ec 0 std::__ndk1::vector<std::__ndk1::__fs::filesystem::path, std::__ndk1::allocator<std::__ndk1::__fs::filesystem::path> >::~vector[abi:ne180000]()
PUBLIC 134968 0 MacroCell::onLoad(cocos2d::CCObject*)
PUBLIC 134cc4 0 MacroCell::onDelete(cocos2d::CCObject*)
PUBLIC 134f5c 0 MacroCell::onSelect(cocos2d::CCObject*)
PUBLIC 134f64 0 MacroCell::handleLoad()
PUBLIC 135fe8 0 gdr::Replay<Macro, input>::importData(std::__ndk1::vector<unsigned char, std::__ndk1::allocator<unsigned char> > const&, bool)
PUBLIC 1394bc 0 MacroCell::deleteMacro(bool)
PUBLIC 1396d8 0 LoadMacroLayer::~LoadMacroLayer()
PUBLIC 1397b8 0 LoadMacroLayer::~LoadMacroLayer()
PUBLIC 1397dc 0 geode::Popup<geode::Popup<>*, geode::Popup<>*, bool>::registerWithTouchDispatcher()
PUBLIC 139808 0 geode::Popup<geode::Popup<>*, geode::Popup<>*, bool>::keyDown(cocos2d::enumKeyCodes)
PUBLIC 139830 0 geode::Popup<geode::Popup<>*, geode::Popup<>*, bool>::onClose(cocos2d::CCObject*)
PUBLIC 139978 0 {virtual override thunk({offset(-320)}, LoadMacroLayer::~LoadMacroLayer())}
PUBLIC 139980 0 {virtual override thunk({offset(-320)}, LoadMacroLayer::~LoadMacroLayer())}
PUBLIC 1399a8 0 {virtual override thunk({offset(-344)}, geode::Popup<geode::Popup<>*, geode::Popup<>*, bool>::keyDown(cocos2d::enumKeyCodes))}
PUBLIC 1399d4 0 geode::modifier::ModifyBase<geode::modifier::ModifyDerive<hook7<(anonymous namespace)::hook7Parent>, cocos2d::CCMenu> >::~ModifyBase()
PUBLIC 1399f0 0 geode::Popup<geode::Popup<>*, geode::Popup<>*, bool>::~Popup()
PUBLIC 139a5c 0 geode::Popup<geode::Popup<>*, geode::Popup<>*, bool>::~Popup()
PUBLIC 139a60 0 {virtual override thunk({offset(-320)}, geode::Popup<geode::Popup<>*, geode::Popup<>*, bool>::~Popup())}
PUBLIC 139acc 0 {virtual override thunk({offset(-320)}, geode::Popup<geode::Popup<>*, geode::Popup<>*, bool>::~Popup())}
PUBLIC 139ad0 0 std::__ndk1::vector<geode::utils::file::FilePickOptions::Filter, std::__ndk1::allocator<geode::utils::file::FilePickOptions::Filter> >::__push_back_slow_path<geode::utils::file::FilePickOptions::Filter const&>(geode::utils::file::FilePickOptions::Filter const&)
PUBLIC 139d3c 0 std::__ndk1::__split_buffer<geode::utils::file::FilePickOptions::Filter, std::__ndk1::allocator<geode::utils::file::FilePickOptions::Filter>&>::~__split_buffer()
PUBLIC 139df4 0 std::__ndk1::vector<geode::utils::file::FilePickOptions::Filter, std::__ndk1::allocator<geode::utils::file::FilePickOptions::Filter> >::__throw_length_error[abi:ne180000]() const
PUBLIC 139e08 0 std::__ndk1::unordered_set<std::__ndk1::basic_string<char, std::__ndk1::char_traits<char>, std::__ndk1::allocator<char> >, std::__ndk1::hash<std::__ndk1::basic_string<char, std::__ndk1::char_traits<char>, std::__ndk1::allocator<char> > >, std::__ndk1::equal_to<std::__ndk1::basic_string<char, std::__ndk1::char_traits<char>, std::__ndk1::allocator<char> > >, std::__ndk1::allocator<std::__ndk1::basic_string<char, std::__ndk1::char_traits<char>, std::__ndk1::allocator<char> > > >::unordered_set(std::__ndk1::unordered_set<std::__ndk1::basic_string<char, std::__ndk1::char_traits<char>, std::__ndk1::allocator<char> >, std::__ndk1::hash<std::__ndk1::basic_string<char, std::__ndk1::char_traits<char>, std::__ndk1::allocator<char> > >, std::__ndk1::equal_to<std::__ndk1::basic_string<char, std::__ndk1::char_traits<char>, std::__ndk1::allocator<char> > >, std::__ndk1::allocator<std::__ndk1::basic_string<char, std::__ndk1::char_traits<char>, std::__ndk1::allocator<char> > > > const&)
PUBLIC 139f44 0 std::__ndk1::__hash_table<std::__ndk1::basic_string<char, std::__ndk1::char_traits<char>, std::__ndk1::allocator<char> >, std::__ndk1::hash<std::__ndk1::basic_string<char, std::__ndk1::char_traits<char>, std::__ndk1::allocator<char> > >, std::__ndk1::equal_to<std::__ndk1::basic_string<char, std::__ndk1::char_traits<char>, std::__ndk1::allocator<char> > >, std::__ndk1::allocator<std::__ndk1::basic_string<char, std::__ndk1::char_traits<char>, std::__ndk1::allocator<char> > > >::~__hash_table()
PUBLIC 139fb4 0 std::__ndk1::__hash_table<std::__ndk1::basic_string<char, std::__ndk1::char_traits<char>, std::__ndk1::allocator<char> >, std::__ndk1::hash<std::__ndk1::basic_string<char, std::__ndk1::char_traits<char>, std::__ndk1::allocator<char> > >, std::__ndk1::equal_to<std::__ndk1::basic_string<char, std::__ndk1::char_traits<char>, std::__ndk1::allocator<char> > >, std::__ndk1::allocator<std::__ndk1::basic_string<char, std::__ndk1::char_traits<char>, std::__ndk1::allocator<char> > > >::__do_rehash<true>(unsigned long)
PUBLIC 13a160 0 std::__ndk1::__hash_table<std::__ndk1::basic_string<char, std::__ndk1::char_traits<char>, std::__ndk1::allocator<char> >, std::__ndk1::hash<std::__ndk1::basic_string<char, std::__ndk1::char_traits<char>, std::__ndk1::allocator<char> > >, std::__ndk1::equal_to<std::__ndk1::basic_string<char, std::__ndk1::char_traits<char>, std::__ndk1::allocator<char> > >, std::__ndk1::allocator<std::__ndk1::basic_string<char, std::__ndk1::char_traits<char>, std::__ndk1::allocator<char> > > >::__emplace_unique_key_args<std::__ndk1::basic_string<char, std::__ndk1::char_traits<char>, std::__ndk1::allocator<char> >, std::__ndk1::basic_string<char, std::__ndk1::char_traits<char>, std::__ndk1::allocator<char> > const&>(std::__ndk1::basic_string<char, std::__ndk1::char_traits<char>, std::__ndk1::allocator<char> > const&, std::__ndk1::basic_string<char, std::__ndk1::char_traits<char>, std::__ndk1::allocator<char> > const&)
PUBLIC 13a614 0 std::__ndk1::unique_ptr<std::__ndk1::__hash_node<std::__ndk1::basic_string<char, std::__ndk1::char_traits<char>, std::__ndk1::allocator<char> >, void*>, std::__ndk1::__hash_node_destructor<std::__ndk1::allocator<std::__ndk1::__hash_node<std::__ndk1::basic_string<char, std::__ndk1::char_traits<char>, std::__ndk1::allocator<char> >, void*> > > >::~unique_ptr[abi:ne180000]()
PUBLIC 13a664 0 std::__ndk1::__murmur2_or_cityhash<unsigned long, (unsigned long)64>::operator()[abi:ne180000](void const*, unsigned long) const
PUBLIC 13aab0 0 std::__ndk1::__hash_table<std::__ndk1::basic_string<char, std::__ndk1::char_traits<char>, std::__ndk1::allocator<char> >, std::__ndk1::hash<std::__ndk1::basic_string<char, std::__ndk1::char_traits<char>, std::__ndk1::allocator<char> > >, std::__ndk1::equal_to<std::__ndk1::basic_string<char, std::__ndk1::char_traits<char>, std::__ndk1::allocator<char> > >, std::__ndk1::allocator<std::__ndk1::basic_string<char, std::__ndk1::char_traits<char>, std::__ndk1::allocator<char> > > >::__deallocate_node(std::__ndk1::__hash_node_base<std::__ndk1::__hash_node<std::__ndk1::basic_string<char, std::__ndk1::char_traits<char>, std::__ndk1::allocator<char> >, void*>*>*)
PUBLIC 13aafc 0 std::__ndk1::__exception_guard_exceptions<std::__ndk1::_AllocatorDestroyRangeReverse<std::__ndk1::allocator<geode::utils::file::FilePickOptions::Filter>, geode::utils::file::FilePickOptions::Filter*> >::~__exception_guard_exceptions[abi:ne180000]()
PUBLIC 13aba0 0 std::__ndk1::vector<geode::utils::file::FilePickOptions::Filter, std::__ndk1::allocator<geode::utils::file::FilePickOptions::Filter> >::__destroy_vector::operator()[abi:ne180000]()
PUBLIC 13ac84 0 AutoSaveLayer::~AutoSaveLayer()
PUBLIC 13acf8 0 AutoSaveLayer::setup()
PUBLIC 13b5b8 0 AutoSaveLayer::textChanged(CCTextInputNode*)
PUBLIC 13b854 0 {virtual override thunk({offset(-320)}, AutoSaveLayer::~AutoSaveLayer())}
PUBLIC 13b8c0 0 {virtual override thunk({offset(-320)}, AutoSaveLayer::~AutoSaveLayer())}
PUBLIC 13b934 0 {virtual override thunk({offset(-672)}, AutoSaveLayer::textChanged(CCTextInputNode*))}
PUBLIC 13b93c 0 AutoSaveLayer::onToggle(cocos2d::CCObject*)
PUBLIC 13ba18 0 AutoSaveLayer::updateInputs()
PUBLIC 13bba4 0 std::__ndk1::__function::__func<AutoSaveLayer::onToggle(cocos2d::CCObject*)::{lambda()#1}, std::__ndk1::allocator<AutoSaveLayer::onToggle(cocos2d::CCObject*)::{lambda()#1}>, void ()>::~__func()
PUBLIC 13bba8 0 std::__ndk1::__function::__func<AutoSaveLayer::onToggle(cocos2d::CCObject*)::{lambda()#1}, std::__ndk1::allocator<AutoSaveLayer::onToggle(cocos2d::CCObject*)::{lambda()#1}>, void ()>::__clone() const
PUBLIC 13bbdc 0 std::__ndk1::__function::__func<AutoSaveLayer::onToggle(cocos2d::CCObject*)::{lambda()#1}, std::__ndk1::allocator<AutoSaveLayer::onToggle(cocos2d::CCObject*)::{lambda()#1}>, void ()>::__clone(std::__ndk1::__function::__base<void ()>*) const
PUBLIC 13bbf0 0 std::__ndk1::__function::__func<AutoSaveLayer::onToggle(cocos2d::CCObject*)::{lambda()#1}, std::__ndk1::allocator<AutoSaveLayer::onToggle(cocos2d::CCObject*)::{lambda()#1}>, void ()>::destroy()
PUBLIC 13bbf4 0 std::__ndk1::__function::__func<AutoSaveLayer::onToggle(cocos2d::CCObject*)::{lambda()#1}, std::__ndk1::allocator<AutoSaveLayer::onToggle(cocos2d::CCObject*)::{lambda()#1}>, void ()>::destroy_deallocate()
PUBLIC 13bbf8 0 std::__ndk1::__function::__func<AutoSaveLayer::onToggle(cocos2d::CCObject*)::{lambda()#1}, std::__ndk1::allocator<AutoSaveLayer::onToggle(cocos2d::CCObject*)::{lambda()#1}>, void ()>::operator()()
PUBLIC 13be18 0 std::__ndk1::__function::__func<AutoSaveLayer::onToggle(cocos2d::CCObject*)::{lambda()#1}, std::__ndk1::allocator<AutoSaveLayer::onToggle(cocos2d::CCObject*)::{lambda()#1}>, void ()>::target(std::type_info const&) const
PUBLIC 13be34 0 std::__ndk1::__function::__func<AutoSaveLayer::onToggle(cocos2d::CCObject*)::{lambda()#1}, std::__ndk1::allocator<AutoSaveLayer::onToggle(cocos2d::CCObject*)::{lambda()#1}>, void ()>::target_type() const
PUBLIC 13be40 0 std::__ndk1::__variant_detail::__visitation::__base::__dispatcher<(unsigned long)0>::__dispatch[abi:ne180000]<std::__ndk1::__variant_detail::__dtor<std::__ndk1::__variant_detail::__traits<std::__ndk1::vector<std::__ndk1::__fs::filesystem::path, std::__ndk1::allocator<std::__ndk1::__fs::filesystem> >, std::__ndk1::basic_string<char, std::__ndk1::char_traits<char>, std::__ndk1::__fs::filesystem::path<char> > >, (std::__ndk1::__variant_detail::_Trait)1>::__destroy[abi:ne180000]()::{lambda(auto:1&)#1}, std::__ndk1::__variant_detail::__base<(std::__ndk1::__variant_detail::__traits<std::__ndk1::vector<std::__ndk1::__fs::filesystem::path, std::__ndk1::allocator<std::__ndk1::__fs::filesystem> >, std::__ndk1::basic_string<char, std::__ndk1::char_traits<char>, std::__ndk1::__fs::filesystem::path<char> > >)1, std::__ndk1::allocator<std::__ndk1::__fs::filesystem>, std::__ndk1::__fs::filesystem::path<char> >&>(std::__ndk1::__variant_detail::__dtor<std::__ndk1::__variant_detail::__traits<std::__ndk1::vector<std::__ndk1::__fs::filesystem::path, std::__ndk1::allocator<std::__ndk1::__fs::filesystem> >, std::__ndk1::basic_string<char, std::__ndk1::char_traits<char>, std::__ndk1::__fs::filesystem::path<char> > >, (std::__ndk1::__variant_detail::_Trait)1>, std::__ndk1::__variant_detail::__base<(std::__ndk1::__variant_detail::__traits<std::__ndk1::vector<std::__ndk1::__fs::filesystem::path, std::__ndk1::allocator<std::__ndk1::__fs::filesystem> >, std::__ndk1::basic_string<char, std::__ndk1::char_traits<char>, std::__ndk1::__fs::filesystem::path<char> > >)1, std::__ndk1::allocator<std::__ndk1::__fs::filesystem>, std::__ndk1::__fs::filesystem::path<char> >&)
PUBLIC 13bebc 0 std::__ndk1::__variant_detail::__visitation::__base::__dispatcher<(unsigned long)1>::__dispatch[abi:ne180000]<std::__ndk1::__variant_detail::__dtor<std::__ndk1::__variant_detail::__traits<std::__ndk1::vector<std::__ndk1::__fs::filesystem::path, std::__ndk1::allocator<std::__ndk1::__fs::filesystem> >, std::__ndk1::basic_string<char, std::__ndk1::char_traits<char>, std::__ndk1::__fs::filesystem::path<char> > >, (std::__ndk1::__variant_detail::_Trait)1>::__destroy[abi:ne180000]()::{lambda(auto:1&)#1}, std::__ndk1::__variant_detail::__base<(std::__ndk1::__variant_detail::__traits<std::__ndk1::vector<std::__ndk1::__fs::filesystem::path, std::__ndk1::allocator<std::__ndk1::__fs::filesystem> >, std::__ndk1::basic_string<char, std::__ndk1::char_traits<char>, std::__ndk1::__fs::filesystem::path<char> > >)1, std::__ndk1::allocator<std::__ndk1::__fs::filesystem>, std::__ndk1::__fs::filesystem::path<char> >&>(std::__ndk1::__variant_detail::__dtor<std::__ndk1::__variant_detail::__traits<std::__ndk1::vector<std::__ndk1::__fs::filesystem::path, std::__ndk1::allocator<std::__ndk1::__fs::filesystem> >, std::__ndk1::basic_string<char, std::__ndk1::char_traits<char>, std::__ndk1::__fs::filesystem::path<char> > >, (std::__ndk1::__variant_detail::_Trait)1>, std::__ndk1::__variant_detail::__base<(std::__ndk1::__variant_detail::__traits<std::__ndk1::vector<std::__ndk1::__fs::filesystem::path, std::__ndk1::allocator<std::__ndk1::__fs::filesystem> >, std::__ndk1::basic_string<char, std::__ndk1::char_traits<char>, std::__ndk1::__fs::filesystem::path<char> > >)1, std::__ndk1::allocator<std::__ndk1::__fs::filesystem>, std::__ndk1::__fs::filesystem::path<char> >&)
PUBLIC 13bed0 0 std::__ndk1::vector<MacroCell*, std::__ndk1::allocator<MacroCell*> >::__throw_length_error[abi:ne180000]() const
PUBLIC 13bee4 0 cocos2d::CCBool::~CCBool()
PUBLIC 13bf08 0 cocos2d::CCBool::acceptVisitor(cocos2d::CCDataVisitor&)
PUBLIC 13bf20 0 cocos2d::CCObject::update(float)
PUBLIC 13bf24 0 MacroCell::~MacroCell()
PUBLIC 13bf88 0 MacroCell::~MacroCell()
PUBLIC 13bffc 0 gdr::Bot::~Bot()
PUBLIC 13c040 0 gdr::Replay<Macro, input>::operator=(gdr::Replay<Macro, input>&&)
PUBLIC 13c1b4 0 geode::modifier::ModifyDerive<hook7<(anonymous namespace)::hook7Parent>, cocos2d::CCMenu>::apply()
PUBLIC 13c574 0 geode::modifier::ModifyBase<geode::modifier::ModifyDerive<hook7<(anonymous namespace)::hook7Parent>, cocos2d::CCMenu> >::apply()
PUBLIC 13c578 0 geode::modifier::AsStaticFunction_ccTouchBegan<hook7<(anonymous namespace)::hook7Parent>, bool (hook7<(anonymous namespace)::hook7Parent>::*)(cocos2d::CCTouch*, cocos2d::CCEvent*)>::Impl<bool (hook7<(anonymous namespace)::hook7Parent>::*)(cocos2d::CCTouch*, cocos2d::CCEvent*)>::function(hook7<(anonymous namespace)::hook7Parent>*, cocos2d::CCTouch*, cocos2d::CCEvent*)
PUBLIC 13c748 0 geode::addresser::Addresser::addressOfVirtual<bool, cocos2d::CCMenu, cocos2d::CCTouch*, cocos2d::CCEvent*>(bool (cocos2d::CCMenu::*)(cocos2d::CCTouch*, cocos2d::CCEvent*))
PUBLIC 13c7f0 0 cocos2d::CCMenu::CCMenu(geode::ZeroConstructorType)
PUBLIC 13c888 0 std::__ndk1::__function::__func<LoadMacroLayer::deleteSelected(cocos2d::CCObject*)::$_0, std::__ndk1::allocator<LoadMacroLayer::deleteSelected(cocos2d::CCObject*)::$_0>, void (FLAlertLayer*, bool)>::~__func()
PUBLIC 13c88c 0 std::__ndk1::__function::__func<LoadMacroLayer::deleteSelected(cocos2d::CCObject*)::$_0, std::__ndk1::allocator<LoadMacroLayer::deleteSelected(cocos2d::CCObject*)::$_0>, void (FLAlertLayer*, bool)>::__clone() const
PUBLIC 13c8c4 0 std::__ndk1::__function::__func<LoadMacroLayer::deleteSelected(cocos2d::CCObject*)::$_0, std::__ndk1::allocator<LoadMacroLayer::deleteSelected(cocos2d::CCObject*)::$_0>, void (FLAlertLayer*, bool)>::__clone(std::__ndk1::__function::__base<void (FLAlertLayer*, bool)>*) const
PUBLIC 13c8dc 0 std::__ndk1::__function::__func<LoadMacroLayer::deleteSelected(cocos2d::CCObject*)::$_0, std::__ndk1::allocator<LoadMacroLayer::deleteSelected(cocos2d::CCObject*)::$_0>, void (FLAlertLayer*, bool)>::destroy()
PUBLIC 13c8e0 0 std::__ndk1::__function::__func<LoadMacroLayer::deleteSelected(cocos2d::CCObject*)::$_0, std::__ndk1::allocator<LoadMacroLayer::deleteSelected(cocos2d::CCObject*)::$_0>, void (FLAlertLayer*, bool)>::destroy_deallocate()
PUBLIC 13c8e4 0 std::__ndk1::__function::__func<LoadMacroLayer::deleteSelected(cocos2d::CCObject*)::$_0, std::__ndk1::allocator<LoadMacroLayer::deleteSelected(cocos2d::CCObject*)::$_0>, void (FLAlertLayer*, bool)>::operator()(FLAlertLayer*&&, bool&&)
PUBLIC 13c9f4 0 std::__ndk1::__function::__func<LoadMacroLayer::deleteSelected(cocos2d::CCObject*)::$_0, std::__ndk1::allocator<LoadMacroLayer::deleteSelected(cocos2d::CCObject*)::$_0>, void (FLAlertLayer*, bool)>::target(std::type_info const&) const
PUBLIC 13ca10 0 std::__ndk1::__function::__func<LoadMacroLayer::deleteSelected(cocos2d::CCObject*)::$_0, std::__ndk1::allocator<LoadMacroLayer::deleteSelected(cocos2d::CCObject*)::$_0>, void (FLAlertLayer*, bool)>::target_type() const
PUBLIC 13ca1c 0 std::__ndk1::__hash_table<std::__ndk1::basic_string<char, std::__ndk1::char_traits<char>, std::__ndk1::allocator<char> >, std::__ndk1::hash<std::__ndk1::basic_string<char, std::__ndk1::char_traits<char>, std::__ndk1::allocator<char> > >, std::__ndk1::equal_to<std::__ndk1::basic_string<char, std::__ndk1::char_traits<char>, std::__ndk1::allocator<char> > >, std::__ndk1::allocator<std::__ndk1::basic_string<char, std::__ndk1::char_traits<char>, std::__ndk1::allocator<char> > > >::__assign_unique<std::__ndk1::basic_string<char, std::__ndk1::char_traits<char>, std::__ndk1::allocator<char> > const*>(std::__ndk1::basic_string<char, std::__ndk1::char_traits<char>, std::__ndk1::allocator<char> > const*, std::__ndk1::basic_string<char, std::__ndk1::char_traits<char>, std::__ndk1::allocator<char> > const*)
PUBLIC 13cb88 0 std::__ndk1::__hash_table<std::__ndk1::basic_string<char, std::__ndk1::char_traits<char>, std::__ndk1::allocator<char> >, std::__ndk1::hash<std::__ndk1::basic_string<char, std::__ndk1::char_traits<char>, std::__ndk1::allocator<char> > >, std::__ndk1::equal_to<std::__ndk1::basic_string<char, std::__ndk1::char_traits<char>, std::__ndk1::allocator<char> > >, std::__ndk1::allocator<std::__ndk1::basic_string<char, std::__ndk1::char_traits<char>, std::__ndk1::allocator<char> > > >::__node_insert_unique(std::__ndk1::__hash_node<std::__ndk1::basic_string<char, std::__ndk1::char_traits<char>, std::__ndk1::allocator<char> >, void*>*)
PUBLIC 13ccec 0 std::__ndk1::__hash_table<std::__ndk1::basic_string<char, std::__ndk1::char_traits<char>, std::__ndk1::allocator<char> >, std::__ndk1::hash<std::__ndk1::basic_string<char, std::__ndk1::char_traits<char>, std::__ndk1::allocator<char> > >, std::__ndk1::equal_to<std::__ndk1::basic_string<char, std::__ndk1::char_traits<char>, std::__ndk1::allocator<char> > >, std::__ndk1::allocator<std::__ndk1::basic_string<char, std::__ndk1::char_traits<char>, std::__ndk1::allocator<char> > > >::__node_insert_unique_prepare[abi:ne180000](unsigned long, std::__ndk1::basic_string<char, std::__ndk1::char_traits<char>, std::__ndk1::allocator<char> >&)
PUBLIC 13cffc 0 nlohmann::json_abi_v3_11_3::detail::iter_impl<nlohmann::json_abi_v3_11_3::basic_json<std::__ndk1::map, std::__ndk1::vector, std::__ndk1::basic_string<char, std::__ndk1::char_traits<char>, std::__ndk1::allocator<char> >, bool, long, unsigned long, double, std::__ndk1::allocator, nlohmann::json_abi_v3_11_3::adl_serializer, std::__ndk1::vector<unsigned char, std::__ndk1::allocator<unsigned char> >, void> >::operator*() const
PUBLIC 13d19c 0 nlohmann::json_abi_v3_11_3::basic_json<std::__ndk1::map, std::__ndk1::vector, std::__ndk1::basic_string<char, std::__ndk1::char_traits<char>, std::__ndk1::allocator<char> >, bool, long, unsigned long, double, std::__ndk1::allocator, nlohmann::json_abi_v3_11_3::adl_serializer, std::__ndk1::vector<unsigned char, std::__ndk1::allocator<unsigned char> >, void>::operator[]<char const>(char const*) const
PUBLIC 13d454 0 nlohmann::json_abi_v3_11_3::detail::parser<nlohmann::json_abi_v3_11_3::basic_json<std::__ndk1::map, std::__ndk1::vector, std::__ndk1::basic_string<char, std::__ndk1::char_traits<char>, std::__ndk1::allocator<char> >, bool, long, unsigned long, double, std::__ndk1::allocator, nlohmann::json_abi_v3_11_3::adl_serializer, std::__ndk1::vector<unsigned char, std::__ndk1::allocator<unsigned char> >, void>, nlohmann::json_abi_v3_11_3::detail::iterator_input_adapter<std::__ndk1::__wrap_iter<unsigned char const*> > >::~parser()
PUBLIC 13d4dc 0 nlohmann::json_abi_v3_11_3::detail::parser<nlohmann::json_abi_v3_11_3::basic_json<std::__ndk1::map, std::__ndk1::vector, std::__ndk1::basic_string<char, std::__ndk1::char_traits<char>, std::__ndk1::allocator<char> >, bool, long, unsigned long, double, std::__ndk1::allocator, nlohmann::json_abi_v3_11_3::adl_serializer, std::__ndk1::vector<unsigned char, std::__ndk1::allocator<unsigned char> >, void>, nlohmann::json_abi_v3_11_3::detail::iterator_input_adapter<std::__ndk1::__wrap_iter<unsigned char const*> > >::parser(nlohmann::json_abi_v3_11_3::detail::iterator_input_adapter<std::__ndk1::__wrap_iter<unsigned char const*> >&&, std::__ndk1::function<bool (int, nlohmann::json_abi_v3_11_3::detail::parse_event_t, nlohmann::json_abi_v3_11_3::basic_json<std::__ndk1::map, std::__ndk1::vector, std::__ndk1::basic_string<char, std::__ndk1::char_traits<char>, std::__ndk1::allocator<char> >, bool, long, unsigned long, double, std::__ndk1::allocator, nlohmann::json_abi_v3_11_3::adl_serializer, std::__ndk1::vector<unsigned char, std::__ndk1::allocator<unsigned char> >, void>&)>, bool, bool)
PUBLIC 13d604 0 nlohmann::json_abi_v3_11_3::detail::lexer<nlohmann::json_abi_v3_11_3::basic_json<std::__ndk1::map, std::__ndk1::vector, std::__ndk1::basic_string<char, std::__ndk1::char_traits<char>, std::__ndk1::allocator<char> >, bool, long, unsigned long, double, std::__ndk1::allocator, nlohmann::json_abi_v3_11_3::adl_serializer, std::__ndk1::vector<unsigned char, std::__ndk1::allocator<unsigned char> >, void>, nlohmann::json_abi_v3_11_3::detail::iterator_input_adapter<std::__ndk1::__wrap_iter<unsigned char const*> > >::~lexer()
PUBLIC 13d648 0 nlohmann::json_abi_v3_11_3::detail::lexer<nlohmann::json_abi_v3_11_3::basic_json<std::__ndk1::map, std::__ndk1::vector, std::__ndk1::basic_string<char, std::__ndk1::char_traits<char>, std::__ndk1::allocator<char> >, bool, long, unsigned long, double, std::__ndk1::allocator, nlohmann::json_abi_v3_11_3::adl_serializer, std::__ndk1::vector<unsigned char, std::__ndk1::allocator<unsigned char> >, void>, nlohmann::json_abi_v3_11_3::detail::iterator_input_adapter<std::__ndk1::__wrap_iter<unsigned char const*> > >::scan()
PUBLIC 13f008 0 nlohmann::json_abi_v3_11_3::detail::lexer<nlohmann::json_abi_v3_11_3::basic_json<std::__ndk1::map, std::__ndk1::vector, std::__ndk1::basic_string<char, std::__ndk1::char_traits<char>, std::__ndk1::allocator<char> >, bool, long, unsigned long, double, std::__ndk1::allocator, nlohmann::json_abi_v3_11_3::adl_serializer, std::__ndk1::vector<unsigned char, std::__ndk1::allocator<unsigned char> >, void>, nlohmann::json_abi_v3_11_3::detail::iterator_input_adapter<std::__ndk1::__wrap_iter<unsigned char const*> > >::skip_whitespace()
PUBLIC 13f26c 0 nlohmann::json_abi_v3_11_3::detail::lexer<nlohmann::json_abi_v3_11_3::basic_json<std::__ndk1::map, std::__ndk1::vector, std::__ndk1::basic_string<char, std::__ndk1::char_traits<char>, std::__ndk1::allocator<char> >, bool, long, unsigned long, double, std::__ndk1::allocator, nlohmann::json_abi_v3_11_3::adl_serializer, std::__ndk1::vector<unsigned char, std::__ndk1::allocator<unsigned char> >, void>, nlohmann::json_abi_v3_11_3::detail::iterator_input_adapter<std::__ndk1::__wrap_iter<unsigned char const*> > >::get()
PUBLIC 13f4ac 0 nlohmann::json_abi_v3_11_3::detail::lexer<nlohmann::json_abi_v3_11_3::basic_json<std::__ndk1::map, std::__ndk1::vector, std::__ndk1::basic_string<char, std::__ndk1::char_traits<char>, std::__ndk1::allocator<char> >, bool, long, unsigned long, double, std::__ndk1::allocator, nlohmann::json_abi_v3_11_3::adl_serializer, std::__ndk1::vector<unsigned char, std::__ndk1::allocator<unsigned char> >, void>, nlohmann::json_abi_v3_11_3::detail::iterator_input_adapter<std::__ndk1::__wrap_iter<unsigned char const*> > >::get_codepoint()
PUBLIC 13f6b4 0 nlohmann::json_abi_v3_11_3::detail::lexer<nlohmann::json_abi_v3_11_3::basic_json<std::__ndk1::map, std::__ndk1::vector, std::__ndk1::basic_string<char, std::__ndk1::char_traits<char>, std::__ndk1::allocator<char> >, bool, long, unsigned long, double, std::__ndk1::allocator, nlohmann::json_abi_v3_11_3::adl_serializer, std::__ndk1::vector<unsigned char, std::__ndk1::allocator<unsigned char> >, void>, nlohmann::json_abi_v3_11_3::detail::iterator_input_adapter<std::__ndk1::__wrap_iter<unsigned char const*> > >::get_token_string() const
PUBLIC 13f7b8 0 nlohmann::json_abi_v3_11_3::detail::parser<nlohmann::json_abi_v3_11_3::basic_json<std::__ndk1::map, std::__ndk1::vector, std::__ndk1::basic_string<char, std::__ndk1::char_traits<char>, std::__ndk1::allocator<char> >, bool, long, unsigned long, double, std::__ndk1::allocator, nlohmann::json_abi_v3_11_3::adl_serializer, std::__ndk1::vector<unsigned char, std::__ndk1::allocator<unsigned char> >, void>, nlohmann::json_abi_v3_11_3::detail::iterator_input_adapter<std::__ndk1::__wrap_iter<unsigned char const*> > >::exception_message(nlohmann::json_abi_v3_11_3::detail::lexer_base<nlohmann::json_abi_v3_11_3::basic_json<std::__ndk1::map, std::__ndk1::vector, std::__ndk1::basic_string<char, std::__ndk1::char_traits<char>, std::__ndk1::allocator<char> >, bool, long, unsigned long, double, std::__ndk1::allocator, nlohmann::json_abi_v3_11_3::adl_serializer, std::__ndk1::vector<unsigned char, std::__ndk1::allocator<unsigned char> >, void> >::token_type, std::__ndk1::basic_string<char, std::__ndk1::char_traits<char>, std::__ndk1::allocator<char> > const&)
PUBLIC 13fb40 0 snprintf(char*, unsigned long pass_object_size1, char const*, ...)
PUBLIC 13fbe4 0 nlohmann::json_abi_v3_11_3::detail::parser<nlohmann::json_abi_v3_11_3::basic_json<std::__ndk1::map, std::__ndk1::vector, std::__ndk1::basic_string<char, std::__ndk1::char_traits<char>, std::__ndk1::allocator<char> >, bool, long, unsigned long, double, std::__ndk1::allocator, nlohmann::json_abi_v3_11_3::adl_serializer, std::__ndk1::vector<unsigned char, std::__ndk1::allocator<unsigned char> >, void>, nlohmann::json_abi_v3_11_3::detail::iterator_input_adapter<std::__ndk1::__wrap_iter<unsigned char const*> > >::parse(bool, nlohmann::json_abi_v3_11_3::basic_json<std::__ndk1::map, std::__ndk1::vector, std::__ndk1::basic_string<char, std::__ndk1::char_traits<char>, std::__ndk1::allocator<char> >, bool, long, unsigned long, double, std::__ndk1::allocator, nlohmann::json_abi_v3_11_3::adl_serializer, std::__ndk1::vector<unsigned char, std::__ndk1::allocator<unsigned char> >, void>&)
PUBLIC 141b98 0 std::__ndk1::pair<std::__ndk1::basic_string<char, std::__ndk1::char_traits<char>, std::__ndk1::allocator<char> > const, nlohmann::json_abi_v3_11_3::basic_json<std::__ndk1::map, std::__ndk1::vector, std::__ndk1::basic_string<char, std::__ndk1::char_traits<char>, std::__ndk1::allocator<char> >, bool, long, unsigned long, double, std::__ndk1::allocator, nlohmann::json_abi_v3_11_3::adl_serializer, std::__ndk1::vector<unsigned char, std::__ndk1::allocator<unsigned char> >, void> >::~pair()
PUBLIC 141bdc 0 nlohmann::json_abi_v3_11_3::detail::binary_reader<nlohmann::json_abi_v3_11_3::basic_json<std::__ndk1::map, std::__ndk1::vector, std::__ndk1::basic_string<char, std::__ndk1::char_traits<char>, std::__ndk1::allocator<char> >, bool, long, unsigned long, double, std::__ndk1::allocator, nlohmann::json_abi_v3_11_3::adl_serializer, std::__ndk1::vector<unsigned char, std::__ndk1::allocator<unsigned char> >, void>, nlohmann::json_abi_v3_11_3::detail::iterator_input_adapter<std::__ndk1::__wrap_iter<unsigned char const*> >, nlohmann::json_abi_v3_11_3::detail::json_sax_dom_parser<nlohmann::json_abi_v3_11_3::basic_json<std::__ndk1::map, std::__ndk1::vector, std::__ndk1::basic_string<char, std::__ndk1::char_traits<char>, std::__ndk1::allocator<char> >, bool, long, unsigned long, double, std::__ndk1::allocator, nlohmann::json_abi_v3_11_3::adl_serializer, std::__ndk1::vector<unsigned char, std::__ndk1::allocator<unsigned char> >, void> > >::parse_msgpack_internal()
PUBLIC 1428e4 0 nlohmann::json_abi_v3_11_3::detail::binary_reader<nlohmann::json_abi_v3_11_3::basic_json<std::__ndk1::map, std::__ndk1::vector, std::__ndk1::basic_string<char, std::__ndk1::char_traits<char>, std::__ndk1::allocator<char> >, bool, long, unsigned long, double, std::__ndk1::allocator, nlohmann::json_abi_v3_11_3::adl_serializer, std::__ndk1::vector<unsigned char, std::__ndk1::allocator<unsigned char> >, void>, nlohmann::json_abi_v3_11_3::detail::iterator_input_adapter<std::__ndk1::__wrap_iter<unsigned char const*> >, nlohmann::json_abi_v3_11_3::detail::json_sax_dom_parser<nlohmann::json_abi_v3_11_3::basic_json<std::__ndk1::map, std::__ndk1::vector, std::__ndk1::basic_string<char, std::__ndk1::char_traits<char>, std::__ndk1::allocator<char> >, bool, long, unsigned long, double, std::__ndk1::allocator, nlohmann::json_abi_v3_11_3::adl_serializer, std::__ndk1::vector<unsigned char, std::__ndk1::allocator<unsigned char> >, void> > >::get_token_string() const
PUBLIC 1429c8 0 _ZN8nlohmann16json_abi_v3_11_36detail11parse_error6createIDnTnNSt6__ndk19enable_ifIXsr21is_basic_json_contextIT_EE5valueEiE4typeELi0EEES2_imRKNS4_12basic_stringIcNS4_11char_traitsIcEENS4_9allocatorIcEEEES6_
PUBLIC 142ce0 0 nlohmann::json_abi_v3_11_3::detail::binary_reader<nlohmann::json_abi_v3_11_3::basic_json<std::__ndk1::map, std::__ndk1::vector, std::__ndk1::basic_string<char, std::__ndk1::char_traits<char>, std::__ndk1::allocator<char> >, bool, long, unsigned long, double, std::__ndk1::allocator, nlohmann::json_abi_v3_11_3::adl_serializer, std::__ndk1::vector<unsigned char, std::__ndk1::allocator<unsigned char> >, void>, nlohmann::json_abi_v3_11_3::detail::iterator_input_adapter<std::__ndk1::__wrap_iter<unsigned char const*> >, nlohmann::json_abi_v3_11_3::detail::json_sax_dom_parser<nlohmann::json_abi_v3_11_3::basic_json<std::__ndk1::map, std::__ndk1::vector, std::__ndk1::basic_string<char, std::__ndk1::char_traits<char>, std::__ndk1::allocator<char> >, bool, long, unsigned long, double, std::__ndk1::allocator, nlohmann::json_abi_v3_11_3::adl_serializer, std::__ndk1::vector<unsigned char, std::__ndk1::allocator<unsigned char> >, void> > >::exception_message(nlohmann::json_abi_v3_11_3::detail::input_format_t, std::__ndk1::basic_string<char, std::__ndk1::char_traits<char>, std::__ndk1::allocator<char> > const&, std::__ndk1::basic_string<char, std::__ndk1::char_traits<char>, std::__ndk1::allocator<char> > const&) const
PUBLIC 142f20 0 nlohmann::json_abi_v3_11_3::detail::binary_reader<nlohmann::json_abi_v3_11_3::basic_json<std::__ndk1::map, std::__ndk1::vector, std::__ndk1::basic_string<char, std::__ndk1::char_traits<char>, std::__ndk1::allocator<char> >, bool, long, unsigned long, double, std::__ndk1::allocator, nlohmann::json_abi_v3_11_3::adl_serializer, std::__ndk1::vector<unsigned char, std::__ndk1::allocator<unsigned char> >, void>, nlohmann::json_abi_v3_11_3::detail::iterator_input_adapter<std::__ndk1::__wrap_iter<unsigned char const*> >, nlohmann::json_abi_v3_11_3::detail::json_sax_dom_parser<nlohmann::json_abi_v3_11_3::basic_json<std::__ndk1::map, std::__ndk1::vector, std::__ndk1::basic_string<char, std::__ndk1::char_traits<char>, std::__ndk1::allocator<char> >, bool, long, unsigned long, double, std::__ndk1::allocator, nlohmann::json_abi_v3_11_3::adl_serializer, std::__ndk1::vector<unsigned char, std::__ndk1::allocator<unsigned char> >, void> > >::unexpect_eof(nlohmann::json_abi_v3_11_3::detail::input_format_t, char const*) const
PUBLIC 14315c 0 nlohmann::json_abi_v3_11_3::detail::binary_reader<nlohmann::json_abi_v3_11_3::basic_json<std::__ndk1::map, std::__ndk1::vector, std::__ndk1::basic_string<char, std::__ndk1::char_traits<char>, std::__ndk1::allocator<char> >, bool, long, unsigned long, double, std::__ndk1::allocator, nlohmann::json_abi_v3_11_3::adl_serializer, std::__ndk1::vector<unsigned char, std::__ndk1::allocator<unsigned char> >, void>, nlohmann::json_abi_v3_11_3::detail::iterator_input_adapter<std::__ndk1::__wrap_iter<unsigned char const*> >, nlohmann::json_abi_v3_11_3::detail::json_sax_dom_parser<nlohmann::json_abi_v3_11_3::basic_json<std::__ndk1::map, std::__ndk1::vector, std::__ndk1::basic_string<char, std::__ndk1::char_traits<char>, std::__ndk1::allocator<char> >, bool, long, unsigned long, double, std::__ndk1::allocator, nlohmann::json_abi_v3_11_3::adl_serializer, std::__ndk1::vector<unsigned char, std::__ndk1::allocator<unsigned char> >, void> > >::get_number<unsigned char, false>(nlohmann::json_abi_v3_11_3::detail::input_format_t, unsigned char&)
PUBLIC 1431e0 0 nlohmann::json_abi_v3_11_3::detail::binary_reader<nlohmann::json_abi_v3_11_3::basic_json<std::__ndk1::map, std::__ndk1::vector, std::__ndk1::basic_string<char, std::__ndk1::char_traits<char>, std::__ndk1::allocator<char> >, bool, long, unsigned long, double, std::__ndk1::allocator, nlohmann::json_abi_v3_11_3::adl_serializer, std::__ndk1::vector<unsigned char, std::__ndk1::allocator<unsigned char> >, void>, nlohmann::json_abi_v3_11_3::detail::iterator_input_adapter<std::__ndk1::__wrap_iter<unsigned char const*> >, nlohmann::json_abi_v3_11_3::detail::json_sax_dom_parser<nlohmann::json_abi_v3_11_3::basic_json<std::__ndk1::map, std::__ndk1::vector, std::__ndk1::basic_string<char, std::__ndk1::char_traits<char>, std::__ndk1::allocator<char> >, bool, long, unsigned long, double, std::__ndk1::allocator, nlohmann::json_abi_v3_11_3::adl_serializer, std::__ndk1::vector<unsigned char, std::__ndk1::allocator<unsigned char> >, void> > >::get_binary<int>(nlohmann::json_abi_v3_11_3::detail::input_format_t, int, nlohmann::json_abi_v3_11_3::byte_container_with_subtype<std::__ndk1::vector<unsigned char, std::__ndk1::allocator<unsigned char> > >&)
PUBLIC 143434 0 nlohmann::json_abi_v3_11_3::detail::external_constructor<(nlohmann::json_abi_v3_11_3::detail::value_t)8>::construct<nlohmann::json_abi_v3_11_3::basic_json<std::__ndk1::map, std::__ndk1::vector, std::__ndk1::basic_string<char, std::__ndk1::char_traits<char>, std::__ndk1::allocator<char> >, bool, long, unsigned long, double, std::__ndk1::allocator, nlohmann::json_abi_v3_11_3::adl_serializer, std::__ndk1::vector<unsigned char, std::__ndk1::allocator<unsigned char> >, void> >(nlohmann::json_abi_v3_11_3::basic_json<std::__ndk1::map, std::__ndk1::vector, std::__ndk1::basic_string<char, std::__ndk1::char_traits<char>, std::__ndk1::allocator<char> >, bool, long, unsigned long, double, std::__ndk1::allocator, nlohmann::json_abi_v3_11_3::adl_serializer, std::__ndk1::vector<unsigned char, std::__ndk1::allocator<unsigned char> >, void>&, nlohmann::json_abi_v3_11_3::basic_json<std::__ndk1::map, std::__ndk1::vector, std::__ndk1::basic_string<char, std::__ndk1::char_traits<char>, std::__ndk1::allocator<char> >, bool, long, unsigned long, double, std::__ndk1::allocator, nlohmann::json_abi_v3_11_3::adl_serializer, std::__ndk1::vector<unsigned char, std::__ndk1::allocator<unsigned char> >, void> const::binary_t&)
PUBLIC 143560 0 nlohmann::json_abi_v3_11_3::detail::binary_reader<nlohmann::json_abi_v3_11_3::basic_json<std::__ndk1::map, std::__ndk1::vector, std::__ndk1::basic_string<char, std::__ndk1::char_traits<char>, std::__ndk1::allocator<char> >, bool, long, unsigned long, double, std::__ndk1::allocator, nlohmann::json_abi_v3_11_3::adl_serializer, std::__ndk1::vector<unsigned char, std::__ndk1::allocator<unsigned char> >, void>, nlohmann::json_abi_v3_11_3::detail::iterator_input_adapter<std::__ndk1::__wrap_iter<unsigned char const*> >, nlohmann::json_abi_v3_11_3::detail::json_sax_dom_parser<nlohmann::json_abi_v3_11_3::basic_json<std::__ndk1::map, std::__ndk1::vector, std::__ndk1::basic_string<char, std::__ndk1::char_traits<char>, std::__ndk1::allocator<char> >, bool, long, unsigned long, double, std::__ndk1::allocator, nlohmann::json_abi_v3_11_3::adl_serializer, std::__ndk1::vector<unsigned char, std::__ndk1::allocator<unsigned char> >, void> > >::get_number<unsigned short, false>(nlohmann::json_abi_v3_11_3::detail::input_format_t, unsigned short&)
PUBLIC 14368c 0 nlohmann::json_abi_v3_11_3::detail::binary_reader<nlohmann::json_abi_v3_11_3::basic_json<std::__ndk1::map, std::__ndk1::vector, std::__ndk1::basic_string<char, std::__ndk1::char_traits<char>, std::__ndk1::allocator<char> >, bool, long, unsigned long, double, std::__ndk1::allocator, nlohmann::json_abi_v3_11_3::adl_serializer, std::__ndk1::vector<unsigned char, std::__ndk1::allocator<unsigned char> >, void>, nlohmann::json_abi_v3_11_3::detail::iterator_input_adapter<std::__ndk1::__wrap_iter<unsigned char const*> >, nlohmann::json_abi_v3_11_3::detail::json_sax_dom_parser<nlohmann::json_abi_v3_11_3::basic_json<std::__ndk1::map, std::__ndk1::vector, std::__ndk1::basic_string<char, std::__ndk1::char_traits<char>, std::__ndk1::allocator<char> >, bool, long, unsigned long, double, std::__ndk1::allocator, nlohmann::json_abi_v3_11_3::adl_serializer, std::__ndk1::vector<unsigned char, std::__ndk1::allocator<unsigned char> >, void> > >::get_number<unsigned int, false>(nlohmann::json_abi_v3_11_3::detail::input_format_t, unsigned int&)
PUBLIC 1438d8 0 nlohmann::json_abi_v3_11_3::detail::binary_reader<nlohmann::json_abi_v3_11_3::basic_json<std::__ndk1::map, std::__ndk1::vector, std::__ndk1::basic_string<char, std::__ndk1::char_traits<char>, std::__ndk1::allocator<char> >, bool, long, unsigned long, double, std::__ndk1::allocator, nlohmann::json_abi_v3_11_3::adl_serializer, std::__ndk1::vector<unsigned char, std::__ndk1::allocator<unsigned char> >, void>, nlohmann::json_abi_v3_11_3::detail::iterator_input_adapter<std::__ndk1::__wrap_iter<unsigned char const*> >, nlohmann::json_abi_v3_11_3::detail::json_sax_dom_parser<nlohmann::json_abi_v3_11_3::basic_json<std::__ndk1::map, std::__ndk1::vector, std::__ndk1::basic_string<char, std::__ndk1::char_traits<char>, std::__ndk1::allocator<char> >, bool, long, unsigned long, double, std::__ndk1::allocator, nlohmann::json_abi_v3_11_3::adl_serializer, std::__ndk1::vector<unsigned char, std::__ndk1::allocator<unsigned char> >, void> > >::get_number<unsigned long, false>(nlohmann::json_abi_v3_11_3::detail::input_format_t, unsigned long&)
PUBLIC 143cfc 0 nlohmann::json_abi_v3_11_3::detail::concat<std::__ndk1::basic_string<char, std::__ndk1::char_traits<char>, std::__ndk1::allocator<char> >, char const (&) [17], std::__ndk1::basic_string<char, std::__ndk1::char_traits<char>, std::__ndk1::allocator<char> >&>(char const (&) [17], std::__ndk1::basic_string<char, std::__ndk1::char_traits<char>, std::__ndk1::allocator<char> >&)
PUBLIC 143da4 0 nlohmann::json_abi_v3_11_3::detail::binary_reader<nlohmann::json_abi_v3_11_3::basic_json<std::__ndk1::map, std::__ndk1::vector, std::__ndk1::basic_string<char, std::__ndk1::char_traits<char>, std::__ndk1::allocator<char> >, bool, long, unsigned long, double, std::__ndk1::allocator, nlohmann::json_abi_v3_11_3::adl_serializer, std::__ndk1::vector<unsigned char, std::__ndk1::allocator<unsigned char> >, void>, nlohmann::json_abi_v3_11_3::detail::iterator_input_adapter<std::__ndk1::__wrap_iter<unsigned char const*> >, nlohmann::json_abi_v3_11_3::detail::json_sax_dom_parser<nlohmann::json_abi_v3_11_3::basic_json<std::__ndk1::map, std::__ndk1::vector, std::__ndk1::basic_string<char, std::__ndk1::char_traits<char>, std::__ndk1::allocator<char> >, bool, long, unsigned long, double, std::__ndk1::allocator, nlohmann::json_abi_v3_11_3::adl_serializer, std::__ndk1::vector<unsigned char, std::__ndk1::allocator<unsigned char> >, void> > >::get_number<float, false>(nlohmann::json_abi_v3_11_3::detail::input_format_t, float&)
PUBLIC 143ff0 0 nlohmann::json_abi_v3_11_3::detail::binary_reader<nlohmann::json_abi_v3_11_3::basic_json<std::__ndk1::map, std::__ndk1::vector, std::__ndk1::basic_string<char, std::__ndk1::char_traits<char>, std::__ndk1::allocator<char> >, bool, long, unsigned long, double, std::__ndk1::allocator, nlohmann::json_abi_v3_11_3::adl_serializer, std::__ndk1::vector<unsigned char, std::__ndk1::allocator<unsigned char> >, void>, nlohmann::json_abi_v3_11_3::detail::iterator_input_adapter<std::__ndk1::__wrap_iter<unsigned char const*> >, nlohmann::json_abi_v3_11_3::detail::json_sax_dom_parser<nlohmann::json_abi_v3_11_3::basic_json<std::__ndk1::map, std::__ndk1::vector, std::__ndk1::basic_string<char, std::__ndk1::char_traits<char>, std::__ndk1::allocator<char> >, bool, long, unsigned long, double, std::__ndk1::allocator, nlohmann::json_abi_v3_11_3::adl_serializer, std::__ndk1::vector<unsigned char, std::__ndk1::allocator<unsigned char> >, void> > >::get_number<double, false>(nlohmann::json_abi_v3_11_3::detail::input_format_t, double&)
PUBLIC 144414 0 nlohmann::json_abi_v3_11_3::detail::binary_reader<nlohmann::json_abi_v3_11_3::basic_json<std::__ndk1::map, std::__ndk1::vector, std::__ndk1::basic_string<char, std::__ndk1::char_traits<char>, std::__ndk1::allocator<char> >, bool, long, unsigned long, double, std::__ndk1::allocator, nlohmann::json_abi_v3_11_3::adl_serializer, std::__ndk1::vector<unsigned char, std::__ndk1::allocator<unsigned char> >, void>, nlohmann::json_abi_v3_11_3::detail::iterator_input_adapter<std::__ndk1::__wrap_iter<unsigned char const*> >, nlohmann::json_abi_v3_11_3::detail::json_sax_dom_parser<nlohmann::json_abi_v3_11_3::basic_json<std::__ndk1::map, std::__ndk1::vector, std::__ndk1::basic_string<char, std::__ndk1::char_traits<char>, std::__ndk1::allocator<char> >, bool, long, unsigned long, double, std::__ndk1::allocator, nlohmann::json_abi_v3_11_3::adl_serializer, std::__ndk1::vector<unsigned char, std::__ndk1::allocator<unsigned char> >, void> > >::get_binary<unsigned int>(nlohmann::json_abi_v3_11_3::detail::input_format_t, unsigned int, nlohmann::json_abi_v3_11_3::byte_container_with_subtype<std::__ndk1::vector<unsigned char, std::__ndk1::allocator<unsigned char> > >&)
PUBLIC 144674 0 nlohmann::json_abi_v3_11_3::detail::binary_reader<nlohmann::json_abi_v3_11_3::basic_json<std::__ndk1::map, std::__ndk1::vector, std::__ndk1::basic_string<char, std::__ndk1::char_traits<char>, std::__ndk1::allocator<char> >, bool, long, unsigned long, double, std::__ndk1::allocator, nlohmann::json_abi_v3_11_3::adl_serializer, std::__ndk1::vector<unsigned char, std::__ndk1::allocator<unsigned char> >, void>, nlohmann::json_abi_v3_11_3::detail::iterator_input_adapter<std::__ndk1::__wrap_iter<unsigned char const*> >, nlohmann::json_abi_v3_11_3::detail::json_sax_dom_parser<nlohmann::json_abi_v3_11_3::basic_json<std::__ndk1::map, std::__ndk1::vector, std::__ndk1::basic_string<char, std::__ndk1::char_traits<char>, std::__ndk1::allocator<char> >, bool, long, unsigned long, double, std::__ndk1::allocator, nlohmann::json_abi_v3_11_3::adl_serializer, std::__ndk1::vector<unsigned char, std::__ndk1::allocator<unsigned char> >, void> > >::get_binary<unsigned char>(nlohmann::json_abi_v3_11_3::detail::input_format_t, unsigned char, nlohmann::json_abi_v3_11_3::byte_container_with_subtype<std::__ndk1::vector<unsigned char, std::__ndk1::allocator<unsigned char> > >&)
PUBLIC 1448a0 0 nlohmann::json_abi_v3_11_3::detail::binary_reader<nlohmann::json_abi_v3_11_3::basic_json<std::__ndk1::map, std::__ndk1::vector, std::__ndk1::basic_string<char, std::__ndk1::char_traits<char>, std::__ndk1::allocator<char> >, bool, long, unsigned long, double, std::__ndk1::allocator, nlohmann::json_abi_v3_11_3::adl_serializer, std::__ndk1::vector<unsigned char, std::__ndk1::allocator<unsigned char> >, void>, nlohmann::json_abi_v3_11_3::detail::iterator_input_adapter<std::__ndk1::__wrap_iter<unsigned char const*> >, nlohmann::json_abi_v3_11_3::detail::json_sax_dom_parser<nlohmann::json_abi_v3_11_3::basic_json<std::__ndk1::map, std::__ndk1::vector, std::__ndk1::basic_string<char, std::__ndk1::char_traits<char>, std::__ndk1::allocator<char> >, bool, long, unsigned long, double, std::__ndk1::allocator, nlohmann::json_abi_v3_11_3::adl_serializer, std::__ndk1::vector<unsigned char, std::__ndk1::allocator<unsigned char> >, void> > >::get_binary<unsigned short>(nlohmann::json_abi_v3_11_3::detail::input_format_t, unsigned short, nlohmann::json_abi_v3_11_3::byte_container_with_subtype<std::__ndk1::vector<unsigned char, std::__ndk1::allocator<unsigned char> > >&)
PUBLIC 144acc 0 nlohmann::json_abi_v3_11_3::detail::binary_reader<nlohmann::json_abi_v3_11_3::basic_json<std::__ndk1::map, std::__ndk1::vector, std::__ndk1::basic_string<char, std::__ndk1::char_traits<char>, std::__ndk1::allocator<char> >, bool, long, unsigned long, double, std::__ndk1::allocator, nlohmann::json_abi_v3_11_3::adl_serializer, std::__ndk1::vector<unsigned char, std::__ndk1::allocator<unsigned char> >, void>, nlohmann::json_abi_v3_11_3::detail::iterator_input_adapter<std::__ndk1::__wrap_iter<unsigned char const*> >, nlohmann::json_abi_v3_11_3::detail::json_sax_dom_parser<nlohmann::json_abi_v3_11_3::basic_json<std::__ndk1::map, std::__ndk1::vector, std::__ndk1::basic_string<char, std::__ndk1::char_traits<char>, std::__ndk1::allocator<char> >, bool, long, unsigned long, double, std::__ndk1::allocator, nlohmann::json_abi_v3_11_3::adl_serializer, std::__ndk1::vector<unsigned char, std::__ndk1::allocator<unsigned char> >, void> > >::get_string<unsigned int>(nlohmann::json_abi_v3_11_3::detail::input_format_t, unsigned int, std::__ndk1::basic_string<char, std::__ndk1::char_traits<char>, std::__ndk1::allocator<char> >&)
PUBLIC 144b90 0 nlohmann::json_abi_v3_11_3::detail::binary_reader<nlohmann::json_abi_v3_11_3::basic_json<std::__ndk1::map, std::__ndk1::vector, std::__ndk1::basic_string<char, std::__ndk1::char_traits<char>, std::__ndk1::allocator<char> >, bool, long, unsigned long, double, std::__ndk1::allocator, nlohmann::json_abi_v3_11_3::adl_serializer, std::__ndk1::vector<unsigned char, std::__ndk1::allocator<unsigned char> >, void>, nlohmann::json_abi_v3_11_3::detail::iterator_input_adapter<std::__ndk1::__wrap_iter<unsigned char const*> >, nlohmann::json_abi_v3_11_3::detail::json_sax_dom_parser<nlohmann::json_abi_v3_11_3::basic_json<std::__ndk1::map, std::__ndk1::vector, std::__ndk1::basic_string<char, std::__ndk1::char_traits<char>, std::__ndk1::allocator<char> >, bool, long, unsigned long, double, std::__ndk1::allocator, nlohmann::json_abi_v3_11_3::adl_serializer, std::__ndk1::vector<unsigned char, std::__ndk1::allocator<unsigned char> >, void> > >::get_string<unsigned short>(nlohmann::json_abi_v3_11_3::detail::input_format_t, unsigned short, std::__ndk1::basic_string<char, std::__ndk1::char_traits<char>, std::__ndk1::allocator<char> >&)
PUBLIC 144c50 0 nlohmann::json_abi_v3_11_3::detail::binary_reader<nlohmann::json_abi_v3_11_3::basic_json<std::__ndk1::map, std::__ndk1::vector, std::__ndk1::basic_string<char, std::__ndk1::char_traits<char>, std::__ndk1::allocator<char> >, bool, long, unsigned long, double, std::__ndk1::allocator, nlohmann::json_abi_v3_11_3::adl_serializer, std::__ndk1::vector<unsigned char, std::__ndk1::allocator<unsigned char> >, void>, nlohmann::json_abi_v3_11_3::detail::iterator_input_adapter<std::__ndk1::__wrap_iter<unsigned char const*> >, nlohmann::json_abi_v3_11_3::detail::json_sax_dom_parser<nlohmann::json_abi_v3_11_3::basic_json<std::__ndk1::map, std::__ndk1::vector, std::__ndk1::basic_string<char, std::__ndk1::char_traits<char>, std::__ndk1::allocator<char> >, bool, long, unsigned long, double, std::__ndk1::allocator, nlohmann::json_abi_v3_11_3::adl_serializer, std::__ndk1::vector<unsigned char, std::__ndk1::allocator<unsigned char> >, void> > >::get_msgpack_object(unsigned long)
PUBLIC 144e04 0 nlohmann::json_abi_v3_11_3::detail::binary_reader<nlohmann::json_abi_v3_11_3::basic_json<std::__ndk1::map, std::__ndk1::vector, std::__ndk1::basic_string<char, std::__ndk1::char_traits<char>, std::__ndk1::allocator<char> >, bool, long, unsigned long, double, std::__ndk1::allocator, nlohmann::json_abi_v3_11_3::adl_serializer, std::__ndk1::vector<unsigned char, std::__ndk1::allocator<unsigned char> >, void>, nlohmann::json_abi_v3_11_3::detail::iterator_input_adapter<std::__ndk1::__wrap_iter<unsigned char const*> >, nlohmann::json_abi_v3_11_3::detail::json_sax_dom_parser<nlohmann::json_abi_v3_11_3::basic_json<std::__ndk1::map, std::__ndk1::vector, std::__ndk1::basic_string<char, std::__ndk1::char_traits<char>, std::__ndk1::allocator<char> >, bool, long, unsigned long, double, std::__ndk1::allocator, nlohmann::json_abi_v3_11_3::adl_serializer, std::__ndk1::vector<unsigned char, std::__ndk1::allocator<unsigned char> >, void> > >::get_msgpack_array(unsigned long)
PUBLIC 144e6c 0 nlohmann::json_abi_v3_11_3::detail::binary_reader<nlohmann::json_abi_v3_11_3::basic_json<std::__ndk1::map, std::__ndk1::vector, std::__ndk1::basic_string<char, std::__ndk1::char_traits<char>, std::__ndk1::allocator<char> >, bool, long, unsigned long, double, std::__ndk1::allocator, nlohmann::json_abi_v3_11_3::adl_serializer, std::__ndk1::vector<unsigned char, std::__ndk1::allocator<unsigned char> >, void>, nlohmann::json_abi_v3_11_3::detail::iterator_input_adapter<std::__ndk1::__wrap_iter<unsigned char const*> >, nlohmann::json_abi_v3_11_3::detail::json_sax_dom_parser<nlohmann::json_abi_v3_11_3::basic_json<std::__ndk1::map, std::__ndk1::vector, std::__ndk1::basic_string<char, std::__ndk1::char_traits<char>, std::__ndk1::allocator<char> >, bool, long, unsigned long, double, std::__ndk1::allocator, nlohmann::json_abi_v3_11_3::adl_serializer, std::__ndk1::vector<unsigned char, std::__ndk1::allocator<unsigned char> >, void> > >::get_msgpack_string(std::__ndk1::basic_string<char, std::__ndk1::char_traits<char>, std::__ndk1::allocator<char> >&)
PUBLIC 145418 0 nlohmann::json_abi_v3_11_3::detail::binary_reader<nlohmann::json_abi_v3_11_3::basic_json<std::__ndk1::map, std::__ndk1::vector, std::__ndk1::basic_string<char, std::__ndk1::char_traits<char>, std::__ndk1::allocator<char> >, bool, long, unsigned long, double, std::__ndk1::allocator, nlohmann::json_abi_v3_11_3::adl_serializer, std::__ndk1::vector<unsigned char, std::__ndk1::allocator<unsigned char> >, void>, nlohmann::json_abi_v3_11_3::detail::iterator_input_adapter<std::__ndk1::__wrap_iter<unsigned char const*> >, nlohmann::json_abi_v3_11_3::detail::json_sax_dom_parser<nlohmann::json_abi_v3_11_3::basic_json<std::__ndk1::map, std::__ndk1::vector, std::__ndk1::basic_string<char, std::__ndk1::char_traits<char>, std::__ndk1::allocator<char> >, bool, long, unsigned long, double, std::__ndk1::allocator, nlohmann::json_abi_v3_11_3::adl_serializer, std::__ndk1::vector<unsigned char, std::__ndk1::allocator<unsigned char> >, void> > >::get_number<signed char, false>(nlohmann::json_abi_v3_11_3::detail::input_format_t, signed char&)
PUBLIC 14549c 0 nlohmann::json_abi_v3_11_3::detail::binary_reader<nlohmann::json_abi_v3_11_3::basic_json<std::__ndk1::map, std::__ndk1::vector, std::__ndk1::basic_string<char, std::__ndk1::char_traits<char>, std::__ndk1::allocator<char> >, bool, long, unsigned long, double, std::__ndk1::allocator, nlohmann::json_abi_v3_11_3::adl_serializer, std::__ndk1::vector<unsigned char, std::__ndk1::allocator<unsigned char> >, void>, nlohmann::json_abi_v3_11_3::detail::iterator_input_adapter<std::__ndk1::__wrap_iter<unsigned char const*> >, nlohmann::json_abi_v3_11_3::detail::json_sax_dom_parser<nlohmann::json_abi_v3_11_3::basic_json<std::__ndk1::map, std::__ndk1::vector, std::__ndk1::basic_string<char, std::__ndk1::char_traits<char>, std::__ndk1::allocator<char> >, bool, long, unsigned long, double, std::__ndk1::allocator, nlohmann::json_abi_v3_11_3::adl_serializer, std::__ndk1::vector<unsigned char, std::__ndk1::allocator<unsigned char> >, void> > >::get_number<short, false>(nlohmann::json_abi_v3_11_3::detail::input_format_t, short&)
PUBLIC 1455c8 0 nlohmann::json_abi_v3_11_3::detail::binary_reader<nlohmann::json_abi_v3_11_3::basic_json<std::__ndk1::map, std::__ndk1::vector, std::__ndk1::basic_string<char, std::__ndk1::char_traits<char>, std::__ndk1::allocator<char> >, bool, long, unsigned long, double, std::__ndk1::allocator, nlohmann::json_abi_v3_11_3::adl_serializer, std::__ndk1::vector<unsigned char, std::__ndk1::allocator<unsigned char> >, void>, nlohmann::json_abi_v3_11_3::detail::iterator_input_adapter<std::__ndk1::__wrap_iter<unsigned char const*> >, nlohmann::json_abi_v3_11_3::detail::json_sax_dom_parser<nlohmann::json_abi_v3_11_3::basic_json<std::__ndk1::map, std::__ndk1::vector, std::__ndk1::basic_string<char, std::__ndk1::char_traits<char>, std::__ndk1::allocator<char> >, bool, long, unsigned long, double, std::__ndk1::allocator, nlohmann::json_abi_v3_11_3::adl_serializer, std::__ndk1::vector<unsigned char, std::__ndk1::allocator<unsigned char> >, void> > >::get_number<int, false>(nlohmann::json_abi_v3_11_3::detail::input_format_t, int&)
PUBLIC 145814 0 nlohmann::json_abi_v3_11_3::detail::binary_reader<nlohmann::json_abi_v3_11_3::basic_json<std::__ndk1::map, std::__ndk1::vector, std::__ndk1::basic_string<char, std::__ndk1::char_traits<char>, std::__ndk1::allocator<char> >, bool, long, unsigned long, double, std::__ndk1::allocator, nlohmann::json_abi_v3_11_3::adl_serializer, std::__ndk1::vector<unsigned char, std::__ndk1::allocator<unsigned char> >, void>, nlohmann::json_abi_v3_11_3::detail::iterator_input_adapter<std::__ndk1::__wrap_iter<unsigned char const*> >, nlohmann::json_abi_v3_11_3::detail::json_sax_dom_parser<nlohmann::json_abi_v3_11_3::basic_json<std::__ndk1::map, std::__ndk1::vector, std::__ndk1::basic_string<char, std::__ndk1::char_traits<char>, std::__ndk1::allocator<char> >, bool, long, unsigned long, double, std::__ndk1::allocator, nlohmann::json_abi_v3_11_3::adl_serializer, std::__ndk1::vector<unsigned char, std::__ndk1::allocator<unsigned char> >, void> > >::get_number<long, false>(nlohmann::json_abi_v3_11_3::detail::input_format_t, long&)
PUBLIC 145c38 0 std::__ndk1::array<std::__ndk1::pair<unsigned long, std::__ndk1::basic_string<char, std::__ndk1::char_traits<char>, std::__ndk1::allocator<char> > >, (unsigned long)11>::~array()
PUBLIC 145d5c 0 _ZN8nlohmann16json_abi_v3_11_36detail9from_jsonINS0_10basic_jsonINSt6__ndk13mapENS4_6vectorENS4_12basic_stringIcNS4_11char_traitsIcEENS4_9allocatorIcEEEEblmdSA_NS0_14adl_serializerENS6_IhNSA_IhEEEEvEEfTnNS4_9enable_ifIXaaaaaaaasr3std13is_arithmeticIT0_EE5valuentsr3std7is_sameISI_NT_17number_unsigned_tEEE5valuentsr3std7is_sameISI_NSJ_16number_integer_tEEE5valuentsr3std7is_sameISI_NSJ_14number_float_tEEE5valuentsr3std7is_sameISI_NSJ_9boolean_tEEE5valueEiE4typeELi0EEEvRKSJ_RSI_
PUBLIC 145ed0 0 _ZN8nlohmann16json_abi_v3_11_36detail10type_error6createIPKNS0_10basic_jsonINSt6__ndk13mapENS5_6vectorENS5_12basic_stringIcNS5_11char_traitsIcEENS5_9allocatorIcEEEEblmdSB_NS0_14adl_serializerENS7_IhNSB_IhEEEEvEETnNS5_9enable_ifIXsr21is_basic_json_contextIT_EE5valueEiE4typeELi0EEES2_iRKSD_SL_
PUBLIC 1460bc 0 nlohmann::json_abi_v3_11_3::detail::from_json<nlohmann::json_abi_v3_11_3::basic_json<std::__ndk1::map, std::__ndk1::vector, std::__ndk1::basic_string<char, std::__ndk1::char_traits<char>, std::__ndk1::allocator<char> >, bool, long, unsigned long, double, std::__ndk1::allocator, nlohmann::json_abi_v3_11_3::adl_serializer, std::__ndk1::vector<unsigned char, std::__ndk1::allocator<unsigned char> >, void> >(nlohmann::json_abi_v3_11_3::basic_json<std::__ndk1::map, std::__ndk1::vector, std::__ndk1::basic_string<char, std::__ndk1::char_traits<char>, std::__ndk1::allocator<char> >, bool, long, unsigned long, double, std::__ndk1::allocator, nlohmann::json_abi_v3_11_3::adl_serializer, std::__ndk1::vector<unsigned char, std::__ndk1::allocator<unsigned char> >, void> const&, nlohmann::json_abi_v3_11_3::basic_json<std::__ndk1::map, std::__ndk1::vector, std::__ndk1::basic_string<char, std::__ndk1::char_traits<char>, std::__ndk1::allocator<char> >, bool, long, unsigned long, double, std::__ndk1::allocator, nlohmann::json_abi_v3_11_3::adl_serializer, std::__ndk1::vector<unsigned char, std::__ndk1::allocator<unsigned char> >, void>&::string_t)
PUBLIC 146288 0 nlohmann::json_abi_v3_11_3::detail::concat<std::__ndk1::basic_string<char, std::__ndk1::char_traits<char>, std::__ndk1::allocator<char> >, char const (&) [30], char const*>(char const (&) [30], char const*)
PUBLIC 146330 0 _ZN8nlohmann16json_abi_v3_11_36detail9from_jsonINS0_10basic_jsonINSt6__ndk13mapENS4_6vectorENS4_12basic_stringIcNS4_11char_traitsIcEENS4_9allocatorIcEEEEblmdSA_NS0_14adl_serializerENS6_IhNSA_IhEEEEvEENS5_ISC_SG_NS4_4lessIvEENSA_INS4_4pairIKSC_SG_EEEEEETnNS4_9enable_ifIXsr28is_constructible_object_typeIT_T0_EE5valueEiE4typeELi0EEEvRKSP_RSQ_
PUBLIC 14669c 0 std::__ndk1::__tree<std::__ndk1::__value_type<std::__ndk1::basic_string<char, std::__ndk1::char_traits<char>, std::__ndk1::allocator<char> >, nlohmann::json_abi_v3_11_3::basic_json<std::__ndk1::map, std::__ndk1::vector, std::__ndk1::basic_string<char, std::__ndk1::char_traits<char>, std::__ndk1::allocator<char> >, bool, long, unsigned long, double, std::__ndk1::allocator, nlohmann::json_abi_v3_11_3::adl_serializer, std::__ndk1::vector<unsigned char, std::__ndk1::allocator<unsigned char> >, void> >, std::__ndk1::__map_value_compare<std::__ndk1::basic_string<char, std::__ndk1::char_traits<char>, std::__ndk1::allocator<char> >, std::__ndk1::__value_type<std::__ndk1::basic_string<char, std::__ndk1::char_traits<char>, std::__ndk1::allocator<char> >, nlohmann::json_abi_v3_11_3::basic_json<std::__ndk1::map, std::__ndk1::vector, std::__ndk1::basic_string<char, std::__ndk1::char_traits<char>, std::__ndk1::allocator<char> >, bool, long, unsigned long, double, std::__ndk1::allocator, nlohmann::json_abi_v3_11_3::adl_serializer, std::__ndk1::vector<unsigned char, std::__ndk1::allocator<unsigned char> >, void> >, std::__ndk1::less<void>, true>, std::__ndk1::allocator<std::__ndk1::__value_type<std::__ndk1::basic_string<char, std::__ndk1::char_traits<char>, std::__ndk1::allocator<char> >, nlohmann::json_abi_v3_11_3::basic_json<std::__ndk1::map, std::__ndk1::vector, std::__ndk1::basic_string<char, std::__ndk1::char_traits<char>, std::__ndk1::allocator<char> >, bool, long, unsigned long, double, std::__ndk1::allocator, nlohmann::json_abi_v3_11_3::adl_serializer, std::__ndk1::vector<unsigned char, std::__ndk1::allocator<unsigned char> >, void> > > >::find<char [6]>(char const (&) [6])
PUBLIC 146800 0 _ZN8nlohmann16json_abi_v3_11_36detail9from_jsonINS0_10basic_jsonINSt6__ndk13mapENS4_6vectorENS4_12basic_stringIcNS4_11char_traitsIcEENS4_9allocatorIcEEEEblmdSA_NS0_14adl_serializerENS6_IhNSA_IhEEEEvEEiTnNS4_9enable_ifIXaaaaaaaasr3std13is_arithmeticIT0_EE5valuentsr3std7is_sameISI_NT_17number_unsigned_tEEE5valuentsr3std7is_sameISI_NSJ_16number_integer_tEEE5valuentsr3std7is_sameISI_NSJ_14number_float_tEEE5valuentsr3std7is_sameISI_NSJ_9boolean_tEEE5valueEiE4typeELi0EEEvRKSJ_RSI_
PUBLIC 146954 0 std::__ndk1::__tree<std::__ndk1::__value_type<std::__ndk1::basic_string<char, std::__ndk1::char_traits<char>, std::__ndk1::allocator<char> >, nlohmann::json_abi_v3_11_3::basic_json<std::__ndk1::map, std::__ndk1::vector, std::__ndk1::basic_string<char, std::__ndk1::char_traits<char>, std::__ndk1::allocator<char> >, bool, long, unsigned long, double, std::__ndk1::allocator, nlohmann::json_abi_v3_11_3::adl_serializer, std::__ndk1::vector<unsigned char, std::__ndk1::allocator<unsigned char> >, void> >, std::__ndk1::__map_value_compare<std::__ndk1::basic_string<char, std::__ndk1::char_traits<char>, std::__ndk1::allocator<char> >, std::__ndk1::__value_type<std::__ndk1::basic_string<char, std::__ndk1::char_traits<char>, std::__ndk1::allocator<char> >, nlohmann::json_abi_v3_11_3::basic_json<std::__ndk1::map, std::__ndk1::vector, std::__ndk1::basic_string<char, std::__ndk1::char_traits<char>, std::__ndk1::allocator<char> >, bool, long, unsigned long, double, std::__ndk1::allocator, nlohmann::json_abi_v3_11_3::adl_serializer, std::__ndk1::vector<unsigned char, std::__ndk1::allocator<unsigned char> >, void> >, std::__ndk1::less<void>, true>, std::__ndk1::allocator<std::__ndk1::__value_type<std::__ndk1::basic_string<char, std::__ndk1::char_traits<char>, std::__ndk1::allocator<char> >, nlohmann::json_abi_v3_11_3::basic_json<std::__ndk1::map, std::__ndk1::vector, std::__ndk1::basic_string<char, std::__ndk1::char_traits<char>, std::__ndk1::allocator<char> >, bool, long, unsigned long, double, std::__ndk1::allocator, nlohmann::json_abi_v3_11_3::adl_serializer, std::__ndk1::vector<unsigned char, std::__ndk1::allocator<unsigned char> >, void> > > >::find<char [3]>(char const (&) [3])
PUBLIC 146ab4 0 std::__ndk1::__tree<std::__ndk1::__value_type<std::__ndk1::basic_string<char, std::__ndk1::char_traits<char>, std::__ndk1::allocator<char> >, nlohmann::json_abi_v3_11_3::basic_json<std::__ndk1::map, std::__ndk1::vector, std::__ndk1::basic_string<char, std::__ndk1::char_traits<char>, std::__ndk1::allocator<char> >, bool, long, unsigned long, double, std::__ndk1::allocator, nlohmann::json_abi_v3_11_3::adl_serializer, std::__ndk1::vector<unsigned char, std::__ndk1::allocator<unsigned char> >, void> >, std::__ndk1::__map_value_compare<std::__ndk1::basic_string<char, std::__ndk1::char_traits<char>, std::__ndk1::allocator<char> >, std::__ndk1::__value_type<std::__ndk1::basic_string<char, std::__ndk1::char_traits<char>, std::__ndk1::allocator<char> >, nlohmann::json_abi_v3_11_3::basic_json<std::__ndk1::map, std::__ndk1::vector, std::__ndk1::basic_string<char, std::__ndk1::char_traits<char>, std::__ndk1::allocator<char> >, bool, long, unsigned long, double, std::__ndk1::allocator, nlohmann::json_abi_v3_11_3::adl_serializer, std::__ndk1::vector<unsigned char, std::__ndk1::allocator<unsigned char> >, void> >, std::__ndk1::less<void>, true>, std::__ndk1::allocator<std::__ndk1::__value_type<std::__ndk1::basic_string<char, std::__ndk1::char_traits<char>, std::__ndk1::allocator<char> >, nlohmann::json_abi_v3_11_3::basic_json<std::__ndk1::map, std::__ndk1::vector, std::__ndk1::basic_string<char, std::__ndk1::char_traits<char>, std::__ndk1::allocator<char> >, bool, long, unsigned long, double, std::__ndk1::allocator, nlohmann::json_abi_v3_11_3::adl_serializer, std::__ndk1::vector<unsigned char, std::__ndk1::allocator<unsigned char> >, void> > > >::find<char [2]>(char const (&) [2])
PUBLIC 146c14 0 geode::Task<geode::Result<std::__ndk1::__fs::filesystem::path, std::__ndk1::basic_string<char, std::__ndk1::char_traits<char>, std::__ndk1::allocator<char> > >, std::__ndk1::monostate>::setListener(geode::EventListenerProtocol*)
PUBLIC 146e30 0 geode::EventListener<geode::Task<geode::Result<std::__ndk1::__fs::filesystem::path, std::__ndk1::basic_string<char, std::__ndk1::char_traits<char>, std::__ndk1::allocator<char> > >, std::__ndk1::monostate> >::getPool() const
PUBLIC 146e34 0 geode::EventListener<geode::Task<geode::Result<std::__ndk1::__fs::filesystem::path, std::__ndk1::basic_string<char, std::__ndk1::char_traits<char>, std::__ndk1::allocator<char> > >, std::__ndk1::monostate> >::handle(geode::Event*)
PUBLIC 147000 0 geode::EventListener<geode::Task<geode::Result<std::__ndk1::__fs::filesystem::path, std::__ndk1::basic_string<char, std::__ndk1::char_traits<char>, std::__ndk1::allocator<char> > >, std::__ndk1::monostate> >::~EventListener()
PUBLIC 14709c 0 geode::EventListener<geode::Task<geode::Result<std::__ndk1::__fs::filesystem::path, std::__ndk1::basic_string<char, std::__ndk1::char_traits<char>, std::__ndk1::allocator<char> > >, std::__ndk1::monostate> >::~EventListener()
PUBLIC 147140 0 geode::Task<geode::Result<std::__ndk1::__fs::filesystem::path, std::__ndk1::basic_string<char, std::__ndk1::char_traits<char>, std::__ndk1::allocator<char> > >, std::__ndk1::monostate>::setListener(geode::EventListenerProtocol*)::{lambda()#1}::~{lambda()#1}()
PUBLIC 147190 0 geode::Task<geode::Result<std::__ndk1::__fs::filesystem::path, std::__ndk1::basic_string<char, std::__ndk1::char_traits<char>, std::__ndk1::allocator<char> > >, std::__ndk1::monostate>::setListener(geode::EventListenerProtocol*)::{lambda()#2}::~{lambda()#2}()
PUBLIC 1471e0 0 std::__ndk1::__function::__func<geode::Task<geode::Result<std::__ndk1::__fs::filesystem::path, std::__ndk1::basic_string<char, std::__ndk1::char_traits<char>, std::__ndk1::allocator<char> > >, std::__ndk1::monostate>::setListener(geode::EventListenerProtocol*)::{lambda()#1}, std::__ndk1::allocator<geode::Task<geode::Result<std::__ndk1::__fs::filesystem::path, std::__ndk1::basic_string<char, std::__ndk1::char_traits<char>, std::__ndk1::allocator<char> > >, std::__ndk1::monostate>::setListener(geode::EventListenerProtocol*)::{lambda()#1}>, void ()>::~__func()
PUBLIC 14723c 0 std::__ndk1::__function::__func<geode::Task<geode::Result<std::__ndk1::__fs::filesystem::path, std::__ndk1::basic_string<char, std::__ndk1::char_traits<char>, std::__ndk1::allocator<char> > >, std::__ndk1::monostate>::setListener(geode::EventListenerProtocol*)::{lambda()#1}, std::__ndk1::allocator<geode::Task<geode::Result<std::__ndk1::__fs::filesystem::path, std::__ndk1::basic_string<char, std::__ndk1::char_traits<char>, std::__ndk1::allocator<char> > >, std::__ndk1::monostate>::setListener(geode::EventListenerProtocol*)::{lambda()#1}>, void ()>::~__func()
PUBLIC 1472a8 0 std::__ndk1::__function::__func<geode::Task<geode::Result<std::__ndk1::__fs::filesystem::path, std::__ndk1::basic_string<char, std::__ndk1::char_traits<char>, std::__ndk1::allocator<char> > >, std::__ndk1::monostate>::setListener(geode::EventListenerProtocol*)::{lambda()#1}, std::__ndk1::allocator<geode::Task<geode::Result<std::__ndk1::__fs::filesystem::path, std::__ndk1::basic_string<char, std::__ndk1::char_traits<char>, std::__ndk1::allocator<char> > >, std::__ndk1::monostate>::setListener(geode::EventListenerProtocol*)::{lambda()#1}>, void ()>::__clone() const
PUBLIC 147300 0 std::__ndk1::__function::__func<geode::Task<geode::Result<std::__ndk1::__fs::filesystem::path, std::__ndk1::basic_string<char, std::__ndk1::char_traits<char>, std::__ndk1::allocator<char> > >, std::__ndk1::monostate>::setListener(geode::EventListenerProtocol*)::{lambda()#1}, std::__ndk1::allocator<geode::Task<geode::Result<std::__ndk1::__fs::filesystem::path, std::__ndk1::basic_string<char, std::__ndk1::char_traits<char>, std::__ndk1::allocator<char> > >, std::__ndk1::monostate>::setListener(geode::EventListenerProtocol*)::{lambda()#1}>, void ()>::__clone(std::__ndk1::__function::__base<void ()>*) const
PUBLIC 14734c 0 std::__ndk1::__function::__func<geode::Task<geode::Result<std::__ndk1::__fs::filesystem::path, std::__ndk1::basic_string<char, std::__ndk1::char_traits<char>, std::__ndk1::allocator<char> > >, std::__ndk1::monostate>::setListener(geode::EventListenerProtocol*)::{lambda()#1}, std::__ndk1::allocator<geode::Task<geode::Result<std::__ndk1::__fs::filesystem::path, std::__ndk1::basic_string<char, std::__ndk1::char_traits<char>, std::__ndk1::allocator<char> > >, std::__ndk1::monostate>::setListener(geode::EventListenerProtocol*)::{lambda()#1}>, void ()>::destroy()
PUBLIC 14739c 0 std::__ndk1::__function::__func<geode::Task<geode::Result<std::__ndk1::__fs::filesystem::path, std::__ndk1::basic_string<char, std::__ndk1::char_traits<char>, std::__ndk1::allocator<char> > >, std::__ndk1::monostate>::setListener(geode::EventListenerProtocol*)::{lambda()#1}, std::__ndk1::allocator<geode::Task<geode::Result<std::__ndk1::__fs::filesystem::path, std::__ndk1::basic_string<char, std::__ndk1::char_traits<char>, std::__ndk1::allocator<char> > >, std::__ndk1::monostate>::setListener(geode::EventListenerProtocol*)::{lambda()#1}>, void ()>::destroy_deallocate()
PUBLIC 1473fc 0 std::__ndk1::__function::__func<geode::Task<geode::Result<std::__ndk1::__fs::filesystem::path, std::__ndk1::basic_string<char, std::__ndk1::char_traits<char>, std::__ndk1::allocator<char> > >, std::__ndk1::monostate>::setListener(geode::EventListenerProtocol*)::{lambda()#1}, std::__ndk1::allocator<geode::Task<geode::Result<std::__ndk1::__fs::filesystem::path, std::__ndk1::basic_string<char, std::__ndk1::char_traits<char>, std::__ndk1::allocator<char> > >, std::__ndk1::monostate>::setListener(geode::EventListenerProtocol*)::{lambda()#1}>, void ()>::operator()()
PUBLIC 147404 0 std::__ndk1::__function::__func<geode::Task<geode::Result<std::__ndk1::__fs::filesystem::path, std::__ndk1::basic_string<char, std::__ndk1::char_traits<char>, std::__ndk1::allocator<char> > >, std::__ndk1::monostate>::setListener(geode::EventListenerProtocol*)::{lambda()#1}, std::__ndk1::allocator<geode::Task<geode::Result<std::__ndk1::__fs::filesystem::path, std::__ndk1::basic_string<char, std::__ndk1::char_traits<char>, std::__ndk1::allocator<char> > >, std::__ndk1::monostate>::setListener(geode::EventListenerProtocol*)::{lambda()#1}>, void ()>::target(std::type_info const&) const
PUBLIC 147420 0 std::__ndk1::__function::__func<geode::Task<geode::Result<std::__ndk1::__fs::filesystem::path, std::__ndk1::basic_string<char, std::__ndk1::char_traits<char>, std::__ndk1::allocator<char> > >, std::__ndk1::monostate>::setListener(geode::EventListenerProtocol*)::{lambda()#1}, std::__ndk1::allocator<geode::Task<geode::Result<std::__ndk1::__fs::filesystem::path, std::__ndk1::basic_string<char, std::__ndk1::char_traits<char>, std::__ndk1::allocator<char> > >, std::__ndk1::monostate>::setListener(geode::EventListenerProtocol*)::{lambda()#1}>, void ()>::target_type() const
PUBLIC 14742c 0 geode::Task<geode::Result<std::__ndk1::__fs::filesystem::path, std::__ndk1::basic_string<char, std::__ndk1::char_traits<char>, std::__ndk1::allocator<char> > >, std::__ndk1::monostate>::setListener(geode::EventListenerProtocol*)::{lambda()#1}::operator()() const
PUBLIC 1475fc 0 geode::Task<geode::Result<std::__ndk1::__fs::filesystem::path, std::__ndk1::basic_string<char, std::__ndk1::char_traits<char>, std::__ndk1::allocator<char> > >, std::__ndk1::monostate>::Event::~Event()
PUBLIC 14765c 0 geode::Task<geode::Result<std::__ndk1::__fs::filesystem::path, std::__ndk1::basic_string<char, std::__ndk1::char_traits<char>, std::__ndk1::allocator<char> > >, std::__ndk1::monostate>::Event::~Event()
PUBLIC 1476cc 0 std::__ndk1::__function::__func<geode::Task<geode::Result<std::__ndk1::__fs::filesystem::path, std::__ndk1::basic_string<char, std::__ndk1::char_traits<char>, std::__ndk1::allocator<char> > >, std::__ndk1::monostate>::setListener(geode::EventListenerProtocol*)::{lambda()#2}, std::__ndk1::allocator<geode::Task<geode::Result<std::__ndk1::__fs::filesystem::path, std::__ndk1::basic_string<char, std::__ndk1::char_traits<char>, std::__ndk1::allocator<char> > >, std::__ndk1::monostate>::setListener(geode::EventListenerProtocol*)::{lambda()#2}>, void ()>::~__func()
PUBLIC 147728 0 std::__ndk1::__function::__func<geode::Task<geode::Result<std::__ndk1::__fs::filesystem::path, std::__ndk1::basic_string<char, std::__ndk1::char_traits<char>, std::__ndk1::allocator<char> > >, std::__ndk1::monostate>::setListener(geode::EventListenerProtocol*)::{lambda()#2}, std::__ndk1::allocator<geode::Task<geode::Result<std::__ndk1::__fs::filesystem::path, std::__ndk1::basic_string<char, std::__ndk1::char_traits<char>, std::__ndk1::allocator<char> > >, std::__ndk1::monostate>::setListener(geode::EventListenerProtocol*)::{lambda()#2}>, void ()>::~__func()
PUBLIC 147794 0 std::__ndk1::__function::__func<geode::Task<geode::Result<std::__ndk1::__fs::filesystem::path, std::__ndk1::basic_string<char, std::__ndk1::char_traits<char>, std::__ndk1::allocator<char> > >, std::__ndk1::monostate>::setListener(geode::EventListenerProtocol*)::{lambda()#2}, std::__ndk1::allocator<geode::Task<geode::Result<std::__ndk1::__fs::filesystem::path, std::__ndk1::basic_string<char, std::__ndk1::char_traits<char>, std::__ndk1::allocator<char> > >, std::__ndk1::monostate>::setListener(geode::EventListenerProtocol*)::{lambda()#2}>, void ()>::__clone() const
PUBLIC 1477ec 0 std::__ndk1::__function::__func<geode::Task<geode::Result<std::__ndk1::__fs::filesystem::path, std::__ndk1::basic_string<char, std::__ndk1::char_traits<char>, std::__ndk1::allocator<char> > >, std::__ndk1::monostate>::setListener(geode::EventListenerProtocol*)::{lambda()#2}, std::__ndk1::allocator<geode::Task<geode::Result<std::__ndk1::__fs::filesystem::path, std::__ndk1::basic_string<char, std::__ndk1::char_traits<char>, std::__ndk1::allocator<char> > >, std::__ndk1::monostate>::setListener(geode::EventListenerProtocol*)::{lambda()#2}>, void ()>::__clone(std::__ndk1::__function::__base<void ()>*) const
PUBLIC 147838 0 std::__ndk1::__function::__func<geode::Task<geode::Result<std::__ndk1::__fs::filesystem::path, std::__ndk1::basic_string<char, std::__ndk1::char_traits<char>, std::__ndk1::allocator<char> > >, std::__ndk1::monostate>::setListener(geode::EventListenerProtocol*)::{lambda()#2}, std::__ndk1::allocator<geode::Task<geode::Result<std::__ndk1::__fs::filesystem::path, std::__ndk1::basic_string<char, std::__ndk1::char_traits<char>, std::__ndk1::allocator<char> > >, std::__ndk1::monostate>::setListener(geode::EventListenerProtocol*)::{lambda()#2}>, void ()>::destroy()
PUBLIC 147888 0 std::__ndk1::__function::__func<geode::Task<geode::Result<std::__ndk1::__fs::filesystem::path, std::__ndk1::basic_string<char, std::__ndk1::char_traits<char>, std::__ndk1::allocator<char> > >, std::__ndk1::monostate>::setListener(geode::EventListenerProtocol*)::{lambda()#2}, std::__ndk1::allocator<geode::Task<geode::Result<std::__ndk1::__fs::filesystem::path, std::__ndk1::basic_string<char, std::__ndk1::char_traits<char>, std::__ndk1::allocator<char> > >, std::__ndk1::monostate>::setListener(geode::EventListenerProtocol*)::{lambda()#2}>, void ()>::destroy_deallocate()
PUBLIC 1478e8 0 std::__ndk1::__function::__func<geode::Task<geode::Result<std::__ndk1::__fs::filesystem::path, std::__ndk1::basic_string<char, std::__ndk1::char_traits<char>, std::__ndk1::allocator<char> > >, std::__ndk1::monostate>::setListener(geode::EventListenerProtocol*)::{lambda()#2}, std::__ndk1::allocator<geode::Task<geode::Result<std::__ndk1::__fs::filesystem::path, std::__ndk1::basic_string<char, std::__ndk1::char_traits<char>, std::__ndk1::allocator<char> > >, std::__ndk1::monostate>::setListener(geode::EventListenerProtocol*)::{lambda()#2}>, void ()>::operator()()
PUBLIC 1478f0 0 std::__ndk1::__function::__func<geode::Task<geode::Result<std::__ndk1::__fs::filesystem::path, std::__ndk1::basic_string<char, std::__ndk1::char_traits<char>, std::__ndk1::allocator<char> > >, std::__ndk1::monostate>::setListener(geode::EventListenerProtocol*)::{lambda()#2}, std::__ndk1::allocator<geode::Task<geode::Result<std::__ndk1::__fs::filesystem::path, std::__ndk1::basic_string<char, std::__ndk1::char_traits<char>, std::__ndk1::allocator<char> > >, std::__ndk1::monostate>::setListener(geode::EventListenerProtocol*)::{lambda()#2}>, void ()>::target(std::type_info const&) const
PUBLIC 14790c 0 std::__ndk1::__function::__func<geode::Task<geode::Result<std::__ndk1::__fs::filesystem::path, std::__ndk1::basic_string<char, std::__ndk1::char_traits<char>, std::__ndk1::allocator<char> > >, std::__ndk1::monostate>::setListener(geode::EventListenerProtocol*)::{lambda()#2}, std::__ndk1::allocator<geode::Task<geode::Result<std::__ndk1::__fs::filesystem::path, std::__ndk1::basic_string<char, std::__ndk1::char_traits<char>, std::__ndk1::allocator<char> > >, std::__ndk1::monostate>::setListener(geode::EventListenerProtocol*)::{lambda()#2}>, void ()>::target_type() const
PUBLIC 147918 0 geode::Task<geode::Result<std::__ndk1::__fs::filesystem::path, std::__ndk1::basic_string<char, std::__ndk1::char_traits<char>, std::__ndk1::allocator<char> > >, std::__ndk1::monostate>::setListener(geode::EventListenerProtocol*)::{lambda()#2}::operator()() const
PUBLIC 147adc 0 std::__ndk1::__function::__value_func<void (geode::Task<geode::Result<std::__ndk1::__fs::filesystem::path, std::__ndk1::basic_string<char, std::__ndk1::char_traits<char>, std::__ndk1::allocator<char> > >, std::__ndk1::monostate>::Event*)>::swap[abi:ne180000](std::__ndk1::__function::__value_func<void (geode::Task<geode::Result<std::__ndk1::__fs::filesystem::path, std::__ndk1::basic_string<char, std::__ndk1::char_traits<char>, std::__ndk1::allocator<char> > >, std::__ndk1::monostate>::Event*)>&)
PUBLIC 147c74 0 std::__ndk1::__function::__base<void (geode::Task<geode::Result<std::__ndk1::__fs::filesystem::path, std::__ndk1::basic_string<char, std::__ndk1::char_traits<char>, std::__ndk1::allocator<char> > >, std::__ndk1::monostate>::Event*)>::~__base()
PUBLIC 147c78 0 std::__ndk1::__function::__func<geode::Task<geode::Result<std::__ndk1::__fs::filesystem::path, std::__ndk1::basic_string<char, std::__ndk1::char_traits<char>, std::__ndk1::allocator<char> > >, std::__ndk1::monostate>::listen<LoadMacroLayer::onImportMacro(cocos2d::CCObject*)::$_0, geode::Task<geode::Result<std::__ndk1::__fs::filesystem::path, std::__ndk1::basic_string<char, std::__ndk1::char_traits<char>, std::__ndk1::allocator<char> > >, std::__ndk1::monostate>::listen<LoadMacroLayer::onImportMacro(cocos2d::CCObject*)::$_0>(LoadMacroLayer::onImportMacro(cocos2d::CCObject*)::$_0&&) const::{lambda(auto:1 const&)#1}, geode::Task<geode::Result<std::__ndk1::__fs::filesystem::path, std::__ndk1::basic_string<char, std::__ndk1::char_traits<char>, std::__ndk1::allocator<char> > >, std::__ndk1::monostate>::listen<LoadMacroLayer::onImportMacro(cocos2d::CCObject*)::$_0>(LoadMacroLayer::onImportMacro(cocos2d::CCObject*)::$_0&&) const::{lambda()#1}>(LoadMacroLayer::onImportMacro(cocos2d::CCObject*)::$_0&&, geode::Task<geode::Result<std::__ndk1::__fs::filesystem::path, std::__ndk1::basic_string<char, std::__ndk1::char_traits<char>, std::__ndk1::allocator<char> > >, std::__ndk1::monostate>::listen<LoadMacroLayer::onImportMacro(cocos2d::CCObject*)::$_0>(LoadMacroLayer::onImportMacro(cocos2d::CCObject*)::$_0&&) const::{lambda(auto:1 const&)#1}, geode::Task<geode::Result<std::__ndk1::__fs::filesystem::path, std::__ndk1::basic_string<char, std::__ndk1::char_traits<char>, std::__ndk1::allocator<char> > >, std::__ndk1::monostate>::listen<LoadMacroLayer::onImportMacro(cocos2d::CCObject*)::$_0>(LoadMacroLayer::onImportMacro(cocos2d::CCObject*)::$_0&&) const::{lambda()#1}&&) const::{lambda(geode::Task<geode::Result<std::__ndk1::__fs::filesystem::path, std::__ndk1::basic_string<char, std::__ndk1::char_traits<char>, std::__ndk1::allocator<char> > >, std::__ndk1::monostate>::Event*)#1}, std::__ndk1::allocator<geode::Task<geode::Result<std::__ndk1::__fs::filesystem::path, std::__ndk1::basic_string<char, std::__ndk1::char_traits<char>, std::__ndk1::allocator<char> > >, std::__ndk1::monostate>::listen<LoadMacroLayer::onImportMacro(cocos2d::CCObject*)::$_0, geode::Task<geode::Result<std::__ndk1::__fs::filesystem::path, std::__ndk1::basic_string<char, std::__ndk1::char_traits<char>, std::__ndk1::allocator<char> > >, std::__ndk1::monostate>::listen<LoadMacroLayer::onImportMacro(cocos2d::CCObject*)::$_0>(LoadMacroLayer::onImportMacro(cocos2d::CCObject*)::$_0&&) const::{lambda(auto:1 const&)#1}, geode::Task<geode::Result<std::__ndk1::__fs::filesystem::path, std::__ndk1::basic_string<char, std::__ndk1::char_traits<char>, std::__ndk1::allocator<char> > >, std::__ndk1::monostate>::listen<LoadMacroLayer::onImportMacro(cocos2d::CCObject*)::$_0>(LoadMacroLayer::onImportMacro(cocos2d::CCObject*)::$_0&&) const::{lambda()#1}>(LoadMacroLayer::onImportMacro(cocos2d::CCObject*)::$_0&&, geode::Task<geode::Result<std::__ndk1::__fs::filesystem::path, std::__ndk1::basic_string<char, std::__ndk1::char_traits<char>, std::__ndk1::allocator<char> > >, std::__ndk1::monostate>::listen<LoadMacroLayer::onImportMacro(cocos2d::CCObject*)::$_0>(LoadMacroLayer::onImportMacro(cocos2d::CCObject*)::$_0&&) const::{lambda(auto:1 const&)#1}, geode::Task<geode::Result<std::__ndk1::__fs::filesystem::path, std::__ndk1::basic_string<char, std::__ndk1::char_traits<char>, std::__ndk1::allocator<char> > >, std::__ndk1::monostate>::listen<LoadMacroLayer::onImportMacro(cocos2d::CCObject*)::$_0>(LoadMacroLayer::onImportMacro(cocos2d::CCObject*)::$_0&&) const::{lambda()#1}&&) const::{lambda(geode::Task<geode::Result<std::__ndk1::__fs::filesystem::path, std::__ndk1::basic_string<char, std::__ndk1::char_traits<char>, std::__ndk1::allocator<char> > >, std::__ndk1::monostate>::Event*)#1}>, void (geode::Task<geode::Result<std::__ndk1::__fs::filesystem::path, std::__ndk1::basic_string<char, std::__ndk1::char_traits<char>, std::__ndk1::allocator<char> > >, std::__ndk1::monostate>::Event*)>::~__func()
PUBLIC 147c7c 0 std::__ndk1::__function::__func<geode::Task<geode::Result<std::__ndk1::__fs::filesystem::path, std::__ndk1::basic_string<char, std::__ndk1::char_traits<char>, std::__ndk1::allocator<char> > >, std::__ndk1::monostate>::listen<LoadMacroLayer::onImportMacro(cocos2d::CCObject*)::$_0, geode::Task<geode::Result<std::__ndk1::__fs::filesystem::path, std::__ndk1::basic_string<char, std::__ndk1::char_traits<char>, std::__ndk1::allocator<char> > >, std::__ndk1::monostate>::listen<LoadMacroLayer::onImportMacro(cocos2d::CCObject*)::$_0>(LoadMacroLayer::onImportMacro(cocos2d::CCObject*)::$_0&&) const::{lambda(auto:1 const&)#1}, geode::Task<geode::Result<std::__ndk1::__fs::filesystem::path, std::__ndk1::basic_string<char, std::__ndk1::char_traits<char>, std::__ndk1::allocator<char> > >, std::__ndk1::monostate>::listen<LoadMacroLayer::onImportMacro(cocos2d::CCObject*)::$_0>(LoadMacroLayer::onImportMacro(cocos2d::CCObject*)::$_0&&) const::{lambda()#1}>(LoadMacroLayer::onImportMacro(cocos2d::CCObject*)::$_0&&, geode::Task<geode::Result<std::__ndk1::__fs::filesystem::path, std::__ndk1::basic_string<char, std::__ndk1::char_traits<char>, std::__ndk1::allocator<char> > >, std::__ndk1::monostate>::listen<LoadMacroLayer::onImportMacro(cocos2d::CCObject*)::$_0>(LoadMacroLayer::onImportMacro(cocos2d::CCObject*)::$_0&&) const::{lambda(auto:1 const&)#1}, geode::Task<geode::Result<std::__ndk1::__fs::filesystem::path, std::__ndk1::basic_string<char, std::__ndk1::char_traits<char>, std::__ndk1::allocator<char> > >, std::__ndk1::monostate>::listen<LoadMacroLayer::onImportMacro(cocos2d::CCObject*)::$_0>(LoadMacroLayer::onImportMacro(cocos2d::CCObject*)::$_0&&) const::{lambda()#1}&&) const::{lambda(geode::Task<geode::Result<std::__ndk1::__fs::filesystem::path, std::__ndk1::basic_string<char, std::__ndk1::char_traits<char>, std::__ndk1::allocator<char> > >, std::__ndk1::monostate>::Event*)#1}, std::__ndk1::allocator<geode::Task<geode::Result<std::__ndk1::__fs::filesystem::path, std::__ndk1::basic_string<char, std::__ndk1::char_traits<char>, std::__ndk1::allocator<char> > >, std::__ndk1::monostate>::listen<LoadMacroLayer::onImportMacro(cocos2d::CCObject*)::$_0, geode::Task<geode::Result<std::__ndk1::__fs::filesystem::path, std::__ndk1::basic_string<char, std::__ndk1::char_traits<char>, std::__ndk1::allocator<char> > >, std::__ndk1::monostate>::listen<LoadMacroLayer::onImportMacro(cocos2d::CCObject*)::$_0>(LoadMacroLayer::onImportMacro(cocos2d::CCObject*)::$_0&&) const::{lambda(auto:1 const&)#1}, geode::Task<geode::Result<std::__ndk1::__fs::filesystem::path, std::__ndk1::basic_string<char, std::__ndk1::char_traits<char>, std::__ndk1::allocator<char> > >, std::__ndk1::monostate>::listen<LoadMacroLayer::onImportMacro(cocos2d::CCObject*)::$_0>(LoadMacroLayer::onImportMacro(cocos2d::CCObject*)::$_0&&) const::{lambda()#1}>(LoadMacroLayer::onImportMacro(cocos2d::CCObject*)::$_0&&, geode::Task<geode::Result<std::__ndk1::__fs::filesystem::path, std::__ndk1::basic_string<char, std::__ndk1::char_traits<char>, std::__ndk1::allocator<char> > >, std::__ndk1::monostate>::listen<LoadMacroLayer::onImportMacro(cocos2d::CCObject*)::$_0>(LoadMacroLayer::onImportMacro(cocos2d::CCObject*)::$_0&&) const::{lambda(auto:1 const&)#1}, geode::Task<geode::Result<std::__ndk1::__fs::filesystem::path, std::__ndk1::basic_string<char, std::__ndk1::char_traits<char>, std::__ndk1::allocator<char> > >, std::__ndk1::monostate>::listen<LoadMacroLayer::onImportMacro(cocos2d::CCObject*)::$_0>(LoadMacroLayer::onImportMacro(cocos2d::CCObject*)::$_0&&) const::{lambda()#1}&&) const::{lambda(geode::Task<geode::Result<std::__ndk1::__fs::filesystem::path, std::__ndk1::basic_string<char, std::__ndk1::char_traits<char>, std::__ndk1::allocator<char> > >, std::__ndk1::monostate>::Event*)#1}>, void (geode::Task<geode::Result<std::__ndk1::__fs::filesystem::path, std::__ndk1::basic_string<char, std::__ndk1::char_traits<char>, std::__ndk1::allocator<char> > >, std::__ndk1::monostate>::Event*)>::__clone() const
PUBLIC 147cbc 0 _ZNKSt6__ndk110__function6__funcIZNK5geode4TaskINS2_6ResultINS_4__fs10filesystem4pathENS_12basic_stringIcNS_11char_traitsIcEENS_9allocatorIcEEEEEENS_9monostateEE6listenIZN14LoadMacroLayer13onImportMacroEPN7cocos2d8CCObjectEE3$_0ZNKSG_6listenISM_EEvOT_EUlRKSO_E_ZNKSN_ISM_EEvSP_EUlvE_EEvSP_OT0_OT1_EUlPNSG_5EventEE_NSB_IS10_EEFvSZ_EE7__cloneEPNS0_6__baseIS12_EE
PUBLIC 147cdc 0 std::__ndk1::__function::__func<geode::Task<geode::Result<std::__ndk1::__fs::filesystem::path, std::__ndk1::basic_string<char, std::__ndk1::char_traits<char>, std::__ndk1::allocator<char> > >, std::__ndk1::monostate>::listen<LoadMacroLayer::onImportMacro(cocos2d::CCObject*)::$_0, geode::Task<geode::Result<std::__ndk1::__fs::filesystem::path, std::__ndk1::basic_string<char, std::__ndk1::char_traits<char>, std::__ndk1::allocator<char> > >, std::__ndk1::monostate>::listen<LoadMacroLayer::onImportMacro(cocos2d::CCObject*)::$_0>(LoadMacroLayer::onImportMacro(cocos2d::CCObject*)::$_0&&) const::{lambda(auto:1 const&)#1}, geode::Task<geode::Result<std::__ndk1::__fs::filesystem::path, std::__ndk1::basic_string<char, std::__ndk1::char_traits<char>, std::__ndk1::allocator<char> > >, std::__ndk1::monostate>::listen<LoadMacroLayer::onImportMacro(cocos2d::CCObject*)::$_0>(LoadMacroLayer::onImportMacro(cocos2d::CCObject*)::$_0&&) const::{lambda()#1}>(LoadMacroLayer::onImportMacro(cocos2d::CCObject*)::$_0&&, geode::Task<geode::Result<std::__ndk1::__fs::filesystem::path, std::__ndk1::basic_string<char, std::__ndk1::char_traits<char>, std::__ndk1::allocator<char> > >, std::__ndk1::monostate>::listen<LoadMacroLayer::onImportMacro(cocos2d::CCObject*)::$_0>(LoadMacroLayer::onImportMacro(cocos2d::CCObject*)::$_0&&) const::{lambda(auto:1 const&)#1}, geode::Task<geode::Result<std::__ndk1::__fs::filesystem::path, std::__ndk1::basic_string<char, std::__ndk1::char_traits<char>, std::__ndk1::allocator<char> > >, std::__ndk1::monostate>::listen<LoadMacroLayer::onImportMacro(cocos2d::CCObject*)::$_0>(LoadMacroLayer::onImportMacro(cocos2d::CCObject*)::$_0&&) const::{lambda()#1}&&) const::{lambda(geode::Task<geode::Result<std::__ndk1::__fs::filesystem::path, std::__ndk1::basic_string<char, std::__ndk1::char_traits<char>, std::__ndk1::allocator<char> > >, std::__ndk1::monostate>::Event*)#1}, std::__ndk1::allocator<geode::Task<geode::Result<std::__ndk1::__fs::filesystem::path, std::__ndk1::basic_string<char, std::__ndk1::char_traits<char>, std::__ndk1::allocator<char> > >, std::__ndk1::monostate>::listen<LoadMacroLayer::onImportMacro(cocos2d::CCObject*)::$_0, geode::Task<geode::Result<std::__ndk1::__fs::filesystem::path, std::__ndk1::basic_string<char, std::__ndk1::char_traits<char>, std::__ndk1::allocator<char> > >, std::__ndk1::monostate>::listen<LoadMacroLayer::onImportMacro(cocos2d::CCObject*)::$_0>(LoadMacroLayer::onImportMacro(cocos2d::CCObject*)::$_0&&) const::{lambda(auto:1 const&)#1}, geode::Task<geode::Result<std::__ndk1::__fs::filesystem::path, std::__ndk1::basic_string<char, std::__ndk1::char_traits<char>, std::__ndk1::allocator<char> > >, std::__ndk1::monostate>::listen<LoadMacroLayer::onImportMacro(cocos2d::CCObject*)::$_0>(LoadMacroLayer::onImportMacro(cocos2d::CCObject*)::$_0&&) const::{lambda()#1}>(LoadMacroLayer::onImportMacro(cocos2d::CCObject*)::$_0&&, geode::Task<geode::Result<std::__ndk1::__fs::filesystem::path, std::__ndk1::basic_string<char, std::__ndk1::char_traits<char>, std::__ndk1::allocator<char> > >, std::__ndk1::monostate>::listen<LoadMacroLayer::onImportMacro(cocos2d::CCObject*)::$_0>(LoadMacroLayer::onImportMacro(cocos2d::CCObject*)::$_0&&) const::{lambda(auto:1 const&)#1}, geode::Task<geode::Result<std::__ndk1::__fs::filesystem::path, std::__ndk1::basic_string<char, std::__ndk1::char_traits<char>, std::__ndk1::allocator<char> > >, std::__ndk1::monostate>::listen<LoadMacroLayer::onImportMacro(cocos2d::CCObject*)::$_0>(LoadMacroLayer::onImportMacro(cocos2d::CCObject*)::$_0&&) const::{lambda()#1}&&) const::{lambda(geode::Task<geode::Result<std::__ndk1::__fs::filesystem::path, std::__ndk1::basic_string<char, std::__ndk1::char_traits<char>, std::__ndk1::allocator<char> > >, std::__ndk1::monostate>::Event*)#1}>, void (geode::Task<geode::Result<std::__ndk1::__fs::filesystem::path, std::__ndk1::basic_string<char, std::__ndk1::char_traits<char>, std::__ndk1::allocator<char> > >, std::__ndk1::monostate>::Event*)>::destroy()
PUBLIC 147ce0 0 std::__ndk1::__function::__func<geode::Task<geode::Result<std::__ndk1::__fs::filesystem::path, std::__ndk1::basic_string<char, std::__ndk1::char_traits<char>, std::__ndk1::allocator<char> > >, std::__ndk1::monostate>::listen<LoadMacroLayer::onImportMacro(cocos2d::CCObject*)::$_0, geode::Task<geode::Result<std::__ndk1::__fs::filesystem::path, std::__ndk1::basic_string<char, std::__ndk1::char_traits<char>, std::__ndk1::allocator<char> > >, std::__ndk1::monostate>::listen<LoadMacroLayer::onImportMacro(cocos2d::CCObject*)::$_0>(LoadMacroLayer::onImportMacro(cocos2d::CCObject*)::$_0&&) const::{lambda(auto:1 const&)#1}, geode::Task<geode::Result<std::__ndk1::__fs::filesystem::path, std::__ndk1::basic_string<char, std::__ndk1::char_traits<char>, std::__ndk1::allocator<char> > >, std::__ndk1::monostate>::listen<LoadMacroLayer::onImportMacro(cocos2d::CCObject*)::$_0>(LoadMacroLayer::onImportMacro(cocos2d::CCObject*)::$_0&&) const::{lambda()#1}>(LoadMacroLayer::onImportMacro(cocos2d::CCObject*)::$_0&&, geode::Task<geode::Result<std::__ndk1::__fs::filesystem::path, std::__ndk1::basic_string<char, std::__ndk1::char_traits<char>, std::__ndk1::allocator<char> > >, std::__ndk1::monostate>::listen<LoadMacroLayer::onImportMacro(cocos2d::CCObject*)::$_0>(LoadMacroLayer::onImportMacro(cocos2d::CCObject*)::$_0&&) const::{lambda(auto:1 const&)#1}, geode::Task<geode::Result<std::__ndk1::__fs::filesystem::path, std::__ndk1::basic_string<char, std::__ndk1::char_traits<char>, std::__ndk1::allocator<char> > >, std::__ndk1::monostate>::listen<LoadMacroLayer::onImportMacro(cocos2d::CCObject*)::$_0>(LoadMacroLayer::onImportMacro(cocos2d::CCObject*)::$_0&&) const::{lambda()#1}&&) const::{lambda(geode::Task<geode::Result<std::__ndk1::__fs::filesystem::path, std::__ndk1::basic_string<char, std::__ndk1::char_traits<char>, std::__ndk1::allocator<char> > >, std::__ndk1::monostate>::Event*)#1}, std::__ndk1::allocator<geode::Task<geode::Result<std::__ndk1::__fs::filesystem::path, std::__ndk1::basic_string<char, std::__ndk1::char_traits<char>, std::__ndk1::allocator<char> > >, std::__ndk1::monostate>::listen<LoadMacroLayer::onImportMacro(cocos2d::CCObject*)::$_0, geode::Task<geode::Result<std::__ndk1::__fs::filesystem::path, std::__ndk1::basic_string<char, std::__ndk1::char_traits<char>, std::__ndk1::allocator<char> > >, std::__ndk1::monostate>::listen<LoadMacroLayer::onImportMacro(cocos2d::CCObject*)::$_0>(LoadMacroLayer::onImportMacro(cocos2d::CCObject*)::$_0&&) const::{lambda(auto:1 const&)#1}, geode::Task<geode::Result<std::__ndk1::__fs::filesystem::path, std::__ndk1::basic_string<char, std::__ndk1::char_traits<char>, std::__ndk1::allocator<char> > >, std::__ndk1::monostate>::listen<LoadMacroLayer::onImportMacro(cocos2d::CCObject*)::$_0>(LoadMacroLayer::onImportMacro(cocos2d::CCObject*)::$_0&&) const::{lambda()#1}>(LoadMacroLayer::onImportMacro(cocos2d::CCObject*)::$_0&&, geode::Task<geode::Result<std::__ndk1::__fs::filesystem::path, std::__ndk1::basic_string<char, std::__ndk1::char_traits<char>, std::__ndk1::allocator<char> > >, std::__ndk1::monostate>::listen<LoadMacroLayer::onImportMacro(cocos2d::CCObject*)::$_0>(LoadMacroLayer::onImportMacro(cocos2d::CCObject*)::$_0&&) const::{lambda(auto:1 const&)#1}, geode::Task<geode::Result<std::__ndk1::__fs::filesystem::path, std::__ndk1::basic_string<char, std::__ndk1::char_traits<char>, std::__ndk1::allocator<char> > >, std::__ndk1::monostate>::listen<LoadMacroLayer::onImportMacro(cocos2d::CCObject*)::$_0>(LoadMacroLayer::onImportMacro(cocos2d::CCObject*)::$_0&&) const::{lambda()#1}&&) const::{lambda(geode::Task<geode::Result<std::__ndk1::__fs::filesystem::path, std::__ndk1::basic_string<char, std::__ndk1::char_traits<char>, std::__ndk1::allocator<char> > >, std::__ndk1::monostate>::Event*)#1}>, void (geode::Task<geode::Result<std::__ndk1::__fs::filesystem::path, std::__ndk1::basic_string<char, std::__ndk1::char_traits<char>, std::__ndk1::allocator<char> > >, std::__ndk1::monostate>::Event*)>::destroy_deallocate()
PUBLIC 147ce4 0 _ZNSt6__ndk110__function6__funcIZNK5geode4TaskINS2_6ResultINS_4__fs10filesystem4pathENS_12basic_stringIcNS_11char_traitsIcEENS_9allocatorIcEEEEEENS_9monostateEE6listenIZN14LoadMacroLayer13onImportMacroEPN7cocos2d8CCObjectEE3$_0ZNKSG_6listenISM_EEvOT_EUlRKSO_E_ZNKSN_ISM_EEvSP_EUlvE_EEvSP_OT0_OT1_EUlPNSG_5EventEE_NSB_IS10_EEFvSZ_EEclEOSZ_
PUBLIC 149434 0 std::__ndk1::__function::__func<geode::Task<geode::Result<std::__ndk1::__fs::filesystem::path, std::__ndk1::basic_string<char, std::__ndk1::char_traits<char>, std::__ndk1::allocator<char> > >, std::__ndk1::monostate>::listen<LoadMacroLayer::onImportMacro(cocos2d::CCObject*)::$_0, geode::Task<geode::Result<std::__ndk1::__fs::filesystem::path, std::__ndk1::basic_string<char, std::__ndk1::char_traits<char>, std::__ndk1::allocator<char> > >, std::__ndk1::monostate>::listen<LoadMacroLayer::onImportMacro(cocos2d::CCObject*)::$_0>(LoadMacroLayer::onImportMacro(cocos2d::CCObject*)::$_0&&) const::{lambda(auto:1 const&)#1}, geode::Task<geode::Result<std::__ndk1::__fs::filesystem::path, std::__ndk1::basic_string<char, std::__ndk1::char_traits<char>, std::__ndk1::allocator<char> > >, std::__ndk1::monostate>::listen<LoadMacroLayer::onImportMacro(cocos2d::CCObject*)::$_0>(LoadMacroLayer::onImportMacro(cocos2d::CCObject*)::$_0&&) const::{lambda()#1}>(LoadMacroLayer::onImportMacro(cocos2d::CCObject*)::$_0&&, geode::Task<geode::Result<std::__ndk1::__fs::filesystem::path, std::__ndk1::basic_string<char, std::__ndk1::char_traits<char>, std::__ndk1::allocator<char> > >, std::__ndk1::monostate>::listen<LoadMacroLayer::onImportMacro(cocos2d::CCObject*)::$_0>(LoadMacroLayer::onImportMacro(cocos2d::CCObject*)::$_0&&) const::{lambda(auto:1 const&)#1}, geode::Task<geode::Result<std::__ndk1::__fs::filesystem::path, std::__ndk1::basic_string<char, std::__ndk1::char_traits<char>, std::__ndk1::allocator<char> > >, std::__ndk1::monostate>::listen<LoadMacroLayer::onImportMacro(cocos2d::CCObject*)::$_0>(LoadMacroLayer::onImportMacro(cocos2d::CCObject*)::$_0&&) const::{lambda()#1}&&) const::{lambda(geode::Task<geode::Result<std::__ndk1::__fs::filesystem::path, std::__ndk1::basic_string<char, std::__ndk1::char_traits<char>, std::__ndk1::allocator<char> > >, std::__ndk1::monostate>::Event*)#1}, std::__ndk1::allocator<geode::Task<geode::Result<std::__ndk1::__fs::filesystem::path, std::__ndk1::basic_string<char, std::__ndk1::char_traits<char>, std::__ndk1::allocator<char> > >, std::__ndk1::monostate>::listen<LoadMacroLayer::onImportMacro(cocos2d::CCObject*)::$_0, geode::Task<geode::Result<std::__ndk1::__fs::filesystem::path, std::__ndk1::basic_string<char, std::__ndk1::char_traits<char>, std::__ndk1::allocator<char> > >, std::__ndk1::monostate>::listen<LoadMacroLayer::onImportMacro(cocos2d::CCObject*)::$_0>(LoadMacroLayer::onImportMacro(cocos2d::CCObject*)::$_0&&) const::{lambda(auto:1 const&)#1}, geode::Task<geode::Result<std::__ndk1::__fs::filesystem::path, std::__ndk1::basic_string<char, std::__ndk1::char_traits<char>, std::__ndk1::allocator<char> > >, std::__ndk1::monostate>::listen<LoadMacroLayer::onImportMacro(cocos2d::CCObject*)::$_0>(LoadMacroLayer::onImportMacro(cocos2d::CCObject*)::$_0&&) const::{lambda()#1}>(LoadMacroLayer::onImportMacro(cocos2d::CCObject*)::$_0&&, geode::Task<geode::Result<std::__ndk1::__fs::filesystem::path, std::__ndk1::basic_string<char, std::__ndk1::char_traits<char>, std::__ndk1::allocator<char> > >, std::__ndk1::monostate>::listen<LoadMacroLayer::onImportMacro(cocos2d::CCObject*)::$_0>(LoadMacroLayer::onImportMacro(cocos2d::CCObject*)::$_0&&) const::{lambda(auto:1 const&)#1}, geode::Task<geode::Result<std::__ndk1::__fs::filesystem::path, std::__ndk1::basic_string<char, std::__ndk1::char_traits<char>, std::__ndk1::allocator<char> > >, std::__ndk1::monostate>::listen<LoadMacroLayer::onImportMacro(cocos2d::CCObject*)::$_0>(LoadMacroLayer::onImportMacro(cocos2d::CCObject*)::$_0&&) const::{lambda()#1}&&) const::{lambda(geode::Task<geode::Result<std::__ndk1::__fs::filesystem::path, std::__ndk1::basic_string<char, std::__ndk1::char_traits<char>, std::__ndk1::allocator<char> > >, std::__ndk1::monostate>::Event*)#1}>, void (geode::Task<geode::Result<std::__ndk1::__fs::filesystem::path, std::__ndk1::basic_string<char, std::__ndk1::char_traits<char>, std::__ndk1::allocator<char> > >, std::__ndk1::monostate>::Event*)>::target(std::type_info const&) const
PUBLIC 149450 0 std::__ndk1::__function::__func<geode::Task<geode::Result<std::__ndk1::__fs::filesystem::path, std::__ndk1::basic_string<char, std::__ndk1::char_traits<char>, std::__ndk1::allocator<char> > >, std::__ndk1::monostate>::listen<LoadMacroLayer::onImportMacro(cocos2d::CCObject*)::$_0, geode::Task<geode::Result<std::__ndk1::__fs::filesystem::path, std::__ndk1::basic_string<char, std::__ndk1::char_traits<char>, std::__ndk1::allocator<char> > >, std::__ndk1::monostate>::listen<LoadMacroLayer::onImportMacro(cocos2d::CCObject*)::$_0>(LoadMacroLayer::onImportMacro(cocos2d::CCObject*)::$_0&&) const::{lambda(auto:1 const&)#1}, geode::Task<geode::Result<std::__ndk1::__fs::filesystem::path, std::__ndk1::basic_string<char, std::__ndk1::char_traits<char>, std::__ndk1::allocator<char> > >, std::__ndk1::monostate>::listen<LoadMacroLayer::onImportMacro(cocos2d::CCObject*)::$_0>(LoadMacroLayer::onImportMacro(cocos2d::CCObject*)::$_0&&) const::{lambda()#1}>(LoadMacroLayer::onImportMacro(cocos2d::CCObject*)::$_0&&, geode::Task<geode::Result<std::__ndk1::__fs::filesystem::path, std::__ndk1::basic_string<char, std::__ndk1::char_traits<char>, std::__ndk1::allocator<char> > >, std::__ndk1::monostate>::listen<LoadMacroLayer::onImportMacro(cocos2d::CCObject*)::$_0>(LoadMacroLayer::onImportMacro(cocos2d::CCObject*)::$_0&&) const::{lambda(auto:1 const&)#1}, geode::Task<geode::Result<std::__ndk1::__fs::filesystem::path, std::__ndk1::basic_string<char, std::__ndk1::char_traits<char>, std::__ndk1::allocator<char> > >, std::__ndk1::monostate>::listen<LoadMacroLayer::onImportMacro(cocos2d::CCObject*)::$_0>(LoadMacroLayer::onImportMacro(cocos2d::CCObject*)::$_0&&) const::{lambda()#1}&&) const::{lambda(geode::Task<geode::Result<std::__ndk1::__fs::filesystem::path, std::__ndk1::basic_string<char, std::__ndk1::char_traits<char>, std::__ndk1::allocator<char> > >, std::__ndk1::monostate>::Event*)#1}, std::__ndk1::allocator<geode::Task<geode::Result<std::__ndk1::__fs::filesystem::path, std::__ndk1::basic_string<char, std::__ndk1::char_traits<char>, std::__ndk1::allocator<char> > >, std::__ndk1::monostate>::listen<LoadMacroLayer::onImportMacro(cocos2d::CCObject*)::$_0, geode::Task<geode::Result<std::__ndk1::__fs::filesystem::path, std::__ndk1::basic_string<char, std::__ndk1::char_traits<char>, std::__ndk1::allocator<char> > >, std::__ndk1::monostate>::listen<LoadMacroLayer::onImportMacro(cocos2d::CCObject*)::$_0>(LoadMacroLayer::onImportMacro(cocos2d::CCObject*)::$_0&&) const::{lambda(auto:1 const&)#1}, geode::Task<geode::Result<std::__ndk1::__fs::filesystem::path, std::__ndk1::basic_string<char, std::__ndk1::char_traits<char>, std::__ndk1::allocator<char> > >, std::__ndk1::monostate>::listen<LoadMacroLayer::onImportMacro(cocos2d::CCObject*)::$_0>(LoadMacroLayer::onImportMacro(cocos2d::CCObject*)::$_0&&) const::{lambda()#1}>(LoadMacroLayer::onImportMacro(cocos2d::CCObject*)::$_0&&, geode::Task<geode::Result<std::__ndk1::__fs::filesystem::path, std::__ndk1::basic_string<char, std::__ndk1::char_traits<char>, std::__ndk1::allocator<char> > >, std::__ndk1::monostate>::listen<LoadMacroLayer::onImportMacro(cocos2d::CCObject*)::$_0>(LoadMacroLayer::onImportMacro(cocos2d::CCObject*)::$_0&&) const::{lambda(auto:1 const&)#1}, geode::Task<geode::Result<std::__ndk1::__fs::filesystem::path, std::__ndk1::basic_string<char, std::__ndk1::char_traits<char>, std::__ndk1::allocator<char> > >, std::__ndk1::monostate>::listen<LoadMacroLayer::onImportMacro(cocos2d::CCObject*)::$_0>(LoadMacroLayer::onImportMacro(cocos2d::CCObject*)::$_0&&) const::{lambda()#1}&&) const::{lambda(geode::Task<geode::Result<std::__ndk1::__fs::filesystem::path, std::__ndk1::basic_string<char, std::__ndk1::char_traits<char>, std::__ndk1::allocator<char> > >, std::__ndk1::monostate>::Event*)#1}>, void (geode::Task<geode::Result<std::__ndk1::__fs::filesystem::path, std::__ndk1::basic_string<char, std::__ndk1::char_traits<char>, std::__ndk1::allocator<char> > >, std::__ndk1::monostate>::Event*)>::target_type() const
PUBLIC 14945c 0 _ZNSt6__ndk110__function6__funcIZZNK5geode4TaskINS2_6ResultINS_4__fs10filesystem4pathENS_12basic_stringIcNS_11char_traitsIcEENS_9allocatorIcEEEEEENS_9monostateEE6listenIZN14LoadMacroLayer13onImportMacroEPN7cocos2d8CCObjectEE3$_0ZNKSG_6listenISM_EEvOT_EUlRKSO_E_ZNKSN_ISM_EEvSP_EUlvE_EEvSP_OT0_OT1_ENUlPNSG_5EventEE_clESZ_EUlvE_NSB_IS11_EEFvvEED0Ev
PUBLIC 149460 0 _ZNKSt6__ndk110__function6__funcIZZNK5geode4TaskINS2_6ResultINS_4__fs10filesystem4pathENS_12basic_stringIcNS_11char_traitsIcEENS_9allocatorIcEEEEEENS_9monostateEE6listenIZN14LoadMacroLayer13onImportMacroEPN7cocos2d8CCObjectEE3$_0ZNKSG_6listenISM_EEvOT_EUlRKSO_E_ZNKSN_ISM_EEvSP_EUlvE_EEvSP_OT0_OT1_ENUlPNSG_5EventEE_clESZ_EUlvE_NSB_IS11_EEFvvEE7__cloneEv
PUBLIC 149494 0 _ZNKSt6__ndk110__function6__funcIZZNK5geode4TaskINS2_6ResultINS_4__fs10filesystem4pathENS_12basic_stringIcNS_11char_traitsIcEENS_9allocatorIcEEEEEENS_9monostateEE6listenIZN14LoadMacroLayer13onImportMacroEPN7cocos2d8CCObjectEE3$_0ZNKSG_6listenISM_EEvOT_EUlRKSO_E_ZNKSN_ISM_EEvSP_EUlvE_EEvSP_OT0_OT1_ENUlPNSG_5EventEE_clESZ_EUlvE_NSB_IS11_EEFvvEE7__cloneEPNS0_6__baseIS13_EE
PUBLIC 1494a8 0 _ZNSt6__ndk110__function6__funcIZZNK5geode4TaskINS2_6ResultINS_4__fs10filesystem4pathENS_12basic_stringIcNS_11char_traitsIcEENS_9allocatorIcEEEEEENS_9monostateEE6listenIZN14LoadMacroLayer13onImportMacroEPN7cocos2d8CCObjectEE3$_0ZNKSG_6listenISM_EEvOT_EUlRKSO_E_ZNKSN_ISM_EEvSP_EUlvE_EEvSP_OT0_OT1_ENUlPNSG_5EventEE_clESZ_EUlvE_NSB_IS11_EEFvvEE7destroyEv
PUBLIC 1494ac 0 _ZNSt6__ndk110__function6__funcIZZNK5geode4TaskINS2_6ResultINS_4__fs10filesystem4pathENS_12basic_stringIcNS_11char_traitsIcEENS_9allocatorIcEEEEEENS_9monostateEE6listenIZN14LoadMacroLayer13onImportMacroEPN7cocos2d8CCObjectEE3$_0ZNKSG_6listenISM_EEvOT_EUlRKSO_E_ZNKSN_ISM_EEvSP_EUlvE_EEvSP_OT0_OT1_ENUlPNSG_5EventEE_clESZ_EUlvE_NSB_IS11_EEFvvEE18destroy_deallocateEv
PUBLIC 1494b0 0 _ZNSt6__ndk110__function6__funcIZZNK5geode4TaskINS2_6ResultINS_4__fs10filesystem4pathENS_12basic_stringIcNS_11char_traitsIcEENS_9allocatorIcEEEEEENS_9monostateEE6listenIZN14LoadMacroLayer13onImportMacroEPN7cocos2d8CCObjectEE3$_0ZNKSG_6listenISM_EEvOT_EUlRKSO_E_ZNKSN_ISM_EEvSP_EUlvE_EEvSP_OT0_OT1_ENUlPNSG_5EventEE_clESZ_EUlvE_NSB_IS11_EEFvvEEclEv
PUBLIC 1494c8 0 _ZNKSt6__ndk110__function6__funcIZZNK5geode4TaskINS2_6ResultINS_4__fs10filesystem4pathENS_12basic_stringIcNS_11char_traitsIcEENS_9allocatorIcEEEEEENS_9monostateEE6listenIZN14LoadMacroLayer13onImportMacroEPN7cocos2d8CCObjectEE3$_0ZNKSG_6listenISM_EEvOT_EUlRKSO_E_ZNKSN_ISM_EEvSP_EUlvE_EEvSP_OT0_OT1_ENUlPNSG_5EventEE_clESZ_EUlvE_NSB_IS11_EEFvvEE6targetERKSt9type_info
PUBLIC 1494e4 0 _ZNKSt6__ndk110__function6__funcIZZNK5geode4TaskINS2_6ResultINS_4__fs10filesystem4pathENS_12basic_stringIcNS_11char_traitsIcEENS_9allocatorIcEEEEEENS_9monostateEE6listenIZN14LoadMacroLayer13onImportMacroEPN7cocos2d8CCObjectEE3$_0ZNKSG_6listenISM_EEvOT_EUlRKSO_E_ZNKSN_ISM_EEvSP_EUlvE_EEvSP_OT0_OT1_ENUlPNSG_5EventEE_clESZ_EUlvE_NSB_IS11_EEFvvEE11target_typeEv
PUBLIC 1494f0 0 std::__ndk1::__function::__func<MacroCell::onLoad(cocos2d::CCObject*)::$_0, std::__ndk1::allocator<MacroCell::onLoad(cocos2d::CCObject*)::$_0>, void (FLAlertLayer*, bool)>::~__func()
PUBLIC 1494f4 0 std::__ndk1::__function::__func<MacroCell::onLoad(cocos2d::CCObject*)::$_0, std::__ndk1::allocator<MacroCell::onLoad(cocos2d::CCObject*)::$_0>, void (FLAlertLayer*, bool)>::__clone() const
PUBLIC 149528 0 std::__ndk1::__function::__func<MacroCell::onLoad(cocos2d::CCObject*)::$_0, std::__ndk1::allocator<MacroCell::onLoad(cocos2d::CCObject*)::$_0>, void (FLAlertLayer*, bool)>::__clone(std::__ndk1::__function::__base<void (FLAlertLayer*, bool)>*) const
PUBLIC 14953c 0 std::__ndk1::__function::__func<MacroCell::onLoad(cocos2d::CCObject*)::$_0, std::__ndk1::allocator<MacroCell::onLoad(cocos2d::CCObject*)::$_0>, void (FLAlertLayer*, bool)>::destroy()
PUBLIC 149540 0 std::__ndk1::__function::__func<MacroCell::onLoad(cocos2d::CCObject*)::$_0, std::__ndk1::allocator<MacroCell::onLoad(cocos2d::CCObject*)::$_0>, void (FLAlertLayer*, bool)>::destroy_deallocate()
PUBLIC 149544 0 std::__ndk1::__function::__func<MacroCell::onLoad(cocos2d::CCObject*)::$_0, std::__ndk1::allocator<MacroCell::onLoad(cocos2d::CCObject*)::$_0>, void (FLAlertLayer*, bool)>::operator()(FLAlertLayer*&&, bool&&)
PUBLIC 149558 0 std::__ndk1::__function::__func<MacroCell::onLoad(cocos2d::CCObject*)::$_0, std::__ndk1::allocator<MacroCell::onLoad(cocos2d::CCObject*)::$_0>, void (FLAlertLayer*, bool)>::target(std::type_info const&) const
PUBLIC 149574 0 std::__ndk1::__function::__func<MacroCell::onLoad(cocos2d::CCObject*)::$_0, std::__ndk1::allocator<MacroCell::onLoad(cocos2d::CCObject*)::$_0>, void (FLAlertLayer*, bool)>::target_type() const
PUBLIC 149580 0 std::__ndk1::__function::__func<MacroCell::onDelete(cocos2d::CCObject*)::$_0, std::__ndk1::allocator<MacroCell::onDelete(cocos2d::CCObject*)::$_0>, void (FLAlertLayer*, bool)>::~__func()
PUBLIC 149584 0 std::__ndk1::__function::__func<MacroCell::onDelete(cocos2d::CCObject*)::$_0, std::__ndk1::allocator<MacroCell::onDelete(cocos2d::CCObject*)::$_0>, void (FLAlertLayer*, bool)>::__clone() const
PUBLIC 1495b8 0 std::__ndk1::__function::__func<MacroCell::onDelete(cocos2d::CCObject*)::$_0, std::__ndk1::allocator<MacroCell::onDelete(cocos2d::CCObject*)::$_0>, void (FLAlertLayer*, bool)>::__clone(std::__ndk1::__function::__base<void (FLAlertLayer*, bool)>*) const
PUBLIC 1495cc 0 std::__ndk1::__function::__func<MacroCell::onDelete(cocos2d::CCObject*)::$_0, std::__ndk1::allocator<MacroCell::onDelete(cocos2d::CCObject*)::$_0>, void (FLAlertLayer*, bool)>::destroy()
PUBLIC 1495d0 0 std::__ndk1::__function::__func<MacroCell::onDelete(cocos2d::CCObject*)::$_0, std::__ndk1::allocator<MacroCell::onDelete(cocos2d::CCObject*)::$_0>, void (FLAlertLayer*, bool)>::destroy_deallocate()
PUBLIC 1495d4 0 std::__ndk1::__function::__func<MacroCell::onDelete(cocos2d::CCObject*)::$_0, std::__ndk1::allocator<MacroCell::onDelete(cocos2d::CCObject*)::$_0>, void (FLAlertLayer*, bool)>::operator()(FLAlertLayer*&&, bool&&)
PUBLIC 1495ec 0 std::__ndk1::__function::__func<MacroCell::onDelete(cocos2d::CCObject*)::$_0, std::__ndk1::allocator<MacroCell::onDelete(cocos2d::CCObject*)::$_0>, void (FLAlertLayer*, bool)>::target(std::type_info const&) const
PUBLIC 149608 0 std::__ndk1::__function::__func<MacroCell::onDelete(cocos2d::CCObject*)::$_0, std::__ndk1::allocator<MacroCell::onDelete(cocos2d::CCObject*)::$_0>, void (FLAlertLayer*, bool)>::target_type() const
PUBLIC 149614 0 geode::Popup<geode::Popup<>*, geode::Popup<>*, bool>::CloseEvent::~CloseEvent()
PUBLIC 149674 0 geode::Popup<geode::Popup<>*, geode::Popup<>*, bool>::CloseEvent::~CloseEvent()
PUBLIC 1496e4 0 std::__ndk1::__shared_ptr_emplace<geode::Popup<geode::Popup<>*, geode::Popup<>*, bool>::CloseEvent::Impl, std::__ndk1::allocator<geode::Popup<geode::Popup<>*, geode::Popup<>*, bool>::CloseEvent::Impl> >::~__shared_ptr_emplace()
PUBLIC 1496f4 0 std::__ndk1::__shared_ptr_emplace<geode::Popup<geode::Popup<>*, geode::Popup<>*, bool>::CloseEvent::Impl, std::__ndk1::allocator<geode::Popup<geode::Popup<>*, geode::Popup<>*, bool>::CloseEvent::Impl> >::~__shared_ptr_emplace()
PUBLIC 149724 0 std::__ndk1::__shared_ptr_emplace<geode::Popup<geode::Popup<>*, geode::Popup<>*, bool>::CloseEvent::Impl, std::__ndk1::allocator<geode::Popup<geode::Popup<>*, geode::Popup<>*, bool>::CloseEvent::Impl> >::__on_zero_shared()
PUBLIC 149728 0 std::__ndk1::__shared_ptr_emplace<geode::Popup<geode::Popup<>*, geode::Popup<>*, bool>::CloseEvent::Impl, std::__ndk1::allocator<geode::Popup<geode::Popup<>*, geode::Popup<>*, bool>::CloseEvent::Impl> >::__on_zero_shared_weak()
PUBLIC 14972c 0 __cxx_global_array_dtor
PUBLIC 149760 0 __cxx_global_array_dtor.10
PUBLIC 149840 0 _GLOBAL__sub_I_clickbot_layer.cpp
PUBLIC 149f48 0 ClickbotLayer::updateLabels()
PUBLIC 14a2c8 0 ClickbotLayer::setup()
PUBLIC 14c680 0 ClickbotLayer::openClickSettings(cocos2d::CCObject*)
PUBLIC 14ccb4 0 ClickbotLayer::updateVolume(cocos2d::CCObject*)
PUBLIC 14cf20 0 ClickbotLayer::updatePitch(cocos2d::CCObject*)
PUBLIC 14d4e4 0 ClickSettingsLayer::setup(std::__ndk1::basic_string<char, std::__ndk1::char_traits<char>, std::__ndk1::allocator<char> >, geode::Popup<>*)
PUBLIC 14e468 0 ClickSettingsLayer::onSelectFile(cocos2d::CCObject*)
PUBLIC 14eb44 0 ClickSettingsLayer::updateVolume(cocos2d::CCObject*)
PUBLIC 14ed34 0 ClickSettingsLayer::updatePitch(cocos2d::CCObject*)
PUBLIC 14f274 0 ClickSettingsLayer::onDisable(cocos2d::CCObject*)
PUBLIC 14f284 0 ClickSettingsLayer::onRestore(cocos2d::CCObject*)
PUBLIC 14f710 0 ClickSettingsLayer::saveSettings()
PUBLIC 14f7e4 0 ClickbotLayer::~ClickbotLayer()
PUBLIC 14f89c 0 ClickbotLayer::~ClickbotLayer()
PUBLIC 14f95c 0 {virtual override thunk({offset(-320)}, ClickbotLayer::~ClickbotLayer())}
PUBLIC 14fa18 0 {virtual override thunk({offset(-320)}, ClickbotLayer::~ClickbotLayer())}
PUBLIC 14fadc 0 ClickSettingsLayer::~ClickSettingsLayer()
PUBLIC 14fba4 0 ClickSettingsLayer::~ClickSettingsLayer()
PUBLIC 14fc74 0 geode::Popup<std::__ndk1::basic_string<char, std::__ndk1::char_traits<char>, std::__ndk1::allocator<char> >, geode::Popup<>*>::registerWithTouchDispatcher()
PUBLIC 14fca0 0 geode::Popup<std::__ndk1::basic_string<char, std::__ndk1::char_traits<char>, std::__ndk1::allocator<char> >, geode::Popup<>*>::keyDown(cocos2d::enumKeyCodes)
PUBLIC 14fcc8 0 geode::Popup<std::__ndk1::basic_string<char, std::__ndk1::char_traits<char>, std::__ndk1::allocator<char> >, geode::Popup<>*>::onClose(cocos2d::CCObject*)
PUBLIC 14fe10 0 {virtual override thunk({offset(-320)}, ClickSettingsLayer::~ClickSettingsLayer())}
PUBLIC 14fedc 0 {virtual override thunk({offset(-320)}, ClickSettingsLayer::~ClickSettingsLayer())}
PUBLIC 14fee4 0 {virtual override thunk({offset(-344)}, geode::Popup<std::__ndk1::basic_string<char, std::__ndk1::char_traits<char>, std::__ndk1::allocator<char> >, geode::Popup<>*>::keyDown(cocos2d::enumKeyCodes))}
PUBLIC 14ff10 0 geode::Popup<std::__ndk1::basic_string<char, std::__ndk1::char_traits<char>, std::__ndk1::allocator<char> >, geode::Popup<>*>::~Popup()
PUBLIC 14ff7c 0 geode::Popup<std::__ndk1::basic_string<char, std::__ndk1::char_traits<char>, std::__ndk1::allocator<char> >, geode::Popup<>*>::~Popup()
PUBLIC 14ff80 0 {virtual override thunk({offset(-320)}, geode::Popup<std::__ndk1::basic_string<char, std::__ndk1::char_traits<char>, std::__ndk1::allocator<char> >, geode::Popup<>*>::~Popup())}
PUBLIC 14ffec 0 {virtual override thunk({offset(-320)}, geode::Popup<std::__ndk1::basic_string<char, std::__ndk1::char_traits<char>, std::__ndk1::allocator<char> >, geode::Popup<>*>::~Popup())}
PUBLIC 14fff0 0 std::__ndk1::__function::__func<geode::Task<geode::Result<std::__ndk1::__fs::filesystem::path, std::__ndk1::basic_string<char, std::__ndk1::char_traits<char>, std::__ndk1::allocator<char> > >, std::__ndk1::monostate>::listen<ClickSettingsLayer::onSelectFile(cocos2d::CCObject*)::$_0, geode::Task<geode::Result<std::__ndk1::__fs::filesystem::path, std::__ndk1::basic_string<char, std::__ndk1::char_traits<char>, std::__ndk1::allocator<char> > >, std::__ndk1::monostate>::listen<ClickSettingsLayer::onSelectFile(cocos2d::CCObject*)::$_0>(ClickSettingsLayer::onSelectFile(cocos2d::CCObject*)::$_0&&) const::{lambda(auto:1 const&)#1}, geode::Task<geode::Result<std::__ndk1::__fs::filesystem::path, std::__ndk1::basic_string<char, std::__ndk1::char_traits<char>, std::__ndk1::allocator<char> > >, std::__ndk1::monostate>::listen<ClickSettingsLayer::onSelectFile(cocos2d::CCObject*)::$_0>(ClickSettingsLayer::onSelectFile(cocos2d::CCObject*)::$_0&&) const::{lambda()#1}>(ClickSettingsLayer::onSelectFile(cocos2d::CCObject*)::$_0&&, geode::Task<geode::Result<std::__ndk1::__fs::filesystem::path, std::__ndk1::basic_string<char, std::__ndk1::char_traits<char>, std::__ndk1::allocator<char> > >, std::__ndk1::monostate>::listen<ClickSettingsLayer::onSelectFile(cocos2d::CCObject*)::$_0>(ClickSettingsLayer::onSelectFile(cocos2d::CCObject*)::$_0&&) const::{lambda(auto:1 const&)#1}, geode::Task<geode::Result<std::__ndk1::__fs::filesystem::path, std::__ndk1::basic_string<char, std::__ndk1::char_traits<char>, std::__ndk1::allocator<char> > >, std::__ndk1::monostate>::listen<ClickSettingsLayer::onSelectFile(cocos2d::CCObject*)::$_0>(ClickSettingsLayer::onSelectFile(cocos2d::CCObject*)::$_0&&) const::{lambda()#1}&&) const::{lambda(geode::Task<geode::Result<std::__ndk1::__fs::filesystem::path, std::__ndk1::basic_string<char, std::__ndk1::char_traits<char>, std::__ndk1::allocator<char> > >, std::__ndk1::monostate>::Event*)#1}, std::__ndk1::allocator<geode::Task<geode::Result<std::__ndk1::__fs::filesystem::path, std::__ndk1::basic_string<char, std::__ndk1::char_traits<char>, std::__ndk1::allocator<char> > >, std::__ndk1::monostate>::listen<ClickSettingsLayer::onSelectFile(cocos2d::CCObject*)::$_0, geode::Task<geode::Result<std::__ndk1::__fs::filesystem::path, std::__ndk1::basic_string<char, std::__ndk1::char_traits<char>, std::__ndk1::allocator<char> > >, std::__ndk1::monostate>::listen<ClickSettingsLayer::onSelectFile(cocos2d::CCObject*)::$_0>(ClickSettingsLayer::onSelectFile(cocos2d::CCObject*)::$_0&&) const::{lambda(auto:1 const&)#1}, geode::Task<geode::Result<std::__ndk1::__fs::filesystem::path, std::__ndk1::basic_string<char, std::__ndk1::char_traits<char>, std::__ndk1::allocator<char> > >, std::__ndk1::monostate>::listen<ClickSettingsLayer::onSelectFile(cocos2d::CCObject*)::$_0>(ClickSettingsLayer::onSelectFile(cocos2d::CCObject*)::$_0&&) const::{lambda()#1}>(ClickSettingsLayer::onSelectFile(cocos2d::CCObject*)::$_0&&, geode::Task<geode::Result<std::__ndk1::__fs::filesystem::path, std::__ndk1::basic_string<char, std::__ndk1::char_traits<char>, std::__ndk1::allocator<char> > >, std::__ndk1::monostate>::listen<ClickSettingsLayer::onSelectFile(cocos2d::CCObject*)::$_0>(ClickSettingsLayer::onSelectFile(cocos2d::CCObject*)::$_0&&) const::{lambda(auto:1 const&)#1}, geode::Task<geode::Result<std::__ndk1::__fs::filesystem::path, std::__ndk1::basic_string<char, std::__ndk1::char_traits<char>, std::__ndk1::allocator<char> > >, std::__ndk1::monostate>::listen<ClickSettingsLayer::onSelectFile(cocos2d::CCObject*)::$_0>(ClickSettingsLayer::onSelectFile(cocos2d::CCObject*)::$_0&&) const::{lambda()#1}&&) const::{lambda(geode::Task<geode::Result<std::__ndk1::__fs::filesystem::path, std::__ndk1::basic_string<char, std::__ndk1::char_traits<char>, std::__ndk1::allocator<char> > >, std::__ndk1::monostate>::Event*)#1}>, void (geode::Task<geode::Result<std::__ndk1::__fs::filesystem::path, std::__ndk1::basic_string<char, std::__ndk1::char_traits<char>, std::__ndk1::allocator<char> > >, std::__ndk1::monostate>::Event*)>::~__func()
PUBLIC 14fff4 0 std::__ndk1::__function::__func<geode::Task<geode::Result<std::__ndk1::__fs::filesystem::path, std::__ndk1::basic_string<char, std::__ndk1::char_traits<char>, std::__ndk1::allocator<char> > >, std::__ndk1::monostate>::listen<ClickSettingsLayer::onSelectFile(cocos2d::CCObject*)::$_0, geode::Task<geode::Result<std::__ndk1::__fs::filesystem::path, std::__ndk1::basic_string<char, std::__ndk1::char_traits<char>, std::__ndk1::allocator<char> > >, std::__ndk1::monostate>::listen<ClickSettingsLayer::onSelectFile(cocos2d::CCObject*)::$_0>(ClickSettingsLayer::onSelectFile(cocos2d::CCObject*)::$_0&&) const::{lambda(auto:1 const&)#1}, geode::Task<geode::Result<std::__ndk1::__fs::filesystem::path, std::__ndk1::basic_string<char, std::__ndk1::char_traits<char>, std::__ndk1::allocator<char> > >, std::__ndk1::monostate>::listen<ClickSettingsLayer::onSelectFile(cocos2d::CCObject*)::$_0>(ClickSettingsLayer::onSelectFile(cocos2d::CCObject*)::$_0&&) const::{lambda()#1}>(ClickSettingsLayer::onSelectFile(cocos2d::CCObject*)::$_0&&, geode::Task<geode::Result<std::__ndk1::__fs::filesystem::path, std::__ndk1::basic_string<char, std::__ndk1::char_traits<char>, std::__ndk1::allocator<char> > >, std::__ndk1::monostate>::listen<ClickSettingsLayer::onSelectFile(cocos2d::CCObject*)::$_0>(ClickSettingsLayer::onSelectFile(cocos2d::CCObject*)::$_0&&) const::{lambda(auto:1 const&)#1}, geode::Task<geode::Result<std::__ndk1::__fs::filesystem::path, std::__ndk1::basic_string<char, std::__ndk1::char_traits<char>, std::__ndk1::allocator<char> > >, std::__ndk1::monostate>::listen<ClickSettingsLayer::onSelectFile(cocos2d::CCObject*)::$_0>(ClickSettingsLayer::onSelectFile(cocos2d::CCObject*)::$_0&&) const::{lambda()#1}&&) const::{lambda(geode::Task<geode::Result<std::__ndk1::__fs::filesystem::path, std::__ndk1::basic_string<char, std::__ndk1::char_traits<char>, std::__ndk1::allocator<char> > >, std::__ndk1::monostate>::Event*)#1}, std::__ndk1::allocator<geode::Task<geode::Result<std::__ndk1::__fs::filesystem::path, std::__ndk1::basic_string<char, std::__ndk1::char_traits<char>, std::__ndk1::allocator<char> > >, std::__ndk1::monostate>::listen<ClickSettingsLayer::onSelectFile(cocos2d::CCObject*)::$_0, geode::Task<geode::Result<std::__ndk1::__fs::filesystem::path, std::__ndk1::basic_string<char, std::__ndk1::char_traits<char>, std::__ndk1::allocator<char> > >, std::__ndk1::monostate>::listen<ClickSettingsLayer::onSelectFile(cocos2d::CCObject*)::$_0>(ClickSettingsLayer::onSelectFile(cocos2d::CCObject*)::$_0&&) const::{lambda(auto:1 const&)#1}, geode::Task<geode::Result<std::__ndk1::__fs::filesystem::path, std::__ndk1::basic_string<char, std::__ndk1::char_traits<char>, std::__ndk1::allocator<char> > >, std::__ndk1::monostate>::listen<ClickSettingsLayer::onSelectFile(cocos2d::CCObject*)::$_0>(ClickSettingsLayer::onSelectFile(cocos2d::CCObject*)::$_0&&) const::{lambda()#1}>(ClickSettingsLayer::onSelectFile(cocos2d::CCObject*)::$_0&&, geode::Task<geode::Result<std::__ndk1::__fs::filesystem::path, std::__ndk1::basic_string<char, std::__ndk1::char_traits<char>, std::__ndk1::allocator<char> > >, std::__ndk1::monostate>::listen<ClickSettingsLayer::onSelectFile(cocos2d::CCObject*)::$_0>(ClickSettingsLayer::onSelectFile(cocos2d::CCObject*)::$_0&&) const::{lambda(auto:1 const&)#1}, geode::Task<geode::Result<std::__ndk1::__fs::filesystem::path, std::__ndk1::basic_string<char, std::__ndk1::char_traits<char>, std::__ndk1::allocator<char> > >, std::__ndk1::monostate>::listen<ClickSettingsLayer::onSelectFile(cocos2d::CCObject*)::$_0>(ClickSettingsLayer::onSelectFile(cocos2d::CCObject*)::$_0&&) const::{lambda()#1}&&) const::{lambda(geode::Task<geode::Result<std::__ndk1::__fs::filesystem::path, std::__ndk1::basic_string<char, std::__ndk1::char_traits<char>, std::__ndk1::allocator<char> > >, std::__ndk1::monostate>::Event*)#1}>, void (geode::Task<geode::Result<std::__ndk1::__fs::filesystem::path, std::__ndk1::basic_string<char, std::__ndk1::char_traits<char>, std::__ndk1::allocator<char> > >, std::__ndk1::monostate>::Event*)>::__clone() const
PUBLIC 150034 0 _ZNKSt6__ndk110__function6__funcIZNK5geode4TaskINS2_6ResultINS_4__fs10filesystem4pathENS_12basic_stringIcNS_11char_traitsIcEENS_9allocatorIcEEEEEENS_9monostateEE6listenIZN18ClickSettingsLayer12onSelectFileEPN7cocos2d8CCObjectEE3$_0ZNKSG_6listenISM_EEvOT_EUlRKSO_E_ZNKSN_ISM_EEvSP_EUlvE_EEvSP_OT0_OT1_EUlPNSG_5EventEE_NSB_IS10_EEFvSZ_EE7__cloneEPNS0_6__baseIS12_EE
PUBLIC 150054 0 std::__ndk1::__function::__func<geode::Task<geode::Result<std::__ndk1::__fs::filesystem::path, std::__ndk1::basic_string<char, std::__ndk1::char_traits<char>, std::__ndk1::allocator<char> > >, std::__ndk1::monostate>::listen<ClickSettingsLayer::onSelectFile(cocos2d::CCObject*)::$_0, geode::Task<geode::Result<std::__ndk1::__fs::filesystem::path, std::__ndk1::basic_string<char, std::__ndk1::char_traits<char>, std::__ndk1::allocator<char> > >, std::__ndk1::monostate>::listen<ClickSettingsLayer::onSelectFile(cocos2d::CCObject*)::$_0>(ClickSettingsLayer::onSelectFile(cocos2d::CCObject*)::$_0&&) const::{lambda(auto:1 const&)#1}, geode::Task<geode::Result<std::__ndk1::__fs::filesystem::path, std::__ndk1::basic_string<char, std::__ndk1::char_traits<char>, std::__ndk1::allocator<char> > >, std::__ndk1::monostate>::listen<ClickSettingsLayer::onSelectFile(cocos2d::CCObject*)::$_0>(ClickSettingsLayer::onSelectFile(cocos2d::CCObject*)::$_0&&) const::{lambda()#1}>(ClickSettingsLayer::onSelectFile(cocos2d::CCObject*)::$_0&&, geode::Task<geode::Result<std::__ndk1::__fs::filesystem::path, std::__ndk1::basic_string<char, std::__ndk1::char_traits<char>, std::__ndk1::allocator<char> > >, std::__ndk1::monostate>::listen<ClickSettingsLayer::onSelectFile(cocos2d::CCObject*)::$_0>(ClickSettingsLayer::onSelectFile(cocos2d::CCObject*)::$_0&&) const::{lambda(auto:1 const&)#1}, geode::Task<geode::Result<std::__ndk1::__fs::filesystem::path, std::__ndk1::basic_string<char, std::__ndk1::char_traits<char>, std::__ndk1::allocator<char> > >, std::__ndk1::monostate>::listen<ClickSettingsLayer::onSelectFile(cocos2d::CCObject*)::$_0>(ClickSettingsLayer::onSelectFile(cocos2d::CCObject*)::$_0&&) const::{lambda()#1}&&) const::{lambda(geode::Task<geode::Result<std::__ndk1::__fs::filesystem::path, std::__ndk1::basic_string<char, std::__ndk1::char_traits<char>, std::__ndk1::allocator<char> > >, std::__ndk1::monostate>::Event*)#1}, std::__ndk1::allocator<geode::Task<geode::Result<std::__ndk1::__fs::filesystem::path, std::__ndk1::basic_string<char, std::__ndk1::char_traits<char>, std::__ndk1::allocator<char> > >, std::__ndk1::monostate>::listen<ClickSettingsLayer::onSelectFile(cocos2d::CCObject*)::$_0, geode::Task<geode::Result<std::__ndk1::__fs::filesystem::path, std::__ndk1::basic_string<char, std::__ndk1::char_traits<char>, std::__ndk1::allocator<char> > >, std::__ndk1::monostate>::listen<ClickSettingsLayer::onSelectFile(cocos2d::CCObject*)::$_0>(ClickSettingsLayer::onSelectFile(cocos2d::CCObject*)::$_0&&) const::{lambda(auto:1 const&)#1}, geode::Task<geode::Result<std::__ndk1::__fs::filesystem::path, std::__ndk1::basic_string<char, std::__ndk1::char_traits<char>, std::__ndk1::allocator<char> > >, std::__ndk1::monostate>::listen<ClickSettingsLayer::onSelectFile(cocos2d::CCObject*)::$_0>(ClickSettingsLayer::onSelectFile(cocos2d::CCObject*)::$_0&&) const::{lambda()#1}>(ClickSettingsLayer::onSelectFile(cocos2d::CCObject*)::$_0&&, geode::Task<geode::Result<std::__ndk1::__fs::filesystem::path, std::__ndk1::basic_string<char, std::__ndk1::char_traits<char>, std::__ndk1::allocator<char> > >, std::__ndk1::monostate>::listen<ClickSettingsLayer::onSelectFile(cocos2d::CCObject*)::$_0>(ClickSettingsLayer::onSelectFile(cocos2d::CCObject*)::$_0&&) const::{lambda(auto:1 const&)#1}, geode::Task<geode::Result<std::__ndk1::__fs::filesystem::path, std::__ndk1::basic_string<char, std::__ndk1::char_traits<char>, std::__ndk1::allocator<char> > >, std::__ndk1::monostate>::listen<ClickSettingsLayer::onSelectFile(cocos2d::CCObject*)::$_0>(ClickSettingsLayer::onSelectFile(cocos2d::CCObject*)::$_0&&) const::{lambda()#1}&&) const::{lambda(geode::Task<geode::Result<std::__ndk1::__fs::filesystem::path, std::__ndk1::basic_string<char, std::__ndk1::char_traits<char>, std::__ndk1::allocator<char> > >, std::__ndk1::monostate>::Event*)#1}>, void (geode::Task<geode::Result<std::__ndk1::__fs::filesystem::path, std::__ndk1::basic_string<char, std::__ndk1::char_traits<char>, std::__ndk1::allocator<char> > >, std::__ndk1::monostate>::Event*)>::destroy()
PUBLIC 150058 0 std::__ndk1::__function::__func<geode::Task<geode::Result<std::__ndk1::__fs::filesystem::path, std::__ndk1::basic_string<char, std::__ndk1::char_traits<char>, std::__ndk1::allocator<char> > >, std::__ndk1::monostate>::listen<ClickSettingsLayer::onSelectFile(cocos2d::CCObject*)::$_0, geode::Task<geode::Result<std::__ndk1::__fs::filesystem::path, std::__ndk1::basic_string<char, std::__ndk1::char_traits<char>, std::__ndk1::allocator<char> > >, std::__ndk1::monostate>::listen<ClickSettingsLayer::onSelectFile(cocos2d::CCObject*)::$_0>(ClickSettingsLayer::onSelectFile(cocos2d::CCObject*)::$_0&&) const::{lambda(auto:1 const&)#1}, geode::Task<geode::Result<std::__ndk1::__fs::filesystem::path, std::__ndk1::basic_string<char, std::__ndk1::char_traits<char>, std::__ndk1::allocator<char> > >, std::__ndk1::monostate>::listen<ClickSettingsLayer::onSelectFile(cocos2d::CCObject*)::$_0>(ClickSettingsLayer::onSelectFile(cocos2d::CCObject*)::$_0&&) const::{lambda()#1}>(ClickSettingsLayer::onSelectFile(cocos2d::CCObject*)::$_0&&, geode::Task<geode::Result<std::__ndk1::__fs::filesystem::path, std::__ndk1::basic_string<char, std::__ndk1::char_traits<char>, std::__ndk1::allocator<char> > >, std::__ndk1::monostate>::listen<ClickSettingsLayer::onSelectFile(cocos2d::CCObject*)::$_0>(ClickSettingsLayer::onSelectFile(cocos2d::CCObject*)::$_0&&) const::{lambda(auto:1 const&)#1}, geode::Task<geode::Result<std::__ndk1::__fs::filesystem::path, std::__ndk1::basic_string<char, std::__ndk1::char_traits<char>, std::__ndk1::allocator<char> > >, std::__ndk1::monostate>::listen<ClickSettingsLayer::onSelectFile(cocos2d::CCObject*)::$_0>(ClickSettingsLayer::onSelectFile(cocos2d::CCObject*)::$_0&&) const::{lambda()#1}&&) const::{lambda(geode::Task<geode::Result<std::__ndk1::__fs::filesystem::path, std::__ndk1::basic_string<char, std::__ndk1::char_traits<char>, std::__ndk1::allocator<char> > >, std::__ndk1::monostate>::Event*)#1}, std::__ndk1::allocator<geode::Task<geode::Result<std::__ndk1::__fs::filesystem::path, std::__ndk1::basic_string<char, std::__ndk1::char_traits<char>, std::__ndk1::allocator<char> > >, std::__ndk1::monostate>::listen<ClickSettingsLayer::onSelectFile(cocos2d::CCObject*)::$_0, geode::Task<geode::Result<std::__ndk1::__fs::filesystem::path, std::__ndk1::basic_string<char, std::__ndk1::char_traits<char>, std::__ndk1::allocator<char> > >, std::__ndk1::monostate>::listen<ClickSettingsLayer::onSelectFile(cocos2d::CCObject*)::$_0>(ClickSettingsLayer::onSelectFile(cocos2d::CCObject*)::$_0&&) const::{lambda(auto:1 const&)#1}, geode::Task<geode::Result<std::__ndk1::__fs::filesystem::path, std::__ndk1::basic_string<char, std::__ndk1::char_traits<char>, std::__ndk1::allocator<char> > >, std::__ndk1::monostate>::listen<ClickSettingsLayer::onSelectFile(cocos2d::CCObject*)::$_0>(ClickSettingsLayer::onSelectFile(cocos2d::CCObject*)::$_0&&) const::{lambda()#1}>(ClickSettingsLayer::onSelectFile(cocos2d::CCObject*)::$_0&&, geode::Task<geode::Result<std::__ndk1::__fs::filesystem::path, std::__ndk1::basic_string<char, std::__ndk1::char_traits<char>, std::__ndk1::allocator<char> > >, std::__ndk1::monostate>::listen<ClickSettingsLayer::onSelectFile(cocos2d::CCObject*)::$_0>(ClickSettingsLayer::onSelectFile(cocos2d::CCObject*)::$_0&&) const::{lambda(auto:1 const&)#1}, geode::Task<geode::Result<std::__ndk1::__fs::filesystem::path, std::__ndk1::basic_string<char, std::__ndk1::char_traits<char>, std::__ndk1::allocator<char> > >, std::__ndk1::monostate>::listen<ClickSettingsLayer::onSelectFile(cocos2d::CCObject*)::$_0>(ClickSettingsLayer::onSelectFile(cocos2d::CCObject*)::$_0&&) const::{lambda()#1}&&) const::{lambda(geode::Task<geode::Result<std::__ndk1::__fs::filesystem::path, std::__ndk1::basic_string<char, std::__ndk1::char_traits<char>, std::__ndk1::allocator<char> > >, std::__ndk1::monostate>::Event*)#1}>, void (geode::Task<geode::Result<std::__ndk1::__fs::filesystem::path, std::__ndk1::basic_string<char, std::__ndk1::char_traits<char>, std::__ndk1::allocator<char> > >, std::__ndk1::monostate>::Event*)>::destroy_deallocate()
PUBLIC 15005c 0 _ZNSt6__ndk110__function6__funcIZNK5geode4TaskINS2_6ResultINS_4__fs10filesystem4pathENS_12basic_stringIcNS_11char_traitsIcEENS_9allocatorIcEEEEEENS_9monostateEE6listenIZN18ClickSettingsLayer12onSelectFileEPN7cocos2d8CCObjectEE3$_0ZNKSG_6listenISM_EEvOT_EUlRKSO_E_ZNKSN_ISM_EEvSP_EUlvE_EEvSP_OT0_OT1_EUlPNSG_5EventEE_NSB_IS10_EEFvSZ_EEclEOSZ_
PUBLIC 1503c0 0 std::__ndk1::__function::__func<geode::Task<geode::Result<std::__ndk1::__fs::filesystem::path, std::__ndk1::basic_string<char, std::__ndk1::char_traits<char>, std::__ndk1::allocator<char> > >, std::__ndk1::monostate>::listen<ClickSettingsLayer::onSelectFile(cocos2d::CCObject*)::$_0, geode::Task<geode::Result<std::__ndk1::__fs::filesystem::path, std::__ndk1::basic_string<char, std::__ndk1::char_traits<char>, std::__ndk1::allocator<char> > >, std::__ndk1::monostate>::listen<ClickSettingsLayer::onSelectFile(cocos2d::CCObject*)::$_0>(ClickSettingsLayer::onSelectFile(cocos2d::CCObject*)::$_0&&) const::{lambda(auto:1 const&)#1}, geode::Task<geode::Result<std::__ndk1::__fs::filesystem::path, std::__ndk1::basic_string<char, std::__ndk1::char_traits<char>, std::__ndk1::allocator<char> > >, std::__ndk1::monostate>::listen<ClickSettingsLayer::onSelectFile(cocos2d::CCObject*)::$_0>(ClickSettingsLayer::onSelectFile(cocos2d::CCObject*)::$_0&&) const::{lambda()#1}>(ClickSettingsLayer::onSelectFile(cocos2d::CCObject*)::$_0&&, geode::Task<geode::Result<std::__ndk1::__fs::filesystem::path, std::__ndk1::basic_string<char, std::__ndk1::char_traits<char>, std::__ndk1::allocator<char> > >, std::__ndk1::monostate>::listen<ClickSettingsLayer::onSelectFile(cocos2d::CCObject*)::$_0>(ClickSettingsLayer::onSelectFile(cocos2d::CCObject*)::$_0&&) const::{lambda(auto:1 const&)#1}, geode::Task<geode::Result<std::__ndk1::__fs::filesystem::path, std::__ndk1::basic_string<char, std::__ndk1::char_traits<char>, std::__ndk1::allocator<char> > >, std::__ndk1::monostate>::listen<ClickSettingsLayer::onSelectFile(cocos2d::CCObject*)::$_0>(ClickSettingsLayer::onSelectFile(cocos2d::CCObject*)::$_0&&) const::{lambda()#1}&&) const::{lambda(geode::Task<geode::Result<std::__ndk1::__fs::filesystem::path, std::__ndk1::basic_string<char, std::__ndk1::char_traits<char>, std::__ndk1::allocator<char> > >, std::__ndk1::monostate>::Event*)#1}, std::__ndk1::allocator<geode::Task<geode::Result<std::__ndk1::__fs::filesystem::path, std::__ndk1::basic_string<char, std::__ndk1::char_traits<char>, std::__ndk1::allocator<char> > >, std::__ndk1::monostate>::listen<ClickSettingsLayer::onSelectFile(cocos2d::CCObject*)::$_0, geode::Task<geode::Result<std::__ndk1::__fs::filesystem::path, std::__ndk1::basic_string<char, std::__ndk1::char_traits<char>, std::__ndk1::allocator<char> > >, std::__ndk1::monostate>::listen<ClickSettingsLayer::onSelectFile(cocos2d::CCObject*)::$_0>(ClickSettingsLayer::onSelectFile(cocos2d::CCObject*)::$_0&&) const::{lambda(auto:1 const&)#1}, geode::Task<geode::Result<std::__ndk1::__fs::filesystem::path, std::__ndk1::basic_string<char, std::__ndk1::char_traits<char>, std::__ndk1::allocator<char> > >, std::__ndk1::monostate>::listen<ClickSettingsLayer::onSelectFile(cocos2d::CCObject*)::$_0>(ClickSettingsLayer::onSelectFile(cocos2d::CCObject*)::$_0&&) const::{lambda()#1}>(ClickSettingsLayer::onSelectFile(cocos2d::CCObject*)::$_0&&, geode::Task<geode::Result<std::__ndk1::__fs::filesystem::path, std::__ndk1::basic_string<char, std::__ndk1::char_traits<char>, std::__ndk1::allocator<char> > >, std::__ndk1::monostate>::listen<ClickSettingsLayer::onSelectFile(cocos2d::CCObject*)::$_0>(ClickSettingsLayer::onSelectFile(cocos2d::CCObject*)::$_0&&) const::{lambda(auto:1 const&)#1}, geode::Task<geode::Result<std::__ndk1::__fs::filesystem::path, std::__ndk1::basic_string<char, std::__ndk1::char_traits<char>, std::__ndk1::allocator<char> > >, std::__ndk1::monostate>::listen<ClickSettingsLayer::onSelectFile(cocos2d::CCObject*)::$_0>(ClickSettingsLayer::onSelectFile(cocos2d::CCObject*)::$_0&&) const::{lambda()#1}&&) const::{lambda(geode::Task<geode::Result<std::__ndk1::__fs::filesystem::path, std::__ndk1::basic_string<char, std::__ndk1::char_traits<char>, std::__ndk1::allocator<char> > >, std::__ndk1::monostate>::Event*)#1}>, void (geode::Task<geode::Result<std::__ndk1::__fs::filesystem::path, std::__ndk1::basic_string<char, std::__ndk1::char_traits<char>, std::__ndk1::allocator<char> > >, std::__ndk1::monostate>::Event*)>::target(std::type_info const&) const
PUBLIC 1503dc 0 std::__ndk1::__function::__func<geode::Task<geode::Result<std::__ndk1::__fs::filesystem::path, std::__ndk1::basic_string<char, std::__ndk1::char_traits<char>, std::__ndk1::allocator<char> > >, std::__ndk1::monostate>::listen<ClickSettingsLayer::onSelectFile(cocos2d::CCObject*)::$_0, geode::Task<geode::Result<std::__ndk1::__fs::filesystem::path, std::__ndk1::basic_string<char, std::__ndk1::char_traits<char>, std::__ndk1::allocator<char> > >, std::__ndk1::monostate>::listen<ClickSettingsLayer::onSelectFile(cocos2d::CCObject*)::$_0>(ClickSettingsLayer::onSelectFile(cocos2d::CCObject*)::$_0&&) const::{lambda(auto:1 const&)#1}, geode::Task<geode::Result<std::__ndk1::__fs::filesystem::path, std::__ndk1::basic_string<char, std::__ndk1::char_traits<char>, std::__ndk1::allocator<char> > >, std::__ndk1::monostate>::listen<ClickSettingsLayer::onSelectFile(cocos2d::CCObject*)::$_0>(ClickSettingsLayer::onSelectFile(cocos2d::CCObject*)::$_0&&) const::{lambda()#1}>(ClickSettingsLayer::onSelectFile(cocos2d::CCObject*)::$_0&&, geode::Task<geode::Result<std::__ndk1::__fs::filesystem::path, std::__ndk1::basic_string<char, std::__ndk1::char_traits<char>, std::__ndk1::allocator<char> > >, std::__ndk1::monostate>::listen<ClickSettingsLayer::onSelectFile(cocos2d::CCObject*)::$_0>(ClickSettingsLayer::onSelectFile(cocos2d::CCObject*)::$_0&&) const::{lambda(auto:1 const&)#1}, geode::Task<geode::Result<std::__ndk1::__fs::filesystem::path, std::__ndk1::basic_string<char, std::__ndk1::char_traits<char>, std::__ndk1::allocator<char> > >, std::__ndk1::monostate>::listen<ClickSettingsLayer::onSelectFile(cocos2d::CCObject*)::$_0>(ClickSettingsLayer::onSelectFile(cocos2d::CCObject*)::$_0&&) const::{lambda()#1}&&) const::{lambda(geode::Task<geode::Result<std::__ndk1::__fs::filesystem::path, std::__ndk1::basic_string<char, std::__ndk1::char_traits<char>, std::__ndk1::allocator<char> > >, std::__ndk1::monostate>::Event*)#1}, std::__ndk1::allocator<geode::Task<geode::Result<std::__ndk1::__fs::filesystem::path, std::__ndk1::basic_string<char, std::__ndk1::char_traits<char>, std::__ndk1::allocator<char> > >, std::__ndk1::monostate>::listen<ClickSettingsLayer::onSelectFile(cocos2d::CCObject*)::$_0, geode::Task<geode::Result<std::__ndk1::__fs::filesystem::path, std::__ndk1::basic_string<char, std::__ndk1::char_traits<char>, std::__ndk1::allocator<char> > >, std::__ndk1::monostate>::listen<ClickSettingsLayer::onSelectFile(cocos2d::CCObject*)::$_0>(ClickSettingsLayer::onSelectFile(cocos2d::CCObject*)::$_0&&) const::{lambda(auto:1 const&)#1}, geode::Task<geode::Result<std::__ndk1::__fs::filesystem::path, std::__ndk1::basic_string<char, std::__ndk1::char_traits<char>, std::__ndk1::allocator<char> > >, std::__ndk1::monostate>::listen<ClickSettingsLayer::onSelectFile(cocos2d::CCObject*)::$_0>(ClickSettingsLayer::onSelectFile(cocos2d::CCObject*)::$_0&&) const::{lambda()#1}>(ClickSettingsLayer::onSelectFile(cocos2d::CCObject*)::$_0&&, geode::Task<geode::Result<std::__ndk1::__fs::filesystem::path, std::__ndk1::basic_string<char, std::__ndk1::char_traits<char>, std::__ndk1::allocator<char> > >, std::__ndk1::monostate>::listen<ClickSettingsLayer::onSelectFile(cocos2d::CCObject*)::$_0>(ClickSettingsLayer::onSelectFile(cocos2d::CCObject*)::$_0&&) const::{lambda(auto:1 const&)#1}, geode::Task<geode::Result<std::__ndk1::__fs::filesystem::path, std::__ndk1::basic_string<char, std::__ndk1::char_traits<char>, std::__ndk1::allocator<char> > >, std::__ndk1::monostate>::listen<ClickSettingsLayer::onSelectFile(cocos2d::CCObject*)::$_0>(ClickSettingsLayer::onSelectFile(cocos2d::CCObject*)::$_0&&) const::{lambda()#1}&&) const::{lambda(geode::Task<geode::Result<std::__ndk1::__fs::filesystem::path, std::__ndk1::basic_string<char, std::__ndk1::char_traits<char>, std::__ndk1::allocator<char> > >, std::__ndk1::monostate>::Event*)#1}>, void (geode::Task<geode::Result<std::__ndk1::__fs::filesystem::path, std::__ndk1::basic_string<char, std::__ndk1::char_traits<char>, std::__ndk1::allocator<char> > >, std::__ndk1::monostate>::Event*)>::target_type() const
PUBLIC 1503e8 0 _ZNSt6__ndk110__function6__funcIZZNK5geode4TaskINS2_6ResultINS_4__fs10filesystem4pathENS_12basic_stringIcNS_11char_traitsIcEENS_9allocatorIcEEEEEENS_9monostateEE6listenIZN18ClickSettingsLayer12onSelectFileEPN7cocos2d8CCObjectEE3$_0ZNKSG_6listenISM_EEvOT_EUlRKSO_E_ZNKSN_ISM_EEvSP_EUlvE_EEvSP_OT0_OT1_ENUlPNSG_5EventEE_clESZ_EUlvE_NSB_IS11_EEFvvEED0Ev
PUBLIC 1503ec 0 _ZNKSt6__ndk110__function6__funcIZZNK5geode4TaskINS2_6ResultINS_4__fs10filesystem4pathENS_12basic_stringIcNS_11char_traitsIcEENS_9allocatorIcEEEEEENS_9monostateEE6listenIZN18ClickSettingsLayer12onSelectFileEPN7cocos2d8CCObjectEE3$_0ZNKSG_6listenISM_EEvOT_EUlRKSO_E_ZNKSN_ISM_EEvSP_EUlvE_EEvSP_OT0_OT1_ENUlPNSG_5EventEE_clESZ_EUlvE_NSB_IS11_EEFvvEE7__cloneEv
PUBLIC 150420 0 _ZNKSt6__ndk110__function6__funcIZZNK5geode4TaskINS2_6ResultINS_4__fs10filesystem4pathENS_12basic_stringIcNS_11char_traitsIcEENS_9allocatorIcEEEEEENS_9monostateEE6listenIZN18ClickSettingsLayer12onSelectFileEPN7cocos2d8CCObjectEE3$_0ZNKSG_6listenISM_EEvOT_EUlRKSO_E_ZNKSN_ISM_EEvSP_EUlvE_EEvSP_OT0_OT1_ENUlPNSG_5EventEE_clESZ_EUlvE_NSB_IS11_EEFvvEE7__cloneEPNS0_6__baseIS13_EE
PUBLIC 150434 0 _ZNSt6__ndk110__function6__funcIZZNK5geode4TaskINS2_6ResultINS_4__fs10filesystem4pathENS_12basic_stringIcNS_11char_traitsIcEENS_9allocatorIcEEEEEENS_9monostateEE6listenIZN18ClickSettingsLayer12onSelectFileEPN7cocos2d8CCObjectEE3$_0ZNKSG_6listenISM_EEvOT_EUlRKSO_E_ZNKSN_ISM_EEvSP_EUlvE_EEvSP_OT0_OT1_ENUlPNSG_5EventEE_clESZ_EUlvE_NSB_IS11_EEFvvEE7destroyEv
PUBLIC 150438 0 _ZNSt6__ndk110__function6__funcIZZNK5geode4TaskINS2_6ResultINS_4__fs10filesystem4pathENS_12basic_stringIcNS_11char_traitsIcEENS_9allocatorIcEEEEEENS_9monostateEE6listenIZN18ClickSettingsLayer12onSelectFileEPN7cocos2d8CCObjectEE3$_0ZNKSG_6listenISM_EEvOT_EUlRKSO_E_ZNKSN_ISM_EEvSP_EUlvE_EEvSP_OT0_OT1_ENUlPNSG_5EventEE_clESZ_EUlvE_NSB_IS11_EEFvvEE18destroy_deallocateEv
PUBLIC 15043c 0 _ZNSt6__ndk110__function6__funcIZZNK5geode4TaskINS2_6ResultINS_4__fs10filesystem4pathENS_12basic_stringIcNS_11char_traitsIcEENS_9allocatorIcEEEEEENS_9monostateEE6listenIZN18ClickSettingsLayer12onSelectFileEPN7cocos2d8CCObjectEE3$_0ZNKSG_6listenISM_EEvOT_EUlRKSO_E_ZNKSN_ISM_EEvSP_EUlvE_EEvSP_OT0_OT1_ENUlPNSG_5EventEE_clESZ_EUlvE_NSB_IS11_EEFvvEEclEv
PUBLIC 150454 0 _ZNKSt6__ndk110__function6__funcIZZNK5geode4TaskINS2_6ResultINS_4__fs10filesystem4pathENS_12basic_stringIcNS_11char_traitsIcEENS_9allocatorIcEEEEEENS_9monostateEE6listenIZN18ClickSettingsLayer12onSelectFileEPN7cocos2d8CCObjectEE3$_0ZNKSG_6listenISM_EEvOT_EUlRKSO_E_ZNKSN_ISM_EEvSP_EUlvE_EEvSP_OT0_OT1_ENUlPNSG_5EventEE_clESZ_EUlvE_NSB_IS11_EEFvvEE6targetERKSt9type_info
PUBLIC 150470 0 _ZNKSt6__ndk110__function6__funcIZZNK5geode4TaskINS2_6ResultINS_4__fs10filesystem4pathENS_12basic_stringIcNS_11char_traitsIcEENS_9allocatorIcEEEEEENS_9monostateEE6listenIZN18ClickSettingsLayer12onSelectFileEPN7cocos2d8CCObjectEE3$_0ZNKSG_6listenISM_EEvOT_EUlRKSO_E_ZNKSN_ISM_EEvSP_EUlvE_EEvSP_OT0_OT1_ENUlPNSG_5EventEE_clESZ_EUlvE_NSB_IS11_EEFvvEE11target_typeEv
PUBLIC 15047c 0 geode::Popup<std::__ndk1::basic_string<char, std::__ndk1::char_traits<char>, std::__ndk1::allocator<char> >, geode::Popup<>*>::CloseEvent::~CloseEvent()
PUBLIC 1504dc 0 geode::Popup<std::__ndk1::basic_string<char, std::__ndk1::char_traits<char>, std::__ndk1::allocator<char> >, geode::Popup<>*>::CloseEvent::~CloseEvent()
PUBLIC 15054c 0 std::__ndk1::__shared_ptr_emplace<geode::Popup<std::__ndk1::basic_string<char, std::__ndk1::char_traits<char>, std::__ndk1::allocator<char> >, geode::Popup<>*>::CloseEvent::Impl, std::__ndk1::allocator<geode::Popup<std::__ndk1::basic_string<char, std::__ndk1::char_traits<char>, std::__ndk1::allocator<char> >, geode::Popup<>*>::CloseEvent::Impl> >::~__shared_ptr_emplace()
PUBLIC 15055c 0 std::__ndk1::__shared_ptr_emplace<geode::Popup<std::__ndk1::basic_string<char, std::__ndk1::char_traits<char>, std::__ndk1::allocator<char> >, geode::Popup<>*>::CloseEvent::Impl, std::__ndk1::allocator<geode::Popup<std::__ndk1::basic_string<char, std::__ndk1::char_traits<char>, std::__ndk1::allocator<char> >, geode::Popup<>*>::CloseEvent::Impl> >::~__shared_ptr_emplace()
PUBLIC 15058c 0 std::__ndk1::__shared_ptr_emplace<geode::Popup<std::__ndk1::basic_string<char, std::__ndk1::char_traits<char>, std::__ndk1::allocator<char> >, geode::Popup<>*>::CloseEvent::Impl, std::__ndk1::allocator<geode::Popup<std::__ndk1::basic_string<char, std::__ndk1::char_traits<char>, std::__ndk1::allocator<char> >, geode::Popup<>*>::CloseEvent::Impl> >::__on_zero_shared()
PUBLIC 150590 0 std::__ndk1::__shared_ptr_emplace<geode::Popup<std::__ndk1::basic_string<char, std::__ndk1::char_traits<char>, std::__ndk1::allocator<char> >, geode::Popup<>*>::CloseEvent::Impl, std::__ndk1::allocator<geode::Popup<std::__ndk1::basic_string<char, std::__ndk1::char_traits<char>, std::__ndk1::allocator<char> >, geode::Popup<>*>::CloseEvent::Impl> >::__on_zero_shared_weak()
PUBLIC 150594 0 __cxx_global_array_dtor
PUBLIC 1505c8 0 __cxx_global_array_dtor.10
PUBLIC 1506a8 0 _GLOBAL__sub_I_button_setting.cpp
PUBLIC 150a98 0 MyButtonSettingV3::createNode(float)
PUBLIC 150d94 0 std::__ndk1::shared_ptr<MyButtonSettingV3>::~shared_ptr[abi:ne180000]()
PUBLIC 150de4 0 MyButtonSettingV3::~MyButtonSettingV3()
PUBLIC 150e08 0 MyButtonSettingV3::load(matjson::Value const&)
PUBLIC 150e10 0 MyButtonSettingV3::save(matjson::Value&) const
PUBLIC 150e18 0 MyButtonSettingV3::isDefaultValue() const
PUBLIC 150e20 0 MyButtonSettingV3::reset()
PUBLIC 150e24 0 geode::SettingNodeV3::~SettingNodeV3()
PUBLIC 150e94 0 MyButtonSettingNodeV3::~MyButtonSettingNodeV3()
PUBLIC 150f14 0 MyButtonSettingNodeV3::updateState(cocos2d::CCNode*)
PUBLIC 150f18 0 MyButtonSettingNodeV3::onCommit()
PUBLIC 150f1c 0 MyButtonSettingNodeV3::onResetToDefault()
PUBLIC 150f20 0 MyButtonSettingNodeV3::hasUncommittedChanges() const
PUBLIC 150f28 0 MyButtonSettingNodeV3::hasNonDefaultValue() const
PUBLIC 150f30 0 MyButtonSettingNodeV3::onButton(cocos2d::CCObject*)
PUBLIC 150f94 0 std::__ndk1::__throw_bad_weak_ptr[abi:ne180000]()
PUBLIC 150fc8 0 MyButtonSettingV3::parse(std::__ndk1::basic_string<char, std::__ndk1::char_traits<char>, std::__ndk1::allocator<char> > const&, std::__ndk1::basic_string<char, std::__ndk1::char_traits<char>, std::__ndk1::allocator<char> > const&, matjson::Value const&)
PUBLIC 151370 0 std::__ndk1::__shared_ptr_emplace<MyButtonSettingV3, std::__ndk1::allocator<MyButtonSettingV3> >::~__shared_ptr_emplace()
PUBLIC 151380 0 std::__ndk1::__shared_ptr_emplace<MyButtonSettingV3, std::__ndk1::allocator<MyButtonSettingV3> >::~__shared_ptr_emplace()
PUBLIC 1513b0 0 std::__ndk1::__shared_ptr_emplace<MyButtonSettingV3, std::__ndk1::allocator<MyButtonSettingV3> >::__on_zero_shared()
PUBLIC 1513bc 0 std::__ndk1::__shared_ptr_emplace<MyButtonSettingV3, std::__ndk1::allocator<MyButtonSettingV3> >::__on_zero_shared_weak()
PUBLIC 1513c0 0 std::__ndk1::__function::__base<geode::Result<std::__ndk1::shared_ptr<geode::SettingV3>, std::__ndk1::basic_string<char, std::__ndk1::char_traits<char>, std::__ndk1::allocator<char> > >(std::__ndk1::basic_string<char, std::__ndk1::char_traits<char>, std::__ndk1::allocator<char> > const&, std::__ndk1::basic_string<char, std::__ndk1::char_traits<char>, std::__ndk1::allocator<char> > const&, matjson::Value const&)>::~__base()
PUBLIC 1513c4 0 std::__ndk1::__function::__func<geode::Result<std::__ndk1::shared_ptr<geode::SettingV3>, std::__ndk1::basic_string<char, std::__ndk1::char_traits<char>, std::__ndk1::allocator<char> > > (*)(std::__ndk1::basic_string<char, std::__ndk1::char_traits<char>, std::__ndk1::allocator<char> > const&, std::__ndk1::basic_string<char, std::__ndk1::char_traits<char>, std::__ndk1::allocator<char> > const&, matjson::Value const&), std::__ndk1::allocator<geode::Result<std::__ndk1::shared_ptr<geode::SettingV3>, std::__ndk1::basic_string<char, std::__ndk1::char_traits<char>, std::__ndk1::allocator<char> > > (*)(std::__ndk1::basic_string<char, std::__ndk1::char_traits<char>, std::__ndk1::allocator<char> > const&, std::__ndk1::basic_string<char, std::__ndk1::char_traits<char>, std::__ndk1::allocator<char> > const&, matjson::Value const&)>, geode::Result<std::__ndk1::shared_ptr<geode::SettingV3>, std::__ndk1::basic_string<char, std::__ndk1::char_traits<char>, std::__ndk1::allocator<char> > >(std::__ndk1::basic_string<char, std::__ndk1::char_traits<char>, std::__ndk1::allocator<char> > const&, std::__ndk1::basic_string<char, std::__ndk1::char_traits<char>, std::__ndk1::allocator<char> > const&, matjson::Value const&)>::~__func()
PUBLIC 1513c8 0 std::__ndk1::__function::__func<geode::Result<std::__ndk1::shared_ptr<geode::SettingV3>, std::__ndk1::basic_string<char, std::__ndk1::char_traits<char>, std::__ndk1::allocator<char> > > (*)(std::__ndk1::basic_string<char, std::__ndk1::char_traits<char>, std::__ndk1::allocator<char> > const&, std::__ndk1::basic_string<char, std::__ndk1::char_traits<char>, std::__ndk1::allocator<char> > const&, matjson::Value const&), std::__ndk1::allocator<geode::Result<std::__ndk1::shared_ptr<geode::SettingV3>, std::__ndk1::basic_string<char, std::__ndk1::char_traits<char>, std::__ndk1::allocator<char> > > (*)(std::__ndk1::basic_string<char, std::__ndk1::char_traits<char>, std::__ndk1::allocator<char> > const&, std::__ndk1::basic_string<char, std::__ndk1::char_traits<char>, std::__ndk1::allocator<char> > const&, matjson::Value const&)>, geode::Result<std::__ndk1::shared_ptr<geode::SettingV3>, std::__ndk1::basic_string<char, std::__ndk1::char_traits<char>, std::__ndk1::allocator<char> > >(std::__ndk1::basic_string<char, std::__ndk1::char_traits<char>, std::__ndk1::allocator<char> > const&, std::__ndk1::basic_string<char, std::__ndk1::char_traits<char>, std::__ndk1::allocator<char> > const&, matjson::Value const&)>::__clone() const
PUBLIC 1513fc 0 std::__ndk1::__function::__func<geode::Result<std::__ndk1::shared_ptr<geode::SettingV3>, std::__ndk1::basic_string<char, std::__ndk1::char_traits<char>, std::__ndk1::allocator<char> > > (*)(std::__ndk1::basic_string<char, std::__ndk1::char_traits<char>, std::__ndk1::allocator<char> > const&, std::__ndk1::basic_string<char, std::__ndk1::char_traits<char>, std::__ndk1::allocator<char> > const&, matjson::Value const&), std::__ndk1::allocator<geode::Result<std::__ndk1::shared_ptr<geode::SettingV3>, std::__ndk1::basic_string<char, std::__ndk1::char_traits<char>, std::__ndk1::allocator<char> > > (*)(std::__ndk1::basic_string<char, std::__ndk1::char_traits<char>, std::__ndk1::allocator<char> > const&, std::__ndk1::basic_string<char, std::__ndk1::char_traits<char>, std::__ndk1::allocator<char> > const&, matjson::Value const&)>, geode::Result<std::__ndk1::shared_ptr<geode::SettingV3>, std::__ndk1::basic_string<char, std::__ndk1::char_traits<char>, std::__ndk1::allocator<char> > >(std::__ndk1::basic_string<char, std::__ndk1::char_traits<char>, std::__ndk1::allocator<char> > const&, std::__ndk1::basic_string<char, std::__ndk1::char_traits<char>, std::__ndk1::allocator<char> > const&, matjson::Value const&)>::__clone(std::__ndk1::__function::__base<geode::Result<std::__ndk1::shared_ptr<geode::SettingV3>, std::__ndk1::basic_string<char, std::__ndk1::char_traits<char>, std::__ndk1::allocator<char> > >(std::__ndk1::basic_string<char, std::__ndk1::char_traits<char>, std::__ndk1::allocator<char> > const&, std::__ndk1::basic_string<char, std::__ndk1::char_traits<char>, std::__ndk1::allocator<char> > const&, matjson::Value const&)>*) const
PUBLIC 151410 0 std::__ndk1::__function::__func<geode::Result<std::__ndk1::shared_ptr<geode::SettingV3>, std::__ndk1::basic_string<char, std::__ndk1::char_traits<char>, std::__ndk1::allocator<char> > > (*)(std::__ndk1::basic_string<char, std::__ndk1::char_traits<char>, std::__ndk1::allocator<char> > const&, std::__ndk1::basic_string<char, std::__ndk1::char_traits<char>, std::__ndk1::allocator<char> > const&, matjson::Value const&), std::__ndk1::allocator<geode::Result<std::__ndk1::shared_ptr<geode::SettingV3>, std::__ndk1::basic_string<char, std::__ndk1::char_traits<char>, std::__ndk1::allocator<char> > > (*)(std::__ndk1::basic_string<char, std::__ndk1::char_traits<char>, std::__ndk1::allocator<char> > const&, std::__ndk1::basic_string<char, std::__ndk1::char_traits<char>, std::__ndk1::allocator<char> > const&, matjson::Value const&)>, geode::Result<std::__ndk1::shared_ptr<geode::SettingV3>, std::__ndk1::basic_string<char, std::__ndk1::char_traits<char>, std::__ndk1::allocator<char> > >(std::__ndk1::basic_string<char, std::__ndk1::char_traits<char>, std::__ndk1::allocator<char> > const&, std::__ndk1::basic_string<char, std::__ndk1::char_traits<char>, std::__ndk1::allocator<char> > const&, matjson::Value const&)>::destroy()
PUBLIC 151414 0 std::__ndk1::__function::__func<geode::Result<std::__ndk1::shared_ptr<geode::SettingV3>, std::__ndk1::basic_string<char, std::__ndk1::char_traits<char>, std::__ndk1::allocator<char> > > (*)(std::__ndk1::basic_string<char, std::__ndk1::char_traits<char>, std::__ndk1::allocator<char> > const&, std::__ndk1::basic_string<char, std::__ndk1::char_traits<char>, std::__ndk1::allocator<char> > const&, matjson::Value const&), std::__ndk1::allocator<geode::Result<std::__ndk1::shared_ptr<geode::SettingV3>, std::__ndk1::basic_string<char, std::__ndk1::char_traits<char>, std::__ndk1::allocator<char> > > (*)(std::__ndk1::basic_string<char, std::__ndk1::char_traits<char>, std::__ndk1::allocator<char> > const&, std::__ndk1::basic_string<char, std::__ndk1::char_traits<char>, std::__ndk1::allocator<char> > const&, matjson::Value const&)>, geode::Result<std::__ndk1::shared_ptr<geode::SettingV3>, std::__ndk1::basic_string<char, std::__ndk1::char_traits<char>, std::__ndk1::allocator<char> > >(std::__ndk1::basic_string<char, std::__ndk1::char_traits<char>, std::__ndk1::allocator<char> > const&, std::__ndk1::basic_string<char, std::__ndk1::char_traits<char>, std::__ndk1::allocator<char> > const&, matjson::Value const&)>::destroy_deallocate()
PUBLIC 151418 0 std::__ndk1::__function::__func<geode::Result<std::__ndk1::shared_ptr<geode::SettingV3>, std::__ndk1::basic_string<char, std::__ndk1::char_traits<char>, std::__ndk1::allocator<char> > > (*)(std::__ndk1::basic_string<char, std::__ndk1::char_traits<char>, std::__ndk1::allocator<char> > const&, std::__ndk1::basic_string<char, std::__ndk1::char_traits<char>, std::__ndk1::allocator<char> > const&, matjson::Value const&), std::__ndk1::allocator<geode::Result<std::__ndk1::shared_ptr<geode::SettingV3>, std::__ndk1::basic_string<char, std::__ndk1::char_traits<char>, std::__ndk1::allocator<char> > > (*)(std::__ndk1::basic_string<char, std::__ndk1::char_traits<char>, std::__ndk1::allocator<char> > const&, std::__ndk1::basic_string<char, std::__ndk1::char_traits<char>, std::__ndk1::allocator<char> > const&, matjson::Value const&)>, geode::Result<std::__ndk1::shared_ptr<geode::SettingV3>, std::__ndk1::basic_string<char, std::__ndk1::char_traits<char>, std::__ndk1::allocator<char> > >(std::__ndk1::basic_string<char, std::__ndk1::char_traits<char>, std::__ndk1::allocator<char> > const&, std::__ndk1::basic_string<char, std::__ndk1::char_traits<char>, std::__ndk1::allocator<char> > const&, matjson::Value const&)>::operator()(std::__ndk1::basic_string<char, std::__ndk1::char_traits<char>, std::__ndk1::allocator<char> > const&, std::__ndk1::basic_string<char, std::__ndk1::char_traits<char>, std::__ndk1::allocator<char> > const&, matjson::Value const&)
PUBLIC 15142c 0 std::__ndk1::__function::__func<geode::Result<std::__ndk1::shared_ptr<geode::SettingV3>, std::__ndk1::basic_string<char, std::__ndk1::char_traits<char>, std::__ndk1::allocator<char> > > (*)(std::__ndk1::basic_string<char, std::__ndk1::char_traits<char>, std::__ndk1::allocator<char> > const&, std::__ndk1::basic_string<char, std::__ndk1::char_traits<char>, std::__ndk1::allocator<char> > const&, matjson::Value const&), std::__ndk1::allocator<geode::Result<std::__ndk1::shared_ptr<geode::SettingV3>, std::__ndk1::basic_string<char, std::__ndk1::char_traits<char>, std::__ndk1::allocator<char> > > (*)(std::__ndk1::basic_string<char, std::__ndk1::char_traits<char>, std::__ndk1::allocator<char> > const&, std::__ndk1::basic_string<char, std::__ndk1::char_traits<char>, std::__ndk1::allocator<char> > const&, matjson::Value const&)>, geode::Result<std::__ndk1::shared_ptr<geode::SettingV3>, std::__ndk1::basic_string<char, std::__ndk1::char_traits<char>, std::__ndk1::allocator<char> > >(std::__ndk1::basic_string<char, std::__ndk1::char_traits<char>, std::__ndk1::allocator<char> > const&, std::__ndk1::basic_string<char, std::__ndk1::char_traits<char>, std::__ndk1::allocator<char> > const&, matjson::Value const&)>::target(std::type_info const&) const
PUBLIC 151448 0 std::__ndk1::__function::__func<geode::Result<std::__ndk1::shared_ptr<geode::SettingV3>, std::__ndk1::basic_string<char, std::__ndk1::char_traits<char>, std::__ndk1::allocator<char> > > (*)(std::__ndk1::basic_string<char, std::__ndk1::char_traits<char>, std::__ndk1::allocator<char> > const&, std::__ndk1::basic_string<char, std::__ndk1::char_traits<char>, std::__ndk1::allocator<char> > const&, matjson::Value const&), std::__ndk1::allocator<geode::Result<std::__ndk1::shared_ptr<geode::SettingV3>, std::__ndk1::basic_string<char, std::__ndk1::char_traits<char>, std::__ndk1::allocator<char> > > (*)(std::__ndk1::basic_string<char, std::__ndk1::char_traits<char>, std::__ndk1::allocator<char> > const&, std::__ndk1::basic_string<char, std::__ndk1::char_traits<char>, std::__ndk1::allocator<char> > const&, matjson::Value const&)>, geode::Result<std::__ndk1::shared_ptr<geode::SettingV3>, std::__ndk1::basic_string<char, std::__ndk1::char_traits<char>, std::__ndk1::allocator<char> > >(std::__ndk1::basic_string<char, std::__ndk1::char_traits<char>, std::__ndk1::allocator<char> > const&, std::__ndk1::basic_string<char, std::__ndk1::char_traits<char>, std::__ndk1::allocator<char> > const&, matjson::Value const&)>::target_type() const
PUBLIC 151454 0 __cxx_global_array_dtor
PUBLIC 151488 0 __cxx_global_array_dtor.10
PUBLIC 151568 0 _GLOBAL__sub_I_input.cpp
PUBLIC 151874 0 InputPracticeFixes::applyFixes(PlayLayer*, PlayerData, PlayerData, int)
PUBLIC 152b40 0 std::__ndk1::vector<button, std::__ndk1::allocator<button> >::__throw_length_error[abi:ne180000]() const
PUBLIC 152b54 0 std::__ndk1::vector<int, std::__ndk1::allocator<int> >::__assign_with_size[abi:ne180000]<int const*, int const>(int const*, int const, long)
PUBLIC 152c7c 0 __cxx_global_array_dtor
PUBLIC 152cb0 0 __cxx_global_array_dtor.10
PUBLIC 152d90 0 _GLOBAL__sub_I_player.cpp
PUBLIC 15309c 0 PlayerPracticeFixes::saveData(PlayerObject*)
PUBLIC 1535d8 0 PlayerPracticeFixes::applyData(PlayerObject*, PlayerData, bool, bool)
PUBLIC 153b94 0 __cxx_global_array_dtor
PUBLIC 153bc8 0 __cxx_global_array_dtor.10
PUBLIC 153ca8 0 __cxx_global_var_init.11
PUBLIC 1540e4 0 __cxx_global_var_init.12
PUBLIC 154520 0 __cxx_global_var_init.13
PUBLIC 15495c 0 _GLOBAL__sub_I_play_layer.cpp
PUBLIC 154c68 0 geode::modifier::ModifyBase<geode::modifier::ModifyDerive<hook7<(anonymous namespace)::hook7Parent>, GJBaseGameLayer> >::~ModifyBase()
PUBLIC 154c84 0 geode::modifier::ModifyBase<geode::modifier::ModifyDerive<hook28<(anonymous namespace)::hook28Parent>, CheckpointObject> >::~ModifyBase()
PUBLIC 154ca0 0 geode::modifier::ModifyBase<geode::modifier::ModifyDerive<hook64<(anonymous namespace)::hook64Parent>, PlayLayer> >::~ModifyBase()
PUBLIC 154cbc 0 geode::modifier::ModifyDerive<hook7<(anonymous namespace)::hook7Parent>, GJBaseGameLayer>::apply()
PUBLIC 155370 0 geode::modifier::ModifyBase<geode::modifier::ModifyDerive<hook7<(anonymous namespace)::hook7Parent>, GJBaseGameLayer> >::apply()
PUBLIC 155374 0 geode::modifier::AsStaticFunction_checkpointActivated<hook7<(anonymous namespace)::hook7Parent>, void (hook7<(anonymous namespace)::hook7Parent>::*)(CheckpointGameObject*)>::Impl<void (hook7<(anonymous namespace)::hook7Parent>::*)(CheckpointGameObject*)>::function(hook7<(anonymous namespace)::hook7Parent>*, CheckpointGameObject*)
PUBLIC 1554a4 0 geode::modifier::AsStaticFunction_toggleFlipped<hook7<(anonymous namespace)::hook7Parent>, void (hook7<(anonymous namespace)::hook7Parent>::*)(bool, bool)>::Impl<void (hook7<(anonymous namespace)::hook7Parent>::*)(bool, bool)>::function(hook7<(anonymous namespace)::hook7Parent>*, bool, bool)
PUBLIC 1555dc 0 geode::addresser::Addresser::addressOfVirtual<void, GJBaseGameLayer, CheckpointGameObject*>(void (GJBaseGameLayer::*)(CheckpointGameObject*))
PUBLIC 1556a4 0 CheckpointData::~CheckpointData()
PUBLIC 1556e8 0 geode::modifier::ModifyDerive<hook28<(anonymous namespace)::hook28Parent>, CheckpointObject>::apply()
PUBLIC 1559f0 0 geode::modifier::ModifyBase<geode::modifier::ModifyDerive<hook28<(anonymous namespace)::hook28Parent>, CheckpointObject> >::apply()
PUBLIC 1559f4 0 geode::modifier::AsStaticFunction_create<hook28<(anonymous namespace)::hook28Parent>, CheckpointObject* (*)()>::Impl<CheckpointObject* (*)()>::function()
PUBLIC 1561e8 0 geode::modifier::ModifyDerive<hook64<(anonymous namespace)::hook64Parent>, PlayLayer>::apply()
PUBLIC 156684 0 geode::modifier::ModifyBase<geode::modifier::ModifyDerive<hook64<(anonymous namespace)::hook64Parent>, PlayLayer> >::apply()
PUBLIC 156688 0 geode::Hook::create<void (*)(hook64<(anonymous namespace)::hook64Parent>*, CheckpointObject*)>(void*, void (*)(hook64<(anonymous namespace)::hook64Parent>*, CheckpointObject*), std::__ndk1::basic_string<char, std::__ndk1::char_traits<char>, std::__ndk1::allocator<char> > const&, tulip::hook::TulipConvention, tulip::hook::HookMetadata const&)
PUBLIC 15680c 0 geode::modifier::AsStaticFunction_loadFromCheckpoint<hook64<(anonymous namespace)::hook64Parent>, void (hook64<(anonymous namespace)::hook64Parent>::*)(CheckpointObject*)>::Impl<void (hook64<(anonymous namespace)::hook64Parent>::*)(CheckpointObject*)>::function(hook64<(anonymous namespace)::hook64Parent>*, CheckpointObject*)
PUBLIC 157d30 0 geode::modifier::AsStaticFunction_storeCheckpoint<hook64<(anonymous namespace)::hook64Parent>, void (hook64<(anonymous namespace)::hook64Parent>::*)(CheckpointObject*)>::Impl<void (hook64<(anonymous namespace)::hook64Parent>::*)(CheckpointObject*)>::function(hook64<(anonymous namespace)::hook64Parent>*, CheckpointObject*)
PUBLIC m 157df8 0 geodeImplicitEntry
PUBLIC 157e34 0 std::__ndk1::unordered_map<void*, bool, std::__ndk1::hash<void*>, std::__ndk1::equal_to<void*>, std::__ndk1::allocator<std::__ndk1::pair<void* const, bool> > >::~unordered_map[abi:ne180000]()
PUBLIC 157e80 0 wrapFunction(unsigned long, tulip::hook::WrapperMetadata const&)
PUBLIC 157fb4 0 geode::impl::ResultData<void*, std::__ndk1::basic_string<char, std::__ndk1::char_traits<char>, std::__ndk1::allocator<char> > >::unwrapErr() &
PUBLIC 15802c 0 geode::impl::ResultData<void*, std::__ndk1::basic_string<char, std::__ndk1::char_traits<char>, std::__ndk1::allocator<char> > >::~ResultData()
PUBLIC 1580a0 0 tulip::hook::WrapperMetadata::~WrapperMetadata()
PUBLIC 158104 0 cocos2d::CCObject::CCObject()
PUBLIC 158328 0 cocos2d::CCObject::~CCObject()
PUBLIC 15834c 0 cocos2d::CCNode::CCNode()
PUBLIC 1585a8 0 cocos2d::CCNode::~CCNode()
PUBLIC 1585cc 0 cocos2d::CCNodeRGBA::~CCNodeRGBA()
PUBLIC 1585f0 0 {virtual override thunk({offset(-320)}, cocos2d::CCLayer::~CCLayer())}
PUBLIC 1585f8 0 cocos2d::CCLayer::~CCLayer()
PUBLIC 15861c 0 {virtual override thunk({offset(-320)}, cocos2d::CCLayer::~CCLayer())}
PUBLIC 158644 0 cocos2d::CCLayerRGBA::~CCLayerRGBA()
PUBLIC 158944 0 {virtual override thunk({offset(-320)}, cocos2d::CCLayerRGBA::~CCLayerRGBA())}
PUBLIC 15894c 0 cocos2d::CCLayerRGBA::~CCLayerRGBA()
PUBLIC 158970 0 {virtual override thunk({offset(-320)}, cocos2d::CCLayerRGBA::~CCLayerRGBA())}
PUBLIC 158998 0 cocos2d::CCLayerColor::CCLayerColor()
PUBLIC 158bfc 0 {virtual override thunk({offset(-320)}, cocos2d::CCLayerColor::~CCLayerColor())}
PUBLIC 158c04 0 cocos2d::CCLayerColor::~CCLayerColor()
PUBLIC 158c28 0 {virtual override thunk({offset(-320)}, cocos2d::CCLayerColor::~CCLayerColor())}
PUBLIC 158c50 0 cocos2d::CCTexture2D::~CCTexture2D()
PUBLIC 158ec0 0 cocos2d::CCTexture2D::~CCTexture2D()
PUBLIC 158ee4 0 cocos2d::CCTexture2D::CCTexture2D()
PUBLIC 159110 0 cocos2d::CCIMEDelegate::~CCIMEDelegate()
PUBLIC 15935c 0 cocos2d::CCIMEDelegate::~CCIMEDelegate()
PUBLIC 159380 0 cocos2d::CCSprite::~CCSprite()
PUBLIC 1593a4 0 cocos2d::CCDrawNode::CCDrawNode()
PUBLIC 159624 0 cocos2d::CCDrawNode::~CCDrawNode()
PUBLIC 1598f0 0 cocos2d::CCDrawNode::~CCDrawNode()
PUBLIC 159914 0 tulip::hook::AbstractFunction::from<gd::string, gd::string const&, bool, int>(gd::string (*)(gd::string const&, bool, int))
PUBLIC 159a18 0 cocos2d::ZipUtils::decompressString(gd::string const&, bool, int)
PUBLIC 159b80 0 {virtual override thunk({offset(-320)}, FLAlertLayer::~FLAlertLayer())}
PUBLIC 159b88 0 FLAlertLayer::~FLAlertLayer()
PUBLIC 159bac 0 {virtual override thunk({offset(-320)}, FLAlertLayer::~FLAlertLayer())}
PUBLIC 159bd4 0 FLAlertLayer::create(FLAlertLayerProtocol*, char const*, gd::string, char const*, char const*, float)
PUBLIC 159d8c 0 tulip::hook::AbstractFunction::from<FLAlertLayer*, FLAlertLayerProtocol*, char const*, gd::string, char const*, char const*, float>(FLAlertLayer* (*)(FLAlertLayerProtocol*, char const*, gd::string, char const*, char const*, float))
PUBLIC 15a270 0 FLAlertLayer::create(char const*, gd::string const&, char const*)
PUBLIC 15a31c 0 TextInputDelegate::textInputOpened(CCTextInputNode*)
PUBLIC 15a320 0 TextInputDelegate::textInputClosed(CCTextInputNode*)
