MODULE Linux arm64 447AF164D46DDE4A5B8EF441E4802D970 beat.click-sound.android64.so
INFO CODE_ID 64F17A446DD44ADE5B8EF441E4802D973CD089C4
INFO GENERATOR mozilla/dump_syms 2.3.4
PUBLIC 358c0 0 __on_dlclose
PUBLIC 358d0 0 __emutls_unregister_key
PUBLIC 358d8 0 __on_dlclose_late
PUBLIC 358e0 0 __atexit_handler_wrapper
PUBLIC 358f4 0 atexit
PUBLIC 35910 0 pthread_atfork
PUBLIC 35920 0 unwind_phase2
PUBLIC 35a54 0 _Unwind_Resume
PUBLIC 35ad8 0 unwind_phase2_forced
PUBLIC m 35bcc 0 __unw_init_local
PUBLIC m 35c74 0 __unw_get_reg
PUBLIC 35cf0 0 __unw_step_stage2
PUBLIC m 35d04 0 __unw_get_proc_info
PUBLIC m 35d44 0 __unw_resume
PUBLIC 35d6c 0 libunwind::CFI_Parser<libunwind::LocalAddressSpace>::decodeFDE(libunwind::LocalAddressSpace&, unsigned long, libunwind::CFI_Parser<libunwind::LocalAddressSpace>::FDE_Info*, libunwind::CFI_Parser<libunwind::LocalAddressSpace>::CIE_Info*, bool)
PUBLIC 35efc 0 libunwind::CFI_Parser<libunwind::LocalAddressSpace>::parseCIE(libunwind::LocalAddressSpace&, unsigned long, libunwind::CFI_Parser<libunwind::LocalAddressSpace>::CIE_Info*)
PUBLIC 361c4 0 libunwind::AbstractUnwindCursor::~AbstractUnwindCursor()
PUBLIC 361cc 0 libunwind::UnwindCursor<libunwind::LocalAddressSpace, libunwind::Registers_arm64>::~UnwindCursor()
PUBLIC 361d4 0 libunwind::UnwindCursor<libunwind::LocalAddressSpace, libunwind::Registers_arm64>::validReg(int)
PUBLIC 36218 0 libunwind::UnwindCursor<libunwind::LocalAddressSpace, libunwind::Registers_arm64>::getReg(int)
PUBLIC 36300 0 libunwind::UnwindCursor<libunwind::LocalAddressSpace, libunwind::Registers_arm64>::setReg(int, unsigned long)
PUBLIC 363e8 0 libunwind::UnwindCursor<libunwind::LocalAddressSpace, libunwind::Registers_arm64>::validFloatReg(int)
PUBLIC 363fc 0 libunwind::UnwindCursor<libunwind::LocalAddressSpace, libunwind::Registers_arm64>::getFloatReg(int)
PUBLIC 3640c 0 libunwind::UnwindCursor<libunwind::LocalAddressSpace, libunwind::Registers_arm64>::setFloatReg(int, double)
PUBLIC 3641c 0 libunwind::UnwindCursor<libunwind::LocalAddressSpace, libunwind::Registers_arm64>::step(bool)
PUBLIC 3650c 0 libunwind::UnwindCursor<libunwind::LocalAddressSpace, libunwind::Registers_arm64>::getInfo(unw_proc_info_t*)
PUBLIC 36550 0 libunwind::UnwindCursor<libunwind::LocalAddressSpace, libunwind::Registers_arm64>::jumpto()
PUBLIC 3655c 0 libunwind::UnwindCursor<libunwind::LocalAddressSpace, libunwind::Registers_arm64>::isSignalFrame()
PUBLIC 36568 0 libunwind::UnwindCursor<libunwind::LocalAddressSpace, libunwind::Registers_arm64>::getFunctionName(char*, unsigned long, unsigned long*)
PUBLIC 36594 0 libunwind::UnwindCursor<libunwind::LocalAddressSpace, libunwind::Registers_arm64>::setInfoBasedOnIPRegister(bool)
PUBLIC 367d0 0 libunwind::UnwindCursor<libunwind::LocalAddressSpace, libunwind::Registers_arm64>::getRegisterName(int)
PUBLIC 367dc 0 libunwind::UnwindCursor<libunwind::LocalAddressSpace, libunwind::Registers_arm64>::stepThroughSigReturn(libunwind::Registers_arm64&)
PUBLIC 368fc 0 libunwind::DwarfInstructions<libunwind::LocalAddressSpace, libunwind::Registers_arm64>::stepWithDwarf(libunwind::LocalAddressSpace&, unsigned long, unsigned long, libunwind::Registers_arm64&, bool&, bool)
PUBLIC 36d90 0 libunwind::CFI_Parser<libunwind::LocalAddressSpace>::parseFDEInstructions(libunwind::LocalAddressSpace&, libunwind::CFI_Parser<libunwind::LocalAddressSpace>::FDE_Info const&, libunwind::CFI_Parser<libunwind::LocalAddressSpace>::CIE_Info const&, unsigned long, int, libunwind::CFI_Parser<libunwind::LocalAddressSpace>::PrologInfo*)
PUBLIC 37908 0 libunwind::DwarfInstructions<libunwind::LocalAddressSpace, libunwind::Registers_arm64>::getCFA(libunwind::LocalAddressSpace&, libunwind::CFI_Parser<libunwind::LocalAddressSpace>::PrologInfo const&, libunwind::Registers_arm64 const&)
PUBLIC 37a3c 0 libunwind::DwarfInstructions<libunwind::LocalAddressSpace, libunwind::Registers_arm64>::getSavedRegister(libunwind::LocalAddressSpace&, libunwind::Registers_arm64 const&, unsigned long, libunwind::CFI_Parser<libunwind::LocalAddressSpace>::RegisterLocation const&)
PUBLIC 37c4c 0 libunwind::LocalAddressSpace::getEncodedP(unsigned long&, unsigned long, unsigned char, unsigned long)
PUBLIC 37fd8 0 libunwind::LocalAddressSpace::getULEB128(unsigned long&, unsigned long)
PUBLIC 381a0 0 libunwind::DwarfInstructions<libunwind::LocalAddressSpace, libunwind::Registers_arm64>::evaluateExpression(unsigned long, libunwind::LocalAddressSpace&, libunwind::Registers_arm64 const&, unsigned long)
PUBLIC 38b64 0 libunwind::UnwindCursor<libunwind::LocalAddressSpace, libunwind::Registers_arm64>::getInfoFromDwarfSection(unsigned long, libunwind::UnwindInfoSections const&, unsigned int)
PUBLIC 38e38 0 libunwind::findUnwindSectionsByPhdr(dl_phdr_info*, unsigned long, void*)
PUBLIC 38f68 0 libunwind::EHHeaderParser<libunwind::LocalAddressSpace>::decodeEHHdr(libunwind::LocalAddressSpace&, unsigned long, unsigned long, libunwind::EHHeaderParser<libunwind::LocalAddressSpace>::EHHeaderInfo&)
PUBLIC 39088 0 libunwind::CFI_Parser<libunwind::LocalAddressSpace>::findFDE(libunwind::LocalAddressSpace&, unsigned long, unsigned long, unsigned long, unsigned long, libunwind::CFI_Parser<libunwind::LocalAddressSpace>::FDE_Info*, libunwind::CFI_Parser<libunwind::LocalAddressSpace>::CIE_Info*)
PUBLIC 39250 0 libunwind::EHHeaderParser<libunwind::LocalAddressSpace>::findFDE(libunwind::LocalAddressSpace&, unsigned long, unsigned long, unsigned int, libunwind::CFI_Parser<libunwind::LocalAddressSpace>::FDE_Info*, libunwind::CFI_Parser<libunwind::LocalAddressSpace>::CIE_Info*)
PUBLIC 393b8 0 libunwind::EHHeaderParser<libunwind::LocalAddressSpace>::getTableEntrySize(unsigned char)
PUBLIC 394b4 0 libunwind::Registers_arm64::getRegisterName(int)
PUBLIC 394e4 0 __libunwind_Registers_arm64_jumpto
PUBLIC m 39574 0 __unw_getcontext
PUBLIC 39610 0 __aarch64_ldadd8_relax
PUBLIC 39640 0 init_have_lse_atomics
PUBLIC 396d8 0 __init_cpu_features_constructor
PUBLIC 39984 0 __init_cpu_features
PUBLIC 39a10 0 __aarch64_ldadd8_acq_rel
PUBLIC 39a40 0 __cxx_global_var_init
PUBLIC 39d3c 0 std::__ndk1::set<std::__ndk1::pair<int, Contributors::Messages>, std::__ndk1::less<std::__ndk1::pair<int, Contributors::Messages> >, std::__ndk1::allocator<std::__ndk1::pair<int, Contributors::Messages> > >::~set[abi:ne190000]()
PUBLIC 39d44 0 __cxx_global_var_init.1
PUBLIC 3a170 0 geode::modifier::ModifyBase<geode::modifier::ModifyDerive<hook71<(anonymous namespace)::hook71Parent>, ProfilePage> >::~ModifyBase()
PUBLIC 3a18c 0 __clang_call_terminate
PUBLIC 3a19c 0 std::__throw_bad_array_new_length([abi:ne190000], void)
PUBLIC 3a1d0 0 std::__ndk1::__tree_balance_after_insert[abi:ne190000]<std::__ndk1::__tree_node_base<void*>*>(std::__ndk1::__tree_node_base<void*>*, std::__ndk1::__tree_node_base<void*>*)
PUBLIC 3a378 0 std::__ndk1::__tree<std::__ndk1::pair<int, Contributors::Messages>, std::__ndk1::less<std::__ndk1::pair<int, Contributors::Messages> >, std::__ndk1::allocator<std::__ndk1::pair<int, Contributors::Messages> > >::destroy(std::__ndk1::__tree_node<std::__ndk1::pair<int, Contributors::Messages>, void*>*)
PUBLIC 3a3b4 0 geode::modifier::ModifyDerive<hook71<(anonymous namespace)::hook71Parent>, ProfilePage>::apply()
PUBLIC 3a740 0 std::__ndk1::shared_ptr<geode::Hook>::~shared_ptr[abi:ne190000]()
PUBLIC 3a790 0 geode::impl::ResultData<geode::Hook*, std::__ndk1::basic_string<char, std::__ndk1::char_traits<char>, std::__ndk1::allocator<char> > >::~ResultData()
PUBLIC 3a804 0 std::__ndk1::vector<std::__ndk1::basic_string<char, std::__ndk1::char_traits<char>, std::__ndk1::allocator<char> >, std::__ndk1::allocator<std::__ndk1::basic_string<char, std::__ndk1::char_traits<char>, std::__ndk1::allocator<char> > > >::~vector[abi:ne190000]()
PUBLIC 3a880 0 geode::modifier::ModifyBase<geode::modifier::ModifyDerive<hook71<(anonymous namespace)::hook71Parent>, ProfilePage> >::apply()
PUBLIC 3a884 0 _ZN5geode15UnwrapExceptionC2IRPNS_4HookEQsr4implE18IsStringStreamableIT_EEENS_4impl5OkTagEOS5_
PUBLIC 3a9d8 0 std::__ndk1::__throw_bad_variant_access[abi:ne190000]()
PUBLIC 3aa0c 0 std::__ndk1::basic_stringstream<char, std::__ndk1::char_traits<char>, std::__ndk1::allocator<char> >::basic_stringstream[abi:ne190000]()
PUBLIC m 3ab40 0 std::__ndk1::basic_stringstream<char, std::__ndk1::char_traits<char>, std::__ndk1::allocator<char> >::~basic_stringstream()
PUBLIC 3abc0 0 geode::UnwrapException::~UnwrapException()
PUBLIC 3abe4 0 std::__ndk1::__put_character_sequence[abi:ne190000]<char, std::__ndk1::char_traits<char> >(std::__ndk1::basic_ostream<char, std::__ndk1::char_traits<char> >, std::__ndk1::basic_ostream const*, unsigned long)
PUBLIC 3ad88 0 std::__ndk1::__pad_and_output[abi:ne190000]<char, std::__ndk1::char_traits<char> >(std::__ndk1::char_traits<char>, std::__ndk1::ostreambuf_iterator const*, std::__ndk1::ostreambuf_iterator const, std::__ndk1::ostreambuf_iterator const, std::__ndk1::ios_base&, std::__ndk1::ostreambuf_iterator)
PUBLIC 3af74 0 std::__ndk1::basic_string<char, std::__ndk1::char_traits<char>, std::__ndk1::allocator<char> >::__throw_length_error[abi:ne190000]() const
PUBLIC 3af88 0 std::__ndk1::__throw_length_error[abi:ne190000](char const*)
PUBLIC 3afd8 0 std::length_error::length_error[abi:ne190000](char const*)
PUBLIC 3b008 0 std::__ndk1::basic_stringbuf<char, std::__ndk1::char_traits<char>, std::__ndk1::allocator<char> >::str[abi:ne190000]() &&
PUBLIC 3b178 0 std::__ndk1::basic_stringbuf<char, std::__ndk1::char_traits<char>, std::__ndk1::allocator<char> >::__init_buf_ptrs[abi:ne190000]()
PUBLIC 3b2c0 0 std::__ndk1::basic_string<char, std::__ndk1::char_traits<char>, std::__ndk1::allocator<char> >::__erase_external_with_move(unsigned long, unsigned long)
PUBLIC 3b348 0 std::__ndk1::vector<std::__ndk1::basic_string<char, std::__ndk1::char_traits<char>, std::__ndk1::allocator<char> >, std::__ndk1::allocator<std::__ndk1::basic_string<char, std::__ndk1::char_traits<char>, std::__ndk1::allocator<char> > > >::__push_back_slow_path<std::__ndk1::basic_string<char, std::__ndk1::char_traits<char>, std::__ndk1::allocator<char> > const&>(std::__ndk1::basic_string<char, std::__ndk1::char_traits<char>, std::__ndk1::allocator<char> > const&)
PUBLIC 3b4f8 0 std::__ndk1::basic_string<char, std::__ndk1::char_traits<char>, std::__ndk1::allocator<char> >::__init_copy_ctor_external(char const*, unsigned long)
PUBLIC 3b58c 0 std::__ndk1::__split_buffer<std::__ndk1::basic_string<char, std::__ndk1::char_traits<char>, std::__ndk1::allocator<char> >, std::__ndk1::allocator<std::__ndk1::basic_string<char, std::__ndk1::char_traits<char>, std::__ndk1::allocator<char> > >&>::~__split_buffer()
PUBLIC 3b5f4 0 std::__ndk1::vector<std::__ndk1::basic_string<char, std::__ndk1::char_traits<char>, std::__ndk1::allocator<char> >, std::__ndk1::allocator<std::__ndk1::basic_string<char, std::__ndk1::char_traits<char>, std::__ndk1::allocator<char> > > >::__throw_length_error[abi:ne190000]() const
PUBLIC 3b608 0 std::__ndk1::__variant_detail::__visitation::__base::__dispatcher<(unsigned long)0>::__dispatch[abi:ne190000]<std::__ndk1::__variant_detail::__dtor<std::__ndk1::__variant_detail::__traits<geode::Hook*, std::__ndk1::basic_string<char, std::__ndk1::char_traits<char>, std::__ndk1::allocator<char> > >, (std::__ndk1::__variant_detail::_Trait)1>::__destroy[abi:ne190000]()::{lambda(auto:1&)#1}, std::__ndk1::__variant_detail::__base<(std::__ndk1::__variant_detail::__traits<geode::Hook*, std::__ndk1::basic_string<char, std::__ndk1::char_traits<char>, std::__ndk1::allocator<char> > >)1, geode::Hook, std::__ndk1::allocator<char> >&>(std::__ndk1::__variant_detail::__dtor<std::__ndk1::__variant_detail::__traits<geode::Hook*, std::__ndk1::basic_string<char, std::__ndk1::char_traits<char>, std::__ndk1::allocator<char> > >, (std::__ndk1::__variant_detail::_Trait)1>, std::__ndk1::__variant_detail::__base<(std::__ndk1::__variant_detail::__traits<geode::Hook*, std::__ndk1::basic_string<char, std::__ndk1::char_traits<char>, std::__ndk1::allocator<char> > >)1, geode::Hook, std::__ndk1::allocator<char> >&)
PUBLIC 3b60c 0 std::__ndk1::__variant_detail::__visitation::__base::__dispatcher<(unsigned long)1>::__dispatch[abi:ne190000]<std::__ndk1::__variant_detail::__dtor<std::__ndk1::__variant_detail::__traits<geode::Hook*, std::__ndk1::basic_string<char, std::__ndk1::char_traits<char>, std::__ndk1::allocator<char> > >, (std::__ndk1::__variant_detail::_Trait)1>::__destroy[abi:ne190000]()::{lambda(auto:1&)#1}, std::__ndk1::__variant_detail::__base<(std::__ndk1::__variant_detail::__traits<geode::Hook*, std::__ndk1::basic_string<char, std::__ndk1::char_traits<char>, std::__ndk1::allocator<char> > >)1, geode::Hook, std::__ndk1::allocator<char> >&>(std::__ndk1::__variant_detail::__dtor<std::__ndk1::__variant_detail::__traits<geode::Hook*, std::__ndk1::basic_string<char, std::__ndk1::char_traits<char>, std::__ndk1::allocator<char> > >, (std::__ndk1::__variant_detail::_Trait)1>, std::__ndk1::__variant_detail::__base<(std::__ndk1::__variant_detail::__traits<geode::Hook*, std::__ndk1::basic_string<char, std::__ndk1::char_traits<char>, std::__ndk1::allocator<char> > >)1, geode::Hook, std::__ndk1::allocator<char> >&)
PUBLIC 3b620 0 std::__ndk1::__tree<std::__ndk1::__value_type<std::__ndk1::basic_string<char, std::__ndk1::char_traits<char>, std::__ndk1::allocator<char> >, std::__ndk1::shared_ptr<geode::Hook> >, std::__ndk1::__map_value_compare<std::__ndk1::basic_string<char, std::__ndk1::char_traits<char>, std::__ndk1::allocator<char> >, std::__ndk1::__value_type<std::__ndk1::basic_string<char, std::__ndk1::char_traits<char>, std::__ndk1::allocator<char> >, std::__ndk1::shared_ptr<geode::Hook> >, std::__ndk1::less<std::__ndk1::basic_string<char, std::__ndk1::char_traits<char>, std::__ndk1::allocator<char> > >, true>, std::__ndk1::allocator<std::__ndk1::__value_type<std::__ndk1::basic_string<char, std::__ndk1::char_traits<char>, std::__ndk1::allocator<char> >, std::__ndk1::shared_ptr<geode::Hook> > > >::find<std::__ndk1::basic_string<char, std::__ndk1::char_traits<char>, std::__ndk1::allocator<char> > >(std::__ndk1::basic_string<char, std::__ndk1::char_traits<char>, std::__ndk1::allocator<char> > const&)
PUBLIC 3b748 0 std::__ndk1::__tree<std::__ndk1::__value_type<std::__ndk1::basic_string<char, std::__ndk1::char_traits<char>, std::__ndk1::allocator<char> >, std::__ndk1::shared_ptr<geode::Hook> >, std::__ndk1::__map_value_compare<std::__ndk1::basic_string<char, std::__ndk1::char_traits<char>, std::__ndk1::allocator<char> >, std::__ndk1::__value_type<std::__ndk1::basic_string<char, std::__ndk1::char_traits<char>, std::__ndk1::allocator<char> >, std::__ndk1::shared_ptr<geode::Hook> >, std::__ndk1::less<std::__ndk1::basic_string<char, std::__ndk1::char_traits<char>, std::__ndk1::allocator<char> > >, true>, std::__ndk1::allocator<std::__ndk1::__value_type<std::__ndk1::basic_string<char, std::__ndk1::char_traits<char>, std::__ndk1::allocator<char> >, std::__ndk1::shared_ptr<geode::Hook> > > >::erase(std::__ndk1::__tree_const_iterator<std::__ndk1::__value_type<std::__ndk1::basic_string<char, std::__ndk1::char_traits<char>, std::__ndk1::allocator<char> >, std::__ndk1::shared_ptr<geode::Hook> >, std::__ndk1::__tree_node<std::__ndk1::__value_type<std::__ndk1::basic_string<char, std::__ndk1::char_traits<char>, std::__ndk1::allocator<char> >, std::__ndk1::shared_ptr<geode::Hook> >, void*>*, long>)
PUBLIC 3b81c 0 std::__ndk1::__tree_remove[abi:ne190000]<std::__ndk1::__tree_node_base<void*>*>(std::__ndk1::__tree_node_base<void*>*, std::__ndk1::__tree_node_base<void*>*)
PUBLIC 3bbe4 0 std::__ndk1::__tree<std::__ndk1::__value_type<std::__ndk1::basic_string<char, std::__ndk1::char_traits<char>, std::__ndk1::allocator<char> >, std::__ndk1::shared_ptr<geode::Hook> >, std::__ndk1::__map_value_compare<std::__ndk1::basic_string<char, std::__ndk1::char_traits<char>, std::__ndk1::allocator<char> >, std::__ndk1::__value_type<std::__ndk1::basic_string<char, std::__ndk1::char_traits<char>, std::__ndk1::allocator<char> >, std::__ndk1::shared_ptr<geode::Hook> >, std::__ndk1::less<std::__ndk1::basic_string<char, std::__ndk1::char_traits<char>, std::__ndk1::allocator<char> > >, true>, std::__ndk1::allocator<std::__ndk1::__value_type<std::__ndk1::basic_string<char, std::__ndk1::char_traits<char>, std::__ndk1::allocator<char> >, std::__ndk1::shared_ptr<geode::Hook> > > >::destroy(std::__ndk1::__tree_node<std::__ndk1::__value_type<std::__ndk1::basic_string<char, std::__ndk1::char_traits<char>, std::__ndk1::allocator<char> >, std::__ndk1::shared_ptr<geode::Hook> >, void*>*)
PUBLIC 3bc70 0 geode::modifier::AsStaticFunction_init<hook71<(anonymous namespace)::hook71Parent>, bool (hook71<(anonymous namespace)::hook71Parent>::*)(int, bool)>::Impl<bool (hook71<(anonymous namespace)::hook71Parent>::*)(int, bool)>::function(hook71<(anonymous namespace)::hook71Parent>*, int, bool)
PUBLIC 3c034 0 std::__ndk1::shared_ptr<tulip::hook::CallingConvention>::~shared_ptr[abi:ne190000]()
PUBLIC 3c084 0 tulip::hook::HandlerMetadata::~HandlerMetadata()
PUBLIC 3c0e8 0 buttonfunctionthing::Developer(cocos2d::CCObject*)
PUBLIC 3c18c 0 buttonfunctionthing::Owner(cocos2d::CCObject*)
PUBLIC 3c230 0 buttonfunctionthing::Contributor(cocos2d::CCObject*)
PUBLIC 3c2d4 0 buttonfunctionthing::Helper(cocos2d::CCObject*)
PUBLIC 3c378 0 buttonfunctionthing::IndexModerator(cocos2d::CCObject*)
PUBLIC 3c41c 0 std::__ndk1::__tree<std::__ndk1::__value_type<std::__ndk1::basic_string<char, std::__ndk1::char_traits<char>, std::__ndk1::allocator<char> >, std::__ndk1::shared_ptr<geode::Hook> >, std::__ndk1::__map_value_compare<std::__ndk1::basic_string<char, std::__ndk1::char_traits<char>, std::__ndk1::allocator<char> >, std::__ndk1::__value_type<std::__ndk1::basic_string<char, std::__ndk1::char_traits<char>, std::__ndk1::allocator<char> >, std::__ndk1::shared_ptr<geode::Hook> >, std::__ndk1::less<std::__ndk1::basic_string<char, std::__ndk1::char_traits<char>, std::__ndk1::allocator<char> > >, true>, std::__ndk1::allocator<std::__ndk1::__value_type<std::__ndk1::basic_string<char, std::__ndk1::char_traits<char>, std::__ndk1::allocator<char> >, std::__ndk1::shared_ptr<geode::Hook> > > >::__emplace_unique_key_args<std::__ndk1::basic_string<char, std::__ndk1::char_traits<char>, std::__ndk1::allocator<char> >, std::__ndk1::piecewise_construct_t const&, std::__ndk1::tuple<std::__ndk1::basic_string<char, std::__ndk1::char_traits<char>, std::__ndk1::allocator<char> >&&>, std::__ndk1::tuple<> >(std::__ndk1::basic_string<char, std::__ndk1::char_traits<char>, std::__ndk1::allocator<char> > const&, std::__ndk1::piecewise_construct_t const&, std::__ndk1::tuple<std::__ndk1::basic_string<char, std::__ndk1::char_traits<char>, std::__ndk1::allocator<char> >&&>, std::__ndk1::tuple<>)
PUBLIC 3c594 0 __cxx_global_var_init
PUBLIC 3c9c0 0 __cxx_global_var_init.1
PUBLIC 3cdec 0 geode::modifier::ModifyBase<geode::modifier::ModifyDerive<hook18<(anonymous namespace)::hook18Parent>, PauseLayer> >::~ModifyBase()
PUBLIC 3ce08 0 geode::modifier::ModifyBase<geode::modifier::ModifyDerive<hook39<(anonymous namespace)::hook39Parent>, EditorPauseLayer> >::~ModifyBase()
PUBLIC 3ce24 0 geode::modifier::ModifyDerive<hook18<(anonymous namespace)::hook18Parent>, PauseLayer>::apply()
PUBLIC 3d140 0 geode::modifier::ModifyBase<geode::modifier::ModifyDerive<hook18<(anonymous namespace)::hook18Parent>, PauseLayer> >::apply()
PUBLIC 3d144 0 geode::modifier::AsStaticFunction_customSetup<hook18<(anonymous namespace)::hook18Parent>, void (hook18<(anonymous namespace)::hook18Parent>::*)()>::Impl<void (hook18<(anonymous namespace)::hook18Parent>::*)()>::function(hook18<(anonymous namespace)::hook18Parent>*)
PUBLIC 3d330 0 geode::addresser::Addresser::addressOfVirtual<void, PauseLayer, >(void (PauseLayer::*)())
PUBLIC 3d3d8 0 PauseLayer::PauseLayer(geode::ZeroConstructorType)
PUBLIC 3d464 0 PopupModSettings::ShowPopup(cocos2d::CCObject*)
PUBLIC 3d4a8 0 geode::Mod::getSettingValue<bool>(std::__ndk1::basic_string_view<char, std::__ndk1::char_traits<char> >) const
PUBLIC 3d5d4 0 geode::cast::traverseTypeinfoFor(void*, geode::cast::ClassTypeinfoType const*, char const*)
PUBLIC 3d6d8 0 geode::modifier::ModifyDerive<hook39<(anonymous namespace)::hook39Parent>, EditorPauseLayer>::apply()
PUBLIC 3da24 0 geode::modifier::ModifyBase<geode::modifier::ModifyDerive<hook39<(anonymous namespace)::hook39Parent>, EditorPauseLayer> >::apply()
PUBLIC 3da28 0 geode::modifier::AsStaticFunction_init<hook39<(anonymous namespace)::hook39Parent>, bool (hook39<(anonymous namespace)::hook39Parent>::*)(LevelEditorLayer*)>::Impl<bool (hook39<(anonymous namespace)::hook39Parent>::*)(LevelEditorLayer*)>::function(hook39<(anonymous namespace)::hook39Parent>*, LevelEditorLayer*)
PUBLIC 3dc2c 0 geode::cocos::CCDictionaryExt<std::__ndk1::basic_string<char, std::__ndk1::char_traits<char>, std::__ndk1::allocator<char> >, cocos2d::CCTexture2D*, cocos2d::CCTexture2D>::~CCDictionaryExt()
PUBLIC 3dc48 0 ClicksoundSetterV3::createNode(float)
PUBLIC 3e7f0 0 std::__ndk1::shared_ptr<ClicksoundSetterV3>::~shared_ptr[abi:ne190000]()
PUBLIC 3e840 0 std::__ndk1::shared_ptr<geode::SettingV3>::~shared_ptr[abi:ne190000]()
PUBLIC 3e890 0 SoundCache::SoundCache(std::__ndk1::basic_string<char, std::__ndk1::char_traits<char>, std::__ndk1::allocator<char> >, std::__ndk1::basic_string<char, std::__ndk1::char_traits<char>, std::__ndk1::allocator<char> >)
PUBLIC 3e9ec 0 MyButtonSettingV3::createNode(float)
PUBLIC 3ed14 0 std::__ndk1::shared_ptr<MyButtonSettingV3>::~shared_ptr[abi:ne190000]()
PUBLIC 3ed64 0 onsettingsUpdate()
PUBLIC 3f498 0 GetSettingJsonRead(std::__ndk1::basic_string<char, std::__ndk1::char_traits<char>, std::__ndk1::allocator<char> >)
PUBLIC 3f81c 0 SoundCache::Setsound(std::__ndk1::basic_string<char, std::__ndk1::char_traits<char>, std::__ndk1::allocator<char> >)
PUBLIC 3f908 0 MultiSoundCache::SetSounds(std::__ndk1::vector<std::__ndk1::basic_string<char, std::__ndk1::char_traits<char>, std::__ndk1::allocator<char> >, std::__ndk1::allocator<std::__ndk1::basic_string<char, std::__ndk1::char_traits<char>, std::__ndk1::allocator<char> > > > const&, std::__ndk1::basic_string<char, std::__ndk1::char_traits<char>, std::__ndk1::allocator<char> > const&, std::__ndk1::basic_string<char, std::__ndk1::char_traits<char>, std::__ndk1::allocator<char> > const&)
PUBLIC 3fcf0 0 ReadingSettings::~ReadingSettings()
PUBLIC 3fd6c 0 integrityCheck(PlayerObject*, PlayerButton)
PUBLIC 3fe74 0 geode::Task<geode::utils::web::WebResponse, geode::utils::web::WebProgress>::~Task()
PUBLIC 3fec4 0 geode::EventListener<geode::Task<geode::utils::web::WebResponse, geode::utils::web::WebProgress> >::~EventListener()
PUBLIC 3ff60 0 geodeExecFunction283<(anonymous namespace)::ExecFuncUnique283>(geode::ModStateEvent*)
PUBLIC 402cc 0 ClicksoundSetterV3::~ClicksoundSetterV3()
PUBLIC 40348 0 geode::SettingBaseValueV3<ClicksoundSettingValue, ClicksoundSettingValue>::load(matjson::Value const&)
PUBLIC 40488 0 geode::SettingBaseValueV3<ClicksoundSettingValue, ClicksoundSettingValue>::save(matjson::Value&) const
PUBLIC 40b28 0 geode::SettingBaseValueV3<ClicksoundSettingValue, ClicksoundSettingValue>::isDefaultValue() const
PUBLIC 40b34 0 geode::SettingBaseValueV3<ClicksoundSettingValue, ClicksoundSettingValue>::reset()
PUBLIC 40c08 0 geode::SettingBaseValueV3<ClicksoundSettingValue, ClicksoundSettingValue>::isValid(ClicksoundSettingValue) const
PUBLIC 40c10 0 MyButtonSettingV3::~MyButtonSettingV3()
PUBLIC 40c34 0 MyButtonSettingV3::load(matjson::Value const&)
PUBLIC 40c3c 0 MyButtonSettingV3::save(matjson::Value&) const
PUBLIC 40c44 0 MyButtonSettingV3::isDefaultValue() const
PUBLIC 40c4c 0 MyButtonSettingV3::reset()
PUBLIC 40c50 0 __cxx_global_var_init.15
PUBLIC 4107c 0 __cxx_global_var_init.16
PUBLIC 414a8 0 _GLOBAL__sub_I_main.cpp
PUBLIC 41b30 0 geode::modifier::ModifyBase<geode::modifier::ModifyDerive<hook91<(anonymous namespace)::hook91Parent>, PlayerObject> >::~ModifyBase()
PUBLIC 41b4c 0 geode::modifier::ModifyBase<geode::modifier::ModifyDerive<hook193<(anonymous namespace)::hook193Parent>, MenuLayer> >::~ModifyBase()
PUBLIC 41b68 0 std::__ndk1::basic_string<char, std::__ndk1::char_traits<char>, std::__ndk1::allocator<char> >::__assign_external(char const*, unsigned long)
PUBLIC 41cac 0 std::__ndk1::basic_string<char, std::__ndk1::char_traits<char>, std::__ndk1::allocator<char> >::__assign_external(char const*)
PUBLIC 41ce0 0 cocos2d::CCCopying::copyWithZone(cocos2d::CCZone*)
PUBLIC 41ce8 0 ClicksoundSetterNodeV3::~ClicksoundSetterNodeV3()
PUBLIC 41dc0 0 ClicksoundSetterNodeV3::~ClicksoundSetterNodeV3()
PUBLIC 41ea8 0 ClicksoundSetterNodeV3::updateState(cocos2d::CCNode*)
PUBLIC 42c30 0 geode::SettingValueNodeV3<ClicksoundSetterV3>::onCommit()
PUBLIC 42e08 0 geode::SettingValueNodeV3<ClicksoundSetterV3>::onResetToDefault()
PUBLIC 42f2c 0 geode::SettingValueNodeV3<ClicksoundSetterV3>::hasUncommittedChanges() const
PUBLIC 43044 0 geode::SettingValueNodeV3<ClicksoundSetterV3>::hasNonDefaultValue() const
PUBLIC 43158 0 geode::SettingValueNodeV3<ClicksoundSetterV3>::~SettingValueNodeV3()
PUBLIC 43204 0 geode::SettingValueNodeV3<ClicksoundSetterV3>::~SettingValueNodeV3()
PUBLIC 432c0 0 geode::SettingValueNodeV3<ClicksoundSetterV3>::updateState(cocos2d::CCNode*)
PUBLIC 4352c 0 ClicksoundSettingValue::ClicksoundSettingValue(ClicksoundSettingValue const&)
PUBLIC 43640 0 ClicksoundSettingValue::~ClicksoundSettingValue()
PUBLIC 436a4 0 geode::impl::ResultData<void, std::__ndk1::basic_string<char, std::__ndk1::char_traits<char>, std::__ndk1::allocator<char> > >::~ResultData()
PUBLIC 43718 0 std::__ndk1::__variant_detail::__visitation::__base::__dispatcher<(unsigned long)0>::__dispatch[abi:ne190000]<std::__ndk1::__variant_detail::__dtor<std::__ndk1::__variant_detail::__traits<std::__ndk1::monostate, std::__ndk1::basic_string<char, std::__ndk1::char_traits<char>, std::__ndk1::allocator<char> > >, (std::__ndk1::__variant_detail::_Trait)1>::__destroy[abi:ne190000]()::{lambda(auto:1&)#1}, std::__ndk1::__variant_detail::__base<(std::__ndk1::__variant_detail::__traits<std::__ndk1::monostate, std::__ndk1::basic_string<char, std::__ndk1::char_traits<char>, std::__ndk1::allocator<char> > >)1, std::__ndk1::__variant_detail::__traits, std::__ndk1::allocator<char> >&>(std::__ndk1::__variant_detail::__dtor<std::__ndk1::__variant_detail::__traits<std::__ndk1::monostate, std::__ndk1::basic_string<char, std::__ndk1::char_traits<char>, std::__ndk1::allocator<char> > >, (std::__ndk1::__variant_detail::_Trait)1>, std::__ndk1::__variant_detail::__base<(std::__ndk1::__variant_detail::__traits<std::__ndk1::monostate, std::__ndk1::basic_string<char, std::__ndk1::char_traits<char>, std::__ndk1::allocator<char> > >)1, std::__ndk1::__variant_detail::__traits, std::__ndk1::allocator<char> >&)
PUBLIC 4371c 0 std::__ndk1::__variant_detail::__visitation::__base::__dispatcher<(unsigned long)1>::__dispatch[abi:ne190000]<std::__ndk1::__variant_detail::__dtor<std::__ndk1::__variant_detail::__traits<std::__ndk1::monostate, std::__ndk1::basic_string<char, std::__ndk1::char_traits<char>, std::__ndk1::allocator<char> > >, (std::__ndk1::__variant_detail::_Trait)1>::__destroy[abi:ne190000]()::{lambda(auto:1&)#1}, std::__ndk1::__variant_detail::__base<(std::__ndk1::__variant_detail::__traits<std::__ndk1::monostate, std::__ndk1::basic_string<char, std::__ndk1::char_traits<char>, std::__ndk1::allocator<char> > >)1, std::__ndk1::__variant_detail::__traits, std::__ndk1::allocator<char> >&>(std::__ndk1::__variant_detail::__dtor<std::__ndk1::__variant_detail::__traits<std::__ndk1::monostate, std::__ndk1::basic_string<char, std::__ndk1::char_traits<char>, std::__ndk1::allocator<char> > >, (std::__ndk1::__variant_detail::_Trait)1>, std::__ndk1::__variant_detail::__base<(std::__ndk1::__variant_detail::__traits<std::__ndk1::monostate, std::__ndk1::basic_string<char, std::__ndk1::char_traits<char>, std::__ndk1::allocator<char> > >)1, std::__ndk1::__variant_detail::__traits, std::__ndk1::allocator<char> >&)
PUBLIC 43730 0 ClicksoundSetterNodeV3::GetJsonName(CategoryData)
PUBLIC 43b40 0 std::__ndk1::map<std::__ndk1::basic_string<char, std::__ndk1::char_traits<char>, std::__ndk1::allocator<char> >, CategoryData, std::__ndk1::less<std::__ndk1::basic_string<char, std::__ndk1::char_traits<char>, std::__ndk1::allocator<char> > >, std::__ndk1::allocator<std::__ndk1::pair<std::__ndk1::basic_string<char, std::__ndk1::char_traits<char>, std::__ndk1::allocator<char> > const, CategoryData> > >::at(std::__ndk1::basic_string<char, std::__ndk1::char_traits<char>, std::__ndk1::allocator<char> > const&)
PUBLIC 43c28 0 CategoryData::CategoryData(CategoryData const&)
PUBLIC 43d48 0 CategoryData::~CategoryData()
PUBLIC 43e48 0 geode::cocos::CCArrayExt<cocos2d::CCNode*, cocos2d::CCNode>::~CCArrayExt()
PUBLIC 43e64 0 _ZNSt6__ndk112basic_stringIcNS_11char_traitsIcEENS_9allocatorIcEEE6appendB8ne190000IPKcTnNS_9enable_ifIXsr31__has_forward_iterator_categoryIT_EE5valueEiE4typeELi0EEERS5_SA_SA_
PUBLIC 441a8 0 geode::impl::ResultData<matjson::Value, matjson::ParseError>::~ResultData()
PUBLIC 4421c 0 geode::impl::ResultData<std::__ndk1::basic_string<char, std::__ndk1::char_traits<char>, std::__ndk1::allocator<char> >, std::__ndk1::basic_string<char, std::__ndk1::char_traits<char>, std::__ndk1::allocator<char> > >::~ResultData()
PUBLIC m 44290 0 std::__ndk1::basic_ifstream<char, std::__ndk1::char_traits<char> >::~basic_ifstream()
PUBLIC 442e0 0 std::__ndk1::basic_ifstream<char, std::__ndk1::char_traits<char> >::basic_ifstream(char const*, unsigned int)
PUBLIC 443f4 0 std::__ndk1::basic_string<char, std::__ndk1::char_traits<char>, std::__ndk1::allocator<char> >::__init_with_sentinel[abi:ne190000]<std::__ndk1::istreambuf_iterator<char, std::__ndk1::char_traits<char> >, std::__ndk1::istreambuf_iterator>(std::__ndk1::istreambuf_iterator<char, std::__ndk1::char_traits<char> >, std::__ndk1::istreambuf_iterator)
PUBLIC 444d4 0 std::__ndk1::__variant_detail::__visitation::__base::__dispatcher<(unsigned long)0>::__dispatch[abi:ne190000]<std::__ndk1::__variant_detail::__dtor<std::__ndk1::__variant_detail::__traits<matjson::Value, std::__ndk1::__variant_detail::__traits::ParseError>, (std::__ndk1::__variant_detail::_Trait)1>::__destroy[abi:ne190000]()::{lambda(auto:1&)#1}, std::__ndk1::__variant_detail::__base<(std::__ndk1::__variant_detail::__traits<matjson::Value, std::__ndk1::__variant_detail::__traits::ParseError>)1, matjson, matjson::Value>&>(std::__ndk1::__variant_detail::__dtor<std::__ndk1::__variant_detail::__traits<matjson::Value, std::__ndk1::__variant_detail::__traits::ParseError>, (std::__ndk1::__variant_detail::_Trait)1>, std::__ndk1::__variant_detail::__base<(std::__ndk1::__variant_detail::__traits<matjson::Value, std::__ndk1::__variant_detail::__traits::ParseError>)1, matjson, matjson::Value>&)
PUBLIC 444dc 0 std::__ndk1::__variant_detail::__visitation::__base::__dispatcher<(unsigned long)1>::__dispatch[abi:ne190000]<std::__ndk1::__variant_detail::__dtor<std::__ndk1::__variant_detail::__traits<matjson::Value, std::__ndk1::__variant_detail::__traits::ParseError>, (std::__ndk1::__variant_detail::_Trait)1>::__destroy[abi:ne190000]()::{lambda(auto:1&)#1}, std::__ndk1::__variant_detail::__base<(std::__ndk1::__variant_detail::__traits<matjson::Value, std::__ndk1::__variant_detail::__traits::ParseError>)1, matjson, matjson::Value>&>(std::__ndk1::__variant_detail::__dtor<std::__ndk1::__variant_detail::__traits<matjson::Value, std::__ndk1::__variant_detail::__traits::ParseError>, (std::__ndk1::__variant_detail::_Trait)1>, std::__ndk1::__variant_detail::__base<(std::__ndk1::__variant_detail::__traits<matjson::Value, std::__ndk1::__variant_detail::__traits::ParseError>)1, matjson, matjson::Value>&)
PUBLIC 444f0 0 _ZN5geode15UnwrapExceptionC2IRNSt6__ndk112basic_stringIcNS2_11char_traitsIcEENS2_9allocatorIcEEEEQsr4implE18IsStringStreamableIT_EEENS_4impl6ErrTagEOSA_
PUBLIC 44658 0 std::__ndk1::__throw_out_of_range[abi:ne190000](char const*)
PUBLIC 446a8 0 std::out_of_range::out_of_range[abi:ne190000](char const*)
PUBLIC 446d8 0 std::__ndk1::__variant_detail::__visitation::__base::__dispatcher<(unsigned long)0>::__dispatch[abi:ne190000]<std::__ndk1::__variant_detail::__dtor<std::__ndk1::__variant_detail::__traits<std::__ndk1::basic_string<char, std::__ndk1::char_traits<char>, std::__ndk1::allocator<char> >, std::__ndk1::allocator<char> >, (std::__ndk1::__variant_detail::_Trait)1>::__destroy[abi:ne190000]()::{lambda(auto:1&)#1}, std::__ndk1::__variant_detail::__base<(std::__ndk1::__variant_detail::__traits<std::__ndk1::basic_string<char, std::__ndk1::char_traits<char>, std::__ndk1::allocator<char> >, std::__ndk1::allocator<char> >)1, std::__ndk1::allocator<char>, std::__ndk1::allocator<char> >&>(std::__ndk1::__variant_detail::__dtor<std::__ndk1::__variant_detail::__traits<std::__ndk1::basic_string<char, std::__ndk1::char_traits<char>, std::__ndk1::allocator<char> >, std::__ndk1::allocator<char> >, (std::__ndk1::__variant_detail::_Trait)1>, std::__ndk1::__variant_detail::__base<(std::__ndk1::__variant_detail::__traits<std::__ndk1::basic_string<char, std::__ndk1::char_traits<char>, std::__ndk1::allocator<char> >, std::__ndk1::allocator<char> >)1, std::__ndk1::allocator<char>, std::__ndk1::allocator<char> >&)
PUBLIC 446ec 0 std::__ndk1::__variant_detail::__visitation::__base::__dispatcher<(unsigned long)1>::__dispatch[abi:ne190000]<std::__ndk1::__variant_detail::__dtor<std::__ndk1::__variant_detail::__traits<std::__ndk1::basic_string<char, std::__ndk1::char_traits<char>, std::__ndk1::allocator<char> >, std::__ndk1::allocator<char> >, (std::__ndk1::__variant_detail::_Trait)1>::__destroy[abi:ne190000]()::{lambda(auto:1&)#1}, std::__ndk1::__variant_detail::__base<(std::__ndk1::__variant_detail::__traits<std::__ndk1::basic_string<char, std::__ndk1::char_traits<char>, std::__ndk1::allocator<char> >, std::__ndk1::allocator<char> >)1, std::__ndk1::allocator<char>, std::__ndk1::allocator<char> >&>(std::__ndk1::__variant_detail::__dtor<std::__ndk1::__variant_detail::__traits<std::__ndk1::basic_string<char, std::__ndk1::char_traits<char>, std::__ndk1::allocator<char> >, std::__ndk1::allocator<char> >, (std::__ndk1::__variant_detail::_Trait)1>, std::__ndk1::__variant_detail::__base<(std::__ndk1::__variant_detail::__traits<std::__ndk1::basic_string<char, std::__ndk1::char_traits<char>, std::__ndk1::allocator<char> >, std::__ndk1::allocator<char> >)1, std::__ndk1::allocator<char>, std::__ndk1::allocator<char> >&)
PUBLIC 44700 0 std::__ndk1::vector<std::__ndk1::basic_string<char, std::__ndk1::char_traits<char>, std::__ndk1::allocator<char> >, std::__ndk1::allocator<std::__ndk1::basic_string<char, std::__ndk1::char_traits<char>, std::__ndk1::allocator<char> > > >::__init_with_size[abi:ne190000]<std::__ndk1::basic_string<char, std::__ndk1::char_traits<char>, std::__ndk1::allocator<char> >*, std::__ndk1::vector<std::__ndk1::basic_string<char, std::__ndk1::char_traits<char>, std::__ndk1::allocator<char> >, std::__ndk1::allocator<std::__ndk1::basic_string<char, std::__ndk1::char_traits<char>, std::__ndk1::allocator<char> > > >::__init_with_size[abi:ne190000]>(std::__ndk1::basic_string<char, std::__ndk1::char_traits<char>, std::__ndk1::allocator<char> >*, std::__ndk1::vector<std::__ndk1::basic_string<char, std::__ndk1::char_traits<char>, std::__ndk1::allocator<char> >, std::__ndk1::allocator<std::__ndk1::basic_string<char, std::__ndk1::char_traits<char>, std::__ndk1::allocator<char> > > >::__init_with_size[abi:ne190000], unsigned long)
PUBLIC 4486c 0 std::__ndk1::__exception_guard_exceptions<std::__ndk1::vector<std::__ndk1::basic_string<char, std::__ndk1::char_traits<char>, std::__ndk1::allocator<char> >, std::__ndk1::allocator<std::__ndk1::basic_string<char, std::__ndk1::char_traits<char>, std::__ndk1::allocator<char> > > >::__destroy_vector>::~__exception_guard_exceptions[abi:ne190000]()
PUBLIC 448f8 0 std::__ndk1::__exception_guard_exceptions<std::__ndk1::_AllocatorDestroyRangeReverse<std::__ndk1::allocator<std::__ndk1::basic_string<char, std::__ndk1::char_traits<char>, std::__ndk1::allocator<char> > >, std::__ndk1::basic_string<char, std::__ndk1::char_traits<char>, std::__ndk1::allocator<char> >*> >::~__exception_guard_exceptions[abi:ne190000]()
PUBLIC 44958 0 geode::SettingBaseValueV3<ClicksoundSettingValue, ClicksoundSettingValue>::setValue(ClicksoundSettingValue)
PUBLIC 44aa8 0 ClicksoundSettingValue::operator=(ClicksoundSettingValue const&)
PUBLIC 44c10 0 std::__ndk1::basic_string<char, std::__ndk1::char_traits<char>, std::__ndk1::allocator<char> >::__assign_no_alias<true>(char const*, unsigned long)
PUBLIC 44cbc 0 std::__ndk1::basic_string<char, std::__ndk1::char_traits<char>, std::__ndk1::allocator<char> >::__assign_no_alias<false>(char const*, unsigned long)
PUBLIC 44df8 0 ClicksoundSettingValue::operator==(ClicksoundSettingValue const&) const
PUBLIC 4500c 0 ClicksoundSetterNodeV3::onFolder(cocos2d::CCObject*)
PUBLIC 45c0c 0 ClicksoundSetterNodeV3::Popup(cocos2d::CCObject*)
PUBLIC 46f04 0 ClicksoundSetterNodeV3::onToggle(cocos2d::CCObject*)
PUBLIC 4706c 0 std::__ndk1::__shared_ptr_emplace<geode::SettingValueNodeV3<ClicksoundSetterV3>::Impl, std::__ndk1::allocator<geode::SettingValueNodeV3<ClicksoundSetterV3>::Impl> >::~__shared_ptr_emplace()
PUBLIC 4707c 0 std::__ndk1::__shared_ptr_emplace<geode::SettingValueNodeV3<ClicksoundSetterV3>::Impl, std::__ndk1::allocator<geode::SettingValueNodeV3<ClicksoundSetterV3>::Impl> >::~__shared_ptr_emplace()
PUBLIC 470ac 0 std::__ndk1::__shared_ptr_emplace<geode::SettingValueNodeV3<ClicksoundSetterV3>::Impl, std::__ndk1::allocator<geode::SettingValueNodeV3<ClicksoundSetterV3>::Impl> >::__on_zero_shared()
PUBLIC 47110 0 std::__ndk1::__shared_ptr_emplace<geode::SettingValueNodeV3<ClicksoundSetterV3>::Impl, std::__ndk1::allocator<geode::SettingValueNodeV3<ClicksoundSetterV3>::Impl> >::__on_zero_shared_weak()
PUBLIC 47114 0 std::__ndk1::__function::__func<ClicksoundSetterNodeV3::init(std::__ndk1::shared_ptr<ClicksoundSetterV3>, float)::{lambda()#1}, std::__ndk1::allocator<ClicksoundSetterNodeV3::init(std::__ndk1::shared_ptr<ClicksoundSetterV3>, float)::{lambda()#1}>, void ()>::~__func()
PUBLIC 47118 0 std::__ndk1::__function::__func<ClicksoundSetterNodeV3::init(std::__ndk1::shared_ptr<ClicksoundSetterV3>, float)::{lambda()#1}, std::__ndk1::allocator<ClicksoundSetterNodeV3::init(std::__ndk1::shared_ptr<ClicksoundSetterV3>, float)::{lambda()#1}>, void ()>::__clone() const
PUBLIC 4714c 0 std::__ndk1::__function::__func<ClicksoundSetterNodeV3::init(std::__ndk1::shared_ptr<ClicksoundSetterV3>, float)::{lambda()#1}, std::__ndk1::allocator<ClicksoundSetterNodeV3::init(std::__ndk1::shared_ptr<ClicksoundSetterV3>, float)::{lambda()#1}>, void ()>::__clone(std::__ndk1::__function::__base<void ()>*) const
PUBLIC 47160 0 std::__ndk1::__function::__func<ClicksoundSetterNodeV3::init(std::__ndk1::shared_ptr<ClicksoundSetterV3>, float)::{lambda()#1}, std::__ndk1::allocator<ClicksoundSetterNodeV3::init(std::__ndk1::shared_ptr<ClicksoundSetterV3>, float)::{lambda()#1}>, void ()>::destroy()
PUBLIC 47164 0 std::__ndk1::__function::__func<ClicksoundSetterNodeV3::init(std::__ndk1::shared_ptr<ClicksoundSetterV3>, float)::{lambda()#1}, std::__ndk1::allocator<ClicksoundSetterNodeV3::init(std::__ndk1::shared_ptr<ClicksoundSetterV3>, float)::{lambda()#1}>, void ()>::destroy_deallocate()
PUBLIC 47168 0 std::__ndk1::__function::__func<ClicksoundSetterNodeV3::init(std::__ndk1::shared_ptr<ClicksoundSetterV3>, float)::{lambda()#1}, std::__ndk1::allocator<ClicksoundSetterNodeV3::init(std::__ndk1::shared_ptr<ClicksoundSetterV3>, float)::{lambda()#1}>, void ()>::operator()()
PUBLIC 47830 0 std::__ndk1::__function::__func<ClicksoundSetterNodeV3::init(std::__ndk1::shared_ptr<ClicksoundSetterV3>, float)::{lambda()#1}, std::__ndk1::allocator<ClicksoundSetterNodeV3::init(std::__ndk1::shared_ptr<ClicksoundSetterV3>, float)::{lambda()#1}>, void ()>::target(std::type_info const&) const
PUBLIC 4784c 0 std::__ndk1::__function::__func<ClicksoundSetterNodeV3::init(std::__ndk1::shared_ptr<ClicksoundSetterV3>, float)::{lambda()#1}, std::__ndk1::allocator<ClicksoundSetterNodeV3::init(std::__ndk1::shared_ptr<ClicksoundSetterV3>, float)::{lambda()#1}>, void ()>::target_type() const
PUBLIC 47858 0 SpritePicker::get(std::__ndk1::basic_string<char, std::__ndk1::char_traits<char>, std::__ndk1::allocator<char> > const&, bool)
PUBLIC 47a3c 0 geode::utils::file::FilePickOptions::Filter::~Filter()
PUBLIC 47abc 0 geode::Task<geode::Result<std::__ndk1::__fs::filesystem::path, std::__ndk1::basic_string<char, std::__ndk1::char_traits<char>, std::__ndk1::allocator<char> > >, std::__ndk1::monostate>::~Task()
PUBLIC 47b0c 0 geode::utils::file::FilePickOptions::~FilePickOptions()
PUBLIC 47b94 0 std::__ndk1::__murmur2_or_cityhash<unsigned long, (unsigned long)64>::operator()[abi:ne190000](void const*, unsigned long) const
PUBLIC 47fec 0 std::__ndk1::__hash_table<std::__ndk1::basic_string<char, std::__ndk1::char_traits<char>, std::__ndk1::allocator<char> >, std::__ndk1::hash<std::__ndk1::basic_string<char, std::__ndk1::char_traits<char>, std::__ndk1::allocator<char> > >, std::__ndk1::equal_to<std::__ndk1::basic_string<char, std::__ndk1::char_traits<char>, std::__ndk1::allocator<char> > >, std::__ndk1::allocator<std::__ndk1::basic_string<char, std::__ndk1::char_traits<char>, std::__ndk1::allocator<char> > > >::__do_rehash<true>(unsigned long)
PUBLIC 48198 0 std::__ndk1::__hash_table<std::__ndk1::basic_string<char, std::__ndk1::char_traits<char>, std::__ndk1::allocator<char> >, std::__ndk1::hash<std::__ndk1::basic_string<char, std::__ndk1::char_traits<char>, std::__ndk1::allocator<char> > >, std::__ndk1::equal_to<std::__ndk1::basic_string<char, std::__ndk1::char_traits<char>, std::__ndk1::allocator<char> > >, std::__ndk1::allocator<std::__ndk1::basic_string<char, std::__ndk1::char_traits<char>, std::__ndk1::allocator<char> > > >::__emplace_unique_key_args<std::__ndk1::basic_string<char, std::__ndk1::char_traits<char>, std::__ndk1::allocator<char> >, std::__ndk1::basic_string<char, std::__ndk1::char_traits<char>, std::__ndk1::allocator<char> > const&>(std::__ndk1::basic_string<char, std::__ndk1::char_traits<char>, std::__ndk1::allocator<char> > const&, std::__ndk1::basic_string<char, std::__ndk1::char_traits<char>, std::__ndk1::allocator<char> > const&)
PUBLIC 485d4 0 std::__ndk1::unique_ptr<std::__ndk1::__hash_node<std::__ndk1::basic_string<char, std::__ndk1::char_traits<char>, std::__ndk1::allocator<char> >, void*>, std::__ndk1::__hash_node_destructor<std::__ndk1::allocator<std::__ndk1::__hash_node<std::__ndk1::basic_string<char, std::__ndk1::char_traits<char>, std::__ndk1::allocator<char> >, void*> > > >::~unique_ptr[abi:ne190000]()
PUBLIC 48624 0 std::__ndk1::__split_buffer<geode::utils::file::FilePickOptions::Filter, std::__ndk1::allocator<geode::utils::file::FilePickOptions::Filter>&>::~__split_buffer()
PUBLIC 486dc 0 std::__ndk1::vector<geode::utils::file::FilePickOptions::Filter, std::__ndk1::allocator<geode::utils::file::FilePickOptions::Filter> >::__throw_length_error[abi:ne190000]() const
PUBLIC 486f0 0 std::__ndk1::__exception_guard_exceptions<std::__ndk1::_AllocatorDestroyRangeReverse<std::__ndk1::allocator<geode::utils::file::FilePickOptions::Filter>, geode::utils::file::FilePickOptions::Filter*> >::~__exception_guard_exceptions[abi:ne190000]()
PUBLIC 48794 0 std::__ndk1::unordered_set<std::__ndk1::basic_string<char, std::__ndk1::char_traits<char>, std::__ndk1::allocator<char> >, std::__ndk1::hash<std::__ndk1::basic_string<char, std::__ndk1::char_traits<char>, std::__ndk1::allocator<char> > >, std::__ndk1::equal_to<std::__ndk1::basic_string<char, std::__ndk1::char_traits<char>, std::__ndk1::allocator<char> > >, std::__ndk1::allocator<std::__ndk1::basic_string<char, std::__ndk1::char_traits<char>, std::__ndk1::allocator<char> > > >::unordered_set(std::__ndk1::unordered_set<std::__ndk1::basic_string<char, std::__ndk1::char_traits<char>, std::__ndk1::allocator<char> >, std::__ndk1::hash<std::__ndk1::basic_string<char, std::__ndk1::char_traits<char>, std::__ndk1::allocator<char> > >, std::__ndk1::equal_to<std::__ndk1::basic_string<char, std::__ndk1::char_traits<char>, std::__ndk1::allocator<char> > >, std::__ndk1::allocator<std::__ndk1::basic_string<char, std::__ndk1::char_traits<char>, std::__ndk1::allocator<char> > > > const&)
PUBLIC 488d0 0 std::__ndk1::__hash_table<std::__ndk1::basic_string<char, std::__ndk1::char_traits<char>, std::__ndk1::allocator<char> >, std::__ndk1::hash<std::__ndk1::basic_string<char, std::__ndk1::char_traits<char>, std::__ndk1::allocator<char> > >, std::__ndk1::equal_to<std::__ndk1::basic_string<char, std::__ndk1::char_traits<char>, std::__ndk1::allocator<char> > >, std::__ndk1::allocator<std::__ndk1::basic_string<char, std::__ndk1::char_traits<char>, std::__ndk1::allocator<char> > > >::~__hash_table()
PUBLIC 48940 0 std::__ndk1::vector<geode::utils::file::FilePickOptions::Filter, std::__ndk1::allocator<geode::utils::file::FilePickOptions::Filter> >::__destroy_vector::operator()[abi:ne190000]()
PUBLIC 48a24 0 geode::EventListener<geode::Task<geode::Result<std::__ndk1::__fs::filesystem::path, std::__ndk1::basic_string<char, std::__ndk1::char_traits<char>, std::__ndk1::allocator<char> > >, std::__ndk1::monostate> >::getPool() const
PUBLIC 48a28 0 geode::EventListener<geode::Task<geode::Result<std::__ndk1::__fs::filesystem::path, std::__ndk1::basic_string<char, std::__ndk1::char_traits<char>, std::__ndk1::allocator<char> > >, std::__ndk1::monostate> >::handle(geode::Event*)
PUBLIC 48bf4 0 geode::EventListener<geode::Task<geode::Result<std::__ndk1::__fs::filesystem::path, std::__ndk1::basic_string<char, std::__ndk1::char_traits<char>, std::__ndk1::allocator<char> > >, std::__ndk1::monostate> >::~EventListener()
PUBLIC 48c90 0 geode::EventListener<geode::Task<geode::Result<std::__ndk1::__fs::filesystem::path, std::__ndk1::basic_string<char, std::__ndk1::char_traits<char>, std::__ndk1::allocator<char> > >, std::__ndk1::monostate> >::~EventListener()
PUBLIC 48d34 0 geode::Task<geode::Result<std::__ndk1::__fs::filesystem::path, std::__ndk1::basic_string<char, std::__ndk1::char_traits<char>, std::__ndk1::allocator<char> > >, std::__ndk1::monostate>::setListener(geode::EventListenerProtocol*)::{lambda()#1}::~{lambda()#1}()
PUBLIC 48d84 0 std::__ndk1::__function::__func<geode::Task<geode::Result<std::__ndk1::__fs::filesystem::path, std::__ndk1::basic_string<char, std::__ndk1::char_traits<char>, std::__ndk1::allocator<char> > >, std::__ndk1::monostate>::setListener(geode::EventListenerProtocol*)::{lambda()#1}, std::__ndk1::allocator<geode::Task<geode::Result<std::__ndk1::__fs::filesystem::path, std::__ndk1::basic_string<char, std::__ndk1::char_traits<char>, std::__ndk1::allocator<char> > >, std::__ndk1::monostate>::setListener(geode::EventListenerProtocol*)::{lambda()#1}>, void ()>::~__func()
PUBLIC 48de0 0 std::__ndk1::__function::__func<geode::Task<geode::Result<std::__ndk1::__fs::filesystem::path, std::__ndk1::basic_string<char, std::__ndk1::char_traits<char>, std::__ndk1::allocator<char> > >, std::__ndk1::monostate>::setListener(geode::EventListenerProtocol*)::{lambda()#1}, std::__ndk1::allocator<geode::Task<geode::Result<std::__ndk1::__fs::filesystem::path, std::__ndk1::basic_string<char, std::__ndk1::char_traits<char>, std::__ndk1::allocator<char> > >, std::__ndk1::monostate>::setListener(geode::EventListenerProtocol*)::{lambda()#1}>, void ()>::~__func()
PUBLIC 48e4c 0 std::__ndk1::__function::__func<geode::Task<geode::Result<std::__ndk1::__fs::filesystem::path, std::__ndk1::basic_string<char, std::__ndk1::char_traits<char>, std::__ndk1::allocator<char> > >, std::__ndk1::monostate>::setListener(geode::EventListenerProtocol*)::{lambda()#1}, std::__ndk1::allocator<geode::Task<geode::Result<std::__ndk1::__fs::filesystem::path, std::__ndk1::basic_string<char, std::__ndk1::char_traits<char>, std::__ndk1::allocator<char> > >, std::__ndk1::monostate>::setListener(geode::EventListenerProtocol*)::{lambda()#1}>, void ()>::__clone() const
PUBLIC 48ea4 0 std::__ndk1::__function::__func<geode::Task<geode::Result<std::__ndk1::__fs::filesystem::path, std::__ndk1::basic_string<char, std::__ndk1::char_traits<char>, std::__ndk1::allocator<char> > >, std::__ndk1::monostate>::setListener(geode::EventListenerProtocol*)::{lambda()#1}, std::__ndk1::allocator<geode::Task<geode::Result<std::__ndk1::__fs::filesystem::path, std::__ndk1::basic_string<char, std::__ndk1::char_traits<char>, std::__ndk1::allocator<char> > >, std::__ndk1::monostate>::setListener(geode::EventListenerProtocol*)::{lambda()#1}>, void ()>::__clone(std::__ndk1::__function::__base<void ()>*) const
PUBLIC 48ef0 0 std::__ndk1::__function::__func<geode::Task<geode::Result<std::__ndk1::__fs::filesystem::path, std::__ndk1::basic_string<char, std::__ndk1::char_traits<char>, std::__ndk1::allocator<char> > >, std::__ndk1::monostate>::setListener(geode::EventListenerProtocol*)::{lambda()#1}, std::__ndk1::allocator<geode::Task<geode::Result<std::__ndk1::__fs::filesystem::path, std::__ndk1::basic_string<char, std::__ndk1::char_traits<char>, std::__ndk1::allocator<char> > >, std::__ndk1::monostate>::setListener(geode::EventListenerProtocol*)::{lambda()#1}>, void ()>::destroy()
PUBLIC 48f40 0 std::__ndk1::__function::__func<geode::Task<geode::Result<std::__ndk1::__fs::filesystem::path, std::__ndk1::basic_string<char, std::__ndk1::char_traits<char>, std::__ndk1::allocator<char> > >, std::__ndk1::monostate>::setListener(geode::EventListenerProtocol*)::{lambda()#1}, std::__ndk1::allocator<geode::Task<geode::Result<std::__ndk1::__fs::filesystem::path, std::__ndk1::basic_string<char, std::__ndk1::char_traits<char>, std::__ndk1::allocator<char> > >, std::__ndk1::monostate>::setListener(geode::EventListenerProtocol*)::{lambda()#1}>, void ()>::destroy_deallocate()
PUBLIC 48fa0 0 std::__ndk1::__function::__func<geode::Task<geode::Result<std::__ndk1::__fs::filesystem::path, std::__ndk1::basic_string<char, std::__ndk1::char_traits<char>, std::__ndk1::allocator<char> > >, std::__ndk1::monostate>::setListener(geode::EventListenerProtocol*)::{lambda()#1}, std::__ndk1::allocator<geode::Task<geode::Result<std::__ndk1::__fs::filesystem::path, std::__ndk1::basic_string<char, std::__ndk1::char_traits<char>, std::__ndk1::allocator<char> > >, std::__ndk1::monostate>::setListener(geode::EventListenerProtocol*)::{lambda()#1}>, void ()>::operator()()
PUBLIC 49138 0 std::__ndk1::__function::__func<geode::Task<geode::Result<std::__ndk1::__fs::filesystem::path, std::__ndk1::basic_string<char, std::__ndk1::char_traits<char>, std::__ndk1::allocator<char> > >, std::__ndk1::monostate>::setListener(geode::EventListenerProtocol*)::{lambda()#1}, std::__ndk1::allocator<geode::Task<geode::Result<std::__ndk1::__fs::filesystem::path, std::__ndk1::basic_string<char, std::__ndk1::char_traits<char>, std::__ndk1::allocator<char> > >, std::__ndk1::monostate>::setListener(geode::EventListenerProtocol*)::{lambda()#1}>, void ()>::target(std::type_info const&) const
PUBLIC 49154 0 std::__ndk1::__function::__func<geode::Task<geode::Result<std::__ndk1::__fs::filesystem::path, std::__ndk1::basic_string<char, std::__ndk1::char_traits<char>, std::__ndk1::allocator<char> > >, std::__ndk1::monostate>::setListener(geode::EventListenerProtocol*)::{lambda()#1}, std::__ndk1::allocator<geode::Task<geode::Result<std::__ndk1::__fs::filesystem::path, std::__ndk1::basic_string<char, std::__ndk1::char_traits<char>, std::__ndk1::allocator<char> > >, std::__ndk1::monostate>::setListener(geode::EventListenerProtocol*)::{lambda()#1}>, void ()>::target_type() const
PUBLIC 49160 0 geode::Task<geode::Result<std::__ndk1::__fs::filesystem::path, std::__ndk1::basic_string<char, std::__ndk1::char_traits<char>, std::__ndk1::allocator<char> > >, std::__ndk1::monostate>::Event::~Event()
PUBLIC 491c0 0 geode::Task<geode::Result<std::__ndk1::__fs::filesystem::path, std::__ndk1::basic_string<char, std::__ndk1::char_traits<char>, std::__ndk1::allocator<char> > >, std::__ndk1::monostate>::Event::~Event()
PUBLIC 49230 0 std::__ndk1::__function::__func<geode::Task<geode::Result<std::__ndk1::__fs::filesystem::path, std::__ndk1::basic_string<char, std::__ndk1::char_traits<char>, std::__ndk1::allocator<char> > >, std::__ndk1::monostate>::setListener(geode::EventListenerProtocol*)::{lambda()#2}, std::__ndk1::allocator<geode::Task<geode::Result<std::__ndk1::__fs::filesystem::path, std::__ndk1::basic_string<char, std::__ndk1::char_traits<char>, std::__ndk1::allocator<char> > >, std::__ndk1::monostate>::setListener(geode::EventListenerProtocol*)::{lambda()#2}>, void ()>::~__func()
PUBLIC 4928c 0 std::__ndk1::__function::__func<geode::Task<geode::Result<std::__ndk1::__fs::filesystem::path, std::__ndk1::basic_string<char, std::__ndk1::char_traits<char>, std::__ndk1::allocator<char> > >, std::__ndk1::monostate>::setListener(geode::EventListenerProtocol*)::{lambda()#2}, std::__ndk1::allocator<geode::Task<geode::Result<std::__ndk1::__fs::filesystem::path, std::__ndk1::basic_string<char, std::__ndk1::char_traits<char>, std::__ndk1::allocator<char> > >, std::__ndk1::monostate>::setListener(geode::EventListenerProtocol*)::{lambda()#2}>, void ()>::~__func()
PUBLIC 492f8 0 std::__ndk1::__function::__func<geode::Task<geode::Result<std::__ndk1::__fs::filesystem::path, std::__ndk1::basic_string<char, std::__ndk1::char_traits<char>, std::__ndk1::allocator<char> > >, std::__ndk1::monostate>::setListener(geode::EventListenerProtocol*)::{lambda()#2}, std::__ndk1::allocator<geode::Task<geode::Result<std::__ndk1::__fs::filesystem::path, std::__ndk1::basic_string<char, std::__ndk1::char_traits<char>, std::__ndk1::allocator<char> > >, std::__ndk1::monostate>::setListener(geode::EventListenerProtocol*)::{lambda()#2}>, void ()>::__clone() const
PUBLIC 49350 0 std::__ndk1::__function::__func<geode::Task<geode::Result<std::__ndk1::__fs::filesystem::path, std::__ndk1::basic_string<char, std::__ndk1::char_traits<char>, std::__ndk1::allocator<char> > >, std::__ndk1::monostate>::setListener(geode::EventListenerProtocol*)::{lambda()#2}, std::__ndk1::allocator<geode::Task<geode::Result<std::__ndk1::__fs::filesystem::path, std::__ndk1::basic_string<char, std::__ndk1::char_traits<char>, std::__ndk1::allocator<char> > >, std::__ndk1::monostate>::setListener(geode::EventListenerProtocol*)::{lambda()#2}>, void ()>::__clone(std::__ndk1::__function::__base<void ()>*) const
PUBLIC 4939c 0 std::__ndk1::__function::__func<geode::Task<geode::Result<std::__ndk1::__fs::filesystem::path, std::__ndk1::basic_string<char, std::__ndk1::char_traits<char>, std::__ndk1::allocator<char> > >, std::__ndk1::monostate>::setListener(geode::EventListenerProtocol*)::{lambda()#2}, std::__ndk1::allocator<geode::Task<geode::Result<std::__ndk1::__fs::filesystem::path, std::__ndk1::basic_string<char, std::__ndk1::char_traits<char>, std::__ndk1::allocator<char> > >, std::__ndk1::monostate>::setListener(geode::EventListenerProtocol*)::{lambda()#2}>, void ()>::destroy()
PUBLIC 493ec 0 std::__ndk1::__function::__func<geode::Task<geode::Result<std::__ndk1::__fs::filesystem::path, std::__ndk1::basic_string<char, std::__ndk1::char_traits<char>, std::__ndk1::allocator<char> > >, std::__ndk1::monostate>::setListener(geode::EventListenerProtocol*)::{lambda()#2}, std::__ndk1::allocator<geode::Task<geode::Result<std::__ndk1::__fs::filesystem::path, std::__ndk1::basic_string<char, std::__ndk1::char_traits<char>, std::__ndk1::allocator<char> > >, std::__ndk1::monostate>::setListener(geode::EventListenerProtocol*)::{lambda()#2}>, void ()>::destroy_deallocate()
PUBLIC 4944c 0 std::__ndk1::__function::__func<geode::Task<geode::Result<std::__ndk1::__fs::filesystem::path, std::__ndk1::basic_string<char, std::__ndk1::char_traits<char>, std::__ndk1::allocator<char> > >, std::__ndk1::monostate>::setListener(geode::EventListenerProtocol*)::{lambda()#2}, std::__ndk1::allocator<geode::Task<geode::Result<std::__ndk1::__fs::filesystem::path, std::__ndk1::basic_string<char, std::__ndk1::char_traits<char>, std::__ndk1::allocator<char> > >, std::__ndk1::monostate>::setListener(geode::EventListenerProtocol*)::{lambda()#2}>, void ()>::operator()()
PUBLIC 495d4 0 std::__ndk1::__function::__func<geode::Task<geode::Result<std::__ndk1::__fs::filesystem::path, std::__ndk1::basic_string<char, std::__ndk1::char_traits<char>, std::__ndk1::allocator<char> > >, std::__ndk1::monostate>::setListener(geode::EventListenerProtocol*)::{lambda()#2}, std::__ndk1::allocator<geode::Task<geode::Result<std::__ndk1::__fs::filesystem::path, std::__ndk1::basic_string<char, std::__ndk1::char_traits<char>, std::__ndk1::allocator<char> > >, std::__ndk1::monostate>::setListener(geode::EventListenerProtocol*)::{lambda()#2}>, void ()>::target(std::type_info const&) const
PUBLIC 495f0 0 std::__ndk1::__function::__func<geode::Task<geode::Result<std::__ndk1::__fs::filesystem::path, std::__ndk1::basic_string<char, std::__ndk1::char_traits<char>, std::__ndk1::allocator<char> > >, std::__ndk1::monostate>::setListener(geode::EventListenerProtocol*)::{lambda()#2}, std::__ndk1::allocator<geode::Task<geode::Result<std::__ndk1::__fs::filesystem::path, std::__ndk1::basic_string<char, std::__ndk1::char_traits<char>, std::__ndk1::allocator<char> > >, std::__ndk1::monostate>::setListener(geode::EventListenerProtocol*)::{lambda()#2}>, void ()>::target_type() const
PUBLIC 495fc 0 std::__ndk1::__throw_bad_function_call[abi:ne190000]()
PUBLIC 49630 0 std::__ndk1::bad_function_call::~bad_function_call()
PUBLIC 49654 0 std::__ndk1::__function::__base<void (geode::Task<geode::Result<std::__ndk1::__fs::filesystem::path, std::__ndk1::basic_string<char, std::__ndk1::char_traits<char>, std::__ndk1::allocator<char> > >, std::__ndk1::monostate>::Event*)>::~__base()
PUBLIC 49658 0 _ZNSt6__ndk110__function6__funcIZNK5geode4TaskINS2_6ResultINS_4__fs10filesystem4pathENS_12basic_stringIcNS_11char_traitsIcEENS_9allocatorIcEEEEEENS_9monostateEE6listenIZN22ClicksoundSetterNodeV38onFolderEPN7cocos2d8CCObjectEEUlPSE_E_ZNKSG_6listenISN_EEvOT_EUlRKSP_E_ZNKSO_ISN_EEvSQ_EUlvE_EEvSQ_OT0_OT1_EUlPNSG_5EventEE_NSB_IS11_EEFvS10_EED0Ev
PUBLIC 4965c 0 _ZNKSt6__ndk110__function6__funcIZNK5geode4TaskINS2_6ResultINS_4__fs10filesystem4pathENS_12basic_stringIcNS_11char_traitsIcEENS_9allocatorIcEEEEEENS_9monostateEE6listenIZN22ClicksoundSetterNodeV38onFolderEPN7cocos2d8CCObjectEEUlPSE_E_ZNKSG_6listenISN_EEvOT_EUlRKSP_E_ZNKSO_ISN_EEvSQ_EUlvE_EEvSQ_OT0_OT1_EUlPNSG_5EventEE_NSB_IS11_EEFvS10_EE7__cloneEv
PUBLIC 4969c 0 _ZNKSt6__ndk110__function6__funcIZNK5geode4TaskINS2_6ResultINS_4__fs10filesystem4pathENS_12basic_stringIcNS_11char_traitsIcEENS_9allocatorIcEEEEEENS_9monostateEE6listenIZN22ClicksoundSetterNodeV38onFolderEPN7cocos2d8CCObjectEEUlPSE_E_ZNKSG_6listenISN_EEvOT_EUlRKSP_E_ZNKSO_ISN_EEvSQ_EUlvE_EEvSQ_OT0_OT1_EUlPNSG_5EventEE_NSB_IS11_EEFvS10_EE7__cloneEPNS0_6__baseIS13_EE
PUBLIC 496bc 0 _ZNSt6__ndk110__function6__funcIZNK5geode4TaskINS2_6ResultINS_4__fs10filesystem4pathENS_12basic_stringIcNS_11char_traitsIcEENS_9allocatorIcEEEEEENS_9monostateEE6listenIZN22ClicksoundSetterNodeV38onFolderEPN7cocos2d8CCObjectEEUlPSE_E_ZNKSG_6listenISN_EEvOT_EUlRKSP_E_ZNKSO_ISN_EEvSQ_EUlvE_EEvSQ_OT0_OT1_EUlPNSG_5EventEE_NSB_IS11_EEFvS10_EE7destroyEv
PUBLIC 496c0 0 _ZNSt6__ndk110__function6__funcIZNK5geode4TaskINS2_6ResultINS_4__fs10filesystem4pathENS_12basic_stringIcNS_11char_traitsIcEENS_9allocatorIcEEEEEENS_9monostateEE6listenIZN22ClicksoundSetterNodeV38onFolderEPN7cocos2d8CCObjectEEUlPSE_E_ZNKSG_6listenISN_EEvOT_EUlRKSP_E_ZNKSO_ISN_EEvSQ_EUlvE_EEvSQ_OT0_OT1_EUlPNSG_5EventEE_NSB_IS11_EEFvS10_EE18destroy_deallocateEv
PUBLIC 496c4 0 _ZNSt6__ndk110__function6__funcIZNK5geode4TaskINS2_6ResultINS_4__fs10filesystem4pathENS_12basic_stringIcNS_11char_traitsIcEENS_9allocatorIcEEEEEENS_9monostateEE6listenIZN22ClicksoundSetterNodeV38onFolderEPN7cocos2d8CCObjectEEUlPSE_E_ZNKSG_6listenISN_EEvOT_EUlRKSP_E_ZNKSO_ISN_EEvSQ_EUlvE_EEvSQ_OT0_OT1_EUlPNSG_5EventEE_NSB_IS11_EEFvS10_EEclEOS10_
PUBLIC 4998c 0 _ZNKSt6__ndk110__function6__funcIZNK5geode4TaskINS2_6ResultINS_4__fs10filesystem4pathENS_12basic_stringIcNS_11char_traitsIcEENS_9allocatorIcEEEEEENS_9monostateEE6listenIZN22ClicksoundSetterNodeV38onFolderEPN7cocos2d8CCObjectEEUlPSE_E_ZNKSG_6listenISN_EEvOT_EUlRKSP_E_ZNKSO_ISN_EEvSQ_EUlvE_EEvSQ_OT0_OT1_EUlPNSG_5EventEE_NSB_IS11_EEFvS10_EE6targetERKSt9type_info
PUBLIC 499a8 0 _ZNKSt6__ndk110__function6__funcIZNK5geode4TaskINS2_6ResultINS_4__fs10filesystem4pathENS_12basic_stringIcNS_11char_traitsIcEENS_9allocatorIcEEEEEENS_9monostateEE6listenIZN22ClicksoundSetterNodeV38onFolderEPN7cocos2d8CCObjectEEUlPSE_E_ZNKSG_6listenISN_EEvOT_EUlRKSP_E_ZNKSO_ISN_EEvSQ_EUlvE_EEvSQ_OT0_OT1_EUlPNSG_5EventEE_NSB_IS11_EEFvS10_EE11target_typeEv
PUBLIC 499b4 0 _ZNSt6__ndk110__function6__funcIZZNK5geode4TaskINS2_6ResultINS_4__fs10filesystem4pathENS_12basic_stringIcNS_11char_traitsIcEENS_9allocatorIcEEEEEENS_9monostateEE6listenIZN22ClicksoundSetterNodeV38onFolderEPN7cocos2d8CCObjectEEUlPSE_E_ZNKSG_6listenISN_EEvOT_EUlRKSP_E_ZNKSO_ISN_EEvSQ_EUlvE_EEvSQ_OT0_OT1_ENUlPNSG_5EventEE_clES10_EUlvE_NSB_IS12_EEFvvEED0Ev
PUBLIC 499b8 0 _ZNKSt6__ndk110__function6__funcIZZNK5geode4TaskINS2_6ResultINS_4__fs10filesystem4pathENS_12basic_stringIcNS_11char_traitsIcEENS_9allocatorIcEEEEEENS_9monostateEE6listenIZN22ClicksoundSetterNodeV38onFolderEPN7cocos2d8CCObjectEEUlPSE_E_ZNKSG_6listenISN_EEvOT_EUlRKSP_E_ZNKSO_ISN_EEvSQ_EUlvE_EEvSQ_OT0_OT1_ENUlPNSG_5EventEE_clES10_EUlvE_NSB_IS12_EEFvvEE7__cloneEv
PUBLIC 499ec 0 _ZNKSt6__ndk110__function6__funcIZZNK5geode4TaskINS2_6ResultINS_4__fs10filesystem4pathENS_12basic_stringIcNS_11char_traitsIcEENS_9allocatorIcEEEEEENS_9monostateEE6listenIZN22ClicksoundSetterNodeV38onFolderEPN7cocos2d8CCObjectEEUlPSE_E_ZNKSG_6listenISN_EEvOT_EUlRKSP_E_ZNKSO_ISN_EEvSQ_EUlvE_EEvSQ_OT0_OT1_ENUlPNSG_5EventEE_clES10_EUlvE_NSB_IS12_EEFvvEE7__cloneEPNS0_6__baseIS14_EE
PUBLIC 49a00 0 _ZNSt6__ndk110__function6__funcIZZNK5geode4TaskINS2_6ResultINS_4__fs10filesystem4pathENS_12basic_stringIcNS_11char_traitsIcEENS_9allocatorIcEEEEEENS_9monostateEE6listenIZN22ClicksoundSetterNodeV38onFolderEPN7cocos2d8CCObjectEEUlPSE_E_ZNKSG_6listenISN_EEvOT_EUlRKSP_E_ZNKSO_ISN_EEvSQ_EUlvE_EEvSQ_OT0_OT1_ENUlPNSG_5EventEE_clES10_EUlvE_NSB_IS12_EEFvvEE7destroyEv
PUBLIC 49a04 0 _ZNSt6__ndk110__function6__funcIZZNK5geode4TaskINS2_6ResultINS_4__fs10filesystem4pathENS_12basic_stringIcNS_11char_traitsIcEENS_9allocatorIcEEEEEENS_9monostateEE6listenIZN22ClicksoundSetterNodeV38onFolderEPN7cocos2d8CCObjectEEUlPSE_E_ZNKSG_6listenISN_EEvOT_EUlRKSP_E_ZNKSO_ISN_EEvSQ_EUlvE_EEvSQ_OT0_OT1_ENUlPNSG_5EventEE_clES10_EUlvE_NSB_IS12_EEFvvEE18destroy_deallocateEv
PUBLIC 49a08 0 _ZNSt6__ndk110__function6__funcIZZNK5geode4TaskINS2_6ResultINS_4__fs10filesystem4pathENS_12basic_stringIcNS_11char_traitsIcEENS_9allocatorIcEEEEEENS_9monostateEE6listenIZN22ClicksoundSetterNodeV38onFolderEPN7cocos2d8CCObjectEEUlPSE_E_ZNKSG_6listenISN_EEvOT_EUlRKSP_E_ZNKSO_ISN_EEvSQ_EUlvE_EEvSQ_OT0_OT1_ENUlPNSG_5EventEE_clES10_EUlvE_NSB_IS12_EEFvvEEclEv
PUBLIC 49a20 0 _ZNKSt6__ndk110__function6__funcIZZNK5geode4TaskINS2_6ResultINS_4__fs10filesystem4pathENS_12basic_stringIcNS_11char_traitsIcEENS_9allocatorIcEEEEEENS_9monostateEE6listenIZN22ClicksoundSetterNodeV38onFolderEPN7cocos2d8CCObjectEEUlPSE_E_ZNKSG_6listenISN_EEvOT_EUlRKSP_E_ZNKSO_ISN_EEvSQ_EUlvE_EEvSQ_OT0_OT1_ENUlPNSG_5EventEE_clES10_EUlvE_NSB_IS12_EEFvvEE6targetERKSt9type_info
PUBLIC 49a3c 0 _ZNKSt6__ndk110__function6__funcIZZNK5geode4TaskINS2_6ResultINS_4__fs10filesystem4pathENS_12basic_stringIcNS_11char_traitsIcEENS_9allocatorIcEEEEEENS_9monostateEE6listenIZN22ClicksoundSetterNodeV38onFolderEPN7cocos2d8CCObjectEEUlPSE_E_ZNKSG_6listenISN_EEvOT_EUlRKSP_E_ZNKSO_ISN_EEvSQ_EUlvE_EEvSQ_OT0_OT1_ENUlPNSG_5EventEE_clES10_EUlvE_NSB_IS12_EEFvvEE11target_typeEv
PUBLIC 49a48 0 Select::~Select()
PUBLIC 49b20 0 Select::~Select()
PUBLIC 49c00 0 geode::Popup<>::registerWithTouchDispatcher()
PUBLIC 49c2c 0 geode::Popup<>::keyDown(cocos2d::enumKeyCodes)
PUBLIC 49c54 0 cocos2d::CCLayerRGBA::setOpacityModifyRGB(bool)
PUBLIC 49c58 0 cocos2d::CCLayerRGBA::isOpacityModifyRGB()
PUBLIC 49c60 0 Select::setup()
PUBLIC 4a000 0 geode::Popup<>::onClose(cocos2d::CCObject*)
PUBLIC 4a134 0 {virtual override thunk({offset(-320)}, Select::~Select())}
PUBLIC 4a210 0 {virtual override thunk({offset(-320)}, Select::~Select())}
PUBLIC 4a2f4 0 {virtual override thunk({offset(-344)}, geode::Popup<>::keyDown(cocos2d::enumKeyCodes))}
PUBLIC 4a320 0 cocos2d::CCKeyboardDelegate::keyUp(cocos2d::enumKeyCodes)
PUBLIC 4a324 0 cocos2d::CCMouseDelegate::rightKeyDown()
PUBLIC 4a328 0 cocos2d::CCMouseDelegate::rightKeyUp()
PUBLIC 4a32c 0 cocos2d::CCMouseDelegate::scrollWheel(float, float)
PUBLIC 4a330 0 {virtual override thunk({offset(-408)}, cocos2d::CCLayerRGBA::setOpacityModifyRGB(bool))}
PUBLIC 4a334 0 {virtual override thunk({offset(-408)}, cocos2d::CCLayerRGBA::isOpacityModifyRGB())}
PUBLIC 4a33c 0 geode::Popup<>::~Popup()
PUBLIC 4a3a8 0 geode::Popup<>::~Popup()
PUBLIC 4a3ac 0 {virtual override thunk({offset(-320)}, geode::Popup<>::~Popup())}
PUBLIC 4a418 0 {virtual override thunk({offset(-320)}, geode::Popup<>::~Popup())}
PUBLIC 4a41c 0 std::__ndk1::__function::__base<void (std::__ndk1::basic_string<char, std::__ndk1::char_traits<char>, std::__ndk1::allocator<char> > const&)>::~__base()
PUBLIC 4a420 0 std::__ndk1::__function::__func<Select::addSearchBar()::{lambda(std::__ndk1::basic_string<char, std::__ndk1::char_traits<char>, std::__ndk1::allocator<char> >)#1}, std::__ndk1::allocator<Select::addSearchBar()::{lambda(std::__ndk1::basic_string<char, std::__ndk1::char_traits<char>, std::__ndk1::allocator<char> >)#1}>, void (std::__ndk1::basic_string<char, std::__ndk1::char_traits<char>, std::__ndk1::allocator<char> > const&)>::~__func()
PUBLIC 4a424 0 std::__ndk1::__function::__func<Select::addSearchBar()::{lambda(std::__ndk1::basic_string<char, std::__ndk1::char_traits<char>, std::__ndk1::allocator<char> >)#1}, std::__ndk1::allocator<Select::addSearchBar()::{lambda(std::__ndk1::basic_string<char, std::__ndk1::char_traits<char>, std::__ndk1::allocator<char> >)#1}>, void (std::__ndk1::basic_string<char, std::__ndk1::char_traits<char>, std::__ndk1::allocator<char> > const&)>::__clone() const
PUBLIC 4a458 0 std::__ndk1::__function::__func<Select::addSearchBar()::{lambda(std::__ndk1::basic_string<char, std::__ndk1::char_traits<char>, std::__ndk1::allocator<char> >)#1}, std::__ndk1::allocator<Select::addSearchBar()::{lambda(std::__ndk1::basic_string<char, std::__ndk1::char_traits<char>, std::__ndk1::allocator<char> >)#1}>, void (std::__ndk1::basic_string<char, std::__ndk1::char_traits<char>, std::__ndk1::allocator<char> > const&)>::__clone(std::__ndk1::__function::__base<void (std::__ndk1::basic_string<char, std::__ndk1::char_traits<char>, std::__ndk1::allocator<char> > const&)>*) const
PUBLIC 4a46c 0 std::__ndk1::__function::__func<Select::addSearchBar()::{lambda(std::__ndk1::basic_string<char, std::__ndk1::char_traits<char>, std::__ndk1::allocator<char> >)#1}, std::__ndk1::allocator<Select::addSearchBar()::{lambda(std::__ndk1::basic_string<char, std::__ndk1::char_traits<char>, std::__ndk1::allocator<char> >)#1}>, void (std::__ndk1::basic_string<char, std::__ndk1::char_traits<char>, std::__ndk1::allocator<char> > const&)>::destroy()
PUBLIC 4a470 0 std::__ndk1::__function::__func<Select::addSearchBar()::{lambda(std::__ndk1::basic_string<char, std::__ndk1::char_traits<char>, std::__ndk1::allocator<char> >)#1}, std::__ndk1::allocator<Select::addSearchBar()::{lambda(std::__ndk1::basic_string<char, std::__ndk1::char_traits<char>, std::__ndk1::allocator<char> >)#1}>, void (std::__ndk1::basic_string<char, std::__ndk1::char_traits<char>, std::__ndk1::allocator<char> > const&)>::destroy_deallocate()
PUBLIC 4a474 0 std::__ndk1::__function::__func<Select::addSearchBar()::{lambda(std::__ndk1::basic_string<char, std::__ndk1::char_traits<char>, std::__ndk1::allocator<char> >)#1}, std::__ndk1::allocator<Select::addSearchBar()::{lambda(std::__ndk1::basic_string<char, std::__ndk1::char_traits<char>, std::__ndk1::allocator<char> >)#1}>, void (std::__ndk1::basic_string<char, std::__ndk1::char_traits<char>, std::__ndk1::allocator<char> > const&)>::operator()(std::__ndk1::basic_string<char, std::__ndk1::char_traits<char>, std::__ndk1::allocator<char> > const&)
PUBLIC 4ab7c 0 std::__ndk1::__function::__func<Select::addSearchBar()::{lambda(std::__ndk1::basic_string<char, std::__ndk1::char_traits<char>, std::__ndk1::allocator<char> >)#1}, std::__ndk1::allocator<Select::addSearchBar()::{lambda(std::__ndk1::basic_string<char, std::__ndk1::char_traits<char>, std::__ndk1::allocator<char> >)#1}>, void (std::__ndk1::basic_string<char, std::__ndk1::char_traits<char>, std::__ndk1::allocator<char> > const&)>::target(std::type_info const&) const
PUBLIC 4ab98 0 std::__ndk1::__function::__func<Select::addSearchBar()::{lambda(std::__ndk1::basic_string<char, std::__ndk1::char_traits<char>, std::__ndk1::allocator<char> >)#1}, std::__ndk1::allocator<Select::addSearchBar()::{lambda(std::__ndk1::basic_string<char, std::__ndk1::char_traits<char>, std::__ndk1::allocator<char> >)#1}>, void (std::__ndk1::basic_string<char, std::__ndk1::char_traits<char>, std::__ndk1::allocator<char> > const&)>::target_type() const
PUBLIC 4aba4 0 std::__ndk1::basic_regex<char, std::__ndk1::regex_traits<char> >::~basic_regex()
PUBLIC 4ac04 0 std::__ndk1::shared_ptr<std::__ndk1::__empty_state<char> >::~shared_ptr[abi:ne190000]()
PUBLIC 4ac54 0 std::__ndk1::basic_regex<char, std::__ndk1::regex_traits<char> >::__parse<std::__ndk1::__wrap_iter<char const*> >(std::__ndk1::__wrap_iter<char const*>, std::__ndk1::__wrap_iter<char const*>)
PUBLIC 4b124 0 std::__ndk1::__throw_regex_error[abi:ne190000]<(std::__ndk1::regex_constants::error_type)17>()
PUBLIC 4b170 0 std::__ndk1::basic_regex<char, std::__ndk1::regex_traits<char> >::__parse_ecma_exp<std::__ndk1::__wrap_iter<char const*> >(std::__ndk1::__wrap_iter<char const*>, std::__ndk1::__wrap_iter<char const*>)
PUBLIC 4b3dc 0 std::__ndk1::basic_regex<char, std::__ndk1::regex_traits<char> >::__parse_basic_reg_exp<std::__ndk1::__wrap_iter<char const*> >(std::__ndk1::__wrap_iter<char const*>, std::__ndk1::__wrap_iter<char const*>)
PUBLIC 4b564 0 std::__ndk1::basic_regex<char, std::__ndk1::regex_traits<char> >::__parse_extended_reg_exp<std::__ndk1::__wrap_iter<char const*> >(std::__ndk1::__wrap_iter<char const*>, std::__ndk1::__wrap_iter<char const*>)
PUBLIC 4b6d4 0 std::__ndk1::__throw_regex_error[abi:ne190000]<(std::__ndk1::regex_constants::error_type)14>()
PUBLIC 4b720 0 std::__ndk1::__end_state<char>::~__end_state()
PUBLIC 4b724 0 std::__ndk1::__end_state<char>::__exec(std::__ndk1::__state<char>&) const
PUBLIC 4b730 0 std::__ndk1::__node<char>::__exec_split(bool, std::__ndk1::__state<char>&) const
PUBLIC 4b734 0 std::__ndk1::__node<char>::__exec(std::__ndk1::__state<char>&) const
PUBLIC 4b738 0 std::__ndk1::__shared_ptr_pointer<std::__ndk1::__empty_state<char>*, std::__ndk1::shared_ptr<std::__ndk1::__empty_state<char> >::__shared_ptr_default_delete<std::__ndk1::__empty_state<char>, std::__ndk1::__empty_state<char> >, std::__ndk1::allocator<std::__ndk1::__empty_state<char> > >::~__shared_ptr_pointer()
PUBLIC 4b75c 0 std::__ndk1::__shared_ptr_pointer<std::__ndk1::__empty_state<char>*, std::__ndk1::shared_ptr<std::__ndk1::__empty_state<char> >::__shared_ptr_default_delete<std::__ndk1::__empty_state<char>, std::__ndk1::__empty_state<char> >, std::__ndk1::allocator<std::__ndk1::__empty_state<char> > >::__on_zero_shared()
PUBLIC 4b774 0 std::__ndk1::__shared_ptr_pointer<std::__ndk1::__empty_state<char>*, std::__ndk1::shared_ptr<std::__ndk1::__empty_state<char> >::__shared_ptr_default_delete<std::__ndk1::__empty_state<char>, std::__ndk1::__empty_state<char> >, std::__ndk1::allocator<std::__ndk1::__empty_state<char> > >::__get_deleter(std::type_info const&) const
PUBLIC 4b790 0 std::__ndk1::__shared_ptr_pointer<std::__ndk1::__empty_state<char>*, std::__ndk1::shared_ptr<std::__ndk1::__empty_state<char> >::__shared_ptr_default_delete<std::__ndk1::__empty_state<char>, std::__ndk1::__empty_state<char> >, std::__ndk1::allocator<std::__ndk1::__empty_state<char> > >::__on_zero_shared_weak()
PUBLIC 4b794 0 std::__ndk1::__empty_state<char>::~__empty_state()
PUBLIC 4b7dc 0 std::__ndk1::__empty_state<char>::__exec(std::__ndk1::__state<char>&) const
PUBLIC 4b7f0 0 std::__ndk1::__owns_one_state<char>::~__owns_one_state()
PUBLIC 4b838 0 std::__ndk1::basic_regex<char, std::__ndk1::regex_traits<char> >::__parse_assertion<std::__ndk1::__wrap_iter<char const*> >(std::__ndk1::__wrap_iter<char const*>, std::__ndk1::__wrap_iter<char const*>)
PUBLIC 4bb9c 0 std::__ndk1::basic_regex<char, std::__ndk1::regex_traits<char> >::__parse_atom<std::__ndk1::__wrap_iter<char const*> >(std::__ndk1::__wrap_iter<char const*>, std::__ndk1::__wrap_iter<char const*>)
PUBLIC 4c214 0 std::__ndk1::basic_regex<char, std::__ndk1::regex_traits<char> >::__parse_ERE_dupl_symbol<std::__ndk1::__wrap_iter<char const*> >(std::__ndk1::__wrap_iter<char const*>, std::__ndk1::__wrap_iter<char const*>, std::__ndk1::__owns_one_state<char>*, unsigned int, unsigned int)
PUBLIC 4c614 0 std::__ndk1::basic_regex<char, std::__ndk1::regex_traits<char> >::basic_regex[abi:ne190000]()
PUBLIC 4c680 0 std::__ndk1::basic_regex<char, std::__ndk1::regex_traits<char> >::__push_lookahead(std::__ndk1::basic_regex<char, std::__ndk1::regex_traits<char> > const&, bool, unsigned int)
PUBLIC 4c734 0 std::__ndk1::__throw_regex_error[abi:ne190000]<(std::__ndk1::regex_constants::error_type)6>()
PUBLIC 4c780 0 std::__ndk1::__l_anchor_multiline<char>::~__l_anchor_multiline()
PUBLIC 4c7c8 0 std::__ndk1::__l_anchor_multiline<char>::__exec(std::__ndk1::__state<char>&) const
PUBLIC 4c82c 0 std::__ndk1::__r_anchor_multiline<char>::~__r_anchor_multiline()
PUBLIC 4c874 0 std::__ndk1::__r_anchor_multiline<char>::__exec(std::__ndk1::__state<char>&) const
PUBLIC 4c8c8 0 std::__ndk1::__word_boundary<char, std::__ndk1::regex_traits<char> >::~__word_boundary()
PUBLIC 4c924 0 std::__ndk1::__word_boundary<char, std::__ndk1::regex_traits<char> >::~__word_boundary()
PUBLIC 4c97c 0 std::__ndk1::__word_boundary<char, std::__ndk1::regex_traits<char> >::__exec(std::__ndk1::__state<char>&) const
PUBLIC 4ca8c 0 std::__ndk1::__lookahead<char, std::__ndk1::regex_traits<char> >::~__lookahead()
PUBLIC 4cb1c 0 std::__ndk1::__lookahead<char, std::__ndk1::regex_traits<char> >::~__lookahead()
PUBLIC 4cba8 0 std::__ndk1::__lookahead<char, std::__ndk1::regex_traits<char> >::__exec(std::__ndk1::__state<char>&) const
PUBLIC 4cd78 0 std::__ndk1::basic_regex<char, std::__ndk1::regex_traits<char> >::__match_at_start_ecma<std::__ndk1::allocator<std::__ndk1::sub_match<char const*> > >(char const*, char const*, std::__ndk1::match_results<char const*, std::__ndk1::allocator<std::__ndk1::sub_match<char const*> > >&, std::__ndk1::regex_constants::match_flag_type, bool) const
PUBLIC 4d1b8 0 std::__ndk1::vector<std::__ndk1::sub_match<char const*>, std::__ndk1::allocator<std::__ndk1::sub_match<char const*> > >::assign(unsigned long, std::__ndk1::sub_match<char const*> const&)
PUBLIC 4d388 0 std::__ndk1::vector<std::__ndk1::sub_match<char const*>, std::__ndk1::allocator<std::__ndk1::sub_match<char const*> > >::__throw_length_error[abi:ne190000]() const
PUBLIC 4d39c 0 std::__ndk1::__state<char>::~__state()
PUBLIC 4d3e0 0 std::__ndk1::__throw_regex_error[abi:ne190000]<(std::__ndk1::regex_constants::error_type)12>()
PUBLIC 4d42c 0 std::__ndk1::__state<char>::__state(std::__ndk1::__state<char> const&)
PUBLIC 4d59c 0 std::__ndk1::__throw_regex_error[abi:ne190000]<(std::__ndk1::regex_constants::error_type)16>()
PUBLIC 4d5e8 0 std::__ndk1::vector<std::__ndk1::__state<char>, std::__ndk1::allocator<std::__ndk1::__state<char> > >::~vector[abi:ne190000]()
PUBLIC 4d680 0 std::__ndk1::vector<std::__ndk1::__state<char>, std::__ndk1::allocator<std::__ndk1::__state<char> > >::__push_back_slow_path<std::__ndk1::__state<char> >(std::__ndk1::__state<char>&&)
PUBLIC 4d84c 0 std::__ndk1::vector<std::__ndk1::__state<char>, std::__ndk1::allocator<std::__ndk1::__state<char> > >::__throw_length_error[abi:ne190000]() const
PUBLIC 4d860 0 std::__ndk1::vector<std::__ndk1::sub_match<char const*>, std::__ndk1::allocator<std::__ndk1::sub_match<char const*> > >::__append(unsigned long, std::__ndk1::sub_match<char const*> const&)
PUBLIC 4d9e8 0 std::__ndk1::vector<std::__ndk1::pair<unsigned long, char const*>, std::__ndk1::allocator<std::__ndk1::pair<unsigned long, char const*> > >::__append(unsigned long)
PUBLIC 4db10 0 std::__ndk1::vector<std::__ndk1::pair<unsigned long, char const*>, std::__ndk1::allocator<std::__ndk1::pair<unsigned long, char const*> > >::__throw_length_error[abi:ne190000]() const
PUBLIC 4db24 0 std::__ndk1::basic_regex<char, std::__ndk1::regex_traits<char> >::__parse_bracket_expression<std::__ndk1::__wrap_iter<char const*> >(std::__ndk1::__wrap_iter<char const*>, std::__ndk1::__wrap_iter<char const*>)
PUBLIC 4ed0c 0 std::__ndk1::__throw_regex_error[abi:ne190000]<(std::__ndk1::regex_constants::error_type)11>()
PUBLIC 4ed58 0 std::__ndk1::__match_any_but_newline<char>::~__match_any_but_newline()
PUBLIC 4eda0 0 std::__ndk1::__throw_regex_error[abi:ne190000]<(std::__ndk1::regex_constants::error_type)3>()
PUBLIC 4edec 0 std::__ndk1::basic_regex<char, std::__ndk1::regex_traits<char> >::__parse_character_escape<std::__ndk1::__wrap_iter<char const*> >(std::__ndk1::__wrap_iter<char const*>, std::__ndk1::__wrap_iter<char const*>, std::__ndk1::basic_string<char, std::__ndk1::char_traits<char>, std::__ndk1::allocator<char> >*)
PUBLIC 4f304 0 std::__ndk1::basic_regex<char, std::__ndk1::regex_traits<char> >::__push_char(char)
PUBLIC 4f444 0 std::__ndk1::__throw_regex_error[abi:ne190000]<(std::__ndk1::regex_constants::error_type)4>()
PUBLIC 4f490 0 std::__ndk1::basic_regex<char, std::__ndk1::regex_traits<char> >::__push_back_ref(int)
PUBLIC 4f558 0 std::__ndk1::__match_char_icase<char, std::__ndk1::regex_traits<char> >::~__match_char_icase()
PUBLIC 4f5b4 0 std::__ndk1::__match_char_icase<char, std::__ndk1::regex_traits<char> >::~__match_char_icase()
PUBLIC 4f60c 0 std::__ndk1::__match_char_icase<char, std::__ndk1::regex_traits<char> >::__exec(std::__ndk1::__state<char>&) const
PUBLIC 4f68c 0 std::__ndk1::__match_char_collate<char, std::__ndk1::regex_traits<char> >::~__match_char_collate()
PUBLIC 4f6e8 0 std::__ndk1::__match_char_collate<char, std::__ndk1::regex_traits<char> >::~__match_char_collate()
PUBLIC 4f740 0 std::__ndk1::__match_char_collate<char, std::__ndk1::regex_traits<char> >::__exec(std::__ndk1::__state<char>&) const
PUBLIC 4f788 0 std::__ndk1::__match_char<char>::~__match_char()
PUBLIC 4f7d0 0 std::__ndk1::__match_char<char>::__exec(std::__ndk1::__state<char>&) const
PUBLIC 4f818 0 std::__ndk1::__back_ref_icase<char, std::__ndk1::regex_traits<char> >::~__back_ref_icase()
PUBLIC 4f874 0 std::__ndk1::__back_ref_icase<char, std::__ndk1::regex_traits<char> >::~__back_ref_icase()
PUBLIC 4f8cc 0 std::__ndk1::__back_ref_icase<char, std::__ndk1::regex_traits<char> >::__exec(std::__ndk1::__state<char>&) const
PUBLIC 4f9c4 0 std::__ndk1::__back_ref_collate<char, std::__ndk1::regex_traits<char> >::~__back_ref_collate()
PUBLIC 4fa20 0 std::__ndk1::__back_ref_collate<char, std::__ndk1::regex_traits<char> >::~__back_ref_collate()
PUBLIC 4fa78 0 std::__ndk1::__back_ref_collate<char, std::__ndk1::regex_traits<char> >::__exec(std::__ndk1::__state<char>&) const
PUBLIC 4fb00 0 std::__ndk1::__back_ref<char>::~__back_ref()
PUBLIC 4fb48 0 std::__ndk1::__back_ref<char>::__exec(std::__ndk1::__state<char>&) const
PUBLIC 4fc10 0 std::__ndk1::__bracket_expression<char, std::__ndk1::regex_traits<char> >::__add_char[abi:ne190000](char)
PUBLIC 4fd94 0 std::__ndk1::__bracket_expression<char, std::__ndk1::regex_traits<char> >::__bracket_expression[abi:ne190000](std::__ndk1::regex_traits<char> const&, std::__ndk1::__node<char>*, bool, bool, bool)
PUBLIC 4ff6c 0 std::__ndk1::vector<std::__ndk1::pair<std::__ndk1::basic_string<char, std::__ndk1::char_traits<char>, std::__ndk1::allocator<char> >, std::__ndk1::basic_string<char, std::__ndk1::char_traits<char>, std::__ndk1::allocator<char> > >, std::__ndk1::allocator<std::__ndk1::pair<std::__ndk1::basic_string<char, std::__ndk1::char_traits<char>, std::__ndk1::allocator<char> >, std::__ndk1::basic_string<char, std::__ndk1::char_traits<char>, std::__ndk1::allocator<char> > > > >::~vector[abi:ne190000]()
PUBLIC 50018 0 std::__ndk1::__bracket_expression<char, std::__ndk1::regex_traits<char> >::~__bracket_expression()
PUBLIC 5016c 0 std::__ndk1::__bracket_expression<char, std::__ndk1::regex_traits<char> >::~__bracket_expression()
PUBLIC 50190 0 std::__ndk1::__bracket_expression<char, std::__ndk1::regex_traits<char> >::__exec(std::__ndk1::__state<char>&) const
PUBLIC 50dc4 0 std::__ndk1::pair<std::__ndk1::basic_string<char, std::__ndk1::char_traits<char>, std::__ndk1::allocator<char> >, std::__ndk1::basic_string<char, std::__ndk1::char_traits<char>, std::__ndk1::allocator<char> > >::~pair()
PUBLIC 50e08 0 std::__ndk1::regex_traits<char>::__transform_primary<char*>(char*, char*, char) const
PUBLIC 50fdc 0 std::__ndk1::vector<char, std::__ndk1::allocator<char> >::__throw_length_error[abi:ne190000]() const
PUBLIC 50ff0 0 std::__ndk1::__throw_regex_error[abi:ne190000]<(std::__ndk1::regex_constants::error_type)5>()
PUBLIC 5103c 0 std::__ndk1::basic_regex<char, std::__ndk1::regex_traits<char> >::__parse_class_escape<std::__ndk1::__wrap_iter<char const*> >(std::__ndk1::__wrap_iter<char const*>, std::__ndk1::__wrap_iter<char const*>, std::__ndk1::basic_string<char, std::__ndk1::char_traits<char>, std::__ndk1::allocator<char> >&, std::__ndk1::__bracket_expression<char, std::__ndk1::regex_traits<char> >*)
PUBLIC 51370 0 std::__ndk1::basic_regex<char, std::__ndk1::regex_traits<char> >::__parse_awk_escape<std::__ndk1::__wrap_iter<char const*> >(std::__ndk1::__wrap_iter<char const*>, std::__ndk1::__wrap_iter<char const*>, std::__ndk1::basic_string<char, std::__ndk1::char_traits<char>, std::__ndk1::allocator<char> >*)
PUBLIC 51834 0 std::__ndk1::__bracket_expression<char, std::__ndk1::regex_traits<char> >::__add_digraph[abi:ne190000](char, char)
PUBLIC 51a4c 0 std::__ndk1::__throw_regex_error[abi:ne190000]<(std::__ndk1::regex_constants::error_type)1>()
PUBLIC 51a98 0 std::__ndk1::regex_traits<char>::__lookup_collatename<std::__ndk1::__wrap_iter<char const*> >(std::__ndk1::__wrap_iter<char const*>, std::__ndk1::__wrap_iter<char const*>, char) const
PUBLIC 51db4 0 std::__ndk1::__throw_regex_error[abi:ne190000]<(std::__ndk1::regex_constants::error_type)2>()
PUBLIC 51e00 0 std::__ndk1::regex_traits<char>::transform<std::__ndk1::__wrap_iter<char*> >(std::__ndk1::__wrap_iter<char*>, std::__ndk1::__wrap_iter<char*>) const
PUBLIC 51fc4 0 std::__ndk1::__throw_regex_error[abi:ne190000]<(std::__ndk1::regex_constants::error_type)9>()
PUBLIC 52010 0 std::__ndk1::vector<std::__ndk1::pair<std::__ndk1::basic_string<char, std::__ndk1::char_traits<char>, std::__ndk1::allocator<char> >, std::__ndk1::basic_string<char, std::__ndk1::char_traits<char>, std::__ndk1::allocator<char> > >, std::__ndk1::allocator<std::__ndk1::pair<std::__ndk1::basic_string<char, std::__ndk1::char_traits<char>, std::__ndk1::allocator<char> >, std::__ndk1::basic_string<char, std::__ndk1::char_traits<char>, std::__ndk1::allocator<char> > > > >::__push_back_slow_path<std::__ndk1::pair<std::__ndk1::basic_string<char, std::__ndk1::char_traits<char>, std::__ndk1::allocator<char> >, std::__ndk1::basic_string<char, std::__ndk1::char_traits<char>, std::__ndk1::allocator<char> > > >(std::__ndk1::pair<std::__ndk1::basic_string<char, std::__ndk1::char_traits<char>, std::__ndk1::allocator<char> >, std::__ndk1::basic_string<char, std::__ndk1::char_traits<char>, std::__ndk1::allocator<char> > >&&)
PUBLIC 521b8 0 std::__ndk1::vector<std::__ndk1::pair<std::__ndk1::basic_string<char, std::__ndk1::char_traits<char>, std::__ndk1::allocator<char> >, std::__ndk1::basic_string<char, std::__ndk1::char_traits<char>, std::__ndk1::allocator<char> > >, std::__ndk1::allocator<std::__ndk1::pair<std::__ndk1::basic_string<char, std::__ndk1::char_traits<char>, std::__ndk1::allocator<char> >, std::__ndk1::basic_string<char, std::__ndk1::char_traits<char>, std::__ndk1::allocator<char> > > > >::__throw_length_error[abi:ne190000]() const
PUBLIC 521cc 0 std::__ndk1::vector<std::__ndk1::pair<char, char>, std::__ndk1::allocator<std::__ndk1::pair<char, char> > >::__throw_length_error[abi:ne190000]() const
PUBLIC 521e0 0 std::__ndk1::__begin_marked_subexpression<char>::~__begin_marked_subexpression()
PUBLIC 52228 0 std::__ndk1::__begin_marked_subexpression<char>::__exec(std::__ndk1::__state<char>&) const
PUBLIC 52258 0 std::__ndk1::__end_marked_subexpression<char>::~__end_marked_subexpression()
PUBLIC 522a0 0 std::__ndk1::__end_marked_subexpression<char>::__exec(std::__ndk1::__state<char>&) const
PUBLIC 522d8 0 std::__ndk1::basic_regex<char, std::__ndk1::regex_traits<char> >::__push_loop(unsigned long, unsigned long, std::__ndk1::__owns_one_state<char>*, unsigned long, unsigned long, bool)
PUBLIC 52418 0 std::__ndk1::__throw_regex_error[abi:ne190000]<(std::__ndk1::regex_constants::error_type)8>()
PUBLIC 52464 0 std::__ndk1::__throw_regex_error[abi:ne190000]<(std::__ndk1::regex_constants::error_type)7>()
PUBLIC 524b0 0 std::__ndk1::__loop<char>::~__loop()
PUBLIC 52518 0 std::__ndk1::__loop<char>::__exec(std::__ndk1::__state<char>&) const
PUBLIC 526dc 0 std::__ndk1::__loop<char>::__exec_split(bool, std::__ndk1::__state<char>&) const
PUBLIC 527a0 0 std::__ndk1::__owns_two_states<char>::~__owns_two_states()
PUBLIC 52808 0 std::__ndk1::__repeat_one_loop<char>::~__repeat_one_loop()
PUBLIC 5280c 0 std::__ndk1::__repeat_one_loop<char>::__exec(std::__ndk1::__state<char>&) const
PUBLIC 52820 0 std::__ndk1::__owns_two_states<char>::~__owns_two_states()
PUBLIC 5288c 0 std::__ndk1::__alternate<char>::~__alternate()
PUBLIC 528f4 0 std::__ndk1::__alternate<char>::__exec(std::__ndk1::__state<char>&) const
PUBLIC 52900 0 std::__ndk1::__alternate<char>::__exec_split(bool, std::__ndk1::__state<char>&) const
PUBLIC 52924 0 std::__ndk1::__node<char>::~__node()
PUBLIC 52928 0 std::__ndk1::__empty_non_own_state<char>::~__empty_non_own_state()
PUBLIC 5292c 0 std::__ndk1::__empty_non_own_state<char>::__exec(std::__ndk1::__state<char>&) const
PUBLIC 52940 0 std::__ndk1::__throw_regex_error[abi:ne190000]<(std::__ndk1::regex_constants::error_type)15>()
PUBLIC 5298c 0 std::__ndk1::basic_regex<char, std::__ndk1::regex_traits<char> >::__parse_nondupl_RE<std::__ndk1::__wrap_iter<char const*> >(std::__ndk1::__wrap_iter<char const*>, std::__ndk1::__wrap_iter<char const*>)
PUBLIC 52cc0 0 std::__ndk1::basic_regex<char, std::__ndk1::regex_traits<char> >::__parse_RE_dupl_symbol<std::__ndk1::__wrap_iter<char const*> >(std::__ndk1::__wrap_iter<char const*>, std::__ndk1::__wrap_iter<char const*>, std::__ndk1::__owns_one_state<char>*, unsigned int, unsigned int)
PUBLIC 52f34 0 std::__ndk1::__owns_one_state<char>::~__owns_one_state()
PUBLIC 52f60 0 std::__ndk1::__match_any<char>::~__match_any()
PUBLIC 52fa8 0 std::__ndk1::__match_any<char>::__exec(std::__ndk1::__state<char>&) const
PUBLIC 52fe8 0 std::__ndk1::basic_regex<char, std::__ndk1::regex_traits<char> >::__test_back_ref(char)
PUBLIC 53048 0 std::__ndk1::basic_regex<char, std::__ndk1::regex_traits<char> >::__parse_ERE_expression<std::__ndk1::__wrap_iter<char const*> >(std::__ndk1::__wrap_iter<char const*>, std::__ndk1::__wrap_iter<char const*>)
PUBLIC 53344 0 std::__ndk1::basic_regex<char, std::__ndk1::regex_traits<char> >::__parse_QUOTED_CHAR_ERE<std::__ndk1::__wrap_iter<char const*> >(std::__ndk1::__wrap_iter<char const*>, std::__ndk1::__wrap_iter<char const*>)
PUBLIC 53414 0 std::__ndk1::basic_regex<char, std::__ndk1::regex_traits<char> >::__match_at_start_posix_nosubs<std::__ndk1::allocator<std::__ndk1::sub_match<char const*> > >(char const*, char const*, std::__ndk1::match_results<char const*, std::__ndk1::allocator<std::__ndk1::sub_match<char const*> > >&, std::__ndk1::regex_constants::match_flag_type, bool) const
PUBLIC 54294 0 std::__ndk1::basic_regex<char, std::__ndk1::regex_traits<char> >::__match_at_start_posix_subs<std::__ndk1::allocator<std::__ndk1::sub_match<char const*> > >(char const*, char const*, std::__ndk1::match_results<char const*, std::__ndk1::allocator<std::__ndk1::sub_match<char const*> > >&, std::__ndk1::regex_constants::match_flag_type, bool) const
PUBLIC 54c5c 0 std::__ndk1::deque<std::__ndk1::__state<char>, std::__ndk1::allocator<std::__ndk1::__state<char> > >::~deque[abi:ne190000]()
PUBLIC 54e24 0 std::__ndk1::deque<std::__ndk1::__state<char>, std::__ndk1::allocator<std::__ndk1::__state<char> > >::__add_back_capacity()
PUBLIC 553fc 0 std::__ndk1::__split_buffer<std::__ndk1::__state<char>*, std::__ndk1::allocator<std::__ndk1::__state<char>*> >::push_back(std::__ndk1::__state<char>*&&)
PUBLIC 55584 0 std::__ndk1::__split_buffer<std::__ndk1::__state<char>*, std::__ndk1::allocator<std::__ndk1::__state<char>*> >::push_front(std::__ndk1::__state<char>*&&)
PUBLIC 55710 0 std::__ndk1::__split_buffer<std::__ndk1::__state<char>*, std::__ndk1::allocator<std::__ndk1::__state<char>*> >::push_front(std::__ndk1::__state<char>* const&)
PUBLIC 5589c 0 geode::Popup<>::CloseEvent::~CloseEvent()
PUBLIC 558fc 0 geode::Popup<>::CloseEvent::~CloseEvent()
PUBLIC 5596c 0 std::__ndk1::__shared_ptr_emplace<geode::Popup<>::CloseEvent::Impl, std::__ndk1::allocator<geode::Popup<>::CloseEvent::Impl> >::~__shared_ptr_emplace()
PUBLIC 5597c 0 std::__ndk1::__shared_ptr_emplace<geode::Popup<>::CloseEvent::Impl, std::__ndk1::allocator<geode::Popup<>::CloseEvent::Impl> >::~__shared_ptr_emplace()
PUBLIC 559ac 0 std::__ndk1::__shared_ptr_emplace<geode::Popup<>::CloseEvent::Impl, std::__ndk1::allocator<geode::Popup<>::CloseEvent::Impl> >::__on_zero_shared()
PUBLIC 559b0 0 std::__ndk1::__shared_ptr_emplace<geode::Popup<>::CloseEvent::Impl, std::__ndk1::allocator<geode::Popup<>::CloseEvent::Impl> >::__on_zero_shared_weak()
PUBLIC 559b4 0 geode::Ref<cocos2d::CCNode>::~Ref()
PUBLIC 559d0 0 std::__ndk1::unique_ptr<std::__ndk1::__tree_node<std::__ndk1::__value_type<std::__ndk1::basic_string<char, std::__ndk1::char_traits<char>, std::__ndk1::allocator<char> >, CategoryData>, void*>, std::__ndk1::__tree_node_destructor<std::__ndk1::allocator<std::__ndk1::__tree_node<std::__ndk1::__value_type<std::__ndk1::basic_string<char, std::__ndk1::char_traits<char>, std::__ndk1::allocator<char> >, CategoryData>, void*> > > >::~unique_ptr[abi:ne190000]()
PUBLIC 55a24 0 std::__ndk1::__tree<std::__ndk1::__value_type<std::__ndk1::basic_string<char, std::__ndk1::char_traits<char>, std::__ndk1::allocator<char> >, CategoryData>, std::__ndk1::__map_value_compare<std::__ndk1::basic_string<char, std::__ndk1::char_traits<char>, std::__ndk1::allocator<char> >, std::__ndk1::__value_type<std::__ndk1::basic_string<char, std::__ndk1::char_traits<char>, std::__ndk1::allocator<char> >, CategoryData>, std::__ndk1::less<std::__ndk1::basic_string<char, std::__ndk1::char_traits<char>, std::__ndk1::allocator<char> > >, true>, std::__ndk1::allocator<std::__ndk1::__value_type<std::__ndk1::basic_string<char, std::__ndk1::char_traits<char>, std::__ndk1::allocator<char> >, CategoryData> > >::destroy(std::__ndk1::__tree_node<std::__ndk1::__value_type<std::__ndk1::basic_string<char, std::__ndk1::char_traits<char>, std::__ndk1::allocator<char> >, CategoryData>, void*>*)
PUBLIC 55a74 0 CCIndexPackNode::init(CategoryData, std::__ndk1::function<void ()>, bool)
PUBLIC 57b08 0 CCIndexPackNode::~CCIndexPackNode()
PUBLIC 57be4 0 CCIndexPackNode::~CCIndexPackNode()
PUBLIC 57cc8 0 {virtual override thunk({offset(-320)}, CCIndexPackNode::~CCIndexPackNode())}
PUBLIC 57da8 0 {virtual override thunk({offset(-320)}, CCIndexPackNode::~CCIndexPackNode())}
PUBLIC 57db0 0 CategoryData::operator=(CategoryData const&)
PUBLIC 57f0c 0 geode::impl::ResultData<std::__ndk1::vector<matjson::Value, std::__ndk1::allocator<matjson::Value> >&, std::__ndk1::basic_string<char, std::__ndk1::char_traits<char>, std::__ndk1::allocator<char> > >::~ResultData()
PUBLIC 57f80 0 std::__ndk1::basic_string<char, std::__ndk1::char_traits<char>, std::__ndk1::allocator<char> >::operator+=[abi:ne190000](std::__ndk1::basic_string<char, std::__ndk1::char_traits<char>, std::__ndk1::allocator<char> > const&)
PUBLIC 57f9c 0 CCIndexPackNode::OnDevelopers<cocos2d::CCObject*>(cocos2d::CCObject*)
PUBLIC 582ac 0 CCIndexPackNode::selected(cocos2d::CCObject*)
PUBLIC 582c4 0 std::__ndk1::vector<std::__ndk1::basic_string<char, std::__ndk1::char_traits<char>, std::__ndk1::allocator<char> >, std::__ndk1::allocator<std::__ndk1::basic_string<char, std::__ndk1::char_traits<char>, std::__ndk1::allocator<char> > > >::__assign_with_size[abi:ne190000]<std::__ndk1::basic_string<char, std::__ndk1::char_traits<char>, std::__ndk1::allocator<char> >*, std::__ndk1::vector<std::__ndk1::basic_string<char, std::__ndk1::char_traits<char>, std::__ndk1::allocator<char> >, std::__ndk1::allocator<std::__ndk1::basic_string<char, std::__ndk1::char_traits<char>, std::__ndk1::allocator<char> > > >::__assign_with_size[abi:ne190000]>(std::__ndk1::basic_string<char, std::__ndk1::char_traits<char>, std::__ndk1::allocator<char> >*, std::__ndk1::vector<std::__ndk1::basic_string<char, std::__ndk1::char_traits<char>, std::__ndk1::allocator<char> >, std::__ndk1::allocator<std::__ndk1::basic_string<char, std::__ndk1::char_traits<char>, std::__ndk1::allocator<char> > > >::__assign_with_size[abi:ne190000], long)
PUBLIC 586a8 0 AutoScaleCCLabelBMFont::~AutoScaleCCLabelBMFont()
PUBLIC 586cc 0 AutoScaleCCLabelBMFont::setString(char const*)
PUBLIC 58760 0 {virtual override thunk({offset(-360)}, AutoScaleCCLabelBMFont::setString(char const*))}
PUBLIC 587fc 0 geode::impl::ResultData<long, std::__ndk1::basic_string<char, std::__ndk1::char_traits<char>, std::__ndk1::allocator<char> > >::~ResultData()
PUBLIC 58870 0 std::__ndk1::__variant_detail::__visitation::__base::__dispatcher<(unsigned long)0>::__dispatch[abi:ne190000]<std::__ndk1::__variant_detail::__dtor<std::__ndk1::__variant_detail::__traits<long, std::__ndk1::basic_string<char, std::__ndk1::char_traits<char>, std::__ndk1::allocator<char> > >, (std::__ndk1::__variant_detail::_Trait)1>::__destroy[abi:ne190000]()::{lambda(auto:1&)#1}, std::__ndk1::__variant_detail::__base<(std::__ndk1::__variant_detail::__traits<long, std::__ndk1::basic_string<char, std::__ndk1::char_traits<char>, std::__ndk1::allocator<char> > >)1, long, std::__ndk1::allocator<char> >&>(std::__ndk1::__variant_detail::__dtor<std::__ndk1::__variant_detail::__traits<long, std::__ndk1::basic_string<char, std::__ndk1::char_traits<char>, std::__ndk1::allocator<char> > >, (std::__ndk1::__variant_detail::_Trait)1>, std::__ndk1::__variant_detail::__base<(std::__ndk1::__variant_detail::__traits<long, std::__ndk1::basic_string<char, std::__ndk1::char_traits<char>, std::__ndk1::allocator<char> > >)1, long, std::__ndk1::allocator<char> >&)
PUBLIC 58874 0 std::__ndk1::__variant_detail::__visitation::__base::__dispatcher<(unsigned long)1>::__dispatch[abi:ne190000]<std::__ndk1::__variant_detail::__dtor<std::__ndk1::__variant_detail::__traits<long, std::__ndk1::basic_string<char, std::__ndk1::char_traits<char>, std::__ndk1::allocator<char> > >, (std::__ndk1::__variant_detail::_Trait)1>::__destroy[abi:ne190000]()::{lambda(auto:1&)#1}, std::__ndk1::__variant_detail::__base<(std::__ndk1::__variant_detail::__traits<long, std::__ndk1::basic_string<char, std::__ndk1::char_traits<char>, std::__ndk1::allocator<char> > >)1, long, std::__ndk1::allocator<char> >&>(std::__ndk1::__variant_detail::__dtor<std::__ndk1::__variant_detail::__traits<long, std::__ndk1::basic_string<char, std::__ndk1::char_traits<char>, std::__ndk1::allocator<char> > >, (std::__ndk1::__variant_detail::_Trait)1>, std::__ndk1::__variant_detail::__base<(std::__ndk1::__variant_detail::__traits<long, std::__ndk1::basic_string<char, std::__ndk1::char_traits<char>, std::__ndk1::allocator<char> > >)1, long, std::__ndk1::allocator<char> >&)
PUBLIC 58888 0 std::__ndk1::__variant_detail::__visitation::__base::__dispatcher<(unsigned long)0>::__dispatch[abi:ne190000]<std::__ndk1::__variant_detail::__dtor<std::__ndk1::__variant_detail::__traits<std::__ndk1::reference_wrapper<std::__ndk1::vector<matjson::Value, std::__ndk1::allocator<matjson> > >, std::__ndk1::basic_string<char, std::__ndk1::char_traits<char>, matjson::Value<char> > >, (std::__ndk1::__variant_detail::_Trait)1>::__destroy[abi:ne190000]()::{lambda(auto:1&)#1}, std::__ndk1::__variant_detail::__base<(std::__ndk1::__variant_detail::__traits<std::__ndk1::reference_wrapper<std::__ndk1::vector<matjson::Value, std::__ndk1::allocator<matjson> > >, std::__ndk1::basic_string<char, std::__ndk1::char_traits<char>, matjson::Value<char> > >)1, std::__ndk1::vector<matjson::Value, std::__ndk1::allocator<matjson> >, matjson::Value<char> >&>(std::__ndk1::__variant_detail::__dtor<std::__ndk1::__variant_detail::__traits<std::__ndk1::reference_wrapper<std::__ndk1::vector<matjson::Value, std::__ndk1::allocator<matjson> > >, std::__ndk1::basic_string<char, std::__ndk1::char_traits<char>, matjson::Value<char> > >, (std::__ndk1::__variant_detail::_Trait)1>, std::__ndk1::__variant_detail::__base<(std::__ndk1::__variant_detail::__traits<std::__ndk1::reference_wrapper<std::__ndk1::vector<matjson::Value, std::__ndk1::allocator<matjson> > >, std::__ndk1::basic_string<char, std::__ndk1::char_traits<char>, matjson::Value<char> > >)1, std::__ndk1::vector<matjson::Value, std::__ndk1::allocator<matjson> >, matjson::Value<char> >&)
PUBLIC 5888c 0 std::__ndk1::__variant_detail::__visitation::__base::__dispatcher<(unsigned long)1>::__dispatch[abi:ne190000]<std::__ndk1::__variant_detail::__dtor<std::__ndk1::__variant_detail::__traits<std::__ndk1::reference_wrapper<std::__ndk1::vector<matjson::Value, std::__ndk1::allocator<matjson> > >, std::__ndk1::basic_string<char, std::__ndk1::char_traits<char>, matjson::Value<char> > >, (std::__ndk1::__variant_detail::_Trait)1>::__destroy[abi:ne190000]()::{lambda(auto:1&)#1}, std::__ndk1::__variant_detail::__base<(std::__ndk1::__variant_detail::__traits<std::__ndk1::reference_wrapper<std::__ndk1::vector<matjson::Value, std::__ndk1::allocator<matjson> > >, std::__ndk1::basic_string<char, std::__ndk1::char_traits<char>, matjson::Value<char> > >)1, std::__ndk1::vector<matjson::Value, std::__ndk1::allocator<matjson> >, matjson::Value<char> >&>(std::__ndk1::__variant_detail::__dtor<std::__ndk1::__variant_detail::__traits<std::__ndk1::reference_wrapper<std::__ndk1::vector<matjson::Value, std::__ndk1::allocator<matjson> > >, std::__ndk1::basic_string<char, std::__ndk1::char_traits<char>, matjson::Value<char> > >, (std::__ndk1::__variant_detail::_Trait)1>, std::__ndk1::__variant_detail::__base<(std::__ndk1::__variant_detail::__traits<std::__ndk1::reference_wrapper<std::__ndk1::vector<matjson::Value, std::__ndk1::allocator<matjson> > >, std::__ndk1::basic_string<char, std::__ndk1::char_traits<char>, matjson::Value<char> > >)1, std::__ndk1::vector<matjson::Value, std::__ndk1::allocator<matjson> >, matjson::Value<char> >&)
PUBLIC 588a0 0 std::__ndk1::__function::__func<Select::Item<CategoryData, std::__ndk1::basic_string<char, std::__ndk1::char_traits<char>, std::__ndk1::allocator<char> > >(CategoryData, std::__ndk1::basic_string<char, std::__ndk1::char_traits<char>, std::__ndk1::allocator<char> >, bool)::{lambda()#1}, std::__ndk1::allocator<Select::Item<CategoryData, std::__ndk1::basic_string<char, std::__ndk1::char_traits<char>, std::__ndk1::allocator<char> > >(CategoryData, std::__ndk1::basic_string<char, std::__ndk1::char_traits<char>, std::__ndk1::allocator<char> >, bool)::{lambda()#1}>, void ()>::~__func()
PUBLIC 588c0 0 std::__ndk1::__function::__func<Select::Item<CategoryData, std::__ndk1::basic_string<char, std::__ndk1::char_traits<char>, std::__ndk1::allocator<char> > >(CategoryData, std::__ndk1::basic_string<char, std::__ndk1::char_traits<char>, std::__ndk1::allocator<char> >, bool)::{lambda()#1}, std::__ndk1::allocator<Select::Item<CategoryData, std::__ndk1::basic_string<char, std::__ndk1::char_traits<char>, std::__ndk1::allocator<char> > >(CategoryData, std::__ndk1::basic_string<char, std::__ndk1::char_traits<char>, std::__ndk1::allocator<char> >, bool)::{lambda()#1}>, void ()>::~__func()
PUBLIC 58900 0 std::__ndk1::__function::__func<Select::Item<CategoryData, std::__ndk1::basic_string<char, std::__ndk1::char_traits<char>, std::__ndk1::allocator<char> > >(CategoryData, std::__ndk1::basic_string<char, std::__ndk1::char_traits<char>, std::__ndk1::allocator<char> >, bool)::{lambda()#1}, std::__ndk1::allocator<Select::Item<CategoryData, std::__ndk1::basic_string<char, std::__ndk1::char_traits<char>, std::__ndk1::allocator<char> > >(CategoryData, std::__ndk1::basic_string<char, std::__ndk1::char_traits<char>, std::__ndk1::allocator<char> >, bool)::{lambda()#1}>, void ()>::__clone() const
PUBLIC 58988 0 std::__ndk1::__function::__func<Select::Item<CategoryData, std::__ndk1::basic_string<char, std::__ndk1::char_traits<char>, std::__ndk1::allocator<char> > >(CategoryData, std::__ndk1::basic_string<char, std::__ndk1::char_traits<char>, std::__ndk1::allocator<char> >, bool)::{lambda()#1}, std::__ndk1::allocator<Select::Item<CategoryData, std::__ndk1::basic_string<char, std::__ndk1::char_traits<char>, std::__ndk1::allocator<char> > >(CategoryData, std::__ndk1::basic_string<char, std::__ndk1::char_traits<char>, std::__ndk1::allocator<char> >, bool)::{lambda()#1}>, void ()>::__clone(std::__ndk1::__function::__base<void ()>*) const
PUBLIC 589c8 0 std::__ndk1::__function::__func<Select::Item<CategoryData, std::__ndk1::basic_string<char, std::__ndk1::char_traits<char>, std::__ndk1::allocator<char> > >(CategoryData, std::__ndk1::basic_string<char, std::__ndk1::char_traits<char>, std::__ndk1::allocator<char> >, bool)::{lambda()#1}, std::__ndk1::allocator<Select::Item<CategoryData, std::__ndk1::basic_string<char, std::__ndk1::char_traits<char>, std::__ndk1::allocator<char> > >(CategoryData, std::__ndk1::basic_string<char, std::__ndk1::char_traits<char>, std::__ndk1::allocator<char> >, bool)::{lambda()#1}>, void ()>::destroy()
PUBLIC 589dc 0 std::__ndk1::__function::__func<Select::Item<CategoryData, std::__ndk1::basic_string<char, std::__ndk1::char_traits<char>, std::__ndk1::allocator<char> > >(CategoryData, std::__ndk1::basic_string<char, std::__ndk1::char_traits<char>, std::__ndk1::allocator<char> >, bool)::{lambda()#1}, std::__ndk1::allocator<Select::Item<CategoryData, std::__ndk1::basic_string<char, std::__ndk1::char_traits<char>, std::__ndk1::allocator<char> > >(CategoryData, std::__ndk1::basic_string<char, std::__ndk1::char_traits<char>, std::__ndk1::allocator<char> >, bool)::{lambda()#1}>, void ()>::destroy_deallocate()
PUBLIC 58a10 0 std::__ndk1::__function::__func<Select::Item<CategoryData, std::__ndk1::basic_string<char, std::__ndk1::char_traits<char>, std::__ndk1::allocator<char> > >(CategoryData, std::__ndk1::basic_string<char, std::__ndk1::char_traits<char>, std::__ndk1::allocator<char> >, bool)::{lambda()#1}, std::__ndk1::allocator<Select::Item<CategoryData, std::__ndk1::basic_string<char, std::__ndk1::char_traits<char>, std::__ndk1::allocator<char> > >(CategoryData, std::__ndk1::basic_string<char, std::__ndk1::char_traits<char>, std::__ndk1::allocator<char> >, bool)::{lambda()#1}>, void ()>::operator()()
PUBLIC 58afc 0 std::__ndk1::__function::__func<Select::Item<CategoryData, std::__ndk1::basic_string<char, std::__ndk1::char_traits<char>, std::__ndk1::allocator<char> > >(CategoryData, std::__ndk1::basic_string<char, std::__ndk1::char_traits<char>, std::__ndk1::allocator<char> >, bool)::{lambda()#1}, std::__ndk1::allocator<Select::Item<CategoryData, std::__ndk1::basic_string<char, std::__ndk1::char_traits<char>, std::__ndk1::allocator<char> > >(CategoryData, std::__ndk1::basic_string<char, std::__ndk1::char_traits<char>, std::__ndk1::allocator<char> >, bool)::{lambda()#1}>, void ()>::target(std::type_info const&) const
PUBLIC 58b18 0 std::__ndk1::__function::__func<Select::Item<CategoryData, std::__ndk1::basic_string<char, std::__ndk1::char_traits<char>, std::__ndk1::allocator<char> > >(CategoryData, std::__ndk1::basic_string<char, std::__ndk1::char_traits<char>, std::__ndk1::allocator<char> >, bool)::{lambda()#1}, std::__ndk1::allocator<Select::Item<CategoryData, std::__ndk1::basic_string<char, std::__ndk1::char_traits<char>, std::__ndk1::allocator<char> > >(CategoryData, std::__ndk1::basic_string<char, std::__ndk1::char_traits<char>, std::__ndk1::allocator<char> >, bool)::{lambda()#1}>, void ()>::target_type() const
PUBLIC 58b24 0 std::__ndk1::__function::__base<void (std::__ndk1::basic_string<char, std::__ndk1::char_traits<char>, std::__ndk1::allocator<char> >)>::~__base()
PUBLIC 58b28 0 std::__ndk1::__function::__func<ClicksoundSetterNodeV3::Popup(cocos2d::CCObject*)::{lambda(std::__ndk1::basic_string<char, std::__ndk1::char_traits<char>, std::__ndk1::allocator<char> >)#1}, std::__ndk1::allocator<ClicksoundSetterNodeV3::Popup(cocos2d::CCObject*)::{lambda(std::__ndk1::basic_string<char, std::__ndk1::char_traits<char>, std::__ndk1::allocator<char> >)#1}>, void (std::__ndk1::basic_string<char, std::__ndk1::char_traits<char>, std::__ndk1::allocator<char> >)>::~__func()
PUBLIC 58b2c 0 std::__ndk1::__function::__func<ClicksoundSetterNodeV3::Popup(cocos2d::CCObject*)::{lambda(std::__ndk1::basic_string<char, std::__ndk1::char_traits<char>, std::__ndk1::allocator<char> >)#1}, std::__ndk1::allocator<ClicksoundSetterNodeV3::Popup(cocos2d::CCObject*)::{lambda(std::__ndk1::basic_string<char, std::__ndk1::char_traits<char>, std::__ndk1::allocator<char> >)#1}>, void (std::__ndk1::basic_string<char, std::__ndk1::char_traits<char>, std::__ndk1::allocator<char> >)>::__clone() const
PUBLIC 58b60 0 std::__ndk1::__function::__func<ClicksoundSetterNodeV3::Popup(cocos2d::CCObject*)::{lambda(std::__ndk1::basic_string<char, std::__ndk1::char_traits<char>, std::__ndk1::allocator<char> >)#1}, std::__ndk1::allocator<ClicksoundSetterNodeV3::Popup(cocos2d::CCObject*)::{lambda(std::__ndk1::basic_string<char, std::__ndk1::char_traits<char>, std::__ndk1::allocator<char> >)#1}>, void (std::__ndk1::basic_string<char, std::__ndk1::char_traits<char>, std::__ndk1::allocator<char> >)>::__clone(std::__ndk1::__function::__base<void (std::__ndk1::basic_string<char, std::__ndk1::char_traits<char>, std::__ndk1::allocator<char> >)>*) const
PUBLIC 58b74 0 std::__ndk1::__function::__func<ClicksoundSetterNodeV3::Popup(cocos2d::CCObject*)::{lambda(std::__ndk1::basic_string<char, std::__ndk1::char_traits<char>, std::__ndk1::allocator<char> >)#1}, std::__ndk1::allocator<ClicksoundSetterNodeV3::Popup(cocos2d::CCObject*)::{lambda(std::__ndk1::basic_string<char, std::__ndk1::char_traits<char>, std::__ndk1::allocator<char> >)#1}>, void (std::__ndk1::basic_string<char, std::__ndk1::char_traits<char>, std::__ndk1::allocator<char> >)>::destroy()
PUBLIC 58b78 0 std::__ndk1::__function::__func<ClicksoundSetterNodeV3::Popup(cocos2d::CCObject*)::{lambda(std::__ndk1::basic_string<char, std::__ndk1::char_traits<char>, std::__ndk1::allocator<char> >)#1}, std::__ndk1::allocator<ClicksoundSetterNodeV3::Popup(cocos2d::CCObject*)::{lambda(std::__ndk1::basic_string<char, std::__ndk1::char_traits<char>, std::__ndk1::allocator<char> >)#1}>, void (std::__ndk1::basic_string<char, std::__ndk1::char_traits<char>, std::__ndk1::allocator<char> >)>::destroy_deallocate()
PUBLIC 58b7c 0 std::__ndk1::__function::__func<ClicksoundSetterNodeV3::Popup(cocos2d::CCObject*)::{lambda(std::__ndk1::basic_string<char, std::__ndk1::char_traits<char>, std::__ndk1::allocator<char> >)#1}, std::__ndk1::allocator<ClicksoundSetterNodeV3::Popup(cocos2d::CCObject*)::{lambda(std::__ndk1::basic_string<char, std::__ndk1::char_traits<char>, std::__ndk1::allocator<char> >)#1}>, void (std::__ndk1::basic_string<char, std::__ndk1::char_traits<char>, std::__ndk1::allocator<char> >)>::operator()(std::__ndk1::basic_string<char, std::__ndk1::char_traits<char>, std::__ndk1::allocator<char> >&&)
PUBLIC 58de8 0 std::__ndk1::__function::__func<ClicksoundSetterNodeV3::Popup(cocos2d::CCObject*)::{lambda(std::__ndk1::basic_string<char, std::__ndk1::char_traits<char>, std::__ndk1::allocator<char> >)#1}, std::__ndk1::allocator<ClicksoundSetterNodeV3::Popup(cocos2d::CCObject*)::{lambda(std::__ndk1::basic_string<char, std::__ndk1::char_traits<char>, std::__ndk1::allocator<char> >)#1}>, void (std::__ndk1::basic_string<char, std::__ndk1::char_traits<char>, std::__ndk1::allocator<char> >)>::target(std::type_info const&) const
PUBLIC 58e04 0 std::__ndk1::__function::__func<ClicksoundSetterNodeV3::Popup(cocos2d::CCObject*)::{lambda(std::__ndk1::basic_string<char, std::__ndk1::char_traits<char>, std::__ndk1::allocator<char> >)#1}, std::__ndk1::allocator<ClicksoundSetterNodeV3::Popup(cocos2d::CCObject*)::{lambda(std::__ndk1::basic_string<char, std::__ndk1::char_traits<char>, std::__ndk1::allocator<char> >)#1}>, void (std::__ndk1::basic_string<char, std::__ndk1::char_traits<char>, std::__ndk1::allocator<char> >)>::target_type() const
PUBLIC 58e10 0 std::__ndk1::vector<CCMenuItemToggler*, std::__ndk1::allocator<CCMenuItemToggler*> >::__throw_length_error[abi:ne190000]() const
PUBLIC 58e24 0 std::__ndk1::vector<std::__ndk1::pair<CCMenuItemToggler*, char const*>, std::__ndk1::allocator<std::__ndk1::pair<CCMenuItemToggler*, char const*> > >::__throw_length_error[abi:ne190000]() const
PUBLIC 58e38 0 MyButtonSettingNodeV3::~MyButtonSettingNodeV3()
PUBLIC 58ee4 0 MyButtonSettingNodeV3::~MyButtonSettingNodeV3()
PUBLIC 58fa0 0 MyButtonSettingNodeV3::updateState(cocos2d::CCNode*)
PUBLIC 590d8 0 MyButtonSettingNodeV3::onCommit()
PUBLIC 590dc 0 MyButtonSettingNodeV3::onResetToDefault()
PUBLIC 590e0 0 MyButtonSettingNodeV3::hasUncommittedChanges() const
PUBLIC 590e8 0 MyButtonSettingNodeV3::hasNonDefaultValue() const
PUBLIC 590f0 0 MyButtonSettingNodeV3::onButton(cocos2d::CCObject*)
PUBLIC 591a8 0 SoundCache::Play(bool)
PUBLIC 593d8 0 SoundCache::PlayModded(bool)
PUBLIC 594cc 0 geode::Mod::getSettingValue<long>(std::__ndk1::basic_string_view<char, std::__ndk1::char_traits<char> >) const
PUBLIC 595e4 0 std::__ndk1::__tree<std::__ndk1::__value_type<std::__ndk1::basic_string<char, std::__ndk1::char_traits<char>, std::__ndk1::allocator<char> >, CategoryData>, std::__ndk1::__map_value_compare<std::__ndk1::basic_string<char, std::__ndk1::char_traits<char>, std::__ndk1::allocator<char> >, std::__ndk1::__value_type<std::__ndk1::basic_string<char, std::__ndk1::char_traits<char>, std::__ndk1::allocator<char> >, CategoryData>, std::__ndk1::less<std::__ndk1::basic_string<char, std::__ndk1::char_traits<char>, std::__ndk1::allocator<char> > >, true>, std::__ndk1::allocator<std::__ndk1::__value_type<std::__ndk1::basic_string<char, std::__ndk1::char_traits<char>, std::__ndk1::allocator<char> >, CategoryData> > >::__emplace_unique_key_args<std::__ndk1::basic_string<char, std::__ndk1::char_traits<char>, std::__ndk1::allocator<char> >, std::__ndk1::piecewise_construct_t const&, std::__ndk1::tuple<std::__ndk1::basic_string<char, std::__ndk1::char_traits<char>, std::__ndk1::allocator<char> > const&>, std::__ndk1::tuple<> >(std::__ndk1::basic_string<char, std::__ndk1::char_traits<char>, std::__ndk1::allocator<char> > const&, std::__ndk1::piecewise_construct_t const&, std::__ndk1::tuple<std::__ndk1::basic_string<char, std::__ndk1::char_traits<char>, std::__ndk1::allocator<char> > const&>, std::__ndk1::tuple<>)
PUBLIC 597d0 0 std::__ndk1::vector<SoundCache*, std::__ndk1::allocator<SoundCache*> >::__throw_length_error[abi:ne190000]() const
PUBLIC 597e4 0 geode::EventListener<geode::Task<geode::utils::web::WebResponse, geode::utils::web::WebProgress> >::getPool() const
PUBLIC 597e8 0 geode::EventListener<geode::Task<geode::utils::web::WebResponse, geode::utils::web::WebProgress> >::handle(geode::Event*)
PUBLIC 599b4 0 geode::EventListener<geode::Task<geode::utils::web::WebResponse, geode::utils::web::WebProgress> >::~EventListener()
PUBLIC 59a58 0 geode::SettingBaseValueV3<ClicksoundSettingValue, ClicksoundSettingValue>::~SettingBaseValueV3()
PUBLIC 59ac4 0 geode::SettingBaseValueV3<ClicksoundSettingValue, ClicksoundSettingValue>::~SettingBaseValueV3()
PUBLIC 59ac8 0 std::__ndk1::__tree<std::__ndk1::__value_type<std::__ndk1::basic_string<char, std::__ndk1::char_traits<char>, std::__ndk1::allocator<char> >, CategoryData>, std::__ndk1::__map_value_compare<std::__ndk1::basic_string<char, std::__ndk1::char_traits<char>, std::__ndk1::allocator<char> >, std::__ndk1::__value_type<std::__ndk1::basic_string<char, std::__ndk1::char_traits<char>, std::__ndk1::allocator<char> >, CategoryData>, std::__ndk1::less<std::__ndk1::basic_string<char, std::__ndk1::char_traits<char>, std::__ndk1::allocator<char> > >, true>, std::__ndk1::allocator<std::__ndk1::__value_type<std::__ndk1::basic_string<char, std::__ndk1::char_traits<char>, std::__ndk1::allocator<char> >, CategoryData> > >::find<std::__ndk1::basic_string<char, std::__ndk1::char_traits<char>, std::__ndk1::allocator<char> > >(std::__ndk1::basic_string<char, std::__ndk1::char_traits<char>, std::__ndk1::allocator<char> > const&)
PUBLIC 59bf0 0 std::__ndk1::__throw_bad_weak_ptr[abi:ne190000]()
PUBLIC 59c24 0 ClicksoundSetterV3::parse(std::__ndk1::basic_string<char, std::__ndk1::char_traits<char>, std::__ndk1::allocator<char> > const&, std::__ndk1::basic_string<char, std::__ndk1::char_traits<char>, std::__ndk1::allocator<char> > const&, matjson::Value const&)
PUBLIC 5a020 0 geode::JsonExpectedValue::ok<std::__ndk1::shared_ptr<geode::SettingV3> >(std::__ndk1::shared_ptr<geode::SettingV3>)
PUBLIC 5a198 0 std::__ndk1::__shared_ptr_emplace<ClicksoundSetterV3, std::__ndk1::allocator<ClicksoundSetterV3> >::~__shared_ptr_emplace()
PUBLIC 5a1a8 0 std::__ndk1::__shared_ptr_emplace<ClicksoundSetterV3, std::__ndk1::allocator<ClicksoundSetterV3> >::~__shared_ptr_emplace()
PUBLIC 5a1d8 0 std::__ndk1::__shared_ptr_emplace<ClicksoundSetterV3, std::__ndk1::allocator<ClicksoundSetterV3> >::__on_zero_shared()
PUBLIC 5a1e4 0 std::__ndk1::__shared_ptr_emplace<ClicksoundSetterV3, std::__ndk1::allocator<ClicksoundSetterV3> >::__on_zero_shared_weak()
PUBLIC 5a1e8 0 std::__ndk1::__shared_ptr_emplace<geode::SettingBaseValueV3<ClicksoundSettingValue, ClicksoundSettingValue>::Impl, std::__ndk1::allocator<geode::SettingBaseValueV3<ClicksoundSettingValue, ClicksoundSettingValue>::Impl> >::~__shared_ptr_emplace()
PUBLIC 5a1f8 0 std::__ndk1::__shared_ptr_emplace<geode::SettingBaseValueV3<ClicksoundSettingValue, ClicksoundSettingValue>::Impl, std::__ndk1::allocator<geode::SettingBaseValueV3<ClicksoundSettingValue, ClicksoundSettingValue>::Impl> >::~__shared_ptr_emplace()
PUBLIC 5a228 0 std::__ndk1::__shared_ptr_emplace<geode::SettingBaseValueV3<ClicksoundSettingValue, ClicksoundSettingValue>::Impl, std::__ndk1::allocator<geode::SettingBaseValueV3<ClicksoundSettingValue, ClicksoundSettingValue>::Impl> >::__on_zero_shared()
PUBLIC 5a2d4 0 std::__ndk1::__shared_ptr_emplace<geode::SettingBaseValueV3<ClicksoundSettingValue, ClicksoundSettingValue>::Impl, std::__ndk1::allocator<geode::SettingBaseValueV3<ClicksoundSettingValue, ClicksoundSettingValue>::Impl> >::__on_zero_shared_weak()
PUBLIC 5a2d8 0 geode::JsonExpectedValue::into<ClicksoundSettingValue>(ClicksoundSettingValue&)
PUBLIC 5a4c0 0 std::__ndk1::__optional_destruct_base<ClicksoundSettingValue, false>::~__optional_destruct_base[abi:ne190000]()
PUBLIC 5a52c 0 geode::impl::ResultData<ClicksoundSettingValue, std::__ndk1::basic_string<char, std::__ndk1::char_traits<char>, std::__ndk1::allocator<char> > >::~ResultData()
PUBLIC 5a5a0 0 matjson::Serialize<ClicksoundSettingValue>::fromJson(matjson::Value const&)
PUBLIC 5aecc 0 geode::impl::OkContainer<ClicksoundSettingValue>::~OkContainer()
PUBLIC 5af30 0 std::__ndk1::__variant_detail::__visitation::__base::__dispatcher<(unsigned long)0>::__dispatch[abi:ne190000]<std::__ndk1::__variant_detail::__dtor<std::__ndk1::__variant_detail::__traits<ClicksoundSettingValue, std::__ndk1::basic_string<char, std::__ndk1::char_traits<char>, std::__ndk1::allocator<char> > >, (std::__ndk1::__variant_detail::_Trait)1>::__destroy[abi:ne190000]()::{lambda(auto:1&)#1}, std::__ndk1::__variant_detail::__base<(std::__ndk1::__variant_detail::__traits<ClicksoundSettingValue, std::__ndk1::basic_string<char, std::__ndk1::char_traits<char>, std::__ndk1::allocator<char> > >)1, std::__ndk1::__variant_detail::__traits, std::__ndk1::allocator<char> >&>(std::__ndk1::__variant_detail::__dtor<std::__ndk1::__variant_detail::__traits<ClicksoundSettingValue, std::__ndk1::basic_string<char, std::__ndk1::char_traits<char>, std::__ndk1::allocator<char> > >, (std::__ndk1::__variant_detail::_Trait)1>, std::__ndk1::__variant_detail::__base<(std::__ndk1::__variant_detail::__traits<ClicksoundSettingValue, std::__ndk1::basic_string<char, std::__ndk1::char_traits<char>, std::__ndk1::allocator<char> > >)1, std::__ndk1::__variant_detail::__traits, std::__ndk1::allocator<char> >&)
PUBLIC 5af94 0 std::__ndk1::__variant_detail::__visitation::__base::__dispatcher<(unsigned long)1>::__dispatch[abi:ne190000]<std::__ndk1::__variant_detail::__dtor<std::__ndk1::__variant_detail::__traits<ClicksoundSettingValue, std::__ndk1::basic_string<char, std::__ndk1::char_traits<char>, std::__ndk1::allocator<char> > >, (std::__ndk1::__variant_detail::_Trait)1>::__destroy[abi:ne190000]()::{lambda(auto:1&)#1}, std::__ndk1::__variant_detail::__base<(std::__ndk1::__variant_detail::__traits<ClicksoundSettingValue, std::__ndk1::basic_string<char, std::__ndk1::char_traits<char>, std::__ndk1::allocator<char> > >)1, std::__ndk1::__variant_detail::__traits, std::__ndk1::allocator<char> >&>(std::__ndk1::__variant_detail::__dtor<std::__ndk1::__variant_detail::__traits<ClicksoundSettingValue, std::__ndk1::basic_string<char, std::__ndk1::char_traits<char>, std::__ndk1::allocator<char> > >, (std::__ndk1::__variant_detail::_Trait)1>, std::__ndk1::__variant_detail::__base<(std::__ndk1::__variant_detail::__traits<ClicksoundSettingValue, std::__ndk1::basic_string<char, std::__ndk1::char_traits<char>, std::__ndk1::allocator<char> > >)1, std::__ndk1::__variant_detail::__traits, std::__ndk1::allocator<char> >&)
PUBLIC 5afa8 0 geode::JsonExpectedValue::tryGet<bool>()
PUBLIC 5b110 0 geode::impl::ResultData<bool, std::__ndk1::basic_string<char, std::__ndk1::char_traits<char>, std::__ndk1::allocator<char> > >::~ResultData()
PUBLIC 5b184 0 std::__ndk1::__variant_detail::__visitation::__base::__dispatcher<(unsigned long)0>::__dispatch[abi:ne190000]<std::__ndk1::__variant_detail::__dtor<std::__ndk1::__variant_detail::__traits<bool, std::__ndk1::basic_string<char, std::__ndk1::char_traits<char>, std::__ndk1::allocator<char> > >, (std::__ndk1::__variant_detail::_Trait)1>::__destroy[abi:ne190000]()::{lambda(auto:1&)#1}, std::__ndk1::__variant_detail::__base<(std::__ndk1::__variant_detail::__traits<bool, std::__ndk1::basic_string<char, std::__ndk1::char_traits<char>, std::__ndk1::allocator<char> > >)1, bool, std::__ndk1::allocator<char> >&>(std::__ndk1::__variant_detail::__dtor<std::__ndk1::__variant_detail::__traits<bool, std::__ndk1::basic_string<char, std::__ndk1::char_traits<char>, std::__ndk1::allocator<char> > >, (std::__ndk1::__variant_detail::_Trait)1>, std::__ndk1::__variant_detail::__base<(std::__ndk1::__variant_detail::__traits<bool, std::__ndk1::basic_string<char, std::__ndk1::char_traits<char>, std::__ndk1::allocator<char> > >)1, bool, std::__ndk1::allocator<char> >&)
PUBLIC 5b188 0 std::__ndk1::__variant_detail::__visitation::__base::__dispatcher<(unsigned long)1>::__dispatch[abi:ne190000]<std::__ndk1::__variant_detail::__dtor<std::__ndk1::__variant_detail::__traits<bool, std::__ndk1::basic_string<char, std::__ndk1::char_traits<char>, std::__ndk1::allocator<char> > >, (std::__ndk1::__variant_detail::_Trait)1>::__destroy[abi:ne190000]()::{lambda(auto:1&)#1}, std::__ndk1::__variant_detail::__base<(std::__ndk1::__variant_detail::__traits<bool, std::__ndk1::basic_string<char, std::__ndk1::char_traits<char>, std::__ndk1::allocator<char> > >)1, bool, std::__ndk1::allocator<char> >&>(std::__ndk1::__variant_detail::__dtor<std::__ndk1::__variant_detail::__traits<bool, std::__ndk1::basic_string<char, std::__ndk1::char_traits<char>, std::__ndk1::allocator<char> > >, (std::__ndk1::__variant_detail::_Trait)1>, std::__ndk1::__variant_detail::__base<(std::__ndk1::__variant_detail::__traits<bool, std::__ndk1::basic_string<char, std::__ndk1::char_traits<char>, std::__ndk1::allocator<char> > >)1, bool, std::__ndk1::allocator<char> >&)
PUBLIC 5b19c 0 std::__ndk1::__function::__base<geode::Result<std::__ndk1::shared_ptr<geode::SettingV3>, std::__ndk1::basic_string<char, std::__ndk1::char_traits<char>, std::__ndk1::allocator<char> > >(std::__ndk1::basic_string<char, std::__ndk1::char_traits<char>, std::__ndk1::allocator<char> > const&, std::__ndk1::basic_string<char, std::__ndk1::char_traits<char>, std::__ndk1::allocator<char> > const&, matjson::Value const&)>::~__base()
PUBLIC 5b1a0 0 std::__ndk1::__function::__func<geode::Result<std::__ndk1::shared_ptr<geode::SettingV3>, std::__ndk1::basic_string<char, std::__ndk1::char_traits<char>, std::__ndk1::allocator<char> > > (*)(std::__ndk1::basic_string<char, std::__ndk1::char_traits<char>, std::__ndk1::allocator<char> > const&, std::__ndk1::basic_string<char, std::__ndk1::char_traits<char>, std::__ndk1::allocator<char> > const&, matjson::Value const&), std::__ndk1::allocator<geode::Result<std::__ndk1::shared_ptr<geode::SettingV3>, std::__ndk1::basic_string<char, std::__ndk1::char_traits<char>, std::__ndk1::allocator<char> > > (*)(std::__ndk1::basic_string<char, std::__ndk1::char_traits<char>, std::__ndk1::allocator<char> > const&, std::__ndk1::basic_string<char, std::__ndk1::char_traits<char>, std::__ndk1::allocator<char> > const&, matjson::Value const&)>, geode::Result<std::__ndk1::shared_ptr<geode::SettingV3>, std::__ndk1::basic_string<char, std::__ndk1::char_traits<char>, std::__ndk1::allocator<char> > >(std::__ndk1::basic_string<char, std::__ndk1::char_traits<char>, std::__ndk1::allocator<char> > const&, std::__ndk1::basic_string<char, std::__ndk1::char_traits<char>, std::__ndk1::allocator<char> > const&, matjson::Value const&)>::~__func()
PUBLIC 5b1a4 0 std::__ndk1::__function::__func<geode::Result<std::__ndk1::shared_ptr<geode::SettingV3>, std::__ndk1::basic_string<char, std::__ndk1::char_traits<char>, std::__ndk1::allocator<char> > > (*)(std::__ndk1::basic_string<char, std::__ndk1::char_traits<char>, std::__ndk1::allocator<char> > const&, std::__ndk1::basic_string<char, std::__ndk1::char_traits<char>, std::__ndk1::allocator<char> > const&, matjson::Value const&), std::__ndk1::allocator<geode::Result<std::__ndk1::shared_ptr<geode::SettingV3>, std::__ndk1::basic_string<char, std::__ndk1::char_traits<char>, std::__ndk1::allocator<char> > > (*)(std::__ndk1::basic_string<char, std::__ndk1::char_traits<char>, std::__ndk1::allocator<char> > const&, std::__ndk1::basic_string<char, std::__ndk1::char_traits<char>, std::__ndk1::allocator<char> > const&, matjson::Value const&)>, geode::Result<std::__ndk1::shared_ptr<geode::SettingV3>, std::__ndk1::basic_string<char, std::__ndk1::char_traits<char>, std::__ndk1::allocator<char> > >(std::__ndk1::basic_string<char, std::__ndk1::char_traits<char>, std::__ndk1::allocator<char> > const&, std::__ndk1::basic_string<char, std::__ndk1::char_traits<char>, std::__ndk1::allocator<char> > const&, matjson::Value const&)>::__clone() const
PUBLIC 5b1d8 0 std::__ndk1::__function::__func<geode::Result<std::__ndk1::shared_ptr<geode::SettingV3>, std::__ndk1::basic_string<char, std::__ndk1::char_traits<char>, std::__ndk1::allocator<char> > > (*)(std::__ndk1::basic_string<char, std::__ndk1::char_traits<char>, std::__ndk1::allocator<char> > const&, std::__ndk1::basic_string<char, std::__ndk1::char_traits<char>, std::__ndk1::allocator<char> > const&, matjson::Value const&), std::__ndk1::allocator<geode::Result<std::__ndk1::shared_ptr<geode::SettingV3>, std::__ndk1::basic_string<char, std::__ndk1::char_traits<char>, std::__ndk1::allocator<char> > > (*)(std::__ndk1::basic_string<char, std::__ndk1::char_traits<char>, std::__ndk1::allocator<char> > const&, std::__ndk1::basic_string<char, std::__ndk1::char_traits<char>, std::__ndk1::allocator<char> > const&, matjson::Value const&)>, geode::Result<std::__ndk1::shared_ptr<geode::SettingV3>, std::__ndk1::basic_string<char, std::__ndk1::char_traits<char>, std::__ndk1::allocator<char> > >(std::__ndk1::basic_string<char, std::__ndk1::char_traits<char>, std::__ndk1::allocator<char> > const&, std::__ndk1::basic_string<char, std::__ndk1::char_traits<char>, std::__ndk1::allocator<char> > const&, matjson::Value const&)>::__clone(std::__ndk1::__function::__base<geode::Result<std::__ndk1::shared_ptr<geode::SettingV3>, std::__ndk1::basic_string<char, std::__ndk1::char_traits<char>, std::__ndk1::allocator<char> > >(std::__ndk1::basic_string<char, std::__ndk1::char_traits<char>, std::__ndk1::allocator<char> > const&, std::__ndk1::basic_string<char, std::__ndk1::char_traits<char>, std::__ndk1::allocator<char> > const&, matjson::Value const&)>*) const
PUBLIC 5b1ec 0 std::__ndk1::__function::__func<geode::Result<std::__ndk1::shared_ptr<geode::SettingV3>, std::__ndk1::basic_string<char, std::__ndk1::char_traits<char>, std::__ndk1::allocator<char> > > (*)(std::__ndk1::basic_string<char, std::__ndk1::char_traits<char>, std::__ndk1::allocator<char> > const&, std::__ndk1::basic_string<char, std::__ndk1::char_traits<char>, std::__ndk1::allocator<char> > const&, matjson::Value const&), std::__ndk1::allocator<geode::Result<std::__ndk1::shared_ptr<geode::SettingV3>, std::__ndk1::basic_string<char, std::__ndk1::char_traits<char>, std::__ndk1::allocator<char> > > (*)(std::__ndk1::basic_string<char, std::__ndk1::char_traits<char>, std::__ndk1::allocator<char> > const&, std::__ndk1::basic_string<char, std::__ndk1::char_traits<char>, std::__ndk1::allocator<char> > const&, matjson::Value const&)>, geode::Result<std::__ndk1::shared_ptr<geode::SettingV3>, std::__ndk1::basic_string<char, std::__ndk1::char_traits<char>, std::__ndk1::allocator<char> > >(std::__ndk1::basic_string<char, std::__ndk1::char_traits<char>, std::__ndk1::allocator<char> > const&, std::__ndk1::basic_string<char, std::__ndk1::char_traits<char>, std::__ndk1::allocator<char> > const&, matjson::Value const&)>::destroy()
PUBLIC 5b1f0 0 std::__ndk1::__function::__func<geode::Result<std::__ndk1::shared_ptr<geode::SettingV3>, std::__ndk1::basic_string<char, std::__ndk1::char_traits<char>, std::__ndk1::allocator<char> > > (*)(std::__ndk1::basic_string<char, std::__ndk1::char_traits<char>, std::__ndk1::allocator<char> > const&, std::__ndk1::basic_string<char, std::__ndk1::char_traits<char>, std::__ndk1::allocator<char> > const&, matjson::Value const&), std::__ndk1::allocator<geode::Result<std::__ndk1::shared_ptr<geode::SettingV3>, std::__ndk1::basic_string<char, std::__ndk1::char_traits<char>, std::__ndk1::allocator<char> > > (*)(std::__ndk1::basic_string<char, std::__ndk1::char_traits<char>, std::__ndk1::allocator<char> > const&, std::__ndk1::basic_string<char, std::__ndk1::char_traits<char>, std::__ndk1::allocator<char> > const&, matjson::Value const&)>, geode::Result<std::__ndk1::shared_ptr<geode::SettingV3>, std::__ndk1::basic_string<char, std::__ndk1::char_traits<char>, std::__ndk1::allocator<char> > >(std::__ndk1::basic_string<char, std::__ndk1::char_traits<char>, std::__ndk1::allocator<char> > const&, std::__ndk1::basic_string<char, std::__ndk1::char_traits<char>, std::__ndk1::allocator<char> > const&, matjson::Value const&)>::destroy_deallocate()
PUBLIC 5b1f4 0 std::__ndk1::__function::__func<geode::Result<std::__ndk1::shared_ptr<geode::SettingV3>, std::__ndk1::basic_string<char, std::__ndk1::char_traits<char>, std::__ndk1::allocator<char> > > (*)(std::__ndk1::basic_string<char, std::__ndk1::char_traits<char>, std::__ndk1::allocator<char> > const&, std::__ndk1::basic_string<char, std::__ndk1::char_traits<char>, std::__ndk1::allocator<char> > const&, matjson::Value const&), std::__ndk1::allocator<geode::Result<std::__ndk1::shared_ptr<geode::SettingV3>, std::__ndk1::basic_string<char, std::__ndk1::char_traits<char>, std::__ndk1::allocator<char> > > (*)(std::__ndk1::basic_string<char, std::__ndk1::char_traits<char>, std::__ndk1::allocator<char> > const&, std::__ndk1::basic_string<char, std::__ndk1::char_traits<char>, std::__ndk1::allocator<char> > const&, matjson::Value const&)>, geode::Result<std::__ndk1::shared_ptr<geode::SettingV3>, std::__ndk1::basic_string<char, std::__ndk1::char_traits<char>, std::__ndk1::allocator<char> > >(std::__ndk1::basic_string<char, std::__ndk1::char_traits<char>, std::__ndk1::allocator<char> > const&, std::__ndk1::basic_string<char, std::__ndk1::char_traits<char>, std::__ndk1::allocator<char> > const&, matjson::Value const&)>::operator()(std::__ndk1::basic_string<char, std::__ndk1::char_traits<char>, std::__ndk1::allocator<char> > const&, std::__ndk1::basic_string<char, std::__ndk1::char_traits<char>, std::__ndk1::allocator<char> > const&, matjson::Value const&)
PUBLIC 5b208 0 std::__ndk1::__function::__func<geode::Result<std::__ndk1::shared_ptr<geode::SettingV3>, std::__ndk1::basic_string<char, std::__ndk1::char_traits<char>, std::__ndk1::allocator<char> > > (*)(std::__ndk1::basic_string<char, std::__ndk1::char_traits<char>, std::__ndk1::allocator<char> > const&, std::__ndk1::basic_string<char, std::__ndk1::char_traits<char>, std::__ndk1::allocator<char> > const&, matjson::Value const&), std::__ndk1::allocator<geode::Result<std::__ndk1::shared_ptr<geode::SettingV3>, std::__ndk1::basic_string<char, std::__ndk1::char_traits<char>, std::__ndk1::allocator<char> > > (*)(std::__ndk1::basic_string<char, std::__ndk1::char_traits<char>, std::__ndk1::allocator<char> > const&, std::__ndk1::basic_string<char, std::__ndk1::char_traits<char>, std::__ndk1::allocator<char> > const&, matjson::Value const&)>, geode::Result<std::__ndk1::shared_ptr<geode::SettingV3>, std::__ndk1::basic_string<char, std::__ndk1::char_traits<char>, std::__ndk1::allocator<char> > >(std::__ndk1::basic_string<char, std::__ndk1::char_traits<char>, std::__ndk1::allocator<char> > const&, std::__ndk1::basic_string<char, std::__ndk1::char_traits<char>, std::__ndk1::allocator<char> > const&, matjson::Value const&)>::target(std::type_info const&) const
PUBLIC 5b224 0 std::__ndk1::__function::__func<geode::Result<std::__ndk1::shared_ptr<geode::SettingV3>, std::__ndk1::basic_string<char, std::__ndk1::char_traits<char>, std::__ndk1::allocator<char> > > (*)(std::__ndk1::basic_string<char, std::__ndk1::char_traits<char>, std::__ndk1::allocator<char> > const&, std::__ndk1::basic_string<char, std::__ndk1::char_traits<char>, std::__ndk1::allocator<char> > const&, matjson::Value const&), std::__ndk1::allocator<geode::Result<std::__ndk1::shared_ptr<geode::SettingV3>, std::__ndk1::basic_string<char, std::__ndk1::char_traits<char>, std::__ndk1::allocator<char> > > (*)(std::__ndk1::basic_string<char, std::__ndk1::char_traits<char>, std::__ndk1::allocator<char> > const&, std::__ndk1::basic_string<char, std::__ndk1::char_traits<char>, std::__ndk1::allocator<char> > const&, matjson::Value const&)>, geode::Result<std::__ndk1::shared_ptr<geode::SettingV3>, std::__ndk1::basic_string<char, std::__ndk1::char_traits<char>, std::__ndk1::allocator<char> > >(std::__ndk1::basic_string<char, std::__ndk1::char_traits<char>, std::__ndk1::allocator<char> > const&, std::__ndk1::basic_string<char, std::__ndk1::char_traits<char>, std::__ndk1::allocator<char> > const&, matjson::Value const&)>::target_type() const
PUBLIC 5b230 0 MyButtonSettingV3::parse(std::__ndk1::basic_string<char, std::__ndk1::char_traits<char>, std::__ndk1::allocator<char> > const&, std::__ndk1::basic_string<char, std::__ndk1::char_traits<char>, std::__ndk1::allocator<char> > const&, matjson::Value const&)
PUBLIC 5b514 0 std::__ndk1::__shared_ptr_emplace<MyButtonSettingV3, std::__ndk1::allocator<MyButtonSettingV3> >::~__shared_ptr_emplace()
PUBLIC 5b524 0 std::__ndk1::__shared_ptr_emplace<MyButtonSettingV3, std::__ndk1::allocator<MyButtonSettingV3> >::~__shared_ptr_emplace()
PUBLIC 5b554 0 std::__ndk1::__shared_ptr_emplace<MyButtonSettingV3, std::__ndk1::allocator<MyButtonSettingV3> >::__on_zero_shared()
PUBLIC 5b560 0 std::__ndk1::__shared_ptr_emplace<MyButtonSettingV3, std::__ndk1::allocator<MyButtonSettingV3> >::__on_zero_shared_weak()
PUBLIC 5b564 0 geode::modifier::ModifyDerive<hook91<(anonymous namespace)::hook91Parent>, PlayerObject>::apply()
PUBLIC 5b9d0 0 geode::modifier::ModifyBase<geode::modifier::ModifyDerive<hook91<(anonymous namespace)::hook91Parent>, PlayerObject> >::apply()
PUBLIC 5b9d4 0 geode::Hook::create<bool (*)(hook91<(anonymous namespace)::hook91Parent>*, PlayerButton)>(void*, bool (*)(hook91<(anonymous namespace)::hook91Parent>*, PlayerButton), std::__ndk1::basic_string<char, std::__ndk1::char_traits<char>, std::__ndk1::allocator<char> > const&, tulip::hook::TulipConvention, tulip::hook::HookMetadata const&)
PUBLIC 5bb58 0 geode::modifier::AsStaticFunction_pushButton<hook91<(anonymous namespace)::hook91Parent>, bool (hook91<(anonymous namespace)::hook91Parent>::*)(PlayerButton)>::Impl<bool (hook91<(anonymous namespace)::hook91Parent>::*)(PlayerButton)>::function(hook91<(anonymous namespace)::hook91Parent>*, PlayerButton)
PUBLIC 5bcbc 0 geode::modifier::AsStaticFunction_releaseButton<hook91<(anonymous namespace)::hook91Parent>, bool (hook91<(anonymous namespace)::hook91Parent>::*)(PlayerButton)>::Impl<bool (hook91<(anonymous namespace)::hook91Parent>::*)(PlayerButton)>::function(hook91<(anonymous namespace)::hook91Parent>*, PlayerButton)
PUBLIC 5be80 0 geode::modifier::FieldIntermediate<hook91<(anonymous namespace)::hook91Parent>, PlayerObject>::operator->()
PUBLIC 5c444 0 geode::modifier::FieldIntermediate<hook91<(anonymous namespace)::hook91Parent>, PlayerObject>::fieldDestructor(void*)
PUBLIC 5c448 0 std::__ndk1::vector<void*, std::__ndk1::allocator<void*> >::__throw_length_error[abi:ne190000]() const
PUBLIC 5c45c 0 std::__ndk1::vector<std::__ndk1::function<void (void*)>, std::__ndk1::allocator<std::__ndk1::function<void (void*)> > >::__throw_length_error[abi:ne190000]() const
PUBLIC 5c470 0 std::__ndk1::vector<void*, std::__ndk1::allocator<void*> >::__throw_out_of_range[abi:ne190000]() const
PUBLIC 5c484 0 std::__ndk1::vector<std::__ndk1::function<void (void*)>, std::__ndk1::allocator<std::__ndk1::function<void (void*)> > >::__throw_out_of_range[abi:ne190000]() const
PUBLIC 5c498 0 std::__ndk1::__function::__base<void (void*)>::~__base()
PUBLIC 5c49c 0 std::__ndk1::__function::__func<void (*)(void*), std::__ndk1::allocator<void (*)(void*)>, void (void*)>::~__func()
PUBLIC 5c4a0 0 std::__ndk1::__function::__func<void (*)(void*), std::__ndk1::allocator<void (*)(void*)>, void (void*)>::__clone() const
PUBLIC 5c4d8 0 std::__ndk1::__function::__func<void (*)(void*), std::__ndk1::allocator<void (*)(void*)>, void (void*)>::__clone(std::__ndk1::__function::__base<void (void*)>*) const
PUBLIC 5c4f0 0 std::__ndk1::__function::__func<void (*)(void*), std::__ndk1::allocator<void (*)(void*)>, void (void*)>::destroy()
PUBLIC 5c4f4 0 std::__ndk1::__function::__func<void (*)(void*), std::__ndk1::allocator<void (*)(void*)>, void (void*)>::destroy_deallocate()
PUBLIC 5c4f8 0 std::__ndk1::__function::__func<void (*)(void*), std::__ndk1::allocator<void (*)(void*)>, void (void*)>::operator()(void*&&)
PUBLIC 5c508 0 std::__ndk1::__function::__func<void (*)(void*), std::__ndk1::allocator<void (*)(void*)>, void (void*)>::target(std::type_info const&) const
PUBLIC 5c524 0 std::__ndk1::__function::__func<void (*)(void*), std::__ndk1::allocator<void (*)(void*)>, void (void*)>::target_type() const
PUBLIC 5c530 0 geode::Task<geode::utils::web::WebResponse, geode::utils::web::WebProgress>::setListener(geode::EventListenerProtocol*)
PUBLIC 5c734 0 geode::Task<geode::utils::web::WebResponse, geode::utils::web::WebProgress>::setListener(geode::EventListenerProtocol*)::{lambda()#1}::~{lambda()#1}()
PUBLIC 5c784 0 geode::Task<geode::utils::web::WebResponse, geode::utils::web::WebProgress>::setListener(geode::EventListenerProtocol*)::{lambda()#2}::~{lambda()#2}()
PUBLIC 5c7d4 0 std::__ndk1::__function::__func<geode::Task<geode::utils::web::WebResponse, geode::utils::web::WebProgress>::setListener(geode::EventListenerProtocol*)::{lambda()#1}, std::__ndk1::allocator<geode::Task<geode::utils::web::WebResponse, geode::utils::web::WebProgress>::setListener(geode::EventListenerProtocol*)::{lambda()#1}>, void ()>::~__func()
PUBLIC 5c830 0 std::__ndk1::__function::__func<geode::Task<geode::utils::web::WebResponse, geode::utils::web::WebProgress>::setListener(geode::EventListenerProtocol*)::{lambda()#1}, std::__ndk1::allocator<geode::Task<geode::utils::web::WebResponse, geode::utils::web::WebProgress>::setListener(geode::EventListenerProtocol*)::{lambda()#1}>, void ()>::~__func()
PUBLIC 5c89c 0 std::__ndk1::__function::__func<geode::Task<geode::utils::web::WebResponse, geode::utils::web::WebProgress>::setListener(geode::EventListenerProtocol*)::{lambda()#1}, std::__ndk1::allocator<geode::Task<geode::utils::web::WebResponse, geode::utils::web::WebProgress>::setListener(geode::EventListenerProtocol*)::{lambda()#1}>, void ()>::__clone() const
PUBLIC 5c8f4 0 std::__ndk1::__function::__func<geode::Task<geode::utils::web::WebResponse, geode::utils::web::WebProgress>::setListener(geode::EventListenerProtocol*)::{lambda()#1}, std::__ndk1::allocator<geode::Task<geode::utils::web::WebResponse, geode::utils::web::WebProgress>::setListener(geode::EventListenerProtocol*)::{lambda()#1}>, void ()>::__clone(std::__ndk1::__function::__base<void ()>*) const
PUBLIC 5c940 0 std::__ndk1::__function::__func<geode::Task<geode::utils::web::WebResponse, geode::utils::web::WebProgress>::setListener(geode::EventListenerProtocol*)::{lambda()#1}, std::__ndk1::allocator<geode::Task<geode::utils::web::WebResponse, geode::utils::web::WebProgress>::setListener(geode::EventListenerProtocol*)::{lambda()#1}>, void ()>::destroy()
PUBLIC 5c990 0 std::__ndk1::__function::__func<geode::Task<geode::utils::web::WebResponse, geode::utils::web::WebProgress>::setListener(geode::EventListenerProtocol*)::{lambda()#1}, std::__ndk1::allocator<geode::Task<geode::utils::web::WebResponse, geode::utils::web::WebProgress>::setListener(geode::EventListenerProtocol*)::{lambda()#1}>, void ()>::destroy_deallocate()
PUBLIC 5c9f0 0 std::__ndk1::__function::__func<geode::Task<geode::utils::web::WebResponse, geode::utils::web::WebProgress>::setListener(geode::EventListenerProtocol*)::{lambda()#1}, std::__ndk1::allocator<geode::Task<geode::utils::web::WebResponse, geode::utils::web::WebProgress>::setListener(geode::EventListenerProtocol*)::{lambda()#1}>, void ()>::operator()()
PUBLIC 5cb88 0 std::__ndk1::__function::__func<geode::Task<geode::utils::web::WebResponse, geode::utils::web::WebProgress>::setListener(geode::EventListenerProtocol*)::{lambda()#1}, std::__ndk1::allocator<geode::Task<geode::utils::web::WebResponse, geode::utils::web::WebProgress>::setListener(geode::EventListenerProtocol*)::{lambda()#1}>, void ()>::target(std::type_info const&) const
PUBLIC 5cba4 0 std::__ndk1::__function::__func<geode::Task<geode::utils::web::WebResponse, geode::utils::web::WebProgress>::setListener(geode::EventListenerProtocol*)::{lambda()#1}, std::__ndk1::allocator<geode::Task<geode::utils::web::WebResponse, geode::utils::web::WebProgress>::setListener(geode::EventListenerProtocol*)::{lambda()#1}>, void ()>::target_type() const
PUBLIC 5cbb0 0 geode::Task<geode::utils::web::WebResponse, geode::utils::web::WebProgress>::Event::~Event()
PUBLIC 5cc10 0 geode::Task<geode::utils::web::WebResponse, geode::utils::web::WebProgress>::Event::~Event()
PUBLIC 5cc80 0 std::__ndk1::__function::__func<geode::Task<geode::utils::web::WebResponse, geode::utils::web::WebProgress>::setListener(geode::EventListenerProtocol*)::{lambda()#2}, std::__ndk1::allocator<geode::Task<geode::utils::web::WebResponse, geode::utils::web::WebProgress>::setListener(geode::EventListenerProtocol*)::{lambda()#2}>, void ()>::~__func()
PUBLIC 5ccdc 0 std::__ndk1::__function::__func<geode::Task<geode::utils::web::WebResponse, geode::utils::web::WebProgress>::setListener(geode::EventListenerProtocol*)::{lambda()#2}, std::__ndk1::allocator<geode::Task<geode::utils::web::WebResponse, geode::utils::web::WebProgress>::setListener(geode::EventListenerProtocol*)::{lambda()#2}>, void ()>::~__func()
PUBLIC 5cd48 0 std::__ndk1::__function::__func<geode::Task<geode::utils::web::WebResponse, geode::utils::web::WebProgress>::setListener(geode::EventListenerProtocol*)::{lambda()#2}, std::__ndk1::allocator<geode::Task<geode::utils::web::WebResponse, geode::utils::web::WebProgress>::setListener(geode::EventListenerProtocol*)::{lambda()#2}>, void ()>::__clone() const
PUBLIC 5cda0 0 std::__ndk1::__function::__func<geode::Task<geode::utils::web::WebResponse, geode::utils::web::WebProgress>::setListener(geode::EventListenerProtocol*)::{lambda()#2}, std::__ndk1::allocator<geode::Task<geode::utils::web::WebResponse, geode::utils::web::WebProgress>::setListener(geode::EventListenerProtocol*)::{lambda()#2}>, void ()>::__clone(std::__ndk1::__function::__base<void ()>*) const
PUBLIC 5cdec 0 std::__ndk1::__function::__func<geode::Task<geode::utils::web::WebResponse, geode::utils::web::WebProgress>::setListener(geode::EventListenerProtocol*)::{lambda()#2}, std::__ndk1::allocator<geode::Task<geode::utils::web::WebResponse, geode::utils::web::WebProgress>::setListener(geode::EventListenerProtocol*)::{lambda()#2}>, void ()>::destroy()
PUBLIC 5ce3c 0 std::__ndk1::__function::__func<geode::Task<geode::utils::web::WebResponse, geode::utils::web::WebProgress>::setListener(geode::EventListenerProtocol*)::{lambda()#2}, std::__ndk1::allocator<geode::Task<geode::utils::web::WebResponse, geode::utils::web::WebProgress>::setListener(geode::EventListenerProtocol*)::{lambda()#2}>, void ()>::destroy_deallocate()
PUBLIC 5ce9c 0 std::__ndk1::__function::__func<geode::Task<geode::utils::web::WebResponse, geode::utils::web::WebProgress>::setListener(geode::EventListenerProtocol*)::{lambda()#2}, std::__ndk1::allocator<geode::Task<geode::utils::web::WebResponse, geode::utils::web::WebProgress>::setListener(geode::EventListenerProtocol*)::{lambda()#2}>, void ()>::operator()()
PUBLIC 5d024 0 std::__ndk1::__function::__func<geode::Task<geode::utils::web::WebResponse, geode::utils::web::WebProgress>::setListener(geode::EventListenerProtocol*)::{lambda()#2}, std::__ndk1::allocator<geode::Task<geode::utils::web::WebResponse, geode::utils::web::WebProgress>::setListener(geode::EventListenerProtocol*)::{lambda()#2}>, void ()>::target(std::type_info const&) const
PUBLIC 5d040 0 std::__ndk1::__function::__func<geode::Task<geode::utils::web::WebResponse, geode::utils::web::WebProgress>::setListener(geode::EventListenerProtocol*)::{lambda()#2}, std::__ndk1::allocator<geode::Task<geode::utils::web::WebResponse, geode::utils::web::WebProgress>::setListener(geode::EventListenerProtocol*)::{lambda()#2}>, void ()>::target_type() const
PUBLIC 5d04c 0 geode::modifier::ModifyDerive<hook193<(anonymous namespace)::hook193Parent>, MenuLayer>::apply()
PUBLIC 5d340 0 geode::modifier::ModifyBase<geode::modifier::ModifyDerive<hook193<(anonymous namespace)::hook193Parent>, MenuLayer> >::apply()
PUBLIC 5d344 0 geode::modifier::AsStaticFunction_init<hook193<(anonymous namespace)::hook193Parent>, bool (hook193<(anonymous namespace)::hook193Parent>::*)()>::Impl<bool (hook193<(anonymous namespace)::hook193Parent>::*)()>::function(hook193<(anonymous namespace)::hook193Parent>*)
PUBLIC 5d9cc 0 geode::addresser::Addresser::addressOfVirtual<bool, MenuLayer, >(bool (MenuLayer::*)())
PUBLIC 5da74 0 MenuLayer::MenuLayer(geode::ZeroConstructorType)
PUBLIC 5db10 0 JsonReader::loadData(std::__ndk1::function<void ()>)
PUBLIC 5dd2c 0 std::__ndk1::__thread_proxy[abi:ne190000]<std::__ndk1::tuple<std::__ndk1::unique_ptr<std::__ndk1::__thread_struct, std::__ndk1::default_delete<std::__ndk1::unique_ptr> >, JsonReader::loadData(std::__ndk1::function<void ()>)::{lambda()#1}> >(std::__ndk1::tuple<std::__ndk1::unique_ptr<std::__ndk1::__thread_struct, std::__ndk1::default_delete<std::__ndk1::unique_ptr> >, JsonReader::loadData(std::__ndk1::function<void ()>)::{lambda()#1}>)
PUBLIC 5e1e0 0 std::__ndk1::unique_ptr<std::__ndk1::tuple<std::__ndk1::unique_ptr<std::__ndk1::__thread_struct, std::__ndk1::default_delete<std::__ndk1::__thread_struct> >, JsonReader::loadData(std::__ndk1::function<void ()>)::{lambda()#1}>, std::__ndk1::default_delete<std::__ndk1::tuple<std::__ndk1::unique_ptr<std::__ndk1::__thread_struct, std::__ndk1::default_delete<std::__ndk1::__thread_struct> >, JsonReader::loadData(std::__ndk1::function<void ()>)::{lambda()#1}> > >::~unique_ptr[abi:ne190000]()
PUBLIC 5e260 0 std::__ndk1::unique_ptr<std::__ndk1::__thread_struct, std::__ndk1::default_delete<std::__ndk1::__thread_struct> >::~unique_ptr[abi:ne190000]()
PUBLIC 5e29c 0 JsonReader::loadCategoryData(std::__ndk1::__fs::filesystem::path const&, std::__ndk1::map<std::__ndk1::basic_string<char, std::__ndk1::char_traits<char>, std::__ndk1::allocator<char> >, CategoryData, std::__ndk1::less<std::__ndk1::basic_string<char, std::__ndk1::char_traits<char>, std::__ndk1::allocator<char> > >, std::__ndk1::allocator<std::__ndk1::pair<std::__ndk1::basic_string<char, std::__ndk1::char_traits<char>, std::__ndk1::allocator<char> > const, CategoryData> > >&)
PUBLIC 5f124 0 std::__ndk1::__fs::filesystem::path::operator/=[abi:ne190000](std::__ndk1::__fs::filesystem::path const&)
PUBLIC 5f20c 0 std::__ndk1::__fs::filesystem::directory_iterator::~directory_iterator[abi:ne190000]()
PUBLIC 5f25c 0 std::__ndk1::__function::__func<hook193<(anonymous namespace)::hook193Parent>::init()::{lambda()#1}, std::__ndk1::allocator<hook193<(anonymous namespace)::hook193Parent>::init()::{lambda()#1}>, void ()>::~__func()
PUBLIC 5f260 0 std::__ndk1::__function::__func<hook193<(anonymous namespace)::hook193Parent>::init()::{lambda()#1}, std::__ndk1::allocator<hook193<(anonymous namespace)::hook193Parent>::init()::{lambda()#1}>, void ()>::__clone() const
PUBLIC 5f284 0 std::__ndk1::__function::__func<hook193<(anonymous namespace)::hook193Parent>::init()::{lambda()#1}, std::__ndk1::allocator<hook193<(anonymous namespace)::hook193Parent>::init()::{lambda()#1}>, void ()>::__clone(std::__ndk1::__function::__base<void ()>*) const
PUBLIC 5f294 0 std::__ndk1::__function::__func<hook193<(anonymous namespace)::hook193Parent>::init()::{lambda()#1}, std::__ndk1::allocator<hook193<(anonymous namespace)::hook193Parent>::init()::{lambda()#1}>, void ()>::destroy()
PUBLIC 5f298 0 std::__ndk1::__function::__func<hook193<(anonymous namespace)::hook193Parent>::init()::{lambda()#1}, std::__ndk1::allocator<hook193<(anonymous namespace)::hook193Parent>::init()::{lambda()#1}>, void ()>::destroy_deallocate()
PUBLIC 5f29c 0 std::__ndk1::__function::__func<hook193<(anonymous namespace)::hook193Parent>::init()::{lambda()#1}, std::__ndk1::allocator<hook193<(anonymous namespace)::hook193Parent>::init()::{lambda()#1}>, void ()>::operator()()
PUBLIC 5f2a0 0 std::__ndk1::__function::__func<hook193<(anonymous namespace)::hook193Parent>::init()::{lambda()#1}, std::__ndk1::allocator<hook193<(anonymous namespace)::hook193Parent>::init()::{lambda()#1}>, void ()>::target(std::type_info const&) const
PUBLIC 5f2bc 0 std::__ndk1::__function::__func<hook193<(anonymous namespace)::hook193Parent>::init()::{lambda()#1}, std::__ndk1::allocator<hook193<(anonymous namespace)::hook193Parent>::init()::{lambda()#1}>, void ()>::target_type() const
PUBLIC 5f2c8 0 geode::impl::ResultData<matjson::Value&, std::__ndk1::basic_string<char, std::__ndk1::char_traits<char>, std::__ndk1::allocator<char> > >::~ResultData()
PUBLIC 5f33c 0 std::__ndk1::__variant_detail::__visitation::__base::__dispatcher<(unsigned long)0>::__dispatch[abi:ne190000]<std::__ndk1::__variant_detail::__dtor<std::__ndk1::__variant_detail::__traits<std::__ndk1::reference_wrapper<matjson::Value>, std::__ndk1::basic_string<char, std::__ndk1::char_traits<char>, std::__ndk1::allocator<char> > >, (std::__ndk1::__variant_detail::_Trait)1>::__destroy[abi:ne190000]()::{lambda(auto:1&)#1}, std::__ndk1::__variant_detail::__base<(std::__ndk1::__variant_detail::__traits<std::__ndk1::reference_wrapper<matjson::Value>, std::__ndk1::basic_string<char, std::__ndk1::char_traits<char>, std::__ndk1::allocator<char> > >)1, matjson::Value, std::__ndk1::allocator<char> >&>(std::__ndk1::__variant_detail::__dtor<std::__ndk1::__variant_detail::__traits<std::__ndk1::reference_wrapper<matjson::Value>, std::__ndk1::basic_string<char, std::__ndk1::char_traits<char>, std::__ndk1::allocator<char> > >, (std::__ndk1::__variant_detail::_Trait)1>, std::__ndk1::__variant_detail::__base<(std::__ndk1::__variant_detail::__traits<std::__ndk1::reference_wrapper<matjson::Value>, std::__ndk1::basic_string<char, std::__ndk1::char_traits<char>, std::__ndk1::allocator<char> > >)1, matjson::Value, std::__ndk1::allocator<char> >&)
PUBLIC 5f340 0 std::__ndk1::__variant_detail::__visitation::__base::__dispatcher<(unsigned long)1>::__dispatch[abi:ne190000]<std::__ndk1::__variant_detail::__dtor<std::__ndk1::__variant_detail::__traits<std::__ndk1::reference_wrapper<matjson::Value>, std::__ndk1::basic_string<char, std::__ndk1::char_traits<char>, std::__ndk1::allocator<char> > >, (std::__ndk1::__variant_detail::_Trait)1>::__destroy[abi:ne190000]()::{lambda(auto:1&)#1}, std::__ndk1::__variant_detail::__base<(std::__ndk1::__variant_detail::__traits<std::__ndk1::reference_wrapper<matjson::Value>, std::__ndk1::basic_string<char, std::__ndk1::char_traits<char>, std::__ndk1::allocator<char> > >)1, matjson::Value, std::__ndk1::allocator<char> >&>(std::__ndk1::__variant_detail::__dtor<std::__ndk1::__variant_detail::__traits<std::__ndk1::reference_wrapper<matjson::Value>, std::__ndk1::basic_string<char, std::__ndk1::char_traits<char>, std::__ndk1::allocator<char> > >, (std::__ndk1::__variant_detail::_Trait)1>, std::__ndk1::__variant_detail::__base<(std::__ndk1::__variant_detail::__traits<std::__ndk1::reference_wrapper<matjson::Value>, std::__ndk1::basic_string<char, std::__ndk1::char_traits<char>, std::__ndk1::allocator<char> > >)1, matjson::Value, std::__ndk1::allocator<char> >&)
PUBLIC 5f354 0 std::__ndk1::__function::__func<hook193<(anonymous namespace)::hook193Parent>::SendRequestAPI()::{lambda()#1}, std::__ndk1::allocator<hook193<(anonymous namespace)::hook193Parent>::SendRequestAPI()::{lambda()#1}>, void ()>::~__func()
PUBLIC 5f358 0 std::__ndk1::__function::__func<hook193<(anonymous namespace)::hook193Parent>::SendRequestAPI()::{lambda()#1}, std::__ndk1::allocator<hook193<(anonymous namespace)::hook193Parent>::SendRequestAPI()::{lambda()#1}>, void ()>::__clone() const
PUBLIC 5f37c 0 std::__ndk1::__function::__func<hook193<(anonymous namespace)::hook193Parent>::SendRequestAPI()::{lambda()#1}, std::__ndk1::allocator<hook193<(anonymous namespace)::hook193Parent>::SendRequestAPI()::{lambda()#1}>, void ()>::__clone(std::__ndk1::__function::__base<void ()>*) const
PUBLIC 5f38c 0 std::__ndk1::__function::__func<hook193<(anonymous namespace)::hook193Parent>::SendRequestAPI()::{lambda()#1}, std::__ndk1::allocator<hook193<(anonymous namespace)::hook193Parent>::SendRequestAPI()::{lambda()#1}>, void ()>::destroy()
PUBLIC 5f390 0 std::__ndk1::__function::__func<hook193<(anonymous namespace)::hook193Parent>::SendRequestAPI()::{lambda()#1}, std::__ndk1::allocator<hook193<(anonymous namespace)::hook193Parent>::SendRequestAPI()::{lambda()#1}>, void ()>::destroy_deallocate()
PUBLIC 5f394 0 std::__ndk1::__function::__func<hook193<(anonymous namespace)::hook193Parent>::SendRequestAPI()::{lambda()#1}, std::__ndk1::allocator<hook193<(anonymous namespace)::hook193Parent>::SendRequestAPI()::{lambda()#1}>, void ()>::operator()()
PUBLIC 5f464 0 std::__ndk1::__function::__func<hook193<(anonymous namespace)::hook193Parent>::SendRequestAPI()::{lambda()#1}, std::__ndk1::allocator<hook193<(anonymous namespace)::hook193Parent>::SendRequestAPI()::{lambda()#1}>, void ()>::target(std::type_info const&) const
PUBLIC 5f480 0 std::__ndk1::__function::__func<hook193<(anonymous namespace)::hook193Parent>::SendRequestAPI()::{lambda()#1}, std::__ndk1::allocator<hook193<(anonymous namespace)::hook193Parent>::SendRequestAPI()::{lambda()#1}>, void ()>::target_type() const
PUBLIC 5f48c 0 std::__ndk1::__function::__base<void (geode::Task<geode::utils::web::WebResponse, geode::utils::web::WebProgress>::Event*)>::~__base()
PUBLIC 5f490 0 std::__ndk1::__function::__func<geode::Task<geode::utils::web::WebResponse, geode::utils::web::WebProgress>::listen<hook193<(anonymous namespace)::hook193Parent>::SendRequestAPI()::{lambda(auto:1)#1}, hook193<(anonymous namespace)::hook193Parent>::SendRequestAPI()::{lambda(auto:1)#2}, hook193<(anonymous namespace)::hook193Parent>::SendRequestAPI()::{lambda()#2}>(hook193<(anonymous namespace)::hook193Parent>::SendRequestAPI()::{lambda(auto:1)#1}&&, hook193<(anonymous namespace)::hook193Parent>::SendRequestAPI()::{lambda(auto:1)#2}&&, hook193<(anonymous namespace)::hook193Parent>::SendRequestAPI()::{lambda()#2}&&) const::{lambda(geode::Task<geode::utils::web::WebResponse, geode::utils::web::WebProgress>::Event*)#1}, std::__ndk1::allocator<geode::Task<geode::utils::web::WebResponse, geode::utils::web::WebProgress>::listen<hook193<(anonymous namespace)::hook193Parent>::SendRequestAPI()::{lambda(auto:1)#1}, hook193<(anonymous namespace)::hook193Parent>::SendRequestAPI()::{lambda(auto:1)#2}, hook193<(anonymous namespace)::hook193Parent>::SendRequestAPI()::{lambda()#2}>(hook193<(anonymous namespace)::hook193Parent>::SendRequestAPI()::{lambda(auto:1)#1}&&, hook193<(anonymous namespace)::hook193Parent>::SendRequestAPI()::{lambda(auto:1)#2}&&, hook193<(anonymous namespace)::hook193Parent>::SendRequestAPI()::{lambda()#2}&&) const::{lambda(geode::Task<geode::utils::web::WebResponse, geode::utils::web::WebProgress>::Event*)#1}>, void (geode::Task<geode::utils::web::WebResponse, geode::utils::web::WebProgress>::Event*)>::~__func()
PUBLIC 5f494 0 std::__ndk1::__function::__func<geode::Task<geode::utils::web::WebResponse, geode::utils::web::WebProgress>::listen<hook193<(anonymous namespace)::hook193Parent>::SendRequestAPI()::{lambda(auto:1)#1}, hook193<(anonymous namespace)::hook193Parent>::SendRequestAPI()::{lambda(auto:1)#2}, hook193<(anonymous namespace)::hook193Parent>::SendRequestAPI()::{lambda()#2}>(hook193<(anonymous namespace)::hook193Parent>::SendRequestAPI()::{lambda(auto:1)#1}&&, hook193<(anonymous namespace)::hook193Parent>::SendRequestAPI()::{lambda(auto:1)#2}&&, hook193<(anonymous namespace)::hook193Parent>::SendRequestAPI()::{lambda()#2}&&) const::{lambda(geode::Task<geode::utils::web::WebResponse, geode::utils::web::WebProgress>::Event*)#1}, std::__ndk1::allocator<geode::Task<geode::utils::web::WebResponse, geode::utils::web::WebProgress>::listen<hook193<(anonymous namespace)::hook193Parent>::SendRequestAPI()::{lambda(auto:1)#1}, hook193<(anonymous namespace)::hook193Parent>::SendRequestAPI()::{lambda(auto:1)#2}, hook193<(anonymous namespace)::hook193Parent>::SendRequestAPI()::{lambda()#2}>(hook193<(anonymous namespace)::hook193Parent>::SendRequestAPI()::{lambda(auto:1)#1}&&, hook193<(anonymous namespace)::hook193Parent>::SendRequestAPI()::{lambda(auto:1)#2}&&, hook193<(anonymous namespace)::hook193Parent>::SendRequestAPI()::{lambda()#2}&&) const::{lambda(geode::Task<geode::utils::web::WebResponse, geode::utils::web::WebProgress>::Event*)#1}>, void (geode::Task<geode::utils::web::WebResponse, geode::utils::web::WebProgress>::Event*)>::__clone() const
PUBLIC 5f4cc 0 std::__ndk1::__function::__func<geode::Task<geode::utils::web::WebResponse, geode::utils::web::WebProgress>::listen<hook193<(anonymous namespace)::hook193Parent>::SendRequestAPI()::{lambda(auto:1)#1}, hook193<(anonymous namespace)::hook193Parent>::SendRequestAPI()::{lambda(auto:1)#2}, hook193<(anonymous namespace)::hook193Parent>::SendRequestAPI()::{lambda()#2}>(hook193<(anonymous namespace)::hook193Parent>::SendRequestAPI()::{lambda(auto:1)#1}&&, hook193<(anonymous namespace)::hook193Parent>::SendRequestAPI()::{lambda(auto:1)#2}&&, hook193<(anonymous namespace)::hook193Parent>::SendRequestAPI()::{lambda()#2}&&) const::{lambda(geode::Task<geode::utils::web::WebResponse, geode::utils::web::WebProgress>::Event*)#1}, std::__ndk1::allocator<geode::Task<geode::utils::web::WebResponse, geode::utils::web::WebProgress>::listen<hook193<(anonymous namespace)::hook193Parent>::SendRequestAPI()::{lambda(auto:1)#1}, hook193<(anonymous namespace)::hook193Parent>::SendRequestAPI()::{lambda(auto:1)#2}, hook193<(anonymous namespace)::hook193Parent>::SendRequestAPI()::{lambda()#2}>(hook193<(anonymous namespace)::hook193Parent>::SendRequestAPI()::{lambda(auto:1)#1}&&, hook193<(anonymous namespace)::hook193Parent>::SendRequestAPI()::{lambda(auto:1)#2}&&, hook193<(anonymous namespace)::hook193Parent>::SendRequestAPI()::{lambda()#2}&&) const::{lambda(geode::Task<geode::utils::web::WebResponse, geode::utils::web::WebProgress>::Event*)#1}>, void (geode::Task<geode::utils::web::WebResponse, geode::utils::web::WebProgress>::Event*)>::__clone(std::__ndk1::__function::__base<void (geode::Task<geode::utils::web::WebResponse, geode::utils::web::WebProgress>::Event*)>*) const
PUBLIC 5f4e4 0 std::__ndk1::__function::__func<geode::Task<geode::utils::web::WebResponse, geode::utils::web::WebProgress>::listen<hook193<(anonymous namespace)::hook193Parent>::SendRequestAPI()::{lambda(auto:1)#1}, hook193<(anonymous namespace)::hook193Parent>::SendRequestAPI()::{lambda(auto:1)#2}, hook193<(anonymous namespace)::hook193Parent>::SendRequestAPI()::{lambda()#2}>(hook193<(anonymous namespace)::hook193Parent>::SendRequestAPI()::{lambda(auto:1)#1}&&, hook193<(anonymous namespace)::hook193Parent>::SendRequestAPI()::{lambda(auto:1)#2}&&, hook193<(anonymous namespace)::hook193Parent>::SendRequestAPI()::{lambda()#2}&&) const::{lambda(geode::Task<geode::utils::web::WebResponse, geode::utils::web::WebProgress>::Event*)#1}, std::__ndk1::allocator<geode::Task<geode::utils::web::WebResponse, geode::utils::web::WebProgress>::listen<hook193<(anonymous namespace)::hook193Parent>::SendRequestAPI()::{lambda(auto:1)#1}, hook193<(anonymous namespace)::hook193Parent>::SendRequestAPI()::{lambda(auto:1)#2}, hook193<(anonymous namespace)::hook193Parent>::SendRequestAPI()::{lambda()#2}>(hook193<(anonymous namespace)::hook193Parent>::SendRequestAPI()::{lambda(auto:1)#1}&&, hook193<(anonymous namespace)::hook193Parent>::SendRequestAPI()::{lambda(auto:1)#2}&&, hook193<(anonymous namespace)::hook193Parent>::SendRequestAPI()::{lambda()#2}&&) const::{lambda(geode::Task<geode::utils::web::WebResponse, geode::utils::web::WebProgress>::Event*)#1}>, void (geode::Task<geode::utils::web::WebResponse, geode::utils::web::WebProgress>::Event*)>::destroy()
PUBLIC 5f4e8 0 std::__ndk1::__function::__func<geode::Task<geode::utils::web::WebResponse, geode::utils::web::WebProgress>::listen<hook193<(anonymous namespace)::hook193Parent>::SendRequestAPI()::{lambda(auto:1)#1}, hook193<(anonymous namespace)::hook193Parent>::SendRequestAPI()::{lambda(auto:1)#2}, hook193<(anonymous namespace)::hook193Parent>::SendRequestAPI()::{lambda()#2}>(hook193<(anonymous namespace)::hook193Parent>::SendRequestAPI()::{lambda(auto:1)#1}&&, hook193<(anonymous namespace)::hook193Parent>::SendRequestAPI()::{lambda(auto:1)#2}&&, hook193<(anonymous namespace)::hook193Parent>::SendRequestAPI()::{lambda()#2}&&) const::{lambda(geode::Task<geode::utils::web::WebResponse, geode::utils::web::WebProgress>::Event*)#1}, std::__ndk1::allocator<geode::Task<geode::utils::web::WebResponse, geode::utils::web::WebProgress>::listen<hook193<(anonymous namespace)::hook193Parent>::SendRequestAPI()::{lambda(auto:1)#1}, hook193<(anonymous namespace)::hook193Parent>::SendRequestAPI()::{lambda(auto:1)#2}, hook193<(anonymous namespace)::hook193Parent>::SendRequestAPI()::{lambda()#2}>(hook193<(anonymous namespace)::hook193Parent>::SendRequestAPI()::{lambda(auto:1)#1}&&, hook193<(anonymous namespace)::hook193Parent>::SendRequestAPI()::{lambda(auto:1)#2}&&, hook193<(anonymous namespace)::hook193Parent>::SendRequestAPI()::{lambda()#2}&&) const::{lambda(geode::Task<geode::utils::web::WebResponse, geode::utils::web::WebProgress>::Event*)#1}>, void (geode::Task<geode::utils::web::WebResponse, geode::utils::web::WebProgress>::Event*)>::destroy_deallocate()
PUBLIC 5f4ec 0 std::__ndk1::__function::__func<geode::Task<geode::utils::web::WebResponse, geode::utils::web::WebProgress>::listen<hook193<(anonymous namespace)::hook193Parent>::SendRequestAPI()::{lambda(auto:1)#1}, hook193<(anonymous namespace)::hook193Parent>::SendRequestAPI()::{lambda(auto:1)#2}, hook193<(anonymous namespace)::hook193Parent>::SendRequestAPI()::{lambda()#2}>(hook193<(anonymous namespace)::hook193Parent>::SendRequestAPI()::{lambda(auto:1)#1}&&, hook193<(anonymous namespace)::hook193Parent>::SendRequestAPI()::{lambda(auto:1)#2}&&, hook193<(anonymous namespace)::hook193Parent>::SendRequestAPI()::{lambda()#2}&&) const::{lambda(geode::Task<geode::utils::web::WebResponse, geode::utils::web::WebProgress>::Event*)#1}, std::__ndk1::allocator<geode::Task<geode::utils::web::WebResponse, geode::utils::web::WebProgress>::listen<hook193<(anonymous namespace)::hook193Parent>::SendRequestAPI()::{lambda(auto:1)#1}, hook193<(anonymous namespace)::hook193Parent>::SendRequestAPI()::{lambda(auto:1)#2}, hook193<(anonymous namespace)::hook193Parent>::SendRequestAPI()::{lambda()#2}>(hook193<(anonymous namespace)::hook193Parent>::SendRequestAPI()::{lambda(auto:1)#1}&&, hook193<(anonymous namespace)::hook193Parent>::SendRequestAPI()::{lambda(auto:1)#2}&&, hook193<(anonymous namespace)::hook193Parent>::SendRequestAPI()::{lambda()#2}&&) const::{lambda(geode::Task<geode::utils::web::WebResponse, geode::utils::web::WebProgress>::Event*)#1}>, void (geode::Task<geode::utils::web::WebResponse, geode::utils::web::WebProgress>::Event*)>::operator()(geode::Task<geode::utils::web::WebResponse, geode::utils::web::WebProgress>::Event*&&)
PUBLIC 5faa0 0 std::__ndk1::__function::__func<geode::Task<geode::utils::web::WebResponse, geode::utils::web::WebProgress>::listen<hook193<(anonymous namespace)::hook193Parent>::SendRequestAPI()::{lambda(auto:1)#1}, hook193<(anonymous namespace)::hook193Parent>::SendRequestAPI()::{lambda(auto:1)#2}, hook193<(anonymous namespace)::hook193Parent>::SendRequestAPI()::{lambda()#2}>(hook193<(anonymous namespace)::hook193Parent>::SendRequestAPI()::{lambda(auto:1)#1}&&, hook193<(anonymous namespace)::hook193Parent>::SendRequestAPI()::{lambda(auto:1)#2}&&, hook193<(anonymous namespace)::hook193Parent>::SendRequestAPI()::{lambda()#2}&&) const::{lambda(geode::Task<geode::utils::web::WebResponse, geode::utils::web::WebProgress>::Event*)#1}, std::__ndk1::allocator<geode::Task<geode::utils::web::WebResponse, geode::utils::web::WebProgress>::listen<hook193<(anonymous namespace)::hook193Parent>::SendRequestAPI()::{lambda(auto:1)#1}, hook193<(anonymous namespace)::hook193Parent>::SendRequestAPI()::{lambda(auto:1)#2}, hook193<(anonymous namespace)::hook193Parent>::SendRequestAPI()::{lambda()#2}>(hook193<(anonymous namespace)::hook193Parent>::SendRequestAPI()::{lambda(auto:1)#1}&&, hook193<(anonymous namespace)::hook193Parent>::SendRequestAPI()::{lambda(auto:1)#2}&&, hook193<(anonymous namespace)::hook193Parent>::SendRequestAPI()::{lambda()#2}&&) const::{lambda(geode::Task<geode::utils::web::WebResponse, geode::utils::web::WebProgress>::Event*)#1}>, void (geode::Task<geode::utils::web::WebResponse, geode::utils::web::WebProgress>::Event*)>::target(std::type_info const&) const
PUBLIC 5fabc 0 std::__ndk1::__function::__func<geode::Task<geode::utils::web::WebResponse, geode::utils::web::WebProgress>::listen<hook193<(anonymous namespace)::hook193Parent>::SendRequestAPI()::{lambda(auto:1)#1}, hook193<(anonymous namespace)::hook193Parent>::SendRequestAPI()::{lambda(auto:1)#2}, hook193<(anonymous namespace)::hook193Parent>::SendRequestAPI()::{lambda()#2}>(hook193<(anonymous namespace)::hook193Parent>::SendRequestAPI()::{lambda(auto:1)#1}&&, hook193<(anonymous namespace)::hook193Parent>::SendRequestAPI()::{lambda(auto:1)#2}&&, hook193<(anonymous namespace)::hook193Parent>::SendRequestAPI()::{lambda()#2}&&) const::{lambda(geode::Task<geode::utils::web::WebResponse, geode::utils::web::WebProgress>::Event*)#1}, std::__ndk1::allocator<geode::Task<geode::utils::web::WebResponse, geode::utils::web::WebProgress>::listen<hook193<(anonymous namespace)::hook193Parent>::SendRequestAPI()::{lambda(auto:1)#1}, hook193<(anonymous namespace)::hook193Parent>::SendRequestAPI()::{lambda(auto:1)#2}, hook193<(anonymous namespace)::hook193Parent>::SendRequestAPI()::{lambda()#2}>(hook193<(anonymous namespace)::hook193Parent>::SendRequestAPI()::{lambda(auto:1)#1}&&, hook193<(anonymous namespace)::hook193Parent>::SendRequestAPI()::{lambda(auto:1)#2}&&, hook193<(anonymous namespace)::hook193Parent>::SendRequestAPI()::{lambda()#2}&&) const::{lambda(geode::Task<geode::utils::web::WebResponse, geode::utils::web::WebProgress>::Event*)#1}>, void (geode::Task<geode::utils::web::WebResponse, geode::utils::web::WebProgress>::Event*)>::target_type() const
PUBLIC 5fac8 0 hook193<(anonymous namespace)::hook193Parent>::SendRequestAPI()::{lambda(auto:1)#1}::operator()<geode::utils::web::WebResponse*>(geode::utils::web::WebResponse*) const::{lambda()#2}::~{lambda()#2}()
PUBLIC 5fb18 0 std::__ndk1::shared_ptr<downloadedzipStruc>::~shared_ptr[abi:ne190000]()
PUBLIC 5fb68 0 std::__ndk1::__function::__func<hook193<(anonymous namespace)::hook193Parent>::SendRequestAPI()::{lambda(auto:1)#1}::operator()<geode::utils::web::WebResponse*>(geode::utils::web::WebResponse*) const::{lambda()#1}, std::__ndk1::allocator<hook193<(anonymous namespace)::hook193Parent>::SendRequestAPI()::{lambda(auto:1)#1}::operator()<geode::utils::web::WebResponse*>(geode::utils::web::WebResponse*) const::{lambda()#1}>, void ()>::~__func()
PUBLIC 5fb6c 0 std::__ndk1::__function::__func<hook193<(anonymous namespace)::hook193Parent>::SendRequestAPI()::{lambda(auto:1)#1}::operator()<geode::utils::web::WebResponse*>(geode::utils::web::WebResponse*) const::{lambda()#1}, std::__ndk1::allocator<hook193<(anonymous namespace)::hook193Parent>::SendRequestAPI()::{lambda(auto:1)#1}::operator()<geode::utils::web::WebResponse*>(geode::utils::web::WebResponse*) const::{lambda()#1}>, void ()>::__clone() const
PUBLIC 5fb90 0 std::__ndk1::__function::__func<hook193<(anonymous namespace)::hook193Parent>::SendRequestAPI()::{lambda(auto:1)#1}::operator()<geode::utils::web::WebResponse*>(geode::utils::web::WebResponse*) const::{lambda()#1}, std::__ndk1::allocator<hook193<(anonymous namespace)::hook193Parent>::SendRequestAPI()::{lambda(auto:1)#1}::operator()<geode::utils::web::WebResponse*>(geode::utils::web::WebResponse*) const::{lambda()#1}>, void ()>::__clone(std::__ndk1::__function::__base<void ()>*) const
PUBLIC 5fba0 0 std::__ndk1::__function::__func<hook193<(anonymous namespace)::hook193Parent>::SendRequestAPI()::{lambda(auto:1)#1}::operator()<geode::utils::web::WebResponse*>(geode::utils::web::WebResponse*) const::{lambda()#1}, std::__ndk1::allocator<hook193<(anonymous namespace)::hook193Parent>::SendRequestAPI()::{lambda(auto:1)#1}::operator()<geode::utils::web::WebResponse*>(geode::utils::web::WebResponse*) const::{lambda()#1}>, void ()>::destroy()
PUBLIC 5fba4 0 std::__ndk1::__function::__func<hook193<(anonymous namespace)::hook193Parent>::SendRequestAPI()::{lambda(auto:1)#1}::operator()<geode::utils::web::WebResponse*>(geode::utils::web::WebResponse*) const::{lambda()#1}, std::__ndk1::allocator<hook193<(anonymous namespace)::hook193Parent>::SendRequestAPI()::{lambda(auto:1)#1}::operator()<geode::utils::web::WebResponse*>(geode::utils::web::WebResponse*) const::{lambda()#1}>, void ()>::destroy_deallocate()
PUBLIC 5fba8 0 std::__ndk1::__function::__func<hook193<(anonymous namespace)::hook193Parent>::SendRequestAPI()::{lambda(auto:1)#1}::operator()<geode::utils::web::WebResponse*>(geode::utils::web::WebResponse*) const::{lambda()#1}, std::__ndk1::allocator<hook193<(anonymous namespace)::hook193Parent>::SendRequestAPI()::{lambda(auto:1)#1}::operator()<geode::utils::web::WebResponse*>(geode::utils::web::WebResponse*) const::{lambda()#1}>, void ()>::operator()()
PUBLIC 5fc6c 0 std::__ndk1::__function::__func<hook193<(anonymous namespace)::hook193Parent>::SendRequestAPI()::{lambda(auto:1)#1}::operator()<geode::utils::web::WebResponse*>(geode::utils::web::WebResponse*) const::{lambda()#1}, std::__ndk1::allocator<hook193<(anonymous namespace)::hook193Parent>::SendRequestAPI()::{lambda(auto:1)#1}::operator()<geode::utils::web::WebResponse*>(geode::utils::web::WebResponse*) const::{lambda()#1}>, void ()>::target(std::type_info const&) const
PUBLIC 5fc88 0 std::__ndk1::__function::__func<hook193<(anonymous namespace)::hook193Parent>::SendRequestAPI()::{lambda(auto:1)#1}::operator()<geode::utils::web::WebResponse*>(geode::utils::web::WebResponse*) const::{lambda()#1}, std::__ndk1::allocator<hook193<(anonymous namespace)::hook193Parent>::SendRequestAPI()::{lambda(auto:1)#1}::operator()<geode::utils::web::WebResponse*>(geode::utils::web::WebResponse*) const::{lambda()#1}>, void ()>::target_type() const
PUBLIC 5fc94 0 std::__ndk1::__shared_ptr_emplace<downloadedzipStruc, std::__ndk1::allocator<downloadedzipStruc> >::~__shared_ptr_emplace()
PUBLIC 5fca4 0 std::__ndk1::__shared_ptr_emplace<downloadedzipStruc, std::__ndk1::allocator<downloadedzipStruc> >::~__shared_ptr_emplace()
PUBLIC 5fcd4 0 std::__ndk1::__shared_ptr_emplace<downloadedzipStruc, std::__ndk1::allocator<downloadedzipStruc> >::__on_zero_shared()
PUBLIC 5fcd8 0 std::__ndk1::__shared_ptr_emplace<downloadedzipStruc, std::__ndk1::allocator<downloadedzipStruc> >::__on_zero_shared_weak()
PUBLIC 5fcdc 0 std::__ndk1::__thread_proxy[abi:ne190000]<std::__ndk1::tuple<std::__ndk1::unique_ptr<std::__ndk1::__thread_struct, std::__ndk1::default_delete<std::__ndk1::unique_ptr> >, hook193<(anonymous namespace)::hook193Parent>::SendRequestAPI()::{lambda(auto:1)#1}::operator()<geode::utils::web::WebResponse*>(hook193<(anonymous namespace)::hook193Parent>) const::{lambda()#2}> >(std::__ndk1::tuple<std::__ndk1::unique_ptr<std::__ndk1::__thread_struct, std::__ndk1::default_delete<std::__ndk1::unique_ptr> >, hook193<(anonymous namespace)::hook193Parent>::SendRequestAPI()::{lambda(auto:1)#1}::operator()<geode::utils::web::WebResponse*>(hook193<(anonymous namespace)::hook193Parent>) const::{lambda()#2}>)
PUBLIC 602f0 0 std::__ndk1::unique_ptr<std::__ndk1::tuple<std::__ndk1::unique_ptr<std::__ndk1::__thread_struct, std::__ndk1::default_delete<std::__ndk1::__thread_struct> >, hook193<(anonymous namespace)::hook193Parent>::SendRequestAPI()::{lambda(auto:1)#1}::operator()<geode::utils::web::WebResponse*>(geode::utils::web::WebResponse*) const::{lambda()#2}>, std::__ndk1::default_delete<std::__ndk1::tuple<std::__ndk1::unique_ptr<std::__ndk1::__thread_struct, std::__ndk1::default_delete<std::__ndk1::__thread_struct> >, hook193<(anonymous namespace)::hook193Parent>::SendRequestAPI()::{lambda(auto:1)#1}::operator()<geode::utils::web::WebResponse*>(geode::utils::web::WebResponse*) const::{lambda()#2}> > >::~unique_ptr[abi:ne190000]()
PUBLIC 60370 0 geode::impl::ResultData<geode::utils::file::Unzip, std::__ndk1::basic_string<char, std::__ndk1::char_traits<char>, std::__ndk1::allocator<char> > >::~ResultData()
PUBLIC 603e4 0 std::__ndk1::__function::__func<hook193<(anonymous namespace)::hook193Parent>::SendRequestAPI()::{lambda(auto:1)#1}::operator()<geode::utils::web::WebResponse*>(geode::utils::web::WebResponse*) const::{lambda()#2}::operator()() const::{lambda()#1}, std::__ndk1::allocator<hook193<(anonymous namespace)::hook193Parent>::SendRequestAPI()::{lambda(auto:1)#1}::operator()<geode::utils::web::WebResponse*>(geode::utils::web::WebResponse*) const::{lambda()#2}::operator()() const::{lambda()#1}>, void ()>::~__func()
PUBLIC 603e8 0 std::__ndk1::__function::__func<hook193<(anonymous namespace)::hook193Parent>::SendRequestAPI()::{lambda(auto:1)#1}::operator()<geode::utils::web::WebResponse*>(geode::utils::web::WebResponse*) const::{lambda()#2}::operator()() const::{lambda()#1}, std::__ndk1::allocator<hook193<(anonymous namespace)::hook193Parent>::SendRequestAPI()::{lambda(auto:1)#1}::operator()<geode::utils::web::WebResponse*>(geode::utils::web::WebResponse*) const::{lambda()#2}::operator()() const::{lambda()#1}>, void ()>::__clone() const
PUBLIC 6040c 0 std::__ndk1::__function::__func<hook193<(anonymous namespace)::hook193Parent>::SendRequestAPI()::{lambda(auto:1)#1}::operator()<geode::utils::web::WebResponse*>(geode::utils::web::WebResponse*) const::{lambda()#2}::operator()() const::{lambda()#1}, std::__ndk1::allocator<hook193<(anonymous namespace)::hook193Parent>::SendRequestAPI()::{lambda(auto:1)#1}::operator()<geode::utils::web::WebResponse*>(geode::utils::web::WebResponse*) const::{lambda()#2}::operator()() const::{lambda()#1}>, void ()>::__clone(std::__ndk1::__function::__base<void ()>*) const
PUBLIC 6041c 0 std::__ndk1::__function::__func<hook193<(anonymous namespace)::hook193Parent>::SendRequestAPI()::{lambda(auto:1)#1}::operator()<geode::utils::web::WebResponse*>(geode::utils::web::WebResponse*) const::{lambda()#2}::operator()() const::{lambda()#1}, std::__ndk1::allocator<hook193<(anonymous namespace)::hook193Parent>::SendRequestAPI()::{lambda(auto:1)#1}::operator()<geode::utils::web::WebResponse*>(geode::utils::web::WebResponse*) const::{lambda()#2}::operator()() const::{lambda()#1}>, void ()>::destroy()
PUBLIC 60420 0 std::__ndk1::__function::__func<hook193<(anonymous namespace)::hook193Parent>::SendRequestAPI()::{lambda(auto:1)#1}::operator()<geode::utils::web::WebResponse*>(geode::utils::web::WebResponse*) const::{lambda()#2}::operator()() const::{lambda()#1}, std::__ndk1::allocator<hook193<(anonymous namespace)::hook193Parent>::SendRequestAPI()::{lambda(auto:1)#1}::operator()<geode::utils::web::WebResponse*>(geode::utils::web::WebResponse*) const::{lambda()#2}::operator()() const::{lambda()#1}>, void ()>::destroy_deallocate()
PUBLIC 60424 0 std::__ndk1::__function::__func<hook193<(anonymous namespace)::hook193Parent>::SendRequestAPI()::{lambda(auto:1)#1}::operator()<geode::utils::web::WebResponse*>(geode::utils::web::WebResponse*) const::{lambda()#2}::operator()() const::{lambda()#1}, std::__ndk1::allocator<hook193<(anonymous namespace)::hook193Parent>::SendRequestAPI()::{lambda(auto:1)#1}::operator()<geode::utils::web::WebResponse*>(geode::utils::web::WebResponse*) const::{lambda()#2}::operator()() const::{lambda()#1}>, void ()>::operator()()
PUBLIC 60d18 0 std::__ndk1::__function::__func<hook193<(anonymous namespace)::hook193Parent>::SendRequestAPI()::{lambda(auto:1)#1}::operator()<geode::utils::web::WebResponse*>(geode::utils::web::WebResponse*) const::{lambda()#2}::operator()() const::{lambda()#1}, std::__ndk1::allocator<hook193<(anonymous namespace)::hook193Parent>::SendRequestAPI()::{lambda(auto:1)#1}::operator()<geode::utils::web::WebResponse*>(geode::utils::web::WebResponse*) const::{lambda()#2}::operator()() const::{lambda()#1}>, void ()>::target(std::type_info const&) const
PUBLIC 60d34 0 std::__ndk1::__function::__func<hook193<(anonymous namespace)::hook193Parent>::SendRequestAPI()::{lambda(auto:1)#1}::operator()<geode::utils::web::WebResponse*>(geode::utils::web::WebResponse*) const::{lambda()#2}::operator()() const::{lambda()#1}, std::__ndk1::allocator<hook193<(anonymous namespace)::hook193Parent>::SendRequestAPI()::{lambda(auto:1)#1}::operator()<geode::utils::web::WebResponse*>(geode::utils::web::WebResponse*) const::{lambda()#2}::operator()() const::{lambda()#1}>, void ()>::target_type() const
PUBLIC 60d40 0 std::__ndk1::__function::__func<hook193<(anonymous namespace)::hook193Parent>::SendRequestAPI()::{lambda(auto:1)#1}::operator()<geode::utils::web::WebResponse*>(geode::utils::web::WebResponse*) const::{lambda()#2}::operator()() const::{lambda()#2}, std::__ndk1::allocator<hook193<(anonymous namespace)::hook193Parent>::SendRequestAPI()::{lambda(auto:1)#1}::operator()<geode::utils::web::WebResponse*>(geode::utils::web::WebResponse*) const::{lambda()#2}::operator()() const::{lambda()#2}>, void ()>::~__func()
PUBLIC 60d44 0 std::__ndk1::__function::__func<hook193<(anonymous namespace)::hook193Parent>::SendRequestAPI()::{lambda(auto:1)#1}::operator()<geode::utils::web::WebResponse*>(geode::utils::web::WebResponse*) const::{lambda()#2}::operator()() const::{lambda()#2}, std::__ndk1::allocator<hook193<(anonymous namespace)::hook193Parent>::SendRequestAPI()::{lambda(auto:1)#1}::operator()<geode::utils::web::WebResponse*>(geode::utils::web::WebResponse*) const::{lambda()#2}::operator()() const::{lambda()#2}>, void ()>::__clone() const
PUBLIC 60d68 0 std::__ndk1::__function::__func<hook193<(anonymous namespace)::hook193Parent>::SendRequestAPI()::{lambda(auto:1)#1}::operator()<geode::utils::web::WebResponse*>(geode::utils::web::WebResponse*) const::{lambda()#2}::operator()() const::{lambda()#2}, std::__ndk1::allocator<hook193<(anonymous namespace)::hook193Parent>::SendRequestAPI()::{lambda(auto:1)#1}::operator()<geode::utils::web::WebResponse*>(geode::utils::web::WebResponse*) const::{lambda()#2}::operator()() const::{lambda()#2}>, void ()>::__clone(std::__ndk1::__function::__base<void ()>*) const
PUBLIC 60d78 0 std::__ndk1::__function::__func<hook193<(anonymous namespace)::hook193Parent>::SendRequestAPI()::{lambda(auto:1)#1}::operator()<geode::utils::web::WebResponse*>(geode::utils::web::WebResponse*) const::{lambda()#2}::operator()() const::{lambda()#2}, std::__ndk1::allocator<hook193<(anonymous namespace)::hook193Parent>::SendRequestAPI()::{lambda(auto:1)#1}::operator()<geode::utils::web::WebResponse*>(geode::utils::web::WebResponse*) const::{lambda()#2}::operator()() const::{lambda()#2}>, void ()>::destroy()
PUBLIC 60d7c 0 std::__ndk1::__function::__func<hook193<(anonymous namespace)::hook193Parent>::SendRequestAPI()::{lambda(auto:1)#1}::operator()<geode::utils::web::WebResponse*>(geode::utils::web::WebResponse*) const::{lambda()#2}::operator()() const::{lambda()#2}, std::__ndk1::allocator<hook193<(anonymous namespace)::hook193Parent>::SendRequestAPI()::{lambda(auto:1)#1}::operator()<geode::utils::web::WebResponse*>(geode::utils::web::WebResponse*) const::{lambda()#2}::operator()() const::{lambda()#2}>, void ()>::destroy_deallocate()
PUBLIC 60d80 0 std::__ndk1::__function::__func<hook193<(anonymous namespace)::hook193Parent>::SendRequestAPI()::{lambda(auto:1)#1}::operator()<geode::utils::web::WebResponse*>(geode::utils::web::WebResponse*) const::{lambda()#2}::operator()() const::{lambda()#2}, std::__ndk1::allocator<hook193<(anonymous namespace)::hook193Parent>::SendRequestAPI()::{lambda(auto:1)#1}::operator()<geode::utils::web::WebResponse*>(geode::utils::web::WebResponse*) const::{lambda()#2}::operator()() const::{lambda()#2}>, void ()>::operator()()
PUBLIC 60d84 0 std::__ndk1::__function::__func<hook193<(anonymous namespace)::hook193Parent>::SendRequestAPI()::{lambda(auto:1)#1}::operator()<geode::utils::web::WebResponse*>(geode::utils::web::WebResponse*) const::{lambda()#2}::operator()() const::{lambda()#2}, std::__ndk1::allocator<hook193<(anonymous namespace)::hook193Parent>::SendRequestAPI()::{lambda(auto:1)#1}::operator()<geode::utils::web::WebResponse*>(geode::utils::web::WebResponse*) const::{lambda()#2}::operator()() const::{lambda()#2}>, void ()>::target(std::type_info const&) const
PUBLIC 60da0 0 std::__ndk1::__function::__func<hook193<(anonymous namespace)::hook193Parent>::SendRequestAPI()::{lambda(auto:1)#1}::operator()<geode::utils::web::WebResponse*>(geode::utils::web::WebResponse*) const::{lambda()#2}::operator()() const::{lambda()#2}, std::__ndk1::allocator<hook193<(anonymous namespace)::hook193Parent>::SendRequestAPI()::{lambda(auto:1)#1}::operator()<geode::utils::web::WebResponse*>(geode::utils::web::WebResponse*) const::{lambda()#2}::operator()() const::{lambda()#2}>, void ()>::target_type() const
PUBLIC 60dac 0 std::__ndk1::__variant_detail::__visitation::__base::__dispatcher<(unsigned long)0>::__dispatch[abi:ne190000]<std::__ndk1::__variant_detail::__dtor<std::__ndk1::__variant_detail::__traits<geode::utils::file::Unzip, std::__ndk1::basic_string<char, std::__ndk1::char_traits<char>, std::__ndk1::allocator<char> > >, (std::__ndk1::__variant_detail::_Trait)1>::__destroy[abi:ne190000]()::{lambda(auto:1&)#1}, std::__ndk1::__variant_detail::__base<(std::__ndk1::__variant_detail::__traits<geode::utils::file::Unzip, std::__ndk1::basic_string<char, std::__ndk1::char_traits<char>, std::__ndk1::allocator<char> > >)1, geode::utils::file, std::__ndk1::allocator<char> >&>(std::__ndk1::__variant_detail::__dtor<std::__ndk1::__variant_detail::__traits<geode::utils::file::Unzip, std::__ndk1::basic_string<char, std::__ndk1::char_traits<char>, std::__ndk1::allocator<char> > >, (std::__ndk1::__variant_detail::_Trait)1>, std::__ndk1::__variant_detail::__base<(std::__ndk1::__variant_detail::__traits<geode::utils::file::Unzip, std::__ndk1::basic_string<char, std::__ndk1::char_traits<char>, std::__ndk1::allocator<char> > >)1, geode::utils::file, std::__ndk1::allocator<char> >&)
PUBLIC 60db4 0 std::__ndk1::__variant_detail::__visitation::__base::__dispatcher<(unsigned long)1>::__dispatch[abi:ne190000]<std::__ndk1::__variant_detail::__dtor<std::__ndk1::__variant_detail::__traits<geode::utils::file::Unzip, std::__ndk1::basic_string<char, std::__ndk1::char_traits<char>, std::__ndk1::allocator<char> > >, (std::__ndk1::__variant_detail::_Trait)1>::__destroy[abi:ne190000]()::{lambda(auto:1&)#1}, std::__ndk1::__variant_detail::__base<(std::__ndk1::__variant_detail::__traits<geode::utils::file::Unzip, std::__ndk1::basic_string<char, std::__ndk1::char_traits<char>, std::__ndk1::allocator<char> > >)1, geode::utils::file, std::__ndk1::allocator<char> >&>(std::__ndk1::__variant_detail::__dtor<std::__ndk1::__variant_detail::__traits<geode::utils::file::Unzip, std::__ndk1::basic_string<char, std::__ndk1::char_traits<char>, std::__ndk1::allocator<char> > >, (std::__ndk1::__variant_detail::_Trait)1>, std::__ndk1::__variant_detail::__base<(std::__ndk1::__variant_detail::__traits<geode::utils::file::Unzip, std::__ndk1::basic_string<char, std::__ndk1::char_traits<char>, std::__ndk1::allocator<char> > >)1, geode::utils::file, std::__ndk1::allocator<char> >&)
PUBLIC 60dc8 0 std::__ndk1::__function::__func<hook193<(anonymous namespace)::hook193Parent>::SendRequestAPI()::{lambda(auto:1)#1}::operator()<geode::utils::web::WebResponse*>(geode::utils::web::WebResponse*) const::{lambda()#3}, std::__ndk1::allocator<hook193<(anonymous namespace)::hook193Parent>::SendRequestAPI()::{lambda(auto:1)#1}::operator()<geode::utils::web::WebResponse*>(geode::utils::web::WebResponse*) const::{lambda()#3}>, void ()>::~__func()
PUBLIC 60dcc 0 std::__ndk1::__function::__func<hook193<(anonymous namespace)::hook193Parent>::SendRequestAPI()::{lambda(auto:1)#1}::operator()<geode::utils::web::WebResponse*>(geode::utils::web::WebResponse*) const::{lambda()#3}, std::__ndk1::allocator<hook193<(anonymous namespace)::hook193Parent>::SendRequestAPI()::{lambda(auto:1)#1}::operator()<geode::utils::web::WebResponse*>(geode::utils::web::WebResponse*) const::{lambda()#3}>, void ()>::__clone() const
PUBLIC 60df0 0 std::__ndk1::__function::__func<hook193<(anonymous namespace)::hook193Parent>::SendRequestAPI()::{lambda(auto:1)#1}::operator()<geode::utils::web::WebResponse*>(geode::utils::web::WebResponse*) const::{lambda()#3}, std::__ndk1::allocator<hook193<(anonymous namespace)::hook193Parent>::SendRequestAPI()::{lambda(auto:1)#1}::operator()<geode::utils::web::WebResponse*>(geode::utils::web::WebResponse*) const::{lambda()#3}>, void ()>::__clone(std::__ndk1::__function::__base<void ()>*) const
PUBLIC 60e00 0 std::__ndk1::__function::__func<hook193<(anonymous namespace)::hook193Parent>::SendRequestAPI()::{lambda(auto:1)#1}::operator()<geode::utils::web::WebResponse*>(geode::utils::web::WebResponse*) const::{lambda()#3}, std::__ndk1::allocator<hook193<(anonymous namespace)::hook193Parent>::SendRequestAPI()::{lambda(auto:1)#1}::operator()<geode::utils::web::WebResponse*>(geode::utils::web::WebResponse*) const::{lambda()#3}>, void ()>::destroy()
PUBLIC 60e04 0 std::__ndk1::__function::__func<hook193<(anonymous namespace)::hook193Parent>::SendRequestAPI()::{lambda(auto:1)#1}::operator()<geode::utils::web::WebResponse*>(geode::utils::web::WebResponse*) const::{lambda()#3}, std::__ndk1::allocator<hook193<(anonymous namespace)::hook193Parent>::SendRequestAPI()::{lambda(auto:1)#1}::operator()<geode::utils::web::WebResponse*>(geode::utils::web::WebResponse*) const::{lambda()#3}>, void ()>::destroy_deallocate()
PUBLIC 60e08 0 std::__ndk1::__function::__func<hook193<(anonymous namespace)::hook193Parent>::SendRequestAPI()::{lambda(auto:1)#1}::operator()<geode::utils::web::WebResponse*>(geode::utils::web::WebResponse*) const::{lambda()#3}, std::__ndk1::allocator<hook193<(anonymous namespace)::hook193Parent>::SendRequestAPI()::{lambda(auto:1)#1}::operator()<geode::utils::web::WebResponse*>(geode::utils::web::WebResponse*) const::{lambda()#3}>, void ()>::operator()()
PUBLIC 60ecc 0 std::__ndk1::__function::__func<hook193<(anonymous namespace)::hook193Parent>::SendRequestAPI()::{lambda(auto:1)#1}::operator()<geode::utils::web::WebResponse*>(geode::utils::web::WebResponse*) const::{lambda()#3}, std::__ndk1::allocator<hook193<(anonymous namespace)::hook193Parent>::SendRequestAPI()::{lambda(auto:1)#1}::operator()<geode::utils::web::WebResponse*>(geode::utils::web::WebResponse*) const::{lambda()#3}>, void ()>::target(std::type_info const&) const
PUBLIC 60ee8 0 std::__ndk1::__function::__func<hook193<(anonymous namespace)::hook193Parent>::SendRequestAPI()::{lambda(auto:1)#1}::operator()<geode::utils::web::WebResponse*>(geode::utils::web::WebResponse*) const::{lambda()#3}, std::__ndk1::allocator<hook193<(anonymous namespace)::hook193Parent>::SendRequestAPI()::{lambda(auto:1)#1}::operator()<geode::utils::web::WebResponse*>(geode::utils::web::WebResponse*) const::{lambda()#3}>, void ()>::target_type() const
PUBLIC 60ef4 0 std::__ndk1::__function::__func<hook193<(anonymous namespace)::hook193Parent>::SendRequestAPI()::{lambda()#2}::operator()() const::{lambda()#1}, std::__ndk1::allocator<hook193<(anonymous namespace)::hook193Parent>::SendRequestAPI()::{lambda()#2}::operator()() const::{lambda()#1}>, void ()>::~__func()
PUBLIC 60ef8 0 std::__ndk1::__function::__func<hook193<(anonymous namespace)::hook193Parent>::SendRequestAPI()::{lambda()#2}::operator()() const::{lambda()#1}, std::__ndk1::allocator<hook193<(anonymous namespace)::hook193Parent>::SendRequestAPI()::{lambda()#2}::operator()() const::{lambda()#1}>, void ()>::__clone() const
PUBLIC 60f1c 0 std::__ndk1::__function::__func<hook193<(anonymous namespace)::hook193Parent>::SendRequestAPI()::{lambda()#2}::operator()() const::{lambda()#1}, std::__ndk1::allocator<hook193<(anonymous namespace)::hook193Parent>::SendRequestAPI()::{lambda()#2}::operator()() const::{lambda()#1}>, void ()>::__clone(std::__ndk1::__function::__base<void ()>*) const
PUBLIC 60f2c 0 std::__ndk1::__function::__func<hook193<(anonymous namespace)::hook193Parent>::SendRequestAPI()::{lambda()#2}::operator()() const::{lambda()#1}, std::__ndk1::allocator<hook193<(anonymous namespace)::hook193Parent>::SendRequestAPI()::{lambda()#2}::operator()() const::{lambda()#1}>, void ()>::destroy()
PUBLIC 60f30 0 std::__ndk1::__function::__func<hook193<(anonymous namespace)::hook193Parent>::SendRequestAPI()::{lambda()#2}::operator()() const::{lambda()#1}, std::__ndk1::allocator<hook193<(anonymous namespace)::hook193Parent>::SendRequestAPI()::{lambda()#2}::operator()() const::{lambda()#1}>, void ()>::destroy_deallocate()
PUBLIC 60f34 0 std::__ndk1::__function::__func<hook193<(anonymous namespace)::hook193Parent>::SendRequestAPI()::{lambda()#2}::operator()() const::{lambda()#1}, std::__ndk1::allocator<hook193<(anonymous namespace)::hook193Parent>::SendRequestAPI()::{lambda()#2}::operator()() const::{lambda()#1}>, void ()>::operator()()
PUBLIC 60ff8 0 std::__ndk1::__function::__func<hook193<(anonymous namespace)::hook193Parent>::SendRequestAPI()::{lambda()#2}::operator()() const::{lambda()#1}, std::__ndk1::allocator<hook193<(anonymous namespace)::hook193Parent>::SendRequestAPI()::{lambda()#2}::operator()() const::{lambda()#1}>, void ()>::target(std::type_info const&) const
PUBLIC 61014 0 std::__ndk1::__function::__func<hook193<(anonymous namespace)::hook193Parent>::SendRequestAPI()::{lambda()#2}::operator()() const::{lambda()#1}, std::__ndk1::allocator<hook193<(anonymous namespace)::hook193Parent>::SendRequestAPI()::{lambda()#2}::operator()() const::{lambda()#1}>, void ()>::target_type() const
PUBLIC 61020 0 std::__ndk1::__function::__base<void ()>::~__base()
PUBLIC 61024 0 std::__ndk1::__function::__func<geode::Task<geode::utils::web::WebResponse, geode::utils::web::WebProgress>::listen<hook193<(anonymous namespace)::hook193Parent>::SendRequestAPI()::{lambda(auto:1)#1}, hook193<(anonymous namespace)::hook193Parent>::SendRequestAPI()::{lambda(auto:1)#2}, hook193<(anonymous namespace)::hook193Parent>::SendRequestAPI()::{lambda()#2}>(hook193<(anonymous namespace)::hook193Parent>::SendRequestAPI()::{lambda(auto:1)#1}&&, hook193<(anonymous namespace)::hook193Parent>::SendRequestAPI()::{lambda(auto:1)#2}&&, hook193<(anonymous namespace)::hook193Parent>::SendRequestAPI()::{lambda()#2}&&) const::{lambda(geode::Task<geode::utils::web::WebResponse, geode::utils::web::WebProgress>::Event*)#1}::operator()(geode::Task<geode::utils::web::WebResponse, geode::utils::web::WebProgress>::Event*)::{lambda()#1}, std::__ndk1::allocator<geode::Task<geode::utils::web::WebResponse, geode::utils::web::WebProgress>::listen<hook193<(anonymous namespace)::hook193Parent>::SendRequestAPI()::{lambda(auto:1)#1}, hook193<(anonymous namespace)::hook193Parent>::SendRequestAPI()::{lambda(auto:1)#2}, hook193<(anonymous namespace)::hook193Parent>::SendRequestAPI()::{lambda()#2}>(hook193<(anonymous namespace)::hook193Parent>::SendRequestAPI()::{lambda(auto:1)#1}&&, hook193<(anonymous namespace)::hook193Parent>::SendRequestAPI()::{lambda(auto:1)#2}&&, hook193<(anonymous namespace)::hook193Parent>::SendRequestAPI()::{lambda()#2}&&) const::{lambda(geode::Task<geode::utils::web::WebResponse, geode::utils::web::WebProgress>::Event*)#1}::operator()(geode::Task<geode::utils::web::WebResponse, geode::utils::web::WebProgress>::Event*)::{lambda()#1}>, void ()>::~__func()
PUBLIC 61028 0 std::__ndk1::__function::__func<geode::Task<geode::utils::web::WebResponse, geode::utils::web::WebProgress>::listen<hook193<(anonymous namespace)::hook193Parent>::SendRequestAPI()::{lambda(auto:1)#1}, hook193<(anonymous namespace)::hook193Parent>::SendRequestAPI()::{lambda(auto:1)#2}, hook193<(anonymous namespace)::hook193Parent>::SendRequestAPI()::{lambda()#2}>(hook193<(anonymous namespace)::hook193Parent>::SendRequestAPI()::{lambda(auto:1)#1}&&, hook193<(anonymous namespace)::hook193Parent>::SendRequestAPI()::{lambda(auto:1)#2}&&, hook193<(anonymous namespace)::hook193Parent>::SendRequestAPI()::{lambda()#2}&&) const::{lambda(geode::Task<geode::utils::web::WebResponse, geode::utils::web::WebProgress>::Event*)#1}::operator()(geode::Task<geode::utils::web::WebResponse, geode::utils::web::WebProgress>::Event*)::{lambda()#1}, std::__ndk1::allocator<geode::Task<geode::utils::web::WebResponse, geode::utils::web::WebProgress>::listen<hook193<(anonymous namespace)::hook193Parent>::SendRequestAPI()::{lambda(auto:1)#1}, hook193<(anonymous namespace)::hook193Parent>::SendRequestAPI()::{lambda(auto:1)#2}, hook193<(anonymous namespace)::hook193Parent>::SendRequestAPI()::{lambda()#2}>(hook193<(anonymous namespace)::hook193Parent>::SendRequestAPI()::{lambda(auto:1)#1}&&, hook193<(anonymous namespace)::hook193Parent>::SendRequestAPI()::{lambda(auto:1)#2}&&, hook193<(anonymous namespace)::hook193Parent>::SendRequestAPI()::{lambda()#2}&&) const::{lambda(geode::Task<geode::utils::web::WebResponse, geode::utils::web::WebProgress>::Event*)#1}::operator()(geode::Task<geode::utils::web::WebResponse, geode::utils::web::WebProgress>::Event*)::{lambda()#1}>, void ()>::__clone() const
PUBLIC 6105c 0 std::__ndk1::__function::__func<geode::Task<geode::utils::web::WebResponse, geode::utils::web::WebProgress>::listen<hook193<(anonymous namespace)::hook193Parent>::SendRequestAPI()::{lambda(auto:1)#1}, hook193<(anonymous namespace)::hook193Parent>::SendRequestAPI()::{lambda(auto:1)#2}, hook193<(anonymous namespace)::hook193Parent>::SendRequestAPI()::{lambda()#2}>(hook193<(anonymous namespace)::hook193Parent>::SendRequestAPI()::{lambda(auto:1)#1}&&, hook193<(anonymous namespace)::hook193Parent>::SendRequestAPI()::{lambda(auto:1)#2}&&, hook193<(anonymous namespace)::hook193Parent>::SendRequestAPI()::{lambda()#2}&&) const::{lambda(geode::Task<geode::utils::web::WebResponse, geode::utils::web::WebProgress>::Event*)#1}::operator()(geode::Task<geode::utils::web::WebResponse, geode::utils::web::WebProgress>::Event*)::{lambda()#1}, std::__ndk1::allocator<geode::Task<geode::utils::web::WebResponse, geode::utils::web::WebProgress>::listen<hook193<(anonymous namespace)::hook193Parent>::SendRequestAPI()::{lambda(auto:1)#1}, hook193<(anonymous namespace)::hook193Parent>::SendRequestAPI()::{lambda(auto:1)#2}, hook193<(anonymous namespace)::hook193Parent>::SendRequestAPI()::{lambda()#2}>(hook193<(anonymous namespace)::hook193Parent>::SendRequestAPI()::{lambda(auto:1)#1}&&, hook193<(anonymous namespace)::hook193Parent>::SendRequestAPI()::{lambda(auto:1)#2}&&, hook193<(anonymous namespace)::hook193Parent>::SendRequestAPI()::{lambda()#2}&&) const::{lambda(geode::Task<geode::utils::web::WebResponse, geode::utils::web::WebProgress>::Event*)#1}::operator()(geode::Task<geode::utils::web::WebResponse, geode::utils::web::WebProgress>::Event*)::{lambda()#1}>, void ()>::__clone(std::__ndk1::__function::__base<void ()>*) const
PUBLIC 61070 0 std::__ndk1::__function::__func<geode::Task<geode::utils::web::WebResponse, geode::utils::web::WebProgress>::listen<hook193<(anonymous namespace)::hook193Parent>::SendRequestAPI()::{lambda(auto:1)#1}, hook193<(anonymous namespace)::hook193Parent>::SendRequestAPI()::{lambda(auto:1)#2}, hook193<(anonymous namespace)::hook193Parent>::SendRequestAPI()::{lambda()#2}>(hook193<(anonymous namespace)::hook193Parent>::SendRequestAPI()::{lambda(auto:1)#1}&&, hook193<(anonymous namespace)::hook193Parent>::SendRequestAPI()::{lambda(auto:1)#2}&&, hook193<(anonymous namespace)::hook193Parent>::SendRequestAPI()::{lambda()#2}&&) const::{lambda(geode::Task<geode::utils::web::WebResponse, geode::utils::web::WebProgress>::Event*)#1}::operator()(geode::Task<geode::utils::web::WebResponse, geode::utils::web::WebProgress>::Event*)::{lambda()#1}, std::__ndk1::allocator<geode::Task<geode::utils::web::WebResponse, geode::utils::web::WebProgress>::listen<hook193<(anonymous namespace)::hook193Parent>::SendRequestAPI()::{lambda(auto:1)#1}, hook193<(anonymous namespace)::hook193Parent>::SendRequestAPI()::{lambda(auto:1)#2}, hook193<(anonymous namespace)::hook193Parent>::SendRequestAPI()::{lambda()#2}>(hook193<(anonymous namespace)::hook193Parent>::SendRequestAPI()::{lambda(auto:1)#1}&&, hook193<(anonymous namespace)::hook193Parent>::SendRequestAPI()::{lambda(auto:1)#2}&&, hook193<(anonymous namespace)::hook193Parent>::SendRequestAPI()::{lambda()#2}&&) const::{lambda(geode::Task<geode::utils::web::WebResponse, geode::utils::web::WebProgress>::Event*)#1}::operator()(geode::Task<geode::utils::web::WebResponse, geode::utils::web::WebProgress>::Event*)::{lambda()#1}>, void ()>::destroy()
PUBLIC 61074 0 std::__ndk1::__function::__func<geode::Task<geode::utils::web::WebResponse, geode::utils::web::WebProgress>::listen<hook193<(anonymous namespace)::hook193Parent>::SendRequestAPI()::{lambda(auto:1)#1}, hook193<(anonymous namespace)::hook193Parent>::SendRequestAPI()::{lambda(auto:1)#2}, hook193<(anonymous namespace)::hook193Parent>::SendRequestAPI()::{lambda()#2}>(hook193<(anonymous namespace)::hook193Parent>::SendRequestAPI()::{lambda(auto:1)#1}&&, hook193<(anonymous namespace)::hook193Parent>::SendRequestAPI()::{lambda(auto:1)#2}&&, hook193<(anonymous namespace)::hook193Parent>::SendRequestAPI()::{lambda()#2}&&) const::{lambda(geode::Task<geode::utils::web::WebResponse, geode::utils::web::WebProgress>::Event*)#1}::operator()(geode::Task<geode::utils::web::WebResponse, geode::utils::web::WebProgress>::Event*)::{lambda()#1}, std::__ndk1::allocator<geode::Task<geode::utils::web::WebResponse, geode::utils::web::WebProgress>::listen<hook193<(anonymous namespace)::hook193Parent>::SendRequestAPI()::{lambda(auto:1)#1}, hook193<(anonymous namespace)::hook193Parent>::SendRequestAPI()::{lambda(auto:1)#2}, hook193<(anonymous namespace)::hook193Parent>::SendRequestAPI()::{lambda()#2}>(hook193<(anonymous namespace)::hook193Parent>::SendRequestAPI()::{lambda(auto:1)#1}&&, hook193<(anonymous namespace)::hook193Parent>::SendRequestAPI()::{lambda(auto:1)#2}&&, hook193<(anonymous namespace)::hook193Parent>::SendRequestAPI()::{lambda()#2}&&) const::{lambda(geode::Task<geode::utils::web::WebResponse, geode::utils::web::WebProgress>::Event*)#1}::operator()(geode::Task<geode::utils::web::WebResponse, geode::utils::web::WebProgress>::Event*)::{lambda()#1}>, void ()>::destroy_deallocate()
PUBLIC 61078 0 std::__ndk1::__function::__func<geode::Task<geode::utils::web::WebResponse, geode::utils::web::WebProgress>::listen<hook193<(anonymous namespace)::hook193Parent>::SendRequestAPI()::{lambda(auto:1)#1}, hook193<(anonymous namespace)::hook193Parent>::SendRequestAPI()::{lambda(auto:1)#2}, hook193<(anonymous namespace)::hook193Parent>::SendRequestAPI()::{lambda()#2}>(hook193<(anonymous namespace)::hook193Parent>::SendRequestAPI()::{lambda(auto:1)#1}&&, hook193<(anonymous namespace)::hook193Parent>::SendRequestAPI()::{lambda(auto:1)#2}&&, hook193<(anonymous namespace)::hook193Parent>::SendRequestAPI()::{lambda()#2}&&) const::{lambda(geode::Task<geode::utils::web::WebResponse, geode::utils::web::WebProgress>::Event*)#1}::operator()(geode::Task<geode::utils::web::WebResponse, geode::utils::web::WebProgress>::Event*)::{lambda()#1}, std::__ndk1::allocator<geode::Task<geode::utils::web::WebResponse, geode::utils::web::WebProgress>::listen<hook193<(anonymous namespace)::hook193Parent>::SendRequestAPI()::{lambda(auto:1)#1}, hook193<(anonymous namespace)::hook193Parent>::SendRequestAPI()::{lambda(auto:1)#2}, hook193<(anonymous namespace)::hook193Parent>::SendRequestAPI()::{lambda()#2}>(hook193<(anonymous namespace)::hook193Parent>::SendRequestAPI()::{lambda(auto:1)#1}&&, hook193<(anonymous namespace)::hook193Parent>::SendRequestAPI()::{lambda(auto:1)#2}&&, hook193<(anonymous namespace)::hook193Parent>::SendRequestAPI()::{lambda()#2}&&) const::{lambda(geode::Task<geode::utils::web::WebResponse, geode::utils::web::WebProgress>::Event*)#1}::operator()(geode::Task<geode::utils::web::WebResponse, geode::utils::web::WebProgress>::Event*)::{lambda()#1}>, void ()>::operator()()
PUBLIC 61090 0 std::__ndk1::__function::__func<geode::Task<geode::utils::web::WebResponse, geode::utils::web::WebProgress>::listen<hook193<(anonymous namespace)::hook193Parent>::SendRequestAPI()::{lambda(auto:1)#1}, hook193<(anonymous namespace)::hook193Parent>::SendRequestAPI()::{lambda(auto:1)#2}, hook193<(anonymous namespace)::hook193Parent>::SendRequestAPI()::{lambda()#2}>(hook193<(anonymous namespace)::hook193Parent>::SendRequestAPI()::{lambda(auto:1)#1}&&, hook193<(anonymous namespace)::hook193Parent>::SendRequestAPI()::{lambda(auto:1)#2}&&, hook193<(anonymous namespace)::hook193Parent>::SendRequestAPI()::{lambda()#2}&&) const::{lambda(geode::Task<geode::utils::web::WebResponse, geode::utils::web::WebProgress>::Event*)#1}::operator()(geode::Task<geode::utils::web::WebResponse, geode::utils::web::WebProgress>::Event*)::{lambda()#1}, std::__ndk1::allocator<geode::Task<geode::utils::web::WebResponse, geode::utils::web::WebProgress>::listen<hook193<(anonymous namespace)::hook193Parent>::SendRequestAPI()::{lambda(auto:1)#1}, hook193<(anonymous namespace)::hook193Parent>::SendRequestAPI()::{lambda(auto:1)#2}, hook193<(anonymous namespace)::hook193Parent>::SendRequestAPI()::{lambda()#2}>(hook193<(anonymous namespace)::hook193Parent>::SendRequestAPI()::{lambda(auto:1)#1}&&, hook193<(anonymous namespace)::hook193Parent>::SendRequestAPI()::{lambda(auto:1)#2}&&, hook193<(anonymous namespace)::hook193Parent>::SendRequestAPI()::{lambda()#2}&&) const::{lambda(geode::Task<geode::utils::web::WebResponse, geode::utils::web::WebProgress>::Event*)#1}::operator()(geode::Task<geode::utils::web::WebResponse, geode::utils::web::WebProgress>::Event*)::{lambda()#1}>, void ()>::target(std::type_info const&) const
PUBLIC 610ac 0 std::__ndk1::__function::__func<geode::Task<geode::utils::web::WebResponse, geode::utils::web::WebProgress>::listen<hook193<(anonymous namespace)::hook193Parent>::SendRequestAPI()::{lambda(auto:1)#1}, hook193<(anonymous namespace)::hook193Parent>::SendRequestAPI()::{lambda(auto:1)#2}, hook193<(anonymous namespace)::hook193Parent>::SendRequestAPI()::{lambda()#2}>(hook193<(anonymous namespace)::hook193Parent>::SendRequestAPI()::{lambda(auto:1)#1}&&, hook193<(anonymous namespace)::hook193Parent>::SendRequestAPI()::{lambda(auto:1)#2}&&, hook193<(anonymous namespace)::hook193Parent>::SendRequestAPI()::{lambda()#2}&&) const::{lambda(geode::Task<geode::utils::web::WebResponse, geode::utils::web::WebProgress>::Event*)#1}::operator()(geode::Task<geode::utils::web::WebResponse, geode::utils::web::WebProgress>::Event*)::{lambda()#1}, std::__ndk1::allocator<geode::Task<geode::utils::web::WebResponse, geode::utils::web::WebProgress>::listen<hook193<(anonymous namespace)::hook193Parent>::SendRequestAPI()::{lambda(auto:1)#1}, hook193<(anonymous namespace)::hook193Parent>::SendRequestAPI()::{lambda(auto:1)#2}, hook193<(anonymous namespace)::hook193Parent>::SendRequestAPI()::{lambda()#2}>(hook193<(anonymous namespace)::hook193Parent>::SendRequestAPI()::{lambda(auto:1)#1}&&, hook193<(anonymous namespace)::hook193Parent>::SendRequestAPI()::{lambda(auto:1)#2}&&, hook193<(anonymous namespace)::hook193Parent>::SendRequestAPI()::{lambda()#2}&&) const::{lambda(geode::Task<geode::utils::web::WebResponse, geode::utils::web::WebProgress>::Event*)#1}::operator()(geode::Task<geode::utils::web::WebResponse, geode::utils::web::WebProgress>::Event*)::{lambda()#1}>, void ()>::target_type() const
PUBLIC 610b8 0 geode::EventListener<geode::SettingChangedFilterV3>::EventListener(std::__ndk1::function<void (std::__ndk1::shared_ptr<geode::SettingV3>)>, geode::SettingChangedFilterV3)
PUBLIC 611b0 0 geode::SettingChangedFilterV3::~SettingChangedFilterV3()
PUBLIC 61200 0 std::__ndk1::__function::__func<geode::listenForSettingChangesV3<ClicksoundSettingValue, geodeExecFunction283<(anonymous namespace)::ExecFuncUnique283>(geode::ModStateEvent*)::{lambda(ClicksoundSettingValue)#1}>(std::__ndk1::basic_string_view<char, std::__ndk1::char_traits<char> >, geodeExecFunction283<(anonymous namespace)::ExecFuncUnique283>(geode::ModStateEvent*)::{lambda(ClicksoundSettingValue)#1}&&, geode::Mod*)::{lambda(std::__ndk1::shared_ptr<geode::SettingV3>)#1}, std::__ndk1::allocator<geode::listenForSettingChangesV3<ClicksoundSettingValue, geodeExecFunction283<(anonymous namespace)::ExecFuncUnique283>(geode::ModStateEvent*)::{lambda(ClicksoundSettingValue)#1}>(std::__ndk1::basic_string_view<char, std::__ndk1::char_traits<char> >, geodeExecFunction283<(anonymous namespace)::ExecFuncUnique283>(geode::ModStateEvent*)::{lambda(ClicksoundSettingValue)#1}&&, geode::Mod*)::{lambda(std::__ndk1::shared_ptr<geode::SettingV3>)#1}>, void (std::__ndk1::shared_ptr<geode::SettingV3>)>::~__func()
PUBLIC 61204 0 std::__ndk1::__function::__func<geode::listenForSettingChangesV3<ClicksoundSettingValue, geodeExecFunction283<(anonymous namespace)::ExecFuncUnique283>(geode::ModStateEvent*)::{lambda(ClicksoundSettingValue)#1}>(std::__ndk1::basic_string_view<char, std::__ndk1::char_traits<char> >, geodeExecFunction283<(anonymous namespace)::ExecFuncUnique283>(geode::ModStateEvent*)::{lambda(ClicksoundSettingValue)#1}&&, geode::Mod*)::{lambda(std::__ndk1::shared_ptr<geode::SettingV3>)#1}, std::__ndk1::allocator<geode::listenForSettingChangesV3<ClicksoundSettingValue, geodeExecFunction283<(anonymous namespace)::ExecFuncUnique283>(geode::ModStateEvent*)::{lambda(ClicksoundSettingValue)#1}>(std::__ndk1::basic_string_view<char, std::__ndk1::char_traits<char> >, geodeExecFunction283<(anonymous namespace)::ExecFuncUnique283>(geode::ModStateEvent*)::{lambda(ClicksoundSettingValue)#1}&&, geode::Mod*)::{lambda(std::__ndk1::shared_ptr<geode::SettingV3>)#1}>, void (std::__ndk1::shared_ptr<geode::SettingV3>)>::__clone() const
PUBLIC 6123c 0 std::__ndk1::__function::__func<geode::listenForSettingChangesV3<ClicksoundSettingValue, geodeExecFunction283<(anonymous namespace)::ExecFuncUnique283>(geode::ModStateEvent*)::{lambda(ClicksoundSettingValue)#1}>(std::__ndk1::basic_string_view<char, std::__ndk1::char_traits<char> >, geodeExecFunction283<(anonymous namespace)::ExecFuncUnique283>(geode::ModStateEvent*)::{lambda(ClicksoundSettingValue)#1}&&, geode::Mod*)::{lambda(std::__ndk1::shared_ptr<geode::SettingV3>)#1}, std::__ndk1::allocator<geode::listenForSettingChangesV3<ClicksoundSettingValue, geodeExecFunction283<(anonymous namespace)::ExecFuncUnique283>(geode::ModStateEvent*)::{lambda(ClicksoundSettingValue)#1}>(std::__ndk1::basic_string_view<char, std::__ndk1::char_traits<char> >, geodeExecFunction283<(anonymous namespace)::ExecFuncUnique283>(geode::ModStateEvent*)::{lambda(ClicksoundSettingValue)#1}&&, geode::Mod*)::{lambda(std::__ndk1::shared_ptr<geode::SettingV3>)#1}>, void (std::__ndk1::shared_ptr<geode::SettingV3>)>::__clone(std::__ndk1::__function::__base<void (std::__ndk1::shared_ptr<geode::SettingV3>)>*) const
PUBLIC 61254 0 std::__ndk1::__function::__func<geode::listenForSettingChangesV3<ClicksoundSettingValue, geodeExecFunction283<(anonymous namespace)::ExecFuncUnique283>(geode::ModStateEvent*)::{lambda(ClicksoundSettingValue)#1}>(std::__ndk1::basic_string_view<char, std::__ndk1::char_traits<char> >, geodeExecFunction283<(anonymous namespace)::ExecFuncUnique283>(geode::ModStateEvent*)::{lambda(ClicksoundSettingValue)#1}&&, geode::Mod*)::{lambda(std::__ndk1::shared_ptr<geode::SettingV3>)#1}, std::__ndk1::allocator<geode::listenForSettingChangesV3<ClicksoundSettingValue, geodeExecFunction283<(anonymous namespace)::ExecFuncUnique283>(geode::ModStateEvent*)::{lambda(ClicksoundSettingValue)#1}>(std::__ndk1::basic_string_view<char, std::__ndk1::char_traits<char> >, geodeExecFunction283<(anonymous namespace)::ExecFuncUnique283>(geode::ModStateEvent*)::{lambda(ClicksoundSettingValue)#1}&&, geode::Mod*)::{lambda(std::__ndk1::shared_ptr<geode::SettingV3>)#1}>, void (std::__ndk1::shared_ptr<geode::SettingV3>)>::destroy()
PUBLIC 61258 0 std::__ndk1::__function::__func<geode::listenForSettingChangesV3<ClicksoundSettingValue, geodeExecFunction283<(anonymous namespace)::ExecFuncUnique283>(geode::ModStateEvent*)::{lambda(ClicksoundSettingValue)#1}>(std::__ndk1::basic_string_view<char, std::__ndk1::char_traits<char> >, geodeExecFunction283<(anonymous namespace)::ExecFuncUnique283>(geode::ModStateEvent*)::{lambda(ClicksoundSettingValue)#1}&&, geode::Mod*)::{lambda(std::__ndk1::shared_ptr<geode::SettingV3>)#1}, std::__ndk1::allocator<geode::listenForSettingChangesV3<ClicksoundSettingValue, geodeExecFunction283<(anonymous namespace)::ExecFuncUnique283>(geode::ModStateEvent*)::{lambda(ClicksoundSettingValue)#1}>(std::__ndk1::basic_string_view<char, std::__ndk1::char_traits<char> >, geodeExecFunction283<(anonymous namespace)::ExecFuncUnique283>(geode::ModStateEvent*)::{lambda(ClicksoundSettingValue)#1}&&, geode::Mod*)::{lambda(std::__ndk1::shared_ptr<geode::SettingV3>)#1}>, void (std::__ndk1::shared_ptr<geode::SettingV3>)>::destroy_deallocate()
PUBLIC 6125c 0 std::__ndk1::__function::__func<geode::listenForSettingChangesV3<ClicksoundSettingValue, geodeExecFunction283<(anonymous namespace)::ExecFuncUnique283>(geode::ModStateEvent*)::{lambda(ClicksoundSettingValue)#1}>(std::__ndk1::basic_string_view<char, std::__ndk1::char_traits<char> >, geodeExecFunction283<(anonymous namespace)::ExecFuncUnique283>(geode::ModStateEvent*)::{lambda(ClicksoundSettingValue)#1}&&, geode::Mod*)::{lambda(std::__ndk1::shared_ptr<geode::SettingV3>)#1}, std::__ndk1::allocator<geode::listenForSettingChangesV3<ClicksoundSettingValue, geodeExecFunction283<(anonymous namespace)::ExecFuncUnique283>(geode::ModStateEvent*)::{lambda(ClicksoundSettingValue)#1}>(std::__ndk1::basic_string_view<char, std::__ndk1::char_traits<char> >, geodeExecFunction283<(anonymous namespace)::ExecFuncUnique283>(geode::ModStateEvent*)::{lambda(ClicksoundSettingValue)#1}&&, geode::Mod*)::{lambda(std::__ndk1::shared_ptr<geode::SettingV3>)#1}>, void (std::__ndk1::shared_ptr<geode::SettingV3>)>::operator()(std::__ndk1::shared_ptr<geode::SettingV3>&&)
PUBLIC 61404 0 std::__ndk1::__function::__func<geode::listenForSettingChangesV3<ClicksoundSettingValue, geodeExecFunction283<(anonymous namespace)::ExecFuncUnique283>(geode::ModStateEvent*)::{lambda(ClicksoundSettingValue)#1}>(std::__ndk1::basic_string_view<char, std::__ndk1::char_traits<char> >, geodeExecFunction283<(anonymous namespace)::ExecFuncUnique283>(geode::ModStateEvent*)::{lambda(ClicksoundSettingValue)#1}&&, geode::Mod*)::{lambda(std::__ndk1::shared_ptr<geode::SettingV3>)#1}, std::__ndk1::allocator<geode::listenForSettingChangesV3<ClicksoundSettingValue, geodeExecFunction283<(anonymous namespace)::ExecFuncUnique283>(geode::ModStateEvent*)::{lambda(ClicksoundSettingValue)#1}>(std::__ndk1::basic_string_view<char, std::__ndk1::char_traits<char> >, geodeExecFunction283<(anonymous namespace)::ExecFuncUnique283>(geode::ModStateEvent*)::{lambda(ClicksoundSettingValue)#1}&&, geode::Mod*)::{lambda(std::__ndk1::shared_ptr<geode::SettingV3>)#1}>, void (std::__ndk1::shared_ptr<geode::SettingV3>)>::target(std::type_info const&) const
PUBLIC 61420 0 std::__ndk1::__function::__func<geode::listenForSettingChangesV3<ClicksoundSettingValue, geodeExecFunction283<(anonymous namespace)::ExecFuncUnique283>(geode::ModStateEvent*)::{lambda(ClicksoundSettingValue)#1}>(std::__ndk1::basic_string_view<char, std::__ndk1::char_traits<char> >, geodeExecFunction283<(anonymous namespace)::ExecFuncUnique283>(geode::ModStateEvent*)::{lambda(ClicksoundSettingValue)#1}&&, geode::Mod*)::{lambda(std::__ndk1::shared_ptr<geode::SettingV3>)#1}, std::__ndk1::allocator<geode::listenForSettingChangesV3<ClicksoundSettingValue, geodeExecFunction283<(anonymous namespace)::ExecFuncUnique283>(geode::ModStateEvent*)::{lambda(ClicksoundSettingValue)#1}>(std::__ndk1::basic_string_view<char, std::__ndk1::char_traits<char> >, geodeExecFunction283<(anonymous namespace)::ExecFuncUnique283>(geode::ModStateEvent*)::{lambda(ClicksoundSettingValue)#1}&&, geode::Mod*)::{lambda(std::__ndk1::shared_ptr<geode::SettingV3>)#1}>, void (std::__ndk1::shared_ptr<geode::SettingV3>)>::target_type() const
PUBLIC 6142c 0 geode::EventListener<geode::SettingChangedFilterV3>::getPool() const
PUBLIC 61430 0 geode::EventListener<geode::SettingChangedFilterV3>::handle(geode::Event*)
PUBLIC 615a4 0 geode::EventListener<geode::SettingChangedFilterV3>::~EventListener()
PUBLIC 61640 0 geode::EventListener<geode::SettingChangedFilterV3>::~EventListener()
PUBLIC 616e4 0 std::__ndk1::__function::__base<void (std::__ndk1::shared_ptr<geode::SettingV3>)>::~__base()
PUBLIC 616e8 0 std::__ndk1::__function::__func<geode::listenForSettingChangesV3<ClicksoundSettingValue, geodeExecFunction283<(anonymous namespace)::ExecFuncUnique283>(geode::ModStateEvent*)::{lambda(ClicksoundSettingValue)#2}>(std::__ndk1::basic_string_view<char, std::__ndk1::char_traits<char> >, geodeExecFunction283<(anonymous namespace)::ExecFuncUnique283>(geode::ModStateEvent*)::{lambda(ClicksoundSettingValue)#2}&&, geode::Mod*)::{lambda(std::__ndk1::shared_ptr<geode::SettingV3>)#1}, std::__ndk1::allocator<geode::listenForSettingChangesV3<ClicksoundSettingValue, geodeExecFunction283<(anonymous namespace)::ExecFuncUnique283>(geode::ModStateEvent*)::{lambda(ClicksoundSettingValue)#2}>(std::__ndk1::basic_string_view<char, std::__ndk1::char_traits<char> >, geodeExecFunction283<(anonymous namespace)::ExecFuncUnique283>(geode::ModStateEvent*)::{lambda(ClicksoundSettingValue)#2}&&, geode::Mod*)::{lambda(std::__ndk1::shared_ptr<geode::SettingV3>)#1}>, void (std::__ndk1::shared_ptr<geode::SettingV3>)>::~__func()
PUBLIC 616ec 0 std::__ndk1::__function::__func<geode::listenForSettingChangesV3<ClicksoundSettingValue, geodeExecFunction283<(anonymous namespace)::ExecFuncUnique283>(geode::ModStateEvent*)::{lambda(ClicksoundSettingValue)#2}>(std::__ndk1::basic_string_view<char, std::__ndk1::char_traits<char> >, geodeExecFunction283<(anonymous namespace)::ExecFuncUnique283>(geode::ModStateEvent*)::{lambda(ClicksoundSettingValue)#2}&&, geode::Mod*)::{lambda(std::__ndk1::shared_ptr<geode::SettingV3>)#1}, std::__ndk1::allocator<geode::listenForSettingChangesV3<ClicksoundSettingValue, geodeExecFunction283<(anonymous namespace)::ExecFuncUnique283>(geode::ModStateEvent*)::{lambda(ClicksoundSettingValue)#2}>(std::__ndk1::basic_string_view<char, std::__ndk1::char_traits<char> >, geodeExecFunction283<(anonymous namespace)::ExecFuncUnique283>(geode::ModStateEvent*)::{lambda(ClicksoundSettingValue)#2}&&, geode::Mod*)::{lambda(std::__ndk1::shared_ptr<geode::SettingV3>)#1}>, void (std::__ndk1::shared_ptr<geode::SettingV3>)>::__clone() const
PUBLIC 61724 0 std::__ndk1::__function::__func<geode::listenForSettingChangesV3<ClicksoundSettingValue, geodeExecFunction283<(anonymous namespace)::ExecFuncUnique283>(geode::ModStateEvent*)::{lambda(ClicksoundSettingValue)#2}>(std::__ndk1::basic_string_view<char, std::__ndk1::char_traits<char> >, geodeExecFunction283<(anonymous namespace)::ExecFuncUnique283>(geode::ModStateEvent*)::{lambda(ClicksoundSettingValue)#2}&&, geode::Mod*)::{lambda(std::__ndk1::shared_ptr<geode::SettingV3>)#1}, std::__ndk1::allocator<geode::listenForSettingChangesV3<ClicksoundSettingValue, geodeExecFunction283<(anonymous namespace)::ExecFuncUnique283>(geode::ModStateEvent*)::{lambda(ClicksoundSettingValue)#2}>(std::__ndk1::basic_string_view<char, std::__ndk1::char_traits<char> >, geodeExecFunction283<(anonymous namespace)::ExecFuncUnique283>(geode::ModStateEvent*)::{lambda(ClicksoundSettingValue)#2}&&, geode::Mod*)::{lambda(std::__ndk1::shared_ptr<geode::SettingV3>)#1}>, void (std::__ndk1::shared_ptr<geode::SettingV3>)>::__clone(std::__ndk1::__function::__base<void (std::__ndk1::shared_ptr<geode::SettingV3>)>*) const
PUBLIC 6173c 0 std::__ndk1::__function::__func<geode::listenForSettingChangesV3<ClicksoundSettingValue, geodeExecFunction283<(anonymous namespace)::ExecFuncUnique283>(geode::ModStateEvent*)::{lambda(ClicksoundSettingValue)#2}>(std::__ndk1::basic_string_view<char, std::__ndk1::char_traits<char> >, geodeExecFunction283<(anonymous namespace)::ExecFuncUnique283>(geode::ModStateEvent*)::{lambda(ClicksoundSettingValue)#2}&&, geode::Mod*)::{lambda(std::__ndk1::shared_ptr<geode::SettingV3>)#1}, std::__ndk1::allocator<geode::listenForSettingChangesV3<ClicksoundSettingValue, geodeExecFunction283<(anonymous namespace)::ExecFuncUnique283>(geode::ModStateEvent*)::{lambda(ClicksoundSettingValue)#2}>(std::__ndk1::basic_string_view<char, std::__ndk1::char_traits<char> >, geodeExecFunction283<(anonymous namespace)::ExecFuncUnique283>(geode::ModStateEvent*)::{lambda(ClicksoundSettingValue)#2}&&, geode::Mod*)::{lambda(std::__ndk1::shared_ptr<geode::SettingV3>)#1}>, void (std::__ndk1::shared_ptr<geode::SettingV3>)>::destroy()
PUBLIC 61740 0 std::__ndk1::__function::__func<geode::listenForSettingChangesV3<ClicksoundSettingValue, geodeExecFunction283<(anonymous namespace)::ExecFuncUnique283>(geode::ModStateEvent*)::{lambda(ClicksoundSettingValue)#2}>(std::__ndk1::basic_string_view<char, std::__ndk1::char_traits<char> >, geodeExecFunction283<(anonymous namespace)::ExecFuncUnique283>(geode::ModStateEvent*)::{lambda(ClicksoundSettingValue)#2}&&, geode::Mod*)::{lambda(std::__ndk1::shared_ptr<geode::SettingV3>)#1}, std::__ndk1::allocator<geode::listenForSettingChangesV3<ClicksoundSettingValue, geodeExecFunction283<(anonymous namespace)::ExecFuncUnique283>(geode::ModStateEvent*)::{lambda(ClicksoundSettingValue)#2}>(std::__ndk1::basic_string_view<char, std::__ndk1::char_traits<char> >, geodeExecFunction283<(anonymous namespace)::ExecFuncUnique283>(geode::ModStateEvent*)::{lambda(ClicksoundSettingValue)#2}&&, geode::Mod*)::{lambda(std::__ndk1::shared_ptr<geode::SettingV3>)#1}>, void (std::__ndk1::shared_ptr<geode::SettingV3>)>::destroy_deallocate()
PUBLIC 61744 0 std::__ndk1::__function::__func<geode::listenForSettingChangesV3<ClicksoundSettingValue, geodeExecFunction283<(anonymous namespace)::ExecFuncUnique283>(geode::ModStateEvent*)::{lambda(ClicksoundSettingValue)#2}>(std::__ndk1::basic_string_view<char, std::__ndk1::char_traits<char> >, geodeExecFunction283<(anonymous namespace)::ExecFuncUnique283>(geode::ModStateEvent*)::{lambda(ClicksoundSettingValue)#2}&&, geode::Mod*)::{lambda(std::__ndk1::shared_ptr<geode::SettingV3>)#1}, std::__ndk1::allocator<geode::listenForSettingChangesV3<ClicksoundSettingValue, geodeExecFunction283<(anonymous namespace)::ExecFuncUnique283>(geode::ModStateEvent*)::{lambda(ClicksoundSettingValue)#2}>(std::__ndk1::basic_string_view<char, std::__ndk1::char_traits<char> >, geodeExecFunction283<(anonymous namespace)::ExecFuncUnique283>(geode::ModStateEvent*)::{lambda(ClicksoundSettingValue)#2}&&, geode::Mod*)::{lambda(std::__ndk1::shared_ptr<geode::SettingV3>)#1}>, void (std::__ndk1::shared_ptr<geode::SettingV3>)>::operator()(std::__ndk1::shared_ptr<geode::SettingV3>&&)
PUBLIC 618ec 0 std::__ndk1::__function::__func<geode::listenForSettingChangesV3<ClicksoundSettingValue, geodeExecFunction283<(anonymous namespace)::ExecFuncUnique283>(geode::ModStateEvent*)::{lambda(ClicksoundSettingValue)#2}>(std::__ndk1::basic_string_view<char, std::__ndk1::char_traits<char> >, geodeExecFunction283<(anonymous namespace)::ExecFuncUnique283>(geode::ModStateEvent*)::{lambda(ClicksoundSettingValue)#2}&&, geode::Mod*)::{lambda(std::__ndk1::shared_ptr<geode::SettingV3>)#1}, std::__ndk1::allocator<geode::listenForSettingChangesV3<ClicksoundSettingValue, geodeExecFunction283<(anonymous namespace)::ExecFuncUnique283>(geode::ModStateEvent*)::{lambda(ClicksoundSettingValue)#2}>(std::__ndk1::basic_string_view<char, std::__ndk1::char_traits<char> >, geodeExecFunction283<(anonymous namespace)::ExecFuncUnique283>(geode::ModStateEvent*)::{lambda(ClicksoundSettingValue)#2}&&, geode::Mod*)::{lambda(std::__ndk1::shared_ptr<geode::SettingV3>)#1}>, void (std::__ndk1::shared_ptr<geode::SettingV3>)>::target(std::type_info const&) const
PUBLIC 61908 0 std::__ndk1::__function::__func<geode::listenForSettingChangesV3<ClicksoundSettingValue, geodeExecFunction283<(anonymous namespace)::ExecFuncUnique283>(geode::ModStateEvent*)::{lambda(ClicksoundSettingValue)#2}>(std::__ndk1::basic_string_view<char, std::__ndk1::char_traits<char> >, geodeExecFunction283<(anonymous namespace)::ExecFuncUnique283>(geode::ModStateEvent*)::{lambda(ClicksoundSettingValue)#2}&&, geode::Mod*)::{lambda(std::__ndk1::shared_ptr<geode::SettingV3>)#1}, std::__ndk1::allocator<geode::listenForSettingChangesV3<ClicksoundSettingValue, geodeExecFunction283<(anonymous namespace)::ExecFuncUnique283>(geode::ModStateEvent*)::{lambda(ClicksoundSettingValue)#2}>(std::__ndk1::basic_string_view<char, std::__ndk1::char_traits<char> >, geodeExecFunction283<(anonymous namespace)::ExecFuncUnique283>(geode::ModStateEvent*)::{lambda(ClicksoundSettingValue)#2}&&, geode::Mod*)::{lambda(std::__ndk1::shared_ptr<geode::SettingV3>)#1}>, void (std::__ndk1::shared_ptr<geode::SettingV3>)>::target_type() const
PUBLIC 61914 0 geode::EventListener<geode::ModStateFilter>::getPool() const
PUBLIC 61918 0 geode::EventListener<geode::ModStateFilter>::handle(geode::Event*)
PUBLIC 61a8c 0 geode::EventListener<geode::ModStateFilter>::~EventListener()
PUBLIC 61ae8 0 geode::EventListener<geode::ModStateFilter>::~EventListener()
PUBLIC 61b4c 0 std::__ndk1::__function::__base<void (geode::ModStateEvent*)>::~__base()
PUBLIC 61b50 0 std::__ndk1::__function::__func<void (*)(geode::ModStateEvent*), std::__ndk1::allocator<void (*)(geode::ModStateEvent*)>, void (geode::ModStateEvent*)>::~__func()
PUBLIC 61b54 0 std::__ndk1::__function::__func<void (*)(geode::ModStateEvent*), std::__ndk1::allocator<void (*)(geode::ModStateEvent*)>, void (geode::ModStateEvent*)>::__clone() const
PUBLIC 61b88 0 std::__ndk1::__function::__func<void (*)(geode::ModStateEvent*), std::__ndk1::allocator<void (*)(geode::ModStateEvent*)>, void (geode::ModStateEvent*)>::__clone(std::__ndk1::__function::__base<void (geode::ModStateEvent*)>*) const
PUBLIC 61b9c 0 std::__ndk1::__function::__func<void (*)(geode::ModStateEvent*), std::__ndk1::allocator<void (*)(geode::ModStateEvent*)>, void (geode::ModStateEvent*)>::destroy()
PUBLIC 61ba0 0 std::__ndk1::__function::__func<void (*)(geode::ModStateEvent*), std::__ndk1::allocator<void (*)(geode::ModStateEvent*)>, void (geode::ModStateEvent*)>::destroy_deallocate()
PUBLIC 61ba4 0 std::__ndk1::__function::__func<void (*)(geode::ModStateEvent*), std::__ndk1::allocator<void (*)(geode::ModStateEvent*)>, void (geode::ModStateEvent*)>::operator()(geode::ModStateEvent*&&)
PUBLIC 61bb4 0 std::__ndk1::__function::__func<void (*)(geode::ModStateEvent*), std::__ndk1::allocator<void (*)(geode::ModStateEvent*)>, void (geode::ModStateEvent*)>::target(std::type_info const&) const
PUBLIC 61bd0 0 std::__ndk1::__function::__func<void (*)(geode::ModStateEvent*), std::__ndk1::allocator<void (*)(geode::ModStateEvent*)>, void (geode::ModStateEvent*)>::target_type() const
PUBLIC 61bdc 0 std::__ndk1::pair<std::__ndk1::basic_string<char, std::__ndk1::char_traits<char>, std::__ndk1::allocator<char> >, matjson::Value>::~pair()
PUBLIC 61c18 0 std::__ndk1::vector<matjson::Value, std::__ndk1::allocator<matjson::Value> >::~vector[abi:ne190000]()
PUBLIC 61c80 0 std::__ndk1::__split_buffer<matjson::Value, std::__ndk1::allocator<matjson::Value>&>::~__split_buffer()
PUBLIC 61cd4 0 std::__ndk1::vector<matjson::Value, std::__ndk1::allocator<matjson::Value> >::__throw_length_error[abi:ne190000]() const
PUBLIC 61ce8 0 geode::getMod()
PUBLIC m 61d24 0 geodeImplicitEntry
PUBLIC 61d60 0 std::__ndk1::unordered_map<void*, bool, std::__ndk1::hash<void*>, std::__ndk1::equal_to<void*>, std::__ndk1::allocator<std::__ndk1::pair<void* const, bool> > >::~unordered_map[abi:ne190000]()
PUBLIC 61dac 0 wrapFunction(unsigned long, tulip::hook::WrapperMetadata const&)
PUBLIC 61ee0 0 geode::impl::ResultData<void*, std::__ndk1::basic_string<char, std::__ndk1::char_traits<char>, std::__ndk1::allocator<char> > >::unwrapErr() &
PUBLIC 61f58 0 geode::impl::ResultData<void*, std::__ndk1::basic_string<char, std::__ndk1::char_traits<char>, std::__ndk1::allocator<char> > >::~ResultData()
PUBLIC 61fcc 0 tulip::hook::WrapperMetadata::~WrapperMetadata()
PUBLIC 62030 0 cocos2d::CCObject::~CCObject()
PUBLIC 62054 0 cocos2d::CCNode::CCNode()
PUBLIC 622b0 0 cocos2d::CCNode::~CCNode()
PUBLIC 622d4 0 {virtual override thunk({offset(-320)}, cocos2d::CCLayer::~CCLayer())}
PUBLIC 622dc 0 cocos2d::CCLayer::~CCLayer()
PUBLIC 62300 0 {virtual override thunk({offset(-320)}, cocos2d::CCLayer::~CCLayer())}
PUBLIC 62328 0 cocos2d::CCLayerRGBA::~CCLayerRGBA()
PUBLIC 62628 0 {virtual override thunk({offset(-320)}, cocos2d::CCLayerRGBA::~CCLayerRGBA())}
PUBLIC 62630 0 cocos2d::CCLayerRGBA::~CCLayerRGBA()
PUBLIC 62654 0 {virtual override thunk({offset(-320)}, cocos2d::CCLayerRGBA::~CCLayerRGBA())}
PUBLIC 6267c 0 cocos2d::CCLayerColor::CCLayerColor()
PUBLIC 628e0 0 {virtual override thunk({offset(-320)}, cocos2d::CCLayerColor::~CCLayerColor())}
PUBLIC 628e8 0 cocos2d::CCLayerColor::~CCLayerColor()
PUBLIC 6290c 0 {virtual override thunk({offset(-320)}, cocos2d::CCLayerColor::~CCLayerColor())}
PUBLIC 62934 0 cocos2d::CCSpriteBatchNode::~CCSpriteBatchNode()
PUBLIC 62bec 0 cocos2d::CCSpriteBatchNode::~CCSpriteBatchNode()
PUBLIC 62c10 0 cocos2d::CCLabelBMFont::CCLabelBMFont()
PUBLIC 62ec8 0 cocos2d::CCLabelBMFont::~CCLabelBMFont()
PUBLIC 62eec 0 FLAlertLayer::FLAlertLayer()
PUBLIC 62f88 0 {virtual override thunk({offset(-320)}, FLAlertLayer::~FLAlertLayer())}
PUBLIC 62f90 0 FLAlertLayer::~FLAlertLayer()
PUBLIC 62fb4 0 {virtual override thunk({offset(-320)}, FLAlertLayer::~FLAlertLayer())}
PUBLIC 62fdc 0 FLAlertLayer::create(FLAlertLayerProtocol*, char const*, gd::string, char const*, char const*, float)
PUBLIC 63194 0 tulip::hook::AbstractFunction::from<FLAlertLayer*, FLAlertLayerProtocol*, char const*, gd::string, char const*, char const*, float>(FLAlertLayer* (*)(FLAlertLayerProtocol*, char const*, gd::string, char const*, char const*, float))
PUBLIC 632f8 0 FLAlertLayer::create(char const*, gd::string const&, char const*)
PUBLIC 633a4 0 ButtonSprite::create(char const*, int, bool, char const*, char const*, float, float)
PUBLIC 633c4 0 CCMenuItemSpriteExtra::create(cocos2d::CCNode*, cocos2d::CCObject*, void (cocos2d::CCObject::*)(cocos2d::CCObject*))
PUBLIC 633d8 0 CCMenuItemSpriteExtra::setSprite(cocos2d::CCSprite*)
PUBLIC 634ac 0 LevelEditorLayer::get()
PUBLIC 634c4 0 GJBaseGameLayer::get()
PUBLIC 634dc 0 PlayLayer::get()
PUBLIC 634f4 0 cocos2d::CCObject::update(float)
PUBLIC 634f8 0 cocos2d::CCLayerColor::~CCLayerColor()
PUBLIC 637dc 0 cocos2d::CCLabelBMFont::~CCLabelBMFont()
PUBLIC 63b14 0 cocos2d::CCLayer::~CCLayer()
PUBLIC 63e04 0 cocos2d::CCNode::~CCNode()
PUBLIC 640a4 0 FLAlertLayer::~FLAlertLayer()
PUBLIC 64388 0 cocos2d::CCObject::~CCObject()
PUBLIC 6487c 0 _ZN5geode15UnwrapExceptionC2IRPvQsr4implE18IsStringStreamableIT_EEENS_4impl5OkTagEOS4_
PUBLIC 649d0 0 std::__ndk1::__variant_detail::__visitation::__base::__dispatcher<(unsigned long)0>::__dispatch[abi:ne190000]<std::__ndk1::__variant_detail::__dtor<std::__ndk1::__variant_detail::__traits<void*, std::__ndk1::basic_string<char, std::__ndk1::char_traits<char>, std::__ndk1::allocator<char> > >, (std::__ndk1::__variant_detail::_Trait)1>::__destroy[abi:ne190000]()::{lambda(auto:1&)#1}, std::__ndk1::__variant_detail::__base<(std::__ndk1::__variant_detail::__traits<void*, std::__ndk1::basic_string<char, std::__ndk1::char_traits<char>, std::__ndk1::allocator<char> > >)1, std::__ndk1::__variant_detail::__traits, std::__ndk1::allocator<char> >&>(std::__ndk1::__variant_detail::__dtor<std::__ndk1::__variant_detail::__traits<void*, std::__ndk1::basic_string<char, std::__ndk1::char_traits<char>, std::__ndk1::allocator<char> > >, (std::__ndk1::__variant_detail::_Trait)1>, std::__ndk1::__variant_detail::__base<(std::__ndk1::__variant_detail::__traits<void*, std::__ndk1::basic_string<char, std::__ndk1::char_traits<char>, std::__ndk1::allocator<char> > >)1, std::__ndk1::__variant_detail::__traits, std::__ndk1::allocator<char> >&)
PUBLIC 649d4 0 std::__ndk1::__variant_detail::__visitation::__base::__dispatcher<(unsigned long)1>::__dispatch[abi:ne190000]<std::__ndk1::__variant_detail::__dtor<std::__ndk1::__variant_detail::__traits<void*, std::__ndk1::basic_string<char, std::__ndk1::char_traits<char>, std::__ndk1::allocator<char> > >, (std::__ndk1::__variant_detail::_Trait)1>::__destroy[abi:ne190000]()::{lambda(auto:1&)#1}, std::__ndk1::__variant_detail::__base<(std::__ndk1::__variant_detail::__traits<void*, std::__ndk1::basic_string<char, std::__ndk1::char_traits<char>, std::__ndk1::allocator<char> > >)1, std::__ndk1::__variant_detail::__traits, std::__ndk1::allocator<char> >&>(std::__ndk1::__variant_detail::__dtor<std::__ndk1::__variant_detail::__traits<void*, std::__ndk1::basic_string<char, std::__ndk1::char_traits<char>, std::__ndk1::allocator<char> > >, (std::__ndk1::__variant_detail::_Trait)1>, std::__ndk1::__variant_detail::__base<(std::__ndk1::__variant_detail::__traits<void*, std::__ndk1::basic_string<char, std::__ndk1::char_traits<char>, std::__ndk1::allocator<char> > >)1, std::__ndk1::__variant_detail::__traits, std::__ndk1::allocator<char> >&)
PUBLIC 649e8 0 std::__ndk1::__hash_table<std::__ndk1::__hash_value_type<void*, bool>, std::__ndk1::__unordered_map_hasher<void*, std::__ndk1::__hash_value_type<void*, bool>, std::__ndk1::hash<void*>, std::__ndk1::equal_to<void*>, true>, std::__ndk1::__unordered_map_equal<void*, std::__ndk1::__hash_value_type<void*, bool>, std::__ndk1::equal_to<void*>, std::__ndk1::hash<void*>, true>, std::__ndk1::allocator<std::__ndk1::__hash_value_type<void*, bool> > >::__emplace_unique_key_args<void*, std::__ndk1::piecewise_construct_t const&, std::__ndk1::tuple<void* const&>, std::__ndk1::tuple<> >(void* const&, std::__ndk1::piecewise_construct_t const&, std::__ndk1::tuple<void* const&>, std::__ndk1::tuple<>)
PUBLIC 64ef4 0 __udivti3
PUBLIC 64f00 0 __udivmodti4
PUBLIC m 6514c 0 __eqtf2
PUBLIC 651ec 0 __unordtf2
PUBLIC 65224 0 fmt::v11::detail::write_loc(fmt::v11::basic_appender<char>, fmt::v11::loc_value, fmt::v11::format_specs const&, fmt::v11::detail::locale_ref)
PUBLIC 654b8 0 fmt::v11::format_facet<std::__ndk1::locale>::~format_facet()
PUBLIC 65534 0 fmt::v11::report_error(char const*)
PUBLIC 65584 0 fmt::v11::format_error::runtime_error(char const*)
PUBLIC 655b0 0 fmt::v11::format_facet<std::__ndk1::locale>::do_put(fmt::v11::basic_appender<char>, fmt::v11::loc_value, fmt::v11::format_specs const&) const
PUBLIC 65d70 0 fmt::v11::detail::loc_writer<char>::~loc_writer()
PUBLIC 65dd4 0 fmt::v11::vformat(fmt::v11::basic_string_view<char>, fmt::v11::basic_format_args<fmt::v11::context>)
PUBLIC 65f20 0 fmt::v11::detail::vformat_to<char>(fmt::v11::detail::buffer<char>&, fmt::v11::basic_string_view<char>, fmt::v11::detail::vformat_args<char>::type, fmt::v11::detail::locale_ref)
PUBLIC 66490 0 fmt::v11::detail::is_printable(unsigned int)
PUBLIC 666b8 0 fmt::v11::detail::dragonbox::to_decimal<float>(float)
PUBLIC 66994 0 fmt::v11::detail::dragonbox::to_decimal<double>(double)
PUBLIC 66ed0 0 fmt::v11::basic_memory_buffer<char, (unsigned long)500, std::__ndk1::allocator<char> >::grow(fmt::v11::detail::buffer<char>&, unsigned long)
PUBLIC 66f48 0 fmt::v11::format_facet<std::__ndk1::locale>::~format_facet()
PUBLIC 66fd4 0 fmt::v11::format_error::~format_error()
PUBLIC 66ff8 0 fmt::v11::detail::copy_noinline<char, char const*, fmt::v11::basic_appender<char> >(char const*, char const*, fmt::v11::basic_appender<char>)
PUBLIC 67148 0 fmt::v11::detail::default_arg_formatter<char>::operator()<bool>(bool)
PUBLIC 671b0 0 fmt::v11::detail::default_arg_formatter<char>::operator()<char>(char)
PUBLIC 67240 0 fmt::v11::detail::default_arg_formatter<char>::operator()<float>(float)
PUBLIC 6732c 0 fmt::v11::detail::default_arg_formatter<char>::operator()<double>(double)
PUBLIC 67418 0 fmt::v11::detail::default_arg_formatter<char>::operator()<char const*>(char const*)
PUBLIC 67460 0 fmt::v11::detail::default_arg_formatter<char>::operator()<void const*>(void const*)
PUBLIC 674f8 0 _ZN3fmt3v116detail5writeIcNS0_14basic_appenderIcEEiTnNSt6__ndk19enable_ifIXaaaasr11is_integralIT1_EE5valuentsr3std7is_sameIS7_bEE5valuentsr3std7is_sameIS7_T_EE5valueEiE4typeELi0EEET0_SB_S7_
PUBLIC 67758 0 fmt::v11::detail::copy_noinline<char, char*, fmt::v11::basic_appender<char> >(char*, char*, fmt::v11::basic_appender<char>)
PUBLIC 678a8 0 _ZN3fmt3v116detail5writeIcNS0_14basic_appenderIcEEjTnNSt6__ndk19enable_ifIXaaaasr11is_integralIT1_EE5valuentsr3std7is_sameIS7_bEE5valuentsr3std7is_sameIS7_T_EE5valueEiE4typeELi0EEET0_SB_S7_
PUBLIC 67a88 0 _ZN3fmt3v116detail5writeIcNS0_14basic_appenderIcEExTnNSt6__ndk19enable_ifIXaaaasr11is_integralIT1_EE5valuentsr3std7is_sameIS7_bEE5valuentsr3std7is_sameIS7_T_EE5valueEiE4typeELi0EEET0_SB_S7_
PUBLIC 67d0c 0 _ZN3fmt3v116detail5writeIcNS0_14basic_appenderIcEEyTnNSt6__ndk19enable_ifIXaaaasr11is_integralIT1_EE5valuentsr3std7is_sameIS7_bEE5valuentsr3std7is_sameIS7_T_EE5valueEiE4typeELi0EEET0_SB_S7_
PUBLIC 67f14 0 _ZN3fmt3v116detail5writeIcNS0_14basic_appenderIcEEnTnNSt6__ndk19enable_ifIXaaaasr11is_integralIT1_EE5valuentsr3std7is_sameIS7_bEE5valuentsr3std7is_sameIS7_T_EE5valueEiE4typeELi0EEET0_SB_S7_
PUBLIC 68274 0 _ZN3fmt3v116detail5writeIcNS0_14basic_appenderIcEEoTnNSt6__ndk19enable_ifIXaaaasr11is_integralIT1_EE5valuentsr3std7is_sameIS7_bEE5valuentsr3std7is_sameIS7_T_EE5valueEiE4typeELi0EEET0_SB_S7_
PUBLIC 68588 0 _ZN3fmt3v116detail5writeIcNS0_14basic_appenderIcEEbTnNSt6__ndk19enable_ifIXsr3std7is_sameIT1_bEE5valueEiE4typeELi0EEET0_SA_S7_RKNS0_12format_specsENS1_10locale_refE
PUBLIC 68818 0 fmt::v11::detail::write_int_noinline<char, fmt::v11::basic_appender<char>, unsigned int>(fmt::v11::basic_appender<char>, fmt::v11::detail::write_int_arg<unsigned int>, fmt::v11::format_specs const&, fmt::v11::detail::locale_ref)
PUBLIC 695e0 0 fmt::v11::detail::fill<char, fmt::v11::basic_appender<char> >(fmt::v11::basic_appender<char>, unsigned long, fmt::v11::detail::fill_t const&)
PUBLIC 697b0 0 fmt::v11::detail::write_padded<char, (fmt::v11::align::type)1, fmt::v11::basic_appender<char>, fmt::v11::detail::write_char<char, fmt::v11::basic_appender<char> >(fmt::v11::basic_appender<char>, char, fmt::v11::format_specs const&)::{lambda(fmt::v11::basic_appender<char>&)#1}>(fmt::v11::basic_appender<char>, fmt::v11::format_specs const&, unsigned long, unsigned long, fmt::v11::detail::write_char<char, fmt::v11::basic_appender<char> >(fmt::v11::basic_appender<char>, char, fmt::v11::format_specs const&)::{lambda(fmt::v11::basic_appender<char>&)#1})
PUBLIC 699ec 0 fmt::v11::detail::write_escaped_cp<fmt::v11::basic_appender<char>, char>(fmt::v11::basic_appender<char>, fmt::v11::detail::find_escape_result<char> const&)
PUBLIC 69cf8 0 fmt::v11::detail::write_codepoint<(unsigned long)2, char, fmt::v11::basic_appender<char> >(fmt::v11::basic_appender<char>, char, unsigned int)
PUBLIC 69e70 0 fmt::v11::detail::write_codepoint<(unsigned long)8, char, fmt::v11::basic_appender<char> >(fmt::v11::basic_appender<char>, char, unsigned int)
PUBLIC 69fe8 0 fmt::v11::detail::write_padded<char, (fmt::v11::align::type)1, fmt::v11::basic_appender<char>, fmt::v11::detail::write_nonfinite<char, fmt::v11::basic_appender<char> >(fmt::v11::basic_appender<char>, bool, fmt::v11::format_specs, fmt::v11::sign::type)::{lambda(fmt::v11::basic_appender<char>&)#1}>(fmt::v11::basic_appender<char>, fmt::v11::format_specs const&, unsigned long, unsigned long, fmt::v11::detail::write_nonfinite<char, fmt::v11::basic_appender<char> >(fmt::v11::basic_appender<char>, bool, fmt::v11::format_specs, fmt::v11::sign::type)::{lambda(fmt::v11::basic_appender<char>&)#1})
PUBLIC 6a228 0 fmt::v11::detail::do_write_float<char, fmt::v11::basic_appender<char>, fmt::v11::detail::dragonbox::decimal_fp<float>, fmt::v11::detail::digit_grouping<char> >(fmt::v11::basic_appender<char>, fmt::v11::detail::dragonbox::decimal_fp<float> const&, fmt::v11::format_specs const&, fmt::v11::detail::float_specs, fmt::v11::detail::locale_ref)
PUBLIC 6ae9c 0 fmt::v11::detail::do_write_float<char, fmt::v11::basic_appender<char>, fmt::v11::detail::dragonbox::decimal_fp<float>, fmt::v11::detail::digit_grouping<char> >(fmt::v11::basic_appender<char>, fmt::v11::detail::dragonbox::decimal_fp<float> const&, fmt::v11::format_specs const&, fmt::v11::detail::float_specs, fmt::v11::detail::locale_ref)::{lambda(fmt::v11::basic_appender<char>(fmt::v11::basic_appender<char>))#1}::operator() const
PUBLIC 6aff0 0 fmt::v11::detail::digit_grouping<char>::digit_grouping(fmt::v11::detail::locale_ref, bool)
PUBLIC 6b258 0 fmt::v11::detail::digit_grouping<char>::~digit_grouping()
PUBLIC 6b29c 0 fmt::v11::detail::write_exponent<char, fmt::v11::basic_appender<char> >(int, fmt::v11::basic_appender<char>)
PUBLIC 6b46c 0 _ZN3fmt3v116detail17write_significandIcjTnNSt6__ndk19enable_ifIXsr3std11is_integralIT0_EE5valueEiE4typeELi0EEEPT_S9_S5_iiS8_
PUBLIC 6b5e8 0 fmt::v11::detail::digit_grouping<char>::apply<fmt::v11::basic_appender<char>, char>(fmt::v11::basic_appender<char>, fmt::v11::basic_string_view<char>) const
PUBLIC 6b9a0 0 fmt::v11::basic_memory_buffer<int, (unsigned long)500, std::__ndk1::allocator<int> >::grow(fmt::v11::detail::buffer<int>&, unsigned long)
PUBLIC 6ba40 0 fmt::v11::detail::do_write_float<char, fmt::v11::basic_appender<char>, fmt::v11::detail::dragonbox::decimal_fp<double>, fmt::v11::detail::digit_grouping<char> >(fmt::v11::basic_appender<char>, fmt::v11::detail::dragonbox::decimal_fp<double> const&, fmt::v11::format_specs const&, fmt::v11::detail::float_specs, fmt::v11::detail::locale_ref)
PUBLIC 6c6f0 0 fmt::v11::detail::do_write_float<char, fmt::v11::basic_appender<char>, fmt::v11::detail::dragonbox::decimal_fp<double>, fmt::v11::detail::digit_grouping<char> >(fmt::v11::basic_appender<char>, fmt::v11::detail::dragonbox::decimal_fp<double> const&, fmt::v11::format_specs const&, fmt::v11::detail::float_specs, fmt::v11::detail::locale_ref)::{lambda(fmt::v11::basic_appender<char>(fmt::v11::basic_appender<char>))#1}::operator() const
PUBLIC 6c848 0 _ZN3fmt3v116detail17write_significandIcmTnNSt6__ndk19enable_ifIXsr3std11is_integralIT0_EE5valueEiE4typeELi0EEEPT_S9_S5_iiS8_
PUBLIC 6c9d8 0 fmt::v11::detail::write_float<char, fmt::v11::basic_appender<char>, long double>(fmt::v11::basic_appender<char>, long double, fmt::v11::format_specs, fmt::v11::detail::locale_ref)
PUBLIC 6d4bc 0 fmt::v11::detail::write_padded<char, (fmt::v11::align::type)2, fmt::v11::basic_appender<char>, fmt::v11::detail::write_bytes<char, (fmt::v11::align::type)2, fmt::v11::basic_appender<char> >(fmt::v11::basic_appender<char>, fmt::v11::basic_string_view<char>, fmt::v11::format_specs const&)::{lambda(fmt::v11::basic_appender<char>&)#1}>(fmt::v11::basic_appender<char>, fmt::v11::format_specs const&, unsigned long, unsigned long, fmt::v11::detail::write_bytes<char, (fmt::v11::align::type)2, fmt::v11::basic_appender<char> >(fmt::v11::basic_appender<char>, fmt::v11::basic_string_view<char>, fmt::v11::format_specs const&)::{lambda(fmt::v11::basic_appender<char>&)#1})
PUBLIC 6d698 0 fmt::v11::detail::format_dragon(fmt::v11::detail::basic_fp<unsigned __int128>, unsigned int, int, fmt::v11::detail::buffer<char>&, int&)
PUBLIC 6eabc 0 fmt::v11::detail::bigint::operator<<=(int)
PUBLIC 6ebe0 0 fmt::v11::detail::bigint::assign_pow10(int)
PUBLIC 6f33c 0 fmt::v11::detail::bigint::divmod_assign(fmt::v11::detail::bigint const&)
PUBLIC 6f660 0 fmt::v11::basic_memory_buffer<unsigned int, (unsigned long)32, std::__ndk1::allocator<unsigned int> >::grow(fmt::v11::detail::buffer<unsigned int>&, unsigned long)
PUBLIC 6f700 0 fmt::v11::detail::do_write_float<char, fmt::v11::basic_appender<char>, fmt::v11::detail::big_decimal_fp, fmt::v11::detail::digit_grouping<char> >(fmt::v11::basic_appender<char>, fmt::v11::detail::big_decimal_fp const&, fmt::v11::format_specs const&, fmt::v11::detail::float_specs, fmt::v11::detail::locale_ref)
PUBLIC 705ac 0 fmt::v11::detail::do_write_float<char, fmt::v11::basic_appender<char>, fmt::v11::detail::big_decimal_fp, fmt::v11::detail::digit_grouping<char> >(fmt::v11::basic_appender<char>, fmt::v11::detail::big_decimal_fp const&, fmt::v11::format_specs const&, fmt::v11::detail::float_specs, fmt::v11::detail::locale_ref)::{lambda(fmt::v11::basic_appender<char>(fmt::v11::basic_appender<char>))#1}::operator() const
PUBLIC 7070c 0 fmt::v11::detail::write_padded<char, (fmt::v11::align::type)2, fmt::v11::basic_appender<char>, fmt::v11::detail::write_ptr<char, fmt::v11::basic_appender<char>, unsigned long>(fmt::v11::basic_appender<char>, unsigned long, fmt::v11::format_specs const*)::{lambda(fmt::v11::basic_appender<char>&)#1}>(fmt::v11::basic_appender<char>, fmt::v11::format_specs const&, unsigned long, unsigned long, fmt::v11::detail::write_ptr<char, fmt::v11::basic_appender<char>, unsigned long>(fmt::v11::basic_appender<char>, unsigned long, fmt::v11::format_specs const*)::{lambda(fmt::v11::basic_appender<char>&)#1})
PUBLIC 70920 0 fmt::v11::detail::parse_replacement_field<char, fmt::v11::detail::vformat_to<char>(fmt::v11::detail::buffer<char>&, fmt::v11::basic_string_view<char>, fmt::v11::detail::vformat_args<char>::type, fmt::v11::detail::locale_ref)::format_handler&>(char const*, char const*, fmt::v11::detail::vformat_to<char>(fmt::v11::detail::buffer<char>&, fmt::v11::basic_string_view<char>, fmt::v11::detail::vformat_args<char>::type, fmt::v11::detail::locale_ref)::format_handler&)
PUBLIC 72584 0 fmt::v11::detail::parse_dynamic_spec<char>(char const*, char const*, int&, fmt::v11::detail::arg_ref<char>&, fmt::v11::basic_format_parse_context<char>&)
PUBLIC 72814 0 fmt::v11::basic_format_args<fmt::v11::context>::get<char>(fmt::v11::basic_string_view<char>) const
PUBLIC 72948 0 fmt::v11::detail::write_int_noinline<char, fmt::v11::basic_appender<char>, unsigned long>(fmt::v11::basic_appender<char>, fmt::v11::detail::write_int_arg<unsigned long>, fmt::v11::format_specs const&, fmt::v11::detail::locale_ref)
PUBLIC 73794 0 fmt::v11::detail::write_int_noinline<char, fmt::v11::basic_appender<char>, unsigned __int128>(fmt::v11::basic_appender<char>, fmt::v11::detail::write_int_arg<unsigned __int128>, fmt::v11::format_specs const&, fmt::v11::detail::locale_ref)
PUBLIC 747fc 0 _ZN3fmt3v116detail15format_hexfloatIdTnNSt6__ndk19enable_ifIXntsr16is_double_doubleIT_EE5valueEiE4typeELi0EEEvS5_NS0_12format_specsERNS1_6bufferIcEE
PUBLIC 74d1c 0 fmt::v11::detail::format_float<double>(double, int, fmt::v11::detail::float_specs, fmt::v11::detail::buffer<char>&)
PUBLIC 75768 0 fmt::v11::detail::write<char, fmt::v11::basic_appender<char> >(fmt::v11::basic_appender<char>, fmt::v11::basic_string_view<char>, fmt::v11::format_specs const&)
PUBLIC 76a44 0 fmt::v11::detail::for_each_codepoint<fmt::v11::detail::compute_width(fmt::v11::basic_string_view<char>)::count_code_points>(fmt::v11::basic_string_view<char>, fmt::v11::detail::compute_width(fmt::v11::basic_string_view<char>)::count_code_points)::{lambda(char const*, char const*)#1}::operator()(char const*, char const*) const
PUBLIC 76bfc 0 fmt::v11::detail::write_int<fmt::v11::basic_appender<char>, unsigned long, char>(fmt::v11::basic_appender<char>, unsigned long, unsigned int, fmt::v11::format_specs const&, fmt::v11::detail::digit_grouping<char> const&)
PUBLIC 77178 0 fmt::v11::detail::write_int<fmt::v11::basic_appender<char>, unsigned __int128, char>(fmt::v11::basic_appender<char>, unsigned __int128, unsigned int, fmt::v11::format_specs const&, fmt::v11::detail::digit_grouping<char> const&)
PUBLIC 77800 0 <.plt ELF section in beat.click-sound.android64.so>
STACK CFI INIT 358c0 10 .cfa: sp 0 +
STACK CFI INIT 358d0 8 .cfa: sp 0 +
STACK CFI INIT 358d8 8 .cfa: sp 0 +
STACK CFI INIT 358e0 14 .cfa: sp 0 +
STACK CFI INIT 358f4 1c .cfa: sp 0 +
STACK CFI INIT 35910 10 .cfa: sp 0 +
STACK CFI INIT 35920 134 .cfa: sp 0 +
STACK CFI INIT 35a54 84 .cfa: sp 0 +
STACK CFI INIT 35ad8 f4 .cfa: sp 0 +
STACK CFI INIT 35bcc a8 .cfa: sp 0 +
STACK CFI INIT 35c74 7c .cfa: sp 0 +
STACK CFI INIT 35cf0 14 .cfa: sp 0 +
STACK CFI INIT 35d04 40 .cfa: sp 0 +
STACK CFI INIT 35d44 28 .cfa: sp 0 +
STACK CFI INIT 35d6c 190 .cfa: sp 0 +
STACK CFI INIT 35efc 2c8 .cfa: sp 0 +
STACK CFI INIT 361c4 8 .cfa: sp 0 +
STACK CFI INIT 361cc 8 .cfa: sp 0 +
STACK CFI INIT 361d4 44 .cfa: sp 0 +
STACK CFI INIT 36218 e8 .cfa: sp 0 +
STACK CFI INIT 36300 e8 .cfa: sp 0 +
STACK CFI INIT 363e8 14 .cfa: sp 0 +
STACK CFI INIT 363fc 10 .cfa: sp 0 +
STACK CFI INIT 3640c 10 .cfa: sp 0 +
STACK CFI INIT 3641c f0 .cfa: sp 0 +
STACK CFI INIT 3650c 44 .cfa: sp 0 +
STACK CFI INIT 36550 c .cfa: sp 0 +
STACK CFI INIT 3655c c .cfa: sp 0 +
STACK CFI INIT 36568 2c .cfa: sp 0 +
STACK CFI INIT 36594 23c .cfa: sp 0 +
STACK CFI INIT 367d0 c .cfa: sp 0 +
STACK CFI INIT 367dc 120 .cfa: sp 0 +
STACK CFI INIT 368fc 494 .cfa: sp 0 +
STACK CFI INIT 36d90 b78 .cfa: sp 0 +
STACK CFI INIT 37908 134 .cfa: sp 0 +
STACK CFI INIT 37a3c 210 .cfa: sp 0 +
STACK CFI INIT 37c4c 38c .cfa: sp 0 +
STACK CFI INIT 37fd8 1c8 .cfa: sp 0 +
STACK CFI INIT 381a0 9c4 .cfa: sp 0 +
STACK CFI INIT 38b64 2d4 .cfa: sp 0 +
STACK CFI INIT 38e38 130 .cfa: sp 0 +
STACK CFI INIT 38f68 120 .cfa: sp 0 +
STACK CFI INIT 39088 1c8 .cfa: sp 0 +
STACK CFI INIT 39250 168 .cfa: sp 0 +
STACK CFI INIT 393b8 fc .cfa: sp 0 +
STACK CFI INIT 394b4 30 .cfa: sp 0 +
STACK CFI INIT 39610 30 .cfa: sp 0 +
STACK CFI INIT 39640 98 .cfa: sp 0 +
STACK CFI INIT 396d8 2ac .cfa: sp 0 +
STACK CFI INIT 39984 8c .cfa: sp 0 +
STACK CFI INIT 39a10 30 .cfa: sp 0 +
STACK CFI INIT 39d3c 8 .cfa: sp 0 +
STACK CFI INIT 3a170 1c .cfa: sp 0 +
STACK CFI INIT 3a18c 10 .cfa: sp 0 +
STACK CFI 3a190 .cfa: sp 16 +
STACK CFI 3a194 .cfa: x29 16 + .ra: .cfa -8 + ^ x29: .cfa -16 + ^
STACK CFI INIT 3a19c 34 .cfa: sp 0 +
STACK CFI 3a1a0 .cfa: sp 32 +
STACK CFI 3a1a8 .cfa: x29 32 + x19: .cfa -16 + ^ .ra: .cfa -24 + ^ x29: .cfa -32 + ^
STACK CFI INIT 3a1d0 1a8 .cfa: sp 0 +
STACK CFI INIT 3a378 3c .cfa: sp 0 +
STACK CFI 3a380 .cfa: sp 32 +
STACK CFI 3a388 .cfa: x29 32 + x19: .cfa -16 + ^ .ra: .cfa -24 + ^ x29: .cfa -32 + ^
STACK CFI 3a3a4 .cfa: sp 32 +
STACK CFI 3a3ac .cfa: sp 0 +
STACK CFI INIT 3a740 50 .cfa: sp 0 +
STACK CFI 3a744 .cfa: sp 32 +
STACK CFI 3a74c .cfa: x29 32 + x19: .cfa -16 + ^ .ra: .cfa -24 + ^ x29: .cfa -32 + ^
STACK CFI 3a764 .cfa: sp 32 +
STACK CFI 3a76c .cfa: sp 0 +
STACK CFI 3a770 .cfa: x29 32 +
STACK CFI 3a784 .cfa: sp 32 +
STACK CFI 3a78c .cfa: sp 0 +
STACK CFI INIT 3a804 7c .cfa: sp 0 +
STACK CFI 3a808 .cfa: sp 48 +
STACK CFI 3a814 .cfa: x29 48 + x19: .cfa -8 + ^ x20: .cfa -16 + ^ x21: .cfa -32 + ^ .ra: .cfa -40 + ^ x29: .cfa -48 + ^
STACK CFI 3a860 .cfa: sp 48 +
STACK CFI 3a86c .cfa: sp 0 +
STACK CFI 3a870 .cfa: sp 48 +
STACK CFI 3a87c .cfa: sp 0 +
STACK CFI INIT 3a880 4 .cfa: sp 0 +
STACK CFI INIT 3a9d8 34 .cfa: sp 0 +
STACK CFI 3a9dc .cfa: sp 16 +
STACK CFI 3a9e0 .cfa: x29 16 + .ra: .cfa -8 + ^ x29: .cfa -16 + ^
STACK CFI INIT 3ab40 80 .cfa: sp 0 +
STACK CFI 3ab44 .cfa: sp 48 +
STACK CFI 3ab50 .cfa: x29 48 + x19: .cfa -8 + ^ x20: .cfa -16 + ^ x21: .cfa -32 + ^ .ra: .cfa -40 + ^ x29: .cfa -48 + ^
STACK CFI 3abb0 .cfa: sp 48 +
STACK CFI 3abbc .cfa: sp 0 +
STACK CFI INIT 3abc0 24 .cfa: sp 0 +
STACK CFI 3abc4 .cfa: sp 32 +
STACK CFI 3abcc .cfa: x29 32 + x19: .cfa -16 + ^ .ra: .cfa -24 + ^ x29: .cfa -32 + ^
STACK CFI 3abd8 .cfa: sp 32 +
STACK CFI 3abe0 .cfa: sp 0 +
STACK CFI INIT 3af74 14 .cfa: sp 0 +
STACK CFI 3af78 .cfa: sp 16 +
STACK CFI 3af7c .cfa: x29 16 + .ra: .cfa -8 + ^ x29: .cfa -16 + ^
STACK CFI INIT 3afd8 30 .cfa: sp 0 +
STACK CFI 3afdc .cfa: sp 32 +
STACK CFI 3afe4 .cfa: x29 32 + x19: .cfa -16 + ^ .ra: .cfa -24 + ^ x29: .cfa -32 + ^
STACK CFI 3affc .cfa: sp 32 +
STACK CFI 3b004 .cfa: sp 0 +
STACK CFI INIT 3b178 148 .cfa: sp 0 +
STACK CFI 3b17c .cfa: sp 48 +
STACK CFI 3b188 .cfa: x29 48 + x19: .cfa -8 + ^ x20: .cfa -16 + ^ x21: .cfa -32 + ^ .ra: .cfa -40 + ^ x29: .cfa -48 + ^
STACK CFI 3b2b0 .cfa: sp 48 +
STACK CFI 3b2bc .cfa: sp 0 +
STACK CFI INIT 3b2c0 88 .cfa: sp 0 +
STACK CFI 3b2c8 .cfa: sp 48 +
STACK CFI 3b2d4 .cfa: x29 48 + x19: .cfa -8 + ^ x20: .cfa -16 + ^ x21: .cfa -24 + ^ x22: .cfa -32 + ^ .ra: .cfa -40 + ^ x29: .cfa -48 + ^
STACK CFI 3b338 .cfa: sp 48 +
STACK CFI 3b344 .cfa: sp 0 +
STACK CFI INIT 3b4f8 94 .cfa: sp 0 +
STACK CFI 3b4fc .cfa: sp 48 +
STACK CFI 3b508 .cfa: x29 48 + x19: .cfa -8 + ^ x20: .cfa -16 + ^ x21: .cfa -24 + ^ x22: .cfa -32 + ^ .ra: .cfa -40 + ^ x29: .cfa -48 + ^
STACK CFI 3b520 .cfa: sp 48 +
STACK CFI 3b52c .cfa: sp 0 +
STACK CFI 3b530 .cfa: x29 48 +
STACK CFI 3b574 .cfa: sp 48 +
STACK CFI 3b580 .cfa: sp 0 +
STACK CFI 3b584 .cfa: x29 48 +
STACK CFI INIT 3b58c 68 .cfa: sp 0 +
STACK CFI 3b590 .cfa: sp 32 +
STACK CFI 3b598 .cfa: x29 32 + x19: .cfa -8 + ^ x20: .cfa -16 + ^ .ra: .cfa -24 + ^ x29: .cfa -32 + ^
STACK CFI 3b5b0 .cfa: sp 32 +
STACK CFI 3b5b8 .cfa: sp 0 +
STACK CFI 3b5bc .cfa: x29 32 +
STACK CFI 3b5e8 .cfa: sp 32 +
STACK CFI 3b5f0 .cfa: sp 0 +
STACK CFI INIT 3b5f4 14 .cfa: sp 0 +
STACK CFI 3b5f8 .cfa: sp 16 +
STACK CFI 3b5fc .cfa: x29 16 + .ra: .cfa -8 + ^ x29: .cfa -16 + ^
STACK CFI INIT 3b608 4 .cfa: sp 0 +
STACK CFI INIT 3b60c 14 .cfa: sp 0 +
STACK CFI INIT 3b620 128 .cfa: sp 0 +
STACK CFI 3b624 .cfa: sp 64 +
STACK CFI 3b634 .cfa: x29 64 + x19: .cfa -8 + ^ x20: .cfa -16 + ^ x21: .cfa -24 + ^ x22: .cfa -32 + ^ x23: .cfa -40 + ^ x24: .cfa -48 + ^ .ra: .cfa -56 + ^ x29: .cfa -64 + ^
STACK CFI 3b734 .cfa: sp 64 +
STACK CFI 3b744 .cfa: sp 0 +
STACK CFI INIT 3b748 d4 .cfa: sp 0 +
STACK CFI 3b74c .cfa: sp 48 +
STACK CFI 3b758 .cfa: x29 48 + x19: .cfa -8 + ^ x20: .cfa -16 + ^ x21: .cfa -32 + ^ .ra: .cfa -40 + ^ x29: .cfa -48 + ^
STACK CFI 3b7e8 .cfa: sp 48 +
STACK CFI 3b7f4 .cfa: sp 0 +
STACK CFI 3b7f8 .cfa: x29 48 +
STACK CFI INIT 3b81c 3c8 .cfa: sp 0 +
STACK CFI INIT 3bbe4 8c .cfa: sp 0 +
STACK CFI 3bbec .cfa: sp 32 +
STACK CFI 3bbf4 .cfa: x29 32 + x19: .cfa -8 + ^ x20: .cfa -16 + ^ .ra: .cfa -24 + ^ x29: .cfa -32 + ^
STACK CFI 3bc3c .cfa: sp 32 +
STACK CFI 3bc44 .cfa: sp 0 +
STACK CFI 3bc4c .cfa: x29 32 +
STACK CFI INIT 3c034 50 .cfa: sp 0 +
STACK CFI 3c038 .cfa: sp 32 +
STACK CFI 3c040 .cfa: x29 32 + x19: .cfa -16 + ^ .ra: .cfa -24 + ^ x29: .cfa -32 + ^
STACK CFI 3c058 .cfa: sp 32 +
STACK CFI 3c060 .cfa: sp 0 +
STACK CFI 3c064 .cfa: x29 32 +
STACK CFI 3c078 .cfa: sp 32 +
STACK CFI 3c080 .cfa: sp 0 +
STACK CFI INIT 3c084 64 .cfa: sp 0 +
STACK CFI 3c088 .cfa: sp 32 +
STACK CFI 3c090 .cfa: x29 32 + x19: .cfa -16 + ^ .ra: .cfa -24 + ^ x29: .cfa -32 + ^
STACK CFI 3c0bc .cfa: sp 32 +
STACK CFI 3c0c4 .cfa: sp 0 +
STACK CFI 3c0c8 .cfa: x29 32 +
STACK CFI 3c0dc .cfa: sp 32 +
STACK CFI 3c0e4 .cfa: sp 0 +
STACK CFI INIT 3c41c 178 .cfa: sp 0 +
STACK CFI 3c420 .cfa: sp 80 +
STACK CFI 3c434 .cfa: x29 80 + x19: .cfa -8 + ^ x20: .cfa -16 + ^ x21: .cfa -24 + ^ x22: .cfa -32 + ^ x23: .cfa -40 + ^ x24: .cfa -48 + ^ x25: .cfa -56 + ^ x26: .cfa -64 + ^ .ra: .cfa -72 + ^ x29: .cfa -80 + ^
STACK CFI 3c57c .cfa: sp 80 +
STACK CFI 3c590 .cfa: sp 0 +
STACK CFI INIT 3cdec 1c .cfa: sp 0 +
STACK CFI INIT 3ce08 1c .cfa: sp 0 +
STACK CFI INIT 3d140 4 .cfa: sp 0 +
STACK CFI INIT 3d3d8 8c .cfa: sp 0 +
STACK CFI 3d3dc .cfa: sp 32 +
STACK CFI 3d3e4 .cfa: x29 32 + x19: .cfa -16 + ^ .ra: .cfa -24 + ^ x29: .cfa -32 + ^
STACK CFI 3d458 .cfa: sp 32 +
STACK CFI 3d460 .cfa: sp 0 +
STACK CFI INIT 3d464 44 .cfa: sp 0 +
STACK CFI 3d468 .cfa: sp 32 +
STACK CFI 3d470 .cfa: x29 32 + x19: .cfa -16 + ^ .ra: .cfa -24 + ^ x29: .cfa -32 + ^
STACK CFI 3d480 .cfa: sp 32 +
STACK CFI 3d488 .cfa: sp 0 +
STACK CFI 3d48c .cfa: x29 32 +
STACK CFI 3d49c .cfa: sp 32 +
STACK CFI 3d4a4 .cfa: sp 0 +
STACK CFI INIT 3d5d4 104 .cfa: sp 0 +
STACK CFI 3d5d8 .cfa: sp 64 +
STACK CFI 3d5e8 .cfa: x29 64 + x19: .cfa -8 + ^ x20: .cfa -16 + ^ x21: .cfa -24 + ^ x22: .cfa -32 + ^ x23: .cfa -48 + ^ .ra: .cfa -56 + ^ x29: .cfa -64 + ^
STACK CFI 3d644 .cfa: sp 64 +
STACK CFI 3d654 .cfa: sp 0 +
STACK CFI 3d658 .cfa: x29 64 +
STACK CFI 3d674 .cfa: sp 64 +
STACK CFI 3d684 .cfa: sp 0 +
STACK CFI 3d688 .cfa: x29 64 +
STACK CFI 3d6c4 .cfa: sp 64 +
STACK CFI 3d6d4 .cfa: sp 0 +
STACK CFI INIT 3da24 4 .cfa: sp 0 +
STACK CFI INIT 3e7f0 50 .cfa: sp 0 +
STACK CFI 3e7f4 .cfa: sp 32 +
STACK CFI 3e7fc .cfa: x29 32 + x19: .cfa -16 + ^ .ra: .cfa -24 + ^ x29: .cfa -32 + ^
STACK CFI 3e814 .cfa: sp 32 +
STACK CFI 3e81c .cfa: sp 0 +
STACK CFI 3e820 .cfa: x29 32 +
STACK CFI 3e834 .cfa: sp 32 +
STACK CFI 3e83c .cfa: sp 0 +
STACK CFI INIT 3e840 50 .cfa: sp 0 +
STACK CFI 3e844 .cfa: sp 32 +
STACK CFI 3e84c .cfa: x29 32 + x19: .cfa -16 + ^ .ra: .cfa -24 + ^ x29: .cfa -32 + ^
STACK CFI 3e864 .cfa: sp 32 +
STACK CFI 3e86c .cfa: sp 0 +
STACK CFI 3e870 .cfa: x29 32 +
STACK CFI 3e884 .cfa: sp 32 +
STACK CFI 3e88c .cfa: sp 0 +
STACK CFI INIT 3ed14 50 .cfa: sp 0 +
STACK CFI 3ed18 .cfa: sp 32 +
STACK CFI 3ed20 .cfa: x29 32 + x19: .cfa -16 + ^ .ra: .cfa -24 + ^ x29: .cfa -32 + ^
STACK CFI 3ed38 .cfa: sp 32 +
STACK CFI 3ed40 .cfa: sp 0 +
STACK CFI 3ed44 .cfa: x29 32 +
STACK CFI 3ed58 .cfa: sp 32 +
STACK CFI 3ed60 .cfa: sp 0 +
STACK CFI INIT 3f81c ec .cfa: sp 0 +
STACK CFI 3f820 .cfa: sp 48 +
STACK CFI 3f82c .cfa: x29 48 + x19: .cfa -8 + ^ x20: .cfa -16 + ^ x21: .cfa -32 + ^ .ra: .cfa -40 + ^ x29: .cfa -48 + ^
STACK CFI 3f874 .cfa: sp 48 +
STACK CFI 3f880 .cfa: sp 0 +
STACK CFI 3f884 .cfa: x29 48 +
STACK CFI 3f8b8 .cfa: sp 48 +
STACK CFI 3f8c4 .cfa: sp 0 +
STACK CFI 3f8c8 .cfa: x29 48 +
STACK CFI 3f8e0 .cfa: sp 48 +
STACK CFI 3f8ec .cfa: sp 0 +
STACK CFI 3f8f0 .cfa: x29 48 +
STACK CFI 3f8f8 .cfa: sp 48 +
STACK CFI 3f904 .cfa: sp 0 +
STACK CFI INIT 3fcf0 7c .cfa: sp 0 +
STACK CFI 3fcf4 .cfa: sp 32 +
STACK CFI 3fcfc .cfa: x29 32 + x19: .cfa -16 + ^ .ra: .cfa -24 + ^ x29: .cfa -32 + ^
STACK CFI 3fd20 .cfa: sp 32 +
STACK CFI 3fd28 .cfa: sp 0 +
STACK CFI 3fd2c .cfa: x29 32 +
STACK CFI 3fd60 .cfa: sp 32 +
STACK CFI 3fd68 .cfa: sp 0 +
STACK CFI INIT 3fd6c 108 .cfa: sp 0 +
STACK CFI 3fd70 .cfa: sp 48 +
STACK CFI 3fd7c .cfa: x29 48 + x19: .cfa -8 + ^ x20: .cfa -16 + ^ x21: .cfa -32 + ^ .ra: .cfa -40 + ^ x29: .cfa -48 + ^
STACK CFI 3fddc .cfa: sp 48 +
STACK CFI 3fde8 .cfa: sp 0 +
STACK CFI 3fdec .cfa: x29 48 +
STACK CFI 3fe08 .cfa: sp 48 +
STACK CFI 3fe14 .cfa: sp 0 +
STACK CFI 3fe18 .cfa: x29 48 +
STACK CFI 3fe50 .cfa: sp 48 +
STACK CFI 3fe5c .cfa: sp 0 +
STACK CFI 3fe60 .cfa: x29 48 +
STACK CFI 3fe64 .cfa: sp 48 +
STACK CFI 3fe70 .cfa: sp 0 +
STACK CFI INIT 3fe74 50 .cfa: sp 0 +
STACK CFI 3fe78 .cfa: sp 32 +
STACK CFI 3fe80 .cfa: x29 32 + x19: .cfa -16 + ^ .ra: .cfa -24 + ^ x29: .cfa -32 + ^
STACK CFI 3fe98 .cfa: sp 32 +
STACK CFI 3fea0 .cfa: sp 0 +
STACK CFI 3fea4 .cfa: x29 32 +
STACK CFI 3feb8 .cfa: sp 32 +
STACK CFI 3fec0 .cfa: sp 0 +
STACK CFI INIT 3fec4 9c .cfa: sp 0 +
STACK CFI 3fec8 .cfa: sp 32 +
STACK CFI 3fed0 .cfa: x29 32 + x19: .cfa -8 + ^ x20: .cfa -16 + ^ .ra: .cfa -24 + ^ x29: .cfa -32 + ^
STACK CFI 3ff54 .cfa: sp 32 +
STACK CFI 3ff5c .cfa: sp 0 +
STACK CFI INIT 402cc 7c .cfa: sp 0 +
STACK CFI 402d0 .cfa: sp 32 +
STACK CFI 402d8 .cfa: x29 32 + x19: .cfa -8 + ^ x20: .cfa -16 + ^ .ra: .cfa -24 + ^ x29: .cfa -32 + ^
STACK CFI 4030c .cfa: sp 32 +
STACK CFI 40314 .cfa: sp 0 +
STACK CFI 40318 .cfa: x29 32 +
STACK CFI 4033c .cfa: sp 32 +
STACK CFI 40344 .cfa: sp 0 +
STACK CFI INIT 40b28 c .cfa: sp 0 +
STACK CFI INIT 40c08 8 .cfa: sp 0 +
STACK CFI INIT 40c10 24 .cfa: sp 0 +
STACK CFI 40c14 .cfa: sp 32 +
STACK CFI 40c1c .cfa: x29 32 + x19: .cfa -16 + ^ .ra: .cfa -24 + ^ x29: .cfa -32 + ^
STACK CFI 40c28 .cfa: sp 32 +
STACK CFI 40c30 .cfa: sp 0 +
STACK CFI INIT 40c34 8 .cfa: sp 0 +
STACK CFI INIT 40c3c 8 .cfa: sp 0 +
STACK CFI INIT 40c44 8 .cfa: sp 0 +
STACK CFI INIT 40c4c 4 .cfa: sp 0 +
STACK CFI INIT 41b30 1c .cfa: sp 0 +
STACK CFI INIT 41b4c 1c .cfa: sp 0 +
STACK CFI INIT 41b68 144 .cfa: sp 0 +
STACK CFI 41b6c .cfa: sp 80 +
STACK CFI 41b80 .cfa: x29 80 + x19: .cfa -8 + ^ x20: .cfa -16 + ^ x21: .cfa -24 + ^ x22: .cfa -32 + ^ x23: .cfa -40 + ^ x24: .cfa -48 + ^ x25: .cfa -64 + ^ .ra: .cfa -72 + ^ x29: .cfa -80 + ^
STACK CFI 41c8c .cfa: sp 80 +
STACK CFI 41ca0 .cfa: sp 0 +
STACK CFI 41ca4 .cfa: x29 80 +
STACK CFI INIT 41cac 34 .cfa: sp 0 +
STACK CFI 41cb0 .cfa: sp 32 +
STACK CFI 41cb8 .cfa: x29 32 + x19: .cfa -8 + ^ x20: .cfa -16 + ^ .ra: .cfa -24 + ^ x29: .cfa -32 + ^
STACK CFI 41cd4 .cfa: sp 32 +
STACK CFI 41cdc .cfa: sp 0 +
STACK CFI INIT 41ce0 8 .cfa: sp 0 +
STACK CFI INIT 41ce8 d8 .cfa: sp 0 +
STACK CFI 41cec .cfa: sp 32 +
STACK CFI 41cf4 .cfa: x29 32 + x19: .cfa -8 + ^ x20: .cfa -16 + ^ .ra: .cfa -24 + ^ x29: .cfa -32 + ^
STACK CFI 41d8c .cfa: sp 32 +
STACK CFI 41d94 .cfa: sp 0 +
STACK CFI 41d98 .cfa: x29 32 +
STACK CFI 41db4 .cfa: sp 32 +
STACK CFI 41dbc .cfa: sp 0 +
STACK CFI INIT 41dc0 e8 .cfa: sp 0 +
STACK CFI 41dc4 .cfa: sp 32 +
STACK CFI 41dcc .cfa: x29 32 + x19: .cfa -8 + ^ x20: .cfa -16 + ^ .ra: .cfa -24 + ^ x29: .cfa -32 + ^
STACK CFI 41e6c .cfa: sp 32 +
STACK CFI 41e74 .cfa: sp 0 +
STACK CFI 41e78 .cfa: x29 32 +
STACK CFI 41e9c .cfa: sp 32 +
STACK CFI 41ea4 .cfa: sp 0 +
STACK CFI INIT 43158 ac .cfa: sp 0 +
STACK CFI 4315c .cfa: sp 32 +
STACK CFI 43164 .cfa: x29 32 + x19: .cfa -8 + ^ x20: .cfa -16 + ^ .ra: .cfa -24 + ^ x29: .cfa -32 + ^
STACK CFI 431d0 .cfa: sp 32 +
STACK CFI 431d8 .cfa: sp 0 +
STACK CFI 431dc .cfa: x29 32 +
STACK CFI 431f8 .cfa: sp 32 +
STACK CFI 43200 .cfa: sp 0 +
STACK CFI INIT 43204 bc .cfa: sp 0 +
STACK CFI 43208 .cfa: sp 32 +
STACK CFI 43210 .cfa: x29 32 + x19: .cfa -8 + ^ x20: .cfa -16 + ^ .ra: .cfa -24 + ^ x29: .cfa -32 + ^
STACK CFI 43284 .cfa: sp 32 +
STACK CFI 4328c .cfa: sp 0 +
STACK CFI 43290 .cfa: x29 32 +
STACK CFI 432b4 .cfa: sp 32 +
STACK CFI 432bc .cfa: sp 0 +
STACK CFI INIT 43640 64 .cfa: sp 0 +
STACK CFI 43644 .cfa: sp 32 +
STACK CFI 4364c .cfa: x29 32 + x19: .cfa -16 + ^ .ra: .cfa -24 + ^ x29: .cfa -32 + ^
STACK CFI 43668 .cfa: sp 32 +
STACK CFI 43670 .cfa: sp 0 +
STACK CFI 43674 .cfa: x29 32 +
STACK CFI 43698 .cfa: sp 32 +
STACK CFI 436a0 .cfa: sp 0 +
STACK CFI INIT 43718 4 .cfa: sp 0 +
STACK CFI INIT 4371c 14 .cfa: sp 0 +
STACK CFI INIT 43b40 e8 .cfa: sp 0 +
STACK CFI 43b44 .cfa: sp 64 +
STACK CFI 43b54 .cfa: x29 64 + x19: .cfa -8 + ^ x20: .cfa -16 + ^ x21: .cfa -24 + ^ x22: .cfa -32 + ^ x23: .cfa -40 + ^ x24: .cfa -48 + ^ .ra: .cfa -56 + ^ x29: .cfa -64 + ^
STACK CFI 43c14 .cfa: sp 64 +
STACK CFI 43c24 .cfa: sp 0 +
STACK CFI INIT 43d48 100 .cfa: sp 0 +
STACK CFI 43d4c .cfa: sp 48 +
STACK CFI 43d58 .cfa: x29 48 + x19: .cfa -8 + ^ x20: .cfa -16 + ^ x21: .cfa -32 + ^ .ra: .cfa -40 + ^ x29: .cfa -48 + ^
STACK CFI 43e14 .cfa: sp 48 +
STACK CFI 43e20 .cfa: sp 0 +
STACK CFI 43e24 .cfa: x29 48 +
STACK CFI 43e38 .cfa: sp 48 +
STACK CFI 43e44 .cfa: sp 0 +
STACK CFI INIT 44290 50 .cfa: sp 0 +
STACK CFI 44294 .cfa: sp 32 +
STACK CFI 4429c .cfa: x29 32 + x19: .cfa -8 + ^ x20: .cfa -16 + ^ .ra: .cfa -24 + ^ x29: .cfa -32 + ^
STACK CFI 442d4 .cfa: sp 32 +
STACK CFI 442dc .cfa: sp 0 +
STACK CFI INIT 444d4 8 .cfa: sp 0 +
STACK CFI INIT 444dc 14 .cfa: sp 0 +
STACK CFI INIT 446a8 30 .cfa: sp 0 +
STACK CFI 446ac .cfa: sp 32 +
STACK CFI 446b4 .cfa: x29 32 + x19: .cfa -16 + ^ .ra: .cfa -24 + ^ x29: .cfa -32 + ^
STACK CFI 446cc .cfa: sp 32 +
STACK CFI 446d4 .cfa: sp 0 +
STACK CFI INIT 446d8 14 .cfa: sp 0 +
STACK CFI INIT 446ec 14 .cfa: sp 0 +
STACK CFI INIT 4486c 8c .cfa: sp 0 +
STACK CFI 44870 .cfa: sp 48 +
STACK CFI 4487c .cfa: x29 48 + x19: .cfa -8 + ^ x20: .cfa -16 + ^ x21: .cfa -24 + ^ x22: .cfa -32 + ^ .ra: .cfa -40 + ^ x29: .cfa -48 + ^
STACK CFI 44884 .cfa: sp 48 +
STACK CFI 44890 .cfa: sp 0 +
STACK CFI 44894 .cfa: x29 48 +
STACK CFI 448e8 .cfa: sp 48 +
STACK CFI 448f4 .cfa: sp 0 +
STACK CFI INIT 448f8 60 .cfa: sp 0 +
STACK CFI 44908 .cfa: sp 32 +
STACK CFI 44910 .cfa: x29 32 + x19: .cfa -8 + ^ x20: .cfa -16 + ^ .ra: .cfa -24 + ^ x29: .cfa -32 + ^
STACK CFI 4494c .cfa: sp 32 +
STACK CFI 44954 .cfa: sp 0 +
STACK CFI INIT 44aa8 168 .cfa: sp 0 +
STACK CFI 44aac .cfa: sp 32 +
STACK CFI 44ab4 .cfa: x29 32 + x19: .cfa -8 + ^ x20: .cfa -16 + ^ .ra: .cfa -24 + ^ x29: .cfa -32 + ^
STACK CFI 44bc0 .cfa: sp 32 +
STACK CFI 44bc8 .cfa: sp 0 +
STACK CFI 44bcc .cfa: x29 32 +
STACK CFI 44bec .cfa: sp 32 +
STACK CFI 44bf4 .cfa: sp 0 +
STACK CFI 44bf8 .cfa: x29 32 +
STACK CFI 44c04 .cfa: sp 32 +
STACK CFI 44c0c .cfa: sp 0 +
STACK CFI INIT 44c10 ac .cfa: sp 0 +
STACK CFI 44c14 .cfa: sp 64 +
STACK CFI 44c24 .cfa: x29 64 + x19: .cfa -8 + ^ x20: .cfa -16 + ^ x21: .cfa -24 + ^ x22: .cfa -32 + ^ x23: .cfa -48 + ^ .ra: .cfa -56 + ^ x29: .cfa -64 + ^
STACK CFI 44ca0 .cfa: sp 64 +
STACK CFI 44cb0 .cfa: sp 0 +
STACK CFI 44cb4 .cfa: x29 64 +
STACK CFI INIT 44cbc 13c .cfa: sp 0 +
STACK CFI 44cc0 .cfa: sp 64 +
STACK CFI 44cd0 .cfa: x29 64 + x19: .cfa -8 + ^ x20: .cfa -16 + ^ x21: .cfa -24 + ^ x22: .cfa -32 + ^ x23: .cfa -40 + ^ x24: .cfa -48 + ^ .ra: .cfa -56 + ^ x29: .cfa -64 + ^
STACK CFI 44db0 .cfa: sp 64 +
STACK CFI 44dc0 .cfa: sp 0 +
STACK CFI 44dc4 .cfa: x29 64 +
STACK CFI INIT 44df8 214 .cfa: sp 0 +
STACK CFI 44e2c .cfa: sp 32 +
STACK CFI 44e34 .cfa: x29 32 + x19: .cfa -8 + ^ x20: .cfa -16 + ^ .ra: .cfa -24 + ^ x29: .cfa -32 + ^
STACK CFI 44e70 .cfa: sp 0 + x19: x19 x20: x20 .ra: x30 x29: x29
STACK CFI 44e78 .cfa: x29 32 + x19: .cfa -8 + ^ x20: .cfa -16 + ^ .ra: .cfa -24 + ^ x29: .cfa -32 + ^
STACK CFI 44ea4 .cfa: sp 32 +
STACK CFI 44eac .cfa: sp 0 +
STACK CFI 44eb0 .cfa: x29 32 +
STACK CFI 44fa8 .cfa: sp 32 +
STACK CFI 44fb0 .cfa: sp 0 +
STACK CFI 44fb4 .cfa: x29 32 +
STACK CFI 44fb8 .cfa: sp 32 +
STACK CFI 44fc0 .cfa: sp 0 +
STACK CFI 44fc4 .cfa: x29 32 +
STACK CFI 44fd4 .cfa: sp 32 +
STACK CFI 44fdc .cfa: sp 0 +
STACK CFI 44fe0 .cfa: x29 32 +
STACK CFI INIT 4706c 10 .cfa: sp 0 +
STACK CFI INIT 4707c 30 .cfa: sp 0 +
STACK CFI 47080 .cfa: sp 32 +
STACK CFI 47088 .cfa: x29 32 + x19: .cfa -16 + ^ .ra: .cfa -24 + ^ x29: .cfa -32 + ^
STACK CFI 470a0 .cfa: sp 32 +
STACK CFI 470a8 .cfa: sp 0 +
STACK CFI INIT 470ac 64 .cfa: sp 0 +
STACK CFI 470b0 .cfa: sp 32 +
STACK CFI 470b8 .cfa: x29 32 + x19: .cfa -16 + ^ .ra: .cfa -24 + ^ x29: .cfa -32 + ^
STACK CFI 470d4 .cfa: sp 32 +
STACK CFI 470dc .cfa: sp 0 +
STACK CFI 470e0 .cfa: x29 32 +
STACK CFI 47104 .cfa: sp 32 +
STACK CFI 4710c .cfa: sp 0 +
STACK CFI INIT 47110 4 .cfa: sp 0 +
STACK CFI INIT 47114 4 .cfa: sp 0 +
STACK CFI INIT 47118 34 .cfa: sp 0 +
STACK CFI 4711c .cfa: sp 32 +
STACK CFI 47124 .cfa: x29 32 + x19: .cfa -16 + ^ .ra: .cfa -24 + ^ x29: .cfa -32 + ^
STACK CFI 47140 .cfa: sp 32 +
STACK CFI 47148 .cfa: sp 0 +
STACK CFI INIT 4714c 14 .cfa: sp 0 +
STACK CFI INIT 47160 4 .cfa: sp 0 +
STACK CFI INIT 47164 4 .cfa: sp 0 +
STACK CFI INIT 47830 1c .cfa: sp 0 +
STACK CFI INIT 4784c c .cfa: sp 0 +
STACK CFI INIT 47858 1e4 .cfa: sp 0 +
STACK CFI INIT 47a3c 80 .cfa: sp 0 +
STACK CFI 47a40 .cfa: sp 48 +
STACK CFI 47a4c .cfa: x29 48 + x19: .cfa -8 + ^ x20: .cfa -16 + ^ x21: .cfa -32 + ^ .ra: .cfa -40 + ^ x29: .cfa -48 + ^
STACK CFI 47a70 .cfa: sp 48 +
STACK CFI 47a7c .cfa: sp 0 +
STACK CFI 47a80 .cfa: x29 48 +
STACK CFI 47aac .cfa: sp 48 +
STACK CFI 47ab8 .cfa: sp 0 +
STACK CFI INIT 47abc 50 .cfa: sp 0 +
STACK CFI 47ac0 .cfa: sp 32 +
STACK CFI 47ac8 .cfa: x29 32 + x19: .cfa -16 + ^ .ra: .cfa -24 + ^ x29: .cfa -32 + ^
STACK CFI 47ae0 .cfa: sp 32 +
STACK CFI 47ae8 .cfa: sp 0 +
STACK CFI 47aec .cfa: x29 32 +
STACK CFI 47b00 .cfa: sp 32 +
STACK CFI 47b08 .cfa: sp 0 +
STACK CFI INIT 47b0c 88 .cfa: sp 0 +
STACK CFI 47b10 .cfa: sp 48 +
STACK CFI 47b1c .cfa: x29 32 + x19: .cfa -8 + ^ x20: .cfa -16 + ^ .ra: .cfa -24 + ^ x29: .cfa -32 + ^
STACK CFI 47b5c .cfa: sp 48 +
STACK CFI 47b68 .cfa: sp 0 +
STACK CFI 47b6c .cfa: x29 32 +
STACK CFI 47b80 .cfa: sp 48 +
STACK CFI 47b8c .cfa: sp 0 +
STACK CFI 47b90 .cfa: x29 32 +
STACK CFI INIT 47b94 458 .cfa: sp 0 +
STACK CFI INIT 47fec 1ac .cfa: sp 0 +
STACK CFI 47ff0 .cfa: sp 32 +
STACK CFI 47ff8 .cfa: x29 32 + x19: .cfa -8 + ^ x20: .cfa -16 + ^ .ra: .cfa -24 + ^ x29: .cfa -32 + ^
STACK CFI 480e8 .cfa: sp 32 +
STACK CFI 480f0 .cfa: sp 0 +
STACK CFI 480f4 .cfa: x29 32 +
STACK CFI INIT 485d4 50 .cfa: sp 0 +
STACK CFI 485f8 .cfa: sp 32 +
STACK CFI 48600 .cfa: x29 32 + x19: .cfa -16 + ^ .ra: .cfa -24 + ^ x29: .cfa -32 + ^
STACK CFI 48614 .cfa: sp 32 +
STACK CFI 4861c .cfa: sp 0 +
STACK CFI INIT 48624 b8 .cfa: sp 0 +
STACK CFI 48628 .cfa: sp 64 +
STACK CFI 48638 .cfa: x29 64 + x19: .cfa -8 + ^ x20: .cfa -16 + ^ x21: .cfa -24 + ^ x22: .cfa -32 + ^ x23: .cfa -40 + ^ x24: .cfa -48 + ^ .ra: .cfa -56 + ^ x29: .cfa -64 + ^
STACK CFI 486b4 .cfa: sp 64 +
STACK CFI 486c4 .cfa: sp 0 +
STACK CFI 486c8 .cfa: sp 64 +
STACK CFI 486d8 .cfa: sp 0 +
STACK CFI INIT 486dc 14 .cfa: sp 0 +
STACK CFI 486e0 .cfa: sp 16 +
STACK CFI 486e4 .cfa: x29 16 + .ra: .cfa -8 + ^ x29: .cfa -16 + ^
STACK CFI INIT 486f0 a4 .cfa: sp 0 +
STACK CFI 48700 .cfa: sp 48 +
STACK CFI 4870c .cfa: x29 48 + x19: .cfa -8 + ^ x20: .cfa -16 + ^ x21: .cfa -24 + ^ x22: .cfa -32 + ^ .ra: .cfa -40 + ^ x29: .cfa -48 + ^
STACK CFI 48720 .cfa: sp 48 +
STACK CFI 4872c .cfa: sp 0 +
STACK CFI 48730 .cfa: x29 48 +
STACK CFI INIT 488d0 70 .cfa: sp 0 +
STACK CFI 488d4 .cfa: sp 48 +
STACK CFI 488e0 .cfa: x29 48 + x19: .cfa -8 + ^ x20: .cfa -16 + ^ x21: .cfa -32 + ^ .ra: .cfa -40 + ^ x29: .cfa -48 + ^
STACK CFI 488f8 .cfa: sp 48 +
STACK CFI 48904 .cfa: sp 0 +
STACK CFI 48908 .cfa: x29 48 +
STACK CFI 48930 .cfa: sp 48 +
STACK CFI 4893c .cfa: sp 0 +
STACK CFI INIT 48940 e4 .cfa: sp 0 +
STACK CFI 48944 .cfa: sp 64 +
STACK CFI 48954 .cfa: x29 64 + x19: .cfa -8 + ^ x20: .cfa -16 + ^ x21: .cfa -24 + ^ x22: .cfa -32 + ^ x23: .cfa -40 + ^ x24: .cfa -48 + ^ .ra: .cfa -56 + ^ x29: .cfa -64 + ^
STACK CFI 48978 .cfa: sp 64 +
STACK CFI 48988 .cfa: sp 0 +
STACK CFI 4898c .cfa: x29 64 +
STACK CFI 489fc .cfa: sp 64 +
STACK CFI 48a0c .cfa: sp 0 +
STACK CFI 48a10 .cfa: sp 64 +
STACK CFI 48a20 .cfa: sp 0 +
STACK CFI INIT 48a24 4 .cfa: sp 0 +
STACK CFI INIT 48bf4 9c .cfa: sp 0 +
STACK CFI 48bf8 .cfa: sp 32 +
STACK CFI 48c00 .cfa: x29 32 + x19: .cfa -8 + ^ x20: .cfa -16 + ^ .ra: .cfa -24 + ^ x29: .cfa -32 + ^
STACK CFI 48c84 .cfa: sp 32 +
STACK CFI 48c8c .cfa: sp 0 +
STACK CFI INIT 48c90 a4 .cfa: sp 0 +
STACK CFI 48c94 .cfa: sp 32 +
STACK CFI 48c9c .cfa: x29 32 + x19: .cfa -8 + ^ x20: .cfa -16 + ^ .ra: .cfa -24 + ^ x29: .cfa -32 + ^
STACK CFI 48d28 .cfa: sp 32 +
STACK CFI 48d30 .cfa: sp 0 +
STACK CFI INIT 48d34 50 .cfa: sp 0 +
STACK CFI 48d38 .cfa: sp 32 +
STACK CFI 48d40 .cfa: x29 32 + x19: .cfa -16 + ^ .ra: .cfa -24 + ^ x29: .cfa -32 + ^
STACK CFI 48d58 .cfa: sp 32 +
STACK CFI 48d60 .cfa: sp 0 +
STACK CFI 48d64 .cfa: x29 32 +
STACK CFI 48d78 .cfa: sp 32 +
STACK CFI 48d80 .cfa: sp 0 +
STACK CFI INIT 48d84 5c .cfa: sp 0 +
STACK CFI 48d88 .cfa: sp 32 +
STACK CFI 48d90 .cfa: x29 32 + x19: .cfa -16 + ^ .ra: .cfa -24 + ^ x29: .cfa -32 + ^
STACK CFI 48db4 .cfa: sp 32 +
STACK CFI 48dbc .cfa: sp 0 +
STACK CFI 48dc0 .cfa: x29 32 +
STACK CFI 48dd4 .cfa: sp 32 +
STACK CFI 48ddc .cfa: sp 0 +
STACK CFI INIT 48de0 6c .cfa: sp 0 +
STACK CFI 48de4 .cfa: sp 32 +
STACK CFI 48dec .cfa: x29 32 + x19: .cfa -8 + ^ x20: .cfa -16 + ^ .ra: .cfa -24 + ^ x29: .cfa -32 + ^
STACK CFI 48e18 .cfa: sp 32 +
STACK CFI 48e20 .cfa: sp 0 +
STACK CFI 48e24 .cfa: x29 32 +
STACK CFI 48e40 .cfa: sp 32 +
STACK CFI 48e48 .cfa: sp 0 +
STACK CFI INIT 48e4c 58 .cfa: sp 0 +
STACK CFI 48e50 .cfa: sp 32 +
STACK CFI 48e58 .cfa: x29 32 + x19: .cfa -8 + ^ x20: .cfa -16 + ^ .ra: .cfa -24 + ^ x29: .cfa -32 + ^
STACK CFI 48e98 .cfa: sp 32 +
STACK CFI 48ea0 .cfa: sp 0 +
STACK CFI INIT 48ea4 4c .cfa: sp 0 +
STACK CFI 48ea8 .cfa: sp 32 +
STACK CFI 48eb0 .cfa: x29 32 + x19: .cfa -8 + ^ x20: .cfa -16 + ^ .ra: .cfa -24 + ^ x29: .cfa -32 + ^
STACK CFI 48ee4 .cfa: sp 32 +
STACK CFI 48eec .cfa: sp 0 +
STACK CFI INIT 48ef0 50 .cfa: sp 0 +
STACK CFI 48ef4 .cfa: sp 32 +
STACK CFI 48efc .cfa: x29 32 + x19: .cfa -16 + ^ .ra: .cfa -24 + ^ x29: .cfa -32 + ^
STACK CFI 48f14 .cfa: sp 32 +
STACK CFI 48f1c .cfa: sp 0 +
STACK CFI 48f20 .cfa: x29 32 +
STACK CFI 48f34 .cfa: sp 32 +
STACK CFI 48f3c .cfa: sp 0 +
STACK CFI INIT 48f40 60 .cfa: sp 0 +
STACK CFI 48f44 .cfa: sp 32 +
STACK CFI 48f4c .cfa: x29 32 + x19: .cfa -8 + ^ x20: .cfa -16 + ^ .ra: .cfa -24 + ^ x29: .cfa -32 + ^
STACK CFI 48f6c .cfa: sp 32 +
STACK CFI 48f74 .cfa: sp 0 +
STACK CFI 48f78 .cfa: x29 32 +
STACK CFI 48f94 .cfa: sp 32 +
STACK CFI 48f9c .cfa: sp 0 +
STACK CFI INIT 49138 1c .cfa: sp 0 +
STACK CFI INIT 49154 c .cfa: sp 0 +
STACK CFI INIT 49160 60 .cfa: sp 0 +
STACK CFI 49164 .cfa: sp 32 +
STACK CFI 4916c .cfa: x29 32 + x19: .cfa -8 + ^ x20: .cfa -16 + ^ .ra: .cfa -24 + ^ x29: .cfa -32 + ^
STACK CFI 4918c .cfa: sp 32 +
STACK CFI 49194 .cfa: sp 0 +
STACK CFI 49198 .cfa: x29 32 +
STACK CFI 491b4 .cfa: sp 32 +
STACK CFI 491bc .cfa: sp 0 +
STACK CFI INIT 491c0 70 .cfa: sp 0 +
STACK CFI 491c4 .cfa: sp 32 +
STACK CFI 491cc .cfa: x29 32 + x19: .cfa -8 + ^ x20: .cfa -16 + ^ .ra: .cfa -24 + ^ x29: .cfa -32 + ^
STACK CFI 491f4 .cfa: sp 32 +
STACK CFI 491fc .cfa: sp 0 +
STACK CFI 49200 .cfa: x29 32 +
STACK CFI 49224 .cfa: sp 32 +
STACK CFI 4922c .cfa: sp 0 +
STACK CFI INIT 49230 5c .cfa: sp 0 +
STACK CFI 49234 .cfa: sp 32 +
STACK CFI 4923c .cfa: x29 32 + x19: .cfa -16 + ^ .ra: .cfa -24 + ^ x29: .cfa -32 + ^
STACK CFI 49260 .cfa: sp 32 +
STACK CFI 49268 .cfa: sp 0 +
STACK CFI 4926c .cfa: x29 32 +
STACK CFI 49280 .cfa: sp 32 +
STACK CFI 49288 .cfa: sp 0 +
STACK CFI INIT 4928c 6c .cfa: sp 0 +
STACK CFI 49290 .cfa: sp 32 +
STACK CFI 49298 .cfa: x29 32 + x19: .cfa -8 + ^ x20: .cfa -16 + ^ .ra: .cfa -24 + ^ x29: .cfa -32 + ^
STACK CFI 492c4 .cfa: sp 32 +
STACK CFI 492cc .cfa: sp 0 +
STACK CFI 492d0 .cfa: x29 32 +
STACK CFI 492ec .cfa: sp 32 +
STACK CFI 492f4 .cfa: sp 0 +
STACK CFI INIT 492f8 58 .cfa: sp 0 +
STACK CFI 492fc .cfa: sp 32 +
STACK CFI 49304 .cfa: x29 32 + x19: .cfa -8 + ^ x20: .cfa -16 + ^ .ra: .cfa -24 + ^ x29: .cfa -32 + ^
STACK CFI 49344 .cfa: sp 32 +
STACK CFI 4934c .cfa: sp 0 +
STACK CFI INIT 49350 4c .cfa: sp 0 +
STACK CFI 49354 .cfa: sp 32 +
STACK CFI 4935c .cfa: x29 32 + x19: .cfa -8 + ^ x20: .cfa -16 + ^ .ra: .cfa -24 + ^ x29: .cfa -32 + ^
STACK CFI 49390 .cfa: sp 32 +
STACK CFI 49398 .cfa: sp 0 +
STACK CFI INIT 4939c 50 .cfa: sp 0 +
STACK CFI 493a0 .cfa: sp 32 +
STACK CFI 493a8 .cfa: x29 32 + x19: .cfa -16 + ^ .ra: .cfa -24 + ^ x29: .cfa -32 + ^
STACK CFI 493c0 .cfa: sp 32 +
STACK CFI 493c8 .cfa: sp 0 +
STACK CFI 493cc .cfa: x29 32 +
STACK CFI 493e0 .cfa: sp 32 +
STACK CFI 493e8 .cfa: sp 0 +
STACK CFI INIT 493ec 60 .cfa: sp 0 +
STACK CFI 493f0 .cfa: sp 32 +
STACK CFI 493f8 .cfa: x29 32 + x19: .cfa -8 + ^ x20: .cfa -16 + ^ .ra: .cfa -24 + ^ x29: .cfa -32 + ^
STACK CFI 49418 .cfa: sp 32 +
STACK CFI 49420 .cfa: sp 0 +
STACK CFI 49424 .cfa: x29 32 +
STACK CFI 49440 .cfa: sp 32 +
STACK CFI 49448 .cfa: sp 0 +
STACK CFI INIT 495d4 1c .cfa: sp 0 +
STACK CFI INIT 495f0 c .cfa: sp 0 +
STACK CFI INIT 495fc 34 .cfa: sp 0 +
STACK CFI 49600 .cfa: sp 16 +
STACK CFI 49604 .cfa: x29 16 + .ra: .cfa -8 + ^ x29: .cfa -16 + ^
STACK CFI INIT 49630 24 .cfa: sp 0 +
STACK CFI 49634 .cfa: sp 32 +
STACK CFI 4963c .cfa: x29 32 + x19: .cfa -16 + ^ .ra: .cfa -24 + ^ x29: .cfa -32 + ^
STACK CFI 49648 .cfa: sp 32 +
STACK CFI 49650 .cfa: sp 0 +
STACK CFI INIT 49654 4 .cfa: sp 0 +
STACK CFI INIT 49658 4 .cfa: sp 0 +
STACK CFI INIT 4965c 40 .cfa: sp 0 +
STACK CFI 49660 .cfa: sp 32 +
STACK CFI 49668 .cfa: x29 32 + x19: .cfa -16 + ^ .ra: .cfa -24 + ^ x29: .cfa -32 + ^
STACK CFI 49690 .cfa: sp 32 +
STACK CFI 49698 .cfa: sp 0 +
STACK CFI INIT 4969c 20 .cfa: sp 0 +
STACK CFI INIT 496bc 4 .cfa: sp 0 +
STACK CFI INIT 496c0 4 .cfa: sp 0 +
STACK CFI INIT 4998c 1c .cfa: sp 0 +
STACK CFI INIT 499a8 c .cfa: sp 0 +
STACK CFI INIT 499b4 4 .cfa: sp 0 +
STACK CFI INIT 499b8 34 .cfa: sp 0 +
STACK CFI 499bc .cfa: sp 32 +
STACK CFI 499c4 .cfa: x29 32 + x19: .cfa -16 + ^ .ra: .cfa -24 + ^ x29: .cfa -32 + ^
STACK CFI 499e0 .cfa: sp 32 +
STACK CFI 499e8 .cfa: sp 0 +
STACK CFI INIT 499ec 14 .cfa: sp 0 +
STACK CFI INIT 49a00 4 .cfa: sp 0 +
STACK CFI INIT 49a04 4 .cfa: sp 0 +
STACK CFI INIT 49a08 18 .cfa: sp 0 +
STACK CFI INIT 49a20 1c .cfa: sp 0 +
STACK CFI INIT 49a3c c .cfa: sp 0 +
STACK CFI INIT 49c00 2c .cfa: sp 0 +
STACK CFI 49c04 .cfa: sp 32 +
STACK CFI 49c0c .cfa: x29 32 + x19: .cfa -16 + ^ .ra: .cfa -24 + ^ x29: .cfa -32 + ^
STACK CFI 49c20 .cfa: sp 32 +
STACK CFI 49c28 .cfa: sp 0 +
STACK CFI INIT 49c2c 28 .cfa: sp 0 +
STACK CFI INIT 49c54 4 .cfa: sp 0 +
STACK CFI INIT 49c58 8 .cfa: sp 0 +
STACK CFI INIT 4a2f4 2c .cfa: sp 0 +
STACK CFI INIT 4a320 4 .cfa: sp 0 +
STACK CFI INIT 4a324 4 .cfa: sp 0 +
STACK CFI INIT 4a328 4 .cfa: sp 0 +
STACK CFI INIT 4a32c 4 .cfa: sp 0 +
STACK CFI INIT 4a330 4 .cfa: sp 0 +
STACK CFI INIT 4a334 8 .cfa: sp 0 +
STACK CFI INIT 4a3a8 4 .cfa: sp 0 +
STACK CFI INIT 4a418 4 .cfa: sp 0 +
STACK CFI INIT 4a41c 4 .cfa: sp 0 +
STACK CFI INIT 4a420 4 .cfa: sp 0 +
STACK CFI INIT 4a424 34 .cfa: sp 0 +
STACK CFI 4a428 .cfa: sp 32 +
STACK CFI 4a430 .cfa: x29 32 + x19: .cfa -16 + ^ .ra: .cfa -24 + ^ x29: .cfa -32 + ^
STACK CFI 4a44c .cfa: sp 32 +
STACK CFI 4a454 .cfa: sp 0 +
STACK CFI INIT 4a458 14 .cfa: sp 0 +
STACK CFI INIT 4a46c 4 .cfa: sp 0 +
STACK CFI INIT 4a470 4 .cfa: sp 0 +
STACK CFI INIT 4ab7c 1c .cfa: sp 0 +
STACK CFI INIT 4ab98 c .cfa: sp 0 +
STACK CFI INIT 4aba4 60 .cfa: sp 0 +
STACK CFI 4aba8 .cfa: sp 32 +
STACK CFI 4abb0 .cfa: x29 32 + x19: .cfa -8 + ^ x20: .cfa -16 + ^ .ra: .cfa -24 + ^ x29: .cfa -32 + ^
STACK CFI 4abd0 .cfa: sp 32 +
STACK CFI 4abd8 .cfa: sp 0 +
STACK CFI 4abdc .cfa: x29 32 +
STACK CFI 4abf8 .cfa: sp 32 +
STACK CFI 4ac00 .cfa: sp 0 +
STACK CFI INIT 4ac04 50 .cfa: sp 0 +
STACK CFI 4ac08 .cfa: sp 32 +
STACK CFI 4ac10 .cfa: x29 32 + x19: .cfa -16 + ^ .ra: .cfa -24 + ^ x29: .cfa -32 + ^
STACK CFI 4ac28 .cfa: sp 32 +
STACK CFI 4ac30 .cfa: sp 0 +
STACK CFI 4ac34 .cfa: x29 32 +
STACK CFI 4ac48 .cfa: sp 32 +
STACK CFI 4ac50 .cfa: sp 0 +
STACK CFI INIT 4b170 26c .cfa: sp 0 +
STACK CFI 4b174 .cfa: sp 112 +
STACK CFI 4b190 .cfa: x29 96 + x19: .cfa -8 + ^ x20: .cfa -16 + ^ x21: .cfa -24 + ^ x22: .cfa -32 + ^ x23: .cfa -40 + ^ x24: .cfa -48 + ^ x25: .cfa -56 + ^ x26: .cfa -64 + ^ x27: .cfa -72 + ^ x28: .cfa -80 + ^ .ra: .cfa -88 + ^ x29: .cfa -96 + ^
STACK CFI 4b3bc .cfa: sp 112 +
STACK CFI 4b3d8 .cfa: sp 0 +
STACK CFI INIT 4b3dc 188 .cfa: sp 0 +
STACK CFI 4b3e0 .cfa: sp 64 +
STACK CFI 4b3f0 .cfa: x29 64 + x19: .cfa -8 + ^ x20: .cfa -16 + ^ x21: .cfa -24 + ^ x22: .cfa -32 + ^ x23: .cfa -48 + ^ .ra: .cfa -56 + ^ x29: .cfa -64 + ^
STACK CFI 4b530 .cfa: sp 64 +
STACK CFI 4b540 .cfa: sp 0 +
STACK CFI 4b544 .cfa: x29 64 +
STACK CFI 4b54c .cfa: sp 64 +
STACK CFI 4b55c .cfa: sp 0 +
STACK CFI 4b560 .cfa: x29 64 +
STACK CFI INIT 4b564 170 .cfa: sp 0 +
STACK CFI 4b568 .cfa: sp 96 +
STACK CFI 4b580 .cfa: x29 96 + x19: .cfa -8 + ^ x20: .cfa -16 + ^ x21: .cfa -24 + ^ x22: .cfa -32 + ^ x23: .cfa -40 + ^ x24: .cfa -48 + ^ x25: .cfa -56 + ^ x26: .cfa -64 + ^ x27: .cfa -80 + ^ .ra: .cfa -88 + ^ x29: .cfa -96 + ^
STACK CFI 4b6b4 .cfa: sp 96 +
STACK CFI 4b6cc .cfa: sp 0 +
STACK CFI 4b6d0 .cfa: x29 96 +
STACK CFI INIT 4b720 4 .cfa: sp 0 +
STACK CFI INIT 4b724 c .cfa: sp 0 +
STACK CFI INIT 4b730 4 .cfa: sp 0 +
STACK CFI INIT 4b734 4 .cfa: sp 0 +
STACK CFI INIT 4b738 24 .cfa: sp 0 +
STACK CFI 4b73c .cfa: sp 32 +
STACK CFI 4b744 .cfa: x29 32 + x19: .cfa -16 + ^ .ra: .cfa -24 + ^ x29: .cfa -32 + ^
STACK CFI 4b750 .cfa: sp 32 +
STACK CFI 4b758 .cfa: sp 0 +
STACK CFI INIT 4b75c 18 .cfa: sp 0 +
STACK CFI INIT 4b774 1c .cfa: sp 0 +
STACK CFI INIT 4b790 4 .cfa: sp 0 +
STACK CFI INIT 4b794 48 .cfa: sp 0 +
STACK CFI 4b7b0 .cfa: sp 32 +
STACK CFI 4b7b8 .cfa: x29 32 + x19: .cfa -16 + ^ .ra: .cfa -24 + ^ x29: .cfa -32 + ^
STACK CFI 4b7d0 .cfa: sp 32 +
STACK CFI 4b7d8 .cfa: sp 0 +
STACK CFI INIT 4b7dc 14 .cfa: sp 0 +
STACK CFI INIT 4b7f0 48 .cfa: sp 0 +
STACK CFI 4b80c .cfa: sp 32 +
STACK CFI 4b814 .cfa: x29 32 + x19: .cfa -16 + ^ .ra: .cfa -24 + ^ x29: .cfa -32 + ^
STACK CFI 4b82c .cfa: sp 32 +
STACK CFI 4b834 .cfa: sp 0 +
STACK CFI INIT 4c214 400 .cfa: sp 0 +
STACK CFI 4c218 .cfa: sp 32 +
STACK CFI 4c220 .cfa: x29 32 + x19: .cfa -16 + ^ .ra: .cfa -24 + ^ x29: .cfa -32 + ^
STACK CFI 4c288 .cfa: sp 32 +
STACK CFI 4c290 .cfa: sp 0 +
STACK CFI 4c294 .cfa: x29 32 +
STACK CFI 4c364 .cfa: sp 32 +
STACK CFI 4c36c .cfa: sp 0 +
STACK CFI 4c370 .cfa: x29 32 +
STACK CFI 4c3ac .cfa: sp 32 +
STACK CFI 4c3b4 .cfa: sp 0 +
STACK CFI 4c3b8 .cfa: x29 32 +
STACK CFI 4c3e4 .cfa: sp 32 +
STACK CFI 4c3ec .cfa: sp 0 +
STACK CFI 4c3f0 .cfa: x29 32 +
STACK CFI 4c40c .cfa: sp 32 +
STACK CFI 4c414 .cfa: sp 0 +
STACK CFI 4c418 .cfa: x29 32 +
STACK CFI 4c47c .cfa: sp 32 +
STACK CFI 4c484 .cfa: sp 0 +
STACK CFI 4c488 .cfa: x29 32 +
STACK CFI 4c4ec .cfa: sp 32 +
STACK CFI 4c4f4 .cfa: sp 0 +
STACK CFI 4c4f8 .cfa: x29 32 +
STACK CFI 4c5c8 .cfa: sp 32 +
STACK CFI 4c5d0 .cfa: sp 0 +
STACK CFI 4c5d4 .cfa: x29 32 +
STACK CFI 4c600 .cfa: sp 32 +
STACK CFI 4c608 .cfa: sp 0 +
STACK CFI 4c60c .cfa: x29 32 +
STACK CFI INIT 4c680 b4 .cfa: sp 0 +
STACK CFI 4c684 .cfa: sp 64 +
STACK CFI 4c694 .cfa: x29 64 + x19: .cfa -8 + ^ x20: .cfa -16 + ^ x21: .cfa -24 + ^ x22: .cfa -32 + ^ x23: .cfa -48 + ^ .ra: .cfa -56 + ^ x29: .cfa -64 + ^
STACK CFI 4c720 .cfa: sp 64 +
STACK CFI 4c730 .cfa: sp 0 +
STACK CFI INIT 4c780 48 .cfa: sp 0 +
STACK CFI 4c79c .cfa: sp 32 +
STACK CFI 4c7a4 .cfa: x29 32 + x19: .cfa -16 + ^ .ra: .cfa -24 + ^ x29: .cfa -32 + ^
STACK CFI 4c7bc .cfa: sp 32 +
STACK CFI 4c7c4 .cfa: sp 0 +
STACK CFI INIT 4c7c8 64 .cfa: sp 0 +
STACK CFI INIT 4c82c 48 .cfa: sp 0 +
STACK CFI 4c848 .cfa: sp 32 +
STACK CFI 4c850 .cfa: x29 32 + x19: .cfa -16 + ^ .ra: .cfa -24 + ^ x29: .cfa -32 + ^
STACK CFI 4c868 .cfa: sp 32 +
STACK CFI 4c870 .cfa: sp 0 +
STACK CFI INIT 4c874 54 .cfa: sp 0 +
STACK CFI INIT 4c8c8 5c .cfa: sp 0 +
STACK CFI 4c8cc .cfa: sp 32 +
STACK CFI 4c8d4 .cfa: x29 32 + x19: .cfa -16 + ^ .ra: .cfa -24 + ^ x29: .cfa -32 + ^
STACK CFI 4c90c .cfa: sp 32 +
STACK CFI 4c914 .cfa: sp 0 +
STACK CFI 4c918 .cfa: sp 32 +
STACK CFI 4c920 .cfa: sp 0 +
STACK CFI INIT 4c924 58 .cfa: sp 0 +
STACK CFI 4c928 .cfa: sp 32 +
STACK CFI 4c930 .cfa: x29 32 + x19: .cfa -16 + ^ .ra: .cfa -24 + ^ x29: .cfa -32 + ^
STACK CFI 4c970 .cfa: sp 32 +
STACK CFI 4c978 .cfa: sp 0 +
STACK CFI INIT 4c97c 110 .cfa: sp 0 +
STACK CFI INIT 4ca8c 90 .cfa: sp 0 +
STACK CFI 4ca90 .cfa: sp 32 +
STACK CFI 4ca98 .cfa: x29 32 + x19: .cfa -8 + ^ x20: .cfa -16 + ^ .ra: .cfa -24 + ^ x29: .cfa -32 + ^
STACK CFI 4cb04 .cfa: sp 32 +
STACK CFI 4cb0c .cfa: sp 0 +
STACK CFI 4cb10 .cfa: sp 32 +
STACK CFI 4cb18 .cfa: sp 0 +
STACK CFI INIT 4cb1c 8c .cfa: sp 0 +
STACK CFI 4cb20 .cfa: sp 32 +
STACK CFI 4cb28 .cfa: x29 32 + x19: .cfa -8 + ^ x20: .cfa -16 + ^ .ra: .cfa -24 + ^ x29: .cfa -32 + ^
STACK CFI 4cb9c .cfa: sp 32 +
STACK CFI 4cba4 .cfa: sp 0 +
STACK CFI INIT 4d1b8 1d0 .cfa: sp 0 +
STACK CFI 4d1bc .cfa: sp 48 +
STACK CFI 4d1c8 .cfa: x29 48 + x19: .cfa -8 + ^ x20: .cfa -16 + ^ x21: .cfa -24 + ^ x22: .cfa -32 + ^ .ra: .cfa -40 + ^ x29: .cfa -48 + ^
STACK CFI 4d358 .cfa: sp 48 +
STACK CFI 4d364 .cfa: sp 0 +
STACK CFI 4d368 .cfa: x29 48 +
STACK CFI 4d374 .cfa: sp 48 +
STACK CFI 4d380 .cfa: sp 0 +
STACK CFI 4d384 .cfa: x29 48 +
STACK CFI INIT 4d388 14 .cfa: sp 0 +
STACK CFI 4d38c .cfa: sp 16 +
STACK CFI 4d390 .cfa: x29 16 + .ra: .cfa -8 + ^ x29: .cfa -16 + ^
STACK CFI INIT 4d39c 44 .cfa: sp 0 +
STACK CFI 4d3a0 .cfa: sp 32 +
STACK CFI 4d3a8 .cfa: x29 32 + x19: .cfa -16 + ^ .ra: .cfa -24 + ^ x29: .cfa -32 + ^
STACK CFI 4d3c8 .cfa: sp 32 +
STACK CFI 4d3d0 .cfa: sp 0 +
STACK CFI 4d3d4 .cfa: sp 32 +
STACK CFI 4d3dc .cfa: sp 0 +
STACK CFI INIT 4d5e8 98 .cfa: sp 0 +
STACK CFI 4d5ec .cfa: sp 48 +
STACK CFI 4d5f8 .cfa: x29 48 + x19: .cfa -8 + ^ x20: .cfa -16 + ^ x21: .cfa -32 + ^ .ra: .cfa -40 + ^ x29: .cfa -48 + ^
STACK CFI 4d618 .cfa: sp 48 +
STACK CFI 4d624 .cfa: sp 0 +
STACK CFI 4d628 .cfa: x29 48 +
STACK CFI 4d660 .cfa: sp 48 +
STACK CFI 4d66c .cfa: sp 0 +
STACK CFI 4d670 .cfa: sp 48 +
STACK CFI 4d67c .cfa: sp 0 +
STACK CFI INIT 4d680 1cc .cfa: sp 0 +
STACK CFI 4d684 .cfa: sp 64 +
STACK CFI 4d694 .cfa: x29 64 + x19: .cfa -8 + ^ x20: .cfa -16 + ^ x21: .cfa -24 + ^ x22: .cfa -32 + ^ x23: .cfa -40 + ^ x24: .cfa -48 + ^ .ra: .cfa -56 + ^ x29: .cfa -64 + ^
STACK CFI 4d830 .cfa: sp 64 +
STACK CFI 4d840 .cfa: sp 0 +
STACK CFI 4d844 .cfa: x29 64 +
STACK CFI INIT 4d84c 14 .cfa: sp 0 +
STACK CFI 4d850 .cfa: sp 16 +
STACK CFI 4d854 .cfa: x29 16 + .ra: .cfa -8 + ^ x29: .cfa -16 + ^
STACK CFI INIT 4d860 188 .cfa: sp 0 +
STACK CFI 4d864 .cfa: sp 64 +
STACK CFI 4d874 .cfa: x29 64 + x19: .cfa -8 + ^ x20: .cfa -16 + ^ x21: .cfa -24 + ^ x22: .cfa -32 + ^ x23: .cfa -40 + ^ x24: .cfa -48 + ^ .ra: .cfa -56 + ^ x29: .cfa -64 + ^
STACK CFI 4d9b8 .cfa: sp 64 +
STACK CFI 4d9c8 .cfa: sp 0 +
STACK CFI 4d9cc .cfa: sp 64 +
STACK CFI 4d9dc .cfa: sp 0 +
STACK CFI 4d9e0 .cfa: x29 64 +
STACK CFI INIT 4d9e8 128 .cfa: sp 0 +
STACK CFI 4d9ec .cfa: sp 80 +
STACK CFI 4da00 .cfa: x29 80 + x19: .cfa -8 + ^ x20: .cfa -16 + ^ x21: .cfa -24 + ^ x22: .cfa -32 + ^ x23: .cfa -40 + ^ x24: .cfa -48 + ^ x25: .cfa -64 + ^ .ra: .cfa -72 + ^ x29: .cfa -80 + ^
STACK CFI 4dad8 .cfa: sp 80 +
STACK CFI 4daec .cfa: sp 0 +
STACK CFI 4daf0 .cfa: sp 80 +
STACK CFI 4db04 .cfa: sp 0 +
STACK CFI 4db08 .cfa: x29 80 +
STACK CFI INIT 4db10 14 .cfa: sp 0 +
STACK CFI 4db14 .cfa: sp 16 +
STACK CFI 4db18 .cfa: x29 16 + .ra: .cfa -8 + ^ x29: .cfa -16 + ^
STACK CFI INIT 4ed58 48 .cfa: sp 0 +
STACK CFI 4ed74 .cfa: sp 32 +
STACK CFI 4ed7c .cfa: x29 32 + x19: .cfa -16 + ^ .ra: .cfa -24 + ^ x29: .cfa -32 + ^
STACK CFI 4ed94 .cfa: sp 32 +
STACK CFI 4ed9c .cfa: sp 0 +
STACK CFI INIT 4edec 518 .cfa: sp 0 +
STACK CFI 4edf0 .cfa: sp 32 +
STACK CFI 4edf8 .cfa: x29 32 + x19: .cfa -16 + ^ .ra: .cfa -24 + ^ x29: .cfa -32 + ^
STACK CFI 4ef4c .cfa: sp 32 +
STACK CFI 4ef54 .cfa: sp 0 +
STACK CFI 4ef58 .cfa: x29 32 +
STACK CFI 4f0c8 .cfa: sp 32 +
STACK CFI 4f0d0 .cfa: sp 0 +
STACK CFI 4f0d4 .cfa: x29 32 +
STACK CFI 4f0f0 .cfa: sp 32 +
STACK CFI 4f0f8 .cfa: sp 0 +
STACK CFI 4f0fc .cfa: x29 32 +
STACK CFI 4f158 .cfa: sp 32 +
STACK CFI 4f160 .cfa: sp 0 +
STACK CFI 4f164 .cfa: x29 32 +
STACK CFI 4f180 .cfa: sp 32 +
STACK CFI 4f188 .cfa: sp 0 +
STACK CFI 4f18c .cfa: x29 32 +
STACK CFI 4f1a8 .cfa: sp 32 +
STACK CFI 4f1b0 .cfa: sp 0 +
STACK CFI 4f1b4 .cfa: x29 32 +
STACK CFI 4f1d0 .cfa: sp 32 +
STACK CFI 4f1d8 .cfa: sp 0 +
STACK CFI 4f1dc .cfa: x29 32 +
STACK CFI 4f1f4 .cfa: sp 32 +
STACK CFI 4f1fc .cfa: sp 0 +
STACK CFI 4f200 .cfa: x29 32 +
STACK CFI 4f21c .cfa: sp 32 +
STACK CFI 4f224 .cfa: sp 0 +
STACK CFI 4f228 .cfa: x29 32 +
STACK CFI 4f244 .cfa: sp 32 +
STACK CFI 4f24c .cfa: sp 0 +
STACK CFI 4f250 .cfa: x29 32 +
STACK CFI 4f26c .cfa: sp 32 +
STACK CFI 4f274 .cfa: sp 0 +
STACK CFI 4f278 .cfa: x29 32 +
STACK CFI 4f2cc .cfa: sp 32 +
STACK CFI 4f2d4 .cfa: sp 0 +
STACK CFI 4f2d8 .cfa: x29 32 +
STACK CFI 4f2f4 .cfa: sp 32 +
STACK CFI 4f2fc .cfa: sp 0 +
STACK CFI 4f300 .cfa: x29 32 +
STACK CFI INIT 4f490 c8 .cfa: sp 0 +
STACK CFI 4f494 .cfa: sp 48 +
STACK CFI 4f4a0 .cfa: x29 48 + x19: .cfa -8 + ^ x20: .cfa -16 + ^ x21: .cfa -32 + ^ .ra: .cfa -40 + ^ x29: .cfa -48 + ^
STACK CFI 4f548 .cfa: sp 48 +
STACK CFI 4f554 .cfa: sp 0 +
STACK CFI INIT 4f558 5c .cfa: sp 0 +
STACK CFI 4f55c .cfa: sp 32 +
STACK CFI 4f564 .cfa: x29 32 + x19: .cfa -16 + ^ .ra: .cfa -24 + ^ x29: .cfa -32 + ^
STACK CFI 4f59c .cfa: sp 32 +
STACK CFI 4f5a4 .cfa: sp 0 +
STACK CFI 4f5a8 .cfa: sp 32 +
STACK CFI 4f5b0 .cfa: sp 0 +
STACK CFI INIT 4f5b4 58 .cfa: sp 0 +
STACK CFI 4f5b8 .cfa: sp 32 +
STACK CFI 4f5c0 .cfa: x29 32 + x19: .cfa -16 + ^ .ra: .cfa -24 + ^ x29: .cfa -32 + ^
STACK CFI 4f600 .cfa: sp 32 +
STACK CFI 4f608 .cfa: sp 0 +
STACK CFI INIT 4f60c 80 .cfa: sp 0 +
STACK CFI 4f610 .cfa: sp 32 +
STACK CFI 4f618 .cfa: x29 32 + x19: .cfa -8 + ^ x20: .cfa -16 + ^ .ra: .cfa -24 + ^ x29: .cfa -32 + ^
STACK CFI 4f668 .cfa: sp 32 +
STACK CFI 4f670 .cfa: sp 0 +
STACK CFI 4f674 .cfa: x29 32 +
STACK CFI 4f680 .cfa: sp 32 +
STACK CFI 4f688 .cfa: sp 0 +
STACK CFI INIT 4f68c 5c .cfa: sp 0 +
STACK CFI 4f690 .cfa: sp 32 +
STACK CFI 4f698 .cfa: x29 32 + x19: .cfa -16 + ^ .ra: .cfa -24 + ^ x29: .cfa -32 + ^
STACK CFI 4f6d0 .cfa: sp 32 +
STACK CFI 4f6d8 .cfa: sp 0 +
STACK CFI 4f6dc .cfa: sp 32 +
STACK CFI 4f6e4 .cfa: sp 0 +
STACK CFI INIT 4f6e8 58 .cfa: sp 0 +
STACK CFI 4f6ec .cfa: sp 32 +
STACK CFI 4f6f4 .cfa: x29 32 + x19: .cfa -16 + ^ .ra: .cfa -24 + ^ x29: .cfa -32 + ^
STACK CFI 4f734 .cfa: sp 32 +
STACK CFI 4f73c .cfa: sp 0 +
STACK CFI INIT 4f740 48 .cfa: sp 0 +
STACK CFI INIT 4f788 48 .cfa: sp 0 +
STACK CFI 4f7a4 .cfa: sp 32 +
STACK CFI 4f7ac .cfa: x29 32 + x19: .cfa -16 + ^ .ra: .cfa -24 + ^ x29: .cfa -32 + ^
STACK CFI 4f7c4 .cfa: sp 32 +
STACK CFI 4f7cc .cfa: sp 0 +
STACK CFI INIT 4f7d0 48 .cfa: sp 0 +
STACK CFI INIT 4f818 5c .cfa: sp 0 +
STACK CFI 4f81c .cfa: sp 32 +
STACK CFI 4f824 .cfa: x29 32 + x19: .cfa -16 + ^ .ra: .cfa -24 + ^ x29: .cfa -32 + ^
STACK CFI 4f85c .cfa: sp 32 +
STACK CFI 4f864 .cfa: sp 0 +
STACK CFI 4f868 .cfa: sp 32 +
STACK CFI 4f870 .cfa: sp 0 +
STACK CFI INIT 4f874 58 .cfa: sp 0 +
STACK CFI 4f878 .cfa: sp 32 +
STACK CFI 4f880 .cfa: x29 32 + x19: .cfa -16 + ^ .ra: .cfa -24 + ^ x29: .cfa -32 + ^
STACK CFI 4f8c0 .cfa: sp 32 +
STACK CFI 4f8c8 .cfa: sp 0 +
STACK CFI INIT 4f8cc f8 .cfa: sp 0 +
STACK CFI 4f8d0 .cfa: sp 64 +
STACK CFI 4f8e0 .cfa: x29 64 + x19: .cfa -8 + ^ x20: .cfa -16 + ^ x21: .cfa -24 + ^ x22: .cfa -32 + ^ x23: .cfa -40 + ^ x24: .cfa -48 + ^ .ra: .cfa -56 + ^ x29: .cfa -64 + ^
STACK CFI 4f924 .cfa: sp 64 +
STACK CFI 4f934 .cfa: sp 0 +
STACK CFI 4f938 .cfa: x29 64 +
STACK CFI 4f9b0 .cfa: sp 64 +
STACK CFI 4f9c0 .cfa: sp 0 +
STACK CFI INIT 4f9c4 5c .cfa: sp 0 +
STACK CFI 4f9c8 .cfa: sp 32 +
STACK CFI 4f9d0 .cfa: x29 32 + x19: .cfa -16 + ^ .ra: .cfa -24 + ^ x29: .cfa -32 + ^
STACK CFI 4fa08 .cfa: sp 32 +
STACK CFI 4fa10 .cfa: sp 0 +
STACK CFI 4fa14 .cfa: sp 32 +
STACK CFI 4fa1c .cfa: sp 0 +
STACK CFI INIT 4fa20 58 .cfa: sp 0 +
STACK CFI 4fa24 .cfa: sp 32 +
STACK CFI 4fa2c .cfa: x29 32 + x19: .cfa -16 + ^ .ra: .cfa -24 + ^ x29: .cfa -32 + ^
STACK CFI 4fa6c .cfa: sp 32 +
STACK CFI 4fa74 .cfa: sp 0 +
STACK CFI INIT 4fa78 88 .cfa: sp 0 +
STACK CFI INIT 4fb00 48 .cfa: sp 0 +
STACK CFI 4fb1c .cfa: sp 32 +
STACK CFI 4fb24 .cfa: x29 32 + x19: .cfa -16 + ^ .ra: .cfa -24 + ^ x29: .cfa -32 + ^
STACK CFI 4fb3c .cfa: sp 32 +
STACK CFI 4fb44 .cfa: sp 0 +
STACK CFI INIT 4fb48 c8 .cfa: sp 0 +
STACK CFI 4fb4c .cfa: sp 48 +
STACK CFI 4fb58 .cfa: x29 48 + x19: .cfa -8 + ^ x20: .cfa -16 + ^ x21: .cfa -24 + ^ x22: .cfa -32 + ^ .ra: .cfa -40 + ^ x29: .cfa -48 + ^
STACK CFI 4fbd4 .cfa: sp 48 +
STACK CFI 4fbe0 .cfa: sp 0 +
STACK CFI 4fbe4 .cfa: x29 48 +
STACK CFI 4fbfc .cfa: sp 48 +
STACK CFI 4fc08 .cfa: sp 0 +
STACK CFI 4fc0c .cfa: x29 48 +
STACK CFI INIT 4fc10 184 .cfa: sp 0 +
STACK CFI 4fc14 .cfa: sp 64 +
STACK CFI 4fc24 .cfa: x29 64 + x19: .cfa -8 + ^ x20: .cfa -16 + ^ x21: .cfa -24 + ^ x22: .cfa -32 + ^ x23: .cfa -40 + ^ x24: .cfa -48 + ^ .ra: .cfa -56 + ^ x29: .cfa -64 + ^
STACK CFI 4fc6c .cfa: sp 64 +
STACK CFI 4fc7c .cfa: sp 0 +
STACK CFI 4fc80 .cfa: x29 64 +
STACK CFI 4fd64 .cfa: sp 64 +
STACK CFI 4fd74 .cfa: sp 0 +
STACK CFI 4fd78 .cfa: x29 64 +
STACK CFI 4fd7c .cfa: sp 64 +
STACK CFI 4fd8c .cfa: sp 0 +
STACK CFI 4fd90 .cfa: x29 64 +
STACK CFI INIT 4ff6c ac .cfa: sp 0 +
STACK CFI 4ff70 .cfa: sp 48 +
STACK CFI 4ff7c .cfa: x29 48 + x19: .cfa -8 + ^ x20: .cfa -16 + ^ x21: .cfa -24 + ^ x22: .cfa -32 + ^ .ra: .cfa -40 + ^ x29: .cfa -48 + ^
STACK CFI 4ff9c .cfa: sp 48 +
STACK CFI 4ffa8 .cfa: sp 0 +
STACK CFI 4ffac .cfa: x29 48 +
STACK CFI 4fff8 .cfa: sp 48 +
STACK CFI 50004 .cfa: sp 0 +
STACK CFI 50008 .cfa: sp 48 +
STACK CFI 50014 .cfa: sp 0 +
STACK CFI INIT 50018 154 .cfa: sp 0 +
STACK CFI 5001c .cfa: sp 48 +
STACK CFI 50028 .cfa: x29 48 + x19: .cfa -8 + ^ x20: .cfa -16 + ^ x21: .cfa -24 + ^ x22: .cfa -32 + ^ .ra: .cfa -40 + ^ x29: .cfa -48 + ^
STACK CFI 5014c .cfa: sp 48 +
STACK CFI 50158 .cfa: sp 0 +
STACK CFI 5015c .cfa: sp 48 +
STACK CFI 50168 .cfa: sp 0 +
STACK CFI INIT 5016c 24 .cfa: sp 0 +
STACK CFI 50170 .cfa: sp 32 +
STACK CFI 50178 .cfa: x29 32 + x19: .cfa -16 + ^ .ra: .cfa -24 + ^ x29: .cfa -32 + ^
STACK CFI 50184 .cfa: sp 32 +
STACK CFI 5018c .cfa: sp 0 +
STACK CFI INIT 50dc4 44 .cfa: sp 0 +
STACK CFI 50dc8 .cfa: sp 32 +
STACK CFI 50dd0 .cfa: x29 32 + x19: .cfa -16 + ^ .ra: .cfa -24 + ^ x29: .cfa -32 + ^
STACK CFI 50dec .cfa: sp 32 +
STACK CFI 50df4 .cfa: sp 0 +
STACK CFI 50df8 .cfa: x29 32 +
STACK CFI 50dfc .cfa: sp 32 +
STACK CFI 50e04 .cfa: sp 0 +
STACK CFI INIT 50fdc 14 .cfa: sp 0 +
STACK CFI 50fe0 .cfa: sp 16 +
STACK CFI 50fe4 .cfa: x29 16 + .ra: .cfa -8 + ^ x29: .cfa -16 + ^
STACK CFI INIT 5103c 334 .cfa: sp 0 +
STACK CFI 51040 .cfa: sp 80 +
STACK CFI 51054 .cfa: x29 80 + x19: .cfa -8 + ^ x20: .cfa -16 + ^ x21: .cfa -24 + ^ x22: .cfa -32 + ^ x23: .cfa -40 + ^ x24: .cfa -48 + ^ x25: .cfa -64 + ^ .ra: .cfa -72 + ^ x29: .cfa -80 + ^
STACK CFI 51134 .cfa: sp 80 +
STACK CFI 51148 .cfa: sp 0 +
STACK CFI 5114c .cfa: x29 80 +
STACK CFI 511a0 .cfa: sp 80 +
STACK CFI 511b4 .cfa: sp 0 +
STACK CFI 511b8 .cfa: x29 80 +
STACK CFI 511e4 .cfa: sp 80 +
STACK CFI 511f8 .cfa: sp 0 +
STACK CFI 511fc .cfa: x29 80 +
STACK CFI 512f0 .cfa: sp 80 +
STACK CFI 51304 .cfa: sp 0 +
STACK CFI 51308 .cfa: x29 80 +
STACK CFI 51350 .cfa: sp 80 +
STACK CFI 51364 .cfa: sp 0 +
STACK CFI 51368 .cfa: x29 80 +
STACK CFI INIT 51370 4c4 .cfa: sp 0 +
STACK CFI 51374 .cfa: sp 32 +
STACK CFI 5137c .cfa: x29 32 + x19: .cfa -16 + ^ .ra: .cfa -24 + ^ x29: .cfa -32 + ^
STACK CFI 513d0 .cfa: sp 32 +
STACK CFI 513d8 .cfa: sp 0 +
STACK CFI 513dc .cfa: x29 32 +
STACK CFI 5141c .cfa: sp 32 +
STACK CFI 51424 .cfa: sp 0 +
STACK CFI 51428 .cfa: x29 32 +
STACK CFI 51458 .cfa: sp 32 +
STACK CFI 51460 .cfa: sp 0 +
STACK CFI 51464 .cfa: x29 32 +
STACK CFI 51494 .cfa: sp 32 +
STACK CFI 5149c .cfa: sp 0 +
STACK CFI 514a0 .cfa: x29 32 +
STACK CFI 514b0 .cfa: sp 32 +
STACK CFI 514b8 .cfa: sp 0 +
STACK CFI 514bc .cfa: x29 32 +
STACK CFI 514dc .cfa: sp 32 +
STACK CFI 514e4 .cfa: sp 0 +
STACK CFI 514e8 .cfa: x29 32 +
STACK CFI 51508 .cfa: sp 32 +
STACK CFI 51510 .cfa: sp 0 +
STACK CFI 51514 .cfa: x29 32 +
STACK CFI 51534 .cfa: sp 32 +
STACK CFI 5153c .cfa: sp 0 +
STACK CFI 51540 .cfa: x29 32 +
STACK CFI 51560 .cfa: sp 32 +
STACK CFI 51568 .cfa: sp 0 +
STACK CFI 5156c .cfa: x29 32 +
STACK CFI 515f0 .cfa: sp 32 +
STACK CFI 515f8 .cfa: sp 0 +
STACK CFI 515fc .cfa: x29 32 +
STACK CFI 5160c .cfa: sp 32 +
STACK CFI 51614 .cfa: sp 0 +
STACK CFI 51618 .cfa: x29 32 +
STACK CFI 51628 .cfa: sp 32 +
STACK CFI 51630 .cfa: sp 0 +
STACK CFI 51634 .cfa: x29 32 +
STACK CFI 51644 .cfa: sp 32 +
STACK CFI 5164c .cfa: sp 0 +
STACK CFI 51650 .cfa: x29 32 +
STACK CFI 51660 .cfa: sp 32 +
STACK CFI 51668 .cfa: sp 0 +
STACK CFI 5166c .cfa: x29 32 +
STACK CFI 5167c .cfa: sp 32 +
STACK CFI 51684 .cfa: sp 0 +
STACK CFI 51688 .cfa: x29 32 +
STACK CFI 51698 .cfa: sp 32 +
STACK CFI 516a0 .cfa: sp 0 +
STACK CFI 516a4 .cfa: x29 32 +
STACK CFI 516b4 .cfa: sp 32 +
STACK CFI 516bc .cfa: sp 0 +
STACK CFI 516c0 .cfa: x29 32 +
STACK CFI 516e4 .cfa: sp 32 +
STACK CFI 516ec .cfa: sp 0 +
STACK CFI 516f0 .cfa: x29 32 +
STACK CFI 51708 .cfa: sp 32 +
STACK CFI 51710 .cfa: sp 0 +
STACK CFI 51714 .cfa: x29 32 +
STACK CFI 5172c .cfa: sp 32 +
STACK CFI 51734 .cfa: sp 0 +
STACK CFI 51738 .cfa: x29 32 +
STACK CFI 51750 .cfa: sp 32 +
STACK CFI 51758 .cfa: sp 0 +
STACK CFI 5175c .cfa: x29 32 +
STACK CFI 51774 .cfa: sp 32 +
STACK CFI 5177c .cfa: sp 0 +
STACK CFI 51780 .cfa: x29 32 +
STACK CFI 51798 .cfa: sp 32 +
STACK CFI 517a0 .cfa: sp 0 +
STACK CFI 517a4 .cfa: x29 32 +
STACK CFI 517bc .cfa: sp 32 +
STACK CFI 517c4 .cfa: sp 0 +
STACK CFI 517c8 .cfa: x29 32 +
STACK CFI 517e0 .cfa: sp 32 +
STACK CFI 517e8 .cfa: sp 0 +
STACK CFI 517ec .cfa: x29 32 +
STACK CFI 51804 .cfa: sp 32 +
STACK CFI 5180c .cfa: sp 0 +
STACK CFI 51810 .cfa: x29 32 +
STACK CFI 51824 .cfa: sp 32 +
STACK CFI 5182c .cfa: sp 0 +
STACK CFI 51830 .cfa: x29 32 +
STACK CFI INIT 51834 218 .cfa: sp 0 +
STACK CFI 51838 .cfa: sp 80 +
STACK CFI 5184c .cfa: x29 80 + x19: .cfa -8 + ^ x20: .cfa -16 + ^ x21: .cfa -24 + ^ x22: .cfa -32 + ^ x23: .cfa -40 + ^ x24: .cfa -48 + ^ x25: .cfa -64 + ^ .ra: .cfa -72 + ^ x29: .cfa -80 + ^
STACK CFI 51988 .cfa: sp 80 +
STACK CFI 5199c .cfa: sp 0 +
STACK CFI 519a0 .cfa: x29 80 +
STACK CFI 51a2c .cfa: sp 80 +
STACK CFI 51a40 .cfa: sp 0 +
STACK CFI 51a44 .cfa: x29 80 +
STACK CFI INIT 52010 1a8 .cfa: sp 0 +
STACK CFI 52014 .cfa: sp 64 +
STACK CFI 52024 .cfa: x29 64 + x19: .cfa -8 + ^ x20: .cfa -16 + ^ x21: .cfa -24 + ^ x22: .cfa -32 + ^ x23: .cfa -40 + ^ x24: .cfa -48 + ^ .ra: .cfa -56 + ^ x29: .cfa -64 + ^
STACK CFI 5219c .cfa: sp 64 +
STACK CFI 521ac .cfa: sp 0 +
STACK CFI 521b0 .cfa: x29 64 +
STACK CFI INIT 521b8 14 .cfa: sp 0 +
STACK CFI 521bc .cfa: sp 16 +
STACK CFI 521c0 .cfa: x29 16 + .ra: .cfa -8 + ^ x29: .cfa -16 + ^
STACK CFI INIT 521cc 14 .cfa: sp 0 +
STACK CFI 521d0 .cfa: sp 16 +
STACK CFI 521d4 .cfa: x29 16 + .ra: .cfa -8 + ^ x29: .cfa -16 + ^
STACK CFI INIT 521e0 48 .cfa: sp 0 +
STACK CFI 521fc .cfa: sp 32 +
STACK CFI 52204 .cfa: x29 32 + x19: .cfa -16 + ^ .ra: .cfa -24 + ^ x29: .cfa -32 + ^
STACK CFI 5221c .cfa: sp 32 +
STACK CFI 52224 .cfa: sp 0 +
STACK CFI INIT 52228 30 .cfa: sp 0 +
STACK CFI INIT 52258 48 .cfa: sp 0 +
STACK CFI 52274 .cfa: sp 32 +
STACK CFI 5227c .cfa: x29 32 + x19: .cfa -16 + ^ .ra: .cfa -24 + ^ x29: .cfa -32 + ^
STACK CFI 52294 .cfa: sp 32 +
STACK CFI 5229c .cfa: sp 0 +
STACK CFI INIT 522a0 38 .cfa: sp 0 +
STACK CFI INIT 524b0 68 .cfa: sp 0 +
STACK CFI 524b4 .cfa: sp 32 +
STACK CFI 524bc .cfa: x29 32 + x19: .cfa -16 + ^ .ra: .cfa -24 + ^ x29: .cfa -32 + ^
STACK CFI 5250c .cfa: sp 32 +
STACK CFI 52514 .cfa: sp 0 +
STACK CFI INIT 52518 1c4 .cfa: sp 0 +
STACK CFI INIT 526dc c4 .cfa: sp 0 +
STACK CFI INIT 527a0 68 .cfa: sp 0 +
STACK CFI 527a4 .cfa: sp 32 +
STACK CFI 527ac .cfa: x29 32 + x19: .cfa -16 + ^ .ra: .cfa -24 + ^ x29: .cfa -32 + ^
STACK CFI 527fc .cfa: sp 32 +
STACK CFI 52804 .cfa: sp 0 +
STACK CFI INIT 52808 4 .cfa: sp 0 +
STACK CFI INIT 5280c 14 .cfa: sp 0 +
STACK CFI INIT 52820 6c .cfa: sp 0 +
STACK CFI 52824 .cfa: sp 32 +
STACK CFI 5282c .cfa: x29 32 + x19: .cfa -16 + ^ .ra: .cfa -24 + ^ x29: .cfa -32 + ^
STACK CFI 52874 .cfa: sp 32 +
STACK CFI 5287c .cfa: sp 0 +
STACK CFI 52880 .cfa: sp 32 +
STACK CFI 52888 .cfa: sp 0 +
STACK CFI INIT 5288c 68 .cfa: sp 0 +
STACK CFI 52890 .cfa: sp 32 +
STACK CFI 52898 .cfa: x29 32 + x19: .cfa -16 + ^ .ra: .cfa -24 + ^ x29: .cfa -32 + ^
STACK CFI 528e8 .cfa: sp 32 +
STACK CFI 528f0 .cfa: sp 0 +
STACK CFI INIT 528f4 c .cfa: sp 0 +
STACK CFI INIT 52900 24 .cfa: sp 0 +
STACK CFI INIT 52924 4 .cfa: sp 0 +
STACK CFI INIT 52928 4 .cfa: sp 0 +
STACK CFI INIT 5292c 14 .cfa: sp 0 +
STACK CFI INIT 5298c 334 .cfa: sp 0 +
STACK CFI 52990 .cfa: sp 64 +
STACK CFI 529a0 .cfa: x29 64 + x19: .cfa -8 + ^ x20: .cfa -16 + ^ x21: .cfa -24 + ^ x22: .cfa -32 + ^ x23: .cfa -40 + ^ x24: .cfa -48 + ^ .ra: .cfa -56 + ^ x29: .cfa -64 + ^
STACK CFI 52a70 .cfa: sp 64 +
STACK CFI 52a80 .cfa: sp 0 +
STACK CFI 52a84 .cfa: x29 64 +
STACK CFI 52af4 .cfa: sp 64 +
STACK CFI 52b04 .cfa: sp 0 +
STACK CFI 52b08 .cfa: x29 64 +
STACK CFI 52b48 .cfa: sp 64 +
STACK CFI 52b58 .cfa: sp 0 +
STACK CFI 52b5c .cfa: x29 64 +
STACK CFI 52b6c .cfa: sp 64 +
STACK CFI 52b7c .cfa: sp 0 +
STACK CFI 52b80 .cfa: x29 64 +
STACK CFI 52bc0 .cfa: sp 64 +
STACK CFI 52bd0 .cfa: sp 0 +
STACK CFI 52bd4 .cfa: x29 64 +
STACK CFI 52ca4 .cfa: sp 64 +
STACK CFI 52cb4 .cfa: sp 0 +
STACK CFI 52cb8 .cfa: x29 64 +
STACK CFI INIT 52cc0 274 .cfa: sp 0 +
STACK CFI 52cc4 .cfa: sp 32 +
STACK CFI 52ccc .cfa: x29 32 + x19: .cfa -16 + ^ .ra: .cfa -24 + ^ x29: .cfa -32 + ^
STACK CFI 52d04 .cfa: sp 32 +
STACK CFI 52d0c .cfa: sp 0 +
STACK CFI 52d10 .cfa: x29 32 +
STACK CFI 52e5c .cfa: sp 32 +
STACK CFI 52e64 .cfa: sp 0 +
STACK CFI 52e68 .cfa: x29 32 +
STACK CFI 52ea4 .cfa: sp 32 +
STACK CFI 52eac .cfa: sp 0 +
STACK CFI 52eb0 .cfa: x29 32 +
STACK CFI 52f24 .cfa: sp 32 +
STACK CFI 52f2c .cfa: sp 0 +
STACK CFI 52f30 .cfa: x29 32 +
STACK CFI INIT 52f34 2c .cfa: sp 0 +
STACK CFI INIT 52f60 48 .cfa: sp 0 +
STACK CFI 52f7c .cfa: sp 32 +
STACK CFI 52f84 .cfa: x29 32 + x19: .cfa -16 + ^ .ra: .cfa -24 + ^ x29: .cfa -32 + ^
STACK CFI 52f9c .cfa: sp 32 +
STACK CFI 52fa4 .cfa: sp 0 +
STACK CFI INIT 52fa8 40 .cfa: sp 0 +
STACK CFI INIT 52fe8 60 .cfa: sp 0 +
STACK CFI 52fec .cfa: sp 16 +
STACK CFI 52ff0 .cfa: x29 16 + .ra: .cfa -8 + ^ x29: .cfa -16 + ^
STACK CFI 53030 .cfa: sp 16 +
STACK CFI 53034 .cfa: sp 0 +
STACK CFI 53038 .cfa: x29 16 +
STACK CFI 5303c .cfa: sp 16 +
STACK CFI 53040 .cfa: sp 0 +
STACK CFI 53044 .cfa: x29 16 +
STACK CFI INIT 53048 2fc .cfa: sp 0 +
STACK CFI 5304c .cfa: sp 80 +
STACK CFI 53060 .cfa: x29 80 + x19: .cfa -8 + ^ x20: .cfa -16 + ^ x21: .cfa -24 + ^ x22: .cfa -32 + ^ x23: .cfa -40 + ^ x24: .cfa -48 + ^ x25: .cfa -64 + ^ .ra: .cfa -72 + ^ x29: .cfa -80 + ^
STACK CFI 5330c .cfa: sp 80 +
STACK CFI 53320 .cfa: sp 0 +
STACK CFI 53324 .cfa: x29 80 +
STACK CFI 53328 .cfa: sp 80 +
STACK CFI 5333c .cfa: sp 0 +
STACK CFI 53340 .cfa: x29 80 +
STACK CFI INIT 53344 d0 .cfa: sp 0 +
STACK CFI 53348 .cfa: sp 32 +
STACK CFI 53350 .cfa: x29 32 + x19: .cfa -16 + ^ .ra: .cfa -24 + ^ x29: .cfa -32 + ^
STACK CFI 533bc .cfa: sp 32 +
STACK CFI 533c4 .cfa: sp 0 +
STACK CFI 533c8 .cfa: x29 32 +
STACK CFI 533e0 .cfa: sp 32 +
STACK CFI 533e8 .cfa: sp 0 +
STACK CFI 533ec .cfa: x29 32 +
STACK CFI 53408 .cfa: sp 32 +
STACK CFI 53410 .cfa: sp 0 +
STACK CFI INIT 54c5c 1c8 .cfa: sp 0 +
STACK CFI 54c60 .cfa: sp 80 +
STACK CFI 54c74 .cfa: x29 80 + x19: .cfa -8 + ^ x20: .cfa -16 + ^ x21: .cfa -24 + ^ x22: .cfa -32 + ^ x23: .cfa -40 + ^ x24: .cfa -48 + ^ x25: .cfa -64 + ^ .ra: .cfa -72 + ^ x29: .cfa -80 + ^
STACK CFI 54df4 .cfa: sp 80 +
STACK CFI 54e08 .cfa: sp 0 +
STACK CFI 54e0c .cfa: sp 80 +
STACK CFI 54e20 .cfa: sp 0 +
STACK CFI INIT 553fc 188 .cfa: sp 0 +
STACK CFI 55400 .cfa: sp 80 +
STACK CFI 55414 .cfa: x29 80 + x19: .cfa -8 + ^ x20: .cfa -16 + ^ x21: .cfa -24 + ^ x22: .cfa -32 + ^ x23: .cfa -40 + ^ x24: .cfa -48 + ^ x25: .cfa -64 + ^ .ra: .cfa -72 + ^ x29: .cfa -80 + ^
STACK CFI 55568 .cfa: sp 80 +
STACK CFI 5557c .cfa: sp 0 +
STACK CFI 55580 .cfa: x29 80 +
STACK CFI INIT 55584 18c .cfa: sp 0 +
STACK CFI 55588 .cfa: sp 64 +
STACK CFI 55598 .cfa: x29 64 + x19: .cfa -8 + ^ x20: .cfa -16 + ^ x21: .cfa -24 + ^ x22: .cfa -32 + ^ x23: .cfa -40 + ^ x24: .cfa -48 + ^ .ra: .cfa -56 + ^ x29: .cfa -64 + ^
STACK CFI 556f8 .cfa: sp 64 +
STACK CFI 55708 .cfa: sp 0 +
STACK CFI 5570c .cfa: x29 64 +
STACK CFI INIT 55710 18c .cfa: sp 0 +
STACK CFI 55714 .cfa: sp 64 +
STACK CFI 55724 .cfa: x29 64 + x19: .cfa -8 + ^ x20: .cfa -16 + ^ x21: .cfa -24 + ^ x22: .cfa -32 + ^ x23: .cfa -40 + ^ x24: .cfa -48 + ^ .ra: .cfa -56 + ^ x29: .cfa -64 + ^
STACK CFI 55884 .cfa: sp 64 +
STACK CFI 55894 .cfa: sp 0 +
STACK CFI 55898 .cfa: x29 64 +
STACK CFI INIT 5589c 60 .cfa: sp 0 +
STACK CFI 558a0 .cfa: sp 32 +
STACK CFI 558a8 .cfa: x29 32 + x19: .cfa -8 + ^ x20: .cfa -16 + ^ .ra: .cfa -24 + ^ x29: .cfa -32 + ^
STACK CFI 558c8 .cfa: sp 32 +
STACK CFI 558d0 .cfa: sp 0 +
STACK CFI 558d4 .cfa: x29 32 +
STACK CFI 558f0 .cfa: sp 32 +
STACK CFI 558f8 .cfa: sp 0 +
STACK CFI INIT 558fc 70 .cfa: sp 0 +
STACK CFI 55900 .cfa: sp 32 +
STACK CFI 55908 .cfa: x29 32 + x19: .cfa -8 + ^ x20: .cfa -16 + ^ .ra: .cfa -24 + ^ x29: .cfa -32 + ^
STACK CFI 55930 .cfa: sp 32 +
STACK CFI 55938 .cfa: sp 0 +
STACK CFI 5593c .cfa: x29 32 +
STACK CFI 55960 .cfa: sp 32 +
STACK CFI 55968 .cfa: sp 0 +
STACK CFI INIT 5596c 10 .cfa: sp 0 +
STACK CFI INIT 5597c 30 .cfa: sp 0 +
STACK CFI 55980 .cfa: sp 32 +
STACK CFI 55988 .cfa: x29 32 + x19: .cfa -16 + ^ .ra: .cfa -24 + ^ x29: .cfa -32 + ^
STACK CFI 559a0 .cfa: sp 32 +
STACK CFI 559a8 .cfa: sp 0 +
STACK CFI INIT 559ac 4 .cfa: sp 0 +
STACK CFI INIT 559b0 4 .cfa: sp 0 +
STACK CFI INIT 559d0 54 .cfa: sp 0 +
STACK CFI 559d4 .cfa: sp 32 +
STACK CFI 559dc .cfa: x29 32 + x19: .cfa -16 + ^ .ra: .cfa -24 + ^ x29: .cfa -32 + ^
STACK CFI 55a0c .cfa: sp 32 +
STACK CFI 55a14 .cfa: sp 0 +
STACK CFI 55a18 .cfa: sp 32 +
STACK CFI 55a20 .cfa: sp 0 +
STACK CFI INIT 55a24 50 .cfa: sp 0 +
STACK CFI 55a2c .cfa: sp 32 +
STACK CFI 55a34 .cfa: x29 32 + x19: .cfa -16 + ^ .ra: .cfa -24 + ^ x29: .cfa -32 + ^
STACK CFI 55a64 .cfa: sp 32 +
STACK CFI 55a6c .cfa: sp 0 +
STACK CFI INIT 57b08 dc .cfa: sp 0 +
STACK CFI 57b0c .cfa: sp 32 +
STACK CFI 57b14 .cfa: x29 32 + x19: .cfa -16 + ^ .ra: .cfa -24 + ^ x29: .cfa -32 + ^
STACK CFI 57bd8 .cfa: sp 32 +
STACK CFI 57be0 .cfa: sp 0 +
STACK CFI INIT 57be4 e4 .cfa: sp 0 +
STACK CFI 57be8 .cfa: sp 32 +
STACK CFI 57bf0 .cfa: x29 32 + x19: .cfa -16 + ^ .ra: .cfa -24 + ^ x29: .cfa -32 + ^
STACK CFI 57cbc .cfa: sp 32 +
STACK CFI 57cc4 .cfa: sp 0 +
STACK CFI INIT 57cc8 e0 .cfa: sp 0 +
STACK CFI 57ccc .cfa: sp 32 +
STACK CFI 57cd4 .cfa: x29 32 + x19: .cfa -8 + ^ x20: .cfa -16 + ^ .ra: .cfa -24 + ^ x29: .cfa -32 + ^
STACK CFI 57d9c .cfa: sp 32 +
STACK CFI 57da4 .cfa: sp 0 +
STACK CFI INIT 57da8 8 .cfa: sp 0 +
STACK CFI INIT 57db0 15c .cfa: sp 0 +
STACK CFI 57db4 .cfa: sp 48 +
STACK CFI 57dc0 .cfa: x29 48 + x19: .cfa -8 + ^ x20: .cfa -16 + ^ x21: .cfa -32 + ^ .ra: .cfa -40 + ^ x29: .cfa -48 + ^
STACK CFI 57e94 .cfa: sp 48 +
STACK CFI 57ea0 .cfa: sp 0 +
STACK CFI 57ea4 .cfa: x29 48 +
STACK CFI 57ee0 .cfa: sp 48 +
STACK CFI 57eec .cfa: sp 0 +
STACK CFI 57ef0 .cfa: x29 48 +
STACK CFI 57efc .cfa: sp 48 +
STACK CFI 57f08 .cfa: sp 0 +
STACK CFI INIT 57f80 1c .cfa: sp 0 +
STACK CFI INIT 582ac 18 .cfa: sp 0 +
STACK CFI INIT 586a8 24 .cfa: sp 0 +
STACK CFI 586ac .cfa: sp 32 +
STACK CFI 586b4 .cfa: x29 32 + x19: .cfa -16 + ^ .ra: .cfa -24 + ^ x29: .cfa -32 + ^
STACK CFI 586c0 .cfa: sp 32 +
STACK CFI 586c8 .cfa: sp 0 +
STACK CFI INIT 586cc 94 .cfa: sp 0 +
STACK CFI 586d0 .cfa: sp 48 +
STACK CFI 586dc .cfa: x29 32 + x19: .cfa -16 + ^ .ra: .cfa -24 + ^ x29: .cfa -32 + ^ v8: .cfa -40 + ^ v9: .cfa -48 + ^
STACK CFI 58740 .cfa: sp 48 +
STACK CFI 5874c .cfa: sp 0 +
STACK CFI 58750 .cfa: sp 48 +
STACK CFI 5875c .cfa: sp 0 +
STACK CFI INIT 58760 9c .cfa: sp 0 +
STACK CFI 58764 .cfa: sp 48 +
STACK CFI 58770 .cfa: x29 32 + x19: .cfa -8 + ^ x20: .cfa -16 + ^ .ra: .cfa -24 + ^ x29: .cfa -32 + ^ v8: .cfa -40 + ^ v9: .cfa -48 + ^
STACK CFI 587dc .cfa: sp 48 +
STACK CFI 587e8 .cfa: sp 0 +
STACK CFI 587ec .cfa: sp 48 +
STACK CFI 587f8 .cfa: sp 0 +
STACK CFI INIT 58870 4 .cfa: sp 0 +
STACK CFI INIT 58874 14 .cfa: sp 0 +
STACK CFI INIT 58888 4 .cfa: sp 0 +
STACK CFI INIT 5888c 14 .cfa: sp 0 +
STACK CFI INIT 588a0 20 .cfa: sp 0 +
STACK CFI INIT 588c0 40 .cfa: sp 0 +
STACK CFI 588d8 .cfa: sp 32 +
STACK CFI 588e0 .cfa: x29 32 + x19: .cfa -16 + ^ .ra: .cfa -24 + ^ x29: .cfa -32 + ^
STACK CFI 588f4 .cfa: sp 32 +
STACK CFI 588fc .cfa: sp 0 +
STACK CFI INIT 58988 40 .cfa: sp 0 +
STACK CFI INIT 589c8 14 .cfa: sp 0 +
STACK CFI INIT 589dc 34 .cfa: sp 0 +
STACK CFI 589e8 .cfa: sp 32 +
STACK CFI 589f0 .cfa: x29 32 + x19: .cfa -16 + ^ .ra: .cfa -24 + ^ x29: .cfa -32 + ^
STACK CFI 58a04 .cfa: sp 32 +
STACK CFI 58a0c .cfa: sp 0 +
STACK CFI INIT 58afc 1c .cfa: sp 0 +
STACK CFI INIT 58b18 c .cfa: sp 0 +
STACK CFI INIT 58b24 4 .cfa: sp 0 +
STACK CFI INIT 58b28 4 .cfa: sp 0 +
STACK CFI INIT 58b2c 34 .cfa: sp 0 +
STACK CFI 58b30 .cfa: sp 32 +
STACK CFI 58b38 .cfa: x29 32 + x19: .cfa -16 + ^ .ra: .cfa -24 + ^ x29: .cfa -32 + ^
STACK CFI 58b54 .cfa: sp 32 +
STACK CFI 58b5c .cfa: sp 0 +
STACK CFI INIT 58b60 14 .cfa: sp 0 +
STACK CFI INIT 58b74 4 .cfa: sp 0 +
STACK CFI INIT 58b78 4 .cfa: sp 0 +
STACK CFI INIT 58de8 1c .cfa: sp 0 +
STACK CFI INIT 58e04 c .cfa: sp 0 +
STACK CFI INIT 58e10 14 .cfa: sp 0 +
STACK CFI 58e14 .cfa: sp 16 +
STACK CFI 58e18 .cfa: x29 16 + .ra: .cfa -8 + ^ x29: .cfa -16 + ^
STACK CFI INIT 58e24 14 .cfa: sp 0 +
STACK CFI 58e28 .cfa: sp 16 +
STACK CFI 58e2c .cfa: x29 16 + .ra: .cfa -8 + ^ x29: .cfa -16 + ^
STACK CFI INIT 58e38 ac .cfa: sp 0 +
STACK CFI 58e3c .cfa: sp 32 +
STACK CFI 58e44 .cfa: x29 32 + x19: .cfa -8 + ^ x20: .cfa -16 + ^ .ra: .cfa -24 + ^ x29: .cfa -32 + ^
STACK CFI 58eb0 .cfa: sp 32 +
STACK CFI 58eb8 .cfa: sp 0 +
STACK CFI 58ebc .cfa: x29 32 +
STACK CFI 58ed8 .cfa: sp 32 +
STACK CFI 58ee0 .cfa: sp 0 +
STACK CFI INIT 58ee4 bc .cfa: sp 0 +
STACK CFI 58ee8 .cfa: sp 32 +
STACK CFI 58ef0 .cfa: x29 32 + x19: .cfa -8 + ^ x20: .cfa -16 + ^ .ra: .cfa -24 + ^ x29: .cfa -32 + ^
STACK CFI 58f64 .cfa: sp 32 +
STACK CFI 58f6c .cfa: sp 0 +
STACK CFI 58f70 .cfa: x29 32 +
STACK CFI 58f94 .cfa: sp 32 +
STACK CFI 58f9c .cfa: sp 0 +
STACK CFI INIT 590d8 4 .cfa: sp 0 +
STACK CFI INIT 590dc 4 .cfa: sp 0 +
STACK CFI INIT 590e0 8 .cfa: sp 0 +
STACK CFI INIT 590e8 8 .cfa: sp 0 +
STACK CFI INIT 590f0 b8 .cfa: sp 0 +
STACK CFI 590f4 .cfa: sp 32 +
STACK CFI 590fc .cfa: x29 32 + x19: .cfa -16 + ^ .ra: .cfa -24 + ^ x29: .cfa -32 + ^
STACK CFI 5911c .cfa: sp 32 +
STACK CFI 59124 .cfa: sp 0 +
STACK CFI 59128 .cfa: x29 32 +
STACK CFI 5913c .cfa: sp 32 +
STACK CFI 59144 .cfa: sp 0 +
STACK CFI 59148 .cfa: x29 32 +
STACK CFI 5917c .cfa: sp 32 +
STACK CFI 59184 .cfa: sp 0 +
STACK CFI 59188 .cfa: x29 32 +
STACK CFI 5919c .cfa: sp 32 +
STACK CFI 591a4 .cfa: sp 0 +
STACK CFI INIT 593d8 f4 .cfa: sp 0 +
STACK CFI 593dc .cfa: sp 48 +
STACK CFI 593e8 .cfa: x29 32 + x19: .cfa -8 + ^ x20: .cfa -16 + ^ .ra: .cfa -24 + ^ x29: .cfa -32 + ^ v8: .cfa -48 + ^
STACK CFI 594bc .cfa: sp 48 +
STACK CFI 594c8 .cfa: sp 0 +
STACK CFI INIT 597d0 14 .cfa: sp 0 +
STACK CFI 597d4 .cfa: sp 16 +
STACK CFI 597d8 .cfa: x29 16 + .ra: .cfa -8 + ^ x29: .cfa -16 + ^
STACK CFI INIT 597e4 4 .cfa: sp 0 +
STACK CFI INIT 599b4 a4 .cfa: sp 0 +
STACK CFI 599b8 .cfa: sp 32 +
STACK CFI 599c0 .cfa: x29 32 + x19: .cfa -8 + ^ x20: .cfa -16 + ^ .ra: .cfa -24 + ^ x29: .cfa -32 + ^
STACK CFI 59a4c .cfa: sp 32 +
STACK CFI 59a54 .cfa: sp 0 +
STACK CFI INIT 59a58 6c .cfa: sp 0 +
STACK CFI 59a5c .cfa: sp 32 +
STACK CFI 59a64 .cfa: x29 32 + x19: .cfa -8 + ^ x20: .cfa -16 + ^ .ra: .cfa -24 + ^ x29: .cfa -32 + ^
STACK CFI 59a90 .cfa: sp 32 +
STACK CFI 59a98 .cfa: sp 0 +
STACK CFI 59a9c .cfa: x29 32 +
STACK CFI 59ab8 .cfa: sp 32 +
STACK CFI 59ac0 .cfa: sp 0 +
STACK CFI INIT 59ac4 4 .cfa: sp 0 +
STACK CFI INIT 59ac8 128 .cfa: sp 0 +
STACK CFI 59acc .cfa: sp 64 +
STACK CFI 59adc .cfa: x29 64 + x19: .cfa -8 + ^ x20: .cfa -16 + ^ x21: .cfa -24 + ^ x22: .cfa -32 + ^ x23: .cfa -40 + ^ x24: .cfa -48 + ^ .ra: .cfa -56 + ^ x29: .cfa -64 + ^
STACK CFI 59bdc .cfa: sp 64 +
STACK CFI 59bec .cfa: sp 0 +
STACK CFI INIT 59bf0 34 .cfa: sp 0 +
STACK CFI 59bf4 .cfa: sp 16 +
STACK CFI 59bf8 .cfa: x29 16 + .ra: .cfa -8 + ^ x29: .cfa -16 + ^
STACK CFI INIT 5a198 10 .cfa: sp 0 +
STACK CFI INIT 5a1a8 30 .cfa: sp 0 +
STACK CFI 5a1ac .cfa: sp 32 +
STACK CFI 5a1b4 .cfa: x29 32 + x19: .cfa -16 + ^ .ra: .cfa -24 + ^ x29: .cfa -32 + ^
STACK CFI 5a1cc .cfa: sp 32 +
STACK CFI 5a1d4 .cfa: sp 0 +
STACK CFI INIT 5a1d8 c .cfa: sp 0 +
STACK CFI INIT 5a1e4 4 .cfa: sp 0 +
STACK CFI INIT 5a1e8 10 .cfa: sp 0 +
STACK CFI INIT 5a1f8 30 .cfa: sp 0 +
STACK CFI 5a1fc .cfa: sp 32 +
STACK CFI 5a204 .cfa: x29 32 + x19: .cfa -16 + ^ .ra: .cfa -24 + ^ x29: .cfa -32 + ^
STACK CFI 5a21c .cfa: sp 32 +
STACK CFI 5a224 .cfa: sp 0 +
STACK CFI INIT 5a228 ac .cfa: sp 0 +
STACK CFI 5a22c .cfa: sp 32 +
STACK CFI 5a234 .cfa: x29 32 + x19: .cfa -16 + ^ .ra: .cfa -24 + ^ x29: .cfa -32 + ^
STACK CFI 5a268 .cfa: sp 32 +
STACK CFI 5a270 .cfa: sp 0 +
STACK CFI 5a274 .cfa: x29 32 +
STACK CFI 5a2c8 .cfa: sp 32 +
STACK CFI 5a2d0 .cfa: sp 0 +
STACK CFI INIT 5a2d4 4 .cfa: sp 0 +
STACK CFI INIT 5a4c0 6c .cfa: sp 0 +
STACK CFI 5a4c4 .cfa: sp 32 +
STACK CFI 5a4cc .cfa: x29 32 + x19: .cfa -16 + ^ .ra: .cfa -24 + ^ x29: .cfa -32 + ^
STACK CFI 5a4f0 .cfa: sp 32 +
STACK CFI 5a4f8 .cfa: sp 0 +
STACK CFI 5a4fc .cfa: x29 32 +
STACK CFI 5a520 .cfa: sp 32 +
STACK CFI 5a528 .cfa: sp 0 +
STACK CFI INIT 5aecc 64 .cfa: sp 0 +
STACK CFI 5aed0 .cfa: sp 32 +
STACK CFI 5aed8 .cfa: x29 32 + x19: .cfa -16 + ^ .ra: .cfa -24 + ^ x29: .cfa -32 + ^
STACK CFI 5aef4 .cfa: sp 32 +
STACK CFI 5aefc .cfa: sp 0 +
STACK CFI 5af00 .cfa: x29 32 +
STACK CFI 5af24 .cfa: sp 32 +
STACK CFI 5af2c .cfa: sp 0 +
STACK CFI INIT 5af30 64 .cfa: sp 0 +
STACK CFI 5af34 .cfa: sp 32 +
STACK CFI 5af3c .cfa: x29 32 + x19: .cfa -16 + ^ .ra: .cfa -24 + ^ x29: .cfa -32 + ^
STACK CFI 5af58 .cfa: sp 32 +
STACK CFI 5af60 .cfa: sp 0 +
STACK CFI 5af64 .cfa: x29 32 +
STACK CFI 5af88 .cfa: sp 32 +
STACK CFI 5af90 .cfa: sp 0 +
STACK CFI INIT 5af94 14 .cfa: sp 0 +
STACK CFI INIT 5b184 4 .cfa: sp 0 +
STACK CFI INIT 5b188 14 .cfa: sp 0 +
STACK CFI INIT 5b19c 4 .cfa: sp 0 +
STACK CFI INIT 5b1a0 4 .cfa: sp 0 +
STACK CFI INIT 5b1a4 34 .cfa: sp 0 +
STACK CFI 5b1a8 .cfa: sp 32 +
STACK CFI 5b1b0 .cfa: x29 32 + x19: .cfa -16 + ^ .ra: .cfa -24 + ^ x29: .cfa -32 + ^
STACK CFI 5b1cc .cfa: sp 32 +
STACK CFI 5b1d4 .cfa: sp 0 +
STACK CFI INIT 5b1d8 14 .cfa: sp 0 +
STACK CFI INIT 5b1ec 4 .cfa: sp 0 +
STACK CFI INIT 5b1f0 4 .cfa: sp 0 +
STACK CFI INIT 5b1f4 14 .cfa: sp 0 +
STACK CFI INIT 5b208 1c .cfa: sp 0 +
STACK CFI INIT 5b224 c .cfa: sp 0 +
STACK CFI INIT 5b514 10 .cfa: sp 0 +
STACK CFI INIT 5b524 30 .cfa: sp 0 +
STACK CFI 5b528 .cfa: sp 32 +
STACK CFI 5b530 .cfa: x29 32 + x19: .cfa -16 + ^ .ra: .cfa -24 + ^ x29: .cfa -32 + ^
STACK CFI 5b548 .cfa: sp 32 +
STACK CFI 5b550 .cfa: sp 0 +
STACK CFI INIT 5b554 c .cfa: sp 0 +
STACK CFI INIT 5b560 4 .cfa: sp 0 +
STACK CFI INIT 5b9d0 4 .cfa: sp 0 +
STACK CFI INIT 5bb58 164 .cfa: sp 0 +
STACK CFI 5bb5c .cfa: sp 64 +
STACK CFI 5bb6c .cfa: x29 64 + x19: .cfa -8 + ^ x20: .cfa -16 + ^ x21: .cfa -24 + ^ x22: .cfa -32 + ^ x23: .cfa -48 + ^ .ra: .cfa -56 + ^ x29: .cfa -64 + ^
STACK CFI 5bc58 .cfa: sp 64 +
STACK CFI 5bc68 .cfa: sp 0 +
STACK CFI 5bc6c .cfa: x29 64 +
STACK CFI 5bca8 .cfa: sp 64 +
STACK CFI 5bcb8 .cfa: sp 0 +
STACK CFI INIT 5bcbc 1c4 .cfa: sp 0 +
STACK CFI 5bcc0 .cfa: sp 64 +
STACK CFI 5bcd0 .cfa: x29 64 + x19: .cfa -8 + ^ x20: .cfa -16 + ^ x21: .cfa -24 + ^ x22: .cfa -32 + ^ x23: .cfa -48 + ^ .ra: .cfa -56 + ^ x29: .cfa -64 + ^
STACK CFI 5bd20 .cfa: sp 64 +
STACK CFI 5bd30 .cfa: sp 0 +
STACK CFI 5bd34 .cfa: x29 64 +
STACK CFI 5be1c .cfa: sp 64 +
STACK CFI 5be2c .cfa: sp 0 +
STACK CFI 5be30 .cfa: x29 64 +
STACK CFI 5be6c .cfa: sp 64 +
STACK CFI 5be7c .cfa: sp 0 +
STACK CFI INIT 5c444 4 .cfa: sp 0 +
STACK CFI INIT 5c448 14 .cfa: sp 0 +
STACK CFI 5c44c .cfa: sp 16 +
STACK CFI 5c450 .cfa: x29 16 + .ra: .cfa -8 + ^ x29: .cfa -16 + ^
STACK CFI INIT 5c45c 14 .cfa: sp 0 +
STACK CFI 5c460 .cfa: sp 16 +
STACK CFI 5c464 .cfa: x29 16 + .ra: .cfa -8 + ^ x29: .cfa -16 + ^
STACK CFI INIT 5c470 14 .cfa: sp 0 +
STACK CFI 5c474 .cfa: sp 16 +
STACK CFI 5c478 .cfa: x29 16 + .ra: .cfa -8 + ^ x29: .cfa -16 + ^
STACK CFI INIT 5c484 14 .cfa: sp 0 +
STACK CFI 5c488 .cfa: sp 16 +
STACK CFI 5c48c .cfa: x29 16 + .ra: .cfa -8 + ^ x29: .cfa -16 + ^
STACK CFI INIT 5c498 4 .cfa: sp 0 +
STACK CFI INIT 5c49c 4 .cfa: sp 0 +
STACK CFI INIT 5c4a0 38 .cfa: sp 0 +
STACK CFI 5c4a4 .cfa: sp 32 +
STACK CFI 5c4ac .cfa: x29 32 + x19: .cfa -16 + ^ .ra: .cfa -24 + ^ x29: .cfa -32 + ^
STACK CFI 5c4cc .cfa: sp 32 +
STACK CFI 5c4d4 .cfa: sp 0 +
STACK CFI INIT 5c4d8 18 .cfa: sp 0 +
STACK CFI INIT 5c4f0 4 .cfa: sp 0 +
STACK CFI INIT 5c4f4 4 .cfa: sp 0 +
STACK CFI INIT 5c4f8 10 .cfa: sp 0 +
STACK CFI INIT 5c508 1c .cfa: sp 0 +
STACK CFI INIT 5c524 c .cfa: sp 0 +
STACK CFI INIT 5c734 50 .cfa: sp 0 +
STACK CFI 5c738 .cfa: sp 32 +
STACK CFI 5c740 .cfa: x29 32 + x19: .cfa -16 + ^ .ra: .cfa -24 + ^ x29: .cfa -32 + ^
STACK CFI 5c758 .cfa: sp 32 +
STACK CFI 5c760 .cfa: sp 0 +
STACK CFI 5c764 .cfa: x29 32 +
STACK CFI 5c778 .cfa: sp 32 +
STACK CFI 5c780 .cfa: sp 0 +
STACK CFI INIT 5c784 50 .cfa: sp 0 +
STACK CFI 5c788 .cfa: sp 32 +
STACK CFI 5c790 .cfa: x29 32 + x19: .cfa -16 + ^ .ra: .cfa -24 + ^ x29: .cfa -32 + ^
STACK CFI 5c7a8 .cfa: sp 32 +
STACK CFI 5c7b0 .cfa: sp 0 +
STACK CFI 5c7b4 .cfa: x29 32 +
STACK CFI 5c7c8 .cfa: sp 32 +
STACK CFI 5c7d0 .cfa: sp 0 +
STACK CFI INIT 5c7d4 5c .cfa: sp 0 +
STACK CFI 5c7d8 .cfa: sp 32 +
STACK CFI 5c7e0 .cfa: x29 32 + x19: .cfa -16 + ^ .ra: .cfa -24 + ^ x29: .cfa -32 + ^
STACK CFI 5c804 .cfa: sp 32 +
STACK CFI 5c80c .cfa: sp 0 +
STACK CFI 5c810 .cfa: x29 32 +
STACK CFI 5c824 .cfa: sp 32 +
STACK CFI 5c82c .cfa: sp 0 +
STACK CFI INIT 5c830 6c .cfa: sp 0 +
STACK CFI 5c834 .cfa: sp 32 +
STACK CFI 5c83c .cfa: x29 32 + x19: .cfa -8 + ^ x20: .cfa -16 + ^ .ra: .cfa -24 + ^ x29: .cfa -32 + ^
STACK CFI 5c868 .cfa: sp 32 +
STACK CFI 5c870 .cfa: sp 0 +
STACK CFI 5c874 .cfa: x29 32 +
STACK CFI 5c890 .cfa: sp 32 +
STACK CFI 5c898 .cfa: sp 0 +
STACK CFI INIT 5c89c 58 .cfa: sp 0 +
STACK CFI 5c8a0 .cfa: sp 32 +
STACK CFI 5c8a8 .cfa: x29 32 + x19: .cfa -8 + ^ x20: .cfa -16 + ^ .ra: .cfa -24 + ^ x29: .cfa -32 + ^
STACK CFI 5c8e8 .cfa: sp 32 +
STACK CFI 5c8f0 .cfa: sp 0 +
STACK CFI INIT 5c8f4 4c .cfa: sp 0 +
STACK CFI 5c8f8 .cfa: sp 32 +
STACK CFI 5c900 .cfa: x29 32 + x19: .cfa -8 + ^ x20: .cfa -16 + ^ .ra: .cfa -24 + ^ x29: .cfa -32 + ^
STACK CFI 5c934 .cfa: sp 32 +
STACK CFI 5c93c .cfa: sp 0 +
STACK CFI INIT 5c940 50 .cfa: sp 0 +
STACK CFI 5c944 .cfa: sp 32 +
STACK CFI 5c94c .cfa: x29 32 + x19: .cfa -16 + ^ .ra: .cfa -24 + ^ x29: .cfa -32 + ^
STACK CFI 5c964 .cfa: sp 32 +
STACK CFI 5c96c .cfa: sp 0 +
STACK CFI 5c970 .cfa: x29 32 +
STACK CFI 5c984 .cfa: sp 32 +
STACK CFI 5c98c .cfa: sp 0 +
STACK CFI INIT 5c990 60 .cfa: sp 0 +
STACK CFI 5c994 .cfa: sp 32 +
STACK CFI 5c99c .cfa: x29 32 + x19: .cfa -8 + ^ x20: .cfa -16 + ^ .ra: .cfa -24 + ^ x29: .cfa -32 + ^
STACK CFI 5c9bc .cfa: sp 32 +
STACK CFI 5c9c4 .cfa: sp 0 +
STACK CFI 5c9c8 .cfa: x29 32 +
STACK CFI 5c9e4 .cfa: sp 32 +
STACK CFI 5c9ec .cfa: sp 0 +
STACK CFI INIT 5cb88 1c .cfa: sp 0 +
STACK CFI INIT 5cba4 c .cfa: sp 0 +
STACK CFI INIT 5cbb0 60 .cfa: sp 0 +
STACK CFI 5cbb4 .cfa: sp 32 +
STACK CFI 5cbbc .cfa: x29 32 + x19: .cfa -8 + ^ x20: .cfa -16 + ^ .ra: .cfa -24 + ^ x29: .cfa -32 + ^
STACK CFI 5cbdc .cfa: sp 32 +
STACK CFI 5cbe4 .cfa: sp 0 +
STACK CFI 5cbe8 .cfa: x29 32 +
STACK CFI 5cc04 .cfa: sp 32 +
STACK CFI 5cc0c .cfa: sp 0 +
STACK CFI INIT 5cc10 70 .cfa: sp 0 +
STACK CFI 5cc14 .cfa: sp 32 +
STACK CFI 5cc1c .cfa: x29 32 + x19: .cfa -8 + ^ x20: .cfa -16 + ^ .ra: .cfa -24 + ^ x29: .cfa -32 + ^
STACK CFI 5cc44 .cfa: sp 32 +
STACK CFI 5cc4c .cfa: sp 0 +
STACK CFI 5cc50 .cfa: x29 32 +
STACK CFI 5cc74 .cfa: sp 32 +
STACK CFI 5cc7c .cfa: sp 0 +
STACK CFI INIT 5cc80 5c .cfa: sp 0 +
STACK CFI 5cc84 .cfa: sp 32 +
STACK CFI 5cc8c .cfa: x29 32 + x19: .cfa -16 + ^ .ra: .cfa -24 + ^ x29: .cfa -32 + ^
STACK CFI 5ccb0 .cfa: sp 32 +
STACK CFI 5ccb8 .cfa: sp 0 +
STACK CFI 5ccbc .cfa: x29 32 +
STACK CFI 5ccd0 .cfa: sp 32 +
STACK CFI 5ccd8 .cfa: sp 0 +
STACK CFI INIT 5ccdc 6c .cfa: sp 0 +
STACK CFI 5cce0 .cfa: sp 32 +
STACK CFI 5cce8 .cfa: x29 32 + x19: .cfa -8 + ^ x20: .cfa -16 + ^ .ra: .cfa -24 + ^ x29: .cfa -32 + ^
STACK CFI 5cd14 .cfa: sp 32 +
STACK CFI 5cd1c .cfa: sp 0 +
STACK CFI 5cd20 .cfa: x29 32 +
STACK CFI 5cd3c .cfa: sp 32 +
STACK CFI 5cd44 .cfa: sp 0 +
STACK CFI INIT 5cd48 58 .cfa: sp 0 +
STACK CFI 5cd4c .cfa: sp 32 +
STACK CFI 5cd54 .cfa: x29 32 + x19: .cfa -8 + ^ x20: .cfa -16 + ^ .ra: .cfa -24 + ^ x29: .cfa -32 + ^
STACK CFI 5cd94 .cfa: sp 32 +
STACK CFI 5cd9c .cfa: sp 0 +
STACK CFI INIT 5cda0 4c .cfa: sp 0 +
STACK CFI 5cda4 .cfa: sp 32 +
STACK CFI 5cdac .cfa: x29 32 + x19: .cfa -8 + ^ x20: .cfa -16 + ^ .ra: .cfa -24 + ^ x29: .cfa -32 + ^
STACK CFI 5cde0 .cfa: sp 32 +
STACK CFI 5cde8 .cfa: sp 0 +
STACK CFI INIT 5cdec 50 .cfa: sp 0 +
STACK CFI 5cdf0 .cfa: sp 32 +
STACK CFI 5cdf8 .cfa: x29 32 + x19: .cfa -16 + ^ .ra: .cfa -24 + ^ x29: .cfa -32 + ^
STACK CFI 5ce10 .cfa: sp 32 +
STACK CFI 5ce18 .cfa: sp 0 +
STACK CFI 5ce1c .cfa: x29 32 +
STACK CFI 5ce30 .cfa: sp 32 +
STACK CFI 5ce38 .cfa: sp 0 +
STACK CFI INIT 5ce3c 60 .cfa: sp 0 +
STACK CFI 5ce40 .cfa: sp 32 +
STACK CFI 5ce48 .cfa: x29 32 + x19: .cfa -8 + ^ x20: .cfa -16 + ^ .ra: .cfa -24 + ^ x29: .cfa -32 + ^
STACK CFI 5ce68 .cfa: sp 32 +
STACK CFI 5ce70 .cfa: sp 0 +
STACK CFI 5ce74 .cfa: x29 32 +
STACK CFI 5ce90 .cfa: sp 32 +
STACK CFI 5ce98 .cfa: sp 0 +
STACK CFI INIT 5d024 1c .cfa: sp 0 +
STACK CFI INIT 5d040 c .cfa: sp 0 +
STACK CFI INIT 5d340 4 .cfa: sp 0 +
STACK CFI INIT 5da74 9c .cfa: sp 0 +
STACK CFI INIT 5e1e0 80 .cfa: sp 0 +
STACK CFI 5e1e4 .cfa: sp 32 +
STACK CFI 5e1ec .cfa: x29 32 + x19: .cfa -8 + ^ x20: .cfa -16 + ^ .ra: .cfa -24 + ^ x29: .cfa -32 + ^
STACK CFI 5e214 .cfa: sp 32 +
STACK CFI 5e21c .cfa: sp 0 +
STACK CFI 5e220 .cfa: x29 32 +
STACK CFI 5e254 .cfa: sp 32 +
STACK CFI 5e25c .cfa: sp 0 +
STACK CFI INIT 5e260 3c .cfa: sp 0 +
STACK CFI 5e264 .cfa: sp 32 +
STACK CFI 5e26c .cfa: x29 32 + x19: .cfa -16 + ^ .ra: .cfa -24 + ^ x29: .cfa -32 + ^
STACK CFI 5e284 .cfa: sp 32 +
STACK CFI 5e28c .cfa: sp 0 +
STACK CFI 5e290 .cfa: sp 32 +
STACK CFI 5e298 .cfa: sp 0 +
STACK CFI INIT 5f124 e8 .cfa: sp 0 +
STACK CFI 5f128 .cfa: sp 32 +
STACK CFI 5f130 .cfa: x29 32 + x19: .cfa -8 + ^ x20: .cfa -16 + ^ .ra: .cfa -24 + ^ x29: .cfa -32 + ^
STACK CFI 5f170 .cfa: sp 32 +
STACK CFI 5f178 .cfa: sp 0 +
STACK CFI 5f17c .cfa: x29 32 +
STACK CFI 5f1b8 .cfa: sp 32 +
STACK CFI 5f1c0 .cfa: sp 0 +
STACK CFI 5f1c4 .cfa: x29 32 +
STACK CFI 5f1e4 .cfa: sp 32 +
STACK CFI 5f1ec .cfa: sp 0 +
STACK CFI 5f1f0 .cfa: x29 32 +
STACK CFI 5f200 .cfa: sp 32 +
STACK CFI 5f208 .cfa: sp 0 +
STACK CFI INIT 5f20c 50 .cfa: sp 0 +
STACK CFI 5f210 .cfa: sp 32 +
STACK CFI 5f218 .cfa: x29 32 + x19: .cfa -16 + ^ .ra: .cfa -24 + ^ x29: .cfa -32 + ^
STACK CFI 5f230 .cfa: sp 32 +
STACK CFI 5f238 .cfa: sp 0 +
STACK CFI 5f23c .cfa: x29 32 +
STACK CFI 5f250 .cfa: sp 32 +
STACK CFI 5f258 .cfa: sp 0 +
STACK CFI INIT 5f25c 4 .cfa: sp 0 +
STACK CFI INIT 5f260 24 .cfa: sp 0 +
STACK CFI 5f264 .cfa: sp 16 +
STACK CFI 5f268 .cfa: x29 16 + .ra: .cfa -8 + ^ x29: .cfa -16 + ^
STACK CFI 5f27c .cfa: sp 16 +
STACK CFI 5f280 .cfa: sp 0 +
STACK CFI INIT 5f284 10 .cfa: sp 0 +
STACK CFI INIT 5f294 4 .cfa: sp 0 +
STACK CFI INIT 5f298 4 .cfa: sp 0 +
STACK CFI INIT 5f29c 4 .cfa: sp 0 +
STACK CFI INIT 5f2a0 1c .cfa: sp 0 +
STACK CFI INIT 5f2bc c .cfa: sp 0 +
STACK CFI INIT 5f33c 4 .cfa: sp 0 +
STACK CFI INIT 5f340 14 .cfa: sp 0 +
STACK CFI INIT 5f354 4 .cfa: sp 0 +
STACK CFI INIT 5f358 24 .cfa: sp 0 +
STACK CFI 5f35c .cfa: sp 16 +
STACK CFI 5f360 .cfa: x29 16 + .ra: .cfa -8 + ^ x29: .cfa -16 + ^
STACK CFI 5f374 .cfa: sp 16 +
STACK CFI 5f378 .cfa: sp 0 +
STACK CFI INIT 5f37c 10 .cfa: sp 0 +
STACK CFI INIT 5f38c 4 .cfa: sp 0 +
STACK CFI INIT 5f390 4 .cfa: sp 0 +
STACK CFI INIT 5f464 1c .cfa: sp 0 +
STACK CFI INIT 5f480 c .cfa: sp 0 +
STACK CFI INIT 5f48c 4 .cfa: sp 0 +
STACK CFI INIT 5f490 4 .cfa: sp 0 +
STACK CFI INIT 5f494 38 .cfa: sp 0 +
STACK CFI 5f498 .cfa: sp 32 +
STACK CFI 5f4a0 .cfa: x29 32 + x19: .cfa -16 + ^ .ra: .cfa -24 + ^ x29: .cfa -32 + ^
STACK CFI 5f4c0 .cfa: sp 32 +
STACK CFI 5f4c8 .cfa: sp 0 +
STACK CFI INIT 5f4cc 18 .cfa: sp 0 +
STACK CFI INIT 5f4e4 4 .cfa: sp 0 +
STACK CFI INIT 5f4e8 4 .cfa: sp 0 +
STACK CFI INIT 5faa0 1c .cfa: sp 0 +
STACK CFI INIT 5fabc c .cfa: sp 0 +
STACK CFI INIT 5fac8 50 .cfa: sp 0 +
STACK CFI 5facc .cfa: sp 32 +
STACK CFI 5fad4 .cfa: x29 32 + x19: .cfa -16 + ^ .ra: .cfa -24 + ^ x29: .cfa -32 + ^
STACK CFI 5faec .cfa: sp 32 +
STACK CFI 5faf4 .cfa: sp 0 +
STACK CFI 5faf8 .cfa: x29 32 +
STACK CFI 5fb0c .cfa: sp 32 +
STACK CFI 5fb14 .cfa: sp 0 +
STACK CFI INIT 5fb18 50 .cfa: sp 0 +
STACK CFI 5fb1c .cfa: sp 32 +
STACK CFI 5fb24 .cfa: x29 32 + x19: .cfa -16 + ^ .ra: .cfa -24 + ^ x29: .cfa -32 + ^
STACK CFI 5fb3c .cfa: sp 32 +
STACK CFI 5fb44 .cfa: sp 0 +
STACK CFI 5fb48 .cfa: x29 32 +
STACK CFI 5fb5c .cfa: sp 32 +
STACK CFI 5fb64 .cfa: sp 0 +
STACK CFI INIT 5fb68 4 .cfa: sp 0 +
STACK CFI INIT 5fb6c 24 .cfa: sp 0 +
STACK CFI 5fb70 .cfa: sp 16 +
STACK CFI 5fb74 .cfa: x29 16 + .ra: .cfa -8 + ^ x29: .cfa -16 + ^
STACK CFI 5fb88 .cfa: sp 16 +
STACK CFI 5fb8c .cfa: sp 0 +
STACK CFI INIT 5fb90 10 .cfa: sp 0 +
STACK CFI INIT 5fba0 4 .cfa: sp 0 +
STACK CFI INIT 5fba4 4 .cfa: sp 0 +
STACK CFI INIT 5fc6c 1c .cfa: sp 0 +
STACK CFI INIT 5fc88 c .cfa: sp 0 +
STACK CFI INIT 5fc94 10 .cfa: sp 0 +
STACK CFI INIT 5fca4 30 .cfa: sp 0 +
STACK CFI 5fca8 .cfa: sp 32 +
STACK CFI 5fcb0 .cfa: x29 32 + x19: .cfa -16 + ^ .ra: .cfa -24 + ^ x29: .cfa -32 + ^
STACK CFI 5fcc8 .cfa: sp 32 +
STACK CFI 5fcd0 .cfa: sp 0 +
STACK CFI INIT 5fcd4 4 .cfa: sp 0 +
STACK CFI INIT 5fcd8 4 .cfa: sp 0 +
STACK CFI INIT 602f0 80 .cfa: sp 0 +
STACK CFI 602f4 .cfa: sp 32 +
STACK CFI 602fc .cfa: x29 32 + x19: .cfa -8 + ^ x20: .cfa -16 + ^ .ra: .cfa -24 + ^ x29: .cfa -32 + ^
STACK CFI 60358 .cfa: sp 32 +
STACK CFI 60360 .cfa: sp 0 +
STACK CFI 60364 .cfa: sp 32 +
STACK CFI 6036c .cfa: sp 0 +
STACK CFI INIT 603e4 4 .cfa: sp 0 +
STACK CFI INIT 603e8 24 .cfa: sp 0 +
STACK CFI 603ec .cfa: sp 16 +
STACK CFI 603f0 .cfa: x29 16 + .ra: .cfa -8 + ^ x29: .cfa -16 + ^
STACK CFI 60404 .cfa: sp 16 +
STACK CFI 60408 .cfa: sp 0 +
STACK CFI INIT 6040c 10 .cfa: sp 0 +
STACK CFI INIT 6041c 4 .cfa: sp 0 +
STACK CFI INIT 60420 4 .cfa: sp 0 +
STACK CFI INIT 60d18 1c .cfa: sp 0 +
STACK CFI INIT 60d34 c .cfa: sp 0 +
STACK CFI INIT 60d40 4 .cfa: sp 0 +
STACK CFI INIT 60d44 24 .cfa: sp 0 +
STACK CFI 60d48 .cfa: sp 16 +
STACK CFI 60d4c .cfa: x29 16 + .ra: .cfa -8 + ^ x29: .cfa -16 + ^
STACK CFI 60d60 .cfa: sp 16 +
STACK CFI 60d64 .cfa: sp 0 +
STACK CFI INIT 60d68 10 .cfa: sp 0 +
STACK CFI INIT 60d78 4 .cfa: sp 0 +
STACK CFI INIT 60d7c 4 .cfa: sp 0 +
STACK CFI INIT 60d80 4 .cfa: sp 0 +
STACK CFI INIT 60d84 1c .cfa: sp 0 +
STACK CFI INIT 60da0 c .cfa: sp 0 +
STACK CFI INIT 60dac 8 .cfa: sp 0 +
STACK CFI INIT 60db4 14 .cfa: sp 0 +
STACK CFI INIT 60dc8 4 .cfa: sp 0 +
STACK CFI INIT 60dcc 24 .cfa: sp 0 +
STACK CFI 60dd0 .cfa: sp 16 +
STACK CFI 60dd4 .cfa: x29 16 + .ra: .cfa -8 + ^ x29: .cfa -16 + ^
STACK CFI 60de8 .cfa: sp 16 +
STACK CFI 60dec .cfa: sp 0 +
STACK CFI INIT 60df0 10 .cfa: sp 0 +
STACK CFI INIT 60e00 4 .cfa: sp 0 +
STACK CFI INIT 60e04 4 .cfa: sp 0 +
STACK CFI INIT 60ecc 1c .cfa: sp 0 +
STACK CFI INIT 60ee8 c .cfa: sp 0 +
STACK CFI INIT 60ef4 4 .cfa: sp 0 +
STACK CFI INIT 60ef8 24 .cfa: sp 0 +
STACK CFI 60efc .cfa: sp 16 +
STACK CFI 60f00 .cfa: x29 16 + .ra: .cfa -8 + ^ x29: .cfa -16 + ^
STACK CFI 60f14 .cfa: sp 16 +
STACK CFI 60f18 .cfa: sp 0 +
STACK CFI INIT 60f1c 10 .cfa: sp 0 +
STACK CFI INIT 60f2c 4 .cfa: sp 0 +
STACK CFI INIT 60f30 4 .cfa: sp 0 +
STACK CFI INIT 60ff8 1c .cfa: sp 0 +
STACK CFI INIT 61014 c .cfa: sp 0 +
STACK CFI INIT 61020 4 .cfa: sp 0 +
STACK CFI INIT 61024 4 .cfa: sp 0 +
STACK CFI INIT 61028 34 .cfa: sp 0 +
STACK CFI 6102c .cfa: sp 32 +
STACK CFI 61034 .cfa: x29 32 + x19: .cfa -16 + ^ .ra: .cfa -24 + ^ x29: .cfa -32 + ^
STACK CFI 61050 .cfa: sp 32 +
STACK CFI 61058 .cfa: sp 0 +
STACK CFI INIT 6105c 14 .cfa: sp 0 +
STACK CFI INIT 61070 4 .cfa: sp 0 +
STACK CFI INIT 61074 4 .cfa: sp 0 +
STACK CFI INIT 61078 18 .cfa: sp 0 +
STACK CFI INIT 61090 1c .cfa: sp 0 +
STACK CFI INIT 610ac c .cfa: sp 0 +
STACK CFI INIT 611b0 50 .cfa: sp 0 +
STACK CFI 611b4 .cfa: sp 32 +
STACK CFI 611bc .cfa: x29 32 + x19: .cfa -16 + ^ .ra: .cfa -24 + ^ x29: .cfa -32 + ^
STACK CFI 611d4 .cfa: sp 32 +
STACK CFI 611dc .cfa: sp 0 +
STACK CFI 611e0 .cfa: x29 32 +
STACK CFI 611f4 .cfa: sp 32 +
STACK CFI 611fc .cfa: sp 0 +
STACK CFI INIT 61200 4 .cfa: sp 0 +
STACK CFI INIT 61204 38 .cfa: sp 0 +
STACK CFI 61208 .cfa: sp 32 +
STACK CFI 61210 .cfa: x29 32 + x19: .cfa -16 + ^ .ra: .cfa -24 + ^ x29: .cfa -32 + ^
STACK CFI 61230 .cfa: sp 32 +
STACK CFI 61238 .cfa: sp 0 +
STACK CFI INIT 6123c 18 .cfa: sp 0 +
STACK CFI INIT 61254 4 .cfa: sp 0 +
STACK CFI INIT 61258 4 .cfa: sp 0 +
STACK CFI INIT 61404 1c .cfa: sp 0 +
STACK CFI INIT 61420 c .cfa: sp 0 +
STACK CFI INIT 6142c 4 .cfa: sp 0 +
STACK CFI INIT 615a4 9c .cfa: sp 0 +
STACK CFI 615a8 .cfa: sp 32 +
STACK CFI 615b0 .cfa: x29 32 + x19: .cfa -8 + ^ x20: .cfa -16 + ^ .ra: .cfa -24 + ^ x29: .cfa -32 + ^
STACK CFI 61634 .cfa: sp 32 +
STACK CFI 6163c .cfa: sp 0 +
STACK CFI INIT 61640 a4 .cfa: sp 0 +
STACK CFI 61644 .cfa: sp 32 +
STACK CFI 6164c .cfa: x29 32 + x19: .cfa -8 + ^ x20: .cfa -16 + ^ .ra: .cfa -24 + ^ x29: .cfa -32 + ^
STACK CFI 616d8 .cfa: sp 32 +
STACK CFI 616e0 .cfa: sp 0 +
STACK CFI INIT 616e4 4 .cfa: sp 0 +
STACK CFI INIT 616e8 4 .cfa: sp 0 +
STACK CFI INIT 616ec 38 .cfa: sp 0 +
STACK CFI 616f0 .cfa: sp 32 +
STACK CFI 616f8 .cfa: x29 32 + x19: .cfa -16 + ^ .ra: .cfa -24 + ^ x29: .cfa -32 + ^
STACK CFI 61718 .cfa: sp 32 +
STACK CFI 61720 .cfa: sp 0 +
STACK CFI INIT 61724 18 .cfa: sp 0 +
STACK CFI INIT 6173c 4 .cfa: sp 0 +
STACK CFI INIT 61740 4 .cfa: sp 0 +
STACK CFI INIT 618ec 1c .cfa: sp 0 +
STACK CFI INIT 61908 c .cfa: sp 0 +
STACK CFI INIT 61914 4 .cfa: sp 0 +
STACK CFI INIT 61a8c 5c .cfa: sp 0 +
STACK CFI 61a90 .cfa: sp 32 +
STACK CFI 61a98 .cfa: x29 32 + x19: .cfa -16 + ^ .ra: .cfa -24 + ^ x29: .cfa -32 + ^
STACK CFI 61adc .cfa: sp 32 +
STACK CFI 61ae4 .cfa: sp 0 +
STACK CFI INIT 61ae8 64 .cfa: sp 0 +
STACK CFI 61aec .cfa: sp 32 +
STACK CFI 61af4 .cfa: x29 32 + x19: .cfa -16 + ^ .ra: .cfa -24 + ^ x29: .cfa -32 + ^
STACK CFI 61b40 .cfa: sp 32 +
STACK CFI 61b48 .cfa: sp 0 +
STACK CFI INIT 61b4c 4 .cfa: sp 0 +
STACK CFI INIT 61b50 4 .cfa: sp 0 +
STACK CFI INIT 61b54 34 .cfa: sp 0 +
STACK CFI 61b58 .cfa: sp 32 +
STACK CFI 61b60 .cfa: x29 32 + x19: .cfa -16 + ^ .ra: .cfa -24 + ^ x29: .cfa -32 + ^
STACK CFI 61b7c .cfa: sp 32 +
STACK CFI 61b84 .cfa: sp 0 +
STACK CFI INIT 61b88 14 .cfa: sp 0 +
STACK CFI INIT 61b9c 4 .cfa: sp 0 +
STACK CFI INIT 61ba0 4 .cfa: sp 0 +
STACK CFI INIT 61ba4 10 .cfa: sp 0 +
STACK CFI INIT 61bb4 1c .cfa: sp 0 +
STACK CFI INIT 61bd0 c .cfa: sp 0 +
STACK CFI INIT 61bdc 3c .cfa: sp 0 +
STACK CFI 61be0 .cfa: sp 32 +
STACK CFI 61be8 .cfa: x29 32 + x19: .cfa -16 + ^ .ra: .cfa -24 + ^ x29: .cfa -32 + ^
STACK CFI 61bfc .cfa: sp 32 +
STACK CFI 61c04 .cfa: sp 0 +
STACK CFI 61c08 .cfa: x29 32 +
STACK CFI 61c0c .cfa: sp 32 +
STACK CFI 61c14 .cfa: sp 0 +
STACK CFI INIT 61c18 68 .cfa: sp 0 +
STACK CFI 61c1c .cfa: sp 48 +
STACK CFI 61c28 .cfa: x29 48 + x19: .cfa -8 + ^ x20: .cfa -16 + ^ x21: .cfa -32 + ^ .ra: .cfa -40 + ^ x29: .cfa -48 + ^
STACK CFI 61c60 .cfa: sp 48 +
STACK CFI 61c6c .cfa: sp 0 +
STACK CFI 61c70 .cfa: sp 48 +
STACK CFI 61c7c .cfa: sp 0 +
STACK CFI INIT 61c80 54 .cfa: sp 0 +
STACK CFI 61c84 .cfa: sp 32 +
STACK CFI 61c8c .cfa: x29 32 + x19: .cfa -8 + ^ x20: .cfa -16 + ^ .ra: .cfa -24 + ^ x29: .cfa -32 + ^
STACK CFI 61cbc .cfa: sp 32 +
STACK CFI 61cc4 .cfa: sp 0 +
STACK CFI 61cc8 .cfa: sp 32 +
STACK CFI 61cd0 .cfa: sp 0 +
STACK CFI INIT 61cd4 14 .cfa: sp 0 +
STACK CFI 61cd8 .cfa: sp 16 +
STACK CFI 61cdc .cfa: x29 16 + .ra: .cfa -8 + ^ x29: .cfa -16 + ^
STACK CFI INIT 61ce8 3c .cfa: sp 0 +
STACK CFI 61cec .cfa: sp 32 +
STACK CFI 61cf4 .cfa: x29 32 + x19: .cfa -16 + ^ .ra: .cfa -24 + ^ x29: .cfa -32 + ^
STACK CFI 61d00 .cfa: sp 32 +
STACK CFI 61d08 .cfa: sp 0 +
STACK CFI 61d0c .cfa: x29 32 +
STACK CFI 61d18 .cfa: sp 32 +
STACK CFI 61d20 .cfa: sp 0 +
STACK CFI INIT 61d24 3c .cfa: sp 0 +
STACK CFI 61d28 .cfa: sp 32 +
STACK CFI 61d30 .cfa: x29 32 + x19: .cfa -16 + ^ .ra: .cfa -24 + ^ x29: .cfa -32 + ^
STACK CFI 61d3c .cfa: sp 32 +
STACK CFI 61d44 .cfa: sp 0 +
STACK CFI 61d48 .cfa: x29 32 +
STACK CFI 61d54 .cfa: sp 32 +
STACK CFI 61d5c .cfa: sp 0 +
STACK CFI INIT 61d60 4c .cfa: sp 0 +
STACK CFI 61d64 .cfa: sp 32 +
STACK CFI 61d6c .cfa: x29 32 + x19: .cfa -8 + ^ x20: .cfa -16 + ^ .ra: .cfa -24 + ^ x29: .cfa -32 + ^
STACK CFI 61d94 .cfa: sp 32 +
STACK CFI 61d9c .cfa: sp 0 +
STACK CFI 61da0 .cfa: sp 32 +
STACK CFI 61da8 .cfa: sp 0 +
STACK CFI INIT 61fcc 64 .cfa: sp 0 +
STACK CFI 61fd0 .cfa: sp 32 +
STACK CFI 61fd8 .cfa: x29 32 + x19: .cfa -16 + ^ .ra: .cfa -24 + ^ x29: .cfa -32 + ^
STACK CFI 62004 .cfa: sp 32 +
STACK CFI 6200c .cfa: sp 0 +
STACK CFI 62010 .cfa: x29 32 +
STACK CFI 62024 .cfa: sp 32 +
STACK CFI 6202c .cfa: sp 0 +
STACK CFI INIT 62030 24 .cfa: sp 0 +
STACK CFI 62034 .cfa: sp 32 +
STACK CFI 6203c .cfa: x29 32 + x19: .cfa -16 + ^ .ra: .cfa -24 + ^ x29: .cfa -32 + ^
STACK CFI 62048 .cfa: sp 32 +
STACK CFI 62050 .cfa: sp 0 +
STACK CFI INIT 622b0 24 .cfa: sp 0 +
STACK CFI 622b4 .cfa: sp 32 +
STACK CFI 622bc .cfa: x29 32 + x19: .cfa -16 + ^ .ra: .cfa -24 + ^ x29: .cfa -32 + ^
STACK CFI 622c8 .cfa: sp 32 +
STACK CFI 622d0 .cfa: sp 0 +
STACK CFI INIT 622d4 8 .cfa: sp 0 +
STACK CFI INIT 622dc 24 .cfa: sp 0 +
STACK CFI 622e0 .cfa: sp 32 +
STACK CFI 622e8 .cfa: x29 32 + x19: .cfa -16 + ^ .ra: .cfa -24 + ^ x29: .cfa -32 + ^
STACK CFI 622f4 .cfa: sp 32 +
STACK CFI 622fc .cfa: sp 0 +
STACK CFI INIT 62300 28 .cfa: sp 0 +
STACK CFI 62304 .cfa: sp 32 +
STACK CFI 6230c .cfa: x29 32 + x19: .cfa -16 + ^ .ra: .cfa -24 + ^ x29: .cfa -32 + ^
STACK CFI 6231c .cfa: sp 32 +
STACK CFI 62324 .cfa: sp 0 +
STACK CFI INIT 62628 8 .cfa: sp 0 +
STACK CFI INIT 62630 24 .cfa: sp 0 +
STACK CFI 62634 .cfa: sp 32 +
STACK CFI 6263c .cfa: x29 32 + x19: .cfa -16 + ^ .ra: .cfa -24 + ^ x29: .cfa -32 + ^
STACK CFI 62648 .cfa: sp 32 +
STACK CFI 62650 .cfa: sp 0 +
STACK CFI INIT 62654 28 .cfa: sp 0 +
STACK CFI 62658 .cfa: sp 32 +
STACK CFI 62660 .cfa: x29 32 + x19: .cfa -16 + ^ .ra: .cfa -24 + ^ x29: .cfa -32 + ^
STACK CFI 62670 .cfa: sp 32 +
STACK CFI 62678 .cfa: sp 0 +
STACK CFI INIT 628e0 8 .cfa: sp 0 +
STACK CFI INIT 628e8 24 .cfa: sp 0 +
STACK CFI 628ec .cfa: sp 32 +
STACK CFI 628f4 .cfa: x29 32 + x19: .cfa -16 + ^ .ra: .cfa -24 + ^ x29: .cfa -32 + ^
STACK CFI 62900 .cfa: sp 32 +
STACK CFI 62908 .cfa: sp 0 +
STACK CFI INIT 6290c 28 .cfa: sp 0 +
STACK CFI 62910 .cfa: sp 32 +
STACK CFI 62918 .cfa: x29 32 + x19: .cfa -16 + ^ .ra: .cfa -24 + ^ x29: .cfa -32 + ^
STACK CFI 62928 .cfa: sp 32 +
STACK CFI 62930 .cfa: sp 0 +
STACK CFI INIT 62bec 24 .cfa: sp 0 +
STACK CFI 62bf0 .cfa: sp 32 +
STACK CFI 62bf8 .cfa: x29 32 + x19: .cfa -16 + ^ .ra: .cfa -24 + ^ x29: .cfa -32 + ^
STACK CFI 62c04 .cfa: sp 32 +
STACK CFI 62c0c .cfa: sp 0 +
STACK CFI INIT 62ec8 24 .cfa: sp 0 +
STACK CFI 62ecc .cfa: sp 32 +
STACK CFI 62ed4 .cfa: x29 32 + x19: .cfa -16 + ^ .ra: .cfa -24 + ^ x29: .cfa -32 + ^
STACK CFI 62ee0 .cfa: sp 32 +
STACK CFI 62ee8 .cfa: sp 0 +
STACK CFI INIT 62eec 9c .cfa: sp 0 +
STACK CFI 62ef0 .cfa: sp 32 +
STACK CFI 62ef8 .cfa: x29 32 + x19: .cfa -16 + ^ .ra: .cfa -24 + ^ x29: .cfa -32 + ^
STACK CFI 62f7c .cfa: sp 32 +
STACK CFI 62f84 .cfa: sp 0 +
STACK CFI INIT 62f88 8 .cfa: sp 0 +
STACK CFI INIT 62f90 24 .cfa: sp 0 +
STACK CFI 62f94 .cfa: sp 32 +
STACK CFI 62f9c .cfa: x29 32 + x19: .cfa -16 + ^ .ra: .cfa -24 + ^ x29: .cfa -32 + ^
STACK CFI 62fa8 .cfa: sp 32 +
STACK CFI 62fb0 .cfa: sp 0 +
STACK CFI INIT 62fb4 28 .cfa: sp 0 +
STACK CFI 62fb8 .cfa: sp 32 +
STACK CFI 62fc0 .cfa: x29 32 + x19: .cfa -16 + ^ .ra: .cfa -24 + ^ x29: .cfa -32 + ^
STACK CFI 62fd0 .cfa: sp 32 +
STACK CFI 62fd8 .cfa: sp 0 +
STACK CFI INIT 633a4 20 .cfa: sp 0 +
STACK CFI INIT 633c4 14 .cfa: sp 0 +
STACK CFI INIT 633d8 d4 .cfa: sp 0 +
STACK CFI 633dc .cfa: sp 80 +
STACK CFI 633f0 .cfa: x29 40 + x19: .cfa -8 + ^ x20: .cfa -16 + ^ x21: .cfa -24 + ^ .ra: .cfa -32 + ^ x29: .cfa -40 + ^ v8: .cfa -48 + ^
STACK CFI 63490 .cfa: sp 80 +
STACK CFI 634a4 .cfa: sp 0 +
STACK CFI 634a8 .cfa: x29 40 +
STACK CFI INIT 634ac 18 .cfa: sp 0 +
STACK CFI 634b0 .cfa: sp 16 +
STACK CFI 634b4 .cfa: x29 16 + .ra: .cfa -8 + ^ x29: .cfa -16 + ^
STACK CFI 634bc .cfa: sp 16 +
STACK CFI 634c0 .cfa: sp 0 +
STACK CFI INIT 634c4 18 .cfa: sp 0 +
STACK CFI 634c8 .cfa: sp 16 +
STACK CFI 634cc .cfa: x29 16 + .ra: .cfa -8 + ^ x29: .cfa -16 + ^
STACK CFI 634d4 .cfa: sp 16 +
STACK CFI 634d8 .cfa: sp 0 +
STACK CFI INIT 634dc 18 .cfa: sp 0 +
STACK CFI 634e0 .cfa: sp 16 +
STACK CFI 634e4 .cfa: x29 16 + .ra: .cfa -8 + ^ x29: .cfa -16 + ^
STACK CFI 634ec .cfa: sp 16 +
STACK CFI 634f0 .cfa: sp 0 +
STACK CFI INIT 634f4 4 .cfa: sp 0 +
STACK CFI INIT 649d0 4 .cfa: sp 0 +
STACK CFI INIT 649d4 14 .cfa: sp 0 +
STACK CFI INIT 64ef4 c .cfa: sp 0 +
STACK CFI INIT 64f00 24c .cfa: sp 0 +
STACK CFI INIT 6514c a0 .cfa: sp 0 +
STACK CFI 65158 .cfa: sp 32 +
STACK CFI 651b0 .cfa: sp 0 +
STACK CFI 651b4 .cfa: sp 32 +
STACK CFI 651bc .cfa: sp 0 +
STACK CFI 651c0 .cfa: sp 32 +
STACK CFI 651d4 .cfa: sp 0 +
STACK CFI 651d8 .cfa: sp 32 +
STACK CFI 651e8 .cfa: sp 0 +
STACK CFI INIT 651ec 38 .cfa: sp 0 +
STACK CFI 651f8 .cfa: sp 32 +
STACK CFI 65220 .cfa: sp 0 +
STACK CFI INIT 654b8 7c .cfa: sp 0 +
STACK CFI 654bc .cfa: sp 32 +
STACK CFI 654c4 .cfa: x29 32 + x19: .cfa -16 + ^ .ra: .cfa -24 + ^ x29: .cfa -32 + ^
STACK CFI 654f0 .cfa: sp 32 +
STACK CFI 654f8 .cfa: sp 0 +
STACK CFI 654fc .cfa: x29 32 +
STACK CFI 65528 .cfa: sp 32 +
STACK CFI 65530 .cfa: sp 0 +
STACK CFI INIT 65584 2c .cfa: sp 0 +
STACK CFI 65588 .cfa: sp 32 +
STACK CFI 65590 .cfa: x29 32 + x19: .cfa -16 + ^ .ra: .cfa -24 + ^ x29: .cfa -32 + ^
STACK CFI 655a4 .cfa: sp 32 +
STACK CFI 655ac .cfa: sp 0 +
STACK CFI INIT 65d70 64 .cfa: sp 0 +
STACK CFI 65d74 .cfa: sp 32 +
STACK CFI 65d7c .cfa: x29 32 + x19: .cfa -16 + ^ .ra: .cfa -24 + ^ x29: .cfa -32 + ^
STACK CFI 65d98 .cfa: sp 32 +
STACK CFI 65da0 .cfa: sp 0 +
STACK CFI 65da4 .cfa: x29 32 +
STACK CFI 65dc8 .cfa: sp 32 +
STACK CFI 65dd0 .cfa: sp 0 +
STACK CFI INIT 65f20 570 .cfa: sp 0 +
STACK CFI 65f24 .cfa: sp 176 +
STACK CFI 65f38 .cfa: x29 64 + x19: .cfa -8 + ^ x20: .cfa -16 + ^ x21: .cfa -24 + ^ x22: .cfa -32 + ^ x23: .cfa -40 + ^ x24: .cfa -48 + ^ .ra: .cfa -56 + ^ x29: .cfa -64 + ^
STACK CFI 66168 .cfa: sp 176 +
STACK CFI 6617c .cfa: sp 0 +
STACK CFI 66180 .cfa: x29 64 +
STACK CFI 661cc .cfa: sp 176 +
STACK CFI 661e0 .cfa: sp 0 +
STACK CFI 661e4 .cfa: x29 64 +
STACK CFI 6621c .cfa: sp 176 +
STACK CFI 66230 .cfa: sp 0 +
STACK CFI 66234 .cfa: x29 64 +
STACK CFI 6624c .cfa: sp 176 +
STACK CFI 66260 .cfa: sp 0 +
STACK CFI 66264 .cfa: x29 64 +
STACK CFI 66284 .cfa: sp 176 +
STACK CFI 66298 .cfa: sp 0 +
STACK CFI 6629c .cfa: x29 64 +
STACK CFI 662b4 .cfa: sp 176 +
STACK CFI 662c8 .cfa: sp 0 +
STACK CFI 662cc .cfa: x29 64 +
STACK CFI 662e0 .cfa: sp 176 +
STACK CFI 662f4 .cfa: sp 0 +
STACK CFI 662f8 .cfa: x29 64 +
STACK CFI 6630c .cfa: sp 176 +
STACK CFI 66320 .cfa: sp 0 +
STACK CFI 66324 .cfa: x29 64 +
STACK CFI 66334 .cfa: sp 176 +
STACK CFI 66348 .cfa: sp 0 +
STACK CFI 6634c .cfa: x29 64 +
STACK CFI 6635c .cfa: sp 176 +
STACK CFI 66370 .cfa: sp 0 +
STACK CFI 66374 .cfa: x29 64 +
STACK CFI 6638c .cfa: sp 176 +
STACK CFI 663a0 .cfa: sp 0 +
STACK CFI 663a4 .cfa: x29 64 +
STACK CFI 663b8 .cfa: sp 176 +
STACK CFI 663cc .cfa: sp 0 +
STACK CFI 663d0 .cfa: x29 64 +
STACK CFI 663e8 .cfa: sp 176 +
STACK CFI 663fc .cfa: sp 0 +
STACK CFI 66400 .cfa: x29 64 +
STACK CFI 6642c .cfa: sp 176 +
STACK CFI 66440 .cfa: sp 0 +
STACK CFI 66444 .cfa: x29 64 +
STACK CFI 66458 .cfa: sp 176 +
STACK CFI 6646c .cfa: sp 0 +
STACK CFI 66470 .cfa: x29 64 +
STACK CFI INIT 66490 228 .cfa: sp 0 +
STACK CFI INIT 666b8 2dc .cfa: sp 0 +
STACK CFI INIT 66994 53c .cfa: sp 0 +
STACK CFI INIT 66ed0 78 .cfa: sp 0 +
STACK CFI 66ed4 .cfa: sp 48 +
STACK CFI 66ee0 .cfa: x29 48 + x19: .cfa -8 + ^ x20: .cfa -16 + ^ x21: .cfa -24 + ^ x22: .cfa -32 + ^ .ra: .cfa -40 + ^ x29: .cfa -48 + ^
STACK CFI 66f28 .cfa: sp 48 +
STACK CFI 66f34 .cfa: sp 0 +
STACK CFI 66f38 .cfa: sp 48 +
STACK CFI 66f44 .cfa: sp 0 +
STACK CFI INIT 66f48 8c .cfa: sp 0 +
STACK CFI 66f4c .cfa: sp 32 +
STACK CFI 66f54 .cfa: x29 32 + x19: .cfa -16 + ^ .ra: .cfa -24 + ^ x29: .cfa -32 + ^
STACK CFI 66f88 .cfa: sp 32 +
STACK CFI 66f90 .cfa: sp 0 +
STACK CFI 66f94 .cfa: x29 32 +
STACK CFI 66fc8 .cfa: sp 32 +
STACK CFI 66fd0 .cfa: sp 0 +
STACK CFI INIT 66fd4 24 .cfa: sp 0 +
STACK CFI 66fd8 .cfa: sp 32 +
STACK CFI 66fe0 .cfa: x29 32 + x19: .cfa -16 + ^ .ra: .cfa -24 + ^ x29: .cfa -32 + ^
STACK CFI 66fec .cfa: sp 32 +
STACK CFI 66ff4 .cfa: sp 0 +
STACK CFI INIT 66ff8 150 .cfa: sp 0 +
STACK CFI 66ffc .cfa: sp 48 +
STACK CFI 67008 .cfa: x29 48 + x19: .cfa -8 + ^ x20: .cfa -16 + ^ x21: .cfa -24 + ^ x22: .cfa -32 + ^ .ra: .cfa -40 + ^ x29: .cfa -48 + ^
STACK CFI 67138 .cfa: sp 48 +
STACK CFI 67144 .cfa: sp 0 +
STACK CFI INIT 67148 68 .cfa: sp 0 +
STACK CFI 6714c .cfa: sp 64 +
STACK CFI 67158 .cfa: x29 32 + x19: .cfa -16 + ^ .ra: .cfa -24 + ^ x29: .cfa -32 + ^
STACK CFI 6719c .cfa: sp 64 +
STACK CFI 671a8 .cfa: sp 0 +
STACK CFI 671ac .cfa: x29 32 +
STACK CFI INIT 671b0 90 .cfa: sp 0 +
STACK CFI 671b4 .cfa: sp 32 +
STACK CFI 671bc .cfa: x29 32 + x19: .cfa -8 + ^ x20: .cfa -16 + ^ .ra: .cfa -24 + ^ x29: .cfa -32 + ^
STACK CFI 671e8 .cfa: sp 32 +
STACK CFI 671f0 .cfa: sp 0 +
STACK CFI 671f4 .cfa: x29 32 +
STACK CFI 67234 .cfa: sp 32 +
STACK CFI 6723c .cfa: sp 0 +
STACK CFI INIT 67240 ec .cfa: sp 0 +
STACK CFI 67244 .cfa: sp 112 +
STACK CFI 67254 .cfa: x29 48 + x19: .cfa -8 + ^ x20: .cfa -16 + ^ x21: .cfa -32 + ^ .ra: .cfa -40 + ^ x29: .cfa -48 + ^
STACK CFI 67314 .cfa: sp 112 +
STACK CFI 67324 .cfa: sp 0 +
STACK CFI 67328 .cfa: x29 48 +
STACK CFI INIT 6732c ec .cfa: sp 0 +
STACK CFI 67330 .cfa: sp 112 +
STACK CFI 67340 .cfa: x29 48 + x19: .cfa -8 + ^ x20: .cfa -16 + ^ x21: .cfa -32 + ^ .ra: .cfa -40 + ^ x29: .cfa -48 + ^
STACK CFI 67400 .cfa: sp 112 +
STACK CFI 67410 .cfa: sp 0 +
STACK CFI 67414 .cfa: x29 48 +
STACK CFI INIT 67418 48 .cfa: sp 0 +
STACK CFI 6741c .cfa: sp 32 +
STACK CFI 67424 .cfa: x29 32 + x19: .cfa -8 + ^ x20: .cfa -16 + ^ .ra: .cfa -24 + ^ x29: .cfa -32 + ^
STACK CFI 67448 .cfa: sp 32 +
STACK CFI 67450 .cfa: sp 0 +
STACK CFI 67454 .cfa: x29 32 +
STACK CFI INIT 67460 98 .cfa: sp 0 +
STACK CFI 67464 .cfa: sp 80 +
STACK CFI 67470 .cfa: x29 32 + x19: .cfa -16 + ^ .ra: .cfa -24 + ^ x29: .cfa -32 + ^
STACK CFI 674e4 .cfa: sp 80 +
STACK CFI 674f0 .cfa: sp 0 +
STACK CFI 674f4 .cfa: x29 32 +
STACK CFI INIT 674f8 260 .cfa: sp 0 +
STACK CFI 674fc .cfa: sp 112 +
STACK CFI 67514 .cfa: x29 80 + x19: .cfa -8 + ^ x20: .cfa -16 + ^ x21: .cfa -24 + ^ x22: .cfa -32 + ^ x23: .cfa -40 + ^ x24: .cfa -48 + ^ x25: .cfa -64 + ^ .ra: .cfa -72 + ^ x29: .cfa -80 + ^
STACK CFI 676f8 .cfa: sp 112 +
STACK CFI 67710 .cfa: sp 0 +
STACK CFI 67714 .cfa: x29 80 +
STACK CFI INIT 67758 150 .cfa: sp 0 +
STACK CFI 6775c .cfa: sp 48 +
STACK CFI 67768 .cfa: x29 48 + x19: .cfa -8 + ^ x20: .cfa -16 + ^ x21: .cfa -24 + ^ x22: .cfa -32 + ^ .ra: .cfa -40 + ^ x29: .cfa -48 + ^
STACK CFI 67898 .cfa: sp 48 +
STACK CFI 678a4 .cfa: sp 0 +
STACK CFI INIT 678a8 1e0 .cfa: sp 0 +
STACK CFI 678ac .cfa: sp 96 +
STACK CFI 678c0 .cfa: x29 64 + x19: .cfa -8 + ^ x20: .cfa -16 + ^ x21: .cfa -24 + ^ x22: .cfa -32 + ^ x23: .cfa -40 + ^ x24: .cfa -48 + ^ .ra: .cfa -56 + ^ x29: .cfa -64 + ^
STACK CFI 67a40 .cfa: sp 96 +
STACK CFI 67a54 .cfa: sp 0 +
STACK CFI 67a58 .cfa: x29 64 +
STACK CFI INIT 67a88 284 .cfa: sp 0 +
STACK CFI 67a8c .cfa: sp 112 +
STACK CFI 67aa4 .cfa: x29 80 + x19: .cfa -8 + ^ x20: .cfa -16 + ^ x21: .cfa -24 + ^ x22: .cfa -32 + ^ x23: .cfa -40 + ^ x24: .cfa -48 + ^ x25: .cfa -64 + ^ .ra: .cfa -72 + ^ x29: .cfa -80 + ^
STACK CFI 67cac .cfa: sp 112 +
STACK CFI 67cc4 .cfa: sp 0 +
STACK CFI 67cc8 .cfa: x29 80 +
STACK CFI INIT 67d0c 208 .cfa: sp 0 +
STACK CFI 67d10 .cfa: sp 96 +
STACK CFI 67d24 .cfa: x29 64 + x19: .cfa -8 + ^ x20: .cfa -16 + ^ x21: .cfa -24 + ^ x22: .cfa -32 + ^ x23: .cfa -40 + ^ x24: .cfa -48 + ^ .ra: .cfa -56 + ^ x29: .cfa -64 + ^
STACK CFI 67ecc .cfa: sp 96 +
STACK CFI 67ee0 .cfa: sp 0 +
STACK CFI 67ee4 .cfa: x29 64 +
STACK CFI INIT 67f14 360 .cfa: sp 0 +
STACK CFI 67f18 .cfa: sp 160 +
STACK CFI 67f34 .cfa: x29 96 + x19: .cfa -8 + ^ x20: .cfa -16 + ^ x21: .cfa -24 + ^ x22: .cfa -32 + ^ x23: .cfa -40 + ^ x24: .cfa -48 + ^ x25: .cfa -56 + ^ x26: .cfa -64 + ^ x27: .cfa -72 + ^ x28: .cfa -80 + ^ .ra: .cfa -88 + ^ x29: .cfa -96 + ^
STACK CFI 68200 .cfa: sp 160 +
STACK CFI 6821c .cfa: sp 0 +
STACK CFI 68220 .cfa: x29 96 +
STACK CFI INIT 68274 314 .cfa: sp 0 +
STACK CFI 68278 .cfa: sp 144 +
STACK CFI 68294 .cfa: x29 96 + x19: .cfa -8 + ^ x20: .cfa -16 + ^ x21: .cfa -24 + ^ x22: .cfa -32 + ^ x23: .cfa -40 + ^ x24: .cfa -48 + ^ x25: .cfa -56 + ^ x26: .cfa -64 + ^ x27: .cfa -72 + ^ x28: .cfa -80 + ^ .ra: .cfa -88 + ^ x29: .cfa -96 + ^
STACK CFI 68510 .cfa: sp 144 +
STACK CFI 6852c .cfa: sp 0 +
STACK CFI 68530 .cfa: x29 96 +
STACK CFI INIT 68588 290 .cfa: sp 0 +
STACK CFI 6858c .cfa: sp 128 +
STACK CFI 685a4 .cfa: x29 80 + x19: .cfa -8 + ^ x20: .cfa -16 + ^ x21: .cfa -24 + ^ x22: .cfa -32 + ^ x23: .cfa -40 + ^ x24: .cfa -48 + ^ x25: .cfa -56 + ^ x26: .cfa -64 + ^ .ra: .cfa -72 + ^ x29: .cfa -80 + ^
STACK CFI 687f8 .cfa: sp 128 +
STACK CFI 68810 .cfa: sp 0 +
STACK CFI 68814 .cfa: x29 80 +
STACK CFI INIT 68818 dc8 .cfa: sp 0 +
STACK CFI 6881c .cfa: sp 144 +
STACK CFI 68838 .cfa: x29 96 + x19: .cfa -8 + ^ x20: .cfa -16 + ^ x21: .cfa -24 + ^ x22: .cfa -32 + ^ x23: .cfa -40 + ^ x24: .cfa -48 + ^ x25: .cfa -56 + ^ x26: .cfa -64 + ^ x27: .cfa -72 + ^ x28: .cfa -80 + ^ .ra: .cfa -88 + ^ x29: .cfa -96 + ^
STACK CFI 694b8 .cfa: sp 144 +
STACK CFI 694d4 .cfa: sp 0 +
STACK CFI 694d8 .cfa: x29 96 +
STACK CFI INIT 695e0 1d0 .cfa: sp 0 +
STACK CFI 695e4 .cfa: sp 80 +
STACK CFI 695f8 .cfa: x29 80 + x19: .cfa -8 + ^ x20: .cfa -16 + ^ x21: .cfa -24 + ^ x22: .cfa -32 + ^ x23: .cfa -40 + ^ x24: .cfa -48 + ^ x25: .cfa -64 + ^ .ra: .cfa -72 + ^ x29: .cfa -80 + ^
STACK CFI 69798 .cfa: sp 80 +
STACK CFI 697ac .cfa: sp 0 +
STACK CFI INIT 697b0 23c .cfa: sp 0 +
STACK CFI 697b4 .cfa: sp 112 +
STACK CFI 697c8 .cfa: x29 64 + x19: .cfa -8 + ^ x20: .cfa -16 + ^ x21: .cfa -24 + ^ x22: .cfa -32 + ^ x23: .cfa -40 + ^ x24: .cfa -48 + ^ .ra: .cfa -56 + ^ x29: .cfa -64 + ^
STACK CFI 699a4 .cfa: sp 112 +
STACK CFI 699b8 .cfa: sp 0 +
STACK CFI 699bc .cfa: x29 64 +
STACK CFI INIT 699ec 30c .cfa: sp 0 +
STACK CFI 699f0 .cfa: sp 80 +
STACK CFI 69a04 .cfa: x29 64 + x19: .cfa -8 + ^ x20: .cfa -16 + ^ x21: .cfa -24 + ^ x22: .cfa -32 + ^ x23: .cfa -40 + ^ x24: .cfa -48 + ^ .ra: .cfa -56 + ^ x29: .cfa -64 + ^
STACK CFI 69b80 .cfa: sp 80 +
STACK CFI 69b94 .cfa: sp 0 +
STACK CFI 69b98 .cfa: x29 64 +
STACK CFI INIT 69cf8 178 .cfa: sp 0 +
STACK CFI 69cfc .cfa: sp 80 +
STACK CFI 69d10 .cfa: x29 64 + x19: .cfa -8 + ^ x20: .cfa -16 + ^ x21: .cfa -24 + ^ x22: .cfa -32 + ^ x23: .cfa -40 + ^ x24: .cfa -48 + ^ .ra: .cfa -56 + ^ x29: .cfa -64 + ^
STACK CFI 69e54 .cfa: sp 80 +
STACK CFI 69e68 .cfa: sp 0 +
STACK CFI 69e6c .cfa: x29 64 +
STACK CFI INIT 69e70 178 .cfa: sp 0 +
STACK CFI 69e74 .cfa: sp 80 +
STACK CFI 69e88 .cfa: x29 64 + x19: .cfa -8 + ^ x20: .cfa -16 + ^ x21: .cfa -24 + ^ x22: .cfa -32 + ^ x23: .cfa -40 + ^ x24: .cfa -48 + ^ .ra: .cfa -56 + ^ x29: .cfa -64 + ^
STACK CFI 69fcc .cfa: sp 80 +
STACK CFI 69fe0 .cfa: sp 0 +
STACK CFI 69fe4 .cfa: x29 64 +
STACK CFI INIT 69fe8 240 .cfa: sp 0 +
STACK CFI 69fec .cfa: sp 96 +
STACK CFI 6a004 .cfa: x29 96 + x19: .cfa -8 + ^ x20: .cfa -16 + ^ x21: .cfa -24 + ^ x22: .cfa -32 + ^ x23: .cfa -40 + ^ x24: .cfa -48 + ^ x25: .cfa -56 + ^ x26: .cfa -64 + ^ x27: .cfa -72 + ^ x28: .cfa -80 + ^ .ra: .cfa -88 + ^ x29: .cfa -96 + ^
STACK CFI 6a20c .cfa: sp 96 +
STACK CFI 6a224 .cfa: sp 0 +
STACK CFI INIT 6ae9c 154 .cfa: sp 0 +
STACK CFI 6aea0 .cfa: sp 96 +
STACK CFI 6aeb4 .cfa: x29 64 + x19: .cfa -8 + ^ x20: .cfa -16 + ^ x21: .cfa -24 + ^ x22: .cfa -32 + ^ x23: .cfa -48 + ^ .ra: .cfa -56 + ^ x29: .cfa -64 + ^
STACK CFI 6af94 .cfa: sp 96 +
STACK CFI 6afa8 .cfa: sp 0 +
STACK CFI 6afac .cfa: x29 64 +
STACK CFI INIT 6b258 44 .cfa: sp 0 +
STACK CFI 6b25c .cfa: sp 32 +
STACK CFI 6b264 .cfa: x29 32 + x19: .cfa -16 + ^ .ra: .cfa -24 + ^ x29: .cfa -32 + ^
STACK CFI 6b280 .cfa: sp 32 +
STACK CFI 6b288 .cfa: sp 0 +
STACK CFI 6b28c .cfa: x29 32 +
STACK CFI 6b290 .cfa: sp 32 +
STACK CFI 6b298 .cfa: sp 0 +
STACK CFI INIT 6b29c 1d0 .cfa: sp 0 +
STACK CFI 6b2a0 .cfa: sp 64 +
STACK CFI 6b2b0 .cfa: x29 64 + x19: .cfa -8 + ^ x20: .cfa -16 + ^ x21: .cfa -24 + ^ x22: .cfa -32 + ^ x23: .cfa -40 + ^ x24: .cfa -48 + ^ .ra: .cfa -56 + ^ x29: .cfa -64 + ^
STACK CFI 6b370 .cfa: sp 64 +
STACK CFI 6b380 .cfa: sp 0 +
STACK CFI 6b384 .cfa: x29 64 +
STACK CFI INIT 6b46c 17c .cfa: sp 0 +
STACK CFI INIT 6b9a0 a0 .cfa: sp 0 +
STACK CFI 6b9a4 .cfa: sp 48 +
STACK CFI 6b9b0 .cfa: x29 48 + x19: .cfa -8 + ^ x20: .cfa -16 + ^ x21: .cfa -24 + ^ x22: .cfa -32 + ^ .ra: .cfa -40 + ^ x29: .cfa -48 + ^
STACK CFI 6ba1c .cfa: sp 48 +
STACK CFI 6ba28 .cfa: sp 0 +
STACK CFI 6ba2c .cfa: sp 48 +
STACK CFI 6ba38 .cfa: sp 0 +
STACK CFI 6ba3c .cfa: x29 48 +
STACK CFI INIT 6c6f0 158 .cfa: sp 0 +
STACK CFI 6c6f4 .cfa: sp 96 +
STACK CFI 6c708 .cfa: x29 64 + x19: .cfa -8 + ^ x20: .cfa -16 + ^ x21: .cfa -24 + ^ x22: .cfa -32 + ^ x23: .cfa -48 + ^ .ra: .cfa -56 + ^ x29: .cfa -64 + ^
STACK CFI 6c7ec .cfa: sp 96 +
STACK CFI 6c800 .cfa: sp 0 +
STACK CFI 6c804 .cfa: x29 64 +
STACK CFI INIT 6c848 190 .cfa: sp 0 +
STACK CFI INIT 6d4bc 1dc .cfa: sp 0 +
STACK CFI 6d4c0 .cfa: sp 80 +
STACK CFI 6d4d4 .cfa: x29 80 + x19: .cfa -8 + ^ x20: .cfa -16 + ^ x21: .cfa -24 + ^ x22: .cfa -32 + ^ x23: .cfa -40 + ^ x24: .cfa -48 + ^ x25: .cfa -64 + ^ .ra: .cfa -72 + ^ x29: .cfa -80 + ^
STACK CFI 6d680 .cfa: sp 80 +
STACK CFI 6d694 .cfa: sp 0 +
STACK CFI INIT 6eabc 124 .cfa: sp 0 +
STACK CFI 6eaec .cfa: sp 32 +
STACK CFI 6eaf4 .cfa: x29 32 + x19: .cfa -8 + ^ x20: .cfa -16 + ^ .ra: .cfa -24 + ^ x29: .cfa -32 + ^
STACK CFI 6ebd4 .cfa: sp 32 +
STACK CFI 6ebdc .cfa: sp 0 +
STACK CFI INIT 6f33c 324 .cfa: sp 0 +
STACK CFI 6f340 .cfa: sp 64 +
STACK CFI 6f350 .cfa: x29 64 + x19: .cfa -8 + ^ x20: .cfa -16 + ^ x21: .cfa -24 + ^ x22: .cfa -32 + ^ x23: .cfa -40 + ^ x24: .cfa -48 + ^ .ra: .cfa -56 + ^ x29: .cfa -64 + ^
STACK CFI 6f3cc .cfa: sp 64 +
STACK CFI 6f3dc .cfa: sp 0 +
STACK CFI 6f3e0 .cfa: x29 64 +
STACK CFI 6f5b8 .cfa: sp 64 +
STACK CFI 6f5c8 .cfa: sp 0 +
STACK CFI 6f5cc .cfa: x29 64 +
STACK CFI 6f5dc .cfa: sp 64 +
STACK CFI 6f5ec .cfa: sp 0 +
STACK CFI 6f5f0 .cfa: x29 64 +
STACK CFI INIT 6f660 a0 .cfa: sp 0 +
STACK CFI 6f664 .cfa: sp 48 +
STACK CFI 6f670 .cfa: x29 48 + x19: .cfa -8 + ^ x20: .cfa -16 + ^ x21: .cfa -24 + ^ x22: .cfa -32 + ^ .ra: .cfa -40 + ^ x29: .cfa -48 + ^
STACK CFI 6f6dc .cfa: sp 48 +
STACK CFI 6f6e8 .cfa: sp 0 +
STACK CFI 6f6ec .cfa: sp 48 +
STACK CFI 6f6f8 .cfa: sp 0 +
STACK CFI 6f6fc .cfa: x29 48 +
STACK CFI INIT 705ac 160 .cfa: sp 0 +
STACK CFI 705b0 .cfa: sp 64 +
STACK CFI 705c0 .cfa: x29 64 + x19: .cfa -8 + ^ x20: .cfa -16 + ^ x21: .cfa -24 + ^ x22: .cfa -32 + ^ x23: .cfa -48 + ^ .ra: .cfa -56 + ^ x29: .cfa -64 + ^
STACK CFI 706b8 .cfa: sp 64 +
STACK CFI 706c8 .cfa: sp 0 +
STACK CFI 706cc .cfa: x29 64 +
STACK CFI INIT 7070c 214 .cfa: sp 0 +
STACK CFI 70710 .cfa: sp 128 +
STACK CFI 7072c .cfa: x29 96 + x19: .cfa -8 + ^ x20: .cfa -16 + ^ x21: .cfa -24 + ^ x22: .cfa -32 + ^ x23: .cfa -40 + ^ x24: .cfa -48 + ^ x25: .cfa -56 + ^ x26: .cfa -64 + ^ x27: .cfa -80 + ^ .ra: .cfa -88 + ^ x29: .cfa -96 + ^
STACK CFI 708a8 .cfa: sp 128 +
STACK CFI 708c4 .cfa: sp 0 +
STACK CFI 708c8 .cfa: x29 96 +
STACK CFI INIT 72584 290 .cfa: sp 0 +
STACK CFI 72588 .cfa: sp 16 +
STACK CFI 7258c .cfa: x29 16 + .ra: .cfa -8 + ^ x29: .cfa -16 + ^
STACK CFI 72618 .cfa: sp 16 +
STACK CFI 7261c .cfa: sp 0 +
STACK CFI 72620 .cfa: x29 16 +
STACK CFI 72670 .cfa: sp 16 +
STACK CFI 72674 .cfa: sp 0 +
STACK CFI 72678 .cfa: x29 16 +
STACK CFI 727dc .cfa: sp 16 +
STACK CFI 727e0 .cfa: sp 0 +
STACK CFI 727e4 .cfa: x29 16 +
STACK CFI INIT 72814 134 .cfa: sp 0 +
STACK CFI 72818 .cfa: sp 96 +
STACK CFI 72830 .cfa: x29 96 + x19: .cfa -8 + ^ x20: .cfa -16 + ^ x21: .cfa -24 + ^ x22: .cfa -32 + ^ x23: .cfa -40 + ^ x24: .cfa -48 + ^ x25: .cfa -56 + ^ x26: .cfa -64 + ^ x27: .cfa -72 + ^ x28: .cfa -80 + ^ .ra: .cfa -88 + ^ x29: .cfa -96 + ^
STACK CFI 72900 .cfa: sp 96 +
STACK CFI 72904 .cfa: x29 96 +
STACK CFI 72908 .cfa: sp 96 +
STACK CFI 72920 .cfa: sp 0 +
STACK CFI 72924 .cfa: x29 96 +
STACK CFI 72944 .cfa: sp 96 +
STACK CFI INIT 72948 e4c .cfa: sp 0 +
STACK CFI 7294c .cfa: sp 192 +
STACK CFI 72968 .cfa: x29 96 + x19: .cfa -8 + ^ x20: .cfa -16 + ^ x21: .cfa -24 + ^ x22: .cfa -32 + ^ x23: .cfa -40 + ^ x24: .cfa -48 + ^ x25: .cfa -56 + ^ x26: .cfa -64 + ^ x27: .cfa -72 + ^ x28: .cfa -80 + ^ .ra: .cfa -88 + ^ x29: .cfa -96 + ^
STACK CFI 7367c .cfa: sp 192 +
STACK CFI 73698 .cfa: sp 0 +
STACK CFI 7369c .cfa: x29 96 +
STACK CFI INIT 73794 1068 .cfa: sp 0 +
STACK CFI 73798 .cfa: sp 288 +
STACK CFI 737b4 .cfa: x29 96 + x19: .cfa -8 + ^ x20: .cfa -16 + ^ x21: .cfa -24 + ^ x22: .cfa -32 + ^ x23: .cfa -40 + ^ x24: .cfa -48 + ^ x25: .cfa -56 + ^ x26: .cfa -64 + ^ x27: .cfa -72 + ^ x28: .cfa -80 + ^ .ra: .cfa -88 + ^ x29: .cfa -96 + ^
STACK CFI 74544 .cfa: sp 288 +
STACK CFI 74560 .cfa: sp 0 +
STACK CFI 74564 .cfa: x29 96 +
STACK CFI INIT 747fc 520 .cfa: sp 0 +
STACK CFI 74800 .cfa: sp 144 +
STACK CFI 7481c .cfa: x29 96 + x19: .cfa -8 + ^ x20: .cfa -16 + ^ x21: .cfa -24 + ^ x22: .cfa -32 + ^ x23: .cfa -40 + ^ x24: .cfa -48 + ^ x25: .cfa -56 + ^ x26: .cfa -64 + ^ x27: .cfa -72 + ^ x28: .cfa -80 + ^ .ra: .cfa -88 + ^ x29: .cfa -96 + ^
STACK CFI 74cf8 .cfa: sp 144 +
STACK CFI 74d14 .cfa: sp 0 +
STACK CFI 74d18 .cfa: x29 96 +
STACK CFI INIT 75768 12dc .cfa: sp 0 +
STACK CFI 7576c .cfa: sp 208 +
STACK CFI 75788 .cfa: x29 96 + x19: .cfa -8 + ^ x20: .cfa -16 + ^ x21: .cfa -24 + ^ x22: .cfa -32 + ^ x23: .cfa -40 + ^ x24: .cfa -48 + ^ x25: .cfa -56 + ^ x26: .cfa -64 + ^ x27: .cfa -72 + ^ x28: .cfa -80 + ^ .ra: .cfa -88 + ^ x29: .cfa -96 + ^
STACK CFI 76a20 .cfa: sp 208 +
STACK CFI 76a3c .cfa: sp 0 +
STACK CFI 76a40 .cfa: x29 96 +
STACK CFI INIT 76a44 1b8 .cfa: sp 0 +
STACK CFI INIT 39a40 2fc .cfa: sp 0 +
STACK CFI 39a44 .cfa: sp 176 +
STACK CFI 39a60 .cfa: x29 96 + x19: .cfa -8 + ^ x20: .cfa -16 + ^ x21: .cfa -24 + ^ x22: .cfa -32 + ^ x23: .cfa -40 + ^ x24: .cfa -48 + ^ x25: .cfa -56 + ^ x26: .cfa -64 + ^ x27: .cfa -72 + ^ x28: .cfa -80 + ^ .ra: .cfa -88 + ^ x29: .cfa -96 + ^
STACK CFI 39c90 .cfa: sp 176 +
STACK CFI 39cac .cfa: sp 0 +
STACK CFI 39cb0 .cfa: x29 96 +
STACK CFI 39ce4 .cfa: sp 176 +
STACK CFI 39d00 .cfa: sp 0 +
STACK CFI 39d04 .cfa: x29 96 +
STACK CFI INIT 39d44 42c .cfa: sp 0 +
STACK CFI 39d48 .cfa: sp 224 +
STACK CFI 39d64 .cfa: x29 96 + x19: .cfa -8 + ^ x20: .cfa -16 + ^ x21: .cfa -24 + ^ x22: .cfa -32 + ^ x23: .cfa -40 + ^ x24: .cfa -48 + ^ x25: .cfa -56 + ^ x26: .cfa -64 + ^ x27: .cfa -72 + ^ x28: .cfa -80 + ^ .ra: .cfa -88 + ^ x29: .cfa -96 + ^
STACK CFI 3a068 .cfa: sp 224 +
STACK CFI 3a084 .cfa: sp 0 +
STACK CFI 3a088 .cfa: x29 96 +
STACK CFI INIT 3a3b4 38c .cfa: sp 0 +
STACK CFI 3a3b8 .cfa: sp 208 +
STACK CFI 3a3cc .cfa: x29 64 + x19: .cfa -8 + ^ x20: .cfa -16 + ^ x21: .cfa -24 + ^ x22: .cfa -32 + ^ x23: .cfa -48 + ^ .ra: .cfa -56 + ^ x29: .cfa -64 + ^
STACK CFI 3a610 .cfa: sp 208 +
STACK CFI 3a624 .cfa: sp 0 +
STACK CFI 3a628 .cfa: x29 64 +
STACK CFI INIT 3a790 74 .cfa: sp 0 +
STACK CFI 3a794 .cfa: sp 48 +
STACK CFI 3a7a0 .cfa: x29 32 + x19: .cfa -8 + ^ x20: .cfa -16 + ^ .ra: .cfa -24 + ^ x29: .cfa -32 + ^
STACK CFI 3a7ec .cfa: sp 48 +
STACK CFI 3a7f8 .cfa: sp 0 +
STACK CFI 3a7fc .cfa: x29 32 +
STACK CFI INIT 3a884 154 .cfa: sp 0 +
STACK CFI 3a888 .cfa: sp 384 +
STACK CFI 3a89c .cfa: x29 64 + x19: .cfa -8 + ^ x20: .cfa -16 + ^ x21: .cfa -24 + ^ x22: .cfa -32 + ^ x23: .cfa -40 + ^ x28: .cfa -48 + ^ .ra: .cfa -56 + ^ x29: .cfa -64 + ^
STACK CFI 3a980 .cfa: sp 384 +
STACK CFI 3a994 .cfa: sp 0 +
STACK CFI 3a998 .cfa: x29 64 +
STACK CFI INIT 3aa0c 134 .cfa: sp 0 +
STACK CFI 3aa10 .cfa: sp 80 +
STACK CFI 3aa24 .cfa: x29 80 + x19: .cfa -8 + ^ x20: .cfa -16 + ^ x21: .cfa -24 + ^ x22: .cfa -32 + ^ x23: .cfa -40 + ^ x24: .cfa -48 + ^ x25: .cfa -56 + ^ x26: .cfa -64 + ^ .ra: .cfa -72 + ^ x29: .cfa -80 + ^
STACK CFI 3aaf4 .cfa: sp 80 +
STACK CFI 3ab08 .cfa: sp 0 +
STACK CFI 3ab0c .cfa: x29 80 +
STACK CFI INIT 3abe4 1a4 .cfa: sp 0 +
STACK CFI 3abe8 .cfa: sp 112 +
STACK CFI 3ac00 .cfa: x29 80 + x19: .cfa -8 + ^ x20: .cfa -16 + ^ x21: .cfa -24 + ^ x22: .cfa -32 + ^ x23: .cfa -40 + ^ x24: .cfa -48 + ^ x25: .cfa -56 + ^ x26: .cfa -64 + ^ .ra: .cfa -72 + ^ x29: .cfa -80 + ^
STACK CFI 3acf0 .cfa: sp 112 +
STACK CFI 3ad08 .cfa: sp 0 +
STACK CFI 3ad0c .cfa: x29 80 +
STACK CFI INIT 3ad88 1ec .cfa: sp 0 +
STACK CFI 3ad8c .cfa: sp 128 +
STACK CFI 3ada8 .cfa: x29 96 + x19: .cfa -8 + ^ x20: .cfa -16 + ^ x21: .cfa -24 + ^ x22: .cfa -32 + ^ x23: .cfa -40 + ^ x24: .cfa -48 + ^ x25: .cfa -56 + ^ x26: .cfa -64 + ^ x27: .cfa -80 + ^ .ra: .cfa -88 + ^ x29: .cfa -96 + ^
STACK CFI 3af24 .cfa: sp 128 +
STACK CFI 3af40 .cfa: sp 0 +
STACK CFI 3af44 .cfa: x29 96 +
STACK CFI INIT 3af88 50 .cfa: sp 0 +
STACK CFI 3af8c .cfa: sp 32 +
STACK CFI 3af94 .cfa: x29 32 + x19: .cfa -8 + ^ x20: .cfa -16 + ^ .ra: .cfa -24 + ^ x29: .cfa -32 + ^
STACK CFI INIT 3b008 170 .cfa: sp 0 +
STACK CFI 3b00c .cfa: sp 48 +
STACK CFI 3b018 .cfa: x29 48 + x19: .cfa -8 + ^ x20: .cfa -16 + ^ x21: .cfa -32 + ^ .ra: .cfa -40 + ^ x29: .cfa -48 + ^
STACK CFI 3b14c .cfa: sp 48 +
STACK CFI 3b158 .cfa: sp 0 +
STACK CFI 3b15c .cfa: x29 48 +
STACK CFI INIT 3b348 1b0 .cfa: sp 0 +
STACK CFI 3b34c .cfa: sp 128 +
STACK CFI 3b364 .cfa: x29 80 + x19: .cfa -8 + ^ x20: .cfa -16 + ^ x21: .cfa -24 + ^ x22: .cfa -32 + ^ x23: .cfa -40 + ^ x24: .cfa -48 + ^ x25: .cfa -64 + ^ .ra: .cfa -72 + ^ x29: .cfa -80 + ^
STACK CFI 3b488 .cfa: sp 128 +
STACK CFI 3b4a0 .cfa: sp 0 +
STACK CFI 3b4a4 .cfa: x29 80 +
STACK CFI INIT 3bc70 3c4 .cfa: sp 0 +
STACK CFI 3bc74 .cfa: sp 160 +
STACK CFI 3bc90 .cfa: x29 96 + x19: .cfa -8 + ^ x20: .cfa -16 + ^ x21: .cfa -24 + ^ x22: .cfa -32 + ^ x23: .cfa -40 + ^ x24: .cfa -48 + ^ x25: .cfa -56 + ^ x26: .cfa -64 + ^ x27: .cfa -80 + ^ .ra: .cfa -88 + ^ x29: .cfa -96 + ^
STACK CFI 3bf88 .cfa: sp 160 +
STACK CFI 3bfa4 .cfa: sp 0 +
STACK CFI 3bfa8 .cfa: x29 96 +
STACK CFI INIT 3c0e8 a4 .cfa: sp 0 +
STACK CFI 3c0ec .cfa: sp 48 +
STACK CFI 3c0f8 .cfa: x29 32 + x19: .cfa -8 + ^ x20: .cfa -16 + ^ .ra: .cfa -24 + ^ x29: .cfa -32 + ^
STACK CFI 3c150 .cfa: sp 48 +
STACK CFI 3c15c .cfa: sp 0 +
STACK CFI 3c160 .cfa: x29 32 +
STACK CFI INIT 3c18c a4 .cfa: sp 0 +
STACK CFI 3c190 .cfa: sp 48 +
STACK CFI 3c19c .cfa: x29 32 + x19: .cfa -8 + ^ x20: .cfa -16 + ^ .ra: .cfa -24 + ^ x29: .cfa -32 + ^
STACK CFI 3c1f4 .cfa: sp 48 +
STACK CFI 3c200 .cfa: sp 0 +
STACK CFI 3c204 .cfa: x29 32 +
STACK CFI INIT 3c230 a4 .cfa: sp 0 +
STACK CFI 3c234 .cfa: sp 48 +
STACK CFI 3c240 .cfa: x29 32 + x19: .cfa -8 + ^ x20: .cfa -16 + ^ .ra: .cfa -24 + ^ x29: .cfa -32 + ^
STACK CFI 3c298 .cfa: sp 48 +
STACK CFI 3c2a4 .cfa: sp 0 +
STACK CFI 3c2a8 .cfa: x29 32 +
STACK CFI INIT 3c2d4 a4 .cfa: sp 0 +
STACK CFI 3c2d8 .cfa: sp 48 +
STACK CFI 3c2e4 .cfa: x29 32 + x19: .cfa -8 + ^ x20: .cfa -16 + ^ .ra: .cfa -24 + ^ x29: .cfa -32 + ^
STACK CFI 3c33c .cfa: sp 48 +
STACK CFI 3c348 .cfa: sp 0 +
STACK CFI 3c34c .cfa: x29 32 +
STACK CFI INIT 3c378 a4 .cfa: sp 0 +
STACK CFI 3c37c .cfa: sp 48 +
STACK CFI 3c388 .cfa: x29 32 + x19: .cfa -8 + ^ x20: .cfa -16 + ^ .ra: .cfa -24 + ^ x29: .cfa -32 + ^
STACK CFI 3c3e0 .cfa: sp 48 +
STACK CFI 3c3ec .cfa: sp 0 +
STACK CFI 3c3f0 .cfa: x29 32 +
STACK CFI INIT 3c594 42c .cfa: sp 0 +
STACK CFI 3c598 .cfa: sp 224 +
STACK CFI 3c5b4 .cfa: x29 96 + x19: .cfa -8 + ^ x20: .cfa -16 + ^ x21: .cfa -24 + ^ x22: .cfa -32 + ^ x23: .cfa -40 + ^ x24: .cfa -48 + ^ x25: .cfa -56 + ^ x26: .cfa -64 + ^ x27: .cfa -72 + ^ x28: .cfa -80 + ^ .ra: .cfa -88 + ^ x29: .cfa -96 + ^
STACK CFI 3c8b8 .cfa: sp 224 +
STACK CFI 3c8d4 .cfa: sp 0 +
STACK CFI 3c8d8 .cfa: x29 96 +
STACK CFI INIT 3c9c0 42c .cfa: sp 0 +
STACK CFI 3c9c4 .cfa: sp 224 +
STACK CFI 3c9e0 .cfa: x29 96 + x19: .cfa -8 + ^ x20: .cfa -16 + ^ x21: .cfa -24 + ^ x22: .cfa -32 + ^ x23: .cfa -40 + ^ x24: .cfa -48 + ^ x25: .cfa -56 + ^ x26: .cfa -64 + ^ x27: .cfa -72 + ^ x28: .cfa -80 + ^ .ra: .cfa -88 + ^ x29: .cfa -96 + ^
STACK CFI 3cce4 .cfa: sp 224 +
STACK CFI 3cd00 .cfa: sp 0 +
STACK CFI 3cd04 .cfa: x29 96 +
STACK CFI INIT 3ce24 31c .cfa: sp 0 +
STACK CFI 3ce28 .cfa: sp 224 +
STACK CFI 3ce3c .cfa: x29 64 + x19: .cfa -8 + ^ x20: .cfa -16 + ^ x21: .cfa -24 + ^ x22: .cfa -32 + ^ x23: .cfa -48 + ^ .ra: .cfa -56 + ^ x29: .cfa -64 + ^
STACK CFI 3d030 .cfa: sp 224 +
STACK CFI 3d044 .cfa: sp 0 +
STACK CFI 3d048 .cfa: x29 64 +
STACK CFI INIT 3d144 1ec .cfa: sp 0 +
STACK CFI 3d148 .cfa: sp 112 +
STACK CFI 3d158 .cfa: x29 48 + x19: .cfa -8 + ^ x20: .cfa -16 + ^ x21: .cfa -24 + ^ x22: .cfa -32 + ^ .ra: .cfa -40 + ^ x29: .cfa -48 + ^
STACK CFI 3d2ec .cfa: sp 112 +
STACK CFI 3d2fc .cfa: sp 0 +
STACK CFI 3d300 .cfa: x29 48 +
STACK CFI INIT 3d330 a8 .cfa: sp 0 +
STACK CFI 3d334 .cfa: sp 32 +
STACK CFI 3d33c .cfa: x29 32 + x19: .cfa -16 + ^ .ra: .cfa -24 + ^ x29: .cfa -32 + ^
STACK CFI 3d370 .cfa: sp 32 +
STACK CFI 3d378 .cfa: sp 0 +
STACK CFI 3d37c .cfa: x29 32 +
STACK CFI 3d380 .cfa: sp 32 +
STACK CFI 3d388 .cfa: sp 0 +
STACK CFI 3d38c .cfa: x29 32 +
STACK CFI INIT 3d4a8 12c .cfa: sp 0 +
STACK CFI 3d4ac .cfa: sp 80 +
STACK CFI 3d4bc .cfa: x29 48 + x19: .cfa -8 + ^ x20: .cfa -16 + ^ x21: .cfa -24 + ^ x22: .cfa -32 + ^ .ra: .cfa -40 + ^ x29: .cfa -48 + ^
STACK CFI 3d5b8 .cfa: sp 80 +
STACK CFI 3d5c8 .cfa: sp 0 +
STACK CFI 3d5cc .cfa: x29 48 +
STACK CFI INIT 3d6d8 34c .cfa: sp 0 +
STACK CFI 3d6dc .cfa: sp 208 +
STACK CFI 3d6f0 .cfa: x29 64 + x19: .cfa -8 + ^ x20: .cfa -16 + ^ x21: .cfa -24 + ^ x22: .cfa -32 + ^ x23: .cfa -40 + ^ x24: .cfa -48 + ^ .ra: .cfa -56 + ^ x29: .cfa -64 + ^
STACK CFI 3d900 .cfa: sp 208 +
STACK CFI 3d914 .cfa: sp 0 +
STACK CFI 3d918 .cfa: x29 64 +
STACK CFI INIT 3da28 204 .cfa: sp 0 +
STACK CFI 3da2c .cfa: sp 128 +
STACK CFI 3da40 .cfa: x29 64 + x19: .cfa -8 + ^ x20: .cfa -16 + ^ x21: .cfa -24 + ^ x22: .cfa -32 + ^ x23: .cfa -48 + ^ .ra: .cfa -56 + ^ x29: .cfa -64 + ^
STACK CFI 3dbe4 .cfa: sp 128 +
STACK CFI 3dbf8 .cfa: sp 0 +
STACK CFI 3dbfc .cfa: x29 64 +
STACK CFI INIT 3dc2c 1c .cfa: sp 0 +
STACK CFI 3dc30 .cfa: sp 16 +
STACK CFI 3dc34 .cfa: x29 16 + .ra: .cfa -8 + ^ x29: .cfa -16 + ^
STACK CFI 3dc3c .cfa: sp 16 +
STACK CFI 3dc40 .cfa: sp 0 +
STACK CFI 3dc44 .cfa: x29 16 +
STACK CFI INIT 3dc48 ba8 .cfa: sp 0 +
STACK CFI 3dc4c .cfa: sp 256 +
STACK CFI 3dc6c .cfa: x29 96 + x19: .cfa -8 + ^ x20: .cfa -16 + ^ x21: .cfa -24 + ^ x22: .cfa -32 + ^ x23: .cfa -40 + ^ x24: .cfa -48 + ^ x25: .cfa -56 + ^ x26: .cfa -64 + ^ x27: .cfa -72 + ^ x28: .cfa -80 + ^ .ra: .cfa -88 + ^ x29: .cfa -96 + ^ v8: .cfa -112 + ^
STACK CFI 3e6a0 .cfa: sp 256 +
STACK CFI 3e6c0 .cfa: sp 0 +
STACK CFI 3e6c4 .cfa: x29 96 +
STACK CFI INIT 3e890 15c .cfa: sp 0 +
STACK CFI 3e894 .cfa: sp 48 +
STACK CFI 3e8a0 .cfa: x29 48 + x19: .cfa -8 + ^ x20: .cfa -16 + ^ x21: .cfa -32 + ^ .ra: .cfa -40 + ^ x29: .cfa -48 + ^
STACK CFI 3e968 .cfa: sp 48 +
STACK CFI 3e974 .cfa: sp 0 +
STACK CFI 3e978 .cfa: x29 48 +
STACK CFI INIT 3e9ec 328 .cfa: sp 0 +
STACK CFI 3e9f0 .cfa: sp 112 +
STACK CFI 3ea08 .cfa: x29 64 + x19: .cfa -8 + ^ x20: .cfa -16 + ^ x21: .cfa -24 + ^ x22: .cfa -32 + ^ x23: .cfa -40 + ^ x24: .cfa -48 + ^ .ra: .cfa -56 + ^ x29: .cfa -64 + ^ v8: .cfa -80 + ^
STACK CFI 3ec60 .cfa: sp 112 +
STACK CFI 3ec78 .cfa: sp 0 +
STACK CFI 3ec7c .cfa: x29 64 +
STACK CFI INIT 3ed64 734 .cfa: sp 0 +
STACK CFI 3ed68 .cfa: sp 80 +
STACK CFI 3ed7c .cfa: x29 80 + x19: .cfa -8 + ^ x20: .cfa -16 + ^ x21: .cfa -24 + ^ x22: .cfa -32 + ^ x23: .cfa -40 + ^ x24: .cfa -48 + ^ x28: .cfa -64 + ^ .ra: .cfa -72 + ^ x29: .cfa -80 + ^
STACK CFI 3f3bc .cfa: sp 80 +
STACK CFI 3f3d0 .cfa: sp 0 +
STACK CFI 3f3d4 .cfa: x29 80 +
STACK CFI INIT 3f498 384 .cfa: sp 0 +
STACK CFI 3f49c .cfa: sp 176 +
STACK CFI 3f4b0 .cfa: x29 64 + x19: .cfa -8 + ^ x20: .cfa -16 + ^ x21: .cfa -24 + ^ x22: .cfa -32 + ^ x23: .cfa -40 + ^ x24: .cfa -48 + ^ .ra: .cfa -56 + ^ x29: .cfa -64 + ^
STACK CFI 3f7a0 .cfa: sp 176 +
STACK CFI 3f7b4 .cfa: sp 0 +
STACK CFI 3f7b8 .cfa: x29 64 +
STACK CFI INIT 3f908 3e8 .cfa: sp 0 +
STACK CFI 3f90c .cfa: sp 224 +
STACK CFI 3f928 .cfa: x29 96 + x19: .cfa -8 + ^ x20: .cfa -16 + ^ x21: .cfa -24 + ^ x22: .cfa -32 + ^ x23: .cfa -40 + ^ x24: .cfa -48 + ^ x25: .cfa -56 + ^ x26: .cfa -64 + ^ x27: .cfa -72 + ^ x28: .cfa -80 + ^ .ra: .cfa -88 + ^ x29: .cfa -96 + ^
STACK CFI 3fa38 .cfa: sp 224 +
STACK CFI 3fa54 .cfa: sp 0 +
STACK CFI 3fa58 .cfa: x29 96 +
STACK CFI INIT 3ff60 36c .cfa: sp 0 +
STACK CFI 3ff64 .cfa: sp 176 +
STACK CFI 3ff74 .cfa: x29 48 + x19: .cfa -8 + ^ x20: .cfa -16 + ^ x21: .cfa -32 + ^ .ra: .cfa -40 + ^ x29: .cfa -48 + ^
STACK CFI 401e0 .cfa: sp 176 +
STACK CFI 401f0 .cfa: sp 0 +
STACK CFI 401f4 .cfa: x29 48 +
STACK CFI INIT 40348 140 .cfa: sp 0 +
STACK CFI 4034c .cfa: sp 160 +
STACK CFI 4035c .cfa: x29 48 + x19: .cfa -8 + ^ x20: .cfa -16 + ^ x21: .cfa -32 + ^ .ra: .cfa -40 + ^ x29: .cfa -48 + ^
STACK CFI 403d8 .cfa: sp 160 +
STACK CFI 403e8 .cfa: sp 0 +
STACK CFI 403ec .cfa: x29 48 +
STACK CFI INIT 40488 6a0 .cfa: sp 0 +
STACK CFI 4048c .cfa: sp 400 +
STACK CFI 404a8 .cfa: x29 96 + x19: .cfa -8 + ^ x20: .cfa -16 + ^ x21: .cfa -24 + ^ x22: .cfa -32 + ^ x23: .cfa -40 + ^ x24: .cfa -48 + ^ x25: .cfa -56 + ^ x26: .cfa -64 + ^ x27: .cfa -72 + ^ x28: .cfa -80 + ^ .ra: .cfa -88 + ^ x29: .cfa -96 + ^
STACK CFI 408f0 .cfa: sp 400 +
STACK CFI 4090c .cfa: sp 0 +
STACK CFI 40910 .cfa: x29 96 +
STACK CFI INIT 40b34 d4 .cfa: sp 0 +
STACK CFI 40b38 .cfa: sp 128 +
STACK CFI 40b44 .cfa: x29 32 + x19: .cfa -8 + ^ x20: .cfa -16 + ^ .ra: .cfa -24 + ^ x29: .cfa -32 + ^
STACK CFI 40bd0 .cfa: sp 128 +
STACK CFI 40bdc .cfa: sp 0 +
STACK CFI 40be0 .cfa: x29 32 +
STACK CFI INIT 40c50 42c .cfa: sp 0 +
STACK CFI 40c54 .cfa: sp 224 +
STACK CFI 40c70 .cfa: x29 96 + x19: .cfa -8 + ^ x20: .cfa -16 + ^ x21: .cfa -24 + ^ x22: .cfa -32 + ^ x23: .cfa -40 + ^ x24: .cfa -48 + ^ x25: .cfa -56 + ^ x26: .cfa -64 + ^ x27: .cfa -72 + ^ x28: .cfa -80 + ^ .ra: .cfa -88 + ^ x29: .cfa -96 + ^
STACK CFI 40f74 .cfa: sp 224 +
STACK CFI 40f90 .cfa: sp 0 +
STACK CFI 40f94 .cfa: x29 96 +
STACK CFI INIT 4107c 42c .cfa: sp 0 +
STACK CFI 41080 .cfa: sp 224 +
STACK CFI 4109c .cfa: x29 96 + x19: .cfa -8 + ^ x20: .cfa -16 + ^ x21: .cfa -24 + ^ x22: .cfa -32 + ^ x23: .cfa -40 + ^ x24: .cfa -48 + ^ x25: .cfa -56 + ^ x26: .cfa -64 + ^ x27: .cfa -72 + ^ x28: .cfa -80 + ^ .ra: .cfa -88 + ^ x29: .cfa -96 + ^
STACK CFI 413a0 .cfa: sp 224 +
STACK CFI 413bc .cfa: sp 0 +
STACK CFI 413c0 .cfa: x29 96 +
STACK CFI INIT 41ea8 d88 .cfa: sp 0 +
STACK CFI 41eac .cfa: sp 480 +
STACK CFI 41ec8 .cfa: x29 96 + x19: .cfa -8 + ^ x20: .cfa -16 + ^ x21: .cfa -24 + ^ x22: .cfa -32 + ^ x23: .cfa -40 + ^ x24: .cfa -48 + ^ x25: .cfa -56 + ^ x26: .cfa -64 + ^ x27: .cfa -72 + ^ x28: .cfa -80 + ^ .ra: .cfa -88 + ^ x29: .cfa -96 + ^
STACK CFI 4279c .cfa: sp 480 +
STACK CFI 427b8 .cfa: sp 0 +
STACK CFI 427bc .cfa: x29 96 +
STACK CFI INIT 42c30 1d8 .cfa: sp 0 +
STACK CFI 42c34 .cfa: sp 240 +
STACK CFI 42c44 .cfa: x29 48 + x19: .cfa -8 + ^ x20: .cfa -16 + ^ x21: .cfa -24 + ^ x22: .cfa -32 + ^ .ra: .cfa -40 + ^ x29: .cfa -48 + ^
STACK CFI 42da8 .cfa: sp 240 +
STACK CFI 42db8 .cfa: sp 0 +
STACK CFI 42dbc .cfa: x29 48 +
STACK CFI INIT 42e08 124 .cfa: sp 0 +
STACK CFI 42e0c .cfa: sp 160 +
STACK CFI 42e1c .cfa: x29 48 + x19: .cfa -8 + ^ x20: .cfa -16 + ^ x21: .cfa -32 + ^ .ra: .cfa -40 + ^ x29: .cfa -48 + ^
STACK CFI 42ee0 .cfa: sp 160 +
STACK CFI 42ef0 .cfa: sp 0 +
STACK CFI 42ef4 .cfa: x29 48 +
STACK CFI INIT 42f2c 118 .cfa: sp 0 +
STACK CFI 42f30 .cfa: sp 160 +
STACK CFI 42f40 .cfa: x29 48 + x19: .cfa -8 + ^ x20: .cfa -16 + ^ x21: .cfa -32 + ^ .ra: .cfa -40 + ^ x29: .cfa -48 + ^
STACK CFI 43008 .cfa: sp 160 +
STACK CFI 43018 .cfa: sp 0 +
STACK CFI 4301c .cfa: x29 48 +
STACK CFI INIT 43044 114 .cfa: sp 0 +
STACK CFI 43048 .cfa: sp 160 +
STACK CFI 43058 .cfa: x29 48 + x19: .cfa -8 + ^ x20: .cfa -16 + ^ x21: .cfa -32 + ^ .ra: .cfa -40 + ^ x29: .cfa -48 + ^
STACK CFI 4311c .cfa: sp 160 +
STACK CFI 4312c .cfa: sp 0 +
STACK CFI 43130 .cfa: x29 48 +
STACK CFI INIT 432c0 26c .cfa: sp 0 +
STACK CFI 432c4 .cfa: sp 192 +
STACK CFI 432d4 .cfa: x29 48 + x19: .cfa -8 + ^ x20: .cfa -16 + ^ x21: .cfa -24 + ^ x22: .cfa -32 + ^ .ra: .cfa -40 + ^ x29: .cfa -48 + ^
STACK CFI 43428 .cfa: sp 192 +
STACK CFI 43438 .cfa: sp 0 +
STACK CFI 4343c .cfa: x29 48 +
STACK CFI INIT 4352c 114 .cfa: sp 0 +
STACK CFI 43530 .cfa: sp 32 +
STACK CFI 43538 .cfa: x29 32 + x19: .cfa -8 + ^ x20: .cfa -16 + ^ .ra: .cfa -24 + ^ x29: .cfa -32 + ^
STACK CFI 43594 .cfa: sp 32 +
STACK CFI 4359c .cfa: sp 0 +
STACK CFI 435a0 .cfa: x29 32 +
STACK CFI 435e8 .cfa: sp 32 +
STACK CFI 435f0 .cfa: sp 0 +
STACK CFI 435f4 .cfa: x29 32 +
STACK CFI INIT 436a4 74 .cfa: sp 0 +
STACK CFI 436a8 .cfa: sp 48 +
STACK CFI 436b4 .cfa: x29 32 + x19: .cfa -8 + ^ x20: .cfa -16 + ^ .ra: .cfa -24 + ^ x29: .cfa -32 + ^
STACK CFI 43700 .cfa: sp 48 +
STACK CFI 4370c .cfa: sp 0 +
STACK CFI 43710 .cfa: x29 32 +
STACK CFI INIT 43730 410 .cfa: sp 0 +
STACK CFI 43734 .cfa: sp 64 +
STACK CFI 43744 .cfa: x29 64 + x19: .cfa -8 + ^ x20: .cfa -16 + ^ x21: .cfa -24 + ^ x22: .cfa -32 + ^ x23: .cfa -40 + ^ x28: .cfa -48 + ^ .ra: .cfa -56 + ^ x29: .cfa -64 + ^
STACK CFI 439fc .cfa: sp 64 +
STACK CFI 43a0c .cfa: sp 0 +
STACK CFI 43a10 .cfa: x29 64 +
STACK CFI INIT 43c28 120 .cfa: sp 0 +
STACK CFI 43c2c .cfa: sp 48 +
STACK CFI 43c38 .cfa: x29 48 + x19: .cfa -8 + ^ x20: .cfa -16 + ^ x21: .cfa -24 + ^ x22: .cfa -32 + ^ .ra: .cfa -40 + ^ x29: .cfa -48 + ^
STACK CFI 43cd4 .cfa: sp 48 +
STACK CFI 43ce0 .cfa: sp 0 +
STACK CFI 43ce4 .cfa: x29 48 +
STACK CFI 43cf0 .cfa: sp 48 +
STACK CFI 43cfc .cfa: sp 0 +
STACK CFI 43d00 .cfa: x29 48 +
STACK CFI INIT 43e48 1c .cfa: sp 0 +
STACK CFI 43e4c .cfa: sp 16 +
STACK CFI 43e50 .cfa: x29 16 + .ra: .cfa -8 + ^ x29: .cfa -16 + ^
STACK CFI 43e58 .cfa: sp 16 +
STACK CFI 43e5c .cfa: sp 0 +
STACK CFI 43e60 .cfa: x29 16 +
STACK CFI INIT 43e64 344 .cfa: sp 0 +
STACK CFI 43e68 .cfa: sp 128 +
STACK CFI 43e84 .cfa: x29 96 + x19: .cfa -8 + ^ x20: .cfa -16 + ^ x21: .cfa -24 + ^ x22: .cfa -32 + ^ x23: .cfa -40 + ^ x24: .cfa -48 + ^ x25: .cfa -56 + ^ x26: .cfa -64 + ^ x27: .cfa -72 + ^ x28: .cfa -80 + ^ .ra: .cfa -88 + ^ x29: .cfa -96 + ^
STACK CFI 440fc .cfa: sp 128 +
STACK CFI 44118 .cfa: sp 0 +
STACK CFI 4411c .cfa: x29 96 +
STACK CFI INIT 441a8 74 .cfa: sp 0 +
STACK CFI 441ac .cfa: sp 48 +
STACK CFI 441b8 .cfa: x29 32 + x19: .cfa -8 + ^ x20: .cfa -16 + ^ .ra: .cfa -24 + ^ x29: .cfa -32 + ^
STACK CFI 44204 .cfa: sp 48 +
STACK CFI 44210 .cfa: sp 0 +
STACK CFI 44214 .cfa: x29 32 +
STACK CFI INIT 4421c 74 .cfa: sp 0 +
STACK CFI 44220 .cfa: sp 48 +
STACK CFI 4422c .cfa: x29 32 + x19: .cfa -8 + ^ x20: .cfa -16 + ^ .ra: .cfa -24 + ^ x29: .cfa -32 + ^
STACK CFI 44278 .cfa: sp 48 +
STACK CFI 44284 .cfa: sp 0 +
STACK CFI 44288 .cfa: x29 32 +
STACK CFI INIT 442e0 114 .cfa: sp 0 +
STACK CFI 442e4 .cfa: sp 80 +
STACK CFI 442f8 .cfa: x29 80 + x19: .cfa -8 + ^ x20: .cfa -16 + ^ x21: .cfa -24 + ^ x22: .cfa -32 + ^ x23: .cfa -40 + ^ x24: .cfa -48 + ^ x25: .cfa -64 + ^ .ra: .cfa -72 + ^ x29: .cfa -80 + ^
STACK CFI 44398 .cfa: sp 80 +
STACK CFI 443ac .cfa: sp 0 +
STACK CFI 443b0 .cfa: x29 80 +
STACK CFI INIT 443f4 e0 .cfa: sp 0 +
STACK CFI 443f8 .cfa: sp 32 +
STACK CFI 44400 .cfa: x29 32 + x19: .cfa -8 + ^ x20: .cfa -16 + ^ .ra: .cfa -24 + ^ x29: .cfa -32 + ^
STACK CFI 4449c .cfa: sp 32 +
STACK CFI 444a4 .cfa: sp 0 +
STACK CFI 444a8 .cfa: x29 32 +
STACK CFI INIT 444f0 168 .cfa: sp 0 +
STACK CFI 444f4 .cfa: sp 384 +
STACK CFI 44508 .cfa: x29 64 + x19: .cfa -8 + ^ x20: .cfa -16 + ^ x21: .cfa -24 + ^ x22: .cfa -32 + ^ x23: .cfa -40 + ^ x28: .cfa -48 + ^ .ra: .cfa -56 + ^ x29: .cfa -64 + ^
STACK CFI 44600 .cfa: sp 384 +
STACK CFI 44614 .cfa: sp 0 +
STACK CFI 44618 .cfa: x29 64 +
STACK CFI INIT 44658 50 .cfa: sp 0 +
STACK CFI 4465c .cfa: sp 32 +
STACK CFI 44664 .cfa: x29 32 + x19: .cfa -8 + ^ x20: .cfa -16 + ^ .ra: .cfa -24 + ^ x29: .cfa -32 + ^
STACK CFI INIT 44700 16c .cfa: sp 0 +
STACK CFI 44704 .cfa: sp 144 +
STACK CFI 44718 .cfa: x29 64 + x19: .cfa -8 + ^ x20: .cfa -16 + ^ x21: .cfa -24 + ^ x22: .cfa -32 + ^ x23: .cfa -40 + ^ x24: .cfa -48 + ^ .ra: .cfa -56 + ^ x29: .cfa -64 + ^
STACK CFI 44800 .cfa: sp 144 +
STACK CFI 44814 .cfa: sp 0 +
STACK CFI 44818 .cfa: x29 64 +
STACK CFI INIT 44958 150 .cfa: sp 0 +
STACK CFI 4495c .cfa: sp 176 +
STACK CFI 4496c .cfa: x29 48 + x19: .cfa -8 + ^ x20: .cfa -16 + ^ x21: .cfa -32 + ^ .ra: .cfa -40 + ^ x29: .cfa -48 + ^
STACK CFI 44a58 .cfa: sp 176 +
STACK CFI 44a68 .cfa: sp 0 +
STACK CFI 44a6c .cfa: x29 48 +
STACK CFI INIT 4500c c00 .cfa: sp 0 +
STACK CFI 45010 .cfa: sp 96 +
STACK CFI 45028 .cfa: x29 96 + x19: .cfa -8 + ^ x20: .cfa -16 + ^ x21: .cfa -24 + ^ x22: .cfa -32 + ^ x23: .cfa -40 + ^ x24: .cfa -48 + ^ x25: .cfa -56 + ^ x26: .cfa -64 + ^ x27: .cfa -72 + ^ x28: .cfa -80 + ^ .ra: .cfa -88 + ^ x29: .cfa -96 + ^
STACK CFI 458c0 .cfa: sp 96 +
STACK CFI 458d8 .cfa: sp 0 +
STACK CFI 458dc .cfa: x29 96 +
STACK CFI INIT 45c0c 12f8 .cfa: sp 0 +
STACK CFI 45c10 .cfa: sp 112 +
STACK CFI 45c2c .cfa: x29 96 + x19: .cfa -8 + ^ x20: .cfa -16 + ^ x21: .cfa -24 + ^ x22: .cfa -32 + ^ x23: .cfa -40 + ^ x24: .cfa -48 + ^ x25: .cfa -56 + ^ x26: .cfa -64 + ^ x27: .cfa -72 + ^ x28: .cfa -80 + ^ .ra: .cfa -88 + ^ x29: .cfa -96 + ^ v8: .cfa -112 + ^
STACK CFI 46128 .cfa: sp 112 +
STACK CFI 46144 .cfa: sp 0 +
STACK CFI 46148 .cfa: x29 96 +
STACK CFI INIT 46f04 168 .cfa: sp 0 +
STACK CFI 46f08 .cfa: sp 224 +
STACK CFI 46f18 .cfa: x29 48 + x19: .cfa -8 + ^ x20: .cfa -16 + ^ x21: .cfa -32 + ^ .ra: .cfa -40 + ^ x29: .cfa -48 + ^
STACK CFI 47020 .cfa: sp 224 +
STACK CFI 47030 .cfa: sp 0 +
STACK CFI 47034 .cfa: x29 48 +
STACK CFI INIT 47168 6c8 .cfa: sp 0 +
STACK CFI 4716c .cfa: sp 240 +
STACK CFI 47188 .cfa: x29 96 + x19: .cfa -8 + ^ x20: .cfa -16 + ^ x21: .cfa -24 + ^ x22: .cfa -32 + ^ x23: .cfa -40 + ^ x24: .cfa -48 + ^ x25: .cfa -56 + ^ x26: .cfa -64 + ^ x27: .cfa -72 + ^ x28: .cfa -80 + ^ .ra: .cfa -88 + ^ x29: .cfa -96 + ^
STACK CFI 47208 .cfa: sp 240 +
STACK CFI 47224 .cfa: sp 0 +
STACK CFI 47228 .cfa: x29 96 +
STACK CFI INIT 48198 43c .cfa: sp 0 +
STACK CFI 4819c .cfa: sp 128 +
STACK CFI 481b8 .cfa: x29 96 + x19: .cfa -8 + ^ x20: .cfa -16 + ^ x21: .cfa -24 + ^ x22: .cfa -32 + ^ x23: .cfa -40 + ^ x24: .cfa -48 + ^ x25: .cfa -56 + ^ x26: .cfa -64 + ^ x27: .cfa -72 + ^ x28: .cfa -80 + ^ .ra: .cfa -88 + ^ x29: .cfa -96 + ^
STACK CFI 48588 .cfa: sp 128 +
STACK CFI 485a4 .cfa: sp 0 +
STACK CFI 485a8 .cfa: x29 96 +
STACK CFI INIT 48794 13c .cfa: sp 0 +
STACK CFI 48798 .cfa: sp 48 +
STACK CFI 487a4 .cfa: x29 48 + x19: .cfa -8 + ^ x20: .cfa -16 + ^ x21: .cfa -24 + ^ x22: .cfa -32 + ^ .ra: .cfa -40 + ^ x29: .cfa -48 + ^
STACK CFI 48898 .cfa: sp 48 +
STACK CFI 488a4 .cfa: sp 0 +
STACK CFI 488a8 .cfa: x29 48 +
STACK CFI INIT 48a28 1cc .cfa: sp 0 +
STACK CFI 48a2c .cfa: sp 128 +
STACK CFI 48a3c .cfa: x29 48 + x19: .cfa -8 + ^ x20: .cfa -16 + ^ x21: .cfa -32 + ^ .ra: .cfa -40 + ^ x29: .cfa -48 + ^
STACK CFI 48b78 .cfa: sp 128 +
STACK CFI 48b88 .cfa: sp 0 +
STACK CFI 48b8c .cfa: x29 48 +
STACK CFI INIT 48fa0 198 .cfa: sp 0 +
STACK CFI 48fa4 .cfa: sp 128 +
STACK CFI 48fb8 .cfa: x29 64 + x19: .cfa -8 + ^ x20: .cfa -16 + ^ x21: .cfa -24 + ^ x22: .cfa -32 + ^ x23: .cfa -48 + ^ .ra: .cfa -56 + ^ x29: .cfa -64 + ^
STACK CFI 490f8 .cfa: sp 128 +
STACK CFI 4910c .cfa: sp 0 +
STACK CFI 49110 .cfa: x29 64 +
STACK CFI INIT 4944c 188 .cfa: sp 0 +
STACK CFI 49450 .cfa: sp 112 +
STACK CFI 49460 .cfa: x29 48 + x19: .cfa -8 + ^ x20: .cfa -16 + ^ x21: .cfa -24 + ^ x22: .cfa -32 + ^ .ra: .cfa -40 + ^ x29: .cfa -48 + ^
STACK CFI 49598 .cfa: sp 112 +
STACK CFI 495a8 .cfa: sp 0 +
STACK CFI 495ac .cfa: x29 48 +
STACK CFI INIT 496c4 2c8 .cfa: sp 0 +
STACK CFI 496c8 .cfa: sp 256 +
STACK CFI 496d8 .cfa: x29 48 + x19: .cfa -8 + ^ x20: .cfa -16 + ^ x21: .cfa -24 + ^ x22: .cfa -32 + ^ .ra: .cfa -40 + ^ x29: .cfa -48 + ^
STACK CFI 4986c .cfa: sp 256 +
STACK CFI 4987c .cfa: sp 0 +
STACK CFI 49880 .cfa: x29 48 +
STACK CFI INIT 49a48 d8 .cfa: sp 0 +
STACK CFI 49a4c .cfa: sp 32 +
STACK CFI 49a54 .cfa: x29 32 + x19: .cfa -16 + ^ .ra: .cfa -24 + ^ x29: .cfa -32 + ^
STACK CFI 49b10 .cfa: sp 32 +
STACK CFI 49b18 .cfa: sp 0 +
STACK CFI 49b1c .cfa: x29 32 +
STACK CFI INIT 49b20 e0 .cfa: sp 0 +
STACK CFI 49b24 .cfa: sp 32 +
STACK CFI 49b2c .cfa: x29 32 + x19: .cfa -16 + ^ .ra: .cfa -24 + ^ x29: .cfa -32 + ^
STACK CFI 49bf0 .cfa: sp 32 +
STACK CFI 49bf8 .cfa: sp 0 +
STACK CFI 49bfc .cfa: x29 32 +
STACK CFI INIT 49c60 3a0 .cfa: sp 0 +
STACK CFI 49c64 .cfa: sp 176 +
STACK CFI 49c80 .cfa: x29 40 + x19: .cfa -8 + ^ x20: .cfa -16 + ^ x21: .cfa -24 + ^ .ra: .cfa -32 + ^ x29: .cfa -40 + ^ v8: .cfa -48 + ^ v9: .cfa -56 + ^ v10: .cfa -64 + ^ v11: .cfa -72 + ^ v12: .cfa -80 + ^
STACK CFI 49f68 .cfa: sp 176 +
STACK CFI 49f84 .cfa: sp 0 +
STACK CFI 49f88 .cfa: x29 40 +
STACK CFI INIT 4a000 134 .cfa: sp 0 +
STACK CFI 4a004 .cfa: sp 96 +
STACK CFI 4a014 .cfa: x29 48 + x19: .cfa -8 + ^ x20: .cfa -16 + ^ x21: .cfa -32 + ^ .ra: .cfa -40 + ^ x29: .cfa -48 + ^
STACK CFI 4a0e8 .cfa: sp 96 +
STACK CFI 4a0f8 .cfa: sp 0 +
STACK CFI 4a0fc .cfa: x29 48 +
STACK CFI INIT 4a134 dc .cfa: sp 0 +
STACK CFI 4a138 .cfa: sp 32 +
STACK CFI 4a140 .cfa: x29 32 + x19: .cfa -8 + ^ x20: .cfa -16 + ^ .ra: .cfa -24 + ^ x29: .cfa -32 + ^
STACK CFI 4a200 .cfa: sp 32 +
STACK CFI 4a208 .cfa: sp 0 +
STACK CFI 4a20c .cfa: x29 32 +
STACK CFI INIT 4a210 e4 .cfa: sp 0 +
STACK CFI 4a214 .cfa: sp 32 +
STACK CFI 4a21c .cfa: x29 32 + x19: .cfa -8 + ^ x20: .cfa -16 + ^ .ra: .cfa -24 + ^ x29: .cfa -32 + ^
STACK CFI 4a2e4 .cfa: sp 32 +
STACK CFI 4a2ec .cfa: sp 0 +
STACK CFI 4a2f0 .cfa: x29 32 +
STACK CFI INIT 4a33c 6c .cfa: sp 0 +
STACK CFI 4a340 .cfa: sp 32 +
STACK CFI 4a348 .cfa: x29 32 + x19: .cfa -16 + ^ .ra: .cfa -24 + ^ x29: .cfa -32 + ^
STACK CFI 4a398 .cfa: sp 32 +
STACK CFI 4a3a0 .cfa: sp 0 +
STACK CFI 4a3a4 .cfa: x29 32 +
STACK CFI INIT 4a3ac 6c .cfa: sp 0 +
STACK CFI 4a3b0 .cfa: sp 32 +
STACK CFI 4a3b8 .cfa: x29 32 + x19: .cfa -16 + ^ .ra: .cfa -24 + ^ x29: .cfa -32 + ^
STACK CFI 4a408 .cfa: sp 32 +
STACK CFI 4a410 .cfa: sp 0 +
STACK CFI 4a414 .cfa: x29 32 +
STACK CFI INIT 4a474 708 .cfa: sp 0 +
STACK CFI 4a478 .cfa: sp 432 +
STACK CFI 4a498 .cfa: x29 96 + x19: .cfa -8 + ^ x20: .cfa -16 + ^ x21: .cfa -24 + ^ x22: .cfa -32 + ^ x23: .cfa -40 + ^ x24: .cfa -48 + ^ x25: .cfa -56 + ^ x26: .cfa -64 + ^ x27: .cfa -72 + ^ x28: .cfa -80 + ^ .ra: .cfa -88 + ^ x29: .cfa -96 + ^ v8: .cfa -104 + ^ v9: .cfa -112 + ^
STACK CFI 4aa7c .cfa: sp 432 +
STACK CFI 4aa9c .cfa: sp 0 +
STACK CFI 4aaa0 .cfa: x29 96 +
STACK CFI INIT 4ac54 4d0 .cfa: sp 0 +
STACK CFI 4ac58 .cfa: sp 96 +
STACK CFI 4ac70 .cfa: x29 96 + x19: .cfa -8 + ^ x20: .cfa -16 + ^ x21: .cfa -24 + ^ x22: .cfa -32 + ^ x23: .cfa -40 + ^ x24: .cfa -48 + ^ x25: .cfa -56 + ^ x26: .cfa -64 + ^ x27: .cfa -72 + ^ x28: .cfa -80 + ^ .ra: .cfa -88 + ^ x29: .cfa -96 + ^
STACK CFI 4adc8 .cfa: sp 96 +
STACK CFI 4ade0 .cfa: sp 0 +
STACK CFI 4ade4 .cfa: x29 96 +
STACK CFI 4adf0 .cfa: sp 96 +
STACK CFI 4ae08 .cfa: sp 0 +
STACK CFI 4ae0c .cfa: x29 96 +
STACK CFI 4ae70 .cfa: sp 96 +
STACK CFI 4ae88 .cfa: sp 0 +
STACK CFI 4ae8c .cfa: x29 96 +
STACK CFI 4b0b0 .cfa: sp 96 +
STACK CFI 4b0c8 .cfa: sp 0 +
STACK CFI 4b0cc .cfa: x29 96 +
STACK CFI INIT 4b124 4c .cfa: sp 0 +
STACK CFI 4b128 .cfa: sp 32 +
STACK CFI 4b130 .cfa: x29 32 + x19: .cfa -8 + ^ x20: .cfa -16 + ^ .ra: .cfa -24 + ^ x29: .cfa -32 + ^
STACK CFI INIT 4b6d4 4c .cfa: sp 0 +
STACK CFI 4b6d8 .cfa: sp 32 +
STACK CFI 4b6e0 .cfa: x29 32 + x19: .cfa -8 + ^ x20: .cfa -16 + ^ .ra: .cfa -24 + ^ x29: .cfa -32 + ^
STACK CFI INIT 4b838 364 .cfa: sp 0 +
STACK CFI 4b83c .cfa: sp 144 +
STACK CFI 4b850 .cfa: x29 64 + x19: .cfa -8 + ^ x20: .cfa -16 + ^ x21: .cfa -24 + ^ x22: .cfa -32 + ^ x23: .cfa -48 + ^ .ra: .cfa -56 + ^ x29: .cfa -64 + ^
STACK CFI 4b9e4 .cfa: sp 144 +
STACK CFI 4b9f8 .cfa: sp 0 +
STACK CFI 4b9fc .cfa: x29 64 +
STACK CFI INIT 4bb9c 678 .cfa: sp 0 +
STACK CFI 4bba0 .cfa: sp 64 +
STACK CFI 4bbb0 .cfa: x29 64 + x19: .cfa -8 + ^ x20: .cfa -16 + ^ x21: .cfa -24 + ^ x22: .cfa -32 + ^ x23: .cfa -48 + ^ .ra: .cfa -56 + ^ x29: .cfa -64 + ^
STACK CFI 4bc24 .cfa: sp 64 +
STACK CFI 4bc34 .cfa: sp 0 +
STACK CFI 4bc38 .cfa: x29 64 +
STACK CFI 4bc40 .cfa: sp 64 +
STACK CFI 4bc50 .cfa: sp 0 +
STACK CFI 4bc54 .cfa: x29 64 +
STACK CFI 4bc80 .cfa: sp 64 +
STACK CFI 4bc90 .cfa: sp 0 +
STACK CFI 4bc94 .cfa: x29 64 +
STACK CFI 4bd1c .cfa: sp 64 +
STACK CFI 4bd2c .cfa: sp 0 +
STACK CFI 4bd30 .cfa: x29 64 +
STACK CFI 4bd60 .cfa: sp 64 +
STACK CFI 4bd70 .cfa: sp 0 +
STACK CFI 4bd74 .cfa: x29 64 +
STACK CFI 4bef8 .cfa: sp 64 +
STACK CFI 4bf08 .cfa: sp 0 +
STACK CFI 4bf0c .cfa: x29 64 +
STACK CFI 4bf28 .cfa: sp 64 +
STACK CFI 4bf38 .cfa: sp 0 +
STACK CFI 4bf3c .cfa: x29 64 +
STACK CFI 4c0d8 .cfa: sp 64 +
STACK CFI 4c0e8 .cfa: sp 0 +
STACK CFI 4c0ec .cfa: x29 64 +
STACK CFI 4c178 .cfa: sp 64 +
STACK CFI 4c188 .cfa: sp 0 +
STACK CFI 4c18c .cfa: x29 64 +
STACK CFI INIT 4c614 6c .cfa: sp 0 +
STACK CFI 4c618 .cfa: sp 32 +
STACK CFI 4c620 .cfa: x29 32 + x19: .cfa -8 + ^ x20: .cfa -16 + ^ .ra: .cfa -24 + ^ x29: .cfa -32 + ^
STACK CFI 4c660 .cfa: sp 32 +
STACK CFI 4c668 .cfa: sp 0 +
STACK CFI 4c66c .cfa: x29 32 +
STACK CFI INIT 4c734 4c .cfa: sp 0 +
STACK CFI 4c738 .cfa: sp 32 +
STACK CFI 4c740 .cfa: x29 32 + x19: .cfa -8 + ^ x20: .cfa -16 + ^ .ra: .cfa -24 + ^ x29: .cfa -32 + ^
STACK CFI INIT 4cba8 1d0 .cfa: sp 0 +
STACK CFI 4cbac .cfa: sp 176 +
STACK CFI 4cbbc .cfa: x29 48 + x19: .cfa -8 + ^ x20: .cfa -16 + ^ x21: .cfa -24 + ^ x22: .cfa -32 + ^ .ra: .cfa -40 + ^ x29: .cfa -48 + ^
STACK CFI 4cd10 .cfa: sp 176 +
STACK CFI 4cd20 .cfa: sp 0 +
STACK CFI 4cd24 .cfa: x29 48 +
STACK CFI 4cd34 .cfa: sp 176 +
STACK CFI 4cd44 .cfa: sp 0 +
STACK CFI 4cd48 .cfa: x29 48 +
STACK CFI INIT 4cd78 440 .cfa: sp 0 +
STACK CFI 4cd7c .cfa: sp 256 +
STACK CFI 4cd98 .cfa: x29 96 + x19: .cfa -8 + ^ x20: .cfa -16 + ^ x21: .cfa -24 + ^ x22: .cfa -32 + ^ x23: .cfa -40 + ^ x24: .cfa -48 + ^ x25: .cfa -56 + ^ x26: .cfa -64 + ^ x27: .cfa -80 + ^ .ra: .cfa -88 + ^ x29: .cfa -96 + ^
STACK CFI 4d0bc .cfa: sp 256 +
STACK CFI 4d0d8 .cfa: sp 0 +
STACK CFI 4d0dc .cfa: x29 96 +
STACK CFI INIT 4d3e0 4c .cfa: sp 0 +
STACK CFI 4d3e4 .cfa: sp 32 +
STACK CFI 4d3ec .cfa: x29 32 + x19: .cfa -8 + ^ x20: .cfa -16 + ^ .ra: .cfa -24 + ^ x29: .cfa -32 + ^
STACK CFI INIT 4d42c 170 .cfa: sp 0 +
STACK CFI 4d430 .cfa: sp 80 +
STACK CFI 4d444 .cfa: x29 80 + x19: .cfa -8 + ^ x20: .cfa -16 + ^ x21: .cfa -24 + ^ x22: .cfa -32 + ^ x23: .cfa -40 + ^ x24: .cfa -48 + ^ x25: .cfa -64 + ^ .ra: .cfa -72 + ^ x29: .cfa -80 + ^
STACK CFI 4d538 .cfa: sp 80 +
STACK CFI 4d54c .cfa: sp 0 +
STACK CFI 4d550 .cfa: x29 80 +
STACK CFI INIT 4d59c 4c .cfa: sp 0 +
STACK CFI 4d5a0 .cfa: sp 32 +
STACK CFI 4d5a8 .cfa: x29 32 + x19: .cfa -8 + ^ x20: .cfa -16 + ^ .ra: .cfa -24 + ^ x29: .cfa -32 + ^
STACK CFI INIT 4db24 11e8 .cfa: sp 0 +
STACK CFI 4db28 .cfa: sp 448 +
STACK CFI 4db44 .cfa: x29 96 + x19: .cfa -8 + ^ x20: .cfa -16 + ^ x21: .cfa -24 + ^ x22: .cfa -32 + ^ x23: .cfa -40 + ^ x24: .cfa -48 + ^ x25: .cfa -56 + ^ x26: .cfa -64 + ^ x27: .cfa -72 + ^ x28: .cfa -80 + ^ .ra: .cfa -88 + ^ x29: .cfa -96 + ^
STACK CFI 4e9e8 .cfa: sp 448 +
STACK CFI 4ea04 .cfa: sp 0 +
STACK CFI 4ea08 .cfa: x29 96 +
STACK CFI INIT 4ed0c 4c .cfa: sp 0 +
STACK CFI 4ed10 .cfa: sp 32 +
STACK CFI 4ed18 .cfa: x29 32 + x19: .cfa -8 + ^ x20: .cfa -16 + ^ .ra: .cfa -24 + ^ x29: .cfa -32 + ^
STACK CFI INIT 4eda0 4c .cfa: sp 0 +
STACK CFI 4eda4 .cfa: sp 32 +
STACK CFI 4edac .cfa: x29 32 + x19: .cfa -8 + ^ x20: .cfa -16 + ^ .ra: .cfa -24 + ^ x29: .cfa -32 + ^
STACK CFI INIT 4f304 140 .cfa: sp 0 +
STACK CFI 4f308 .cfa: sp 48 +
STACK CFI 4f314 .cfa: x29 48 + x19: .cfa -8 + ^ x20: .cfa -16 + ^ x21: .cfa -32 + ^ .ra: .cfa -40 + ^ x29: .cfa -48 + ^
STACK CFI 4f3f4 .cfa: sp 48 +
STACK CFI 4f400 .cfa: sp 0 +
STACK CFI 4f404 .cfa: x29 48 +
STACK CFI INIT 4f444 4c .cfa: sp 0 +
STACK CFI 4f448 .cfa: sp 32 +
STACK CFI 4f450 .cfa: x29 32 + x19: .cfa -8 + ^ x20: .cfa -16 + ^ .ra: .cfa -24 + ^ x29: .cfa -32 + ^
STACK CFI INIT 4fd94 1d8 .cfa: sp 0 +
STACK CFI 4fd98 .cfa: sp 128 +
STACK CFI 4fdb0 .cfa: x29 80 + x19: .cfa -8 + ^ x20: .cfa -16 + ^ x21: .cfa -24 + ^ x22: .cfa -32 + ^ x23: .cfa -40 + ^ x24: .cfa -48 + ^ x25: .cfa -64 + ^ .ra: .cfa -72 + ^ x29: .cfa -80 + ^
STACK CFI 4fea0 .cfa: sp 128 +
STACK CFI 4feb8 .cfa: sp 0 +
STACK CFI 4febc .cfa: x29 80 +
STACK CFI INIT 50190 c34 .cfa: sp 0 +
STACK CFI 50194 .cfa: sp 256 +
STACK CFI 501b0 .cfa: x29 96 + x19: .cfa -8 + ^ x20: .cfa -16 + ^ x21: .cfa -24 + ^ x22: .cfa -32 + ^ x23: .cfa -40 + ^ x24: .cfa -48 + ^ x25: .cfa -56 + ^ x26: .cfa -64 + ^ x27: .cfa -72 + ^ x28: .cfa -80 + ^ .ra: .cfa -88 + ^ x29: .cfa -96 + ^
STACK CFI 50b48 .cfa: sp 256 +
STACK CFI 50b64 .cfa: sp 0 +
STACK CFI 50b68 .cfa: x29 96 +
STACK CFI INIT 50e08 1d4 .cfa: sp 0 +
STACK CFI 50e0c .cfa: sp 112 +
STACK CFI 50e24 .cfa: x29 80 + x19: .cfa -8 + ^ x20: .cfa -16 + ^ x21: .cfa -24 + ^ x22: .cfa -32 + ^ x23: .cfa -40 + ^ x24: .cfa -48 + ^ x25: .cfa -56 + ^ x26: .cfa -64 + ^ .ra: .cfa -72 + ^ x29: .cfa -80 + ^
STACK CFI 50f60 .cfa: sp 112 +
STACK CFI 50f78 .cfa: sp 0 +
STACK CFI 50f7c .cfa: x29 80 +
STACK CFI INIT 50ff0 4c .cfa: sp 0 +
STACK CFI 50ff4 .cfa: sp 32 +
STACK CFI 50ffc .cfa: x29 32 + x19: .cfa -8 + ^ x20: .cfa -16 + ^ .ra: .cfa -24 + ^ x29: .cfa -32 + ^
STACK CFI INIT 51a4c 4c .cfa: sp 0 +
STACK CFI 51a50 .cfa: sp 32 +
STACK CFI 51a58 .cfa: x29 32 + x19: .cfa -8 + ^ x20: .cfa -16 + ^ .ra: .cfa -24 + ^ x29: .cfa -32 + ^
STACK CFI INIT 51a98 31c .cfa: sp 0 +
STACK CFI 51a9c .cfa: sp 144 +
STACK CFI 51ab4 .cfa: x29 80 + x19: .cfa -8 + ^ x20: .cfa -16 + ^ x21: .cfa -24 + ^ x22: .cfa -32 + ^ x23: .cfa -40 + ^ x24: .cfa -48 + ^ x25: .cfa -64 + ^ .ra: .cfa -72 + ^ x29: .cfa -80 + ^
STACK CFI 51d20 .cfa: sp 144 +
STACK CFI 51d38 .cfa: sp 0 +
STACK CFI 51d3c .cfa: x29 80 +
STACK CFI INIT 51db4 4c .cfa: sp 0 +
STACK CFI 51db8 .cfa: sp 32 +
STACK CFI 51dc0 .cfa: x29 32 + x19: .cfa -8 + ^ x20: .cfa -16 + ^ .ra: .cfa -24 + ^ x29: .cfa -32 + ^
STACK CFI INIT 51e00 1c4 .cfa: sp 0 +
STACK CFI 51e04 .cfa: sp 112 +
STACK CFI 51e1c .cfa: x29 80 + x19: .cfa -8 + ^ x20: .cfa -16 + ^ x21: .cfa -24 + ^ x22: .cfa -32 + ^ x23: .cfa -40 + ^ x24: .cfa -48 + ^ x25: .cfa -64 + ^ .ra: .cfa -72 + ^ x29: .cfa -80 + ^
STACK CFI 51f60 .cfa: sp 112 +
STACK CFI 51f78 .cfa: sp 0 +
STACK CFI 51f7c .cfa: x29 80 +
STACK CFI INIT 51fc4 4c .cfa: sp 0 +
STACK CFI 51fc8 .cfa: sp 32 +
STACK CFI 51fd0 .cfa: x29 32 + x19: .cfa -8 + ^ x20: .cfa -16 + ^ .ra: .cfa -24 + ^ x29: .cfa -32 + ^
STACK CFI INIT 522d8 140 .cfa: sp 0 +
STACK CFI 522dc .cfa: sp 96 +
STACK CFI 522f4 .cfa: x29 96 + x19: .cfa -8 + ^ x20: .cfa -16 + ^ x21: .cfa -24 + ^ x22: .cfa -32 + ^ x23: .cfa -40 + ^ x24: .cfa -48 + ^ x25: .cfa -56 + ^ x26: .cfa -64 + ^ x27: .cfa -72 + ^ x28: .cfa -80 + ^ .ra: .cfa -88 + ^ x29: .cfa -96 + ^
STACK CFI 523b0 .cfa: sp 96 +
STACK CFI 523c8 .cfa: sp 0 +
STACK CFI 523cc .cfa: x29 96 +
STACK CFI INIT 52418 4c .cfa: sp 0 +
STACK CFI 5241c .cfa: sp 32 +
STACK CFI 52424 .cfa: x29 32 + x19: .cfa -8 + ^ x20: .cfa -16 + ^ .ra: .cfa -24 + ^ x29: .cfa -32 + ^
STACK CFI INIT 52464 4c .cfa: sp 0 +
STACK CFI 52468 .cfa: sp 32 +
STACK CFI 52470 .cfa: x29 32 + x19: .cfa -8 + ^ x20: .cfa -16 + ^ .ra: .cfa -24 + ^ x29: .cfa -32 + ^
STACK CFI INIT 52940 4c .cfa: sp 0 +
STACK CFI 52944 .cfa: sp 32 +
STACK CFI 5294c .cfa: x29 32 + x19: .cfa -8 + ^ x20: .cfa -16 + ^ .ra: .cfa -24 + ^ x29: .cfa -32 + ^
STACK CFI INIT 53414 e80 .cfa: sp 0 +
STACK CFI 53418 .cfa: sp 352 +
STACK CFI 53434 .cfa: x29 96 + x19: .cfa -8 + ^ x20: .cfa -16 + ^ x21: .cfa -24 + ^ x22: .cfa -32 + ^ x23: .cfa -40 + ^ x24: .cfa -48 + ^ x25: .cfa -56 + ^ x26: .cfa -64 + ^ x27: .cfa -72 + ^ x28: .cfa -80 + ^ .ra: .cfa -88 + ^ x29: .cfa -96 + ^
STACK CFI 54188 .cfa: sp 352 +
STACK CFI 541a4 .cfa: sp 0 +
STACK CFI 541a8 .cfa: x29 96 +
STACK CFI INIT 54294 9c8 .cfa: sp 0 +
STACK CFI 54298 .cfa: sp 400 +
STACK CFI 542b4 .cfa: x29 96 + x19: .cfa -8 + ^ x20: .cfa -16 + ^ x21: .cfa -24 + ^ x22: .cfa -32 + ^ x23: .cfa -40 + ^ x24: .cfa -48 + ^ x25: .cfa -56 + ^ x26: .cfa -64 + ^ x27: .cfa -72 + ^ x28: .cfa -80 + ^ .ra: .cfa -88 + ^ x29: .cfa -96 + ^
STACK CFI 54b80 .cfa: sp 400 +
STACK CFI 54b9c .cfa: sp 0 +
STACK CFI 54ba0 .cfa: x29 96 +
STACK CFI INIT 54e24 5d8 .cfa: sp 0 +
STACK CFI 54e28 .cfa: sp 112 +
STACK CFI 54e44 .cfa: x29 96 + x19: .cfa -8 + ^ x20: .cfa -16 + ^ x21: .cfa -24 + ^ x22: .cfa -32 + ^ x23: .cfa -40 + ^ x24: .cfa -48 + ^ x25: .cfa -56 + ^ x26: .cfa -64 + ^ x27: .cfa -80 + ^ .ra: .cfa -88 + ^ x29: .cfa -96 + ^
STACK CFI 54f9c .cfa: sp 112 +
STACK CFI 54fb8 .cfa: sp 0 +
STACK CFI 54fbc .cfa: x29 96 +
STACK CFI 552e4 .cfa: sp 112 +
STACK CFI 55300 .cfa: sp 0 +
STACK CFI 55304 .cfa: x29 96 +
STACK CFI INIT 559b4 1c .cfa: sp 0 +
STACK CFI 559b8 .cfa: sp 16 +
STACK CFI 559bc .cfa: x29 16 + .ra: .cfa -8 + ^ x29: .cfa -16 + ^
STACK CFI 559c4 .cfa: sp 16 +
STACK CFI 559c8 .cfa: sp 0 +
STACK CFI 559cc .cfa: x29 16 +
STACK CFI INIT 55a74 2094 .cfa: sp 0 +
STACK CFI 55a78 .cfa: sp 112 +
STACK CFI 55a94 .cfa: x29 96 + x19: .cfa -8 + ^ x20: .cfa -16 + ^ x21: .cfa -24 + ^ x22: .cfa -32 + ^ x23: .cfa -40 + ^ x24: .cfa -48 + ^ x25: .cfa -56 + ^ x26: .cfa -64 + ^ x27: .cfa -72 + ^ x28: .cfa -80 + ^ .ra: .cfa -88 + ^ x29: .cfa -96 + ^ v8: .cfa -104 + ^ v9: .cfa -112 + ^
STACK CFI 572dc .cfa: sp 112 +
STACK CFI 572f8 .cfa: sp 0 +
STACK CFI 572fc .cfa: x29 96 +
STACK CFI INIT 57f0c 74 .cfa: sp 0 +
STACK CFI 57f10 .cfa: sp 48 +
STACK CFI 57f1c .cfa: x29 32 + x19: .cfa -8 + ^ x20: .cfa -16 + ^ .ra: .cfa -24 + ^ x29: .cfa -32 + ^
STACK CFI 57f68 .cfa: sp 48 +
STACK CFI 57f74 .cfa: sp 0 +
STACK CFI 57f78 .cfa: x29 32 +
STACK CFI INIT 57f9c 310 .cfa: sp 0 +
STACK CFI 57fa0 .cfa: sp 208 +
STACK CFI 57fb4 .cfa: x29 64 + x19: .cfa -8 + ^ x20: .cfa -16 + ^ x21: .cfa -24 + ^ x22: .cfa -32 + ^ x23: .cfa -40 + ^ x24: .cfa -48 + ^ .ra: .cfa -56 + ^ x29: .cfa -64 + ^
STACK CFI 581b4 .cfa: sp 208 +
STACK CFI 581c8 .cfa: sp 0 +
STACK CFI 581cc .cfa: x29 64 +
STACK CFI INIT 582c4 3e4 .cfa: sp 0 +
STACK CFI 582c8 .cfa: sp 160 +
STACK CFI 582e4 .cfa: x29 96 + x19: .cfa -8 + ^ x20: .cfa -16 + ^ x21: .cfa -24 + ^ x22: .cfa -32 + ^ x23: .cfa -40 + ^ x24: .cfa -48 + ^ x25: .cfa -56 + ^ x26: .cfa -64 + ^ x27: .cfa -80 + ^ .ra: .cfa -88 + ^ x29: .cfa -96 + ^
STACK CFI 58640 .cfa: sp 160 +
STACK CFI 5865c .cfa: sp 0 +
STACK CFI 58660 .cfa: x29 96 +
STACK CFI INIT 587fc 74 .cfa: sp 0 +
STACK CFI 58800 .cfa: sp 48 +
STACK CFI 5880c .cfa: x29 32 + x19: .cfa -8 + ^ x20: .cfa -16 + ^ .ra: .cfa -24 + ^ x29: .cfa -32 + ^
STACK CFI 58858 .cfa: sp 48 +
STACK CFI 58864 .cfa: sp 0 +
STACK CFI 58868 .cfa: x29 32 +
STACK CFI INIT 58900 88 .cfa: sp 0 +
STACK CFI 58904 .cfa: sp 32 +
STACK CFI 5890c .cfa: x29 32 + x19: .cfa -8 + ^ x20: .cfa -16 + ^ .ra: .cfa -24 + ^ x29: .cfa -32 + ^
STACK CFI 5894c .cfa: sp 32 +
STACK CFI 58954 .cfa: sp 0 +
STACK CFI 58958 .cfa: x29 32 +
STACK CFI 58968 .cfa: sp 32 +
STACK CFI 58970 .cfa: sp 0 +
STACK CFI 58974 .cfa: x29 32 +
STACK CFI INIT 58a10 ec .cfa: sp 0 +
STACK CFI 58a14 .cfa: sp 64 +
STACK CFI 58a20 .cfa: x29 32 + x19: .cfa -8 + ^ x20: .cfa -16 + ^ .ra: .cfa -24 + ^ x29: .cfa -32 + ^
STACK CFI 58aa8 .cfa: sp 64 +
STACK CFI 58ab4 .cfa: sp 0 +
STACK CFI 58ab8 .cfa: x29 32 +
STACK CFI INIT 58b7c 26c .cfa: sp 0 +
STACK CFI 58b80 .cfa: sp 240 +
STACK CFI 58b90 .cfa: x29 48 + x19: .cfa -8 + ^ x20: .cfa -16 + ^ x21: .cfa -32 + ^ .ra: .cfa -40 + ^ x29: .cfa -48 + ^
STACK CFI 58d7c .cfa: sp 240 +
STACK CFI 58d8c .cfa: sp 0 +
STACK CFI 58d90 .cfa: x29 48 +
STACK CFI INIT 58fa0 138 .cfa: sp 0 +
STACK CFI 58fa4 .cfa: sp 80 +
STACK CFI 58fb4 .cfa: x29 48 + x19: .cfa -8 + ^ x20: .cfa -16 + ^ x21: .cfa -24 + ^ x22: .cfa -32 + ^ .ra: .cfa -40 + ^ x29: .cfa -48 + ^
STACK CFI 5909c .cfa: sp 80 +
STACK CFI 590ac .cfa: sp 0 +
STACK CFI 590b0 .cfa: x29 48 +
STACK CFI INIT 591a8 230 .cfa: sp 0 +
STACK CFI 591ac .cfa: sp 240 +
STACK CFI 591bc .cfa: x29 48 + x19: .cfa -8 + ^ x20: .cfa -16 + ^ x21: .cfa -24 + ^ x22: .cfa -32 + ^ .ra: .cfa -40 + ^ x29: .cfa -48 + ^
STACK CFI 5936c .cfa: sp 240 +
STACK CFI 5937c .cfa: sp 0 +
STACK CFI 59380 .cfa: x29 48 +
STACK CFI INIT 594cc 118 .cfa: sp 0 +
STACK CFI 594d0 .cfa: sp 80 +
STACK CFI 594e0 .cfa: x29 48 + x19: .cfa -8 + ^ x20: .cfa -16 + ^ x21: .cfa -24 + ^ x22: .cfa -32 + ^ .ra: .cfa -40 + ^ x29: .cfa -48 + ^
STACK CFI 595c8 .cfa: sp 80 +
STACK CFI 595d8 .cfa: sp 0 +
STACK CFI 595dc .cfa: x29 48 +
STACK CFI INIT 595e4 1ec .cfa: sp 0 +
STACK CFI 595e8 .cfa: sp 128 +
STACK CFI 59604 .cfa: x29 96 + x19: .cfa -8 + ^ x20: .cfa -16 + ^ x21: .cfa -24 + ^ x22: .cfa -32 + ^ x23: .cfa -40 + ^ x24: .cfa -48 + ^ x25: .cfa -56 + ^ x26: .cfa -64 + ^ x27: .cfa -72 + ^ x28: .cfa -80 + ^ .ra: .cfa -88 + ^ x29: .cfa -96 + ^
STACK CFI 59788 .cfa: sp 128 +
STACK CFI 597a4 .cfa: sp 0 +
STACK CFI 597a8 .cfa: x29 96 +
STACK CFI INIT 597e8 1cc .cfa: sp 0 +
STACK CFI 597ec .cfa: sp 128 +
STACK CFI 597fc .cfa: x29 48 + x19: .cfa -8 + ^ x20: .cfa -16 + ^ x21: .cfa -32 + ^ .ra: .cfa -40 + ^ x29: .cfa -48 + ^
STACK CFI 59938 .cfa: sp 128 +
STACK CFI 59948 .cfa: sp 0 +
STACK CFI 5994c .cfa: x29 48 +
STACK CFI INIT 59c24 3fc .cfa: sp 0 +
STACK CFI 59c28 .cfa: sp 144 +
STACK CFI 59c44 .cfa: x29 96 + x19: .cfa -8 + ^ x20: .cfa -16 + ^ x21: .cfa -24 + ^ x22: .cfa -32 + ^ x23: .cfa -40 + ^ x24: .cfa -48 + ^ x25: .cfa -56 + ^ x26: .cfa -64 + ^ x27: .cfa -80 + ^ .ra: .cfa -88 + ^ x29: .cfa -96 + ^
STACK CFI 59f24 .cfa: sp 144 +
STACK CFI 59f40 .cfa: sp 0 +
STACK CFI 59f44 .cfa: x29 96 +
STACK CFI INIT 5a020 178 .cfa: sp 0 +
STACK CFI 5a024 .cfa: sp 96 +
STACK CFI 5a034 .cfa: x29 48 + x19: .cfa -8 + ^ x20: .cfa -16 + ^ x21: .cfa -32 + ^ .ra: .cfa -40 + ^ x29: .cfa -48 + ^
STACK CFI 5a0b8 .cfa: sp 96 +
STACK CFI 5a0c8 .cfa: sp 0 +
STACK CFI 5a0cc .cfa: x29 48 +
STACK CFI INIT 5a2d8 1e8 .cfa: sp 0 +
STACK CFI 5a2dc .cfa: sp 304 +
STACK CFI 5a2f0 .cfa: x29 64 + x19: .cfa -8 + ^ x20: .cfa -16 + ^ x21: .cfa -24 + ^ x22: .cfa -32 + ^ x23: .cfa -40 + ^ x28: .cfa -48 + ^ .ra: .cfa -56 + ^ x29: .cfa -64 + ^
STACK CFI 5a3ec .cfa: sp 304 +
STACK CFI 5a400 .cfa: sp 0 +
STACK CFI 5a404 .cfa: x29 64 +
STACK CFI INIT 5a52c 74 .cfa: sp 0 +
STACK CFI 5a530 .cfa: sp 48 +
STACK CFI 5a53c .cfa: x29 32 + x19: .cfa -8 + ^ x20: .cfa -16 + ^ .ra: .cfa -24 + ^ x29: .cfa -32 + ^
STACK CFI 5a588 .cfa: sp 48 +
STACK CFI 5a594 .cfa: sp 0 +
STACK CFI 5a598 .cfa: x29 32 +
STACK CFI INIT 5a5a0 92c .cfa: sp 0 +
STACK CFI 5a5a4 .cfa: sp 96 +
STACK CFI 5a5bc .cfa: x29 96 + x19: .cfa -8 + ^ x20: .cfa -16 + ^ x21: .cfa -24 + ^ x22: .cfa -32 + ^ x23: .cfa -40 + ^ x24: .cfa -48 + ^ x25: .cfa -56 + ^ x26: .cfa -64 + ^ x27: .cfa -72 + ^ x28: .cfa -80 + ^ .ra: .cfa -88 + ^ x29: .cfa -96 + ^
STACK CFI 5ac1c .cfa: sp 96 +
STACK CFI 5ac34 .cfa: sp 0 +
STACK CFI 5ac38 .cfa: x29 96 +
STACK CFI INIT 5afa8 168 .cfa: sp 0 +
STACK CFI 5afac .cfa: sp 144 +
STACK CFI 5afbc .cfa: x29 48 + x19: .cfa -8 + ^ x20: .cfa -16 + ^ x21: .cfa -24 + ^ x22: .cfa -32 + ^ .ra: .cfa -40 + ^ x29: .cfa -48 + ^
STACK CFI 5b0a4 .cfa: sp 144 +
STACK CFI 5b0b4 .cfa: sp 0 +
STACK CFI 5b0b8 .cfa: x29 48 +
STACK CFI INIT 5b110 74 .cfa: sp 0 +
STACK CFI 5b114 .cfa: sp 48 +
STACK CFI 5b120 .cfa: x29 32 + x19: .cfa -8 + ^ x20: .cfa -16 + ^ .ra: .cfa -24 + ^ x29: .cfa -32 + ^
STACK CFI 5b16c .cfa: sp 48 +
STACK CFI 5b178 .cfa: sp 0 +
STACK CFI 5b17c .cfa: x29 32 +
STACK CFI INIT 5b230 2e4 .cfa: sp 0 +
STACK CFI 5b234 .cfa: sp 144 +
STACK CFI 5b250 .cfa: x29 96 + x19: .cfa -8 + ^ x20: .cfa -16 + ^ x21: .cfa -24 + ^ x22: .cfa -32 + ^ x23: .cfa -40 + ^ x24: .cfa -48 + ^ x25: .cfa -56 + ^ x26: .cfa -64 + ^ x27: .cfa -80 + ^ .ra: .cfa -88 + ^ x29: .cfa -96 + ^
STACK CFI 5b448 .cfa: sp 144 +
STACK CFI 5b464 .cfa: sp 0 +
STACK CFI 5b468 .cfa: x29 96 +
STACK CFI INIT 5b564 46c .cfa: sp 0 +
STACK CFI 5b568 .cfa: sp 176 +
STACK CFI 5b57c .cfa: x29 64 + x19: .cfa -8 + ^ x20: .cfa -16 + ^ x21: .cfa -24 + ^ x22: .cfa -32 + ^ x23: .cfa -40 + ^ x24: .cfa -48 + ^ .ra: .cfa -56 + ^ x29: .cfa -64 + ^
STACK CFI 5b87c .cfa: sp 176 +
STACK CFI 5b890 .cfa: sp 0 +
STACK CFI 5b894 .cfa: x29 64 +
STACK CFI INIT 5b9d4 184 .cfa: sp 0 +
STACK CFI 5b9d8 .cfa: sp 144 +
STACK CFI 5b9f0 .cfa: x29 80 + x19: .cfa -8 + ^ x20: .cfa -16 + ^ x21: .cfa -24 + ^ x22: .cfa -32 + ^ x23: .cfa -40 + ^ x24: .cfa -48 + ^ x25: .cfa -56 + ^ x26: .cfa -64 + ^ .ra: .cfa -72 + ^ x29: .cfa -80 + ^
STACK CFI 5baf0 .cfa: sp 144 +
STACK CFI 5bb08 .cfa: sp 0 +
STACK CFI 5bb0c .cfa: x29 80 +
STACK CFI INIT 5be80 5c4 .cfa: sp 0 +
STACK CFI 5be84 .cfa: sp 176 +
STACK CFI 5bea0 .cfa: x29 96 + x19: .cfa -8 + ^ x20: .cfa -16 + ^ x21: .cfa -24 + ^ x22: .cfa -32 + ^ x23: .cfa -40 + ^ x24: .cfa -48 + ^ x25: .cfa -56 + ^ x26: .cfa -64 + ^ x27: .cfa -72 + ^ x28: .cfa -80 + ^ .ra: .cfa -88 + ^ x29: .cfa -96 + ^
STACK CFI 5c2e0 .cfa: sp 176 +
STACK CFI 5c2fc .cfa: sp 0 +
STACK CFI 5c300 .cfa: x29 96 +
STACK CFI INIT 5c530 204 .cfa: sp 0 +
STACK CFI 5c534 .cfa: sp 128 +
STACK CFI 5c548 .cfa: x29 64 + x19: .cfa -8 + ^ x20: .cfa -16 + ^ x21: .cfa -24 + ^ x22: .cfa -32 + ^ x23: .cfa -40 + ^ x24: .cfa -48 + ^ .ra: .cfa -56 + ^ x29: .cfa -64 + ^
STACK CFI 5c66c .cfa: sp 128 +
STACK CFI 5c680 .cfa: sp 0 +
STACK CFI 5c684 .cfa: x29 64 +
STACK CFI INIT 5c9f0 198 .cfa: sp 0 +
STACK CFI 5c9f4 .cfa: sp 128 +
STACK CFI 5ca08 .cfa: x29 64 + x19: .cfa -8 + ^ x20: .cfa -16 + ^ x21: .cfa -24 + ^ x22: .cfa -32 + ^ x23: .cfa -48 + ^ .ra: .cfa -56 + ^ x29: .cfa -64 + ^
STACK CFI 5cb48 .cfa: sp 128 +
STACK CFI 5cb5c .cfa: sp 0 +
STACK CFI 5cb60 .cfa: x29 64 +
STACK CFI INIT 5ce9c 188 .cfa: sp 0 +
STACK CFI 5cea0 .cfa: sp 112 +
STACK CFI 5ceb0 .cfa: x29 48 + x19: .cfa -8 + ^ x20: .cfa -16 + ^ x21: .cfa -24 + ^ x22: .cfa -32 + ^ .ra: .cfa -40 + ^ x29: .cfa -48 + ^
STACK CFI 5cfe8 .cfa: sp 112 +
STACK CFI 5cff8 .cfa: sp 0 +
STACK CFI 5cffc .cfa: x29 48 +
STACK CFI INIT 5d04c 2f4 .cfa: sp 0 +
STACK CFI 5d050 .cfa: sp 176 +
STACK CFI 5d064 .cfa: x29 64 + x19: .cfa -8 + ^ x20: .cfa -16 + ^ x21: .cfa -24 + ^ x22: .cfa -32 + ^ x23: .cfa -48 + ^ .ra: .cfa -56 + ^ x29: .cfa -64 + ^
STACK CFI 5d238 .cfa: sp 176 +
STACK CFI 5d24c .cfa: sp 0 +
STACK CFI 5d250 .cfa: x29 64 +
STACK CFI INIT 5d344 688 .cfa: sp 0 +
STACK CFI 5d348 .cfa: sp 304 +
STACK CFI 5d360 .cfa: x29 80 + x19: .cfa -8 + ^ x20: .cfa -16 + ^ x21: .cfa -24 + ^ x22: .cfa -32 + ^ x23: .cfa -40 + ^ x24: .cfa -48 + ^ x25: .cfa -56 + ^ x28: .cfa -64 + ^ .ra: .cfa -72 + ^ x29: .cfa -80 + ^
STACK CFI 5d85c .cfa: sp 304 +
STACK CFI 5d874 .cfa: sp 0 +
STACK CFI 5d878 .cfa: x29 80 +
STACK CFI INIT 5d9cc a8 .cfa: sp 0 +
STACK CFI 5d9d0 .cfa: sp 32 +
STACK CFI 5d9d8 .cfa: x29 32 + x19: .cfa -16 + ^ .ra: .cfa -24 + ^ x29: .cfa -32 + ^
STACK CFI 5da0c .cfa: sp 32 +
STACK CFI 5da14 .cfa: sp 0 +
STACK CFI 5da18 .cfa: x29 32 +
STACK CFI 5da1c .cfa: sp 32 +
STACK CFI 5da24 .cfa: sp 0 +
STACK CFI 5da28 .cfa: x29 32 +
STACK CFI INIT 5db10 21c .cfa: sp 0 +
STACK CFI 5db14 .cfa: sp 160 +
STACK CFI 5db24 .cfa: x29 48 + x19: .cfa -8 + ^ x20: .cfa -16 + ^ x21: .cfa -24 + ^ x22: .cfa -32 + ^ .ra: .cfa -40 + ^ x29: .cfa -48 + ^
STACK CFI 5dc68 .cfa: sp 160 +
STACK CFI 5dc78 .cfa: sp 0 +
STACK CFI 5dc7c .cfa: x29 48 +
STACK CFI INIT 5dd2c 4b4 .cfa: sp 0 +
STACK CFI 5dd30 .cfa: sp 208 +
STACK CFI 5dd44 .cfa: x29 64 + x19: .cfa -8 + ^ x20: .cfa -16 + ^ x21: .cfa -24 + ^ x22: .cfa -32 + ^ x23: .cfa -48 + ^ .ra: .cfa -56 + ^ x29: .cfa -64 + ^
STACK CFI 5e09c .cfa: sp 208 +
STACK CFI 5e0b0 .cfa: sp 0 +
STACK CFI 5e0b4 .cfa: x29 64 +
STACK CFI INIT 5e29c e88 .cfa: sp 0 +
STACK CFI 5e2a0 .cfa: sp 432 +
STACK CFI 5e2bc .cfa: x29 96 + x19: .cfa -8 + ^ x20: .cfa -16 + ^ x21: .cfa -24 + ^ x22: .cfa -32 + ^ x23: .cfa -40 + ^ x24: .cfa -48 + ^ x25: .cfa -56 + ^ x26: .cfa -64 + ^ x27: .cfa -72 + ^ x28: .cfa -80 + ^ .ra: .cfa -88 + ^ x29: .cfa -96 + ^
STACK CFI 5ee84 .cfa: sp 432 +
STACK CFI 5eea0 .cfa: sp 0 +
STACK CFI 5eea4 .cfa: x29 96 +
STACK CFI INIT 5f2c8 74 .cfa: sp 0 +
STACK CFI 5f2cc .cfa: sp 48 +
STACK CFI 5f2d8 .cfa: x29 32 + x19: .cfa -8 + ^ x20: .cfa -16 + ^ .ra: .cfa -24 + ^ x29: .cfa -32 + ^
STACK CFI 5f324 .cfa: sp 48 +
STACK CFI 5f330 .cfa: sp 0 +
STACK CFI 5f334 .cfa: x29 32 +
STACK CFI INIT 5f394 d0 .cfa: sp 0 +
STACK CFI 5f398 .cfa: sp 64 +
STACK CFI 5f3a4 .cfa: x29 32 + x19: .cfa -8 + ^ x20: .cfa -16 + ^ .ra: .cfa -24 + ^ x29: .cfa -32 + ^
STACK CFI 5f424 .cfa: sp 64 +
STACK CFI 5f430 .cfa: sp 0 +
STACK CFI 5f434 .cfa: x29 32 +
STACK CFI INIT 5f4ec 5b4 .cfa: sp 0 +
STACK CFI 5f4f0 .cfa: sp 208 +
STACK CFI 5f504 .cfa: x29 64 + x19: .cfa -8 + ^ x20: .cfa -16 + ^ x21: .cfa -24 + ^ x22: .cfa -32 + ^ x23: .cfa -40 + ^ x24: .cfa -48 + ^ .ra: .cfa -56 + ^ x29: .cfa -64 + ^
STACK CFI 5f704 .cfa: sp 208 +
STACK CFI 5f718 .cfa: sp 0 +
STACK CFI 5f71c .cfa: x29 64 +
STACK CFI INIT 5fba8 c4 .cfa: sp 0 +
STACK CFI 5fbac .cfa: sp 64 +
STACK CFI 5fbb8 .cfa: x29 32 + x19: .cfa -8 + ^ x20: .cfa -16 + ^ .ra: .cfa -24 + ^ x29: .cfa -32 + ^
STACK CFI 5fc2c .cfa: sp 64 +
STACK CFI 5fc38 .cfa: sp 0 +
STACK CFI 5fc3c .cfa: x29 32 +
STACK CFI INIT 5fcdc 614 .cfa: sp 0 +
STACK CFI 5fce0 .cfa: sp 240 +
STACK CFI 5fcf0 .cfa: x29 48 + x19: .cfa -8 + ^ x20: .cfa -16 + ^ x21: .cfa -24 + ^ x22: .cfa -32 + ^ .ra: .cfa -40 + ^ x29: .cfa -48 + ^
STACK CFI 6012c .cfa: sp 240 +
STACK CFI 6013c .cfa: sp 0 +
STACK CFI 60140 .cfa: x29 48 +
STACK CFI INIT 60370 74 .cfa: sp 0 +
STACK CFI 60374 .cfa: sp 48 +
STACK CFI 60380 .cfa: x29 32 + x19: .cfa -8 + ^ x20: .cfa -16 + ^ .ra: .cfa -24 + ^ x29: .cfa -32 + ^
STACK CFI 603cc .cfa: sp 48 +
STACK CFI 603d8 .cfa: sp 0 +
STACK CFI 603dc .cfa: x29 32 +
STACK CFI INIT 60424 8f4 .cfa: sp 0 +
STACK CFI 60428 .cfa: sp 304 +
STACK CFI 60444 .cfa: x29 96 + x19: .cfa -8 + ^ x20: .cfa -16 + ^ x21: .cfa -24 + ^ x22: .cfa -32 + ^ x23: .cfa -40 + ^ x24: .cfa -48 + ^ x25: .cfa -56 + ^ x26: .cfa -64 + ^ x27: .cfa -72 + ^ x28: .cfa -80 + ^ .ra: .cfa -88 + ^ x29: .cfa -96 + ^
STACK CFI 60a9c .cfa: sp 304 +
STACK CFI 60ab8 .cfa: sp 0 +
STACK CFI 60abc .cfa: x29 96 +
STACK CFI INIT 60e08 c4 .cfa: sp 0 +
STACK CFI 60e0c .cfa: sp 64 +
STACK CFI 60e18 .cfa: x29 32 + x19: .cfa -8 + ^ x20: .cfa -16 + ^ .ra: .cfa -24 + ^ x29: .cfa -32 + ^
STACK CFI 60e8c .cfa: sp 64 +
STACK CFI 60e98 .cfa: sp 0 +
STACK CFI 60e9c .cfa: x29 32 +
STACK CFI INIT 60f34 c4 .cfa: sp 0 +
STACK CFI 60f38 .cfa: sp 64 +
STACK CFI 60f44 .cfa: x29 32 + x19: .cfa -8 + ^ x20: .cfa -16 + ^ .ra: .cfa -24 + ^ x29: .cfa -32 + ^
STACK CFI 60fb8 .cfa: sp 64 +
STACK CFI 60fc4 .cfa: sp 0 +
STACK CFI 60fc8 .cfa: x29 32 +
STACK CFI INIT 610b8 f8 .cfa: sp 0 +
STACK CFI 610bc .cfa: sp 48 +
STACK CFI 610c8 .cfa: x29 48 + x19: .cfa -8 + ^ x20: .cfa -16 + ^ x21: .cfa -32 + ^ .ra: .cfa -40 + ^ x29: .cfa -48 + ^
STACK CFI 61134 .cfa: sp 48 +
STACK CFI 61140 .cfa: sp 0 +
STACK CFI 61144 .cfa: x29 48 +
STACK CFI INIT 6125c 1a8 .cfa: sp 0 +
STACK CFI 61260 .cfa: sp 144 +
STACK CFI 61270 .cfa: x29 48 + x19: .cfa -8 + ^ x20: .cfa -16 + ^ x21: .cfa -32 + ^ .ra: .cfa -40 + ^ x29: .cfa -48 + ^
STACK CFI 6132c .cfa: sp 144 +
STACK CFI 6133c .cfa: sp 0 +
STACK CFI 61340 .cfa: x29 48 +
STACK CFI INIT 61430 174 .cfa: sp 0 +
STACK CFI 61434 .cfa: sp 112 +
STACK CFI 61444 .cfa: x29 48 + x19: .cfa -8 + ^ x20: .cfa -16 + ^ x21: .cfa -32 + ^ .ra: .cfa -40 + ^ x29: .cfa -48 + ^
STACK CFI 61540 .cfa: sp 112 +
STACK CFI 61550 .cfa: sp 0 +
STACK CFI 61554 .cfa: x29 48 +
STACK CFI INIT 61744 1a8 .cfa: sp 0 +
STACK CFI 61748 .cfa: sp 144 +
STACK CFI 61758 .cfa: x29 48 + x19: .cfa -8 + ^ x20: .cfa -16 + ^ x21: .cfa -32 + ^ .ra: .cfa -40 + ^ x29: .cfa -48 + ^
STACK CFI 61814 .cfa: sp 144 +
STACK CFI 61824 .cfa: sp 0 +
STACK CFI 61828 .cfa: x29 48 +
STACK CFI INIT 61918 174 .cfa: sp 0 +
STACK CFI 6191c .cfa: sp 112 +
STACK CFI 6192c .cfa: x29 48 + x19: .cfa -8 + ^ x20: .cfa -16 + ^ x21: .cfa -32 + ^ .ra: .cfa -40 + ^ x29: .cfa -48 + ^
STACK CFI 61a28 .cfa: sp 112 +
STACK CFI 61a38 .cfa: sp 0 +
STACK CFI 61a3c .cfa: x29 48 +
STACK CFI INIT 414a8 688 .cfa: sp 0 +
STACK CFI 414ac .cfa: sp 176 +
STACK CFI 414c0 .cfa: x29 64 + x19: .cfa -8 + ^ x20: .cfa -16 + ^ x21: .cfa -24 + ^ x22: .cfa -32 + ^ x23: .cfa -48 + ^ .ra: .cfa -56 + ^ x29: .cfa -64 + ^
STACK CFI 418d0 .cfa: sp 176 +
STACK CFI 418e4 .cfa: sp 0 +
STACK CFI 418e8 .cfa: x29 64 +
STACK CFI INIT 61dac 134 .cfa: sp 0 +
STACK CFI 61db0 .cfa: sp 80 +
STACK CFI 61dbc .cfa: x29 32 + x19: .cfa -8 + ^ x20: .cfa -16 + ^ .ra: .cfa -24 + ^ x29: .cfa -32 + ^
STACK CFI 61dec .cfa: sp 80 +
STACK CFI 61df8 .cfa: sp 0 +
STACK CFI 61dfc .cfa: x29 32 +
STACK CFI INIT 61ee0 78 .cfa: sp 0 +
STACK CFI 61ee4 .cfa: sp 32 +
STACK CFI 61eec .cfa: x29 32 + x19: .cfa -8 + ^ x20: .cfa -16 + ^ .ra: .cfa -24 + ^ x29: .cfa -32 + ^
STACK CFI 61ef8 .cfa: sp 32 +
STACK CFI 61f00 .cfa: sp 0 +
STACK CFI 61f04 .cfa: x29 32 +
STACK CFI INIT 61f58 74 .cfa: sp 0 +
STACK CFI 61f5c .cfa: sp 48 +
STACK CFI 61f68 .cfa: x29 32 + x19: .cfa -8 + ^ x20: .cfa -16 + ^ .ra: .cfa -24 + ^ x29: .cfa -32 + ^
STACK CFI 61fb4 .cfa: sp 48 +
STACK CFI 61fc0 .cfa: sp 0 +
STACK CFI 61fc4 .cfa: x29 32 +
STACK CFI INIT 62054 25c .cfa: sp 0 +
STACK CFI 62058 .cfa: sp 128 +
STACK CFI 62068 .cfa: x29 48 + x19: .cfa -8 + ^ x20: .cfa -16 + ^ x21: .cfa -32 + ^ .ra: .cfa -40 + ^ x29: .cfa -48 + ^
STACK CFI 62150 .cfa: sp 128 +
STACK CFI 62160 .cfa: sp 0 +
STACK CFI 62164 .cfa: x29 48 +
STACK CFI INIT 62328 300 .cfa: sp 0 +
STACK CFI 6232c .cfa: sp 144 +
STACK CFI 62340 .cfa: x29 64 + x19: .cfa -8 + ^ x20: .cfa -16 + ^ x21: .cfa -24 + ^ x22: .cfa -32 + ^ x23: .cfa -48 + ^ .ra: .cfa -56 + ^ x29: .cfa -64 + ^
STACK CFI 624d4 .cfa: sp 144 +
STACK CFI 624e8 .cfa: sp 0 +
STACK CFI 624ec .cfa: x29 64 +
STACK CFI INIT 6267c 264 .cfa: sp 0 +
STACK CFI 62680 .cfa: sp 128 +
STACK CFI 62690 .cfa: x29 48 + x19: .cfa -8 + ^ x20: .cfa -16 + ^ x21: .cfa -32 + ^ .ra: .cfa -40 + ^ x29: .cfa -48 + ^
STACK CFI 62788 .cfa: sp 128 +
STACK CFI 62798 .cfa: sp 0 +
STACK CFI 6279c .cfa: x29 48 +
STACK CFI INIT 62934 2b8 .cfa: sp 0 +
STACK CFI 62938 .cfa: sp 144 +
STACK CFI 6294c .cfa: x29 64 + x19: .cfa -8 + ^ x20: .cfa -16 + ^ x21: .cfa -24 + ^ x22: .cfa -32 + ^ x23: .cfa -48 + ^ .ra: .cfa -56 + ^ x29: .cfa -64 + ^
STACK CFI 62a98 .cfa: sp 144 +
STACK CFI 62aac .cfa: sp 0 +
STACK CFI 62ab0 .cfa: x29 64 +
STACK CFI INIT 62c10 2b8 .cfa: sp 0 +
STACK CFI 62c14 .cfa: sp 128 +
STACK CFI 62c24 .cfa: x29 48 + x19: .cfa -8 + ^ x20: .cfa -16 + ^ x21: .cfa -32 + ^ .ra: .cfa -40 + ^ x29: .cfa -48 + ^
STACK CFI 62d50 .cfa: sp 128 +
STACK CFI 62d60 .cfa: sp 0 +
STACK CFI 62d64 .cfa: x29 48 +
STACK CFI INIT 62fdc 1b8 .cfa: sp 0 +
STACK CFI 62fe0 .cfa: sp 160 +
STACK CFI 62ffc .cfa: x29 72 + x19: .cfa -8 + ^ x20: .cfa -16 + ^ x21: .cfa -24 + ^ x22: .cfa -32 + ^ x23: .cfa -40 + ^ x24: .cfa -48 + ^ x25: .cfa -56 + ^ .ra: .cfa -64 + ^ x29: .cfa -72 + ^ v8: .cfa -80 + ^
STACK CFI 63080 .cfa: sp 160 +
STACK CFI 6309c .cfa: sp 0 +
STACK CFI 630a0 .cfa: x29 72 +
STACK CFI INIT 63194 164 .cfa: sp 0 +
STACK CFI 63198 .cfa: sp 64 +
STACK CFI 631a8 .cfa: x29 48 + x19: .cfa -8 + ^ x20: .cfa -16 + ^ x21: .cfa -24 + ^ x22: .cfa -32 + ^ .ra: .cfa -40 + ^ x29: .cfa -48 + ^
STACK CFI 63298 .cfa: sp 64 +
STACK CFI 632a8 .cfa: sp 0 +
STACK CFI 632ac .cfa: x29 48 +
STACK CFI INIT 632f8 ac .cfa: sp 0 +
STACK CFI 632fc .cfa: sp 64 +
STACK CFI 6330c .cfa: x29 48 + x19: .cfa -8 + ^ x20: .cfa -16 + ^ x21: .cfa -32 + ^ .ra: .cfa -40 + ^ x29: .cfa -48 + ^
STACK CFI 63368 .cfa: sp 64 +
STACK CFI 63378 .cfa: sp 0 +
STACK CFI 6337c .cfa: x29 48 +
STACK CFI INIT 634f8 2e4 .cfa: sp 0 +
STACK CFI 634fc .cfa: sp 144 +
STACK CFI 63510 .cfa: x29 64 + x19: .cfa -8 + ^ x20: .cfa -16 + ^ x21: .cfa -24 + ^ x22: .cfa -32 + ^ x23: .cfa -48 + ^ .ra: .cfa -56 + ^ x29: .cfa -64 + ^
STACK CFI 63688 .cfa: sp 144 +
STACK CFI 6369c .cfa: sp 0 +
STACK CFI 636a0 .cfa: x29 64 +
STACK CFI INIT 637dc 338 .cfa: sp 0 +
STACK CFI 637e0 .cfa: sp 144 +
STACK CFI 637f4 .cfa: x29 64 + x19: .cfa -8 + ^ x20: .cfa -16 + ^ x21: .cfa -24 + ^ x22: .cfa -32 + ^ x23: .cfa -48 + ^ .ra: .cfa -56 + ^ x29: .cfa -64 + ^
STACK CFI 63990 .cfa: sp 144 +
STACK CFI 639a4 .cfa: sp 0 +
STACK CFI 639a8 .cfa: x29 64 +
STACK CFI INIT 63b14 2f0 .cfa: sp 0 +
STACK CFI 63b18 .cfa: sp 144 +
STACK CFI 63b2c .cfa: x29 64 + x19: .cfa -8 + ^ x20: .cfa -16 + ^ x21: .cfa -24 + ^ x22: .cfa -32 + ^ x23: .cfa -48 + ^ .ra: .cfa -56 + ^ x29: .cfa -64 + ^
STACK CFI 63cb0 .cfa: sp 144 +
STACK CFI 63cc4 .cfa: sp 0 +
STACK CFI 63cc8 .cfa: x29 64 +
STACK CFI INIT 63e04 2a0 .cfa: sp 0 +
STACK CFI 63e08 .cfa: sp 144 +
STACK CFI 63e1c .cfa: x29 64 + x19: .cfa -8 + ^ x20: .cfa -16 + ^ x21: .cfa -24 + ^ x22: .cfa -32 + ^ x23: .cfa -48 + ^ .ra: .cfa -56 + ^ x29: .cfa -64 + ^
STACK CFI 63f50 .cfa: sp 144 +
STACK CFI 63f64 .cfa: sp 0 +
STACK CFI 63f68 .cfa: x29 64 +
STACK CFI INIT 640a4 2e4 .cfa: sp 0 +
STACK CFI 640a8 .cfa: sp 144 +
STACK CFI 640bc .cfa: x29 64 + x19: .cfa -8 + ^ x20: .cfa -16 + ^ x21: .cfa -24 + ^ x22: .cfa -32 + ^ x23: .cfa -48 + ^ .ra: .cfa -56 + ^ x29: .cfa -64 + ^
STACK CFI 64234 .cfa: sp 144 +
STACK CFI 64248 .cfa: sp 0 +
STACK CFI 6424c .cfa: x29 64 +
STACK CFI INIT 64388 4f4 .cfa: sp 0 +
STACK CFI 6438c .cfa: sp 144 +
STACK CFI 643a0 .cfa: x29 64 + x19: .cfa -8 + ^ x20: .cfa -16 + ^ x21: .cfa -24 + ^ x22: .cfa -32 + ^ x23: .cfa -48 + ^ .ra: .cfa -56 + ^ x29: .cfa -64 + ^
STACK CFI 646d4 .cfa: sp 144 +
STACK CFI 646e8 .cfa: sp 0 +
STACK CFI 646ec .cfa: x29 64 +
STACK CFI INIT 6487c 154 .cfa: sp 0 +
STACK CFI 64880 .cfa: sp 384 +
STACK CFI 64894 .cfa: x29 64 + x19: .cfa -8 + ^ x20: .cfa -16 + ^ x21: .cfa -24 + ^ x22: .cfa -32 + ^ x23: .cfa -40 + ^ x28: .cfa -48 + ^ .ra: .cfa -56 + ^ x29: .cfa -64 + ^
STACK CFI 64978 .cfa: sp 384 +
STACK CFI 6498c .cfa: sp 0 +
STACK CFI 64990 .cfa: x29 64 +
STACK CFI INIT 649e8 50c .cfa: sp 0 +
STACK CFI 649ec .cfa: sp 64 +
STACK CFI 649fc .cfa: x29 64 + x19: .cfa -8 + ^ x20: .cfa -16 + ^ x21: .cfa -24 + ^ x22: .cfa -32 + ^ x23: .cfa -40 + ^ x24: .cfa -48 + ^ .ra: .cfa -56 + ^ x29: .cfa -64 + ^
STACK CFI 64b1c .cfa: sp 64 +
STACK CFI 64b2c .cfa: sp 0 +
STACK CFI 64b30 .cfa: x29 64 +
STACK CFI 64ec8 .cfa: sp 64 +
STACK CFI 64ed8 .cfa: sp 0 +
STACK CFI 64edc .cfa: x29 64 +
STACK CFI INIT 65224 294 .cfa: sp 0 +
STACK CFI 65228 .cfa: sp 240 +
STACK CFI 65240 .cfa: x29 80 + x19: .cfa -8 + ^ x20: .cfa -16 + ^ x21: .cfa -24 + ^ x22: .cfa -32 + ^ x23: .cfa -40 + ^ x24: .cfa -48 + ^ x25: .cfa -64 + ^ .ra: .cfa -72 + ^ x29: .cfa -80 + ^
STACK CFI 653e0 .cfa: sp 240 +
STACK CFI 653f8 .cfa: sp 0 +
STACK CFI 653fc .cfa: x29 80 +
STACK CFI INIT 65534 50 .cfa: sp 0 +
STACK CFI 65538 .cfa: sp 32 +
STACK CFI 65540 .cfa: x29 32 + x19: .cfa -8 + ^ x20: .cfa -16 + ^ .ra: .cfa -24 + ^ x29: .cfa -32 + ^
STACK CFI INIT 655b0 7c0 .cfa: sp 0 +
STACK CFI 655b4 .cfa: sp 320 +
STACK CFI 655d0 .cfa: x29 96 + x19: .cfa -8 + ^ x20: .cfa -16 + ^ x21: .cfa -24 + ^ x22: .cfa -32 + ^ x23: .cfa -40 + ^ x24: .cfa -48 + ^ x25: .cfa -56 + ^ x26: .cfa -64 + ^ x27: .cfa -72 + ^ x28: .cfa -80 + ^ .ra: .cfa -88 + ^ x29: .cfa -96 + ^
STACK CFI 65c20 .cfa: sp 320 +
STACK CFI 65c3c .cfa: sp 0 +
STACK CFI 65c40 .cfa: x29 96 +
STACK CFI INIT 65dd4 14c .cfa: sp 0 +
STACK CFI 65dd8 .cfa: sp 80 +
STACK CFI 65dec .cfa: x29 80 + x19: .cfa -8 + ^ x20: .cfa -16 + ^ x21: .cfa -24 + ^ x22: .cfa -32 + ^ x23: .cfa -40 + ^ x24: .cfa -48 + ^ x28: .cfa -64 + ^ .ra: .cfa -72 + ^ x29: .cfa -80 + ^
STACK CFI 65e80 .cfa: sp 80 +
STACK CFI 65e94 .cfa: sp 0 +
STACK CFI 65e98 .cfa: x29 80 +
STACK CFI INIT 6a228 c74 .cfa: sp 0 +
STACK CFI 6a22c .cfa: sp 96 +
STACK CFI 6a244 .cfa: x29 96 + x19: .cfa -8 + ^ x20: .cfa -16 + ^ x21: .cfa -24 + ^ x22: .cfa -32 + ^ x23: .cfa -40 + ^ x24: .cfa -48 + ^ x25: .cfa -56 + ^ x26: .cfa -64 + ^ x27: .cfa -72 + ^ x28: .cfa -80 + ^ .ra: .cfa -88 + ^ x29: .cfa -96 + ^
STACK CFI 6acb8 .cfa: sp 96 +
STACK CFI 6acd0 .cfa: sp 0 +
STACK CFI 6acd4 .cfa: x29 96 +
STACK CFI INIT 6aff0 268 .cfa: sp 0 +
STACK CFI 6aff4 .cfa: sp 128 +
STACK CFI 6b004 .cfa: x29 48 + x19: .cfa -8 + ^ x20: .cfa -16 + ^ x21: .cfa -24 + ^ x22: .cfa -32 + ^ .ra: .cfa -40 + ^ x29: .cfa -48 + ^
STACK CFI 6b1a4 .cfa: sp 128 +
STACK CFI 6b1b4 .cfa: sp 0 +
STACK CFI 6b1b8 .cfa: x29 48 +
STACK CFI INIT 6b5e8 3b8 .cfa: sp 0 +
STACK CFI 6b5ec .cfa: sp 96 +
STACK CFI 6b604 .cfa: x29 96 + x19: .cfa -8 + ^ x20: .cfa -16 + ^ x21: .cfa -24 + ^ x22: .cfa -32 + ^ x23: .cfa -40 + ^ x24: .cfa -48 + ^ x25: .cfa -56 + ^ x26: .cfa -64 + ^ x27: .cfa -72 + ^ x28: .cfa -80 + ^ .ra: .cfa -88 + ^ x29: .cfa -96 + ^
STACK CFI 6b940 .cfa: sp 96 +
STACK CFI 6b958 .cfa: sp 0 +
STACK CFI 6b95c .cfa: x29 96 +
STACK CFI INIT 6ba40 cb0 .cfa: sp 0 +
STACK CFI 6ba44 .cfa: sp 96 +
STACK CFI 6ba5c .cfa: x29 96 + x19: .cfa -8 + ^ x20: .cfa -16 + ^ x21: .cfa -24 + ^ x22: .cfa -32 + ^ x23: .cfa -40 + ^ x24: .cfa -48 + ^ x25: .cfa -56 + ^ x26: .cfa -64 + ^ x27: .cfa -72 + ^ x28: .cfa -80 + ^ .ra: .cfa -88 + ^ x29: .cfa -96 + ^
STACK CFI 6c500 .cfa: sp 96 +
STACK CFI 6c518 .cfa: sp 0 +
STACK CFI 6c51c .cfa: x29 96 +
STACK CFI INIT 6c9d8 ae4 .cfa: sp 0 +
STACK CFI 6c9dc .cfa: sp 96 +
STACK CFI 6c9f4 .cfa: x29 96 + x19: .cfa -8 + ^ x20: .cfa -16 + ^ x21: .cfa -24 + ^ x22: .cfa -32 + ^ x23: .cfa -40 + ^ x24: .cfa -48 + ^ x25: .cfa -56 + ^ x26: .cfa -64 + ^ x27: .cfa -72 + ^ x28: .cfa -80 + ^ .ra: .cfa -88 + ^ x29: .cfa -96 + ^
STACK CFI 6d430 .cfa: sp 96 +
STACK CFI 6d448 .cfa: sp 0 +
STACK CFI 6d44c .cfa: x29 96 +
STACK CFI INIT 6d698 1424 .cfa: sp 0 +
STACK CFI 6d69c .cfa: sp 96 +
STACK CFI 6d6b4 .cfa: x29 96 + x19: .cfa -8 + ^ x20: .cfa -16 + ^ x21: .cfa -24 + ^ x22: .cfa -32 + ^ x23: .cfa -40 + ^ x24: .cfa -48 + ^ x25: .cfa -56 + ^ x26: .cfa -64 + ^ x27: .cfa -72 + ^ x28: .cfa -80 + ^ .ra: .cfa -88 + ^ x29: .cfa -96 + ^
STACK CFI 6e94c .cfa: sp 96 +
STACK CFI 6e964 .cfa: sp 0 +
STACK CFI 6e968 .cfa: x29 96 +
STACK CFI INIT 6ebe0 75c .cfa: sp 0 +
STACK CFI 6ebe4 .cfa: sp 368 +
STACK CFI 6ec00 .cfa: x29 96 + x19: .cfa -8 + ^ x20: .cfa -16 + ^ x21: .cfa -24 + ^ x22: .cfa -32 + ^ x23: .cfa -40 + ^ x24: .cfa -48 + ^ x25: .cfa -56 + ^ x26: .cfa -64 + ^ x27: .cfa -72 + ^ x28: .cfa -80 + ^ .ra: .cfa -88 + ^ x29: .cfa -96 + ^
STACK CFI 6ecb4 .cfa: sp 368 +
STACK CFI 6ecd0 .cfa: sp 0 +
STACK CFI 6ecd4 .cfa: x29 96 +
STACK CFI 6ed28 .cfa: sp 368 +
STACK CFI 6ed44 .cfa: sp 0 +
STACK CFI 6ed48 .cfa: x29 96 +
STACK CFI INIT 6f700 eac .cfa: sp 0 +
STACK CFI 6f704 .cfa: sp 96 +
STACK CFI 6f71c .cfa: x29 96 + x19: .cfa -8 + ^ x20: .cfa -16 + ^ x21: .cfa -24 + ^ x22: .cfa -32 + ^ x23: .cfa -40 + ^ x24: .cfa -48 + ^ x25: .cfa -56 + ^ x26: .cfa -64 + ^ x27: .cfa -72 + ^ x28: .cfa -80 + ^ .ra: .cfa -88 + ^ x29: .cfa -96 + ^
STACK CFI 703c0 .cfa: sp 96 +
STACK CFI 703d8 .cfa: sp 0 +
STACK CFI 703dc .cfa: x29 96 +
STACK CFI INIT 70920 1c64 .cfa: sp 0 +
STACK CFI 70924 .cfa: sp 112 +
STACK CFI 70940 .cfa: x29 96 + x19: .cfa -8 + ^ x20: .cfa -16 + ^ x21: .cfa -24 + ^ x22: .cfa -32 + ^ x23: .cfa -40 + ^ x24: .cfa -48 + ^ x25: .cfa -56 + ^ x26: .cfa -64 + ^ x27: .cfa -72 + ^ x28: .cfa -80 + ^ .ra: .cfa -88 + ^ x29: .cfa -96 + ^ v8: .cfa -112 + ^
STACK CFI 70d14 .cfa: sp 112 +
STACK CFI 70d30 .cfa: sp 0 +
STACK CFI 70d34 .cfa: x29 96 +
STACK CFI INIT 74d1c a4c .cfa: sp 0 +
STACK CFI 74d20 .cfa: sp 144 +
STACK CFI 74d38 .cfa: x29 80 + x19: .cfa -8 + ^ x20: .cfa -16 + ^ x21: .cfa -24 + ^ x22: .cfa -32 + ^ x23: .cfa -40 + ^ x24: .cfa -48 + ^ x25: .cfa -64 + ^ .ra: .cfa -72 + ^ x29: .cfa -80 + ^
STACK CFI 756c0 .cfa: sp 144 +
STACK CFI 756d8 .cfa: sp 0 +
STACK CFI 756dc .cfa: x29 80 +
STACK CFI INIT 76bfc 57c .cfa: sp 0 +
STACK CFI 76c00 .cfa: sp 96 +
STACK CFI 76c18 .cfa: x29 96 + x19: .cfa -8 + ^ x20: .cfa -16 + ^ x21: .cfa -24 + ^ x22: .cfa -32 + ^ x23: .cfa -40 + ^ x24: .cfa -48 + ^ x25: .cfa -56 + ^ x26: .cfa -64 + ^ x27: .cfa -72 + ^ x28: .cfa -80 + ^ .ra: .cfa -88 + ^ x29: .cfa -96 + ^
STACK CFI 770dc .cfa: sp 96 +
STACK CFI 770f4 .cfa: sp 0 +
STACK CFI 770f8 .cfa: x29 96 +
STACK CFI INIT 77178 67c .cfa: sp 0 +
STACK CFI 7717c .cfa: sp 96 +
STACK CFI 77194 .cfa: x29 96 + x19: .cfa -8 + ^ x20: .cfa -16 + ^ x21: .cfa -24 + ^ x22: .cfa -32 + ^ x23: .cfa -40 + ^ x24: .cfa -48 + ^ x25: .cfa -56 + ^ x26: .cfa -64 + ^ x27: .cfa -72 + ^ x28: .cfa -80 + ^ .ra: .cfa -88 + ^ x29: .cfa -96 + ^
STACK CFI 77758 .cfa: sp 96 +
STACK CFI 77770 .cfa: sp 0 +
STACK CFI 77774 .cfa: x29 96 +
