MODULE Linux arm 9CAED71BFCA77BBE2EBD7F0D0589ACC80 saumondeluxe.rainbow_icon.android32.so
INFO CODE_ID 1BD7AE9CA7FCBE7B2EBD7F0D0589ACC819ED5943
INFO GENERATOR mozilla/dump_syms 2.3.4
FILE 0 /home/runner/work/Rainbow-Icon/Rainbow-Icon/geode-sdk-clone/loader/include/Geode/utils/addresser.hpp
FILE 1 /home/runner/work/Rainbow-Icon/Rainbow-Icon/geode-sdk-clone/loader/include/Geode/c++stl/gnustl-map.hpp
FILE 2 /home/runner/work/Rainbow-Icon/Rainbow-Icon/geode-sdk-clone/loader/include/Geode/platform/ItaniumCast.hpp
FILE 3 /usr/local/lib/android/sdk/ndk/27.2.12479018/toolchains/llvm/prebuilt/linux-x86_64/sysroot/usr/include/c++/v1/ostream
FILE 4 /usr/local/lib/android/sdk/ndk/27.2.12479018/toolchains/llvm/prebuilt/linux-x86_64/sysroot/usr/include/c++/v1/variant
FILE 5 /usr/local/lib/android/sdk/ndk/27.2.12479018/toolchains/llvm/prebuilt/linux-x86_64/sysroot/usr/include/c++/v1/locale
FILE 6 /usr/local/lib/android/sdk/ndk/27.2.12479018/toolchains/llvm/prebuilt/linux-x86_64/sysroot/usr/include/c++/v1/stdexcept
FILE 7 /usr/local/lib/android/sdk/ndk/27.2.12479018/toolchains/llvm/prebuilt/linux-x86_64/sysroot/usr/include/c++/v1/__tree
FILE 8 /usr/local/lib/android/sdk/ndk/27.2.12479018/toolchains/llvm/prebuilt/linux-x86_64/sysroot/usr/include/c++/v1/new
FILE 9 /home/runner/work/Rainbow-Icon/Rainbow-Icon/build/bindings/bindings/Geode/modify/PlayerObject.hpp
FILE 10 /home/runner/work/Rainbow-Icon/Rainbow-Icon/build/bindings/bindings/Geode/modify/PlayLayer.hpp
FILE 11 /home/runner/work/Rainbow-Icon/Rainbow-Icon/build/bindings/bindings/Geode/modify/LevelEditorLayer.hpp
FILE 12 /home/runner/work/Rainbow-Icon/Rainbow-Icon/build/bindings/bindings/Geode/modify/EditorPauseLayer.hpp
FILE 13 /home/runner/work/Rainbow-Icon/Rainbow-Icon/build/bindings/bindings/Geode/modify/PauseLayer.hpp
FILE 14 /home/runner/work/Rainbow-Icon/Rainbow-Icon/src/main.cpp
FILE 15 /home/runner/work/Rainbow-Icon/Rainbow-Icon/geode-sdk-clone/loader/include/Geode/modify/Modify.hpp
FILE 16 /usr/local/lib/android/sdk/ndk/27.2.12479018/toolchains/llvm/prebuilt/linux-x86_64/sysroot/usr/include/c++/v1/__memory/shared_ptr.h
FILE 17 /home/runner/work/Rainbow-Icon/Rainbow-Icon/cpm-cache/result/28b1b03e0682509636d5e5825265ce2421aac4dc/include/Geode/Result.hpp
FILE 18 /usr/local/lib/android/sdk/ndk/27.2.12479018/toolchains/llvm/prebuilt/linux-x86_64/sysroot/usr/include/c++/v1/vector
FILE 19 /usr/local/lib/android/sdk/ndk/27.2.12479018/toolchains/llvm/prebuilt/linux-x86_64/sysroot/usr/include/c++/v1/sstream
FILE 20 /usr/local/lib/android/sdk/ndk/27.2.12479018/toolchains/llvm/prebuilt/linux-x86_64/sysroot/usr/include/c++/v1/string
FILE 21 /usr/local/lib/android/sdk/ndk/27.2.12479018/toolchains/llvm/prebuilt/linux-x86_64/sysroot/usr/include/c++/v1/__split_buffer
FILE 22 /home/runner/work/Rainbow-Icon/Rainbow-Icon/build/bindings/bindings/Geode/binding/PlayLayer.hpp
FILE 23 /home/runner/work/Rainbow-Icon/Rainbow-Icon/build/bindings/bindings/Geode/binding/GJBaseGameLayer.hpp
FILE 24 /home/runner/work/Rainbow-Icon/Rainbow-Icon/build/bindings/bindings/Geode/binding/GJGameState.hpp
FILE 25 /home/runner/work/Rainbow-Icon/Rainbow-Icon/geode-sdk-clone/loader/include/Geode/c++stl/gnustl/unordered_map.h
FILE 26 /home/runner/work/Rainbow-Icon/Rainbow-Icon/geode-sdk-clone/loader/include/Geode/c++stl/gnustl/unordered_set.h
FILE 27 /home/runner/work/Rainbow-Icon/Rainbow-Icon/geode-sdk-clone/loader/include/Geode/c++stl/gnustl.hpp
FILE 28 /usr/local/lib/android/sdk/ndk/27.2.12479018/toolchains/llvm/prebuilt/linux-x86_64/sysroot/usr/include/c++/v1/__utility/pair.h
FILE 29 /home/runner/work/Rainbow-Icon/Rainbow-Icon/geode-sdk-clone/loader/include/Geode/c++stl/gnustl/hashtable_policy.h
FILE 30 /home/runner/work/Rainbow-Icon/Rainbow-Icon/cpm-cache/tuliphook/727bc6fdab39f84eb52f1519195d5488a312e77e/include/tulip/HandlerData.hpp
FILE 31 /home/runner/work/Rainbow-Icon/Rainbow-Icon/geode-sdk-clone/loader/include/Geode/loader/Mod.hpp
FILE 32 /home/runner/work/Rainbow-Icon/Rainbow-Icon/build/bindings/bindings/Geode/binding/LevelEditorLayer.hpp
FILE 33 /home/runner/work/Rainbow-Icon/Rainbow-Icon/build/bindings/bindings/Geode/binding/PauseLayer.hpp
FILE 34 /home/runner/work/Rainbow-Icon/Rainbow-Icon/geode-sdk-clone/entry.cpp
FILE 35 /home/runner/work/Rainbow-Icon/Rainbow-Icon/build/bindings/bindings/Geode/GeneratedSource.cpp
FILE 36 /usr/local/lib/android/sdk/ndk/27.2.12479018/toolchains/llvm/prebuilt/linux-x86_64/sysroot/usr/include/c++/v1/unordered_map
FILE 37 /home/runner/work/Rainbow-Icon/Rainbow-Icon/cpm-cache/tuliphook/727bc6fdab39f84eb52f1519195d5488a312e77e/include/tulip/WrapperData.hpp
FILE 38 /home/runner/work/Rainbow-Icon/Rainbow-Icon/cpm-cache/tuliphook/727bc6fdab39f84eb52f1519195d5488a312e77e/include/tulip/AbstractFunction.hpp
FILE 39 /home/runner/work/Rainbow-Icon/Rainbow-Icon/geode-sdk-clone/loader/include/Geode/cocos/cocoa/CCObject.h
FILE 40 /home/runner/work/Rainbow-Icon/Rainbow-Icon/geode-sdk-clone/loader/include/Geode/cocos/robtop/keyboard_dispatcher/CCKeyboardDelegate.h
FILE 41 /home/runner/work/Rainbow-Icon/Rainbow-Icon/geode-sdk-clone/loader/include/Geode/cocos/robtop/mouse_dispatcher/CCMouseDelegate.h
FILE 42 /usr/local/lib/android/sdk/ndk/27.2.12479018/toolchains/llvm/prebuilt/linux-x86_64/sysroot/usr/include/c++/v1/__hash_table
PUBLIC 8fa0 0 __on_dlclose
PUBLIC 8fb0 0 __emutls_unregister_key
PUBLIC 8fb4 0 __on_dlclose_late
PUBLIC 8fb8 0 __atexit_handler_wrapper
PUBLIC 8fc4 0 atexit
PUBLIC 8fe4 0 pthread_atfork
FUNC 8ff8 1e8 0 getRainbow(float, float, float)
8ff8 8 74 14
9000 196 76 14
9196 4 81 14
919a 4 79 14
919e 4 80 14
91a2 4 81 14
91a6 4 79 14
91aa 4 80 14
91ae 4 81 14
91b2 4 80 14
91b6 6 83 14
91bc 4 79 14
91c0 20 83 14
FUNC 91e0 40 0 __cxx_global_var_init
91e4 3c 387 15
FUNC 9220 2c4 0 __cxx_global_var_init.1
922a 2ba 387 15
FUNC 94e4 2c4 0 __cxx_global_var_init.2
94ee 2ba 387 15
FUNC 97a8 1c 0 geode::modifier::ModifyBase<geode::modifier::ModifyDerive<hook98<(anonymous namespace)::hook98Parent>, PlayerObject> >::~ModifyBase()
97a8 1c 141 15
FUNC 97c4 1c 0 geode::modifier::ModifyBase<geode::modifier::ModifyDerive<hook103<(anonymous namespace)::hook103Parent>, PlayLayer> >::~ModifyBase()
97c4 1c 141 15
FUNC 97e0 1c 0 geode::modifier::ModifyBase<geode::modifier::ModifyDerive<hook237<(anonymous namespace)::hook237Parent>, LevelEditorLayer> >::~ModifyBase()
97e0 1c 141 15
FUNC 97fc 2f4 0 __cxx_global_var_init.3
981c 2d4 387 15
FUNC 9af0 1c 0 geode::modifier::ModifyBase<geode::modifier::ModifyDerive<SettingsBTN, EditorPauseLayer> >::~ModifyBase()
9af0 1c 141 15
FUNC 9b0c 2f4 0 __cxx_global_var_init.4
9b2c 2d4 387 15
FUNC 9e00 1c 0 geode::modifier::ModifyBase<geode::modifier::ModifyDerive<OpenSettings, PauseLayer> >::~ModifyBase()
9e00 1c 141 15
FUNC 9e1c 2 0 geode::modifier::ModifyDerive<hook98<(anonymous namespace)::hook98Parent>, PlayerObject>::apply()
9e1c 2 2426 9
FUNC 9e1e 3a 0 std::__ndk1::shared_ptr<geode::Hook>::~shared_ptr[abi:ne180000]()
9e1e 4 643 16
9e22 4 644 16
9e26 1a 645 16
9e40 4 646 16
9e44 12 645 16
9e56 2 646 16
FUNC 9e58 60 0 geode::impl::ResultData<geode::Hook*, std::__ndk1::basic_string<char, std::__ndk1::char_traits<char>, std::__ndk1::allocator<char> > >::~ResultData()
9e58 60 334 17
FUNC 9eb8 3e 0 std::__ndk1::vector<std::__ndk1::basic_string<char, std::__ndk1::char_traits<char>, std::__ndk1::allocator<char> >, std::__ndk1::allocator<std::__ndk1::basic_string<char, std::__ndk1::char_traits<char>, std::__ndk1::allocator<char> > > >::~vector[abi:ne180000]()
9eb8 3e 501 18
FUNC 9ef6 2 0 geode::modifier::ModifyBase<geode::modifier::ModifyDerive<hook98<(anonymous namespace)::hook98Parent>, PlayerObject> >::apply()
9ef6 2 357 15
PUBLIC 9ef9 0 __clang_call_terminate
FUNC 9f04 f8 0 _ZN5geode15UnwrapExceptionC2IRPNS_4HookEQsr4implE18IsStringStreamableIT_EEENS_4impl5OkTagEOS5_
9f04 1a 316 17
9f1e 2c 315 17
9f4a 5a 314 17
9fa4 24 316 17
9fc8 34 314 17
FUNC 9ffc 34 0 std::__ndk1::__throw_bad_variant_access[abi:ne180000]()
9ffc 4 285 4
a000 30 287 4
FUNC a030 d8 0 std::__ndk1::basic_stringstream<char, std::__ndk1::char_traits<char>, std::__ndk1::allocator<char> >::basic_stringstream[abi:ne180000]()
a030 d8 1010 19
FUNC a108 68 0 std::__ndk1::basic_stringstream<char, std::__ndk1::char_traits<char>, std::__ndk1::allocator<char> >::~basic_stringstream()
a108 68 1102 19
FUNC a170 10 0 geode::UnwrapException::~UnwrapException()
a170 10 325 17
FUNC a180 108 0 std::__ndk1::__put_character_sequence[abi:ne180000]<char, std::__ndk1::char_traits<char> >(std::__ndk1::basic_ostream<char, std::__ndk1::char_traits<char> >, std::__ndk1::basic_ostream const*, unsigned int)
a180 1c 665 3
a19c 6 669 3
a1a2 6 670 3
a1a8 c 673 3
a1b4 2 678 3
a1b6 4 675 3
a1ba 4 673 3
a1be 2a 678 3
a1e8 2 672 3
a1ea 4 675 3
a1ee 4 672 3
a1f2 8 675 3
a1fa 4 672 3
a1fe 4 675 3
a202 6 672 3
a208 16 680 3
a21e 10 683 3
a22e 16 687 3
a244 a 678 3
a24e e 683 3
a25c e 684 3
a26a 1e 685 3
FUNC a288 110 0 std::__ndk1::__pad_and_output[abi:ne180000]<char, std::__ndk1::char_traits<char> >(std::__ndk1::char_traits<char>, std::__ndk1::ostreambuf_iterator const*, std::__ndk1::ostreambuf_iterator const, std::__ndk1::ostreambuf_iterator const, std::__ndk1::ios_base&, std::__ndk1::ostreambuf_iterator)
a288 10 1246 5
a298 12 1247 5
a2aa 2 1249 5
a2ac 6 1255 5
a2b2 4 1250 5
a2b6 6 1251 5
a2bc 4 1256 5
a2c0 e 1257 5
a2ce a 1262 5
a2d8 3a 1263 5
a312 2 1264 5
a314 2 1263 5
a316 18 1264 5
a32e 12 1268 5
a340 4 1269 5
a344 4 1270 5
a348 12 1271 5
a35a 14 1276 5
a36e 10 1278 5
a37e 1a 1268 5
FUNC a398 10 0 std::__ndk1::basic_string<char, std::__ndk1::char_traits<char>, std::__ndk1::allocator<char> >::__throw_length_error[abi:ne180000]() const
a398 4 2118 20
a39c c 2119 20
FUNC a3a8 38 0 std::__ndk1::__throw_length_error[abi:ne180000](char const*)
a3a8 6 239 6
a3ae 32 241 6
FUNC a3e0 18 0 std::length_error::length_error[abi:ne180000](char const*)
a3e0 18 152 6
FUNC a3f8 28 0 std::__throw_bad_array_new_length([abi:ne180000], void)
a3f8 4 172 8
a3fc 24 174 8
FUNC a420 ce 0 std::__ndk1::basic_stringbuf<char, std::__ndk1::char_traits<char>, std::__ndk1::allocator<char> >::str[abi:ne180000]() &&
a420 a 396 19
a42a 2a 397 19
a454 1e 398 19
a472 8 402 19
a47a 4 401 19
a47e 42 402 19
a4c0 12 403 19
a4d2 6 404 19
a4d8 16 406 19
FUNC a4ee e0 0 std::__ndk1::basic_stringbuf<char, std::__ndk1::char_traits<char>, std::__ndk1::allocator<char> >::__init_buf_ptrs[abi:ne180000]()
a4ee 8 626 19
a4f6 c 628 19
a502 4 629 19
a506 2 630 19
a508 2 628 19
a50a 2 627 19
a50c 4 628 19
a510 8 629 19
a518 4 628 19
a51c 2 630 19
a51e 6 631 19
a524 6 632 19
a52a 2 631 19
a52c 4 634 19
a530 2 636 19
a532 6 635 19
a538 42 636 19
a57a 4 637 19
a57e 4 638 19
a582 c 637 19
a58e 2 638 19
a590 4 637 19
a594 2 638 19
a596 6 639 19
a59c 6 643 19
a5a2 6 647 19
a5a8 c 641 19
a5b4 e 639 19
a5c2 6 644 19
a5c8 6 647 19
FUNC a5d0 160 0 std::__ndk1::vector<std::__ndk1::basic_string<char, std::__ndk1::char_traits<char>, std::__ndk1::allocator<char> >, std::__ndk1::allocator<std::__ndk1::basic_string<char, std::__ndk1::char_traits<char>, std::__ndk1::allocator<char> > > >::__push_back_slow_path<std::__ndk1::basic_string<char, std::__ndk1::char_traits<char>, std::__ndk1::allocator<char> > const&>(std::__ndk1::basic_string<char, std::__ndk1::char_traits<char>, std::__ndk1::allocator<char> > const&)
a5d0 20 1449 18
a5f0 5c 1451 18
a64c 4 1453 18
a650 12 1451 18
a662 2 1453 18
a664 2 1451 18
a666 1c 1453 18
a682 8 1455 18
a68a 4 1454 18
a68e 30 1455 18
a6be 2 1457 18
a6c0 12 1455 18
a6d2 44 1457 18
a716 a 1451 18
a720 10 1457 18
FUNC a730 46 0 std::__ndk1::basic_string<char, std::__ndk1::char_traits<char>, std::__ndk1::allocator<char> >::__init_copy_ctor_external(char const*, unsigned int)
a730 a 2232 20
a73a 4 2237 20
a73e a 2239 20
a748 6 2241 20
a74e c 2243 20
a75a 8 2247 20
a762 2 2246 20
a764 6 2250 20
a76a 6 2252 20
a770 6 2242 20
FUNC a776 3c 0 std::__ndk1::__split_buffer<std::__ndk1::basic_string<char, std::__ndk1::char_traits<char>, std::__ndk1::allocator<char> >, std::__ndk1::allocator<std::__ndk1::basic_string<char, std::__ndk1::char_traits<char>, std::__ndk1::allocator<char> > >&>::~__split_buffer()
a776 6 352 21
a77c 8 353 21
a784 4 354 21
a788 6 355 21
a78e 4 356 21
a792 20 353 21
FUNC a7b4 10 0 std::__ndk1::vector<std::__ndk1::basic_string<char, std::__ndk1::char_traits<char>, std::__ndk1::allocator<char> >, std::__ndk1::allocator<std::__ndk1::basic_string<char, std::__ndk1::char_traits<char>, std::__ndk1::allocator<char> > > >::__throw_length_error[abi:ne180000]() const
a7b4 10 940 18
FUNC a7c4 2 0 std::__ndk1::__variant_detail::__visitation::__base::__dispatcher<(unsigned int)0>::__dispatch[abi:ne180000]<std::__ndk1::__variant_detail::__dtor<std::__ndk1::__variant_detail::__traits<geode::Hook*, std::__ndk1::basic_string<char, std::__ndk1::char_traits<char>, std::__ndk1::allocator<char> > >, (std::__ndk1::__variant_detail::_Trait)1>::__destroy[abi:ne180000]()::{lambda(auto:1&)#1}, std::__ndk1::__variant_detail::__base<(std::__ndk1::__variant_detail::__traits<geode::Hook*, std::__ndk1::basic_string<char, std::__ndk1::char_traits<char>, std::__ndk1::allocator<char> > >)1, geode::Hook, std::__ndk1::allocator<char> >&>(std::__ndk1::__variant_detail::__dtor<std::__ndk1::__variant_detail::__traits<geode::Hook*, std::__ndk1::basic_string<char, std::__ndk1::char_traits<char>, std::__ndk1::allocator<char> > >, (std::__ndk1::__variant_detail::_Trait)1>, std::__ndk1::__variant_detail::__base<(std::__ndk1::__variant_detail::__traits<geode::Hook*, std::__ndk1::basic_string<char, std::__ndk1::char_traits<char>, std::__ndk1::allocator<char> > >)1, geode::Hook, std::__ndk1::allocator<char> >&)
a7c4 2 526 4
FUNC a7c6 e 0 std::__ndk1::__variant_detail::__visitation::__base::__dispatcher<(unsigned int)1>::__dispatch[abi:ne180000]<std::__ndk1::__variant_detail::__dtor<std::__ndk1::__variant_detail::__traits<geode::Hook*, std::__ndk1::basic_string<char, std::__ndk1::char_traits<char>, std::__ndk1::allocator<char> > >, (std::__ndk1::__variant_detail::_Trait)1>::__destroy[abi:ne180000]()::{lambda(auto:1&)#1}, std::__ndk1::__variant_detail::__base<(std::__ndk1::__variant_detail::__traits<geode::Hook*, std::__ndk1::basic_string<char, std::__ndk1::char_traits<char>, std::__ndk1::allocator<char> > >)1, geode::Hook, std::__ndk1::allocator<char> >&>(std::__ndk1::__variant_detail::__dtor<std::__ndk1::__variant_detail::__traits<geode::Hook*, std::__ndk1::basic_string<char, std::__ndk1::char_traits<char>, std::__ndk1::allocator<char> > >, (std::__ndk1::__variant_detail::_Trait)1>, std::__ndk1::__variant_detail::__base<(std::__ndk1::__variant_detail::__traits<geode::Hook*, std::__ndk1::basic_string<char, std::__ndk1::char_traits<char>, std::__ndk1::allocator<char> > >)1, geode::Hook, std::__ndk1::allocator<char> >&)
a7c6 e 526 4
FUNC a7d4 c0 0 std::__ndk1::__tree<std::__ndk1::__value_type<std::__ndk1::basic_string<char, std::__ndk1::char_traits<char>, std::__ndk1::allocator<char> >, std::__ndk1::shared_ptr<geode::Hook> >, std::__ndk1::__map_value_compare<std::__ndk1::basic_string<char, std::__ndk1::char_traits<char>, std::__ndk1::allocator<char> >, std::__ndk1::__value_type<std::__ndk1::basic_string<char, std::__ndk1::char_traits<char>, std::__ndk1::allocator<char> >, std::__ndk1::shared_ptr<geode::Hook> >, std::__ndk1::less<std::__ndk1::basic_string<char, std::__ndk1::char_traits<char>, std::__ndk1::allocator<char> > >, true>, std::__ndk1::allocator<std::__ndk1::__value_type<std::__ndk1::basic_string<char, std::__ndk1::char_traits<char>, std::__ndk1::allocator<char> >, std::__ndk1::shared_ptr<geode::Hook> > > >::find<std::__ndk1::basic_string<char, std::__ndk1::char_traits<char>, std::__ndk1::allocator<char> > >(std::__ndk1::basic_string<char, std::__ndk1::char_traits<char>, std::__ndk1::allocator<char> > const&)
a7d4 a 2087 7
a7de 6c 2088 7
a84a 42 2089 7
a88c 8 2092 7
FUNC a894 2ba 0 std::__ndk1::__tree<std::__ndk1::__value_type<std::__ndk1::basic_string<char, std::__ndk1::char_traits<char>, std::__ndk1::allocator<char> >, std::__ndk1::shared_ptr<geode::Hook> >, std::__ndk1::__map_value_compare<std::__ndk1::basic_string<char, std::__ndk1::char_traits<char>, std::__ndk1::allocator<char> >, std::__ndk1::__value_type<std::__ndk1::basic_string<char, std::__ndk1::char_traits<char>, std::__ndk1::allocator<char> >, std::__ndk1::shared_ptr<geode::Hook> >, std::__ndk1::less<std::__ndk1::basic_string<char, std::__ndk1::char_traits<char>, std::__ndk1::allocator<char> > >, true>, std::__ndk1::allocator<std::__ndk1::__value_type<std::__ndk1::basic_string<char, std::__ndk1::char_traits<char>, std::__ndk1::allocator<char> >, std::__ndk1::shared_ptr<geode::Hook> > > >::erase(std::__ndk1::__tree_const_iterator<std::__ndk1::__value_type<std::__ndk1::basic_string<char, std::__ndk1::char_traits<char>, std::__ndk1::allocator<char> >, std::__ndk1::shared_ptr<geode::Hook> >, std::__ndk1::__tree_node<std::__ndk1::__value_type<std::__ndk1::basic_string<char, std::__ndk1::char_traits<char>, std::__ndk1::allocator<char> >, std::__ndk1::shared_ptr<geode::Hook> >, void*>*, int>)
a894 8 2046 7
a89c b4 2048 7
a950 3e 2050 7
a98e e 2051 7
a99c 1b2 2048 7
FUNC ab4e 5a 0 std::__ndk1::__tree<std::__ndk1::__value_type<std::__ndk1::basic_string<char, std::__ndk1::char_traits<char>, std::__ndk1::allocator<char> >, std::__ndk1::shared_ptr<geode::Hook> >, std::__ndk1::__map_value_compare<std::__ndk1::basic_string<char, std::__ndk1::char_traits<char>, std::__ndk1::allocator<char> >, std::__ndk1::__value_type<std::__ndk1::basic_string<char, std::__ndk1::char_traits<char>, std::__ndk1::allocator<char> >, std::__ndk1::shared_ptr<geode::Hook> >, std::__ndk1::less<std::__ndk1::basic_string<char, std::__ndk1::char_traits<char>, std::__ndk1::allocator<char> > >, true>, std::__ndk1::allocator<std::__ndk1::__value_type<std::__ndk1::basic_string<char, std::__ndk1::char_traits<char>, std::__ndk1::allocator<char> >, std::__ndk1::shared_ptr<geode::Hook> > > >::destroy(std::__ndk1::__tree_node<std::__ndk1::__value_type<std::__ndk1::basic_string<char, std::__ndk1::char_traits<char>, std::__ndk1::allocator<char> >, std::__ndk1::shared_ptr<geode::Hook> >, void*>*)
ab4e 2 1544 7
ab50 a 1551 7
ab5a 6 1545 7
ab60 6 1546 7
ab66 38 1548 7
ab9e a 1549 7
FUNC abb0 30c 0 geode::modifier::ModifyDerive<hook103<(anonymous namespace)::hook103Parent>, PlayLayer>::apply()
abb0 c 1276 10
abbc 248 1285 10
ae04 e 1408 10
ae12 aa 1285 10
FUNC aebc 2 0 geode::modifier::ModifyBase<geode::modifier::ModifyDerive<hook103<(anonymous namespace)::hook103Parent>, PlayLayer> >::apply()
aebc 2 357 15
FUNC aec0 84 0 geode::addresser::getVirtual<void (PlayLayer::*)(float)>(void (PlayLayer::*)(float))
aec0 4 169 0
aec4 80 170 0
FUNC af44 4d0 0 geode::modifier::AsStaticFunction_postUpdate<hook103<(anonymous namespace)::hook103Parent>, void (hook103<(anonymous namespace)::hook103Parent>::*)(float)>::Impl<void (hook103<(anonymous namespace)::hook103Parent>::*)(float)>::function(hook103<(anonymous namespace)::hook103Parent>*, float)
af44 4d0 30 10
FUNC b414 90 0 PlayLayer::PlayLayer(geode::ZeroConstructorType)
b414 90 19 22
FUNC b4a4 606 0 GJBaseGameLayer::GJBaseGameLayer(geode::ZeroConstructorType, unsigned int)
b4a4 606 18 23
FUNC baac 3e0 0 GJGameState::GJGameState()
baac 3e0 23 24
FUNC be8c 3a 0 geode::stl::unordered_map<int, int, geode::stl::hash<int>, geode::stl::equal_to<int>, std::__ndk1::allocator<std::__ndk1::pair<int const, int> > >::~unordered_map()
be8c 3a 98 25
FUNC bec6 3a 0 geode::stl::unordered_set<int, geode::stl::hash<int>, geode::stl::equal_to<int>, std::__ndk1::allocator<int> >::~unordered_set()
bec6 3a 93 26
FUNC bf00 4c 0 geode::stl::unordered_map<int, gd::string, geode::stl::hash<int>, geode::stl::equal_to<int>, std::__ndk1::allocator<std::__ndk1::pair<int const, gd::string> > >::~unordered_map()
bf00 4c 98 25
FUNC bf4c 14 0 gd::map<std::__ndk1::pair<int, int>, int>::~map()
bf4c 4 284 27
bf50 8 285 27
bf58 4 286 27
bf5c 4 285 27
FUNC bf60 4e 0 geode::stl::unordered_map<int, gd::vector<LabelGameObject*>, geode::stl::hash<int>, geode::stl::equal_to<int>, std::__ndk1::allocator<std::__ndk1::pair<int const, gd::vector<LabelGameObject*> > > >::~unordered_map()
bf60 4e 98 25
FUNC bfae 3a 0 geode::stl::unordered_map<int, std::__ndk1::pair<int, int>, geode::stl::hash<int>, geode::stl::equal_to<int>, std::__ndk1::allocator<std::__ndk1::pair<int const, std::__ndk1::pair<int, int> > > >::~unordered_map()
bfae 3a 98 25
FUNC bfe8 4e 0 geode::stl::unordered_map<int, gd::vector<GameObject*>, geode::stl::hash<int>, geode::stl::equal_to<int>, std::__ndk1::allocator<std::__ndk1::pair<int const, gd::vector<GameObject*> > > >::~unordered_map()
bfe8 4e 98 25
FUNC c036 3a 0 geode::stl::unordered_map<int, cocos2d::CCPoint, geode::stl::hash<int>, geode::stl::equal_to<int>, std::__ndk1::allocator<std::__ndk1::pair<int const, cocos2d::CCPoint> > >::~unordered_map()
c036 3a 98 25
FUNC c070 9a 0 gd::vector<geode::stl::unordered_map<int, int, geode::stl::hash<int>, geode::stl::equal_to<int>, std::__ndk1::allocator<std::__ndk1::pair<int const, int> > > >::~vector()
c070 8 538 27
c078 8 539 27
c080 e 540 27
c08e 1e 541 27
c0ac 6 540 27
c0b2 14 541 27
c0c6 3c 543 27
c102 8 545 27
FUNC c10a 33a 0 GJGameState::~GJGameState()
c10a 33a 23 24
FUNC c444 3a 0 geode::stl::unordered_map<int, SongChannelState, geode::stl::hash<int>, geode::stl::equal_to<int>, std::__ndk1::allocator<std::__ndk1::pair<int const, SongChannelState> > >::~unordered_map()
c444 3a 98 25
FUNC c47e 14 0 gd::map<std::__ndk1::pair<int, int>, SFXTriggerInstance>::~map()
c47e 4 284 27
c482 8 285 27
c48a 4 286 27
c48e 4 285 27
FUNC c492 50 0 geode::stl::unordered_map<int, std::__ndk1::vector<int, std::__ndk1::allocator<int> >, geode::stl::hash<int>, geode::stl::equal_to<int>, std::__ndk1::allocator<std::__ndk1::pair<int const, std::__ndk1::vector<int, std::__ndk1::allocator<int> > > > >::~unordered_map()
c492 50 98 25
FUNC c4e2 58 0 gd::vector<EnterEffectInstance>::~vector()
c4e2 8 538 27
c4ea 6 539 27
c4f0 6 540 27
c4f6 12 541 27
c508 6 540 27
c50e 1c 543 27
c52a 8 545 27
c532 4 543 27
c536 4 541 27
FUNC c53a 34 0 geode::stl::unordered_map<int, std::__ndk1::vector<EnterEffectInstance, std::__ndk1::allocator<EnterEffectInstance> >, geode::stl::hash<int>, geode::stl::equal_to<int>, std::__ndk1::allocator<std::__ndk1::pair<int const, std::__ndk1::vector<EnterEffectInstance, std::__ndk1::allocator<EnterEffectInstance> > > > >::~unordered_map()
c53a 34 98 25
FUNC c56e 14 0 gd::map<std::__ndk1::pair<GJGameEvent, int>, int>::~map()
c56e 4 284 27
c572 8 285 27
c57a 4 286 27
c57e 4 285 27
FUNC c582 14 0 gd::map<std::__ndk1::pair<GJGameEvent, int>, gd::vector<EventTriggerInstance> >::~map()
c582 4 284 27
c586 8 285 27
c58e 4 286 27
c592 4 285 27
FUNC c596 3a 0 geode::stl::unordered_map<int, EnhancedGameObject*, geode::stl::hash<int>, geode::stl::equal_to<int>, std::__ndk1::allocator<std::__ndk1::pair<int const, EnhancedGameObject*> > >::~unordered_map()
c596 3a 98 25
FUNC c5d0 3a 0 geode::stl::unordered_map<int, GameObjectPhysics, geode::stl::hash<int>, geode::stl::equal_to<int>, std::__ndk1::allocator<std::__ndk1::pair<int const, GameObjectPhysics> > >::~unordered_map()
c5d0 3a 98 25
FUNC c60a 3a 0 geode::stl::unordered_map<int, GJValueTween, geode::stl::hash<int>, geode::stl::equal_to<int>, std::__ndk1::allocator<std::__ndk1::pair<int const, GJValueTween> > >::~unordered_map()
c60a 3a 98 25
FUNC c644 3a 0 geode::stl::unordered_map<int, bool, geode::stl::hash<int>, geode::stl::equal_to<int>, std::__ndk1::allocator<std::__ndk1::pair<int const, bool> > >::~unordered_map()
c644 3a 98 25
FUNC c680 11c 0 gd::map<std::__ndk1::pair<GJGameEvent, int>, gd::vector<EventTriggerInstance> >::map(std::__ndk1::map<std::__ndk1::pair<GJGameEvent, int>, gd::vector<EventTriggerInstance>, std::__ndk1::less<std::__ndk1::pair<GJGameEvent, int> >, std::__ndk1::allocator<std::__ndk1::pair<std::__ndk1::pair<GJGameEvent, int> const, gd::vector<EventTriggerInstance> > > >)
c680 1c 136 27
c69c 4 137 27
c6a0 4 138 27
c6a4 2 140 27
c6a6 2e 142 27
c6d4 48 143 27
c71c 2e 144 27
c74a 26 142 27
c770 14 145 27
c784 6 143 27
c78a 12 144 27
FUNC c79c 19e 0 gd::map<std::__ndk1::pair<GJGameEvent, int>, gd::vector<EventTriggerInstance> >::insert_pair(std::__ndk1::pair<std::__ndk1::pair<GJGameEvent, int>, gd::vector<EventTriggerInstance> > const&)
c79c c 112 27
c7a8 a 113 27
c7b2 8 116 27
c7ba c 119 27
c7c6 4 116 27
c7ca 20 118 27
c7ea 6 123 27
c7f0 8 124 27
c7f8 1c 128 27
c814 78 125 27
c88c e 128 27
c89a 2c 131 27
c8c6 6c 132 27
c932 8 134 27
FUNC c93a 40 0 std::__ndk1::pair<std::__ndk1::pair<GJGameEvent, int>, gd::vector<EventTriggerInstance> >::~pair()
c93a 40 80 28
FUNC c97a 40 0 std::__ndk1::pair<std::__ndk1::pair<GJGameEvent, int> const, gd::vector<EventTriggerInstance> >::~pair()
c97a 40 80 28
FUNC c9ba 10a 0 gd::vector<EventTriggerInstance>::vector(gd::vector<EventTriggerInstance> const&)
c9ba 14 335 27
c9ce 4 336 27
c9d2 4 335 27
c9d6 14 336 27
c9ea 12 337 27
c9fc 10 338 27
ca0c 4 339 27
ca10 8 340 27
ca18 a 339 27
ca22 1a 342 27
ca3c 74 343 27
cab0 14 345 27
FUNC cac4 17c 0 geode::stl::_rb_insert_rebalance(bool, geode::stl::_rb_tree_base*, geode::stl::_rb_tree_base*, geode::stl::_rb_tree_base&)
cac4 8 110 1
cacc 2 113 1
cace 4 111 1
cad2 6 113 1
cad8 4 114 1
cadc 2 116 1
cade 2 118 1
cae0 2 121 1
cae2 2 119 1
cae4 4 121 1
cae8 6 125 1
caee 2 130 1
caf0 a 132 1
cafa 1a 137 1
cb14 2 138 1
cb16 6 140 1
cb1c 6 160 1
cb22 c 167 1
cb2e 2 141 1
cb30 6 142 1
cb36 1a 149 1
cb50 2e 169 1
cb7e 2 173 1
cb80 2 171 1
cb82 4 172 1
cb86 2c 173 1
cbb2 2c 151 1
cbde 2 155 1
cbe0 2 151 1
cbe2 2 155 1
cbe4 2 153 1
cbe6 4 155 1
cbea 4 154 1
cbee 26 155 1
cc14 1c 137 1
cc30 2 177 1
cc32 6 178 1
cc38 2 122 1
cc3a 6 123 1
FUNC cc40 12e 0 gd::vector<EventTriggerInstance>::operator=(gd::vector<EventTriggerInstance> const&)
cc40 8 357 27
cc48 34 358 27
cc7c 8 360 27
cc84 4 358 27
cc88 14 360 27
cc9c 12 361 27
ccae 10 362 27
ccbe 4 363 27
ccc2 4 364 27
ccc6 4 363 27
ccca 4 364 27
ccce a 363 27
ccd8 1a 366 27
ccf2 74 367 27
cd66 8 370 27
FUNC cd6e 40 0 gd::vector<EventTriggerInstance>::~vector()
cd6e 8 538 27
cd76 6 539 27
cd7c 6 540 27
cd82 a 541 27
cd8c 6 540 27
cd92 14 543 27
cda6 8 545 27
FUNC cdae 5c 0 std::__ndk1::__tree<std::__ndk1::__value_type<std::__ndk1::pair<GJGameEvent, int>, gd::vector<EventTriggerInstance> >, std::__ndk1::__map_value_compare<std::__ndk1::pair<GJGameEvent, int>, std::__ndk1::__value_type<std::__ndk1::pair<GJGameEvent, int>, gd::vector<EventTriggerInstance> >, std::__ndk1::less<std::__ndk1::pair<GJGameEvent, int> >, true>, std::__ndk1::allocator<std::__ndk1::__value_type<std::__ndk1::pair<GJGameEvent, int>, gd::vector<EventTriggerInstance> > > >::destroy(std::__ndk1::__tree_node<std::__ndk1::__value_type<std::__ndk1::pair<GJGameEvent, int>, gd::vector<EventTriggerInstance> >, void*>*)
cdae 2 1544 7
cdb0 e 1551 7
cdbe 8 1545 7
cdc6 8 1546 7
cdce 2e 1548 7
cdfc e 1549 7
FUNC ce0a 2c 0 gd::map<std::__ndk1::pair<int, int>, SFXTriggerInstance>::erase(geode::stl::_rb_tree_node<std::__ndk1::pair<std::__ndk1::pair<int, int>, SFXTriggerInstance> >*)
ce0a 2 148 27
ce0c 8 154 27
ce14 c 149 27
ce20 2 150 27
ce22 8 151 27
ce2a a 149 27
ce34 2 154 27
FUNC ce36 2c 0 gd::map<int, EnterEffectAnimValue>::erase(geode::stl::_rb_tree_node<std::__ndk1::pair<int, EnterEffectAnimValue> >*)
ce36 2 148 27
ce38 8 154 27
ce40 c 149 27
ce4c 2 150 27
ce4e 8 151 27
ce56 a 149 27
ce60 2 154 27
FUNC ce62 64 0 geode::stl::__detail::_Hashtable_alloc<std::__ndk1::allocator<geode::stl::__detail::_Hash_node<std::__ndk1::pair<int const, std::__ndk1::vector<EnterEffectInstance, std::__ndk1::allocator<EnterEffectInstance> > >, false> > >::_M_deallocate_nodes(geode::stl::__detail::_Hash_node<std::__ndk1::pair<int const, std::__ndk1::vector<EnterEffectInstance, std::__ndk1::allocator<EnterEffectInstance> > >, false>*)
ce62 8 1985 29
ce6a 6 1986 29
ce70 12 1990 29
ce82 8 1986 29
ce8a 4 1990 29
ce8e 4 1989 29
ce92 2a 1990 29
cebc 6 1992 29
cec2 4 1990 29
FUNC cec6 2c 0 gd::map<std::__ndk1::pair<GJGameEvent, int>, int>::erase(geode::stl::_rb_tree_node<std::__ndk1::pair<std::__ndk1::pair<GJGameEvent, int>, int> >*)
cec6 2 148 27
cec8 8 154 27
ced0 c 149 27
cedc 2 150 27
cede 8 151 27
cee6 a 149 27
cef0 2 154 27
FUNC cef2 6e 0 gd::map<std::__ndk1::pair<GJGameEvent, int>, gd::vector<EventTriggerInstance> >::erase(geode::stl::_rb_tree_node<std::__ndk1::pair<std::__ndk1::pair<GJGameEvent, int>, gd::vector<EventTriggerInstance> > >*)
cef2 2 148 27
cef4 c 154 27
cf00 c 149 27
cf0c 4 150 27
cf10 16 151 27
cf26 8 149 27
cf2e 2 150 27
cf30 2e 151 27
cf5e 2 154 27
FUNC cf60 2c 0 gd::map<std::__ndk1::pair<int, int>, int>::erase(geode::stl::_rb_tree_node<std::__ndk1::pair<std::__ndk1::pair<int, int>, int> >*)
cf60 2 148 27
cf62 8 154 27
cf6a c 149 27
cf76 2 150 27
cf78 8 151 27
cf80 a 149 27
cf8a 2 154 27
FUNC cf8c 3a 0 std::__ndk1::shared_ptr<tulip::hook::CallingConvention>::~shared_ptr[abi:ne180000]()
cf8c 4 643 16
cf90 4 644 16
cf94 1a 645 16
cfae 4 646 16
cfb2 12 645 16
cfc4 2 646 16
FUNC cfc6 46 0 tulip::hook::HandlerMetadata::~HandlerMetadata()
cfc6 46 12 30
FUNC d00c fc 0 geode::Mod::getSettingValue<double>(std::__ndk1::basic_string_view<char, std::__ndk1::char_traits<char> >) const
d00c 20 228 31
d02c 5a 230 31
d086 6 231 31
d08c 5c 230 31
d0e8 20 234 31
FUNC d108 f4 0 geode::Mod::getSettingValue<long long>(std::__ndk1::basic_string_view<char, std::__ndk1::char_traits<char> >) const
d108 1c 228 31
d124 5a 230 31
d17e 6 231 31
d184 5c 230 31
d1e0 1c 234 31
FUNC d1fc f4 0 geode::Mod::getSettingValue<bool>(std::__ndk1::basic_string_view<char, std::__ndk1::char_traits<char> >) const
d1fc 1c 228 31
d218 5c 230 31
d274 a 231 31
d27e 58 230 31
d2d6 1a 234 31
FUNC d2f0 88 0 geode::cast::traverseTypeinfoFor(void*, geode::cast::ClassTypeinfoType const*, char const*)
d2f0 a 57 2
d2fa 4 59 2
d2fe e 60 2
d30c 2 64 2
d30e 2 65 2
d310 6 64 2
d316 8 65 2
d31e 2 67 2
d320 2 60 2
d322 2 59 2
d324 a 60 2
d32e 6 80 2
d334 e 69 2
d342 6 80 2
d348 a 71 2
d352 6 74 2
d358 4 73 2
d35c 8 74 2
d364 6 71 2
d36a e 80 2
FUNC d378 ba 0 std::__ndk1::__tree<std::__ndk1::__value_type<std::__ndk1::basic_string<char, std::__ndk1::char_traits<char>, std::__ndk1::allocator<char> >, std::__ndk1::shared_ptr<geode::Hook> >, std::__ndk1::__map_value_compare<std::__ndk1::basic_string<char, std::__ndk1::char_traits<char>, std::__ndk1::allocator<char> >, std::__ndk1::__value_type<std::__ndk1::basic_string<char, std::__ndk1::char_traits<char>, std::__ndk1::allocator<char> >, std::__ndk1::shared_ptr<geode::Hook> >, std::__ndk1::less<std::__ndk1::basic_string<char, std::__ndk1::char_traits<char>, std::__ndk1::allocator<char> > >, true>, std::__ndk1::allocator<std::__ndk1::__value_type<std::__ndk1::basic_string<char, std::__ndk1::char_traits<char>, std::__ndk1::allocator<char> >, std::__ndk1::shared_ptr<geode::Hook> > > >::__find_equal<std::__ndk1::basic_string<char, std::__ndk1::char_traits<char>, std::__ndk1::allocator<char> > >(std::__ndk1::__tree_end_node<std::__ndk1::__tree_node_base<void*>*>*&, std::__ndk1::basic_string<char, std::__ndk1::char_traits<char>, std::__ndk1::allocator<char> > const&)
d378 e 1682 7
d386 4 1683 7
d38a 1a 1685 7
d3a4 8 1688 7
d3ac 44 1687 7
d3f0 26 1695 7
d416 12 1696 7
d428 a 1711 7
FUNC d432 14a 0 std::__ndk1::__tree_balance_after_insert[abi:ne180000]<std::__ndk1::__tree_node_base<void*>*>(std::__ndk1::__tree_node_base<void*>*, std::__ndk1::__tree_node_base<void*>*)
d432 c 285 7
d43e 28 330 7
d466 a 286 7
d470 c 288 7
d47c c 310 7
d488 4 289 7
d48c a 290 7
d496 6 297 7
d49c 28 299 7
d4c4 4 303 7
d4c8 2 299 7
d4ca 6 305 7
d4d0 a 317 7
d4da 22 319 7
d4fc 4 323 7
d500 2 319 7
d502 6 325 7
d508 4 322 7
d50c 4 324 7
d510 2e 325 7
d53e 6 330 7
d544 4 302 7
d548 2 305 7
d54a 4 304 7
d54e 2c 305 7
d57a 2 330 7
FUNC d580 30c 0 geode::modifier::ModifyDerive<hook237<(anonymous namespace)::hook237Parent>, LevelEditorLayer>::apply()
d580 c 1626 11
d58c 248 1634 11
d7d4 e 1791 11
d7e2 aa 1634 11
FUNC d88c 2 0 geode::modifier::ModifyBase<geode::modifier::ModifyDerive<hook237<(anonymous namespace)::hook237Parent>, LevelEditorLayer> >::apply()
d88c 2 357 15
FUNC d890 84 0 geode::addresser::getVirtual<void (LevelEditorLayer::*)(float)>(void (LevelEditorLayer::*)(float))
d890 4 169 0
d894 80 170 0
FUNC d914 3e8 0 geode::modifier::AsStaticFunction_postUpdate<hook237<(anonymous namespace)::hook237Parent>, void (hook237<(anonymous namespace)::hook237Parent>::*)(float)>::Impl<void (hook237<(anonymous namespace)::hook237Parent>::*)(float)>::function(hook237<(anonymous namespace)::hook237Parent>*, float)
d914 3a6 30 10
dcba 42 270 14
FUNC dcfc 60 0 LevelEditorLayer::LevelEditorLayer(geode::ZeroConstructorType)
dcfc 60 17 32
FUNC dd60 320 0 geode::modifier::ModifyDerive<SettingsBTN, EditorPauseLayer>::apply()
dd60 c 576 12
dd6c 248 584 12
dfb4 e 634 12
dfc2 be 584 12
FUNC e080 2 0 geode::modifier::ModifyBase<geode::modifier::ModifyDerive<SettingsBTN, EditorPauseLayer> >::apply()
e080 2 357 15
FUNC e084 130 0 geode::modifier::AsStaticFunction_init<SettingsBTN, bool (SettingsBTN::*)(LevelEditorLayer*)>::Impl<bool (SettingsBTN::*)(LevelEditorLayer*)>::function(SettingsBTN*, LevelEditorLayer*)
e084 130 305 10
FUNC e1b4 2c 0 SettingsBTN::btnSettings(cocos2d::CCObject*)
e1b4 4 339 14
e1b8 28 340 14
FUNC e1e0 2d0 0 geode::modifier::ModifyDerive<OpenSettings, PauseLayer>::apply()
e1e0 c 281 13
e1ec 228 287 13
e414 e 311 13
e422 8e 287 13
FUNC e4b0 2 0 geode::modifier::ModifyBase<geode::modifier::ModifyDerive<OpenSettings, PauseLayer> >::apply()
e4b0 2 357 15
FUNC e4b4 7c 0 geode::addresser::getVirtual<void (PauseLayer::*)()>(void (PauseLayer::*)())
e4b4 4 169 0
e4b8 78 170 0
FUNC e530 12c 0 geode::modifier::AsStaticFunction_customSetup<OpenSettings, void (OpenSettings::*)()>::Impl<void (OpenSettings::*)()>::function(OpenSettings*)
e530 12c 25 13
FUNC e65c 78 0 PauseLayer::PauseLayer(geode::ZeroConstructorType)
e65c 78 17 33
FUNC e6d4 2c 0 OpenSettings::btnSettings(cocos2d::CCObject*)
e6d4 4 368 14
e6d8 28 369 14
FUNC e700 20 0 geodeImplicitEntry
e700 4 16 34
e704 8 18 34
e70c 4 19 34
e710 a 18 34
e71a 6 19 34
FUNC e720 28 0 std::__ndk1::unordered_map<void*, bool, std::__ndk1::hash<void*>, std::__ndk1::equal_to<void*>, std::__ndk1::allocator<std::__ndk1::pair<void* const, bool> > >::~unordered_map[abi:ne180000]()
e720 6 1178 36
e726 22 1180 36
FUNC e748 cc 0 wrapFunction(unsigned int, tulip::hook::WrapperMetadata const&)
e748 16 27 35
e75e 4 28 35
e762 4 29 35
e766 2 33 35
e768 2 32 35
e76a 24 33 35
e78e 4 29 35
e792 24 30 35
e7b6 36 32 35
e7ec 28 33 35
FUNC e814 48 0 geode::impl::ResultData<void*, std::__ndk1::basic_string<char, std::__ndk1::char_traits<char>, std::__ndk1::allocator<char> > >::unwrapErr() &
e814 4 472 17
e818 4 473 17
e81c 6 474 17
e822 3a 477 17
FUNC e85c 60 0 geode::impl::ResultData<void*, std::__ndk1::basic_string<char, std::__ndk1::char_traits<char>, std::__ndk1::allocator<char> > >::~ResultData()
e85c 60 334 17
FUNC e8bc 46 0 tulip::hook::WrapperMetadata::~WrapperMetadata()
e8bc 46 10 37
FUNC e902 10 0 cocos2d::CCObject::~CCObject()
e902 10 76 35
FUNC e912 10 0 cocos2d::CCNode::~CCNode()
e912 10 106 35
FUNC e922 8 0 {virtual override thunk({offset(-264)}, cocos2d::CCLayer::~CCLayer())}
FUNC e92a 10 0 cocos2d::CCLayer::~CCLayer()
e92a 10 447 35
FUNC e93a 14 0 {virtual override thunk({offset(-264)}, cocos2d::CCLayer::~CCLayer())}
FUNC e950 778 0 GJBaseGameLayer::~GJBaseGameLayer()
e950 4a 5255 35
e99a 40 5258 35
e9da 1e 5260 35
e9f8 6 5264 35
e9fe a 5267 35
ea08 3a 5268 35
ea42 55e 5269 35
efa0 34 5258 35
efd4 38 5268 35
f00c 26 5260 35
f032 c 5261 35
f03e 26 5262 35
f064 1e 5260 35
f082 8 5269 35
f08a 3e 5258 35
FUNC f0c8 606 0 GJBaseGameLayer::GJBaseGameLayer(geode::CutoffConstructorType, unsigned int)
f0c8 606 18 23
FUNC f6ce 8 0 {virtual override thunk({offset(-264)}, GJBaseGameLayer::~GJBaseGameLayer())}
FUNC f6d6 10 0 GJBaseGameLayer::~GJBaseGameLayer()
f6d6 10 5255 35
FUNC f6e6 14 0 {virtual override thunk({offset(-264)}, GJBaseGameLayer::~GJBaseGameLayer())}
FUNC f6fc f0 0 GJBaseGameLayer::toggleGroupTriggered(int, bool, gd::vector<int> const&, int, int)
f6fc a 5275 35
f706 1c 5278 35
f722 18 5282 35
f73a 10 5283 35
f74a 30 5278 35
f77a 8 5279 35
f782 4 5278 35
f786 6 5280 35
f78c 60 5278 35
FUNC f7f0 100 0 tulip::hook::AbstractFunction::from<void, GJBaseGameLayer*, int, bool, gd::vector<int> const&, int, int>(void (*)(GJBaseGameLayer*, int, bool, gd::vector<int> const&, int, int))
f7f0 e 39 38
f7fe 4 40 38
f802 4 41 38
f806 2 42 38
f808 2 40 38
f80a b6 42 38
f8c0 30 45 38
FUNC f8f0 18 0 {virtual override thunk({offset(-316)}, GJBaseGameLayer::toggleGroupTriggered(int, bool, gd::vector<int> const&, int, int))}
FUNC f908 fc 0 GJBaseGameLayer::spawnGroup(int, bool, double, gd::vector<int> const&, int, int)
f908 a 5285 35
f912 1c 5288 35
f92e 24 5292 35
f952 e 5293 35
f960 32 5288 35
f992 8 5289 35
f99a 4 5288 35
f99e 6 5290 35
f9a4 60 5288 35
FUNC fa10 110 0 tulip::hook::AbstractFunction::from<void, GJBaseGameLayer*, int, bool, double, gd::vector<int> const&, int, int>(void (*)(GJBaseGameLayer*, int, bool, double, gd::vector<int> const&, int, int))
fa10 14 39 38
fa24 4 40 38
fa28 4 41 38
fa2c 2 42 38
fa2e 2 40 38
fa30 b4 42 38
fae4 3c 45 38
FUNC fb20 24 0 {virtual override thunk({offset(-316)}, GJBaseGameLayer::spawnGroup(int, bool, double, gd::vector<int> const&, int, int))}
FUNC fb44 ec 0 GJBaseGameLayer::spawnObject(GameObject*, double, gd::vector<int> const&)
fb44 a 5295 35
fb4e 1c 5298 35
fb6a 14 5302 35
fb7e 10 5303 35
fb8e 30 5298 35
fbbe 8 5299 35
fbc6 4 5298 35
fbca 6 5300 35
fbd0 60 5298 35
FUNC fc30 b0 0 tulip::hook::AbstractFunction::from<void, GJBaseGameLayer*, GameObject*, double, gd::vector<int> const&>(void (*)(GJBaseGameLayer*, GameObject*, double, gd::vector<int> const&))
fc30 e 39 38
fc3e 4 40 38
fc42 4 41 38
fc46 2 42 38
fc48 2 40 38
fc4a 6a 42 38
fcb4 2c 45 38
FUNC fce0 10 0 {virtual override thunk({offset(-316)}, GJBaseGameLayer::spawnObject(GameObject*, double, gd::vector<int> const&))}
FUNC fcf0 e8 0 GJBaseGameLayer::activatePlatformerEndTrigger(EndTriggerGameObject*, gd::vector<int> const&)
fcf0 a 5305 35
fcfa 1c 5308 35
fd16 10 5312 35
fd26 e 5313 35
fd34 32 5308 35
fd66 8 5309 35
fd6e 4 5308 35
fd72 6 5310 35
fd78 60 5308 35
FUNC fde0 b0 0 tulip::hook::AbstractFunction::from<void, GJBaseGameLayer*, EndTriggerGameObject*, gd::vector<int> const&>(void (*)(GJBaseGameLayer*, EndTriggerGameObject*, gd::vector<int> const&))
fde0 e 39 38
fdee 4 40 38
fdf2 4 41 38
fdf6 2 42 38
fdf8 2 40 38
fdfa 62 42 38
fe5c 34 45 38
FUNC fe90 2 0 GJBaseGameLayer::toggleGlitter(bool)
fe90 2 5315 35
FUNC fe92 4 0 GJBaseGameLayer::timeForPos(cocos2d::CCPoint, int, int, bool, int)
fe92 4 5317 35
FUNC fe96 8 0 GJBaseGameLayer::posForTime(float)
fe96 8 5319 35
FUNC fe9e 2 0 GJBaseGameLayer::resetSPTriggered()
fe9e 2 5321 35
FUNC fea0 ec 0 GJBaseGameLayer::createCustomParticle(gd::string const&, cocos2d::ParticleStruct const&, int, bool)
fea0 a 5323 35
feaa 1c 5326 35
fec6 14 5330 35
feda 10 5331 35
feea 30 5326 35
ff1a 8 5327 35
ff22 4 5326 35
ff26 6 5328 35
ff2c 60 5326 35
FUNC ff90 100 0 tulip::hook::AbstractFunction::from<TodoReturnPlaceholder, GJBaseGameLayer*, gd::string const&, cocos2d::ParticleStruct const&, int, bool>(TodoReturnPlaceholder (*)(GJBaseGameLayer*, gd::string const&, cocos2d::ParticleStruct const&, int, bool))
ff90 12 39 38
ffa2 4 41 38
ffa6 2 42 38
ffa8 6 40 38
ffae aa 42 38
10058 38 45 38
FUNC 10090 fc 0 GJBaseGameLayer::claimCustomParticle(gd::string const&, cocos2d::ParticleStruct const&, int, int, int, bool)
10090 a 5333 35
1009a 1c 5336 35
100b6 20 5340 35
100d6 10 5341 35
100e6 32 5336 35
10118 8 5337 35
10120 4 5336 35
10124 6 5338 35
1012a 62 5336 35
FUNC 10190 110 0 tulip::hook::AbstractFunction::from<TodoReturnPlaceholder, GJBaseGameLayer*, gd::string const&, cocos2d::ParticleStruct const&, int, int, int, bool>(TodoReturnPlaceholder (*)(GJBaseGameLayer*, gd::string const&, cocos2d::ParticleStruct const&, int, int, int, bool))
10190 12 39 38
101a2 4 41 38
101a6 2 42 38
101a8 6 40 38
101ae b6 42 38
10264 3c 45 38
FUNC 102a0 e8 0 GJBaseGameLayer::unclaimCustomParticle(gd::string const&, cocos2d::CCParticleSystemQuad*)
102a0 a 5343 35
102aa 1c 5346 35
102c6 10 5350 35
102d6 e 5351 35
102e4 32 5346 35
10316 8 5347 35
1031e 4 5346 35
10322 6 5348 35
10328 60 5346 35
FUNC 10390 b0 0 tulip::hook::AbstractFunction::from<TodoReturnPlaceholder, GJBaseGameLayer*, gd::string const&, cocos2d::CCParticleSystemQuad*>(TodoReturnPlaceholder (*)(GJBaseGameLayer*, gd::string const&, cocos2d::CCParticleSystemQuad*))
10390 10 39 38
103a0 4 41 38
103a4 2 42 38
103a6 6 40 38
103ac 62 42 38
1040e 32 45 38
FUNC 10440 2d4 0 PlayLayer::~PlayLayer()
10440 14 7419 35
10454 4 7422 35
10458 6 7419 35
1045e 4 7422 35
10462 5c 7419 35
104be 30 7422 35
104ee 14 7424 35
10502 6 7428 35
10508 14 7431 35
1051c 2 7432 35
1051e a 7431 35
10528 2 7432 35
1052a 3a 7431 35
10564 6 7432 35
1056a 2 7431 35
1056c 2 7432 35
1056e 8 7431 35
10576 28 7432 35
1059e 48 7433 35
105e6 36 7422 35
1061c 30 7432 35
1064c 24 7424 35
10670 c 7425 35
1067c 24 7426 35
106a0 1e 7424 35
106be 56 7422 35
FUNC 10714 8 0 {virtual override thunk({offset(-264)}, PlayLayer::~PlayLayer())}
FUNC 1071c 10 0 PlayLayer::~PlayLayer()
1071c 10 7419 35
FUNC 1072c 14 0 {virtual override thunk({offset(-264)}, PlayLayer::~PlayLayer())}
FUNC 10740 e8 0 PlayLayer::activatePlatformerEndTrigger(EndTriggerGameObject*, gd::vector<int> const&)
10740 a 7439 35
1074a 1c 7442 35
10766 10 7446 35
10776 e 7447 35
10784 32 7442 35
107b6 8 7443 35
107be 4 7442 35
107c2 6 7444 35
107c8 60 7442 35
FUNC 10830 b0 0 tulip::hook::AbstractFunction::from<void, PlayLayer*, EndTriggerGameObject*, gd::vector<int> const&>(void (*)(PlayLayer*, EndTriggerGameObject*, gd::vector<int> const&))
10830 e 39 38
1083e 4 40 38
10842 4 41 38
10846 2 42 38
10848 2 40 38
1084a 62 42 38
108ac 34 45 38
FUNC 108e0 4 0 cocos2d::CCCopying::copyWithZone(cocos2d::CCZone*)
108e0 4 72 39
FUNC 108e4 2 0 cocos2d::CCObject::update(float)
108e4 2 139 39
FUNC 108e6 2 0 cocos2d::CCKeyboardDelegate::keyUp(cocos2d::enumKeyCodes)
108e6 2 209 40
FUNC 108e8 2 0 cocos2d::CCMouseDelegate::rightKeyDown()
108e8 2 13 41
FUNC 108ea 2 0 cocos2d::CCMouseDelegate::rightKeyUp()
108ea 2 15 41
FUNC 108ec 2 0 cocos2d::CCMouseDelegate::scrollWheel(float, float)
108ec 2 17 41
FUNC 108f0 214 0 cocos2d::CCNode::~CCNode()
108f0 14 106 35
10904 4 109 35
10908 2 106 35
1090a 2 109 35
1090c 10 106 35
1091c 2e 109 35
1094a 12 111 35
1095c 6 115 35
10962 a 118 35
1096c 4 119 35
10970 8 118 35
10978 2 119 35
1097a e 118 35
10988 4 119 35
1098c 4 118 35
10990 2 119 35
10992 8 118 35
1099a 18 119 35
109b2 2a 120 35
109dc 34 109 35
10a10 30 119 35
10a40 22 111 35
10a62 c 112 35
10a6e 26 113 35
10a94 1c 111 35
10ab0 54 109 35
FUNC 10b04 25c 0 cocos2d::CCLayer::~CCLayer()
10b04 14 447 35
10b18 4 450 35
10b1c 2 447 35
10b1e 2 450 35
10b20 38 447 35
10b58 2e 450 35
10b86 12 452 35
10b98 6 456 35
10b9e a 459 35
10ba8 4 460 35
10bac 6 459 35
10bb2 2 460 35
10bb4 2a 459 35
10bde 4 460 35
10be2 4 459 35
10be6 2 460 35
10be8 a 459 35
10bf2 16 460 35
10c08 2a 461 35
10c32 34 450 35
10c66 32 460 35
10c98 26 452 35
10cbe a 453 35
10cc8 22 454 35
10cea 22 452 35
10d0c 54 450 35
FUNC 10d60 410 0 cocos2d::CCObject::~CCObject()
10d60 14 76 35
10d74 4 79 35
10d78 2 76 35
10d7a 2 79 35
10d7c 10 76 35
10d8c 30 79 35
10dbc 14 81 35
10dd0 6 85 35
10dd6 2 89 35
10dd8 6 88 35
10dde 2 89 35
10de0 4 88 35
10de4 4 89 35
10de8 6 88 35
10dee 2 89 35
10df0 4 88 35
10df4 2 89 35
10df6 a 88 35
10e00 18 89 35
10e18 1e2 90 35
10ffa 34 79 35
1102e 34 90 35
11062 30 89 35
11092 24 81 35
110b6 c 82 35
110c2 26 83 35
110e8 1c 81 35
11104 6c 79 35
FUNC 11170 f8 0 _ZN5geode15UnwrapExceptionC2IRPvQsr4implE18IsStringStreamableIT_EEENS_4impl5OkTagEOS4_
11170 1a 316 17
1118a 2c 315 17
111b6 5a 314 17
11210 24 316 17
11234 34 314 17
FUNC 11268 104 0 _ZN5geode15UnwrapExceptionC2IRNSt6__ndk112basic_stringIcNS2_11char_traitsIcEENS2_9allocatorIcEEEEQsr4implE18IsStringStreamableIT_EEENS_4impl6ErrTagEOSA_
11268 1a 304 17
11282 3a 303 17
112bc 5a 302 17
11316 24 304 17
1133a 32 302 17
FUNC 1136c 2 0 std::__ndk1::__variant_detail::__visitation::__base::__dispatcher<(unsigned int)0>::__dispatch[abi:ne180000]<std::__ndk1::__variant_detail::__dtor<std::__ndk1::__variant_detail::__traits<void*, std::__ndk1::basic_string<char, std::__ndk1::char_traits<char>, std::__ndk1::allocator<char> > >, (std::__ndk1::__variant_detail::_Trait)1>::__destroy[abi:ne180000]()::{lambda(auto:1&)#1}, std::__ndk1::__variant_detail::__base<(std::__ndk1::__variant_detail::__traits<void*, std::__ndk1::basic_string<char, std::__ndk1::char_traits<char>, std::__ndk1::allocator<char> > >)1, std::__ndk1::__variant_detail::__traits, std::__ndk1::allocator<char> >&>(std::__ndk1::__variant_detail::__dtor<std::__ndk1::__variant_detail::__traits<void*, std::__ndk1::basic_string<char, std::__ndk1::char_traits<char>, std::__ndk1::allocator<char> > >, (std::__ndk1::__variant_detail::_Trait)1>, std::__ndk1::__variant_detail::__base<(std::__ndk1::__variant_detail::__traits<void*, std::__ndk1::basic_string<char, std::__ndk1::char_traits<char>, std::__ndk1::allocator<char> > >)1, std::__ndk1::__variant_detail::__traits, std::__ndk1::allocator<char> >&)
1136c 2 526 4
FUNC 1136e e 0 std::__ndk1::__variant_detail::__visitation::__base::__dispatcher<(unsigned int)1>::__dispatch[abi:ne180000]<std::__ndk1::__variant_detail::__dtor<std::__ndk1::__variant_detail::__traits<void*, std::__ndk1::basic_string<char, std::__ndk1::char_traits<char>, std::__ndk1::allocator<char> > >, (std::__ndk1::__variant_detail::_Trait)1>::__destroy[abi:ne180000]()::{lambda(auto:1&)#1}, std::__ndk1::__variant_detail::__base<(std::__ndk1::__variant_detail::__traits<void*, std::__ndk1::basic_string<char, std::__ndk1::char_traits<char>, std::__ndk1::allocator<char> > >)1, std::__ndk1::__variant_detail::__traits, std::__ndk1::allocator<char> >&>(std::__ndk1::__variant_detail::__dtor<std::__ndk1::__variant_detail::__traits<void*, std::__ndk1::basic_string<char, std::__ndk1::char_traits<char>, std::__ndk1::allocator<char> > >, (std::__ndk1::__variant_detail::_Trait)1>, std::__ndk1::__variant_detail::__base<(std::__ndk1::__variant_detail::__traits<void*, std::__ndk1::basic_string<char, std::__ndk1::char_traits<char>, std::__ndk1::allocator<char> > >)1, std::__ndk1::__variant_detail::__traits, std::__ndk1::allocator<char> >&)
1136e e 526 4
FUNC 1137c 3f2 0 std::__ndk1::__hash_table<std::__ndk1::__hash_value_type<void*, bool>, std::__ndk1::__unordered_map_hasher<void*, std::__ndk1::__hash_value_type<void*, bool>, std::__ndk1::hash<void*>, std::__ndk1::equal_to<void*>, true>, std::__ndk1::__unordered_map_equal<void*, std::__ndk1::__hash_value_type<void*, bool>, std::__ndk1::equal_to<void*>, std::__ndk1::hash<void*>, true>, std::__ndk1::allocator<std::__ndk1::__hash_value_type<void*, bool> > >::__emplace_unique_key_args<void*, std::__ndk1::piecewise_construct_t const&, std::__ndk1::tuple<void* const&>, std::__ndk1::tuple<> >(void* const&, std::__ndk1::piecewise_construct_t const&, std::__ndk1::tuple<void* const&>, std::__ndk1::tuple<>)
1137c a 1473 42
11386 1c 1474 42
113a2 4 1475 42
113a6 6 1479 42
113ac 18 1474 42
113c4 c 1479 42
113d0 4c 1480 42
1141c 8 1481 42
11424 6 1482 42
1142a 8 1484 42
11432 6 1492 42
11438 4 1493 42
1143c 6 1492 42
11442 2 1493 42
11444 2 1492 42
11446 c 1493 42
11452 4 1492 42
11456 4 1493 42
1145a a 1492 42
11464 22 1493 42
11486 3a 1495 42
114c0 12c 1494 42
115ec a 1486 42
115f6 24 1484 42
1161a e 1483 42
11628 ae 1494 42
116d6 4 1496 42
116da 1c 1497 42
116f6 8 1500 42
116fe 2 1501 42
11700 8 1510 42
11708 4 1503 42
1170c 2 1504 42
1170e 4 1506 42
11712 4 1507 42
11716 26 1508 42
1173c c 1515 42
11748 8 1519 42
11750 10 1520 42
11760 4 1494 42
11764 a 1517 42
PUBLIC 11771 0 __ThumbV7PILongThunk___cxa_atexit
PUBLIC 1177d 0 __ThumbV7PILongThunk__ZdlPv
PUBLIC 11789 0 __ThumbV7PILongThunk__ZN5geode9addresser9Addresser19followThunkFunctionEi
PUBLIC 11795 0 __ThumbV7PILongThunk__ZN5geode17openSettingsPopupEPNS_3ModE
PUBLIC 117a0 0 <.plt ELF section in saumondeluxe.rainbow_icon.android32.so>
STACK CFI INIT 8ff8 1e8 .cfa: sp 0 +
STACK CFI 8ffa .cfa: sp 8 + .ra: .cfa -4 + ^ r7: .cfa -8 + ^
STACK CFI 8ffc .cfa: r7 8 +
STACK CFI INIT 91e0 40 .cfa: sp 0 +
STACK CFI 91e2 .cfa: sp 16 + .ra: .cfa -4 + ^ r7: .cfa -8 + ^ r6: .cfa -12 + ^ r4: .cfa -16 + ^
STACK CFI 91e4 .cfa: r7 8 +
STACK CFI INIT 97a8 1c .cfa: sp 0 +
STACK CFI 97aa .cfa: sp 16 + .ra: .cfa -4 + ^ r7: .cfa -8 + ^ r6: .cfa -12 + ^ r4: .cfa -16 + ^
STACK CFI 97ac .cfa: r7 8 +
STACK CFI INIT 9220 2c4 .cfa: sp 0 +
STACK CFI 9222 .cfa: sp 20 + .ra: .cfa -4 + ^ r7: .cfa -8 + ^ r6: .cfa -12 + ^ r5: .cfa -16 + ^ r4: .cfa -20 + ^
STACK CFI 9224 .cfa: r7 8 +
STACK CFI 9228 r11: .cfa -24 + ^ r10: .cfa -28 + ^ r9: .cfa -32 + ^ r8: .cfa -36 + ^
STACK CFI INIT 97c4 1c .cfa: sp 0 +
STACK CFI 97c6 .cfa: sp 16 + .ra: .cfa -4 + ^ r7: .cfa -8 + ^ r6: .cfa -12 + ^ r4: .cfa -16 + ^
STACK CFI 97c8 .cfa: r7 8 +
STACK CFI INIT 94e4 2c4 .cfa: sp 0 +
STACK CFI 94e6 .cfa: sp 20 + .ra: .cfa -4 + ^ r7: .cfa -8 + ^ r6: .cfa -12 + ^ r5: .cfa -16 + ^ r4: .cfa -20 + ^
STACK CFI 94e8 .cfa: r7 8 +
STACK CFI 94ec r11: .cfa -24 + ^ r10: .cfa -28 + ^ r9: .cfa -32 + ^ r8: .cfa -36 + ^
STACK CFI INIT 97e0 1c .cfa: sp 0 +
STACK CFI 97e2 .cfa: sp 16 + .ra: .cfa -4 + ^ r7: .cfa -8 + ^ r6: .cfa -12 + ^ r4: .cfa -16 + ^
STACK CFI 97e4 .cfa: r7 8 +
STACK CFI INIT 97fc 2f4 .cfa: sp 0 +
STACK CFI 97fe .cfa: sp 20 + .ra: .cfa -4 + ^ r7: .cfa -8 + ^ r6: .cfa -12 + ^ r5: .cfa -16 + ^ r4: .cfa -20 + ^
STACK CFI 9800 .cfa: r7 8 +
STACK CFI 9804 r11: .cfa -24 + ^ r10: .cfa -28 + ^ r9: .cfa -32 + ^ r8: .cfa -36 + ^
STACK CFI INIT 9af0 1c .cfa: sp 0 +
STACK CFI 9af2 .cfa: sp 16 + .ra: .cfa -4 + ^ r7: .cfa -8 + ^ r6: .cfa -12 + ^ r4: .cfa -16 + ^
STACK CFI 9af4 .cfa: r7 8 +
STACK CFI INIT 9b0c 2f4 .cfa: sp 0 +
STACK CFI 9b0e .cfa: sp 20 + .ra: .cfa -4 + ^ r7: .cfa -8 + ^ r6: .cfa -12 + ^ r5: .cfa -16 + ^ r4: .cfa -20 + ^
STACK CFI 9b10 .cfa: r7 8 +
STACK CFI 9b14 r11: .cfa -24 + ^ r10: .cfa -28 + ^ r9: .cfa -32 + ^ r8: .cfa -36 + ^
STACK CFI INIT 9e00 1c .cfa: sp 0 +
STACK CFI 9e02 .cfa: sp 16 + .ra: .cfa -4 + ^ r7: .cfa -8 + ^ r6: .cfa -12 + ^ r4: .cfa -16 + ^
STACK CFI 9e04 .cfa: r7 8 +
STACK CFI INIT 9e1c 2 .cfa: sp 0 +
STACK CFI INIT 9e1e 3a .cfa: sp 0 +
STACK CFI 9e20 .cfa: sp 16 + .ra: .cfa -4 + ^ r7: .cfa -8 + ^ r5: .cfa -12 + ^ r4: .cfa -16 + ^
STACK CFI 9e22 .cfa: r7 8 +
STACK CFI INIT 9e58 60 .cfa: sp 0 +
STACK CFI 9e5a .cfa: sp 16 + .ra: .cfa -4 + ^ r7: .cfa -8 + ^ r6: .cfa -12 + ^ r4: .cfa -16 + ^
STACK CFI 9e5c .cfa: r7 8 +
STACK CFI INIT 9eb8 3e .cfa: sp 0 +
STACK CFI 9eba .cfa: sp 20 + .ra: .cfa -4 + ^ r7: .cfa -8 + ^ r6: .cfa -12 + ^ r5: .cfa -16 + ^ r4: .cfa -20 + ^
STACK CFI 9ebc .cfa: r7 8 +
STACK CFI 9ec0 r11: .cfa -24 + ^
STACK CFI INIT 9ef6 2 .cfa: sp 0 +
STACK CFI INIT 9ef8 c .cfa: sp 0 +
STACK CFI 9efa .cfa: sp 8 + .ra: .cfa -4 + ^ r7: .cfa -8 + ^
STACK CFI 9efc .cfa: r7 8 +
STACK CFI INIT 9f04 f8 .cfa: sp 0 +
STACK CFI 9f06 .cfa: sp 20 + .ra: .cfa -4 + ^ r7: .cfa -8 + ^ r6: .cfa -12 + ^ r5: .cfa -16 + ^ r4: .cfa -20 + ^
STACK CFI 9f08 .cfa: r7 8 +
STACK CFI 9f0c r8: .cfa -24 + ^
STACK CFI INIT 9ffc 34 .cfa: sp 0 +
STACK CFI 9ffe .cfa: sp 8 + .ra: .cfa -4 + ^ r7: .cfa -8 + ^
STACK CFI a000 .cfa: r7 8 +
STACK CFI INIT a030 d8 .cfa: sp 0 +
STACK CFI a032 .cfa: sp 20 + .ra: .cfa -4 + ^ r7: .cfa -8 + ^ r6: .cfa -12 + ^ r5: .cfa -16 + ^ r4: .cfa -20 + ^
STACK CFI a034 .cfa: r7 8 +
STACK CFI a038 r11: .cfa -24 + ^ r10: .cfa -28 + ^ r9: .cfa -32 + ^ r8: .cfa -36 + ^
STACK CFI INIT a108 68 .cfa: sp 0 +
STACK CFI a10a .cfa: sp 20 + .ra: .cfa -4 + ^ r7: .cfa -8 + ^ r6: .cfa -12 + ^ r5: .cfa -16 + ^ r4: .cfa -20 + ^
STACK CFI a10c .cfa: r7 8 +
STACK CFI a110 r11: .cfa -24 + ^
STACK CFI INIT a170 10 .cfa: sp 0 +
STACK CFI a172 .cfa: sp 8 + .ra: .cfa -4 + ^ r7: .cfa -8 + ^
STACK CFI a174 .cfa: r7 8 +
STACK CFI INIT a180 108 .cfa: sp 0 +
STACK CFI a182 .cfa: sp 20 + .ra: .cfa -4 + ^ r7: .cfa -8 + ^ r6: .cfa -12 + ^ r5: .cfa -16 + ^ r4: .cfa -20 + ^
STACK CFI a184 .cfa: r7 8 +
STACK CFI a188 r11: .cfa -24 + ^ r10: .cfa -28 + ^ r9: .cfa -32 + ^ r8: .cfa -36 + ^
STACK CFI INIT a288 110 .cfa: sp 0 +
STACK CFI a28a .cfa: sp 20 + .ra: .cfa -4 + ^ r7: .cfa -8 + ^ r6: .cfa -12 + ^ r5: .cfa -16 + ^ r4: .cfa -20 + ^
STACK CFI a28c .cfa: r7 8 +
STACK CFI a290 r11: .cfa -24 + ^ r10: .cfa -28 + ^ r9: .cfa -32 + ^ r8: .cfa -36 + ^
STACK CFI INIT a398 10 .cfa: sp 0 +
STACK CFI a39a .cfa: sp 8 + .ra: .cfa -4 + ^ r7: .cfa -8 + ^
STACK CFI a39c .cfa: r7 8 +
STACK CFI INIT a3a8 38 .cfa: sp 0 +
STACK CFI a3aa .cfa: sp 16 + .ra: .cfa -4 + ^ r7: .cfa -8 + ^ r5: .cfa -12 + ^ r4: .cfa -16 + ^
STACK CFI a3ac .cfa: r7 8 +
STACK CFI INIT a3e0 18 .cfa: sp 0 +
STACK CFI a3e2 .cfa: sp 8 + .ra: .cfa -4 + ^ r7: .cfa -8 + ^
STACK CFI a3e4 .cfa: r7 8 +
STACK CFI INIT a3f8 28 .cfa: sp 0 +
STACK CFI a3fa .cfa: sp 8 + .ra: .cfa -4 + ^ r7: .cfa -8 + ^
STACK CFI a3fc .cfa: r7 8 +
STACK CFI INIT a420 ce .cfa: sp 0 +
STACK CFI a422 .cfa: sp 20 + .ra: .cfa -4 + ^ r7: .cfa -8 + ^ r6: .cfa -12 + ^ r5: .cfa -16 + ^ r4: .cfa -20 + ^
STACK CFI a424 .cfa: r7 8 +
STACK CFI a428 r10: .cfa -24 + ^ r9: .cfa -28 + ^ r8: .cfa -32 + ^
STACK CFI INIT a4ee e0 .cfa: sp 0 +
STACK CFI a4f0 .cfa: sp 20 + .ra: .cfa -4 + ^ r7: .cfa -8 + ^ r6: .cfa -12 + ^ r5: .cfa -16 + ^ r4: .cfa -20 + ^
STACK CFI a4f2 .cfa: r7 8 +
STACK CFI a4f6 r11: .cfa -24 + ^ r9: .cfa -28 + ^ r8: .cfa -32 + ^
STACK CFI INIT a5d0 160 .cfa: sp 0 +
STACK CFI a5d2 .cfa: sp 20 + .ra: .cfa -4 + ^ r7: .cfa -8 + ^ r6: .cfa -12 + ^ r5: .cfa -16 + ^ r4: .cfa -20 + ^
STACK CFI a5d4 .cfa: r7 8 +
STACK CFI a5d8 r10: .cfa -24 + ^ r9: .cfa -28 + ^ r8: .cfa -32 + ^
STACK CFI INIT a730 46 .cfa: sp 0 +
STACK CFI a732 .cfa: sp 20 + .ra: .cfa -4 + ^ r7: .cfa -8 + ^ r6: .cfa -12 + ^ r5: .cfa -16 + ^ r4: .cfa -20 + ^
STACK CFI a734 .cfa: r7 8 +
STACK CFI a738 r8: .cfa -24 + ^
STACK CFI INIT a776 3c .cfa: sp 0 +
STACK CFI a778 .cfa: sp 16 + .ra: .cfa -4 + ^ r7: .cfa -8 + ^ r5: .cfa -12 + ^ r4: .cfa -16 + ^
STACK CFI a77a .cfa: r7 8 +
STACK CFI INIT a7b4 10 .cfa: sp 0 +
STACK CFI a7b6 .cfa: sp 8 + .ra: .cfa -4 + ^ r7: .cfa -8 + ^
STACK CFI a7b8 .cfa: r7 8 +
STACK CFI INIT a7c4 2 .cfa: sp 0 +
STACK CFI INIT a7c6 e .cfa: sp 0 +
STACK CFI INIT a7d4 c0 .cfa: sp 0 +
STACK CFI a7d6 .cfa: sp 20 + .ra: .cfa -4 + ^ r7: .cfa -8 + ^ r6: .cfa -12 + ^ r5: .cfa -16 + ^ r4: .cfa -20 + ^
STACK CFI a7d8 .cfa: r7 8 +
STACK CFI a7dc r10: .cfa -24 + ^ r9: .cfa -28 + ^ r8: .cfa -32 + ^
STACK CFI INIT a894 2ba .cfa: sp 0 +
STACK CFI a896 .cfa: sp 20 + .ra: .cfa -4 + ^ r7: .cfa -8 + ^ r6: .cfa -12 + ^ r5: .cfa -16 + ^ r4: .cfa -20 + ^
STACK CFI a898 .cfa: r7 8 +
STACK CFI a89c r8: .cfa -24 + ^
STACK CFI INIT ab4e 5a .cfa: sp 0 +
STACK CFI ab56 .cfa: sp 16 + .ra: .cfa -4 + ^ r7: .cfa -8 + ^ r5: .cfa -12 + ^ r4: .cfa -16 + ^
STACK CFI ab58 .cfa: r7 8 +
STACK CFI INIT abb0 30c .cfa: sp 0 +
STACK CFI abb2 .cfa: sp 20 + .ra: .cfa -4 + ^ r7: .cfa -8 + ^ r6: .cfa -12 + ^ r5: .cfa -16 + ^ r4: .cfa -20 + ^
STACK CFI abb4 .cfa: r7 8 +
STACK CFI abb8 r10: .cfa -24 + ^ r9: .cfa -28 + ^ r8: .cfa -32 + ^
STACK CFI INIT aebc 2 .cfa: sp 0 +
STACK CFI INIT aec0 84 .cfa: sp 0 +
STACK CFI aec2 .cfa: sp 16 + .ra: .cfa -4 + ^ r7: .cfa -8 + ^ r5: .cfa -12 + ^ r4: .cfa -16 + ^
STACK CFI aec4 .cfa: r7 8 +
STACK CFI INIT af44 4d0 .cfa: sp 0 +
STACK CFI af46 .cfa: sp 20 + .ra: .cfa -4 + ^ r7: .cfa -8 + ^ r6: .cfa -12 + ^ r5: .cfa -16 + ^ r4: .cfa -20 + ^
STACK CFI af48 .cfa: r7 8 +
STACK CFI af4c r11: .cfa -24 + ^ r10: .cfa -28 + ^ r9: .cfa -32 + ^ r8: .cfa -36 + ^
STACK CFI INIT b414 90 .cfa: sp 0 +
STACK CFI b416 .cfa: sp 16 + .ra: .cfa -4 + ^ r7: .cfa -8 + ^ r5: .cfa -12 + ^ r4: .cfa -16 + ^
STACK CFI b418 .cfa: r7 8 +
STACK CFI INIT b4a4 606 .cfa: sp 0 +
STACK CFI b4a6 .cfa: sp 20 + .ra: .cfa -4 + ^ r7: .cfa -8 + ^ r6: .cfa -12 + ^ r5: .cfa -16 + ^ r4: .cfa -20 + ^
STACK CFI b4a8 .cfa: r7 8 +
STACK CFI b4ac r11: .cfa -24 + ^ r10: .cfa -28 + ^ r9: .cfa -32 + ^ r8: .cfa -36 + ^
STACK CFI INIT baac 3e0 .cfa: sp 0 +
STACK CFI baae .cfa: sp 20 + .ra: .cfa -4 + ^ r7: .cfa -8 + ^ r6: .cfa -12 + ^ r5: .cfa -16 + ^ r4: .cfa -20 + ^
STACK CFI bab0 .cfa: r7 8 +
STACK CFI bab4 r11: .cfa -24 + ^ r10: .cfa -28 + ^ r9: .cfa -32 + ^ r8: .cfa -36 + ^
STACK CFI INIT be8c 3a .cfa: sp 0 +
STACK CFI be8e .cfa: sp 16 + .ra: .cfa -4 + ^ r7: .cfa -8 + ^ r5: .cfa -12 + ^ r4: .cfa -16 + ^
STACK CFI be90 .cfa: r7 8 +
STACK CFI INIT bec6 3a .cfa: sp 0 +
STACK CFI bec8 .cfa: sp 16 + .ra: .cfa -4 + ^ r7: .cfa -8 + ^ r5: .cfa -12 + ^ r4: .cfa -16 + ^
STACK CFI beca .cfa: r7 8 +
STACK CFI INIT bf00 4c .cfa: sp 0 +
STACK CFI bf02 .cfa: sp 20 + .ra: .cfa -4 + ^ r7: .cfa -8 + ^ r6: .cfa -12 + ^ r5: .cfa -16 + ^ r4: .cfa -20 + ^
STACK CFI bf04 .cfa: r7 8 +
STACK CFI bf08 r11: .cfa -24 + ^
STACK CFI INIT bf4c 14 .cfa: sp 0 +
STACK CFI bf4e .cfa: sp 16 + .ra: .cfa -4 + ^ r7: .cfa -8 + ^ r6: .cfa -12 + ^ r4: .cfa -16 + ^
STACK CFI bf50 .cfa: r7 8 +
STACK CFI INIT bf60 4e .cfa: sp 0 +
STACK CFI bf62 .cfa: sp 20 + .ra: .cfa -4 + ^ r7: .cfa -8 + ^ r6: .cfa -12 + ^ r5: .cfa -16 + ^ r4: .cfa -20 + ^
STACK CFI bf64 .cfa: r7 8 +
STACK CFI bf68 r11: .cfa -24 + ^
STACK CFI INIT bfae 3a .cfa: sp 0 +
STACK CFI bfb0 .cfa: sp 16 + .ra: .cfa -4 + ^ r7: .cfa -8 + ^ r5: .cfa -12 + ^ r4: .cfa -16 + ^
STACK CFI bfb2 .cfa: r7 8 +
STACK CFI INIT bfe8 4e .cfa: sp 0 +
STACK CFI bfea .cfa: sp 20 + .ra: .cfa -4 + ^ r7: .cfa -8 + ^ r6: .cfa -12 + ^ r5: .cfa -16 + ^ r4: .cfa -20 + ^
STACK CFI bfec .cfa: r7 8 +
STACK CFI bff0 r11: .cfa -24 + ^
STACK CFI INIT c036 3a .cfa: sp 0 +
STACK CFI c038 .cfa: sp 16 + .ra: .cfa -4 + ^ r7: .cfa -8 + ^ r5: .cfa -12 + ^ r4: .cfa -16 + ^
STACK CFI c03a .cfa: r7 8 +
STACK CFI INIT c070 9a .cfa: sp 0 +
STACK CFI c072 .cfa: sp 20 + .ra: .cfa -4 + ^ r7: .cfa -8 + ^ r6: .cfa -12 + ^ r5: .cfa -16 + ^ r4: .cfa -20 + ^
STACK CFI c074 .cfa: r7 8 +
STACK CFI c078 r11: .cfa -24 + ^ r9: .cfa -28 + ^ r8: .cfa -32 + ^
STACK CFI INIT c10a 33a .cfa: sp 0 +
STACK CFI c10c .cfa: sp 20 + .ra: .cfa -4 + ^ r7: .cfa -8 + ^ r6: .cfa -12 + ^ r5: .cfa -16 + ^ r4: .cfa -20 + ^
STACK CFI c10e .cfa: r7 8 +
STACK CFI c112 r11: .cfa -24 + ^
STACK CFI INIT c444 3a .cfa: sp 0 +
STACK CFI c446 .cfa: sp 16 + .ra: .cfa -4 + ^ r7: .cfa -8 + ^ r5: .cfa -12 + ^ r4: .cfa -16 + ^
STACK CFI c448 .cfa: r7 8 +
STACK CFI INIT c47e 14 .cfa: sp 0 +
STACK CFI c480 .cfa: sp 16 + .ra: .cfa -4 + ^ r7: .cfa -8 + ^ r6: .cfa -12 + ^ r4: .cfa -16 + ^
STACK CFI c482 .cfa: r7 8 +
STACK CFI INIT c492 50 .cfa: sp 0 +
STACK CFI c494 .cfa: sp 20 + .ra: .cfa -4 + ^ r7: .cfa -8 + ^ r6: .cfa -12 + ^ r5: .cfa -16 + ^ r4: .cfa -20 + ^
STACK CFI c496 .cfa: r7 8 +
STACK CFI c49a r11: .cfa -24 + ^
STACK CFI INIT c4e2 58 .cfa: sp 0 +
STACK CFI c4e4 .cfa: sp 20 + .ra: .cfa -4 + ^ r7: .cfa -8 + ^ r6: .cfa -12 + ^ r5: .cfa -16 + ^ r4: .cfa -20 + ^
STACK CFI c4e6 .cfa: r7 8 +
STACK CFI c4ea r11: .cfa -24 + ^
STACK CFI INIT c53a 34 .cfa: sp 0 +
STACK CFI c53c .cfa: sp 16 + .ra: .cfa -4 + ^ r7: .cfa -8 + ^ r6: .cfa -12 + ^ r4: .cfa -16 + ^
STACK CFI c53e .cfa: r7 8 +
STACK CFI INIT c56e 14 .cfa: sp 0 +
STACK CFI c570 .cfa: sp 16 + .ra: .cfa -4 + ^ r7: .cfa -8 + ^ r6: .cfa -12 + ^ r4: .cfa -16 + ^
STACK CFI c572 .cfa: r7 8 +
STACK CFI INIT c582 14 .cfa: sp 0 +
STACK CFI c584 .cfa: sp 16 + .ra: .cfa -4 + ^ r7: .cfa -8 + ^ r6: .cfa -12 + ^ r4: .cfa -16 + ^
STACK CFI c586 .cfa: r7 8 +
STACK CFI INIT c596 3a .cfa: sp 0 +
STACK CFI c598 .cfa: sp 16 + .ra: .cfa -4 + ^ r7: .cfa -8 + ^ r5: .cfa -12 + ^ r4: .cfa -16 + ^
STACK CFI c59a .cfa: r7 8 +
STACK CFI INIT c5d0 3a .cfa: sp 0 +
STACK CFI c5d2 .cfa: sp 16 + .ra: .cfa -4 + ^ r7: .cfa -8 + ^ r5: .cfa -12 + ^ r4: .cfa -16 + ^
STACK CFI c5d4 .cfa: r7 8 +
STACK CFI INIT c60a 3a .cfa: sp 0 +
STACK CFI c60c .cfa: sp 16 + .ra: .cfa -4 + ^ r7: .cfa -8 + ^ r5: .cfa -12 + ^ r4: .cfa -16 + ^
STACK CFI c60e .cfa: r7 8 +
STACK CFI INIT c644 3a .cfa: sp 0 +
STACK CFI c646 .cfa: sp 16 + .ra: .cfa -4 + ^ r7: .cfa -8 + ^ r5: .cfa -12 + ^ r4: .cfa -16 + ^
STACK CFI c648 .cfa: r7 8 +
STACK CFI INIT c680 11c .cfa: sp 0 +
STACK CFI c682 .cfa: sp 20 + .ra: .cfa -4 + ^ r7: .cfa -8 + ^ r6: .cfa -12 + ^ r5: .cfa -16 + ^ r4: .cfa -20 + ^
STACK CFI c684 .cfa: r7 8 +
STACK CFI c688 r11: .cfa -24 + ^ r10: .cfa -28 + ^ r9: .cfa -32 + ^ r8: .cfa -36 + ^
STACK CFI INIT c79c 19e .cfa: sp 0 +
STACK CFI c79e .cfa: sp 20 + .ra: .cfa -4 + ^ r7: .cfa -8 + ^ r6: .cfa -12 + ^ r5: .cfa -16 + ^ r4: .cfa -20 + ^
STACK CFI c7a0 .cfa: r7 8 +
STACK CFI c7a4 r11: .cfa -24 + ^ r10: .cfa -28 + ^ r9: .cfa -32 + ^ r8: .cfa -36 + ^
STACK CFI INIT c93a 40 .cfa: sp 0 +
STACK CFI c93c .cfa: sp 20 + .ra: .cfa -4 + ^ r7: .cfa -8 + ^ r6: .cfa -12 + ^ r5: .cfa -16 + ^ r4: .cfa -20 + ^
STACK CFI c93e .cfa: r7 8 +
STACK CFI c942 r11: .cfa -24 + ^
STACK CFI INIT c97a 40 .cfa: sp 0 +
STACK CFI c97c .cfa: sp 20 + .ra: .cfa -4 + ^ r7: .cfa -8 + ^ r6: .cfa -12 + ^ r5: .cfa -16 + ^ r4: .cfa -20 + ^
STACK CFI c97e .cfa: r7 8 +
STACK CFI c982 r11: .cfa -24 + ^
STACK CFI INIT c9ba 10a .cfa: sp 0 +
STACK CFI c9bc .cfa: sp 20 + .ra: .cfa -4 + ^ r7: .cfa -8 + ^ r6: .cfa -12 + ^ r5: .cfa -16 + ^ r4: .cfa -20 + ^
STACK CFI c9be .cfa: r7 8 +
STACK CFI c9c2 r10: .cfa -24 + ^ r9: .cfa -28 + ^ r8: .cfa -32 + ^
STACK CFI INIT cac4 17c .cfa: sp 0 +
STACK CFI cac6 .cfa: sp 20 + .ra: .cfa -4 + ^ r7: .cfa -8 + ^ r6: .cfa -12 + ^ r5: .cfa -16 + ^ r4: .cfa -20 + ^
STACK CFI cac8 .cfa: r7 8 +
STACK CFI cacc r11: .cfa -24 + ^
STACK CFI INIT cc40 12e .cfa: sp 0 +
STACK CFI cc42 .cfa: sp 20 + .ra: .cfa -4 + ^ r7: .cfa -8 + ^ r6: .cfa -12 + ^ r5: .cfa -16 + ^ r4: .cfa -20 + ^
STACK CFI cc44 .cfa: r7 8 +
STACK CFI cc48 r10: .cfa -24 + ^ r9: .cfa -28 + ^ r8: .cfa -32 + ^
STACK CFI INIT cd6e 40 .cfa: sp 0 +
STACK CFI cd70 .cfa: sp 20 + .ra: .cfa -4 + ^ r7: .cfa -8 + ^ r6: .cfa -12 + ^ r5: .cfa -16 + ^ r4: .cfa -20 + ^
STACK CFI cd72 .cfa: r7 8 +
STACK CFI cd76 r11: .cfa -24 + ^
STACK CFI INIT cdae 5c .cfa: sp 0 +
STACK CFI cdb6 .cfa: sp 20 + .ra: .cfa -4 + ^ r7: .cfa -8 + ^ r6: .cfa -12 + ^ r5: .cfa -16 + ^ r4: .cfa -20 + ^
STACK CFI cdb8 .cfa: r7 8 +
STACK CFI cdbc r11: .cfa -24 + ^
STACK CFI INIT ce0a 2c .cfa: sp 0 +
STACK CFI ce12 .cfa: sp 16 + .ra: .cfa -4 + ^ r7: .cfa -8 + ^ r5: .cfa -12 + ^ r4: .cfa -16 + ^
STACK CFI ce14 .cfa: r7 8 +
STACK CFI INIT ce36 2c .cfa: sp 0 +
STACK CFI ce3e .cfa: sp 16 + .ra: .cfa -4 + ^ r7: .cfa -8 + ^ r5: .cfa -12 + ^ r4: .cfa -16 + ^
STACK CFI ce40 .cfa: r7 8 +
STACK CFI INIT ce62 64 .cfa: sp 0 +
STACK CFI ce64 .cfa: sp 20 + .ra: .cfa -4 + ^ r7: .cfa -8 + ^ r6: .cfa -12 + ^ r5: .cfa -16 + ^ r4: .cfa -20 + ^
STACK CFI ce66 .cfa: r7 8 +
STACK CFI ce6a r11: .cfa -24 + ^ r9: .cfa -28 + ^ r8: .cfa -32 + ^
STACK CFI INIT cec6 2c .cfa: sp 0 +
STACK CFI cece .cfa: sp 16 + .ra: .cfa -4 + ^ r7: .cfa -8 + ^ r5: .cfa -12 + ^ r4: .cfa -16 + ^
STACK CFI ced0 .cfa: r7 8 +
STACK CFI INIT cef2 6e .cfa: sp 0 +
STACK CFI cefa .cfa: sp 20 + .ra: .cfa -4 + ^ r7: .cfa -8 + ^ r6: .cfa -12 + ^ r5: .cfa -16 + ^ r4: .cfa -20 + ^
STACK CFI cefc .cfa: r7 8 +
STACK CFI cf00 r8: .cfa -24 + ^
STACK CFI INIT cf60 2c .cfa: sp 0 +
STACK CFI cf68 .cfa: sp 16 + .ra: .cfa -4 + ^ r7: .cfa -8 + ^ r5: .cfa -12 + ^ r4: .cfa -16 + ^
STACK CFI cf6a .cfa: r7 8 +
STACK CFI INIT cf8c 3a .cfa: sp 0 +
STACK CFI cf8e .cfa: sp 16 + .ra: .cfa -4 + ^ r7: .cfa -8 + ^ r5: .cfa -12 + ^ r4: .cfa -16 + ^
STACK CFI cf90 .cfa: r7 8 +
STACK CFI INIT cfc6 46 .cfa: sp 0 +
STACK CFI cfc8 .cfa: sp 16 + .ra: .cfa -4 + ^ r7: .cfa -8 + ^ r5: .cfa -12 + ^ r4: .cfa -16 + ^
STACK CFI cfca .cfa: r7 8 +
STACK CFI INIT d00c fc .cfa: sp 0 +
STACK CFI d00e .cfa: sp 20 + .ra: .cfa -4 + ^ r7: .cfa -8 + ^ r6: .cfa -12 + ^ r5: .cfa -16 + ^ r4: .cfa -20 + ^
STACK CFI d010 .cfa: r7 8 +
STACK CFI d014 r11: .cfa -24 + ^
STACK CFI INIT d108 f4 .cfa: sp 0 +
STACK CFI d10a .cfa: sp 20 + .ra: .cfa -4 + ^ r7: .cfa -8 + ^ r6: .cfa -12 + ^ r5: .cfa -16 + ^ r4: .cfa -20 + ^
STACK CFI d10c .cfa: r7 8 +
STACK CFI d110 r11: .cfa -24 + ^
STACK CFI INIT d1fc f4 .cfa: sp 0 +
STACK CFI d1fe .cfa: sp 20 + .ra: .cfa -4 + ^ r7: .cfa -8 + ^ r6: .cfa -12 + ^ r5: .cfa -16 + ^ r4: .cfa -20 + ^
STACK CFI d200 .cfa: r7 8 +
STACK CFI d204 r11: .cfa -24 + ^
STACK CFI INIT d2f0 88 .cfa: sp 0 +
STACK CFI d2f2 .cfa: sp 20 + .ra: .cfa -4 + ^ r7: .cfa -8 + ^ r6: .cfa -12 + ^ r5: .cfa -16 + ^ r4: .cfa -20 + ^
STACK CFI d2f4 .cfa: r7 8 +
STACK CFI d2f8 r11: .cfa -24 + ^ r9: .cfa -28 + ^ r8: .cfa -32 + ^
STACK CFI INIT d378 ba .cfa: sp 0 +
STACK CFI d37a .cfa: sp 20 + .ra: .cfa -4 + ^ r7: .cfa -8 + ^ r6: .cfa -12 + ^ r5: .cfa -16 + ^ r4: .cfa -20 + ^
STACK CFI d37c .cfa: r7 8 +
STACK CFI d380 r11: .cfa -24 + ^ r10: .cfa -28 + ^ r9: .cfa -32 + ^ r8: .cfa -36 + ^
STACK CFI INIT d432 14a .cfa: sp 0 +
STACK CFI d444 .cfa: sp 16 + .ra: .cfa -4 + ^ r7: .cfa -8 + ^ r6: .cfa -12 + ^ r4: .cfa -16 + ^
STACK CFI d446 .cfa: r7 8 +
STACK CFI INIT d580 30c .cfa: sp 0 +
STACK CFI d582 .cfa: sp 20 + .ra: .cfa -4 + ^ r7: .cfa -8 + ^ r6: .cfa -12 + ^ r5: .cfa -16 + ^ r4: .cfa -20 + ^
STACK CFI d584 .cfa: r7 8 +
STACK CFI d588 r10: .cfa -24 + ^ r9: .cfa -28 + ^ r8: .cfa -32 + ^
STACK CFI INIT d88c 2 .cfa: sp 0 +
STACK CFI INIT d890 84 .cfa: sp 0 +
STACK CFI d892 .cfa: sp 16 + .ra: .cfa -4 + ^ r7: .cfa -8 + ^ r5: .cfa -12 + ^ r4: .cfa -16 + ^
STACK CFI d894 .cfa: r7 8 +
STACK CFI INIT d914 3e8 .cfa: sp 0 +
STACK CFI d916 .cfa: sp 20 + .ra: .cfa -4 + ^ r7: .cfa -8 + ^ r6: .cfa -12 + ^ r5: .cfa -16 + ^ r4: .cfa -20 + ^
STACK CFI d918 .cfa: r7 8 +
STACK CFI d91c r11: .cfa -24 + ^ r10: .cfa -28 + ^ r9: .cfa -32 + ^ r8: .cfa -36 + ^
STACK CFI INIT dcfc 60 .cfa: sp 0 +
STACK CFI dcfe .cfa: sp 16 + .ra: .cfa -4 + ^ r7: .cfa -8 + ^ r6: .cfa -12 + ^ r4: .cfa -16 + ^
STACK CFI dd00 .cfa: r7 8 +
STACK CFI INIT dd60 320 .cfa: sp 0 +
STACK CFI dd62 .cfa: sp 20 + .ra: .cfa -4 + ^ r7: .cfa -8 + ^ r6: .cfa -12 + ^ r5: .cfa -16 + ^ r4: .cfa -20 + ^
STACK CFI dd64 .cfa: r7 8 +
STACK CFI dd68 r10: .cfa -24 + ^ r9: .cfa -28 + ^ r8: .cfa -32 + ^
STACK CFI INIT e080 2 .cfa: sp 0 +
STACK CFI INIT e084 130 .cfa: sp 0 +
STACK CFI e086 .cfa: sp 20 + .ra: .cfa -4 + ^ r7: .cfa -8 + ^ r6: .cfa -12 + ^ r5: .cfa -16 + ^ r4: .cfa -20 + ^
STACK CFI e088 .cfa: r7 8 +
STACK CFI e08c r10: .cfa -24 + ^ r9: .cfa -28 + ^ r8: .cfa -32 + ^
STACK CFI INIT e1b4 2c .cfa: sp 0 +
STACK CFI e1b6 .cfa: sp 16 + .ra: .cfa -4 + ^ r7: .cfa -8 + ^ r6: .cfa -12 + ^ r4: .cfa -16 + ^
STACK CFI e1b8 .cfa: r7 8 +
STACK CFI INIT e1e0 2d0 .cfa: sp 0 +
STACK CFI e1e2 .cfa: sp 20 + .ra: .cfa -4 + ^ r7: .cfa -8 + ^ r6: .cfa -12 + ^ r5: .cfa -16 + ^ r4: .cfa -20 + ^
STACK CFI e1e4 .cfa: r7 8 +
STACK CFI e1e8 r11: .cfa -24 + ^ r9: .cfa -28 + ^ r8: .cfa -32 + ^
STACK CFI INIT e4b0 2 .cfa: sp 0 +
STACK CFI INIT e4b4 7c .cfa: sp 0 +
STACK CFI e4b6 .cfa: sp 16 + .ra: .cfa -4 + ^ r7: .cfa -8 + ^ r6: .cfa -12 + ^ r4: .cfa -16 + ^
STACK CFI e4b8 .cfa: r7 8 +
STACK CFI INIT e530 12c .cfa: sp 0 +
STACK CFI e532 .cfa: sp 20 + .ra: .cfa -4 + ^ r7: .cfa -8 + ^ r6: .cfa -12 + ^ r5: .cfa -16 + ^ r4: .cfa -20 + ^
STACK CFI e534 .cfa: r7 8 +
STACK CFI e538 r11: .cfa -24 + ^ r9: .cfa -28 + ^ r8: .cfa -32 + ^
STACK CFI INIT e65c 78 .cfa: sp 0 +
STACK CFI e65e .cfa: sp 16 + .ra: .cfa -4 + ^ r7: .cfa -8 + ^ r6: .cfa -12 + ^ r4: .cfa -16 + ^
STACK CFI e660 .cfa: r7 8 +
STACK CFI INIT e6d4 2c .cfa: sp 0 +
STACK CFI e6d6 .cfa: sp 16 + .ra: .cfa -4 + ^ r7: .cfa -8 + ^ r6: .cfa -12 + ^ r4: .cfa -16 + ^
STACK CFI e6d8 .cfa: r7 8 +
STACK CFI INIT 0 20 .cfa: sp 0 +
STACK CFI 2 .cfa: sp 16 + .ra: .cfa -4 + ^ r7: .cfa -8 + ^ r6: .cfa -12 + ^ r4: .cfa -16 + ^
STACK CFI 4 .cfa: r7 8 +
STACK CFI INIT e700 20 .cfa: sp 0 +
STACK CFI e702 .cfa: sp 16 + .ra: .cfa -4 + ^ r7: .cfa -8 + ^ r6: .cfa -12 + ^ r4: .cfa -16 + ^
STACK CFI e704 .cfa: r7 8 +
STACK CFI INIT e720 28 .cfa: sp 0 +
STACK CFI e722 .cfa: sp 16 + .ra: .cfa -4 + ^ r7: .cfa -8 + ^ r5: .cfa -12 + ^ r4: .cfa -16 + ^
STACK CFI e724 .cfa: r7 8 +
STACK CFI INIT e748 cc .cfa: sp 0 +
STACK CFI e74a .cfa: sp 16 + .ra: .cfa -4 + ^ r7: .cfa -8 + ^ r6: .cfa -12 + ^ r4: .cfa -16 + ^
STACK CFI e74c .cfa: r7 8 +
STACK CFI INIT e814 48 .cfa: sp 0 +
STACK CFI e816 .cfa: sp 16 + .ra: .cfa -4 + ^ r7: .cfa -8 + ^ r5: .cfa -12 + ^ r4: .cfa -16 + ^
STACK CFI e818 .cfa: r7 8 +
STACK CFI INIT e85c 60 .cfa: sp 0 +
STACK CFI e85e .cfa: sp 16 + .ra: .cfa -4 + ^ r7: .cfa -8 + ^ r6: .cfa -12 + ^ r4: .cfa -16 + ^
STACK CFI e860 .cfa: r7 8 +
STACK CFI INIT e8bc 46 .cfa: sp 0 +
STACK CFI e8be .cfa: sp 16 + .ra: .cfa -4 + ^ r7: .cfa -8 + ^ r5: .cfa -12 + ^ r4: .cfa -16 + ^
STACK CFI e8c0 .cfa: r7 8 +
STACK CFI INIT e902 10 .cfa: sp 0 +
STACK CFI e904 .cfa: sp 8 + .ra: .cfa -4 + ^ r7: .cfa -8 + ^
STACK CFI e906 .cfa: r7 8 +
STACK CFI INIT e912 10 .cfa: sp 0 +
STACK CFI e914 .cfa: sp 8 + .ra: .cfa -4 + ^ r7: .cfa -8 + ^
STACK CFI e916 .cfa: r7 8 +
STACK CFI INIT e922 8 .cfa: sp 0 +
STACK CFI INIT e92a 10 .cfa: sp 0 +
STACK CFI e92c .cfa: sp 8 + .ra: .cfa -4 + ^ r7: .cfa -8 + ^
STACK CFI e92e .cfa: r7 8 +
STACK CFI INIT e93a 14 .cfa: sp 0 +
STACK CFI e93c .cfa: sp 8 + .ra: .cfa -4 + ^ r7: .cfa -8 + ^
STACK CFI e93e .cfa: r7 8 +
STACK CFI INIT 0 18 .cfa: sp 0 +
STACK CFI 2 .cfa: sp 8 + .ra: .cfa -4 + ^ r7: .cfa -8 + ^
STACK CFI 4 .cfa: r7 8 +
STACK CFI INIT e950 778 .cfa: sp 0 +
STACK CFI e952 .cfa: sp 20 + .ra: .cfa -4 + ^ r7: .cfa -8 + ^ r6: .cfa -12 + ^ r5: .cfa -16 + ^ r4: .cfa -20 + ^
STACK CFI e954 .cfa: r7 8 +
STACK CFI e958 r11: .cfa -24 + ^ r10: .cfa -28 + ^ r9: .cfa -32 + ^ r8: .cfa -36 + ^
STACK CFI INIT f0c8 606 .cfa: sp 0 +
STACK CFI f0ca .cfa: sp 20 + .ra: .cfa -4 + ^ r7: .cfa -8 + ^ r6: .cfa -12 + ^ r5: .cfa -16 + ^ r4: .cfa -20 + ^
STACK CFI f0cc .cfa: r7 8 +
STACK CFI f0d0 r11: .cfa -24 + ^ r10: .cfa -28 + ^ r9: .cfa -32 + ^ r8: .cfa -36 + ^
STACK CFI INIT f6ce 8 .cfa: sp 0 +
STACK CFI INIT f6d6 10 .cfa: sp 0 +
STACK CFI f6d8 .cfa: sp 8 + .ra: .cfa -4 + ^ r7: .cfa -8 + ^
STACK CFI f6da .cfa: r7 8 +
STACK CFI INIT f6e6 14 .cfa: sp 0 +
STACK CFI f6e8 .cfa: sp 8 + .ra: .cfa -4 + ^ r7: .cfa -8 + ^
STACK CFI f6ea .cfa: r7 8 +
STACK CFI INIT f6fc f0 .cfa: sp 0 +
STACK CFI f6fe .cfa: sp 20 + .ra: .cfa -4 + ^ r7: .cfa -8 + ^ r6: .cfa -12 + ^ r5: .cfa -16 + ^ r4: .cfa -20 + ^
STACK CFI f700 .cfa: r7 8 +
STACK CFI f704 r11: .cfa -24 + ^ r10: .cfa -28 + ^ r9: .cfa -32 + ^ r8: .cfa -36 + ^
STACK CFI INIT f7f0 100 .cfa: sp 0 +
STACK CFI f7f2 .cfa: sp 20 + .ra: .cfa -4 + ^ r7: .cfa -8 + ^ r6: .cfa -12 + ^ r5: .cfa -16 + ^ r4: .cfa -20 + ^
STACK CFI f7f4 .cfa: r7 8 +
STACK CFI f7f8 r10: .cfa -24 + ^ r9: .cfa -28 + ^ r8: .cfa -32 + ^
STACK CFI INIT f8f0 18 .cfa: sp 0 +
STACK CFI f8f2 .cfa: sp 8 + .ra: .cfa -4 + ^ r7: .cfa -8 + ^
STACK CFI f8f4 .cfa: r7 8 +
STACK CFI INIT f908 fc .cfa: sp 0 +
STACK CFI f90a .cfa: sp 20 + .ra: .cfa -4 + ^ r7: .cfa -8 + ^ r6: .cfa -12 + ^ r5: .cfa -16 + ^ r4: .cfa -20 + ^
STACK CFI f90c .cfa: r7 8 +
STACK CFI f910 r10: .cfa -24 + ^ r9: .cfa -28 + ^ r8: .cfa -32 + ^
STACK CFI INIT fa10 110 .cfa: sp 0 +
STACK CFI fa12 .cfa: sp 20 + .ra: .cfa -4 + ^ r7: .cfa -8 + ^ r6: .cfa -12 + ^ r5: .cfa -16 + ^ r4: .cfa -20 + ^
STACK CFI fa14 .cfa: r7 8 +
STACK CFI fa18 r11: .cfa -24 + ^ r10: .cfa -28 + ^ r9: .cfa -32 + ^ r8: .cfa -36 + ^
STACK CFI INIT fb20 24 .cfa: sp 0 +
STACK CFI fb22 .cfa: sp 8 + .ra: .cfa -4 + ^ r7: .cfa -8 + ^
STACK CFI fb24 .cfa: r7 8 +
STACK CFI INIT fb44 ec .cfa: sp 0 +
STACK CFI fb46 .cfa: sp 20 + .ra: .cfa -4 + ^ r7: .cfa -8 + ^ r6: .cfa -12 + ^ r5: .cfa -16 + ^ r4: .cfa -20 + ^
STACK CFI fb48 .cfa: r7 8 +
STACK CFI fb4c r11: .cfa -24 + ^ r10: .cfa -28 + ^ r9: .cfa -32 + ^ r8: .cfa -36 + ^
STACK CFI INIT fc30 b0 .cfa: sp 0 +
STACK CFI fc32 .cfa: sp 20 + .ra: .cfa -4 + ^ r7: .cfa -8 + ^ r6: .cfa -12 + ^ r5: .cfa -16 + ^ r4: .cfa -20 + ^
STACK CFI fc34 .cfa: r7 8 +
STACK CFI fc38 r8: .cfa -24 + ^
STACK CFI INIT fce0 10 .cfa: sp 0 +
STACK CFI INIT fcf0 e8 .cfa: sp 0 +
STACK CFI fcf2 .cfa: sp 20 + .ra: .cfa -4 + ^ r7: .cfa -8 + ^ r6: .cfa -12 + ^ r5: .cfa -16 + ^ r4: .cfa -20 + ^
STACK CFI fcf4 .cfa: r7 8 +
STACK CFI fcf8 r10: .cfa -24 + ^ r9: .cfa -28 + ^ r8: .cfa -32 + ^
STACK CFI INIT fde0 b0 .cfa: sp 0 +
STACK CFI fde2 .cfa: sp 20 + .ra: .cfa -4 + ^ r7: .cfa -8 + ^ r6: .cfa -12 + ^ r5: .cfa -16 + ^ r4: .cfa -20 + ^
STACK CFI fde4 .cfa: r7 8 +
STACK CFI fde8 r8: .cfa -24 + ^
STACK CFI INIT fe90 2 .cfa: sp 0 +
STACK CFI INIT fe92 4 .cfa: sp 0 +
STACK CFI INIT fe96 8 .cfa: sp 0 +
STACK CFI INIT fe9e 2 .cfa: sp 0 +
STACK CFI INIT fea0 ec .cfa: sp 0 +
STACK CFI fea2 .cfa: sp 20 + .ra: .cfa -4 + ^ r7: .cfa -8 + ^ r6: .cfa -12 + ^ r5: .cfa -16 + ^ r4: .cfa -20 + ^
STACK CFI fea4 .cfa: r7 8 +
STACK CFI fea8 r11: .cfa -24 + ^ r10: .cfa -28 + ^ r9: .cfa -32 + ^ r8: .cfa -36 + ^
STACK CFI INIT ff90 100 .cfa: sp 0 +
STACK CFI ff92 .cfa: sp 20 + .ra: .cfa -4 + ^ r7: .cfa -8 + ^ r6: .cfa -12 + ^ r5: .cfa -16 + ^ r4: .cfa -20 + ^
STACK CFI ff94 .cfa: r7 8 +
STACK CFI ff98 r11: .cfa -24 + ^ r10: .cfa -28 + ^ r9: .cfa -32 + ^ r8: .cfa -36 + ^
STACK CFI INIT 10090 fc .cfa: sp 0 +
STACK CFI 10092 .cfa: sp 20 + .ra: .cfa -4 + ^ r7: .cfa -8 + ^ r6: .cfa -12 + ^ r5: .cfa -16 + ^ r4: .cfa -20 + ^
STACK CFI 10094 .cfa: r7 8 +
STACK CFI 10098 r11: .cfa -24 + ^ r10: .cfa -28 + ^ r9: .cfa -32 + ^ r8: .cfa -36 + ^
STACK CFI INIT 10190 110 .cfa: sp 0 +
STACK CFI 10192 .cfa: sp 20 + .ra: .cfa -4 + ^ r7: .cfa -8 + ^ r6: .cfa -12 + ^ r5: .cfa -16 + ^ r4: .cfa -20 + ^
STACK CFI 10194 .cfa: r7 8 +
STACK CFI 10198 r11: .cfa -24 + ^ r10: .cfa -28 + ^ r9: .cfa -32 + ^ r8: .cfa -36 + ^
STACK CFI INIT 102a0 e8 .cfa: sp 0 +
STACK CFI 102a2 .cfa: sp 20 + .ra: .cfa -4 + ^ r7: .cfa -8 + ^ r6: .cfa -12 + ^ r5: .cfa -16 + ^ r4: .cfa -20 + ^
STACK CFI 102a4 .cfa: r7 8 +
STACK CFI 102a8 r10: .cfa -24 + ^ r9: .cfa -28 + ^ r8: .cfa -32 + ^
STACK CFI INIT 10390 b0 .cfa: sp 0 +
STACK CFI 10392 .cfa: sp 20 + .ra: .cfa -4 + ^ r7: .cfa -8 + ^ r6: .cfa -12 + ^ r5: .cfa -16 + ^ r4: .cfa -20 + ^
STACK CFI 10394 .cfa: r7 8 +
STACK CFI 10398 r8: .cfa -24 + ^
STACK CFI INIT 10440 2d4 .cfa: sp 0 +
STACK CFI 10442 .cfa: sp 20 + .ra: .cfa -4 + ^ r7: .cfa -8 + ^ r6: .cfa -12 + ^ r5: .cfa -16 + ^ r4: .cfa -20 + ^
STACK CFI 10444 .cfa: r7 8 +
STACK CFI 10448 r11: .cfa -24 + ^ r10: .cfa -28 + ^ r9: .cfa -32 + ^ r8: .cfa -36 + ^
STACK CFI INIT 10714 8 .cfa: sp 0 +
STACK CFI INIT 1071c 10 .cfa: sp 0 +
STACK CFI 1071e .cfa: sp 8 + .ra: .cfa -4 + ^ r7: .cfa -8 + ^
STACK CFI 10720 .cfa: r7 8 +
STACK CFI INIT 1072c 14 .cfa: sp 0 +
STACK CFI 1072e .cfa: sp 8 + .ra: .cfa -4 + ^ r7: .cfa -8 + ^
STACK CFI 10730 .cfa: r7 8 +
STACK CFI INIT 10740 e8 .cfa: sp 0 +
STACK CFI 10742 .cfa: sp 20 + .ra: .cfa -4 + ^ r7: .cfa -8 + ^ r6: .cfa -12 + ^ r5: .cfa -16 + ^ r4: .cfa -20 + ^
STACK CFI 10744 .cfa: r7 8 +
STACK CFI 10748 r10: .cfa -24 + ^ r9: .cfa -28 + ^ r8: .cfa -32 + ^
STACK CFI INIT 10830 b0 .cfa: sp 0 +
STACK CFI 10832 .cfa: sp 20 + .ra: .cfa -4 + ^ r7: .cfa -8 + ^ r6: .cfa -12 + ^ r5: .cfa -16 + ^ r4: .cfa -20 + ^
STACK CFI 10834 .cfa: r7 8 +
STACK CFI 10838 r8: .cfa -24 + ^
STACK CFI INIT 108e0 4 .cfa: sp 0 +
STACK CFI INIT 108e4 2 .cfa: sp 0 +
STACK CFI INIT 108e6 2 .cfa: sp 0 +
STACK CFI INIT 108e8 2 .cfa: sp 0 +
STACK CFI INIT 108ea 2 .cfa: sp 0 +
STACK CFI INIT 108ec 2 .cfa: sp 0 +
STACK CFI INIT 108f0 214 .cfa: sp 0 +
STACK CFI 108f2 .cfa: sp 20 + .ra: .cfa -4 + ^ r7: .cfa -8 + ^ r6: .cfa -12 + ^ r5: .cfa -16 + ^ r4: .cfa -20 + ^
STACK CFI 108f4 .cfa: r7 8 +
STACK CFI 108f8 r11: .cfa -24 + ^ r10: .cfa -28 + ^ r9: .cfa -32 + ^ r8: .cfa -36 + ^
STACK CFI INIT 10b04 25c .cfa: sp 0 +
STACK CFI 10b06 .cfa: sp 20 + .ra: .cfa -4 + ^ r7: .cfa -8 + ^ r6: .cfa -12 + ^ r5: .cfa -16 + ^ r4: .cfa -20 + ^
STACK CFI 10b08 .cfa: r7 8 +
STACK CFI 10b0c r11: .cfa -24 + ^ r10: .cfa -28 + ^ r9: .cfa -32 + ^ r8: .cfa -36 + ^
STACK CFI INIT 10d60 410 .cfa: sp 0 +
STACK CFI 10d62 .cfa: sp 20 + .ra: .cfa -4 + ^ r7: .cfa -8 + ^ r6: .cfa -12 + ^ r5: .cfa -16 + ^ r4: .cfa -20 + ^
STACK CFI 10d64 .cfa: r7 8 +
STACK CFI 10d68 r11: .cfa -24 + ^ r10: .cfa -28 + ^ r9: .cfa -32 + ^ r8: .cfa -36 + ^
STACK CFI INIT 11170 f8 .cfa: sp 0 +
STACK CFI 11172 .cfa: sp 20 + .ra: .cfa -4 + ^ r7: .cfa -8 + ^ r6: .cfa -12 + ^ r5: .cfa -16 + ^ r4: .cfa -20 + ^
STACK CFI 11174 .cfa: r7 8 +
STACK CFI 11178 r8: .cfa -24 + ^
STACK CFI INIT 11268 104 .cfa: sp 0 +
STACK CFI 1126a .cfa: sp 20 + .ra: .cfa -4 + ^ r7: .cfa -8 + ^ r6: .cfa -12 + ^ r5: .cfa -16 + ^ r4: .cfa -20 + ^
STACK CFI 1126c .cfa: r7 8 +
STACK CFI 11270 r8: .cfa -24 + ^
STACK CFI INIT 1136c 2 .cfa: sp 0 +
STACK CFI INIT 1136e e .cfa: sp 0 +
STACK CFI INIT 1137c 3f2 .cfa: sp 0 +
STACK CFI 1137e .cfa: sp 20 + .ra: .cfa -4 + ^ r7: .cfa -8 + ^ r6: .cfa -12 + ^ r5: .cfa -16 + ^ r4: .cfa -20 + ^
STACK CFI 11380 .cfa: r7 8 +
STACK CFI 11384 r11: .cfa -24 + ^ r10: .cfa -28 + ^ r9: .cfa -32 + ^ r8: .cfa -36 + ^
