MODULE Linux arm64 28BDE439A9B1D29925214A3213AA84F60 jarvisdevil.screwyou.android64.so
INFO CODE_ID 39E4BD28B1A999D225214A3213AA84F627DDA258
INFO GENERATOR mozilla/dump_syms 2.3.4
PUBLIC 2c50 0 __on_dlclose
PUBLIC 2c60 0 __emutls_unregister_key
PUBLIC 2c68 0 __on_dlclose_late
PUBLIC 2c70 0 __atexit_handler_wrapper
PUBLIC 2c84 0 atexit
PUBLIC 2ca0 0 pthread_atfork
PUBLIC 2cb0 0 __aarch64_ldadd8_relax
PUBLIC 2ce0 0 init_have_lse_atomics
PUBLIC 2d78 0 __init_cpu_features_constructor
PUBLIC 3314 0 __init_cpu_features
PUBLIC 33a0 0 __aarch64_ldadd8_acq_rel
PUBLIC 33d0 0 __cxx_global_var_init
PUBLIC 3f70 0 geode::modifier::ModifyBase<geode::modifier::ModifyDerive<hook7<(anonymous namespace)::hook7Parent>, PlayerObject> >::~ModifyBase()
PUBLIC 3f88 0 geode::modifier::ModifyDerive<hook7<(anonymous namespace)::hook7Parent>, PlayerObject>::apply()
PUBLIC 4410 0 std::__ndk1::shared_ptr<geode::Hook>::~shared_ptr[abi:ne180000]()
PUBLIC 4460 0 geode::impl::ResultData<geode::Hook*, std::__ndk1::basic_string<char, std::__ndk1::char_traits<char>, std::__ndk1::allocator<char> > >::~ResultData()
PUBLIC 44d4 0 std::__ndk1::vector<std::__ndk1::basic_string<char, std::__ndk1::char_traits<char>, std::__ndk1::allocator<char> >, std::__ndk1::allocator<std::__ndk1::basic_string<char, std::__ndk1::char_traits<char>, std::__ndk1::allocator<char> > > >::~vector[abi:ne180000]()
PUBLIC 4550 0 geode::modifier::ModifyBase<geode::modifier::ModifyDerive<hook7<(anonymous namespace)::hook7Parent>, PlayerObject> >::apply()
PUBLIC 4554 0 __clang_call_terminate
PUBLIC 4564 0 _ZN5geode15UnwrapExceptionC2IRPNS_4HookEQsr4implE18IsStringStreamableIT_EEENS_4impl5OkTagEOS5_
PUBLIC 46b8 0 std::__ndk1::__throw_bad_variant_access[abi:ne180000]()
PUBLIC 46ec 0 std::__ndk1::basic_stringstream<char, std::__ndk1::char_traits<char>, std::__ndk1::allocator<char> >::basic_stringstream[abi:ne180000]()
PUBLIC m 4818 0 std::__ndk1::basic_stringstream<char, std::__ndk1::char_traits<char>, std::__ndk1::allocator<char> >::~basic_stringstream()
PUBLIC 4898 0 geode::UnwrapException::~UnwrapException()
PUBLIC 48bc 0 std::__ndk1::__put_character_sequence[abi:ne180000]<char, std::__ndk1::char_traits<char> >(std::__ndk1::basic_ostream<char, std::__ndk1::char_traits<char> >, std::__ndk1::basic_ostream const*, unsigned long)
PUBLIC 4a60 0 std::__ndk1::__pad_and_output[abi:ne180000]<char, std::__ndk1::char_traits<char> >(std::__ndk1::char_traits<char>, std::__ndk1::ostreambuf_iterator const*, std::__ndk1::ostreambuf_iterator const, std::__ndk1::ostreambuf_iterator const, std::__ndk1::ios_base&, std::__ndk1::ostreambuf_iterator)
PUBLIC 4c3c 0 std::__ndk1::basic_string<char, std::__ndk1::char_traits<char>, std::__ndk1::allocator<char> >::__throw_length_error[abi:ne180000]() const
PUBLIC 4c50 0 std::__ndk1::__throw_length_error[abi:ne180000](char const*)
PUBLIC 4ca0 0 std::length_error::length_error[abi:ne180000](char const*)
PUBLIC 4cd0 0 std::__throw_bad_array_new_length([abi:ne180000], void)
PUBLIC 4d04 0 std::__ndk1::basic_stringbuf<char, std::__ndk1::char_traits<char>, std::__ndk1::allocator<char> >::str[abi:ne180000]() &&
PUBLIC 4e7c 0 std::__ndk1::basic_stringbuf<char, std::__ndk1::char_traits<char>, std::__ndk1::allocator<char> >::__init_buf_ptrs[abi:ne180000]()
PUBLIC 4fc4 0 std::__ndk1::basic_string<char, std::__ndk1::char_traits<char>, std::__ndk1::allocator<char> >::__init_copy_ctor_external(char const*, unsigned long)
PUBLIC 5044 0 std::__ndk1::__split_buffer<std::__ndk1::basic_string<char, std::__ndk1::char_traits<char>, std::__ndk1::allocator<char> >, std::__ndk1::allocator<std::__ndk1::basic_string<char, std::__ndk1::char_traits<char>, std::__ndk1::allocator<char> > >&>::~__split_buffer()
PUBLIC 50ac 0 std::__ndk1::vector<std::__ndk1::basic_string<char, std::__ndk1::char_traits<char>, std::__ndk1::allocator<char> >, std::__ndk1::allocator<std::__ndk1::basic_string<char, std::__ndk1::char_traits<char>, std::__ndk1::allocator<char> > > >::__throw_length_error[abi:ne180000]() const
PUBLIC 50c0 0 std::__ndk1::__variant_detail::__visitation::__base::__dispatcher<(unsigned long)0>::__dispatch[abi:ne180000]<std::__ndk1::__variant_detail::__dtor<std::__ndk1::__variant_detail::__traits<geode::Hook*, std::__ndk1::basic_string<char, std::__ndk1::char_traits<char>, std::__ndk1::allocator<char> > >, (std::__ndk1::__variant_detail::_Trait)1>::__destroy[abi:ne180000]()::{lambda(auto:1&)#1}, std::__ndk1::__variant_detail::__base<(std::__ndk1::__variant_detail::__traits<geode::Hook*, std::__ndk1::basic_string<char, std::__ndk1::char_traits<char>, std::__ndk1::allocator<char> > >)1, geode::Hook, std::__ndk1::allocator<char> >&>(std::__ndk1::__variant_detail::__dtor<std::__ndk1::__variant_detail::__traits<geode::Hook*, std::__ndk1::basic_string<char, std::__ndk1::char_traits<char>, std::__ndk1::allocator<char> > >, (std::__ndk1::__variant_detail::_Trait)1>, std::__ndk1::__variant_detail::__base<(std::__ndk1::__variant_detail::__traits<geode::Hook*, std::__ndk1::basic_string<char, std::__ndk1::char_traits<char>, std::__ndk1::allocator<char> > >)1, geode::Hook, std::__ndk1::allocator<char> >&)
PUBLIC 50c4 0 std::__ndk1::__variant_detail::__visitation::__base::__dispatcher<(unsigned long)1>::__dispatch[abi:ne180000]<std::__ndk1::__variant_detail::__dtor<std::__ndk1::__variant_detail::__traits<geode::Hook*, std::__ndk1::basic_string<char, std::__ndk1::char_traits<char>, std::__ndk1::allocator<char> > >, (std::__ndk1::__variant_detail::_Trait)1>::__destroy[abi:ne180000]()::{lambda(auto:1&)#1}, std::__ndk1::__variant_detail::__base<(std::__ndk1::__variant_detail::__traits<geode::Hook*, std::__ndk1::basic_string<char, std::__ndk1::char_traits<char>, std::__ndk1::allocator<char> > >)1, geode::Hook, std::__ndk1::allocator<char> >&>(std::__ndk1::__variant_detail::__dtor<std::__ndk1::__variant_detail::__traits<geode::Hook*, std::__ndk1::basic_string<char, std::__ndk1::char_traits<char>, std::__ndk1::allocator<char> > >, (std::__ndk1::__variant_detail::_Trait)1>, std::__ndk1::__variant_detail::__base<(std::__ndk1::__variant_detail::__traits<geode::Hook*, std::__ndk1::basic_string<char, std::__ndk1::char_traits<char>, std::__ndk1::allocator<char> > >)1, geode::Hook, std::__ndk1::allocator<char> >&)
PUBLIC 50d8 0 std::__ndk1::__tree<std::__ndk1::__value_type<std::__ndk1::basic_string<char, std::__ndk1::char_traits<char>, std::__ndk1::allocator<char> >, std::__ndk1::shared_ptr<geode::Hook> >, std::__ndk1::__map_value_compare<std::__ndk1::basic_string<char, std::__ndk1::char_traits<char>, std::__ndk1::allocator<char> >, std::__ndk1::__value_type<std::__ndk1::basic_string<char, std::__ndk1::char_traits<char>, std::__ndk1::allocator<char> >, std::__ndk1::shared_ptr<geode::Hook> >, std::__ndk1::less<std::__ndk1::basic_string<char, std::__ndk1::char_traits<char>, std::__ndk1::allocator<char> > >, true>, std::__ndk1::allocator<std::__ndk1::__value_type<std::__ndk1::basic_string<char, std::__ndk1::char_traits<char>, std::__ndk1::allocator<char> >, std::__ndk1::shared_ptr<geode::Hook> > > >::destroy(std::__ndk1::__tree_node<std::__ndk1::__value_type<std::__ndk1::basic_string<char, std::__ndk1::char_traits<char>, std::__ndk1::allocator<char> >, std::__ndk1::shared_ptr<geode::Hook> >, void*>*)
PUBLIC 515c 0 geode::modifier::AsStaticFunction_playerDestroyed<hook7<(anonymous namespace)::hook7Parent>, void (hook7<(anonymous namespace)::hook7Parent>::*)(bool)>::Impl<void (hook7<(anonymous namespace)::hook7Parent>::*)(bool)>::function(hook7<(anonymous namespace)::hook7Parent>*, bool)
PUBLIC 5308 0 std::__ndk1::shared_ptr<tulip::hook::CallingConvention>::~shared_ptr[abi:ne180000]()
PUBLIC 5358 0 tulip::hook::HandlerMetadata::~HandlerMetadata()
PUBLIC 53bc 0 geode::cast::traverseTypeinfoFor(void*, geode::cast::ClassTypeinfoType const*, char const*)
PUBLIC 54b4 0 std::__ndk1::__tree_balance_after_insert[abi:ne180000]<std::__ndk1::__tree_node_base<void*>*>(std::__ndk1::__tree_node_base<void*>*, std::__ndk1::__tree_node_base<void*>*)
PUBLIC m 5664 0 geodeImplicitEntry
PUBLIC 56a0 0 <.plt ELF section in jarvisdevil.screwyou.android64.so>
STACK CFI INIT 2c50 10 .cfa: sp 0 +
STACK CFI INIT 2c60 8 .cfa: sp 0 +
STACK CFI INIT 2c68 8 .cfa: sp 0 +
STACK CFI INIT 2c70 14 .cfa: sp 0 +
STACK CFI INIT 2c84 1c .cfa: sp 0 +
STACK CFI INIT 2ca0 10 .cfa: sp 0 +
STACK CFI INIT 2cb0 30 .cfa: sp 0 +
STACK CFI INIT 2ce0 98 .cfa: sp 0 +
STACK CFI INIT 2d78 59c .cfa: sp 0 +
STACK CFI INIT 3314 8c .cfa: sp 0 +
STACK CFI INIT 33a0 30 .cfa: sp 0 +
STACK CFI INIT 3f70 18 .cfa: sp 0 +
STACK CFI INIT 4410 50 .cfa: sp 0 +
STACK CFI 4414 .cfa: sp 32 +
STACK CFI 441c .cfa: x29 32 + x19: .cfa -16 + ^ .ra: .cfa -24 + ^ x29: .cfa -32 + ^
STACK CFI 4434 .cfa: sp 32 +
STACK CFI 443c .cfa: sp 0 +
STACK CFI 4440 .cfa: x29 32 +
STACK CFI 4454 .cfa: sp 32 +
STACK CFI 445c .cfa: sp 0 +
STACK CFI INIT 44d4 7c .cfa: sp 0 +
STACK CFI 44d8 .cfa: sp 48 +
STACK CFI 44e4 .cfa: x29 48 + x19: .cfa -8 + ^ x20: .cfa -16 + ^ x21: .cfa -32 + ^ .ra: .cfa -40 + ^ x29: .cfa -48 + ^
STACK CFI 4530 .cfa: sp 48 +
STACK CFI 453c .cfa: sp 0 +
STACK CFI 4540 .cfa: sp 48 +
STACK CFI 454c .cfa: sp 0 +
STACK CFI INIT 4550 4 .cfa: sp 0 +
STACK CFI INIT 4554 10 .cfa: sp 0 +
STACK CFI 4558 .cfa: sp 16 +
STACK CFI 455c .cfa: x29 16 + .ra: .cfa -8 + ^ x29: .cfa -16 + ^
STACK CFI INIT 46b8 34 .cfa: sp 0 +
STACK CFI 46bc .cfa: sp 16 +
STACK CFI 46c0 .cfa: x29 16 + .ra: .cfa -8 + ^ x29: .cfa -16 + ^
STACK CFI INIT 4818 80 .cfa: sp 0 +
STACK CFI 481c .cfa: sp 48 +
STACK CFI 4828 .cfa: x29 48 + x19: .cfa -8 + ^ x20: .cfa -16 + ^ x21: .cfa -32 + ^ .ra: .cfa -40 + ^ x29: .cfa -48 + ^
STACK CFI 4888 .cfa: sp 48 +
STACK CFI 4894 .cfa: sp 0 +
STACK CFI INIT 4898 24 .cfa: sp 0 +
STACK CFI 489c .cfa: sp 32 +
STACK CFI 48a4 .cfa: x29 32 + x19: .cfa -16 + ^ .ra: .cfa -24 + ^ x29: .cfa -32 + ^
STACK CFI 48b0 .cfa: sp 32 +
STACK CFI 48b8 .cfa: sp 0 +
STACK CFI INIT 4c3c 14 .cfa: sp 0 +
STACK CFI 4c40 .cfa: sp 16 +
STACK CFI 4c44 .cfa: x29 16 + .ra: .cfa -8 + ^ x29: .cfa -16 + ^
STACK CFI INIT 4ca0 30 .cfa: sp 0 +
STACK CFI 4ca4 .cfa: sp 32 +
STACK CFI 4cac .cfa: x29 32 + x19: .cfa -16 + ^ .ra: .cfa -24 + ^ x29: .cfa -32 + ^
STACK CFI 4cc4 .cfa: sp 32 +
STACK CFI 4ccc .cfa: sp 0 +
STACK CFI INIT 4cd0 34 .cfa: sp 0 +
STACK CFI 4cd4 .cfa: sp 32 +
STACK CFI 4cdc .cfa: x29 32 + x19: .cfa -16 + ^ .ra: .cfa -24 + ^ x29: .cfa -32 + ^
STACK CFI INIT 4e7c 148 .cfa: sp 0 +
STACK CFI 4e80 .cfa: sp 48 +
STACK CFI 4e8c .cfa: x29 48 + x19: .cfa -8 + ^ x20: .cfa -16 + ^ x21: .cfa -32 + ^ .ra: .cfa -40 + ^ x29: .cfa -48 + ^
STACK CFI 4fb4 .cfa: sp 48 +
STACK CFI 4fc0 .cfa: sp 0 +
STACK CFI INIT 4fc4 80 .cfa: sp 0 +
STACK CFI 4fc8 .cfa: sp 48 +
STACK CFI 4fd4 .cfa: x29 48 + x19: .cfa -8 + ^ x20: .cfa -16 + ^ x21: .cfa -24 + ^ x22: .cfa -32 + ^ .ra: .cfa -40 + ^ x29: .cfa -48 + ^
STACK CFI 4fec .cfa: sp 48 +
STACK CFI 4ff8 .cfa: sp 0 +
STACK CFI 4ffc .cfa: x29 48 +
STACK CFI 502c .cfa: sp 48 +
STACK CFI 5038 .cfa: sp 0 +
STACK CFI 503c .cfa: x29 48 +
STACK CFI INIT 5044 68 .cfa: sp 0 +
STACK CFI 5048 .cfa: sp 32 +
STACK CFI 5050 .cfa: x29 32 + x19: .cfa -8 + ^ x20: .cfa -16 + ^ .ra: .cfa -24 + ^ x29: .cfa -32 + ^
STACK CFI 5068 .cfa: sp 32 +
STACK CFI 5070 .cfa: sp 0 +
STACK CFI 5074 .cfa: x29 32 +
STACK CFI 50a0 .cfa: sp 32 +
STACK CFI 50a8 .cfa: sp 0 +
STACK CFI INIT 50ac 14 .cfa: sp 0 +
STACK CFI 50b0 .cfa: sp 16 +
STACK CFI 50b4 .cfa: x29 16 + .ra: .cfa -8 + ^ x29: .cfa -16 + ^
STACK CFI INIT 50c0 4 .cfa: sp 0 +
STACK CFI INIT 50c4 14 .cfa: sp 0 +
STACK CFI INIT 50d8 84 .cfa: sp 0 +
STACK CFI 50e0 .cfa: sp 32 +
STACK CFI 50e8 .cfa: x29 32 + x19: .cfa -8 + ^ x20: .cfa -16 + ^ .ra: .cfa -24 + ^ x29: .cfa -32 + ^
STACK CFI 5128 .cfa: sp 32 +
STACK CFI 5130 .cfa: sp 0 +
STACK CFI 5138 .cfa: x29 32 +
STACK CFI INIT 515c 1ac .cfa: sp 0 +
STACK CFI 5160 .cfa: sp 96 +
STACK CFI 5174 .cfa: x29 64 + x19: .cfa -8 + ^ x20: .cfa -16 + ^ x21: .cfa -24 + ^ x22: .cfa -32 + ^ x23: .cfa -40 + ^ x24: .cfa -48 + ^ .ra: .cfa -56 + ^ x29: .cfa -64 + ^
STACK CFI 52c4 .cfa: sp 96 +
STACK CFI 52d8 .cfa: sp 0 +
STACK CFI 52dc .cfa: x29 64 +
STACK CFI 52ec .cfa: sp 96 +
STACK CFI 5300 .cfa: sp 0 +
STACK CFI 5304 .cfa: x29 64 +
STACK CFI INIT 5308 50 .cfa: sp 0 +
STACK CFI 530c .cfa: sp 32 +
STACK CFI 5314 .cfa: x29 32 + x19: .cfa -16 + ^ .ra: .cfa -24 + ^ x29: .cfa -32 + ^
STACK CFI 532c .cfa: sp 32 +
STACK CFI 5334 .cfa: sp 0 +
STACK CFI 5338 .cfa: x29 32 +
STACK CFI 534c .cfa: sp 32 +
STACK CFI 5354 .cfa: sp 0 +
STACK CFI INIT 5358 64 .cfa: sp 0 +
STACK CFI 535c .cfa: sp 32 +
STACK CFI 5364 .cfa: x29 32 + x19: .cfa -16 + ^ .ra: .cfa -24 + ^ x29: .cfa -32 + ^
STACK CFI 5390 .cfa: sp 32 +
STACK CFI 5398 .cfa: sp 0 +
STACK CFI 539c .cfa: x29 32 +
STACK CFI 53b0 .cfa: sp 32 +
STACK CFI 53b8 .cfa: sp 0 +
STACK CFI INIT 53bc f8 .cfa: sp 0 +
STACK CFI 53c0 .cfa: sp 64 +
STACK CFI 53d0 .cfa: x29 64 + x19: .cfa -8 + ^ x20: .cfa -16 + ^ x21: .cfa -24 + ^ x22: .cfa -32 + ^ x23: .cfa -48 + ^ .ra: .cfa -56 + ^ x29: .cfa -64 + ^
STACK CFI 542c .cfa: sp 64 +
STACK CFI 543c .cfa: sp 0 +
STACK CFI 5440 .cfa: x29 64 +
STACK CFI 545c .cfa: sp 64 +
STACK CFI 546c .cfa: sp 0 +
STACK CFI 5470 .cfa: x29 64 +
STACK CFI 54a0 .cfa: sp 64 +
STACK CFI 54b0 .cfa: sp 0 +
STACK CFI INIT 54b4 1b0 .cfa: sp 0 +
STACK CFI INIT 5664 3c .cfa: sp 0 +
STACK CFI 5668 .cfa: sp 32 +
STACK CFI 5670 .cfa: x29 32 + x19: .cfa -16 + ^ .ra: .cfa -24 + ^ x29: .cfa -32 + ^
STACK CFI 567c .cfa: sp 32 +
STACK CFI 5684 .cfa: sp 0 +
STACK CFI 5688 .cfa: x29 32 +
STACK CFI 5694 .cfa: sp 32 +
STACK CFI 569c .cfa: sp 0 +
STACK CFI INIT 33d0 ba0 .cfa: sp 0 +
STACK CFI 33d4 .cfa: sp 240 +
STACK CFI 33f0 .cfa: x29 96 + x19: .cfa -8 + ^ x20: .cfa -16 + ^ x21: .cfa -24 + ^ x22: .cfa -32 + ^ x23: .cfa -40 + ^ x24: .cfa -48 + ^ x25: .cfa -56 + ^ x26: .cfa -64 + ^ x27: .cfa -72 + ^ x28: .cfa -80 + ^ .ra: .cfa -88 + ^ x29: .cfa -96 + ^
STACK CFI 3e18 .cfa: sp 240 +
STACK CFI 3e34 .cfa: sp 0 +
STACK CFI 3e38 .cfa: x29 96 +
STACK CFI INIT 3f88 488 .cfa: sp 0 +
STACK CFI 3f8c .cfa: sp 304 +
STACK CFI 3fa8 .cfa: x29 96 + x19: .cfa -8 + ^ x20: .cfa -16 + ^ x21: .cfa -24 + ^ x22: .cfa -32 + ^ x23: .cfa -40 + ^ x24: .cfa -48 + ^ x25: .cfa -56 + ^ x26: .cfa -64 + ^ x27: .cfa -72 + ^ x28: .cfa -80 + ^ .ra: .cfa -88 + ^ x29: .cfa -96 + ^
STACK CFI 42d0 .cfa: sp 304 +
STACK CFI 42ec .cfa: sp 0 +
STACK CFI 42f0 .cfa: x29 96 +
STACK CFI INIT 4460 74 .cfa: sp 0 +
STACK CFI 4464 .cfa: sp 48 +
STACK CFI 4470 .cfa: x29 32 + x19: .cfa -8 + ^ x20: .cfa -16 + ^ .ra: .cfa -24 + ^ x29: .cfa -32 + ^
STACK CFI 44bc .cfa: sp 48 +
STACK CFI 44c8 .cfa: sp 0 +
STACK CFI 44cc .cfa: x29 32 +
STACK CFI INIT 4564 154 .cfa: sp 0 +
STACK CFI 4568 .cfa: sp 384 +
STACK CFI 457c .cfa: x29 64 + x19: .cfa -8 + ^ x20: .cfa -16 + ^ x21: .cfa -24 + ^ x22: .cfa -32 + ^ x23: .cfa -40 + ^ x28: .cfa -48 + ^ .ra: .cfa -56 + ^ x29: .cfa -64 + ^
STACK CFI 4660 .cfa: sp 384 +
STACK CFI 4674 .cfa: sp 0 +
STACK CFI 4678 .cfa: x29 64 +
STACK CFI INIT 46ec 12c .cfa: sp 0 +
STACK CFI 46f0 .cfa: sp 80 +
STACK CFI 4704 .cfa: x29 80 + x19: .cfa -8 + ^ x20: .cfa -16 + ^ x21: .cfa -24 + ^ x22: .cfa -32 + ^ x23: .cfa -40 + ^ x24: .cfa -48 + ^ x25: .cfa -56 + ^ x26: .cfa -64 + ^ .ra: .cfa -72 + ^ x29: .cfa -80 + ^
STACK CFI 47cc .cfa: sp 80 +
STACK CFI 47e0 .cfa: sp 0 +
STACK CFI 47e4 .cfa: x29 80 +
STACK CFI INIT 48bc 1a4 .cfa: sp 0 +
STACK CFI 48c0 .cfa: sp 112 +
STACK CFI 48d8 .cfa: x29 80 + x19: .cfa -8 + ^ x20: .cfa -16 + ^ x21: .cfa -24 + ^ x22: .cfa -32 + ^ x23: .cfa -40 + ^ x24: .cfa -48 + ^ x25: .cfa -56 + ^ x26: .cfa -64 + ^ .ra: .cfa -72 + ^ x29: .cfa -80 + ^
STACK CFI 49c8 .cfa: sp 112 +
STACK CFI 49e0 .cfa: sp 0 +
STACK CFI 49e4 .cfa: x29 80 +
STACK CFI INIT 4a60 1dc .cfa: sp 0 +
STACK CFI 4a64 .cfa: sp 128 +
STACK CFI 4a80 .cfa: x29 96 + x19: .cfa -8 + ^ x20: .cfa -16 + ^ x21: .cfa -24 + ^ x22: .cfa -32 + ^ x23: .cfa -40 + ^ x24: .cfa -48 + ^ x25: .cfa -56 + ^ x26: .cfa -64 + ^ x27: .cfa -80 + ^ .ra: .cfa -88 + ^ x29: .cfa -96 + ^
STACK CFI 4bec .cfa: sp 128 +
STACK CFI 4c08 .cfa: sp 0 +
STACK CFI 4c0c .cfa: x29 96 +
STACK CFI INIT 4c50 50 .cfa: sp 0 +
STACK CFI 4c54 .cfa: sp 32 +
STACK CFI 4c5c .cfa: x29 32 + x19: .cfa -8 + ^ x20: .cfa -16 + ^ .ra: .cfa -24 + ^ x29: .cfa -32 + ^
STACK CFI INIT 4d04 178 .cfa: sp 0 +
STACK CFI 4d08 .cfa: sp 80 +
STACK CFI 4d1c .cfa: x29 80 + x19: .cfa -8 + ^ x20: .cfa -16 + ^ x21: .cfa -24 + ^ x22: .cfa -32 + ^ x23: .cfa -40 + ^ x24: .cfa -48 + ^ x25: .cfa -64 + ^ .ra: .cfa -72 + ^ x29: .cfa -80 + ^
STACK CFI 4e48 .cfa: sp 80 +
STACK CFI 4e5c .cfa: sp 0 +
STACK CFI 4e60 .cfa: x29 80 +
