MODULE Linux arm 27504AE5C8107F1851158827283DB7A00 ninsam.to-do_list.android32.so
INFO CODE_ID E54A502710C8187F51158827283DB7A085912294
INFO GENERATOR mozilla/dump_syms 2.3.4
PUBLIC 180c0 0 __on_dlclose
PUBLIC 180d0 0 __emutls_unregister_key
PUBLIC 180d4 0 __on_dlclose_late
PUBLIC 180d8 0 __atexit_handler_wrapper
PUBLIC 180e4 0 atexit
PUBLIC 18104 0 pthread_atfork
FUNC 18114 7d8 0 __cxx_global_var_init
FUNC 188ec 1c 0 geode::modifier::ModifyBase<geode::modifier::ModifyDerive<MyNotepadLayer, EditorUI> >::~ModifyBase()
FUNC 18910 5a8 0 geode::modifier::ModifyDerive<MyNotepadLayer, EditorUI>::apply()
FUNC 18eb8 3a 0 std::__ndk1::shared_ptr<geode::Hook>::~shared_ptr[abi:ne180000]()
FUNC 18ef4 60 0 geode::impl::ResultData<geode::Hook*, std::__ndk1::basic_string<char, std::__ndk1::char_traits<char>, std::__ndk1::allocator<char> > >::~ResultData()
FUNC 18f54 3e 0 std::__ndk1::vector<std::__ndk1::basic_string<char, std::__ndk1::char_traits<char>, std::__ndk1::allocator<char> >, std::__ndk1::allocator<std::__ndk1::basic_string<char, std::__ndk1::char_traits<char>, std::__ndk1::allocator<char> > > >::~vector[abi:ne180000]()
FUNC 18f92 2 0 geode::modifier::ModifyBase<geode::modifier::ModifyDerive<MyNotepadLayer, EditorUI> >::apply()
PUBLIC 18f95 0 __clang_call_terminate
FUNC 18fa0 f8 0 _ZN5geode15UnwrapExceptionC2IRPNS_4HookEQsr4implE18IsStringStreamableIT_EEENS_4impl5OkTagEOS5_
FUNC 19098 34 0 std::__ndk1::__throw_bad_variant_access[abi:ne180000]()
FUNC 190cc d8 0 std::__ndk1::basic_stringstream<char, std::__ndk1::char_traits<char>, std::__ndk1::allocator<char> >::basic_stringstream[abi:ne180000]()
FUNC 191a4 68 0 std::__ndk1::basic_stringstream<char, std::__ndk1::char_traits<char>, std::__ndk1::allocator<char> >::~basic_stringstream()
FUNC 1920c 10 0 geode::UnwrapException::~UnwrapException()
FUNC 1921c 108 0 std::__ndk1::__put_character_sequence[abi:ne180000]<char, std::__ndk1::char_traits<char> >(std::__ndk1::basic_ostream<char, std::__ndk1::char_traits<char> >, std::__ndk1::basic_ostream const*, unsigned int)
FUNC 19324 110 0 std::__ndk1::__pad_and_output[abi:ne180000]<char, std::__ndk1::char_traits<char> >(std::__ndk1::char_traits<char>, std::__ndk1::ostreambuf_iterator const*, std::__ndk1::ostreambuf_iterator const, std::__ndk1::ostreambuf_iterator const, std::__ndk1::ios_base&, std::__ndk1::ostreambuf_iterator)
FUNC 19434 10 0 std::__ndk1::basic_string<char, std::__ndk1::char_traits<char>, std::__ndk1::allocator<char> >::__throw_length_error[abi:ne180000]() const
FUNC 19444 38 0 std::__ndk1::__throw_length_error[abi:ne180000](char const*)
FUNC 1947c 18 0 std::length_error::length_error[abi:ne180000](char const*)
FUNC 19494 28 0 std::__throw_bad_array_new_length([abi:ne180000], void)
FUNC 194bc ce 0 std::__ndk1::basic_stringbuf<char, std::__ndk1::char_traits<char>, std::__ndk1::allocator<char> >::str[abi:ne180000]() &&
FUNC 1958a e0 0 std::__ndk1::basic_stringbuf<char, std::__ndk1::char_traits<char>, std::__ndk1::allocator<char> >::__init_buf_ptrs[abi:ne180000]()
FUNC 1966a 46 0 std::__ndk1::basic_string<char, std::__ndk1::char_traits<char>, std::__ndk1::allocator<char> >::__init_copy_ctor_external(char const*, unsigned int)
FUNC 196b0 3c 0 std::__ndk1::__split_buffer<std::__ndk1::basic_string<char, std::__ndk1::char_traits<char>, std::__ndk1::allocator<char> >, std::__ndk1::allocator<std::__ndk1::basic_string<char, std::__ndk1::char_traits<char>, std::__ndk1::allocator<char> > >&>::~__split_buffer()
FUNC 196ec 10 0 std::__ndk1::vector<std::__ndk1::basic_string<char, std::__ndk1::char_traits<char>, std::__ndk1::allocator<char> >, std::__ndk1::allocator<std::__ndk1::basic_string<char, std::__ndk1::char_traits<char>, std::__ndk1::allocator<char> > > >::__throw_length_error[abi:ne180000]() const
FUNC 196fc 2 0 std::__ndk1::__variant_detail::__visitation::__base::__dispatcher<(unsigned int)0>::__dispatch[abi:ne180000]<std::__ndk1::__variant_detail::__dtor<std::__ndk1::__variant_detail::__traits<geode::Hook*, std::__ndk1::basic_string<char, std::__ndk1::char_traits<char>, std::__ndk1::allocator<char> > >, (std::__ndk1::__variant_detail::_Trait)1>::__destroy[abi:ne180000]()::{lambda(auto:1&)#1}, std::__ndk1::__variant_detail::__base<(std::__ndk1::__variant_detail::__traits<geode::Hook*, std::__ndk1::basic_string<char, std::__ndk1::char_traits<char>, std::__ndk1::allocator<char> > >)1, geode::Hook, std::__ndk1::allocator<char> >&>(std::__ndk1::__variant_detail::__dtor<std::__ndk1::__variant_detail::__traits<geode::Hook*, std::__ndk1::basic_string<char, std::__ndk1::char_traits<char>, std::__ndk1::allocator<char> > >, (std::__ndk1::__variant_detail::_Trait)1>, std::__ndk1::__variant_detail::__base<(std::__ndk1::__variant_detail::__traits<geode::Hook*, std::__ndk1::basic_string<char, std::__ndk1::char_traits<char>, std::__ndk1::allocator<char> > >)1, geode::Hook, std::__ndk1::allocator<char> >&)
FUNC 196fe e 0 std::__ndk1::__variant_detail::__visitation::__base::__dispatcher<(unsigned int)1>::__dispatch[abi:ne180000]<std::__ndk1::__variant_detail::__dtor<std::__ndk1::__variant_detail::__traits<geode::Hook*, std::__ndk1::basic_string<char, std::__ndk1::char_traits<char>, std::__ndk1::allocator<char> > >, (std::__ndk1::__variant_detail::_Trait)1>::__destroy[abi:ne180000]()::{lambda(auto:1&)#1}, std::__ndk1::__variant_detail::__base<(std::__ndk1::__variant_detail::__traits<geode::Hook*, std::__ndk1::basic_string<char, std::__ndk1::char_traits<char>, std::__ndk1::allocator<char> > >)1, geode::Hook, std::__ndk1::allocator<char> >&>(std::__ndk1::__variant_detail::__dtor<std::__ndk1::__variant_detail::__traits<geode::Hook*, std::__ndk1::basic_string<char, std::__ndk1::char_traits<char>, std::__ndk1::allocator<char> > >, (std::__ndk1::__variant_detail::_Trait)1>, std::__ndk1::__variant_detail::__base<(std::__ndk1::__variant_detail::__traits<geode::Hook*, std::__ndk1::basic_string<char, std::__ndk1::char_traits<char>, std::__ndk1::allocator<char> > >)1, geode::Hook, std::__ndk1::allocator<char> >&)
FUNC 1970c 5a 0 std::__ndk1::__tree<std::__ndk1::__value_type<std::__ndk1::basic_string<char, std::__ndk1::char_traits<char>, std::__ndk1::allocator<char> >, std::__ndk1::shared_ptr<geode::Hook> >, std::__ndk1::__map_value_compare<std::__ndk1::basic_string<char, std::__ndk1::char_traits<char>, std::__ndk1::allocator<char> >, std::__ndk1::__value_type<std::__ndk1::basic_string<char, std::__ndk1::char_traits<char>, std::__ndk1::allocator<char> >, std::__ndk1::shared_ptr<geode::Hook> >, std::__ndk1::less<std::__ndk1::basic_string<char, std::__ndk1::char_traits<char>, std::__ndk1::allocator<char> > >, true>, std::__ndk1::allocator<std::__ndk1::__value_type<std::__ndk1::basic_string<char, std::__ndk1::char_traits<char>, std::__ndk1::allocator<char> >, std::__ndk1::shared_ptr<geode::Hook> > > >::destroy(std::__ndk1::__tree_node<std::__ndk1::__value_type<std::__ndk1::basic_string<char, std::__ndk1::char_traits<char>, std::__ndk1::allocator<char> >, std::__ndk1::shared_ptr<geode::Hook> >, void*>*)
FUNC 19768 44c 0 geode::modifier::AsStaticFunction_init<MyNotepadLayer, bool (MyNotepadLayer::*)(LevelEditorLayer*)>::Impl<bool (MyNotepadLayer::*)(LevelEditorLayer*)>::function(MyNotepadLayer*, LevelEditorLayer*)
FUNC 19bb4 24 0 geode::modifier::AsStaticFunction_showUI<MyNotepadLayer, void (MyNotepadLayer::*)(bool)>::Impl<void (MyNotepadLayer::*)(bool)>::function(MyNotepadLayer*, bool)
FUNC 19bd8 3a 0 std::__ndk1::shared_ptr<tulip::hook::CallingConvention>::~shared_ptr[abi:ne180000]()
FUNC 19c12 46 0 tulip::hook::HandlerMetadata::~HandlerMetadata()
FUNC 19c58 14 0 MyNotepadLayer::Onnotepadbutton(cocos2d::CCObject*)
FUNC 19c6c 3a 0 std::__ndk1::shared_ptr<geode::StringSettingV3>::~shared_ptr[abi:ne180000]()
FUNC 19ca8 88 0 geode::cast::traverseTypeinfoFor(void*, geode::cast::ClassTypeinfoType const*, char const*)
FUNC 19d30 4d8 0 geode::modifier::FieldIntermediate<MyNotepadLayer, EditorUI>::self()
FUNC 1a208 2 0 geode::modifier::FieldIntermediate<MyNotepadLayer, EditorUI>::fieldDestructor(void*)
FUNC 1a20c 10 0 std::__ndk1::vector<void*, std::__ndk1::allocator<void*> >::__throw_length_error[abi:ne180000]() const
FUNC 1a21c 10 0 std::__ndk1::vector<std::__ndk1::function<void (void*)>, std::__ndk1::allocator<std::__ndk1::function<void (void*)> > >::__throw_length_error[abi:ne180000]() const
FUNC 1a22c 8 0 std::__ndk1::vector<void*, std::__ndk1::allocator<void*> >::__throw_out_of_range[abi:ne180000]() const
FUNC 1a234 3c 0 std::__ndk1::__throw_out_of_range[abi:ne180000](char const*)
FUNC 1a270 18 0 std::out_of_range::out_of_range[abi:ne180000](char const*)
FUNC 1a288 8 0 std::__ndk1::vector<std::__ndk1::function<void (void*)>, std::__ndk1::allocator<std::__ndk1::function<void (void*)> > >::__throw_out_of_range[abi:ne180000]() const
FUNC 1a290 2 0 std::__ndk1::__function::__base<void (void*)>::~__base()
FUNC 1a292 4 0 std::__ndk1::__function::__func<void (*)(void*), std::__ndk1::allocator<void (*)(void*)>, void (void*)>::~__func()
FUNC 1a298 20 0 std::__ndk1::__function::__func<void (*)(void*), std::__ndk1::allocator<void (*)(void*)>, void (void*)>::__clone() const
FUNC 1a2b8 14 0 std::__ndk1::__function::__func<void (*)(void*), std::__ndk1::allocator<void (*)(void*)>, void (void*)>::__clone(std::__ndk1::__function::__base<void (void*)>*) const
FUNC 1a2cc 2 0 std::__ndk1::__function::__func<void (*)(void*), std::__ndk1::allocator<void (*)(void*)>, void (void*)>::destroy()
FUNC 1a2ce 4 0 std::__ndk1::__function::__func<void (*)(void*), std::__ndk1::allocator<void (*)(void*)>, void (void*)>::destroy_deallocate()
FUNC 1a2d2 8 0 std::__ndk1::__function::__func<void (*)(void*), std::__ndk1::allocator<void (*)(void*)>, void (void*)>::operator()(void*&&)
FUNC 1a2dc 18 0 std::__ndk1::__function::__func<void (*)(void*), std::__ndk1::allocator<void (*)(void*)>, void (void*)>::target(std::type_info const&) const
FUNC 1a2f4 c 0 std::__ndk1::__function::__func<void (*)(void*), std::__ndk1::allocator<void (*)(void*)>, void (void*)>::target_type() const
FUNC 1a300 ba 0 std::__ndk1::__tree<std::__ndk1::__value_type<std::__ndk1::basic_string<char, std::__ndk1::char_traits<char>, std::__ndk1::allocator<char> >, std::__ndk1::shared_ptr<geode::Hook> >, std::__ndk1::__map_value_compare<std::__ndk1::basic_string<char, std::__ndk1::char_traits<char>, std::__ndk1::allocator<char> >, std::__ndk1::__value_type<std::__ndk1::basic_string<char, std::__ndk1::char_traits<char>, std::__ndk1::allocator<char> >, std::__ndk1::shared_ptr<geode::Hook> >, std::__ndk1::less<std::__ndk1::basic_string<char, std::__ndk1::char_traits<char>, std::__ndk1::allocator<char> > >, true>, std::__ndk1::allocator<std::__ndk1::__value_type<std::__ndk1::basic_string<char, std::__ndk1::char_traits<char>, std::__ndk1::allocator<char> >, std::__ndk1::shared_ptr<geode::Hook> > > >::__find_equal<std::__ndk1::basic_string<char, std::__ndk1::char_traits<char>, std::__ndk1::allocator<char> > >(std::__ndk1::__tree_end_node<std::__ndk1::__tree_node_base<void*>*>*&, std::__ndk1::basic_string<char, std::__ndk1::char_traits<char>, std::__ndk1::allocator<char> > const&)
FUNC 1a3ba 14a 0 std::__ndk1::__tree_balance_after_insert[abi:ne180000]<std::__ndk1::__tree_node_base<void*>*>(std::__ndk1::__tree_node_base<void*>*, std::__ndk1::__tree_node_base<void*>*)
FUNC 1a504 15fc 0 NotepadLayer::setup()
FUNC 1bb00 2 0 NotepadLayer::onTouchFix(cocos2d::CCObject*)
FUNC 1bb04 1e4 0 geode::Mod::getSavedValue<std::__ndk1::basic_string<char, std::__ndk1::char_traits<char>, std::__ndk1::allocator<char> > >(std::__ndk1::basic_string_view<char, std::__ndk1::char_traits<char> >, std::__ndk1::basic_string<char, std::__ndk1::char_traits<char>, std::__ndk1::allocator<char> > const&)
FUNC 1bce8 8 0 NotepadLayer::Close(cocos2d::CCObject*)
FUNC 1bcf0 34 0 NotepadLayer::OpenSettings(cocos2d::CCObject*)
FUNC 1bd24 450 0 NotepadLayer::onPage(cocos2d::CCObject*)
FUNC 1c174 a8 0 NotepadLayer::create()
FUNC 1c21c 4 0 cocos2d::CCCopying::copyWithZone(cocos2d::CCZone*)
FUNC 1c220 10 0 NotepadLayer::~NotepadLayer()
FUNC 1c230 2 0 cocos2d::CCLayerRGBA::setOpacityModifyRGB(bool)
FUNC 1c232 4 0 cocos2d::CCLayerRGBA::isOpacityModifyRGB()
FUNC 1c236 8 0 {virtual override thunk({offset(-264)}, NotepadLayer::~NotepadLayer())}
FUNC 1c23e 14 0 {virtual override thunk({offset(-264)}, NotepadLayer::~NotepadLayer())}
FUNC 1c252 2 0 cocos2d::CCKeyboardDelegate::keyUp(cocos2d::enumKeyCodes)
FUNC 1c254 2 0 cocos2d::CCMouseDelegate::rightKeyDown()
FUNC 1c256 2 0 cocos2d::CCMouseDelegate::rightKeyUp()
FUNC 1c258 2 0 cocos2d::CCMouseDelegate::scrollWheel(float, float)
FUNC 1c25a 2 0 {virtual override thunk({offset(-316)}, cocos2d::CCLayerRGBA::setOpacityModifyRGB(bool))}
FUNC 1c25c 4 0 {virtual override thunk({offset(-316)}, cocos2d::CCLayerRGBA::isOpacityModifyRGB())}
FUNC 1c260 60 0 geode::impl::ResultData<matjson::Value&, std::__ndk1::basic_string<char, std::__ndk1::char_traits<char>, std::__ndk1::allocator<char> > >::~ResultData()
FUNC 1c2c0 60 0 geode::impl::ResultData<std::__ndk1::basic_string<char, std::__ndk1::char_traits<char>, std::__ndk1::allocator<char> >, std::__ndk1::basic_string<char, std::__ndk1::char_traits<char>, std::__ndk1::allocator<char> > >::~ResultData()
FUNC 1c320 2 0 std::__ndk1::__variant_detail::__visitation::__base::__dispatcher<(unsigned int)0>::__dispatch[abi:ne180000]<std::__ndk1::__variant_detail::__dtor<std::__ndk1::__variant_detail::__traits<std::__ndk1::reference_wrapper<matjson::Value>, std::__ndk1::basic_string<char, std::__ndk1::char_traits<char>, std::__ndk1::allocator<char> > >, (std::__ndk1::__variant_detail::_Trait)1>::__destroy[abi:ne180000]()::{lambda(auto:1&)#1}, std::__ndk1::__variant_detail::__base<(std::__ndk1::__variant_detail::__traits<std::__ndk1::reference_wrapper<matjson::Value>, std::__ndk1::basic_string<char, std::__ndk1::char_traits<char>, std::__ndk1::allocator<char> > >)1, matjson::Value, std::__ndk1::allocator<char> >&>(std::__ndk1::__variant_detail::__dtor<std::__ndk1::__variant_detail::__traits<std::__ndk1::reference_wrapper<matjson::Value>, std::__ndk1::basic_string<char, std::__ndk1::char_traits<char>, std::__ndk1::allocator<char> > >, (std::__ndk1::__variant_detail::_Trait)1>, std::__ndk1::__variant_detail::__base<(std::__ndk1::__variant_detail::__traits<std::__ndk1::reference_wrapper<matjson::Value>, std::__ndk1::basic_string<char, std::__ndk1::char_traits<char>, std::__ndk1::allocator<char> > >)1, matjson::Value, std::__ndk1::allocator<char> >&)
FUNC 1c322 e 0 std::__ndk1::__variant_detail::__visitation::__base::__dispatcher<(unsigned int)1>::__dispatch[abi:ne180000]<std::__ndk1::__variant_detail::__dtor<std::__ndk1::__variant_detail::__traits<std::__ndk1::reference_wrapper<matjson::Value>, std::__ndk1::basic_string<char, std::__ndk1::char_traits<char>, std::__ndk1::allocator<char> > >, (std::__ndk1::__variant_detail::_Trait)1>::__destroy[abi:ne180000]()::{lambda(auto:1&)#1}, std::__ndk1::__variant_detail::__base<(std::__ndk1::__variant_detail::__traits<std::__ndk1::reference_wrapper<matjson::Value>, std::__ndk1::basic_string<char, std::__ndk1::char_traits<char>, std::__ndk1::allocator<char> > >)1, matjson::Value, std::__ndk1::allocator<char> >&>(std::__ndk1::__variant_detail::__dtor<std::__ndk1::__variant_detail::__traits<std::__ndk1::reference_wrapper<matjson::Value>, std::__ndk1::basic_string<char, std::__ndk1::char_traits<char>, std::__ndk1::allocator<char> > >, (std::__ndk1::__variant_detail::_Trait)1>, std::__ndk1::__variant_detail::__base<(std::__ndk1::__variant_detail::__traits<std::__ndk1::reference_wrapper<matjson::Value>, std::__ndk1::basic_string<char, std::__ndk1::char_traits<char>, std::__ndk1::allocator<char> > >)1, matjson::Value, std::__ndk1::allocator<char> >&)
FUNC 1c330 e 0 std::__ndk1::__variant_detail::__visitation::__base::__dispatcher<(unsigned int)0>::__dispatch[abi:ne180000]<std::__ndk1::__variant_detail::__dtor<std::__ndk1::__variant_detail::__traits<std::__ndk1::basic_string<char, std::__ndk1::char_traits<char>, std::__ndk1::allocator<char> >, std::__ndk1::allocator<char> >, (std::__ndk1::__variant_detail::_Trait)1>::__destroy[abi:ne180000]()::{lambda(auto:1&)#1}, std::__ndk1::__variant_detail::__base<(std::__ndk1::__variant_detail::__traits<std::__ndk1::basic_string<char, std::__ndk1::char_traits<char>, std::__ndk1::allocator<char> >, std::__ndk1::allocator<char> >)1, std::__ndk1::allocator<char>, std::__ndk1::allocator<char> >&>(std::__ndk1::__variant_detail::__dtor<std::__ndk1::__variant_detail::__traits<std::__ndk1::basic_string<char, std::__ndk1::char_traits<char>, std::__ndk1::allocator<char> >, std::__ndk1::allocator<char> >, (std::__ndk1::__variant_detail::_Trait)1>, std::__ndk1::__variant_detail::__base<(std::__ndk1::__variant_detail::__traits<std::__ndk1::basic_string<char, std::__ndk1::char_traits<char>, std::__ndk1::allocator<char> >, std::__ndk1::allocator<char> >)1, std::__ndk1::allocator<char>, std::__ndk1::allocator<char> >&)
FUNC 1c33e e 0 std::__ndk1::__variant_detail::__visitation::__base::__dispatcher<(unsigned int)1>::__dispatch[abi:ne180000]<std::__ndk1::__variant_detail::__dtor<std::__ndk1::__variant_detail::__traits<std::__ndk1::basic_string<char, std::__ndk1::char_traits<char>, std::__ndk1::allocator<char> >, std::__ndk1::allocator<char> >, (std::__ndk1::__variant_detail::_Trait)1>::__destroy[abi:ne180000]()::{lambda(auto:1&)#1}, std::__ndk1::__variant_detail::__base<(std::__ndk1::__variant_detail::__traits<std::__ndk1::basic_string<char, std::__ndk1::char_traits<char>, std::__ndk1::allocator<char> >, std::__ndk1::allocator<char> >)1, std::__ndk1::allocator<char>, std::__ndk1::allocator<char> >&>(std::__ndk1::__variant_detail::__dtor<std::__ndk1::__variant_detail::__traits<std::__ndk1::basic_string<char, std::__ndk1::char_traits<char>, std::__ndk1::allocator<char> >, std::__ndk1::allocator<char> >, (std::__ndk1::__variant_detail::_Trait)1>, std::__ndk1::__variant_detail::__base<(std::__ndk1::__variant_detail::__traits<std::__ndk1::basic_string<char, std::__ndk1::char_traits<char>, std::__ndk1::allocator<char> >, std::__ndk1::allocator<char> >)1, std::__ndk1::allocator<char>, std::__ndk1::allocator<char> >&)
FUNC 1c34c 4 0 std::__ndk1::__function::__func<NotepadLayer::setup()::$_0, std::__ndk1::allocator<NotepadLayer::setup()::$_0>, void (std::__ndk1::basic_string<char, std::__ndk1::char_traits<char>, std::__ndk1::allocator<char> > const&)>::~__func()
FUNC 1c350 20 0 std::__ndk1::__function::__func<NotepadLayer::setup()::$_0, std::__ndk1::allocator<NotepadLayer::setup()::$_0>, void (std::__ndk1::basic_string<char, std::__ndk1::char_traits<char>, std::__ndk1::allocator<char> > const&)>::__clone() const
FUNC 1c370 14 0 std::__ndk1::__function::__func<NotepadLayer::setup()::$_0, std::__ndk1::allocator<NotepadLayer::setup()::$_0>, void (std::__ndk1::basic_string<char, std::__ndk1::char_traits<char>, std::__ndk1::allocator<char> > const&)>::__clone(std::__ndk1::__function::__base<void (std::__ndk1::basic_string<char, std::__ndk1::char_traits<char>, std::__ndk1::allocator<char> > const&)>*) const
FUNC 1c384 2 0 std::__ndk1::__function::__func<NotepadLayer::setup()::$_0, std::__ndk1::allocator<NotepadLayer::setup()::$_0>, void (std::__ndk1::basic_string<char, std::__ndk1::char_traits<char>, std::__ndk1::allocator<char> > const&)>::destroy()
FUNC 1c386 4 0 std::__ndk1::__function::__func<NotepadLayer::setup()::$_0, std::__ndk1::allocator<NotepadLayer::setup()::$_0>, void (std::__ndk1::basic_string<char, std::__ndk1::char_traits<char>, std::__ndk1::allocator<char> > const&)>::destroy_deallocate()
FUNC 1c38c 68 0 std::__ndk1::__function::__func<NotepadLayer::setup()::$_0, std::__ndk1::allocator<NotepadLayer::setup()::$_0>, void (std::__ndk1::basic_string<char, std::__ndk1::char_traits<char>, std::__ndk1::allocator<char> > const&)>::operator()(std::__ndk1::basic_string<char, std::__ndk1::char_traits<char>, std::__ndk1::allocator<char> > const&)
FUNC 1c3f4 18 0 std::__ndk1::__function::__func<NotepadLayer::setup()::$_0, std::__ndk1::allocator<NotepadLayer::setup()::$_0>, void (std::__ndk1::basic_string<char, std::__ndk1::char_traits<char>, std::__ndk1::allocator<char> > const&)>::target(std::type_info const&) const
FUNC 1c40c c 0 std::__ndk1::__function::__func<NotepadLayer::setup()::$_0, std::__ndk1::allocator<NotepadLayer::setup()::$_0>, void (std::__ndk1::basic_string<char, std::__ndk1::char_traits<char>, std::__ndk1::allocator<char> > const&)>::target_type() const
FUNC 1c418 cc 0 geode::Mod::setSavedValue<std::__ndk1::basic_string<char, std::__ndk1::char_traits<char>, std::__ndk1::allocator<char> > >(std::__ndk1::basic_string_view<char, std::__ndk1::char_traits<char> >, std::__ndk1::basic_string<char, std::__ndk1::char_traits<char>, std::__ndk1::allocator<char> > const&)
FUNC 1c4e4 15c 0 geode::Mod::getSavedValue<std::__ndk1::basic_string<char, std::__ndk1::char_traits<char>, std::__ndk1::allocator<char> > >(std::__ndk1::basic_string_view<char, std::__ndk1::char_traits<char> >)
FUNC 1c640 4 0 std::__ndk1::__function::__func<NotepadLayer::setup()::$_1, std::__ndk1::allocator<NotepadLayer::setup()::$_1>, void (std::__ndk1::basic_string<char, std::__ndk1::char_traits<char>, std::__ndk1::allocator<char> > const&)>::~__func()
FUNC 1c644 20 0 std::__ndk1::__function::__func<NotepadLayer::setup()::$_1, std::__ndk1::allocator<NotepadLayer::setup()::$_1>, void (std::__ndk1::basic_string<char, std::__ndk1::char_traits<char>, std::__ndk1::allocator<char> > const&)>::__clone() const
FUNC 1c664 14 0 std::__ndk1::__function::__func<NotepadLayer::setup()::$_1, std::__ndk1::allocator<NotepadLayer::setup()::$_1>, void (std::__ndk1::basic_string<char, std::__ndk1::char_traits<char>, std::__ndk1::allocator<char> > const&)>::__clone(std::__ndk1::__function::__base<void (std::__ndk1::basic_string<char, std::__ndk1::char_traits<char>, std::__ndk1::allocator<char> > const&)>*) const
FUNC 1c678 2 0 std::__ndk1::__function::__func<NotepadLayer::setup()::$_1, std::__ndk1::allocator<NotepadLayer::setup()::$_1>, void (std::__ndk1::basic_string<char, std::__ndk1::char_traits<char>, std::__ndk1::allocator<char> > const&)>::destroy()
FUNC 1c67a 4 0 std::__ndk1::__function::__func<NotepadLayer::setup()::$_1, std::__ndk1::allocator<NotepadLayer::setup()::$_1>, void (std::__ndk1::basic_string<char, std::__ndk1::char_traits<char>, std::__ndk1::allocator<char> > const&)>::destroy_deallocate()
FUNC 1c680 68 0 std::__ndk1::__function::__func<NotepadLayer::setup()::$_1, std::__ndk1::allocator<NotepadLayer::setup()::$_1>, void (std::__ndk1::basic_string<char, std::__ndk1::char_traits<char>, std::__ndk1::allocator<char> > const&)>::operator()(std::__ndk1::basic_string<char, std::__ndk1::char_traits<char>, std::__ndk1::allocator<char> > const&)
FUNC 1c6e8 18 0 std::__ndk1::__function::__func<NotepadLayer::setup()::$_1, std::__ndk1::allocator<NotepadLayer::setup()::$_1>, void (std::__ndk1::basic_string<char, std::__ndk1::char_traits<char>, std::__ndk1::allocator<char> > const&)>::target(std::type_info const&) const
FUNC 1c700 c 0 std::__ndk1::__function::__func<NotepadLayer::setup()::$_1, std::__ndk1::allocator<NotepadLayer::setup()::$_1>, void (std::__ndk1::basic_string<char, std::__ndk1::char_traits<char>, std::__ndk1::allocator<char> > const&)>::target_type() const
FUNC 1c70c 4 0 std::__ndk1::__function::__func<NotepadLayer::setup()::$_2, std::__ndk1::allocator<NotepadLayer::setup()::$_2>, void (std::__ndk1::basic_string<char, std::__ndk1::char_traits<char>, std::__ndk1::allocator<char> > const&)>::~__func()
FUNC 1c710 20 0 std::__ndk1::__function::__func<NotepadLayer::setup()::$_2, std::__ndk1::allocator<NotepadLayer::setup()::$_2>, void (std::__ndk1::basic_string<char, std::__ndk1::char_traits<char>, std::__ndk1::allocator<char> > const&)>::__clone() const
FUNC 1c730 14 0 std::__ndk1::__function::__func<NotepadLayer::setup()::$_2, std::__ndk1::allocator<NotepadLayer::setup()::$_2>, void (std::__ndk1::basic_string<char, std::__ndk1::char_traits<char>, std::__ndk1::allocator<char> > const&)>::__clone(std::__ndk1::__function::__base<void (std::__ndk1::basic_string<char, std::__ndk1::char_traits<char>, std::__ndk1::allocator<char> > const&)>*) const
FUNC 1c744 2 0 std::__ndk1::__function::__func<NotepadLayer::setup()::$_2, std::__ndk1::allocator<NotepadLayer::setup()::$_2>, void (std::__ndk1::basic_string<char, std::__ndk1::char_traits<char>, std::__ndk1::allocator<char> > const&)>::destroy()
FUNC 1c746 4 0 std::__ndk1::__function::__func<NotepadLayer::setup()::$_2, std::__ndk1::allocator<NotepadLayer::setup()::$_2>, void (std::__ndk1::basic_string<char, std::__ndk1::char_traits<char>, std::__ndk1::allocator<char> > const&)>::destroy_deallocate()
FUNC 1c74c 68 0 std::__ndk1::__function::__func<NotepadLayer::setup()::$_2, std::__ndk1::allocator<NotepadLayer::setup()::$_2>, void (std::__ndk1::basic_string<char, std::__ndk1::char_traits<char>, std::__ndk1::allocator<char> > const&)>::operator()(std::__ndk1::basic_string<char, std::__ndk1::char_traits<char>, std::__ndk1::allocator<char> > const&)
FUNC 1c7b4 18 0 std::__ndk1::__function::__func<NotepadLayer::setup()::$_2, std::__ndk1::allocator<NotepadLayer::setup()::$_2>, void (std::__ndk1::basic_string<char, std::__ndk1::char_traits<char>, std::__ndk1::allocator<char> > const&)>::target(std::type_info const&) const
FUNC 1c7cc c 0 std::__ndk1::__function::__func<NotepadLayer::setup()::$_2, std::__ndk1::allocator<NotepadLayer::setup()::$_2>, void (std::__ndk1::basic_string<char, std::__ndk1::char_traits<char>, std::__ndk1::allocator<char> > const&)>::target_type() const
FUNC 1c7d8 4 0 std::__ndk1::__function::__func<NotepadLayer::setup()::$_3, std::__ndk1::allocator<NotepadLayer::setup()::$_3>, void (std::__ndk1::basic_string<char, std::__ndk1::char_traits<char>, std::__ndk1::allocator<char> > const&)>::~__func()
FUNC 1c7dc 20 0 std::__ndk1::__function::__func<NotepadLayer::setup()::$_3, std::__ndk1::allocator<NotepadLayer::setup()::$_3>, void (std::__ndk1::basic_string<char, std::__ndk1::char_traits<char>, std::__ndk1::allocator<char> > const&)>::__clone() const
FUNC 1c7fc 14 0 std::__ndk1::__function::__func<NotepadLayer::setup()::$_3, std::__ndk1::allocator<NotepadLayer::setup()::$_3>, void (std::__ndk1::basic_string<char, std::__ndk1::char_traits<char>, std::__ndk1::allocator<char> > const&)>::__clone(std::__ndk1::__function::__base<void (std::__ndk1::basic_string<char, std::__ndk1::char_traits<char>, std::__ndk1::allocator<char> > const&)>*) const
FUNC 1c810 2 0 std::__ndk1::__function::__func<NotepadLayer::setup()::$_3, std::__ndk1::allocator<NotepadLayer::setup()::$_3>, void (std::__ndk1::basic_string<char, std::__ndk1::char_traits<char>, std::__ndk1::allocator<char> > const&)>::destroy()
FUNC 1c812 4 0 std::__ndk1::__function::__func<NotepadLayer::setup()::$_3, std::__ndk1::allocator<NotepadLayer::setup()::$_3>, void (std::__ndk1::basic_string<char, std::__ndk1::char_traits<char>, std::__ndk1::allocator<char> > const&)>::destroy_deallocate()
FUNC 1c818 68 0 std::__ndk1::__function::__func<NotepadLayer::setup()::$_3, std::__ndk1::allocator<NotepadLayer::setup()::$_3>, void (std::__ndk1::basic_string<char, std::__ndk1::char_traits<char>, std::__ndk1::allocator<char> > const&)>::operator()(std::__ndk1::basic_string<char, std::__ndk1::char_traits<char>, std::__ndk1::allocator<char> > const&)
FUNC 1c880 18 0 std::__ndk1::__function::__func<NotepadLayer::setup()::$_3, std::__ndk1::allocator<NotepadLayer::setup()::$_3>, void (std::__ndk1::basic_string<char, std::__ndk1::char_traits<char>, std::__ndk1::allocator<char> > const&)>::target(std::type_info const&) const
FUNC 1c898 c 0 std::__ndk1::__function::__func<NotepadLayer::setup()::$_3, std::__ndk1::allocator<NotepadLayer::setup()::$_3>, void (std::__ndk1::basic_string<char, std::__ndk1::char_traits<char>, std::__ndk1::allocator<char> > const&)>::target_type() const
FUNC 1c8a4 2 0 std::__ndk1::__function::__base<void (std::__ndk1::basic_string<char, std::__ndk1::char_traits<char>, std::__ndk1::allocator<char> > const&)>::~__base()
FUNC 1c8a6 4 0 std::__ndk1::__function::__func<NotepadLayer::setup()::$_4, std::__ndk1::allocator<NotepadLayer::setup()::$_4>, void (std::__ndk1::basic_string<char, std::__ndk1::char_traits<char>, std::__ndk1::allocator<char> > const&)>::~__func()
FUNC 1c8ac 20 0 std::__ndk1::__function::__func<NotepadLayer::setup()::$_4, std::__ndk1::allocator<NotepadLayer::setup()::$_4>, void (std::__ndk1::basic_string<char, std::__ndk1::char_traits<char>, std::__ndk1::allocator<char> > const&)>::__clone() const
FUNC 1c8cc 14 0 std::__ndk1::__function::__func<NotepadLayer::setup()::$_4, std::__ndk1::allocator<NotepadLayer::setup()::$_4>, void (std::__ndk1::basic_string<char, std::__ndk1::char_traits<char>, std::__ndk1::allocator<char> > const&)>::__clone(std::__ndk1::__function::__base<void (std::__ndk1::basic_string<char, std::__ndk1::char_traits<char>, std::__ndk1::allocator<char> > const&)>*) const
FUNC 1c8e0 2 0 std::__ndk1::__function::__func<NotepadLayer::setup()::$_4, std::__ndk1::allocator<NotepadLayer::setup()::$_4>, void (std::__ndk1::basic_string<char, std::__ndk1::char_traits<char>, std::__ndk1::allocator<char> > const&)>::destroy()
FUNC 1c8e2 4 0 std::__ndk1::__function::__func<NotepadLayer::setup()::$_4, std::__ndk1::allocator<NotepadLayer::setup()::$_4>, void (std::__ndk1::basic_string<char, std::__ndk1::char_traits<char>, std::__ndk1::allocator<char> > const&)>::destroy_deallocate()
FUNC 1c8e8 68 0 std::__ndk1::__function::__func<NotepadLayer::setup()::$_4, std::__ndk1::allocator<NotepadLayer::setup()::$_4>, void (std::__ndk1::basic_string<char, std::__ndk1::char_traits<char>, std::__ndk1::allocator<char> > const&)>::operator()(std::__ndk1::basic_string<char, std::__ndk1::char_traits<char>, std::__ndk1::allocator<char> > const&)
FUNC 1c950 18 0 std::__ndk1::__function::__func<NotepadLayer::setup()::$_4, std::__ndk1::allocator<NotepadLayer::setup()::$_4>, void (std::__ndk1::basic_string<char, std::__ndk1::char_traits<char>, std::__ndk1::allocator<char> > const&)>::target(std::type_info const&) const
FUNC 1c968 c 0 std::__ndk1::__function::__func<NotepadLayer::setup()::$_4, std::__ndk1::allocator<NotepadLayer::setup()::$_4>, void (std::__ndk1::basic_string<char, std::__ndk1::char_traits<char>, std::__ndk1::allocator<char> > const&)>::target_type() const
FUNC 1c974 2158 0 Tab1::init()
FUNC 1eacc 80 0 geode::Mod::setSavedValue<bool>(std::__ndk1::basic_string_view<char, std::__ndk1::char_traits<char> >, bool const&)
FUNC 1eb4c 88 0 Tab1::SaveCheckbox(cocos2d::CCObject*)
FUNC 1ebd4 148 0 geode::Mod::getSavedValue<bool>(std::__ndk1::basic_string_view<char, std::__ndk1::char_traits<char> >, bool const&)
FUNC 1ed1c 88 0 Tab1::SaveCheckbox2(cocos2d::CCObject*)
FUNC 1eda4 88 0 Tab1::SaveCheckbox3(cocos2d::CCObject*)
FUNC 1ee2c 88 0 Tab1::SaveCheckbox4(cocos2d::CCObject*)
FUNC 1eeb4 88 0 Tab1::SaveCheckbox5(cocos2d::CCObject*)
FUNC 1ef3c 88 0 Tab1::SaveCheckbox6(cocos2d::CCObject*)
FUNC 1efc4 88 0 Tab1::SaveCheckbox7(cocos2d::CCObject*)
FUNC 1f04c 88 0 Tab1::SaveCheckbox8(cocos2d::CCObject*)
FUNC 1f0d4 88 0 Tab1::SaveCheckbox9(cocos2d::CCObject*)
FUNC 1f15c 88 0 Tab1::SaveCheckbox10(cocos2d::CCObject*)
FUNC 1f1e4 10 0 Tab1::~Tab1()
FUNC 1f1f4 2 0 cocos2d::CCMenu::setOpacityModifyRGB(bool)
FUNC 1f1f6 4 0 cocos2d::CCMenu::isOpacityModifyRGB()
FUNC 1f1fa 6 0 cocos2d::CCMenu::isEnabled()
FUNC 1f200 6 0 cocos2d::CCMenu::setEnabled(bool)
FUNC 1f206 8 0 {virtual override thunk({offset(-264)}, Tab1::~Tab1())}
FUNC 1f20e 14 0 {virtual override thunk({offset(-264)}, Tab1::~Tab1())}
FUNC 1f222 2 0 {virtual override thunk({offset(-316)}, cocos2d::CCMenu::setOpacityModifyRGB(bool))}
FUNC 1f224 4 0 {virtual override thunk({offset(-316)}, cocos2d::CCMenu::isOpacityModifyRGB())}
FUNC 1f228 b2 0 std::__ndk1::basic_string<char, std::__ndk1::char_traits<char>, std::__ndk1::allocator<char> >::__assign_external(char const*, unsigned int)
FUNC 1f2dc 110 0 geode::Mod::getSavedValue<bool>(std::__ndk1::basic_string_view<char, std::__ndk1::char_traits<char> >)
FUNC 1f3ec 2 0 std::__ndk1::__variant_detail::__visitation::__base::__dispatcher<(unsigned int)0>::__dispatch[abi:ne180000]<std::__ndk1::__variant_detail::__dtor<std::__ndk1::__variant_detail::__traits<bool, std::__ndk1::basic_string<char, std::__ndk1::char_traits<char>, std::__ndk1::allocator<char> > >, (std::__ndk1::__variant_detail::_Trait)1>::__destroy[abi:ne180000]()::{lambda(auto:1&)#1}, std::__ndk1::__variant_detail::__base<(std::__ndk1::__variant_detail::__traits<bool, std::__ndk1::basic_string<char, std::__ndk1::char_traits<char>, std::__ndk1::allocator<char> > >)1, bool, std::__ndk1::allocator<char> >&>(std::__ndk1::__variant_detail::__dtor<std::__ndk1::__variant_detail::__traits<bool, std::__ndk1::basic_string<char, std::__ndk1::char_traits<char>, std::__ndk1::allocator<char> > >, (std::__ndk1::__variant_detail::_Trait)1>, std::__ndk1::__variant_detail::__base<(std::__ndk1::__variant_detail::__traits<bool, std::__ndk1::basic_string<char, std::__ndk1::char_traits<char>, std::__ndk1::allocator<char> > >)1, bool, std::__ndk1::allocator<char> >&)
FUNC 1f3ee e 0 std::__ndk1::__variant_detail::__visitation::__base::__dispatcher<(unsigned int)1>::__dispatch[abi:ne180000]<std::__ndk1::__variant_detail::__dtor<std::__ndk1::__variant_detail::__traits<bool, std::__ndk1::basic_string<char, std::__ndk1::char_traits<char>, std::__ndk1::allocator<char> > >, (std::__ndk1::__variant_detail::_Trait)1>::__destroy[abi:ne180000]()::{lambda(auto:1&)#1}, std::__ndk1::__variant_detail::__base<(std::__ndk1::__variant_detail::__traits<bool, std::__ndk1::basic_string<char, std::__ndk1::char_traits<char>, std::__ndk1::allocator<char> > >)1, bool, std::__ndk1::allocator<char> >&>(std::__ndk1::__variant_detail::__dtor<std::__ndk1::__variant_detail::__traits<bool, std::__ndk1::basic_string<char, std::__ndk1::char_traits<char>, std::__ndk1::allocator<char> > >, (std::__ndk1::__variant_detail::_Trait)1>, std::__ndk1::__variant_detail::__base<(std::__ndk1::__variant_detail::__traits<bool, std::__ndk1::basic_string<char, std::__ndk1::char_traits<char>, std::__ndk1::allocator<char> > >)1, bool, std::__ndk1::allocator<char> >&)
FUNC 1f3fc 4 0 std::__ndk1::__function::__func<Tab1::init()::$_0, std::__ndk1::allocator<Tab1::init()::$_0>, void (std::__ndk1::basic_string<char, std::__ndk1::char_traits<char>, std::__ndk1::allocator<char> > const&)>::~__func()
FUNC 1f400 20 0 std::__ndk1::__function::__func<Tab1::init()::$_0, std::__ndk1::allocator<Tab1::init()::$_0>, void (std::__ndk1::basic_string<char, std::__ndk1::char_traits<char>, std::__ndk1::allocator<char> > const&)>::__clone() const
FUNC 1f420 14 0 std::__ndk1::__function::__func<Tab1::init()::$_0, std::__ndk1::allocator<Tab1::init()::$_0>, void (std::__ndk1::basic_string<char, std::__ndk1::char_traits<char>, std::__ndk1::allocator<char> > const&)>::__clone(std::__ndk1::__function::__base<void (std::__ndk1::basic_string<char, std::__ndk1::char_traits<char>, std::__ndk1::allocator<char> > const&)>*) const
FUNC 1f434 2 0 std::__ndk1::__function::__func<Tab1::init()::$_0, std::__ndk1::allocator<Tab1::init()::$_0>, void (std::__ndk1::basic_string<char, std::__ndk1::char_traits<char>, std::__ndk1::allocator<char> > const&)>::destroy()
FUNC 1f436 4 0 std::__ndk1::__function::__func<Tab1::init()::$_0, std::__ndk1::allocator<Tab1::init()::$_0>, void (std::__ndk1::basic_string<char, std::__ndk1::char_traits<char>, std::__ndk1::allocator<char> > const&)>::destroy_deallocate()
FUNC 1f43c 68 0 std::__ndk1::__function::__func<Tab1::init()::$_0, std::__ndk1::allocator<Tab1::init()::$_0>, void (std::__ndk1::basic_string<char, std::__ndk1::char_traits<char>, std::__ndk1::allocator<char> > const&)>::operator()(std::__ndk1::basic_string<char, std::__ndk1::char_traits<char>, std::__ndk1::allocator<char> > const&)
FUNC 1f4a4 18 0 std::__ndk1::__function::__func<Tab1::init()::$_0, std::__ndk1::allocator<Tab1::init()::$_0>, void (std::__ndk1::basic_string<char, std::__ndk1::char_traits<char>, std::__ndk1::allocator<char> > const&)>::target(std::type_info const&) const
FUNC 1f4bc c 0 std::__ndk1::__function::__func<Tab1::init()::$_0, std::__ndk1::allocator<Tab1::init()::$_0>, void (std::__ndk1::basic_string<char, std::__ndk1::char_traits<char>, std::__ndk1::allocator<char> > const&)>::target_type() const
FUNC 1f4c8 4 0 std::__ndk1::__function::__func<Tab1::init()::$_1, std::__ndk1::allocator<Tab1::init()::$_1>, void (std::__ndk1::basic_string<char, std::__ndk1::char_traits<char>, std::__ndk1::allocator<char> > const&)>::~__func()
FUNC 1f4cc 20 0 std::__ndk1::__function::__func<Tab1::init()::$_1, std::__ndk1::allocator<Tab1::init()::$_1>, void (std::__ndk1::basic_string<char, std::__ndk1::char_traits<char>, std::__ndk1::allocator<char> > const&)>::__clone() const
FUNC 1f4ec 14 0 std::__ndk1::__function::__func<Tab1::init()::$_1, std::__ndk1::allocator<Tab1::init()::$_1>, void (std::__ndk1::basic_string<char, std::__ndk1::char_traits<char>, std::__ndk1::allocator<char> > const&)>::__clone(std::__ndk1::__function::__base<void (std::__ndk1::basic_string<char, std::__ndk1::char_traits<char>, std::__ndk1::allocator<char> > const&)>*) const
FUNC 1f500 2 0 std::__ndk1::__function::__func<Tab1::init()::$_1, std::__ndk1::allocator<Tab1::init()::$_1>, void (std::__ndk1::basic_string<char, std::__ndk1::char_traits<char>, std::__ndk1::allocator<char> > const&)>::destroy()
FUNC 1f502 4 0 std::__ndk1::__function::__func<Tab1::init()::$_1, std::__ndk1::allocator<Tab1::init()::$_1>, void (std::__ndk1::basic_string<char, std::__ndk1::char_traits<char>, std::__ndk1::allocator<char> > const&)>::destroy_deallocate()
FUNC 1f508 68 0 std::__ndk1::__function::__func<Tab1::init()::$_1, std::__ndk1::allocator<Tab1::init()::$_1>, void (std::__ndk1::basic_string<char, std::__ndk1::char_traits<char>, std::__ndk1::allocator<char> > const&)>::operator()(std::__ndk1::basic_string<char, std::__ndk1::char_traits<char>, std::__ndk1::allocator<char> > const&)
FUNC 1f570 18 0 std::__ndk1::__function::__func<Tab1::init()::$_1, std::__ndk1::allocator<Tab1::init()::$_1>, void (std::__ndk1::basic_string<char, std::__ndk1::char_traits<char>, std::__ndk1::allocator<char> > const&)>::target(std::type_info const&) const
FUNC 1f588 c 0 std::__ndk1::__function::__func<Tab1::init()::$_1, std::__ndk1::allocator<Tab1::init()::$_1>, void (std::__ndk1::basic_string<char, std::__ndk1::char_traits<char>, std::__ndk1::allocator<char> > const&)>::target_type() const
FUNC 1f594 4 0 std::__ndk1::__function::__func<Tab1::init()::$_2, std::__ndk1::allocator<Tab1::init()::$_2>, void (std::__ndk1::basic_string<char, std::__ndk1::char_traits<char>, std::__ndk1::allocator<char> > const&)>::~__func()
FUNC 1f598 20 0 std::__ndk1::__function::__func<Tab1::init()::$_2, std::__ndk1::allocator<Tab1::init()::$_2>, void (std::__ndk1::basic_string<char, std::__ndk1::char_traits<char>, std::__ndk1::allocator<char> > const&)>::__clone() const
FUNC 1f5b8 14 0 std::__ndk1::__function::__func<Tab1::init()::$_2, std::__ndk1::allocator<Tab1::init()::$_2>, void (std::__ndk1::basic_string<char, std::__ndk1::char_traits<char>, std::__ndk1::allocator<char> > const&)>::__clone(std::__ndk1::__function::__base<void (std::__ndk1::basic_string<char, std::__ndk1::char_traits<char>, std::__ndk1::allocator<char> > const&)>*) const
FUNC 1f5cc 2 0 std::__ndk1::__function::__func<Tab1::init()::$_2, std::__ndk1::allocator<Tab1::init()::$_2>, void (std::__ndk1::basic_string<char, std::__ndk1::char_traits<char>, std::__ndk1::allocator<char> > const&)>::destroy()
FUNC 1f5ce 4 0 std::__ndk1::__function::__func<Tab1::init()::$_2, std::__ndk1::allocator<Tab1::init()::$_2>, void (std::__ndk1::basic_string<char, std::__ndk1::char_traits<char>, std::__ndk1::allocator<char> > const&)>::destroy_deallocate()
FUNC 1f5d4 68 0 std::__ndk1::__function::__func<Tab1::init()::$_2, std::__ndk1::allocator<Tab1::init()::$_2>, void (std::__ndk1::basic_string<char, std::__ndk1::char_traits<char>, std::__ndk1::allocator<char> > const&)>::operator()(std::__ndk1::basic_string<char, std::__ndk1::char_traits<char>, std::__ndk1::allocator<char> > const&)
FUNC 1f63c 18 0 std::__ndk1::__function::__func<Tab1::init()::$_2, std::__ndk1::allocator<Tab1::init()::$_2>, void (std::__ndk1::basic_string<char, std::__ndk1::char_traits<char>, std::__ndk1::allocator<char> > const&)>::target(std::type_info const&) const
FUNC 1f654 c 0 std::__ndk1::__function::__func<Tab1::init()::$_2, std::__ndk1::allocator<Tab1::init()::$_2>, void (std::__ndk1::basic_string<char, std::__ndk1::char_traits<char>, std::__ndk1::allocator<char> > const&)>::target_type() const
FUNC 1f660 4 0 std::__ndk1::__function::__func<Tab1::init()::$_3, std::__ndk1::allocator<Tab1::init()::$_3>, void (std::__ndk1::basic_string<char, std::__ndk1::char_traits<char>, std::__ndk1::allocator<char> > const&)>::~__func()
FUNC 1f664 20 0 std::__ndk1::__function::__func<Tab1::init()::$_3, std::__ndk1::allocator<Tab1::init()::$_3>, void (std::__ndk1::basic_string<char, std::__ndk1::char_traits<char>, std::__ndk1::allocator<char> > const&)>::__clone() const
FUNC 1f684 14 0 std::__ndk1::__function::__func<Tab1::init()::$_3, std::__ndk1::allocator<Tab1::init()::$_3>, void (std::__ndk1::basic_string<char, std::__ndk1::char_traits<char>, std::__ndk1::allocator<char> > const&)>::__clone(std::__ndk1::__function::__base<void (std::__ndk1::basic_string<char, std::__ndk1::char_traits<char>, std::__ndk1::allocator<char> > const&)>*) const
FUNC 1f698 2 0 std::__ndk1::__function::__func<Tab1::init()::$_3, std::__ndk1::allocator<Tab1::init()::$_3>, void (std::__ndk1::basic_string<char, std::__ndk1::char_traits<char>, std::__ndk1::allocator<char> > const&)>::destroy()
FUNC 1f69a 4 0 std::__ndk1::__function::__func<Tab1::init()::$_3, std::__ndk1::allocator<Tab1::init()::$_3>, void (std::__ndk1::basic_string<char, std::__ndk1::char_traits<char>, std::__ndk1::allocator<char> > const&)>::destroy_deallocate()
FUNC 1f6a0 68 0 std::__ndk1::__function::__func<Tab1::init()::$_3, std::__ndk1::allocator<Tab1::init()::$_3>, void (std::__ndk1::basic_string<char, std::__ndk1::char_traits<char>, std::__ndk1::allocator<char> > const&)>::operator()(std::__ndk1::basic_string<char, std::__ndk1::char_traits<char>, std::__ndk1::allocator<char> > const&)
FUNC 1f708 18 0 std::__ndk1::__function::__func<Tab1::init()::$_3, std::__ndk1::allocator<Tab1::init()::$_3>, void (std::__ndk1::basic_string<char, std::__ndk1::char_traits<char>, std::__ndk1::allocator<char> > const&)>::target(std::type_info const&) const
FUNC 1f720 c 0 std::__ndk1::__function::__func<Tab1::init()::$_3, std::__ndk1::allocator<Tab1::init()::$_3>, void (std::__ndk1::basic_string<char, std::__ndk1::char_traits<char>, std::__ndk1::allocator<char> > const&)>::target_type() const
FUNC 1f72c 4 0 std::__ndk1::__function::__func<Tab1::init()::$_4, std::__ndk1::allocator<Tab1::init()::$_4>, void (std::__ndk1::basic_string<char, std::__ndk1::char_traits<char>, std::__ndk1::allocator<char> > const&)>::~__func()
FUNC 1f730 20 0 std::__ndk1::__function::__func<Tab1::init()::$_4, std::__ndk1::allocator<Tab1::init()::$_4>, void (std::__ndk1::basic_string<char, std::__ndk1::char_traits<char>, std::__ndk1::allocator<char> > const&)>::__clone() const
FUNC 1f750 14 0 std::__ndk1::__function::__func<Tab1::init()::$_4, std::__ndk1::allocator<Tab1::init()::$_4>, void (std::__ndk1::basic_string<char, std::__ndk1::char_traits<char>, std::__ndk1::allocator<char> > const&)>::__clone(std::__ndk1::__function::__base<void (std::__ndk1::basic_string<char, std::__ndk1::char_traits<char>, std::__ndk1::allocator<char> > const&)>*) const
FUNC 1f764 2 0 std::__ndk1::__function::__func<Tab1::init()::$_4, std::__ndk1::allocator<Tab1::init()::$_4>, void (std::__ndk1::basic_string<char, std::__ndk1::char_traits<char>, std::__ndk1::allocator<char> > const&)>::destroy()
FUNC 1f766 4 0 std::__ndk1::__function::__func<Tab1::init()::$_4, std::__ndk1::allocator<Tab1::init()::$_4>, void (std::__ndk1::basic_string<char, std::__ndk1::char_traits<char>, std::__ndk1::allocator<char> > const&)>::destroy_deallocate()
FUNC 1f76c 68 0 std::__ndk1::__function::__func<Tab1::init()::$_4, std::__ndk1::allocator<Tab1::init()::$_4>, void (std::__ndk1::basic_string<char, std::__ndk1::char_traits<char>, std::__ndk1::allocator<char> > const&)>::operator()(std::__ndk1::basic_string<char, std::__ndk1::char_traits<char>, std::__ndk1::allocator<char> > const&)
FUNC 1f7d4 18 0 std::__ndk1::__function::__func<Tab1::init()::$_4, std::__ndk1::allocator<Tab1::init()::$_4>, void (std::__ndk1::basic_string<char, std::__ndk1::char_traits<char>, std::__ndk1::allocator<char> > const&)>::target(std::type_info const&) const
FUNC 1f7ec c 0 std::__ndk1::__function::__func<Tab1::init()::$_4, std::__ndk1::allocator<Tab1::init()::$_4>, void (std::__ndk1::basic_string<char, std::__ndk1::char_traits<char>, std::__ndk1::allocator<char> > const&)>::target_type() const
FUNC 1f7f8 4 0 std::__ndk1::__function::__func<Tab1::init()::$_5, std::__ndk1::allocator<Tab1::init()::$_5>, void (std::__ndk1::basic_string<char, std::__ndk1::char_traits<char>, std::__ndk1::allocator<char> > const&)>::~__func()
FUNC 1f7fc 20 0 std::__ndk1::__function::__func<Tab1::init()::$_5, std::__ndk1::allocator<Tab1::init()::$_5>, void (std::__ndk1::basic_string<char, std::__ndk1::char_traits<char>, std::__ndk1::allocator<char> > const&)>::__clone() const
FUNC 1f81c 14 0 std::__ndk1::__function::__func<Tab1::init()::$_5, std::__ndk1::allocator<Tab1::init()::$_5>, void (std::__ndk1::basic_string<char, std::__ndk1::char_traits<char>, std::__ndk1::allocator<char> > const&)>::__clone(std::__ndk1::__function::__base<void (std::__ndk1::basic_string<char, std::__ndk1::char_traits<char>, std::__ndk1::allocator<char> > const&)>*) const
FUNC 1f830 2 0 std::__ndk1::__function::__func<Tab1::init()::$_5, std::__ndk1::allocator<Tab1::init()::$_5>, void (std::__ndk1::basic_string<char, std::__ndk1::char_traits<char>, std::__ndk1::allocator<char> > const&)>::destroy()
FUNC 1f832 4 0 std::__ndk1::__function::__func<Tab1::init()::$_5, std::__ndk1::allocator<Tab1::init()::$_5>, void (std::__ndk1::basic_string<char, std::__ndk1::char_traits<char>, std::__ndk1::allocator<char> > const&)>::destroy_deallocate()
FUNC 1f838 68 0 std::__ndk1::__function::__func<Tab1::init()::$_5, std::__ndk1::allocator<Tab1::init()::$_5>, void (std::__ndk1::basic_string<char, std::__ndk1::char_traits<char>, std::__ndk1::allocator<char> > const&)>::operator()(std::__ndk1::basic_string<char, std::__ndk1::char_traits<char>, std::__ndk1::allocator<char> > const&)
FUNC 1f8a0 18 0 std::__ndk1::__function::__func<Tab1::init()::$_5, std::__ndk1::allocator<Tab1::init()::$_5>, void (std::__ndk1::basic_string<char, std::__ndk1::char_traits<char>, std::__ndk1::allocator<char> > const&)>::target(std::type_info const&) const
FUNC 1f8b8 c 0 std::__ndk1::__function::__func<Tab1::init()::$_5, std::__ndk1::allocator<Tab1::init()::$_5>, void (std::__ndk1::basic_string<char, std::__ndk1::char_traits<char>, std::__ndk1::allocator<char> > const&)>::target_type() const
FUNC 1f8c4 4 0 std::__ndk1::__function::__func<Tab1::init()::$_6, std::__ndk1::allocator<Tab1::init()::$_6>, void (std::__ndk1::basic_string<char, std::__ndk1::char_traits<char>, std::__ndk1::allocator<char> > const&)>::~__func()
FUNC 1f8c8 20 0 std::__ndk1::__function::__func<Tab1::init()::$_6, std::__ndk1::allocator<Tab1::init()::$_6>, void (std::__ndk1::basic_string<char, std::__ndk1::char_traits<char>, std::__ndk1::allocator<char> > const&)>::__clone() const
FUNC 1f8e8 14 0 std::__ndk1::__function::__func<Tab1::init()::$_6, std::__ndk1::allocator<Tab1::init()::$_6>, void (std::__ndk1::basic_string<char, std::__ndk1::char_traits<char>, std::__ndk1::allocator<char> > const&)>::__clone(std::__ndk1::__function::__base<void (std::__ndk1::basic_string<char, std::__ndk1::char_traits<char>, std::__ndk1::allocator<char> > const&)>*) const
FUNC 1f8fc 2 0 std::__ndk1::__function::__func<Tab1::init()::$_6, std::__ndk1::allocator<Tab1::init()::$_6>, void (std::__ndk1::basic_string<char, std::__ndk1::char_traits<char>, std::__ndk1::allocator<char> > const&)>::destroy()
FUNC 1f8fe 4 0 std::__ndk1::__function::__func<Tab1::init()::$_6, std::__ndk1::allocator<Tab1::init()::$_6>, void (std::__ndk1::basic_string<char, std::__ndk1::char_traits<char>, std::__ndk1::allocator<char> > const&)>::destroy_deallocate()
FUNC 1f904 68 0 std::__ndk1::__function::__func<Tab1::init()::$_6, std::__ndk1::allocator<Tab1::init()::$_6>, void (std::__ndk1::basic_string<char, std::__ndk1::char_traits<char>, std::__ndk1::allocator<char> > const&)>::operator()(std::__ndk1::basic_string<char, std::__ndk1::char_traits<char>, std::__ndk1::allocator<char> > const&)
FUNC 1f96c 18 0 std::__ndk1::__function::__func<Tab1::init()::$_6, std::__ndk1::allocator<Tab1::init()::$_6>, void (std::__ndk1::basic_string<char, std::__ndk1::char_traits<char>, std::__ndk1::allocator<char> > const&)>::target(std::type_info const&) const
FUNC 1f984 c 0 std::__ndk1::__function::__func<Tab1::init()::$_6, std::__ndk1::allocator<Tab1::init()::$_6>, void (std::__ndk1::basic_string<char, std::__ndk1::char_traits<char>, std::__ndk1::allocator<char> > const&)>::target_type() const
FUNC 1f990 4 0 std::__ndk1::__function::__func<Tab1::init()::$_7, std::__ndk1::allocator<Tab1::init()::$_7>, void (std::__ndk1::basic_string<char, std::__ndk1::char_traits<char>, std::__ndk1::allocator<char> > const&)>::~__func()
FUNC 1f994 20 0 std::__ndk1::__function::__func<Tab1::init()::$_7, std::__ndk1::allocator<Tab1::init()::$_7>, void (std::__ndk1::basic_string<char, std::__ndk1::char_traits<char>, std::__ndk1::allocator<char> > const&)>::__clone() const
FUNC 1f9b4 14 0 std::__ndk1::__function::__func<Tab1::init()::$_7, std::__ndk1::allocator<Tab1::init()::$_7>, void (std::__ndk1::basic_string<char, std::__ndk1::char_traits<char>, std::__ndk1::allocator<char> > const&)>::__clone(std::__ndk1::__function::__base<void (std::__ndk1::basic_string<char, std::__ndk1::char_traits<char>, std::__ndk1::allocator<char> > const&)>*) const
FUNC 1f9c8 2 0 std::__ndk1::__function::__func<Tab1::init()::$_7, std::__ndk1::allocator<Tab1::init()::$_7>, void (std::__ndk1::basic_string<char, std::__ndk1::char_traits<char>, std::__ndk1::allocator<char> > const&)>::destroy()
FUNC 1f9ca 4 0 std::__ndk1::__function::__func<Tab1::init()::$_7, std::__ndk1::allocator<Tab1::init()::$_7>, void (std::__ndk1::basic_string<char, std::__ndk1::char_traits<char>, std::__ndk1::allocator<char> > const&)>::destroy_deallocate()
FUNC 1f9d0 68 0 std::__ndk1::__function::__func<Tab1::init()::$_7, std::__ndk1::allocator<Tab1::init()::$_7>, void (std::__ndk1::basic_string<char, std::__ndk1::char_traits<char>, std::__ndk1::allocator<char> > const&)>::operator()(std::__ndk1::basic_string<char, std::__ndk1::char_traits<char>, std::__ndk1::allocator<char> > const&)
FUNC 1fa38 18 0 std::__ndk1::__function::__func<Tab1::init()::$_7, std::__ndk1::allocator<Tab1::init()::$_7>, void (std::__ndk1::basic_string<char, std::__ndk1::char_traits<char>, std::__ndk1::allocator<char> > const&)>::target(std::type_info const&) const
FUNC 1fa50 c 0 std::__ndk1::__function::__func<Tab1::init()::$_7, std::__ndk1::allocator<Tab1::init()::$_7>, void (std::__ndk1::basic_string<char, std::__ndk1::char_traits<char>, std::__ndk1::allocator<char> > const&)>::target_type() const
FUNC 1fa5c 4 0 std::__ndk1::__function::__func<Tab1::init()::$_8, std::__ndk1::allocator<Tab1::init()::$_8>, void (std::__ndk1::basic_string<char, std::__ndk1::char_traits<char>, std::__ndk1::allocator<char> > const&)>::~__func()
FUNC 1fa60 20 0 std::__ndk1::__function::__func<Tab1::init()::$_8, std::__ndk1::allocator<Tab1::init()::$_8>, void (std::__ndk1::basic_string<char, std::__ndk1::char_traits<char>, std::__ndk1::allocator<char> > const&)>::__clone() const
FUNC 1fa80 14 0 std::__ndk1::__function::__func<Tab1::init()::$_8, std::__ndk1::allocator<Tab1::init()::$_8>, void (std::__ndk1::basic_string<char, std::__ndk1::char_traits<char>, std::__ndk1::allocator<char> > const&)>::__clone(std::__ndk1::__function::__base<void (std::__ndk1::basic_string<char, std::__ndk1::char_traits<char>, std::__ndk1::allocator<char> > const&)>*) const
FUNC 1fa94 2 0 std::__ndk1::__function::__func<Tab1::init()::$_8, std::__ndk1::allocator<Tab1::init()::$_8>, void (std::__ndk1::basic_string<char, std::__ndk1::char_traits<char>, std::__ndk1::allocator<char> > const&)>::destroy()
FUNC 1fa96 4 0 std::__ndk1::__function::__func<Tab1::init()::$_8, std::__ndk1::allocator<Tab1::init()::$_8>, void (std::__ndk1::basic_string<char, std::__ndk1::char_traits<char>, std::__ndk1::allocator<char> > const&)>::destroy_deallocate()
FUNC 1fa9c 68 0 std::__ndk1::__function::__func<Tab1::init()::$_8, std::__ndk1::allocator<Tab1::init()::$_8>, void (std::__ndk1::basic_string<char, std::__ndk1::char_traits<char>, std::__ndk1::allocator<char> > const&)>::operator()(std::__ndk1::basic_string<char, std::__ndk1::char_traits<char>, std::__ndk1::allocator<char> > const&)
FUNC 1fb04 18 0 std::__ndk1::__function::__func<Tab1::init()::$_8, std::__ndk1::allocator<Tab1::init()::$_8>, void (std::__ndk1::basic_string<char, std::__ndk1::char_traits<char>, std::__ndk1::allocator<char> > const&)>::target(std::type_info const&) const
FUNC 1fb1c c 0 std::__ndk1::__function::__func<Tab1::init()::$_8, std::__ndk1::allocator<Tab1::init()::$_8>, void (std::__ndk1::basic_string<char, std::__ndk1::char_traits<char>, std::__ndk1::allocator<char> > const&)>::target_type() const
FUNC 1fb28 4 0 std::__ndk1::__function::__func<Tab1::init()::$_9, std::__ndk1::allocator<Tab1::init()::$_9>, void (std::__ndk1::basic_string<char, std::__ndk1::char_traits<char>, std::__ndk1::allocator<char> > const&)>::~__func()
FUNC 1fb2c 20 0 std::__ndk1::__function::__func<Tab1::init()::$_9, std::__ndk1::allocator<Tab1::init()::$_9>, void (std::__ndk1::basic_string<char, std::__ndk1::char_traits<char>, std::__ndk1::allocator<char> > const&)>::__clone() const
FUNC 1fb4c 14 0 std::__ndk1::__function::__func<Tab1::init()::$_9, std::__ndk1::allocator<Tab1::init()::$_9>, void (std::__ndk1::basic_string<char, std::__ndk1::char_traits<char>, std::__ndk1::allocator<char> > const&)>::__clone(std::__ndk1::__function::__base<void (std::__ndk1::basic_string<char, std::__ndk1::char_traits<char>, std::__ndk1::allocator<char> > const&)>*) const
FUNC 1fb60 2 0 std::__ndk1::__function::__func<Tab1::init()::$_9, std::__ndk1::allocator<Tab1::init()::$_9>, void (std::__ndk1::basic_string<char, std::__ndk1::char_traits<char>, std::__ndk1::allocator<char> > const&)>::destroy()
FUNC 1fb62 4 0 std::__ndk1::__function::__func<Tab1::init()::$_9, std::__ndk1::allocator<Tab1::init()::$_9>, void (std::__ndk1::basic_string<char, std::__ndk1::char_traits<char>, std::__ndk1::allocator<char> > const&)>::destroy_deallocate()
FUNC 1fb68 68 0 std::__ndk1::__function::__func<Tab1::init()::$_9, std::__ndk1::allocator<Tab1::init()::$_9>, void (std::__ndk1::basic_string<char, std::__ndk1::char_traits<char>, std::__ndk1::allocator<char> > const&)>::operator()(std::__ndk1::basic_string<char, std::__ndk1::char_traits<char>, std::__ndk1::allocator<char> > const&)
FUNC 1fbd0 18 0 std::__ndk1::__function::__func<Tab1::init()::$_9, std::__ndk1::allocator<Tab1::init()::$_9>, void (std::__ndk1::basic_string<char, std::__ndk1::char_traits<char>, std::__ndk1::allocator<char> > const&)>::target(std::type_info const&) const
FUNC 1fbe8 c 0 std::__ndk1::__function::__func<Tab1::init()::$_9, std::__ndk1::allocator<Tab1::init()::$_9>, void (std::__ndk1::basic_string<char, std::__ndk1::char_traits<char>, std::__ndk1::allocator<char> > const&)>::target_type() const
FUNC 1fbf4 4 0 std::__ndk1::__function::__func<Tab1::init()::$_10, std::__ndk1::allocator<Tab1::init()::$_10>, void (std::__ndk1::basic_string<char, std::__ndk1::char_traits<char>, std::__ndk1::allocator<char> > const&)>::~__func()
FUNC 1fbf8 20 0 std::__ndk1::__function::__func<Tab1::init()::$_10, std::__ndk1::allocator<Tab1::init()::$_10>, void (std::__ndk1::basic_string<char, std::__ndk1::char_traits<char>, std::__ndk1::allocator<char> > const&)>::__clone() const
FUNC 1fc18 14 0 std::__ndk1::__function::__func<Tab1::init()::$_10, std::__ndk1::allocator<Tab1::init()::$_10>, void (std::__ndk1::basic_string<char, std::__ndk1::char_traits<char>, std::__ndk1::allocator<char> > const&)>::__clone(std::__ndk1::__function::__base<void (std::__ndk1::basic_string<char, std::__ndk1::char_traits<char>, std::__ndk1::allocator<char> > const&)>*) const
FUNC 1fc2c 2 0 std::__ndk1::__function::__func<Tab1::init()::$_10, std::__ndk1::allocator<Tab1::init()::$_10>, void (std::__ndk1::basic_string<char, std::__ndk1::char_traits<char>, std::__ndk1::allocator<char> > const&)>::destroy()
FUNC 1fc2e 4 0 std::__ndk1::__function::__func<Tab1::init()::$_10, std::__ndk1::allocator<Tab1::init()::$_10>, void (std::__ndk1::basic_string<char, std::__ndk1::char_traits<char>, std::__ndk1::allocator<char> > const&)>::destroy_deallocate()
FUNC 1fc34 68 0 std::__ndk1::__function::__func<Tab1::init()::$_10, std::__ndk1::allocator<Tab1::init()::$_10>, void (std::__ndk1::basic_string<char, std::__ndk1::char_traits<char>, std::__ndk1::allocator<char> > const&)>::operator()(std::__ndk1::basic_string<char, std::__ndk1::char_traits<char>, std::__ndk1::allocator<char> > const&)
FUNC 1fc9c 18 0 std::__ndk1::__function::__func<Tab1::init()::$_10, std::__ndk1::allocator<Tab1::init()::$_10>, void (std::__ndk1::basic_string<char, std::__ndk1::char_traits<char>, std::__ndk1::allocator<char> > const&)>::target(std::type_info const&) const
FUNC 1fcb4 c 0 std::__ndk1::__function::__func<Tab1::init()::$_10, std::__ndk1::allocator<Tab1::init()::$_10>, void (std::__ndk1::basic_string<char, std::__ndk1::char_traits<char>, std::__ndk1::allocator<char> > const&)>::target_type() const
FUNC 1fcc0 4 0 std::__ndk1::__function::__func<Tab1::init()::$_11, std::__ndk1::allocator<Tab1::init()::$_11>, void (std::__ndk1::basic_string<char, std::__ndk1::char_traits<char>, std::__ndk1::allocator<char> > const&)>::~__func()
FUNC 1fcc4 20 0 std::__ndk1::__function::__func<Tab1::init()::$_11, std::__ndk1::allocator<Tab1::init()::$_11>, void (std::__ndk1::basic_string<char, std::__ndk1::char_traits<char>, std::__ndk1::allocator<char> > const&)>::__clone() const
FUNC 1fce4 14 0 std::__ndk1::__function::__func<Tab1::init()::$_11, std::__ndk1::allocator<Tab1::init()::$_11>, void (std::__ndk1::basic_string<char, std::__ndk1::char_traits<char>, std::__ndk1::allocator<char> > const&)>::__clone(std::__ndk1::__function::__base<void (std::__ndk1::basic_string<char, std::__ndk1::char_traits<char>, std::__ndk1::allocator<char> > const&)>*) const
FUNC 1fcf8 2 0 std::__ndk1::__function::__func<Tab1::init()::$_11, std::__ndk1::allocator<Tab1::init()::$_11>, void (std::__ndk1::basic_string<char, std::__ndk1::char_traits<char>, std::__ndk1::allocator<char> > const&)>::destroy()
FUNC 1fcfa 4 0 std::__ndk1::__function::__func<Tab1::init()::$_11, std::__ndk1::allocator<Tab1::init()::$_11>, void (std::__ndk1::basic_string<char, std::__ndk1::char_traits<char>, std::__ndk1::allocator<char> > const&)>::destroy_deallocate()
FUNC 1fd00 68 0 std::__ndk1::__function::__func<Tab1::init()::$_11, std::__ndk1::allocator<Tab1::init()::$_11>, void (std::__ndk1::basic_string<char, std::__ndk1::char_traits<char>, std::__ndk1::allocator<char> > const&)>::operator()(std::__ndk1::basic_string<char, std::__ndk1::char_traits<char>, std::__ndk1::allocator<char> > const&)
FUNC 1fd68 18 0 std::__ndk1::__function::__func<Tab1::init()::$_11, std::__ndk1::allocator<Tab1::init()::$_11>, void (std::__ndk1::basic_string<char, std::__ndk1::char_traits<char>, std::__ndk1::allocator<char> > const&)>::target(std::type_info const&) const
FUNC 1fd80 c 0 std::__ndk1::__function::__func<Tab1::init()::$_11, std::__ndk1::allocator<Tab1::init()::$_11>, void (std::__ndk1::basic_string<char, std::__ndk1::char_traits<char>, std::__ndk1::allocator<char> > const&)>::target_type() const
FUNC 1fd8c 4 0 std::__ndk1::__function::__func<Tab1::init()::$_12, std::__ndk1::allocator<Tab1::init()::$_12>, void (std::__ndk1::basic_string<char, std::__ndk1::char_traits<char>, std::__ndk1::allocator<char> > const&)>::~__func()
FUNC 1fd90 20 0 std::__ndk1::__function::__func<Tab1::init()::$_12, std::__ndk1::allocator<Tab1::init()::$_12>, void (std::__ndk1::basic_string<char, std::__ndk1::char_traits<char>, std::__ndk1::allocator<char> > const&)>::__clone() const
FUNC 1fdb0 14 0 std::__ndk1::__function::__func<Tab1::init()::$_12, std::__ndk1::allocator<Tab1::init()::$_12>, void (std::__ndk1::basic_string<char, std::__ndk1::char_traits<char>, std::__ndk1::allocator<char> > const&)>::__clone(std::__ndk1::__function::__base<void (std::__ndk1::basic_string<char, std::__ndk1::char_traits<char>, std::__ndk1::allocator<char> > const&)>*) const
FUNC 1fdc4 2 0 std::__ndk1::__function::__func<Tab1::init()::$_12, std::__ndk1::allocator<Tab1::init()::$_12>, void (std::__ndk1::basic_string<char, std::__ndk1::char_traits<char>, std::__ndk1::allocator<char> > const&)>::destroy()
FUNC 1fdc6 4 0 std::__ndk1::__function::__func<Tab1::init()::$_12, std::__ndk1::allocator<Tab1::init()::$_12>, void (std::__ndk1::basic_string<char, std::__ndk1::char_traits<char>, std::__ndk1::allocator<char> > const&)>::destroy_deallocate()
FUNC 1fdcc 68 0 std::__ndk1::__function::__func<Tab1::init()::$_12, std::__ndk1::allocator<Tab1::init()::$_12>, void (std::__ndk1::basic_string<char, std::__ndk1::char_traits<char>, std::__ndk1::allocator<char> > const&)>::operator()(std::__ndk1::basic_string<char, std::__ndk1::char_traits<char>, std::__ndk1::allocator<char> > const&)
FUNC 1fe34 18 0 std::__ndk1::__function::__func<Tab1::init()::$_12, std::__ndk1::allocator<Tab1::init()::$_12>, void (std::__ndk1::basic_string<char, std::__ndk1::char_traits<char>, std::__ndk1::allocator<char> > const&)>::target(std::type_info const&) const
FUNC 1fe4c c 0 std::__ndk1::__function::__func<Tab1::init()::$_12, std::__ndk1::allocator<Tab1::init()::$_12>, void (std::__ndk1::basic_string<char, std::__ndk1::char_traits<char>, std::__ndk1::allocator<char> > const&)>::target_type() const
FUNC 1fe58 4 0 std::__ndk1::__function::__func<Tab1::init()::$_13, std::__ndk1::allocator<Tab1::init()::$_13>, void (std::__ndk1::basic_string<char, std::__ndk1::char_traits<char>, std::__ndk1::allocator<char> > const&)>::~__func()
FUNC 1fe5c 20 0 std::__ndk1::__function::__func<Tab1::init()::$_13, std::__ndk1::allocator<Tab1::init()::$_13>, void (std::__ndk1::basic_string<char, std::__ndk1::char_traits<char>, std::__ndk1::allocator<char> > const&)>::__clone() const
FUNC 1fe7c 14 0 std::__ndk1::__function::__func<Tab1::init()::$_13, std::__ndk1::allocator<Tab1::init()::$_13>, void (std::__ndk1::basic_string<char, std::__ndk1::char_traits<char>, std::__ndk1::allocator<char> > const&)>::__clone(std::__ndk1::__function::__base<void (std::__ndk1::basic_string<char, std::__ndk1::char_traits<char>, std::__ndk1::allocator<char> > const&)>*) const
FUNC 1fe90 2 0 std::__ndk1::__function::__func<Tab1::init()::$_13, std::__ndk1::allocator<Tab1::init()::$_13>, void (std::__ndk1::basic_string<char, std::__ndk1::char_traits<char>, std::__ndk1::allocator<char> > const&)>::destroy()
FUNC 1fe92 4 0 std::__ndk1::__function::__func<Tab1::init()::$_13, std::__ndk1::allocator<Tab1::init()::$_13>, void (std::__ndk1::basic_string<char, std::__ndk1::char_traits<char>, std::__ndk1::allocator<char> > const&)>::destroy_deallocate()
FUNC 1fe98 68 0 std::__ndk1::__function::__func<Tab1::init()::$_13, std::__ndk1::allocator<Tab1::init()::$_13>, void (std::__ndk1::basic_string<char, std::__ndk1::char_traits<char>, std::__ndk1::allocator<char> > const&)>::operator()(std::__ndk1::basic_string<char, std::__ndk1::char_traits<char>, std::__ndk1::allocator<char> > const&)
FUNC 1ff00 18 0 std::__ndk1::__function::__func<Tab1::init()::$_13, std::__ndk1::allocator<Tab1::init()::$_13>, void (std::__ndk1::basic_string<char, std::__ndk1::char_traits<char>, std::__ndk1::allocator<char> > const&)>::target(std::type_info const&) const
FUNC 1ff18 c 0 std::__ndk1::__function::__func<Tab1::init()::$_13, std::__ndk1::allocator<Tab1::init()::$_13>, void (std::__ndk1::basic_string<char, std::__ndk1::char_traits<char>, std::__ndk1::allocator<char> > const&)>::target_type() const
FUNC 1ff24 4 0 std::__ndk1::__function::__func<Tab1::init()::$_14, std::__ndk1::allocator<Tab1::init()::$_14>, void (std::__ndk1::basic_string<char, std::__ndk1::char_traits<char>, std::__ndk1::allocator<char> > const&)>::~__func()
FUNC 1ff28 20 0 std::__ndk1::__function::__func<Tab1::init()::$_14, std::__ndk1::allocator<Tab1::init()::$_14>, void (std::__ndk1::basic_string<char, std::__ndk1::char_traits<char>, std::__ndk1::allocator<char> > const&)>::__clone() const
FUNC 1ff48 14 0 std::__ndk1::__function::__func<Tab1::init()::$_14, std::__ndk1::allocator<Tab1::init()::$_14>, void (std::__ndk1::basic_string<char, std::__ndk1::char_traits<char>, std::__ndk1::allocator<char> > const&)>::__clone(std::__ndk1::__function::__base<void (std::__ndk1::basic_string<char, std::__ndk1::char_traits<char>, std::__ndk1::allocator<char> > const&)>*) const
FUNC 1ff5c 2 0 std::__ndk1::__function::__func<Tab1::init()::$_14, std::__ndk1::allocator<Tab1::init()::$_14>, void (std::__ndk1::basic_string<char, std::__ndk1::char_traits<char>, std::__ndk1::allocator<char> > const&)>::destroy()
FUNC 1ff5e 4 0 std::__ndk1::__function::__func<Tab1::init()::$_14, std::__ndk1::allocator<Tab1::init()::$_14>, void (std::__ndk1::basic_string<char, std::__ndk1::char_traits<char>, std::__ndk1::allocator<char> > const&)>::destroy_deallocate()
FUNC 1ff64 68 0 std::__ndk1::__function::__func<Tab1::init()::$_14, std::__ndk1::allocator<Tab1::init()::$_14>, void (std::__ndk1::basic_string<char, std::__ndk1::char_traits<char>, std::__ndk1::allocator<char> > const&)>::operator()(std::__ndk1::basic_string<char, std::__ndk1::char_traits<char>, std::__ndk1::allocator<char> > const&)
FUNC 1ffcc 18 0 std::__ndk1::__function::__func<Tab1::init()::$_14, std::__ndk1::allocator<Tab1::init()::$_14>, void (std::__ndk1::basic_string<char, std::__ndk1::char_traits<char>, std::__ndk1::allocator<char> > const&)>::target(std::type_info const&) const
FUNC 1ffe4 c 0 std::__ndk1::__function::__func<Tab1::init()::$_14, std::__ndk1::allocator<Tab1::init()::$_14>, void (std::__ndk1::basic_string<char, std::__ndk1::char_traits<char>, std::__ndk1::allocator<char> > const&)>::target_type() const
FUNC 1fff0 4 0 std::__ndk1::__function::__func<Tab1::init()::$_15, std::__ndk1::allocator<Tab1::init()::$_15>, void (std::__ndk1::basic_string<char, std::__ndk1::char_traits<char>, std::__ndk1::allocator<char> > const&)>::~__func()
FUNC 1fff4 20 0 std::__ndk1::__function::__func<Tab1::init()::$_15, std::__ndk1::allocator<Tab1::init()::$_15>, void (std::__ndk1::basic_string<char, std::__ndk1::char_traits<char>, std::__ndk1::allocator<char> > const&)>::__clone() const
FUNC 20014 14 0 std::__ndk1::__function::__func<Tab1::init()::$_15, std::__ndk1::allocator<Tab1::init()::$_15>, void (std::__ndk1::basic_string<char, std::__ndk1::char_traits<char>, std::__ndk1::allocator<char> > const&)>::__clone(std::__ndk1::__function::__base<void (std::__ndk1::basic_string<char, std::__ndk1::char_traits<char>, std::__ndk1::allocator<char> > const&)>*) const
FUNC 20028 2 0 std::__ndk1::__function::__func<Tab1::init()::$_15, std::__ndk1::allocator<Tab1::init()::$_15>, void (std::__ndk1::basic_string<char, std::__ndk1::char_traits<char>, std::__ndk1::allocator<char> > const&)>::destroy()
FUNC 2002a 4 0 std::__ndk1::__function::__func<Tab1::init()::$_15, std::__ndk1::allocator<Tab1::init()::$_15>, void (std::__ndk1::basic_string<char, std::__ndk1::char_traits<char>, std::__ndk1::allocator<char> > const&)>::destroy_deallocate()
FUNC 20030 68 0 std::__ndk1::__function::__func<Tab1::init()::$_15, std::__ndk1::allocator<Tab1::init()::$_15>, void (std::__ndk1::basic_string<char, std::__ndk1::char_traits<char>, std::__ndk1::allocator<char> > const&)>::operator()(std::__ndk1::basic_string<char, std::__ndk1::char_traits<char>, std::__ndk1::allocator<char> > const&)
FUNC 20098 18 0 std::__ndk1::__function::__func<Tab1::init()::$_15, std::__ndk1::allocator<Tab1::init()::$_15>, void (std::__ndk1::basic_string<char, std::__ndk1::char_traits<char>, std::__ndk1::allocator<char> > const&)>::target(std::type_info const&) const
FUNC 200b0 c 0 std::__ndk1::__function::__func<Tab1::init()::$_15, std::__ndk1::allocator<Tab1::init()::$_15>, void (std::__ndk1::basic_string<char, std::__ndk1::char_traits<char>, std::__ndk1::allocator<char> > const&)>::target_type() const
FUNC 200bc 4 0 std::__ndk1::__function::__func<Tab1::init()::$_16, std::__ndk1::allocator<Tab1::init()::$_16>, void (std::__ndk1::basic_string<char, std::__ndk1::char_traits<char>, std::__ndk1::allocator<char> > const&)>::~__func()
FUNC 200c0 20 0 std::__ndk1::__function::__func<Tab1::init()::$_16, std::__ndk1::allocator<Tab1::init()::$_16>, void (std::__ndk1::basic_string<char, std::__ndk1::char_traits<char>, std::__ndk1::allocator<char> > const&)>::__clone() const
FUNC 200e0 14 0 std::__ndk1::__function::__func<Tab1::init()::$_16, std::__ndk1::allocator<Tab1::init()::$_16>, void (std::__ndk1::basic_string<char, std::__ndk1::char_traits<char>, std::__ndk1::allocator<char> > const&)>::__clone(std::__ndk1::__function::__base<void (std::__ndk1::basic_string<char, std::__ndk1::char_traits<char>, std::__ndk1::allocator<char> > const&)>*) const
FUNC 200f4 2 0 std::__ndk1::__function::__func<Tab1::init()::$_16, std::__ndk1::allocator<Tab1::init()::$_16>, void (std::__ndk1::basic_string<char, std::__ndk1::char_traits<char>, std::__ndk1::allocator<char> > const&)>::destroy()
FUNC 200f6 4 0 std::__ndk1::__function::__func<Tab1::init()::$_16, std::__ndk1::allocator<Tab1::init()::$_16>, void (std::__ndk1::basic_string<char, std::__ndk1::char_traits<char>, std::__ndk1::allocator<char> > const&)>::destroy_deallocate()
FUNC 200fc 68 0 std::__ndk1::__function::__func<Tab1::init()::$_16, std::__ndk1::allocator<Tab1::init()::$_16>, void (std::__ndk1::basic_string<char, std::__ndk1::char_traits<char>, std::__ndk1::allocator<char> > const&)>::operator()(std::__ndk1::basic_string<char, std::__ndk1::char_traits<char>, std::__ndk1::allocator<char> > const&)
FUNC 20164 18 0 std::__ndk1::__function::__func<Tab1::init()::$_16, std::__ndk1::allocator<Tab1::init()::$_16>, void (std::__ndk1::basic_string<char, std::__ndk1::char_traits<char>, std::__ndk1::allocator<char> > const&)>::target(std::type_info const&) const
FUNC 2017c c 0 std::__ndk1::__function::__func<Tab1::init()::$_16, std::__ndk1::allocator<Tab1::init()::$_16>, void (std::__ndk1::basic_string<char, std::__ndk1::char_traits<char>, std::__ndk1::allocator<char> > const&)>::target_type() const
FUNC 20188 4 0 std::__ndk1::__function::__func<Tab1::init()::$_17, std::__ndk1::allocator<Tab1::init()::$_17>, void (std::__ndk1::basic_string<char, std::__ndk1::char_traits<char>, std::__ndk1::allocator<char> > const&)>::~__func()
FUNC 2018c 20 0 std::__ndk1::__function::__func<Tab1::init()::$_17, std::__ndk1::allocator<Tab1::init()::$_17>, void (std::__ndk1::basic_string<char, std::__ndk1::char_traits<char>, std::__ndk1::allocator<char> > const&)>::__clone() const
FUNC 201ac 14 0 std::__ndk1::__function::__func<Tab1::init()::$_17, std::__ndk1::allocator<Tab1::init()::$_17>, void (std::__ndk1::basic_string<char, std::__ndk1::char_traits<char>, std::__ndk1::allocator<char> > const&)>::__clone(std::__ndk1::__function::__base<void (std::__ndk1::basic_string<char, std::__ndk1::char_traits<char>, std::__ndk1::allocator<char> > const&)>*) const
FUNC 201c0 2 0 std::__ndk1::__function::__func<Tab1::init()::$_17, std::__ndk1::allocator<Tab1::init()::$_17>, void (std::__ndk1::basic_string<char, std::__ndk1::char_traits<char>, std::__ndk1::allocator<char> > const&)>::destroy()
FUNC 201c2 4 0 std::__ndk1::__function::__func<Tab1::init()::$_17, std::__ndk1::allocator<Tab1::init()::$_17>, void (std::__ndk1::basic_string<char, std::__ndk1::char_traits<char>, std::__ndk1::allocator<char> > const&)>::destroy_deallocate()
FUNC 201c8 68 0 std::__ndk1::__function::__func<Tab1::init()::$_17, std::__ndk1::allocator<Tab1::init()::$_17>, void (std::__ndk1::basic_string<char, std::__ndk1::char_traits<char>, std::__ndk1::allocator<char> > const&)>::operator()(std::__ndk1::basic_string<char, std::__ndk1::char_traits<char>, std::__ndk1::allocator<char> > const&)
FUNC 20230 18 0 std::__ndk1::__function::__func<Tab1::init()::$_17, std::__ndk1::allocator<Tab1::init()::$_17>, void (std::__ndk1::basic_string<char, std::__ndk1::char_traits<char>, std::__ndk1::allocator<char> > const&)>::target(std::type_info const&) const
FUNC 20248 c 0 std::__ndk1::__function::__func<Tab1::init()::$_17, std::__ndk1::allocator<Tab1::init()::$_17>, void (std::__ndk1::basic_string<char, std::__ndk1::char_traits<char>, std::__ndk1::allocator<char> > const&)>::target_type() const
FUNC 20254 4 0 std::__ndk1::__function::__func<Tab1::init()::$_18, std::__ndk1::allocator<Tab1::init()::$_18>, void (std::__ndk1::basic_string<char, std::__ndk1::char_traits<char>, std::__ndk1::allocator<char> > const&)>::~__func()
FUNC 20258 20 0 std::__ndk1::__function::__func<Tab1::init()::$_18, std::__ndk1::allocator<Tab1::init()::$_18>, void (std::__ndk1::basic_string<char, std::__ndk1::char_traits<char>, std::__ndk1::allocator<char> > const&)>::__clone() const
FUNC 20278 14 0 std::__ndk1::__function::__func<Tab1::init()::$_18, std::__ndk1::allocator<Tab1::init()::$_18>, void (std::__ndk1::basic_string<char, std::__ndk1::char_traits<char>, std::__ndk1::allocator<char> > const&)>::__clone(std::__ndk1::__function::__base<void (std::__ndk1::basic_string<char, std::__ndk1::char_traits<char>, std::__ndk1::allocator<char> > const&)>*) const
FUNC 2028c 2 0 std::__ndk1::__function::__func<Tab1::init()::$_18, std::__ndk1::allocator<Tab1::init()::$_18>, void (std::__ndk1::basic_string<char, std::__ndk1::char_traits<char>, std::__ndk1::allocator<char> > const&)>::destroy()
FUNC 2028e 4 0 std::__ndk1::__function::__func<Tab1::init()::$_18, std::__ndk1::allocator<Tab1::init()::$_18>, void (std::__ndk1::basic_string<char, std::__ndk1::char_traits<char>, std::__ndk1::allocator<char> > const&)>::destroy_deallocate()
FUNC 20294 68 0 std::__ndk1::__function::__func<Tab1::init()::$_18, std::__ndk1::allocator<Tab1::init()::$_18>, void (std::__ndk1::basic_string<char, std::__ndk1::char_traits<char>, std::__ndk1::allocator<char> > const&)>::operator()(std::__ndk1::basic_string<char, std::__ndk1::char_traits<char>, std::__ndk1::allocator<char> > const&)
FUNC 202fc 18 0 std::__ndk1::__function::__func<Tab1::init()::$_18, std::__ndk1::allocator<Tab1::init()::$_18>, void (std::__ndk1::basic_string<char, std::__ndk1::char_traits<char>, std::__ndk1::allocator<char> > const&)>::target(std::type_info const&) const
FUNC 20314 c 0 std::__ndk1::__function::__func<Tab1::init()::$_18, std::__ndk1::allocator<Tab1::init()::$_18>, void (std::__ndk1::basic_string<char, std::__ndk1::char_traits<char>, std::__ndk1::allocator<char> > const&)>::target_type() const
FUNC 20320 4 0 std::__ndk1::__function::__func<Tab1::init()::$_19, std::__ndk1::allocator<Tab1::init()::$_19>, void (std::__ndk1::basic_string<char, std::__ndk1::char_traits<char>, std::__ndk1::allocator<char> > const&)>::~__func()
FUNC 20324 20 0 std::__ndk1::__function::__func<Tab1::init()::$_19, std::__ndk1::allocator<Tab1::init()::$_19>, void (std::__ndk1::basic_string<char, std::__ndk1::char_traits<char>, std::__ndk1::allocator<char> > const&)>::__clone() const
FUNC 20344 14 0 std::__ndk1::__function::__func<Tab1::init()::$_19, std::__ndk1::allocator<Tab1::init()::$_19>, void (std::__ndk1::basic_string<char, std::__ndk1::char_traits<char>, std::__ndk1::allocator<char> > const&)>::__clone(std::__ndk1::__function::__base<void (std::__ndk1::basic_string<char, std::__ndk1::char_traits<char>, std::__ndk1::allocator<char> > const&)>*) const
FUNC 20358 2 0 std::__ndk1::__function::__func<Tab1::init()::$_19, std::__ndk1::allocator<Tab1::init()::$_19>, void (std::__ndk1::basic_string<char, std::__ndk1::char_traits<char>, std::__ndk1::allocator<char> > const&)>::destroy()
FUNC 2035a 4 0 std::__ndk1::__function::__func<Tab1::init()::$_19, std::__ndk1::allocator<Tab1::init()::$_19>, void (std::__ndk1::basic_string<char, std::__ndk1::char_traits<char>, std::__ndk1::allocator<char> > const&)>::destroy_deallocate()
FUNC 20360 68 0 std::__ndk1::__function::__func<Tab1::init()::$_19, std::__ndk1::allocator<Tab1::init()::$_19>, void (std::__ndk1::basic_string<char, std::__ndk1::char_traits<char>, std::__ndk1::allocator<char> > const&)>::operator()(std::__ndk1::basic_string<char, std::__ndk1::char_traits<char>, std::__ndk1::allocator<char> > const&)
FUNC 203c8 18 0 std::__ndk1::__function::__func<Tab1::init()::$_19, std::__ndk1::allocator<Tab1::init()::$_19>, void (std::__ndk1::basic_string<char, std::__ndk1::char_traits<char>, std::__ndk1::allocator<char> > const&)>::target(std::type_info const&) const
FUNC 203e0 c 0 std::__ndk1::__function::__func<Tab1::init()::$_19, std::__ndk1::allocator<Tab1::init()::$_19>, void (std::__ndk1::basic_string<char, std::__ndk1::char_traits<char>, std::__ndk1::allocator<char> > const&)>::target_type() const
FUNC 203ec 1f9c 0 Tab2::init()
FUNC 22388 88 0 Tab2::SaveCheckbox(cocos2d::CCObject*)
FUNC 22410 88 0 Tab2::SaveCheckbox2(cocos2d::CCObject*)
FUNC 22498 88 0 Tab2::SaveCheckbox3(cocos2d::CCObject*)
FUNC 22520 88 0 Tab2::SaveCheckbox4(cocos2d::CCObject*)
FUNC 225a8 88 0 Tab2::SaveCheckbox5(cocos2d::CCObject*)
FUNC 22630 88 0 Tab2::SaveCheckbox6(cocos2d::CCObject*)
FUNC 226b8 88 0 Tab2::SaveCheckbox7(cocos2d::CCObject*)
FUNC 22740 88 0 Tab2::SaveCheckbox8(cocos2d::CCObject*)
FUNC 227c8 88 0 Tab2::SaveCheckbox9(cocos2d::CCObject*)
FUNC 22850 88 0 Tab2::SaveCheckbox10(cocos2d::CCObject*)
FUNC 228d8 10 0 Tab2::~Tab2()
FUNC 228e8 8 0 {virtual override thunk({offset(-264)}, Tab2::~Tab2())}
FUNC 228f0 14 0 {virtual override thunk({offset(-264)}, Tab2::~Tab2())}
FUNC 22904 4 0 std::__ndk1::__function::__func<Tab2::init()::$_0, std::__ndk1::allocator<Tab2::init()::$_0>, void (std::__ndk1::basic_string<char, std::__ndk1::char_traits<char>, std::__ndk1::allocator<char> > const&)>::~__func()
FUNC 22908 20 0 std::__ndk1::__function::__func<Tab2::init()::$_0, std::__ndk1::allocator<Tab2::init()::$_0>, void (std::__ndk1::basic_string<char, std::__ndk1::char_traits<char>, std::__ndk1::allocator<char> > const&)>::__clone() const
FUNC 22928 14 0 std::__ndk1::__function::__func<Tab2::init()::$_0, std::__ndk1::allocator<Tab2::init()::$_0>, void (std::__ndk1::basic_string<char, std::__ndk1::char_traits<char>, std::__ndk1::allocator<char> > const&)>::__clone(std::__ndk1::__function::__base<void (std::__ndk1::basic_string<char, std::__ndk1::char_traits<char>, std::__ndk1::allocator<char> > const&)>*) const
FUNC 2293c 2 0 std::__ndk1::__function::__func<Tab2::init()::$_0, std::__ndk1::allocator<Tab2::init()::$_0>, void (std::__ndk1::basic_string<char, std::__ndk1::char_traits<char>, std::__ndk1::allocator<char> > const&)>::destroy()
FUNC 2293e 4 0 std::__ndk1::__function::__func<Tab2::init()::$_0, std::__ndk1::allocator<Tab2::init()::$_0>, void (std::__ndk1::basic_string<char, std::__ndk1::char_traits<char>, std::__ndk1::allocator<char> > const&)>::destroy_deallocate()
FUNC 22944 68 0 std::__ndk1::__function::__func<Tab2::init()::$_0, std::__ndk1::allocator<Tab2::init()::$_0>, void (std::__ndk1::basic_string<char, std::__ndk1::char_traits<char>, std::__ndk1::allocator<char> > const&)>::operator()(std::__ndk1::basic_string<char, std::__ndk1::char_traits<char>, std::__ndk1::allocator<char> > const&)
FUNC 229ac 18 0 std::__ndk1::__function::__func<Tab2::init()::$_0, std::__ndk1::allocator<Tab2::init()::$_0>, void (std::__ndk1::basic_string<char, std::__ndk1::char_traits<char>, std::__ndk1::allocator<char> > const&)>::target(std::type_info const&) const
FUNC 229c4 c 0 std::__ndk1::__function::__func<Tab2::init()::$_0, std::__ndk1::allocator<Tab2::init()::$_0>, void (std::__ndk1::basic_string<char, std::__ndk1::char_traits<char>, std::__ndk1::allocator<char> > const&)>::target_type() const
FUNC 229d0 4 0 std::__ndk1::__function::__func<Tab2::init()::$_1, std::__ndk1::allocator<Tab2::init()::$_1>, void (std::__ndk1::basic_string<char, std::__ndk1::char_traits<char>, std::__ndk1::allocator<char> > const&)>::~__func()
FUNC 229d4 20 0 std::__ndk1::__function::__func<Tab2::init()::$_1, std::__ndk1::allocator<Tab2::init()::$_1>, void (std::__ndk1::basic_string<char, std::__ndk1::char_traits<char>, std::__ndk1::allocator<char> > const&)>::__clone() const
FUNC 229f4 14 0 std::__ndk1::__function::__func<Tab2::init()::$_1, std::__ndk1::allocator<Tab2::init()::$_1>, void (std::__ndk1::basic_string<char, std::__ndk1::char_traits<char>, std::__ndk1::allocator<char> > const&)>::__clone(std::__ndk1::__function::__base<void (std::__ndk1::basic_string<char, std::__ndk1::char_traits<char>, std::__ndk1::allocator<char> > const&)>*) const
FUNC 22a08 2 0 std::__ndk1::__function::__func<Tab2::init()::$_1, std::__ndk1::allocator<Tab2::init()::$_1>, void (std::__ndk1::basic_string<char, std::__ndk1::char_traits<char>, std::__ndk1::allocator<char> > const&)>::destroy()
FUNC 22a0a 4 0 std::__ndk1::__function::__func<Tab2::init()::$_1, std::__ndk1::allocator<Tab2::init()::$_1>, void (std::__ndk1::basic_string<char, std::__ndk1::char_traits<char>, std::__ndk1::allocator<char> > const&)>::destroy_deallocate()
FUNC 22a10 68 0 std::__ndk1::__function::__func<Tab2::init()::$_1, std::__ndk1::allocator<Tab2::init()::$_1>, void (std::__ndk1::basic_string<char, std::__ndk1::char_traits<char>, std::__ndk1::allocator<char> > const&)>::operator()(std::__ndk1::basic_string<char, std::__ndk1::char_traits<char>, std::__ndk1::allocator<char> > const&)
FUNC 22a78 18 0 std::__ndk1::__function::__func<Tab2::init()::$_1, std::__ndk1::allocator<Tab2::init()::$_1>, void (std::__ndk1::basic_string<char, std::__ndk1::char_traits<char>, std::__ndk1::allocator<char> > const&)>::target(std::type_info const&) const
FUNC 22a90 c 0 std::__ndk1::__function::__func<Tab2::init()::$_1, std::__ndk1::allocator<Tab2::init()::$_1>, void (std::__ndk1::basic_string<char, std::__ndk1::char_traits<char>, std::__ndk1::allocator<char> > const&)>::target_type() const
FUNC 22a9c 4 0 std::__ndk1::__function::__func<Tab2::init()::$_2, std::__ndk1::allocator<Tab2::init()::$_2>, void (std::__ndk1::basic_string<char, std::__ndk1::char_traits<char>, std::__ndk1::allocator<char> > const&)>::~__func()
FUNC 22aa0 20 0 std::__ndk1::__function::__func<Tab2::init()::$_2, std::__ndk1::allocator<Tab2::init()::$_2>, void (std::__ndk1::basic_string<char, std::__ndk1::char_traits<char>, std::__ndk1::allocator<char> > const&)>::__clone() const
FUNC 22ac0 14 0 std::__ndk1::__function::__func<Tab2::init()::$_2, std::__ndk1::allocator<Tab2::init()::$_2>, void (std::__ndk1::basic_string<char, std::__ndk1::char_traits<char>, std::__ndk1::allocator<char> > const&)>::__clone(std::__ndk1::__function::__base<void (std::__ndk1::basic_string<char, std::__ndk1::char_traits<char>, std::__ndk1::allocator<char> > const&)>*) const
FUNC 22ad4 2 0 std::__ndk1::__function::__func<Tab2::init()::$_2, std::__ndk1::allocator<Tab2::init()::$_2>, void (std::__ndk1::basic_string<char, std::__ndk1::char_traits<char>, std::__ndk1::allocator<char> > const&)>::destroy()
FUNC 22ad6 4 0 std::__ndk1::__function::__func<Tab2::init()::$_2, std::__ndk1::allocator<Tab2::init()::$_2>, void (std::__ndk1::basic_string<char, std::__ndk1::char_traits<char>, std::__ndk1::allocator<char> > const&)>::destroy_deallocate()
FUNC 22adc 68 0 std::__ndk1::__function::__func<Tab2::init()::$_2, std::__ndk1::allocator<Tab2::init()::$_2>, void (std::__ndk1::basic_string<char, std::__ndk1::char_traits<char>, std::__ndk1::allocator<char> > const&)>::operator()(std::__ndk1::basic_string<char, std::__ndk1::char_traits<char>, std::__ndk1::allocator<char> > const&)
FUNC 22b44 18 0 std::__ndk1::__function::__func<Tab2::init()::$_2, std::__ndk1::allocator<Tab2::init()::$_2>, void (std::__ndk1::basic_string<char, std::__ndk1::char_traits<char>, std::__ndk1::allocator<char> > const&)>::target(std::type_info const&) const
FUNC 22b5c c 0 std::__ndk1::__function::__func<Tab2::init()::$_2, std::__ndk1::allocator<Tab2::init()::$_2>, void (std::__ndk1::basic_string<char, std::__ndk1::char_traits<char>, std::__ndk1::allocator<char> > const&)>::target_type() const
FUNC 22b68 4 0 std::__ndk1::__function::__func<Tab2::init()::$_3, std::__ndk1::allocator<Tab2::init()::$_3>, void (std::__ndk1::basic_string<char, std::__ndk1::char_traits<char>, std::__ndk1::allocator<char> > const&)>::~__func()
FUNC 22b6c 20 0 std::__ndk1::__function::__func<Tab2::init()::$_3, std::__ndk1::allocator<Tab2::init()::$_3>, void (std::__ndk1::basic_string<char, std::__ndk1::char_traits<char>, std::__ndk1::allocator<char> > const&)>::__clone() const
FUNC 22b8c 14 0 std::__ndk1::__function::__func<Tab2::init()::$_3, std::__ndk1::allocator<Tab2::init()::$_3>, void (std::__ndk1::basic_string<char, std::__ndk1::char_traits<char>, std::__ndk1::allocator<char> > const&)>::__clone(std::__ndk1::__function::__base<void (std::__ndk1::basic_string<char, std::__ndk1::char_traits<char>, std::__ndk1::allocator<char> > const&)>*) const
FUNC 22ba0 2 0 std::__ndk1::__function::__func<Tab2::init()::$_3, std::__ndk1::allocator<Tab2::init()::$_3>, void (std::__ndk1::basic_string<char, std::__ndk1::char_traits<char>, std::__ndk1::allocator<char> > const&)>::destroy()
FUNC 22ba2 4 0 std::__ndk1::__function::__func<Tab2::init()::$_3, std::__ndk1::allocator<Tab2::init()::$_3>, void (std::__ndk1::basic_string<char, std::__ndk1::char_traits<char>, std::__ndk1::allocator<char> > const&)>::destroy_deallocate()
FUNC 22ba8 68 0 std::__ndk1::__function::__func<Tab2::init()::$_3, std::__ndk1::allocator<Tab2::init()::$_3>, void (std::__ndk1::basic_string<char, std::__ndk1::char_traits<char>, std::__ndk1::allocator<char> > const&)>::operator()(std::__ndk1::basic_string<char, std::__ndk1::char_traits<char>, std::__ndk1::allocator<char> > const&)
FUNC 22c10 18 0 std::__ndk1::__function::__func<Tab2::init()::$_3, std::__ndk1::allocator<Tab2::init()::$_3>, void (std::__ndk1::basic_string<char, std::__ndk1::char_traits<char>, std::__ndk1::allocator<char> > const&)>::target(std::type_info const&) const
FUNC 22c28 c 0 std::__ndk1::__function::__func<Tab2::init()::$_3, std::__ndk1::allocator<Tab2::init()::$_3>, void (std::__ndk1::basic_string<char, std::__ndk1::char_traits<char>, std::__ndk1::allocator<char> > const&)>::target_type() const
FUNC 22c34 4 0 std::__ndk1::__function::__func<Tab2::init()::$_4, std::__ndk1::allocator<Tab2::init()::$_4>, void (std::__ndk1::basic_string<char, std::__ndk1::char_traits<char>, std::__ndk1::allocator<char> > const&)>::~__func()
FUNC 22c38 20 0 std::__ndk1::__function::__func<Tab2::init()::$_4, std::__ndk1::allocator<Tab2::init()::$_4>, void (std::__ndk1::basic_string<char, std::__ndk1::char_traits<char>, std::__ndk1::allocator<char> > const&)>::__clone() const
FUNC 22c58 14 0 std::__ndk1::__function::__func<Tab2::init()::$_4, std::__ndk1::allocator<Tab2::init()::$_4>, void (std::__ndk1::basic_string<char, std::__ndk1::char_traits<char>, std::__ndk1::allocator<char> > const&)>::__clone(std::__ndk1::__function::__base<void (std::__ndk1::basic_string<char, std::__ndk1::char_traits<char>, std::__ndk1::allocator<char> > const&)>*) const
FUNC 22c6c 2 0 std::__ndk1::__function::__func<Tab2::init()::$_4, std::__ndk1::allocator<Tab2::init()::$_4>, void (std::__ndk1::basic_string<char, std::__ndk1::char_traits<char>, std::__ndk1::allocator<char> > const&)>::destroy()
FUNC 22c6e 4 0 std::__ndk1::__function::__func<Tab2::init()::$_4, std::__ndk1::allocator<Tab2::init()::$_4>, void (std::__ndk1::basic_string<char, std::__ndk1::char_traits<char>, std::__ndk1::allocator<char> > const&)>::destroy_deallocate()
FUNC 22c74 68 0 std::__ndk1::__function::__func<Tab2::init()::$_4, std::__ndk1::allocator<Tab2::init()::$_4>, void (std::__ndk1::basic_string<char, std::__ndk1::char_traits<char>, std::__ndk1::allocator<char> > const&)>::operator()(std::__ndk1::basic_string<char, std::__ndk1::char_traits<char>, std::__ndk1::allocator<char> > const&)
FUNC 22cdc 18 0 std::__ndk1::__function::__func<Tab2::init()::$_4, std::__ndk1::allocator<Tab2::init()::$_4>, void (std::__ndk1::basic_string<char, std::__ndk1::char_traits<char>, std::__ndk1::allocator<char> > const&)>::target(std::type_info const&) const
FUNC 22cf4 c 0 std::__ndk1::__function::__func<Tab2::init()::$_4, std::__ndk1::allocator<Tab2::init()::$_4>, void (std::__ndk1::basic_string<char, std::__ndk1::char_traits<char>, std::__ndk1::allocator<char> > const&)>::target_type() const
FUNC 22d00 4 0 std::__ndk1::__function::__func<Tab2::init()::$_5, std::__ndk1::allocator<Tab2::init()::$_5>, void (std::__ndk1::basic_string<char, std::__ndk1::char_traits<char>, std::__ndk1::allocator<char> > const&)>::~__func()
FUNC 22d04 20 0 std::__ndk1::__function::__func<Tab2::init()::$_5, std::__ndk1::allocator<Tab2::init()::$_5>, void (std::__ndk1::basic_string<char, std::__ndk1::char_traits<char>, std::__ndk1::allocator<char> > const&)>::__clone() const
FUNC 22d24 14 0 std::__ndk1::__function::__func<Tab2::init()::$_5, std::__ndk1::allocator<Tab2::init()::$_5>, void (std::__ndk1::basic_string<char, std::__ndk1::char_traits<char>, std::__ndk1::allocator<char> > const&)>::__clone(std::__ndk1::__function::__base<void (std::__ndk1::basic_string<char, std::__ndk1::char_traits<char>, std::__ndk1::allocator<char> > const&)>*) const
FUNC 22d38 2 0 std::__ndk1::__function::__func<Tab2::init()::$_5, std::__ndk1::allocator<Tab2::init()::$_5>, void (std::__ndk1::basic_string<char, std::__ndk1::char_traits<char>, std::__ndk1::allocator<char> > const&)>::destroy()
FUNC 22d3a 4 0 std::__ndk1::__function::__func<Tab2::init()::$_5, std::__ndk1::allocator<Tab2::init()::$_5>, void (std::__ndk1::basic_string<char, std::__ndk1::char_traits<char>, std::__ndk1::allocator<char> > const&)>::destroy_deallocate()
FUNC 22d40 68 0 std::__ndk1::__function::__func<Tab2::init()::$_5, std::__ndk1::allocator<Tab2::init()::$_5>, void (std::__ndk1::basic_string<char, std::__ndk1::char_traits<char>, std::__ndk1::allocator<char> > const&)>::operator()(std::__ndk1::basic_string<char, std::__ndk1::char_traits<char>, std::__ndk1::allocator<char> > const&)
FUNC 22da8 18 0 std::__ndk1::__function::__func<Tab2::init()::$_5, std::__ndk1::allocator<Tab2::init()::$_5>, void (std::__ndk1::basic_string<char, std::__ndk1::char_traits<char>, std::__ndk1::allocator<char> > const&)>::target(std::type_info const&) const
FUNC 22dc0 c 0 std::__ndk1::__function::__func<Tab2::init()::$_5, std::__ndk1::allocator<Tab2::init()::$_5>, void (std::__ndk1::basic_string<char, std::__ndk1::char_traits<char>, std::__ndk1::allocator<char> > const&)>::target_type() const
FUNC 22dcc 4 0 std::__ndk1::__function::__func<Tab2::init()::$_6, std::__ndk1::allocator<Tab2::init()::$_6>, void (std::__ndk1::basic_string<char, std::__ndk1::char_traits<char>, std::__ndk1::allocator<char> > const&)>::~__func()
FUNC 22dd0 20 0 std::__ndk1::__function::__func<Tab2::init()::$_6, std::__ndk1::allocator<Tab2::init()::$_6>, void (std::__ndk1::basic_string<char, std::__ndk1::char_traits<char>, std::__ndk1::allocator<char> > const&)>::__clone() const
FUNC 22df0 14 0 std::__ndk1::__function::__func<Tab2::init()::$_6, std::__ndk1::allocator<Tab2::init()::$_6>, void (std::__ndk1::basic_string<char, std::__ndk1::char_traits<char>, std::__ndk1::allocator<char> > const&)>::__clone(std::__ndk1::__function::__base<void (std::__ndk1::basic_string<char, std::__ndk1::char_traits<char>, std::__ndk1::allocator<char> > const&)>*) const
FUNC 22e04 2 0 std::__ndk1::__function::__func<Tab2::init()::$_6, std::__ndk1::allocator<Tab2::init()::$_6>, void (std::__ndk1::basic_string<char, std::__ndk1::char_traits<char>, std::__ndk1::allocator<char> > const&)>::destroy()
FUNC 22e06 4 0 std::__ndk1::__function::__func<Tab2::init()::$_6, std::__ndk1::allocator<Tab2::init()::$_6>, void (std::__ndk1::basic_string<char, std::__ndk1::char_traits<char>, std::__ndk1::allocator<char> > const&)>::destroy_deallocate()
FUNC 22e0c 68 0 std::__ndk1::__function::__func<Tab2::init()::$_6, std::__ndk1::allocator<Tab2::init()::$_6>, void (std::__ndk1::basic_string<char, std::__ndk1::char_traits<char>, std::__ndk1::allocator<char> > const&)>::operator()(std::__ndk1::basic_string<char, std::__ndk1::char_traits<char>, std::__ndk1::allocator<char> > const&)
FUNC 22e74 18 0 std::__ndk1::__function::__func<Tab2::init()::$_6, std::__ndk1::allocator<Tab2::init()::$_6>, void (std::__ndk1::basic_string<char, std::__ndk1::char_traits<char>, std::__ndk1::allocator<char> > const&)>::target(std::type_info const&) const
FUNC 22e8c c 0 std::__ndk1::__function::__func<Tab2::init()::$_6, std::__ndk1::allocator<Tab2::init()::$_6>, void (std::__ndk1::basic_string<char, std::__ndk1::char_traits<char>, std::__ndk1::allocator<char> > const&)>::target_type() const
FUNC 22e98 4 0 std::__ndk1::__function::__func<Tab2::init()::$_7, std::__ndk1::allocator<Tab2::init()::$_7>, void (std::__ndk1::basic_string<char, std::__ndk1::char_traits<char>, std::__ndk1::allocator<char> > const&)>::~__func()
FUNC 22e9c 20 0 std::__ndk1::__function::__func<Tab2::init()::$_7, std::__ndk1::allocator<Tab2::init()::$_7>, void (std::__ndk1::basic_string<char, std::__ndk1::char_traits<char>, std::__ndk1::allocator<char> > const&)>::__clone() const
FUNC 22ebc 14 0 std::__ndk1::__function::__func<Tab2::init()::$_7, std::__ndk1::allocator<Tab2::init()::$_7>, void (std::__ndk1::basic_string<char, std::__ndk1::char_traits<char>, std::__ndk1::allocator<char> > const&)>::__clone(std::__ndk1::__function::__base<void (std::__ndk1::basic_string<char, std::__ndk1::char_traits<char>, std::__ndk1::allocator<char> > const&)>*) const
FUNC 22ed0 2 0 std::__ndk1::__function::__func<Tab2::init()::$_7, std::__ndk1::allocator<Tab2::init()::$_7>, void (std::__ndk1::basic_string<char, std::__ndk1::char_traits<char>, std::__ndk1::allocator<char> > const&)>::destroy()
FUNC 22ed2 4 0 std::__ndk1::__function::__func<Tab2::init()::$_7, std::__ndk1::allocator<Tab2::init()::$_7>, void (std::__ndk1::basic_string<char, std::__ndk1::char_traits<char>, std::__ndk1::allocator<char> > const&)>::destroy_deallocate()
FUNC 22ed8 68 0 std::__ndk1::__function::__func<Tab2::init()::$_7, std::__ndk1::allocator<Tab2::init()::$_7>, void (std::__ndk1::basic_string<char, std::__ndk1::char_traits<char>, std::__ndk1::allocator<char> > const&)>::operator()(std::__ndk1::basic_string<char, std::__ndk1::char_traits<char>, std::__ndk1::allocator<char> > const&)
FUNC 22f40 18 0 std::__ndk1::__function::__func<Tab2::init()::$_7, std::__ndk1::allocator<Tab2::init()::$_7>, void (std::__ndk1::basic_string<char, std::__ndk1::char_traits<char>, std::__ndk1::allocator<char> > const&)>::target(std::type_info const&) const
FUNC 22f58 c 0 std::__ndk1::__function::__func<Tab2::init()::$_7, std::__ndk1::allocator<Tab2::init()::$_7>, void (std::__ndk1::basic_string<char, std::__ndk1::char_traits<char>, std::__ndk1::allocator<char> > const&)>::target_type() const
FUNC 22f64 4 0 std::__ndk1::__function::__func<Tab2::init()::$_8, std::__ndk1::allocator<Tab2::init()::$_8>, void (std::__ndk1::basic_string<char, std::__ndk1::char_traits<char>, std::__ndk1::allocator<char> > const&)>::~__func()
FUNC 22f68 20 0 std::__ndk1::__function::__func<Tab2::init()::$_8, std::__ndk1::allocator<Tab2::init()::$_8>, void (std::__ndk1::basic_string<char, std::__ndk1::char_traits<char>, std::__ndk1::allocator<char> > const&)>::__clone() const
FUNC 22f88 14 0 std::__ndk1::__function::__func<Tab2::init()::$_8, std::__ndk1::allocator<Tab2::init()::$_8>, void (std::__ndk1::basic_string<char, std::__ndk1::char_traits<char>, std::__ndk1::allocator<char> > const&)>::__clone(std::__ndk1::__function::__base<void (std::__ndk1::basic_string<char, std::__ndk1::char_traits<char>, std::__ndk1::allocator<char> > const&)>*) const
FUNC 22f9c 2 0 std::__ndk1::__function::__func<Tab2::init()::$_8, std::__ndk1::allocator<Tab2::init()::$_8>, void (std::__ndk1::basic_string<char, std::__ndk1::char_traits<char>, std::__ndk1::allocator<char> > const&)>::destroy()
FUNC 22f9e 4 0 std::__ndk1::__function::__func<Tab2::init()::$_8, std::__ndk1::allocator<Tab2::init()::$_8>, void (std::__ndk1::basic_string<char, std::__ndk1::char_traits<char>, std::__ndk1::allocator<char> > const&)>::destroy_deallocate()
FUNC 22fa4 68 0 std::__ndk1::__function::__func<Tab2::init()::$_8, std::__ndk1::allocator<Tab2::init()::$_8>, void (std::__ndk1::basic_string<char, std::__ndk1::char_traits<char>, std::__ndk1::allocator<char> > const&)>::operator()(std::__ndk1::basic_string<char, std::__ndk1::char_traits<char>, std::__ndk1::allocator<char> > const&)
FUNC 2300c 18 0 std::__ndk1::__function::__func<Tab2::init()::$_8, std::__ndk1::allocator<Tab2::init()::$_8>, void (std::__ndk1::basic_string<char, std::__ndk1::char_traits<char>, std::__ndk1::allocator<char> > const&)>::target(std::type_info const&) const
FUNC 23024 c 0 std::__ndk1::__function::__func<Tab2::init()::$_8, std::__ndk1::allocator<Tab2::init()::$_8>, void (std::__ndk1::basic_string<char, std::__ndk1::char_traits<char>, std::__ndk1::allocator<char> > const&)>::target_type() const
FUNC 23030 4 0 std::__ndk1::__function::__func<Tab2::init()::$_9, std::__ndk1::allocator<Tab2::init()::$_9>, void (std::__ndk1::basic_string<char, std::__ndk1::char_traits<char>, std::__ndk1::allocator<char> > const&)>::~__func()
FUNC 23034 20 0 std::__ndk1::__function::__func<Tab2::init()::$_9, std::__ndk1::allocator<Tab2::init()::$_9>, void (std::__ndk1::basic_string<char, std::__ndk1::char_traits<char>, std::__ndk1::allocator<char> > const&)>::__clone() const
FUNC 23054 14 0 std::__ndk1::__function::__func<Tab2::init()::$_9, std::__ndk1::allocator<Tab2::init()::$_9>, void (std::__ndk1::basic_string<char, std::__ndk1::char_traits<char>, std::__ndk1::allocator<char> > const&)>::__clone(std::__ndk1::__function::__base<void (std::__ndk1::basic_string<char, std::__ndk1::char_traits<char>, std::__ndk1::allocator<char> > const&)>*) const
FUNC 23068 2 0 std::__ndk1::__function::__func<Tab2::init()::$_9, std::__ndk1::allocator<Tab2::init()::$_9>, void (std::__ndk1::basic_string<char, std::__ndk1::char_traits<char>, std::__ndk1::allocator<char> > const&)>::destroy()
FUNC 2306a 4 0 std::__ndk1::__function::__func<Tab2::init()::$_9, std::__ndk1::allocator<Tab2::init()::$_9>, void (std::__ndk1::basic_string<char, std::__ndk1::char_traits<char>, std::__ndk1::allocator<char> > const&)>::destroy_deallocate()
FUNC 23070 68 0 std::__ndk1::__function::__func<Tab2::init()::$_9, std::__ndk1::allocator<Tab2::init()::$_9>, void (std::__ndk1::basic_string<char, std::__ndk1::char_traits<char>, std::__ndk1::allocator<char> > const&)>::operator()(std::__ndk1::basic_string<char, std::__ndk1::char_traits<char>, std::__ndk1::allocator<char> > const&)
FUNC 230d8 18 0 std::__ndk1::__function::__func<Tab2::init()::$_9, std::__ndk1::allocator<Tab2::init()::$_9>, void (std::__ndk1::basic_string<char, std::__ndk1::char_traits<char>, std::__ndk1::allocator<char> > const&)>::target(std::type_info const&) const
FUNC 230f0 c 0 std::__ndk1::__function::__func<Tab2::init()::$_9, std::__ndk1::allocator<Tab2::init()::$_9>, void (std::__ndk1::basic_string<char, std::__ndk1::char_traits<char>, std::__ndk1::allocator<char> > const&)>::target_type() const
FUNC 230fc 4 0 std::__ndk1::__function::__func<Tab2::init()::$_10, std::__ndk1::allocator<Tab2::init()::$_10>, void (std::__ndk1::basic_string<char, std::__ndk1::char_traits<char>, std::__ndk1::allocator<char> > const&)>::~__func()
FUNC 23100 20 0 std::__ndk1::__function::__func<Tab2::init()::$_10, std::__ndk1::allocator<Tab2::init()::$_10>, void (std::__ndk1::basic_string<char, std::__ndk1::char_traits<char>, std::__ndk1::allocator<char> > const&)>::__clone() const
FUNC 23120 14 0 std::__ndk1::__function::__func<Tab2::init()::$_10, std::__ndk1::allocator<Tab2::init()::$_10>, void (std::__ndk1::basic_string<char, std::__ndk1::char_traits<char>, std::__ndk1::allocator<char> > const&)>::__clone(std::__ndk1::__function::__base<void (std::__ndk1::basic_string<char, std::__ndk1::char_traits<char>, std::__ndk1::allocator<char> > const&)>*) const
FUNC 23134 2 0 std::__ndk1::__function::__func<Tab2::init()::$_10, std::__ndk1::allocator<Tab2::init()::$_10>, void (std::__ndk1::basic_string<char, std::__ndk1::char_traits<char>, std::__ndk1::allocator<char> > const&)>::destroy()
FUNC 23136 4 0 std::__ndk1::__function::__func<Tab2::init()::$_10, std::__ndk1::allocator<Tab2::init()::$_10>, void (std::__ndk1::basic_string<char, std::__ndk1::char_traits<char>, std::__ndk1::allocator<char> > const&)>::destroy_deallocate()
FUNC 2313c 68 0 std::__ndk1::__function::__func<Tab2::init()::$_10, std::__ndk1::allocator<Tab2::init()::$_10>, void (std::__ndk1::basic_string<char, std::__ndk1::char_traits<char>, std::__ndk1::allocator<char> > const&)>::operator()(std::__ndk1::basic_string<char, std::__ndk1::char_traits<char>, std::__ndk1::allocator<char> > const&)
FUNC 231a4 18 0 std::__ndk1::__function::__func<Tab2::init()::$_10, std::__ndk1::allocator<Tab2::init()::$_10>, void (std::__ndk1::basic_string<char, std::__ndk1::char_traits<char>, std::__ndk1::allocator<char> > const&)>::target(std::type_info const&) const
FUNC 231bc c 0 std::__ndk1::__function::__func<Tab2::init()::$_10, std::__ndk1::allocator<Tab2::init()::$_10>, void (std::__ndk1::basic_string<char, std::__ndk1::char_traits<char>, std::__ndk1::allocator<char> > const&)>::target_type() const
FUNC 231c8 4 0 std::__ndk1::__function::__func<Tab2::init()::$_11, std::__ndk1::allocator<Tab2::init()::$_11>, void (std::__ndk1::basic_string<char, std::__ndk1::char_traits<char>, std::__ndk1::allocator<char> > const&)>::~__func()
FUNC 231cc 20 0 std::__ndk1::__function::__func<Tab2::init()::$_11, std::__ndk1::allocator<Tab2::init()::$_11>, void (std::__ndk1::basic_string<char, std::__ndk1::char_traits<char>, std::__ndk1::allocator<char> > const&)>::__clone() const
FUNC 231ec 14 0 std::__ndk1::__function::__func<Tab2::init()::$_11, std::__ndk1::allocator<Tab2::init()::$_11>, void (std::__ndk1::basic_string<char, std::__ndk1::char_traits<char>, std::__ndk1::allocator<char> > const&)>::__clone(std::__ndk1::__function::__base<void (std::__ndk1::basic_string<char, std::__ndk1::char_traits<char>, std::__ndk1::allocator<char> > const&)>*) const
FUNC 23200 2 0 std::__ndk1::__function::__func<Tab2::init()::$_11, std::__ndk1::allocator<Tab2::init()::$_11>, void (std::__ndk1::basic_string<char, std::__ndk1::char_traits<char>, std::__ndk1::allocator<char> > const&)>::destroy()
FUNC 23202 4 0 std::__ndk1::__function::__func<Tab2::init()::$_11, std::__ndk1::allocator<Tab2::init()::$_11>, void (std::__ndk1::basic_string<char, std::__ndk1::char_traits<char>, std::__ndk1::allocator<char> > const&)>::destroy_deallocate()
FUNC 23208 68 0 std::__ndk1::__function::__func<Tab2::init()::$_11, std::__ndk1::allocator<Tab2::init()::$_11>, void (std::__ndk1::basic_string<char, std::__ndk1::char_traits<char>, std::__ndk1::allocator<char> > const&)>::operator()(std::__ndk1::basic_string<char, std::__ndk1::char_traits<char>, std::__ndk1::allocator<char> > const&)
FUNC 23270 18 0 std::__ndk1::__function::__func<Tab2::init()::$_11, std::__ndk1::allocator<Tab2::init()::$_11>, void (std::__ndk1::basic_string<char, std::__ndk1::char_traits<char>, std::__ndk1::allocator<char> > const&)>::target(std::type_info const&) const
FUNC 23288 c 0 std::__ndk1::__function::__func<Tab2::init()::$_11, std::__ndk1::allocator<Tab2::init()::$_11>, void (std::__ndk1::basic_string<char, std::__ndk1::char_traits<char>, std::__ndk1::allocator<char> > const&)>::target_type() const
FUNC 23294 4 0 std::__ndk1::__function::__func<Tab2::init()::$_12, std::__ndk1::allocator<Tab2::init()::$_12>, void (std::__ndk1::basic_string<char, std::__ndk1::char_traits<char>, std::__ndk1::allocator<char> > const&)>::~__func()
FUNC 23298 20 0 std::__ndk1::__function::__func<Tab2::init()::$_12, std::__ndk1::allocator<Tab2::init()::$_12>, void (std::__ndk1::basic_string<char, std::__ndk1::char_traits<char>, std::__ndk1::allocator<char> > const&)>::__clone() const
FUNC 232b8 14 0 std::__ndk1::__function::__func<Tab2::init()::$_12, std::__ndk1::allocator<Tab2::init()::$_12>, void (std::__ndk1::basic_string<char, std::__ndk1::char_traits<char>, std::__ndk1::allocator<char> > const&)>::__clone(std::__ndk1::__function::__base<void (std::__ndk1::basic_string<char, std::__ndk1::char_traits<char>, std::__ndk1::allocator<char> > const&)>*) const
FUNC 232cc 2 0 std::__ndk1::__function::__func<Tab2::init()::$_12, std::__ndk1::allocator<Tab2::init()::$_12>, void (std::__ndk1::basic_string<char, std::__ndk1::char_traits<char>, std::__ndk1::allocator<char> > const&)>::destroy()
FUNC 232ce 4 0 std::__ndk1::__function::__func<Tab2::init()::$_12, std::__ndk1::allocator<Tab2::init()::$_12>, void (std::__ndk1::basic_string<char, std::__ndk1::char_traits<char>, std::__ndk1::allocator<char> > const&)>::destroy_deallocate()
FUNC 232d4 68 0 std::__ndk1::__function::__func<Tab2::init()::$_12, std::__ndk1::allocator<Tab2::init()::$_12>, void (std::__ndk1::basic_string<char, std::__ndk1::char_traits<char>, std::__ndk1::allocator<char> > const&)>::operator()(std::__ndk1::basic_string<char, std::__ndk1::char_traits<char>, std::__ndk1::allocator<char> > const&)
FUNC 2333c 18 0 std::__ndk1::__function::__func<Tab2::init()::$_12, std::__ndk1::allocator<Tab2::init()::$_12>, void (std::__ndk1::basic_string<char, std::__ndk1::char_traits<char>, std::__ndk1::allocator<char> > const&)>::target(std::type_info const&) const
FUNC 23354 c 0 std::__ndk1::__function::__func<Tab2::init()::$_12, std::__ndk1::allocator<Tab2::init()::$_12>, void (std::__ndk1::basic_string<char, std::__ndk1::char_traits<char>, std::__ndk1::allocator<char> > const&)>::target_type() const
FUNC 23360 4 0 std::__ndk1::__function::__func<Tab2::init()::$_13, std::__ndk1::allocator<Tab2::init()::$_13>, void (std::__ndk1::basic_string<char, std::__ndk1::char_traits<char>, std::__ndk1::allocator<char> > const&)>::~__func()
FUNC 23364 20 0 std::__ndk1::__function::__func<Tab2::init()::$_13, std::__ndk1::allocator<Tab2::init()::$_13>, void (std::__ndk1::basic_string<char, std::__ndk1::char_traits<char>, std::__ndk1::allocator<char> > const&)>::__clone() const
FUNC 23384 14 0 std::__ndk1::__function::__func<Tab2::init()::$_13, std::__ndk1::allocator<Tab2::init()::$_13>, void (std::__ndk1::basic_string<char, std::__ndk1::char_traits<char>, std::__ndk1::allocator<char> > const&)>::__clone(std::__ndk1::__function::__base<void (std::__ndk1::basic_string<char, std::__ndk1::char_traits<char>, std::__ndk1::allocator<char> > const&)>*) const
FUNC 23398 2 0 std::__ndk1::__function::__func<Tab2::init()::$_13, std::__ndk1::allocator<Tab2::init()::$_13>, void (std::__ndk1::basic_string<char, std::__ndk1::char_traits<char>, std::__ndk1::allocator<char> > const&)>::destroy()
FUNC 2339a 4 0 std::__ndk1::__function::__func<Tab2::init()::$_13, std::__ndk1::allocator<Tab2::init()::$_13>, void (std::__ndk1::basic_string<char, std::__ndk1::char_traits<char>, std::__ndk1::allocator<char> > const&)>::destroy_deallocate()
FUNC 233a0 68 0 std::__ndk1::__function::__func<Tab2::init()::$_13, std::__ndk1::allocator<Tab2::init()::$_13>, void (std::__ndk1::basic_string<char, std::__ndk1::char_traits<char>, std::__ndk1::allocator<char> > const&)>::operator()(std::__ndk1::basic_string<char, std::__ndk1::char_traits<char>, std::__ndk1::allocator<char> > const&)
FUNC 23408 18 0 std::__ndk1::__function::__func<Tab2::init()::$_13, std::__ndk1::allocator<Tab2::init()::$_13>, void (std::__ndk1::basic_string<char, std::__ndk1::char_traits<char>, std::__ndk1::allocator<char> > const&)>::target(std::type_info const&) const
FUNC 23420 c 0 std::__ndk1::__function::__func<Tab2::init()::$_13, std::__ndk1::allocator<Tab2::init()::$_13>, void (std::__ndk1::basic_string<char, std::__ndk1::char_traits<char>, std::__ndk1::allocator<char> > const&)>::target_type() const
FUNC 2342c 4 0 std::__ndk1::__function::__func<Tab2::init()::$_14, std::__ndk1::allocator<Tab2::init()::$_14>, void (std::__ndk1::basic_string<char, std::__ndk1::char_traits<char>, std::__ndk1::allocator<char> > const&)>::~__func()
FUNC 23430 20 0 std::__ndk1::__function::__func<Tab2::init()::$_14, std::__ndk1::allocator<Tab2::init()::$_14>, void (std::__ndk1::basic_string<char, std::__ndk1::char_traits<char>, std::__ndk1::allocator<char> > const&)>::__clone() const
FUNC 23450 14 0 std::__ndk1::__function::__func<Tab2::init()::$_14, std::__ndk1::allocator<Tab2::init()::$_14>, void (std::__ndk1::basic_string<char, std::__ndk1::char_traits<char>, std::__ndk1::allocator<char> > const&)>::__clone(std::__ndk1::__function::__base<void (std::__ndk1::basic_string<char, std::__ndk1::char_traits<char>, std::__ndk1::allocator<char> > const&)>*) const
FUNC 23464 2 0 std::__ndk1::__function::__func<Tab2::init()::$_14, std::__ndk1::allocator<Tab2::init()::$_14>, void (std::__ndk1::basic_string<char, std::__ndk1::char_traits<char>, std::__ndk1::allocator<char> > const&)>::destroy()
FUNC 23466 4 0 std::__ndk1::__function::__func<Tab2::init()::$_14, std::__ndk1::allocator<Tab2::init()::$_14>, void (std::__ndk1::basic_string<char, std::__ndk1::char_traits<char>, std::__ndk1::allocator<char> > const&)>::destroy_deallocate()
FUNC 2346c 68 0 std::__ndk1::__function::__func<Tab2::init()::$_14, std::__ndk1::allocator<Tab2::init()::$_14>, void (std::__ndk1::basic_string<char, std::__ndk1::char_traits<char>, std::__ndk1::allocator<char> > const&)>::operator()(std::__ndk1::basic_string<char, std::__ndk1::char_traits<char>, std::__ndk1::allocator<char> > const&)
FUNC 234d4 18 0 std::__ndk1::__function::__func<Tab2::init()::$_14, std::__ndk1::allocator<Tab2::init()::$_14>, void (std::__ndk1::basic_string<char, std::__ndk1::char_traits<char>, std::__ndk1::allocator<char> > const&)>::target(std::type_info const&) const
FUNC 234ec c 0 std::__ndk1::__function::__func<Tab2::init()::$_14, std::__ndk1::allocator<Tab2::init()::$_14>, void (std::__ndk1::basic_string<char, std::__ndk1::char_traits<char>, std::__ndk1::allocator<char> > const&)>::target_type() const
FUNC 234f8 4 0 std::__ndk1::__function::__func<Tab2::init()::$_15, std::__ndk1::allocator<Tab2::init()::$_15>, void (std::__ndk1::basic_string<char, std::__ndk1::char_traits<char>, std::__ndk1::allocator<char> > const&)>::~__func()
FUNC 234fc 20 0 std::__ndk1::__function::__func<Tab2::init()::$_15, std::__ndk1::allocator<Tab2::init()::$_15>, void (std::__ndk1::basic_string<char, std::__ndk1::char_traits<char>, std::__ndk1::allocator<char> > const&)>::__clone() const
FUNC 2351c 14 0 std::__ndk1::__function::__func<Tab2::init()::$_15, std::__ndk1::allocator<Tab2::init()::$_15>, void (std::__ndk1::basic_string<char, std::__ndk1::char_traits<char>, std::__ndk1::allocator<char> > const&)>::__clone(std::__ndk1::__function::__base<void (std::__ndk1::basic_string<char, std::__ndk1::char_traits<char>, std::__ndk1::allocator<char> > const&)>*) const
FUNC 23530 2 0 std::__ndk1::__function::__func<Tab2::init()::$_15, std::__ndk1::allocator<Tab2::init()::$_15>, void (std::__ndk1::basic_string<char, std::__ndk1::char_traits<char>, std::__ndk1::allocator<char> > const&)>::destroy()
FUNC 23532 4 0 std::__ndk1::__function::__func<Tab2::init()::$_15, std::__ndk1::allocator<Tab2::init()::$_15>, void (std::__ndk1::basic_string<char, std::__ndk1::char_traits<char>, std::__ndk1::allocator<char> > const&)>::destroy_deallocate()
FUNC 23538 68 0 std::__ndk1::__function::__func<Tab2::init()::$_15, std::__ndk1::allocator<Tab2::init()::$_15>, void (std::__ndk1::basic_string<char, std::__ndk1::char_traits<char>, std::__ndk1::allocator<char> > const&)>::operator()(std::__ndk1::basic_string<char, std::__ndk1::char_traits<char>, std::__ndk1::allocator<char> > const&)
FUNC 235a0 18 0 std::__ndk1::__function::__func<Tab2::init()::$_15, std::__ndk1::allocator<Tab2::init()::$_15>, void (std::__ndk1::basic_string<char, std::__ndk1::char_traits<char>, std::__ndk1::allocator<char> > const&)>::target(std::type_info const&) const
FUNC 235b8 c 0 std::__ndk1::__function::__func<Tab2::init()::$_15, std::__ndk1::allocator<Tab2::init()::$_15>, void (std::__ndk1::basic_string<char, std::__ndk1::char_traits<char>, std::__ndk1::allocator<char> > const&)>::target_type() const
FUNC 235c4 4 0 std::__ndk1::__function::__func<Tab2::init()::$_16, std::__ndk1::allocator<Tab2::init()::$_16>, void (std::__ndk1::basic_string<char, std::__ndk1::char_traits<char>, std::__ndk1::allocator<char> > const&)>::~__func()
FUNC 235c8 20 0 std::__ndk1::__function::__func<Tab2::init()::$_16, std::__ndk1::allocator<Tab2::init()::$_16>, void (std::__ndk1::basic_string<char, std::__ndk1::char_traits<char>, std::__ndk1::allocator<char> > const&)>::__clone() const
FUNC 235e8 14 0 std::__ndk1::__function::__func<Tab2::init()::$_16, std::__ndk1::allocator<Tab2::init()::$_16>, void (std::__ndk1::basic_string<char, std::__ndk1::char_traits<char>, std::__ndk1::allocator<char> > const&)>::__clone(std::__ndk1::__function::__base<void (std::__ndk1::basic_string<char, std::__ndk1::char_traits<char>, std::__ndk1::allocator<char> > const&)>*) const
FUNC 235fc 2 0 std::__ndk1::__function::__func<Tab2::init()::$_16, std::__ndk1::allocator<Tab2::init()::$_16>, void (std::__ndk1::basic_string<char, std::__ndk1::char_traits<char>, std::__ndk1::allocator<char> > const&)>::destroy()
FUNC 235fe 4 0 std::__ndk1::__function::__func<Tab2::init()::$_16, std::__ndk1::allocator<Tab2::init()::$_16>, void (std::__ndk1::basic_string<char, std::__ndk1::char_traits<char>, std::__ndk1::allocator<char> > const&)>::destroy_deallocate()
FUNC 23604 68 0 std::__ndk1::__function::__func<Tab2::init()::$_16, std::__ndk1::allocator<Tab2::init()::$_16>, void (std::__ndk1::basic_string<char, std::__ndk1::char_traits<char>, std::__ndk1::allocator<char> > const&)>::operator()(std::__ndk1::basic_string<char, std::__ndk1::char_traits<char>, std::__ndk1::allocator<char> > const&)
FUNC 2366c 18 0 std::__ndk1::__function::__func<Tab2::init()::$_16, std::__ndk1::allocator<Tab2::init()::$_16>, void (std::__ndk1::basic_string<char, std::__ndk1::char_traits<char>, std::__ndk1::allocator<char> > const&)>::target(std::type_info const&) const
FUNC 23684 c 0 std::__ndk1::__function::__func<Tab2::init()::$_16, std::__ndk1::allocator<Tab2::init()::$_16>, void (std::__ndk1::basic_string<char, std::__ndk1::char_traits<char>, std::__ndk1::allocator<char> > const&)>::target_type() const
FUNC 23690 4 0 std::__ndk1::__function::__func<Tab2::init()::$_17, std::__ndk1::allocator<Tab2::init()::$_17>, void (std::__ndk1::basic_string<char, std::__ndk1::char_traits<char>, std::__ndk1::allocator<char> > const&)>::~__func()
FUNC 23694 20 0 std::__ndk1::__function::__func<Tab2::init()::$_17, std::__ndk1::allocator<Tab2::init()::$_17>, void (std::__ndk1::basic_string<char, std::__ndk1::char_traits<char>, std::__ndk1::allocator<char> > const&)>::__clone() const
FUNC 236b4 14 0 std::__ndk1::__function::__func<Tab2::init()::$_17, std::__ndk1::allocator<Tab2::init()::$_17>, void (std::__ndk1::basic_string<char, std::__ndk1::char_traits<char>, std::__ndk1::allocator<char> > const&)>::__clone(std::__ndk1::__function::__base<void (std::__ndk1::basic_string<char, std::__ndk1::char_traits<char>, std::__ndk1::allocator<char> > const&)>*) const
FUNC 236c8 2 0 std::__ndk1::__function::__func<Tab2::init()::$_17, std::__ndk1::allocator<Tab2::init()::$_17>, void (std::__ndk1::basic_string<char, std::__ndk1::char_traits<char>, std::__ndk1::allocator<char> > const&)>::destroy()
FUNC 236ca 4 0 std::__ndk1::__function::__func<Tab2::init()::$_17, std::__ndk1::allocator<Tab2::init()::$_17>, void (std::__ndk1::basic_string<char, std::__ndk1::char_traits<char>, std::__ndk1::allocator<char> > const&)>::destroy_deallocate()
FUNC 236d0 68 0 std::__ndk1::__function::__func<Tab2::init()::$_17, std::__ndk1::allocator<Tab2::init()::$_17>, void (std::__ndk1::basic_string<char, std::__ndk1::char_traits<char>, std::__ndk1::allocator<char> > const&)>::operator()(std::__ndk1::basic_string<char, std::__ndk1::char_traits<char>, std::__ndk1::allocator<char> > const&)
FUNC 23738 18 0 std::__ndk1::__function::__func<Tab2::init()::$_17, std::__ndk1::allocator<Tab2::init()::$_17>, void (std::__ndk1::basic_string<char, std::__ndk1::char_traits<char>, std::__ndk1::allocator<char> > const&)>::target(std::type_info const&) const
FUNC 23750 c 0 std::__ndk1::__function::__func<Tab2::init()::$_17, std::__ndk1::allocator<Tab2::init()::$_17>, void (std::__ndk1::basic_string<char, std::__ndk1::char_traits<char>, std::__ndk1::allocator<char> > const&)>::target_type() const
FUNC 2375c 4 0 std::__ndk1::__function::__func<Tab2::init()::$_18, std::__ndk1::allocator<Tab2::init()::$_18>, void (std::__ndk1::basic_string<char, std::__ndk1::char_traits<char>, std::__ndk1::allocator<char> > const&)>::~__func()
FUNC 23760 20 0 std::__ndk1::__function::__func<Tab2::init()::$_18, std::__ndk1::allocator<Tab2::init()::$_18>, void (std::__ndk1::basic_string<char, std::__ndk1::char_traits<char>, std::__ndk1::allocator<char> > const&)>::__clone() const
FUNC 23780 14 0 std::__ndk1::__function::__func<Tab2::init()::$_18, std::__ndk1::allocator<Tab2::init()::$_18>, void (std::__ndk1::basic_string<char, std::__ndk1::char_traits<char>, std::__ndk1::allocator<char> > const&)>::__clone(std::__ndk1::__function::__base<void (std::__ndk1::basic_string<char, std::__ndk1::char_traits<char>, std::__ndk1::allocator<char> > const&)>*) const
FUNC 23794 2 0 std::__ndk1::__function::__func<Tab2::init()::$_18, std::__ndk1::allocator<Tab2::init()::$_18>, void (std::__ndk1::basic_string<char, std::__ndk1::char_traits<char>, std::__ndk1::allocator<char> > const&)>::destroy()
FUNC 23796 4 0 std::__ndk1::__function::__func<Tab2::init()::$_18, std::__ndk1::allocator<Tab2::init()::$_18>, void (std::__ndk1::basic_string<char, std::__ndk1::char_traits<char>, std::__ndk1::allocator<char> > const&)>::destroy_deallocate()
FUNC 2379c 68 0 std::__ndk1::__function::__func<Tab2::init()::$_18, std::__ndk1::allocator<Tab2::init()::$_18>, void (std::__ndk1::basic_string<char, std::__ndk1::char_traits<char>, std::__ndk1::allocator<char> > const&)>::operator()(std::__ndk1::basic_string<char, std::__ndk1::char_traits<char>, std::__ndk1::allocator<char> > const&)
FUNC 23804 18 0 std::__ndk1::__function::__func<Tab2::init()::$_18, std::__ndk1::allocator<Tab2::init()::$_18>, void (std::__ndk1::basic_string<char, std::__ndk1::char_traits<char>, std::__ndk1::allocator<char> > const&)>::target(std::type_info const&) const
FUNC 2381c c 0 std::__ndk1::__function::__func<Tab2::init()::$_18, std::__ndk1::allocator<Tab2::init()::$_18>, void (std::__ndk1::basic_string<char, std::__ndk1::char_traits<char>, std::__ndk1::allocator<char> > const&)>::target_type() const
FUNC 23828 4 0 std::__ndk1::__function::__func<Tab2::init()::$_19, std::__ndk1::allocator<Tab2::init()::$_19>, void (std::__ndk1::basic_string<char, std::__ndk1::char_traits<char>, std::__ndk1::allocator<char> > const&)>::~__func()
FUNC 2382c 20 0 std::__ndk1::__function::__func<Tab2::init()::$_19, std::__ndk1::allocator<Tab2::init()::$_19>, void (std::__ndk1::basic_string<char, std::__ndk1::char_traits<char>, std::__ndk1::allocator<char> > const&)>::__clone() const
FUNC 2384c 14 0 std::__ndk1::__function::__func<Tab2::init()::$_19, std::__ndk1::allocator<Tab2::init()::$_19>, void (std::__ndk1::basic_string<char, std::__ndk1::char_traits<char>, std::__ndk1::allocator<char> > const&)>::__clone(std::__ndk1::__function::__base<void (std::__ndk1::basic_string<char, std::__ndk1::char_traits<char>, std::__ndk1::allocator<char> > const&)>*) const
FUNC 23860 2 0 std::__ndk1::__function::__func<Tab2::init()::$_19, std::__ndk1::allocator<Tab2::init()::$_19>, void (std::__ndk1::basic_string<char, std::__ndk1::char_traits<char>, std::__ndk1::allocator<char> > const&)>::destroy()
FUNC 23862 4 0 std::__ndk1::__function::__func<Tab2::init()::$_19, std::__ndk1::allocator<Tab2::init()::$_19>, void (std::__ndk1::basic_string<char, std::__ndk1::char_traits<char>, std::__ndk1::allocator<char> > const&)>::destroy_deallocate()
FUNC 23868 68 0 std::__ndk1::__function::__func<Tab2::init()::$_19, std::__ndk1::allocator<Tab2::init()::$_19>, void (std::__ndk1::basic_string<char, std::__ndk1::char_traits<char>, std::__ndk1::allocator<char> > const&)>::operator()(std::__ndk1::basic_string<char, std::__ndk1::char_traits<char>, std::__ndk1::allocator<char> > const&)
FUNC 238d0 18 0 std::__ndk1::__function::__func<Tab2::init()::$_19, std::__ndk1::allocator<Tab2::init()::$_19>, void (std::__ndk1::basic_string<char, std::__ndk1::char_traits<char>, std::__ndk1::allocator<char> > const&)>::target(std::type_info const&) const
FUNC 238e8 c 0 std::__ndk1::__function::__func<Tab2::init()::$_19, std::__ndk1::allocator<Tab2::init()::$_19>, void (std::__ndk1::basic_string<char, std::__ndk1::char_traits<char>, std::__ndk1::allocator<char> > const&)>::target_type() const
FUNC 238f4 1f9c 0 Tab3::init()
FUNC 25890 88 0 Tab3::SaveCheckbox(cocos2d::CCObject*)
FUNC 25918 88 0 Tab3::SaveCheckbox2(cocos2d::CCObject*)
FUNC 259a0 88 0 Tab3::SaveCheckbox3(cocos2d::CCObject*)
FUNC 25a28 88 0 Tab3::SaveCheckbox4(cocos2d::CCObject*)
FUNC 25ab0 88 0 Tab3::SaveCheckbox5(cocos2d::CCObject*)
FUNC 25b38 88 0 Tab3::SaveCheckbox6(cocos2d::CCObject*)
FUNC 25bc0 88 0 Tab3::SaveCheckbox7(cocos2d::CCObject*)
FUNC 25c48 88 0 Tab3::SaveCheckbox8(cocos2d::CCObject*)
FUNC 25cd0 88 0 Tab3::SaveCheckbox9(cocos2d::CCObject*)
FUNC 25d58 88 0 Tab3::SaveCheckbox10(cocos2d::CCObject*)
FUNC 25de0 10 0 Tab3::~Tab3()
FUNC 25df0 8 0 {virtual override thunk({offset(-264)}, Tab3::~Tab3())}
FUNC 25df8 14 0 {virtual override thunk({offset(-264)}, Tab3::~Tab3())}
FUNC 25e0c 4 0 std::__ndk1::__function::__func<Tab3::init()::$_0, std::__ndk1::allocator<Tab3::init()::$_0>, void (std::__ndk1::basic_string<char, std::__ndk1::char_traits<char>, std::__ndk1::allocator<char> > const&)>::~__func()
FUNC 25e10 20 0 std::__ndk1::__function::__func<Tab3::init()::$_0, std::__ndk1::allocator<Tab3::init()::$_0>, void (std::__ndk1::basic_string<char, std::__ndk1::char_traits<char>, std::__ndk1::allocator<char> > const&)>::__clone() const
FUNC 25e30 14 0 std::__ndk1::__function::__func<Tab3::init()::$_0, std::__ndk1::allocator<Tab3::init()::$_0>, void (std::__ndk1::basic_string<char, std::__ndk1::char_traits<char>, std::__ndk1::allocator<char> > const&)>::__clone(std::__ndk1::__function::__base<void (std::__ndk1::basic_string<char, std::__ndk1::char_traits<char>, std::__ndk1::allocator<char> > const&)>*) const
FUNC 25e44 2 0 std::__ndk1::__function::__func<Tab3::init()::$_0, std::__ndk1::allocator<Tab3::init()::$_0>, void (std::__ndk1::basic_string<char, std::__ndk1::char_traits<char>, std::__ndk1::allocator<char> > const&)>::destroy()
FUNC 25e46 4 0 std::__ndk1::__function::__func<Tab3::init()::$_0, std::__ndk1::allocator<Tab3::init()::$_0>, void (std::__ndk1::basic_string<char, std::__ndk1::char_traits<char>, std::__ndk1::allocator<char> > const&)>::destroy_deallocate()
FUNC 25e4c 68 0 std::__ndk1::__function::__func<Tab3::init()::$_0, std::__ndk1::allocator<Tab3::init()::$_0>, void (std::__ndk1::basic_string<char, std::__ndk1::char_traits<char>, std::__ndk1::allocator<char> > const&)>::operator()(std::__ndk1::basic_string<char, std::__ndk1::char_traits<char>, std::__ndk1::allocator<char> > const&)
FUNC 25eb4 18 0 std::__ndk1::__function::__func<Tab3::init()::$_0, std::__ndk1::allocator<Tab3::init()::$_0>, void (std::__ndk1::basic_string<char, std::__ndk1::char_traits<char>, std::__ndk1::allocator<char> > const&)>::target(std::type_info const&) const
FUNC 25ecc c 0 std::__ndk1::__function::__func<Tab3::init()::$_0, std::__ndk1::allocator<Tab3::init()::$_0>, void (std::__ndk1::basic_string<char, std::__ndk1::char_traits<char>, std::__ndk1::allocator<char> > const&)>::target_type() const
FUNC 25ed8 4 0 std::__ndk1::__function::__func<Tab3::init()::$_1, std::__ndk1::allocator<Tab3::init()::$_1>, void (std::__ndk1::basic_string<char, std::__ndk1::char_traits<char>, std::__ndk1::allocator<char> > const&)>::~__func()
FUNC 25edc 20 0 std::__ndk1::__function::__func<Tab3::init()::$_1, std::__ndk1::allocator<Tab3::init()::$_1>, void (std::__ndk1::basic_string<char, std::__ndk1::char_traits<char>, std::__ndk1::allocator<char> > const&)>::__clone() const
FUNC 25efc 14 0 std::__ndk1::__function::__func<Tab3::init()::$_1, std::__ndk1::allocator<Tab3::init()::$_1>, void (std::__ndk1::basic_string<char, std::__ndk1::char_traits<char>, std::__ndk1::allocator<char> > const&)>::__clone(std::__ndk1::__function::__base<void (std::__ndk1::basic_string<char, std::__ndk1::char_traits<char>, std::__ndk1::allocator<char> > const&)>*) const
FUNC 25f10 2 0 std::__ndk1::__function::__func<Tab3::init()::$_1, std::__ndk1::allocator<Tab3::init()::$_1>, void (std::__ndk1::basic_string<char, std::__ndk1::char_traits<char>, std::__ndk1::allocator<char> > const&)>::destroy()
FUNC 25f12 4 0 std::__ndk1::__function::__func<Tab3::init()::$_1, std::__ndk1::allocator<Tab3::init()::$_1>, void (std::__ndk1::basic_string<char, std::__ndk1::char_traits<char>, std::__ndk1::allocator<char> > const&)>::destroy_deallocate()
FUNC 25f18 68 0 std::__ndk1::__function::__func<Tab3::init()::$_1, std::__ndk1::allocator<Tab3::init()::$_1>, void (std::__ndk1::basic_string<char, std::__ndk1::char_traits<char>, std::__ndk1::allocator<char> > const&)>::operator()(std::__ndk1::basic_string<char, std::__ndk1::char_traits<char>, std::__ndk1::allocator<char> > const&)
FUNC 25f80 18 0 std::__ndk1::__function::__func<Tab3::init()::$_1, std::__ndk1::allocator<Tab3::init()::$_1>, void (std::__ndk1::basic_string<char, std::__ndk1::char_traits<char>, std::__ndk1::allocator<char> > const&)>::target(std::type_info const&) const
FUNC 25f98 c 0 std::__ndk1::__function::__func<Tab3::init()::$_1, std::__ndk1::allocator<Tab3::init()::$_1>, void (std::__ndk1::basic_string<char, std::__ndk1::char_traits<char>, std::__ndk1::allocator<char> > const&)>::target_type() const
FUNC 25fa4 4 0 std::__ndk1::__function::__func<Tab3::init()::$_2, std::__ndk1::allocator<Tab3::init()::$_2>, void (std::__ndk1::basic_string<char, std::__ndk1::char_traits<char>, std::__ndk1::allocator<char> > const&)>::~__func()
FUNC 25fa8 20 0 std::__ndk1::__function::__func<Tab3::init()::$_2, std::__ndk1::allocator<Tab3::init()::$_2>, void (std::__ndk1::basic_string<char, std::__ndk1::char_traits<char>, std::__ndk1::allocator<char> > const&)>::__clone() const
FUNC 25fc8 14 0 std::__ndk1::__function::__func<Tab3::init()::$_2, std::__ndk1::allocator<Tab3::init()::$_2>, void (std::__ndk1::basic_string<char, std::__ndk1::char_traits<char>, std::__ndk1::allocator<char> > const&)>::__clone(std::__ndk1::__function::__base<void (std::__ndk1::basic_string<char, std::__ndk1::char_traits<char>, std::__ndk1::allocator<char> > const&)>*) const
FUNC 25fdc 2 0 std::__ndk1::__function::__func<Tab3::init()::$_2, std::__ndk1::allocator<Tab3::init()::$_2>, void (std::__ndk1::basic_string<char, std::__ndk1::char_traits<char>, std::__ndk1::allocator<char> > const&)>::destroy()
FUNC 25fde 4 0 std::__ndk1::__function::__func<Tab3::init()::$_2, std::__ndk1::allocator<Tab3::init()::$_2>, void (std::__ndk1::basic_string<char, std::__ndk1::char_traits<char>, std::__ndk1::allocator<char> > const&)>::destroy_deallocate()
FUNC 25fe4 68 0 std::__ndk1::__function::__func<Tab3::init()::$_2, std::__ndk1::allocator<Tab3::init()::$_2>, void (std::__ndk1::basic_string<char, std::__ndk1::char_traits<char>, std::__ndk1::allocator<char> > const&)>::operator()(std::__ndk1::basic_string<char, std::__ndk1::char_traits<char>, std::__ndk1::allocator<char> > const&)
FUNC 2604c 18 0 std::__ndk1::__function::__func<Tab3::init()::$_2, std::__ndk1::allocator<Tab3::init()::$_2>, void (std::__ndk1::basic_string<char, std::__ndk1::char_traits<char>, std::__ndk1::allocator<char> > const&)>::target(std::type_info const&) const
FUNC 26064 c 0 std::__ndk1::__function::__func<Tab3::init()::$_2, std::__ndk1::allocator<Tab3::init()::$_2>, void (std::__ndk1::basic_string<char, std::__ndk1::char_traits<char>, std::__ndk1::allocator<char> > const&)>::target_type() const
FUNC 26070 4 0 std::__ndk1::__function::__func<Tab3::init()::$_3, std::__ndk1::allocator<Tab3::init()::$_3>, void (std::__ndk1::basic_string<char, std::__ndk1::char_traits<char>, std::__ndk1::allocator<char> > const&)>::~__func()
FUNC 26074 20 0 std::__ndk1::__function::__func<Tab3::init()::$_3, std::__ndk1::allocator<Tab3::init()::$_3>, void (std::__ndk1::basic_string<char, std::__ndk1::char_traits<char>, std::__ndk1::allocator<char> > const&)>::__clone() const
FUNC 26094 14 0 std::__ndk1::__function::__func<Tab3::init()::$_3, std::__ndk1::allocator<Tab3::init()::$_3>, void (std::__ndk1::basic_string<char, std::__ndk1::char_traits<char>, std::__ndk1::allocator<char> > const&)>::__clone(std::__ndk1::__function::__base<void (std::__ndk1::basic_string<char, std::__ndk1::char_traits<char>, std::__ndk1::allocator<char> > const&)>*) const
FUNC 260a8 2 0 std::__ndk1::__function::__func<Tab3::init()::$_3, std::__ndk1::allocator<Tab3::init()::$_3>, void (std::__ndk1::basic_string<char, std::__ndk1::char_traits<char>, std::__ndk1::allocator<char> > const&)>::destroy()
FUNC 260aa 4 0 std::__ndk1::__function::__func<Tab3::init()::$_3, std::__ndk1::allocator<Tab3::init()::$_3>, void (std::__ndk1::basic_string<char, std::__ndk1::char_traits<char>, std::__ndk1::allocator<char> > const&)>::destroy_deallocate()
FUNC 260b0 68 0 std::__ndk1::__function::__func<Tab3::init()::$_3, std::__ndk1::allocator<Tab3::init()::$_3>, void (std::__ndk1::basic_string<char, std::__ndk1::char_traits<char>, std::__ndk1::allocator<char> > const&)>::operator()(std::__ndk1::basic_string<char, std::__ndk1::char_traits<char>, std::__ndk1::allocator<char> > const&)
FUNC 26118 18 0 std::__ndk1::__function::__func<Tab3::init()::$_3, std::__ndk1::allocator<Tab3::init()::$_3>, void (std::__ndk1::basic_string<char, std::__ndk1::char_traits<char>, std::__ndk1::allocator<char> > const&)>::target(std::type_info const&) const
FUNC 26130 c 0 std::__ndk1::__function::__func<Tab3::init()::$_3, std::__ndk1::allocator<Tab3::init()::$_3>, void (std::__ndk1::basic_string<char, std::__ndk1::char_traits<char>, std::__ndk1::allocator<char> > const&)>::target_type() const
FUNC 2613c 4 0 std::__ndk1::__function::__func<Tab3::init()::$_4, std::__ndk1::allocator<Tab3::init()::$_4>, void (std::__ndk1::basic_string<char, std::__ndk1::char_traits<char>, std::__ndk1::allocator<char> > const&)>::~__func()
FUNC 26140 20 0 std::__ndk1::__function::__func<Tab3::init()::$_4, std::__ndk1::allocator<Tab3::init()::$_4>, void (std::__ndk1::basic_string<char, std::__ndk1::char_traits<char>, std::__ndk1::allocator<char> > const&)>::__clone() const
FUNC 26160 14 0 std::__ndk1::__function::__func<Tab3::init()::$_4, std::__ndk1::allocator<Tab3::init()::$_4>, void (std::__ndk1::basic_string<char, std::__ndk1::char_traits<char>, std::__ndk1::allocator<char> > const&)>::__clone(std::__ndk1::__function::__base<void (std::__ndk1::basic_string<char, std::__ndk1::char_traits<char>, std::__ndk1::allocator<char> > const&)>*) const
FUNC 26174 2 0 std::__ndk1::__function::__func<Tab3::init()::$_4, std::__ndk1::allocator<Tab3::init()::$_4>, void (std::__ndk1::basic_string<char, std::__ndk1::char_traits<char>, std::__ndk1::allocator<char> > const&)>::destroy()
FUNC 26176 4 0 std::__ndk1::__function::__func<Tab3::init()::$_4, std::__ndk1::allocator<Tab3::init()::$_4>, void (std::__ndk1::basic_string<char, std::__ndk1::char_traits<char>, std::__ndk1::allocator<char> > const&)>::destroy_deallocate()
FUNC 2617c 68 0 std::__ndk1::__function::__func<Tab3::init()::$_4, std::__ndk1::allocator<Tab3::init()::$_4>, void (std::__ndk1::basic_string<char, std::__ndk1::char_traits<char>, std::__ndk1::allocator<char> > const&)>::operator()(std::__ndk1::basic_string<char, std::__ndk1::char_traits<char>, std::__ndk1::allocator<char> > const&)
FUNC 261e4 18 0 std::__ndk1::__function::__func<Tab3::init()::$_4, std::__ndk1::allocator<Tab3::init()::$_4>, void (std::__ndk1::basic_string<char, std::__ndk1::char_traits<char>, std::__ndk1::allocator<char> > const&)>::target(std::type_info const&) const
FUNC 261fc c 0 std::__ndk1::__function::__func<Tab3::init()::$_4, std::__ndk1::allocator<Tab3::init()::$_4>, void (std::__ndk1::basic_string<char, std::__ndk1::char_traits<char>, std::__ndk1::allocator<char> > const&)>::target_type() const
FUNC 26208 4 0 std::__ndk1::__function::__func<Tab3::init()::$_5, std::__ndk1::allocator<Tab3::init()::$_5>, void (std::__ndk1::basic_string<char, std::__ndk1::char_traits<char>, std::__ndk1::allocator<char> > const&)>::~__func()
FUNC 2620c 20 0 std::__ndk1::__function::__func<Tab3::init()::$_5, std::__ndk1::allocator<Tab3::init()::$_5>, void (std::__ndk1::basic_string<char, std::__ndk1::char_traits<char>, std::__ndk1::allocator<char> > const&)>::__clone() const
FUNC 2622c 14 0 std::__ndk1::__function::__func<Tab3::init()::$_5, std::__ndk1::allocator<Tab3::init()::$_5>, void (std::__ndk1::basic_string<char, std::__ndk1::char_traits<char>, std::__ndk1::allocator<char> > const&)>::__clone(std::__ndk1::__function::__base<void (std::__ndk1::basic_string<char, std::__ndk1::char_traits<char>, std::__ndk1::allocator<char> > const&)>*) const
FUNC 26240 2 0 std::__ndk1::__function::__func<Tab3::init()::$_5, std::__ndk1::allocator<Tab3::init()::$_5>, void (std::__ndk1::basic_string<char, std::__ndk1::char_traits<char>, std::__ndk1::allocator<char> > const&)>::destroy()
FUNC 26242 4 0 std::__ndk1::__function::__func<Tab3::init()::$_5, std::__ndk1::allocator<Tab3::init()::$_5>, void (std::__ndk1::basic_string<char, std::__ndk1::char_traits<char>, std::__ndk1::allocator<char> > const&)>::destroy_deallocate()
FUNC 26248 68 0 std::__ndk1::__function::__func<Tab3::init()::$_5, std::__ndk1::allocator<Tab3::init()::$_5>, void (std::__ndk1::basic_string<char, std::__ndk1::char_traits<char>, std::__ndk1::allocator<char> > const&)>::operator()(std::__ndk1::basic_string<char, std::__ndk1::char_traits<char>, std::__ndk1::allocator<char> > const&)
FUNC 262b0 18 0 std::__ndk1::__function::__func<Tab3::init()::$_5, std::__ndk1::allocator<Tab3::init()::$_5>, void (std::__ndk1::basic_string<char, std::__ndk1::char_traits<char>, std::__ndk1::allocator<char> > const&)>::target(std::type_info const&) const
FUNC 262c8 c 0 std::__ndk1::__function::__func<Tab3::init()::$_5, std::__ndk1::allocator<Tab3::init()::$_5>, void (std::__ndk1::basic_string<char, std::__ndk1::char_traits<char>, std::__ndk1::allocator<char> > const&)>::target_type() const
FUNC 262d4 4 0 std::__ndk1::__function::__func<Tab3::init()::$_6, std::__ndk1::allocator<Tab3::init()::$_6>, void (std::__ndk1::basic_string<char, std::__ndk1::char_traits<char>, std::__ndk1::allocator<char> > const&)>::~__func()
FUNC 262d8 20 0 std::__ndk1::__function::__func<Tab3::init()::$_6, std::__ndk1::allocator<Tab3::init()::$_6>, void (std::__ndk1::basic_string<char, std::__ndk1::char_traits<char>, std::__ndk1::allocator<char> > const&)>::__clone() const
FUNC 262f8 14 0 std::__ndk1::__function::__func<Tab3::init()::$_6, std::__ndk1::allocator<Tab3::init()::$_6>, void (std::__ndk1::basic_string<char, std::__ndk1::char_traits<char>, std::__ndk1::allocator<char> > const&)>::__clone(std::__ndk1::__function::__base<void (std::__ndk1::basic_string<char, std::__ndk1::char_traits<char>, std::__ndk1::allocator<char> > const&)>*) const
FUNC 2630c 2 0 std::__ndk1::__function::__func<Tab3::init()::$_6, std::__ndk1::allocator<Tab3::init()::$_6>, void (std::__ndk1::basic_string<char, std::__ndk1::char_traits<char>, std::__ndk1::allocator<char> > const&)>::destroy()
FUNC 2630e 4 0 std::__ndk1::__function::__func<Tab3::init()::$_6, std::__ndk1::allocator<Tab3::init()::$_6>, void (std::__ndk1::basic_string<char, std::__ndk1::char_traits<char>, std::__ndk1::allocator<char> > const&)>::destroy_deallocate()
FUNC 26314 68 0 std::__ndk1::__function::__func<Tab3::init()::$_6, std::__ndk1::allocator<Tab3::init()::$_6>, void (std::__ndk1::basic_string<char, std::__ndk1::char_traits<char>, std::__ndk1::allocator<char> > const&)>::operator()(std::__ndk1::basic_string<char, std::__ndk1::char_traits<char>, std::__ndk1::allocator<char> > const&)
FUNC 2637c 18 0 std::__ndk1::__function::__func<Tab3::init()::$_6, std::__ndk1::allocator<Tab3::init()::$_6>, void (std::__ndk1::basic_string<char, std::__ndk1::char_traits<char>, std::__ndk1::allocator<char> > const&)>::target(std::type_info const&) const
FUNC 26394 c 0 std::__ndk1::__function::__func<Tab3::init()::$_6, std::__ndk1::allocator<Tab3::init()::$_6>, void (std::__ndk1::basic_string<char, std::__ndk1::char_traits<char>, std::__ndk1::allocator<char> > const&)>::target_type() const
FUNC 263a0 4 0 std::__ndk1::__function::__func<Tab3::init()::$_7, std::__ndk1::allocator<Tab3::init()::$_7>, void (std::__ndk1::basic_string<char, std::__ndk1::char_traits<char>, std::__ndk1::allocator<char> > const&)>::~__func()
FUNC 263a4 20 0 std::__ndk1::__function::__func<Tab3::init()::$_7, std::__ndk1::allocator<Tab3::init()::$_7>, void (std::__ndk1::basic_string<char, std::__ndk1::char_traits<char>, std::__ndk1::allocator<char> > const&)>::__clone() const
FUNC 263c4 14 0 std::__ndk1::__function::__func<Tab3::init()::$_7, std::__ndk1::allocator<Tab3::init()::$_7>, void (std::__ndk1::basic_string<char, std::__ndk1::char_traits<char>, std::__ndk1::allocator<char> > const&)>::__clone(std::__ndk1::__function::__base<void (std::__ndk1::basic_string<char, std::__ndk1::char_traits<char>, std::__ndk1::allocator<char> > const&)>*) const
FUNC 263d8 2 0 std::__ndk1::__function::__func<Tab3::init()::$_7, std::__ndk1::allocator<Tab3::init()::$_7>, void (std::__ndk1::basic_string<char, std::__ndk1::char_traits<char>, std::__ndk1::allocator<char> > const&)>::destroy()
FUNC 263da 4 0 std::__ndk1::__function::__func<Tab3::init()::$_7, std::__ndk1::allocator<Tab3::init()::$_7>, void (std::__ndk1::basic_string<char, std::__ndk1::char_traits<char>, std::__ndk1::allocator<char> > const&)>::destroy_deallocate()
FUNC 263e0 68 0 std::__ndk1::__function::__func<Tab3::init()::$_7, std::__ndk1::allocator<Tab3::init()::$_7>, void (std::__ndk1::basic_string<char, std::__ndk1::char_traits<char>, std::__ndk1::allocator<char> > const&)>::operator()(std::__ndk1::basic_string<char, std::__ndk1::char_traits<char>, std::__ndk1::allocator<char> > const&)
FUNC 26448 18 0 std::__ndk1::__function::__func<Tab3::init()::$_7, std::__ndk1::allocator<Tab3::init()::$_7>, void (std::__ndk1::basic_string<char, std::__ndk1::char_traits<char>, std::__ndk1::allocator<char> > const&)>::target(std::type_info const&) const
FUNC 26460 c 0 std::__ndk1::__function::__func<Tab3::init()::$_7, std::__ndk1::allocator<Tab3::init()::$_7>, void (std::__ndk1::basic_string<char, std::__ndk1::char_traits<char>, std::__ndk1::allocator<char> > const&)>::target_type() const
FUNC 2646c 4 0 std::__ndk1::__function::__func<Tab3::init()::$_8, std::__ndk1::allocator<Tab3::init()::$_8>, void (std::__ndk1::basic_string<char, std::__ndk1::char_traits<char>, std::__ndk1::allocator<char> > const&)>::~__func()
FUNC 26470 20 0 std::__ndk1::__function::__func<Tab3::init()::$_8, std::__ndk1::allocator<Tab3::init()::$_8>, void (std::__ndk1::basic_string<char, std::__ndk1::char_traits<char>, std::__ndk1::allocator<char> > const&)>::__clone() const
FUNC 26490 14 0 std::__ndk1::__function::__func<Tab3::init()::$_8, std::__ndk1::allocator<Tab3::init()::$_8>, void (std::__ndk1::basic_string<char, std::__ndk1::char_traits<char>, std::__ndk1::allocator<char> > const&)>::__clone(std::__ndk1::__function::__base<void (std::__ndk1::basic_string<char, std::__ndk1::char_traits<char>, std::__ndk1::allocator<char> > const&)>*) const
FUNC 264a4 2 0 std::__ndk1::__function::__func<Tab3::init()::$_8, std::__ndk1::allocator<Tab3::init()::$_8>, void (std::__ndk1::basic_string<char, std::__ndk1::char_traits<char>, std::__ndk1::allocator<char> > const&)>::destroy()
FUNC 264a6 4 0 std::__ndk1::__function::__func<Tab3::init()::$_8, std::__ndk1::allocator<Tab3::init()::$_8>, void (std::__ndk1::basic_string<char, std::__ndk1::char_traits<char>, std::__ndk1::allocator<char> > const&)>::destroy_deallocate()
FUNC 264ac 68 0 std::__ndk1::__function::__func<Tab3::init()::$_8, std::__ndk1::allocator<Tab3::init()::$_8>, void (std::__ndk1::basic_string<char, std::__ndk1::char_traits<char>, std::__ndk1::allocator<char> > const&)>::operator()(std::__ndk1::basic_string<char, std::__ndk1::char_traits<char>, std::__ndk1::allocator<char> > const&)
FUNC 26514 18 0 std::__ndk1::__function::__func<Tab3::init()::$_8, std::__ndk1::allocator<Tab3::init()::$_8>, void (std::__ndk1::basic_string<char, std::__ndk1::char_traits<char>, std::__ndk1::allocator<char> > const&)>::target(std::type_info const&) const
FUNC 2652c c 0 std::__ndk1::__function::__func<Tab3::init()::$_8, std::__ndk1::allocator<Tab3::init()::$_8>, void (std::__ndk1::basic_string<char, std::__ndk1::char_traits<char>, std::__ndk1::allocator<char> > const&)>::target_type() const
FUNC 26538 4 0 std::__ndk1::__function::__func<Tab3::init()::$_9, std::__ndk1::allocator<Tab3::init()::$_9>, void (std::__ndk1::basic_string<char, std::__ndk1::char_traits<char>, std::__ndk1::allocator<char> > const&)>::~__func()
FUNC 2653c 20 0 std::__ndk1::__function::__func<Tab3::init()::$_9, std::__ndk1::allocator<Tab3::init()::$_9>, void (std::__ndk1::basic_string<char, std::__ndk1::char_traits<char>, std::__ndk1::allocator<char> > const&)>::__clone() const
FUNC 2655c 14 0 std::__ndk1::__function::__func<Tab3::init()::$_9, std::__ndk1::allocator<Tab3::init()::$_9>, void (std::__ndk1::basic_string<char, std::__ndk1::char_traits<char>, std::__ndk1::allocator<char> > const&)>::__clone(std::__ndk1::__function::__base<void (std::__ndk1::basic_string<char, std::__ndk1::char_traits<char>, std::__ndk1::allocator<char> > const&)>*) const
FUNC 26570 2 0 std::__ndk1::__function::__func<Tab3::init()::$_9, std::__ndk1::allocator<Tab3::init()::$_9>, void (std::__ndk1::basic_string<char, std::__ndk1::char_traits<char>, std::__ndk1::allocator<char> > const&)>::destroy()
FUNC 26572 4 0 std::__ndk1::__function::__func<Tab3::init()::$_9, std::__ndk1::allocator<Tab3::init()::$_9>, void (std::__ndk1::basic_string<char, std::__ndk1::char_traits<char>, std::__ndk1::allocator<char> > const&)>::destroy_deallocate()
FUNC 26578 68 0 std::__ndk1::__function::__func<Tab3::init()::$_9, std::__ndk1::allocator<Tab3::init()::$_9>, void (std::__ndk1::basic_string<char, std::__ndk1::char_traits<char>, std::__ndk1::allocator<char> > const&)>::operator()(std::__ndk1::basic_string<char, std::__ndk1::char_traits<char>, std::__ndk1::allocator<char> > const&)
FUNC 265e0 18 0 std::__ndk1::__function::__func<Tab3::init()::$_9, std::__ndk1::allocator<Tab3::init()::$_9>, void (std::__ndk1::basic_string<char, std::__ndk1::char_traits<char>, std::__ndk1::allocator<char> > const&)>::target(std::type_info const&) const
FUNC 265f8 c 0 std::__ndk1::__function::__func<Tab3::init()::$_9, std::__ndk1::allocator<Tab3::init()::$_9>, void (std::__ndk1::basic_string<char, std::__ndk1::char_traits<char>, std::__ndk1::allocator<char> > const&)>::target_type() const
FUNC 26604 4 0 std::__ndk1::__function::__func<Tab3::init()::$_10, std::__ndk1::allocator<Tab3::init()::$_10>, void (std::__ndk1::basic_string<char, std::__ndk1::char_traits<char>, std::__ndk1::allocator<char> > const&)>::~__func()
FUNC 26608 20 0 std::__ndk1::__function::__func<Tab3::init()::$_10, std::__ndk1::allocator<Tab3::init()::$_10>, void (std::__ndk1::basic_string<char, std::__ndk1::char_traits<char>, std::__ndk1::allocator<char> > const&)>::__clone() const
FUNC 26628 14 0 std::__ndk1::__function::__func<Tab3::init()::$_10, std::__ndk1::allocator<Tab3::init()::$_10>, void (std::__ndk1::basic_string<char, std::__ndk1::char_traits<char>, std::__ndk1::allocator<char> > const&)>::__clone(std::__ndk1::__function::__base<void (std::__ndk1::basic_string<char, std::__ndk1::char_traits<char>, std::__ndk1::allocator<char> > const&)>*) const
FUNC 2663c 2 0 std::__ndk1::__function::__func<Tab3::init()::$_10, std::__ndk1::allocator<Tab3::init()::$_10>, void (std::__ndk1::basic_string<char, std::__ndk1::char_traits<char>, std::__ndk1::allocator<char> > const&)>::destroy()
FUNC 2663e 4 0 std::__ndk1::__function::__func<Tab3::init()::$_10, std::__ndk1::allocator<Tab3::init()::$_10>, void (std::__ndk1::basic_string<char, std::__ndk1::char_traits<char>, std::__ndk1::allocator<char> > const&)>::destroy_deallocate()
FUNC 26644 68 0 std::__ndk1::__function::__func<Tab3::init()::$_10, std::__ndk1::allocator<Tab3::init()::$_10>, void (std::__ndk1::basic_string<char, std::__ndk1::char_traits<char>, std::__ndk1::allocator<char> > const&)>::operator()(std::__ndk1::basic_string<char, std::__ndk1::char_traits<char>, std::__ndk1::allocator<char> > const&)
FUNC 266ac 18 0 std::__ndk1::__function::__func<Tab3::init()::$_10, std::__ndk1::allocator<Tab3::init()::$_10>, void (std::__ndk1::basic_string<char, std::__ndk1::char_traits<char>, std::__ndk1::allocator<char> > const&)>::target(std::type_info const&) const
FUNC 266c4 c 0 std::__ndk1::__function::__func<Tab3::init()::$_10, std::__ndk1::allocator<Tab3::init()::$_10>, void (std::__ndk1::basic_string<char, std::__ndk1::char_traits<char>, std::__ndk1::allocator<char> > const&)>::target_type() const
FUNC 266d0 4 0 std::__ndk1::__function::__func<Tab3::init()::$_11, std::__ndk1::allocator<Tab3::init()::$_11>, void (std::__ndk1::basic_string<char, std::__ndk1::char_traits<char>, std::__ndk1::allocator<char> > const&)>::~__func()
FUNC 266d4 20 0 std::__ndk1::__function::__func<Tab3::init()::$_11, std::__ndk1::allocator<Tab3::init()::$_11>, void (std::__ndk1::basic_string<char, std::__ndk1::char_traits<char>, std::__ndk1::allocator<char> > const&)>::__clone() const
FUNC 266f4 14 0 std::__ndk1::__function::__func<Tab3::init()::$_11, std::__ndk1::allocator<Tab3::init()::$_11>, void (std::__ndk1::basic_string<char, std::__ndk1::char_traits<char>, std::__ndk1::allocator<char> > const&)>::__clone(std::__ndk1::__function::__base<void (std::__ndk1::basic_string<char, std::__ndk1::char_traits<char>, std::__ndk1::allocator<char> > const&)>*) const
FUNC 26708 2 0 std::__ndk1::__function::__func<Tab3::init()::$_11, std::__ndk1::allocator<Tab3::init()::$_11>, void (std::__ndk1::basic_string<char, std::__ndk1::char_traits<char>, std::__ndk1::allocator<char> > const&)>::destroy()
FUNC 2670a 4 0 std::__ndk1::__function::__func<Tab3::init()::$_11, std::__ndk1::allocator<Tab3::init()::$_11>, void (std::__ndk1::basic_string<char, std::__ndk1::char_traits<char>, std::__ndk1::allocator<char> > const&)>::destroy_deallocate()
FUNC 26710 68 0 std::__ndk1::__function::__func<Tab3::init()::$_11, std::__ndk1::allocator<Tab3::init()::$_11>, void (std::__ndk1::basic_string<char, std::__ndk1::char_traits<char>, std::__ndk1::allocator<char> > const&)>::operator()(std::__ndk1::basic_string<char, std::__ndk1::char_traits<char>, std::__ndk1::allocator<char> > const&)
FUNC 26778 18 0 std::__ndk1::__function::__func<Tab3::init()::$_11, std::__ndk1::allocator<Tab3::init()::$_11>, void (std::__ndk1::basic_string<char, std::__ndk1::char_traits<char>, std::__ndk1::allocator<char> > const&)>::target(std::type_info const&) const
FUNC 26790 c 0 std::__ndk1::__function::__func<Tab3::init()::$_11, std::__ndk1::allocator<Tab3::init()::$_11>, void (std::__ndk1::basic_string<char, std::__ndk1::char_traits<char>, std::__ndk1::allocator<char> > const&)>::target_type() const
FUNC 2679c 4 0 std::__ndk1::__function::__func<Tab3::init()::$_12, std::__ndk1::allocator<Tab3::init()::$_12>, void (std::__ndk1::basic_string<char, std::__ndk1::char_traits<char>, std::__ndk1::allocator<char> > const&)>::~__func()
FUNC 267a0 20 0 std::__ndk1::__function::__func<Tab3::init()::$_12, std::__ndk1::allocator<Tab3::init()::$_12>, void (std::__ndk1::basic_string<char, std::__ndk1::char_traits<char>, std::__ndk1::allocator<char> > const&)>::__clone() const
FUNC 267c0 14 0 std::__ndk1::__function::__func<Tab3::init()::$_12, std::__ndk1::allocator<Tab3::init()::$_12>, void (std::__ndk1::basic_string<char, std::__ndk1::char_traits<char>, std::__ndk1::allocator<char> > const&)>::__clone(std::__ndk1::__function::__base<void (std::__ndk1::basic_string<char, std::__ndk1::char_traits<char>, std::__ndk1::allocator<char> > const&)>*) const
FUNC 267d4 2 0 std::__ndk1::__function::__func<Tab3::init()::$_12, std::__ndk1::allocator<Tab3::init()::$_12>, void (std::__ndk1::basic_string<char, std::__ndk1::char_traits<char>, std::__ndk1::allocator<char> > const&)>::destroy()
FUNC 267d6 4 0 std::__ndk1::__function::__func<Tab3::init()::$_12, std::__ndk1::allocator<Tab3::init()::$_12>, void (std::__ndk1::basic_string<char, std::__ndk1::char_traits<char>, std::__ndk1::allocator<char> > const&)>::destroy_deallocate()
FUNC 267dc 68 0 std::__ndk1::__function::__func<Tab3::init()::$_12, std::__ndk1::allocator<Tab3::init()::$_12>, void (std::__ndk1::basic_string<char, std::__ndk1::char_traits<char>, std::__ndk1::allocator<char> > const&)>::operator()(std::__ndk1::basic_string<char, std::__ndk1::char_traits<char>, std::__ndk1::allocator<char> > const&)
FUNC 26844 18 0 std::__ndk1::__function::__func<Tab3::init()::$_12, std::__ndk1::allocator<Tab3::init()::$_12>, void (std::__ndk1::basic_string<char, std::__ndk1::char_traits<char>, std::__ndk1::allocator<char> > const&)>::target(std::type_info const&) const
FUNC 2685c c 0 std::__ndk1::__function::__func<Tab3::init()::$_12, std::__ndk1::allocator<Tab3::init()::$_12>, void (std::__ndk1::basic_string<char, std::__ndk1::char_traits<char>, std::__ndk1::allocator<char> > const&)>::target_type() const
FUNC 26868 4 0 std::__ndk1::__function::__func<Tab3::init()::$_13, std::__ndk1::allocator<Tab3::init()::$_13>, void (std::__ndk1::basic_string<char, std::__ndk1::char_traits<char>, std::__ndk1::allocator<char> > const&)>::~__func()
FUNC 2686c 20 0 std::__ndk1::__function::__func<Tab3::init()::$_13, std::__ndk1::allocator<Tab3::init()::$_13>, void (std::__ndk1::basic_string<char, std::__ndk1::char_traits<char>, std::__ndk1::allocator<char> > const&)>::__clone() const
FUNC 2688c 14 0 std::__ndk1::__function::__func<Tab3::init()::$_13, std::__ndk1::allocator<Tab3::init()::$_13>, void (std::__ndk1::basic_string<char, std::__ndk1::char_traits<char>, std::__ndk1::allocator<char> > const&)>::__clone(std::__ndk1::__function::__base<void (std::__ndk1::basic_string<char, std::__ndk1::char_traits<char>, std::__ndk1::allocator<char> > const&)>*) const
FUNC 268a0 2 0 std::__ndk1::__function::__func<Tab3::init()::$_13, std::__ndk1::allocator<Tab3::init()::$_13>, void (std::__ndk1::basic_string<char, std::__ndk1::char_traits<char>, std::__ndk1::allocator<char> > const&)>::destroy()
FUNC 268a2 4 0 std::__ndk1::__function::__func<Tab3::init()::$_13, std::__ndk1::allocator<Tab3::init()::$_13>, void (std::__ndk1::basic_string<char, std::__ndk1::char_traits<char>, std::__ndk1::allocator<char> > const&)>::destroy_deallocate()
FUNC 268a8 68 0 std::__ndk1::__function::__func<Tab3::init()::$_13, std::__ndk1::allocator<Tab3::init()::$_13>, void (std::__ndk1::basic_string<char, std::__ndk1::char_traits<char>, std::__ndk1::allocator<char> > const&)>::operator()(std::__ndk1::basic_string<char, std::__ndk1::char_traits<char>, std::__ndk1::allocator<char> > const&)
FUNC 26910 18 0 std::__ndk1::__function::__func<Tab3::init()::$_13, std::__ndk1::allocator<Tab3::init()::$_13>, void (std::__ndk1::basic_string<char, std::__ndk1::char_traits<char>, std::__ndk1::allocator<char> > const&)>::target(std::type_info const&) const
FUNC 26928 c 0 std::__ndk1::__function::__func<Tab3::init()::$_13, std::__ndk1::allocator<Tab3::init()::$_13>, void (std::__ndk1::basic_string<char, std::__ndk1::char_traits<char>, std::__ndk1::allocator<char> > const&)>::target_type() const
FUNC 26934 4 0 std::__ndk1::__function::__func<Tab3::init()::$_14, std::__ndk1::allocator<Tab3::init()::$_14>, void (std::__ndk1::basic_string<char, std::__ndk1::char_traits<char>, std::__ndk1::allocator<char> > const&)>::~__func()
FUNC 26938 20 0 std::__ndk1::__function::__func<Tab3::init()::$_14, std::__ndk1::allocator<Tab3::init()::$_14>, void (std::__ndk1::basic_string<char, std::__ndk1::char_traits<char>, std::__ndk1::allocator<char> > const&)>::__clone() const
FUNC 26958 14 0 std::__ndk1::__function::__func<Tab3::init()::$_14, std::__ndk1::allocator<Tab3::init()::$_14>, void (std::__ndk1::basic_string<char, std::__ndk1::char_traits<char>, std::__ndk1::allocator<char> > const&)>::__clone(std::__ndk1::__function::__base<void (std::__ndk1::basic_string<char, std::__ndk1::char_traits<char>, std::__ndk1::allocator<char> > const&)>*) const
FUNC 2696c 2 0 std::__ndk1::__function::__func<Tab3::init()::$_14, std::__ndk1::allocator<Tab3::init()::$_14>, void (std::__ndk1::basic_string<char, std::__ndk1::char_traits<char>, std::__ndk1::allocator<char> > const&)>::destroy()
FUNC 2696e 4 0 std::__ndk1::__function::__func<Tab3::init()::$_14, std::__ndk1::allocator<Tab3::init()::$_14>, void (std::__ndk1::basic_string<char, std::__ndk1::char_traits<char>, std::__ndk1::allocator<char> > const&)>::destroy_deallocate()
FUNC 26974 68 0 std::__ndk1::__function::__func<Tab3::init()::$_14, std::__ndk1::allocator<Tab3::init()::$_14>, void (std::__ndk1::basic_string<char, std::__ndk1::char_traits<char>, std::__ndk1::allocator<char> > const&)>::operator()(std::__ndk1::basic_string<char, std::__ndk1::char_traits<char>, std::__ndk1::allocator<char> > const&)
FUNC 269dc 18 0 std::__ndk1::__function::__func<Tab3::init()::$_14, std::__ndk1::allocator<Tab3::init()::$_14>, void (std::__ndk1::basic_string<char, std::__ndk1::char_traits<char>, std::__ndk1::allocator<char> > const&)>::target(std::type_info const&) const
FUNC 269f4 c 0 std::__ndk1::__function::__func<Tab3::init()::$_14, std::__ndk1::allocator<Tab3::init()::$_14>, void (std::__ndk1::basic_string<char, std::__ndk1::char_traits<char>, std::__ndk1::allocator<char> > const&)>::target_type() const
FUNC 26a00 4 0 std::__ndk1::__function::__func<Tab3::init()::$_15, std::__ndk1::allocator<Tab3::init()::$_15>, void (std::__ndk1::basic_string<char, std::__ndk1::char_traits<char>, std::__ndk1::allocator<char> > const&)>::~__func()
FUNC 26a04 20 0 std::__ndk1::__function::__func<Tab3::init()::$_15, std::__ndk1::allocator<Tab3::init()::$_15>, void (std::__ndk1::basic_string<char, std::__ndk1::char_traits<char>, std::__ndk1::allocator<char> > const&)>::__clone() const
FUNC 26a24 14 0 std::__ndk1::__function::__func<Tab3::init()::$_15, std::__ndk1::allocator<Tab3::init()::$_15>, void (std::__ndk1::basic_string<char, std::__ndk1::char_traits<char>, std::__ndk1::allocator<char> > const&)>::__clone(std::__ndk1::__function::__base<void (std::__ndk1::basic_string<char, std::__ndk1::char_traits<char>, std::__ndk1::allocator<char> > const&)>*) const
FUNC 26a38 2 0 std::__ndk1::__function::__func<Tab3::init()::$_15, std::__ndk1::allocator<Tab3::init()::$_15>, void (std::__ndk1::basic_string<char, std::__ndk1::char_traits<char>, std::__ndk1::allocator<char> > const&)>::destroy()
FUNC 26a3a 4 0 std::__ndk1::__function::__func<Tab3::init()::$_15, std::__ndk1::allocator<Tab3::init()::$_15>, void (std::__ndk1::basic_string<char, std::__ndk1::char_traits<char>, std::__ndk1::allocator<char> > const&)>::destroy_deallocate()
FUNC 26a40 68 0 std::__ndk1::__function::__func<Tab3::init()::$_15, std::__ndk1::allocator<Tab3::init()::$_15>, void (std::__ndk1::basic_string<char, std::__ndk1::char_traits<char>, std::__ndk1::allocator<char> > const&)>::operator()(std::__ndk1::basic_string<char, std::__ndk1::char_traits<char>, std::__ndk1::allocator<char> > const&)
FUNC 26aa8 18 0 std::__ndk1::__function::__func<Tab3::init()::$_15, std::__ndk1::allocator<Tab3::init()::$_15>, void (std::__ndk1::basic_string<char, std::__ndk1::char_traits<char>, std::__ndk1::allocator<char> > const&)>::target(std::type_info const&) const
FUNC 26ac0 c 0 std::__ndk1::__function::__func<Tab3::init()::$_15, std::__ndk1::allocator<Tab3::init()::$_15>, void (std::__ndk1::basic_string<char, std::__ndk1::char_traits<char>, std::__ndk1::allocator<char> > const&)>::target_type() const
FUNC 26acc 4 0 std::__ndk1::__function::__func<Tab3::init()::$_16, std::__ndk1::allocator<Tab3::init()::$_16>, void (std::__ndk1::basic_string<char, std::__ndk1::char_traits<char>, std::__ndk1::allocator<char> > const&)>::~__func()
FUNC 26ad0 20 0 std::__ndk1::__function::__func<Tab3::init()::$_16, std::__ndk1::allocator<Tab3::init()::$_16>, void (std::__ndk1::basic_string<char, std::__ndk1::char_traits<char>, std::__ndk1::allocator<char> > const&)>::__clone() const
FUNC 26af0 14 0 std::__ndk1::__function::__func<Tab3::init()::$_16, std::__ndk1::allocator<Tab3::init()::$_16>, void (std::__ndk1::basic_string<char, std::__ndk1::char_traits<char>, std::__ndk1::allocator<char> > const&)>::__clone(std::__ndk1::__function::__base<void (std::__ndk1::basic_string<char, std::__ndk1::char_traits<char>, std::__ndk1::allocator<char> > const&)>*) const
FUNC 26b04 2 0 std::__ndk1::__function::__func<Tab3::init()::$_16, std::__ndk1::allocator<Tab3::init()::$_16>, void (std::__ndk1::basic_string<char, std::__ndk1::char_traits<char>, std::__ndk1::allocator<char> > const&)>::destroy()
FUNC 26b06 4 0 std::__ndk1::__function::__func<Tab3::init()::$_16, std::__ndk1::allocator<Tab3::init()::$_16>, void (std::__ndk1::basic_string<char, std::__ndk1::char_traits<char>, std::__ndk1::allocator<char> > const&)>::destroy_deallocate()
FUNC 26b0c 68 0 std::__ndk1::__function::__func<Tab3::init()::$_16, std::__ndk1::allocator<Tab3::init()::$_16>, void (std::__ndk1::basic_string<char, std::__ndk1::char_traits<char>, std::__ndk1::allocator<char> > const&)>::operator()(std::__ndk1::basic_string<char, std::__ndk1::char_traits<char>, std::__ndk1::allocator<char> > const&)
FUNC 26b74 18 0 std::__ndk1::__function::__func<Tab3::init()::$_16, std::__ndk1::allocator<Tab3::init()::$_16>, void (std::__ndk1::basic_string<char, std::__ndk1::char_traits<char>, std::__ndk1::allocator<char> > const&)>::target(std::type_info const&) const
FUNC 26b8c c 0 std::__ndk1::__function::__func<Tab3::init()::$_16, std::__ndk1::allocator<Tab3::init()::$_16>, void (std::__ndk1::basic_string<char, std::__ndk1::char_traits<char>, std::__ndk1::allocator<char> > const&)>::target_type() const
FUNC 26b98 4 0 std::__ndk1::__function::__func<Tab3::init()::$_17, std::__ndk1::allocator<Tab3::init()::$_17>, void (std::__ndk1::basic_string<char, std::__ndk1::char_traits<char>, std::__ndk1::allocator<char> > const&)>::~__func()
FUNC 26b9c 20 0 std::__ndk1::__function::__func<Tab3::init()::$_17, std::__ndk1::allocator<Tab3::init()::$_17>, void (std::__ndk1::basic_string<char, std::__ndk1::char_traits<char>, std::__ndk1::allocator<char> > const&)>::__clone() const
FUNC 26bbc 14 0 std::__ndk1::__function::__func<Tab3::init()::$_17, std::__ndk1::allocator<Tab3::init()::$_17>, void (std::__ndk1::basic_string<char, std::__ndk1::char_traits<char>, std::__ndk1::allocator<char> > const&)>::__clone(std::__ndk1::__function::__base<void (std::__ndk1::basic_string<char, std::__ndk1::char_traits<char>, std::__ndk1::allocator<char> > const&)>*) const
FUNC 26bd0 2 0 std::__ndk1::__function::__func<Tab3::init()::$_17, std::__ndk1::allocator<Tab3::init()::$_17>, void (std::__ndk1::basic_string<char, std::__ndk1::char_traits<char>, std::__ndk1::allocator<char> > const&)>::destroy()
FUNC 26bd2 4 0 std::__ndk1::__function::__func<Tab3::init()::$_17, std::__ndk1::allocator<Tab3::init()::$_17>, void (std::__ndk1::basic_string<char, std::__ndk1::char_traits<char>, std::__ndk1::allocator<char> > const&)>::destroy_deallocate()
FUNC 26bd8 68 0 std::__ndk1::__function::__func<Tab3::init()::$_17, std::__ndk1::allocator<Tab3::init()::$_17>, void (std::__ndk1::basic_string<char, std::__ndk1::char_traits<char>, std::__ndk1::allocator<char> > const&)>::operator()(std::__ndk1::basic_string<char, std::__ndk1::char_traits<char>, std::__ndk1::allocator<char> > const&)
FUNC 26c40 18 0 std::__ndk1::__function::__func<Tab3::init()::$_17, std::__ndk1::allocator<Tab3::init()::$_17>, void (std::__ndk1::basic_string<char, std::__ndk1::char_traits<char>, std::__ndk1::allocator<char> > const&)>::target(std::type_info const&) const
FUNC 26c58 c 0 std::__ndk1::__function::__func<Tab3::init()::$_17, std::__ndk1::allocator<Tab3::init()::$_17>, void (std::__ndk1::basic_string<char, std::__ndk1::char_traits<char>, std::__ndk1::allocator<char> > const&)>::target_type() const
FUNC 26c64 4 0 std::__ndk1::__function::__func<Tab3::init()::$_18, std::__ndk1::allocator<Tab3::init()::$_18>, void (std::__ndk1::basic_string<char, std::__ndk1::char_traits<char>, std::__ndk1::allocator<char> > const&)>::~__func()
FUNC 26c68 20 0 std::__ndk1::__function::__func<Tab3::init()::$_18, std::__ndk1::allocator<Tab3::init()::$_18>, void (std::__ndk1::basic_string<char, std::__ndk1::char_traits<char>, std::__ndk1::allocator<char> > const&)>::__clone() const
FUNC 26c88 14 0 std::__ndk1::__function::__func<Tab3::init()::$_18, std::__ndk1::allocator<Tab3::init()::$_18>, void (std::__ndk1::basic_string<char, std::__ndk1::char_traits<char>, std::__ndk1::allocator<char> > const&)>::__clone(std::__ndk1::__function::__base<void (std::__ndk1::basic_string<char, std::__ndk1::char_traits<char>, std::__ndk1::allocator<char> > const&)>*) const
FUNC 26c9c 2 0 std::__ndk1::__function::__func<Tab3::init()::$_18, std::__ndk1::allocator<Tab3::init()::$_18>, void (std::__ndk1::basic_string<char, std::__ndk1::char_traits<char>, std::__ndk1::allocator<char> > const&)>::destroy()
FUNC 26c9e 4 0 std::__ndk1::__function::__func<Tab3::init()::$_18, std::__ndk1::allocator<Tab3::init()::$_18>, void (std::__ndk1::basic_string<char, std::__ndk1::char_traits<char>, std::__ndk1::allocator<char> > const&)>::destroy_deallocate()
FUNC 26ca4 68 0 std::__ndk1::__function::__func<Tab3::init()::$_18, std::__ndk1::allocator<Tab3::init()::$_18>, void (std::__ndk1::basic_string<char, std::__ndk1::char_traits<char>, std::__ndk1::allocator<char> > const&)>::operator()(std::__ndk1::basic_string<char, std::__ndk1::char_traits<char>, std::__ndk1::allocator<char> > const&)
FUNC 26d0c 18 0 std::__ndk1::__function::__func<Tab3::init()::$_18, std::__ndk1::allocator<Tab3::init()::$_18>, void (std::__ndk1::basic_string<char, std::__ndk1::char_traits<char>, std::__ndk1::allocator<char> > const&)>::target(std::type_info const&) const
FUNC 26d24 c 0 std::__ndk1::__function::__func<Tab3::init()::$_18, std::__ndk1::allocator<Tab3::init()::$_18>, void (std::__ndk1::basic_string<char, std::__ndk1::char_traits<char>, std::__ndk1::allocator<char> > const&)>::target_type() const
FUNC 26d30 4 0 std::__ndk1::__function::__func<Tab3::init()::$_19, std::__ndk1::allocator<Tab3::init()::$_19>, void (std::__ndk1::basic_string<char, std::__ndk1::char_traits<char>, std::__ndk1::allocator<char> > const&)>::~__func()
FUNC 26d34 20 0 std::__ndk1::__function::__func<Tab3::init()::$_19, std::__ndk1::allocator<Tab3::init()::$_19>, void (std::__ndk1::basic_string<char, std::__ndk1::char_traits<char>, std::__ndk1::allocator<char> > const&)>::__clone() const
FUNC 26d54 14 0 std::__ndk1::__function::__func<Tab3::init()::$_19, std::__ndk1::allocator<Tab3::init()::$_19>, void (std::__ndk1::basic_string<char, std::__ndk1::char_traits<char>, std::__ndk1::allocator<char> > const&)>::__clone(std::__ndk1::__function::__base<void (std::__ndk1::basic_string<char, std::__ndk1::char_traits<char>, std::__ndk1::allocator<char> > const&)>*) const
FUNC 26d68 2 0 std::__ndk1::__function::__func<Tab3::init()::$_19, std::__ndk1::allocator<Tab3::init()::$_19>, void (std::__ndk1::basic_string<char, std::__ndk1::char_traits<char>, std::__ndk1::allocator<char> > const&)>::destroy()
FUNC 26d6a 4 0 std::__ndk1::__function::__func<Tab3::init()::$_19, std::__ndk1::allocator<Tab3::init()::$_19>, void (std::__ndk1::basic_string<char, std::__ndk1::char_traits<char>, std::__ndk1::allocator<char> > const&)>::destroy_deallocate()
FUNC 26d70 68 0 std::__ndk1::__function::__func<Tab3::init()::$_19, std::__ndk1::allocator<Tab3::init()::$_19>, void (std::__ndk1::basic_string<char, std::__ndk1::char_traits<char>, std::__ndk1::allocator<char> > const&)>::operator()(std::__ndk1::basic_string<char, std::__ndk1::char_traits<char>, std::__ndk1::allocator<char> > const&)
FUNC 26dd8 18 0 std::__ndk1::__function::__func<Tab3::init()::$_19, std::__ndk1::allocator<Tab3::init()::$_19>, void (std::__ndk1::basic_string<char, std::__ndk1::char_traits<char>, std::__ndk1::allocator<char> > const&)>::target(std::type_info const&) const
FUNC 26df0 c 0 std::__ndk1::__function::__func<Tab3::init()::$_19, std::__ndk1::allocator<Tab3::init()::$_19>, void (std::__ndk1::basic_string<char, std::__ndk1::char_traits<char>, std::__ndk1::allocator<char> > const&)>::target_type() const
FUNC 26dfc 1f9c 0 Tab4::init()
FUNC 28d98 88 0 Tab4::SaveCheckbox(cocos2d::CCObject*)
FUNC 28e20 88 0 Tab4::SaveCheckbox2(cocos2d::CCObject*)
FUNC 28ea8 88 0 Tab4::SaveCheckbox3(cocos2d::CCObject*)
FUNC 28f30 88 0 Tab4::SaveCheckbox4(cocos2d::CCObject*)
FUNC 28fb8 88 0 Tab4::SaveCheckbox5(cocos2d::CCObject*)
FUNC 29040 88 0 Tab4::SaveCheckbox6(cocos2d::CCObject*)
FUNC 290c8 88 0 Tab4::SaveCheckbox7(cocos2d::CCObject*)
FUNC 29150 88 0 Tab4::SaveCheckbox8(cocos2d::CCObject*)
FUNC 291d8 88 0 Tab4::SaveCheckbox9(cocos2d::CCObject*)
FUNC 29260 88 0 Tab4::SaveCheckbox10(cocos2d::CCObject*)
FUNC 292e8 10 0 Tab4::~Tab4()
FUNC 292f8 8 0 {virtual override thunk({offset(-264)}, Tab4::~Tab4())}
FUNC 29300 14 0 {virtual override thunk({offset(-264)}, Tab4::~Tab4())}
FUNC 29314 4 0 std::__ndk1::__function::__func<Tab4::init()::$_0, std::__ndk1::allocator<Tab4::init()::$_0>, void (std::__ndk1::basic_string<char, std::__ndk1::char_traits<char>, std::__ndk1::allocator<char> > const&)>::~__func()
FUNC 29318 20 0 std::__ndk1::__function::__func<Tab4::init()::$_0, std::__ndk1::allocator<Tab4::init()::$_0>, void (std::__ndk1::basic_string<char, std::__ndk1::char_traits<char>, std::__ndk1::allocator<char> > const&)>::__clone() const
FUNC 29338 14 0 std::__ndk1::__function::__func<Tab4::init()::$_0, std::__ndk1::allocator<Tab4::init()::$_0>, void (std::__ndk1::basic_string<char, std::__ndk1::char_traits<char>, std::__ndk1::allocator<char> > const&)>::__clone(std::__ndk1::__function::__base<void (std::__ndk1::basic_string<char, std::__ndk1::char_traits<char>, std::__ndk1::allocator<char> > const&)>*) const
FUNC 2934c 2 0 std::__ndk1::__function::__func<Tab4::init()::$_0, std::__ndk1::allocator<Tab4::init()::$_0>, void (std::__ndk1::basic_string<char, std::__ndk1::char_traits<char>, std::__ndk1::allocator<char> > const&)>::destroy()
FUNC 2934e 4 0 std::__ndk1::__function::__func<Tab4::init()::$_0, std::__ndk1::allocator<Tab4::init()::$_0>, void (std::__ndk1::basic_string<char, std::__ndk1::char_traits<char>, std::__ndk1::allocator<char> > const&)>::destroy_deallocate()
FUNC 29354 68 0 std::__ndk1::__function::__func<Tab4::init()::$_0, std::__ndk1::allocator<Tab4::init()::$_0>, void (std::__ndk1::basic_string<char, std::__ndk1::char_traits<char>, std::__ndk1::allocator<char> > const&)>::operator()(std::__ndk1::basic_string<char, std::__ndk1::char_traits<char>, std::__ndk1::allocator<char> > const&)
FUNC 293bc 18 0 std::__ndk1::__function::__func<Tab4::init()::$_0, std::__ndk1::allocator<Tab4::init()::$_0>, void (std::__ndk1::basic_string<char, std::__ndk1::char_traits<char>, std::__ndk1::allocator<char> > const&)>::target(std::type_info const&) const
FUNC 293d4 c 0 std::__ndk1::__function::__func<Tab4::init()::$_0, std::__ndk1::allocator<Tab4::init()::$_0>, void (std::__ndk1::basic_string<char, std::__ndk1::char_traits<char>, std::__ndk1::allocator<char> > const&)>::target_type() const
FUNC 293e0 4 0 std::__ndk1::__function::__func<Tab4::init()::$_1, std::__ndk1::allocator<Tab4::init()::$_1>, void (std::__ndk1::basic_string<char, std::__ndk1::char_traits<char>, std::__ndk1::allocator<char> > const&)>::~__func()
FUNC 293e4 20 0 std::__ndk1::__function::__func<Tab4::init()::$_1, std::__ndk1::allocator<Tab4::init()::$_1>, void (std::__ndk1::basic_string<char, std::__ndk1::char_traits<char>, std::__ndk1::allocator<char> > const&)>::__clone() const
FUNC 29404 14 0 std::__ndk1::__function::__func<Tab4::init()::$_1, std::__ndk1::allocator<Tab4::init()::$_1>, void (std::__ndk1::basic_string<char, std::__ndk1::char_traits<char>, std::__ndk1::allocator<char> > const&)>::__clone(std::__ndk1::__function::__base<void (std::__ndk1::basic_string<char, std::__ndk1::char_traits<char>, std::__ndk1::allocator<char> > const&)>*) const
FUNC 29418 2 0 std::__ndk1::__function::__func<Tab4::init()::$_1, std::__ndk1::allocator<Tab4::init()::$_1>, void (std::__ndk1::basic_string<char, std::__ndk1::char_traits<char>, std::__ndk1::allocator<char> > const&)>::destroy()
FUNC 2941a 4 0 std::__ndk1::__function::__func<Tab4::init()::$_1, std::__ndk1::allocator<Tab4::init()::$_1>, void (std::__ndk1::basic_string<char, std::__ndk1::char_traits<char>, std::__ndk1::allocator<char> > const&)>::destroy_deallocate()
FUNC 29420 68 0 std::__ndk1::__function::__func<Tab4::init()::$_1, std::__ndk1::allocator<Tab4::init()::$_1>, void (std::__ndk1::basic_string<char, std::__ndk1::char_traits<char>, std::__ndk1::allocator<char> > const&)>::operator()(std::__ndk1::basic_string<char, std::__ndk1::char_traits<char>, std::__ndk1::allocator<char> > const&)
FUNC 29488 18 0 std::__ndk1::__function::__func<Tab4::init()::$_1, std::__ndk1::allocator<Tab4::init()::$_1>, void (std::__ndk1::basic_string<char, std::__ndk1::char_traits<char>, std::__ndk1::allocator<char> > const&)>::target(std::type_info const&) const
FUNC 294a0 c 0 std::__ndk1::__function::__func<Tab4::init()::$_1, std::__ndk1::allocator<Tab4::init()::$_1>, void (std::__ndk1::basic_string<char, std::__ndk1::char_traits<char>, std::__ndk1::allocator<char> > const&)>::target_type() const
FUNC 294ac 4 0 std::__ndk1::__function::__func<Tab4::init()::$_2, std::__ndk1::allocator<Tab4::init()::$_2>, void (std::__ndk1::basic_string<char, std::__ndk1::char_traits<char>, std::__ndk1::allocator<char> > const&)>::~__func()
FUNC 294b0 20 0 std::__ndk1::__function::__func<Tab4::init()::$_2, std::__ndk1::allocator<Tab4::init()::$_2>, void (std::__ndk1::basic_string<char, std::__ndk1::char_traits<char>, std::__ndk1::allocator<char> > const&)>::__clone() const
FUNC 294d0 14 0 std::__ndk1::__function::__func<Tab4::init()::$_2, std::__ndk1::allocator<Tab4::init()::$_2>, void (std::__ndk1::basic_string<char, std::__ndk1::char_traits<char>, std::__ndk1::allocator<char> > const&)>::__clone(std::__ndk1::__function::__base<void (std::__ndk1::basic_string<char, std::__ndk1::char_traits<char>, std::__ndk1::allocator<char> > const&)>*) const
FUNC 294e4 2 0 std::__ndk1::__function::__func<Tab4::init()::$_2, std::__ndk1::allocator<Tab4::init()::$_2>, void (std::__ndk1::basic_string<char, std::__ndk1::char_traits<char>, std::__ndk1::allocator<char> > const&)>::destroy()
FUNC 294e6 4 0 std::__ndk1::__function::__func<Tab4::init()::$_2, std::__ndk1::allocator<Tab4::init()::$_2>, void (std::__ndk1::basic_string<char, std::__ndk1::char_traits<char>, std::__ndk1::allocator<char> > const&)>::destroy_deallocate()
FUNC 294ec 68 0 std::__ndk1::__function::__func<Tab4::init()::$_2, std::__ndk1::allocator<Tab4::init()::$_2>, void (std::__ndk1::basic_string<char, std::__ndk1::char_traits<char>, std::__ndk1::allocator<char> > const&)>::operator()(std::__ndk1::basic_string<char, std::__ndk1::char_traits<char>, std::__ndk1::allocator<char> > const&)
FUNC 29554 18 0 std::__ndk1::__function::__func<Tab4::init()::$_2, std::__ndk1::allocator<Tab4::init()::$_2>, void (std::__ndk1::basic_string<char, std::__ndk1::char_traits<char>, std::__ndk1::allocator<char> > const&)>::target(std::type_info const&) const
FUNC 2956c c 0 std::__ndk1::__function::__func<Tab4::init()::$_2, std::__ndk1::allocator<Tab4::init()::$_2>, void (std::__ndk1::basic_string<char, std::__ndk1::char_traits<char>, std::__ndk1::allocator<char> > const&)>::target_type() const
FUNC 29578 4 0 std::__ndk1::__function::__func<Tab4::init()::$_3, std::__ndk1::allocator<Tab4::init()::$_3>, void (std::__ndk1::basic_string<char, std::__ndk1::char_traits<char>, std::__ndk1::allocator<char> > const&)>::~__func()
FUNC 2957c 20 0 std::__ndk1::__function::__func<Tab4::init()::$_3, std::__ndk1::allocator<Tab4::init()::$_3>, void (std::__ndk1::basic_string<char, std::__ndk1::char_traits<char>, std::__ndk1::allocator<char> > const&)>::__clone() const
FUNC 2959c 14 0 std::__ndk1::__function::__func<Tab4::init()::$_3, std::__ndk1::allocator<Tab4::init()::$_3>, void (std::__ndk1::basic_string<char, std::__ndk1::char_traits<char>, std::__ndk1::allocator<char> > const&)>::__clone(std::__ndk1::__function::__base<void (std::__ndk1::basic_string<char, std::__ndk1::char_traits<char>, std::__ndk1::allocator<char> > const&)>*) const
FUNC 295b0 2 0 std::__ndk1::__function::__func<Tab4::init()::$_3, std::__ndk1::allocator<Tab4::init()::$_3>, void (std::__ndk1::basic_string<char, std::__ndk1::char_traits<char>, std::__ndk1::allocator<char> > const&)>::destroy()
FUNC 295b2 4 0 std::__ndk1::__function::__func<Tab4::init()::$_3, std::__ndk1::allocator<Tab4::init()::$_3>, void (std::__ndk1::basic_string<char, std::__ndk1::char_traits<char>, std::__ndk1::allocator<char> > const&)>::destroy_deallocate()
FUNC 295b8 68 0 std::__ndk1::__function::__func<Tab4::init()::$_3, std::__ndk1::allocator<Tab4::init()::$_3>, void (std::__ndk1::basic_string<char, std::__ndk1::char_traits<char>, std::__ndk1::allocator<char> > const&)>::operator()(std::__ndk1::basic_string<char, std::__ndk1::char_traits<char>, std::__ndk1::allocator<char> > const&)
FUNC 29620 18 0 std::__ndk1::__function::__func<Tab4::init()::$_3, std::__ndk1::allocator<Tab4::init()::$_3>, void (std::__ndk1::basic_string<char, std::__ndk1::char_traits<char>, std::__ndk1::allocator<char> > const&)>::target(std::type_info const&) const
FUNC 29638 c 0 std::__ndk1::__function::__func<Tab4::init()::$_3, std::__ndk1::allocator<Tab4::init()::$_3>, void (std::__ndk1::basic_string<char, std::__ndk1::char_traits<char>, std::__ndk1::allocator<char> > const&)>::target_type() const
FUNC 29644 4 0 std::__ndk1::__function::__func<Tab4::init()::$_4, std::__ndk1::allocator<Tab4::init()::$_4>, void (std::__ndk1::basic_string<char, std::__ndk1::char_traits<char>, std::__ndk1::allocator<char> > const&)>::~__func()
FUNC 29648 20 0 std::__ndk1::__function::__func<Tab4::init()::$_4, std::__ndk1::allocator<Tab4::init()::$_4>, void (std::__ndk1::basic_string<char, std::__ndk1::char_traits<char>, std::__ndk1::allocator<char> > const&)>::__clone() const
FUNC 29668 14 0 std::__ndk1::__function::__func<Tab4::init()::$_4, std::__ndk1::allocator<Tab4::init()::$_4>, void (std::__ndk1::basic_string<char, std::__ndk1::char_traits<char>, std::__ndk1::allocator<char> > const&)>::__clone(std::__ndk1::__function::__base<void (std::__ndk1::basic_string<char, std::__ndk1::char_traits<char>, std::__ndk1::allocator<char> > const&)>*) const
FUNC 2967c 2 0 std::__ndk1::__function::__func<Tab4::init()::$_4, std::__ndk1::allocator<Tab4::init()::$_4>, void (std::__ndk1::basic_string<char, std::__ndk1::char_traits<char>, std::__ndk1::allocator<char> > const&)>::destroy()
FUNC 2967e 4 0 std::__ndk1::__function::__func<Tab4::init()::$_4, std::__ndk1::allocator<Tab4::init()::$_4>, void (std::__ndk1::basic_string<char, std::__ndk1::char_traits<char>, std::__ndk1::allocator<char> > const&)>::destroy_deallocate()
FUNC 29684 68 0 std::__ndk1::__function::__func<Tab4::init()::$_4, std::__ndk1::allocator<Tab4::init()::$_4>, void (std::__ndk1::basic_string<char, std::__ndk1::char_traits<char>, std::__ndk1::allocator<char> > const&)>::operator()(std::__ndk1::basic_string<char, std::__ndk1::char_traits<char>, std::__ndk1::allocator<char> > const&)
FUNC 296ec 18 0 std::__ndk1::__function::__func<Tab4::init()::$_4, std::__ndk1::allocator<Tab4::init()::$_4>, void (std::__ndk1::basic_string<char, std::__ndk1::char_traits<char>, std::__ndk1::allocator<char> > const&)>::target(std::type_info const&) const
FUNC 29704 c 0 std::__ndk1::__function::__func<Tab4::init()::$_4, std::__ndk1::allocator<Tab4::init()::$_4>, void (std::__ndk1::basic_string<char, std::__ndk1::char_traits<char>, std::__ndk1::allocator<char> > const&)>::target_type() const
FUNC 29710 4 0 std::__ndk1::__function::__func<Tab4::init()::$_5, std::__ndk1::allocator<Tab4::init()::$_5>, void (std::__ndk1::basic_string<char, std::__ndk1::char_traits<char>, std::__ndk1::allocator<char> > const&)>::~__func()
FUNC 29714 20 0 std::__ndk1::__function::__func<Tab4::init()::$_5, std::__ndk1::allocator<Tab4::init()::$_5>, void (std::__ndk1::basic_string<char, std::__ndk1::char_traits<char>, std::__ndk1::allocator<char> > const&)>::__clone() const
FUNC 29734 14 0 std::__ndk1::__function::__func<Tab4::init()::$_5, std::__ndk1::allocator<Tab4::init()::$_5>, void (std::__ndk1::basic_string<char, std::__ndk1::char_traits<char>, std::__ndk1::allocator<char> > const&)>::__clone(std::__ndk1::__function::__base<void (std::__ndk1::basic_string<char, std::__ndk1::char_traits<char>, std::__ndk1::allocator<char> > const&)>*) const
FUNC 29748 2 0 std::__ndk1::__function::__func<Tab4::init()::$_5, std::__ndk1::allocator<Tab4::init()::$_5>, void (std::__ndk1::basic_string<char, std::__ndk1::char_traits<char>, std::__ndk1::allocator<char> > const&)>::destroy()
FUNC 2974a 4 0 std::__ndk1::__function::__func<Tab4::init()::$_5, std::__ndk1::allocator<Tab4::init()::$_5>, void (std::__ndk1::basic_string<char, std::__ndk1::char_traits<char>, std::__ndk1::allocator<char> > const&)>::destroy_deallocate()
FUNC 29750 68 0 std::__ndk1::__function::__func<Tab4::init()::$_5, std::__ndk1::allocator<Tab4::init()::$_5>, void (std::__ndk1::basic_string<char, std::__ndk1::char_traits<char>, std::__ndk1::allocator<char> > const&)>::operator()(std::__ndk1::basic_string<char, std::__ndk1::char_traits<char>, std::__ndk1::allocator<char> > const&)
FUNC 297b8 18 0 std::__ndk1::__function::__func<Tab4::init()::$_5, std::__ndk1::allocator<Tab4::init()::$_5>, void (std::__ndk1::basic_string<char, std::__ndk1::char_traits<char>, std::__ndk1::allocator<char> > const&)>::target(std::type_info const&) const
FUNC 297d0 c 0 std::__ndk1::__function::__func<Tab4::init()::$_5, std::__ndk1::allocator<Tab4::init()::$_5>, void (std::__ndk1::basic_string<char, std::__ndk1::char_traits<char>, std::__ndk1::allocator<char> > const&)>::target_type() const
FUNC 297dc 4 0 std::__ndk1::__function::__func<Tab4::init()::$_6, std::__ndk1::allocator<Tab4::init()::$_6>, void (std::__ndk1::basic_string<char, std::__ndk1::char_traits<char>, std::__ndk1::allocator<char> > const&)>::~__func()
FUNC 297e0 20 0 std::__ndk1::__function::__func<Tab4::init()::$_6, std::__ndk1::allocator<Tab4::init()::$_6>, void (std::__ndk1::basic_string<char, std::__ndk1::char_traits<char>, std::__ndk1::allocator<char> > const&)>::__clone() const
FUNC 29800 14 0 std::__ndk1::__function::__func<Tab4::init()::$_6, std::__ndk1::allocator<Tab4::init()::$_6>, void (std::__ndk1::basic_string<char, std::__ndk1::char_traits<char>, std::__ndk1::allocator<char> > const&)>::__clone(std::__ndk1::__function::__base<void (std::__ndk1::basic_string<char, std::__ndk1::char_traits<char>, std::__ndk1::allocator<char> > const&)>*) const
FUNC 29814 2 0 std::__ndk1::__function::__func<Tab4::init()::$_6, std::__ndk1::allocator<Tab4::init()::$_6>, void (std::__ndk1::basic_string<char, std::__ndk1::char_traits<char>, std::__ndk1::allocator<char> > const&)>::destroy()
FUNC 29816 4 0 std::__ndk1::__function::__func<Tab4::init()::$_6, std::__ndk1::allocator<Tab4::init()::$_6>, void (std::__ndk1::basic_string<char, std::__ndk1::char_traits<char>, std::__ndk1::allocator<char> > const&)>::destroy_deallocate()
FUNC 2981c 68 0 std::__ndk1::__function::__func<Tab4::init()::$_6, std::__ndk1::allocator<Tab4::init()::$_6>, void (std::__ndk1::basic_string<char, std::__ndk1::char_traits<char>, std::__ndk1::allocator<char> > const&)>::operator()(std::__ndk1::basic_string<char, std::__ndk1::char_traits<char>, std::__ndk1::allocator<char> > const&)
FUNC 29884 18 0 std::__ndk1::__function::__func<Tab4::init()::$_6, std::__ndk1::allocator<Tab4::init()::$_6>, void (std::__ndk1::basic_string<char, std::__ndk1::char_traits<char>, std::__ndk1::allocator<char> > const&)>::target(std::type_info const&) const
FUNC 2989c c 0 std::__ndk1::__function::__func<Tab4::init()::$_6, std::__ndk1::allocator<Tab4::init()::$_6>, void (std::__ndk1::basic_string<char, std::__ndk1::char_traits<char>, std::__ndk1::allocator<char> > const&)>::target_type() const
FUNC 298a8 4 0 std::__ndk1::__function::__func<Tab4::init()::$_7, std::__ndk1::allocator<Tab4::init()::$_7>, void (std::__ndk1::basic_string<char, std::__ndk1::char_traits<char>, std::__ndk1::allocator<char> > const&)>::~__func()
FUNC 298ac 20 0 std::__ndk1::__function::__func<Tab4::init()::$_7, std::__ndk1::allocator<Tab4::init()::$_7>, void (std::__ndk1::basic_string<char, std::__ndk1::char_traits<char>, std::__ndk1::allocator<char> > const&)>::__clone() const
FUNC 298cc 14 0 std::__ndk1::__function::__func<Tab4::init()::$_7, std::__ndk1::allocator<Tab4::init()::$_7>, void (std::__ndk1::basic_string<char, std::__ndk1::char_traits<char>, std::__ndk1::allocator<char> > const&)>::__clone(std::__ndk1::__function::__base<void (std::__ndk1::basic_string<char, std::__ndk1::char_traits<char>, std::__ndk1::allocator<char> > const&)>*) const
FUNC 298e0 2 0 std::__ndk1::__function::__func<Tab4::init()::$_7, std::__ndk1::allocator<Tab4::init()::$_7>, void (std::__ndk1::basic_string<char, std::__ndk1::char_traits<char>, std::__ndk1::allocator<char> > const&)>::destroy()
FUNC 298e2 4 0 std::__ndk1::__function::__func<Tab4::init()::$_7, std::__ndk1::allocator<Tab4::init()::$_7>, void (std::__ndk1::basic_string<char, std::__ndk1::char_traits<char>, std::__ndk1::allocator<char> > const&)>::destroy_deallocate()
FUNC 298e8 68 0 std::__ndk1::__function::__func<Tab4::init()::$_7, std::__ndk1::allocator<Tab4::init()::$_7>, void (std::__ndk1::basic_string<char, std::__ndk1::char_traits<char>, std::__ndk1::allocator<char> > const&)>::operator()(std::__ndk1::basic_string<char, std::__ndk1::char_traits<char>, std::__ndk1::allocator<char> > const&)
FUNC 29950 18 0 std::__ndk1::__function::__func<Tab4::init()::$_7, std::__ndk1::allocator<Tab4::init()::$_7>, void (std::__ndk1::basic_string<char, std::__ndk1::char_traits<char>, std::__ndk1::allocator<char> > const&)>::target(std::type_info const&) const
FUNC 29968 c 0 std::__ndk1::__function::__func<Tab4::init()::$_7, std::__ndk1::allocator<Tab4::init()::$_7>, void (std::__ndk1::basic_string<char, std::__ndk1::char_traits<char>, std::__ndk1::allocator<char> > const&)>::target_type() const
FUNC 29974 4 0 std::__ndk1::__function::__func<Tab4::init()::$_8, std::__ndk1::allocator<Tab4::init()::$_8>, void (std::__ndk1::basic_string<char, std::__ndk1::char_traits<char>, std::__ndk1::allocator<char> > const&)>::~__func()
FUNC 29978 20 0 std::__ndk1::__function::__func<Tab4::init()::$_8, std::__ndk1::allocator<Tab4::init()::$_8>, void (std::__ndk1::basic_string<char, std::__ndk1::char_traits<char>, std::__ndk1::allocator<char> > const&)>::__clone() const
FUNC 29998 14 0 std::__ndk1::__function::__func<Tab4::init()::$_8, std::__ndk1::allocator<Tab4::init()::$_8>, void (std::__ndk1::basic_string<char, std::__ndk1::char_traits<char>, std::__ndk1::allocator<char> > const&)>::__clone(std::__ndk1::__function::__base<void (std::__ndk1::basic_string<char, std::__ndk1::char_traits<char>, std::__ndk1::allocator<char> > const&)>*) const
FUNC 299ac 2 0 std::__ndk1::__function::__func<Tab4::init()::$_8, std::__ndk1::allocator<Tab4::init()::$_8>, void (std::__ndk1::basic_string<char, std::__ndk1::char_traits<char>, std::__ndk1::allocator<char> > const&)>::destroy()
FUNC 299ae 4 0 std::__ndk1::__function::__func<Tab4::init()::$_8, std::__ndk1::allocator<Tab4::init()::$_8>, void (std::__ndk1::basic_string<char, std::__ndk1::char_traits<char>, std::__ndk1::allocator<char> > const&)>::destroy_deallocate()
FUNC 299b4 68 0 std::__ndk1::__function::__func<Tab4::init()::$_8, std::__ndk1::allocator<Tab4::init()::$_8>, void (std::__ndk1::basic_string<char, std::__ndk1::char_traits<char>, std::__ndk1::allocator<char> > const&)>::operator()(std::__ndk1::basic_string<char, std::__ndk1::char_traits<char>, std::__ndk1::allocator<char> > const&)
FUNC 29a1c 18 0 std::__ndk1::__function::__func<Tab4::init()::$_8, std::__ndk1::allocator<Tab4::init()::$_8>, void (std::__ndk1::basic_string<char, std::__ndk1::char_traits<char>, std::__ndk1::allocator<char> > const&)>::target(std::type_info const&) const
FUNC 29a34 c 0 std::__ndk1::__function::__func<Tab4::init()::$_8, std::__ndk1::allocator<Tab4::init()::$_8>, void (std::__ndk1::basic_string<char, std::__ndk1::char_traits<char>, std::__ndk1::allocator<char> > const&)>::target_type() const
FUNC 29a40 4 0 std::__ndk1::__function::__func<Tab4::init()::$_9, std::__ndk1::allocator<Tab4::init()::$_9>, void (std::__ndk1::basic_string<char, std::__ndk1::char_traits<char>, std::__ndk1::allocator<char> > const&)>::~__func()
FUNC 29a44 20 0 std::__ndk1::__function::__func<Tab4::init()::$_9, std::__ndk1::allocator<Tab4::init()::$_9>, void (std::__ndk1::basic_string<char, std::__ndk1::char_traits<char>, std::__ndk1::allocator<char> > const&)>::__clone() const
FUNC 29a64 14 0 std::__ndk1::__function::__func<Tab4::init()::$_9, std::__ndk1::allocator<Tab4::init()::$_9>, void (std::__ndk1::basic_string<char, std::__ndk1::char_traits<char>, std::__ndk1::allocator<char> > const&)>::__clone(std::__ndk1::__function::__base<void (std::__ndk1::basic_string<char, std::__ndk1::char_traits<char>, std::__ndk1::allocator<char> > const&)>*) const
FUNC 29a78 2 0 std::__ndk1::__function::__func<Tab4::init()::$_9, std::__ndk1::allocator<Tab4::init()::$_9>, void (std::__ndk1::basic_string<char, std::__ndk1::char_traits<char>, std::__ndk1::allocator<char> > const&)>::destroy()
FUNC 29a7a 4 0 std::__ndk1::__function::__func<Tab4::init()::$_9, std::__ndk1::allocator<Tab4::init()::$_9>, void (std::__ndk1::basic_string<char, std::__ndk1::char_traits<char>, std::__ndk1::allocator<char> > const&)>::destroy_deallocate()
FUNC 29a80 68 0 std::__ndk1::__function::__func<Tab4::init()::$_9, std::__ndk1::allocator<Tab4::init()::$_9>, void (std::__ndk1::basic_string<char, std::__ndk1::char_traits<char>, std::__ndk1::allocator<char> > const&)>::operator()(std::__ndk1::basic_string<char, std::__ndk1::char_traits<char>, std::__ndk1::allocator<char> > const&)
FUNC 29ae8 18 0 std::__ndk1::__function::__func<Tab4::init()::$_9, std::__ndk1::allocator<Tab4::init()::$_9>, void (std::__ndk1::basic_string<char, std::__ndk1::char_traits<char>, std::__ndk1::allocator<char> > const&)>::target(std::type_info const&) const
FUNC 29b00 c 0 std::__ndk1::__function::__func<Tab4::init()::$_9, std::__ndk1::allocator<Tab4::init()::$_9>, void (std::__ndk1::basic_string<char, std::__ndk1::char_traits<char>, std::__ndk1::allocator<char> > const&)>::target_type() const
FUNC 29b0c 4 0 std::__ndk1::__function::__func<Tab4::init()::$_10, std::__ndk1::allocator<Tab4::init()::$_10>, void (std::__ndk1::basic_string<char, std::__ndk1::char_traits<char>, std::__ndk1::allocator<char> > const&)>::~__func()
FUNC 29b10 20 0 std::__ndk1::__function::__func<Tab4::init()::$_10, std::__ndk1::allocator<Tab4::init()::$_10>, void (std::__ndk1::basic_string<char, std::__ndk1::char_traits<char>, std::__ndk1::allocator<char> > const&)>::__clone() const
FUNC 29b30 14 0 std::__ndk1::__function::__func<Tab4::init()::$_10, std::__ndk1::allocator<Tab4::init()::$_10>, void (std::__ndk1::basic_string<char, std::__ndk1::char_traits<char>, std::__ndk1::allocator<char> > const&)>::__clone(std::__ndk1::__function::__base<void (std::__ndk1::basic_string<char, std::__ndk1::char_traits<char>, std::__ndk1::allocator<char> > const&)>*) const
FUNC 29b44 2 0 std::__ndk1::__function::__func<Tab4::init()::$_10, std::__ndk1::allocator<Tab4::init()::$_10>, void (std::__ndk1::basic_string<char, std::__ndk1::char_traits<char>, std::__ndk1::allocator<char> > const&)>::destroy()
FUNC 29b46 4 0 std::__ndk1::__function::__func<Tab4::init()::$_10, std::__ndk1::allocator<Tab4::init()::$_10>, void (std::__ndk1::basic_string<char, std::__ndk1::char_traits<char>, std::__ndk1::allocator<char> > const&)>::destroy_deallocate()
FUNC 29b4c 68 0 std::__ndk1::__function::__func<Tab4::init()::$_10, std::__ndk1::allocator<Tab4::init()::$_10>, void (std::__ndk1::basic_string<char, std::__ndk1::char_traits<char>, std::__ndk1::allocator<char> > const&)>::operator()(std::__ndk1::basic_string<char, std::__ndk1::char_traits<char>, std::__ndk1::allocator<char> > const&)
FUNC 29bb4 18 0 std::__ndk1::__function::__func<Tab4::init()::$_10, std::__ndk1::allocator<Tab4::init()::$_10>, void (std::__ndk1::basic_string<char, std::__ndk1::char_traits<char>, std::__ndk1::allocator<char> > const&)>::target(std::type_info const&) const
FUNC 29bcc c 0 std::__ndk1::__function::__func<Tab4::init()::$_10, std::__ndk1::allocator<Tab4::init()::$_10>, void (std::__ndk1::basic_string<char, std::__ndk1::char_traits<char>, std::__ndk1::allocator<char> > const&)>::target_type() const
FUNC 29bd8 4 0 std::__ndk1::__function::__func<Tab4::init()::$_11, std::__ndk1::allocator<Tab4::init()::$_11>, void (std::__ndk1::basic_string<char, std::__ndk1::char_traits<char>, std::__ndk1::allocator<char> > const&)>::~__func()
FUNC 29bdc 20 0 std::__ndk1::__function::__func<Tab4::init()::$_11, std::__ndk1::allocator<Tab4::init()::$_11>, void (std::__ndk1::basic_string<char, std::__ndk1::char_traits<char>, std::__ndk1::allocator<char> > const&)>::__clone() const
FUNC 29bfc 14 0 std::__ndk1::__function::__func<Tab4::init()::$_11, std::__ndk1::allocator<Tab4::init()::$_11>, void (std::__ndk1::basic_string<char, std::__ndk1::char_traits<char>, std::__ndk1::allocator<char> > const&)>::__clone(std::__ndk1::__function::__base<void (std::__ndk1::basic_string<char, std::__ndk1::char_traits<char>, std::__ndk1::allocator<char> > const&)>*) const
FUNC 29c10 2 0 std::__ndk1::__function::__func<Tab4::init()::$_11, std::__ndk1::allocator<Tab4::init()::$_11>, void (std::__ndk1::basic_string<char, std::__ndk1::char_traits<char>, std::__ndk1::allocator<char> > const&)>::destroy()
FUNC 29c12 4 0 std::__ndk1::__function::__func<Tab4::init()::$_11, std::__ndk1::allocator<Tab4::init()::$_11>, void (std::__ndk1::basic_string<char, std::__ndk1::char_traits<char>, std::__ndk1::allocator<char> > const&)>::destroy_deallocate()
FUNC 29c18 68 0 std::__ndk1::__function::__func<Tab4::init()::$_11, std::__ndk1::allocator<Tab4::init()::$_11>, void (std::__ndk1::basic_string<char, std::__ndk1::char_traits<char>, std::__ndk1::allocator<char> > const&)>::operator()(std::__ndk1::basic_string<char, std::__ndk1::char_traits<char>, std::__ndk1::allocator<char> > const&)
FUNC 29c80 18 0 std::__ndk1::__function::__func<Tab4::init()::$_11, std::__ndk1::allocator<Tab4::init()::$_11>, void (std::__ndk1::basic_string<char, std::__ndk1::char_traits<char>, std::__ndk1::allocator<char> > const&)>::target(std::type_info const&) const
FUNC 29c98 c 0 std::__ndk1::__function::__func<Tab4::init()::$_11, std::__ndk1::allocator<Tab4::init()::$_11>, void (std::__ndk1::basic_string<char, std::__ndk1::char_traits<char>, std::__ndk1::allocator<char> > const&)>::target_type() const
FUNC 29ca4 4 0 std::__ndk1::__function::__func<Tab4::init()::$_12, std::__ndk1::allocator<Tab4::init()::$_12>, void (std::__ndk1::basic_string<char, std::__ndk1::char_traits<char>, std::__ndk1::allocator<char> > const&)>::~__func()
FUNC 29ca8 20 0 std::__ndk1::__function::__func<Tab4::init()::$_12, std::__ndk1::allocator<Tab4::init()::$_12>, void (std::__ndk1::basic_string<char, std::__ndk1::char_traits<char>, std::__ndk1::allocator<char> > const&)>::__clone() const
FUNC 29cc8 14 0 std::__ndk1::__function::__func<Tab4::init()::$_12, std::__ndk1::allocator<Tab4::init()::$_12>, void (std::__ndk1::basic_string<char, std::__ndk1::char_traits<char>, std::__ndk1::allocator<char> > const&)>::__clone(std::__ndk1::__function::__base<void (std::__ndk1::basic_string<char, std::__ndk1::char_traits<char>, std::__ndk1::allocator<char> > const&)>*) const
FUNC 29cdc 2 0 std::__ndk1::__function::__func<Tab4::init()::$_12, std::__ndk1::allocator<Tab4::init()::$_12>, void (std::__ndk1::basic_string<char, std::__ndk1::char_traits<char>, std::__ndk1::allocator<char> > const&)>::destroy()
FUNC 29cde 4 0 std::__ndk1::__function::__func<Tab4::init()::$_12, std::__ndk1::allocator<Tab4::init()::$_12>, void (std::__ndk1::basic_string<char, std::__ndk1::char_traits<char>, std::__ndk1::allocator<char> > const&)>::destroy_deallocate()
FUNC 29ce4 68 0 std::__ndk1::__function::__func<Tab4::init()::$_12, std::__ndk1::allocator<Tab4::init()::$_12>, void (std::__ndk1::basic_string<char, std::__ndk1::char_traits<char>, std::__ndk1::allocator<char> > const&)>::operator()(std::__ndk1::basic_string<char, std::__ndk1::char_traits<char>, std::__ndk1::allocator<char> > const&)
FUNC 29d4c 18 0 std::__ndk1::__function::__func<Tab4::init()::$_12, std::__ndk1::allocator<Tab4::init()::$_12>, void (std::__ndk1::basic_string<char, std::__ndk1::char_traits<char>, std::__ndk1::allocator<char> > const&)>::target(std::type_info const&) const
FUNC 29d64 c 0 std::__ndk1::__function::__func<Tab4::init()::$_12, std::__ndk1::allocator<Tab4::init()::$_12>, void (std::__ndk1::basic_string<char, std::__ndk1::char_traits<char>, std::__ndk1::allocator<char> > const&)>::target_type() const
FUNC 29d70 4 0 std::__ndk1::__function::__func<Tab4::init()::$_13, std::__ndk1::allocator<Tab4::init()::$_13>, void (std::__ndk1::basic_string<char, std::__ndk1::char_traits<char>, std::__ndk1::allocator<char> > const&)>::~__func()
FUNC 29d74 20 0 std::__ndk1::__function::__func<Tab4::init()::$_13, std::__ndk1::allocator<Tab4::init()::$_13>, void (std::__ndk1::basic_string<char, std::__ndk1::char_traits<char>, std::__ndk1::allocator<char> > const&)>::__clone() const
FUNC 29d94 14 0 std::__ndk1::__function::__func<Tab4::init()::$_13, std::__ndk1::allocator<Tab4::init()::$_13>, void (std::__ndk1::basic_string<char, std::__ndk1::char_traits<char>, std::__ndk1::allocator<char> > const&)>::__clone(std::__ndk1::__function::__base<void (std::__ndk1::basic_string<char, std::__ndk1::char_traits<char>, std::__ndk1::allocator<char> > const&)>*) const
FUNC 29da8 2 0 std::__ndk1::__function::__func<Tab4::init()::$_13, std::__ndk1::allocator<Tab4::init()::$_13>, void (std::__ndk1::basic_string<char, std::__ndk1::char_traits<char>, std::__ndk1::allocator<char> > const&)>::destroy()
FUNC 29daa 4 0 std::__ndk1::__function::__func<Tab4::init()::$_13, std::__ndk1::allocator<Tab4::init()::$_13>, void (std::__ndk1::basic_string<char, std::__ndk1::char_traits<char>, std::__ndk1::allocator<char> > const&)>::destroy_deallocate()
FUNC 29db0 68 0 std::__ndk1::__function::__func<Tab4::init()::$_13, std::__ndk1::allocator<Tab4::init()::$_13>, void (std::__ndk1::basic_string<char, std::__ndk1::char_traits<char>, std::__ndk1::allocator<char> > const&)>::operator()(std::__ndk1::basic_string<char, std::__ndk1::char_traits<char>, std::__ndk1::allocator<char> > const&)
FUNC 29e18 18 0 std::__ndk1::__function::__func<Tab4::init()::$_13, std::__ndk1::allocator<Tab4::init()::$_13>, void (std::__ndk1::basic_string<char, std::__ndk1::char_traits<char>, std::__ndk1::allocator<char> > const&)>::target(std::type_info const&) const
FUNC 29e30 c 0 std::__ndk1::__function::__func<Tab4::init()::$_13, std::__ndk1::allocator<Tab4::init()::$_13>, void (std::__ndk1::basic_string<char, std::__ndk1::char_traits<char>, std::__ndk1::allocator<char> > const&)>::target_type() const
FUNC 29e3c 4 0 std::__ndk1::__function::__func<Tab4::init()::$_14, std::__ndk1::allocator<Tab4::init()::$_14>, void (std::__ndk1::basic_string<char, std::__ndk1::char_traits<char>, std::__ndk1::allocator<char> > const&)>::~__func()
FUNC 29e40 20 0 std::__ndk1::__function::__func<Tab4::init()::$_14, std::__ndk1::allocator<Tab4::init()::$_14>, void (std::__ndk1::basic_string<char, std::__ndk1::char_traits<char>, std::__ndk1::allocator<char> > const&)>::__clone() const
FUNC 29e60 14 0 std::__ndk1::__function::__func<Tab4::init()::$_14, std::__ndk1::allocator<Tab4::init()::$_14>, void (std::__ndk1::basic_string<char, std::__ndk1::char_traits<char>, std::__ndk1::allocator<char> > const&)>::__clone(std::__ndk1::__function::__base<void (std::__ndk1::basic_string<char, std::__ndk1::char_traits<char>, std::__ndk1::allocator<char> > const&)>*) const
FUNC 29e74 2 0 std::__ndk1::__function::__func<Tab4::init()::$_14, std::__ndk1::allocator<Tab4::init()::$_14>, void (std::__ndk1::basic_string<char, std::__ndk1::char_traits<char>, std::__ndk1::allocator<char> > const&)>::destroy()
FUNC 29e76 4 0 std::__ndk1::__function::__func<Tab4::init()::$_14, std::__ndk1::allocator<Tab4::init()::$_14>, void (std::__ndk1::basic_string<char, std::__ndk1::char_traits<char>, std::__ndk1::allocator<char> > const&)>::destroy_deallocate()
FUNC 29e7c 68 0 std::__ndk1::__function::__func<Tab4::init()::$_14, std::__ndk1::allocator<Tab4::init()::$_14>, void (std::__ndk1::basic_string<char, std::__ndk1::char_traits<char>, std::__ndk1::allocator<char> > const&)>::operator()(std::__ndk1::basic_string<char, std::__ndk1::char_traits<char>, std::__ndk1::allocator<char> > const&)
FUNC 29ee4 18 0 std::__ndk1::__function::__func<Tab4::init()::$_14, std::__ndk1::allocator<Tab4::init()::$_14>, void (std::__ndk1::basic_string<char, std::__ndk1::char_traits<char>, std::__ndk1::allocator<char> > const&)>::target(std::type_info const&) const
FUNC 29efc c 0 std::__ndk1::__function::__func<Tab4::init()::$_14, std::__ndk1::allocator<Tab4::init()::$_14>, void (std::__ndk1::basic_string<char, std::__ndk1::char_traits<char>, std::__ndk1::allocator<char> > const&)>::target_type() const
FUNC 29f08 4 0 std::__ndk1::__function::__func<Tab4::init()::$_15, std::__ndk1::allocator<Tab4::init()::$_15>, void (std::__ndk1::basic_string<char, std::__ndk1::char_traits<char>, std::__ndk1::allocator<char> > const&)>::~__func()
FUNC 29f0c 20 0 std::__ndk1::__function::__func<Tab4::init()::$_15, std::__ndk1::allocator<Tab4::init()::$_15>, void (std::__ndk1::basic_string<char, std::__ndk1::char_traits<char>, std::__ndk1::allocator<char> > const&)>::__clone() const
FUNC 29f2c 14 0 std::__ndk1::__function::__func<Tab4::init()::$_15, std::__ndk1::allocator<Tab4::init()::$_15>, void (std::__ndk1::basic_string<char, std::__ndk1::char_traits<char>, std::__ndk1::allocator<char> > const&)>::__clone(std::__ndk1::__function::__base<void (std::__ndk1::basic_string<char, std::__ndk1::char_traits<char>, std::__ndk1::allocator<char> > const&)>*) const
FUNC 29f40 2 0 std::__ndk1::__function::__func<Tab4::init()::$_15, std::__ndk1::allocator<Tab4::init()::$_15>, void (std::__ndk1::basic_string<char, std::__ndk1::char_traits<char>, std::__ndk1::allocator<char> > const&)>::destroy()
FUNC 29f42 4 0 std::__ndk1::__function::__func<Tab4::init()::$_15, std::__ndk1::allocator<Tab4::init()::$_15>, void (std::__ndk1::basic_string<char, std::__ndk1::char_traits<char>, std::__ndk1::allocator<char> > const&)>::destroy_deallocate()
FUNC 29f48 68 0 std::__ndk1::__function::__func<Tab4::init()::$_15, std::__ndk1::allocator<Tab4::init()::$_15>, void (std::__ndk1::basic_string<char, std::__ndk1::char_traits<char>, std::__ndk1::allocator<char> > const&)>::operator()(std::__ndk1::basic_string<char, std::__ndk1::char_traits<char>, std::__ndk1::allocator<char> > const&)
FUNC 29fb0 18 0 std::__ndk1::__function::__func<Tab4::init()::$_15, std::__ndk1::allocator<Tab4::init()::$_15>, void (std::__ndk1::basic_string<char, std::__ndk1::char_traits<char>, std::__ndk1::allocator<char> > const&)>::target(std::type_info const&) const
FUNC 29fc8 c 0 std::__ndk1::__function::__func<Tab4::init()::$_15, std::__ndk1::allocator<Tab4::init()::$_15>, void (std::__ndk1::basic_string<char, std::__ndk1::char_traits<char>, std::__ndk1::allocator<char> > const&)>::target_type() const
FUNC 29fd4 4 0 std::__ndk1::__function::__func<Tab4::init()::$_16, std::__ndk1::allocator<Tab4::init()::$_16>, void (std::__ndk1::basic_string<char, std::__ndk1::char_traits<char>, std::__ndk1::allocator<char> > const&)>::~__func()
FUNC 29fd8 20 0 std::__ndk1::__function::__func<Tab4::init()::$_16, std::__ndk1::allocator<Tab4::init()::$_16>, void (std::__ndk1::basic_string<char, std::__ndk1::char_traits<char>, std::__ndk1::allocator<char> > const&)>::__clone() const
FUNC 29ff8 14 0 std::__ndk1::__function::__func<Tab4::init()::$_16, std::__ndk1::allocator<Tab4::init()::$_16>, void (std::__ndk1::basic_string<char, std::__ndk1::char_traits<char>, std::__ndk1::allocator<char> > const&)>::__clone(std::__ndk1::__function::__base<void (std::__ndk1::basic_string<char, std::__ndk1::char_traits<char>, std::__ndk1::allocator<char> > const&)>*) const
FUNC 2a00c 2 0 std::__ndk1::__function::__func<Tab4::init()::$_16, std::__ndk1::allocator<Tab4::init()::$_16>, void (std::__ndk1::basic_string<char, std::__ndk1::char_traits<char>, std::__ndk1::allocator<char> > const&)>::destroy()
FUNC 2a00e 4 0 std::__ndk1::__function::__func<Tab4::init()::$_16, std::__ndk1::allocator<Tab4::init()::$_16>, void (std::__ndk1::basic_string<char, std::__ndk1::char_traits<char>, std::__ndk1::allocator<char> > const&)>::destroy_deallocate()
FUNC 2a014 68 0 std::__ndk1::__function::__func<Tab4::init()::$_16, std::__ndk1::allocator<Tab4::init()::$_16>, void (std::__ndk1::basic_string<char, std::__ndk1::char_traits<char>, std::__ndk1::allocator<char> > const&)>::operator()(std::__ndk1::basic_string<char, std::__ndk1::char_traits<char>, std::__ndk1::allocator<char> > const&)
FUNC 2a07c 18 0 std::__ndk1::__function::__func<Tab4::init()::$_16, std::__ndk1::allocator<Tab4::init()::$_16>, void (std::__ndk1::basic_string<char, std::__ndk1::char_traits<char>, std::__ndk1::allocator<char> > const&)>::target(std::type_info const&) const
FUNC 2a094 c 0 std::__ndk1::__function::__func<Tab4::init()::$_16, std::__ndk1::allocator<Tab4::init()::$_16>, void (std::__ndk1::basic_string<char, std::__ndk1::char_traits<char>, std::__ndk1::allocator<char> > const&)>::target_type() const
FUNC 2a0a0 4 0 std::__ndk1::__function::__func<Tab4::init()::$_17, std::__ndk1::allocator<Tab4::init()::$_17>, void (std::__ndk1::basic_string<char, std::__ndk1::char_traits<char>, std::__ndk1::allocator<char> > const&)>::~__func()
FUNC 2a0a4 20 0 std::__ndk1::__function::__func<Tab4::init()::$_17, std::__ndk1::allocator<Tab4::init()::$_17>, void (std::__ndk1::basic_string<char, std::__ndk1::char_traits<char>, std::__ndk1::allocator<char> > const&)>::__clone() const
FUNC 2a0c4 14 0 std::__ndk1::__function::__func<Tab4::init()::$_17, std::__ndk1::allocator<Tab4::init()::$_17>, void (std::__ndk1::basic_string<char, std::__ndk1::char_traits<char>, std::__ndk1::allocator<char> > const&)>::__clone(std::__ndk1::__function::__base<void (std::__ndk1::basic_string<char, std::__ndk1::char_traits<char>, std::__ndk1::allocator<char> > const&)>*) const
FUNC 2a0d8 2 0 std::__ndk1::__function::__func<Tab4::init()::$_17, std::__ndk1::allocator<Tab4::init()::$_17>, void (std::__ndk1::basic_string<char, std::__ndk1::char_traits<char>, std::__ndk1::allocator<char> > const&)>::destroy()
FUNC 2a0da 4 0 std::__ndk1::__function::__func<Tab4::init()::$_17, std::__ndk1::allocator<Tab4::init()::$_17>, void (std::__ndk1::basic_string<char, std::__ndk1::char_traits<char>, std::__ndk1::allocator<char> > const&)>::destroy_deallocate()
FUNC 2a0e0 68 0 std::__ndk1::__function::__func<Tab4::init()::$_17, std::__ndk1::allocator<Tab4::init()::$_17>, void (std::__ndk1::basic_string<char, std::__ndk1::char_traits<char>, std::__ndk1::allocator<char> > const&)>::operator()(std::__ndk1::basic_string<char, std::__ndk1::char_traits<char>, std::__ndk1::allocator<char> > const&)
FUNC 2a148 18 0 std::__ndk1::__function::__func<Tab4::init()::$_17, std::__ndk1::allocator<Tab4::init()::$_17>, void (std::__ndk1::basic_string<char, std::__ndk1::char_traits<char>, std::__ndk1::allocator<char> > const&)>::target(std::type_info const&) const
FUNC 2a160 c 0 std::__ndk1::__function::__func<Tab4::init()::$_17, std::__ndk1::allocator<Tab4::init()::$_17>, void (std::__ndk1::basic_string<char, std::__ndk1::char_traits<char>, std::__ndk1::allocator<char> > const&)>::target_type() const
FUNC 2a16c 4 0 std::__ndk1::__function::__func<Tab4::init()::$_18, std::__ndk1::allocator<Tab4::init()::$_18>, void (std::__ndk1::basic_string<char, std::__ndk1::char_traits<char>, std::__ndk1::allocator<char> > const&)>::~__func()
FUNC 2a170 20 0 std::__ndk1::__function::__func<Tab4::init()::$_18, std::__ndk1::allocator<Tab4::init()::$_18>, void (std::__ndk1::basic_string<char, std::__ndk1::char_traits<char>, std::__ndk1::allocator<char> > const&)>::__clone() const
FUNC 2a190 14 0 std::__ndk1::__function::__func<Tab4::init()::$_18, std::__ndk1::allocator<Tab4::init()::$_18>, void (std::__ndk1::basic_string<char, std::__ndk1::char_traits<char>, std::__ndk1::allocator<char> > const&)>::__clone(std::__ndk1::__function::__base<void (std::__ndk1::basic_string<char, std::__ndk1::char_traits<char>, std::__ndk1::allocator<char> > const&)>*) const
FUNC 2a1a4 2 0 std::__ndk1::__function::__func<Tab4::init()::$_18, std::__ndk1::allocator<Tab4::init()::$_18>, void (std::__ndk1::basic_string<char, std::__ndk1::char_traits<char>, std::__ndk1::allocator<char> > const&)>::destroy()
FUNC 2a1a6 4 0 std::__ndk1::__function::__func<Tab4::init()::$_18, std::__ndk1::allocator<Tab4::init()::$_18>, void (std::__ndk1::basic_string<char, std::__ndk1::char_traits<char>, std::__ndk1::allocator<char> > const&)>::destroy_deallocate()
FUNC 2a1ac 68 0 std::__ndk1::__function::__func<Tab4::init()::$_18, std::__ndk1::allocator<Tab4::init()::$_18>, void (std::__ndk1::basic_string<char, std::__ndk1::char_traits<char>, std::__ndk1::allocator<char> > const&)>::operator()(std::__ndk1::basic_string<char, std::__ndk1::char_traits<char>, std::__ndk1::allocator<char> > const&)
FUNC 2a214 18 0 std::__ndk1::__function::__func<Tab4::init()::$_18, std::__ndk1::allocator<Tab4::init()::$_18>, void (std::__ndk1::basic_string<char, std::__ndk1::char_traits<char>, std::__ndk1::allocator<char> > const&)>::target(std::type_info const&) const
FUNC 2a22c c 0 std::__ndk1::__function::__func<Tab4::init()::$_18, std::__ndk1::allocator<Tab4::init()::$_18>, void (std::__ndk1::basic_string<char, std::__ndk1::char_traits<char>, std::__ndk1::allocator<char> > const&)>::target_type() const
FUNC 2a238 4 0 std::__ndk1::__function::__func<Tab4::init()::$_19, std::__ndk1::allocator<Tab4::init()::$_19>, void (std::__ndk1::basic_string<char, std::__ndk1::char_traits<char>, std::__ndk1::allocator<char> > const&)>::~__func()
FUNC 2a23c 20 0 std::__ndk1::__function::__func<Tab4::init()::$_19, std::__ndk1::allocator<Tab4::init()::$_19>, void (std::__ndk1::basic_string<char, std::__ndk1::char_traits<char>, std::__ndk1::allocator<char> > const&)>::__clone() const
FUNC 2a25c 14 0 std::__ndk1::__function::__func<Tab4::init()::$_19, std::__ndk1::allocator<Tab4::init()::$_19>, void (std::__ndk1::basic_string<char, std::__ndk1::char_traits<char>, std::__ndk1::allocator<char> > const&)>::__clone(std::__ndk1::__function::__base<void (std::__ndk1::basic_string<char, std::__ndk1::char_traits<char>, std::__ndk1::allocator<char> > const&)>*) const
FUNC 2a270 2 0 std::__ndk1::__function::__func<Tab4::init()::$_19, std::__ndk1::allocator<Tab4::init()::$_19>, void (std::__ndk1::basic_string<char, std::__ndk1::char_traits<char>, std::__ndk1::allocator<char> > const&)>::destroy()
FUNC 2a272 4 0 std::__ndk1::__function::__func<Tab4::init()::$_19, std::__ndk1::allocator<Tab4::init()::$_19>, void (std::__ndk1::basic_string<char, std::__ndk1::char_traits<char>, std::__ndk1::allocator<char> > const&)>::destroy_deallocate()
FUNC 2a278 68 0 std::__ndk1::__function::__func<Tab4::init()::$_19, std::__ndk1::allocator<Tab4::init()::$_19>, void (std::__ndk1::basic_string<char, std::__ndk1::char_traits<char>, std::__ndk1::allocator<char> > const&)>::operator()(std::__ndk1::basic_string<char, std::__ndk1::char_traits<char>, std::__ndk1::allocator<char> > const&)
FUNC 2a2e0 18 0 std::__ndk1::__function::__func<Tab4::init()::$_19, std::__ndk1::allocator<Tab4::init()::$_19>, void (std::__ndk1::basic_string<char, std::__ndk1::char_traits<char>, std::__ndk1::allocator<char> > const&)>::target(std::type_info const&) const
FUNC 2a2f8 c 0 std::__ndk1::__function::__func<Tab4::init()::$_19, std::__ndk1::allocator<Tab4::init()::$_19>, void (std::__ndk1::basic_string<char, std::__ndk1::char_traits<char>, std::__ndk1::allocator<char> > const&)>::target_type() const
FUNC 2a304 1f9c 0 Tab5::init()
FUNC 2c2a0 88 0 Tab5::SaveCheckbox(cocos2d::CCObject*)
FUNC 2c328 88 0 Tab5::SaveCheckbox2(cocos2d::CCObject*)
FUNC 2c3b0 88 0 Tab5::SaveCheckbox3(cocos2d::CCObject*)
FUNC 2c438 88 0 Tab5::SaveCheckbox4(cocos2d::CCObject*)
FUNC 2c4c0 88 0 Tab5::SaveCheckbox5(cocos2d::CCObject*)
FUNC 2c548 88 0 Tab5::SaveCheckbox6(cocos2d::CCObject*)
FUNC 2c5d0 88 0 Tab5::SaveCheckbox7(cocos2d::CCObject*)
FUNC 2c658 88 0 Tab5::SaveCheckbox8(cocos2d::CCObject*)
FUNC 2c6e0 88 0 Tab5::SaveCheckbox9(cocos2d::CCObject*)
FUNC 2c768 88 0 Tab5::SaveCheckbox10(cocos2d::CCObject*)
FUNC 2c7f0 10 0 Tab5::~Tab5()
FUNC 2c800 8 0 {virtual override thunk({offset(-264)}, Tab5::~Tab5())}
FUNC 2c808 14 0 {virtual override thunk({offset(-264)}, Tab5::~Tab5())}
FUNC 2c81c 4 0 std::__ndk1::__function::__func<Tab5::init()::$_0, std::__ndk1::allocator<Tab5::init()::$_0>, void (std::__ndk1::basic_string<char, std::__ndk1::char_traits<char>, std::__ndk1::allocator<char> > const&)>::~__func()
FUNC 2c820 20 0 std::__ndk1::__function::__func<Tab5::init()::$_0, std::__ndk1::allocator<Tab5::init()::$_0>, void (std::__ndk1::basic_string<char, std::__ndk1::char_traits<char>, std::__ndk1::allocator<char> > const&)>::__clone() const
FUNC 2c840 14 0 std::__ndk1::__function::__func<Tab5::init()::$_0, std::__ndk1::allocator<Tab5::init()::$_0>, void (std::__ndk1::basic_string<char, std::__ndk1::char_traits<char>, std::__ndk1::allocator<char> > const&)>::__clone(std::__ndk1::__function::__base<void (std::__ndk1::basic_string<char, std::__ndk1::char_traits<char>, std::__ndk1::allocator<char> > const&)>*) const
FUNC 2c854 2 0 std::__ndk1::__function::__func<Tab5::init()::$_0, std::__ndk1::allocator<Tab5::init()::$_0>, void (std::__ndk1::basic_string<char, std::__ndk1::char_traits<char>, std::__ndk1::allocator<char> > const&)>::destroy()
FUNC 2c856 4 0 std::__ndk1::__function::__func<Tab5::init()::$_0, std::__ndk1::allocator<Tab5::init()::$_0>, void (std::__ndk1::basic_string<char, std::__ndk1::char_traits<char>, std::__ndk1::allocator<char> > const&)>::destroy_deallocate()
FUNC 2c85c 68 0 std::__ndk1::__function::__func<Tab5::init()::$_0, std::__ndk1::allocator<Tab5::init()::$_0>, void (std::__ndk1::basic_string<char, std::__ndk1::char_traits<char>, std::__ndk1::allocator<char> > const&)>::operator()(std::__ndk1::basic_string<char, std::__ndk1::char_traits<char>, std::__ndk1::allocator<char> > const&)
FUNC 2c8c4 18 0 std::__ndk1::__function::__func<Tab5::init()::$_0, std::__ndk1::allocator<Tab5::init()::$_0>, void (std::__ndk1::basic_string<char, std::__ndk1::char_traits<char>, std::__ndk1::allocator<char> > const&)>::target(std::type_info const&) const
FUNC 2c8dc c 0 std::__ndk1::__function::__func<Tab5::init()::$_0, std::__ndk1::allocator<Tab5::init()::$_0>, void (std::__ndk1::basic_string<char, std::__ndk1::char_traits<char>, std::__ndk1::allocator<char> > const&)>::target_type() const
FUNC 2c8e8 4 0 std::__ndk1::__function::__func<Tab5::init()::$_1, std::__ndk1::allocator<Tab5::init()::$_1>, void (std::__ndk1::basic_string<char, std::__ndk1::char_traits<char>, std::__ndk1::allocator<char> > const&)>::~__func()
FUNC 2c8ec 20 0 std::__ndk1::__function::__func<Tab5::init()::$_1, std::__ndk1::allocator<Tab5::init()::$_1>, void (std::__ndk1::basic_string<char, std::__ndk1::char_traits<char>, std::__ndk1::allocator<char> > const&)>::__clone() const
FUNC 2c90c 14 0 std::__ndk1::__function::__func<Tab5::init()::$_1, std::__ndk1::allocator<Tab5::init()::$_1>, void (std::__ndk1::basic_string<char, std::__ndk1::char_traits<char>, std::__ndk1::allocator<char> > const&)>::__clone(std::__ndk1::__function::__base<void (std::__ndk1::basic_string<char, std::__ndk1::char_traits<char>, std::__ndk1::allocator<char> > const&)>*) const
FUNC 2c920 2 0 std::__ndk1::__function::__func<Tab5::init()::$_1, std::__ndk1::allocator<Tab5::init()::$_1>, void (std::__ndk1::basic_string<char, std::__ndk1::char_traits<char>, std::__ndk1::allocator<char> > const&)>::destroy()
FUNC 2c922 4 0 std::__ndk1::__function::__func<Tab5::init()::$_1, std::__ndk1::allocator<Tab5::init()::$_1>, void (std::__ndk1::basic_string<char, std::__ndk1::char_traits<char>, std::__ndk1::allocator<char> > const&)>::destroy_deallocate()
FUNC 2c928 68 0 std::__ndk1::__function::__func<Tab5::init()::$_1, std::__ndk1::allocator<Tab5::init()::$_1>, void (std::__ndk1::basic_string<char, std::__ndk1::char_traits<char>, std::__ndk1::allocator<char> > const&)>::operator()(std::__ndk1::basic_string<char, std::__ndk1::char_traits<char>, std::__ndk1::allocator<char> > const&)
FUNC 2c990 18 0 std::__ndk1::__function::__func<Tab5::init()::$_1, std::__ndk1::allocator<Tab5::init()::$_1>, void (std::__ndk1::basic_string<char, std::__ndk1::char_traits<char>, std::__ndk1::allocator<char> > const&)>::target(std::type_info const&) const
FUNC 2c9a8 c 0 std::__ndk1::__function::__func<Tab5::init()::$_1, std::__ndk1::allocator<Tab5::init()::$_1>, void (std::__ndk1::basic_string<char, std::__ndk1::char_traits<char>, std::__ndk1::allocator<char> > const&)>::target_type() const
FUNC 2c9b4 4 0 std::__ndk1::__function::__func<Tab5::init()::$_2, std::__ndk1::allocator<Tab5::init()::$_2>, void (std::__ndk1::basic_string<char, std::__ndk1::char_traits<char>, std::__ndk1::allocator<char> > const&)>::~__func()
FUNC 2c9b8 20 0 std::__ndk1::__function::__func<Tab5::init()::$_2, std::__ndk1::allocator<Tab5::init()::$_2>, void (std::__ndk1::basic_string<char, std::__ndk1::char_traits<char>, std::__ndk1::allocator<char> > const&)>::__clone() const
FUNC 2c9d8 14 0 std::__ndk1::__function::__func<Tab5::init()::$_2, std::__ndk1::allocator<Tab5::init()::$_2>, void (std::__ndk1::basic_string<char, std::__ndk1::char_traits<char>, std::__ndk1::allocator<char> > const&)>::__clone(std::__ndk1::__function::__base<void (std::__ndk1::basic_string<char, std::__ndk1::char_traits<char>, std::__ndk1::allocator<char> > const&)>*) const
FUNC 2c9ec 2 0 std::__ndk1::__function::__func<Tab5::init()::$_2, std::__ndk1::allocator<Tab5::init()::$_2>, void (std::__ndk1::basic_string<char, std::__ndk1::char_traits<char>, std::__ndk1::allocator<char> > const&)>::destroy()
FUNC 2c9ee 4 0 std::__ndk1::__function::__func<Tab5::init()::$_2, std::__ndk1::allocator<Tab5::init()::$_2>, void (std::__ndk1::basic_string<char, std::__ndk1::char_traits<char>, std::__ndk1::allocator<char> > const&)>::destroy_deallocate()
FUNC 2c9f4 68 0 std::__ndk1::__function::__func<Tab5::init()::$_2, std::__ndk1::allocator<Tab5::init()::$_2>, void (std::__ndk1::basic_string<char, std::__ndk1::char_traits<char>, std::__ndk1::allocator<char> > const&)>::operator()(std::__ndk1::basic_string<char, std::__ndk1::char_traits<char>, std::__ndk1::allocator<char> > const&)
FUNC 2ca5c 18 0 std::__ndk1::__function::__func<Tab5::init()::$_2, std::__ndk1::allocator<Tab5::init()::$_2>, void (std::__ndk1::basic_string<char, std::__ndk1::char_traits<char>, std::__ndk1::allocator<char> > const&)>::target(std::type_info const&) const
FUNC 2ca74 c 0 std::__ndk1::__function::__func<Tab5::init()::$_2, std::__ndk1::allocator<Tab5::init()::$_2>, void (std::__ndk1::basic_string<char, std::__ndk1::char_traits<char>, std::__ndk1::allocator<char> > const&)>::target_type() const
FUNC 2ca80 4 0 std::__ndk1::__function::__func<Tab5::init()::$_3, std::__ndk1::allocator<Tab5::init()::$_3>, void (std::__ndk1::basic_string<char, std::__ndk1::char_traits<char>, std::__ndk1::allocator<char> > const&)>::~__func()
FUNC 2ca84 20 0 std::__ndk1::__function::__func<Tab5::init()::$_3, std::__ndk1::allocator<Tab5::init()::$_3>, void (std::__ndk1::basic_string<char, std::__ndk1::char_traits<char>, std::__ndk1::allocator<char> > const&)>::__clone() const
FUNC 2caa4 14 0 std::__ndk1::__function::__func<Tab5::init()::$_3, std::__ndk1::allocator<Tab5::init()::$_3>, void (std::__ndk1::basic_string<char, std::__ndk1::char_traits<char>, std::__ndk1::allocator<char> > const&)>::__clone(std::__ndk1::__function::__base<void (std::__ndk1::basic_string<char, std::__ndk1::char_traits<char>, std::__ndk1::allocator<char> > const&)>*) const
FUNC 2cab8 2 0 std::__ndk1::__function::__func<Tab5::init()::$_3, std::__ndk1::allocator<Tab5::init()::$_3>, void (std::__ndk1::basic_string<char, std::__ndk1::char_traits<char>, std::__ndk1::allocator<char> > const&)>::destroy()
FUNC 2caba 4 0 std::__ndk1::__function::__func<Tab5::init()::$_3, std::__ndk1::allocator<Tab5::init()::$_3>, void (std::__ndk1::basic_string<char, std::__ndk1::char_traits<char>, std::__ndk1::allocator<char> > const&)>::destroy_deallocate()
FUNC 2cac0 68 0 std::__ndk1::__function::__func<Tab5::init()::$_3, std::__ndk1::allocator<Tab5::init()::$_3>, void (std::__ndk1::basic_string<char, std::__ndk1::char_traits<char>, std::__ndk1::allocator<char> > const&)>::operator()(std::__ndk1::basic_string<char, std::__ndk1::char_traits<char>, std::__ndk1::allocator<char> > const&)
FUNC 2cb28 18 0 std::__ndk1::__function::__func<Tab5::init()::$_3, std::__ndk1::allocator<Tab5::init()::$_3>, void (std::__ndk1::basic_string<char, std::__ndk1::char_traits<char>, std::__ndk1::allocator<char> > const&)>::target(std::type_info const&) const
FUNC 2cb40 c 0 std::__ndk1::__function::__func<Tab5::init()::$_3, std::__ndk1::allocator<Tab5::init()::$_3>, void (std::__ndk1::basic_string<char, std::__ndk1::char_traits<char>, std::__ndk1::allocator<char> > const&)>::target_type() const
FUNC 2cb4c 4 0 std::__ndk1::__function::__func<Tab5::init()::$_4, std::__ndk1::allocator<Tab5::init()::$_4>, void (std::__ndk1::basic_string<char, std::__ndk1::char_traits<char>, std::__ndk1::allocator<char> > const&)>::~__func()
FUNC 2cb50 20 0 std::__ndk1::__function::__func<Tab5::init()::$_4, std::__ndk1::allocator<Tab5::init()::$_4>, void (std::__ndk1::basic_string<char, std::__ndk1::char_traits<char>, std::__ndk1::allocator<char> > const&)>::__clone() const
FUNC 2cb70 14 0 std::__ndk1::__function::__func<Tab5::init()::$_4, std::__ndk1::allocator<Tab5::init()::$_4>, void (std::__ndk1::basic_string<char, std::__ndk1::char_traits<char>, std::__ndk1::allocator<char> > const&)>::__clone(std::__ndk1::__function::__base<void (std::__ndk1::basic_string<char, std::__ndk1::char_traits<char>, std::__ndk1::allocator<char> > const&)>*) const
FUNC 2cb84 2 0 std::__ndk1::__function::__func<Tab5::init()::$_4, std::__ndk1::allocator<Tab5::init()::$_4>, void (std::__ndk1::basic_string<char, std::__ndk1::char_traits<char>, std::__ndk1::allocator<char> > const&)>::destroy()
FUNC 2cb86 4 0 std::__ndk1::__function::__func<Tab5::init()::$_4, std::__ndk1::allocator<Tab5::init()::$_4>, void (std::__ndk1::basic_string<char, std::__ndk1::char_traits<char>, std::__ndk1::allocator<char> > const&)>::destroy_deallocate()
FUNC 2cb8c 68 0 std::__ndk1::__function::__func<Tab5::init()::$_4, std::__ndk1::allocator<Tab5::init()::$_4>, void (std::__ndk1::basic_string<char, std::__ndk1::char_traits<char>, std::__ndk1::allocator<char> > const&)>::operator()(std::__ndk1::basic_string<char, std::__ndk1::char_traits<char>, std::__ndk1::allocator<char> > const&)
FUNC 2cbf4 18 0 std::__ndk1::__function::__func<Tab5::init()::$_4, std::__ndk1::allocator<Tab5::init()::$_4>, void (std::__ndk1::basic_string<char, std::__ndk1::char_traits<char>, std::__ndk1::allocator<char> > const&)>::target(std::type_info const&) const
FUNC 2cc0c c 0 std::__ndk1::__function::__func<Tab5::init()::$_4, std::__ndk1::allocator<Tab5::init()::$_4>, void (std::__ndk1::basic_string<char, std::__ndk1::char_traits<char>, std::__ndk1::allocator<char> > const&)>::target_type() const
FUNC 2cc18 4 0 std::__ndk1::__function::__func<Tab5::init()::$_5, std::__ndk1::allocator<Tab5::init()::$_5>, void (std::__ndk1::basic_string<char, std::__ndk1::char_traits<char>, std::__ndk1::allocator<char> > const&)>::~__func()
FUNC 2cc1c 20 0 std::__ndk1::__function::__func<Tab5::init()::$_5, std::__ndk1::allocator<Tab5::init()::$_5>, void (std::__ndk1::basic_string<char, std::__ndk1::char_traits<char>, std::__ndk1::allocator<char> > const&)>::__clone() const
FUNC 2cc3c 14 0 std::__ndk1::__function::__func<Tab5::init()::$_5, std::__ndk1::allocator<Tab5::init()::$_5>, void (std::__ndk1::basic_string<char, std::__ndk1::char_traits<char>, std::__ndk1::allocator<char> > const&)>::__clone(std::__ndk1::__function::__base<void (std::__ndk1::basic_string<char, std::__ndk1::char_traits<char>, std::__ndk1::allocator<char> > const&)>*) const
FUNC 2cc50 2 0 std::__ndk1::__function::__func<Tab5::init()::$_5, std::__ndk1::allocator<Tab5::init()::$_5>, void (std::__ndk1::basic_string<char, std::__ndk1::char_traits<char>, std::__ndk1::allocator<char> > const&)>::destroy()
FUNC 2cc52 4 0 std::__ndk1::__function::__func<Tab5::init()::$_5, std::__ndk1::allocator<Tab5::init()::$_5>, void (std::__ndk1::basic_string<char, std::__ndk1::char_traits<char>, std::__ndk1::allocator<char> > const&)>::destroy_deallocate()
FUNC 2cc58 68 0 std::__ndk1::__function::__func<Tab5::init()::$_5, std::__ndk1::allocator<Tab5::init()::$_5>, void (std::__ndk1::basic_string<char, std::__ndk1::char_traits<char>, std::__ndk1::allocator<char> > const&)>::operator()(std::__ndk1::basic_string<char, std::__ndk1::char_traits<char>, std::__ndk1::allocator<char> > const&)
FUNC 2ccc0 18 0 std::__ndk1::__function::__func<Tab5::init()::$_5, std::__ndk1::allocator<Tab5::init()::$_5>, void (std::__ndk1::basic_string<char, std::__ndk1::char_traits<char>, std::__ndk1::allocator<char> > const&)>::target(std::type_info const&) const
FUNC 2ccd8 c 0 std::__ndk1::__function::__func<Tab5::init()::$_5, std::__ndk1::allocator<Tab5::init()::$_5>, void (std::__ndk1::basic_string<char, std::__ndk1::char_traits<char>, std::__ndk1::allocator<char> > const&)>::target_type() const
FUNC 2cce4 4 0 std::__ndk1::__function::__func<Tab5::init()::$_6, std::__ndk1::allocator<Tab5::init()::$_6>, void (std::__ndk1::basic_string<char, std::__ndk1::char_traits<char>, std::__ndk1::allocator<char> > const&)>::~__func()
FUNC 2cce8 20 0 std::__ndk1::__function::__func<Tab5::init()::$_6, std::__ndk1::allocator<Tab5::init()::$_6>, void (std::__ndk1::basic_string<char, std::__ndk1::char_traits<char>, std::__ndk1::allocator<char> > const&)>::__clone() const
FUNC 2cd08 14 0 std::__ndk1::__function::__func<Tab5::init()::$_6, std::__ndk1::allocator<Tab5::init()::$_6>, void (std::__ndk1::basic_string<char, std::__ndk1::char_traits<char>, std::__ndk1::allocator<char> > const&)>::__clone(std::__ndk1::__function::__base<void (std::__ndk1::basic_string<char, std::__ndk1::char_traits<char>, std::__ndk1::allocator<char> > const&)>*) const
FUNC 2cd1c 2 0 std::__ndk1::__function::__func<Tab5::init()::$_6, std::__ndk1::allocator<Tab5::init()::$_6>, void (std::__ndk1::basic_string<char, std::__ndk1::char_traits<char>, std::__ndk1::allocator<char> > const&)>::destroy()
FUNC 2cd1e 4 0 std::__ndk1::__function::__func<Tab5::init()::$_6, std::__ndk1::allocator<Tab5::init()::$_6>, void (std::__ndk1::basic_string<char, std::__ndk1::char_traits<char>, std::__ndk1::allocator<char> > const&)>::destroy_deallocate()
FUNC 2cd24 68 0 std::__ndk1::__function::__func<Tab5::init()::$_6, std::__ndk1::allocator<Tab5::init()::$_6>, void (std::__ndk1::basic_string<char, std::__ndk1::char_traits<char>, std::__ndk1::allocator<char> > const&)>::operator()(std::__ndk1::basic_string<char, std::__ndk1::char_traits<char>, std::__ndk1::allocator<char> > const&)
FUNC 2cd8c 18 0 std::__ndk1::__function::__func<Tab5::init()::$_6, std::__ndk1::allocator<Tab5::init()::$_6>, void (std::__ndk1::basic_string<char, std::__ndk1::char_traits<char>, std::__ndk1::allocator<char> > const&)>::target(std::type_info const&) const
FUNC 2cda4 c 0 std::__ndk1::__function::__func<Tab5::init()::$_6, std::__ndk1::allocator<Tab5::init()::$_6>, void (std::__ndk1::basic_string<char, std::__ndk1::char_traits<char>, std::__ndk1::allocator<char> > const&)>::target_type() const
FUNC 2cdb0 4 0 std::__ndk1::__function::__func<Tab5::init()::$_7, std::__ndk1::allocator<Tab5::init()::$_7>, void (std::__ndk1::basic_string<char, std::__ndk1::char_traits<char>, std::__ndk1::allocator<char> > const&)>::~__func()
FUNC 2cdb4 20 0 std::__ndk1::__function::__func<Tab5::init()::$_7, std::__ndk1::allocator<Tab5::init()::$_7>, void (std::__ndk1::basic_string<char, std::__ndk1::char_traits<char>, std::__ndk1::allocator<char> > const&)>::__clone() const
FUNC 2cdd4 14 0 std::__ndk1::__function::__func<Tab5::init()::$_7, std::__ndk1::allocator<Tab5::init()::$_7>, void (std::__ndk1::basic_string<char, std::__ndk1::char_traits<char>, std::__ndk1::allocator<char> > const&)>::__clone(std::__ndk1::__function::__base<void (std::__ndk1::basic_string<char, std::__ndk1::char_traits<char>, std::__ndk1::allocator<char> > const&)>*) const
FUNC 2cde8 2 0 std::__ndk1::__function::__func<Tab5::init()::$_7, std::__ndk1::allocator<Tab5::init()::$_7>, void (std::__ndk1::basic_string<char, std::__ndk1::char_traits<char>, std::__ndk1::allocator<char> > const&)>::destroy()
FUNC 2cdea 4 0 std::__ndk1::__function::__func<Tab5::init()::$_7, std::__ndk1::allocator<Tab5::init()::$_7>, void (std::__ndk1::basic_string<char, std::__ndk1::char_traits<char>, std::__ndk1::allocator<char> > const&)>::destroy_deallocate()
FUNC 2cdf0 68 0 std::__ndk1::__function::__func<Tab5::init()::$_7, std::__ndk1::allocator<Tab5::init()::$_7>, void (std::__ndk1::basic_string<char, std::__ndk1::char_traits<char>, std::__ndk1::allocator<char> > const&)>::operator()(std::__ndk1::basic_string<char, std::__ndk1::char_traits<char>, std::__ndk1::allocator<char> > const&)
FUNC 2ce58 18 0 std::__ndk1::__function::__func<Tab5::init()::$_7, std::__ndk1::allocator<Tab5::init()::$_7>, void (std::__ndk1::basic_string<char, std::__ndk1::char_traits<char>, std::__ndk1::allocator<char> > const&)>::target(std::type_info const&) const
FUNC 2ce70 c 0 std::__ndk1::__function::__func<Tab5::init()::$_7, std::__ndk1::allocator<Tab5::init()::$_7>, void (std::__ndk1::basic_string<char, std::__ndk1::char_traits<char>, std::__ndk1::allocator<char> > const&)>::target_type() const
FUNC 2ce7c 4 0 std::__ndk1::__function::__func<Tab5::init()::$_8, std::__ndk1::allocator<Tab5::init()::$_8>, void (std::__ndk1::basic_string<char, std::__ndk1::char_traits<char>, std::__ndk1::allocator<char> > const&)>::~__func()
FUNC 2ce80 20 0 std::__ndk1::__function::__func<Tab5::init()::$_8, std::__ndk1::allocator<Tab5::init()::$_8>, void (std::__ndk1::basic_string<char, std::__ndk1::char_traits<char>, std::__ndk1::allocator<char> > const&)>::__clone() const
FUNC 2cea0 14 0 std::__ndk1::__function::__func<Tab5::init()::$_8, std::__ndk1::allocator<Tab5::init()::$_8>, void (std::__ndk1::basic_string<char, std::__ndk1::char_traits<char>, std::__ndk1::allocator<char> > const&)>::__clone(std::__ndk1::__function::__base<void (std::__ndk1::basic_string<char, std::__ndk1::char_traits<char>, std::__ndk1::allocator<char> > const&)>*) const
FUNC 2ceb4 2 0 std::__ndk1::__function::__func<Tab5::init()::$_8, std::__ndk1::allocator<Tab5::init()::$_8>, void (std::__ndk1::basic_string<char, std::__ndk1::char_traits<char>, std::__ndk1::allocator<char> > const&)>::destroy()
FUNC 2ceb6 4 0 std::__ndk1::__function::__func<Tab5::init()::$_8, std::__ndk1::allocator<Tab5::init()::$_8>, void (std::__ndk1::basic_string<char, std::__ndk1::char_traits<char>, std::__ndk1::allocator<char> > const&)>::destroy_deallocate()
FUNC 2cebc 68 0 std::__ndk1::__function::__func<Tab5::init()::$_8, std::__ndk1::allocator<Tab5::init()::$_8>, void (std::__ndk1::basic_string<char, std::__ndk1::char_traits<char>, std::__ndk1::allocator<char> > const&)>::operator()(std::__ndk1::basic_string<char, std::__ndk1::char_traits<char>, std::__ndk1::allocator<char> > const&)
FUNC 2cf24 18 0 std::__ndk1::__function::__func<Tab5::init()::$_8, std::__ndk1::allocator<Tab5::init()::$_8>, void (std::__ndk1::basic_string<char, std::__ndk1::char_traits<char>, std::__ndk1::allocator<char> > const&)>::target(std::type_info const&) const
FUNC 2cf3c c 0 std::__ndk1::__function::__func<Tab5::init()::$_8, std::__ndk1::allocator<Tab5::init()::$_8>, void (std::__ndk1::basic_string<char, std::__ndk1::char_traits<char>, std::__ndk1::allocator<char> > const&)>::target_type() const
FUNC 2cf48 4 0 std::__ndk1::__function::__func<Tab5::init()::$_9, std::__ndk1::allocator<Tab5::init()::$_9>, void (std::__ndk1::basic_string<char, std::__ndk1::char_traits<char>, std::__ndk1::allocator<char> > const&)>::~__func()
FUNC 2cf4c 20 0 std::__ndk1::__function::__func<Tab5::init()::$_9, std::__ndk1::allocator<Tab5::init()::$_9>, void (std::__ndk1::basic_string<char, std::__ndk1::char_traits<char>, std::__ndk1::allocator<char> > const&)>::__clone() const
FUNC 2cf6c 14 0 std::__ndk1::__function::__func<Tab5::init()::$_9, std::__ndk1::allocator<Tab5::init()::$_9>, void (std::__ndk1::basic_string<char, std::__ndk1::char_traits<char>, std::__ndk1::allocator<char> > const&)>::__clone(std::__ndk1::__function::__base<void (std::__ndk1::basic_string<char, std::__ndk1::char_traits<char>, std::__ndk1::allocator<char> > const&)>*) const
FUNC 2cf80 2 0 std::__ndk1::__function::__func<Tab5::init()::$_9, std::__ndk1::allocator<Tab5::init()::$_9>, void (std::__ndk1::basic_string<char, std::__ndk1::char_traits<char>, std::__ndk1::allocator<char> > const&)>::destroy()
FUNC 2cf82 4 0 std::__ndk1::__function::__func<Tab5::init()::$_9, std::__ndk1::allocator<Tab5::init()::$_9>, void (std::__ndk1::basic_string<char, std::__ndk1::char_traits<char>, std::__ndk1::allocator<char> > const&)>::destroy_deallocate()
FUNC 2cf88 68 0 std::__ndk1::__function::__func<Tab5::init()::$_9, std::__ndk1::allocator<Tab5::init()::$_9>, void (std::__ndk1::basic_string<char, std::__ndk1::char_traits<char>, std::__ndk1::allocator<char> > const&)>::operator()(std::__ndk1::basic_string<char, std::__ndk1::char_traits<char>, std::__ndk1::allocator<char> > const&)
FUNC 2cff0 18 0 std::__ndk1::__function::__func<Tab5::init()::$_9, std::__ndk1::allocator<Tab5::init()::$_9>, void (std::__ndk1::basic_string<char, std::__ndk1::char_traits<char>, std::__ndk1::allocator<char> > const&)>::target(std::type_info const&) const
FUNC 2d008 c 0 std::__ndk1::__function::__func<Tab5::init()::$_9, std::__ndk1::allocator<Tab5::init()::$_9>, void (std::__ndk1::basic_string<char, std::__ndk1::char_traits<char>, std::__ndk1::allocator<char> > const&)>::target_type() const
FUNC 2d014 4 0 std::__ndk1::__function::__func<Tab5::init()::$_10, std::__ndk1::allocator<Tab5::init()::$_10>, void (std::__ndk1::basic_string<char, std::__ndk1::char_traits<char>, std::__ndk1::allocator<char> > const&)>::~__func()
FUNC 2d018 20 0 std::__ndk1::__function::__func<Tab5::init()::$_10, std::__ndk1::allocator<Tab5::init()::$_10>, void (std::__ndk1::basic_string<char, std::__ndk1::char_traits<char>, std::__ndk1::allocator<char> > const&)>::__clone() const
FUNC 2d038 14 0 std::__ndk1::__function::__func<Tab5::init()::$_10, std::__ndk1::allocator<Tab5::init()::$_10>, void (std::__ndk1::basic_string<char, std::__ndk1::char_traits<char>, std::__ndk1::allocator<char> > const&)>::__clone(std::__ndk1::__function::__base<void (std::__ndk1::basic_string<char, std::__ndk1::char_traits<char>, std::__ndk1::allocator<char> > const&)>*) const
FUNC 2d04c 2 0 std::__ndk1::__function::__func<Tab5::init()::$_10, std::__ndk1::allocator<Tab5::init()::$_10>, void (std::__ndk1::basic_string<char, std::__ndk1::char_traits<char>, std::__ndk1::allocator<char> > const&)>::destroy()
FUNC 2d04e 4 0 std::__ndk1::__function::__func<Tab5::init()::$_10, std::__ndk1::allocator<Tab5::init()::$_10>, void (std::__ndk1::basic_string<char, std::__ndk1::char_traits<char>, std::__ndk1::allocator<char> > const&)>::destroy_deallocate()
FUNC 2d054 68 0 std::__ndk1::__function::__func<Tab5::init()::$_10, std::__ndk1::allocator<Tab5::init()::$_10>, void (std::__ndk1::basic_string<char, std::__ndk1::char_traits<char>, std::__ndk1::allocator<char> > const&)>::operator()(std::__ndk1::basic_string<char, std::__ndk1::char_traits<char>, std::__ndk1::allocator<char> > const&)
FUNC 2d0bc 18 0 std::__ndk1::__function::__func<Tab5::init()::$_10, std::__ndk1::allocator<Tab5::init()::$_10>, void (std::__ndk1::basic_string<char, std::__ndk1::char_traits<char>, std::__ndk1::allocator<char> > const&)>::target(std::type_info const&) const
FUNC 2d0d4 c 0 std::__ndk1::__function::__func<Tab5::init()::$_10, std::__ndk1::allocator<Tab5::init()::$_10>, void (std::__ndk1::basic_string<char, std::__ndk1::char_traits<char>, std::__ndk1::allocator<char> > const&)>::target_type() const
FUNC 2d0e0 4 0 std::__ndk1::__function::__func<Tab5::init()::$_11, std::__ndk1::allocator<Tab5::init()::$_11>, void (std::__ndk1::basic_string<char, std::__ndk1::char_traits<char>, std::__ndk1::allocator<char> > const&)>::~__func()
FUNC 2d0e4 20 0 std::__ndk1::__function::__func<Tab5::init()::$_11, std::__ndk1::allocator<Tab5::init()::$_11>, void (std::__ndk1::basic_string<char, std::__ndk1::char_traits<char>, std::__ndk1::allocator<char> > const&)>::__clone() const
FUNC 2d104 14 0 std::__ndk1::__function::__func<Tab5::init()::$_11, std::__ndk1::allocator<Tab5::init()::$_11>, void (std::__ndk1::basic_string<char, std::__ndk1::char_traits<char>, std::__ndk1::allocator<char> > const&)>::__clone(std::__ndk1::__function::__base<void (std::__ndk1::basic_string<char, std::__ndk1::char_traits<char>, std::__ndk1::allocator<char> > const&)>*) const
FUNC 2d118 2 0 std::__ndk1::__function::__func<Tab5::init()::$_11, std::__ndk1::allocator<Tab5::init()::$_11>, void (std::__ndk1::basic_string<char, std::__ndk1::char_traits<char>, std::__ndk1::allocator<char> > const&)>::destroy()
FUNC 2d11a 4 0 std::__ndk1::__function::__func<Tab5::init()::$_11, std::__ndk1::allocator<Tab5::init()::$_11>, void (std::__ndk1::basic_string<char, std::__ndk1::char_traits<char>, std::__ndk1::allocator<char> > const&)>::destroy_deallocate()
FUNC 2d120 68 0 std::__ndk1::__function::__func<Tab5::init()::$_11, std::__ndk1::allocator<Tab5::init()::$_11>, void (std::__ndk1::basic_string<char, std::__ndk1::char_traits<char>, std::__ndk1::allocator<char> > const&)>::operator()(std::__ndk1::basic_string<char, std::__ndk1::char_traits<char>, std::__ndk1::allocator<char> > const&)
FUNC 2d188 18 0 std::__ndk1::__function::__func<Tab5::init()::$_11, std::__ndk1::allocator<Tab5::init()::$_11>, void (std::__ndk1::basic_string<char, std::__ndk1::char_traits<char>, std::__ndk1::allocator<char> > const&)>::target(std::type_info const&) const
FUNC 2d1a0 c 0 std::__ndk1::__function::__func<Tab5::init()::$_11, std::__ndk1::allocator<Tab5::init()::$_11>, void (std::__ndk1::basic_string<char, std::__ndk1::char_traits<char>, std::__ndk1::allocator<char> > const&)>::target_type() const
FUNC 2d1ac 4 0 std::__ndk1::__function::__func<Tab5::init()::$_12, std::__ndk1::allocator<Tab5::init()::$_12>, void (std::__ndk1::basic_string<char, std::__ndk1::char_traits<char>, std::__ndk1::allocator<char> > const&)>::~__func()
FUNC 2d1b0 20 0 std::__ndk1::__function::__func<Tab5::init()::$_12, std::__ndk1::allocator<Tab5::init()::$_12>, void (std::__ndk1::basic_string<char, std::__ndk1::char_traits<char>, std::__ndk1::allocator<char> > const&)>::__clone() const
FUNC 2d1d0 14 0 std::__ndk1::__function::__func<Tab5::init()::$_12, std::__ndk1::allocator<Tab5::init()::$_12>, void (std::__ndk1::basic_string<char, std::__ndk1::char_traits<char>, std::__ndk1::allocator<char> > const&)>::__clone(std::__ndk1::__function::__base<void (std::__ndk1::basic_string<char, std::__ndk1::char_traits<char>, std::__ndk1::allocator<char> > const&)>*) const
FUNC 2d1e4 2 0 std::__ndk1::__function::__func<Tab5::init()::$_12, std::__ndk1::allocator<Tab5::init()::$_12>, void (std::__ndk1::basic_string<char, std::__ndk1::char_traits<char>, std::__ndk1::allocator<char> > const&)>::destroy()
FUNC 2d1e6 4 0 std::__ndk1::__function::__func<Tab5::init()::$_12, std::__ndk1::allocator<Tab5::init()::$_12>, void (std::__ndk1::basic_string<char, std::__ndk1::char_traits<char>, std::__ndk1::allocator<char> > const&)>::destroy_deallocate()
FUNC 2d1ec 68 0 std::__ndk1::__function::__func<Tab5::init()::$_12, std::__ndk1::allocator<Tab5::init()::$_12>, void (std::__ndk1::basic_string<char, std::__ndk1::char_traits<char>, std::__ndk1::allocator<char> > const&)>::operator()(std::__ndk1::basic_string<char, std::__ndk1::char_traits<char>, std::__ndk1::allocator<char> > const&)
FUNC 2d254 18 0 std::__ndk1::__function::__func<Tab5::init()::$_12, std::__ndk1::allocator<Tab5::init()::$_12>, void (std::__ndk1::basic_string<char, std::__ndk1::char_traits<char>, std::__ndk1::allocator<char> > const&)>::target(std::type_info const&) const
FUNC 2d26c c 0 std::__ndk1::__function::__func<Tab5::init()::$_12, std::__ndk1::allocator<Tab5::init()::$_12>, void (std::__ndk1::basic_string<char, std::__ndk1::char_traits<char>, std::__ndk1::allocator<char> > const&)>::target_type() const
FUNC 2d278 4 0 std::__ndk1::__function::__func<Tab5::init()::$_13, std::__ndk1::allocator<Tab5::init()::$_13>, void (std::__ndk1::basic_string<char, std::__ndk1::char_traits<char>, std::__ndk1::allocator<char> > const&)>::~__func()
FUNC 2d27c 20 0 std::__ndk1::__function::__func<Tab5::init()::$_13, std::__ndk1::allocator<Tab5::init()::$_13>, void (std::__ndk1::basic_string<char, std::__ndk1::char_traits<char>, std::__ndk1::allocator<char> > const&)>::__clone() const
FUNC 2d29c 14 0 std::__ndk1::__function::__func<Tab5::init()::$_13, std::__ndk1::allocator<Tab5::init()::$_13>, void (std::__ndk1::basic_string<char, std::__ndk1::char_traits<char>, std::__ndk1::allocator<char> > const&)>::__clone(std::__ndk1::__function::__base<void (std::__ndk1::basic_string<char, std::__ndk1::char_traits<char>, std::__ndk1::allocator<char> > const&)>*) const
FUNC 2d2b0 2 0 std::__ndk1::__function::__func<Tab5::init()::$_13, std::__ndk1::allocator<Tab5::init()::$_13>, void (std::__ndk1::basic_string<char, std::__ndk1::char_traits<char>, std::__ndk1::allocator<char> > const&)>::destroy()
FUNC 2d2b2 4 0 std::__ndk1::__function::__func<Tab5::init()::$_13, std::__ndk1::allocator<Tab5::init()::$_13>, void (std::__ndk1::basic_string<char, std::__ndk1::char_traits<char>, std::__ndk1::allocator<char> > const&)>::destroy_deallocate()
FUNC 2d2b8 68 0 std::__ndk1::__function::__func<Tab5::init()::$_13, std::__ndk1::allocator<Tab5::init()::$_13>, void (std::__ndk1::basic_string<char, std::__ndk1::char_traits<char>, std::__ndk1::allocator<char> > const&)>::operator()(std::__ndk1::basic_string<char, std::__ndk1::char_traits<char>, std::__ndk1::allocator<char> > const&)
FUNC 2d320 18 0 std::__ndk1::__function::__func<Tab5::init()::$_13, std::__ndk1::allocator<Tab5::init()::$_13>, void (std::__ndk1::basic_string<char, std::__ndk1::char_traits<char>, std::__ndk1::allocator<char> > const&)>::target(std::type_info const&) const
FUNC 2d338 c 0 std::__ndk1::__function::__func<Tab5::init()::$_13, std::__ndk1::allocator<Tab5::init()::$_13>, void (std::__ndk1::basic_string<char, std::__ndk1::char_traits<char>, std::__ndk1::allocator<char> > const&)>::target_type() const
FUNC 2d344 4 0 std::__ndk1::__function::__func<Tab5::init()::$_14, std::__ndk1::allocator<Tab5::init()::$_14>, void (std::__ndk1::basic_string<char, std::__ndk1::char_traits<char>, std::__ndk1::allocator<char> > const&)>::~__func()
FUNC 2d348 20 0 std::__ndk1::__function::__func<Tab5::init()::$_14, std::__ndk1::allocator<Tab5::init()::$_14>, void (std::__ndk1::basic_string<char, std::__ndk1::char_traits<char>, std::__ndk1::allocator<char> > const&)>::__clone() const
FUNC 2d368 14 0 std::__ndk1::__function::__func<Tab5::init()::$_14, std::__ndk1::allocator<Tab5::init()::$_14>, void (std::__ndk1::basic_string<char, std::__ndk1::char_traits<char>, std::__ndk1::allocator<char> > const&)>::__clone(std::__ndk1::__function::__base<void (std::__ndk1::basic_string<char, std::__ndk1::char_traits<char>, std::__ndk1::allocator<char> > const&)>*) const
FUNC 2d37c 2 0 std::__ndk1::__function::__func<Tab5::init()::$_14, std::__ndk1::allocator<Tab5::init()::$_14>, void (std::__ndk1::basic_string<char, std::__ndk1::char_traits<char>, std::__ndk1::allocator<char> > const&)>::destroy()
FUNC 2d37e 4 0 std::__ndk1::__function::__func<Tab5::init()::$_14, std::__ndk1::allocator<Tab5::init()::$_14>, void (std::__ndk1::basic_string<char, std::__ndk1::char_traits<char>, std::__ndk1::allocator<char> > const&)>::destroy_deallocate()
FUNC 2d384 68 0 std::__ndk1::__function::__func<Tab5::init()::$_14, std::__ndk1::allocator<Tab5::init()::$_14>, void (std::__ndk1::basic_string<char, std::__ndk1::char_traits<char>, std::__ndk1::allocator<char> > const&)>::operator()(std::__ndk1::basic_string<char, std::__ndk1::char_traits<char>, std::__ndk1::allocator<char> > const&)
FUNC 2d3ec 18 0 std::__ndk1::__function::__func<Tab5::init()::$_14, std::__ndk1::allocator<Tab5::init()::$_14>, void (std::__ndk1::basic_string<char, std::__ndk1::char_traits<char>, std::__ndk1::allocator<char> > const&)>::target(std::type_info const&) const
FUNC 2d404 c 0 std::__ndk1::__function::__func<Tab5::init()::$_14, std::__ndk1::allocator<Tab5::init()::$_14>, void (std::__ndk1::basic_string<char, std::__ndk1::char_traits<char>, std::__ndk1::allocator<char> > const&)>::target_type() const
FUNC 2d410 4 0 std::__ndk1::__function::__func<Tab5::init()::$_15, std::__ndk1::allocator<Tab5::init()::$_15>, void (std::__ndk1::basic_string<char, std::__ndk1::char_traits<char>, std::__ndk1::allocator<char> > const&)>::~__func()
FUNC 2d414 20 0 std::__ndk1::__function::__func<Tab5::init()::$_15, std::__ndk1::allocator<Tab5::init()::$_15>, void (std::__ndk1::basic_string<char, std::__ndk1::char_traits<char>, std::__ndk1::allocator<char> > const&)>::__clone() const
FUNC 2d434 14 0 std::__ndk1::__function::__func<Tab5::init()::$_15, std::__ndk1::allocator<Tab5::init()::$_15>, void (std::__ndk1::basic_string<char, std::__ndk1::char_traits<char>, std::__ndk1::allocator<char> > const&)>::__clone(std::__ndk1::__function::__base<void (std::__ndk1::basic_string<char, std::__ndk1::char_traits<char>, std::__ndk1::allocator<char> > const&)>*) const
FUNC 2d448 2 0 std::__ndk1::__function::__func<Tab5::init()::$_15, std::__ndk1::allocator<Tab5::init()::$_15>, void (std::__ndk1::basic_string<char, std::__ndk1::char_traits<char>, std::__ndk1::allocator<char> > const&)>::destroy()
FUNC 2d44a 4 0 std::__ndk1::__function::__func<Tab5::init()::$_15, std::__ndk1::allocator<Tab5::init()::$_15>, void (std::__ndk1::basic_string<char, std::__ndk1::char_traits<char>, std::__ndk1::allocator<char> > const&)>::destroy_deallocate()
FUNC 2d450 68 0 std::__ndk1::__function::__func<Tab5::init()::$_15, std::__ndk1::allocator<Tab5::init()::$_15>, void (std::__ndk1::basic_string<char, std::__ndk1::char_traits<char>, std::__ndk1::allocator<char> > const&)>::operator()(std::__ndk1::basic_string<char, std::__ndk1::char_traits<char>, std::__ndk1::allocator<char> > const&)
FUNC 2d4b8 18 0 std::__ndk1::__function::__func<Tab5::init()::$_15, std::__ndk1::allocator<Tab5::init()::$_15>, void (std::__ndk1::basic_string<char, std::__ndk1::char_traits<char>, std::__ndk1::allocator<char> > const&)>::target(std::type_info const&) const
FUNC 2d4d0 c 0 std::__ndk1::__function::__func<Tab5::init()::$_15, std::__ndk1::allocator<Tab5::init()::$_15>, void (std::__ndk1::basic_string<char, std::__ndk1::char_traits<char>, std::__ndk1::allocator<char> > const&)>::target_type() const
FUNC 2d4dc 4 0 std::__ndk1::__function::__func<Tab5::init()::$_16, std::__ndk1::allocator<Tab5::init()::$_16>, void (std::__ndk1::basic_string<char, std::__ndk1::char_traits<char>, std::__ndk1::allocator<char> > const&)>::~__func()
FUNC 2d4e0 20 0 std::__ndk1::__function::__func<Tab5::init()::$_16, std::__ndk1::allocator<Tab5::init()::$_16>, void (std::__ndk1::basic_string<char, std::__ndk1::char_traits<char>, std::__ndk1::allocator<char> > const&)>::__clone() const
FUNC 2d500 14 0 std::__ndk1::__function::__func<Tab5::init()::$_16, std::__ndk1::allocator<Tab5::init()::$_16>, void (std::__ndk1::basic_string<char, std::__ndk1::char_traits<char>, std::__ndk1::allocator<char> > const&)>::__clone(std::__ndk1::__function::__base<void (std::__ndk1::basic_string<char, std::__ndk1::char_traits<char>, std::__ndk1::allocator<char> > const&)>*) const
FUNC 2d514 2 0 std::__ndk1::__function::__func<Tab5::init()::$_16, std::__ndk1::allocator<Tab5::init()::$_16>, void (std::__ndk1::basic_string<char, std::__ndk1::char_traits<char>, std::__ndk1::allocator<char> > const&)>::destroy()
FUNC 2d516 4 0 std::__ndk1::__function::__func<Tab5::init()::$_16, std::__ndk1::allocator<Tab5::init()::$_16>, void (std::__ndk1::basic_string<char, std::__ndk1::char_traits<char>, std::__ndk1::allocator<char> > const&)>::destroy_deallocate()
FUNC 2d51c 68 0 std::__ndk1::__function::__func<Tab5::init()::$_16, std::__ndk1::allocator<Tab5::init()::$_16>, void (std::__ndk1::basic_string<char, std::__ndk1::char_traits<char>, std::__ndk1::allocator<char> > const&)>::operator()(std::__ndk1::basic_string<char, std::__ndk1::char_traits<char>, std::__ndk1::allocator<char> > const&)
FUNC 2d584 18 0 std::__ndk1::__function::__func<Tab5::init()::$_16, std::__ndk1::allocator<Tab5::init()::$_16>, void (std::__ndk1::basic_string<char, std::__ndk1::char_traits<char>, std::__ndk1::allocator<char> > const&)>::target(std::type_info const&) const
FUNC 2d59c c 0 std::__ndk1::__function::__func<Tab5::init()::$_16, std::__ndk1::allocator<Tab5::init()::$_16>, void (std::__ndk1::basic_string<char, std::__ndk1::char_traits<char>, std::__ndk1::allocator<char> > const&)>::target_type() const
FUNC 2d5a8 4 0 std::__ndk1::__function::__func<Tab5::init()::$_17, std::__ndk1::allocator<Tab5::init()::$_17>, void (std::__ndk1::basic_string<char, std::__ndk1::char_traits<char>, std::__ndk1::allocator<char> > const&)>::~__func()
FUNC 2d5ac 20 0 std::__ndk1::__function::__func<Tab5::init()::$_17, std::__ndk1::allocator<Tab5::init()::$_17>, void (std::__ndk1::basic_string<char, std::__ndk1::char_traits<char>, std::__ndk1::allocator<char> > const&)>::__clone() const
FUNC 2d5cc 14 0 std::__ndk1::__function::__func<Tab5::init()::$_17, std::__ndk1::allocator<Tab5::init()::$_17>, void (std::__ndk1::basic_string<char, std::__ndk1::char_traits<char>, std::__ndk1::allocator<char> > const&)>::__clone(std::__ndk1::__function::__base<void (std::__ndk1::basic_string<char, std::__ndk1::char_traits<char>, std::__ndk1::allocator<char> > const&)>*) const
FUNC 2d5e0 2 0 std::__ndk1::__function::__func<Tab5::init()::$_17, std::__ndk1::allocator<Tab5::init()::$_17>, void (std::__ndk1::basic_string<char, std::__ndk1::char_traits<char>, std::__ndk1::allocator<char> > const&)>::destroy()
FUNC 2d5e2 4 0 std::__ndk1::__function::__func<Tab5::init()::$_17, std::__ndk1::allocator<Tab5::init()::$_17>, void (std::__ndk1::basic_string<char, std::__ndk1::char_traits<char>, std::__ndk1::allocator<char> > const&)>::destroy_deallocate()
FUNC 2d5e8 68 0 std::__ndk1::__function::__func<Tab5::init()::$_17, std::__ndk1::allocator<Tab5::init()::$_17>, void (std::__ndk1::basic_string<char, std::__ndk1::char_traits<char>, std::__ndk1::allocator<char> > const&)>::operator()(std::__ndk1::basic_string<char, std::__ndk1::char_traits<char>, std::__ndk1::allocator<char> > const&)
FUNC 2d650 18 0 std::__ndk1::__function::__func<Tab5::init()::$_17, std::__ndk1::allocator<Tab5::init()::$_17>, void (std::__ndk1::basic_string<char, std::__ndk1::char_traits<char>, std::__ndk1::allocator<char> > const&)>::target(std::type_info const&) const
FUNC 2d668 c 0 std::__ndk1::__function::__func<Tab5::init()::$_17, std::__ndk1::allocator<Tab5::init()::$_17>, void (std::__ndk1::basic_string<char, std::__ndk1::char_traits<char>, std::__ndk1::allocator<char> > const&)>::target_type() const
FUNC 2d674 4 0 std::__ndk1::__function::__func<Tab5::init()::$_18, std::__ndk1::allocator<Tab5::init()::$_18>, void (std::__ndk1::basic_string<char, std::__ndk1::char_traits<char>, std::__ndk1::allocator<char> > const&)>::~__func()
FUNC 2d678 20 0 std::__ndk1::__function::__func<Tab5::init()::$_18, std::__ndk1::allocator<Tab5::init()::$_18>, void (std::__ndk1::basic_string<char, std::__ndk1::char_traits<char>, std::__ndk1::allocator<char> > const&)>::__clone() const
FUNC 2d698 14 0 std::__ndk1::__function::__func<Tab5::init()::$_18, std::__ndk1::allocator<Tab5::init()::$_18>, void (std::__ndk1::basic_string<char, std::__ndk1::char_traits<char>, std::__ndk1::allocator<char> > const&)>::__clone(std::__ndk1::__function::__base<void (std::__ndk1::basic_string<char, std::__ndk1::char_traits<char>, std::__ndk1::allocator<char> > const&)>*) const
FUNC 2d6ac 2 0 std::__ndk1::__function::__func<Tab5::init()::$_18, std::__ndk1::allocator<Tab5::init()::$_18>, void (std::__ndk1::basic_string<char, std::__ndk1::char_traits<char>, std::__ndk1::allocator<char> > const&)>::destroy()
FUNC 2d6ae 4 0 std::__ndk1::__function::__func<Tab5::init()::$_18, std::__ndk1::allocator<Tab5::init()::$_18>, void (std::__ndk1::basic_string<char, std::__ndk1::char_traits<char>, std::__ndk1::allocator<char> > const&)>::destroy_deallocate()
FUNC 2d6b4 68 0 std::__ndk1::__function::__func<Tab5::init()::$_18, std::__ndk1::allocator<Tab5::init()::$_18>, void (std::__ndk1::basic_string<char, std::__ndk1::char_traits<char>, std::__ndk1::allocator<char> > const&)>::operator()(std::__ndk1::basic_string<char, std::__ndk1::char_traits<char>, std::__ndk1::allocator<char> > const&)
FUNC 2d71c 18 0 std::__ndk1::__function::__func<Tab5::init()::$_18, std::__ndk1::allocator<Tab5::init()::$_18>, void (std::__ndk1::basic_string<char, std::__ndk1::char_traits<char>, std::__ndk1::allocator<char> > const&)>::target(std::type_info const&) const
FUNC 2d734 c 0 std::__ndk1::__function::__func<Tab5::init()::$_18, std::__ndk1::allocator<Tab5::init()::$_18>, void (std::__ndk1::basic_string<char, std::__ndk1::char_traits<char>, std::__ndk1::allocator<char> > const&)>::target_type() const
FUNC 2d740 4 0 std::__ndk1::__function::__func<Tab5::init()::$_19, std::__ndk1::allocator<Tab5::init()::$_19>, void (std::__ndk1::basic_string<char, std::__ndk1::char_traits<char>, std::__ndk1::allocator<char> > const&)>::~__func()
FUNC 2d744 20 0 std::__ndk1::__function::__func<Tab5::init()::$_19, std::__ndk1::allocator<Tab5::init()::$_19>, void (std::__ndk1::basic_string<char, std::__ndk1::char_traits<char>, std::__ndk1::allocator<char> > const&)>::__clone() const
FUNC 2d764 14 0 std::__ndk1::__function::__func<Tab5::init()::$_19, std::__ndk1::allocator<Tab5::init()::$_19>, void (std::__ndk1::basic_string<char, std::__ndk1::char_traits<char>, std::__ndk1::allocator<char> > const&)>::__clone(std::__ndk1::__function::__base<void (std::__ndk1::basic_string<char, std::__ndk1::char_traits<char>, std::__ndk1::allocator<char> > const&)>*) const
FUNC 2d778 2 0 std::__ndk1::__function::__func<Tab5::init()::$_19, std::__ndk1::allocator<Tab5::init()::$_19>, void (std::__ndk1::basic_string<char, std::__ndk1::char_traits<char>, std::__ndk1::allocator<char> > const&)>::destroy()
FUNC 2d77a 4 0 std::__ndk1::__function::__func<Tab5::init()::$_19, std::__ndk1::allocator<Tab5::init()::$_19>, void (std::__ndk1::basic_string<char, std::__ndk1::char_traits<char>, std::__ndk1::allocator<char> > const&)>::destroy_deallocate()
FUNC 2d780 68 0 std::__ndk1::__function::__func<Tab5::init()::$_19, std::__ndk1::allocator<Tab5::init()::$_19>, void (std::__ndk1::basic_string<char, std::__ndk1::char_traits<char>, std::__ndk1::allocator<char> > const&)>::operator()(std::__ndk1::basic_string<char, std::__ndk1::char_traits<char>, std::__ndk1::allocator<char> > const&)
FUNC 2d7e8 18 0 std::__ndk1::__function::__func<Tab5::init()::$_19, std::__ndk1::allocator<Tab5::init()::$_19>, void (std::__ndk1::basic_string<char, std::__ndk1::char_traits<char>, std::__ndk1::allocator<char> > const&)>::target(std::type_info const&) const
FUNC 2d800 c 0 std::__ndk1::__function::__func<Tab5::init()::$_19, std::__ndk1::allocator<Tab5::init()::$_19>, void (std::__ndk1::basic_string<char, std::__ndk1::char_traits<char>, std::__ndk1::allocator<char> > const&)>::target_type() const
FUNC 2d80c 20 0 geodeImplicitEntry
FUNC 2d82c 28 0 std::__ndk1::unordered_map<void*, bool, std::__ndk1::hash<void*>, std::__ndk1::equal_to<void*>, std::__ndk1::allocator<std::__ndk1::pair<void* const, bool> > >::~unordered_map[abi:ne180000]()
FUNC 2d854 cc 0 wrapFunction(unsigned int, tulip::hook::WrapperMetadata const&)
FUNC 2d920 48 0 geode::impl::ResultData<void*, std::__ndk1::basic_string<char, std::__ndk1::char_traits<char>, std::__ndk1::allocator<char> > >::unwrapErr() &
FUNC 2d968 60 0 geode::impl::ResultData<void*, std::__ndk1::basic_string<char, std::__ndk1::char_traits<char>, std::__ndk1::allocator<char> > >::~ResultData()
FUNC 2d9c8 46 0 tulip::hook::WrapperMetadata::~WrapperMetadata()
FUNC 2da0e 10 0 cocos2d::CCObject::~CCObject()
FUNC 2da1e 10 0 cocos2d::CCNode::~CCNode()
FUNC 2da2e 8 0 {virtual override thunk({offset(-264)}, cocos2d::CCLayer::~CCLayer())}
FUNC 2da36 10 0 cocos2d::CCLayer::~CCLayer()
FUNC 2da46 14 0 {virtual override thunk({offset(-264)}, cocos2d::CCLayer::~CCLayer())}
FUNC 2da5c 1dc 0 cocos2d::CCLayerRGBA::CCLayerRGBA()
FUNC 2dc38 258 0 cocos2d::CCLayerRGBA::~CCLayerRGBA()
FUNC 2de90 8 0 {virtual override thunk({offset(-264)}, cocos2d::CCLayerRGBA::~CCLayerRGBA())}
FUNC 2de98 10 0 cocos2d::CCLayerRGBA::~CCLayerRGBA()
FUNC 2dea8 14 0 {virtual override thunk({offset(-264)}, cocos2d::CCLayerRGBA::~CCLayerRGBA())}
FUNC 2debc 1e4 0 cocos2d::CCLayerColor::CCLayerColor()
FUNC 2e0a0 8 0 {virtual override thunk({offset(-264)}, cocos2d::CCLayerColor::~CCLayerColor())}
FUNC 2e0a8 10 0 cocos2d::CCLayerColor::~CCLayerColor()
FUNC 2e0b8 14 0 {virtual override thunk({offset(-264)}, cocos2d::CCLayerColor::~CCLayerColor())}
FUNC 2e0cc 8 0 {virtual override thunk({offset(-264)}, FLAlertLayer::~FLAlertLayer())}
FUNC 2e0d4 10 0 FLAlertLayer::~FLAlertLayer()
FUNC 2e0e4 14 0 {virtual override thunk({offset(-264)}, FLAlertLayer::~FLAlertLayer())}
FUNC 2e0f8 180 0 CCMenuItemToggler::createWithStandardSprites(cocos2d::CCObject*, void (cocos2d::CCObject::*)(cocos2d::CCObject*), float)
FUNC 2e278 2 0 cocos2d::CCObject::update(float)
FUNC 2e27c 280 0 cocos2d::CCLayerColor::~CCLayerColor()
FUNC 2e4fc 280 0 FLAlertLayer::~FLAlertLayer()
FUNC 2e77c 214 0 cocos2d::CCNode::~CCNode()
FUNC 2e990 25c 0 cocos2d::CCLayer::~CCLayer()
FUNC 2ebec 410 0 cocos2d::CCObject::~CCObject()
FUNC 2effc f8 0 _ZN5geode15UnwrapExceptionC2IRPvQsr4implE18IsStringStreamableIT_EEENS_4impl5OkTagEOS4_
FUNC 2f0f4 104 0 _ZN5geode15UnwrapExceptionC2IRNSt6__ndk112basic_stringIcNS2_11char_traitsIcEENS2_9allocatorIcEEEEQsr4implE18IsStringStreamableIT_EEENS_4impl6ErrTagEOSA_
FUNC 2f1f8 2 0 std::__ndk1::__variant_detail::__visitation::__base::__dispatcher<(unsigned int)0>::__dispatch[abi:ne180000]<std::__ndk1::__variant_detail::__dtor<std::__ndk1::__variant_detail::__traits<void*, std::__ndk1::basic_string<char, std::__ndk1::char_traits<char>, std::__ndk1::allocator<char> > >, (std::__ndk1::__variant_detail::_Trait)1>::__destroy[abi:ne180000]()::{lambda(auto:1&)#1}, std::__ndk1::__variant_detail::__base<(std::__ndk1::__variant_detail::__traits<void*, std::__ndk1::basic_string<char, std::__ndk1::char_traits<char>, std::__ndk1::allocator<char> > >)1, std::__ndk1::__variant_detail::__traits, std::__ndk1::allocator<char> >&>(std::__ndk1::__variant_detail::__dtor<std::__ndk1::__variant_detail::__traits<void*, std::__ndk1::basic_string<char, std::__ndk1::char_traits<char>, std::__ndk1::allocator<char> > >, (std::__ndk1::__variant_detail::_Trait)1>, std::__ndk1::__variant_detail::__base<(std::__ndk1::__variant_detail::__traits<void*, std::__ndk1::basic_string<char, std::__ndk1::char_traits<char>, std::__ndk1::allocator<char> > >)1, std::__ndk1::__variant_detail::__traits, std::__ndk1::allocator<char> >&)
FUNC 2f1fa e 0 std::__ndk1::__variant_detail::__visitation::__base::__dispatcher<(unsigned int)1>::__dispatch[abi:ne180000]<std::__ndk1::__variant_detail::__dtor<std::__ndk1::__variant_detail::__traits<void*, std::__ndk1::basic_string<char, std::__ndk1::char_traits<char>, std::__ndk1::allocator<char> > >, (std::__ndk1::__variant_detail::_Trait)1>::__destroy[abi:ne180000]()::{lambda(auto:1&)#1}, std::__ndk1::__variant_detail::__base<(std::__ndk1::__variant_detail::__traits<void*, std::__ndk1::basic_string<char, std::__ndk1::char_traits<char>, std::__ndk1::allocator<char> > >)1, std::__ndk1::__variant_detail::__traits, std::__ndk1::allocator<char> >&>(std::__ndk1::__variant_detail::__dtor<std::__ndk1::__variant_detail::__traits<void*, std::__ndk1::basic_string<char, std::__ndk1::char_traits<char>, std::__ndk1::allocator<char> > >, (std::__ndk1::__variant_detail::_Trait)1>, std::__ndk1::__variant_detail::__base<(std::__ndk1::__variant_detail::__traits<void*, std::__ndk1::basic_string<char, std::__ndk1::char_traits<char>, std::__ndk1::allocator<char> > >)1, std::__ndk1::__variant_detail::__traits, std::__ndk1::allocator<char> >&)
FUNC 2f208 3f2 0 std::__ndk1::__hash_table<std::__ndk1::__hash_value_type<void*, bool>, std::__ndk1::__unordered_map_hasher<void*, std::__ndk1::__hash_value_type<void*, bool>, std::__ndk1::hash<void*>, std::__ndk1::equal_to<void*>, true>, std::__ndk1::__unordered_map_equal<void*, std::__ndk1::__hash_value_type<void*, bool>, std::__ndk1::equal_to<void*>, std::__ndk1::hash<void*>, true>, std::__ndk1::allocator<std::__ndk1::__hash_value_type<void*, bool> > >::__emplace_unique_key_args<void*, std::__ndk1::piecewise_construct_t const&, std::__ndk1::tuple<void* const&>, std::__ndk1::tuple<> >(void* const&, std::__ndk1::piecewise_construct_t const&, std::__ndk1::tuple<void* const&>, std::__ndk1::tuple<>)
FUNC 2f5fc 1cc 0 fmt::v11::detail::write_loc(fmt::v11::basic_appender<char>, fmt::v11::loc_value, fmt::v11::format_specs const&, fmt::v11::detail::locale_ref)
FUNC 2f7c8 44 0 fmt::v11::format_facet<std::__ndk1::locale>::~format_facet()
FUNC 2f80c 38 0 fmt::v11::report_error(char const*)
FUNC 2f844 18 0 fmt::v11::format_error::runtime_error(char const*)
FUNC 2f85c 420 0 fmt::v11::format_facet<std::__ndk1::locale>::do_put(fmt::v11::basic_appender<char>, fmt::v11::loc_value, fmt::v11::format_specs const&) const
FUNC 2fc7c 30 0 fmt::v11::detail::loc_writer<char>::~loc_writer()
FUNC 2fcac c0 0 fmt::v11::vformat(fmt::v11::basic_string_view<char>, fmt::v11::basic_format_args<fmt::v11::context>)
FUNC 2fd6c 1ac 0 fmt::v11::detail::dragonbox::cache_accessor<double>::get_cached_power(int)
FUNC 2ff18 278 0 fmt::v11::detail::vformat_to<char>(fmt::v11::detail::buffer<char>&, fmt::v11::basic_string_view<char>, fmt::v11::detail::vformat_args<char>::type, fmt::v11::detail::locale_ref)
FUNC 30190 228 0 fmt::v11::detail::is_printable(unsigned int)
FUNC 303b8 384 0 fmt::v11::detail::dragonbox::to_decimal<float>(float)
FUNC 3073c 880 0 fmt::v11::detail::dragonbox::to_decimal<double>(double)
FUNC 30fbc 4c 0 fmt::v11::basic_memory_buffer<char, (unsigned int)500, std::__ndk1::allocator<char> >::grow(fmt::v11::detail::buffer<char>&, unsigned int)
FUNC 31008 48 0 fmt::v11::format_facet<std::__ndk1::locale>::~format_facet()
FUNC 31050 10 0 fmt::v11::format_error::~format_error()
FUNC 31060 9a 0 fmt::v11::detail::copy_noinline<char, char const*, fmt::v11::basic_appender<char> >(char const*, char const*, fmt::v11::basic_appender<char>)
FUNC 310fc 54 0 fmt::v11::detail::default_arg_formatter<char>::operator()<bool>(bool)
FUNC 31150 34 0 fmt::v11::detail::default_arg_formatter<char>::operator()<char>(char)
FUNC 31184 2c 0 fmt::v11::detail::default_arg_formatter<char>::operator()<char const*>(char const*)
FUNC 311b0 74 0 fmt::v11::detail::default_arg_formatter<char>::operator()<void const*>(void const*)
FUNC 31224 1b0 0 _ZN3fmt3v116detail5writeIcNS0_14basic_appenderIcEEiTnNSt6__ndk19enable_ifIXaaaasr11is_integralIT1_EE5valuentsr3std7is_sameIS7_bEE5valuentsr3std7is_sameIS7_T_EE5valueEiE4typeELi0EEET0_SB_S7_
FUNC 313d4 9a 0 fmt::v11::detail::copy_noinline<char, char*, fmt::v11::basic_appender<char> >(char*, char*, fmt::v11::basic_appender<char>)
FUNC 31470 174 0 _ZN3fmt3v116detail5writeIcNS0_14basic_appenderIcEEjTnNSt6__ndk19enable_ifIXaaaasr11is_integralIT1_EE5valuentsr3std7is_sameIS7_bEE5valuentsr3std7is_sameIS7_T_EE5valueEiE4typeELi0EEET0_SB_S7_
FUNC 315e4 218 0 _ZN3fmt3v116detail5writeIcNS0_14basic_appenderIcEExTnNSt6__ndk19enable_ifIXaaaasr11is_integralIT1_EE5valuentsr3std7is_sameIS7_bEE5valuentsr3std7is_sameIS7_T_EE5valueEiE4typeELi0EEET0_SB_S7_
FUNC 317fc 1dc 0 _ZN3fmt3v116detail5writeIcNS0_14basic_appenderIcEEyTnNSt6__ndk19enable_ifIXaaaasr11is_integralIT1_EE5valuentsr3std7is_sameIS7_bEE5valuentsr3std7is_sameIS7_T_EE5valueEiE4typeELi0EEET0_SB_S7_
FUNC 319d8 188 0 _ZN3fmt3v116detail5writeIcNS0_14basic_appenderIcEEbTnNSt6__ndk19enable_ifIXsr3std7is_sameIT1_bEE5valueEiE4typeELi0EEET0_SA_S7_RKNS0_12format_specsENS1_10locale_refE
FUNC 31b60 9f8 0 fmt::v11::detail::write_int_noinline<char, fmt::v11::basic_appender<char>, unsigned int>(fmt::v11::basic_appender<char>, fmt::v11::detail::write_int_arg<unsigned int>, fmt::v11::format_specs const&, fmt::v11::detail::locale_ref)
FUNC 32558 fa 0 fmt::v11::detail::fill<char, fmt::v11::basic_appender<char> >(fmt::v11::basic_appender<char>, unsigned int, fmt::v11::detail::fill_t const&)
FUNC 32654 184 0 fmt::v11::detail::write_padded<char, (fmt::v11::align::type)1, fmt::v11::basic_appender<char>, fmt::v11::detail::write_char<char, fmt::v11::basic_appender<char> >(fmt::v11::basic_appender<char>, char, fmt::v11::format_specs const&)::{lambda(fmt::v11::basic_appender<char>&)#1}>(fmt::v11::basic_appender<char>, fmt::v11::format_specs const&, unsigned int, unsigned int, fmt::v11::detail::write_char<char, fmt::v11::basic_appender<char> >(fmt::v11::basic_appender<char>, char, fmt::v11::format_specs const&)::{lambda(fmt::v11::basic_appender<char>&)#1})
FUNC 327d8 214 0 fmt::v11::detail::write_escaped_cp<fmt::v11::basic_appender<char>, char>(fmt::v11::basic_appender<char>, fmt::v11::detail::find_escape_result<char> const&)
FUNC 329ec e0 0 fmt::v11::detail::write_codepoint<(unsigned int)2, char, fmt::v11::basic_appender<char> >(fmt::v11::basic_appender<char>, char, unsigned int)
FUNC 32acc e0 0 fmt::v11::detail::write_codepoint<(unsigned int)8, char, fmt::v11::basic_appender<char> >(fmt::v11::basic_appender<char>, char, unsigned int)
FUNC 32bb0 73c 0 _ZN3fmt3v116detail5writeIcNS0_14basic_appenderIcEEfTnNSt6__ndk19enable_ifIXsr13is_fast_floatIT1_EE5valueEiE4typeELi0EEET0_SA_S7_
FUNC 332ec 140 0 fmt::v11::detail::write_padded<char, (fmt::v11::align::type)1, fmt::v11::basic_appender<char>, fmt::v11::detail::write_nonfinite<char, fmt::v11::basic_appender<char> >(fmt::v11::basic_appender<char>, bool, fmt::v11::format_specs, fmt::v11::sign::type)::{lambda(fmt::v11::basic_appender<char>&)#1}>(fmt::v11::basic_appender<char>, fmt::v11::format_specs const&, unsigned int, unsigned int, fmt::v11::detail::write_nonfinite<char, fmt::v11::basic_appender<char> >(fmt::v11::basic_appender<char>, bool, fmt::v11::format_specs, fmt::v11::sign::type)::{lambda(fmt::v11::basic_appender<char>&)#1})
FUNC 3342c e0 0 fmt::v11::detail::do_write_float<char, fmt::v11::basic_appender<char>, fmt::v11::detail::dragonbox::decimal_fp<float>, fmt::v11::detail::digit_grouping<char> >(fmt::v11::basic_appender<char>, fmt::v11::detail::dragonbox::decimal_fp<float> const&, fmt::v11::format_specs const&, fmt::v11::detail::float_specs, fmt::v11::detail::locale_ref)::{lambda(fmt::v11::basic_appender<char>(fmt::v11::basic_appender<char>))#1}::operator() const
FUNC 3350c 194 0 fmt::v11::detail::digit_grouping<char>::digit_grouping(fmt::v11::detail::locale_ref, bool)
FUNC 336a0 22 0 fmt::v11::detail::digit_grouping<char>::~digit_grouping()
FUNC 336c4 104 0 fmt::v11::detail::write_exponent<char, fmt::v11::basic_appender<char> >(int, fmt::v11::basic_appender<char>)
FUNC 337c8 144 0 _ZN3fmt3v116detail17write_significandIcjTnNSt6__ndk19enable_ifIXsr3std11is_integralIT0_EE5valueEiE4typeELi0EEEPT_S9_S5_iiS8_
FUNC 3390c 66 0 std::__ndk1::basic_string<char, std::__ndk1::char_traits<char>, std::__ndk1::allocator<char> >::__assign_no_alias<true>(char const*, unsigned int)
FUNC 33972 a6 0 std::__ndk1::basic_string<char, std::__ndk1::char_traits<char>, std::__ndk1::allocator<char> >::__assign_no_alias<false>(char const*, unsigned int)
FUNC 33a18 21c 0 fmt::v11::detail::digit_grouping<char>::apply<fmt::v11::basic_appender<char>, char>(fmt::v11::basic_appender<char>, fmt::v11::basic_string_view<char>) const
FUNC 33c34 6e 0 fmt::v11::basic_memory_buffer<int, (unsigned int)500, std::__ndk1::allocator<int> >::grow(fmt::v11::detail::buffer<int>&, unsigned int)
FUNC 33cb0 e4 0 _ZN3fmt3v116detail5writeIcNS0_14basic_appenderIcEEdTnNSt6__ndk19enable_ifIXsr13is_fast_floatIT1_EE5valueEiE4typeELi0EEET0_SA_S7_
FUNC 33d94 9ac 0 fmt::v11::detail::do_write_float<char, fmt::v11::basic_appender<char>, fmt::v11::detail::dragonbox::decimal_fp<double>, fmt::v11::detail::digit_grouping<char> >(fmt::v11::basic_appender<char>, fmt::v11::detail::dragonbox::decimal_fp<double> const&, fmt::v11::format_specs const&, fmt::v11::detail::float_specs, fmt::v11::detail::locale_ref)
FUNC 34740 e8 0 fmt::v11::detail::do_write_float<char, fmt::v11::basic_appender<char>, fmt::v11::detail::dragonbox::decimal_fp<double>, fmt::v11::detail::digit_grouping<char> >(fmt::v11::basic_appender<char>, fmt::v11::detail::dragonbox::decimal_fp<double> const&, fmt::v11::format_specs const&, fmt::v11::detail::float_specs, fmt::v11::detail::locale_ref)::{lambda(fmt::v11::basic_appender<char>(fmt::v11::basic_appender<char>))#1}::operator() const
FUNC 34828 19c 0 _ZN3fmt3v116detail17write_significandIcyTnNSt6__ndk19enable_ifIXsr3std11is_integralIT0_EE5valueEiE4typeELi0EEEPT_S9_S5_iiS8_
FUNC 349d0 e4 0 _ZN3fmt3v116detail5writeIcNS0_14basic_appenderIcEEeTnNSt6__ndk19enable_ifIXsr13is_fast_floatIT1_EE5valueEiE4typeELi0EEET0_SA_S7_
FUNC 34ab4 150 0 fmt::v11::detail::write_padded<char, (fmt::v11::align::type)2, fmt::v11::basic_appender<char>, fmt::v11::detail::write_ptr<char, fmt::v11::basic_appender<char>, unsigned int>(fmt::v11::basic_appender<char>, unsigned int, fmt::v11::format_specs const*)::{lambda(fmt::v11::basic_appender<char>&)#1}>(fmt::v11::basic_appender<char>, fmt::v11::format_specs const&, unsigned int, unsigned int, fmt::v11::detail::write_ptr<char, fmt::v11::basic_appender<char>, unsigned int>(fmt::v11::basic_appender<char>, unsigned int, fmt::v11::format_specs const*)::{lambda(fmt::v11::basic_appender<char>&)#1})
FUNC 34c08 1660 0 fmt::v11::detail::parse_replacement_field<char, fmt::v11::detail::vformat_to<char>(fmt::v11::detail::buffer<char>&, fmt::v11::basic_string_view<char>, fmt::v11::detail::vformat_args<char>::type, fmt::v11::detail::locale_ref)::format_handler&>(char const*, char const*, fmt::v11::detail::vformat_to<char>(fmt::v11::detail::buffer<char>&, fmt::v11::basic_string_view<char>, fmt::v11::detail::vformat_args<char>::type, fmt::v11::detail::locale_ref)::format_handler&)
FUNC 36268 1cc 0 fmt::v11::detail::parse_dynamic_spec<char>(char const*, char const*, int&, fmt::v11::detail::arg_ref<char>&, fmt::v11::basic_format_parse_context<char>&)
FUNC 36434 106 0 fmt::v11::basic_format_args<fmt::v11::context>::get<char>(fmt::v11::basic_string_view<char>) const
FUNC 3653c b78 0 fmt::v11::detail::write_int_noinline<char, fmt::v11::basic_appender<char>, unsigned long long>(fmt::v11::basic_appender<char>, fmt::v11::detail::write_int_arg<unsigned long long>, fmt::v11::format_specs const&, fmt::v11::detail::locale_ref)
FUNC 370b4 3a4 0 _ZN3fmt3v116detail15format_hexfloatIdTnNSt6__ndk19enable_ifIXntsr16is_double_doubleIT_EE5valueEiE4typeELi0EEEvS5_NS0_12format_specsERNS1_6bufferIcEE
FUNC 37458 ebc 0 fmt::v11::detail::format_float<double>(double, int, fmt::v11::detail::float_specs, fmt::v11::detail::buffer<char>&)
FUNC 38314 10c 0 fmt::v11::detail::write_padded<char, (fmt::v11::align::type)2, fmt::v11::basic_appender<char>, fmt::v11::detail::write_bytes<char, (fmt::v11::align::type)2, fmt::v11::basic_appender<char> >(fmt::v11::basic_appender<char>, fmt::v11::basic_string_view<char>, fmt::v11::format_specs const&)::{lambda(fmt::v11::basic_appender<char>&)#1}>(fmt::v11::basic_appender<char>, fmt::v11::format_specs const&, unsigned int, unsigned int, fmt::v11::detail::write_bytes<char, (fmt::v11::align::type)2, fmt::v11::basic_appender<char> >(fmt::v11::basic_appender<char>, fmt::v11::basic_string_view<char>, fmt::v11::format_specs const&)::{lambda(fmt::v11::basic_appender<char>&)#1})
FUNC 38420 c4 0 fmt::v11::detail::bigint::operator<<=(int)
FUNC 384e4 414 0 fmt::v11::detail::bigint::assign_pow10(int)
FUNC 388f8 276 0 fmt::v11::detail::bigint::divmod_assign(fmt::v11::detail::bigint const&)
FUNC 38b6e 6e 0 fmt::v11::basic_memory_buffer<unsigned int, (unsigned int)32, std::__ndk1::allocator<unsigned int> >::grow(fmt::v11::detail::buffer<unsigned int>&, unsigned int)
FUNC 38bdc 994 0 fmt::v11::detail::do_write_float<char, fmt::v11::basic_appender<char>, fmt::v11::detail::big_decimal_fp, fmt::v11::detail::digit_grouping<char> >(fmt::v11::basic_appender<char>, fmt::v11::detail::big_decimal_fp const&, fmt::v11::format_specs const&, fmt::v11::detail::float_specs, fmt::v11::detail::locale_ref)
FUNC 39570 e0 0 fmt::v11::detail::do_write_float<char, fmt::v11::basic_appender<char>, fmt::v11::detail::big_decimal_fp, fmt::v11::detail::digit_grouping<char> >(fmt::v11::basic_appender<char>, fmt::v11::detail::big_decimal_fp const&, fmt::v11::format_specs const&, fmt::v11::detail::float_specs, fmt::v11::detail::locale_ref)::{lambda(fmt::v11::basic_appender<char>(fmt::v11::basic_appender<char>))#1}::operator() const
FUNC 39650 820 0 fmt::v11::detail::write<char, fmt::v11::basic_appender<char> >(fmt::v11::basic_appender<char>, fmt::v11::basic_string_view<char>, fmt::v11::format_specs const&)
FUNC 39e70 124 0 fmt::v11::detail::for_each_codepoint<fmt::v11::detail::find_escape(char const*, char const*)::{lambda(unsigned int, fmt::v11::basic_string_view<char>)#1}>(fmt::v11::basic_string_view<char>, fmt::v11::detail::find_escape(char const*, char const*)::{lambda(unsigned int, fmt::v11::basic_string_view<char>)#1})::{lambda(char const*, char const*)#1}::operator()(char const*, char const*) const
FUNC 39fa0 1e4 0 fmt::v11::detail::for_each_codepoint<fmt::v11::detail::compute_width(fmt::v11::basic_string_view<char>)::count_code_points>(fmt::v11::basic_string_view<char>, fmt::v11::detail::compute_width(fmt::v11::basic_string_view<char>)::count_code_points)::{lambda(char const*, char const*)#1}::operator()(char const*, char const*) const
FUNC 3a184 544 0 fmt::v11::detail::write_int<fmt::v11::basic_appender<char>, unsigned long long, char>(fmt::v11::basic_appender<char>, unsigned long long, unsigned int, fmt::v11::format_specs const&, fmt::v11::detail::digit_grouping<char> const&)
PUBLIC 3a6c9 0 __ThumbV7PILongThunk___cxa_atexit
PUBLIC 3a6d5 0 __ThumbV7PILongThunk__ZdlPv
PUBLIC 3a6e1 0 __ThumbV7PILongThunk__ZN5geode17openSettingsPopupEPNS_3ModE
PUBLIC 3a6ed 0 __ThumbV7PILongThunk__ZNSt6__ndk16locale5facetD2Ev
PUBLIC 3a700 0 <.plt ELF section in ninsam.to-do_list.android32.so>
STACK CFI INIT 18114 7d8 .cfa: sp 0 +
STACK CFI 18116 .cfa: sp 20 + .ra: .cfa -4 + ^ r7: .cfa -8 + ^ r6: .cfa -12 + ^ r5: .cfa -16 + ^ r4: .cfa -20 + ^
STACK CFI 18118 .cfa: r7 8 +
STACK CFI 1811c r11: .cfa -24 + ^ r10: .cfa -28 + ^ r9: .cfa -32 + ^ r8: .cfa -36 + ^
STACK CFI INIT 188ec 1c .cfa: sp 0 +
STACK CFI 188ee .cfa: sp 16 + .ra: .cfa -4 + ^ r7: .cfa -8 + ^ r6: .cfa -12 + ^ r4: .cfa -16 + ^
STACK CFI 188f0 .cfa: r7 8 +
STACK CFI INIT 18910 5a8 .cfa: sp 0 +
STACK CFI 18912 .cfa: sp 20 + .ra: .cfa -4 + ^ r7: .cfa -8 + ^ r6: .cfa -12 + ^ r5: .cfa -16 + ^ r4: .cfa -20 + ^
STACK CFI 18914 .cfa: r7 8 +
STACK CFI 18918 r11: .cfa -24 + ^ r9: .cfa -28 + ^ r8: .cfa -32 + ^
STACK CFI INIT 18eb8 3a .cfa: sp 0 +
STACK CFI 18eba .cfa: sp 16 + .ra: .cfa -4 + ^ r7: .cfa -8 + ^ r5: .cfa -12 + ^ r4: .cfa -16 + ^
STACK CFI 18ebc .cfa: r7 8 +
STACK CFI INIT 18ef4 60 .cfa: sp 0 +
STACK CFI 18ef6 .cfa: sp 16 + .ra: .cfa -4 + ^ r7: .cfa -8 + ^ r6: .cfa -12 + ^ r4: .cfa -16 + ^
STACK CFI 18ef8 .cfa: r7 8 +
STACK CFI INIT 18f54 3e .cfa: sp 0 +
STACK CFI 18f56 .cfa: sp 20 + .ra: .cfa -4 + ^ r7: .cfa -8 + ^ r6: .cfa -12 + ^ r5: .cfa -16 + ^ r4: .cfa -20 + ^
STACK CFI 18f58 .cfa: r7 8 +
STACK CFI 18f5c r11: .cfa -24 + ^
STACK CFI INIT 18f92 2 .cfa: sp 0 +
STACK CFI INIT 18f94 c .cfa: sp 0 +
STACK CFI 18f96 .cfa: sp 8 + .ra: .cfa -4 + ^ r7: .cfa -8 + ^
STACK CFI 18f98 .cfa: r7 8 +
STACK CFI INIT 18fa0 f8 .cfa: sp 0 +
STACK CFI 18fa2 .cfa: sp 20 + .ra: .cfa -4 + ^ r7: .cfa -8 + ^ r6: .cfa -12 + ^ r5: .cfa -16 + ^ r4: .cfa -20 + ^
STACK CFI 18fa4 .cfa: r7 8 +
STACK CFI 18fa8 r8: .cfa -24 + ^
STACK CFI INIT 19098 34 .cfa: sp 0 +
STACK CFI 1909a .cfa: sp 8 + .ra: .cfa -4 + ^ r7: .cfa -8 + ^
STACK CFI 1909c .cfa: r7 8 +
STACK CFI INIT 190cc d8 .cfa: sp 0 +
STACK CFI 190ce .cfa: sp 20 + .ra: .cfa -4 + ^ r7: .cfa -8 + ^ r6: .cfa -12 + ^ r5: .cfa -16 + ^ r4: .cfa -20 + ^
STACK CFI 190d0 .cfa: r7 8 +
STACK CFI 190d4 r11: .cfa -24 + ^ r10: .cfa -28 + ^ r9: .cfa -32 + ^ r8: .cfa -36 + ^
STACK CFI INIT 191a4 68 .cfa: sp 0 +
STACK CFI 191a6 .cfa: sp 20 + .ra: .cfa -4 + ^ r7: .cfa -8 + ^ r6: .cfa -12 + ^ r5: .cfa -16 + ^ r4: .cfa -20 + ^
STACK CFI 191a8 .cfa: r7 8 +
STACK CFI 191ac r11: .cfa -24 + ^
STACK CFI INIT 1920c 10 .cfa: sp 0 +
STACK CFI 1920e .cfa: sp 8 + .ra: .cfa -4 + ^ r7: .cfa -8 + ^
STACK CFI 19210 .cfa: r7 8 +
STACK CFI INIT 1921c 108 .cfa: sp 0 +
STACK CFI 1921e .cfa: sp 20 + .ra: .cfa -4 + ^ r7: .cfa -8 + ^ r6: .cfa -12 + ^ r5: .cfa -16 + ^ r4: .cfa -20 + ^
STACK CFI 19220 .cfa: r7 8 +
STACK CFI 19224 r11: .cfa -24 + ^ r10: .cfa -28 + ^ r9: .cfa -32 + ^ r8: .cfa -36 + ^
STACK CFI INIT 19324 110 .cfa: sp 0 +
STACK CFI 19326 .cfa: sp 20 + .ra: .cfa -4 + ^ r7: .cfa -8 + ^ r6: .cfa -12 + ^ r5: .cfa -16 + ^ r4: .cfa -20 + ^
STACK CFI 19328 .cfa: r7 8 +
STACK CFI 1932c r11: .cfa -24 + ^ r10: .cfa -28 + ^ r9: .cfa -32 + ^ r8: .cfa -36 + ^
STACK CFI INIT 19434 10 .cfa: sp 0 +
STACK CFI 19436 .cfa: sp 8 + .ra: .cfa -4 + ^ r7: .cfa -8 + ^
STACK CFI 19438 .cfa: r7 8 +
STACK CFI INIT 19444 38 .cfa: sp 0 +
STACK CFI 19446 .cfa: sp 16 + .ra: .cfa -4 + ^ r7: .cfa -8 + ^ r5: .cfa -12 + ^ r4: .cfa -16 + ^
STACK CFI 19448 .cfa: r7 8 +
STACK CFI INIT 1947c 18 .cfa: sp 0 +
STACK CFI 1947e .cfa: sp 8 + .ra: .cfa -4 + ^ r7: .cfa -8 + ^
STACK CFI 19480 .cfa: r7 8 +
STACK CFI INIT 19494 28 .cfa: sp 0 +
STACK CFI 19496 .cfa: sp 8 + .ra: .cfa -4 + ^ r7: .cfa -8 + ^
STACK CFI 19498 .cfa: r7 8 +
STACK CFI INIT 194bc ce .cfa: sp 0 +
STACK CFI 194be .cfa: sp 20 + .ra: .cfa -4 + ^ r7: .cfa -8 + ^ r6: .cfa -12 + ^ r5: .cfa -16 + ^ r4: .cfa -20 + ^
STACK CFI 194c0 .cfa: r7 8 +
STACK CFI 194c4 r10: .cfa -24 + ^ r9: .cfa -28 + ^ r8: .cfa -32 + ^
STACK CFI INIT 1958a e0 .cfa: sp 0 +
STACK CFI 1958c .cfa: sp 20 + .ra: .cfa -4 + ^ r7: .cfa -8 + ^ r6: .cfa -12 + ^ r5: .cfa -16 + ^ r4: .cfa -20 + ^
STACK CFI 1958e .cfa: r7 8 +
STACK CFI 19592 r11: .cfa -24 + ^ r9: .cfa -28 + ^ r8: .cfa -32 + ^
STACK CFI INIT 1966a 46 .cfa: sp 0 +
STACK CFI 1966c .cfa: sp 20 + .ra: .cfa -4 + ^ r7: .cfa -8 + ^ r6: .cfa -12 + ^ r5: .cfa -16 + ^ r4: .cfa -20 + ^
STACK CFI 1966e .cfa: r7 8 +
STACK CFI 19672 r8: .cfa -24 + ^
STACK CFI INIT 196b0 3c .cfa: sp 0 +
STACK CFI 196b2 .cfa: sp 16 + .ra: .cfa -4 + ^ r7: .cfa -8 + ^ r5: .cfa -12 + ^ r4: .cfa -16 + ^
STACK CFI 196b4 .cfa: r7 8 +
STACK CFI INIT 196ec 10 .cfa: sp 0 +
STACK CFI 196ee .cfa: sp 8 + .ra: .cfa -4 + ^ r7: .cfa -8 + ^
STACK CFI 196f0 .cfa: r7 8 +
STACK CFI INIT 196fc 2 .cfa: sp 0 +
STACK CFI INIT 196fe e .cfa: sp 0 +
STACK CFI INIT 1970c 5a .cfa: sp 0 +
STACK CFI 19714 .cfa: sp 16 + .ra: .cfa -4 + ^ r7: .cfa -8 + ^ r5: .cfa -12 + ^ r4: .cfa -16 + ^
STACK CFI 19716 .cfa: r7 8 +
STACK CFI INIT 19768 44c .cfa: sp 0 +
STACK CFI 1976a .cfa: sp 20 + .ra: .cfa -4 + ^ r7: .cfa -8 + ^ r6: .cfa -12 + ^ r5: .cfa -16 + ^ r4: .cfa -20 + ^
STACK CFI 1976c .cfa: r7 8 +
STACK CFI 19770 r8: .cfa -24 + ^
STACK CFI INIT 19bb4 24 .cfa: sp 0 +
STACK CFI 19bb6 .cfa: sp 16 + .ra: .cfa -4 + ^ r7: .cfa -8 + ^ r5: .cfa -12 + ^ r4: .cfa -16 + ^
STACK CFI 19bb8 .cfa: r7 8 +
STACK CFI INIT 19bd8 3a .cfa: sp 0 +
STACK CFI 19bda .cfa: sp 16 + .ra: .cfa -4 + ^ r7: .cfa -8 + ^ r5: .cfa -12 + ^ r4: .cfa -16 + ^
STACK CFI 19bdc .cfa: r7 8 +
STACK CFI INIT 19c12 46 .cfa: sp 0 +
STACK CFI 19c14 .cfa: sp 16 + .ra: .cfa -4 + ^ r7: .cfa -8 + ^ r5: .cfa -12 + ^ r4: .cfa -16 + ^
STACK CFI 19c16 .cfa: r7 8 +
STACK CFI INIT 19c58 14 .cfa: sp 0 +
STACK CFI 19c5a .cfa: sp 8 + .ra: .cfa -4 + ^ r7: .cfa -8 + ^
STACK CFI 19c5c .cfa: r7 8 +
STACK CFI INIT 19c6c 3a .cfa: sp 0 +
STACK CFI 19c6e .cfa: sp 16 + .ra: .cfa -4 + ^ r7: .cfa -8 + ^ r5: .cfa -12 + ^ r4: .cfa -16 + ^
STACK CFI 19c70 .cfa: r7 8 +
STACK CFI INIT 19ca8 88 .cfa: sp 0 +
STACK CFI 19caa .cfa: sp 20 + .ra: .cfa -4 + ^ r7: .cfa -8 + ^ r6: .cfa -12 + ^ r5: .cfa -16 + ^ r4: .cfa -20 + ^
STACK CFI 19cac .cfa: r7 8 +
STACK CFI 19cb0 r11: .cfa -24 + ^ r9: .cfa -28 + ^ r8: .cfa -32 + ^
STACK CFI INIT 19d30 4d8 .cfa: sp 0 +
STACK CFI 19d32 .cfa: sp 20 + .ra: .cfa -4 + ^ r7: .cfa -8 + ^ r6: .cfa -12 + ^ r5: .cfa -16 + ^ r4: .cfa -20 + ^
STACK CFI 19d34 .cfa: r7 8 +
STACK CFI 19d38 r11: .cfa -24 + ^ r10: .cfa -28 + ^ r9: .cfa -32 + ^ r8: .cfa -36 + ^
STACK CFI INIT 1a208 2 .cfa: sp 0 +
STACK CFI INIT 1a20c 10 .cfa: sp 0 +
STACK CFI 1a20e .cfa: sp 8 + .ra: .cfa -4 + ^ r7: .cfa -8 + ^
STACK CFI 1a210 .cfa: r7 8 +
STACK CFI INIT 1a21c 10 .cfa: sp 0 +
STACK CFI 1a21e .cfa: sp 8 + .ra: .cfa -4 + ^ r7: .cfa -8 + ^
STACK CFI 1a220 .cfa: r7 8 +
STACK CFI INIT 1a22c 8 .cfa: sp 0 +
STACK CFI 1a22e .cfa: sp 8 + .ra: .cfa -4 + ^ r7: .cfa -8 + ^
STACK CFI 1a230 .cfa: r7 8 +
STACK CFI INIT 1a234 3c .cfa: sp 0 +
STACK CFI 1a236 .cfa: sp 16 + .ra: .cfa -4 + ^ r7: .cfa -8 + ^ r6: .cfa -12 + ^ r4: .cfa -16 + ^
STACK CFI 1a238 .cfa: r7 8 +
STACK CFI INIT 1a270 18 .cfa: sp 0 +
STACK CFI 1a272 .cfa: sp 8 + .ra: .cfa -4 + ^ r7: .cfa -8 + ^
STACK CFI 1a274 .cfa: r7 8 +
STACK CFI INIT 1a288 8 .cfa: sp 0 +
STACK CFI 1a28a .cfa: sp 8 + .ra: .cfa -4 + ^ r7: .cfa -8 + ^
STACK CFI 1a28c .cfa: r7 8 +
STACK CFI INIT 1a290 2 .cfa: sp 0 +
STACK CFI INIT 1a292 4 .cfa: sp 0 +
STACK CFI INIT 1a298 20 .cfa: sp 0 +
STACK CFI 1a29a .cfa: sp 16 + .ra: .cfa -4 + ^ r7: .cfa -8 + ^ r6: .cfa -12 + ^ r4: .cfa -16 + ^
STACK CFI 1a29c .cfa: r7 8 +
STACK CFI INIT 1a2b8 14 .cfa: sp 0 +
STACK CFI INIT 1a2cc 2 .cfa: sp 0 +
STACK CFI INIT 1a2ce 4 .cfa: sp 0 +
STACK CFI INIT 1a2d2 8 .cfa: sp 0 +
STACK CFI INIT 1a2dc 18 .cfa: sp 0 +
STACK CFI INIT 1a2f4 c .cfa: sp 0 +
STACK CFI INIT 1a300 ba .cfa: sp 0 +
STACK CFI 1a302 .cfa: sp 20 + .ra: .cfa -4 + ^ r7: .cfa -8 + ^ r6: .cfa -12 + ^ r5: .cfa -16 + ^ r4: .cfa -20 + ^
STACK CFI 1a304 .cfa: r7 8 +
STACK CFI 1a308 r11: .cfa -24 + ^ r10: .cfa -28 + ^ r9: .cfa -32 + ^ r8: .cfa -36 + ^
STACK CFI INIT 1a3ba 14a .cfa: sp 0 +
STACK CFI 1a3cc .cfa: sp 16 + .ra: .cfa -4 + ^ r7: .cfa -8 + ^ r6: .cfa -12 + ^ r4: .cfa -16 + ^
STACK CFI 1a3ce .cfa: r7 8 +
STACK CFI INIT 1a504 15fc .cfa: sp 0 +
STACK CFI 1a506 .cfa: sp 20 + .ra: .cfa -4 + ^ r7: .cfa -8 + ^ r6: .cfa -12 + ^ r5: .cfa -16 + ^ r4: .cfa -20 + ^
STACK CFI 1a508 .cfa: r7 8 +
STACK CFI 1a50c r11: .cfa -24 + ^ r10: .cfa -28 + ^ r9: .cfa -32 + ^ r8: .cfa -36 + ^
STACK CFI INIT 1bb00 2 .cfa: sp 0 +
STACK CFI INIT 1bb04 1e4 .cfa: sp 0 +
STACK CFI 1bb06 .cfa: sp 20 + .ra: .cfa -4 + ^ r7: .cfa -8 + ^ r6: .cfa -12 + ^ r5: .cfa -16 + ^ r4: .cfa -20 + ^
STACK CFI 1bb08 .cfa: r7 8 +
STACK CFI 1bb0c r10: .cfa -24 + ^ r9: .cfa -28 + ^ r8: .cfa -32 + ^
STACK CFI INIT 1bce8 8 .cfa: sp 0 +
STACK CFI INIT 1bcf0 34 .cfa: sp 0 +
STACK CFI 1bcf2 .cfa: sp 16 + .ra: .cfa -4 + ^ r7: .cfa -8 + ^ r6: .cfa -12 + ^ r4: .cfa -16 + ^
STACK CFI 1bcf4 .cfa: r7 8 +
STACK CFI INIT 1bd24 450 .cfa: sp 0 +
STACK CFI 1bd26 .cfa: sp 20 + .ra: .cfa -4 + ^ r7: .cfa -8 + ^ r6: .cfa -12 + ^ r5: .cfa -16 + ^ r4: .cfa -20 + ^
STACK CFI 1bd28 .cfa: r7 8 +
STACK CFI 1bd2c r11: .cfa -24 + ^
STACK CFI INIT 1c174 a8 .cfa: sp 0 +
STACK CFI 1c176 .cfa: sp 16 + .ra: .cfa -4 + ^ r7: .cfa -8 + ^ r6: .cfa -12 + ^ r4: .cfa -16 + ^
STACK CFI 1c178 .cfa: r7 8 +
STACK CFI INIT 1c21c 4 .cfa: sp 0 +
STACK CFI INIT 1c220 10 .cfa: sp 0 +
STACK CFI 1c222 .cfa: sp 8 + .ra: .cfa -4 + ^ r7: .cfa -8 + ^
STACK CFI 1c224 .cfa: r7 8 +
STACK CFI INIT 1c230 2 .cfa: sp 0 +
STACK CFI INIT 1c232 4 .cfa: sp 0 +
STACK CFI INIT 1c236 8 .cfa: sp 0 +
STACK CFI INIT 1c23e 14 .cfa: sp 0 +
STACK CFI 1c240 .cfa: sp 8 + .ra: .cfa -4 + ^ r7: .cfa -8 + ^
STACK CFI 1c242 .cfa: r7 8 +
STACK CFI INIT 1c252 2 .cfa: sp 0 +
STACK CFI INIT 1c254 2 .cfa: sp 0 +
STACK CFI INIT 1c256 2 .cfa: sp 0 +
STACK CFI INIT 1c258 2 .cfa: sp 0 +
STACK CFI INIT 1c25a 2 .cfa: sp 0 +
STACK CFI INIT 1c25c 4 .cfa: sp 0 +
STACK CFI INIT 1c260 60 .cfa: sp 0 +
STACK CFI 1c262 .cfa: sp 16 + .ra: .cfa -4 + ^ r7: .cfa -8 + ^ r6: .cfa -12 + ^ r4: .cfa -16 + ^
STACK CFI 1c264 .cfa: r7 8 +
STACK CFI INIT 1c2c0 60 .cfa: sp 0 +
STACK CFI 1c2c2 .cfa: sp 16 + .ra: .cfa -4 + ^ r7: .cfa -8 + ^ r6: .cfa -12 + ^ r4: .cfa -16 + ^
STACK CFI 1c2c4 .cfa: r7 8 +
STACK CFI INIT 1c320 2 .cfa: sp 0 +
STACK CFI INIT 1c322 e .cfa: sp 0 +
STACK CFI INIT 1c330 e .cfa: sp 0 +
STACK CFI INIT 1c33e e .cfa: sp 0 +
STACK CFI INIT 1c34c 4 .cfa: sp 0 +
STACK CFI INIT 1c350 20 .cfa: sp 0 +
STACK CFI 1c352 .cfa: sp 16 + .ra: .cfa -4 + ^ r7: .cfa -8 + ^ r6: .cfa -12 + ^ r4: .cfa -16 + ^
STACK CFI 1c354 .cfa: r7 8 +
STACK CFI INIT 1c370 14 .cfa: sp 0 +
STACK CFI INIT 1c384 2 .cfa: sp 0 +
STACK CFI INIT 1c386 4 .cfa: sp 0 +
STACK CFI INIT 1c38c 68 .cfa: sp 0 +
STACK CFI 1c38e .cfa: sp 16 + .ra: .cfa -4 + ^ r7: .cfa -8 + ^ r5: .cfa -12 + ^ r4: .cfa -16 + ^
STACK CFI 1c390 .cfa: r7 8 +
STACK CFI INIT 1c3f4 18 .cfa: sp 0 +
STACK CFI INIT 1c40c c .cfa: sp 0 +
STACK CFI INIT 1c418 cc .cfa: sp 0 +
STACK CFI 1c41a .cfa: sp 20 + .ra: .cfa -4 + ^ r7: .cfa -8 + ^ r6: .cfa -12 + ^ r5: .cfa -16 + ^ r4: .cfa -20 + ^
STACK CFI 1c41c .cfa: r7 8 +
STACK CFI 1c420 r11: .cfa -24 + ^ r9: .cfa -28 + ^ r8: .cfa -32 + ^
STACK CFI INIT 1c4e4 15c .cfa: sp 0 +
STACK CFI 1c4e6 .cfa: sp 20 + .ra: .cfa -4 + ^ r7: .cfa -8 + ^ r6: .cfa -12 + ^ r5: .cfa -16 + ^ r4: .cfa -20 + ^
STACK CFI 1c4e8 .cfa: r7 8 +
STACK CFI 1c4ec r8: .cfa -24 + ^
STACK CFI INIT 1c640 4 .cfa: sp 0 +
STACK CFI INIT 1c644 20 .cfa: sp 0 +
STACK CFI 1c646 .cfa: sp 16 + .ra: .cfa -4 + ^ r7: .cfa -8 + ^ r6: .cfa -12 + ^ r4: .cfa -16 + ^
STACK CFI 1c648 .cfa: r7 8 +
STACK CFI INIT 1c664 14 .cfa: sp 0 +
STACK CFI INIT 1c678 2 .cfa: sp 0 +
STACK CFI INIT 1c67a 4 .cfa: sp 0 +
STACK CFI INIT 1c680 68 .cfa: sp 0 +
STACK CFI 1c682 .cfa: sp 16 + .ra: .cfa -4 + ^ r7: .cfa -8 + ^ r5: .cfa -12 + ^ r4: .cfa -16 + ^
STACK CFI 1c684 .cfa: r7 8 +
STACK CFI INIT 1c6e8 18 .cfa: sp 0 +
STACK CFI INIT 1c700 c .cfa: sp 0 +
STACK CFI INIT 1c70c 4 .cfa: sp 0 +
STACK CFI INIT 1c710 20 .cfa: sp 0 +
STACK CFI 1c712 .cfa: sp 16 + .ra: .cfa -4 + ^ r7: .cfa -8 + ^ r6: .cfa -12 + ^ r4: .cfa -16 + ^
STACK CFI 1c714 .cfa: r7 8 +
STACK CFI INIT 1c730 14 .cfa: sp 0 +
STACK CFI INIT 1c744 2 .cfa: sp 0 +
STACK CFI INIT 1c746 4 .cfa: sp 0 +
STACK CFI INIT 1c74c 68 .cfa: sp 0 +
STACK CFI 1c74e .cfa: sp 16 + .ra: .cfa -4 + ^ r7: .cfa -8 + ^ r5: .cfa -12 + ^ r4: .cfa -16 + ^
STACK CFI 1c750 .cfa: r7 8 +
STACK CFI INIT 1c7b4 18 .cfa: sp 0 +
STACK CFI INIT 1c7cc c .cfa: sp 0 +
STACK CFI INIT 1c7d8 4 .cfa: sp 0 +
STACK CFI INIT 1c7dc 20 .cfa: sp 0 +
STACK CFI 1c7de .cfa: sp 16 + .ra: .cfa -4 + ^ r7: .cfa -8 + ^ r6: .cfa -12 + ^ r4: .cfa -16 + ^
STACK CFI 1c7e0 .cfa: r7 8 +
STACK CFI INIT 1c7fc 14 .cfa: sp 0 +
STACK CFI INIT 1c810 2 .cfa: sp 0 +
STACK CFI INIT 1c812 4 .cfa: sp 0 +
STACK CFI INIT 1c818 68 .cfa: sp 0 +
STACK CFI 1c81a .cfa: sp 16 + .ra: .cfa -4 + ^ r7: .cfa -8 + ^ r5: .cfa -12 + ^ r4: .cfa -16 + ^
STACK CFI 1c81c .cfa: r7 8 +
STACK CFI INIT 1c880 18 .cfa: sp 0 +
STACK CFI INIT 1c898 c .cfa: sp 0 +
STACK CFI INIT 1c8a4 2 .cfa: sp 0 +
STACK CFI INIT 1c8a6 4 .cfa: sp 0 +
STACK CFI INIT 1c8ac 20 .cfa: sp 0 +
STACK CFI 1c8ae .cfa: sp 16 + .ra: .cfa -4 + ^ r7: .cfa -8 + ^ r6: .cfa -12 + ^ r4: .cfa -16 + ^
STACK CFI 1c8b0 .cfa: r7 8 +
STACK CFI INIT 1c8cc 14 .cfa: sp 0 +
STACK CFI INIT 1c8e0 2 .cfa: sp 0 +
STACK CFI INIT 1c8e2 4 .cfa: sp 0 +
STACK CFI INIT 1c8e8 68 .cfa: sp 0 +
STACK CFI 1c8ea .cfa: sp 16 + .ra: .cfa -4 + ^ r7: .cfa -8 + ^ r5: .cfa -12 + ^ r4: .cfa -16 + ^
STACK CFI 1c8ec .cfa: r7 8 +
STACK CFI INIT 1c950 18 .cfa: sp 0 +
STACK CFI INIT 1c968 c .cfa: sp 0 +
STACK CFI INIT 1c974 2158 .cfa: sp 0 +
STACK CFI 1c976 .cfa: sp 20 + .ra: .cfa -4 + ^ r7: .cfa -8 + ^ r6: .cfa -12 + ^ r5: .cfa -16 + ^ r4: .cfa -20 + ^
STACK CFI 1c978 .cfa: r7 8 +
STACK CFI 1c97c r11: .cfa -24 + ^ r10: .cfa -28 + ^ r9: .cfa -32 + ^ r8: .cfa -36 + ^
STACK CFI INIT 1eacc 80 .cfa: sp 0 +
STACK CFI 1eace .cfa: sp 20 + .ra: .cfa -4 + ^ r7: .cfa -8 + ^ r6: .cfa -12 + ^ r5: .cfa -16 + ^ r4: .cfa -20 + ^
STACK CFI 1ead0 .cfa: r7 8 +
STACK CFI 1ead4 r10: .cfa -24 + ^ r9: .cfa -28 + ^ r8: .cfa -32 + ^
STACK CFI INIT 1eb4c 88 .cfa: sp 0 +
STACK CFI 1eb4e .cfa: sp 16 + .ra: .cfa -4 + ^ r7: .cfa -8 + ^ r5: .cfa -12 + ^ r4: .cfa -16 + ^
STACK CFI 1eb50 .cfa: r7 8 +
STACK CFI INIT 1ebd4 148 .cfa: sp 0 +
STACK CFI 1ebd6 .cfa: sp 20 + .ra: .cfa -4 + ^ r7: .cfa -8 + ^ r6: .cfa -12 + ^ r5: .cfa -16 + ^ r4: .cfa -20 + ^
STACK CFI 1ebd8 .cfa: r7 8 +
STACK CFI 1ebdc r11: .cfa -24 + ^ r10: .cfa -28 + ^ r9: .cfa -32 + ^ r8: .cfa -36 + ^
STACK CFI INIT 1ed1c 88 .cfa: sp 0 +
STACK CFI 1ed1e .cfa: sp 16 + .ra: .cfa -4 + ^ r7: .cfa -8 + ^ r5: .cfa -12 + ^ r4: .cfa -16 + ^
STACK CFI 1ed20 .cfa: r7 8 +
STACK CFI INIT 1eda4 88 .cfa: sp 0 +
STACK CFI 1eda6 .cfa: sp 16 + .ra: .cfa -4 + ^ r7: .cfa -8 + ^ r5: .cfa -12 + ^ r4: .cfa -16 + ^
STACK CFI 1eda8 .cfa: r7 8 +
STACK CFI INIT 1ee2c 88 .cfa: sp 0 +
STACK CFI 1ee2e .cfa: sp 16 + .ra: .cfa -4 + ^ r7: .cfa -8 + ^ r5: .cfa -12 + ^ r4: .cfa -16 + ^
STACK CFI 1ee30 .cfa: r7 8 +
STACK CFI INIT 1eeb4 88 .cfa: sp 0 +
STACK CFI 1eeb6 .cfa: sp 16 + .ra: .cfa -4 + ^ r7: .cfa -8 + ^ r5: .cfa -12 + ^ r4: .cfa -16 + ^
STACK CFI 1eeb8 .cfa: r7 8 +
STACK CFI INIT 1ef3c 88 .cfa: sp 0 +
STACK CFI 1ef3e .cfa: sp 16 + .ra: .cfa -4 + ^ r7: .cfa -8 + ^ r5: .cfa -12 + ^ r4: .cfa -16 + ^
STACK CFI 1ef40 .cfa: r7 8 +
STACK CFI INIT 1efc4 88 .cfa: sp 0 +
STACK CFI 1efc6 .cfa: sp 16 + .ra: .cfa -4 + ^ r7: .cfa -8 + ^ r5: .cfa -12 + ^ r4: .cfa -16 + ^
STACK CFI 1efc8 .cfa: r7 8 +
STACK CFI INIT 1f04c 88 .cfa: sp 0 +
STACK CFI 1f04e .cfa: sp 16 + .ra: .cfa -4 + ^ r7: .cfa -8 + ^ r5: .cfa -12 + ^ r4: .cfa -16 + ^
STACK CFI 1f050 .cfa: r7 8 +
STACK CFI INIT 1f0d4 88 .cfa: sp 0 +
STACK CFI 1f0d6 .cfa: sp 16 + .ra: .cfa -4 + ^ r7: .cfa -8 + ^ r5: .cfa -12 + ^ r4: .cfa -16 + ^
STACK CFI 1f0d8 .cfa: r7 8 +
STACK CFI INIT 1f15c 88 .cfa: sp 0 +
STACK CFI 1f15e .cfa: sp 16 + .ra: .cfa -4 + ^ r7: .cfa -8 + ^ r5: .cfa -12 + ^ r4: .cfa -16 + ^
STACK CFI 1f160 .cfa: r7 8 +
STACK CFI INIT 0 74 .cfa: sp 0 +
STACK CFI 2 .cfa: sp 16 + .ra: .cfa -4 + ^ r7: .cfa -8 + ^ r6: .cfa -12 + ^ r4: .cfa -16 + ^
STACK CFI 4 .cfa: r7 8 +
STACK CFI INIT 1f1e4 10 .cfa: sp 0 +
STACK CFI 1f1e6 .cfa: sp 8 + .ra: .cfa -4 + ^ r7: .cfa -8 + ^
STACK CFI 1f1e8 .cfa: r7 8 +
STACK CFI INIT 1f1f4 2 .cfa: sp 0 +
STACK CFI INIT 1f1f6 4 .cfa: sp 0 +
STACK CFI INIT 1f1fa 6 .cfa: sp 0 +
STACK CFI INIT 1f200 6 .cfa: sp 0 +
STACK CFI INIT 1f206 8 .cfa: sp 0 +
STACK CFI INIT 1f20e 14 .cfa: sp 0 +
STACK CFI 1f210 .cfa: sp 8 + .ra: .cfa -4 + ^ r7: .cfa -8 + ^
STACK CFI 1f212 .cfa: r7 8 +
STACK CFI INIT 1f222 2 .cfa: sp 0 +
STACK CFI INIT 1f224 4 .cfa: sp 0 +
STACK CFI INIT 1f228 b2 .cfa: sp 0 +
STACK CFI 1f22a .cfa: sp 20 + .ra: .cfa -4 + ^ r7: .cfa -8 + ^ r6: .cfa -12 + ^ r5: .cfa -16 + ^ r4: .cfa -20 + ^
STACK CFI 1f22c .cfa: r7 8 +
STACK CFI 1f230 r11: .cfa -24 + ^ r10: .cfa -28 + ^ r9: .cfa -32 + ^ r8: .cfa -36 + ^
STACK CFI INIT 1f2dc 110 .cfa: sp 0 +
STACK CFI 1f2de .cfa: sp 20 + .ra: .cfa -4 + ^ r7: .cfa -8 + ^ r6: .cfa -12 + ^ r5: .cfa -16 + ^ r4: .cfa -20 + ^
STACK CFI 1f2e0 .cfa: r7 8 +
STACK CFI 1f2e4 r11: .cfa -24 + ^
STACK CFI INIT 1f3ec 2 .cfa: sp 0 +
STACK CFI INIT 1f3ee e .cfa: sp 0 +
STACK CFI INIT 1f3fc 4 .cfa: sp 0 +
STACK CFI INIT 1f400 20 .cfa: sp 0 +
STACK CFI 1f402 .cfa: sp 16 + .ra: .cfa -4 + ^ r7: .cfa -8 + ^ r6: .cfa -12 + ^ r4: .cfa -16 + ^
STACK CFI 1f404 .cfa: r7 8 +
STACK CFI INIT 1f420 14 .cfa: sp 0 +
STACK CFI INIT 1f434 2 .cfa: sp 0 +
STACK CFI INIT 1f436 4 .cfa: sp 0 +
STACK CFI INIT 1f43c 68 .cfa: sp 0 +
STACK CFI 1f43e .cfa: sp 16 + .ra: .cfa -4 + ^ r7: .cfa -8 + ^ r5: .cfa -12 + ^ r4: .cfa -16 + ^
STACK CFI 1f440 .cfa: r7 8 +
STACK CFI INIT 1f4a4 18 .cfa: sp 0 +
STACK CFI INIT 1f4bc c .cfa: sp 0 +
STACK CFI INIT 1f4c8 4 .cfa: sp 0 +
STACK CFI INIT 1f4cc 20 .cfa: sp 0 +
STACK CFI 1f4ce .cfa: sp 16 + .ra: .cfa -4 + ^ r7: .cfa -8 + ^ r6: .cfa -12 + ^ r4: .cfa -16 + ^
STACK CFI 1f4d0 .cfa: r7 8 +
STACK CFI INIT 1f4ec 14 .cfa: sp 0 +
STACK CFI INIT 1f500 2 .cfa: sp 0 +
STACK CFI INIT 1f502 4 .cfa: sp 0 +
STACK CFI INIT 1f508 68 .cfa: sp 0 +
STACK CFI 1f50a .cfa: sp 16 + .ra: .cfa -4 + ^ r7: .cfa -8 + ^ r5: .cfa -12 + ^ r4: .cfa -16 + ^
STACK CFI 1f50c .cfa: r7 8 +
STACK CFI INIT 1f570 18 .cfa: sp 0 +
STACK CFI INIT 1f588 c .cfa: sp 0 +
STACK CFI INIT 1f594 4 .cfa: sp 0 +
STACK CFI INIT 1f598 20 .cfa: sp 0 +
STACK CFI 1f59a .cfa: sp 16 + .ra: .cfa -4 + ^ r7: .cfa -8 + ^ r6: .cfa -12 + ^ r4: .cfa -16 + ^
STACK CFI 1f59c .cfa: r7 8 +
STACK CFI INIT 1f5b8 14 .cfa: sp 0 +
STACK CFI INIT 1f5cc 2 .cfa: sp 0 +
STACK CFI INIT 1f5ce 4 .cfa: sp 0 +
STACK CFI INIT 1f5d4 68 .cfa: sp 0 +
STACK CFI 1f5d6 .cfa: sp 16 + .ra: .cfa -4 + ^ r7: .cfa -8 + ^ r5: .cfa -12 + ^ r4: .cfa -16 + ^
STACK CFI 1f5d8 .cfa: r7 8 +
STACK CFI INIT 1f63c 18 .cfa: sp 0 +
STACK CFI INIT 1f654 c .cfa: sp 0 +
STACK CFI INIT 1f660 4 .cfa: sp 0 +
STACK CFI INIT 1f664 20 .cfa: sp 0 +
STACK CFI 1f666 .cfa: sp 16 + .ra: .cfa -4 + ^ r7: .cfa -8 + ^ r6: .cfa -12 + ^ r4: .cfa -16 + ^
STACK CFI 1f668 .cfa: r7 8 +
STACK CFI INIT 1f684 14 .cfa: sp 0 +
STACK CFI INIT 1f698 2 .cfa: sp 0 +
STACK CFI INIT 1f69a 4 .cfa: sp 0 +
STACK CFI INIT 1f6a0 68 .cfa: sp 0 +
STACK CFI 1f6a2 .cfa: sp 16 + .ra: .cfa -4 + ^ r7: .cfa -8 + ^ r5: .cfa -12 + ^ r4: .cfa -16 + ^
STACK CFI 1f6a4 .cfa: r7 8 +
STACK CFI INIT 1f708 18 .cfa: sp 0 +
STACK CFI INIT 1f720 c .cfa: sp 0 +
STACK CFI INIT 1f72c 4 .cfa: sp 0 +
STACK CFI INIT 1f730 20 .cfa: sp 0 +
STACK CFI 1f732 .cfa: sp 16 + .ra: .cfa -4 + ^ r7: .cfa -8 + ^ r6: .cfa -12 + ^ r4: .cfa -16 + ^
STACK CFI 1f734 .cfa: r7 8 +
STACK CFI INIT 1f750 14 .cfa: sp 0 +
STACK CFI INIT 1f764 2 .cfa: sp 0 +
STACK CFI INIT 1f766 4 .cfa: sp 0 +
STACK CFI INIT 1f76c 68 .cfa: sp 0 +
STACK CFI 1f76e .cfa: sp 16 + .ra: .cfa -4 + ^ r7: .cfa -8 + ^ r5: .cfa -12 + ^ r4: .cfa -16 + ^
STACK CFI 1f770 .cfa: r7 8 +
STACK CFI INIT 1f7d4 18 .cfa: sp 0 +
STACK CFI INIT 1f7ec c .cfa: sp 0 +
STACK CFI INIT 1f7f8 4 .cfa: sp 0 +
STACK CFI INIT 1f7fc 20 .cfa: sp 0 +
STACK CFI 1f7fe .cfa: sp 16 + .ra: .cfa -4 + ^ r7: .cfa -8 + ^ r6: .cfa -12 + ^ r4: .cfa -16 + ^
STACK CFI 1f800 .cfa: r7 8 +
STACK CFI INIT 1f81c 14 .cfa: sp 0 +
STACK CFI INIT 1f830 2 .cfa: sp 0 +
STACK CFI INIT 1f832 4 .cfa: sp 0 +
STACK CFI INIT 1f838 68 .cfa: sp 0 +
STACK CFI 1f83a .cfa: sp 16 + .ra: .cfa -4 + ^ r7: .cfa -8 + ^ r5: .cfa -12 + ^ r4: .cfa -16 + ^
STACK CFI 1f83c .cfa: r7 8 +
STACK CFI INIT 1f8a0 18 .cfa: sp 0 +
STACK CFI INIT 1f8b8 c .cfa: sp 0 +
STACK CFI INIT 1f8c4 4 .cfa: sp 0 +
STACK CFI INIT 1f8c8 20 .cfa: sp 0 +
STACK CFI 1f8ca .cfa: sp 16 + .ra: .cfa -4 + ^ r7: .cfa -8 + ^ r6: .cfa -12 + ^ r4: .cfa -16 + ^
STACK CFI 1f8cc .cfa: r7 8 +
STACK CFI INIT 1f8e8 14 .cfa: sp 0 +
STACK CFI INIT 1f8fc 2 .cfa: sp 0 +
STACK CFI INIT 1f8fe 4 .cfa: sp 0 +
STACK CFI INIT 1f904 68 .cfa: sp 0 +
STACK CFI 1f906 .cfa: sp 16 + .ra: .cfa -4 + ^ r7: .cfa -8 + ^ r5: .cfa -12 + ^ r4: .cfa -16 + ^
STACK CFI 1f908 .cfa: r7 8 +
STACK CFI INIT 1f96c 18 .cfa: sp 0 +
STACK CFI INIT 1f984 c .cfa: sp 0 +
STACK CFI INIT 1f990 4 .cfa: sp 0 +
STACK CFI INIT 1f994 20 .cfa: sp 0 +
STACK CFI 1f996 .cfa: sp 16 + .ra: .cfa -4 + ^ r7: .cfa -8 + ^ r6: .cfa -12 + ^ r4: .cfa -16 + ^
STACK CFI 1f998 .cfa: r7 8 +
STACK CFI INIT 1f9b4 14 .cfa: sp 0 +
STACK CFI INIT 1f9c8 2 .cfa: sp 0 +
STACK CFI INIT 1f9ca 4 .cfa: sp 0 +
STACK CFI INIT 1f9d0 68 .cfa: sp 0 +
STACK CFI 1f9d2 .cfa: sp 16 + .ra: .cfa -4 + ^ r7: .cfa -8 + ^ r5: .cfa -12 + ^ r4: .cfa -16 + ^
STACK CFI 1f9d4 .cfa: r7 8 +
STACK CFI INIT 1fa38 18 .cfa: sp 0 +
STACK CFI INIT 1fa50 c .cfa: sp 0 +
STACK CFI INIT 1fa5c 4 .cfa: sp 0 +
STACK CFI INIT 1fa60 20 .cfa: sp 0 +
STACK CFI 1fa62 .cfa: sp 16 + .ra: .cfa -4 + ^ r7: .cfa -8 + ^ r6: .cfa -12 + ^ r4: .cfa -16 + ^
STACK CFI 1fa64 .cfa: r7 8 +
STACK CFI INIT 1fa80 14 .cfa: sp 0 +
STACK CFI INIT 1fa94 2 .cfa: sp 0 +
STACK CFI INIT 1fa96 4 .cfa: sp 0 +
STACK CFI INIT 1fa9c 68 .cfa: sp 0 +
STACK CFI 1fa9e .cfa: sp 16 + .ra: .cfa -4 + ^ r7: .cfa -8 + ^ r5: .cfa -12 + ^ r4: .cfa -16 + ^
STACK CFI 1faa0 .cfa: r7 8 +
STACK CFI INIT 1fb04 18 .cfa: sp 0 +
STACK CFI INIT 1fb1c c .cfa: sp 0 +
STACK CFI INIT 1fb28 4 .cfa: sp 0 +
STACK CFI INIT 1fb2c 20 .cfa: sp 0 +
STACK CFI 1fb2e .cfa: sp 16 + .ra: .cfa -4 + ^ r7: .cfa -8 + ^ r6: .cfa -12 + ^ r4: .cfa -16 + ^
STACK CFI 1fb30 .cfa: r7 8 +
STACK CFI INIT 1fb4c 14 .cfa: sp 0 +
STACK CFI INIT 1fb60 2 .cfa: sp 0 +
STACK CFI INIT 1fb62 4 .cfa: sp 0 +
STACK CFI INIT 1fb68 68 .cfa: sp 0 +
STACK CFI 1fb6a .cfa: sp 16 + .ra: .cfa -4 + ^ r7: .cfa -8 + ^ r5: .cfa -12 + ^ r4: .cfa -16 + ^
STACK CFI 1fb6c .cfa: r7 8 +
STACK CFI INIT 1fbd0 18 .cfa: sp 0 +
STACK CFI INIT 1fbe8 c .cfa: sp 0 +
STACK CFI INIT 1fbf4 4 .cfa: sp 0 +
STACK CFI INIT 1fbf8 20 .cfa: sp 0 +
STACK CFI 1fbfa .cfa: sp 16 + .ra: .cfa -4 + ^ r7: .cfa -8 + ^ r6: .cfa -12 + ^ r4: .cfa -16 + ^
STACK CFI 1fbfc .cfa: r7 8 +
STACK CFI INIT 1fc18 14 .cfa: sp 0 +
STACK CFI INIT 1fc2c 2 .cfa: sp 0 +
STACK CFI INIT 1fc2e 4 .cfa: sp 0 +
STACK CFI INIT 1fc34 68 .cfa: sp 0 +
STACK CFI 1fc36 .cfa: sp 16 + .ra: .cfa -4 + ^ r7: .cfa -8 + ^ r5: .cfa -12 + ^ r4: .cfa -16 + ^
STACK CFI 1fc38 .cfa: r7 8 +
STACK CFI INIT 1fc9c 18 .cfa: sp 0 +
STACK CFI INIT 1fcb4 c .cfa: sp 0 +
STACK CFI INIT 1fcc0 4 .cfa: sp 0 +
STACK CFI INIT 1fcc4 20 .cfa: sp 0 +
STACK CFI 1fcc6 .cfa: sp 16 + .ra: .cfa -4 + ^ r7: .cfa -8 + ^ r6: .cfa -12 + ^ r4: .cfa -16 + ^
STACK CFI 1fcc8 .cfa: r7 8 +
STACK CFI INIT 1fce4 14 .cfa: sp 0 +
STACK CFI INIT 1fcf8 2 .cfa: sp 0 +
STACK CFI INIT 1fcfa 4 .cfa: sp 0 +
STACK CFI INIT 1fd00 68 .cfa: sp 0 +
STACK CFI 1fd02 .cfa: sp 16 + .ra: .cfa -4 + ^ r7: .cfa -8 + ^ r5: .cfa -12 + ^ r4: .cfa -16 + ^
STACK CFI 1fd04 .cfa: r7 8 +
STACK CFI INIT 1fd68 18 .cfa: sp 0 +
STACK CFI INIT 1fd80 c .cfa: sp 0 +
STACK CFI INIT 1fd8c 4 .cfa: sp 0 +
STACK CFI INIT 1fd90 20 .cfa: sp 0 +
STACK CFI 1fd92 .cfa: sp 16 + .ra: .cfa -4 + ^ r7: .cfa -8 + ^ r6: .cfa -12 + ^ r4: .cfa -16 + ^
STACK CFI 1fd94 .cfa: r7 8 +
STACK CFI INIT 1fdb0 14 .cfa: sp 0 +
STACK CFI INIT 1fdc4 2 .cfa: sp 0 +
STACK CFI INIT 1fdc6 4 .cfa: sp 0 +
STACK CFI INIT 1fdcc 68 .cfa: sp 0 +
STACK CFI 1fdce .cfa: sp 16 + .ra: .cfa -4 + ^ r7: .cfa -8 + ^ r5: .cfa -12 + ^ r4: .cfa -16 + ^
STACK CFI 1fdd0 .cfa: r7 8 +
STACK CFI INIT 1fe34 18 .cfa: sp 0 +
STACK CFI INIT 1fe4c c .cfa: sp 0 +
STACK CFI INIT 1fe58 4 .cfa: sp 0 +
STACK CFI INIT 1fe5c 20 .cfa: sp 0 +
STACK CFI 1fe5e .cfa: sp 16 + .ra: .cfa -4 + ^ r7: .cfa -8 + ^ r6: .cfa -12 + ^ r4: .cfa -16 + ^
STACK CFI 1fe60 .cfa: r7 8 +
STACK CFI INIT 1fe7c 14 .cfa: sp 0 +
STACK CFI INIT 1fe90 2 .cfa: sp 0 +
STACK CFI INIT 1fe92 4 .cfa: sp 0 +
STACK CFI INIT 1fe98 68 .cfa: sp 0 +
STACK CFI 1fe9a .cfa: sp 16 + .ra: .cfa -4 + ^ r7: .cfa -8 + ^ r5: .cfa -12 + ^ r4: .cfa -16 + ^
STACK CFI 1fe9c .cfa: r7 8 +
STACK CFI INIT 1ff00 18 .cfa: sp 0 +
STACK CFI INIT 1ff18 c .cfa: sp 0 +
STACK CFI INIT 1ff24 4 .cfa: sp 0 +
STACK CFI INIT 1ff28 20 .cfa: sp 0 +
STACK CFI 1ff2a .cfa: sp 16 + .ra: .cfa -4 + ^ r7: .cfa -8 + ^ r6: .cfa -12 + ^ r4: .cfa -16 + ^
STACK CFI 1ff2c .cfa: r7 8 +
STACK CFI INIT 1ff48 14 .cfa: sp 0 +
STACK CFI INIT 1ff5c 2 .cfa: sp 0 +
STACK CFI INIT 1ff5e 4 .cfa: sp 0 +
STACK CFI INIT 1ff64 68 .cfa: sp 0 +
STACK CFI 1ff66 .cfa: sp 16 + .ra: .cfa -4 + ^ r7: .cfa -8 + ^ r5: .cfa -12 + ^ r4: .cfa -16 + ^
STACK CFI 1ff68 .cfa: r7 8 +
STACK CFI INIT 1ffcc 18 .cfa: sp 0 +
STACK CFI INIT 1ffe4 c .cfa: sp 0 +
STACK CFI INIT 1fff0 4 .cfa: sp 0 +
STACK CFI INIT 1fff4 20 .cfa: sp 0 +
STACK CFI 1fff6 .cfa: sp 16 + .ra: .cfa -4 + ^ r7: .cfa -8 + ^ r6: .cfa -12 + ^ r4: .cfa -16 + ^
STACK CFI 1fff8 .cfa: r7 8 +
STACK CFI INIT 20014 14 .cfa: sp 0 +
STACK CFI INIT 20028 2 .cfa: sp 0 +
STACK CFI INIT 2002a 4 .cfa: sp 0 +
STACK CFI INIT 20030 68 .cfa: sp 0 +
STACK CFI 20032 .cfa: sp 16 + .ra: .cfa -4 + ^ r7: .cfa -8 + ^ r5: .cfa -12 + ^ r4: .cfa -16 + ^
STACK CFI 20034 .cfa: r7 8 +
STACK CFI INIT 20098 18 .cfa: sp 0 +
STACK CFI INIT 200b0 c .cfa: sp 0 +
STACK CFI INIT 200bc 4 .cfa: sp 0 +
STACK CFI INIT 200c0 20 .cfa: sp 0 +
STACK CFI 200c2 .cfa: sp 16 + .ra: .cfa -4 + ^ r7: .cfa -8 + ^ r6: .cfa -12 + ^ r4: .cfa -16 + ^
STACK CFI 200c4 .cfa: r7 8 +
STACK CFI INIT 200e0 14 .cfa: sp 0 +
STACK CFI INIT 200f4 2 .cfa: sp 0 +
STACK CFI INIT 200f6 4 .cfa: sp 0 +
STACK CFI INIT 200fc 68 .cfa: sp 0 +
STACK CFI 200fe .cfa: sp 16 + .ra: .cfa -4 + ^ r7: .cfa -8 + ^ r5: .cfa -12 + ^ r4: .cfa -16 + ^
STACK CFI 20100 .cfa: r7 8 +
STACK CFI INIT 20164 18 .cfa: sp 0 +
STACK CFI INIT 2017c c .cfa: sp 0 +
STACK CFI INIT 20188 4 .cfa: sp 0 +
STACK CFI INIT 2018c 20 .cfa: sp 0 +
STACK CFI 2018e .cfa: sp 16 + .ra: .cfa -4 + ^ r7: .cfa -8 + ^ r6: .cfa -12 + ^ r4: .cfa -16 + ^
STACK CFI 20190 .cfa: r7 8 +
STACK CFI INIT 201ac 14 .cfa: sp 0 +
STACK CFI INIT 201c0 2 .cfa: sp 0 +
STACK CFI INIT 201c2 4 .cfa: sp 0 +
STACK CFI INIT 201c8 68 .cfa: sp 0 +
STACK CFI 201ca .cfa: sp 16 + .ra: .cfa -4 + ^ r7: .cfa -8 + ^ r5: .cfa -12 + ^ r4: .cfa -16 + ^
STACK CFI 201cc .cfa: r7 8 +
STACK CFI INIT 20230 18 .cfa: sp 0 +
STACK CFI INIT 20248 c .cfa: sp 0 +
STACK CFI INIT 20254 4 .cfa: sp 0 +
STACK CFI INIT 20258 20 .cfa: sp 0 +
STACK CFI 2025a .cfa: sp 16 + .ra: .cfa -4 + ^ r7: .cfa -8 + ^ r6: .cfa -12 + ^ r4: .cfa -16 + ^
STACK CFI 2025c .cfa: r7 8 +
STACK CFI INIT 20278 14 .cfa: sp 0 +
STACK CFI INIT 2028c 2 .cfa: sp 0 +
STACK CFI INIT 2028e 4 .cfa: sp 0 +
STACK CFI INIT 20294 68 .cfa: sp 0 +
STACK CFI 20296 .cfa: sp 16 + .ra: .cfa -4 + ^ r7: .cfa -8 + ^ r5: .cfa -12 + ^ r4: .cfa -16 + ^
STACK CFI 20298 .cfa: r7 8 +
STACK CFI INIT 202fc 18 .cfa: sp 0 +
STACK CFI INIT 20314 c .cfa: sp 0 +
STACK CFI INIT 20320 4 .cfa: sp 0 +
STACK CFI INIT 20324 20 .cfa: sp 0 +
STACK CFI 20326 .cfa: sp 16 + .ra: .cfa -4 + ^ r7: .cfa -8 + ^ r6: .cfa -12 + ^ r4: .cfa -16 + ^
STACK CFI 20328 .cfa: r7 8 +
STACK CFI INIT 20344 14 .cfa: sp 0 +
STACK CFI INIT 20358 2 .cfa: sp 0 +
STACK CFI INIT 2035a 4 .cfa: sp 0 +
STACK CFI INIT 20360 68 .cfa: sp 0 +
STACK CFI 20362 .cfa: sp 16 + .ra: .cfa -4 + ^ r7: .cfa -8 + ^ r5: .cfa -12 + ^ r4: .cfa -16 + ^
STACK CFI 20364 .cfa: r7 8 +
STACK CFI INIT 203c8 18 .cfa: sp 0 +
STACK CFI INIT 203e0 c .cfa: sp 0 +
STACK CFI INIT 203ec 1f9c .cfa: sp 0 +
STACK CFI 203ee .cfa: sp 20 + .ra: .cfa -4 + ^ r7: .cfa -8 + ^ r6: .cfa -12 + ^ r5: .cfa -16 + ^ r4: .cfa -20 + ^
STACK CFI 203f0 .cfa: r7 8 +
STACK CFI 203f4 r11: .cfa -24 + ^ r10: .cfa -28 + ^ r9: .cfa -32 + ^ r8: .cfa -36 + ^
STACK CFI INIT 22388 88 .cfa: sp 0 +
STACK CFI 2238a .cfa: sp 16 + .ra: .cfa -4 + ^ r7: .cfa -8 + ^ r5: .cfa -12 + ^ r4: .cfa -16 + ^
STACK CFI 2238c .cfa: r7 8 +
STACK CFI INIT 22410 88 .cfa: sp 0 +
STACK CFI 22412 .cfa: sp 16 + .ra: .cfa -4 + ^ r7: .cfa -8 + ^ r5: .cfa -12 + ^ r4: .cfa -16 + ^
STACK CFI 22414 .cfa: r7 8 +
STACK CFI INIT 22498 88 .cfa: sp 0 +
STACK CFI 2249a .cfa: sp 16 + .ra: .cfa -4 + ^ r7: .cfa -8 + ^ r5: .cfa -12 + ^ r4: .cfa -16 + ^
STACK CFI 2249c .cfa: r7 8 +
STACK CFI INIT 22520 88 .cfa: sp 0 +
STACK CFI 22522 .cfa: sp 16 + .ra: .cfa -4 + ^ r7: .cfa -8 + ^ r5: .cfa -12 + ^ r4: .cfa -16 + ^
STACK CFI 22524 .cfa: r7 8 +
STACK CFI INIT 225a8 88 .cfa: sp 0 +
STACK CFI 225aa .cfa: sp 16 + .ra: .cfa -4 + ^ r7: .cfa -8 + ^ r5: .cfa -12 + ^ r4: .cfa -16 + ^
STACK CFI 225ac .cfa: r7 8 +
STACK CFI INIT 22630 88 .cfa: sp 0 +
STACK CFI 22632 .cfa: sp 16 + .ra: .cfa -4 + ^ r7: .cfa -8 + ^ r5: .cfa -12 + ^ r4: .cfa -16 + ^
STACK CFI 22634 .cfa: r7 8 +
STACK CFI INIT 226b8 88 .cfa: sp 0 +
STACK CFI 226ba .cfa: sp 16 + .ra: .cfa -4 + ^ r7: .cfa -8 + ^ r5: .cfa -12 + ^ r4: .cfa -16 + ^
STACK CFI 226bc .cfa: r7 8 +
STACK CFI INIT 22740 88 .cfa: sp 0 +
STACK CFI 22742 .cfa: sp 16 + .ra: .cfa -4 + ^ r7: .cfa -8 + ^ r5: .cfa -12 + ^ r4: .cfa -16 + ^
STACK CFI 22744 .cfa: r7 8 +
STACK CFI INIT 227c8 88 .cfa: sp 0 +
STACK CFI 227ca .cfa: sp 16 + .ra: .cfa -4 + ^ r7: .cfa -8 + ^ r5: .cfa -12 + ^ r4: .cfa -16 + ^
STACK CFI 227cc .cfa: r7 8 +
STACK CFI INIT 22850 88 .cfa: sp 0 +
STACK CFI 22852 .cfa: sp 16 + .ra: .cfa -4 + ^ r7: .cfa -8 + ^ r5: .cfa -12 + ^ r4: .cfa -16 + ^
STACK CFI 22854 .cfa: r7 8 +
STACK CFI INIT 0 74 .cfa: sp 0 +
STACK CFI 2 .cfa: sp 16 + .ra: .cfa -4 + ^ r7: .cfa -8 + ^ r6: .cfa -12 + ^ r4: .cfa -16 + ^
STACK CFI 4 .cfa: r7 8 +
STACK CFI INIT 228d8 10 .cfa: sp 0 +
STACK CFI 228da .cfa: sp 8 + .ra: .cfa -4 + ^ r7: .cfa -8 + ^
STACK CFI 228dc .cfa: r7 8 +
STACK CFI INIT 228e8 8 .cfa: sp 0 +
STACK CFI INIT 228f0 14 .cfa: sp 0 +
STACK CFI 228f2 .cfa: sp 8 + .ra: .cfa -4 + ^ r7: .cfa -8 + ^
STACK CFI 228f4 .cfa: r7 8 +
STACK CFI INIT 22904 4 .cfa: sp 0 +
STACK CFI INIT 22908 20 .cfa: sp 0 +
STACK CFI 2290a .cfa: sp 16 + .ra: .cfa -4 + ^ r7: .cfa -8 + ^ r6: .cfa -12 + ^ r4: .cfa -16 + ^
STACK CFI 2290c .cfa: r7 8 +
STACK CFI INIT 22928 14 .cfa: sp 0 +
STACK CFI INIT 2293c 2 .cfa: sp 0 +
STACK CFI INIT 2293e 4 .cfa: sp 0 +
STACK CFI INIT 22944 68 .cfa: sp 0 +
STACK CFI 22946 .cfa: sp 16 + .ra: .cfa -4 + ^ r7: .cfa -8 + ^ r5: .cfa -12 + ^ r4: .cfa -16 + ^
STACK CFI 22948 .cfa: r7 8 +
STACK CFI INIT 229ac 18 .cfa: sp 0 +
STACK CFI INIT 229c4 c .cfa: sp 0 +
STACK CFI INIT 229d0 4 .cfa: sp 0 +
STACK CFI INIT 229d4 20 .cfa: sp 0 +
STACK CFI 229d6 .cfa: sp 16 + .ra: .cfa -4 + ^ r7: .cfa -8 + ^ r6: .cfa -12 + ^ r4: .cfa -16 + ^
STACK CFI 229d8 .cfa: r7 8 +
STACK CFI INIT 229f4 14 .cfa: sp 0 +
STACK CFI INIT 22a08 2 .cfa: sp 0 +
STACK CFI INIT 22a0a 4 .cfa: sp 0 +
STACK CFI INIT 22a10 68 .cfa: sp 0 +
STACK CFI 22a12 .cfa: sp 16 + .ra: .cfa -4 + ^ r7: .cfa -8 + ^ r5: .cfa -12 + ^ r4: .cfa -16 + ^
STACK CFI 22a14 .cfa: r7 8 +
STACK CFI INIT 22a78 18 .cfa: sp 0 +
STACK CFI INIT 22a90 c .cfa: sp 0 +
STACK CFI INIT 22a9c 4 .cfa: sp 0 +
STACK CFI INIT 22aa0 20 .cfa: sp 0 +
STACK CFI 22aa2 .cfa: sp 16 + .ra: .cfa -4 + ^ r7: .cfa -8 + ^ r6: .cfa -12 + ^ r4: .cfa -16 + ^
STACK CFI 22aa4 .cfa: r7 8 +
STACK CFI INIT 22ac0 14 .cfa: sp 0 +
STACK CFI INIT 22ad4 2 .cfa: sp 0 +
STACK CFI INIT 22ad6 4 .cfa: sp 0 +
STACK CFI INIT 22adc 68 .cfa: sp 0 +
STACK CFI 22ade .cfa: sp 16 + .ra: .cfa -4 + ^ r7: .cfa -8 + ^ r5: .cfa -12 + ^ r4: .cfa -16 + ^
STACK CFI 22ae0 .cfa: r7 8 +
STACK CFI INIT 22b44 18 .cfa: sp 0 +
STACK CFI INIT 22b5c c .cfa: sp 0 +
STACK CFI INIT 22b68 4 .cfa: sp 0 +
STACK CFI INIT 22b6c 20 .cfa: sp 0 +
STACK CFI 22b6e .cfa: sp 16 + .ra: .cfa -4 + ^ r7: .cfa -8 + ^ r6: .cfa -12 + ^ r4: .cfa -16 + ^
STACK CFI 22b70 .cfa: r7 8 +
STACK CFI INIT 22b8c 14 .cfa: sp 0 +
STACK CFI INIT 22ba0 2 .cfa: sp 0 +
STACK CFI INIT 22ba2 4 .cfa: sp 0 +
STACK CFI INIT 22ba8 68 .cfa: sp 0 +
STACK CFI 22baa .cfa: sp 16 + .ra: .cfa -4 + ^ r7: .cfa -8 + ^ r5: .cfa -12 + ^ r4: .cfa -16 + ^
STACK CFI 22bac .cfa: r7 8 +
STACK CFI INIT 22c10 18 .cfa: sp 0 +
STACK CFI INIT 22c28 c .cfa: sp 0 +
STACK CFI INIT 22c34 4 .cfa: sp 0 +
STACK CFI INIT 22c38 20 .cfa: sp 0 +
STACK CFI 22c3a .cfa: sp 16 + .ra: .cfa -4 + ^ r7: .cfa -8 + ^ r6: .cfa -12 + ^ r4: .cfa -16 + ^
STACK CFI 22c3c .cfa: r7 8 +
STACK CFI INIT 22c58 14 .cfa: sp 0 +
STACK CFI INIT 22c6c 2 .cfa: sp 0 +
STACK CFI INIT 22c6e 4 .cfa: sp 0 +
STACK CFI INIT 22c74 68 .cfa: sp 0 +
STACK CFI 22c76 .cfa: sp 16 + .ra: .cfa -4 + ^ r7: .cfa -8 + ^ r5: .cfa -12 + ^ r4: .cfa -16 + ^
STACK CFI 22c78 .cfa: r7 8 +
STACK CFI INIT 22cdc 18 .cfa: sp 0 +
STACK CFI INIT 22cf4 c .cfa: sp 0 +
STACK CFI INIT 22d00 4 .cfa: sp 0 +
STACK CFI INIT 22d04 20 .cfa: sp 0 +
STACK CFI 22d06 .cfa: sp 16 + .ra: .cfa -4 + ^ r7: .cfa -8 + ^ r6: .cfa -12 + ^ r4: .cfa -16 + ^
STACK CFI 22d08 .cfa: r7 8 +
STACK CFI INIT 22d24 14 .cfa: sp 0 +
STACK CFI INIT 22d38 2 .cfa: sp 0 +
STACK CFI INIT 22d3a 4 .cfa: sp 0 +
STACK CFI INIT 22d40 68 .cfa: sp 0 +
STACK CFI 22d42 .cfa: sp 16 + .ra: .cfa -4 + ^ r7: .cfa -8 + ^ r5: .cfa -12 + ^ r4: .cfa -16 + ^
STACK CFI 22d44 .cfa: r7 8 +
STACK CFI INIT 22da8 18 .cfa: sp 0 +
STACK CFI INIT 22dc0 c .cfa: sp 0 +
STACK CFI INIT 22dcc 4 .cfa: sp 0 +
STACK CFI INIT 22dd0 20 .cfa: sp 0 +
STACK CFI 22dd2 .cfa: sp 16 + .ra: .cfa -4 + ^ r7: .cfa -8 + ^ r6: .cfa -12 + ^ r4: .cfa -16 + ^
STACK CFI 22dd4 .cfa: r7 8 +
STACK CFI INIT 22df0 14 .cfa: sp 0 +
STACK CFI INIT 22e04 2 .cfa: sp 0 +
STACK CFI INIT 22e06 4 .cfa: sp 0 +
STACK CFI INIT 22e0c 68 .cfa: sp 0 +
STACK CFI 22e0e .cfa: sp 16 + .ra: .cfa -4 + ^ r7: .cfa -8 + ^ r5: .cfa -12 + ^ r4: .cfa -16 + ^
STACK CFI 22e10 .cfa: r7 8 +
STACK CFI INIT 22e74 18 .cfa: sp 0 +
STACK CFI INIT 22e8c c .cfa: sp 0 +
STACK CFI INIT 22e98 4 .cfa: sp 0 +
STACK CFI INIT 22e9c 20 .cfa: sp 0 +
STACK CFI 22e9e .cfa: sp 16 + .ra: .cfa -4 + ^ r7: .cfa -8 + ^ r6: .cfa -12 + ^ r4: .cfa -16 + ^
STACK CFI 22ea0 .cfa: r7 8 +
STACK CFI INIT 22ebc 14 .cfa: sp 0 +
STACK CFI INIT 22ed0 2 .cfa: sp 0 +
STACK CFI INIT 22ed2 4 .cfa: sp 0 +
STACK CFI INIT 22ed8 68 .cfa: sp 0 +
STACK CFI 22eda .cfa: sp 16 + .ra: .cfa -4 + ^ r7: .cfa -8 + ^ r5: .cfa -12 + ^ r4: .cfa -16 + ^
STACK CFI 22edc .cfa: r7 8 +
STACK CFI INIT 22f40 18 .cfa: sp 0 +
STACK CFI INIT 22f58 c .cfa: sp 0 +
STACK CFI INIT 22f64 4 .cfa: sp 0 +
STACK CFI INIT 22f68 20 .cfa: sp 0 +
STACK CFI 22f6a .cfa: sp 16 + .ra: .cfa -4 + ^ r7: .cfa -8 + ^ r6: .cfa -12 + ^ r4: .cfa -16 + ^
STACK CFI 22f6c .cfa: r7 8 +
STACK CFI INIT 22f88 14 .cfa: sp 0 +
STACK CFI INIT 22f9c 2 .cfa: sp 0 +
STACK CFI INIT 22f9e 4 .cfa: sp 0 +
STACK CFI INIT 22fa4 68 .cfa: sp 0 +
STACK CFI 22fa6 .cfa: sp 16 + .ra: .cfa -4 + ^ r7: .cfa -8 + ^ r5: .cfa -12 + ^ r4: .cfa -16 + ^
STACK CFI 22fa8 .cfa: r7 8 +
STACK CFI INIT 2300c 18 .cfa: sp 0 +
STACK CFI INIT 23024 c .cfa: sp 0 +
STACK CFI INIT 23030 4 .cfa: sp 0 +
STACK CFI INIT 23034 20 .cfa: sp 0 +
STACK CFI 23036 .cfa: sp 16 + .ra: .cfa -4 + ^ r7: .cfa -8 + ^ r6: .cfa -12 + ^ r4: .cfa -16 + ^
STACK CFI 23038 .cfa: r7 8 +
STACK CFI INIT 23054 14 .cfa: sp 0 +
STACK CFI INIT 23068 2 .cfa: sp 0 +
STACK CFI INIT 2306a 4 .cfa: sp 0 +
STACK CFI INIT 23070 68 .cfa: sp 0 +
STACK CFI 23072 .cfa: sp 16 + .ra: .cfa -4 + ^ r7: .cfa -8 + ^ r5: .cfa -12 + ^ r4: .cfa -16 + ^
STACK CFI 23074 .cfa: r7 8 +
STACK CFI INIT 230d8 18 .cfa: sp 0 +
STACK CFI INIT 230f0 c .cfa: sp 0 +
STACK CFI INIT 230fc 4 .cfa: sp 0 +
STACK CFI INIT 23100 20 .cfa: sp 0 +
STACK CFI 23102 .cfa: sp 16 + .ra: .cfa -4 + ^ r7: .cfa -8 + ^ r6: .cfa -12 + ^ r4: .cfa -16 + ^
STACK CFI 23104 .cfa: r7 8 +
STACK CFI INIT 23120 14 .cfa: sp 0 +
STACK CFI INIT 23134 2 .cfa: sp 0 +
STACK CFI INIT 23136 4 .cfa: sp 0 +
STACK CFI INIT 2313c 68 .cfa: sp 0 +
STACK CFI 2313e .cfa: sp 16 + .ra: .cfa -4 + ^ r7: .cfa -8 + ^ r5: .cfa -12 + ^ r4: .cfa -16 + ^
STACK CFI 23140 .cfa: r7 8 +
STACK CFI INIT 231a4 18 .cfa: sp 0 +
STACK CFI INIT 231bc c .cfa: sp 0 +
STACK CFI INIT 231c8 4 .cfa: sp 0 +
STACK CFI INIT 231cc 20 .cfa: sp 0 +
STACK CFI 231ce .cfa: sp 16 + .ra: .cfa -4 + ^ r7: .cfa -8 + ^ r6: .cfa -12 + ^ r4: .cfa -16 + ^
STACK CFI 231d0 .cfa: r7 8 +
STACK CFI INIT 231ec 14 .cfa: sp 0 +
STACK CFI INIT 23200 2 .cfa: sp 0 +
STACK CFI INIT 23202 4 .cfa: sp 0 +
STACK CFI INIT 23208 68 .cfa: sp 0 +
STACK CFI 2320a .cfa: sp 16 + .ra: .cfa -4 + ^ r7: .cfa -8 + ^ r5: .cfa -12 + ^ r4: .cfa -16 + ^
STACK CFI 2320c .cfa: r7 8 +
STACK CFI INIT 23270 18 .cfa: sp 0 +
STACK CFI INIT 23288 c .cfa: sp 0 +
STACK CFI INIT 23294 4 .cfa: sp 0 +
STACK CFI INIT 23298 20 .cfa: sp 0 +
STACK CFI 2329a .cfa: sp 16 + .ra: .cfa -4 + ^ r7: .cfa -8 + ^ r6: .cfa -12 + ^ r4: .cfa -16 + ^
STACK CFI 2329c .cfa: r7 8 +
STACK CFI INIT 232b8 14 .cfa: sp 0 +
STACK CFI INIT 232cc 2 .cfa: sp 0 +
STACK CFI INIT 232ce 4 .cfa: sp 0 +
STACK CFI INIT 232d4 68 .cfa: sp 0 +
STACK CFI 232d6 .cfa: sp 16 + .ra: .cfa -4 + ^ r7: .cfa -8 + ^ r5: .cfa -12 + ^ r4: .cfa -16 + ^
STACK CFI 232d8 .cfa: r7 8 +
STACK CFI INIT 2333c 18 .cfa: sp 0 +
STACK CFI INIT 23354 c .cfa: sp 0 +
STACK CFI INIT 23360 4 .cfa: sp 0 +
STACK CFI INIT 23364 20 .cfa: sp 0 +
STACK CFI 23366 .cfa: sp 16 + .ra: .cfa -4 + ^ r7: .cfa -8 + ^ r6: .cfa -12 + ^ r4: .cfa -16 + ^
STACK CFI 23368 .cfa: r7 8 +
STACK CFI INIT 23384 14 .cfa: sp 0 +
STACK CFI INIT 23398 2 .cfa: sp 0 +
STACK CFI INIT 2339a 4 .cfa: sp 0 +
STACK CFI INIT 233a0 68 .cfa: sp 0 +
STACK CFI 233a2 .cfa: sp 16 + .ra: .cfa -4 + ^ r7: .cfa -8 + ^ r5: .cfa -12 + ^ r4: .cfa -16 + ^
STACK CFI 233a4 .cfa: r7 8 +
STACK CFI INIT 23408 18 .cfa: sp 0 +
STACK CFI INIT 23420 c .cfa: sp 0 +
STACK CFI INIT 2342c 4 .cfa: sp 0 +
STACK CFI INIT 23430 20 .cfa: sp 0 +
STACK CFI 23432 .cfa: sp 16 + .ra: .cfa -4 + ^ r7: .cfa -8 + ^ r6: .cfa -12 + ^ r4: .cfa -16 + ^
STACK CFI 23434 .cfa: r7 8 +
STACK CFI INIT 23450 14 .cfa: sp 0 +
STACK CFI INIT 23464 2 .cfa: sp 0 +
STACK CFI INIT 23466 4 .cfa: sp 0 +
STACK CFI INIT 2346c 68 .cfa: sp 0 +
STACK CFI 2346e .cfa: sp 16 + .ra: .cfa -4 + ^ r7: .cfa -8 + ^ r5: .cfa -12 + ^ r4: .cfa -16 + ^
STACK CFI 23470 .cfa: r7 8 +
STACK CFI INIT 234d4 18 .cfa: sp 0 +
STACK CFI INIT 234ec c .cfa: sp 0 +
STACK CFI INIT 234f8 4 .cfa: sp 0 +
STACK CFI INIT 234fc 20 .cfa: sp 0 +
STACK CFI 234fe .cfa: sp 16 + .ra: .cfa -4 + ^ r7: .cfa -8 + ^ r6: .cfa -12 + ^ r4: .cfa -16 + ^
STACK CFI 23500 .cfa: r7 8 +
STACK CFI INIT 2351c 14 .cfa: sp 0 +
STACK CFI INIT 23530 2 .cfa: sp 0 +
STACK CFI INIT 23532 4 .cfa: sp 0 +
STACK CFI INIT 23538 68 .cfa: sp 0 +
STACK CFI 2353a .cfa: sp 16 + .ra: .cfa -4 + ^ r7: .cfa -8 + ^ r5: .cfa -12 + ^ r4: .cfa -16 + ^
STACK CFI 2353c .cfa: r7 8 +
STACK CFI INIT 235a0 18 .cfa: sp 0 +
STACK CFI INIT 235b8 c .cfa: sp 0 +
STACK CFI INIT 235c4 4 .cfa: sp 0 +
STACK CFI INIT 235c8 20 .cfa: sp 0 +
STACK CFI 235ca .cfa: sp 16 + .ra: .cfa -4 + ^ r7: .cfa -8 + ^ r6: .cfa -12 + ^ r4: .cfa -16 + ^
STACK CFI 235cc .cfa: r7 8 +
STACK CFI INIT 235e8 14 .cfa: sp 0 +
STACK CFI INIT 235fc 2 .cfa: sp 0 +
STACK CFI INIT 235fe 4 .cfa: sp 0 +
STACK CFI INIT 23604 68 .cfa: sp 0 +
STACK CFI 23606 .cfa: sp 16 + .ra: .cfa -4 + ^ r7: .cfa -8 + ^ r5: .cfa -12 + ^ r4: .cfa -16 + ^
STACK CFI 23608 .cfa: r7 8 +
STACK CFI INIT 2366c 18 .cfa: sp 0 +
STACK CFI INIT 23684 c .cfa: sp 0 +
STACK CFI INIT 23690 4 .cfa: sp 0 +
STACK CFI INIT 23694 20 .cfa: sp 0 +
STACK CFI 23696 .cfa: sp 16 + .ra: .cfa -4 + ^ r7: .cfa -8 + ^ r6: .cfa -12 + ^ r4: .cfa -16 + ^
STACK CFI 23698 .cfa: r7 8 +
STACK CFI INIT 236b4 14 .cfa: sp 0 +
STACK CFI INIT 236c8 2 .cfa: sp 0 +
STACK CFI INIT 236ca 4 .cfa: sp 0 +
STACK CFI INIT 236d0 68 .cfa: sp 0 +
STACK CFI 236d2 .cfa: sp 16 + .ra: .cfa -4 + ^ r7: .cfa -8 + ^ r5: .cfa -12 + ^ r4: .cfa -16 + ^
STACK CFI 236d4 .cfa: r7 8 +
STACK CFI INIT 23738 18 .cfa: sp 0 +
STACK CFI INIT 23750 c .cfa: sp 0 +
STACK CFI INIT 2375c 4 .cfa: sp 0 +
STACK CFI INIT 23760 20 .cfa: sp 0 +
STACK CFI 23762 .cfa: sp 16 + .ra: .cfa -4 + ^ r7: .cfa -8 + ^ r6: .cfa -12 + ^ r4: .cfa -16 + ^
STACK CFI 23764 .cfa: r7 8 +
STACK CFI INIT 23780 14 .cfa: sp 0 +
STACK CFI INIT 23794 2 .cfa: sp 0 +
STACK CFI INIT 23796 4 .cfa: sp 0 +
STACK CFI INIT 2379c 68 .cfa: sp 0 +
STACK CFI 2379e .cfa: sp 16 + .ra: .cfa -4 + ^ r7: .cfa -8 + ^ r5: .cfa -12 + ^ r4: .cfa -16 + ^
STACK CFI 237a0 .cfa: r7 8 +
STACK CFI INIT 23804 18 .cfa: sp 0 +
STACK CFI INIT 2381c c .cfa: sp 0 +
STACK CFI INIT 23828 4 .cfa: sp 0 +
STACK CFI INIT 2382c 20 .cfa: sp 0 +
STACK CFI 2382e .cfa: sp 16 + .ra: .cfa -4 + ^ r7: .cfa -8 + ^ r6: .cfa -12 + ^ r4: .cfa -16 + ^
STACK CFI 23830 .cfa: r7 8 +
STACK CFI INIT 2384c 14 .cfa: sp 0 +
STACK CFI INIT 23860 2 .cfa: sp 0 +
STACK CFI INIT 23862 4 .cfa: sp 0 +
STACK CFI INIT 23868 68 .cfa: sp 0 +
STACK CFI 2386a .cfa: sp 16 + .ra: .cfa -4 + ^ r7: .cfa -8 + ^ r5: .cfa -12 + ^ r4: .cfa -16 + ^
STACK CFI 2386c .cfa: r7 8 +
STACK CFI INIT 238d0 18 .cfa: sp 0 +
STACK CFI INIT 238e8 c .cfa: sp 0 +
STACK CFI INIT 238f4 1f9c .cfa: sp 0 +
STACK CFI 238f6 .cfa: sp 20 + .ra: .cfa -4 + ^ r7: .cfa -8 + ^ r6: .cfa -12 + ^ r5: .cfa -16 + ^ r4: .cfa -20 + ^
STACK CFI 238f8 .cfa: r7 8 +
STACK CFI 238fc r11: .cfa -24 + ^ r10: .cfa -28 + ^ r9: .cfa -32 + ^ r8: .cfa -36 + ^
STACK CFI INIT 25890 88 .cfa: sp 0 +
STACK CFI 25892 .cfa: sp 16 + .ra: .cfa -4 + ^ r7: .cfa -8 + ^ r5: .cfa -12 + ^ r4: .cfa -16 + ^
STACK CFI 25894 .cfa: r7 8 +
STACK CFI INIT 25918 88 .cfa: sp 0 +
STACK CFI 2591a .cfa: sp 16 + .ra: .cfa -4 + ^ r7: .cfa -8 + ^ r5: .cfa -12 + ^ r4: .cfa -16 + ^
STACK CFI 2591c .cfa: r7 8 +
STACK CFI INIT 259a0 88 .cfa: sp 0 +
STACK CFI 259a2 .cfa: sp 16 + .ra: .cfa -4 + ^ r7: .cfa -8 + ^ r5: .cfa -12 + ^ r4: .cfa -16 + ^
STACK CFI 259a4 .cfa: r7 8 +
STACK CFI INIT 25a28 88 .cfa: sp 0 +
STACK CFI 25a2a .cfa: sp 16 + .ra: .cfa -4 + ^ r7: .cfa -8 + ^ r5: .cfa -12 + ^ r4: .cfa -16 + ^
STACK CFI 25a2c .cfa: r7 8 +
STACK CFI INIT 25ab0 88 .cfa: sp 0 +
STACK CFI 25ab2 .cfa: sp 16 + .ra: .cfa -4 + ^ r7: .cfa -8 + ^ r5: .cfa -12 + ^ r4: .cfa -16 + ^
STACK CFI 25ab4 .cfa: r7 8 +
STACK CFI INIT 25b38 88 .cfa: sp 0 +
STACK CFI 25b3a .cfa: sp 16 + .ra: .cfa -4 + ^ r7: .cfa -8 + ^ r5: .cfa -12 + ^ r4: .cfa -16 + ^
STACK CFI 25b3c .cfa: r7 8 +
STACK CFI INIT 25bc0 88 .cfa: sp 0 +
STACK CFI 25bc2 .cfa: sp 16 + .ra: .cfa -4 + ^ r7: .cfa -8 + ^ r5: .cfa -12 + ^ r4: .cfa -16 + ^
STACK CFI 25bc4 .cfa: r7 8 +
STACK CFI INIT 25c48 88 .cfa: sp 0 +
STACK CFI 25c4a .cfa: sp 16 + .ra: .cfa -4 + ^ r7: .cfa -8 + ^ r5: .cfa -12 + ^ r4: .cfa -16 + ^
STACK CFI 25c4c .cfa: r7 8 +
STACK CFI INIT 25cd0 88 .cfa: sp 0 +
STACK CFI 25cd2 .cfa: sp 16 + .ra: .cfa -4 + ^ r7: .cfa -8 + ^ r5: .cfa -12 + ^ r4: .cfa -16 + ^
STACK CFI 25cd4 .cfa: r7 8 +
STACK CFI INIT 25d58 88 .cfa: sp 0 +
STACK CFI 25d5a .cfa: sp 16 + .ra: .cfa -4 + ^ r7: .cfa -8 + ^ r5: .cfa -12 + ^ r4: .cfa -16 + ^
STACK CFI 25d5c .cfa: r7 8 +
STACK CFI INIT 0 74 .cfa: sp 0 +
STACK CFI 2 .cfa: sp 16 + .ra: .cfa -4 + ^ r7: .cfa -8 + ^ r6: .cfa -12 + ^ r4: .cfa -16 + ^
STACK CFI 4 .cfa: r7 8 +
STACK CFI INIT 25de0 10 .cfa: sp 0 +
STACK CFI 25de2 .cfa: sp 8 + .ra: .cfa -4 + ^ r7: .cfa -8 + ^
STACK CFI 25de4 .cfa: r7 8 +
STACK CFI INIT 25df0 8 .cfa: sp 0 +
STACK CFI INIT 25df8 14 .cfa: sp 0 +
STACK CFI 25dfa .cfa: sp 8 + .ra: .cfa -4 + ^ r7: .cfa -8 + ^
STACK CFI 25dfc .cfa: r7 8 +
STACK CFI INIT 25e0c 4 .cfa: sp 0 +
STACK CFI INIT 25e10 20 .cfa: sp 0 +
STACK CFI 25e12 .cfa: sp 16 + .ra: .cfa -4 + ^ r7: .cfa -8 + ^ r6: .cfa -12 + ^ r4: .cfa -16 + ^
STACK CFI 25e14 .cfa: r7 8 +
STACK CFI INIT 25e30 14 .cfa: sp 0 +
STACK CFI INIT 25e44 2 .cfa: sp 0 +
STACK CFI INIT 25e46 4 .cfa: sp 0 +
STACK CFI INIT 25e4c 68 .cfa: sp 0 +
STACK CFI 25e4e .cfa: sp 16 + .ra: .cfa -4 + ^ r7: .cfa -8 + ^ r5: .cfa -12 + ^ r4: .cfa -16 + ^
STACK CFI 25e50 .cfa: r7 8 +
STACK CFI INIT 25eb4 18 .cfa: sp 0 +
STACK CFI INIT 25ecc c .cfa: sp 0 +
STACK CFI INIT 25ed8 4 .cfa: sp 0 +
STACK CFI INIT 25edc 20 .cfa: sp 0 +
STACK CFI 25ede .cfa: sp 16 + .ra: .cfa -4 + ^ r7: .cfa -8 + ^ r6: .cfa -12 + ^ r4: .cfa -16 + ^
STACK CFI 25ee0 .cfa: r7 8 +
STACK CFI INIT 25efc 14 .cfa: sp 0 +
STACK CFI INIT 25f10 2 .cfa: sp 0 +
STACK CFI INIT 25f12 4 .cfa: sp 0 +
STACK CFI INIT 25f18 68 .cfa: sp 0 +
STACK CFI 25f1a .cfa: sp 16 + .ra: .cfa -4 + ^ r7: .cfa -8 + ^ r5: .cfa -12 + ^ r4: .cfa -16 + ^
STACK CFI 25f1c .cfa: r7 8 +
STACK CFI INIT 25f80 18 .cfa: sp 0 +
STACK CFI INIT 25f98 c .cfa: sp 0 +
STACK CFI INIT 25fa4 4 .cfa: sp 0 +
STACK CFI INIT 25fa8 20 .cfa: sp 0 +
STACK CFI 25faa .cfa: sp 16 + .ra: .cfa -4 + ^ r7: .cfa -8 + ^ r6: .cfa -12 + ^ r4: .cfa -16 + ^
STACK CFI 25fac .cfa: r7 8 +
STACK CFI INIT 25fc8 14 .cfa: sp 0 +
STACK CFI INIT 25fdc 2 .cfa: sp 0 +
STACK CFI INIT 25fde 4 .cfa: sp 0 +
STACK CFI INIT 25fe4 68 .cfa: sp 0 +
STACK CFI 25fe6 .cfa: sp 16 + .ra: .cfa -4 + ^ r7: .cfa -8 + ^ r5: .cfa -12 + ^ r4: .cfa -16 + ^
STACK CFI 25fe8 .cfa: r7 8 +
STACK CFI INIT 2604c 18 .cfa: sp 0 +
STACK CFI INIT 26064 c .cfa: sp 0 +
STACK CFI INIT 26070 4 .cfa: sp 0 +
STACK CFI INIT 26074 20 .cfa: sp 0 +
STACK CFI 26076 .cfa: sp 16 + .ra: .cfa -4 + ^ r7: .cfa -8 + ^ r6: .cfa -12 + ^ r4: .cfa -16 + ^
STACK CFI 26078 .cfa: r7 8 +
STACK CFI INIT 26094 14 .cfa: sp 0 +
STACK CFI INIT 260a8 2 .cfa: sp 0 +
STACK CFI INIT 260aa 4 .cfa: sp 0 +
STACK CFI INIT 260b0 68 .cfa: sp 0 +
STACK CFI 260b2 .cfa: sp 16 + .ra: .cfa -4 + ^ r7: .cfa -8 + ^ r5: .cfa -12 + ^ r4: .cfa -16 + ^
STACK CFI 260b4 .cfa: r7 8 +
STACK CFI INIT 26118 18 .cfa: sp 0 +
STACK CFI INIT 26130 c .cfa: sp 0 +
STACK CFI INIT 2613c 4 .cfa: sp 0 +
STACK CFI INIT 26140 20 .cfa: sp 0 +
STACK CFI 26142 .cfa: sp 16 + .ra: .cfa -4 + ^ r7: .cfa -8 + ^ r6: .cfa -12 + ^ r4: .cfa -16 + ^
STACK CFI 26144 .cfa: r7 8 +
STACK CFI INIT 26160 14 .cfa: sp 0 +
STACK CFI INIT 26174 2 .cfa: sp 0 +
STACK CFI INIT 26176 4 .cfa: sp 0 +
STACK CFI INIT 2617c 68 .cfa: sp 0 +
STACK CFI 2617e .cfa: sp 16 + .ra: .cfa -4 + ^ r7: .cfa -8 + ^ r5: .cfa -12 + ^ r4: .cfa -16 + ^
STACK CFI 26180 .cfa: r7 8 +
STACK CFI INIT 261e4 18 .cfa: sp 0 +
STACK CFI INIT 261fc c .cfa: sp 0 +
STACK CFI INIT 26208 4 .cfa: sp 0 +
STACK CFI INIT 2620c 20 .cfa: sp 0 +
STACK CFI 2620e .cfa: sp 16 + .ra: .cfa -4 + ^ r7: .cfa -8 + ^ r6: .cfa -12 + ^ r4: .cfa -16 + ^
STACK CFI 26210 .cfa: r7 8 +
STACK CFI INIT 2622c 14 .cfa: sp 0 +
STACK CFI INIT 26240 2 .cfa: sp 0 +
STACK CFI INIT 26242 4 .cfa: sp 0 +
STACK CFI INIT 26248 68 .cfa: sp 0 +
STACK CFI 2624a .cfa: sp 16 + .ra: .cfa -4 + ^ r7: .cfa -8 + ^ r5: .cfa -12 + ^ r4: .cfa -16 + ^
STACK CFI 2624c .cfa: r7 8 +
STACK CFI INIT 262b0 18 .cfa: sp 0 +
STACK CFI INIT 262c8 c .cfa: sp 0 +
STACK CFI INIT 262d4 4 .cfa: sp 0 +
STACK CFI INIT 262d8 20 .cfa: sp 0 +
STACK CFI 262da .cfa: sp 16 + .ra: .cfa -4 + ^ r7: .cfa -8 + ^ r6: .cfa -12 + ^ r4: .cfa -16 + ^
STACK CFI 262dc .cfa: r7 8 +
STACK CFI INIT 262f8 14 .cfa: sp 0 +
STACK CFI INIT 2630c 2 .cfa: sp 0 +
STACK CFI INIT 2630e 4 .cfa: sp 0 +
STACK CFI INIT 26314 68 .cfa: sp 0 +
STACK CFI 26316 .cfa: sp 16 + .ra: .cfa -4 + ^ r7: .cfa -8 + ^ r5: .cfa -12 + ^ r4: .cfa -16 + ^
STACK CFI 26318 .cfa: r7 8 +
STACK CFI INIT 2637c 18 .cfa: sp 0 +
STACK CFI INIT 26394 c .cfa: sp 0 +
STACK CFI INIT 263a0 4 .cfa: sp 0 +
STACK CFI INIT 263a4 20 .cfa: sp 0 +
STACK CFI 263a6 .cfa: sp 16 + .ra: .cfa -4 + ^ r7: .cfa -8 + ^ r6: .cfa -12 + ^ r4: .cfa -16 + ^
STACK CFI 263a8 .cfa: r7 8 +
STACK CFI INIT 263c4 14 .cfa: sp 0 +
STACK CFI INIT 263d8 2 .cfa: sp 0 +
STACK CFI INIT 263da 4 .cfa: sp 0 +
STACK CFI INIT 263e0 68 .cfa: sp 0 +
STACK CFI 263e2 .cfa: sp 16 + .ra: .cfa -4 + ^ r7: .cfa -8 + ^ r5: .cfa -12 + ^ r4: .cfa -16 + ^
STACK CFI 263e4 .cfa: r7 8 +
STACK CFI INIT 26448 18 .cfa: sp 0 +
STACK CFI INIT 26460 c .cfa: sp 0 +
STACK CFI INIT 2646c 4 .cfa: sp 0 +
STACK CFI INIT 26470 20 .cfa: sp 0 +
STACK CFI 26472 .cfa: sp 16 + .ra: .cfa -4 + ^ r7: .cfa -8 + ^ r6: .cfa -12 + ^ r4: .cfa -16 + ^
STACK CFI 26474 .cfa: r7 8 +
STACK CFI INIT 26490 14 .cfa: sp 0 +
STACK CFI INIT 264a4 2 .cfa: sp 0 +
STACK CFI INIT 264a6 4 .cfa: sp 0 +
STACK CFI INIT 264ac 68 .cfa: sp 0 +
STACK CFI 264ae .cfa: sp 16 + .ra: .cfa -4 + ^ r7: .cfa -8 + ^ r5: .cfa -12 + ^ r4: .cfa -16 + ^
STACK CFI 264b0 .cfa: r7 8 +
STACK CFI INIT 26514 18 .cfa: sp 0 +
STACK CFI INIT 2652c c .cfa: sp 0 +
STACK CFI INIT 26538 4 .cfa: sp 0 +
STACK CFI INIT 2653c 20 .cfa: sp 0 +
STACK CFI 2653e .cfa: sp 16 + .ra: .cfa -4 + ^ r7: .cfa -8 + ^ r6: .cfa -12 + ^ r4: .cfa -16 + ^
STACK CFI 26540 .cfa: r7 8 +
STACK CFI INIT 2655c 14 .cfa: sp 0 +
STACK CFI INIT 26570 2 .cfa: sp 0 +
STACK CFI INIT 26572 4 .cfa: sp 0 +
STACK CFI INIT 26578 68 .cfa: sp 0 +
STACK CFI 2657a .cfa: sp 16 + .ra: .cfa -4 + ^ r7: .cfa -8 + ^ r5: .cfa -12 + ^ r4: .cfa -16 + ^
STACK CFI 2657c .cfa: r7 8 +
STACK CFI INIT 265e0 18 .cfa: sp 0 +
STACK CFI INIT 265f8 c .cfa: sp 0 +
STACK CFI INIT 26604 4 .cfa: sp 0 +
STACK CFI INIT 26608 20 .cfa: sp 0 +
STACK CFI 2660a .cfa: sp 16 + .ra: .cfa -4 + ^ r7: .cfa -8 + ^ r6: .cfa -12 + ^ r4: .cfa -16 + ^
STACK CFI 2660c .cfa: r7 8 +
STACK CFI INIT 26628 14 .cfa: sp 0 +
STACK CFI INIT 2663c 2 .cfa: sp 0 +
STACK CFI INIT 2663e 4 .cfa: sp 0 +
STACK CFI INIT 26644 68 .cfa: sp 0 +
STACK CFI 26646 .cfa: sp 16 + .ra: .cfa -4 + ^ r7: .cfa -8 + ^ r5: .cfa -12 + ^ r4: .cfa -16 + ^
STACK CFI 26648 .cfa: r7 8 +
STACK CFI INIT 266ac 18 .cfa: sp 0 +
STACK CFI INIT 266c4 c .cfa: sp 0 +
STACK CFI INIT 266d0 4 .cfa: sp 0 +
STACK CFI INIT 266d4 20 .cfa: sp 0 +
STACK CFI 266d6 .cfa: sp 16 + .ra: .cfa -4 + ^ r7: .cfa -8 + ^ r6: .cfa -12 + ^ r4: .cfa -16 + ^
STACK CFI 266d8 .cfa: r7 8 +
STACK CFI INIT 266f4 14 .cfa: sp 0 +
STACK CFI INIT 26708 2 .cfa: sp 0 +
STACK CFI INIT 2670a 4 .cfa: sp 0 +
STACK CFI INIT 26710 68 .cfa: sp 0 +
STACK CFI 26712 .cfa: sp 16 + .ra: .cfa -4 + ^ r7: .cfa -8 + ^ r5: .cfa -12 + ^ r4: .cfa -16 + ^
STACK CFI 26714 .cfa: r7 8 +
STACK CFI INIT 26778 18 .cfa: sp 0 +
STACK CFI INIT 26790 c .cfa: sp 0 +
STACK CFI INIT 2679c 4 .cfa: sp 0 +
STACK CFI INIT 267a0 20 .cfa: sp 0 +
STACK CFI 267a2 .cfa: sp 16 + .ra: .cfa -4 + ^ r7: .cfa -8 + ^ r6: .cfa -12 + ^ r4: .cfa -16 + ^
STACK CFI 267a4 .cfa: r7 8 +
STACK CFI INIT 267c0 14 .cfa: sp 0 +
STACK CFI INIT 267d4 2 .cfa: sp 0 +
STACK CFI INIT 267d6 4 .cfa: sp 0 +
STACK CFI INIT 267dc 68 .cfa: sp 0 +
STACK CFI 267de .cfa: sp 16 + .ra: .cfa -4 + ^ r7: .cfa -8 + ^ r5: .cfa -12 + ^ r4: .cfa -16 + ^
STACK CFI 267e0 .cfa: r7 8 +
STACK CFI INIT 26844 18 .cfa: sp 0 +
STACK CFI INIT 2685c c .cfa: sp 0 +
STACK CFI INIT 26868 4 .cfa: sp 0 +
STACK CFI INIT 2686c 20 .cfa: sp 0 +
STACK CFI 2686e .cfa: sp 16 + .ra: .cfa -4 + ^ r7: .cfa -8 + ^ r6: .cfa -12 + ^ r4: .cfa -16 + ^
STACK CFI 26870 .cfa: r7 8 +
STACK CFI INIT 2688c 14 .cfa: sp 0 +
STACK CFI INIT 268a0 2 .cfa: sp 0 +
STACK CFI INIT 268a2 4 .cfa: sp 0 +
STACK CFI INIT 268a8 68 .cfa: sp 0 +
STACK CFI 268aa .cfa: sp 16 + .ra: .cfa -4 + ^ r7: .cfa -8 + ^ r5: .cfa -12 + ^ r4: .cfa -16 + ^
STACK CFI 268ac .cfa: r7 8 +
STACK CFI INIT 26910 18 .cfa: sp 0 +
STACK CFI INIT 26928 c .cfa: sp 0 +
STACK CFI INIT 26934 4 .cfa: sp 0 +
STACK CFI INIT 26938 20 .cfa: sp 0 +
STACK CFI 2693a .cfa: sp 16 + .ra: .cfa -4 + ^ r7: .cfa -8 + ^ r6: .cfa -12 + ^ r4: .cfa -16 + ^
STACK CFI 2693c .cfa: r7 8 +
STACK CFI INIT 26958 14 .cfa: sp 0 +
STACK CFI INIT 2696c 2 .cfa: sp 0 +
STACK CFI INIT 2696e 4 .cfa: sp 0 +
STACK CFI INIT 26974 68 .cfa: sp 0 +
STACK CFI 26976 .cfa: sp 16 + .ra: .cfa -4 + ^ r7: .cfa -8 + ^ r5: .cfa -12 + ^ r4: .cfa -16 + ^
STACK CFI 26978 .cfa: r7 8 +
STACK CFI INIT 269dc 18 .cfa: sp 0 +
STACK CFI INIT 269f4 c .cfa: sp 0 +
STACK CFI INIT 26a00 4 .cfa: sp 0 +
STACK CFI INIT 26a04 20 .cfa: sp 0 +
STACK CFI 26a06 .cfa: sp 16 + .ra: .cfa -4 + ^ r7: .cfa -8 + ^ r6: .cfa -12 + ^ r4: .cfa -16 + ^
STACK CFI 26a08 .cfa: r7 8 +
STACK CFI INIT 26a24 14 .cfa: sp 0 +
STACK CFI INIT 26a38 2 .cfa: sp 0 +
STACK CFI INIT 26a3a 4 .cfa: sp 0 +
STACK CFI INIT 26a40 68 .cfa: sp 0 +
STACK CFI 26a42 .cfa: sp 16 + .ra: .cfa -4 + ^ r7: .cfa -8 + ^ r5: .cfa -12 + ^ r4: .cfa -16 + ^
STACK CFI 26a44 .cfa: r7 8 +
STACK CFI INIT 26aa8 18 .cfa: sp 0 +
STACK CFI INIT 26ac0 c .cfa: sp 0 +
STACK CFI INIT 26acc 4 .cfa: sp 0 +
STACK CFI INIT 26ad0 20 .cfa: sp 0 +
STACK CFI 26ad2 .cfa: sp 16 + .ra: .cfa -4 + ^ r7: .cfa -8 + ^ r6: .cfa -12 + ^ r4: .cfa -16 + ^
STACK CFI 26ad4 .cfa: r7 8 +
STACK CFI INIT 26af0 14 .cfa: sp 0 +
STACK CFI INIT 26b04 2 .cfa: sp 0 +
STACK CFI INIT 26b06 4 .cfa: sp 0 +
STACK CFI INIT 26b0c 68 .cfa: sp 0 +
STACK CFI 26b0e .cfa: sp 16 + .ra: .cfa -4 + ^ r7: .cfa -8 + ^ r5: .cfa -12 + ^ r4: .cfa -16 + ^
STACK CFI 26b10 .cfa: r7 8 +
STACK CFI INIT 26b74 18 .cfa: sp 0 +
STACK CFI INIT 26b8c c .cfa: sp 0 +
STACK CFI INIT 26b98 4 .cfa: sp 0 +
STACK CFI INIT 26b9c 20 .cfa: sp 0 +
STACK CFI 26b9e .cfa: sp 16 + .ra: .cfa -4 + ^ r7: .cfa -8 + ^ r6: .cfa -12 + ^ r4: .cfa -16 + ^
STACK CFI 26ba0 .cfa: r7 8 +
STACK CFI INIT 26bbc 14 .cfa: sp 0 +
STACK CFI INIT 26bd0 2 .cfa: sp 0 +
STACK CFI INIT 26bd2 4 .cfa: sp 0 +
STACK CFI INIT 26bd8 68 .cfa: sp 0 +
STACK CFI 26bda .cfa: sp 16 + .ra: .cfa -4 + ^ r7: .cfa -8 + ^ r5: .cfa -12 + ^ r4: .cfa -16 + ^
STACK CFI 26bdc .cfa: r7 8 +
STACK CFI INIT 26c40 18 .cfa: sp 0 +
STACK CFI INIT 26c58 c .cfa: sp 0 +
STACK CFI INIT 26c64 4 .cfa: sp 0 +
STACK CFI INIT 26c68 20 .cfa: sp 0 +
STACK CFI 26c6a .cfa: sp 16 + .ra: .cfa -4 + ^ r7: .cfa -8 + ^ r6: .cfa -12 + ^ r4: .cfa -16 + ^
STACK CFI 26c6c .cfa: r7 8 +
STACK CFI INIT 26c88 14 .cfa: sp 0 +
STACK CFI INIT 26c9c 2 .cfa: sp 0 +
STACK CFI INIT 26c9e 4 .cfa: sp 0 +
STACK CFI INIT 26ca4 68 .cfa: sp 0 +
STACK CFI 26ca6 .cfa: sp 16 + .ra: .cfa -4 + ^ r7: .cfa -8 + ^ r5: .cfa -12 + ^ r4: .cfa -16 + ^
STACK CFI 26ca8 .cfa: r7 8 +
STACK CFI INIT 26d0c 18 .cfa: sp 0 +
STACK CFI INIT 26d24 c .cfa: sp 0 +
STACK CFI INIT 26d30 4 .cfa: sp 0 +
STACK CFI INIT 26d34 20 .cfa: sp 0 +
STACK CFI 26d36 .cfa: sp 16 + .ra: .cfa -4 + ^ r7: .cfa -8 + ^ r6: .cfa -12 + ^ r4: .cfa -16 + ^
STACK CFI 26d38 .cfa: r7 8 +
STACK CFI INIT 26d54 14 .cfa: sp 0 +
STACK CFI INIT 26d68 2 .cfa: sp 0 +
STACK CFI INIT 26d6a 4 .cfa: sp 0 +
STACK CFI INIT 26d70 68 .cfa: sp 0 +
STACK CFI 26d72 .cfa: sp 16 + .ra: .cfa -4 + ^ r7: .cfa -8 + ^ r5: .cfa -12 + ^ r4: .cfa -16 + ^
STACK CFI 26d74 .cfa: r7 8 +
STACK CFI INIT 26dd8 18 .cfa: sp 0 +
STACK CFI INIT 26df0 c .cfa: sp 0 +
STACK CFI INIT 26dfc 1f9c .cfa: sp 0 +
STACK CFI 26dfe .cfa: sp 20 + .ra: .cfa -4 + ^ r7: .cfa -8 + ^ r6: .cfa -12 + ^ r5: .cfa -16 + ^ r4: .cfa -20 + ^
STACK CFI 26e00 .cfa: r7 8 +
STACK CFI 26e04 r11: .cfa -24 + ^ r10: .cfa -28 + ^ r9: .cfa -32 + ^ r8: .cfa -36 + ^
STACK CFI INIT 28d98 88 .cfa: sp 0 +
STACK CFI 28d9a .cfa: sp 16 + .ra: .cfa -4 + ^ r7: .cfa -8 + ^ r5: .cfa -12 + ^ r4: .cfa -16 + ^
STACK CFI 28d9c .cfa: r7 8 +
STACK CFI INIT 28e20 88 .cfa: sp 0 +
STACK CFI 28e22 .cfa: sp 16 + .ra: .cfa -4 + ^ r7: .cfa -8 + ^ r5: .cfa -12 + ^ r4: .cfa -16 + ^
STACK CFI 28e24 .cfa: r7 8 +
STACK CFI INIT 28ea8 88 .cfa: sp 0 +
STACK CFI 28eaa .cfa: sp 16 + .ra: .cfa -4 + ^ r7: .cfa -8 + ^ r5: .cfa -12 + ^ r4: .cfa -16 + ^
STACK CFI 28eac .cfa: r7 8 +
STACK CFI INIT 28f30 88 .cfa: sp 0 +
STACK CFI 28f32 .cfa: sp 16 + .ra: .cfa -4 + ^ r7: .cfa -8 + ^ r5: .cfa -12 + ^ r4: .cfa -16 + ^
STACK CFI 28f34 .cfa: r7 8 +
STACK CFI INIT 28fb8 88 .cfa: sp 0 +
STACK CFI 28fba .cfa: sp 16 + .ra: .cfa -4 + ^ r7: .cfa -8 + ^ r5: .cfa -12 + ^ r4: .cfa -16 + ^
STACK CFI 28fbc .cfa: r7 8 +
STACK CFI INIT 29040 88 .cfa: sp 0 +
STACK CFI 29042 .cfa: sp 16 + .ra: .cfa -4 + ^ r7: .cfa -8 + ^ r5: .cfa -12 + ^ r4: .cfa -16 + ^
STACK CFI 29044 .cfa: r7 8 +
STACK CFI INIT 290c8 88 .cfa: sp 0 +
STACK CFI 290ca .cfa: sp 16 + .ra: .cfa -4 + ^ r7: .cfa -8 + ^ r5: .cfa -12 + ^ r4: .cfa -16 + ^
STACK CFI 290cc .cfa: r7 8 +
STACK CFI INIT 29150 88 .cfa: sp 0 +
STACK CFI 29152 .cfa: sp 16 + .ra: .cfa -4 + ^ r7: .cfa -8 + ^ r5: .cfa -12 + ^ r4: .cfa -16 + ^
STACK CFI 29154 .cfa: r7 8 +
STACK CFI INIT 291d8 88 .cfa: sp 0 +
STACK CFI 291da .cfa: sp 16 + .ra: .cfa -4 + ^ r7: .cfa -8 + ^ r5: .cfa -12 + ^ r4: .cfa -16 + ^
STACK CFI 291dc .cfa: r7 8 +
STACK CFI INIT 29260 88 .cfa: sp 0 +
STACK CFI 29262 .cfa: sp 16 + .ra: .cfa -4 + ^ r7: .cfa -8 + ^ r5: .cfa -12 + ^ r4: .cfa -16 + ^
STACK CFI 29264 .cfa: r7 8 +
STACK CFI INIT 0 74 .cfa: sp 0 +
STACK CFI 2 .cfa: sp 16 + .ra: .cfa -4 + ^ r7: .cfa -8 + ^ r6: .cfa -12 + ^ r4: .cfa -16 + ^
STACK CFI 4 .cfa: r7 8 +
STACK CFI INIT 292e8 10 .cfa: sp 0 +
STACK CFI 292ea .cfa: sp 8 + .ra: .cfa -4 + ^ r7: .cfa -8 + ^
STACK CFI 292ec .cfa: r7 8 +
STACK CFI INIT 292f8 8 .cfa: sp 0 +
STACK CFI INIT 29300 14 .cfa: sp 0 +
STACK CFI 29302 .cfa: sp 8 + .ra: .cfa -4 + ^ r7: .cfa -8 + ^
STACK CFI 29304 .cfa: r7 8 +
STACK CFI INIT 29314 4 .cfa: sp 0 +
STACK CFI INIT 29318 20 .cfa: sp 0 +
STACK CFI 2931a .cfa: sp 16 + .ra: .cfa -4 + ^ r7: .cfa -8 + ^ r6: .cfa -12 + ^ r4: .cfa -16 + ^
STACK CFI 2931c .cfa: r7 8 +
STACK CFI INIT 29338 14 .cfa: sp 0 +
STACK CFI INIT 2934c 2 .cfa: sp 0 +
STACK CFI INIT 2934e 4 .cfa: sp 0 +
STACK CFI INIT 29354 68 .cfa: sp 0 +
STACK CFI 29356 .cfa: sp 16 + .ra: .cfa -4 + ^ r7: .cfa -8 + ^ r5: .cfa -12 + ^ r4: .cfa -16 + ^
STACK CFI 29358 .cfa: r7 8 +
STACK CFI INIT 293bc 18 .cfa: sp 0 +
STACK CFI INIT 293d4 c .cfa: sp 0 +
STACK CFI INIT 293e0 4 .cfa: sp 0 +
STACK CFI INIT 293e4 20 .cfa: sp 0 +
STACK CFI 293e6 .cfa: sp 16 + .ra: .cfa -4 + ^ r7: .cfa -8 + ^ r6: .cfa -12 + ^ r4: .cfa -16 + ^
STACK CFI 293e8 .cfa: r7 8 +
STACK CFI INIT 29404 14 .cfa: sp 0 +
STACK CFI INIT 29418 2 .cfa: sp 0 +
STACK CFI INIT 2941a 4 .cfa: sp 0 +
STACK CFI INIT 29420 68 .cfa: sp 0 +
STACK CFI 29422 .cfa: sp 16 + .ra: .cfa -4 + ^ r7: .cfa -8 + ^ r5: .cfa -12 + ^ r4: .cfa -16 + ^
STACK CFI 29424 .cfa: r7 8 +
STACK CFI INIT 29488 18 .cfa: sp 0 +
STACK CFI INIT 294a0 c .cfa: sp 0 +
STACK CFI INIT 294ac 4 .cfa: sp 0 +
STACK CFI INIT 294b0 20 .cfa: sp 0 +
STACK CFI 294b2 .cfa: sp 16 + .ra: .cfa -4 + ^ r7: .cfa -8 + ^ r6: .cfa -12 + ^ r4: .cfa -16 + ^
STACK CFI 294b4 .cfa: r7 8 +
STACK CFI INIT 294d0 14 .cfa: sp 0 +
STACK CFI INIT 294e4 2 .cfa: sp 0 +
STACK CFI INIT 294e6 4 .cfa: sp 0 +
STACK CFI INIT 294ec 68 .cfa: sp 0 +
STACK CFI 294ee .cfa: sp 16 + .ra: .cfa -4 + ^ r7: .cfa -8 + ^ r5: .cfa -12 + ^ r4: .cfa -16 + ^
STACK CFI 294f0 .cfa: r7 8 +
STACK CFI INIT 29554 18 .cfa: sp 0 +
STACK CFI INIT 2956c c .cfa: sp 0 +
STACK CFI INIT 29578 4 .cfa: sp 0 +
STACK CFI INIT 2957c 20 .cfa: sp 0 +
STACK CFI 2957e .cfa: sp 16 + .ra: .cfa -4 + ^ r7: .cfa -8 + ^ r6: .cfa -12 + ^ r4: .cfa -16 + ^
STACK CFI 29580 .cfa: r7 8 +
STACK CFI INIT 2959c 14 .cfa: sp 0 +
STACK CFI INIT 295b0 2 .cfa: sp 0 +
STACK CFI INIT 295b2 4 .cfa: sp 0 +
STACK CFI INIT 295b8 68 .cfa: sp 0 +
STACK CFI 295ba .cfa: sp 16 + .ra: .cfa -4 + ^ r7: .cfa -8 + ^ r5: .cfa -12 + ^ r4: .cfa -16 + ^
STACK CFI 295bc .cfa: r7 8 +
STACK CFI INIT 29620 18 .cfa: sp 0 +
STACK CFI INIT 29638 c .cfa: sp 0 +
STACK CFI INIT 29644 4 .cfa: sp 0 +
STACK CFI INIT 29648 20 .cfa: sp 0 +
STACK CFI 2964a .cfa: sp 16 + .ra: .cfa -4 + ^ r7: .cfa -8 + ^ r6: .cfa -12 + ^ r4: .cfa -16 + ^
STACK CFI 2964c .cfa: r7 8 +
STACK CFI INIT 29668 14 .cfa: sp 0 +
STACK CFI INIT 2967c 2 .cfa: sp 0 +
STACK CFI INIT 2967e 4 .cfa: sp 0 +
STACK CFI INIT 29684 68 .cfa: sp 0 +
STACK CFI 29686 .cfa: sp 16 + .ra: .cfa -4 + ^ r7: .cfa -8 + ^ r5: .cfa -12 + ^ r4: .cfa -16 + ^
STACK CFI 29688 .cfa: r7 8 +
STACK CFI INIT 296ec 18 .cfa: sp 0 +
STACK CFI INIT 29704 c .cfa: sp 0 +
STACK CFI INIT 29710 4 .cfa: sp 0 +
STACK CFI INIT 29714 20 .cfa: sp 0 +
STACK CFI 29716 .cfa: sp 16 + .ra: .cfa -4 + ^ r7: .cfa -8 + ^ r6: .cfa -12 + ^ r4: .cfa -16 + ^
STACK CFI 29718 .cfa: r7 8 +
STACK CFI INIT 29734 14 .cfa: sp 0 +
STACK CFI INIT 29748 2 .cfa: sp 0 +
STACK CFI INIT 2974a 4 .cfa: sp 0 +
STACK CFI INIT 29750 68 .cfa: sp 0 +
STACK CFI 29752 .cfa: sp 16 + .ra: .cfa -4 + ^ r7: .cfa -8 + ^ r5: .cfa -12 + ^ r4: .cfa -16 + ^
STACK CFI 29754 .cfa: r7 8 +
STACK CFI INIT 297b8 18 .cfa: sp 0 +
STACK CFI INIT 297d0 c .cfa: sp 0 +
STACK CFI INIT 297dc 4 .cfa: sp 0 +
STACK CFI INIT 297e0 20 .cfa: sp 0 +
STACK CFI 297e2 .cfa: sp 16 + .ra: .cfa -4 + ^ r7: .cfa -8 + ^ r6: .cfa -12 + ^ r4: .cfa -16 + ^
STACK CFI 297e4 .cfa: r7 8 +
STACK CFI INIT 29800 14 .cfa: sp 0 +
STACK CFI INIT 29814 2 .cfa: sp 0 +
STACK CFI INIT 29816 4 .cfa: sp 0 +
STACK CFI INIT 2981c 68 .cfa: sp 0 +
STACK CFI 2981e .cfa: sp 16 + .ra: .cfa -4 + ^ r7: .cfa -8 + ^ r5: .cfa -12 + ^ r4: .cfa -16 + ^
STACK CFI 29820 .cfa: r7 8 +
STACK CFI INIT 29884 18 .cfa: sp 0 +
STACK CFI INIT 2989c c .cfa: sp 0 +
STACK CFI INIT 298a8 4 .cfa: sp 0 +
STACK CFI INIT 298ac 20 .cfa: sp 0 +
STACK CFI 298ae .cfa: sp 16 + .ra: .cfa -4 + ^ r7: .cfa -8 + ^ r6: .cfa -12 + ^ r4: .cfa -16 + ^
STACK CFI 298b0 .cfa: r7 8 +
STACK CFI INIT 298cc 14 .cfa: sp 0 +
STACK CFI INIT 298e0 2 .cfa: sp 0 +
STACK CFI INIT 298e2 4 .cfa: sp 0 +
STACK CFI INIT 298e8 68 .cfa: sp 0 +
STACK CFI 298ea .cfa: sp 16 + .ra: .cfa -4 + ^ r7: .cfa -8 + ^ r5: .cfa -12 + ^ r4: .cfa -16 + ^
STACK CFI 298ec .cfa: r7 8 +
STACK CFI INIT 29950 18 .cfa: sp 0 +
STACK CFI INIT 29968 c .cfa: sp 0 +
STACK CFI INIT 29974 4 .cfa: sp 0 +
STACK CFI INIT 29978 20 .cfa: sp 0 +
STACK CFI 2997a .cfa: sp 16 + .ra: .cfa -4 + ^ r7: .cfa -8 + ^ r6: .cfa -12 + ^ r4: .cfa -16 + ^
STACK CFI 2997c .cfa: r7 8 +
STACK CFI INIT 29998 14 .cfa: sp 0 +
STACK CFI INIT 299ac 2 .cfa: sp 0 +
STACK CFI INIT 299ae 4 .cfa: sp 0 +
STACK CFI INIT 299b4 68 .cfa: sp 0 +
STACK CFI 299b6 .cfa: sp 16 + .ra: .cfa -4 + ^ r7: .cfa -8 + ^ r5: .cfa -12 + ^ r4: .cfa -16 + ^
STACK CFI 299b8 .cfa: r7 8 +
STACK CFI INIT 29a1c 18 .cfa: sp 0 +
STACK CFI INIT 29a34 c .cfa: sp 0 +
STACK CFI INIT 29a40 4 .cfa: sp 0 +
STACK CFI INIT 29a44 20 .cfa: sp 0 +
STACK CFI 29a46 .cfa: sp 16 + .ra: .cfa -4 + ^ r7: .cfa -8 + ^ r6: .cfa -12 + ^ r4: .cfa -16 + ^
STACK CFI 29a48 .cfa: r7 8 +
STACK CFI INIT 29a64 14 .cfa: sp 0 +
STACK CFI INIT 29a78 2 .cfa: sp 0 +
STACK CFI INIT 29a7a 4 .cfa: sp 0 +
STACK CFI INIT 29a80 68 .cfa: sp 0 +
STACK CFI 29a82 .cfa: sp 16 + .ra: .cfa -4 + ^ r7: .cfa -8 + ^ r5: .cfa -12 + ^ r4: .cfa -16 + ^
STACK CFI 29a84 .cfa: r7 8 +
STACK CFI INIT 29ae8 18 .cfa: sp 0 +
STACK CFI INIT 29b00 c .cfa: sp 0 +
STACK CFI INIT 29b0c 4 .cfa: sp 0 +
STACK CFI INIT 29b10 20 .cfa: sp 0 +
STACK CFI 29b12 .cfa: sp 16 + .ra: .cfa -4 + ^ r7: .cfa -8 + ^ r6: .cfa -12 + ^ r4: .cfa -16 + ^
STACK CFI 29b14 .cfa: r7 8 +
STACK CFI INIT 29b30 14 .cfa: sp 0 +
STACK CFI INIT 29b44 2 .cfa: sp 0 +
STACK CFI INIT 29b46 4 .cfa: sp 0 +
STACK CFI INIT 29b4c 68 .cfa: sp 0 +
STACK CFI 29b4e .cfa: sp 16 + .ra: .cfa -4 + ^ r7: .cfa -8 + ^ r5: .cfa -12 + ^ r4: .cfa -16 + ^
STACK CFI 29b50 .cfa: r7 8 +
STACK CFI INIT 29bb4 18 .cfa: sp 0 +
STACK CFI INIT 29bcc c .cfa: sp 0 +
STACK CFI INIT 29bd8 4 .cfa: sp 0 +
STACK CFI INIT 29bdc 20 .cfa: sp 0 +
STACK CFI 29bde .cfa: sp 16 + .ra: .cfa -4 + ^ r7: .cfa -8 + ^ r6: .cfa -12 + ^ r4: .cfa -16 + ^
STACK CFI 29be0 .cfa: r7 8 +
STACK CFI INIT 29bfc 14 .cfa: sp 0 +
STACK CFI INIT 29c10 2 .cfa: sp 0 +
STACK CFI INIT 29c12 4 .cfa: sp 0 +
STACK CFI INIT 29c18 68 .cfa: sp 0 +
STACK CFI 29c1a .cfa: sp 16 + .ra: .cfa -4 + ^ r7: .cfa -8 + ^ r5: .cfa -12 + ^ r4: .cfa -16 + ^
STACK CFI 29c1c .cfa: r7 8 +
STACK CFI INIT 29c80 18 .cfa: sp 0 +
STACK CFI INIT 29c98 c .cfa: sp 0 +
STACK CFI INIT 29ca4 4 .cfa: sp 0 +
STACK CFI INIT 29ca8 20 .cfa: sp 0 +
STACK CFI 29caa .cfa: sp 16 + .ra: .cfa -4 + ^ r7: .cfa -8 + ^ r6: .cfa -12 + ^ r4: .cfa -16 + ^
STACK CFI 29cac .cfa: r7 8 +
STACK CFI INIT 29cc8 14 .cfa: sp 0 +
STACK CFI INIT 29cdc 2 .cfa: sp 0 +
STACK CFI INIT 29cde 4 .cfa: sp 0 +
STACK CFI INIT 29ce4 68 .cfa: sp 0 +
STACK CFI 29ce6 .cfa: sp 16 + .ra: .cfa -4 + ^ r7: .cfa -8 + ^ r5: .cfa -12 + ^ r4: .cfa -16 + ^
STACK CFI 29ce8 .cfa: r7 8 +
STACK CFI INIT 29d4c 18 .cfa: sp 0 +
STACK CFI INIT 29d64 c .cfa: sp 0 +
STACK CFI INIT 29d70 4 .cfa: sp 0 +
STACK CFI INIT 29d74 20 .cfa: sp 0 +
STACK CFI 29d76 .cfa: sp 16 + .ra: .cfa -4 + ^ r7: .cfa -8 + ^ r6: .cfa -12 + ^ r4: .cfa -16 + ^
STACK CFI 29d78 .cfa: r7 8 +
STACK CFI INIT 29d94 14 .cfa: sp 0 +
STACK CFI INIT 29da8 2 .cfa: sp 0 +
STACK CFI INIT 29daa 4 .cfa: sp 0 +
STACK CFI INIT 29db0 68 .cfa: sp 0 +
STACK CFI 29db2 .cfa: sp 16 + .ra: .cfa -4 + ^ r7: .cfa -8 + ^ r5: .cfa -12 + ^ r4: .cfa -16 + ^
STACK CFI 29db4 .cfa: r7 8 +
STACK CFI INIT 29e18 18 .cfa: sp 0 +
STACK CFI INIT 29e30 c .cfa: sp 0 +
STACK CFI INIT 29e3c 4 .cfa: sp 0 +
STACK CFI INIT 29e40 20 .cfa: sp 0 +
STACK CFI 29e42 .cfa: sp 16 + .ra: .cfa -4 + ^ r7: .cfa -8 + ^ r6: .cfa -12 + ^ r4: .cfa -16 + ^
STACK CFI 29e44 .cfa: r7 8 +
STACK CFI INIT 29e60 14 .cfa: sp 0 +
STACK CFI INIT 29e74 2 .cfa: sp 0 +
STACK CFI INIT 29e76 4 .cfa: sp 0 +
STACK CFI INIT 29e7c 68 .cfa: sp 0 +
STACK CFI 29e7e .cfa: sp 16 + .ra: .cfa -4 + ^ r7: .cfa -8 + ^ r5: .cfa -12 + ^ r4: .cfa -16 + ^
STACK CFI 29e80 .cfa: r7 8 +
STACK CFI INIT 29ee4 18 .cfa: sp 0 +
STACK CFI INIT 29efc c .cfa: sp 0 +
STACK CFI INIT 29f08 4 .cfa: sp 0 +
STACK CFI INIT 29f0c 20 .cfa: sp 0 +
STACK CFI 29f0e .cfa: sp 16 + .ra: .cfa -4 + ^ r7: .cfa -8 + ^ r6: .cfa -12 + ^ r4: .cfa -16 + ^
STACK CFI 29f10 .cfa: r7 8 +
STACK CFI INIT 29f2c 14 .cfa: sp 0 +
STACK CFI INIT 29f40 2 .cfa: sp 0 +
STACK CFI INIT 29f42 4 .cfa: sp 0 +
STACK CFI INIT 29f48 68 .cfa: sp 0 +
STACK CFI 29f4a .cfa: sp 16 + .ra: .cfa -4 + ^ r7: .cfa -8 + ^ r5: .cfa -12 + ^ r4: .cfa -16 + ^
STACK CFI 29f4c .cfa: r7 8 +
STACK CFI INIT 29fb0 18 .cfa: sp 0 +
STACK CFI INIT 29fc8 c .cfa: sp 0 +
STACK CFI INIT 29fd4 4 .cfa: sp 0 +
STACK CFI INIT 29fd8 20 .cfa: sp 0 +
STACK CFI 29fda .cfa: sp 16 + .ra: .cfa -4 + ^ r7: .cfa -8 + ^ r6: .cfa -12 + ^ r4: .cfa -16 + ^
STACK CFI 29fdc .cfa: r7 8 +
STACK CFI INIT 29ff8 14 .cfa: sp 0 +
STACK CFI INIT 2a00c 2 .cfa: sp 0 +
STACK CFI INIT 2a00e 4 .cfa: sp 0 +
STACK CFI INIT 2a014 68 .cfa: sp 0 +
STACK CFI 2a016 .cfa: sp 16 + .ra: .cfa -4 + ^ r7: .cfa -8 + ^ r5: .cfa -12 + ^ r4: .cfa -16 + ^
STACK CFI 2a018 .cfa: r7 8 +
STACK CFI INIT 2a07c 18 .cfa: sp 0 +
STACK CFI INIT 2a094 c .cfa: sp 0 +
STACK CFI INIT 2a0a0 4 .cfa: sp 0 +
STACK CFI INIT 2a0a4 20 .cfa: sp 0 +
STACK CFI 2a0a6 .cfa: sp 16 + .ra: .cfa -4 + ^ r7: .cfa -8 + ^ r6: .cfa -12 + ^ r4: .cfa -16 + ^
STACK CFI 2a0a8 .cfa: r7 8 +
STACK CFI INIT 2a0c4 14 .cfa: sp 0 +
STACK CFI INIT 2a0d8 2 .cfa: sp 0 +
STACK CFI INIT 2a0da 4 .cfa: sp 0 +
STACK CFI INIT 2a0e0 68 .cfa: sp 0 +
STACK CFI 2a0e2 .cfa: sp 16 + .ra: .cfa -4 + ^ r7: .cfa -8 + ^ r5: .cfa -12 + ^ r4: .cfa -16 + ^
STACK CFI 2a0e4 .cfa: r7 8 +
STACK CFI INIT 2a148 18 .cfa: sp 0 +
STACK CFI INIT 2a160 c .cfa: sp 0 +
STACK CFI INIT 2a16c 4 .cfa: sp 0 +
STACK CFI INIT 2a170 20 .cfa: sp 0 +
STACK CFI 2a172 .cfa: sp 16 + .ra: .cfa -4 + ^ r7: .cfa -8 + ^ r6: .cfa -12 + ^ r4: .cfa -16 + ^
STACK CFI 2a174 .cfa: r7 8 +
STACK CFI INIT 2a190 14 .cfa: sp 0 +
STACK CFI INIT 2a1a4 2 .cfa: sp 0 +
STACK CFI INIT 2a1a6 4 .cfa: sp 0 +
STACK CFI INIT 2a1ac 68 .cfa: sp 0 +
STACK CFI 2a1ae .cfa: sp 16 + .ra: .cfa -4 + ^ r7: .cfa -8 + ^ r5: .cfa -12 + ^ r4: .cfa -16 + ^
STACK CFI 2a1b0 .cfa: r7 8 +
STACK CFI INIT 2a214 18 .cfa: sp 0 +
STACK CFI INIT 2a22c c .cfa: sp 0 +
STACK CFI INIT 2a238 4 .cfa: sp 0 +
STACK CFI INIT 2a23c 20 .cfa: sp 0 +
STACK CFI 2a23e .cfa: sp 16 + .ra: .cfa -4 + ^ r7: .cfa -8 + ^ r6: .cfa -12 + ^ r4: .cfa -16 + ^
STACK CFI 2a240 .cfa: r7 8 +
STACK CFI INIT 2a25c 14 .cfa: sp 0 +
STACK CFI INIT 2a270 2 .cfa: sp 0 +
STACK CFI INIT 2a272 4 .cfa: sp 0 +
STACK CFI INIT 2a278 68 .cfa: sp 0 +
STACK CFI 2a27a .cfa: sp 16 + .ra: .cfa -4 + ^ r7: .cfa -8 + ^ r5: .cfa -12 + ^ r4: .cfa -16 + ^
STACK CFI 2a27c .cfa: r7 8 +
STACK CFI INIT 2a2e0 18 .cfa: sp 0 +
STACK CFI INIT 2a2f8 c .cfa: sp 0 +
STACK CFI INIT 2a304 1f9c .cfa: sp 0 +
STACK CFI 2a306 .cfa: sp 20 + .ra: .cfa -4 + ^ r7: .cfa -8 + ^ r6: .cfa -12 + ^ r5: .cfa -16 + ^ r4: .cfa -20 + ^
STACK CFI 2a308 .cfa: r7 8 +
STACK CFI 2a30c r11: .cfa -24 + ^ r10: .cfa -28 + ^ r9: .cfa -32 + ^ r8: .cfa -36 + ^
STACK CFI INIT 2c2a0 88 .cfa: sp 0 +
STACK CFI 2c2a2 .cfa: sp 16 + .ra: .cfa -4 + ^ r7: .cfa -8 + ^ r5: .cfa -12 + ^ r4: .cfa -16 + ^
STACK CFI 2c2a4 .cfa: r7 8 +
STACK CFI INIT 2c328 88 .cfa: sp 0 +
STACK CFI 2c32a .cfa: sp 16 + .ra: .cfa -4 + ^ r7: .cfa -8 + ^ r5: .cfa -12 + ^ r4: .cfa -16 + ^
STACK CFI 2c32c .cfa: r7 8 +
STACK CFI INIT 2c3b0 88 .cfa: sp 0 +
STACK CFI 2c3b2 .cfa: sp 16 + .ra: .cfa -4 + ^ r7: .cfa -8 + ^ r5: .cfa -12 + ^ r4: .cfa -16 + ^
STACK CFI 2c3b4 .cfa: r7 8 +
STACK CFI INIT 2c438 88 .cfa: sp 0 +
STACK CFI 2c43a .cfa: sp 16 + .ra: .cfa -4 + ^ r7: .cfa -8 + ^ r5: .cfa -12 + ^ r4: .cfa -16 + ^
STACK CFI 2c43c .cfa: r7 8 +
STACK CFI INIT 2c4c0 88 .cfa: sp 0 +
STACK CFI 2c4c2 .cfa: sp 16 + .ra: .cfa -4 + ^ r7: .cfa -8 + ^ r5: .cfa -12 + ^ r4: .cfa -16 + ^
STACK CFI 2c4c4 .cfa: r7 8 +
STACK CFI INIT 2c548 88 .cfa: sp 0 +
STACK CFI 2c54a .cfa: sp 16 + .ra: .cfa -4 + ^ r7: .cfa -8 + ^ r5: .cfa -12 + ^ r4: .cfa -16 + ^
STACK CFI 2c54c .cfa: r7 8 +
STACK CFI INIT 2c5d0 88 .cfa: sp 0 +
STACK CFI 2c5d2 .cfa: sp 16 + .ra: .cfa -4 + ^ r7: .cfa -8 + ^ r5: .cfa -12 + ^ r4: .cfa -16 + ^
STACK CFI 2c5d4 .cfa: r7 8 +
STACK CFI INIT 2c658 88 .cfa: sp 0 +
STACK CFI 2c65a .cfa: sp 16 + .ra: .cfa -4 + ^ r7: .cfa -8 + ^ r5: .cfa -12 + ^ r4: .cfa -16 + ^
STACK CFI 2c65c .cfa: r7 8 +
STACK CFI INIT 2c6e0 88 .cfa: sp 0 +
STACK CFI 2c6e2 .cfa: sp 16 + .ra: .cfa -4 + ^ r7: .cfa -8 + ^ r5: .cfa -12 + ^ r4: .cfa -16 + ^
STACK CFI 2c6e4 .cfa: r7 8 +
STACK CFI INIT 2c768 88 .cfa: sp 0 +
STACK CFI 2c76a .cfa: sp 16 + .ra: .cfa -4 + ^ r7: .cfa -8 + ^ r5: .cfa -12 + ^ r4: .cfa -16 + ^
STACK CFI 2c76c .cfa: r7 8 +
STACK CFI INIT 0 74 .cfa: sp 0 +
STACK CFI 2 .cfa: sp 16 + .ra: .cfa -4 + ^ r7: .cfa -8 + ^ r6: .cfa -12 + ^ r4: .cfa -16 + ^
STACK CFI 4 .cfa: r7 8 +
STACK CFI INIT 2c7f0 10 .cfa: sp 0 +
STACK CFI 2c7f2 .cfa: sp 8 + .ra: .cfa -4 + ^ r7: .cfa -8 + ^
STACK CFI 2c7f4 .cfa: r7 8 +
STACK CFI INIT 2c800 8 .cfa: sp 0 +
STACK CFI INIT 2c808 14 .cfa: sp 0 +
STACK CFI 2c80a .cfa: sp 8 + .ra: .cfa -4 + ^ r7: .cfa -8 + ^
STACK CFI 2c80c .cfa: r7 8 +
STACK CFI INIT 2c81c 4 .cfa: sp 0 +
STACK CFI INIT 2c820 20 .cfa: sp 0 +
STACK CFI 2c822 .cfa: sp 16 + .ra: .cfa -4 + ^ r7: .cfa -8 + ^ r6: .cfa -12 + ^ r4: .cfa -16 + ^
STACK CFI 2c824 .cfa: r7 8 +
STACK CFI INIT 2c840 14 .cfa: sp 0 +
STACK CFI INIT 2c854 2 .cfa: sp 0 +
STACK CFI INIT 2c856 4 .cfa: sp 0 +
STACK CFI INIT 2c85c 68 .cfa: sp 0 +
STACK CFI 2c85e .cfa: sp 16 + .ra: .cfa -4 + ^ r7: .cfa -8 + ^ r5: .cfa -12 + ^ r4: .cfa -16 + ^
STACK CFI 2c860 .cfa: r7 8 +
STACK CFI INIT 2c8c4 18 .cfa: sp 0 +
STACK CFI INIT 2c8dc c .cfa: sp 0 +
STACK CFI INIT 2c8e8 4 .cfa: sp 0 +
STACK CFI INIT 2c8ec 20 .cfa: sp 0 +
STACK CFI 2c8ee .cfa: sp 16 + .ra: .cfa -4 + ^ r7: .cfa -8 + ^ r6: .cfa -12 + ^ r4: .cfa -16 + ^
STACK CFI 2c8f0 .cfa: r7 8 +
STACK CFI INIT 2c90c 14 .cfa: sp 0 +
STACK CFI INIT 2c920 2 .cfa: sp 0 +
STACK CFI INIT 2c922 4 .cfa: sp 0 +
STACK CFI INIT 2c928 68 .cfa: sp 0 +
STACK CFI 2c92a .cfa: sp 16 + .ra: .cfa -4 + ^ r7: .cfa -8 + ^ r5: .cfa -12 + ^ r4: .cfa -16 + ^
STACK CFI 2c92c .cfa: r7 8 +
STACK CFI INIT 2c990 18 .cfa: sp 0 +
STACK CFI INIT 2c9a8 c .cfa: sp 0 +
STACK CFI INIT 2c9b4 4 .cfa: sp 0 +
STACK CFI INIT 2c9b8 20 .cfa: sp 0 +
STACK CFI 2c9ba .cfa: sp 16 + .ra: .cfa -4 + ^ r7: .cfa -8 + ^ r6: .cfa -12 + ^ r4: .cfa -16 + ^
STACK CFI 2c9bc .cfa: r7 8 +
STACK CFI INIT 2c9d8 14 .cfa: sp 0 +
STACK CFI INIT 2c9ec 2 .cfa: sp 0 +
STACK CFI INIT 2c9ee 4 .cfa: sp 0 +
STACK CFI INIT 2c9f4 68 .cfa: sp 0 +
STACK CFI 2c9f6 .cfa: sp 16 + .ra: .cfa -4 + ^ r7: .cfa -8 + ^ r5: .cfa -12 + ^ r4: .cfa -16 + ^
STACK CFI 2c9f8 .cfa: r7 8 +
STACK CFI INIT 2ca5c 18 .cfa: sp 0 +
STACK CFI INIT 2ca74 c .cfa: sp 0 +
STACK CFI INIT 2ca80 4 .cfa: sp 0 +
STACK CFI INIT 2ca84 20 .cfa: sp 0 +
STACK CFI 2ca86 .cfa: sp 16 + .ra: .cfa -4 + ^ r7: .cfa -8 + ^ r6: .cfa -12 + ^ r4: .cfa -16 + ^
STACK CFI 2ca88 .cfa: r7 8 +
STACK CFI INIT 2caa4 14 .cfa: sp 0 +
STACK CFI INIT 2cab8 2 .cfa: sp 0 +
STACK CFI INIT 2caba 4 .cfa: sp 0 +
STACK CFI INIT 2cac0 68 .cfa: sp 0 +
STACK CFI 2cac2 .cfa: sp 16 + .ra: .cfa -4 + ^ r7: .cfa -8 + ^ r5: .cfa -12 + ^ r4: .cfa -16 + ^
STACK CFI 2cac4 .cfa: r7 8 +
STACK CFI INIT 2cb28 18 .cfa: sp 0 +
STACK CFI INIT 2cb40 c .cfa: sp 0 +
STACK CFI INIT 2cb4c 4 .cfa: sp 0 +
STACK CFI INIT 2cb50 20 .cfa: sp 0 +
STACK CFI 2cb52 .cfa: sp 16 + .ra: .cfa -4 + ^ r7: .cfa -8 + ^ r6: .cfa -12 + ^ r4: .cfa -16 + ^
STACK CFI 2cb54 .cfa: r7 8 +
STACK CFI INIT 2cb70 14 .cfa: sp 0 +
STACK CFI INIT 2cb84 2 .cfa: sp 0 +
STACK CFI INIT 2cb86 4 .cfa: sp 0 +
STACK CFI INIT 2cb8c 68 .cfa: sp 0 +
STACK CFI 2cb8e .cfa: sp 16 + .ra: .cfa -4 + ^ r7: .cfa -8 + ^ r5: .cfa -12 + ^ r4: .cfa -16 + ^
STACK CFI 2cb90 .cfa: r7 8 +
STACK CFI INIT 2cbf4 18 .cfa: sp 0 +
STACK CFI INIT 2cc0c c .cfa: sp 0 +
STACK CFI INIT 2cc18 4 .cfa: sp 0 +
STACK CFI INIT 2cc1c 20 .cfa: sp 0 +
STACK CFI 2cc1e .cfa: sp 16 + .ra: .cfa -4 + ^ r7: .cfa -8 + ^ r6: .cfa -12 + ^ r4: .cfa -16 + ^
STACK CFI 2cc20 .cfa: r7 8 +
STACK CFI INIT 2cc3c 14 .cfa: sp 0 +
STACK CFI INIT 2cc50 2 .cfa: sp 0 +
STACK CFI INIT 2cc52 4 .cfa: sp 0 +
STACK CFI INIT 2cc58 68 .cfa: sp 0 +
STACK CFI 2cc5a .cfa: sp 16 + .ra: .cfa -4 + ^ r7: .cfa -8 + ^ r5: .cfa -12 + ^ r4: .cfa -16 + ^
STACK CFI 2cc5c .cfa: r7 8 +
STACK CFI INIT 2ccc0 18 .cfa: sp 0 +
STACK CFI INIT 2ccd8 c .cfa: sp 0 +
STACK CFI INIT 2cce4 4 .cfa: sp 0 +
STACK CFI INIT 2cce8 20 .cfa: sp 0 +
STACK CFI 2ccea .cfa: sp 16 + .ra: .cfa -4 + ^ r7: .cfa -8 + ^ r6: .cfa -12 + ^ r4: .cfa -16 + ^
STACK CFI 2ccec .cfa: r7 8 +
STACK CFI INIT 2cd08 14 .cfa: sp 0 +
STACK CFI INIT 2cd1c 2 .cfa: sp 0 +
STACK CFI INIT 2cd1e 4 .cfa: sp 0 +
STACK CFI INIT 2cd24 68 .cfa: sp 0 +
STACK CFI 2cd26 .cfa: sp 16 + .ra: .cfa -4 + ^ r7: .cfa -8 + ^ r5: .cfa -12 + ^ r4: .cfa -16 + ^
STACK CFI 2cd28 .cfa: r7 8 +
STACK CFI INIT 2cd8c 18 .cfa: sp 0 +
STACK CFI INIT 2cda4 c .cfa: sp 0 +
STACK CFI INIT 2cdb0 4 .cfa: sp 0 +
STACK CFI INIT 2cdb4 20 .cfa: sp 0 +
STACK CFI 2cdb6 .cfa: sp 16 + .ra: .cfa -4 + ^ r7: .cfa -8 + ^ r6: .cfa -12 + ^ r4: .cfa -16 + ^
STACK CFI 2cdb8 .cfa: r7 8 +
STACK CFI INIT 2cdd4 14 .cfa: sp 0 +
STACK CFI INIT 2cde8 2 .cfa: sp 0 +
STACK CFI INIT 2cdea 4 .cfa: sp 0 +
STACK CFI INIT 2cdf0 68 .cfa: sp 0 +
STACK CFI 2cdf2 .cfa: sp 16 + .ra: .cfa -4 + ^ r7: .cfa -8 + ^ r5: .cfa -12 + ^ r4: .cfa -16 + ^
STACK CFI 2cdf4 .cfa: r7 8 +
STACK CFI INIT 2ce58 18 .cfa: sp 0 +
STACK CFI INIT 2ce70 c .cfa: sp 0 +
STACK CFI INIT 2ce7c 4 .cfa: sp 0 +
STACK CFI INIT 2ce80 20 .cfa: sp 0 +
STACK CFI 2ce82 .cfa: sp 16 + .ra: .cfa -4 + ^ r7: .cfa -8 + ^ r6: .cfa -12 + ^ r4: .cfa -16 + ^
STACK CFI 2ce84 .cfa: r7 8 +
STACK CFI INIT 2cea0 14 .cfa: sp 0 +
STACK CFI INIT 2ceb4 2 .cfa: sp 0 +
STACK CFI INIT 2ceb6 4 .cfa: sp 0 +
STACK CFI INIT 2cebc 68 .cfa: sp 0 +
STACK CFI 2cebe .cfa: sp 16 + .ra: .cfa -4 + ^ r7: .cfa -8 + ^ r5: .cfa -12 + ^ r4: .cfa -16 + ^
STACK CFI 2cec0 .cfa: r7 8 +
STACK CFI INIT 2cf24 18 .cfa: sp 0 +
STACK CFI INIT 2cf3c c .cfa: sp 0 +
STACK CFI INIT 2cf48 4 .cfa: sp 0 +
STACK CFI INIT 2cf4c 20 .cfa: sp 0 +
STACK CFI 2cf4e .cfa: sp 16 + .ra: .cfa -4 + ^ r7: .cfa -8 + ^ r6: .cfa -12 + ^ r4: .cfa -16 + ^
STACK CFI 2cf50 .cfa: r7 8 +
STACK CFI INIT 2cf6c 14 .cfa: sp 0 +
STACK CFI INIT 2cf80 2 .cfa: sp 0 +
STACK CFI INIT 2cf82 4 .cfa: sp 0 +
STACK CFI INIT 2cf88 68 .cfa: sp 0 +
STACK CFI 2cf8a .cfa: sp 16 + .ra: .cfa -4 + ^ r7: .cfa -8 + ^ r5: .cfa -12 + ^ r4: .cfa -16 + ^
STACK CFI 2cf8c .cfa: r7 8 +
STACK CFI INIT 2cff0 18 .cfa: sp 0 +
STACK CFI INIT 2d008 c .cfa: sp 0 +
STACK CFI INIT 2d014 4 .cfa: sp 0 +
STACK CFI INIT 2d018 20 .cfa: sp 0 +
STACK CFI 2d01a .cfa: sp 16 + .ra: .cfa -4 + ^ r7: .cfa -8 + ^ r6: .cfa -12 + ^ r4: .cfa -16 + ^
STACK CFI 2d01c .cfa: r7 8 +
STACK CFI INIT 2d038 14 .cfa: sp 0 +
STACK CFI INIT 2d04c 2 .cfa: sp 0 +
STACK CFI INIT 2d04e 4 .cfa: sp 0 +
STACK CFI INIT 2d054 68 .cfa: sp 0 +
STACK CFI 2d056 .cfa: sp 16 + .ra: .cfa -4 + ^ r7: .cfa -8 + ^ r5: .cfa -12 + ^ r4: .cfa -16 + ^
STACK CFI 2d058 .cfa: r7 8 +
STACK CFI INIT 2d0bc 18 .cfa: sp 0 +
STACK CFI INIT 2d0d4 c .cfa: sp 0 +
STACK CFI INIT 2d0e0 4 .cfa: sp 0 +
STACK CFI INIT 2d0e4 20 .cfa: sp 0 +
STACK CFI 2d0e6 .cfa: sp 16 + .ra: .cfa -4 + ^ r7: .cfa -8 + ^ r6: .cfa -12 + ^ r4: .cfa -16 + ^
STACK CFI 2d0e8 .cfa: r7 8 +
STACK CFI INIT 2d104 14 .cfa: sp 0 +
STACK CFI INIT 2d118 2 .cfa: sp 0 +
STACK CFI INIT 2d11a 4 .cfa: sp 0 +
STACK CFI INIT 2d120 68 .cfa: sp 0 +
STACK CFI 2d122 .cfa: sp 16 + .ra: .cfa -4 + ^ r7: .cfa -8 + ^ r5: .cfa -12 + ^ r4: .cfa -16 + ^
STACK CFI 2d124 .cfa: r7 8 +
STACK CFI INIT 2d188 18 .cfa: sp 0 +
STACK CFI INIT 2d1a0 c .cfa: sp 0 +
STACK CFI INIT 2d1ac 4 .cfa: sp 0 +
STACK CFI INIT 2d1b0 20 .cfa: sp 0 +
STACK CFI 2d1b2 .cfa: sp 16 + .ra: .cfa -4 + ^ r7: .cfa -8 + ^ r6: .cfa -12 + ^ r4: .cfa -16 + ^
STACK CFI 2d1b4 .cfa: r7 8 +
STACK CFI INIT 2d1d0 14 .cfa: sp 0 +
STACK CFI INIT 2d1e4 2 .cfa: sp 0 +
STACK CFI INIT 2d1e6 4 .cfa: sp 0 +
STACK CFI INIT 2d1ec 68 .cfa: sp 0 +
STACK CFI 2d1ee .cfa: sp 16 + .ra: .cfa -4 + ^ r7: .cfa -8 + ^ r5: .cfa -12 + ^ r4: .cfa -16 + ^
STACK CFI 2d1f0 .cfa: r7 8 +
STACK CFI INIT 2d254 18 .cfa: sp 0 +
STACK CFI INIT 2d26c c .cfa: sp 0 +
STACK CFI INIT 2d278 4 .cfa: sp 0 +
STACK CFI INIT 2d27c 20 .cfa: sp 0 +
STACK CFI 2d27e .cfa: sp 16 + .ra: .cfa -4 + ^ r7: .cfa -8 + ^ r6: .cfa -12 + ^ r4: .cfa -16 + ^
STACK CFI 2d280 .cfa: r7 8 +
STACK CFI INIT 2d29c 14 .cfa: sp 0 +
STACK CFI INIT 2d2b0 2 .cfa: sp 0 +
STACK CFI INIT 2d2b2 4 .cfa: sp 0 +
STACK CFI INIT 2d2b8 68 .cfa: sp 0 +
STACK CFI 2d2ba .cfa: sp 16 + .ra: .cfa -4 + ^ r7: .cfa -8 + ^ r5: .cfa -12 + ^ r4: .cfa -16 + ^
STACK CFI 2d2bc .cfa: r7 8 +
STACK CFI INIT 2d320 18 .cfa: sp 0 +
STACK CFI INIT 2d338 c .cfa: sp 0 +
STACK CFI INIT 2d344 4 .cfa: sp 0 +
STACK CFI INIT 2d348 20 .cfa: sp 0 +
STACK CFI 2d34a .cfa: sp 16 + .ra: .cfa -4 + ^ r7: .cfa -8 + ^ r6: .cfa -12 + ^ r4: .cfa -16 + ^
STACK CFI 2d34c .cfa: r7 8 +
STACK CFI INIT 2d368 14 .cfa: sp 0 +
STACK CFI INIT 2d37c 2 .cfa: sp 0 +
STACK CFI INIT 2d37e 4 .cfa: sp 0 +
STACK CFI INIT 2d384 68 .cfa: sp 0 +
STACK CFI 2d386 .cfa: sp 16 + .ra: .cfa -4 + ^ r7: .cfa -8 + ^ r5: .cfa -12 + ^ r4: .cfa -16 + ^
STACK CFI 2d388 .cfa: r7 8 +
STACK CFI INIT 2d3ec 18 .cfa: sp 0 +
STACK CFI INIT 2d404 c .cfa: sp 0 +
STACK CFI INIT 2d410 4 .cfa: sp 0 +
STACK CFI INIT 2d414 20 .cfa: sp 0 +
STACK CFI 2d416 .cfa: sp 16 + .ra: .cfa -4 + ^ r7: .cfa -8 + ^ r6: .cfa -12 + ^ r4: .cfa -16 + ^
STACK CFI 2d418 .cfa: r7 8 +
STACK CFI INIT 2d434 14 .cfa: sp 0 +
STACK CFI INIT 2d448 2 .cfa: sp 0 +
STACK CFI INIT 2d44a 4 .cfa: sp 0 +
STACK CFI INIT 2d450 68 .cfa: sp 0 +
STACK CFI 2d452 .cfa: sp 16 + .ra: .cfa -4 + ^ r7: .cfa -8 + ^ r5: .cfa -12 + ^ r4: .cfa -16 + ^
STACK CFI 2d454 .cfa: r7 8 +
STACK CFI INIT 2d4b8 18 .cfa: sp 0 +
STACK CFI INIT 2d4d0 c .cfa: sp 0 +
STACK CFI INIT 2d4dc 4 .cfa: sp 0 +
STACK CFI INIT 2d4e0 20 .cfa: sp 0 +
STACK CFI 2d4e2 .cfa: sp 16 + .ra: .cfa -4 + ^ r7: .cfa -8 + ^ r6: .cfa -12 + ^ r4: .cfa -16 + ^
STACK CFI 2d4e4 .cfa: r7 8 +
STACK CFI INIT 2d500 14 .cfa: sp 0 +
STACK CFI INIT 2d514 2 .cfa: sp 0 +
STACK CFI INIT 2d516 4 .cfa: sp 0 +
STACK CFI INIT 2d51c 68 .cfa: sp 0 +
STACK CFI 2d51e .cfa: sp 16 + .ra: .cfa -4 + ^ r7: .cfa -8 + ^ r5: .cfa -12 + ^ r4: .cfa -16 + ^
STACK CFI 2d520 .cfa: r7 8 +
STACK CFI INIT 2d584 18 .cfa: sp 0 +
STACK CFI INIT 2d59c c .cfa: sp 0 +
STACK CFI INIT 2d5a8 4 .cfa: sp 0 +
STACK CFI INIT 2d5ac 20 .cfa: sp 0 +
STACK CFI 2d5ae .cfa: sp 16 + .ra: .cfa -4 + ^ r7: .cfa -8 + ^ r6: .cfa -12 + ^ r4: .cfa -16 + ^
STACK CFI 2d5b0 .cfa: r7 8 +
STACK CFI INIT 2d5cc 14 .cfa: sp 0 +
STACK CFI INIT 2d5e0 2 .cfa: sp 0 +
STACK CFI INIT 2d5e2 4 .cfa: sp 0 +
STACK CFI INIT 2d5e8 68 .cfa: sp 0 +
STACK CFI 2d5ea .cfa: sp 16 + .ra: .cfa -4 + ^ r7: .cfa -8 + ^ r5: .cfa -12 + ^ r4: .cfa -16 + ^
STACK CFI 2d5ec .cfa: r7 8 +
STACK CFI INIT 2d650 18 .cfa: sp 0 +
STACK CFI INIT 2d668 c .cfa: sp 0 +
STACK CFI INIT 2d674 4 .cfa: sp 0 +
STACK CFI INIT 2d678 20 .cfa: sp 0 +
STACK CFI 2d67a .cfa: sp 16 + .ra: .cfa -4 + ^ r7: .cfa -8 + ^ r6: .cfa -12 + ^ r4: .cfa -16 + ^
STACK CFI 2d67c .cfa: r7 8 +
STACK CFI INIT 2d698 14 .cfa: sp 0 +
STACK CFI INIT 2d6ac 2 .cfa: sp 0 +
STACK CFI INIT 2d6ae 4 .cfa: sp 0 +
STACK CFI INIT 2d6b4 68 .cfa: sp 0 +
STACK CFI 2d6b6 .cfa: sp 16 + .ra: .cfa -4 + ^ r7: .cfa -8 + ^ r5: .cfa -12 + ^ r4: .cfa -16 + ^
STACK CFI 2d6b8 .cfa: r7 8 +
STACK CFI INIT 2d71c 18 .cfa: sp 0 +
STACK CFI INIT 2d734 c .cfa: sp 0 +
STACK CFI INIT 2d740 4 .cfa: sp 0 +
STACK CFI INIT 2d744 20 .cfa: sp 0 +
STACK CFI 2d746 .cfa: sp 16 + .ra: .cfa -4 + ^ r7: .cfa -8 + ^ r6: .cfa -12 + ^ r4: .cfa -16 + ^
STACK CFI 2d748 .cfa: r7 8 +
STACK CFI INIT 2d764 14 .cfa: sp 0 +
STACK CFI INIT 2d778 2 .cfa: sp 0 +
STACK CFI INIT 2d77a 4 .cfa: sp 0 +
STACK CFI INIT 2d780 68 .cfa: sp 0 +
STACK CFI 2d782 .cfa: sp 16 + .ra: .cfa -4 + ^ r7: .cfa -8 + ^ r5: .cfa -12 + ^ r4: .cfa -16 + ^
STACK CFI 2d784 .cfa: r7 8 +
STACK CFI INIT 2d7e8 18 .cfa: sp 0 +
STACK CFI INIT 2d800 c .cfa: sp 0 +
STACK CFI INIT 0 20 .cfa: sp 0 +
STACK CFI 2 .cfa: sp 16 + .ra: .cfa -4 + ^ r7: .cfa -8 + ^ r6: .cfa -12 + ^ r4: .cfa -16 + ^
STACK CFI 4 .cfa: r7 8 +
STACK CFI INIT 2d80c 20 .cfa: sp 0 +
STACK CFI 2d80e .cfa: sp 16 + .ra: .cfa -4 + ^ r7: .cfa -8 + ^ r6: .cfa -12 + ^ r4: .cfa -16 + ^
STACK CFI 2d810 .cfa: r7 8 +
STACK CFI INIT 2d82c 28 .cfa: sp 0 +
STACK CFI 2d82e .cfa: sp 16 + .ra: .cfa -4 + ^ r7: .cfa -8 + ^ r5: .cfa -12 + ^ r4: .cfa -16 + ^
STACK CFI 2d830 .cfa: r7 8 +
STACK CFI INIT 2d854 cc .cfa: sp 0 +
STACK CFI 2d856 .cfa: sp 16 + .ra: .cfa -4 + ^ r7: .cfa -8 + ^ r6: .cfa -12 + ^ r4: .cfa -16 + ^
STACK CFI 2d858 .cfa: r7 8 +
STACK CFI INIT 2d920 48 .cfa: sp 0 +
STACK CFI 2d922 .cfa: sp 16 + .ra: .cfa -4 + ^ r7: .cfa -8 + ^ r5: .cfa -12 + ^ r4: .cfa -16 + ^
STACK CFI 2d924 .cfa: r7 8 +
STACK CFI INIT 2d968 60 .cfa: sp 0 +
STACK CFI 2d96a .cfa: sp 16 + .ra: .cfa -4 + ^ r7: .cfa -8 + ^ r6: .cfa -12 + ^ r4: .cfa -16 + ^
STACK CFI 2d96c .cfa: r7 8 +
STACK CFI INIT 2d9c8 46 .cfa: sp 0 +
STACK CFI 2d9ca .cfa: sp 16 + .ra: .cfa -4 + ^ r7: .cfa -8 + ^ r5: .cfa -12 + ^ r4: .cfa -16 + ^
STACK CFI 2d9cc .cfa: r7 8 +
STACK CFI INIT 2da0e 10 .cfa: sp 0 +
STACK CFI 2da10 .cfa: sp 8 + .ra: .cfa -4 + ^ r7: .cfa -8 + ^
STACK CFI 2da12 .cfa: r7 8 +
STACK CFI INIT 2da1e 10 .cfa: sp 0 +
STACK CFI 2da20 .cfa: sp 8 + .ra: .cfa -4 + ^ r7: .cfa -8 + ^
STACK CFI 2da22 .cfa: r7 8 +
STACK CFI INIT 2da2e 8 .cfa: sp 0 +
STACK CFI INIT 2da36 10 .cfa: sp 0 +
STACK CFI 2da38 .cfa: sp 8 + .ra: .cfa -4 + ^ r7: .cfa -8 + ^
STACK CFI 2da3a .cfa: r7 8 +
STACK CFI INIT 2da46 14 .cfa: sp 0 +
STACK CFI 2da48 .cfa: sp 8 + .ra: .cfa -4 + ^ r7: .cfa -8 + ^
STACK CFI 2da4a .cfa: r7 8 +
STACK CFI INIT 2da5c 1dc .cfa: sp 0 +
STACK CFI 2da5e .cfa: sp 20 + .ra: .cfa -4 + ^ r7: .cfa -8 + ^ r6: .cfa -12 + ^ r5: .cfa -16 + ^ r4: .cfa -20 + ^
STACK CFI 2da60 .cfa: r7 8 +
STACK CFI 2da64 r8: .cfa -24 + ^
STACK CFI INIT 2dc38 258 .cfa: sp 0 +
STACK CFI 2dc3a .cfa: sp 20 + .ra: .cfa -4 + ^ r7: .cfa -8 + ^ r6: .cfa -12 + ^ r5: .cfa -16 + ^ r4: .cfa -20 + ^
STACK CFI 2dc3c .cfa: r7 8 +
STACK CFI 2dc40 r11: .cfa -24 + ^ r10: .cfa -28 + ^ r9: .cfa -32 + ^ r8: .cfa -36 + ^
STACK CFI INIT 2de90 8 .cfa: sp 0 +
STACK CFI INIT 2de98 10 .cfa: sp 0 +
STACK CFI 2de9a .cfa: sp 8 + .ra: .cfa -4 + ^ r7: .cfa -8 + ^
STACK CFI 2de9c .cfa: r7 8 +
STACK CFI INIT 2dea8 14 .cfa: sp 0 +
STACK CFI 2deaa .cfa: sp 8 + .ra: .cfa -4 + ^ r7: .cfa -8 + ^
STACK CFI 2deac .cfa: r7 8 +
STACK CFI INIT 2debc 1e4 .cfa: sp 0 +
STACK CFI 2debe .cfa: sp 20 + .ra: .cfa -4 + ^ r7: .cfa -8 + ^ r6: .cfa -12 + ^ r5: .cfa -16 + ^ r4: .cfa -20 + ^
STACK CFI 2dec0 .cfa: r7 8 +
STACK CFI 2dec4 r8: .cfa -24 + ^
STACK CFI INIT 2e0a0 8 .cfa: sp 0 +
STACK CFI INIT 2e0a8 10 .cfa: sp 0 +
STACK CFI 2e0aa .cfa: sp 8 + .ra: .cfa -4 + ^ r7: .cfa -8 + ^
STACK CFI 2e0ac .cfa: r7 8 +
STACK CFI INIT 2e0b8 14 .cfa: sp 0 +
STACK CFI 2e0ba .cfa: sp 8 + .ra: .cfa -4 + ^ r7: .cfa -8 + ^
STACK CFI 2e0bc .cfa: r7 8 +
STACK CFI INIT 0 74 .cfa: sp 0 +
STACK CFI 2 .cfa: sp 16 + .ra: .cfa -4 + ^ r7: .cfa -8 + ^ r5: .cfa -12 + ^ r4: .cfa -16 + ^
STACK CFI 4 .cfa: r7 8 +
STACK CFI INIT 2e0cc 8 .cfa: sp 0 +
STACK CFI INIT 2e0d4 10 .cfa: sp 0 +
STACK CFI 2e0d6 .cfa: sp 8 + .ra: .cfa -4 + ^ r7: .cfa -8 + ^
STACK CFI 2e0d8 .cfa: r7 8 +
STACK CFI INIT 2e0e4 14 .cfa: sp 0 +
STACK CFI 2e0e6 .cfa: sp 8 + .ra: .cfa -4 + ^ r7: .cfa -8 + ^
STACK CFI 2e0e8 .cfa: r7 8 +
STACK CFI INIT 0 18 .cfa: sp 0 +
STACK CFI 2 .cfa: sp 8 + .ra: .cfa -4 + ^ r7: .cfa -8 + ^
STACK CFI 4 .cfa: r7 8 +
STACK CFI INIT 2e0f8 180 .cfa: sp 0 +
STACK CFI 2e0fa .cfa: sp 20 + .ra: .cfa -4 + ^ r7: .cfa -8 + ^ r6: .cfa -12 + ^ r5: .cfa -16 + ^ r4: .cfa -20 + ^
STACK CFI 2e0fc .cfa: r7 8 +
STACK CFI 2e100 r11: .cfa -24 + ^ r10: .cfa -28 + ^ r9: .cfa -32 + ^ r8: .cfa -36 + ^
STACK CFI INIT 2e278 2 .cfa: sp 0 +
STACK CFI INIT 2e27c 280 .cfa: sp 0 +
STACK CFI 2e27e .cfa: sp 20 + .ra: .cfa -4 + ^ r7: .cfa -8 + ^ r6: .cfa -12 + ^ r5: .cfa -16 + ^ r4: .cfa -20 + ^
STACK CFI 2e280 .cfa: r7 8 +
STACK CFI 2e284 r11: .cfa -24 + ^ r10: .cfa -28 + ^ r9: .cfa -32 + ^ r8: .cfa -36 + ^
STACK CFI INIT 2e4fc 280 .cfa: sp 0 +
STACK CFI 2e4fe .cfa: sp 20 + .ra: .cfa -4 + ^ r7: .cfa -8 + ^ r6: .cfa -12 + ^ r5: .cfa -16 + ^ r4: .cfa -20 + ^
STACK CFI 2e500 .cfa: r7 8 +
STACK CFI 2e504 r11: .cfa -24 + ^ r10: .cfa -28 + ^ r9: .cfa -32 + ^ r8: .cfa -36 + ^
STACK CFI INIT 2e77c 214 .cfa: sp 0 +
STACK CFI 2e77e .cfa: sp 20 + .ra: .cfa -4 + ^ r7: .cfa -8 + ^ r6: .cfa -12 + ^ r5: .cfa -16 + ^ r4: .cfa -20 + ^
STACK CFI 2e780 .cfa: r7 8 +
STACK CFI 2e784 r11: .cfa -24 + ^ r10: .cfa -28 + ^ r9: .cfa -32 + ^ r8: .cfa -36 + ^
STACK CFI INIT 2e990 25c .cfa: sp 0 +
STACK CFI 2e992 .cfa: sp 20 + .ra: .cfa -4 + ^ r7: .cfa -8 + ^ r6: .cfa -12 + ^ r5: .cfa -16 + ^ r4: .cfa -20 + ^
STACK CFI 2e994 .cfa: r7 8 +
STACK CFI 2e998 r11: .cfa -24 + ^ r10: .cfa -28 + ^ r9: .cfa -32 + ^ r8: .cfa -36 + ^
STACK CFI INIT 2ebec 410 .cfa: sp 0 +
STACK CFI 2ebee .cfa: sp 20 + .ra: .cfa -4 + ^ r7: .cfa -8 + ^ r6: .cfa -12 + ^ r5: .cfa -16 + ^ r4: .cfa -20 + ^
STACK CFI 2ebf0 .cfa: r7 8 +
STACK CFI 2ebf4 r11: .cfa -24 + ^ r10: .cfa -28 + ^ r9: .cfa -32 + ^ r8: .cfa -36 + ^
STACK CFI INIT 2effc f8 .cfa: sp 0 +
STACK CFI 2effe .cfa: sp 20 + .ra: .cfa -4 + ^ r7: .cfa -8 + ^ r6: .cfa -12 + ^ r5: .cfa -16 + ^ r4: .cfa -20 + ^
STACK CFI 2f000 .cfa: r7 8 +
STACK CFI 2f004 r8: .cfa -24 + ^
STACK CFI INIT 2f0f4 104 .cfa: sp 0 +
STACK CFI 2f0f6 .cfa: sp 20 + .ra: .cfa -4 + ^ r7: .cfa -8 + ^ r6: .cfa -12 + ^ r5: .cfa -16 + ^ r4: .cfa -20 + ^
STACK CFI 2f0f8 .cfa: r7 8 +
STACK CFI 2f0fc r8: .cfa -24 + ^
STACK CFI INIT 2f1f8 2 .cfa: sp 0 +
STACK CFI INIT 2f1fa e .cfa: sp 0 +
STACK CFI INIT 2f208 3f2 .cfa: sp 0 +
STACK CFI 2f20a .cfa: sp 20 + .ra: .cfa -4 + ^ r7: .cfa -8 + ^ r6: .cfa -12 + ^ r5: .cfa -16 + ^ r4: .cfa -20 + ^
STACK CFI 2f20c .cfa: r7 8 +
STACK CFI 2f210 r11: .cfa -24 + ^ r10: .cfa -28 + ^ r9: .cfa -32 + ^ r8: .cfa -36 + ^
STACK CFI INIT 2f5fc 1cc .cfa: sp 0 +
STACK CFI 2f5fe .cfa: sp 20 + .ra: .cfa -4 + ^ r7: .cfa -8 + ^ r6: .cfa -12 + ^ r5: .cfa -16 + ^ r4: .cfa -20 + ^
STACK CFI 2f600 .cfa: r7 8 +
STACK CFI 2f604 r11: .cfa -24 + ^ r10: .cfa -28 + ^ r9: .cfa -32 + ^ r8: .cfa -36 + ^
STACK CFI INIT 2f7c8 44 .cfa: sp 0 +
STACK CFI 2f7ca .cfa: sp 16 + .ra: .cfa -4 + ^ r7: .cfa -8 + ^ r6: .cfa -12 + ^ r4: .cfa -16 + ^
STACK CFI 2f7cc .cfa: r7 8 +
STACK CFI INIT 2f80c 38 .cfa: sp 0 +
STACK CFI 2f80e .cfa: sp 16 + .ra: .cfa -4 + ^ r7: .cfa -8 + ^ r5: .cfa -12 + ^ r4: .cfa -16 + ^
STACK CFI 2f810 .cfa: r7 8 +
STACK CFI INIT 2f844 18 .cfa: sp 0 +
STACK CFI 2f846 .cfa: sp 8 + .ra: .cfa -4 + ^ r7: .cfa -8 + ^
STACK CFI 2f848 .cfa: r7 8 +
STACK CFI INIT 2f85c 420 .cfa: sp 0 +
STACK CFI 2f85e .cfa: sp 20 + .ra: .cfa -4 + ^ r7: .cfa -8 + ^ r6: .cfa -12 + ^ r5: .cfa -16 + ^ r4: .cfa -20 + ^
STACK CFI 2f860 .cfa: r7 8 +
STACK CFI 2f864 r11: .cfa -24 + ^ r10: .cfa -28 + ^ r9: .cfa -32 + ^ r8: .cfa -36 + ^
STACK CFI INIT 2fc7c 30 .cfa: sp 0 +
STACK CFI 2fc7e .cfa: sp 16 + .ra: .cfa -4 + ^ r7: .cfa -8 + ^ r6: .cfa -12 + ^ r4: .cfa -16 + ^
STACK CFI 2fc80 .cfa: r7 8 +
STACK CFI INIT 2fcac c0 .cfa: sp 0 +
STACK CFI 2fcae .cfa: sp 20 + .ra: .cfa -4 + ^ r7: .cfa -8 + ^ r6: .cfa -12 + ^ r5: .cfa -16 + ^ r4: .cfa -20 + ^
STACK CFI 2fcb0 .cfa: r7 8 +
STACK CFI 2fcb4 r11: .cfa -24 + ^ r9: .cfa -28 + ^ r8: .cfa -32 + ^
STACK CFI INIT 2fd6c 1ac .cfa: sp 0 +
STACK CFI 2fd6e .cfa: sp 20 + .ra: .cfa -4 + ^ r7: .cfa -8 + ^ r6: .cfa -12 + ^ r5: .cfa -16 + ^ r4: .cfa -20 + ^
STACK CFI 2fd70 .cfa: r7 8 +
STACK CFI 2fd74 r11: .cfa -24 + ^ r10: .cfa -28 + ^ r9: .cfa -32 + ^ r8: .cfa -36 + ^
STACK CFI INIT 2ff18 278 .cfa: sp 0 +
STACK CFI 2ff1a .cfa: sp 20 + .ra: .cfa -4 + ^ r7: .cfa -8 + ^ r6: .cfa -12 + ^ r5: .cfa -16 + ^ r4: .cfa -20 + ^
STACK CFI 2ff1c .cfa: r7 8 +
STACK CFI 2ff20 r10: .cfa -24 + ^ r9: .cfa -28 + ^ r8: .cfa -32 + ^
STACK CFI INIT 30190 228 .cfa: sp 0 +
STACK CFI 30192 .cfa: sp 20 + .ra: .cfa -4 + ^ r7: .cfa -8 + ^ r6: .cfa -12 + ^ r5: .cfa -16 + ^ r4: .cfa -20 + ^
STACK CFI 30194 .cfa: r7 8 +
STACK CFI 30198 r11: .cfa -24 + ^
STACK CFI INIT 303b8 384 .cfa: sp 0 +
STACK CFI 303ba .cfa: sp 20 + .ra: .cfa -4 + ^ r7: .cfa -8 + ^ r6: .cfa -12 + ^ r5: .cfa -16 + ^ r4: .cfa -20 + ^
STACK CFI 303bc .cfa: r7 8 +
STACK CFI 303c0 r11: .cfa -24 + ^ r10: .cfa -28 + ^ r9: .cfa -32 + ^ r8: .cfa -36 + ^
STACK CFI INIT 3073c 880 .cfa: sp 0 +
STACK CFI 3073e .cfa: sp 20 + .ra: .cfa -4 + ^ r7: .cfa -8 + ^ r6: .cfa -12 + ^ r5: .cfa -16 + ^ r4: .cfa -20 + ^
STACK CFI 30740 .cfa: r7 8 +
STACK CFI 30744 r11: .cfa -24 + ^ r10: .cfa -28 + ^ r9: .cfa -32 + ^ r8: .cfa -36 + ^
STACK CFI INIT 30fbc 4c .cfa: sp 0 +
STACK CFI 30fbe .cfa: sp 20 + .ra: .cfa -4 + ^ r7: .cfa -8 + ^ r6: .cfa -12 + ^ r5: .cfa -16 + ^ r4: .cfa -20 + ^
STACK CFI 30fc0 .cfa: r7 8 +
STACK CFI 30fc4 r8: .cfa -24 + ^
STACK CFI INIT 31008 48 .cfa: sp 0 +
STACK CFI 3100a .cfa: sp 16 + .ra: .cfa -4 + ^ r7: .cfa -8 + ^ r6: .cfa -12 + ^ r4: .cfa -16 + ^
STACK CFI 3100c .cfa: r7 8 +
STACK CFI INIT 31050 10 .cfa: sp 0 +
STACK CFI 31052 .cfa: sp 8 + .ra: .cfa -4 + ^ r7: .cfa -8 + ^
STACK CFI 31054 .cfa: r7 8 +
STACK CFI INIT 31060 9a .cfa: sp 0 +
STACK CFI 31062 .cfa: sp 20 + .ra: .cfa -4 + ^ r7: .cfa -8 + ^ r6: .cfa -12 + ^ r5: .cfa -16 + ^ r4: .cfa -20 + ^
STACK CFI 31064 .cfa: r7 8 +
STACK CFI 31068 r11: .cfa -24 + ^ r9: .cfa -28 + ^ r8: .cfa -32 + ^
STACK CFI INIT 310fc 54 .cfa: sp 0 +
STACK CFI 310fe .cfa: sp 8 + .ra: .cfa -4 + ^ r7: .cfa -8 + ^
STACK CFI 31100 .cfa: r7 8 +
STACK CFI INIT 31150 34 .cfa: sp 0 +
STACK CFI 31152 .cfa: sp 16 + .ra: .cfa -4 + ^ r7: .cfa -8 + ^ r5: .cfa -12 + ^ r4: .cfa -16 + ^
STACK CFI 31154 .cfa: r7 8 +
STACK CFI INIT 31184 2c .cfa: sp 0 +
STACK CFI 31186 .cfa: sp 16 + .ra: .cfa -4 + ^ r7: .cfa -8 + ^ r5: .cfa -12 + ^ r4: .cfa -16 + ^
STACK CFI 31188 .cfa: r7 8 +
STACK CFI INIT 311b0 74 .cfa: sp 0 +
STACK CFI 311b2 .cfa: sp 8 + .ra: .cfa -4 + ^ r7: .cfa -8 + ^
STACK CFI 311b4 .cfa: r7 8 +
STACK CFI INIT 31224 1b0 .cfa: sp 0 +
STACK CFI 31226 .cfa: sp 20 + .ra: .cfa -4 + ^ r7: .cfa -8 + ^ r6: .cfa -12 + ^ r5: .cfa -16 + ^ r4: .cfa -20 + ^
STACK CFI 31228 .cfa: r7 8 +
STACK CFI 3122c r10: .cfa -24 + ^ r9: .cfa -28 + ^ r8: .cfa -32 + ^
STACK CFI INIT 313d4 9a .cfa: sp 0 +
STACK CFI 313d6 .cfa: sp 20 + .ra: .cfa -4 + ^ r7: .cfa -8 + ^ r6: .cfa -12 + ^ r5: .cfa -16 + ^ r4: .cfa -20 + ^
STACK CFI 313d8 .cfa: r7 8 +
STACK CFI 313dc r11: .cfa -24 + ^ r9: .cfa -28 + ^ r8: .cfa -32 + ^
STACK CFI INIT 31470 174 .cfa: sp 0 +
STACK CFI 31472 .cfa: sp 20 + .ra: .cfa -4 + ^ r7: .cfa -8 + ^ r6: .cfa -12 + ^ r5: .cfa -16 + ^ r4: .cfa -20 + ^
STACK CFI 31474 .cfa: r7 8 +
STACK CFI 31478 r10: .cfa -24 + ^ r9: .cfa -28 + ^ r8: .cfa -32 + ^
STACK CFI INIT 315e4 218 .cfa: sp 0 +
STACK CFI 315e6 .cfa: sp 20 + .ra: .cfa -4 + ^ r7: .cfa -8 + ^ r6: .cfa -12 + ^ r5: .cfa -16 + ^ r4: .cfa -20 + ^
STACK CFI 315e8 .cfa: r7 8 +
STACK CFI 315ec r11: .cfa -24 + ^ r10: .cfa -28 + ^ r9: .cfa -32 + ^ r8: .cfa -36 + ^
STACK CFI INIT 317fc 1dc .cfa: sp 0 +
STACK CFI 317fe .cfa: sp 20 + .ra: .cfa -4 + ^ r7: .cfa -8 + ^ r6: .cfa -12 + ^ r5: .cfa -16 + ^ r4: .cfa -20 + ^
STACK CFI 31800 .cfa: r7 8 +
STACK CFI 31804 r11: .cfa -24 + ^ r10: .cfa -28 + ^ r9: .cfa -32 + ^ r8: .cfa -36 + ^
STACK CFI INIT 319d8 188 .cfa: sp 0 +
STACK CFI 319da .cfa: sp 20 + .ra: .cfa -4 + ^ r7: .cfa -8 + ^ r6: .cfa -12 + ^ r5: .cfa -16 + ^ r4: .cfa -20 + ^
STACK CFI 319dc .cfa: r7 8 +
STACK CFI 319e0 r11: .cfa -24 + ^ r10: .cfa -28 + ^ r9: .cfa -32 + ^ r8: .cfa -36 + ^
STACK CFI INIT 31b60 9f8 .cfa: sp 0 +
STACK CFI 31b62 .cfa: sp 20 + .ra: .cfa -4 + ^ r7: .cfa -8 + ^ r6: .cfa -12 + ^ r5: .cfa -16 + ^ r4: .cfa -20 + ^
STACK CFI 31b64 .cfa: r7 8 +
STACK CFI 31b68 r11: .cfa -24 + ^ r10: .cfa -28 + ^ r9: .cfa -32 + ^ r8: .cfa -36 + ^
STACK CFI INIT 32558 fa .cfa: sp 0 +
STACK CFI 3255a .cfa: sp 20 + .ra: .cfa -4 + ^ r7: .cfa -8 + ^ r6: .cfa -12 + ^ r5: .cfa -16 + ^ r4: .cfa -20 + ^
STACK CFI 3255c .cfa: r7 8 +
STACK CFI 32560 r11: .cfa -24 + ^ r10: .cfa -28 + ^ r9: .cfa -32 + ^ r8: .cfa -36 + ^
STACK CFI INIT 32654 184 .cfa: sp 0 +
STACK CFI 32656 .cfa: sp 20 + .ra: .cfa -4 + ^ r7: .cfa -8 + ^ r6: .cfa -12 + ^ r5: .cfa -16 + ^ r4: .cfa -20 + ^
STACK CFI 32658 .cfa: r7 8 +
STACK CFI 3265c r11: .cfa -24 + ^ r10: .cfa -28 + ^ r9: .cfa -32 + ^ r8: .cfa -36 + ^
STACK CFI INIT 327d8 214 .cfa: sp 0 +
STACK CFI 327da .cfa: sp 20 + .ra: .cfa -4 + ^ r7: .cfa -8 + ^ r6: .cfa -12 + ^ r5: .cfa -16 + ^ r4: .cfa -20 + ^
STACK CFI 327dc .cfa: r7 8 +
STACK CFI 327e0 r8: .cfa -24 + ^
STACK CFI INIT 329ec e0 .cfa: sp 0 +
STACK CFI 329ee .cfa: sp 20 + .ra: .cfa -4 + ^ r7: .cfa -8 + ^ r6: .cfa -12 + ^ r5: .cfa -16 + ^ r4: .cfa -20 + ^
STACK CFI 329f0 .cfa: r7 8 +
STACK CFI 329f4 r8: .cfa -24 + ^
STACK CFI INIT 32acc e0 .cfa: sp 0 +
STACK CFI 32ace .cfa: sp 20 + .ra: .cfa -4 + ^ r7: .cfa -8 + ^ r6: .cfa -12 + ^ r5: .cfa -16 + ^ r4: .cfa -20 + ^
STACK CFI 32ad0 .cfa: r7 8 +
STACK CFI 32ad4 r8: .cfa -24 + ^
STACK CFI INIT 32bb0 73c .cfa: sp 0 +
STACK CFI 32bb2 .cfa: sp 20 + .ra: .cfa -4 + ^ r7: .cfa -8 + ^ r6: .cfa -12 + ^ r5: .cfa -16 + ^ r4: .cfa -20 + ^
STACK CFI 32bb4 .cfa: r7 8 +
STACK CFI 32bb8 r11: .cfa -24 + ^ r10: .cfa -28 + ^ r9: .cfa -32 + ^ r8: .cfa -36 + ^
STACK CFI INIT 332ec 140 .cfa: sp 0 +
STACK CFI 332ee .cfa: sp 20 + .ra: .cfa -4 + ^ r7: .cfa -8 + ^ r6: .cfa -12 + ^ r5: .cfa -16 + ^ r4: .cfa -20 + ^
STACK CFI 332f0 .cfa: r7 8 +
STACK CFI 332f4 r11: .cfa -24 + ^ r10: .cfa -28 + ^ r9: .cfa -32 + ^ r8: .cfa -36 + ^
STACK CFI INIT 3342c e0 .cfa: sp 0 +
STACK CFI 3342e .cfa: sp 20 + .ra: .cfa -4 + ^ r7: .cfa -8 + ^ r6: .cfa -12 + ^ r5: .cfa -16 + ^ r4: .cfa -20 + ^
STACK CFI 33430 .cfa: r7 8 +
STACK CFI 33434 r8: .cfa -24 + ^
STACK CFI INIT 3350c 194 .cfa: sp 0 +
STACK CFI 3350e .cfa: sp 20 + .ra: .cfa -4 + ^ r7: .cfa -8 + ^ r6: .cfa -12 + ^ r5: .cfa -16 + ^ r4: .cfa -20 + ^
STACK CFI 33510 .cfa: r7 8 +
STACK CFI 33514 r8: .cfa -24 + ^
STACK CFI INIT 336a0 22 .cfa: sp 0 +
STACK CFI 336a2 .cfa: sp 16 + .ra: .cfa -4 + ^ r7: .cfa -8 + ^ r6: .cfa -12 + ^ r4: .cfa -16 + ^
STACK CFI 336a4 .cfa: r7 8 +
STACK CFI INIT 336c4 104 .cfa: sp 0 +
STACK CFI 336c6 .cfa: sp 20 + .ra: .cfa -4 + ^ r7: .cfa -8 + ^ r6: .cfa -12 + ^ r5: .cfa -16 + ^ r4: .cfa -20 + ^
STACK CFI 336c8 .cfa: r7 8 +
STACK CFI 336cc r10: .cfa -24 + ^ r9: .cfa -28 + ^ r8: .cfa -32 + ^
STACK CFI INIT 337c8 144 .cfa: sp 0 +
STACK CFI 337ca .cfa: sp 20 + .ra: .cfa -4 + ^ r7: .cfa -8 + ^ r6: .cfa -12 + ^ r5: .cfa -16 + ^ r4: .cfa -20 + ^
STACK CFI 337cc .cfa: r7 8 +
STACK CFI 337d0 r11: .cfa -24 + ^ r9: .cfa -28 + ^ r8: .cfa -32 + ^
STACK CFI INIT 3390c 66 .cfa: sp 0 +
STACK CFI 3390e .cfa: sp 20 + .ra: .cfa -4 + ^ r7: .cfa -8 + ^ r6: .cfa -12 + ^ r5: .cfa -16 + ^ r4: .cfa -20 + ^
STACK CFI 33910 .cfa: r7 8 +
STACK CFI 33914 r11: .cfa -24 + ^ r9: .cfa -28 + ^ r8: .cfa -32 + ^
STACK CFI INIT 33972 a6 .cfa: sp 0 +
STACK CFI 33974 .cfa: sp 20 + .ra: .cfa -4 + ^ r7: .cfa -8 + ^ r6: .cfa -12 + ^ r5: .cfa -16 + ^ r4: .cfa -20 + ^
STACK CFI 33976 .cfa: r7 8 +
STACK CFI 3397a r10: .cfa -24 + ^ r9: .cfa -28 + ^ r8: .cfa -32 + ^
STACK CFI INIT 33a18 21c .cfa: sp 0 +
STACK CFI 33a1a .cfa: sp 20 + .ra: .cfa -4 + ^ r7: .cfa -8 + ^ r6: .cfa -12 + ^ r5: .cfa -16 + ^ r4: .cfa -20 + ^
STACK CFI 33a1c .cfa: r7 8 +
STACK CFI 33a20 r11: .cfa -24 + ^ r10: .cfa -28 + ^ r9: .cfa -32 + ^ r8: .cfa -36 + ^
STACK CFI INIT 33c34 6e .cfa: sp 0 +
STACK CFI 33c36 .cfa: sp 20 + .ra: .cfa -4 + ^ r7: .cfa -8 + ^ r6: .cfa -12 + ^ r5: .cfa -16 + ^ r4: .cfa -20 + ^
STACK CFI 33c38 .cfa: r7 8 +
STACK CFI 33c3c r8: .cfa -24 + ^
STACK CFI INIT 33cb0 e4 .cfa: sp 0 +
STACK CFI 33cb2 .cfa: sp 20 + .ra: .cfa -4 + ^ r7: .cfa -8 + ^ r6: .cfa -12 + ^ r5: .cfa -16 + ^ r4: .cfa -20 + ^
STACK CFI 33cb4 .cfa: r7 8 +
STACK CFI 33cb8 r11: .cfa -24 + ^
STACK CFI INIT 33d94 9ac .cfa: sp 0 +
STACK CFI 33d96 .cfa: sp 20 + .ra: .cfa -4 + ^ r7: .cfa -8 + ^ r6: .cfa -12 + ^ r5: .cfa -16 + ^ r4: .cfa -20 + ^
STACK CFI 33d98 .cfa: r7 8 +
STACK CFI 33d9c r11: .cfa -24 + ^ r10: .cfa -28 + ^ r9: .cfa -32 + ^ r8: .cfa -36 + ^
STACK CFI INIT 34740 e8 .cfa: sp 0 +
STACK CFI 34742 .cfa: sp 20 + .ra: .cfa -4 + ^ r7: .cfa -8 + ^ r6: .cfa -12 + ^ r5: .cfa -16 + ^ r4: .cfa -20 + ^
STACK CFI 34744 .cfa: r7 8 +
STACK CFI 34748 r8: .cfa -24 + ^
STACK CFI INIT 34828 19c .cfa: sp 0 +
STACK CFI 3482a .cfa: sp 20 + .ra: .cfa -4 + ^ r7: .cfa -8 + ^ r6: .cfa -12 + ^ r5: .cfa -16 + ^ r4: .cfa -20 + ^
STACK CFI 3482c .cfa: r7 8 +
STACK CFI 34830 r11: .cfa -24 + ^ r10: .cfa -28 + ^ r9: .cfa -32 + ^ r8: .cfa -36 + ^
STACK CFI INIT 349d0 e4 .cfa: sp 0 +
STACK CFI 349d2 .cfa: sp 20 + .ra: .cfa -4 + ^ r7: .cfa -8 + ^ r6: .cfa -12 + ^ r5: .cfa -16 + ^ r4: .cfa -20 + ^
STACK CFI 349d4 .cfa: r7 8 +
STACK CFI 349d8 r11: .cfa -24 + ^
STACK CFI INIT 34ab4 150 .cfa: sp 0 +
STACK CFI 34ab6 .cfa: sp 20 + .ra: .cfa -4 + ^ r7: .cfa -8 + ^ r6: .cfa -12 + ^ r5: .cfa -16 + ^ r4: .cfa -20 + ^
STACK CFI 34ab8 .cfa: r7 8 +
STACK CFI 34abc r11: .cfa -24 + ^ r10: .cfa -28 + ^ r9: .cfa -32 + ^ r8: .cfa -36 + ^
STACK CFI INIT 34c08 1660 .cfa: sp 0 +
STACK CFI 34c0a .cfa: sp 20 + .ra: .cfa -4 + ^ r7: .cfa -8 + ^ r6: .cfa -12 + ^ r5: .cfa -16 + ^ r4: .cfa -20 + ^
STACK CFI 34c0c .cfa: r7 8 +
STACK CFI 34c10 r11: .cfa -24 + ^ r10: .cfa -28 + ^ r9: .cfa -32 + ^ r8: .cfa -36 + ^
STACK CFI INIT 36268 1cc .cfa: sp 0 +
STACK CFI 3626a .cfa: sp 20 + .ra: .cfa -4 + ^ r7: .cfa -8 + ^ r6: .cfa -12 + ^ r5: .cfa -16 + ^ r4: .cfa -20 + ^
STACK CFI 3626c .cfa: r7 8 +
STACK CFI 36270 r8: .cfa -24 + ^
STACK CFI INIT 36434 106 .cfa: sp 0 +
STACK CFI 36436 .cfa: sp 20 + .ra: .cfa -4 + ^ r7: .cfa -8 + ^ r6: .cfa -12 + ^ r5: .cfa -16 + ^ r4: .cfa -20 + ^
STACK CFI 36438 .cfa: r7 8 +
STACK CFI 3643c r11: .cfa -24 + ^ r10: .cfa -28 + ^ r9: .cfa -32 + ^ r8: .cfa -36 + ^
STACK CFI INIT 3653c b78 .cfa: sp 0 +
STACK CFI 3653e .cfa: sp 20 + .ra: .cfa -4 + ^ r7: .cfa -8 + ^ r6: .cfa -12 + ^ r5: .cfa -16 + ^ r4: .cfa -20 + ^
STACK CFI 36540 .cfa: r7 8 +
STACK CFI 36544 r11: .cfa -24 + ^ r10: .cfa -28 + ^ r9: .cfa -32 + ^ r8: .cfa -36 + ^
STACK CFI INIT 370b4 3a4 .cfa: sp 0 +
STACK CFI 370b6 .cfa: sp 20 + .ra: .cfa -4 + ^ r7: .cfa -8 + ^ r6: .cfa -12 + ^ r5: .cfa -16 + ^ r4: .cfa -20 + ^
STACK CFI 370b8 .cfa: r7 8 +
STACK CFI 370bc r11: .cfa -24 + ^ r10: .cfa -28 + ^ r9: .cfa -32 + ^ r8: .cfa -36 + ^
STACK CFI INIT 37458 ebc .cfa: sp 0 +
STACK CFI 3745a .cfa: sp 20 + .ra: .cfa -4 + ^ r7: .cfa -8 + ^ r6: .cfa -12 + ^ r5: .cfa -16 + ^ r4: .cfa -20 + ^
STACK CFI 3745c .cfa: r7 8 +
STACK CFI 37460 r11: .cfa -24 + ^ r10: .cfa -28 + ^ r9: .cfa -32 + ^ r8: .cfa -36 + ^
STACK CFI INIT 38314 10c .cfa: sp 0 +
STACK CFI 38316 .cfa: sp 20 + .ra: .cfa -4 + ^ r7: .cfa -8 + ^ r6: .cfa -12 + ^ r5: .cfa -16 + ^ r4: .cfa -20 + ^
STACK CFI 38318 .cfa: r7 8 +
STACK CFI 3831c r11: .cfa -24 + ^ r10: .cfa -28 + ^ r9: .cfa -32 + ^ r8: .cfa -36 + ^
STACK CFI INIT 38420 c4 .cfa: sp 0 +
STACK CFI 3843e .cfa: sp 20 + .ra: .cfa -4 + ^ r7: .cfa -8 + ^ r6: .cfa -12 + ^ r5: .cfa -16 + ^ r4: .cfa -20 + ^
STACK CFI 38440 .cfa: r7 8 +
STACK CFI 38444 r8: .cfa -24 + ^
STACK CFI INIT 384e4 414 .cfa: sp 0 +
STACK CFI 384e6 .cfa: sp 20 + .ra: .cfa -4 + ^ r7: .cfa -8 + ^ r6: .cfa -12 + ^ r5: .cfa -16 + ^ r4: .cfa -20 + ^
STACK CFI 384e8 .cfa: r7 8 +
STACK CFI 384ec r11: .cfa -24 + ^ r10: .cfa -28 + ^ r9: .cfa -32 + ^ r8: .cfa -36 + ^
STACK CFI INIT 388f8 276 .cfa: sp 0 +
STACK CFI 388fa .cfa: sp 20 + .ra: .cfa -4 + ^ r7: .cfa -8 + ^ r6: .cfa -12 + ^ r5: .cfa -16 + ^ r4: .cfa -20 + ^
STACK CFI 388fc .cfa: r7 8 +
STACK CFI 38900 r11: .cfa -24 + ^ r10: .cfa -28 + ^ r9: .cfa -32 + ^ r8: .cfa -36 + ^
STACK CFI INIT 38b6e 6e .cfa: sp 0 +
STACK CFI 38b70 .cfa: sp 20 + .ra: .cfa -4 + ^ r7: .cfa -8 + ^ r6: .cfa -12 + ^ r5: .cfa -16 + ^ r4: .cfa -20 + ^
STACK CFI 38b72 .cfa: r7 8 +
STACK CFI 38b76 r8: .cfa -24 + ^
STACK CFI INIT 38bdc 994 .cfa: sp 0 +
STACK CFI 38bde .cfa: sp 20 + .ra: .cfa -4 + ^ r7: .cfa -8 + ^ r6: .cfa -12 + ^ r5: .cfa -16 + ^ r4: .cfa -20 + ^
STACK CFI 38be0 .cfa: r7 8 +
STACK CFI 38be4 r11: .cfa -24 + ^ r10: .cfa -28 + ^ r9: .cfa -32 + ^ r8: .cfa -36 + ^
STACK CFI INIT 39570 e0 .cfa: sp 0 +
STACK CFI 39572 .cfa: sp 20 + .ra: .cfa -4 + ^ r7: .cfa -8 + ^ r6: .cfa -12 + ^ r5: .cfa -16 + ^ r4: .cfa -20 + ^
STACK CFI 39574 .cfa: r7 8 +
STACK CFI 39578 r11: .cfa -24 + ^ r10: .cfa -28 + ^ r9: .cfa -32 + ^ r8: .cfa -36 + ^
STACK CFI INIT 39650 820 .cfa: sp 0 +
STACK CFI 39652 .cfa: sp 20 + .ra: .cfa -4 + ^ r7: .cfa -8 + ^ r6: .cfa -12 + ^ r5: .cfa -16 + ^ r4: .cfa -20 + ^
STACK CFI 39654 .cfa: r7 8 +
STACK CFI 39658 r11: .cfa -24 + ^ r10: .cfa -28 + ^ r9: .cfa -32 + ^ r8: .cfa -36 + ^
STACK CFI INIT 39e70 124 .cfa: sp 0 +
STACK CFI 39e72 .cfa: sp 20 + .ra: .cfa -4 + ^ r7: .cfa -8 + ^ r6: .cfa -12 + ^ r5: .cfa -16 + ^ r4: .cfa -20 + ^
STACK CFI 39e74 .cfa: r7 8 +
STACK CFI 39e78 r11: .cfa -24 + ^ r10: .cfa -28 + ^ r9: .cfa -32 + ^ r8: .cfa -36 + ^
STACK CFI INIT 39fa0 1e4 .cfa: sp 0 +
STACK CFI 39fa2 .cfa: sp 20 + .ra: .cfa -4 + ^ r7: .cfa -8 + ^ r6: .cfa -12 + ^ r5: .cfa -16 + ^ r4: .cfa -20 + ^
STACK CFI 39fa4 .cfa: r7 8 +
STACK CFI 39fa8 r11: .cfa -24 + ^ r10: .cfa -28 + ^ r9: .cfa -32 + ^ r8: .cfa -36 + ^
STACK CFI INIT 3a184 544 .cfa: sp 0 +
STACK CFI 3a186 .cfa: sp 20 + .ra: .cfa -4 + ^ r7: .cfa -8 + ^ r6: .cfa -12 + ^ r5: .cfa -16 + ^ r4: .cfa -20 + ^
STACK CFI 3a188 .cfa: r7 8 +
STACK CFI 3a18c r11: .cfa -24 + ^ r10: .cfa -28 + ^ r9: .cfa -32 + ^ r8: .cfa -36 + ^
