MODULE Linux arm64 64E775125235F81DBBEE2D7B0A7A611E0 raydeeux.pausemenuloop.android64.so
INFO CODE_ID 1275E76435521DF8BBEE2D7B0A7A611E1662E613
INFO GENERATOR mozilla/dump_syms 2.3.4
PUBLIC d780 0 __on_dlclose
PUBLIC d790 0 __emutls_unregister_key
PUBLIC d798 0 __on_dlclose_late
PUBLIC d7a0 0 __atexit_handler_wrapper
PUBLIC d7b4 0 atexit
PUBLIC d7d0 0 pthread_atfork
PUBLIC d7e0 0 unwind_phase2
PUBLIC d914 0 _Unwind_Resume
PUBLIC d998 0 unwind_phase2_forced
PUBLIC m da8c 0 __unw_init_local
PUBLIC m db34 0 __unw_get_reg
PUBLIC dbb0 0 __unw_step_stage2
PUBLIC m dbc4 0 __unw_get_proc_info
PUBLIC m dc04 0 __unw_resume
PUBLIC dc2c 0 libunwind::CFI_Parser<libunwind::LocalAddressSpace>::decodeFDE(libunwind::LocalAddressSpace&, unsigned long, libunwind::CFI_Parser<libunwind::LocalAddressSpace>::FDE_Info*, libunwind::CFI_Parser<libunwind::LocalAddressSpace>::CIE_Info*, bool)
PUBLIC ddbc 0 libunwind::CFI_Parser<libunwind::LocalAddressSpace>::parseCIE(libunwind::LocalAddressSpace&, unsigned long, libunwind::CFI_Parser<libunwind::LocalAddressSpace>::CIE_Info*)
PUBLIC e084 0 libunwind::AbstractUnwindCursor::~AbstractUnwindCursor()
PUBLIC e08c 0 libunwind::UnwindCursor<libunwind::LocalAddressSpace, libunwind::Registers_arm64>::~UnwindCursor()
PUBLIC e094 0 libunwind::UnwindCursor<libunwind::LocalAddressSpace, libunwind::Registers_arm64>::validReg(int)
PUBLIC e0d8 0 libunwind::UnwindCursor<libunwind::LocalAddressSpace, libunwind::Registers_arm64>::getReg(int)
PUBLIC e1c0 0 libunwind::UnwindCursor<libunwind::LocalAddressSpace, libunwind::Registers_arm64>::setReg(int, unsigned long)
PUBLIC e2a8 0 libunwind::UnwindCursor<libunwind::LocalAddressSpace, libunwind::Registers_arm64>::validFloatReg(int)
PUBLIC e2bc 0 libunwind::UnwindCursor<libunwind::LocalAddressSpace, libunwind::Registers_arm64>::getFloatReg(int)
PUBLIC e2cc 0 libunwind::UnwindCursor<libunwind::LocalAddressSpace, libunwind::Registers_arm64>::setFloatReg(int, double)
PUBLIC e2dc 0 libunwind::UnwindCursor<libunwind::LocalAddressSpace, libunwind::Registers_arm64>::step(bool)
PUBLIC e3cc 0 libunwind::UnwindCursor<libunwind::LocalAddressSpace, libunwind::Registers_arm64>::getInfo(unw_proc_info_t*)
PUBLIC e410 0 libunwind::UnwindCursor<libunwind::LocalAddressSpace, libunwind::Registers_arm64>::jumpto()
PUBLIC e41c 0 libunwind::UnwindCursor<libunwind::LocalAddressSpace, libunwind::Registers_arm64>::isSignalFrame()
PUBLIC e428 0 libunwind::UnwindCursor<libunwind::LocalAddressSpace, libunwind::Registers_arm64>::getFunctionName(char*, unsigned long, unsigned long*)
PUBLIC e454 0 libunwind::UnwindCursor<libunwind::LocalAddressSpace, libunwind::Registers_arm64>::setInfoBasedOnIPRegister(bool)
PUBLIC e6d4 0 libunwind::UnwindCursor<libunwind::LocalAddressSpace, libunwind::Registers_arm64>::getRegisterName(int)
PUBLIC e6e0 0 libunwind::UnwindCursor<libunwind::LocalAddressSpace, libunwind::Registers_arm64>::stepThroughSigReturn(libunwind::Registers_arm64&)
PUBLIC e800 0 libunwind::DwarfInstructions<libunwind::LocalAddressSpace, libunwind::Registers_arm64>::stepWithDwarf(libunwind::LocalAddressSpace&, unsigned long, unsigned long, libunwind::Registers_arm64&, bool&, bool)
PUBLIC ec88 0 libunwind::CFI_Parser<libunwind::LocalAddressSpace>::parseFDEInstructions(libunwind::LocalAddressSpace&, libunwind::CFI_Parser<libunwind::LocalAddressSpace>::FDE_Info const&, libunwind::CFI_Parser<libunwind::LocalAddressSpace>::CIE_Info const&, unsigned long, int, libunwind::CFI_Parser<libunwind::LocalAddressSpace>::PrologInfo*)
PUBLIC f8d0 0 libunwind::DwarfInstructions<libunwind::LocalAddressSpace, libunwind::Registers_arm64>::getCFA(libunwind::LocalAddressSpace&, libunwind::CFI_Parser<libunwind::LocalAddressSpace>::PrologInfo const&, libunwind::Registers_arm64 const&)
PUBLIC fa04 0 libunwind::DwarfInstructions<libunwind::LocalAddressSpace, libunwind::Registers_arm64>::getSavedRegister(libunwind::LocalAddressSpace&, libunwind::Registers_arm64 const&, unsigned long, libunwind::CFI_Parser<libunwind::LocalAddressSpace>::RegisterLocation const&)
PUBLIC fc14 0 libunwind::LocalAddressSpace::getEncodedP(unsigned long&, unsigned long, unsigned char, unsigned long)
PUBLIC ffa0 0 libunwind::LocalAddressSpace::getULEB128(unsigned long&, unsigned long)
PUBLIC 10168 0 libunwind::DwarfInstructions<libunwind::LocalAddressSpace, libunwind::Registers_arm64>::evaluateExpression(unsigned long, libunwind::LocalAddressSpace&, libunwind::Registers_arm64 const&, unsigned long)
PUBLIC 10b24 0 libunwind::UnwindCursor<libunwind::LocalAddressSpace, libunwind::Registers_arm64>::getInfoFromDwarfSection(unsigned long, libunwind::UnwindInfoSections const&, unsigned int)
PUBLIC 10df8 0 libunwind::findUnwindSectionsByPhdr(dl_phdr_info*, unsigned long, void*)
PUBLIC 10f2c 0 libunwind::EHHeaderParser<libunwind::LocalAddressSpace>::decodeEHHdr(libunwind::LocalAddressSpace&, unsigned long, unsigned long, libunwind::EHHeaderParser<libunwind::LocalAddressSpace>::EHHeaderInfo&)
PUBLIC 1104c 0 libunwind::CFI_Parser<libunwind::LocalAddressSpace>::findFDE(libunwind::LocalAddressSpace&, unsigned long, unsigned long, unsigned long, unsigned long, libunwind::CFI_Parser<libunwind::LocalAddressSpace>::FDE_Info*, libunwind::CFI_Parser<libunwind::LocalAddressSpace>::CIE_Info*)
PUBLIC 11214 0 libunwind::EHHeaderParser<libunwind::LocalAddressSpace>::findFDE(libunwind::LocalAddressSpace&, unsigned long, unsigned long, unsigned int, libunwind::CFI_Parser<libunwind::LocalAddressSpace>::FDE_Info*, libunwind::CFI_Parser<libunwind::LocalAddressSpace>::CIE_Info*)
PUBLIC 1137c 0 libunwind::EHHeaderParser<libunwind::LocalAddressSpace>::getTableEntrySize(unsigned char)
PUBLIC 11478 0 libunwind::Registers_arm64::getRegisterName(int)
PUBLIC 114a8 0 __libunwind_Registers_arm64_jumpto
PUBLIC m 11538 0 __unw_getcontext
PUBLIC 115d4 0 Utils::isSupportedExtension(std::__ndk1::basic_string<char, std::__ndk1::char_traits<char>, std::__ndk1::allocator<char> >)
PUBLIC 116a0 0 __aarch64_ldadd8_relax
PUBLIC 116d0 0 init_have_lse_atomics
PUBLIC 11768 0 __init_cpu_features_constructor
PUBLIC 11d04 0 __init_cpu_features
PUBLIC 11d90 0 __aarch64_ldadd8_acq_rel
PUBLIC 11dc0 0 MyButtonSettingV3::createNode(float)
PUBLIC 1242c 0 std::__ndk1::shared_ptr<MyButtonSettingV3>::~shared_ptr[abi:ne180000]()
PUBLIC 1247c 0 std::__ndk1::shared_ptr<geode::SettingV3>::~shared_ptr[abi:ne180000]()
PUBLIC 124cc 0 MyButtonSettingV3::~MyButtonSettingV3()
PUBLIC 124f0 0 MyButtonSettingV3::load(matjson::Value const&)
PUBLIC 124f8 0 MyButtonSettingV3::save(matjson::Value&) const
PUBLIC 12500 0 MyButtonSettingV3::isDefaultValue() const
PUBLIC 12508 0 MyButtonSettingV3::reset()
PUBLIC 1250c 0 cocos2d::CCCopying::copyWithZone(cocos2d::CCZone*)
PUBLIC 12514 0 MyButtonSettingNodeV3::~MyButtonSettingNodeV3()
PUBLIC 125a0 0 MyButtonSettingNodeV3::~MyButtonSettingNodeV3()
PUBLIC 1263c 0 MyButtonSettingNodeV3::onCommit()
PUBLIC 12640 0 MyButtonSettingNodeV3::onResetToDefault()
PUBLIC 12644 0 MyButtonSettingNodeV3::hasUncommittedChanges() const
PUBLIC 1264c 0 MyButtonSettingNodeV3::hasNonDefaultValue() const
PUBLIC 12654 0 __clang_call_terminate
PUBLIC 12664 0 MyButtonSettingNodeV3::onConfigDirButton(cocos2d::CCObject*)
PUBLIC 1270c 0 std::__ndk1::__throw_bad_optional_access[abi:ne180000]()
PUBLIC 12740 0 std::__ndk1::__throw_bad_weak_ptr[abi:ne180000]()
PUBLIC 12774 0 geode::Mod::getSettingValue<long>(std::__ndk1::basic_string_view<char, std::__ndk1::char_traits<char> >) const
PUBLIC 12888 0 geodeExecFunction28<(anonymous namespace)::ExecFuncUnique28>(geode::ModStateEvent*)
PUBLIC 12d68 0 __cxx_global_var_init.1
PUBLIC 1378c 0 geode::modifier::ModifyBase<geode::modifier::ModifyDerive<MyPauseLayer, PauseLayer> >::~ModifyBase()
PUBLIC 137a4 0 std::__ndk1::shared_ptr<geode::IntSettingV3>::~shared_ptr[abi:ne180000]()
PUBLIC 137f4 0 geode::cast::traverseTypeinfoFor(void*, geode::cast::ClassTypeinfoType const*, char const*)
PUBLIC 138ec 0 MyButtonSettingV3::parse(std::__ndk1::basic_string<char, std::__ndk1::char_traits<char>, std::__ndk1::allocator<char> > const&, std::__ndk1::basic_string<char, std::__ndk1::char_traits<char>, std::__ndk1::allocator<char> > const&, matjson::Value const&)
PUBLIC 13c70 0 geode::impl::ResultData<void, std::__ndk1::basic_string<char, std::__ndk1::char_traits<char>, std::__ndk1::allocator<char> > >::~ResultData()
PUBLIC 13ce4 0 std::__throw_bad_array_new_length([abi:ne180000], void)
PUBLIC 13d18 0 std::__ndk1::__shared_ptr_emplace<MyButtonSettingV3, std::__ndk1::allocator<MyButtonSettingV3> >::~__shared_ptr_emplace()
PUBLIC 13d28 0 std::__ndk1::__shared_ptr_emplace<MyButtonSettingV3, std::__ndk1::allocator<MyButtonSettingV3> >::~__shared_ptr_emplace()
PUBLIC 13d58 0 std::__ndk1::__shared_ptr_emplace<MyButtonSettingV3, std::__ndk1::allocator<MyButtonSettingV3> >::__on_zero_shared()
PUBLIC 13d64 0 std::__ndk1::__shared_ptr_emplace<MyButtonSettingV3, std::__ndk1::allocator<MyButtonSettingV3> >::__on_zero_shared_weak()
PUBLIC 13d68 0 std::__ndk1::__throw_bad_variant_access[abi:ne180000]()
PUBLIC 13d9c 0 geode::UnwrapException::~UnwrapException()
PUBLIC 13dc0 0 std::__ndk1::basic_string<char, std::__ndk1::char_traits<char>, std::__ndk1::allocator<char> >::__init_copy_ctor_external(char const*, unsigned long)
PUBLIC 13e40 0 std::__ndk1::basic_string<char, std::__ndk1::char_traits<char>, std::__ndk1::allocator<char> >::__throw_length_error[abi:ne180000]() const
PUBLIC 13e54 0 std::__ndk1::__throw_length_error[abi:ne180000](char const*)
PUBLIC 13ea4 0 std::length_error::length_error[abi:ne180000](char const*)
PUBLIC 13ed4 0 std::__ndk1::__function::__base<geode::Result<std::__ndk1::shared_ptr<geode::SettingV3>, std::__ndk1::basic_string<char, std::__ndk1::char_traits<char>, std::__ndk1::allocator<char> > >(std::__ndk1::basic_string<char, std::__ndk1::char_traits<char>, std::__ndk1::allocator<char> > const&, std::__ndk1::basic_string<char, std::__ndk1::char_traits<char>, std::__ndk1::allocator<char> > const&, matjson::Value const&)>::~__base()
PUBLIC 13ed8 0 std::__ndk1::__function::__func<geode::Result<std::__ndk1::shared_ptr<geode::SettingV3>, std::__ndk1::basic_string<char, std::__ndk1::char_traits<char>, std::__ndk1::allocator<char> > > (*)(std::__ndk1::basic_string<char, std::__ndk1::char_traits<char>, std::__ndk1::allocator<char> > const&, std::__ndk1::basic_string<char, std::__ndk1::char_traits<char>, std::__ndk1::allocator<char> > const&, matjson::Value const&), std::__ndk1::allocator<geode::Result<std::__ndk1::shared_ptr<geode::SettingV3>, std::__ndk1::basic_string<char, std::__ndk1::char_traits<char>, std::__ndk1::allocator<char> > > (*)(std::__ndk1::basic_string<char, std::__ndk1::char_traits<char>, std::__ndk1::allocator<char> > const&, std::__ndk1::basic_string<char, std::__ndk1::char_traits<char>, std::__ndk1::allocator<char> > const&, matjson::Value const&)>, geode::Result<std::__ndk1::shared_ptr<geode::SettingV3>, std::__ndk1::basic_string<char, std::__ndk1::char_traits<char>, std::__ndk1::allocator<char> > >(std::__ndk1::basic_string<char, std::__ndk1::char_traits<char>, std::__ndk1::allocator<char> > const&, std::__ndk1::basic_string<char, std::__ndk1::char_traits<char>, std::__ndk1::allocator<char> > const&, matjson::Value const&)>::~__func()
PUBLIC 13edc 0 std::__ndk1::__function::__func<geode::Result<std::__ndk1::shared_ptr<geode::SettingV3>, std::__ndk1::basic_string<char, std::__ndk1::char_traits<char>, std::__ndk1::allocator<char> > > (*)(std::__ndk1::basic_string<char, std::__ndk1::char_traits<char>, std::__ndk1::allocator<char> > const&, std::__ndk1::basic_string<char, std::__ndk1::char_traits<char>, std::__ndk1::allocator<char> > const&, matjson::Value const&), std::__ndk1::allocator<geode::Result<std::__ndk1::shared_ptr<geode::SettingV3>, std::__ndk1::basic_string<char, std::__ndk1::char_traits<char>, std::__ndk1::allocator<char> > > (*)(std::__ndk1::basic_string<char, std::__ndk1::char_traits<char>, std::__ndk1::allocator<char> > const&, std::__ndk1::basic_string<char, std::__ndk1::char_traits<char>, std::__ndk1::allocator<char> > const&, matjson::Value const&)>, geode::Result<std::__ndk1::shared_ptr<geode::SettingV3>, std::__ndk1::basic_string<char, std::__ndk1::char_traits<char>, std::__ndk1::allocator<char> > >(std::__ndk1::basic_string<char, std::__ndk1::char_traits<char>, std::__ndk1::allocator<char> > const&, std::__ndk1::basic_string<char, std::__ndk1::char_traits<char>, std::__ndk1::allocator<char> > const&, matjson::Value const&)>::__clone() const
PUBLIC 13f10 0 std::__ndk1::__function::__func<geode::Result<std::__ndk1::shared_ptr<geode::SettingV3>, std::__ndk1::basic_string<char, std::__ndk1::char_traits<char>, std::__ndk1::allocator<char> > > (*)(std::__ndk1::basic_string<char, std::__ndk1::char_traits<char>, std::__ndk1::allocator<char> > const&, std::__ndk1::basic_string<char, std::__ndk1::char_traits<char>, std::__ndk1::allocator<char> > const&, matjson::Value const&), std::__ndk1::allocator<geode::Result<std::__ndk1::shared_ptr<geode::SettingV3>, std::__ndk1::basic_string<char, std::__ndk1::char_traits<char>, std::__ndk1::allocator<char> > > (*)(std::__ndk1::basic_string<char, std::__ndk1::char_traits<char>, std::__ndk1::allocator<char> > const&, std::__ndk1::basic_string<char, std::__ndk1::char_traits<char>, std::__ndk1::allocator<char> > const&, matjson::Value const&)>, geode::Result<std::__ndk1::shared_ptr<geode::SettingV3>, std::__ndk1::basic_string<char, std::__ndk1::char_traits<char>, std::__ndk1::allocator<char> > >(std::__ndk1::basic_string<char, std::__ndk1::char_traits<char>, std::__ndk1::allocator<char> > const&, std::__ndk1::basic_string<char, std::__ndk1::char_traits<char>, std::__ndk1::allocator<char> > const&, matjson::Value const&)>::__clone(std::__ndk1::__function::__base<geode::Result<std::__ndk1::shared_ptr<geode::SettingV3>, std::__ndk1::basic_string<char, std::__ndk1::char_traits<char>, std::__ndk1::allocator<char> > >(std::__ndk1::basic_string<char, std::__ndk1::char_traits<char>, std::__ndk1::allocator<char> > const&, std::__ndk1::basic_string<char, std::__ndk1::char_traits<char>, std::__ndk1::allocator<char> > const&, matjson::Value const&)>*) const
PUBLIC 13f24 0 std::__ndk1::__function::__func<geode::Result<std::__ndk1::shared_ptr<geode::SettingV3>, std::__ndk1::basic_string<char, std::__ndk1::char_traits<char>, std::__ndk1::allocator<char> > > (*)(std::__ndk1::basic_string<char, std::__ndk1::char_traits<char>, std::__ndk1::allocator<char> > const&, std::__ndk1::basic_string<char, std::__ndk1::char_traits<char>, std::__ndk1::allocator<char> > const&, matjson::Value const&), std::__ndk1::allocator<geode::Result<std::__ndk1::shared_ptr<geode::SettingV3>, std::__ndk1::basic_string<char, std::__ndk1::char_traits<char>, std::__ndk1::allocator<char> > > (*)(std::__ndk1::basic_string<char, std::__ndk1::char_traits<char>, std::__ndk1::allocator<char> > const&, std::__ndk1::basic_string<char, std::__ndk1::char_traits<char>, std::__ndk1::allocator<char> > const&, matjson::Value const&)>, geode::Result<std::__ndk1::shared_ptr<geode::SettingV3>, std::__ndk1::basic_string<char, std::__ndk1::char_traits<char>, std::__ndk1::allocator<char> > >(std::__ndk1::basic_string<char, std::__ndk1::char_traits<char>, std::__ndk1::allocator<char> > const&, std::__ndk1::basic_string<char, std::__ndk1::char_traits<char>, std::__ndk1::allocator<char> > const&, matjson::Value const&)>::destroy()
PUBLIC 13f28 0 std::__ndk1::__function::__func<geode::Result<std::__ndk1::shared_ptr<geode::SettingV3>, std::__ndk1::basic_string<char, std::__ndk1::char_traits<char>, std::__ndk1::allocator<char> > > (*)(std::__ndk1::basic_string<char, std::__ndk1::char_traits<char>, std::__ndk1::allocator<char> > const&, std::__ndk1::basic_string<char, std::__ndk1::char_traits<char>, std::__ndk1::allocator<char> > const&, matjson::Value const&), std::__ndk1::allocator<geode::Result<std::__ndk1::shared_ptr<geode::SettingV3>, std::__ndk1::basic_string<char, std::__ndk1::char_traits<char>, std::__ndk1::allocator<char> > > (*)(std::__ndk1::basic_string<char, std::__ndk1::char_traits<char>, std::__ndk1::allocator<char> > const&, std::__ndk1::basic_string<char, std::__ndk1::char_traits<char>, std::__ndk1::allocator<char> > const&, matjson::Value const&)>, geode::Result<std::__ndk1::shared_ptr<geode::SettingV3>, std::__ndk1::basic_string<char, std::__ndk1::char_traits<char>, std::__ndk1::allocator<char> > >(std::__ndk1::basic_string<char, std::__ndk1::char_traits<char>, std::__ndk1::allocator<char> > const&, std::__ndk1::basic_string<char, std::__ndk1::char_traits<char>, std::__ndk1::allocator<char> > const&, matjson::Value const&)>::destroy_deallocate()
PUBLIC 13f2c 0 std::__ndk1::__function::__func<geode::Result<std::__ndk1::shared_ptr<geode::SettingV3>, std::__ndk1::basic_string<char, std::__ndk1::char_traits<char>, std::__ndk1::allocator<char> > > (*)(std::__ndk1::basic_string<char, std::__ndk1::char_traits<char>, std::__ndk1::allocator<char> > const&, std::__ndk1::basic_string<char, std::__ndk1::char_traits<char>, std::__ndk1::allocator<char> > const&, matjson::Value const&), std::__ndk1::allocator<geode::Result<std::__ndk1::shared_ptr<geode::SettingV3>, std::__ndk1::basic_string<char, std::__ndk1::char_traits<char>, std::__ndk1::allocator<char> > > (*)(std::__ndk1::basic_string<char, std::__ndk1::char_traits<char>, std::__ndk1::allocator<char> > const&, std::__ndk1::basic_string<char, std::__ndk1::char_traits<char>, std::__ndk1::allocator<char> > const&, matjson::Value const&)>, geode::Result<std::__ndk1::shared_ptr<geode::SettingV3>, std::__ndk1::basic_string<char, std::__ndk1::char_traits<char>, std::__ndk1::allocator<char> > >(std::__ndk1::basic_string<char, std::__ndk1::char_traits<char>, std::__ndk1::allocator<char> > const&, std::__ndk1::basic_string<char, std::__ndk1::char_traits<char>, std::__ndk1::allocator<char> > const&, matjson::Value const&)>::operator()(std::__ndk1::basic_string<char, std::__ndk1::char_traits<char>, std::__ndk1::allocator<char> > const&, std::__ndk1::basic_string<char, std::__ndk1::char_traits<char>, std::__ndk1::allocator<char> > const&, matjson::Value const&)
PUBLIC 13f40 0 std::__ndk1::__function::__func<geode::Result<std::__ndk1::shared_ptr<geode::SettingV3>, std::__ndk1::basic_string<char, std::__ndk1::char_traits<char>, std::__ndk1::allocator<char> > > (*)(std::__ndk1::basic_string<char, std::__ndk1::char_traits<char>, std::__ndk1::allocator<char> > const&, std::__ndk1::basic_string<char, std::__ndk1::char_traits<char>, std::__ndk1::allocator<char> > const&, matjson::Value const&), std::__ndk1::allocator<geode::Result<std::__ndk1::shared_ptr<geode::SettingV3>, std::__ndk1::basic_string<char, std::__ndk1::char_traits<char>, std::__ndk1::allocator<char> > > (*)(std::__ndk1::basic_string<char, std::__ndk1::char_traits<char>, std::__ndk1::allocator<char> > const&, std::__ndk1::basic_string<char, std::__ndk1::char_traits<char>, std::__ndk1::allocator<char> > const&, matjson::Value const&)>, geode::Result<std::__ndk1::shared_ptr<geode::SettingV3>, std::__ndk1::basic_string<char, std::__ndk1::char_traits<char>, std::__ndk1::allocator<char> > >(std::__ndk1::basic_string<char, std::__ndk1::char_traits<char>, std::__ndk1::allocator<char> > const&, std::__ndk1::basic_string<char, std::__ndk1::char_traits<char>, std::__ndk1::allocator<char> > const&, matjson::Value const&)>::target(std::type_info const&) const
PUBLIC 13f5c 0 std::__ndk1::__function::__func<geode::Result<std::__ndk1::shared_ptr<geode::SettingV3>, std::__ndk1::basic_string<char, std::__ndk1::char_traits<char>, std::__ndk1::allocator<char> > > (*)(std::__ndk1::basic_string<char, std::__ndk1::char_traits<char>, std::__ndk1::allocator<char> > const&, std::__ndk1::basic_string<char, std::__ndk1::char_traits<char>, std::__ndk1::allocator<char> > const&, matjson::Value const&), std::__ndk1::allocator<geode::Result<std::__ndk1::shared_ptr<geode::SettingV3>, std::__ndk1::basic_string<char, std::__ndk1::char_traits<char>, std::__ndk1::allocator<char> > > (*)(std::__ndk1::basic_string<char, std::__ndk1::char_traits<char>, std::__ndk1::allocator<char> > const&, std::__ndk1::basic_string<char, std::__ndk1::char_traits<char>, std::__ndk1::allocator<char> > const&, matjson::Value const&)>, geode::Result<std::__ndk1::shared_ptr<geode::SettingV3>, std::__ndk1::basic_string<char, std::__ndk1::char_traits<char>, std::__ndk1::allocator<char> > >(std::__ndk1::basic_string<char, std::__ndk1::char_traits<char>, std::__ndk1::allocator<char> > const&, std::__ndk1::basic_string<char, std::__ndk1::char_traits<char>, std::__ndk1::allocator<char> > const&, matjson::Value const&)>::target_type() const
PUBLIC 13f68 0 std::__ndk1::__variant_detail::__visitation::__base::__dispatcher<(unsigned long)0>::__dispatch[abi:ne180000]<std::__ndk1::__variant_detail::__dtor<std::__ndk1::__variant_detail::__traits<std::__ndk1::monostate, std::__ndk1::basic_string<char, std::__ndk1::char_traits<char>, std::__ndk1::allocator<char> > >, (std::__ndk1::__variant_detail::_Trait)1>::__destroy[abi:ne180000]()::{lambda(auto:1&)#1}, std::__ndk1::__variant_detail::__base<(std::__ndk1::__variant_detail::__traits<std::__ndk1::monostate, std::__ndk1::basic_string<char, std::__ndk1::char_traits<char>, std::__ndk1::allocator<char> > >)1, std::__ndk1::__variant_detail::__traits, std::__ndk1::allocator<char> >&>(std::__ndk1::__variant_detail::__dtor<std::__ndk1::__variant_detail::__traits<std::__ndk1::monostate, std::__ndk1::basic_string<char, std::__ndk1::char_traits<char>, std::__ndk1::allocator<char> > >, (std::__ndk1::__variant_detail::_Trait)1>, std::__ndk1::__variant_detail::__base<(std::__ndk1::__variant_detail::__traits<std::__ndk1::monostate, std::__ndk1::basic_string<char, std::__ndk1::char_traits<char>, std::__ndk1::allocator<char> > >)1, std::__ndk1::__variant_detail::__traits, std::__ndk1::allocator<char> >&)
PUBLIC 13f6c 0 std::__ndk1::__variant_detail::__visitation::__base::__dispatcher<(unsigned long)1>::__dispatch[abi:ne180000]<std::__ndk1::__variant_detail::__dtor<std::__ndk1::__variant_detail::__traits<std::__ndk1::monostate, std::__ndk1::basic_string<char, std::__ndk1::char_traits<char>, std::__ndk1::allocator<char> > >, (std::__ndk1::__variant_detail::_Trait)1>::__destroy[abi:ne180000]()::{lambda(auto:1&)#1}, std::__ndk1::__variant_detail::__base<(std::__ndk1::__variant_detail::__traits<std::__ndk1::monostate, std::__ndk1::basic_string<char, std::__ndk1::char_traits<char>, std::__ndk1::allocator<char> > >)1, std::__ndk1::__variant_detail::__traits, std::__ndk1::allocator<char> >&>(std::__ndk1::__variant_detail::__dtor<std::__ndk1::__variant_detail::__traits<std::__ndk1::monostate, std::__ndk1::basic_string<char, std::__ndk1::char_traits<char>, std::__ndk1::allocator<char> > >, (std::__ndk1::__variant_detail::_Trait)1>, std::__ndk1::__variant_detail::__base<(std::__ndk1::__variant_detail::__traits<std::__ndk1::monostate, std::__ndk1::basic_string<char, std::__ndk1::char_traits<char>, std::__ndk1::allocator<char> > >)1, std::__ndk1::__variant_detail::__traits, std::__ndk1::allocator<char> >&)
PUBLIC 13f80 0 geode::EventListener<geode::SettingChangedFilterV3>::EventListener(std::__ndk1::function<void (std::__ndk1::shared_ptr<geode::SettingV3>)>, geode::SettingChangedFilterV3)
PUBLIC 14078 0 geode::SettingChangedFilterV3::~SettingChangedFilterV3()
PUBLIC 140c8 0 std::__ndk1::__function::__func<geode::listenForSettingChangesV3<long, geodeExecFunction28<(anonymous namespace)::ExecFuncUnique28>(geode::ModStateEvent*)::{lambda(long)#1}>(std::__ndk1::basic_string_view<char, std::__ndk1::char_traits<char> >, geodeExecFunction28<(anonymous namespace)::ExecFuncUnique28>(geode::ModStateEvent*)::{lambda(long)#1}&&, geode::Mod*)::{lambda(std::__ndk1::shared_ptr<geode::SettingV3>)#1}, std::__ndk1::allocator<geode::listenForSettingChangesV3<long, geodeExecFunction28<(anonymous namespace)::ExecFuncUnique28>(geode::ModStateEvent*)::{lambda(long)#1}>(std::__ndk1::basic_string_view<char, std::__ndk1::char_traits<char> >, geodeExecFunction28<(anonymous namespace)::ExecFuncUnique28>(geode::ModStateEvent*)::{lambda(long)#1}&&, geode::Mod*)::{lambda(std::__ndk1::shared_ptr<geode::SettingV3>)#1}>, void (std::__ndk1::shared_ptr<geode::SettingV3>)>::~__func()
PUBLIC 140cc 0 std::__ndk1::__function::__func<geode::listenForSettingChangesV3<long, geodeExecFunction28<(anonymous namespace)::ExecFuncUnique28>(geode::ModStateEvent*)::{lambda(long)#1}>(std::__ndk1::basic_string_view<char, std::__ndk1::char_traits<char> >, geodeExecFunction28<(anonymous namespace)::ExecFuncUnique28>(geode::ModStateEvent*)::{lambda(long)#1}&&, geode::Mod*)::{lambda(std::__ndk1::shared_ptr<geode::SettingV3>)#1}, std::__ndk1::allocator<geode::listenForSettingChangesV3<long, geodeExecFunction28<(anonymous namespace)::ExecFuncUnique28>(geode::ModStateEvent*)::{lambda(long)#1}>(std::__ndk1::basic_string_view<char, std::__ndk1::char_traits<char> >, geodeExecFunction28<(anonymous namespace)::ExecFuncUnique28>(geode::ModStateEvent*)::{lambda(long)#1}&&, geode::Mod*)::{lambda(std::__ndk1::shared_ptr<geode::SettingV3>)#1}>, void (std::__ndk1::shared_ptr<geode::SettingV3>)>::__clone() const
PUBLIC 14104 0 std::__ndk1::__function::__func<geode::listenForSettingChangesV3<long, geodeExecFunction28<(anonymous namespace)::ExecFuncUnique28>(geode::ModStateEvent*)::{lambda(long)#1}>(std::__ndk1::basic_string_view<char, std::__ndk1::char_traits<char> >, geodeExecFunction28<(anonymous namespace)::ExecFuncUnique28>(geode::ModStateEvent*)::{lambda(long)#1}&&, geode::Mod*)::{lambda(std::__ndk1::shared_ptr<geode::SettingV3>)#1}, std::__ndk1::allocator<geode::listenForSettingChangesV3<long, geodeExecFunction28<(anonymous namespace)::ExecFuncUnique28>(geode::ModStateEvent*)::{lambda(long)#1}>(std::__ndk1::basic_string_view<char, std::__ndk1::char_traits<char> >, geodeExecFunction28<(anonymous namespace)::ExecFuncUnique28>(geode::ModStateEvent*)::{lambda(long)#1}&&, geode::Mod*)::{lambda(std::__ndk1::shared_ptr<geode::SettingV3>)#1}>, void (std::__ndk1::shared_ptr<geode::SettingV3>)>::__clone(std::__ndk1::__function::__base<void (std::__ndk1::shared_ptr<geode::SettingV3>)>*) const
PUBLIC 1411c 0 std::__ndk1::__function::__func<geode::listenForSettingChangesV3<long, geodeExecFunction28<(anonymous namespace)::ExecFuncUnique28>(geode::ModStateEvent*)::{lambda(long)#1}>(std::__ndk1::basic_string_view<char, std::__ndk1::char_traits<char> >, geodeExecFunction28<(anonymous namespace)::ExecFuncUnique28>(geode::ModStateEvent*)::{lambda(long)#1}&&, geode::Mod*)::{lambda(std::__ndk1::shared_ptr<geode::SettingV3>)#1}, std::__ndk1::allocator<geode::listenForSettingChangesV3<long, geodeExecFunction28<(anonymous namespace)::ExecFuncUnique28>(geode::ModStateEvent*)::{lambda(long)#1}>(std::__ndk1::basic_string_view<char, std::__ndk1::char_traits<char> >, geodeExecFunction28<(anonymous namespace)::ExecFuncUnique28>(geode::ModStateEvent*)::{lambda(long)#1}&&, geode::Mod*)::{lambda(std::__ndk1::shared_ptr<geode::SettingV3>)#1}>, void (std::__ndk1::shared_ptr<geode::SettingV3>)>::destroy()
PUBLIC 14120 0 std::__ndk1::__function::__func<geode::listenForSettingChangesV3<long, geodeExecFunction28<(anonymous namespace)::ExecFuncUnique28>(geode::ModStateEvent*)::{lambda(long)#1}>(std::__ndk1::basic_string_view<char, std::__ndk1::char_traits<char> >, geodeExecFunction28<(anonymous namespace)::ExecFuncUnique28>(geode::ModStateEvent*)::{lambda(long)#1}&&, geode::Mod*)::{lambda(std::__ndk1::shared_ptr<geode::SettingV3>)#1}, std::__ndk1::allocator<geode::listenForSettingChangesV3<long, geodeExecFunction28<(anonymous namespace)::ExecFuncUnique28>(geode::ModStateEvent*)::{lambda(long)#1}>(std::__ndk1::basic_string_view<char, std::__ndk1::char_traits<char> >, geodeExecFunction28<(anonymous namespace)::ExecFuncUnique28>(geode::ModStateEvent*)::{lambda(long)#1}&&, geode::Mod*)::{lambda(std::__ndk1::shared_ptr<geode::SettingV3>)#1}>, void (std::__ndk1::shared_ptr<geode::SettingV3>)>::destroy_deallocate()
PUBLIC 14124 0 std::__ndk1::__function::__func<geode::listenForSettingChangesV3<long, geodeExecFunction28<(anonymous namespace)::ExecFuncUnique28>(geode::ModStateEvent*)::{lambda(long)#1}>(std::__ndk1::basic_string_view<char, std::__ndk1::char_traits<char> >, geodeExecFunction28<(anonymous namespace)::ExecFuncUnique28>(geode::ModStateEvent*)::{lambda(long)#1}&&, geode::Mod*)::{lambda(std::__ndk1::shared_ptr<geode::SettingV3>)#1}, std::__ndk1::allocator<geode::listenForSettingChangesV3<long, geodeExecFunction28<(anonymous namespace)::ExecFuncUnique28>(geode::ModStateEvent*)::{lambda(long)#1}>(std::__ndk1::basic_string_view<char, std::__ndk1::char_traits<char> >, geodeExecFunction28<(anonymous namespace)::ExecFuncUnique28>(geode::ModStateEvent*)::{lambda(long)#1}&&, geode::Mod*)::{lambda(std::__ndk1::shared_ptr<geode::SettingV3>)#1}>, void (std::__ndk1::shared_ptr<geode::SettingV3>)>::operator()(std::__ndk1::shared_ptr<geode::SettingV3>&&)
PUBLIC 14314 0 std::__ndk1::__function::__func<geode::listenForSettingChangesV3<long, geodeExecFunction28<(anonymous namespace)::ExecFuncUnique28>(geode::ModStateEvent*)::{lambda(long)#1}>(std::__ndk1::basic_string_view<char, std::__ndk1::char_traits<char> >, geodeExecFunction28<(anonymous namespace)::ExecFuncUnique28>(geode::ModStateEvent*)::{lambda(long)#1}&&, geode::Mod*)::{lambda(std::__ndk1::shared_ptr<geode::SettingV3>)#1}, std::__ndk1::allocator<geode::listenForSettingChangesV3<long, geodeExecFunction28<(anonymous namespace)::ExecFuncUnique28>(geode::ModStateEvent*)::{lambda(long)#1}>(std::__ndk1::basic_string_view<char, std::__ndk1::char_traits<char> >, geodeExecFunction28<(anonymous namespace)::ExecFuncUnique28>(geode::ModStateEvent*)::{lambda(long)#1}&&, geode::Mod*)::{lambda(std::__ndk1::shared_ptr<geode::SettingV3>)#1}>, void (std::__ndk1::shared_ptr<geode::SettingV3>)>::target(std::type_info const&) const
PUBLIC 14330 0 std::__ndk1::__function::__func<geode::listenForSettingChangesV3<long, geodeExecFunction28<(anonymous namespace)::ExecFuncUnique28>(geode::ModStateEvent*)::{lambda(long)#1}>(std::__ndk1::basic_string_view<char, std::__ndk1::char_traits<char> >, geodeExecFunction28<(anonymous namespace)::ExecFuncUnique28>(geode::ModStateEvent*)::{lambda(long)#1}&&, geode::Mod*)::{lambda(std::__ndk1::shared_ptr<geode::SettingV3>)#1}, std::__ndk1::allocator<geode::listenForSettingChangesV3<long, geodeExecFunction28<(anonymous namespace)::ExecFuncUnique28>(geode::ModStateEvent*)::{lambda(long)#1}>(std::__ndk1::basic_string_view<char, std::__ndk1::char_traits<char> >, geodeExecFunction28<(anonymous namespace)::ExecFuncUnique28>(geode::ModStateEvent*)::{lambda(long)#1}&&, geode::Mod*)::{lambda(std::__ndk1::shared_ptr<geode::SettingV3>)#1}>, void (std::__ndk1::shared_ptr<geode::SettingV3>)>::target_type() const
PUBLIC 1433c 0 geode::EventListener<geode::SettingChangedFilterV3>::getPool() const
PUBLIC 14340 0 geode::EventListener<geode::SettingChangedFilterV3>::handle(geode::Event*)
PUBLIC 144a4 0 geode::EventListener<geode::SettingChangedFilterV3>::~EventListener()
PUBLIC 14540 0 geode::EventListener<geode::SettingChangedFilterV3>::~EventListener()
PUBLIC 145e4 0 std::__ndk1::__function::__func<geode::listenForSettingChangesV3<long, geodeExecFunction28<(anonymous namespace)::ExecFuncUnique28>(geode::ModStateEvent*)::{lambda(long)#2}>(std::__ndk1::basic_string_view<char, std::__ndk1::char_traits<char> >, geodeExecFunction28<(anonymous namespace)::ExecFuncUnique28>(geode::ModStateEvent*)::{lambda(long)#2}&&, geode::Mod*)::{lambda(std::__ndk1::shared_ptr<geode::SettingV3>)#1}, std::__ndk1::allocator<geode::listenForSettingChangesV3<long, geodeExecFunction28<(anonymous namespace)::ExecFuncUnique28>(geode::ModStateEvent*)::{lambda(long)#2}>(std::__ndk1::basic_string_view<char, std::__ndk1::char_traits<char> >, geodeExecFunction28<(anonymous namespace)::ExecFuncUnique28>(geode::ModStateEvent*)::{lambda(long)#2}&&, geode::Mod*)::{lambda(std::__ndk1::shared_ptr<geode::SettingV3>)#1}>, void (std::__ndk1::shared_ptr<geode::SettingV3>)>::~__func()
PUBLIC 145e8 0 std::__ndk1::__function::__func<geode::listenForSettingChangesV3<long, geodeExecFunction28<(anonymous namespace)::ExecFuncUnique28>(geode::ModStateEvent*)::{lambda(long)#2}>(std::__ndk1::basic_string_view<char, std::__ndk1::char_traits<char> >, geodeExecFunction28<(anonymous namespace)::ExecFuncUnique28>(geode::ModStateEvent*)::{lambda(long)#2}&&, geode::Mod*)::{lambda(std::__ndk1::shared_ptr<geode::SettingV3>)#1}, std::__ndk1::allocator<geode::listenForSettingChangesV3<long, geodeExecFunction28<(anonymous namespace)::ExecFuncUnique28>(geode::ModStateEvent*)::{lambda(long)#2}>(std::__ndk1::basic_string_view<char, std::__ndk1::char_traits<char> >, geodeExecFunction28<(anonymous namespace)::ExecFuncUnique28>(geode::ModStateEvent*)::{lambda(long)#2}&&, geode::Mod*)::{lambda(std::__ndk1::shared_ptr<geode::SettingV3>)#1}>, void (std::__ndk1::shared_ptr<geode::SettingV3>)>::__clone() const
PUBLIC 14620 0 std::__ndk1::__function::__func<geode::listenForSettingChangesV3<long, geodeExecFunction28<(anonymous namespace)::ExecFuncUnique28>(geode::ModStateEvent*)::{lambda(long)#2}>(std::__ndk1::basic_string_view<char, std::__ndk1::char_traits<char> >, geodeExecFunction28<(anonymous namespace)::ExecFuncUnique28>(geode::ModStateEvent*)::{lambda(long)#2}&&, geode::Mod*)::{lambda(std::__ndk1::shared_ptr<geode::SettingV3>)#1}, std::__ndk1::allocator<geode::listenForSettingChangesV3<long, geodeExecFunction28<(anonymous namespace)::ExecFuncUnique28>(geode::ModStateEvent*)::{lambda(long)#2}>(std::__ndk1::basic_string_view<char, std::__ndk1::char_traits<char> >, geodeExecFunction28<(anonymous namespace)::ExecFuncUnique28>(geode::ModStateEvent*)::{lambda(long)#2}&&, geode::Mod*)::{lambda(std::__ndk1::shared_ptr<geode::SettingV3>)#1}>, void (std::__ndk1::shared_ptr<geode::SettingV3>)>::__clone(std::__ndk1::__function::__base<void (std::__ndk1::shared_ptr<geode::SettingV3>)>*) const
PUBLIC 14638 0 std::__ndk1::__function::__func<geode::listenForSettingChangesV3<long, geodeExecFunction28<(anonymous namespace)::ExecFuncUnique28>(geode::ModStateEvent*)::{lambda(long)#2}>(std::__ndk1::basic_string_view<char, std::__ndk1::char_traits<char> >, geodeExecFunction28<(anonymous namespace)::ExecFuncUnique28>(geode::ModStateEvent*)::{lambda(long)#2}&&, geode::Mod*)::{lambda(std::__ndk1::shared_ptr<geode::SettingV3>)#1}, std::__ndk1::allocator<geode::listenForSettingChangesV3<long, geodeExecFunction28<(anonymous namespace)::ExecFuncUnique28>(geode::ModStateEvent*)::{lambda(long)#2}>(std::__ndk1::basic_string_view<char, std::__ndk1::char_traits<char> >, geodeExecFunction28<(anonymous namespace)::ExecFuncUnique28>(geode::ModStateEvent*)::{lambda(long)#2}&&, geode::Mod*)::{lambda(std::__ndk1::shared_ptr<geode::SettingV3>)#1}>, void (std::__ndk1::shared_ptr<geode::SettingV3>)>::destroy()
PUBLIC 1463c 0 std::__ndk1::__function::__func<geode::listenForSettingChangesV3<long, geodeExecFunction28<(anonymous namespace)::ExecFuncUnique28>(geode::ModStateEvent*)::{lambda(long)#2}>(std::__ndk1::basic_string_view<char, std::__ndk1::char_traits<char> >, geodeExecFunction28<(anonymous namespace)::ExecFuncUnique28>(geode::ModStateEvent*)::{lambda(long)#2}&&, geode::Mod*)::{lambda(std::__ndk1::shared_ptr<geode::SettingV3>)#1}, std::__ndk1::allocator<geode::listenForSettingChangesV3<long, geodeExecFunction28<(anonymous namespace)::ExecFuncUnique28>(geode::ModStateEvent*)::{lambda(long)#2}>(std::__ndk1::basic_string_view<char, std::__ndk1::char_traits<char> >, geodeExecFunction28<(anonymous namespace)::ExecFuncUnique28>(geode::ModStateEvent*)::{lambda(long)#2}&&, geode::Mod*)::{lambda(std::__ndk1::shared_ptr<geode::SettingV3>)#1}>, void (std::__ndk1::shared_ptr<geode::SettingV3>)>::destroy_deallocate()
PUBLIC 14640 0 std::__ndk1::__function::__func<geode::listenForSettingChangesV3<long, geodeExecFunction28<(anonymous namespace)::ExecFuncUnique28>(geode::ModStateEvent*)::{lambda(long)#2}>(std::__ndk1::basic_string_view<char, std::__ndk1::char_traits<char> >, geodeExecFunction28<(anonymous namespace)::ExecFuncUnique28>(geode::ModStateEvent*)::{lambda(long)#2}&&, geode::Mod*)::{lambda(std::__ndk1::shared_ptr<geode::SettingV3>)#1}, std::__ndk1::allocator<geode::listenForSettingChangesV3<long, geodeExecFunction28<(anonymous namespace)::ExecFuncUnique28>(geode::ModStateEvent*)::{lambda(long)#2}>(std::__ndk1::basic_string_view<char, std::__ndk1::char_traits<char> >, geodeExecFunction28<(anonymous namespace)::ExecFuncUnique28>(geode::ModStateEvent*)::{lambda(long)#2}&&, geode::Mod*)::{lambda(std::__ndk1::shared_ptr<geode::SettingV3>)#1}>, void (std::__ndk1::shared_ptr<geode::SettingV3>)>::operator()(std::__ndk1::shared_ptr<geode::SettingV3>&&)
PUBLIC 14848 0 std::__ndk1::__function::__func<geode::listenForSettingChangesV3<long, geodeExecFunction28<(anonymous namespace)::ExecFuncUnique28>(geode::ModStateEvent*)::{lambda(long)#2}>(std::__ndk1::basic_string_view<char, std::__ndk1::char_traits<char> >, geodeExecFunction28<(anonymous namespace)::ExecFuncUnique28>(geode::ModStateEvent*)::{lambda(long)#2}&&, geode::Mod*)::{lambda(std::__ndk1::shared_ptr<geode::SettingV3>)#1}, std::__ndk1::allocator<geode::listenForSettingChangesV3<long, geodeExecFunction28<(anonymous namespace)::ExecFuncUnique28>(geode::ModStateEvent*)::{lambda(long)#2}>(std::__ndk1::basic_string_view<char, std::__ndk1::char_traits<char> >, geodeExecFunction28<(anonymous namespace)::ExecFuncUnique28>(geode::ModStateEvent*)::{lambda(long)#2}&&, geode::Mod*)::{lambda(std::__ndk1::shared_ptr<geode::SettingV3>)#1}>, void (std::__ndk1::shared_ptr<geode::SettingV3>)>::target(std::type_info const&) const
PUBLIC 14864 0 std::__ndk1::__function::__func<geode::listenForSettingChangesV3<long, geodeExecFunction28<(anonymous namespace)::ExecFuncUnique28>(geode::ModStateEvent*)::{lambda(long)#2}>(std::__ndk1::basic_string_view<char, std::__ndk1::char_traits<char> >, geodeExecFunction28<(anonymous namespace)::ExecFuncUnique28>(geode::ModStateEvent*)::{lambda(long)#2}&&, geode::Mod*)::{lambda(std::__ndk1::shared_ptr<geode::SettingV3>)#1}, std::__ndk1::allocator<geode::listenForSettingChangesV3<long, geodeExecFunction28<(anonymous namespace)::ExecFuncUnique28>(geode::ModStateEvent*)::{lambda(long)#2}>(std::__ndk1::basic_string_view<char, std::__ndk1::char_traits<char> >, geodeExecFunction28<(anonymous namespace)::ExecFuncUnique28>(geode::ModStateEvent*)::{lambda(long)#2}&&, geode::Mod*)::{lambda(std::__ndk1::shared_ptr<geode::SettingV3>)#1}>, void (std::__ndk1::shared_ptr<geode::SettingV3>)>::target_type() const
PUBLIC 14870 0 geode::Mod::getSettingValue<double>(std::__ndk1::basic_string_view<char, std::__ndk1::char_traits<char> >) const
PUBLIC 149a8 0 std::__ndk1::shared_ptr<geode::FloatSettingV3>::~shared_ptr[abi:ne180000]()
PUBLIC 149f8 0 std::__ndk1::__function::__base<void (std::__ndk1::shared_ptr<geode::SettingV3>)>::~__base()
PUBLIC 149fc 0 std::__ndk1::__function::__func<geode::listenForSettingChangesV3<double, geodeExecFunction28<(anonymous namespace)::ExecFuncUnique28>(geode::ModStateEvent*)::{lambda(double)#1}>(std::__ndk1::basic_string_view<char, std::__ndk1::char_traits<char> >, geodeExecFunction28<(anonymous namespace)::ExecFuncUnique28>(geode::ModStateEvent*)::{lambda(double)#1}&&, geode::Mod*)::{lambda(std::__ndk1::shared_ptr<geode::SettingV3>)#1}, std::__ndk1::allocator<geode::listenForSettingChangesV3<double, geodeExecFunction28<(anonymous namespace)::ExecFuncUnique28>(geode::ModStateEvent*)::{lambda(double)#1}>(std::__ndk1::basic_string_view<char, std::__ndk1::char_traits<char> >, geodeExecFunction28<(anonymous namespace)::ExecFuncUnique28>(geode::ModStateEvent*)::{lambda(double)#1}&&, geode::Mod*)::{lambda(std::__ndk1::shared_ptr<geode::SettingV3>)#1}>, void (std::__ndk1::shared_ptr<geode::SettingV3>)>::~__func()
PUBLIC 14a00 0 std::__ndk1::__function::__func<geode::listenForSettingChangesV3<double, geodeExecFunction28<(anonymous namespace)::ExecFuncUnique28>(geode::ModStateEvent*)::{lambda(double)#1}>(std::__ndk1::basic_string_view<char, std::__ndk1::char_traits<char> >, geodeExecFunction28<(anonymous namespace)::ExecFuncUnique28>(geode::ModStateEvent*)::{lambda(double)#1}&&, geode::Mod*)::{lambda(std::__ndk1::shared_ptr<geode::SettingV3>)#1}, std::__ndk1::allocator<geode::listenForSettingChangesV3<double, geodeExecFunction28<(anonymous namespace)::ExecFuncUnique28>(geode::ModStateEvent*)::{lambda(double)#1}>(std::__ndk1::basic_string_view<char, std::__ndk1::char_traits<char> >, geodeExecFunction28<(anonymous namespace)::ExecFuncUnique28>(geode::ModStateEvent*)::{lambda(double)#1}&&, geode::Mod*)::{lambda(std::__ndk1::shared_ptr<geode::SettingV3>)#1}>, void (std::__ndk1::shared_ptr<geode::SettingV3>)>::__clone() const
PUBLIC 14a38 0 std::__ndk1::__function::__func<geode::listenForSettingChangesV3<double, geodeExecFunction28<(anonymous namespace)::ExecFuncUnique28>(geode::ModStateEvent*)::{lambda(double)#1}>(std::__ndk1::basic_string_view<char, std::__ndk1::char_traits<char> >, geodeExecFunction28<(anonymous namespace)::ExecFuncUnique28>(geode::ModStateEvent*)::{lambda(double)#1}&&, geode::Mod*)::{lambda(std::__ndk1::shared_ptr<geode::SettingV3>)#1}, std::__ndk1::allocator<geode::listenForSettingChangesV3<double, geodeExecFunction28<(anonymous namespace)::ExecFuncUnique28>(geode::ModStateEvent*)::{lambda(double)#1}>(std::__ndk1::basic_string_view<char, std::__ndk1::char_traits<char> >, geodeExecFunction28<(anonymous namespace)::ExecFuncUnique28>(geode::ModStateEvent*)::{lambda(double)#1}&&, geode::Mod*)::{lambda(std::__ndk1::shared_ptr<geode::SettingV3>)#1}>, void (std::__ndk1::shared_ptr<geode::SettingV3>)>::__clone(std::__ndk1::__function::__base<void (std::__ndk1::shared_ptr<geode::SettingV3>)>*) const
PUBLIC 14a50 0 std::__ndk1::__function::__func<geode::listenForSettingChangesV3<double, geodeExecFunction28<(anonymous namespace)::ExecFuncUnique28>(geode::ModStateEvent*)::{lambda(double)#1}>(std::__ndk1::basic_string_view<char, std::__ndk1::char_traits<char> >, geodeExecFunction28<(anonymous namespace)::ExecFuncUnique28>(geode::ModStateEvent*)::{lambda(double)#1}&&, geode::Mod*)::{lambda(std::__ndk1::shared_ptr<geode::SettingV3>)#1}, std::__ndk1::allocator<geode::listenForSettingChangesV3<double, geodeExecFunction28<(anonymous namespace)::ExecFuncUnique28>(geode::ModStateEvent*)::{lambda(double)#1}>(std::__ndk1::basic_string_view<char, std::__ndk1::char_traits<char> >, geodeExecFunction28<(anonymous namespace)::ExecFuncUnique28>(geode::ModStateEvent*)::{lambda(double)#1}&&, geode::Mod*)::{lambda(std::__ndk1::shared_ptr<geode::SettingV3>)#1}>, void (std::__ndk1::shared_ptr<geode::SettingV3>)>::destroy()
PUBLIC 14a54 0 std::__ndk1::__function::__func<geode::listenForSettingChangesV3<double, geodeExecFunction28<(anonymous namespace)::ExecFuncUnique28>(geode::ModStateEvent*)::{lambda(double)#1}>(std::__ndk1::basic_string_view<char, std::__ndk1::char_traits<char> >, geodeExecFunction28<(anonymous namespace)::ExecFuncUnique28>(geode::ModStateEvent*)::{lambda(double)#1}&&, geode::Mod*)::{lambda(std::__ndk1::shared_ptr<geode::SettingV3>)#1}, std::__ndk1::allocator<geode::listenForSettingChangesV3<double, geodeExecFunction28<(anonymous namespace)::ExecFuncUnique28>(geode::ModStateEvent*)::{lambda(double)#1}>(std::__ndk1::basic_string_view<char, std::__ndk1::char_traits<char> >, geodeExecFunction28<(anonymous namespace)::ExecFuncUnique28>(geode::ModStateEvent*)::{lambda(double)#1}&&, geode::Mod*)::{lambda(std::__ndk1::shared_ptr<geode::SettingV3>)#1}>, void (std::__ndk1::shared_ptr<geode::SettingV3>)>::destroy_deallocate()
PUBLIC 14a58 0 std::__ndk1::__function::__func<geode::listenForSettingChangesV3<double, geodeExecFunction28<(anonymous namespace)::ExecFuncUnique28>(geode::ModStateEvent*)::{lambda(double)#1}>(std::__ndk1::basic_string_view<char, std::__ndk1::char_traits<char> >, geodeExecFunction28<(anonymous namespace)::ExecFuncUnique28>(geode::ModStateEvent*)::{lambda(double)#1}&&, geode::Mod*)::{lambda(std::__ndk1::shared_ptr<geode::SettingV3>)#1}, std::__ndk1::allocator<geode::listenForSettingChangesV3<double, geodeExecFunction28<(anonymous namespace)::ExecFuncUnique28>(geode::ModStateEvent*)::{lambda(double)#1}>(std::__ndk1::basic_string_view<char, std::__ndk1::char_traits<char> >, geodeExecFunction28<(anonymous namespace)::ExecFuncUnique28>(geode::ModStateEvent*)::{lambda(double)#1}&&, geode::Mod*)::{lambda(std::__ndk1::shared_ptr<geode::SettingV3>)#1}>, void (std::__ndk1::shared_ptr<geode::SettingV3>)>::operator()(std::__ndk1::shared_ptr<geode::SettingV3>&&)
PUBLIC 14c6c 0 std::__ndk1::__function::__func<geode::listenForSettingChangesV3<double, geodeExecFunction28<(anonymous namespace)::ExecFuncUnique28>(geode::ModStateEvent*)::{lambda(double)#1}>(std::__ndk1::basic_string_view<char, std::__ndk1::char_traits<char> >, geodeExecFunction28<(anonymous namespace)::ExecFuncUnique28>(geode::ModStateEvent*)::{lambda(double)#1}&&, geode::Mod*)::{lambda(std::__ndk1::shared_ptr<geode::SettingV3>)#1}, std::__ndk1::allocator<geode::listenForSettingChangesV3<double, geodeExecFunction28<(anonymous namespace)::ExecFuncUnique28>(geode::ModStateEvent*)::{lambda(double)#1}>(std::__ndk1::basic_string_view<char, std::__ndk1::char_traits<char> >, geodeExecFunction28<(anonymous namespace)::ExecFuncUnique28>(geode::ModStateEvent*)::{lambda(double)#1}&&, geode::Mod*)::{lambda(std::__ndk1::shared_ptr<geode::SettingV3>)#1}>, void (std::__ndk1::shared_ptr<geode::SettingV3>)>::target(std::type_info const&) const
PUBLIC 14c88 0 std::__ndk1::__function::__func<geode::listenForSettingChangesV3<double, geodeExecFunction28<(anonymous namespace)::ExecFuncUnique28>(geode::ModStateEvent*)::{lambda(double)#1}>(std::__ndk1::basic_string_view<char, std::__ndk1::char_traits<char> >, geodeExecFunction28<(anonymous namespace)::ExecFuncUnique28>(geode::ModStateEvent*)::{lambda(double)#1}&&, geode::Mod*)::{lambda(std::__ndk1::shared_ptr<geode::SettingV3>)#1}, std::__ndk1::allocator<geode::listenForSettingChangesV3<double, geodeExecFunction28<(anonymous namespace)::ExecFuncUnique28>(geode::ModStateEvent*)::{lambda(double)#1}>(std::__ndk1::basic_string_view<char, std::__ndk1::char_traits<char> >, geodeExecFunction28<(anonymous namespace)::ExecFuncUnique28>(geode::ModStateEvent*)::{lambda(double)#1}&&, geode::Mod*)::{lambda(std::__ndk1::shared_ptr<geode::SettingV3>)#1}>, void (std::__ndk1::shared_ptr<geode::SettingV3>)>::target_type() const
PUBLIC 14c94 0 geode::EventListener<geode::ModStateFilter>::getPool() const
PUBLIC 14c98 0 geode::EventListener<geode::ModStateFilter>::handle(geode::Event*)
PUBLIC 14dfc 0 geode::EventListener<geode::ModStateFilter>::~EventListener()
PUBLIC 14e58 0 geode::EventListener<geode::ModStateFilter>::~EventListener()
PUBLIC 14ebc 0 std::__ndk1::__function::__base<void (geode::ModStateEvent*)>::~__base()
PUBLIC 14ec0 0 std::__ndk1::__function::__func<void (*)(geode::ModStateEvent*), std::__ndk1::allocator<void (*)(geode::ModStateEvent*)>, void (geode::ModStateEvent*)>::~__func()
PUBLIC 14ec4 0 std::__ndk1::__function::__func<void (*)(geode::ModStateEvent*), std::__ndk1::allocator<void (*)(geode::ModStateEvent*)>, void (geode::ModStateEvent*)>::__clone() const
PUBLIC 14ef8 0 std::__ndk1::__function::__func<void (*)(geode::ModStateEvent*), std::__ndk1::allocator<void (*)(geode::ModStateEvent*)>, void (geode::ModStateEvent*)>::__clone(std::__ndk1::__function::__base<void (geode::ModStateEvent*)>*) const
PUBLIC 14f0c 0 std::__ndk1::__function::__func<void (*)(geode::ModStateEvent*), std::__ndk1::allocator<void (*)(geode::ModStateEvent*)>, void (geode::ModStateEvent*)>::destroy()
PUBLIC 14f10 0 std::__ndk1::__function::__func<void (*)(geode::ModStateEvent*), std::__ndk1::allocator<void (*)(geode::ModStateEvent*)>, void (geode::ModStateEvent*)>::destroy_deallocate()
PUBLIC 14f14 0 std::__ndk1::__function::__func<void (*)(geode::ModStateEvent*), std::__ndk1::allocator<void (*)(geode::ModStateEvent*)>, void (geode::ModStateEvent*)>::operator()(geode::ModStateEvent*&&)
PUBLIC 14f24 0 std::__ndk1::__function::__func<void (*)(geode::ModStateEvent*), std::__ndk1::allocator<void (*)(geode::ModStateEvent*)>, void (geode::ModStateEvent*)>::target(std::type_info const&) const
PUBLIC 14f40 0 std::__ndk1::__function::__func<void (*)(geode::ModStateEvent*), std::__ndk1::allocator<void (*)(geode::ModStateEvent*)>, void (geode::ModStateEvent*)>::target_type() const
PUBLIC 14f4c 0 geode::modifier::ModifyDerive<MyPauseLayer, PauseLayer>::apply()
PUBLIC 16220 0 std::__ndk1::shared_ptr<geode::Hook>::~shared_ptr[abi:ne180000]()
PUBLIC 16270 0 geode::impl::ResultData<geode::Hook*, std::__ndk1::basic_string<char, std::__ndk1::char_traits<char>, std::__ndk1::allocator<char> > >::~ResultData()
PUBLIC 162e4 0 std::__ndk1::vector<std::__ndk1::basic_string<char, std::__ndk1::char_traits<char>, std::__ndk1::allocator<char> >, std::__ndk1::allocator<std::__ndk1::basic_string<char, std::__ndk1::char_traits<char>, std::__ndk1::allocator<char> > > >::~vector[abi:ne180000]()
PUBLIC 16360 0 geode::modifier::ModifyBase<geode::modifier::ModifyDerive<MyPauseLayer, PauseLayer> >::apply()
PUBLIC 16364 0 _ZN5geode15UnwrapExceptionC2IRPNS_4HookEQsr4implE18IsStringStreamableIT_EEENS_4impl5OkTagEOS5_
PUBLIC 164b8 0 std::__ndk1::basic_stringstream<char, std::__ndk1::char_traits<char>, std::__ndk1::allocator<char> >::basic_stringstream[abi:ne180000]()
PUBLIC m 165e4 0 std::__ndk1::basic_stringstream<char, std::__ndk1::char_traits<char>, std::__ndk1::allocator<char> >::~basic_stringstream()
PUBLIC 16664 0 std::__ndk1::__put_character_sequence[abi:ne180000]<char, std::__ndk1::char_traits<char> >(std::__ndk1::basic_ostream<char, std::__ndk1::char_traits<char> >, std::__ndk1::basic_ostream const*, unsigned long)
PUBLIC 16808 0 std::__ndk1::__pad_and_output[abi:ne180000]<char, std::__ndk1::char_traits<char> >(std::__ndk1::char_traits<char>, std::__ndk1::ostreambuf_iterator const*, std::__ndk1::ostreambuf_iterator const, std::__ndk1::ostreambuf_iterator const, std::__ndk1::ios_base&, std::__ndk1::ostreambuf_iterator)
PUBLIC 169e4 0 std::__ndk1::basic_stringbuf<char, std::__ndk1::char_traits<char>, std::__ndk1::allocator<char> >::str[abi:ne180000]() &&
PUBLIC 16b5c 0 std::__ndk1::basic_stringbuf<char, std::__ndk1::char_traits<char>, std::__ndk1::allocator<char> >::__init_buf_ptrs[abi:ne180000]()
PUBLIC 16ca4 0 std::__ndk1::vector<std::__ndk1::basic_string<char, std::__ndk1::char_traits<char>, std::__ndk1::allocator<char> >, std::__ndk1::allocator<std::__ndk1::basic_string<char, std::__ndk1::char_traits<char>, std::__ndk1::allocator<char> > > >::__push_back_slow_path<std::__ndk1::basic_string<char, std::__ndk1::char_traits<char>, std::__ndk1::allocator<char> > const&>(std::__ndk1::basic_string<char, std::__ndk1::char_traits<char>, std::__ndk1::allocator<char> > const&)
PUBLIC 16ec8 0 std::__ndk1::__split_buffer<std::__ndk1::basic_string<char, std::__ndk1::char_traits<char>, std::__ndk1::allocator<char> >, std::__ndk1::allocator<std::__ndk1::basic_string<char, std::__ndk1::char_traits<char>, std::__ndk1::allocator<char> > >&>::~__split_buffer()
PUBLIC 16f30 0 std::__ndk1::vector<std::__ndk1::basic_string<char, std::__ndk1::char_traits<char>, std::__ndk1::allocator<char> >, std::__ndk1::allocator<std::__ndk1::basic_string<char, std::__ndk1::char_traits<char>, std::__ndk1::allocator<char> > > >::__throw_length_error[abi:ne180000]() const
PUBLIC 16f44 0 std::__ndk1::__variant_detail::__visitation::__base::__dispatcher<(unsigned long)0>::__dispatch[abi:ne180000]<std::__ndk1::__variant_detail::__dtor<std::__ndk1::__variant_detail::__traits<geode::Hook*, std::__ndk1::basic_string<char, std::__ndk1::char_traits<char>, std::__ndk1::allocator<char> > >, (std::__ndk1::__variant_detail::_Trait)1>::__destroy[abi:ne180000]()::{lambda(auto:1&)#1}, std::__ndk1::__variant_detail::__base<(std::__ndk1::__variant_detail::__traits<geode::Hook*, std::__ndk1::basic_string<char, std::__ndk1::char_traits<char>, std::__ndk1::allocator<char> > >)1, geode::Hook, std::__ndk1::allocator<char> >&>(std::__ndk1::__variant_detail::__dtor<std::__ndk1::__variant_detail::__traits<geode::Hook*, std::__ndk1::basic_string<char, std::__ndk1::char_traits<char>, std::__ndk1::allocator<char> > >, (std::__ndk1::__variant_detail::_Trait)1>, std::__ndk1::__variant_detail::__base<(std::__ndk1::__variant_detail::__traits<geode::Hook*, std::__ndk1::basic_string<char, std::__ndk1::char_traits<char>, std::__ndk1::allocator<char> > >)1, geode::Hook, std::__ndk1::allocator<char> >&)
PUBLIC 16f48 0 std::__ndk1::__variant_detail::__visitation::__base::__dispatcher<(unsigned long)1>::__dispatch[abi:ne180000]<std::__ndk1::__variant_detail::__dtor<std::__ndk1::__variant_detail::__traits<geode::Hook*, std::__ndk1::basic_string<char, std::__ndk1::char_traits<char>, std::__ndk1::allocator<char> > >, (std::__ndk1::__variant_detail::_Trait)1>::__destroy[abi:ne180000]()::{lambda(auto:1&)#1}, std::__ndk1::__variant_detail::__base<(std::__ndk1::__variant_detail::__traits<geode::Hook*, std::__ndk1::basic_string<char, std::__ndk1::char_traits<char>, std::__ndk1::allocator<char> > >)1, geode::Hook, std::__ndk1::allocator<char> >&>(std::__ndk1::__variant_detail::__dtor<std::__ndk1::__variant_detail::__traits<geode::Hook*, std::__ndk1::basic_string<char, std::__ndk1::char_traits<char>, std::__ndk1::allocator<char> > >, (std::__ndk1::__variant_detail::_Trait)1>, std::__ndk1::__variant_detail::__base<(std::__ndk1::__variant_detail::__traits<geode::Hook*, std::__ndk1::basic_string<char, std::__ndk1::char_traits<char>, std::__ndk1::allocator<char> > >)1, geode::Hook, std::__ndk1::allocator<char> >&)
PUBLIC 16f5c 0 std::__ndk1::__tree<std::__ndk1::__value_type<std::__ndk1::basic_string<char, std::__ndk1::char_traits<char>, std::__ndk1::allocator<char> >, std::__ndk1::shared_ptr<geode::Hook> >, std::__ndk1::__map_value_compare<std::__ndk1::basic_string<char, std::__ndk1::char_traits<char>, std::__ndk1::allocator<char> >, std::__ndk1::__value_type<std::__ndk1::basic_string<char, std::__ndk1::char_traits<char>, std::__ndk1::allocator<char> >, std::__ndk1::shared_ptr<geode::Hook> >, std::__ndk1::less<std::__ndk1::basic_string<char, std::__ndk1::char_traits<char>, std::__ndk1::allocator<char> > >, true>, std::__ndk1::allocator<std::__ndk1::__value_type<std::__ndk1::basic_string<char, std::__ndk1::char_traits<char>, std::__ndk1::allocator<char> >, std::__ndk1::shared_ptr<geode::Hook> > > >::destroy(std::__ndk1::__tree_node<std::__ndk1::__value_type<std::__ndk1::basic_string<char, std::__ndk1::char_traits<char>, std::__ndk1::allocator<char> >, std::__ndk1::shared_ptr<geode::Hook> >, void*>*)
PUBLIC 16fe0 0 geode::modifier::AsStaticFunction_keyDown<MyPauseLayer, void (MyPauseLayer::*)(cocos2d::enumKeyCodes)>::Impl<void (MyPauseLayer::*)(cocos2d::enumKeyCodes)>::function(MyPauseLayer*, cocos2d::enumKeyCodes)
PUBLIC 1708c 0 geode::modifier::AsStaticFunction_customSetup<MyPauseLayer, void (MyPauseLayer::*)()>::Impl<void (MyPauseLayer::*)()>::function(MyPauseLayer*)
PUBLIC 17f30 0 geode::Hook::create<void (*)(MyPauseLayer*, cocos2d::CCObject*)>(void*, void (*)(MyPauseLayer*, cocos2d::CCObject*), std::__ndk1::basic_string<char, std::__ndk1::char_traits<char>, std::__ndk1::allocator<char> > const&, tulip::hook::TulipConvention, tulip::hook::HookMetadata const&)
PUBLIC 180b4 0 geode::modifier::AsStaticFunction_onEdit<MyPauseLayer, void (MyPauseLayer::*)(cocos2d::CCObject*)>::Impl<void (MyPauseLayer::*)(cocos2d::CCObject*)>::function(MyPauseLayer*, cocos2d::CCObject*)
PUBLIC 18158 0 geode::modifier::AsStaticFunction_onNormalMode<MyPauseLayer, void (MyPauseLayer::*)(cocos2d::CCObject*)>::Impl<void (MyPauseLayer::*)(cocos2d::CCObject*)>::function(MyPauseLayer*, cocos2d::CCObject*)
PUBLIC 181fc 0 geode::modifier::AsStaticFunction_onPracticeMode<MyPauseLayer, void (MyPauseLayer::*)(cocos2d::CCObject*)>::Impl<void (MyPauseLayer::*)(cocos2d::CCObject*)>::function(MyPauseLayer*, cocos2d::CCObject*)
PUBLIC 182a0 0 geode::modifier::AsStaticFunction_onQuit<MyPauseLayer, void (MyPauseLayer::*)(cocos2d::CCObject*)>::Impl<void (MyPauseLayer::*)(cocos2d::CCObject*)>::function(MyPauseLayer*, cocos2d::CCObject*)
PUBLIC 18344 0 geode::modifier::AsStaticFunction_onRestart<MyPauseLayer, void (MyPauseLayer::*)(cocos2d::CCObject*)>::Impl<void (MyPauseLayer::*)(cocos2d::CCObject*)>::function(MyPauseLayer*, cocos2d::CCObject*)
PUBLIC 183e8 0 geode::modifier::AsStaticFunction_onRestartFull<MyPauseLayer, void (MyPauseLayer::*)(cocos2d::CCObject*)>::Impl<void (MyPauseLayer::*)(cocos2d::CCObject*)>::function(MyPauseLayer*, cocos2d::CCObject*)
PUBLIC 1848c 0 geode::modifier::AsStaticFunction_onResume<MyPauseLayer, void (MyPauseLayer::*)(cocos2d::CCObject*)>::Impl<void (MyPauseLayer::*)(cocos2d::CCObject*)>::function(MyPauseLayer*, cocos2d::CCObject*)
PUBLIC 18530 0 geode::addresser::Addresser::addressOfVirtual<void, PauseLayer, cocos2d::enumKeyCodes>(void (PauseLayer::*)(cocos2d::enumKeyCodes))
PUBLIC 185d8 0 PauseLayer::PauseLayer(geode::ZeroConstructorType)
PUBLIC 18664 0 std::__ndk1::shared_ptr<tulip::hook::CallingConvention>::~shared_ptr[abi:ne180000]()
PUBLIC 186b4 0 tulip::hook::HandlerMetadata::~HandlerMetadata()
PUBLIC 18718 0 std::__ndk1::__tree<std::__ndk1::__value_type<std::__ndk1::basic_string<char, std::__ndk1::char_traits<char>, std::__ndk1::allocator<char> >, std::__ndk1::shared_ptr<geode::Hook> >, std::__ndk1::__map_value_compare<std::__ndk1::basic_string<char, std::__ndk1::char_traits<char>, std::__ndk1::allocator<char> >, std::__ndk1::__value_type<std::__ndk1::basic_string<char, std::__ndk1::char_traits<char>, std::__ndk1::allocator<char> >, std::__ndk1::shared_ptr<geode::Hook> >, std::__ndk1::less<std::__ndk1::basic_string<char, std::__ndk1::char_traits<char>, std::__ndk1::allocator<char> > >, true>, std::__ndk1::allocator<std::__ndk1::__value_type<std::__ndk1::basic_string<char, std::__ndk1::char_traits<char>, std::__ndk1::allocator<char> >, std::__ndk1::shared_ptr<geode::Hook> > > >::__emplace_unique_key_args<std::__ndk1::basic_string<char, std::__ndk1::char_traits<char>, std::__ndk1::allocator<char> >, std::__ndk1::piecewise_construct_t const&, std::__ndk1::tuple<std::__ndk1::basic_string<char, std::__ndk1::char_traits<char>, std::__ndk1::allocator<char> >&&>, std::__ndk1::tuple<> >(std::__ndk1::basic_string<char, std::__ndk1::char_traits<char>, std::__ndk1::allocator<char> > const&, std::__ndk1::piecewise_construct_t const&, std::__ndk1::tuple<std::__ndk1::basic_string<char, std::__ndk1::char_traits<char>, std::__ndk1::allocator<char> >&&>, std::__ndk1::tuple<>)
PUBLIC 18880 0 std::__ndk1::__tree_balance_after_insert[abi:ne180000]<std::__ndk1::__tree_node_base<void*>*>(std::__ndk1::__tree_node_base<void*>*, std::__ndk1::__tree_node_base<void*>*)
PUBLIC 18a30 0 geode::addresser::Addresser::addressOfVirtual<void, PauseLayer, >(void (PauseLayer::*)())
PUBLIC 18ad8 0 geode::Mod::getSettingValue<bool>(std::__ndk1::basic_string_view<char, std::__ndk1::char_traits<char> >) const
PUBLIC 18c08 0 MyPauseLayer::onModSettings(cocos2d::CCObject*)
PUBLIC 18c44 0 std::__ndk1::__fs::filesystem::directory_iterator::~directory_iterator[abi:ne180000]()
PUBLIC 18c94 0 std::__ndk1::shared_ptr<geode::FileSettingV3>::~shared_ptr[abi:ne180000]()
PUBLIC 18ce4 0 std::__ndk1::basic_string<char, std::__ndk1::char_traits<char>, std::__ndk1::allocator<char> >::__assign_no_alias<true>(char const*, unsigned long)
PUBLIC 18d90 0 std::__ndk1::basic_string<char, std::__ndk1::char_traits<char>, std::__ndk1::allocator<char> >::__assign_no_alias<false>(char const*, unsigned long)
PUBLIC 18ea0 0 _GLOBAL__sub_I_PauseLayer.cpp
PUBLIC m 18fcc 0 geodeImplicitEntry
PUBLIC 19008 0 std::__ndk1::unordered_map<void*, bool, std::__ndk1::hash<void*>, std::__ndk1::equal_to<void*>, std::__ndk1::allocator<std::__ndk1::pair<void* const, bool> > >::~unordered_map[abi:ne180000]()
PUBLIC 19054 0 wrapFunction(unsigned long, tulip::hook::WrapperMetadata const&)
PUBLIC 19188 0 geode::impl::ResultData<void*, std::__ndk1::basic_string<char, std::__ndk1::char_traits<char>, std::__ndk1::allocator<char> > >::unwrapErr() &
PUBLIC 19200 0 geode::impl::ResultData<void*, std::__ndk1::basic_string<char, std::__ndk1::char_traits<char>, std::__ndk1::allocator<char> > >::~ResultData()
PUBLIC 19274 0 tulip::hook::WrapperMetadata::~WrapperMetadata()
PUBLIC 192d8 0 cocos2d::CCObject::~CCObject()
PUBLIC 192fc 0 cocos2d::CCNode::CCNode()
PUBLIC 19558 0 cocos2d::CCNode::~CCNode()
PUBLIC 1957c 0 cocos2d::CCObject::update(float)
PUBLIC 19580 0 cocos2d::CCNode::~CCNode()
PUBLIC 19820 0 cocos2d::CCObject::~CCObject()
PUBLIC 19d14 0 _ZN5geode15UnwrapExceptionC2IRPvQsr4implE18IsStringStreamableIT_EEENS_4impl5OkTagEOS4_
PUBLIC 19e68 0 _ZN5geode15UnwrapExceptionC2IRNSt6__ndk112basic_stringIcNS2_11char_traitsIcEENS2_9allocatorIcEEEEQsr4implE18IsStringStreamableIT_EEENS_4impl6ErrTagEOSA_
PUBLIC 19fd0 0 std::__ndk1::__variant_detail::__visitation::__base::__dispatcher<(unsigned long)0>::__dispatch[abi:ne180000]<std::__ndk1::__variant_detail::__dtor<std::__ndk1::__variant_detail::__traits<void*, std::__ndk1::basic_string<char, std::__ndk1::char_traits<char>, std::__ndk1::allocator<char> > >, (std::__ndk1::__variant_detail::_Trait)1>::__destroy[abi:ne180000]()::{lambda(auto:1&)#1}, std::__ndk1::__variant_detail::__base<(std::__ndk1::__variant_detail::__traits<void*, std::__ndk1::basic_string<char, std::__ndk1::char_traits<char>, std::__ndk1::allocator<char> > >)1, std::__ndk1::__variant_detail::__traits, std::__ndk1::allocator<char> >&>(std::__ndk1::__variant_detail::__dtor<std::__ndk1::__variant_detail::__traits<void*, std::__ndk1::basic_string<char, std::__ndk1::char_traits<char>, std::__ndk1::allocator<char> > >, (std::__ndk1::__variant_detail::_Trait)1>, std::__ndk1::__variant_detail::__base<(std::__ndk1::__variant_detail::__traits<void*, std::__ndk1::basic_string<char, std::__ndk1::char_traits<char>, std::__ndk1::allocator<char> > >)1, std::__ndk1::__variant_detail::__traits, std::__ndk1::allocator<char> >&)
PUBLIC 19fd4 0 std::__ndk1::__variant_detail::__visitation::__base::__dispatcher<(unsigned long)1>::__dispatch[abi:ne180000]<std::__ndk1::__variant_detail::__dtor<std::__ndk1::__variant_detail::__traits<void*, std::__ndk1::basic_string<char, std::__ndk1::char_traits<char>, std::__ndk1::allocator<char> > >, (std::__ndk1::__variant_detail::_Trait)1>::__destroy[abi:ne180000]()::{lambda(auto:1&)#1}, std::__ndk1::__variant_detail::__base<(std::__ndk1::__variant_detail::__traits<void*, std::__ndk1::basic_string<char, std::__ndk1::char_traits<char>, std::__ndk1::allocator<char> > >)1, std::__ndk1::__variant_detail::__traits, std::__ndk1::allocator<char> >&>(std::__ndk1::__variant_detail::__dtor<std::__ndk1::__variant_detail::__traits<void*, std::__ndk1::basic_string<char, std::__ndk1::char_traits<char>, std::__ndk1::allocator<char> > >, (std::__ndk1::__variant_detail::_Trait)1>, std::__ndk1::__variant_detail::__base<(std::__ndk1::__variant_detail::__traits<void*, std::__ndk1::basic_string<char, std::__ndk1::char_traits<char>, std::__ndk1::allocator<char> > >)1, std::__ndk1::__variant_detail::__traits, std::__ndk1::allocator<char> >&)
PUBLIC 19fe8 0 std::__ndk1::__hash_table<std::__ndk1::__hash_value_type<void*, bool>, std::__ndk1::__unordered_map_hasher<void*, std::__ndk1::__hash_value_type<void*, bool>, std::__ndk1::hash<void*>, std::__ndk1::equal_to<void*>, true>, std::__ndk1::__unordered_map_equal<void*, std::__ndk1::__hash_value_type<void*, bool>, std::__ndk1::equal_to<void*>, std::__ndk1::hash<void*>, true>, std::__ndk1::allocator<std::__ndk1::__hash_value_type<void*, bool> > >::__emplace_unique_key_args<void*, std::__ndk1::piecewise_construct_t const&, std::__ndk1::tuple<void* const&>, std::__ndk1::tuple<> >(void* const&, std::__ndk1::piecewise_construct_t const&, std::__ndk1::tuple<void* const&>, std::__ndk1::tuple<>)
PUBLIC 1a500 0 <.plt ELF section in raydeeux.pausemenuloop.android64.so>
STACK CFI INIT d780 10 .cfa: sp 0 +
STACK CFI INIT d790 8 .cfa: sp 0 +
STACK CFI INIT d798 8 .cfa: sp 0 +
STACK CFI INIT d7a0 14 .cfa: sp 0 +
STACK CFI INIT d7b4 1c .cfa: sp 0 +
STACK CFI INIT d7d0 10 .cfa: sp 0 +
STACK CFI INIT d7e0 134 .cfa: sp 0 +
STACK CFI INIT d914 84 .cfa: sp 0 +
STACK CFI INIT d998 f4 .cfa: sp 0 +
STACK CFI INIT da8c a8 .cfa: sp 0 +
STACK CFI INIT db34 7c .cfa: sp 0 +
STACK CFI INIT dbb0 14 .cfa: sp 0 +
STACK CFI INIT dbc4 40 .cfa: sp 0 +
STACK CFI INIT dc04 28 .cfa: sp 0 +
STACK CFI INIT dc2c 190 .cfa: sp 0 +
STACK CFI INIT ddbc 2c8 .cfa: sp 0 +
STACK CFI INIT e084 8 .cfa: sp 0 +
STACK CFI INIT e08c 8 .cfa: sp 0 +
STACK CFI INIT e094 44 .cfa: sp 0 +
STACK CFI INIT e0d8 e8 .cfa: sp 0 +
STACK CFI INIT e1c0 e8 .cfa: sp 0 +
STACK CFI INIT e2a8 14 .cfa: sp 0 +
STACK CFI INIT e2bc 10 .cfa: sp 0 +
STACK CFI INIT e2cc 10 .cfa: sp 0 +
STACK CFI INIT e2dc f0 .cfa: sp 0 +
STACK CFI INIT e3cc 44 .cfa: sp 0 +
STACK CFI INIT e410 c .cfa: sp 0 +
STACK CFI INIT e41c c .cfa: sp 0 +
STACK CFI INIT e428 2c .cfa: sp 0 +
STACK CFI INIT e454 280 .cfa: sp 0 +
STACK CFI INIT e6d4 c .cfa: sp 0 +
STACK CFI INIT e6e0 120 .cfa: sp 0 +
STACK CFI INIT e800 488 .cfa: sp 0 +
STACK CFI INIT ec88 c48 .cfa: sp 0 +
STACK CFI INIT f8d0 134 .cfa: sp 0 +
STACK CFI INIT fa04 210 .cfa: sp 0 +
STACK CFI INIT fc14 38c .cfa: sp 0 +
STACK CFI INIT ffa0 1c8 .cfa: sp 0 +
STACK CFI INIT 10168 9bc .cfa: sp 0 +
STACK CFI INIT 10b24 2d4 .cfa: sp 0 +
STACK CFI INIT 10df8 134 .cfa: sp 0 +
STACK CFI INIT 10f2c 120 .cfa: sp 0 +
STACK CFI INIT 1104c 1c8 .cfa: sp 0 +
STACK CFI INIT 11214 168 .cfa: sp 0 +
STACK CFI INIT 1137c fc .cfa: sp 0 +
STACK CFI INIT 11478 30 .cfa: sp 0 +
STACK CFI INIT 115d4 c4 .cfa: sp 0 +
STACK CFI INIT 116a0 30 .cfa: sp 0 +
STACK CFI INIT 116d0 98 .cfa: sp 0 +
STACK CFI INIT 11768 59c .cfa: sp 0 +
STACK CFI INIT 11d04 8c .cfa: sp 0 +
STACK CFI INIT 11d90 30 .cfa: sp 0 +
STACK CFI INIT 1242c 50 .cfa: sp 0 +
STACK CFI 12430 .cfa: sp 32 +
STACK CFI 12438 .cfa: x29 32 + x19: .cfa -16 + ^ .ra: .cfa -24 + ^ x29: .cfa -32 + ^
STACK CFI 12450 .cfa: sp 32 +
STACK CFI 12458 .cfa: sp 0 +
STACK CFI 1245c .cfa: x29 32 +
STACK CFI 12470 .cfa: sp 32 +
STACK CFI 12478 .cfa: sp 0 +
STACK CFI INIT 1247c 50 .cfa: sp 0 +
STACK CFI 12480 .cfa: sp 32 +
STACK CFI 12488 .cfa: x29 32 + x19: .cfa -16 + ^ .ra: .cfa -24 + ^ x29: .cfa -32 + ^
STACK CFI 124a0 .cfa: sp 32 +
STACK CFI 124a8 .cfa: sp 0 +
STACK CFI 124ac .cfa: x29 32 +
STACK CFI 124c0 .cfa: sp 32 +
STACK CFI 124c8 .cfa: sp 0 +
STACK CFI INIT 124cc 24 .cfa: sp 0 +
STACK CFI 124d0 .cfa: sp 32 +
STACK CFI 124d8 .cfa: x29 32 + x19: .cfa -16 + ^ .ra: .cfa -24 + ^ x29: .cfa -32 + ^
STACK CFI 124e4 .cfa: sp 32 +
STACK CFI 124ec .cfa: sp 0 +
STACK CFI INIT 124f0 8 .cfa: sp 0 +
STACK CFI INIT 124f8 8 .cfa: sp 0 +
STACK CFI INIT 12500 8 .cfa: sp 0 +
STACK CFI INIT 12508 4 .cfa: sp 0 +
STACK CFI INIT 1250c 8 .cfa: sp 0 +
STACK CFI INIT 12514 8c .cfa: sp 0 +
STACK CFI 12518 .cfa: sp 32 +
STACK CFI 12520 .cfa: x29 32 + x19: .cfa -8 + ^ x20: .cfa -16 + ^ .ra: .cfa -24 + ^ x29: .cfa -32 + ^
STACK CFI 1256c .cfa: sp 32 +
STACK CFI 12574 .cfa: sp 0 +
STACK CFI 12578 .cfa: x29 32 +
STACK CFI 12594 .cfa: sp 32 +
STACK CFI 1259c .cfa: sp 0 +
STACK CFI INIT 125a0 9c .cfa: sp 0 +
STACK CFI 125a4 .cfa: sp 32 +
STACK CFI 125ac .cfa: x29 32 + x19: .cfa -8 + ^ x20: .cfa -16 + ^ .ra: .cfa -24 + ^ x29: .cfa -32 + ^
STACK CFI 12600 .cfa: sp 32 +
STACK CFI 12608 .cfa: sp 0 +
STACK CFI 1260c .cfa: x29 32 +
STACK CFI 12630 .cfa: sp 32 +
STACK CFI 12638 .cfa: sp 0 +
STACK CFI INIT 1263c 4 .cfa: sp 0 +
STACK CFI INIT 12640 4 .cfa: sp 0 +
STACK CFI INIT 12644 8 .cfa: sp 0 +
STACK CFI INIT 1264c 8 .cfa: sp 0 +
STACK CFI INIT 12654 10 .cfa: sp 0 +
STACK CFI 12658 .cfa: sp 16 +
STACK CFI 1265c .cfa: x29 16 + .ra: .cfa -8 + ^ x29: .cfa -16 + ^
STACK CFI INIT 1270c 34 .cfa: sp 0 +
STACK CFI 12710 .cfa: sp 16 +
STACK CFI 12714 .cfa: x29 16 + .ra: .cfa -8 + ^ x29: .cfa -16 + ^
STACK CFI INIT 12740 34 .cfa: sp 0 +
STACK CFI 12744 .cfa: sp 16 +
STACK CFI 12748 .cfa: x29 16 + .ra: .cfa -8 + ^ x29: .cfa -16 + ^
STACK CFI INIT 12774 114 .cfa: sp 0 +
STACK CFI 12778 .cfa: sp 80 +
STACK CFI 12788 .cfa: x29 48 + x19: .cfa -8 + ^ x20: .cfa -16 + ^ x21: .cfa -24 + ^ x22: .cfa -32 + ^ .ra: .cfa -40 + ^ x29: .cfa -48 + ^
STACK CFI 12870 .cfa: sp 80 +
STACK CFI 12880 .cfa: sp 0 +
STACK CFI 12884 .cfa: x29 48 +
STACK CFI INIT 1378c 18 .cfa: sp 0 +
STACK CFI INIT 137a4 50 .cfa: sp 0 +
STACK CFI 137a8 .cfa: sp 32 +
STACK CFI 137b0 .cfa: x29 32 + x19: .cfa -16 + ^ .ra: .cfa -24 + ^ x29: .cfa -32 + ^
STACK CFI 137c8 .cfa: sp 32 +
STACK CFI 137d0 .cfa: sp 0 +
STACK CFI 137d4 .cfa: x29 32 +
STACK CFI 137e8 .cfa: sp 32 +
STACK CFI 137f0 .cfa: sp 0 +
STACK CFI INIT 137f4 f8 .cfa: sp 0 +
STACK CFI 137f8 .cfa: sp 64 +
STACK CFI 13808 .cfa: x29 64 + x19: .cfa -8 + ^ x20: .cfa -16 + ^ x21: .cfa -24 + ^ x22: .cfa -32 + ^ x23: .cfa -48 + ^ .ra: .cfa -56 + ^ x29: .cfa -64 + ^
STACK CFI 13864 .cfa: sp 64 +
STACK CFI 13874 .cfa: sp 0 +
STACK CFI 13878 .cfa: x29 64 +
STACK CFI 13894 .cfa: sp 64 +
STACK CFI 138a4 .cfa: sp 0 +
STACK CFI 138a8 .cfa: x29 64 +
STACK CFI 138d8 .cfa: sp 64 +
STACK CFI 138e8 .cfa: sp 0 +
STACK CFI INIT 13ce4 34 .cfa: sp 0 +
STACK CFI 13ce8 .cfa: sp 32 +
STACK CFI 13cf0 .cfa: x29 32 + x19: .cfa -16 + ^ .ra: .cfa -24 + ^ x29: .cfa -32 + ^
STACK CFI INIT 13d18 10 .cfa: sp 0 +
STACK CFI INIT 13d28 30 .cfa: sp 0 +
STACK CFI 13d2c .cfa: sp 32 +
STACK CFI 13d34 .cfa: x29 32 + x19: .cfa -16 + ^ .ra: .cfa -24 + ^ x29: .cfa -32 + ^
STACK CFI 13d4c .cfa: sp 32 +
STACK CFI 13d54 .cfa: sp 0 +
STACK CFI INIT 13d58 c .cfa: sp 0 +
STACK CFI INIT 13d64 4 .cfa: sp 0 +
STACK CFI INIT 13d68 34 .cfa: sp 0 +
STACK CFI 13d6c .cfa: sp 16 +
STACK CFI 13d70 .cfa: x29 16 + .ra: .cfa -8 + ^ x29: .cfa -16 + ^
STACK CFI INIT 13d9c 24 .cfa: sp 0 +
STACK CFI 13da0 .cfa: sp 32 +
STACK CFI 13da8 .cfa: x29 32 + x19: .cfa -16 + ^ .ra: .cfa -24 + ^ x29: .cfa -32 + ^
STACK CFI 13db4 .cfa: sp 32 +
STACK CFI 13dbc .cfa: sp 0 +
STACK CFI INIT 13dc0 80 .cfa: sp 0 +
STACK CFI 13dc4 .cfa: sp 48 +
STACK CFI 13dd0 .cfa: x29 48 + x19: .cfa -8 + ^ x20: .cfa -16 + ^ x21: .cfa -24 + ^ x22: .cfa -32 + ^ .ra: .cfa -40 + ^ x29: .cfa -48 + ^
STACK CFI 13de8 .cfa: sp 48 +
STACK CFI 13df4 .cfa: sp 0 +
STACK CFI 13df8 .cfa: x29 48 +
STACK CFI 13e28 .cfa: sp 48 +
STACK CFI 13e34 .cfa: sp 0 +
STACK CFI 13e38 .cfa: x29 48 +
STACK CFI INIT 13e40 14 .cfa: sp 0 +
STACK CFI 13e44 .cfa: sp 16 +
STACK CFI 13e48 .cfa: x29 16 + .ra: .cfa -8 + ^ x29: .cfa -16 + ^
STACK CFI INIT 13ea4 30 .cfa: sp 0 +
STACK CFI 13ea8 .cfa: sp 32 +
STACK CFI 13eb0 .cfa: x29 32 + x19: .cfa -16 + ^ .ra: .cfa -24 + ^ x29: .cfa -32 + ^
STACK CFI 13ec8 .cfa: sp 32 +
STACK CFI 13ed0 .cfa: sp 0 +
STACK CFI INIT 13ed4 4 .cfa: sp 0 +
STACK CFI INIT 13ed8 4 .cfa: sp 0 +
STACK CFI INIT 13edc 34 .cfa: sp 0 +
STACK CFI 13ee0 .cfa: sp 32 +
STACK CFI 13ee8 .cfa: x29 32 + x19: .cfa -16 + ^ .ra: .cfa -24 + ^ x29: .cfa -32 + ^
STACK CFI 13f04 .cfa: sp 32 +
STACK CFI 13f0c .cfa: sp 0 +
STACK CFI INIT 13f10 14 .cfa: sp 0 +
STACK CFI INIT 13f24 4 .cfa: sp 0 +
STACK CFI INIT 13f28 4 .cfa: sp 0 +
STACK CFI INIT 13f2c 14 .cfa: sp 0 +
STACK CFI INIT 13f40 1c .cfa: sp 0 +
STACK CFI INIT 13f5c c .cfa: sp 0 +
STACK CFI INIT 13f68 4 .cfa: sp 0 +
STACK CFI INIT 13f6c 14 .cfa: sp 0 +
STACK CFI INIT 14078 50 .cfa: sp 0 +
STACK CFI 1407c .cfa: sp 32 +
STACK CFI 14084 .cfa: x29 32 + x19: .cfa -16 + ^ .ra: .cfa -24 + ^ x29: .cfa -32 + ^
STACK CFI 1409c .cfa: sp 32 +
STACK CFI 140a4 .cfa: sp 0 +
STACK CFI 140a8 .cfa: x29 32 +
STACK CFI 140bc .cfa: sp 32 +
STACK CFI 140c4 .cfa: sp 0 +
STACK CFI INIT 140c8 4 .cfa: sp 0 +
STACK CFI INIT 140cc 38 .cfa: sp 0 +
STACK CFI 140d0 .cfa: sp 32 +
STACK CFI 140d8 .cfa: x29 32 + x19: .cfa -16 + ^ .ra: .cfa -24 + ^ x29: .cfa -32 + ^
STACK CFI 140f8 .cfa: sp 32 +
STACK CFI 14100 .cfa: sp 0 +
STACK CFI INIT 14104 18 .cfa: sp 0 +
STACK CFI INIT 1411c 4 .cfa: sp 0 +
STACK CFI INIT 14120 4 .cfa: sp 0 +
STACK CFI INIT 14314 1c .cfa: sp 0 +
STACK CFI INIT 14330 c .cfa: sp 0 +
STACK CFI INIT 1433c 4 .cfa: sp 0 +
STACK CFI INIT 144a4 9c .cfa: sp 0 +
STACK CFI 144a8 .cfa: sp 32 +
STACK CFI 144b0 .cfa: x29 32 + x19: .cfa -8 + ^ x20: .cfa -16 + ^ .ra: .cfa -24 + ^ x29: .cfa -32 + ^
STACK CFI 14534 .cfa: sp 32 +
STACK CFI 1453c .cfa: sp 0 +
STACK CFI INIT 14540 a4 .cfa: sp 0 +
STACK CFI 14544 .cfa: sp 32 +
STACK CFI 1454c .cfa: x29 32 + x19: .cfa -8 + ^ x20: .cfa -16 + ^ .ra: .cfa -24 + ^ x29: .cfa -32 + ^
STACK CFI 145d8 .cfa: sp 32 +
STACK CFI 145e0 .cfa: sp 0 +
STACK CFI INIT 145e4 4 .cfa: sp 0 +
STACK CFI INIT 145e8 38 .cfa: sp 0 +
STACK CFI 145ec .cfa: sp 32 +
STACK CFI 145f4 .cfa: x29 32 + x19: .cfa -16 + ^ .ra: .cfa -24 + ^ x29: .cfa -32 + ^
STACK CFI 14614 .cfa: sp 32 +
STACK CFI 1461c .cfa: sp 0 +
STACK CFI INIT 14620 18 .cfa: sp 0 +
STACK CFI INIT 14638 4 .cfa: sp 0 +
STACK CFI INIT 1463c 4 .cfa: sp 0 +
STACK CFI INIT 14848 1c .cfa: sp 0 +
STACK CFI INIT 14864 c .cfa: sp 0 +
STACK CFI INIT 14870 138 .cfa: sp 0 +
STACK CFI 14874 .cfa: sp 96 +
STACK CFI 14888 .cfa: x29 48 + x19: .cfa -8 + ^ x20: .cfa -16 + ^ x21: .cfa -24 + ^ x22: .cfa -32 + ^ .ra: .cfa -40 + ^ x29: .cfa -48 + ^ v8: .cfa -64 + ^
STACK CFI 1498c .cfa: sp 96 +
STACK CFI 149a0 .cfa: sp 0 +
STACK CFI 149a4 .cfa: x29 48 +
STACK CFI INIT 149a8 50 .cfa: sp 0 +
STACK CFI 149ac .cfa: sp 32 +
STACK CFI 149b4 .cfa: x29 32 + x19: .cfa -16 + ^ .ra: .cfa -24 + ^ x29: .cfa -32 + ^
STACK CFI 149cc .cfa: sp 32 +
STACK CFI 149d4 .cfa: sp 0 +
STACK CFI 149d8 .cfa: x29 32 +
STACK CFI 149ec .cfa: sp 32 +
STACK CFI 149f4 .cfa: sp 0 +
STACK CFI INIT 149f8 4 .cfa: sp 0 +
STACK CFI INIT 149fc 4 .cfa: sp 0 +
STACK CFI INIT 14a00 38 .cfa: sp 0 +
STACK CFI 14a04 .cfa: sp 32 +
STACK CFI 14a0c .cfa: x29 32 + x19: .cfa -16 + ^ .ra: .cfa -24 + ^ x29: .cfa -32 + ^
STACK CFI 14a2c .cfa: sp 32 +
STACK CFI 14a34 .cfa: sp 0 +
STACK CFI INIT 14a38 18 .cfa: sp 0 +
STACK CFI INIT 14a50 4 .cfa: sp 0 +
STACK CFI INIT 14a54 4 .cfa: sp 0 +
STACK CFI INIT 14c6c 1c .cfa: sp 0 +
STACK CFI INIT 14c88 c .cfa: sp 0 +
STACK CFI INIT 14c94 4 .cfa: sp 0 +
STACK CFI INIT 14dfc 5c .cfa: sp 0 +
STACK CFI 14e00 .cfa: sp 32 +
STACK CFI 14e08 .cfa: x29 32 + x19: .cfa -16 + ^ .ra: .cfa -24 + ^ x29: .cfa -32 + ^
STACK CFI 14e4c .cfa: sp 32 +
STACK CFI 14e54 .cfa: sp 0 +
STACK CFI INIT 14e58 64 .cfa: sp 0 +
STACK CFI 14e5c .cfa: sp 32 +
STACK CFI 14e64 .cfa: x29 32 + x19: .cfa -16 + ^ .ra: .cfa -24 + ^ x29: .cfa -32 + ^
STACK CFI 14eb0 .cfa: sp 32 +
STACK CFI 14eb8 .cfa: sp 0 +
STACK CFI INIT 14ebc 4 .cfa: sp 0 +
STACK CFI INIT 14ec0 4 .cfa: sp 0 +
STACK CFI INIT 14ec4 34 .cfa: sp 0 +
STACK CFI 14ec8 .cfa: sp 32 +
STACK CFI 14ed0 .cfa: x29 32 + x19: .cfa -16 + ^ .ra: .cfa -24 + ^ x29: .cfa -32 + ^
STACK CFI 14eec .cfa: sp 32 +
STACK CFI 14ef4 .cfa: sp 0 +
STACK CFI INIT 14ef8 14 .cfa: sp 0 +
STACK CFI INIT 14f0c 4 .cfa: sp 0 +
STACK CFI INIT 14f10 4 .cfa: sp 0 +
STACK CFI INIT 14f14 10 .cfa: sp 0 +
STACK CFI INIT 14f24 1c .cfa: sp 0 +
STACK CFI INIT 14f40 c .cfa: sp 0 +
STACK CFI INIT 16220 50 .cfa: sp 0 +
STACK CFI 16224 .cfa: sp 32 +
STACK CFI 1622c .cfa: x29 32 + x19: .cfa -16 + ^ .ra: .cfa -24 + ^ x29: .cfa -32 + ^
STACK CFI 16244 .cfa: sp 32 +
STACK CFI 1624c .cfa: sp 0 +
STACK CFI 16250 .cfa: x29 32 +
STACK CFI 16264 .cfa: sp 32 +
STACK CFI 1626c .cfa: sp 0 +
STACK CFI INIT 162e4 7c .cfa: sp 0 +
STACK CFI 162e8 .cfa: sp 48 +
STACK CFI 162f4 .cfa: x29 48 + x19: .cfa -8 + ^ x20: .cfa -16 + ^ x21: .cfa -32 + ^ .ra: .cfa -40 + ^ x29: .cfa -48 + ^
STACK CFI 16340 .cfa: sp 48 +
STACK CFI 1634c .cfa: sp 0 +
STACK CFI 16350 .cfa: sp 48 +
STACK CFI 1635c .cfa: sp 0 +
STACK CFI INIT 16360 4 .cfa: sp 0 +
STACK CFI INIT 165e4 80 .cfa: sp 0 +
STACK CFI 165e8 .cfa: sp 48 +
STACK CFI 165f4 .cfa: x29 48 + x19: .cfa -8 + ^ x20: .cfa -16 + ^ x21: .cfa -32 + ^ .ra: .cfa -40 + ^ x29: .cfa -48 + ^
STACK CFI 16654 .cfa: sp 48 +
STACK CFI 16660 .cfa: sp 0 +
STACK CFI INIT 16b5c 148 .cfa: sp 0 +
STACK CFI 16b60 .cfa: sp 48 +
STACK CFI 16b6c .cfa: x29 48 + x19: .cfa -8 + ^ x20: .cfa -16 + ^ x21: .cfa -32 + ^ .ra: .cfa -40 + ^ x29: .cfa -48 + ^
STACK CFI 16c94 .cfa: sp 48 +
STACK CFI 16ca0 .cfa: sp 0 +
STACK CFI INIT 16ec8 68 .cfa: sp 0 +
STACK CFI 16ecc .cfa: sp 32 +
STACK CFI 16ed4 .cfa: x29 32 + x19: .cfa -8 + ^ x20: .cfa -16 + ^ .ra: .cfa -24 + ^ x29: .cfa -32 + ^
STACK CFI 16eec .cfa: sp 32 +
STACK CFI 16ef4 .cfa: sp 0 +
STACK CFI 16ef8 .cfa: x29 32 +
STACK CFI 16f24 .cfa: sp 32 +
STACK CFI 16f2c .cfa: sp 0 +
STACK CFI INIT 16f30 14 .cfa: sp 0 +
STACK CFI 16f34 .cfa: sp 16 +
STACK CFI 16f38 .cfa: x29 16 + .ra: .cfa -8 + ^ x29: .cfa -16 + ^
STACK CFI INIT 16f44 4 .cfa: sp 0 +
STACK CFI INIT 16f48 14 .cfa: sp 0 +
STACK CFI INIT 16f5c 84 .cfa: sp 0 +
STACK CFI 16f64 .cfa: sp 32 +
STACK CFI 16f6c .cfa: x29 32 + x19: .cfa -8 + ^ x20: .cfa -16 + ^ .ra: .cfa -24 + ^ x29: .cfa -32 + ^
STACK CFI 16fac .cfa: sp 32 +
STACK CFI 16fb4 .cfa: sp 0 +
STACK CFI 16fbc .cfa: x29 32 +
STACK CFI INIT 185d8 8c .cfa: sp 0 +
STACK CFI 185dc .cfa: sp 32 +
STACK CFI 185e4 .cfa: x29 32 + x19: .cfa -16 + ^ .ra: .cfa -24 + ^ x29: .cfa -32 + ^
STACK CFI 18658 .cfa: sp 32 +
STACK CFI 18660 .cfa: sp 0 +
STACK CFI INIT 18664 50 .cfa: sp 0 +
STACK CFI 18668 .cfa: sp 32 +
STACK CFI 18670 .cfa: x29 32 + x19: .cfa -16 + ^ .ra: .cfa -24 + ^ x29: .cfa -32 + ^
STACK CFI 18688 .cfa: sp 32 +
STACK CFI 18690 .cfa: sp 0 +
STACK CFI 18694 .cfa: x29 32 +
STACK CFI 186a8 .cfa: sp 32 +
STACK CFI 186b0 .cfa: sp 0 +
STACK CFI INIT 186b4 64 .cfa: sp 0 +
STACK CFI 186b8 .cfa: sp 32 +
STACK CFI 186c0 .cfa: x29 32 + x19: .cfa -16 + ^ .ra: .cfa -24 + ^ x29: .cfa -32 + ^
STACK CFI 186ec .cfa: sp 32 +
STACK CFI 186f4 .cfa: sp 0 +
STACK CFI 186f8 .cfa: x29 32 +
STACK CFI 1870c .cfa: sp 32 +
STACK CFI 18714 .cfa: sp 0 +
STACK CFI INIT 18718 168 .cfa: sp 0 +
STACK CFI 1871c .cfa: sp 80 +
STACK CFI 18730 .cfa: x29 80 + x19: .cfa -8 + ^ x20: .cfa -16 + ^ x21: .cfa -24 + ^ x22: .cfa -32 + ^ x23: .cfa -40 + ^ x24: .cfa -48 + ^ x25: .cfa -56 + ^ x26: .cfa -64 + ^ .ra: .cfa -72 + ^ x29: .cfa -80 + ^
STACK CFI 18868 .cfa: sp 80 +
STACK CFI 1887c .cfa: sp 0 +
STACK CFI INIT 18880 1b0 .cfa: sp 0 +
STACK CFI INIT 18ad8 130 .cfa: sp 0 +
STACK CFI 18adc .cfa: sp 80 +
STACK CFI 18aec .cfa: x29 48 + x19: .cfa -8 + ^ x20: .cfa -16 + ^ x21: .cfa -24 + ^ x22: .cfa -32 + ^ .ra: .cfa -40 + ^ x29: .cfa -48 + ^
STACK CFI 18bf0 .cfa: sp 80 +
STACK CFI 18c00 .cfa: sp 0 +
STACK CFI 18c04 .cfa: x29 48 +
STACK CFI INIT 18c08 3c .cfa: sp 0 +
STACK CFI 18c0c .cfa: sp 32 +
STACK CFI 18c14 .cfa: x29 32 + x19: .cfa -16 + ^ .ra: .cfa -24 + ^ x29: .cfa -32 + ^
STACK CFI 18c20 .cfa: sp 32 +
STACK CFI 18c28 .cfa: sp 0 +
STACK CFI 18c2c .cfa: x29 32 +
STACK CFI 18c38 .cfa: sp 32 +
STACK CFI 18c40 .cfa: sp 0 +
STACK CFI INIT 18c44 50 .cfa: sp 0 +
STACK CFI 18c48 .cfa: sp 32 +
STACK CFI 18c50 .cfa: x29 32 + x19: .cfa -16 + ^ .ra: .cfa -24 + ^ x29: .cfa -32 + ^
STACK CFI 18c68 .cfa: sp 32 +
STACK CFI 18c70 .cfa: sp 0 +
STACK CFI 18c74 .cfa: x29 32 +
STACK CFI 18c88 .cfa: sp 32 +
STACK CFI 18c90 .cfa: sp 0 +
STACK CFI INIT 18c94 50 .cfa: sp 0 +
STACK CFI 18c98 .cfa: sp 32 +
STACK CFI 18ca0 .cfa: x29 32 + x19: .cfa -16 + ^ .ra: .cfa -24 + ^ x29: .cfa -32 + ^
STACK CFI 18cb8 .cfa: sp 32 +
STACK CFI 18cc0 .cfa: sp 0 +
STACK CFI 18cc4 .cfa: x29 32 +
STACK CFI 18cd8 .cfa: sp 32 +
STACK CFI 18ce0 .cfa: sp 0 +
STACK CFI INIT 18ce4 ac .cfa: sp 0 +
STACK CFI 18ce8 .cfa: sp 64 +
STACK CFI 18cf8 .cfa: x29 64 + x19: .cfa -8 + ^ x20: .cfa -16 + ^ x21: .cfa -24 + ^ x22: .cfa -32 + ^ x23: .cfa -48 + ^ .ra: .cfa -56 + ^ x29: .cfa -64 + ^
STACK CFI 18d74 .cfa: sp 64 +
STACK CFI 18d84 .cfa: sp 0 +
STACK CFI 18d88 .cfa: x29 64 +
STACK CFI INIT 18d90 110 .cfa: sp 0 +
STACK CFI 18d94 .cfa: sp 64 +
STACK CFI 18da4 .cfa: x29 64 + x19: .cfa -8 + ^ x20: .cfa -16 + ^ x21: .cfa -24 + ^ x22: .cfa -32 + ^ x23: .cfa -40 + ^ x24: .cfa -48 + ^ .ra: .cfa -56 + ^ x29: .cfa -64 + ^
STACK CFI 18e84 .cfa: sp 64 +
STACK CFI 18e94 .cfa: sp 0 +
STACK CFI 18e98 .cfa: x29 64 +
STACK CFI INIT 18fcc 3c .cfa: sp 0 +
STACK CFI 18fd0 .cfa: sp 32 +
STACK CFI 18fd8 .cfa: x29 32 + x19: .cfa -16 + ^ .ra: .cfa -24 + ^ x29: .cfa -32 + ^
STACK CFI 18fe4 .cfa: sp 32 +
STACK CFI 18fec .cfa: sp 0 +
STACK CFI 18ff0 .cfa: x29 32 +
STACK CFI 18ffc .cfa: sp 32 +
STACK CFI 19004 .cfa: sp 0 +
STACK CFI INIT 19008 4c .cfa: sp 0 +
STACK CFI 1900c .cfa: sp 32 +
STACK CFI 19014 .cfa: x29 32 + x19: .cfa -8 + ^ x20: .cfa -16 + ^ .ra: .cfa -24 + ^ x29: .cfa -32 + ^
STACK CFI 1903c .cfa: sp 32 +
STACK CFI 19044 .cfa: sp 0 +
STACK CFI 19048 .cfa: sp 32 +
STACK CFI 19050 .cfa: sp 0 +
STACK CFI INIT 19274 64 .cfa: sp 0 +
STACK CFI 19278 .cfa: sp 32 +
STACK CFI 19280 .cfa: x29 32 + x19: .cfa -16 + ^ .ra: .cfa -24 + ^ x29: .cfa -32 + ^
STACK CFI 192ac .cfa: sp 32 +
STACK CFI 192b4 .cfa: sp 0 +
STACK CFI 192b8 .cfa: x29 32 +
STACK CFI 192cc .cfa: sp 32 +
STACK CFI 192d4 .cfa: sp 0 +
STACK CFI INIT 192d8 24 .cfa: sp 0 +
STACK CFI 192dc .cfa: sp 32 +
STACK CFI 192e4 .cfa: x29 32 + x19: .cfa -16 + ^ .ra: .cfa -24 + ^ x29: .cfa -32 + ^
STACK CFI 192f0 .cfa: sp 32 +
STACK CFI 192f8 .cfa: sp 0 +
STACK CFI INIT 19558 24 .cfa: sp 0 +
STACK CFI 1955c .cfa: sp 32 +
STACK CFI 19564 .cfa: x29 32 + x19: .cfa -16 + ^ .ra: .cfa -24 + ^ x29: .cfa -32 + ^
STACK CFI 19570 .cfa: sp 32 +
STACK CFI 19578 .cfa: sp 0 +
STACK CFI INIT 1957c 4 .cfa: sp 0 +
STACK CFI INIT 19fd0 4 .cfa: sp 0 +
STACK CFI INIT 19fd4 14 .cfa: sp 0 +
STACK CFI INIT 11dc0 66c .cfa: sp 0 +
STACK CFI 11dc4 .cfa: sp 256 +
STACK CFI 11de4 .cfa: x29 96 + x19: .cfa -8 + ^ x20: .cfa -16 + ^ x21: .cfa -24 + ^ x22: .cfa -32 + ^ x23: .cfa -40 + ^ x24: .cfa -48 + ^ x25: .cfa -56 + ^ x26: .cfa -64 + ^ x27: .cfa -72 + ^ x28: .cfa -80 + ^ .ra: .cfa -88 + ^ x29: .cfa -96 + ^ v8: .cfa -112 + ^
STACK CFI 122a8 .cfa: sp 256 +
STACK CFI 122c8 .cfa: sp 0 +
STACK CFI 122cc .cfa: x29 96 +
STACK CFI INIT 12664 a8 .cfa: sp 0 +
STACK CFI 12668 .cfa: sp 64 +
STACK CFI 12674 .cfa: x29 32 + x19: .cfa -8 + ^ x20: .cfa -16 + ^ .ra: .cfa -24 + ^ x29: .cfa -32 + ^
STACK CFI 126cc .cfa: sp 64 +
STACK CFI 126d8 .cfa: sp 0 +
STACK CFI 126dc .cfa: x29 32 +
STACK CFI INIT 12888 4e0 .cfa: sp 0 +
STACK CFI 1288c .cfa: sp 256 +
STACK CFI 1289c .cfa: x29 48 + x19: .cfa -8 + ^ x20: .cfa -16 + ^ x21: .cfa -24 + ^ x22: .cfa -32 + ^ .ra: .cfa -40 + ^ x29: .cfa -48 + ^
STACK CFI 12c64 .cfa: sp 256 +
STACK CFI 12c74 .cfa: sp 0 +
STACK CFI 12c78 .cfa: x29 48 +
STACK CFI INIT 12d68 a24 .cfa: sp 0 +
STACK CFI 12d6c .cfa: sp 224 +
STACK CFI 12d88 .cfa: x29 96 + x19: .cfa -8 + ^ x20: .cfa -16 + ^ x21: .cfa -24 + ^ x22: .cfa -32 + ^ x23: .cfa -40 + ^ x24: .cfa -48 + ^ x25: .cfa -56 + ^ x26: .cfa -64 + ^ x27: .cfa -72 + ^ x28: .cfa -80 + ^ .ra: .cfa -88 + ^ x29: .cfa -96 + ^
STACK CFI 12ff8 .cfa: sp 224 +
STACK CFI 13014 .cfa: sp 0 +
STACK CFI 13018 .cfa: x29 96 +
STACK CFI 13678 .cfa: sp 224 +
STACK CFI 13694 .cfa: sp 0 +
STACK CFI 13698 .cfa: x29 96 +
STACK CFI INIT 138ec 384 .cfa: sp 0 +
STACK CFI 138f0 .cfa: sp 192 +
STACK CFI 1390c .cfa: x29 96 + x19: .cfa -8 + ^ x20: .cfa -16 + ^ x21: .cfa -24 + ^ x22: .cfa -32 + ^ x23: .cfa -40 + ^ x24: .cfa -48 + ^ x25: .cfa -56 + ^ x26: .cfa -64 + ^ x27: .cfa -80 + ^ .ra: .cfa -88 + ^ x29: .cfa -96 + ^
STACK CFI 13b3c .cfa: sp 192 +
STACK CFI 13b58 .cfa: sp 0 +
STACK CFI 13b5c .cfa: x29 96 +
STACK CFI INIT 13c70 74 .cfa: sp 0 +
STACK CFI 13c74 .cfa: sp 48 +
STACK CFI 13c80 .cfa: x29 32 + x19: .cfa -8 + ^ x20: .cfa -16 + ^ .ra: .cfa -24 + ^ x29: .cfa -32 + ^
STACK CFI 13ccc .cfa: sp 48 +
STACK CFI 13cd8 .cfa: sp 0 +
STACK CFI 13cdc .cfa: x29 32 +
STACK CFI INIT 13e54 50 .cfa: sp 0 +
STACK CFI 13e58 .cfa: sp 32 +
STACK CFI 13e60 .cfa: x29 32 + x19: .cfa -8 + ^ x20: .cfa -16 + ^ .ra: .cfa -24 + ^ x29: .cfa -32 + ^
STACK CFI INIT 13f80 f8 .cfa: sp 0 +
STACK CFI 13f84 .cfa: sp 48 +
STACK CFI 13f90 .cfa: x29 48 + x19: .cfa -8 + ^ x20: .cfa -16 + ^ x21: .cfa -32 + ^ .ra: .cfa -40 + ^ x29: .cfa -48 + ^
STACK CFI 13ffc .cfa: sp 48 +
STACK CFI 14008 .cfa: sp 0 +
STACK CFI 1400c .cfa: x29 48 +
STACK CFI INIT 14124 1f0 .cfa: sp 0 +
STACK CFI 14128 .cfa: sp 96 +
STACK CFI 1413c .cfa: x29 48 + x19: .cfa -8 + ^ x20: .cfa -16 + ^ x21: .cfa -24 + ^ x22: .cfa -32 + ^ .ra: .cfa -40 + ^ x29: .cfa -48 + ^ v8: .cfa -64 + ^
STACK CFI 1425c .cfa: sp 96 +
STACK CFI 14270 .cfa: sp 0 +
STACK CFI 14274 .cfa: x29 48 +
STACK CFI 142bc .cfa: sp 96 +
STACK CFI 142d0 .cfa: sp 0 +
STACK CFI 142d4 .cfa: x29 48 +
STACK CFI INIT 14340 164 .cfa: sp 0 +
STACK CFI 14344 .cfa: sp 112 +
STACK CFI 14354 .cfa: x29 48 + x19: .cfa -8 + ^ x20: .cfa -16 + ^ x21: .cfa -24 + ^ x22: .cfa -32 + ^ .ra: .cfa -40 + ^ x29: .cfa -48 + ^
STACK CFI 14440 .cfa: sp 112 +
STACK CFI 14450 .cfa: sp 0 +
STACK CFI 14454 .cfa: x29 48 +
STACK CFI INIT 14640 208 .cfa: sp 0 +
STACK CFI 14644 .cfa: sp 96 +
STACK CFI 1465c .cfa: x29 56 + x19: .cfa -8 + ^ x20: .cfa -16 + ^ x21: .cfa -24 + ^ x22: .cfa -32 + ^ x23: .cfa -40 + ^ .ra: .cfa -48 + ^ x29: .cfa -56 + ^ v8: .cfa -64 + ^
STACK CFI 1477c .cfa: sp 96 +
STACK CFI 14794 .cfa: sp 0 +
STACK CFI 14798 .cfa: x29 56 +
STACK CFI 147ec .cfa: sp 96 +
STACK CFI 14804 .cfa: sp 0 +
STACK CFI 14808 .cfa: x29 56 +
STACK CFI INIT 14a58 214 .cfa: sp 0 +
STACK CFI 14a5c .cfa: sp 96 +
STACK CFI 14a74 .cfa: x29 56 + x19: .cfa -8 + ^ x20: .cfa -16 + ^ x21: .cfa -24 + ^ x22: .cfa -32 + ^ x23: .cfa -40 + ^ .ra: .cfa -48 + ^ x29: .cfa -56 + ^ v8: .cfa -64 + ^
STACK CFI 14ba0 .cfa: sp 96 +
STACK CFI 14bb8 .cfa: sp 0 +
STACK CFI 14bbc .cfa: x29 56 +
STACK CFI 14c10 .cfa: sp 96 +
STACK CFI 14c28 .cfa: sp 0 +
STACK CFI 14c2c .cfa: x29 56 +
STACK CFI INIT 14c98 164 .cfa: sp 0 +
STACK CFI 14c9c .cfa: sp 112 +
STACK CFI 14cac .cfa: x29 48 + x19: .cfa -8 + ^ x20: .cfa -16 + ^ x21: .cfa -24 + ^ x22: .cfa -32 + ^ .ra: .cfa -40 + ^ x29: .cfa -48 + ^
STACK CFI 14d98 .cfa: sp 112 +
STACK CFI 14da8 .cfa: sp 0 +
STACK CFI 14dac .cfa: x29 48 +
STACK CFI INIT 14f4c 12d4 .cfa: sp 0 +
STACK CFI 14f50 .cfa: sp 256 +
STACK CFI 14f68 .cfa: x29 80 + x19: .cfa -8 + ^ x20: .cfa -16 + ^ x21: .cfa -24 + ^ x22: .cfa -32 + ^ x23: .cfa -40 + ^ x24: .cfa -48 + ^ x25: .cfa -56 + ^ x26: .cfa -64 + ^ .ra: .cfa -72 + ^ x29: .cfa -80 + ^
STACK CFI 15cf4 .cfa: sp 256 +
STACK CFI 15d0c .cfa: sp 0 +
STACK CFI 15d10 .cfa: x29 80 +
STACK CFI INIT 16270 74 .cfa: sp 0 +
STACK CFI 16274 .cfa: sp 48 +
STACK CFI 16280 .cfa: x29 32 + x19: .cfa -8 + ^ x20: .cfa -16 + ^ .ra: .cfa -24 + ^ x29: .cfa -32 + ^
STACK CFI 162cc .cfa: sp 48 +
STACK CFI 162d8 .cfa: sp 0 +
STACK CFI 162dc .cfa: x29 32 +
STACK CFI INIT 16364 154 .cfa: sp 0 +
STACK CFI 16368 .cfa: sp 384 +
STACK CFI 1637c .cfa: x29 64 + x19: .cfa -8 + ^ x20: .cfa -16 + ^ x21: .cfa -24 + ^ x22: .cfa -32 + ^ x23: .cfa -40 + ^ x28: .cfa -48 + ^ .ra: .cfa -56 + ^ x29: .cfa -64 + ^
STACK CFI 16460 .cfa: sp 384 +
STACK CFI 16474 .cfa: sp 0 +
STACK CFI 16478 .cfa: x29 64 +
STACK CFI INIT 164b8 12c .cfa: sp 0 +
STACK CFI 164bc .cfa: sp 80 +
STACK CFI 164d0 .cfa: x29 80 + x19: .cfa -8 + ^ x20: .cfa -16 + ^ x21: .cfa -24 + ^ x22: .cfa -32 + ^ x23: .cfa -40 + ^ x24: .cfa -48 + ^ x25: .cfa -56 + ^ x26: .cfa -64 + ^ .ra: .cfa -72 + ^ x29: .cfa -80 + ^
STACK CFI 16598 .cfa: sp 80 +
STACK CFI 165ac .cfa: sp 0 +
STACK CFI 165b0 .cfa: x29 80 +
STACK CFI INIT 16664 1a4 .cfa: sp 0 +
STACK CFI 16668 .cfa: sp 112 +
STACK CFI 16680 .cfa: x29 80 + x19: .cfa -8 + ^ x20: .cfa -16 + ^ x21: .cfa -24 + ^ x22: .cfa -32 + ^ x23: .cfa -40 + ^ x24: .cfa -48 + ^ x25: .cfa -56 + ^ x26: .cfa -64 + ^ .ra: .cfa -72 + ^ x29: .cfa -80 + ^
STACK CFI 16770 .cfa: sp 112 +
STACK CFI 16788 .cfa: sp 0 +
STACK CFI 1678c .cfa: x29 80 +
STACK CFI INIT 16808 1dc .cfa: sp 0 +
STACK CFI 1680c .cfa: sp 128 +
STACK CFI 16828 .cfa: x29 96 + x19: .cfa -8 + ^ x20: .cfa -16 + ^ x21: .cfa -24 + ^ x22: .cfa -32 + ^ x23: .cfa -40 + ^ x24: .cfa -48 + ^ x25: .cfa -56 + ^ x26: .cfa -64 + ^ x27: .cfa -80 + ^ .ra: .cfa -88 + ^ x29: .cfa -96 + ^
STACK CFI 16994 .cfa: sp 128 +
STACK CFI 169b0 .cfa: sp 0 +
STACK CFI 169b4 .cfa: x29 96 +
STACK CFI INIT 169e4 178 .cfa: sp 0 +
STACK CFI 169e8 .cfa: sp 80 +
STACK CFI 169fc .cfa: x29 80 + x19: .cfa -8 + ^ x20: .cfa -16 + ^ x21: .cfa -24 + ^ x22: .cfa -32 + ^ x23: .cfa -40 + ^ x24: .cfa -48 + ^ x25: .cfa -64 + ^ .ra: .cfa -72 + ^ x29: .cfa -80 + ^
STACK CFI 16b28 .cfa: sp 80 +
STACK CFI 16b3c .cfa: sp 0 +
STACK CFI 16b40 .cfa: x29 80 +
STACK CFI INIT 16ca4 224 .cfa: sp 0 +
STACK CFI 16ca8 .cfa: sp 128 +
STACK CFI 16cc0 .cfa: x29 80 + x19: .cfa -8 + ^ x20: .cfa -16 + ^ x21: .cfa -24 + ^ x22: .cfa -32 + ^ x23: .cfa -40 + ^ x24: .cfa -48 + ^ x25: .cfa -64 + ^ .ra: .cfa -72 + ^ x29: .cfa -80 + ^
STACK CFI 16e5c .cfa: sp 128 +
STACK CFI 16e74 .cfa: sp 0 +
STACK CFI 16e78 .cfa: x29 80 +
STACK CFI INIT 16fe0 ac .cfa: sp 0 +
STACK CFI 16fe4 .cfa: sp 48 +
STACK CFI 16ff0 .cfa: x29 48 + x19: .cfa -8 + ^ x20: .cfa -16 + ^ x21: .cfa -24 + ^ x22: .cfa -32 + ^ .ra: .cfa -40 + ^ x29: .cfa -48 + ^
STACK CFI 17068 .cfa: sp 48 +
STACK CFI 17074 .cfa: sp 0 +
STACK CFI 17078 .cfa: x29 48 +
STACK CFI INIT 1708c ea4 .cfa: sp 0 +
STACK CFI 17090 .cfa: sp 336 +
STACK CFI 170b0 .cfa: x29 96 + x19: .cfa -8 + ^ x20: .cfa -16 + ^ x21: .cfa -24 + ^ x22: .cfa -32 + ^ x23: .cfa -40 + ^ x24: .cfa -48 + ^ x25: .cfa -56 + ^ x26: .cfa -64 + ^ x27: .cfa -72 + ^ x28: .cfa -80 + ^ .ra: .cfa -88 + ^ x29: .cfa -96 + ^ v8: .cfa -112 + ^
STACK CFI 17608 .cfa: sp 336 +
STACK CFI 17628 .cfa: sp 0 +
STACK CFI 1762c .cfa: x29 96 +
STACK CFI INIT 17f30 184 .cfa: sp 0 +
STACK CFI 17f34 .cfa: sp 160 +
STACK CFI 17f4c .cfa: x29 80 + x19: .cfa -8 + ^ x20: .cfa -16 + ^ x21: .cfa -24 + ^ x22: .cfa -32 + ^ x23: .cfa -40 + ^ x24: .cfa -48 + ^ x25: .cfa -56 + ^ x26: .cfa -64 + ^ .ra: .cfa -72 + ^ x29: .cfa -80 + ^
STACK CFI 1804c .cfa: sp 160 +
STACK CFI 18064 .cfa: sp 0 +
STACK CFI 18068 .cfa: x29 80 +
STACK CFI INIT 180b4 a4 .cfa: sp 0 +
STACK CFI 180b8 .cfa: sp 48 +
STACK CFI 180c4 .cfa: x29 48 + x19: .cfa -8 + ^ x20: .cfa -16 + ^ x21: .cfa -24 + ^ x22: .cfa -32 + ^ .ra: .cfa -40 + ^ x29: .cfa -48 + ^
STACK CFI 18134 .cfa: sp 48 +
STACK CFI 18140 .cfa: sp 0 +
STACK CFI 18144 .cfa: x29 48 +
STACK CFI INIT 18158 a4 .cfa: sp 0 +
STACK CFI 1815c .cfa: sp 48 +
STACK CFI 18168 .cfa: x29 48 + x19: .cfa -8 + ^ x20: .cfa -16 + ^ x21: .cfa -24 + ^ x22: .cfa -32 + ^ .ra: .cfa -40 + ^ x29: .cfa -48 + ^
STACK CFI 181d8 .cfa: sp 48 +
STACK CFI 181e4 .cfa: sp 0 +
STACK CFI 181e8 .cfa: x29 48 +
STACK CFI INIT 181fc a4 .cfa: sp 0 +
STACK CFI 18200 .cfa: sp 48 +
STACK CFI 1820c .cfa: x29 48 + x19: .cfa -8 + ^ x20: .cfa -16 + ^ x21: .cfa -24 + ^ x22: .cfa -32 + ^ .ra: .cfa -40 + ^ x29: .cfa -48 + ^
STACK CFI 1827c .cfa: sp 48 +
STACK CFI 18288 .cfa: sp 0 +
STACK CFI 1828c .cfa: x29 48 +
STACK CFI INIT 182a0 a4 .cfa: sp 0 +
STACK CFI 182a4 .cfa: sp 48 +
STACK CFI 182b0 .cfa: x29 48 + x19: .cfa -8 + ^ x20: .cfa -16 + ^ x21: .cfa -24 + ^ x22: .cfa -32 + ^ .ra: .cfa -40 + ^ x29: .cfa -48 + ^
STACK CFI 18320 .cfa: sp 48 +
STACK CFI 1832c .cfa: sp 0 +
STACK CFI 18330 .cfa: x29 48 +
STACK CFI INIT 18344 a4 .cfa: sp 0 +
STACK CFI 18348 .cfa: sp 48 +
STACK CFI 18354 .cfa: x29 48 + x19: .cfa -8 + ^ x20: .cfa -16 + ^ x21: .cfa -24 + ^ x22: .cfa -32 + ^ .ra: .cfa -40 + ^ x29: .cfa -48 + ^
STACK CFI 183c4 .cfa: sp 48 +
STACK CFI 183d0 .cfa: sp 0 +
STACK CFI 183d4 .cfa: x29 48 +
STACK CFI INIT 183e8 a4 .cfa: sp 0 +
STACK CFI 183ec .cfa: sp 48 +
STACK CFI 183f8 .cfa: x29 48 + x19: .cfa -8 + ^ x20: .cfa -16 + ^ x21: .cfa -24 + ^ x22: .cfa -32 + ^ .ra: .cfa -40 + ^ x29: .cfa -48 + ^
STACK CFI 18468 .cfa: sp 48 +
STACK CFI 18474 .cfa: sp 0 +
STACK CFI 18478 .cfa: x29 48 +
STACK CFI INIT 1848c a4 .cfa: sp 0 +
STACK CFI 18490 .cfa: sp 48 +
STACK CFI 1849c .cfa: x29 48 + x19: .cfa -8 + ^ x20: .cfa -16 + ^ x21: .cfa -24 + ^ x22: .cfa -32 + ^ .ra: .cfa -40 + ^ x29: .cfa -48 + ^
STACK CFI 1850c .cfa: sp 48 +
STACK CFI 18518 .cfa: sp 0 +
STACK CFI 1851c .cfa: x29 48 +
STACK CFI INIT 18530 a8 .cfa: sp 0 +
STACK CFI 18534 .cfa: sp 32 +
STACK CFI 1853c .cfa: x29 32 + x19: .cfa -16 + ^ .ra: .cfa -24 + ^ x29: .cfa -32 + ^
STACK CFI 18570 .cfa: sp 32 +
STACK CFI 18578 .cfa: sp 0 +
STACK CFI 1857c .cfa: x29 32 +
STACK CFI 18580 .cfa: sp 32 +
STACK CFI 18588 .cfa: sp 0 +
STACK CFI 1858c .cfa: x29 32 +
STACK CFI INIT 18a30 a8 .cfa: sp 0 +
STACK CFI 18a34 .cfa: sp 32 +
STACK CFI 18a3c .cfa: x29 32 + x19: .cfa -16 + ^ .ra: .cfa -24 + ^ x29: .cfa -32 + ^
STACK CFI 18a70 .cfa: sp 32 +
STACK CFI 18a78 .cfa: sp 0 +
STACK CFI 18a7c .cfa: x29 32 +
STACK CFI 18a80 .cfa: sp 32 +
STACK CFI 18a88 .cfa: sp 0 +
STACK CFI 18a8c .cfa: x29 32 +
STACK CFI INIT 18ea0 12c .cfa: sp 0 +
STACK CFI 18ea4 .cfa: sp 80 +
STACK CFI 18eb4 .cfa: x29 48 + x19: .cfa -8 + ^ x20: .cfa -16 + ^ x21: .cfa -32 + ^ .ra: .cfa -40 + ^ x29: .cfa -48 + ^
STACK CFI 18f4c .cfa: sp 80 +
STACK CFI 18f5c .cfa: sp 0 +
STACK CFI 18f60 .cfa: x29 48 +
STACK CFI INIT 19054 134 .cfa: sp 0 +
STACK CFI 19058 .cfa: sp 80 +
STACK CFI 19064 .cfa: x29 32 + x19: .cfa -8 + ^ x20: .cfa -16 + ^ .ra: .cfa -24 + ^ x29: .cfa -32 + ^
STACK CFI 19094 .cfa: sp 80 +
STACK CFI 190a0 .cfa: sp 0 +
STACK CFI 190a4 .cfa: x29 32 +
STACK CFI INIT 19188 78 .cfa: sp 0 +
STACK CFI 1918c .cfa: sp 32 +
STACK CFI 19194 .cfa: x29 32 + x19: .cfa -8 + ^ x20: .cfa -16 + ^ .ra: .cfa -24 + ^ x29: .cfa -32 + ^
STACK CFI 191a0 .cfa: sp 32 +
STACK CFI 191a8 .cfa: sp 0 +
STACK CFI 191ac .cfa: x29 32 +
STACK CFI INIT 19200 74 .cfa: sp 0 +
STACK CFI 19204 .cfa: sp 48 +
STACK CFI 19210 .cfa: x29 32 + x19: .cfa -8 + ^ x20: .cfa -16 + ^ .ra: .cfa -24 + ^ x29: .cfa -32 + ^
STACK CFI 1925c .cfa: sp 48 +
STACK CFI 19268 .cfa: sp 0 +
STACK CFI 1926c .cfa: x29 32 +
STACK CFI INIT 192fc 25c .cfa: sp 0 +
STACK CFI 19300 .cfa: sp 128 +
STACK CFI 19310 .cfa: x29 48 + x19: .cfa -8 + ^ x20: .cfa -16 + ^ x21: .cfa -32 + ^ .ra: .cfa -40 + ^ x29: .cfa -48 + ^
STACK CFI 193f8 .cfa: sp 128 +
STACK CFI 19408 .cfa: sp 0 +
STACK CFI 1940c .cfa: x29 48 +
STACK CFI INIT 19580 2a0 .cfa: sp 0 +
STACK CFI 19584 .cfa: sp 144 +
STACK CFI 19598 .cfa: x29 64 + x19: .cfa -8 + ^ x20: .cfa -16 + ^ x21: .cfa -24 + ^ x22: .cfa -32 + ^ x23: .cfa -48 + ^ .ra: .cfa -56 + ^ x29: .cfa -64 + ^
STACK CFI 196cc .cfa: sp 144 +
STACK CFI 196e0 .cfa: sp 0 +
STACK CFI 196e4 .cfa: x29 64 +
STACK CFI INIT 19820 4f4 .cfa: sp 0 +
STACK CFI 19824 .cfa: sp 144 +
STACK CFI 19838 .cfa: x29 64 + x19: .cfa -8 + ^ x20: .cfa -16 + ^ x21: .cfa -24 + ^ x22: .cfa -32 + ^ x23: .cfa -48 + ^ .ra: .cfa -56 + ^ x29: .cfa -64 + ^
STACK CFI 19b6c .cfa: sp 144 +
STACK CFI 19b80 .cfa: sp 0 +
STACK CFI 19b84 .cfa: x29 64 +
STACK CFI INIT 19d14 154 .cfa: sp 0 +
STACK CFI 19d18 .cfa: sp 384 +
STACK CFI 19d2c .cfa: x29 64 + x19: .cfa -8 + ^ x20: .cfa -16 + ^ x21: .cfa -24 + ^ x22: .cfa -32 + ^ x23: .cfa -40 + ^ x28: .cfa -48 + ^ .ra: .cfa -56 + ^ x29: .cfa -64 + ^
STACK CFI 19e10 .cfa: sp 384 +
STACK CFI 19e24 .cfa: sp 0 +
STACK CFI 19e28 .cfa: x29 64 +
STACK CFI INIT 19e68 168 .cfa: sp 0 +
STACK CFI 19e6c .cfa: sp 384 +
STACK CFI 19e80 .cfa: x29 64 + x19: .cfa -8 + ^ x20: .cfa -16 + ^ x21: .cfa -24 + ^ x22: .cfa -32 + ^ x23: .cfa -40 + ^ x28: .cfa -48 + ^ .ra: .cfa -56 + ^ x29: .cfa -64 + ^
STACK CFI 19f78 .cfa: sp 384 +
STACK CFI 19f8c .cfa: sp 0 +
STACK CFI 19f90 .cfa: x29 64 +
STACK CFI INIT 19fe8 50c .cfa: sp 0 +
STACK CFI 19fec .cfa: sp 64 +
STACK CFI 19ffc .cfa: x29 64 + x19: .cfa -8 + ^ x20: .cfa -16 + ^ x21: .cfa -24 + ^ x22: .cfa -32 + ^ x23: .cfa -40 + ^ x24: .cfa -48 + ^ .ra: .cfa -56 + ^ x29: .cfa -64 + ^
STACK CFI 1a11c .cfa: sp 64 +
STACK CFI 1a12c .cfa: sp 0 +
STACK CFI 1a130 .cfa: x29 64 +
STACK CFI 1a4c8 .cfa: sp 64 +
STACK CFI 1a4d8 .cfa: sp 0 +
STACK CFI 1a4dc .cfa: x29 64 +
