MODULE Linux arm64 36FF827215F635F15F7937B34121C1710 zmx.cbf-lite.android64.so
INFO CODE_ID 7282FF36F615F1355F7937B34121C17149F7BE6B
INFO GENERATOR mozilla/dump_syms 2.3.4
PUBLIC 13d80 0 __on_dlclose
PUBLIC 13d90 0 __emutls_unregister_key
PUBLIC 13d98 0 __on_dlclose_late
PUBLIC 13da0 0 __atexit_handler_wrapper
PUBLIC 13db4 0 atexit
PUBLIC 13dd0 0 pthread_atfork
PUBLIC 13de0 0 __aarch64_ldadd8_relax
PUBLIC 13e10 0 init_have_lse_atomics
PUBLIC 13ea8 0 __init_cpu_features_constructor
PUBLIC 14444 0 __init_cpu_features
PUBLIC 144d0 0 __aarch64_ldadd8_acq_rel
PUBLIC 14500 0 CustomGJBaseGameLayer::queueButton(int, bool, bool)
PUBLIC 146a4 0 std::__ndk1::priority_queue<PlayerButtonCommand, std::__ndk1::vector<PlayerButtonCommand, std::__ndk1::allocator<PlayerButtonCommand> >, PlayerButtonCommandCompare>::push(PlayerButtonCommand&&)
PUBLIC 1485c 0 CustomGJBaseGameLayer::resetLevelVariables()
PUBLIC 14978 0 geode::Mod::getSettingValue<bool>(std::__ndk1::basic_string_view<char, std::__ndk1::char_traits<char> >) const
PUBLIC 14aac 0 geode::Mod::getSettingValue<long>(std::__ndk1::basic_string_view<char, std::__ndk1::char_traits<char> >) const
PUBLIC 14bc4 0 CustomGJBaseGameLayer::processTimedInputs()
PUBLIC 14e00 0 CustomGJBaseGameLayer::updateInputQueue()
PUBLIC 15264 0 CustomGJBaseGameLayer::dumpInputQueue()
PUBLIC 15464 0 CustomGJBaseGameLayer::update(float)
PUBLIC 15564 0 cocos2d::CCCopying::copyWithZone(cocos2d::CCZone*)
PUBLIC 1556c 0 cocos2d::CCKeyboardDelegate::keyUp(cocos2d::enumKeyCodes)
PUBLIC 15570 0 cocos2d::CCMouseDelegate::rightKeyDown()
PUBLIC 15574 0 cocos2d::CCMouseDelegate::rightKeyUp()
PUBLIC 15578 0 cocos2d::CCMouseDelegate::scrollWheel(float, float)
PUBLIC 1557c 0 __cxx_global_var_init
PUBLIC 155dc 0 geode::modifier::ModifyBase<geode::modifier::ModifyDerive<CustomGJBaseGameLayer, GJBaseGameLayer> >::~ModifyBase()
PUBLIC 155f8 0 __cxx_global_var_init.3
PUBLIC 15658 0 geode::modifier::ModifyBase<geode::modifier::ModifyDerive<ExtendedCCKeyboardDispatcher, cocos2d::CCKeyboardDispatcher> >::~ModifyBase()
PUBLIC 15674 0 __cxx_global_var_init.4
PUBLIC 156d4 0 geode::modifier::ModifyBase<geode::modifier::ModifyDerive<ExtendedCCTouchDispatcher, cocos2d::CCTouchDispatcher> >::~ModifyBase()
PUBLIC 156f0 0 __cxx_global_var_init.5
PUBLIC 15750 0 geode::modifier::ModifyBase<geode::modifier::ModifyDerive<AsyncUILayer, UILayer> >::~ModifyBase()
PUBLIC 1576c 0 geode::modifier::FieldIntermediate<CustomGJBaseGameLayer, GJBaseGameLayer>::self()
PUBLIC 158fc 0 geode::modifier::FieldContainer::getField(unsigned long)
PUBLIC 15bb4 0 geode::modifier::FieldContainer::setField(unsigned long, unsigned long, std::__ndk1::function<void (void*)>)
PUBLIC 15cc8 0 geode::modifier::FieldIntermediate<CustomGJBaseGameLayer, GJBaseGameLayer>::fieldDestructor(void*)
PUBLIC 15ce0 0 std::__ndk1::vector<void*, std::__ndk1::allocator<void*> >::__throw_length_error[abi:ne180000]() const
PUBLIC 15cf4 0 __clang_call_terminate
PUBLIC 15d04 0 std::__ndk1::__throw_length_error[abi:ne180000](char const*)
PUBLIC 15d54 0 std::length_error::length_error[abi:ne180000](char const*)
PUBLIC 15d84 0 std::__throw_bad_array_new_length([abi:ne180000], void)
PUBLIC 15db8 0 std::__ndk1::vector<std::__ndk1::function<void (void*)>, std::__ndk1::allocator<std::__ndk1::function<void (void*)> > >::__push_back_slow_path<std::__ndk1::function<void (void*)> >(std::__ndk1::function<void (void*)>&&)
PUBLIC 15fe4 0 std::__ndk1::vector<std::__ndk1::function<void (void*)>, std::__ndk1::allocator<std::__ndk1::function<void (void*)> > >::__throw_length_error[abi:ne180000]() const
PUBLIC 15ff8 0 std::__ndk1::vector<void*, std::__ndk1::allocator<void*> >::__throw_out_of_range[abi:ne180000]() const
PUBLIC 1600c 0 std::__ndk1::__throw_out_of_range[abi:ne180000](char const*)
PUBLIC 1605c 0 std::out_of_range::out_of_range[abi:ne180000](char const*)
PUBLIC 1608c 0 std::__ndk1::vector<std::__ndk1::function<void (void*)>, std::__ndk1::allocator<std::__ndk1::function<void (void*)> > >::__throw_out_of_range[abi:ne180000]() const
PUBLIC 160a0 0 std::__ndk1::__function::__base<void (void*)>::~__base()
PUBLIC 160a4 0 std::__ndk1::__function::__func<void (*)(void*), std::__ndk1::allocator<void (*)(void*)>, void (void*)>::~__func()
PUBLIC 160a8 0 std::__ndk1::__function::__func<void (*)(void*), std::__ndk1::allocator<void (*)(void*)>, void (void*)>::__clone() const
PUBLIC 160e0 0 std::__ndk1::__function::__func<void (*)(void*), std::__ndk1::allocator<void (*)(void*)>, void (void*)>::__clone(std::__ndk1::__function::__base<void (void*)>*) const
PUBLIC 160f8 0 std::__ndk1::__function::__func<void (*)(void*), std::__ndk1::allocator<void (*)(void*)>, void (void*)>::destroy()
PUBLIC 160fc 0 std::__ndk1::__function::__func<void (*)(void*), std::__ndk1::allocator<void (*)(void*)>, void (void*)>::destroy_deallocate()
PUBLIC 16100 0 std::__ndk1::__function::__func<void (*)(void*), std::__ndk1::allocator<void (*)(void*)>, void (void*)>::operator()(void*&&)
PUBLIC 16110 0 std::__ndk1::__function::__func<void (*)(void*), std::__ndk1::allocator<void (*)(void*)>, void (void*)>::target(std::type_info const&) const
PUBLIC 1612c 0 std::__ndk1::__function::__func<void (*)(void*), std::__ndk1::allocator<void (*)(void*)>, void (void*)>::target_type() const
PUBLIC 16138 0 geode::modifier::ModifyBase<geode::modifier::ModifyDerive<CustomGJBaseGameLayer, GJBaseGameLayer> >::ModifyBase()
PUBLIC 16534 0 geode::modifier::ModifyDerive<CustomGJBaseGameLayer, GJBaseGameLayer>::apply()
PUBLIC 16dc8 0 std::__ndk1::shared_ptr<geode::Hook>::~shared_ptr[abi:ne180000]()
PUBLIC 16e18 0 geode::impl::ResultData<geode::Hook*, std::__ndk1::basic_string<char, std::__ndk1::char_traits<char>, std::__ndk1::allocator<char> > >::~ResultData()
PUBLIC 16e8c 0 std::__ndk1::vector<std::__ndk1::basic_string<char, std::__ndk1::char_traits<char>, std::__ndk1::allocator<char> >, std::__ndk1::allocator<std::__ndk1::basic_string<char, std::__ndk1::char_traits<char>, std::__ndk1::allocator<char> > > >::~vector[abi:ne180000]()
PUBLIC 16f08 0 geode::modifier::ModifyBase<geode::modifier::ModifyDerive<CustomGJBaseGameLayer, GJBaseGameLayer> >::apply()
PUBLIC 16f0c 0 _ZN5geode15UnwrapExceptionC2IRPNS_4HookEQsr4implE18IsStringStreamableIT_EEENS_4impl5OkTagEOS5_
PUBLIC 17060 0 std::__ndk1::__throw_bad_variant_access[abi:ne180000]()
PUBLIC 17094 0 std::__ndk1::basic_stringstream<char, std::__ndk1::char_traits<char>, std::__ndk1::allocator<char> >::basic_stringstream[abi:ne180000]()
PUBLIC m 171c0 0 std::__ndk1::basic_stringstream<char, std::__ndk1::char_traits<char>, std::__ndk1::allocator<char> >::~basic_stringstream()
PUBLIC 17240 0 geode::UnwrapException::~UnwrapException()
PUBLIC 17264 0 std::__ndk1::__put_character_sequence[abi:ne180000]<char, std::__ndk1::char_traits<char> >(std::__ndk1::basic_ostream<char, std::__ndk1::char_traits<char> >, std::__ndk1::basic_ostream const*, unsigned long)
PUBLIC 17408 0 std::__ndk1::__pad_and_output[abi:ne180000]<char, std::__ndk1::char_traits<char> >(std::__ndk1::char_traits<char>, std::__ndk1::ostreambuf_iterator const*, std::__ndk1::ostreambuf_iterator const, std::__ndk1::ostreambuf_iterator const, std::__ndk1::ios_base&, std::__ndk1::ostreambuf_iterator)
PUBLIC 175e4 0 std::__ndk1::basic_string<char, std::__ndk1::char_traits<char>, std::__ndk1::allocator<char> >::__throw_length_error[abi:ne180000]() const
PUBLIC 175f8 0 std::__ndk1::basic_stringbuf<char, std::__ndk1::char_traits<char>, std::__ndk1::allocator<char> >::str[abi:ne180000]() &&
PUBLIC 17770 0 std::__ndk1::basic_stringbuf<char, std::__ndk1::char_traits<char>, std::__ndk1::allocator<char> >::__init_buf_ptrs[abi:ne180000]()
PUBLIC 178b8 0 std::__ndk1::vector<std::__ndk1::basic_string<char, std::__ndk1::char_traits<char>, std::__ndk1::allocator<char> >, std::__ndk1::allocator<std::__ndk1::basic_string<char, std::__ndk1::char_traits<char>, std::__ndk1::allocator<char> > > >::__push_back_slow_path<std::__ndk1::basic_string<char, std::__ndk1::char_traits<char>, std::__ndk1::allocator<char> > const&>(std::__ndk1::basic_string<char, std::__ndk1::char_traits<char>, std::__ndk1::allocator<char> > const&)
PUBLIC 17ae0 0 std::__ndk1::basic_string<char, std::__ndk1::char_traits<char>, std::__ndk1::allocator<char> >::__init_copy_ctor_external(char const*, unsigned long)
PUBLIC 17b60 0 std::__ndk1::__split_buffer<std::__ndk1::basic_string<char, std::__ndk1::char_traits<char>, std::__ndk1::allocator<char> >, std::__ndk1::allocator<std::__ndk1::basic_string<char, std::__ndk1::char_traits<char>, std::__ndk1::allocator<char> > >&>::~__split_buffer()
PUBLIC 17bc8 0 std::__ndk1::vector<std::__ndk1::basic_string<char, std::__ndk1::char_traits<char>, std::__ndk1::allocator<char> >, std::__ndk1::allocator<std::__ndk1::basic_string<char, std::__ndk1::char_traits<char>, std::__ndk1::allocator<char> > > >::__throw_length_error[abi:ne180000]() const
PUBLIC 17bdc 0 std::__ndk1::__variant_detail::__visitation::__base::__dispatcher<(unsigned long)0>::__dispatch[abi:ne180000]<std::__ndk1::__variant_detail::__dtor<std::__ndk1::__variant_detail::__traits<geode::Hook*, std::__ndk1::basic_string<char, std::__ndk1::char_traits<char>, std::__ndk1::allocator<char> > >, (std::__ndk1::__variant_detail::_Trait)1>::__destroy[abi:ne180000]()::{lambda(auto:1&)#1}, std::__ndk1::__variant_detail::__base<(std::__ndk1::__variant_detail::__traits<geode::Hook*, std::__ndk1::basic_string<char, std::__ndk1::char_traits<char>, std::__ndk1::allocator<char> > >)1, geode::Hook, std::__ndk1::allocator<char> >&>(std::__ndk1::__variant_detail::__dtor<std::__ndk1::__variant_detail::__traits<geode::Hook*, std::__ndk1::basic_string<char, std::__ndk1::char_traits<char>, std::__ndk1::allocator<char> > >, (std::__ndk1::__variant_detail::_Trait)1>, std::__ndk1::__variant_detail::__base<(std::__ndk1::__variant_detail::__traits<geode::Hook*, std::__ndk1::basic_string<char, std::__ndk1::char_traits<char>, std::__ndk1::allocator<char> > >)1, geode::Hook, std::__ndk1::allocator<char> >&)
PUBLIC 17be0 0 std::__ndk1::__variant_detail::__visitation::__base::__dispatcher<(unsigned long)1>::__dispatch[abi:ne180000]<std::__ndk1::__variant_detail::__dtor<std::__ndk1::__variant_detail::__traits<geode::Hook*, std::__ndk1::basic_string<char, std::__ndk1::char_traits<char>, std::__ndk1::allocator<char> > >, (std::__ndk1::__variant_detail::_Trait)1>::__destroy[abi:ne180000]()::{lambda(auto:1&)#1}, std::__ndk1::__variant_detail::__base<(std::__ndk1::__variant_detail::__traits<geode::Hook*, std::__ndk1::basic_string<char, std::__ndk1::char_traits<char>, std::__ndk1::allocator<char> > >)1, geode::Hook, std::__ndk1::allocator<char> >&>(std::__ndk1::__variant_detail::__dtor<std::__ndk1::__variant_detail::__traits<geode::Hook*, std::__ndk1::basic_string<char, std::__ndk1::char_traits<char>, std::__ndk1::allocator<char> > >, (std::__ndk1::__variant_detail::_Trait)1>, std::__ndk1::__variant_detail::__base<(std::__ndk1::__variant_detail::__traits<geode::Hook*, std::__ndk1::basic_string<char, std::__ndk1::char_traits<char>, std::__ndk1::allocator<char> > >)1, geode::Hook, std::__ndk1::allocator<char> >&)
PUBLIC 17bf4 0 std::__ndk1::__tree<std::__ndk1::__value_type<std::__ndk1::basic_string<char, std::__ndk1::char_traits<char>, std::__ndk1::allocator<char> >, std::__ndk1::shared_ptr<geode::Hook> >, std::__ndk1::__map_value_compare<std::__ndk1::basic_string<char, std::__ndk1::char_traits<char>, std::__ndk1::allocator<char> >, std::__ndk1::__value_type<std::__ndk1::basic_string<char, std::__ndk1::char_traits<char>, std::__ndk1::allocator<char> >, std::__ndk1::shared_ptr<geode::Hook> >, std::__ndk1::less<std::__ndk1::basic_string<char, std::__ndk1::char_traits<char>, std::__ndk1::allocator<char> > >, true>, std::__ndk1::allocator<std::__ndk1::__value_type<std::__ndk1::basic_string<char, std::__ndk1::char_traits<char>, std::__ndk1::allocator<char> >, std::__ndk1::shared_ptr<geode::Hook> > > >::find<std::__ndk1::basic_string<char, std::__ndk1::char_traits<char>, std::__ndk1::allocator<char> > >(std::__ndk1::basic_string<char, std::__ndk1::char_traits<char>, std::__ndk1::allocator<char> > const&)
PUBLIC 17d14 0 std::__ndk1::__tree<std::__ndk1::__value_type<std::__ndk1::basic_string<char, std::__ndk1::char_traits<char>, std::__ndk1::allocator<char> >, std::__ndk1::shared_ptr<geode::Hook> >, std::__ndk1::__map_value_compare<std::__ndk1::basic_string<char, std::__ndk1::char_traits<char>, std::__ndk1::allocator<char> >, std::__ndk1::__value_type<std::__ndk1::basic_string<char, std::__ndk1::char_traits<char>, std::__ndk1::allocator<char> >, std::__ndk1::shared_ptr<geode::Hook> >, std::__ndk1::less<std::__ndk1::basic_string<char, std::__ndk1::char_traits<char>, std::__ndk1::allocator<char> > >, true>, std::__ndk1::allocator<std::__ndk1::__value_type<std::__ndk1::basic_string<char, std::__ndk1::char_traits<char>, std::__ndk1::allocator<char> >, std::__ndk1::shared_ptr<geode::Hook> > > >::erase(std::__ndk1::__tree_const_iterator<std::__ndk1::__value_type<std::__ndk1::basic_string<char, std::__ndk1::char_traits<char>, std::__ndk1::allocator<char> >, std::__ndk1::shared_ptr<geode::Hook> >, std::__ndk1::__tree_node<std::__ndk1::__value_type<std::__ndk1::basic_string<char, std::__ndk1::char_traits<char>, std::__ndk1::allocator<char> >, std::__ndk1::shared_ptr<geode::Hook> >, void*>*, long>)
PUBLIC 17de8 0 std::__ndk1::__tree_remove[abi:ne180000]<std::__ndk1::__tree_node_base<void*>*>(std::__ndk1::__tree_node_base<void*>*, std::__ndk1::__tree_node_base<void*>*)
PUBLIC 181b0 0 std::__ndk1::__tree<std::__ndk1::__value_type<std::__ndk1::basic_string<char, std::__ndk1::char_traits<char>, std::__ndk1::allocator<char> >, std::__ndk1::shared_ptr<geode::Hook> >, std::__ndk1::__map_value_compare<std::__ndk1::basic_string<char, std::__ndk1::char_traits<char>, std::__ndk1::allocator<char> >, std::__ndk1::__value_type<std::__ndk1::basic_string<char, std::__ndk1::char_traits<char>, std::__ndk1::allocator<char> >, std::__ndk1::shared_ptr<geode::Hook> >, std::__ndk1::less<std::__ndk1::basic_string<char, std::__ndk1::char_traits<char>, std::__ndk1::allocator<char> > >, true>, std::__ndk1::allocator<std::__ndk1::__value_type<std::__ndk1::basic_string<char, std::__ndk1::char_traits<char>, std::__ndk1::allocator<char> >, std::__ndk1::shared_ptr<geode::Hook> > > >::destroy(std::__ndk1::__tree_node<std::__ndk1::__value_type<std::__ndk1::basic_string<char, std::__ndk1::char_traits<char>, std::__ndk1::allocator<char> >, std::__ndk1::shared_ptr<geode::Hook> >, void*>*)
PUBLIC 1823c 0 geode::Hook::create<void (*)(CustomGJBaseGameLayer*, float)>(void*, void (*)(CustomGJBaseGameLayer*, float), std::__ndk1::basic_string<char, std::__ndk1::char_traits<char>, std::__ndk1::allocator<char> > const&, tulip::hook::TulipConvention, tulip::hook::HookMetadata const&)
PUBLIC 183c0 0 geode::modifier::AsStaticFunction_update<CustomGJBaseGameLayer, void (CustomGJBaseGameLayer::*)(float)>::Impl<void (CustomGJBaseGameLayer::*)(float)>::function(CustomGJBaseGameLayer*, float)
PUBLIC 183c4 0 geode::modifier::AsStaticFunction_processCommands<CustomGJBaseGameLayer, void (CustomGJBaseGameLayer::*)(float)>::Impl<void (CustomGJBaseGameLayer::*)(float)>::function(CustomGJBaseGameLayer*, float)
PUBLIC 18420 0 geode::Hook::create<void (*)(CustomGJBaseGameLayer*, int, bool, bool)>(void*, void (*)(CustomGJBaseGameLayer*, int, bool, bool), std::__ndk1::basic_string<char, std::__ndk1::char_traits<char>, std::__ndk1::allocator<char> > const&, tulip::hook::TulipConvention, tulip::hook::HookMetadata const&)
PUBLIC 18538 0 geode::modifier::AsStaticFunction_queueButton<CustomGJBaseGameLayer, void (CustomGJBaseGameLayer::*)(int, bool, bool)>::Impl<void (CustomGJBaseGameLayer::*)(int, bool, bool)>::function(CustomGJBaseGameLayer*, int, bool, bool)
PUBLIC 1853c 0 geode::Hook::create<void (*)(CustomGJBaseGameLayer*)>(void*, void (*)(CustomGJBaseGameLayer*), std::__ndk1::basic_string<char, std::__ndk1::char_traits<char>, std::__ndk1::allocator<char> > const&, tulip::hook::TulipConvention, tulip::hook::HookMetadata const&)
PUBLIC 18670 0 geode::modifier::AsStaticFunction_resetLevelVariables<CustomGJBaseGameLayer, void (CustomGJBaseGameLayer::*)()>::Impl<void (CustomGJBaseGameLayer::*)()>::function(CustomGJBaseGameLayer*)
PUBLIC 18674 0 geode::addresser::Addresser::addressOfVirtual<void, GJBaseGameLayer, float>(void (GJBaseGameLayer::*)(float))
PUBLIC 18760 0 GJBaseGameLayer::GJBaseGameLayer(geode::ZeroConstructorType)
PUBLIC 18f10 0 GJGameState::GJGameState()
PUBLIC 19488 0 geode::stl::unordered_map<int, int, geode::stl::hash<int>, geode::stl::equal_to<int>, std::__ndk1::allocator<std::__ndk1::pair<int const, int> > >::~unordered_map()
PUBLIC 19500 0 geode::stl::unordered_set<int, geode::stl::hash<int>, geode::stl::equal_to<int>, std::__ndk1::allocator<int> >::~unordered_set()
PUBLIC 19578 0 geode::stl::unordered_map<int, gd::string, geode::stl::hash<int>, geode::stl::equal_to<int>, std::__ndk1::allocator<std::__ndk1::pair<int const, gd::string> > >::~unordered_map()
PUBLIC 195fc 0 gd::map<std::__ndk1::pair<int, int>, int>::~map()
PUBLIC 19618 0 geode::stl::unordered_map<int, gd::vector<LabelGameObject*>, geode::stl::hash<int>, geode::stl::equal_to<int>, std::__ndk1::allocator<std::__ndk1::pair<int const, gd::vector<LabelGameObject*> > > >::~unordered_map()
PUBLIC 196a4 0 geode::stl::unordered_map<int, std::__ndk1::pair<int, int>, geode::stl::hash<int>, geode::stl::equal_to<int>, std::__ndk1::allocator<std::__ndk1::pair<int const, std::__ndk1::pair<int, int> > > >::~unordered_map()
PUBLIC 1971c 0 geode::stl::unordered_map<int, gd::vector<GameObject*>, geode::stl::hash<int>, geode::stl::equal_to<int>, std::__ndk1::allocator<std::__ndk1::pair<int const, gd::vector<GameObject*> > > >::~unordered_map()
PUBLIC 197a8 0 geode::stl::unordered_map<int, cocos2d::CCPoint, geode::stl::hash<int>, geode::stl::equal_to<int>, std::__ndk1::allocator<std::__ndk1::pair<int const, cocos2d::CCPoint> > >::~unordered_map()
PUBLIC 19820 0 gd::vector<geode::stl::unordered_map<int, int, geode::stl::hash<int>, geode::stl::equal_to<int>, std::__ndk1::allocator<std::__ndk1::pair<int const, int> > > >::~vector()
PUBLIC 19924 0 GJGameState::~GJGameState()
PUBLIC 19d1c 0 geode::stl::unordered_map<int, SongChannelState, geode::stl::hash<int>, geode::stl::equal_to<int>, std::__ndk1::allocator<std::__ndk1::pair<int const, SongChannelState> > >::~unordered_map()
PUBLIC 19d94 0 gd::map<std::__ndk1::pair<int, int>, SFXTriggerInstance>::~map()
PUBLIC 19db0 0 geode::stl::unordered_map<int, std::__ndk1::vector<int, std::__ndk1::allocator<int> >, geode::stl::hash<int>, geode::stl::equal_to<int>, std::__ndk1::allocator<std::__ndk1::pair<int const, std::__ndk1::vector<int, std::__ndk1::allocator<int> > > > >::~unordered_map()
PUBLIC 19e40 0 gd::vector<EnterEffectInstance>::~vector()
PUBLIC 19ed8 0 geode::stl::unordered_map<int, std::__ndk1::vector<EnterEffectInstance, std::__ndk1::allocator<EnterEffectInstance> >, geode::stl::hash<int>, geode::stl::equal_to<int>, std::__ndk1::allocator<std::__ndk1::pair<int const, std::__ndk1::vector<EnterEffectInstance, std::__ndk1::allocator<EnterEffectInstance> > > > >::~unordered_map()
PUBLIC 19f14 0 gd::map<std::__ndk1::pair<GJGameEvent, int>, int>::~map()
PUBLIC 19f30 0 gd::map<std::__ndk1::pair<GJGameEvent, int>, gd::vector<EventTriggerInstance> >::~map()
PUBLIC 19f4c 0 geode::stl::unordered_map<int, EnhancedGameObject*, geode::stl::hash<int>, geode::stl::equal_to<int>, std::__ndk1::allocator<std::__ndk1::pair<int const, EnhancedGameObject*> > >::~unordered_map()
PUBLIC 19fc4 0 geode::stl::unordered_map<int, GameObjectPhysics, geode::stl::hash<int>, geode::stl::equal_to<int>, std::__ndk1::allocator<std::__ndk1::pair<int const, GameObjectPhysics> > >::~unordered_map()
PUBLIC 1a03c 0 geode::stl::unordered_map<int, GJValueTween, geode::stl::hash<int>, geode::stl::equal_to<int>, std::__ndk1::allocator<std::__ndk1::pair<int const, GJValueTween> > >::~unordered_map()
PUBLIC 1a0b4 0 geode::stl::unordered_map<int, bool, geode::stl::hash<int>, geode::stl::equal_to<int>, std::__ndk1::allocator<std::__ndk1::pair<int const, bool> > >::~unordered_map()
PUBLIC 1a12c 0 gd::map<std::__ndk1::pair<GJGameEvent, int>, gd::vector<EventTriggerInstance> >::map(std::__ndk1::map<std::__ndk1::pair<GJGameEvent, int>, gd::vector<EventTriggerInstance>, std::__ndk1::less<std::__ndk1::pair<GJGameEvent, int> >, std::__ndk1::allocator<std::__ndk1::pair<std::__ndk1::pair<GJGameEvent, int> const, gd::vector<EventTriggerInstance> > > >)
PUBLIC 1a2f8 0 gd::map<std::__ndk1::pair<GJGameEvent, int>, gd::vector<EventTriggerInstance> >::insert_pair(std::__ndk1::pair<std::__ndk1::pair<GJGameEvent, int>, gd::vector<EventTriggerInstance> > const&)
PUBLIC 1a5b0 0 std::__ndk1::pair<std::__ndk1::pair<GJGameEvent, int>, gd::vector<EventTriggerInstance> >::~pair()
PUBLIC 1a630 0 std::__ndk1::pair<std::__ndk1::pair<GJGameEvent, int> const, gd::vector<EventTriggerInstance> >::~pair()
PUBLIC 1a6b0 0 gd::vector<EventTriggerInstance>::vector(gd::vector<EventTriggerInstance> const&)
PUBLIC 1a850 0 geode::stl::_rb_insert_rebalance(bool, geode::stl::_rb_tree_base*, geode::stl::_rb_tree_base*, geode::stl::_rb_tree_base&)
PUBLIC 1ab08 0 gd::vector<EventTriggerInstance>::operator=(gd::vector<EventTriggerInstance> const&)
PUBLIC 1acc4 0 gd::vector<EventTriggerInstance>::~vector()
PUBLIC 1ad44 0 std::__ndk1::__tree<std::__ndk1::__value_type<std::__ndk1::pair<GJGameEvent, int>, gd::vector<EventTriggerInstance> >, std::__ndk1::__map_value_compare<std::__ndk1::pair<GJGameEvent, int>, std::__ndk1::__value_type<std::__ndk1::pair<GJGameEvent, int>, gd::vector<EventTriggerInstance> >, std::__ndk1::less<std::__ndk1::pair<GJGameEvent, int> >, true>, std::__ndk1::allocator<std::__ndk1::__value_type<std::__ndk1::pair<GJGameEvent, int>, gd::vector<EventTriggerInstance> > > >::destroy(std::__ndk1::__tree_node<std::__ndk1::__value_type<std::__ndk1::pair<GJGameEvent, int>, gd::vector<EventTriggerInstance> >, void*>*)
PUBLIC 1addc 0 gd::map<std::__ndk1::pair<int, int>, SFXTriggerInstance>::erase(geode::stl::_rb_tree_node<std::__ndk1::pair<std::__ndk1::pair<int, int>, SFXTriggerInstance> >*)
PUBLIC 1ae30 0 gd::map<int, EnterEffectAnimValue>::erase(geode::stl::_rb_tree_node<std::__ndk1::pair<int, EnterEffectAnimValue> >*)
PUBLIC 1ae84 0 geode::stl::_Hashtable<int, std::__ndk1::pair<int const, std::__ndk1::vector<EnterEffectInstance, std::__ndk1::allocator<EnterEffectInstance> > >, std::__ndk1::allocator<std::__ndk1::pair<int const, std::__ndk1::vector<EnterEffectInstance, std::__ndk1::allocator<EnterEffectInstance> > > >, geode::stl::__detail::_Select1st, geode::stl::equal_to<int>, geode::stl::hash<int>, geode::stl::__detail::_Mod_range_hashing, geode::stl::__detail::_Default_ranged_hash, geode::stl::__detail::_Prime_rehash_policy, geode::stl::__detail::_Hashtable_traits<false, false, true> >::clear()
PUBLIC 1af2c 0 gd::map<std::__ndk1::pair<GJGameEvent, int>, int>::erase(geode::stl::_rb_tree_node<std::__ndk1::pair<std::__ndk1::pair<GJGameEvent, int>, int> >*)
PUBLIC 1af80 0 gd::map<std::__ndk1::pair<GJGameEvent, int>, gd::vector<EventTriggerInstance> >::erase(geode::stl::_rb_tree_node<std::__ndk1::pair<std::__ndk1::pair<GJGameEvent, int>, gd::vector<EventTriggerInstance> > >*)
PUBLIC 1b028 0 gd::map<std::__ndk1::pair<int, int>, int>::erase(geode::stl::_rb_tree_node<std::__ndk1::pair<std::__ndk1::pair<int, int>, int> >*)
PUBLIC 1b07c 0 std::__ndk1::shared_ptr<tulip::hook::CallingConvention>::~shared_ptr[abi:ne180000]()
PUBLIC 1b0cc 0 tulip::hook::HandlerMetadata::~HandlerMetadata()
PUBLIC 1b130 0 std::__ndk1::vector<tulip::hook::AbstractType, std::__ndk1::allocator<tulip::hook::AbstractType> >::__throw_length_error[abi:ne180000]() const
PUBLIC 1b144 0 std::__ndk1::__tree<std::__ndk1::__value_type<std::__ndk1::basic_string<char, std::__ndk1::char_traits<char>, std::__ndk1::allocator<char> >, std::__ndk1::shared_ptr<geode::Hook> >, std::__ndk1::__map_value_compare<std::__ndk1::basic_string<char, std::__ndk1::char_traits<char>, std::__ndk1::allocator<char> >, std::__ndk1::__value_type<std::__ndk1::basic_string<char, std::__ndk1::char_traits<char>, std::__ndk1::allocator<char> >, std::__ndk1::shared_ptr<geode::Hook> >, std::__ndk1::less<std::__ndk1::basic_string<char, std::__ndk1::char_traits<char>, std::__ndk1::allocator<char> > >, true>, std::__ndk1::allocator<std::__ndk1::__value_type<std::__ndk1::basic_string<char, std::__ndk1::char_traits<char>, std::__ndk1::allocator<char> >, std::__ndk1::shared_ptr<geode::Hook> > > >::__emplace_unique_key_args<std::__ndk1::basic_string<char, std::__ndk1::char_traits<char>, std::__ndk1::allocator<char> >, std::__ndk1::piecewise_construct_t const&, std::__ndk1::tuple<std::__ndk1::basic_string<char, std::__ndk1::char_traits<char>, std::__ndk1::allocator<char> >&&>, std::__ndk1::tuple<> >(std::__ndk1::basic_string<char, std::__ndk1::char_traits<char>, std::__ndk1::allocator<char> > const&, std::__ndk1::piecewise_construct_t const&, std::__ndk1::tuple<std::__ndk1::basic_string<char, std::__ndk1::char_traits<char>, std::__ndk1::allocator<char> >&&>, std::__ndk1::tuple<>)
PUBLIC 1b2bc 0 std::__ndk1::unique_ptr<std::__ndk1::__tree_node<std::__ndk1::__value_type<std::__ndk1::basic_string<char, std::__ndk1::char_traits<char>, std::__ndk1::allocator<char> >, std::__ndk1::shared_ptr<geode::Hook> >, void*>, std::__ndk1::__tree_node_destructor<std::__ndk1::allocator<std::__ndk1::__tree_node<std::__ndk1::__value_type<std::__ndk1::basic_string<char, std::__ndk1::char_traits<char>, std::__ndk1::allocator<char> >, std::__ndk1::shared_ptr<geode::Hook> >, void*> > > >::~unique_ptr[abi:ne180000]()
PUBLIC 1b338 0 std::__ndk1::__tree_balance_after_insert[abi:ne180000]<std::__ndk1::__tree_node_base<void*>*>(std::__ndk1::__tree_node_base<void*>*, std::__ndk1::__tree_node_base<void*>*)
PUBLIC 1b4e8 0 tulip::hook::AbstractFunction::from<void, CustomGJBaseGameLayer*, int, bool, bool>(void (*)(CustomGJBaseGameLayer*, int, bool, bool))
PUBLIC 1b79c 0 geode::modifier::ModifyBase<geode::modifier::ModifyDerive<ExtendedCCKeyboardDispatcher, cocos2d::CCKeyboardDispatcher> >::ModifyBase()
PUBLIC 1bbe0 0 geode::modifier::ModifyDerive<ExtendedCCKeyboardDispatcher, cocos2d::CCKeyboardDispatcher>::apply()
PUBLIC 1be90 0 geode::modifier::ModifyBase<geode::modifier::ModifyDerive<ExtendedCCKeyboardDispatcher, cocos2d::CCKeyboardDispatcher> >::apply()
PUBLIC 1be94 0 geode::modifier::ModifyBase<geode::modifier::ModifyDerive<ExtendedCCKeyboardDispatcher, cocos2d::CCKeyboardDispatcher> >::setHookPriority(std::__ndk1::basic_string_view<char, std::__ndk1::char_traits<char> >, int)
PUBLIC 1c004 0 geode::modifier::ModifyBase<geode::modifier::ModifyDerive<ExtendedCCKeyboardDispatcher, cocos2d::CCKeyboardDispatcher> >::getHook(std::__ndk1::basic_string_view<char, std::__ndk1::char_traits<char> >)
PUBLIC 1c1ac 0 std::__ndk1::__tree<std::__ndk1::__value_type<std::__ndk1::basic_string<char, std::__ndk1::char_traits<char>, std::__ndk1::allocator<char> >, std::__ndk1::shared_ptr<geode::Hook> >, std::__ndk1::__map_value_compare<std::__ndk1::basic_string<char, std::__ndk1::char_traits<char>, std::__ndk1::allocator<char> >, std::__ndk1::__value_type<std::__ndk1::basic_string<char, std::__ndk1::char_traits<char>, std::__ndk1::allocator<char> >, std::__ndk1::shared_ptr<geode::Hook> >, std::__ndk1::less<std::__ndk1::basic_string<char, std::__ndk1::char_traits<char>, std::__ndk1::allocator<char> > >, true>, std::__ndk1::allocator<std::__ndk1::__value_type<std::__ndk1::basic_string<char, std::__ndk1::char_traits<char>, std::__ndk1::allocator<char> >, std::__ndk1::shared_ptr<geode::Hook> > > >::__emplace_unique_key_args<std::__ndk1::basic_string<char, std::__ndk1::char_traits<char>, std::__ndk1::allocator<char> >, std::__ndk1::piecewise_construct_t const&, std::__ndk1::tuple<std::__ndk1::basic_string<char, std::__ndk1::char_traits<char>, std::__ndk1::allocator<char> > const&>, std::__ndk1::tuple<> >(std::__ndk1::basic_string<char, std::__ndk1::char_traits<char>, std::__ndk1::allocator<char> > const&, std::__ndk1::piecewise_construct_t const&, std::__ndk1::tuple<std::__ndk1::basic_string<char, std::__ndk1::char_traits<char>, std::__ndk1::allocator<char> > const&>, std::__ndk1::tuple<>)
PUBLIC 1c3a0 0 _ZN5geode15UnwrapExceptionC2IRNSt6__ndk112basic_stringIcNS2_11char_traitsIcEENS2_9allocatorIcEEEEQsr4implE18IsStringStreamableIT_EEENS_4impl6ErrTagEOSA_
PUBLIC 1c508 0 std::__ndk1::__variant_detail::__visitation::__base::__dispatcher<(unsigned long)0>::__dispatch[abi:ne180000]<std::__ndk1::__variant_detail::__dtor<std::__ndk1::__variant_detail::__traits<std::__ndk1::monostate, std::__ndk1::basic_string<char, std::__ndk1::char_traits<char>, std::__ndk1::allocator<char> > >, (std::__ndk1::__variant_detail::_Trait)1>::__destroy[abi:ne180000]()::{lambda(auto:1&)#1}, std::__ndk1::__variant_detail::__base<(std::__ndk1::__variant_detail::__traits<std::__ndk1::monostate, std::__ndk1::basic_string<char, std::__ndk1::char_traits<char>, std::__ndk1::allocator<char> > >)1, std::__ndk1::__variant_detail::__traits, std::__ndk1::allocator<char> >&>(std::__ndk1::__variant_detail::__dtor<std::__ndk1::__variant_detail::__traits<std::__ndk1::monostate, std::__ndk1::basic_string<char, std::__ndk1::char_traits<char>, std::__ndk1::allocator<char> > >, (std::__ndk1::__variant_detail::_Trait)1>, std::__ndk1::__variant_detail::__base<(std::__ndk1::__variant_detail::__traits<std::__ndk1::monostate, std::__ndk1::basic_string<char, std::__ndk1::char_traits<char>, std::__ndk1::allocator<char> > >)1, std::__ndk1::__variant_detail::__traits, std::__ndk1::allocator<char> >&)
PUBLIC 1c50c 0 std::__ndk1::__variant_detail::__visitation::__base::__dispatcher<(unsigned long)1>::__dispatch[abi:ne180000]<std::__ndk1::__variant_detail::__dtor<std::__ndk1::__variant_detail::__traits<std::__ndk1::monostate, std::__ndk1::basic_string<char, std::__ndk1::char_traits<char>, std::__ndk1::allocator<char> > >, (std::__ndk1::__variant_detail::_Trait)1>::__destroy[abi:ne180000]()::{lambda(auto:1&)#1}, std::__ndk1::__variant_detail::__base<(std::__ndk1::__variant_detail::__traits<std::__ndk1::monostate, std::__ndk1::basic_string<char, std::__ndk1::char_traits<char>, std::__ndk1::allocator<char> > >)1, std::__ndk1::__variant_detail::__traits, std::__ndk1::allocator<char> >&>(std::__ndk1::__variant_detail::__dtor<std::__ndk1::__variant_detail::__traits<std::__ndk1::monostate, std::__ndk1::basic_string<char, std::__ndk1::char_traits<char>, std::__ndk1::allocator<char> > >, (std::__ndk1::__variant_detail::_Trait)1>, std::__ndk1::__variant_detail::__base<(std::__ndk1::__variant_detail::__traits<std::__ndk1::monostate, std::__ndk1::basic_string<char, std::__ndk1::char_traits<char>, std::__ndk1::allocator<char> > >)1, std::__ndk1::__variant_detail::__traits, std::__ndk1::allocator<char> >&)
PUBLIC 1c520 0 geode::Hook::create<bool (*)(ExtendedCCKeyboardDispatcher*, cocos2d::enumKeyCodes, bool, bool)>(void*, bool (*)(ExtendedCCKeyboardDispatcher*, cocos2d::enumKeyCodes, bool, bool), std::__ndk1::basic_string<char, std::__ndk1::char_traits<char>, std::__ndk1::allocator<char> > const&, tulip::hook::TulipConvention, tulip::hook::HookMetadata const&)
PUBLIC 1c638 0 geode::modifier::AsStaticFunction_dispatchKeyboardMSG<ExtendedCCKeyboardDispatcher, bool (ExtendedCCKeyboardDispatcher::*)(cocos2d::enumKeyCodes, bool, bool)>::Impl<bool (ExtendedCCKeyboardDispatcher::*)(cocos2d::enumKeyCodes, bool, bool)>::function(ExtendedCCKeyboardDispatcher*, cocos2d::enumKeyCodes, bool, bool)
PUBLIC 1c71c 0 tulip::hook::AbstractFunction::from<bool, ExtendedCCKeyboardDispatcher*, cocos2d::enumKeyCodes, bool, bool>(bool (*)(ExtendedCCKeyboardDispatcher*, cocos2d::enumKeyCodes, bool, bool))
PUBLIC 1c9d0 0 geode::modifier::ModifyBase<geode::modifier::ModifyDerive<ExtendedCCTouchDispatcher, cocos2d::CCTouchDispatcher> >::ModifyBase()
PUBLIC 1ce14 0 geode::modifier::ModifyDerive<ExtendedCCTouchDispatcher, cocos2d::CCTouchDispatcher>::apply()
PUBLIC 1d0c0 0 geode::modifier::ModifyBase<geode::modifier::ModifyDerive<ExtendedCCTouchDispatcher, cocos2d::CCTouchDispatcher> >::apply()
PUBLIC 1d0c4 0 geode::modifier::ModifyBase<geode::modifier::ModifyDerive<ExtendedCCTouchDispatcher, cocos2d::CCTouchDispatcher> >::setHookPriority(std::__ndk1::basic_string_view<char, std::__ndk1::char_traits<char> >, int)
PUBLIC 1d234 0 geode::modifier::ModifyBase<geode::modifier::ModifyDerive<ExtendedCCTouchDispatcher, cocos2d::CCTouchDispatcher> >::getHook(std::__ndk1::basic_string_view<char, std::__ndk1::char_traits<char> >)
PUBLIC 1d3dc 0 geode::Hook::create<void (*)(ExtendedCCTouchDispatcher*, cocos2d::CCSet*, cocos2d::CCEvent*, unsigned int)>(void*, void (*)(ExtendedCCTouchDispatcher*, cocos2d::CCSet*, cocos2d::CCEvent*, unsigned int), std::__ndk1::basic_string<char, std::__ndk1::char_traits<char>, std::__ndk1::allocator<char> > const&, tulip::hook::TulipConvention, tulip::hook::HookMetadata const&)
PUBLIC 1d4f4 0 geode::modifier::AsStaticFunction_touches<ExtendedCCTouchDispatcher, void (ExtendedCCTouchDispatcher::*)(cocos2d::CCSet*, cocos2d::CCEvent*, unsigned int)>::Impl<void (ExtendedCCTouchDispatcher::*)(cocos2d::CCSet*, cocos2d::CCEvent*, unsigned int)>::function(ExtendedCCTouchDispatcher*, cocos2d::CCSet*, cocos2d::CCEvent*, unsigned int)
PUBLIC 1d5b4 0 tulip::hook::AbstractFunction::from<void, ExtendedCCTouchDispatcher*, cocos2d::CCSet*, cocos2d::CCEvent*, unsigned int>(void (*)(ExtendedCCTouchDispatcher*, cocos2d::CCSet*, cocos2d::CCEvent*, unsigned int))
PUBLIC 1d888 0 geode::modifier::ModifyBase<geode::modifier::ModifyDerive<AsyncUILayer, UILayer> >::ModifyBase()
PUBLIC 1dc90 0 geode::modifier::ModifyDerive<AsyncUILayer, UILayer>::apply()
PUBLIC 1e6a4 0 AsyncUILayer::onModify<geode::modifier::ModifyBase<geode::modifier::ModifyDerive<AsyncUILayer, UILayer> > >(geode::modifier::ModifyBase<geode::modifier::ModifyDerive<AsyncUILayer, UILayer> >&)
PUBLIC 1e774 0 geode::modifier::ModifyBase<geode::modifier::ModifyDerive<AsyncUILayer, UILayer> >::apply()
PUBLIC 1e778 0 geode::modifier::ModifyBase<geode::modifier::ModifyDerive<AsyncUILayer, UILayer> >::setHookPriority(std::__ndk1::basic_string_view<char, std::__ndk1::char_traits<char> >, int)
PUBLIC 1e8e8 0 geode::modifier::ModifyBase<geode::modifier::ModifyDerive<AsyncUILayer, UILayer> >::getHook(std::__ndk1::basic_string_view<char, std::__ndk1::char_traits<char> >)
PUBLIC 1ea90 0 geode::Hook::create<bool (*)(AsyncUILayer*, cocos2d::CCTouch*, cocos2d::CCEvent*)>(void*, bool (*)(AsyncUILayer*, cocos2d::CCTouch*, cocos2d::CCEvent*), std::__ndk1::basic_string<char, std::__ndk1::char_traits<char>, std::__ndk1::allocator<char> > const&, tulip::hook::TulipConvention, tulip::hook::HookMetadata const&)
PUBLIC 1eba8 0 geode::modifier::AsStaticFunction_ccTouchBegan<AsyncUILayer, bool (AsyncUILayer::*)(cocos2d::CCTouch*, cocos2d::CCEvent*)>::Impl<bool (AsyncUILayer::*)(cocos2d::CCTouch*, cocos2d::CCEvent*)>::function(AsyncUILayer*, cocos2d::CCTouch*, cocos2d::CCEvent*)
PUBLIC 1ec14 0 geode::Hook::create<void (*)(AsyncUILayer*, cocos2d::CCTouch*, cocos2d::CCEvent*)>(void*, void (*)(AsyncUILayer*, cocos2d::CCTouch*, cocos2d::CCEvent*), std::__ndk1::basic_string<char, std::__ndk1::char_traits<char>, std::__ndk1::allocator<char> > const&, tulip::hook::TulipConvention, tulip::hook::HookMetadata const&)
PUBLIC 1ed2c 0 geode::modifier::AsStaticFunction_ccTouchMoved<AsyncUILayer, void (AsyncUILayer::*)(cocos2d::CCTouch*, cocos2d::CCEvent*)>::Impl<void (AsyncUILayer::*)(cocos2d::CCTouch*, cocos2d::CCEvent*)>::function(AsyncUILayer*, cocos2d::CCTouch*, cocos2d::CCEvent*)
PUBLIC 1edb0 0 geode::modifier::AsStaticFunction_ccTouchEnded<AsyncUILayer, void (AsyncUILayer::*)(cocos2d::CCTouch*, cocos2d::CCEvent*)>::Impl<void (AsyncUILayer::*)(cocos2d::CCTouch*, cocos2d::CCEvent*)>::function(AsyncUILayer*, cocos2d::CCTouch*, cocos2d::CCEvent*)
PUBLIC 1ee10 0 geode::modifier::AsStaticFunction_ccTouchCancelled<AsyncUILayer, void (AsyncUILayer::*)(cocos2d::CCTouch*, cocos2d::CCEvent*)>::Impl<void (AsyncUILayer::*)(cocos2d::CCTouch*, cocos2d::CCEvent*)>::function(AsyncUILayer*, cocos2d::CCTouch*, cocos2d::CCEvent*)
PUBLIC 1ee80 0 geode::Hook::create<void (*)(AsyncUILayer*, cocos2d::enumKeyCodes, bool)>(void*, void (*)(AsyncUILayer*, cocos2d::enumKeyCodes, bool), std::__ndk1::basic_string<char, std::__ndk1::char_traits<char>, std::__ndk1::allocator<char> > const&, tulip::hook::TulipConvention, tulip::hook::HookMetadata const&)
PUBLIC 1ef98 0 geode::modifier::AsStaticFunction_handleKeypress<AsyncUILayer, void (AsyncUILayer::*)(cocos2d::enumKeyCodes, bool)>::Impl<void (AsyncUILayer::*)(cocos2d::enumKeyCodes, bool)>::function(AsyncUILayer*, cocos2d::enumKeyCodes, bool)
PUBLIC 1f010 0 geode::addresser::Addresser::addressOfVirtual<bool, UILayer, cocos2d::CCTouch*, cocos2d::CCEvent*>(bool (UILayer::*)(cocos2d::CCTouch*, cocos2d::CCEvent*))
PUBLIC 1f0fc 0 UILayer::UILayer(geode::ZeroConstructorType)
PUBLIC 1f17c 0 tulip::hook::AbstractFunction::from<bool, AsyncUILayer*, cocos2d::CCTouch*, cocos2d::CCEvent*>(bool (*)(AsyncUILayer*, cocos2d::CCTouch*, cocos2d::CCEvent*))
PUBLIC 1f284 0 geode::addresser::Addresser::addressOfVirtual<void, UILayer, cocos2d::CCTouch*, cocos2d::CCEvent*>(void (UILayer::*)(cocos2d::CCTouch*, cocos2d::CCEvent*))
PUBLIC 1f370 0 tulip::hook::AbstractFunction::from<void, AsyncUILayer*, cocos2d::CCTouch*, cocos2d::CCEvent*>(void (*)(AsyncUILayer*, cocos2d::CCTouch*, cocos2d::CCEvent*))
PUBLIC 1f478 0 tulip::hook::AbstractFunction::from<void, AsyncUILayer*, cocos2d::enumKeyCodes, bool>(void (*)(AsyncUILayer*, cocos2d::enumKeyCodes, bool))
PUBLIC 1f584 0 std::__ndk1::vector<PlayerButtonCommand, std::__ndk1::allocator<PlayerButtonCommand> >::__throw_length_error[abi:ne180000]() const
PUBLIC 1f598 0 geode::cast::traverseTypeinfoFor(void*, geode::cast::ClassTypeinfoType const*, char const*)
PUBLIC 1f69c 0 cocos2d::CCLayerRGBA::setOpacityModifyRGB(bool)
PUBLIC 1f6a0 0 cocos2d::CCLayerRGBA::isOpacityModifyRGB()
PUBLIC 1f6a8 0 {virtual override thunk({offset(-408)}, cocos2d::CCLayerRGBA::setOpacityModifyRGB(bool))}
PUBLIC 1f6ac 0 {virtual override thunk({offset(-408)}, cocos2d::CCLayerRGBA::isOpacityModifyRGB())}
PUBLIC 1f6b4 0 geode::modifier::FieldIntermediate<AsyncUILayer, UILayer>::self()
PUBLIC 1f838 0 geode::modifier::FieldIntermediate<AsyncUILayer, UILayer>::fieldDestructor(void*)
PUBLIC 1f83c 0 ExtendedCCEvent::~ExtendedCCEvent()
PUBLIC 1f860 0 cocos2d::CCObject::update(float)
PUBLIC 1f864 0 _JNIEnv::CallStaticBooleanMethod(_jclass*, _jmethodID*, ...)
PUBLIC 1f900 0 JNI_setNextInputTimestamp(_JNIEnv*, _jobject*, long)
PUBLIC 1f930 0 _GLOBAL__sub_I_android.cpp
PUBLIC m 1fb4c 0 geodeImplicitEntry
PUBLIC 1fb88 0 std::__ndk1::unordered_map<void*, bool, std::__ndk1::hash<void*>, std::__ndk1::equal_to<void*>, std::__ndk1::allocator<std::__ndk1::pair<void* const, bool> > >::~unordered_map[abi:ne180000]()
PUBLIC 1fbd4 0 wrapFunction(unsigned long, tulip::hook::WrapperMetadata const&)
PUBLIC 1fd08 0 geode::impl::ResultData<void*, std::__ndk1::basic_string<char, std::__ndk1::char_traits<char>, std::__ndk1::allocator<char> > >::unwrapErr() &
PUBLIC 1fd80 0 geode::impl::ResultData<void*, std::__ndk1::basic_string<char, std::__ndk1::char_traits<char>, std::__ndk1::allocator<char> > >::~ResultData()
PUBLIC 1fdf4 0 tulip::hook::WrapperMetadata::~WrapperMetadata()
PUBLIC 1fe58 0 cocos2d::CCObject::CCObject()
PUBLIC 2007c 0 cocos2d::CCObject::~CCObject()
PUBLIC 200a0 0 cocos2d::CCNode::~CCNode()
PUBLIC 200c4 0 {virtual override thunk({offset(-320)}, cocos2d::CCLayer::~CCLayer())}
PUBLIC 200cc 0 cocos2d::CCLayer::~CCLayer()
PUBLIC 200f0 0 {virtual override thunk({offset(-320)}, cocos2d::CCLayer::~CCLayer())}
PUBLIC 20118 0 cocos2d::CCLayerRGBA::~CCLayerRGBA()
PUBLIC 20418 0 {virtual override thunk({offset(-320)}, cocos2d::CCLayerRGBA::~CCLayerRGBA())}
PUBLIC 20420 0 cocos2d::CCLayerRGBA::~CCLayerRGBA()
PUBLIC 20444 0 {virtual override thunk({offset(-320)}, cocos2d::CCLayerRGBA::~CCLayerRGBA())}
PUBLIC 2046c 0 {virtual override thunk({offset(-320)}, cocos2d::CCLayerColor::~CCLayerColor())}
PUBLIC 20474 0 cocos2d::CCLayerColor::~CCLayerColor()
PUBLIC 20498 0 {virtual override thunk({offset(-320)}, cocos2d::CCLayerColor::~CCLayerColor())}
PUBLIC 204c0 0 GJBaseGameLayer::~GJBaseGameLayer()
PUBLIC 2147c 0 {virtual override thunk({offset(-320)}, GJBaseGameLayer::~GJBaseGameLayer())}
PUBLIC 21484 0 GJBaseGameLayer::~GJBaseGameLayer()
PUBLIC 214a8 0 {virtual override thunk({offset(-320)}, GJBaseGameLayer::~GJBaseGameLayer())}
PUBLIC 214d0 0 GJBaseGameLayer::toggleGroupTriggered(int, bool, gd::vector<int> const&, int, int)
PUBLIC 21650 0 tulip::hook::AbstractFunction::from<void, GJBaseGameLayer*, int, bool, gd::vector<int> const&, int, int>(void (*)(GJBaseGameLayer*, int, bool, gd::vector<int> const&, int, int))
PUBLIC 21afc 0 {virtual override thunk({offset(-408)}, GJBaseGameLayer::toggleGroupTriggered(int, bool, gd::vector<int> const&, int, int))}
PUBLIC 21b04 0 GJBaseGameLayer::spawnGroup(int, bool, double, gd::vector<int> const&, int, int)
PUBLIC 21c94 0 tulip::hook::AbstractFunction::from<void, GJBaseGameLayer*, int, bool, double, gd::vector<int> const&, int, int>(void (*)(GJBaseGameLayer*, int, bool, double, gd::vector<int> const&, int, int))
PUBLIC 22240 0 {virtual override thunk({offset(-408)}, GJBaseGameLayer::spawnGroup(int, bool, double, gd::vector<int> const&, int, int))}
PUBLIC 22248 0 GJBaseGameLayer::spawnObject(GameObject*, double, gd::vector<int> const&)
PUBLIC 223b8 0 tulip::hook::AbstractFunction::from<void, GJBaseGameLayer*, GameObject*, double, gd::vector<int> const&>(void (*)(GJBaseGameLayer*, GameObject*, double, gd::vector<int> const&))
PUBLIC 2268c 0 {virtual override thunk({offset(-408)}, GJBaseGameLayer::spawnObject(GameObject*, double, gd::vector<int> const&))}
PUBLIC 22694 0 GJBaseGameLayer::activatePlatformerEndTrigger(EndTriggerGameObject*, gd::vector<int> const&)
PUBLIC 227e0 0 tulip::hook::AbstractFunction::from<void, GJBaseGameLayer*, EndTriggerGameObject*, gd::vector<int> const&>(void (*)(GJBaseGameLayer*, EndTriggerGameObject*, gd::vector<int> const&))
PUBLIC 228e8 0 GJBaseGameLayer::toggleGlitter(bool)
PUBLIC 228ec 0 GJBaseGameLayer::timeForPos(cocos2d::CCPoint, int, int, bool, int)
PUBLIC 228f4 0 GJBaseGameLayer::posForTime(float)
PUBLIC 228fc 0 GJBaseGameLayer::resetSPTriggered()
PUBLIC 22900 0 GJBaseGameLayer::createCustomParticle(gd::string const&, cocos2d::ParticleStruct const&, int, bool)
PUBLIC 22a64 0 tulip::hook::AbstractFunction::from<TodoReturnPlaceholder, GJBaseGameLayer*, gd::string const&, cocos2d::ParticleStruct const&, int, bool>(TodoReturnPlaceholder (*)(GJBaseGameLayer*, gd::string const&, cocos2d::ParticleStruct const&, int, bool))
PUBLIC 22e38 0 GJBaseGameLayer::claimCustomParticle(gd::string const&, cocos2d::ParticleStruct const&, int, int, int, bool)
PUBLIC 22fb4 0 tulip::hook::AbstractFunction::from<TodoReturnPlaceholder, GJBaseGameLayer*, gd::string const&, cocos2d::ParticleStruct const&, int, int, int, bool>(TodoReturnPlaceholder (*)(GJBaseGameLayer*, gd::string const&, cocos2d::ParticleStruct const&, int, int, int, bool))
PUBLIC 23588 0 GJBaseGameLayer::unclaimCustomParticle(gd::string const&, cocos2d::CCParticleSystemQuad*)
PUBLIC 236d4 0 tulip::hook::AbstractFunction::from<TodoReturnPlaceholder, GJBaseGameLayer*, gd::string const&, cocos2d::CCParticleSystemQuad*>(TodoReturnPlaceholder (*)(GJBaseGameLayer*, gd::string const&, cocos2d::CCParticleSystemQuad*))
PUBLIC 237dc 0 UILayer::draw()
PUBLIC 237e0 0 cocos2d::CCLayerColor::~CCLayerColor()
PUBLIC 23ac4 0 UILayer::~UILayer()
PUBLIC 23ae8 0 {virtual override thunk({offset(-320)}, UILayer::~UILayer())}
PUBLIC 23af0 0 {virtual override thunk({offset(-320)}, UILayer::~UILayer())}
PUBLIC 23b18 0 cocos2d::CCNode::~CCNode()
PUBLIC 23db8 0 cocos2d::CCLayer::~CCLayer()
PUBLIC 240a8 0 cocos2d::CCObject::~CCObject()
PUBLIC 2459c 0 _ZN5geode15UnwrapExceptionC2IRPvQsr4implE18IsStringStreamableIT_EEENS_4impl5OkTagEOS4_
PUBLIC 246f0 0 std::__ndk1::__variant_detail::__visitation::__base::__dispatcher<(unsigned long)0>::__dispatch[abi:ne180000]<std::__ndk1::__variant_detail::__dtor<std::__ndk1::__variant_detail::__traits<void*, std::__ndk1::basic_string<char, std::__ndk1::char_traits<char>, std::__ndk1::allocator<char> > >, (std::__ndk1::__variant_detail::_Trait)1>::__destroy[abi:ne180000]()::{lambda(auto:1&)#1}, std::__ndk1::__variant_detail::__base<(std::__ndk1::__variant_detail::__traits<void*, std::__ndk1::basic_string<char, std::__ndk1::char_traits<char>, std::__ndk1::allocator<char> > >)1, std::__ndk1::__variant_detail::__traits, std::__ndk1::allocator<char> >&>(std::__ndk1::__variant_detail::__dtor<std::__ndk1::__variant_detail::__traits<void*, std::__ndk1::basic_string<char, std::__ndk1::char_traits<char>, std::__ndk1::allocator<char> > >, (std::__ndk1::__variant_detail::_Trait)1>, std::__ndk1::__variant_detail::__base<(std::__ndk1::__variant_detail::__traits<void*, std::__ndk1::basic_string<char, std::__ndk1::char_traits<char>, std::__ndk1::allocator<char> > >)1, std::__ndk1::__variant_detail::__traits, std::__ndk1::allocator<char> >&)
PUBLIC 246f4 0 std::__ndk1::__variant_detail::__visitation::__base::__dispatcher<(unsigned long)1>::__dispatch[abi:ne180000]<std::__ndk1::__variant_detail::__dtor<std::__ndk1::__variant_detail::__traits<void*, std::__ndk1::basic_string<char, std::__ndk1::char_traits<char>, std::__ndk1::allocator<char> > >, (std::__ndk1::__variant_detail::_Trait)1>::__destroy[abi:ne180000]()::{lambda(auto:1&)#1}, std::__ndk1::__variant_detail::__base<(std::__ndk1::__variant_detail::__traits<void*, std::__ndk1::basic_string<char, std::__ndk1::char_traits<char>, std::__ndk1::allocator<char> > >)1, std::__ndk1::__variant_detail::__traits, std::__ndk1::allocator<char> >&>(std::__ndk1::__variant_detail::__dtor<std::__ndk1::__variant_detail::__traits<void*, std::__ndk1::basic_string<char, std::__ndk1::char_traits<char>, std::__ndk1::allocator<char> > >, (std::__ndk1::__variant_detail::_Trait)1>, std::__ndk1::__variant_detail::__base<(std::__ndk1::__variant_detail::__traits<void*, std::__ndk1::basic_string<char, std::__ndk1::char_traits<char>, std::__ndk1::allocator<char> > >)1, std::__ndk1::__variant_detail::__traits, std::__ndk1::allocator<char> >&)
PUBLIC 24708 0 std::__ndk1::__hash_table<std::__ndk1::__hash_value_type<void*, bool>, std::__ndk1::__unordered_map_hasher<void*, std::__ndk1::__hash_value_type<void*, bool>, std::__ndk1::hash<void*>, std::__ndk1::equal_to<void*>, true>, std::__ndk1::__unordered_map_equal<void*, std::__ndk1::__hash_value_type<void*, bool>, std::__ndk1::equal_to<void*>, std::__ndk1::hash<void*>, true>, std::__ndk1::allocator<std::__ndk1::__hash_value_type<void*, bool> > >::__emplace_unique_key_args<void*, std::__ndk1::piecewise_construct_t const&, std::__ndk1::tuple<void* const&>, std::__ndk1::tuple<> >(void* const&, std::__ndk1::piecewise_construct_t const&, std::__ndk1::tuple<void* const&>, std::__ndk1::tuple<>)
PUBLIC 24c20 0 <.plt ELF section in zmx.cbf-lite.android64.so>
STACK CFI INIT 13d80 10 .cfa: sp 0 +
STACK CFI INIT 13d90 8 .cfa: sp 0 +
STACK CFI INIT 13d98 8 .cfa: sp 0 +
STACK CFI INIT 13da0 14 .cfa: sp 0 +
STACK CFI INIT 13db4 1c .cfa: sp 0 +
STACK CFI INIT 13dd0 10 .cfa: sp 0 +
STACK CFI INIT 13de0 30 .cfa: sp 0 +
STACK CFI INIT 13e10 98 .cfa: sp 0 +
STACK CFI INIT 13ea8 59c .cfa: sp 0 +
STACK CFI INIT 14444 8c .cfa: sp 0 +
STACK CFI INIT 144d0 30 .cfa: sp 0 +
STACK CFI INIT 14500 1a4 .cfa: sp 0 +
STACK CFI 14504 .cfa: sp 128 +
STACK CFI 14520 .cfa: x29 96 + x19: .cfa -8 + ^ x20: .cfa -16 + ^ x21: .cfa -24 + ^ x22: .cfa -32 + ^ x23: .cfa -40 + ^ x24: .cfa -48 + ^ x25: .cfa -56 + ^ x26: .cfa -64 + ^ x27: .cfa -80 + ^ .ra: .cfa -88 + ^ x29: .cfa -96 + ^
STACK CFI 14570 .cfa: sp 128 +
STACK CFI 1458c .cfa: sp 0 +
STACK CFI 14590 .cfa: x29 96 +
STACK CFI 14680 .cfa: sp 128 +
STACK CFI 1469c .cfa: sp 0 +
STACK CFI 146a0 .cfa: x29 96 +
STACK CFI INIT 146a4 1b8 .cfa: sp 0 +
STACK CFI 146a8 .cfa: sp 64 +
STACK CFI 146b8 .cfa: x29 64 + x19: .cfa -8 + ^ x20: .cfa -16 + ^ x21: .cfa -24 + ^ x22: .cfa -32 + ^ x23: .cfa -40 + ^ x24: .cfa -48 + ^ .ra: .cfa -56 + ^ x29: .cfa -64 + ^
STACK CFI 14840 .cfa: sp 64 +
STACK CFI 14850 .cfa: sp 0 +
STACK CFI 14854 .cfa: x29 64 +
STACK CFI INIT 1485c 11c .cfa: sp 0 +
STACK CFI 14860 .cfa: sp 48 +
STACK CFI 1486c .cfa: x29 48 + x19: .cfa -8 + ^ x20: .cfa -16 + ^ x21: .cfa -24 + ^ x22: .cfa -32 + ^ .ra: .cfa -40 + ^ x29: .cfa -48 + ^
STACK CFI 14968 .cfa: sp 48 +
STACK CFI 14974 .cfa: sp 0 +
STACK CFI INIT 14bc4 23c .cfa: sp 0 +
STACK CFI 14bc8 .cfa: sp 112 +
STACK CFI 14be0 .cfa: x29 64 + x19: .cfa -8 + ^ x20: .cfa -16 + ^ x21: .cfa -24 + ^ x22: .cfa -32 + ^ x23: .cfa -40 + ^ x24: .cfa -48 + ^ .ra: .cfa -56 + ^ x29: .cfa -64 + ^ v8: .cfa -80 + ^
STACK CFI 14de0 .cfa: sp 112 +
STACK CFI 14df8 .cfa: sp 0 +
STACK CFI 14dfc .cfa: x29 64 +
STACK CFI INIT 15264 200 .cfa: sp 0 +
STACK CFI 15268 .cfa: sp 96 +
STACK CFI 1527c .cfa: x29 64 + x19: .cfa -8 + ^ x20: .cfa -16 + ^ x21: .cfa -24 + ^ x22: .cfa -32 + ^ x23: .cfa -48 + ^ .ra: .cfa -56 + ^ x29: .cfa -64 + ^
STACK CFI 15448 .cfa: sp 96 +
STACK CFI 1545c .cfa: sp 0 +
STACK CFI 15460 .cfa: x29 64 +
STACK CFI INIT 15464 100 .cfa: sp 0 +
STACK CFI 15468 .cfa: sp 96 +
STACK CFI 15480 .cfa: x29 56 + x19: .cfa -8 + ^ x20: .cfa -16 + ^ x21: .cfa -24 + ^ x22: .cfa -32 + ^ x23: .cfa -40 + ^ .ra: .cfa -48 + ^ x29: .cfa -56 + ^ v8: .cfa -64 + ^
STACK CFI 15544 .cfa: sp 96 +
STACK CFI 1555c .cfa: sp 0 +
STACK CFI 15560 .cfa: x29 56 +
STACK CFI INIT 15564 8 .cfa: sp 0 +
STACK CFI INIT 1556c 4 .cfa: sp 0 +
STACK CFI INIT 15570 4 .cfa: sp 0 +
STACK CFI INIT 15574 4 .cfa: sp 0 +
STACK CFI INIT 15578 4 .cfa: sp 0 +
STACK CFI INIT 1557c 60 .cfa: sp 0 +
STACK CFI 1558c .cfa: sp 32 +
STACK CFI 15594 .cfa: x29 32 + x19: .cfa -16 + ^ .ra: .cfa -24 + ^ x29: .cfa -32 + ^
STACK CFI 155cc .cfa: sp 32 +
STACK CFI 155d4 .cfa: sp 0 +
STACK CFI INIT 155dc 1c .cfa: sp 0 +
STACK CFI INIT 155f8 60 .cfa: sp 0 +
STACK CFI 15608 .cfa: sp 32 +
STACK CFI 15610 .cfa: x29 32 + x19: .cfa -16 + ^ .ra: .cfa -24 + ^ x29: .cfa -32 + ^
STACK CFI 15648 .cfa: sp 32 +
STACK CFI 15650 .cfa: sp 0 +
STACK CFI INIT 15658 1c .cfa: sp 0 +
STACK CFI INIT 15674 60 .cfa: sp 0 +
STACK CFI 15684 .cfa: sp 32 +
STACK CFI 1568c .cfa: x29 32 + x19: .cfa -16 + ^ .ra: .cfa -24 + ^ x29: .cfa -32 + ^
STACK CFI 156c4 .cfa: sp 32 +
STACK CFI 156cc .cfa: sp 0 +
STACK CFI INIT 156d4 1c .cfa: sp 0 +
STACK CFI INIT 156f0 60 .cfa: sp 0 +
STACK CFI 15700 .cfa: sp 32 +
STACK CFI 15708 .cfa: x29 32 + x19: .cfa -16 + ^ .ra: .cfa -24 + ^ x29: .cfa -32 + ^
STACK CFI 15740 .cfa: sp 32 +
STACK CFI 15748 .cfa: sp 0 +
STACK CFI INIT 15750 1c .cfa: sp 0 +
STACK CFI INIT 15cc8 18 .cfa: sp 0 +
STACK CFI INIT 15ce0 14 .cfa: sp 0 +
STACK CFI 15ce4 .cfa: sp 16 +
STACK CFI 15ce8 .cfa: x29 16 + .ra: .cfa -8 + ^ x29: .cfa -16 + ^
STACK CFI INIT 15cf4 10 .cfa: sp 0 +
STACK CFI 15cf8 .cfa: sp 16 +
STACK CFI 15cfc .cfa: x29 16 + .ra: .cfa -8 + ^ x29: .cfa -16 + ^
STACK CFI INIT 15d54 30 .cfa: sp 0 +
STACK CFI 15d58 .cfa: sp 32 +
STACK CFI 15d60 .cfa: x29 32 + x19: .cfa -16 + ^ .ra: .cfa -24 + ^ x29: .cfa -32 + ^
STACK CFI 15d78 .cfa: sp 32 +
STACK CFI 15d80 .cfa: sp 0 +
STACK CFI INIT 15d84 34 .cfa: sp 0 +
STACK CFI 15d88 .cfa: sp 32 +
STACK CFI 15d90 .cfa: x29 32 + x19: .cfa -16 + ^ .ra: .cfa -24 + ^ x29: .cfa -32 + ^
STACK CFI INIT 15fe4 14 .cfa: sp 0 +
STACK CFI 15fe8 .cfa: sp 16 +
STACK CFI 15fec .cfa: x29 16 + .ra: .cfa -8 + ^ x29: .cfa -16 + ^
STACK CFI INIT 15ff8 14 .cfa: sp 0 +
STACK CFI 15ffc .cfa: sp 16 +
STACK CFI 16000 .cfa: x29 16 + .ra: .cfa -8 + ^ x29: .cfa -16 + ^
STACK CFI INIT 1605c 30 .cfa: sp 0 +
STACK CFI 16060 .cfa: sp 32 +
STACK CFI 16068 .cfa: x29 32 + x19: .cfa -16 + ^ .ra: .cfa -24 + ^ x29: .cfa -32 + ^
STACK CFI 16080 .cfa: sp 32 +
STACK CFI 16088 .cfa: sp 0 +
STACK CFI INIT 1608c 14 .cfa: sp 0 +
STACK CFI 16090 .cfa: sp 16 +
STACK CFI 16094 .cfa: x29 16 + .ra: .cfa -8 + ^ x29: .cfa -16 + ^
STACK CFI INIT 160a0 4 .cfa: sp 0 +
STACK CFI INIT 160a4 4 .cfa: sp 0 +
STACK CFI INIT 160a8 38 .cfa: sp 0 +
STACK CFI 160ac .cfa: sp 32 +
STACK CFI 160b4 .cfa: x29 32 + x19: .cfa -16 + ^ .ra: .cfa -24 + ^ x29: .cfa -32 + ^
STACK CFI 160d4 .cfa: sp 32 +
STACK CFI 160dc .cfa: sp 0 +
STACK CFI INIT 160e0 18 .cfa: sp 0 +
STACK CFI INIT 160f8 4 .cfa: sp 0 +
STACK CFI INIT 160fc 4 .cfa: sp 0 +
STACK CFI INIT 16100 10 .cfa: sp 0 +
STACK CFI INIT 16110 1c .cfa: sp 0 +
STACK CFI INIT 1612c c .cfa: sp 0 +
STACK CFI INIT 16dc8 50 .cfa: sp 0 +
STACK CFI 16dcc .cfa: sp 32 +
STACK CFI 16dd4 .cfa: x29 32 + x19: .cfa -16 + ^ .ra: .cfa -24 + ^ x29: .cfa -32 + ^
STACK CFI 16dec .cfa: sp 32 +
STACK CFI 16df4 .cfa: sp 0 +
STACK CFI 16df8 .cfa: x29 32 +
STACK CFI 16e0c .cfa: sp 32 +
STACK CFI 16e14 .cfa: sp 0 +
STACK CFI INIT 16e8c 7c .cfa: sp 0 +
STACK CFI 16e90 .cfa: sp 48 +
STACK CFI 16e9c .cfa: x29 48 + x19: .cfa -8 + ^ x20: .cfa -16 + ^ x21: .cfa -32 + ^ .ra: .cfa -40 + ^ x29: .cfa -48 + ^
STACK CFI 16ee8 .cfa: sp 48 +
STACK CFI 16ef4 .cfa: sp 0 +
STACK CFI 16ef8 .cfa: sp 48 +
STACK CFI 16f04 .cfa: sp 0 +
STACK CFI INIT 16f08 4 .cfa: sp 0 +
STACK CFI INIT 17060 34 .cfa: sp 0 +
STACK CFI 17064 .cfa: sp 16 +
STACK CFI 17068 .cfa: x29 16 + .ra: .cfa -8 + ^ x29: .cfa -16 + ^
STACK CFI INIT 171c0 80 .cfa: sp 0 +
STACK CFI 171c4 .cfa: sp 48 +
STACK CFI 171d0 .cfa: x29 48 + x19: .cfa -8 + ^ x20: .cfa -16 + ^ x21: .cfa -32 + ^ .ra: .cfa -40 + ^ x29: .cfa -48 + ^
STACK CFI 17230 .cfa: sp 48 +
STACK CFI 1723c .cfa: sp 0 +
STACK CFI INIT 17240 24 .cfa: sp 0 +
STACK CFI 17244 .cfa: sp 32 +
STACK CFI 1724c .cfa: x29 32 + x19: .cfa -16 + ^ .ra: .cfa -24 + ^ x29: .cfa -32 + ^
STACK CFI 17258 .cfa: sp 32 +
STACK CFI 17260 .cfa: sp 0 +
STACK CFI INIT 175e4 14 .cfa: sp 0 +
STACK CFI 175e8 .cfa: sp 16 +
STACK CFI 175ec .cfa: x29 16 + .ra: .cfa -8 + ^ x29: .cfa -16 + ^
STACK CFI INIT 17770 148 .cfa: sp 0 +
STACK CFI 17774 .cfa: sp 48 +
STACK CFI 17780 .cfa: x29 48 + x19: .cfa -8 + ^ x20: .cfa -16 + ^ x21: .cfa -32 + ^ .ra: .cfa -40 + ^ x29: .cfa -48 + ^
STACK CFI 178a8 .cfa: sp 48 +
STACK CFI 178b4 .cfa: sp 0 +
STACK CFI INIT 17ae0 80 .cfa: sp 0 +
STACK CFI 17ae4 .cfa: sp 48 +
STACK CFI 17af0 .cfa: x29 48 + x19: .cfa -8 + ^ x20: .cfa -16 + ^ x21: .cfa -24 + ^ x22: .cfa -32 + ^ .ra: .cfa -40 + ^ x29: .cfa -48 + ^
STACK CFI 17b08 .cfa: sp 48 +
STACK CFI 17b14 .cfa: sp 0 +
STACK CFI 17b18 .cfa: x29 48 +
STACK CFI 17b48 .cfa: sp 48 +
STACK CFI 17b54 .cfa: sp 0 +
STACK CFI 17b58 .cfa: x29 48 +
STACK CFI INIT 17b60 68 .cfa: sp 0 +
STACK CFI 17b64 .cfa: sp 32 +
STACK CFI 17b6c .cfa: x29 32 + x19: .cfa -8 + ^ x20: .cfa -16 + ^ .ra: .cfa -24 + ^ x29: .cfa -32 + ^
STACK CFI 17b84 .cfa: sp 32 +
STACK CFI 17b8c .cfa: sp 0 +
STACK CFI 17b90 .cfa: x29 32 +
STACK CFI 17bbc .cfa: sp 32 +
STACK CFI 17bc4 .cfa: sp 0 +
STACK CFI INIT 17bc8 14 .cfa: sp 0 +
STACK CFI 17bcc .cfa: sp 16 +
STACK CFI 17bd0 .cfa: x29 16 + .ra: .cfa -8 + ^ x29: .cfa -16 + ^
STACK CFI INIT 17bdc 4 .cfa: sp 0 +
STACK CFI INIT 17be0 14 .cfa: sp 0 +
STACK CFI INIT 17bf4 120 .cfa: sp 0 +
STACK CFI 17bf8 .cfa: sp 64 +
STACK CFI 17c08 .cfa: x29 64 + x19: .cfa -8 + ^ x20: .cfa -16 + ^ x21: .cfa -24 + ^ x22: .cfa -32 + ^ x23: .cfa -40 + ^ x24: .cfa -48 + ^ .ra: .cfa -56 + ^ x29: .cfa -64 + ^
STACK CFI 17d00 .cfa: sp 64 +
STACK CFI 17d10 .cfa: sp 0 +
STACK CFI INIT 17d14 d4 .cfa: sp 0 +
STACK CFI 17d18 .cfa: sp 48 +
STACK CFI 17d24 .cfa: x29 48 + x19: .cfa -8 + ^ x20: .cfa -16 + ^ x21: .cfa -32 + ^ .ra: .cfa -40 + ^ x29: .cfa -48 + ^
STACK CFI 17db4 .cfa: sp 48 +
STACK CFI 17dc0 .cfa: sp 0 +
STACK CFI 17dc4 .cfa: x29 48 +
STACK CFI INIT 17de8 3c8 .cfa: sp 0 +
STACK CFI INIT 181b0 8c .cfa: sp 0 +
STACK CFI 181b8 .cfa: sp 32 +
STACK CFI 181c0 .cfa: x29 32 + x19: .cfa -8 + ^ x20: .cfa -16 + ^ .ra: .cfa -24 + ^ x29: .cfa -32 + ^
STACK CFI 18208 .cfa: sp 32 +
STACK CFI 18210 .cfa: sp 0 +
STACK CFI 18218 .cfa: x29 32 +
STACK CFI INIT 183c0 4 .cfa: sp 0 +
STACK CFI INIT 183c4 5c .cfa: sp 0 +
STACK CFI 183c8 .cfa: sp 48 +
STACK CFI 183d4 .cfa: x29 32 + x19: .cfa -16 + ^ .ra: .cfa -24 + ^ x29: .cfa -32 + ^ v8: .cfa -40 + ^ v9: .cfa -48 + ^
STACK CFI 18410 .cfa: sp 48 +
STACK CFI 1841c .cfa: sp 0 +
STACK CFI INIT 18538 4 .cfa: sp 0 +
STACK CFI INIT 18670 4 .cfa: sp 0 +
STACK CFI INIT 19488 78 .cfa: sp 0 +
STACK CFI 1948c .cfa: sp 48 +
STACK CFI 19498 .cfa: x29 48 + x19: .cfa -8 + ^ x20: .cfa -16 + ^ x21: .cfa -32 + ^ .ra: .cfa -40 + ^ x29: .cfa -48 + ^
STACK CFI 194e0 .cfa: sp 48 +
STACK CFI 194ec .cfa: sp 0 +
STACK CFI 194f0 .cfa: sp 48 +
STACK CFI 194fc .cfa: sp 0 +
STACK CFI INIT 19500 78 .cfa: sp 0 +
STACK CFI 19504 .cfa: sp 48 +
STACK CFI 19510 .cfa: x29 48 + x19: .cfa -8 + ^ x20: .cfa -16 + ^ x21: .cfa -32 + ^ .ra: .cfa -40 + ^ x29: .cfa -48 + ^
STACK CFI 19558 .cfa: sp 48 +
STACK CFI 19564 .cfa: sp 0 +
STACK CFI 19568 .cfa: sp 48 +
STACK CFI 19574 .cfa: sp 0 +
STACK CFI INIT 19578 84 .cfa: sp 0 +
STACK CFI 1957c .cfa: sp 48 +
STACK CFI 19588 .cfa: x29 48 + x19: .cfa -8 + ^ x20: .cfa -16 + ^ x21: .cfa -24 + ^ x22: .cfa -32 + ^ .ra: .cfa -40 + ^ x29: .cfa -48 + ^
STACK CFI 195dc .cfa: sp 48 +
STACK CFI 195e8 .cfa: sp 0 +
STACK CFI 195ec .cfa: sp 48 +
STACK CFI 195f8 .cfa: sp 0 +
STACK CFI INIT 19618 8c .cfa: sp 0 +
STACK CFI 1961c .cfa: sp 48 +
STACK CFI 19628 .cfa: x29 48 + x19: .cfa -8 + ^ x20: .cfa -16 + ^ x21: .cfa -24 + ^ x22: .cfa -32 + ^ .ra: .cfa -40 + ^ x29: .cfa -48 + ^
STACK CFI 19660 .cfa: sp 48 +
STACK CFI 1966c .cfa: sp 0 +
STACK CFI 19670 .cfa: x29 48 +
STACK CFI 19694 .cfa: sp 48 +
STACK CFI 196a0 .cfa: sp 0 +
STACK CFI INIT 196a4 78 .cfa: sp 0 +
STACK CFI 196a8 .cfa: sp 48 +
STACK CFI 196b4 .cfa: x29 48 + x19: .cfa -8 + ^ x20: .cfa -16 + ^ x21: .cfa -32 + ^ .ra: .cfa -40 + ^ x29: .cfa -48 + ^
STACK CFI 196fc .cfa: sp 48 +
STACK CFI 19708 .cfa: sp 0 +
STACK CFI 1970c .cfa: sp 48 +
STACK CFI 19718 .cfa: sp 0 +
STACK CFI INIT 1971c 8c .cfa: sp 0 +
STACK CFI 19720 .cfa: sp 48 +
STACK CFI 1972c .cfa: x29 48 + x19: .cfa -8 + ^ x20: .cfa -16 + ^ x21: .cfa -24 + ^ x22: .cfa -32 + ^ .ra: .cfa -40 + ^ x29: .cfa -48 + ^
STACK CFI 19764 .cfa: sp 48 +
STACK CFI 19770 .cfa: sp 0 +
STACK CFI 19774 .cfa: x29 48 +
STACK CFI 19798 .cfa: sp 48 +
STACK CFI 197a4 .cfa: sp 0 +
STACK CFI INIT 197a8 78 .cfa: sp 0 +
STACK CFI 197ac .cfa: sp 48 +
STACK CFI 197b8 .cfa: x29 48 + x19: .cfa -8 + ^ x20: .cfa -16 + ^ x21: .cfa -32 + ^ .ra: .cfa -40 + ^ x29: .cfa -48 + ^
STACK CFI 19800 .cfa: sp 48 +
STACK CFI 1980c .cfa: sp 0 +
STACK CFI 19810 .cfa: sp 48 +
STACK CFI 1981c .cfa: sp 0 +
STACK CFI INIT 19820 104 .cfa: sp 0 +
STACK CFI 19824 .cfa: sp 64 +
STACK CFI 19834 .cfa: x29 64 + x19: .cfa -8 + ^ x20: .cfa -16 + ^ x21: .cfa -24 + ^ x22: .cfa -32 + ^ x23: .cfa -48 + ^ .ra: .cfa -56 + ^ x29: .cfa -64 + ^
STACK CFI 198fc .cfa: sp 64 +
STACK CFI 1990c .cfa: sp 0 +
STACK CFI 19910 .cfa: sp 64 +
STACK CFI 19920 .cfa: sp 0 +
STACK CFI INIT 19d1c 78 .cfa: sp 0 +
STACK CFI 19d20 .cfa: sp 48 +
STACK CFI 19d2c .cfa: x29 48 + x19: .cfa -8 + ^ x20: .cfa -16 + ^ x21: .cfa -32 + ^ .ra: .cfa -40 + ^ x29: .cfa -48 + ^
STACK CFI 19d74 .cfa: sp 48 +
STACK CFI 19d80 .cfa: sp 0 +
STACK CFI 19d84 .cfa: sp 48 +
STACK CFI 19d90 .cfa: sp 0 +
STACK CFI INIT 19db0 90 .cfa: sp 0 +
STACK CFI 19db4 .cfa: sp 48 +
STACK CFI 19dc0 .cfa: x29 48 + x19: .cfa -8 + ^ x20: .cfa -16 + ^ x21: .cfa -24 + ^ x22: .cfa -32 + ^ .ra: .cfa -40 + ^ x29: .cfa -48 + ^
STACK CFI 19df8 .cfa: sp 48 +
STACK CFI 19e04 .cfa: sp 0 +
STACK CFI 19e08 .cfa: x29 48 +
STACK CFI 19e30 .cfa: sp 48 +
STACK CFI 19e3c .cfa: sp 0 +
STACK CFI INIT 19ed8 3c .cfa: sp 0 +
STACK CFI 19edc .cfa: sp 32 +
STACK CFI 19ee4 .cfa: x29 32 + x19: .cfa -16 + ^ .ra: .cfa -24 + ^ x29: .cfa -32 + ^
STACK CFI 19efc .cfa: sp 32 +
STACK CFI 19f04 .cfa: sp 0 +
STACK CFI 19f08 .cfa: sp 32 +
STACK CFI 19f10 .cfa: sp 0 +
STACK CFI INIT 19f4c 78 .cfa: sp 0 +
STACK CFI 19f50 .cfa: sp 48 +
STACK CFI 19f5c .cfa: x29 48 + x19: .cfa -8 + ^ x20: .cfa -16 + ^ x21: .cfa -32 + ^ .ra: .cfa -40 + ^ x29: .cfa -48 + ^
STACK CFI 19fa4 .cfa: sp 48 +
STACK CFI 19fb0 .cfa: sp 0 +
STACK CFI 19fb4 .cfa: sp 48 +
STACK CFI 19fc0 .cfa: sp 0 +
STACK CFI INIT 19fc4 78 .cfa: sp 0 +
STACK CFI 19fc8 .cfa: sp 48 +
STACK CFI 19fd4 .cfa: x29 48 + x19: .cfa -8 + ^ x20: .cfa -16 + ^ x21: .cfa -32 + ^ .ra: .cfa -40 + ^ x29: .cfa -48 + ^
STACK CFI 1a01c .cfa: sp 48 +
STACK CFI 1a028 .cfa: sp 0 +
STACK CFI 1a02c .cfa: sp 48 +
STACK CFI 1a038 .cfa: sp 0 +
STACK CFI INIT 1a03c 78 .cfa: sp 0 +
STACK CFI 1a040 .cfa: sp 48 +
STACK CFI 1a04c .cfa: x29 48 + x19: .cfa -8 + ^ x20: .cfa -16 + ^ x21: .cfa -32 + ^ .ra: .cfa -40 + ^ x29: .cfa -48 + ^
STACK CFI 1a094 .cfa: sp 48 +
STACK CFI 1a0a0 .cfa: sp 0 +
STACK CFI 1a0a4 .cfa: sp 48 +
STACK CFI 1a0b0 .cfa: sp 0 +
STACK CFI INIT 1a0b4 78 .cfa: sp 0 +
STACK CFI 1a0b8 .cfa: sp 48 +
STACK CFI 1a0c4 .cfa: x29 48 + x19: .cfa -8 + ^ x20: .cfa -16 + ^ x21: .cfa -32 + ^ .ra: .cfa -40 + ^ x29: .cfa -48 + ^
STACK CFI 1a10c .cfa: sp 48 +
STACK CFI 1a118 .cfa: sp 0 +
STACK CFI 1a11c .cfa: sp 48 +
STACK CFI 1a128 .cfa: sp 0 +
STACK CFI INIT 1a2f8 2b8 .cfa: sp 0 +
STACK CFI 1a2fc .cfa: sp 80 +
STACK CFI 1a310 .cfa: x29 80 + x19: .cfa -8 + ^ x20: .cfa -16 + ^ x21: .cfa -24 + ^ x22: .cfa -32 + ^ x23: .cfa -40 + ^ x24: .cfa -48 + ^ x25: .cfa -64 + ^ .ra: .cfa -72 + ^ x29: .cfa -80 + ^
STACK CFI 1a4bc .cfa: sp 80 +
STACK CFI 1a4d0 .cfa: sp 0 +
STACK CFI 1a4d4 .cfa: x29 80 +
STACK CFI 1a598 .cfa: sp 80 +
STACK CFI 1a5ac .cfa: sp 0 +
STACK CFI INIT 1a5b0 80 .cfa: sp 0 +
STACK CFI 1a5b4 .cfa: sp 48 +
STACK CFI 1a5c0 .cfa: x29 48 + x19: .cfa -8 + ^ x20: .cfa -16 + ^ x21: .cfa -32 + ^ .ra: .cfa -40 + ^ x29: .cfa -48 + ^
STACK CFI 1a610 .cfa: sp 48 +
STACK CFI 1a61c .cfa: sp 0 +
STACK CFI 1a620 .cfa: sp 48 +
STACK CFI 1a62c .cfa: sp 0 +
STACK CFI INIT 1a630 80 .cfa: sp 0 +
STACK CFI 1a634 .cfa: sp 48 +
STACK CFI 1a640 .cfa: x29 48 + x19: .cfa -8 + ^ x20: .cfa -16 + ^ x21: .cfa -32 + ^ .ra: .cfa -40 + ^ x29: .cfa -48 + ^
STACK CFI 1a690 .cfa: sp 48 +
STACK CFI 1a69c .cfa: sp 0 +
STACK CFI 1a6a0 .cfa: sp 48 +
STACK CFI 1a6ac .cfa: sp 0 +
STACK CFI INIT 1a850 2b8 .cfa: sp 0 +
STACK CFI INIT 1ab08 1bc .cfa: sp 0 +
STACK CFI 1ab0c .cfa: sp 64 +
STACK CFI 1ab1c .cfa: x29 64 + x19: .cfa -8 + ^ x20: .cfa -16 + ^ x21: .cfa -24 + ^ x22: .cfa -32 + ^ x23: .cfa -48 + ^ .ra: .cfa -56 + ^ x29: .cfa -64 + ^
STACK CFI 1ac20 .cfa: sp 64 +
STACK CFI 1ac30 .cfa: sp 0 +
STACK CFI 1ac34 .cfa: x29 64 +
STACK CFI INIT 1acc4 80 .cfa: sp 0 +
STACK CFI 1acc8 .cfa: sp 48 +
STACK CFI 1acd4 .cfa: x29 48 + x19: .cfa -8 + ^ x20: .cfa -16 + ^ x21: .cfa -32 + ^ .ra: .cfa -40 + ^ x29: .cfa -48 + ^
STACK CFI 1ad24 .cfa: sp 48 +
STACK CFI 1ad30 .cfa: sp 0 +
STACK CFI 1ad34 .cfa: sp 48 +
STACK CFI 1ad40 .cfa: sp 0 +
STACK CFI INIT 1ad44 98 .cfa: sp 0 +
STACK CFI 1ad4c .cfa: sp 48 +
STACK CFI 1ad58 .cfa: x29 48 + x19: .cfa -8 + ^ x20: .cfa -16 + ^ x21: .cfa -32 + ^ .ra: .cfa -40 + ^ x29: .cfa -48 + ^
STACK CFI 1ada8 .cfa: sp 0 + x19: x19 x20: x20 x21: x21 .ra: x30 x29: x29
STACK CFI 1adac .cfa: x29 48 + x19: .cfa -8 + ^ x20: .cfa -16 + ^ x21: .cfa -32 + ^ .ra: .cfa -40 + ^ x29: .cfa -48 + ^
STACK CFI 1adcc .cfa: sp 48 +
STACK CFI 1add8 .cfa: sp 0 +
STACK CFI INIT 1addc 54 .cfa: sp 0 +
STACK CFI 1ade4 .cfa: sp 32 +
STACK CFI 1adec .cfa: x29 32 + x19: .cfa -8 + ^ x20: .cfa -16 + ^ .ra: .cfa -24 + ^ x29: .cfa -32 + ^
STACK CFI 1ae24 .cfa: sp 32 +
STACK CFI 1ae2c .cfa: sp 0 +
STACK CFI INIT 1ae30 54 .cfa: sp 0 +
STACK CFI 1ae38 .cfa: sp 32 +
STACK CFI 1ae40 .cfa: x29 32 + x19: .cfa -8 + ^ x20: .cfa -16 + ^ .ra: .cfa -24 + ^ x29: .cfa -32 + ^
STACK CFI 1ae78 .cfa: sp 32 +
STACK CFI 1ae80 .cfa: sp 0 +
STACK CFI INIT 1af2c 54 .cfa: sp 0 +
STACK CFI 1af34 .cfa: sp 32 +
STACK CFI 1af3c .cfa: x29 32 + x19: .cfa -8 + ^ x20: .cfa -16 + ^ .ra: .cfa -24 + ^ x29: .cfa -32 + ^
STACK CFI 1af74 .cfa: sp 32 +
STACK CFI 1af7c .cfa: sp 0 +
STACK CFI INIT 1af80 a8 .cfa: sp 0 +
STACK CFI 1af88 .cfa: sp 48 +
STACK CFI 1af94 .cfa: x29 48 + x19: .cfa -8 + ^ x20: .cfa -16 + ^ x21: .cfa -24 + ^ x22: .cfa -32 + ^ .ra: .cfa -40 + ^ x29: .cfa -48 + ^
STACK CFI 1b018 .cfa: sp 48 +
STACK CFI 1b024 .cfa: sp 0 +
STACK CFI INIT 1b028 54 .cfa: sp 0 +
STACK CFI 1b030 .cfa: sp 32 +
STACK CFI 1b038 .cfa: x29 32 + x19: .cfa -8 + ^ x20: .cfa -16 + ^ .ra: .cfa -24 + ^ x29: .cfa -32 + ^
STACK CFI 1b070 .cfa: sp 32 +
STACK CFI 1b078 .cfa: sp 0 +
STACK CFI INIT 1b07c 50 .cfa: sp 0 +
STACK CFI 1b080 .cfa: sp 32 +
STACK CFI 1b088 .cfa: x29 32 + x19: .cfa -16 + ^ .ra: .cfa -24 + ^ x29: .cfa -32 + ^
STACK CFI 1b0a0 .cfa: sp 32 +
STACK CFI 1b0a8 .cfa: sp 0 +
STACK CFI 1b0ac .cfa: x29 32 +
STACK CFI 1b0c0 .cfa: sp 32 +
STACK CFI 1b0c8 .cfa: sp 0 +
STACK CFI INIT 1b0cc 64 .cfa: sp 0 +
STACK CFI 1b0d0 .cfa: sp 32 +
STACK CFI 1b0d8 .cfa: x29 32 + x19: .cfa -16 + ^ .ra: .cfa -24 + ^ x29: .cfa -32 + ^
STACK CFI 1b104 .cfa: sp 32 +
STACK CFI 1b10c .cfa: sp 0 +
STACK CFI 1b110 .cfa: x29 32 +
STACK CFI 1b124 .cfa: sp 32 +
STACK CFI 1b12c .cfa: sp 0 +
STACK CFI INIT 1b130 14 .cfa: sp 0 +
STACK CFI 1b134 .cfa: sp 16 +
STACK CFI 1b138 .cfa: x29 16 + .ra: .cfa -8 + ^ x29: .cfa -16 + ^
STACK CFI INIT 1b144 178 .cfa: sp 0 +
STACK CFI 1b148 .cfa: sp 80 +
STACK CFI 1b15c .cfa: x29 80 + x19: .cfa -8 + ^ x20: .cfa -16 + ^ x21: .cfa -24 + ^ x22: .cfa -32 + ^ x23: .cfa -40 + ^ x24: .cfa -48 + ^ x25: .cfa -56 + ^ x26: .cfa -64 + ^ .ra: .cfa -72 + ^ x29: .cfa -80 + ^
STACK CFI 1b2a4 .cfa: sp 80 +
STACK CFI 1b2b8 .cfa: sp 0 +
STACK CFI INIT 1b2bc 7c .cfa: sp 0 +
STACK CFI 1b2c0 .cfa: sp 32 +
STACK CFI 1b2c8 .cfa: x29 32 + x19: .cfa -8 + ^ x20: .cfa -16 + ^ .ra: .cfa -24 + ^ x29: .cfa -32 + ^
STACK CFI 1b320 .cfa: sp 32 +
STACK CFI 1b328 .cfa: sp 0 +
STACK CFI 1b32c .cfa: sp 32 +
STACK CFI 1b334 .cfa: sp 0 +
STACK CFI INIT 1b338 1b0 .cfa: sp 0 +
STACK CFI INIT 1be90 4 .cfa: sp 0 +
STACK CFI INIT 1c508 4 .cfa: sp 0 +
STACK CFI INIT 1c50c 14 .cfa: sp 0 +
STACK CFI INIT 1d0c0 4 .cfa: sp 0 +
STACK CFI INIT 1e774 4 .cfa: sp 0 +
STACK CFI INIT 1eba8 6c .cfa: sp 0 +
STACK CFI 1ebb0 .cfa: sp 48 +
STACK CFI 1ebbc .cfa: x29 48 + x19: .cfa -8 + ^ x20: .cfa -16 + ^ x21: .cfa -24 + ^ x22: .cfa -32 + ^ .ra: .cfa -40 + ^ x29: .cfa -48 + ^
STACK CFI 1ec00 .cfa: sp 48 +
STACK CFI 1ec0c .cfa: sp 0 +
STACK CFI INIT 1ed2c 84 .cfa: sp 0 +
STACK CFI 1ed30 .cfa: sp 48 +
STACK CFI 1ed3c .cfa: x29 48 + x19: .cfa -8 + ^ x20: .cfa -16 + ^ x21: .cfa -32 + ^ .ra: .cfa -40 + ^ x29: .cfa -48 + ^
STACK CFI 1ed7c .cfa: sp 48 +
STACK CFI 1ed88 .cfa: sp 0 +
STACK CFI 1ed8c .cfa: x29 48 +
STACK CFI 1eda0 .cfa: sp 48 +
STACK CFI 1edac .cfa: sp 0 +
STACK CFI INIT 1edb0 60 .cfa: sp 0 +
STACK CFI 1edb8 .cfa: sp 48 +
STACK CFI 1edc4 .cfa: x29 48 + x19: .cfa -8 + ^ x20: .cfa -16 + ^ x21: .cfa -24 + ^ x22: .cfa -32 + ^ .ra: .cfa -40 + ^ x29: .cfa -48 + ^
STACK CFI 1edfc .cfa: sp 48 +
STACK CFI 1ee08 .cfa: sp 0 +
STACK CFI INIT 1ee10 70 .cfa: sp 0 +
STACK CFI 1ee18 .cfa: sp 48 +
STACK CFI 1ee24 .cfa: x29 48 + x19: .cfa -8 + ^ x20: .cfa -16 + ^ x21: .cfa -24 + ^ x22: .cfa -32 + ^ .ra: .cfa -40 + ^ x29: .cfa -48 + ^
STACK CFI 1ee64 .cfa: sp 48 +
STACK CFI 1ee70 .cfa: sp 0 +
STACK CFI INIT 1ef98 78 .cfa: sp 0 +
STACK CFI 1ef9c .cfa: sp 48 +
STACK CFI 1efa8 .cfa: x29 48 + x19: .cfa -8 + ^ x20: .cfa -16 + ^ x21: .cfa -24 + ^ x22: .cfa -32 + ^ .ra: .cfa -40 + ^ x29: .cfa -48 + ^
STACK CFI 1efec .cfa: sp 48 +
STACK CFI 1eff8 .cfa: sp 0 +
STACK CFI 1effc .cfa: x29 48 +
STACK CFI 1f000 .cfa: sp 48 +
STACK CFI 1f00c .cfa: sp 0 +
STACK CFI INIT 1f0fc 80 .cfa: sp 0 +
STACK CFI 1f100 .cfa: sp 32 +
STACK CFI 1f108 .cfa: x29 32 + x19: .cfa -16 + ^ .ra: .cfa -24 + ^ x29: .cfa -32 + ^
STACK CFI 1f170 .cfa: sp 32 +
STACK CFI 1f178 .cfa: sp 0 +
STACK CFI INIT 1f584 14 .cfa: sp 0 +
STACK CFI 1f588 .cfa: sp 16 +
STACK CFI 1f58c .cfa: x29 16 + .ra: .cfa -8 + ^ x29: .cfa -16 + ^
STACK CFI INIT 1f598 104 .cfa: sp 0 +
STACK CFI 1f59c .cfa: sp 64 +
STACK CFI 1f5ac .cfa: x29 64 + x19: .cfa -8 + ^ x20: .cfa -16 + ^ x21: .cfa -24 + ^ x22: .cfa -32 + ^ x23: .cfa -48 + ^ .ra: .cfa -56 + ^ x29: .cfa -64 + ^
STACK CFI 1f608 .cfa: sp 64 +
STACK CFI 1f618 .cfa: sp 0 +
STACK CFI 1f61c .cfa: x29 64 +
STACK CFI 1f638 .cfa: sp 64 +
STACK CFI 1f648 .cfa: sp 0 +
STACK CFI 1f64c .cfa: x29 64 +
STACK CFI 1f688 .cfa: sp 64 +
STACK CFI 1f698 .cfa: sp 0 +
STACK CFI INIT 1f69c 4 .cfa: sp 0 +
STACK CFI INIT 1f6a0 8 .cfa: sp 0 +
STACK CFI INIT 1f6a8 4 .cfa: sp 0 +
STACK CFI INIT 1f6ac 8 .cfa: sp 0 +
STACK CFI INIT 1f838 4 .cfa: sp 0 +
STACK CFI INIT 1f83c 24 .cfa: sp 0 +
STACK CFI 1f840 .cfa: sp 32 +
STACK CFI 1f848 .cfa: x29 32 + x19: .cfa -16 + ^ .ra: .cfa -24 + ^ x29: .cfa -32 + ^
STACK CFI 1f854 .cfa: sp 32 +
STACK CFI 1f85c .cfa: sp 0 +
STACK CFI INIT 1f860 4 .cfa: sp 0 +
STACK CFI INIT 1f864 9c .cfa: sp 0 +
STACK CFI 1f868 .cfa: sp 288 +
STACK CFI 1f874 .cfa: x29 32 + x19: .cfa -8 + ^ x28: .cfa -16 + ^ .ra: .cfa -24 + ^ x29: .cfa -32 + ^
STACK CFI 1f8ec .cfa: sp 288 +
STACK CFI 1f8f8 .cfa: sp 0 +
STACK CFI 1f8fc .cfa: x29 32 +
STACK CFI INIT 1f900 30 .cfa: sp 0 +
STACK CFI INIT 1fb4c 3c .cfa: sp 0 +
STACK CFI 1fb50 .cfa: sp 32 +
STACK CFI 1fb58 .cfa: x29 32 + x19: .cfa -16 + ^ .ra: .cfa -24 + ^ x29: .cfa -32 + ^
STACK CFI 1fb64 .cfa: sp 32 +
STACK CFI 1fb6c .cfa: sp 0 +
STACK CFI 1fb70 .cfa: x29 32 +
STACK CFI 1fb7c .cfa: sp 32 +
STACK CFI 1fb84 .cfa: sp 0 +
STACK CFI INIT 1fb88 4c .cfa: sp 0 +
STACK CFI 1fb8c .cfa: sp 32 +
STACK CFI 1fb94 .cfa: x29 32 + x19: .cfa -8 + ^ x20: .cfa -16 + ^ .ra: .cfa -24 + ^ x29: .cfa -32 + ^
STACK CFI 1fbbc .cfa: sp 32 +
STACK CFI 1fbc4 .cfa: sp 0 +
STACK CFI 1fbc8 .cfa: sp 32 +
STACK CFI 1fbd0 .cfa: sp 0 +
STACK CFI INIT 1fdf4 64 .cfa: sp 0 +
STACK CFI 1fdf8 .cfa: sp 32 +
STACK CFI 1fe00 .cfa: x29 32 + x19: .cfa -16 + ^ .ra: .cfa -24 + ^ x29: .cfa -32 + ^
STACK CFI 1fe2c .cfa: sp 32 +
STACK CFI 1fe34 .cfa: sp 0 +
STACK CFI 1fe38 .cfa: x29 32 +
STACK CFI 1fe4c .cfa: sp 32 +
STACK CFI 1fe54 .cfa: sp 0 +
STACK CFI INIT 2007c 24 .cfa: sp 0 +
STACK CFI 20080 .cfa: sp 32 +
STACK CFI 20088 .cfa: x29 32 + x19: .cfa -16 + ^ .ra: .cfa -24 + ^ x29: .cfa -32 + ^
STACK CFI 20094 .cfa: sp 32 +
STACK CFI 2009c .cfa: sp 0 +
STACK CFI INIT 200a0 24 .cfa: sp 0 +
STACK CFI 200a4 .cfa: sp 32 +
STACK CFI 200ac .cfa: x29 32 + x19: .cfa -16 + ^ .ra: .cfa -24 + ^ x29: .cfa -32 + ^
STACK CFI 200b8 .cfa: sp 32 +
STACK CFI 200c0 .cfa: sp 0 +
STACK CFI INIT 200c4 8 .cfa: sp 0 +
STACK CFI INIT 200cc 24 .cfa: sp 0 +
STACK CFI 200d0 .cfa: sp 32 +
STACK CFI 200d8 .cfa: x29 32 + x19: .cfa -16 + ^ .ra: .cfa -24 + ^ x29: .cfa -32 + ^
STACK CFI 200e4 .cfa: sp 32 +
STACK CFI 200ec .cfa: sp 0 +
STACK CFI INIT 200f0 28 .cfa: sp 0 +
STACK CFI 200f4 .cfa: sp 32 +
STACK CFI 200fc .cfa: x29 32 + x19: .cfa -16 + ^ .ra: .cfa -24 + ^ x29: .cfa -32 + ^
STACK CFI 2010c .cfa: sp 32 +
STACK CFI 20114 .cfa: sp 0 +
STACK CFI INIT 20418 8 .cfa: sp 0 +
STACK CFI INIT 20420 24 .cfa: sp 0 +
STACK CFI 20424 .cfa: sp 32 +
STACK CFI 2042c .cfa: x29 32 + x19: .cfa -16 + ^ .ra: .cfa -24 + ^ x29: .cfa -32 + ^
STACK CFI 20438 .cfa: sp 32 +
STACK CFI 20440 .cfa: sp 0 +
STACK CFI INIT 20444 28 .cfa: sp 0 +
STACK CFI 20448 .cfa: sp 32 +
STACK CFI 20450 .cfa: x29 32 + x19: .cfa -16 + ^ .ra: .cfa -24 + ^ x29: .cfa -32 + ^
STACK CFI 20460 .cfa: sp 32 +
STACK CFI 20468 .cfa: sp 0 +
STACK CFI INIT 2046c 8 .cfa: sp 0 +
STACK CFI INIT 20474 24 .cfa: sp 0 +
STACK CFI 20478 .cfa: sp 32 +
STACK CFI 20480 .cfa: x29 32 + x19: .cfa -16 + ^ .ra: .cfa -24 + ^ x29: .cfa -32 + ^
STACK CFI 2048c .cfa: sp 32 +
STACK CFI 20494 .cfa: sp 0 +
STACK CFI INIT 20498 28 .cfa: sp 0 +
STACK CFI 2049c .cfa: sp 32 +
STACK CFI 204a4 .cfa: x29 32 + x19: .cfa -16 + ^ .ra: .cfa -24 + ^ x29: .cfa -32 + ^
STACK CFI 204b4 .cfa: sp 32 +
STACK CFI 204bc .cfa: sp 0 +
STACK CFI INIT 2147c 8 .cfa: sp 0 +
STACK CFI INIT 21484 24 .cfa: sp 0 +
STACK CFI 21488 .cfa: sp 32 +
STACK CFI 21490 .cfa: x29 32 + x19: .cfa -16 + ^ .ra: .cfa -24 + ^ x29: .cfa -32 + ^
STACK CFI 2149c .cfa: sp 32 +
STACK CFI 214a4 .cfa: sp 0 +
STACK CFI INIT 214a8 28 .cfa: sp 0 +
STACK CFI 214ac .cfa: sp 32 +
STACK CFI 214b4 .cfa: x29 32 + x19: .cfa -16 + ^ .ra: .cfa -24 + ^ x29: .cfa -32 + ^
STACK CFI 214c4 .cfa: sp 32 +
STACK CFI 214cc .cfa: sp 0 +
STACK CFI INIT 21afc 8 .cfa: sp 0 +
STACK CFI INIT 22240 8 .cfa: sp 0 +
STACK CFI INIT 2268c 8 .cfa: sp 0 +
STACK CFI INIT 228e8 4 .cfa: sp 0 +
STACK CFI INIT 228ec 8 .cfa: sp 0 +
STACK CFI INIT 228f4 8 .cfa: sp 0 +
STACK CFI INIT 228fc 4 .cfa: sp 0 +
STACK CFI INIT 237dc 4 .cfa: sp 0 +
STACK CFI INIT 23ac4 24 .cfa: sp 0 +
STACK CFI 23ac8 .cfa: sp 32 +
STACK CFI 23ad0 .cfa: x29 32 + x19: .cfa -16 + ^ .ra: .cfa -24 + ^ x29: .cfa -32 + ^
STACK CFI 23adc .cfa: sp 32 +
STACK CFI 23ae4 .cfa: sp 0 +
STACK CFI INIT 23ae8 8 .cfa: sp 0 +
STACK CFI INIT 23af0 28 .cfa: sp 0 +
STACK CFI 23af4 .cfa: sp 32 +
STACK CFI 23afc .cfa: x29 32 + x19: .cfa -16 + ^ .ra: .cfa -24 + ^ x29: .cfa -32 + ^
STACK CFI 23b0c .cfa: sp 32 +
STACK CFI 23b14 .cfa: sp 0 +
STACK CFI INIT 246f0 4 .cfa: sp 0 +
STACK CFI INIT 246f4 14 .cfa: sp 0 +
STACK CFI INIT 14978 134 .cfa: sp 0 +
STACK CFI 1497c .cfa: sp 80 +
STACK CFI 1498c .cfa: x29 48 + x19: .cfa -8 + ^ x20: .cfa -16 + ^ x21: .cfa -24 + ^ x22: .cfa -32 + ^ .ra: .cfa -40 + ^ x29: .cfa -48 + ^
STACK CFI 14a90 .cfa: sp 80 +
STACK CFI 14aa0 .cfa: sp 0 +
STACK CFI 14aa4 .cfa: x29 48 +
STACK CFI INIT 14aac 118 .cfa: sp 0 +
STACK CFI 14ab0 .cfa: sp 80 +
STACK CFI 14ac0 .cfa: x29 48 + x19: .cfa -8 + ^ x20: .cfa -16 + ^ x21: .cfa -24 + ^ x22: .cfa -32 + ^ .ra: .cfa -40 + ^ x29: .cfa -48 + ^
STACK CFI 14ba8 .cfa: sp 80 +
STACK CFI 14bb8 .cfa: sp 0 +
STACK CFI 14bbc .cfa: x29 48 +
STACK CFI INIT 14e00 464 .cfa: sp 0 +
STACK CFI 14e04 .cfa: sp 128 +
STACK CFI 14e20 .cfa: x29 96 + x19: .cfa -8 + ^ x20: .cfa -16 + ^ x21: .cfa -24 + ^ x22: .cfa -32 + ^ x23: .cfa -40 + ^ x24: .cfa -48 + ^ x25: .cfa -56 + ^ x26: .cfa -64 + ^ x27: .cfa -72 + ^ x28: .cfa -80 + ^ .ra: .cfa -88 + ^ x29: .cfa -96 + ^
STACK CFI 151ac .cfa: sp 128 +
STACK CFI 151c8 .cfa: sp 0 +
STACK CFI 151cc .cfa: x29 96 +
STACK CFI 151e0 .cfa: sp 128 +
STACK CFI 151fc .cfa: sp 0 +
STACK CFI 15200 .cfa: x29 96 +
STACK CFI INIT 1576c 190 .cfa: sp 0 +
STACK CFI 15770 .cfa: sp 112 +
STACK CFI 15780 .cfa: x29 48 + x19: .cfa -8 + ^ x20: .cfa -16 + ^ x21: .cfa -32 + ^ .ra: .cfa -40 + ^ x29: .cfa -48 + ^
STACK CFI 15854 .cfa: sp 112 +
STACK CFI 15864 .cfa: sp 0 +
STACK CFI 15868 .cfa: x29 48 +
STACK CFI INIT 158fc 2b8 .cfa: sp 0 +
STACK CFI 15900 .cfa: sp 160 +
STACK CFI 1591c .cfa: x29 96 + x19: .cfa -8 + ^ x20: .cfa -16 + ^ x21: .cfa -24 + ^ x22: .cfa -32 + ^ x23: .cfa -40 + ^ x24: .cfa -48 + ^ x25: .cfa -56 + ^ x26: .cfa -64 + ^ x27: .cfa -72 + ^ x28: .cfa -80 + ^ .ra: .cfa -88 + ^ x29: .cfa -96 + ^
STACK CFI 15954 .cfa: sp 160 +
STACK CFI 15970 .cfa: sp 0 +
STACK CFI 15974 .cfa: x29 96 +
STACK CFI INIT 15bb4 114 .cfa: sp 0 +
STACK CFI 15bb8 .cfa: sp 64 +
STACK CFI 15bc8 .cfa: x29 64 + x19: .cfa -8 + ^ x20: .cfa -16 + ^ x21: .cfa -24 + ^ x22: .cfa -32 + ^ x23: .cfa -48 + ^ .ra: .cfa -56 + ^ x29: .cfa -64 + ^
STACK CFI 15ca4 .cfa: sp 64 +
STACK CFI 15cb4 .cfa: sp 0 +
STACK CFI 15cb8 .cfa: x29 64 +
STACK CFI INIT 15d04 50 .cfa: sp 0 +
STACK CFI 15d08 .cfa: sp 32 +
STACK CFI 15d10 .cfa: x29 32 + x19: .cfa -8 + ^ x20: .cfa -16 + ^ .ra: .cfa -24 + ^ x29: .cfa -32 + ^
STACK CFI INIT 15db8 22c .cfa: sp 0 +
STACK CFI 15dbc .cfa: sp 96 +
STACK CFI 15dd4 .cfa: x29 96 + x19: .cfa -8 + ^ x20: .cfa -16 + ^ x21: .cfa -24 + ^ x22: .cfa -32 + ^ x23: .cfa -40 + ^ x24: .cfa -48 + ^ x25: .cfa -56 + ^ x26: .cfa -64 + ^ x27: .cfa -80 + ^ .ra: .cfa -88 + ^ x29: .cfa -96 + ^
STACK CFI 15f78 .cfa: sp 96 +
STACK CFI 15f90 .cfa: sp 0 +
STACK CFI 15f94 .cfa: x29 96 +
STACK CFI INIT 1600c 50 .cfa: sp 0 +
STACK CFI 16010 .cfa: sp 32 +
STACK CFI 16018 .cfa: x29 32 + x19: .cfa -8 + ^ x20: .cfa -16 + ^ .ra: .cfa -24 + ^ x29: .cfa -32 + ^
STACK CFI INIT 16138 3fc .cfa: sp 0 +
STACK CFI 1613c .cfa: sp 224 +
STACK CFI 16158 .cfa: x29 96 + x19: .cfa -8 + ^ x20: .cfa -16 + ^ x21: .cfa -24 + ^ x22: .cfa -32 + ^ x23: .cfa -40 + ^ x24: .cfa -48 + ^ x25: .cfa -56 + ^ x26: .cfa -64 + ^ x27: .cfa -72 + ^ x28: .cfa -80 + ^ .ra: .cfa -88 + ^ x29: .cfa -96 + ^
STACK CFI 16430 .cfa: sp 224 +
STACK CFI 1644c .cfa: sp 0 +
STACK CFI 16450 .cfa: x29 96 +
STACK CFI INIT 16534 894 .cfa: sp 0 +
STACK CFI 16538 .cfa: sp 176 +
STACK CFI 1654c .cfa: x29 64 + x19: .cfa -8 + ^ x20: .cfa -16 + ^ x21: .cfa -24 + ^ x22: .cfa -32 + ^ x23: .cfa -40 + ^ x24: .cfa -48 + ^ .ra: .cfa -56 + ^ x29: .cfa -64 + ^
STACK CFI 16b94 .cfa: sp 176 +
STACK CFI 16ba8 .cfa: sp 0 +
STACK CFI 16bac .cfa: x29 64 +
STACK CFI INIT 16e18 74 .cfa: sp 0 +
STACK CFI 16e1c .cfa: sp 48 +
STACK CFI 16e28 .cfa: x29 32 + x19: .cfa -8 + ^ x20: .cfa -16 + ^ .ra: .cfa -24 + ^ x29: .cfa -32 + ^
STACK CFI 16e74 .cfa: sp 48 +
STACK CFI 16e80 .cfa: sp 0 +
STACK CFI 16e84 .cfa: x29 32 +
STACK CFI INIT 16f0c 154 .cfa: sp 0 +
STACK CFI 16f10 .cfa: sp 384 +
STACK CFI 16f24 .cfa: x29 64 + x19: .cfa -8 + ^ x20: .cfa -16 + ^ x21: .cfa -24 + ^ x22: .cfa -32 + ^ x23: .cfa -40 + ^ x28: .cfa -48 + ^ .ra: .cfa -56 + ^ x29: .cfa -64 + ^
STACK CFI 17008 .cfa: sp 384 +
STACK CFI 1701c .cfa: sp 0 +
STACK CFI 17020 .cfa: x29 64 +
STACK CFI INIT 17094 12c .cfa: sp 0 +
STACK CFI 17098 .cfa: sp 80 +
STACK CFI 170ac .cfa: x29 80 + x19: .cfa -8 + ^ x20: .cfa -16 + ^ x21: .cfa -24 + ^ x22: .cfa -32 + ^ x23: .cfa -40 + ^ x24: .cfa -48 + ^ x25: .cfa -56 + ^ x26: .cfa -64 + ^ .ra: .cfa -72 + ^ x29: .cfa -80 + ^
STACK CFI 17174 .cfa: sp 80 +
STACK CFI 17188 .cfa: sp 0 +
STACK CFI 1718c .cfa: x29 80 +
STACK CFI INIT 17264 1a4 .cfa: sp 0 +
STACK CFI 17268 .cfa: sp 112 +
STACK CFI 17280 .cfa: x29 80 + x19: .cfa -8 + ^ x20: .cfa -16 + ^ x21: .cfa -24 + ^ x22: .cfa -32 + ^ x23: .cfa -40 + ^ x24: .cfa -48 + ^ x25: .cfa -56 + ^ x26: .cfa -64 + ^ .ra: .cfa -72 + ^ x29: .cfa -80 + ^
STACK CFI 17370 .cfa: sp 112 +
STACK CFI 17388 .cfa: sp 0 +
STACK CFI 1738c .cfa: x29 80 +
STACK CFI INIT 17408 1dc .cfa: sp 0 +
STACK CFI 1740c .cfa: sp 128 +
STACK CFI 17428 .cfa: x29 96 + x19: .cfa -8 + ^ x20: .cfa -16 + ^ x21: .cfa -24 + ^ x22: .cfa -32 + ^ x23: .cfa -40 + ^ x24: .cfa -48 + ^ x25: .cfa -56 + ^ x26: .cfa -64 + ^ x27: .cfa -80 + ^ .ra: .cfa -88 + ^ x29: .cfa -96 + ^
STACK CFI 17594 .cfa: sp 128 +
STACK CFI 175b0 .cfa: sp 0 +
STACK CFI 175b4 .cfa: x29 96 +
STACK CFI INIT 175f8 178 .cfa: sp 0 +
STACK CFI 175fc .cfa: sp 80 +
STACK CFI 17610 .cfa: x29 80 + x19: .cfa -8 + ^ x20: .cfa -16 + ^ x21: .cfa -24 + ^ x22: .cfa -32 + ^ x23: .cfa -40 + ^ x24: .cfa -48 + ^ x25: .cfa -64 + ^ .ra: .cfa -72 + ^ x29: .cfa -80 + ^
STACK CFI 1773c .cfa: sp 80 +
STACK CFI 17750 .cfa: sp 0 +
STACK CFI 17754 .cfa: x29 80 +
STACK CFI INIT 178b8 228 .cfa: sp 0 +
STACK CFI 178bc .cfa: sp 128 +
STACK CFI 178d4 .cfa: x29 80 + x19: .cfa -8 + ^ x20: .cfa -16 + ^ x21: .cfa -24 + ^ x22: .cfa -32 + ^ x23: .cfa -40 + ^ x24: .cfa -48 + ^ x25: .cfa -64 + ^ .ra: .cfa -72 + ^ x29: .cfa -80 + ^
STACK CFI 17a70 .cfa: sp 128 +
STACK CFI 17a88 .cfa: sp 0 +
STACK CFI 17a8c .cfa: x29 80 +
STACK CFI INIT 1823c 184 .cfa: sp 0 +
STACK CFI 18240 .cfa: sp 144 +
STACK CFI 18258 .cfa: x29 80 + x19: .cfa -8 + ^ x20: .cfa -16 + ^ x21: .cfa -24 + ^ x22: .cfa -32 + ^ x23: .cfa -40 + ^ x24: .cfa -48 + ^ x25: .cfa -56 + ^ x26: .cfa -64 + ^ .ra: .cfa -72 + ^ x29: .cfa -80 + ^
STACK CFI 18358 .cfa: sp 144 +
STACK CFI 18370 .cfa: sp 0 +
STACK CFI 18374 .cfa: x29 80 +
STACK CFI INIT 18420 118 .cfa: sp 0 +
STACK CFI 18424 .cfa: sp 144 +
STACK CFI 1843c .cfa: x29 80 + x19: .cfa -8 + ^ x20: .cfa -16 + ^ x21: .cfa -24 + ^ x22: .cfa -32 + ^ x23: .cfa -40 + ^ x24: .cfa -48 + ^ x25: .cfa -64 + ^ .ra: .cfa -72 + ^ x29: .cfa -80 + ^
STACK CFI 184e4 .cfa: sp 144 +
STACK CFI 184fc .cfa: sp 0 +
STACK CFI 18500 .cfa: x29 80 +
STACK CFI INIT 1853c 134 .cfa: sp 0 +
STACK CFI 18540 .cfa: sp 128 +
STACK CFI 18554 .cfa: x29 64 + x19: .cfa -8 + ^ x20: .cfa -16 + ^ x21: .cfa -24 + ^ x22: .cfa -32 + ^ x23: .cfa -40 + ^ x24: .cfa -48 + ^ .ra: .cfa -56 + ^ x29: .cfa -64 + ^
STACK CFI 18620 .cfa: sp 128 +
STACK CFI 18634 .cfa: sp 0 +
STACK CFI 18638 .cfa: x29 64 +
STACK CFI INIT 18674 ec .cfa: sp 0 +
STACK CFI 18678 .cfa: sp 48 +
STACK CFI 18684 .cfa: x29 48 + x19: .cfa -8 + ^ x20: .cfa -16 + ^ x21: .cfa -24 + ^ x22: .cfa -32 + ^ .ra: .cfa -40 + ^ x29: .cfa -48 + ^
STACK CFI 186d0 .cfa: sp 48 +
STACK CFI 186dc .cfa: sp 0 +
STACK CFI 186e0 .cfa: x29 48 +
STACK CFI 186e4 .cfa: sp 48 +
STACK CFI 186f0 .cfa: sp 0 +
STACK CFI 186f4 .cfa: x29 48 +
STACK CFI INIT 18760 7b0 .cfa: sp 0 +
STACK CFI 18764 .cfa: sp 80 +
STACK CFI 18778 .cfa: x29 80 + x19: .cfa -8 + ^ x20: .cfa -16 + ^ x21: .cfa -24 + ^ x22: .cfa -32 + ^ x23: .cfa -40 + ^ x24: .cfa -48 + ^ x25: .cfa -56 + ^ x26: .cfa -64 + ^ .ra: .cfa -72 + ^ x29: .cfa -80 + ^
STACK CFI 18b94 .cfa: sp 80 +
STACK CFI 18ba8 .cfa: sp 0 +
STACK CFI 18bac .cfa: x29 80 +
STACK CFI INIT 18f10 578 .cfa: sp 0 +
STACK CFI 18f14 .cfa: sp 96 +
STACK CFI 18f28 .cfa: x29 64 + x19: .cfa -8 + ^ x20: .cfa -16 + ^ x21: .cfa -24 + ^ x22: .cfa -32 + ^ x23: .cfa -48 + ^ .ra: .cfa -56 + ^ x29: .cfa -64 + ^
STACK CFI 192c8 .cfa: sp 96 +
STACK CFI 192dc .cfa: sp 0 +
STACK CFI 192e0 .cfa: x29 64 +
STACK CFI INIT 195fc 1c .cfa: sp 0 +
STACK CFI 19600 .cfa: sp 16 +
STACK CFI 19604 .cfa: x29 16 + .ra: .cfa -8 + ^ x29: .cfa -16 + ^
STACK CFI 1960c .cfa: sp 16 +
STACK CFI 19610 .cfa: sp 0 +
STACK CFI 19614 .cfa: x29 16 +
STACK CFI INIT 19924 3f8 .cfa: sp 0 +
STACK CFI 19928 .cfa: sp 48 +
STACK CFI 19934 .cfa: x29 48 + x19: .cfa -8 + ^ x20: .cfa -16 + ^ x21: .cfa -24 + ^ x22: .cfa -32 + ^ .ra: .cfa -40 + ^ x29: .cfa -48 + ^
STACK CFI 19c9c .cfa: sp 48 +
STACK CFI 19ca8 .cfa: sp 0 +
STACK CFI 19cac .cfa: x29 48 +
STACK CFI 19cfc .cfa: sp 48 +
STACK CFI 19d08 .cfa: sp 0 +
STACK CFI 19d0c .cfa: x29 48 +
STACK CFI INIT 19d94 1c .cfa: sp 0 +
STACK CFI 19d98 .cfa: sp 16 +
STACK CFI 19d9c .cfa: x29 16 + .ra: .cfa -8 + ^ x29: .cfa -16 + ^
STACK CFI 19da4 .cfa: sp 16 +
STACK CFI 19da8 .cfa: sp 0 +
STACK CFI 19dac .cfa: x29 16 +
STACK CFI INIT 19e40 98 .cfa: sp 0 +
STACK CFI 19e44 .cfa: sp 48 +
STACK CFI 19e50 .cfa: x29 48 + x19: .cfa -8 + ^ x20: .cfa -16 + ^ x21: .cfa -32 + ^ .ra: .cfa -40 + ^ x29: .cfa -48 + ^
STACK CFI 19eb0 .cfa: sp 48 +
STACK CFI 19ebc .cfa: sp 0 +
STACK CFI 19ec0 .cfa: sp 48 +
STACK CFI 19ecc .cfa: sp 0 +
STACK CFI 19ed0 .cfa: x29 48 +
STACK CFI INIT 19f14 1c .cfa: sp 0 +
STACK CFI 19f18 .cfa: sp 16 +
STACK CFI 19f1c .cfa: x29 16 + .ra: .cfa -8 + ^ x29: .cfa -16 + ^
STACK CFI 19f24 .cfa: sp 16 +
STACK CFI 19f28 .cfa: sp 0 +
STACK CFI 19f2c .cfa: x29 16 +
STACK CFI INIT 19f30 1c .cfa: sp 0 +
STACK CFI 19f34 .cfa: sp 16 +
STACK CFI 19f38 .cfa: x29 16 + .ra: .cfa -8 + ^ x29: .cfa -16 + ^
STACK CFI 19f40 .cfa: sp 16 +
STACK CFI 19f44 .cfa: sp 0 +
STACK CFI 19f48 .cfa: x29 16 +
STACK CFI INIT 1a12c 1cc .cfa: sp 0 +
STACK CFI 1a130 .cfa: sp 160 +
STACK CFI 1a148 .cfa: x29 80 + x19: .cfa -8 + ^ x20: .cfa -16 + ^ x21: .cfa -24 + ^ x22: .cfa -32 + ^ x23: .cfa -40 + ^ x24: .cfa -48 + ^ x25: .cfa -56 + ^ x26: .cfa -64 + ^ .ra: .cfa -72 + ^ x29: .cfa -80 + ^
STACK CFI 1a2a4 .cfa: sp 160 +
STACK CFI 1a2bc .cfa: sp 0 +
STACK CFI 1a2c0 .cfa: x29 80 +
STACK CFI INIT 1a6b0 1a0 .cfa: sp 0 +
STACK CFI 1a6b4 .cfa: sp 64 +
STACK CFI 1a6c4 .cfa: x29 64 + x19: .cfa -8 + ^ x20: .cfa -16 + ^ x21: .cfa -24 + ^ x22: .cfa -32 + ^ x23: .cfa -48 + ^ .ra: .cfa -56 + ^ x29: .cfa -64 + ^
STACK CFI 1a788 .cfa: sp 64 +
STACK CFI 1a798 .cfa: sp 0 +
STACK CFI 1a79c .cfa: x29 64 +
STACK CFI INIT 1ae84 a8 .cfa: sp 0 +
STACK CFI 1ae88 .cfa: sp 64 +
STACK CFI 1ae98 .cfa: x29 64 + x19: .cfa -8 + ^ x20: .cfa -16 + ^ x21: .cfa -24 + ^ x22: .cfa -32 + ^ x23: .cfa -40 + ^ x24: .cfa -48 + ^ .ra: .cfa -56 + ^ x29: .cfa -64 + ^
STACK CFI 1aebc .cfa: sp 64 +
STACK CFI 1aecc .cfa: sp 0 +
STACK CFI 1aed0 .cfa: x29 64 +
STACK CFI INIT 1b4e8 2b4 .cfa: sp 0 +
STACK CFI 1b4ec .cfa: sp 96 +
STACK CFI 1b504 .cfa: x29 80 + x19: .cfa -8 + ^ x20: .cfa -16 + ^ x21: .cfa -24 + ^ x22: .cfa -32 + ^ x23: .cfa -40 + ^ x24: .cfa -48 + ^ x25: .cfa -64 + ^ .ra: .cfa -72 + ^ x29: .cfa -80 + ^
STACK CFI 1b738 .cfa: sp 96 +
STACK CFI 1b750 .cfa: sp 0 +
STACK CFI 1b754 .cfa: x29 80 +
STACK CFI INIT 1b79c 444 .cfa: sp 0 +
STACK CFI 1b7a0 .cfa: sp 224 +
STACK CFI 1b7bc .cfa: x29 96 + x19: .cfa -8 + ^ x20: .cfa -16 + ^ x21: .cfa -24 + ^ x22: .cfa -32 + ^ x23: .cfa -40 + ^ x24: .cfa -48 + ^ x25: .cfa -56 + ^ x26: .cfa -64 + ^ x27: .cfa -72 + ^ x28: .cfa -80 + ^ .ra: .cfa -88 + ^ x29: .cfa -96 + ^
STACK CFI 1bad8 .cfa: sp 224 +
STACK CFI 1baf4 .cfa: sp 0 +
STACK CFI 1baf8 .cfa: x29 96 +
STACK CFI INIT 1bbe0 2b0 .cfa: sp 0 +
STACK CFI 1bbe4 .cfa: sp 192 +
STACK CFI 1bbf8 .cfa: x29 64 + x19: .cfa -8 + ^ x20: .cfa -16 + ^ x21: .cfa -24 + ^ x22: .cfa -32 + ^ x23: .cfa -48 + ^ .ra: .cfa -56 + ^ x29: .cfa -64 + ^
STACK CFI 1bdb8 .cfa: sp 192 +
STACK CFI 1bdcc .cfa: sp 0 +
STACK CFI 1bdd0 .cfa: x29 64 +
STACK CFI INIT 1be94 170 .cfa: sp 0 +
STACK CFI 1be98 .cfa: sp 112 +
STACK CFI 1bea8 .cfa: x29 48 + x19: .cfa -8 + ^ x20: .cfa -16 + ^ x21: .cfa -32 + ^ .ra: .cfa -40 + ^ x29: .cfa -48 + ^
STACK CFI 1bf54 .cfa: sp 112 +
STACK CFI 1bf64 .cfa: sp 0 +
STACK CFI 1bf68 .cfa: x29 48 +
STACK CFI INIT 1c004 1a8 .cfa: sp 0 +
STACK CFI 1c008 .cfa: sp 112 +
STACK CFI 1c01c .cfa: x29 64 + x19: .cfa -8 + ^ x20: .cfa -16 + ^ x21: .cfa -24 + ^ x22: .cfa -32 + ^ x23: .cfa -40 + ^ x24: .cfa -48 + ^ .ra: .cfa -56 + ^ x29: .cfa -64 + ^
STACK CFI 1c0fc .cfa: sp 112 +
STACK CFI 1c110 .cfa: sp 0 +
STACK CFI 1c114 .cfa: x29 64 +
STACK CFI INIT 1c1ac 1f4 .cfa: sp 0 +
STACK CFI 1c1b0 .cfa: sp 128 +
STACK CFI 1c1cc .cfa: x29 96 + x19: .cfa -8 + ^ x20: .cfa -16 + ^ x21: .cfa -24 + ^ x22: .cfa -32 + ^ x23: .cfa -40 + ^ x24: .cfa -48 + ^ x25: .cfa -56 + ^ x26: .cfa -64 + ^ x27: .cfa -72 + ^ x28: .cfa -80 + ^ .ra: .cfa -88 + ^ x29: .cfa -96 + ^
STACK CFI 1c358 .cfa: sp 128 +
STACK CFI 1c374 .cfa: sp 0 +
STACK CFI 1c378 .cfa: x29 96 +
STACK CFI INIT 1c3a0 168 .cfa: sp 0 +
STACK CFI 1c3a4 .cfa: sp 384 +
STACK CFI 1c3b8 .cfa: x29 64 + x19: .cfa -8 + ^ x20: .cfa -16 + ^ x21: .cfa -24 + ^ x22: .cfa -32 + ^ x23: .cfa -40 + ^ x28: .cfa -48 + ^ .ra: .cfa -56 + ^ x29: .cfa -64 + ^
STACK CFI 1c4b0 .cfa: sp 384 +
STACK CFI 1c4c4 .cfa: sp 0 +
STACK CFI 1c4c8 .cfa: x29 64 +
STACK CFI INIT 1c520 118 .cfa: sp 0 +
STACK CFI 1c524 .cfa: sp 144 +
STACK CFI 1c53c .cfa: x29 80 + x19: .cfa -8 + ^ x20: .cfa -16 + ^ x21: .cfa -24 + ^ x22: .cfa -32 + ^ x23: .cfa -40 + ^ x24: .cfa -48 + ^ x25: .cfa -64 + ^ .ra: .cfa -72 + ^ x29: .cfa -80 + ^
STACK CFI 1c5e4 .cfa: sp 144 +
STACK CFI 1c5fc .cfa: sp 0 +
STACK CFI 1c600 .cfa: x29 80 +
STACK CFI INIT 1c638 e4 .cfa: sp 0 +
STACK CFI 1c63c .cfa: sp 160 +
STACK CFI 1c654 .cfa: x29 80 + x19: .cfa -8 + ^ x20: .cfa -16 + ^ x21: .cfa -24 + ^ x22: .cfa -32 + ^ x23: .cfa -40 + ^ x24: .cfa -48 + ^ x25: .cfa -56 + ^ x26: .cfa -64 + ^ .ra: .cfa -72 + ^ x29: .cfa -80 + ^
STACK CFI 1c6d8 .cfa: sp 160 +
STACK CFI 1c6f0 .cfa: sp 0 +
STACK CFI 1c6f4 .cfa: x29 80 +
STACK CFI INIT 1c71c 2b4 .cfa: sp 0 +
STACK CFI 1c720 .cfa: sp 96 +
STACK CFI 1c738 .cfa: x29 80 + x19: .cfa -8 + ^ x20: .cfa -16 + ^ x21: .cfa -24 + ^ x22: .cfa -32 + ^ x23: .cfa -40 + ^ x24: .cfa -48 + ^ x25: .cfa -64 + ^ .ra: .cfa -72 + ^ x29: .cfa -80 + ^
STACK CFI 1c96c .cfa: sp 96 +
STACK CFI 1c984 .cfa: sp 0 +
STACK CFI 1c988 .cfa: x29 80 +
STACK CFI INIT 1c9d0 444 .cfa: sp 0 +
STACK CFI 1c9d4 .cfa: sp 224 +
STACK CFI 1c9f0 .cfa: x29 96 + x19: .cfa -8 + ^ x20: .cfa -16 + ^ x21: .cfa -24 + ^ x22: .cfa -32 + ^ x23: .cfa -40 + ^ x24: .cfa -48 + ^ x25: .cfa -56 + ^ x26: .cfa -64 + ^ x27: .cfa -72 + ^ x28: .cfa -80 + ^ .ra: .cfa -88 + ^ x29: .cfa -96 + ^
STACK CFI 1cd0c .cfa: sp 224 +
STACK CFI 1cd28 .cfa: sp 0 +
STACK CFI 1cd2c .cfa: x29 96 +
STACK CFI INIT 1ce14 2ac .cfa: sp 0 +
STACK CFI 1ce18 .cfa: sp 176 +
STACK CFI 1ce2c .cfa: x29 64 + x19: .cfa -8 + ^ x20: .cfa -16 + ^ x21: .cfa -24 + ^ x22: .cfa -32 + ^ x23: .cfa -48 + ^ .ra: .cfa -56 + ^ x29: .cfa -64 + ^
STACK CFI 1cfe8 .cfa: sp 176 +
STACK CFI 1cffc .cfa: sp 0 +
STACK CFI 1d000 .cfa: x29 64 +
STACK CFI INIT 1d0c4 170 .cfa: sp 0 +
STACK CFI 1d0c8 .cfa: sp 112 +
STACK CFI 1d0d8 .cfa: x29 48 + x19: .cfa -8 + ^ x20: .cfa -16 + ^ x21: .cfa -32 + ^ .ra: .cfa -40 + ^ x29: .cfa -48 + ^
STACK CFI 1d184 .cfa: sp 112 +
STACK CFI 1d194 .cfa: sp 0 +
STACK CFI 1d198 .cfa: x29 48 +
STACK CFI INIT 1d234 1a8 .cfa: sp 0 +
STACK CFI 1d238 .cfa: sp 112 +
STACK CFI 1d24c .cfa: x29 64 + x19: .cfa -8 + ^ x20: .cfa -16 + ^ x21: .cfa -24 + ^ x22: .cfa -32 + ^ x23: .cfa -40 + ^ x24: .cfa -48 + ^ .ra: .cfa -56 + ^ x29: .cfa -64 + ^
STACK CFI 1d32c .cfa: sp 112 +
STACK CFI 1d340 .cfa: sp 0 +
STACK CFI 1d344 .cfa: x29 64 +
STACK CFI INIT 1d3dc 118 .cfa: sp 0 +
STACK CFI 1d3e0 .cfa: sp 144 +
STACK CFI 1d3f8 .cfa: x29 80 + x19: .cfa -8 + ^ x20: .cfa -16 + ^ x21: .cfa -24 + ^ x22: .cfa -32 + ^ x23: .cfa -40 + ^ x24: .cfa -48 + ^ x25: .cfa -64 + ^ .ra: .cfa -72 + ^ x29: .cfa -80 + ^
STACK CFI 1d4a0 .cfa: sp 144 +
STACK CFI 1d4b8 .cfa: sp 0 +
STACK CFI 1d4bc .cfa: x29 80 +
STACK CFI INIT 1d4f4 c0 .cfa: sp 0 +
STACK CFI 1d4f8 .cfa: sp 144 +
STACK CFI 1d50c .cfa: x29 64 + x19: .cfa -8 + ^ x20: .cfa -16 + ^ x21: .cfa -24 + ^ x22: .cfa -32 + ^ x23: .cfa -40 + ^ x24: .cfa -48 + ^ .ra: .cfa -56 + ^ x29: .cfa -64 + ^
STACK CFI 1d574 .cfa: sp 144 +
STACK CFI 1d588 .cfa: sp 0 +
STACK CFI 1d58c .cfa: x29 64 +
STACK CFI INIT 1d5b4 2d4 .cfa: sp 0 +
STACK CFI 1d5b8 .cfa: sp 96 +
STACK CFI 1d5d0 .cfa: x29 80 + x19: .cfa -8 + ^ x20: .cfa -16 + ^ x21: .cfa -24 + ^ x22: .cfa -32 + ^ x23: .cfa -40 + ^ x24: .cfa -48 + ^ x25: .cfa -64 + ^ .ra: .cfa -72 + ^ x29: .cfa -80 + ^
STACK CFI 1d824 .cfa: sp 96 +
STACK CFI 1d83c .cfa: sp 0 +
STACK CFI 1d840 .cfa: x29 80 +
STACK CFI INIT 1d888 408 .cfa: sp 0 +
STACK CFI 1d88c .cfa: sp 224 +
STACK CFI 1d8a8 .cfa: x29 96 + x19: .cfa -8 + ^ x20: .cfa -16 + ^ x21: .cfa -24 + ^ x22: .cfa -32 + ^ x23: .cfa -40 + ^ x24: .cfa -48 + ^ x25: .cfa -56 + ^ x26: .cfa -64 + ^ x27: .cfa -72 + ^ x28: .cfa -80 + ^ .ra: .cfa -88 + ^ x29: .cfa -96 + ^
STACK CFI 1db8c .cfa: sp 224 +
STACK CFI 1dba8 .cfa: sp 0 +
STACK CFI 1dbac .cfa: x29 96 +
STACK CFI INIT 1dc90 a14 .cfa: sp 0 +
STACK CFI 1dc94 .cfa: sp 176 +
STACK CFI 1dca8 .cfa: x29 64 + x19: .cfa -8 + ^ x20: .cfa -16 + ^ x21: .cfa -24 + ^ x22: .cfa -32 + ^ x23: .cfa -40 + ^ x24: .cfa -48 + ^ .ra: .cfa -56 + ^ x29: .cfa -64 + ^
STACK CFI 1e404 .cfa: sp 176 +
STACK CFI 1e418 .cfa: sp 0 +
STACK CFI 1e41c .cfa: x29 64 +
STACK CFI INIT 1e6a4 d0 .cfa: sp 0 +
STACK CFI 1e6a8 .cfa: sp 128 +
STACK CFI 1e6b8 .cfa: x29 48 + x19: .cfa -8 + ^ x20: .cfa -16 + ^ x21: .cfa -32 + ^ .ra: .cfa -40 + ^ x29: .cfa -48 + ^
STACK CFI 1e754 .cfa: sp 128 +
STACK CFI 1e764 .cfa: sp 0 +
STACK CFI 1e768 .cfa: x29 48 +
STACK CFI INIT 1e778 170 .cfa: sp 0 +
STACK CFI 1e77c .cfa: sp 112 +
STACK CFI 1e78c .cfa: x29 48 + x19: .cfa -8 + ^ x20: .cfa -16 + ^ x21: .cfa -32 + ^ .ra: .cfa -40 + ^ x29: .cfa -48 + ^
STACK CFI 1e838 .cfa: sp 112 +
STACK CFI 1e848 .cfa: sp 0 +
STACK CFI 1e84c .cfa: x29 48 +
STACK CFI INIT 1e8e8 1a8 .cfa: sp 0 +
STACK CFI 1e8ec .cfa: sp 112 +
STACK CFI 1e900 .cfa: x29 64 + x19: .cfa -8 + ^ x20: .cfa -16 + ^ x21: .cfa -24 + ^ x22: .cfa -32 + ^ x23: .cfa -40 + ^ x24: .cfa -48 + ^ .ra: .cfa -56 + ^ x29: .cfa -64 + ^
STACK CFI 1e9e0 .cfa: sp 112 +
STACK CFI 1e9f4 .cfa: sp 0 +
STACK CFI 1e9f8 .cfa: x29 64 +
STACK CFI INIT 1ea90 118 .cfa: sp 0 +
STACK CFI 1ea94 .cfa: sp 144 +
STACK CFI 1eaac .cfa: x29 80 + x19: .cfa -8 + ^ x20: .cfa -16 + ^ x21: .cfa -24 + ^ x22: .cfa -32 + ^ x23: .cfa -40 + ^ x24: .cfa -48 + ^ x25: .cfa -64 + ^ .ra: .cfa -72 + ^ x29: .cfa -80 + ^
STACK CFI 1eb54 .cfa: sp 144 +
STACK CFI 1eb6c .cfa: sp 0 +
STACK CFI 1eb70 .cfa: x29 80 +
STACK CFI INIT 1ec14 118 .cfa: sp 0 +
STACK CFI 1ec18 .cfa: sp 144 +
STACK CFI 1ec30 .cfa: x29 80 + x19: .cfa -8 + ^ x20: .cfa -16 + ^ x21: .cfa -24 + ^ x22: .cfa -32 + ^ x23: .cfa -40 + ^ x24: .cfa -48 + ^ x25: .cfa -64 + ^ .ra: .cfa -72 + ^ x29: .cfa -80 + ^
STACK CFI 1ecd8 .cfa: sp 144 +
STACK CFI 1ecf0 .cfa: sp 0 +
STACK CFI 1ecf4 .cfa: x29 80 +
STACK CFI INIT 1ee80 118 .cfa: sp 0 +
STACK CFI 1ee84 .cfa: sp 144 +
STACK CFI 1ee9c .cfa: x29 80 + x19: .cfa -8 + ^ x20: .cfa -16 + ^ x21: .cfa -24 + ^ x22: .cfa -32 + ^ x23: .cfa -40 + ^ x24: .cfa -48 + ^ x25: .cfa -64 + ^ .ra: .cfa -72 + ^ x29: .cfa -80 + ^
STACK CFI 1ef44 .cfa: sp 144 +
STACK CFI 1ef5c .cfa: sp 0 +
STACK CFI 1ef60 .cfa: x29 80 +
STACK CFI INIT 1f010 ec .cfa: sp 0 +
STACK CFI 1f014 .cfa: sp 48 +
STACK CFI 1f020 .cfa: x29 48 + x19: .cfa -8 + ^ x20: .cfa -16 + ^ x21: .cfa -24 + ^ x22: .cfa -32 + ^ .ra: .cfa -40 + ^ x29: .cfa -48 + ^
STACK CFI 1f06c .cfa: sp 48 +
STACK CFI 1f078 .cfa: sp 0 +
STACK CFI 1f07c .cfa: x29 48 +
STACK CFI 1f080 .cfa: sp 48 +
STACK CFI 1f08c .cfa: sp 0 +
STACK CFI 1f090 .cfa: x29 48 +
STACK CFI INIT 1f17c 108 .cfa: sp 0 +
STACK CFI 1f180 .cfa: sp 64 +
STACK CFI 1f190 .cfa: x29 48 + x19: .cfa -8 + ^ x20: .cfa -16 + ^ x21: .cfa -24 + ^ x22: .cfa -32 + ^ .ra: .cfa -40 + ^ x29: .cfa -48 + ^
STACK CFI 1f23c .cfa: sp 64 +
STACK CFI 1f24c .cfa: sp 0 +
STACK CFI 1f250 .cfa: x29 48 +
STACK CFI INIT 1f284 ec .cfa: sp 0 +
STACK CFI 1f288 .cfa: sp 48 +
STACK CFI 1f294 .cfa: x29 48 + x19: .cfa -8 + ^ x20: .cfa -16 + ^ x21: .cfa -24 + ^ x22: .cfa -32 + ^ .ra: .cfa -40 + ^ x29: .cfa -48 + ^
STACK CFI 1f2e0 .cfa: sp 48 +
STACK CFI 1f2ec .cfa: sp 0 +
STACK CFI 1f2f0 .cfa: x29 48 +
STACK CFI 1f2f4 .cfa: sp 48 +
STACK CFI 1f300 .cfa: sp 0 +
STACK CFI 1f304 .cfa: x29 48 +
STACK CFI INIT 1f370 108 .cfa: sp 0 +
STACK CFI 1f374 .cfa: sp 64 +
STACK CFI 1f384 .cfa: x29 48 + x19: .cfa -8 + ^ x20: .cfa -16 + ^ x21: .cfa -24 + ^ x22: .cfa -32 + ^ .ra: .cfa -40 + ^ x29: .cfa -48 + ^
STACK CFI 1f430 .cfa: sp 64 +
STACK CFI 1f440 .cfa: sp 0 +
STACK CFI 1f444 .cfa: x29 48 +
STACK CFI INIT 1f478 10c .cfa: sp 0 +
STACK CFI 1f47c .cfa: sp 64 +
STACK CFI 1f48c .cfa: x29 48 + x19: .cfa -8 + ^ x20: .cfa -16 + ^ x21: .cfa -24 + ^ x22: .cfa -32 + ^ .ra: .cfa -40 + ^ x29: .cfa -48 + ^
STACK CFI 1f53c .cfa: sp 64 +
STACK CFI 1f54c .cfa: sp 0 +
STACK CFI 1f550 .cfa: x29 48 +
STACK CFI INIT 1f6b4 184 .cfa: sp 0 +
STACK CFI 1f6b8 .cfa: sp 112 +
STACK CFI 1f6c8 .cfa: x29 48 + x19: .cfa -8 + ^ x20: .cfa -16 + ^ x21: .cfa -32 + ^ .ra: .cfa -40 + ^ x29: .cfa -48 + ^
STACK CFI 1f790 .cfa: sp 112 +
STACK CFI 1f7a0 .cfa: sp 0 +
STACK CFI 1f7a4 .cfa: x29 48 +
STACK CFI INIT 1f930 21c .cfa: sp 0 +
STACK CFI 1f934 .cfa: sp 112 +
STACK CFI 1f940 .cfa: x29 32 + x19: .cfa -8 + ^ x20: .cfa -16 + ^ .ra: .cfa -24 + ^ x29: .cfa -32 + ^
STACK CFI 1fa04 .cfa: sp 112 +
STACK CFI 1fa10 .cfa: sp 0 +
STACK CFI 1fa14 .cfa: x29 32 +
STACK CFI INIT 1fbd4 134 .cfa: sp 0 +
STACK CFI 1fbd8 .cfa: sp 80 +
STACK CFI 1fbe4 .cfa: x29 32 + x19: .cfa -8 + ^ x20: .cfa -16 + ^ .ra: .cfa -24 + ^ x29: .cfa -32 + ^
STACK CFI 1fc14 .cfa: sp 80 +
STACK CFI 1fc20 .cfa: sp 0 +
STACK CFI 1fc24 .cfa: x29 32 +
STACK CFI INIT 1fd08 78 .cfa: sp 0 +
STACK CFI 1fd0c .cfa: sp 32 +
STACK CFI 1fd14 .cfa: x29 32 + x19: .cfa -8 + ^ x20: .cfa -16 + ^ .ra: .cfa -24 + ^ x29: .cfa -32 + ^
STACK CFI 1fd20 .cfa: sp 32 +
STACK CFI 1fd28 .cfa: sp 0 +
STACK CFI 1fd2c .cfa: x29 32 +
STACK CFI INIT 1fd80 74 .cfa: sp 0 +
STACK CFI 1fd84 .cfa: sp 48 +
STACK CFI 1fd90 .cfa: x29 32 + x19: .cfa -8 + ^ x20: .cfa -16 + ^ .ra: .cfa -24 + ^ x29: .cfa -32 + ^
STACK CFI 1fddc .cfa: sp 48 +
STACK CFI 1fde8 .cfa: sp 0 +
STACK CFI 1fdec .cfa: x29 32 +
STACK CFI INIT 1fe58 224 .cfa: sp 0 +
STACK CFI 1fe5c .cfa: sp 128 +
STACK CFI 1fe6c .cfa: x29 48 + x19: .cfa -8 + ^ x20: .cfa -16 + ^ x21: .cfa -32 + ^ .ra: .cfa -40 + ^ x29: .cfa -48 + ^
STACK CFI 1ff1c .cfa: sp 128 +
STACK CFI 1ff2c .cfa: sp 0 +
STACK CFI 1ff30 .cfa: x29 48 +
STACK CFI INIT 20118 300 .cfa: sp 0 +
STACK CFI 2011c .cfa: sp 144 +
STACK CFI 20130 .cfa: x29 64 + x19: .cfa -8 + ^ x20: .cfa -16 + ^ x21: .cfa -24 + ^ x22: .cfa -32 + ^ x23: .cfa -48 + ^ .ra: .cfa -56 + ^ x29: .cfa -64 + ^
STACK CFI 202c4 .cfa: sp 144 +
STACK CFI 202d8 .cfa: sp 0 +
STACK CFI 202dc .cfa: x29 64 +
STACK CFI INIT 204c0 fbc .cfa: sp 0 +
STACK CFI 204c4 .cfa: sp 176 +
STACK CFI 204e0 .cfa: x29 96 + x19: .cfa -8 + ^ x20: .cfa -16 + ^ x21: .cfa -24 + ^ x22: .cfa -32 + ^ x23: .cfa -40 + ^ x24: .cfa -48 + ^ x25: .cfa -56 + ^ x26: .cfa -64 + ^ x27: .cfa -72 + ^ x28: .cfa -80 + ^ .ra: .cfa -88 + ^ x29: .cfa -96 + ^
STACK CFI 20f4c .cfa: sp 176 +
STACK CFI 20f68 .cfa: sp 0 +
STACK CFI 20f6c .cfa: x29 96 +
STACK CFI INIT 214d0 180 .cfa: sp 0 +
STACK CFI 214d4 .cfa: sp 160 +
STACK CFI 214ec .cfa: x29 80 + x19: .cfa -8 + ^ x20: .cfa -16 + ^ x21: .cfa -24 + ^ x22: .cfa -32 + ^ x23: .cfa -40 + ^ x24: .cfa -48 + ^ x25: .cfa -56 + ^ x26: .cfa -64 + ^ .ra: .cfa -72 + ^ x29: .cfa -80 + ^
STACK CFI 21554 .cfa: sp 160 +
STACK CFI 2156c .cfa: sp 0 +
STACK CFI 21570 .cfa: x29 80 +
STACK CFI INIT 21650 4ac .cfa: sp 0 +
STACK CFI 21654 .cfa: sp 128 +
STACK CFI 2166c .cfa: x29 80 + x19: .cfa -8 + ^ x20: .cfa -16 + ^ x21: .cfa -24 + ^ x22: .cfa -32 + ^ x23: .cfa -40 + ^ x24: .cfa -48 + ^ x25: .cfa -64 + ^ .ra: .cfa -72 + ^ x29: .cfa -80 + ^
STACK CFI 21a78 .cfa: sp 128 +
STACK CFI 21a90 .cfa: sp 0 +
STACK CFI 21a94 .cfa: x29 80 +
STACK CFI INIT 21b04 190 .cfa: sp 0 +
STACK CFI 21b08 .cfa: sp 176 +
STACK CFI 21b24 .cfa: x29 80 + x19: .cfa -8 + ^ x20: .cfa -16 + ^ x21: .cfa -24 + ^ x22: .cfa -32 + ^ x23: .cfa -40 + ^ x24: .cfa -48 + ^ x25: .cfa -56 + ^ x26: .cfa -64 + ^ .ra: .cfa -72 + ^ x29: .cfa -80 + ^ v8: .cfa -96 + ^
STACK CFI 21b94 .cfa: sp 176 +
STACK CFI 21bb0 .cfa: sp 0 +
STACK CFI 21bb4 .cfa: x29 80 +
STACK CFI INIT 21c94 5ac .cfa: sp 0 +
STACK CFI 21c98 .cfa: sp 128 +
STACK CFI 21cb0 .cfa: x29 80 + x19: .cfa -8 + ^ x20: .cfa -16 + ^ x21: .cfa -24 + ^ x22: .cfa -32 + ^ x23: .cfa -40 + ^ x24: .cfa -48 + ^ x25: .cfa -64 + ^ .ra: .cfa -72 + ^ x29: .cfa -80 + ^
STACK CFI 221ac .cfa: sp 128 +
STACK CFI 221c4 .cfa: sp 0 +
STACK CFI 221c8 .cfa: x29 80 +
STACK CFI INIT 22248 170 .cfa: sp 0 +
STACK CFI 2224c .cfa: sp 144 +
STACK CFI 22264 .cfa: x29 56 + x19: .cfa -8 + ^ x20: .cfa -16 + ^ x21: .cfa -24 + ^ x22: .cfa -32 + ^ x23: .cfa -40 + ^ .ra: .cfa -48 + ^ x29: .cfa -56 + ^ v8: .cfa -64 + ^
STACK CFI 222bc .cfa: sp 144 +
STACK CFI 222d4 .cfa: sp 0 +
STACK CFI 222d8 .cfa: x29 56 +
STACK CFI INIT 223b8 2d4 .cfa: sp 0 +
STACK CFI 223bc .cfa: sp 96 +
STACK CFI 223d4 .cfa: x29 80 + x19: .cfa -8 + ^ x20: .cfa -16 + ^ x21: .cfa -24 + ^ x22: .cfa -32 + ^ x23: .cfa -40 + ^ x24: .cfa -48 + ^ x25: .cfa -64 + ^ .ra: .cfa -72 + ^ x29: .cfa -80 + ^
STACK CFI 22628 .cfa: sp 96 +
STACK CFI 22640 .cfa: sp 0 +
STACK CFI 22644 .cfa: x29 80 +
STACK CFI INIT 22694 14c .cfa: sp 0 +
STACK CFI 22698 .cfa: sp 144 +
STACK CFI 226ac .cfa: x29 64 + x19: .cfa -8 + ^ x20: .cfa -16 + ^ x21: .cfa -24 + ^ x22: .cfa -32 + ^ x23: .cfa -48 + ^ .ra: .cfa -56 + ^ x29: .cfa -64 + ^
STACK CFI 226fc .cfa: sp 144 +
STACK CFI 22710 .cfa: sp 0 +
STACK CFI 22714 .cfa: x29 64 +
STACK CFI INIT 227e0 108 .cfa: sp 0 +
STACK CFI 227e4 .cfa: sp 64 +
STACK CFI 227f4 .cfa: x29 48 + x19: .cfa -8 + ^ x20: .cfa -16 + ^ x21: .cfa -24 + ^ x22: .cfa -32 + ^ .ra: .cfa -40 + ^ x29: .cfa -48 + ^
STACK CFI 228a0 .cfa: sp 64 +
STACK CFI 228b0 .cfa: sp 0 +
STACK CFI 228b4 .cfa: x29 48 +
STACK CFI INIT 22900 164 .cfa: sp 0 +
STACK CFI 22904 .cfa: sp 160 +
STACK CFI 2291c .cfa: x29 80 + x19: .cfa -8 + ^ x20: .cfa -16 + ^ x21: .cfa -24 + ^ x22: .cfa -32 + ^ x23: .cfa -40 + ^ x24: .cfa -48 + ^ x25: .cfa -64 + ^ .ra: .cfa -72 + ^ x29: .cfa -80 + ^
STACK CFI 2297c .cfa: sp 160 +
STACK CFI 22994 .cfa: sp 0 +
STACK CFI 22998 .cfa: x29 80 +
STACK CFI INIT 22a64 3d4 .cfa: sp 0 +
STACK CFI 22a68 .cfa: sp 96 +
STACK CFI 22a80 .cfa: x29 80 + x19: .cfa -8 + ^ x20: .cfa -16 + ^ x21: .cfa -24 + ^ x22: .cfa -32 + ^ x23: .cfa -40 + ^ x24: .cfa -48 + ^ x25: .cfa -64 + ^ .ra: .cfa -72 + ^ x29: .cfa -80 + ^
STACK CFI 22dc4 .cfa: sp 96 +
STACK CFI 22ddc .cfa: sp 0 +
STACK CFI 22de0 .cfa: x29 80 +
STACK CFI INIT 22e38 17c .cfa: sp 0 +
STACK CFI 22e3c .cfa: sp 176 +
STACK CFI 22e58 .cfa: x29 96 + x19: .cfa -8 + ^ x20: .cfa -16 + ^ x21: .cfa -24 + ^ x22: .cfa -32 + ^ x23: .cfa -40 + ^ x24: .cfa -48 + ^ x25: .cfa -56 + ^ x26: .cfa -64 + ^ x27: .cfa -80 + ^ .ra: .cfa -88 + ^ x29: .cfa -96 + ^
STACK CFI 22ec8 .cfa: sp 176 +
STACK CFI 22ee4 .cfa: sp 0 +
STACK CFI 22ee8 .cfa: x29 96 +
STACK CFI INIT 22fb4 5d4 .cfa: sp 0 +
STACK CFI 22fb8 .cfa: sp 96 +
STACK CFI 22fd0 .cfa: x29 80 + x19: .cfa -8 + ^ x20: .cfa -16 + ^ x21: .cfa -24 + ^ x22: .cfa -32 + ^ x23: .cfa -40 + ^ x24: .cfa -48 + ^ x25: .cfa -64 + ^ .ra: .cfa -72 + ^ x29: .cfa -80 + ^
STACK CFI 234f4 .cfa: sp 96 +
STACK CFI 2350c .cfa: sp 0 +
STACK CFI 23510 .cfa: x29 80 +
STACK CFI INIT 23588 14c .cfa: sp 0 +
STACK CFI 2358c .cfa: sp 144 +
STACK CFI 235a0 .cfa: x29 64 + x19: .cfa -8 + ^ x20: .cfa -16 + ^ x21: .cfa -24 + ^ x22: .cfa -32 + ^ x23: .cfa -48 + ^ .ra: .cfa -56 + ^ x29: .cfa -64 + ^
STACK CFI 235f0 .cfa: sp 144 +
STACK CFI 23604 .cfa: sp 0 +
STACK CFI 23608 .cfa: x29 64 +
STACK CFI INIT 236d4 108 .cfa: sp 0 +
STACK CFI 236d8 .cfa: sp 64 +
STACK CFI 236e8 .cfa: x29 48 + x19: .cfa -8 + ^ x20: .cfa -16 + ^ x21: .cfa -24 + ^ x22: .cfa -32 + ^ .ra: .cfa -40 + ^ x29: .cfa -48 + ^
STACK CFI 23794 .cfa: sp 64 +
STACK CFI 237a4 .cfa: sp 0 +
STACK CFI 237a8 .cfa: x29 48 +
STACK CFI INIT 237e0 2e4 .cfa: sp 0 +
STACK CFI 237e4 .cfa: sp 144 +
STACK CFI 237f8 .cfa: x29 64 + x19: .cfa -8 + ^ x20: .cfa -16 + ^ x21: .cfa -24 + ^ x22: .cfa -32 + ^ x23: .cfa -48 + ^ .ra: .cfa -56 + ^ x29: .cfa -64 + ^
STACK CFI 23970 .cfa: sp 144 +
STACK CFI 23984 .cfa: sp 0 +
STACK CFI 23988 .cfa: x29 64 +
STACK CFI INIT 23b18 2a0 .cfa: sp 0 +
STACK CFI 23b1c .cfa: sp 144 +
STACK CFI 23b30 .cfa: x29 64 + x19: .cfa -8 + ^ x20: .cfa -16 + ^ x21: .cfa -24 + ^ x22: .cfa -32 + ^ x23: .cfa -48 + ^ .ra: .cfa -56 + ^ x29: .cfa -64 + ^
STACK CFI 23c64 .cfa: sp 144 +
STACK CFI 23c78 .cfa: sp 0 +
STACK CFI 23c7c .cfa: x29 64 +
STACK CFI INIT 23db8 2f0 .cfa: sp 0 +
STACK CFI 23dbc .cfa: sp 144 +
STACK CFI 23dd0 .cfa: x29 64 + x19: .cfa -8 + ^ x20: .cfa -16 + ^ x21: .cfa -24 + ^ x22: .cfa -32 + ^ x23: .cfa -48 + ^ .ra: .cfa -56 + ^ x29: .cfa -64 + ^
STACK CFI 23f54 .cfa: sp 144 +
STACK CFI 23f68 .cfa: sp 0 +
STACK CFI 23f6c .cfa: x29 64 +
STACK CFI INIT 240a8 4f4 .cfa: sp 0 +
STACK CFI 240ac .cfa: sp 144 +
STACK CFI 240c0 .cfa: x29 64 + x19: .cfa -8 + ^ x20: .cfa -16 + ^ x21: .cfa -24 + ^ x22: .cfa -32 + ^ x23: .cfa -48 + ^ .ra: .cfa -56 + ^ x29: .cfa -64 + ^
STACK CFI 243f4 .cfa: sp 144 +
STACK CFI 24408 .cfa: sp 0 +
STACK CFI 2440c .cfa: x29 64 +
STACK CFI INIT 2459c 154 .cfa: sp 0 +
STACK CFI 245a0 .cfa: sp 384 +
STACK CFI 245b4 .cfa: x29 64 + x19: .cfa -8 + ^ x20: .cfa -16 + ^ x21: .cfa -24 + ^ x22: .cfa -32 + ^ x23: .cfa -40 + ^ x28: .cfa -48 + ^ .ra: .cfa -56 + ^ x29: .cfa -64 + ^
STACK CFI 24698 .cfa: sp 384 +
STACK CFI 246ac .cfa: sp 0 +
STACK CFI 246b0 .cfa: x29 64 +
STACK CFI INIT 24708 50c .cfa: sp 0 +
STACK CFI 2470c .cfa: sp 64 +
STACK CFI 2471c .cfa: x29 64 + x19: .cfa -8 + ^ x20: .cfa -16 + ^ x21: .cfa -24 + ^ x22: .cfa -32 + ^ x23: .cfa -40 + ^ x24: .cfa -48 + ^ .ra: .cfa -56 + ^ x29: .cfa -64 + ^
STACK CFI 2483c .cfa: sp 64 +
STACK CFI 2484c .cfa: sp 0 +
STACK CFI 24850 .cfa: x29 64 +
STACK CFI 24be8 .cfa: sp 64 +
STACK CFI 24bf8 .cfa: sp 0 +
STACK CFI 24bfc .cfa: x29 64 +
